; Listing generated by Microsoft (R) Optimizing Compiler Version 19.44.35225.0 

	TITLE	C:\IAGOS\server\v18\Source\Output\WorldServer\Release\MoverSkill.obj
	.686P
	.XMM
	include listing.inc
	.model	flat

INCLUDELIB LIBCMT
INCLUDELIB OLDNAMES

CONST	SEGMENT
?piecewise_construct@std@@3Upiecewise_construct_t@1@B	ORG $+1 ; std::piecewise_construct
CONST	ENDS
PUBLIC	?__empty_global_delete@@YAXPAX@Z		; __empty_global_delete
PUBLIC	?__empty_global_delete@@YAXPAXI@Z		; __empty_global_delete
PUBLIC	___local_stdio_printf_options
PUBLIC	_sprintf
PUBLIC	?AtlThrowImpl@ATL@@YGXJ@Z			; ATL::AtlThrowImpl
PUBLIC	??1?$CSimpleStringT@D$0A@@ATL@@QAE@XZ		; ATL::CSimpleStringT<char,0>::~CSimpleStringT<char,0>
PUBLIC	?Empty@?$CSimpleStringT@D$0A@@ATL@@QAEXXZ	; ATL::CSimpleStringT<char,0>::Empty
PUBLIC	?ThrowMemoryException@?$CSimpleStringT@D$0A@@ATL@@KAXXZ ; ATL::CSimpleStringT<char,0>::ThrowMemoryException
PUBLIC	?Fork@?$CSimpleStringT@D$0A@@ATL@@AAEXH@Z	; ATL::CSimpleStringT<char,0>::Fork
PUBLIC	?PrepareWrite2@?$CSimpleStringT@D$0A@@ATL@@AAEXH@Z ; ATL::CSimpleStringT<char,0>::PrepareWrite2
PUBLIC	?Reallocate@?$CSimpleStringT@D$0A@@ATL@@AAEXH@Z	; ATL::CSimpleStringT<char,0>::Reallocate
PUBLIC	??0?$CStringT@DV?$StrTraitMFC@DV?$ChTraitsCRT@D@ATL@@@@@ATL@@QAE@XZ ; ATL::CStringT<char,StrTraitMFC<char,ATL::ChTraitsCRT<char> > >::CStringT<char,StrTraitMFC<char,ATL::ChTraitsCRT<char> > >
PUBLIC	??1?$CStringT@DV?$StrTraitMFC@DV?$ChTraitsCRT@D@ATL@@@@@ATL@@QAE@XZ ; ATL::CStringT<char,StrTraitMFC<char,ATL::ChTraitsCRT<char> > >::~CStringT<char,StrTraitMFC<char,ATL::ChTraitsCRT<char> > >
PUBLIC	??4?$CStringT@DV?$StrTraitMFC@DV?$ChTraitsCRT@D@ATL@@@@@ATL@@QAEAAV01@PBD@Z ; ATL::CStringT<char,StrTraitMFC<char,ATL::ChTraitsCRT<char> > >::operator=
PUBLIC	?Replace@?$CStringT@DV?$StrTraitMFC@DV?$ChTraitsCRT@D@ATL@@@@@ATL@@QAEHDD@Z ; ATL::CStringT<char,StrTraitMFC<char,ATL::ChTraitsCRT<char> > >::Replace
PUBLIC	?Format@?$CStringT@DV?$StrTraitMFC@DV?$ChTraitsCRT@D@ATL@@@@@ATL@@QAAXPBDZZ ; ATL::CStringT<char,StrTraitMFC<char,ATL::ChTraitsCRT<char> > >::Format
PUBLIC	?FormatV@?$CStringT@DV?$StrTraitMFC@DV?$ChTraitsCRT@D@ATL@@@@@ATL@@QAEXPBDPAD@Z ; ATL::CStringT<char,StrTraitMFC<char,ATL::ChTraitsCRT<char> > >::FormatV
PUBLIC	?LoadStringA@?$CStringT@DV?$StrTraitMFC@DV?$ChTraitsCRT@D@ATL@@@@@ATL@@QAEHI@Z ; ATL::CStringT<char,StrTraitMFC<char,ATL::ChTraitsCRT<char> > >::LoadStringA
PUBLIC	??0exception@std@@QAE@ABV01@@Z			; std::exception::exception
PUBLIC	??1exception@std@@UAE@XZ			; std::exception::~exception
PUBLIC	?what@exception@std@@UBEPBDXZ			; std::exception::what
PUBLIC	??_Gexception@std@@UAEPAXI@Z			; std::exception::`scalar deleting destructor'
PUBLIC	??0bad_alloc@std@@QAE@ABV01@@Z			; std::bad_alloc::bad_alloc
PUBLIC	??_Gbad_alloc@std@@UAEPAXI@Z			; std::bad_alloc::`scalar deleting destructor'
PUBLIC	??0bad_array_new_length@std@@QAE@XZ		; std::bad_array_new_length::bad_array_new_length
PUBLIC	??1bad_array_new_length@std@@UAE@XZ		; std::bad_array_new_length::~bad_array_new_length
PUBLIC	??0bad_array_new_length@std@@QAE@ABV01@@Z	; std::bad_array_new_length::bad_array_new_length
PUBLIC	??_Gbad_array_new_length@std@@UAEPAXI@Z		; std::bad_array_new_length::`scalar deleting destructor'
PUBLIC	?_Throw_bad_array_new_length@std@@YAXXZ		; std::_Throw_bad_array_new_length
PUBLIC	??0D3DXVECTOR3@@QAE@XZ				; D3DXVECTOR3::D3DXVECTOR3
PUBLIC	??0_LogItemInfo@@QAE@XZ				; _LogItemInfo::_LogItemInfo
PUBLIC	?GetDegree@@YAMABUD3DXVECTOR3@@0@Z		; GetDegree
PUBLIC	??1?$vector@EV?$allocator@E@std@@@std@@QAE@XZ	; std::vector<unsigned char,std::allocator<unsigned char> >::~vector<unsigned char,std::allocator<unsigned char> >
PUBLIC	?_Xlength@?$vector@EV?$allocator@E@std@@@std@@CAXXZ ; std::vector<unsigned char,std::allocator<unsigned char> >::_Xlength
PUBLIC	?GetItemProp@CProject@@QAEPAUItemProp@@H@Z	; CProject::GetItemProp
PUBLIC	?GetSkillProp@CProject@@QAEPAUItemProp@@H@Z	; CProject::GetSkillProp
PUBLIC	?GetText@CProject@@QAEPBDK@Z			; CProject::GetText
PUBLIC	?GetPropA@CItemElem@@QAEPAUItemProp@@XZ		; CItemElem::GetPropA
PUBLIC	?IsVisPet@CItemElem@@QAEHXZ			; CItemElem::IsVisPet
PUBLIC	?GetAt@?$CItemContainer@VCItemElem@@@@QAEPAVCItemElem@@K@Z ; CItemContainer<CItemElem>::GetAt
PUBLIC	?GetEquip@?$CItemContainer@VCItemElem@@@@QAEPAVCItemElem@@K@Z ; CItemContainer<CItemElem>::GetEquip
PUBLIC	?GetAtId@?$CItemContainer@VCItemElem@@@@QAEPAVCItemElem@@K@Z ; CItemContainer<CItemElem>::GetAtId
PUBLIC	?GetAtItemId@?$CItemContainer@VCItemElem@@@@QAEPAVCItemElem@@K@Z ; CItemContainer<CItemElem>::GetAtItemId
PUBLIC	??E?$_Tree_iterator@V?$_Tree_val@U?$_Tree_simple_types@U?$pair@$$CBKPAVIBuff@@@std@@@std@@@std@@@std@@QAEAAV01@XZ ; std::_Tree_iterator<std::_Tree_val<std::_Tree_simple_types<std::pair<unsigned long const ,IBuff *> > > >::operator++
PUBLIC	?GetRemoveSfxObj@CMover@@QAEKK@Z		; CMover::GetRemoveSfxObj
PUBLIC	?SetRemoveSfxObj@CMover@@QAEXK@Z		; CMover::SetRemoveSfxObj
PUBLIC	?DoUseEatPet@CMover@@AAEXPAVCItemElem@@@Z	; CMover::DoUseEatPet
PUBLIC	?DoUseSystemPet@CMover@@AAEXPAVCItemElem@@@Z	; CMover::DoUseSystemPet
PUBLIC	?ActivateEatPet@CMover@@QAEXPAVCItemElem@@@Z	; CMover::ActivateEatPet
PUBLIC	?ActivateSystemPet@CMover@@QAEXPAVCItemElem@@@Z	; CMover::ActivateSystemPet
PUBLIC	?InactivateEatPet@CMover@@QAEXXZ		; CMover::InactivateEatPet
PUBLIC	?InactivateSystemPet@CMover@@QAEXPAVCItemElem@@@Z ; CMover::InactivateSystemPet
PUBLIC	?SetPetVisDST@CMover@@QAEXPAVCItemElem@@@Z	; CMover::SetPetVisDST
PUBLIC	?ResetPetVisDST@CMover@@QAEXPAVCItemElem@@@Z	; CMover::ResetPetVisDST
PUBLIC	?ProcessVisPet@CMover@@QAEXXZ			; CMover::ProcessVisPet
PUBLIC	?DoUseItemPetTonic@CMover@@AAEHPAVCItemElem@@@Z	; CMover::DoUseItemPetTonic
PUBLIC	?SetValidNeedVis@CMover@@AAEHPAVCItemElem@@HAAV?$vector@EV?$allocator@E@std@@@std@@@Z ; CMover::SetValidNeedVis
PUBLIC	?GetValidVisTable@CMover@@QAE?AV?$vector@EV?$allocator@E@std@@@std@@PAVCItemElem@@@Z ; CMover::GetValidVisTable
PUBLIC	?IsSatisfyNeedVis@CMover@@QAEEPAVCItemElem@@PAUItemProp@@@Z ; CMover::IsSatisfyNeedVis
PUBLIC	?DoUseItemFeedPocket@CMover@@QAEHPAVCItemElem@@@Z ; CMover::DoUseItemFeedPocket
PUBLIC	?DoUseBarunaPet@CMover@@QAEXPAVCItemElem@@@Z	; CMover::DoUseBarunaPet
PUBLIC	?InactivateBarunaPet@CMover@@QAEXXZ		; CMover::InactivateBarunaPet
PUBLIC	?GetReuseDelay@CMover@@QAEKH@Z			; CMover::GetReuseDelay
PUBLIC	?GetPropA@CMover@@QAEPAUMoverProp@@XZ		; CMover::GetPropA
PUBLIC	?OnEndSkillState@CMover@@QAEXKK@Z		; CMover::OnEndSkillState
PUBLIC	?IsDie@CMover@@QAEHXZ				; CMover::IsDie
PUBLIC	?DoUseSkill@CMover@@QAEHKHKW4SKILLUSETYPE@@HH@Z	; CMover::DoUseSkill
PUBLIC	?OnAfterUseItem@CMover@@QAEXPBUItemProp@@@Z	; CMover::OnAfterUseItem
PUBLIC	?DoUseItemVirtual@CMover@@QAEHKH@Z		; CMover::DoUseItemVirtual
PUBLIC	?DoUseItem@CMover@@QAEHKKH@Z			; CMover::DoUseItem
PUBLIC	?DoUseItemBlinkWing@CMover@@QAEHPAUItemProp@@PAVCItemElem@@H@Z ; CMover::DoUseItemBlinkWing
PUBLIC	?DoUseItemFood_SM@CMover@@QAEHPAUItemProp@@PAVCItemElem@@@Z ; CMover::DoUseItemFood_SM
PUBLIC	?DoUseItemFood@CMover@@QAEHPAUItemProp@@PAVCItemElem@@@Z ; CMover::DoUseItemFood
PUBLIC	?DoUseItemWarp@CMover@@QAEHPAUItemProp@@PAVCItemElem@@@Z ; CMover::DoUseItemWarp
PUBLIC	?DoUseItemSystem@CMover@@QAEHPAUItemProp@@PAVCItemElem@@H@Z ; CMover::DoUseItemSystem
PUBLIC	?DoUseItemOnce@CMover@@QAEHPAUItemProp@@PAVCItemElem@@H@Z ; CMover::DoUseItemOnce
PUBLIC	?DoUseItemKeep@CMover@@QAEHPAUItemProp@@PAVCItemElem@@H@Z ; CMover::DoUseItemKeep
PUBLIC	?DoPickupItemAround@CMover@@QAEXXZ		; CMover::DoPickupItemAround
PUBLIC	?DoAttackMagic@CMover@@QAEHPAVCObj@@HH@Z	; CMover::DoAttackMagic
PUBLIC	?DoAttackRange@CMover@@QAEHPAVCObj@@KH@Z	; CMover::DoAttackRange
PUBLIC	?DoAttackSP@CMover@@QAEHPAVCObj@@K@Z		; CMover::DoAttackSP
PUBLIC	?DoAttackMelee@CMover@@QAEHPAV1@W4OBJMSG@@K@Z	; CMover::DoAttackMelee
PUBLIC	?SendDamageAround@CMover@@QAEXHPAV1@HHMMM@Z	; CMover::SendDamageAround
PUBLIC	?SendDamageLine@CMover@@QAEXHHHMMM@Z		; CMover::SendDamageLine
PUBLIC	?OnEndMeleeAttack@CMover@@QAEXK@Z		; CMover::OnEndMeleeAttack
PUBLIC	?SetMasterSkillPointUp@CMover@@QAEXXZ		; CMover::SetMasterSkillPointUp
PUBLIC	?GetQueueCastingTime@CMover@@QAEHXZ		; CMover::GetQueueCastingTime
PUBLIC	?DoUseSkill@CMover@@QAEHHHKW4SKILLUSETYPE@@H@Z	; CMover::DoUseSkill
PUBLIC	?DoUseItemSexChange@CMover@@QAEHH@Z		; CMover::DoUseItemSexChange
PUBLIC	?IsDoUseBuff@CMover@@QAEHPAUItemProp@@@Z	; CMover::IsDoUseBuff
PUBLIC	??$_Copy_memmove_tail@PAE@std@@YAPAEQBDQAEII@Z	; std::_Copy_memmove_tail<unsigned char *>
PUBLIC	??$_Copy_memmove@PAEPAE@std@@YAPAEPAE00@Z	; std::_Copy_memmove<unsigned char *,unsigned char *>
PUBLIC	??$_Allocate_manually_vector_aligned@U_Default_allocate_traits@std@@@std@@YAPAXI@Z ; std::_Allocate_manually_vector_aligned<std::_Default_allocate_traits>
PUBLIC	??$_Resize@E@?$vector@EV?$allocator@E@std@@@std@@AAEXIABE@Z ; std::vector<unsigned char,std::allocator<unsigned char> >::_Resize<unsigned char>
PUBLIC	??$_Fill_memset@PAEE@std@@YAXPAEEI@Z		; std::_Fill_memset<unsigned char *,unsigned char>
PUBLIC	?_OptionsStorage@?1??__local_stdio_printf_options@@9@4_KA ; `__local_stdio_printf_options'::`2'::_OptionsStorage
PUBLIC	??_C@_02DPKJAMEF@?$CFd@				; `string'
PUBLIC	??_C@_00CNPNBAHC@@				; `string'
PUBLIC	??_7exception@std@@6B@				; std::exception::`vftable'
PUBLIC	??_C@_0BC@EOODALEL@Unknown?5exception@		; `string'
PUBLIC	??_7bad_alloc@std@@6B@				; std::bad_alloc::`vftable'
PUBLIC	??_7bad_array_new_length@std@@6B@		; std::bad_array_new_length::`vftable'
PUBLIC	??_C@_0BF@KINCDENJ@bad?5array?5new?5length@	; `string'
PUBLIC	??_R0?AVexception@std@@@8			; std::exception `RTTI Type Descriptor'
PUBLIC	__CT??_R0?AVexception@std@@@8??0exception@std@@QAE@ABV01@@Z12
PUBLIC	__TI3?AVbad_array_new_length@std@@
PUBLIC	__CTA3?AVbad_array_new_length@std@@
PUBLIC	??_R0?AVbad_array_new_length@std@@@8		; std::bad_array_new_length `RTTI Type Descriptor'
PUBLIC	__CT??_R0?AVbad_array_new_length@std@@@8??0bad_array_new_length@std@@QAE@ABV01@@Z12
PUBLIC	??_R0?AVbad_alloc@std@@@8			; std::bad_alloc `RTTI Type Descriptor'
PUBLIC	__CT??_R0?AVbad_alloc@std@@@8??0bad_alloc@std@@QAE@ABV01@@Z12
PUBLIC	??_C@_0BM@HMFGHCP@?$CFs?5min?3?$CFd?0?5max?3?$CFd?0?5index?3?$CFd@ ; `string'
PUBLIC	??_C@_0BI@BEIFNGEL@GetItemProp?5range_error@	; `string'
PUBLIC	??_C@_0BJ@GPNGCFMK@GetSkillProp?5range_error@	; `string'
PUBLIC	??_C@_0BJ@GKPOBPPI@GetMoverProp?5range_error@	; `string'
PUBLIC	??_C@_0BE@OHDBLHOM@GetText?5range_error@	; `string'
PUBLIC	??_C@_05KKCIMGE@error@				; `string'
PUBLIC	??_C@_0BA@FOIKENOD@vector?5too?5long@		; `string'
PUBLIC	??_R4exception@std@@6B@				; std::exception::`RTTI Complete Object Locator'
PUBLIC	??_R3exception@std@@8				; std::exception::`RTTI Class Hierarchy Descriptor'
PUBLIC	??_R2exception@std@@8				; std::exception::`RTTI Base Class Array'
PUBLIC	??_R1A@?0A@EA@exception@std@@8			; std::exception::`RTTI Base Class Descriptor at (0,-1,0,64)'
PUBLIC	??_R4bad_array_new_length@std@@6B@		; std::bad_array_new_length::`RTTI Complete Object Locator'
PUBLIC	??_R3bad_array_new_length@std@@8		; std::bad_array_new_length::`RTTI Class Hierarchy Descriptor'
PUBLIC	??_R2bad_array_new_length@std@@8		; std::bad_array_new_length::`RTTI Base Class Array'
PUBLIC	??_R1A@?0A@EA@bad_array_new_length@std@@8	; std::bad_array_new_length::`RTTI Base Class Descriptor at (0,-1,0,64)'
PUBLIC	??_R1A@?0A@EA@bad_alloc@std@@8			; std::bad_alloc::`RTTI Base Class Descriptor at (0,-1,0,64)'
PUBLIC	??_R3bad_alloc@std@@8				; std::bad_alloc::`RTTI Class Hierarchy Descriptor'
PUBLIC	??_R2bad_alloc@std@@8				; std::bad_alloc::`RTTI Base Class Array'
PUBLIC	??_R4bad_alloc@std@@6B@				; std::bad_alloc::`RTTI Complete Object Locator'
PUBLIC	??_C@_0DO@PAGMBNAO@CMover?3?3GetQueueCastingTime?5?3?5?$CF@ ; `string'
PUBLIC	??_C@_0EC@JPIDGHBC@CMover?3?3GetQueueCastingTime?5?3?5?$CF@ ; `string'
PUBLIC	??_C@_0DN@POBPMOID@CMover?3?3DoUseSkill?5?3?5?$CFs?$LE?B?5nIdx?$LP@ ; `string'
PUBLIC	??_C@_0N@FIJAGOKJ@DoUseSkill_P@			; `string'
PUBLIC	??_C@_0L@LLMCBIOI@DoUseSkill@			; `string'
PUBLIC	??_C@_04OEDFLLKD@?$CC?$CFs?$CC@			; `string'
PUBLIC	??_C@_0CN@EEBJCALL@DoUseSkill?5?3?5?$CFs?5?0?5?E?$LI?$LA?Y?5?$CFs?5?$MA?G?5?G?A@ ; `string'
PUBLIC	??_C@_0N@KNNGFFII@SkillLevel1?5@		; `string'
PUBLIC	??_C@_0DF@KIFDAMPH@DoUseSkill?5?3?5?$CFs?5NULL?5GetSkill?5?$CF@ ; `string'
PUBLIC	??_C@_0N@KPJAOLNB@SkillLevel2?5@		; `string'
PUBLIC	??_C@_0CB@HOKPNGH@DoUseSkill?5?3?5?$CFs?5dwSkillType?5?$DN?5?$CF@ ; `string'
PUBLIC	??_C@_0CL@ILELHNJ@OnEndSkillState?5?3?5?$LN?$LK?E?$LD?$MA?G?5?$LJ?$PM?$MA?$KH?$LI?$KG@ ; `string'
PUBLIC	??_C@_0BA@LLKPHDJP@OnEndSkillState@		; `string'
PUBLIC	??_C@_0BC@PPLMFBOE@GUILDHOUSE_LISTUP@		; `string'
PUBLIC	??_C@_01INIBCBCB@f@				; `string'
PUBLIC	??_C@_0M@HGMIEEBN@HOUSING_USE@			; `string'
PUBLIC	??_C@_01HNPIGOCE@?$CG@				; `string'
PUBLIC	??_C@_0N@OINNJKEM@ANGEL_SUMMON@			; `string'
PUBLIC	??_C@_04PNFMAOFG@?$CC?$CFd?$CC@			; `string'
PUBLIC	??_C@_01HIHLOKLC@1@				; `string'
PUBLIC	??_C@_0BE@COEAJDGE@USE_RECCURENCE_ITEM@		; `string'
PUBLIC	??_C@_01NOFIACDB@w@				; `string'
PUBLIC	??_C@_0BB@KAAKNBKL@USE_RESTATE_ITEM@		; `string'
PUBLIC	??_C@_07PFGKEPEH@?$CFd?5?9?5?$CFd@		; `string'
PUBLIC	??_C@_09DPACILDJ@?$CC?$CFs?$CC?5?$CC?$CFs?$CC@	; `string'
PUBLIC	??_C@_0L@PGLFOAIL@?$CFs?5?$CFd?$CF?$CF?5?$CFs@	; `string'
PUBLIC	??_C@_01KMDKNFGN@?1@				; `string'
PUBLIC	??_C@_0DD@FCPHEJAC@DoUseItem?0?5IK2_SKILL?0?5item?5?$CFs?5?9@ ; `string'
PUBLIC	??_C@_0DA@GIPACFEO@II_SYS_SYS_SCR_RETURN?5selected?5@ ; `string'
PUBLIC	??_C@_0BB@KDNJAMCD@MaFl_InstantBank@		; `string'
PUBLIC	??_C@_01GFHCPBMG@C@				; `string'
PUBLIC	??_C@_09FAFPDOMC@USE_PERIN@			; `string'
PUBLIC	??_C@_0CN@DCNDELEC@DoAttackRange?5?3?5?$CFs?5ActiveHandIt@ ; `string'
PUBLIC	??_C@_0DA@HDIEHEPJ@DoAttackRange?5?3?5?$CFs?5?$FL?$CFd?$FN?8s?5dwUse@ ; `string'
PUBLIC	??_C@_0CG@EOHFKLIK@DoAttackSP?5?3?5?$CFs?5?$MA?G?5ItemProp?$MA?L?5N@ ; `string'
PUBLIC	??_C@_0DJ@FIKMOPND@DoAttackSP?5?3?5?$CFs?$MA?G?5?$LA?x?$LA?$NN?$CFd?$MA?G?5dwUs@ ; `string'
PUBLIC	??_C@_0CJ@BKJEKCBD@DoAttackMelee?5?3?5?$CFs?5?$MA?G?5ItemProp?$MA@ ; `string'
PUBLIC	??_C@_0CL@JELFJLED@CMover?3?3SendDamageAround?5?3?5D?3?$CFs@ ; `string'
PUBLIC	??_C@_0DL@FEJEHPAL@CMover?3?3SendDamageAround?5?3?5?$CFs?4?5@ ; `string'
PUBLIC	??_C@_0DN@BLLPBDJB@CMover?3?3SendDamageAround?5?3?5?$CFs?4?5@ ; `string'
PUBLIC	??_C@_0CJ@BEJKIDOG@CMover?3?3SendDamageLine?5?3?5D?3?$CFs?5A@ ; `string'
PUBLIC	??_C@_0DL@KEBMKGCP@CMover?3?3SendDamageLine?5?3?5?$CFs?4?5?$LN?$LK@ ; `string'
PUBLIC	??_C@_0DN@LKDJCKJ@CMover?3?3SendDamageLine?5?3?5?$CFs?4?5?$LO?F@ ; `string'
PUBLIC	??_C@_02DKCKIIND@?$CFs@				; `string'
PUBLIC	??_C@_0N@EGNMKPHL@Pet_Seltpiyo@			; `string'
PUBLIC	??_C@_0N@BOLHNAPJ@Pet_Seltpudi@			; `string'
PUBLIC	??_C@_0N@CNOPGOC@Pet_Seltcobi@			; `string'
PUBLIC	??_C@_0P@NPNKEHMC@Pet_Seltpierce@		; `string'
PUBLIC	??_C@_0BF@OJMCJNHH@GETEQUIP?1?1?$CFd?0?5?$CFd?0?5?$CFd@ ; `string'
PUBLIC	__real@00000000
PUBLIC	__real@3c8efa35
PUBLIC	__real@3e99999a
PUBLIC	__real@3f000000
PUBLIC	__real@3f333333
PUBLIC	__real@3f4ccccd
PUBLIC	__real@3f800000
PUBLIC	__real@3fc00000
PUBLIC	__real@40400000
PUBLIC	__real@40800000
PUBLIC	__real@41000000
PUBLIC	__real@41700000
PUBLIC	__real@41800000
PUBLIC	__real@42652ee0
PUBLIC	__real@43b40000
PUBLIC	__real@447a0000
PUBLIC	__real@4eee6b28
PUBLIC	__xmm@41f00000000000000000000000000000
PUBLIC	__xmm@80000000800000008000000080000000
EXTRN	??2@YAPAXI@Z:PROC				; operator new
EXTRN	??3@YAXPAXI@Z:PROC				; operator delete
EXTRN	__invalid_parameter_noinfo:PROC
EXTRN	__invoke_watson:PROC
EXTRN	__errno:PROC
EXTRN	_strncpy:PROC
EXTRN	__imp__GetTickCount@0:PROC
EXTRN	__imp__LoadResource@8:PROC
EXTRN	__imp__LockResource@4:PROC
EXTRN	__imp__SizeofResource@8:PROC
EXTRN	__imp__FindResourceW@12:PROC
EXTRN	__imp__lstrcpyA@8:PROC
EXTRN	__imp__WideCharToMultiByte@32:PROC
EXTRN	__mbsinc:PROC
EXTRN	__mbsstr:PROC
EXTRN	___stdio_common_vsprintf:PROC
EXTRN	___stdio_common_vsprintf_s:PROC
EXTRN	__time64:PROC
EXTRN	?AfxThrowMemoryException@@YGXXZ:PROC		; AfxThrowMemoryException
EXTRN	?AfxThrowOleException@@YGXJ@Z:PROC		; AfxThrowOleException
EXTRN	?AfxFindStringResourceHandle@@YGPAUHINSTANCE__@@I@Z:PROC ; AfxFindStringResourceHandle
EXTRN	?AfxGetStringManager@@YGPAUIAtlStringMgr@ATL@@XZ:PROC ; AfxGetStringManager
EXTRN	__isnan:PROC
EXTRN	___std_exception_copy:PROC
EXTRN	___std_exception_destroy:PROC
EXTRN	??_Eexception@std@@UAEPAXI@Z:PROC		; std::exception::`vector deleting destructor'
EXTRN	??_Ebad_alloc@std@@UAEPAXI@Z:PROC		; std::bad_alloc::`vector deleting destructor'
EXTRN	??_Ebad_array_new_length@std@@UAEPAXI@Z:PROC	; std::bad_array_new_length::`vector deleting destructor'
EXTRN	?_Xlength_error@std@@YAXPBD@Z:PROC		; std::_Xlength_error
EXTRN	__imp__timeGetTime@0:PROC
EXTRN	_D3DXVec3Normalize@8:PROC
EXTRN	_D3DXVec3TransformCoord@12:PROC
EXTRN	_D3DXMatrixMultiply@12:PROC
EXTRN	_D3DXMatrixInverse@12:PROC
EXTRN	_D3DXMatrixTranslation@16:PROC
EXTRN	_D3DXMatrixRotationY@8:PROC
EXTRN	?ParsingCommand@@YAHPBDPAVCMover@@H@Z:PROC	; ParsingCommand
EXTRN	?WriteError@@YAXPBDZZ:PROC			; WriteError
EXTRN	?Error@@YAPBDPBDZZ:PROC				; Error
EXTRN	?IsTouchAABB@@YAHABUD3DXVECTOR3@@000@Z:PROC	; IsTouchAABB
EXTRN	?UpdateLocalMatrix@CObj@@QAEXXZ:PROC		; CObj::UpdateLocalMatrix
EXTRN	?ResetScale@CObj@@QAEXXZ:PROC			; CObj::ResetScale
EXTRN	?SetTypeIndex@CObj@@QAEHPAUIDirect3DDevice9@@KKH@Z:PROC ; CObj::SetTypeIndex
EXTRN	?Delete@CObj@@QAEXXZ:PROC			; CObj::Delete
EXTRN	?SetPos@CObj@@QAEXABUD3DXVECTOR3@@@Z:PROC	; CObj::SetPos
EXTRN	?SetAngle@CObj@@QAEXM@Z:PROC			; CObj::SetAngle
EXTRN	?DoApplySkill@CCtrl@@QAEHPAV1@PAUItemProp@@PAUAddSkillProp@@_NHHH@Z:PROC ; CCtrl::DoApplySkill
EXTRN	?DoActiveSkill@CCtrl@@QAEXKHPAV1@_NH@Z:PROC	; CCtrl::DoActiveSkill
EXTRN	?IsGuildQuestRegion@CProject@@QAEHABUD3DXVECTOR3@@@Z:PROC ; CProject::IsGuildQuestRegion
EXTRN	?GetAddSkillProp@CProject@@QAEPAUAddSkillProp@@KK@Z:PROC ; CProject::GetAddSkillProp
EXTRN	?GetMover@CProject@@QAEPAVCMover@@K@Z:PROC	; CProject::GetMover
EXTRN	?GetAddLife@CPetProperty@@QAEGXZ:PROC		; CPetProperty::GetAddLife
EXTRN	?GetInstance@CPetProperty@@SAPAV1@XZ:PROC	; CPetProperty::GetInstance
EXTRN	??0CPet@@QAE@XZ:PROC				; CPet::CPet
EXTRN	?GetIndex@CPet@@QAEKXZ:PROC			; CPet::GetIndex
EXTRN	?GetLife@CPet@@QAEGXZ:PROC			; CPet::GetLife
EXTRN	?InitEgg@CPet@@QAEXXZ:PROC			; CPet::InitEgg
EXTRN	?GetPiercingSize@CPiercing@@QAEHXZ:PROC		; CPiercing::GetPiercingSize
EXTRN	?GetPiercingItem@CPiercing@@QAEKH@Z:PROC	; CPiercing::GetPiercingItem
EXTRN	?GetVisKeepTime@CPiercing@@QAEJH@Z:PROC		; CPiercing::GetVisKeepTime
EXTRN	?GetPropA@CItemBase@@QAEPAUItemProp@@XZ:PROC	; CItemBase::GetPropA
EXTRN	?UseItem@CItemElem@@QAEXXZ:PROC			; CItemElem::UseItem
EXTRN	?GetVisPetSfxId@CItemElem@@QAEKXZ:PROC		; CItemElem::GetVisPetSfxId
EXTRN	?IsUsableItem@@YAHPAVCItemBase@@@Z:PROC		; IsUsableItem
EXTRN	?RemoveBuff@CBuffMgr@@QAEXGGH@Z:PROC		; CBuffMgr::RemoveBuff
EXTRN	?GetBuff@CBuffMgr@@QAEPAVIBuff@@GG@Z:PROC	; CBuffMgr::GetBuff
EXTRN	?ResetState@CAction@@QAEXK@Z:PROC		; CAction::ResetState
EXTRN	?SendDamageForce@CActionMover@@QAEHKKHH@Z:PROC	; CActionMover::SendDamageForce
EXTRN	?GetGroup@CCooltimeMgr@@SAKPAUItemProp@@@Z:PROC	; CCooltimeMgr::GetGroup
EXTRN	?CanUse@CCooltimeMgr@@QAEHK@Z:PROC		; CCooltimeMgr::CanUse
EXTRN	?SetTime@CCooltimeMgr@@QAEXKK@Z:PROC		; CCooltimeMgr::SetTime
EXTRN	?HasBuff@CMover@@QAEHGG@Z:PROC			; CMover::HasBuff
EXTRN	?RemoveBuff@CMover@@QAEXGG@Z:PROC		; CMover::RemoveBuff
EXTRN	?HasBuffByIk3@CMover@@QAEHK@Z:PROC		; CMover::HasBuffByIk3
EXTRN	?AddBuff@CMover@@QAEHGGKKK@Z:PROC		; CMover::AddBuff
EXTRN	?RemoveIk3Buffs@CMover@@QAEXK@Z:PROC		; CMover::RemoveIk3Buffs
EXTRN	?RemoveDebufBuffs@CMover@@QAEXXZ:PROC		; CMover::RemoveDebufBuffs
EXTRN	?SetHonorAdd@CMover@@QAEXHHH@Z:PROC		; CMover::SetHonorAdd
EXTRN	?GetPet@CMover@@QAEPAVCPet@@XZ:PROC		; CMover::GetPet
EXTRN	?GetPetItem@CMover@@QAEPAVCItemElem@@XZ:PROC	; CMover::GetPetItem
EXTRN	?PetLevelup@CMover@@QAEXXZ:PROC			; CMover::PetLevelup
EXTRN	?PetRelease@CMover@@QAEXXZ:PROC			; CMover::PetRelease
EXTRN	?GetMaxPoint@CMover@@QAEHH@Z:PROC		; CMover::GetMaxPoint
EXTRN	?InitSkillExp@CMover@@QAEHXZ:PROC		; CMover::InitSkillExp
EXTRN	?InitCharacter@CMover@@QAEXPAUtagCHARACTER@@@Z:PROC ; CMover::InitCharacter
EXTRN	?GetCharacter@CMover@@QAEPAUtagCHARACTER@@XZ:PROC ; CMover::GetCharacter
EXTRN	?InitNPCProperty@CMover@@QAEXXZ:PROC		; CMover::InitNPCProperty
EXTRN	?IsSteal@CMover@@QAEHPAV1@@Z:PROC		; CMover::IsSteal
EXTRN	?GetActiveHandItemProp@CMover@@QAEPAUItemProp@@H@Z:PROC ; CMover::GetActiveHandItemProp
EXTRN	?PostAIMsg@CMover@@QAEXKKKK@Z:PROC		; CMover::PostAIMsg
EXTRN	?GetWeaponItem@CMover@@QAEPAVCItemElem@@H@Z:PROC ; CMover::GetWeaponItem
EXTRN	?GetLWeaponItem@CMover@@QAEPAVCItemElem@@XZ:PROC ; CMover::GetLWeaponItem
EXTRN	?GetEquipItem@CMover@@QAEPAVCItemElem@@H@Z:PROC	; CMover::GetEquipItem
EXTRN	?IsDualWeapon@CMover@@QAEHXZ:PROC		; CMover::IsDualWeapon
EXTRN	?RedoEquip@CMover@@QAEXHH@Z:PROC		; CMover::RedoEquip
EXTRN	?GetQuest@CMover@@QAEPAUtagQuest@@H@Z:PROC	; CMover::GetQuest
EXTRN	?GetParam@CMover@@QAEHHH@Z:PROC			; CMover::GetParam
EXTRN	?SetDestParam@CMover@@QAEXHHHH@Z:PROC		; CMover::SetDestParam
EXTRN	?SetDestParam@CMover@@QAEXHPAUItemProp@@H@Z:PROC ; CMover::SetDestParam
EXTRN	?ResetDestParam@CMover@@QAEXHHH@Z:PROC		; CMover::ResetDestParam
EXTRN	?ResetDestParam@CMover@@QAEXHPAUItemProp@@H@Z:PROC ; CMover::ResetDestParam
EXTRN	?GetAdjParam@CMover@@QAEHH@Z:PROC		; CMover::GetAdjParam
EXTRN	?GetPointParam@CMover@@QAEHH@Z:PROC		; CMover::GetPointParam
EXTRN	?SetPointParam@CMover@@QAEXHHH@Z:PROC		; CMover::SetPointParam
EXTRN	?GetSkill@CMover@@QAEPAUtagSkill@@HH@Z:PROC	; CMover::GetSkill
EXTRN	?GetSkill@CMover@@QAEPAUtagSkill@@K@Z:PROC	; CMover::GetSkill
EXTRN	?GetSkillIdx@CMover@@QAEHK@Z:PROC		; CMover::GetSkillIdx
EXTRN	?GetName@CMover@@QAEPBDH@Z:PROC			; CMover::GetName
EXTRN	?IncManaPoint@CMover@@QAEXH@Z:PROC		; CMover::IncManaPoint
EXTRN	?IncFatiguePoint@CMover@@QAEXH@Z:PROC		; CMover::IncFatiguePoint
EXTRN	?IsPVPTarget@CMover@@QAEHPAV1@@Z:PROC		; CMover::IsPVPTarget
EXTRN	?IsWarTarget@CMover@@QAEHPAV1@@Z:PROC		; CMover::IsWarTarget
EXTRN	?IsArenaTarget@CMover@@QAEHPAV1@@Z:PROC		; CMover::IsArenaTarget
EXTRN	?GetHitType2@CMover@@QAE?AW4HITTYPE@@PAV1@HH@Z:PROC ; CMover::GetHitType2
EXTRN	?AddGold@CMover@@QAEHHH@Z:PROC			; CMover::AddGold
EXTRN	?GetManaPoint@CMover@@QAEHXZ:PROC		; CMover::GetManaPoint
EXTRN	?GetFatiguePoint@CMover@@QAEHXZ:PROC		; CMover::GetFatiguePoint
EXTRN	?GetMaxHitPoint@CMover@@QAEHXZ:PROC		; CMover::GetMaxHitPoint
EXTRN	?GetMaxManaPoint@CMover@@QAEHXZ:PROC		; CMover::GetMaxManaPoint
EXTRN	?GetMaxFatiguePoint@CMover@@QAEHXZ:PROC		; CMover::GetMaxFatiguePoint
EXTRN	?GetMaxOriginHitPoint@CMover@@QAEHH@Z:PROC	; CMover::GetMaxOriginHitPoint
EXTRN	?GetCastingTime@CMover@@QAEHH@Z:PROC		; CMover::GetCastingTime
EXTRN	?GetReqMp@CMover@@QAEHH@Z:PROC			; CMover::GetReqMp
EXTRN	?GetReqFp@CMover@@QAEHH@Z:PROC			; CMover::GetReqFp
EXTRN	?UpdateItem@CMover@@QAEXEDKK@Z:PROC		; CMover::UpdateItem
EXTRN	?UpdateItemEx@CMover@@QAEXED_J@Z:PROC		; CMover::UpdateItemEx
EXTRN	?GetItemId@CMover@@QAEPAVCItemBase@@K@Z:PROC	; CMover::GetItemId
EXTRN	?IsPKPVPInspectionBase@CMover@@QAEHKH@Z:PROC	; CMover::IsPKPVPInspectionBase
EXTRN	?DoUseEquipmentItem@CMover@@QAEHPAVCItemElem@@KH@Z:PROC ; CMover::DoUseEquipmentItem
EXTRN	?SetJJim@CMover@@QAEXPAV1@@Z:PROC		; CMover::SetJJim
EXTRN	?IsBullet@CMover@@QAEHPAUItemProp@@@Z:PROC	; CMover::IsBullet
EXTRN	?ReState@CMover@@QAEXXZ:PROC			; CMover::ReState
EXTRN	?ReStateOne@CMover@@QAEXH@Z:PROC		; CMover::ReStateOne
EXTRN	?ReStateOneLow@CMover@@QAEXH@Z:PROC		; CMover::ReStateOneLow
EXTRN	?GetPKPVPRegionAttr@CMover@@QAEKXZ:PROC		; CMover::GetPKPVPRegionAttr
EXTRN	?IsMaster@CMover@@QAEHXZ:PROC			; CMover::IsMaster
EXTRN	?IsHero@CMover@@QAEHXZ:PROC			; CMover::IsHero
EXTRN	?IsLegendHero@CMover@@QAEHXZ:PROC		; CMover::IsLegendHero
EXTRN	?IsGuildCombatTarget@CMover@@QAEHPAV1@@Z:PROC	; CMover::IsGuildCombatTarget
EXTRN	?ArrowDown@CMover@@QAEXH@Z:PROC			; CMover::ArrowDown
EXTRN	?Replace@CMover@@QAEHKKAAUD3DXVECTOR3@@W4REPLACE_TYPE@@H@Z:PROC ; CMover::Replace
EXTRN	?IsItemRedyTime@CMover@@QAEHPAUItemProp@@KH@Z:PROC ; CMover::IsItemRedyTime
EXTRN	?SetSMMode@CMover@@QAEHHK@Z:PROC		; CMover::SetSMMode
EXTRN	?GetSummonState@CMover@@QAEHXZ:PROC		; CMover::GetSummonState
EXTRN	?IsShoutFull@CMover@@QAEHXZ:PROC		; CMover::IsShoutFull
EXTRN	?IsCommBank@CMover@@QAEHXZ:PROC			; CMover::IsCommBank
EXTRN	?SetActParam@CMover@@AAEXW4OBJACT@@HHH@Z:PROC	; CMover::SetActParam
EXTRN	?GetLinkWidth@CLayeredLinkMap@@QAEHKHH@Z:PROC	; CLayeredLinkMap::GetLinkWidth
EXTRN	?GetObj@CLayeredLinkMap@@QAEPAPAVCObj@@KKH@Z:PROC ; CLayeredLinkMap::GetObj
EXTRN	?GetMaxLinkLevel@CLayeredLinkMap@@QAEHKH@Z:PROC	; CLayeredLinkMap::GetMaxLinkLevel
EXTRN	?AddObj@CWorld@@QAEHPAVCObj@@HH@Z:PROC		; CWorld::AddObj
EXTRN	?GetFullHeight@CWorld@@QAEMABUD3DXVECTOR3@@@Z:PROC ; CWorld::GetFullHeight
EXTRN	?GetUnderHeight@CWorld@@QAEMABUD3DXVECTOR3@@@Z:PROC ; CWorld::GetUnderHeight
EXTRN	?CreateMover@@YAPAVCMover@@PAVCWorld@@KABUD3DXVECTOR3@@H@Z:PROC ; CreateMover
EXTRN	?CreateObj@@YAPAVCObj@@PAUIDirect3DDevice9@@KKH@Z:PROC ; CreateObj
EXTRN	?GetState@CFlyffEvent@@QAEEH@Z:PROC		; CFlyffEvent::GetState
EXTRN	?IsPossibleUser@CGuildCombat1to1Mng@@QAEHPAVCUser@@@Z:PROC ; CGuildCombat1to1Mng::IsPossibleUser
EXTRN	?SetPartyLevel@CParty@@QAEXPAVCUser@@KKK@Z:PROC	; CParty::SetPartyLevel
EXTRN	?GetParty@CPartyMng@@QAEPAVCParty@@K@Z:PROC	; CPartyMng::GetParty
EXTRN	?SetItem@CAIPet@@QAEXPAVCMover@@PAVCItemElem@@@Z:PROC ; CAIPet::SetItem
EXTRN	?ResetItem@CAIPet@@QAEXXZ:PROC			; CAIPet::ResetItem
EXTRN	?GetInstance@CPlayerDataCenter@@SAPAV1@XZ:PROC	; CPlayerDataCenter::GetInstance
EXTRN	?GetPlayerString@CPlayerDataCenter@@QAEPBDK@Z:PROC ; CPlayerDataCenter::GetPlayerString
EXTRN	?GetInstance@CSecretRoomMng@@SAPAV1@XZ:PROC	; CSecretRoomMng::GetInstance
EXTRN	?IsInTheSecretRoom@CSecretRoomMng@@QAEHPAVCMover@@@Z:PROC ; CSecretRoomMng::IsInTheSecretRoom
EXTRN	?GetInstance@CRainbowRaceMng@@SAPAV1@XZ:PROC	; CRainbowRaceMng::GetInstance
EXTRN	?IsEntry@CRainbowRaceMng@@QAEHK@Z:PROC		; CRainbowRaceMng::IsEntry
EXTRN	?GetInstance@CHousingMng@@SAPAV1@XZ:PROC	; CHousingMng::GetInstance
EXTRN	?ReqSetFurnitureList@CHousingMng@@QAEHPAVCUser@@K@Z:PROC ; CHousingMng::ReqSetFurnitureList
EXTRN	??0GuildHouse_Furniture_Info@CGuildHouseBase@@QAE@KHUD3DXVECTOR3@@MJ@Z:PROC ; CGuildHouseBase::GuildHouse_Furniture_Info::GuildHouse_Furniture_Info
EXTRN	?GetInstance@CGuildHouseMng@@SAPAV1@XZ:PROC	; CGuildHouseMng::GetInstance
EXTRN	?EnteranceGuildHouse@CGuildHouseMng@@QAEHPAVCUser@@K@Z:PROC ; CGuildHouseMng::EnteranceGuildHouse
EXTRN	?SendWorldToDatabase@CGuildHouseMng@@QAEHPAVCUser@@HAAUGuildHouse_Furniture_Info@CGuildHouseBase@@H@Z:PROC ; CGuildHouseMng::SendWorldToDatabase
EXTRN	?SetReturnPos@CUser@@QAEXABUD3DXVECTOR3@@@Z:PROC ; CUser::SetReturnPos
EXTRN	?GetReturnPos@CUser@@QAEAAUD3DXVECTOR3@@PAK@Z:PROC ; CUser::GetReturnPos
EXTRN	?Notify@CUser@@QAEHXZ:PROC			; CUser::Notify
EXTRN	?AddDiagText@CUser@@QAEXPBD@Z:PROC		; CUser::AddDiagText
EXTRN	?AddText@CUser@@QAEXPBD@Z:PROC			; CUser::AddText
EXTRN	?AddDefinedText@CUser@@QAAXHPBDZZ:PROC		; CUser::AddDefinedText
EXTRN	?AddDefinedText@CUser@@QAEXH@Z:PROC		; CUser::AddDefinedText
EXTRN	?AddSetFuel@CUser@@QAEXHK@Z:PROC		; CUser::AddSetFuel
EXTRN	?AddInitSkill@CUser@@QAEXXZ:PROC		; CUser::AddInitSkill
EXTRN	?AddSetTarget@CUser@@QAEXK@Z:PROC		; CUser::AddSetTarget
EXTRN	?AddSummonFriendUse@CUser@@QAEXPAVCItemElem@@@Z:PROC ; CUser::AddSummonFriendUse
EXTRN	?AddDoUseSkillPoint@CUser@@QAEXQAUtagSkill@@H@Z:PROC ; CUser::AddDoUseSkillPoint
EXTRN	?AddAngelInfo@CUser@@QAEXH@Z:PROC		; CUser::AddAngelInfo
EXTRN	?AddPet@CUser@@QAEXPAVCPet@@E@Z:PROC		; CUser::AddPet
EXTRN	?AddPetState@CUser@@QAEXKGGK@Z:PROC		; CUser::AddPetState
EXTRN	?DoUseItemBattery@CUser@@QAEHXZ:PROC		; CUser::DoUseItemBattery
EXTRN	?DoUseItemInput@CUser@@QAEHPAUItemProp@@PAVCItemElem@@@Z:PROC ; CUser::DoUseItemInput
EXTRN	?AddActivateVisPet@CUser@@QAEXKK@Z:PROC		; CUser::AddActivateVisPet
EXTRN	?AddActivateBarunaPet@CUser@@QAEXKKH@Z:PROC	; CUser::AddActivateBarunaPet
EXTRN	?AddSetPos@CUserMng@@QAEXPAVCCtrl@@AAUD3DXVECTOR3@@@Z:PROC ; CUserMng::AddSetPos
EXTRN	?AddMeleeAttack@CUserMng@@QAEXPAVCMover@@KKHH@Z:PROC ; CUserMng::AddMeleeAttack
EXTRN	?AddMagicAttack@CUserMng@@QAEXPAVCMover@@KKHHHH@Z:PROC ; CUserMng::AddMagicAttack
EXTRN	?AddRangeAttack@CUserMng@@QAEXPAVCMover@@KKHHH@Z:PROC ; CUserMng::AddRangeAttack
EXTRN	?AddAttackSP@CUserMng@@QAEXPAVCMover@@KKHH@Z:PROC ; CUserMng::AddAttackSP
EXTRN	?AddCreateSfxObj@CUserMng@@QAEXPAVCCtrl@@KMMMH@Z:PROC ; CUserMng::AddCreateSfxObj
EXTRN	?AddUseSkill@CUserMng@@QAEXPAVCMover@@KKKHH@Z:PROC ; CUserMng::AddUseSkill
EXTRN	?AddSexChange@CUserMng@@QAEXPAVCMover@@@Z:PROC	; CUserMng::AddSexChange
EXTRN	?AddChangeFace@CUserMng@@QAEXKK@Z:PROC		; CUserMng::AddChangeFace
EXTRN	?AddPKPink@CUserMng@@QAEXPAVCMover@@E@Z:PROC	; CUserMng::AddPKPink
EXTRN	?AddPetCall@CUserMng@@QAEXPAVCMover@@KKEPBD@Z:PROC ; CUserMng::AddPetCall
EXTRN	?GetWorld@CWorldMng@@QAEPAVCWorld@@K@Z:PROC	; CWorldMng::GetWorld
EXTRN	?GetRevivalPosChao@CWorldMng@@QAEPAUREGIONELEM@@KPBD@Z:PROC ; CWorldMng::GetRevivalPosChao
EXTRN	?GetNearRevivalPosChao@CWorldMng@@QAEPAUREGIONELEM@@KAAUD3DXVECTOR3@@@Z:PROC ; CWorldMng::GetNearRevivalPosChao
EXTRN	?GetRevivalPos@CWorldMng@@QAEPAUREGIONELEM@@KPBD@Z:PROC ; CWorldMng::GetRevivalPos
EXTRN	?GetNearRevivalPos@CWorldMng@@QAEPAUREGIONELEM@@KAAUD3DXVECTOR3@@@Z:PROC ; CWorldMng::GetNearRevivalPos
EXTRN	?OnLogItem@CDPSrvr@@QAEXAAU_LogItemInfo@@PAVCItemElem@@H@Z:PROC ; CDPSrvr::OnLogItem
EXTRN	?PutItemLog@CDPSrvr@@QAEXPAVCUser@@PBD1PAVCItemElem@@H@Z:PROC ; CDPSrvr::PutItemLog
EXTRN	?GetInstance@CInstanceDungeonHelper@@SAPAV1@XZ:PROC ; CInstanceDungeonHelper::GetInstance
EXTRN	?GetType@CInstanceDungeonHelper@@AAEHK@Z:PROC	; CInstanceDungeonHelper::GetType
EXTRN	?SendUserPartySkill@CDPCoreClient@@QAEXKHKHH@Z:PROC ; CDPCoreClient::SendUserPartySkill
EXTRN	?SendTeleportPlayer@CDPCoreClient@@QAEXKK@Z:PROC ; CDPCoreClient::SendTeleportPlayer
EXTRN	?SendLogSkillPoint@CDPDatabaseClient@@QAEXHHPAVCMover@@PAUtagSkill@@@Z:PROC ; CDPDatabaseClient::SendLogSkillPoint
EXTRN	?SendLogSMItemUse@CDPDatabaseClient@@QAEXPBDPAVCUser@@PAVCItemElem@@PAUItemProp@@0@Z:PROC ; CDPDatabaseClient::SendLogSMItemUse
EXTRN	?CalluspPetLog@CDPDatabaseClient@@QAEXKKKHPAVCPet@@@Z:PROC ; CDPDatabaseClient::CalluspPetLog
EXTRN	?SendUpdatePlayerData@CDPDatabaseClient@@QAEXPAVCUser@@@Z:PROC ; CDPDatabaseClient::SendUpdatePlayerData
EXTRN	?GetInstance@CItemUpgrade@@SAPAV1@XZ:PROC	; CItemUpgrade::GetInstance
EXTRN	?RemovePetVisItem@CItemUpgrade@@QAEXPAVCUser@@HH@Z:PROC ; CItemUpgrade::RemovePetVisItem
EXTRN	?GetInstance@CFunnyCoin@@SAPAV1@XZ:PROC		; CFunnyCoin::GetInstance
EXTRN	?DoUseFunnyCoin@CFunnyCoin@@QAEHPAVCUser@@PAVCItemElem@@@Z:PROC ; CFunnyCoin::DoUseFunnyCoin
EXTRN	?__SetQuest@@YAXKH@Z:PROC			; __SetQuest
EXTRN	@__security_check_cookie@4:PROC
EXTRN	__CxxThrowException@8:PROC
EXTRN	___CxxFrameHandler3:PROC
EXTRN	__allmul:PROC
EXTRN	__ftol3:PROC
EXTRN	__libm_sse2_acos_precise:PROC
EXTRN	__libm_sse2_cos_precise:PROC
EXTRN	__libm_sse2_sin_precise:PROC
EXTRN	_memcpy:PROC
EXTRN	_memmove:PROC
EXTRN	_memset:PROC
EXTRN	??_7type_info@@6B@:QWORD			; type_info::`vftable'
EXTRN	?g_tCurrent@@3JA:DWORD				; g_tCurrent
EXTRN	?g_next@@3KA:DWORD				; g_next
EXTRN	?prj@@3VCProject@@A:BYTE			; prj
EXTRN	?g_uIdofMulti@@3KA:DWORD			; g_uIdofMulti
EXTRN	?g_eLocal@@3VCFlyffEvent@@A:BYTE		; g_eLocal
EXTRN	?g_GuildCombat1to1Mng@@3VCGuildCombat1to1Mng@@A:BYTE ; g_GuildCombat1to1Mng
EXTRN	?g_UserMng@@3VCUserMng@@A:BYTE			; g_UserMng
EXTRN	?g_WorldMng@@3VCWorldMng@@A:BYTE		; g_WorldMng
EXTRN	?g_DPSrvr@@3VCDPSrvr@@A:BYTE			; g_DPSrvr
EXTRN	?g_DPCoreClient@@3VCDPCoreClient@@A:BYTE	; g_DPCoreClient
EXTRN	?g_dpDBClient@@3VCDPDatabaseClient@@A:BYTE	; g_dpDBClient
EXTRN	?g_PartyMng@@3VCPartyMng@@A:BYTE		; g_PartyMng
EXTRN	?g_GuildCombatMng@@3VCGuildCombat@@A:BYTE	; g_GuildCombatMng
EXTRN	___security_cookie:DWORD
EXTRN	__fltused:DWORD
;	COMDAT ?_OptionsStorage@?1??__local_stdio_printf_options@@9@4_KA
_BSS	SEGMENT
?_OptionsStorage@?1??__local_stdio_printf_options@@9@4_KA DQ 01H DUP (?) ; `__local_stdio_printf_options'::`2'::_OptionsStorage
_BSS	ENDS
;	COMDAT __xmm@80000000800000008000000080000000
CONST	SEGMENT
__xmm@80000000800000008000000080000000 DB 00H, 00H, 00H, 080H, 00H, 00H, 00H
	DB	080H, 00H, 00H, 00H, 080H, 00H, 00H, 00H, 080H
CONST	ENDS
;	COMDAT __xmm@41f00000000000000000000000000000
CONST	SEGMENT
__xmm@41f00000000000000000000000000000 DB 00H, 00H, 00H, 00H, 00H, 00H, 00H
	DB	00H, 00H, 00H, 00H, 00H, 00H, 00H, 0f0H, 'A'
CONST	ENDS
;	COMDAT __real@4eee6b28
CONST	SEGMENT
__real@4eee6b28 DD 04eee6b28r			; 2e+09
CONST	ENDS
;	COMDAT __real@447a0000
CONST	SEGMENT
__real@447a0000 DD 0447a0000r			; 1000
CONST	ENDS
;	COMDAT __real@43b40000
CONST	SEGMENT
__real@43b40000 DD 043b40000r			; 360
CONST	ENDS
;	COMDAT __real@42652ee0
CONST	SEGMENT
__real@42652ee0 DD 042652ee0r			; 57.2958
CONST	ENDS
;	COMDAT __real@41800000
CONST	SEGMENT
__real@41800000 DD 041800000r			; 16
CONST	ENDS
;	COMDAT __real@41700000
CONST	SEGMENT
__real@41700000 DD 041700000r			; 15
CONST	ENDS
;	COMDAT __real@41000000
CONST	SEGMENT
__real@41000000 DD 041000000r			; 8
CONST	ENDS
;	COMDAT __real@40800000
CONST	SEGMENT
__real@40800000 DD 040800000r			; 4
CONST	ENDS
;	COMDAT __real@40400000
CONST	SEGMENT
__real@40400000 DD 040400000r			; 3
CONST	ENDS
;	COMDAT __real@3fc00000
CONST	SEGMENT
__real@3fc00000 DD 03fc00000r			; 1.5
CONST	ENDS
;	COMDAT __real@3f800000
CONST	SEGMENT
__real@3f800000 DD 03f800000r			; 1
CONST	ENDS
;	COMDAT __real@3f4ccccd
CONST	SEGMENT
__real@3f4ccccd DD 03f4ccccdr			; 0.8
CONST	ENDS
;	COMDAT __real@3f333333
CONST	SEGMENT
__real@3f333333 DD 03f333333r			; 0.7
CONST	ENDS
;	COMDAT __real@3f000000
CONST	SEGMENT
__real@3f000000 DD 03f000000r			; 0.5
CONST	ENDS
;	COMDAT __real@3e99999a
CONST	SEGMENT
__real@3e99999a DD 03e99999ar			; 0.3
CONST	ENDS
;	COMDAT __real@3c8efa35
CONST	SEGMENT
__real@3c8efa35 DD 03c8efa35r			; 0.0174533
CONST	ENDS
;	COMDAT __real@00000000
CONST	SEGMENT
__real@00000000 DD 000000000r			; 0
CONST	ENDS
;	COMDAT ??_C@_0BF@OJMCJNHH@GETEQUIP?1?1?$CFd?0?5?$CFd?0?5?$CFd@
CONST	SEGMENT
??_C@_0BF@OJMCJNHH@GETEQUIP?1?1?$CFd?0?5?$CFd?0?5?$CFd@ DB 'GETEQUIP//%d,'
	DB	' %d, %d', 00H				; `string'
CONST	ENDS
;	COMDAT ??_C@_0P@NPNKEHMC@Pet_Seltpierce@
CONST	SEGMENT
??_C@_0P@NPNKEHMC@Pet_Seltpierce@ DB 'Pet_Seltpierce', 00H ; `string'
CONST	ENDS
;	COMDAT ??_C@_0N@CNOPGOC@Pet_Seltcobi@
CONST	SEGMENT
??_C@_0N@CNOPGOC@Pet_Seltcobi@ DB 'Pet_Seltcobi', 00H	; `string'
CONST	ENDS
;	COMDAT ??_C@_0N@BOLHNAPJ@Pet_Seltpudi@
CONST	SEGMENT
??_C@_0N@BOLHNAPJ@Pet_Seltpudi@ DB 'Pet_Seltpudi', 00H	; `string'
CONST	ENDS
;	COMDAT ??_C@_0N@EGNMKPHL@Pet_Seltpiyo@
CONST	SEGMENT
??_C@_0N@EGNMKPHL@Pet_Seltpiyo@ DB 'Pet_Seltpiyo', 00H	; `string'
CONST	ENDS
;	COMDAT ??_C@_02DKCKIIND@?$CFs@
CONST	SEGMENT
??_C@_02DKCKIIND@?$CFs@ DB '%s', 00H			; `string'
CONST	ENDS
;	COMDAT ??_C@_0DN@LKDJCKJ@CMover?3?3SendDamageLine?5?3?5?$CFs?4?5?$LO?F@
CONST	SEGMENT
??_C@_0DN@LKDJCKJ@CMover?3?3SendDamageLine?5?3?5?$CFs?4?5?$LO?F@ DB 'CMov'
	DB	'er::SendDamageLine : %s. ', 0beH, 0c6H, 0c0H, 0ccH, 0c5H, 0dbH
	DB	'(%d)', 0c0H, 0c7H, ' ', 0c7H, 0c1H, 0b7H, 0ceH, 0c6H, 0dbH, 0c6H
	DB	0bcH, 0b0H, 0a1H, ' ', 0beH, 0f7H, 0a4H, 0b2H, 0b4H, 0d9H, '.', 00H ; `string'
CONST	ENDS
;	COMDAT ??_C@_0DL@KEBMKGCP@CMover?3?3SendDamageLine?5?3?5?$CFs?4?5?$LN?$LK@
CONST	SEGMENT
??_C@_0DL@KEBMKGCP@CMover?3?3SendDamageLine?5?3?5?$CFs?4?5?$LN?$LK@ DB 'C'
	DB	'Mover::SendDamageLine : %s. ', 0bdH, 0baH, 0c5H, 0b3H, '(%d)', 0c0H
	DB	0c7H, ' ', 0c7H, 0c1H, 0b7H, 0ceH, 0c6H, 0dbH, 0c6H, 0bcH, 0b0H
	DB	0a1H, ' ', 0beH, 0f7H, 0a4H, 0b2H, 0b4H, 0d9H, '.', 00H ; `string'
CONST	ENDS
;	COMDAT ??_C@_0CJ@BEJKIDOG@CMover?3?3SendDamageLine?5?3?5D?3?$CFs?5A@
CONST	SEGMENT
??_C@_0CJ@BEJKIDOG@CMover?3?3SendDamageLine?5?3?5D?3?$CFs?5A@ DB 'CMover:'
	DB	':SendDamageLine : D:%s A:%s %d %f', 00H	; `string'
CONST	ENDS
;	COMDAT ??_C@_0DN@BLLPBDJB@CMover?3?3SendDamageAround?5?3?5?$CFs?4?5@
CONST	SEGMENT
??_C@_0DN@BLLPBDJB@CMover?3?3SendDamageAround?5?3?5?$CFs?4?5@ DB 'CMover:'
	DB	':SendDamageAround : %s. ', 0beH, 0c6H, 0c0H, 0ccH, 0c5H, 0dbH
	DB	'(%d)', 0c0H, 0c7H, ' ', 0c7H, 0c1H, 0b7H, 0ceH, 0c6H, 0dbH, 0c6H
	DB	0bcH, 0b0H, 0a1H, ' ', 0beH, 0f7H, 0b4H, 0d9H, '.', 00H ; `string'
CONST	ENDS
;	COMDAT ??_C@_0DL@FEJEHPAL@CMover?3?3SendDamageAround?5?3?5?$CFs?4?5@
CONST	SEGMENT
??_C@_0DL@FEJEHPAL@CMover?3?3SendDamageAround?5?3?5?$CFs?4?5@ DB 'CMover:'
	DB	':SendDamageAround : %s. ', 0bdH, 0baH, 0c5H, 0b3H, '(%d)', 0c0H
	DB	0c7H, ' ', 0c7H, 0c1H, 0b7H, 0ceH, 0c6H, 0dbH, 0c6H, 0bcH, 0b0H
	DB	0a1H, ' ', 0beH, 0f7H, 0b4H, 0d9H, '.', 00H	; `string'
CONST	ENDS
;	COMDAT ??_C@_0CL@JELFJLED@CMover?3?3SendDamageAround?5?3?5D?3?$CFs@
CONST	SEGMENT
??_C@_0CL@JELFJLED@CMover?3?3SendDamageAround?5?3?5D?3?$CFs@ DB 'CMover::'
	DB	'SendDamageAround : D:%s A:%s %d %f', 00H	; `string'
CONST	ENDS
;	COMDAT ??_C@_0CJ@BKJEKCBD@DoAttackMelee?5?3?5?$CFs?5?$MA?G?5ItemProp?$MA@
CONST	SEGMENT
??_C@_0CJ@BKJEKCBD@DoAttackMelee?5?3?5?$CFs?5?$MA?G?5ItemProp?$MA@ DB 'Do'
	DB	'AttackMelee : %s ', 0c0H, 0c7H, ' ItemProp', 0c0H, 0ccH, ' NU'
	DB	'LL %d', 00H					; `string'
CONST	ENDS
;	COMDAT ??_C@_0DJ@FIKMOPND@DoAttackSP?5?3?5?$CFs?$MA?G?5?$LA?x?$LA?$NN?$CFd?$MA?G?5dwUs@
CONST	SEGMENT
??_C@_0DJ@FIKMOPND@DoAttackSP?5?3?5?$CFs?$MA?G?5?$LA?x?$LA?$NN?$CFd?$MA?G?5dwUs@ DB 'D'
	DB	'oAttackSP : %s', 0c0H, 0c7H, ' ', 0b0H, 0f8H, 0b0H, 0ddH, '%d'
	DB	0c0H, 0c7H, ' dwUseMotion', 0c0H, 0ccH, ' ', 0c1H, 0f6H, 0c1H, 0a4H
	DB	0b5H, 0c7H, 0c1H, 0f6H, ' ', 0beH, 0caH, 0beH, 0d2H, 0b4H, 0d9H
	DB	00H						; `string'
CONST	ENDS
;	COMDAT ??_C@_0CG@EOHFKLIK@DoAttackSP?5?3?5?$CFs?5?$MA?G?5ItemProp?$MA?L?5N@
CONST	SEGMENT
??_C@_0CG@EOHFKLIK@DoAttackSP?5?3?5?$CFs?5?$MA?G?5ItemProp?$MA?L?5N@ DB 'D'
	DB	'oAttackSP : %s ', 0c0H, 0c7H, ' ItemProp', 0c0H, 0ccH, ' NULL'
	DB	' %d', 00H					; `string'
CONST	ENDS
;	COMDAT ??_C@_0DA@HDIEHEPJ@DoAttackRange?5?3?5?$CFs?5?$FL?$CFd?$FN?8s?5dwUse@
CONST	SEGMENT
??_C@_0DA@HDIEHEPJ@DoAttackRange?5?3?5?$CFs?5?$FL?$CFd?$FN?8s?5dwUse@ DB 'D'
	DB	'oAttackRange : %s [%d]''s dwUseMotion = NULL_ID', 00H ; `string'
CONST	ENDS
;	COMDAT ??_C@_0CN@DCNDELEC@DoAttackRange?5?3?5?$CFs?5ActiveHandIt@
CONST	SEGMENT
??_C@_0CN@DCNDELEC@DoAttackRange?5?3?5?$CFs?5ActiveHandIt@ DB 'DoAttackRa'
	DB	'nge : %s ActiveHandItemProp = NULL', 00H	; `string'
CONST	ENDS
;	COMDAT ??_C@_09FAFPDOMC@USE_PERIN@
CONST	SEGMENT
??_C@_09FAFPDOMC@USE_PERIN@ DB 'USE_PERIN', 00H		; `string'
CONST	ENDS
;	COMDAT ??_C@_01GFHCPBMG@C@
CONST	SEGMENT
??_C@_01GFHCPBMG@C@ DB 'C', 00H				; `string'
CONST	ENDS
;	COMDAT ??_C@_0BB@KDNJAMCD@MaFl_InstantBank@
CONST	SEGMENT
??_C@_0BB@KDNJAMCD@MaFl_InstantBank@ DB 'MaFl_InstantBank', 00H ; `string'
CONST	ENDS
;	COMDAT ??_C@_0DA@GIPACFEO@II_SYS_SYS_SCR_RETURN?5selected?5@
CONST	SEGMENT
??_C@_0DA@GIPACFEO@II_SYS_SYS_SCR_RETURN?5selected?5@ DB 'II_SYS_SYS_SCR_'
	DB	'RETURN selected village is NULL', 0aH, 00H	; `string'
CONST	ENDS
;	COMDAT ??_C@_0DD@FCPHEJAC@DoUseItem?0?5IK2_SKILL?0?5item?5?$CFs?5?9@
CONST	SEGMENT
??_C@_0DD@FCPHEJAC@DoUseItem?0?5IK2_SKILL?0?5item?5?$CFs?5?9@ DB 'DoUseIt'
	DB	'em, IK2_SKILL, item %s -> %d skill not prop', 00H ; `string'
CONST	ENDS
;	COMDAT ??_C@_01KMDKNFGN@?1@
CONST	SEGMENT
??_C@_01KMDKNFGN@?1@ DB '/', 00H			; `string'
CONST	ENDS
;	COMDAT ??_C@_0L@PGLFOAIL@?$CFs?5?$CFd?$CF?$CF?5?$CFs@
CONST	SEGMENT
??_C@_0L@PGLFOAIL@?$CFs?5?$CFd?$CF?$CF?5?$CFs@ DB '%s %d%% %s', 00H ; `string'
CONST	ENDS
;	COMDAT ??_C@_09DPACILDJ@?$CC?$CFs?$CC?5?$CC?$CFs?$CC@
CONST	SEGMENT
??_C@_09DPACILDJ@?$CC?$CFs?$CC?5?$CC?$CFs?$CC@ DB '"%s" "%s"', 00H ; `string'
CONST	ENDS
;	COMDAT ??_C@_07PFGKEPEH@?$CFd?5?9?5?$CFd@
CONST	SEGMENT
??_C@_07PFGKEPEH@?$CFd?5?9?5?$CFd@ DB '%d - %d', 00H	; `string'
CONST	ENDS
;	COMDAT ??_C@_0BB@KAAKNBKL@USE_RESTATE_ITEM@
CONST	SEGMENT
??_C@_0BB@KAAKNBKL@USE_RESTATE_ITEM@ DB 'USE_RESTATE_ITEM', 00H ; `string'
CONST	ENDS
;	COMDAT ??_C@_01NOFIACDB@w@
CONST	SEGMENT
??_C@_01NOFIACDB@w@ DB 'w', 00H				; `string'
CONST	ENDS
;	COMDAT ??_C@_0BE@COEAJDGE@USE_RECCURENCE_ITEM@
CONST	SEGMENT
??_C@_0BE@COEAJDGE@USE_RECCURENCE_ITEM@ DB 'USE_RECCURENCE_ITEM', 00H ; `string'
CONST	ENDS
;	COMDAT ??_C@_01HIHLOKLC@1@
CONST	SEGMENT
??_C@_01HIHLOKLC@1@ DB '1', 00H				; `string'
CONST	ENDS
;	COMDAT ??_C@_04PNFMAOFG@?$CC?$CFd?$CC@
CONST	SEGMENT
??_C@_04PNFMAOFG@?$CC?$CFd?$CC@ DB '"%d"', 00H		; `string'
CONST	ENDS
;	COMDAT ??_C@_0N@OINNJKEM@ANGEL_SUMMON@
CONST	SEGMENT
??_C@_0N@OINNJKEM@ANGEL_SUMMON@ DB 'ANGEL_SUMMON', 00H	; `string'
CONST	ENDS
;	COMDAT ??_C@_01HNPIGOCE@?$CG@
CONST	SEGMENT
??_C@_01HNPIGOCE@?$CG@ DB '&', 00H			; `string'
CONST	ENDS
;	COMDAT ??_C@_0M@HGMIEEBN@HOUSING_USE@
CONST	SEGMENT
??_C@_0M@HGMIEEBN@HOUSING_USE@ DB 'HOUSING_USE', 00H	; `string'
CONST	ENDS
;	COMDAT ??_C@_01INIBCBCB@f@
CONST	SEGMENT
??_C@_01INIBCBCB@f@ DB 'f', 00H				; `string'
CONST	ENDS
;	COMDAT ??_C@_0BC@PPLMFBOE@GUILDHOUSE_LISTUP@
CONST	SEGMENT
??_C@_0BC@PPLMFBOE@GUILDHOUSE_LISTUP@ DB 'GUILDHOUSE_LISTUP', 00H ; `string'
CONST	ENDS
;	COMDAT ??_C@_0BA@LLKPHDJP@OnEndSkillState@
CONST	SEGMENT
??_C@_0BA@LLKPHDJP@OnEndSkillState@ DB 'OnEndSkillState', 00H ; `string'
CONST	ENDS
;	COMDAT ??_C@_0CL@ILELHNJ@OnEndSkillState?5?3?5?$LN?$LK?E?$LD?$MA?G?5?$LJ?$PM?$MA?$KH?$LI?$KG@
CONST	SEGMENT
??_C@_0CL@ILELHNJ@OnEndSkillState?5?3?5?$LN?$LK?E?$LD?$MA?G?5?$LJ?$PM?$MA?$KH?$LI?$KG@ DB 'O'
	DB	'nEndSkillState : ', 0bdH, 0baH, 0c5H, 0b3H, 0c0H, 0c7H, ' ', 0b9H
	DB	0fcH, 0c0H, 0a7H, 0b8H, 0a6H, ' ', 0b3H, 0d1H, 0beH, 0eeH, 0bcH
	DB	0b6H, '. %d', 00H				; `string'
CONST	ENDS
;	COMDAT ??_C@_0CB@HOKPNGH@DoUseSkill?5?3?5?$CFs?5dwSkillType?5?$DN?5?$CF@
CONST	SEGMENT
??_C@_0CB@HOKPNGH@DoUseSkill?5?3?5?$CFs?5dwSkillType?5?$DN?5?$CF@ DB 'DoU'
	DB	'seSkill : %s dwSkillType = %d', 00H		; `string'
CONST	ENDS
;	COMDAT ??_C@_0N@KPJAOLNB@SkillLevel2?5@
CONST	SEGMENT
??_C@_0N@KPJAOLNB@SkillLevel2?5@ DB 'SkillLevel2 ', 00H	; `string'
CONST	ENDS
;	COMDAT ??_C@_0DF@KIFDAMPH@DoUseSkill?5?3?5?$CFs?5NULL?5GetSkill?5?$CF@
CONST	SEGMENT
??_C@_0DF@KIFDAMPH@DoUseSkill?5?3?5?$CFs?5NULL?5GetSkill?5?$CF@ DB 'DoUse'
	DB	'Skill : %s NULL GetSkill %d = dwReSkill(%d, %d)', 00H ; `string'
CONST	ENDS
;	COMDAT ??_C@_0N@KNNGFFII@SkillLevel1?5@
CONST	SEGMENT
??_C@_0N@KNNGFFII@SkillLevel1?5@ DB 'SkillLevel1 ', 00H	; `string'
CONST	ENDS
;	COMDAT ??_C@_0CN@EEBJCALL@DoUseSkill?5?3?5?$CFs?5?0?5?E?$LI?$LA?Y?5?$CFs?5?$MA?G?5?G?A@
CONST	SEGMENT
??_C@_0CN@EEBJCALL@DoUseSkill?5?3?5?$CFs?5?0?5?E?$LI?$LA?Y?5?$CFs?5?$MA?G?5?G?A@ DB 'D'
	DB	'oUseSkill : %s , ', 0c5H, 0b8H, 0b0H, 0d9H, ' %s ', 0c0H, 0c7H
	DB	' ', 0c7H, 0c1H, 0b7H, 0ceH, 0c6H, 0dbH, 0c6H, 0bcH, 0b0H, 0a1H
	DB	' ', 0beH, 0f8H, 0b4H, 0d9H, 00H		; `string'
CONST	ENDS
;	COMDAT ??_C@_04OEDFLLKD@?$CC?$CFs?$CC@
CONST	SEGMENT
??_C@_04OEDFLLKD@?$CC?$CFs?$CC@ DB '"%s"', 00H		; `string'
CONST	ENDS
;	COMDAT ??_C@_0L@LLMCBIOI@DoUseSkill@
CONST	SEGMENT
??_C@_0L@LLMCBIOI@DoUseSkill@ DB 'DoUseSkill', 00H	; `string'
CONST	ENDS
;	COMDAT ??_C@_0N@FIJAGOKJ@DoUseSkill_P@
CONST	SEGMENT
??_C@_0N@FIJAGOKJ@DoUseSkill_P@ DB 'DoUseSkill_P', 00H	; `string'
CONST	ENDS
;	COMDAT ??_C@_0DN@POBPMOID@CMover?3?3DoUseSkill?5?3?5?$CFs?$LE?B?5nIdx?$LP@
CONST	SEGMENT
??_C@_0DN@POBPMOID@CMover?3?3DoUseSkill?5?3?5?$CFs?$LE?B?5nIdx?$LP@ DB 'C'
	DB	'Mover::DoUseSkill : %s', 0b4H, 0c2H, ' nIdx', 0bfH, 0a1H, ' ', 0bdH
	DB	0baH, 0c5H, 0b3H, 0c0H, 0bbH, ' ', 0b0H, 0a1H, 0c1H, 0f6H, 0b0H
	DB	0edH, ' ', 0c0H, 0d6H, 0c1H, 0f6H, ' ', 0beH, 0caH, 0b4H, 0d9H
	DB	'. %d', 00H					; `string'
CONST	ENDS
;	COMDAT ??_C@_0EC@JPIDGHBC@CMover?3?3GetQueueCastingTime?5?3?5?$CF@
CONST	SEGMENT
??_C@_0EC@JPIDGHBC@CMover?3?3GetQueueCastingTime?5?3?5?$CF@ DB 'CMover::G'
	DB	'etQueueCastingTime : %s. ', 0beH, 0d6H, 0b5H, 0e5H, 0bdH, 0baH
	DB	0c5H, 0b3H, '(%d)', 0c0H, 0c7H, ' ', 0c7H, 0c1H, 0b7H, 0ceH, 0c6H
	DB	0dbH, 0c6H, 0bcH, 0b0H, 0a1H, ' ', 0beH, 0f8H, 0b4H, 0d9H, '.', 00H ; `string'
CONST	ENDS
;	COMDAT ??_C@_0DO@PAGMBNAO@CMover?3?3GetQueueCastingTime?5?3?5?$CF@
CONST	SEGMENT
??_C@_0DO@PAGMBNAO@CMover?3?3GetQueueCastingTime?5?3?5?$CF@ DB 'CMover::G'
	DB	'etQueueCastingTime : %s. ', 0bdH, 0baH, 0c5H, 0b3H, '(%d)', 0c0H
	DB	0c7H, ' ', 0c7H, 0c1H, 0b7H, 0ceH, 0c6H, 0dbH, 0c6H, 0bcH, 0b0H
	DB	0a1H, ' ', 0beH, 0f8H, 0b4H, 0d9H, '.', 00H	; `string'
CONST	ENDS
;	COMDAT ??_R4bad_alloc@std@@6B@
rdata$r	SEGMENT
??_R4bad_alloc@std@@6B@ DD 00H				; std::bad_alloc::`RTTI Complete Object Locator'
	DD	00H
	DD	00H
	DD	FLAT:??_R0?AVbad_alloc@std@@@8
	DD	FLAT:??_R3bad_alloc@std@@8
rdata$r	ENDS
;	COMDAT ??_R2bad_alloc@std@@8
rdata$r	SEGMENT
??_R2bad_alloc@std@@8 DD FLAT:??_R1A@?0A@EA@bad_alloc@std@@8 ; std::bad_alloc::`RTTI Base Class Array'
	DD	FLAT:??_R1A@?0A@EA@exception@std@@8
rdata$r	ENDS
;	COMDAT ??_R3bad_alloc@std@@8
rdata$r	SEGMENT
??_R3bad_alloc@std@@8 DD 00H				; std::bad_alloc::`RTTI Class Hierarchy Descriptor'
	DD	00H
	DD	02H
	DD	FLAT:??_R2bad_alloc@std@@8
rdata$r	ENDS
;	COMDAT ??_R1A@?0A@EA@bad_alloc@std@@8
rdata$r	SEGMENT
??_R1A@?0A@EA@bad_alloc@std@@8 DD FLAT:??_R0?AVbad_alloc@std@@@8 ; std::bad_alloc::`RTTI Base Class Descriptor at (0,-1,0,64)'
	DD	01H
	DD	00H
	DD	0ffffffffH
	DD	00H
	DD	040H
	DD	FLAT:??_R3bad_alloc@std@@8
rdata$r	ENDS
;	COMDAT ??_R1A@?0A@EA@bad_array_new_length@std@@8
rdata$r	SEGMENT
??_R1A@?0A@EA@bad_array_new_length@std@@8 DD FLAT:??_R0?AVbad_array_new_length@std@@@8 ; std::bad_array_new_length::`RTTI Base Class Descriptor at (0,-1,0,64)'
	DD	02H
	DD	00H
	DD	0ffffffffH
	DD	00H
	DD	040H
	DD	FLAT:??_R3bad_array_new_length@std@@8
rdata$r	ENDS
;	COMDAT ??_R2bad_array_new_length@std@@8
rdata$r	SEGMENT
??_R2bad_array_new_length@std@@8 DD FLAT:??_R1A@?0A@EA@bad_array_new_length@std@@8 ; std::bad_array_new_length::`RTTI Base Class Array'
	DD	FLAT:??_R1A@?0A@EA@bad_alloc@std@@8
	DD	FLAT:??_R1A@?0A@EA@exception@std@@8
rdata$r	ENDS
;	COMDAT ??_R3bad_array_new_length@std@@8
rdata$r	SEGMENT
??_R3bad_array_new_length@std@@8 DD 00H			; std::bad_array_new_length::`RTTI Class Hierarchy Descriptor'
	DD	00H
	DD	03H
	DD	FLAT:??_R2bad_array_new_length@std@@8
rdata$r	ENDS
;	COMDAT ??_R4bad_array_new_length@std@@6B@
rdata$r	SEGMENT
??_R4bad_array_new_length@std@@6B@ DD 00H		; std::bad_array_new_length::`RTTI Complete Object Locator'
	DD	00H
	DD	00H
	DD	FLAT:??_R0?AVbad_array_new_length@std@@@8
	DD	FLAT:??_R3bad_array_new_length@std@@8
rdata$r	ENDS
;	COMDAT ??_R1A@?0A@EA@exception@std@@8
rdata$r	SEGMENT
??_R1A@?0A@EA@exception@std@@8 DD FLAT:??_R0?AVexception@std@@@8 ; std::exception::`RTTI Base Class Descriptor at (0,-1,0,64)'
	DD	00H
	DD	00H
	DD	0ffffffffH
	DD	00H
	DD	040H
	DD	FLAT:??_R3exception@std@@8
rdata$r	ENDS
;	COMDAT ??_R2exception@std@@8
rdata$r	SEGMENT
??_R2exception@std@@8 DD FLAT:??_R1A@?0A@EA@exception@std@@8 ; std::exception::`RTTI Base Class Array'
rdata$r	ENDS
;	COMDAT ??_R3exception@std@@8
rdata$r	SEGMENT
??_R3exception@std@@8 DD 00H				; std::exception::`RTTI Class Hierarchy Descriptor'
	DD	00H
	DD	01H
	DD	FLAT:??_R2exception@std@@8
rdata$r	ENDS
;	COMDAT ??_R4exception@std@@6B@
rdata$r	SEGMENT
??_R4exception@std@@6B@ DD 00H				; std::exception::`RTTI Complete Object Locator'
	DD	00H
	DD	00H
	DD	FLAT:??_R0?AVexception@std@@@8
	DD	FLAT:??_R3exception@std@@8
rdata$r	ENDS
;	COMDAT ??_C@_0BA@FOIKENOD@vector?5too?5long@
CONST	SEGMENT
??_C@_0BA@FOIKENOD@vector?5too?5long@ DB 'vector too long', 00H ; `string'
CONST	ENDS
;	COMDAT ??_C@_05KKCIMGE@error@
CONST	SEGMENT
??_C@_05KKCIMGE@error@ DB 'error', 00H			; `string'
CONST	ENDS
;	COMDAT ??_C@_0BE@OHDBLHOM@GetText?5range_error@
CONST	SEGMENT
??_C@_0BE@OHDBLHOM@GetText?5range_error@ DB 'GetText range_error', 00H ; `string'
CONST	ENDS
;	COMDAT ??_C@_0BJ@GKPOBPPI@GetMoverProp?5range_error@
CONST	SEGMENT
??_C@_0BJ@GKPOBPPI@GetMoverProp?5range_error@ DB 'GetMoverProp range_erro'
	DB	'r', 00H					; `string'
CONST	ENDS
;	COMDAT ??_C@_0BJ@GPNGCFMK@GetSkillProp?5range_error@
CONST	SEGMENT
??_C@_0BJ@GPNGCFMK@GetSkillProp?5range_error@ DB 'GetSkillProp range_erro'
	DB	'r', 00H					; `string'
CONST	ENDS
;	COMDAT ??_C@_0BI@BEIFNGEL@GetItemProp?5range_error@
CONST	SEGMENT
??_C@_0BI@BEIFNGEL@GetItemProp?5range_error@ DB 'GetItemProp range_error', 00H ; `string'
CONST	ENDS
;	COMDAT ??_C@_0BM@HMFGHCP@?$CFs?5min?3?$CFd?0?5max?3?$CFd?0?5index?3?$CFd@
CONST	SEGMENT
??_C@_0BM@HMFGHCP@?$CFs?5min?3?$CFd?0?5max?3?$CFd?0?5index?3?$CFd@ DB '%s'
	DB	' min:%d, max:%d, index:%d', 00H		; `string'
CONST	ENDS
;	COMDAT __CT??_R0?AVbad_alloc@std@@@8??0bad_alloc@std@@QAE@ABV01@@Z12
xdata$x	SEGMENT
__CT??_R0?AVbad_alloc@std@@@8??0bad_alloc@std@@QAE@ABV01@@Z12 DD 010H
	DD	FLAT:??_R0?AVbad_alloc@std@@@8
	DD	00H
	DD	0ffffffffH
	ORG $+4
	DD	0cH
	DD	FLAT:??0bad_alloc@std@@QAE@ABV01@@Z
xdata$x	ENDS
;	COMDAT ??_R0?AVbad_alloc@std@@@8
data$r	SEGMENT
??_R0?AVbad_alloc@std@@@8 DD FLAT:??_7type_info@@6B@	; std::bad_alloc `RTTI Type Descriptor'
	DD	00H
	DB	'.?AVbad_alloc@std@@', 00H
data$r	ENDS
;	COMDAT __CT??_R0?AVbad_array_new_length@std@@@8??0bad_array_new_length@std@@QAE@ABV01@@Z12
xdata$x	SEGMENT
__CT??_R0?AVbad_array_new_length@std@@@8??0bad_array_new_length@std@@QAE@ABV01@@Z12 DD 00H
	DD	FLAT:??_R0?AVbad_array_new_length@std@@@8
	DD	00H
	DD	0ffffffffH
	ORG $+4
	DD	0cH
	DD	FLAT:??0bad_array_new_length@std@@QAE@ABV01@@Z
xdata$x	ENDS
;	COMDAT ??_R0?AVbad_array_new_length@std@@@8
data$r	SEGMENT
??_R0?AVbad_array_new_length@std@@@8 DD FLAT:??_7type_info@@6B@ ; std::bad_array_new_length `RTTI Type Descriptor'
	DD	00H
	DB	'.?AVbad_array_new_length@std@@', 00H
data$r	ENDS
;	COMDAT __CTA3?AVbad_array_new_length@std@@
xdata$x	SEGMENT
__CTA3?AVbad_array_new_length@std@@ DD 03H
	DD	FLAT:__CT??_R0?AVbad_array_new_length@std@@@8??0bad_array_new_length@std@@QAE@ABV01@@Z12
	DD	FLAT:__CT??_R0?AVbad_alloc@std@@@8??0bad_alloc@std@@QAE@ABV01@@Z12
	DD	FLAT:__CT??_R0?AVexception@std@@@8??0exception@std@@QAE@ABV01@@Z12
xdata$x	ENDS
;	COMDAT __TI3?AVbad_array_new_length@std@@
xdata$x	SEGMENT
__TI3?AVbad_array_new_length@std@@ DD 00H
	DD	FLAT:??1bad_array_new_length@std@@UAE@XZ
	DD	00H
	DD	FLAT:__CTA3?AVbad_array_new_length@std@@
xdata$x	ENDS
;	COMDAT __CT??_R0?AVexception@std@@@8??0exception@std@@QAE@ABV01@@Z12
xdata$x	SEGMENT
__CT??_R0?AVexception@std@@@8??0exception@std@@QAE@ABV01@@Z12 DD 00H
	DD	FLAT:??_R0?AVexception@std@@@8
	DD	00H
	DD	0ffffffffH
	ORG $+4
	DD	0cH
	DD	FLAT:??0exception@std@@QAE@ABV01@@Z
xdata$x	ENDS
;	COMDAT ??_R0?AVexception@std@@@8
data$r	SEGMENT
??_R0?AVexception@std@@@8 DD FLAT:??_7type_info@@6B@	; std::exception `RTTI Type Descriptor'
	DD	00H
	DB	'.?AVexception@std@@', 00H
data$r	ENDS
;	COMDAT ??_C@_0BF@KINCDENJ@bad?5array?5new?5length@
CONST	SEGMENT
??_C@_0BF@KINCDENJ@bad?5array?5new?5length@ DB 'bad array new length', 00H ; `string'
CONST	ENDS
;	COMDAT ??_7bad_array_new_length@std@@6B@
CONST	SEGMENT
??_7bad_array_new_length@std@@6B@ DD FLAT:??_R4bad_array_new_length@std@@6B@ ; std::bad_array_new_length::`vftable'
	DD	FLAT:??_Ebad_array_new_length@std@@UAEPAXI@Z
	DD	FLAT:?what@exception@std@@UBEPBDXZ
CONST	ENDS
;	COMDAT ??_7bad_alloc@std@@6B@
CONST	SEGMENT
??_7bad_alloc@std@@6B@ DD FLAT:??_R4bad_alloc@std@@6B@	; std::bad_alloc::`vftable'
	DD	FLAT:??_Ebad_alloc@std@@UAEPAXI@Z
	DD	FLAT:?what@exception@std@@UBEPBDXZ
CONST	ENDS
;	COMDAT ??_C@_0BC@EOODALEL@Unknown?5exception@
CONST	SEGMENT
??_C@_0BC@EOODALEL@Unknown?5exception@ DB 'Unknown exception', 00H ; `string'
CONST	ENDS
;	COMDAT ??_7exception@std@@6B@
CONST	SEGMENT
??_7exception@std@@6B@ DD FLAT:??_R4exception@std@@6B@	; std::exception::`vftable'
	DD	FLAT:??_Eexception@std@@UAEPAXI@Z
	DD	FLAT:?what@exception@std@@UBEPBDXZ
CONST	ENDS
;	COMDAT ??_C@_00CNPNBAHC@@
CONST	SEGMENT
??_C@_00CNPNBAHC@@ DB 00H				; `string'
CONST	ENDS
;	COMDAT ??_C@_02DPKJAMEF@?$CFd@
CONST	SEGMENT
??_C@_02DPKJAMEF@?$CFd@ DB '%d', 00H			; `string'
CONST	ENDS
;	COMDAT xdata$x
xdata$x	SEGMENT
__ehfuncinfo$?DoUseItem@CMover@@QAEHKKH@Z DD 019930522H
	DD	06H
	DD	FLAT:__unwindtable$?DoUseItem@CMover@@QAEHKKH@Z
	DD	2 DUP(00H)
	DD	2 DUP(00H)
	DD	00H
	DD	01H
__unwindtable$?DoUseItem@CMover@@QAEHKKH@Z DD 0ffffffffH
	DD	FLAT:__unwindfunclet$?DoUseItem@CMover@@QAEHKKH@Z$0
	DD	0ffffffffH
	DD	FLAT:__unwindfunclet$?DoUseItem@CMover@@QAEHKKH@Z$1
	DD	01H
	DD	FLAT:__unwindfunclet$?DoUseItem@CMover@@QAEHKKH@Z$2
	DD	0ffffffffH
	DD	FLAT:__unwindfunclet$?DoUseItem@CMover@@QAEHKKH@Z$3
	DD	0ffffffffH
	DD	FLAT:__unwindfunclet$?DoUseItem@CMover@@QAEHKKH@Z$5
	DD	0ffffffffH
	DD	FLAT:__unwindfunclet$?DoUseItem@CMover@@QAEHKKH@Z$4
xdata$x	ENDS
;	COMDAT xdata$x
xdata$x	SEGMENT
__unwindtable$?DoUseBarunaPet@CMover@@QAEXPAVCItemElem@@@Z DD 0ffffffffH
	DD	FLAT:__unwindfunclet$?DoUseBarunaPet@CMover@@QAEXPAVCItemElem@@@Z$0
__ehfuncinfo$?DoUseBarunaPet@CMover@@QAEXPAVCItemElem@@@Z DD 019930522H
	DD	01H
	DD	FLAT:__unwindtable$?DoUseBarunaPet@CMover@@QAEXPAVCItemElem@@@Z
	DD	2 DUP(00H)
	DD	2 DUP(00H)
	DD	00H
	DD	01H
xdata$x	ENDS
;	COMDAT xdata$x
xdata$x	SEGMENT
__unwindtable$?IsSatisfyNeedVis@CMover@@QAEEPAVCItemElem@@PAUItemProp@@@Z DD 0ffffffffH
	DD	FLAT:__unwindfunclet$?IsSatisfyNeedVis@CMover@@QAEEPAVCItemElem@@PAUItemProp@@@Z$0
__ehfuncinfo$?IsSatisfyNeedVis@CMover@@QAEEPAVCItemElem@@PAUItemProp@@@Z DD 019930522H
	DD	01H
	DD	FLAT:__unwindtable$?IsSatisfyNeedVis@CMover@@QAEEPAVCItemElem@@PAUItemProp@@@Z
	DD	2 DUP(00H)
	DD	2 DUP(00H)
	DD	00H
	DD	01H
xdata$x	ENDS
;	COMDAT xdata$x
xdata$x	SEGMENT
__unwindtable$?GetValidVisTable@CMover@@QAE?AV?$vector@EV?$allocator@E@std@@@std@@PAVCItemElem@@@Z DD 0ffffffffH
	DD	FLAT:__unwindfunclet$?GetValidVisTable@CMover@@QAE?AV?$vector@EV?$allocator@E@std@@@std@@PAVCItemElem@@@Z$0
__ehfuncinfo$?GetValidVisTable@CMover@@QAE?AV?$vector@EV?$allocator@E@std@@@std@@PAVCItemElem@@@Z DD 019930522H
	DD	01H
	DD	FLAT:__unwindtable$?GetValidVisTable@CMover@@QAE?AV?$vector@EV?$allocator@E@std@@@std@@PAVCItemElem@@@Z
	DD	2 DUP(00H)
	DD	2 DUP(00H)
	DD	00H
	DD	01H
xdata$x	ENDS
;	COMDAT xdata$x
xdata$x	SEGMENT
__unwindtable$?ResetPetVisDST@CMover@@QAEXPAVCItemElem@@@Z DD 0ffffffffH
	DD	FLAT:__unwindfunclet$?ResetPetVisDST@CMover@@QAEXPAVCItemElem@@@Z$0
__ehfuncinfo$?ResetPetVisDST@CMover@@QAEXPAVCItemElem@@@Z DD 019930522H
	DD	01H
	DD	FLAT:__unwindtable$?ResetPetVisDST@CMover@@QAEXPAVCItemElem@@@Z
	DD	2 DUP(00H)
	DD	2 DUP(00H)
	DD	00H
	DD	01H
xdata$x	ENDS
;	COMDAT xdata$x
xdata$x	SEGMENT
__unwindtable$?SetPetVisDST@CMover@@QAEXPAVCItemElem@@@Z DD 0ffffffffH
	DD	FLAT:__unwindfunclet$?SetPetVisDST@CMover@@QAEXPAVCItemElem@@@Z$0
__ehfuncinfo$?SetPetVisDST@CMover@@QAEXPAVCItemElem@@@Z DD 019930522H
	DD	01H
	DD	FLAT:__unwindtable$?SetPetVisDST@CMover@@QAEXPAVCItemElem@@@Z
	DD	2 DUP(00H)
	DD	2 DUP(00H)
	DD	00H
	DD	01H
xdata$x	ENDS
;	COMDAT xdata$x
xdata$x	SEGMENT
__unwindtable$?ActivateSystemPet@CMover@@QAEXPAVCItemElem@@@Z DD 0ffffffffH
	DD	FLAT:__unwindfunclet$?ActivateSystemPet@CMover@@QAEXPAVCItemElem@@@Z$0
__ehfuncinfo$?ActivateSystemPet@CMover@@QAEXPAVCItemElem@@@Z DD 019930522H
	DD	01H
	DD	FLAT:__unwindtable$?ActivateSystemPet@CMover@@QAEXPAVCItemElem@@@Z
	DD	2 DUP(00H)
	DD	2 DUP(00H)
	DD	00H
	DD	01H
xdata$x	ENDS
;	COMDAT xdata$x
xdata$x	SEGMENT
__unwindtable$?FormatV@?$CStringT@DV?$StrTraitMFC@DV?$ChTraitsCRT@D@ATL@@@@@ATL@@QAEXPBDPAD@Z DD 0ffffffffH
	DD	FLAT:__unwindfunclet$?FormatV@?$CStringT@DV?$StrTraitMFC@DV?$ChTraitsCRT@D@ATL@@@@@ATL@@QAEXPBDPAD@Z$1
	DD	0ffffffffH
	DD	FLAT:__unwindfunclet$?FormatV@?$CStringT@DV?$StrTraitMFC@DV?$ChTraitsCRT@D@ATL@@@@@ATL@@QAEXPBDPAD@Z$0
__ehfuncinfo$?FormatV@?$CStringT@DV?$StrTraitMFC@DV?$ChTraitsCRT@D@ATL@@@@@ATL@@QAEXPBDPAD@Z DD 019930522H
	DD	02H
	DD	FLAT:__unwindtable$?FormatV@?$CStringT@DV?$StrTraitMFC@DV?$ChTraitsCRT@D@ATL@@@@@ATL@@QAEXPBDPAD@Z
	DD	2 DUP(00H)
	DD	2 DUP(00H)
	DD	00H
	DD	01H
xdata$x	ENDS
;	COMDAT xdata$x
xdata$x	SEGMENT
__unwindtable$??0?$CStringT@DV?$StrTraitMFC@DV?$ChTraitsCRT@D@ATL@@@@@ATL@@QAE@PBDPAUIAtlStringMgr@1@@Z DD 0ffffffffH
	DD	FLAT:__unwindfunclet$??0?$CStringT@DV?$StrTraitMFC@DV?$ChTraitsCRT@D@ATL@@@@@ATL@@QAE@PBDPAUIAtlStringMgr@1@@Z$0
__ehfuncinfo$??0?$CStringT@DV?$StrTraitMFC@DV?$ChTraitsCRT@D@ATL@@@@@ATL@@QAE@PBDPAUIAtlStringMgr@1@@Z DD 019930522H
	DD	01H
	DD	FLAT:__unwindtable$??0?$CStringT@DV?$StrTraitMFC@DV?$ChTraitsCRT@D@ATL@@@@@ATL@@QAE@PBDPAUIAtlStringMgr@1@@Z
	DD	2 DUP(00H)
	DD	2 DUP(00H)
	DD	00H
	DD	01H
xdata$x	ENDS
;	COMDAT xdata$x
xdata$x	SEGMENT
__unwindtable$??0?$CStringT@DV?$StrTraitMFC@DV?$ChTraitsCRT@D@ATL@@@@@ATL@@QAE@PBD@Z DD 0ffffffffH
	DD	FLAT:__unwindfunclet$??0?$CStringT@DV?$StrTraitMFC@DV?$ChTraitsCRT@D@ATL@@@@@ATL@@QAE@PBD@Z$0
__ehfuncinfo$??0?$CStringT@DV?$StrTraitMFC@DV?$ChTraitsCRT@D@ATL@@@@@ATL@@QAE@PBD@Z DD 019930522H
	DD	01H
	DD	FLAT:__unwindtable$??0?$CStringT@DV?$StrTraitMFC@DV?$ChTraitsCRT@D@ATL@@@@@ATL@@QAE@PBD@Z
	DD	2 DUP(00H)
	DD	2 DUP(00H)
	DD	00H
	DD	01H
xdata$x	ENDS
; Function compile flags: /Ogtp
; File C:\Program Files\Microsoft Visual Studio\2022\Professional\VC\Tools\MSVC\14.44.35207\include\xutility
;	COMDAT ??$_Fill_memset@PAEE@std@@YAXPAEEI@Z
_TEXT	SEGMENT
__Dest$ = 8						; size = 4
__Val$ = 12						; size = 1
__Count$ = 16						; size = 4
??$_Fill_memset@PAEE@std@@YAXPAEEI@Z PROC		; std::_Fill_memset<unsigned char *,unsigned char>, COMDAT

; 5262 : void _Fill_memset(_CtgIt _Dest, const _Ty _Val, const size_t _Count) {

  00000	55		 push	 ebp
  00001	8b ec		 mov	 ebp, esp

; 5263 :     // implicitly convert (a cast would suppress warnings); also handles _Iter_value_t<_CtgIt> being bool
; 5264 :     _Iter_value_t<_CtgIt> _Dest_val = _Val;
; 5265 :     _CSTD memset(_STD _To_address(_Dest), static_cast<unsigned char>(_Dest_val), _Count);

  00003	0f b6 45 0c	 movzx	 eax, BYTE PTR __Val$[ebp]
  00007	89 45 0c	 mov	 DWORD PTR __Val$[ebp], eax

; 5266 : }

  0000a	5d		 pop	 ebp

; 5263 :     // implicitly convert (a cast would suppress warnings); also handles _Iter_value_t<_CtgIt> being bool
; 5264 :     _Iter_value_t<_CtgIt> _Dest_val = _Val;
; 5265 :     _CSTD memset(_STD _To_address(_Dest), static_cast<unsigned char>(_Dest_val), _Count);

  0000b	e9 00 00 00 00	 jmp	 _memset
??$_Fill_memset@PAEE@std@@YAXPAEEI@Z ENDP		; std::_Fill_memset<unsigned char *,unsigned char>
_TEXT	ENDS
; Function compile flags: /Ogtp
; File C:\Program Files\Microsoft Visual Studio\2022\Professional\VC\Tools\MSVC\14.44.35207\include\vector
; File C:\Program Files\Microsoft Visual Studio\2022\Professional\VC\Tools\MSVC\14.44.35207\include\xmemory
; File C:\Program Files\Microsoft Visual Studio\2022\Professional\VC\Tools\MSVC\14.44.35207\include\vector
; File C:\Program Files\Microsoft Visual Studio\2022\Professional\VC\Tools\MSVC\14.44.35207\include\xmemory
; File C:\Program Files\Microsoft Visual Studio\2022\Professional\VC\Tools\MSVC\14.44.35207\include\vector
; File C:\Program Files\Microsoft Visual Studio\2022\Professional\VC\Tools\MSVC\14.44.35207\include\xmemory
; File C:\Program Files\Microsoft Visual Studio\2022\Professional\VC\Tools\MSVC\14.44.35207\include\vector
; File C:\Program Files\Microsoft Visual Studio\2022\Professional\VC\Tools\MSVC\14.44.35207\include\xmemory
; File C:\Program Files\Microsoft Visual Studio\2022\Professional\VC\Tools\MSVC\14.44.35207\include\vector
; File C:\Program Files\Microsoft Visual Studio\2022\Professional\VC\Tools\MSVC\14.44.35207\include\xmemory
; File C:\Program Files\Microsoft Visual Studio\2022\Professional\VC\Tools\MSVC\14.44.35207\include\vector
; File C:\Program Files\Microsoft Visual Studio\2022\Professional\VC\Tools\MSVC\14.44.35207\include\xmemory
; File C:\Program Files\Microsoft Visual Studio\2022\Professional\VC\Tools\MSVC\14.44.35207\include\vector
; File C:\Program Files\Microsoft Visual Studio\2022\Professional\VC\Tools\MSVC\14.44.35207\include\xmemory
; File C:\Program Files\Microsoft Visual Studio\2022\Professional\VC\Tools\MSVC\14.44.35207\include\vector
; File C:\Program Files\Microsoft Visual Studio\2022\Professional\VC\Tools\MSVC\14.44.35207\include\xmemory
; File C:\Program Files\Microsoft Visual Studio\2022\Professional\VC\Tools\MSVC\14.44.35207\include\vector
;	COMDAT ??$_Resize@E@?$vector@EV?$allocator@E@std@@@std@@AAEXIABE@Z
_TEXT	SEGMENT
__Oldsize$1$ = -8					; size = 4
tv610 = -4						; size = 4
__Newsize$ = 8						; size = 4
$T1 = 8							; size = 4
__Val$ = 12						; size = 4
??$_Resize@E@?$vector@EV?$allocator@E@std@@@std@@AAEXIABE@Z PROC ; std::vector<unsigned char,std::allocator<unsigned char> >::_Resize<unsigned char>, COMDAT
; _this$ = ecx

; 1589 :     _CONSTEXPR20 void _Resize(const size_type _Newsize, const _Ty2& _Val) {

  00000	55		 push	 ebp
  00001	8b ec		 mov	 ebp, esp
  00003	83 ec 08	 sub	 esp, 8
  00006	53		 push	 ebx
  00007	56		 push	 esi

; 1590 :         // trim or append elements, provide strong guarantee
; 1591 :         auto& _Al           = _Getal();
; 1592 :         auto& _My_data      = _Mypair._Myval2;
; 1593 :         pointer& _Myfirst   = _My_data._Myfirst;
; 1594 :         pointer& _Mylast    = _My_data._Mylast;
; 1595 :         const auto _Oldsize = static_cast<size_type>(_Mylast - _Myfirst);
; 1596 :         if (_Newsize < _Oldsize) { // trim

  00008	8b 75 08	 mov	 esi, DWORD PTR __Newsize$[ebp]
  0000b	57		 push	 edi
  0000c	8b f9		 mov	 edi, ecx
  0000e	8b 5f 04	 mov	 ebx, DWORD PTR [edi+4]
  00011	8b c3		 mov	 eax, ebx
  00013	8b 17		 mov	 edx, DWORD PTR [edi]
  00015	2b c2		 sub	 eax, edx
  00017	89 45 f8	 mov	 DWORD PTR __Oldsize$1$[ebp], eax
  0001a	3b f0		 cmp	 esi, eax
  0001c	73 0f		 jae	 SHORT $LN2@Resize

; 1597 :             const pointer _Newlast = _Myfirst + _Newsize;

  0001e	8d 04 32	 lea	 eax, DWORD PTR [edx+esi]

; 1625 :     }

  00021	89 47 04	 mov	 DWORD PTR [edi+4], eax
  00024	5f		 pop	 edi
  00025	5e		 pop	 esi
  00026	5b		 pop	 ebx
  00027	8b e5		 mov	 esp, ebp
  00029	5d		 pop	 ebp
  0002a	c2 08 00	 ret	 8
$LN2@Resize:

; 1598 :             _Orphan_range(_Newlast, _Mylast);
; 1599 :             _Destroy_range(_Newlast, _Mylast, _Al);
; 1600 :             _ASAN_VECTOR_MODIFY(static_cast<difference_type>(_Newsize - _Oldsize));
; 1601 :             _Mylast = _Newlast;
; 1602 :             return;
; 1603 :         }
; 1604 : 
; 1605 :         if (_Newsize > _Oldsize) { // append

  0002d	0f 86 ee 00 00
	00		 jbe	 $LN3@Resize

; 1606 :             const auto _Oldcapacity = static_cast<size_type>(_My_data._Myend - _Myfirst);

  00033	8b 4f 08	 mov	 ecx, DWORD PTR [edi+8]
  00036	2b ca		 sub	 ecx, edx

; 1607 :             if (_Newsize > _Oldcapacity) { // reallocate

  00038	3b f1		 cmp	 esi, ecx
  0003a	0f 86 c8 00 00
	00		 jbe	 $LN4@Resize

; 1553 :         if (_Newsize > max_size()) {

  00040	81 fe ff ff ff
	7f		 cmp	 esi, 2147483647		; 7fffffffH
  00046	0f 87 de 00 00
	00		 ja	 $LN113@Resize

; 2011 :         if (_Oldcapacity > _Max - _Oldcapacity / 2) {

  0004c	8b d1		 mov	 edx, ecx
  0004e	b8 ff ff ff 7f	 mov	 eax, 2147483647		; 7fffffffH
  00053	d1 ea		 shr	 edx, 1
  00055	2b c2		 sub	 eax, edx
  00057	3b c8		 cmp	 ecx, eax
  00059	76 0d		 jbe	 SHORT $LN11@Resize

; 2012 :             return _Max; // geometric growth would overflow

  0005b	bb ff ff ff 7f	 mov	 ebx, 2147483647		; 7fffffffH
; File C:\Program Files\Microsoft Visual Studio\2022\Professional\VC\Tools\MSVC\14.44.35207\include\xmemory

; 253  :             return _Allocate_manually_vector_aligned<_Traits>(_Bytes);

  00060	53		 push	 ebx
  00061	e8 00 00 00 00	 call	 ??$_Allocate_manually_vector_aligned@U_Default_allocate_traits@std@@@std@@YAPAXI@Z ; std::_Allocate_manually_vector_aligned<std::_Default_allocate_traits>
  00066	eb 27		 jmp	 SHORT $LN111@Resize
$LN11@Resize:
; File C:\Program Files\Microsoft Visual Studio\2022\Professional\VC\Tools\MSVC\14.44.35207\include\vector

; 2015 :         const size_type _Geometric = _Oldcapacity + _Oldcapacity / 2;

  00068	8d 1c 0a	 lea	 ebx, DWORD PTR [edx+ecx]

; 2016 : 
; 2017 :         if (_Geometric < _Newsize) {

  0006b	3b de		 cmp	 ebx, esi
  0006d	0f 42 de	 cmovb	 ebx, esi
; File C:\Program Files\Microsoft Visual Studio\2022\Professional\VC\Tools\MSVC\14.44.35207\include\xmemory

; 227  :     if (_Bytes == 0) {

  00070	8b c3		 mov	 eax, ebx
  00072	85 db		 test	 ebx, ebx
  00074	75 04		 jne	 SHORT $LN22@Resize

; 228  :         return nullptr;

  00076	33 c9		 xor	 ecx, ecx
  00078	eb 1a		 jmp	 SHORT $LN110@Resize
$LN22@Resize:

; 229  :     }
; 230  : 
; 231  : #if _HAS_CXX20 // TRANSITION, GH-1532
; 232  :     if (_STD is_constant_evaluated()) {
; 233  :         return _Traits::_Allocate(_Bytes);
; 234  :     }
; 235  : #endif // _HAS_CXX20
; 236  : 
; 237  : #ifdef __cpp_aligned_new
; 238  :     if constexpr (_Align > __STDCPP_DEFAULT_NEW_ALIGNMENT__) {
; 239  :         size_t _Passed_align = _Align;
; 240  : #if defined(_M_IX86) || defined(_M_X64)
; 241  :         if (_Bytes >= _Big_allocation_threshold) {
; 242  :             // boost the alignment of big allocations to help autovectorization
; 243  :             _Passed_align = (_STD max)(_Align, _Big_allocation_alignment);
; 244  :         }
; 245  : #endif // defined(_M_IX86) || defined(_M_X64)
; 246  :         return _Traits::_Allocate_aligned(_Bytes, _Passed_align);
; 247  :     } else
; 248  : #endif // defined(__cpp_aligned_new)
; 249  :     {
; 250  : #if defined(_M_IX86) || defined(_M_X64)
; 251  :         if (_Bytes >= _Big_allocation_threshold) {

  0007a	3d 00 10 00 00	 cmp	 eax, 4096		; 00001000H
  0007f	72 08		 jb	 SHORT $LN23@Resize

; 253  :             return _Allocate_manually_vector_aligned<_Traits>(_Bytes);

  00081	53		 push	 ebx
  00082	e8 00 00 00 00	 call	 ??$_Allocate_manually_vector_aligned@U_Default_allocate_traits@std@@@std@@YAPAXI@Z ; std::_Allocate_manually_vector_aligned<std::_Default_allocate_traits>
  00087	eb 06		 jmp	 SHORT $LN111@Resize
$LN23@Resize:

; 136  :         return ::operator new(_Bytes);

  00089	50		 push	 eax
  0008a	e8 00 00 00 00	 call	 ??2@YAPAXI@Z		; operator new
$LN111@Resize:
; File C:\Program Files\Microsoft Visual Studio\2022\Professional\VC\Tools\MSVC\14.44.35207\include\vector

; 1572 :             _Appended_last = _Uninitialized_fill_n(_Appended_first, _Newsize - _Oldsize, _Val, _Al);

  0008f	8b c8		 mov	 ecx, eax
  00091	83 c4 04	 add	 esp, 4
$LN110@Resize:
  00094	8b 55 f8	 mov	 edx, DWORD PTR __Oldsize$1$[ebp]
  00097	8b c6		 mov	 eax, esi
  00099	2b c2		 sub	 eax, edx
  0009b	89 4d 08	 mov	 DWORD PTR $T1[ebp], ecx
; File C:\Program Files\Microsoft Visual Studio\2022\Professional\VC\Tools\MSVC\14.44.35207\include\xmemory

; 2015 :             _Fill_memset(_Unfancy(_First), _Val, static_cast<size_t>(_Count));

  0009e	50		 push	 eax
  0009f	8b 45 0c	 mov	 eax, DWORD PTR __Val$[ebp]
  000a2	0f b6 00	 movzx	 eax, BYTE PTR [eax]
  000a5	50		 push	 eax
; File C:\Program Files\Microsoft Visual Studio\2022\Professional\VC\Tools\MSVC\14.44.35207\include\vector

; 1566 :         const pointer _Appended_first = _Newvec + _Oldsize;

  000a6	8d 04 11	 lea	 eax, DWORD PTR [ecx+edx]
; File C:\Program Files\Microsoft Visual Studio\2022\Professional\VC\Tools\MSVC\14.44.35207\include\xmemory

; 2015 :             _Fill_memset(_Unfancy(_First), _Val, static_cast<size_t>(_Count));

  000a9	50		 push	 eax
  000aa	e8 00 00 00 00	 call	 ??$_Fill_memset@PAEE@std@@YAXPAEEI@Z ; std::_Fill_memset<unsigned char *,unsigned char>

; 1992 :             _STD _Copy_memmove(_UFirst, _ULast, _STD _Unfancy(_Dest));

  000af	ff 75 08	 push	 DWORD PTR $T1[ebp]
  000b2	ff 77 04	 push	 DWORD PTR [edi+4]
  000b5	ff 37		 push	 DWORD PTR [edi]
  000b7	e8 00 00 00 00	 call	 ??$_Copy_memmove@PAEPAE@std@@YAPAEPAE00@Z ; std::_Copy_memmove<unsigned char *,unsigned char *>
; File C:\Program Files\Microsoft Visual Studio\2022\Professional\VC\Tools\MSVC\14.44.35207\include\vector

; 2069 :         if (_Myfirst) { // destroy and deallocate old array

  000bc	8b 07		 mov	 eax, DWORD PTR [edi]
; File C:\Program Files\Microsoft Visual Studio\2022\Professional\VC\Tools\MSVC\14.44.35207\include\xmemory

; 1992 :             _STD _Copy_memmove(_UFirst, _ULast, _STD _Unfancy(_Dest));

  000be	83 c4 18	 add	 esp, 24			; 00000018H
; File C:\Program Files\Microsoft Visual Studio\2022\Professional\VC\Tools\MSVC\14.44.35207\include\vector

; 2069 :         if (_Myfirst) { // destroy and deallocate old array

  000c1	85 c0		 test	 eax, eax
  000c3	74 29		 je	 SHORT $LN58@Resize

; 2070 :             _STD _Destroy_range(_Myfirst, _Mylast, _Al);
; 2071 :             _ASAN_VECTOR_REMOVE;
; 2072 :             _Al.deallocate(_Myfirst, static_cast<size_type>(_Myend - _Myfirst));

  000c5	8b 4f 08	 mov	 ecx, DWORD PTR [edi+8]
  000c8	2b c8		 sub	 ecx, eax
; File C:\Program Files\Microsoft Visual Studio\2022\Professional\VC\Tools\MSVC\14.44.35207\include\xmemory

; 284  :         if (_Bytes >= _Big_allocation_threshold) {

  000ca	81 f9 00 10 00
	00		 cmp	 ecx, 4096		; 00001000H
  000d0	72 12		 jb	 SHORT $LN63@Resize

; 205  :     const uintptr_t _Ptr_container   = _Ptr_user[-1];

  000d2	8b 50 fc	 mov	 edx, DWORD PTR [eax-4]
  000d5	83 c1 23	 add	 ecx, 35			; 00000023H

; 206  : 
; 207  :     // If the following asserts, it likely means that we are performing
; 208  :     // an aligned delete on memory coming from an unaligned allocation.
; 209  :     _STL_ASSERT(_Ptr_user[-2] == _Big_allocation_sentinel, "invalid argument");
; 210  : 
; 211  :     // Extra paranoia on aligned allocation/deallocation; ensure _Ptr_container is
; 212  :     // in range [_Min_back_shift, _Non_user_size]
; 213  : #ifdef _DEBUG
; 214  :     constexpr uintptr_t _Min_back_shift = 2 * sizeof(void*);
; 215  : #else // ^^^ defined(_DEBUG) / !defined(_DEBUG) vvv
; 216  :     constexpr uintptr_t _Min_back_shift = sizeof(void*);
; 217  : #endif // ^^^ !defined(_DEBUG) ^^^
; 218  :     const uintptr_t _Back_shift = reinterpret_cast<uintptr_t>(_Ptr) - _Ptr_container;

  000d8	2b c2		 sub	 eax, edx

; 219  :     _STL_VERIFY(_Back_shift >= _Min_back_shift && _Back_shift <= _Non_user_size, "invalid argument");

  000da	83 c0 fc	 add	 eax, -4			; fffffffcH
  000dd	83 f8 1f	 cmp	 eax, 31			; 0000001fH
  000e0	77 4d		 ja	 SHORT $LN62@Resize

; 220  :     _Ptr = reinterpret_cast<void*>(_Ptr_container);

  000e2	8b c2		 mov	 eax, edx
$LN63@Resize:

; 289  :         ::operator delete(_Ptr, _Bytes);

  000e4	51		 push	 ecx
  000e5	50		 push	 eax
  000e6	e8 00 00 00 00	 call	 ??3@YAXPAXI@Z		; operator delete
  000eb	83 c4 08	 add	 esp, 8
$LN58@Resize:
; File C:\Program Files\Microsoft Visual Studio\2022\Professional\VC\Tools\MSVC\14.44.35207\include\vector

; 2075 :         _Myfirst = _Newvec;

  000ee	8b 4d 08	 mov	 ecx, DWORD PTR $T1[ebp]
  000f1	89 0f		 mov	 DWORD PTR [edi], ecx

; 2076 :         _Mylast  = _Newvec + _Newsize;

  000f3	8d 04 31	 lea	 eax, DWORD PTR [ecx+esi]
  000f6	89 47 04	 mov	 DWORD PTR [edi+4], eax

; 2077 :         _Myend   = _Newvec + _Newcapacity;

  000f9	8d 04 19	 lea	 eax, DWORD PTR [ecx+ebx]
  000fc	89 47 08	 mov	 DWORD PTR [edi+8], eax
  000ff	5f		 pop	 edi

; 1625 :     }

  00100	5e		 pop	 esi
  00101	5b		 pop	 ebx
  00102	8b e5		 mov	 esp, ebp
  00104	5d		 pop	 ebp
  00105	c2 08 00	 ret	 8
$LN4@Resize:

; 1608 :                 _Resize_reallocate(_Newsize, _Val);
; 1609 :                 return;
; 1610 :             }
; 1611 : 
; 1612 :             _ASAN_VECTOR_EXTEND_GUARD(_Newsize);
; 1613 :             const pointer _Oldlast = _Mylast;
; 1614 :             if constexpr (is_same_v<_Ty2, _Ty>) {
; 1615 :                 _Mylast = _Uninitialized_fill_n(_Oldlast, _Newsize - _Oldsize, _Val, _Al);

  00108	2b f0		 sub	 esi, eax
; File C:\Program Files\Microsoft Visual Studio\2022\Professional\VC\Tools\MSVC\14.44.35207\include\xmemory

; 2015 :             _Fill_memset(_Unfancy(_First), _Val, static_cast<size_t>(_Count));

  0010a	8b 45 0c	 mov	 eax, DWORD PTR __Val$[ebp]
  0010d	56		 push	 esi
  0010e	0f b6 00	 movzx	 eax, BYTE PTR [eax]
  00111	50		 push	 eax
  00112	53		 push	 ebx
  00113	e8 00 00 00 00	 call	 ??$_Fill_memset@PAEE@std@@YAXPAEEI@Z ; std::_Fill_memset<unsigned char *,unsigned char>

; 2016 :             return _First + _Count;

  00118	8d 04 1e	 lea	 eax, DWORD PTR [esi+ebx]
  0011b	83 c4 0c	 add	 esp, 12			; 0000000cH
; File C:\Program Files\Microsoft Visual Studio\2022\Professional\VC\Tools\MSVC\14.44.35207\include\vector

; 1625 :     }

  0011e	89 47 04	 mov	 DWORD PTR [edi+4], eax
$LN3@Resize:
  00121	5f		 pop	 edi
  00122	5e		 pop	 esi
  00123	5b		 pop	 ebx
  00124	8b e5		 mov	 esp, ebp
  00126	5d		 pop	 ebp
  00127	c2 08 00	 ret	 8
$LN113@Resize:

; 1554 :             _Xlength();

  0012a	e8 00 00 00 00	 call	 ?_Xlength@?$vector@EV?$allocator@E@std@@@std@@CAXXZ ; std::vector<unsigned char,std::allocator<unsigned char> >::_Xlength
$LN62@Resize:
; File C:\Program Files\Microsoft Visual Studio\2022\Professional\VC\Tools\MSVC\14.44.35207\include\xmemory

; 219  :     _STL_VERIFY(_Back_shift >= _Min_back_shift && _Back_shift <= _Non_user_size, "invalid argument");

  0012f	6a 00		 push	 0
  00131	6a 00		 push	 0
  00133	6a 00		 push	 0
  00135	6a 00		 push	 0
  00137	6a 00		 push	 0
  00139	e8 00 00 00 00	 call	 __invoke_watson
$LN108@Resize:
  0013e	cc		 int	 3
??$_Resize@E@?$vector@EV?$allocator@E@std@@@std@@AAEXIABE@Z ENDP ; std::vector<unsigned char,std::allocator<unsigned char> >::_Resize<unsigned char>
_TEXT	ENDS
; Function compile flags: /Ogtp
; File C:\Program Files\Microsoft Visual Studio\2022\Professional\VC\Tools\MSVC\14.44.35207\include\xmemory
;	COMDAT ??$_Allocate_manually_vector_aligned@U_Default_allocate_traits@std@@@std@@YAPAXI@Z
_TEXT	SEGMENT
__Bytes$ = 8						; size = 4
??$_Allocate_manually_vector_aligned@U_Default_allocate_traits@std@@@std@@YAPAXI@Z PROC ; std::_Allocate_manually_vector_aligned<std::_Default_allocate_traits>, COMDAT

; 182  : __declspec(allocator) void* _Allocate_manually_vector_aligned(const size_t _Bytes) {

  00000	55		 push	 ebp
  00001	8b ec		 mov	 ebp, esp

; 183  :     // allocate _Bytes manually aligned to at least _Big_allocation_alignment
; 184  :     const size_t _Block_size = _Non_user_size + _Bytes;

  00003	8b 45 08	 mov	 eax, DWORD PTR __Bytes$[ebp]
  00006	8d 48 23	 lea	 ecx, DWORD PTR [eax+35]

; 185  :     if (_Block_size <= _Bytes) {

  00009	3b c8		 cmp	 ecx, eax
  0000b	0f 86 00 00 00
	00		 jbe	 ?_Throw_bad_array_new_length@std@@YAXXZ ; std::_Throw_bad_array_new_length

; 136  :         return ::operator new(_Bytes);

  00011	51		 push	 ecx
  00012	e8 00 00 00 00	 call	 ??2@YAPAXI@Z		; operator new

; 186  :         _Throw_bad_array_new_length(); // add overflow
; 187  :     }
; 188  : 
; 189  :     const uintptr_t _Ptr_container = reinterpret_cast<uintptr_t>(_Traits::_Allocate(_Block_size));

  00017	8b c8		 mov	 ecx, eax

; 136  :         return ::operator new(_Bytes);

  00019	83 c4 04	 add	 esp, 4

; 190  :     _STL_VERIFY(_Ptr_container != 0, "invalid argument"); // validate even in release since we're doing p[-1]

  0001c	85 c9		 test	 ecx, ecx
  0001e	74 0b		 je	 SHORT $LN9@Allocate_m

; 191  :     void* const _Ptr = reinterpret_cast<void*>((_Ptr_container + _Non_user_size) & ~(_Big_allocation_alignment - 1));

  00020	8d 41 23	 lea	 eax, DWORD PTR [ecx+35]
  00023	83 e0 e0	 and	 eax, -32		; ffffffe0H

; 192  :     static_cast<uintptr_t*>(_Ptr)[-1] = _Ptr_container;

  00026	89 48 fc	 mov	 DWORD PTR [eax-4], ecx

; 193  : 
; 194  : #ifdef _DEBUG
; 195  :     static_cast<uintptr_t*>(_Ptr)[-2] = _Big_allocation_sentinel;
; 196  : #endif // defined(_DEBUG)
; 197  :     return _Ptr;
; 198  : }

  00029	5d		 pop	 ebp
  0002a	c3		 ret	 0
$LN9@Allocate_m:

; 190  :     _STL_VERIFY(_Ptr_container != 0, "invalid argument"); // validate even in release since we're doing p[-1]

  0002b	6a 00		 push	 0
  0002d	6a 00		 push	 0
  0002f	6a 00		 push	 0
  00031	6a 00		 push	 0
  00033	6a 00		 push	 0
  00035	e8 00 00 00 00	 call	 __invoke_watson
$LN7@Allocate_m:
  0003a	cc		 int	 3
??$_Allocate_manually_vector_aligned@U_Default_allocate_traits@std@@@std@@YAPAXI@Z ENDP ; std::_Allocate_manually_vector_aligned<std::_Default_allocate_traits>
_TEXT	ENDS
; Function compile flags: /Ogtp
; File C:\Program Files\Microsoft Visual Studio\2022\Professional\VC\Tools\MSVC\14.44.35207\include\xutility
;	COMDAT ??$_Copy_memmove@PAEPAE@std@@YAPAEPAE00@Z
_TEXT	SEGMENT
__First$ = 8						; size = 4
__Last$ = 12						; size = 4
__Dest$ = 16						; size = 4
??$_Copy_memmove@PAEPAE@std@@YAPAEPAE00@Z PROC		; std::_Copy_memmove<unsigned char *,unsigned char *>, COMDAT

; 4762 : _OutCtgIt _Copy_memmove(_CtgIt _First, _CtgIt _Last, _OutCtgIt _Dest) {

  00000	55		 push	 ebp
  00001	8b ec		 mov	 ebp, esp

; 4763 :     _STL_INTERNAL_CHECK(_First <= _Last);
; 4764 :     const auto _First_ptr    = _STD _To_address(_First);
; 4765 :     const auto _Last_ptr     = _STD _To_address(_Last);
; 4766 :     const auto _Object_count = static_cast<size_t>(_Last_ptr - _First_ptr);

  00003	8b 4d 08	 mov	 ecx, DWORD PTR __First$[ebp]
  00006	8b 45 0c	 mov	 eax, DWORD PTR __Last$[ebp]
  00009	2b c1		 sub	 eax, ecx

; 4767 :     const auto _First_ch     = const_cast<const char*>(reinterpret_cast<const volatile char*>(_First_ptr));
; 4768 :     const auto _Last_ch      = const_cast<const char*>(reinterpret_cast<const volatile char*>(_Last_ptr));
; 4769 :     const auto _Byte_count   = static_cast<size_t>(_Last_ch - _First_ch);
; 4770 :     return _STD _Copy_memmove_tail(_First_ch, _STD move(_Dest), _Byte_count, _Object_count);

  0000b	50		 push	 eax
  0000c	50		 push	 eax
  0000d	ff 75 10	 push	 DWORD PTR __Dest$[ebp]
  00010	51		 push	 ecx
  00011	e8 00 00 00 00	 call	 ??$_Copy_memmove_tail@PAE@std@@YAPAEQBDQAEII@Z ; std::_Copy_memmove_tail<unsigned char *>
  00016	83 c4 10	 add	 esp, 16			; 00000010H

; 4771 : }

  00019	5d		 pop	 ebp
  0001a	c3		 ret	 0
??$_Copy_memmove@PAEPAE@std@@YAPAEPAE00@Z ENDP		; std::_Copy_memmove<unsigned char *,unsigned char *>
_TEXT	ENDS
; Function compile flags: /Ogtp
; File C:\Program Files\Microsoft Visual Studio\2022\Professional\VC\Tools\MSVC\14.44.35207\include\xutility
;	COMDAT ??$_Copy_memmove_tail@PAE@std@@YAPAEQBDQAEII@Z
_TEXT	SEGMENT
__First_ch$ = 8						; size = 4
__Dest$ = 12						; size = 4
__Byte_count$ = 16					; size = 4
__Object_count$ = 20					; size = 4
??$_Copy_memmove_tail@PAE@std@@YAPAEQBDQAEII@Z PROC	; std::_Copy_memmove_tail<unsigned char *>, COMDAT

; 4747 :     const char* const _First_ch, const _OutCtgIt _Dest, const size_t _Byte_count, const size_t _Object_count) {

  00000	55		 push	 ebp
  00001	8b ec		 mov	 ebp, esp
  00003	56		 push	 esi

; 4748 :     _STL_INTERNAL_CHECK(_Byte_count == _Object_count * sizeof(*_Dest));
; 4749 :     const auto _Dest_ptr = _STD _To_address(_Dest);
; 4750 :     const auto _Dest_ch  = const_cast<char*>(reinterpret_cast<const volatile char*>(_Dest_ptr));
; 4751 :     _CSTD memmove(_Dest_ch, _First_ch, _Byte_count);

  00004	8b 75 0c	 mov	 esi, DWORD PTR __Dest$[ebp]
  00007	57		 push	 edi
  00008	8b 7d 10	 mov	 edi, DWORD PTR __Byte_count$[ebp]
  0000b	57		 push	 edi
  0000c	ff 75 08	 push	 DWORD PTR __First_ch$[ebp]
  0000f	56		 push	 esi
  00010	e8 00 00 00 00	 call	 _memmove
  00015	83 c4 0c	 add	 esp, 12			; 0000000cH

; 4752 :     if constexpr (is_pointer_v<_OutCtgIt>) {
; 4753 :         (void) _Object_count;
; 4754 :         // CodeQL [SM02986] This cast is correct: we're bypassing pointer arithmetic for performance.
; 4755 :         return reinterpret_cast<_OutCtgIt>(_Dest_ch + _Byte_count);

  00018	8d 04 3e	 lea	 eax, DWORD PTR [esi+edi]
  0001b	5f		 pop	 edi
  0001c	5e		 pop	 esi

; 4756 :     } else {
; 4757 :         return _Dest + static_cast<_Iter_diff_t<_OutCtgIt>>(_Object_count);
; 4758 :     }
; 4759 : }

  0001d	5d		 pop	 ebp
  0001e	c3		 ret	 0
??$_Copy_memmove_tail@PAE@std@@YAPAEQBDQAEII@Z ENDP	; std::_Copy_memmove_tail<unsigned char *>
_TEXT	ENDS
; Function compile flags: /Ogtp
; File C:\IAGOS\server\v18\Source\Source\_Common\MoverSkill.cpp
; File C:\IAGOS\server\v18\Source\Source\_Common\Item.h
; File C:\IAGOS\server\v18\Source\Source\_Common\MoverSkill.cpp
;	COMDAT ?IsDoUseBuff@CMover@@QAEHPAUItemProp@@@Z
_TEXT	SEGMENT
_nMax$1$ = -8						; size = 4
_i$1$ = -4						; size = 4
_pItemProp$ = 8						; size = 4
_pBuff$1$ = 8						; size = 4
?IsDoUseBuff@CMover@@QAEHPAUItemProp@@@Z PROC		; CMover::IsDoUseBuff, COMDAT
; _this$ = ecx

; 3137 : {

  00000	55		 push	 ebp
  00001	8b ec		 mov	 ebp, esp
  00003	83 ec 08	 sub	 esp, 8
  00006	53		 push	 ebx

; 3138 : 	int nResult = 0;
; 3139 : 	if( pItemProp->dwItemKind3 == IK3_POTION_BUFF_STR
; 3140 : 		|| pItemProp->dwItemKind3 == IK3_POTION_BUFF_DEX
; 3141 : 		|| pItemProp->dwItemKind3 == IK3_POTION_BUFF_INT
; 3142 : 		|| pItemProp->dwItemKind3 == IK3_POTION_BUFF_STA
; 3143 : 		|| pItemProp->dwItemKind3 == IK3_POTION_BUFF_DEFENSE		
; 3144 : #if __VER >= 8 //__CSC_VER8_5
; 3145 : 		|| pItemProp->dwItemKind3 == IK3_ANGEL_BUFF		
; 3146 : #endif // __CSC_VER8_5
; 3147 : #ifdef __BUFF_TOGIFT
; 3148 : 		|| pItemProp->dwItemKind2 == IK2_BUFF_TOGIFT

  00007	8b 5d 08	 mov	 ebx, DWORD PTR _pItemProp$[ebp]
  0000a	56		 push	 esi
  0000b	33 f6		 xor	 esi, esi
  0000d	57		 push	 edi
  0000e	8b 43 78	 mov	 eax, DWORD PTR [ebx+120]
  00011	8b f9		 mov	 edi, ecx
  00013	83 f8 5a	 cmp	 eax, 90			; 0000005aH
  00016	0f 84 77 02 00
	00		 je	 $LN9@IsDoUseBuf
  0001c	83 f8 5b	 cmp	 eax, 91			; 0000005bH
  0001f	0f 84 6e 02 00
	00		 je	 $LN9@IsDoUseBuf
  00025	83 f8 5c	 cmp	 eax, 92			; 0000005cH
  00028	0f 84 65 02 00
	00		 je	 $LN9@IsDoUseBuf
  0002e	83 f8 5d	 cmp	 eax, 93			; 0000005dH
  00031	0f 84 5c 02 00
	00		 je	 $LN9@IsDoUseBuf
  00037	83 f8 5e	 cmp	 eax, 94			; 0000005eH
  0003a	0f 84 53 02 00
	00		 je	 $LN9@IsDoUseBuf
  00040	83 f8 5f	 cmp	 eax, 95			; 0000005fH
  00043	0f 84 4a 02 00
	00		 je	 $LN9@IsDoUseBuf
  00049	83 7b 74 25	 cmp	 DWORD PTR [ebx+116], 37	; 00000025H
  0004d	0f 84 40 02 00
	00		 je	 $LN9@IsDoUseBuf

; 3174 : 		}
; 3175 : #else //__PKSERVER_USE_ANGEL
; 3176 : 		if( pItemProp->dwItemKind3 == IK3_ANGEL_BUFF )
; 3177 : 		{
; 3178 : 			if( 0 >= GetPKValue() )
; 3179 : 				nResult = 2;
; 3180 : 			if( GetQuest( QUEST_PKMINUS ) == NULL )
; 3181 : 				nResult = 3;
; 3182 : 			if( m_Inventory.GetAtItemId( II_SYS_SYS_QUE_ANGEL_RED100 ) != NULL 
; 3183 : 				|| m_Inventory.GetAtItemId( II_SYS_SYS_QUE_ANGEL_BLUE100 ) != NULL 
; 3184 : 				|| m_Inventory.GetAtItemId( II_SYS_SYS_QUE_ANGEL_GREEN100 ) != NULL 
; 3185 : 				|| m_Inventory.GetAtItemId( II_SYS_SYS_QUE_ANGEL_WHITE100 ) != NULL 
; 3186 : 				)
; 3187 : 				nResult = 4;
; 3188 : 		}
; 3189 : #endif //__PKSERVER_USE_ANGEL
; 3190 : #endif // __CSC_VER8_5
; 3191 : 	}
; 3192 : #if __VER >= 8
; 3193 : 	else if( pItemProp->dwID == II_SYS_SYS_SCR_DEFENSE20 || pItemProp->dwID == II_SYS_SYS_SCR_DEFENSE50 )

  00053	8b 03		 mov	 eax, DWORD PTR [ebx]
  00055	0f b7 c8	 movzx	 ecx, ax
  00058	3d 02 66 00 00	 cmp	 eax, 26114		; 00006602H
  0005d	0f 84 16 02 00
	00		 je	 $LN20@IsDoUseBuf
  00063	3d 03 66 00 00	 cmp	 eax, 26115		; 00006603H
  00068	0f 84 0b 02 00
	00		 je	 $LN20@IsDoUseBuf

; 3198 : #endif // __VER >= 8
; 3199 : #ifdef __JEFF_11_1
; 3200 : 	else if( pItemProp->dwID == II_SYS_SYS_SCR_PET_FEED_POCKET02 )

  0006e	3d a3 67 00 00	 cmp	 eax, 26531		; 000067a3H
  00073	0f 85 a9 00 00
	00		 jne	 $LN23@IsDoUseBuf

; 3201 : 	{
; 3202 : 		int nMax	= m_Inventory.GetMax();

  00079	8b 8f 08 0b 00
	00		 mov	 ecx, DWORD PTR [edi+2824]

; 3203 : 		CItemElem* pItem;
; 3204 : 		for( int i = 0 ; i < nMax; i++ )

  0007f	33 c0		 xor	 eax, eax
  00081	89 4d f8	 mov	 DWORD PTR _nMax$1$[ebp], ecx
  00084	89 45 fc	 mov	 DWORD PTR _i$1$[ebp], eax
  00087	85 c9		 test	 ecx, ecx
  00089	7e 41		 jle	 SHORT $LN62@IsDoUseBuf
$LN104@IsDoUseBuf:

; 3205 : 		{
; 3206 : 			pItem	= m_Inventory.GetAtId( i );

  0008b	8d 8f fc 0a 00
	00		 lea	 ecx, DWORD PTR [edi+2812]
  00091	50		 push	 eax
  00092	e8 00 00 00 00	 call	 ?GetAtId@?$CItemContainer@VCItemElem@@@@QAEPAVCItemElem@@K@Z ; CItemContainer<CItemElem>::GetAtId
  00097	8b d8		 mov	 ebx, eax

; 3210 : 				&& !pItem->IsFlag( CItemElem::expired )

  00099	53		 push	 ebx
  0009a	e8 00 00 00 00	 call	 ?IsUsableItem@@YAHPAVCItemBase@@@Z ; IsUsableItem
  0009f	83 c4 04	 add	 esp, 4
  000a2	85 c0		 test	 eax, eax
  000a4	74 17		 je	 SHORT $LN2@IsDoUseBuf
  000a6	81 7b 0c 2b 52
	00 00		 cmp	 DWORD PTR [ebx+12], 21035 ; 0000522bH
  000ad	75 0e		 jne	 SHORT $LN2@IsDoUseBuf
  000af	39 b3 a8 00 00
	00		 cmp	 DWORD PTR [ebx+168], esi
  000b5	76 06		 jbe	 SHORT $LN2@IsDoUseBuf
; File C:\IAGOS\server\v18\Source\Source\_Common\Item.h

; 257  : 	BOOL	IsFlag( BYTE byFlag )	{	return ( m_byFlag & byFlag ) ? TRUE: FALSE;		}

  000b7	f6 43 76 01	 test	 BYTE PTR [ebx+118], 1
; File C:\IAGOS\server\v18\Source\Source\_Common\MoverSkill.cpp

; 3210 : 				&& !pItem->IsFlag( CItemElem::expired )

  000bb	74 5b		 je	 SHORT $LN56@IsDoUseBuf
$LN2@IsDoUseBuf:

; 3203 : 		CItemElem* pItem;
; 3204 : 		for( int i = 0 ; i < nMax; i++ )

  000bd	8b 45 fc	 mov	 eax, DWORD PTR _i$1$[ebp]
  000c0	40		 inc	 eax
  000c1	89 45 fc	 mov	 DWORD PTR _i$1$[ebp], eax
  000c4	3b 45 f8	 cmp	 eax, DWORD PTR _nMax$1$[ebp]
  000c7	7c c2		 jl	 SHORT $LN104@IsDoUseBuf
  000c9	8b 5d 08	 mov	 ebx, DWORD PTR _pItemProp$[ebp]
$LN62@IsDoUseBuf:

; 3214 : 				break;
; 3215 : 			}
; 3216 : 		}
; 3217 : 		if( nResult != 1 )
; 3218 : 		{
; 3219 : 		#ifdef __BUFF_1107
; 3220 : 			IBuff* pBuff	= m_buffs.GetBuff( BUFF_ITEM, (WORD)( pItemProp->dwID ) );

  000cc	0f b7 03	 movzx	 eax, WORD PTR [ebx]
  000cf	8d 8f ec 02 00
	00		 lea	 ecx, DWORD PTR [edi+748]
  000d5	50		 push	 eax
  000d6	6a 00		 push	 0
  000d8	e8 00 00 00 00	 call	 ?GetBuff@CBuffMgr@@QAEPAVIBuff@@GG@Z ; CBuffMgr::GetBuff
  000dd	89 45 08	 mov	 DWORD PTR _pBuff$1$[ebp], eax

; 3221 : 			if( pBuff )

  000e0	85 c0		 test	 eax, eax
  000e2	74 21		 je	 SHORT $LN13@IsDoUseBuf

; 3222 : 			{
; 3223 : 				DWORD dwCurr	= ::timeGetTime();

  000e4	ff 15 00 00 00
	00		 call	 DWORD PTR __imp__timeGetTime@0

; 3224 : 				if( static_cast<int>( pItemProp->dwSkillTime ) > static_cast<int>( pItemProp->dwSkillTime + ( pBuff->GetTotal() - ( dwCurr - pBuff->GetInst() ) ) ) )

  000ea	8b 93 c0 01 00
	00		 mov	 edx, DWORD PTR [ebx+448]
  000f0	8b 5d 08	 mov	 ebx, DWORD PTR _pBuff$1$[ebp]
  000f3	8b 4b 10	 mov	 ecx, DWORD PTR [ebx+16]
  000f6	03 4b 0c	 add	 ecx, DWORD PTR [ebx+12]
  000f9	2b c8		 sub	 ecx, eax
  000fb	03 ca		 add	 ecx, edx
  000fd	3b d1		 cmp	 edx, ecx
  000ff	0f 8f 3f 01 00
	00		 jg	 $LN40@IsDoUseBuf
$LN13@IsDoUseBuf:

; 3285 : 			)
; 3286 : 			nResult = 1;
; 3287 : 	}
; 3288 : #endif // //12Â÷ ±Ř´ÜŔŻ·áľĆŔĚĹŰ
; 3289 : 	
; 3290 : 	switch( nResult )

  00105	8d 46 ff	 lea	 eax, DWORD PTR [esi-1]
  00108	83 f8 03	 cmp	 eax, 3
  0010b	0f 87 79 02 00
	00		 ja	 $LN5@IsDoUseBuf
$LN61@IsDoUseBuf:
  00111	ff 24 85 00 00
	00 00		 jmp	 DWORD PTR $LN63@IsDoUseBuf[eax*4]
$LN56@IsDoUseBuf:

; 3211 : 				)
; 3212 : 			{
; 3213 : 				nResult		= 1;

  00118	be 01 00 00 00	 mov	 esi, 1
  0011d	8d 46 ff	 lea	 eax, DWORD PTR [esi-1]
  00120	eb ef		 jmp	 SHORT $LN61@IsDoUseBuf
$LN23@IsDoUseBuf:

; 3225 : 					nResult		= 1;
; 3226 : 			}
; 3227 : 		#else	// __BUFF_1107
; 3228 : 			LPSKILLINFLUENCE ptr	= m_SkillState.FindPtr( BUFF_ITEM, pItemProp->dwID );
; 3229 : 			if( ptr )
; 3230 : 			{
; 3231 : 				DWORD dwCurr	= ::timeGetTime();
; 3232 : 				if( static_cast<int>( pItemProp->dwSkillTime ) > static_cast<int>( pItemProp->dwSkillTime + ( ptr->tmCount - ( dwCurr - ptr->tmTime ) ) ) )
; 3233 : 					nResult		= 1;
; 3234 : 			}
; 3235 : 		#endif	// __BUFF_1107
; 3236 : 		}
; 3237 : 	}
; 3238 : #endif	// __JEFF_11_1
; 3239 : 	else if( HasBuff( BUFF_ITEM, (WORD)( pItemProp->dwID ) ) )

  00122	51		 push	 ecx
  00123	6a 00		 push	 0
  00125	8b cf		 mov	 ecx, edi
  00127	e8 00 00 00 00	 call	 ?HasBuff@CMover@@QAEHGG@Z ; CMover::HasBuff
  0012c	85 c0		 test	 eax, eax
  0012e	0f 85 b3 00 00
	00		 jne	 $LN47@IsDoUseBuf

; 3240 : 	{
; 3241 : 		nResult = 1;
; 3242 : 	}
; 3243 : #if __VER >= 11 // __SYS_COLLECTING
; 3244 : 	else if( pItemProp->dwID == II_GEN_TOO_COL_SILVERBATTERY
; 3245 : 		|| pItemProp->dwID == II_GEN_TOO_COL_GOLDBATTERY
; 3246 : 		|| pItemProp->dwID == II_GEN_TOO_COL_BATTERY001

  00134	8b 03		 mov	 eax, DWORD PTR [ebx]
  00136	3d 56 67 00 00	 cmp	 eax, 26454		; 00006756H
  0013b	0f 84 0d 01 00
	00		 je	 $LN33@IsDoUseBuf
  00141	3d 57 67 00 00	 cmp	 eax, 26455		; 00006757H
  00146	0f 84 02 01 00
	00		 je	 $LN33@IsDoUseBuf
  0014c	3d c0 67 00 00	 cmp	 eax, 26560		; 000067c0H
  00151	0f 84 f7 00 00
	00		 je	 $LN33@IsDoUseBuf

; 3255 : #endif // __SYS_COLLECTING
; 3256 : #if __VER >= 12 // __JHMA_VER12_1	//12Â÷ ±Ř´ÜŔŻ·áľĆŔĚĹŰ
; 3257 : 	#define II_SYS_SYS_SCR_PARTYEXPUP01_01 20296
; 3258 : #define II_SYS_SYS_SCR_PARTYSKILLUP01_01 20297
; 3259 : 	else if( pItemProp->dwID == II_SYS_SYS_SCR_PARTYEXPUP01
; 3260 : 		|| pItemProp->dwID == II_SYS_SYS_SCR_PARTYEXPUP02
; 3261 : 		|| pItemProp->dwID == II_SYS_SYS_SCR_PARTYEXPUP01_01

  00157	3d a9 67 00 00	 cmp	 eax, 26537		; 000067a9H
  0015c	0f 84 a8 00 00
	00		 je	 $LN38@IsDoUseBuf
  00162	3d aa 67 00 00	 cmp	 eax, 26538		; 000067aaH
  00167	0f 84 9d 00 00
	00		 je	 $LN38@IsDoUseBuf
  0016d	3d 48 4f 00 00	 cmp	 eax, 20296		; 00004f48H
  00172	0f 84 92 00 00
	00		 je	 $LN38@IsDoUseBuf

; 3267 : 			)
; 3268 : 			nResult = 1;
; 3269 : 	}
; 3270 : 	else if( pItemProp->dwID == II_SYS_SYS_SCR_SPETGOOD

  00178	3d cd 67 00 00	 cmp	 eax, 26573		; 000067cdH
  0017d	75 15		 jne	 SHORT $LN41@IsDoUseBuf

; 3271 : 		)
; 3272 : 	{
; 3273 : 		if( HasBuff( BUFF_ITEM2, II_SYS_SYS_SCR_SPETGOOD )

  0017f	50		 push	 eax
  00180	6a 03		 push	 3
  00182	8b cf		 mov	 ecx, edi
  00184	e8 00 00 00 00	 call	 ?HasBuff@CMover@@QAEHGG@Z ; CMover::HasBuff

; 3274 : 			)
; 3275 : 			nResult = 1;
; 3276 : 	}

  00189	f7 d8		 neg	 eax
  0018b	1b f6		 sbb	 esi, esi
  0018d	f7 de		 neg	 esi
  0018f	e9 71 ff ff ff	 jmp	 $LN13@IsDoUseBuf
$LN41@IsDoUseBuf:

; 3277 : 	else if( pItemProp->dwID == II_SYS_SYS_SCR_PARTYSKILLUP01
; 3278 : 		|| pItemProp->dwID == II_SYS_SYS_SCR_PARTYSKILLUP02
; 3279 : 		|| pItemProp->dwID == II_SYS_SYS_SCR_PARTYSKILLUP01_01

  00194	3d ab 67 00 00	 cmp	 eax, 26539		; 000067abH
  00199	74 12		 je	 SHORT $LN45@IsDoUseBuf
  0019b	3d ac 67 00 00	 cmp	 eax, 26540		; 000067acH
  001a0	74 0b		 je	 SHORT $LN45@IsDoUseBuf
  001a2	3d 49 4f 00 00	 cmp	 eax, 20297		; 00004f49H
  001a7	0f 85 58 ff ff
	ff		 jne	 $LN13@IsDoUseBuf
$LN45@IsDoUseBuf:

; 3280 : 		)
; 3281 : 	{
; 3282 : 		if( HasBuff( BUFF_ITEM2, II_SYS_SYS_SCR_PARTYSKILLUP01 )
; 3283 : 			|| HasBuff( BUFF_ITEM2, II_SYS_SYS_SCR_PARTYSKILLUP02 )
; 3284 : 			|| HasBuff( BUFF_ITEM2, II_SYS_SYS_SCR_PARTYSKILLUP01_01 )

  001ad	68 ab 67 00 00	 push	 26539			; 000067abH
  001b2	6a 03		 push	 3
  001b4	8b cf		 mov	 ecx, edi
  001b6	e8 00 00 00 00	 call	 ?HasBuff@CMover@@QAEHGG@Z ; CMover::HasBuff
  001bb	85 c0		 test	 eax, eax
  001bd	75 28		 jne	 SHORT $LN47@IsDoUseBuf
  001bf	68 ac 67 00 00	 push	 26540			; 000067acH
  001c4	6a 03		 push	 3
  001c6	8b cf		 mov	 ecx, edi
  001c8	e8 00 00 00 00	 call	 ?HasBuff@CMover@@QAEHGG@Z ; CMover::HasBuff
  001cd	85 c0		 test	 eax, eax
  001cf	75 16		 jne	 SHORT $LN47@IsDoUseBuf
  001d1	68 49 4f 00 00	 push	 20297			; 00004f49H
  001d6	6a 03		 push	 3
  001d8	8b cf		 mov	 ecx, edi
  001da	e8 00 00 00 00	 call	 ?HasBuff@CMover@@QAEHGG@Z ; CMover::HasBuff
  001df	85 c0		 test	 eax, eax
  001e1	0f 84 1e ff ff
	ff		 je	 $LN13@IsDoUseBuf
$LN47@IsDoUseBuf:

; 3291 : 	{
; 3292 : 	case 1:
; 3293 : 		((CUser*)this)->AddDefinedText( TID_GAME_LIMITED_USE, "" ); // »çżëÁßŔĚľîĽ­ »çżëÇŇĽö ľřŔ˝

  001e7	be 01 00 00 00	 mov	 esi, 1
$LN48@IsDoUseBuf:
  001ec	68 00 00 00 00	 push	 OFFSET ??_C@_00CNPNBAHC@@
  001f1	68 30 08 00 00	 push	 2096			; 00000830H
  001f6	57		 push	 edi
  001f7	e8 00 00 00 00	 call	 ?AddDefinedText@CUser@@QAAXHPBDZZ ; CUser::AddDefinedText
  001fc	83 c4 0c	 add	 esp, 12			; 0000000cH

; 3304 : 		break;	
; 3305 : #endif // __CSC_VER8_5
; 3306 : 	}
; 3307 : 	return nResult;

  001ff	8b c6		 mov	 eax, esi
  00201	5f		 pop	 edi
  00202	5e		 pop	 esi
  00203	5b		 pop	 ebx

; 3308 : }

  00204	8b e5		 mov	 esp, ebp
  00206	5d		 pop	 ebp
  00207	c2 04 00	 ret	 4
$LN38@IsDoUseBuf:

; 3262 : 		)
; 3263 : 	{
; 3264 : 		if( HasBuff( BUFF_ITEM2, II_SYS_SYS_SCR_PARTYEXPUP01 )
; 3265 : 			|| HasBuff( BUFF_ITEM2, II_SYS_SYS_SCR_PARTYEXPUP02 )
; 3266 : 			|| HasBuff( BUFF_ITEM2, II_SYS_SYS_SCR_PARTYEXPUP01_01 )

  0020a	68 a9 67 00 00	 push	 26537			; 000067a9H
  0020f	6a 03		 push	 3
  00211	8b cf		 mov	 ecx, edi
  00213	e8 00 00 00 00	 call	 ?HasBuff@CMover@@QAEHGG@Z ; CMover::HasBuff
  00218	85 c0		 test	 eax, eax
  0021a	75 28		 jne	 SHORT $LN40@IsDoUseBuf
  0021c	68 aa 67 00 00	 push	 26538			; 000067aaH
  00221	6a 03		 push	 3
  00223	8b cf		 mov	 ecx, edi
  00225	e8 00 00 00 00	 call	 ?HasBuff@CMover@@QAEHGG@Z ; CMover::HasBuff
  0022a	85 c0		 test	 eax, eax
  0022c	75 16		 jne	 SHORT $LN40@IsDoUseBuf
  0022e	68 48 4f 00 00	 push	 20296			; 00004f48H
$LN105@IsDoUseBuf:

; 3285 : 			)
; 3286 : 			nResult = 1;
; 3287 : 	}
; 3288 : #endif // //12Â÷ ±Ř´ÜŔŻ·áľĆŔĚĹŰ
; 3289 : 	
; 3290 : 	switch( nResult )

  00233	6a 03		 push	 3
$LN106@IsDoUseBuf:
  00235	8b cf		 mov	 ecx, edi
  00237	e8 00 00 00 00	 call	 ?HasBuff@CMover@@QAEHGG@Z ; CMover::HasBuff
  0023c	85 c0		 test	 eax, eax
  0023e	0f 84 c1 fe ff
	ff		 je	 $LN13@IsDoUseBuf
$LN40@IsDoUseBuf:
  00244	be 01 00 00 00	 mov	 esi, 1
  00249	e9 b7 fe ff ff	 jmp	 $LN13@IsDoUseBuf
$LN33@IsDoUseBuf:

; 3247 : 		)
; 3248 : 	{
; 3249 : 		if( HasBuff( BUFF_ITEM2, II_GEN_TOO_COL_SILVERBATTERY )
; 3250 : 			|| HasBuff( BUFF_ITEM2, II_GEN_TOO_COL_GOLDBATTERY )
; 3251 : 			|| HasBuff( BUFF_ITEM2, II_GEN_TOO_COL_BATTERY001 )

  0024e	68 56 67 00 00	 push	 26454			; 00006756H
  00253	6a 03		 push	 3
  00255	8b cf		 mov	 ecx, edi
  00257	e8 00 00 00 00	 call	 ?HasBuff@CMover@@QAEHGG@Z ; CMover::HasBuff
  0025c	85 c0		 test	 eax, eax
  0025e	75 e4		 jne	 SHORT $LN40@IsDoUseBuf
  00260	68 57 67 00 00	 push	 26455			; 00006757H
  00265	6a 03		 push	 3
  00267	8b cf		 mov	 ecx, edi
  00269	e8 00 00 00 00	 call	 ?HasBuff@CMover@@QAEHGG@Z ; CMover::HasBuff
  0026e	85 c0		 test	 eax, eax
  00270	75 d2		 jne	 SHORT $LN40@IsDoUseBuf
  00272	68 c0 67 00 00	 push	 26560			; 000067c0H

; 3252 : 			)
; 3253 : 			nResult = 1;
; 3254 : 	}

  00277	eb ba		 jmp	 SHORT $LN105@IsDoUseBuf
$LN20@IsDoUseBuf:

; 3194 : 	{
; 3195 : 		if( HasBuff( BUFF_ITEM, II_SYS_SYS_SCR_DEFENSE20 ) || HasBuff( BUFF_ITEM, II_SYS_SYS_SCR_DEFENSE50 ) )

  00279	68 02 66 00 00	 push	 26114			; 00006602H
  0027e	6a 00		 push	 0
  00280	8b cf		 mov	 ecx, edi
  00282	e8 00 00 00 00	 call	 ?HasBuff@CMover@@QAEHGG@Z ; CMover::HasBuff
  00287	85 c0		 test	 eax, eax
  00289	75 b9		 jne	 SHORT $LN40@IsDoUseBuf
  0028b	68 03 66 00 00	 push	 26115			; 00006603H
  00290	50		 push	 eax

; 3196 : 			nResult = 1;
; 3197 : 	}

  00291	eb a2		 jmp	 SHORT $LN106@IsDoUseBuf
$LN9@IsDoUseBuf:

; 3149 : #endif // __BUFF_TOGIFT
; 3150 : 		)
; 3151 : 	{
; 3152 : 		if( HasBuffByIk3( pItemProp->dwItemKind3 ) )

  00293	50		 push	 eax
  00294	e8 00 00 00 00	 call	 ?HasBuffByIk3@CMover@@QAEHK@Z ; CMover::HasBuffByIk3

; 3153 : 			nResult = 1;
; 3154 : 
; 3155 : #if __VER >= 8 //__CSC_VER8_5
; 3156 : #ifdef __PKSERVER_USE_ANGEL
; 3157 : 		if( pItemProp->dwItemKind3 == IK3_ANGEL_BUFF )

  00299	f7 d8		 neg	 eax
  0029b	1b f6		 sbb	 esi, esi
  0029d	f7 de		 neg	 esi
  0029f	83 7b 78 5f	 cmp	 DWORD PTR [ebx+120], 95	; 0000005fH
  002a3	0f 85 5c fe ff
	ff		 jne	 $LN13@IsDoUseBuf

; 3158 : 		{
; 3159 : 			if(g_eLocal.GetState( EVE_PK ))	

  002a9	6a 0b		 push	 11			; 0000000bH
  002ab	b9 00 00 00 00	 mov	 ecx, OFFSET ?g_eLocal@@3VCFlyffEvent@@A ; g_eLocal
  002b0	e8 00 00 00 00	 call	 ?GetState@CFlyffEvent@@QAEEH@Z ; CFlyffEvent::GetState
  002b5	84 c0		 test	 al, al
  002b7	0f 84 83 00 00
	00		 je	 $LN12@IsDoUseBuf

; 3160 : 			{
; 3161 : 				if( 0 >= GetPKValue() )

  002bd	83 bf 54 07 00
	00 00		 cmp	 DWORD PTR [edi+1876], 0
  002c4	b8 02 00 00 00	 mov	 eax, 2

; 3162 : 					nResult = 2;
; 3163 : 				if( GetQuest( QUEST_PKMINUS ) == NULL )

  002c9	68 8c 13 00 00	 push	 5004			; 0000138cH
  002ce	8b cf		 mov	 ecx, edi
  002d0	0f 4e f0	 cmovle	 esi, eax
  002d3	e8 00 00 00 00	 call	 ?GetQuest@CMover@@QAEPAUtagQuest@@H@Z ; CMover::GetQuest
  002d8	85 c0		 test	 eax, eax
  002da	b9 03 00 00 00	 mov	 ecx, 3

; 3164 : 					nResult = 3;
; 3165 : 				if( m_Inventory.GetAtItemId( II_SYS_SYS_QUE_ANGEL_RED100 ) != NULL 
; 3166 : 					|| m_Inventory.GetAtItemId( II_SYS_SYS_QUE_ANGEL_BLUE100 ) != NULL 
; 3167 : 					|| m_Inventory.GetAtItemId( II_SYS_SYS_QUE_ANGEL_GREEN100 ) != NULL 
; 3168 : 					|| m_Inventory.GetAtItemId( II_SYS_SYS_QUE_ANGEL_WHITE100 ) != NULL 

  002df	68 57 75 00 00	 push	 30039			; 00007557H
  002e4	0f 44 f1	 cmove	 esi, ecx
  002e7	8d 8f fc 0a 00
	00		 lea	 ecx, DWORD PTR [edi+2812]
  002ed	e8 00 00 00 00	 call	 ?GetAtItemId@?$CItemContainer@VCItemElem@@@@QAEPAVCItemElem@@K@Z ; CItemContainer<CItemElem>::GetAtItemId
  002f2	85 c0		 test	 eax, eax
  002f4	75 40		 jne	 SHORT $LN17@IsDoUseBuf
  002f6	68 58 75 00 00	 push	 30040			; 00007558H
  002fb	8d 8f fc 0a 00
	00		 lea	 ecx, DWORD PTR [edi+2812]
  00301	e8 00 00 00 00	 call	 ?GetAtItemId@?$CItemContainer@VCItemElem@@@@QAEPAVCItemElem@@K@Z ; CItemContainer<CItemElem>::GetAtItemId
  00306	85 c0		 test	 eax, eax
  00308	75 2c		 jne	 SHORT $LN17@IsDoUseBuf
  0030a	68 59 75 00 00	 push	 30041			; 00007559H
  0030f	8d 8f fc 0a 00
	00		 lea	 ecx, DWORD PTR [edi+2812]
  00315	e8 00 00 00 00	 call	 ?GetAtItemId@?$CItemContainer@VCItemElem@@@@QAEPAVCItemElem@@K@Z ; CItemContainer<CItemElem>::GetAtItemId
  0031a	85 c0		 test	 eax, eax
  0031c	75 18		 jne	 SHORT $LN17@IsDoUseBuf
  0031e	68 5a 75 00 00	 push	 30042			; 0000755aH
  00323	8d 8f fc 0a 00
	00		 lea	 ecx, DWORD PTR [edi+2812]
  00329	e8 00 00 00 00	 call	 ?GetAtItemId@?$CItemContainer@VCItemElem@@@@QAEPAVCItemElem@@K@Z ; CItemContainer<CItemElem>::GetAtItemId
  0032e	85 c0		 test	 eax, eax
  00330	0f 84 cf fd ff
	ff		 je	 $LN13@IsDoUseBuf
$LN17@IsDoUseBuf:

; 3169 : 					)
; 3170 : 					nResult = 4;

  00336	be 04 00 00 00	 mov	 esi, 4

; 3171 : 			}

  0033b	e9 c5 fd ff ff	 jmp	 $LN13@IsDoUseBuf
$LN12@IsDoUseBuf:

; 3172 : 			else
; 3173 : 				nResult = 5;

  00340	be 05 00 00 00	 mov	 esi, 5

; 3304 : 		break;	
; 3305 : #endif // __CSC_VER8_5
; 3306 : 	}
; 3307 : 	return nResult;

  00345	5f		 pop	 edi
  00346	8b c6		 mov	 eax, esi
  00348	5e		 pop	 esi
  00349	5b		 pop	 ebx

; 3308 : }

  0034a	8b e5		 mov	 esp, ebp
  0034c	5d		 pop	 ebp
  0034d	c2 04 00	 ret	 4
$LN49@IsDoUseBuf:

; 3294 : 		break;
; 3295 : #if __VER >= 8 //__CSC_VER8_5
; 3296 : 	case 2:
; 3297 : 		((CUser*)this)->AddDefinedText( TID_GAME_PKVALUE_NOT_ANGEL );

  00350	68 43 0c 00 00	 push	 3139			; 00000c43H

; 3304 : 		break;	
; 3305 : #endif // __CSC_VER8_5
; 3306 : 	}
; 3307 : 	return nResult;

  00355	8b cf		 mov	 ecx, edi
  00357	e8 00 00 00 00	 call	 ?AddDefinedText@CUser@@QAEXH@Z ; CUser::AddDefinedText
  0035c	5f		 pop	 edi
  0035d	8b c6		 mov	 eax, esi
  0035f	5e		 pop	 esi
  00360	5b		 pop	 ebx

; 3308 : }

  00361	8b e5		 mov	 esp, ebp
  00363	5d		 pop	 ebp
  00364	c2 04 00	 ret	 4
$LN50@IsDoUseBuf:

; 3298 : 		break;
; 3299 : 	case 3:
; 3300 : 		((CUser*)this)->AddDefinedText( TID_GAME_NOT_QUEST_ANGEL );

  00367	68 4b 0c 00 00	 push	 3147			; 00000c4bH

; 3304 : 		break;	
; 3305 : #endif // __CSC_VER8_5
; 3306 : 	}
; 3307 : 	return nResult;

  0036c	8b cf		 mov	 ecx, edi
  0036e	e8 00 00 00 00	 call	 ?AddDefinedText@CUser@@QAEXH@Z ; CUser::AddDefinedText
  00373	5f		 pop	 edi
  00374	8b c6		 mov	 eax, esi
  00376	5e		 pop	 esi
  00377	5b		 pop	 ebx

; 3308 : }

  00378	8b e5		 mov	 esp, ebp
  0037a	5d		 pop	 ebp
  0037b	c2 04 00	 ret	 4
$LN51@IsDoUseBuf:

; 3301 : 		break;	
; 3302 : 	case 4:
; 3303 : 		((CUser*)this)->AddDefinedText( TID_GAME_NOT_COMPLETE_ANGEL );

  0037e	68 4c 0c 00 00	 push	 3148			; 00000c4cH

; 3304 : 		break;	
; 3305 : #endif // __CSC_VER8_5
; 3306 : 	}
; 3307 : 	return nResult;

  00383	8b cf		 mov	 ecx, edi
  00385	e8 00 00 00 00	 call	 ?AddDefinedText@CUser@@QAEXH@Z ; CUser::AddDefinedText
$LN5@IsDoUseBuf:
  0038a	5f		 pop	 edi
  0038b	8b c6		 mov	 eax, esi
  0038d	5e		 pop	 esi
  0038e	5b		 pop	 ebx

; 3308 : }

  0038f	8b e5		 mov	 esp, ebp
  00391	5d		 pop	 ebp
  00392	c2 04 00	 ret	 4
  00395	0f 1f 00	 npad	 3
$LN63@IsDoUseBuf:
  00398	00 00 00 00	 DD	 $LN48@IsDoUseBuf
  0039c	00 00 00 00	 DD	 $LN49@IsDoUseBuf
  003a0	00 00 00 00	 DD	 $LN50@IsDoUseBuf
  003a4	00 00 00 00	 DD	 $LN51@IsDoUseBuf
?IsDoUseBuff@CMover@@QAEHPAUItemProp@@@Z ENDP		; CMover::IsDoUseBuff
_TEXT	ENDS
; Function compile flags: /Ogtp
; File C:\IAGOS\server\v18\Source\Source\_Common\MoverSkill.cpp
;	COMDAT ?DoUseItemSexChange@CMover@@QAEHH@Z
_TEXT	SEGMENT
_nFace$ = 8						; size = 4
?DoUseItemSexChange@CMover@@QAEHH@Z PROC		; CMover::DoUseItemSexChange, COMDAT
; _this$ = ecx

; 3431 : {

  00000	55		 push	 ebp
  00001	8b ec		 mov	 ebp, esp
  00003	56		 push	 esi
  00004	57		 push	 edi
  00005	8b f9		 mov	 edi, ecx

; 3432 : 	// 1.
; 3433 : 	for( DWORD dwParts = 0; dwParts < MAX_HUMAN_PARTS; dwParts++ )

  00007	33 f6		 xor	 esi, esi
  00009	0f 1f 80 00 00
	00 00		 npad	 7
$LL4@DoUseItemS:

; 3434 : 	{
; 3435 : 		if( dwParts == PARTS_HEAD || dwParts == PARTS_HAIR || dwParts == PARTS_LWEAPON
; 3436 : 			|| dwParts == PARTS_RWEAPON || dwParts == PARTS_SHIELD || dwParts == PARTS_RIDE
; 3437 : 			|| ( dwParts >= PARTS_NECKLACE1 && dwParts <= PARTS_BULLET ) )

  00010	85 f6		 test	 esi, esi
  00012	74 37		 je	 SHORT $LN2@DoUseItemS
  00014	83 fe 01	 cmp	 esi, 1
  00017	74 32		 je	 SHORT $LN2@DoUseItemS
  00019	83 fe 09	 cmp	 esi, 9
  0001c	74 2d		 je	 SHORT $LN2@DoUseItemS
  0001e	83 fe 0a	 cmp	 esi, 10			; 0000000aH
  00021	74 28		 je	 SHORT $LN2@DoUseItemS
  00023	83 fe 0b	 cmp	 esi, 11			; 0000000bH
  00026	74 23		 je	 SHORT $LN2@DoUseItemS
  00028	83 fe 0d	 cmp	 esi, 13			; 0000000dH
  0002b	74 1e		 je	 SHORT $LN2@DoUseItemS
  0002d	83 fe 13	 cmp	 esi, 19			; 00000013H
  00030	72 05		 jb	 SHORT $LN5@DoUseItemS
  00032	83 fe 19	 cmp	 esi, 25			; 00000019H
  00035	76 14		 jbe	 SHORT $LN2@DoUseItemS
$LN5@DoUseItemS:

; 3438 : 			continue;
; 3439 : 		
; 3440 : 		CItemElem* pArmor	= m_Inventory.GetEquip( dwParts );

  00037	56		 push	 esi
  00038	8d 8f fc 0a 00
	00		 lea	 ecx, DWORD PTR [edi+2812]
  0003e	e8 00 00 00 00	 call	 ?GetEquip@?$CItemContainer@VCItemElem@@@@QAEPAVCItemElem@@K@Z ; CItemContainer<CItemElem>::GetEquip

; 3441 : 		if( pArmor )

  00043	85 c0		 test	 eax, eax
  00045	0f 85 90 00 00
	00		 jne	 $LN12@DoUseItemS
$LN2@DoUseItemS:

; 3432 : 	// 1.
; 3433 : 	for( DWORD dwParts = 0; dwParts < MAX_HUMAN_PARTS; dwParts++ )

  0004b	46		 inc	 esi
  0004c	83 fe 1f	 cmp	 esi, 31			; 0000001fH
  0004f	72 bf		 jb	 SHORT $LL4@DoUseItemS

; 3445 : 		}
; 3446 : 	}
; 3447 : 
; 3448 : 	// 2.
; 3449 : 	DWORD dwIndex;
; 3450 : 	if( GetSex() == SEX_MALE )

  00051	8a 8f 18 06 00
	00		 mov	 cl, BYTE PTR [edi+1560]

; 3451 : 	{
; 3452 : 		dwIndex		= MI_FEMALE;
; 3453 : 		SetSex( SEX_FEMALE );
; 3454 : 	}
; 3455 : 	else
; 3456 : 	{
; 3457 : 		dwIndex	= MI_MALE;
; 3458 : 		SetSex( SEX_MALE );
; 3459 : 	}
; 3460 : 
; 3461 : 	SetTypeIndex( D3DDEVICE, OT_MOVER, dwIndex );

  00057	84 c9		 test	 cl, cl
  00059	6a 00		 push	 0
  0005b	0f 94 c0	 sete	 al
  0005e	88 87 18 06 00
	00		 mov	 BYTE PTR [edi+1560], al
  00064	33 c0		 xor	 eax, eax
  00066	84 c9		 test	 cl, cl
  00068	8b cf		 mov	 ecx, edi
  0006a	0f 94 c0	 sete	 al
  0006d	83 c0 0b	 add	 eax, 11			; 0000000bH
  00070	50		 push	 eax
  00071	6a 05		 push	 5
  00073	6a 00		 push	 0
  00075	e8 00 00 00 00	 call	 ?SetTypeIndex@CObj@@QAEHPAUIDirect3DDevice9@@KKH@Z ; CObj::SetTypeIndex

; 3462 : 	ResetScale();

  0007a	8b cf		 mov	 ecx, edi
  0007c	e8 00 00 00 00	 call	 ?ResetScale@CObj@@QAEXXZ ; CObj::ResetScale

; 3463 : 	SetMotion( MTI_WALK );

  00081	8b 07		 mov	 eax, DWORD PTR [edi]
  00083	8b cf		 mov	 ecx, edi
  00085	6a 00		 push	 0
  00087	6a 04		 push	 4
  00089	6a 03		 push	 3
  0008b	ff 50 04	 call	 DWORD PTR [eax+4]

; 3464 : 	//RedoEquip( FALSE );		// chipi_091125 Á¦°Ĺ
; 3465 : 	RedoEquip( FALSE, FALSE );	// chipi_091125 Ăß°ˇ - ľÇĽĽ»ç¸®, ą«±â µîŔÇ ľĆŔĚĹŰŔş Âřżë »óĹÂ·Î Ć®·ŁÁö°ˇ °ˇ´ÉÇŃµĄ ´É·ÂÄˇ¸¦ ´Ů˝Ă(Áßşą) Ŕűżë˝ĂĹ°´Â ą®Á¦°ˇ ŔÖľú´Ů.

  0008e	6a 00		 push	 0
  00090	6a 00		 push	 0
  00092	8b cf		 mov	 ecx, edi
  00094	e8 00 00 00 00	 call	 ?RedoEquip@CMover@@QAEXHH@Z ; CMover::RedoEquip

; 3466 : 	UpdateLocalMatrix();

  00099	8b cf		 mov	 ecx, edi
  0009b	e8 00 00 00 00	 call	 ?UpdateLocalMatrix@CObj@@QAEXXZ ; CObj::UpdateLocalMatrix

; 3467 : 
; 3468 : 	// 3.
; 3469 : 	g_UserMng.AddSexChange( this );

  000a0	57		 push	 edi
  000a1	b9 00 00 00 00	 mov	 ecx, OFFSET ?g_UserMng@@3VCUserMng@@A ; g_UserMng
  000a6	e8 00 00 00 00	 call	 ?AddSexChange@CUserMng@@QAEXPAVCMover@@@Z ; CUserMng::AddSexChange

; 3470 : 
; 3471 : 	// 4.
; 3472 : 	m_dwHeadMesh	= (DWORD)nFace;

  000ab	8b 45 08	 mov	 eax, DWORD PTR _nFace$[ebp]

; 3473 : 	g_UserMng.AddChangeFace( m_idPlayer, (DWORD)nFace );

  000ae	b9 00 00 00 00	 mov	 ecx, OFFSET ?g_UserMng@@3VCUserMng@@A ; g_UserMng
  000b3	50		 push	 eax
  000b4	ff b7 34 02 00
	00		 push	 DWORD PTR [edi+564]
  000ba	89 87 2c 06 00
	00		 mov	 DWORD PTR [edi+1580], eax
  000c0	e8 00 00 00 00	 call	 ?AddChangeFace@CUserMng@@QAEXKK@Z ; CUserMng::AddChangeFace

; 3474 : 
; 3475 : #if __VER >= 11 // __SYS_PLAYER_DATA
; 3476 : 	g_dpDBClient.SendUpdatePlayerData( static_cast<CUser*>(this) );

  000c5	57		 push	 edi
  000c6	b9 00 00 00 00	 mov	 ecx, OFFSET ?g_dpDBClient@@3VCDPDatabaseClient@@A ; g_dpDBClient
  000cb	e8 00 00 00 00	 call	 ?SendUpdatePlayerData@CDPDatabaseClient@@QAEXPAVCUser@@@Z ; CDPDatabaseClient::SendUpdatePlayerData
  000d0	5f		 pop	 edi

; 3477 : #endif // __SYS_PLAYER_DATA
; 3478 : 
; 3479 : 	return TRUE;

  000d1	b8 01 00 00 00	 mov	 eax, 1

; 3480 : }

  000d6	5e		 pop	 esi
  000d7	5d		 pop	 ebp
  000d8	c2 04 00	 ret	 4
$LN12@DoUseItemS:

; 3442 : 		{
; 3443 : 			((CUser*)this)->AddDefinedText( TID_GAME_CHECK_EQUIP, "" );

  000db	68 00 00 00 00	 push	 OFFSET ??_C@_00CNPNBAHC@@
  000e0	68 3f 0a 00 00	 push	 2623			; 00000a3fH
  000e5	57		 push	 edi
  000e6	e8 00 00 00 00	 call	 ?AddDefinedText@CUser@@QAAXHPBDZZ ; CUser::AddDefinedText
  000eb	83 c4 0c	 add	 esp, 12			; 0000000cH

; 3444 : 				return FALSE;

  000ee	33 c0		 xor	 eax, eax
  000f0	5f		 pop	 edi

; 3480 : }

  000f1	5e		 pop	 esi
  000f2	5d		 pop	 ebp
  000f3	c2 04 00	 ret	 4
?DoUseItemSexChange@CMover@@QAEHH@Z ENDP		; CMover::DoUseItemSexChange
_TEXT	ENDS
; Function compile flags: /Ogtp
; File C:\IAGOS\server\v18\Source\Source\_Common\MoverSkill.cpp
; File C:\IAGOS\server\v18\Source\Source\_Common\Mover.h
; File C:\IAGOS\server\v18\Source\Source\_Common\MoverSkill.cpp
;	COMDAT ?DoUseSkill@CMover@@QAEHHHKW4SKILLUSETYPE@@H@Z
_TEXT	SEGMENT
_dwSkill$1$ = -4					; size = 4
_nType$ = 8						; size = 4
_pAddSkillProp$ = 8					; size = 4
_nIdx$ = 12						; size = 4
_pSkillProp$ = 12					; size = 4
_idFocusObj$ = 16					; size = 4
_sutType$ = 20						; size = 4
_dwLevel$ = 20						; size = 4
_bControl$ = 24						; size = 4
?DoUseSkill@CMover@@QAEHHHKW4SKILLUSETYPE@@H@Z PROC	; CMover::DoUseSkill, COMDAT
; _this$ = ecx

; 179  : {

  00000	55		 push	 ebp
  00001	8b ec		 mov	 ebp, esp
  00003	51		 push	 ecx
  00004	53		 push	 ebx
  00005	56		 push	 esi
  00006	8b f1		 mov	 esi, ecx
  00008	57		 push	 edi
; File C:\IAGOS\server\v18\Source\Source\_Common\Mover.h

; 1015 : 	BOOL			IsNPC()				{ return !m_bPlayer; }

  00009	83 be 30 02 00
	00 00		 cmp	 DWORD PTR [esi+560], 0
; File C:\IAGOS\server\v18\Source\Source\_Common\MoverSkill.cpp

; 180  : 	if( IsNPC() )	

  00010	74 30		 je	 SHORT $LN18@DoUseSkill

; 181  : 		return FALSE;		// żŁÇÇľľ´Â ŔĚÂĘŔ» Ĺ¸¸é ľČµČ´Ů.
; 182  : 
; 183  : #ifdef __WORLDSERVER
; 184  : 	DWORD dwSkill = 0, dwLevel;
; 185  : #endif	// __WORLDSERVER
; 186  : 	
; 187  : 	if( nIdx >= 0 )

  00012	8b 7d 0c	 mov	 edi, DWORD PTR _nIdx$[ebp]
  00015	33 c9		 xor	 ecx, ecx
  00017	89 4d fc	 mov	 DWORD PTR _dwSkill$1$[ebp], ecx
  0001a	85 ff		 test	 edi, edi
  0001c	78 42		 js	 SHORT $LN22@DoUseSkill

; 188  : 	{
; 189  : 		LPSKILL pSkill = GetSkill( nType, nIdx );

  0001e	57		 push	 edi
  0001f	ff 75 08	 push	 DWORD PTR _nType$[ebp]
  00022	8b ce		 mov	 ecx, esi
  00024	e8 00 00 00 00	 call	 ?GetSkill@CMover@@QAEPAUtagSkill@@HH@Z ; CMover::GetSkill

; 190  : 		if( pSkill == NULL )

  00029	85 c0		 test	 eax, eax
  0002b	75 20		 jne	 SHORT $LN4@DoUseSkill

; 191  : 		{
; 192  : 			Error( "CMover::DoUseSkill : %s´Â nIdxżˇ ˝şĹłŔ» °ˇÁö°í ŔÖÁö ľĘ´Ů. %d", m_szName, nIdx );

  0002d	57		 push	 edi
  0002e	8d 86 ec 14 00
	00		 lea	 eax, DWORD PTR [esi+5356]
  00034	50		 push	 eax
  00035	68 00 00 00 00	 push	 OFFSET ??_C@_0DN@POBPMOID@CMover?3?3DoUseSkill?5?3?5?$CFs?$LE?B?5nIdx?$LP@
  0003a	e8 00 00 00 00	 call	 ?Error@@YAPBDPBDZZ	; Error
  0003f	83 c4 0c	 add	 esp, 12			; 0000000cH
$LN18@DoUseSkill:

; 282  : #else // __VER >= 8 // __S8_PK
; 283  : 	BOOL bSuccess = DoUseSkill( dwSkill, dwLevel, idFocusObj, sutType, nCastingTime );
; 284  : #endif // __VER >= 8 // __S8_PK
; 285  : 	return  bSuccess;
; 286  : }

  00042	5f		 pop	 edi
  00043	5e		 pop	 esi
  00044	33 c0		 xor	 eax, eax
  00046	5b		 pop	 ebx
  00047	8b e5		 mov	 esp, ebp
  00049	5d		 pop	 ebp
  0004a	c2 14 00	 ret	 20			; 00000014H
$LN4@DoUseSkill:

; 193  : 			return FALSE;
; 194  : 		}
; 195  : 		dwSkill	= pSkill->dwSkill;

  0004d	8b 08		 mov	 ecx, DWORD PTR [eax]

; 196  : 	#ifdef __SKILL0517
; 197  : 		dwLevel	= GetSkillLevel( pSkill );
; 198  : 	#else	// __SKILL0517
; 199  : 		dwLevel	= pSkill->dwLevel;

  0004f	8b 58 04	 mov	 ebx, DWORD PTR [eax+4]
  00052	89 4d fc	 mov	 DWORD PTR _dwSkill$1$[ebp], ecx

; 200  : 	#endif	// __SKILL0517
; 201  : 
; 202  : 		if( dwSkill == DWORD(-1) )

  00055	83 f9 ff	 cmp	 ecx, -1
  00058	74 e8		 je	 SHORT $LN18@DoUseSkill

; 203  : 			return FALSE;
; 204  : 
; 205  : 		if( dwLevel <= 0 )

  0005a	85 db		 test	 ebx, ebx
  0005c	74 e4		 je	 SHORT $LN18@DoUseSkill

; 181  : 		return FALSE;		// żŁÇÇľľ´Â ŔĚÂĘŔ» Ĺ¸¸é ľČµČ´Ů.
; 182  : 
; 183  : #ifdef __WORLDSERVER
; 184  : 	DWORD dwSkill = 0, dwLevel;
; 185  : #endif	// __WORLDSERVER
; 186  : 	
; 187  : 	if( nIdx >= 0 )

  0005e	eb 03		 jmp	 SHORT $LN6@DoUseSkill
$LN22@DoUseSkill:
  00060	8b 5d 14	 mov	 ebx, DWORD PTR _dwLevel$[ebp]
$LN6@DoUseSkill:

; 206  : 			return FALSE;
; 207  : /*
; 208  : #ifdef __GUILD_COMBAT_1TO1 // chipi_071227 ŔÓ˝Ă·Î ¸·Ŕ˝
; 209  : 		if( dwSkill == SI_KNT_HERO_DRAWING )
; 210  : 		{
; 211  : 		#ifdef __CLIENT
; 212  : 			if( g_GuildCombat1to1Mng.IsPossibleMover( this ) )
; 213  : 				return FALSE;
; 214  : 		#endif // __CLIENT
; 215  : 		#ifdef __WORLDSERVER
; 216  : 			if( g_GuildCombat1to1Mng.IsPossibleUser( (CUser*)this ) )
; 217  : 			{
; 218  : 				((CUser*)this)->AddDefinedText( TID_GAME_NEVERKILLSTOP );
; 219  : 				return FALSE;
; 220  : 			}
; 221  : 		#endif // __WORLDSERVER
; 222  : 		}
; 223  : #endif // __GUILD_COMBAT_1TO1
; 224  : */
; 225  : 	}
; 226  : 
; 227  : #ifdef __WORLDSERVER
; 228  : 	int nCastingTime = 0;
; 229  : #endif
; 230  : 
; 231  : 	ItemProp *pSkillProp = NULL;
; 232  : 	AddSkillProp *pAddSkillProp = NULL;
; 233  : 	GetSkillProp( &pSkillProp, &pAddSkillProp, dwSkill, dwLevel, "DoUseSkill_P" );

  00063	8b 06		 mov	 eax, DWORD PTR [esi]
  00065	33 ff		 xor	 edi, edi
  00067	68 00 00 00 00	 push	 OFFSET ??_C@_0N@FIJAGOKJ@DoUseSkill_P@
  0006c	53		 push	 ebx
  0006d	51		 push	 ecx
  0006e	8d 4d 08	 lea	 ecx, DWORD PTR _pAddSkillProp$[ebp]
  00071	89 7d 0c	 mov	 DWORD PTR _pSkillProp$[ebp], edi
  00074	51		 push	 ecx
  00075	8d 4d 0c	 lea	 ecx, DWORD PTR _pSkillProp$[ebp]
  00078	89 7d 08	 mov	 DWORD PTR _pAddSkillProp$[ebp], edi
  0007b	51		 push	 ecx
  0007c	8b ce		 mov	 ecx, esi
  0007e	ff 50 30	 call	 DWORD PTR [eax+48]

; 234  : 
; 235  : 	if(pSkillProp == NULL)

  00081	8b 4d 0c	 mov	 ecx, DWORD PTR _pSkillProp$[ebp]
  00084	85 c9		 test	 ecx, ecx
  00086	74 ba		 je	 SHORT $LN18@DoUseSkill

; 236  : 		return FALSE;
; 237  : 
; 238  : 	OBJMSG dwMsg = OBJMSG_NONE;
; 239  : 	int nMotion = (int)pSkillProp->dwUseMotion;
; 240  : 	
; 241  : 	if( pSkillProp->dwSkillType == KT_MAGIC )

  00088	8b 89 e8 01 00
	00		 mov	 ecx, DWORD PTR [ecx+488]
  0008e	8b 45 14	 mov	 eax, DWORD PTR _sutType$[ebp]
  00091	83 f9 01	 cmp	 ecx, 1
  00094	75 5d		 jne	 SHORT $LN8@DoUseSkill

; 242  : 	{
; 243  : 		if( sutType == SUT_QUEUESTART )		// ˝şĹłĹĄ ˝ĂŔŰ ˝şĹł

  00096	83 f8 01	 cmp	 eax, 1
  00099	75 0e		 jne	 SHORT $LN10@DoUseSkill

; 244  : 		{
; 245  : 		#ifdef __WORLDSERVER
; 246  : 			nCastingTime = GetQueueCastingTime();	// ĹĄł»ŔÇ ¸đµç ˝şĹłŔÇ Äł˝şĆĂŔ» ¸ôľĆĽ­ ÇŃ´Ů.

  0009b	8b ce		 mov	 ecx, esi
  0009d	e8 00 00 00 00	 call	 ?GetQueueCastingTime@CMover@@QAEHXZ ; CMover::GetQueueCastingTime
  000a2	8b f8		 mov	 edi, eax

; 247  : 		#endif
; 248  : 			dwMsg = OBJMSG_MAGICCASTING;
; 249  : 		} 

  000a4	8b 45 14	 mov	 eax, DWORD PTR _sutType$[ebp]
  000a7	eb 55		 jmp	 SHORT $LN14@DoUseSkill
$LN10@DoUseSkill:

; 250  : 		else if( sutType == SUT_QUEUEING )	// ˝şĹłĹĄ ÁřÇŕÁß ˝şĹł

  000a9	83 f8 02	 cmp	 eax, 2
  000ac	75 04		 jne	 SHORT $LN12@DoUseSkill

; 251  : 		{
; 252  : 		#ifdef __WORLDSERVER
; 253  : 			nCastingTime = 0;						// Äł˝şĆĂ µżŔŰľřŔĚ ˝ĂŔü.

  000ae	33 ff		 xor	 edi, edi

; 254  : 		#endif
; 255  : 			nMotion += 2;
; 256  : 			dwMsg = OBJMSG_MAGICSKILL;
; 257  : 		} 

  000b0	eb 4c		 jmp	 SHORT $LN14@DoUseSkill
$LN12@DoUseSkill:

; 258  : 		else
; 259  : 		{									// ŔĎąÝŔűŔÎ ¸¶ąý ˝şĹł »çżë
; 260  : 		#ifdef __WORLDSERVER
; 261  : 		
; 262  : 		#if __VER >= 9	// __SKILL_0706
; 263  : 			nCastingTime	= (int)( ( pAddSkillProp->dwCastingTime / 1000.0f ) * SEC1 );	// Äł˝şĆĂ µżŔŰ ŔÖŔ˝.

  000b2	8b 45 08	 mov	 eax, DWORD PTR _pAddSkillProp$[ebp]

; 264  : 		#else	// __SKILL_0706
; 265  : 			nCastingTime = (int)((pAddSkillProp->dwSkillReady / 1000.0f) * SEC1);	// Äł˝şĆĂ µżŔŰ ŔÖŔ˝.
; 266  : 		#endif	// __SKILL_0706
; 267  : 		
; 268  : 			nCastingTime = GetCastingTime( nCastingTime );

  000b5	8b ce		 mov	 ecx, esi
  000b7	8b 40 60	 mov	 eax, DWORD PTR [eax+96]
  000ba	66 0f 6e c0	 movd	 xmm0, eax
  000be	f3 0f e6 c0	 cvtdq2pd xmm0, xmm0
  000c2	c1 e8 1f	 shr	 eax, 31			; 0000001fH
  000c5	f2 0f 58 04 c5
	00 00 00 00	 addsd	 xmm0, QWORD PTR __xmm@41f00000000000000000000000000000[eax*8]
  000ce	66 0f 5a c0	 cvtpd2ps xmm0, xmm0
  000d2	f3 0f 5e 05 00
	00 00 00	 divss	 xmm0, DWORD PTR __real@447a0000
  000da	f3 0f 59 05 00
	00 00 00	 mulss	 xmm0, DWORD PTR __real@41700000
  000e2	f3 0f 2c c0	 cvttss2si eax, xmm0
  000e6	50		 push	 eax
  000e7	e8 00 00 00 00	 call	 ?GetCastingTime@CMover@@QAEHH@Z ; CMover::GetCastingTime
  000ec	8b f8		 mov	 edi, eax

; 269  : 		#endif	// __WORLDSERVER
; 270  : 			dwMsg = OBJMSG_MAGICCASTING;
; 271  : 		}
; 272  : 	}

  000ee	8b 45 14	 mov	 eax, DWORD PTR _sutType$[ebp]
  000f1	eb 0b		 jmp	 SHORT $LN14@DoUseSkill
$LN8@DoUseSkill:

; 273  : 	else if( pSkillProp->dwSkillType == KT_SKILL )

  000f3	83 f9 02	 cmp	 ecx, 2
  000f6	ba 01 00 00 00	 mov	 edx, 1
  000fb	0f 44 fa	 cmove	 edi, edx
$LN14@DoUseSkill:

; 274  : 	{
; 275  : 	#ifdef __WORLDSERVER
; 276  : 		nCastingTime = 1;
; 277  : 	#endif
; 278  : 	}
; 279  : 
; 280  : #if __VER >= 8 // __S8_PK
; 281  : 	BOOL bSuccess = DoUseSkill( dwSkill, dwLevel, idFocusObj, sutType, bControl, nCastingTime );

  000fe	57		 push	 edi
  000ff	ff 75 18	 push	 DWORD PTR _bControl$[ebp]
  00102	8b ce		 mov	 ecx, esi
  00104	50		 push	 eax
  00105	ff 75 10	 push	 DWORD PTR _idFocusObj$[ebp]
  00108	53		 push	 ebx
  00109	ff 75 fc	 push	 DWORD PTR _dwSkill$1$[ebp]
  0010c	e8 00 00 00 00	 call	 ?DoUseSkill@CMover@@QAEHKHKW4SKILLUSETYPE@@HH@Z ; CMover::DoUseSkill
  00111	5f		 pop	 edi

; 282  : #else // __VER >= 8 // __S8_PK
; 283  : 	BOOL bSuccess = DoUseSkill( dwSkill, dwLevel, idFocusObj, sutType, nCastingTime );
; 284  : #endif // __VER >= 8 // __S8_PK
; 285  : 	return  bSuccess;
; 286  : }

  00112	5e		 pop	 esi
  00113	5b		 pop	 ebx
  00114	8b e5		 mov	 esp, ebp
  00116	5d		 pop	 ebp
  00117	c2 14 00	 ret	 20			; 00000014H
?DoUseSkill@CMover@@QAEHHHKW4SKILLUSETYPE@@H@Z ENDP	; CMover::DoUseSkill
_TEXT	ENDS
; Function compile flags: /Ogtp
; File C:\IAGOS\server\v18\Source\Source\_Common\MoverSkill.cpp
; File C:\IAGOS\server\v18\Source\Source\_Common\Mover.h
; File C:\IAGOS\server\v18\Source\Source\_Common\MoverSkill.cpp
; File C:\IAGOS\server\v18\Source\Source\_Common\Project.h
; File C:\IAGOS\server\v18\Source\Source\_Common\MoverSkill.cpp
; File C:\IAGOS\server\v18\Source\Source\_Common\Item.h
; File C:\IAGOS\server\v18\Source\Source\_Common\Project.h
; File C:\IAGOS\server\v18\Source\Source\_Common\data.h
; File C:\IAGOS\server\v18\Source\Source\_Common\MoverSkill.cpp
; File C:\IAGOS\server\v18\Source\Source\_Common\Project.h
; File C:\IAGOS\server\v18\Source\Source\_Common\MoverSkill.cpp
;	COMDAT ?GetQueueCastingTime@CMover@@QAEHXZ
_TEXT	SEGMENT
_this$1$ = -8						; size = 4
_pSkill$1$ = -4						; size = 4
?GetQueueCastingTime@CMover@@QAEHXZ PROC		; CMover::GetQueueCastingTime, COMDAT
; _this$ = ecx

; 101  : {

  00000	55		 push	 ebp
  00001	8b ec		 mov	 ebp, esp
  00003	83 ec 08	 sub	 esp, 8
; File C:\IAGOS\server\v18\Source\Source\_Common\Mover.h

; 1015 : 	BOOL			IsNPC()				{ return !m_bPlayer; }

  00006	83 b9 30 02 00
	00 00		 cmp	 DWORD PTR [ecx+560], 0
; File C:\IAGOS\server\v18\Source\Source\_Common\MoverSkill.cpp

; 101  : {

  0000d	89 4d f8	 mov	 DWORD PTR _this$1$[ebp], ecx

; 102  : 	if( IsNPC() )	

  00010	75 06		 jne	 SHORT $LN5@GetQueueCa

; 103  : 		return 0;

  00012	33 c0		 xor	 eax, eax

; 155  : 
; 156  : 	return nTotalTime;
; 157  : }

  00014	8b e5		 mov	 esp, ebp
  00016	5d		 pop	 ebp
  00017	c3		 ret	 0
$LN5@GetQueueCa:
  00018	53		 push	 ebx
  00019	56		 push	 esi
  0001a	57		 push	 edi

; 104  : 
; 105  : 	CUser *pUser = (CUser *)this;
; 106  : 	int		i;
; 107  : 	SHORTCUT *pSlotQueue = pUser->m_playTaskBar.m_aSlotQueue;
; 108  : 	int		nTotalTime = 0;

  0001b	33 db		 xor	 ebx, ebx
  0001d	8d b1 40 8b 00
	00		 lea	 esi, DWORD PTR [ecx+35648]

; 109  : 
; 110  : 	for( i = 0; i < MAX_SLOT_QUEUE; i ++ )

  00023	33 ff		 xor	 edi, edi
$LL4@GetQueueCa:

; 111  : 	{
; 112  : 		if( pSlotQueue[i].m_dwShortcut )

  00025	83 3e 00	 cmp	 DWORD PTR [esi], 0
  00028	74 5b		 je	 SHORT $LN2@GetQueueCa

; 114  : 			LPSKILL pSkill = GetSkill( 0, pSlotQueue[i].m_dwId );

  0002a	ff 76 04	 push	 DWORD PTR [esi+4]
  0002d	6a 00		 push	 0
  0002f	e8 00 00 00 00	 call	 ?GetSkill@CMover@@QAEPAUtagSkill@@HH@Z ; CMover::GetSkill
; File C:\IAGOS\server\v18\Source\Source\_Common\Project.h

; 1395 : 	VERIFY_RANGE( nIndex, 0, m_aPropSkill.GetSize(), "GetSkillProp range_error", NULL );

  00034	8b 15 64 02 00
	00		 mov	 edx, DWORD PTR ?prj@@3VCProject@@A+612
; File C:\IAGOS\server\v18\Source\Source\_Common\MoverSkill.cpp

; 114  : 			LPSKILL pSkill = GetSkill( 0, pSlotQueue[i].m_dwId );

  0003a	89 45 fc	 mov	 DWORD PTR _pSkill$1$[ebp], eax
; File C:\IAGOS\server\v18\Source\Source\_Common\Item.h

; 314  : 	ItemProp* GetProp()	{ return prj.GetSkillProp( dwSkill ); }

  0003d	8b 08		 mov	 ecx, DWORD PTR [eax]
; File C:\IAGOS\server\v18\Source\Source\_Common\Project.h

; 1395 : 	VERIFY_RANGE( nIndex, 0, m_aPropSkill.GetSize(), "GetSkillProp range_error", NULL );

  0003f	85 c9		 test	 ecx, ecx
  00041	0f 88 a9 00 00
	00		 js	 $LN19@GetQueueCa
  00047	3b ca		 cmp	 ecx, edx
  00049	0f 8d a1 00 00
	00		 jge	 $LN19@GetQueueCa
; File C:\IAGOS\server\v18\Source\Source\_Common\data.h

; 270  : 	if( dwIndex >= (DWORD)m_nMaxIndex )

  0004f	72 04		 jb	 SHORT $LN24@GetQueueCa

; 271  : 		return NULL;

  00051	33 c0		 xor	 eax, eax
  00053	eb 08		 jmp	 SHORT $LN23@GetQueueCa
$LN24@GetQueueCa:

; 272  : 	return (T*) m_apOffset[ dwIndex ];

  00055	a1 54 02 00 00	 mov	 eax, DWORD PTR ?prj@@3VCProject@@A+596
  0005a	8b 04 88	 mov	 eax, DWORD PTR [eax+ecx*4]
$LN23@GetQueueCa:
; File C:\IAGOS\server\v18\Source\Source\_Common\MoverSkill.cpp

; 117  : 			if( !( pSkillProp = pSkill->GetProp() ) )					// JobSkill ¸®˝şĆ®żˇĽ­ ˛¨ł˝ ˝şĹłŔÇ ÇÁ·ÎĆŰĆĽ¸¦ ˛¨łż.

  0005d	85 c0		 test	 eax, eax
  0005f	0f 84 a1 00 00
	00		 je	 $LN27@GetQueueCa

; 121  : 			}
; 122  : 			
; 123  : 			AddSkillProp* pAddSkillProp;
; 124  : 			
; 125  : 		#ifdef __SKILL0517
; 126  : 			if( !( pAddSkillProp	= prj.GetAddSkillProp( pSkillProp->dwSubDefine, GetSkillLevel( pSkill ) ) ) )					// JobSkill ¸®˝şĆ®żˇĽ­ ˛¨ł˝ ˝şĹłŔÇ ÇÁ·ÎĆŰĆĽ¸¦ ˛¨łż.
; 127  : 		#else	// __SKILL0517
; 128  : 			if( !( pAddSkillProp	= prj.GetAddSkillProp( pSkillProp->dwSubDefine, pSkill->dwLevel ) ) )					// JobSkill ¸®˝şĆ®żˇĽ­ ˛¨ł˝ ˝şĹłŔÇ ÇÁ·ÎĆŰĆĽ¸¦ ˛¨łż.

  00065	8b 4d fc	 mov	 ecx, DWORD PTR _pSkill$1$[ebp]
  00068	ff 71 04	 push	 DWORD PTR [ecx+4]
  0006b	b9 00 00 00 00	 mov	 ecx, OFFSET ?prj@@3VCProject@@A ; prj
  00070	ff b0 10 02 00
	00		 push	 DWORD PTR [eax+528]
  00076	e8 00 00 00 00	 call	 ?GetAddSkillProp@CProject@@QAEPAUAddSkillProp@@KK@Z ; CProject::GetAddSkillProp
  0007b	85 c0		 test	 eax, eax
  0007d	74 4d		 je	 SHORT $LN28@GetQueueCa

; 133  : 			}
; 134  : 
; 135  : 		#ifdef _DEBUG
; 136  : 		#if __VER >= 9	// __SKILL_0706
; 137  : 			if( (int)pAddSkillProp->dwCastingTime <= 0 )
; 138  : 				Error( "GetQueueCastingTime : %sŔÇ addProp dwCastingTimeŔĚ %d", pSkillProp->szName, pAddSkillProp->dwCastingTime );
; 139  : 		#else	// __SKILL_0706
; 140  : 			if( (int)pAddSkillProp->dwSkillReady <= 0 )
; 141  : 				Error( "GetQueueCastingTime : %sŔÇ addProp dwSkillReady°ˇ %d", pSkillProp->szName, pAddSkillProp->dwSkillReady );
; 142  : 		#endif	// __SKILL_0706
; 143  : 		#endif
; 144  : #if __VER >= 9	// __SKILL_0706
; 145  : 			nTotalTime += (int)pAddSkillProp->dwCastingTime;

  0007f	03 58 60	 add	 ebx, DWORD PTR [eax+96]
  00082	8b 4d f8	 mov	 ecx, DWORD PTR _this$1$[ebp]
$LN2@GetQueueCa:

; 109  : 
; 110  : 	for( i = 0; i < MAX_SLOT_QUEUE; i ++ )

  00085	47		 inc	 edi
  00086	81 c6 98 00 00
	00		 add	 esi, 152		; 00000098H
  0008c	83 ff 05	 cmp	 edi, 5
  0008f	7c 94		 jl	 SHORT $LL4@GetQueueCa

; 146  : #else	// __SKILL_0706
; 147  : 			nTotalTime += (int)pAddSkillProp->dwSkillReady;
; 148  : #endif	// __SKILL_0706
; 149  : 		}
; 150  : 	}
; 151  : 
; 152  : 	nTotalTime = (int)(nTotalTime * 0.7f);		// 70ÇÁ·Î ŔűżëÇŃČÄ.

  00091	66 0f 6e c3	 movd	 xmm0, ebx
  00095	0f 5b c0	 cvtdq2ps xmm0, xmm0
  00098	f3 0f 59 05 00
	00 00 00	 mulss	 xmm0, DWORD PTR __real@3f333333
  000a0	f3 0f 2c c0	 cvttss2si eax, xmm0
  000a4	66 0f 6e c0	 movd	 xmm0, eax

; 153  : 	nTotalTime = (int)( (nTotalTime / 1000.0f) * SEC1 );	// Äł˝şĆĂ´ÜŔ§ ˝Ă°ŁŔ¸·Î şŻČŻ.

  000a8	0f 5b c0	 cvtdq2ps xmm0, xmm0
  000ab	f3 0f 5e 05 00
	00 00 00	 divss	 xmm0, DWORD PTR __real@447a0000
  000b3	f3 0f 59 05 00
	00 00 00	 mulss	 xmm0, DWORD PTR __real@41700000
  000bb	f3 0f 2c c0	 cvttss2si eax, xmm0

; 154  : 	nTotalTime	= GetCastingTime( nTotalTime );

  000bf	50		 push	 eax
  000c0	e8 00 00 00 00	 call	 ?GetCastingTime@CMover@@QAEHH@Z ; CMover::GetCastingTime
  000c5	5f		 pop	 edi
  000c6	5e		 pop	 esi
  000c7	5b		 pop	 ebx

; 155  : 
; 156  : 	return nTotalTime;
; 157  : }

  000c8	8b e5		 mov	 esp, ebp
  000ca	5d		 pop	 ebp
  000cb	c3		 ret	 0
$LN28@GetQueueCa:

; 129  : 		#endif	// __SKILL0517
; 130  : 			{
; 131  : 				Error( "CMover::GetQueueCastingTime : %s. ľÖµĺ˝şĹł(%d)ŔÇ ÇÁ·ÎĆŰĆĽ°ˇ ľř´Ů.", m_szName, pSkill->dwSkill );

  000cc	8b 45 fc	 mov	 eax, DWORD PTR _pSkill$1$[ebp]
  000cf	ff 30		 push	 DWORD PTR [eax]
  000d1	8b 45 f8	 mov	 eax, DWORD PTR _this$1$[ebp]
  000d4	05 ec 14 00 00	 add	 eax, 5356		; 000014ecH
  000d9	50		 push	 eax
  000da	68 00 00 00 00	 push	 OFFSET ??_C@_0EC@JPIDGHBC@CMover?3?3GetQueueCastingTime?5?3?5?$CF@
  000df	e8 00 00 00 00	 call	 ?Error@@YAPBDPBDZZ	; Error
  000e4	83 c4 0c	 add	 esp, 12			; 0000000cH

; 132  : 				return FALSE;	// property not found

  000e7	33 c0		 xor	 eax, eax
  000e9	5f		 pop	 edi
  000ea	5e		 pop	 esi
  000eb	5b		 pop	 ebx

; 155  : 
; 156  : 	return nTotalTime;
; 157  : }

  000ec	8b e5		 mov	 esp, ebp
  000ee	5d		 pop	 ebp
  000ef	c3		 ret	 0
$LN19@GetQueueCa:
; File C:\IAGOS\server\v18\Source\Source\_Common\Project.h

; 579  : 	LPCTSTR szErr = Error( _T( "%s min:%d, max:%d, index:%d" ), szMsg, nMin, nMax, nIndex ); 

  000f0	51		 push	 ecx
  000f1	52		 push	 edx
  000f2	6a 00		 push	 0
  000f4	68 00 00 00 00	 push	 OFFSET ??_C@_0BJ@GPNGCFMK@GetSkillProp?5range_error@
  000f9	68 00 00 00 00	 push	 OFFSET ??_C@_0BM@HMFGHCP@?$CFs?5min?3?$CFd?0?5max?3?$CFd?0?5index?3?$CFd@
  000fe	e8 00 00 00 00	 call	 ?Error@@YAPBDPBDZZ	; Error
  00103	83 c4 14	 add	 esp, 20			; 00000014H
$LN27@GetQueueCa:
; File C:\IAGOS\server\v18\Source\Source\_Common\MoverSkill.cpp

; 119  : 				Error( "CMover::GetQueueCastingTime : %s. ˝şĹł(%d)ŔÇ ÇÁ·ÎĆŰĆĽ°ˇ ľř´Ů.", m_szName, pSkill->dwSkill );

  00106	8b 45 fc	 mov	 eax, DWORD PTR _pSkill$1$[ebp]
  00109	ff 30		 push	 DWORD PTR [eax]
  0010b	8b 45 f8	 mov	 eax, DWORD PTR _this$1$[ebp]
  0010e	05 ec 14 00 00	 add	 eax, 5356		; 000014ecH
  00113	50		 push	 eax
  00114	68 00 00 00 00	 push	 OFFSET ??_C@_0DO@PAGMBNAO@CMover?3?3GetQueueCastingTime?5?3?5?$CF@
  00119	e8 00 00 00 00	 call	 ?Error@@YAPBDPBDZZ	; Error
  0011e	83 c4 0c	 add	 esp, 12			; 0000000cH

; 120  : 				return FALSE;	// property not found

  00121	33 c0		 xor	 eax, eax
  00123	5f		 pop	 edi
  00124	5e		 pop	 esi
  00125	5b		 pop	 ebx

; 155  : 
; 156  : 	return nTotalTime;
; 157  : }

  00126	8b e5		 mov	 esp, ebp
  00128	5d		 pop	 ebp
  00129	c3		 ret	 0
?GetQueueCastingTime@CMover@@QAEHXZ ENDP		; CMover::GetQueueCastingTime
_TEXT	ENDS
; Function compile flags: /Ogtp
; File C:\IAGOS\server\v18\Source\Source\_Common\MoverSkill.cpp
; File C:\IAGOS\server\v18\Source\Source\_Common\Project.h
; File C:\IAGOS\server\v18\Source\Source\_Common\data.h
; File C:\IAGOS\server\v18\Source\Source\_Common\MoverSkill.cpp
; File C:\IAGOS\server\v18\Source\Source\_Common\Project.h
; File C:\IAGOS\server\v18\Source\Source\_Common\MoverSkill.cpp
; File C:\IAGOS\server\v18\Source\Source\_Common\Obj.h
; File C:\IAGOS\server\v18\Source\Source\_Common\MoverSkill.cpp
; File C:\IAGOS\server\v18\Source\Source\_Common\Obj.h
; File C:\IAGOS\server\v18\Source\Source\_Common\MoverSkill.cpp
; File C:\IAGOS\server\v18\Source\Source\_Common\Obj.h
; File C:\IAGOS\server\v18\Source\Source\_Common\MoverSkill.cpp
; File C:\IAGOS\server\v18\Source\Source\_Common\Obj.h
; File C:\IAGOS\server\v18\Source\Source\_Common\MoverSkill.cpp
; File C:\IAGOS\server\v18\Source\Source\_Common\Obj.h
; File C:\IAGOS\server\v18\Source\Source\_Common\MoverSkill.cpp
;	COMDAT ?SetMasterSkillPointUp@CMover@@QAEXXZ
_TEXT	SEGMENT
$T1 = -36						; size = 12
$T2 = -24						; size = 12
$T3 = -12						; size = 12
?SetMasterSkillPointUp@CMover@@QAEXXZ PROC		; CMover::SetMasterSkillPointUp, COMDAT
; _this$ = ecx

; 65   : {

  00000	55		 push	 ebp
  00001	8b ec		 mov	 ebp, esp
  00003	83 ec 24	 sub	 esp, 36			; 00000024H
  00006	57		 push	 edi
  00007	8b f9		 mov	 edi, ecx

; 66   : 	if( m_nLevel != 72 && m_nLevel != 84 && m_nLevel != 96 && m_nLevel != 108 )

  00009	8b 87 d8 05 00
	00		 mov	 eax, DWORD PTR [edi+1496]
  0000f	83 f8 48	 cmp	 eax, 72			; 00000048H
  00012	74 13		 je	 SHORT $LN5@SetMasterS
  00014	83 f8 54	 cmp	 eax, 84			; 00000054H
  00017	74 0e		 je	 SHORT $LN5@SetMasterS
  00019	83 f8 60	 cmp	 eax, 96			; 00000060H
  0001c	74 09		 je	 SHORT $LN5@SetMasterS
  0001e	83 f8 6c	 cmp	 eax, 108		; 0000006cH
  00021	0f 85 05 01 00
	00		 jne	 $LN1@SetMasterS
$LN5@SetMasterS:

; 67   : 		return;
; 68   : 	if( IsHero() )

  00027	e8 00 00 00 00	 call	 ?IsHero@CMover@@QAEHXZ	; CMover::IsHero
  0002c	85 c0		 test	 eax, eax
  0002e	0f 85 f8 00 00
	00		 jne	 $LN1@SetMasterS

; 69   : 		return;
; 70   : #ifdef __3RD_LEGEND16
; 71   : 	if( IsLegendHero() )

  00034	8b cf		 mov	 ecx, edi
  00036	e8 00 00 00 00	 call	 ?IsLegendHero@CMover@@QAEHXZ ; CMover::IsLegendHero
  0003b	85 c0		 test	 eax, eax
  0003d	0f 85 e9 00 00
	00		 jne	 $LN1@SetMasterS

; 74   : 	for( int i = 0; i < MAX_SKILL_JOB; i++ ) 

  00043	8b 15 64 02 00
	00		 mov	 edx, DWORD PTR ?prj@@3VCProject@@A+612
  00049	53		 push	 ebx
  0004a	56		 push	 esi
  0004b	8d b7 64 03 00
	00		 lea	 esi, DWORD PTR [edi+868]
  00051	8d 58 33	 lea	 ebx, DWORD PTR [eax+51]
$LL4@SetMasterS:

; 75   : 	{				
; 76   : 		LPSKILL lpSkill = &(m_aJobSkill[i]);
; 77   : 		if( lpSkill && lpSkill->dwSkill != NULL_ID )

  00054	85 f6		 test	 esi, esi
  00056	74 58		 je	 SHORT $LN2@SetMasterS
  00058	8b 0e		 mov	 ecx, DWORD PTR [esi]
  0005a	83 f9 ff	 cmp	 ecx, -1
  0005d	74 51		 je	 SHORT $LN2@SetMasterS
; File C:\IAGOS\server\v18\Source\Source\_Common\Project.h

; 1395 : 	VERIFY_RANGE( nIndex, 0, m_aPropSkill.GetSize(), "GetSkillProp range_error", NULL );

  0005f	85 c9		 test	 ecx, ecx
  00061	78 31		 js	 SHORT $LN17@SetMasterS
  00063	3b ca		 cmp	 ecx, edx
  00065	7d 2d		 jge	 SHORT $LN17@SetMasterS
; File C:\IAGOS\server\v18\Source\Source\_Common\data.h

; 270  : 	if( dwIndex >= (DWORD)m_nMaxIndex )

  00067	72 04		 jb	 SHORT $LN22@SetMasterS

; 271  : 		return NULL;

  00069	33 c0		 xor	 eax, eax
  0006b	eb 08		 jmp	 SHORT $LN21@SetMasterS
$LN22@SetMasterS:

; 272  : 	return (T*) m_apOffset[ dwIndex ];

  0006d	a1 54 02 00 00	 mov	 eax, DWORD PTR ?prj@@3VCProject@@A+596
  00072	8b 04 88	 mov	 eax, DWORD PTR [eax+ecx*4]
$LN21@SetMasterS:
; File C:\IAGOS\server\v18\Source\Source\_Common\MoverSkill.cpp

; 80   : 			if( pSkillProp == NULL )

  00075	85 c0		 test	 eax, eax
  00077	74 37		 je	 SHORT $LN2@SetMasterS

; 81   : 				continue;
; 82   : 			if( pSkillProp->dwItemKind1 != JTYPE_MASTER)

  00079	83 78 70 05	 cmp	 DWORD PTR [eax+112], 5
  0007d	75 31		 jne	 SHORT $LN2@SetMasterS

; 83   : 				continue;
; 84   : 			lpSkill->dwLevel++;

  0007f	ff 46 04	 inc	 DWORD PTR [esi+4]

; 85   : 			g_dpDBClient.SendLogSkillPoint( LOG_SKILLPOINT_USE, 1, this, &(m_aJobSkill[i]) );

  00082	b9 00 00 00 00	 mov	 ecx, OFFSET ?g_dpDBClient@@3VCDPDatabaseClient@@A ; g_dpDBClient
  00087	56		 push	 esi
  00088	57		 push	 edi
  00089	6a 01		 push	 1
  0008b	6a 10		 push	 16			; 00000010H
  0008d	e8 00 00 00 00	 call	 ?SendLogSkillPoint@CDPDatabaseClient@@QAEXHHPAVCMover@@PAUtagSkill@@@Z ; CDPDatabaseClient::SendLogSkillPoint
  00092	eb 16		 jmp	 SHORT $LN47@SetMasterS
$LN17@SetMasterS:
; File C:\IAGOS\server\v18\Source\Source\_Common\Project.h

; 579  : 	LPCTSTR szErr = Error( _T( "%s min:%d, max:%d, index:%d" ), szMsg, nMin, nMax, nIndex ); 

  00094	51		 push	 ecx
  00095	52		 push	 edx
  00096	6a 00		 push	 0
  00098	68 00 00 00 00	 push	 OFFSET ??_C@_0BJ@GPNGCFMK@GetSkillProp?5range_error@
  0009d	68 00 00 00 00	 push	 OFFSET ??_C@_0BM@HMFGHCP@?$CFs?5min?3?$CFd?0?5max?3?$CFd?0?5index?3?$CFd@
  000a2	e8 00 00 00 00	 call	 ?Error@@YAPBDPBDZZ	; Error
  000a7	83 c4 14	 add	 esp, 20			; 00000014H
$LN47@SetMasterS:
; File C:\IAGOS\server\v18\Source\Source\_Common\MoverSkill.cpp

; 74   : 	for( int i = 0; i < MAX_SKILL_JOB; i++ ) 

  000aa	8b 15 64 02 00
	00		 mov	 edx, DWORD PTR ?prj@@3VCProject@@A+612
$LN2@SetMasterS:
  000b0	83 c6 08	 add	 esi, 8
  000b3	83 eb 01	 sub	 ebx, 1
  000b6	75 9c		 jne	 SHORT $LL4@SetMasterS
; File C:\IAGOS\server\v18\Source\Source\_Common\Obj.h

; 215  : 	D3DXVECTOR3		GetPos()	{ return m_vPos; }

  000b8	f3 0f 7e 87 60
	01 00 00	 movq	 xmm0, QWORD PTR [edi+352]
; File C:\IAGOS\server\v18\Source\Source\_Common\MoverSkill.cpp

; 88   : 	g_UserMng.AddCreateSfxObj(this, XI_SYS_EXCHAN01, GetPos().x, GetPos().y, GetPos().z);

  000c0	b9 00 00 00 00	 mov	 ecx, OFFSET ?g_UserMng@@3VCUserMng@@A ; g_UserMng
; File C:\IAGOS\server\v18\Source\Source\_Common\Obj.h

; 215  : 	D3DXVECTOR3		GetPos()	{ return m_vPos; }

  000c5	8b 87 68 01 00
	00		 mov	 eax, DWORD PTR [edi+360]
; File C:\IAGOS\server\v18\Source\Source\_Common\MoverSkill.cpp

; 74   : 	for( int i = 0; i < MAX_SKILL_JOB; i++ ) 

  000cb	5e		 pop	 esi
; File C:\IAGOS\server\v18\Source\Source\_Common\Obj.h

; 215  : 	D3DXVECTOR3		GetPos()	{ return m_vPos; }

  000cc	66 0f d6 45 f4	 movq	 QWORD PTR $T3[ebp], xmm0
  000d1	f3 0f 7e c0	 movq	 xmm0, xmm0
; File C:\IAGOS\server\v18\Source\Source\_Common\MoverSkill.cpp

; 74   : 	for( int i = 0; i < MAX_SKILL_JOB; i++ ) 

  000d5	5b		 pop	 ebx
; File C:\IAGOS\server\v18\Source\Source\_Common\Obj.h

; 215  : 	D3DXVECTOR3		GetPos()	{ return m_vPos; }

  000d6	66 0f d6 45 e8	 movq	 QWORD PTR $T2[ebp], xmm0
  000db	f3 0f 7e 87 60
	01 00 00	 movq	 xmm0, QWORD PTR [edi+352]
; File C:\IAGOS\server\v18\Source\Source\_Common\MoverSkill.cpp

; 88   : 	g_UserMng.AddCreateSfxObj(this, XI_SYS_EXCHAN01, GetPos().x, GetPos().y, GetPos().z);

  000e3	6a 00		 push	 0
  000e5	83 ec 0c	 sub	 esp, 12			; 0000000cH
; File C:\IAGOS\server\v18\Source\Source\_Common\Obj.h

; 215  : 	D3DXVECTOR3		GetPos()	{ return m_vPos; }

  000e8	66 0f d6 45 dc	 movq	 QWORD PTR $T1[ebp], xmm0
  000ed	89 45 fc	 mov	 DWORD PTR $T3[ebp+8], eax
; File C:\IAGOS\server\v18\Source\Source\_Common\MoverSkill.cpp

; 88   : 	g_UserMng.AddCreateSfxObj(this, XI_SYS_EXCHAN01, GetPos().x, GetPos().y, GetPos().z);

  000f0	f3 0f 10 45 fc	 movss	 xmm0, DWORD PTR $T3[ebp+8]
  000f5	f3 0f 11 44 24
	08		 movss	 DWORD PTR [esp+8], xmm0
  000fb	f3 0f 10 45 ec	 movss	 xmm0, DWORD PTR $T2[ebp+4]
  00100	f3 0f 11 44 24
	04		 movss	 DWORD PTR [esp+4], xmm0
  00106	f3 0f 10 45 dc	 movss	 xmm0, DWORD PTR $T1[ebp]
  0010b	f3 0f 11 04 24	 movss	 DWORD PTR [esp], xmm0
  00110	6a 6c		 push	 108			; 0000006cH
  00112	57		 push	 edi
  00113	e8 00 00 00 00	 call	 ?AddCreateSfxObj@CUserMng@@QAEXPAVCCtrl@@KMMMH@Z ; CUserMng::AddCreateSfxObj

; 89   : 
; 90   : 	CUser *pUser = (CUser *)this;
; 91   : 	pUser->AddDoUseSkillPoint( &m_aJobSkill[0], m_nSkillPoint );

  00118	ff b7 b0 10 00
	00		 push	 DWORD PTR [edi+4272]
  0011e	8d 87 64 03 00
	00		 lea	 eax, DWORD PTR [edi+868]
  00124	8b cf		 mov	 ecx, edi
  00126	50		 push	 eax
  00127	e8 00 00 00 00	 call	 ?AddDoUseSkillPoint@CUser@@QAEXQAUtagSkill@@H@Z ; CUser::AddDoUseSkillPoint
$LN1@SetMasterS:
  0012c	5f		 pop	 edi

; 92   : 
; 93   : #ifdef __S_NEW_SKILL_2
; 94   : 	g_dpDBClient.SaveSkill( this );
; 95   : #endif // __S_NEW_SKILL_2
; 96   : }

  0012d	8b e5		 mov	 esp, ebp
  0012f	5d		 pop	 ebp
  00130	c3		 ret	 0
?SetMasterSkillPointUp@CMover@@QAEXXZ ENDP		; CMover::SetMasterSkillPointUp
_TEXT	ENDS
; Function compile flags: /Ogtp
; File C:\IAGOS\server\v18\Source\Source\_Common\MoverSkill.cpp
;	COMDAT ?OnEndMeleeAttack@CMover@@QAEXK@Z
_TEXT	SEGMENT
_dwState$ = 8						; size = 4
?OnEndMeleeAttack@CMover@@QAEXK@Z PROC			; CMover::OnEndMeleeAttack, COMDAT
; _this$ = ecx

; 1204 : #ifdef __WORLDSERVER
; 1205 : 	PostAIMsg( AIMSG_END_MELEEATTACK );

  00000	6a 00		 push	 0
  00002	6a 00		 push	 0
  00004	6a 00		 push	 0
  00006	6a 0f		 push	 15			; 0000000fH
  00008	e8 00 00 00 00	 call	 ?PostAIMsg@CMover@@QAEXKKKK@Z ; CMover::PostAIMsg

; 1206 : #endif // WorldServer
; 1207 : }

  0000d	c2 04 00	 ret	 4
?OnEndMeleeAttack@CMover@@QAEXK@Z ENDP			; CMover::OnEndMeleeAttack
_TEXT	ENDS
; Function compile flags: /Ogtp
; File C:\IAGOS\server\v18\Source\Source\_Common\MoverSkill.cpp
; File C:\IAGOS\server\v18\Source\Source\_Common\Obj.h
; File C:\IAGOS\server\v18\Source\Source\_Common\MoverSkill.cpp
; File C:\IAGOS\server\v18\Source\Source\_Common\Obj.h
; File C:\IAGOS\server\v18\Source\Source\_Common\MoverSkill.cpp
; File C:\IAGOS\server\v18\Source\Source\_Common\Obj.h
; File C:\IAGOS\server\v18\Source\Source\_Common\MoverSkill.cpp
; File C:\IAGOS\server\v18\Source\Source\DX_SDK\d3dx9math.inl
; File C:\IAGOS\server\v18\Source\Source\_Common\MoverSkill.cpp
; File C:\IAGOS\server\v18\Source\Source\DX_SDK\d3dx9math.inl
; File C:\IAGOS\server\v18\Source\Source\_Common\MoverSkill.cpp
; File C:\IAGOS\server\v18\Source\Source\DX_SDK\d3dx9math.inl
; File C:\IAGOS\server\v18\Source\Source\_Common\MoverSkill.cpp
; File C:\IAGOS\server\v18\Source\Source\_Common\Obj.h
; File C:\IAGOS\server\v18\Source\Source\_Common\MoverSkill.cpp
; File C:\IAGOS\server\v18\Source\Source\_Common\Obj.h
; File C:\IAGOS\server\v18\Source\Source\_Common\MoverSkill.cpp
; File C:\IAGOS\server\v18\Source\Source\_Common\Obj.h
; File C:\IAGOS\server\v18\Source\Source\_Common\MoverSkill.cpp
; File C:\IAGOS\server\v18\Source\Source\_Common\Project.h
; File C:\IAGOS\server\v18\Source\Source\_Common\data.h
; File C:\IAGOS\server\v18\Source\Source\_Common\MoverSkill.cpp
; File C:\IAGOS\server\v18\Source\Source\_Common\Project.h
; File C:\IAGOS\server\v18\Source\Source\_Common\MoverSkill.cpp
; File C:\IAGOS\server\v18\Source\Source\_Common\Project.h
; File C:\IAGOS\server\v18\Source\Source\_Common\data.h
; File C:\IAGOS\server\v18\Source\Source\_Common\MoverSkill.cpp
; File C:\IAGOS\server\v18\Source\Source\_Common\Obj.h
; File C:\IAGOS\server\v18\Source\Source\_Common\MoverSkill.cpp
; File C:\IAGOS\server\v18\Source\Source\_Common\Obj.h
; File C:\IAGOS\server\v18\Source\Source\_Common\MoverSkill.cpp
; File C:\IAGOS\server\v18\Source\Source\_Common\Obj.h
; File C:\IAGOS\server\v18\Source\Source\_Common\Mover.h
; File C:\IAGOS\server\v18\Source\Source\_Common\Obj.h
; File C:\IAGOS\server\v18\Source\Source\_Common\MoverSkill.cpp
; File C:\IAGOS\server\v18\Source\Source\_Common\Obj.h
; File C:\IAGOS\server\v18\Source\Source\_Common\MoverSkill.cpp
; File C:\IAGOS\server\v18\Source\Source\DX_SDK\d3dx9math.inl
; File C:\IAGOS\server\v18\Source\Source\_Common\MoverSkill.cpp
; File C:\IAGOS\server\v18\Source\Source\DX_SDK\d3dx9math.inl
; File C:\IAGOS\server\v18\Source\Source\_Common\MoverSkill.cpp
; File C:\IAGOS\server\v18\Source\Source\DX_SDK\d3dx9math.inl
; File C:\IAGOS\server\v18\Source\Source\_Common\MoverSkill.cpp
; File C:\IAGOS\server\v18\Source\Source\DX_SDK\d3dx9math.inl
; File C:\IAGOS\server\v18\Source\Source\_Common\MoverSkill.cpp
; File C:\IAGOS\server\v18\Source\Source\_Common\Obj.h
; File C:\IAGOS\server\v18\Source\Source\_Common\MoverSkill.cpp
; File C:\IAGOS\server\v18\Source\Source\_Common\Obj.h
; File C:\IAGOS\server\v18\Source\Source\_Common\MoverSkill.cpp
; File C:\IAGOS\server\v18\Source\Source\_Common\Obj.h
; File C:\IAGOS\server\v18\Source\Source\_Common\MoverSkill.cpp
; File C:\IAGOS\server\v18\Source\Source\_Common\Mover.h
; File C:\IAGOS\server\v18\Source\Source\_Common\MoverSkill.cpp
; File C:\IAGOS\server\v18\Source\Source\_Common\Obj.h
; File C:\IAGOS\server\v18\Source\Source\_Common\Mover.h
; File C:\IAGOS\server\v18\Source\Source\_Common\Obj.h
; File C:\IAGOS\server\v18\Source\Source\_Common\MoverSkill.cpp
; File C:\IAGOS\server\v18\Source\Source\_Common\Obj.h
; File C:\IAGOS\server\v18\Source\Source\_Common\MoverSkill.cpp
; File C:\IAGOS\server\v18\Source\Source\DX_SDK\d3dx9math.inl
; File C:\IAGOS\server\v18\Source\Source\_Common\MoverSkill.cpp
; File C:\IAGOS\server\v18\Source\Source\DX_SDK\d3dx9math.inl
; File C:\IAGOS\server\v18\Source\Source\_Common\MoverSkill.cpp
; File C:\IAGOS\server\v18\Source\Source\DX_SDK\d3dx9math.inl
; File C:\IAGOS\server\v18\Source\Source\_Common\MoverSkill.cpp
; File C:\IAGOS\server\v18\Source\Source\DX_SDK\d3dx9math.inl
; File C:\IAGOS\server\v18\Source\Source\_Common\MoverSkill.cpp
; File C:\IAGOS\server\v18\Source\Source\_AIInterface\ActionMover.h
; File C:\IAGOS\server\v18\Source\Source\_Common\MoverSkill.cpp
; File C:\IAGOS\server\v18\Source\Source\_Common\Obj.h
; File C:\IAGOS\server\v18\Source\Source\_Common\MoverSkill.cpp
; File C:\IAGOS\server\v18\Source\Source\_Common\Obj.h
; File C:\IAGOS\server\v18\Source\Source\_Common\MoverSkill.cpp
; File C:\IAGOS\server\v18\Source\Source\_Common\Project.h
; File C:\IAGOS\server\v18\Source\Source\_Common\MoverSkill.cpp
;	COMDAT ?SendDamageLine@CMover@@QAEXHHHMMM@Z
_TEXT	SEGMENT
_nAttackID$GSCopy$1$ = -432				; size = 4
tv2016 = -428						; size = 4
tv2030 = -428						; size = 4
_vPos$ = -424						; size = 12
tv2033 = -412						; size = 4
tv2052 = -412						; size = 4
tv2031 = -408						; size = 4
tv2002 = -408						; size = 4
__pObjs$1$ = -404					; size = 4
tv2020 = -404						; size = 4
tv1994 = -400						; size = 4
tv2034 = -400						; size = 4
tv2032 = -396						; size = 4
tv2014 = -396						; size = 4
_pProp$1$ = -392					; size = 4
__nZ$1$ = -388						; size = 4
tv2054 = -388						; size = 4
tv2026 = -388						; size = 4
_this$GSCopy$1$ = -384					; size = 4
__k$1$ = -380						; size = 4
__k$1$ = -380						; size = 4
__nX$1$ = -376						; size = 4
tv1990 = -376						; size = 4
tv2024 = -376						; size = 4
__pObjs$1$ = -372					; size = 4
_nRange$1$ = -372					; size = 4
tv1982 = -368						; size = 4
__nX$1$ = -368						; size = 4
$T1 = -368						; size = 4
__nZ$1$ = -364						; size = 4
__j$1$ = -364						; size = 4
tv2053 = -364						; size = 4
tv2005 = -360						; size = 4
tv2057 = -360						; size = 4
__j$1$ = -360						; size = 4
__i$1$ = -356						; size = 4
__nLinkX$1$ = -356					; size = 4
__nLinkZ$1$ = -352					; size = 4
__nMaxWidth$1$ = -352					; size = 4
__nLinkZ$1$ = -348					; size = 4
__nMaxWidth$1$ = -348					; size = 4
__nLinkX$1$ = -344					; size = 4
__i$1$ = -344						; size = 4
tv2018 = -340						; size = 4
tv1986 = -340						; size = 4
__nUnit$1$ = -340					; size = 4
tv2028 = -336						; size = 4
__nUnit$1$ = -336					; size = 4
$T2 = -336						; size = 4
_m1$ = -332						; size = 64
_m2$ = -268						; size = 64
_m3$ = -204						; size = 64
_mInv$ = -140						; size = 64
_vMax1$ = -76						; size = 12
_vMin1$ = -64						; size = 12
_vDestLocal$ = -52					; size = 12
$T3 = -40						; size = 12
$T4 = -40						; size = 12
$T5 = -40						; size = 12
_vMin2$6 = -28						; size = 12
$T7 = -28						; size = 12
_vMax2$8 = -28						; size = 12
_vMax2$9 = -16						; size = 12
$T10 = -16						; size = 12
_vMin2$11 = -16						; size = 12
__$ArrayPad$ = -4					; size = 4
_nDmgType$ = 8						; size = 4
_nApplyType$ = 12					; size = 4
_nAttackID$ = 16					; size = 4
_fWidth$ = 20						; size = 4
_fHeight$ = 24						; size = 4
_fDepth$ = 28						; size = 4
?SendDamageLine@CMover@@QAEXHHHMMM@Z PROC		; CMover::SendDamageLine, COMDAT
; _this$ = ecx

; 3973 : {

  00000	55		 push	 ebp
  00001	8b ec		 mov	 ebp, esp
  00003	81 ec b0 01 00
	00		 sub	 esp, 432		; 000001b0H
  00009	a1 00 00 00 00	 mov	 eax, DWORD PTR ___security_cookie
  0000e	33 c5		 xor	 eax, ebp
  00010	89 45 fc	 mov	 DWORD PTR __$ArrayPad$[ebp], eax

; 3983 : 	D3DXVECTOR3 vMin1 = D3DXVECTOR3( -fWidth / 2.0f, -fHeight / 2.0f, -fDepth );

  00013	f3 0f 10 5d 14	 movss	 xmm3, DWORD PTR _fWidth$[ebp]
  00018	f3 0f 10 25 00
	00 00 00	 movss	 xmm4, DWORD PTR __xmm@80000000800000008000000080000000
  00020	f3 0f 10 15 00
	00 00 00	 movss	 xmm2, DWORD PTR __real@3f000000
  00028	f3 0f 10 4d 18	 movss	 xmm1, DWORD PTR _fHeight$[ebp]
  0002d	56		 push	 esi
  0002e	57		 push	 edi
  0002f	8b f9		 mov	 edi, ecx
  00031	8b 75 10	 mov	 esi, DWORD PTR _nAttackID$[ebp]

; 3988 : 	D3DXMatrixRotationY( &m1, D3DXToRadian( -GetAngle() ) );

  00034	51		 push	 ecx
  00035	89 bd 80 fe ff
	ff		 mov	 DWORD PTR _this$GSCopy$1$[ebp], edi
  0003b	89 b5 50 fe ff
	ff		 mov	 DWORD PTR _nAttackID$GSCopy$1$[ebp], esi
; File C:\IAGOS\server\v18\Source\Source\_Common\Obj.h

; 215  : 	D3DXVECTOR3		GetPos()	{ return m_vPos; }

  00041	f3 0f 7e 87 60
	01 00 00	 movq	 xmm0, QWORD PTR [edi+352]
  00049	66 0f d6 85 58
	fe ff ff	 movq	 QWORD PTR _vPos$[ebp], xmm0
; File C:\IAGOS\server\v18\Source\Source\_Common\MoverSkill.cpp

; 3983 : 	D3DXVECTOR3 vMin1 = D3DXVECTOR3( -fWidth / 2.0f, -fHeight / 2.0f, -fDepth );

  00051	0f 28 c3	 movaps	 xmm0, xmm3
  00054	0f 57 c4	 xorps	 xmm0, xmm4
; File C:\IAGOS\server\v18\Source\Source\_Common\Obj.h

; 215  : 	D3DXVECTOR3		GetPos()	{ return m_vPos; }

  00057	8b 87 68 01 00
	00		 mov	 eax, DWORD PTR [edi+360]
; File C:\IAGOS\server\v18\Source\Source\_Common\MoverSkill.cpp

; 3983 : 	D3DXVECTOR3 vMin1 = D3DXVECTOR3( -fWidth / 2.0f, -fHeight / 2.0f, -fDepth );

  0005d	f3 0f 59 c2	 mulss	 xmm0, xmm2
; File C:\IAGOS\server\v18\Source\Source\_Common\Obj.h

; 215  : 	D3DXVECTOR3		GetPos()	{ return m_vPos; }

  00061	89 85 60 fe ff
	ff		 mov	 DWORD PTR _vPos$[ebp+8], eax
; File C:\IAGOS\server\v18\Source\Source\_Common\MoverSkill.cpp

; 3988 : 	D3DXMatrixRotationY( &m1, D3DXToRadian( -GetAngle() ) );

  00067	8d 85 b4 fe ff
	ff		 lea	 eax, DWORD PTR _m1$[ebp]
  0006d	f3 0f 59 da	 mulss	 xmm3, xmm2
; File C:\IAGOS\server\v18\Source\Source\DX_SDK\d3dx9math.inl

; 302  :     z = fz;

  00071	c7 45 bc 00 00
	00 00		 mov	 DWORD PTR _vMax1$[ebp+8], 0

; 300  :     x = fx;

  00078	f3 0f 11 45 c0	 movss	 DWORD PTR _vMin1$[ebp], xmm0
; File C:\IAGOS\server\v18\Source\Source\_Common\MoverSkill.cpp

; 3983 : 	D3DXVECTOR3 vMin1 = D3DXVECTOR3( -fWidth / 2.0f, -fHeight / 2.0f, -fDepth );

  0007d	0f 28 c1	 movaps	 xmm0, xmm1
  00080	0f 57 c4	 xorps	 xmm0, xmm4

; 3984 : 	D3DXVECTOR3 vMax1 = D3DXVECTOR3(  fWidth / 2.0f,  fHeight / 2.0f, 0 );

  00083	f3 0f 59 ca	 mulss	 xmm1, xmm2
  00087	f3 0f 59 c2	 mulss	 xmm0, xmm2
; File C:\IAGOS\server\v18\Source\Source\DX_SDK\d3dx9math.inl

; 300  :     x = fx;

  0008b	f3 0f 11 5d b4	 movss	 DWORD PTR _vMax1$[ebp], xmm3

; 301  :     y = fy;

  00090	f3 0f 11 4d b8	 movss	 DWORD PTR _vMax1$[ebp+4], xmm1
  00095	f3 0f 11 45 c4	 movss	 DWORD PTR _vMin1$[ebp+4], xmm0
; File C:\IAGOS\server\v18\Source\Source\_Common\MoverSkill.cpp

; 3983 : 	D3DXVECTOR3 vMin1 = D3DXVECTOR3( -fWidth / 2.0f, -fHeight / 2.0f, -fDepth );

  0009a	f3 0f 10 45 1c	 movss	 xmm0, DWORD PTR _fDepth$[ebp]
  0009f	0f 57 c4	 xorps	 xmm0, xmm4
; File C:\IAGOS\server\v18\Source\Source\DX_SDK\d3dx9math.inl

; 302  :     z = fz;

  000a2	f3 0f 11 45 c8	 movss	 DWORD PTR _vMin1$[ebp+8], xmm0
; File C:\IAGOS\server\v18\Source\Source\_Common\MoverSkill.cpp

; 3988 : 	D3DXMatrixRotationY( &m1, D3DXToRadian( -GetAngle() ) );

  000a7	f3 0f 10 47 18	 movss	 xmm0, DWORD PTR [edi+24]
  000ac	0f 57 c4	 xorps	 xmm0, xmm4
  000af	f3 0f 59 05 00
	00 00 00	 mulss	 xmm0, DWORD PTR __real@3c8efa35
  000b7	f3 0f 11 04 24	 movss	 DWORD PTR [esp], xmm0
  000bc	50		 push	 eax
  000bd	e8 00 00 00 00	 call	 _D3DXMatrixRotationY@8
; File C:\IAGOS\server\v18\Source\Source\_Common\Obj.h

; 215  : 	D3DXVECTOR3		GetPos()	{ return m_vPos; }

  000c2	f3 0f 7e 87 60
	01 00 00	 movq	 xmm0, QWORD PTR [edi+352]
; File C:\IAGOS\server\v18\Source\Source\_Common\MoverSkill.cpp

; 3989 : 	D3DXMatrixTranslation( &m2, GetPos().x, GetPos().y, GetPos().z );

  000ca	83 ec 0c	 sub	 esp, 12			; 0000000cH
; File C:\IAGOS\server\v18\Source\Source\_Common\Obj.h

; 215  : 	D3DXVECTOR3		GetPos()	{ return m_vPos; }

  000cd	8b 87 68 01 00
	00		 mov	 eax, DWORD PTR [edi+360]
  000d3	66 0f d6 45 d8	 movq	 QWORD PTR $T4[ebp], xmm0
  000d8	f3 0f 7e c0	 movq	 xmm0, xmm0
  000dc	66 0f d6 45 f0	 movq	 QWORD PTR $T10[ebp], xmm0
  000e1	f3 0f 7e 87 60
	01 00 00	 movq	 xmm0, QWORD PTR [edi+352]
  000e9	66 0f d6 45 e4	 movq	 QWORD PTR $T7[ebp], xmm0
  000ee	89 45 ec	 mov	 DWORD PTR $T7[ebp+8], eax
; File C:\IAGOS\server\v18\Source\Source\_Common\MoverSkill.cpp

; 3989 : 	D3DXMatrixTranslation( &m2, GetPos().x, GetPos().y, GetPos().z );

  000f1	f3 0f 10 45 ec	 movss	 xmm0, DWORD PTR $T7[ebp+8]
  000f6	f3 0f 11 44 24
	08		 movss	 DWORD PTR [esp+8], xmm0
  000fc	f3 0f 10 45 f4	 movss	 xmm0, DWORD PTR $T10[ebp+4]
  00101	f3 0f 11 44 24
	04		 movss	 DWORD PTR [esp+4], xmm0
  00107	f3 0f 10 45 d8	 movss	 xmm0, DWORD PTR $T4[ebp]
; File C:\IAGOS\server\v18\Source\Source\_Common\Obj.h

; 215  : 	D3DXVECTOR3		GetPos()	{ return m_vPos; }

  0010c	89 45 e0	 mov	 DWORD PTR $T4[ebp+8], eax
  0010f	89 45 f8	 mov	 DWORD PTR $T10[ebp+8], eax
; File C:\IAGOS\server\v18\Source\Source\_Common\MoverSkill.cpp

; 3989 : 	D3DXMatrixTranslation( &m2, GetPos().x, GetPos().y, GetPos().z );

  00112	8d 85 f4 fe ff
	ff		 lea	 eax, DWORD PTR _m2$[ebp]
  00118	f3 0f 11 04 24	 movss	 DWORD PTR [esp], xmm0
  0011d	50		 push	 eax
  0011e	e8 00 00 00 00	 call	 _D3DXMatrixTranslation@16

; 3990 : 	D3DXMatrixMultiply( &m3, &m1, &m2 );	// world = rot * trans

  00123	8d 85 f4 fe ff
	ff		 lea	 eax, DWORD PTR _m2$[ebp]
  00129	50		 push	 eax
  0012a	8d 85 b4 fe ff
	ff		 lea	 eax, DWORD PTR _m1$[ebp]
  00130	50		 push	 eax
  00131	8d 85 34 ff ff
	ff		 lea	 eax, DWORD PTR _m3$[ebp]
  00137	50		 push	 eax
  00138	e8 00 00 00 00	 call	 _D3DXMatrixMultiply@12

; 3991 : 	
; 3992 : 	D3DXMatrixInverse( &mInv, NULL, &m3 );		// °ř°ÝŔÚŔÇ żŞÇŕ·Ä ¸¸µë.

  0013d	8d 85 34 ff ff
	ff		 lea	 eax, DWORD PTR _m3$[ebp]
  00143	50		 push	 eax
  00144	6a 00		 push	 0
  00146	8d 85 74 ff ff
	ff		 lea	 eax, DWORD PTR _mInv$[ebp]
  0014c	50		 push	 eax
  0014d	e8 00 00 00 00	 call	 _D3DXMatrixInverse@12

; 3993 : 
; 3994 : 	// Ĺ¸°ŮŔÇ ÁÂÇĄ¸¦ °ř°ÝŔÚĂř ±âÁŘŔ¸·Î żŞşŻČŻ ÇŃ°Í.
; 3995 : 	D3DXVECTOR3 vDestLocal;
; 3996 : 
; 3997 : 	// ŔĎąÝŔűŔ¸·Î fDepth°ˇ °ˇŔĺ ±ć±â¶§ą®żˇ °Ë»ç żµżŞŔş fDepth·Î Çß´Ů. 
; 3998 : 	if( fDepth <= 4.0f )

  00152	f3 0f 10 05 00
	00 00 00	 movss	 xmm0, DWORD PTR __real@40800000
  0015a	f3 0f 10 4d 1c	 movss	 xmm1, DWORD PTR _fDepth$[ebp]
  0015f	0f 2f c1	 comiss	 xmm0, xmm1
  00162	72 0c		 jb	 SHORT $LN24@SendDamage

; 3999 : 		nRange = 4;

  00164	c7 85 8c fe ff
	ff 04 00 00 00	 mov	 DWORD PTR _nRange$1$[ebp], 4
  0016e	eb 37		 jmp	 SHORT $LN28@SendDamage
$LN24@SendDamage:

; 4000 : 	else if( fDepth <= 8.0f )

  00170	f3 0f 10 05 00
	00 00 00	 movss	 xmm0, DWORD PTR __real@41000000
  00178	0f 2f c1	 comiss	 xmm0, xmm1
  0017b	72 0c		 jb	 SHORT $LN26@SendDamage

; 4001 : 		nRange = 8;

  0017d	c7 85 8c fe ff
	ff 08 00 00 00	 mov	 DWORD PTR _nRange$1$[ebp], 8
  00187	eb 1e		 jmp	 SHORT $LN28@SendDamage
$LN26@SendDamage:

; 4002 : 	else if( fDepth <= 16.0f )

  00189	f3 0f 10 05 00
	00 00 00	 movss	 xmm0, DWORD PTR __real@41800000
  00191	b8 20 00 00 00	 mov	 eax, 32			; 00000020H
  00196	0f 2f c1	 comiss	 xmm0, xmm1
  00199	b9 10 00 00 00	 mov	 ecx, 16			; 00000010H
  0019e	0f 43 c1	 cmovae	 eax, ecx
  001a1	89 85 8c fe ff
	ff		 mov	 DWORD PTR _nRange$1$[ebp], eax
$LN28@SendDamage:

; 4003 : 		nRange = 16;
; 4004 : 	else
; 4005 : 		nRange = 32;
; 4006 : 	
; 4007 : 	if( fDepth <= 0 )	// ąüŔ§°ˇ 0ŔĚ°ĹłŞ Ŕ˝ĽöŔĎĽö´Â ľř´Ů.

  001a7	0f 57 c0	 xorps	 xmm0, xmm0
  001aa	0f 2f c1	 comiss	 xmm0, xmm1
  001ad	72 23		 jb	 SHORT $LN30@SendDamage

; 4008 : 		Error( "CMover::SendDamageLine : D:%s A:%s %d %f", GetName(), nAttackID, fDepth );

  001af	0f 5a c1	 cvtps2pd xmm0, xmm1
  001b2	83 ec 08	 sub	 esp, 8
  001b5	8b cf		 mov	 ecx, edi
  001b7	f2 0f 11 04 24	 movsd	 QWORD PTR [esp], xmm0
  001bc	56		 push	 esi
  001bd	6a 00		 push	 0
  001bf	e8 00 00 00 00	 call	 ?GetName@CMover@@QAEPBDH@Z ; CMover::GetName
  001c4	50		 push	 eax
  001c5	68 00 00 00 00	 push	 OFFSET ??_C@_0CJ@BEJKIDOG@CMover?3?3SendDamageLine?5?3?5D?3?$CFs?5A@
  001ca	e8 00 00 00 00	 call	 ?Error@@YAPBDPBDZZ	; Error
  001cf	83 c4 14	 add	 esp, 20			; 00000014H
$LN30@SendDamage:

; 4009 : 
; 4010 : 	ItemProp* pProp;
; 4011 : 	if( nDmgType == AF_MAGICSKILL )

  001d2	83 7d 08 20	 cmp	 DWORD PTR _nDmgType$[ebp], 32 ; 00000020H
  001d6	75 5f		 jne	 SHORT $LN136@SendDamage
; File C:\IAGOS\server\v18\Source\Source\_Common\Project.h

; 1395 : 	VERIFY_RANGE( nIndex, 0, m_aPropSkill.GetSize(), "GetSkillProp range_error", NULL );

  001d8	a1 64 02 00 00	 mov	 eax, DWORD PTR ?prj@@3VCProject@@A+612
  001dd	85 f6		 test	 esi, esi
  001df	78 2e		 js	 SHORT $LN150@SendDamage
  001e1	3b f0		 cmp	 esi, eax
  001e3	7d 2a		 jge	 SHORT $LN150@SendDamage
; File C:\IAGOS\server\v18\Source\Source\_Common\data.h

; 270  : 	if( dwIndex >= (DWORD)m_nMaxIndex )

  001e5	72 04		 jb	 SHORT $LN155@SendDamage

; 271  : 		return NULL;

  001e7	33 c0		 xor	 eax, eax
  001e9	eb 08		 jmp	 SHORT $LN236@SendDamage
$LN155@SendDamage:

; 272  : 	return (T*) m_apOffset[ dwIndex ];

  001eb	a1 54 02 00 00	 mov	 eax, DWORD PTR ?prj@@3VCProject@@A+596
  001f0	8b 04 b0	 mov	 eax, DWORD PTR [eax+esi*4]
$LN236@SendDamage:
; File C:\IAGOS\server\v18\Source\Source\_Common\MoverSkill.cpp

; 4014 : 		if( pProp == NULL )

  001f3	89 85 78 fe ff
	ff		 mov	 DWORD PTR _pProp$1$[ebp], eax
  001f9	85 c0		 test	 eax, eax
  001fb	75 6b		 jne	 SHORT $LN34@SendDamage

; 4016 : 			Error( "CMover::SendDamageLine : %s. ˝şĹł(%d)ŔÇ ÇÁ·ÎĆŰĆĽ°ˇ ľ÷¤˛´Ů.", m_szName, nAttackID );

  001fd	56		 push	 esi
  001fe	8d 87 ec 14 00
	00		 lea	 eax, DWORD PTR [edi+5356]
  00204	50		 push	 eax
  00205	68 00 00 00 00	 push	 OFFSET ??_C@_0DL@KEBMKGCP@CMover?3?3SendDamageLine?5?3?5?$CFs?4?5?$LN?$LK@

; 4017 : 			return;	// property not found

  0020a	e9 af 08 00 00	 jmp	 $LN237@SendDamage
$LN150@SendDamage:
; File C:\IAGOS\server\v18\Source\Source\_Common\Project.h

; 579  : 	LPCTSTR szErr = Error( _T( "%s min:%d, max:%d, index:%d" ), szMsg, nMin, nMax, nIndex ); 

  0020f	56		 push	 esi
  00210	50		 push	 eax
  00211	6a 00		 push	 0
  00213	68 00 00 00 00	 push	 OFFSET ??_C@_0BJ@GPNGCFMK@GetSkillProp?5range_error@
  00218	68 00 00 00 00	 push	 OFFSET ??_C@_0BM@HMFGHCP@?$CFs?5min?3?$CFd?0?5max?3?$CFd?0?5index?3?$CFd@
  0021d	e8 00 00 00 00	 call	 ?Error@@YAPBDPBDZZ	; Error
  00222	83 c4 14	 add	 esp, 20			; 00000014H
; File C:\IAGOS\server\v18\Source\Source\_Common\MoverSkill.cpp

; 4016 : 			Error( "CMover::SendDamageLine : %s. ˝şĹł(%d)ŔÇ ÇÁ·ÎĆŰĆĽ°ˇ ľ÷¤˛´Ů.", m_szName, nAttackID );

  00225	8d 87 ec 14 00
	00		 lea	 eax, DWORD PTR [edi+5356]
  0022b	56		 push	 esi
  0022c	50		 push	 eax
  0022d	68 00 00 00 00	 push	 OFFSET ??_C@_0DL@KEBMKGCP@CMover?3?3SendDamageLine?5?3?5?$CFs?4?5?$LN?$LK@

; 4017 : 			return;	// property not found

  00232	e9 87 08 00 00	 jmp	 $LN237@SendDamage
$LN136@SendDamage:
; File C:\IAGOS\server\v18\Source\Source\_Common\Project.h

; 1389 : 	VERIFY_RANGE_ASSERT( nIndex, 0, m_aPropItem.GetSize(), "GetItemProp range_error", NULL );

  00237	a1 40 02 00 00	 mov	 eax, DWORD PTR ?prj@@3VCProject@@A+576
  0023c	85 f6		 test	 esi, esi
  0023e	0f 88 57 08 00
	00		 js	 $LN138@SendDamage
  00244	3b f0		 cmp	 esi, eax
  00246	0f 8d 4f 08 00
	00		 jge	 $LN138@SendDamage
; File C:\IAGOS\server\v18\Source\Source\_Common\data.h

; 270  : 	if( dwIndex >= (DWORD)m_nMaxIndex )

  0024c	72 04		 jb	 SHORT $LN143@SendDamage

; 271  : 		return NULL;

  0024e	33 c0		 xor	 eax, eax
  00250	eb 08		 jmp	 SHORT $LN238@SendDamage
$LN143@SendDamage:

; 272  : 	return (T*) m_apOffset[ dwIndex ];

  00252	a1 30 02 00 00	 mov	 eax, DWORD PTR ?prj@@3VCProject@@A+560
  00257	8b 04 b0	 mov	 eax, DWORD PTR [eax+esi*4]
$LN238@SendDamage:
; File C:\IAGOS\server\v18\Source\Source\_Common\MoverSkill.cpp

; 4022 : 		if( pProp == NULL )

  0025a	89 85 78 fe ff
	ff		 mov	 DWORD PTR _pProp$1$[ebp], eax
  00260	85 c0		 test	 eax, eax
  00262	0f 84 49 08 00
	00		 je	 $LN193@SendDamage
$LN34@SendDamage:

; 4025 : 			return;	// property not found
; 4026 : 		}
; 4027 : 	}
; 4028 : 	
; 4029 : 	BOOL	bDamage = FALSE;
; 4030 : 
; 4031 : 	if( nApplyType & OBJTYPE_PLAYER )	// Ŕűżë´ë»óŔĚ ÇĂ·ąŔĚľîŔÎ°ˇ 

  00268	8b 45 0c	 mov	 eax, DWORD PTR _nApplyType$[ebp]
  0026b	f3 0f 10 95 60
	fe ff ff	 movss	 xmm2, DWORD PTR _vPos$[ebp+8]
  00273	f3 0f 10 85 58
	fe ff ff	 movss	 xmm0, DWORD PTR _vPos$[ebp]
  0027b	a8 01		 test	 al, 1
  0027d	0f 84 e4 03 00
	00		 je	 $LN3@SendDamage

; 4033 : 		FOR_LINKMAP( GetWorld(), vPos, pObj, nRange, CObj::linkPlayer, GetLayer() )

  00283	8b 8f 6c 01 00
	00		 mov	 ecx, DWORD PTR [edi+364]
  00289	33 f6		 xor	 esi, esi
  0028b	ff b7 b8 01 00
	00		 push	 DWORD PTR [edi+440]
  00291	89 b5 9c fe ff
	ff		 mov	 DWORD PTR __i$1$[ebp], esi
  00297	6a 02		 push	 2
  00299	66 0f 6e 49 14	 movd	 xmm1, DWORD PTR [ecx+20]
  0029e	83 c1 24	 add	 ecx, 36			; 00000024H
  002a1	0f 5b c9	 cvtdq2ps xmm1, xmm1
  002a4	f3 0f 5e c1	 divss	 xmm0, xmm1
  002a8	f3 0f 2c c0	 cvttss2si eax, xmm0
  002ac	0f 28 c2	 movaps	 xmm0, xmm2
  002af	f3 0f 5e c1	 divss	 xmm0, xmm1
  002b3	89 85 a8 fe ff
	ff		 mov	 DWORD PTR __nLinkX$1$[ebp], eax
  002b9	f3 0f 2c c0	 cvttss2si eax, xmm0
  002bd	89 85 a4 fe ff
	ff		 mov	 DWORD PTR __nLinkZ$1$[ebp], eax
  002c3	e8 00 00 00 00	 call	 ?GetMaxLinkLevel@CLayeredLinkMap@@QAEHKH@Z ; CLayeredLinkMap::GetMaxLinkLevel
  002c8	85 c0		 test	 eax, eax
  002ca	0f 8e 84 03 00
	00		 jle	 $LN197@SendDamage
  002d0	f3 0f 2c 85 58
	fe ff ff	 cvttss2si eax, DWORD PTR _vPos$[ebp]
  002d8	8b 8d a8 fe ff
	ff		 mov	 ecx, DWORD PTR __nLinkX$1$[ebp]
  002de	8b d1		 mov	 edx, ecx
  002e0	89 85 70 fe ff
	ff		 mov	 DWORD PTR tv2034[ebp], eax
  002e6	f3 0f 2c 85 60
	fe ff ff	 cvttss2si eax, DWORD PTR _vPos$[ebp+8]
  002ee	89 85 74 fe ff
	ff		 mov	 DWORD PTR tv2032[ebp], eax
  002f4	8b 85 8c fe ff
	ff		 mov	 eax, DWORD PTR _nRange$1$[ebp]
  002fa	2b d0		 sub	 edx, eax
  002fc	89 95 54 fe ff
	ff		 mov	 DWORD PTR tv2030[ebp], edx
  00302	03 c8		 add	 ecx, eax
  00304	8b 95 a4 fe ff
	ff		 mov	 edx, DWORD PTR __nLinkZ$1$[ebp]
  0030a	89 95 b0 fe ff
	ff		 mov	 DWORD PTR tv2028[ebp], edx
  00310	29 85 b0 fe ff
	ff		 sub	 DWORD PTR tv2028[ebp], eax
  00316	03 c2		 add	 eax, edx
  00318	89 8d 7c fe ff
	ff		 mov	 DWORD PTR tv2026[ebp], ecx
  0031e	89 85 88 fe ff
	ff		 mov	 DWORD PTR tv2024[ebp], eax
  00324	0f 1f 40 00 0f
	1f 84 00 00 00
	00 00		 npad	 12
$LL4@SendDamage:
  00330	ff b7 b8 01 00
	00		 push	 DWORD PTR [edi+440]
; File C:\IAGOS\server\v18\Source\Source\_Common\Obj.h

; 221  : 	CWorld*			GetWorld()	{ return m_pWorld; }

  00336	8b 8f 6c 01 00
	00		 mov	 ecx, DWORD PTR [edi+364]
; File C:\IAGOS\server\v18\Source\Source\_Common\MoverSkill.cpp

; 4033 : 		FOR_LINKMAP( GetWorld(), vPos, pObj, nRange, CObj::linkPlayer, GetLayer() )

  0033c	56		 push	 esi
  0033d	6a 02		 push	 2
  0033f	83 c1 24	 add	 ecx, 36			; 00000024H
  00342	e8 00 00 00 00	 call	 ?GetLinkWidth@CLayeredLinkMap@@QAEHKHH@Z ; CLayeredLinkMap::GetLinkWidth
  00347	ff b7 b8 01 00
	00		 push	 DWORD PTR [edi+440]
  0034d	8b 8f 6c 01 00
	00		 mov	 ecx, DWORD PTR [edi+364]
  00353	8b f0		 mov	 esi, eax
  00355	ff b5 9c fe ff
	ff		 push	 DWORD PTR __i$1$[ebp]
  0035b	83 c1 24	 add	 ecx, 36			; 00000024H
  0035e	6a 02		 push	 2
  00360	e8 00 00 00 00	 call	 ?GetObj@CLayeredLinkMap@@QAEPAPAVCObj@@KKH@Z ; CLayeredLinkMap::GetObj
  00365	8b 8f 6c 01 00
	00		 mov	 ecx, DWORD PTR [edi+364]
  0036b	89 85 6c fe ff
	ff		 mov	 DWORD PTR __pObjs$1$[ebp], eax
  00371	8b 51 08	 mov	 edx, DWORD PTR [ecx+8]
  00374	8b 41 04	 mov	 eax, DWORD PTR [ecx+4]
  00377	8b f8		 mov	 edi, eax
  00379	0f af d6	 imul	 edx, esi
  0037c	c1 e0 07	 shl	 eax, 7
  0037f	0f af fe	 imul	 edi, esi
  00382	8b 71 14	 mov	 esi, DWORD PTR [ecx+20]
  00385	89 95 98 fe ff
	ff		 mov	 DWORD PTR tv2005[ebp], edx
  0038b	99		 cdq
  0038c	f7 ff		 idiv	 edi
  0038e	89 bd a0 fe ff
	ff		 mov	 DWORD PTR __nMaxWidth$1$[ebp], edi
  00394	8b f8		 mov	 edi, eax
  00396	8b c6		 mov	 eax, esi
  00398	0f af c7	 imul	 eax, edi
  0039b	89 bd ac fe ff
	ff		 mov	 DWORD PTR __nUnit$1$[ebp], edi
  003a1	99		 cdq
  003a2	2b c2		 sub	 eax, edx
  003a4	8b c8		 mov	 ecx, eax
  003a6	8b 85 a8 fe ff
	ff		 mov	 eax, DWORD PTR __nLinkX$1$[ebp]
  003ac	99		 cdq
  003ad	f7 ff		 idiv	 edi
  003af	33 c0		 xor	 eax, eax
  003b1	d1 f9		 sar	 ecx, 1
  003b3	2b 95 a8 fe ff
	ff		 sub	 edx, DWORD PTR __nLinkX$1$[ebp]
  003b9	0f af d6	 imul	 edx, esi
  003bc	03 95 70 fe ff
	ff		 add	 edx, DWORD PTR tv2034[ebp]
  003c2	3b d1		 cmp	 edx, ecx
  003c4	0f 9f c0	 setg	 al
  003c7	89 85 90 fe ff
	ff		 mov	 DWORD PTR __nX$1$[ebp], eax
  003cd	8b 85 a4 fe ff
	ff		 mov	 eax, DWORD PTR __nLinkZ$1$[ebp]
  003d3	99		 cdq
  003d4	f7 ff		 idiv	 edi
  003d6	33 c0		 xor	 eax, eax
  003d8	2b 95 a4 fe ff
	ff		 sub	 edx, DWORD PTR __nLinkZ$1$[ebp]
  003de	0f af d6	 imul	 edx, esi
  003e1	03 95 74 fe ff
	ff		 add	 edx, DWORD PTR tv2032[ebp]
  003e7	3b d1		 cmp	 edx, ecx
  003e9	0f 9f c0	 setg	 al
  003ec	33 c9		 xor	 ecx, ecx
  003ee	89 85 94 fe ff
	ff		 mov	 DWORD PTR __nZ$1$[ebp], eax
  003f4	8b 85 54 fe ff
	ff		 mov	 eax, DWORD PTR tv2030[ebp]
  003fa	99		 cdq
  003fb	f7 ff		 idiv	 edi
  003fd	8b b5 94 fe ff
	ff		 mov	 esi, DWORD PTR __nZ$1$[ebp]
  00403	48		 dec	 eax
  00404	03 85 90 fe ff
	ff		 add	 eax, DWORD PTR __nX$1$[ebp]
  0040a	0f 49 c8	 cmovns	 ecx, eax
  0040d	8b 85 b0 fe ff
	ff		 mov	 eax, DWORD PTR tv2028[ebp]
  00413	99		 cdq
  00414	f7 ff		 idiv	 edi
  00416	89 8d 84 fe ff
	ff		 mov	 DWORD PTR __k$1$[ebp], ecx
  0041c	8d 4e ff	 lea	 ecx, DWORD PTR [esi-1]
  0041f	03 c8		 add	 ecx, eax
  00421	8b 85 7c fe ff
	ff		 mov	 eax, DWORD PTR tv2026[ebp]
  00427	99		 cdq
  00428	f7 ff		 idiv	 edi
  0042a	8b 95 a0 fe ff
	ff		 mov	 edx, DWORD PTR __nMaxWidth$1$[ebp]
  00430	03 85 90 fe ff
	ff		 add	 eax, DWORD PTR __nX$1$[ebp]
  00436	3b c2		 cmp	 eax, edx
  00438	8d 7a ff	 lea	 edi, DWORD PTR [edx-1]
  0043b	0f 4c f8	 cmovl	 edi, eax
  0043e	8b 85 88 fe ff
	ff		 mov	 eax, DWORD PTR tv2024[ebp]
  00444	99		 cdq
  00445	f7 bd ac fe ff
	ff		 idiv	 DWORD PTR __nUnit$1$[ebp]
  0044b	89 bd 68 fe ff
	ff		 mov	 DWORD PTR tv2002[ebp], edi
  00451	03 c6		 add	 eax, esi
  00453	8b 95 98 fe ff
	ff		 mov	 edx, DWORD PTR tv2005[ebp]
  00459	3b c2		 cmp	 eax, edx
  0045b	8d 72 ff	 lea	 esi, DWORD PTR [edx-1]
  0045e	0f 4c f0	 cmovl	 esi, eax
  00461	33 d2		 xor	 edx, edx
  00463	85 c9		 test	 ecx, ecx
  00465	89 b5 64 fe ff
	ff		 mov	 DWORD PTR tv2052[ebp], esi
  0046b	0f 49 d1	 cmovns	 edx, ecx
  0046e	89 95 94 fe ff
	ff		 mov	 DWORD PTR __j$1$[ebp], edx
  00474	3b d6		 cmp	 edx, esi
  00476	0f 8f a7 01 00
	00		 jg	 $LN2@SendDamage
; File C:\IAGOS\server\v18\Source\Source\_Common\Obj.h

; 221  : 	CWorld*			GetWorld()	{ return m_pWorld; }

  0047c	8b 8d a0 fe ff
	ff		 mov	 ecx, DWORD PTR __nMaxWidth$1$[ebp]
  00482	8b c2		 mov	 eax, edx
  00484	8b b5 84 fe ff
	ff		 mov	 esi, DWORD PTR __k$1$[ebp]
  0048a	0f af c1	 imul	 eax, ecx
  0048d	03 c6		 add	 eax, esi
  0048f	89 85 90 fe ff
	ff		 mov	 DWORD PTR $T1[ebp], eax
$LL7@SendDamage:
; File C:\IAGOS\server\v18\Source\Source\_Common\MoverSkill.cpp

; 4033 : 		FOR_LINKMAP( GetWorld(), vPos, pObj, nRange, CObj::linkPlayer, GetLayer() )

  00495	3b f7		 cmp	 esi, edi
  00497	0f 8f 6b 01 00
	00		 jg	 $LN5@SendDamage
  0049d	8b 8d 6c fe ff
	ff		 mov	 ecx, DWORD PTR __pObjs$1$[ebp]
  004a3	8b d7		 mov	 edx, edi
  004a5	2b d6		 sub	 edx, esi
  004a7	42		 inc	 edx
  004a8	89 95 98 fe ff
	ff		 mov	 DWORD PTR tv2057[ebp], edx
  004ae	8d 0c 81	 lea	 ecx, DWORD PTR [ecx+eax*4]
  004b1	89 8d ac fe ff
	ff		 mov	 DWORD PTR tv1986[ebp], ecx
$LL10@SendDamage:
  004b7	8b 31		 mov	 esi, DWORD PTR [ecx]
  004b9	bf e8 03 00 00	 mov	 edi, 1000		; 000003e8H
  004be	85 f6		 test	 esi, esi
  004c0	0f 84 0c 01 00
	00		 je	 $LN8@SendDamage
$LL11@SendDamage:
  004c6	8b c7		 mov	 eax, edi
  004c8	4f		 dec	 edi
  004c9	85 c0		 test	 eax, eax
  004cb	0f 84 f5 00 00
	00		 je	 $LN195@SendDamage

; 4034 : 		{
; 4035 : 			if( pObj->GetType() == OT_MOVER )

  004d1	83 be 70 01 00
	00 05		 cmp	 DWORD PTR [esi+368], 5
  004d8	0f 85 da 00 00
	00		 jne	 $LN43@SendDamage

; 4036 : 			{
; 4037 : 				bDamage = TRUE;	
; 4038 : 
; 4039 : 				if( bDamage && pObj != this )		// this´Â °ř°Ý´ë»óżˇĽ­ Á¦żÜ.

  004de	3b b5 80 fe ff
	ff		 cmp	 esi, DWORD PTR _this$GSCopy$1$[ebp]
  004e4	0f 84 ce 00 00
	00		 je	 $LN43@SendDamage
; File C:\IAGOS\server\v18\Source\Source\_Common\Obj.h

; 180  : 	BOOL			IsDelete()	{ return (m_dwFlags & OBJ_FLAG_DELETE);  }

  004ea	f6 46 04 01	 test	 BYTE PTR [esi+4], 1

; 327  : 	return pObj && ( pObj->IsDelete() == FALSE ); 

  004ee	0f 85 c4 00 00
	00		 jne	 $LN43@SendDamage
; File C:\IAGOS\server\v18\Source\Source\_Common\Mover.h

; 1251 : 	BOOL			IsLive() { return m_pActMover->IsDie() == FALSE || m_nHitPoint > 0; }		// && ¸¦  ||·Î ąŮ˛ĺŔ˝.  !=¸¦ >·Î ąŮ˛Ţ

  004f4	8b 86 38 02 00
	00		 mov	 eax, DWORD PTR [esi+568]
  004fa	f7 40 04 00 00
	00 08		 test	 DWORD PTR [eax+4], 134217728 ; 08000000H
  00501	74 0d		 je	 SHORT $LN191@SendDamage
  00503	83 be f8 05 00
	00 00		 cmp	 DWORD PTR [esi+1528], 0
  0050a	0f 8e a8 00 00
	00		 jle	 $LN43@SendDamage
$LN191@SendDamage:
; File C:\IAGOS\server\v18\Source\Source\_Common\Obj.h

; 215  : 	D3DXVECTOR3		GetPos()	{ return m_vPos; }

  00510	8b 86 68 01 00
	00		 mov	 eax, DWORD PTR [esi+360]
  00516	f3 0f 7e 86 60
	01 00 00	 movq	 xmm0, QWORD PTR [esi+352]
  0051e	89 45 e0	 mov	 DWORD PTR $T5[ebp+8], eax
; File C:\IAGOS\server\v18\Source\Source\_Common\MoverSkill.cpp

; 4045 : 						D3DXVec3TransformCoord( &vDestLocal, &pTarget->GetPos(), &mInv );

  00521	8d 85 74 ff ff
	ff		 lea	 eax, DWORD PTR _mInv$[ebp]
  00527	50		 push	 eax
  00528	8d 45 d8	 lea	 eax, DWORD PTR $T5[ebp]
; File C:\IAGOS\server\v18\Source\Source\_Common\Obj.h

; 215  : 	D3DXVECTOR3		GetPos()	{ return m_vPos; }

  0052b	66 0f d6 45 d8	 movq	 QWORD PTR $T5[ebp], xmm0
; File C:\IAGOS\server\v18\Source\Source\_Common\MoverSkill.cpp

; 4045 : 						D3DXVec3TransformCoord( &vDestLocal, &pTarget->GetPos(), &mInv );

  00530	50		 push	 eax
  00531	8d 45 cc	 lea	 eax, DWORD PTR _vDestLocal$[ebp]
  00534	50		 push	 eax
  00535	e8 00 00 00 00	 call	 _D3DXVec3TransformCoord@12

; 4046 : 						// Ĺ¸°ŮĂř AABB
; 4047 : 						D3DXVECTOR3 vMin2 = vDestLocal + pTarget->m_pModel->m_vMin;

  0053a	8b 86 78 01 00
	00		 mov	 eax, DWORD PTR [esi+376]
; File C:\IAGOS\server\v18\Source\Source\DX_SDK\d3dx9math.inl

; 377  :     return D3DXVECTOR3(x + v.x, y + v.y, z + v.z);

  00540	f3 0f 10 6d d0	 movss	 xmm5, DWORD PTR _vDestLocal$[ebp+4]
  00545	f3 0f 10 65 d4	 movss	 xmm4, DWORD PTR _vDestLocal$[ebp+8]
  0054a	0f 28 d5	 movaps	 xmm2, xmm5
  0054d	f3 0f 10 5d cc	 movss	 xmm3, DWORD PTR _vDestLocal$[ebp]
  00552	0f 28 cc	 movaps	 xmm1, xmm4
  00555	f3 0f 58 50 7c	 addss	 xmm2, DWORD PTR [eax+124]
  0055a	f3 0f 58 88 80
	00 00 00	 addss	 xmm1, DWORD PTR [eax+128]
  00562	0f 28 c3	 movaps	 xmm0, xmm3
  00565	f3 0f 58 40 78	 addss	 xmm0, DWORD PTR [eax+120]

; 301  :     y = fy;

  0056a	f3 0f 11 55 e8	 movss	 DWORD PTR _vMin2$6[ebp+4], xmm2

; 302  :     z = fz;

  0056f	f3 0f 11 4d ec	 movss	 DWORD PTR _vMin2$6[ebp+8], xmm1
  00574	f3 0f 11 45 e4	 movss	 DWORD PTR _vMin2$6[ebp], xmm0

; 377  :     return D3DXVECTOR3(x + v.x, y + v.y, z + v.z);

  00579	f3 0f 58 a8 88
	00 00 00	 addss	 xmm5, DWORD PTR [eax+136]
  00581	f3 0f 58 a0 8c
	00 00 00	 addss	 xmm4, DWORD PTR [eax+140]
  00589	f3 0f 58 98 84
	00 00 00	 addss	 xmm3, DWORD PTR [eax+132]
; File C:\IAGOS\server\v18\Source\Source\_Common\MoverSkill.cpp

; 4049 : 						if( ::IsTouchAABB( vMin1, vMax1, vMin2, vMax2 ) )		// AABBĂćµą°Ë»ç.

  00591	8d 45 f0	 lea	 eax, DWORD PTR _vMax2$9[ebp]
  00594	50		 push	 eax
  00595	8d 45 e4	 lea	 eax, DWORD PTR _vMin2$6[ebp]
; File C:\IAGOS\server\v18\Source\Source\DX_SDK\d3dx9math.inl

; 301  :     y = fy;

  00598	f3 0f 11 6d f4	 movss	 DWORD PTR _vMax2$9[ebp+4], xmm5
; File C:\IAGOS\server\v18\Source\Source\_Common\MoverSkill.cpp

; 4049 : 						if( ::IsTouchAABB( vMin1, vMax1, vMin2, vMax2 ) )		// AABBĂćµą°Ë»ç.

  0059d	50		 push	 eax
  0059e	8d 45 b4	 lea	 eax, DWORD PTR _vMax1$[ebp]
; File C:\IAGOS\server\v18\Source\Source\DX_SDK\d3dx9math.inl

; 300  :     x = fx;

  005a1	f3 0f 11 5d f0	 movss	 DWORD PTR _vMax2$9[ebp], xmm3
; File C:\IAGOS\server\v18\Source\Source\_Common\MoverSkill.cpp

; 4049 : 						if( ::IsTouchAABB( vMin1, vMax1, vMin2, vMax2 ) )		// AABBĂćµą°Ë»ç.

  005a6	50		 push	 eax
  005a7	8d 45 c0	 lea	 eax, DWORD PTR _vMin1$[ebp]
; File C:\IAGOS\server\v18\Source\Source\DX_SDK\d3dx9math.inl

; 302  :     z = fz;

  005aa	f3 0f 11 65 f8	 movss	 DWORD PTR _vMax2$9[ebp+8], xmm4
; File C:\IAGOS\server\v18\Source\Source\_Common\MoverSkill.cpp

; 4049 : 						if( ::IsTouchAABB( vMin1, vMax1, vMin2, vMax2 ) )		// AABBĂćµą°Ë»ç.

  005af	50		 push	 eax
  005b0	e8 00 00 00 00	 call	 ?IsTouchAABB@@YAHABUD3DXVECTOR3@@000@Z ; IsTouchAABB
  005b5	83 c4 10	 add	 esp, 16			; 00000010H
$LN43@SendDamage:

; 4050 : 						{
; 4051 : 						//	if( pProp->dwComboStyle == CT_FINISH )
; 4052 : 						//		pTarget->m_pActMover->SendDamageForce( nDmgType, pAttacker->GetId(), (nAttackID << 16) );
; 4053 : 						//	else
; 4054 : 						//		pTarget->m_pActMover->SendDamage( nDmgType, pAttacker->GetId(), (nAttackID << 16) ); 					
; 4055 : 						}
; 4056 : 					}
; 4057 : 				} // bDamage
; 4058 : 			}
; 4059 : 		}
; 4060 : 		END_LINKMAP

  005b8	8b b6 80 01 00
	00		 mov	 esi, DWORD PTR [esi+384]
  005be	85 f6		 test	 esi, esi
  005c0	0f 85 00 ff ff
	ff		 jne	 $LL11@SendDamage
$LN195@SendDamage:
  005c6	8b 8d ac fe ff
	ff		 mov	 ecx, DWORD PTR tv1986[ebp]
  005cc	8b 95 98 fe ff
	ff		 mov	 edx, DWORD PTR tv2057[ebp]
$LN8@SendDamage:

; 4033 : 		FOR_LINKMAP( GetWorld(), vPos, pObj, nRange, CObj::linkPlayer, GetLayer() )

  005d2	83 c1 04	 add	 ecx, 4
  005d5	83 ea 01	 sub	 edx, 1
  005d8	89 8d ac fe ff
	ff		 mov	 DWORD PTR tv1986[ebp], ecx
  005de	89 95 98 fe ff
	ff		 mov	 DWORD PTR tv2057[ebp], edx
  005e4	0f 85 cd fe ff
	ff		 jne	 $LL10@SendDamage
  005ea	8b 95 94 fe ff
	ff		 mov	 edx, DWORD PTR __j$1$[ebp]
  005f0	8b 85 90 fe ff
	ff		 mov	 eax, DWORD PTR $T1[ebp]
  005f6	8b b5 84 fe ff
	ff		 mov	 esi, DWORD PTR __k$1$[ebp]
  005fc	8b bd 68 fe ff
	ff		 mov	 edi, DWORD PTR tv2002[ebp]
  00602	8b 8d a0 fe ff
	ff		 mov	 ecx, DWORD PTR __nMaxWidth$1$[ebp]
$LN5@SendDamage:
  00608	42		 inc	 edx
  00609	03 c1		 add	 eax, ecx
  0060b	89 95 94 fe ff
	ff		 mov	 DWORD PTR __j$1$[ebp], edx
  00611	89 85 90 fe ff
	ff		 mov	 DWORD PTR $T1[ebp], eax
  00617	3b 95 64 fe ff
	ff		 cmp	 edx, DWORD PTR tv2052[ebp]
  0061d	0f 8e 72 fe ff
	ff		 jle	 $LL7@SendDamage
$LN2@SendDamage:
  00623	8b bd 80 fe ff
	ff		 mov	 edi, DWORD PTR _this$GSCopy$1$[ebp]
  00629	8b b5 9c fe ff
	ff		 mov	 esi, DWORD PTR __i$1$[ebp]
  0062f	46		 inc	 esi
  00630	89 b5 9c fe ff
	ff		 mov	 DWORD PTR __i$1$[ebp], esi
  00636	ff b7 b8 01 00
	00		 push	 DWORD PTR [edi+440]
  0063c	8b 8f 6c 01 00
	00		 mov	 ecx, DWORD PTR [edi+364]
  00642	6a 02		 push	 2
  00644	83 c1 24	 add	 ecx, 36			; 00000024H
  00647	e8 00 00 00 00	 call	 ?GetMaxLinkLevel@CLayeredLinkMap@@QAEHKH@Z ; CLayeredLinkMap::GetMaxLinkLevel
  0064c	3b f0		 cmp	 esi, eax
  0064e	0f 8c dc fc ff
	ff		 jl	 $LL4@SendDamage
$LN197@SendDamage:

; 4061 : 	}
; 4062 : 
; 4063 : 	// Ŕűżë´ë»óŔĚ ¸ó˝şĹÍŔÎ°ˇ.
; 4064 : 	if( nApplyType & OBJTYPE_MONSTER )

  00654	8b 45 0c	 mov	 eax, DWORD PTR _nApplyType$[ebp]
  00657	f3 0f 10 85 58
	fe ff ff	 movss	 xmm0, DWORD PTR _vPos$[ebp]
  0065f	f3 0f 10 95 60
	fe ff ff	 movss	 xmm2, DWORD PTR _vPos$[ebp+8]
$LN3@SendDamage:
  00667	a8 02		 test	 al, 2
  00669	0f 84 57 04 00
	00		 je	 $LN14@SendDamage

; 4066 : 		FOR_LINKMAP( GetWorld(), vPos, pObj, nRange, CObj::linkDynamic, GetLayer() )

  0066f	8b 8f 6c 01 00
	00		 mov	 ecx, DWORD PTR [edi+364]
  00675	33 f6		 xor	 esi, esi
  00677	ff b7 b8 01 00
	00		 push	 DWORD PTR [edi+440]
  0067d	89 b5 a8 fe ff
	ff		 mov	 DWORD PTR __i$1$[ebp], esi
  00683	6a 01		 push	 1
  00685	66 0f 6e 49 14	 movd	 xmm1, DWORD PTR [ecx+20]
  0068a	83 c1 24	 add	 ecx, 36			; 00000024H
  0068d	0f 5b c9	 cvtdq2ps xmm1, xmm1
  00690	f3 0f 5e c1	 divss	 xmm0, xmm1
  00694	f3 0f 2c c0	 cvttss2si eax, xmm0
  00698	0f 28 c2	 movaps	 xmm0, xmm2
  0069b	f3 0f 5e c1	 divss	 xmm0, xmm1
  0069f	89 85 9c fe ff
	ff		 mov	 DWORD PTR __nLinkX$1$[ebp], eax
  006a5	f3 0f 2c c0	 cvttss2si eax, xmm0
  006a9	89 85 a0 fe ff
	ff		 mov	 DWORD PTR __nLinkZ$1$[ebp], eax
  006af	e8 00 00 00 00	 call	 ?GetMaxLinkLevel@CLayeredLinkMap@@QAEHKH@Z ; CLayeredLinkMap::GetMaxLinkLevel
  006b4	85 c0		 test	 eax, eax
  006b6	0f 8e 0a 04 00
	00		 jle	 $LN14@SendDamage
  006bc	f3 0f 2c 85 58
	fe ff ff	 cvttss2si eax, DWORD PTR _vPos$[ebp]
  006c4	8b 8d 9c fe ff
	ff		 mov	 ecx, DWORD PTR __nLinkX$1$[ebp]
  006ca	8b d1		 mov	 edx, ecx
  006cc	89 85 64 fe ff
	ff		 mov	 DWORD PTR tv2033[ebp], eax
  006d2	f3 0f 2c 85 60
	fe ff ff	 cvttss2si eax, DWORD PTR _vPos$[ebp+8]
  006da	89 85 68 fe ff
	ff		 mov	 DWORD PTR tv2031[ebp], eax
  006e0	8b 85 8c fe ff
	ff		 mov	 eax, DWORD PTR _nRange$1$[ebp]
  006e6	2b d0		 sub	 edx, eax
  006e8	89 95 6c fe ff
	ff		 mov	 DWORD PTR tv2020[ebp], edx
  006ee	03 c8		 add	 ecx, eax
  006f0	8b 95 a0 fe ff
	ff		 mov	 edx, DWORD PTR __nLinkZ$1$[ebp]
  006f6	89 95 ac fe ff
	ff		 mov	 DWORD PTR tv2018[ebp], edx
  006fc	29 85 ac fe ff
	ff		 sub	 DWORD PTR tv2018[ebp], eax
  00702	03 c2		 add	 eax, edx
  00704	89 8d 54 fe ff
	ff		 mov	 DWORD PTR tv2016[ebp], ecx
  0070a	89 85 74 fe ff
	ff		 mov	 DWORD PTR tv2014[ebp], eax
$LL15@SendDamage:
  00710	ff b7 b8 01 00
	00		 push	 DWORD PTR [edi+440]
; File C:\IAGOS\server\v18\Source\Source\_Common\Obj.h

; 221  : 	CWorld*			GetWorld()	{ return m_pWorld; }

  00716	8b 8f 6c 01 00
	00		 mov	 ecx, DWORD PTR [edi+364]
; File C:\IAGOS\server\v18\Source\Source\_Common\MoverSkill.cpp

; 4066 : 		FOR_LINKMAP( GetWorld(), vPos, pObj, nRange, CObj::linkDynamic, GetLayer() )

  0071c	56		 push	 esi
  0071d	6a 01		 push	 1
  0071f	83 c1 24	 add	 ecx, 36			; 00000024H
  00722	e8 00 00 00 00	 call	 ?GetLinkWidth@CLayeredLinkMap@@QAEHKHH@Z ; CLayeredLinkMap::GetLinkWidth
  00727	ff b7 b8 01 00
	00		 push	 DWORD PTR [edi+440]
; File C:\IAGOS\server\v18\Source\Source\_Common\Obj.h

; 221  : 	CWorld*			GetWorld()	{ return m_pWorld; }

  0072d	8b 8f 6c 01 00
	00		 mov	 ecx, DWORD PTR [edi+364]
; File C:\IAGOS\server\v18\Source\Source\_Common\MoverSkill.cpp

; 4066 : 		FOR_LINKMAP( GetWorld(), vPos, pObj, nRange, CObj::linkDynamic, GetLayer() )

  00733	8b f0		 mov	 esi, eax
  00735	ff b5 a8 fe ff
	ff		 push	 DWORD PTR __i$1$[ebp]
  0073b	83 c1 24	 add	 ecx, 36			; 00000024H
  0073e	6a 01		 push	 1
  00740	e8 00 00 00 00	 call	 ?GetObj@CLayeredLinkMap@@QAEPAPAVCObj@@KKH@Z ; CLayeredLinkMap::GetObj
  00745	8b 8f 6c 01 00
	00		 mov	 ecx, DWORD PTR [edi+364]
  0074b	8b fe		 mov	 edi, esi
  0074d	89 85 8c fe ff
	ff		 mov	 DWORD PTR __pObjs$1$[ebp], eax
  00753	8b 51 08	 mov	 edx, DWORD PTR [ecx+8]
  00756	8b 41 04	 mov	 eax, DWORD PTR [ecx+4]
  00759	0f af f8	 imul	 edi, eax
  0075c	0f af d6	 imul	 edx, esi
  0075f	c1 e0 07	 shl	 eax, 7
  00762	8b 71 14	 mov	 esi, DWORD PTR [ecx+20]
  00765	89 bd a4 fe ff
	ff		 mov	 DWORD PTR __nMaxWidth$1$[ebp], edi
  0076b	89 95 70 fe ff
	ff		 mov	 DWORD PTR tv1994[ebp], edx
  00771	99		 cdq
  00772	f7 ff		 idiv	 edi
  00774	8b f8		 mov	 edi, eax
  00776	0f af c6	 imul	 eax, esi
  00779	89 bd b0 fe ff
	ff		 mov	 DWORD PTR __nUnit$1$[ebp], edi
  0077f	99		 cdq
  00780	2b c2		 sub	 eax, edx
  00782	8b c8		 mov	 ecx, eax
  00784	8b 85 9c fe ff
	ff		 mov	 eax, DWORD PTR __nLinkX$1$[ebp]
  0078a	99		 cdq
  0078b	f7 ff		 idiv	 edi
  0078d	33 c0		 xor	 eax, eax
  0078f	d1 f9		 sar	 ecx, 1
  00791	2b 95 9c fe ff
	ff		 sub	 edx, DWORD PTR __nLinkX$1$[ebp]
  00797	0f af d6	 imul	 edx, esi
  0079a	03 95 64 fe ff
	ff		 add	 edx, DWORD PTR tv2033[ebp]
  007a0	3b d1		 cmp	 edx, ecx
  007a2	0f 9f c0	 setg	 al
  007a5	89 85 88 fe ff
	ff		 mov	 DWORD PTR __nX$1$[ebp], eax
  007ab	8b 85 a0 fe ff
	ff		 mov	 eax, DWORD PTR __nLinkZ$1$[ebp]
  007b1	99		 cdq
  007b2	f7 ff		 idiv	 edi
  007b4	33 c0		 xor	 eax, eax
  007b6	2b 95 a0 fe ff
	ff		 sub	 edx, DWORD PTR __nLinkZ$1$[ebp]
  007bc	0f af d6	 imul	 edx, esi
  007bf	03 95 68 fe ff
	ff		 add	 edx, DWORD PTR tv2031[ebp]
  007c5	3b d1		 cmp	 edx, ecx
  007c7	0f 9f c0	 setg	 al
  007ca	33 c9		 xor	 ecx, ecx
  007cc	89 85 7c fe ff
	ff		 mov	 DWORD PTR __nZ$1$[ebp], eax
  007d2	8b 85 6c fe ff
	ff		 mov	 eax, DWORD PTR tv2020[ebp]
  007d8	99		 cdq
  007d9	f7 ff		 idiv	 edi
  007db	8b b5 7c fe ff
	ff		 mov	 esi, DWORD PTR __nZ$1$[ebp]
  007e1	48		 dec	 eax
  007e2	03 85 88 fe ff
	ff		 add	 eax, DWORD PTR __nX$1$[ebp]
  007e8	0f 49 c8	 cmovns	 ecx, eax
  007eb	8b 85 ac fe ff
	ff		 mov	 eax, DWORD PTR tv2018[ebp]
  007f1	99		 cdq
  007f2	f7 ff		 idiv	 edi
  007f4	89 8d 84 fe ff
	ff		 mov	 DWORD PTR __k$1$[ebp], ecx
  007fa	8d 4e ff	 lea	 ecx, DWORD PTR [esi-1]
  007fd	03 c8		 add	 ecx, eax
  007ff	8b 85 54 fe ff
	ff		 mov	 eax, DWORD PTR tv2016[ebp]
  00805	99		 cdq
  00806	f7 ff		 idiv	 edi
  00808	8b 95 a4 fe ff
	ff		 mov	 edx, DWORD PTR __nMaxWidth$1$[ebp]
  0080e	03 85 88 fe ff
	ff		 add	 eax, DWORD PTR __nX$1$[ebp]
  00814	3b c2		 cmp	 eax, edx
  00816	8d 7a ff	 lea	 edi, DWORD PTR [edx-1]
  00819	0f 4c f8	 cmovl	 edi, eax
  0081c	8b 85 74 fe ff
	ff		 mov	 eax, DWORD PTR tv2014[ebp]
  00822	99		 cdq
  00823	f7 bd b0 fe ff
	ff		 idiv	 DWORD PTR __nUnit$1$[ebp]
  00829	8b 95 70 fe ff
	ff		 mov	 edx, DWORD PTR tv1994[ebp]
  0082f	89 bd 88 fe ff
	ff		 mov	 DWORD PTR tv1990[ebp], edi
  00835	03 c6		 add	 eax, esi
  00837	3b c2		 cmp	 eax, edx
  00839	8d 72 ff	 lea	 esi, DWORD PTR [edx-1]
  0083c	0f 4c f0	 cmovl	 esi, eax
  0083f	33 d2		 xor	 edx, edx
  00841	85 c9		 test	 ecx, ecx
  00843	89 b5 7c fe ff
	ff		 mov	 DWORD PTR tv2054[ebp], esi
  00849	0f 49 d1	 cmovns	 edx, ecx
  0084c	89 95 98 fe ff
	ff		 mov	 DWORD PTR __j$1$[ebp], edx
  00852	3b d6		 cmp	 edx, esi
  00854	0f 8f fe 01 00
	00		 jg	 $LN13@SendDamage
; File C:\IAGOS\server\v18\Source\Source\_Common\Obj.h

; 221  : 	CWorld*			GetWorld()	{ return m_pWorld; }

  0085a	8b 8d a4 fe ff
	ff		 mov	 ecx, DWORD PTR __nMaxWidth$1$[ebp]
  00860	8b c2		 mov	 eax, edx
  00862	8b b5 84 fe ff
	ff		 mov	 esi, DWORD PTR __k$1$[ebp]
  00868	0f af c1	 imul	 eax, ecx
  0086b	03 c6		 add	 eax, esi
  0086d	89 85 b0 fe ff
	ff		 mov	 DWORD PTR $T2[ebp], eax
$LL18@SendDamage:
; File C:\IAGOS\server\v18\Source\Source\_Common\MoverSkill.cpp

; 4066 : 		FOR_LINKMAP( GetWorld(), vPos, pObj, nRange, CObj::linkDynamic, GetLayer() )

  00873	3b f7		 cmp	 esi, edi
  00875	0f 8f c2 01 00
	00		 jg	 $LN16@SendDamage
  0087b	8b 8d 8c fe ff
	ff		 mov	 ecx, DWORD PTR __pObjs$1$[ebp]
  00881	8b d7		 mov	 edx, edi
  00883	2b d6		 sub	 edx, esi
  00885	42		 inc	 edx
  00886	89 95 94 fe ff
	ff		 mov	 DWORD PTR tv2053[ebp], edx
  0088c	8d 0c 81	 lea	 ecx, DWORD PTR [ecx+eax*4]
  0088f	89 8d 90 fe ff
	ff		 mov	 DWORD PTR tv1982[ebp], ecx
$LL21@SendDamage:
  00895	8b 31		 mov	 esi, DWORD PTR [ecx]
  00897	bf e8 03 00 00	 mov	 edi, 1000		; 000003e8H
  0089c	85 f6		 test	 esi, esi
  0089e	0f 84 63 01 00
	00		 je	 $LN19@SendDamage
$LL22@SendDamage:
  008a4	8b c7		 mov	 eax, edi
  008a6	4f		 dec	 edi
  008a7	85 c0		 test	 eax, eax
  008a9	0f 84 4c 01 00
	00		 je	 $LN196@SendDamage

; 4068 : 			if( pObj->GetType() == OT_MOVER && ((CMover *)pObj)->IsPeaceful() == FALSE )

  008af	83 be 70 01 00
	00 05		 cmp	 DWORD PTR [esi+368], 5
  008b6	0f 85 31 01 00
	00		 jne	 $LN53@SendDamage
; File C:\IAGOS\server\v18\Source\Source\_Common\Mover.h

; 1120 : 	BOOL			IsPeaceful() { return m_dwBelligerence == BELLI_PEACEFUL; }

  008bc	83 be 64 06 00
	00 01		 cmp	 DWORD PTR [esi+1636], 1
; File C:\IAGOS\server\v18\Source\Source\_Common\MoverSkill.cpp

; 4068 : 			if( pObj->GetType() == OT_MOVER && ((CMover *)pObj)->IsPeaceful() == FALSE )

  008c3	0f 84 24 01 00
	00		 je	 $LN53@SendDamage
; File C:\IAGOS\server\v18\Source\Source\_Common\Obj.h

; 180  : 	BOOL			IsDelete()	{ return (m_dwFlags & OBJ_FLAG_DELETE);  }

  008c9	f6 46 04 01	 test	 BYTE PTR [esi+4], 1

; 327  : 	return pObj && ( pObj->IsDelete() == FALSE ); 

  008cd	0f 85 1a 01 00
	00		 jne	 $LN53@SendDamage
; File C:\IAGOS\server\v18\Source\Source\_Common\Mover.h

; 1251 : 	BOOL			IsLive() { return m_pActMover->IsDie() == FALSE || m_nHitPoint > 0; }		// && ¸¦  ||·Î ąŮ˛ĺŔ˝.  !=¸¦ >·Î ąŮ˛Ţ

  008d3	8b 86 38 02 00
	00		 mov	 eax, DWORD PTR [esi+568]
  008d9	f7 40 04 00 00
	00 08		 test	 DWORD PTR [eax+4], 134217728 ; 08000000H
  008e0	74 0d		 je	 SHORT $LN189@SendDamage
  008e2	83 be f8 05 00
	00 00		 cmp	 DWORD PTR [esi+1528], 0
  008e9	0f 8e fe 00 00
	00		 jle	 $LN53@SendDamage
$LN189@SendDamage:
; File C:\IAGOS\server\v18\Source\Source\_Common\Obj.h

; 215  : 	D3DXVECTOR3		GetPos()	{ return m_vPos; }

  008ef	8b 86 68 01 00
	00		 mov	 eax, DWORD PTR [esi+360]
  008f5	f3 0f 7e 86 60
	01 00 00	 movq	 xmm0, QWORD PTR [esi+352]
  008fd	89 45 e0	 mov	 DWORD PTR $T3[ebp+8], eax
; File C:\IAGOS\server\v18\Source\Source\_Common\MoverSkill.cpp

; 4074 : 					D3DXVec3TransformCoord( &vDestLocal, &pTarget->GetPos(), &mInv );

  00900	8d 85 74 ff ff
	ff		 lea	 eax, DWORD PTR _mInv$[ebp]
  00906	50		 push	 eax
  00907	8d 45 d8	 lea	 eax, DWORD PTR $T3[ebp]
; File C:\IAGOS\server\v18\Source\Source\_Common\Obj.h

; 215  : 	D3DXVECTOR3		GetPos()	{ return m_vPos; }

  0090a	66 0f d6 45 d8	 movq	 QWORD PTR $T3[ebp], xmm0
; File C:\IAGOS\server\v18\Source\Source\_Common\MoverSkill.cpp

; 4074 : 					D3DXVec3TransformCoord( &vDestLocal, &pTarget->GetPos(), &mInv );

  0090f	50		 push	 eax
  00910	8d 45 cc	 lea	 eax, DWORD PTR _vDestLocal$[ebp]
  00913	50		 push	 eax
  00914	e8 00 00 00 00	 call	 _D3DXVec3TransformCoord@12

; 4075 : 					// Ĺ¸°ŮĂř AABB
; 4076 : 					D3DXVECTOR3 vMin2 = vDestLocal + pTarget->m_pModel->m_vMin;

  00919	8b 86 78 01 00
	00		 mov	 eax, DWORD PTR [esi+376]
; File C:\IAGOS\server\v18\Source\Source\DX_SDK\d3dx9math.inl

; 377  :     return D3DXVECTOR3(x + v.x, y + v.y, z + v.z);

  0091f	f3 0f 10 6d d0	 movss	 xmm5, DWORD PTR _vDestLocal$[ebp+4]
  00924	f3 0f 10 65 d4	 movss	 xmm4, DWORD PTR _vDestLocal$[ebp+8]
  00929	0f 28 d5	 movaps	 xmm2, xmm5
  0092c	f3 0f 10 5d cc	 movss	 xmm3, DWORD PTR _vDestLocal$[ebp]
  00931	0f 28 cc	 movaps	 xmm1, xmm4
  00934	f3 0f 58 50 7c	 addss	 xmm2, DWORD PTR [eax+124]
  00939	f3 0f 58 88 80
	00 00 00	 addss	 xmm1, DWORD PTR [eax+128]
  00941	0f 28 c3	 movaps	 xmm0, xmm3
  00944	f3 0f 58 40 78	 addss	 xmm0, DWORD PTR [eax+120]

; 301  :     y = fy;

  00949	f3 0f 11 55 f4	 movss	 DWORD PTR _vMin2$11[ebp+4], xmm2

; 302  :     z = fz;

  0094e	f3 0f 11 4d f8	 movss	 DWORD PTR _vMin2$11[ebp+8], xmm1
  00953	f3 0f 11 45 f0	 movss	 DWORD PTR _vMin2$11[ebp], xmm0

; 377  :     return D3DXVECTOR3(x + v.x, y + v.y, z + v.z);

  00958	f3 0f 58 a8 88
	00 00 00	 addss	 xmm5, DWORD PTR [eax+136]
  00960	f3 0f 58 a0 8c
	00 00 00	 addss	 xmm4, DWORD PTR [eax+140]
  00968	f3 0f 58 98 84
	00 00 00	 addss	 xmm3, DWORD PTR [eax+132]
; File C:\IAGOS\server\v18\Source\Source\_Common\MoverSkill.cpp

; 4078 : 					if( ::IsTouchAABB( vMin1, vMax1, vMin2, vMax2 ) )		// AABBĂćµą°Ë»ç.

  00970	8d 45 e4	 lea	 eax, DWORD PTR _vMax2$8[ebp]
  00973	50		 push	 eax
  00974	8d 45 f0	 lea	 eax, DWORD PTR _vMin2$11[ebp]
; File C:\IAGOS\server\v18\Source\Source\DX_SDK\d3dx9math.inl

; 301  :     y = fy;

  00977	f3 0f 11 6d e8	 movss	 DWORD PTR _vMax2$8[ebp+4], xmm5
; File C:\IAGOS\server\v18\Source\Source\_Common\MoverSkill.cpp

; 4078 : 					if( ::IsTouchAABB( vMin1, vMax1, vMin2, vMax2 ) )		// AABBĂćµą°Ë»ç.

  0097c	50		 push	 eax
  0097d	8d 45 b4	 lea	 eax, DWORD PTR _vMax1$[ebp]
; File C:\IAGOS\server\v18\Source\Source\DX_SDK\d3dx9math.inl

; 300  :     x = fx;

  00980	f3 0f 11 5d e4	 movss	 DWORD PTR _vMax2$8[ebp], xmm3
; File C:\IAGOS\server\v18\Source\Source\_Common\MoverSkill.cpp

; 4078 : 					if( ::IsTouchAABB( vMin1, vMax1, vMin2, vMax2 ) )		// AABBĂćµą°Ë»ç.

  00985	50		 push	 eax
  00986	8d 45 c0	 lea	 eax, DWORD PTR _vMin1$[ebp]
; File C:\IAGOS\server\v18\Source\Source\DX_SDK\d3dx9math.inl

; 302  :     z = fz;

  00989	f3 0f 11 65 ec	 movss	 DWORD PTR _vMax2$8[ebp+8], xmm4
; File C:\IAGOS\server\v18\Source\Source\_Common\MoverSkill.cpp

; 4078 : 					if( ::IsTouchAABB( vMin1, vMax1, vMin2, vMax2 ) )		// AABBĂćµą°Ë»ç.

  0098e	50		 push	 eax
  0098f	e8 00 00 00 00	 call	 ?IsTouchAABB@@YAHABUD3DXVECTOR3@@000@Z ; IsTouchAABB
  00994	83 c4 10	 add	 esp, 16			; 00000010H
  00997	85 c0		 test	 eax, eax
  00999	74 52		 je	 SHORT $LN53@SendDamage

; 4079 : 					{
; 4080 : 						if( pProp->dwComboStyle == CT_FINISH )

  0099b	8b 85 78 fe ff
	ff		 mov	 eax, DWORD PTR _pProp$1$[ebp]
  009a1	8b 95 50 fe ff
	ff		 mov	 edx, DWORD PTR _nAttackID$GSCopy$1$[ebp]
  009a7	8b 8e 38 02 00
	00		 mov	 ecx, DWORD PTR [esi+568]
  009ad	c1 e2 10	 shl	 edx, 16			; 00000010H
  009b0	83 b8 18 02 00
	00 03		 cmp	 DWORD PTR [eax+536], 3
  009b7	75 19		 jne	 SHORT $LN52@SendDamage

; 4081 : 							pTarget->m_pActMover->SendDamageForce( nDmgType, GetId(), (nAttackID << 16) );

  009b9	8b 85 80 fe ff
	ff		 mov	 eax, DWORD PTR _this$GSCopy$1$[ebp]
  009bf	6a 01		 push	 1
  009c1	52		 push	 edx
  009c2	ff b0 bc 01 00
	00		 push	 DWORD PTR [eax+444]
  009c8	ff 75 08	 push	 DWORD PTR _nDmgType$[ebp]
  009cb	e8 00 00 00 00	 call	 ?SendDamageForce@CActionMover@@QAEHKKHH@Z ; CActionMover::SendDamageForce
  009d0	eb 1b		 jmp	 SHORT $LN53@SendDamage
$LN52@SendDamage:
; File C:\IAGOS\server\v18\Source\Source\_AIInterface\ActionMover.h

; 134  : 	int				SendDamage( DWORD dwAtkFlags, OBJID idSender, int nParam = 0, BOOL bTarget = TRUE, int nReflect = 0 )	{	return SendActMsg( OBJMSG_DAMAGE, dwAtkFlags, idSender, nParam, bTarget, nReflect );	}

  009d2	8b 01		 mov	 eax, DWORD PTR [ecx]
  009d4	6a 00		 push	 0
  009d6	6a 01		 push	 1
  009d8	52		 push	 edx
  009d9	8b 95 80 fe ff
	ff		 mov	 edx, DWORD PTR _this$GSCopy$1$[ebp]
  009df	ff b2 bc 01 00
	00		 push	 DWORD PTR [edx+444]
  009e5	ff 75 08	 push	 DWORD PTR _nDmgType$[ebp]
  009e8	6a 29		 push	 41			; 00000029H
  009ea	ff 50 04	 call	 DWORD PTR [eax+4]
$LN53@SendDamage:
; File C:\IAGOS\server\v18\Source\Source\_Common\MoverSkill.cpp

; 4088 : 		END_LINKMAP

  009ed	8b b6 80 01 00
	00		 mov	 esi, DWORD PTR [esi+384]
  009f3	85 f6		 test	 esi, esi
  009f5	0f 85 a9 fe ff
	ff		 jne	 $LL22@SendDamage
$LN196@SendDamage:
  009fb	8b 8d 90 fe ff
	ff		 mov	 ecx, DWORD PTR tv1982[ebp]
  00a01	8b 95 94 fe ff
	ff		 mov	 edx, DWORD PTR tv2053[ebp]
$LN19@SendDamage:

; 4066 : 		FOR_LINKMAP( GetWorld(), vPos, pObj, nRange, CObj::linkDynamic, GetLayer() )

  00a07	83 c1 04	 add	 ecx, 4
  00a0a	83 ea 01	 sub	 edx, 1
  00a0d	89 8d 90 fe ff
	ff		 mov	 DWORD PTR tv1982[ebp], ecx
  00a13	89 95 94 fe ff
	ff		 mov	 DWORD PTR tv2053[ebp], edx
  00a19	0f 85 76 fe ff
	ff		 jne	 $LL21@SendDamage
  00a1f	8b 95 98 fe ff
	ff		 mov	 edx, DWORD PTR __j$1$[ebp]
  00a25	8b 85 b0 fe ff
	ff		 mov	 eax, DWORD PTR $T2[ebp]
  00a2b	8b b5 84 fe ff
	ff		 mov	 esi, DWORD PTR __k$1$[ebp]
  00a31	8b bd 88 fe ff
	ff		 mov	 edi, DWORD PTR tv1990[ebp]
  00a37	8b 8d a4 fe ff
	ff		 mov	 ecx, DWORD PTR __nMaxWidth$1$[ebp]
$LN16@SendDamage:
  00a3d	42		 inc	 edx
  00a3e	03 c1		 add	 eax, ecx
  00a40	89 95 98 fe ff
	ff		 mov	 DWORD PTR __j$1$[ebp], edx
  00a46	89 85 b0 fe ff
	ff		 mov	 DWORD PTR $T2[ebp], eax
  00a4c	3b 95 7c fe ff
	ff		 cmp	 edx, DWORD PTR tv2054[ebp]
  00a52	0f 8e 1b fe ff
	ff		 jle	 $LL18@SendDamage
$LN13@SendDamage:
; File C:\IAGOS\server\v18\Source\Source\_Common\Obj.h

; 221  : 	CWorld*			GetWorld()	{ return m_pWorld; }

  00a58	8b bd 80 fe ff
	ff		 mov	 edi, DWORD PTR _this$GSCopy$1$[ebp]
; File C:\IAGOS\server\v18\Source\Source\_Common\MoverSkill.cpp

; 4066 : 		FOR_LINKMAP( GetWorld(), vPos, pObj, nRange, CObj::linkDynamic, GetLayer() )

  00a5e	8b b5 a8 fe ff
	ff		 mov	 esi, DWORD PTR __i$1$[ebp]
  00a64	46		 inc	 esi
  00a65	89 b5 a8 fe ff
	ff		 mov	 DWORD PTR __i$1$[ebp], esi
  00a6b	ff b7 b8 01 00
	00		 push	 DWORD PTR [edi+440]
; File C:\IAGOS\server\v18\Source\Source\_Common\Obj.h

; 221  : 	CWorld*			GetWorld()	{ return m_pWorld; }

  00a71	8b 8f 6c 01 00
	00		 mov	 ecx, DWORD PTR [edi+364]
; File C:\IAGOS\server\v18\Source\Source\_Common\MoverSkill.cpp

; 4066 : 		FOR_LINKMAP( GetWorld(), vPos, pObj, nRange, CObj::linkDynamic, GetLayer() )

  00a77	6a 01		 push	 1
  00a79	83 c1 24	 add	 ecx, 36			; 00000024H
  00a7c	e8 00 00 00 00	 call	 ?GetMaxLinkLevel@CLayeredLinkMap@@QAEHKH@Z ; CLayeredLinkMap::GetMaxLinkLevel
  00a81	3b f0		 cmp	 esi, eax
  00a83	0f 8c 87 fc ff
	ff		 jl	 $LL15@SendDamage

; 4089 : 	}
; 4090 : 		
; 4091 : #endif // WORLDSERVER		
; 4092 : } // SendDamageLine()

  00a89	5f		 pop	 edi
  00a8a	5e		 pop	 esi
  00a8b	8b 4d fc	 mov	 ecx, DWORD PTR __$ArrayPad$[ebp]
  00a8e	33 cd		 xor	 ecx, ebp
  00a90	e8 00 00 00 00	 call	 @__security_check_cookie@4
  00a95	8b e5		 mov	 esp, ebp
  00a97	5d		 pop	 ebp
  00a98	c2 18 00	 ret	 24			; 00000018H
$LN138@SendDamage:
; File C:\IAGOS\server\v18\Source\Source\_Common\Project.h

; 579  : 	LPCTSTR szErr = Error( _T( "%s min:%d, max:%d, index:%d" ), szMsg, nMin, nMax, nIndex ); 

  00a9b	56		 push	 esi
  00a9c	50		 push	 eax
  00a9d	6a 00		 push	 0
  00a9f	68 00 00 00 00	 push	 OFFSET ??_C@_0BI@BEIFNGEL@GetItemProp?5range_error@
  00aa4	68 00 00 00 00	 push	 OFFSET ??_C@_0BM@HMFGHCP@?$CFs?5min?3?$CFd?0?5max?3?$CFd?0?5index?3?$CFd@
  00aa9	e8 00 00 00 00	 call	 ?Error@@YAPBDPBDZZ	; Error
  00aae	83 c4 14	 add	 esp, 20			; 00000014H
$LN193@SendDamage:
; File C:\IAGOS\server\v18\Source\Source\_Common\MoverSkill.cpp

; 4024 : 			Error( "CMover::SendDamageLine : %s. ľĆŔĚĹŰ(%d)ŔÇ ÇÁ·ÎĆŰĆĽ°ˇ ľ÷¤˛´Ů.", m_szName, nAttackID );

  00ab1	56		 push	 esi
  00ab2	8d 87 ec 14 00
	00		 lea	 eax, DWORD PTR [edi+5356]
  00ab8	50		 push	 eax
  00ab9	68 00 00 00 00	 push	 OFFSET ??_C@_0DN@LKDJCKJ@CMover?3?3SendDamageLine?5?3?5?$CFs?4?5?$LO?F@
$LN237@SendDamage:

; 4089 : 	}
; 4090 : 		
; 4091 : #endif // WORLDSERVER		
; 4092 : } // SendDamageLine()

  00abe	e8 00 00 00 00	 call	 ?Error@@YAPBDPBDZZ	; Error
  00ac3	83 c4 0c	 add	 esp, 12			; 0000000cH
$LN14@SendDamage:
  00ac6	8b 4d fc	 mov	 ecx, DWORD PTR __$ArrayPad$[ebp]
  00ac9	5f		 pop	 edi
  00aca	33 cd		 xor	 ecx, ebp
  00acc	5e		 pop	 esi
  00acd	e8 00 00 00 00	 call	 @__security_check_cookie@4
  00ad2	8b e5		 mov	 esp, ebp
  00ad4	5d		 pop	 ebp
  00ad5	c2 18 00	 ret	 24			; 00000018H
?SendDamageLine@CMover@@QAEXHHHMMM@Z ENDP		; CMover::SendDamageLine
_TEXT	ENDS
; Function compile flags: /Ogtp
; File C:\IAGOS\server\v18\Source\Source\_Common\MoverSkill.cpp
; File C:\IAGOS\server\v18\Source\Source\_Common\Obj.h
; File C:\IAGOS\server\v18\Source\Source\_Common\MoverSkill.cpp
; File C:\IAGOS\server\v18\Source\Source\_Common\Obj.h
; File C:\IAGOS\server\v18\Source\Source\_Common\MoverSkill.cpp
; File C:\IAGOS\server\v18\Source\Source\_Common\Project.h
; File C:\IAGOS\server\v18\Source\Source\_Common\data.h
; File C:\IAGOS\server\v18\Source\Source\_Common\MoverSkill.cpp
; File C:\IAGOS\server\v18\Source\Source\_Common\Project.h
; File C:\IAGOS\server\v18\Source\Source\_Common\MoverSkill.cpp
; File C:\IAGOS\server\v18\Source\Source\_Common\Project.h
; File C:\IAGOS\server\v18\Source\Source\_Common\data.h
; File C:\IAGOS\server\v18\Source\Source\_Common\MoverSkill.cpp
; File C:\IAGOS\server\v18\Source\Source\_Common\Obj.h
; File C:\IAGOS\server\v18\Source\Source\_Common\MoverSkill.cpp
; File C:\IAGOS\server\v18\Source\Source\_Common\Obj.h
; File C:\IAGOS\server\v18\Source\Source\_Common\MoverSkill.cpp
; File C:\IAGOS\server\v18\Source\Source\_Common\Obj.h
; File C:\IAGOS\server\v18\Source\Source\_Common\MoverSkill.cpp
; File C:\IAGOS\server\v18\Source\Source\_Common\Obj.h
; File C:\IAGOS\server\v18\Source\Source\DX_SDK\d3dx9math.inl
; File C:\IAGOS\server\v18\Source\Source\_Common\Obj.h
; File C:\IAGOS\server\v18\Source\Source\DX_SDK\d3dx9math.inl
; File C:\IAGOS\server\v18\Source\Source\_Common\MoverSkill.cpp
; File C:\IAGOS\server\v18\Source\Source\DX_SDK\d3dx9math.inl
; File C:\IAGOS\server\v18\Source\Source\_Common\MoverSkill.cpp
; File C:\IAGOS\server\v18\Source\Source\_Common\Obj.h
; File C:\IAGOS\server\v18\Source\Source\_AIInterface\Action.h
; File C:\IAGOS\server\v18\Source\Source\_Common\Mover.h
; File C:\IAGOS\server\v18\Source\Source\_Common\MoverSkill.cpp
; File C:\IAGOS\server\v18\Source\Source\_AIInterface\ActionMover.h
; File C:\IAGOS\server\v18\Source\Source\_Common\MoverSkill.cpp
; File C:\IAGOS\server\v18\Source\Source\_Common\Mover.h
; File C:\IAGOS\server\v18\Source\Source\_Common\MoverSkill.cpp
; File C:\IAGOS\server\v18\Source\Source\_Common\Obj.h
; File C:\IAGOS\server\v18\Source\Source\DX_SDK\d3dx9math.inl
; File C:\IAGOS\server\v18\Source\Source\_Common\Obj.h
; File C:\IAGOS\server\v18\Source\Source\DX_SDK\d3dx9math.inl
; File C:\IAGOS\server\v18\Source\Source\_Common\MoverSkill.cpp
; File C:\IAGOS\server\v18\Source\Source\DX_SDK\d3dx9math.inl
; File C:\IAGOS\server\v18\Source\Source\_Common\MoverSkill.cpp
; File C:\IAGOS\server\v18\Source\Source\DX_SDK\d3dx9math.inl
; File C:\IAGOS\server\v18\Source\Source\_Common\MoverSkill.cpp
; File C:\IAGOS\server\v18\Source\Source\_Common\Obj.h
; File C:\IAGOS\server\v18\Source\Source\_AIInterface\Action.h
; File C:\IAGOS\server\v18\Source\Source\_Common\Mover.h
; File C:\IAGOS\server\v18\Source\Source\_Common\MoverSkill.cpp
; File C:\IAGOS\server\v18\Source\Source\_AIInterface\ActionMover.h
; File C:\IAGOS\server\v18\Source\Source\_Common\MoverSkill.cpp
; File C:\IAGOS\server\v18\Source\Source\_Common\Project.h
; File C:\IAGOS\server\v18\Source\Source\_Common\MoverSkill.cpp
;	COMDAT ?SendDamageAround@CMover@@QAEXHPAV1@HHMMM@Z
_TEXT	SEGMENT
$T1 = -104						; size = 12
$T2 = -104						; size = 12
_vPos$ = -92						; size = 12
tv1882 = -80						; size = 4
__nLinkX$1$ = -80					; size = 4
__pObjs$1$ = -76					; size = 4
tv1900 = -76						; size = 4
tv1864 = -72						; size = 4
tv1904 = -72						; size = 4
__nX$1$ = -72						; size = 4
tv1898 = -68						; size = 4
tv1907 = -68						; size = 4
tv1895 = -64						; size = 4
tv1909 = -64						; size = 4
tv1893 = -60						; size = 4
tv1912 = -60						; size = 4
__nX$1$ = -56						; size = 4
__nLinkZ$1$ = -56					; size = 4
$T3 = -56						; size = 4
__j$1$ = -52						; size = 4
tv1850 = -52						; size = 4
tv1869 = -52						; size = 4
tv1886 = -52						; size = 4
tv1941 = -48						; size = 4
tv1931 = -48						; size = 4
__k$1$ = -44						; size = 4
__k$1$ = -44						; size = 4
tv1937 = -40						; size = 4
tv1938 = -40						; size = 4
tv1861 = -36						; size = 4
__j$1$ = -36						; size = 4
$T4 = -32						; size = 4
___limit$1$ = -32					; size = 4
__i$1$ = -28						; size = 4
__nLinkZ$1$ = -28					; size = 4
__nLinkX$1$ = -24					; size = 4
__pObjs$1$ = -24					; size = 4
_nRange$1$ = -20					; size = 4
__i$1$ = -16						; size = 4
__nMaxWidth$1$ = -12					; size = 4
_this$1$ = -8						; size = 4
_pProp$1$ = -4						; size = 4
_nDmgType$ = 8						; size = 4
_pAttacker$ = 12					; size = 4
_nApplyType$ = 16					; size = 4
__nMaxWidth$1$ = 16					; size = 4
_nAttackID$ = 20					; size = 4
_fRange$ = 24						; size = 4
_fTargetRatio$ = 28					; size = 4
_fAroundRatio$ = 32					; size = 4
?SendDamageAround@CMover@@QAEXHPAV1@HHMMM@Z PROC	; CMover::SendDamageAround, COMDAT
; _this$ = ecx

; 3834 : {

  00000	55		 push	 ebp
  00001	8b ec		 mov	 ebp, esp
  00003	83 ec 68	 sub	 esp, 104		; 00000068H

; 3843 : 	if( fRange <= 4.0f )

  00006	f3 0f 10 4d 18	 movss	 xmm1, DWORD PTR _fRange$[ebp]
  0000b	53		 push	 ebx
  0000c	8b d9		 mov	 ebx, ecx
  0000e	56		 push	 esi
  0000f	57		 push	 edi
  00010	89 5d f8	 mov	 DWORD PTR _this$1$[ebp], ebx
; File C:\IAGOS\server\v18\Source\Source\_Common\Obj.h

; 215  : 	D3DXVECTOR3		GetPos()	{ return m_vPos; }

  00013	f3 0f 7e 83 60
	01 00 00	 movq	 xmm0, QWORD PTR [ebx+352]
  0001b	8b 83 68 01 00
	00		 mov	 eax, DWORD PTR [ebx+360]
  00021	66 0f d6 45 a4	 movq	 QWORD PTR _vPos$[ebp], xmm0
; File C:\IAGOS\server\v18\Source\Source\_Common\MoverSkill.cpp

; 3843 : 	if( fRange <= 4.0f )

  00026	f3 0f 10 05 00
	00 00 00	 movss	 xmm0, DWORD PTR __real@40800000
  0002e	0f 2f c1	 comiss	 xmm0, xmm1
; File C:\IAGOS\server\v18\Source\Source\_Common\Obj.h

; 215  : 	D3DXVECTOR3		GetPos()	{ return m_vPos; }

  00031	89 45 ac	 mov	 DWORD PTR _vPos$[ebp+8], eax
; File C:\IAGOS\server\v18\Source\Source\_Common\MoverSkill.cpp

; 3843 : 	if( fRange <= 4.0f )

  00034	72 07		 jb	 SHORT $LN24@SendDamage

; 3844 : 		nRange = 4;

  00036	bf 04 00 00 00	 mov	 edi, 4
  0003b	eb 2c		 jmp	 SHORT $LN227@SendDamage
$LN24@SendDamage:

; 3845 : 	else if( fRange <= 8.0f )

  0003d	f3 0f 10 05 00
	00 00 00	 movss	 xmm0, DWORD PTR __real@41000000
  00045	0f 2f c1	 comiss	 xmm0, xmm1
  00048	72 07		 jb	 SHORT $LN26@SendDamage

; 3846 : 		nRange = 8;

  0004a	bf 08 00 00 00	 mov	 edi, 8
  0004f	eb 18		 jmp	 SHORT $LN227@SendDamage
$LN26@SendDamage:

; 3847 : 	else if( fRange <= 16.0f )

  00051	f3 0f 10 05 00
	00 00 00	 movss	 xmm0, DWORD PTR __real@41800000
  00059	bf 20 00 00 00	 mov	 edi, 32			; 00000020H
  0005e	0f 2f c1	 comiss	 xmm0, xmm1
  00061	b8 10 00 00 00	 mov	 eax, 16			; 00000010H
  00066	0f 43 f8	 cmovae	 edi, eax
$LN227@SendDamage:

; 3848 : 		nRange = 16;
; 3849 : 	else
; 3850 : 		nRange = 32;
; 3851 : 	
; 3852 : 	if( fRange <= 0 )	// ąüŔ§°ˇ 0ŔĚ°ĹłŞ Ŕ˝ĽöŔĎĽö´Â ľř´Ů.

  00069	8b 75 14	 mov	 esi, DWORD PTR _nAttackID$[ebp]
  0006c	0f 57 c0	 xorps	 xmm0, xmm0
  0006f	0f 2f c1	 comiss	 xmm0, xmm1
  00072	89 7d ec	 mov	 DWORD PTR _nRange$1$[ebp], edi
  00075	72 2e		 jb	 SHORT $LN30@SendDamage

; 3853 : 		Error( "CMover::SendDamageAround : D:%s A:%s %d %f", GetName(), pAttacker->GetName(), nAttackID, fRange );

  00077	8b 4d 0c	 mov	 ecx, DWORD PTR _pAttacker$[ebp]
  0007a	83 ec 08	 sub	 esp, 8
  0007d	0f 5a c1	 cvtps2pd xmm0, xmm1
  00080	f2 0f 11 04 24	 movsd	 QWORD PTR [esp], xmm0
  00085	56		 push	 esi
  00086	6a 00		 push	 0
  00088	e8 00 00 00 00	 call	 ?GetName@CMover@@QAEPBDH@Z ; CMover::GetName
  0008d	50		 push	 eax
  0008e	6a 00		 push	 0
  00090	8b cb		 mov	 ecx, ebx
  00092	e8 00 00 00 00	 call	 ?GetName@CMover@@QAEPBDH@Z ; CMover::GetName
  00097	50		 push	 eax
  00098	68 00 00 00 00	 push	 OFFSET ??_C@_0CL@JELFJLED@CMover?3?3SendDamageAround?5?3?5D?3?$CFs@
  0009d	e8 00 00 00 00	 call	 ?Error@@YAPBDPBDZZ	; Error
  000a2	83 c4 18	 add	 esp, 24			; 00000018H
$LN30@SendDamage:

; 3854 : 
; 3855 : 	ItemProp* pProp;
; 3856 : 	if( nDmgType == AF_MAGICSKILL )

  000a5	83 7d 08 20	 cmp	 DWORD PTR _nDmgType$[ebp], 32 ; 00000020H
  000a9	75 78		 jne	 SHORT $LN132@SendDamage
; File C:\IAGOS\server\v18\Source\Source\_Common\Project.h

; 1395 : 	VERIFY_RANGE( nIndex, 0, m_aPropSkill.GetSize(), "GetSkillProp range_error", NULL );

  000ab	a1 64 02 00 00	 mov	 eax, DWORD PTR ?prj@@3VCProject@@A+612
  000b0	85 f6		 test	 esi, esi
  000b2	78 3b		 js	 SHORT $LN122@SendDamage
  000b4	3b f0		 cmp	 esi, eax
  000b6	7d 37		 jge	 SHORT $LN122@SendDamage
; File C:\IAGOS\server\v18\Source\Source\_Common\data.h

; 270  : 	if( dwIndex >= (DWORD)m_nMaxIndex )

  000b8	72 04		 jb	 SHORT $LN127@SendDamage

; 271  : 		return NULL;

  000ba	33 c0		 xor	 eax, eax
  000bc	eb 08		 jmp	 SHORT $LN228@SendDamage
$LN127@SendDamage:

; 272  : 	return (T*) m_apOffset[ dwIndex ];

  000be	a1 54 02 00 00	 mov	 eax, DWORD PTR ?prj@@3VCProject@@A+596
  000c3	8b 04 b0	 mov	 eax, DWORD PTR [eax+esi*4]
$LN228@SendDamage:
; File C:\IAGOS\server\v18\Source\Source\_Common\MoverSkill.cpp

; 3859 : 		if( pProp == NULL )

  000c6	89 45 fc	 mov	 DWORD PTR _pProp$1$[ebp], eax
  000c9	85 c0		 test	 eax, eax
  000cb	0f 85 80 00 00
	00		 jne	 $LN34@SendDamage

; 3861 : 			Error( "CMover::SendDamageAround : %s. ˝şĹł(%d)ŔÇ ÇÁ·ÎĆŰĆĽ°ˇ ľ÷´Ů.", m_szName, nAttackID );

  000d1	56		 push	 esi
  000d2	8d 83 ec 14 00
	00		 lea	 eax, DWORD PTR [ebx+5356]
  000d8	50		 push	 eax
  000d9	68 00 00 00 00	 push	 OFFSET ??_C@_0DL@FEJEHPAL@CMover?3?3SendDamageAround?5?3?5?$CFs?4?5@

; 3948 : 	}
; 3949 : 		
; 3950 : #endif // WORLDSERVER		
; 3951 : } // SendDamageAround()

  000de	e8 00 00 00 00	 call	 ?Error@@YAPBDPBDZZ	; Error
  000e3	83 c4 0c	 add	 esp, 12			; 0000000cH
  000e6	5f		 pop	 edi
  000e7	5e		 pop	 esi
  000e8	5b		 pop	 ebx
  000e9	8b e5		 mov	 esp, ebp
  000eb	5d		 pop	 ebp
  000ec	c2 1c 00	 ret	 28			; 0000001cH
$LN122@SendDamage:
; File C:\IAGOS\server\v18\Source\Source\_Common\Project.h

; 579  : 	LPCTSTR szErr = Error( _T( "%s min:%d, max:%d, index:%d" ), szMsg, nMin, nMax, nIndex ); 

  000ef	56		 push	 esi
  000f0	50		 push	 eax
  000f1	6a 00		 push	 0
  000f3	68 00 00 00 00	 push	 OFFSET ??_C@_0BJ@GPNGCFMK@GetSkillProp?5range_error@
  000f8	68 00 00 00 00	 push	 OFFSET ??_C@_0BM@HMFGHCP@?$CFs?5min?3?$CFd?0?5max?3?$CFd?0?5index?3?$CFd@
  000fd	e8 00 00 00 00	 call	 ?Error@@YAPBDPBDZZ	; Error
  00102	83 c4 14	 add	 esp, 20			; 00000014H
; File C:\IAGOS\server\v18\Source\Source\_Common\MoverSkill.cpp

; 3861 : 			Error( "CMover::SendDamageAround : %s. ˝şĹł(%d)ŔÇ ÇÁ·ÎĆŰĆĽ°ˇ ľ÷´Ů.", m_szName, nAttackID );

  00105	8d 83 ec 14 00
	00		 lea	 eax, DWORD PTR [ebx+5356]
  0010b	56		 push	 esi
  0010c	50		 push	 eax
  0010d	68 00 00 00 00	 push	 OFFSET ??_C@_0DL@FEJEHPAL@CMover?3?3SendDamageAround?5?3?5?$CFs?4?5@

; 3948 : 	}
; 3949 : 		
; 3950 : #endif // WORLDSERVER		
; 3951 : } // SendDamageAround()

  00112	e8 00 00 00 00	 call	 ?Error@@YAPBDPBDZZ	; Error
  00117	83 c4 0c	 add	 esp, 12			; 0000000cH
  0011a	5f		 pop	 edi
  0011b	5e		 pop	 esi
  0011c	5b		 pop	 ebx
  0011d	8b e5		 mov	 esp, ebp
  0011f	5d		 pop	 ebp
  00120	c2 1c 00	 ret	 28			; 0000001cH
$LN132@SendDamage:
; File C:\IAGOS\server\v18\Source\Source\_Common\Project.h

; 1389 : 	VERIFY_RANGE_ASSERT( nIndex, 0, m_aPropItem.GetSize(), "GetItemProp range_error", NULL );

  00123	a1 40 02 00 00	 mov	 eax, DWORD PTR ?prj@@3VCProject@@A+576
  00128	85 f6		 test	 esi, esi
  0012a	0f 88 7f 06 00
	00		 js	 $LN134@SendDamage
  00130	3b f0		 cmp	 esi, eax
  00132	0f 8d 77 06 00
	00		 jge	 $LN134@SendDamage
; File C:\IAGOS\server\v18\Source\Source\_Common\data.h

; 270  : 	if( dwIndex >= (DWORD)m_nMaxIndex )

  00138	72 04		 jb	 SHORT $LN139@SendDamage

; 271  : 		return NULL;

  0013a	33 c0		 xor	 eax, eax
  0013c	eb 08		 jmp	 SHORT $LN230@SendDamage
$LN139@SendDamage:

; 272  : 	return (T*) m_apOffset[ dwIndex ];

  0013e	a1 30 02 00 00	 mov	 eax, DWORD PTR ?prj@@3VCProject@@A+560
  00143	8b 04 b0	 mov	 eax, DWORD PTR [eax+esi*4]
$LN230@SendDamage:
; File C:\IAGOS\server\v18\Source\Source\_Common\MoverSkill.cpp

; 3867 : 		if( pProp == NULL )

  00146	89 45 fc	 mov	 DWORD PTR _pProp$1$[ebp], eax
  00149	85 c0		 test	 eax, eax
  0014b	0f 84 74 06 00
	00		 je	 $LN177@SendDamage
$LN34@SendDamage:

; 3870 : 			return;	// property not found
; 3871 : 		}
; 3872 : 	}
; 3873 : 	
; 3874 : 	BOOL	bDamage = FALSE;
; 3875 : 	BOOL	bTarget = FALSE;
; 3876 : 
; 3877 : 	if( nApplyType & OBJTYPE_PLAYER )	// Ŕűżë´ë»óŔĚ ÇĂ·ąŔĚľîŔÎ°ˇ 

  00151	8b 45 10	 mov	 eax, DWORD PTR _nApplyType$[ebp]
  00154	f3 0f 10 55 ac	 movss	 xmm2, DWORD PTR _vPos$[ebp+8]
  00159	f3 0f 10 45 a4	 movss	 xmm0, DWORD PTR _vPos$[ebp]
  0015e	a8 01		 test	 al, 1
  00160	0f 84 24 03 00
	00		 je	 $LN3@SendDamage

; 3879 : 		FOR_LINKMAP( GetWorld(), vPos, pObj, nRange, CObj::linkPlayer, GetLayer() )

  00166	8b 8b 6c 01 00
	00		 mov	 ecx, DWORD PTR [ebx+364]
  0016c	33 f6		 xor	 esi, esi
  0016e	ff b3 b8 01 00
	00		 push	 DWORD PTR [ebx+440]
  00174	89 75 f0	 mov	 DWORD PTR __i$1$[ebp], esi
  00177	6a 02		 push	 2
  00179	66 0f 6e 49 14	 movd	 xmm1, DWORD PTR [ecx+20]
  0017e	83 c1 24	 add	 ecx, 36			; 00000024H
  00181	0f 5b c9	 cvtdq2ps xmm1, xmm1
  00184	f3 0f 5e c1	 divss	 xmm0, xmm1
  00188	f3 0f 2c c0	 cvttss2si eax, xmm0
  0018c	0f 28 c2	 movaps	 xmm0, xmm2
  0018f	f3 0f 5e c1	 divss	 xmm0, xmm1
  00193	89 45 e8	 mov	 DWORD PTR __nLinkX$1$[ebp], eax
  00196	f3 0f 2c c0	 cvttss2si eax, xmm0
  0019a	89 45 e4	 mov	 DWORD PTR __nLinkZ$1$[ebp], eax
  0019d	e8 00 00 00 00	 call	 ?GetMaxLinkLevel@CLayeredLinkMap@@QAEHKH@Z ; CLayeredLinkMap::GetMaxLinkLevel
  001a2	85 c0		 test	 eax, eax
  001a4	0f 8e d3 02 00
	00		 jle	 $LN181@SendDamage
  001aa	8b 45 e8	 mov	 eax, DWORD PTR __nLinkX$1$[ebp]
  001ad	8b c8		 mov	 ecx, eax
  001af	2b cf		 sub	 ecx, edi
  001b1	89 4d c4	 mov	 DWORD PTR tv1912[ebp], ecx
  001b4	8b 4d e4	 mov	 ecx, DWORD PTR __nLinkZ$1$[ebp]
  001b7	8b d1		 mov	 edx, ecx
  001b9	2b d7		 sub	 edx, edi
  001bb	03 c7		 add	 eax, edi
  001bd	89 45 bc	 mov	 DWORD PTR tv1907[ebp], eax
  001c0	89 55 c0	 mov	 DWORD PTR tv1909[ebp], edx
  001c3	8d 04 39	 lea	 eax, DWORD PTR [ecx+edi]
  001c6	89 45 b8	 mov	 DWORD PTR tv1904[ebp], eax
  001c9	0f 1f 80 00 00
	00 00		 npad	 7
$LL4@SendDamage:
  001d0	ff b3 b8 01 00
	00		 push	 DWORD PTR [ebx+440]
; File C:\IAGOS\server\v18\Source\Source\_Common\Obj.h

; 221  : 	CWorld*			GetWorld()	{ return m_pWorld; }

  001d6	8b 8b 6c 01 00
	00		 mov	 ecx, DWORD PTR [ebx+364]
; File C:\IAGOS\server\v18\Source\Source\_Common\MoverSkill.cpp

; 3879 : 		FOR_LINKMAP( GetWorld(), vPos, pObj, nRange, CObj::linkPlayer, GetLayer() )

  001dc	56		 push	 esi
  001dd	6a 02		 push	 2
  001df	83 c1 24	 add	 ecx, 36			; 00000024H
  001e2	e8 00 00 00 00	 call	 ?GetLinkWidth@CLayeredLinkMap@@QAEHKHH@Z ; CLayeredLinkMap::GetLinkWidth
  001e7	ff b3 b8 01 00
	00		 push	 DWORD PTR [ebx+440]
; File C:\IAGOS\server\v18\Source\Source\_Common\Obj.h

; 221  : 	CWorld*			GetWorld()	{ return m_pWorld; }

  001ed	8b 8b 6c 01 00
	00		 mov	 ecx, DWORD PTR [ebx+364]
; File C:\IAGOS\server\v18\Source\Source\_Common\MoverSkill.cpp

; 3879 : 		FOR_LINKMAP( GetWorld(), vPos, pObj, nRange, CObj::linkPlayer, GetLayer() )

  001f3	8b f0		 mov	 esi, eax
  001f5	ff 75 f0	 push	 DWORD PTR __i$1$[ebp]
  001f8	83 c1 24	 add	 ecx, 36			; 00000024H
  001fb	6a 02		 push	 2
  001fd	e8 00 00 00 00	 call	 ?GetObj@CLayeredLinkMap@@QAEPAPAVCObj@@KKH@Z ; CLayeredLinkMap::GetObj
  00202	8b 8b 6c 01 00
	00		 mov	 ecx, DWORD PTR [ebx+364]
  00208	89 45 b4	 mov	 DWORD PTR __pObjs$1$[ebp], eax
  0020b	8b 51 08	 mov	 edx, DWORD PTR [ecx+8]
  0020e	8b 41 04	 mov	 eax, DWORD PTR [ecx+4]
  00211	8b d8		 mov	 ebx, eax
  00213	0f af d6	 imul	 edx, esi
  00216	c1 e0 07	 shl	 eax, 7
  00219	0f af de	 imul	 ebx, esi
  0021c	8b 71 14	 mov	 esi, DWORD PTR [ecx+20]
  0021f	89 55 cc	 mov	 DWORD PTR tv1886[ebp], edx
  00222	99		 cdq
  00223	f7 fb		 idiv	 ebx
  00225	89 5d f4	 mov	 DWORD PTR __nMaxWidth$1$[ebp], ebx
  00228	8b f8		 mov	 edi, eax
  0022a	8b c6		 mov	 eax, esi
  0022c	0f af c7	 imul	 eax, edi
  0022f	99		 cdq
  00230	2b c2		 sub	 eax, edx
  00232	8b c8		 mov	 ecx, eax
  00234	8b 45 e8	 mov	 eax, DWORD PTR __nLinkX$1$[ebp]
  00237	99		 cdq
  00238	f7 ff		 idiv	 edi
  0023a	f3 0f 2c 45 a4	 cvttss2si eax, DWORD PTR _vPos$[ebp]
  0023f	2b 55 e8	 sub	 edx, DWORD PTR __nLinkX$1$[ebp]
  00242	d1 f9		 sar	 ecx, 1
  00244	0f af d6	 imul	 edx, esi
  00247	03 d0		 add	 edx, eax
  00249	33 c0		 xor	 eax, eax
  0024b	3b d1		 cmp	 edx, ecx
  0024d	0f 9f c0	 setg	 al
  00250	33 db		 xor	 ebx, ebx
  00252	89 45 c8	 mov	 DWORD PTR __nX$1$[ebp], eax
  00255	8b 45 e4	 mov	 eax, DWORD PTR __nLinkZ$1$[ebp]
  00258	99		 cdq
  00259	f7 ff		 idiv	 edi
  0025b	f3 0f 2c 45 ac	 cvttss2si eax, DWORD PTR _vPos$[ebp+8]
  00260	2b 55 e4	 sub	 edx, DWORD PTR __nLinkZ$1$[ebp]
  00263	0f af d6	 imul	 edx, esi
  00266	03 d0		 add	 edx, eax
  00268	8b 45 c4	 mov	 eax, DWORD PTR tv1912[ebp]
  0026b	3b d1		 cmp	 edx, ecx
  0026d	99		 cdq
  0026e	0f 9f c3	 setg	 bl
  00271	33 c9		 xor	 ecx, ecx
  00273	f7 ff		 idiv	 edi
  00275	48		 dec	 eax
  00276	03 45 c8	 add	 eax, DWORD PTR __nX$1$[ebp]
  00279	0f 49 c8	 cmovns	 ecx, eax
  0027c	8b 45 c0	 mov	 eax, DWORD PTR tv1909[ebp]
  0027f	99		 cdq
  00280	f7 ff		 idiv	 edi
  00282	89 4d d4	 mov	 DWORD PTR __k$1$[ebp], ecx
  00285	8d 4b ff	 lea	 ecx, DWORD PTR [ebx-1]
  00288	03 c8		 add	 ecx, eax
  0028a	8b 45 bc	 mov	 eax, DWORD PTR tv1907[ebp]
  0028d	99		 cdq
  0028e	f7 ff		 idiv	 edi
  00290	8b 55 f4	 mov	 edx, DWORD PTR __nMaxWidth$1$[ebp]
  00293	03 45 c8	 add	 eax, DWORD PTR __nX$1$[ebp]
  00296	3b c2		 cmp	 eax, edx
  00298	8d 72 ff	 lea	 esi, DWORD PTR [edx-1]
  0029b	0f 4c f0	 cmovl	 esi, eax
  0029e	8b 45 b8	 mov	 eax, DWORD PTR tv1904[ebp]
  002a1	99		 cdq
  002a2	f7 ff		 idiv	 edi
  002a4	8b 55 cc	 mov	 edx, DWORD PTR tv1886[ebp]
  002a7	89 75 b0	 mov	 DWORD PTR tv1882[ebp], esi
  002aa	03 c3		 add	 eax, ebx
  002ac	3b c2		 cmp	 eax, edx
  002ae	8d 5a ff	 lea	 ebx, DWORD PTR [edx-1]
  002b1	0f 4c d8	 cmovl	 ebx, eax
  002b4	33 d2		 xor	 edx, edx
  002b6	85 c9		 test	 ecx, ecx
  002b8	89 5d d0	 mov	 DWORD PTR tv1931[ebp], ebx
  002bb	0f 49 d1	 cmovns	 edx, ecx
  002be	89 55 cc	 mov	 DWORD PTR __j$1$[ebp], edx
  002c1	3b d3		 cmp	 edx, ebx
  002c3	0f 8f 8c 01 00
	00		 jg	 $LN2@SendDamage
; File C:\IAGOS\server\v18\Source\Source\_Common\Obj.h

; 221  : 	CWorld*			GetWorld()	{ return m_pWorld; }

  002c9	8b 4d d4	 mov	 ecx, DWORD PTR __k$1$[ebp]
  002cc	8b c2		 mov	 eax, edx
  002ce	0f af 45 f4	 imul	 eax, DWORD PTR __nMaxWidth$1$[ebp]
  002d2	8b 5d f4	 mov	 ebx, DWORD PTR __nMaxWidth$1$[ebp]
  002d5	8b 7d d0	 mov	 edi, DWORD PTR tv1931[ebp]
  002d8	03 c1		 add	 eax, ecx
  002da	89 45 c8	 mov	 DWORD PTR $T3[ebp], eax
  002dd	0f 1f 00	 npad	 3
$LL7@SendDamage:
; File C:\IAGOS\server\v18\Source\Source\_Common\MoverSkill.cpp

; 3879 : 		FOR_LINKMAP( GetWorld(), vPos, pObj, nRange, CObj::linkPlayer, GetLayer() )

  002e0	3b ce		 cmp	 ecx, esi
  002e2	0f 8f 5c 01 00
	00		 jg	 $LN5@SendDamage
  002e8	8b 55 b4	 mov	 edx, DWORD PTR __pObjs$1$[ebp]
  002eb	8b de		 mov	 ebx, esi
  002ed	2b d9		 sub	 ebx, ecx
  002ef	43		 inc	 ebx
  002f0	89 5d d8	 mov	 DWORD PTR tv1938[ebp], ebx
  002f3	8d 14 82	 lea	 edx, DWORD PTR [edx+eax*4]
  002f6	89 55 dc	 mov	 DWORD PTR tv1861[ebp], edx
  002f9	0f 1f 80 00 00
	00 00		 npad	 7
$LL10@SendDamage:
  00300	8b 32		 mov	 esi, DWORD PTR [edx]
  00302	b9 e8 03 00 00	 mov	 ecx, 1000		; 000003e8H
  00307	85 f6		 test	 esi, esi
  00309	0f 84 11 01 00
	00		 je	 $LN8@SendDamage
  0030f	90		 npad	 1
$LL11@SendDamage:
  00310	8b c1		 mov	 eax, ecx
  00312	49		 dec	 ecx
  00313	89 4d e0	 mov	 DWORD PTR ___limit$1$[ebp], ecx
  00316	85 c0		 test	 eax, eax
  00318	0f 84 fc 00 00
	00		 je	 $LN179@SendDamage

; 3880 : 		{
; 3881 : 			if( pObj->GetType() == OT_MOVER )

  0031e	83 be 70 01 00
	00 05		 cmp	 DWORD PTR [esi+368], 5
  00325	0f 85 e1 00 00
	00		 jne	 $LN48@SendDamage
; File C:\IAGOS\server\v18\Source\Source\_Common\Obj.h

; 215  : 	D3DXVECTOR3		GetPos()	{ return m_vPos; }

  0032b	f3 0f 7e 86 60
	01 00 00	 movq	 xmm0, QWORD PTR [esi+352]
  00333	8b 86 68 01 00
	00		 mov	 eax, DWORD PTR [esi+360]
  00339	66 0f d6 45 98	 movq	 QWORD PTR $T1[ebp], xmm0
; File C:\IAGOS\server\v18\Source\Source\DX_SDK\d3dx9math.inl

; 383  :     return D3DXVECTOR3(x - v.x, y - v.y, z - v.z);

  0033e	f3 0f 10 4d 98	 movss	 xmm1, DWORD PTR $T1[ebp]
  00343	f3 0f 10 55 9c	 movss	 xmm2, DWORD PTR $T1[ebp+4]
  00348	f3 0f 5c 55 a8	 subss	 xmm2, DWORD PTR _vPos$[ebp+4]
  0034d	f3 0f 5c 4d a4	 subss	 xmm1, DWORD PTR _vPos$[ebp]
; File C:\IAGOS\server\v18\Source\Source\_Common\Obj.h

; 215  : 	D3DXVECTOR3		GetPos()	{ return m_vPos; }

  00352	89 45 a0	 mov	 DWORD PTR $T1[ebp+8], eax
; File C:\IAGOS\server\v18\Source\Source\DX_SDK\d3dx9math.inl

; 383  :     return D3DXVECTOR3(x - v.x, y - v.y, z - v.z);

  00355	f3 0f 10 45 a0	 movss	 xmm0, DWORD PTR $T1[ebp+8]
  0035a	f3 0f 5c 45 ac	 subss	 xmm0, DWORD PTR _vPos$[ebp+8]
; File C:\IAGOS\server\v18\Source\Source\_Common\MoverSkill.cpp

; 3887 : 					vDist = pObj->GetPos() - vPos;		// this -> Ĺ¸°Ů±îÁöŔÇ ş¤ĹÍ

  0035f	f3 0f 59 d2	 mulss	 xmm2, xmm2
; File C:\IAGOS\server\v18\Source\Source\DX_SDK\d3dx9math.inl

; 1698 :     return pV->x * pV->x + pV->y * pV->y + pV->z * pV->z;

  00363	f3 0f 59 c9	 mulss	 xmm1, xmm1
  00367	f3 0f 59 c0	 mulss	 xmm0, xmm0
  0036b	f3 0f 58 d1	 addss	 xmm2, xmm1
  0036f	f3 0f 58 d0	 addss	 xmm2, xmm0
; File C:\IAGOS\server\v18\Source\Source\_Common\MoverSkill.cpp

; 3889 : 					if( fDistSq < fRange * fRange )		// Ĺ¸°Ů°úŔÇ °Ĺ¸®°ˇ fRangeąĚĹÍ ŔĚł»ŔÎ°ÍŔ» ´ë»óŔ¸·Î.

  00373	f3 0f 10 45 18	 movss	 xmm0, DWORD PTR _fRange$[ebp]
  00378	f3 0f 59 c0	 mulss	 xmm0, xmm0
  0037c	0f 2f c2	 comiss	 xmm0, xmm2
  0037f	0f 86 87 00 00
	00		 jbe	 $LN48@SendDamage

; 3890 : 					{
; 3891 : 						if( pObj == this && fTargetRatio == 0.0f )	// Ĺ¸°ŮµĄąĚÁö şńŔ˛ŔĚ 0ŔĚ¸é ŔÚ±âŔÚ˝Ĺ(Ĺ¸°Ů)Ŕş µĄąĚÁö¸¦ ÁÖÁöľĘŔ˝.

  00385	8b 45 f8	 mov	 eax, DWORD PTR _this$1$[ebp]
  00388	3b f0		 cmp	 esi, eax
  0038a	75 15		 jne	 SHORT $LN43@SendDamage
  0038c	f3 0f 10 45 1c	 movss	 xmm0, DWORD PTR _fTargetRatio$[ebp]
  00391	0f 2e 05 00 00
	00 00		 ucomiss xmm0, DWORD PTR __real@00000000
  00398	9f		 lahf
  00399	f6 c4 44	 test	 ah, 68			; 00000044H
  0039c	7b 6e		 jnp	 SHORT $LN48@SendDamage
  0039e	8b 45 f8	 mov	 eax, DWORD PTR _this$1$[ebp]
$LN43@SendDamage:

; 3892 : 						{
; 3893 : 						} else
; 3894 : 						{
; 3895 : 							if( pObj != pAttacker )		// ľîĹÂÄż´Â °Ë»ö´ë»óżˇĽ­ Á¦żÜ.

  003a1	8b 5d 0c	 mov	 ebx, DWORD PTR _pAttacker$[ebp]
  003a4	3b f3		 cmp	 esi, ebx
  003a6	74 64		 je	 SHORT $LN48@SendDamage

; 3896 : 							{
; 3897 : 								pTarget = (CMover *)pObj;
; 3898 : 								bTarget = ( pTarget == this );

  003a8	33 d2		 xor	 edx, edx
  003aa	3b f0		 cmp	 esi, eax
  003ac	0f 94 c2	 sete	 dl
; File C:\IAGOS\server\v18\Source\Source\_Common\Obj.h

; 180  : 	BOOL			IsDelete()	{ return (m_dwFlags & OBJ_FLAG_DELETE);  }

  003af	f6 46 04 01	 test	 BYTE PTR [esi+4], 1

; 327  : 	return pObj && ( pObj->IsDelete() == FALSE ); 

  003b3	75 57		 jne	 SHORT $LN48@SendDamage
; File C:\IAGOS\server\v18\Source\Source\_AIInterface\Action.h

; 310  : 	BOOL			IsDie() { return (m_dwState & OBJSTA_DIE_ALL) ? TRUE : FALSE; }

  003b5	8b be 38 02 00
	00		 mov	 edi, DWORD PTR [esi+568]
; File C:\IAGOS\server\v18\Source\Source\_Common\Mover.h

; 1251 : 	BOOL			IsLive() { return m_pActMover->IsDie() == FALSE || m_nHitPoint > 0; }		// && ¸¦  ||·Î ąŮ˛ĺŔ˝.  !=¸¦ >·Î ąŮ˛Ţ

  003bb	f7 47 04 00 00
	00 08		 test	 DWORD PTR [edi+4], 134217728 ; 08000000H
  003c2	74 09		 je	 SHORT $LN175@SendDamage
  003c4	83 be f8 05 00
	00 00		 cmp	 DWORD PTR [esi+1528], 0
  003cb	7e 3f		 jle	 SHORT $LN48@SendDamage
$LN175@SendDamage:
; File C:\IAGOS\server\v18\Source\Source\_Common\MoverSkill.cpp

; 3901 : 									if( pProp->dwComboStyle == CT_FINISH )

  003cd	8b 45 fc	 mov	 eax, DWORD PTR _pProp$1$[ebp]
  003d0	8b 4d 14	 mov	 ecx, DWORD PTR _nAttackID$[ebp]
  003d3	c1 e1 10	 shl	 ecx, 16			; 00000010H
  003d6	83 b8 18 02 00
	00 03		 cmp	 DWORD PTR [eax+536], 3
  003dd	75 14		 jne	 SHORT $LN47@SendDamage

; 3902 : 										pTarget->m_pActMover->SendDamageForce( nDmgType, pAttacker->GetId(), (nAttackID << 16), bTarget );

  003df	52		 push	 edx
  003e0	51		 push	 ecx
  003e1	ff b3 bc 01 00
	00		 push	 DWORD PTR [ebx+444]
  003e7	8b cf		 mov	 ecx, edi
  003e9	ff 75 08	 push	 DWORD PTR _nDmgType$[ebp]
  003ec	e8 00 00 00 00	 call	 ?SendDamageForce@CActionMover@@QAEHKKHH@Z ; CActionMover::SendDamageForce
  003f1	eb 16		 jmp	 SHORT $LN231@SendDamage
$LN47@SendDamage:
; File C:\IAGOS\server\v18\Source\Source\_AIInterface\ActionMover.h

; 134  : 	int				SendDamage( DWORD dwAtkFlags, OBJID idSender, int nParam = 0, BOOL bTarget = TRUE, int nReflect = 0 )	{	return SendActMsg( OBJMSG_DAMAGE, dwAtkFlags, idSender, nParam, bTarget, nReflect );	}

  003f3	8b 07		 mov	 eax, DWORD PTR [edi]
  003f5	6a 00		 push	 0
  003f7	52		 push	 edx
  003f8	51		 push	 ecx
  003f9	ff b3 bc 01 00
	00		 push	 DWORD PTR [ebx+444]
  003ff	8b cf		 mov	 ecx, edi
  00401	ff 75 08	 push	 DWORD PTR _nDmgType$[ebp]
  00404	6a 29		 push	 41			; 00000029H
  00406	ff 50 04	 call	 DWORD PTR [eax+4]
$LN231@SendDamage:
; File C:\IAGOS\server\v18\Source\Source\_Common\MoverSkill.cpp

; 3914 : 		END_LINKMAP

  00409	8b 4d e0	 mov	 ecx, DWORD PTR ___limit$1$[ebp]
$LN48@SendDamage:
  0040c	8b b6 80 01 00
	00		 mov	 esi, DWORD PTR [esi+384]
  00412	85 f6		 test	 esi, esi
  00414	0f 85 f6 fe ff
	ff		 jne	 $LL11@SendDamage
$LN179@SendDamage:
  0041a	8b 55 dc	 mov	 edx, DWORD PTR tv1861[ebp]
  0041d	8b 5d d8	 mov	 ebx, DWORD PTR tv1938[ebp]
$LN8@SendDamage:

; 3879 : 		FOR_LINKMAP( GetWorld(), vPos, pObj, nRange, CObj::linkPlayer, GetLayer() )

  00420	83 c2 04	 add	 edx, 4
  00423	83 eb 01	 sub	 ebx, 1
  00426	89 55 dc	 mov	 DWORD PTR tv1861[ebp], edx
  00429	89 5d d8	 mov	 DWORD PTR tv1938[ebp], ebx
  0042c	0f 85 ce fe ff
	ff		 jne	 $LL10@SendDamage
  00432	8b 55 cc	 mov	 edx, DWORD PTR __j$1$[ebp]
  00435	8b 45 c8	 mov	 eax, DWORD PTR $T3[ebp]
  00438	8b 4d d4	 mov	 ecx, DWORD PTR __k$1$[ebp]
  0043b	8b 75 b0	 mov	 esi, DWORD PTR tv1882[ebp]
  0043e	8b 5d f4	 mov	 ebx, DWORD PTR __nMaxWidth$1$[ebp]
  00441	8b 7d d0	 mov	 edi, DWORD PTR tv1931[ebp]
$LN5@SendDamage:
  00444	42		 inc	 edx
  00445	03 c3		 add	 eax, ebx
  00447	89 55 cc	 mov	 DWORD PTR __j$1$[ebp], edx
  0044a	89 45 c8	 mov	 DWORD PTR $T3[ebp], eax
  0044d	3b d7		 cmp	 edx, edi
  0044f	0f 8e 8b fe ff
	ff		 jle	 $LL7@SendDamage
$LN2@SendDamage:
  00455	8b 5d f8	 mov	 ebx, DWORD PTR _this$1$[ebp]
  00458	8b 75 f0	 mov	 esi, DWORD PTR __i$1$[ebp]
  0045b	46		 inc	 esi
  0045c	89 75 f0	 mov	 DWORD PTR __i$1$[ebp], esi
  0045f	ff b3 b8 01 00
	00		 push	 DWORD PTR [ebx+440]
  00465	8b 8b 6c 01 00
	00		 mov	 ecx, DWORD PTR [ebx+364]
  0046b	6a 02		 push	 2
  0046d	83 c1 24	 add	 ecx, 36			; 00000024H
  00470	e8 00 00 00 00	 call	 ?GetMaxLinkLevel@CLayeredLinkMap@@QAEHKH@Z ; CLayeredLinkMap::GetMaxLinkLevel
  00475	3b f0		 cmp	 esi, eax
  00477	0f 8c 53 fd ff
	ff		 jl	 $LL4@SendDamage
$LN181@SendDamage:

; 3915 : 	}
; 3916 : 
; 3917 : 	// Ŕűżë´ë»óŔĚ ¸ó˝şĹÍŔÎ°ˇ.
; 3918 : 	if( nApplyType & OBJTYPE_MONSTER )

  0047d	8b 45 10	 mov	 eax, DWORD PTR _nApplyType$[ebp]
  00480	f3 0f 10 45 a4	 movss	 xmm0, DWORD PTR _vPos$[ebp]
  00485	f3 0f 10 55 ac	 movss	 xmm2, DWORD PTR _vPos$[ebp+8]
$LN3@SendDamage:
  0048a	a8 02		 test	 al, 2
  0048c	0f 84 48 03 00
	00		 je	 $LN14@SendDamage

; 3919 : 	{
; 3920 : 		FOR_LINKMAP( GetWorld(), vPos, pObj, nRange, CObj::linkDynamic, GetLayer() )

  00492	8b 8b 6c 01 00
	00		 mov	 ecx, DWORD PTR [ebx+364]
  00498	33 ff		 xor	 edi, edi
  0049a	ff b3 b8 01 00
	00		 push	 DWORD PTR [ebx+440]
  004a0	89 7d e4	 mov	 DWORD PTR __i$1$[ebp], edi
  004a3	6a 01		 push	 1
  004a5	66 0f 6e 49 14	 movd	 xmm1, DWORD PTR [ecx+20]
  004aa	83 c1 24	 add	 ecx, 36			; 00000024H
  004ad	0f 5b c9	 cvtdq2ps xmm1, xmm1
  004b0	f3 0f 5e c1	 divss	 xmm0, xmm1
  004b4	f3 0f 2c f0	 cvttss2si esi, xmm0
  004b8	0f 28 c2	 movaps	 xmm0, xmm2
  004bb	f3 0f 5e c1	 divss	 xmm0, xmm1
  004bf	89 75 b0	 mov	 DWORD PTR __nLinkX$1$[ebp], esi
  004c2	f3 0f 2c c0	 cvttss2si eax, xmm0
  004c6	89 45 c8	 mov	 DWORD PTR __nLinkZ$1$[ebp], eax
  004c9	e8 00 00 00 00	 call	 ?GetMaxLinkLevel@CLayeredLinkMap@@QAEHKH@Z ; CLayeredLinkMap::GetMaxLinkLevel
  004ce	85 c0		 test	 eax, eax
  004d0	0f 8e 04 03 00
	00		 jle	 $LN14@SendDamage
  004d6	8b 45 ec	 mov	 eax, DWORD PTR _nRange$1$[ebp]
  004d9	8b ce		 mov	 ecx, esi
  004db	8b 55 c8	 mov	 edx, DWORD PTR __nLinkZ$1$[ebp]
  004de	2b c8		 sub	 ecx, eax
  004e0	2b d0		 sub	 edx, eax
  004e2	89 4d b4	 mov	 DWORD PTR tv1900[ebp], ecx
  004e5	89 55 bc	 mov	 DWORD PTR tv1898[ebp], edx
  004e8	8d 14 06	 lea	 edx, DWORD PTR [esi+eax]
  004eb	03 45 c8	 add	 eax, DWORD PTR __nLinkZ$1$[ebp]
  004ee	89 55 c0	 mov	 DWORD PTR tv1895[ebp], edx
  004f1	89 45 c4	 mov	 DWORD PTR tv1893[ebp], eax
  004f4	0f 1f 40 00 0f
	1f 84 00 00 00
	00 00		 npad	 12
$LL15@SendDamage:
  00500	ff b3 b8 01 00
	00		 push	 DWORD PTR [ebx+440]
  00506	8b 8b 6c 01 00
	00		 mov	 ecx, DWORD PTR [ebx+364]
  0050c	57		 push	 edi
  0050d	6a 01		 push	 1
  0050f	83 c1 24	 add	 ecx, 36			; 00000024H
  00512	e8 00 00 00 00	 call	 ?GetLinkWidth@CLayeredLinkMap@@QAEHKHH@Z ; CLayeredLinkMap::GetLinkWidth
  00517	ff b3 b8 01 00
	00		 push	 DWORD PTR [ebx+440]
  0051d	8b 8b 6c 01 00
	00		 mov	 ecx, DWORD PTR [ebx+364]
  00523	8b f0		 mov	 esi, eax
  00525	57		 push	 edi
  00526	6a 01		 push	 1
  00528	83 c1 24	 add	 ecx, 36			; 00000024H
  0052b	e8 00 00 00 00	 call	 ?GetObj@CLayeredLinkMap@@QAEPAPAVCObj@@KKH@Z ; CLayeredLinkMap::GetObj
  00530	8b 8b 6c 01 00
	00		 mov	 ecx, DWORD PTR [ebx+364]
  00536	89 45 e8	 mov	 DWORD PTR __pObjs$1$[ebp], eax
  00539	8b 51 08	 mov	 edx, DWORD PTR [ecx+8]
  0053c	8b 41 04	 mov	 eax, DWORD PTR [ecx+4]
  0053f	8b d8		 mov	 ebx, eax
  00541	0f af d6	 imul	 edx, esi
  00544	c1 e0 07	 shl	 eax, 7
  00547	0f af de	 imul	 ebx, esi
  0054a	8b 71 14	 mov	 esi, DWORD PTR [ecx+20]
  0054d	89 55 cc	 mov	 DWORD PTR tv1869[ebp], edx
  00550	99		 cdq
  00551	f7 fb		 idiv	 ebx
  00553	89 5d 10	 mov	 DWORD PTR __nMaxWidth$1$[ebp], ebx
  00556	8b f8		 mov	 edi, eax
  00558	8b c6		 mov	 eax, esi
  0055a	0f af c7	 imul	 eax, edi
  0055d	99		 cdq
  0055e	2b c2		 sub	 eax, edx
  00560	8b c8		 mov	 ecx, eax
  00562	8b 45 b0	 mov	 eax, DWORD PTR __nLinkX$1$[ebp]
  00565	99		 cdq
  00566	f7 ff		 idiv	 edi
  00568	f3 0f 2c 45 a4	 cvttss2si eax, DWORD PTR _vPos$[ebp]
  0056d	2b 55 b0	 sub	 edx, DWORD PTR __nLinkX$1$[ebp]
  00570	d1 f9		 sar	 ecx, 1
  00572	0f af d6	 imul	 edx, esi
  00575	03 d0		 add	 edx, eax
  00577	33 c0		 xor	 eax, eax
  00579	3b d1		 cmp	 edx, ecx
  0057b	0f 9f c0	 setg	 al
  0057e	33 db		 xor	 ebx, ebx
  00580	89 45 b8	 mov	 DWORD PTR __nX$1$[ebp], eax
  00583	8b 45 c8	 mov	 eax, DWORD PTR __nLinkZ$1$[ebp]
  00586	99		 cdq
  00587	f7 ff		 idiv	 edi
  00589	f3 0f 2c 45 ac	 cvttss2si eax, DWORD PTR _vPos$[ebp+8]
  0058e	2b 55 c8	 sub	 edx, DWORD PTR __nLinkZ$1$[ebp]
  00591	0f af d6	 imul	 edx, esi
  00594	03 d0		 add	 edx, eax
  00596	8b 45 b4	 mov	 eax, DWORD PTR tv1900[ebp]
  00599	3b d1		 cmp	 edx, ecx
  0059b	99		 cdq
  0059c	0f 9f c3	 setg	 bl
  0059f	33 c9		 xor	 ecx, ecx
  005a1	f7 ff		 idiv	 edi
  005a3	48		 dec	 eax
  005a4	03 45 b8	 add	 eax, DWORD PTR __nX$1$[ebp]
  005a7	0f 49 c8	 cmovns	 ecx, eax
  005aa	8b 45 bc	 mov	 eax, DWORD PTR tv1898[ebp]
  005ad	99		 cdq
  005ae	f7 ff		 idiv	 edi
  005b0	89 4d d4	 mov	 DWORD PTR __k$1$[ebp], ecx
  005b3	8d 4b ff	 lea	 ecx, DWORD PTR [ebx-1]
  005b6	03 c8		 add	 ecx, eax
  005b8	8b 45 c0	 mov	 eax, DWORD PTR tv1895[ebp]
  005bb	99		 cdq
  005bc	f7 ff		 idiv	 edi
  005be	8b 55 10	 mov	 edx, DWORD PTR __nMaxWidth$1$[ebp]
  005c1	03 45 b8	 add	 eax, DWORD PTR __nX$1$[ebp]
  005c4	3b c2		 cmp	 eax, edx
  005c6	8d 72 ff	 lea	 esi, DWORD PTR [edx-1]
  005c9	0f 4c f0	 cmovl	 esi, eax
  005cc	8b 45 c4	 mov	 eax, DWORD PTR tv1893[ebp]
  005cf	99		 cdq
  005d0	f7 ff		 idiv	 edi
  005d2	8b 55 cc	 mov	 edx, DWORD PTR tv1869[ebp]
  005d5	89 75 b8	 mov	 DWORD PTR tv1864[ebp], esi
  005d8	03 c3		 add	 eax, ebx
  005da	3b c2		 cmp	 eax, edx
  005dc	8d 5a ff	 lea	 ebx, DWORD PTR [edx-1]
  005df	0f 4c d8	 cmovl	 ebx, eax
  005e2	33 d2		 xor	 edx, edx
  005e4	85 c9		 test	 ecx, ecx
  005e6	89 5d d8	 mov	 DWORD PTR tv1937[ebp], ebx
  005e9	0f 49 d1	 cmovns	 edx, ecx
  005ec	89 55 dc	 mov	 DWORD PTR __j$1$[ebp], edx
  005ef	3b d3		 cmp	 edx, ebx
  005f1	0f 8f 87 01 00
	00		 jg	 $LN13@SendDamage
  005f7	8b 4d 10	 mov	 ecx, DWORD PTR __nMaxWidth$1$[ebp]
  005fa	8b c2		 mov	 eax, edx
  005fc	8b 5d d4	 mov	 ebx, DWORD PTR __k$1$[ebp]
  005ff	8b 7d d8	 mov	 edi, DWORD PTR tv1937[ebp]
  00602	0f af c1	 imul	 eax, ecx
  00605	03 c3		 add	 eax, ebx
  00607	89 45 e0	 mov	 DWORD PTR $T4[ebp], eax
  0060a	66 0f 1f 44 00
	00		 npad	 6
$LL18@SendDamage:
  00610	3b de		 cmp	 ebx, esi
  00612	0f 8f 55 01 00
	00		 jg	 $LN16@SendDamage
  00618	8b 4d e8	 mov	 ecx, DWORD PTR __pObjs$1$[ebp]
  0061b	8b d6		 mov	 edx, esi
  0061d	2b d3		 sub	 edx, ebx
  0061f	42		 inc	 edx
  00620	89 55 d0	 mov	 DWORD PTR tv1941[ebp], edx
  00623	8d 0c 81	 lea	 ecx, DWORD PTR [ecx+eax*4]
  00626	89 4d cc	 mov	 DWORD PTR tv1850[ebp], ecx
  00629	0f 1f 80 00 00
	00 00		 npad	 7
$LL21@SendDamage:
  00630	8b 31		 mov	 esi, DWORD PTR [ecx]
  00632	bf e8 03 00 00	 mov	 edi, 1000		; 000003e8H
  00637	85 f6		 test	 esi, esi
  00639	0f 84 0a 01 00
	00		 je	 $LN19@SendDamage
  0063f	90		 npad	 1
$LL22@SendDamage:
  00640	8b c7		 mov	 eax, edi
  00642	4f		 dec	 edi
  00643	85 c0		 test	 eax, eax
  00645	0f 84 f8 00 00
	00		 je	 $LN180@SendDamage

; 3922 : 			if( pObj->GetType() == OT_MOVER && ((CMover *)pObj)->IsPeaceful() == FALSE )

  0064b	83 be 70 01 00
	00 05		 cmp	 DWORD PTR [esi+368], 5
  00652	0f 85 dd 00 00
	00		 jne	 $LN61@SendDamage
; File C:\IAGOS\server\v18\Source\Source\_Common\Mover.h

; 1120 : 	BOOL			IsPeaceful() { return m_dwBelligerence == BELLI_PEACEFUL; }

  00658	83 be 64 06 00
	00 01		 cmp	 DWORD PTR [esi+1636], 1
; File C:\IAGOS\server\v18\Source\Source\_Common\MoverSkill.cpp

; 3922 : 			if( pObj->GetType() == OT_MOVER && ((CMover *)pObj)->IsPeaceful() == FALSE )

  0065f	0f 84 d0 00 00
	00		 je	 $LN61@SendDamage
; File C:\IAGOS\server\v18\Source\Source\_Common\Obj.h

; 215  : 	D3DXVECTOR3		GetPos()	{ return m_vPos; }

  00665	f3 0f 7e 86 60
	01 00 00	 movq	 xmm0, QWORD PTR [esi+352]
  0066d	8b 86 68 01 00
	00		 mov	 eax, DWORD PTR [esi+360]
  00673	66 0f d6 45 98	 movq	 QWORD PTR $T2[ebp], xmm0
; File C:\IAGOS\server\v18\Source\Source\DX_SDK\d3dx9math.inl

; 383  :     return D3DXVECTOR3(x - v.x, y - v.y, z - v.z);

  00678	f3 0f 10 45 9c	 movss	 xmm0, DWORD PTR $T2[ebp+4]
  0067d	f3 0f 10 55 98	 movss	 xmm2, DWORD PTR $T2[ebp]
  00682	f3 0f 5c 55 a4	 subss	 xmm2, DWORD PTR _vPos$[ebp]
  00687	f3 0f 5c 45 a8	 subss	 xmm0, DWORD PTR _vPos$[ebp+4]
; File C:\IAGOS\server\v18\Source\Source\_Common\Obj.h

; 215  : 	D3DXVECTOR3		GetPos()	{ return m_vPos; }

  0068c	89 45 a0	 mov	 DWORD PTR $T2[ebp+8], eax
; File C:\IAGOS\server\v18\Source\Source\DX_SDK\d3dx9math.inl

; 383  :     return D3DXVECTOR3(x - v.x, y - v.y, z - v.z);

  0068f	f3 0f 10 4d a0	 movss	 xmm1, DWORD PTR $T2[ebp+8]
  00694	f3 0f 5c 4d ac	 subss	 xmm1, DWORD PTR _vPos$[ebp+8]

; 1698 :     return pV->x * pV->x + pV->y * pV->y + pV->z * pV->z;

  00699	f3 0f 59 d2	 mulss	 xmm2, xmm2
; File C:\IAGOS\server\v18\Source\Source\_Common\MoverSkill.cpp

; 3924 : 				vDist = pObj->GetPos() - vPos;		// this -> Ĺ¸°Ů±îÁöŔÇ ş¤ĹÍ

  0069d	f3 0f 59 c0	 mulss	 xmm0, xmm0
; File C:\IAGOS\server\v18\Source\Source\DX_SDK\d3dx9math.inl

; 1698 :     return pV->x * pV->x + pV->y * pV->y + pV->z * pV->z;

  006a1	f3 0f 59 c9	 mulss	 xmm1, xmm1
  006a5	f3 0f 58 d0	 addss	 xmm2, xmm0
; File C:\IAGOS\server\v18\Source\Source\_Common\MoverSkill.cpp

; 3926 : 				if( fDistSq < fRange * fRange )		// Ĺ¸°Ů°úŔÇ °Ĺ¸®°ˇ fRangeąĚĹÍ ŔĚł»ŔÎ°ÍŔ» ´ë»óŔ¸·Î.

  006a9	f3 0f 10 45 18	 movss	 xmm0, DWORD PTR _fRange$[ebp]
  006ae	f3 0f 59 c0	 mulss	 xmm0, xmm0
; File C:\IAGOS\server\v18\Source\Source\DX_SDK\d3dx9math.inl

; 1698 :     return pV->x * pV->x + pV->y * pV->y + pV->z * pV->z;

  006b2	f3 0f 58 d1	 addss	 xmm2, xmm1
; File C:\IAGOS\server\v18\Source\Source\_Common\MoverSkill.cpp

; 3926 : 				if( fDistSq < fRange * fRange )		// Ĺ¸°Ů°úŔÇ °Ĺ¸®°ˇ fRangeąĚĹÍ ŔĚł»ŔÎ°ÍŔ» ´ë»óŔ¸·Î.

  006b6	0f 2f c2	 comiss	 xmm0, xmm2
  006b9	76 7a		 jbe	 SHORT $LN61@SendDamage

; 3927 : 				{
; 3928 : 					if( pObj == this && fTargetRatio == 0.0f )	// Ĺ¸°ŮµĄąĚÁö şńŔ˛ŔĚ 0ŔĚ¸é ŔÚ±âŔÚ˝Ĺ(Ĺ¸°Ů)Ŕş µĄąĚÁö¸¦ ÁÖÁöľĘŔ˝.

  006bb	3b 75 f8	 cmp	 esi, DWORD PTR _this$1$[ebp]
  006be	75 12		 jne	 SHORT $LN56@SendDamage
  006c0	f3 0f 10 45 1c	 movss	 xmm0, DWORD PTR _fTargetRatio$[ebp]
  006c5	0f 2e 05 00 00
	00 00		 ucomiss xmm0, DWORD PTR __real@00000000
  006cc	9f		 lahf
  006cd	f6 c4 44	 test	 ah, 68			; 00000044H
  006d0	7b 63		 jnp	 SHORT $LN61@SendDamage
$LN56@SendDamage:

; 3929 : 					{
; 3930 : 					} else
; 3931 : 					{
; 3932 : 						if( pObj != pAttacker )		// °ř°ÝŔÚ´Â °Ë»ç´ë»óżˇĽ­ Á¦żÜ.

  006d2	8b 5d 0c	 mov	 ebx, DWORD PTR _pAttacker$[ebp]
  006d5	3b f3		 cmp	 esi, ebx
  006d7	74 5c		 je	 SHORT $LN61@SendDamage
; File C:\IAGOS\server\v18\Source\Source\_Common\Obj.h

; 180  : 	BOOL			IsDelete()	{ return (m_dwFlags & OBJ_FLAG_DELETE);  }

  006d9	f6 46 04 01	 test	 BYTE PTR [esi+4], 1

; 327  : 	return pObj && ( pObj->IsDelete() == FALSE ); 

  006dd	75 56		 jne	 SHORT $LN61@SendDamage
; File C:\IAGOS\server\v18\Source\Source\_AIInterface\Action.h

; 310  : 	BOOL			IsDie() { return (m_dwState & OBJSTA_DIE_ALL) ? TRUE : FALSE; }

  006df	8b 96 38 02 00
	00		 mov	 edx, DWORD PTR [esi+568]
; File C:\IAGOS\server\v18\Source\Source\_Common\Mover.h

; 1251 : 	BOOL			IsLive() { return m_pActMover->IsDie() == FALSE || m_nHitPoint > 0; }		// && ¸¦  ||·Î ąŮ˛ĺŔ˝.  !=¸¦ >·Î ąŮ˛Ţ

  006e5	f7 42 04 00 00
	00 08		 test	 DWORD PTR [edx+4], 134217728 ; 08000000H
  006ec	74 09		 je	 SHORT $LN173@SendDamage
  006ee	83 be f8 05 00
	00 00		 cmp	 DWORD PTR [esi+1528], 0
  006f5	7e 3e		 jle	 SHORT $LN61@SendDamage
$LN173@SendDamage:
; File C:\IAGOS\server\v18\Source\Source\_Common\MoverSkill.cpp

; 3937 : 								if( pProp->dwComboStyle == CT_FINISH )

  006f7	8b 45 fc	 mov	 eax, DWORD PTR _pProp$1$[ebp]
  006fa	8b 4d 14	 mov	 ecx, DWORD PTR _nAttackID$[ebp]
  006fd	c1 e1 10	 shl	 ecx, 16			; 00000010H
  00700	83 b8 18 02 00
	00 03		 cmp	 DWORD PTR [eax+536], 3
  00707	75 15		 jne	 SHORT $LN60@SendDamage

; 3938 : 									pTarget->m_pActMover->SendDamageForce( nDmgType, pAttacker->GetId(), (nAttackID << 16) );

  00709	6a 01		 push	 1
  0070b	51		 push	 ecx
  0070c	ff b3 bc 01 00
	00		 push	 DWORD PTR [ebx+444]
  00712	8b ca		 mov	 ecx, edx
  00714	ff 75 08	 push	 DWORD PTR _nDmgType$[ebp]
  00717	e8 00 00 00 00	 call	 ?SendDamageForce@CActionMover@@QAEHKKHH@Z ; CActionMover::SendDamageForce
  0071c	eb 17		 jmp	 SHORT $LN61@SendDamage
$LN60@SendDamage:
; File C:\IAGOS\server\v18\Source\Source\_AIInterface\ActionMover.h

; 134  : 	int				SendDamage( DWORD dwAtkFlags, OBJID idSender, int nParam = 0, BOOL bTarget = TRUE, int nReflect = 0 )	{	return SendActMsg( OBJMSG_DAMAGE, dwAtkFlags, idSender, nParam, bTarget, nReflect );	}

  0071e	8b 02		 mov	 eax, DWORD PTR [edx]
  00720	6a 00		 push	 0
  00722	6a 01		 push	 1
  00724	51		 push	 ecx
  00725	ff b3 bc 01 00
	00		 push	 DWORD PTR [ebx+444]
  0072b	8b ca		 mov	 ecx, edx
  0072d	ff 75 08	 push	 DWORD PTR _nDmgType$[ebp]
  00730	6a 29		 push	 41			; 00000029H
  00732	ff 50 04	 call	 DWORD PTR [eax+4]
$LN61@SendDamage:
; File C:\IAGOS\server\v18\Source\Source\_Common\MoverSkill.cpp

; 3947 : 		END_LINKMAP

  00735	8b b6 80 01 00
	00		 mov	 esi, DWORD PTR [esi+384]
  0073b	85 f6		 test	 esi, esi
  0073d	0f 85 fd fe ff
	ff		 jne	 $LL22@SendDamage
$LN180@SendDamage:
  00743	8b 4d cc	 mov	 ecx, DWORD PTR tv1850[ebp]
  00746	8b 55 d0	 mov	 edx, DWORD PTR tv1941[ebp]
$LN19@SendDamage:

; 3919 : 	{
; 3920 : 		FOR_LINKMAP( GetWorld(), vPos, pObj, nRange, CObj::linkDynamic, GetLayer() )

  00749	83 c1 04	 add	 ecx, 4
  0074c	83 ea 01	 sub	 edx, 1
  0074f	89 4d cc	 mov	 DWORD PTR tv1850[ebp], ecx
  00752	89 55 d0	 mov	 DWORD PTR tv1941[ebp], edx
  00755	0f 85 d5 fe ff
	ff		 jne	 $LL21@SendDamage
  0075b	8b 55 dc	 mov	 edx, DWORD PTR __j$1$[ebp]
  0075e	8b 45 e0	 mov	 eax, DWORD PTR $T4[ebp]
  00761	8b 5d d4	 mov	 ebx, DWORD PTR __k$1$[ebp]
  00764	8b 75 b8	 mov	 esi, DWORD PTR tv1864[ebp]
  00767	8b 4d 10	 mov	 ecx, DWORD PTR __nMaxWidth$1$[ebp]
  0076a	8b 7d d8	 mov	 edi, DWORD PTR tv1937[ebp]
$LN16@SendDamage:
  0076d	42		 inc	 edx
  0076e	03 c1		 add	 eax, ecx
  00770	89 55 dc	 mov	 DWORD PTR __j$1$[ebp], edx
  00773	89 45 e0	 mov	 DWORD PTR $T4[ebp], eax
  00776	3b d7		 cmp	 edx, edi
  00778	0f 8e 92 fe ff
	ff		 jle	 $LL18@SendDamage
$LN13@SendDamage:
  0077e	8b 5d f8	 mov	 ebx, DWORD PTR _this$1$[ebp]
  00781	8b 7d e4	 mov	 edi, DWORD PTR __i$1$[ebp]
  00784	47		 inc	 edi
  00785	89 7d e4	 mov	 DWORD PTR __i$1$[ebp], edi
  00788	ff b3 b8 01 00
	00		 push	 DWORD PTR [ebx+440]
  0078e	8b 8b 6c 01 00
	00		 mov	 ecx, DWORD PTR [ebx+364]
  00794	6a 01		 push	 1
  00796	83 c1 24	 add	 ecx, 36			; 00000024H
  00799	e8 00 00 00 00	 call	 ?GetMaxLinkLevel@CLayeredLinkMap@@QAEHKH@Z ; CLayeredLinkMap::GetMaxLinkLevel
  0079e	3b f8		 cmp	 edi, eax
  007a0	0f 8c 5a fd ff
	ff		 jl	 $LL15@SendDamage

; 3948 : 	}
; 3949 : 		
; 3950 : #endif // WORLDSERVER		
; 3951 : } // SendDamageAround()

  007a6	5f		 pop	 edi
  007a7	5e		 pop	 esi
  007a8	5b		 pop	 ebx
  007a9	8b e5		 mov	 esp, ebp
  007ab	5d		 pop	 ebp
  007ac	c2 1c 00	 ret	 28			; 0000001cH
$LN134@SendDamage:
; File C:\IAGOS\server\v18\Source\Source\_Common\Project.h

; 579  : 	LPCTSTR szErr = Error( _T( "%s min:%d, max:%d, index:%d" ), szMsg, nMin, nMax, nIndex ); 

  007af	56		 push	 esi
  007b0	50		 push	 eax
  007b1	6a 00		 push	 0
  007b3	68 00 00 00 00	 push	 OFFSET ??_C@_0BI@BEIFNGEL@GetItemProp?5range_error@
  007b8	68 00 00 00 00	 push	 OFFSET ??_C@_0BM@HMFGHCP@?$CFs?5min?3?$CFd?0?5max?3?$CFd?0?5index?3?$CFd@
  007bd	e8 00 00 00 00	 call	 ?Error@@YAPBDPBDZZ	; Error
  007c2	83 c4 14	 add	 esp, 20			; 00000014H
$LN177@SendDamage:
; File C:\IAGOS\server\v18\Source\Source\_Common\MoverSkill.cpp

; 3869 : 			Error( "CMover::SendDamageAround : %s. ľĆŔĚĹŰ(%d)ŔÇ ÇÁ·ÎĆŰĆĽ°ˇ ľ÷´Ů.", m_szName, nAttackID );

  007c5	56		 push	 esi
  007c6	8d 83 ec 14 00
	00		 lea	 eax, DWORD PTR [ebx+5356]
  007cc	50		 push	 eax
  007cd	68 00 00 00 00	 push	 OFFSET ??_C@_0DN@BLLPBDJB@CMover?3?3SendDamageAround?5?3?5?$CFs?4?5@

; 3948 : 	}
; 3949 : 		
; 3950 : #endif // WORLDSERVER		
; 3951 : } // SendDamageAround()

  007d2	e8 00 00 00 00	 call	 ?Error@@YAPBDPBDZZ	; Error
  007d7	83 c4 0c	 add	 esp, 12			; 0000000cH
$LN14@SendDamage:
  007da	5f		 pop	 edi
  007db	5e		 pop	 esi
  007dc	5b		 pop	 ebx
  007dd	8b e5		 mov	 esp, ebp
  007df	5d		 pop	 ebp
  007e0	c2 1c 00	 ret	 28			; 0000001cH
?SendDamageAround@CMover@@QAEXHPAV1@HHMMM@Z ENDP	; CMover::SendDamageAround
_TEXT	ENDS
; Function compile flags: /Ogtp
; File C:\IAGOS\server\v18\Source\Source\_Common\MoverSkill.cpp
; File C:\IAGOS\server\v18\Source\Source\_Common\Mover.h
; File C:\IAGOS\server\v18\Source\Source\_Common\Obj.h
; File C:\IAGOS\server\v18\Source\Source\_Common\MoverSkill.cpp
; File C:\IAGOS\server\v18\Source\Source\_Common\Mover.h
; File C:\IAGOS\server\v18\Source\Source\_Common\MoverSkill.cpp
;	COMDAT ?DoAttackMelee@CMover@@QAEHPAV1@W4OBJMSG@@K@Z
_TEXT	SEGMENT
_pTarget$ = 8						; size = 4
$T1 = 8							; size = 4
_dwMsg$ = 12						; size = 4
_dwItemID$ = 16						; size = 4
?DoAttackMelee@CMover@@QAEHPAV1@W4OBJMSG@@K@Z PROC	; CMover::DoAttackMelee, COMDAT
; _this$ = ecx

; 3729 : {

  00000	55		 push	 ebp
  00001	8b ec		 mov	 ebp, esp
  00003	53		 push	 ebx
  00004	57		 push	 edi
  00005	8b f9		 mov	 edi, ecx
; File C:\IAGOS\server\v18\Source\Source\_Common\Mover.h

; 1785 : 	if( m_pActMover )	

  00007	8b 8f 38 02 00
	00		 mov	 ecx, DWORD PTR [edi+568]
  0000d	85 c9		 test	 ecx, ecx
  0000f	74 11		 je	 SHORT $LN10@DoAttackMe

; 1786 : 		return m_pActMover->SendActMsg( dwMsg, nParam1, nParam2, nParam3, nParam4 );	

  00011	8b 01		 mov	 eax, DWORD PTR [ecx]
  00013	6a 00		 push	 0
  00015	6a 00		 push	 0
  00017	6a 00		 push	 0
  00019	6a 00		 push	 0
  0001b	6a 00		 push	 0
  0001d	6a 06		 push	 6
  0001f	ff 50 04	 call	 DWORD PTR [eax+4]
$LN10@DoAttackMe:
; File C:\IAGOS\server\v18\Source\Source\_Common\Obj.h

; 327  : 	return pObj && ( pObj->IsDelete() == FALSE ); 

  00022	8b 5d 08	 mov	 ebx, DWORD PTR _pTarget$[ebp]
  00025	85 db		 test	 ebx, ebx
  00027	0f 84 b6 00 00
	00		 je	 $LN27@DoAttackMe

; 180  : 	BOOL			IsDelete()	{ return (m_dwFlags & OBJ_FLAG_DELETE);  }

  0002d	f6 43 04 01	 test	 BYTE PTR [ebx+4], 1

; 327  : 	return pObj && ( pObj->IsDelete() == FALSE ); 

  00031	0f 85 ac 00 00
	00		 jne	 $LN27@DoAttackMe
; File C:\IAGOS\server\v18\Source\Source\_Common\MoverSkill.cpp

; 3736 : 	if( dwItemID == NULL_ID || dwItemID == 0 )	

  00037	56		 push	 esi
  00038	8b 75 10	 mov	 esi, DWORD PTR _dwItemID$[ebp]
  0003b	83 fe ff	 cmp	 esi, -1
  0003e	74 11		 je	 SHORT $LN5@DoAttackMe
  00040	85 f6		 test	 esi, esi
  00042	74 0d		 je	 SHORT $LN5@DoAttackMe

; 3738 : 	else
; 3739 : 		pItemProp = prj.GetItemProp( dwItemID );	// Á÷Á˘ ľĆŔĚĹŰŔ» ÁöÁ¤ÇŃ °ćżě´Â ±×°É·Î °ř°ÝÇÔ(¸ó˝şĹÍ°ˇ ÁÖ·Î »çżëÇÔ)

  00044	56		 push	 esi
  00045	b9 00 00 00 00	 mov	 ecx, OFFSET ?prj@@3VCProject@@A ; prj
  0004a	e8 00 00 00 00	 call	 ?GetItemProp@CProject@@QAEPAUItemProp@@H@Z ; CProject::GetItemProp
  0004f	eb 09		 jmp	 SHORT $LN4@DoAttackMe
$LN5@DoAttackMe:

; 3737 : 		pItemProp = GetActiveHandItemProp();	// ŔĚ·±°ćżě´Â °Á ĽŐżˇ µç ą«±â(Č¤Ŕş ±âş»ľĆŔĚĹŰ)

  00051	6a 0a		 push	 10			; 0000000aH
  00053	8b cf		 mov	 ecx, edi
  00055	e8 00 00 00 00	 call	 ?GetActiveHandItemProp@CMover@@QAEPAUItemProp@@H@Z ; CMover::GetActiveHandItemProp
$LN4@DoAttackMe:

; 3740 : 	if( pItemProp == NULL )

  0005a	85 c0		 test	 eax, eax
  0005c	75 20		 jne	 SHORT $LN6@DoAttackMe

; 3741 : 	{
; 3742 : 		Error( "DoAttackMelee : %s ŔÇ ItemPropŔĚ NULL %d", GetName(), (int)dwItemID );

  0005e	56		 push	 esi
  0005f	50		 push	 eax
  00060	8b cf		 mov	 ecx, edi
  00062	e8 00 00 00 00	 call	 ?GetName@CMover@@QAEPBDH@Z ; CMover::GetName
  00067	50		 push	 eax
  00068	68 00 00 00 00	 push	 OFFSET ??_C@_0CJ@BKJEKCBD@DoAttackMelee?5?3?5?$CFs?5?$MA?G?5ItemProp?$MA@
  0006d	e8 00 00 00 00	 call	 ?Error@@YAPBDPBDZZ	; Error
  00072	83 c4 0c	 add	 esp, 12			; 0000000cH

; 3743 : 		return FALSE;

  00075	33 c0		 xor	 eax, eax
  00077	5e		 pop	 esi
  00078	5f		 pop	 edi

; 3780 : }	

  00079	5b		 pop	 ebx
  0007a	5d		 pop	 ebp
  0007b	c2 0c 00	 ret	 12			; 0000000cH
$LN6@DoAttackMe:
; File C:\IAGOS\server\v18\Source\Source\_Common\Mover.h

; 1785 : 	if( m_pActMover )	

  0007e	8b 8f 38 02 00
	00		 mov	 ecx, DWORD PTR [edi+568]
  00084	85 c9		 test	 ecx, ecx
  00086	74 4f		 je	 SHORT $LN7@DoAttackMe

; 1786 : 		return m_pActMover->SendActMsg( dwMsg, nParam1, nParam2, nParam3, nParam4 );	

  00088	8b 01		 mov	 eax, DWORD PTR [ecx]
  0008a	6a 00		 push	 0
  0008c	6a 00		 push	 0
  0008e	6a 00		 push	 0
  00090	6a 00		 push	 0
  00092	ff b3 bc 01 00
	00		 push	 DWORD PTR [ebx+444]
  00098	ff 75 0c	 push	 DWORD PTR _dwMsg$[ebp]
  0009b	ff 50 04	 call	 DWORD PTR [eax+4]
  0009e	89 45 08	 mov	 DWORD PTR $T1[ebp], eax
; File C:\IAGOS\server\v18\Source\Source\_Common\MoverSkill.cpp

; 3748 : 	if( nError > 0 )

  000a1	85 c0		 test	 eax, eax
  000a3	7e 32		 jle	 SHORT $LN7@DoAttackMe

; 3749 : 	{
; 3750 : 		SetActParam( OBJACT_MELEE_ATTACK, pTarget->GetId(), (int)dwItemID );	// OnAttackMeleeżˇĽ­ ľµĽö ŔÖµµ·Ď ĆÄ¶ó¸ŢĹÍ µî·Ď.

  000a5	6a 00		 push	 0
  000a7	56		 push	 esi
  000a8	ff b3 bc 01 00
	00		 push	 DWORD PTR [ebx+444]
  000ae	8b cf		 mov	 ecx, edi
  000b0	6a 01		 push	 1
  000b2	e8 00 00 00 00	 call	 ?SetActParam@CMover@@AAEXW4OBJACT@@HHH@Z ; CMover::SetActParam

; 3751 : 
; 3752 : #ifdef __CLIENT
; 3753 : #ifdef __HACK_1023
; 3754 : 		ItemProp* pHandItemProp		= GetActiveHandItemProp();
; 3755 : 		FLOAT fVal	= pHandItemProp? pHandItemProp->fAttackSpeed: 0.0F;
; 3756 : 		g_DPlay.SendMeleeAttack( dwMsg, pTarget->GetId(), MAKELONG( 0, 0 ), MAKELONG( 0, (WORD)nError ), fVal );
; 3757 : #else	// __HACK_1023
; 3758 : 		g_DPlay.SendMeleeAttack( dwMsg, pTarget->GetId(), MAKELONG( 0, 0 ), MAKELONG( 0, (WORD)nError ) );
; 3759 : #endif	// __HACK_1023
; 3760 : 		if( IsActiveMover() )
; 3761 : 		{
; 3762 : 			PlayCombatMusic();
; 3763 : #if __VER < 11 // __REMOVE_ENDURANCE
; 3764 : 			CItemElem* pWeapon	= GetWeaponItem();
; 3765 : 			if( pWeapon )
; 3766 : 			{
; 3767 : 				ItemProp* pItemProp		= pWeapon->GetProp();
; 3768 : 				if( pItemProp )
; 3769 : 					if( ( ( pWeapon->m_nHitPoint * 100 ) / pItemProp->dwEndurance ) == 0 )
; 3770 : 						g_WndMng.PutString( prj.GetText( TID_GAME_WASTEENDURANCE ), NULL, prj.GetTextColor( TID_GAME_WASTEENDURANCE ) );
; 3771 : 			}
; 3772 : #endif // __REMOVE_ENDURANCE
; 3773 : 		}
; 3774 : #else	// __CLIENT
; 3775 : 		g_UserMng.AddMeleeAttack( this, dwMsg, pTarget->GetId(), MAKELONG( 0, 0 ), MAKELONG( 0, (WORD)nError ) );

  000b7	8b 4d 08	 mov	 ecx, DWORD PTR $T1[ebp]
  000ba	0f b7 c1	 movzx	 eax, cx
  000bd	b9 00 00 00 00	 mov	 ecx, OFFSET ?g_UserMng@@3VCUserMng@@A ; g_UserMng
  000c2	c1 e0 10	 shl	 eax, 16			; 00000010H
  000c5	50		 push	 eax
  000c6	6a 00		 push	 0
  000c8	ff b3 bc 01 00
	00		 push	 DWORD PTR [ebx+444]
  000ce	ff 75 0c	 push	 DWORD PTR _dwMsg$[ebp]
  000d1	57		 push	 edi
  000d2	e8 00 00 00 00	 call	 ?AddMeleeAttack@CUserMng@@QAEXPAVCMover@@KKHH@Z ; CUserMng::AddMeleeAttack
$LN7@DoAttackMe:

; 3776 : #endif	// __CLIENT
; 3777 : 	}
; 3778 : 
; 3779 : 	return TRUE;	

  000d7	5e		 pop	 esi
  000d8	5f		 pop	 edi
  000d9	b8 01 00 00 00	 mov	 eax, 1

; 3780 : }	

  000de	5b		 pop	 ebx
  000df	5d		 pop	 ebp
  000e0	c2 0c 00	 ret	 12			; 0000000cH
$LN27@DoAttackMe:
  000e3	5f		 pop	 edi

; 3730 : 	SendActMsg( OBJMSG_STOP );		// Á¦ŔÚ¸® ¸ŘĂă.
; 3731 : 
; 3732 : 	if( IsInvalidObj(pTarget) )
; 3733 : 		return 0;

  000e4	33 c0		 xor	 eax, eax

; 3780 : }	

  000e6	5b		 pop	 ebx
  000e7	5d		 pop	 ebp
  000e8	c2 0c 00	 ret	 12			; 0000000cH
?DoAttackMelee@CMover@@QAEHPAV1@W4OBJMSG@@K@Z ENDP	; CMover::DoAttackMelee
_TEXT	ENDS
; Function compile flags: /Ogtp
; File C:\IAGOS\server\v18\Source\Source\_Common\MoverSkill.cpp
; File C:\IAGOS\server\v18\Source\Source\_Common\Obj.h
; File C:\IAGOS\server\v18\Source\Source\_Common\MoverSkill.cpp
; File C:\IAGOS\server\v18\Source\Source\_Common\Obj.h
; File C:\IAGOS\server\v18\Source\Source\_Common\MoverSkill.cpp
; File C:\IAGOS\server\v18\Source\Source\_Common\Obj.h
; File C:\IAGOS\server\v18\Source\Source\_Common\MoverSkill.cpp
; File C:\IAGOS\server\v18\Source\Source\_Common\Obj.h
; File C:\IAGOS\server\v18\Source\Source\_Common\MoverSkill.cpp
; File C:\IAGOS\server\v18\Source\Source\_Common\Obj.h
; File C:\IAGOS\server\v18\Source\Source\_Common\MoverSkill.cpp
; File C:\IAGOS\server\v18\Source\Source\_Common\Obj.h
; File C:\IAGOS\server\v18\Source\Source\_Common\MoverSkill.cpp
;	COMDAT ?DoAttackSP@CMover@@QAEHPAVCObj@@K@Z
_TEXT	SEGMENT
$T1 = -24						; size = 12
$T2 = -12						; size = 12
_pTargetObj$ = 8					; size = 4
_idTarget$1$ = 8					; size = 4
_dwItemID$ = 12						; size = 4
_nError$1$ = 12						; size = 4
?DoAttackSP@CMover@@QAEHPAVCObj@@K@Z PROC		; CMover::DoAttackSP, COMDAT
; _this$ = ecx

; 3676 : {

  00000	55		 push	 ebp
  00001	8b ec		 mov	 ebp, esp
  00003	83 ec 18	 sub	 esp, 24			; 00000018H
  00006	53		 push	 ebx
; File C:\IAGOS\server\v18\Source\Source\_Common\Obj.h

; 327  : 	return pObj && ( pObj->IsDelete() == FALSE ); 

  00007	8b 5d 08	 mov	 ebx, DWORD PTR _pTargetObj$[ebp]
; File C:\IAGOS\server\v18\Source\Source\_Common\MoverSkill.cpp

; 3676 : {

  0000a	57		 push	 edi
  0000b	8b f9		 mov	 edi, ecx
; File C:\IAGOS\server\v18\Source\Source\_Common\Obj.h

; 327  : 	return pObj && ( pObj->IsDelete() == FALSE ); 

  0000d	85 db		 test	 ebx, ebx
  0000f	0f 84 0f 01 00
	00		 je	 $LN22@DoAttackSP

; 180  : 	BOOL			IsDelete()	{ return (m_dwFlags & OBJ_FLAG_DELETE);  }

  00015	f6 43 04 01	 test	 BYTE PTR [ebx+4], 1

; 327  : 	return pObj && ( pObj->IsDelete() == FALSE ); 

  00019	0f 85 05 01 00
	00		 jne	 $LN22@DoAttackSP
; File C:\IAGOS\server\v18\Source\Source\_Common\MoverSkill.cpp

; 3681 : 	if( dwItemID == NULL_ID || dwItemID == 0 )	

  0001f	56		 push	 esi
  00020	8b 75 0c	 mov	 esi, DWORD PTR _dwItemID$[ebp]
  00023	83 fe ff	 cmp	 esi, -1
  00026	74 11		 je	 SHORT $LN5@DoAttackSP
  00028	85 f6		 test	 esi, esi
  0002a	74 0d		 je	 SHORT $LN5@DoAttackSP

; 3683 : 	else
; 3684 : 		pItemProp = prj.GetItemProp( dwItemID );	// Á÷Á˘ ľĆŔĚĹŰŔ» ÁöÁ¤ÇŃ °ćżě´Â ±×°É·Î °ř°ÝÇÔ(¸ó˝şĹÍ°ˇ ÁÖ·Î »çżëÇÔ)

  0002c	56		 push	 esi
  0002d	b9 00 00 00 00	 mov	 ecx, OFFSET ?prj@@3VCProject@@A ; prj
  00032	e8 00 00 00 00	 call	 ?GetItemProp@CProject@@QAEPAUItemProp@@H@Z ; CProject::GetItemProp
  00037	eb 07		 jmp	 SHORT $LN4@DoAttackSP
$LN5@DoAttackSP:

; 3682 : 		pItemProp = GetActiveHandItemProp();	// ŔĚ·±°ćżě´Â °Á ĽŐżˇ µç ą«±â(Č¤Ŕş ±âş»ľĆŔĚĹŰ)

  00039	6a 0a		 push	 10			; 0000000aH
  0003b	e8 00 00 00 00	 call	 ?GetActiveHandItemProp@CMover@@QAEPAUItemProp@@H@Z ; CMover::GetActiveHandItemProp
$LN4@DoAttackSP:

; 3685 : 	if( pItemProp == NULL )

  00040	85 c0		 test	 eax, eax
  00042	75 20		 jne	 SHORT $LN6@DoAttackSP

; 3686 : 	{
; 3687 : 		Error( "DoAttackSP : %s ŔÇ ItemPropŔĚ NULL %d", m_szName, (int)dwItemID );

  00044	56		 push	 esi
  00045	8d 87 ec 14 00
	00		 lea	 eax, DWORD PTR [edi+5356]
  0004b	50		 push	 eax
  0004c	68 00 00 00 00	 push	 OFFSET ??_C@_0CG@EOHFKLIK@DoAttackSP?5?3?5?$CFs?5?$MA?G?5ItemProp?$MA?L?5N@
  00051	e8 00 00 00 00	 call	 ?Error@@YAPBDPBDZZ	; Error
  00056	83 c4 0c	 add	 esp, 12			; 0000000cH

; 3688 : 		return FALSE;

  00059	33 c0		 xor	 eax, eax
$LN30@DoAttackSP:

; 3708 : #else	// __WORLDSERVER
; 3709 : 	
; 3710 : #if 0 //2009_12_18 ±âČążˇĽ­ Á¦°Ĺ żäĂ» : ąßµżĹ¸ŔÓżˇ Ĺ¸°Ůżˇ ´ëÇŘ ŔĚĆĺĆ® ÇĘżäľřŔ˝ 
; 3711 : 		DWORD dwSfxObj = pItemProp->dwSfxObj3;		// ĆŻĽö°ř°Ýżˇ ąßµżŔĚĆĺĆ®°ˇ ŔÖ´Ů¸é 3ąř»çżë.
; 3712 : 		if( dwSfxObj != NULL_ID )
; 3713 : 			CreateSfx( D3DDEVICE, dwSfxObj, GetPos(), GetId(), D3DXVECTOR3(0,0,0), idTarget );
; 3714 : #endif 
; 3715 : 
; 3716 : 	//gmpbigsun: ąßµż˝Ă °ř°ÝŔÚżˇ ´ëÇŃ ąßµż effect
; 3717 : 	DWORD dwSfxObj = pItemProp->dwSfxObj;
; 3718 : 	if( NULL_ID != dwSfxObj )
; 3719 : 		CreateSfx( D3DDEVICE, dwSfxObj, GetPos() );
; 3720 : 
; 3721 : 		
; 3722 : #endif	// __WORLDSERVER
; 3723 : 	}
; 3724 : 
; 3725 : 	return( nError );
; 3726 : }

  0005b	5e		 pop	 esi
  0005c	5f		 pop	 edi
  0005d	5b		 pop	 ebx
  0005e	8b e5		 mov	 esp, ebp
  00060	5d		 pop	 ebp
  00061	c2 08 00	 ret	 8
$LN6@DoAttackSP:

; 3689 : 	}
; 3690 : 
; 3691 : 	DWORD dwUseMotion = pItemProp->dwUseMotion;

  00064	8b 90 b8 01 00
	00		 mov	 edx, DWORD PTR [eax+440]

; 3692 : 	if( dwUseMotion == NULL_ID )

  0006a	83 fa ff	 cmp	 edx, -1
  0006d	75 1b		 jne	 SHORT $LN7@DoAttackSP

; 3693 : 	{
; 3694 : 		Error( "DoAttackSP : %sŔÇ °ř°Ý%dŔÇ dwUseMotionŔĚ ÁöÁ¤µÇÁö ľĘľŇ´Ů", m_szName, pItemProp->dwID );

  0006f	ff 30		 push	 DWORD PTR [eax]
  00071	8d 87 ec 14 00
	00		 lea	 eax, DWORD PTR [edi+5356]
  00077	50		 push	 eax
  00078	68 00 00 00 00	 push	 OFFSET ??_C@_0DJ@FIKMOPND@DoAttackSP?5?3?5?$CFs?$MA?G?5?$LA?x?$LA?$NN?$CFd?$MA?G?5dwUs@
  0007d	e8 00 00 00 00	 call	 ?Error@@YAPBDPBDZZ	; Error
  00082	83 c4 0c	 add	 esp, 12			; 0000000cH

; 3695 : 		dwUseMotion = MTI_ATK1;		// ÇÁ·ÎĆŰĆĽżˇ Ŕĺ°Ĺ¸® °ř°Ý ¸đĽÇŔĚ ÁöÁ¤µÇÁö ľĘľŇŔ¸¸é ±âş» ¸đĽÇŔ¸·Î ÇŃ´Ů.

  00085	ba 17 00 00 00	 mov	 edx, 23			; 00000017H
$LN7@DoAttackSP:

; 3696 : 	}
; 3697 : 	
; 3698 : 	OBJID	idTarget = ((CCtrl*)pTargetObj)->GetId();
; 3699 : 	
; 3700 : 	int nError;
; 3701 : 	if( ( nError = m_pActMover->SendActMsg( OBJMSG_SP_ATK1, idTarget, (int)dwItemID, (int)dwUseMotion ) ) == 1 )	// Ŕĺ°Ĺ¸®°ř°Ý.

  0008a	8b 8f 38 02 00
	00		 mov	 ecx, DWORD PTR [edi+568]
  00090	8b 83 bc 01 00
	00		 mov	 eax, DWORD PTR [ebx+444]
  00096	6a 00		 push	 0
  00098	6a 00		 push	 0
  0009a	52		 push	 edx
  0009b	89 45 08	 mov	 DWORD PTR _idTarget$1$[ebp], eax
  0009e	8b 01		 mov	 eax, DWORD PTR [ecx]
  000a0	56		 push	 esi
  000a1	ff 75 08	 push	 DWORD PTR _idTarget$1$[ebp]
  000a4	6a 21		 push	 33			; 00000021H
  000a6	ff 50 04	 call	 DWORD PTR [eax+4]
  000a9	89 45 0c	 mov	 DWORD PTR _nError$1$[ebp], eax
  000ac	83 f8 01	 cmp	 eax, 1
  000af	75 aa		 jne	 SHORT $LN30@DoAttackSP
; File C:\IAGOS\server\v18\Source\Source\_Common\Obj.h

; 215  : 	D3DXVECTOR3		GetPos()	{ return m_vPos; }

  000b1	8b 83 68 01 00
	00		 mov	 eax, DWORD PTR [ebx+360]
  000b7	f3 0f 7e 87 60
	01 00 00	 movq	 xmm0, QWORD PTR [edi+352]
  000bf	8b 8f 68 01 00
	00		 mov	 ecx, DWORD PTR [edi+360]
  000c5	89 45 f0	 mov	 DWORD PTR $T1[ebp+8], eax
; File C:\IAGOS\server\v18\Source\Source\_Common\MoverSkill.cpp

; 3703 : 		SetAngle( GetDegree(pTargetObj->GetPos(), GetPos()) );		// ¸ńÇĄÂĘŔ¸·Î ¸öŔ» µą¸˛.

  000c8	8d 45 f4	 lea	 eax, DWORD PTR $T2[ebp]
  000cb	50		 push	 eax
; File C:\IAGOS\server\v18\Source\Source\_Common\Obj.h

; 215  : 	D3DXVECTOR3		GetPos()	{ return m_vPos; }

  000cc	66 0f d6 45 f4	 movq	 QWORD PTR $T2[ebp], xmm0
; File C:\IAGOS\server\v18\Source\Source\_Common\MoverSkill.cpp

; 3703 : 		SetAngle( GetDegree(pTargetObj->GetPos(), GetPos()) );		// ¸ńÇĄÂĘŔ¸·Î ¸öŔ» µą¸˛.

  000d1	8d 45 e8	 lea	 eax, DWORD PTR $T1[ebp]
; File C:\IAGOS\server\v18\Source\Source\_Common\Obj.h

; 215  : 	D3DXVECTOR3		GetPos()	{ return m_vPos; }

  000d4	f3 0f 7e 83 60
	01 00 00	 movq	 xmm0, QWORD PTR [ebx+352]
; File C:\IAGOS\server\v18\Source\Source\_Common\MoverSkill.cpp

; 3703 : 		SetAngle( GetDegree(pTargetObj->GetPos(), GetPos()) );		// ¸ńÇĄÂĘŔ¸·Î ¸öŔ» µą¸˛.

  000dc	50		 push	 eax
; File C:\IAGOS\server\v18\Source\Source\_Common\Obj.h

; 215  : 	D3DXVECTOR3		GetPos()	{ return m_vPos; }

  000dd	89 4d fc	 mov	 DWORD PTR $T2[ebp+8], ecx
  000e0	66 0f d6 45 e8	 movq	 QWORD PTR $T1[ebp], xmm0
; File C:\IAGOS\server\v18\Source\Source\_Common\MoverSkill.cpp

; 3703 : 		SetAngle( GetDegree(pTargetObj->GetPos(), GetPos()) );		// ¸ńÇĄÂĘŔ¸·Î ¸öŔ» µą¸˛.

  000e5	e8 00 00 00 00	 call	 ?GetDegree@@YAMABUD3DXVECTOR3@@0@Z ; GetDegree
  000ea	83 c4 04	 add	 esp, 4
  000ed	8b cf		 mov	 ecx, edi
  000ef	d9 1c 24	 fstp	 DWORD PTR [esp]
  000f2	e8 00 00 00 00	 call	 ?SetAngle@CObj@@QAEXM@Z	; CObj::SetAngle

; 3704 : 		SetActParam( OBJACT_SP_ATTACK, idTarget, (int)dwItemID );	// Čż°ú ˝Äş°ŔÚ µî·Ď

  000f7	8b 5d 08	 mov	 ebx, DWORD PTR _idTarget$1$[ebp]
  000fa	8b cf		 mov	 ecx, edi
  000fc	6a 00		 push	 0
  000fe	56		 push	 esi
  000ff	53		 push	 ebx
  00100	6a 04		 push	 4
  00102	e8 00 00 00 00	 call	 ?SetActParam@CMover@@AAEXW4OBJACT@@HHH@Z ; CMover::SetActParam

; 3705 : 		
; 3706 : #ifdef __WORLDSERVER
; 3707 : 		g_UserMng.AddAttackSP( this, OBJMSG_SP_ATK1, idTarget, dwItemID, 0 );

  00107	6a 00		 push	 0
  00109	56		 push	 esi
  0010a	53		 push	 ebx
  0010b	6a 21		 push	 33			; 00000021H
  0010d	57		 push	 edi
  0010e	b9 00 00 00 00	 mov	 ecx, OFFSET ?g_UserMng@@3VCUserMng@@A ; g_UserMng
  00113	e8 00 00 00 00	 call	 ?AddAttackSP@CUserMng@@QAEXPAVCMover@@KKHH@Z ; CUserMng::AddAttackSP
  00118	8b 45 0c	 mov	 eax, DWORD PTR _nError$1$[ebp]
  0011b	5e		 pop	 esi
  0011c	5f		 pop	 edi

; 3708 : #else	// __WORLDSERVER
; 3709 : 	
; 3710 : #if 0 //2009_12_18 ±âČążˇĽ­ Á¦°Ĺ żäĂ» : ąßµżĹ¸ŔÓżˇ Ĺ¸°Ůżˇ ´ëÇŘ ŔĚĆĺĆ® ÇĘżäľřŔ˝ 
; 3711 : 		DWORD dwSfxObj = pItemProp->dwSfxObj3;		// ĆŻĽö°ř°Ýżˇ ąßµżŔĚĆĺĆ®°ˇ ŔÖ´Ů¸é 3ąř»çżë.
; 3712 : 		if( dwSfxObj != NULL_ID )
; 3713 : 			CreateSfx( D3DDEVICE, dwSfxObj, GetPos(), GetId(), D3DXVECTOR3(0,0,0), idTarget );
; 3714 : #endif 
; 3715 : 
; 3716 : 	//gmpbigsun: ąßµż˝Ă °ř°ÝŔÚżˇ ´ëÇŃ ąßµż effect
; 3717 : 	DWORD dwSfxObj = pItemProp->dwSfxObj;
; 3718 : 	if( NULL_ID != dwSfxObj )
; 3719 : 		CreateSfx( D3DDEVICE, dwSfxObj, GetPos() );
; 3720 : 
; 3721 : 		
; 3722 : #endif	// __WORLDSERVER
; 3723 : 	}
; 3724 : 
; 3725 : 	return( nError );
; 3726 : }

  0011d	5b		 pop	 ebx
  0011e	8b e5		 mov	 esp, ebp
  00120	5d		 pop	 ebp
  00121	c2 08 00	 ret	 8
$LN22@DoAttackSP:
  00124	5f		 pop	 edi

; 3677 : 	if( IsInvalidObj(pTargetObj) )
; 3678 : 		return( -1 );

  00125	83 c8 ff	 or	 eax, -1

; 3708 : #else	// __WORLDSERVER
; 3709 : 	
; 3710 : #if 0 //2009_12_18 ±âČążˇĽ­ Á¦°Ĺ żäĂ» : ąßµżĹ¸ŔÓżˇ Ĺ¸°Ůżˇ ´ëÇŘ ŔĚĆĺĆ® ÇĘżäľřŔ˝ 
; 3711 : 		DWORD dwSfxObj = pItemProp->dwSfxObj3;		// ĆŻĽö°ř°Ýżˇ ąßµżŔĚĆĺĆ®°ˇ ŔÖ´Ů¸é 3ąř»çżë.
; 3712 : 		if( dwSfxObj != NULL_ID )
; 3713 : 			CreateSfx( D3DDEVICE, dwSfxObj, GetPos(), GetId(), D3DXVECTOR3(0,0,0), idTarget );
; 3714 : #endif 
; 3715 : 
; 3716 : 	//gmpbigsun: ąßµż˝Ă °ř°ÝŔÚżˇ ´ëÇŃ ąßµż effect
; 3717 : 	DWORD dwSfxObj = pItemProp->dwSfxObj;
; 3718 : 	if( NULL_ID != dwSfxObj )
; 3719 : 		CreateSfx( D3DDEVICE, dwSfxObj, GetPos() );
; 3720 : 
; 3721 : 		
; 3722 : #endif	// __WORLDSERVER
; 3723 : 	}
; 3724 : 
; 3725 : 	return( nError );
; 3726 : }

  00128	5b		 pop	 ebx
  00129	8b e5		 mov	 esp, ebp
  0012b	5d		 pop	 ebp
  0012c	c2 08 00	 ret	 8
?DoAttackSP@CMover@@QAEHPAVCObj@@K@Z ENDP		; CMover::DoAttackSP
_TEXT	ENDS
; Function compile flags: /Ogtp
; File C:\IAGOS\server\v18\Source\Source\_Common\MoverSkill.cpp
; File C:\IAGOS\server\v18\Source\Source\_Common\Obj.h
; File C:\IAGOS\server\v18\Source\Source\_Common\MoverSkill.cpp
; File C:\IAGOS\server\v18\Source\Source\_Common\Obj.h
; File C:\IAGOS\server\v18\Source\Source\_Common\MoverSkill.cpp
; File C:\IAGOS\server\v18\Source\Source\_Common\Obj.h
; File C:\IAGOS\server\v18\Source\Source\_Common\MoverSkill.cpp
; File C:\IAGOS\server\v18\Source\Source\_Common\Obj.h
; File C:\IAGOS\server\v18\Source\Source\_Common\MoverSkill.cpp
; File C:\IAGOS\server\v18\Source\Source\_Common\Obj.h
; File C:\IAGOS\server\v18\Source\Source\_Common\MoverSkill.cpp
; File C:\IAGOS\server\v18\Source\Source\_Common\Obj.h
; File C:\IAGOS\server\v18\Source\Source\_Common\MoverSkill.cpp
;	COMDAT ?DoAttackRange@CMover@@QAEHPAVCObj@@KH@Z
_TEXT	SEGMENT
$T1 = -24						; size = 12
$T2 = -12						; size = 12
_pTargetObj$ = 8					; size = 4
_idTarget$1$ = 8					; size = 4
_dwItemID$ = 12						; size = 4
_nError$1$ = 12						; size = 4
_idSfxHit$ = 16						; size = 4
?DoAttackRange@CMover@@QAEHPAVCObj@@KH@Z PROC		; CMover::DoAttackRange, COMDAT
; _this$ = ecx

; 3585 : {

  00000	55		 push	 ebp
  00001	8b ec		 mov	 ebp, esp
; File C:\IAGOS\server\v18\Source\Source\_Common\Obj.h

; 327  : 	return pObj && ( pObj->IsDelete() == FALSE ); 

  00003	8b 45 08	 mov	 eax, DWORD PTR _pTargetObj$[ebp]
; File C:\IAGOS\server\v18\Source\Source\_Common\MoverSkill.cpp

; 3585 : {

  00006	83 ec 18	 sub	 esp, 24			; 00000018H
  00009	53		 push	 ebx
  0000a	56		 push	 esi
  0000b	57		 push	 edi
  0000c	8b f9		 mov	 edi, ecx
; File C:\IAGOS\server\v18\Source\Source\_Common\Obj.h

; 327  : 	return pObj && ( pObj->IsDelete() == FALSE ); 

  0000e	85 c0		 test	 eax, eax
  00010	74 39		 je	 SHORT $LN30@DoAttackRa

; 180  : 	BOOL			IsDelete()	{ return (m_dwFlags & OBJ_FLAG_DELETE);  }

  00012	f6 40 04 01	 test	 BYTE PTR [eax+4], 1

; 327  : 	return pObj && ( pObj->IsDelete() == FALSE ); 

  00016	75 33		 jne	 SHORT $LN30@DoAttackRa
; File C:\IAGOS\server\v18\Source\Source\_Common\MoverSkill.cpp

; 3611 : 	if( IsPlayer() )

  00018	83 bf 30 02 00
	00 00		 cmp	 DWORD PTR [edi+560], 0
  0001f	8b 5d 0c	 mov	 ebx, DWORD PTR _dwItemID$[ebp]
  00022	74 33		 je	 SHORT $LN3@DoAttackRa

; 3612 : 	{
; 3613 : 		pItemProp = GetActiveHandItemProp();			

  00024	6a 0a		 push	 10			; 0000000aH
  00026	e8 00 00 00 00	 call	 ?GetActiveHandItemProp@CMover@@QAEPAUItemProp@@H@Z ; CMover::GetActiveHandItemProp

; 3614 : 		nPower = dwItemID;
; 3615 : 
; 3616 : 	#ifdef __WORLDSERVER
; 3617 : 		CItemElem* pItemElem = m_Inventory.GetEquip( PARTS_BULLET );	// Č­»ěŔĚ ŔÖ´ÂÁö ĂĽĹ©

  0002b	6a 19		 push	 25			; 00000019H
  0002d	8d 8f fc 0a 00
	00		 lea	 ecx, DWORD PTR [edi+2812]
  00033	8b f0		 mov	 esi, eax
  00035	e8 00 00 00 00	 call	 ?GetEquip@?$CItemContainer@VCItemElem@@@@QAEPAVCItemElem@@K@Z ; CItemContainer<CItemElem>::GetEquip

; 3618 : 		if( pItemElem == NULL || pItemElem->GetProp()->dwItemKind3 != IK3_ARROW )

  0003a	85 c0		 test	 eax, eax
  0003c	74 0d		 je	 SHORT $LN30@DoAttackRa
  0003e	8b c8		 mov	 ecx, eax
  00040	e8 00 00 00 00	 call	 ?GetPropA@CItemElem@@QAEPAUItemProp@@XZ ; CItemElem::GetPropA
  00045	83 78 78 3c	 cmp	 DWORD PTR [eax+120], 60	; 0000003cH
  00049	74 2b		 je	 SHORT $LN8@DoAttackRa
$LN30@DoAttackRa:

; 3666 : 	#else	// __WORLDSERVER
; 3667 : 		if( IsActiveMover() )	// Ĺ¬¶óżˇĽ­ ÇĂ·ąŔĚľî°ˇ »çżëÇŃ°Ĺ¶ó¸é Ľ­ąö·Î Á¤ş¸ ş¸łż.
; 3668 : 			g_DPlay.SendRangeAttack( OBJMSG_ATK_RANGE1, ( (CCtrl*)pTargetObj )->GetId(), dwItemID, m_idSfxHit ); 
; 3669 : 	#endif	// __WORLDSERVER
; 3670 : 	}
; 3671 : 	return nError;
; 3672 : }

  0004b	83 c8 ff	 or	 eax, -1
$LN1@DoAttackRa:
  0004e	5f		 pop	 edi
  0004f	5e		 pop	 esi
  00050	5b		 pop	 ebx
  00051	8b e5		 mov	 esp, ebp
  00053	5d		 pop	 ebp
  00054	c2 0c 00	 ret	 12			; 0000000cH
$LN3@DoAttackRa:

; 3619 : 			return -1;
; 3620 : 	#endif // __WORLDSERVER
; 3621 : 	}
; 3622 : 	else
; 3623 : 	{
; 3624 : 		if( dwItemID == NULL_ID || dwItemID == 0 )	

  00057	83 fb ff	 cmp	 ebx, -1
  0005a	74 11		 je	 SHORT $LN9@DoAttackRa
  0005c	85 db		 test	 ebx, ebx
  0005e	74 0d		 je	 SHORT $LN9@DoAttackRa

; 3626 : 		else
; 3627 : 			pItemProp = prj.GetItemProp( dwItemID );

  00060	53		 push	 ebx
  00061	b9 00 00 00 00	 mov	 ecx, OFFSET ?prj@@3VCProject@@A ; prj
  00066	e8 00 00 00 00	 call	 ?GetItemProp@CProject@@QAEPAUItemProp@@H@Z ; CProject::GetItemProp
  0006b	eb 07		 jmp	 SHORT $LN42@DoAttackRa
$LN9@DoAttackRa:

; 3625 : 			pItemProp = GetActiveHandItemProp();		// ŔĚ·±°ćżě´Â °Á ĽŐżˇ µç ą«±â(Č¤Ŕş ±âş»ľĆŔĚĹŰ)

  0006d	6a 0a		 push	 10			; 0000000aH
  0006f	e8 00 00 00 00	 call	 ?GetActiveHandItemProp@CMover@@QAEPAUItemProp@@H@Z ; CMover::GetActiveHandItemProp
$LN42@DoAttackRa:

; 3628 : 	}
; 3629 : 	
; 3630 : 	if( pItemProp == NULL )

  00074	8b f0		 mov	 esi, eax
$LN8@DoAttackRa:
  00076	85 f6		 test	 esi, esi
  00078	75 20		 jne	 SHORT $LN10@DoAttackRa

; 3631 : 	{
; 3632 : 		Error( "DoAttackRange : %s ActiveHandItemProp = NULL", m_szName );

  0007a	8d 87 ec 14 00
	00		 lea	 eax, DWORD PTR [edi+5356]
  00080	50		 push	 eax
  00081	68 00 00 00 00	 push	 OFFSET ??_C@_0CN@DCNDELEC@DoAttackRange?5?3?5?$CFs?5ActiveHandIt@
  00086	e8 00 00 00 00	 call	 ?Error@@YAPBDPBDZZ	; Error
  0008b	83 c4 08	 add	 esp, 8

; 3666 : 	#else	// __WORLDSERVER
; 3667 : 		if( IsActiveMover() )	// Ĺ¬¶óżˇĽ­ ÇĂ·ąŔĚľî°ˇ »çżëÇŃ°Ĺ¶ó¸é Ľ­ąö·Î Á¤ş¸ ş¸łż.
; 3668 : 			g_DPlay.SendRangeAttack( OBJMSG_ATK_RANGE1, ( (CCtrl*)pTargetObj )->GetId(), dwItemID, m_idSfxHit ); 
; 3669 : 	#endif	// __WORLDSERVER
; 3670 : 	}
; 3671 : 	return nError;
; 3672 : }

  0008e	83 c8 ff	 or	 eax, -1
  00091	5f		 pop	 edi
  00092	5e		 pop	 esi
  00093	5b		 pop	 ebx
  00094	8b e5		 mov	 esp, ebp
  00096	5d		 pop	 ebp
  00097	c2 0c 00	 ret	 12			; 0000000cH
$LN10@DoAttackRa:

; 3633 : 		return -1;
; 3634 : 	}
; 3635 : 
; 3636 : 	if( pItemProp->dwWeaponType != WT_RANGE && pItemProp->dwWeaponType != WT_RANGE_BOW )		// µé°íŔÖ´Â ą«±â°ˇ RANGE°ˇ ľĆ´Ď¸é ¸®ĹĎ

  0009a	8b 86 0c 01 00
	00		 mov	 eax, DWORD PTR [esi+268]
  000a0	83 f8 08	 cmp	 eax, 8
  000a3	74 05		 je	 SHORT $LN11@DoAttackRa
  000a5	83 f8 15	 cmp	 eax, 21			; 00000015H
  000a8	75 a1		 jne	 SHORT $LN30@DoAttackRa
$LN11@DoAttackRa:

; 3637 : 	{
; 3638 : 		return -1;
; 3639 : 	}
; 3640 : 	
; 3641 : 	DWORD dwUseMotion = pItemProp->dwUseMotion;	

  000aa	8b 96 b8 01 00
	00		 mov	 edx, DWORD PTR [esi+440]

; 3642 : 	if( dwUseMotion == NULL_ID )

  000b0	83 fa ff	 cmp	 edx, -1
  000b3	75 24		 jne	 SHORT $LN14@DoAttackRa

; 3643 : 	{
; 3644 : 		if( IsPlayer() )

  000b5	83 bf 30 02 00
	00 00		 cmp	 DWORD PTR [edi+560], 0
  000bc	75 16		 jne	 SHORT $LN43@DoAttackRa

; 3645 : 		{
; 3646 : 			dwUseMotion = MTI_ATK_13 - MTI_STAND_13;//23;
; 3647 : 		}
; 3648 : 		else
; 3649 : 		{
; 3650 : 			Error( "DoAttackRange : %s [%d]'s dwUseMotion = NULL_ID", m_szName, pItemProp->dwID );

  000be	ff 36		 push	 DWORD PTR [esi]
  000c0	8d 87 ec 14 00
	00		 lea	 eax, DWORD PTR [edi+5356]
  000c6	50		 push	 eax
  000c7	68 00 00 00 00	 push	 OFFSET ??_C@_0DA@HDIEHEPJ@DoAttackRange?5?3?5?$CFs?5?$FL?$CFd?$FN?8s?5dwUse@
  000cc	e8 00 00 00 00	 call	 ?Error@@YAPBDPBDZZ	; Error
  000d1	83 c4 0c	 add	 esp, 12			; 0000000cH
$LN43@DoAttackRa:

; 3651 : 			dwUseMotion = MTI_ATK1;		// ÇÁ·ÎĆŰĆĽżˇ Ŕĺ°Ĺ¸® °ř°Ý ¸đĽÇŔĚ ÁöÁ¤µÇÁö ľĘľŇŔ¸¸é ±âş» ¸đĽÇŔ¸·Î ÇŃ´Ů.
; 3652 : 		}
; 3653 : 	}
; 3654 : 
; 3655 : 	OBJID	idTarget = ((CCtrl*)pTargetObj)->GetId();

  000d4	ba 17 00 00 00	 mov	 edx, 23			; 00000017H
$LN14@DoAttackRa:
  000d9	8b 75 08	 mov	 esi, DWORD PTR _pTargetObj$[ebp]

; 3656 : 
; 3657 : 	int nError;
; 3658 : 	if( ( nError = m_pActMover->SendActMsg( OBJMSG_ATK_RANGE1, idTarget, (int)dwUseMotion ) ) == 1 )	// Ŕĺ°Ĺ¸®°ř°Ý.

  000dc	8b 8f 38 02 00
	00		 mov	 ecx, DWORD PTR [edi+568]
  000e2	6a 00		 push	 0
  000e4	6a 00		 push	 0
  000e6	8b 86 bc 01 00
	00		 mov	 eax, DWORD PTR [esi+444]
  000ec	6a 00		 push	 0
  000ee	89 45 08	 mov	 DWORD PTR _idTarget$1$[ebp], eax
  000f1	8b 01		 mov	 eax, DWORD PTR [ecx]
  000f3	52		 push	 edx
  000f4	ff 75 08	 push	 DWORD PTR _idTarget$1$[ebp]
  000f7	6a 23		 push	 35			; 00000023H
  000f9	ff 50 04	 call	 DWORD PTR [eax+4]
  000fc	89 45 0c	 mov	 DWORD PTR _nError$1$[ebp], eax
  000ff	83 f8 01	 cmp	 eax, 1
  00102	0f 85 46 ff ff
	ff		 jne	 $LN1@DoAttackRa
; File C:\IAGOS\server\v18\Source\Source\_Common\Obj.h

; 215  : 	D3DXVECTOR3		GetPos()	{ return m_vPos; }

  00108	8b 86 68 01 00
	00		 mov	 eax, DWORD PTR [esi+360]
  0010e	f3 0f 7e 87 60
	01 00 00	 movq	 xmm0, QWORD PTR [edi+352]
  00116	8b 8f 68 01 00
	00		 mov	 ecx, DWORD PTR [edi+360]
  0011c	89 45 f0	 mov	 DWORD PTR $T1[ebp+8], eax
; File C:\IAGOS\server\v18\Source\Source\_Common\MoverSkill.cpp

; 3660 : 		SetAngle( GetDegree(pTargetObj->GetPos(), GetPos()) );			// ¸ńÇĄÂĘŔ¸·Î ¸öŔ» µą¸˛.

  0011f	8d 45 f4	 lea	 eax, DWORD PTR $T2[ebp]
  00122	50		 push	 eax
; File C:\IAGOS\server\v18\Source\Source\_Common\Obj.h

; 215  : 	D3DXVECTOR3		GetPos()	{ return m_vPos; }

  00123	66 0f d6 45 f4	 movq	 QWORD PTR $T2[ebp], xmm0
; File C:\IAGOS\server\v18\Source\Source\_Common\MoverSkill.cpp

; 3660 : 		SetAngle( GetDegree(pTargetObj->GetPos(), GetPos()) );			// ¸ńÇĄÂĘŔ¸·Î ¸öŔ» µą¸˛.

  00128	8d 45 e8	 lea	 eax, DWORD PTR $T1[ebp]
; File C:\IAGOS\server\v18\Source\Source\_Common\Obj.h

; 215  : 	D3DXVECTOR3		GetPos()	{ return m_vPos; }

  0012b	f3 0f 7e 86 60
	01 00 00	 movq	 xmm0, QWORD PTR [esi+352]
; File C:\IAGOS\server\v18\Source\Source\_Common\MoverSkill.cpp

; 3660 : 		SetAngle( GetDegree(pTargetObj->GetPos(), GetPos()) );			// ¸ńÇĄÂĘŔ¸·Î ¸öŔ» µą¸˛.

  00133	50		 push	 eax
; File C:\IAGOS\server\v18\Source\Source\_Common\Obj.h

; 215  : 	D3DXVECTOR3		GetPos()	{ return m_vPos; }

  00134	89 4d fc	 mov	 DWORD PTR $T2[ebp+8], ecx
  00137	66 0f d6 45 e8	 movq	 QWORD PTR $T1[ebp], xmm0
; File C:\IAGOS\server\v18\Source\Source\_Common\MoverSkill.cpp

; 3660 : 		SetAngle( GetDegree(pTargetObj->GetPos(), GetPos()) );			// ¸ńÇĄÂĘŔ¸·Î ¸öŔ» µą¸˛.

  0013c	e8 00 00 00 00	 call	 ?GetDegree@@YAMABUD3DXVECTOR3@@0@Z ; GetDegree
  00141	83 c4 04	 add	 esp, 4
  00144	8b cf		 mov	 ecx, edi
  00146	d9 1c 24	 fstp	 DWORD PTR [esp]
  00149	e8 00 00 00 00	 call	 ?SetAngle@CObj@@QAEXM@Z	; CObj::SetAngle

; 3661 : 		SetActParam( OBJACT_RANGE_ATTACK, idTarget, dwItemID, idSfxHit );	// Čż°ú ˝Äş°ŔÚ µî·Ď

  0014e	8b 75 10	 mov	 esi, DWORD PTR _idSfxHit$[ebp]
  00151	8b cf		 mov	 ecx, edi
  00153	56		 push	 esi
  00154	53		 push	 ebx
  00155	ff 75 08	 push	 DWORD PTR _idTarget$1$[ebp]
  00158	6a 03		 push	 3
  0015a	e8 00 00 00 00	 call	 ?SetActParam@CMover@@AAEXW4OBJACT@@HHH@Z ; CMover::SetActParam

; 3662 : 		
; 3663 : 	#ifdef __WORLDSERVER
; 3664 : 		g_UserMng.AddRangeAttack( this, OBJMSG_ATK_RANGE1, idTarget, dwItemID, 0, idSfxHit );

  0015f	56		 push	 esi
  00160	6a 00		 push	 0
  00162	53		 push	 ebx
  00163	ff 75 08	 push	 DWORD PTR _idTarget$1$[ebp]
  00166	b9 00 00 00 00	 mov	 ecx, OFFSET ?g_UserMng@@3VCUserMng@@A ; g_UserMng
  0016b	6a 23		 push	 35			; 00000023H
  0016d	57		 push	 edi
  0016e	e8 00 00 00 00	 call	 ?AddRangeAttack@CUserMng@@QAEXPAVCMover@@KKHHH@Z ; CUserMng::AddRangeAttack

; 3665 : 		ArrowDown( 1 );		// Č­»ě 1°ł ľřľÚ

  00173	6a 01		 push	 1
  00175	8b cf		 mov	 ecx, edi
  00177	e8 00 00 00 00	 call	 ?ArrowDown@CMover@@QAEXH@Z ; CMover::ArrowDown
  0017c	8b 45 0c	 mov	 eax, DWORD PTR _nError$1$[ebp]
  0017f	5f		 pop	 edi

; 3666 : 	#else	// __WORLDSERVER
; 3667 : 		if( IsActiveMover() )	// Ĺ¬¶óżˇĽ­ ÇĂ·ąŔĚľî°ˇ »çżëÇŃ°Ĺ¶ó¸é Ľ­ąö·Î Á¤ş¸ ş¸łż.
; 3668 : 			g_DPlay.SendRangeAttack( OBJMSG_ATK_RANGE1, ( (CCtrl*)pTargetObj )->GetId(), dwItemID, m_idSfxHit ); 
; 3669 : 	#endif	// __WORLDSERVER
; 3670 : 	}
; 3671 : 	return nError;
; 3672 : }

  00180	5e		 pop	 esi
  00181	5b		 pop	 ebx
  00182	8b e5		 mov	 esp, ebp
  00184	5d		 pop	 ebp
  00185	c2 0c 00	 ret	 12			; 0000000cH
?DoAttackRange@CMover@@QAEHPAVCObj@@KH@Z ENDP		; CMover::DoAttackRange
_TEXT	ENDS
; Function compile flags: /Ogtp
; File C:\IAGOS\server\v18\Source\Source\_Common\MoverSkill.cpp
; File C:\IAGOS\server\v18\Source\Source\_Common\Obj.h
; File C:\IAGOS\server\v18\Source\Source\_Common\MoverSkill.cpp
; File C:\IAGOS\server\v18\Source\Source\_Common\Obj.h
; File C:\IAGOS\server\v18\Source\Source\_Common\MoverSkill.cpp
; File C:\IAGOS\server\v18\Source\Source\_Common\Item.h
; File C:\IAGOS\server\v18\Source\Source\_Common\Project.h
; File C:\IAGOS\server\v18\Source\Source\_Common\data.h
; File C:\IAGOS\server\v18\Source\Source\_Common\Project.h
; File C:\IAGOS\server\v18\Source\Source\_Common\MoverSkill.cpp
; File C:\IAGOS\server\v18\Source\Source\_Common\Obj.h
; File C:\IAGOS\server\v18\Source\Source\_Common\MoverSkill.cpp
; File C:\IAGOS\server\v18\Source\Source\_Common\Obj.h
; File C:\IAGOS\server\v18\Source\Source\_Common\MoverSkill.cpp
; File C:\IAGOS\server\v18\Source\Source\_Common\Obj.h
; File C:\IAGOS\server\v18\Source\Source\_Common\MoverSkill.cpp
; File C:\IAGOS\server\v18\Source\Source\_Common\Obj.h
; File C:\IAGOS\server\v18\Source\Source\_Common\MoverSkill.cpp
;	COMDAT ?DoAttackMagic@CMover@@QAEHPAVCObj@@HH@Z
_TEXT	SEGMENT
$T1 = -28						; size = 12
$T2 = -16						; size = 12
_nError$1$ = -4						; size = 4
_pTargetObj$ = 8					; size = 4
_idTarget$1$ = 8					; size = 4
_nMagicPower$ = 12					; size = 4
_idSfxHit$ = 16						; size = 4
?DoAttackMagic@CMover@@QAEHPAVCObj@@HH@Z PROC		; CMover::DoAttackMagic, COMDAT
; _this$ = ecx

; 3494 : {

  00000	55		 push	 ebp
  00001	8b ec		 mov	 ebp, esp
  00003	83 ec 1c	 sub	 esp, 28			; 0000001cH
  00006	53		 push	 ebx
  00007	56		 push	 esi
  00008	57		 push	 edi
; File C:\IAGOS\server\v18\Source\Source\_Common\Obj.h

; 327  : 	return pObj && ( pObj->IsDelete() == FALSE ); 

  00009	8b 7d 08	 mov	 edi, DWORD PTR _pTargetObj$[ebp]
; File C:\IAGOS\server\v18\Source\Source\_Common\MoverSkill.cpp

; 3494 : {

  0000c	8b f1		 mov	 esi, ecx
; File C:\IAGOS\server\v18\Source\Source\_Common\Obj.h

; 327  : 	return pObj && ( pObj->IsDelete() == FALSE ); 

  0000e	85 ff		 test	 edi, edi
  00010	0f 84 46 01 00
	00		 je	 $LN40@DoAttackMa

; 180  : 	BOOL			IsDelete()	{ return (m_dwFlags & OBJ_FLAG_DELETE);  }

  00016	f6 47 04 01	 test	 BYTE PTR [edi+4], 1

; 327  : 	return pObj && ( pObj->IsDelete() == FALSE ); 

  0001a	0f 85 3c 01 00
	00		 jne	 $LN40@DoAttackMa
; File C:\IAGOS\server\v18\Source\Source\_Common\MoverSkill.cpp

; 3500 : 	CItemElem* pItemElem = GetWeaponItem();	// ĽŐżˇµç ą«±â°ˇ ľřŔ¸¸é ¸®ĹĎ

  00020	6a 0a		 push	 10			; 0000000aH
  00022	e8 00 00 00 00	 call	 ?GetWeaponItem@CMover@@QAEPAVCItemElem@@H@Z ; CMover::GetWeaponItem

; 3501 : 	if( pItemElem == NULL )

  00027	85 c0		 test	 eax, eax
  00029	0f 84 2d 01 00
	00		 je	 $LN40@DoAttackMa
; File C:\IAGOS\server\v18\Source\Source\_Common\Item.h

; 230  : 	ItemProp*	GetProp()	{	return prj.GetItemProp( m_dwItemId );	}

  0002f	8b 48 0c	 mov	 ecx, DWORD PTR [eax+12]
; File C:\IAGOS\server\v18\Source\Source\_Common\Project.h

; 1389 : 	VERIFY_RANGE_ASSERT( nIndex, 0, m_aPropItem.GetSize(), "GetItemProp range_error", NULL );

  00032	a1 40 02 00 00	 mov	 eax, DWORD PTR ?prj@@3VCProject@@A+576
  00037	85 c9		 test	 ecx, ecx
  00039	78 10		 js	 SHORT $LN26@DoAttackMa
  0003b	3b c8		 cmp	 ecx, eax
  0003d	7d 0c		 jge	 SHORT $LN26@DoAttackMa
; File C:\IAGOS\server\v18\Source\Source\_Common\data.h

; 270  : 	if( dwIndex >= (DWORD)m_nMaxIndex )

  0003f	73 20		 jae	 SHORT $LN55@DoAttackMa

; 271  : 		return NULL;
; 272  : 	return (T*) m_apOffset[ dwIndex ];

  00041	a1 30 02 00 00	 mov	 eax, DWORD PTR ?prj@@3VCProject@@A+560
  00046	8b 1c 88	 mov	 ebx, DWORD PTR [eax+ecx*4]
; File C:\IAGOS\server\v18\Source\Source\_Common\Project.h

; 1390 : 	return m_aPropItem.GetAt( nIndex ); 

  00049	eb 18		 jmp	 SHORT $LN21@DoAttackMa
$LN26@DoAttackMa:

; 579  : 	LPCTSTR szErr = Error( _T( "%s min:%d, max:%d, index:%d" ), szMsg, nMin, nMax, nIndex ); 

  0004b	51		 push	 ecx
  0004c	50		 push	 eax
  0004d	6a 00		 push	 0
  0004f	68 00 00 00 00	 push	 OFFSET ??_C@_0BI@BEIFNGEL@GetItemProp?5range_error@
  00054	68 00 00 00 00	 push	 OFFSET ??_C@_0BM@HMFGHCP@?$CFs?5min?3?$CFd?0?5max?3?$CFd?0?5index?3?$CFd@
  00059	e8 00 00 00 00	 call	 ?Error@@YAPBDPBDZZ	; Error
  0005e	83 c4 14	 add	 esp, 20			; 00000014H
$LN55@DoAttackMa:
; File C:\IAGOS\server\v18\Source\Source\_Common\MoverSkill.cpp

; 3519 : 	if( pItemProp->dwItemKind3 != IK3_WAND )		// µé°íŔÖ´Â ą«±â°ˇ żĎµĺ°ˇ ľĆ´Ď¸é żˇ·Ż.

  00061	33 db		 xor	 ebx, ebx
$LN21@DoAttackMa:
  00063	83 7b 78 06	 cmp	 DWORD PTR [ebx+120], 6
  00067	0f 85 ef 00 00
	00		 jne	 $LN40@DoAttackMa

; 3521 : 
; 3522 : #ifdef __CLIENT
; 3523 : 	// ÇöŔç ÁöÁˇ°ú ¸ńÇĄÁöÁˇ±îÁö ¸·Č÷´Â°Ô ŔÖŔ¸¸é ¸Ţ˝ĂÁö Ăâ·ÂÇĎ°í ¸®ĹĎ
; 3524 : 	CWorld *pWorld = GetWorld();
; 3525 : 	D3DXVECTOR3 vStart = GetPos();				vStart.y += 0.5f;
; 3526 : 	D3DXVECTOR3 vEnd   = pTargetObj->GetPos();	vEnd.y += 0.5f;
; 3527 : 
; 3528 : 	if( pWorld->IntersectObjLine( NULL, vStart, vEnd, FALSE, FALSE ) )
; 3529 : 	{
; 3530 : 		g_WndMng.PutString( prj.GetText( TID_GAME_BLOCKTARGETING ), NULL, prj.GetTextColor( TID_GAME_BLOCKTARGETING ) );
; 3531 : 		return -1;
; 3532 : 	}
; 3533 : #endif  // CLIENT
; 3534 : 
; 3535 : 	OBJID	idTarget = ((CCtrl*)pTargetObj)->GetId();
; 3536 : 
; 3537 : 	int nError;
; 3538 : 	if( ( nError = m_pActMover->SendActMsg( OBJMSG_ATK_MAGIC1, idTarget ) ) == 1 )	// żĎµĺ°ř°Ý µżŔŰ ˝ĂŔŰ.

  0006d	8b 8e 38 02 00
	00		 mov	 ecx, DWORD PTR [esi+568]
  00073	8b 97 bc 01 00
	00		 mov	 edx, DWORD PTR [edi+444]
  00079	6a 00		 push	 0
  0007b	6a 00		 push	 0
  0007d	8b 01		 mov	 eax, DWORD PTR [ecx]
  0007f	6a 00		 push	 0
  00081	6a 00		 push	 0
  00083	52		 push	 edx
  00084	6a 24		 push	 36			; 00000024H
  00086	89 55 08	 mov	 DWORD PTR _idTarget$1$[ebp], edx
  00089	ff 50 04	 call	 DWORD PTR [eax+4]
  0008c	89 45 fc	 mov	 DWORD PTR _nError$1$[ebp], eax
  0008f	83 f8 01	 cmp	 eax, 1
  00092	0f 85 c7 00 00
	00		 jne	 $LN1@DoAttackMa

; 3539 : 	{
; 3540 : 		if( m_pActMover->IsFly() == FALSE )		

  00098	8b 8e 38 02 00
	00		 mov	 ecx, DWORD PTR [esi+568]
  0009e	f6 41 08 08	 test	 BYTE PTR [ecx+8], 8
  000a2	75 46		 jne	 SHORT $LN6@DoAttackMa
; File C:\IAGOS\server\v18\Source\Source\_Common\Obj.h

; 215  : 	D3DXVECTOR3		GetPos()	{ return m_vPos; }

  000a4	8b 86 68 01 00
	00		 mov	 eax, DWORD PTR [esi+360]
  000aa	f3 0f 7e 86 60
	01 00 00	 movq	 xmm0, QWORD PTR [esi+352]
  000b2	89 45 f8	 mov	 DWORD PTR $T2[ebp+8], eax
  000b5	8b 87 68 01 00
	00		 mov	 eax, DWORD PTR [edi+360]
  000bb	89 45 ec	 mov	 DWORD PTR $T1[ebp+8], eax
; File C:\IAGOS\server\v18\Source\Source\_Common\MoverSkill.cpp

; 3541 : 			SetAngle( GetDegree(pTargetObj->GetPos(), GetPos()) );		// ¸ńÇĄÂĘŔ¸·Î ¸öŔ» µą¸˛.

  000be	8d 45 f0	 lea	 eax, DWORD PTR $T2[ebp]
  000c1	50		 push	 eax
; File C:\IAGOS\server\v18\Source\Source\_Common\Obj.h

; 215  : 	D3DXVECTOR3		GetPos()	{ return m_vPos; }

  000c2	66 0f d6 45 f0	 movq	 QWORD PTR $T2[ebp], xmm0
; File C:\IAGOS\server\v18\Source\Source\_Common\MoverSkill.cpp

; 3541 : 			SetAngle( GetDegree(pTargetObj->GetPos(), GetPos()) );		// ¸ńÇĄÂĘŔ¸·Î ¸öŔ» µą¸˛.

  000c7	8d 45 e4	 lea	 eax, DWORD PTR $T1[ebp]
; File C:\IAGOS\server\v18\Source\Source\_Common\Obj.h

; 215  : 	D3DXVECTOR3		GetPos()	{ return m_vPos; }

  000ca	f3 0f 7e 87 60
	01 00 00	 movq	 xmm0, QWORD PTR [edi+352]
; File C:\IAGOS\server\v18\Source\Source\_Common\MoverSkill.cpp

; 3541 : 			SetAngle( GetDegree(pTargetObj->GetPos(), GetPos()) );		// ¸ńÇĄÂĘŔ¸·Î ¸öŔ» µą¸˛.

  000d2	50		 push	 eax
; File C:\IAGOS\server\v18\Source\Source\_Common\Obj.h

; 215  : 	D3DXVECTOR3		GetPos()	{ return m_vPos; }

  000d3	66 0f d6 45 e4	 movq	 QWORD PTR $T1[ebp], xmm0
; File C:\IAGOS\server\v18\Source\Source\_Common\MoverSkill.cpp

; 3541 : 			SetAngle( GetDegree(pTargetObj->GetPos(), GetPos()) );		// ¸ńÇĄÂĘŔ¸·Î ¸öŔ» µą¸˛.

  000d8	e8 00 00 00 00	 call	 ?GetDegree@@YAMABUD3DXVECTOR3@@0@Z ; GetDegree
  000dd	83 c4 04	 add	 esp, 4
  000e0	8b ce		 mov	 ecx, esi
  000e2	d9 1c 24	 fstp	 DWORD PTR [esp]
  000e5	e8 00 00 00 00	 call	 ?SetAngle@CObj@@QAEXM@Z	; CObj::SetAngle
$LN6@DoAttackMa:

; 3542 : 		SetActParam( OBJACT_MAGIC_ATTACK, idTarget, nMagicPower );		// ˝ÇÇŕÁß »çżëÇŇ ĆÄ¶ó¸ŢĹÍ µî·Ď

  000ea	8b 7d 0c	 mov	 edi, DWORD PTR _nMagicPower$[ebp]
  000ed	8b ce		 mov	 ecx, esi
  000ef	6a 00		 push	 0
  000f1	57		 push	 edi
  000f2	ff 75 08	 push	 DWORD PTR _idTarget$1$[ebp]
  000f5	6a 02		 push	 2
  000f7	e8 00 00 00 00	 call	 ?SetActParam@CMover@@AAEXW4OBJACT@@HHH@Z ; CMover::SetActParam

; 3543 : 		
; 3544 : #ifdef __CLIENT	
; 3545 : 		if( nMagicPower >= 1 )	// ·ąş§ 2ŔĚ»óŔ» ľ˛¸é ľ×ĽÇĆ÷ŔÎĆ® ÇĎłŞ żĂ¶ó°¨.
; 3546 : 		{
; 3547 : 			if( g_WndMng.m_pWndTaskBar->m_nActionPoint < 100 )
; 3548 : 				g_WndMng.m_pWndTaskBar->m_nActionPoint ++;
; 3549 : 		}
; 3550 : #endif
; 3551 : 		
; 3552 : #ifdef __WORLDSERVER
; 3553 : 		if( IsPlayer() )

  000fc	83 be 30 02 00
	00 00		 cmp	 DWORD PTR [esi+560], 0
  00103	74 17		 je	 SHORT $LN8@DoAttackMa

; 3554 : 		{
; 3555 : 			if( nMagicPower >= 1 && ((CUser*)this)->m_playTaskBar.m_nActionPoint < 100 )	// 2´Ü°čĂćŔüŔĚ»ó »çżëÇĎ¸é ľ×ĽÇĆ÷ŔÎĆ® żĂ¶ó°¨.

  00105	83 ff 01	 cmp	 edi, 1
  00108	7c 12		 jl	 SHORT $LN8@DoAttackMa
  0010a	8b 86 38 8e 00
	00		 mov	 eax, DWORD PTR [esi+36408]
  00110	83 f8 64	 cmp	 eax, 100		; 00000064H
  00113	7d 07		 jge	 SHORT $LN8@DoAttackMa

; 3556 : 				((CUser*)this)->m_playTaskBar.m_nActionPoint ++;

  00115	40		 inc	 eax
  00116	89 86 38 8e 00
	00		 mov	 DWORD PTR [esi+36408], eax
$LN8@DoAttackMa:

; 3557 : 		}
; 3558 : 		if( nMagicPower == 3 )		// 4´Ü°čÂĄ¸®¸¦ ľ˛¸é ¸¶łŞ 5Ć÷ŔÎĆ® °¨ĽŇ

  0011c	83 ff 03	 cmp	 edi, 3
  0011f	75 17		 jne	 SHORT $LN9@DoAttackMa

; 3559 : 			IncManaPoint( -GetReqMp( pItemProp->dwReqMp ) );	

  00121	ff b3 78 01 00
	00		 push	 DWORD PTR [ebx+376]
  00127	8b ce		 mov	 ecx, esi
  00129	e8 00 00 00 00	 call	 ?GetReqMp@CMover@@QAEHH@Z ; CMover::GetReqMp
  0012e	f7 d8		 neg	 eax
  00130	8b ce		 mov	 ecx, esi
  00132	50		 push	 eax
  00133	e8 00 00 00 00	 call	 ?IncManaPoint@CMover@@QAEXH@Z ; CMover::IncManaPoint
$LN9@DoAttackMa:

; 3560 : 		g_UserMng.AddMagicAttack( this, OBJMSG_ATK_MAGIC1, idTarget, 0, 0, nMagicPower, idSfxHit );

  00138	ff 75 10	 push	 DWORD PTR _idSfxHit$[ebp]
  0013b	b9 00 00 00 00	 mov	 ecx, OFFSET ?g_UserMng@@3VCUserMng@@A ; g_UserMng
  00140	57		 push	 edi
  00141	6a 00		 push	 0
  00143	6a 00		 push	 0
  00145	ff 75 08	 push	 DWORD PTR _idTarget$1$[ebp]
  00148	6a 24		 push	 36			; 00000024H
  0014a	56		 push	 esi
  0014b	e8 00 00 00 00	 call	 ?AddMagicAttack@CUserMng@@QAEXPAVCMover@@KKHHHH@Z ; CUserMng::AddMagicAttack
  00150	8b 45 fc	 mov	 eax, DWORD PTR _nError$1$[ebp]
  00153	5f		 pop	 edi

; 3561 : #else	// __WORLDSERVER
; 3562 : #ifdef __CLIENT
; 3563 : 		if( IsActiveMover() ) {
; 3564 : 			SetActParam( OBJACT_MAGIC_ATTACK, idTarget, nMagicPower );	// Čż°ú ˝Äş°ŔÚ µî·Ď
; 3565 : 			g_DPlay.SendMagicAttack( OBJMSG_ATK_MAGIC1, ( (CCtrl*)pTargetObj )->GetId(), 0, 0, nMagicPower, m_idSfxHit );
; 3566 : 		}
; 3567 : #endif	// __CLIENT
; 3568 : #endif	// __WORLDSERVER
; 3569 : 	}
; 3570 : 	return( nError );
; 3571 : }

  00154	5e		 pop	 esi
  00155	5b		 pop	 ebx
  00156	8b e5		 mov	 esp, ebp
  00158	5d		 pop	 ebp
  00159	c2 0c 00	 ret	 12			; 0000000cH
$LN40@DoAttackMa:

; 3520 : 		return( -1 );

  0015c	83 c8 ff	 or	 eax, -1
$LN1@DoAttackMa:
  0015f	5f		 pop	 edi

; 3561 : #else	// __WORLDSERVER
; 3562 : #ifdef __CLIENT
; 3563 : 		if( IsActiveMover() ) {
; 3564 : 			SetActParam( OBJACT_MAGIC_ATTACK, idTarget, nMagicPower );	// Čż°ú ˝Äş°ŔÚ µî·Ď
; 3565 : 			g_DPlay.SendMagicAttack( OBJMSG_ATK_MAGIC1, ( (CCtrl*)pTargetObj )->GetId(), 0, 0, nMagicPower, m_idSfxHit );
; 3566 : 		}
; 3567 : #endif	// __CLIENT
; 3568 : #endif	// __WORLDSERVER
; 3569 : 	}
; 3570 : 	return( nError );
; 3571 : }

  00160	5e		 pop	 esi
  00161	5b		 pop	 ebx
  00162	8b e5		 mov	 esp, ebp
  00164	5d		 pop	 ebp
  00165	c2 0c 00	 ret	 12			; 0000000cH
?DoAttackMagic@CMover@@QAEHPAVCObj@@HH@Z ENDP		; CMover::DoAttackMagic
_TEXT	ENDS
; Function compile flags: /Ogtp
; File C:\IAGOS\server\v18\Source\Source\_Common\MoverSkill.cpp
;	COMDAT ?DoPickupItemAround@CMover@@QAEXXZ
_TEXT	SEGMENT
?DoPickupItemAround@CMover@@QAEXXZ PROC			; CMover::DoPickupItemAround, COMDAT
; _this$ = ecx

; 3787 : #ifdef __CLIENT
; 3788 : 	if( m_pActMover->IsActAttack() )	return;		// °ř°ÝÁß »çżëľČµĘ.
; 3789 : 	if( IsDie() )		return;						// Á×ľúŔ»¶© »çżëľČµĘ.
; 3790 : 	
; 3791 : 	int nRange	= 4;	// 4m
; 3792 : 	float fDistMin = 99999.0f, fDistSq;
; 3793 : 	CObj* pObj, *pMinObj = NULL;
; 3794 : 	D3DXVECTOR3 vPos = GetPos();
; 3795 : 	D3DXVECTOR3 vDist;
; 3796 : 	FOR_LINKMAP( GetWorld(), vPos, pObj, nRange, CObj::linkDynamic, GetLayer() )
; 3797 : 	{
; 3798 : 		if( pObj->GetType() == OT_ITEM )
; 3799 : 		{
; 3800 : 			vDist = pObj->GetPos() - vPos;		// this -> ľĆŔĚĹŰ±îÁöŔÇ ş¤ĹÍ
; 3801 : 			fDistSq = D3DXVec3LengthSq( &vDist );
; 3802 : 			if( fDistSq < 4.0f * 4.0f )		// ľĆŔĚĹŰ°úŔÇ °Ĺ¸®°ˇ xąĚĹÍ ŔĚł»ŔÎ°ÍŔ» ´ë»óŔ¸·Î.
; 3803 : 			{
; 3804 : 				if( fDistSq < fDistMin )	// ±×Áß Á© °ˇ±îżîłđŔ¸·Î Ľ±ĹĂ
; 3805 : 				{
; 3806 : 					fDistMin = fDistSq;
; 3807 : 					pMinObj = pObj;
; 3808 : 				}
; 3809 : 			}
; 3810 : 		}
; 3811 : 	}
; 3812 : 	END_LINKMAP
; 3813 : 
; 3814 : 	// ľĆŔĚĹŰ ÁýŔ»°Ô ŔÖ´Ů.
; 3815 : 	if( pMinObj )
; 3816 : 	{
; 3817 : 		CMD_SetUseItem( (CCtrl*)pMinObj );
; 3818 : 	}
; 3819 : #endif // __CLIENT
; 3820 : }

  00000	c2 00 00	 ret	 0
?DoPickupItemAround@CMover@@QAEXXZ ENDP			; CMover::DoPickupItemAround
_TEXT	ENDS
; Function compile flags: /Ogtp
; File C:\IAGOS\server\v18\Source\Source\_Common\MoverSkill.cpp
; File C:\Program Files\Microsoft Visual Studio\2022\Professional\VC\Tools\MSVC\14.44.35207\include\xtree
; File C:\IAGOS\server\v18\Source\Source\_Common\MoverSkill.cpp
; File C:\IAGOS\server\v18\Source\Source\_Common\Project.h
; File C:\IAGOS\server\v18\Source\Source\_Common\data.h
; File C:\IAGOS\server\v18\Source\Source\_Common\MoverSkill.cpp
; File C:\IAGOS\server\v18\Source\Source\_Common\Project.h
; File C:\Program Files\Microsoft Visual Studio\2022\Professional\VC\Tools\MSVC\14.44.35207\include\xtree
; File C:\IAGOS\server\v18\Source\Source\_Common\MoverSkill.cpp
; File C:\Program Files\Microsoft Visual Studio\2022\Professional\VC\Tools\MSVC\14.44.35207\include\xtree
; File C:\Program Files\Microsoft Visual Studio\2022\Professional\VC\Tools\MSVC\14.44.35207\include\type_traits
; File C:\Program Files\Microsoft Visual Studio\2022\Professional\VC\Tools\MSVC\14.44.35207\include\xtree
; File C:\Program Files\Microsoft Visual Studio\2022\Professional\VC\Tools\MSVC\14.44.35207\include\type_traits
; File C:\Program Files\Microsoft Visual Studio\2022\Professional\VC\Tools\MSVC\14.44.35207\include\xtree
; File C:\IAGOS\server\v18\Source\Source\_Common\MoverSkill.cpp
;	COMDAT ?DoUseItemKeep@CMover@@QAEHPAUItemProp@@PAVCItemElem@@H@Z
_TEXT	SEGMENT
_pItemProp$ = 8						; size = 4
_pItemElem$ = 12					; size = 4
_nPart$ = 16						; size = 4
?DoUseItemKeep@CMover@@QAEHPAUItemProp@@PAVCItemElem@@H@Z PROC ; CMover::DoUseItemKeep, COMDAT
; _this$ = ecx

; 3037 : {

  00000	55		 push	 ebp
  00001	8b ec		 mov	 ebp, esp
  00003	53		 push	 ebx
  00004	8b d9		 mov	 ebx, ecx
  00006	56		 push	 esi
  00007	57		 push	 edi

; 3038 : #ifdef __WORLDSERVER
; 3039 : #ifdef __NEW_STACKABLE_AMPS
; 3040 : // First Check how many Amps are currently active.
; 3041 : 	int nAmount = 0;

  00008	33 ff		 xor	 edi, edi
; File C:\Program Files\Microsoft Visual Studio\2022\Professional\VC\Tools\MSVC\14.44.35207\include\xtree

; 1142 :         return iterator(_Scary->_Myhead->_Left, _Scary);

  0000a	8b 83 f0 02 00
	00		 mov	 eax, DWORD PTR [ebx+752]

; 37   :     _Tree_unchecked_const_iterator(_Nodeptr _Pnode, const _Mytree* _Plist) noexcept : _Ptr(_Pnode) {

  00010	8b 30		 mov	 esi, DWORD PTR [eax]

; 237  :         return !(*this == _Right);

  00012	3b f0		 cmp	 esi, eax
; File C:\IAGOS\server\v18\Source\Source\_Common\MoverSkill.cpp

; 3043 : 	for( MAPBUFF::iterator i = m_buffs.m_mapBuffs.begin(); i != m_buffs.m_mapBuffs.end(); ++i )

  00014	0f 84 9c 00 00
	00		 je	 $LN7@DoUseItemK
  0001a	8b 15 40 02 00
	00		 mov	 edx, DWORD PTR ?prj@@3VCProject@@A+576
$LL4@DoUseItemK:

; 3044 : 	{
; 3045 : 		ItemProp* pItemProp = prj.GetItemProp( i->second->GetId());

  00020	8b 46 14	 mov	 eax, DWORD PTR [esi+20]
  00023	0f b7 48 06	 movzx	 ecx, WORD PTR [eax+6]
; File C:\IAGOS\server\v18\Source\Source\_Common\Project.h

; 1389 : 	VERIFY_RANGE_ASSERT( nIndex, 0, m_aPropItem.GetSize(), "GetItemProp range_error", NULL );

  00027	3b ca		 cmp	 ecx, edx
  00029	7d 1e		 jge	 SHORT $LN76@DoUseItemK
; File C:\IAGOS\server\v18\Source\Source\_Common\data.h

; 270  : 	if( dwIndex >= (DWORD)m_nMaxIndex )

  0002b	72 04		 jb	 SHORT $LN81@DoUseItemK

; 271  : 		return NULL;

  0002d	33 c0		 xor	 eax, eax
  0002f	eb 08		 jmp	 SHORT $LN80@DoUseItemK
$LN81@DoUseItemK:

; 272  : 	return (T*) m_apOffset[ dwIndex ];

  00031	a1 30 02 00 00	 mov	 eax, DWORD PTR ?prj@@3VCProject@@A+560
  00036	8b 04 88	 mov	 eax, DWORD PTR [eax+ecx*4]
$LN80@DoUseItemK:
; File C:\IAGOS\server\v18\Source\Source\_Common\MoverSkill.cpp

; 3047 : 		if( pItemProp )

  00039	85 c0		 test	 eax, eax
  0003b	74 28		 je	 SHORT $LN2@DoUseItemK

; 3048 : 		{
; 3049 : 			if( pItemProp->dwItemKind3 == IK3_EXP_RATE )

  0003d	81 78 78 a4 00
	00 00		 cmp	 DWORD PTR [eax+120], 164 ; 000000a4H
  00044	75 1f		 jne	 SHORT $LN2@DoUseItemK

; 3050 : 			{
; 3051 : 				nAmount++;

  00046	47		 inc	 edi
  00047	eb 1c		 jmp	 SHORT $LN2@DoUseItemK
$LN76@DoUseItemK:
; File C:\IAGOS\server\v18\Source\Source\_Common\Project.h

; 579  : 	LPCTSTR szErr = Error( _T( "%s min:%d, max:%d, index:%d" ), szMsg, nMin, nMax, nIndex ); 

  00049	51		 push	 ecx
  0004a	52		 push	 edx
  0004b	6a 00		 push	 0
  0004d	68 00 00 00 00	 push	 OFFSET ??_C@_0BI@BEIFNGEL@GetItemProp?5range_error@
  00052	68 00 00 00 00	 push	 OFFSET ??_C@_0BM@HMFGHCP@?$CFs?5min?3?$CFd?0?5max?3?$CFd?0?5index?3?$CFd@
  00057	e8 00 00 00 00	 call	 ?Error@@YAPBDPBDZZ	; Error
  0005c	8b 15 40 02 00
	00		 mov	 edx, DWORD PTR ?prj@@3VCProject@@A+576
  00062	83 c4 14	 add	 esp, 20			; 00000014H
$LN2@DoUseItemK:
; File C:\Program Files\Microsoft Visual Studio\2022\Professional\VC\Tools\MSVC\14.44.35207\include\xtree

; 50   :         if (_Ptr->_Right->_Isnil) { // climb looking for right subtree

  00065	8b 46 08	 mov	 eax, DWORD PTR [esi+8]
  00068	80 78 0d 00	 cmp	 BYTE PTR [eax+13], 0
  0006c	74 1d		 je	 SHORT $LN53@DoUseItemK

; 51   :             _Nodeptr _Pnode;
; 52   :             while (!(_Pnode = _Ptr->_Parent)->_Isnil && _Ptr == _Pnode->_Right) {

  0006e	8b 46 04	 mov	 eax, DWORD PTR [esi+4]
  00071	80 78 0d 00	 cmp	 BYTE PTR [eax+13], 0
  00075	75 10		 jne	 SHORT $LN170@DoUseItemK
$LL51@DoUseItemK:
  00077	3b 70 08	 cmp	 esi, DWORD PTR [eax+8]
  0007a	75 0b		 jne	 SHORT $LN170@DoUseItemK

; 53   :                 _Ptr = _Pnode; // ==> parent while right subtree

  0007c	8b f0		 mov	 esi, eax
  0007e	8b 40 04	 mov	 eax, DWORD PTR [eax+4]
  00081	80 78 0d 00	 cmp	 BYTE PTR [eax+13], 0
  00085	74 f0		 je	 SHORT $LL51@DoUseItemK
$LN170@DoUseItemK:

; 54   :             }
; 55   : 
; 56   :             _Ptr = _Pnode; // ==> parent (head if end())

  00087	8b f0		 mov	 esi, eax

; 57   :         } else {

  00089	eb 16		 jmp	 SHORT $LN59@DoUseItemK
$LN53@DoUseItemK:

; 58   :             _Ptr = _Mytree::_Min(_Ptr->_Right); // ==> smallest of right subtree

  0008b	8b f0		 mov	 esi, eax

; 476  :         while (!_Pnode->_Left->_Isnil) {

  0008d	8b 0e		 mov	 ecx, DWORD PTR [esi]
  0008f	80 79 0d 00	 cmp	 BYTE PTR [ecx+13], 0
  00093	75 0c		 jne	 SHORT $LN59@DoUseItemK
$LL58@DoUseItemK:
  00095	8b 01		 mov	 eax, DWORD PTR [ecx]

; 477  :             _Pnode = _Pnode->_Left;

  00097	8b f1		 mov	 esi, ecx
  00099	8b c8		 mov	 ecx, eax
  0009b	80 78 0d 00	 cmp	 BYTE PTR [eax+13], 0
  0009f	74 f4		 je	 SHORT $LL58@DoUseItemK
$LN59@DoUseItemK:

; 237  :         return !(*this == _Right);

  000a1	3b b3 f0 02 00
	00		 cmp	 esi, DWORD PTR [ebx+752]
; File C:\IAGOS\server\v18\Source\Source\_Common\MoverSkill.cpp

; 3043 : 	for( MAPBUFF::iterator i = m_buffs.m_mapBuffs.begin(); i != m_buffs.m_mapBuffs.end(); ++i )

  000a7	0f 85 73 ff ff
	ff		 jne	 $LL4@DoUseItemK

; 3052 : 			}
; 3053 : 		}
; 3054 : 	}
; 3055 : // Cant hold more Amps
; 3056 : 	if( nAmount >= MAX_AMP_STACK_COUNT )

  000ad	83 ff 05	 cmp	 edi, 5
  000b0	0f 8d c7 00 00
	00		 jge	 $LN168@DoUseItemK
$LN7@DoUseItemK:

; 3057 : 	{
; 3058 : 		return 2;
; 3059 : 	}
; 3060 : // Check Level
; 3061 : 	if( GetLevel() < pItemProp->nMinLimitLevel || GetLevel() > pItemProp->nMaxLimitLevel )

  000b6	8b 75 08	 mov	 esi, DWORD PTR _pItemProp$[ebp]
  000b9	8b 83 d8 05 00
	00		 mov	 eax, DWORD PTR [ebx+1496]
  000bf	3b 86 88 02 00
	00		 cmp	 eax, DWORD PTR [esi+648]
  000c5	0f 8c cc 01 00
	00		 jl	 $LN9@DoUseItemK
  000cb	3b 86 8c 02 00
	00		 cmp	 eax, DWORD PTR [esi+652]
  000d1	0f 8f c0 01 00
	00		 jg	 $LN9@DoUseItemK

; 3062 : 	{
; 3063 : 		return 1;
; 3064 : 	}
; 3065 : // Can hold more Amps. Try activating scroll
; 3066 : 	if( HasBuff( BUFF_ITEM, (WORD) ( pItemProp->dwID )))

  000d7	0f b7 06	 movzx	 eax, WORD PTR [esi]
  000da	8b cb		 mov	 ecx, ebx
  000dc	50		 push	 eax
  000dd	6a 00		 push	 0
  000df	e8 00 00 00 00	 call	 ?HasBuff@CMover@@QAEHGG@Z ; CMover::HasBuff
  000e4	85 c0		 test	 eax, eax
  000e6	0f 84 84 01 00
	00		 je	 $LN10@DoUseItemK
; File C:\Program Files\Microsoft Visual Studio\2022\Professional\VC\Tools\MSVC\14.44.35207\include\xtree

; 1630 :         _Tree_find_result<_Nodeptr> _Result{{_Scary->_Myhead->_Parent, _Tree_child::_Right}, _Scary->_Myhead};

  000ec	8b 3d 20 00 00
	00		 mov	 edi, DWORD PTR ?prj@@3VCProject@@A+32
  000f2	8b cf		 mov	 ecx, edi
  000f4	8b 47 04	 mov	 eax, DWORD PTR [edi+4]

; 1631 :         _Nodeptr _Trynode = _Result._Location._Parent;
; 1632 :         while (!_Trynode->_Isnil) {

  000f7	80 78 0d 00	 cmp	 BYTE PTR [eax+13], 0
  000fb	75 17		 jne	 SHORT $LN102@DoUseItemK
; File C:\Program Files\Microsoft Visual Studio\2022\Professional\VC\Tools\MSVC\14.44.35207\include\type_traits

; 2380 :         return _Left < _Right;

  000fd	8b 16		 mov	 edx, DWORD PTR [esi]
  000ff	90		 npad	 1
$LL101@DoUseItemK:
  00100	39 50 10	 cmp	 DWORD PTR [eax+16], edx
; File C:\Program Files\Microsoft Visual Studio\2022\Professional\VC\Tools\MSVC\14.44.35207\include\xtree

; 1634 :             if (_DEBUG_LT_PRED(_Getcomp(), _Traits::_Kfn(_Trynode->_Myval), _Keyval)) {

  00103	73 05		 jae	 SHORT $LN103@DoUseItemK

; 1635 :                 _Result._Location._Child = _Tree_child::_Right;
; 1636 :                 _Trynode                 = _Trynode->_Right;

  00105	8b 40 08	 mov	 eax, DWORD PTR [eax+8]

; 1637 :             } else {

  00108	eb 04		 jmp	 SHORT $LN104@DoUseItemK
$LN103@DoUseItemK:

; 1638 :                 _Result._Location._Child = _Tree_child::_Left;
; 1639 :                 _Result._Bound           = _Trynode;

  0010a	8b c8		 mov	 ecx, eax

; 1640 :                 _Trynode                 = _Trynode->_Left;

  0010c	8b 00		 mov	 eax, DWORD PTR [eax]
$LN104@DoUseItemK:

; 1631 :         _Nodeptr _Trynode = _Result._Location._Parent;
; 1632 :         while (!_Trynode->_Isnil) {

  0010e	80 78 0d 00	 cmp	 BYTE PTR [eax+13], 0
  00112	74 ec		 je	 SHORT $LL101@DoUseItemK
$LN102@DoUseItemK:

; 1624 :         return !_Bound->_Isnil && !_DEBUG_LT_PRED(_Getcomp(), _Keyval, _Traits::_Kfn(_Bound->_Myval));

  00114	80 79 0d 00	 cmp	 BYTE PTR [ecx+13], 0
  00118	75 07		 jne	 SHORT $LN98@DoUseItemK
; File C:\Program Files\Microsoft Visual Studio\2022\Professional\VC\Tools\MSVC\14.44.35207\include\type_traits

; 2380 :         return _Left < _Right;

  0011a	8b 06		 mov	 eax, DWORD PTR [esi]
  0011c	3b 41 10	 cmp	 eax, DWORD PTR [ecx+16]
; File C:\Program Files\Microsoft Visual Studio\2022\Professional\VC\Tools\MSVC\14.44.35207\include\xtree

; 1624 :         return !_Bound->_Isnil && !_DEBUG_LT_PRED(_Getcomp(), _Keyval, _Traits::_Kfn(_Bound->_Myval));

  0011f	73 02		 jae	 SHORT $LN97@DoUseItemK
$LN98@DoUseItemK:

; 1389 :         return _Get_scary()->_Myhead;

  00121	8b cf		 mov	 ecx, edi
$LN97@DoUseItemK:

; 37   :     _Tree_unchecked_const_iterator(_Nodeptr _Pnode, const _Mytree* _Plist) noexcept : _Ptr(_Pnode) {

  00123	3b cf		 cmp	 ecx, edi
; File C:\IAGOS\server\v18\Source\Source\_Common\MoverSkill.cpp

; 3069 : 		if( i != prj.m_mapAmpStore.end() )

  00125	0f 84 39 01 00
	00		 je	 $LN24@DoUseItemK

; 3070 : 		{
; 3071 : 			AMP_STORE_INFO* info = i->second;

  0012b	8b 79 14	 mov	 edi, DWORD PTR [ecx+20]

; 3072 : 			if( HasBuff( BUFF_ITEM, (WORD)(info->dwIDSecond)))

  0012e	8b cb		 mov	 ecx, ebx
  00130	0f b7 07	 movzx	 eax, WORD PTR [edi]
  00133	50		 push	 eax
  00134	6a 00		 push	 0
  00136	e8 00 00 00 00	 call	 ?HasBuff@CMover@@QAEHGG@Z ; CMover::HasBuff
  0013b	85 c0		 test	 eax, eax
  0013d	0f 84 ed 00 00
	00		 je	 $LN13@DoUseItemK

; 3073 : 			{
; 3074 : 				if( HasBuff( BUFF_ITEM, (WORD)(info->dwIDThird)))

  00143	0f b7 47 04	 movzx	 eax, WORD PTR [edi+4]
  00147	8b cb		 mov	 ecx, ebx
  00149	50		 push	 eax
  0014a	6a 00		 push	 0
  0014c	e8 00 00 00 00	 call	 ?HasBuff@CMover@@QAEHGG@Z ; CMover::HasBuff
  00151	85 c0		 test	 eax, eax
  00153	0f 84 a2 00 00
	00		 je	 $LN15@DoUseItemK

; 3075 : 				{
; 3076 : 					if( HasBuff( BUFF_ITEM, (WORD) (info->dwIDFourth)))

  00159	0f b7 47 08	 movzx	 eax, WORD PTR [edi+8]
  0015d	8b cb		 mov	 ecx, ebx
  0015f	50		 push	 eax
  00160	6a 00		 push	 0
  00162	e8 00 00 00 00	 call	 ?HasBuff@CMover@@QAEHGG@Z ; CMover::HasBuff
  00167	85 c0		 test	 eax, eax
  00169	74 57		 je	 SHORT $LN17@DoUseItemK

; 3077 : 					{
; 3078 : 						if( HasBuff( BUFF_ITEM, (WORD) (info->dwIDFifth)))

  0016b	0f b7 47 0c	 movzx	 eax, WORD PTR [edi+12]
  0016f	8b cb		 mov	 ecx, ebx
  00171	50		 push	 eax
  00172	6a 00		 push	 0
  00174	e8 00 00 00 00	 call	 ?HasBuff@CMover@@QAEHGG@Z ; CMover::HasBuff
  00179	85 c0		 test	 eax, eax
  0017b	74 0c		 je	 SHORT $LN19@DoUseItemK
$LN168@DoUseItemK:
  0017d	5f		 pop	 edi

; 3128 : 		return 4;
; 3129 : 	}
; 3130 : #endif // __NEW_STACKABLE_AMPS
; 3131 : #endif // __WORLDSERVER
; 3132 : 	return 3;
; 3133 : }

  0017e	5e		 pop	 esi
  0017f	b8 02 00 00 00	 mov	 eax, 2
  00184	5b		 pop	 ebx
  00185	5d		 pop	 ebp
  00186	c2 0c 00	 ret	 12			; 0000000cH
$LN19@DoUseItemK:

; 3079 : 						{
; 3080 : 							return 2;
; 3081 : 						}
; 3082 : 						else
; 3083 : 						{
; 3084 : 							if( pItemProp->nMaxDuplication >= 5 )

  00189	83 be 98 02 00
	00 05		 cmp	 DWORD PTR [esi+664], 5
  00190	0f 8c ce 00 00
	00		 jl	 $LN24@DoUseItemK

; 3085 : 							{
; 3086 : 								ItemProp* pAmpProp = prj.GetItemProp( info->dwIDFifth );

  00196	ff 77 0c	 push	 DWORD PTR [edi+12]
  00199	b9 00 00 00 00	 mov	 ecx, OFFSET ?prj@@3VCProject@@A ; prj
  0019e	e8 00 00 00 00	 call	 ?GetItemProp@CProject@@QAEPAUItemProp@@H@Z ; CProject::GetItemProp

; 3087 : 								DoApplySkill( (CCtrl*)this, pAmpProp, NULL );

  001a3	6a 00		 push	 0
  001a5	6a 00		 push	 0
  001a7	6a 00		 push	 0
  001a9	6a 00		 push	 0
  001ab	6a 00		 push	 0
  001ad	50		 push	 eax
  001ae	53		 push	 ebx
  001af	8b cb		 mov	 ecx, ebx
  001b1	e8 00 00 00 00	 call	 ?DoApplySkill@CCtrl@@QAEHPAV1@PAUItemProp@@PAUAddSkillProp@@_NHHH@Z ; CCtrl::DoApplySkill
  001b6	5f		 pop	 edi

; 3128 : 		return 4;
; 3129 : 	}
; 3130 : #endif // __NEW_STACKABLE_AMPS
; 3131 : #endif // __WORLDSERVER
; 3132 : 	return 3;
; 3133 : }

  001b7	5e		 pop	 esi
  001b8	b8 04 00 00 00	 mov	 eax, 4
  001bd	5b		 pop	 ebx
  001be	5d		 pop	 ebp
  001bf	c2 0c 00	 ret	 12			; 0000000cH
$LN17@DoUseItemK:

; 3088 : 								return 4;
; 3089 : 							}
; 3090 : 						}
; 3091 : 					}
; 3092 : 					else
; 3093 : 					{
; 3094 : 						if( pItemProp->nMaxDuplication >= 4 )

  001c2	83 be 98 02 00
	00 04		 cmp	 DWORD PTR [esi+664], 4
  001c9	0f 8c 95 00 00
	00		 jl	 $LN24@DoUseItemK

; 3095 : 						{
; 3096 : 							ItemProp* pAmpProp = prj.GetItemProp( info->dwIDFourth );

  001cf	ff 77 08	 push	 DWORD PTR [edi+8]
  001d2	b9 00 00 00 00	 mov	 ecx, OFFSET ?prj@@3VCProject@@A ; prj
  001d7	e8 00 00 00 00	 call	 ?GetItemProp@CProject@@QAEPAUItemProp@@H@Z ; CProject::GetItemProp

; 3097 : 							DoApplySkill( (CCtrl*)this, pAmpProp, NULL );

  001dc	6a 00		 push	 0
  001de	6a 00		 push	 0
  001e0	6a 00		 push	 0
  001e2	6a 00		 push	 0
  001e4	6a 00		 push	 0
  001e6	50		 push	 eax
  001e7	53		 push	 ebx
  001e8	8b cb		 mov	 ecx, ebx
  001ea	e8 00 00 00 00	 call	 ?DoApplySkill@CCtrl@@QAEHPAV1@PAUItemProp@@PAUAddSkillProp@@_NHHH@Z ; CCtrl::DoApplySkill
  001ef	5f		 pop	 edi

; 3128 : 		return 4;
; 3129 : 	}
; 3130 : #endif // __NEW_STACKABLE_AMPS
; 3131 : #endif // __WORLDSERVER
; 3132 : 	return 3;
; 3133 : }

  001f0	5e		 pop	 esi
  001f1	b8 04 00 00 00	 mov	 eax, 4
  001f6	5b		 pop	 ebx
  001f7	5d		 pop	 ebp
  001f8	c2 0c 00	 ret	 12			; 0000000cH
$LN15@DoUseItemK:

; 3098 : 							return 4;
; 3099 : 						}
; 3100 : 					}
; 3101 : 				}
; 3102 : 				else
; 3103 : 				{
; 3104 : 					if( pItemProp->nMaxDuplication >= 3 )

  001fb	83 be 98 02 00
	00 03		 cmp	 DWORD PTR [esi+664], 3
  00202	7c 60		 jl	 SHORT $LN24@DoUseItemK

; 3105 : 					{
; 3106 : 						ItemProp* pAmpProp = prj.GetItemProp( info->dwIDThird );

  00204	ff 77 04	 push	 DWORD PTR [edi+4]
  00207	b9 00 00 00 00	 mov	 ecx, OFFSET ?prj@@3VCProject@@A ; prj
  0020c	e8 00 00 00 00	 call	 ?GetItemProp@CProject@@QAEPAUItemProp@@H@Z ; CProject::GetItemProp

; 3107 : 						DoApplySkill( (CCtrl*)this, pAmpProp, NULL );

  00211	6a 00		 push	 0
  00213	6a 00		 push	 0
  00215	6a 00		 push	 0
  00217	6a 00		 push	 0
  00219	6a 00		 push	 0
  0021b	50		 push	 eax
  0021c	53		 push	 ebx
  0021d	8b cb		 mov	 ecx, ebx
  0021f	e8 00 00 00 00	 call	 ?DoApplySkill@CCtrl@@QAEHPAV1@PAUItemProp@@PAUAddSkillProp@@_NHHH@Z ; CCtrl::DoApplySkill
  00224	5f		 pop	 edi

; 3128 : 		return 4;
; 3129 : 	}
; 3130 : #endif // __NEW_STACKABLE_AMPS
; 3131 : #endif // __WORLDSERVER
; 3132 : 	return 3;
; 3133 : }

  00225	5e		 pop	 esi
  00226	b8 04 00 00 00	 mov	 eax, 4
  0022b	5b		 pop	 ebx
  0022c	5d		 pop	 ebp
  0022d	c2 0c 00	 ret	 12			; 0000000cH
$LN13@DoUseItemK:

; 3108 : 						return 4;
; 3109 : 					}
; 3110 : 				}
; 3111 : 			}
; 3112 : 			else
; 3113 : 			{
; 3114 : 				if( pItemProp->nMaxDuplication >= 2 )

  00230	83 be 98 02 00
	00 02		 cmp	 DWORD PTR [esi+664], 2
  00237	7c 2b		 jl	 SHORT $LN24@DoUseItemK

; 3115 : 				{
; 3116 : 					ItemProp* pAmpProp = prj.GetItemProp( info->dwIDSecond );

  00239	ff 37		 push	 DWORD PTR [edi]
  0023b	b9 00 00 00 00	 mov	 ecx, OFFSET ?prj@@3VCProject@@A ; prj
  00240	e8 00 00 00 00	 call	 ?GetItemProp@CProject@@QAEPAUItemProp@@H@Z ; CProject::GetItemProp

; 3117 : 					DoApplySkill( (CCtrl*)this, pAmpProp, NULL );

  00245	6a 00		 push	 0
  00247	6a 00		 push	 0
  00249	6a 00		 push	 0
  0024b	6a 00		 push	 0
  0024d	6a 00		 push	 0
  0024f	50		 push	 eax
  00250	53		 push	 ebx
  00251	8b cb		 mov	 ecx, ebx
  00253	e8 00 00 00 00	 call	 ?DoApplySkill@CCtrl@@QAEHPAV1@PAUItemProp@@PAUAddSkillProp@@_NHHH@Z ; CCtrl::DoApplySkill
  00258	5f		 pop	 edi

; 3128 : 		return 4;
; 3129 : 	}
; 3130 : #endif // __NEW_STACKABLE_AMPS
; 3131 : #endif // __WORLDSERVER
; 3132 : 	return 3;
; 3133 : }

  00259	5e		 pop	 esi
  0025a	b8 04 00 00 00	 mov	 eax, 4
  0025f	5b		 pop	 ebx
  00260	5d		 pop	 ebp
  00261	c2 0c 00	 ret	 12			; 0000000cH
$LN24@DoUseItemK:
  00264	5f		 pop	 edi
  00265	5e		 pop	 esi
  00266	b8 03 00 00 00	 mov	 eax, 3
  0026b	5b		 pop	 ebx
  0026c	5d		 pop	 ebp
  0026d	c2 0c 00	 ret	 12			; 0000000cH
$LN10@DoUseItemK:

; 3118 : 					return 4;
; 3119 : 				}
; 3120 : 			}
; 3121 : 		}
; 3122 : 	}
; 3123 : 	else
; 3124 : 	{
; 3125 : //		DoApplySkill( (CCtrl*)this, pItemProp, NULL );
; 3126 : //		Error( "%d", (DWORD)pItemProp->dwSkillTime );
; 3127 : 		AddBuff( BUFF_ITEM, (WORD)(pItemProp->dwID), 0, pItemProp->dwSkillTime, GetId() );

  00270	ff b3 bc 01 00
	00		 push	 DWORD PTR [ebx+444]
  00276	0f b7 06	 movzx	 eax, WORD PTR [esi]
  00279	8b cb		 mov	 ecx, ebx
  0027b	ff b6 c0 01 00
	00		 push	 DWORD PTR [esi+448]
  00281	6a 00		 push	 0
  00283	50		 push	 eax
  00284	6a 00		 push	 0
  00286	e8 00 00 00 00	 call	 ?AddBuff@CMover@@QAEHGGKKK@Z ; CMover::AddBuff
  0028b	5f		 pop	 edi

; 3128 : 		return 4;
; 3129 : 	}
; 3130 : #endif // __NEW_STACKABLE_AMPS
; 3131 : #endif // __WORLDSERVER
; 3132 : 	return 3;
; 3133 : }

  0028c	5e		 pop	 esi
  0028d	b8 04 00 00 00	 mov	 eax, 4
  00292	5b		 pop	 ebx
  00293	5d		 pop	 ebp
  00294	c2 0c 00	 ret	 12			; 0000000cH
$LN9@DoUseItemK:
  00297	5f		 pop	 edi
  00298	5e		 pop	 esi
  00299	b8 01 00 00 00	 mov	 eax, 1
  0029e	5b		 pop	 ebx
  0029f	5d		 pop	 ebp
  002a0	c2 0c 00	 ret	 12			; 0000000cH
?DoUseItemKeep@CMover@@QAEHPAUItemProp@@PAVCItemElem@@H@Z ENDP ; CMover::DoUseItemKeep
_TEXT	ENDS
; Function compile flags: /Ogtp
; File C:\IAGOS\server\v18\Source\Source\_Common\MoverSkill.cpp
;	COMDAT ?DoUseItemOnce@CMover@@QAEHPAUItemProp@@PAVCItemElem@@H@Z
_TEXT	SEGMENT
_pItemProp$ = 8						; size = 4
_pItemElem$ = 12					; size = 4
_nPart$ = 16						; size = 4
?DoUseItemOnce@CMover@@QAEHPAUItemProp@@PAVCItemElem@@H@Z PROC ; CMover::DoUseItemOnce, COMDAT
; _this$ = ecx

; 3026 : {

  00000	55		 push	 ebp
  00001	8b ec		 mov	 ebp, esp
  00003	56		 push	 esi
  00004	57		 push	 edi

; 3027 : 	int nResult = 0;
; 3028 : #ifdef __WORLDSERVER
; 3029 : 	if( HasBuffByIk3( pItemProp->dwItemKind3 ))

  00005	8b 7d 08	 mov	 edi, DWORD PTR _pItemProp$[ebp]
  00008	8b f1		 mov	 esi, ecx
  0000a	ff 77 78	 push	 DWORD PTR [edi+120]
  0000d	e8 00 00 00 00	 call	 ?HasBuffByIk3@CMover@@QAEHK@Z ; CMover::HasBuffByIk3
  00012	85 c0		 test	 eax, eax
  00014	74 0b		 je	 SHORT $LN2@DoUseItemO

; 3033 : #endif // __WORLDSERVER
; 3034 : 	return nResult;

  00016	5f		 pop	 edi
  00017	b8 02 00 00 00	 mov	 eax, 2

; 3035 : }

  0001c	5e		 pop	 esi
  0001d	5d		 pop	 ebp
  0001e	c2 0c 00	 ret	 12			; 0000000cH
$LN2@DoUseItemO:

; 3030 : 		nResult = 2;
; 3031 : 	else
; 3032 : 		DoApplySkill( (CCtrl*)this, pItemProp, NULL );

  00021	6a 00		 push	 0
  00023	6a 00		 push	 0
  00025	6a 00		 push	 0
  00027	6a 00		 push	 0
  00029	6a 00		 push	 0
  0002b	57		 push	 edi
  0002c	56		 push	 esi
  0002d	8b ce		 mov	 ecx, esi
  0002f	e8 00 00 00 00	 call	 ?DoApplySkill@CCtrl@@QAEHPAV1@PAUItemProp@@PAUAddSkillProp@@_NHHH@Z ; CCtrl::DoApplySkill
  00034	5f		 pop	 edi

; 3033 : #endif // __WORLDSERVER
; 3034 : 	return nResult;

  00035	33 c0		 xor	 eax, eax

; 3035 : }

  00037	5e		 pop	 esi
  00038	5d		 pop	 ebp
  00039	c2 0c 00	 ret	 12			; 0000000cH
?DoUseItemOnce@CMover@@QAEHPAUItemProp@@PAVCItemElem@@H@Z ENDP ; CMover::DoUseItemOnce
_TEXT	ENDS
; Function compile flags: /Ogtp
; File C:\IAGOS\server\v18\Source\Source\_Common\MoverSkill.cpp
; File C:\IAGOS\server\v18\Source\Source\WorldServer\User.h
; File C:\IAGOS\server\v18\Source\Source\_Common\MoverSkill.cpp
; File C:\IAGOS\server\v18\Source\Source\_Common\Mover.h
; File C:\IAGOS\server\v18\Source\Source\_Common\MoverSkill.cpp
; File C:\IAGOS\server\v18\Source\Source\_Common\Mover.h
; File C:\IAGOS\server\v18\Source\Source\_Common\MoverSkill.cpp
; File C:\IAGOS\server\v18\Source\Source\_Common\Mover.h
; File C:\IAGOS\server\v18\Source\Source\_Common\MoverSkill.cpp
; File C:\IAGOS\server\v18\Source\Source\_Common\Mover.h
; File C:\IAGOS\server\v18\Source\Source\_Common\MoverSkill.cpp
; File C:\IAGOS\server\v18\Source\Source\_Common\Mover.h
; File C:\IAGOS\server\v18\Source\Source\_Common\MoverSkill.cpp
; File C:\IAGOS\server\v18\Source\Source\_Common\Mover.h
; File C:\IAGOS\server\v18\Source\Source\_Common\MoverSkill.cpp
; File C:\IAGOS\server\v18\Source\Source\_Common\Mover.h
; File C:\IAGOS\server\v18\Source\Source\_Common\MoverSkill.cpp
; File C:\IAGOS\server\v18\Source\Source\_Common\Mover.h
; File C:\IAGOS\server\v18\Source\Source\_Common\MoverSkill.cpp
; File C:\IAGOS\server\v18\Source\Source\_Common\Mover.h
; File C:\IAGOS\server\v18\Source\Source\_Common\MoverSkill.cpp
; File C:\IAGOS\server\v18\Source\Source\_Common\Mover.h
; File C:\IAGOS\server\v18\Source\Source\_Common\MoverSkill.cpp
; File C:\IAGOS\server\v18\Source\Source\_Common\Mover.h
; File C:\IAGOS\server\v18\Source\Source\_Common\MoverSkill.cpp
; File C:\IAGOS\server\v18\Source\Source\_Common\Obj.h
; File C:\IAGOS\server\v18\Source\Source\_Common\MoverSkill.cpp
; File C:\IAGOS\server\v18\Source\Source\_Common\Obj.h
; File C:\IAGOS\server\v18\Source\Source\_Common\MoverSkill.cpp
; File C:\IAGOS\server\v18\Source\Source\_Common\Obj.h
; File C:\IAGOS\server\v18\Source\Source\_Common\MoverSkill.cpp
; File C:\IAGOS\server\v18\Source\Source\_Common\Obj.h
; File C:\IAGOS\server\v18\Source\Source\_Common\MoverSkill.cpp
; File C:\IAGOS\server\v18\Source\Source\_Common\Mover.h
; File C:\IAGOS\server\v18\Source\Source\_Common\MoverSkill.cpp
; File C:\IAGOS\server\v18\Source\Source\_Common\Mover.h
; File C:\IAGOS\server\v18\Source\Source\_Common\MoverSkill.cpp
; File C:\IAGOS\server\v18\Source\Source\_Common\Mover.h
; File C:\IAGOS\server\v18\Source\Source\_Common\MoverSkill.cpp
; File C:\IAGOS\server\v18\Source\Source\_Common\Mover.h
; File C:\IAGOS\server\v18\Source\Source\_Common\MoverSkill.cpp
; File C:\IAGOS\server\v18\Source\Source\_Common\Mover.h
; File C:\IAGOS\server\v18\Source\Source\_Common\MoverSkill.cpp
;	COMDAT ?DoUseItemSystem@CMover@@QAEHPAUItemProp@@PAVCItemElem@@H@Z
_TEXT	SEGMENT
_pItemProp$GSCopy$1$ = -232				; size = 4
_wLife$1$ = -228					; size = 4
_nResult$ = -224					; size = 4
_this$GSCopy$1$ = -224					; size = 4
_pPet$1$ = -220						; size = 4
_fTmpGold$1$ = -220					; size = 4
_aLogItem$1 = -216					; size = 200
_vPos$2 = -16						; size = 12
$T3 = -16						; size = 12
__$ArrayPad$ = -4					; size = 4
_pItemProp$ = 8						; size = 4
_pItemElem$ = 12					; size = 4
_nPart$ = 16						; size = 4
?DoUseItemSystem@CMover@@QAEHPAUItemProp@@PAVCItemElem@@H@Z PROC ; CMover::DoUseItemSystem, COMDAT
; _this$ = ecx

; 2059 : {

  00000	55		 push	 ebp
  00001	8b ec		 mov	 ebp, esp
  00003	81 ec e8 00 00
	00		 sub	 esp, 232		; 000000e8H
  00009	a1 00 00 00 00	 mov	 eax, DWORD PTR ___security_cookie
  0000e	33 c5		 xor	 eax, ebp
  00010	89 45 fc	 mov	 DWORD PTR __$ArrayPad$[ebp], eax
  00013	53		 push	 ebx
  00014	8b 5d 08	 mov	 ebx, DWORD PTR _pItemProp$[ebp]
  00017	56		 push	 esi
  00018	8b 75 0c	 mov	 esi, DWORD PTR _pItemElem$[ebp]
  0001b	57		 push	 edi
  0001c	8b f9		 mov	 edi, ecx
  0001e	89 9d 18 ff ff
	ff		 mov	 DWORD PTR _pItemProp$GSCopy$1$[ebp], ebx
  00024	89 bd 20 ff ff
	ff		 mov	 DWORD PTR _this$GSCopy$1$[ebp], edi

; 2060 : 	int nResult = 0;
; 2061 : #ifdef __WORLDSERVER
; 2062 : #ifdef __AZRIA_1023
; 2063 : 	if( IsPlayer() )

  0002a	8b 8f 30 02 00
	00		 mov	 ecx, DWORD PTR [edi+560]
  00030	85 c9		 test	 ecx, ecx
  00032	74 25		 je	 SHORT $LN5@DoUseItemS
; File C:\IAGOS\server\v18\Source\Source\WorldServer\User.h

; 556  : 	BOOL	HasInput()	{	return m_szInput[0] != '\0';	}

  00034	80 bf 3c 8f 00
	00 00		 cmp	 BYTE PTR [edi+36668], 0
; File C:\IAGOS\server\v18\Source\Source\_Common\MoverSkill.cpp

; 2066 : 		if( pThis->HasInput() )

  0003b	74 1c		 je	 SHORT $LN5@DoUseItemS

; 2067 : 			return pThis->DoUseItemInput( pItemProp, pItemElem );

  0003d	56		 push	 esi
  0003e	53		 push	 ebx
  0003f	8b cf		 mov	 ecx, edi
  00041	e8 00 00 00 00	 call	 ?DoUseItemInput@CUser@@QAEHPAUItemProp@@PAVCItemElem@@@Z ; CUser::DoUseItemInput
  00046	5f		 pop	 edi

; 3015 : 		}
; 3016 : 	}
; 3017 : #endif // __BALLOON_CODE_IMPROVEMENT
; 3018 : 
; 3019 : #endif // __WORLDSERVER
; 3020 : 
; 3021 : 	return nResult;
; 3022 : }

  00047	5e		 pop	 esi
  00048	5b		 pop	 ebx
  00049	8b 4d fc	 mov	 ecx, DWORD PTR __$ArrayPad$[ebp]
  0004c	33 cd		 xor	 ecx, ebp
  0004e	e8 00 00 00 00	 call	 @__security_check_cookie@4
  00053	8b e5		 mov	 esp, ebp
  00055	5d		 pop	 ebp
  00056	c2 0c 00	 ret	 12			; 0000000cH
$LN5@DoUseItemS:

; 2068 : 	}
; 2069 : #endif	// __AZRIA_1023
; 2070 : 	switch( pItemProp->dwID )

  00059	8b 03		 mov	 eax, DWORD PTR [ebx]
  0005b	0f b7 d0	 movzx	 edx, ax
  0005e	3d e3 28 00 00	 cmp	 eax, 10467		; 000028e3H
  00063	0f 87 06 03 00
	00		 ja	 $LN177@DoUseItemS
  00069	0f 84 68 08 00
	00		 je	 $LN90@DoUseItemS
  0006f	2d e3 27 00 00	 sub	 eax, 10211		; 000027e3H
  00074	3d fd 00 00 00	 cmp	 eax, 253		; 000000fdH
  00079	0f 87 ab 0b 00
	00		 ja	 $LN87@DoUseItemS
  0007f	0f b6 80 00 00
	00 00		 movzx	 eax, BYTE PTR $LN229@DoUseItemS[eax]
  00086	ff 24 85 00 00
	00 00		 jmp	 DWORD PTR $LN230@DoUseItemS[eax*4]
$LN6@DoUseItemS:

; 2071 : 	{
; 2072 : 	case II_CHR_SYS_SCR_RESTATE:
; 2073 : 		{
; 2074 : 			if( m_nInt == 15 && m_nSta == 15 && m_nStr == 15 && m_nDex == 15 )

  0008d	83 bf d4 05 00
	00 0f		 cmp	 DWORD PTR [edi+1492], 15 ; 0000000fH
  00094	75 31		 jne	 SHORT $LN7@DoUseItemS
  00096	83 bf cc 05 00
	00 0f		 cmp	 DWORD PTR [edi+1484], 15 ; 0000000fH
  0009d	75 28		 jne	 SHORT $LN7@DoUseItemS
  0009f	83 bf c8 05 00
	00 0f		 cmp	 DWORD PTR [edi+1480], 15 ; 0000000fH
  000a6	75 1f		 jne	 SHORT $LN7@DoUseItemS
  000a8	83 bf d0 05 00
	00 0f		 cmp	 DWORD PTR [edi+1488], 15 ; 0000000fH
  000af	75 16		 jne	 SHORT $LN7@DoUseItemS

; 2075 : 			{
; 2076 : 				((CUser*)this)->AddDefinedText( TID_GAME_DONOTUSE_RESTATE );

  000b1	68 62 0f 00 00	 push	 3938			; 00000f62H

; 2993 : 		break;
; 2994 : 	}
; 2995 : 
; 2996 : #ifndef __AZRIA_1023
; 2997 : #ifdef __SYS_TICKET
; 2998 : 	if( pItemProp->dwItemKind3 == IK3_TICKET )
; 2999 : 	{
; 3000 : 		( (CUser*)this )->DoUseItemTicket( pItemElem );
; 3001 : 		nResult		= 0;
; 3002 : 	}
; 3003 : #endif	// __SYS_TICKET
; 3004 : #endif	// __AZRIA_1023
; 3005 : 
; 3006 : #if __VER >= 14 // __BALLOON_CODE_IMPROVEMENT
; 3007 : 	if( pItemProp->dwItemKind3 == IK3_BALLOON )

  000b6	8b cf		 mov	 ecx, edi
  000b8	e8 00 00 00 00	 call	 ?AddDefinedText@CUser@@QAEXH@Z ; CUser::AddDefinedText
  000bd	be 01 00 00 00	 mov	 esi, 1
  000c2	e9 73 0b 00 00	 jmp	 $LN164@DoUseItemS
$LN7@DoUseItemS:

; 2077 : 				nResult = 1;
; 2078 : 			}
; 2079 : 			else
; 2080 : 				ReState();

  000c7	8b cf		 mov	 ecx, edi
  000c9	e8 00 00 00 00	 call	 ?ReState@CMover@@QAEXXZ	; CMover::ReState

; 2081 : 		}
; 2082 : 		break;

  000ce	e9 65 0b 00 00	 jmp	 $LN239@DoUseItemS
$LN21@DoUseItemS:

; 2128 : #endif // __S_ADD_RESTATE
; 2129 : 	case II_CHR_SYS_SCR_TRANSY:
; 2130 : 		{
; 2131 : 			if( DoUseItemSexChange( nPart ) == FALSE )

  000d3	ff 75 10	 push	 DWORD PTR _nPart$[ebp]
  000d6	8b cf		 mov	 ecx, edi
  000d8	e8 00 00 00 00	 call	 ?DoUseItemSexChange@CMover@@QAEHH@Z ; CMover::DoUseItemSexChange
  000dd	85 c0		 test	 eax, eax
  000df	0f 84 45 0b 00
	00		 je	 $LN87@DoUseItemS

; 2132 : 			{
; 2133 : 				nResult = 1;
; 2134 : 			}
; 2135 : 			else
; 2136 : 			{
; 2137 : 				if( HasBuffByIk3( IK3_TEXT_DISGUISE ) )

  000e5	6a 51		 push	 81			; 00000051H
  000e7	8b cf		 mov	 ecx, edi
  000e9	e8 00 00 00 00	 call	 ?HasBuffByIk3@CMover@@QAEHK@Z ; CMover::HasBuffByIk3
  000ee	85 c0		 test	 eax, eax
  000f0	0f 84 42 0b 00
	00		 je	 $LN239@DoUseItemS

; 2138 : 					RemoveIk3Buffs( IK3_TEXT_DISGUISE );

  000f6	6a 51		 push	 81			; 00000051H
  000f8	8b cf		 mov	 ecx, edi
  000fa	e8 00 00 00 00	 call	 ?RemoveIk3Buffs@CMover@@QAEXK@Z ; CMover::RemoveIk3Buffs

; 2139 : 			}
; 2140 : 		}
; 2141 : 		break;

  000ff	e9 34 0b 00 00	 jmp	 $LN239@DoUseItemS
$LN35@DoUseItemS:

; 2203 : 				nResult	= 1;
; 2204 : 			}
; 2205 : 			break;
; 2206 : 		}
; 2207 : #endif	// __SYS_COLLECTING
; 2208 : 	case II_CHR_SYS_SCR_SHOUTFULL15:
; 2209 : 		{
; 2210 : 			if( !IsShoutFull() )

  00104	8b cf		 mov	 ecx, edi
  00106	e8 00 00 00 00	 call	 ?IsShoutFull@CMover@@QAEHXZ ; CMover::IsShoutFull
  0010b	85 c0		 test	 eax, eax
  0010d	0f 85 cc 02 00
	00		 jne	 $LN36@DoUseItemS

; 2211 : 				SetSMMode( SM_SHOUT15, pItemProp->dwCircleTime );

  00113	ff b3 bc 01 00
	00		 push	 DWORD PTR [ebx+444]
  00119	8b cf		 mov	 ecx, edi
  0011b	6a 04		 push	 4
  0011d	e8 00 00 00 00	 call	 ?SetSMMode@CMover@@QAEHHK@Z ; CMover::SetSMMode
  00122	e9 11 0b 00 00	 jmp	 $LN239@DoUseItemS
$LN38@DoUseItemS:

; 2212 : 			else
; 2213 : 				nResult = 2;
; 2214 : 		}
; 2215 : 		break;
; 2216 : 	case II_CHR_SYS_SCR_SHOUTFULL30:
; 2217 : 		{
; 2218 : 			if( !IsShoutFull() )

  00127	8b cf		 mov	 ecx, edi
  00129	e8 00 00 00 00	 call	 ?IsShoutFull@CMover@@QAEHXZ ; CMover::IsShoutFull
  0012e	85 c0		 test	 eax, eax
  00130	0f 85 a9 02 00
	00		 jne	 $LN36@DoUseItemS

; 2219 : 				SetSMMode( SM_SHOUT30, pItemProp->dwCircleTime );

  00136	ff b3 bc 01 00
	00		 push	 DWORD PTR [ebx+444]
  0013c	8b cf		 mov	 ecx, edi
  0013e	6a 05		 push	 5
  00140	e8 00 00 00 00	 call	 ?SetSMMode@CMover@@QAEHHK@Z ; CMover::SetSMMode
  00145	e9 ee 0a 00 00	 jmp	 $LN239@DoUseItemS
$LN47@DoUseItemS:
; File C:\IAGOS\server\v18\Source\Source\_Common\Mover.h

; 1457 : 	BOOL			IsSMMode( int nType ) { return ( m_dwSMTime[nType] > 0 ) ? TRUE : FALSE; }

  0014a	83 bf 54 03 00
	00 00		 cmp	 DWORD PTR [edi+852], 0
; File C:\IAGOS\server\v18\Source\Source\_Common\MoverSkill.cpp

; 2249 : 			if( !( IsSMMode( SM_PARTYSKILL1 ) || IsSMMode( SM_PARTYSKILL15 ) || IsSMMode( SM_PARTYSKILL30 ) ) )

  00151	0f 87 88 02 00
	00		 ja	 $LN36@DoUseItemS
; File C:\IAGOS\server\v18\Source\Source\_Common\Mover.h

; 1457 : 	BOOL			IsSMMode( int nType ) { return ( m_dwSMTime[nType] > 0 ) ? TRUE : FALSE; }

  00157	83 bf 04 03 00
	00 00		 cmp	 DWORD PTR [edi+772], 0
; File C:\IAGOS\server\v18\Source\Source\_Common\MoverSkill.cpp

; 2249 : 			if( !( IsSMMode( SM_PARTYSKILL1 ) || IsSMMode( SM_PARTYSKILL15 ) || IsSMMode( SM_PARTYSKILL30 ) ) )

  0015e	0f 87 7b 02 00
	00		 ja	 $LN36@DoUseItemS
; File C:\IAGOS\server\v18\Source\Source\_Common\Mover.h

; 1457 : 	BOOL			IsSMMode( int nType ) { return ( m_dwSMTime[nType] > 0 ) ? TRUE : FALSE; }

  00164	83 bf 08 03 00
	00 00		 cmp	 DWORD PTR [edi+776], 0
; File C:\IAGOS\server\v18\Source\Source\_Common\MoverSkill.cpp

; 2249 : 			if( !( IsSMMode( SM_PARTYSKILL1 ) || IsSMMode( SM_PARTYSKILL15 ) || IsSMMode( SM_PARTYSKILL30 ) ) )

  0016b	0f 87 6e 02 00
	00		 ja	 $LN36@DoUseItemS

; 2250 : #if __VER >= 12 // __PARSKILL1001	//12Â÷ ĆÄ˝şĹł ľĆŔĚĹŰ ĽöÁ¤  world,core,neuz
; 2251 : 			{
; 2252 : 				SetSMMode( SM_PARTYSKILL15, pItemProp->dwCircleTime );

  00171	ff b3 bc 01 00
	00		 push	 DWORD PTR [ebx+444]
  00177	6a 02		 push	 2
$LN351@DoUseItemS:

; 2993 : 		break;
; 2994 : 	}
; 2995 : 
; 2996 : #ifndef __AZRIA_1023
; 2997 : #ifdef __SYS_TICKET
; 2998 : 	if( pItemProp->dwItemKind3 == IK3_TICKET )
; 2999 : 	{
; 3000 : 		( (CUser*)this )->DoUseItemTicket( pItemElem );
; 3001 : 		nResult		= 0;
; 3002 : 	}
; 3003 : #endif	// __SYS_TICKET
; 3004 : #endif	// __AZRIA_1023
; 3005 : 
; 3006 : #if __VER >= 14 // __BALLOON_CODE_IMPROVEMENT
; 3007 : 	if( pItemProp->dwItemKind3 == IK3_BALLOON )

  00179	8b cf		 mov	 ecx, edi
  0017b	e8 00 00 00 00	 call	 ?SetSMMode@CMover@@QAEHHK@Z ; CMover::SetSMMode
  00180	6a 01		 push	 1
  00182	6a 00		 push	 0
  00184	68 e8 03 00 00	 push	 1000			; 000003e8H
  00189	6a 04		 push	 4
  0018b	ff b7 34 02 00
	00		 push	 DWORD PTR [edi+564]
  00191	b9 00 00 00 00	 mov	 ecx, OFFSET ?g_DPCoreClient@@3VCDPCoreClient@@A ; g_DPCoreClient
  00196	e8 00 00 00 00	 call	 ?SendUserPartySkill@CDPCoreClient@@QAEXKHKHH@Z ; CDPCoreClient::SendUserPartySkill
  0019b	e9 98 0a 00 00	 jmp	 $LN239@DoUseItemS
$LN50@DoUseItemS:
; File C:\IAGOS\server\v18\Source\Source\_Common\Mover.h

; 1457 : 	BOOL			IsSMMode( int nType ) { return ( m_dwSMTime[nType] > 0 ) ? TRUE : FALSE; }

  001a0	83 bf 54 03 00
	00 00		 cmp	 DWORD PTR [edi+852], 0
; File C:\IAGOS\server\v18\Source\Source\_Common\MoverSkill.cpp

; 2264 : 			if( !( IsSMMode( SM_PARTYSKILL1 ) || IsSMMode( SM_PARTYSKILL15 ) || IsSMMode( SM_PARTYSKILL30 ) ) )

  001a7	0f 87 32 02 00
	00		 ja	 $LN36@DoUseItemS
; File C:\IAGOS\server\v18\Source\Source\_Common\Mover.h

; 1457 : 	BOOL			IsSMMode( int nType ) { return ( m_dwSMTime[nType] > 0 ) ? TRUE : FALSE; }

  001ad	83 bf 04 03 00
	00 00		 cmp	 DWORD PTR [edi+772], 0
; File C:\IAGOS\server\v18\Source\Source\_Common\MoverSkill.cpp

; 2264 : 			if( !( IsSMMode( SM_PARTYSKILL1 ) || IsSMMode( SM_PARTYSKILL15 ) || IsSMMode( SM_PARTYSKILL30 ) ) )

  001b4	0f 87 25 02 00
	00		 ja	 $LN36@DoUseItemS
; File C:\IAGOS\server\v18\Source\Source\_Common\Mover.h

; 1457 : 	BOOL			IsSMMode( int nType ) { return ( m_dwSMTime[nType] > 0 ) ? TRUE : FALSE; }

  001ba	83 bf 08 03 00
	00 00		 cmp	 DWORD PTR [edi+776], 0
; File C:\IAGOS\server\v18\Source\Source\_Common\MoverSkill.cpp

; 2264 : 			if( !( IsSMMode( SM_PARTYSKILL1 ) || IsSMMode( SM_PARTYSKILL15 ) || IsSMMode( SM_PARTYSKILL30 ) ) )

  001c1	0f 87 18 02 00
	00		 ja	 $LN36@DoUseItemS

; 2265 : #if __VER >= 12 // __PARSKILL1001	//12Â÷ ĆÄ˝şĹł ľĆŔĚĹŰ ĽöÁ¤  world,core,neuz
; 2266 : 			{
; 2267 : 				SetSMMode( SM_PARTYSKILL30, pItemProp->dwCircleTime );

  001c7	ff b3 bc 01 00
	00		 push	 DWORD PTR [ebx+444]
  001cd	6a 03		 push	 3

; 2268 : 				g_DPCoreClient.SendUserPartySkill( m_idPlayer, PARTY_PARSKILL_MODE, 1000, 0, 1 );
; 2269 : 			}

  001cf	eb a8		 jmp	 SHORT $LN351@DoUseItemS
$LN53@DoUseItemS:

; 2270 : #else	//__PARSKILL1001	//12Â÷ ĆÄ˝şĹł ľĆŔĚĹŰ ĽöÁ¤  world,core,neuz
; 2271 : 				SetSMMode( SM_PARTYSKILL30, pItemProp->dwCircleTime );
; 2272 : #endif //__PARSKILL1001	//12Â÷ ĆÄ˝şĹł ľĆŔĚĹŰ ĽöÁ¤  world,core,neuz
; 2273 : 			else
; 2274 : 				nResult = 2;
; 2275 : 		}
; 2276 : 		break;
; 2277 : 	case II_CHR_SYS_SCR_COMMBANK15:
; 2278 : 		{
; 2279 : 			if( !IsCommBank() )

  001d1	8b cf		 mov	 ecx, edi
  001d3	e8 00 00 00 00	 call	 ?IsCommBank@CMover@@QAEHXZ ; CMover::IsCommBank
  001d8	85 c0		 test	 eax, eax
  001da	0f 85 ff 01 00
	00		 jne	 $LN36@DoUseItemS

; 2280 : 				SetSMMode( SM_BANK15, pItemProp->dwCircleTime );

  001e0	ff b3 bc 01 00
	00		 push	 DWORD PTR [ebx+444]
  001e6	8b cf		 mov	 ecx, edi
  001e8	50		 push	 eax
  001e9	e8 00 00 00 00	 call	 ?SetSMMode@CMover@@QAEHHK@Z ; CMover::SetSMMode
  001ee	e9 45 0a 00 00	 jmp	 $LN239@DoUseItemS
$LN56@DoUseItemS:

; 2281 : 			else
; 2282 : 				nResult = 2;
; 2283 : 		}
; 2284 : 		break;
; 2285 : 	case II_CHR_SYS_SCR_COMMBANK30:
; 2286 : 		{
; 2287 : 			if( !IsCommBank() )

  001f3	8b cf		 mov	 ecx, edi
  001f5	e8 00 00 00 00	 call	 ?IsCommBank@CMover@@QAEHXZ ; CMover::IsCommBank
  001fa	85 c0		 test	 eax, eax
  001fc	0f 85 dd 01 00
	00		 jne	 $LN36@DoUseItemS

; 2288 : 				SetSMMode( SM_BANK30, pItemProp->dwCircleTime );

  00202	ff b3 bc 01 00
	00		 push	 DWORD PTR [ebx+444]
  00208	8b cf		 mov	 ecx, edi
  0020a	6a 01		 push	 1
  0020c	e8 00 00 00 00	 call	 ?SetSMMode@CMover@@QAEHHK@Z ; CMover::SetSMMode
  00211	e9 22 0a 00 00	 jmp	 $LN239@DoUseItemS
$LN62@DoUseItemS:
; File C:\IAGOS\server\v18\Source\Source\_Common\Mover.h

; 1457 : 	BOOL			IsSMMode( int nType ) { return ( m_dwSMTime[nType] > 0 ) ? TRUE : FALSE; }

  00216	83 bf 24 03 00
	00 00		 cmp	 DWORD PTR [edi+804], 0
; File C:\IAGOS\server\v18\Source\Source\_Common\MoverSkill.cpp

; 2303 : 			if( !( IsSMMode( SM_ACTPOINT ) ) )

  0021d	0f 87 bc 01 00
	00		 ja	 $LN36@DoUseItemS

; 2304 : 				SetSMMode( SM_ACTPOINT, pItemProp->dwCircleTime );

  00223	ff b3 bc 01 00
	00		 push	 DWORD PTR [ebx+444]
  00229	8b cf		 mov	 ecx, edi
  0022b	6a 0a		 push	 10			; 0000000aH
  0022d	e8 00 00 00 00	 call	 ?SetSMMode@CMover@@QAEHHK@Z ; CMover::SetSMMode
  00232	e9 01 0a 00 00	 jmp	 $LN239@DoUseItemS
$LN68@DoUseItemS:
; File C:\IAGOS\server\v18\Source\Source\_Common\Mover.h

; 1457 : 	BOOL			IsSMMode( int nType ) { return ( m_dwSMTime[nType] > 0 ) ? TRUE : FALSE; }

  00237	83 bf 58 03 00
	00 00		 cmp	 DWORD PTR [edi+856], 0
; File C:\IAGOS\server\v18\Source\Source\_Common\MoverSkill.cpp

; 2319 : 			if( !( IsSMMode( SM_ATTACK_UP1 ) || IsSMMode( SM_ATTACK_UP ) ) )

  0023e	0f 87 9b 01 00
	00		 ja	 $LN36@DoUseItemS
; File C:\IAGOS\server\v18\Source\Source\_Common\Mover.h

; 1457 : 	BOOL			IsSMMode( int nType ) { return ( m_dwSMTime[nType] > 0 ) ? TRUE : FALSE; }

  00244	83 bf 38 03 00
	00 00		 cmp	 DWORD PTR [edi+824], 0
; File C:\IAGOS\server\v18\Source\Source\_Common\MoverSkill.cpp

; 2319 : 			if( !( IsSMMode( SM_ATTACK_UP1 ) || IsSMMode( SM_ATTACK_UP ) ) )

  0024b	0f 87 8e 01 00
	00		 ja	 $LN36@DoUseItemS

; 2320 : 			{
; 2321 : 				SetSMMode( SM_ATTACK_UP, pItemProp->dwCircleTime );

  00251	ff b3 bc 01 00
	00		 push	 DWORD PTR [ebx+444]
  00257	8b cf		 mov	 ecx, edi
  00259	6a 0f		 push	 15			; 0000000fH
  0025b	e8 00 00 00 00	 call	 ?SetSMMode@CMover@@QAEHHK@Z ; CMover::SetSMMode

; 2322 : 			}

  00260	e9 d3 09 00 00	 jmp	 $LN239@DoUseItemS
$LN71@DoUseItemS:
; File C:\IAGOS\server\v18\Source\Source\_Common\Mover.h

; 1457 : 	BOOL			IsSMMode( int nType ) { return ( m_dwSMTime[nType] > 0 ) ? TRUE : FALSE; }

  00265	83 bf 4c 03 00
	00 00		 cmp	 DWORD PTR [edi+844], 0
; File C:\IAGOS\server\v18\Source\Source\_Common\MoverSkill.cpp

; 2347 : 			if( !( IsSMMode( SM_REVIVAL ) ) )

  0026c	0f 87 6d 01 00
	00		 ja	 $LN36@DoUseItemS

; 2348 : 				SetSMMode( SM_REVIVAL, pItemProp->dwCircleTime );

  00272	ff b3 bc 01 00
	00		 push	 DWORD PTR [ebx+444]
  00278	8b cf		 mov	 ecx, edi
  0027a	6a 14		 push	 20			; 00000014H
  0027c	e8 00 00 00 00	 call	 ?SetSMMode@CMover@@QAEHHK@Z ; CMover::SetSMMode
  00281	e9 b2 09 00 00	 jmp	 $LN239@DoUseItemS
$LN74@DoUseItemS:

; 2349 : 			else
; 2350 : 				nResult = 2;					
; 2351 : 		}
; 2352 : 		break;
; 2353 : 	case II_SYS_SYS_SCR_SELPAR:
; 2354 : 		{
; 2355 : 			CParty* pParty;
; 2356 : 			pParty = g_PartyMng.GetParty( GetPartyId() );

  00286	ff b7 10 07 00
	00		 push	 DWORD PTR [edi+1808]
  0028c	b9 00 00 00 00	 mov	 ecx, OFFSET ?g_PartyMng@@3VCPartyMng@@A ; g_PartyMng
  00291	e8 00 00 00 00	 call	 ?GetParty@CPartyMng@@QAEPAVCParty@@K@Z ; CPartyMng::GetParty

; 2357 : 			if( pParty )

  00296	85 c0		 test	 eax, eax
  00298	74 36		 je	 SHORT $LN75@DoUseItemS

; 2358 : 			{
; 2359 : 				if( pParty->m_nLevel < MAX_PARTYLEVEL )	// ´Ü¸·±Ř´ÜŔĎ¶§¸¸ »çżë°ˇ´É

  0029a	83 b8 d0 01 00
	00 0a		 cmp	 DWORD PTR [eax+464], 10	; 0000000aH
  002a1	7d 15		 jge	 SHORT $LN77@DoUseItemS

; 2360 : 					pParty->SetPartyLevel( ((CUser*)this), 10, 180, 0 );

  002a3	6a 00		 push	 0
  002a5	68 b4 00 00 00	 push	 180			; 000000b4H
  002aa	6a 0a		 push	 10			; 0000000aH
  002ac	57		 push	 edi
  002ad	8b c8		 mov	 ecx, eax
  002af	e8 00 00 00 00	 call	 ?SetPartyLevel@CParty@@QAEXPAVCUser@@KKK@Z ; CParty::SetPartyLevel
  002b4	33 c9		 xor	 ecx, ecx
  002b6	eb 05		 jmp	 SHORT $LN78@DoUseItemS
$LN77@DoUseItemS:

; 2361 : 				else
; 2362 : 					nResult = 1;

  002b8	b9 01 00 00 00	 mov	 ecx, 1
$LN78@DoUseItemS:

; 2367 : 			}
; 2368 : 			if( nResult == 1 )

  002bd	89 8d 20 ff ff
	ff		 mov	 DWORD PTR _nResult$[ebp], ecx
  002c3	8b f1		 mov	 esi, ecx
  002c5	83 f9 01	 cmp	 ecx, 1
  002c8	0f 85 6c 09 00
	00		 jne	 $LN164@DoUseItemS
  002ce	eb 05		 jmp	 SHORT $LN227@DoUseItemS
$LN75@DoUseItemS:

; 2363 : 			}
; 2364 : 			else
; 2365 : 			{
; 2366 : 				nResult = 1;

  002d0	be 01 00 00 00	 mov	 esi, 1
$LN227@DoUseItemS:

; 2369 : 				((CUser*)this)->AddDefinedText( TID_GAME_NTROUPEO10, "" );

  002d5	68 00 00 00 00	 push	 OFFSET ??_C@_00CNPNBAHC@@
  002da	68 3e 0a 00 00	 push	 2622			; 00000a3eH
  002df	57		 push	 edi
  002e0	e8 00 00 00 00	 call	 ?AddDefinedText@CUser@@QAAXHPBDZZ ; CUser::AddDefinedText
  002e5	83 c4 0c	 add	 esp, 12			; 0000000cH

; 2370 : 		}
; 2371 : 		break;

  002e8	e9 4d 09 00 00	 jmp	 $LN164@DoUseItemS
$LN80@DoUseItemS:

; 2372 : 	case II_SYS_SYS_SCR_HOLY:
; 2373 : 		RemoveDebufBuffs();

  002ed	8b cf		 mov	 ecx, edi
  002ef	e8 00 00 00 00	 call	 ?RemoveDebufBuffs@CMover@@QAEXXZ ; CMover::RemoveDebufBuffs

; 2374 : 		break;

  002f4	e9 3f 09 00 00	 jmp	 $LN239@DoUseItemS
$LN81@DoUseItemS:
; File C:\IAGOS\server\v18\Source\Source\_Common\Mover.h

; 1457 : 	BOOL			IsSMMode( int nType ) { return ( m_dwSMTime[nType] > 0 ) ? TRUE : FALSE; }

  002f9	83 bf 50 03 00
	00 00		 cmp	 DWORD PTR [edi+848], 0
; File C:\IAGOS\server\v18\Source\Source\_Common\MoverSkill.cpp

; 2377 : 			if( !( IsSMMode( SM_VELOCIJUMP ) ) )

  00300	0f 87 d9 00 00
	00		 ja	 $LN36@DoUseItemS

; 2378 : 			{
; 2379 : 				if( pItemProp->dwDestParam1 != -1 )

  00306	8b 8b 40 01 00
	00		 mov	 ecx, DWORD PTR [ebx+320]
  0030c	83 f9 ff	 cmp	 ecx, -1
  0030f	74 12		 je	 SHORT $LN84@DoUseItemS

; 2380 : 					SetDestParam( pItemProp->dwDestParam1, pItemProp->nAdjParamVal1, pItemProp->nAdjParamVal1 );

  00311	8b 83 4c 01 00
	00		 mov	 eax, DWORD PTR [ebx+332]
  00317	6a 01		 push	 1
  00319	50		 push	 eax
  0031a	50		 push	 eax
  0031b	51		 push	 ecx
  0031c	8b cf		 mov	 ecx, edi
  0031e	e8 00 00 00 00	 call	 ?SetDestParam@CMover@@QAEXHHHH@Z ; CMover::SetDestParam
$LN84@DoUseItemS:

; 2381 : 				if( pItemProp->dwDestParam2 != -1 )

  00323	8b 8b 44 01 00
	00		 mov	 ecx, DWORD PTR [ebx+324]
  00329	83 f9 ff	 cmp	 ecx, -1
  0032c	74 12		 je	 SHORT $LN85@DoUseItemS

; 2382 : 					SetDestParam( pItemProp->dwDestParam2, pItemProp->nAdjParamVal2, pItemProp->nAdjParamVal2 );

  0032e	8b 83 50 01 00
	00		 mov	 eax, DWORD PTR [ebx+336]
  00334	6a 01		 push	 1
  00336	50		 push	 eax
  00337	50		 push	 eax
  00338	51		 push	 ecx
  00339	8b cf		 mov	 ecx, edi
  0033b	e8 00 00 00 00	 call	 ?SetDestParam@CMover@@QAEXHHHH@Z ; CMover::SetDestParam
$LN85@DoUseItemS:

; 2383 : 				SetSMMode( SM_VELOCIJUMP, pItemProp->dwCircleTime );

  00340	ff b3 bc 01 00
	00		 push	 DWORD PTR [ebx+444]
  00346	8b cf		 mov	 ecx, edi
  00348	6a 15		 push	 21			; 00000015H
  0034a	e8 00 00 00 00	 call	 ?SetSMMode@CMover@@QAEHHK@Z ; CMover::SetSMMode

; 2384 : 			}

  0034f	e9 e4 08 00 00	 jmp	 $LN239@DoUseItemS
$LN86@DoUseItemS:

; 2385 : 			else
; 2386 : 			{
; 2387 : 				nResult = 2;	
; 2388 : 			}
; 2389 : 		}
; 2390 : 		break;
; 2391 : 	case II_SYS_SYS_SCR_RECCURENCE:
; 2392 : 		{
; 2393 : 			if( InitSkillExp() )

  00354	8b cf		 mov	 ecx, edi
  00356	e8 00 00 00 00	 call	 ?InitSkillExp@CMover@@QAEHXZ ; CMover::InitSkillExp
  0035b	85 c0		 test	 eax, eax
  0035d	0f 84 c7 08 00
	00		 je	 $LN87@DoUseItemS

; 2394 : 				((CUser*)this)->AddInitSkill();

  00363	8b cf		 mov	 ecx, edi
  00365	e8 00 00 00 00	 call	 ?AddInitSkill@CUser@@QAEXXZ ; CUser::AddInitSkill
  0036a	e9 c9 08 00 00	 jmp	 $LN239@DoUseItemS
$LN177@DoUseItemS:

; 2068 : 	}
; 2069 : #endif	// __AZRIA_1023
; 2070 : 	switch( pItemProp->dwID )

  0036f	3d bd 67 00 00	 cmp	 eax, 26557		; 000067bdH
  00374	0f 87 35 05 00
	00		 ja	 $LN178@DoUseItemS
  0037a	0f 84 0c 05 00
	00		 je	 $LN41@DoUseItemS
  00380	3d 28 52 00 00	 cmp	 eax, 21032		; 00005228H
  00385	0f 87 fe 01 00
	00		 ja	 $LN179@DoUseItemS
  0038b	0f 84 4f 02 00
	00		 je	 $LN106@DoUseItemS
  00391	3d f8 28 00 00	 cmp	 eax, 10488		; 000028f8H
  00396	0f 87 44 01 00
	00		 ja	 $LN180@DoUseItemS
  0039c	0f 84 35 05 00
	00		 je	 $LN90@DoUseItemS
  003a2	2d e4 28 00 00	 sub	 eax, 10468		; 000028e4H
  003a7	0f 84 2a 05 00
	00		 je	 $LN90@DoUseItemS
  003ad	83 e8 01	 sub	 eax, 1
  003b0	74 13		 je	 SHORT $LN114@DoUseItemS
  003b2	83 e8 08	 sub	 eax, 8
  003b5	0f 84 1c 05 00
	00		 je	 $LN90@DoUseItemS

; 2993 : 		break;
; 2994 : 	}
; 2995 : 
; 2996 : #ifndef __AZRIA_1023
; 2997 : #ifdef __SYS_TICKET
; 2998 : 	if( pItemProp->dwItemKind3 == IK3_TICKET )
; 2999 : 	{
; 3000 : 		( (CUser*)this )->DoUseItemTicket( pItemElem );
; 3001 : 		nResult		= 0;
; 3002 : 	}
; 3003 : #endif	// __SYS_TICKET
; 3004 : #endif	// __AZRIA_1023
; 3005 : 
; 3006 : #if __VER >= 14 // __BALLOON_CODE_IMPROVEMENT
; 3007 : 	if( pItemProp->dwItemKind3 == IK3_BALLOON )

  003bb	be 01 00 00 00	 mov	 esi, 1
  003c0	e9 75 08 00 00	 jmp	 $LN164@DoUseItemS
$LN114@DoUseItemS:

; 2789 : 				HasBuff( BUFF_ITEM, II_SYS_SYS_SCR_GET02 ) )
; 2790 : 				nResult = 2;
; 2791 : 			else
; 2792 : 				DoApplySkill( (CCtrl*)this, pItemProp, NULL );
; 2793 : 		}
; 2794 : 		break;
; 2795 : #endif // __II_SYS_SYS_SCR_GET
; 2796 : 	case II_SYS_SYS_SCR_RETURN:		// "±ÍČŻŔÇ µÎ·ç¸¶¸®"		
; 2797 : 		{
; 2798 : 			if( IsPlayer() )

  003c5	85 c9		 test	 ecx, ecx
  003c7	0f 84 6b 08 00
	00		 je	 $LN239@DoUseItemS

; 2799 : 			{
; 2800 : 				if( HasBuff( BUFF_ITEM, II_SYS_SYS_SCR_RETURN ) )

  003cd	68 e5 28 00 00	 push	 10469			; 000028e5H
  003d2	6a 00		 push	 0
  003d4	8b cf		 mov	 ecx, edi
  003d6	e8 00 00 00 00	 call	 ?HasBuff@CMover@@QAEHGG@Z ; CMover::HasBuff
  003db	85 c0		 test	 eax, eax
  003dd	74 0a		 je	 SHORT $LN116@DoUseItemS
$LN36@DoUseItemS:

; 2993 : 		break;
; 2994 : 	}
; 2995 : 
; 2996 : #ifndef __AZRIA_1023
; 2997 : #ifdef __SYS_TICKET
; 2998 : 	if( pItemProp->dwItemKind3 == IK3_TICKET )
; 2999 : 	{
; 3000 : 		( (CUser*)this )->DoUseItemTicket( pItemElem );
; 3001 : 		nResult		= 0;
; 3002 : 	}
; 3003 : #endif	// __SYS_TICKET
; 3004 : #endif	// __AZRIA_1023
; 3005 : 
; 3006 : #if __VER >= 14 // __BALLOON_CODE_IMPROVEMENT
; 3007 : 	if( pItemProp->dwItemKind3 == IK3_BALLOON )

  003df	be 02 00 00 00	 mov	 esi, 2
  003e4	e9 51 08 00 00	 jmp	 $LN164@DoUseItemS
$LN116@DoUseItemS:

; 2801 : 					nResult = 2;
; 2802 : 				else
; 2803 : 				{
; 2804 : 					CWorld* pWorld	= GetWorld();

  003e9	8b 8f 6c 01 00
	00		 mov	 ecx, DWORD PTR [edi+364]

; 2805 : 					if( !pWorld )

  003ef	85 c9		 test	 ecx, ecx
  003f1	0f 84 d4 00 00
	00		 je	 $LN356@DoUseItemS
; File C:\IAGOS\server\v18\Source\Source\_Common\Obj.h

; 215  : 	D3DXVECTOR3		GetPos()	{ return m_vPos; }

  003f7	f3 0f 7e 87 60
	01 00 00	 movq	 xmm0, QWORD PTR [edi+352]
  003ff	8b 87 68 01 00
	00		 mov	 eax, DWORD PTR [edi+360]
  00405	66 0f d6 45 f0	 movq	 QWORD PTR _vPos$2[ebp], xmm0
  0040a	89 45 f8	 mov	 DWORD PTR _vPos$2[ebp+8], eax
; File C:\IAGOS\server\v18\Source\Source\_Common\MoverSkill.cpp

; 2810 : 					if( pWorld->GetID() == WI_WORLD_GUILDWAR || pWorld->GetID() == WI_WORLD_KEBARAS || prj.IsGuildQuestRegion( vPos ) )

  0040d	8b 01		 mov	 eax, DWORD PTR [ecx]
  0040f	3d ca 00 00 00	 cmp	 eax, 202		; 000000caH
  00414	0f 84 a5 00 00
	00		 je	 $LN120@DoUseItemS
  0041a	83 f8 02	 cmp	 eax, 2
  0041d	0f 84 9c 00 00
	00		 je	 $LN120@DoUseItemS
  00423	8d 45 f0	 lea	 eax, DWORD PTR _vPos$2[ebp]
  00426	b9 00 00 00 00	 mov	 ecx, OFFSET ?prj@@3VCProject@@A ; prj
  0042b	50		 push	 eax
  0042c	e8 00 00 00 00	 call	 ?IsGuildQuestRegion@CProject@@QAEHABUD3DXVECTOR3@@@Z ; CProject::IsGuildQuestRegion
  00431	85 c0		 test	 eax, eax
  00433	0f 85 86 00 00
	00		 jne	 $LN120@DoUseItemS

; 2813 : 						return 0;
; 2814 : 					}
; 2815 : 
; 2816 : #if __VER >= 11 // __GUILD_COMBAT_1TO1
; 2817 : 					if( g_GuildCombat1to1Mng.IsPossibleUser( (CUser*)this ) )

  00439	57		 push	 edi
  0043a	b9 00 00 00 00	 mov	 ecx, OFFSET ?g_GuildCombat1to1Mng@@3VCGuildCombat1to1Mng@@A ; g_GuildCombat1to1Mng
  0043f	e8 00 00 00 00	 call	 ?IsPossibleUser@CGuildCombat1to1Mng@@QAEHPAVCUser@@@Z ; CGuildCombat1to1Mng::IsPossibleUser
  00444	85 c0		 test	 eax, eax
  00446	75 77		 jne	 SHORT $LN120@DoUseItemS

; 2818 : 					{
; 2819 : 						((CUser*) this)->AddDefinedText( TID_GAME_LIMITZONE_USE );
; 2820 : 						return 0;
; 2821 : 					}
; 2822 : #endif // __GUILD_COMBAT_1TO1
; 2823 : 
; 2824 : 					((CUser*) this)->SetReturnPos( vPos );

  00448	8d 45 f0	 lea	 eax, DWORD PTR _vPos$2[ebp]
  0044b	8b cf		 mov	 ecx, edi
  0044d	50		 push	 eax
  0044e	e8 00 00 00 00	 call	 ?SetReturnPos@CUser@@QAEXABUD3DXVECTOR3@@@Z ; CUser::SetReturnPos

; 2825 : 
; 2826 : 					//1.±ÍČŻ¸đµĺ·Î ĽłÁ¤ 
; 2827 : 					DoApplySkill( (CCtrl*)this, pItemProp, NULL );

  00453	6a 00		 push	 0
  00455	6a 00		 push	 0
  00457	6a 00		 push	 0
  00459	6a 00		 push	 0
  0045b	6a 00		 push	 0
  0045d	53		 push	 ebx
  0045e	57		 push	 edi
  0045f	8b cf		 mov	 ecx, edi
  00461	e8 00 00 00 00	 call	 ?DoApplySkill@CCtrl@@QAEHPAV1@PAUItemProp@@PAUAddSkillProp@@_NHHH@Z ; CCtrl::DoApplySkill

; 2828 : 					//2. Ľ±ĹĂµČ ¸¶Ŕ»·Î ŔĚµż 
; 2829 : 					LPCTSTR lpszKey = ((CUser*)this)->m_lpszVillage;

  00466	8b 87 c8 8e 00
	00		 mov	 eax, DWORD PTR [edi+36552]

; 2830 : 					if( lpszKey )

  0046c	85 c0		 test	 eax, eax
  0046e	74 3d		 je	 SHORT $LN122@DoUseItemS

; 2831 : 					{
; 2832 : 						PRegionElem pRgnElem = g_WorldMng.GetRevivalPos( GetWorld()->GetID(), lpszKey );

  00470	50		 push	 eax
  00471	8b 87 6c 01 00
	00		 mov	 eax, DWORD PTR [edi+364]
  00477	b9 00 00 00 00	 mov	 ecx, OFFSET ?g_WorldMng@@3VCWorldMng@@A ; g_WorldMng
  0047c	ff 30		 push	 DWORD PTR [eax]
  0047e	e8 00 00 00 00	 call	 ?GetRevivalPos@CWorldMng@@QAEPAUREGIONELEM@@KPBD@Z ; CWorldMng::GetRevivalPos
  00483	8b c8		 mov	 ecx, eax

; 2833 : 						if( pRgnElem )

  00485	85 c9		 test	 ecx, ecx
  00487	0f 84 ab 07 00
	00		 je	 $LN239@DoUseItemS

; 2834 : 							REPLACE( g_uIdofMulti, pRgnElem->m_dwWorldId, pRgnElem->m_vPos, REPLACE_NORMAL, nRevivalLayer );

  0048d	6a 00		 push	 0
  0048f	6a 00		 push	 0
  00491	8d 41 10	 lea	 eax, DWORD PTR [ecx+16]
  00494	50		 push	 eax
  00495	ff b1 c0 02 00
	00		 push	 DWORD PTR [ecx+704]
  0049b	8b cf		 mov	 ecx, edi
  0049d	ff 35 00 00 00
	00		 push	 DWORD PTR ?g_uIdofMulti@@3KA ; g_uIdofMulti
  004a3	e8 00 00 00 00	 call	 ?Replace@CMover@@QAEHKKAAUD3DXVECTOR3@@W4REPLACE_TYPE@@H@Z ; CMover::Replace

; 2835 : 					}

  004a8	e9 8b 07 00 00	 jmp	 $LN239@DoUseItemS
$LN122@DoUseItemS:

; 2836 : 					else
; 2837 : 					{
; 2838 : 						Error( "II_SYS_SYS_SCR_RETURN selected village is NULL\n" );

  004ad	68 00 00 00 00	 push	 OFFSET ??_C@_0DA@GIPACFEO@II_SYS_SYS_SCR_RETURN?5selected?5@
  004b2	e8 00 00 00 00	 call	 ?Error@@YAPBDPBDZZ	; Error
  004b7	83 c4 04	 add	 esp, 4
  004ba	e9 79 07 00 00	 jmp	 $LN239@DoUseItemS
$LN120@DoUseItemS:

; 2811 : 					{			
; 2812 : 						((CUser*) this)->AddDefinedText( TID_GAME_LIMITZONE_USE );

  004bf	68 68 0a 00 00	 push	 2664			; 00000a68H
  004c4	8b cf		 mov	 ecx, edi
  004c6	e8 00 00 00 00	 call	 ?AddDefinedText@CUser@@QAEXH@Z ; CUser::AddDefinedText
$LN356@DoUseItemS:

; 3015 : 		}
; 3016 : 	}
; 3017 : #endif // __BALLOON_CODE_IMPROVEMENT
; 3018 : 
; 3019 : #endif // __WORLDSERVER
; 3020 : 
; 3021 : 	return nResult;
; 3022 : }

  004cb	5f		 pop	 edi
  004cc	5e		 pop	 esi
  004cd	33 c0		 xor	 eax, eax
  004cf	5b		 pop	 ebx
  004d0	8b 4d fc	 mov	 ecx, DWORD PTR __$ArrayPad$[ebp]
  004d3	33 cd		 xor	 ecx, ebp
  004d5	e8 00 00 00 00	 call	 @__security_check_cookie@4
  004da	8b e5		 mov	 esp, ebp
  004dc	5d		 pop	 ebp
  004dd	c2 0c 00	 ret	 12			; 0000000cH
$LN180@DoUseItemS:

; 2068 : 	}
; 2069 : #endif	// __AZRIA_1023
; 2070 : 	switch( pItemProp->dwID )

  004e0	3d f9 28 00 00	 cmp	 eax, 10489		; 000028f9H
  004e5	0f 84 ec 03 00
	00		 je	 $LN90@DoUseItemS
  004eb	3d 74 3b 00 00	 cmp	 eax, 15220		; 00003b74H
  004f0	0f 85 34 07 00
	00		 jne	 $LN87@DoUseItemS

; 2839 : 					}
; 2840 : 				}
; 2841 : 			}
; 2842 : 		}
; 2843 : 		break;
; 2844 : 	case II_SYS_SYS_SCR_CUSTODY2:
; 2845 : 		{
; 2846 : 			CMover* pMover	= (CMover*)CreateObj( D3DDEVICE, OT_MOVER, MI_INFO_PENG );

  004f6	6a 01		 push	 1
  004f8	68 c8 00 00 00	 push	 200			; 000000c8H
  004fd	6a 05		 push	 5
  004ff	6a 00		 push	 0
  00501	e8 00 00 00 00	 call	 ?CreateObj@@YAPAVCObj@@PAUIDirect3DDevice9@@KKH@Z ; CreateObj
  00506	83 c4 10	 add	 esp, 16			; 00000010H
  00509	8b f0		 mov	 esi, eax

; 2847 : 			lstrcpy( pMover->m_szCharacterKey, "MaFl_InstantBank" );

  0050b	68 00 00 00 00	 push	 OFFSET ??_C@_0BB@KDNJAMCD@MaFl_InstantBank@
  00510	8d 86 44 06 00
	00		 lea	 eax, DWORD PTR [esi+1604]
  00516	50		 push	 eax
  00517	ff 15 00 00 00
	00		 call	 DWORD PTR __imp__lstrcpyA@8

; 2848 : 			pMover->InitNPCProperty();

  0051d	8b ce		 mov	 ecx, esi
  0051f	e8 00 00 00 00	 call	 ?InitNPCProperty@CMover@@QAEXXZ ; CMover::InitNPCProperty

; 2849 : 			pMover->InitCharacter( pMover->GetCharacter() );

  00524	8b ce		 mov	 ecx, esi
  00526	e8 00 00 00 00	 call	 ?GetCharacter@CMover@@QAEPAUtagCHARACTER@@XZ ; CMover::GetCharacter
  0052b	50		 push	 eax
  0052c	8b ce		 mov	 ecx, esi
  0052e	e8 00 00 00 00	 call	 ?InitCharacter@CMover@@QAEXPAUtagCHARACTER@@@Z ; CMover::InitCharacter
; File C:\IAGOS\server\v18\Source\Source\_Common\Obj.h

; 215  : 	D3DXVECTOR3		GetPos()	{ return m_vPos; }

  00533	8b 87 68 01 00
	00		 mov	 eax, DWORD PTR [edi+360]
; File C:\IAGOS\server\v18\Source\Source\_Common\MoverSkill.cpp

; 2850 : 			pMover->SetPos( GetPos() );

  00539	8b ce		 mov	 ecx, esi
; File C:\IAGOS\server\v18\Source\Source\_Common\Obj.h

; 215  : 	D3DXVECTOR3		GetPos()	{ return m_vPos; }

  0053b	f3 0f 7e 87 60
	01 00 00	 movq	 xmm0, QWORD PTR [edi+352]
  00543	89 45 f8	 mov	 DWORD PTR $T3[ebp+8], eax
; File C:\IAGOS\server\v18\Source\Source\_Common\MoverSkill.cpp

; 2850 : 			pMover->SetPos( GetPos() );

  00546	8d 45 f0	 lea	 eax, DWORD PTR $T3[ebp]
  00549	50		 push	 eax
; File C:\IAGOS\server\v18\Source\Source\_Common\Obj.h

; 215  : 	D3DXVECTOR3		GetPos()	{ return m_vPos; }

  0054a	66 0f d6 45 f0	 movq	 QWORD PTR $T3[ebp], xmm0
; File C:\IAGOS\server\v18\Source\Source\_Common\MoverSkill.cpp

; 2850 : 			pMover->SetPos( GetPos() );

  0054f	e8 00 00 00 00	 call	 ?SetPos@CObj@@QAEXABUD3DXVECTOR3@@@Z ; CObj::SetPos

; 2851 : 			pMover->InitMotion( MTI_STAND );

  00554	8b 06		 mov	 eax, DWORD PTR [esi]
  00556	8b ce		 mov	 ecx, esi
  00558	6a 00		 push	 0
  0055a	ff 50 08	 call	 DWORD PTR [eax+8]

; 2852 : 			pMover->UpdateLocalMatrix();

  0055d	8b ce		 mov	 ecx, esi
  0055f	e8 00 00 00 00	 call	 ?UpdateLocalMatrix@CObj@@QAEXXZ ; CObj::UpdateLocalMatrix

; 2853 : 			pMover->m_dwTickCreated		= GetTickCount();

  00564	ff 15 00 00 00
	00		 call	 DWORD PTR __imp__GetTickCount@0
  0056a	89 86 ec 0d 00
	00		 mov	 DWORD PTR [esi+3564], eax

; 2854 : 			GetWorld()->ADDOBJ( pMover, TRUE, GetLayer() );

  00570	ff b7 b8 01 00
	00		 push	 DWORD PTR [edi+440]
  00576	8b 8f 6c 01 00
	00		 mov	 ecx, DWORD PTR [edi+364]
  0057c	6a 01		 push	 1
  0057e	56		 push	 esi
  0057f	e8 00 00 00 00	 call	 ?AddObj@CWorld@@QAEHPAVCObj@@HH@Z ; CWorld::AddObj

; 2855 : 			break;

  00584	e9 af 06 00 00	 jmp	 $LN239@DoUseItemS
$LN179@DoUseItemS:

; 2068 : 	}
; 2069 : #endif	// __AZRIA_1023
; 2070 : 	switch( pItemProp->dwID )

  00589	3d 58 66 00 00	 cmp	 eax, 26200		; 00006658H
  0058e	77 6e		 ja	 SHORT $LN181@DoUseItemS
  00590	0f 84 41 03 00
	00		 je	 $LN90@DoUseItemS
  00596	2d 29 52 00 00	 sub	 eax, 21033		; 00005229H
  0059b	83 f8 03	 cmp	 eax, 3
  0059e	0f 87 86 06 00
	00		 ja	 $LN87@DoUseItemS
  005a4	ff 24 85 00 00
	00 00		 jmp	 DWORD PTR $LN231@DoUseItemS[eax*4]
$LN30@DoUseItemS:

; 2176 : 		}
; 2177 : 	case II_SYS_SYS_SCR_PET_HATCH:
; 2178 : 		{
; 2179 : 			CPet* pPet	= GetPet();

  005ab	8b cf		 mov	 ecx, edi
  005ad	e8 00 00 00 00	 call	 ?GetPet@CMover@@QAEPAVCPet@@XZ ; CMover::GetPet

; 2180 : 			if( pPet == NULL )

  005b2	85 c0		 test	 eax, eax
  005b4	0f 84 4c 03 00
	00		 je	 $LN352@DoUseItemS

; 2181 : 			{
; 2182 : 				( (CUser*)this )->AddDefinedText( TID_GAME_PET_NOT_FOUND );
; 2183 : 				nResult	= 1;
; 2184 : 				break;
; 2185 : 			}
; 2186 : 			if( pPet->GetLevel() != PL_EGG )

  005ba	80 78 05 00	 cmp	 BYTE PTR [eax+5], 0
  005be	8b cf		 mov	 ecx, edi
  005c0	74 14		 je	 SHORT $LN32@DoUseItemS

; 2187 : 			{
; 2188 : 				( (CUser*)this )->AddDefinedText( TID_GAME_PET_4EGG );

  005c2	68 91 0c 00 00	 push	 3217			; 00000c91H

; 2993 : 		break;
; 2994 : 	}
; 2995 : 
; 2996 : #ifndef __AZRIA_1023
; 2997 : #ifdef __SYS_TICKET
; 2998 : 	if( pItemProp->dwItemKind3 == IK3_TICKET )
; 2999 : 	{
; 3000 : 		( (CUser*)this )->DoUseItemTicket( pItemElem );
; 3001 : 		nResult		= 0;
; 3002 : 	}
; 3003 : #endif	// __SYS_TICKET
; 3004 : #endif	// __AZRIA_1023
; 3005 : 
; 3006 : #if __VER >= 14 // __BALLOON_CODE_IMPROVEMENT
; 3007 : 	if( pItemProp->dwItemKind3 == IK3_BALLOON )

  005c7	e8 00 00 00 00	 call	 ?AddDefinedText@CUser@@QAEXH@Z ; CUser::AddDefinedText
  005cc	be 01 00 00 00	 mov	 esi, 1
  005d1	e9 64 06 00 00	 jmp	 $LN164@DoUseItemS
$LN32@DoUseItemS:

; 2189 : 				nResult	= 1;
; 2190 : 				break;
; 2191 : 			}
; 2192 : 			PetLevelup();

  005d6	e8 00 00 00 00	 call	 ?PetLevelup@CMover@@QAEXXZ ; CMover::PetLevelup

; 2193 : 			break;

  005db	e9 58 06 00 00	 jmp	 $LN239@DoUseItemS
$LN106@DoUseItemS:

; 2395 : 			else
; 2396 : 				nResult = 1;
; 2397 : 		}
; 2398 : 		break;
; 2399 : #ifndef __NEW_STACKABLE_AMPS
; 2400 : 	case II_SYS_SYS_SCR_AMPES:	// "ESÁőĆřŔÇ µÎ·ç¸¶¸®"		
; 2401 : 		{
; 2402 : 			// ES, EMŔş µżŔĎľČ ľĆŔĚĹŰ.. I´Â °°ŔĚ »çżëÇŇĽö ľ÷˝Ŕ´Ď´Ů.
; 2403 : 			if( HasBuff( BUFF_ITEM, II_SYS_SYS_SCR_AMPES ) || HasBuff( BUFF_ITEM, II_SYS_SYS_SCR_AMPEM ) ||
; 2404 : 				HasBuff( BUFF_ITEM, II_SYS_SYS_SCR_AMPESA ) || HasBuff( BUFF_ITEM, II_SYS_SYS_SCR_AMPESA1) || HasBuff( BUFF_ITEM, II_SYS_SYS_SCR_AMPESA2) ||
; 2405 : 				HasBuff( BUFF_ITEM, II_SYS_SYS_SCR_AMPESB ) || HasBuff( BUFF_ITEM, II_SYS_SYS_SCR_AMPESB1) || HasBuff( BUFF_ITEM, II_SYS_SYS_SCR_AMPESB2) ||
; 2406 : 				HasBuff( BUFF_ITEM, II_SYS_SYS_SCR_AMPESC ) || HasBuff( BUFF_ITEM, II_SYS_SYS_SCR_AMPESC1) || HasBuff( BUFF_ITEM, II_SYS_SYS_SCR_AMPESC2) || 
; 2407 : 				HasBuff( BUFF_ITEM, II_SYS_SYS_SCR_AMPESD ) || HasBuff( BUFF_ITEM, II_SYS_SYS_SCR_AMPESD1) || HasBuff( BUFF_ITEM, II_SYS_SYS_SCR_AMPESD2) ||
; 2408 : #ifdef __S_ADD_EXP
; 2409 : 				HasBuff( BUFF_ITEM, II_SYS_SYS_SCR_AMPESS ) || HasBuff( BUFF_ITEM, II_SYS_SYS_SCR_AMPESS1) || HasBuff( BUFF_ITEM, II_SYS_SYS_SCR_AMPESS2) ||
; 2410 : #endif // __S_ADD_EXP
; 2411 : 				HasBuff( BUFF_ITEM, II_SYS_SYS_SCR_AMPESE )
; 2412 : 				)
; 2413 : 				nResult = 2;
; 2414 : 			else if( HasBuff( BUFF_ITEM, II_SYS_SYS_SCR_AMPI ) )
; 2415 : 				nResult = 3;
; 2416 : 			else
; 2417 : 				DoApplySkill( (CCtrl*)this, pItemProp, NULL );
; 2418 : 		}
; 2419 : 		break;
; 2420 : 	case II_SYS_SYS_SCR_AMPESA:
; 2421 : 	case II_SYS_SYS_SCR_AMPESB:
; 2422 : 	case II_SYS_SYS_SCR_AMPESC:
; 2423 : 	case II_SYS_SYS_SCR_AMPESD:
; 2424 : 	case II_SYS_SYS_SCR_AMPESE:
; 2425 : #ifdef __S_ADD_EXP
; 2426 : 	case II_SYS_SYS_SCR_AMPESS:
; 2427 : #endif // __S_ADD_EXP
; 2428 : 		{
; 2429 : 			if( HasBuff( BUFF_ITEM, II_SYS_SYS_SCR_AMPES ) || HasBuff( BUFF_ITEM, II_SYS_SYS_SCR_AMPEM ) )
; 2430 : 				nResult = 2;
; 2431 : 			else if( HasBuff( BUFF_ITEM, II_SYS_SYS_SCR_AMPI ) )
; 2432 : 				nResult = 3;
; 2433 : 
; 2434 : 			// ·ąş§ °Ë»ç
; 2435 : 			int nLevel = GetLevel();
; 2436 : 
; 2437 : 			CString str;
; 2438 : 			if( pItemProp->dwID == II_SYS_SYS_SCR_AMPESA )
; 2439 : 			{
; 2440 : 				if( 20 < nLevel )
; 2441 : 				{
; 2442 : 					str.Format( "%d - %d", 1, 20 );
; 2443 : 					((CUser*)this)->AddDefinedText( TID_GAME_EXP_NOTUSELEVEL, "\"%s\"", str ); // 
; 2444 : 					nResult = 99;
; 2445 : 				}
; 2446 : 			}
; 2447 : 			else if( pItemProp->dwID == II_SYS_SYS_SCR_AMPESB )
; 2448 : 			{
; 2449 : 				if( nLevel < 21 || 40 < nLevel )
; 2450 : 				{
; 2451 : 					str.Format( "%d - %d", 21, 40 );
; 2452 : 					((CUser*)this)->AddDefinedText( TID_GAME_EXP_NOTUSELEVEL, "\"%s\"", str ); // 
; 2453 : 					nResult = 99;
; 2454 : 				}
; 2455 : 			}
; 2456 : 			else if( pItemProp->dwID == II_SYS_SYS_SCR_AMPESC )
; 2457 : 			{
; 2458 : 				if( nLevel < 41 || 60 < nLevel )
; 2459 : 				{
; 2460 : 					str.Format( "%d - %d", 41, 60 );
; 2461 : 					((CUser*)this)->AddDefinedText( TID_GAME_EXP_NOTUSELEVEL, "\"%s\"", str ); // 
; 2462 : 					nResult = 99;
; 2463 : 				}
; 2464 : 			}
; 2465 : 			else if( pItemProp->dwID == II_SYS_SYS_SCR_AMPESD )
; 2466 : 			{
; 2467 : 				if( nLevel < 61 || 80 < nLevel )
; 2468 : 				{
; 2469 : 					str.Format( "%d - %d", 61, 80 );
; 2470 : 					((CUser*)this)->AddDefinedText( TID_GAME_EXP_NOTUSELEVEL, "\"%s\"", str ); // 
; 2471 : 					nResult = 99;
; 2472 : 				}
; 2473 : 			}
; 2474 : 			else if( pItemProp->dwID == II_SYS_SYS_SCR_AMPESE )
; 2475 : 			{
; 2476 : 				if( nLevel < 81 || 120 < nLevel )
; 2477 : 				{
; 2478 : 					str.Format( "%d - %d", 81, 120 );
; 2479 : 					((CUser*)this)->AddDefinedText( TID_GAME_EXP_NOTUSELEVEL, "\"%s\"", str ); // 
; 2480 : 					nResult = 99;
; 2481 : 				}
; 2482 : 			}
; 2483 : 
; 2484 : 			if( !(nResult == 2 || nResult == 3 || nResult == 99 ) )
; 2485 : 			{
; 2486 : 				BOOL bBuf[3];
; 2487 : 				int nBufCount = 0;
; 2488 : 				BOOL bSpecial = FALSE;
; 2489 : 				int nSpecialCount = 0;
; 2490 : 
; 2491 : 				ZeroMemory( bBuf, sizeof( bBuf ) );
; 2492 : 				if( HasBuff( BUFF_ITEM, II_SYS_SYS_SCR_AMPESA ) )
; 2493 : 				{
; 2494 : 					bBuf[0] = TRUE;		++nBufCount;
; 2495 : 				}
; 2496 : 				if( HasBuff( BUFF_ITEM, II_SYS_SYS_SCR_AMPESA1 ) )
; 2497 : 				{
; 2498 : 					bBuf[1] = TRUE;		++nBufCount;
; 2499 : 				}
; 2500 : 				if( HasBuff( BUFF_ITEM, II_SYS_SYS_SCR_AMPESA2 ) )
; 2501 : 				{
; 2502 : 					bBuf[2] = TRUE;		++nBufCount;
; 2503 : 				}
; 2504 : 
; 2505 : 				if( HasBuff( BUFF_ITEM, II_SYS_SYS_SCR_AMPESB ) )
; 2506 : 				{
; 2507 : 					bBuf[0] = TRUE;		++nBufCount;
; 2508 : 				}
; 2509 : 				if( HasBuff( BUFF_ITEM, II_SYS_SYS_SCR_AMPESB1 ) )
; 2510 : 				{
; 2511 : 					bBuf[1] = TRUE;		++nBufCount;
; 2512 : 				}
; 2513 : 				if( HasBuff( BUFF_ITEM, II_SYS_SYS_SCR_AMPESB2 ) )
; 2514 : 				{
; 2515 : 					bBuf[2] = TRUE;		++nBufCount;
; 2516 : 				}
; 2517 : 
; 2518 : 				if( HasBuff( BUFF_ITEM, II_SYS_SYS_SCR_AMPESC ) )
; 2519 : 				{
; 2520 : 					bBuf[0] = TRUE;		++nBufCount;
; 2521 : 				}
; 2522 : 				if( HasBuff( BUFF_ITEM, II_SYS_SYS_SCR_AMPESC1 ) )
; 2523 : 				{
; 2524 : 					bBuf[1] = TRUE;		++nBufCount;
; 2525 : 				}
; 2526 : 				if( HasBuff( BUFF_ITEM, II_SYS_SYS_SCR_AMPESC2 ) )
; 2527 : 				{
; 2528 : 					bBuf[2] = TRUE;		++nBufCount;
; 2529 : 				}
; 2530 : 				if( HasBuff( BUFF_ITEM, II_SYS_SYS_SCR_AMPESD ) )
; 2531 : 				{
; 2532 : 					bBuf[0] = TRUE;		++nBufCount;
; 2533 : 				}
; 2534 : 				if( HasBuff( BUFF_ITEM, II_SYS_SYS_SCR_AMPESD1 ) )
; 2535 : 				{
; 2536 : 					bBuf[1] = TRUE;		++nBufCount;
; 2537 : 				}
; 2538 : 				if( HasBuff( BUFF_ITEM, II_SYS_SYS_SCR_AMPESD2 ) )
; 2539 : 				{
; 2540 : 					bBuf[2] = TRUE;		++nBufCount;
; 2541 : 				}
; 2542 : 				if( HasBuff( BUFF_ITEM, II_SYS_SYS_SCR_AMPESE ) )
; 2543 : 				{
; 2544 : 					bBuf[0] = TRUE;		++nBufCount;
; 2545 : 				}
; 2546 : #ifdef __S_ADD_EXP
; 2547 : 				if( HasBuff( BUFF_ITEM, II_SYS_SYS_SCR_AMPESS ) )
; 2548 : 				{
; 2549 : 					bBuf[0] = TRUE;		++nBufCount;	nSpecialCount++;//bSpecial = TRUE;
; 2550 : 				}
; 2551 : 				if( HasBuff( BUFF_ITEM, II_SYS_SYS_SCR_AMPESS1 ) )
; 2552 : 				{
; 2553 : 					bBuf[1] = TRUE;		++nBufCount;	nSpecialCount++;//bSpecial = TRUE;
; 2554 : 				}
; 2555 : 				if( HasBuff( BUFF_ITEM, II_SYS_SYS_SCR_AMPESS2 ) )
; 2556 : 				{
; 2557 : 					bBuf[2] = TRUE;		++nBufCount;	nSpecialCount++;//bSpecial = TRUE;
; 2558 : 				}
; 2559 : #endif // __S_ADD_EXP
; 2560 : 
; 2561 : 				int nMaxBuf = 3;
; 2562 : 				//if( bSpecial == FALSE )
; 2563 : 				{				
; 2564 : 					if( nLevel < 41 )
; 2565 : 						nMaxBuf = 3;				
; 2566 : 					else if( nLevel < 61 && nSpecialCount < 2 )
; 2567 : 						nMaxBuf = 2;
; 2568 : 					else if( nLevel <= 120 && nSpecialCount < 1 )
; 2569 : 						nMaxBuf = 1;
; 2570 : 					else
; 2571 : 						nMaxBuf = 3;
; 2572 : 				}
; 2573 : 
; 2574 : #ifdef __S_ADD_EXP
; 2575 : 				//if( bSpecial && pItemProp->dwID != II_SYS_SYS_SCR_AMPESS )
; 2576 : 				if( nSpecialCount && pItemProp->dwID != II_SYS_SYS_SCR_AMPESS )
; 2577 : 				{
; 2578 : 					nResult = 2;					
; 2579 : 				}
; 2580 : 				else
; 2581 : #endif // __S_ADD_EXP
; 2582 : 				if( nBufCount < nMaxBuf )
; 2583 : 				{
; 2584 : 					for( int i = 0 ; i < nMaxBuf ; ++i )
; 2585 : 					{
; 2586 : 						if( bBuf[i] == FALSE )
; 2587 : 						{
; 2588 : 							if( i == 0 )
; 2589 : 								pItemProp = prj.GetItemProp( pItemProp->dwID );
; 2590 : 							else if( i == 1 )
; 2591 : 								pItemProp = prj.GetItemProp( pItemProp->dwID + 1 );
; 2592 : 							else 
; 2593 : 								pItemProp = prj.GetItemProp( pItemProp->dwID + 2 );	
; 2594 : 							break;
; 2595 : 						}							
; 2596 : 					}
; 2597 : 
; 2598 : 					DoApplySkill( (CCtrl*)this, pItemProp, NULL );
; 2599 : 					float fFactor = 1;
; 2600 : 					switch( nBufCount + 1)
; 2601 : 					{
; 2602 : 					case 1:
; 2603 : 						{
; 2604 : 							fFactor *= 1.5f;
; 2605 : 						}
; 2606 : 						break;
; 2607 : 					case 2:
; 2608 : 						{
; 2609 : 							//if( bSpecial || nLevel < 61 )
; 2610 : 							if( nSpecialCount || nLevel < 61 )
; 2611 : 								fFactor *= 2.0f;
; 2612 : 							else
; 2613 : 								fFactor *= 1.5f;
; 2614 : 						}
; 2615 : 						break;
; 2616 : 					case 3:
; 2617 : 						{
; 2618 : 							//if( bSpecial || nLevel < 41 )
; 2619 : 							if( nSpecialCount || nLevel < 41 )
; 2620 : 								fFactor *= 2.5f;
; 2621 : 							else if( nLevel < 61 )
; 2622 : 								fFactor *= 2.0f;
; 2623 : 							else
; 2624 : 								fFactor *= 1.5f;
; 2625 : 						}
; 2626 : 						break;
; 2627 : 					}
; 2628 : 					CString strTemp;
; 2629 : #if __VER >= 11 // __EXPITEM_TOOLTIP_CHANGE
; 2630 : 					int nPercent = (int)( (fFactor - 1.0f) * 100.0f );
; 2631 : 					strTemp.Format( "%s %d%% %s", prj.GetText( TID_GAME_EXPITEM_TOOLTIP ), nPercent, prj.GetText( TID_GAME_EXPITEM_TOOLTIP1 ) );
; 2632 : #else //__EXPITEM_TOOLTIP_CHANGE
; 2633 : 					strTemp.Format( "%s%.1f%s", prj.GetText( TID_GAME_EXPTOOLTIP ), fFactor, prj.GetText( TID_GAME_EXPTOOLTIP1 ) );
; 2634 : #endif //__EXPITEM_TOOLTIP_CHANGE
; 2635 : 					((CUser*)this)->AddText( strTemp ); // 
; 2636 : 				}
; 2637 : 				else
; 2638 : 				{
; 2639 : #ifdef __S_ADD_EXP
; 2640 : 					//if( bSpecial )
; 2641 : 					//{
; 2642 : 					//	((CUser*)this)->AddDefinedText( TID_GAME_EXP_3 ); //
; 2643 : 					//}
; 2644 : //					else
; 2645 : #endif // __S_ADD_EXP
; 2646 : 					{
; 2647 : 						if( nLevel < 21 )
; 2648 : 							str.Format( "%d - %d", 1, 20 );
; 2649 : 						else if( nLevel < 41 )
; 2650 : 							str.Format( "%d - %d", 21, 40 );
; 2651 : 						else if( nLevel < 61 )
; 2652 : 							str.Format( "%d - %d", 41, 60 );
; 2653 : 						else if( nLevel < 81 )
; 2654 : 							str.Format( "%d - %d", 61, 80 );
; 2655 : 						else if( nLevel <= 120 )
; 2656 : 							str.Format( "%d - %d", 81, 120 );
; 2657 : 
; 2658 : 						CString szMaxBuf;
; 2659 : 						szMaxBuf.Format( "%d", nMaxBuf );
; 2660 : 						((CUser*)this)->AddDefinedText( TID_GAME_EXP_NOTUSE, "\"%s\" \"%s\"", str, szMaxBuf ); // 
; 2661 : 					}
; 2662 : 					nResult = 99;					
; 2663 : 				}				
; 2664 : 			}
; 2665 : 		}
; 2666 : 		break;
; 2667 : 	case II_SYS_SYS_SCR_AMPEM:	// "EMÁőĆřŔÇ µÎ·ç¸¶¸®"		
; 2668 : 		{
; 2669 : 			// ES, EMŔş µżŔĎľČ ľĆŔĚĹŰ.. I´Â °°ŔĚ »çżëÇŇĽö ľ÷˝Ŕ´Ď´Ů.
; 2670 : 			if( HasBuff( BUFF_ITEM, II_SYS_SYS_SCR_AMPES ) || HasBuff( BUFF_ITEM, II_SYS_SYS_SCR_AMPEM ) ||
; 2671 : 				HasBuff( BUFF_ITEM, II_SYS_SYS_SCR_AMPESA ) || HasBuff( BUFF_ITEM, II_SYS_SYS_SCR_AMPESA1) || HasBuff( BUFF_ITEM, II_SYS_SYS_SCR_AMPESA2) ||
; 2672 : 				HasBuff( BUFF_ITEM, II_SYS_SYS_SCR_AMPESB ) || HasBuff( BUFF_ITEM, II_SYS_SYS_SCR_AMPESB1) || HasBuff( BUFF_ITEM, II_SYS_SYS_SCR_AMPESB2) ||
; 2673 : 				HasBuff( BUFF_ITEM, II_SYS_SYS_SCR_AMPESC ) || HasBuff( BUFF_ITEM, II_SYS_SYS_SCR_AMPESC1) || HasBuff( BUFF_ITEM, II_SYS_SYS_SCR_AMPESC2) || 
; 2674 : 				HasBuff( BUFF_ITEM, II_SYS_SYS_SCR_AMPESD ) || HasBuff( BUFF_ITEM, II_SYS_SYS_SCR_AMPESD1) || HasBuff( BUFF_ITEM, II_SYS_SYS_SCR_AMPESD2) ||
; 2675 : #ifdef __S_ADD_EXP
; 2676 : 				HasBuff( BUFF_ITEM, II_SYS_SYS_SCR_AMPESS ) || HasBuff( BUFF_ITEM, II_SYS_SYS_SCR_AMPESS1) || HasBuff( BUFF_ITEM, II_SYS_SYS_SCR_AMPESS2) ||
; 2677 : #endif // __S_ADD_EXP
; 2678 : 				HasBuff( BUFF_ITEM, II_SYS_SYS_SCR_AMPESE ) 
; 2679 : 				)
; 2680 : 				nResult = 2;
; 2681 : 			else if( HasBuff( BUFF_ITEM, II_SYS_SYS_SCR_AMPI ) )
; 2682 : 				nResult = 3;
; 2683 : 			else
; 2684 : 				DoApplySkill( (CCtrl*)this, pItemProp, NULL );
; 2685 : 		}
; 2686 : 		break;
; 2687 : #endif // __NEW_STACKABLE_AMPS
; 2688 : #ifdef __Y_BEAUTY_SHOP_CHARGE
; 2689 : 	case II_SYS_SYS_SCR_BEAUTYSHOP: // "Beauty Shop Charge"		
; 2690 : 		{
; 2691 : 		}
; 2692 : 		break;
; 2693 : #endif // __Y_BEAUTY_SHOP_CHARGE
; 2694 : 	case II_SYS_SYS_SCR_GLVCHEER:	// ŔŔżřŔÇ Čň Ŕĺ°©
; 2695 : 	case II_SYS_SYS_SCR_SMELPROT:	// "ş¸ČŁŔÇ µÎ·ç¸¶¸®"		
; 2696 : #ifdef __SM_ITEM_2ND_EX
; 2697 : 	case II_SYS_SYS_SCR_SMELPROT2:
; 2698 : #endif	// __SM_ITEM_2ND_EX
; 2699 : #if __VER >= 9 // __ULTIMATE
; 2700 : 	case II_SYS_SYS_SCR_SMELPROT3: // " ş¸ČŁŔÇ µÎ·ç¸¶¸®(ĂÖ»ó±Ţ)
; 2701 : #endif // __ULTIMATE
; 2702 : #if __VER >= 11 // __SYS_COLLECTING
; 2703 : 	case II_SYS_SYS_SCR_SMELPROT4:	// ľÇĽĽ»ç¸® ş¸ČŁŔÇ µÎ·ç¸¶¸®
; 2704 : #endif	// __SYS_COLLECTING
; 2705 : 	case II_SYS_SYS_SCR_SMELTING:	// "Á¦·ĂŔÇ µÎ·ç¸¶¸®"	
; 2706 : 	case II_SYS_SYS_SCR_SUPERLEADERPARTY:	// "´ÜŔĺŔÇ Ăŕşą"		
; 2707 : 	case II_SYS_SYS_SCR_SUPERSMELTING:	// "Á¦·Ă µÎ·ç¸¶¸®(Ář)"
; 2708 : 	case II_SYS_SYS_SCR_FONTEDIT:	// "Font Edit"		
; 2709 : #ifdef __Y_BEAUTY_SHOP_CHARGE
; 2710 : 	case II_SYS_SYS_SCR_VENDOR:	// "Vendor Charge"		
; 2711 : #endif //__Y_BEAUTY_SHOP_CHARGE
; 2712 : 	case II_SYS_SYS_SCR_SKLINSTRUCT:	// "±âĽúŔÇ ŔüĽöŔÚ"
; 2713 : #if __VER >= 14 // __EXT_ATTRIBUTE
; 2714 : 	case II_SYS_SYS_SCR_SMELTING2:	// ĽÓĽş Á¦·ĂŔÇ µÎ·ç¸¶¸®
; 2715 : #endif // __EXT_ATTRIBUTE
; 2716 : 
; 2717 : 		{
; 2718 : 			if( HasBuff( BUFF_ITEM, (WORD)( pItemProp->dwID ) ) )
; 2719 : 				nResult = 2;
; 2720 : 			else
; 2721 : 				DoApplySkill( (CCtrl*)this, pItemProp, NULL );
; 2722 : 		}
; 2723 : 		break;
; 2724 : 		//	mulcom	BEGIN100405	°˘Ľş ş¸ČŁŔÇ µÎ·ç¸¶¸®
; 2725 : #ifdef	__PROTECT_AWAKE
; 2726 : 	case	II_SYS_SYS_SCR_AWAKESAFE:
; 2727 : 		{
; 2728 : 			if( HasBuff( BUFF_ITEM, (WORD)( pItemProp->dwID ) ) )
; 2729 : 			{
; 2730 : 				nResult = 2;
; 2731 : 			}
; 2732 : 			else
; 2733 : 			{
; 2734 : 				DoApplySkill( (CCtrl*)this, pItemProp, NULL );
; 2735 : 			}
; 2736 : 		}
; 2737 : 		break;
; 2738 : #endif	//__PROTECT_AWAKE
; 2739 : 		//	mulcom	END100405	°˘Ľş ş¸ČŁŔÇ µÎ·ç¸¶¸®
; 2740 : 
; 2741 : 
; 2742 : #if __VER >= 9	// __PET_0410
; 2743 : 	case II_SYS_SYS_SCR_PET_TONIC_A:
; 2744 : 	case II_SYS_SYS_SCR_PET_TONIC_B:
; 2745 : #if __VER >= 12 // __PET_0519
; 2746 : 		nResult		= DoUseItemPetTonic( pItemElem );	// Ćę żµľçÁ¦ »çżë

  005e0	56		 push	 esi
  005e1	8b cf		 mov	 ecx, edi
  005e3	e8 00 00 00 00	 call	 ?DoUseItemPetTonic@CMover@@AAEHPAVCItemElem@@@Z ; CMover::DoUseItemPetTonic
  005e8	8b f0		 mov	 esi, eax

; 2747 : 		break;

  005ea	e9 4b 06 00 00	 jmp	 $LN164@DoUseItemS
$LN108@DoUseItemS:

; 2748 : #else	// __PET_0519
; 2749 : 		if( HasBuff( BUFF_ITEM, II_SYS_SYS_SCR_PET_TONIC_A ) || HasBuff( BUFF_ITEM, II_SYS_SYS_SCR_PET_TONIC_B ) )
; 2750 : 			nResult = 2;
; 2751 : 		else
; 2752 : 			DoApplySkill( (CCtrl*)this, pItemProp, NULL );
; 2753 : 		break;
; 2754 : #endif	// __PET_0519
; 2755 : 	case II_SYS_SYS_SCR_PET_FEED_POCKET:
; 2756 : 		{
; 2757 : 			nResult = DoUseItemFeedPocket( pItemElem );

  005ef	56		 push	 esi
  005f0	8b cf		 mov	 ecx, edi
  005f2	e8 00 00 00 00	 call	 ?DoUseItemFeedPocket@CMover@@QAEHPAVCItemElem@@@Z ; CMover::DoUseItemFeedPocket
  005f7	8b f0		 mov	 esi, eax

; 2758 : 			break;

  005f9	e9 3c 06 00 00	 jmp	 $LN164@DoUseItemS
$LN181@DoUseItemS:

; 2068 : 	}
; 2069 : #endif	// __AZRIA_1023
; 2070 : 	switch( pItemProp->dwID )

  005fe	3d 55 67 00 00	 cmp	 eax, 26453		; 00006755H
  00603	0f 87 e1 00 00
	00		 ja	 $LN182@DoUseItemS
  00609	0f 84 b6 00 00
	00		 je	 $LN33@DoUseItemS
  0060f	2d 59 66 00 00	 sub	 eax, 26201		; 00006659H
  00614	74 12		 je	 SHORT $LN126@DoUseItemS
  00616	83 e8 02	 sub	 eax, 2
  00619	0f 84 b8 02 00
	00		 je	 $LN90@DoUseItemS
  0061f	83 e8 0e	 sub	 eax, 14			; 0000000eH
  00622	0f 85 02 06 00
	00		 jne	 $LN87@DoUseItemS
$LN126@DoUseItemS:

; 2856 : 		}
; 2857 : 	
; 2858 : 	case II_SYS_SYS_SCR_FRIENDSUMMON_A:
; 2859 : 	case II_SYS_SYS_SCR_FRIENDSUMMON_B:
; 2860 : 		{
; 2861 : 			int nState = GetSummonState();

  00628	8b cf		 mov	 ecx, edi
  0062a	e8 00 00 00 00	 call	 ?GetSummonState@CMover@@QAEHXZ ; CMover::GetSummonState

; 2862 : 			if( nState != 0 )

  0062f	85 c0		 test	 eax, eax
  00631	74 44		 je	 SHORT $LN128@DoUseItemS

; 2863 : 			{
; 2864 : 				DWORD dwMsgId = 0;

  00633	33 c9		 xor	 ecx, ecx

; 2865 : 				if( nState == 1 )	// °Ĺ·ˇÁß

  00635	83 f8 01	 cmp	 eax, 1
  00638	75 08		 jne	 SHORT $LN130@DoUseItemS

; 2866 : 					dwMsgId = TID_GAME_TRADE_NOTUSE;

  0063a	b9 0d 0b 00 00	 mov	 ecx, 2829		; 00000b0dH

; 2874 : 					dwMsgId = TID_GAME_FLY_NOTUSE;
; 2875 : 				
; 2876 : 				((CUser*) this)->AddDefinedText( TID_GAME_STATE_NOTUSE , "\"%s\"", prj.GetText( dwMsgId ) );

  0063f	51		 push	 ecx

; 2877 : 			}

  00640	eb 49		 jmp	 SHORT $LN350@DoUseItemS
$LN130@DoUseItemS:

; 2867 : 				else if( nState == 2 ) // Á×Ŕ˝

  00642	83 f8 02	 cmp	 eax, 2
  00645	75 08		 jne	 SHORT $LN132@DoUseItemS

; 2868 : 					dwMsgId = TID_GAME_DIE_NOTUSE;

  00647	b9 0f 0b 00 00	 mov	 ecx, 2831		; 00000b0fH

; 2874 : 					dwMsgId = TID_GAME_FLY_NOTUSE;
; 2875 : 				
; 2876 : 				((CUser*) this)->AddDefinedText( TID_GAME_STATE_NOTUSE , "\"%s\"", prj.GetText( dwMsgId ) );

  0064c	51		 push	 ecx

; 2877 : 			}

  0064d	eb 3c		 jmp	 SHORT $LN350@DoUseItemS
$LN132@DoUseItemS:

; 2869 : 				else if( nState == 3 ) // °łŔÎ»óÁˇ Áß

  0064f	83 f8 03	 cmp	 eax, 3
  00652	75 08		 jne	 SHORT $LN134@DoUseItemS

; 2870 : 					dwMsgId = TID_GAME_VENDOR_NOTUSE;

  00654	b9 11 0b 00 00	 mov	 ecx, 2833		; 00000b11H

; 2874 : 					dwMsgId = TID_GAME_FLY_NOTUSE;
; 2875 : 				
; 2876 : 				((CUser*) this)->AddDefinedText( TID_GAME_STATE_NOTUSE , "\"%s\"", prj.GetText( dwMsgId ) );

  00659	51		 push	 ecx

; 2877 : 			}

  0065a	eb 2f		 jmp	 SHORT $LN350@DoUseItemS
$LN134@DoUseItemS:

; 2871 : 				else if( nState == 4 ) // ŔüĹőÁß

  0065c	83 f8 04	 cmp	 eax, 4
  0065f	75 08		 jne	 SHORT $LN136@DoUseItemS

; 2872 : 					dwMsgId = TID_GAME_ATTACK_NOTUSE;

  00661	b9 13 0b 00 00	 mov	 ecx, 2835		; 00000b13H

; 2874 : 					dwMsgId = TID_GAME_FLY_NOTUSE;
; 2875 : 				
; 2876 : 				((CUser*) this)->AddDefinedText( TID_GAME_STATE_NOTUSE , "\"%s\"", prj.GetText( dwMsgId ) );

  00666	51		 push	 ecx

; 2877 : 			}

  00667	eb 22		 jmp	 SHORT $LN350@DoUseItemS
$LN136@DoUseItemS:

; 2873 : 				else if( nState == 5 ) // şńÇŕÁß

  00669	83 f8 05	 cmp	 eax, 5
  0066c	ba 15 0b 00 00	 mov	 edx, 2837		; 00000b15H
  00671	0f 44 ca	 cmove	 ecx, edx

; 2874 : 					dwMsgId = TID_GAME_FLY_NOTUSE;
; 2875 : 				
; 2876 : 				((CUser*) this)->AddDefinedText( TID_GAME_STATE_NOTUSE , "\"%s\"", prj.GetText( dwMsgId ) );

  00674	51		 push	 ecx

; 2877 : 			}

  00675	eb 14		 jmp	 SHORT $LN350@DoUseItemS
$LN128@DoUseItemS:

; 2878 : #if __VER >= 11 // __GUILD_COMBAT_1TO1
; 2879 : 			else if( g_GuildCombat1to1Mng.IsPossibleUser( (CUser*)this ) )

  00677	57		 push	 edi
  00678	b9 00 00 00 00	 mov	 ecx, OFFSET ?g_GuildCombat1to1Mng@@3VCGuildCombat1to1Mng@@A ; g_GuildCombat1to1Mng
  0067d	e8 00 00 00 00	 call	 ?IsPossibleUser@CGuildCombat1to1Mng@@QAEHPAVCUser@@@Z ; CGuildCombat1to1Mng::IsPossibleUser
  00682	85 c0		 test	 eax, eax
  00684	74 2d		 je	 SHORT $LN139@DoUseItemS

; 2880 : 			{
; 2881 : 				((CUser*) this)->AddDefinedText( TID_GAME_STATE_NOTUSE , "\"%s\"", prj.GetText( TID_GAME_ATTACK_NOTUSE ) );

  00686	68 13 0b 00 00	 push	 2835			; 00000b13H
$LN350@DoUseItemS:

; 2887 : 			}
; 2888 : 			nResult = 99;

  0068b	b9 00 00 00 00	 mov	 ecx, OFFSET ?prj@@3VCProject@@A ; prj
  00690	e8 00 00 00 00	 call	 ?GetText@CProject@@QAEPBDK@Z ; CProject::GetText
  00695	50		 push	 eax
  00696	68 00 00 00 00	 push	 OFFSET ??_C@_04OEDFLLKD@?$CC?$CFs?$CC@
  0069b	68 17 0b 00 00	 push	 2839			; 00000b17H
  006a0	57		 push	 edi
  006a1	e8 00 00 00 00	 call	 ?AddDefinedText@CUser@@QAAXHPBDZZ ; CUser::AddDefinedText
  006a6	83 c4 10	 add	 esp, 16			; 00000010H
  006a9	be 63 00 00 00	 mov	 esi, 99			; 00000063H

; 2889 : 		}
; 2890 : 		break;

  006ae	e9 87 05 00 00	 jmp	 $LN164@DoUseItemS
$LN139@DoUseItemS:

; 2882 : 			}
; 2883 : #endif // __GUILD_COMBAT_1TO1
; 2884 : 			else
; 2885 : 			{
; 2886 : 				((CUser*) this)->AddSummonFriendUse( pItemElem );	

  006b3	56		 push	 esi
  006b4	8b cf		 mov	 ecx, edi
  006b6	e8 00 00 00 00	 call	 ?AddSummonFriendUse@CUser@@QAEXPAVCItemElem@@@Z ; CUser::AddSummonFriendUse

; 2887 : 			}
; 2888 : 			nResult = 99;

  006bb	be 63 00 00 00	 mov	 esi, 99			; 00000063H

; 2889 : 		}
; 2890 : 		break;

  006c0	e9 75 05 00 00	 jmp	 $LN164@DoUseItemS
$LN33@DoUseItemS:

; 2194 : 		}
; 2195 : #endif	// __PET_0410
; 2196 : #if __VER >= 11 // __SYS_COLLECTING
; 2197 : 	case II_GEN_TOO_COL_NORMALBATTERY:
; 2198 : 		{
; 2199 : 			CUser* pThis	= (CUser*)this;
; 2200 : 			if( !pThis->DoUseItemBattery() )

  006c5	8b cf		 mov	 ecx, edi
  006c7	e8 00 00 00 00	 call	 ?DoUseItemBattery@CUser@@QAEHXZ ; CUser::DoUseItemBattery
  006cc	85 c0		 test	 eax, eax
  006ce	0f 85 64 05 00
	00		 jne	 $LN239@DoUseItemS

; 2201 : 			{
; 2202 : 				pThis->AddDefinedText( TID_GAME_CANT_USE_BATTERY );

  006d4	68 31 0d 00 00	 push	 3377			; 00000d31H

; 2993 : 		break;
; 2994 : 	}
; 2995 : 
; 2996 : #ifndef __AZRIA_1023
; 2997 : #ifdef __SYS_TICKET
; 2998 : 	if( pItemProp->dwItemKind3 == IK3_TICKET )
; 2999 : 	{
; 3000 : 		( (CUser*)this )->DoUseItemTicket( pItemElem );
; 3001 : 		nResult		= 0;
; 3002 : 	}
; 3003 : #endif	// __SYS_TICKET
; 3004 : #endif	// __AZRIA_1023
; 3005 : 
; 3006 : #if __VER >= 14 // __BALLOON_CODE_IMPROVEMENT
; 3007 : 	if( pItemProp->dwItemKind3 == IK3_BALLOON )

  006d9	8b cf		 mov	 ecx, edi
  006db	e8 00 00 00 00	 call	 ?AddDefinedText@CUser@@QAEXH@Z ; CUser::AddDefinedText
  006e0	be 01 00 00 00	 mov	 esi, 1
  006e5	e9 50 05 00 00	 jmp	 $LN164@DoUseItemS
$LN182@DoUseItemS:

; 2068 : 	}
; 2069 : #endif	// __AZRIA_1023
; 2070 : 	switch( pItemProp->dwID )

  006ea	2d 58 67 00 00	 sub	 eax, 26456		; 00006758H
  006ef	74 13		 je	 SHORT $LN141@DoUseItemS
  006f1	83 e8 11	 sub	 eax, 17			; 00000011H
  006f4	0f 84 dd 01 00
	00		 je	 $LN90@DoUseItemS

; 2993 : 		break;
; 2994 : 	}
; 2995 : 
; 2996 : #ifndef __AZRIA_1023
; 2997 : #ifdef __SYS_TICKET
; 2998 : 	if( pItemProp->dwItemKind3 == IK3_TICKET )
; 2999 : 	{
; 3000 : 		( (CUser*)this )->DoUseItemTicket( pItemElem );
; 3001 : 		nResult		= 0;
; 3002 : 	}
; 3003 : #endif	// __SYS_TICKET
; 3004 : #endif	// __AZRIA_1023
; 3005 : 
; 3006 : #if __VER >= 14 // __BALLOON_CODE_IMPROVEMENT
; 3007 : 	if( pItemProp->dwItemKind3 == IK3_BALLOON )

  006fa	be 01 00 00 00	 mov	 esi, 1
  006ff	e9 36 05 00 00	 jmp	 $LN164@DoUseItemS
$LN141@DoUseItemS:

; 2891 : 
; 2892 : #if __VER >= 11 // __MA_VER11_02	// ĽöÇĄ °łłä Č­Ćä 'Ćä¸°' Ăß°ˇ
; 2893 : 	case II_SYS_SYS_SCR_PERIN:
; 2894 : 		{
; 2895 : 			int nState = GetSummonState();

  00704	8b cf		 mov	 ecx, edi
  00706	e8 00 00 00 00	 call	 ?GetSummonState@CMover@@QAEHXZ ; CMover::GetSummonState

; 2896 : 			if( nState != 0 )

  0070b	85 c0		 test	 eax, eax
  0070d	74 66		 je	 SHORT $LN142@DoUseItemS

; 2897 : 			{
; 2898 : 				DWORD dwMsgId = 0;

  0070f	33 c9		 xor	 ecx, ecx

; 2899 : 				if( nState == 1 )	// °Ĺ·ˇÁß

  00711	83 f8 01	 cmp	 eax, 1
  00714	75 07		 jne	 SHORT $LN144@DoUseItemS

; 2900 : 					dwMsgId = TID_GAME_TRADE_NOTUSE;

  00716	b9 0d 0b 00 00	 mov	 ecx, 2829		; 00000b0dH
  0071b	eb 2f		 jmp	 SHORT $LN152@DoUseItemS
$LN144@DoUseItemS:

; 2901 : 				else if( nState == 2 ) // Á×Ŕ˝

  0071d	83 f8 02	 cmp	 eax, 2
  00720	75 07		 jne	 SHORT $LN146@DoUseItemS

; 2902 : 					dwMsgId = TID_GAME_DIE_NOTUSE;

  00722	b9 0f 0b 00 00	 mov	 ecx, 2831		; 00000b0fH
  00727	eb 23		 jmp	 SHORT $LN152@DoUseItemS
$LN146@DoUseItemS:

; 2903 : 				else if( nState == 3 ) // °łŔÎ»óÁˇ Áß

  00729	83 f8 03	 cmp	 eax, 3
  0072c	75 07		 jne	 SHORT $LN148@DoUseItemS

; 2904 : 					dwMsgId = TID_GAME_VENDOR_NOTUSE;

  0072e	b9 11 0b 00 00	 mov	 ecx, 2833		; 00000b11H
  00733	eb 17		 jmp	 SHORT $LN152@DoUseItemS
$LN148@DoUseItemS:

; 2905 : 				else if( nState == 4 ) // ŔüĹőÁß

  00735	83 f8 04	 cmp	 eax, 4
  00738	75 07		 jne	 SHORT $LN150@DoUseItemS

; 2906 : 					dwMsgId = TID_GAME_ATTACK_NOTUSE;

  0073a	b9 13 0b 00 00	 mov	 ecx, 2835		; 00000b13H
  0073f	eb 0b		 jmp	 SHORT $LN152@DoUseItemS
$LN150@DoUseItemS:

; 2907 : 				else if( nState == 5 ) // şńÇŕÁß

  00741	83 f8 05	 cmp	 eax, 5
  00744	ba 15 0b 00 00	 mov	 edx, 2837		; 00000b15H
  00749	0f 44 ca	 cmove	 ecx, edx
$LN152@DoUseItemS:

; 2908 : 					dwMsgId = TID_GAME_FLY_NOTUSE;
; 2909 : 				
; 2910 : 				((CUser*) this)->AddDefinedText( TID_GAME_STATE_NOTUSE , "\"%s\"", prj.GetText( dwMsgId ) );

  0074c	51		 push	 ecx
  0074d	b9 00 00 00 00	 mov	 ecx, OFFSET ?prj@@3VCProject@@A ; prj
  00752	e8 00 00 00 00	 call	 ?GetText@CProject@@QAEPBDK@Z ; CProject::GetText
  00757	50		 push	 eax
  00758	68 00 00 00 00	 push	 OFFSET ??_C@_04OEDFLLKD@?$CC?$CFs?$CC@
  0075d	68 17 0b 00 00	 push	 2839			; 00000b17H
  00762	57		 push	 edi
  00763	e8 00 00 00 00	 call	 ?AddDefinedText@CUser@@QAAXHPBDZZ ; CUser::AddDefinedText
  00768	83 c4 10	 add	 esp, 16			; 00000010H

; 2911 : 				nResult = 99;

  0076b	be 63 00 00 00	 mov	 esi, 99			; 00000063H

; 2912 : 			}

  00770	e9 c5 04 00 00	 jmp	 $LN164@DoUseItemS
$LN142@DoUseItemS:
  00775	66 0f 6e 8f e0
	14 00 00	 movd	 xmm1, DWORD PTR [edi+5344]

; 2913 : 			else
; 2914 : 			{
; 2915 : 				float	fTmpGold = (float)( ((CUser*) this)->GetGold() );

  0077d	0f 5b c9	 cvtdq2ps xmm1, xmm1

; 2916 : 				if( fTmpGold >= 2000000000 || fTmpGold < 0  )

  00780	0f 2f 0d 00 00
	00 00		 comiss	 xmm1, DWORD PTR __real@4eee6b28
  00787	f3 0f 11 8d 24
	ff ff ff	 movss	 DWORD PTR _fTmpGold$1$[ebp], xmm1
  0078f	0f 83 c8 00 00
	00		 jae	 $LN155@DoUseItemS
  00795	0f 57 c0	 xorps	 xmm0, xmm0
  00798	0f 2f c1	 comiss	 xmm0, xmm1
  0079b	0f 87 bc 00 00
	00		 ja	 $LN155@DoUseItemS

; 2919 : 					return 99;
; 2920 : 				}
; 2921 : 				else
; 2922 : 				{
; 2923 : 					((CUser*) this)->AddGold(100000000,true);

  007a1	6a 01		 push	 1
  007a3	68 00 e1 f5 05	 push	 100000000		; 05f5e100H
  007a8	8b cf		 mov	 ecx, edi
  007aa	e8 00 00 00 00	 call	 ?AddGold@CMover@@QAEHHH@Z ; CMover::AddGold

; 2924 : 
; 2925 : 					// chipi080711 - Ćä¸°»çżë ·Î±×
; 2926 : 					LogItemInfo aLogItem;

  007af	8d 8d 28 ff ff
	ff		 lea	 ecx, DWORD PTR _aLogItem$1[ebp]
  007b5	e8 00 00 00 00	 call	 ??0_LogItemInfo@@QAE@XZ	; _LogItemInfo::_LogItemInfo

; 2927 : 					aLogItem.Action = "C";
; 2928 : 					aLogItem.SendName = ((CUser*) this)->GetName();

  007ba	6a 00		 push	 0
  007bc	8b cf		 mov	 ecx, edi
  007be	c7 85 28 ff ff
	ff 00 00 00 00	 mov	 DWORD PTR _aLogItem$1[ebp], OFFSET ??_C@_01GFHCPBMG@C@
  007c8	e8 00 00 00 00	 call	 ?GetName@CMover@@QAEPBDH@Z ; CMover::GetName

; 2929 : 					aLogItem.RecvName = "USE_PERIN";
; 2930 : 					aLogItem.WorldId = ((CUser*) this)->GetWorld()->GetID();
; 2931 : 					aLogItem.Gold = (DWORD)( fTmpGold );

  007cd	f3 0f 10 85 24
	ff ff ff	 movss	 xmm0, DWORD PTR _fTmpGold$1$[ebp]
  007d5	89 85 2c ff ff
	ff		 mov	 DWORD PTR _aLogItem$1[ebp+4], eax
  007db	8b 87 6c 01 00
	00		 mov	 eax, DWORD PTR [edi+364]
  007e1	c7 85 30 ff ff
	ff 00 00 00 00	 mov	 DWORD PTR _aLogItem$1[ebp+8], OFFSET ??_C@_09FAFPDOMC@USE_PERIN@
  007eb	8b 00		 mov	 eax, DWORD PTR [eax]
  007ed	89 85 34 ff ff
	ff		 mov	 DWORD PTR _aLogItem$1[ebp+12], eax
  007f3	e8 00 00 00 00	 call	 __ftol3

; 2932 : 					aLogItem.Gold2 = ((CUser*) this)->GetGold();

  007f8	8b 8f e0 14 00
	00		 mov	 ecx, DWORD PTR [edi+5344]

; 2933 : 					aLogItem.Gold_1  = ((CUser*) this)->GetGold() - static_cast<int>(fTmpGold);
; 2934 : 					//aLogItem.ItemName = pItemElem->GetName();
; 2935 : 					_stprintf( aLogItem.szItemName, "%d", pItemProp->dwID );

  007fe	ff 33		 push	 DWORD PTR [ebx]
  00800	89 85 38 ff ff
	ff		 mov	 DWORD PTR _aLogItem$1[ebp+16], eax
  00806	f3 0f 2c 85 24
	ff ff ff	 cvttss2si eax, DWORD PTR _fTmpGold$1$[ebp]
  0080e	89 8d 3c ff ff
	ff		 mov	 DWORD PTR _aLogItem$1[ebp+20], ecx
  00814	68 00 00 00 00	 push	 OFFSET ??_C@_02DPKJAMEF@?$CFd@
  00819	2b c8		 sub	 ecx, eax
  0081b	8d 85 4c ff ff
	ff		 lea	 eax, DWORD PTR _aLogItem$1[ebp+36]
  00821	50		 push	 eax
  00822	89 8d 74 ff ff
	ff		 mov	 DWORD PTR _aLogItem$1[ebp+76], ecx
  00828	e8 00 00 00 00	 call	 _sprintf

; 2936 : 					aLogItem.itemNumber = 1;
; 2937 : 					aLogItem.ItemNo = pItemElem->GetSerialNumber();

  0082d	8b 46 38	 mov	 eax, DWORD PTR [esi+56]
  00830	83 c4 0c	 add	 esp, 12			; 0000000cH
  00833	89 85 40 ff ff
	ff		 mov	 DWORD PTR _aLogItem$1[ebp+24], eax

; 2938 : 					g_DPSrvr.OnLogItem( aLogItem );

  00839	b9 00 00 00 00	 mov	 ecx, OFFSET ?g_DPSrvr@@3VCDPSrvr@@A ; g_DPSrvr
  0083e	8d 85 28 ff ff
	ff		 lea	 eax, DWORD PTR _aLogItem$1[ebp]
  00844	c7 85 6c ff ff
	ff 01 00 00 00	 mov	 DWORD PTR _aLogItem$1[ebp+68], 1
  0084e	6a 00		 push	 0
  00850	6a 00		 push	 0
  00852	50		 push	 eax
  00853	e8 00 00 00 00	 call	 ?OnLogItem@CDPSrvr@@QAEXAAU_LogItemInfo@@PAVCItemElem@@H@Z ; CDPSrvr::OnLogItem

; 2939 : 				}
; 2940 : 			}
; 2941 : 		}
; 2942 : 		break;

  00858	e9 db 03 00 00	 jmp	 $LN239@DoUseItemS
$LN155@DoUseItemS:

; 2917 : 				{
; 2918 : 					((CUser*) this)->AddDiagText( prj.GetText(TID_GAME_TOOMANYMONEY_USE_PERIN) );

  0085d	68 8c 0d 00 00	 push	 3468			; 00000d8cH
  00862	b9 00 00 00 00	 mov	 ecx, OFFSET ?prj@@3VCProject@@A ; prj
  00867	e8 00 00 00 00	 call	 ?GetText@CProject@@QAEPBDK@Z ; CProject::GetText
  0086c	50		 push	 eax
  0086d	8b cf		 mov	 ecx, edi
  0086f	e8 00 00 00 00	 call	 ?AddDiagText@CUser@@QAEXPBD@Z ; CUser::AddDiagText
  00874	5f		 pop	 edi

; 3015 : 		}
; 3016 : 	}
; 3017 : #endif // __BALLOON_CODE_IMPROVEMENT
; 3018 : 
; 3019 : #endif // __WORLDSERVER
; 3020 : 
; 3021 : 	return nResult;
; 3022 : }

  00875	5e		 pop	 esi
  00876	b8 63 00 00 00	 mov	 eax, 99			; 00000063H
  0087b	5b		 pop	 ebx
  0087c	8b 4d fc	 mov	 ecx, DWORD PTR __$ArrayPad$[ebp]
  0087f	33 cd		 xor	 ecx, ebp
  00881	e8 00 00 00 00	 call	 @__security_check_cookie@4
  00886	8b e5		 mov	 esp, ebp
  00888	5d		 pop	 ebp
  00889	c2 0c 00	 ret	 12			; 0000000cH
$LN41@DoUseItemS:

; 2220 : 			else
; 2221 : 				nResult = 2;
; 2222 : 		}
; 2223 : 		break;
; 2224 : 	case II_CHR_SYS_SCR_SHOUTFULL001:
; 2225 : 		{
; 2226 : 			if( !IsShoutFull() )

  0088c	8b cf		 mov	 ecx, edi
  0088e	e8 00 00 00 00	 call	 ?IsShoutFull@CMover@@QAEHXZ ; CMover::IsShoutFull
  00893	85 c0		 test	 eax, eax
  00895	0f 85 44 fb ff
	ff		 jne	 $LN36@DoUseItemS

; 2227 : 				SetSMMode( SM_SHOUT001, pItemProp->dwCircleTime );

  0089b	ff b3 bc 01 00
	00		 push	 DWORD PTR [ebx+444]
  008a1	8b cf		 mov	 ecx, edi
  008a3	6a 18		 push	 24			; 00000018H
  008a5	e8 00 00 00 00	 call	 ?SetSMMode@CMover@@QAEHHK@Z ; CMover::SetSMMode
  008aa	e9 89 03 00 00	 jmp	 $LN239@DoUseItemS
$LN178@DoUseItemS:

; 2068 : 	}
; 2069 : #endif	// __AZRIA_1023
; 2070 : 	switch( pItemProp->dwID )

  008af	3d 3b 75 00 00	 cmp	 eax, 30011		; 0000753bH
  008b4	0f 87 60 01 00
	00		 ja	 $LN183@DoUseItemS
  008ba	74 1b		 je	 SHORT $LN90@DoUseItemS
  008bc	2d bf 67 00 00	 sub	 eax, 26559		; 000067bfH
  008c1	0f 84 30 01 00
	00		 je	 $LN59@DoUseItemS
  008c7	83 e8 03	 sub	 eax, 3
  008ca	74 27		 je	 SHORT $LN25@DoUseItemS
  008cc	2d 8f 01 00 00	 sub	 eax, 399		; 0000018fH
  008d1	0f 85 53 03 00
	00		 jne	 $LN87@DoUseItemS
$LN90@DoUseItemS:

; 2993 : 		break;
; 2994 : 	}
; 2995 : 
; 2996 : #ifndef __AZRIA_1023
; 2997 : #ifdef __SYS_TICKET
; 2998 : 	if( pItemProp->dwItemKind3 == IK3_TICKET )
; 2999 : 	{
; 3000 : 		( (CUser*)this )->DoUseItemTicket( pItemElem );
; 3001 : 		nResult		= 0;
; 3002 : 	}
; 3003 : #endif	// __SYS_TICKET
; 3004 : #endif	// __AZRIA_1023
; 3005 : 
; 3006 : #if __VER >= 14 // __BALLOON_CODE_IMPROVEMENT
; 3007 : 	if( pItemProp->dwItemKind3 == IK3_BALLOON )

  008d7	52		 push	 edx
  008d8	6a 00		 push	 0
  008da	8b cf		 mov	 ecx, edi
  008dc	e8 00 00 00 00	 call	 ?HasBuff@CMover@@QAEHGG@Z ; CMover::HasBuff
  008e1	85 c0		 test	 eax, eax
  008e3	0f 84 99 02 00
	00		 je	 $LN104@DoUseItemS
  008e9	be 02 00 00 00	 mov	 esi, 2
  008ee	e9 47 03 00 00	 jmp	 $LN164@DoUseItemS
$LN25@DoUseItemS:

; 2142 : #if __VER >= 9	// __PET_0410
; 2143 : 	case II_SYS_SYS_SCR_PET_LIFE:
; 2144 : 	case II_SYS_SYS_SCR_PET_LIFE02:
; 2145 : 		{
; 2146 : 			CPet* pPet	= GetPet();

  008f3	8b cf		 mov	 ecx, edi
  008f5	e8 00 00 00 00	 call	 ?GetPet@CMover@@QAEPAVCPet@@XZ ; CMover::GetPet
  008fa	8b f0		 mov	 esi, eax
  008fc	89 b5 24 ff ff
	ff		 mov	 DWORD PTR _pPet$1$[ebp], esi

; 2147 : 			if( pPet == NULL )

  00902	85 f6		 test	 esi, esi
  00904	75 16		 jne	 SHORT $LN27@DoUseItemS
$LN352@DoUseItemS:

; 2993 : 		break;
; 2994 : 	}
; 2995 : 
; 2996 : #ifndef __AZRIA_1023
; 2997 : #ifdef __SYS_TICKET
; 2998 : 	if( pItemProp->dwItemKind3 == IK3_TICKET )
; 2999 : 	{
; 3000 : 		( (CUser*)this )->DoUseItemTicket( pItemElem );
; 3001 : 		nResult		= 0;
; 3002 : 	}
; 3003 : #endif	// __SYS_TICKET
; 3004 : #endif	// __AZRIA_1023
; 3005 : 
; 3006 : #if __VER >= 14 // __BALLOON_CODE_IMPROVEMENT
; 3007 : 	if( pItemProp->dwItemKind3 == IK3_BALLOON )

  00906	68 8d 0c 00 00	 push	 3213			; 00000c8dH
  0090b	8b cf		 mov	 ecx, edi
  0090d	e8 00 00 00 00	 call	 ?AddDefinedText@CUser@@QAEXH@Z ; CUser::AddDefinedText
  00912	be 01 00 00 00	 mov	 esi, 1
  00917	e9 1e 03 00 00	 jmp	 $LN164@DoUseItemS
$LN27@DoUseItemS:

; 2148 : 			{
; 2149 : 				( (CUser*)this )->AddDefinedText( TID_GAME_PET_NOT_FOUND );
; 2150 : 				nResult	= 1;
; 2151 : 				break;
; 2152 : 			}
; 2153 : 
; 2154 : 			if( pPet->GetLevel() == PL_EGG )

  0091c	80 7e 05 00	 cmp	 BYTE PTR [esi+5], 0
  00920	75 16		 jne	 SHORT $LN28@DoUseItemS

; 2155 : 			{
; 2156 : 				( (CUser*)this )->AddDefinedText( TID_GAME_PET_CANT_USE_TO_EGG );

  00922	68 de 0c 00 00	 push	 3294			; 00000cdeH
  00927	8b cf		 mov	 ecx, edi
  00929	e8 00 00 00 00	 call	 ?AddDefinedText@CUser@@QAEXH@Z ; CUser::AddDefinedText

; 2157 : 				nResult	= 1;

  0092e	be 01 00 00 00	 mov	 esi, 1

; 2158 : 				break;

  00933	e9 02 03 00 00	 jmp	 $LN164@DoUseItemS
$LN28@DoUseItemS:

; 2159 : 			}
; 2160 : 			
; 2161 : 			if( pPet->GetLife() >= MAX_PET_LIFE )

  00938	8b ce		 mov	 ecx, esi
  0093a	e8 00 00 00 00	 call	 ?GetLife@CPet@@QAEGXZ	; CPet::GetLife
  0093f	66 83 f8 63	 cmp	 ax, 99			; 00000063H
  00943	72 0a		 jb	 SHORT $LN29@DoUseItemS

; 2162 : 			{
; 2163 : 				nResult	= 1;

  00945	be 01 00 00 00	 mov	 esi, 1

; 2164 : 				break;

  0094a	e9 eb 02 00 00	 jmp	 $LN164@DoUseItemS
$LN29@DoUseItemS:

; 2165 : 			}
; 2166 : 
; 2167 : 			WORD wLife	= pPet->GetLife();

  0094f	8b ce		 mov	 ecx, esi
  00951	e8 00 00 00 00	 call	 ?GetLife@CPet@@QAEGXZ	; CPet::GetLife

; 2168 : 			wLife	+= ( pItemProp->dwID == II_SYS_SYS_SCR_PET_LIFE? CPetProperty::GetInstance()->GetAddLife(): 1 );

  00956	81 3b 2a 52 00
	00		 cmp	 DWORD PTR [ebx], 21034	; 0000522aH
  0095c	0f b7 c8	 movzx	 ecx, ax
  0095f	89 8d 1c ff ff
	ff		 mov	 DWORD PTR _wLife$1$[ebp], ecx
  00965	75 17		 jne	 SHORT $LN173@DoUseItemS
  00967	e8 00 00 00 00	 call	 ?GetInstance@CPetProperty@@SAPAV1@XZ ; CPetProperty::GetInstance
  0096c	8b c8		 mov	 ecx, eax
  0096e	e8 00 00 00 00	 call	 ?GetAddLife@CPetProperty@@QAEGXZ ; CPetProperty::GetAddLife
  00973	8b 8d 1c ff ff
	ff		 mov	 ecx, DWORD PTR _wLife$1$[ebp]
  00979	0f b7 c0	 movzx	 eax, ax
  0097c	eb 05		 jmp	 SHORT $LN174@DoUseItemS
$LN173@DoUseItemS:
  0097e	b8 01 00 00 00	 mov	 eax, 1
$LN174@DoUseItemS:
  00983	03 c8		 add	 ecx, eax

; 2169 : 
; 2170 : 			pPet->SetLife( wLife > MAX_PET_LIFE? MAX_PET_LIFE: wLife );

  00985	ba 63 00 00 00	 mov	 edx, 99			; 00000063H
  0098a	0f b7 d9	 movzx	 ebx, cx
  0098d	66 3b ca	 cmp	 cx, dx
  00990	8b c3		 mov	 eax, ebx

; 2171 : 				
; 2172 : 			CItemElem* pItemElem	= GetPetItem();

  00992	8b cf		 mov	 ecx, edi
  00994	0f 47 c2	 cmova	 eax, edx
  00997	66 89 46 0e	 mov	 WORD PTR [esi+14], ax
  0099b	e8 00 00 00 00	 call	 ?GetPetItem@CMover@@QAEPAVCItemElem@@XZ ; CMover::GetPetItem

; 2173 : 			( (CUser*)this )->AddPetState( pItemElem->m_dwObjId, pPet->GetLife(), pPet->GetEnergy(), pPet->GetExp() );

  009a0	0f b7 4e 0c	 movzx	 ecx, WORD PTR [esi+12]
  009a4	8b f8		 mov	 edi, eax
  009a6	8b 85 24 ff ff
	ff		 mov	 eax, DWORD PTR _pPet$1$[ebp]
  009ac	8b 77 04	 mov	 esi, DWORD PTR [edi+4]
  009af	ff 70 08	 push	 DWORD PTR [eax+8]
  009b2	51		 push	 ecx
  009b3	8b c8		 mov	 ecx, eax
  009b5	e8 00 00 00 00	 call	 ?GetLife@CPet@@QAEGXZ	; CPet::GetLife
  009ba	0f b7 c8	 movzx	 ecx, ax
  009bd	51		 push	 ecx
  009be	8b 8d 20 ff ff
	ff		 mov	 ecx, DWORD PTR _this$GSCopy$1$[ebp]
  009c4	56		 push	 esi
  009c5	e8 00 00 00 00	 call	 ?AddPetState@CUser@@QAEXKGGK@Z ; CUser::AddPetState

; 2174 : 			g_dpDBClient.CalluspPetLog( m_idPlayer, pItemElem->GetSerialNumber(), wLife, PETLOGTYPE_LIFE, pPet );

  009ca	ff b5 24 ff ff
	ff		 push	 DWORD PTR _pPet$1$[ebp]
  009d0	b9 00 00 00 00	 mov	 ecx, OFFSET ?g_dpDBClient@@3VCDPDatabaseClient@@A ; g_dpDBClient
  009d5	6a 08		 push	 8
  009d7	53		 push	 ebx
  009d8	ff 77 38	 push	 DWORD PTR [edi+56]
  009db	8b bd 20 ff ff
	ff		 mov	 edi, DWORD PTR _this$GSCopy$1$[ebp]
  009e1	ff b7 34 02 00
	00		 push	 DWORD PTR [edi+564]
  009e7	e8 00 00 00 00	 call	 ?CalluspPetLog@CDPDatabaseClient@@QAEXKKKHPAVCPet@@@Z ; CDPDatabaseClient::CalluspPetLog

; 2175 : 			break;

  009ec	8b 9d 18 ff ff
	ff		 mov	 ebx, DWORD PTR _pItemProp$GSCopy$1$[ebp]
  009f2	e9 41 02 00 00	 jmp	 $LN239@DoUseItemS
$LN59@DoUseItemS:

; 2289 : 			else
; 2290 : 				nResult = 2;
; 2291 : 		}
; 2292 : 		break;
; 2293 : 	case II_CHR_SYS_SCR_COMMBANK001:
; 2294 : 		{
; 2295 : 			if( !IsCommBank() )

  009f7	8b cf		 mov	 ecx, edi
  009f9	e8 00 00 00 00	 call	 ?IsCommBank@CMover@@QAEHXZ ; CMover::IsCommBank
  009fe	85 c0		 test	 eax, eax
  00a00	0f 85 d9 f9 ff
	ff		 jne	 $LN36@DoUseItemS

; 2296 : 				SetSMMode( SM_BANK001, pItemProp->dwCircleTime );

  00a06	ff b3 bc 01 00
	00		 push	 DWORD PTR [ebx+444]
  00a0c	8b cf		 mov	 ecx, edi
  00a0e	6a 19		 push	 25			; 00000019H
  00a10	e8 00 00 00 00	 call	 ?SetSMMode@CMover@@QAEHHK@Z ; CMover::SetSMMode
  00a15	e9 1e 02 00 00	 jmp	 $LN239@DoUseItemS
$LN183@DoUseItemS:

; 2068 : 	}
; 2069 : #endif	// __AZRIA_1023
; 2070 : 	switch( pItemProp->dwID )

  00a1a	3d 81 76 00 00	 cmp	 eax, 30337		; 00007681H
  00a1f	0f 87 98 01 00
	00		 ja	 $LN184@DoUseItemS
  00a25	0f 84 6f 01 00
	00		 je	 $LN156@DoUseItemS
  00a2b	2d 48 75 00 00	 sub	 eax, 30024		; 00007548H
  00a30	3d 82 00 00 00	 cmp	 eax, 130		; 00000082H
  00a35	0f 87 ef 01 00
	00		 ja	 $LN87@DoUseItemS
  00a3b	0f b6 80 00 00
	00 00		 movzx	 eax, BYTE PTR $LN232@DoUseItemS[eax]
  00a42	ff 24 85 00 00
	00 00		 jmp	 DWORD PTR $LN233@DoUseItemS[eax*4]
$LN9@DoUseItemS:

; 2083 : #ifdef __S_ADD_RESTATE
; 2084 : 	case II_CHR_SYS_SCR_RESTATE_STR:
; 2085 : 		{
; 2086 : 			if( m_nStr == 15 )

  00a49	83 bf c8 05 00
	00 0f		 cmp	 DWORD PTR [edi+1480], 15 ; 0000000fH
  00a50	8b cf		 mov	 ecx, edi
  00a52	75 14		 jne	 SHORT $LN10@DoUseItemS

; 2087 : 			{
; 2088 : 				((CUser*)this)->AddDefinedText( TID_GAME_DONOTUSE_RESTATE );			

  00a54	68 62 0f 00 00	 push	 3938			; 00000f62H

; 2993 : 		break;
; 2994 : 	}
; 2995 : 
; 2996 : #ifndef __AZRIA_1023
; 2997 : #ifdef __SYS_TICKET
; 2998 : 	if( pItemProp->dwItemKind3 == IK3_TICKET )
; 2999 : 	{
; 3000 : 		( (CUser*)this )->DoUseItemTicket( pItemElem );
; 3001 : 		nResult		= 0;
; 3002 : 	}
; 3003 : #endif	// __SYS_TICKET
; 3004 : #endif	// __AZRIA_1023
; 3005 : 
; 3006 : #if __VER >= 14 // __BALLOON_CODE_IMPROVEMENT
; 3007 : 	if( pItemProp->dwItemKind3 == IK3_BALLOON )

  00a59	e8 00 00 00 00	 call	 ?AddDefinedText@CUser@@QAEXH@Z ; CUser::AddDefinedText
  00a5e	be 01 00 00 00	 mov	 esi, 1
  00a63	e9 d2 01 00 00	 jmp	 $LN164@DoUseItemS
$LN10@DoUseItemS:

; 2089 : 				nResult = 1;
; 2090 : 			}
; 2091 : 			else
; 2092 : 				ReStateOne( 0 );

  00a68	6a 00		 push	 0
  00a6a	e8 00 00 00 00	 call	 ?ReStateOne@CMover@@QAEXH@Z ; CMover::ReStateOne

; 2093 : 		}
; 2094 : 		break;

  00a6f	e9 c4 01 00 00	 jmp	 $LN239@DoUseItemS
$LN12@DoUseItemS:

; 2095 : 	case II_CHR_SYS_SCR_RESTATE_STA:
; 2096 : 		{
; 2097 : 			if( m_nSta == 15 )

  00a74	83 bf cc 05 00
	00 0f		 cmp	 DWORD PTR [edi+1484], 15 ; 0000000fH
  00a7b	8b cf		 mov	 ecx, edi
  00a7d	75 14		 jne	 SHORT $LN13@DoUseItemS

; 2098 : 			{
; 2099 : 				((CUser*)this)->AddDefinedText( TID_GAME_DONOTUSE_RESTATE );			

  00a7f	68 62 0f 00 00	 push	 3938			; 00000f62H

; 2993 : 		break;
; 2994 : 	}
; 2995 : 
; 2996 : #ifndef __AZRIA_1023
; 2997 : #ifdef __SYS_TICKET
; 2998 : 	if( pItemProp->dwItemKind3 == IK3_TICKET )
; 2999 : 	{
; 3000 : 		( (CUser*)this )->DoUseItemTicket( pItemElem );
; 3001 : 		nResult		= 0;
; 3002 : 	}
; 3003 : #endif	// __SYS_TICKET
; 3004 : #endif	// __AZRIA_1023
; 3005 : 
; 3006 : #if __VER >= 14 // __BALLOON_CODE_IMPROVEMENT
; 3007 : 	if( pItemProp->dwItemKind3 == IK3_BALLOON )

  00a84	e8 00 00 00 00	 call	 ?AddDefinedText@CUser@@QAEXH@Z ; CUser::AddDefinedText
  00a89	be 01 00 00 00	 mov	 esi, 1
  00a8e	e9 a7 01 00 00	 jmp	 $LN164@DoUseItemS
$LN13@DoUseItemS:

; 2100 : 				nResult = 1;
; 2101 : 			}
; 2102 : 			else
; 2103 : 				ReStateOne( 1 );

  00a93	6a 01		 push	 1
  00a95	e8 00 00 00 00	 call	 ?ReStateOne@CMover@@QAEXH@Z ; CMover::ReStateOne

; 2104 : 		}
; 2105 : 		break;

  00a9a	e9 99 01 00 00	 jmp	 $LN239@DoUseItemS
$LN15@DoUseItemS:

; 2106 : 	case II_CHR_SYS_SCR_RESTATE_DEX:
; 2107 : 		{
; 2108 : 			if( m_nDex == 15 )

  00a9f	83 bf d0 05 00
	00 0f		 cmp	 DWORD PTR [edi+1488], 15 ; 0000000fH
  00aa6	8b cf		 mov	 ecx, edi
  00aa8	75 14		 jne	 SHORT $LN16@DoUseItemS

; 2109 : 			{
; 2110 : 				((CUser*)this)->AddDefinedText( TID_GAME_DONOTUSE_RESTATE );			

  00aaa	68 62 0f 00 00	 push	 3938			; 00000f62H

; 2993 : 		break;
; 2994 : 	}
; 2995 : 
; 2996 : #ifndef __AZRIA_1023
; 2997 : #ifdef __SYS_TICKET
; 2998 : 	if( pItemProp->dwItemKind3 == IK3_TICKET )
; 2999 : 	{
; 3000 : 		( (CUser*)this )->DoUseItemTicket( pItemElem );
; 3001 : 		nResult		= 0;
; 3002 : 	}
; 3003 : #endif	// __SYS_TICKET
; 3004 : #endif	// __AZRIA_1023
; 3005 : 
; 3006 : #if __VER >= 14 // __BALLOON_CODE_IMPROVEMENT
; 3007 : 	if( pItemProp->dwItemKind3 == IK3_BALLOON )

  00aaf	e8 00 00 00 00	 call	 ?AddDefinedText@CUser@@QAEXH@Z ; CUser::AddDefinedText
  00ab4	be 01 00 00 00	 mov	 esi, 1
  00ab9	e9 7c 01 00 00	 jmp	 $LN164@DoUseItemS
$LN16@DoUseItemS:

; 2111 : 				nResult = 1;
; 2112 : 			}
; 2113 : 			else
; 2114 : 				ReStateOne( 2 );

  00abe	6a 02		 push	 2
  00ac0	e8 00 00 00 00	 call	 ?ReStateOne@CMover@@QAEXH@Z ; CMover::ReStateOne

; 2115 : 		}
; 2116 : 		break;

  00ac5	e9 6e 01 00 00	 jmp	 $LN239@DoUseItemS
$LN18@DoUseItemS:

; 2117 : 	case II_CHR_SYS_SCR_RESTATE_INT:
; 2118 : 		{
; 2119 : 			if( m_nInt == 15 )

  00aca	83 bf d4 05 00
	00 0f		 cmp	 DWORD PTR [edi+1492], 15 ; 0000000fH
  00ad1	8b cf		 mov	 ecx, edi
  00ad3	75 14		 jne	 SHORT $LN19@DoUseItemS

; 2120 : 			{
; 2121 : 				((CUser*)this)->AddDefinedText( TID_GAME_DONOTUSE_RESTATE );			

  00ad5	68 62 0f 00 00	 push	 3938			; 00000f62H

; 2993 : 		break;
; 2994 : 	}
; 2995 : 
; 2996 : #ifndef __AZRIA_1023
; 2997 : #ifdef __SYS_TICKET
; 2998 : 	if( pItemProp->dwItemKind3 == IK3_TICKET )
; 2999 : 	{
; 3000 : 		( (CUser*)this )->DoUseItemTicket( pItemElem );
; 3001 : 		nResult		= 0;
; 3002 : 	}
; 3003 : #endif	// __SYS_TICKET
; 3004 : #endif	// __AZRIA_1023
; 3005 : 
; 3006 : #if __VER >= 14 // __BALLOON_CODE_IMPROVEMENT
; 3007 : 	if( pItemProp->dwItemKind3 == IK3_BALLOON )

  00ada	e8 00 00 00 00	 call	 ?AddDefinedText@CUser@@QAEXH@Z ; CUser::AddDefinedText
  00adf	be 01 00 00 00	 mov	 esi, 1
  00ae4	e9 51 01 00 00	 jmp	 $LN164@DoUseItemS
$LN19@DoUseItemS:

; 2122 : 				nResult = 1;
; 2123 : 			}
; 2124 : 			else
; 2125 : 				ReStateOne( 3 );

  00ae9	6a 03		 push	 3
  00aeb	e8 00 00 00 00	 call	 ?ReStateOne@CMover@@QAEXH@Z ; CMover::ReStateOne

; 2126 : 		}
; 2127 : 		break;

  00af0	e9 43 01 00 00	 jmp	 $LN239@DoUseItemS
$LN44@DoUseItemS:
; File C:\IAGOS\server\v18\Source\Source\_Common\Mover.h

; 1457 : 	BOOL			IsSMMode( int nType ) { return ( m_dwSMTime[nType] > 0 ) ? TRUE : FALSE; }

  00af5	83 bf 54 03 00
	00 00		 cmp	 DWORD PTR [edi+852], 0
; File C:\IAGOS\server\v18\Source\Source\_Common\MoverSkill.cpp

; 2234 : 			if( !( IsSMMode( SM_PARTYSKILL1 ) || IsSMMode( SM_PARTYSKILL15 ) || IsSMMode( SM_PARTYSKILL30 ) ) )

  00afc	0f 87 dd f8 ff
	ff		 ja	 $LN36@DoUseItemS
; File C:\IAGOS\server\v18\Source\Source\_Common\Mover.h

; 1457 : 	BOOL			IsSMMode( int nType ) { return ( m_dwSMTime[nType] > 0 ) ? TRUE : FALSE; }

  00b02	83 bf 04 03 00
	00 00		 cmp	 DWORD PTR [edi+772], 0
; File C:\IAGOS\server\v18\Source\Source\_Common\MoverSkill.cpp

; 2234 : 			if( !( IsSMMode( SM_PARTYSKILL1 ) || IsSMMode( SM_PARTYSKILL15 ) || IsSMMode( SM_PARTYSKILL30 ) ) )

  00b09	0f 87 d0 f8 ff
	ff		 ja	 $LN36@DoUseItemS
; File C:\IAGOS\server\v18\Source\Source\_Common\Mover.h

; 1457 : 	BOOL			IsSMMode( int nType ) { return ( m_dwSMTime[nType] > 0 ) ? TRUE : FALSE; }

  00b0f	83 bf 08 03 00
	00 00		 cmp	 DWORD PTR [edi+776], 0
; File C:\IAGOS\server\v18\Source\Source\_Common\MoverSkill.cpp

; 2234 : 			if( !( IsSMMode( SM_PARTYSKILL1 ) || IsSMMode( SM_PARTYSKILL15 ) || IsSMMode( SM_PARTYSKILL30 ) ) )

  00b16	0f 87 c3 f8 ff
	ff		 ja	 $LN36@DoUseItemS

; 2235 : #if __VER >= 12 // __PARSKILL1001	//12Â÷ ĆÄ˝şĹł ľĆŔĚĹŰ ĽöÁ¤  world,core,neuz
; 2236 : 			{
; 2237 : 				SetSMMode( SM_PARTYSKILL1, pItemProp->dwCircleTime );

  00b1c	ff b3 bc 01 00
	00		 push	 DWORD PTR [ebx+444]
  00b22	6a 16		 push	 22			; 00000016H

; 2238 : 				g_DPCoreClient.SendUserPartySkill( m_idPlayer, PARTY_PARSKILL_MODE, 1000, 0, 1 );
; 2239 : 			}

  00b24	e9 50 f6 ff ff	 jmp	 $LN351@DoUseItemS
$LN65@DoUseItemS:
; File C:\IAGOS\server\v18\Source\Source\_Common\Mover.h

; 1457 : 	BOOL			IsSMMode( int nType ) { return ( m_dwSMTime[nType] > 0 ) ? TRUE : FALSE; }

  00b29	83 bf 58 03 00
	00 00		 cmp	 DWORD PTR [edi+856], 0
; File C:\IAGOS\server\v18\Source\Source\_Common\MoverSkill.cpp

; 2311 : 			if( !( IsSMMode( SM_ATTACK_UP1 ) || IsSMMode( SM_ATTACK_UP ) ) )

  00b30	0f 87 a9 f8 ff
	ff		 ja	 $LN36@DoUseItemS
; File C:\IAGOS\server\v18\Source\Source\_Common\Mover.h

; 1457 : 	BOOL			IsSMMode( int nType ) { return ( m_dwSMTime[nType] > 0 ) ? TRUE : FALSE; }

  00b36	83 bf 38 03 00
	00 00		 cmp	 DWORD PTR [edi+824], 0
; File C:\IAGOS\server\v18\Source\Source\_Common\MoverSkill.cpp

; 2311 : 			if( !( IsSMMode( SM_ATTACK_UP1 ) || IsSMMode( SM_ATTACK_UP ) ) )

  00b3d	0f 87 9c f8 ff
	ff		 ja	 $LN36@DoUseItemS

; 2312 : 				SetSMMode( SM_ATTACK_UP1, pItemProp->dwCircleTime );

  00b43	ff b3 bc 01 00
	00		 push	 DWORD PTR [ebx+444]
  00b49	8b cf		 mov	 ecx, edi
  00b4b	6a 17		 push	 23			; 00000017H
  00b4d	e8 00 00 00 00	 call	 ?SetSMMode@CMover@@QAEHHK@Z ; CMover::SetSMMode
  00b52	e9 e1 00 00 00	 jmp	 $LN239@DoUseItemS
$LN109@DoUseItemS:

; 2759 : 		}
; 2760 : #endif	// __PET_0410
; 2761 : #ifdef __EVE_BALLOON
; 2762 : #if __VER < 14 // __BALLOON_CODE_IMPROVEMENT
; 2763 : 	case II_SYS_SYS_EVE_BALLOON:
; 2764 : 	case II_SYS_SYS_EVE_BALLOON01:
; 2765 : 	case II_SYS_SYS_EVE_BALLOON02:
; 2766 : 	case II_SYS_SYS_EVE_BALLOON_01:
; 2767 : 	case II_SYS_SYS_EVE_BALLOON01_01:
; 2768 : 	case II_SYS_SYS_EVE_BALLOON02_01:
; 2769 : 		{
; 2770 : 			if( HasBuff( BUFF_ITEM, II_SYS_SYS_EVE_BALLOON )
; 2771 : 				|| HasBuff( BUFF_ITEM, II_SYS_SYS_EVE_BALLOON01 )
; 2772 : 				|| HasBuff( BUFF_ITEM, II_SYS_SYS_EVE_BALLOON02 )
; 2773 : 				|| HasBuff( BUFF_ITEM, II_SYS_SYS_EVE_BALLOON_01 )
; 2774 : 				|| HasBuff( BUFF_ITEM, II_SYS_SYS_EVE_BALLOON01_01 )
; 2775 : 				|| HasBuff( BUFF_ITEM, II_SYS_SYS_EVE_BALLOON02_01 )
; 2776 : 			)
; 2777 : 				nResult = 2;
; 2778 : 			else
; 2779 : 				DoApplySkill( (CCtrl*)this, pItemProp, NULL );
; 2780 : 		}
; 2781 : 		break;
; 2782 : #endif // __BALLOON_CODE_IMPROVEMENT
; 2783 : #endif //__EVE_BALLOON
; 2784 : #if __VER >= 9 // __II_SYS_SYS_SCR_GET
; 2785 : 	case II_SYS_SYS_SCR_GET01:
; 2786 : 	case II_SYS_SYS_SCR_GET02:
; 2787 : 		{
; 2788 : 			if( HasBuff( BUFF_ITEM, II_SYS_SYS_SCR_GET01 ) ||

  00b57	68 a3 75 00 00	 push	 30115			; 000075a3H
  00b5c	6a 00		 push	 0
  00b5e	8b cf		 mov	 ecx, edi
  00b60	e8 00 00 00 00	 call	 ?HasBuff@CMover@@QAEHGG@Z ; CMover::HasBuff
  00b65	85 c0		 test	 eax, eax
  00b67	0f 85 72 f8 ff
	ff		 jne	 $LN36@DoUseItemS
  00b6d	68 a4 75 00 00	 push	 30116			; 000075a4H
  00b72	50		 push	 eax
  00b73	8b cf		 mov	 ecx, edi
  00b75	e8 00 00 00 00	 call	 ?HasBuff@CMover@@QAEHGG@Z ; CMover::HasBuff
  00b7a	85 c0		 test	 eax, eax
  00b7c	0f 85 5d f8 ff
	ff		 jne	 $LN36@DoUseItemS
$LN104@DoUseItemS:

; 2993 : 		break;
; 2994 : 	}
; 2995 : 
; 2996 : #ifndef __AZRIA_1023
; 2997 : #ifdef __SYS_TICKET
; 2998 : 	if( pItemProp->dwItemKind3 == IK3_TICKET )
; 2999 : 	{
; 3000 : 		( (CUser*)this )->DoUseItemTicket( pItemElem );
; 3001 : 		nResult		= 0;
; 3002 : 	}
; 3003 : #endif	// __SYS_TICKET
; 3004 : #endif	// __AZRIA_1023
; 3005 : 
; 3006 : #if __VER >= 14 // __BALLOON_CODE_IMPROVEMENT
; 3007 : 	if( pItemProp->dwItemKind3 == IK3_BALLOON )

  00b82	6a 00		 push	 0
  00b84	6a 00		 push	 0
  00b86	6a 00		 push	 0
  00b88	6a 00		 push	 0
  00b8a	6a 00		 push	 0
  00b8c	53		 push	 ebx
  00b8d	57		 push	 edi
  00b8e	8b cf		 mov	 ecx, edi
  00b90	e8 00 00 00 00	 call	 ?DoApplySkill@CCtrl@@QAEHPAV1@PAUItemProp@@PAUAddSkillProp@@_NHHH@Z ; CCtrl::DoApplySkill
  00b95	e9 9e 00 00 00	 jmp	 $LN239@DoUseItemS
$LN156@DoUseItemS:

; 2943 : #endif	// __MA_VER11_02
; 2944 : #ifdef __ADD_RESTATE_LOW
; 2945 : 	case II_CHR_SYS_SCR_RESTATE_STR_LOW:
; 2946 : 		{
; 2947 : 			if( m_nStr == 15 )

  00b9a	83 bf c8 05 00
	00 0f		 cmp	 DWORD PTR [edi+1480], 15 ; 0000000fH
  00ba1	8b cf		 mov	 ecx, edi
  00ba3	75 14		 jne	 SHORT $LN157@DoUseItemS

; 2948 : 			{
; 2949 : 				((CUser*)this)->AddDefinedText( TID_GAME_DONOTUSE_RESTATE );			

  00ba5	68 62 0f 00 00	 push	 3938			; 00000f62H

; 2993 : 		break;
; 2994 : 	}
; 2995 : 
; 2996 : #ifndef __AZRIA_1023
; 2997 : #ifdef __SYS_TICKET
; 2998 : 	if( pItemProp->dwItemKind3 == IK3_TICKET )
; 2999 : 	{
; 3000 : 		( (CUser*)this )->DoUseItemTicket( pItemElem );
; 3001 : 		nResult		= 0;
; 3002 : 	}
; 3003 : #endif	// __SYS_TICKET
; 3004 : #endif	// __AZRIA_1023
; 3005 : 
; 3006 : #if __VER >= 14 // __BALLOON_CODE_IMPROVEMENT
; 3007 : 	if( pItemProp->dwItemKind3 == IK3_BALLOON )

  00baa	e8 00 00 00 00	 call	 ?AddDefinedText@CUser@@QAEXH@Z ; CUser::AddDefinedText
  00baf	be 01 00 00 00	 mov	 esi, 1
  00bb4	e9 81 00 00 00	 jmp	 $LN164@DoUseItemS
$LN157@DoUseItemS:

; 2950 : 				nResult = 1;
; 2951 : 			}
; 2952 : 			else
; 2953 : 				ReStateOneLow( 0 );

  00bb9	6a 00		 push	 0

; 2954 : 		}
; 2955 : 		break;

  00bbb	eb 76		 jmp	 SHORT $LN357@DoUseItemS
$LN184@DoUseItemS:

; 2068 : 	}
; 2069 : #endif	// __AZRIA_1023
; 2070 : 	switch( pItemProp->dwID )

  00bbd	2d 82 76 00 00	 sub	 eax, 30338		; 00007682H
  00bc2	74 51		 je	 SHORT $LN162@DoUseItemS
  00bc4	83 e8 01	 sub	 eax, 1
  00bc7	74 2c		 je	 SHORT $LN159@DoUseItemS
  00bc9	83 e8 01	 sub	 eax, 1
  00bcc	74 07		 je	 SHORT $LN165@DoUseItemS

; 2989 : #endif // __ADD_RESTATE_LOW
; 2990 : 
; 2991 : 	default:
; 2992 : 			nResult = 1;

  00bce	be 01 00 00 00	 mov	 esi, 1
  00bd3	eb 65		 jmp	 SHORT $LN164@DoUseItemS
$LN165@DoUseItemS:

; 2976 : 		}
; 2977 : 		break;
; 2978 : 	case II_CHR_SYS_SCR_RESTATE_INT_LOW:
; 2979 : 		{
; 2980 : 			if( m_nInt == 15 )

  00bd5	83 bf d4 05 00
	00 0f		 cmp	 DWORD PTR [edi+1492], 15 ; 0000000fH
  00bdc	8b cf		 mov	 ecx, edi
  00bde	75 11		 jne	 SHORT $LN166@DoUseItemS

; 2981 : 			{
; 2982 : 				((CUser*)this)->AddDefinedText( TID_GAME_DONOTUSE_RESTATE );			

  00be0	68 62 0f 00 00	 push	 3938			; 00000f62H

; 2993 : 		break;
; 2994 : 	}
; 2995 : 
; 2996 : #ifndef __AZRIA_1023
; 2997 : #ifdef __SYS_TICKET
; 2998 : 	if( pItemProp->dwItemKind3 == IK3_TICKET )
; 2999 : 	{
; 3000 : 		( (CUser*)this )->DoUseItemTicket( pItemElem );
; 3001 : 		nResult		= 0;
; 3002 : 	}
; 3003 : #endif	// __SYS_TICKET
; 3004 : #endif	// __AZRIA_1023
; 3005 : 
; 3006 : #if __VER >= 14 // __BALLOON_CODE_IMPROVEMENT
; 3007 : 	if( pItemProp->dwItemKind3 == IK3_BALLOON )

  00be5	e8 00 00 00 00	 call	 ?AddDefinedText@CUser@@QAEXH@Z ; CUser::AddDefinedText
  00bea	be 01 00 00 00	 mov	 esi, 1
  00bef	eb 49		 jmp	 SHORT $LN164@DoUseItemS
$LN166@DoUseItemS:

; 2983 : 				nResult = 1;
; 2984 : 			}
; 2985 : 			else
; 2986 : 				ReStateOneLow( 3 );

  00bf1	6a 03		 push	 3

; 2987 : 		}
; 2988 : 		break;

  00bf3	eb 3e		 jmp	 SHORT $LN357@DoUseItemS
$LN159@DoUseItemS:

; 2956 : 	case II_CHR_SYS_SCR_RESTATE_STA_LOW:
; 2957 : 		{
; 2958 : 			if( m_nSta == 15 )

  00bf5	83 bf cc 05 00
	00 0f		 cmp	 DWORD PTR [edi+1484], 15 ; 0000000fH
  00bfc	8b cf		 mov	 ecx, edi
  00bfe	75 11		 jne	 SHORT $LN160@DoUseItemS

; 2959 : 			{
; 2960 : 				((CUser*)this)->AddDefinedText( TID_GAME_DONOTUSE_RESTATE );			

  00c00	68 62 0f 00 00	 push	 3938			; 00000f62H

; 2993 : 		break;
; 2994 : 	}
; 2995 : 
; 2996 : #ifndef __AZRIA_1023
; 2997 : #ifdef __SYS_TICKET
; 2998 : 	if( pItemProp->dwItemKind3 == IK3_TICKET )
; 2999 : 	{
; 3000 : 		( (CUser*)this )->DoUseItemTicket( pItemElem );
; 3001 : 		nResult		= 0;
; 3002 : 	}
; 3003 : #endif	// __SYS_TICKET
; 3004 : #endif	// __AZRIA_1023
; 3005 : 
; 3006 : #if __VER >= 14 // __BALLOON_CODE_IMPROVEMENT
; 3007 : 	if( pItemProp->dwItemKind3 == IK3_BALLOON )

  00c05	e8 00 00 00 00	 call	 ?AddDefinedText@CUser@@QAEXH@Z ; CUser::AddDefinedText
  00c0a	be 01 00 00 00	 mov	 esi, 1
  00c0f	eb 29		 jmp	 SHORT $LN164@DoUseItemS
$LN160@DoUseItemS:

; 2961 : 				nResult = 1;
; 2962 : 			}
; 2963 : 			else
; 2964 : 				ReStateOneLow( 1 );

  00c11	6a 01		 push	 1

; 2965 : 		}
; 2966 : 		break;

  00c13	eb 1e		 jmp	 SHORT $LN357@DoUseItemS
$LN162@DoUseItemS:

; 2967 : 	case II_CHR_SYS_SCR_RESTATE_DEX_LOW:
; 2968 : 		{
; 2969 : 			if( m_nDex == 15 )

  00c15	83 bf d0 05 00
	00 0f		 cmp	 DWORD PTR [edi+1488], 15 ; 0000000fH
  00c1c	8b cf		 mov	 ecx, edi
  00c1e	75 11		 jne	 SHORT $LN163@DoUseItemS

; 2970 : 			{
; 2971 : 				((CUser*)this)->AddDefinedText( TID_GAME_DONOTUSE_RESTATE );			

  00c20	68 62 0f 00 00	 push	 3938			; 00000f62H
  00c25	e8 00 00 00 00	 call	 ?AddDefinedText@CUser@@QAEXH@Z ; CUser::AddDefinedText
$LN87@DoUseItemS:

; 2993 : 		break;
; 2994 : 	}
; 2995 : 
; 2996 : #ifndef __AZRIA_1023
; 2997 : #ifdef __SYS_TICKET
; 2998 : 	if( pItemProp->dwItemKind3 == IK3_TICKET )
; 2999 : 	{
; 3000 : 		( (CUser*)this )->DoUseItemTicket( pItemElem );
; 3001 : 		nResult		= 0;
; 3002 : 	}
; 3003 : #endif	// __SYS_TICKET
; 3004 : #endif	// __AZRIA_1023
; 3005 : 
; 3006 : #if __VER >= 14 // __BALLOON_CODE_IMPROVEMENT
; 3007 : 	if( pItemProp->dwItemKind3 == IK3_BALLOON )

  00c2a	be 01 00 00 00	 mov	 esi, 1
  00c2f	eb 09		 jmp	 SHORT $LN164@DoUseItemS
$LN163@DoUseItemS:

; 2972 : 				nResult = 1;
; 2973 : 			}
; 2974 : 			else
; 2975 : 				ReStateOneLow( 2 );

  00c31	6a 02		 push	 2
$LN357@DoUseItemS:

; 2993 : 		break;
; 2994 : 	}
; 2995 : 
; 2996 : #ifndef __AZRIA_1023
; 2997 : #ifdef __SYS_TICKET
; 2998 : 	if( pItemProp->dwItemKind3 == IK3_TICKET )
; 2999 : 	{
; 3000 : 		( (CUser*)this )->DoUseItemTicket( pItemElem );
; 3001 : 		nResult		= 0;
; 3002 : 	}
; 3003 : #endif	// __SYS_TICKET
; 3004 : #endif	// __AZRIA_1023
; 3005 : 
; 3006 : #if __VER >= 14 // __BALLOON_CODE_IMPROVEMENT
; 3007 : 	if( pItemProp->dwItemKind3 == IK3_BALLOON )

  00c33	e8 00 00 00 00	 call	 ?ReStateOneLow@CMover@@QAEXH@Z ; CMover::ReStateOneLow
$LN239@DoUseItemS:
  00c38	33 f6		 xor	 esi, esi
$LN164@DoUseItemS:
  00c3a	81 7b 78 88 00
	00 00		 cmp	 DWORD PTR [ebx+120], 136 ; 00000088H
  00c41	75 2c		 jne	 SHORT $LN171@DoUseItemS

; 3008 : 	{
; 3009 : 		if( HasBuffByIk3( IK3_BALLOON ) != FALSE )

  00c43	68 88 00 00 00	 push	 136			; 00000088H
  00c48	8b cf		 mov	 ecx, edi
  00c4a	e8 00 00 00 00	 call	 ?HasBuffByIk3@CMover@@QAEHK@Z ; CMover::HasBuffByIk3
  00c4f	85 c0		 test	 eax, eax
  00c51	74 07		 je	 SHORT $LN170@DoUseItemS

; 3010 : 			nResult = 2;

  00c53	be 02 00 00 00	 mov	 esi, 2
  00c58	eb 15		 jmp	 SHORT $LN171@DoUseItemS
$LN170@DoUseItemS:

; 3011 : 		else
; 3012 : 		{
; 3013 : 			DoApplySkill( (CCtrl*)this, pItemProp, NULL );

  00c5a	6a 00		 push	 0
  00c5c	6a 00		 push	 0
  00c5e	6a 00		 push	 0
  00c60	6a 00		 push	 0
  00c62	6a 00		 push	 0
  00c64	53		 push	 ebx
  00c65	57		 push	 edi
  00c66	8b cf		 mov	 ecx, edi
  00c68	e8 00 00 00 00	 call	 ?DoApplySkill@CCtrl@@QAEHPAV1@PAUItemProp@@PAUAddSkillProp@@_NHHH@Z ; CCtrl::DoApplySkill

; 3014 : 			nResult = 0;

  00c6d	33 f6		 xor	 esi, esi
$LN171@DoUseItemS:

; 3015 : 		}
; 3016 : 	}
; 3017 : #endif // __BALLOON_CODE_IMPROVEMENT
; 3018 : 
; 3019 : #endif // __WORLDSERVER
; 3020 : 
; 3021 : 	return nResult;
; 3022 : }

  00c6f	8b 4d fc	 mov	 ecx, DWORD PTR __$ArrayPad$[ebp]
  00c72	8b c6		 mov	 eax, esi
  00c74	5f		 pop	 edi
  00c75	5e		 pop	 esi
  00c76	33 cd		 xor	 ecx, ebp
  00c78	5b		 pop	 ebx
  00c79	e8 00 00 00 00	 call	 @__security_check_cookie@4
  00c7e	8b e5		 mov	 esp, ebp
  00c80	5d		 pop	 ebp
  00c81	c2 0c 00	 ret	 12			; 0000000cH
$LN230@DoUseItemS:
  00c84	00 00 00 00	 DD	 $LN6@DoUseItemS
  00c88	00 00 00 00	 DD	 $LN35@DoUseItemS
  00c8c	00 00 00 00	 DD	 $LN38@DoUseItemS
  00c90	00 00 00 00	 DD	 $LN47@DoUseItemS
  00c94	00 00 00 00	 DD	 $LN50@DoUseItemS
  00c98	00 00 00 00	 DD	 $LN53@DoUseItemS
  00c9c	00 00 00 00	 DD	 $LN56@DoUseItemS
  00ca0	00 00 00 00	 DD	 $LN62@DoUseItemS
  00ca4	00 00 00 00	 DD	 $LN21@DoUseItemS
  00ca8	00 00 00 00	 DD	 $LN68@DoUseItemS
  00cac	00 00 00 00	 DD	 $LN80@DoUseItemS
  00cb0	00 00 00 00	 DD	 $LN74@DoUseItemS
  00cb4	00 00 00 00	 DD	 $LN71@DoUseItemS
  00cb8	00 00 00 00	 DD	 $LN81@DoUseItemS
  00cbc	00 00 00 00	 DD	 $LN86@DoUseItemS
  00cc0	00 00 00 00	 DD	 $LN90@DoUseItemS
  00cc4	00 00 00 00	 DD	 $LN87@DoUseItemS
$LN229@DoUseItemS:
  00cc8	00		 DB	 0
  00cc9	01		 DB	 1
  00cca	02		 DB	 2
  00ccb	03		 DB	 3
  00ccc	04		 DB	 4
  00ccd	05		 DB	 5
  00cce	06		 DB	 6
  00ccf	07		 DB	 7
  00cd0	10		 DB	 16			; 00000010H
  00cd1	08		 DB	 8
  00cd2	10		 DB	 16			; 00000010H
  00cd3	10		 DB	 16			; 00000010H
  00cd4	10		 DB	 16			; 00000010H
  00cd5	10		 DB	 16			; 00000010H
  00cd6	10		 DB	 16			; 00000010H
  00cd7	10		 DB	 16			; 00000010H
  00cd8	10		 DB	 16			; 00000010H
  00cd9	10		 DB	 16			; 00000010H
  00cda	10		 DB	 16			; 00000010H
  00cdb	10		 DB	 16			; 00000010H
  00cdc	10		 DB	 16			; 00000010H
  00cdd	10		 DB	 16			; 00000010H
  00cde	10		 DB	 16			; 00000010H
  00cdf	10		 DB	 16			; 00000010H
  00ce0	10		 DB	 16			; 00000010H
  00ce1	10		 DB	 16			; 00000010H
  00ce2	10		 DB	 16			; 00000010H
  00ce3	10		 DB	 16			; 00000010H
  00ce4	10		 DB	 16			; 00000010H
  00ce5	10		 DB	 16			; 00000010H
  00ce6	10		 DB	 16			; 00000010H
  00ce7	10		 DB	 16			; 00000010H
  00ce8	10		 DB	 16			; 00000010H
  00ce9	10		 DB	 16			; 00000010H
  00cea	10		 DB	 16			; 00000010H
  00ceb	10		 DB	 16			; 00000010H
  00cec	10		 DB	 16			; 00000010H
  00ced	10		 DB	 16			; 00000010H
  00cee	10		 DB	 16			; 00000010H
  00cef	10		 DB	 16			; 00000010H
  00cf0	10		 DB	 16			; 00000010H
  00cf1	10		 DB	 16			; 00000010H
  00cf2	10		 DB	 16			; 00000010H
  00cf3	10		 DB	 16			; 00000010H
  00cf4	10		 DB	 16			; 00000010H
  00cf5	10		 DB	 16			; 00000010H
  00cf6	10		 DB	 16			; 00000010H
  00cf7	10		 DB	 16			; 00000010H
  00cf8	10		 DB	 16			; 00000010H
  00cf9	10		 DB	 16			; 00000010H
  00cfa	10		 DB	 16			; 00000010H
  00cfb	10		 DB	 16			; 00000010H
  00cfc	10		 DB	 16			; 00000010H
  00cfd	10		 DB	 16			; 00000010H
  00cfe	10		 DB	 16			; 00000010H
  00cff	10		 DB	 16			; 00000010H
  00d00	10		 DB	 16			; 00000010H
  00d01	10		 DB	 16			; 00000010H
  00d02	10		 DB	 16			; 00000010H
  00d03	09		 DB	 9
  00d04	10		 DB	 16			; 00000010H
  00d05	10		 DB	 16			; 00000010H
  00d06	10		 DB	 16			; 00000010H
  00d07	10		 DB	 16			; 00000010H
  00d08	10		 DB	 16			; 00000010H
  00d09	10		 DB	 16			; 00000010H
  00d0a	10		 DB	 16			; 00000010H
  00d0b	10		 DB	 16			; 00000010H
  00d0c	10		 DB	 16			; 00000010H
  00d0d	10		 DB	 16			; 00000010H
  00d0e	10		 DB	 16			; 00000010H
  00d0f	10		 DB	 16			; 00000010H
  00d10	10		 DB	 16			; 00000010H
  00d11	10		 DB	 16			; 00000010H
  00d12	10		 DB	 16			; 00000010H
  00d13	10		 DB	 16			; 00000010H
  00d14	10		 DB	 16			; 00000010H
  00d15	10		 DB	 16			; 00000010H
  00d16	10		 DB	 16			; 00000010H
  00d17	10		 DB	 16			; 00000010H
  00d18	10		 DB	 16			; 00000010H
  00d19	10		 DB	 16			; 00000010H
  00d1a	10		 DB	 16			; 00000010H
  00d1b	10		 DB	 16			; 00000010H
  00d1c	10		 DB	 16			; 00000010H
  00d1d	10		 DB	 16			; 00000010H
  00d1e	10		 DB	 16			; 00000010H
  00d1f	10		 DB	 16			; 00000010H
  00d20	10		 DB	 16			; 00000010H
  00d21	10		 DB	 16			; 00000010H
  00d22	10		 DB	 16			; 00000010H
  00d23	10		 DB	 16			; 00000010H
  00d24	10		 DB	 16			; 00000010H
  00d25	10		 DB	 16			; 00000010H
  00d26	10		 DB	 16			; 00000010H
  00d27	10		 DB	 16			; 00000010H
  00d28	10		 DB	 16			; 00000010H
  00d29	10		 DB	 16			; 00000010H
  00d2a	10		 DB	 16			; 00000010H
  00d2b	10		 DB	 16			; 00000010H
  00d2c	10		 DB	 16			; 00000010H
  00d2d	10		 DB	 16			; 00000010H
  00d2e	10		 DB	 16			; 00000010H
  00d2f	10		 DB	 16			; 00000010H
  00d30	10		 DB	 16			; 00000010H
  00d31	10		 DB	 16			; 00000010H
  00d32	10		 DB	 16			; 00000010H
  00d33	10		 DB	 16			; 00000010H
  00d34	10		 DB	 16			; 00000010H
  00d35	10		 DB	 16			; 00000010H
  00d36	10		 DB	 16			; 00000010H
  00d37	10		 DB	 16			; 00000010H
  00d38	10		 DB	 16			; 00000010H
  00d39	10		 DB	 16			; 00000010H
  00d3a	10		 DB	 16			; 00000010H
  00d3b	10		 DB	 16			; 00000010H
  00d3c	10		 DB	 16			; 00000010H
  00d3d	10		 DB	 16			; 00000010H
  00d3e	10		 DB	 16			; 00000010H
  00d3f	10		 DB	 16			; 00000010H
  00d40	10		 DB	 16			; 00000010H
  00d41	10		 DB	 16			; 00000010H
  00d42	10		 DB	 16			; 00000010H
  00d43	10		 DB	 16			; 00000010H
  00d44	10		 DB	 16			; 00000010H
  00d45	10		 DB	 16			; 00000010H
  00d46	10		 DB	 16			; 00000010H
  00d47	10		 DB	 16			; 00000010H
  00d48	10		 DB	 16			; 00000010H
  00d49	10		 DB	 16			; 00000010H
  00d4a	10		 DB	 16			; 00000010H
  00d4b	10		 DB	 16			; 00000010H
  00d4c	10		 DB	 16			; 00000010H
  00d4d	10		 DB	 16			; 00000010H
  00d4e	10		 DB	 16			; 00000010H
  00d4f	10		 DB	 16			; 00000010H
  00d50	10		 DB	 16			; 00000010H
  00d51	10		 DB	 16			; 00000010H
  00d52	10		 DB	 16			; 00000010H
  00d53	10		 DB	 16			; 00000010H
  00d54	10		 DB	 16			; 00000010H
  00d55	10		 DB	 16			; 00000010H
  00d56	10		 DB	 16			; 00000010H
  00d57	10		 DB	 16			; 00000010H
  00d58	10		 DB	 16			; 00000010H
  00d59	10		 DB	 16			; 00000010H
  00d5a	10		 DB	 16			; 00000010H
  00d5b	10		 DB	 16			; 00000010H
  00d5c	10		 DB	 16			; 00000010H
  00d5d	10		 DB	 16			; 00000010H
  00d5e	10		 DB	 16			; 00000010H
  00d5f	10		 DB	 16			; 00000010H
  00d60	10		 DB	 16			; 00000010H
  00d61	10		 DB	 16			; 00000010H
  00d62	10		 DB	 16			; 00000010H
  00d63	10		 DB	 16			; 00000010H
  00d64	10		 DB	 16			; 00000010H
  00d65	10		 DB	 16			; 00000010H
  00d66	10		 DB	 16			; 00000010H
  00d67	10		 DB	 16			; 00000010H
  00d68	10		 DB	 16			; 00000010H
  00d69	10		 DB	 16			; 00000010H
  00d6a	10		 DB	 16			; 00000010H
  00d6b	10		 DB	 16			; 00000010H
  00d6c	10		 DB	 16			; 00000010H
  00d6d	10		 DB	 16			; 00000010H
  00d6e	10		 DB	 16			; 00000010H
  00d6f	10		 DB	 16			; 00000010H
  00d70	10		 DB	 16			; 00000010H
  00d71	10		 DB	 16			; 00000010H
  00d72	10		 DB	 16			; 00000010H
  00d73	10		 DB	 16			; 00000010H
  00d74	10		 DB	 16			; 00000010H
  00d75	10		 DB	 16			; 00000010H
  00d76	10		 DB	 16			; 00000010H
  00d77	10		 DB	 16			; 00000010H
  00d78	10		 DB	 16			; 00000010H
  00d79	10		 DB	 16			; 00000010H
  00d7a	10		 DB	 16			; 00000010H
  00d7b	10		 DB	 16			; 00000010H
  00d7c	10		 DB	 16			; 00000010H
  00d7d	10		 DB	 16			; 00000010H
  00d7e	10		 DB	 16			; 00000010H
  00d7f	10		 DB	 16			; 00000010H
  00d80	10		 DB	 16			; 00000010H
  00d81	10		 DB	 16			; 00000010H
  00d82	10		 DB	 16			; 00000010H
  00d83	10		 DB	 16			; 00000010H
  00d84	10		 DB	 16			; 00000010H
  00d85	10		 DB	 16			; 00000010H
  00d86	10		 DB	 16			; 00000010H
  00d87	10		 DB	 16			; 00000010H
  00d88	10		 DB	 16			; 00000010H
  00d89	10		 DB	 16			; 00000010H
  00d8a	10		 DB	 16			; 00000010H
  00d8b	10		 DB	 16			; 00000010H
  00d8c	10		 DB	 16			; 00000010H
  00d8d	10		 DB	 16			; 00000010H
  00d8e	10		 DB	 16			; 00000010H
  00d8f	10		 DB	 16			; 00000010H
  00d90	10		 DB	 16			; 00000010H
  00d91	10		 DB	 16			; 00000010H
  00d92	10		 DB	 16			; 00000010H
  00d93	10		 DB	 16			; 00000010H
  00d94	10		 DB	 16			; 00000010H
  00d95	10		 DB	 16			; 00000010H
  00d96	10		 DB	 16			; 00000010H
  00d97	10		 DB	 16			; 00000010H
  00d98	10		 DB	 16			; 00000010H
  00d99	10		 DB	 16			; 00000010H
  00d9a	10		 DB	 16			; 00000010H
  00d9b	10		 DB	 16			; 00000010H
  00d9c	10		 DB	 16			; 00000010H
  00d9d	10		 DB	 16			; 00000010H
  00d9e	10		 DB	 16			; 00000010H
  00d9f	0a		 DB	 10			; 0000000aH
  00da0	10		 DB	 16			; 00000010H
  00da1	0b		 DB	 11			; 0000000bH
  00da2	10		 DB	 16			; 00000010H
  00da3	0c		 DB	 12			; 0000000cH
  00da4	10		 DB	 16			; 00000010H
  00da5	0d		 DB	 13			; 0000000dH
  00da6	10		 DB	 16			; 00000010H
  00da7	0e		 DB	 14			; 0000000eH
  00da8	10		 DB	 16			; 00000010H
  00da9	10		 DB	 16			; 00000010H
  00daa	10		 DB	 16			; 00000010H
  00dab	10		 DB	 16			; 00000010H
  00dac	10		 DB	 16			; 00000010H
  00dad	10		 DB	 16			; 00000010H
  00dae	10		 DB	 16			; 00000010H
  00daf	10		 DB	 16			; 00000010H
  00db0	10		 DB	 16			; 00000010H
  00db1	10		 DB	 16			; 00000010H
  00db2	10		 DB	 16			; 00000010H
  00db3	10		 DB	 16			; 00000010H
  00db4	10		 DB	 16			; 00000010H
  00db5	10		 DB	 16			; 00000010H
  00db6	10		 DB	 16			; 00000010H
  00db7	10		 DB	 16			; 00000010H
  00db8	10		 DB	 16			; 00000010H
  00db9	10		 DB	 16			; 00000010H
  00dba	10		 DB	 16			; 00000010H
  00dbb	10		 DB	 16			; 00000010H
  00dbc	10		 DB	 16			; 00000010H
  00dbd	10		 DB	 16			; 00000010H
  00dbe	10		 DB	 16			; 00000010H
  00dbf	10		 DB	 16			; 00000010H
  00dc0	10		 DB	 16			; 00000010H
  00dc1	10		 DB	 16			; 00000010H
  00dc2	10		 DB	 16			; 00000010H
  00dc3	10		 DB	 16			; 00000010H
  00dc4	10		 DB	 16			; 00000010H
  00dc5	0f		 DB	 15			; 0000000fH
  00dc6	66 90		 npad	 2
$LN231@DoUseItemS:
  00dc8	00 00 00 00	 DD	 $LN106@DoUseItemS
  00dcc	00 00 00 00	 DD	 $LN25@DoUseItemS
  00dd0	00 00 00 00	 DD	 $LN108@DoUseItemS
  00dd4	00 00 00 00	 DD	 $LN30@DoUseItemS
$LN233@DoUseItemS:
  00dd8	00 00 00 00	 DD	 $LN239@DoUseItemS
  00ddc	00 00 00 00	 DD	 $LN90@DoUseItemS
  00de0	00 00 00 00	 DD	 $LN44@DoUseItemS
  00de4	00 00 00 00	 DD	 $LN65@DoUseItemS
  00de8	00 00 00 00	 DD	 $LN109@DoUseItemS
  00dec	00 00 00 00	 DD	 $LN9@DoUseItemS
  00df0	00 00 00 00	 DD	 $LN15@DoUseItemS
  00df4	00 00 00 00	 DD	 $LN12@DoUseItemS
  00df8	00 00 00 00	 DD	 $LN18@DoUseItemS
  00dfc	00 00 00 00	 DD	 $LN87@DoUseItemS
$LN232@DoUseItemS:
  00e00	00		 DB	 0
  00e01	01		 DB	 1
  00e02	09		 DB	 9
  00e03	09		 DB	 9
  00e04	09		 DB	 9
  00e05	09		 DB	 9
  00e06	09		 DB	 9
  00e07	09		 DB	 9
  00e08	09		 DB	 9
  00e09	09		 DB	 9
  00e0a	09		 DB	 9
  00e0b	09		 DB	 9
  00e0c	09		 DB	 9
  00e0d	09		 DB	 9
  00e0e	09		 DB	 9
  00e0f	09		 DB	 9
  00e10	09		 DB	 9
  00e11	09		 DB	 9
  00e12	09		 DB	 9
  00e13	09		 DB	 9
  00e14	09		 DB	 9
  00e15	09		 DB	 9
  00e16	09		 DB	 9
  00e17	09		 DB	 9
  00e18	09		 DB	 9
  00e19	09		 DB	 9
  00e1a	09		 DB	 9
  00e1b	09		 DB	 9
  00e1c	09		 DB	 9
  00e1d	09		 DB	 9
  00e1e	09		 DB	 9
  00e1f	09		 DB	 9
  00e20	09		 DB	 9
  00e21	02		 DB	 2
  00e22	03		 DB	 3
  00e23	09		 DB	 9
  00e24	09		 DB	 9
  00e25	09		 DB	 9
  00e26	09		 DB	 9
  00e27	09		 DB	 9
  00e28	09		 DB	 9
  00e29	09		 DB	 9
  00e2a	09		 DB	 9
  00e2b	09		 DB	 9
  00e2c	09		 DB	 9
  00e2d	09		 DB	 9
  00e2e	09		 DB	 9
  00e2f	09		 DB	 9
  00e30	09		 DB	 9
  00e31	09		 DB	 9
  00e32	09		 DB	 9
  00e33	09		 DB	 9
  00e34	09		 DB	 9
  00e35	09		 DB	 9
  00e36	09		 DB	 9
  00e37	09		 DB	 9
  00e38	09		 DB	 9
  00e39	09		 DB	 9
  00e3a	09		 DB	 9
  00e3b	09		 DB	 9
  00e3c	09		 DB	 9
  00e3d	09		 DB	 9
  00e3e	09		 DB	 9
  00e3f	09		 DB	 9
  00e40	09		 DB	 9
  00e41	09		 DB	 9
  00e42	09		 DB	 9
  00e43	09		 DB	 9
  00e44	09		 DB	 9
  00e45	09		 DB	 9
  00e46	09		 DB	 9
  00e47	09		 DB	 9
  00e48	09		 DB	 9
  00e49	09		 DB	 9
  00e4a	09		 DB	 9
  00e4b	09		 DB	 9
  00e4c	09		 DB	 9
  00e4d	09		 DB	 9
  00e4e	09		 DB	 9
  00e4f	09		 DB	 9
  00e50	09		 DB	 9
  00e51	09		 DB	 9
  00e52	09		 DB	 9
  00e53	09		 DB	 9
  00e54	09		 DB	 9
  00e55	09		 DB	 9
  00e56	09		 DB	 9
  00e57	09		 DB	 9
  00e58	09		 DB	 9
  00e59	09		 DB	 9
  00e5a	09		 DB	 9
  00e5b	04		 DB	 4
  00e5c	04		 DB	 4
  00e5d	09		 DB	 9
  00e5e	09		 DB	 9
  00e5f	09		 DB	 9
  00e60	09		 DB	 9
  00e61	09		 DB	 9
  00e62	09		 DB	 9
  00e63	09		 DB	 9
  00e64	09		 DB	 9
  00e65	09		 DB	 9
  00e66	09		 DB	 9
  00e67	09		 DB	 9
  00e68	09		 DB	 9
  00e69	09		 DB	 9
  00e6a	09		 DB	 9
  00e6b	09		 DB	 9
  00e6c	09		 DB	 9
  00e6d	09		 DB	 9
  00e6e	09		 DB	 9
  00e6f	09		 DB	 9
  00e70	09		 DB	 9
  00e71	09		 DB	 9
  00e72	09		 DB	 9
  00e73	09		 DB	 9
  00e74	09		 DB	 9
  00e75	09		 DB	 9
  00e76	09		 DB	 9
  00e77	09		 DB	 9
  00e78	09		 DB	 9
  00e79	09		 DB	 9
  00e7a	09		 DB	 9
  00e7b	09		 DB	 9
  00e7c	09		 DB	 9
  00e7d	09		 DB	 9
  00e7e	09		 DB	 9
  00e7f	05		 DB	 5
  00e80	06		 DB	 6
  00e81	07		 DB	 7
  00e82	08		 DB	 8
?DoUseItemSystem@CMover@@QAEHPAUItemProp@@PAVCItemElem@@H@Z ENDP ; CMover::DoUseItemSystem
_TEXT	ENDS
; Function compile flags: /Ogtp
; File C:\IAGOS\server\v18\Source\Source\_Common\MoverSkill.cpp
; File C:\Program Files\Microsoft Visual Studio\2022\Professional\VC\Tools\MSVC\14.44.35207\include\xtree
; File C:\Program Files\Microsoft Visual Studio\2022\Professional\VC\Tools\MSVC\14.44.35207\include\type_traits
; File C:\Program Files\Microsoft Visual Studio\2022\Professional\VC\Tools\MSVC\14.44.35207\include\xtree
; File C:\Program Files\Microsoft Visual Studio\2022\Professional\VC\Tools\MSVC\14.44.35207\include\type_traits
; File C:\Program Files\Microsoft Visual Studio\2022\Professional\VC\Tools\MSVC\14.44.35207\include\xtree
; File C:\IAGOS\server\v18\Source\Source\_Common\Project.h
; File C:\IAGOS\server\v18\Source\Source\_Common\Obj.h
; File C:\IAGOS\server\v18\Source\Source\_Common\MoverSkill.cpp
; File C:\IAGOS\server\v18\Source\Source\_Common\Obj.h
; File C:\IAGOS\server\v18\Source\Source\_Common\MoverSkill.cpp
; File C:\IAGOS\server\v18\Source\Source\_Common\Obj.h
; File C:\IAGOS\server\v18\Source\Source\_Common\MoverSkill.cpp
; File C:\IAGOS\server\v18\Source\Source\_Common\Obj.h
; File C:\IAGOS\server\v18\Source\Source\_Common\MoverSkill.cpp
;	COMDAT ?DoUseItemWarp@CMover@@QAEHPAUItemProp@@PAVCItemElem@@@Z
_TEXT	SEGMENT
_lpszPlayer$1$ = -20					; size = 4
$T2 = -16						; size = 12
__$ArrayPad$ = -4					; size = 4
_pItemProp$ = 8						; size = 4
_pItemElem$ = 12					; size = 4
?DoUseItemWarp@CMover@@QAEHPAUItemProp@@PAVCItemElem@@@Z PROC ; CMover::DoUseItemWarp, COMDAT
; _this$ = ecx

; 4097 : {

  00000	55		 push	 ebp
  00001	8b ec		 mov	 ebp, esp
  00003	83 ec 14	 sub	 esp, 20			; 00000014H
  00006	a1 00 00 00 00	 mov	 eax, DWORD PTR ___security_cookie
  0000b	33 c5		 xor	 eax, ebp
  0000d	89 45 fc	 mov	 DWORD PTR __$ArrayPad$[ebp], eax

; 4098 : 	switch( pItemProp->dwID )

  00010	8b 45 08	 mov	 eax, DWORD PTR _pItemProp$[ebp]
  00013	56		 push	 esi
  00014	57		 push	 edi
  00015	8b 7d 0c	 mov	 edi, DWORD PTR _pItemElem$[ebp]
  00018	8b f1		 mov	 esi, ecx
  0001a	8b 00		 mov	 eax, DWORD PTR [eax]
  0001c	2d 10 0e 00 00	 sub	 eax, 3600		; 00000e10H
  00021	74 20		 je	 SHORT $LN4@DoUseItemW
  00023	83 e8 01	 sub	 eax, 1
  00026	74 1b		 je	 SHORT $LN4@DoUseItemW
  00028	2d f9 38 00 00	 sub	 eax, 14585		; 000038f9H
  0002d	74 14		 je	 SHORT $LN4@DoUseItemW

; 4195 : 			}
; 4196 : 		default:
; 4197 : 			break;
; 4198 : 	}
; 4199 : 	return FALSE;

  0002f	5f		 pop	 edi
  00030	33 c0		 xor	 eax, eax

; 4200 : }

  00032	5e		 pop	 esi
  00033	8b 4d fc	 mov	 ecx, DWORD PTR __$ArrayPad$[ebp]
  00036	33 cd		 xor	 ecx, ebp
  00038	e8 00 00 00 00	 call	 @__security_check_cookie@4
  0003d	8b e5		 mov	 esp, ebp
  0003f	5d		 pop	 ebp
  00040	c2 08 00	 ret	 8
$LN4@DoUseItemW:

; 4099 : 	{
; 4100 : 		case II_GEN_WARP_COUPLERING:
; 4101 : 		case II_GEN_WARP_WEDDING_BAND:
; 4102 : #if __VER >= 8 // __S_COUPLERING01
; 4103 : 		case II_GEN_WARP_COUPLERING01:
; 4104 : #endif // __VER >= 8
; 4105 : 			{
; 4106 : 				if( IsFly() )

  00043	8b 86 38 02 00
	00		 mov	 eax, DWORD PTR [esi+568]
  00049	53		 push	 ebx
  0004a	f6 40 08 08	 test	 BYTE PTR [eax+8], 8
  0004e	0f 85 b7 00 00
	00		 jne	 $LN112@DoUseItemW

; 4107 : 				{
; 4108 : 					return FALSE;
; 4109 : 				}
; 4110 : //				if( pItemElem->IsFlag( CItemElem::expired ) )
; 4111 : //				{
; 4112 : //					( (CUser*)this )->AddDefinedText( TID_GAME_ITEM_EXPIRED );
; 4113 : //					return FALSE;
; 4114 : //				}
; 4115 : 				u_long idCouple	= (u_long)( pItemElem->GetRandomOptItemId() );

  00054	8b 9f 90 00 00
	00		 mov	 ebx, DWORD PTR [edi+144]

; 4116 : 				if( idCouple == m_idPlayer )

  0005a	8b 86 34 02 00
	00		 mov	 eax, DWORD PTR [esi+564]
  00060	3b d8		 cmp	 ebx, eax
  00062	75 20		 jne	 SHORT $LN8@DoUseItemW

; 4117 : 				{
; 4118 : 					( (CUser*)this )->AddDefinedText( TID_GAME_COUPLERING_ERR01, "%s", GetName() );

  00064	6a 00		 push	 0
  00066	e8 00 00 00 00	 call	 ?GetName@CMover@@QAEPBDH@Z ; CMover::GetName
  0006b	50		 push	 eax
  0006c	68 00 00 00 00	 push	 OFFSET ??_C@_02DKCKIIND@?$CFs@
  00071	68 54 0b 00 00	 push	 2900			; 00000b54H
  00076	56		 push	 esi
  00077	e8 00 00 00 00	 call	 ?AddDefinedText@CUser@@QAAXHPBDZZ ; CUser::AddDefinedText
  0007c	83 c4 10	 add	 esp, 16			; 00000010H

; 4119 : 					return FALSE;

  0007f	e9 87 00 00 00	 jmp	 $LN112@DoUseItemW
$LN8@DoUseItemW:

; 4120 : 				}
; 4121 : 
; 4122 : 				if( idCouple > 0 )

  00084	85 db		 test	 ebx, ebx
  00086	0f 84 ef 01 00
	00		 je	 $LN9@DoUseItemW

; 4123 : 				{
; 4124 : 					// teleport
; 4125 : #if __VER >= 11 // __SYS_PLAYER_DATA
; 4126 : 					const char* lpszPlayer	= CPlayerDataCenter::GetInstance()->GetPlayerString( idCouple );

  0008c	53		 push	 ebx
  0008d	e8 00 00 00 00	 call	 ?GetInstance@CPlayerDataCenter@@SAPAV1@XZ ; CPlayerDataCenter::GetInstance
  00092	8b c8		 mov	 ecx, eax
  00094	e8 00 00 00 00	 call	 ?GetPlayerString@CPlayerDataCenter@@QAEPBDK@Z ; CPlayerDataCenter::GetPlayerString
  00099	89 45 ec	 mov	 DWORD PTR _lpszPlayer$1$[ebp], eax

; 4127 : #else	// __SYS_PLAYER_DATA
; 4128 : 					LPCSTR lpszPlayer	= prj.GetPlayerString( idCouple );
; 4129 : #endif	// __SYS_PLAYER_DATA
; 4130 : 					if( lpszPlayer )

  0009c	85 c0		 test	 eax, eax
  0009e	0f 84 23 02 00
	00		 je	 $LN10@DoUseItemW
; File C:\Program Files\Microsoft Visual Studio\2022\Professional\VC\Tools\MSVC\14.44.35207\include\xtree

; 1630 :         _Tree_find_result<_Nodeptr> _Result{{_Scary->_Myhead->_Parent, _Tree_child::_Right}, _Scary->_Myhead};

  000a4	8b 3d 28 00 00
	00		 mov	 edi, DWORD PTR ?prj@@3VCProject@@A+40
  000aa	8b d7		 mov	 edx, edi
  000ac	8b 4f 04	 mov	 ecx, DWORD PTR [edi+4]

; 1631 :         _Nodeptr _Trynode = _Result._Location._Parent;
; 1632 :         while (!_Trynode->_Isnil) {

  000af	80 79 0d 00	 cmp	 BYTE PTR [ecx+13], 0
  000b3	75 14		 jne	 SHORT $LN40@DoUseItemW
$LL39@DoUseItemW:
; File C:\Program Files\Microsoft Visual Studio\2022\Professional\VC\Tools\MSVC\14.44.35207\include\type_traits

; 2380 :         return _Left < _Right;

  000b5	39 59 10	 cmp	 DWORD PTR [ecx+16], ebx
; File C:\Program Files\Microsoft Visual Studio\2022\Professional\VC\Tools\MSVC\14.44.35207\include\xtree

; 1634 :             if (_DEBUG_LT_PRED(_Getcomp(), _Traits::_Kfn(_Trynode->_Myval), _Keyval)) {

  000b8	73 05		 jae	 SHORT $LN41@DoUseItemW

; 1635 :                 _Result._Location._Child = _Tree_child::_Right;
; 1636 :                 _Trynode                 = _Trynode->_Right;

  000ba	8b 49 08	 mov	 ecx, DWORD PTR [ecx+8]

; 1637 :             } else {

  000bd	eb 04		 jmp	 SHORT $LN42@DoUseItemW
$LN41@DoUseItemW:

; 1638 :                 _Result._Location._Child = _Tree_child::_Left;
; 1639 :                 _Result._Bound           = _Trynode;

  000bf	8b d1		 mov	 edx, ecx

; 1640 :                 _Trynode                 = _Trynode->_Left;

  000c1	8b 09		 mov	 ecx, DWORD PTR [ecx]
$LN42@DoUseItemW:

; 1631 :         _Nodeptr _Trynode = _Result._Location._Parent;
; 1632 :         while (!_Trynode->_Isnil) {

  000c3	80 79 0d 00	 cmp	 BYTE PTR [ecx+13], 0
  000c7	74 ec		 je	 SHORT $LL39@DoUseItemW
$LN40@DoUseItemW:

; 1624 :         return !_Bound->_Isnil && !_DEBUG_LT_PRED(_Getcomp(), _Keyval, _Traits::_Kfn(_Bound->_Myval));

  000c9	80 7a 0d 00	 cmp	 BYTE PTR [edx+13], 0
  000cd	75 05		 jne	 SHORT $LN36@DoUseItemW
; File C:\Program Files\Microsoft Visual Studio\2022\Professional\VC\Tools\MSVC\14.44.35207\include\type_traits

; 2380 :         return _Left < _Right;

  000cf	3b 5a 10	 cmp	 ebx, DWORD PTR [edx+16]
; File C:\Program Files\Microsoft Visual Studio\2022\Professional\VC\Tools\MSVC\14.44.35207\include\xtree

; 1624 :         return !_Bound->_Isnil && !_DEBUG_LT_PRED(_Getcomp(), _Keyval, _Traits::_Kfn(_Bound->_Myval));

  000d2	73 02		 jae	 SHORT $LN35@DoUseItemW
$LN36@DoUseItemW:

; 1389 :         return _Get_scary()->_Myhead;

  000d4	8b d7		 mov	 edx, edi
$LN35@DoUseItemW:

; 37   :     _Tree_unchecked_const_iterator(_Nodeptr _Pnode, const _Mytree* _Plist) noexcept : _Ptr(_Pnode) {

  000d6	3b d7		 cmp	 edx, edi
; File C:\IAGOS\server\v18\Source\Source\_Common\Project.h

; 1436 : 	if( i != m_idPlayerToUserPtr.end() )

  000d8	0f 84 71 01 00
	00		 je	 $LN12@DoUseItemW

; 1437 : 		return i->second;

  000de	8b 7a 14	 mov	 edi, DWORD PTR [edx+20]
; File C:\IAGOS\server\v18\Source\Source\_Common\Obj.h

; 327  : 	return pObj && ( pObj->IsDelete() == FALSE ); 

  000e1	85 ff		 test	 edi, edi
  000e3	0f 84 66 01 00
	00		 je	 $LN12@DoUseItemW

; 180  : 	BOOL			IsDelete()	{ return (m_dwFlags & OBJ_FLAG_DELETE);  }

  000e9	f6 47 04 01	 test	 BYTE PTR [edi+4], 1

; 327  : 	return pObj && ( pObj->IsDelete() == FALSE ); 

  000ed	0f 85 5c 01 00
	00		 jne	 $LN12@DoUseItemW
; File C:\IAGOS\server\v18\Source\Source\_Common\MoverSkill.cpp

; 4135 : 							if( pUser->IsFly() )

  000f3	8b 87 38 02 00
	00		 mov	 eax, DWORD PTR [edi+568]
  000f9	f6 40 08 08	 test	 BYTE PTR [eax+8], 8
  000fd	74 21		 je	 SHORT $LN14@DoUseItemW

; 4136 : 							{
; 4137 : 								( (CUser*)this )->AddDefinedText( TID_GAME_COUPLERING_ERR03 );

  000ff	68 59 0b 00 00	 push	 2905			; 00000b59H
$LN145@DoUseItemW:

; 4150 : 								return FALSE;

  00104	8b ce		 mov	 ecx, esi
  00106	e8 00 00 00 00	 call	 ?AddDefinedText@CUser@@QAEXH@Z ; CUser::AddDefinedText
$LN112@DoUseItemW:
  0010b	5b		 pop	 ebx
  0010c	5f		 pop	 edi
  0010d	33 c0		 xor	 eax, eax

; 4200 : }

  0010f	5e		 pop	 esi
  00110	8b 4d fc	 mov	 ecx, DWORD PTR __$ArrayPad$[ebp]
  00113	33 cd		 xor	 ecx, ebp
  00115	e8 00 00 00 00	 call	 @__security_check_cookie@4
  0011a	8b e5		 mov	 esp, ebp
  0011c	5d		 pop	 ebp
  0011d	c2 08 00	 ret	 8
$LN14@DoUseItemW:

; 4138 : 								return FALSE;
; 4139 : 							}
; 4140 : 							if( pUser->GetWorld() && pUser->GetWorld()->GetID() == WI_WORLD_GUILDWAR )

  00120	8b 8f 6c 01 00
	00		 mov	 ecx, DWORD PTR [edi+364]
  00126	85 c9		 test	 ecx, ecx
  00128	74 08		 je	 SHORT $LN108@DoUseItemW
  0012a	81 39 ca 00 00
	00		 cmp	 DWORD PTR [ecx], 202	; 000000caH
  00130	74 d9		 je	 SHORT $LN112@DoUseItemW
$LN108@DoUseItemW:

; 4141 : 								return FALSE;
; 4142 : 							if( GetWorld() && GetWorld()->GetID() == WI_WORLD_GUILDWAR )

  00132	8b 86 6c 01 00
	00		 mov	 eax, DWORD PTR [esi+364]
  00138	85 c0		 test	 eax, eax
  0013a	74 13		 je	 SHORT $LN109@DoUseItemW
  0013c	8b 00		 mov	 eax, DWORD PTR [eax]
  0013e	3d ca 00 00 00	 cmp	 eax, 202		; 000000caH
  00143	74 c6		 je	 SHORT $LN112@DoUseItemW

; 4143 : 								return FALSE;
; 4144 : #if __VER >= 11	// __GUILD_COMBAT_1TO1
; 4145 : 							if( GetWorld() && GetWorld()->GetID() >= WI_WORLD_GUILDWAR1TO1_0
; 4146 : 								          && GetWorld()->GetID() <= WI_WORLD_GUILDWAR1TO1_L )

  00145	05 0f ff ff ff	 add	 eax, -241		; ffffff0fH
  0014a	83 f8 03	 cmp	 eax, 3
  0014d	76 bc		 jbe	 SHORT $LN112@DoUseItemW
$LN109@DoUseItemW:

; 4147 : 								return FALSE;
; 4148 : 							if( pUser->GetWorld() && pUser->GetWorld()->GetID() >= WI_WORLD_GUILDWAR1TO1_0
; 4149 : 												&& pUser->GetWorld()->GetID() <= WI_WORLD_GUILDWAR1TO1_L )

  0014f	85 c9		 test	 ecx, ecx
  00151	74 0c		 je	 SHORT $LN110@DoUseItemW
  00153	8b 01		 mov	 eax, DWORD PTR [ecx]
  00155	2d f1 00 00 00	 sub	 eax, 241		; 000000f1H
  0015a	83 f8 03	 cmp	 eax, 3
  0015d	76 ac		 jbe	 SHORT $LN112@DoUseItemW
$LN110@DoUseItemW:

; 4151 : #endif // __GUILD_COMBAT_1TO1
; 4152 : #if __VER >= 13 // __RAINBOW_RACE
; 4153 : 							if( CRainbowRaceMng::GetInstance()->IsEntry( ((CUser*)this)->m_idPlayer )
; 4154 : 								|| CRainbowRaceMng::GetInstance()->IsEntry( idCouple ) )

  0015f	ff b6 34 02 00
	00		 push	 DWORD PTR [esi+564]
  00165	e8 00 00 00 00	 call	 ?GetInstance@CRainbowRaceMng@@SAPAV1@XZ ; CRainbowRaceMng::GetInstance
  0016a	8b c8		 mov	 ecx, eax
  0016c	e8 00 00 00 00	 call	 ?IsEntry@CRainbowRaceMng@@QAEHK@Z ; CRainbowRaceMng::IsEntry
  00171	85 c0		 test	 eax, eax
  00173	0f 85 cc 00 00
	00		 jne	 $LN20@DoUseItemW
  00179	53		 push	 ebx
  0017a	e8 00 00 00 00	 call	 ?GetInstance@CRainbowRaceMng@@SAPAV1@XZ ; CRainbowRaceMng::GetInstance
  0017f	8b c8		 mov	 ecx, eax
  00181	e8 00 00 00 00	 call	 ?IsEntry@CRainbowRaceMng@@QAEHK@Z ; CRainbowRaceMng::IsEntry
  00186	85 c0		 test	 eax, eax
  00188	0f 85 b7 00 00
	00		 jne	 $LN20@DoUseItemW

; 4167 : 								&& pUser->GetWorld()->GetID() != WI_WORLD_QUIZ

  0018e	8b 86 6c 01 00
	00		 mov	 eax, DWORD PTR [esi+364]
  00194	3b 87 6c 01 00
	00		 cmp	 eax, DWORD PTR [edi+364]
  0019a	75 7b		 jne	 SHORT $LN21@DoUseItemW
; File C:\IAGOS\server\v18\Source\Source\_Common\Obj.h

; 215  : 	D3DXVECTOR3		GetPos()	{ return m_vPos; }

  0019c	8b 87 68 01 00
	00		 mov	 eax, DWORD PTR [edi+360]
; File C:\IAGOS\server\v18\Source\Source\_Common\MoverSkill.cpp

; 4167 : 								&& pUser->GetWorld()->GetID() != WI_WORLD_QUIZ

  001a2	b9 00 00 00 00	 mov	 ecx, OFFSET ?prj@@3VCProject@@A ; prj
; File C:\IAGOS\server\v18\Source\Source\_Common\Obj.h

; 215  : 	D3DXVECTOR3		GetPos()	{ return m_vPos; }

  001a7	f3 0f 7e 87 60
	01 00 00	 movq	 xmm0, QWORD PTR [edi+352]
  001af	89 45 f8	 mov	 DWORD PTR $T2[ebp+8], eax
; File C:\IAGOS\server\v18\Source\Source\_Common\MoverSkill.cpp

; 4167 : 								&& pUser->GetWorld()->GetID() != WI_WORLD_QUIZ

  001b2	8d 45 f0	 lea	 eax, DWORD PTR $T2[ebp]
  001b5	50		 push	 eax
; File C:\IAGOS\server\v18\Source\Source\_Common\Obj.h

; 215  : 	D3DXVECTOR3		GetPos()	{ return m_vPos; }

  001b6	66 0f d6 45 f0	 movq	 QWORD PTR $T2[ebp], xmm0
; File C:\IAGOS\server\v18\Source\Source\_Common\MoverSkill.cpp

; 4167 : 								&& pUser->GetWorld()->GetID() != WI_WORLD_QUIZ

  001bb	e8 00 00 00 00	 call	 ?IsGuildQuestRegion@CProject@@QAEHABUD3DXVECTOR3@@@Z ; CProject::IsGuildQuestRegion
  001c0	85 c0		 test	 eax, eax
  001c2	75 53		 jne	 SHORT $LN21@DoUseItemW
  001c4	8b 86 b8 01 00
	00		 mov	 eax, DWORD PTR [esi+440]
  001ca	3b 87 b8 01 00
	00		 cmp	 eax, DWORD PTR [edi+440]
  001d0	75 45		 jne	 SHORT $LN21@DoUseItemW
  001d2	8b 86 6c 01 00
	00		 mov	 eax, DWORD PTR [esi+364]
  001d8	81 38 d3 00 00
	00		 cmp	 DWORD PTR [eax], 211	; 000000d3H
  001de	74 37		 je	 SHORT $LN21@DoUseItemW
  001e0	8b 87 6c 01 00
	00		 mov	 eax, DWORD PTR [edi+364]
  001e6	81 38 d3 00 00
	00		 cmp	 DWORD PTR [eax], 211	; 000000d3H
  001ec	74 29		 je	 SHORT $LN21@DoUseItemW

; 4168 : #endif // __QUIZ
; 4169 : 								)
; 4170 : 							{
; 4171 : 								 g_DPCoreClient.SendTeleportPlayer( m_idPlayer, idCouple );

  001ee	53		 push	 ebx
  001ef	ff b6 34 02 00
	00		 push	 DWORD PTR [esi+564]
  001f5	b9 00 00 00 00	 mov	 ecx, OFFSET ?g_DPCoreClient@@3VCDPCoreClient@@A ; g_DPCoreClient
  001fa	e8 00 00 00 00	 call	 ?SendTeleportPlayer@CDPCoreClient@@QAEXKK@Z ; CDPCoreClient::SendTeleportPlayer
  001ff	5b		 pop	 ebx
  00200	5f		 pop	 edi

; 4193 : 				}
; 4194 : 				return TRUE;

  00201	b8 01 00 00 00	 mov	 eax, 1

; 4200 : }

  00206	5e		 pop	 esi
  00207	8b 4d fc	 mov	 ecx, DWORD PTR __$ArrayPad$[ebp]
  0020a	33 cd		 xor	 ecx, ebp
  0020c	e8 00 00 00 00	 call	 @__security_check_cookie@4
  00211	8b e5		 mov	 esp, ebp
  00213	5d		 pop	 ebp
  00214	c2 08 00	 ret	 8
$LN21@DoUseItemW:

; 4172 : 							}
; 4173 : 							else
; 4174 : 							{
; 4175 : 								( (CUser*)this )->AddDefinedText( TID_GAME_COUPLERING_ERR02, "%s", lpszPlayer );

  00217	ff 75 ec	 push	 DWORD PTR _lpszPlayer$1$[ebp]
  0021a	68 00 00 00 00	 push	 OFFSET ??_C@_02DKCKIIND@?$CFs@
  0021f	68 58 0b 00 00	 push	 2904			; 00000b58H

; 4193 : 				}
; 4194 : 				return TRUE;

  00224	56		 push	 esi
  00225	e8 00 00 00 00	 call	 ?AddDefinedText@CUser@@QAAXHPBDZZ ; CUser::AddDefinedText
  0022a	83 c4 10	 add	 esp, 16			; 00000010H
  0022d	b8 01 00 00 00	 mov	 eax, 1
  00232	5b		 pop	 ebx
  00233	5f		 pop	 edi

; 4200 : }

  00234	5e		 pop	 esi
  00235	8b 4d fc	 mov	 ecx, DWORD PTR __$ArrayPad$[ebp]
  00238	33 cd		 xor	 ecx, ebp
  0023a	e8 00 00 00 00	 call	 @__security_check_cookie@4
  0023f	8b e5		 mov	 esp, ebp
  00241	5d		 pop	 ebp
  00242	c2 08 00	 ret	 8
$LN20@DoUseItemW:

; 4155 : 							{
; 4156 : 								((CUser*)this)->AddDefinedText( TID_GAME_RAINBOWRACE_NOTELEPORT );

  00245	68 c1 0f 00 00	 push	 4033			; 00000fc1H

; 4157 : 								return FALSE;

  0024a	e9 b5 fe ff ff	 jmp	 $LN145@DoUseItemW
$LN12@DoUseItemW:

; 4176 : 							}
; 4177 : 						}
; 4178 : 						else
; 4179 : 							( (CUser*)this )->AddDefinedText( TID_DIAG_0061, "%s", lpszPlayer );

  0024f	50		 push	 eax
  00250	68 00 00 00 00	 push	 OFFSET ??_C@_02DKCKIIND@?$CFs@
  00255	68 0c 08 00 00	 push	 2060			; 0000080cH

; 4193 : 				}
; 4194 : 				return TRUE;

  0025a	56		 push	 esi
  0025b	e8 00 00 00 00	 call	 ?AddDefinedText@CUser@@QAAXHPBDZZ ; CUser::AddDefinedText
  00260	83 c4 10	 add	 esp, 16			; 00000010H
  00263	b8 01 00 00 00	 mov	 eax, 1
  00268	5b		 pop	 ebx
  00269	5f		 pop	 edi

; 4200 : }

  0026a	5e		 pop	 esi
  0026b	8b 4d fc	 mov	 ecx, DWORD PTR __$ArrayPad$[ebp]
  0026e	33 cd		 xor	 ecx, ebp
  00270	e8 00 00 00 00	 call	 @__security_check_cookie@4
  00275	8b e5		 mov	 esp, ebp
  00277	5d		 pop	 ebp
  00278	c2 08 00	 ret	 8
$LN9@DoUseItemW:

; 4180 : 					}
; 4181 : 				}
; 4182 : 				else
; 4183 : 				{
; 4184 : 					// carve
; 4185 : #if __VER >= 11 // __SYS_IDENTIFY
; 4186 : 					UpdateItemEx( (BYTE)( pItemElem->m_dwObjId ), UI_RANDOMOPTITEMID, (__int64)m_idPlayer );

  0027b	6a 00		 push	 0
  0027d	50		 push	 eax
  0027e	0f b6 47 04	 movzx	 eax, BYTE PTR [edi+4]
  00282	6a 0a		 push	 10			; 0000000aH
  00284	50		 push	 eax
  00285	e8 00 00 00 00	 call	 ?UpdateItemEx@CMover@@QAEXED_J@Z ; CMover::UpdateItemEx

; 4187 : #else	// __SYS_IDENTIFY
; 4188 : 					UpdateItem( (BYTE)( pItemElem->m_dwObjId ), UI_RANDOMOPTITEMID, m_idPlayer );
; 4189 : #endif	// __SYS_IDENTIFY
; 4190 : 					if( II_GEN_WARP_COUPLERING == pItemProp->dwID )

  0028a	8b 45 08	 mov	 eax, DWORD PTR _pItemProp$[ebp]
  0028d	81 38 10 0e 00
	00		 cmp	 DWORD PTR [eax], 3600	; 00000e10H
  00293	75 15		 jne	 SHORT $LN23@DoUseItemW

; 4191 : 						UpdateItem( (BYTE)( pItemElem->m_dwObjId ), UI_KEEPTIME, 21600 );	// 15 days

  00295	0f b6 47 04	 movzx	 eax, BYTE PTR [edi+4]
  00299	8b ce		 mov	 ecx, esi
  0029b	6a 00		 push	 0
  0029d	68 60 54 00 00	 push	 21600			; 00005460H
  002a2	6a 0b		 push	 11			; 0000000bH
  002a4	50		 push	 eax
  002a5	e8 00 00 00 00	 call	 ?UpdateItem@CMover@@QAEXEDKK@Z ; CMover::UpdateItem
$LN23@DoUseItemW:

; 4192 : 					( (CUser*)this )->AddDefinedText( TID_GAME_COUPLERING_CARVE, "%s", GetName() );

  002aa	6a 00		 push	 0
  002ac	8b ce		 mov	 ecx, esi
  002ae	e8 00 00 00 00	 call	 ?GetName@CMover@@QAEPBDH@Z ; CMover::GetName
  002b3	50		 push	 eax
  002b4	68 00 00 00 00	 push	 OFFSET ??_C@_02DKCKIIND@?$CFs@
  002b9	68 55 0b 00 00	 push	 2901			; 00000b55H

; 4193 : 				}
; 4194 : 				return TRUE;

  002be	56		 push	 esi
  002bf	e8 00 00 00 00	 call	 ?AddDefinedText@CUser@@QAAXHPBDZZ ; CUser::AddDefinedText
  002c4	83 c4 10	 add	 esp, 16			; 00000010H
$LN10@DoUseItemW:

; 4200 : }

  002c7	8b 4d fc	 mov	 ecx, DWORD PTR __$ArrayPad$[ebp]
  002ca	b8 01 00 00 00	 mov	 eax, 1
  002cf	5b		 pop	 ebx
  002d0	5f		 pop	 edi
  002d1	33 cd		 xor	 ecx, ebp
  002d3	5e		 pop	 esi
  002d4	e8 00 00 00 00	 call	 @__security_check_cookie@4
  002d9	8b e5		 mov	 esp, ebp
  002db	5d		 pop	 ebp
  002dc	c2 08 00	 ret	 8
?DoUseItemWarp@CMover@@QAEHPAUItemProp@@PAVCItemElem@@@Z ENDP ; CMover::DoUseItemWarp
_TEXT	ENDS
; Function compile flags: /Ogtp
; File C:\IAGOS\server\v18\Source\Source\_Common\MoverSkill.cpp
;	COMDAT ?DoUseItemFood@CMover@@QAEHPAUItemProp@@PAVCItemElem@@@Z
_TEXT	SEGMENT
_nMax$1$ = -12						; size = 4
tv414 = -12						; size = 4
_nPoint$1$ = -8						; size = 4
_i$1$ = -4						; size = 4
_pItemProp$ = 8						; size = 4
_pItemElem$ = 12					; size = 4
?DoUseItemFood@CMover@@QAEHPAUItemProp@@PAVCItemElem@@@Z PROC ; CMover::DoUseItemFood, COMDAT
; _this$ = ecx

; 3347 : {

  00000	55		 push	 ebp
  00001	8b ec		 mov	 ebp, esp
  00003	83 ec 0c	 sub	 esp, 12			; 0000000cH
  00006	53		 push	 ebx

; 3348 : #ifdef __WORLDSERVER
; 3349 : 	if( pItemProp->dwID == II_GEN_FOO_INS_SUPERHOTDOG )

  00007	8b 5d 08	 mov	 ebx, DWORD PTR _pItemProp$[ebp]
  0000a	57		 push	 edi
  0000b	8b f9		 mov	 edi, ecx
  0000d	81 3b 0a 0b 00
	00		 cmp	 DWORD PTR [ebx], 2826	; 00000b0aH
  00013	75 44		 jne	 SHORT $LN7@DoUseItemF

; 3350 : 	{
; 3351 : 		SetPointParam( DST_HP, GetMaxHitPoint() );

  00015	6a 00		 push	 0
  00017	e8 00 00 00 00	 call	 ?GetMaxHitPoint@CMover@@QAEHXZ ; CMover::GetMaxHitPoint
  0001c	50		 push	 eax
  0001d	6a 26		 push	 38			; 00000026H
  0001f	8b cf		 mov	 ecx, edi
  00021	e8 00 00 00 00	 call	 ?SetPointParam@CMover@@QAEXHHH@Z ; CMover::SetPointParam

; 3352 : 		SetPointParam( DST_MP, GetMaxManaPoint() );

  00026	6a 00		 push	 0
  00028	8b cf		 mov	 ecx, edi
  0002a	e8 00 00 00 00	 call	 ?GetMaxManaPoint@CMover@@QAEHXZ ; CMover::GetMaxManaPoint
  0002f	50		 push	 eax
  00030	6a 27		 push	 39			; 00000027H
  00032	8b cf		 mov	 ecx, edi
  00034	e8 00 00 00 00	 call	 ?SetPointParam@CMover@@QAEXHHH@Z ; CMover::SetPointParam

; 3353 : 		SetPointParam( DST_FP, GetMaxFatiguePoint() );

  00039	6a 00		 push	 0
  0003b	8b cf		 mov	 ecx, edi
  0003d	e8 00 00 00 00	 call	 ?GetMaxFatiguePoint@CMover@@QAEHXZ ; CMover::GetMaxFatiguePoint
  00042	50		 push	 eax
  00043	6a 28		 push	 40			; 00000028H
  00045	8b cf		 mov	 ecx, edi
  00047	e8 00 00 00 00	 call	 ?SetPointParam@CMover@@QAEXHHH@Z ; CMover::SetPointParam
  0004c	5f		 pop	 edi

; 3354 : 		return TRUE;

  0004d	b8 01 00 00 00	 mov	 eax, 1

; 3426 : }

  00052	5b		 pop	 ebx
  00053	8b e5		 mov	 esp, ebp
  00055	5d		 pop	 ebp
  00056	c2 08 00	 ret	 8
$LN7@DoUseItemF:

; 3355 : 	}
; 3356 : 
; 3357 : 	int nPoint;
; 3358 : 	int nMax, nHP, nHPMax;
; 3359 : #ifdef __PROP_0827
; 3360 : 	for( int i = 0; i < 3; i ++ )

  00059	c7 45 fc 00 00
	00 00		 mov	 DWORD PTR _i$1$[ebp], 0
  00060	81 c3 40 01 00
	00		 add	 ebx, 320		; 00000140H
  00066	56		 push	 esi
  00067	66 0f 1f 84 00
	00 00 00 00	 npad	 9
$LL4@DoUseItemF:

; 3361 : #else	// __PROP_0827
; 3362 : 	for( int i = 0; i < 2; i ++ )
; 3363 : #endif	// __PROP_0827
; 3364 : 	{
; 3365 : 		if( pItemProp->dwDestParam[i] != (DWORD)-1 )

  00070	8b 03		 mov	 eax, DWORD PTR [ebx]
  00072	83 f8 ff	 cmp	 eax, -1
  00075	0f 84 1c 01 00
	00		 je	 $LN2@DoUseItemF

; 3366 : 		{
; 3367 : 			nHP	   = GetPointParam( pItemProp->dwDestParam[i] );

  0007b	50		 push	 eax
  0007c	8b cf		 mov	 ecx, edi
  0007e	e8 00 00 00 00	 call	 ?GetPointParam@CMover@@QAEHH@Z ; CMover::GetPointParam

; 3368 : 			nPoint = pItemProp->nAdjParamVal[i];
; 3369 : 			nHPMax = GetMaxPoint( pItemProp->dwDestParam[i]);

  00083	ff 33		 push	 DWORD PTR [ebx]
  00085	8b f0		 mov	 esi, eax
  00087	8b cf		 mov	 ecx, edi
  00089	8b 43 0c	 mov	 eax, DWORD PTR [ebx+12]
  0008c	89 45 f8	 mov	 DWORD PTR _nPoint$1$[ebp], eax
  0008f	e8 00 00 00 00	 call	 ?GetMaxPoint@CMover@@QAEHH@Z ; CMover::GetMaxPoint

; 3370 : 			nMax   = pItemProp->dwAbilityMin;

  00094	8b 55 08	 mov	 edx, DWORD PTR _pItemProp$[ebp]

; 3371 : 			
; 3372 : 			if( pItemProp->dwCircleTime != -1)	// ŔŻ·áľĆŔĚĹŰ¸¸ dwCircleTimeŔ¸·Î ´Ů ˝č´ő¶ó....

  00097	83 ba bc 01 00
	00 ff		 cmp	 DWORD PTR [edx+444], -1
  0009e	8b 8a e4 00 00
	00		 mov	 ecx, DWORD PTR [edx+228]
  000a4	89 4d f4	 mov	 DWORD PTR _nMax$1$[ebp], ecx
  000a7	74 1c		 je	 SHORT $LN9@DoUseItemF

; 3373 : 			{
; 3374 : 				BOOL bRet = DoUseItemFood_SM( pItemProp, pItemElem );

  000a9	ff 75 0c	 push	 DWORD PTR _pItemElem$[ebp]
  000ac	8b cf		 mov	 ecx, edi
  000ae	52		 push	 edx
  000af	e8 00 00 00 00	 call	 ?DoUseItemFood_SM@CMover@@QAEHPAUItemProp@@PAVCItemElem@@@Z ; CMover::DoUseItemFood_SM

; 3375 : 				if( bRet == FALSE )	return FALSE;

  000b4	85 c0		 test	 eax, eax
  000b6	0f 85 db 00 00
	00		 jne	 $LN2@DoUseItemF

; 3426 : }

  000bc	5e		 pop	 esi
  000bd	5f		 pop	 edi
  000be	5b		 pop	 ebx
  000bf	8b e5		 mov	 esp, ebp
  000c1	5d		 pop	 ebp
  000c2	c2 08 00	 ret	 8
$LN9@DoUseItemF:

; 3376 : 			}
; 3377 : 			else
; 3378 : 			{
; 3379 : 				if( pItemProp->dwDestParam[i] == DST_HP || pItemProp->dwDestParam[i] == DST_MP || pItemProp->dwDestParam[i] == DST_FP )

  000c5	8b 0b		 mov	 ecx, DWORD PTR [ebx]
  000c7	83 f9 26	 cmp	 ecx, 38			; 00000026H
  000ca	74 22		 je	 SHORT $LN14@DoUseItemF
  000cc	83 f9 27	 cmp	 ecx, 39			; 00000027H
  000cf	74 1d		 je	 SHORT $LN14@DoUseItemF
  000d1	83 f9 28	 cmp	 ecx, 40			; 00000028H
  000d4	74 18		 je	 SHORT $LN14@DoUseItemF

; 3415 : 				} // DST_HP, MP, FP
; 3416 : 				else
; 3417 : 				{
; 3418 : 					DoApplySkill( this, pItemProp, NULL );

  000d6	6a 00		 push	 0
  000d8	6a 00		 push	 0
  000da	6a 00		 push	 0
  000dc	6a 00		 push	 0
  000de	6a 00		 push	 0
  000e0	52		 push	 edx
  000e1	57		 push	 edi
  000e2	8b cf		 mov	 ecx, edi
  000e4	e8 00 00 00 00	 call	 ?DoApplySkill@CCtrl@@QAEHPAV1@PAUItemProp@@PAUAddSkillProp@@_NHHH@Z ; CCtrl::DoApplySkill
  000e9	e9 a9 00 00 00	 jmp	 $LN2@DoUseItemF
$LN14@DoUseItemF:

; 3380 : 				{
; 3381 : 					if( nPoint != -1 )

  000ee	8b 55 f8	 mov	 edx, DWORD PTR _nPoint$1$[ebp]
  000f1	83 fa ff	 cmp	 edx, -1
  000f4	0f 84 92 00 00
	00		 je	 $LN24@DoUseItemF

; 3382 : 					{
; 3383 : 						if( nHP >= nMax )

  000fa	3b 75 f4	 cmp	 esi, DWORD PTR _nMax$1$[ebp]
  000fd	0f 8c 81 00 00
	00		 jl	 $LN16@DoUseItemF

; 3384 : 						{
; 3385 : 							if( nHP + (nPoint * 0.3f) >= nHPMax )

  00103	66 0f 6e d2	 movd	 xmm2, edx
  00107	0f 5b d2	 cvtdq2ps xmm2, xmm2
  0010a	66 0f 6e c6	 movd	 xmm0, esi
  0010e	0f 5b c0	 cvtdq2ps xmm0, xmm0
  00111	0f 28 ca	 movaps	 xmm1, xmm2
  00114	f3 0f 11 55 f4	 movss	 DWORD PTR tv414[ebp], xmm2
  00119	f3 0f 59 0d 00
	00 00 00	 mulss	 xmm1, DWORD PTR __real@3e99999a
  00121	f3 0f 58 c8	 addss	 xmm1, xmm0
  00125	66 0f 6e c0	 movd	 xmm0, eax
  00129	0f 5b c0	 cvtdq2ps xmm0, xmm0
  0012c	0f 2f c8	 comiss	 xmm1, xmm0
  0012f	73 59		 jae	 SHORT $LN48@DoUseItemF

; 3386 : 								nHP = nHPMax;
; 3387 : 							else
; 3388 : 							{
; 3389 : 								if( TRUE == IsPlayer() )

  00131	83 bf 30 02 00
	00 01		 cmp	 DWORD PTR [edi+560], 1
  00138	75 3a		 jne	 SHORT $LN20@DoUseItemF

; 3390 : 								{
; 3391 : 									DWORD dwParam = 0;

  0013a	33 c0		 xor	 eax, eax

; 3392 : 									switch( pItemProp->dwDestParam[i] )

  0013c	83 e9 26	 sub	 ecx, 38			; 00000026H
  0013f	74 18		 je	 SHORT $LN21@DoUseItemF
  00141	83 e9 01	 sub	 ecx, 1
  00144	74 0c		 je	 SHORT $LN22@DoUseItemF
  00146	83 e9 01	 sub	 ecx, 1
  00149	75 13		 jne	 SHORT $LN5@DoUseItemF

; 3396 : 									case DST_FP:	dwParam = TID_GAME_LIMITFP;		break;

  0014b	b8 6e 09 00 00	 mov	 eax, 2414		; 0000096eH
  00150	eb 0c		 jmp	 SHORT $LN5@DoUseItemF
$LN22@DoUseItemF:

; 3395 : 									case DST_MP:	dwParam = TID_GAME_LIMITMP;		break;

  00152	b8 66 02 00 00	 mov	 eax, 614		; 00000266H
  00157	eb 05		 jmp	 SHORT $LN5@DoUseItemF
$LN21@DoUseItemF:

; 3393 : 									{
; 3394 : 									case DST_HP:	dwParam = TID_GAME_LIMITHP;		break;

  00159	b8 65 02 00 00	 mov	 eax, 613		; 00000265H
$LN5@DoUseItemF:

; 3397 : 									}
; 3398 : 									
; 3399 : 									((CUser*)this)->AddDefinedText( dwParam, "" );

  0015e	68 00 00 00 00	 push	 OFFSET ??_C@_00CNPNBAHC@@
  00163	50		 push	 eax
  00164	57		 push	 edi
  00165	e8 00 00 00 00	 call	 ?AddDefinedText@CUser@@QAAXHPBDZZ ; CUser::AddDefinedText
  0016a	8b 0b		 mov	 ecx, DWORD PTR [ebx]
  0016c	83 c4 0c	 add	 esp, 12			; 0000000cH
  0016f	f3 0f 10 55 f4	 movss	 xmm2, DWORD PTR tv414[ebp]
$LN20@DoUseItemF:

; 3400 : 								}
; 3401 : 								nPoint = (int)( nPoint * 0.3f );

  00174	f3 0f 59 15 00
	00 00 00	 mulss	 xmm2, DWORD PTR __real@3e99999a
  0017c	f3 0f 2c c2	 cvttss2si eax, xmm2

; 3402 : 								nHP = nHP + nPoint;

  00180	03 f0		 add	 esi, eax

; 3403 : 							}
; 3404 : 						}

  00182	eb 08		 jmp	 SHORT $LN24@DoUseItemF
$LN16@DoUseItemF:

; 3405 : 						else
; 3406 : 						{
; 3407 : 							if( nHP + nPoint >= nHPMax )	// Ć÷ŔÎĆ® ´őÇßŔ»¶§ żŔąŮµÇ´Â°É Ăł¸®.

  00184	03 f2		 add	 esi, edx
  00186	3b f0		 cmp	 esi, eax
  00188	7c 02		 jl	 SHORT $LN24@DoUseItemF
$LN48@DoUseItemF:

; 3408 : 								nHP = nHPMax;
; 3409 : 							else
; 3410 : 								nHP = nHP + nPoint;
; 3411 : 						}
; 3412 : 					}
; 3413 : 					
; 3414 : 					SetPointParam( pItemProp->dwDestParam[i], nHP );

  0018a	8b f0		 mov	 esi, eax
$LN24@DoUseItemF:
  0018c	6a 00		 push	 0
  0018e	56		 push	 esi
  0018f	51		 push	 ecx
  00190	8b cf		 mov	 ecx, edi
  00192	e8 00 00 00 00	 call	 ?SetPointParam@CMover@@QAEXHHH@Z ; CMover::SetPointParam
$LN2@DoUseItemF:

; 3355 : 	}
; 3356 : 
; 3357 : 	int nPoint;
; 3358 : 	int nMax, nHP, nHPMax;
; 3359 : #ifdef __PROP_0827
; 3360 : 	for( int i = 0; i < 3; i ++ )

  00197	8b 45 fc	 mov	 eax, DWORD PTR _i$1$[ebp]
  0019a	83 c3 04	 add	 ebx, 4
  0019d	40		 inc	 eax
  0019e	89 45 fc	 mov	 DWORD PTR _i$1$[ebp], eax
  001a1	83 f8 03	 cmp	 eax, 3
  001a4	0f 8c c6 fe ff
	ff		 jl	 $LL4@DoUseItemF

; 3419 : 				}
; 3420 : 			}
; 3421 : 		}
; 3422 : 	} // for
; 3423 : #endif // worldserver
; 3424 : 	
; 3425 : 	return TRUE;

  001aa	5e		 pop	 esi
  001ab	5f		 pop	 edi
  001ac	b8 01 00 00 00	 mov	 eax, 1

; 3426 : }

  001b1	5b		 pop	 ebx
  001b2	8b e5		 mov	 esp, ebp
  001b4	5d		 pop	 ebp
  001b5	c2 08 00	 ret	 8
?DoUseItemFood@CMover@@QAEHPAUItemProp@@PAVCItemElem@@@Z ENDP ; CMover::DoUseItemFood
_TEXT	ENDS
; Function compile flags: /Ogtp
; File C:\IAGOS\server\v18\Source\Source\_Common\MoverSkill.cpp
; File C:\IAGOS\server\v18\Source\Source\_Common\Mover.h
; File C:\IAGOS\server\v18\Source\Source\_Common\MoverSkill.cpp
; File C:\IAGOS\server\v18\Source\Source\_Common\Mover.h
; File C:\IAGOS\server\v18\Source\Source\_Common\MoverSkill.cpp
;	COMDAT ?DoUseItemFood_SM@CMover@@QAEHPAUItemProp@@PAVCItemElem@@@Z
_TEXT	SEGMENT
_pItemProp$ = 8						; size = 4
_pItemElem$ = 12					; size = 4
?DoUseItemFood_SM@CMover@@QAEHPAUItemProp@@PAVCItemElem@@@Z PROC ; CMover::DoUseItemFood_SM, COMDAT
; _this$ = ecx

; 3313 : {

  00000	55		 push	 ebp
  00001	8b ec		 mov	 ebp, esp
  00003	57		 push	 edi
  00004	8b f9		 mov	 edi, ecx
; File C:\IAGOS\server\v18\Source\Source\_Common\Mover.h

; 1457 : 	BOOL			IsSMMode( int nType ) { return ( m_dwSMTime[nType] > 0 ) ? TRUE : FALSE; }

  00006	83 bf 1c 03 00
	00 00		 cmp	 DWORD PTR [edi+796], 0
; File C:\IAGOS\server\v18\Source\Source\_Common\MoverSkill.cpp

; 3315 : 	if( !( IsSMMode( SM_MAX_HP ) || IsSMMode( SM_MAX_HP50 ) ) )		// MAXHP ąöÇÁ°ˇ ľřŔ»¶§¸¸ »çżëµĘ.

  0000d	0f 87 82 00 00
	00		 ja	 $LN2@DoUseItemF
; File C:\IAGOS\server\v18\Source\Source\_Common\Mover.h

; 1457 : 	BOOL			IsSMMode( int nType ) { return ( m_dwSMTime[nType] > 0 ) ? TRUE : FALSE; }

  00013	83 bf 20 03 00
	00 00		 cmp	 DWORD PTR [edi+800], 0
; File C:\IAGOS\server\v18\Source\Source\_Common\MoverSkill.cpp

; 3315 : 	if( !( IsSMMode( SM_MAX_HP ) || IsSMMode( SM_MAX_HP50 ) ) )		// MAXHP ąöÇÁ°ˇ ľřŔ»¶§¸¸ »çżëµĘ.

  0001a	77 79		 ja	 SHORT $LN2@DoUseItemF

; 3316 : 	{
; 3317 : 		DWORD nAdjParamVal;
; 3318 : 		int nType;
; 3319 : 		if( pItemProp->dwID == II_CHR_FOO_COO_BULLHAMS )

  0001c	53		 push	 ebx
  0001d	8b 5d 08	 mov	 ebx, DWORD PTR _pItemProp$[ebp]
  00020	56		 push	 esi
  00021	8b 03		 mov	 eax, DWORD PTR [ebx]
  00023	3d e1 27 00 00	 cmp	 eax, 10209		; 000027e1H
  00028	75 0d		 jne	 SHORT $LN4@DoUseItemF

; 3320 : 		{
; 3321 : 			nAdjParamVal = pItemProp->nAdjParamVal2;

  0002a	8b 83 50 01 00
	00		 mov	 eax, DWORD PTR [ebx+336]

; 3322 : 			nType = SM_MAX_HP;

  00030	be 08 00 00 00	 mov	 esi, 8

; 3323 : 		}

  00035	eb 2a		 jmp	 SHORT $LN7@DoUseItemF
$LN4@DoUseItemF:

; 3324 : 		else
; 3325 : 		if( pItemProp->dwID == II_CHR_FOO_COO_GRILLEDEEL )

  00037	3d e2 27 00 00	 cmp	 eax, 10210		; 000027e2H
  0003c	75 4e		 jne	 SHORT $LN6@DoUseItemF

; 3326 : 		{
; 3327 : 			m_nPlusMaxHitPoint = nAdjParamVal = int( GetMaxOriginHitPoint() / ( 100 / pItemProp->nAdjParamVal1 ) );

  0003e	b8 64 00 00 00	 mov	 eax, 100		; 00000064H
  00043	99		 cdq
  00044	f7 bb 4c 01 00
	00		 idiv	 DWORD PTR [ebx+332]
  0004a	6a 01		 push	 1
  0004c	8b f0		 mov	 esi, eax
  0004e	e8 00 00 00 00	 call	 ?GetMaxOriginHitPoint@CMover@@QAEHH@Z ; CMover::GetMaxOriginHitPoint
  00053	99		 cdq
  00054	f7 fe		 idiv	 esi

; 3328 : 			nType = SM_MAX_HP50;

  00056	be 09 00 00 00	 mov	 esi, 9
  0005b	89 87 b0 06 00
	00		 mov	 DWORD PTR [edi+1712], eax
$LN7@DoUseItemF:

; 3332 : 			
; 3333 : 		SetDestParam( pItemProp->dwDestParam1, nAdjParamVal, nAdjParamVal );

  00061	6a 01		 push	 1
  00063	50		 push	 eax
  00064	50		 push	 eax
  00065	ff b3 40 01 00
	00		 push	 DWORD PTR [ebx+320]
  0006b	8b cf		 mov	 ecx, edi
  0006d	e8 00 00 00 00	 call	 ?SetDestParam@CMover@@QAEXHHHH@Z ; CMover::SetDestParam

; 3334 : 		SetSMMode( nType, pItemProp->dwCircleTime );

  00072	ff b3 bc 01 00
	00		 push	 DWORD PTR [ebx+444]
  00078	8b cf		 mov	 ecx, edi
  0007a	56		 push	 esi
  0007b	e8 00 00 00 00	 call	 ?SetSMMode@CMover@@QAEHHK@Z ; CMover::SetSMMode
  00080	5e		 pop	 esi
  00081	5b		 pop	 ebx

; 3340 : 	}
; 3341 : #endif
; 3342 : 	return TRUE;

  00082	b8 01 00 00 00	 mov	 eax, 1
  00087	5f		 pop	 edi

; 3343 : }

  00088	5d		 pop	 ebp
  00089	c2 08 00	 ret	 8
$LN6@DoUseItemF:
  0008c	5e		 pop	 esi
  0008d	5b		 pop	 ebx

; 3329 : 		}
; 3330 : 		else
; 3331 : 			return FALSE;

  0008e	33 c0		 xor	 eax, eax
  00090	5f		 pop	 edi

; 3343 : }

  00091	5d		 pop	 ebp
  00092	c2 08 00	 ret	 8
$LN2@DoUseItemF:

; 3335 : 	}
; 3336 : 	else
; 3337 : 	{
; 3338 : 		((CUser*)this)->AddDefinedText( TID_GAME_LIMITED_USE, "" );	// »çżëÁßŔÎ »óżë ľĆŔĚĹŰ

  00095	68 00 00 00 00	 push	 OFFSET ??_C@_00CNPNBAHC@@
  0009a	68 30 08 00 00	 push	 2096			; 00000830H
  0009f	57		 push	 edi
  000a0	e8 00 00 00 00	 call	 ?AddDefinedText@CUser@@QAAXHPBDZZ ; CUser::AddDefinedText
  000a5	83 c4 0c	 add	 esp, 12			; 0000000cH

; 3339 : 		return FALSE;

  000a8	33 c0		 xor	 eax, eax
  000aa	5f		 pop	 edi

; 3343 : }

  000ab	5d		 pop	 ebp
  000ac	c2 08 00	 ret	 8
?DoUseItemFood_SM@CMover@@QAEHPAUItemProp@@PAVCItemElem@@@Z ENDP ; CMover::DoUseItemFood_SM
_TEXT	ENDS
; Function compile flags: /Ogtp
; File C:\IAGOS\server\v18\Source\Source\_Common\MoverSkill.cpp
; File C:\IAGOS\server\v18\Source\Source\_Common\Mover.h
; File C:\IAGOS\server\v18\Source\Source\_Common\MoverSkill.cpp
; File C:\IAGOS\server\v18\Source\Source\_Common\Obj.h
; File C:\IAGOS\server\v18\Source\Source\_Common\MoverSkill.cpp
; File C:\IAGOS\server\v18\Source\Source\_Common\Obj.h
; File C:\IAGOS\server\v18\Source\Source\_Common\MoverSkill.cpp
; File C:\IAGOS\server\v18\Source\Source\_Common\Obj.h
; File C:\IAGOS\server\v18\Source\Source\_Common\MoverSkill.cpp
; File C:\IAGOS\server\v18\Source\Source\_Common\Obj.h
; File C:\IAGOS\server\v18\Source\Source\_Common\MoverSkill.cpp
; File C:\IAGOS\server\v18\Source\Source\_Common\Obj.h
; File C:\IAGOS\server\v18\Source\Source\_Common\MoverSkill.cpp
; File C:\IAGOS\server\v18\Source\Source\_Common\Obj.h
; File C:\IAGOS\server\v18\Source\Source\_Common\MoverSkill.cpp
; File C:\IAGOS\server\v18\Source\Source\_Common\Obj.h
; File C:\IAGOS\server\v18\Source\Source\_Common\MoverSkill.cpp
; File C:\IAGOS\server\v18\Source\Source\_Common\Obj.h
; File C:\IAGOS\server\v18\Source\Source\_Common\MoverSkill.cpp
; File C:\IAGOS\server\v18\Source\Source\_Common\Obj.h
; File C:\IAGOS\server\v18\Source\Source\_Common\MoverSkill.cpp
; File C:\IAGOS\server\v18\Source\Source\DX_SDK\d3dx9math.inl
; File C:\IAGOS\server\v18\Source\Source\_Common\MoverSkill.cpp
; File C:\IAGOS\server\v18\Source\Source\DX_SDK\d3dx9math.inl
; File C:\IAGOS\server\v18\Source\Source\_Common\MoverSkill.cpp
; File C:\IAGOS\server\v18\Source\Source\DX_SDK\d3dx9math.inl
; File C:\IAGOS\server\v18\Source\Source\_Common\MoverSkill.cpp
; File C:\IAGOS\server\v18\Source\Source\_Common\Mover.h
; File C:\IAGOS\server\v18\Source\Source\_Common\MoverSkill.cpp
; File C:\IAGOS\server\v18\Source\Source\_Common\Obj.h
; File C:\IAGOS\server\v18\Source\Source\_Common\MoverSkill.cpp
; File C:\IAGOS\server\v18\Source\Source\_Common\Obj.h
; File C:\IAGOS\server\v18\Source\Source\_Common\MoverSkill.cpp
; File C:\IAGOS\server\v18\Source\Source\_Common\Obj.h
; File C:\IAGOS\server\v18\Source\Source\_Common\MoverSkill.cpp
;	COMDAT ?DoUseItemBlinkWing@CMover@@QAEHPAUItemProp@@PAVCItemElem@@H@Z
_TEXT	SEGMENT
tv606 = -32						; size = 4
$T1 = -28						; size = 12
_vPos$2 = -28						; size = 12
$T3 = -16						; size = 12
$T4 = -16						; size = 12
$T5 = -16						; size = 12
__$ArrayPad$ = -4					; size = 4
_pItemProp$ = 8						; size = 4
_pItemElem$ = 12					; size = 4
_bUse$ = 16						; size = 4
?DoUseItemBlinkWing@CMover@@QAEHPAUItemProp@@PAVCItemElem@@H@Z PROC ; CMover::DoUseItemBlinkWing, COMDAT
; _this$ = ecx

; 1913 : {

  00000	55		 push	 ebp
  00001	8b ec		 mov	 ebp, esp
  00003	83 ec 20	 sub	 esp, 32			; 00000020H
  00006	a1 00 00 00 00	 mov	 eax, DWORD PTR ___security_cookie
  0000b	33 c5		 xor	 eax, ebp
  0000d	89 45 fc	 mov	 DWORD PTR __$ArrayPad$[ebp], eax
  00010	53		 push	 ebx
  00011	8b 5d 0c	 mov	 ebx, DWORD PTR _pItemElem$[ebp]
  00014	56		 push	 esi
  00015	8b f1		 mov	 esi, ecx
  00017	57		 push	 edi
  00018	8b 7d 08	 mov	 edi, DWORD PTR _pItemProp$[ebp]

; 1914 : #ifdef __WORLDSERVER
; 1915 : 	if( m_pActMover->IsSit() ) // 2005.12.08 raiders ľÉľĆ ŔÖŔ¸¸é ľČµÇ°Ô 

  0001b	8b 86 38 02 00
	00		 mov	 eax, DWORD PTR [esi+568]
  00021	f6 40 08 04	 test	 BYTE PTR [eax+8], 4
  00025	75 4c		 jne	 SHORT $LN31@DoUseItemB

; 1916 : 		return FALSE;
; 1917 : 
; 1918 : 	if( IsStateMode( STATE_BASEMOTION_MODE ) ) 

  00027	f6 86 48 02 00
	00 04		 test	 BYTE PTR [esi+584], 4
  0002e	75 43		 jne	 SHORT $LN31@DoUseItemB

; 1919 : 		return FALSE;
; 1920 : 
; 1921 : 	if( bUse )

  00030	83 7d 10 00	 cmp	 DWORD PTR _bUse$[ebp], 0
  00034	74 0b		 je	 SHORT $LN64@DoUseItemB

; 1922 : 	{
; 1923 : 		if( GetWorld()->m_dwWorldID == WI_WORLD_KEBARAS )

  00036	8b 86 6c 01 00
	00		 mov	 eax, DWORD PTR [esi+364]
  0003c	83 38 02	 cmp	 DWORD PTR [eax], 2
  0003f	74 32		 je	 SHORT $LN31@DoUseItemB
$LN64@DoUseItemB:

; 1924 : 			return FALSE;
; 1925 : 	}
; 1926 : 
; 1927 : 	if( GetWorld()->m_dwWorldID == WI_WORLD_GUILDWAR )

  00041	8b 86 6c 01 00
	00		 mov	 eax, DWORD PTR [esi+364]
  00047	81 38 ca 00 00
	00		 cmp	 DWORD PTR [eax], 202	; 000000caH
  0004d	74 24		 je	 SHORT $LN31@DoUseItemB

; 1928 : 		return FALSE;
; 1929 : 
; 1930 : #if __VER >= 11 // __GUILD_COMBAT_1TO1
; 1931 : 	if( g_GuildCombat1to1Mng.IsPossibleUser( (CUser*)this ) )

  0004f	56		 push	 esi
  00050	b9 00 00 00 00	 mov	 ecx, OFFSET ?g_GuildCombat1to1Mng@@3VCGuildCombat1to1Mng@@A ; g_GuildCombat1to1Mng
  00055	e8 00 00 00 00	 call	 ?IsPossibleUser@CGuildCombat1to1Mng@@QAEHPAVCUser@@@Z ; CGuildCombat1to1Mng::IsPossibleUser
  0005a	85 c0		 test	 eax, eax
  0005c	74 2a		 je	 SHORT $LN7@DoUseItemB

; 1932 : 	{
; 1933 : 		if( IsPlayer() )

  0005e	83 be 30 02 00
	00 00		 cmp	 DWORD PTR [esi+560], 0
  00065	74 0c		 je	 SHORT $LN31@DoUseItemB

; 1934 : 			((CUser*)this)->AddDefinedText( TID_GAME_GUILDCOMBAT1TO1_NOBLINKWING );

  00067	68 82 0d 00 00	 push	 3458			; 00000d82H
$LN104@DoUseItemB:

; 2023 : 			return FALSE;

  0006c	8b ce		 mov	 ecx, esi
  0006e	e8 00 00 00 00	 call	 ?AddDefinedText@CUser@@QAEXH@Z ; CUser::AddDefinedText
$LN31@DoUseItemB:

; 2056 : }

  00073	5f		 pop	 edi
  00074	5e		 pop	 esi
  00075	33 c0		 xor	 eax, eax
  00077	5b		 pop	 ebx
  00078	8b 4d fc	 mov	 ecx, DWORD PTR __$ArrayPad$[ebp]
  0007b	33 cd		 xor	 ecx, ebp
  0007d	e8 00 00 00 00	 call	 @__security_check_cookie@4
  00082	8b e5		 mov	 esp, ebp
  00084	5d		 pop	 ebp
  00085	c2 0c 00	 ret	 12			; 0000000cH
$LN7@DoUseItemB:

; 1935 : 		return FALSE;
; 1936 : 	}
; 1937 : #endif // __GUILD_COMBAT_1TO1
; 1938 : 
; 1939 : #if __VER >= 12 // __SECRET_ROOM
; 1940 : 	if( CSecretRoomMng::GetInstance()->IsInTheSecretRoom( this ) )

  00088	56		 push	 esi
  00089	e8 00 00 00 00	 call	 ?GetInstance@CSecretRoomMng@@SAPAV1@XZ ; CSecretRoomMng::GetInstance
  0008e	8b c8		 mov	 ecx, eax
  00090	e8 00 00 00 00	 call	 ?IsInTheSecretRoom@CSecretRoomMng@@QAEHPAVCMover@@@Z ; CSecretRoomMng::IsInTheSecretRoom
  00095	85 c0		 test	 eax, eax
  00097	74 10		 je	 SHORT $LN9@DoUseItemB

; 1941 : 	{
; 1942 : 		if( IsPlayer() )

  00099	83 be 30 02 00
	00 00		 cmp	 DWORD PTR [esi+560], 0
  000a0	74 d1		 je	 SHORT $LN31@DoUseItemB

; 1943 : 			((CUser*)this)->AddDefinedText( TID_GAME_SECRETROOM_USEBRINKITEM );

  000a2	68 5a 0f 00 00	 push	 3930			; 00000f5aH

; 1953 : 		return FALSE;
; 1954 : 	}
; 1955 : #endif // __RAINBOW_RACE
; 1956 : 
; 1957 : #if __VER >= 13 // __HOUSING
; 1958 : 	if( GetWorld()->GetID() == WI_WORLD_MINIROOM )	// ÇĎżěÂˇżˇĽ­´Â şí¸µĹ©Ŕ® ±ÝÁö.

  000a7	eb c3		 jmp	 SHORT $LN104@DoUseItemB
$LN9@DoUseItemB:

; 1944 : 		return FALSE;
; 1945 : 	}
; 1946 : #endif // __SECRET_ROOM
; 1947 : 
; 1948 : #if __VER >= 13 // __RAINBOW_RACE
; 1949 : 	if( CRainbowRaceMng::GetInstance()->IsEntry( ((CUser*)this)->m_idPlayer ) )

  000a9	ff b6 34 02 00
	00		 push	 DWORD PTR [esi+564]
  000af	e8 00 00 00 00	 call	 ?GetInstance@CRainbowRaceMng@@SAPAV1@XZ ; CRainbowRaceMng::GetInstance
  000b4	8b c8		 mov	 ecx, eax
  000b6	e8 00 00 00 00	 call	 ?IsEntry@CRainbowRaceMng@@QAEHK@Z ; CRainbowRaceMng::IsEntry
  000bb	85 c0		 test	 eax, eax
  000bd	74 10		 je	 SHORT $LN11@DoUseItemB

; 1950 : 	{
; 1951 : 		if( IsPlayer() )

  000bf	83 be 30 02 00
	00 00		 cmp	 DWORD PTR [esi+560], 0
  000c6	74 ab		 je	 SHORT $LN31@DoUseItemB

; 1952 : 			((CUser*)this)->AddDefinedText( TID_GAME_RAINBOWRACE_NOTELEPORT );

  000c8	68 c1 0f 00 00	 push	 4033			; 00000fc1H

; 1953 : 		return FALSE;
; 1954 : 	}
; 1955 : #endif // __RAINBOW_RACE
; 1956 : 
; 1957 : #if __VER >= 13 // __HOUSING
; 1958 : 	if( GetWorld()->GetID() == WI_WORLD_MINIROOM )	// ÇĎżěÂˇżˇĽ­´Â şí¸µĹ©Ŕ® ±ÝÁö.

  000cd	eb 9d		 jmp	 SHORT $LN104@DoUseItemB
$LN11@DoUseItemB:
  000cf	8b 86 6c 01 00
	00		 mov	 eax, DWORD PTR [esi+364]
  000d5	81 38 d1 00 00
	00		 cmp	 DWORD PTR [eax], 209	; 000000d1H
  000db	74 96		 je	 SHORT $LN31@DoUseItemB

; 1959 : 		return FALSE;
; 1960 : #endif // __HOUSING
; 1961 : 
; 1962 : 	// Á¦ÇŃ·ąş§ŔĚ °É·ÁŔÖŔ»¶§.
; 1963 :  	if( pItemProp->dwLimitLevel1 != NULL_ID && (int)( pItemProp->dwLimitLevel1 ) > GetLevel() )

  000dd	8b 87 30 02 00
	00		 mov	 eax, DWORD PTR [edi+560]
  000e3	83 f8 ff	 cmp	 eax, -1
  000e6	74 31		 je	 SHORT $LN14@DoUseItemB
  000e8	3b 86 d8 05 00
	00		 cmp	 eax, DWORD PTR [esi+1496]
  000ee	7e 29		 jle	 SHORT $LN14@DoUseItemB

; 1964 : 	{
; 1965 : 		if( TRUE == IsPlayer() )

  000f0	83 be 30 02 00
	00 01		 cmp	 DWORD PTR [esi+560], 1
  000f7	0f 85 76 ff ff
	ff		 jne	 $LN31@DoUseItemB

; 1966 : 			( (CUser*)this )->AddDefinedText( TID_GAME_USINGNOTLEVEL, "\"%s\"", pItemProp->szName );

  000fd	8d 47 04	 lea	 eax, DWORD PTR [edi+4]
  00100	50		 push	 eax
  00101	68 00 00 00 00	 push	 OFFSET ??_C@_04OEDFLLKD@?$CC?$CFs?$CC@
  00106	68 7f 04 00 00	 push	 1151			; 0000047fH
  0010b	56		 push	 esi
  0010c	e8 00 00 00 00	 call	 ?AddDefinedText@CUser@@QAAXHPBDZZ ; CUser::AddDefinedText
  00111	83 c4 10	 add	 esp, 16			; 00000010H

; 1978 : 		{
; 1979 : 			if( IsUsableItem( pItemElem ) == FALSE )

  00114	e9 5a ff ff ff	 jmp	 $LN31@DoUseItemB
$LN14@DoUseItemB:

; 1967 : 		return FALSE;
; 1968 : 	}
; 1969 : 
; 1970 : 	if( pItemProp->dwItemKind3 == IK3_TOWNBLINKWING )	// IK3_TOWNBLINKWING

  00119	83 7f 78 2f	 cmp	 DWORD PTR [edi+120], 47	; 0000002fH
  0011d	0f 85 2e 01 00
	00		 jne	 $LN16@DoUseItemB

; 1971 : 	{
; 1972 : 		REPLACE_TYPE type = REPLACE_NORMAL;
; 1973 : 		if( pItemProp->dwID == II_CHR_SYS_SCR_ESCAPEBLINKWING )
; 1974 : 			type = REPLACE_FORCE; 
; 1975 : 
; 1976 : 		// lodestar
; 1977 : 		if( bUse )

  00123	33 c0		 xor	 eax, eax
  00125	81 3f c3 28 00
	00		 cmp	 DWORD PTR [edi], 10435	; 000028c3H
  0012b	0f 94 c0	 sete	 al
  0012e	83 7d 10 00	 cmp	 DWORD PTR _bUse$[ebp], 0
  00132	89 45 e0	 mov	 DWORD PTR tv606[ebp], eax
  00135	74 2d		 je	 SHORT $LN19@DoUseItemB

; 1978 : 		{
; 1979 : 			if( IsUsableItem( pItemElem ) == FALSE )

  00137	53		 push	 ebx
  00138	e8 00 00 00 00	 call	 ?IsUsableItem@@YAHPAVCItemBase@@@Z ; IsUsableItem
  0013d	83 c4 04	 add	 esp, 4
  00140	85 c0		 test	 eax, eax
  00142	0f 84 2b ff ff
	ff		 je	 $LN31@DoUseItemB

; 1980 : 				return FALSE;
; 1981 : 
; 1982 : 			pItemElem->UseItem();

  00148	8b cb		 mov	 ecx, ebx
  0014a	e8 00 00 00 00	 call	 ?UseItem@CItemElem@@QAEXXZ ; CItemElem::UseItem

; 1983 : 			UpdateItem( (BYTE)( pItemElem->m_dwObjId ), UI_NUM, pItemElem->m_nItemNum );

  0014f	0f bf 43 74	 movsx	 eax, WORD PTR [ebx+116]
  00153	8b ce		 mov	 ecx, esi
  00155	6a 00		 push	 0
  00157	50		 push	 eax
  00158	0f b6 43 04	 movzx	 eax, BYTE PTR [ebx+4]
  0015c	6a 00		 push	 0
  0015e	50		 push	 eax
  0015f	e8 00 00 00 00	 call	 ?UpdateItem@CMover@@QAEXEDKK@Z ; CMover::UpdateItem
$LN19@DoUseItemB:

; 1984 : 		}
; 1985 : 		
; 1986 : 		PRegionElem pRgnElem	= NULL;
; 1987 : 		CWorld* pWorld	= GetWorld();

  00164	8b be 6c 01 00
	00		 mov	 edi, DWORD PTR [esi+364]

; 1988 : 		if( !pWorld )

  0016a	85 ff		 test	 edi, edi
  0016c	0f 84 01 ff ff
	ff		 je	 $LN31@DoUseItemB
; File C:\IAGOS\server\v18\Source\Source\_Common\Mover.h

; 1257 : 	BOOL			IsChaotic( void ) { return m_dwPKPropensity > 0; }	/// Ä«żŔŔÎÁö

  00172	83 be 58 07 00
	00 00		 cmp	 DWORD PTR [esi+1880], 0
  00179	8b 07		 mov	 eax, DWORD PTR [edi]
  0017b	8b 8f 00 93 08
	00		 mov	 ecx, DWORD PTR [edi+561920]
; File C:\IAGOS\server\v18\Source\Source\_Common\MoverSkill.cpp

; 1991 : 		if( IsChaotic() )

  00181	76 48		 jbe	 SHORT $LN22@DoUseItemB

; 1992 : 		{
; 1993 : #if __VER >= 8 // __S8_PK
; 1994 : 			if( pWorld->GetID() != pWorld->m_dwIdWorldRevival && pWorld->m_dwIdWorldRevival != 0 )

  00183	3b c1		 cmp	 eax, ecx
  00185	74 1c		 je	 SHORT $LN61@DoUseItemB
  00187	85 c9		 test	 ecx, ecx
  00189	74 18		 je	 SHORT $LN61@DoUseItemB

; 1995 : 				pRgnElem	= g_WorldMng.GetRevivalPosChao( pWorld->m_dwIdWorldRevival, pWorld->m_szKeyRevival );

  0018b	8d 87 e0 92 08
	00		 lea	 eax, DWORD PTR [edi+561888]
  00191	50		 push	 eax
  00192	51		 push	 ecx
  00193	b9 00 00 00 00	 mov	 ecx, OFFSET ?g_WorldMng@@3VCWorldMng@@A ; g_WorldMng
  00198	e8 00 00 00 00	 call	 ?GetRevivalPosChao@CWorldMng@@QAEPAUREGIONELEM@@KPBD@Z ; CWorldMng::GetRevivalPosChao
  0019d	8b c8		 mov	 ecx, eax

; 1996 : 			if( NULL == pRgnElem )	// Find near revival pos

  0019f	85 c9		 test	 ecx, ecx
  001a1	75 74		 jne	 SHORT $LN60@DoUseItemB
$LN61@DoUseItemB:
; File C:\IAGOS\server\v18\Source\Source\_Common\Obj.h

; 215  : 	D3DXVECTOR3		GetPos()	{ return m_vPos; }

  001a3	8b 86 68 01 00
	00		 mov	 eax, DWORD PTR [esi+360]
; File C:\IAGOS\server\v18\Source\Source\_Common\MoverSkill.cpp

; 1997 : 				pRgnElem	= g_WorldMng.GetNearRevivalPosChao( pWorld->GetID(), GetPos() );

  001a9	b9 00 00 00 00	 mov	 ecx, OFFSET ?g_WorldMng@@3VCWorldMng@@A ; g_WorldMng
; File C:\IAGOS\server\v18\Source\Source\_Common\Obj.h

; 215  : 	D3DXVECTOR3		GetPos()	{ return m_vPos; }

  001ae	f3 0f 7e 86 60
	01 00 00	 movq	 xmm0, QWORD PTR [esi+352]
  001b6	89 45 ec	 mov	 DWORD PTR $T1[ebp+8], eax
; File C:\IAGOS\server\v18\Source\Source\_Common\MoverSkill.cpp

; 1997 : 				pRgnElem	= g_WorldMng.GetNearRevivalPosChao( pWorld->GetID(), GetPos() );

  001b9	8d 45 e4	 lea	 eax, DWORD PTR $T1[ebp]
  001bc	50		 push	 eax
  001bd	ff 37		 push	 DWORD PTR [edi]
; File C:\IAGOS\server\v18\Source\Source\_Common\Obj.h

; 215  : 	D3DXVECTOR3		GetPos()	{ return m_vPos; }

  001bf	66 0f d6 45 e4	 movq	 QWORD PTR $T1[ebp], xmm0
; File C:\IAGOS\server\v18\Source\Source\_Common\MoverSkill.cpp

; 1997 : 				pRgnElem	= g_WorldMng.GetNearRevivalPosChao( pWorld->GetID(), GetPos() );

  001c4	e8 00 00 00 00	 call	 ?GetNearRevivalPosChao@CWorldMng@@QAEPAUREGIONELEM@@KAAUD3DXVECTOR3@@@Z ; CWorldMng::GetNearRevivalPosChao

; 1998 : #else // __VER >= 8 // __S8_PK
; 1999 : 			pRgnElem	= g_WorldMng.GetNearRevivalPosChao( pWorld->GetID(), GetPos() );
; 2000 : #endif // __VER >= 8 // __S8_PK
; 2001 : 		}

  001c9	eb 46		 jmp	 SHORT $LN102@DoUseItemB
$LN22@DoUseItemB:

; 2002 : 		else
; 2003 : 
; 2004 : 		{
; 2005 : 			if( pWorld->GetID() != pWorld->m_dwIdWorldRevival && pWorld->m_dwIdWorldRevival != 0 )

  001cb	3b c1		 cmp	 eax, ecx
  001cd	74 1c		 je	 SHORT $LN62@DoUseItemB
  001cf	85 c9		 test	 ecx, ecx
  001d1	74 18		 je	 SHORT $LN62@DoUseItemB

; 2006 : 				pRgnElem	= g_WorldMng.GetRevivalPos( pWorld->m_dwIdWorldRevival, pWorld->m_szKeyRevival );

  001d3	8d 87 e0 92 08
	00		 lea	 eax, DWORD PTR [edi+561888]
  001d9	50		 push	 eax
  001da	51		 push	 ecx
  001db	b9 00 00 00 00	 mov	 ecx, OFFSET ?g_WorldMng@@3VCWorldMng@@A ; g_WorldMng
  001e0	e8 00 00 00 00	 call	 ?GetRevivalPos@CWorldMng@@QAEPAUREGIONELEM@@KPBD@Z ; CWorldMng::GetRevivalPos
  001e5	8b c8		 mov	 ecx, eax

; 2007 : 			if( NULL == pRgnElem )	// Find near revival pos

  001e7	85 c9		 test	 ecx, ecx
  001e9	75 2c		 jne	 SHORT $LN60@DoUseItemB
$LN62@DoUseItemB:
; File C:\IAGOS\server\v18\Source\Source\_Common\Obj.h

; 215  : 	D3DXVECTOR3		GetPos()	{ return m_vPos; }

  001eb	8b 86 68 01 00
	00		 mov	 eax, DWORD PTR [esi+360]
; File C:\IAGOS\server\v18\Source\Source\_Common\MoverSkill.cpp

; 2008 : 				pRgnElem	= g_WorldMng.GetNearRevivalPos( pWorld->GetID(), GetPos() );

  001f1	b9 00 00 00 00	 mov	 ecx, OFFSET ?g_WorldMng@@3VCWorldMng@@A ; g_WorldMng
; File C:\IAGOS\server\v18\Source\Source\_Common\Obj.h

; 215  : 	D3DXVECTOR3		GetPos()	{ return m_vPos; }

  001f6	f3 0f 7e 86 60
	01 00 00	 movq	 xmm0, QWORD PTR [esi+352]
  001fe	89 45 f8	 mov	 DWORD PTR $T3[ebp+8], eax
; File C:\IAGOS\server\v18\Source\Source\_Common\MoverSkill.cpp

; 2008 : 				pRgnElem	= g_WorldMng.GetNearRevivalPos( pWorld->GetID(), GetPos() );

  00201	8d 45 f0	 lea	 eax, DWORD PTR $T3[ebp]
  00204	50		 push	 eax
  00205	ff 37		 push	 DWORD PTR [edi]
; File C:\IAGOS\server\v18\Source\Source\_Common\Obj.h

; 215  : 	D3DXVECTOR3		GetPos()	{ return m_vPos; }

  00207	66 0f d6 45 f0	 movq	 QWORD PTR $T3[ebp], xmm0
; File C:\IAGOS\server\v18\Source\Source\_Common\MoverSkill.cpp

; 2008 : 				pRgnElem	= g_WorldMng.GetNearRevivalPos( pWorld->GetID(), GetPos() );

  0020c	e8 00 00 00 00	 call	 ?GetNearRevivalPos@CWorldMng@@QAEPAUREGIONELEM@@KAAUD3DXVECTOR3@@@Z ; CWorldMng::GetNearRevivalPos
$LN102@DoUseItemB:

; 2009 : 		}
; 2010 : 		if( NULL != pRgnElem )

  00211	8b c8		 mov	 ecx, eax
  00213	85 c9		 test	 ecx, ecx
  00215	74 14		 je	 SHORT $LN28@DoUseItemB
$LN60@DoUseItemB:

; 2011 : 			REPLACE( g_uIdofMulti, pRgnElem->m_dwWorldId, pRgnElem->m_vPos, type, nRevivalLayer );

  00217	6a 00		 push	 0
  00219	ff 75 e0	 push	 DWORD PTR tv606[ebp]
  0021c	8d 41 10	 lea	 eax, DWORD PTR [ecx+16]
  0021f	50		 push	 eax
  00220	ff b1 c0 02 00
	00		 push	 DWORD PTR [ecx+704]
  00226	e9 86 01 00 00	 jmp	 $LN103@DoUseItemB
$LN28@DoUseItemB:
; File C:\IAGOS\server\v18\Source\Source\_Common\Obj.h

; 215  : 	D3DXVECTOR3		GetPos()	{ return m_vPos; }

  0022b	8b 86 68 01 00
	00		 mov	 eax, DWORD PTR [esi+360]
  00231	f3 0f 7e 86 60
	01 00 00	 movq	 xmm0, QWORD PTR [esi+352]
; File C:\IAGOS\server\v18\Source\Source\_Common\MoverSkill.cpp

; 2013 : 			REPLACE( g_uIdofMulti, pWorld->GetID(), GetPos(), type, nDefaultLayer );

  00239	6a 00		 push	 0
  0023b	ff 75 e0	 push	 DWORD PTR tv606[ebp]
; File C:\IAGOS\server\v18\Source\Source\_Common\Obj.h

; 215  : 	D3DXVECTOR3		GetPos()	{ return m_vPos; }

  0023e	89 45 f8	 mov	 DWORD PTR $T4[ebp+8], eax
; File C:\IAGOS\server\v18\Source\Source\_Common\MoverSkill.cpp

; 2013 : 			REPLACE( g_uIdofMulti, pWorld->GetID(), GetPos(), type, nDefaultLayer );

  00241	8d 45 f0	 lea	 eax, DWORD PTR $T4[ebp]
  00244	50		 push	 eax
  00245	ff 37		 push	 DWORD PTR [edi]
; File C:\IAGOS\server\v18\Source\Source\_Common\Obj.h

; 215  : 	D3DXVECTOR3		GetPos()	{ return m_vPos; }

  00247	66 0f d6 45 f0	 movq	 QWORD PTR $T4[ebp], xmm0
; File C:\IAGOS\server\v18\Source\Source\_Common\MoverSkill.cpp

; 2014 : 	}

  0024c	e9 60 01 00 00	 jmp	 $LN103@DoUseItemB
$LN16@DoUseItemB:

; 2015 : 	else
; 2016 : 	{
; 2017 : 		//		x: dwItemAtkOrder1
; 2018 : 		//		y: dwItemAtkOrder2
; 2019 : 		//		z: dwItemAtkOrder3
; 2020 : 		//		angle: dwItemAtkOrder4
; 2021 : 		//		dwWeaponType: worldid
; 2022 : 		if( pItemProp->dwWeaponType == WI_WORLD_NONE || pItemProp->dwWeaponType == 0xffffffff )

  00251	8b 87 0c 01 00
	00		 mov	 eax, DWORD PTR [edi+268]
  00257	85 c0		 test	 eax, eax
  00259	0f 84 14 fe ff
	ff		 je	 $LN31@DoUseItemB
  0025f	83 f8 ff	 cmp	 eax, -1
  00262	0f 84 0b fe ff
	ff		 je	 $LN31@DoUseItemB

; 2024 : 		D3DXVECTOR3 vPos( (float)( pItemProp->dwItemAtkOrder1 ), (float)( pItemProp->dwItemAtkOrder2 ), (float)( pItemProp->dwItemAtkOrder3 ) );

  00268	8b 87 10 01 00
	00		 mov	 eax, DWORD PTR [edi+272]

; 2025 : 		SetAngle( (float)pItemProp->dwItemAtkOrder4 );

  0026e	51		 push	 ecx
  0026f	8b ce		 mov	 ecx, esi
  00271	66 0f 6e c0	 movd	 xmm0, eax
  00275	f3 0f e6 c0	 cvtdq2pd xmm0, xmm0
  00279	c1 e8 1f	 shr	 eax, 31			; 0000001fH
  0027c	f2 0f 58 04 c5
	00 00 00 00	 addsd	 xmm0, QWORD PTR __xmm@41f00000000000000000000000000000[eax*8]
  00285	8b 87 14 01 00
	00		 mov	 eax, DWORD PTR [edi+276]
  0028b	66 0f 5a c0	 cvtpd2ps xmm0, xmm0
; File C:\IAGOS\server\v18\Source\Source\DX_SDK\d3dx9math.inl

; 300  :     x = fx;

  0028f	f3 0f 11 45 e4	 movss	 DWORD PTR _vPos$2[ebp], xmm0
  00294	66 0f 6e c0	 movd	 xmm0, eax
; File C:\IAGOS\server\v18\Source\Source\_Common\MoverSkill.cpp

; 2024 : 		D3DXVECTOR3 vPos( (float)( pItemProp->dwItemAtkOrder1 ), (float)( pItemProp->dwItemAtkOrder2 ), (float)( pItemProp->dwItemAtkOrder3 ) );

  00298	f3 0f e6 c0	 cvtdq2pd xmm0, xmm0
  0029c	c1 e8 1f	 shr	 eax, 31			; 0000001fH
  0029f	f2 0f 58 04 c5
	00 00 00 00	 addsd	 xmm0, QWORD PTR __xmm@41f00000000000000000000000000000[eax*8]
  002a8	8b 87 18 01 00
	00		 mov	 eax, DWORD PTR [edi+280]
  002ae	66 0f 5a c0	 cvtpd2ps xmm0, xmm0
; File C:\IAGOS\server\v18\Source\Source\DX_SDK\d3dx9math.inl

; 301  :     y = fy;

  002b2	f3 0f 11 45 e8	 movss	 DWORD PTR _vPos$2[ebp+4], xmm0
  002b7	66 0f 6e c0	 movd	 xmm0, eax
; File C:\IAGOS\server\v18\Source\Source\_Common\MoverSkill.cpp

; 2024 : 		D3DXVECTOR3 vPos( (float)( pItemProp->dwItemAtkOrder1 ), (float)( pItemProp->dwItemAtkOrder2 ), (float)( pItemProp->dwItemAtkOrder3 ) );

  002bb	f3 0f e6 c0	 cvtdq2pd xmm0, xmm0
  002bf	c1 e8 1f	 shr	 eax, 31			; 0000001fH
  002c2	f2 0f 58 04 c5
	00 00 00 00	 addsd	 xmm0, QWORD PTR __xmm@41f00000000000000000000000000000[eax*8]

; 2025 : 		SetAngle( (float)pItemProp->dwItemAtkOrder4 );

  002cb	8b 87 1c 01 00
	00		 mov	 eax, DWORD PTR [edi+284]
  002d1	66 0f 5a c0	 cvtpd2ps xmm0, xmm0
; File C:\IAGOS\server\v18\Source\Source\DX_SDK\d3dx9math.inl

; 302  :     z = fz;

  002d5	f3 0f 11 45 ec	 movss	 DWORD PTR _vPos$2[ebp+8], xmm0
  002da	66 0f 6e c0	 movd	 xmm0, eax
; File C:\IAGOS\server\v18\Source\Source\_Common\MoverSkill.cpp

; 2025 : 		SetAngle( (float)pItemProp->dwItemAtkOrder4 );

  002de	f3 0f e6 c0	 cvtdq2pd xmm0, xmm0
  002e2	c1 e8 1f	 shr	 eax, 31			; 0000001fH
  002e5	f2 0f 58 04 c5
	00 00 00 00	 addsd	 xmm0, QWORD PTR __xmm@41f00000000000000000000000000000[eax*8]
  002ee	66 0f 5a c0	 cvtpd2ps xmm0, xmm0
  002f2	f3 0f 11 04 24	 movss	 DWORD PTR [esp], xmm0
  002f7	e8 00 00 00 00	 call	 ?SetAngle@CObj@@QAEXM@Z	; CObj::SetAngle

; 2026 : 		// remove & transfer
; 2027 : 		if( bUse )

  002fc	83 7d 10 00	 cmp	 DWORD PTR _bUse$[ebp], 0
  00300	74 2d		 je	 SHORT $LN32@DoUseItemB

; 2028 : 		{
; 2029 : 			if( IsUsableItem( pItemElem ) == FALSE )

  00302	53		 push	 ebx
  00303	e8 00 00 00 00	 call	 ?IsUsableItem@@YAHPAVCItemBase@@@Z ; IsUsableItem
  00308	83 c4 04	 add	 esp, 4
  0030b	85 c0		 test	 eax, eax
  0030d	0f 84 60 fd ff
	ff		 je	 $LN31@DoUseItemB

; 2030 : 				return FALSE;
; 2031 : 
; 2032 : 			pItemElem->UseItem();

  00313	8b cb		 mov	 ecx, ebx
  00315	e8 00 00 00 00	 call	 ?UseItem@CItemElem@@QAEXXZ ; CItemElem::UseItem

; 2033 : 			UpdateItem( (BYTE)( pItemElem->m_dwObjId ), UI_NUM, pItemElem->m_nItemNum );

  0031a	0f bf 43 74	 movsx	 eax, WORD PTR [ebx+116]
  0031e	8b ce		 mov	 ecx, esi
  00320	6a 00		 push	 0
  00322	50		 push	 eax
  00323	0f b6 43 04	 movzx	 eax, BYTE PTR [ebx+4]
  00327	6a 00		 push	 0
  00329	50		 push	 eax
  0032a	e8 00 00 00 00	 call	 ?UpdateItem@CMover@@QAEXEDKK@Z ; CMover::UpdateItem
$LN32@DoUseItemB:
; File C:\IAGOS\server\v18\Source\Source\_Common\Mover.h

; 1257 : 	BOOL			IsChaotic( void ) { return m_dwPKPropensity > 0; }	/// Ä«żŔŔÎÁö

  0032f	83 be 58 07 00
	00 00		 cmp	 DWORD PTR [esi+1880], 0
  00336	8b 87 0c 01 00
	00		 mov	 eax, DWORD PTR [edi+268]
; File C:\IAGOS\server\v18\Source\Source\_Common\MoverSkill.cpp

; 2036 : 		if( IsChaotic() )

  0033c	76 6a		 jbe	 SHORT $LN34@DoUseItemB

; 2037 : 		{
; 2038 : 			PRegionElem pRgnElem	= NULL;
; 2039 : 			CWorld* pWorld = g_WorldMng.GetWorld( pItemProp->dwWeaponType );

  0033e	50		 push	 eax
  0033f	b9 00 00 00 00	 mov	 ecx, OFFSET ?g_WorldMng@@3VCWorldMng@@A ; g_WorldMng
  00344	e8 00 00 00 00	 call	 ?GetWorld@CWorldMng@@QAEPAVCWorld@@K@Z ; CWorldMng::GetWorld
  00349	8b d8		 mov	 ebx, eax

; 2040 : 			if( pWorld )

  0034b	85 db		 test	 ebx, ebx
  0034d	74 1d		 je	 SHORT $LN63@DoUseItemB

; 2041 : 				pRgnElem	= g_WorldMng.GetRevivalPosChao( pItemProp->dwWeaponType, pItemProp->szTextFileName );

  0034f	8d 8f 44 02 00
	00		 lea	 ecx, DWORD PTR [edi+580]
  00355	51		 push	 ecx
  00356	ff b7 0c 01 00
	00		 push	 DWORD PTR [edi+268]
  0035c	b9 00 00 00 00	 mov	 ecx, OFFSET ?g_WorldMng@@3VCWorldMng@@A ; g_WorldMng
  00361	e8 00 00 00 00	 call	 ?GetRevivalPosChao@CWorldMng@@QAEPAUREGIONELEM@@KPBD@Z ; CWorldMng::GetRevivalPosChao
  00366	8b c8		 mov	 ecx, eax

; 2042 : 			if( NULL == pRgnElem )	// Find near revival pos

  00368	85 c9		 test	 ecx, ecx
  0036a	75 2c		 jne	 SHORT $LN59@DoUseItemB
$LN63@DoUseItemB:
; File C:\IAGOS\server\v18\Source\Source\_Common\Obj.h

; 215  : 	D3DXVECTOR3		GetPos()	{ return m_vPos; }

  0036c	8b 86 68 01 00
	00		 mov	 eax, DWORD PTR [esi+360]
; File C:\IAGOS\server\v18\Source\Source\_Common\MoverSkill.cpp

; 2043 : 				pRgnElem	= g_WorldMng.GetNearRevivalPosChao( pWorld->GetID(), GetPos() );

  00372	b9 00 00 00 00	 mov	 ecx, OFFSET ?g_WorldMng@@3VCWorldMng@@A ; g_WorldMng
; File C:\IAGOS\server\v18\Source\Source\_Common\Obj.h

; 215  : 	D3DXVECTOR3		GetPos()	{ return m_vPos; }

  00377	f3 0f 7e 86 60
	01 00 00	 movq	 xmm0, QWORD PTR [esi+352]
  0037f	89 45 f8	 mov	 DWORD PTR $T5[ebp+8], eax
; File C:\IAGOS\server\v18\Source\Source\_Common\MoverSkill.cpp

; 2043 : 				pRgnElem	= g_WorldMng.GetNearRevivalPosChao( pWorld->GetID(), GetPos() );

  00382	8d 45 f0	 lea	 eax, DWORD PTR $T5[ebp]
  00385	50		 push	 eax
  00386	ff 33		 push	 DWORD PTR [ebx]
; File C:\IAGOS\server\v18\Source\Source\_Common\Obj.h

; 215  : 	D3DXVECTOR3		GetPos()	{ return m_vPos; }

  00388	66 0f d6 45 f0	 movq	 QWORD PTR $T5[ebp], xmm0
; File C:\IAGOS\server\v18\Source\Source\_Common\MoverSkill.cpp

; 2043 : 				pRgnElem	= g_WorldMng.GetNearRevivalPosChao( pWorld->GetID(), GetPos() );

  0038d	e8 00 00 00 00	 call	 ?GetNearRevivalPosChao@CWorldMng@@QAEPAUREGIONELEM@@KAAUD3DXVECTOR3@@@Z ; CWorldMng::GetNearRevivalPosChao
  00392	8b c8		 mov	 ecx, eax

; 2044 : 
; 2045 : 			if( pRgnElem )

  00394	85 c9		 test	 ecx, ecx
  00396	74 26		 je	 SHORT $LN35@DoUseItemB
$LN59@DoUseItemB:

; 2046 : 				REPLACE( g_uIdofMulti, pRgnElem->m_dwWorldId, pRgnElem->m_vPos, REPLACE_NORMAL, nRevivalLayer );

  00398	6a 00		 push	 0
  0039a	6a 00		 push	 0
  0039c	8d 41 10	 lea	 eax, DWORD PTR [ecx+16]
  0039f	50		 push	 eax
  003a0	ff b1 c0 02 00
	00		 push	 DWORD PTR [ecx+704]

; 2047 : 		}

  003a6	eb 09		 jmp	 SHORT $LN103@DoUseItemB
$LN34@DoUseItemB:

; 2048 : 		else
; 2049 : #endif // __VER >= 8 // __S8_PK
; 2050 : 		{
; 2051 : 			REPLACE( g_uIdofMulti, pItemProp->dwWeaponType, vPos, REPLACE_NORMAL, nTempLayer );

  003a8	6a 00		 push	 0
  003aa	6a 00		 push	 0
  003ac	8d 4d e4	 lea	 ecx, DWORD PTR _vPos$2[ebp]
  003af	51		 push	 ecx
  003b0	50		 push	 eax
$LN103@DoUseItemB:

; 2052 : 		}
; 2053 : 	}
; 2054 : #endif // worldserver
; 2055 : 	return TRUE;

  003b1	ff 35 00 00 00
	00		 push	 DWORD PTR ?g_uIdofMulti@@3KA ; g_uIdofMulti
  003b7	8b ce		 mov	 ecx, esi
  003b9	e8 00 00 00 00	 call	 ?Replace@CMover@@QAEHKKAAUD3DXVECTOR3@@W4REPLACE_TYPE@@H@Z ; CMover::Replace
$LN35@DoUseItemB:

; 2056 : }

  003be	8b 4d fc	 mov	 ecx, DWORD PTR __$ArrayPad$[ebp]
  003c1	b8 01 00 00 00	 mov	 eax, 1
  003c6	5f		 pop	 edi
  003c7	5e		 pop	 esi
  003c8	33 cd		 xor	 ecx, ebp
  003ca	5b		 pop	 ebx
  003cb	e8 00 00 00 00	 call	 @__security_check_cookie@4
  003d0	8b e5		 mov	 esp, ebp
  003d2	5d		 pop	 ebp
  003d3	c2 0c 00	 ret	 12			; 0000000cH
?DoUseItemBlinkWing@CMover@@QAEHPAUItemProp@@PAVCItemElem@@H@Z ENDP ; CMover::DoUseItemBlinkWing
_TEXT	ENDS
; Function compile flags: /Ogtp
; File C:\IAGOS\server\v18\Source\Source\_Common\MoverSkill.cpp
; File C:\IAGOS\server\v18\Source\Source\_Common\Mover.h
; File C:\IAGOS\server\v18\Source\Source\_Common\MoverSkill.cpp
; File C:\IAGOS\server\v18\Source\Source\_AIInterface\Action.h
; File C:\IAGOS\server\v18\Source\Source\_Common\MoverSkill.cpp
; File C:\IAGOS\server\v18\Source\Source\DX_SDK\d3dx9math.inl
; File C:\IAGOS\server\v18\Source\Source\_Common\MoverSkill.cpp
; File C:\Program Files\Microsoft Visual Studio\2022\Professional\VC\Tools\MSVC\14.44.35207\atlmfc\include\atltime.h
; File C:\IAGOS\server\v18\Source\Source\_Common\MoverSkill.cpp
; File C:\Program Files\Microsoft Visual Studio\2022\Professional\VC\Tools\MSVC\14.44.35207\include\xtree
; File C:\IAGOS\server\v18\Source\Source\_Common\MoverSkill.cpp
; File C:\Program Files\Microsoft Visual Studio\2022\Professional\VC\Tools\MSVC\14.44.35207\include\xtree
; File C:\IAGOS\server\v18\Source\Source\_Common\MoverSkill.cpp
; File C:\Program Files\Microsoft Visual Studio\2022\Professional\VC\Tools\MSVC\14.44.35207\include\xtree
; File C:\IAGOS\server\v18\Source\Source\_Common\MoverSkill.cpp
; File C:\IAGOS\server\v18\Source\Source\_Common\Project.h
; File C:\IAGOS\server\v18\Source\Source\_Common\data.h
; File C:\IAGOS\server\v18\Source\Source\_Common\MoverSkill.cpp
; File C:\IAGOS\server\v18\Source\Source\_Common\Project.h
; File C:\IAGOS\server\v18\Source\Source\_Common\MoverSkill.cpp
; File C:\Program Files\Microsoft Visual Studio\2022\Professional\VC\Tools\MSVC\14.44.35207\include\xtree
; File C:\IAGOS\server\v18\Source\Source\_Common\MoverSkill.cpp
; File C:\IAGOS\server\v18\Source\Source\_Common\Mover.h
; File C:\IAGOS\server\v18\Source\Source\_Common\MoverSkill.cpp
; File C:\IAGOS\server\v18\Source\Source\_Common\Mover.h
; File C:\IAGOS\server\v18\Source\Source\_Common\MoverSkill.cpp
; File C:\IAGOS\server\v18\Source\Source\_Common\InstanceDungeonBase.h
; File C:\IAGOS\server\v18\Source\Source\_Common\MoverSkill.cpp
; File C:\Program Files\Microsoft Visual Studio\2022\Professional\VC\Tools\MSVC\14.44.35207\atlmfc\include\afxstr.h
; File C:\Program Files\Microsoft Visual Studio\2022\Professional\VC\Tools\MSVC\14.44.35207\atlmfc\include\atlsimpstr.h
; File C:\IAGOS\server\v18\Source\Source\_Common\MoverSkill.cpp
; File C:\Program Files\Microsoft Visual Studio\2022\Professional\VC\Tools\MSVC\14.44.35207\atlmfc\include\atlsimpstr.h
; File C:\Program Files\Microsoft Visual Studio\2022\Professional\VC\Tools\MSVC\14.44.35207\atlmfc\include\cstringt.h
; File C:\IAGOS\server\v18\Source\Source\_Common\MoverSkill.cpp
; File C:\Program Files\Microsoft Visual Studio\2022\Professional\VC\Tools\MSVC\14.44.35207\atlmfc\include\cstringt.h
; File C:\IAGOS\server\v18\Source\Source\_Common\MoverSkill.cpp
; File C:\IAGOS\server\v18\Source\Source\_Common\xUtil.h
; File C:\IAGOS\server\v18\Source\Source\_Common\MoverSkill.cpp
; File C:\IAGOS\server\v18\Source\Source\_Common\Obj.h
; File C:\IAGOS\server\v18\Source\Source\_Common\MoverSkill.cpp
; File C:\Program Files\Microsoft Visual Studio\2022\Professional\VC\Tools\MSVC\14.44.35207\atlmfc\include\atlsimpstr.h
; File C:\IAGOS\server\v18\Source\Source\_Common\MoverSkill.cpp
;	COMDAT ?DoUseItem@CMover@@QAEHKKH@Z
_TEXT	SEGMENT
_dwGroup$1$ = -340					; size = 4
$T2 = -336						; size = 12
tv712 = -332						; size = 8
_cUIParam$3 = -328					; size = 1
_nExtraEXP$1$ = -328					; size = 4
_pItemProp$1$ = -324					; size = 4
_str$4 = -320						; size = 4
_szMaxBuf$5 = -320					; size = 4
_strTemp$6 = -320					; size = 4
_pItemBase$1$ = -320					; size = 4
_str$7 = -316						; size = 4
_i$8 = -316						; size = 4
_szGMText$9 = -316					; size = 4
_dwActiveSkill$1$ = -316				; size = 4
_aLogItem$10 = -312					; size = 200
_aLogItem$11 = -312					; size = 200
$T12 = -112						; size = 32
_szGMCommand$13 = -80					; size = 64
__$ArrayPad$ = -16					; size = 4
__$EHRec$ = -12						; size = 12
_dwData$ = 8						; size = 4
_dwFocusId$ = 12					; size = 4
_nPart$ = 16						; size = 4
?DoUseItem@CMover@@QAEHKKH@Z PROC			; CMover::DoUseItem, COMDAT
; _this$ = ecx

; 1355 : {

  00000	55		 push	 ebp
  00001	8b ec		 mov	 ebp, esp
  00003	6a ff		 push	 -1
  00005	68 00 00 00 00	 push	 __ehhandler$?DoUseItem@CMover@@QAEHKKH@Z
  0000a	64 a1 00 00 00
	00		 mov	 eax, DWORD PTR fs:0
  00010	50		 push	 eax
  00011	81 ec 48 01 00
	00		 sub	 esp, 328		; 00000148H
  00017	a1 00 00 00 00	 mov	 eax, DWORD PTR ___security_cookie
  0001c	33 c5		 xor	 eax, ebp
  0001e	89 45 f0	 mov	 DWORD PTR __$ArrayPad$[ebp], eax
  00021	53		 push	 ebx
  00022	56		 push	 esi
  00023	57		 push	 edi
  00024	50		 push	 eax
  00025	8d 45 f4	 lea	 eax, DWORD PTR __$EHRec$[ebp]
  00028	64 a3 00 00 00
	00		 mov	 DWORD PTR fs:0, eax
  0002e	8b f9		 mov	 edi, ecx
; File C:\IAGOS\server\v18\Source\Source\_Common\Mover.h

; 1250 : 	BOOL			IsDie() { return m_pActMover->IsDie() || m_nHitPoint == 0; }

  00030	8b 87 38 02 00
	00		 mov	 eax, DWORD PTR [edi+568]
  00036	f7 40 04 00 00
	00 08		 test	 DWORD PTR [eax+4], 134217728 ; 08000000H
  0003d	0f 85 f8 04 00
	00		 jne	 $LN128@DoUseItem
  00043	83 bf f8 05 00
	00 00		 cmp	 DWORD PTR [edi+1528], 0
  0004a	0f 84 eb 04 00
	00		 je	 $LN128@DoUseItem
; File C:\IAGOS\server\v18\Source\Source\_Common\MoverSkill.cpp

; 1360 : 	if( ((CUser*)this)->m_bAllAction == FALSE )

  00050	83 bf f0 8e 00
	00 00		 cmp	 DWORD PTR [edi+36592], 0
  00057	0f 84 de 04 00
	00		 je	 $LN128@DoUseItem

; 1361 : 		return FALSE;
; 1362 : #endif // __S_SERVER_UNIFY
; 1363 : 
; 1364 : 	WORD dwType = LOWORD( dwData );
; 1365 : 	WORD dwId   = HIWORD( dwData );

  0005d	8b 45 08	 mov	 eax, DWORD PTR _dwData$[ebp]
  00060	c1 e8 10	 shr	 eax, 16			; 00000010H

; 1366 : 
; 1367 : 	CItemBase* pItemBase = GetItemId( dwId ); 

  00063	50		 push	 eax
  00064	89 45 08	 mov	 DWORD PTR _dwData$[ebp], eax
  00067	e8 00 00 00 00	 call	 ?GetItemId@CMover@@QAEPAVCItemBase@@K@Z ; CMover::GetItemId
  0006c	8b f0		 mov	 esi, eax

; 1368 : 	if( IsUsableItem( pItemBase ) == FALSE )

  0006e	56		 push	 esi
  0006f	89 b5 c0 fe ff
	ff		 mov	 DWORD PTR _pItemBase$1$[ebp], esi
  00075	e8 00 00 00 00	 call	 ?IsUsableItem@@YAHPAVCItemBase@@@Z ; IsUsableItem
  0007a	83 c4 04	 add	 esp, 4
  0007d	85 c0		 test	 eax, eax
  0007f	0f 84 b6 04 00
	00		 je	 $LN128@DoUseItem

; 1369 : 		return FALSE;
; 1370 : 
; 1371 : 	CItemElem* pItemElem = (CItemElem*)pItemBase;
; 1372 : 	ItemProp* pItemProp  = pItemBase->GetProp();

  00085	8b ce		 mov	 ecx, esi
  00087	e8 00 00 00 00	 call	 ?GetPropA@CItemBase@@QAEPAUItemProp@@XZ ; CItemBase::GetPropA
  0008c	8b d8		 mov	 ebx, eax
  0008e	89 9d bc fe ff
	ff		 mov	 DWORD PTR _pItemProp$1$[ebp], ebx

; 1373 : 
; 1374 : 	if( pItemProp->dwItemKind3 == IK3_LINK )

  00094	83 7b 78 68	 cmp	 DWORD PTR [ebx+120], 104 ; 00000068H
  00098	75 20		 jne	 SHORT $LN278@DoUseItem

; 1375 : 	{
; 1376 : 		pItemProp	= prj.GetItemProp( pItemProp->dwActiveSkill );

  0009a	ff b3 70 01 00
	00		 push	 DWORD PTR [ebx+368]
  000a0	b9 00 00 00 00	 mov	 ecx, OFFSET ?prj@@3VCProject@@A ; prj
  000a5	e8 00 00 00 00	 call	 ?GetItemProp@CProject@@QAEPAUItemProp@@H@Z ; CProject::GetItemProp
  000aa	8b d8		 mov	 ebx, eax
  000ac	89 9d bc fe ff
	ff		 mov	 DWORD PTR _pItemProp$1$[ebp], ebx

; 1377 : 		if( pItemProp == NULL )

  000b2	85 db		 test	 ebx, ebx
  000b4	0f 84 81 04 00
	00		 je	 $LN128@DoUseItem
$LN278@DoUseItem:

; 1378 : 			return FALSE;
; 1379 : 	}
; 1380 : 
; 1381 : 	DWORD dwItemKind1    = pItemProp->dwItemKind1;
; 1382 : 	DWORD dwItemKind2    = pItemProp->dwItemKind2;
; 1383 : 	DWORD dwItemKind3    = pItemProp->dwItemKind3;
; 1384 : 
; 1385 : 	// ±ćµĺ´ëŔü¸ĘżˇĽ­ Ľ±Ľö¸¸ »çżë
; 1386 : 	CWorld* pWorld	= GetWorld();

  000ba	8b 87 6c 01 00
	00		 mov	 eax, DWORD PTR [edi+364]

; 1387 : 	if( pWorld && pWorld->GetID() == WI_WORLD_GUILDWAR )

  000c0	85 c0		 test	 eax, eax
  000c2	74 3a		 je	 SHORT $LN15@DoUseItem
  000c4	81 38 ca 00 00
	00		 cmp	 DWORD PTR [eax], 202	; 000000caH
  000ca	75 32		 jne	 SHORT $LN15@DoUseItem

; 1388 : 	{			
; 1389 : 		if( m_nGuildCombatState == 0 )

  000cc	83 bf b0 0d 00
	00 00		 cmp	 DWORD PTR [edi+3504], 0
  000d3	75 29		 jne	 SHORT $LN15@DoUseItem

; 1390 : 		{
; 1391 : 			if( IsPlayer() )

  000d5	83 bf 30 02 00
	00 00		 cmp	 DWORD PTR [edi+560], 0
  000dc	0f 84 59 04 00
	00		 je	 $LN128@DoUseItem

; 1392 : 				((CUser*) this)->AddText( prj.GetText( TID_GAME_GUILDCOMBAT_STANDS_NOTUSEITEM ) );	//"ĽöÁ¤ÇŘľßÇÔ : °üÁßĽ®żˇĽ­´Â ľĆŔĚĹŰŔ» »çżëÇŇĽö ľř˝Ŕ´Ď´Ů" );

  000e2	68 a3 0b 00 00	 push	 2979			; 00000ba3H
  000e7	b9 00 00 00 00	 mov	 ecx, OFFSET ?prj@@3VCProject@@A ; prj
  000ec	e8 00 00 00 00	 call	 ?GetText@CProject@@QAEPBDK@Z ; CProject::GetText
  000f1	50		 push	 eax
  000f2	8b cf		 mov	 ecx, edi
  000f4	e8 00 00 00 00	 call	 ?AddText@CUser@@QAEXPBD@Z ; CUser::AddText

; 1393 : 			return FALSE;
; 1394 : 		}
; 1395 : 	}
; 1396 : #if __VER >= 10 // __LEGEND	//	10Â÷ Ŕü˝Â˝Ă˝şĹŰ	Neuz, World, Trans Ľ®Č­µđąöÇÁżˇ °É¸®¸é ľĆŔĚĹŰ »çżë±ÝÁö
; 1397 : 	if( GetAdjParam( DST_CHRSTATE ) & CHS_SETSTONE)

  000f9	e9 3d 04 00 00	 jmp	 $LN128@DoUseItem
$LN15@DoUseItem:
  000fe	6a 40		 push	 64			; 00000040H
  00100	8b cf		 mov	 ecx, edi
  00102	e8 00 00 00 00	 call	 ?GetAdjParam@CMover@@QAEHH@Z ; CMover::GetAdjParam
  00107	a9 00 00 10 00	 test	 eax, 1048576		; 00100000H
  0010c	0f 85 29 04 00
	00		 jne	 $LN128@DoUseItem

; 1398 : 		return FALSE;
; 1399 : #endif	//__LEGEND	//	10Â÷ Ŕü˝Â˝Ă˝şĹŰ	Neuz, World, Trans
; 1400 : 	if( pItemProp->dwParts != NULL_ID )

  00112	83 bb a8 00 00
	00 ff		 cmp	 DWORD PTR [ebx+168], -1
  00119	74 2f		 je	 SHORT $LN18@DoUseItem
; File C:\IAGOS\server\v18\Source\Source\_AIInterface\Action.h

; 322  : 	BOOL			IsActAttack()		{ return m_dwState & OBJSTA_ATK_ALL; }

  0011b	8b 87 38 02 00
	00		 mov	 eax, DWORD PTR [edi+568]
  00121	f7 40 04 00 00
	ff 00		 test	 DWORD PTR [eax+4], 16711680 ; 00ff0000H
; File C:\IAGOS\server\v18\Source\Source\_Common\MoverSkill.cpp

; 1403 : 		if( m_pActMover->IsActAttack() == FALSE )	// °ř°ÝÁßżŁ Ŕĺşń ¸řąŮ˛Ţ.

  00128	0f 85 48 0b 00
	00		 jne	 $LN19@DoUseItem

; 1404 : 		{
; 1405 : 			DoUseEquipmentItem( pItemElem, dwId, nPart );

  0012e	ff 75 10	 push	 DWORD PTR _nPart$[ebp]
  00131	8b 4d 08	 mov	 ecx, DWORD PTR _dwData$[ebp]
  00134	0f b7 c1	 movzx	 eax, cx
  00137	8b cf		 mov	 ecx, edi
  00139	50		 push	 eax
  0013a	56		 push	 esi
  0013b	e8 00 00 00 00	 call	 ?DoUseEquipmentItem@CMover@@QAEHPAVCItemElem@@KH@Z ; CMover::DoUseEquipmentItem

; 1904 : 	}
; 1905 : 	
; 1906 : #endif // WORLDSERVER
; 1907 : 
; 1908 : 	return TRUE;

  00140	b8 01 00 00 00	 mov	 eax, 1
  00145	e9 f3 03 00 00	 jmp	 $LN1@DoUseItem
$LN18@DoUseItem:

; 1406 : 		}
; 1407 : 		// ŔĺÂř ľĆŔĚĹŰŔş Ĺ»Âř °ˇ´ÉÇŘľßÇĎąÇ·Î ±â°Ł ¸¸·áżˇ ŔÇÇŃ »çżë Á¦ÇŃ ľřŔ˝.
; 1408 : 	}
; 1409 : 	else	// ŔĎąÝŔűŔÎ ľĆŔĚĹŰ »çżë 
; 1410 : 	{
; 1411 : 		if( IsItemRedyTime( pItemProp, pItemElem->m_dwObjId, TRUE ) == FALSE )

  0014a	6a 01		 push	 1
  0014c	ff 76 04	 push	 DWORD PTR [esi+4]
  0014f	8b cf		 mov	 ecx, edi
  00151	53		 push	 ebx
  00152	e8 00 00 00 00	 call	 ?IsItemRedyTime@CMover@@QAEHPAUItemProp@@KH@Z ; CMover::IsItemRedyTime
  00157	85 c0		 test	 eax, eax
  00159	0f 84 dc 03 00
	00		 je	 $LN128@DoUseItem

; 1412 : 			return FALSE;
; 1413 : 
; 1414 : 		DWORD dwGroup = 0;
; 1415 : 
; 1416 : 		if( IsPlayer() )

  0015f	83 bf 30 02 00
	00 00		 cmp	 DWORD PTR [edi+560], 0
  00166	c7 85 ac fe ff
	ff 00 00 00 00	 mov	 DWORD PTR _dwGroup$1$[ebp], 0
  00170	74 29		 je	 SHORT $LN24@DoUseItem

; 1417 : 		{
; 1418 : 			CUser* pUser = (CUser*)this;
; 1419 : 
; 1420 : 			dwGroup = pUser->m_cooltimeMgr.GetGroup( pItemProp );

  00172	53		 push	 ebx
  00173	e8 00 00 00 00	 call	 ?GetGroup@CCooltimeMgr@@SAKPAUItemProp@@@Z ; CCooltimeMgr::GetGroup
  00178	8b c8		 mov	 ecx, eax
  0017a	83 c4 04	 add	 esp, 4
  0017d	89 8d ac fe ff
	ff		 mov	 DWORD PTR _dwGroup$1$[ebp], ecx

; 1421 : 			if( dwGroup )

  00183	85 c9		 test	 ecx, ecx
  00185	74 14		 je	 SHORT $LN24@DoUseItem

; 1422 : 			{
; 1423 : 				if( pUser->m_cooltimeMgr.CanUse( dwGroup ) == FALSE )

  00187	51		 push	 ecx
  00188	8d 8f 98 8e 00
	00		 lea	 ecx, DWORD PTR [edi+36504]
  0018e	e8 00 00 00 00	 call	 ?CanUse@CCooltimeMgr@@QAEHK@Z ; CCooltimeMgr::CanUse
  00193	85 c0		 test	 eax, eax
  00195	0f 84 a0 03 00
	00		 je	 $LN128@DoUseItem
$LN24@DoUseItem:

; 1424 : 				{
; 1425 : 					return FALSE;
; 1426 : 				}
; 1427 : 			}
; 1428 : 		}
; 1429 : 
; 1430 : 		// şń »óżëČ­ ľĆŔĚĹŰ
; 1431 : 		switch( pItemProp->dwItemKind2 )

  0019b	8b 43 74	 mov	 eax, DWORD PTR [ebx+116]
  0019e	83 c0 f5	 add	 eax, -11		; fffffff5H
  001a1	83 f8 2c	 cmp	 eax, 44			; 0000002cH
  001a4	0f 87 24 0a 00
	00		 ja	 $LN129@DoUseItem
  001aa	0f b6 80 00 00
	00 00		 movzx	 eax, BYTE PTR $LN301@DoUseItem[eax]
  001b1	ff 24 85 00 00
	00 00		 jmp	 DWORD PTR $LN302@DoUseItem[eax*4]
$LN25@DoUseItem:

; 1438 : 					if( GuildHouseMng->SendWorldToDatabase( static_cast<CUser*>( this ), GUILDHOUSE_PCKTTYPE_LISTUP, GH_Fntr_Info( pItemProp->dwID ) ) )

  001b8	6a ff		 push	 -1
  001ba	6a 00		 push	 0
  001bc	83 ec 10	 sub	 esp, 16			; 00000010H
; File C:\IAGOS\server\v18\Source\Source\DX_SDK\d3dx9math.inl

; 302  :     z = fz;

  001bf	c7 85 b8 fe ff
	ff 00 00 00 00	 mov	 DWORD PTR $T2[ebp+8], 0
; File C:\IAGOS\server\v18\Source\Source\_Common\MoverSkill.cpp

; 1438 : 					if( GuildHouseMng->SendWorldToDatabase( static_cast<CUser*>( this ), GUILDHOUSE_PCKTTYPE_LISTUP, GH_Fntr_Info( pItemProp->dwID ) ) )

  001c9	8b 85 b8 fe ff
	ff		 mov	 eax, DWORD PTR $T2[ebp+8]
  001cf	8b cc		 mov	 ecx, esp
  001d1	0f 57 c0	 xorps	 xmm0, xmm0
  001d4	0f 14 c0	 unpcklps xmm0, xmm0
  001d7	c7 44 24 0c 00
	00 00 00	 mov	 DWORD PTR [esp+12], 0
  001df	66 0f d6 01	 movq	 QWORD PTR [ecx], xmm0
  001e3	6a 00		 push	 0
  001e5	ff 33		 push	 DWORD PTR [ebx]
  001e7	89 41 08	 mov	 DWORD PTR [ecx+8], eax
  001ea	8d 4d 90	 lea	 ecx, DWORD PTR $T12[ebp]
  001ed	e8 00 00 00 00	 call	 ??0GuildHouse_Furniture_Info@CGuildHouseBase@@QAE@KHUD3DXVECTOR3@@MJ@Z ; CGuildHouseBase::GuildHouse_Furniture_Info::GuildHouse_Furniture_Info
  001f2	50		 push	 eax
  001f3	6a 00		 push	 0
  001f5	57		 push	 edi
  001f6	e8 00 00 00 00	 call	 ?GetInstance@CGuildHouseMng@@SAPAV1@XZ ; CGuildHouseMng::GetInstance
  001fb	8b c8		 mov	 ecx, eax
  001fd	e8 00 00 00 00	 call	 ?SendWorldToDatabase@CGuildHouseMng@@QAEHPAVCUser@@HAAUGuildHouse_Furniture_Info@CGuildHouseBase@@H@Z ; CGuildHouseMng::SendWorldToDatabase
  00202	85 c0		 test	 eax, eax
  00204	0f 84 31 03 00
	00		 je	 $LN128@DoUseItem

; 1439 : 						g_DPSrvr.PutItemLog( static_cast<CUser*>( this ), "f", "GUILDHOUSE_LISTUP", pItemElem, 1 );

  0020a	6a 01		 push	 1
  0020c	56		 push	 esi
  0020d	68 00 00 00 00	 push	 OFFSET ??_C@_0BC@PPLMFBOE@GUILDHOUSE_LISTUP@
  00212	68 00 00 00 00	 push	 OFFSET ??_C@_01INIBCBCB@f@
  00217	57		 push	 edi
  00218	b9 00 00 00 00	 mov	 ecx, OFFSET ?g_DPSrvr@@3VCDPSrvr@@A ; g_DPSrvr
  0021d	e8 00 00 00 00	 call	 ?PutItemLog@CDPSrvr@@QAEXPAVCUser@@PBD1PAVCItemElem@@H@Z ; CDPSrvr::PutItemLog

; 1440 : 					else
; 1441 : 						return FALSE;
; 1442 : 					break;

  00222	e9 9d 08 00 00	 jmp	 $LN130@DoUseItem
$LN30@DoUseItem:

; 1443 : 				}
; 1444 : 			case IK2_GUILDHOUES_COMEBACK:
; 1445 : 				{
; 1446 : 					if( !GuildHouseMng->EnteranceGuildHouse( static_cast<CUser*>( this ), pItemProp->dwID ) )

  00227	ff 33		 push	 DWORD PTR [ebx]
  00229	57		 push	 edi
  0022a	e8 00 00 00 00	 call	 ?GetInstance@CGuildHouseMng@@SAPAV1@XZ ; CGuildHouseMng::GetInstance
  0022f	8b c8		 mov	 ecx, eax
  00231	e8 00 00 00 00	 call	 ?EnteranceGuildHouse@CGuildHouseMng@@QAEHPAVCUser@@K@Z ; CGuildHouseMng::EnteranceGuildHouse
  00236	85 c0		 test	 eax, eax
  00238	0f 84 fd 02 00
	00		 je	 $LN128@DoUseItem
  0023e	e9 81 08 00 00	 jmp	 $LN130@DoUseItem
$LN32@DoUseItem:

; 1447 : 						return FALSE;
; 1448 : 					break;
; 1449 : 				}			
; 1450 : #endif // __GUILD_HOUSE
; 1451 : #if __VER >= 13 // __HOUSING
; 1452 : 			case IK2_FURNITURE:
; 1453 : 			case IK2_PAPERING:
; 1454 : 				{
; 1455 : 					if(	CHousingMng::GetInstance()->ReqSetFurnitureList( (CUser*)this, pItemElem->m_dwItemId ) )

  00243	ff 76 0c	 push	 DWORD PTR [esi+12]
  00246	57		 push	 edi
  00247	e8 00 00 00 00	 call	 ?GetInstance@CHousingMng@@SAPAV1@XZ ; CHousingMng::GetInstance
  0024c	8b c8		 mov	 ecx, eax
  0024e	e8 00 00 00 00	 call	 ?ReqSetFurnitureList@CHousingMng@@QAEHPAVCUser@@K@Z ; CHousingMng::ReqSetFurnitureList
  00253	85 c0		 test	 eax, eax
  00255	0f 84 e0 02 00
	00		 je	 $LN128@DoUseItem

; 1456 : 					{
; 1457 : 						// ÇĎżěÂˇ ¸®˝şĆ® Ăß°ˇ ·Î±×
; 1458 : 						LogItemInfo aLogItem;

  0025b	8d 8d c8 fe ff
	ff		 lea	 ecx, DWORD PTR _aLogItem$10[ebp]
  00261	e8 00 00 00 00	 call	 ??0_LogItemInfo@@QAE@XZ	; _LogItemInfo::_LogItemInfo

; 1459 : 						aLogItem.SendName	= GetName();

  00266	6a 00		 push	 0
  00268	8b cf		 mov	 ecx, edi
  0026a	e8 00 00 00 00	 call	 ?GetName@CMover@@QAEPBDH@Z ; CMover::GetName
  0026f	89 85 cc fe ff
	ff		 mov	 DWORD PTR _aLogItem$10[ebp+4], eax

; 1460 : 						aLogItem.RecvName = "HOUSING_USE";
; 1461 : 						aLogItem.WorldId	= GetWorld()->GetID();
; 1462 : 						aLogItem.Gold	= GetGold();
; 1463 : 						aLogItem.Gold2	= GetGold();
; 1464 : 						aLogItem.Action	= "f";
; 1465 : 						g_DPSrvr.OnLogItem( aLogItem, pItemElem );

  00275	b9 00 00 00 00	 mov	 ecx, OFFSET ?g_DPSrvr@@3VCDPSrvr@@A ; g_DPSrvr
  0027a	8b 87 6c 01 00
	00		 mov	 eax, DWORD PTR [edi+364]
  00280	c7 85 d0 fe ff
	ff 00 00 00 00	 mov	 DWORD PTR _aLogItem$10[ebp+8], OFFSET ??_C@_0M@HGMIEEBN@HOUSING_USE@
  0028a	6a 00		 push	 0
  0028c	56		 push	 esi
  0028d	8b 00		 mov	 eax, DWORD PTR [eax]
  0028f	89 85 d4 fe ff
	ff		 mov	 DWORD PTR _aLogItem$10[ebp+12], eax
  00295	8b 87 e0 14 00
	00		 mov	 eax, DWORD PTR [edi+5344]
  0029b	89 85 d8 fe ff
	ff		 mov	 DWORD PTR _aLogItem$10[ebp+16], eax
  002a1	89 85 dc fe ff
	ff		 mov	 DWORD PTR _aLogItem$10[ebp+20], eax
  002a7	8d 85 c8 fe ff
	ff		 lea	 eax, DWORD PTR _aLogItem$10[ebp]
  002ad	50		 push	 eax
  002ae	c7 85 c8 fe ff
	ff 00 00 00 00	 mov	 DWORD PTR _aLogItem$10[ebp], OFFSET ??_C@_01INIBCBCB@f@
  002b8	e8 00 00 00 00	 call	 ?OnLogItem@CDPSrvr@@QAEXAAU_LogItemInfo@@PAVCItemElem@@H@Z ; CDPSrvr::OnLogItem

; 1466 : 					}
; 1467 : 					else
; 1468 : 						return FALSE;
; 1469 : 					break;

  002bd	e9 02 08 00 00	 jmp	 $LN130@DoUseItem
$LN36@DoUseItem:

; 1470 : 				}
; 1471 : #endif // __HOUSING
; 1472 : #ifdef __FUNNY_COIN
; 1473 : 			case IK2_TOCASH:
; 1474 : 				{
; 1475 : 					if( !CFunnyCoin::GetInstance()->DoUseFunnyCoin( (CUser*)this, pItemElem ) )

  002c2	56		 push	 esi
  002c3	57		 push	 edi
  002c4	e8 00 00 00 00	 call	 ?GetInstance@CFunnyCoin@@SAPAV1@XZ ; CFunnyCoin::GetInstance
  002c9	8b c8		 mov	 ecx, eax
  002cb	e8 00 00 00 00	 call	 ?DoUseFunnyCoin@CFunnyCoin@@QAEHPAVCUser@@PAVCItemElem@@@Z ; CFunnyCoin::DoUseFunnyCoin
  002d0	85 c0		 test	 eax, eax
  002d2	0f 84 63 02 00
	00		 je	 $LN128@DoUseItem
  002d8	e9 e7 07 00 00	 jmp	 $LN130@DoUseItem
$LN38@DoUseItem:

; 1476 : 						return FALSE;
; 1477 : 				}
; 1478 : 				break;
; 1479 : #endif // __FUNNY_COIN
; 1480 : 			case IK2_WARP:
; 1481 : 				return DoUseItemWarp( pItemProp, pItemElem );

  002dd	56		 push	 esi
  002de	53		 push	 ebx
  002df	8b cf		 mov	 ecx, edi
  002e1	e8 00 00 00 00	 call	 ?DoUseItemWarp@CMover@@QAEHPAUItemProp@@PAVCItemElem@@@Z ; CMover::DoUseItemWarp
  002e6	e9 52 02 00 00	 jmp	 $LN1@DoUseItem
$LN39@DoUseItem:

; 1482 : #if __VER >= 11 // __SYS_COLLECTING
; 1483 : 			case IK2_BUFF2:
; 1484 : 				{
; 1485 : 					if( IsDoUseBuff( pItemProp ) != 0 )

  002eb	53		 push	 ebx
  002ec	8b cf		 mov	 ecx, edi
  002ee	e8 00 00 00 00	 call	 ?IsDoUseBuff@CMover@@QAEHPAUItemProp@@@Z ; CMover::IsDoUseBuff
  002f3	85 c0		 test	 eax, eax
  002f5	0f 85 40 02 00
	00		 jne	 $LN128@DoUseItem
; File C:\Program Files\Microsoft Visual Studio\2022\Professional\VC\Tools\MSVC\14.44.35207\atlmfc\include\atltime.h

; 276  :  	m_timeSpan = nSecs + 60* (nMins + 60* (nHours + __int64(24) * lDays));

  002fb	8b 83 e4 00 00
	00		 mov	 eax, DWORD PTR [ebx+228]
  00301	b9 3c 00 00 00	 mov	 ecx, 60			; 0000003cH
  00306	f7 e9		 imul	 ecx

; 377  : 	return( CTime( ::_time64( NULL ) ) );

  00308	6a 00		 push	 0

; 276  :  	m_timeSpan = nSecs + 60* (nMins + 60* (nHours + __int64(24) * lDays));

  0030a	8b f0		 mov	 esi, eax
  0030c	89 95 b8 fe ff
	ff		 mov	 DWORD PTR tv712[ebp+4], edx

; 377  : 	return( CTime( ::_time64( NULL ) ) );

  00312	e8 00 00 00 00	 call	 __time64
  00317	83 c4 04	 add	 esp, 4
; File C:\IAGOS\server\v18\Source\Source\_Common\MoverSkill.cpp

; 1487 : 					CTime tm	= CTime::GetCurrentTime() + CTimeSpan( 0, 0, pItemProp->dwAbilityMin, 0 );

  0031a	03 c6		 add	 eax, esi

; 1488 : 					time_t t	= (time_t)( tm.GetTime() );
; 1489 : 					// wID: dwItemId
; 1490 : 					// dwLevel
; 1491 : 					AddBuff( BUFF_ITEM2, (WORD)( pItemElem->m_dwItemId ), t, 0 ); 

  0031c	8b b5 c0 fe ff
	ff		 mov	 esi, DWORD PTR _pItemBase$1$[ebp]
  00322	8b cf		 mov	 ecx, edi
  00324	6a ff		 push	 -1
  00326	6a 00		 push	 0
  00328	50		 push	 eax
  00329	0f b7 46 0c	 movzx	 eax, WORD PTR [esi+12]
  0032d	50		 push	 eax
  0032e	6a 03		 push	 3
  00330	e8 00 00 00 00	 call	 ?AddBuff@CMover@@QAEHGGKKK@Z ; CMover::AddBuff

; 1492 : 					break;

  00335	e9 8a 07 00 00	 jmp	 $LN130@DoUseItem
$LN41@DoUseItem:

; 1493 : 				}
; 1494 : #endif	// __SYS_COLLECTING
; 1495 : #ifdef __BUFF_TOGIFT
; 1496 : 			case IK2_BUFF_TOGIFT:
; 1497 : #endif // __BUFF_TOGIFT
; 1498 : 			case IK2_BUFF:
; 1499 : 				{
; 1500 : 					if( IsDoUseBuff( pItemProp ) != 0 )

  0033a	53		 push	 ebx
  0033b	8b cf		 mov	 ecx, edi
  0033d	e8 00 00 00 00	 call	 ?IsDoUseBuff@CMover@@QAEHPAUItemProp@@@Z ; CMover::IsDoUseBuff
  00342	85 c0		 test	 eax, eax
  00344	0f 85 f1 01 00
	00		 jne	 $LN128@DoUseItem

; 1501 : 						return FALSE;
; 1502 : 					DoApplySkill( this, pItemProp, NULL );		// ´ë»óżˇ°Ô ľĆŔĚĹŰČż°ú¸¦ ŔűżëÇÔ. 

  0034a	50		 push	 eax
  0034b	50		 push	 eax
  0034c	50		 push	 eax
  0034d	50		 push	 eax
  0034e	50		 push	 eax
  0034f	53		 push	 ebx
  00350	57		 push	 edi
  00351	8b cf		 mov	 ecx, edi
  00353	e8 00 00 00 00	 call	 ?DoApplySkill@CCtrl@@QAEHPAV1@PAUItemProp@@PAUAddSkillProp@@_NHHH@Z ; CCtrl::DoApplySkill

; 1503 : #if __VER >= 8 //__CSC_VER8_5
; 1504 : 					if( pItemProp->dwItemKind3 == IK3_ANGEL_BUFF )

  00358	83 7b 78 5f	 cmp	 DWORD PTR [ebx+120], 95	; 0000005fH
  0035c	0f 85 62 07 00
	00		 jne	 $LN130@DoUseItem

; 1505 : 					{
; 1506 : 		#ifdef __EXP_ANGELEXP_LOG
; 1507 : 						((CUser*)this)->m_nAngelExpLog = 0;
; 1508 : 		#endif // __EXP_ANGELEXP_LOG
; 1509 : 		#ifdef __ANGEL_LOG
; 1510 : 						LogItemInfo aLogItem;

  00362	8d 8d c8 fe ff
	ff		 lea	 ecx, DWORD PTR _aLogItem$11[ebp]
  00368	c7 87 18 8f 00
	00 00 00 00 00	 mov	 DWORD PTR [edi+36632], 0
  00372	e8 00 00 00 00	 call	 ??0_LogItemInfo@@QAE@XZ	; _LogItemInfo::_LogItemInfo

; 1511 : 						aLogItem.Action = "&";
; 1512 : 						aLogItem.SendName = ((CUser*)this)->GetName();

  00377	6a 00		 push	 0
  00379	8b cf		 mov	 ecx, edi
  0037b	c7 85 c8 fe ff
	ff 00 00 00 00	 mov	 DWORD PTR _aLogItem$11[ebp], OFFSET ??_C@_01HNPIGOCE@?$CG@
  00385	e8 00 00 00 00	 call	 ?GetName@CMover@@QAEPBDH@Z ; CMover::GetName

; 1513 : 						aLogItem.RecvName = "ANGEL_SUMMON";
; 1514 : 						aLogItem.WorldId = ((CUser*)this)->GetWorld()->GetID();
; 1515 : 						aLogItem.Gold = aLogItem.Gold2 = ((CUser*)this)->GetGold();
; 1516 : 						//aLogItem.ItemName = pItemProp->szName;
; 1517 : 						_stprintf( aLogItem.szItemName, "%d", pItemProp->dwID );

  0038a	ff 33		 push	 DWORD PTR [ebx]
  0038c	89 85 cc fe ff
	ff		 mov	 DWORD PTR _aLogItem$11[ebp+4], eax
  00392	8b 87 6c 01 00
	00		 mov	 eax, DWORD PTR [edi+364]
  00398	c7 85 d0 fe ff
	ff 00 00 00 00	 mov	 DWORD PTR _aLogItem$11[ebp+8], OFFSET ??_C@_0N@OINNJKEM@ANGEL_SUMMON@
  003a2	68 00 00 00 00	 push	 OFFSET ??_C@_02DPKJAMEF@?$CFd@
  003a7	8b 00		 mov	 eax, DWORD PTR [eax]
  003a9	89 85 d4 fe ff
	ff		 mov	 DWORD PTR _aLogItem$11[ebp+12], eax
  003af	8b 87 e0 14 00
	00		 mov	 eax, DWORD PTR [edi+5344]
  003b5	89 85 dc fe ff
	ff		 mov	 DWORD PTR _aLogItem$11[ebp+20], eax
  003bb	89 85 d8 fe ff
	ff		 mov	 DWORD PTR _aLogItem$11[ebp+16], eax
  003c1	8d 85 ec fe ff
	ff		 lea	 eax, DWORD PTR _aLogItem$11[ebp+36]
  003c7	50		 push	 eax
  003c8	e8 00 00 00 00	 call	 _sprintf
  003cd	83 c4 0c	 add	 esp, 12			; 0000000cH

; 1518 : 						g_DPSrvr.OnLogItem( aLogItem );

  003d0	8d 85 c8 fe ff
	ff		 lea	 eax, DWORD PTR _aLogItem$11[ebp]
  003d6	b9 00 00 00 00	 mov	 ecx, OFFSET ?g_DPSrvr@@3VCDPSrvr@@A ; g_DPSrvr
  003db	6a 00		 push	 0
  003dd	6a 00		 push	 0
  003df	50		 push	 eax
  003e0	e8 00 00 00 00	 call	 ?OnLogItem@CDPSrvr@@QAEXAAU_LogItemInfo@@PAVCItemElem@@H@Z ; CDPSrvr::OnLogItem

; 1519 : 		#endif // __ANGEL_LOG
; 1520 : 						m_nAngelExp = 0;
; 1521 : 						m_nAngelLevel = GetLevel() + 1;

  003e5	8b 87 d8 05 00
	00		 mov	 eax, DWORD PTR [edi+1496]

; 1522 : 						((CUser*)this)->AddAngelInfo();

  003eb	8b cf		 mov	 ecx, edi
  003ed	40		 inc	 eax
  003ee	c7 87 60 07 00
	00 00 00 00 00	 mov	 DWORD PTR [edi+1888], 0
  003f8	6a 00		 push	 0
  003fa	c7 87 64 07 00
	00 00 00 00 00	 mov	 DWORD PTR [edi+1892], 0
  00404	89 87 68 07 00
	00		 mov	 DWORD PTR [edi+1896], eax
  0040a	e8 00 00 00 00	 call	 ?AddAngelInfo@CUser@@QAEXH@Z ; CUser::AddAngelInfo

; 1523 : 					}
; 1524 : #endif // __CSC_VER8_5
; 1525 : 				}
; 1526 : 				break;

  0040f	e9 b0 06 00 00	 jmp	 $LN130@DoUseItem
$LN45@DoUseItem:

; 1527 : 			case IK2_TEXT: //ĹŘ˝şĆ® ą®Ľ­ Ăł¸® 
; 1528 : 				// Äů˝şĆ®°ˇ ŔÖŔ¸¸é Äů˝şĆ® ˝ĂŔŰ 
; 1529 : 				if( pItemProp->dwQuestId && pItemElem->m_bItemResist == FALSE )

  00414	8b 83 40 02 00
	00		 mov	 eax, DWORD PTR [ebx+576]
  0041a	85 c0		 test	 eax, eax
  0041c	0f 84 a2 06 00
	00		 je	 $LN130@DoUseItem
  00422	80 7e 7c 00	 cmp	 BYTE PTR [esi+124], 0
  00426	0f 85 98 06 00
	00		 jne	 $LN130@DoUseItem

; 1530 : 				{
; 1531 : 					::__SetQuest( GetId(), pItemProp->dwQuestId );

  0042c	50		 push	 eax
  0042d	ff b7 bc 01 00
	00		 push	 DWORD PTR [edi+444]
  00433	e8 00 00 00 00	 call	 ?__SetQuest@@YAXKH@Z	; __SetQuest

; 1532 : 					pItemElem->m_bItemResist = TRUE;
; 1533 : 					UpdateItem( (BYTE)( pItemElem->m_dwObjId ), UI_IR, pItemElem->m_bItemResist );	

  00438	0f b6 46 04	 movzx	 eax, BYTE PTR [esi+4]
  0043c	83 c4 08	 add	 esp, 8
  0043f	8b cf		 mov	 ecx, edi
  00441	c6 46 7c 01	 mov	 BYTE PTR [esi+124], 1
  00445	6a 00		 push	 0
  00447	6a 01		 push	 1
  00449	6a 05		 push	 5
  0044b	50		 push	 eax
  0044c	e8 00 00 00 00	 call	 ?UpdateItem@CMover@@QAEXEDKK@Z ; CMover::UpdateItem

; 1534 : 				}
; 1535 : 				break;

  00451	e9 6e 06 00 00	 jmp	 $LN130@DoUseItem
$LN47@DoUseItem:

; 1536 : 			case IK2_SYSTEM:
; 1537 : 				{
; 1538 : #ifdef __JEFF_9_20
; 1539 : #ifdef __WORLDSERVER
; 1540 : 					if( pItemProp->dwLimitLevel1 != 0xFFFFFFFF )

  00456	8b 83 30 02 00
	00		 mov	 eax, DWORD PTR [ebx+560]
  0045c	83 f8 ff	 cmp	 eax, -1
  0045f	74 21		 je	 SHORT $LN49@DoUseItem

; 1541 : 					{
; 1542 : 						if( GetLevel() < (int)( pItemProp->dwLimitLevel1 ) )

  00461	39 87 d8 05 00
	00		 cmp	 DWORD PTR [edi+1496], eax
  00467	7d 19		 jge	 SHORT $LN49@DoUseItem

; 1543 : 						{
; 1544 : 							( (CUser*)this )->AddDefinedText( TID_GAME_ITEM_LEVEL, "\"%d\"", pItemProp->dwLimitLevel1 );

  00469	50		 push	 eax
  0046a	68 00 00 00 00	 push	 OFFSET ??_C@_04PNFMAOFG@?$CC?$CFd?$CC@
  0046f	68 29 0e 00 00	 push	 3625			; 00000e29H
  00474	57		 push	 edi
  00475	e8 00 00 00 00	 call	 ?AddDefinedText@CUser@@QAAXHPBDZZ ; CUser::AddDefinedText
  0047a	83 c4 10	 add	 esp, 16			; 00000010H

; 1545 : 							return FALSE;

  0047d	e9 b9 00 00 00	 jmp	 $LN128@DoUseItem
$LN49@DoUseItem:

; 1546 : 						}
; 1547 : 					}
; 1548 : #endif	// __WORLDSERVER
; 1549 : #endif	// __JEFF_9_20
; 1550 : 					int nResult = 0;
; 1551 : 					nResult = DoUseItemSystem( pItemProp, pItemElem, nPart );

  00482	ff 75 10	 push	 DWORD PTR _nPart$[ebp]
  00485	8b cf		 mov	 ecx, edi
  00487	56		 push	 esi
  00488	53		 push	 ebx
  00489	e8 00 00 00 00	 call	 ?DoUseItemSystem@CMover@@QAEHPAUItemProp@@PAVCItemElem@@H@Z ; CMover::DoUseItemSystem

; 1552 : 					{
; 1553 : 						if( 0 < nResult )

  0048e	85 c0		 test	 eax, eax
  00490	0f 8f 8d 00 00
	00		 jg	 $LN310@DoUseItem

; 1554 : 						{
; 1555 : 							if( nResult == 2 )
; 1556 : 							{
; 1557 : 								((CUser*)this)->AddDefinedText( TID_GAME_LIMITED_USE, "" ); // »çżëÁßŔĚľîĽ­ »çżëÇŇĽö ľřŔ˝
; 1558 : 							}
; 1559 : 							else if( nResult == 3 )
; 1560 : 							{
; 1561 : 								((CUser*)this)->AddDefinedText( TID_GAME_NOTOVERLAP_USE, "" ); // ŔĚ ľĆŔĚĹŰ°ú´Â ÁßşąÇĎż© »çżëÇŇ Ľö ľř˝Ŕ´Ď´Ů
; 1562 : 							}
; 1563 : 							return FALSE;
; 1564 : 						}
; 1565 : 						else
; 1566 : 						{
; 1567 : 							if( pItemElem->m_dwItemId == II_SYS_SYS_SCR_RECCURENCE_LINK )

  00496	8b 46 0c	 mov	 eax, DWORD PTR [esi+12]
  00499	3d cc 66 00 00	 cmp	 eax, 26316		; 000066ccH
  0049e	75 1c		 jne	 SHORT $LN55@DoUseItem
$LN308@DoUseItem:

; 1870 : 					}
; 1871 : 				}
; 1872 : 		} // switch ik2
; 1873 : 
; 1874 : 		switch( pItemProp->dwItemKind3 )

  004a0	68 00 00 00 00	 push	 OFFSET ??_C@_00CNPNBAHC@@
  004a5	53		 push	 ebx
  004a6	56		 push	 esi
  004a7	57		 push	 edi
  004a8	68 00 00 00 00	 push	 OFFSET ??_C@_01HIHLOKLC@1@
  004ad	b9 00 00 00 00	 mov	 ecx, OFFSET ?g_dpDBClient@@3VCDPDatabaseClient@@A ; g_dpDBClient
  004b2	e8 00 00 00 00	 call	 ?SendLogSMItemUse@CDPDatabaseClient@@QAEXPBDPAVCUser@@PAVCItemElem@@PAUItemProp@@0@Z ; CDPDatabaseClient::SendLogSMItemUse
  004b7	e9 08 06 00 00	 jmp	 $LN130@DoUseItem
$LN55@DoUseItem:

; 1568 : 							{
; 1569 : 								g_dpDBClient.SendLogSMItemUse( "1", (CUser*)this, pItemElem, pItemProp );
; 1570 : 							}
; 1571 : 
; 1572 : 							//////////////////////////////////////////////////////////////////////////
; 1573 : 							//	mulcom	BEGIN100125	ŔĚşĄĆ®żë ¸®˝şĹł ą× ŔĚşĄĆ®żë ¸®˝şĹ×Ć® »çżë ł»żŞżˇ ´ëÇŃ ·Î±× Ăß°ˇ
; 1574 : 							//						( e-mail : [ŔŻ·´] ľĆŔĚĹŰ ·Î±× Ăß°ˇ ( 2010-01-25 17:33 ) Âü°í )
; 1575 : 							else if( pItemElem->m_dwItemId == II_SYS_SYS_SCR_RECCURENCE && pItemElem->m_bCharged != TRUE )

  004bc	3d c2 28 00 00	 cmp	 eax, 10434		; 000028c2H
  004c1	75 17		 jne	 SHORT $LN283@DoUseItem
  004c3	83 be a4 00 00
	00 01		 cmp	 DWORD PTR [esi+164], 1
  004ca	0f 84 f4 05 00
	00		 je	 $LN130@DoUseItem

; 1576 : 							{
; 1577 : 								g_DPSrvr.PutItemLog( (CUser*)( this ), "w", "USE_RECCURENCE_ITEM", pItemElem, 1 );

  004d0	6a 01		 push	 1
  004d2	56		 push	 esi
  004d3	68 00 00 00 00	 push	 OFFSET ??_C@_0BE@COEAJDGE@USE_RECCURENCE_ITEM@

; 1578 : 							}

  004d8	eb 20		 jmp	 SHORT $LN307@DoUseItem
$LN283@DoUseItem:

; 1579 : 							else if(  pItemElem->m_dwItemId == II_CHR_SYS_SCR_RESTATE && pItemElem->m_bCharged != TRUE )

  004da	3d e3 27 00 00	 cmp	 eax, 10211		; 000027e3H
  004df	0f 85 df 05 00
	00		 jne	 $LN130@DoUseItem
  004e5	83 be a4 00 00
	00 01		 cmp	 DWORD PTR [esi+164], 1
  004ec	0f 84 d2 05 00
	00		 je	 $LN130@DoUseItem

; 1580 : 							{
; 1581 : 								g_DPSrvr.PutItemLog( (CUser*)( this ), "w", "USE_RESTATE_ITEM", pItemElem, 1 );

  004f2	6a 01		 push	 1
  004f4	56		 push	 esi
  004f5	68 00 00 00 00	 push	 OFFSET ??_C@_0BB@KAAKNBKL@USE_RESTATE_ITEM@
$LN307@DoUseItem:

; 1870 : 					}
; 1871 : 				}
; 1872 : 		} // switch ik2
; 1873 : 
; 1874 : 		switch( pItemProp->dwItemKind3 )

  004fa	68 00 00 00 00	 push	 OFFSET ??_C@_01NOFIACDB@w@
  004ff	57		 push	 edi
  00500	b9 00 00 00 00	 mov	 ecx, OFFSET ?g_DPSrvr@@3VCDPSrvr@@A ; g_DPSrvr
  00505	e8 00 00 00 00	 call	 ?PutItemLog@CDPSrvr@@QAEXPAVCUser@@PBD1PAVCItemElem@@H@Z ; CDPSrvr::PutItemLog
  0050a	e9 b5 05 00 00	 jmp	 $LN130@DoUseItem
$LN60@DoUseItem:

; 1582 : 							}
; 1583 : 							//	mulcom	END100125	ŔĚşĄĆ®żë ¸®˝şĹł ą× ŔĚşĄĆ®żë ¸®˝şĹ×Ć® »çżë ł»żŞżˇ ´ëÇŃ ·Î±× Ăß°ˇ
; 1584 : 							//////////////////////////////////////////////////////////////////////////
; 1585 : 						}
; 1586 : 					}
; 1587 : 				}
; 1588 : 				break;
; 1589 : #ifdef __NEW_PROP_PARAMETER
; 1590 : 			case IK2_ONCE:
; 1591 : 				{
; 1592 : 					int nResult = 0;
; 1593 : 					nResult = DoUseItemOnce( pItemProp, pItemElem, nPart );

  0050f	ff 75 10	 push	 DWORD PTR _nPart$[ebp]
  00512	8b cf		 mov	 ecx, edi
  00514	56		 push	 esi
  00515	53		 push	 ebx
  00516	e8 00 00 00 00	 call	 ?DoUseItemOnce@CMover@@QAEHPAUItemProp@@PAVCItemElem@@H@Z ; CMover::DoUseItemOnce

; 1594 : 					{
; 1595 : 						if( 0 < nResult )

  0051b	85 c0		 test	 eax, eax
  0051d	0f 8e a1 05 00
	00		 jle	 $LN130@DoUseItem
$LN310@DoUseItem:

; 1909 : }

  00523	83 f8 02	 cmp	 eax, 2
  00526	75 33		 jne	 SHORT $LN62@DoUseItem
$LN86@DoUseItem:
  00528	68 00 00 00 00	 push	 OFFSET ??_C@_00CNPNBAHC@@
  0052d	68 30 08 00 00	 push	 2096			; 00000830H
$LN311@DoUseItem:
  00532	57		 push	 edi
  00533	e8 00 00 00 00	 call	 ?AddDefinedText@CUser@@QAAXHPBDZZ ; CUser::AddDefinedText
  00538	83 c4 0c	 add	 esp, 12			; 0000000cH
$LN128@DoUseItem:
  0053b	33 c0		 xor	 eax, eax
$LN1@DoUseItem:
  0053d	8b 4d f4	 mov	 ecx, DWORD PTR __$EHRec$[ebp]
  00540	64 89 0d 00 00
	00 00		 mov	 DWORD PTR fs:0, ecx
  00547	59		 pop	 ecx
  00548	5f		 pop	 edi
  00549	5e		 pop	 esi
  0054a	5b		 pop	 ebx
  0054b	8b 4d f0	 mov	 ecx, DWORD PTR __$ArrayPad$[ebp]
  0054e	33 cd		 xor	 ecx, ebp
  00550	e8 00 00 00 00	 call	 @__security_check_cookie@4
  00555	8b e5		 mov	 esp, ebp
  00557	5d		 pop	 ebp
  00558	c2 0c 00	 ret	 12			; 0000000cH
$LN62@DoUseItem:
  0055b	83 f8 03	 cmp	 eax, 3
  0055e	75 db		 jne	 SHORT $LN128@DoUseItem
  00560	68 00 00 00 00	 push	 OFFSET ??_C@_00CNPNBAHC@@
  00565	68 63 0a 00 00	 push	 2659			; 00000a63H
  0056a	eb c6		 jmp	 SHORT $LN311@DoUseItem
$LN65@DoUseItem:

; 1596 : 						{
; 1597 : 							if( nResult == 2 )
; 1598 : 							{
; 1599 : 								((CUser*)this)->AddDefinedText( TID_GAME_LIMITED_USE, "" ); // »çżëÁßŔĚľîĽ­ »çżëÇŇĽö ľřŔ˝
; 1600 : 							}
; 1601 : 							else if( nResult == 3 )
; 1602 : 							{
; 1603 : 								((CUser*)this)->AddDefinedText( TID_GAME_NOTOVERLAP_USE, "" ); // ŔĚ ľĆŔĚĹŰ°ú´Â ÁßşąÇĎż© »çżëÇŇ Ľö ľř˝Ŕ´Ď´Ů
; 1604 : 							}
; 1605 : 							return FALSE;
; 1606 : 						}
; 1607 : 					}
; 1608 : 				}
; 1609 : 				break;
; 1610 : 			case IK2_KEEP:
; 1611 : 				{
; 1612 : #ifndef __NEW_STACKABLE_AMPS
; 1613 : 					int nResult = 0;
; 1614 : 					nResult = DoUseItemSystem( pItemProp, pItemElem, nPart );
; 1615 : 					{
; 1616 : 						if( 0 < nResult )
; 1617 : 						{
; 1618 : 							if( nResult == 2 )
; 1619 : 							{
; 1620 : 								((CUser*)this)->AddDefinedText( TID_GAME_LIMITED_USE, "" ); // »çżëÁßŔĚľîĽ­ »çżëÇŇĽö ľřŔ˝
; 1621 : 							}
; 1622 : 							else if( nResult == 3 )
; 1623 : 							{
; 1624 : 								((CUser*)this)->AddDefinedText( TID_GAME_NOTOVERLAP_USE, "" ); // ŔĚ ľĆŔĚĹŰ°ú´Â ÁßşąÇĎż© »çżëÇŇ Ľö ľř˝Ŕ´Ď´Ů
; 1625 : 							}
; 1626 : 							return FALSE;
; 1627 : 						}
; 1628 : 					}
; 1629 : #else //  __NEW_STACKABLE_AMPS
; 1630 : 					int nResult = 0;
; 1631 : 					nResult = DoUseItemKeep( pItemProp, pItemElem, nPart );

  0056c	ff 75 10	 push	 DWORD PTR _nPart$[ebp]
  0056f	8b cf		 mov	 ecx, edi
  00571	56		 push	 esi
  00572	53		 push	 ebx
  00573	e8 00 00 00 00	 call	 ?DoUseItemKeep@CMover@@QAEHPAUItemProp@@PAVCItemElem@@H@Z ; CMover::DoUseItemKeep

; 1632 : 					{
; 1633 : 						if( 0 < nResult )

  00578	85 c0		 test	 eax, eax
  0057a	0f 8e 44 05 00
	00		 jle	 $LN130@DoUseItem

; 1634 : 						{
; 1635 : 
; 1636 : 							if( nResult == 1 )

  00580	83 f8 01	 cmp	 eax, 1
  00583	75 58		 jne	 SHORT $LN67@DoUseItem

; 1637 : 							{
; 1638 : 								CString str;

  00585	8d 8d c0 fe ff
	ff		 lea	 ecx, DWORD PTR _str$4[ebp]
  0058b	e8 00 00 00 00	 call	 ??0?$CStringT@DV?$StrTraitMFC@DV?$ChTraitsCRT@D@ATL@@@@@ATL@@QAE@XZ ; ATL::CStringT<char,StrTraitMFC<char,ATL::ChTraitsCRT<char> > >::CStringT<char,StrTraitMFC<char,ATL::ChTraitsCRT<char> > >

; 1639 : 								str.Format( "%d - %d", pItemProp->nMinLimitLevel, pItemProp->nMaxLimitLevel );

  00590	ff b3 8c 02 00
	00		 push	 DWORD PTR [ebx+652]
  00596	8d 85 c0 fe ff
	ff		 lea	 eax, DWORD PTR _str$4[ebp]
  0059c	c7 45 fc 00 00
	00 00		 mov	 DWORD PTR __$EHRec$[ebp+8], 0
  005a3	ff b3 88 02 00
	00		 push	 DWORD PTR [ebx+648]
  005a9	68 00 00 00 00	 push	 OFFSET ??_C@_07PFGKEPEH@?$CFd?5?9?5?$CFd@
  005ae	50		 push	 eax
  005af	e8 00 00 00 00	 call	 ?Format@?$CStringT@DV?$StrTraitMFC@DV?$ChTraitsCRT@D@ATL@@@@@ATL@@QAAXPBDZZ ; ATL::CStringT<char,StrTraitMFC<char,ATL::ChTraitsCRT<char> > >::Format

; 1640 : 								((CUser*)this)->AddDefinedText( TID_GAME_EXP_NOTUSELEVEL, "\"%s\"", str ); // 

  005b4	ff b5 c0 fe ff
	ff		 push	 DWORD PTR _str$4[ebp]
  005ba	68 00 00 00 00	 push	 OFFSET ??_C@_04OEDFLLKD@?$CC?$CFs?$CC@
  005bf	68 fe 0a 00 00	 push	 2814			; 00000afeH
  005c4	57		 push	 edi
  005c5	e8 00 00 00 00	 call	 ?AddDefinedText@CUser@@QAAXHPBDZZ ; CUser::AddDefinedText
  005ca	83 c4 20	 add	 esp, 32			; 00000020H

; 1641 : 								return FALSE;

  005cd	8d 8d c0 fe ff
	ff		 lea	 ecx, DWORD PTR _str$4[ebp]
  005d3	e8 00 00 00 00	 call	 ??1?$CStringT@DV?$StrTraitMFC@DV?$ChTraitsCRT@D@ATL@@@@@ATL@@QAE@XZ ; ATL::CStringT<char,StrTraitMFC<char,ATL::ChTraitsCRT<char> > >::~CStringT<char,StrTraitMFC<char,ATL::ChTraitsCRT<char> > >
  005d8	e9 5e ff ff ff	 jmp	 $LN128@DoUseItem
$LN67@DoUseItem:

; 1642 : 							}
; 1643 : 							else if( nResult == 2 )

  005dd	83 f8 02	 cmp	 eax, 2
  005e0	0f 84 42 ff ff
	ff		 je	 $LN86@DoUseItem

; 1644 : 							{
; 1645 : 								((CUser*)this)->AddDefinedText( TID_GAME_LIMITED_USE, "" ); // »çżëÁßŔĚľîĽ­ »çżëÇŇĽö ľřŔ˝
; 1646 : 								return FALSE;
; 1647 : 							}
; 1648 : 							else if( nResult == 3 )

  005e6	83 f8 03	 cmp	 eax, 3
  005e9	0f 85 8c 00 00
	00		 jne	 $LN71@DoUseItem

; 1649 : 							{
; 1650 : 								CString str;

  005ef	8d 8d c4 fe ff
	ff		 lea	 ecx, DWORD PTR _str$7[ebp]
  005f5	e8 00 00 00 00	 call	 ??0?$CStringT@DV?$StrTraitMFC@DV?$ChTraitsCRT@D@ATL@@@@@ATL@@QAE@XZ ; ATL::CStringT<char,StrTraitMFC<char,ATL::ChTraitsCRT<char> > >::CStringT<char,StrTraitMFC<char,ATL::ChTraitsCRT<char> > >

; 1651 : 								str.Format( "%d", GetLevel());

  005fa	ff b7 d8 05 00
	00		 push	 DWORD PTR [edi+1496]
  00600	8d 85 c4 fe ff
	ff		 lea	 eax, DWORD PTR _str$7[ebp]
  00606	c7 45 fc 01 00
	00 00		 mov	 DWORD PTR __$EHRec$[ebp+8], 1
  0060d	68 00 00 00 00	 push	 OFFSET ??_C@_02DPKJAMEF@?$CFd@
  00612	50		 push	 eax
  00613	e8 00 00 00 00	 call	 ?Format@?$CStringT@DV?$StrTraitMFC@DV?$ChTraitsCRT@D@ATL@@@@@ATL@@QAAXPBDZZ ; ATL::CStringT<char,StrTraitMFC<char,ATL::ChTraitsCRT<char> > >::Format
  00618	83 c4 0c	 add	 esp, 12			; 0000000cH

; 1652 : 								CString szMaxBuf;

  0061b	8d 8d c0 fe ff
	ff		 lea	 ecx, DWORD PTR _szMaxBuf$5[ebp]
  00621	e8 00 00 00 00	 call	 ??0?$CStringT@DV?$StrTraitMFC@DV?$ChTraitsCRT@D@ATL@@@@@ATL@@QAE@XZ ; ATL::CStringT<char,StrTraitMFC<char,ATL::ChTraitsCRT<char> > >::CStringT<char,StrTraitMFC<char,ATL::ChTraitsCRT<char> > >

; 1653 : 								szMaxBuf.Format( "%d", pItemProp->nMaxDuplication );

  00626	ff b3 98 02 00
	00		 push	 DWORD PTR [ebx+664]
  0062c	8d 85 c0 fe ff
	ff		 lea	 eax, DWORD PTR _szMaxBuf$5[ebp]
  00632	c6 45 fc 02	 mov	 BYTE PTR __$EHRec$[ebp+8], 2
  00636	68 00 00 00 00	 push	 OFFSET ??_C@_02DPKJAMEF@?$CFd@
  0063b	50		 push	 eax
  0063c	e8 00 00 00 00	 call	 ?Format@?$CStringT@DV?$StrTraitMFC@DV?$ChTraitsCRT@D@ATL@@@@@ATL@@QAAXPBDZZ ; ATL::CStringT<char,StrTraitMFC<char,ATL::ChTraitsCRT<char> > >::Format

; 1654 : 								((CUser*)this)->AddDefinedText( TID_GAME_EXP_NOTUSE, "\"%s\" \"%s\"", str, szMaxBuf ); // 

  00641	ff b5 c0 fe ff
	ff		 push	 DWORD PTR _szMaxBuf$5[ebp]
  00647	ff b5 c4 fe ff
	ff		 push	 DWORD PTR _str$7[ebp]
  0064d	68 00 00 00 00	 push	 OFFSET ??_C@_09DPACILDJ@?$CC?$CFs?$CC?5?$CC?$CFs?$CC@
  00652	68 fd 0a 00 00	 push	 2813			; 00000afdH
  00657	57		 push	 edi
  00658	e8 00 00 00 00	 call	 ?AddDefinedText@CUser@@QAAXHPBDZZ ; CUser::AddDefinedText
  0065d	83 c4 20	 add	 esp, 32			; 00000020H

; 1655 : 								//((CUser*)this)->AddDefinedText( TID_GAME_NOTOVERLAP_USE, "" ); // ŔĚ ľĆŔĚĹŰ°ú´Â ÁßşąÇĎż© »çżëÇŇ Ľö ľř˝Ŕ´Ď´Ů
; 1656 : 								return FALSE;

  00660	8d 8d c0 fe ff
	ff		 lea	 ecx, DWORD PTR _szMaxBuf$5[ebp]
  00666	e8 00 00 00 00	 call	 ??1?$CStringT@DV?$StrTraitMFC@DV?$ChTraitsCRT@D@ATL@@@@@ATL@@QAE@XZ ; ATL::CStringT<char,StrTraitMFC<char,ATL::ChTraitsCRT<char> > >::~CStringT<char,StrTraitMFC<char,ATL::ChTraitsCRT<char> > >
  0066b	8d 8d c4 fe ff
	ff		 lea	 ecx, DWORD PTR _str$7[ebp]
  00671	e8 00 00 00 00	 call	 ??1?$CStringT@DV?$StrTraitMFC@DV?$ChTraitsCRT@D@ATL@@@@@ATL@@QAE@XZ ; ATL::CStringT<char,StrTraitMFC<char,ATL::ChTraitsCRT<char> > >::~CStringT<char,StrTraitMFC<char,ATL::ChTraitsCRT<char> > >
  00676	e9 c0 fe ff ff	 jmp	 $LN128@DoUseItem
$LN71@DoUseItem:

; 1657 : 							}
; 1658 : 							else if( nResult == 4 )

  0067b	83 f8 04	 cmp	 eax, 4
  0067e	0f 85 40 04 00
	00		 jne	 $LN130@DoUseItem
; File C:\Program Files\Microsoft Visual Studio\2022\Professional\VC\Tools\MSVC\14.44.35207\include\xtree

; 1142 :         return iterator(_Scary->_Myhead->_Left, _Scary);

  00684	8b 8f f0 02 00
	00		 mov	 ecx, DWORD PTR [edi+752]
; File C:\IAGOS\server\v18\Source\Source\_Common\MoverSkill.cpp

; 1660 : 								int nExtraEXP = 0;

  0068a	c7 85 b8 fe ff
	ff 00 00 00 00	 mov	 DWORD PTR _nExtraEXP$1$[ebp], 0
; File C:\Program Files\Microsoft Visual Studio\2022\Professional\VC\Tools\MSVC\14.44.35207\include\xtree

; 37   :     _Tree_unchecked_const_iterator(_Nodeptr _Pnode, const _Mytree* _Plist) noexcept : _Ptr(_Pnode) {

  00694	8b 01		 mov	 eax, DWORD PTR [ecx]
  00696	89 85 c4 fe ff
	ff		 mov	 DWORD PTR _i$8[ebp], eax

; 237  :         return !(*this == _Right);

  0069c	3b c1		 cmp	 eax, ecx
; File C:\IAGOS\server\v18\Source\Source\_Common\MoverSkill.cpp

; 1661 : 								for( MAPBUFF::iterator i = m_buffs.m_mapBuffs.begin(); i != m_buffs.m_mapBuffs.end(); ++i )

  0069e	0f 84 81 00 00
	00		 je	 $LN5@DoUseItem
  006a4	8b 35 40 02 00
	00		 mov	 esi, DWORD PTR ?prj@@3VCProject@@A+576
; File C:\Program Files\Microsoft Visual Studio\2022\Professional\VC\Tools\MSVC\14.44.35207\include\xtree

; 1151 :         const auto _Scary = _Get_scary();

  006aa	33 db		 xor	 ebx, ebx
  006ac	0f 1f 40 00	 npad	 4
$LL6@DoUseItem:
; File C:\IAGOS\server\v18\Source\Source\_Common\MoverSkill.cpp

; 1663 : 									ItemProp* pAmpProp = prj.GetItemProp( i->second->GetId());

  006b0	8b 40 14	 mov	 eax, DWORD PTR [eax+20]
  006b3	0f b7 48 06	 movzx	 ecx, WORD PTR [eax+6]
; File C:\IAGOS\server\v18\Source\Source\_Common\Project.h

; 1389 : 	VERIFY_RANGE_ASSERT( nIndex, 0, m_aPropItem.GetSize(), "GetItemProp range_error", NULL );

  006b7	3b ce		 cmp	 ecx, esi
  006b9	7d 23		 jge	 SHORT $LN245@DoUseItem
; File C:\IAGOS\server\v18\Source\Source\_Common\data.h

; 270  : 	if( dwIndex >= (DWORD)m_nMaxIndex )

  006bb	72 04		 jb	 SHORT $LN250@DoUseItem

; 271  : 		return NULL;

  006bd	33 c0		 xor	 eax, eax
  006bf	eb 08		 jmp	 SHORT $LN249@DoUseItem
$LN250@DoUseItem:

; 272  : 	return (T*) m_apOffset[ dwIndex ];

  006c1	a1 30 02 00 00	 mov	 eax, DWORD PTR ?prj@@3VCProject@@A+560
  006c6	8b 04 88	 mov	 eax, DWORD PTR [eax+ecx*4]
$LN249@DoUseItem:
; File C:\IAGOS\server\v18\Source\Source\_Common\MoverSkill.cpp

; 1665 : 									if( pAmpProp )

  006c9	85 c0		 test	 eax, eax
  006cb	74 2d		 je	 SHORT $LN4@DoUseItem

; 1666 : 									{
; 1667 : 										if( pAmpProp->dwItemKind3 == IK3_EXP_RATE )

  006cd	81 78 78 a4 00
	00 00		 cmp	 DWORD PTR [eax+120], 164 ; 000000a4H
  006d4	75 24		 jne	 SHORT $LN4@DoUseItem

; 1668 : 										{
; 1669 : 											nExtraEXP += pAmpProp->nEffectValue;

  006d6	03 98 9c 02 00
	00		 add	 ebx, DWORD PTR [eax+668]
  006dc	eb 1c		 jmp	 SHORT $LN4@DoUseItem
$LN245@DoUseItem:
; File C:\IAGOS\server\v18\Source\Source\_Common\Project.h

; 579  : 	LPCTSTR szErr = Error( _T( "%s min:%d, max:%d, index:%d" ), szMsg, nMin, nMax, nIndex ); 

  006de	51		 push	 ecx
  006df	56		 push	 esi
  006e0	6a 00		 push	 0
  006e2	68 00 00 00 00	 push	 OFFSET ??_C@_0BI@BEIFNGEL@GetItemProp?5range_error@
  006e7	68 00 00 00 00	 push	 OFFSET ??_C@_0BM@HMFGHCP@?$CFs?5min?3?$CFd?0?5max?3?$CFd?0?5index?3?$CFd@
  006ec	e8 00 00 00 00	 call	 ?Error@@YAPBDPBDZZ	; Error
  006f1	8b 35 40 02 00
	00		 mov	 esi, DWORD PTR ?prj@@3VCProject@@A+576
  006f7	83 c4 14	 add	 esp, 20			; 00000014H
$LN4@DoUseItem:
; File C:\IAGOS\server\v18\Source\Source\_Common\MoverSkill.cpp

; 1661 : 								for( MAPBUFF::iterator i = m_buffs.m_mapBuffs.begin(); i != m_buffs.m_mapBuffs.end(); ++i )

  006fa	8d 8d c4 fe ff
	ff		 lea	 ecx, DWORD PTR _i$8[ebp]
  00700	e8 00 00 00 00	 call	 ??E?$_Tree_iterator@V?$_Tree_val@U?$_Tree_simple_types@U?$pair@$$CBKPAVIBuff@@@std@@@std@@@std@@@std@@QAEAAV01@XZ ; std::_Tree_iterator<std::_Tree_val<std::_Tree_simple_types<std::pair<unsigned long const ,IBuff *> > > >::operator++
; File C:\Program Files\Microsoft Visual Studio\2022\Professional\VC\Tools\MSVC\14.44.35207\include\xtree

; 237  :         return !(*this == _Right);

  00705	8b 85 c4 fe ff
	ff		 mov	 eax, DWORD PTR _i$8[ebp]
  0070b	3b 87 f0 02 00
	00		 cmp	 eax, DWORD PTR [edi+752]
; File C:\IAGOS\server\v18\Source\Source\_Common\MoverSkill.cpp

; 1661 : 								for( MAPBUFF::iterator i = m_buffs.m_mapBuffs.begin(); i != m_buffs.m_mapBuffs.end(); ++i )

  00711	75 9d		 jne	 SHORT $LL6@DoUseItem
  00713	8b b5 c0 fe ff
	ff		 mov	 esi, DWORD PTR _pItemBase$1$[ebp]
  00719	89 9d b8 fe ff
	ff		 mov	 DWORD PTR _nExtraEXP$1$[ebp], ebx
  0071f	8b 9d bc fe ff
	ff		 mov	 ebx, DWORD PTR _pItemProp$1$[ebp]
$LN5@DoUseItem:

; 1670 : 										}
; 1671 : 									}
; 1672 : 								}
; 1673 : 								CString strTemp;

  00725	8d 8d c0 fe ff
	ff		 lea	 ecx, DWORD PTR _strTemp$6[ebp]
  0072b	e8 00 00 00 00	 call	 ??0?$CStringT@DV?$StrTraitMFC@DV?$ChTraitsCRT@D@ATL@@@@@ATL@@QAE@XZ ; ATL::CStringT<char,StrTraitMFC<char,ATL::ChTraitsCRT<char> > >::CStringT<char,StrTraitMFC<char,ATL::ChTraitsCRT<char> > >

; 1674 : 								strTemp.Format( "%s %d%% %s", prj.GetText( TID_GAME_EXPITEM_TOOLTIP ), nExtraEXP, prj.GetText( TID_GAME_EXPITEM_TOOLTIP1 ) );

  00730	68 25 0e 00 00	 push	 3621			; 00000e25H
  00735	b9 00 00 00 00	 mov	 ecx, OFFSET ?prj@@3VCProject@@A ; prj
  0073a	c7 45 fc 03 00
	00 00		 mov	 DWORD PTR __$EHRec$[ebp+8], 3
  00741	e8 00 00 00 00	 call	 ?GetText@CProject@@QAEPBDK@Z ; CProject::GetText
  00746	50		 push	 eax
  00747	ff b5 b8 fe ff
	ff		 push	 DWORD PTR _nExtraEXP$1$[ebp]
  0074d	b9 00 00 00 00	 mov	 ecx, OFFSET ?prj@@3VCProject@@A ; prj
  00752	68 24 0e 00 00	 push	 3620			; 00000e24H
  00757	e8 00 00 00 00	 call	 ?GetText@CProject@@QAEPBDK@Z ; CProject::GetText
  0075c	50		 push	 eax
  0075d	8d 85 c0 fe ff
	ff		 lea	 eax, DWORD PTR _strTemp$6[ebp]
  00763	68 00 00 00 00	 push	 OFFSET ??_C@_0L@PGLFOAIL@?$CFs?5?$CFd?$CF?$CF?5?$CFs@
  00768	50		 push	 eax
  00769	e8 00 00 00 00	 call	 ?Format@?$CStringT@DV?$StrTraitMFC@DV?$ChTraitsCRT@D@ATL@@@@@ATL@@QAAXPBDZZ ; ATL::CStringT<char,StrTraitMFC<char,ATL::ChTraitsCRT<char> > >::Format
  0076e	83 c4 14	 add	 esp, 20			; 00000014H

; 1675 : 								((CUser*)this)->AddText( strTemp ); // 

  00771	8b cf		 mov	 ecx, edi
  00773	ff b5 c0 fe ff
	ff		 push	 DWORD PTR _strTemp$6[ebp]
  00779	e8 00 00 00 00	 call	 ?AddText@CUser@@QAEXPBD@Z ; CUser::AddText

; 1676 : 							}

  0077e	8d 8d c0 fe ff
	ff		 lea	 ecx, DWORD PTR _strTemp$6[ebp]
  00784	c7 45 fc ff ff
	ff ff		 mov	 DWORD PTR __$EHRec$[ebp+8], -1
  0078b	e8 00 00 00 00	 call	 ??1?$CStringT@DV?$StrTraitMFC@DV?$ChTraitsCRT@D@ATL@@@@@ATL@@QAE@XZ ; ATL::CStringT<char,StrTraitMFC<char,ATL::ChTraitsCRT<char> > >::~CStringT<char,StrTraitMFC<char,ATL::ChTraitsCRT<char> > >

; 1677 : 						}
; 1678 : 					}
; 1679 : #endif // __NEW_STACKABLE_AMPS
; 1680 : 				}
; 1681 : 				break;

  00790	e9 2f 03 00 00	 jmp	 $LN130@DoUseItem
$LN76@DoUseItem:

; 1682 : #endif // __NEW_PROP_PARAMETER
; 1683 : 			case IK2_BLINKWING:
; 1684 : 				return DoUseItemBlinkWing( pItemProp, pItemElem );

  00795	6a 01		 push	 1
  00797	56		 push	 esi
  00798	53		 push	 ebx
  00799	8b cf		 mov	 ecx, edi
  0079b	e8 00 00 00 00	 call	 ?DoUseItemBlinkWing@CMover@@QAEHPAUItemProp@@PAVCItemElem@@H@Z ; CMover::DoUseItemBlinkWing
  007a0	e9 98 fd ff ff	 jmp	 $LN1@DoUseItem
$LN77@DoUseItem:

; 1685 : 
; 1686 : 			case IK2_REFRESHER:
; 1687 : 				{
; 1688 : 					if( pItemProp->dwCircleTime != (DWORD)-1 )

  007a5	8b 83 bc 01 00
	00		 mov	 eax, DWORD PTR [ebx+444]
  007ab	83 f8 ff	 cmp	 eax, -1
  007ae	74 79		 je	 SHORT $LN89@DoUseItem
; File C:\IAGOS\server\v18\Source\Source\_Common\Mover.h

; 1457 : 	BOOL			IsSMMode( int nType ) { return ( m_dwSMTime[nType] > 0 ) ? TRUE : FALSE; }

  007b0	83 bf 14 03 00
	00 00		 cmp	 DWORD PTR [edi+788], 0
; File C:\IAGOS\server\v18\Source\Source\_Common\MoverSkill.cpp

; 1690 : 						if( IsSMMode( SM_MAINTAIN_MP ) == FALSE && SetSMMode( SM_MAINTAIN_MP, pItemProp->dwCircleTime ) )

  007b7	0f 87 6b fd ff
	ff		 ja	 $LN86@DoUseItem
  007bd	50		 push	 eax
  007be	6a 06		 push	 6
  007c0	8b cf		 mov	 ecx, edi
  007c2	e8 00 00 00 00	 call	 ?SetSMMode@CMover@@QAEHHK@Z ; CMover::SetSMMode
  007c7	85 c0		 test	 eax, eax
  007c9	0f 84 59 fd ff
	ff		 je	 $LN86@DoUseItem

; 1691 : 						{
; 1692 : 							SetPointParam( DST_MP, GetMaxManaPoint() );

  007cf	6a 00		 push	 0
  007d1	8b cf		 mov	 ecx, edi
  007d3	e8 00 00 00 00	 call	 ?GetMaxManaPoint@CMover@@QAEHXZ ; CMover::GetMaxManaPoint
  007d8	50		 push	 eax
  007d9	6a 27		 push	 39			; 00000027H
  007db	8b cf		 mov	 ecx, edi
  007dd	e8 00 00 00 00	 call	 ?SetPointParam@CMover@@QAEXHHH@Z ; CMover::SetPointParam

; 1693 : 						}
; 1694 : 						else
; 1695 : 						{
; 1696 : 							((CUser*)this)->AddDefinedText( TID_GAME_LIMITED_USE, "" ); //   
; 1697 : 							return FALSE;
; 1698 : 						}
; 1699 : 						g_dpDBClient.SendLogSMItemUse( "1", (CUser*)this, pItemElem, pItemProp );
; 1700 : 					}

  007e2	e9 b9 fc ff ff	 jmp	 $LN308@DoUseItem
$LN83@DoUseItem:

; 1701 : 					else
; 1702 : 					{
; 1703 : 						if( DoUseItemFood( pItemProp, pItemElem ) == FALSE )
; 1704 : 							return FALSE;
; 1705 : 					}
; 1706 : 					break;
; 1707 : 				}
; 1708 : 			case IK2_POTION:
; 1709 : 				if( pItemProp->dwCircleTime != (DWORD)-1 )	// »óżëľĆŔĚĹŰŔş dwCircleTimeŔ» ˝č´ő¶ó. łŞÁßżˇ dwSkillTimeŔ¸·Î ĹëÇŐżąÁ¤.

  007e7	8b 83 bc 01 00
	00		 mov	 eax, DWORD PTR [ebx+444]
  007ed	83 f8 ff	 cmp	 eax, -1
  007f0	74 37		 je	 SHORT $LN89@DoUseItem
; File C:\IAGOS\server\v18\Source\Source\_Common\Mover.h

; 1457 : 	BOOL			IsSMMode( int nType ) { return ( m_dwSMTime[nType] > 0 ) ? TRUE : FALSE; }

  007f2	83 bf 18 03 00
	00 00		 cmp	 DWORD PTR [edi+792], 0
; File C:\IAGOS\server\v18\Source\Source\_Common\MoverSkill.cpp

; 1711 : 					if( IsSMMode( SM_MAINTAIN_FP ) == FALSE && SetSMMode( SM_MAINTAIN_FP, pItemProp->dwCircleTime ) )

  007f9	0f 87 29 fd ff
	ff		 ja	 $LN86@DoUseItem
  007ff	50		 push	 eax
  00800	6a 07		 push	 7
  00802	8b cf		 mov	 ecx, edi
  00804	e8 00 00 00 00	 call	 ?SetSMMode@CMover@@QAEHHK@Z ; CMover::SetSMMode
  00809	85 c0		 test	 eax, eax
  0080b	0f 84 17 fd ff
	ff		 je	 $LN86@DoUseItem

; 1712 : 					{
; 1713 : 						SetPointParam( DST_FP, GetMaxFatiguePoint() );

  00811	6a 00		 push	 0
  00813	8b cf		 mov	 ecx, edi
  00815	e8 00 00 00 00	 call	 ?GetMaxFatiguePoint@CMover@@QAEHXZ ; CMover::GetMaxFatiguePoint
  0081a	50		 push	 eax
  0081b	6a 28		 push	 40			; 00000028H
  0081d	8b cf		 mov	 ecx, edi
  0081f	e8 00 00 00 00	 call	 ?SetPointParam@CMover@@QAEXHHH@Z ; CMover::SetPointParam

; 1714 : 					}
; 1715 : 					else
; 1716 : 					{
; 1717 : 						((CUser*)this)->AddDefinedText( TID_GAME_LIMITED_USE, "" ); //   
; 1718 : 						return FALSE;
; 1719 : 					}
; 1720 : 					g_dpDBClient.SendLogSMItemUse( "1", (CUser*)this, pItemElem, pItemProp );
; 1721 : 				}

  00824	e9 77 fc ff ff	 jmp	 $LN308@DoUseItem
$LN89@DoUseItem:

; 1870 : 					}
; 1871 : 				}
; 1872 : 		} // switch ik2
; 1873 : 
; 1874 : 		switch( pItemProp->dwItemKind3 )

  00829	56		 push	 esi
  0082a	53		 push	 ebx
  0082b	8b cf		 mov	 ecx, edi
  0082d	e8 00 00 00 00	 call	 ?DoUseItemFood@CMover@@QAEHPAUItemProp@@PAVCItemElem@@@Z ; CMover::DoUseItemFood
  00832	85 c0		 test	 eax, eax
  00834	0f 84 01 fd ff
	ff		 je	 $LN128@DoUseItem
  0083a	e9 85 02 00 00	 jmp	 $LN130@DoUseItem
$LN91@DoUseItem:

; 1722 : 				else
; 1723 : 				{
; 1724 : 					if( DoUseItemFood( pItemProp, pItemElem ) == FALSE )
; 1725 : 						return FALSE;
; 1726 : 				}
; 1727 : 				break;
; 1728 : 			case IK2_FOOD:
; 1729 : 				if( DoUseItemFood( pItemProp, pItemElem ) == FALSE )
; 1730 : 					return FALSE;
; 1731 : 				break;
; 1732 : 			case IK2_AIRFUEL:	// şńÇŕż¬·á·ů
; 1733 : 				{
; 1734 : 					ItemProp *pRideProp = prj.GetItemProp( m_dwRideItemIdx );	// şřŔÚ·ç ÇÁ·ÎĆŰĆĽ

  0083f	ff b7 e4 14 00
	00		 push	 DWORD PTR [edi+5348]
  00845	b9 00 00 00 00	 mov	 ecx, OFFSET ?prj@@3VCProject@@A ; prj
  0084a	e8 00 00 00 00	 call	 ?GetItemProp@CProject@@QAEPAUItemProp@@H@Z ; CProject::GetItemProp
  0084f	8b d0		 mov	 edx, eax

; 1735 : 					if( pRideProp && TRUE == IsPlayer() && m_pActMover->IsFly() )

  00851	85 d2		 test	 edx, edx
  00853	0f 84 e2 fc ff
	ff		 je	 $LN128@DoUseItem
  00859	83 bf 30 02 00
	00 01		 cmp	 DWORD PTR [edi+560], 1
  00860	0f 85 d5 fc ff
	ff		 jne	 $LN128@DoUseItem
  00866	8b 8f 38 02 00
	00		 mov	 ecx, DWORD PTR [edi+568]
  0086c	f6 41 08 08	 test	 BYTE PTR [ecx+8], 8
  00870	0f 84 c5 fc ff
	ff		 je	 $LN128@DoUseItem

; 1736 : 					{
; 1737 : 						if( pItemProp->dwItemKind3 == IK3_ACCEL )	// °ˇĽÓ ż¬·á

  00876	8b 43 78	 mov	 eax, DWORD PTR [ebx+120]
  00879	83 f8 30	 cmp	 eax, 48			; 00000030H
  0087c	75 12		 jne	 SHORT $LN94@DoUseItem

; 1738 : 						{
; 1739 : 							m_tmAccFuel = pItemProp->dwAFuelReMax * 1000;;	// ¸îĂĘ°Ł °ˇĽÓÇŇĽö ŔÖłÄ.

  0087e	69 83 d4 00 00
	00 e8 03 00 00	 imul	 eax, DWORD PTR [ebx+212], 1000
  00888	89 87 7c 06 00
	00		 mov	 DWORD PTR [edi+1660], eax

; 1740 : 						}

  0088e	eb 57		 jmp	 SHORT $LN99@DoUseItem
$LN94@DoUseItem:

; 1741 : 						else
; 1742 : 						{	// şńÇŕż¬·á
; 1743 : 							if( pRideProp->dwItemKind3 == IK3_BOARD && pItemProp->dwItemKind3 == IK3_CFLIGHT )	// Ĺ¸°íŔÖ´Â°Ç ş¸µĺ / »çżëÇĎ·Á´Â°Ç şřŔÚ·çżë

  00890	8b 4a 78	 mov	 ecx, DWORD PTR [edx+120]
  00893	83 f9 28	 cmp	 ecx, 40			; 00000028H
  00896	75 14		 jne	 SHORT $LN96@DoUseItem
  00898	83 f8 34	 cmp	 eax, 52			; 00000034H
  0089b	75 28		 jne	 SHORT $LN98@DoUseItem

; 1744 : 							{
; 1745 : 								((CUser*)this)->AddDefinedText( TID_GAME_COMBFUEL, "" );	// ŔĚ°Ç şřŔÚ·çżëŔĚż©~

  0089d	68 00 00 00 00	 push	 OFFSET ??_C@_00CNPNBAHC@@
  008a2	68 7b 04 00 00	 push	 1147			; 0000047bH

; 1746 : 								return FALSE;

  008a7	e9 86 fc ff ff	 jmp	 $LN311@DoUseItem
$LN96@DoUseItem:

; 1747 : 							}
; 1748 : 							else
; 1749 : 							if( pRideProp->dwItemKind3 == IK3_STICK && pItemProp->dwItemKind3 == IK3_BFLIGHT )	// Ĺ¸°íŔÖ´Â°Ç şřŔÚ·ç / »çżëÇĎ·Á´Â°Ç ş¸µĺżë

  008ac	83 f9 29	 cmp	 ecx, 41			; 00000029H
  008af	75 14		 jne	 SHORT $LN98@DoUseItem
  008b1	83 f8 35	 cmp	 eax, 53			; 00000035H
  008b4	75 0f		 jne	 SHORT $LN98@DoUseItem

; 1750 : 							{
; 1751 : 								((CUser*)this)->AddDefinedText( TID_GAME_BOARDFUEL, "" );	// ŔĚ°Ç ş¸µĺżëŔĚż©~

  008b6	68 00 00 00 00	 push	 OFFSET ??_C@_00CNPNBAHC@@
  008bb	68 7c 04 00 00	 push	 1148			; 0000047cH

; 1752 : 								return FALSE;

  008c0	e9 6d fc ff ff	 jmp	 $LN311@DoUseItem
$LN98@DoUseItem:

; 1753 : 							}
; 1754 : 								
; 1755 : 							m_nFuel += pItemProp->dwFuelRe;		// ĂćŔü·®.

  008c5	8b 87 78 06 00
	00		 mov	 eax, DWORD PTR [edi+1656]
  008cb	03 83 d0 00 00
	00		 add	 eax, DWORD PTR [ebx+208]
  008d1	89 87 78 06 00
	00		 mov	 DWORD PTR [edi+1656], eax

; 1756 : 							if( (DWORD)( m_nFuel ) >= pRideProp->dwFFuelReMax )	// şřŔÚ·ç ż¬·áĹëş¸´Ů Ĺ©¸é łˇ.

  008d7	8b 8a 2c 02 00
	00		 mov	 ecx, DWORD PTR [edx+556]
  008dd	3b c1		 cmp	 eax, ecx
  008df	72 06		 jb	 SHORT $LN99@DoUseItem

; 1757 : 								m_nFuel = pRideProp->dwFFuelReMax;

  008e1	89 8f 78 06 00
	00		 mov	 DWORD PTR [edi+1656], ecx
$LN99@DoUseItem:

; 1758 : 						}
; 1759 : 						((CUser *)this)->AddSetFuel( m_nFuel, m_tmAccFuel );		// şŻČ­µČ ·®Ŕ» ŔüĽŰ. - SetPointParamżˇ´Ů ÇŐĂÄµµ ±¦ÂúŔ»µí?

  008e7	ff b7 7c 06 00
	00		 push	 DWORD PTR [edi+1660]
  008ed	8b cf		 mov	 ecx, edi
  008ef	ff b7 78 06 00
	00		 push	 DWORD PTR [edi+1656]
  008f5	e8 00 00 00 00	 call	 ?AddSetFuel@CUser@@QAEXHK@Z ; CUser::AddSetFuel

; 1760 : 					} else
; 1761 : 						return FALSE;
; 1762 : 				}
; 1763 : 				break;

  008fa	e9 c5 01 00 00	 jmp	 $LN130@DoUseItem
$LN100@DoUseItem:

; 1764 : 
; 1765 : 			case IK2_GMTEXT:
; 1766 : 				{
; 1767 : 					BOOL bGMTime = TRUE;
; 1768 : 					if( pItemProp->dwSkillTime != NULL_ID )		// ÁöĽÓ˝Ă°ŁŔĚ ŔÖ´Â ľĆŔĚĹŰ

  008ff	83 bb c0 01 00
	00 ff		 cmp	 DWORD PTR [ebx+448], -1
  00906	74 6f		 je	 SHORT $LN304@DoUseItem

; 1769 : 					{
; 1770 : 						if( pItemProp->dwItemKind3 == IK3_TEXT_DISGUISE )	// şŻ˝Ĺ ľĆŔĚĹŰŔş şńÇŕÁßżˇ´Â »çżëÇŇĽö ľřŔ˝.

  00908	83 7b 78 51	 cmp	 DWORD PTR [ebx+120], 81	; 00000051H
  0090c	75 4d		 jne	 SHORT $LN285@DoUseItem

; 1771 : 						{
; 1772 : 							if( IsFly() )

  0090e	8b 87 38 02 00
	00		 mov	 eax, DWORD PTR [edi+568]
  00914	f6 40 08 08	 test	 BYTE PTR [eax+8], 8
  00918	74 17		 je	 SHORT $LN103@DoUseItem

; 1773 : 							{
; 1774 : 								((CUser*)this)->AddDefinedText( TID_PK_FLIGHT_NOUSE, "" ); // şńÇŕ Áßżˇ´Â »çżëÇŇ Ľö ľř˝Ŕ´Ď´Ů.

  0091a	68 00 00 00 00	 push	 OFFSET ??_C@_00CNPNBAHC@@
  0091f	68 c2 09 00 00	 push	 2498			; 000009c2H
  00924	57		 push	 edi
  00925	e8 00 00 00 00	 call	 ?AddDefinedText@CUser@@QAAXHPBDZZ ; CUser::AddDefinedText
  0092a	83 c4 0c	 add	 esp, 12			; 0000000cH

; 1775 : 								bGMTime = FALSE;

  0092d	33 f6		 xor	 esi, esi

; 1776 : 							}

  0092f	eb 4b		 jmp	 SHORT $LN108@DoUseItem
$LN103@DoUseItem:

; 1778 : 							else if( CInstanceDungeonHelper::GetInstance()->IsInstanceDungeon( GetWorld()->GetID() ) )

  00931	8b 87 6c 01 00
	00		 mov	 eax, DWORD PTR [edi+364]
  00937	8b 30		 mov	 esi, DWORD PTR [eax]
  00939	e8 00 00 00 00	 call	 ?GetInstance@CInstanceDungeonHelper@@SAPAV1@XZ ; CInstanceDungeonHelper::GetInstance
; File C:\IAGOS\server\v18\Source\Source\_Common\InstanceDungeonBase.h

; 205  : 	BOOL	IsInstanceDungeon( DWORD dwWorldId )	{ return GetType( dwWorldId ) != NULL_ID; }

  0093e	56		 push	 esi
  0093f	8b c8		 mov	 ecx, eax
  00941	e8 00 00 00 00	 call	 ?GetType@CInstanceDungeonHelper@@AAEHK@Z ; CInstanceDungeonHelper::GetType
  00946	83 f8 ff	 cmp	 eax, -1
; File C:\IAGOS\server\v18\Source\Source\_Common\MoverSkill.cpp

; 1778 : 							else if( CInstanceDungeonHelper::GetInstance()->IsInstanceDungeon( GetWorld()->GetID() ) )

  00949	74 10		 je	 SHORT $LN285@DoUseItem

; 1779 : 							{
; 1780 : 								((CUser*)this)->AddDefinedText( TID_GAME_INSTANCE_DISGUISE01 );

  0094b	68 9a 10 00 00	 push	 4250			; 0000109aH
  00950	8b cf		 mov	 ecx, edi
  00952	e8 00 00 00 00	 call	 ?AddDefinedText@CUser@@QAEXH@Z ; CUser::AddDefinedText

; 1781 : 								bGMTime = FALSE;

  00957	33 f6		 xor	 esi, esi
  00959	eb 21		 jmp	 SHORT $LN108@DoUseItem
$LN285@DoUseItem:

; 1782 : 							}
; 1783 : #endif // __INSTANCE_DUNGEON	// ŔÎ´ř ł» ¶Ç´Â ŔÔŔĺ˝Ă şŻ˝Ĺ±¸ »çżë ±ÝÁö
; 1784 : 						}
; 1785 : 						if( bGMTime )
; 1786 : 						{
; 1787 : 							if( !HasBuffByIk3( pItemProp->dwItemKind3 ) )

  0095b	ff 73 78	 push	 DWORD PTR [ebx+120]
  0095e	8b cf		 mov	 ecx, edi
  00960	e8 00 00 00 00	 call	 ?HasBuffByIk3@CMover@@QAEHK@Z ; CMover::HasBuffByIk3
  00965	85 c0		 test	 eax, eax
  00967	75 70		 jne	 SHORT $LN107@DoUseItem

; 1788 : 							{
; 1789 : 								DoApplySkill( this, pItemProp, NULL );		// ´ë»óżˇ°Ô ľĆŔĚĹŰČż°ú¸¦ ŔűżëÇÔ. 

  00969	50		 push	 eax
  0096a	50		 push	 eax
  0096b	50		 push	 eax
  0096c	50		 push	 eax
  0096d	50		 push	 eax
  0096e	53		 push	 ebx
  0096f	57		 push	 edi
  00970	8b cf		 mov	 ecx, edi
  00972	e8 00 00 00 00	 call	 ?DoApplySkill@CCtrl@@QAEHPAV1@PAUItemProp@@PAUAddSkillProp@@_NHHH@Z ; CCtrl::DoApplySkill
$LN304@DoUseItem:

; 1795 : 							}
; 1796 : 						}								
; 1797 : 					}
; 1798 : 
; 1799 : 					if(  pItemProp->dwID == II_SYS_SYS_GM_NODISGUISE )

  00977	be 01 00 00 00	 mov	 esi, 1
$LN108@DoUseItem:
  0097c	81 3b 8f 65 00
	00		 cmp	 DWORD PTR [ebx], 25999	; 0000658fH
  00982	75 1a		 jne	 SHORT $LN111@DoUseItem

; 1800 : 					{
; 1801 : 						if( HasBuffByIk3( IK3_TEXT_DISGUISE ) )

  00984	6a 51		 push	 81			; 00000051H
  00986	8b cf		 mov	 ecx, edi
  00988	e8 00 00 00 00	 call	 ?HasBuffByIk3@CMover@@QAEHK@Z ; CMover::HasBuffByIk3
  0098d	85 c0		 test	 eax, eax
  0098f	0f 84 a6 fb ff
	ff		 je	 $LN128@DoUseItem

; 1802 : 							RemoveIk3Buffs( IK3_TEXT_DISGUISE );

  00995	6a 51		 push	 81			; 00000051H
  00997	8b cf		 mov	 ecx, edi
  00999	e8 00 00 00 00	 call	 ?RemoveIk3Buffs@CMover@@QAEXK@Z ; CMover::RemoveIk3Buffs
$LN111@DoUseItem:

; 1803 : 						else
; 1804 : 							bGMTime = FALSE;
; 1805 : 					}
; 1806 : 
; 1807 : 					if( bGMTime )

  0099e	85 f6		 test	 esi, esi
  009a0	0f 84 95 fb ff
	ff		 je	 $LN128@DoUseItem

; 1808 : 					{
; 1809 : 						if( pItemProp->dwID != II_SYS_SYS_GM_NODISGUISE )

  009a6	81 3b 8f 65 00
	00		 cmp	 DWORD PTR [ebx], 25999	; 0000658fH
  009ac	0f 84 0c 01 00
	00		 je	 $LN303@DoUseItem

; 1810 : 						{
; 1811 : 							char szGMCommand[64] = {0,};

  009b2	6a 40		 push	 64			; 00000040H
  009b4	8d 45 b0	 lea	 eax, DWORD PTR _szGMCommand$13[ebp]
  009b7	6a 00		 push	 0
  009b9	50		 push	 eax
  009ba	e8 00 00 00 00	 call	 _memset
  009bf	83 c4 0c	 add	 esp, 12			; 0000000cH

; 1812 : 							CString szGMText = pItemProp->szTextFileName;

  009c2	8d b3 44 02 00
	00		 lea	 esi, DWORD PTR [ebx+580]
; File C:\Program Files\Microsoft Visual Studio\2022\Professional\VC\Tools\MSVC\14.44.35207\atlmfc\include\afxstr.h

; 56   : 		return( AfxGetStringManager() );

  009c8	e8 00 00 00 00	 call	 ?AfxGetStringManager@@YGPAUIAtlStringMgr@ATL@@XZ ; AfxGetStringManager
  009cd	8b c8		 mov	 ecx, eax
; File C:\Program Files\Microsoft Visual Studio\2022\Professional\VC\Tools\MSVC\14.44.35207\atlmfc\include\atlsimpstr.h

; 209  : 		ATLENSURE( pStringMgr != NULL );

  009cf	85 c9		 test	 ecx, ecx
  009d1	0f 84 a9 02 00
	00		 je	 $LN313@DoUseItem
  009d7	eb 17		 jmp	 SHORT $LN180@DoUseItem
$LN107@DoUseItem:
; File C:\IAGOS\server\v18\Source\Source\_Common\MoverSkill.cpp

; 1793 : 								((CUser*)this)->AddDefinedText( TID_GAME_LIMITED_USE, "" ); // »çżëÁßŔĚľîĽ­ »çżëÇŇĽö ľřŔ˝

  009d9	68 00 00 00 00	 push	 OFFSET ??_C@_00CNPNBAHC@@
  009de	68 30 08 00 00	 push	 2096			; 00000830H
  009e3	57		 push	 edi
  009e4	e8 00 00 00 00	 call	 ?AddDefinedText@CUser@@QAAXHPBDZZ ; CUser::AddDefinedText
  009e9	83 c4 0c	 add	 esp, 12			; 0000000cH

; 1794 : 								bGMTime = FALSE;

  009ec	33 f6		 xor	 esi, esi
  009ee	eb 8c		 jmp	 SHORT $LN108@DoUseItem
$LN180@DoUseItem:
; File C:\Program Files\Microsoft Visual Studio\2022\Professional\VC\Tools\MSVC\14.44.35207\atlmfc\include\atlsimpstr.h

; 210  : 		CStringData* pData = pStringMgr->GetNilString();

  009f0	8b 01		 mov	 eax, DWORD PTR [ecx]
  009f2	ff 50 0c	 call	 DWORD PTR [eax+12]

; 211  : 		Attach( pData );

  009f5	83 c0 10	 add	 eax, 16			; 00000010H
  009f8	89 85 c4 fe ff
	ff		 mov	 DWORD PTR _szGMText$9[ebp], eax
; File C:\Program Files\Microsoft Visual Studio\2022\Professional\VC\Tools\MSVC\14.44.35207\atlmfc\include\cstringt.h

; 1052 : 		CThisSimpleString( StringTraits::GetDefaultManager() )

  009fe	c7 45 fc 04 00
	00 00		 mov	 DWORD PTR __$EHRec$[ebp+8], 4

; 2712 : 		if( (pv != NULL) && IS_INTRESOURCE( pv ) )

  00a05	85 f6		 test	 esi, esi
  00a07	74 19		 je	 SHORT $LN282@DoUseItem
  00a09	f7 c6 00 00 ff
	ff		 test	 esi, -65536		; ffff0000H
  00a0f	75 11		 jne	 SHORT $LN282@DoUseItem

; 2713 : 		{
; 2714 : 			UINT nID = LOWORD( reinterpret_cast< DWORD_PTR >( pv ) );

  00a11	0f b7 c6	 movzx	 eax, si

; 2715 : 			(nID);
; 2716 : #ifdef _ATL_USE_WINAPI_FAMILY_DESKTOP_APP
; 2717 : 			if( !LoadString( nID ) )

  00a14	8d 8d c4 fe ff
	ff		 lea	 ecx, DWORD PTR _szGMText$9[ebp]
  00a1a	50		 push	 eax
  00a1b	e8 00 00 00 00	 call	 ?LoadStringA@?$CStringT@DV?$StrTraitMFC@DV?$ChTraitsCRT@D@ATL@@@@@ATL@@QAEHI@Z ; ATL::CStringT<char,StrTraitMFC<char,ATL::ChTraitsCRT<char> > >::LoadStringA

; 1054 : 		if( !CheckImplicitLoad( pszSrc ) )

  00a20	eb 0c		 jmp	 SHORT $LN174@DoUseItem
$LN282@DoUseItem:

; 1055 : 		{
; 1056 : 			*this = pszSrc;

  00a22	56		 push	 esi
  00a23	8d 8d c4 fe ff
	ff		 lea	 ecx, DWORD PTR _szGMText$9[ebp]
  00a29	e8 00 00 00 00	 call	 ??4?$CStringT@DV?$StrTraitMFC@DV?$ChTraitsCRT@D@ATL@@@@@ATL@@QAEAAV01@PBD@Z ; ATL::CStringT<char,StrTraitMFC<char,ATL::ChTraitsCRT<char> > >::operator=
$LN174@DoUseItem:
; File C:\IAGOS\server\v18\Source\Source\_Common\MoverSkill.cpp

; 1813 : 							szGMText.Replace( '(', '\"' );

  00a2e	6a 22		 push	 34			; 00000022H
  00a30	6a 28		 push	 40			; 00000028H
  00a32	8d 8d c4 fe ff
	ff		 lea	 ecx, DWORD PTR _szGMText$9[ebp]
  00a38	c7 45 fc 05 00
	00 00		 mov	 DWORD PTR __$EHRec$[ebp+8], 5
  00a3f	e8 00 00 00 00	 call	 ?Replace@?$CStringT@DV?$StrTraitMFC@DV?$ChTraitsCRT@D@ATL@@@@@ATL@@QAEHDD@Z ; ATL::CStringT<char,StrTraitMFC<char,ATL::ChTraitsCRT<char> > >::Replace

; 1814 : 							szGMText.Replace( ')', '\"' ); 

  00a44	6a 22		 push	 34			; 00000022H
  00a46	6a 29		 push	 41			; 00000029H
  00a48	8d 8d c4 fe ff
	ff		 lea	 ecx, DWORD PTR _szGMText$9[ebp]
  00a4e	e8 00 00 00 00	 call	 ?Replace@?$CStringT@DV?$StrTraitMFC@DV?$ChTraitsCRT@D@ATL@@@@@ATL@@QAEHDD@Z ; ATL::CStringT<char,StrTraitMFC<char,ATL::ChTraitsCRT<char> > >::Replace
; File C:\Program Files\Microsoft Visual Studio\2022\Professional\VC\Tools\MSVC\14.44.35207\atlmfc\include\cstringt.h

; 1794 : 		int nLength = this->GetLength();

  00a53	8b b5 c4 fe ff
	ff		 mov	 esi, DWORD PTR _szGMText$9[ebp]

; 1795 : 		if( iStart < 0 || iStart > nLength )

  00a59	83 7e f4 01	 cmp	 DWORD PTR [esi-12], 1
  00a5d	7c 2c		 jl	 SHORT $LN115@DoUseItem

; 1796 : 		{
; 1797 : 			return( -1 );
; 1798 : 		}
; 1799 : 
; 1800 : 		// find first matching substring
; 1801 : 		PCXSTR psz = StringTraits::StringFindString( this->GetString()+iStart, pszSub );

  00a5f	8d 46 01	 lea	 eax, DWORD PTR [esi+1]

; 212  : 		return reinterpret_cast< LPCSTR >( _mbsstr( reinterpret_cast< const unsigned char* >( pszBlock ),

  00a62	68 00 00 00 00	 push	 OFFSET ??_C@_01KMDKNFGN@?1@
  00a67	50		 push	 eax
  00a68	e8 00 00 00 00	 call	 __mbsstr
  00a6d	83 c4 08	 add	 esp, 8

; 1804 : 		return( (psz == NULL) ? -1 : int( psz - this->GetString() ) );

  00a70	85 c0		 test	 eax, eax
  00a72	74 17		 je	 SHORT $LN115@DoUseItem
  00a74	2b c6		 sub	 eax, esi
; File C:\IAGOS\server\v18\Source\Source\_Common\MoverSkill.cpp

; 1816 : 							if( nGMCount != -1 )

  00a76	83 f8 ff	 cmp	 eax, -1
  00a79	74 10		 je	 SHORT $LN115@DoUseItem

; 1817 : 								strncpy( szGMCommand, szGMText, nGMCount );

  00a7b	50		 push	 eax
  00a7c	8d 45 b0	 lea	 eax, DWORD PTR _szGMCommand$13[ebp]
  00a7f	56		 push	 esi
  00a80	50		 push	 eax
  00a81	e8 00 00 00 00	 call	 _strncpy
  00a86	83 c4 0c	 add	 esp, 12			; 0000000cH
  00a89	eb 12		 jmp	 SHORT $LN116@DoUseItem
$LN115@DoUseItem:

; 1818 : 							else
; 1819 : 								strcpy( szGMCommand, szGMText );

  00a8b	8d 4d b0	 lea	 ecx, DWORD PTR _szGMCommand$13[ebp]
  00a8e	2b ce		 sub	 ecx, esi
$LL137@DoUseItem:
  00a90	8a 06		 mov	 al, BYTE PTR [esi]
  00a92	8d 76 01	 lea	 esi, DWORD PTR [esi+1]
  00a95	88 44 0e ff	 mov	 BYTE PTR [esi+ecx-1], al
  00a99	84 c0		 test	 al, al
  00a9b	75 f3		 jne	 SHORT $LL137@DoUseItem
$LN116@DoUseItem:

; 1820 : 							ParsingCommand( szGMCommand, (CMover*)this, TRUE );

  00a9d	6a 01		 push	 1
  00a9f	8d 45 b0	 lea	 eax, DWORD PTR _szGMCommand$13[ebp]
  00aa2	57		 push	 edi
  00aa3	50		 push	 eax
  00aa4	e8 00 00 00 00	 call	 ?ParsingCommand@@YAHPBDPAVCMover@@H@Z ; ParsingCommand
  00aa9	83 c4 0c	 add	 esp, 12			; 0000000cH

; 1821 : 						}

  00aac	c7 45 fc ff ff
	ff ff		 mov	 DWORD PTR __$EHRec$[ebp+8], -1
  00ab3	8d 8d c4 fe ff
	ff		 lea	 ecx, DWORD PTR _szGMText$9[ebp]
  00ab9	e8 00 00 00 00	 call	 ??1?$CStringT@DV?$StrTraitMFC@DV?$ChTraitsCRT@D@ATL@@@@@ATL@@QAE@XZ ; ATL::CStringT<char,StrTraitMFC<char,ATL::ChTraitsCRT<char> > >::~CStringT<char,StrTraitMFC<char,ATL::ChTraitsCRT<char> > >
$LN303@DoUseItem:

; 1870 : 					}
; 1871 : 				}
; 1872 : 		} // switch ik2
; 1873 : 
; 1874 : 		switch( pItemProp->dwItemKind3 )

  00abe	8b b5 c0 fe ff
	ff		 mov	 esi, DWORD PTR _pItemBase$1$[ebp]
$LN130@DoUseItem:
  00ac4	8b 43 78	 mov	 eax, DWORD PTR [ebx+120]
  00ac7	83 e8 64	 sub	 eax, 100		; 00000064H
  00aca	0f 84 2d 01 00
	00		 je	 $LN132@DoUseItem
  00ad0	83 e8 14	 sub	 eax, 20			; 00000014H
  00ad3	0f 84 1a 01 00
	00		 je	 $LN131@DoUseItem
  00ad9	83 e8 21	 sub	 eax, 33			; 00000021H
  00adc	0f 85 23 01 00
	00		 jne	 $LN7@DoUseItem

; 1881 : 				break;
; 1882 : #ifdef __NEW_ITEM_VARUNA
; 1883 : 			case IK3_SUMMON_NPC:
; 1884 : 				DoUseBarunaPet(pItemElem);

  00ae2	56		 push	 esi
  00ae3	8b cf		 mov	 ecx, edi
  00ae5	e8 00 00 00 00	 call	 ?DoUseBarunaPet@CMover@@QAEXPAVCItemElem@@@Z ; CMover::DoUseBarunaPet
  00aea	e9 16 01 00 00	 jmp	 $LN7@DoUseItem
$LN117@DoUseItem:

; 1822 : 					}
; 1823 : 					else
; 1824 : 						return FALSE;
; 1825 : 				}
; 1826 : 				break;
; 1827 : 			case IK2_SKILL:
; 1828 : 				{
; 1829 : 					BOOL bUseItem = FALSE;
; 1830 : 					DWORD dwActiveSkill = pItemProp->dwActiveSkill;

  00aef	8b 83 70 01 00
	00		 mov	 eax, DWORD PTR [ebx+368]
  00af5	89 85 c4 fe ff
	ff		 mov	 DWORD PTR _dwActiveSkill$1$[ebp], eax

; 1831 : 					if( dwActiveSkill != NULL_ID )		// Ăß°ˇ ąßµż ˝şĹłŔĚ ŔÖ´Ů.

  00afb	83 f8 ff	 cmp	 eax, -1
  00afe	74 c4		 je	 SHORT $LN130@DoUseItem

; 1833 : 						if( pItemProp->dwActiveSkillRate == NULL_ID ||

  00b00	83 bb 74 01 00
	00 ff		 cmp	 DWORD PTR [ebx+372], -1
  00b07	74 33		 je	 SHORT $LN120@DoUseItem
; File C:\IAGOS\server\v18\Source\Source\_Common\xUtil.h

; 16   : 	g_next = g_next * 1103515245 + 12345;// + nRandomSeed[ i++ ];

  00b09	69 0d 00 00 00
	00 6d 4e c6 41	 imul	 ecx, DWORD PTR ?g_next@@3KA, 1103515245 ; g_next

; 22   : 	return  xRand() % num;

  00b13	b8 1f 85 eb 51	 mov	 eax, 1374389535		; 51eb851fH

; 16   : 	g_next = g_next * 1103515245 + 12345;// + nRandomSeed[ i++ ];

  00b18	81 c1 39 30 00
	00		 add	 ecx, 12345		; 00003039H

; 22   : 	return  xRand() % num;

  00b1e	f7 e1		 mul	 ecx

; 16   : 	g_next = g_next * 1103515245 + 12345;// + nRandomSeed[ i++ ];

  00b20	89 0d 00 00 00
	00		 mov	 DWORD PTR ?g_next@@3KA, ecx ; g_next

; 22   : 	return  xRand() % num;

  00b26	c1 ea 05	 shr	 edx, 5
  00b29	6b c2 64	 imul	 eax, edx, 100
  00b2c	2b c8		 sub	 ecx, eax
; File C:\IAGOS\server\v18\Source\Source\_Common\MoverSkill.cpp

; 1833 : 						if( pItemProp->dwActiveSkillRate == NULL_ID ||

  00b2e	3b 8b 74 01 00
	00		 cmp	 ecx, DWORD PTR [ebx+372]
  00b34	73 8e		 jae	 SHORT $LN130@DoUseItem
  00b36	8b 85 c4 fe ff
	ff		 mov	 eax, DWORD PTR _dwActiveSkill$1$[ebp]
$LN120@DoUseItem:

; 1834 : 							xRandom(100) < pItemProp->dwActiveSkillRate )	// ąßµżČ®·üżˇ °É·Č´Â°ˇ.
; 1835 : 						{
; 1836 : 							ItemProp* pSkillProp;
; 1837 : 							pSkillProp = (ItemProp *)prj.GetSkillProp( dwActiveSkill );

  00b3c	50		 push	 eax
  00b3d	b9 00 00 00 00	 mov	 ecx, OFFSET ?prj@@3VCProject@@A ; prj
  00b42	e8 00 00 00 00	 call	 ?GetSkillProp@CProject@@QAEPAUItemProp@@H@Z ; CProject::GetSkillProp

; 1838 : 							if( pSkillProp )

  00b47	85 c0		 test	 eax, eax
  00b49	74 67		 je	 SHORT $LN121@DoUseItem

; 1839 : 							{
; 1840 : 								if( pSkillProp->dwUseChance == WUI_TARGETINGOBJ )	// Ĺ¸°Ůżˇ°Ô »çżëÇĎ´Â ąć˝Ä.

  00b4b	8b 80 c8 01 00
	00		 mov	 eax, DWORD PTR [eax+456]
  00b51	83 f8 04	 cmp	 eax, 4
  00b54	75 4c		 jne	 SHORT $LN123@DoUseItem

; 1841 : 								{
; 1842 : 									if( IsPlayer() )

  00b56	83 bf 30 02 00
	00 00		 cmp	 DWORD PTR [edi+560], 0
  00b5d	0f 84 61 ff ff
	ff		 je	 $LN130@DoUseItem

; 1843 : 									{
; 1844 : 										DWORD idTarget = ((CUser*)this)->m_idSetTarget;
; 1845 : 										CMover *pTarget = prj.GetMover( idTarget );

  00b63	ff b7 40 8e 00
	00		 push	 DWORD PTR [edi+36416]
  00b69	b9 00 00 00 00	 mov	 ecx, OFFSET ?prj@@3VCProject@@A ; prj
  00b6e	e8 00 00 00 00	 call	 ?GetMover@CProject@@QAEPAVCMover@@K@Z ; CProject::GetMover
; File C:\IAGOS\server\v18\Source\Source\_Common\Obj.h

; 327  : 	return pObj && ( pObj->IsDelete() == FALSE ); 

  00b73	85 c0		 test	 eax, eax
  00b75	0f 84 49 ff ff
	ff		 je	 $LN130@DoUseItem

; 180  : 	BOOL			IsDelete()	{ return (m_dwFlags & OBJ_FLAG_DELETE);  }

  00b7b	f6 40 04 01	 test	 BYTE PTR [eax+4], 1

; 327  : 	return pObj && ( pObj->IsDelete() == FALSE ); 

  00b7f	0f 85 3f ff ff
	ff		 jne	 $LN130@DoUseItem
; File C:\IAGOS\server\v18\Source\Source\_Common\MoverSkill.cpp

; 1848 : 											DoActiveSkill( dwActiveSkill, pItemProp->dwActiveSkillLv, pTarget );	// dwActiveSkill ąßµż.

  00b85	6a 00		 push	 0
  00b87	6a 00		 push	 0
  00b89	50		 push	 eax
$LN309@DoUseItem:

; 1870 : 					}
; 1871 : 				}
; 1872 : 		} // switch ik2
; 1873 : 
; 1874 : 		switch( pItemProp->dwItemKind3 )

  00b8a	ff b3 cc 00 00
	00		 push	 DWORD PTR [ebx+204]
  00b90	8b cf		 mov	 ecx, edi
  00b92	ff b5 c4 fe ff
	ff		 push	 DWORD PTR _dwActiveSkill$1$[ebp]
  00b98	e8 00 00 00 00	 call	 ?DoActiveSkill@CCtrl@@QAEXKHPAV1@_NH@Z ; CCtrl::DoActiveSkill
  00b9d	e9 22 ff ff ff	 jmp	 $LN130@DoUseItem
$LN123@DoUseItem:

; 1849 : 										}
; 1850 : 									}
; 1851 : 								} else
; 1852 : 								if( pSkillProp->dwUseChance == WUI_NOW )		// ŔÚ˝Ĺżˇ°Ô¸¸ »çżëÇĎ´Â ąć˝Ä.

  00ba2	83 f8 01	 cmp	 eax, 1
  00ba5	0f 85 19 ff ff
	ff		 jne	 $LN130@DoUseItem

; 1853 : 								{
; 1854 : 									DoActiveSkill( dwActiveSkill, pItemProp->dwActiveSkillLv, this );	// ąßµż

  00bab	6a 00		 push	 0
  00bad	6a 00		 push	 0
  00baf	57		 push	 edi

; 1855 : 								}
; 1856 : 							} else

  00bb0	eb d8		 jmp	 SHORT $LN309@DoUseItem
$LN121@DoUseItem:

; 1857 : 								Error( "DoUseItem, IK2_SKILL, item %s -> %d skill not prop", pItemProp->szName, dwActiveSkill );

  00bb2	ff b5 c4 fe ff
	ff		 push	 DWORD PTR _dwActiveSkill$1$[ebp]
  00bb8	8d 43 04	 lea	 eax, DWORD PTR [ebx+4]
  00bbb	50		 push	 eax
  00bbc	68 00 00 00 00	 push	 OFFSET ??_C@_0DD@FCPHEJAC@DoUseItem?0?5IK2_SKILL?0?5item?5?$CFs?5?9@
  00bc1	e8 00 00 00 00	 call	 ?Error@@YAPBDPBDZZ	; Error
  00bc6	83 c4 0c	 add	 esp, 12			; 0000000cH

; 1858 : 						}
; 1859 : 					}
; 1860 : 				}
; 1861 : 				break;

  00bc9	e9 f6 fe ff ff	 jmp	 $LN130@DoUseItem
$LN129@DoUseItem:

; 1862 : #ifdef __TREASUREBOX
; 1863 : 			case IK2_TREASURE: return FALSE; break;
; 1864 : #endif // __TREASUREBOX
; 1865 : 			default:
; 1866 : 				{
; 1867 : 					if( pItemProp->dwSkillTime != NULL_ID )		// ÁöĽÓ˝Ă°ŁŔĚ ŔÖ´Â ľĆŔĚĹŰ

  00bce	83 bb c0 01 00
	00 ff		 cmp	 DWORD PTR [ebx+448], -1
  00bd5	0f 84 e9 fe ff
	ff		 je	 $LN130@DoUseItem

; 1868 : 					{
; 1869 : 						DoApplySkill( this, pItemProp, NULL );		// ´ë»óżˇ°Ô ľĆŔĚĹŰČż°ú¸¦ ŔűżëÇÔ. 

  00bdb	6a 00		 push	 0
  00bdd	6a 00		 push	 0
  00bdf	6a 00		 push	 0
  00be1	6a 00		 push	 0
  00be3	6a 00		 push	 0
  00be5	53		 push	 ebx
  00be6	57		 push	 edi
  00be7	8b cf		 mov	 ecx, edi
  00be9	e8 00 00 00 00	 call	 ?DoApplySkill@CCtrl@@QAEHPAV1@PAUItemProp@@PAUAddSkillProp@@_NHHH@Z ; CCtrl::DoApplySkill
  00bee	e9 d1 fe ff ff	 jmp	 $LN130@DoUseItem
$LN131@DoUseItem:

; 1875 : 		{
; 1876 : 			case IK3_EGG:
; 1877 : 				DoUseSystemPet( pItemElem );

  00bf3	56		 push	 esi
  00bf4	8b cf		 mov	 ecx, edi
  00bf6	e8 00 00 00 00	 call	 ?DoUseSystemPet@CMover@@AAEXPAVCItemElem@@@Z ; CMover::DoUseSystemPet

; 1878 : 				break;

  00bfb	eb 08		 jmp	 SHORT $LN7@DoUseItem
$LN132@DoUseItem:

; 1879 : 			case IK3_PET:
; 1880 : 				DoUseEatPet( pItemElem );

  00bfd	56		 push	 esi
  00bfe	8b cf		 mov	 ecx, edi
  00c00	e8 00 00 00 00	 call	 ?DoUseEatPet@CMover@@AAEXPAVCItemElem@@@Z ; CMover::DoUseEatPet
$LN7@DoUseItem:

; 1885 : 				break;
; 1886 : #endif // __NEW_ITEM_VARUNA
; 1887 : 		}
; 1888 : 
; 1889 : 		OnAfterUseItem( pItemProp );	// raiders 06.04.20

  00c05	53		 push	 ebx
  00c06	8b cf		 mov	 ecx, edi
  00c08	e8 00 00 00 00	 call	 ?OnAfterUseItem@CMover@@QAEXPBUItemProp@@@Z ; CMover::OnAfterUseItem

; 1890 : 		pItemElem->UseItem();			// --m_nItemNum;

  00c0d	8b ce		 mov	 ecx, esi
  00c0f	e8 00 00 00 00	 call	 ?UseItem@CItemElem@@QAEXXZ ; CItemElem::UseItem

; 1891 : 
; 1892 : 		if( pItemElem->m_bCharged )		// »óżëČ­ ľĆŔĚĹŰ ·Î±×

  00c14	83 be a4 00 00
	00 00		 cmp	 DWORD PTR [esi+164], 0
  00c1b	74 17		 je	 SHORT $LN134@DoUseItem

; 1893 : 			g_dpDBClient.SendLogSMItemUse( "1", (CUser*)this, pItemElem, pItemProp );		

  00c1d	68 00 00 00 00	 push	 OFFSET ??_C@_00CNPNBAHC@@
  00c22	53		 push	 ebx
  00c23	56		 push	 esi
  00c24	57		 push	 edi
  00c25	68 00 00 00 00	 push	 OFFSET ??_C@_01HIHLOKLC@1@
  00c2a	b9 00 00 00 00	 mov	 ecx, OFFSET ?g_dpDBClient@@3VCDPDatabaseClient@@A ; g_dpDBClient
  00c2f	e8 00 00 00 00	 call	 ?SendLogSMItemUse@CDPDatabaseClient@@QAEXPBDPAVCUser@@PAVCItemElem@@PAUItemProp@@0@Z ; CDPDatabaseClient::SendLogSMItemUse
$LN134@DoUseItem:

; 1894 : 
; 1895 : 		CHAR cUIParam = UI_NUM;
; 1896 : 		if( dwGroup )	// ÄđĹ¸ŔÓ ľĆŔĚĹŰŔĚ¸é »çżë˝Ă°˘Ŕ» ±â·ĎÇŃ´Ů.

  00c34	8b 85 ac fe ff
	ff		 mov	 eax, DWORD PTR _dwGroup$1$[ebp]
  00c3a	c6 85 b8 fe ff
	ff 00		 mov	 BYTE PTR _cUIParam$3[ebp], 0
  00c41	85 c0		 test	 eax, eax
  00c43	74 19		 je	 SHORT $LN135@DoUseItem

; 1897 : 		{
; 1898 : 			CUser* pUser = (CUser*)this;
; 1899 : 			pUser->m_cooltimeMgr.SetTime( dwGroup, pItemProp->GetCoolTime() );	

  00c45	ff b3 98 01 00
	00		 push	 DWORD PTR [ebx+408]
  00c4b	8d 8f 98 8e 00
	00		 lea	 ecx, DWORD PTR [edi+36504]
  00c51	50		 push	 eax
  00c52	e8 00 00 00 00	 call	 ?SetTime@CCooltimeMgr@@QAEXKK@Z ; CCooltimeMgr::SetTime

; 1900 : 			cUIParam = UI_COOLTIME;

  00c57	c6 85 b8 fe ff
	ff 08		 mov	 BYTE PTR _cUIParam$3[ebp], 8
$LN135@DoUseItem:

; 1901 : 		}
; 1902 : 
; 1903 : 		UpdateItem( (BYTE)( dwId ), cUIParam, pItemElem->m_nItemNum );	// °ąĽö°ˇ 0ŔĚ¸é  ľĆŔĚĹŰ »čÁ¦ , ŔüĽŰ 

  00c5e	0f bf 46 74	 movsx	 eax, WORD PTR [esi+116]
  00c62	8b 4d 08	 mov	 ecx, DWORD PTR _dwData$[ebp]
  00c65	6a 00		 push	 0
  00c67	50		 push	 eax
  00c68	ff b5 b8 fe ff
	ff		 push	 DWORD PTR _cUIParam$3[ebp]
  00c6e	51		 push	 ecx
  00c6f	8b cf		 mov	 ecx, edi
  00c71	e8 00 00 00 00	 call	 ?UpdateItem@CMover@@QAEXEDKK@Z ; CMover::UpdateItem
$LN19@DoUseItem:

; 1904 : 	}
; 1905 : 	
; 1906 : #endif // WORLDSERVER
; 1907 : 
; 1908 : 	return TRUE;

  00c76	b8 01 00 00 00	 mov	 eax, 1
  00c7b	e9 bd f8 ff ff	 jmp	 $LN1@DoUseItem
$LN313@DoUseItem:
; File C:\Program Files\Microsoft Visual Studio\2022\Professional\VC\Tools\MSVC\14.44.35207\atlmfc\include\atlsimpstr.h

; 209  : 		ATLENSURE( pStringMgr != NULL );

  00c80	68 05 40 00 80	 push	 -2147467259		; 80004005H
  00c85	e8 00 00 00 00	 call	 ?AtlThrowImpl@ATL@@YGXJ@Z ; ATL::AtlThrowImpl
$LN306@DoUseItem:
  00c8a	66 90		 npad	 2
$LN302@DoUseItem:
; File C:\IAGOS\server\v18\Source\Source\_Common\MoverSkill.cpp

; 1909 : }

  00c8c	00 00 00 00	 DD	 $LN77@DoUseItem
  00c90	00 00 00 00	 DD	 $LN83@DoUseItem
  00c94	00 00 00 00	 DD	 $LN89@DoUseItem
  00c98	00 00 00 00	 DD	 $LN47@DoUseItem
  00c9c	00 00 00 00	 DD	 $LN76@DoUseItem
  00ca0	00 00 00 00	 DD	 $LN91@DoUseItem
  00ca4	00 00 00 00	 DD	 $LN45@DoUseItem
  00ca8	00 00 00 00	 DD	 $LN100@DoUseItem
  00cac	00 00 00 00	 DD	 $LN41@DoUseItem
  00cb0	00 00 00 00	 DD	 $LN38@DoUseItem
  00cb4	00 00 00 00	 DD	 $LN117@DoUseItem
  00cb8	00 00 00 00	 DD	 $LN39@DoUseItem
  00cbc	00 00 00 00	 DD	 $LN32@DoUseItem
  00cc0	00 00 00 00	 DD	 $LN36@DoUseItem
  00cc4	00 00 00 00	 DD	 $LN25@DoUseItem
  00cc8	00 00 00 00	 DD	 $LN30@DoUseItem
  00ccc	00 00 00 00	 DD	 $LN65@DoUseItem
  00cd0	00 00 00 00	 DD	 $LN60@DoUseItem
  00cd4	00 00 00 00	 DD	 $LN128@DoUseItem
  00cd8	00 00 00 00	 DD	 $LN129@DoUseItem
$LN301@DoUseItem:
  00cdc	00		 DB	 0
  00cdd	01		 DB	 1
  00cde	13		 DB	 19			; 00000013H
  00cdf	02		 DB	 2
  00ce0	13		 DB	 19			; 00000013H
  00ce1	13		 DB	 19			; 00000013H
  00ce2	13		 DB	 19			; 00000013H
  00ce3	13		 DB	 19			; 00000013H
  00ce4	03		 DB	 3
  00ce5	13		 DB	 19			; 00000013H
  00ce6	13		 DB	 19			; 00000013H
  00ce7	04		 DB	 4
  00ce8	05		 DB	 5
  00ce9	13		 DB	 19			; 00000013H
  00cea	13		 DB	 19			; 00000013H
  00ceb	06		 DB	 6
  00cec	07		 DB	 7
  00ced	13		 DB	 19			; 00000013H
  00cee	08		 DB	 8
  00cef	09		 DB	 9
  00cf0	0a		 DB	 10			; 0000000aH
  00cf1	13		 DB	 19			; 00000013H
  00cf2	0b		 DB	 11			; 0000000bH
  00cf3	0c		 DB	 12			; 0000000cH
  00cf4	0c		 DB	 12			; 0000000cH
  00cf5	0d		 DB	 13			; 0000000dH
  00cf6	08		 DB	 8
  00cf7	0e		 DB	 14			; 0000000eH
  00cf8	0e		 DB	 14			; 0000000eH
  00cf9	0e		 DB	 14			; 0000000eH
  00cfa	0f		 DB	 15			; 0000000fH
  00cfb	10		 DB	 16			; 00000010H
  00cfc	11		 DB	 17			; 00000011H
  00cfd	13		 DB	 19			; 00000013H
  00cfe	13		 DB	 19			; 00000013H
  00cff	13		 DB	 19			; 00000013H
  00d00	13		 DB	 19			; 00000013H
  00d01	13		 DB	 19			; 00000013H
  00d02	13		 DB	 19			; 00000013H
  00d03	13		 DB	 19			; 00000013H
  00d04	13		 DB	 19			; 00000013H
  00d05	13		 DB	 19			; 00000013H
  00d06	13		 DB	 19			; 00000013H
  00d07	13		 DB	 19			; 00000013H
  00d08	12		 DB	 18			; 00000012H
_TEXT	ENDS
;	COMDAT text$x
text$x	SEGMENT
__unwindfunclet$?DoUseItem@CMover@@QAEHKKH@Z$0:
  00000	8d 8d c0 fe ff
	ff		 lea	 ecx, DWORD PTR _str$4[ebp]
  00006	e9 00 00 00 00	 jmp	 ??1?$CStringT@DV?$StrTraitMFC@DV?$ChTraitsCRT@D@ATL@@@@@ATL@@QAE@XZ ; ATL::CStringT<char,StrTraitMFC<char,ATL::ChTraitsCRT<char> > >::~CStringT<char,StrTraitMFC<char,ATL::ChTraitsCRT<char> > >
__unwindfunclet$?DoUseItem@CMover@@QAEHKKH@Z$1:
  0000b	8d 8d c4 fe ff
	ff		 lea	 ecx, DWORD PTR _str$7[ebp]
  00011	e9 00 00 00 00	 jmp	 ??1?$CStringT@DV?$StrTraitMFC@DV?$ChTraitsCRT@D@ATL@@@@@ATL@@QAE@XZ ; ATL::CStringT<char,StrTraitMFC<char,ATL::ChTraitsCRT<char> > >::~CStringT<char,StrTraitMFC<char,ATL::ChTraitsCRT<char> > >
__unwindfunclet$?DoUseItem@CMover@@QAEHKKH@Z$2:
  00016	8d 8d c0 fe ff
	ff		 lea	 ecx, DWORD PTR _szMaxBuf$5[ebp]
  0001c	e9 00 00 00 00	 jmp	 ??1?$CStringT@DV?$StrTraitMFC@DV?$ChTraitsCRT@D@ATL@@@@@ATL@@QAE@XZ ; ATL::CStringT<char,StrTraitMFC<char,ATL::ChTraitsCRT<char> > >::~CStringT<char,StrTraitMFC<char,ATL::ChTraitsCRT<char> > >
__unwindfunclet$?DoUseItem@CMover@@QAEHKKH@Z$3:
  00021	8d 8d c0 fe ff
	ff		 lea	 ecx, DWORD PTR _strTemp$6[ebp]
  00027	e9 00 00 00 00	 jmp	 ??1?$CStringT@DV?$StrTraitMFC@DV?$ChTraitsCRT@D@ATL@@@@@ATL@@QAE@XZ ; ATL::CStringT<char,StrTraitMFC<char,ATL::ChTraitsCRT<char> > >::~CStringT<char,StrTraitMFC<char,ATL::ChTraitsCRT<char> > >
__unwindfunclet$?DoUseItem@CMover@@QAEHKKH@Z$5:
  0002c	8d 8d c4 fe ff
	ff		 lea	 ecx, DWORD PTR _szGMText$9[ebp]
  00032	e9 00 00 00 00	 jmp	 ??1?$CSimpleStringT@D$0A@@ATL@@QAE@XZ ; ATL::CSimpleStringT<char,0>::~CSimpleStringT<char,0>
__unwindfunclet$?DoUseItem@CMover@@QAEHKKH@Z$4:
  00037	8d 8d c4 fe ff
	ff		 lea	 ecx, DWORD PTR _szGMText$9[ebp]
  0003d	e9 00 00 00 00	 jmp	 ??1?$CStringT@DV?$StrTraitMFC@DV?$ChTraitsCRT@D@ATL@@@@@ATL@@QAE@XZ ; ATL::CStringT<char,StrTraitMFC<char,ATL::ChTraitsCRT<char> > >::~CStringT<char,StrTraitMFC<char,ATL::ChTraitsCRT<char> > >
  00042	cc		 int	 3
  00043	cc		 int	 3
  00044	cc		 int	 3
  00045	cc		 int	 3
  00046	cc		 int	 3
__ehhandler$?DoUseItem@CMover@@QAEHKKH@Z:
  00047	90		 npad	 1
  00048	90		 npad	 1
  00049	8b 54 24 08	 mov	 edx, DWORD PTR [esp+8]
  0004d	8d 42 0c	 lea	 eax, DWORD PTR [edx+12]
  00050	8b 8a a8 fe ff
	ff		 mov	 ecx, DWORD PTR [edx-344]
  00056	33 c8		 xor	 ecx, eax
  00058	e8 00 00 00 00	 call	 @__security_check_cookie@4
  0005d	8b 4a fc	 mov	 ecx, DWORD PTR [edx-4]
  00060	33 c8		 xor	 ecx, eax
  00062	e8 00 00 00 00	 call	 @__security_check_cookie@4
  00067	b8 00 00 00 00	 mov	 eax, OFFSET __ehfuncinfo$?DoUseItem@CMover@@QAEHKKH@Z
  0006c	e9 00 00 00 00	 jmp	 ___CxxFrameHandler3
text$x	ENDS
?DoUseItem@CMover@@QAEHKKH@Z ENDP			; CMover::DoUseItem
; Function compile flags: /Ogtp
; File C:\IAGOS\server\v18\Source\Source\_Common\MoverSkill.cpp
; File C:\IAGOS\server\v18\Source\Source\_Common\Project.h
; File C:\IAGOS\server\v18\Source\Source\_Common\MoverSkill.cpp
; File C:\IAGOS\server\v18\Source\Source\_Common\Project.h
; File C:\IAGOS\server\v18\Source\Source\_Common\data.h
; File C:\IAGOS\server\v18\Source\Source\_Common\MoverSkill.cpp
; File C:\IAGOS\server\v18\Source\Source\_Common\Mover.h
; File C:\IAGOS\server\v18\Source\Source\_Common\MoverSkill.cpp
; File C:\IAGOS\server\v18\Source\Source\_Common\Project.h
; File C:\IAGOS\server\v18\Source\Source\_Common\MoverSkill.cpp
;	COMDAT ?DoUseItemVirtual@CMover@@QAEHKH@Z
_TEXT	SEGMENT
_dwWorldID$2 = -20					; size = 4
_vPos$3 = -16						; size = 12
__$ArrayPad$ = -4					; size = 4
_dwItemId$ = 8						; size = 4
_bEffectSkip$ = 12					; size = 4
?DoUseItemVirtual@CMover@@QAEHKH@Z PROC			; CMover::DoUseItemVirtual, COMDAT
; _this$ = ecx

; 1252 : {

  00000	55		 push	 ebp
  00001	8b ec		 mov	 ebp, esp
  00003	83 ec 14	 sub	 esp, 20			; 00000014H
  00006	a1 00 00 00 00	 mov	 eax, DWORD PTR ___security_cookie
  0000b	33 c5		 xor	 eax, ebp
  0000d	89 45 fc	 mov	 DWORD PTR __$ArrayPad$[ebp], eax
; File C:\IAGOS\server\v18\Source\Source\_Common\Project.h

; 1389 : 	VERIFY_RANGE_ASSERT( nIndex, 0, m_aPropItem.GetSize(), "GetItemProp range_error", NULL );

  00010	a1 40 02 00 00	 mov	 eax, DWORD PTR ?prj@@3VCProject@@A+576
; File C:\IAGOS\server\v18\Source\Source\_Common\MoverSkill.cpp

; 1252 : {

  00015	53		 push	 ebx
  00016	56		 push	 esi
  00017	8b 75 08	 mov	 esi, DWORD PTR _dwItemId$[ebp]
  0001a	57		 push	 edi
  0001b	8b f9		 mov	 edi, ecx
; File C:\IAGOS\server\v18\Source\Source\_Common\Project.h

; 1389 : 	VERIFY_RANGE_ASSERT( nIndex, 0, m_aPropItem.GetSize(), "GetItemProp range_error", NULL );

  0001d	85 f6		 test	 esi, esi
  0001f	0f 88 1c 01 00
	00		 js	 $LN17@DoUseItemV
  00025	3b f0		 cmp	 esi, eax
  00027	0f 8d 14 01 00
	00		 jge	 $LN17@DoUseItemV
; File C:\IAGOS\server\v18\Source\Source\_Common\data.h

; 270  : 	if( dwIndex >= (DWORD)m_nMaxIndex )

  0002d	72 04		 jb	 SHORT $LN22@DoUseItemV

; 271  : 		return NULL;

  0002f	33 db		 xor	 ebx, ebx
  00031	eb 08		 jmp	 SHORT $LN21@DoUseItemV
$LN22@DoUseItemV:

; 272  : 	return (T*) m_apOffset[ dwIndex ];

  00033	a1 30 02 00 00	 mov	 eax, DWORD PTR ?prj@@3VCProject@@A+560
  00038	8b 1c b0	 mov	 ebx, DWORD PTR [eax+esi*4]
$LN21@DoUseItemV:
; File C:\IAGOS\server\v18\Source\Source\_Common\MoverSkill.cpp

; 1258 : 	if( pItemProp )

  0003b	85 db		 test	 ebx, ebx
  0003d	0f 84 14 01 00
	00		 je	 $LN10@DoUseItemV

; 1259 : 	{
; 1260 : 		if( IsItemRedyTime( pItemProp, pItemProp->dwID, FALSE ) == FALSE )

  00043	6a 00		 push	 0
  00045	ff 33		 push	 DWORD PTR [ebx]
  00047	53		 push	 ebx
  00048	e8 00 00 00 00	 call	 ?IsItemRedyTime@CMover@@QAEHPAUItemProp@@KH@Z ; CMover::IsItemRedyTime
  0004d	85 c0		 test	 eax, eax
  0004f	0f 84 d7 00 00
	00		 je	 $LN8@DoUseItemV

; 1261 : 			return FALSE;
; 1262 : 
; 1263 : 		D3DXVECTOR3 sPos = D3DXVECTOR3(0.0f,0.0f,0.0f);
; 1264 : 
; 1265 : 		if( dwItemId == II_SYS_SYS_SCR_RETURN )

  00055	81 fe e5 28 00
	00		 cmp	 esi, 10469		; 000028e5H
  0005b	75 4f		 jne	 SHORT $LN4@DoUseItemV

; 1266 : 		{
; 1267 : 			// µąľĆ°ˇ±â 
; 1268 : 			if( HasBuff( BUFF_ITEM, II_SYS_SYS_SCR_RETURN ) )

  0005d	56		 push	 esi
  0005e	6a 00		 push	 0
  00060	8b cf		 mov	 ecx, edi
  00062	e8 00 00 00 00	 call	 ?HasBuff@CMover@@QAEHGG@Z ; CMover::HasBuff
  00067	85 c0		 test	 eax, eax
  00069	74 0a		 je	 SHORT $LN5@DoUseItemV

; 1269 : 				RemoveBuff( BUFF_ITEM, II_SYS_SYS_SCR_RETURN );

  0006b	56		 push	 esi
  0006c	6a 00		 push	 0
  0006e	8b cf		 mov	 ecx, edi
  00070	e8 00 00 00 00	 call	 ?RemoveBuff@CMover@@QAEXGG@Z ; CMover::RemoveBuff
$LN5@DoUseItemV:

; 1270 : 
; 1271 : 			DWORD dwWorldID;
; 1272 : 			D3DXVECTOR3 vPos = ((CUser*)this)->GetReturnPos( &dwWorldID );

  00075	8d 45 ec	 lea	 eax, DWORD PTR _dwWorldID$2[ebp]
  00078	8b cf		 mov	 ecx, edi
  0007a	50		 push	 eax
  0007b	e8 00 00 00 00	 call	 ?GetReturnPos@CUser@@QAEAAUD3DXVECTOR3@@PAK@Z ; CUser::GetReturnPos

; 1273 : 			((CUser*)this)->REPLACE( g_uIdofMulti, dwWorldID, vPos, REPLACE_NORMAL, nTempLayer );

  00080	6a 00		 push	 0
  00082	6a 00		 push	 0
  00084	8b cf		 mov	 ecx, edi
  00086	f3 0f 7e 00	 movq	 xmm0, QWORD PTR [eax]
  0008a	66 0f d6 45 f0	 movq	 QWORD PTR _vPos$3[ebp], xmm0
  0008f	8b 40 08	 mov	 eax, DWORD PTR [eax+8]
  00092	89 45 f8	 mov	 DWORD PTR _vPos$3[ebp+8], eax
  00095	8d 45 f0	 lea	 eax, DWORD PTR _vPos$3[ebp]
  00098	50		 push	 eax
  00099	ff 75 ec	 push	 DWORD PTR _dwWorldID$2[ebp]
  0009c	ff 35 00 00 00
	00		 push	 DWORD PTR ?g_uIdofMulti@@3KA ; g_uIdofMulti
  000a2	e8 00 00 00 00	 call	 ?Replace@CMover@@QAEHKKAAUD3DXVECTOR3@@W4REPLACE_TYPE@@H@Z ; CMover::Replace

; 1274 : 			return TRUE;

  000a7	e9 ab 00 00 00	 jmp	 $LN10@DoUseItemV
$LN4@DoUseItemV:

; 1275 : 		}
; 1276 : 
; 1277 : 
; 1278 : 		if( dwItemId == II_CHR_SYS_SCR_ESCAPEBLINKWING )

  000ac	81 fe c3 28 00
	00		 cmp	 esi, 10435		; 000028c3H
  000b2	75 3d		 jne	 SHORT $LN6@DoUseItemV

; 1279 : 		{
; 1280 : 			if( pItemProp->dwCircleTime != (DWORD)-1 )

  000b4	8b 83 bc 01 00
	00		 mov	 eax, DWORD PTR [ebx+444]
  000ba	83 f8 ff	 cmp	 eax, -1
  000bd	74 13		 je	 SHORT $LN9@DoUseItemV
; File C:\IAGOS\server\v18\Source\Source\_Common\Mover.h

; 1457 : 	BOOL			IsSMMode( int nType ) { return ( m_dwSMTime[nType] > 0 ) ? TRUE : FALSE; }

  000bf	83 bf 48 03 00
	00 00		 cmp	 DWORD PTR [edi+840], 0
; File C:\IAGOS\server\v18\Source\Source\_Common\MoverSkill.cpp

; 1282 : 				if( !IsSMMode( SM_ESCAPE ) )

  000c6	77 64		 ja	 SHORT $LN8@DoUseItemV

; 1283 : 				{
; 1284 : 					SetSMMode( SM_ESCAPE, pItemProp->dwCircleTime );

  000c8	50		 push	 eax
  000c9	6a 13		 push	 19			; 00000013H
  000cb	8b cf		 mov	 ecx, edi
  000cd	e8 00 00 00 00	 call	 ?SetSMMode@CMover@@QAEHHK@Z ; CMover::SetSMMode
$LN9@DoUseItemV:

; 1285 : 				}
; 1286 : 				else
; 1287 : 				{
; 1288 : 					return FALSE;
; 1289 : 				}
; 1290 : 			}
; 1291 : 			return DoUseItemBlinkWing( pItemProp, NULL, FALSE );

  000d2	6a 00		 push	 0
  000d4	6a 00		 push	 0
  000d6	53		 push	 ebx
  000d7	8b cf		 mov	 ecx, edi
  000d9	e8 00 00 00 00	 call	 ?DoUseItemBlinkWing@CMover@@QAEHPAUItemProp@@PAVCItemElem@@H@Z ; CMover::DoUseItemBlinkWing
  000de	5f		 pop	 edi

; 1303 : }

  000df	5e		 pop	 esi
  000e0	5b		 pop	 ebx
  000e1	8b 4d fc	 mov	 ecx, DWORD PTR __$ArrayPad$[ebp]
  000e4	33 cd		 xor	 ecx, ebp
  000e6	e8 00 00 00 00	 call	 @__security_check_cookie@4
  000eb	8b e5		 mov	 esp, ebp
  000ed	5d		 pop	 ebp
  000ee	c2 08 00	 ret	 8
$LN6@DoUseItemV:

; 1292 : 		}
; 1293 : 
; 1294 : 		DWORD	dwSfxID = pItemProp->dwSfxObj3;

  000f1	8b 83 ac 01 00
	00		 mov	 eax, DWORD PTR [ebx+428]

; 1295 : 		if( dwSfxID != NULL_ID && !bEffectSkip )		// ľĆŔĚĹŰ »çżë˝Ăżˇ »ýĽşµÉ ŔĚĆĺĆ®

  000f7	83 f8 ff	 cmp	 eax, -1
  000fa	74 5b		 je	 SHORT $LN10@DoUseItemV
  000fc	83 7d 0c 00	 cmp	 DWORD PTR _bEffectSkip$[ebp], 0
  00100	75 55		 jne	 SHORT $LN10@DoUseItemV

; 1296 : 		{
; 1297 : 			g_UserMng.AddCreateSfxObj( this, dwSfxID, sPos.x, sPos.y, sPos.z );	// Ŕý´ëÁÂÇĄ·Î ÇĎŔÚ.

  00102	6a 00		 push	 0
  00104	83 ec 0c	 sub	 esp, 12			; 0000000cH
  00107	b9 00 00 00 00	 mov	 ecx, OFFSET ?g_UserMng@@3VCUserMng@@A ; g_UserMng
  0010c	c7 44 24 08 00
	00 00 00	 mov	 DWORD PTR [esp+8], 0
  00114	c7 44 24 04 00
	00 00 00	 mov	 DWORD PTR [esp+4], 0
  0011c	c7 04 24 00 00
	00 00		 mov	 DWORD PTR [esp], 0
  00123	50		 push	 eax
  00124	57		 push	 edi
  00125	e8 00 00 00 00	 call	 ?AddCreateSfxObj@CUserMng@@QAEXPAVCCtrl@@KMMMH@Z ; CUserMng::AddCreateSfxObj
  0012a	eb 2b		 jmp	 SHORT $LN10@DoUseItemV
$LN8@DoUseItemV:
  0012c	5f		 pop	 edi

; 1303 : }

  0012d	5e		 pop	 esi
  0012e	33 c0		 xor	 eax, eax
  00130	5b		 pop	 ebx
  00131	8b 4d fc	 mov	 ecx, DWORD PTR __$ArrayPad$[ebp]
  00134	33 cd		 xor	 ecx, ebp
  00136	e8 00 00 00 00	 call	 @__security_check_cookie@4
  0013b	8b e5		 mov	 esp, ebp
  0013d	5d		 pop	 ebp
  0013e	c2 08 00	 ret	 8
$LN17@DoUseItemV:
; File C:\IAGOS\server\v18\Source\Source\_Common\Project.h

; 579  : 	LPCTSTR szErr = Error( _T( "%s min:%d, max:%d, index:%d" ), szMsg, nMin, nMax, nIndex ); 

  00141	56		 push	 esi
  00142	50		 push	 eax
  00143	6a 00		 push	 0
  00145	68 00 00 00 00	 push	 OFFSET ??_C@_0BI@BEIFNGEL@GetItemProp?5range_error@
  0014a	68 00 00 00 00	 push	 OFFSET ??_C@_0BM@HMFGHCP@?$CFs?5min?3?$CFd?0?5max?3?$CFd?0?5index?3?$CFd@
  0014f	e8 00 00 00 00	 call	 ?Error@@YAPBDPBDZZ	; Error
  00154	83 c4 14	 add	 esp, 20			; 00000014H
$LN10@DoUseItemV:
; File C:\IAGOS\server\v18\Source\Source\_Common\MoverSkill.cpp

; 1303 : }

  00157	8b 4d fc	 mov	 ecx, DWORD PTR __$ArrayPad$[ebp]
  0015a	b8 01 00 00 00	 mov	 eax, 1
  0015f	5f		 pop	 edi
  00160	5e		 pop	 esi
  00161	33 cd		 xor	 ecx, ebp
  00163	5b		 pop	 ebx
  00164	e8 00 00 00 00	 call	 @__security_check_cookie@4
  00169	8b e5		 mov	 esp, ebp
  0016b	5d		 pop	 ebp
  0016c	c2 08 00	 ret	 8
?DoUseItemVirtual@CMover@@QAEHKH@Z ENDP			; CMover::DoUseItemVirtual
_TEXT	ENDS
; Function compile flags: /Ogtp
; File C:\IAGOS\server\v18\Source\Source\_Common\MoverSkill.cpp
; File C:\IAGOS\server\v18\Source\Source\_Common\Obj.h
; File C:\IAGOS\server\v18\Source\Source\_Common\MoverSkill.cpp
; File C:\IAGOS\server\v18\Source\Source\_Common\Obj.h
; File C:\IAGOS\server\v18\Source\Source\_Common\MoverSkill.cpp
; File C:\IAGOS\server\v18\Source\Source\_Common\Obj.h
; File C:\Program Files (x86)\Windows Kits\10\Include\10.0.26100.0\ucrt\corecrt_math.h
; File C:\IAGOS\server\v18\Source\Source\_Common\Obj.h
; File C:\Program Files (x86)\Windows Kits\10\Include\10.0.26100.0\ucrt\corecrt_math.h
; File C:\IAGOS\server\v18\Source\Source\_Common\Obj.h
; File C:\Program Files (x86)\Windows Kits\10\Include\10.0.26100.0\ucrt\corecrt_math.h
; File C:\IAGOS\server\v18\Source\Source\_Common\Obj.h
; File C:\IAGOS\server\v18\Source\Source\_Common\MoverSkill.cpp
; File C:\IAGOS\server\v18\Source\Source\_Common\Obj.h
; File C:\Program Files (x86)\Windows Kits\10\Include\10.0.26100.0\ucrt\corecrt_math.h
; File C:\IAGOS\server\v18\Source\Source\_Common\MoverSkill.cpp
; File C:\Program Files (x86)\Windows Kits\10\Include\10.0.26100.0\ucrt\corecrt_math.h
; File C:\IAGOS\server\v18\Source\Source\_Common\MoverSkill.cpp
; File C:\IAGOS\server\v18\Source\Source\_Common\Obj.h
; File C:\IAGOS\server\v18\Source\Source\DX_SDK\d3dx9math.inl
; File C:\IAGOS\server\v18\Source\Source\_Common\MoverSkill.cpp
; File C:\Program Files (x86)\Windows Kits\10\Include\10.0.26100.0\ucrt\corecrt_math.h
; File C:\IAGOS\server\v18\Source\Source\_Common\Obj.h
; File C:\IAGOS\server\v18\Source\Source\_Common\MoverSkill.cpp
; File C:\IAGOS\server\v18\Source\Source\_Common\Obj.h
; File C:\IAGOS\server\v18\Source\Source\_Common\MoverSkill.cpp
; File C:\IAGOS\server\v18\Source\Source\DX_SDK\d3dx9math.inl
; File C:\IAGOS\server\v18\Source\Source\_Common\MoverSkill.cpp
; File C:\IAGOS\server\v18\Source\Source\DX_SDK\d3dx9math.inl
; File C:\IAGOS\server\v18\Source\Source\_Common\MoverSkill.cpp
;	COMDAT ?OnAfterUseItem@CMover@@QAEXPBUItemProp@@@Z
_TEXT	SEGMENT
_sPos$$sroa$328$1$ = -28				; size = 4
_sPos$$sroa$330$1$ = -24				; size = 4
_sPos$$sroa$329$ = -20					; size = 4
_fTheta$1$ = -20					; size = 4
$T1 = -16						; size = 12
$T2 = -16						; size = 12
$T3 = -16						; size = 12
$T4 = -16						; size = 12
$T5 = -16						; size = 12
__$ArrayPad$ = -4					; size = 4
_pItemProp$ = 8						; size = 4
?OnAfterUseItem@CMover@@QAEXPBUItemProp@@@Z PROC	; CMover::OnAfterUseItem, COMDAT
; _this$ = ecx

; 1307 : {

  00000	55		 push	 ebp
  00001	8b ec		 mov	 ebp, esp
  00003	83 ec 1c	 sub	 esp, 28			; 0000001cH
  00006	a1 00 00 00 00	 mov	 eax, DWORD PTR ___security_cookie
  0000b	33 c5		 xor	 eax, ebp
  0000d	89 45 fc	 mov	 DWORD PTR __$ArrayPad$[ebp], eax
  00010	56		 push	 esi
  00011	57		 push	 edi
  00012	8b 7d 08	 mov	 edi, DWORD PTR _pItemProp$[ebp]
  00015	8b f1		 mov	 esi, ecx

; 1308 : #ifdef __WORLDSERVER
; 1309 : 	if( pItemProp == NULL )

  00017	85 ff		 test	 edi, edi
  00019	0f 84 92 01 00
	00		 je	 $LN15@OnAfterUse

; 1310 : 		return;
; 1311 : 
; 1312 : 	D3DXVECTOR3 sPos = D3DXVECTOR3(0.0f,0.0f,0.0f);
; 1313 : 	DWORD dwSfxID = pItemProp->dwSfxObj3;		// ľĆŔĚĹŰ »çżë˝Ăżˇ »ýĽşµÉ ŔĚĆĺĆ®
; 1314 : 
; 1315 : 	if(	pItemProp->dwItemKind3 == IK3_MAGICTRICK ) // ŔĚĆĺĆ® ľĆŔĚĹŰ·ů

  0001f	83 7f 78 21	 cmp	 DWORD PTR [edi+120], 33	; 00000021H
  00023	0f 57 c9	 xorps	 xmm1, xmm1
  00026	53		 push	 ebx
  00027	8b 9f ac 01 00
	00		 mov	 ebx, DWORD PTR [edi+428]
  0002d	0f 57 c0	 xorps	 xmm0, xmm0
  00030	0f 57 d2	 xorps	 xmm2, xmm2
  00033	0f 85 3a 01 00
	00		 jne	 $LN2@OnAfterUse

; 1316 : 	{
; 1317 : 		float	fTheta = D3DXToRadian( GetAngle() );

  00039	f3 0f 10 5e 18	 movss	 xmm3, DWORD PTR [esi+24]
  0003e	f3 0f 59 1d 00
	00 00 00	 mulss	 xmm3, DWORD PTR __real@3c8efa35

; 1318 : 		switch( pItemProp->dwID )

  00046	8b 07		 mov	 eax, DWORD PTR [edi]
  00048	f3 0f 11 5d ec	 movss	 DWORD PTR _fTheta$1$[ebp], xmm3
  0004d	3d ed 27 00 00	 cmp	 eax, 10221		; 000027edH
  00052	77 46		 ja	 SHORT $LN17@OnAfterUse
  00054	74 54		 je	 SHORT $LN6@OnAfterUse
  00056	2d 58 0b 00 00	 sub	 eax, 2904		; 00000b58H
  0005b	83 f8 04	 cmp	 eax, 4
  0005e	0f 87 0f 01 00
	00		 ja	 $LN2@OnAfterUse
  00064	ff 24 85 00 00
	00 00		 jmp	 DWORD PTR $LN38@OnAfterUse[eax*4]
$LN11@OnAfterUse:
; File C:\IAGOS\server\v18\Source\Source\_Common\Obj.h

; 215  : 	D3DXVECTOR3		GetPos()	{ return m_vPos; }

  0006b	f3 0f 7e 86 60
	01 00 00	 movq	 xmm0, QWORD PTR [esi+352]
; File C:\IAGOS\server\v18\Source\Source\_Common\MoverSkill.cpp

; 1333 : 			sPos.x = GetPos().x;

  00073	f3 0f 10 8e 60
	01 00 00	 movss	 xmm1, DWORD PTR [esi+352]

; 1334 : 			sPos.z = GetPos().z;

  0007b	f3 0f 10 96 68
	01 00 00	 movss	 xmm2, DWORD PTR [esi+360]
; File C:\IAGOS\server\v18\Source\Source\_Common\Obj.h

; 215  : 	D3DXVECTOR3		GetPos()	{ return m_vPos; }

  00083	66 0f d6 45 f0	 movq	 QWORD PTR $T5[ebp], xmm0
; File C:\IAGOS\server\v18\Source\Source\_Common\MoverSkill.cpp

; 1335 : 			sPos.y = GetPos().y + 3.0f;

  00088	f3 0f 10 45 f4	 movss	 xmm0, DWORD PTR $T5[ebp+4]
  0008d	f3 0f 58 05 00
	00 00 00	 addss	 xmm0, DWORD PTR __real@40400000
  00095	e9 d9 00 00 00	 jmp	 $LN2@OnAfterUse
$LN17@OnAfterUse:

; 1318 : 		switch( pItemProp->dwID )

  0009a	2d ee 27 00 00	 sub	 eax, 10222		; 000027eeH
  0009f	74 09		 je	 SHORT $LN6@OnAfterUse
  000a1	83 e8 02	 sub	 eax, 2
  000a4	0f 85 c9 00 00
	00		 jne	 $LN2@OnAfterUse
$LN6@OnAfterUse:
; File C:\IAGOS\server\v18\Source\Source\_Common\Obj.h

; 215  : 	D3DXVECTOR3		GetPos()	{ return m_vPos; }

  000aa	f3 0f 7e 86 60
	01 00 00	 movq	 xmm0, QWORD PTR [esi+352]
  000b2	8b 86 68 01 00
	00		 mov	 eax, DWORD PTR [esi+360]
  000b8	66 0f d6 45 f0	 movq	 QWORD PTR $T1[ebp], xmm0
; File C:\Program Files (x86)\Windows Kits\10\Include\10.0.26100.0\ucrt\corecrt_math.h

; 789  :             return (float)sin(_X);

  000bd	0f 5a c3	 cvtps2pd xmm0, xmm3
; File C:\IAGOS\server\v18\Source\Source\_Common\Obj.h

; 215  : 	D3DXVECTOR3		GetPos()	{ return m_vPos; }

  000c0	89 45 f8	 mov	 DWORD PTR $T1[ebp+8], eax
; File C:\Program Files (x86)\Windows Kits\10\Include\10.0.26100.0\ucrt\corecrt_math.h

; 789  :             return (float)sin(_X);

  000c3	e8 00 00 00 00	 call	 __libm_sse2_sin_precise
; File C:\IAGOS\server\v18\Source\Source\_Common\Obj.h

; 215  : 	D3DXVECTOR3		GetPos()	{ return m_vPos; }

  000c8	f3 0f 7e 8e 60
	01 00 00	 movq	 xmm1, QWORD PTR [esi+352]
  000d0	8b 86 68 01 00
	00		 mov	 eax, DWORD PTR [esi+360]
; File C:\Program Files (x86)\Windows Kits\10\Include\10.0.26100.0\ucrt\corecrt_math.h

; 789  :             return (float)sin(_X);

  000d6	f2 0f 5a c0	 cvtsd2ss xmm0, xmm0
; File C:\IAGOS\server\v18\Source\Source\_Common\Obj.h

; 215  : 	D3DXVECTOR3		GetPos()	{ return m_vPos; }

  000da	89 45 f8	 mov	 DWORD PTR $T2[ebp+8], eax
; File C:\IAGOS\server\v18\Source\Source\_Common\MoverSkill.cpp

; 1325 : 			sPos.x = GetPos().x + sinf(fTheta) * 3.0f;			// ąŮ¶óş¸´Â ąćÇâ 1ąĚĹÍ ľŐżˇ´Ů ąß»ý˝ĂĹ´.

  000dd	f3 0f 59 05 00
	00 00 00	 mulss	 xmm0, DWORD PTR __real@40400000
  000e5	f3 0f 58 45 f0	 addss	 xmm0, DWORD PTR $T1[ebp]
; File C:\IAGOS\server\v18\Source\Source\_Common\Obj.h

; 215  : 	D3DXVECTOR3		GetPos()	{ return m_vPos; }

  000ea	66 0f d6 4d f0	 movq	 QWORD PTR $T2[ebp], xmm1
; File C:\Program Files (x86)\Windows Kits\10\Include\10.0.26100.0\ucrt\corecrt_math.h

; 683  :             return (float)cos(_X);

  000ef	f3 0f 10 4d ec	 movss	 xmm1, DWORD PTR _fTheta$1$[ebp]
; File C:\IAGOS\server\v18\Source\Source\_Common\MoverSkill.cpp

; 1325 : 			sPos.x = GetPos().x + sinf(fTheta) * 3.0f;			// ąŮ¶óş¸´Â ąćÇâ 1ąĚĹÍ ľŐżˇ´Ů ąß»ý˝ĂĹ´.

  000f4	f3 0f 11 45 e8	 movss	 DWORD PTR _sPos$$sroa$330$1$[ebp], xmm0
; File C:\Program Files (x86)\Windows Kits\10\Include\10.0.26100.0\ucrt\corecrt_math.h

; 683  :             return (float)cos(_X);

  000f9	0f 5a c1	 cvtps2pd xmm0, xmm1
  000fc	e8 00 00 00 00	 call	 __libm_sse2_cos_precise
; File C:\IAGOS\server\v18\Source\Source\_Common\MoverSkill.cpp

; 1326 : 			sPos.z = GetPos().z + -cosf(fTheta) * 3.0f;

  00101	f3 0f 10 55 f8	 movss	 xmm2, DWORD PTR $T2[ebp+8]
; File C:\IAGOS\server\v18\Source\Source\_Common\Obj.h

; 215  : 	D3DXVECTOR3		GetPos()	{ return m_vPos; }

  00106	8b 86 68 01 00
	00		 mov	 eax, DWORD PTR [esi+360]
; File C:\IAGOS\server\v18\Source\Source\DX_SDK\d3dx9math.inl

; 300  :     x = fx;

  0010c	f3 0f 10 4d e8	 movss	 xmm1, DWORD PTR _sPos$$sroa$330$1$[ebp]
; File C:\IAGOS\server\v18\Source\Source\_Common\MoverSkill.cpp

; 1328 : 			sPos.y = GetWorld()->GetUnderHeight( D3DXVECTOR3(sPos.x,sPos.y,sPos.z) );

  00111	8b 8e 6c 01 00
	00		 mov	 ecx, DWORD PTR [esi+364]
; File C:\Program Files (x86)\Windows Kits\10\Include\10.0.26100.0\ucrt\corecrt_math.h

; 683  :             return (float)cos(_X);

  00117	f2 0f 5a c0	 cvtsd2ss xmm0, xmm0
; File C:\IAGOS\server\v18\Source\Source\_Common\Obj.h

; 215  : 	D3DXVECTOR3		GetPos()	{ return m_vPos; }

  0011b	89 45 f8	 mov	 DWORD PTR $T3[ebp+8], eax
; File C:\IAGOS\server\v18\Source\Source\_Common\MoverSkill.cpp

; 1328 : 			sPos.y = GetWorld()->GetUnderHeight( D3DXVECTOR3(sPos.x,sPos.y,sPos.z) );

  0011e	8d 45 f0	 lea	 eax, DWORD PTR $T4[ebp]
  00121	50		 push	 eax
  00122	f3 0f 59 05 00
	00 00 00	 mulss	 xmm0, DWORD PTR __real@40400000
  0012a	f3 0f 5c d0	 subss	 xmm2, xmm0
; File C:\IAGOS\server\v18\Source\Source\_Common\Obj.h

; 215  : 	D3DXVECTOR3		GetPos()	{ return m_vPos; }

  0012e	f3 0f 7e 86 60
	01 00 00	 movq	 xmm0, QWORD PTR [esi+352]
  00136	66 0f d6 45 f0	 movq	 QWORD PTR $T3[ebp], xmm0
; File C:\IAGOS\server\v18\Source\Source\_Common\MoverSkill.cpp

; 1327 : 			sPos.y = GetPos().y + 1.5f;

  0013b	f3 0f 10 45 f4	 movss	 xmm0, DWORD PTR $T3[ebp+4]
  00140	f3 0f 58 05 00
	00 00 00	 addss	 xmm0, DWORD PTR __real@3fc00000
; File C:\IAGOS\server\v18\Source\Source\DX_SDK\d3dx9math.inl

; 300  :     x = fx;

  00148	f3 0f 11 4d f0	 movss	 DWORD PTR $T4[ebp], xmm1
; File C:\IAGOS\server\v18\Source\Source\_Common\MoverSkill.cpp

; 1326 : 			sPos.z = GetPos().z + -cosf(fTheta) * 3.0f;

  0014d	f3 0f 11 55 e4	 movss	 DWORD PTR _sPos$$sroa$328$1$[ebp], xmm2
; File C:\IAGOS\server\v18\Source\Source\DX_SDK\d3dx9math.inl

; 302  :     z = fz;

  00152	f3 0f 11 55 f8	 movss	 DWORD PTR $T4[ebp+8], xmm2
  00157	f3 0f 11 45 f4	 movss	 DWORD PTR $T4[ebp+4], xmm0
; File C:\IAGOS\server\v18\Source\Source\_Common\MoverSkill.cpp

; 1328 : 			sPos.y = GetWorld()->GetUnderHeight( D3DXVECTOR3(sPos.x,sPos.y,sPos.z) );

  0015c	e8 00 00 00 00	 call	 ?GetUnderHeight@CWorld@@QAEMABUD3DXVECTOR3@@@Z ; CWorld::GetUnderHeight
  00161	f3 0f 10 4d e8	 movss	 xmm1, DWORD PTR _sPos$$sroa$330$1$[ebp]
  00166	f3 0f 10 55 e4	 movss	 xmm2, DWORD PTR _sPos$$sroa$328$1$[ebp]
  0016b	d9 5d ec	 fstp	 DWORD PTR _sPos$$sroa$329$[ebp]
  0016e	f3 0f 10 45 ec	 movss	 xmm0, DWORD PTR _sPos$$sroa$329$[ebp]
$LN2@OnAfterUse:

; 1336 : 			break;
; 1337 : 		}
; 1338 : 	}
; 1339 : 
; 1340 : 	if( dwSfxID != NULL_ID )		

  00173	83 fb ff	 cmp	 ebx, -1
  00176	74 22		 je	 SHORT $LN14@OnAfterUse

; 1341 : 		g_UserMng.AddCreateSfxObj( this, dwSfxID, sPos.x, sPos.y, sPos.z );	// Ŕý´ëÁÂÇĄ·Î ÇĎŔÚ.

  00178	6a 00		 push	 0
  0017a	83 ec 0c	 sub	 esp, 12			; 0000000cH
  0017d	b9 00 00 00 00	 mov	 ecx, OFFSET ?g_UserMng@@3VCUserMng@@A ; g_UserMng
  00182	f3 0f 11 54 24
	08		 movss	 DWORD PTR [esp+8], xmm2
  00188	f3 0f 11 44 24
	04		 movss	 DWORD PTR [esp+4], xmm0
  0018e	f3 0f 11 0c 24	 movss	 DWORD PTR [esp], xmm1
  00193	53		 push	 ebx
  00194	56		 push	 esi
  00195	e8 00 00 00 00	 call	 ?AddCreateSfxObj@CUserMng@@QAEXPAVCCtrl@@KMMMH@Z ; CUserMng::AddCreateSfxObj
$LN14@OnAfterUse:

; 1342 : #if __VER >= 13 // __HONORABLE_TITLE			// ´ŢŔÎ
; 1343 : 	if( IsPlayer() )

  0019a	83 be 30 02 00
	00 00		 cmp	 DWORD PTR [esi+560], 0
  001a1	5b		 pop	 ebx
  001a2	74 0d		 je	 SHORT $LN15@OnAfterUse

; 1344 : 		((CUser*)this)->SetHonorAdd(pItemProp->dwID,HI_USE_ITEM);

  001a4	6a 00		 push	 0
  001a6	6a 05		 push	 5
  001a8	ff 37		 push	 DWORD PTR [edi]
  001aa	8b ce		 mov	 ecx, esi
  001ac	e8 00 00 00 00	 call	 ?SetHonorAdd@CMover@@QAEXHHH@Z ; CMover::SetHonorAdd
$LN15@OnAfterUse:

; 1345 : #ifndef __MAINSERVER
; 1346 : 	else
; 1347 : 		FILEOUT( "..\\HonorError.txt", "OnAfterUseItem()\n" );
; 1348 : #endif	// __MAINSERVER
; 1349 : #endif	// __HONORABLE_TITLE			// ´ŢŔÎ
; 1350 : 
; 1351 : #endif // __WORLDSERVER
; 1352 : }

  001b1	8b 4d fc	 mov	 ecx, DWORD PTR __$ArrayPad$[ebp]
  001b4	5f		 pop	 edi
  001b5	33 cd		 xor	 ecx, ebp
  001b7	5e		 pop	 esi
  001b8	e8 00 00 00 00	 call	 @__security_check_cookie@4
  001bd	8b e5		 mov	 esp, ebp
  001bf	5d		 pop	 ebp
  001c0	c2 04 00	 ret	 4
  001c3	90		 npad	 1
$LN38@OnAfterUse:
  001c4	00 00 00 00	 DD	 $LN11@OnAfterUse
  001c8	00 00 00 00	 DD	 $LN6@OnAfterUse
  001cc	00 00 00 00	 DD	 $LN11@OnAfterUse
  001d0	00 00 00 00	 DD	 $LN11@OnAfterUse
  001d4	00 00 00 00	 DD	 $LN6@OnAfterUse
?OnAfterUseItem@CMover@@QAEXPBUItemProp@@@Z ENDP	; CMover::OnAfterUseItem
_TEXT	ENDS
; Function compile flags: /Ogtp
; File C:\IAGOS\server\v18\Source\Source\_Common\MoverSkill.cpp
; File C:\IAGOS\server\v18\Source\Source\_AIInterface\Action.h
; File C:\IAGOS\server\v18\Source\Source\_Common\MoverSkill.cpp
; File C:\IAGOS\server\v18\Source\Source\_Common\Mover.h
; File C:\IAGOS\server\v18\Source\Source\_Common\MoverSkill.cpp
; File C:\IAGOS\server\v18\Source\Source\_Common\Mover.h
; File C:\IAGOS\server\v18\Source\Source\_Common\MoverSkill.cpp
; File C:\IAGOS\server\v18\Source\Source\_Common\Obj.h
; File C:\IAGOS\server\v18\Source\Source\_Common\MoverSkill.cpp
; File C:\IAGOS\server\v18\Source\Source\_Common\Mover.h
; File C:\IAGOS\server\v18\Source\Source\_Common\MoverSkill.cpp
; File C:\IAGOS\server\v18\Source\Source\_Common\Mover.h
; File C:\IAGOS\server\v18\Source\Source\_Common\MoverSkill.cpp
; File C:\IAGOS\server\v18\Source\Source\_Common\World.h
; File C:\IAGOS\server\v18\Source\Source\_Common\MoverSkill.cpp
; File C:\IAGOS\server\v18\Source\Source\_Common\Obj.h
; File C:\IAGOS\server\v18\Source\Source\_Common\MoverSkill.cpp
; File C:\IAGOS\server\v18\Source\Source\_Common\Obj.h
; File C:\IAGOS\server\v18\Source\Source\_Common\MoverSkill.cpp
; File C:\IAGOS\server\v18\Source\Source\_Common\Obj.h
; File C:\IAGOS\server\v18\Source\Source\_Common\MoverSkill.cpp
; File C:\IAGOS\server\v18\Source\Source\_Common\Obj.h
; File C:\IAGOS\server\v18\Source\Source\_Common\MoverSkill.cpp
; File C:\IAGOS\server\v18\Source\Source\_Common\Obj.h
; File C:\IAGOS\server\v18\Source\Source\_Common\MoverSkill.cpp
; File C:\IAGOS\server\v18\Source\Source\_Common\Obj.h
; File C:\IAGOS\server\v18\Source\Source\_Common\MoverSkill.cpp
; File C:\IAGOS\server\v18\Source\Source\_Common\Obj.h
; File C:\IAGOS\server\v18\Source\Source\_Common\MoverSkill.cpp
; File C:\IAGOS\server\v18\Source\Source\_Common\World.h
; File C:\IAGOS\server\v18\Source\Source\_Common\MoverSkill.cpp
; File C:\IAGOS\server\v18\Source\Source\_Common\World.h
; File C:\IAGOS\server\v18\Source\Source\_Common\MoverSkill.cpp
; File C:\IAGOS\server\v18\Source\Source\_Common\World.h
; File C:\IAGOS\server\v18\Source\Source\_Common\MoverSkill.cpp
; File C:\IAGOS\server\v18\Source\Source\_Common\World.h
; File C:\IAGOS\server\v18\Source\Source\DX_SDK\d3dx9math.inl
; File C:\IAGOS\server\v18\Source\Source\_Common\MoverSkill.cpp
; File C:\IAGOS\server\v18\Source\Source\DX_SDK\d3dx9math.inl
; File C:\IAGOS\server\v18\Source\Source\_Common\MoverSkill.cpp
; File C:\IAGOS\server\v18\Source\Source\_Common\Mover.h
; File C:\IAGOS\server\v18\Source\Source\_Common\MoverSkill.cpp
; File C:\IAGOS\server\v18\Source\Source\_Common\Mover.h
; File C:\IAGOS\server\v18\Source\Source\_Common\MoverSkill.cpp
; File C:\IAGOS\server\v18\Source\Source\_Common\Mover.h
; File C:\IAGOS\server\v18\Source\Source\_Common\MoverSkill.cpp
; File C:\IAGOS\server\v18\Source\Source\_Common\Mover.h
; File C:\IAGOS\server\v18\Source\Source\_Common\MoverSkill.cpp
; File C:\IAGOS\server\v18\Source\Source\_Common\Mover.h
; File C:\IAGOS\server\v18\Source\Source\_Common\MoverSkill.cpp
; File C:\IAGOS\server\v18\Source\Source\_Common\Mover.h
; File C:\IAGOS\server\v18\Source\Source\_Common\MoverSkill.cpp
;	COMDAT ?DoUseSkill@CMover@@QAEHKHKW4SKILLUSETYPE@@HH@Z
_TEXT	SEGMENT
_idFocusObj$GSCopy$1$ = -52				; size = 4
_pTarget$1$ = -48					; size = 4
_fZ$1$ = -48						; size = 4
tv2095 = -44						; size = 4
_pItemElemR$1$ = -44					; size = 4
_fX$1$ = -44						; size = 4
_pAddSkillProp$ = -40					; size = 4
_pWorld$1$ = -36					; size = 4
_nMotion$1$ = -36					; size = 4
_inv_mpu$1$ = -36					; size = 4
_pSkillProp$ = -32					; size = 4
$T1 = -28						; size = 12
$T2 = -28						; size = 12
$T3 = -16						; size = 12
_vPos$4 = -16						; size = 12
__$ArrayPad$ = -4					; size = 4
_dwSkill$ = 8						; size = 4
_nLevel$ = 12						; size = 4
_idFocusObj$ = 16					; size = 4
_sutType$ = 20						; size = 4
_bControl$ = 24						; size = 4
_nCastingTime$ = 28					; size = 4
?DoUseSkill@CMover@@QAEHKHKW4SKILLUSETYPE@@HH@Z PROC	; CMover::DoUseSkill, COMDAT
; _this$ = ecx

; 295  : {

  00000	55		 push	 ebp
  00001	8b ec		 mov	 ebp, esp
  00003	83 ec 34	 sub	 esp, 52			; 00000034H
  00006	a1 00 00 00 00	 mov	 eax, DWORD PTR ___security_cookie
  0000b	33 c5		 xor	 eax, ebp
  0000d	89 45 fc	 mov	 DWORD PTR __$ArrayPad$[ebp], eax
  00010	53		 push	 ebx
  00011	8b d9		 mov	 ebx, ecx
  00013	56		 push	 esi
  00014	57		 push	 edi
  00015	8b 7d 10	 mov	 edi, DWORD PTR _idFocusObj$[ebp]
; File C:\IAGOS\server\v18\Source\Source\_AIInterface\Action.h

; 310  : 	BOOL			IsDie() { return (m_dwState & OBJSTA_DIE_ALL) ? TRUE : FALSE; }

  00018	8b 83 38 02 00
	00		 mov	 eax, DWORD PTR [ebx+568]
; File C:\IAGOS\server\v18\Source\Source\_Common\MoverSkill.cpp

; 295  : {

  0001e	89 7d cc	 mov	 DWORD PTR _idFocusObj$GSCopy$1$[ebp], edi
; File C:\IAGOS\server\v18\Source\Source\_Common\Mover.h

; 1250 : 	BOOL			IsDie() { return m_pActMover->IsDie() || m_nHitPoint == 0; }

  00021	f7 40 04 00 00
	00 08		 test	 DWORD PTR [eax+4], 134217728 ; 08000000H
  00028	0f 85 8c 01 00
	00		 jne	 $LN254@DoUseSkill
  0002e	83 bb f8 05 00
	00 00		 cmp	 DWORD PTR [ebx+1528], 0
  00035	0f 84 7f 01 00
	00		 je	 $LN254@DoUseSkill
; File C:\IAGOS\server\v18\Source\Source\_Common\MoverSkill.cpp

; 297  : 	if( m_pActMover->IsFly() )	return FALSE;

  0003b	f6 40 08 08	 test	 BYTE PTR [eax+8], 8
  0003f	0f 85 75 01 00
	00		 jne	 $LN254@DoUseSkill

; 298  : 	if( m_dwFlag & MVRF_NOATTACK )	

  00045	f7 83 44 02 00
	00 00 02 00 00	 test	 DWORD PTR [ebx+580], 512 ; 00000200H
  0004f	0f 85 65 01 00
	00		 jne	 $LN254@DoUseSkill

; 299  : 		return FALSE;		// °ř°Ý±ÝÁö »óĹÂżˇĽ± ˝şĹł ¸řľ¸.
; 300  : 
; 301  : #ifdef __QUIZ
; 302  : 	if( GetWorld() && GetWorld()->GetID() == WI_WORLD_QUIZ )

  00055	8b b3 6c 01 00
	00		 mov	 esi, DWORD PTR [ebx+364]
  0005b	89 75 dc	 mov	 DWORD PTR _pWorld$1$[ebp], esi
  0005e	85 f6		 test	 esi, esi
  00060	74 46		 je	 SHORT $LN245@DoUseSkill
  00062	81 3e d3 00 00
	00		 cmp	 DWORD PTR [esi], 211	; 000000d3H
  00068	0f 84 4c 01 00
	00		 je	 $LN254@DoUseSkill

; 303  : 		return FALSE;
; 304  : #endif // __QUIZ
; 305  : 	
; 306  : #if defined(__WORLDSERVER)	
; 307  : 	// ±ćµĺ´ëŔü¸ĘżˇĽ­ Ľ±Ľö¸¸ »çżë
; 308  : 	CWorld* pWorld	= GetWorld();
; 309  : 	if( pWorld && pWorld->GetID() == WI_WORLD_GUILDWAR )

  0006e	81 3e ca 00 00
	00		 cmp	 DWORD PTR [esi], 202	; 000000caH
  00074	75 35		 jne	 SHORT $LN9@DoUseSkill

; 310  : 	{		
; 311  : 		if( m_nGuildCombatState == 0 )

  00076	83 bb b0 0d 00
	00 00		 cmp	 DWORD PTR [ebx+3504], 0
  0007d	75 2c		 jne	 SHORT $LN9@DoUseSkill

; 312  : 		{
; 313  : 			if( IsPlayer() )

  0007f	83 bb 30 02 00
	00 00		 cmp	 DWORD PTR [ebx+560], 0
  00086	0f 84 2e 01 00
	00		 je	 $LN254@DoUseSkill

; 314  : 				((CUser*) this)->AddText( prj.GetText( TID_GAME_GUILDCOMBAT_STANDS_NOTUSESKILL ) );	//"ĽöÁ¤ÇŘľßÇÔ : °üÁßĽ®żˇĽ­´Â ˝şĹłŔ» »çżëÇŇĽö ľř˝Ŕ´Ď´Ů" );

  0008c	68 a2 0b 00 00	 push	 2978			; 00000ba2H
  00091	b9 00 00 00 00	 mov	 ecx, OFFSET ?prj@@3VCProject@@A ; prj
  00096	e8 00 00 00 00	 call	 ?GetText@CProject@@QAEPBDK@Z ; CProject::GetText
  0009b	50		 push	 eax
  0009c	8b cb		 mov	 ecx, ebx
  0009e	e8 00 00 00 00	 call	 ?AddText@CUser@@QAEXPBD@Z ; CUser::AddText

; 320  : 	if( IsMode( NO_ATTACK_MODE ) ) return FALSE;

  000a3	e9 12 01 00 00	 jmp	 $LN254@DoUseSkill
$LN245@DoUseSkill:
; File C:\IAGOS\server\v18\Source\Source\_Common\Mover.h

; 1254 : 	void			SetPKPink( DWORD dwTime ) { if( dwTime == 0 || m_dwPKTime < dwTime ) m_dwPKTime = dwTime; }

  000a8	89 75 dc	 mov	 DWORD PTR _pWorld$1$[ebp], esi
$LN9@DoUseSkill:
; File C:\IAGOS\server\v18\Source\Source\_Common\MoverSkill.cpp

; 320  : 	if( IsMode( NO_ATTACK_MODE ) ) return FALSE;

  000ab	f6 83 40 02 00
	00 40		 test	 BYTE PTR [ebx+576], 64	; 00000040H
  000b2	0f 85 02 01 00
	00		 jne	 $LN254@DoUseSkill

; 321  : 	
; 322  : 	ItemProp *pSkillProp = NULL;
; 323  : 	AddSkillProp *pAddSkillProp = NULL;
; 324  : 	GetSkillProp( &pSkillProp, &pAddSkillProp, dwSkill, nLevel, "DoUseSkill" );

  000b8	8b 03		 mov	 eax, DWORD PTR [ebx]
  000ba	8d 4d d8	 lea	 ecx, DWORD PTR _pAddSkillProp$[ebp]
  000bd	68 00 00 00 00	 push	 OFFSET ??_C@_0L@LLMCBIOI@DoUseSkill@
  000c2	ff 75 0c	 push	 DWORD PTR _nLevel$[ebp]
  000c5	c7 45 e0 00 00
	00 00		 mov	 DWORD PTR _pSkillProp$[ebp], 0
  000cc	ff 75 08	 push	 DWORD PTR _dwSkill$[ebp]
  000cf	c7 45 d8 00 00
	00 00		 mov	 DWORD PTR _pAddSkillProp$[ebp], 0
  000d6	51		 push	 ecx
  000d7	8d 4d e0	 lea	 ecx, DWORD PTR _pSkillProp$[ebp]
  000da	51		 push	 ecx
  000db	8b cb		 mov	 ecx, ebx
  000dd	ff 50 30	 call	 DWORD PTR [eax+48]

; 325  : 
; 326  : #ifdef __CLIENT
; 327  : 	// ŔĎ´ëŔĎ ±ćµĺ´ëŔü ˝Ă şí¸µĹ©Ç® »çżë ±ÝÁö
; 328  : 	DWORD dwWorldID(GetWorld()->GetID());
; 329  : 	if(dwWorldID >= WI_WORLD_GUILDWAR1TO1_0 && dwWorldID <= WI_WORLD_GUILDWAR1TO1_L)
; 330  : 	{
; 331  : 		if(pSkillProp->dwID == SI_MAG_MAG_BLINKPOOL)
; 332  : 		{
; 333  : 			g_WndMng.PutString(prj.GetText(TID_GAME_NEVERKILLSTOP), NULL, prj.GetTextColor(TID_GAME_NEVERKILLSTOP));
; 334  : 			return FALSE;
; 335  : 		}
; 336  : 	}
; 337  : #endif // __CLIENT
; 338  : 
; 339  : 	CMover* pTarget = prj.GetMover( idFocusObj );	// Ĺ¸°ŮŔÇ Ć÷ŔÎĹÍ¸¦ ľňľîłż.

  000e0	57		 push	 edi
  000e1	b9 00 00 00 00	 mov	 ecx, OFFSET ?prj@@3VCProject@@A ; prj
  000e6	e8 00 00 00 00	 call	 ?GetMover@CProject@@QAEPAVCMover@@K@Z ; CProject::GetMover
  000eb	8b f8		 mov	 edi, eax
  000ed	89 7d d0	 mov	 DWORD PTR _pTarget$1$[ebp], edi
; File C:\IAGOS\server\v18\Source\Source\_Common\Obj.h

; 327  : 	return pObj && ( pObj->IsDelete() == FALSE ); 

  000f0	85 ff		 test	 edi, edi
  000f2	0f 84 c2 00 00
	00		 je	 $LN254@DoUseSkill

; 180  : 	BOOL			IsDelete()	{ return (m_dwFlags & OBJ_FLAG_DELETE);  }

  000f8	f6 47 04 01	 test	 BYTE PTR [edi+4], 1

; 327  : 	return pObj && ( pObj->IsDelete() == FALSE ); 

  000fc	0f 85 b8 00 00
	00		 jne	 $LN254@DoUseSkill
; File C:\IAGOS\server\v18\Source\Source\_Common\MoverSkill.cpp

; 343  : 	if( pSkillProp->dwID == SI_ASS_HEAL_HEALING )	// Čú¸µ »ó´ë°ˇ Á×ľúŔ¸¸é ĂëĽŇ

  00102	8b 45 e0	 mov	 eax, DWORD PTR _pSkillProp$[ebp]
  00105	83 38 2c	 cmp	 DWORD PTR [eax], 44	; 0000002cH
  00108	75 12		 jne	 SHORT $LN14@DoUseSkill

; 344  : 	{
; 345  : 		if( pTarget->IsDie() )

  0010a	8b cf		 mov	 ecx, edi
  0010c	e8 00 00 00 00	 call	 ?IsDie@CMover@@QAEHXZ	; CMover::IsDie
  00111	85 c0		 test	 eax, eax
  00113	0f 85 a1 00 00
	00		 jne	 $LN254@DoUseSkill
  00119	8b 45 e0	 mov	 eax, DWORD PTR _pSkillProp$[ebp]
$LN14@DoUseSkill:

; 346  : 			return FALSE;
; 347  : 	}
; 348  : 
; 349  : #ifdef __WORLDSERVER
; 350  : #ifdef __PK_PVP_SKILL_REGION
; 351  : 	if( pSkillProp->nEvildoing < 0 )	//PK ±ÝÁö±¸żŞżˇĽ­ ľÇÇŕ Áľ·ůŔÇ ˝şĹłŔş PVP »ó´ëżˇ°Ô¸¸ »çżëÇĎµµ·Ď..

  0011c	83 b8 04 02 00
	00 00		 cmp	 DWORD PTR [eax+516], 0
  00123	0f 8d a9 00 00
	00		 jge	 $LN17@DoUseSkill

; 352  : 	{
; 353  : 		int nAttackerPK, nDefenderPK;
; 354  : 		nAttackerPK = nDefenderPK = 0;
; 355  : 		if( IsPlayer() && pTarget->IsPlayer() && (this != pTarget) ) //(this!=pTarget) - Ĺ¸°ŮŔ» ľČÂď´Â ˝şĹłŔş Ĺ¸°ŮŔĚ ˝ĂŔüŔÚŔĚ´Ů.

  00129	83 bb 30 02 00
	00 00		 cmp	 DWORD PTR [ebx+560], 0
  00130	0f 84 9c 00 00
	00		 je	 $LN17@DoUseSkill
  00136	83 bf 30 02 00
	00 00		 cmp	 DWORD PTR [edi+560], 0
  0013d	0f 84 8f 00 00
	00		 je	 $LN17@DoUseSkill
  00143	3b df		 cmp	 ebx, edi
  00145	0f 84 87 00 00
	00		 je	 $LN17@DoUseSkill

; 356  : 		{
; 357  : 			DWORD dwRegionAttr	= GetPKPVPRegionAttr();

  0014b	8b cb		 mov	 ecx, ebx
  0014d	e8 00 00 00 00	 call	 ?GetPKPVPRegionAttr@CMover@@QAEKXZ ; CMover::GetPKPVPRegionAttr
  00152	8b f8		 mov	 edi, eax

; 358  : 			nAttackerPK = IsPKPVPInspectionBase( dwRegionAttr, FALSE );

  00154	8b cb		 mov	 ecx, ebx
  00156	6a 00		 push	 0
  00158	57		 push	 edi
  00159	e8 00 00 00 00	 call	 ?IsPKPVPInspectionBase@CMover@@QAEHKH@Z ; CMover::IsPKPVPInspectionBase

; 359  : 			nDefenderPK = pTarget->IsPKPVPInspectionBase( dwRegionAttr, FALSE );

  0015e	6a 00		 push	 0
  00160	57		 push	 edi
  00161	8b 7d d0	 mov	 edi, DWORD PTR _pTarget$1$[ebp]
  00164	8b f0		 mov	 esi, eax
  00166	8b cf		 mov	 ecx, edi
  00168	e8 00 00 00 00	 call	 ?IsPKPVPInspectionBase@CMover@@QAEHKH@Z ; CMover::IsPKPVPInspectionBase

; 360  : 			if( (nAttackerPK == 1 || nDefenderPK == 1) &&

  0016d	83 fe 01	 cmp	 esi, 1
  00170	74 05		 je	 SHORT $LN18@DoUseSkill
  00172	83 f8 01	 cmp	 eax, 1
  00175	75 58		 jne	 SHORT $LN292@DoUseSkill
$LN18@DoUseSkill:
  00177	57		 push	 edi
  00178	8b cb		 mov	 ecx, ebx
  0017a	e8 00 00 00 00	 call	 ?IsPVPTarget@CMover@@QAEHPAV1@@Z ; CMover::IsPVPTarget
  0017f	85 c0		 test	 eax, eax
  00181	75 4c		 jne	 SHORT $LN292@DoUseSkill
  00183	57		 push	 edi
  00184	8b cb		 mov	 ecx, ebx
  00186	e8 00 00 00 00	 call	 ?IsWarTarget@CMover@@QAEHPAV1@@Z ; CMover::IsWarTarget
  0018b	85 c0		 test	 eax, eax
  0018d	75 40		 jne	 SHORT $LN292@DoUseSkill
  0018f	57		 push	 edi
  00190	8b cb		 mov	 ecx, ebx
  00192	e8 00 00 00 00	 call	 ?IsGuildCombatTarget@CMover@@QAEHPAV1@@Z ; CMover::IsGuildCombatTarget
  00197	85 c0		 test	 eax, eax
  00199	75 34		 jne	 SHORT $LN292@DoUseSkill
  0019b	57		 push	 edi
  0019c	8b cb		 mov	 ecx, ebx
  0019e	e8 00 00 00 00	 call	 ?IsArenaTarget@CMover@@QAEHPAV1@@Z ; CMover::IsArenaTarget
  001a3	85 c0		 test	 eax, eax
  001a5	75 28		 jne	 SHORT $LN292@DoUseSkill

; 361  : 				!( 
; 362  : 						IsPVPTarget( pTarget )
; 363  : 					|| IsWarTarget( pTarget )
; 364  : 					|| IsGuildCombatTarget( pTarget ) 
; 365  : #ifdef __JEFF_11_4
; 366  : 					|| IsArenaTarget( pTarget )
; 367  : #endif	// __JEFF_11_4
; 368  : 				) )
; 369  : 			{
; 370  : 				((CUser*)this)->AddDefinedText( TID_GMAE_PK_NOT_AREA, "" );

  001a7	68 00 00 00 00	 push	 OFFSET ??_C@_00CNPNBAHC@@
  001ac	68 42 0c 00 00	 push	 3138			; 00000c42H
$LN459@DoUseSkill:

; 1128 : 		}
; 1129 : 	}
; 1130 : #endif // __WORLDSERVER
; 1131 : #endif // __VER >= 8 // __S8_PK
; 1132 : 	
; 1133 : 	return TRUE;
; 1134 : }

  001b1	53		 push	 ebx
  001b2	e8 00 00 00 00	 call	 ?AddDefinedText@CUser@@QAAXHPBDZZ ; CUser::AddDefinedText
  001b7	83 c4 0c	 add	 esp, 12			; 0000000cH
$LN254@DoUseSkill:
  001ba	5f		 pop	 edi
  001bb	5e		 pop	 esi
  001bc	33 c0		 xor	 eax, eax
  001be	5b		 pop	 ebx
  001bf	8b 4d fc	 mov	 ecx, DWORD PTR __$ArrayPad$[ebp]
  001c2	33 cd		 xor	 ecx, ebp
  001c4	e8 00 00 00 00	 call	 @__security_check_cookie@4
  001c9	8b e5		 mov	 esp, ebp
  001cb	5d		 pop	 ebp
  001cc	c2 18 00	 ret	 24			; 00000018H
$LN292@DoUseSkill:

; 371  : 				return FALSE;
; 372  : 			}
; 373  : 		}
; 374  : 	}
; 375  : #endif // __PK_PVP_SKILL_REGION
; 376  : 	if( HasBuff( BUFF_SKILL, SI_BLD_SUP_BERSERK ) )		// ąöĽ­Ĺ©°ˇ °É·ÁŔÖ´Â »óĹÂżˇĽ± ˝şĹł»çżë ±ÝÁö.

  001cf	8b 75 dc	 mov	 esi, DWORD PTR _pWorld$1$[ebp]
$LN17@DoUseSkill:
  001d2	68 8f 00 00 00	 push	 143			; 0000008fH
  001d7	6a 01		 push	 1
  001d9	8b cb		 mov	 ecx, ebx
  001db	e8 00 00 00 00	 call	 ?HasBuff@CMover@@QAEHGG@Z ; CMover::HasBuff
  001e0	85 c0		 test	 eax, eax
  001e2	75 d6		 jne	 SHORT $LN254@DoUseSkill

; 377  : 		return FALSE;
; 378  : 
; 379  : #ifdef __NPC_BUFF
; 380  : 	if( ( pSkillProp->dwID == SI_ASS_CHEER_QUICKSTEP && pTarget->HasBuff(BUFF_SKILL, SI_GEN_EVE_QUICKSTEP) )
; 381  : 		|| ( pSkillProp->dwID == SI_ASS_CHEER_HASTE && pTarget->HasBuff(BUFF_SKILL, SI_GEN_EVE_HASTE) )
; 382  : 		|| ( pSkillProp->dwID == SI_ASS_CHEER_HEAPUP && pTarget->HasBuff(BUFF_SKILL, SI_GEN_EVE_HEAPUP) )
; 383  : 		|| ( pSkillProp->dwID == SI_ASS_CHEER_ACCURACY && pTarget->HasBuff(BUFF_SKILL, SI_GEN_EVE_ACCURACY) ) )

  001e4	8b 4d e0	 mov	 ecx, DWORD PTR _pSkillProp$[ebp]
  001e7	83 39 72	 cmp	 DWORD PTR [ecx], 114	; 00000072H
  001ea	75 15		 jne	 SHORT $LN22@DoUseSkill
  001ec	68 3d 01 00 00	 push	 317			; 0000013dH
  001f1	6a 01		 push	 1
  001f3	8b cf		 mov	 ecx, edi
  001f5	e8 00 00 00 00	 call	 ?HasBuff@CMover@@QAEHGG@Z ; CMover::HasBuff
  001fa	85 c0		 test	 eax, eax
  001fc	75 4e		 jne	 SHORT $LN21@DoUseSkill
  001fe	8b 4d e0	 mov	 ecx, DWORD PTR _pSkillProp$[ebp]
$LN22@DoUseSkill:
  00201	83 39 14	 cmp	 DWORD PTR [ecx], 20	; 00000014H
  00204	75 15		 jne	 SHORT $LN23@DoUseSkill
  00206	68 3e 01 00 00	 push	 318			; 0000013eH
  0020b	6a 01		 push	 1
  0020d	8b cf		 mov	 ecx, edi
  0020f	e8 00 00 00 00	 call	 ?HasBuff@CMover@@QAEHGG@Z ; CMover::HasBuff
  00214	85 c0		 test	 eax, eax
  00216	75 34		 jne	 SHORT $LN21@DoUseSkill
  00218	8b 4d e0	 mov	 ecx, DWORD PTR _pSkillProp$[ebp]
$LN23@DoUseSkill:
  0021b	83 39 31	 cmp	 DWORD PTR [ecx], 49	; 00000031H
  0021e	75 15		 jne	 SHORT $LN24@DoUseSkill
  00220	68 3f 01 00 00	 push	 319			; 0000013fH
  00225	6a 01		 push	 1
  00227	8b cf		 mov	 ecx, edi
  00229	e8 00 00 00 00	 call	 ?HasBuff@CMover@@QAEHGG@Z ; CMover::HasBuff
  0022e	85 c0		 test	 eax, eax
  00230	75 1a		 jne	 SHORT $LN21@DoUseSkill
  00232	8b 4d e0	 mov	 ecx, DWORD PTR _pSkillProp$[ebp]
$LN24@DoUseSkill:
  00235	83 39 74	 cmp	 DWORD PTR [ecx], 116	; 00000074H
  00238	75 41		 jne	 SHORT $LN246@DoUseSkill
  0023a	68 40 01 00 00	 push	 320			; 00000140H
  0023f	6a 01		 push	 1
  00241	8b cf		 mov	 ecx, edi
  00243	e8 00 00 00 00	 call	 ?HasBuff@CMover@@QAEHGG@Z ; CMover::HasBuff
  00248	85 c0		 test	 eax, eax
  0024a	74 2c		 je	 SHORT $LN276@DoUseSkill
$LN21@DoUseSkill:

; 384  : 	{
; 385  : 		if( pTarget->IsPlayer() )

  0024c	83 bf 30 02 00
	00 00		 cmp	 DWORD PTR [edi+560], 0
  00253	0f 84 61 ff ff
	ff		 je	 $LN254@DoUseSkill

; 386  : 			((CUser*)pTarget)->AddDefinedText( TID_GAME_NPCBUFF_FAILED, "\"%s\"", pSkillProp->szName );

  00259	8b 45 e0	 mov	 eax, DWORD PTR _pSkillProp$[ebp]
  0025c	83 c0 04	 add	 eax, 4
  0025f	50		 push	 eax
  00260	68 00 00 00 00	 push	 OFFSET ??_C@_04OEDFLLKD@?$CC?$CFs?$CC@
  00265	68 ac 0d 00 00	 push	 3500			; 00000dacH
  0026a	57		 push	 edi
  0026b	e8 00 00 00 00	 call	 ?AddDefinedText@CUser@@QAAXHPBDZZ ; CUser::AddDefinedText
  00270	83 c4 10	 add	 esp, 16			; 00000010H

; 411  : 	if( pSkillProp->dwID == SI_LOD_SUP_PULLING && dwWorldID != WI_INSTANCE_BEHAMAH )

  00273	e9 42 ff ff ff	 jmp	 $LN254@DoUseSkill
$LN276@DoUseSkill:

; 377  : 		return FALSE;
; 378  : 
; 379  : #ifdef __NPC_BUFF
; 380  : 	if( ( pSkillProp->dwID == SI_ASS_CHEER_QUICKSTEP && pTarget->HasBuff(BUFF_SKILL, SI_GEN_EVE_QUICKSTEP) )
; 381  : 		|| ( pSkillProp->dwID == SI_ASS_CHEER_HASTE && pTarget->HasBuff(BUFF_SKILL, SI_GEN_EVE_HASTE) )
; 382  : 		|| ( pSkillProp->dwID == SI_ASS_CHEER_HEAPUP && pTarget->HasBuff(BUFF_SKILL, SI_GEN_EVE_HEAPUP) )
; 383  : 		|| ( pSkillProp->dwID == SI_ASS_CHEER_ACCURACY && pTarget->HasBuff(BUFF_SKILL, SI_GEN_EVE_ACCURACY) ) )

  00278	8b 4d e0	 mov	 ecx, DWORD PTR _pSkillProp$[ebp]
$LN246@DoUseSkill:

; 387  : 		return FALSE;
; 388  : 	}
; 389  : #endif // __NPC_BUFF
; 390  : 
; 391  : 	if( pSkillProp->dwID == SI_ACR_YOYO_SNITCH || pSkillProp->dwID == SI_JST_YOYO_VATALSTAB )	// °­Ĺ», ČĄ˝ĹŔÇ ŔĎ°Ý˝şĹłŔĚ¸é ´ŮŔĚŔĎ·çÁŻ»óĹÂŔÎÁö °Ë»çÇŃ´Ů.

  0027b	8b 01		 mov	 eax, DWORD PTR [ecx]
  0027d	3d cb 00 00 00	 cmp	 eax, 203		; 000000cbH
  00282	74 07		 je	 SHORT $LN27@DoUseSkill
  00284	3d d6 00 00 00	 cmp	 eax, 214		; 000000d6H
  00289	75 30		 jne	 SHORT $LN247@DoUseSkill
$LN27@DoUseSkill:

; 392  : 	{
; 393  : 		if( !HasBuff( BUFF_SKILL, SI_ACR_SUP_DARKILLUSION ) )		// ´ŮĹ©ŔĎ·çÁŻ »óĹÂ°ˇ ľĆ´Ď¸é »çżë¸řÇÔ

  0028b	68 c1 00 00 00	 push	 193			; 000000c1H
  00290	6a 01		 push	 1
  00292	8b cb		 mov	 ecx, ebx
  00294	e8 00 00 00 00	 call	 ?HasBuff@CMover@@QAEHGG@Z ; CMover::HasBuff
  00299	85 c0		 test	 eax, eax
  0029b	75 1b		 jne	 SHORT $LN277@DoUseSkill

; 394  : 		{
; 395  : 			if( IsPlayer() )

  0029d	39 83 30 02 00
	00		 cmp	 DWORD PTR [ebx+560], eax
  002a3	0f 84 11 ff ff
	ff		 je	 $LN254@DoUseSkill

; 396  : 				((CUser*)this)->AddDefinedText( TID_GAME_REQ_DARK, "" );		// ´ŮĹ©ŔĎ·çÁŻ»óĹÂżˇĽ­ °ˇ´ÉÇŐ´Ď´Ů.

  002a9	68 00 00 00 00	 push	 OFFSET ??_C@_00CNPNBAHC@@
  002ae	68 a9 09 00 00	 push	 2473			; 000009a9H

; 411  : 	if( pSkillProp->dwID == SI_LOD_SUP_PULLING && dwWorldID != WI_INSTANCE_BEHAMAH )

  002b3	e9 f9 fe ff ff	 jmp	 $LN459@DoUseSkill
$LN277@DoUseSkill:

; 392  : 	{
; 393  : 		if( !HasBuff( BUFF_SKILL, SI_ACR_SUP_DARKILLUSION ) )		// ´ŮĹ©ŔĎ·çÁŻ »óĹÂ°ˇ ľĆ´Ď¸é »çżë¸řÇÔ

  002b8	8b 4d e0	 mov	 ecx, DWORD PTR _pSkillProp$[ebp]
$LN247@DoUseSkill:

; 397  : 			return FALSE;
; 398  : 		}
; 399  : 	}
; 400  : 
; 401  : #if __VER >= 13 // __RAINBOW_RACE
; 402  : 	if( pSkillProp->dwID == SI_RIG_HERO_RETURN
; 403  : 		&& IsPlayer() && CRainbowRaceMng::GetInstance()->IsEntry( ((CUser*)this)->m_idPlayer ) )

  002bb	81 39 f4 00 00
	00		 cmp	 DWORD PTR [ecx], 244	; 000000f4H
  002c1	75 33		 jne	 SHORT $LN30@DoUseSkill
  002c3	83 bb 30 02 00
	00 00		 cmp	 DWORD PTR [ebx+560], 0
  002ca	74 2a		 je	 SHORT $LN30@DoUseSkill
  002cc	ff b3 34 02 00
	00		 push	 DWORD PTR [ebx+564]
  002d2	e8 00 00 00 00	 call	 ?GetInstance@CRainbowRaceMng@@SAPAV1@XZ ; CRainbowRaceMng::GetInstance
  002d7	8b c8		 mov	 ecx, eax
  002d9	e8 00 00 00 00	 call	 ?IsEntry@CRainbowRaceMng@@QAEHK@Z ; CRainbowRaceMng::IsEntry
  002de	85 c0		 test	 eax, eax
  002e0	74 11		 je	 SHORT $LN278@DoUseSkill

; 404  : 	{
; 405  : 		((CUser*)this)->AddDefinedText( TID_GAME_RAINBOWRACE_NOTELEPORT );

  002e2	68 c1 0f 00 00	 push	 4033			; 00000fc1H
  002e7	8b cb		 mov	 ecx, ebx
  002e9	e8 00 00 00 00	 call	 ?AddDefinedText@CUser@@QAEXH@Z ; CUser::AddDefinedText

; 406  : 		return FALSE;

  002ee	e9 c7 fe ff ff	 jmp	 $LN254@DoUseSkill
$LN278@DoUseSkill:

; 397  : 			return FALSE;
; 398  : 		}
; 399  : 	}
; 400  : 
; 401  : #if __VER >= 13 // __RAINBOW_RACE
; 402  : 	if( pSkillProp->dwID == SI_RIG_HERO_RETURN
; 403  : 		&& IsPlayer() && CRainbowRaceMng::GetInstance()->IsEntry( ((CUser*)this)->m_idPlayer ) )

  002f3	8b 4d e0	 mov	 ecx, DWORD PTR _pSkillProp$[ebp]
$LN30@DoUseSkill:

; 407  : 	}
; 408  : #endif // __RAINBOW_RACE
; 409  : #ifdef __3RD_LEGEND16
; 410  : 	DWORD dwWorldID(GetWorld()->GetID());

  002f6	8b 83 6c 01 00
	00		 mov	 eax, DWORD PTR [ebx+364]

; 411  : 	if( pSkillProp->dwID == SI_LOD_SUP_PULLING && dwWorldID != WI_INSTANCE_BEHAMAH )

  002fc	8b 09		 mov	 ecx, DWORD PTR [ecx]
  002fe	8b 00		 mov	 eax, DWORD PTR [eax]
  00300	81 f9 90 01 00
	00		 cmp	 ecx, 400		; 00000190H
  00306	0f 85 da 00 00
	00		 jne	 $LN31@DoUseSkill
  0030c	83 f8 7e	 cmp	 eax, 126		; 0000007eH
  0030f	0f 85 e6 00 00
	00		 jne	 $LN266@DoUseSkill
$LN32@DoUseSkill:

; 420  : 	}
; 421  : #endif //__3RD_LEGEND16
; 422  : #endif //defined(__WORLDSERVER)
; 423  : 
; 424  : 	MoverProp *pMoverProp = pTarget->GetProp();

  00315	8b cf		 mov	 ecx, edi
  00317	e8 00 00 00 00	 call	 ?GetPropA@CMover@@QAEPAUMoverProp@@XZ ; CMover::GetPropA

; 425  : 	if( pMoverProp == NULL )

  0031c	85 c0		 test	 eax, eax
  0031e	75 1b		 jne	 SHORT $LN33@DoUseSkill

; 426  : 		Error( "DoUseSkill : %s , Ĺ¸°Ů %s ŔÇ ÇÁ·ÎĆŰĆĽ°ˇ ľř´Ů", m_szName, pTarget->m_szName );

  00320	8d 87 ec 14 00
	00		 lea	 eax, DWORD PTR [edi+5356]
  00326	50		 push	 eax
  00327	8d 83 ec 14 00
	00		 lea	 eax, DWORD PTR [ebx+5356]
  0032d	50		 push	 eax
  0032e	68 00 00 00 00	 push	 OFFSET ??_C@_0CN@EEBJCALL@DoUseSkill?5?3?5?$CFs?5?0?5?E?$LI?$LA?Y?5?$CFs?5?$MA?G?5?G?A@
  00333	e8 00 00 00 00	 call	 ?Error@@YAPBDPBDZZ	; Error
  00338	83 c4 0c	 add	 esp, 12			; 0000000cH
$LN33@DoUseSkill:

; 427  : 	
; 428  : 	if( pTarget != this )	// Ĺ¸ŔÎżˇ°Ô ľ˛´Â Áľ·ůŔĎ¶§¸¸ ľĆ·ˇ°Ë»ç¸¦ ÇÔ.

  0033b	3b fb		 cmp	 edi, ebx
  0033d	0f 84 0f 01 00
	00		 je	 $LN34@DoUseSkill

; 429  : 	{
; 430  : 	#ifdef __WORLDSERVER
; 431  : 		if( pSkillProp->dwUseChance == WUI_NOW )	// Ë¬ - ¸®ĽŇ˝ş ÇŘĹ·

  00343	8b 45 e0	 mov	 eax, DWORD PTR _pSkillProp$[ebp]
  00346	83 b8 c8 01 00
	00 01		 cmp	 DWORD PTR [eax+456], 1
  0034d	0f 84 67 fe ff
	ff		 je	 $LN254@DoUseSkill

; 432  : 			return FALSE;
; 433  : 		if( pSkillProp->dwExeTarget == EXT_SELFCHGPARAMET )

  00353	83 b8 c4 01 00
	00 01		 cmp	 DWORD PTR [eax+452], 1
  0035a	0f 84 5a fe ff
	ff		 je	 $LN254@DoUseSkill
; File C:\IAGOS\server\v18\Source\Source\_Common\Mover.h

; 1015 : 	BOOL			IsNPC()				{ return !m_bPlayer; }

  00360	83 bf 30 02 00
	00 00		 cmp	 DWORD PTR [edi+560], 0
; File C:\IAGOS\server\v18\Source\Source\_Common\MoverSkill.cpp

; 436  : 		if( pTarget->IsNPC() && pTarget->IsPeaceful() )	

  00367	75 0d		 jne	 SHORT $LN37@DoUseSkill
; File C:\IAGOS\server\v18\Source\Source\_Common\Mover.h

; 1120 : 	BOOL			IsPeaceful() { return m_dwBelligerence == BELLI_PEACEFUL; }

  00369	83 bf 64 06 00
	00 01		 cmp	 DWORD PTR [edi+1636], 1
; File C:\IAGOS\server\v18\Source\Source\_Common\MoverSkill.cpp

; 436  : 		if( pTarget->IsNPC() && pTarget->IsPeaceful() )	

  00370	0f 84 44 fe ff
	ff		 je	 $LN254@DoUseSkill
$LN37@DoUseSkill:

; 437  : 			return FALSE;	// NPCÁö¸¸ ÄŁÇŃ?NPCżˇ°Ő ˝şĹł »çżë ±ÝÁö
; 438  : 		
; 439  : 		if( !g_eLocal.GetState( EVE_STEAL ) )

  00376	6a 0d		 push	 13			; 0000000dH
  00378	b9 00 00 00 00	 mov	 ecx, OFFSET ?g_eLocal@@3VCFlyffEvent@@A ; g_eLocal
  0037d	e8 00 00 00 00	 call	 ?GetState@CFlyffEvent@@QAEEH@Z ; CFlyffEvent::GetState
  00382	84 c0		 test	 al, al
  00384	75 1c		 jne	 SHORT $LN279@DoUseSkill

; 440  : 		{
; 441  : 			if( pSkillProp->nEvildoing < 0 )	// łŞ»Ű¸¶ąýŔ» ľ˛·ÁÇŇ¶§

  00386	8b 45 e0	 mov	 eax, DWORD PTR _pSkillProp$[ebp]
  00389	83 b8 04 02 00
	00 00		 cmp	 DWORD PTR [eax+516], 0
  00390	7d 13		 jge	 SHORT $LN40@DoUseSkill

; 442  : 				if( IsSteal( pTarget ) )	// pTarget¸¦ ˝şĆż ÇĎ·ÁÇĎ¸é 

  00392	57		 push	 edi
  00393	8b cb		 mov	 ecx, ebx
  00395	e8 00 00 00 00	 call	 ?IsSteal@CMover@@QAEHPAV1@@Z ; CMover::IsSteal
  0039a	85 c0		 test	 eax, eax
  0039c	0f 85 18 fe ff
	ff		 jne	 $LN254@DoUseSkill
$LN279@DoUseSkill:

; 437  : 			return FALSE;	// NPCÁö¸¸ ÄŁÇŃ?NPCżˇ°Ő ˝şĹł »çżë ±ÝÁö
; 438  : 		
; 439  : 		if( !g_eLocal.GetState( EVE_STEAL ) )

  003a2	8b 45 e0	 mov	 eax, DWORD PTR _pSkillProp$[ebp]
$LN40@DoUseSkill:

; 446  : 		if(  pWorld && pWorld->IsArena() == FALSE )		// ľĆ·ąłŞ°ˇ ľĆ´Ď¸é,

  003a5	85 f6		 test	 esi, esi
  003a7	74 63		 je	 SHORT $LN43@DoUseSkill
; File C:\IAGOS\server\v18\Source\Source\_Common\World.h

; 415  : 		{	return( m_dwWorldID == WI_WORLD_ARENA );	}

  003a9	81 3e d0 00 00
	00		 cmp	 DWORD PTR [esi], 208	; 000000d0H
; File C:\IAGOS\server\v18\Source\Source\_Common\MoverSkill.cpp

; 446  : 		if(  pWorld && pWorld->IsArena() == FALSE )		// ľĆ·ąłŞ°ˇ ľĆ´Ď¸é,

  003af	74 5b		 je	 SHORT $LN43@DoUseSkill

; 447  : #endif	// __JEFF_11_4
; 448  : 		{
; 449  : 			if( pSkillProp->nEvildoing > 0 )	// ÁÁŔş ¸¶ąýŔ»

  003b1	83 b8 04 02 00
	00 00		 cmp	 DWORD PTR [eax+516], 0
  003b8	7e 52		 jle	 SHORT $LN43@DoUseSkill

; 450  : 			{
; 451  : 				HITTYPE hy;
; 452  : #if __VER >= 8 // __S8_PK
; 453  : 				if( (hy = GetHitType2( pTarget, TRUE, TRUE)) != HITTYPE_FAIL )  	// Ŕű´ëŔűŔÎ ´ë»óżˇ°Ô ľ˛·ÁÇŇ¶§

  003ba	6a 01		 push	 1
  003bc	6a 01		 push	 1
  003be	57		 push	 edi
  003bf	8b cb		 mov	 ecx, ebx
  003c1	e8 00 00 00 00	 call	 ?GetHitType2@CMover@@QAE?AW4HITTYPE@@PAV1@HH@Z ; CMover::GetHitType2
  003c6	85 c0		 test	 eax, eax
  003c8	74 42		 je	 SHORT $LN43@DoUseSkill

; 454  : #else // __VER >= 8 // __S8_PK
; 455  : 				if( (hy = GetHitType2( pTarget, TRUE)) != HITTYPE_FAIL )  	// Ŕű´ëŔűŔÎ ´ë»óżˇ°Ô ľ˛·ÁÇŇ¶§
; 456  : #endif // __VER >= 8 // __S8_PK
; 457  : 				{
; 458  : 					if( IsPlayer() )

  003ca	83 bb 30 02 00
	00 00		 cmp	 DWORD PTR [ebx+560], 0
  003d1	0f 84 e3 fd ff
	ff		 je	 $LN254@DoUseSkill

; 459  : 						((CUser*)this)->AddDefinedText( TID_GAME_NEVERKILLSTOP, "" );		// ˝şĹłŔ» »çżëÇŇ Ľö ľř˝Ŕ´Ď´Ů.

  003d7	68 00 00 00 00	 push	 OFFSET ??_C@_00CNPNBAHC@@
  003dc	68 aa 09 00 00	 push	 2474			; 000009aaH

; 480  : 		{
; 481  : 			if( pSkillProp->dwID == SI_ASS_HEAL_RESURRECTION )

  003e1	e9 cb fd ff ff	 jmp	 $LN459@DoUseSkill
$LN31@DoUseSkill:

; 412  : 	{
; 413  : 		((CUser*)this)->AddDefinedText( TID_GAME_NEVERKILLSTOP );
; 414  : 		return FALSE;
; 415  : 	}
; 416  : 	if( pSkillProp->dwID == SI_LOD_SUP_ANGER && dwWorldID != WI_INSTANCE_BEHAMAH )

  003e6	81 f9 93 01 00
	00		 cmp	 ecx, 403		; 00000193H
  003ec	0f 85 23 ff ff
	ff		 jne	 $LN32@DoUseSkill
  003f2	83 f8 7e	 cmp	 eax, 126		; 0000007eH
  003f5	0f 84 1a ff ff
	ff		 je	 $LN32@DoUseSkill
$LN266@DoUseSkill:

; 417  : 	{
; 418  : 		((CUser*)this)->AddDefinedText( TID_GAME_NEVERKILLSTOP );

  003fb	68 aa 09 00 00	 push	 2474			; 000009aaH
  00400	8b cb		 mov	 ecx, ebx
  00402	e8 00 00 00 00	 call	 ?AddDefinedText@CUser@@QAEXH@Z ; CUser::AddDefinedText

; 419  : 		return FALSE;

  00407	e9 ae fd ff ff	 jmp	 $LN254@DoUseSkill
$LN43@DoUseSkill:
; File C:\IAGOS\server\v18\Source\Source\_Common\Obj.h

; 215  : 	D3DXVECTOR3		GetPos()	{ return m_vPos; }

  0040c	8b 83 68 01 00
	00		 mov	 eax, DWORD PTR [ebx+360]
  00412	f3 0f 7e 83 60
	01 00 00	 movq	 xmm0, QWORD PTR [ebx+352]
  0041a	89 45 f8	 mov	 DWORD PTR $T3[ebp+8], eax
  0041d	8b 87 68 01 00
	00		 mov	 eax, DWORD PTR [edi+360]
  00423	89 45 ec	 mov	 DWORD PTR $T1[ebp+8], eax
; File C:\IAGOS\server\v18\Source\Source\_Common\MoverSkill.cpp

; 466  : 		SetAngle( GetDegree(pTarget->GetPos(), GetPos()) );		// ¸ńÇĄÂĘŔ¸·Î ¸öŔ» µą¸˛.

  00426	8d 45 f0	 lea	 eax, DWORD PTR $T3[ebp]
  00429	50		 push	 eax
; File C:\IAGOS\server\v18\Source\Source\_Common\Obj.h

; 215  : 	D3DXVECTOR3		GetPos()	{ return m_vPos; }

  0042a	66 0f d6 45 f0	 movq	 QWORD PTR $T3[ebp], xmm0
; File C:\IAGOS\server\v18\Source\Source\_Common\MoverSkill.cpp

; 466  : 		SetAngle( GetDegree(pTarget->GetPos(), GetPos()) );		// ¸ńÇĄÂĘŔ¸·Î ¸öŔ» µą¸˛.

  0042f	8d 45 e4	 lea	 eax, DWORD PTR $T1[ebp]
; File C:\IAGOS\server\v18\Source\Source\_Common\Obj.h

; 215  : 	D3DXVECTOR3		GetPos()	{ return m_vPos; }

  00432	f3 0f 7e 87 60
	01 00 00	 movq	 xmm0, QWORD PTR [edi+352]
; File C:\IAGOS\server\v18\Source\Source\_Common\MoverSkill.cpp

; 466  : 		SetAngle( GetDegree(pTarget->GetPos(), GetPos()) );		// ¸ńÇĄÂĘŔ¸·Î ¸öŔ» µą¸˛.

  0043a	50		 push	 eax
; File C:\IAGOS\server\v18\Source\Source\_Common\Obj.h

; 215  : 	D3DXVECTOR3		GetPos()	{ return m_vPos; }

  0043b	66 0f d6 45 e4	 movq	 QWORD PTR $T1[ebp], xmm0
; File C:\IAGOS\server\v18\Source\Source\_Common\MoverSkill.cpp

; 466  : 		SetAngle( GetDegree(pTarget->GetPos(), GetPos()) );		// ¸ńÇĄÂĘŔ¸·Î ¸öŔ» µą¸˛.

  00440	e8 00 00 00 00	 call	 ?GetDegree@@YAMABUD3DXVECTOR3@@0@Z ; GetDegree
  00445	83 c4 04	 add	 esp, 4
  00448	8b cb		 mov	 ecx, ebx
  0044a	d9 1c 24	 fstp	 DWORD PTR [esp]
  0044d	e8 00 00 00 00	 call	 ?SetAngle@CObj@@QAEXM@Z	; CObj::SetAngle
$LN34@DoUseSkill:

; 467  : 	}
; 468  : 	
; 469  : 	// ±ćµĺÄÄąîÁßżˇ´Â şÎČ°˝şĹł ±ÝÁö
; 470  : 	if( GetWorld()->GetID() == WI_WORLD_GUILDWAR )

  00452	8b 83 6c 01 00
	00		 mov	 eax, DWORD PTR [ebx+364]
  00458	81 38 ca 00 00
	00		 cmp	 DWORD PTR [eax], 202	; 000000caH
  0045e	75 2b		 jne	 SHORT $LN49@DoUseSkill

; 471  : 	{
; 472  : #if __VER >= 10 // __LEGEND	//	10Â÷ Ŕü˝Â˝Ă˝şĹŰ	Neuz, World, Trans
; 473  : 		if( pSkillProp->dwID == SI_MAG_MAG_BLINKPOOL || pSkillProp->dwID == SI_RIG_HERO_RETURN )

  00460	8b 45 e0	 mov	 eax, DWORD PTR _pSkillProp$[ebp]
  00463	8b 00		 mov	 eax, DWORD PTR [eax]
  00465	83 f8 6b	 cmp	 eax, 107		; 0000006bH
  00468	0f 84 4c fd ff
	ff		 je	 $LN254@DoUseSkill
  0046e	3d f4 00 00 00	 cmp	 eax, 244		; 000000f4H
  00473	0f 84 41 fd ff
	ff		 je	 $LN254@DoUseSkill

; 474  : #else //__LEGEND	//	10Â÷ Ŕü˝Â˝Ă˝şĹŰ	Neuz, World, Trans
; 475  : 		if( pSkillProp->dwID == SI_MAG_MAG_BLINKPOOL )
; 476  : #endif	//__LEGEND	//	10Â÷ Ŕü˝Â˝Ă˝şĹŰ	Neuz, World, Trans
; 477  : 			return FALSE;
; 478  : 
; 479  : 		if( g_GuildCombatMng.m_nState != CGuildCombat::WAR_STATE )

  00479	83 3d 24 11 00
	00 02		 cmp	 DWORD PTR ?g_GuildCombatMng@@3VCGuildCombat@@A+4388, 2
  00480	74 09		 je	 SHORT $LN49@DoUseSkill

; 480  : 		{
; 481  : 			if( pSkillProp->dwID == SI_ASS_HEAL_RESURRECTION )

  00482	83 f8 2d	 cmp	 eax, 45			; 0000002dH
  00485	0f 84 2f fd ff
	ff		 je	 $LN254@DoUseSkill
$LN49@DoUseSkill:

; 482  : 				return FALSE;
; 483  : 		}
; 484  : 	}
; 485  : 
; 486  : #ifdef __WORLDSERVER
; 487  : 
; 488  : /*
; 489  : ---- 2008.03.25 µĺ·ÎŔ×˝şĹł ąö±× »čÁ¦
; 490  : 	#if __VER >= 10 // __LEGEND	//	10Â÷ Ŕü˝Â˝Ă˝şĹŰ	Neuz, World, Trans
; 491  : 	if( pSkillProp->dwID == SI_KNT_HERO_DRAWING )
; 492  : 	{
; 493  : 		CParty* pParty	= g_PartyMng.GetParty( ((CUser*)this)->m_idparty );
; 494  : 		if( pParty )
; 495  : 			pParty->DoUsePartyReCall( ((CUser*)this)->m_idparty, ((CUser*)this)->m_idPlayer, 0);
; 496  : 	}
; 497  : 	#endif	//__LEGEND	//	10Â÷ Ŕü˝Â˝Ă˝şĹŰ	Neuz, World, Trans
; 498  : ---- 2008.03.25 µĺ·ÎŔ×˝şĹł ąö±× »čÁ¦
; 499  : */
; 500  : 	if( g_eLocal.GetState( EVE_SCHOOL ) )

  0048b	6a 04		 push	 4
  0048d	b9 00 00 00 00	 mov	 ecx, OFFSET ?g_eLocal@@3VCFlyffEvent@@A ; g_eLocal
  00492	e8 00 00 00 00	 call	 ?GetState@CFlyffEvent@@QAEEH@Z ; CFlyffEvent::GetState
  00497	84 c0		 test	 al, al
  00499	8b 45 e0	 mov	 eax, DWORD PTR _pSkillProp$[ebp]
  0049c	74 09		 je	 SHORT $LN248@DoUseSkill

; 501  : 	{
; 502  : 		if( pSkillProp->dwID == SI_ASS_HEAL_RESURRECTION )

  0049e	83 38 2d	 cmp	 DWORD PTR [eax], 45	; 0000002dH
  004a1	0f 84 13 fd ff
	ff		 je	 $LN254@DoUseSkill
$LN248@DoUseSkill:

; 503  : 			return FALSE;
; 504  : 	}
; 505  : 
; 506  : 	// ˝şĹłŔ» »çżëÇŇ¶§ ŔűÇŐÇŃ ą«±â¸¦ µé°í ŔÖ´Â°ˇ °Ë»ç
; 507  : 	ItemProp* pItemProp = NULL;
; 508  : 	DWORD	dwItemKind3;
; 509  : 
; 510  : 	if( pSkillProp->dwLinkKind == IK3_SHIELD || pSkillProp->dwLinkKind == IK3_MAGICBARUNA || pSkillProp->dwLinkKind == IK3_ZEMBARUNA )	// ÇĘżäľĆľĆŔĚĹŰŔĚ ąćĆĐŔĎ¶§

  004a7	8b 80 e0 00 00
	00		 mov	 eax, DWORD PTR [eax+224]
  004ad	33 f6		 xor	 esi, esi
  004af	83 f8 10	 cmp	 eax, 16			; 00000010H
  004b2	74 1e		 je	 SHORT $LN54@DoUseSkill
  004b4	3d 96 00 00 00	 cmp	 eax, 150		; 00000096H
  004b9	74 17		 je	 SHORT $LN54@DoUseSkill
  004bb	3d 97 00 00 00	 cmp	 eax, 151		; 00000097H
  004c0	74 10		 je	 SHORT $LN54@DoUseSkill

; 519  : 	}
; 520  : 	else	// ÇĘżäľĆŔĚĹŰŔĚ ąćĆĐ°ˇ ľĆ´Ň¶§´Â ľ×ĆĽşę ľĆŔĚĹŰŔ»...
; 521  : 	{
; 522  : 		pItemProp = GetActiveHandItemProp();

  004c2	6a 0a		 push	 10			; 0000000aH
  004c4	8b cb		 mov	 ecx, ebx
  004c6	e8 00 00 00 00	 call	 ?GetActiveHandItemProp@CMover@@QAEPAUItemProp@@H@Z ; CMover::GetActiveHandItemProp
  004cb	8b f0		 mov	 esi, eax

; 523  : 		dwItemKind3 = pItemProp->dwItemKind3;

  004cd	8b 4e 78	 mov	 ecx, DWORD PTR [esi+120]
  004d0	eb 1e		 jmp	 SHORT $LN56@DoUseSkill
$LN54@DoUseSkill:

; 511  : 	{
; 512  : 		CItemElem *pItemElem = GetEquipItem( PARTS_SHIELD );

  004d2	6a 0b		 push	 11			; 0000000bH
  004d4	8b cb		 mov	 ecx, ebx
  004d6	e8 00 00 00 00	 call	 ?GetEquipItem@CMover@@QAEPAVCItemElem@@H@Z ; CMover::GetEquipItem

; 513  : 		if( pItemElem )

  004db	85 c0		 test	 eax, eax
  004dd	74 0e		 je	 SHORT $LN55@DoUseSkill

; 514  : 		{
; 515  : 			pItemProp = pItemElem->GetProp();

  004df	8b c8		 mov	 ecx, eax
  004e1	e8 00 00 00 00	 call	 ?GetPropA@CItemElem@@QAEPAUItemProp@@XZ ; CItemElem::GetPropA
  004e6	8b f0		 mov	 esi, eax

; 516  : 			dwItemKind3 = pItemProp->dwItemKind3;

  004e8	8b 4e 78	 mov	 ecx, DWORD PTR [esi+120]

; 517  : 		} else

  004eb	eb 03		 jmp	 SHORT $LN56@DoUseSkill
$LN55@DoUseSkill:

; 518  : 			dwItemKind3 = NULL_ID;

  004ed	83 c9 ff	 or	 ecx, -1
$LN56@DoUseSkill:

; 524  : 	}
; 525  : 	
; 526  : 	switch( pSkillProp->dwLinkKind )	// ˝şĹłŔĚ ÇĘżä·ÎÇĎ´Â ą«±â.

  004f0	8b 55 e0	 mov	 edx, DWORD PTR _pSkillProp$[ebp]
  004f3	8b 82 e0 00 00
	00		 mov	 eax, DWORD PTR [edx+224]
  004f9	8d 78 f4	 lea	 edi, DWORD PTR [eax-12]
  004fc	89 7d d4	 mov	 DWORD PTR tv2095[ebp], edi
  004ff	83 ff 2a	 cmp	 edi, 42			; 0000002aH
  00502	8b 7d d0	 mov	 edi, DWORD PTR _pTarget$1$[ebp]
  00505	0f 87 dc 00 00
	00		 ja	 $LN76@DoUseSkill
  0050b	8b 45 d4	 mov	 eax, DWORD PTR tv2095[ebp]
  0050e	0f b6 80 00 00
	00 00		 movzx	 eax, BYTE PTR $LN274@DoUseSkill[eax]
  00515	ff 24 85 00 00
	00 00		 jmp	 DWORD PTR $LN275@DoUseSkill[eax*4]
$LN57@DoUseSkill:

; 527  : 	{
; 528  : 	case IK3_ENCHANTWEAPON:
; 529  : 		{
; 530  : 			if( IsPlayer() )

  0051c	83 bb 30 02 00
	00 00		 cmp	 DWORD PTR [ebx+560], 0
  00523	74 3f		 je	 SHORT $LN77@DoUseSkill

; 531  : 			{
; 532  : 				BOOL bFail = FALSE;
; 533  : 
; 534  : 				CItemElem *pItemElemR = GetWeaponItem();

  00525	6a 0a		 push	 10			; 0000000aH
  00527	8b cb		 mov	 ecx, ebx
  00529	e8 00 00 00 00	 call	 ?GetWeaponItem@CMover@@QAEPAVCItemElem@@H@Z ; CMover::GetWeaponItem

; 535  : 				CItemElem *pItemElemL = GetLWeaponItem();

  0052e	8b cb		 mov	 ecx, ebx
  00530	89 45 d4	 mov	 DWORD PTR _pItemElemR$1$[ebp], eax
  00533	e8 00 00 00 00	 call	 ?GetLWeaponItem@CMover@@QAEPAVCItemElem@@XZ ; CMover::GetLWeaponItem

; 536  : 
; 537  : 				if( pItemElemR && pItemElemL )	// ľçĽŐÁă°í ŔÖŔ»¶§.

  00538	8b 4d d4	 mov	 ecx, DWORD PTR _pItemElemR$1$[ebp]
  0053b	85 c9		 test	 ecx, ecx
  0053d	74 76		 je	 SHORT $LN242@DoUseSkill
  0053f	8a 49 7c	 mov	 cl, BYTE PTR [ecx+124]
  00542	85 c0		 test	 eax, eax
  00544	74 10		 je	 SHORT $LN59@DoUseSkill

; 538  : 				{	// ľçĽŐ´Ů ĽÓĽşŔĚ ľřŔ»¶©
; 539  : 					if( (pItemElemR && pItemElemR->m_bItemResist == SAI79::NO_PROP) &&		

  00546	84 c9		 test	 cl, cl
  00548	75 17		 jne	 SHORT $LN280@DoUseSkill
  0054a	38 48 7c	 cmp	 BYTE PTR [eax+124], cl
  0054d	75 12		 jne	 SHORT $LN280@DoUseSkill

; 540  : 						(pItemElemL && pItemElemL->m_bItemResist == SAI79::NO_PROP) )
; 541  : 						bFail = TRUE;		// »çżë±ÝÁö

  0054f	b8 01 00 00 00	 mov	 eax, 1

; 542  : 				} 

  00554	eb 07		 jmp	 SHORT $LN65@DoUseSkill
$LN59@DoUseSkill:

; 543  : 				else if( pItemElemR && pItemElemL == NULL )	// żŔ¸ĄĽŐ¸¸ Áă°í ŔÖŔ»¶§.
; 544  : 				{
; 545  : 					if( pItemElemR && pItemElemR->m_bItemResist == SAI79::NO_PROP )		// żŔ¸ĄĽŐżˇ ĽÓĽşŔĚ ľřŔ»¶©
; 546  : 						bFail = TRUE;		// »çżë±ÝÁö
; 547  : 				} 

  00556	33 c0		 xor	 eax, eax
  00558	84 c9		 test	 cl, cl
  0055a	0f 94 c0	 sete	 al
$LN65@DoUseSkill:

; 549  : 				{
; 550  : 					bFail = TRUE;		// ŔĚ¶§´Â ą«Á¶°Ç »çżë±ÝÁö
; 551  : 				}
; 552  : 
; 553  : 				if( bFail )

  0055d	85 c0		 test	 eax, eax
  0055f	75 58		 jne	 SHORT $LN251@DoUseSkill
$LN280@DoUseSkill:

; 548  : 				else if( pItemElemR == NULL && pItemElemL == NULL )	// ľçĽŐ´Ů ľřŔ»¶§

  00561	8b 55 e0	 mov	 edx, DWORD PTR _pSkillProp$[ebp]
$LN77@DoUseSkill:

; 593  : 		{
; 594  : 			if( IsPlayer() )
; 595  : 				( (CUser*)this )->AddDefinedText( TID_GAME_WRONGITEM, "" );
; 596  : 			return FALSE;
; 597  : 		}
; 598  : 		break;
; 599  : 	}
; 600  : 
; 601  : #if __VER >= 8 //__CSC_VER8_3 //Ĺ¸°ŮŔÇ ąöÇÁÁß ŔĚąĚ °É¸° ąöÇÁ°ˇ ·ąş§ŔĚ łôŔ» °ćżě °ÉÁö ¸řÇĎ°Ô ÇÔ.
; 602  : 	if(pSkillProp->dwSkillType == BUFF_SKILL)

  00564	83 ba e8 01 00
	00 01		 cmp	 DWORD PTR [edx+488], 1
  0056b	0f 85 a6 00 00
	00		 jne	 $LN83@DoUseSkill

; 603  : 	{
; 604  : 		CMover* searchMover;
; 605  : 		if(pTarget == this)
; 606  : 			searchMover = this;
; 607  : 		else
; 608  : 			searchMover = pTarget;
; 609  : 
; 610  : #ifdef __BUFF_1107
; 611  : 		IBuff* pBuff	= searchMover->m_buffs.GetBuff( BUFF_SKILL, (WORD)( pSkillProp->dwID ) );

  00571	0f b7 02	 movzx	 eax, WORD PTR [edx]
  00574	3b fb		 cmp	 edi, ebx
  00576	8b cf		 mov	 ecx, edi
  00578	0f 44 cb	 cmove	 ecx, ebx
  0057b	50		 push	 eax
  0057c	6a 01		 push	 1
  0057e	81 c1 ec 02 00
	00		 add	 ecx, 748		; 000002ecH
  00584	e8 00 00 00 00	 call	 ?GetBuff@CBuffMgr@@QAEPAVIBuff@@GG@Z ; CBuffMgr::GetBuff

; 612  : 		if( pBuff )

  00589	85 c0		 test	 eax, eax
  0058b	0f 84 83 00 00
	00		 je	 $LN281@DoUseSkill

; 613  : 		{
; 614  : 			if( pBuff->GetLevel() > (DWORD)( nLevel ) )

  00591	8b 4d 0c	 mov	 ecx, DWORD PTR _nLevel$[ebp]
  00594	39 48 08	 cmp	 DWORD PTR [eax+8], ecx
  00597	76 7b		 jbe	 SHORT $LN281@DoUseSkill

; 615  : #else	// __BUFF_1107
; 616  : 		SKILLINFLUENCE* hasSkill = searchMover->m_SkillState.Find( BUFF_SKILL, pSkillProp->dwID );
; 617  : 		if( hasSkill )
; 618  : 		{
; 619  : 			if( hasSkill->dwLevel > nLevel )
; 620  : #endif	// __BUFF_1107
; 621  : 			{
; 622  : 				if( IsPlayer() ) // Ŕ±»óŔĚ	// this°ˇ CUser°ˇ ľĆ´Ň Ľö ŔÖŔ˝.

  00599	83 bb 30 02 00
	00 00		 cmp	 DWORD PTR [ebx+560], 0
  005a0	0f 84 14 fc ff
	ff		 je	 $LN254@DoUseSkill

; 623  : 					( (CUser*)this )->AddDefinedText( TID_GAME_DONOTUSEBUFF, "" );

  005a6	68 00 00 00 00	 push	 OFFSET ??_C@_00CNPNBAHC@@
  005ab	68 3b 0c 00 00	 push	 3131			; 00000c3bH

; 638  : 				{
; 639  : 					if( IsDualWeapon() == FALSE )			// µŕľó·Î ľČÂ÷°í ŔÖ´Ů.

  005b0	e9 fc fb ff ff	 jmp	 $LN459@DoUseSkill
$LN242@DoUseSkill:

; 548  : 				else if( pItemElemR == NULL && pItemElemL == NULL )	// ľçĽŐ´Ů ľřŔ»¶§

  005b5	85 c0		 test	 eax, eax
  005b7	75 a8		 jne	 SHORT $LN280@DoUseSkill
$LN251@DoUseSkill:

; 554  : 				{
; 555  : 					( (CUser*)this )->AddDefinedText( TID_SKILL_NOTELEWEAPON, "" );	// ĽÓĽşą«±â°ˇ ľřľî »çżë¸řÇÔ.

  005b9	68 00 00 00 00	 push	 OFFSET ??_C@_00CNPNBAHC@@
  005be	68 c7 08 00 00	 push	 2247			; 000008c7H

; 556  : 					return FALSE;

  005c3	e9 e9 fb ff ff	 jmp	 $LN459@DoUseSkill
$LN67@DoUseSkill:

; 557  : 				}
; 558  : 			}
; 559  : 		}
; 560  : 		break;
; 561  : 	case IK3_MAGICBOTH:
; 562  : 		if( dwItemKind3 != IK3_WAND  && dwItemKind3 != IK3_STAFF )	// ĽŐżˇµç ą«±â°ˇ żĎµĺµµ ˝şĹÂÇÁµµ ľĆ´Ď¸é

  005c8	83 f9 06	 cmp	 ecx, 6
  005cb	74 97		 je	 SHORT $LN77@DoUseSkill
  005cd	83 f9 07	 cmp	 ecx, 7

; 638  : 				{
; 639  : 					if( IsDualWeapon() == FALSE )			// µŕľó·Î ľČÂ÷°í ŔÖ´Ů.

  005d0	eb 20		 jmp	 SHORT $LN460@DoUseSkill
$LN70@DoUseSkill:

; 563  : 		{
; 564  : 			if( IsPlayer() )
; 565  : 				( (CUser*)this )->AddDefinedText( TID_GAME_WRONGITEM, "" );
; 566  : 			return FALSE;
; 567  : 		}
; 568  : 		break;
; 569  : 	case IK3_YOBO:
; 570  : #ifdef __CROSSBOW
; 571  : 		if( dwItemKind3 != IK3_YOYO && dwItemKind3 != IK3_BOW && dwItemKind3 != IK3_CROSSBOW )	

  005d2	83 f9 0b	 cmp	 ecx, 11			; 0000000bH
  005d5	74 8d		 je	 SHORT $LN77@DoUseSkill
$LN73@DoUseSkill:

; 1128 : 		}
; 1129 : 	}
; 1130 : #endif // __WORLDSERVER
; 1131 : #endif // __VER >= 8 // __S8_PK
; 1132 : 	
; 1133 : 	return TRUE;
; 1134 : }

  005d7	83 f9 0c	 cmp	 ecx, 12			; 0000000cH
  005da	74 88		 je	 SHORT $LN77@DoUseSkill
  005dc	83 f9 0e	 cmp	 ecx, 14			; 0000000eH
  005df	eb 11		 jmp	 SHORT $LN460@DoUseSkill
$LN293@DoUseSkill:

; 524  : 	}
; 525  : 	
; 526  : 	switch( pSkillProp->dwLinkKind )	// ˝şĹłŔĚ ÇĘżä·ÎÇĎ´Â ą«±â.

  005e1	8b 82 e0 00 00
	00		 mov	 eax, DWORD PTR [edx+224]
$LN76@DoUseSkill:

; 572  : #else // __CROSSBOW
; 573  : 		if( dwItemKind3 != IK3_YOYO && dwItemKind3 != IK3_BOW )	
; 574  : #endif // __CROSSBOW
; 575  : 		{
; 576  : 			if( IsPlayer() )
; 577  : 				( (CUser*)this )->AddDefinedText( TID_GAME_WRONGITEM, "" );
; 578  : 			return FALSE;
; 579  : 		}
; 580  : 		break;
; 581  : #ifdef __CROSSBOW
; 582  : 	case IK3_BOW:
; 583  : 		if( dwItemKind3 != IK3_BOW && dwItemKind3 != IK3_CROSSBOW )
; 584  : 		{
; 585  : 			if( IsPlayer() )
; 586  : 				( (CUser*)this )->AddDefinedText( TID_GAME_WRONGITEM, "" );
; 587  : 			return FALSE;
; 588  : 		}
; 589  : 		break;
; 590  : #endif // __CROSSBOW
; 591  : 	default:
; 592  : 		if( pSkillProp->dwLinkKind != NULL_ID && pSkillProp->dwLinkKind != dwItemKind3 )	// ±×żÜ´Â IK3¸¦ şń±łÇŘĽ­ Ć˛¸®¸é żˇ·Ż.

  005e7	83 f8 ff	 cmp	 eax, -1
  005ea	0f 84 74 ff ff
	ff		 je	 $LN77@DoUseSkill
  005f0	3b c1		 cmp	 eax, ecx
$LN460@DoUseSkill:

; 1128 : 		}
; 1129 : 	}
; 1130 : #endif // __WORLDSERVER
; 1131 : #endif // __VER >= 8 // __S8_PK
; 1132 : 	
; 1133 : 	return TRUE;
; 1134 : }

  005f2	0f 84 6c ff ff
	ff		 je	 $LN77@DoUseSkill
  005f8	83 bb 30 02 00
	00 00		 cmp	 DWORD PTR [ebx+560], 0
  005ff	0f 84 b5 fb ff
	ff		 je	 $LN254@DoUseSkill
$LN258@DoUseSkill:
  00605	68 00 00 00 00	 push	 OFFSET ??_C@_00CNPNBAHC@@
  0060a	68 78 02 00 00	 push	 632			; 00000278H
  0060f	e9 9d fb ff ff	 jmp	 $LN459@DoUseSkill
$LN281@DoUseSkill:

; 613  : 		{
; 614  : 			if( pBuff->GetLevel() > (DWORD)( nLevel ) )

  00614	8b 55 e0	 mov	 edx, DWORD PTR _pSkillProp$[ebp]
$LN83@DoUseSkill:

; 624  : 				return FALSE;
; 625  : 			}
; 626  : 		}
; 627  : 	}
; 628  : #endif //__CSC_VER8_3
; 629  : 
; 630  : 	// ĹőÇÚµĺżëŔĚłÄ żřÇÚµĺżëŔĚłÄŔÇ Á¶°Ç°Ë»ç.
; 631  : 	if( pSkillProp->dwHanded != NULL_ID )

  00617	8b 82 a0 00 00
	00		 mov	 eax, DWORD PTR [edx+160]
  0061d	83 f8 ff	 cmp	 eax, -1
  00620	74 2a		 je	 SHORT $LN91@DoUseSkill

; 632  : 	{
; 633  : 		if( pItemProp )

  00622	85 f6		 test	 esi, esi
  00624	74 26		 je	 SHORT $LN91@DoUseSkill

; 634  : 		{
; 635  : 			if( IsPlayer() )

  00626	83 bb 30 02 00
	00 00		 cmp	 DWORD PTR [ebx+560], 0
  0062d	74 1d		 je	 SHORT $LN91@DoUseSkill

; 636  : 			{
; 637  : 				if( pSkillProp->dwHanded == HD_DUAL )		// µŕľóżë ˝şĹłŔÎµĄ

  0062f	83 f8 03	 cmp	 eax, 3
  00632	75 10		 jne	 SHORT $LN88@DoUseSkill

; 638  : 				{
; 639  : 					if( IsDualWeapon() == FALSE )			// µŕľó·Î ľČÂ÷°í ŔÖ´Ů.

  00634	8b cb		 mov	 ecx, ebx
  00636	e8 00 00 00 00	 call	 ?IsDualWeapon@CMover@@QAEHXZ ; CMover::IsDualWeapon
  0063b	85 c0		 test	 eax, eax
  0063d	74 c6		 je	 SHORT $LN258@DoUseSkill
  0063f	8b 55 e0	 mov	 edx, DWORD PTR _pSkillProp$[ebp]
  00642	eb 08		 jmp	 SHORT $LN91@DoUseSkill
$LN88@DoUseSkill:

; 640  : 					{
; 641  : 						((CUser*)this)->AddDefinedText( TID_GAME_WRONGITEM, "" );
; 642  : 						return FALSE;
; 643  : 					}
; 644  : 				} 
; 645  : 				else if( pItemProp->dwHanded != pSkillProp->dwHanded )	// ˝şĹł°ú Áă°í ŔÖ´Â ľĆŔĚĹŰŔÇ Handed Áľ·ů°ˇ ´Ů¸Ł¸é żˇ·Ż

  00644	39 86 a0 00 00
	00		 cmp	 DWORD PTR [esi+160], eax
  0064a	75 b9		 jne	 SHORT $LN258@DoUseSkill
$LN91@DoUseSkill:

; 646  : 				{
; 647  : 					((CUser*)this)->AddDefinedText( TID_GAME_WRONGITEM, "" );
; 648  : 					return FALSE;
; 649  : 				}
; 650  : 			}
; 651  : 		}
; 652  : 	}
; 653  : 
; 654  : 	// ÇĘżäĂŃľËÁľ·ů°ˇ ÁöÁ¤µÇľî ŔÖ´Ů¸é
; 655  : 	if( IsBullet( pSkillProp ) == FALSE )

  0064c	52		 push	 edx
  0064d	8b cb		 mov	 ecx, ebx
  0064f	e8 00 00 00 00	 call	 ?IsBullet@CMover@@QAEHPAUItemProp@@@Z ; CMover::IsBullet
  00654	85 c0		 test	 eax, eax
  00656	0f 84 5e fb ff
	ff		 je	 $LN254@DoUseSkill

; 656  : 		return FALSE;
; 657  : 
; 658  : 	if( IsPlayer() )

  0065c	83 bb 30 02 00
	00 00		 cmp	 DWORD PTR [ebx+560], 0
  00663	0f 84 0d 01 00
	00		 je	 $LN283@DoUseSkill

; 659  : 	{
; 660  : #if __VER >= 10 // __LEGEND	//	9Â÷ Ŕü˝Â˝Ă˝şĹŰ	Neuz, World, Trans
; 661  : #ifdef __3RD_LEGEND16
; 662  : 		if( pSkillProp->dwReqDisLV != NULL_ID && GetLevel() < (int)( pSkillProp->dwReqDisLV )  && !IsMaster() && !IsHero() && !IsLegendHero() )

  00669	8b 45 e0	 mov	 eax, DWORD PTR _pSkillProp$[ebp]
  0066c	8b 80 80 01 00
	00		 mov	 eax, DWORD PTR [eax+384]
  00672	83 f8 ff	 cmp	 eax, -1
  00675	74 2d		 je	 SHORT $LN282@DoUseSkill
  00677	39 83 d8 05 00
	00		 cmp	 DWORD PTR [ebx+1496], eax
  0067d	7d 25		 jge	 SHORT $LN282@DoUseSkill
  0067f	8b cb		 mov	 ecx, ebx
  00681	e8 00 00 00 00	 call	 ?IsMaster@CMover@@QAEHXZ ; CMover::IsMaster
  00686	85 c0		 test	 eax, eax
  00688	75 1a		 jne	 SHORT $LN282@DoUseSkill
  0068a	8b cb		 mov	 ecx, ebx
  0068c	e8 00 00 00 00	 call	 ?IsHero@CMover@@QAEHXZ	; CMover::IsHero
  00691	85 c0		 test	 eax, eax
  00693	75 0f		 jne	 SHORT $LN282@DoUseSkill
  00695	8b cb		 mov	 ecx, ebx
  00697	e8 00 00 00 00	 call	 ?IsLegendHero@CMover@@QAEHXZ ; CMover::IsLegendHero
  0069c	85 c0		 test	 eax, eax
  0069e	0f 84 16 fb ff
	ff		 je	 $LN254@DoUseSkill
$LN282@DoUseSkill:

; 663  : #else // __3RD_LEGEND16
; 664  : 		if( pSkillProp->dwReqDisLV != NULL_ID && GetLevel() < (int)( pSkillProp->dwReqDisLV )  && !IsMaster() && !IsHero() )
; 665  : #endif // __3RD_LEGEND16
; 666  : 			return FALSE;
; 667  : #else //__LEGEND	//	9Â÷ Ŕü˝Â˝Ă˝şĹŰ	Neuz, World, Trans
; 668  : 		if( pSkillProp->dwReqDisLV != NULL_ID && GetLevel() < pSkillProp->dwReqDisLV )
; 669  : 			return FALSE;
; 670  : #endif	//__LEGEND	//	9Â÷ Ŕü˝Â˝Ă˝şĹŰ	Neuz, World, Trans
; 671  : 		
; 672  : 		if( pSkillProp->dwReSkill1 != 0xffffffff )

  006a4	8b 45 e0	 mov	 eax, DWORD PTR _pSkillProp$[ebp]
  006a7	8b 80 84 01 00
	00		 mov	 eax, DWORD PTR [eax+388]
  006ad	83 f8 ff	 cmp	 eax, -1
  006b0	74 5c		 je	 SHORT $LN296@DoUseSkill

; 673  : 		{
; 674  : 			LPSKILL pSkillBuf = GetSkill( pSkillProp->dwReSkill1 );

  006b2	50		 push	 eax
  006b3	8b cb		 mov	 ecx, ebx
  006b5	e8 00 00 00 00	 call	 ?GetSkill@CMover@@QAEPAUtagSkill@@K@Z ; CMover::GetSkill

; 675  : 			if( pSkillBuf )

  006ba	85 c0		 test	 eax, eax
  006bc	74 1f		 je	 SHORT $LN96@DoUseSkill

; 676  : 			{
; 677  : 				if( pSkillBuf->dwLevel < pSkillProp->dwReSkillLevel1 )

  006be	8b 48 04	 mov	 ecx, DWORD PTR [eax+4]
  006c1	8b 45 e0	 mov	 eax, DWORD PTR _pSkillProp$[ebp]
  006c4	3b 88 88 01 00
	00		 cmp	 ecx, DWORD PTR [eax+392]
  006ca	73 42		 jae	 SHORT $LN296@DoUseSkill

; 678  : 				{
; 679  : 					( (CUser*)this )->AddText( "SkillLevel1 " );

  006cc	68 00 00 00 00	 push	 OFFSET ??_C@_0N@KNNGFFII@SkillLevel1?5@
  006d1	8b cb		 mov	 ecx, ebx
  006d3	e8 00 00 00 00	 call	 ?AddText@CUser@@QAEXPBD@Z ; CUser::AddText

; 680  : 					return FALSE;

  006d8	e9 dd fa ff ff	 jmp	 $LN254@DoUseSkill
$LN96@DoUseSkill:

; 681  : 				}
; 682  : 			}
; 683  : 			else
; 684  : 			{
; 685  : 				int nIdx = GetSkillIdx( dwSkill );

  006dd	8b 75 08	 mov	 esi, DWORD PTR _dwSkill$[ebp]
  006e0	8b cb		 mov	 ecx, ebx
  006e2	56		 push	 esi
  006e3	e8 00 00 00 00	 call	 ?GetSkillIdx@CMover@@QAEHK@Z ; CMover::GetSkillIdx

; 686  : 				Error( "DoUseSkill : %s NULL GetSkill %d = dwReSkill(%d, %d)", m_szName, nIdx, pSkillProp->dwReSkill1, pSkillProp->dwReSkill2 );

  006e8	8b 4d e0	 mov	 ecx, DWORD PTR _pSkillProp$[ebp]
  006eb	ff b1 8c 01 00
	00		 push	 DWORD PTR [ecx+396]
  006f1	ff b1 84 01 00
	00		 push	 DWORD PTR [ecx+388]
  006f7	50		 push	 eax
  006f8	8d 83 ec 14 00
	00		 lea	 eax, DWORD PTR [ebx+5356]
  006fe	50		 push	 eax
  006ff	68 00 00 00 00	 push	 OFFSET ??_C@_0DF@KIFDAMPH@DoUseSkill?5?3?5?$CFs?5NULL?5GetSkill?5?$CF@
  00704	e8 00 00 00 00	 call	 ?Error@@YAPBDPBDZZ	; Error
  00709	83 c4 14	 add	 esp, 20			; 00000014H
  0070c	eb 03		 jmp	 SHORT $LN97@DoUseSkill
$LN296@DoUseSkill:

; 687  : 			}
; 688  : 		}
; 689  : 
; 690  : 		if( pSkillProp->dwReSkill2 != 0xffffffff )

  0070e	8b 75 08	 mov	 esi, DWORD PTR _dwSkill$[ebp]
$LN97@DoUseSkill:
  00711	8b 45 e0	 mov	 eax, DWORD PTR _pSkillProp$[ebp]
  00714	8b 80 8c 01 00
	00		 mov	 eax, DWORD PTR [eax+396]
  0071a	83 f8 ff	 cmp	 eax, -1
  0071d	74 57		 je	 SHORT $LN283@DoUseSkill

; 691  : 		{
; 692  : 			LPSKILL pSkillBuf = GetSkill( pSkillProp->dwReSkill2 );

  0071f	50		 push	 eax
  00720	8b cb		 mov	 ecx, ebx
  00722	e8 00 00 00 00	 call	 ?GetSkill@CMover@@QAEPAUtagSkill@@K@Z ; CMover::GetSkill

; 693  : 			if( pSkillBuf )

  00727	85 c0		 test	 eax, eax
  00729	74 1f		 je	 SHORT $LN100@DoUseSkill

; 694  : 			{
; 695  : 				if( pSkillBuf->dwLevel < pSkillProp->dwReSkillLevel2 )

  0072b	8b 48 04	 mov	 ecx, DWORD PTR [eax+4]
  0072e	8b 45 e0	 mov	 eax, DWORD PTR _pSkillProp$[ebp]
  00731	3b 88 90 01 00
	00		 cmp	 ecx, DWORD PTR [eax+400]
  00737	73 3d		 jae	 SHORT $LN283@DoUseSkill

; 696  : 				{
; 697  : 					( (CUser*)this )->AddText( "SkillLevel2 " );

  00739	68 00 00 00 00	 push	 OFFSET ??_C@_0N@KPJAOLNB@SkillLevel2?5@
  0073e	8b cb		 mov	 ecx, ebx
  00740	e8 00 00 00 00	 call	 ?AddText@CUser@@QAEXPBD@Z ; CUser::AddText

; 698  : 					return FALSE;

  00745	e9 70 fa ff ff	 jmp	 $LN254@DoUseSkill
$LN100@DoUseSkill:

; 699  : 				}				
; 700  : 			}
; 701  : 			else
; 702  : 			{
; 703  : 				int nIdx = GetSkillIdx( dwSkill );

  0074a	56		 push	 esi
  0074b	8b cb		 mov	 ecx, ebx
  0074d	e8 00 00 00 00	 call	 ?GetSkillIdx@CMover@@QAEHK@Z ; CMover::GetSkillIdx

; 704  : 				Error( "DoUseSkill : %s NULL GetSkill %d = dwReSkill(%d, %d)", m_szName, nIdx, pSkillProp->dwReSkill1, pSkillProp->dwReSkill2 );

  00752	8b 4d e0	 mov	 ecx, DWORD PTR _pSkillProp$[ebp]
  00755	ff b1 8c 01 00
	00		 push	 DWORD PTR [ecx+396]
  0075b	ff b1 84 01 00
	00		 push	 DWORD PTR [ecx+388]
  00761	50		 push	 eax
  00762	8d 83 ec 14 00
	00		 lea	 eax, DWORD PTR [ebx+5356]
  00768	50		 push	 eax
  00769	68 00 00 00 00	 push	 OFFSET ??_C@_0DF@KIFDAMPH@DoUseSkill?5?3?5?$CFs?5NULL?5GetSkill?5?$CF@
  0076e	e8 00 00 00 00	 call	 ?Error@@YAPBDPBDZZ	; Error
  00773	83 c4 14	 add	 esp, 20			; 00000014H
$LN283@DoUseSkill:

; 705  : 			}
; 706  : 		}
; 707  : 	}
; 708  : 
; 709  : 	if( pSkillProp->dwID == SI_BIL_PST_ASALRAALAIKUM )	// ľŃ»ě¶óŔÇ °ćżě żążÜĂł¸®.

  00776	8b 45 e0	 mov	 eax, DWORD PTR _pSkillProp$[ebp]
  00779	81 38 9f 00 00
	00		 cmp	 DWORD PTR [eax], 159	; 0000009fH
  0077f	75 34		 jne	 SHORT $LN104@DoUseSkill

; 710  : 	{
; 711  : 		//if( GetFatiguePoint() <= 0  )		// FP°ˇ ÇĎłŞµµ ľřŔ¸¸é »çżëľČµĘ. // chipi_090917 Á¦°Ĺ
; 712  : 		if( IsPlayer() && GetFatiguePoint() < GetReqFp( pAddSkillProp->nReqFp )  )		// chipi_090917 ÇĘżä FP °Ë»ç

  00781	83 bb 30 02 00
	00 00		 cmp	 DWORD PTR [ebx+560], 0
  00788	74 2b		 je	 SHORT $LN104@DoUseSkill
  0078a	8b 45 d8	 mov	 eax, DWORD PTR _pAddSkillProp$[ebp]
  0078d	8b cb		 mov	 ecx, ebx
  0078f	ff 70 58	 push	 DWORD PTR [eax+88]
  00792	e8 00 00 00 00	 call	 ?GetReqFp@CMover@@QAEHH@Z ; CMover::GetReqFp
  00797	8b cb		 mov	 ecx, ebx
  00799	8b f0		 mov	 esi, eax
  0079b	e8 00 00 00 00	 call	 ?GetFatiguePoint@CMover@@QAEHXZ ; CMover::GetFatiguePoint
  007a0	3b c6		 cmp	 eax, esi
  007a2	7d 11		 jge	 SHORT $LN104@DoUseSkill

; 713  : 		{
; 714  : 			((CUser*)this)->AddDefinedText( TID_GAME_REQFP ); // chipi_00917

  007a4	68 67 02 00 00	 push	 615			; 00000267H
  007a9	8b cb		 mov	 ecx, ebx
  007ab	e8 00 00 00 00	 call	 ?AddDefinedText@CUser@@QAEXH@Z ; CUser::AddDefinedText

; 715  : 			return FALSE;

  007b0	e9 05 fa ff ff	 jmp	 $LN254@DoUseSkill
$LN104@DoUseSkill:

; 716  : 		}
; 717  : 	}
; 718  : 
; 719  : 	// ÄđĹ¸ŔÓ °Ë»ç.
; 720  : 	{
; 721  : 		int nSkillIdx = GetSkillIdx( dwSkill );		// ˝şĹł¸®˝şĆ® ŔÎµ¦˝ş¸¦ ĂŁŔ˝.

  007b5	ff 75 08	 push	 DWORD PTR _dwSkill$[ebp]
  007b8	8b cb		 mov	 ecx, ebx
  007ba	e8 00 00 00 00	 call	 ?GetSkillIdx@CMover@@QAEHK@Z ; CMover::GetSkillIdx

; 722  : 		if( nSkillIdx >= 0 )

  007bf	85 c0		 test	 eax, eax
  007c1	78 28		 js	 SHORT $LN106@DoUseSkill

; 723  : 		{
; 724  : 			if( GetReuseDelay( nSkillIdx ) )		// ľ˛·Á°í ÇĎ´Â ˝şĹł ÄđĹ¸ŔÓŔĚ ł˛ľĆŔÖŔ¸¸é ˝ÇÇŕľČµĘ.

  007c3	50		 push	 eax
  007c4	8b cb		 mov	 ecx, ebx
  007c6	e8 00 00 00 00	 call	 ?GetReuseDelay@CMover@@QAEKH@Z ; CMover::GetReuseDelay
  007cb	85 c0		 test	 eax, eax
  007cd	74 1c		 je	 SHORT $LN106@DoUseSkill

; 725  : 			{
; 726  : 				if( IsPlayer() )

  007cf	83 bb 30 02 00
	00 00		 cmp	 DWORD PTR [ebx+560], 0
  007d6	0f 84 de f9 ff
	ff		 je	 $LN254@DoUseSkill

; 727  : 					((CUser*)this)->AddDefinedText( TID_GAME_SKILLWAITTIME, "" );	// ľĆÁ÷ »çżëÇŇ Ľö ľř˝Ŕ´Ď´Ů.

  007dc	68 00 00 00 00	 push	 OFFSET ??_C@_00CNPNBAHC@@
  007e1	68 c4 03 00 00	 push	 964			; 000003c4H

; 843  : 	{
; 844  : 	#ifdef __WORLDSERVER
; 845  : 		if( GetAdjParam( DST_CHRSTATE ) & CHS_SILENT )		// Ä§ą¬»óĹÂżˇĽ± ¸ĹÁ÷˝şĹł ľµ Ľö ľřŔ˝.

  007e6	e9 c6 f9 ff ff	 jmp	 $LN459@DoUseSkill
$LN106@DoUseSkill:

; 728  : 				return FALSE;
; 729  : 			}
; 730  : 		}
; 731  : 	}
; 732  : 
; 733  : #ifdef __3RD_LEGEND16
; 734  : 	if( !pTarget->IsDie() && pTarget->GetWorld() == GetWorld() )

  007eb	8b cf		 mov	 ecx, edi
  007ed	e8 00 00 00 00	 call	 ?IsDie@CMover@@QAEHXZ	; CMover::IsDie
  007f2	85 c0		 test	 eax, eax
  007f4	0f 85 f4 01 00
	00		 jne	 $LN284@DoUseSkill
  007fa	8b 87 6c 01 00
	00		 mov	 eax, DWORD PTR [edi+364]
  00800	3b 83 6c 01 00
	00		 cmp	 eax, DWORD PTR [ebx+364]
  00806	0f 85 e2 01 00
	00		 jne	 $LN284@DoUseSkill

; 735  : 	{
; 736  : 		if( ( pAddSkillProp->nReqFp == NULL_ID || GetFatiguePoint() >= pAddSkillProp->nReqFp ) &&

  0080c	8b 75 d8	 mov	 esi, DWORD PTR _pAddSkillProp$[ebp]
  0080f	83 7e 58 ff	 cmp	 DWORD PTR [esi+88], -1
  00813	74 12		 je	 SHORT $LN110@DoUseSkill
  00815	8b 76 58	 mov	 esi, DWORD PTR [esi+88]
  00818	8b cb		 mov	 ecx, ebx
  0081a	e8 00 00 00 00	 call	 ?GetFatiguePoint@CMover@@QAEHXZ ; CMover::GetFatiguePoint
  0081f	3b c6		 cmp	 eax, esi
  00821	0f 8c c7 01 00
	00		 jl	 $LN284@DoUseSkill
$LN110@DoUseSkill:
  00827	8b 75 d8	 mov	 esi, DWORD PTR _pAddSkillProp$[ebp]
  0082a	83 7e 54 ff	 cmp	 DWORD PTR [esi+84], -1
  0082e	74 12		 je	 SHORT $LN111@DoUseSkill
  00830	8b 76 54	 mov	 esi, DWORD PTR [esi+84]
  00833	8b cb		 mov	 ecx, ebx
  00835	e8 00 00 00 00	 call	 ?GetManaPoint@CMover@@QAEHXZ ; CMover::GetManaPoint
  0083a	3b c6		 cmp	 eax, esi
  0083c	0f 8c ac 01 00
	00		 jl	 $LN284@DoUseSkill
$LN111@DoUseSkill:

; 737  : 			( pAddSkillProp->nReqMp == NULL_ID || GetManaPoint() >= pAddSkillProp->nReqMp ) )
; 738  : 		{
; 739  : 			if( pSkillProp->dwID == SI_LOD_SUP_PULLING )

  00842	8b 45 e0	 mov	 eax, DWORD PTR _pSkillProp$[ebp]
  00845	8b 00		 mov	 eax, DWORD PTR [eax]
  00847	3d 90 01 00 00	 cmp	 eax, 400		; 00000190H
  0084c	75 26		 jne	 SHORT $LN112@DoUseSkill
; File C:\IAGOS\server\v18\Source\Source\_Common\Obj.h

; 215  : 	D3DXVECTOR3		GetPos()	{ return m_vPos; }

  0084e	8b 83 68 01 00
	00		 mov	 eax, DWORD PTR [ebx+360]
; File C:\IAGOS\server\v18\Source\Source\_Common\MoverSkill.cpp

; 741  : 				pTarget->SetPos( GetPos() );

  00854	8b cf		 mov	 ecx, edi
; File C:\IAGOS\server\v18\Source\Source\_Common\Obj.h

; 215  : 	D3DXVECTOR3		GetPos()	{ return m_vPos; }

  00856	f3 0f 7e 83 60
	01 00 00	 movq	 xmm0, QWORD PTR [ebx+352]
  0085e	89 45 ec	 mov	 DWORD PTR $T2[ebp+8], eax
; File C:\IAGOS\server\v18\Source\Source\_Common\MoverSkill.cpp

; 741  : 				pTarget->SetPos( GetPos() );

  00861	8d 45 e4	 lea	 eax, DWORD PTR $T2[ebp]
  00864	50		 push	 eax
; File C:\IAGOS\server\v18\Source\Source\_Common\Obj.h

; 215  : 	D3DXVECTOR3		GetPos()	{ return m_vPos; }

  00865	66 0f d6 45 e4	 movq	 QWORD PTR $T2[ebp], xmm0
; File C:\IAGOS\server\v18\Source\Source\_Common\MoverSkill.cpp

; 741  : 				pTarget->SetPos( GetPos() );

  0086a	e8 00 00 00 00	 call	 ?SetPos@CObj@@QAEXABUD3DXVECTOR3@@@Z ; CObj::SetPos

; 742  : 			}

  0086f	e9 7a 01 00 00	 jmp	 $LN284@DoUseSkill
$LN112@DoUseSkill:

; 743  : 			else if( pSkillProp->dwID == SI_WIN_YOYO_BACKSTEP )

  00874	3d 9c 01 00 00	 cmp	 eax, 412		; 0000019cH
  00879	0f 85 6f 01 00
	00		 jne	 $LN284@DoUseSkill

; 745  : 				FLOAT fX = m_vPos.x + ( ( pTarget->m_vPos.x - m_vPos.x ) * 0.8f );

  0087f	f3 0f 10 83 60
	01 00 00	 movss	 xmm0, DWORD PTR [ebx+352]
; File C:\IAGOS\server\v18\Source\Source\_Common\World.h

; 734  : 	if( _isnan( x ) )

  00887	83 ec 08	 sub	 esp, 8
; File C:\IAGOS\server\v18\Source\Source\_Common\MoverSkill.cpp

; 745  : 				FLOAT fX = m_vPos.x + ( ( pTarget->m_vPos.x - m_vPos.x ) * 0.8f );

  0088a	f3 0f 10 9f 60
	01 00 00	 movss	 xmm3, DWORD PTR [edi+352]

; 746  : 				FLOAT fZ = m_vPos.z + ( ( pTarget->m_vPos.z - m_vPos.z ) * 0.8f );

  00892	f3 0f 10 97 68
	01 00 00	 movss	 xmm2, DWORD PTR [edi+360]
  0089a	f3 0f 5c d8	 subss	 xmm3, xmm0

; 747  : 				if( GetWorld()->VecInWorld( fX, fZ ) )

  0089e	8b b3 6c 01 00
	00		 mov	 esi, DWORD PTR [ebx+364]
; File C:\IAGOS\server\v18\Source\Source\_Common\World.h

; 732  : 	float inv_mpu = 1.0f / (float)m_iMPU;

  008a4	f3 0f 10 0d 00
	00 00 00	 movss	 xmm1, DWORD PTR __real@3f800000
; File C:\IAGOS\server\v18\Source\Source\_Common\MoverSkill.cpp

; 745  : 				FLOAT fX = m_vPos.x + ( ( pTarget->m_vPos.x - m_vPos.x ) * 0.8f );

  008ac	f3 0f 59 1d 00
	00 00 00	 mulss	 xmm3, DWORD PTR __real@3f4ccccd
  008b4	f3 0f 58 d8	 addss	 xmm3, xmm0

; 746  : 				FLOAT fZ = m_vPos.z + ( ( pTarget->m_vPos.z - m_vPos.z ) * 0.8f );

  008b8	f3 0f 10 83 68
	01 00 00	 movss	 xmm0, DWORD PTR [ebx+360]
  008c0	f3 0f 5c d0	 subss	 xmm2, xmm0
  008c4	f3 0f 11 5d d4	 movss	 DWORD PTR _fX$1$[ebp], xmm3
  008c9	f3 0f 59 15 00
	00 00 00	 mulss	 xmm2, DWORD PTR __real@3f4ccccd
  008d1	f3 0f 58 d0	 addss	 xmm2, xmm0
  008d5	66 0f 6e 46 14	 movd	 xmm0, DWORD PTR [esi+20]
; File C:\IAGOS\server\v18\Source\Source\_Common\World.h

; 732  : 	float inv_mpu = 1.0f / (float)m_iMPU;

  008da	0f 5b c0	 cvtdq2ps xmm0, xmm0
; File C:\IAGOS\server\v18\Source\Source\_Common\MoverSkill.cpp

; 746  : 				FLOAT fZ = m_vPos.z + ( ( pTarget->m_vPos.z - m_vPos.z ) * 0.8f );

  008dd	f3 0f 11 55 d0	 movss	 DWORD PTR _fZ$1$[ebp], xmm2
; File C:\IAGOS\server\v18\Source\Source\_Common\World.h

; 732  : 	float inv_mpu = 1.0f / (float)m_iMPU;

  008e2	f3 0f 5e c8	 divss	 xmm1, xmm0

; 734  : 	if( _isnan( x ) )

  008e6	0f 5a c3	 cvtps2pd xmm0, xmm3
  008e9	f3 0f 11 4d dc	 movss	 DWORD PTR _inv_mpu$1$[ebp], xmm1
  008ee	f2 0f 11 04 24	 movsd	 QWORD PTR [esp], xmm0
  008f3	e8 00 00 00 00	 call	 __isnan
  008f8	83 c4 08	 add	 esp, 8
  008fb	85 c0		 test	 eax, eax
  008fd	0f 85 b7 f8 ff
	ff		 jne	 $LN254@DoUseSkill

; 735  : 		return FALSE;
; 736  : 	if( x < 0.0f )

  00903	f3 0f 10 45 d4	 movss	 xmm0, DWORD PTR _fX$1$[ebp]
  00908	0f 57 c9	 xorps	 xmm1, xmm1
  0090b	0f 2f c8	 comiss	 xmm1, xmm0
  0090e	0f 87 a6 f8 ff
	ff		 ja	 $LN254@DoUseSkill

; 737  : 		return FALSE;
; 738  : 	if( (x * inv_mpu) >= ( WORLD_WIDTH-1 ) )	

  00914	8b 46 0c	 mov	 eax, DWORD PTR [esi+12]
  00917	f3 0f 10 4d dc	 movss	 xmm1, DWORD PTR _inv_mpu$1$[ebp]
  0091c	48		 dec	 eax
  0091d	f3 0f 59 c8	 mulss	 xmm1, xmm0
  00921	66 0f 6e c0	 movd	 xmm0, eax
  00925	0f 5b c0	 cvtdq2ps xmm0, xmm0
  00928	0f 2f c8	 comiss	 xmm1, xmm0
  0092b	0f 83 89 f8 ff
	ff		 jae	 $LN254@DoUseSkill
  00931	f3 0f 10 45 d0	 movss	 xmm0, DWORD PTR _fZ$1$[ebp]

; 739  : 	{
; 740  : 		return FALSE;
; 741  : 	}
; 742  : 
; 743  : 	if( _isnan( z ) )

  00936	83 ec 08	 sub	 esp, 8
  00939	0f 5a c0	 cvtps2pd xmm0, xmm0
  0093c	f2 0f 11 04 24	 movsd	 QWORD PTR [esp], xmm0
  00941	e8 00 00 00 00	 call	 __isnan
  00946	83 c4 08	 add	 esp, 8
  00949	85 c0		 test	 eax, eax
  0094b	0f 85 69 f8 ff
	ff		 jne	 $LN254@DoUseSkill

; 744  : 		return FALSE;
; 745  : 	if( z < 0.0f )

  00951	f3 0f 10 4d d0	 movss	 xmm1, DWORD PTR _fZ$1$[ebp]
  00956	0f 57 c0	 xorps	 xmm0, xmm0
  00959	0f 2f c1	 comiss	 xmm0, xmm1
  0095c	0f 87 58 f8 ff
	ff		 ja	 $LN254@DoUseSkill

; 746  : 		return FALSE;
; 747  : 	if( (z * inv_mpu) >= ( WORLD_HEIGHT-1 ) )		

  00962	8b 46 10	 mov	 eax, DWORD PTR [esi+16]
  00965	f3 0f 10 55 dc	 movss	 xmm2, DWORD PTR _inv_mpu$1$[ebp]
  0096a	48		 dec	 eax
  0096b	f3 0f 59 d1	 mulss	 xmm2, xmm1
  0096f	66 0f 6e c0	 movd	 xmm0, eax
  00973	0f 5b c0	 cvtdq2ps xmm0, xmm0
  00976	0f 2f d0	 comiss	 xmm2, xmm0
  00979	0f 83 3b f8 ff
	ff		 jae	 $LN254@DoUseSkill
; File C:\IAGOS\server\v18\Source\Source\DX_SDK\d3dx9math.inl

; 300  :     x = fx;

  0097f	f3 0f 10 45 d4	 movss	 xmm0, DWORD PTR _fX$1$[ebp]
; File C:\IAGOS\server\v18\Source\Source\_Common\MoverSkill.cpp

; 750  : 					if( GetWorld() )

  00984	8b 8b 6c 01 00
	00		 mov	 ecx, DWORD PTR [ebx+364]
; File C:\IAGOS\server\v18\Source\Source\DX_SDK\d3dx9math.inl

; 300  :     x = fx;

  0098a	f3 0f 11 45 f0	 movss	 DWORD PTR _vPos$4[ebp], xmm0

; 301  :     y = fy;

  0098f	c7 45 f4 00 00
	c8 42		 mov	 DWORD PTR _vPos$4[ebp+4], 1120403456 ; 42c80000H

; 302  :     z = fz;

  00996	f3 0f 11 4d f8	 movss	 DWORD PTR _vPos$4[ebp+8], xmm1
; File C:\IAGOS\server\v18\Source\Source\_Common\MoverSkill.cpp

; 750  : 					if( GetWorld() )

  0099b	85 c9		 test	 ecx, ecx
  0099d	74 0c		 je	 SHORT $LN117@DoUseSkill

; 751  : 						vPos.y = GetWorld()->GetFullHeight( vPos );

  0099f	8d 45 f0	 lea	 eax, DWORD PTR _vPos$4[ebp]
  009a2	50		 push	 eax
  009a3	e8 00 00 00 00	 call	 ?GetFullHeight@CWorld@@QAEMABUD3DXVECTOR3@@@Z ; CWorld::GetFullHeight
  009a8	d9 5d f4	 fstp	 DWORD PTR _vPos$4[ebp+4]
$LN117@DoUseSkill:

; 752  : 					g_UserMng.AddSetPos( (CCtrl*)this, vPos );

  009ab	8d 45 f0	 lea	 eax, DWORD PTR _vPos$4[ebp]
  009ae	b9 00 00 00 00	 mov	 ecx, OFFSET ?g_UserMng@@3VCUserMng@@A ; g_UserMng
  009b3	50		 push	 eax
  009b4	53		 push	 ebx
  009b5	e8 00 00 00 00	 call	 ?AddSetPos@CUserMng@@QAEXPAVCCtrl@@AAUD3DXVECTOR3@@@Z ; CUserMng::AddSetPos

; 753  : 					SetPos( vPos );

  009ba	8d 45 f0	 lea	 eax, DWORD PTR _vPos$4[ebp]
  009bd	8b cb		 mov	 ecx, ebx
  009bf	50		 push	 eax
  009c0	e8 00 00 00 00	 call	 ?SetPos@CObj@@QAEXABUD3DXVECTOR3@@@Z ; CObj::SetPos

; 754  : 
; 755  : 					if( IsPlayer() )

  009c5	83 bb 30 02 00
	00 00		 cmp	 DWORD PTR [ebx+560], 0
  009cc	74 20		 je	 SHORT $LN284@DoUseSkill

; 756  : 					{
; 757  : 						((CUser*)this)->Notify();

  009ce	8b cb		 mov	 ecx, ebx
  009d0	e8 00 00 00 00	 call	 ?Notify@CUser@@QAEHXZ	; CUser::Notify

; 758  : 						((CUser*)this)->AddSetTarget( pTarget->GetId() );

  009d5	ff b7 bc 01 00
	00		 push	 DWORD PTR [edi+444]
  009db	8b cb		 mov	 ecx, ebx
  009dd	e8 00 00 00 00	 call	 ?AddSetTarget@CUser@@QAEXK@Z ; CUser::AddSetTarget

; 759  : 						((CUser*)this)->m_idSetTarget = pTarget->GetId();

  009e2	8b 87 bc 01 00
	00		 mov	 eax, DWORD PTR [edi+444]
  009e8	89 83 40 8e 00
	00		 mov	 DWORD PTR [ebx+36416], eax
$LN284@DoUseSkill:
; File C:\IAGOS\server\v18\Source\Source\_Common\Mover.h

; 1785 : 	if( m_pActMover )	

  009ee	8b 8b 38 02 00
	00		 mov	 ecx, DWORD PTR [ebx+568]
  009f4	85 c9		 test	 ecx, ecx
  009f6	74 11		 je	 SHORT $LN207@DoUseSkill

; 1786 : 		return m_pActMover->SendActMsg( dwMsg, nParam1, nParam2, nParam3, nParam4 );	

  009f8	8b 01		 mov	 eax, DWORD PTR [ecx]
  009fa	6a 00		 push	 0
  009fc	6a 00		 push	 0
  009fe	6a 00		 push	 0
  00a00	6a 00		 push	 0
  00a02	6a 00		 push	 0
  00a04	6a 06		 push	 6
  00a06	ff 50 04	 call	 DWORD PTR [eax+4]
$LN207@DoUseSkill:

; 1030 : 	void			ClearDestObj()     	{ m_idDest = NULL_ID; m_fArrivalRange = 0.0f; }

  00a09	c7 83 58 02 00
	00 ff ff ff ff	 mov	 DWORD PTR [ebx+600], -1
; File C:\IAGOS\server\v18\Source\Source\_Common\MoverSkill.cpp

; 775  : 	OBJMSG dwMsg = OBJMSG_NONE;

  00a13	33 f6		 xor	 esi, esi
; File C:\IAGOS\server\v18\Source\Source\_Common\Mover.h

; 1030 : 	void			ClearDestObj()     	{ m_idDest = NULL_ID; m_fArrivalRange = 0.0f; }

  00a15	c7 83 54 02 00
	00 00 00 00 00	 mov	 DWORD PTR [ebx+596], 0

; 1031 : 	void			ClearDestPos()		{ m_vDestPos = D3DXVECTOR3( 0.0f, 0.0f, 0.0f ); }		

  00a1f	c7 83 5c 02 00
	00 00 00 00 00	 mov	 DWORD PTR [ebx+604], 0
  00a29	c7 83 60 02 00
	00 00 00 00 00	 mov	 DWORD PTR [ebx+608], 0
  00a33	c7 83 64 02 00
	00 00 00 00 00	 mov	 DWORD PTR [ebx+612], 0
; File C:\IAGOS\server\v18\Source\Source\_Common\MoverSkill.cpp

; 776  : 	int nMotion = (int)pSkillProp->dwUseMotion;

  00a3d	8b 45 e0	 mov	 eax, DWORD PTR _pSkillProp$[ebp]
  00a40	8b 88 b8 01 00
	00		 mov	 ecx, DWORD PTR [eax+440]

; 777  : 	
; 778  : 	//--- ¸¶łŞ°ˇ ĂćşĐÇŃÁö °Ë»ç...
; 779  : 	if( pSkillProp->dwSkillType == KT_SKILL )

  00a46	8b 80 e8 01 00
	00		 mov	 eax, DWORD PTR [eax+488]
  00a4c	89 4d dc	 mov	 DWORD PTR _nMotion$1$[ebp], ecx
  00a4f	83 f8 02	 cmp	 eax, 2
  00a52	0f 85 8e 00 00
	00		 jne	 $LN119@DoUseSkill

; 780  : 	{
; 781  : 	#ifdef __WORLDSERVER
; 782  : 
; 783  : 		#if __VER >= 10 // __LEGEND	//	10Â÷ Ŕü˝Â˝Ă˝şĹŰ	Neuz, World, Trans
; 784  : 			if(GetReqFp( pAddSkillProp->nReqFp ) == 9999999)

  00a58	8b 45 d8	 mov	 eax, DWORD PTR _pAddSkillProp$[ebp]
  00a5b	8b cb		 mov	 ecx, ebx
  00a5d	ff 70 58	 push	 DWORD PTR [eax+88]
  00a60	e8 00 00 00 00	 call	 ?GetReqFp@CMover@@QAEHH@Z ; CMover::GetReqFp
  00a65	8b cb		 mov	 ecx, ebx
  00a67	3d 7f 96 98 00	 cmp	 eax, 9999999		; 0098967fH
  00a6c	75 2f		 jne	 SHORT $LN121@DoUseSkill

; 785  : 			{
; 786  : 				if( GetManaPoint() != GetMaxManaPoint())

  00a6e	e8 00 00 00 00	 call	 ?GetManaPoint@CMover@@QAEHXZ ; CMover::GetManaPoint
  00a73	8b cb		 mov	 ecx, ebx
  00a75	8b f0		 mov	 esi, eax
  00a77	e8 00 00 00 00	 call	 ?GetMaxManaPoint@CMover@@QAEHXZ ; CMover::GetMaxManaPoint
  00a7c	3b f0		 cmp	 esi, eax
  00a7e	0f 85 ef 00 00
	00		 jne	 $LN457@DoUseSkill

; 787  : 				{
; 788  : 					if( TRUE == IsPlayer() )
; 789  : 						( (CUser*)this )->AddDefinedText( TID_GAME_REQMP, "" );
; 790  : 					return FALSE;
; 791  : 				}
; 792  : 				if( GetFatiguePoint() != GetMaxFatiguePoint())

  00a84	8b cb		 mov	 ecx, ebx
  00a86	e8 00 00 00 00	 call	 ?GetFatiguePoint@CMover@@QAEHXZ ; CMover::GetFatiguePoint
  00a8b	8b cb		 mov	 ecx, ebx
  00a8d	8b f0		 mov	 esi, eax
  00a8f	e8 00 00 00 00	 call	 ?GetMaxFatiguePoint@CMover@@QAEHXZ ; CMover::GetMaxFatiguePoint
  00a94	3b f0		 cmp	 esi, eax
  00a96	74 44		 je	 SHORT $LN130@DoUseSkill

; 843  : 	{
; 844  : 	#ifdef __WORLDSERVER
; 845  : 		if( GetAdjParam( DST_CHRSTATE ) & CHS_SILENT )		// Ä§ą¬»óĹÂżˇĽ± ¸ĹÁ÷˝şĹł ľµ Ľö ľřŔ˝.

  00a98	e9 a2 00 00 00	 jmp	 $LN458@DoUseSkill
$LN121@DoUseSkill:

; 793  : 				{
; 794  : 					if( TRUE == IsPlayer() )
; 795  : 						( (CUser*)this )->AddDefinedText( TID_GAME_REQFP, "" );
; 796  : 					return FALSE;
; 797  : 				}
; 798  : 			}
; 799  : 			else
; 800  : 			{
; 801  : 				if( GetFatiguePoint() - GetReqFp( pAddSkillProp->nReqFp ) < 0 )	// FP°ˇ ¸đŔÚ¸ŁąÇ·Î ĂëĽŇ

  00a9d	8b 45 d8	 mov	 eax, DWORD PTR _pAddSkillProp$[ebp]
  00aa0	ff 70 58	 push	 DWORD PTR [eax+88]
  00aa3	e8 00 00 00 00	 call	 ?GetReqFp@CMover@@QAEHH@Z ; CMover::GetReqFp
  00aa8	8b cb		 mov	 ecx, ebx
  00aaa	8b f0		 mov	 esi, eax
  00aac	e8 00 00 00 00	 call	 ?GetFatiguePoint@CMover@@QAEHXZ ; CMover::GetFatiguePoint
  00ab1	2b c6		 sub	 eax, esi
  00ab3	0f 88 86 00 00
	00		 js	 $LN458@DoUseSkill

; 802  : 				{
; 803  : 					if( TRUE == IsPlayer() )
; 804  : 						( (CUser*)this )->AddDefinedText( TID_GAME_REQFP, "" );
; 805  : 					return FALSE;
; 806  : 				}
; 807  : 
; 808  : 				// KT_SKILLÁßżˇ MP°ˇ ĽŇ¸đµÇ´Â °ŞŔĚŔÖŔ¸¸é FPżÍ °°ŔĚ ĽŇ¸đ˝ĂÄŃÁŘ´Ů.
; 809  : 				if( (int)pAddSkillProp->nReqMp > 0 )

  00ab9	8b 45 d8	 mov	 eax, DWORD PTR _pAddSkillProp$[ebp]
  00abc	8b 40 54	 mov	 eax, DWORD PTR [eax+84]
  00abf	85 c0		 test	 eax, eax
  00ac1	7e 19		 jle	 SHORT $LN130@DoUseSkill

; 810  : 				{
; 811  : 					if( GetManaPoint() - GetReqMp( pAddSkillProp->nReqMp ) < 0 )		// ¸¶łŞ°ˇ ¸đŔÚ¸ŁąÇ·Î ĂëĽŇ

  00ac3	50		 push	 eax
  00ac4	8b cb		 mov	 ecx, ebx
  00ac6	e8 00 00 00 00	 call	 ?GetReqMp@CMover@@QAEHH@Z ; CMover::GetReqMp
  00acb	8b cb		 mov	 ecx, ebx
  00acd	8b f0		 mov	 esi, eax
  00acf	e8 00 00 00 00	 call	 ?GetManaPoint@CMover@@QAEHXZ ; CMover::GetManaPoint
  00ad4	2b c6		 sub	 eax, esi
  00ad6	0f 88 97 00 00
	00		 js	 $LN457@DoUseSkill
$LN130@DoUseSkill:

; 812  : 					{
; 813  : 						if( TRUE == IsPlayer() )
; 814  : 							( (CUser*)this )->AddDefinedText( TID_GAME_REQMP, "" );
; 815  : 						return FALSE;
; 816  : 					}
; 817  : 				}
; 818  : 			}
; 819  : 		#else //__LEGEND	//	10Â÷ Ŕü˝Â˝Ă˝şĹŰ	Neuz, World, Trans
; 820  : 			if( GetFatiguePoint() - GetReqFp( pAddSkillProp->nReqFp ) < 0 )	// FP°ˇ ¸đŔÚ¸ŁąÇ·Î ĂëĽŇ
; 821  : 			{
; 822  : 				if( TRUE == IsPlayer() )
; 823  : 					( (CUser*)this )->AddDefinedText( TID_GAME_REQFP, "" );
; 824  : 				return FALSE;
; 825  : 			}
; 826  : 
; 827  : 			// KT_SKILLÁßżˇ MP°ˇ ĽŇ¸đµÇ´Â °ŞŔĚŔÖŔ¸¸é FPżÍ °°ŔĚ ĽŇ¸đ˝ĂÄŃÁŘ´Ů.
; 828  : 			if( (int)pAddSkillProp->nReqMp > 0 )
; 829  : 			{
; 830  : 				if( GetManaPoint() - GetReqMp( pAddSkillProp->nReqMp ) < 0 )		// ¸¶łŞ°ˇ ¸đŔÚ¸ŁąÇ·Î ĂëĽŇ
; 831  : 				{
; 832  : 					if( TRUE == IsPlayer() )
; 833  : 						( (CUser*)this )->AddDefinedText( TID_GAME_REQMP, "" );
; 834  : 					return FALSE;
; 835  : 				}
; 836  : 			}
; 837  : 		#endif	//__LEGEND	//	10Â÷ Ŕü˝Â˝Ă˝şĹŰ	Neuz, World, Trans
; 838  : 
; 839  : 	#endif
; 840  : 		dwMsg = OBJMSG_MELEESKILL;	// Ĺ¬¶óżˇĽ­µµ ˝ÇÇŕÇŘľßÇÔ

  00adc	be 25 00 00 00	 mov	 esi, 37			; 00000025H

; 841  : 	} 

  00ae1	e9 15 02 00 00	 jmp	 $LN133@DoUseSkill
$LN119@DoUseSkill:

; 842  : 	else if( pSkillProp->dwSkillType == KT_MAGIC )

  00ae6	83 f8 01	 cmp	 eax, 1
  00ae9	0f 85 f7 01 00
	00		 jne	 $LN132@DoUseSkill

; 843  : 	{
; 844  : 	#ifdef __WORLDSERVER
; 845  : 		if( GetAdjParam( DST_CHRSTATE ) & CHS_SILENT )		// Ä§ą¬»óĹÂżˇĽ± ¸ĹÁ÷˝şĹł ľµ Ľö ľřŔ˝.

  00aef	6a 40		 push	 64			; 00000040H
  00af1	8b cb		 mov	 ecx, ebx
  00af3	e8 00 00 00 00	 call	 ?GetAdjParam@CMover@@QAEHH@Z ; CMover::GetAdjParam
  00af8	a9 00 00 01 00	 test	 eax, 65536		; 00010000H
  00afd	0f 85 b7 f6 ff
	ff		 jne	 $LN254@DoUseSkill

; 846  : 			return FALSE;
; 847  : 
; 848  : #if __VER >= 10 // __LEGEND	//	10Â÷ Ŕü˝Â˝Ă˝şĹŰ	Neuz, World, Trans
; 849  : 		if(GetReqMp( pAddSkillProp->nReqMp ) == 9999999)

  00b03	8b 45 d8	 mov	 eax, DWORD PTR _pAddSkillProp$[ebp]
  00b06	8b cb		 mov	 ecx, ebx
  00b08	ff 70 54	 push	 DWORD PTR [eax+84]
  00b0b	e8 00 00 00 00	 call	 ?GetReqMp@CMover@@QAEHH@Z ; CMover::GetReqMp
  00b10	8b cb		 mov	 ecx, ebx
  00b12	3d 7f 96 98 00	 cmp	 eax, 9999999		; 0098967fH
  00b17	75 42		 jne	 SHORT $LN135@DoUseSkill

; 850  : 		{
; 851  : 			if( GetManaPoint() != GetMaxManaPoint())

  00b19	e8 00 00 00 00	 call	 ?GetManaPoint@CMover@@QAEHXZ ; CMover::GetManaPoint
  00b1e	8b cb		 mov	 ecx, ebx
  00b20	8b f0		 mov	 esi, eax
  00b22	e8 00 00 00 00	 call	 ?GetMaxManaPoint@CMover@@QAEHXZ ; CMover::GetMaxManaPoint
  00b27	3b f0		 cmp	 esi, eax
  00b29	75 48		 jne	 SHORT $LN457@DoUseSkill

; 852  : 			{
; 853  : 				if( TRUE == IsPlayer() )
; 854  : 					( (CUser*)this )->AddDefinedText( TID_GAME_REQMP, "" );
; 855  : 				return FALSE;
; 856  : 			}
; 857  : 			if( GetFatiguePoint() != GetMaxFatiguePoint())

  00b2b	8b cb		 mov	 ecx, ebx
  00b2d	e8 00 00 00 00	 call	 ?GetFatiguePoint@CMover@@QAEHXZ ; CMover::GetFatiguePoint
  00b32	8b cb		 mov	 ecx, ebx
  00b34	8b f0		 mov	 esi, eax
  00b36	e8 00 00 00 00	 call	 ?GetMaxFatiguePoint@CMover@@QAEHXZ ; CMover::GetMaxFatiguePoint
  00b3b	3b f0		 cmp	 esi, eax
  00b3d	74 50		 je	 SHORT $LN141@DoUseSkill
$LN458@DoUseSkill:

; 1128 : 		}
; 1129 : 	}
; 1130 : #endif // __WORLDSERVER
; 1131 : #endif // __VER >= 8 // __S8_PK
; 1132 : 	
; 1133 : 	return TRUE;
; 1134 : }

  00b3f	83 bb 30 02 00
	00 01		 cmp	 DWORD PTR [ebx+560], 1
  00b46	0f 85 6e f6 ff
	ff		 jne	 $LN254@DoUseSkill
  00b4c	68 00 00 00 00	 push	 OFFSET ??_C@_00CNPNBAHC@@
  00b51	68 67 02 00 00	 push	 615			; 00000267H
  00b56	e9 56 f6 ff ff	 jmp	 $LN459@DoUseSkill
$LN135@DoUseSkill:

; 858  : 			{
; 859  : 				if( TRUE == IsPlayer() )
; 860  : 					( (CUser*)this )->AddDefinedText( TID_GAME_REQFP, "" );
; 861  : 				return FALSE;
; 862  : 			}
; 863  : 		}
; 864  : 		else
; 865  : 		{
; 866  : 			if( GetManaPoint() - GetReqMp( pAddSkillProp->nReqMp ) < 0 )		// ¸¶łŞ°ˇ ¸đŔÚ¸ŁąÇ·Î ĂëĽŇ

  00b5b	8b 45 d8	 mov	 eax, DWORD PTR _pAddSkillProp$[ebp]
  00b5e	ff 70 54	 push	 DWORD PTR [eax+84]
  00b61	e8 00 00 00 00	 call	 ?GetReqMp@CMover@@QAEHH@Z ; CMover::GetReqMp
  00b66	8b cb		 mov	 ecx, ebx
  00b68	8b f0		 mov	 esi, eax
  00b6a	e8 00 00 00 00	 call	 ?GetManaPoint@CMover@@QAEHXZ ; CMover::GetManaPoint
  00b6f	2b c6		 sub	 eax, esi
  00b71	79 1c		 jns	 SHORT $LN141@DoUseSkill
$LN457@DoUseSkill:

; 1128 : 		}
; 1129 : 	}
; 1130 : #endif // __WORLDSERVER
; 1131 : #endif // __VER >= 8 // __S8_PK
; 1132 : 	
; 1133 : 	return TRUE;
; 1134 : }

  00b73	83 bb 30 02 00
	00 01		 cmp	 DWORD PTR [ebx+560], 1
  00b7a	0f 85 3a f6 ff
	ff		 jne	 $LN254@DoUseSkill
  00b80	68 00 00 00 00	 push	 OFFSET ??_C@_00CNPNBAHC@@
  00b85	68 68 02 00 00	 push	 616			; 00000268H
  00b8a	e9 22 f6 ff ff	 jmp	 $LN459@DoUseSkill
$LN141@DoUseSkill:

; 867  : 			{
; 868  : 				if( TRUE == IsPlayer() )
; 869  : 					( (CUser*)this )->AddDefinedText( TID_GAME_REQMP, "" );
; 870  : 				return FALSE;
; 871  : 			}
; 872  : 		}
; 873  : #else //__LEGEND	//	10Â÷ Ŕü˝Â˝Ă˝şĹŰ	Neuz, World, Trans
; 874  : 		if( GetManaPoint() - GetReqMp( pAddSkillProp->nReqMp ) < 0 )		// ¸¶łŞ°ˇ ¸đŔÚ¸ŁąÇ·Î ĂëĽŇ
; 875  : 		{
; 876  : 			if( TRUE == IsPlayer() )
; 877  : 				( (CUser*)this )->AddDefinedText( TID_GAME_REQMP, "" );
; 878  : 			return FALSE;
; 879  : 		}
; 880  : #endif	//__LEGEND	//	10Â÷ Ŕü˝Â˝Ă˝şĹŰ	Neuz, World, Trans
; 881  : 
; 882  : 	#endif // worldserver
; 883  : 		if( sutType == SUT_QUEUESTART )		// ˝şĹłĹĄ ˝ĂŔŰ ˝şĹł. - ĹĄł»ŔÇ ¸đµç ˝şĹłŔÇ Äł˝şĆĂŔ» ¸ôľĆĽ­ ÇŃ´Ů.

  00b8f	8b 45 14	 mov	 eax, DWORD PTR _sutType$[ebp]
  00b92	83 f8 01	 cmp	 eax, 1
  00b95	75 12		 jne	 SHORT $LN143@DoUseSkill

; 884  : 		{
; 885  : 			if( IsPlayer() )
; 886  : 				dwMsg = OBJMSG_MAGICCASTING;
; 887  : 		} 

  00b97	8b b3 30 02 00
	00		 mov	 esi, DWORD PTR [ebx+560]
  00b9d	f7 de		 neg	 esi
  00b9f	1b f6		 sbb	 esi, esi
  00ba1	83 e6 27	 and	 esi, 39			; 00000027H
  00ba4	e9 5c 01 00 00	 jmp	 $LN244@DoUseSkill
$LN143@DoUseSkill:

; 888  : 		else if( sutType == SUT_QUEUEING )	// ˝şĹłĹĄ ÁřÇŕÁß ˝şĹł. - Äł˝şĆĂ µżŔŰľřŔĚ ˝ĂŔü.

  00ba9	83 f8 02	 cmp	 eax, 2
  00bac	0f 85 2d 01 00
	00		 jne	 $LN146@DoUseSkill

; 889  : 		{
; 890  : 			nMotion += 2;

  00bb2	01 45 dc	 add	 DWORD PTR _nMotion$1$[ebp], eax

; 891  : 			dwMsg = OBJMSG_MAGICSKILL;

  00bb5	8d 70 24	 lea	 esi, DWORD PTR [eax+36]
$LN294@DoUseSkill:

; 903  : 	
; 904  : 	//--- µżŔŰ ˝ĂŔŰ -----------------------------------------------------------------
; 905  : #if __VER >= 10 // __LEGEND	//	9Â÷ Ŕü˝Â˝Ă˝şĹŰ	Neuz, World, Trans
; 906  : 	int nRet = m_pActMover->SendActMsg( dwMsg, nMotion, idFocusObj, nCastingTime, dwSkill );

  00bb8	8b 55 1c	 mov	 edx, DWORD PTR _nCastingTime$[ebp]
$LN148@DoUseSkill:
  00bbb	8b 8b 38 02 00
	00		 mov	 ecx, DWORD PTR [ebx+568]
  00bc1	6a 00		 push	 0
  00bc3	ff 75 08	 push	 DWORD PTR _dwSkill$[ebp]
  00bc6	8b 01		 mov	 eax, DWORD PTR [ecx]
  00bc8	52		 push	 edx
  00bc9	ff 75 cc	 push	 DWORD PTR _idFocusObj$GSCopy$1$[ebp]
  00bcc	ff 75 dc	 push	 DWORD PTR _nMotion$1$[ebp]
  00bcf	56		 push	 esi
  00bd0	ff 50 04	 call	 DWORD PTR [eax+4]

; 907  : #else //__LEGEND	//	9Â÷ Ŕü˝Â˝Ă˝şĹŰ	Neuz, World, Trans
; 908  : 	int nRet = m_pActMover->SendActMsg( dwMsg, nMotion, idFocusObj, nCastingTime );
; 909  : #endif	//__LEGEND	//	9Â÷ Ŕü˝Â˝Ă˝şĹŰ	Neuz, World, Trans
; 910  : 
; 911  : 	if( nRet == 1 )	// ˝şĹł µżŔŰ ˝ĂŔŰ.

  00bd3	83 f8 01	 cmp	 eax, 1
  00bd6	0f 85 4c 01 00
	00		 jne	 $LN149@DoUseSkill

; 912  : 	{
; 913  : 		// ¸í·ÉĽöÇŕÁß ÇĘżäÇŃ ĆÄ¶ó¸ŢĹÍĽĽĆĂ.
; 914  : 		SetActParam( OBJACT_USESKILL, dwSkill, idFocusObj );	

  00bdc	8b 75 08	 mov	 esi, DWORD PTR _dwSkill$[ebp]
  00bdf	8b cb		 mov	 ecx, ebx
  00be1	6a 00		 push	 0
  00be3	ff 75 cc	 push	 DWORD PTR _idFocusObj$GSCopy$1$[ebp]
  00be6	56		 push	 esi
  00be7	6a 05		 push	 5
  00be9	e8 00 00 00 00	 call	 ?SetActParam@CMover@@AAEXW4OBJACT@@HHH@Z ; CMover::SetActParam

; 915  : 		m_nAParam[3]	= nLevel;

  00bee	8b 45 0c	 mov	 eax, DWORD PTR _nLevel$[ebp]
  00bf1	89 83 bc 11 00
	00		 mov	 DWORD PTR [ebx+4540], eax

; 916  : #if __VER >= 8 // __S8_PK
; 917  : 		m_nAParam[4]	= bControl;

  00bf7	8b 45 18	 mov	 eax, DWORD PTR _bControl$[ebp]
  00bfa	89 83 c0 11 00
	00		 mov	 DWORD PTR [ebx+4544], eax

; 918  : #endif // __VER >= 8 // __S8_PK
; 919  : 
; 920  : 	#ifdef __WORLDSERVER
; 921  : 		if( pSkillProp->dwSkillType == KT_SKILL )

  00c00	8b 45 e0	 mov	 eax, DWORD PTR _pSkillProp$[ebp]
  00c03	83 b8 e8 01 00
	00 02		 cmp	 DWORD PTR [eax+488], 2
  00c0a	75 37		 jne	 SHORT $LN285@DoUseSkill

; 922  : 		{
; 923  : 			// ±ŮÁ˘˝şĹłŔş »çżëÇĎ´Â Áď˝Ă fp°¨ĽŇ.
; 924  : 			if( (int)pAddSkillProp->nReqFp > 0 )

  00c0c	8b 45 d8	 mov	 eax, DWORD PTR _pAddSkillProp$[ebp]
  00c0f	8b 48 58	 mov	 ecx, DWORD PTR [eax+88]
  00c12	85 c9		 test	 ecx, ecx
  00c14	7e 15		 jle	 SHORT $LN152@DoUseSkill

; 925  : 				IncFatiguePoint( -GetReqFp( pAddSkillProp->nReqFp ) );			// FP°¨ĽŇ

  00c16	51		 push	 ecx
  00c17	8b cb		 mov	 ecx, ebx
  00c19	e8 00 00 00 00	 call	 ?GetReqFp@CMover@@QAEHH@Z ; CMover::GetReqFp
  00c1e	f7 d8		 neg	 eax
  00c20	8b cb		 mov	 ecx, ebx
  00c22	50		 push	 eax
  00c23	e8 00 00 00 00	 call	 ?IncFatiguePoint@CMover@@QAEXH@Z ; CMover::IncFatiguePoint
  00c28	8b 45 d8	 mov	 eax, DWORD PTR _pAddSkillProp$[ebp]
$LN152@DoUseSkill:

; 926  : 
; 927  : 			int nReqMp	= GetReqMp( pAddSkillProp->nReqMp );

  00c2b	ff 70 54	 push	 DWORD PTR [eax+84]
  00c2e	8b cb		 mov	 ecx, ebx
  00c30	e8 00 00 00 00	 call	 ?GetReqMp@CMover@@QAEHH@Z ; CMover::GetReqMp

; 928  : 			if( nReqMp > 0 )

  00c35	85 c0		 test	 eax, eax
  00c37	7e 0a		 jle	 SHORT $LN285@DoUseSkill

; 929  : 			{
; 930  : 				IncManaPoint( -nReqMp );

  00c39	f7 d8		 neg	 eax
  00c3b	8b cb		 mov	 ecx, ebx
  00c3d	50		 push	 eax
  00c3e	e8 00 00 00 00	 call	 ?IncManaPoint@CMover@@QAEXH@Z ; CMover::IncManaPoint
$LN285@DoUseSkill:

; 931  : 			}
; 932  : 		}
; 933  : 	#if __VER >= 10 // __LEGEND	//	10Â÷ Ŕü˝Â˝Ă˝şĹŰ	Neuz, World, Trans
; 934  : 		if( pSkillProp->dwSkillType == KT_MAGIC )

  00c43	8b 45 e0	 mov	 eax, DWORD PTR _pSkillProp$[ebp]
  00c46	83 b8 e8 01 00
	00 01		 cmp	 DWORD PTR [eax+488], 1
  00c4d	75 36		 jne	 SHORT $LN286@DoUseSkill

; 935  : 		{
; 936  : 			if( GetReqMp( pAddSkillProp->nReqMp ) == 9999999 )

  00c4f	8b 45 d8	 mov	 eax, DWORD PTR _pAddSkillProp$[ebp]
  00c52	8b cb		 mov	 ecx, ebx
  00c54	ff 70 54	 push	 DWORD PTR [eax+84]
  00c57	e8 00 00 00 00	 call	 ?GetReqMp@CMover@@QAEHH@Z ; CMover::GetReqMp
  00c5c	3d 7f 96 98 00	 cmp	 eax, 9999999		; 0098967fH
  00c61	75 22		 jne	 SHORT $LN286@DoUseSkill

; 937  : 			{
; 938  : 				IncFatiguePoint( -GetFatiguePoint() );			// FP°¨ĽŇ

  00c63	8b cb		 mov	 ecx, ebx
  00c65	e8 00 00 00 00	 call	 ?GetFatiguePoint@CMover@@QAEHXZ ; CMover::GetFatiguePoint
  00c6a	f7 d8		 neg	 eax
  00c6c	8b cb		 mov	 ecx, ebx
  00c6e	50		 push	 eax
  00c6f	e8 00 00 00 00	 call	 ?IncFatiguePoint@CMover@@QAEXH@Z ; CMover::IncFatiguePoint

; 939  : 				IncManaPoint( -GetManaPoint() );

  00c74	8b cb		 mov	 ecx, ebx
  00c76	e8 00 00 00 00	 call	 ?GetManaPoint@CMover@@QAEHXZ ; CMover::GetManaPoint
  00c7b	f7 d8		 neg	 eax
  00c7d	8b cb		 mov	 ecx, ebx
  00c7f	50		 push	 eax
  00c80	e8 00 00 00 00	 call	 ?IncManaPoint@CMover@@QAEXH@Z ; CMover::IncManaPoint
$LN286@DoUseSkill:

; 940  : 			}
; 941  : 		}
; 942  : 	#endif	//__LEGEND	//	10Â÷ Ŕü˝Â˝Ă˝şĹŰ	Neuz, World, Trans
; 943  : 		
; 944  : 		if( pSkillProp->dwLinkKindBullet != NULL_ID )	// ĂŃľË(?)Ŕ» ÇĘżä·Î ÇĎ´Â°Ĺ¸é

  00c85	8b 45 e0	 mov	 eax, DWORD PTR _pSkillProp$[ebp]
  00c88	83 b8 dc 00 00
	00 ff		 cmp	 DWORD PTR [eax+220], -1
  00c8f	74 16		 je	 SHORT $LN287@DoUseSkill

; 945  : 		{
; 946  : 			CItemElem *pItemElem = GetEquipItem( PARTS_BULLET );

  00c91	6a 19		 push	 25			; 00000019H
  00c93	8b cb		 mov	 ecx, ebx
  00c95	e8 00 00 00 00	 call	 ?GetEquipItem@CMover@@QAEPAVCItemElem@@H@Z ; CMover::GetEquipItem

; 947  : 			if( pItemElem )

  00c9a	85 c0		 test	 eax, eax
  00c9c	74 09		 je	 SHORT $LN287@DoUseSkill

; 948  : 				ArrowDown( 1 );

  00c9e	6a 01		 push	 1
  00ca0	8b cb		 mov	 ecx, ebx
  00ca2	e8 00 00 00 00	 call	 ?ArrowDown@CMover@@QAEXH@Z ; CMover::ArrowDown
$LN287@DoUseSkill:

; 949  : 		}
; 950  : 
; 951  : 		if( pSkillProp->nEvildoing < 0 )		// łŞ»Ű¸¶ąýŔ¸·Î¸¸ ¸ó˝şĹÍłŞ ÇĂ·ąŔĚľî¸¦ ÂňÇŇĽöŔÖ´Ů.

  00ca7	8b 45 e0	 mov	 eax, DWORD PTR _pSkillProp$[ebp]
  00caa	83 b8 04 02 00
	00 00		 cmp	 DWORD PTR [eax+516], 0
  00cb1	7d 12		 jge	 SHORT $LN158@DoUseSkill

; 952  : 		{
; 953  : 			pTarget->SetJJim( this );			// pTarget¸¦ ÂňÇß´Ů´Â°É ÇĄ˝Ă.

  00cb3	53		 push	 ebx
  00cb4	8b cf		 mov	 ecx, edi
  00cb6	e8 00 00 00 00	 call	 ?SetJJim@CMover@@QAEXPAV1@@Z ; CMover::SetJJim

; 954  : 			m_nAtkCnt = 1;						// şřŔÚ·ç µô·ąŔĚ¸¦ Ŕ§ÇŃ °ř°Ý Ä«żîĹÍ ˝ĂŔŰ.

  00cbb	c7 83 a8 06 00
	00 01 00 00 00	 mov	 DWORD PTR [ebx+1704], 1
$LN158@DoUseSkill:

; 955  : 		}
; 956  : 
; 957  : 		// DST paramŔĚ ŔűżëµÇ´Â ˝şĹłŔş ż©±âĽ­ ŔűżëÇÔ.
; 958  : 		g_UserMng.AddUseSkill( this, dwSkill, nLevel, idFocusObj, sutType, nCastingTime );

  00cc5	ff 75 1c	 push	 DWORD PTR _nCastingTime$[ebp]
  00cc8	b9 00 00 00 00	 mov	 ecx, OFFSET ?g_UserMng@@3VCUserMng@@A ; g_UserMng
  00ccd	ff 75 14	 push	 DWORD PTR _sutType$[ebp]
  00cd0	ff 75 cc	 push	 DWORD PTR _idFocusObj$GSCopy$1$[ebp]
  00cd3	ff 75 0c	 push	 DWORD PTR _nLevel$[ebp]
  00cd6	56		 push	 esi
  00cd7	53		 push	 ebx
  00cd8	e8 00 00 00 00	 call	 ?AddUseSkill@CUserMng@@QAEXPAVCMover@@KKKHH@Z ; CUserMng::AddUseSkill

; 959  : 	#endif	// __WORLDSERVER
; 960  : 	} 

  00cdd	eb 52		 jmp	 SHORT $LN159@DoUseSkill
$LN146@DoUseSkill:

; 892  : 		} 
; 893  : 		else
; 894  : 		{									// ŔĎąÝŔűŔÎ ¸¶ąý ˝şĹł »çżë - Äł˝şĆĂ µżŔŰ ŔÖŔ˝.
; 895  : 			dwMsg = OBJMSG_MAGICCASTING;

  00cdf	be 27 00 00 00	 mov	 esi, 39			; 00000027H

; 896  : 		}
; 897  : 	}

  00ce4	eb 1f		 jmp	 SHORT $LN244@DoUseSkill
$LN132@DoUseSkill:

; 898  : 	else
; 899  : 		Error( "DoUseSkill : %s dwSkillType = %d", m_szName, pSkillProp->dwSkillType );	// ÇÁ·ÎĆŰĆĽ°ŞŔĚ ŔĚ»óÇÔ.

  00ce6	50		 push	 eax
  00ce7	8d 83 ec 14 00
	00		 lea	 eax, DWORD PTR [ebx+5356]
  00ced	50		 push	 eax
  00cee	68 00 00 00 00	 push	 OFFSET ??_C@_0CB@HOKPNGH@DoUseSkill?5?3?5?$CFs?5dwSkillType?5?$DN?5?$CF@
  00cf3	e8 00 00 00 00	 call	 ?Error@@YAPBDPBDZZ	; Error
  00cf8	83 c4 0c	 add	 esp, 12			; 0000000cH
$LN133@DoUseSkill:

; 900  : 
; 901  : 	if( sutType != SUT_QUEUEING && nCastingTime == 0 && pSkillProp->dwID != SI_GEN_ATK_COUNTER )

  00cfb	83 7d 14 02	 cmp	 DWORD PTR _sutType$[ebp], 2
  00cff	0f 84 b3 fe ff
	ff		 je	 $LN294@DoUseSkill
$LN244@DoUseSkill:
  00d05	8b 55 1c	 mov	 edx, DWORD PTR _nCastingTime$[ebp]
  00d08	85 d2		 test	 edx, edx
  00d0a	0f 85 ab fe ff
	ff		 jne	 $LN148@DoUseSkill
  00d10	8b 45 e0	 mov	 eax, DWORD PTR _pSkillProp$[ebp]
  00d13	81 38 df 00 00
	00		 cmp	 DWORD PTR [eax], 223	; 000000dfH
  00d19	0f 84 9c fe ff
	ff		 je	 $LN148@DoUseSkill

; 902  : 		nMotion += 2;

  00d1f	83 45 dc 02	 add	 DWORD PTR _nMotion$1$[ebp], 2
  00d23	e9 93 fe ff ff	 jmp	 $LN148@DoUseSkill
$LN149@DoUseSkill:

; 961  : 	else if( nRet == -2 )	// 0:ĹĄżˇ ˝×´Â´Ů -1:¸đ¸§  -2:żĎŔü˝ÇĆĐÇĎż© ĂëĽŇ˝ĂĹ´   -3:¸đ¸§

  00d28	83 f8 fe	 cmp	 eax, -2			; fffffffeH
  00d2b	0f 84 89 f4 ff
	ff		 je	 $LN254@DoUseSkill
$LN159@DoUseSkill:

; 962  : 	{
; 963  : 		return FALSE;
; 964  : 	}
; 965  : 	
; 966  : 	m_dwFlag |= MVRF_SKILL;		// ˝şĹł»çżë ¸í·ÉŔĚ ˝ĂŔŰµĆ´Ů.

  00d31	83 8b 44 02 00
	00 01		 or	 DWORD PTR [ebx+580], 1

; 967  : #ifdef __CLIENT
; 968  : 	if( IsActiveMover() )		// g_pPlayerŔĎ°ćżě 
; 969  : 	{
; 970  : 		CWndTaskBar* pTaskBar = g_WndMng.m_pWndTaskBar;
; 971  : 		if( pTaskBar->m_nExecute == 1 )		// ˝şĹłąŮ »çżë ´ë±âÁß»óĹÂż´Ŕ¸¸é
; 972  : 			pTaskBar->m_nExecute = 2;		// ˝ÇÁ¦ ˝şĹłąŮ »çżëÁßŔ¸·Î ŔüČŻ.
; 973  : 	}
; 974  : #endif
; 975  : 
; 976  : #ifdef __CLIENT
; 977  : 	{
; 978  : 		DWORD dwLinkSfxDouble = NULL_ID;
; 979  : 		switch( dwSkill )
; 980  : 		{	// ż©±â´Ů XI_ Ăß°ˇÇĎ¸é CreateSfxŔÇ CSfxPartsLink()żˇµµ Ăß°ˇ˝ĂÄŃľß ÇÔ/
; 981  : 		case SI_BLD_DOUBLEAX_SPRINGATTACK:	dwLinkSfxDouble = XI_SKILL_BLD_DOUBLEAX_SPRINGATTACK01;	break;
; 982  : 		case SI_BLD_DOUBLE_SONICBLADE:		dwLinkSfxDouble = XI_SKILL_BLD_DOUBLE_SONICBLADE01;	break;
; 983  : 		case SI_KNT_TWOSW_CHARGE:			dwLinkSfxDouble = XI_SKILL_KNT_TWOSW_CHARGE01;	break;
; 984  : 		case SI_BLD_DOUBLESW_BLADEDANCE:	dwLinkSfxDouble = XI_SKILL_BLD_DOUBLESW_BLADEDANCE01;      break;
; 985  : 
; 986  : 		// Á¦˝şĹÍ ľçĽŐ ŔĚĆĺĆ® : sfxÇÁ·ąŔÓŔĚ łˇŔĚ¸é ĽŇ¸ęÇÔ
; 987  : 		case SI_JST_YOYO_VATALSTAB:	dwLinkSfxDouble = XI_SKILL_JST_YOYO_VATALSTAB01;	break;
; 988  : 		case SI_JST_YOYO_HITOFPENYA:	dwLinkSfxDouble = XI_SKILL_JST_YOYO_HITOFPENYA01;	break;
; 989  : 
; 990  : 		case SI_JST_YOYO_CRITICALSWING:	dwLinkSfxDouble = XI_SKILL_JST_SUP_CRITICALSWING01;	break;
; 991  : 		case SI_ACR_SUP_SLOWSTEP:	dwLinkSfxDouble = XI_SKILL_ACR_YOYO_SLOWSTEP01;	break;
; 992  : 		case SI_JST_SUP_POISON:		dwLinkSfxDouble = XI_SKILL_JST_SUP_POISON01;	break;
; 993  : 		case SI_JST_SUP_BLEEDING:	dwLinkSfxDouble = XI_SKILL_JST_SUP_BLEEDING01;	break;
; 994  : 		case SI_JST_YOYO_BACKSTAB:	dwLinkSfxDouble = XI_SKILL_JST_YOYO_BACKSTAB01;	break;
; 995  : 		case SI_JST_SUP_ABSORB:	dwLinkSfxDouble = XI_SKILL_JST_SUP_ABSORB01;	break;
; 996  : 			break;
; 997  : 		}
; 998  : 		if( dwLinkSfxDouble != NULL_ID )
; 999  : 		{
; 1000 : 			CSfx *pSfx = CreateSfx( g_Neuz.m_pd3dDevice, dwLinkSfxDouble, GetPos(), GetId() );  // ˝ĂŔüµżŔŰŔĚ±â¶§ą®żˇ ą«Á¶°Ç ŔÚ±âżˇ°Ô łŞĹ¸ł­´Ů.
; 1001 : 			if( pSfx )
; 1002 : 			{
; 1003 : 				pSfx->SetPartLink( 0 );		// żŔ¸ĄĽŐżˇ ¸µĹ©.
; 1004 : 				pSfx = CreateSfx( g_Neuz.m_pd3dDevice, dwLinkSfxDouble, GetPos(), GetId() );  // ¸µĹ©ŔĚĆĺ ÇĎłŞ´ő »ýĽş.
; 1005 : 				if( pSfx )
; 1006 : 					pSfx->SetPartLink( 1 );		// ĽŐżˇ ¸µĹ©.
; 1007 : 			}
; 1008 : 		}
; 1009 : 	}
; 1010 : 
; 1011 : 	// żŢĽŐ ¸µĹ© ŔĚĆĺ
; 1012 : 	DWORD dwLinkSfxLeft = NULL_ID;
; 1013 : 	switch( dwSkill )
; 1014 : 	{	// ľĆĹ©·ÎşŞ ˝şĹłŔĚ¸é Č° ˝ĂŔü ŔĚĆĺĆ® żŢĽŐżˇ ¸µĹ©ÇŃ´Ů
; 1015 : 	case SI_RAG_BOW_ICEARROW:	dwLinkSfxLeft = XI_SKILL_RAG_BOW_ICEARROW01;	break;
; 1016 : 	case SI_ACR_BOW_JUNKBOW:	dwLinkSfxLeft = XI_SKILL_ACR_BOW_JUNKBOW01;	break;
; 1017 : 	case SI_ACR_BOW_AIMEDSHOT:	dwLinkSfxLeft = XI_SKILL_ACR_BOW_AIMEDSHOT01;	break;
; 1018 : 	case SI_ACR_BOW_SILENTSHOT:	dwLinkSfxLeft = XI_SKILL_ACR_BOW_SILENTSHOT01;	break;
; 1019 : 	case SI_ACR_BOW_ARROWRAIN:	dwLinkSfxLeft = XI_SKILL_ACR_BOW_ARROWRAIN01;      break;
; 1020 : 	case SI_ACR_BOW_AUTOSHOT:	dwLinkSfxLeft = XI_SKILL_ACR_BOW_AUTOSHOT01;      break;
; 1021 : 		
; 1022 : 	case SI_RAG_SUP_FASTATTACK:	  dwLinkSfxLeft = XI_SKILL_RAG_SUP_FASTATTACK01;break;
; 1023 : 	case SI_RAG_BOW_FLAMEARROW:	  dwLinkSfxLeft = XI_SKILL_RAG_BOW_FLAMEARROW01;break;
; 1024 : 	case SI_RAG_BOW_PIRCINGARROW: dwLinkSfxLeft = XI_SKILL_RAG_BOW_PIRCINGARROW01;break;
; 1025 : 	case SI_RAG_BOW_POISONARROW:  dwLinkSfxLeft = XI_SKILL_RAG_BOW_POISONARROW01;break;
; 1026 : 	case SI_RAG_BOW_SILENTARROW:  dwLinkSfxLeft = XI_SKILL_RAG_BOW_SILENTARROW01;break;
; 1027 : 	case SI_RAG_BOW_TRIPLESHOT:   dwLinkSfxLeft = XI_SKILL_RAG_BOW_TRIPLESHOT01;break;
; 1028 : 		
; 1029 : 		break;
; 1030 : 	}
; 1031 : 	
; 1032 : 	if( dwLinkSfxLeft != NULL_ID )
; 1033 : 	{
; 1034 : 		CSfx *pSfx = CreateSfx( g_Neuz.m_pd3dDevice, dwLinkSfxLeft, GetPos(), GetId() );  // ˝ĂŔüµżŔŰŔĚ±â¶§ą®żˇ ą«Á¶°Ç ŔÚ±âżˇ°Ô łŞĹ¸ł­´Ů.
; 1035 : 		if( pSfx )
; 1036 : 			pSfx->SetPartLink( 1 );		// żŢĽŐżˇ ¸µĹ©.
; 1037 : 	}
; 1038 : 
; 1039 : 	// żŔ¸ĄĽŐ ¸µĹ© ŔĚĆĺ
; 1040 : 	DWORD dwLinkSfxRight = NULL_ID;
; 1041 : 	switch( dwSkill )
; 1042 : 	{
; 1043 : 	case SI_MER_ONE_SPLMASH: dwLinkSfxRight = XI_SKILL_MER_ONE_SUPPORT04; break;
; 1044 : 	case SI_MER_ONE_GUILOTINE: dwLinkSfxRight = XI_SKILL_MER_ONE_SUPPORT02; break;
; 1045 : 	case SI_MER_ONE_REFLEXHIT: dwLinkSfxRight = XI_SKILL_MER_ONE_SUPPORT01; break;
; 1046 : 	case SI_MER_ONE_SPECIALHIT: dwLinkSfxRight = XI_SKILL_MER_ONE_SUPPORT03; break;
; 1047 : 	case SI_ASS_KNU_POWERFIST:	dwLinkSfxRight = XI_SKILL_ASS_KNU_SUPPORT03;	break;
; 1048 : 	case SI_ASS_KNU_TAMPINGHOLE:	dwLinkSfxRight = XI_SKILL_ASS_KNU_SUPPORT02;	break;
; 1049 : 	case SI_ASS_KNU_BURSTCRACK:	dwLinkSfxRight = XI_SKILL_ASS_KNU_SUPPORT01;	break;
; 1050 : 	case SI_GEN_ATK_COUNTER:	dwLinkSfxRight = XI_SKILL_JST_YOYO_BACKSTAB01;	break;
; 1051 : 		break;
; 1052 : 	}
; 1053 : 	
; 1054 : 	if( dwLinkSfxRight != NULL_ID )
; 1055 : 	{
; 1056 : 		CSfx *pSfx = CreateSfx( g_Neuz.m_pd3dDevice, dwLinkSfxRight, GetPos(), GetId() );  // ˝ĂŔüµżŔŰŔĚ±â¶§ą®żˇ ą«Á¶°Ç ŔÚ±âżˇ°Ô łŞĹ¸ł­´Ů.
; 1057 : 		if( pSfx )
; 1058 : 			pSfx->SetPartLink( 0 );		// żŔ¸ĄĽŐżˇ ¸µĹ©.
; 1059 : 	}
; 1060 : 
; 1061 : 	// ¸¶ąý Č¤Ŕş ŔüĹő˝şĹłŔÇ ąßµż˝ĂŔŰ ŔĚĆĺĆ®ąß»ý
; 1062 : 	// ŔÚ±âid GetId()
; 1063 : 	// Ĺ¸°Ůid idFocusObj
; 1064 : 	if( pSkillProp->dwSfxObj != NULL_ID )
; 1065 : 	{
; 1066 : 		CreateSfx( g_Neuz.m_pd3dDevice, pSkillProp->dwSfxObj, GetPos(), GetId() );  // ˝ĂŔüµżŔŰŔĚ±â¶§ą®żˇ ą«Á¶°Ç ŔÚ±âżˇ°Ô łŞĹ¸ł­´Ů.
; 1067 : 	}	
; 1068 : 	// °ř°Ý˝şĹł°ú Ĺ¸°ŮŔĚ ¸ó˝şĹÍ ŔĚ¸é Č­¸éżˇ Ăâ·ÂŔ» ľČÇÔ
; 1069 : 	if( pSkillProp->dwExeTarget != EXT_MELEEATK && 
; 1070 : 		pSkillProp->dwExeTarget != EXT_MAGICATK && 
; 1071 : 		pSkillProp->dwExeTarget != EXT_AROUNDATK &&  
; 1072 : 		pSkillProp->dwExeTarget != EXT_MAGICATKSHOT && 
; 1073 : 		pTarget->IsPlayer() )
; 1074 : 	{
; 1075 : 		CString str;
; 1076 : 		if( this == g_pPlayer ) // ł»°ˇ ľ´°Í
; 1077 : 		{
; 1078 : 			str.Format( prj.GetText( TID_GAME_SKILL_SELF ), pSkillProp->szName );
; 1079 : 			g_WndMng.PutString( (LPCTSTR)str, NULL, prj.GetTextColor( TID_GAME_SKILL_SELF ) );	
; 1080 : 		}
; 1081 : 		else
; 1082 : 		if( pTarget == g_pPlayer && ( this != pTarget || pSkillProp->dwID == SI_ASS_CHEER_CIRCLEHEALING ) ) // ł»°ˇ ľ´°ÍŔĚ ľĆ´Ď¶ó¸é
; 1083 : 		{
; 1084 : 			str.Format( prj.GetText( TID_GAME_SKILL_MATE ), GetName(), pSkillProp->szName );
; 1085 : 			g_WndMng.PutString( (LPCTSTR)str, NULL, prj.GetTextColor( TID_GAME_SKILL_MATE ) );	
; 1086 : 		}
; 1087 : 	}
; 1088 : #endif	// __CLIENT
; 1089 : 
; 1090 : #ifdef __CLIENT	
; 1091 : 	if( ::GetLanguage() == LANG_JAP )
; 1092 : 	{
; 1093 : 		if( g_pPlayer )
; 1094 : 		{
; 1095 : 			if( g_Option.m_bVoice )
; 1096 : 			{
; 1097 : 				if( IsActiveMover() )
; 1098 : 				{
; 1099 : 					int nindex = 0;
; 1100 : 					
; 1101 : 					if( pSkillProp->dwID != -1 )
; 1102 : 					{
; 1103 : 						if( GetSex() == 0 )
; 1104 : 							nindex = pSkillProp->dwID+3000;
; 1105 : 						else
; 1106 : 							nindex = pSkillProp->dwID+3500;
; 1107 : 
; 1108 : 						g_SoundMng.m_nOldSoundVolume = g_SoundMng.m_nSoundVolume;
; 1109 : 						g_SoundMng.m_nSoundVolume = 0;
; 1110 : 						PLAYSND( nindex );
; 1111 : 
; 1112 : 						g_SoundMng.m_nSoundVolume = g_SoundMng.m_nOldSoundVolume;
; 1113 : 					}
; 1114 : 				}
; 1115 : 			}
; 1116 : 		}
; 1117 : 	}
; 1118 : #endif	// __CLIENT
; 1119 : 
; 1120 : #if __VER >= 8 // __S8_PK
; 1121 : #ifdef __WORLDSERVER
; 1122 : 	if( g_eLocal.GetState( EVE_PK ) )

  00d38	b9 00 00 00 00	 mov	 ecx, OFFSET ?g_eLocal@@3VCFlyffEvent@@A ; g_eLocal
  00d3d	6a 0b		 push	 11			; 0000000bH
  00d3f	e8 00 00 00 00	 call	 ?GetState@CFlyffEvent@@QAEEH@Z ; CFlyffEvent::GetState
  00d44	84 c0		 test	 al, al
  00d46	74 56		 je	 SHORT $LN161@DoUseSkill
; File C:\IAGOS\server\v18\Source\Source\_Common\Mover.h

; 1257 : 	BOOL			IsChaotic( void ) { return m_dwPKPropensity > 0; }	/// Ä«żŔŔÎÁö

  00d48	83 bb 58 07 00
	00 00		 cmp	 DWORD PTR [ebx+1880], 0
; File C:\IAGOS\server\v18\Source\Source\_Common\MoverSkill.cpp

; 1124 : 		if( !IsChaotic() && ( pTarget->IsPKPink() || ( pTarget->IsChaotic() && pSkillProp->nEvildoing > 0 ) ) )

  00d4f	77 4d		 ja	 SHORT $LN161@DoUseSkill
; File C:\IAGOS\server\v18\Source\Source\_Common\Mover.h

; 1256 : 	BOOL			IsPKPink( void )	{ return m_dwPKTime > 0; }			/// PK ÇÎĹ© ¸đµĺŔÎÁö

  00d51	83 bf 50 07 00
	00 00		 cmp	 DWORD PTR [edi+1872], 0
; File C:\IAGOS\server\v18\Source\Source\_Common\MoverSkill.cpp

; 1124 : 		if( !IsChaotic() && ( pTarget->IsPKPink() || ( pTarget->IsChaotic() && pSkillProp->nEvildoing > 0 ) ) )

  00d58	77 15		 ja	 SHORT $LN162@DoUseSkill
; File C:\IAGOS\server\v18\Source\Source\_Common\Mover.h

; 1257 : 	BOOL			IsChaotic( void ) { return m_dwPKPropensity > 0; }	/// Ä«żŔŔÎÁö

  00d5a	83 bf 58 07 00
	00 00		 cmp	 DWORD PTR [edi+1880], 0
; File C:\IAGOS\server\v18\Source\Source\_Common\MoverSkill.cpp

; 1124 : 		if( !IsChaotic() && ( pTarget->IsPKPink() || ( pTarget->IsChaotic() && pSkillProp->nEvildoing > 0 ) ) )

  00d61	76 3b		 jbe	 SHORT $LN161@DoUseSkill
  00d63	8b 45 e0	 mov	 eax, DWORD PTR _pSkillProp$[ebp]
  00d66	83 b8 04 02 00
	00 00		 cmp	 DWORD PTR [eax+516], 0
  00d6d	7e 2f		 jle	 SHORT $LN161@DoUseSkill
$LN162@DoUseSkill:

; 1125 : 		{
; 1126 : 			SetPKPink( GetTickCount() + SEC(prj.m_PKSetting.nReadyAttack) );

  00d6f	69 35 7c 4b 0b
	00 e8 03 00 00	 imul	 esi, DWORD PTR ?prj@@3VCProject@@A+740220, 1000
  00d79	ff 15 00 00 00
	00		 call	 DWORD PTR __imp__GetTickCount@0
  00d7f	03 c6		 add	 eax, esi
; File C:\IAGOS\server\v18\Source\Source\_Common\Mover.h

; 1254 : 	void			SetPKPink( DWORD dwTime ) { if( dwTime == 0 || m_dwPKTime < dwTime ) m_dwPKTime = dwTime; }

  00d81	74 08		 je	 SHORT $LN249@DoUseSkill
  00d83	39 83 50 07 00
	00		 cmp	 DWORD PTR [ebx+1872], eax
  00d89	73 06		 jae	 SHORT $LN219@DoUseSkill
$LN249@DoUseSkill:
  00d8b	89 83 50 07 00
	00		 mov	 DWORD PTR [ebx+1872], eax
$LN219@DoUseSkill:
; File C:\IAGOS\server\v18\Source\Source\_Common\MoverSkill.cpp

; 1127 : 			g_UserMng.AddPKPink( this, 1 );	

  00d91	6a 01		 push	 1
  00d93	53		 push	 ebx
  00d94	b9 00 00 00 00	 mov	 ecx, OFFSET ?g_UserMng@@3VCUserMng@@A ; g_UserMng
  00d99	e8 00 00 00 00	 call	 ?AddPKPink@CUserMng@@QAEXPAVCMover@@E@Z ; CUserMng::AddPKPink
$LN161@DoUseSkill:

; 1128 : 		}
; 1129 : 	}
; 1130 : #endif // __WORLDSERVER
; 1131 : #endif // __VER >= 8 // __S8_PK
; 1132 : 	
; 1133 : 	return TRUE;
; 1134 : }

  00d9e	8b 4d fc	 mov	 ecx, DWORD PTR __$ArrayPad$[ebp]
  00da1	b8 01 00 00 00	 mov	 eax, 1
  00da6	5f		 pop	 edi
  00da7	5e		 pop	 esi
  00da8	33 cd		 xor	 ecx, ebp
  00daa	5b		 pop	 ebx
  00dab	e8 00 00 00 00	 call	 @__security_check_cookie@4
  00db0	8b e5		 mov	 esp, ebp
  00db2	5d		 pop	 ebp
  00db3	c2 18 00	 ret	 24			; 00000018H
  00db6	66 90		 npad	 2
$LN275@DoUseSkill:
  00db8	00 00 00 00	 DD	 $LN73@DoUseSkill
  00dbc	00 00 00 00	 DD	 $LN70@DoUseSkill
  00dc0	00 00 00 00	 DD	 $LN57@DoUseSkill
  00dc4	00 00 00 00	 DD	 $LN67@DoUseSkill
  00dc8	00 00 00 00	 DD	 $LN293@DoUseSkill
$LN274@DoUseSkill:
  00dcc	00		 DB	 0
  00dcd	01		 DB	 1
  00dce	04		 DB	 4
  00dcf	04		 DB	 4
  00dd0	04		 DB	 4
  00dd1	04		 DB	 4
  00dd2	04		 DB	 4
  00dd3	04		 DB	 4
  00dd4	04		 DB	 4
  00dd5	04		 DB	 4
  00dd6	04		 DB	 4
  00dd7	04		 DB	 4
  00dd8	04		 DB	 4
  00dd9	04		 DB	 4
  00dda	04		 DB	 4
  00ddb	04		 DB	 4
  00ddc	04		 DB	 4
  00ddd	04		 DB	 4
  00dde	04		 DB	 4
  00ddf	04		 DB	 4
  00de0	04		 DB	 4
  00de1	04		 DB	 4
  00de2	04		 DB	 4
  00de3	04		 DB	 4
  00de4	04		 DB	 4
  00de5	04		 DB	 4
  00de6	04		 DB	 4
  00de7	04		 DB	 4
  00de8	04		 DB	 4
  00de9	04		 DB	 4
  00dea	04		 DB	 4
  00deb	04		 DB	 4
  00dec	04		 DB	 4
  00ded	04		 DB	 4
  00dee	04		 DB	 4
  00def	04		 DB	 4
  00df0	04		 DB	 4
  00df1	04		 DB	 4
  00df2	04		 DB	 4
  00df3	02		 DB	 2
  00df4	04		 DB	 4
  00df5	04		 DB	 4
  00df6	03		 DB	 3
?DoUseSkill@CMover@@QAEHKHKW4SKILLUSETYPE@@HH@Z ENDP	; CMover::DoUseSkill
_TEXT	ENDS
; Function compile flags: /Ogtp
; File C:\IAGOS\server\v18\Source\Source\_Common\Mover.h
;	COMDAT ?IsDie@CMover@@QAEHXZ
_TEXT	SEGMENT
?IsDie@CMover@@QAEHXZ PROC				; CMover::IsDie, COMDAT
; _this$ = ecx

; 1250 : 	BOOL			IsDie() { return m_pActMover->IsDie() || m_nHitPoint == 0; }

  00000	8b 81 38 02 00
	00		 mov	 eax, DWORD PTR [ecx+568]
  00006	f7 40 04 00 00
	00 08		 test	 DWORD PTR [eax+4], 134217728 ; 08000000H
  0000d	75 0c		 jne	 SHORT $LN3@IsDie
  0000f	83 b9 f8 05 00
	00 00		 cmp	 DWORD PTR [ecx+1528], 0
  00016	74 03		 je	 SHORT $LN3@IsDie
  00018	33 c0		 xor	 eax, eax
  0001a	c3		 ret	 0
$LN3@IsDie:
  0001b	b8 01 00 00 00	 mov	 eax, 1
  00020	c3		 ret	 0
?IsDie@CMover@@QAEHXZ ENDP				; CMover::IsDie
_TEXT	ENDS
; Function compile flags: /Ogtp
; File C:\IAGOS\server\v18\Source\Source\_Common\MoverSkill.cpp
;	COMDAT ?OnEndSkillState@CMover@@QAEXKK@Z
_TEXT	SEGMENT
_pSkillProp$ = -4					; size = 4
_dwSkill$ = 8						; size = 4
_pAddSkillProp$ = 8					; size = 4
_dwLevel$ = 12						; size = 4
?OnEndSkillState@CMover@@QAEXKK@Z PROC			; CMover::OnEndSkillState, COMDAT
; _this$ = ecx

; 1140 : {

  00000	55		 push	 ebp
  00001	8b ec		 mov	 ebp, esp
  00003	51		 push	 ecx
  00004	56		 push	 esi
  00005	57		 push	 edi

; 1141 : 	if( dwSkill < 0 || (int)( dwSkill ) > prj.m_aPropSkill.GetSize() )

  00006	8b 7d 08	 mov	 edi, DWORD PTR _dwSkill$[ebp]
  00009	8b f1		 mov	 esi, ecx
  0000b	3b 3d 64 02 00
	00		 cmp	 edi, DWORD PTR ?prj@@3VCProject@@A+612
  00011	0f 8f 91 00 00
	00		 jg	 $LN3@OnEndSkill

; 1144 : 		return;
; 1145 : 	}
; 1146 : 	ItemProp* pSkillProp = NULL;
; 1147 : 	AddSkillProp *pAddSkillProp = NULL;
; 1148 : 	GetSkillProp( &pSkillProp, &pAddSkillProp, dwSkill, dwLevel, "OnEndSkillState" );

  00017	8b 06		 mov	 eax, DWORD PTR [esi]
  00019	8d 4d 08	 lea	 ecx, DWORD PTR _pAddSkillProp$[ebp]
  0001c	68 00 00 00 00	 push	 OFFSET ??_C@_0BA@LLKPHDJP@OnEndSkillState@
  00021	ff 75 0c	 push	 DWORD PTR _dwLevel$[ebp]
  00024	c7 45 fc 00 00
	00 00		 mov	 DWORD PTR _pSkillProp$[ebp], 0
  0002b	57		 push	 edi
  0002c	51		 push	 ecx
  0002d	8d 4d fc	 lea	 ecx, DWORD PTR _pSkillProp$[ebp]
  00030	c7 45 08 00 00
	00 00		 mov	 DWORD PTR _pAddSkillProp$[ebp], 0
  00037	51		 push	 ecx
  00038	8b ce		 mov	 ecx, esi
  0003a	ff 50 30	 call	 DWORD PTR [eax+48]

; 1149 : 
; 1150 : 	if( dwSkill == SI_ACR_YOYO_COUNTER )	// Ä«żîĹÍ ľîĹĂ˝şĹłŔÇ °ćżě

  0003d	81 ff cc 00 00
	00		 cmp	 edi, 204		; 000000ccH
  00043	75 3c		 jne	 SHORT $LN4@OnEndSkill

; 1151 : 	{
; 1152 : 		m_pActMover->ResetState( OBJSTA_ATK_ALL );		// °ř°ÝµżŔŰ Áß´Ü˝ĂĹ´.  (ŔĚ·± ĆĐĹĎŔÇ ˝şĹłŔş ľŐŔ¸·Î ŔĎąÝČ­ ˝ĂĹ°ŔÚ)

  00045	8b 8e 38 02 00
	00		 mov	 ecx, DWORD PTR [esi+568]
  0004b	68 00 00 ff 00	 push	 16711680		; 00ff0000H
  00050	e8 00 00 00 00	 call	 ?ResetState@CAction@@QAEXK@Z ; CAction::ResetState
$LN5@OnEndSkill:

; 1190 : 	else
; 1191 : #endif // __3RD_LEGEND16
; 1192 : 	{
; 1193 : 		ResetDestParam( pAddSkillProp->dwDestParam1, pAddSkillProp->nAdjParamVal1, bSend );

  00055	8b 45 08	 mov	 eax, DWORD PTR _pAddSkillProp$[ebp]
  00058	8b ce		 mov	 ecx, esi
  0005a	6a 01		 push	 1
  0005c	ff 70 2c	 push	 DWORD PTR [eax+44]
  0005f	ff 70 24	 push	 DWORD PTR [eax+36]
  00062	e8 00 00 00 00	 call	 ?ResetDestParam@CMover@@QAEXHHH@Z ; CMover::ResetDestParam

; 1194 : 		ResetDestParam( pAddSkillProp->dwDestParam2, pAddSkillProp->nAdjParamVal2, bSend );

  00067	8b 45 08	 mov	 eax, DWORD PTR _pAddSkillProp$[ebp]
  0006a	8b ce		 mov	 ecx, esi
  0006c	6a 01		 push	 1
  0006e	ff 70 30	 push	 DWORD PTR [eax+48]
  00071	ff 70 28	 push	 DWORD PTR [eax+40]
  00074	e8 00 00 00 00	 call	 ?ResetDestParam@CMover@@QAEXHHH@Z ; CMover::ResetDestParam
  00079	5f		 pop	 edi

; 1195 : 	}
; 1196 : #endif
; 1197 : 
; 1198 : 
; 1199 : }

  0007a	5e		 pop	 esi
  0007b	8b e5		 mov	 esp, ebp
  0007d	5d		 pop	 ebp
  0007e	c2 08 00	 ret	 8
$LN4@OnEndSkill:

; 1153 : 	}
; 1154 : #if defined( __CLIENT ) 
; 1155 : /*	// 091022 mirchang - ÇÁ·ÎĹŘĽÇ, ĆćąŮ¸®ľî ˝şĹł ąöÇÁ ÇŘÁ¦ ˝Ă sfx »čÁ¦
; 1156 : 	#if __VER >= 11 // __MA_VER11_06				// Č®Ŕ˛˝şĹł Čż°úĽöÁ¤ world,neuz
; 1157 : 	if(	dwSkill == SI_MAG_FIRE_HOTAIR)
; 1158 : 	{
; 1159 : 		SetRemoveSfxObj( pSkillProp->dwSfxObj2 );
; 1160 : //		CSfx *pSfx = prj.GetSfx((this)->m_dwObjID,
; 1161 : //		if(pSfx)
; 1162 : //			pSfx->m_nSec = 0;	
; 1163 : 	}
; 1164 : 	if(	dwSkill == SI_PSY_HERO_STONE)
; 1165 : 	{
; 1166 : 		SetRemoveSfxObj( pSkillProp->dwSfxObj4 );
; 1167 : 	}
; 1168 : 	#endif // __MA_VER11_06				// Č®Ŕ˛˝şĹł Čż°úĽöÁ¤ world,neuz
; 1169 : */	// 091022 mirchang - ÇÁ·ÎĹŘĽÇ, ĆćąŮ¸®ľî ˝şĹł ąöÇÁ ÇŘÁ¦ ˝Ă sfx »čÁ¦
; 1170 : 	switch( dwSkill )	// 091022 mirchang - ÇÁ·ÎĹŘĽÇ, ĆćąŮ¸®ľî ˝şĹł ąöÇÁ ÇŘÁ¦ ˝Ă sfx »čÁ¦
; 1171 : 	{
; 1172 : 		case SI_MAG_FIRE_HOTAIR :
; 1173 : 			SetRemoveSfxObj( pSkillProp->dwSfxObj2 );
; 1174 : 			break;
; 1175 : 		case SI_PSY_HERO_STONE :
; 1176 : 		case SI_MER_SHIELD_PANBARRIER:
; 1177 : 		case SI_MER_SHIELD_PROTECTION:
; 1178 : 			SetRemoveSfxObj( pSkillProp->dwSfxObj4 );
; 1179 : 			break;
; 1180 : 	}
; 1181 :   #endif	// 
; 1182 : 
; 1183 : 	BOOL	bSend = FALSE;
; 1184 : #ifdef __WORLDSERVER
; 1185 : 	bSend = TRUE;			// Ľ­ąöŔĎ°ćżě ŔŻŔúµéżˇ°Ô ş¸ł»ÁÜ.
; 1186 : 
; 1187 : #ifdef __3RD_LEGEND16
; 1188 : 	if( dwSkill == SI_FLO_SUP_ABSOLUTE )

  00081	81 ff a5 01 00
	00		 cmp	 edi, 421		; 000001a5H
  00087	75 cc		 jne	 SHORT $LN5@OnEndSkill

; 1189 : 		ResetDestParam( DST_IGNORE_DMG_PVP, GetParam( DST_IGNORE_DMG_PVP, 0), bSend );

  00089	6a 01		 push	 1
  0008b	6a 00		 push	 0
  0008d	6a 5e		 push	 94			; 0000005eH
  0008f	8b ce		 mov	 ecx, esi
  00091	e8 00 00 00 00	 call	 ?GetParam@CMover@@QAEHHH@Z ; CMover::GetParam
  00096	50		 push	 eax
  00097	6a 5e		 push	 94			; 0000005eH
  00099	8b ce		 mov	 ecx, esi
  0009b	e8 00 00 00 00	 call	 ?ResetDestParam@CMover@@QAEXHHH@Z ; CMover::ResetDestParam
  000a0	5f		 pop	 edi

; 1195 : 	}
; 1196 : #endif
; 1197 : 
; 1198 : 
; 1199 : }

  000a1	5e		 pop	 esi
  000a2	8b e5		 mov	 esp, ebp
  000a4	5d		 pop	 ebp
  000a5	c2 08 00	 ret	 8
$LN3@OnEndSkill:

; 1142 : 	{
; 1143 : 		Error( "OnEndSkillState : ˝şĹłŔÇ ąüŔ§¸¦ łŃľîĽ¶. %d", dwSkill );

  000a8	57		 push	 edi
  000a9	68 00 00 00 00	 push	 OFFSET ??_C@_0CL@ILELHNJ@OnEndSkillState?5?3?5?$LN?$LK?E?$LD?$MA?G?5?$LJ?$PM?$MA?$KH?$LI?$KG@
  000ae	e8 00 00 00 00	 call	 ?Error@@YAPBDPBDZZ	; Error
  000b3	83 c4 08	 add	 esp, 8
  000b6	5f		 pop	 edi

; 1195 : 	}
; 1196 : #endif
; 1197 : 
; 1198 : 
; 1199 : }

  000b7	5e		 pop	 esi
  000b8	8b e5		 mov	 esp, ebp
  000ba	5d		 pop	 ebp
  000bb	c2 08 00	 ret	 8
?OnEndSkillState@CMover@@QAEXKK@Z ENDP			; CMover::OnEndSkillState
_TEXT	ENDS
; Function compile flags: /Ogtp
; File C:\IAGOS\server\v18\Source\Source\_Common\Mover.h
; File C:\IAGOS\server\v18\Source\Source\_Common\Project.h
; File C:\IAGOS\server\v18\Source\Source\_Common\Mover.h
; File C:\IAGOS\server\v18\Source\Source\_Common\Project.h
; File C:\IAGOS\server\v18\Source\Source\_Common\Mover.h
;	COMDAT ?GetPropA@CMover@@QAEPAUMoverProp@@XZ
_TEXT	SEGMENT
?GetPropA@CMover@@QAEPAUMoverProp@@XZ PROC		; CMover::GetPropA, COMDAT
; _this$ = ecx

; 1020 : 	MoverProp*		GetProp() { return prj.GetMoverProp( m_dwIndex ); }	// °´ĂĽŔÇ ÇÁ·ÎĆŰĆĽ ľň±â 	

  00000	8b 81 74 01 00
	00		 mov	 eax, DWORD PTR [ecx+372]
; File C:\IAGOS\server\v18\Source\Source\_Common\Project.h

; 1406 : 	VERIFY_RANGE( nIndex, 0, m_nMoverPropSize, "GetMoverProp range_error", NULL );

  00006	8b 0d b4 01 00
	00		 mov	 ecx, DWORD PTR ?prj@@3VCProject@@A+436
  0000c	85 c0		 test	 eax, eax
  0000e	78 11		 js	 SHORT $LN8@GetPropA
  00010	3b c1		 cmp	 eax, ecx
  00012	7d 0d		 jge	 SHORT $LN8@GetPropA

; 1407 : 	return m_pPropMover + nIndex;

  00014	69 c0 90 06 00
	00		 imul	 eax, eax, 1680
  0001a	03 05 b8 01 00
	00		 add	 eax, DWORD PTR ?prj@@3VCProject@@A+440
; File C:\IAGOS\server\v18\Source\Source\_Common\Mover.h

; 1020 : 	MoverProp*		GetProp() { return prj.GetMoverProp( m_dwIndex ); }	// °´ĂĽŔÇ ÇÁ·ÎĆŰĆĽ ľň±â 	

  00020	c3		 ret	 0
$LN8@GetPropA:
; File C:\IAGOS\server\v18\Source\Source\_Common\Project.h

; 579  : 	LPCTSTR szErr = Error( _T( "%s min:%d, max:%d, index:%d" ), szMsg, nMin, nMax, nIndex ); 

  00021	50		 push	 eax
  00022	51		 push	 ecx
  00023	6a 00		 push	 0
  00025	68 00 00 00 00	 push	 OFFSET ??_C@_0BJ@GKPOBPPI@GetMoverProp?5range_error@
  0002a	68 00 00 00 00	 push	 OFFSET ??_C@_0BM@HMFGHCP@?$CFs?5min?3?$CFd?0?5max?3?$CFd?0?5index?3?$CFd@
  0002f	e8 00 00 00 00	 call	 ?Error@@YAPBDPBDZZ	; Error
  00034	83 c4 14	 add	 esp, 20			; 00000014H
; File C:\IAGOS\server\v18\Source\Source\_Common\Mover.h

; 1020 : 	MoverProp*		GetProp() { return prj.GetMoverProp( m_dwIndex ); }	// °´ĂĽŔÇ ÇÁ·ÎĆŰĆĽ ľň±â 	

  00037	33 c0		 xor	 eax, eax
  00039	c3		 ret	 0
?GetPropA@CMover@@QAEPAUMoverProp@@XZ ENDP		; CMover::GetPropA
_TEXT	ENDS
; Function compile flags: /Ogtp
; File C:\IAGOS\server\v18\Source\Source\_Common\MoverSkill.cpp
;	COMDAT ?GetReuseDelay@CMover@@QAEKH@Z
_TEXT	SEGMENT
_nIndex$ = 8						; size = 4
?GetReuseDelay@CMover@@QAEKH@Z PROC			; CMover::GetReuseDelay, COMDAT
; _this$ = ecx

; 4206 : {

  00000	55		 push	 ebp
  00001	8b ec		 mov	 ebp, esp
  00003	56		 push	 esi
  00004	57		 push	 edi
  00005	8b f1		 mov	 esi, ecx

; 4207 : 	ASSERT( nIndex >= 0 );	
; 4208 : 
; 4209 : 	DWORD dwCur = ::timeGetTime();

  00007	ff 15 00 00 00
	00		 call	 DWORD PTR __imp__timeGetTime@0

; 4210 : 	if( dwCur > m_tmReUseDelay[nIndex] )	// Áľ·á˝Ă°˘ ş¸´Ů ÇöŔç ˝Ă°˘ŔĚ Ĺ©¸é 

  0000d	8b 55 08	 mov	 edx, DWORD PTR _nIndex$[ebp]
  00010	8b f8		 mov	 edi, eax
  00012	8b 8c 96 fc 04
	00 00		 mov	 ecx, DWORD PTR [esi+edx*4+1276]
  00019	8b c1		 mov	 eax, ecx
  0001b	2b c7		 sub	 eax, edi
  0001d	33 d2		 xor	 edx, edx
  0001f	3b f9		 cmp	 edi, ecx

; 4211 : 		return 0;								// µô·ąŔĚ ľř´Ů.

  00021	5f		 pop	 edi
  00022	0f 47 c2	 cmova	 eax, edx
  00025	5e		 pop	 esi

; 4212 : 	else									// ľĆ´Ď¸é 
; 4213 : 		return m_tmReUseDelay[nIndex] - dwCur;	// Áľ·á˝Ă°˘ - ÇöŔç˝Ă°˘ 
; 4214 : }

  00026	5d		 pop	 ebp
  00027	c2 04 00	 ret	 4
?GetReuseDelay@CMover@@QAEKH@Z ENDP			; CMover::GetReuseDelay
_TEXT	ENDS
; Function compile flags: /Ogtp
; File C:\IAGOS\server\v18\Source\Source\_Common\MoverSkill.cpp
; File C:\IAGOS\server\v18\Source\Source\_Common\Obj.h
; File C:\IAGOS\server\v18\Source\Source\_Common\MoverSkill.cpp
;	COMDAT ?InactivateBarunaPet@CMover@@QAEXXZ
_TEXT	SEGMENT
?InactivateBarunaPet@CMover@@QAEXXZ PROC		; CMover::InactivateBarunaPet, COMDAT
; _this$ = ecx

; 4555 : {

  00000	56		 push	 esi
  00001	8b f1		 mov	 esi, ecx

; 4556 : 	CMover* pBarunaPet		= prj.GetMover( GetEatPetId() );

  00003	b9 00 00 00 00	 mov	 ecx, OFFSET ?prj@@3VCProject@@A ; prj
  00008	ff b6 74 06 00
	00		 push	 DWORD PTR [esi+1652]
  0000e	e8 00 00 00 00	 call	 ?GetMover@CProject@@QAEPAVCMover@@K@Z ; CProject::GetMover
; File C:\IAGOS\server\v18\Source\Source\_Common\Obj.h

; 327  : 	return pObj && ( pObj->IsDelete() == FALSE ); 

  00013	85 c0		 test	 eax, eax
  00015	74 0d		 je	 SHORT $LN2@Inactivate

; 180  : 	BOOL			IsDelete()	{ return (m_dwFlags & OBJ_FLAG_DELETE);  }

  00017	f6 40 04 01	 test	 BYTE PTR [eax+4], 1

; 327  : 	return pObj && ( pObj->IsDelete() == FALSE ); 

  0001b	75 07		 jne	 SHORT $LN2@Inactivate
; File C:\IAGOS\server\v18\Source\Source\_Common\MoverSkill.cpp

; 4559 : 		pBarunaPet->Delete();

  0001d	8b c8		 mov	 ecx, eax
  0001f	e8 00 00 00 00	 call	 ?Delete@CObj@@QAEXXZ	; CObj::Delete
$LN2@Inactivate:

; 4560 : 	}
; 4561 : 	SetEatPetId( NULL_ID );
; 4562 : 	static_cast<CUser*>(this)->AddActivateBarunaPet( NULL_ID, NULL_ID, FALSE );

  00024	6a 00		 push	 0
  00026	6a ff		 push	 -1
  00028	6a ff		 push	 -1
  0002a	8b ce		 mov	 ecx, esi
  0002c	c7 86 74 06 00
	00 ff ff ff ff	 mov	 DWORD PTR [esi+1652], -1
  00036	e8 00 00 00 00	 call	 ?AddActivateBarunaPet@CUser@@QAEXKKH@Z ; CUser::AddActivateBarunaPet
  0003b	5e		 pop	 esi

; 4563 : }

  0003c	c3		 ret	 0
?InactivateBarunaPet@CMover@@QAEXXZ ENDP		; CMover::InactivateBarunaPet
_TEXT	ENDS
; Function compile flags: /Ogtp
; File C:\IAGOS\server\v18\Source\Source\_Common\MoverSkill.cpp
; File C:\IAGOS\server\v18\Source\Source\_Common\Mover.h
; File C:\IAGOS\server\v18\Source\Source\_Common\MoverSkill.cpp
; File C:\IAGOS\server\v18\Source\Source\_Common\Mover.h
; File C:\IAGOS\server\v18\Source\Source\_Common\MoverSkill.cpp
; File C:\IAGOS\server\v18\Source\Source\_Common\Mover.h
; File C:\IAGOS\server\v18\Source\Source\_Common\Project.h
; File C:\IAGOS\server\v18\Source\Source\_Common\MoverSkill.cpp
; File C:\IAGOS\server\v18\Source\Source\_Common\Item.h
; File C:\IAGOS\server\v18\Source\Source\_Common\Project.h
; File C:\IAGOS\server\v18\Source\Source\_Common\data.h
; File C:\IAGOS\server\v18\Source\Source\_Common\MoverSkill.cpp
; File C:\IAGOS\server\v18\Source\Source\_Common\Obj.h
; File C:\IAGOS\server\v18\Source\Source\_Common\MoverSkill.cpp
; File C:\IAGOS\server\v18\Source\Source\_Common\Obj.h
; File C:\IAGOS\server\v18\Source\Source\_Common\MoverSkill.cpp
; File C:\IAGOS\server\v18\Source\Source\_Common\Obj.h
; File C:\IAGOS\server\v18\Source\Source\_Common\MoverSkill.cpp
; File C:\IAGOS\server\v18\Source\Source\_Common\Project.h
; File C:\IAGOS\server\v18\Source\Source\_Common\MoverSkill.cpp
;	COMDAT ?DoUseBarunaPet@CMover@@QAEXPAVCItemElem@@@Z
_TEXT	SEGMENT
_pItemElem$GSCopy$1$ = -36				; size = 4
_szCharacterKey$2 = -32					; size = 4
$T3 = -28						; size = 12
__$ArrayPad$ = -16					; size = 4
__$EHRec$ = -12						; size = 12
_pItemElem$ = 8						; size = 4
?DoUseBarunaPet@CMover@@QAEXPAVCItemElem@@@Z PROC	; CMover::DoUseBarunaPet, COMDAT
; _this$ = ecx

; 4489 : {

  00000	55		 push	 ebp
  00001	8b ec		 mov	 ebp, esp
  00003	6a ff		 push	 -1
  00005	68 00 00 00 00	 push	 __ehhandler$?DoUseBarunaPet@CMover@@QAEXPAVCItemElem@@@Z
  0000a	64 a1 00 00 00
	00		 mov	 eax, DWORD PTR fs:0
  00010	50		 push	 eax
  00011	83 ec 18	 sub	 esp, 24			; 00000018H
  00014	a1 00 00 00 00	 mov	 eax, DWORD PTR ___security_cookie
  00019	33 c5		 xor	 eax, ebp
  0001b	89 45 f0	 mov	 DWORD PTR __$ArrayPad$[ebp], eax
  0001e	53		 push	 ebx
  0001f	56		 push	 esi
  00020	57		 push	 edi
  00021	50		 push	 eax
  00022	8d 45 f4	 lea	 eax, DWORD PTR __$EHRec$[ebp]
  00025	64 a3 00 00 00
	00		 mov	 DWORD PTR fs:0, eax
  0002b	8b f1		 mov	 esi, ecx
; File C:\IAGOS\server\v18\Source\Source\_Common\Mover.h

; 806  : 	BOOL	HasActivatedEatPet( void )		{	return m_oiEatPet != NULL_ID;	}

  0002d	8b 86 74 06 00
	00		 mov	 eax, DWORD PTR [esi+1652]
; File C:\IAGOS\server\v18\Source\Source\_Common\MoverSkill.cpp

; 4489 : {

  00033	8b 4d 08	 mov	 ecx, DWORD PTR _pItemElem$[ebp]
  00036	89 4d dc	 mov	 DWORD PTR _pItemElem$GSCopy$1$[ebp], ecx
; File C:\IAGOS\server\v18\Source\Source\_Common\Mover.h

; 806  : 	BOOL	HasActivatedEatPet( void )		{	return m_oiEatPet != NULL_ID;	}

  00039	83 f8 ff	 cmp	 eax, -1
; File C:\IAGOS\server\v18\Source\Source\_Common\MoverSkill.cpp

; 4490 : 	if( HasActivatedEatPet() )

  0003c	74 67		 je	 SHORT $LN6@DoUseBarun

; 4491 : 	{
; 4492 : 		CMover* pPet = prj.GetMover( GetEatPetId() );

  0003e	50		 push	 eax
  0003f	b9 00 00 00 00	 mov	 ecx, OFFSET ?prj@@3VCProject@@A ; prj
  00044	e8 00 00 00 00	 call	 ?GetMover@CProject@@QAEPAVCMover@@K@Z ; CProject::GetMover

; 4493 : 		if( pPet && pPet->GetProp()->dwAI == AII_NONE )

  00049	85 c0		 test	 eax, eax
  0004b	74 4c		 je	 SHORT $LN5@DoUseBarun
; File C:\IAGOS\server\v18\Source\Source\_Common\Mover.h

; 1020 : 	MoverProp*		GetProp() { return prj.GetMoverProp( m_dwIndex ); }	// °´ĂĽŔÇ ÇÁ·ÎĆŰĆĽ ľň±â 	

  0004d	8b 80 74 01 00
	00		 mov	 eax, DWORD PTR [eax+372]
; File C:\IAGOS\server\v18\Source\Source\_Common\Project.h

; 1406 : 	VERIFY_RANGE( nIndex, 0, m_nMoverPropSize, "GetMoverProp range_error", NULL );

  00053	8b 0d b4 01 00
	00		 mov	 ecx, DWORD PTR ?prj@@3VCProject@@A+436
  00059	85 c0		 test	 eax, eax
  0005b	78 12		 js	 SHORT $LN41@DoUseBarun
  0005d	3b c1		 cmp	 eax, ecx
  0005f	7d 0e		 jge	 SHORT $LN41@DoUseBarun

; 1407 : 	return m_pPropMover + nIndex;

  00061	69 c0 90 06 00
	00		 imul	 eax, eax, 1680
  00067	03 05 b8 01 00
	00		 add	 eax, DWORD PTR ?prj@@3VCProject@@A+440
  0006d	eb 18		 jmp	 SHORT $LN36@DoUseBarun
$LN41@DoUseBarun:

; 579  : 	LPCTSTR szErr = Error( _T( "%s min:%d, max:%d, index:%d" ), szMsg, nMin, nMax, nIndex ); 

  0006f	50		 push	 eax
  00070	51		 push	 ecx
  00071	6a 00		 push	 0
  00073	68 00 00 00 00	 push	 OFFSET ??_C@_0BJ@GKPOBPPI@GetMoverProp?5range_error@
  00078	68 00 00 00 00	 push	 OFFSET ??_C@_0BM@HMFGHCP@?$CFs?5min?3?$CFd?0?5max?3?$CFd?0?5index?3?$CFd@
  0007d	e8 00 00 00 00	 call	 ?Error@@YAPBDPBDZZ	; Error
  00082	83 c4 14	 add	 esp, 20			; 00000014H

; 1406 : 	VERIFY_RANGE( nIndex, 0, m_nMoverPropSize, "GetMoverProp range_error", NULL );

  00085	33 c0		 xor	 eax, eax
$LN36@DoUseBarun:
; File C:\IAGOS\server\v18\Source\Source\_Common\MoverSkill.cpp

; 4493 : 		if( pPet && pPet->GetProp()->dwAI == AII_NONE )

  00087	83 78 48 00	 cmp	 DWORD PTR [eax+72], 0
  0008b	75 0c		 jne	 SHORT $LN5@DoUseBarun

; 4494 : 		{
; 4495 : 			InactivateBarunaPet();

  0008d	8b ce		 mov	 ecx, esi
  0008f	e8 00 00 00 00	 call	 ?InactivateBarunaPet@CMover@@QAEXXZ ; CMover::InactivateBarunaPet

; 4496 : 			return;

  00094	e9 76 01 00 00	 jmp	 $LN10@DoUseBarun
$LN5@DoUseBarun:

; 4497 : 		}
; 4498 : 		else
; 4499 : 		{
; 4500 : 			InactivateEatPet();

  00099	8b ce		 mov	 ecx, esi
  0009b	e8 00 00 00 00	 call	 ?InactivateEatPet@CMover@@QAEXXZ ; CMover::InactivateEatPet

; 4501 : 			return;

  000a0	e9 6a 01 00 00	 jmp	 $LN10@DoUseBarun
$LN6@DoUseBarun:
; File C:\IAGOS\server\v18\Source\Source\_Common\Item.h

; 230  : 	ItemProp*	GetProp()	{	return prj.GetItemProp( m_dwItemId );	}

  000a5	8b 49 0c	 mov	 ecx, DWORD PTR [ecx+12]
; File C:\IAGOS\server\v18\Source\Source\_Common\Project.h

; 1389 : 	VERIFY_RANGE_ASSERT( nIndex, 0, m_aPropItem.GetSize(), "GetItemProp range_error", NULL );

  000a8	a1 40 02 00 00	 mov	 eax, DWORD PTR ?prj@@3VCProject@@A+576
  000ad	85 c9		 test	 ecx, ecx
  000af	0f 88 44 01 00
	00		 js	 $LN27@DoUseBarun
  000b5	3b c8		 cmp	 ecx, eax
  000b7	0f 8d 3c 01 00
	00		 jge	 $LN27@DoUseBarun
; File C:\IAGOS\server\v18\Source\Source\_Common\data.h

; 270  : 	if( dwIndex >= (DWORD)m_nMaxIndex )

  000bd	72 04		 jb	 SHORT $LN32@DoUseBarun

; 271  : 		return NULL;

  000bf	33 ff		 xor	 edi, edi
  000c1	eb 08		 jmp	 SHORT $LN31@DoUseBarun
$LN32@DoUseBarun:

; 272  : 	return (T*) m_apOffset[ dwIndex ];

  000c3	a1 30 02 00 00	 mov	 eax, DWORD PTR ?prj@@3VCProject@@A+560
  000c8	8b 3c 88	 mov	 edi, DWORD PTR [eax+ecx*4]
$LN31@DoUseBarun:
; File C:\IAGOS\server\v18\Source\Source\_Common\MoverSkill.cpp

; 4506 : 	if( !pProp )

  000cb	85 ff		 test	 edi, edi
  000cd	0f 84 3c 01 00
	00		 je	 $LN10@DoUseBarun

; 4507 : 		return;
; 4508 : 
; 4509 : #ifdef __QUIZ
; 4510 : 	if( GetWorld() && GetWorld()->GetID() == WI_WORLD_QUIZ )

  000d3	8b 8e 6c 01 00
	00		 mov	 ecx, DWORD PTR [esi+364]
  000d9	85 c9		 test	 ecx, ecx
  000db	74 0c		 je	 SHORT $LN8@DoUseBarun
  000dd	81 39 d3 00 00
	00		 cmp	 DWORD PTR [ecx], 211	; 000000d3H
  000e3	0f 84 26 01 00
	00		 je	 $LN10@DoUseBarun
$LN8@DoUseBarun:

; 4511 : 		return;
; 4512 : #endif // __QUIZ
; 4513 : 
; 4514 : 	if( IsFly() )

  000e9	8b 86 38 02 00
	00		 mov	 eax, DWORD PTR [esi+568]
  000ef	f6 40 08 08	 test	 BYTE PTR [eax+8], 8
  000f3	74 11		 je	 SHORT $LN9@DoUseBarun

; 4515 : 	{
; 4516 : 		static_cast<CUser*>( this )->AddDefinedText( TID_GAME_CANNOT_CALL_PET_ON_FLYING );

  000f5	68 8a 0c 00 00	 push	 3210			; 00000c8aH
  000fa	8b ce		 mov	 ecx, esi
  000fc	e8 00 00 00 00	 call	 ?AddDefinedText@CUser@@QAEXH@Z ; CUser::AddDefinedText

; 4517 : 		return;

  00101	e9 09 01 00 00	 jmp	 $LN10@DoUseBarun
$LN9@DoUseBarun:
; File C:\IAGOS\server\v18\Source\Source\_Common\Obj.h

; 215  : 	D3DXVECTOR3		GetPos()	{ return m_vPos; }

  00106	8b 86 68 01 00
	00		 mov	 eax, DWORD PTR [esi+360]
; File C:\IAGOS\server\v18\Source\Source\_Common\MoverSkill.cpp

; 4520 : 	CMover *pBarunaPet	= CreateMover( GetWorld(), pProp->dwLinkKind, GetPos(), GetLayer() );

  0010c	ff b6 b8 01 00
	00		 push	 DWORD PTR [esi+440]
; File C:\IAGOS\server\v18\Source\Source\_Common\Obj.h

; 215  : 	D3DXVECTOR3		GetPos()	{ return m_vPos; }

  00112	f3 0f 7e 86 60
	01 00 00	 movq	 xmm0, QWORD PTR [esi+352]
  0011a	89 45 ec	 mov	 DWORD PTR $T3[ebp+8], eax
; File C:\IAGOS\server\v18\Source\Source\_Common\MoverSkill.cpp

; 4520 : 	CMover *pBarunaPet	= CreateMover( GetWorld(), pProp->dwLinkKind, GetPos(), GetLayer() );

  0011d	8d 45 e4	 lea	 eax, DWORD PTR $T3[ebp]
  00120	50		 push	 eax
  00121	ff b7 e0 00 00
	00		 push	 DWORD PTR [edi+224]
; File C:\IAGOS\server\v18\Source\Source\_Common\Obj.h

; 215  : 	D3DXVECTOR3		GetPos()	{ return m_vPos; }

  00127	66 0f d6 45 e4	 movq	 QWORD PTR $T3[ebp], xmm0
; File C:\IAGOS\server\v18\Source\Source\_Common\MoverSkill.cpp

; 4520 : 	CMover *pBarunaPet	= CreateMover( GetWorld(), pProp->dwLinkKind, GetPos(), GetLayer() );

  0012c	51		 push	 ecx
  0012d	e8 00 00 00 00	 call	 ?CreateMover@@YAPAVCMover@@PAVCWorld@@KABUD3DXVECTOR3@@H@Z ; CreateMover
  00132	8b d8		 mov	 ebx, eax
  00134	83 c4 10	 add	 esp, 16			; 00000010H

; 4521 : 
; 4522 : 	if( pBarunaPet )

  00137	85 db		 test	 ebx, ebx
  00139	0f 84 d0 00 00
	00		 je	 $LN10@DoUseBarun

; 4523 : 	{
; 4524 : 		CString szCharacterKey;

  0013f	8d 4d e0	 lea	 ecx, DWORD PTR _szCharacterKey$2[ebp]
  00142	e8 00 00 00 00	 call	 ??0?$CStringT@DV?$StrTraitMFC@DV?$ChTraitsCRT@D@ATL@@@@@ATL@@QAE@XZ ; ATL::CStringT<char,StrTraitMFC<char,ATL::ChTraitsCRT<char> > >::CStringT<char,StrTraitMFC<char,ATL::ChTraitsCRT<char> > >

; 4525 : 		switch( pProp->dwLinkKind )

  00147	8b 8f e0 00 00
	00		 mov	 ecx, DWORD PTR [edi+224]
  0014d	81 c1 3c fb ff
	ff		 add	 ecx, -1220		; fffffb3cH
  00153	c7 45 fc 00 00
	00 00		 mov	 DWORD PTR __$EHRec$[ebp+8], 0
  0015a	81 f9 db 00 00
	00		 cmp	 ecx, 219		; 000000dbH
  00160	77 23		 ja	 SHORT $LN15@DoUseBarun
  00162	0f b6 81 00 00
	00 00		 movzx	 eax, BYTE PTR $LN53@DoUseBarun[ecx]
  00169	ff 24 85 00 00
	00 00		 jmp	 DWORD PTR $LN54@DoUseBarun[eax*4]
$LN12@DoUseBarun:

; 4526 : 		{
; 4527 : 		case MI_PET_SMELTPIYO:
; 4528 : 			szCharacterKey = "Pet_Seltpiyo";
; 4529 : 			break;
; 4530 : 		case MI_PET_SMELTUDI:
; 4531 : 			szCharacterKey = "Pet_Seltpudi";

  00170	b8 00 00 00 00	 mov	 eax, OFFSET ??_C@_0N@BOLHNAPJ@Pet_Seltpudi@

; 4532 : 			break;

  00175	eb 13		 jmp	 SHORT $LN2@DoUseBarun
$LN13@DoUseBarun:

; 4533 : 		case MI_PET_SMELTCOBI:
; 4534 : 			szCharacterKey = "Pet_Seltcobi";

  00177	b8 00 00 00 00	 mov	 eax, OFFSET ??_C@_0N@CNOPGOC@Pet_Seltcobi@

; 4535 : 			break;

  0017c	eb 0c		 jmp	 SHORT $LN2@DoUseBarun
$LN14@DoUseBarun:

; 4536 : 		case MI_PET_SMELTPIERCE:
; 4537 : 			szCharacterKey = "Pet_Seltpierce";

  0017e	b8 00 00 00 00	 mov	 eax, OFFSET ??_C@_0P@NPNKEHMC@Pet_Seltpierce@

; 4538 : 			break;

  00183	eb 05		 jmp	 SHORT $LN2@DoUseBarun
$LN15@DoUseBarun:

; 4539 : 		default:
; 4540 : 			szCharacterKey = "Pet_Seltpiyo";
; 4541 : 			break;
; 4542 : 		}
; 4543 : 
; 4544 : 		lstrcpy( pBarunaPet->m_szCharacterKey, szCharacterKey );

  00185	b8 00 00 00 00	 mov	 eax, OFFSET ??_C@_0N@EGNMKPHL@Pet_Seltpiyo@
$LN2@DoUseBarun:
  0018a	50		 push	 eax
  0018b	8d 4d e0	 lea	 ecx, DWORD PTR _szCharacterKey$2[ebp]
  0018e	e8 00 00 00 00	 call	 ??4?$CStringT@DV?$StrTraitMFC@DV?$ChTraitsCRT@D@ATL@@@@@ATL@@QAEAAV01@PBD@Z ; ATL::CStringT<char,StrTraitMFC<char,ATL::ChTraitsCRT<char> > >::operator=
  00193	ff 75 e0	 push	 DWORD PTR _szCharacterKey$2[ebp]
  00196	8d 83 44 06 00
	00		 lea	 eax, DWORD PTR [ebx+1604]
  0019c	50		 push	 eax
  0019d	ff 15 00 00 00
	00		 call	 DWORD PTR __imp__lstrcpyA@8

; 4545 : 
; 4546 : 		pBarunaPet->InitNPCProperty();

  001a3	8b cb		 mov	 ecx, ebx
  001a5	e8 00 00 00 00	 call	 ?InitNPCProperty@CMover@@QAEXXZ ; CMover::InitNPCProperty

; 4547 : 		pBarunaPet->InitCharacter( pBarunaPet->GetCharacter() );

  001aa	8b cb		 mov	 ecx, ebx
  001ac	e8 00 00 00 00	 call	 ?GetCharacter@CMover@@QAEPAUtagCHARACTER@@XZ ; CMover::GetCharacter
  001b1	50		 push	 eax
  001b2	8b cb		 mov	 ecx, ebx
  001b4	e8 00 00 00 00	 call	 ?InitCharacter@CMover@@QAEXPAUtagCHARACTER@@@Z ; CMover::InitCharacter

; 4548 : 		pBarunaPet->m_idBarunaPetOwner = GetId();
; 4549 : 		dwBarunaPetItemId = pItemElem->m_dwObjId;

  001b9	8b 4d dc	 mov	 ecx, DWORD PTR _pItemElem$GSCopy$1$[ebp]
  001bc	8b 86 bc 01 00
	00		 mov	 eax, DWORD PTR [esi+444]
  001c2	89 83 d8 14 00
	00		 mov	 DWORD PTR [ebx+5336], eax

; 4550 : 		SetEatPetId( pBarunaPet->GetId() );
; 4551 : 		static_cast<CUser*>(this)->AddActivateBarunaPet( pItemElem->m_dwObjId, pBarunaPet->GetId(), TRUE );

  001c8	6a 01		 push	 1
  001ca	8b 41 04	 mov	 eax, DWORD PTR [ecx+4]
  001cd	89 86 d4 14 00
	00		 mov	 DWORD PTR [esi+5332], eax
  001d3	8b 83 bc 01 00
	00		 mov	 eax, DWORD PTR [ebx+444]
  001d9	89 86 74 06 00
	00		 mov	 DWORD PTR [esi+1652], eax
  001df	ff b3 bc 01 00
	00		 push	 DWORD PTR [ebx+444]
  001e5	ff 71 04	 push	 DWORD PTR [ecx+4]
  001e8	8b ce		 mov	 ecx, esi
  001ea	e8 00 00 00 00	 call	 ?AddActivateBarunaPet@CUser@@QAEXKKH@Z ; CUser::AddActivateBarunaPet

; 4552 : 	}

  001ef	8d 4d e0	 lea	 ecx, DWORD PTR _szCharacterKey$2[ebp]
  001f2	e8 00 00 00 00	 call	 ??1?$CStringT@DV?$StrTraitMFC@DV?$ChTraitsCRT@D@ATL@@@@@ATL@@QAE@XZ ; ATL::CStringT<char,StrTraitMFC<char,ATL::ChTraitsCRT<char> > >::~CStringT<char,StrTraitMFC<char,ATL::ChTraitsCRT<char> > >
  001f7	eb 16		 jmp	 SHORT $LN10@DoUseBarun
$LN27@DoUseBarun:
; File C:\IAGOS\server\v18\Source\Source\_Common\Project.h

; 579  : 	LPCTSTR szErr = Error( _T( "%s min:%d, max:%d, index:%d" ), szMsg, nMin, nMax, nIndex ); 

  001f9	51		 push	 ecx
  001fa	50		 push	 eax
  001fb	6a 00		 push	 0
  001fd	68 00 00 00 00	 push	 OFFSET ??_C@_0BI@BEIFNGEL@GetItemProp?5range_error@
  00202	68 00 00 00 00	 push	 OFFSET ??_C@_0BM@HMFGHCP@?$CFs?5min?3?$CFd?0?5max?3?$CFd?0?5index?3?$CFd@
  00207	e8 00 00 00 00	 call	 ?Error@@YAPBDPBDZZ	; Error
  0020c	83 c4 14	 add	 esp, 20			; 00000014H
$LN10@DoUseBarun:
; File C:\IAGOS\server\v18\Source\Source\_Common\MoverSkill.cpp

; 4553 : }

  0020f	8b 4d f4	 mov	 ecx, DWORD PTR __$EHRec$[ebp]
  00212	64 89 0d 00 00
	00 00		 mov	 DWORD PTR fs:0, ecx
  00219	59		 pop	 ecx
  0021a	5f		 pop	 edi
  0021b	5e		 pop	 esi
  0021c	5b		 pop	 ebx
  0021d	8b 4d f0	 mov	 ecx, DWORD PTR __$ArrayPad$[ebp]
  00220	33 cd		 xor	 ecx, ebp
  00222	e8 00 00 00 00	 call	 @__security_check_cookie@4
  00227	8b e5		 mov	 esp, ebp
  00229	5d		 pop	 ebp
  0022a	c2 04 00	 ret	 4
  0022d	0f 1f 00	 npad	 3
$LN54@DoUseBarun:
  00230	00 00 00 00	 DD	 $LN15@DoUseBarun
  00234	00 00 00 00	 DD	 $LN12@DoUseBarun
  00238	00 00 00 00	 DD	 $LN13@DoUseBarun
  0023c	00 00 00 00	 DD	 $LN14@DoUseBarun
  00240	00 00 00 00	 DD	 $LN15@DoUseBarun
$LN53@DoUseBarun:
  00244	00		 DB	 0
  00245	01		 DB	 1
  00246	04		 DB	 4
  00247	04		 DB	 4
  00248	04		 DB	 4
  00249	04		 DB	 4
  0024a	04		 DB	 4
  0024b	04		 DB	 4
  0024c	04		 DB	 4
  0024d	04		 DB	 4
  0024e	04		 DB	 4
  0024f	04		 DB	 4
  00250	04		 DB	 4
  00251	04		 DB	 4
  00252	04		 DB	 4
  00253	04		 DB	 4
  00254	04		 DB	 4
  00255	04		 DB	 4
  00256	04		 DB	 4
  00257	04		 DB	 4
  00258	04		 DB	 4
  00259	04		 DB	 4
  0025a	04		 DB	 4
  0025b	04		 DB	 4
  0025c	04		 DB	 4
  0025d	04		 DB	 4
  0025e	04		 DB	 4
  0025f	04		 DB	 4
  00260	04		 DB	 4
  00261	04		 DB	 4
  00262	04		 DB	 4
  00263	04		 DB	 4
  00264	04		 DB	 4
  00265	04		 DB	 4
  00266	04		 DB	 4
  00267	04		 DB	 4
  00268	04		 DB	 4
  00269	04		 DB	 4
  0026a	04		 DB	 4
  0026b	04		 DB	 4
  0026c	04		 DB	 4
  0026d	04		 DB	 4
  0026e	04		 DB	 4
  0026f	04		 DB	 4
  00270	04		 DB	 4
  00271	04		 DB	 4
  00272	04		 DB	 4
  00273	04		 DB	 4
  00274	04		 DB	 4
  00275	04		 DB	 4
  00276	04		 DB	 4
  00277	04		 DB	 4
  00278	04		 DB	 4
  00279	04		 DB	 4
  0027a	04		 DB	 4
  0027b	04		 DB	 4
  0027c	04		 DB	 4
  0027d	04		 DB	 4
  0027e	04		 DB	 4
  0027f	04		 DB	 4
  00280	04		 DB	 4
  00281	04		 DB	 4
  00282	04		 DB	 4
  00283	04		 DB	 4
  00284	04		 DB	 4
  00285	04		 DB	 4
  00286	04		 DB	 4
  00287	04		 DB	 4
  00288	04		 DB	 4
  00289	04		 DB	 4
  0028a	04		 DB	 4
  0028b	04		 DB	 4
  0028c	04		 DB	 4
  0028d	04		 DB	 4
  0028e	04		 DB	 4
  0028f	04		 DB	 4
  00290	04		 DB	 4
  00291	04		 DB	 4
  00292	04		 DB	 4
  00293	04		 DB	 4
  00294	04		 DB	 4
  00295	04		 DB	 4
  00296	04		 DB	 4
  00297	04		 DB	 4
  00298	04		 DB	 4
  00299	04		 DB	 4
  0029a	04		 DB	 4
  0029b	04		 DB	 4
  0029c	04		 DB	 4
  0029d	04		 DB	 4
  0029e	04		 DB	 4
  0029f	04		 DB	 4
  002a0	04		 DB	 4
  002a1	04		 DB	 4
  002a2	04		 DB	 4
  002a3	04		 DB	 4
  002a4	04		 DB	 4
  002a5	04		 DB	 4
  002a6	04		 DB	 4
  002a7	04		 DB	 4
  002a8	04		 DB	 4
  002a9	04		 DB	 4
  002aa	04		 DB	 4
  002ab	04		 DB	 4
  002ac	04		 DB	 4
  002ad	04		 DB	 4
  002ae	04		 DB	 4
  002af	04		 DB	 4
  002b0	04		 DB	 4
  002b1	04		 DB	 4
  002b2	04		 DB	 4
  002b3	04		 DB	 4
  002b4	04		 DB	 4
  002b5	04		 DB	 4
  002b6	04		 DB	 4
  002b7	04		 DB	 4
  002b8	04		 DB	 4
  002b9	04		 DB	 4
  002ba	04		 DB	 4
  002bb	04		 DB	 4
  002bc	04		 DB	 4
  002bd	04		 DB	 4
  002be	04		 DB	 4
  002bf	04		 DB	 4
  002c0	04		 DB	 4
  002c1	04		 DB	 4
  002c2	04		 DB	 4
  002c3	04		 DB	 4
  002c4	04		 DB	 4
  002c5	04		 DB	 4
  002c6	04		 DB	 4
  002c7	04		 DB	 4
  002c8	04		 DB	 4
  002c9	04		 DB	 4
  002ca	04		 DB	 4
  002cb	04		 DB	 4
  002cc	04		 DB	 4
  002cd	04		 DB	 4
  002ce	04		 DB	 4
  002cf	04		 DB	 4
  002d0	04		 DB	 4
  002d1	04		 DB	 4
  002d2	04		 DB	 4
  002d3	04		 DB	 4
  002d4	04		 DB	 4
  002d5	04		 DB	 4
  002d6	04		 DB	 4
  002d7	04		 DB	 4
  002d8	04		 DB	 4
  002d9	04		 DB	 4
  002da	04		 DB	 4
  002db	04		 DB	 4
  002dc	04		 DB	 4
  002dd	04		 DB	 4
  002de	04		 DB	 4
  002df	04		 DB	 4
  002e0	04		 DB	 4
  002e1	04		 DB	 4
  002e2	04		 DB	 4
  002e3	04		 DB	 4
  002e4	04		 DB	 4
  002e5	04		 DB	 4
  002e6	04		 DB	 4
  002e7	04		 DB	 4
  002e8	04		 DB	 4
  002e9	04		 DB	 4
  002ea	04		 DB	 4
  002eb	04		 DB	 4
  002ec	04		 DB	 4
  002ed	04		 DB	 4
  002ee	04		 DB	 4
  002ef	04		 DB	 4
  002f0	04		 DB	 4
  002f1	04		 DB	 4
  002f2	04		 DB	 4
  002f3	04		 DB	 4
  002f4	04		 DB	 4
  002f5	04		 DB	 4
  002f6	04		 DB	 4
  002f7	04		 DB	 4
  002f8	04		 DB	 4
  002f9	04		 DB	 4
  002fa	04		 DB	 4
  002fb	04		 DB	 4
  002fc	04		 DB	 4
  002fd	04		 DB	 4
  002fe	04		 DB	 4
  002ff	04		 DB	 4
  00300	04		 DB	 4
  00301	04		 DB	 4
  00302	04		 DB	 4
  00303	04		 DB	 4
  00304	04		 DB	 4
  00305	04		 DB	 4
  00306	04		 DB	 4
  00307	04		 DB	 4
  00308	04		 DB	 4
  00309	04		 DB	 4
  0030a	04		 DB	 4
  0030b	04		 DB	 4
  0030c	04		 DB	 4
  0030d	04		 DB	 4
  0030e	04		 DB	 4
  0030f	04		 DB	 4
  00310	04		 DB	 4
  00311	04		 DB	 4
  00312	04		 DB	 4
  00313	04		 DB	 4
  00314	04		 DB	 4
  00315	04		 DB	 4
  00316	04		 DB	 4
  00317	04		 DB	 4
  00318	04		 DB	 4
  00319	04		 DB	 4
  0031a	04		 DB	 4
  0031b	04		 DB	 4
  0031c	04		 DB	 4
  0031d	04		 DB	 4
  0031e	02		 DB	 2
  0031f	03		 DB	 3
_TEXT	ENDS
;	COMDAT text$x
text$x	SEGMENT
__unwindfunclet$?DoUseBarunaPet@CMover@@QAEXPAVCItemElem@@@Z$0:
  00000	8d 4d e0	 lea	 ecx, DWORD PTR _szCharacterKey$2[ebp]
  00003	e9 00 00 00 00	 jmp	 ??1?$CStringT@DV?$StrTraitMFC@DV?$ChTraitsCRT@D@ATL@@@@@ATL@@QAE@XZ ; ATL::CStringT<char,StrTraitMFC<char,ATL::ChTraitsCRT<char> > >::~CStringT<char,StrTraitMFC<char,ATL::ChTraitsCRT<char> > >
  00008	cc		 int	 3
  00009	cc		 int	 3
  0000a	cc		 int	 3
  0000b	cc		 int	 3
  0000c	cc		 int	 3
__ehhandler$?DoUseBarunaPet@CMover@@QAEXPAVCItemElem@@@Z:
  0000d	90		 npad	 1
  0000e	90		 npad	 1
  0000f	8b 54 24 08	 mov	 edx, DWORD PTR [esp+8]
  00013	8d 42 0c	 lea	 eax, DWORD PTR [edx+12]
  00016	8b 4a d8	 mov	 ecx, DWORD PTR [edx-40]
  00019	33 c8		 xor	 ecx, eax
  0001b	e8 00 00 00 00	 call	 @__security_check_cookie@4
  00020	8b 4a fc	 mov	 ecx, DWORD PTR [edx-4]
  00023	33 c8		 xor	 ecx, eax
  00025	e8 00 00 00 00	 call	 @__security_check_cookie@4
  0002a	b8 00 00 00 00	 mov	 eax, OFFSET __ehfuncinfo$?DoUseBarunaPet@CMover@@QAEXPAVCItemElem@@@Z
  0002f	e9 00 00 00 00	 jmp	 ___CxxFrameHandler3
text$x	ENDS
?DoUseBarunaPet@CMover@@QAEXPAVCItemElem@@@Z ENDP	; CMover::DoUseBarunaPet
; Function compile flags: /Ogtp
; File C:\IAGOS\server\v18\Source\Source\_Common\MoverSkill.cpp
; File C:\IAGOS\server\v18\Source\Source\_Common\Item.h
; File C:\IAGOS\server\v18\Source\Source\_Common\Project.h
; File C:\IAGOS\server\v18\Source\Source\_Common\data.h
; File C:\IAGOS\server\v18\Source\Source\_Common\Project.h
; File C:\IAGOS\server\v18\Source\Source\_Common\MoverSkill.cpp
; File C:\IAGOS\server\v18\Source\Source\_Common\Item.h
; File C:\IAGOS\server\v18\Source\Source\_Common\MoverSkill.cpp
;	COMDAT ?DoUseItemFeedPocket@CMover@@QAEHPAVCItemElem@@@Z
_TEXT	SEGMENT
_nMax$1$ = -8						; size = 4
$T1 = -4						; size = 4
_pPocket$ = 8						; size = 4
?DoUseItemFeedPocket@CMover@@QAEHPAVCItemElem@@@Z PROC	; CMover::DoUseItemFeedPocket, COMDAT
; _this$ = ecx

; 4219 : {

  00000	55		 push	 ebp
  00001	8b ec		 mov	 ebp, esp
  00003	83 ec 08	 sub	 esp, 8
  00006	53		 push	 ebx

; 4220 : 	int nResult = 0;
; 4221 : 
; 4222 : #ifdef __JEFF_11_1
; 4223 : 	if( HasBuff( BUFF_ITEM, II_SYS_SYS_SCR_PET_FEED_POCKET02 ) )

  00007	68 a3 67 00 00	 push	 26531			; 000067a3H
  0000c	6a 00		 push	 0
  0000e	8b d9		 mov	 ebx, ecx
  00010	e8 00 00 00 00	 call	 ?HasBuff@CMover@@QAEHGG@Z ; CMover::HasBuff
  00015	8b cb		 mov	 ecx, ebx
  00017	85 c0		 test	 eax, eax
  00019	74 16		 je	 SHORT $LN5@DoUseItemF

; 4224 : 	{
; 4225 : 		( (CUser*)this )->AddDefinedText( TID_GAME_DONOTUSE_PETPOCKET );

  0001b	68 e4 0c 00 00	 push	 3300			; 00000ce4H
  00020	e8 00 00 00 00	 call	 ?AddDefinedText@CUser@@QAEXH@Z ; CUser::AddDefinedText

; 4226 : 		return	4;

  00025	b8 04 00 00 00	 mov	 eax, 4
  0002a	5b		 pop	 ebx

; 4266 : 	}
; 4267 : 
; 4268 : 	return nResult;
; 4269 : }

  0002b	8b e5		 mov	 esp, ebp
  0002d	5d		 pop	 ebp
  0002e	c2 04 00	 ret	 4
$LN5@DoUseItemF:
  00031	56		 push	 esi

; 4227 : 	}
; 4228 : #endif	// __JEFF_11_1
; 4229 : 	// Č°ĽşČ­ °Ë»ç
; 4230 : 	if( HasBuff( BUFF_ITEM, (WORD)( pPocket->m_dwItemId ) ) )

  00032	8b 75 08	 mov	 esi, DWORD PTR _pPocket$[ebp]
  00035	57		 push	 edi
  00036	0f b7 46 0c	 movzx	 eax, WORD PTR [esi+12]
  0003a	50		 push	 eax
  0003b	6a 00		 push	 0
  0003d	e8 00 00 00 00	 call	 ?HasBuff@CMover@@QAEHGG@Z ; CMover::HasBuff
  00042	85 c0		 test	 eax, eax
  00044	74 33		 je	 SHORT $LN6@DoUseItemF

; 4231 : 	{
; 4232 : 		if( pPocket->m_dwKeepTime != 0 )

  00046	83 be a8 00 00
	00 00		 cmp	 DWORD PTR [esi+168], 0
  0004d	74 1c		 je	 SHORT $LN8@DoUseItemF

; 4233 : 		{
; 4234 : 			RemoveBuff( BUFF_ITEM, (WORD)( pPocket->m_dwItemId ) );

  0004f	0f b7 46 0c	 movzx	 eax, WORD PTR [esi+12]
  00053	8b cb		 mov	 ecx, ebx
  00055	50		 push	 eax
  00056	6a 00		 push	 0
  00058	e8 00 00 00 00	 call	 ?RemoveBuff@CMover@@QAEXGG@Z ; CMover::RemoveBuff
  0005d	5f		 pop	 edi
  0005e	5e		 pop	 esi

; 4235 : 			nResult = 4;

  0005f	b8 04 00 00 00	 mov	 eax, 4
  00064	5b		 pop	 ebx

; 4266 : 	}
; 4267 : 
; 4268 : 	return nResult;
; 4269 : }

  00065	8b e5		 mov	 esp, ebp
  00067	5d		 pop	 ebp
  00068	c2 04 00	 ret	 4
$LN8@DoUseItemF:
  0006b	5f		 pop	 edi
  0006c	5e		 pop	 esi

; 4236 : 		}
; 4237 : 		else
; 4238 : 			nResult = 2;

  0006d	b8 02 00 00 00	 mov	 eax, 2
  00072	5b		 pop	 ebx

; 4266 : 	}
; 4267 : 
; 4268 : 	return nResult;
; 4269 : }

  00073	8b e5		 mov	 esp, ebp
  00075	5d		 pop	 ebp
  00076	c2 04 00	 ret	 4
$LN6@DoUseItemF:
; File C:\IAGOS\server\v18\Source\Source\_Common\Item.h

; 230  : 	ItemProp*	GetProp()	{	return prj.GetItemProp( m_dwItemId );	}

  00079	8b 4e 0c	 mov	 ecx, DWORD PTR [esi+12]
; File C:\IAGOS\server\v18\Source\Source\_Common\Project.h

; 1389 : 	VERIFY_RANGE_ASSERT( nIndex, 0, m_aPropItem.GetSize(), "GetItemProp range_error", NULL );

  0007c	a1 40 02 00 00	 mov	 eax, DWORD PTR ?prj@@3VCProject@@A+576
  00081	85 c9		 test	 ecx, ecx
  00083	78 10		 js	 SHORT $LN20@DoUseItemF
  00085	3b c8		 cmp	 ecx, eax
  00087	7d 0c		 jge	 SHORT $LN20@DoUseItemF
; File C:\IAGOS\server\v18\Source\Source\_Common\data.h

; 270  : 	if( dwIndex >= (DWORD)m_nMaxIndex )

  00089	73 20		 jae	 SHORT $LN50@DoUseItemF

; 271  : 		return NULL;
; 272  : 	return (T*) m_apOffset[ dwIndex ];

  0008b	a1 30 02 00 00	 mov	 eax, DWORD PTR ?prj@@3VCProject@@A+560
  00090	8b 04 88	 mov	 eax, DWORD PTR [eax+ecx*4]
; File C:\IAGOS\server\v18\Source\Source\_Common\Project.h

; 1390 : 	return m_aPropItem.GetAt( nIndex ); 

  00093	eb 18		 jmp	 SHORT $LN51@DoUseItemF
$LN20@DoUseItemF:

; 579  : 	LPCTSTR szErr = Error( _T( "%s min:%d, max:%d, index:%d" ), szMsg, nMin, nMax, nIndex ); 

  00095	51		 push	 ecx
  00096	50		 push	 eax
  00097	6a 00		 push	 0
  00099	68 00 00 00 00	 push	 OFFSET ??_C@_0BI@BEIFNGEL@GetItemProp?5range_error@
  0009e	68 00 00 00 00	 push	 OFFSET ??_C@_0BM@HMFGHCP@?$CFs?5min?3?$CFd?0?5max?3?$CFd?0?5index?3?$CFd@
  000a3	e8 00 00 00 00	 call	 ?Error@@YAPBDPBDZZ	; Error
  000a8	83 c4 14	 add	 esp, 20			; 00000014H
$LN50@DoUseItemF:
; File C:\IAGOS\server\v18\Source\Source\_Common\MoverSkill.cpp

; 4243 : 		if( pPocket->m_dwKeepTime == 0 )	// ¸¸·á ˝Ă°ŁŔĚ ĽłÁ¤µÇľî ŔÖÁö ľĘŔ¸ąÇ·Î ĂÖĂĘ »çżëŔĚ´Ů.

  000ab	33 c0		 xor	 eax, eax
$LN51@DoUseItemF:
  000ad	83 be a8 00 00
	00 00		 cmp	 DWORD PTR [esi+168], 0
  000b4	89 45 fc	 mov	 DWORD PTR $T1[ebp], eax
  000b7	75 6b		 jne	 SHORT $LN10@DoUseItemF

; 4244 : 		{
; 4245 : 			int nMax	= m_Inventory.GetMax();

  000b9	8b 83 08 0b 00
	00		 mov	 eax, DWORD PTR [ebx+2824]

; 4246 : 			CItemElem* pItemElem;
; 4247 : 			for( int i = 0 ; i < nMax; i++ )

  000bf	33 ff		 xor	 edi, edi
  000c1	89 45 f8	 mov	 DWORD PTR _nMax$1$[ebp], eax
  000c4	85 c0		 test	 eax, eax
  000c6	7e 40		 jle	 SHORT $LN32@DoUseItemF
$LN52@DoUseItemF:

; 4248 : 			{
; 4249 : 				pItemElem	= m_Inventory.GetAtId( i );

  000c8	8d 83 fc 0a 00
	00		 lea	 eax, DWORD PTR [ebx+2812]
  000ce	57		 push	 edi
  000cf	8b c8		 mov	 ecx, eax
  000d1	e8 00 00 00 00	 call	 ?GetAtId@?$CItemContainer@VCItemElem@@@@QAEPAVCItemElem@@K@Z ; CItemContainer<CItemElem>::GetAtId
  000d6	8b f0		 mov	 esi, eax

; 4253 : 					&& !pItemElem->IsFlag( CItemElem::expired )

  000d8	56		 push	 esi
  000d9	e8 00 00 00 00	 call	 ?IsUsableItem@@YAHPAVCItemBase@@@Z ; IsUsableItem
  000de	83 c4 04	 add	 esp, 4
  000e1	85 c0		 test	 eax, eax
  000e3	74 1a		 je	 SHORT $LN2@DoUseItemF
  000e5	8b 4d 08	 mov	 ecx, DWORD PTR _pPocket$[ebp]
  000e8	8b 46 0c	 mov	 eax, DWORD PTR [esi+12]
  000eb	3b 41 0c	 cmp	 eax, DWORD PTR [ecx+12]
  000ee	75 0f		 jne	 SHORT $LN2@DoUseItemF
  000f0	83 be a8 00 00
	00 00		 cmp	 DWORD PTR [esi+168], 0
  000f7	76 06		 jbe	 SHORT $LN2@DoUseItemF
; File C:\IAGOS\server\v18\Source\Source\_Common\Item.h

; 257  : 	BOOL	IsFlag( BYTE byFlag )	{	return ( m_byFlag & byFlag ) ? TRUE: FALSE;		}

  000f9	f6 46 76 01	 test	 BYTE PTR [esi+118], 1
; File C:\IAGOS\server\v18\Source\Source\_Common\MoverSkill.cpp

; 4253 : 					&& !pItemElem->IsFlag( CItemElem::expired )

  000fd	74 43		 je	 SHORT $LN30@DoUseItemF
$LN2@DoUseItemF:

; 4246 : 			CItemElem* pItemElem;
; 4247 : 			for( int i = 0 ; i < nMax; i++ )

  000ff	47		 inc	 edi
  00100	3b 7d f8	 cmp	 edi, DWORD PTR _nMax$1$[ebp]
  00103	7c c3		 jl	 SHORT $LN52@DoUseItemF
  00105	8b 75 08	 mov	 esi, DWORD PTR _pPocket$[ebp]
$LN32@DoUseItemF:

; 4260 : 				}
; 4261 : 			}
; 4262 : 			ASSERT( pProp->dwAbilityMin < 259200 );
; 4263 : 			UpdateItem( (BYTE)( pPocket->m_dwObjId ), UI_KEEPTIME, pProp->dwAbilityMin );	// 1440	// 1 days

  00108	8b 45 fc	 mov	 eax, DWORD PTR $T1[ebp]
  0010b	8b cb		 mov	 ecx, ebx
  0010d	6a 00		 push	 0
  0010f	ff b0 e4 00 00
	00		 push	 DWORD PTR [eax+228]
  00115	0f b6 46 04	 movzx	 eax, BYTE PTR [esi+4]
  00119	6a 0b		 push	 11			; 0000000bH
  0011b	50		 push	 eax
  0011c	e8 00 00 00 00	 call	 ?UpdateItem@CMover@@QAEXEDKK@Z ; CMover::UpdateItem
  00121	8b 45 fc	 mov	 eax, DWORD PTR $T1[ebp]
$LN10@DoUseItemF:

; 4264 : 		}
; 4265 : 		DoApplySkill( (CCtrl*)this, pProp, NULL );

  00124	6a 00		 push	 0
  00126	6a 00		 push	 0
  00128	6a 00		 push	 0
  0012a	6a 00		 push	 0
  0012c	6a 00		 push	 0
  0012e	50		 push	 eax
  0012f	53		 push	 ebx
  00130	8b cb		 mov	 ecx, ebx
  00132	e8 00 00 00 00	 call	 ?DoApplySkill@CCtrl@@QAEHPAV1@PAUItemProp@@PAUAddSkillProp@@_NHHH@Z ; CCtrl::DoApplySkill
  00137	5f		 pop	 edi
  00138	5e		 pop	 esi
  00139	33 c0		 xor	 eax, eax
  0013b	5b		 pop	 ebx

; 4266 : 	}
; 4267 : 
; 4268 : 	return nResult;
; 4269 : }

  0013c	8b e5		 mov	 esp, ebp
  0013e	5d		 pop	 ebp
  0013f	c2 04 00	 ret	 4
$LN30@DoUseItemF:

; 4254 : 					)
; 4255 : 				{
; 4256 : 					// ±â°ŁŔĚ ¸¸·áµÇÁö ľĘŔş µżŔĎ ľĆŔĚĹŰŔĚ Á¸ŔçÇĎż© »çżëÇŇ Ľö ľř´Ů.
; 4257 : 					( (CUser*)this )->AddDefinedText( TID_GAME_DONOTUSE_PETPOCKET, "" );

  00142	68 00 00 00 00	 push	 OFFSET ??_C@_00CNPNBAHC@@
  00147	68 e4 0c 00 00	 push	 3300			; 00000ce4H
  0014c	53		 push	 ebx
  0014d	e8 00 00 00 00	 call	 ?AddDefinedText@CUser@@QAAXHPBDZZ ; CUser::AddDefinedText
  00152	83 c4 0c	 add	 esp, 12			; 0000000cH

; 4258 : 					nResult = 4;
; 4259 : 					return nResult;

  00155	b8 04 00 00 00	 mov	 eax, 4
  0015a	5f		 pop	 edi
  0015b	5e		 pop	 esi
  0015c	5b		 pop	 ebx

; 4266 : 	}
; 4267 : 
; 4268 : 	return nResult;
; 4269 : }

  0015d	8b e5		 mov	 esp, ebp
  0015f	5d		 pop	 ebp
  00160	c2 04 00	 ret	 4
?DoUseItemFeedPocket@CMover@@QAEHPAVCItemElem@@@Z ENDP	; CMover::DoUseItemFeedPocket
_TEXT	ENDS
; Function compile flags: /Ogtp
; File C:\IAGOS\server\v18\Source\Source\_Common\MoverSkill.cpp
; File C:\IAGOS\server\v18\Source\Source\_Common\Item.h
; File C:\IAGOS\server\v18\Source\Source\_Common\MoverSkill.cpp
; File C:\IAGOS\server\v18\Source\Source\_Common\Item.h
; File C:\IAGOS\server\v18\Source\Source\_Common\MoverSkill.cpp
; File C:\IAGOS\server\v18\Source\Source\_Common\Item.h
; File C:\IAGOS\server\v18\Source\Source\_Common\MoverSkill.cpp
; File C:\IAGOS\server\v18\Source\Source\_Common\Item.h
; File C:\IAGOS\server\v18\Source\Source\_Common\MoverSkill.cpp
; File C:\IAGOS\server\v18\Source\Source\_Common\Item.h
; File C:\IAGOS\server\v18\Source\Source\_Common\MoverSkill.cpp
; File C:\IAGOS\server\v18\Source\Source\_Common\Item.h
; File C:\IAGOS\server\v18\Source\Source\_Common\MoverSkill.cpp
; File C:\IAGOS\server\v18\Source\Source\_Common\Item.h
; File C:\IAGOS\server\v18\Source\Source\_Common\MoverSkill.cpp
; File C:\IAGOS\server\v18\Source\Source\_Common\Item.h
; File C:\IAGOS\server\v18\Source\Source\_Common\MoverSkill.cpp
;	COMDAT ?IsSatisfyNeedVis@CMover@@QAEEPAVCItemElem@@PAUItemProp@@@Z
_TEXT	SEGMENT
_vecValidTable$3 = -28					; size = 12
_dwNeeds$1$sroa$85$1$ = -16				; size = 4
__$EHRec$ = -12						; size = 12
_pItemElemVisPet$ = 8					; size = 4
_dwVis$1$ = 8						; size = 4
_pItemPropVis$ = 12					; size = 4
tv228 = 12						; size = 4
?IsSatisfyNeedVis@CMover@@QAEEPAVCItemElem@@PAUItemProp@@@Z PROC ; CMover::IsSatisfyNeedVis, COMDAT
; _this$ = ecx

; 4632 : {

  00000	55		 push	 ebp
  00001	8b ec		 mov	 ebp, esp
  00003	6a ff		 push	 -1
  00005	68 00 00 00 00	 push	 __ehhandler$?IsSatisfyNeedVis@CMover@@QAEEPAVCItemElem@@PAUItemProp@@@Z
  0000a	64 a1 00 00 00
	00		 mov	 eax, DWORD PTR fs:0
  00010	50		 push	 eax
  00011	83 ec 10	 sub	 esp, 16			; 00000010H
  00014	53		 push	 ebx
  00015	56		 push	 esi
  00016	57		 push	 edi
  00017	a1 00 00 00 00	 mov	 eax, DWORD PTR ___security_cookie
  0001c	33 c5		 xor	 eax, ebp
  0001e	50		 push	 eax
  0001f	8d 45 f4	 lea	 eax, DWORD PTR __$EHRec$[ebp]
  00022	64 a3 00 00 00
	00		 mov	 DWORD PTR fs:0, eax

; 4633 : 	if( pItemPropVis )

  00028	8b 5d 0c	 mov	 ebx, DWORD PTR _pItemPropVis$[ebp]
  0002b	85 db		 test	 ebx, ebx
  0002d	0f 84 41 01 00
	00		 je	 $LN5@IsSatisfyN

; 4634 : 	{
; 4635 : 		DWORD	dwNeeds[2] = { pItemPropVis->dwReferTarget1, pItemPropVis->dwReferTarget2 };

  00033	8b 83 d8 01 00
	00		 mov	 eax, DWORD PTR [ebx+472]
  00039	8b 9b dc 01 00
	00		 mov	 ebx, DWORD PTR [ebx+476]
  0003f	89 45 f0	 mov	 DWORD PTR _dwNeeds$1$sroa$85$1$[ebp], eax

; 4636 : 		if( dwNeeds[0] == NULL_ID && dwNeeds[1] == NULL_ID )

  00042	83 f8 ff	 cmp	 eax, -1
  00045	75 1a		 jne	 SHORT $LN6@IsSatisfyN
  00047	3b d8		 cmp	 ebx, eax
  00049	75 16		 jne	 SHORT $LN6@IsSatisfyN

; 4637 : 			return SUCCSESS_NEEDVIS;

  0004b	b0 03		 mov	 al, 3

; 4656 : }

  0004d	8b 4d f4	 mov	 ecx, DWORD PTR __$EHRec$[ebp]
  00050	64 89 0d 00 00
	00 00		 mov	 DWORD PTR fs:0, ecx
  00057	59		 pop	 ecx
  00058	5f		 pop	 edi
  00059	5e		 pop	 esi
  0005a	5b		 pop	 ebx
  0005b	8b e5		 mov	 esp, ebp
  0005d	5d		 pop	 ebp
  0005e	c2 08 00	 ret	 8
$LN6@IsSatisfyN:

; 4639 : 		vector<BYTE> vecValidTable = GetValidVisTable( pItemElemVisPet );

  00061	8b 75 08	 mov	 esi, DWORD PTR _pItemElemVisPet$[ebp]
  00064	8d 45 e4	 lea	 eax, DWORD PTR _vecValidTable$3[ebp]
  00067	56		 push	 esi
  00068	50		 push	 eax
  00069	e8 00 00 00 00	 call	 ?GetValidVisTable@CMover@@QAE?AV?$vector@EV?$allocator@E@std@@@std@@PAVCItemElem@@@Z ; CMover::GetValidVisTable
; File C:\IAGOS\server\v18\Source\Source\_Common\Item.h

; 103  : 	int		GetPiercingSize()	{	return m_piercing.GetPiercingSize();		}

  0006e	8d 46 3c	 lea	 eax, DWORD PTR [esi+60]
; File C:\IAGOS\server\v18\Source\Source\_Common\MoverSkill.cpp

; 4639 : 		vector<BYTE> vecValidTable = GetValidVisTable( pItemElemVisPet );

  00071	c7 45 fc 00 00
	00 00		 mov	 DWORD PTR __$EHRec$[ebp+8], 0
; File C:\IAGOS\server\v18\Source\Source\_Common\Item.h

; 103  : 	int		GetPiercingSize()	{	return m_piercing.GetPiercingSize();		}

  00078	8b c8		 mov	 ecx, eax
  0007a	89 45 0c	 mov	 DWORD PTR tv228[ebp], eax
; File C:\IAGOS\server\v18\Source\Source\_Common\MoverSkill.cpp

; 4640 : 		for( int i=0; i<pItemElemVisPet->GetPiercingSize(); i++ )	// ÇĘżä şń˝ş°ˇ ĂćÁ·µÇÁö ľĘŔş °ćżě´Â ´É·ÂÄˇ°ˇ ŔűżëµÇÁö ľĘľŇŔ¸ąÇ·Î ´É·ÂÄˇ¸¦ »©¸é ľČµČ´Ů.

  0007d	33 ff		 xor	 edi, edi
; File C:\IAGOS\server\v18\Source\Source\_Common\Item.h

; 103  : 	int		GetPiercingSize()	{	return m_piercing.GetPiercingSize();		}

  0007f	e8 00 00 00 00	 call	 ?GetPiercingSize@CPiercing@@QAEHXZ ; CPiercing::GetPiercingSize
; File C:\IAGOS\server\v18\Source\Source\_Common\MoverSkill.cpp

; 4640 : 		for( int i=0; i<pItemElemVisPet->GetPiercingSize(); i++ )	// ÇĘżä şń˝ş°ˇ ĂćÁ·µÇÁö ľĘŔş °ćżě´Â ´É·ÂÄˇ°ˇ ŔűżëµÇÁö ľĘľŇŔ¸ąÇ·Î ´É·ÂÄˇ¸¦ »©¸é ľČµČ´Ů.

  00084	8b 75 f0	 mov	 esi, DWORD PTR _dwNeeds$1$sroa$85$1$[ebp]
  00087	85 c0		 test	 eax, eax
  00089	7e 72		 jle	 SHORT $LN34@IsSatisfyN
  0008b	0f 1f 44 00 00	 npad	 5
$LL4@IsSatisfyN:
; File C:\IAGOS\server\v18\Source\Source\_Common\Item.h

; 105  : 	DWORD	GetPiercingItem( int nth )	{	return m_piercing.GetPiercingItem( nth );	}

  00090	8b 4d 0c	 mov	 ecx, DWORD PTR tv228[ebp]
  00093	57		 push	 edi
  00094	e8 00 00 00 00	 call	 ?GetPiercingItem@CPiercing@@QAEKH@Z ; CPiercing::GetPiercingItem
; File C:\IAGOS\server\v18\Source\Source\_Common\MoverSkill.cpp

; 4642 : 			DWORD dwVis = pItemElemVisPet->GetPiercingItem( i );

  00099	89 45 08	 mov	 DWORD PTR _dwVis$1$[ebp], eax

; 4643 : 			if( dwNeeds[0] == dwVis && vecValidTable[i] == SUCCSESS_NEEDVIS && time_null() < pItemElemVisPet->GetVisKeepTime( i ) )	dwNeeds[0] = NULL_ID;

  0009c	3b f0		 cmp	 esi, eax
  0009e	75 23		 jne	 SHORT $LN38@IsSatisfyN
  000a0	8b 4d e4	 mov	 ecx, DWORD PTR _vecValidTable$3[ebp]
  000a3	80 3c 39 03	 cmp	 BYTE PTR [ecx+edi], 3
  000a7	75 1a		 jne	 SHORT $LN38@IsSatisfyN
; File C:\IAGOS\server\v18\Source\Source\_Common\Item.h

; 279  : 	time_t	GetVisKeepTime( int nth )					{ return m_piercing.GetVisKeepTime( nth ); }

  000a9	8b 4d 0c	 mov	 ecx, DWORD PTR tv228[ebp]
  000ac	57		 push	 edi
  000ad	e8 00 00 00 00	 call	 ?GetVisKeepTime@CPiercing@@QAEJH@Z ; CPiercing::GetVisKeepTime
; File C:\IAGOS\server\v18\Source\Source\_Common\MoverSkill.cpp

; 4643 : 			if( dwNeeds[0] == dwVis && vecValidTable[i] == SUCCSESS_NEEDVIS && time_null() < pItemElemVisPet->GetVisKeepTime( i ) )	dwNeeds[0] = NULL_ID;

  000b2	39 05 00 00 00
	00		 cmp	 DWORD PTR ?g_tCurrent@@3JA, eax ; g_tCurrent
  000b8	b8 ff ff ff ff	 mov	 eax, -1
  000bd	0f 4c f0	 cmovl	 esi, eax
  000c0	8b 45 08	 mov	 eax, DWORD PTR _dwVis$1$[ebp]
$LN38@IsSatisfyN:

; 4644 : 			if( dwNeeds[1] == dwVis && vecValidTable[i] == SUCCSESS_NEEDVIS && time_null() < pItemElemVisPet->GetVisKeepTime( i ) )	dwNeeds[1] = NULL_ID;

  000c3	3b d8		 cmp	 ebx, eax
  000c5	75 20		 jne	 SHORT $LN8@IsSatisfyN
  000c7	8b 45 e4	 mov	 eax, DWORD PTR _vecValidTable$3[ebp]
  000ca	80 3c 38 03	 cmp	 BYTE PTR [eax+edi], 3
  000ce	75 17		 jne	 SHORT $LN8@IsSatisfyN
; File C:\IAGOS\server\v18\Source\Source\_Common\Item.h

; 279  : 	time_t	GetVisKeepTime( int nth )					{ return m_piercing.GetVisKeepTime( nth ); }

  000d0	8b 4d 0c	 mov	 ecx, DWORD PTR tv228[ebp]
  000d3	57		 push	 edi
  000d4	e8 00 00 00 00	 call	 ?GetVisKeepTime@CPiercing@@QAEJH@Z ; CPiercing::GetVisKeepTime
; File C:\IAGOS\server\v18\Source\Source\_Common\MoverSkill.cpp

; 4644 : 			if( dwNeeds[1] == dwVis && vecValidTable[i] == SUCCSESS_NEEDVIS && time_null() < pItemElemVisPet->GetVisKeepTime( i ) )	dwNeeds[1] = NULL_ID;

  000d9	39 05 00 00 00
	00		 cmp	 DWORD PTR ?g_tCurrent@@3JA, eax ; g_tCurrent
  000df	b8 ff ff ff ff	 mov	 eax, -1
  000e4	0f 4c d8	 cmovl	 ebx, eax
$LN8@IsSatisfyN:

; 4645 : 			if( dwNeeds[0] == NULL_ID && dwNeeds[1] == NULL_ID )

  000e7	83 fe ff	 cmp	 esi, -1
  000ea	75 04		 jne	 SHORT $LN2@IsSatisfyN
  000ec	3b de		 cmp	 ebx, esi
  000ee	74 37		 je	 SHORT $LN32@IsSatisfyN
$LN2@IsSatisfyN:
; File C:\IAGOS\server\v18\Source\Source\_Common\Item.h

; 103  : 	int		GetPiercingSize()	{	return m_piercing.GetPiercingSize();		}

  000f0	8b 4d 0c	 mov	 ecx, DWORD PTR tv228[ebp]
; File C:\IAGOS\server\v18\Source\Source\_Common\MoverSkill.cpp

; 4640 : 		for( int i=0; i<pItemElemVisPet->GetPiercingSize(); i++ )	// ÇĘżä şń˝ş°ˇ ĂćÁ·µÇÁö ľĘŔş °ćżě´Â ´É·ÂÄˇ°ˇ ŔűżëµÇÁö ľĘľŇŔ¸ąÇ·Î ´É·ÂÄˇ¸¦ »©¸é ľČµČ´Ů.

  000f3	47		 inc	 edi
; File C:\IAGOS\server\v18\Source\Source\_Common\Item.h

; 103  : 	int		GetPiercingSize()	{	return m_piercing.GetPiercingSize();		}

  000f4	e8 00 00 00 00	 call	 ?GetPiercingSize@CPiercing@@QAEHXZ ; CPiercing::GetPiercingSize
; File C:\IAGOS\server\v18\Source\Source\_Common\MoverSkill.cpp

; 4640 : 		for( int i=0; i<pItemElemVisPet->GetPiercingSize(); i++ )	// ÇĘżä şń˝ş°ˇ ĂćÁ·µÇÁö ľĘŔş °ćżě´Â ´É·ÂÄˇ°ˇ ŔűżëµÇÁö ľĘľŇŔ¸ąÇ·Î ´É·ÂÄˇ¸¦ »©¸é ľČµČ´Ů.

  000f9	3b f8		 cmp	 edi, eax
  000fb	7c 93		 jl	 SHORT $LL4@IsSatisfyN
$LN34@IsSatisfyN:

; 4646 : 				return SUCCSESS_NEEDVIS;
; 4647 : 		}
; 4648 : 			
; 4649 : 		if( dwNeeds[0] != NULL_ID && dwNeeds[1] == NULL_ID )

  000fd	83 fe ff	 cmp	 esi, -1
  00100	74 45		 je	 SHORT $LN37@IsSatisfyN
  00102	83 fb ff	 cmp	 ebx, -1
  00105	75 65		 jne	 SHORT $LN12@IsSatisfyN

; 4652 : 			return FAILED_2ND_NEEDVIS;

  00107	8d 4d e4	 lea	 ecx, DWORD PTR _vecValidTable$3[ebp]
  0010a	b3 01		 mov	 bl, 1
  0010c	e8 00 00 00 00	 call	 ??1?$vector@EV?$allocator@E@std@@@std@@QAE@XZ ; std::vector<unsigned char,std::allocator<unsigned char> >::~vector<unsigned char,std::allocator<unsigned char> >
  00111	8a c3		 mov	 al, bl

; 4656 : }

  00113	8b 4d f4	 mov	 ecx, DWORD PTR __$EHRec$[ebp]
  00116	64 89 0d 00 00
	00 00		 mov	 DWORD PTR fs:0, ecx
  0011d	59		 pop	 ecx
  0011e	5f		 pop	 edi
  0011f	5e		 pop	 esi
  00120	5b		 pop	 ebx
  00121	8b e5		 mov	 esp, ebp
  00123	5d		 pop	 ebp
  00124	c2 08 00	 ret	 8
$LN32@IsSatisfyN:

; 4652 : 			return FAILED_2ND_NEEDVIS;

  00127	8d 4d e4	 lea	 ecx, DWORD PTR _vecValidTable$3[ebp]
  0012a	b3 03		 mov	 bl, 3
  0012c	e8 00 00 00 00	 call	 ??1?$vector@EV?$allocator@E@std@@@std@@QAE@XZ ; std::vector<unsigned char,std::allocator<unsigned char> >::~vector<unsigned char,std::allocator<unsigned char> >
  00131	8a c3		 mov	 al, bl

; 4656 : }

  00133	8b 4d f4	 mov	 ecx, DWORD PTR __$EHRec$[ebp]
  00136	64 89 0d 00 00
	00 00		 mov	 DWORD PTR fs:0, ecx
  0013d	59		 pop	 ecx
  0013e	5f		 pop	 edi
  0013f	5e		 pop	 esi
  00140	5b		 pop	 ebx
  00141	8b e5		 mov	 esp, ebp
  00143	5d		 pop	 ebp
  00144	c2 08 00	 ret	 8
$LN37@IsSatisfyN:

; 4650 : 			return FAILED_1ST_NEEDVIS;
; 4651 : 		else if( dwNeeds[0] == NULL_ID && dwNeeds[1] != NULL_ID )

  00147	83 fb ff	 cmp	 ebx, -1
  0014a	74 20		 je	 SHORT $LN12@IsSatisfyN

; 4652 : 			return FAILED_2ND_NEEDVIS;

  0014c	8d 4d e4	 lea	 ecx, DWORD PTR _vecValidTable$3[ebp]
  0014f	b3 02		 mov	 bl, 2
  00151	e8 00 00 00 00	 call	 ??1?$vector@EV?$allocator@E@std@@@std@@QAE@XZ ; std::vector<unsigned char,std::allocator<unsigned char> >::~vector<unsigned char,std::allocator<unsigned char> >
  00156	8a c3		 mov	 al, bl

; 4656 : }

  00158	8b 4d f4	 mov	 ecx, DWORD PTR __$EHRec$[ebp]
  0015b	64 89 0d 00 00
	00 00		 mov	 DWORD PTR fs:0, ecx
  00162	59		 pop	 ecx
  00163	5f		 pop	 edi
  00164	5e		 pop	 esi
  00165	5b		 pop	 ebx
  00166	8b e5		 mov	 esp, ebp
  00168	5d		 pop	 ebp
  00169	c2 08 00	 ret	 8
$LN12@IsSatisfyN:

; 4653 : 	}

  0016c	8d 4d e4	 lea	 ecx, DWORD PTR _vecValidTable$3[ebp]
  0016f	e8 00 00 00 00	 call	 ??1?$vector@EV?$allocator@E@std@@@std@@QAE@XZ ; std::vector<unsigned char,std::allocator<unsigned char> >::~vector<unsigned char,std::allocator<unsigned char> >
$LN5@IsSatisfyN:

; 4654 : 
; 4655 : 	return FAILED_BOTH_NEEDVIS;

  00174	32 c0		 xor	 al, al

; 4656 : }

  00176	8b 4d f4	 mov	 ecx, DWORD PTR __$EHRec$[ebp]
  00179	64 89 0d 00 00
	00 00		 mov	 DWORD PTR fs:0, ecx
  00180	59		 pop	 ecx
  00181	5f		 pop	 edi
  00182	5e		 pop	 esi
  00183	5b		 pop	 ebx
  00184	8b e5		 mov	 esp, ebp
  00186	5d		 pop	 ebp
  00187	c2 08 00	 ret	 8
_TEXT	ENDS
;	COMDAT text$x
text$x	SEGMENT
__unwindfunclet$?IsSatisfyNeedVis@CMover@@QAEEPAVCItemElem@@PAUItemProp@@@Z$0:
  00000	8d 4d e4	 lea	 ecx, DWORD PTR _vecValidTable$3[ebp]
  00003	e9 00 00 00 00	 jmp	 ??1?$vector@EV?$allocator@E@std@@@std@@QAE@XZ ; std::vector<unsigned char,std::allocator<unsigned char> >::~vector<unsigned char,std::allocator<unsigned char> >
  00008	cc		 int	 3
  00009	cc		 int	 3
  0000a	cc		 int	 3
  0000b	cc		 int	 3
  0000c	cc		 int	 3
__ehhandler$?IsSatisfyNeedVis@CMover@@QAEEPAVCItemElem@@PAUItemProp@@@Z:
  0000d	90		 npad	 1
  0000e	90		 npad	 1
  0000f	8b 54 24 08	 mov	 edx, DWORD PTR [esp+8]
  00013	8d 42 0c	 lea	 eax, DWORD PTR [edx+12]
  00016	8b 4a e0	 mov	 ecx, DWORD PTR [edx-32]
  00019	33 c8		 xor	 ecx, eax
  0001b	e8 00 00 00 00	 call	 @__security_check_cookie@4
  00020	b8 00 00 00 00	 mov	 eax, OFFSET __ehfuncinfo$?IsSatisfyNeedVis@CMover@@QAEEPAVCItemElem@@PAUItemProp@@@Z
  00025	e9 00 00 00 00	 jmp	 ___CxxFrameHandler3
text$x	ENDS
?IsSatisfyNeedVis@CMover@@QAEEPAVCItemElem@@PAUItemProp@@@Z ENDP ; CMover::IsSatisfyNeedVis
; Function compile flags: /Ogtp
; File C:\IAGOS\server\v18\Source\Source\_Common\MoverSkill.cpp
; File C:\Program Files\Microsoft Visual Studio\2022\Professional\VC\Tools\MSVC\14.44.35207\include\vector
; File C:\IAGOS\server\v18\Source\Source\_Common\Item.h
; File C:\IAGOS\server\v18\Source\Source\_Common\MoverSkill.cpp
; File C:\IAGOS\server\v18\Source\Source\_Common\Item.h
; File C:\Program Files\Microsoft Visual Studio\2022\Professional\VC\Tools\MSVC\14.44.35207\include\vector
; File C:\IAGOS\server\v18\Source\Source\_Common\MoverSkill.cpp
; File C:\Program Files\Microsoft Visual Studio\2022\Professional\VC\Tools\MSVC\14.44.35207\include\vector
; File C:\IAGOS\server\v18\Source\Source\_Common\MoverSkill.cpp
; File C:\IAGOS\server\v18\Source\Source\_Common\Item.h
; File C:\IAGOS\server\v18\Source\Source\_Common\MoverSkill.cpp
; File C:\Program Files\Microsoft Visual Studio\2022\Professional\VC\Tools\MSVC\14.44.35207\include\vector
; File C:\IAGOS\server\v18\Source\Source\_Common\MoverSkill.cpp
; File C:\Program Files\Microsoft Visual Studio\2022\Professional\VC\Tools\MSVC\14.44.35207\include\vector
; File C:\IAGOS\server\v18\Source\Source\_Common\MoverSkill.cpp
; File C:\Program Files\Microsoft Visual Studio\2022\Professional\VC\Tools\MSVC\14.44.35207\include\vector
; File C:\IAGOS\server\v18\Source\Source\_Common\MoverSkill.cpp
; File C:\Program Files\Microsoft Visual Studio\2022\Professional\VC\Tools\MSVC\14.44.35207\include\vector
; File C:\IAGOS\server\v18\Source\Source\_Common\MoverSkill.cpp
; File C:\Program Files\Microsoft Visual Studio\2022\Professional\VC\Tools\MSVC\14.44.35207\include\vector
; File C:\IAGOS\server\v18\Source\Source\_Common\MoverSkill.cpp
;	COMDAT ?GetValidVisTable@CMover@@QAE?AV?$vector@EV?$allocator@E@std@@@std@@PAVCItemElem@@@Z
_TEXT	SEGMENT
_this$1$ = -24						; size = 4
$T2 = -20						; size = 4
$T3 = -13						; size = 1
__$EHRec$ = -12						; size = 12
___$ReturnUdt$ = 8					; size = 4
_pItemElem$ = 12					; size = 4
?GetValidVisTable@CMover@@QAE?AV?$vector@EV?$allocator@E@std@@@std@@PAVCItemElem@@@Z PROC ; CMover::GetValidVisTable, COMDAT
; _this$ = ecx

; 4570 : {

  00000	55		 push	 ebp
  00001	8b ec		 mov	 ebp, esp
  00003	6a ff		 push	 -1
  00005	68 00 00 00 00	 push	 __ehhandler$?GetValidVisTable@CMover@@QAE?AV?$vector@EV?$allocator@E@std@@@std@@PAVCItemElem@@@Z
  0000a	64 a1 00 00 00
	00		 mov	 eax, DWORD PTR fs:0
  00010	50		 push	 eax
  00011	83 ec 0c	 sub	 esp, 12			; 0000000cH
  00014	53		 push	 ebx
  00015	56		 push	 esi
  00016	57		 push	 edi
  00017	a1 00 00 00 00	 mov	 eax, DWORD PTR ___security_cookie
  0001c	33 c5		 xor	 eax, ebp
  0001e	50		 push	 eax
  0001f	8d 45 f4	 lea	 eax, DWORD PTR __$EHRec$[ebp]
  00022	64 a3 00 00 00
	00		 mov	 DWORD PTR fs:0, eax
  00028	89 4d e8	 mov	 DWORD PTR _this$1$[ebp], ecx
  0002b	c7 45 ec 00 00
	00 00		 mov	 DWORD PTR $T2[ebp], 0
; File C:\Program Files\Microsoft Visual Studio\2022\Professional\VC\Tools\MSVC\14.44.35207\include\vector

; 400  :     _CONSTEXPR20 _Vector_val() noexcept : _Myfirst(), _Mylast(), _Myend() {}

  00032	8b 7d 08	 mov	 edi, DWORD PTR ___$ReturnUdt$[ebp]
  00035	c7 07 00 00 00
	00		 mov	 DWORD PTR [edi], 0
  0003b	c7 47 04 00 00
	00 00		 mov	 DWORD PTR [edi+4], 0
  00042	c7 47 08 00 00
	00 00		 mov	 DWORD PTR [edi+8], 0
; File C:\IAGOS\server\v18\Source\Source\_Common\Item.h

; 103  : 	int		GetPiercingSize()	{	return m_piercing.GetPiercingSize();		}

  00049	8b 4d 0c	 mov	 ecx, DWORD PTR _pItemElem$[ebp]
  0004c	83 c1 3c	 add	 ecx, 60			; 0000003cH
; File C:\IAGOS\server\v18\Source\Source\_Common\MoverSkill.cpp

; 4582 : 	return vecTemp;

  0004f	c7 45 fc 00 00
	00 00		 mov	 DWORD PTR __$EHRec$[ebp+8], 0
  00056	c7 45 ec 01 00
	00 00		 mov	 DWORD PTR $T2[ebp], 1
  0005d	c6 45 f3 04	 mov	 BYTE PTR $T3[ebp], 4
; File C:\IAGOS\server\v18\Source\Source\_Common\Item.h

; 103  : 	int		GetPiercingSize()	{	return m_piercing.GetPiercingSize();		}

  00061	e8 00 00 00 00	 call	 ?GetPiercingSize@CPiercing@@QAEHXZ ; CPiercing::GetPiercingSize
; File C:\Program Files\Microsoft Visual Studio\2022\Professional\VC\Tools\MSVC\14.44.35207\include\vector

; 1635 :         _Resize(_Newsize, _Val);

  00066	8d 4d f3	 lea	 ecx, DWORD PTR $T3[ebp]
  00069	51		 push	 ecx
  0006a	50		 push	 eax
  0006b	8b cf		 mov	 ecx, edi
  0006d	e8 00 00 00 00	 call	 ??$_Resize@E@?$vector@EV?$allocator@E@std@@@std@@AAEXIABE@Z ; std::vector<unsigned char,std::allocator<unsigned char> >::_Resize<unsigned char>

; 1915 :         return static_cast<size_type>(_My_data._Mylast - _My_data._Myfirst);

  00072	8b 5f 04	 mov	 ebx, DWORD PTR [edi+4]
; File C:\IAGOS\server\v18\Source\Source\_Common\MoverSkill.cpp

; 4574 : 	for( DWORD i=0; i<vecTemp.size(); i++ )

  00075	33 f6		 xor	 esi, esi
; File C:\Program Files\Microsoft Visual Studio\2022\Professional\VC\Tools\MSVC\14.44.35207\include\vector

; 1915 :         return static_cast<size_type>(_My_data._Mylast - _My_data._Myfirst);

  00077	8b 0f		 mov	 ecx, DWORD PTR [edi]
  00079	8b c3		 mov	 eax, ebx
  0007b	8b d1		 mov	 edx, ecx
  0007d	2b c1		 sub	 eax, ecx
; File C:\IAGOS\server\v18\Source\Source\_Common\MoverSkill.cpp

; 4574 : 	for( DWORD i=0; i<vecTemp.size(); i++ )

  0007f	74 26		 je	 SHORT $LN3@GetValidVi
$LL4@GetValidVi:
; File C:\IAGOS\server\v18\Source\Source\_Common\Item.h

; 105  : 	DWORD	GetPiercingItem( int nth )	{	return m_piercing.GetPiercingItem( nth );	}

  00081	8b 4d 0c	 mov	 ecx, DWORD PTR _pItemElem$[ebp]
  00084	56		 push	 esi
  00085	8d 49 3c	 lea	 ecx, DWORD PTR [ecx+60]
  00088	e8 00 00 00 00	 call	 ?GetPiercingItem@CPiercing@@QAEKH@Z ; CPiercing::GetPiercingItem
; File C:\IAGOS\server\v18\Source\Source\_Common\MoverSkill.cpp

; 4575 : 		if( pItemElem->GetPiercingItem( i ) == 0 )

  0008d	85 c0		 test	 eax, eax
  0008f	75 06		 jne	 SHORT $LN2@GetValidVi

; 4576 : 			vecTemp[i] = FAILED_BOTH_NEEDVIS;

  00091	8b 07		 mov	 eax, DWORD PTR [edi]
  00093	c6 04 06 00	 mov	 BYTE PTR [esi+eax], 0
$LN2@GetValidVi:
; File C:\Program Files\Microsoft Visual Studio\2022\Professional\VC\Tools\MSVC\14.44.35207\include\vector

; 1915 :         return static_cast<size_type>(_My_data._Mylast - _My_data._Myfirst);

  00097	8b 5f 04	 mov	 ebx, DWORD PTR [edi+4]
; File C:\IAGOS\server\v18\Source\Source\_Common\MoverSkill.cpp

; 4574 : 	for( DWORD i=0; i<vecTemp.size(); i++ )

  0009a	46		 inc	 esi
; File C:\Program Files\Microsoft Visual Studio\2022\Professional\VC\Tools\MSVC\14.44.35207\include\vector

; 1915 :         return static_cast<size_type>(_My_data._Mylast - _My_data._Myfirst);

  0009b	8b 0f		 mov	 ecx, DWORD PTR [edi]
  0009d	8b c3		 mov	 eax, ebx
  0009f	2b c1		 sub	 eax, ecx
  000a1	8b d1		 mov	 edx, ecx
; File C:\IAGOS\server\v18\Source\Source\_Common\MoverSkill.cpp

; 4574 : 	for( DWORD i=0; i<vecTemp.size(); i++ )

  000a3	3b f0		 cmp	 esi, eax
  000a5	72 da		 jb	 SHORT $LL4@GetValidVi
$LN3@GetValidVi:

; 4578 : 	for( DWORD i=0; i<vecTemp.size(); i++ )

  000a7	33 f6		 xor	 esi, esi
; File C:\Program Files\Microsoft Visual Studio\2022\Professional\VC\Tools\MSVC\14.44.35207\include\vector

; 1915 :         return static_cast<size_type>(_My_data._Mylast - _My_data._Myfirst);

  000a9	2b d9		 sub	 ebx, ecx
; File C:\IAGOS\server\v18\Source\Source\_Common\MoverSkill.cpp

; 4578 : 	for( DWORD i=0; i<vecTemp.size(); i++ )

  000ab	74 21		 je	 SHORT $LN48@GetValidVi
  000ad	8b 5d e8	 mov	 ebx, DWORD PTR _this$1$[ebp]
$LL7@GetValidVi:

; 4579 : 		if( vecTemp[i] == UNDEFINED_NEEDVIS )

  000b0	80 3c 32 04	 cmp	 BYTE PTR [edx+esi], 4
  000b4	75 0c		 jne	 SHORT $LN5@GetValidVi

; 4580 : 			SetValidNeedVis( pItemElem, i, vecTemp );

  000b6	57		 push	 edi
  000b7	56		 push	 esi
  000b8	ff 75 0c	 push	 DWORD PTR _pItemElem$[ebp]
  000bb	8b cb		 mov	 ecx, ebx
  000bd	e8 00 00 00 00	 call	 ?SetValidNeedVis@CMover@@AAEHPAVCItemElem@@HAAV?$vector@EV?$allocator@E@std@@@std@@@Z ; CMover::SetValidNeedVis
$LN5@GetValidVi:
; File C:\Program Files\Microsoft Visual Studio\2022\Professional\VC\Tools\MSVC\14.44.35207\include\vector

; 1915 :         return static_cast<size_type>(_My_data._Mylast - _My_data._Myfirst);

  000c2	8b 4f 04	 mov	 ecx, DWORD PTR [edi+4]
; File C:\IAGOS\server\v18\Source\Source\_Common\MoverSkill.cpp

; 4578 : 	for( DWORD i=0; i<vecTemp.size(); i++ )

  000c5	46		 inc	 esi
; File C:\Program Files\Microsoft Visual Studio\2022\Professional\VC\Tools\MSVC\14.44.35207\include\vector

; 1915 :         return static_cast<size_type>(_My_data._Mylast - _My_data._Myfirst);

  000c6	8b 17		 mov	 edx, DWORD PTR [edi]
  000c8	2b ca		 sub	 ecx, edx
; File C:\IAGOS\server\v18\Source\Source\_Common\MoverSkill.cpp

; 4578 : 	for( DWORD i=0; i<vecTemp.size(); i++ )

  000ca	3b f1		 cmp	 esi, ecx
  000cc	72 e2		 jb	 SHORT $LL7@GetValidVi
$LN48@GetValidVi:

; 4583 : }

  000ce	8b c7		 mov	 eax, edi
  000d0	8b 4d f4	 mov	 ecx, DWORD PTR __$EHRec$[ebp]
  000d3	64 89 0d 00 00
	00 00		 mov	 DWORD PTR fs:0, ecx
  000da	59		 pop	 ecx
  000db	5f		 pop	 edi
  000dc	5e		 pop	 esi
  000dd	5b		 pop	 ebx
  000de	8b e5		 mov	 esp, ebp
  000e0	5d		 pop	 ebp
  000e1	c2 08 00	 ret	 8
_TEXT	ENDS
;	COMDAT text$x
text$x	SEGMENT
__unwindfunclet$?GetValidVisTable@CMover@@QAE?AV?$vector@EV?$allocator@E@std@@@std@@PAVCItemElem@@@Z$0:
  00000	8b 45 ec	 mov	 eax, DWORD PTR $T2[ebp]
  00003	83 e0 01	 and	 eax, 1
  00006	0f 84 0c 00 00
	00		 je	 $LN12@GetValidVi
  0000c	83 65 ec fe	 and	 DWORD PTR $T2[ebp], -2	; fffffffeH
  00010	8b 4d 08	 mov	 ecx, DWORD PTR ___$ReturnUdt$[ebp]
  00013	e9 00 00 00 00	 jmp	 ??1?$vector@EV?$allocator@E@std@@@std@@QAE@XZ ; std::vector<unsigned char,std::allocator<unsigned char> >::~vector<unsigned char,std::allocator<unsigned char> >
$LN12@GetValidVi:
  00018	c3		 ret	 0
  00019	cc		 int	 3
  0001a	cc		 int	 3
  0001b	cc		 int	 3
  0001c	cc		 int	 3
  0001d	cc		 int	 3
__ehhandler$?GetValidVisTable@CMover@@QAE?AV?$vector@EV?$allocator@E@std@@@std@@PAVCItemElem@@@Z:
  0001e	90		 npad	 1
  0001f	90		 npad	 1
  00020	8b 54 24 08	 mov	 edx, DWORD PTR [esp+8]
  00024	8d 42 0c	 lea	 eax, DWORD PTR [edx+12]
  00027	8b 4a e4	 mov	 ecx, DWORD PTR [edx-28]
  0002a	33 c8		 xor	 ecx, eax
  0002c	e8 00 00 00 00	 call	 @__security_check_cookie@4
  00031	b8 00 00 00 00	 mov	 eax, OFFSET __ehfuncinfo$?GetValidVisTable@CMover@@QAE?AV?$vector@EV?$allocator@E@std@@@std@@PAVCItemElem@@@Z
  00036	e9 00 00 00 00	 jmp	 ___CxxFrameHandler3
text$x	ENDS
?GetValidVisTable@CMover@@QAE?AV?$vector@EV?$allocator@E@std@@@std@@PAVCItemElem@@@Z ENDP ; CMover::GetValidVisTable
; Function compile flags: /Ogtp
; File C:\IAGOS\server\v18\Source\Source\_Common\MoverSkill.cpp
; File C:\IAGOS\server\v18\Source\Source\_Common\Item.h
; File C:\IAGOS\server\v18\Source\Source\_Common\MoverSkill.cpp
; File C:\IAGOS\server\v18\Source\Source\_Common\Project.h
; File C:\IAGOS\server\v18\Source\Source\_Common\data.h
; File C:\IAGOS\server\v18\Source\Source\_Common\Project.h
; File C:\IAGOS\server\v18\Source\Source\_Common\MoverSkill.cpp
; File C:\IAGOS\server\v18\Source\Source\_Common\Item.h
; File C:\IAGOS\server\v18\Source\Source\_Common\MoverSkill.cpp
; File C:\IAGOS\server\v18\Source\Source\_Common\Item.h
; File C:\IAGOS\server\v18\Source\Source\_Common\MoverSkill.cpp
; File C:\IAGOS\server\v18\Source\Source\_Common\Item.h
; File C:\IAGOS\server\v18\Source\Source\_Common\MoverSkill.cpp
; File C:\IAGOS\server\v18\Source\Source\_Common\Item.h
; File C:\IAGOS\server\v18\Source\Source\_Common\MoverSkill.cpp
; File C:\IAGOS\server\v18\Source\Source\_Common\Item.h
; File C:\IAGOS\server\v18\Source\Source\_Common\MoverSkill.cpp
; File C:\IAGOS\server\v18\Source\Source\_Common\Item.h
; File C:\IAGOS\server\v18\Source\Source\_Common\MoverSkill.cpp
; File C:\IAGOS\server\v18\Source\Source\_Common\Project.h
; File C:\IAGOS\server\v18\Source\Source\_Common\MoverSkill.cpp
;	COMDAT ?SetValidNeedVis@CMover@@AAEHPAVCItemElem@@HAAV?$vector@EV?$allocator@E@std@@@std@@@Z
_TEXT	SEGMENT
_this$1$ = -8						; size = 4
$T1 = -4						; size = 4
_pItemElem$ = 8						; size = 4
_nPos$ = 12						; size = 4
_vecValid$ = 16						; size = 4
_bResult1$1$ = 16					; size = 4
?SetValidNeedVis@CMover@@AAEHPAVCItemElem@@HAAV?$vector@EV?$allocator@E@std@@@std@@@Z PROC ; CMover::SetValidNeedVis, COMDAT
; _this$ = ecx

; 4586 : {

  00000	55		 push	 ebp
  00001	8b ec		 mov	 ebp, esp
  00003	83 ec 08	 sub	 esp, 8
  00006	53		 push	 ebx

; 4587 : 	if( vecValid[nPos] != UNDEFINED_NEEDVIS )

  00007	8b 5d 0c	 mov	 ebx, DWORD PTR _nPos$[ebp]
  0000a	57		 push	 edi
  0000b	8b 7d 10	 mov	 edi, DWORD PTR _vecValid$[ebp]
  0000e	89 4d f8	 mov	 DWORD PTR _this$1$[ebp], ecx
  00011	8b 07		 mov	 eax, DWORD PTR [edi]
  00013	8a 14 03	 mov	 dl, BYTE PTR [ebx+eax]
  00016	80 fa 04	 cmp	 dl, 4
  00019	74 10		 je	 SHORT $LN5@SetValidNe

; 4588 : 		return ( vecValid[nPos] == SUCCSESS_NEEDVIS );

  0001b	33 c0		 xor	 eax, eax
  0001d	80 fa 03	 cmp	 dl, 3
  00020	5f		 pop	 edi
  00021	0f 94 c0	 sete	 al

; 4628 : 	return FALSE;
; 4629 : }

  00024	5b		 pop	 ebx
  00025	8b e5		 mov	 esp, ebp
  00027	5d		 pop	 ebp
  00028	c2 0c 00	 ret	 12			; 0000000cH
$LN5@SetValidNe:
  0002b	56		 push	 esi
; File C:\IAGOS\server\v18\Source\Source\_Common\Item.h

; 105  : 	DWORD	GetPiercingItem( int nth )	{	return m_piercing.GetPiercingItem( nth );	}

  0002c	8b 75 08	 mov	 esi, DWORD PTR _pItemElem$[ebp]
  0002f	53		 push	 ebx
  00030	8d 4e 3c	 lea	 ecx, DWORD PTR [esi+60]
  00033	e8 00 00 00 00	 call	 ?GetPiercingItem@CPiercing@@QAEKH@Z ; CPiercing::GetPiercingItem
; File C:\IAGOS\server\v18\Source\Source\_Common\MoverSkill.cpp

; 4590 : 	ItemProp* pPropVis = prj.GetItemProp( pItemElem->GetPiercingItem( nPos ) );

  00038	8b c8		 mov	 ecx, eax
; File C:\IAGOS\server\v18\Source\Source\_Common\Project.h

; 1389 : 	VERIFY_RANGE_ASSERT( nIndex, 0, m_aPropItem.GetSize(), "GetItemProp range_error", NULL );

  0003a	a1 40 02 00 00	 mov	 eax, DWORD PTR ?prj@@3VCProject@@A+576
  0003f	85 c9		 test	 ecx, ecx
  00041	0f 88 41 01 00
	00		 js	 $LN31@SetValidNe
  00047	3b c8		 cmp	 ecx, eax
  00049	0f 8d 39 01 00
	00		 jge	 $LN31@SetValidNe
; File C:\IAGOS\server\v18\Source\Source\_Common\data.h

; 270  : 	if( dwIndex >= (DWORD)m_nMaxIndex )

  0004f	72 04		 jb	 SHORT $LN36@SetValidNe

; 271  : 		return NULL;

  00051	33 c0		 xor	 eax, eax
  00053	eb 08		 jmp	 SHORT $LN87@SetValidNe
$LN36@SetValidNe:

; 272  : 	return (T*) m_apOffset[ dwIndex ];

  00055	a1 30 02 00 00	 mov	 eax, DWORD PTR ?prj@@3VCProject@@A+560
  0005a	8b 04 88	 mov	 eax, DWORD PTR [eax+ecx*4]
$LN87@SetValidNe:
; File C:\IAGOS\server\v18\Source\Source\_Common\Project.h

; 1390 : 	return m_aPropItem.GetAt( nIndex ); 

  0005d	89 45 fc	 mov	 DWORD PTR $T1[ebp], eax
  00060	8d 56 3c	 lea	 edx, DWORD PTR [esi+60]
; File C:\IAGOS\server\v18\Source\Source\_Common\MoverSkill.cpp

; 4591 : 	if( !pPropVis )

  00063	85 c0		 test	 eax, eax
  00065	0f 84 33 01 00
	00		 je	 $LN71@SetValidNe

; 4595 : 	}
; 4596 : 
; 4597 : 	if( pPropVis->dwReferTarget1 == NULL_ID && pPropVis->dwReferTarget2 == NULL_ID )

  0006b	8b b0 d8 01 00
	00		 mov	 esi, DWORD PTR [eax+472]
  00071	83 fe ff	 cmp	 esi, -1
  00074	75 1c		 jne	 SHORT $LN70@SetValidNe
  00076	39 b0 dc 01 00
	00		 cmp	 DWORD PTR [eax+476], esi
  0007c	75 14		 jne	 SHORT $LN70@SetValidNe

; 4598 : 	{
; 4599 : 		vecValid[nPos] = SUCCSESS_NEEDVIS;

  0007e	8b 07		 mov	 eax, DWORD PTR [edi]
  00080	5e		 pop	 esi
  00081	5f		 pop	 edi
  00082	c6 04 03 03	 mov	 BYTE PTR [ebx+eax], 3

; 4600 : 		return TRUE;

  00086	b8 01 00 00 00	 mov	 eax, 1

; 4628 : 	return FALSE;
; 4629 : }

  0008b	5b		 pop	 ebx
  0008c	8b e5		 mov	 esp, ebp
  0008e	5d		 pop	 ebp
  0008f	c2 0c 00	 ret	 12			; 0000000cH
$LN70@SetValidNe:

; 4601 : 	}
; 4602 : 
; 4603 : 	BOOL bResult1 = FALSE, bResult2 = FALSE;
; 4604 : 	if( pPropVis->dwReferTarget1 == NULL_ID ) bResult1 = TRUE;
; 4605 : 	if( pPropVis->dwReferTarget2 == NULL_ID ) bResult2 = TRUE;

  00092	33 c9		 xor	 ecx, ecx
  00094	83 fe ff	 cmp	 esi, -1
  00097	0f 94 c1	 sete	 cl

; 4607 : 	for( int i=0; i<pItemElem->GetPiercingSize(); i++ )

  0009a	33 db		 xor	 ebx, ebx
  0009c	83 b8 dc 01 00
	00 ff		 cmp	 DWORD PTR [eax+476], -1
  000a3	89 4d 10	 mov	 DWORD PTR _bResult1$1$[ebp], ecx
; File C:\IAGOS\server\v18\Source\Source\_Common\Item.h

; 103  : 	int		GetPiercingSize()	{	return m_piercing.GetPiercingSize();		}

  000a6	8b ca		 mov	 ecx, edx
; File C:\IAGOS\server\v18\Source\Source\_Common\MoverSkill.cpp

; 4607 : 	for( int i=0; i<pItemElem->GetPiercingSize(); i++ )

  000a8	0f 94 c3	 sete	 bl
  000ab	33 f6		 xor	 esi, esi
; File C:\IAGOS\server\v18\Source\Source\_Common\Item.h

; 103  : 	int		GetPiercingSize()	{	return m_piercing.GetPiercingSize();		}

  000ad	e8 00 00 00 00	 call	 ?GetPiercingSize@CPiercing@@QAEHXZ ; CPiercing::GetPiercingSize
; File C:\IAGOS\server\v18\Source\Source\_Common\MoverSkill.cpp

; 4607 : 	for( int i=0; i<pItemElem->GetPiercingSize(); i++ )

  000b2	85 c0		 test	 eax, eax
  000b4	7e 71		 jle	 SHORT $LN65@SetValidNe
  000b6	8b 45 10	 mov	 eax, DWORD PTR _bResult1$1$[ebp]
  000b9	89 45 10	 mov	 DWORD PTR _bResult1$1$[ebp], eax
  000bc	0f 1f 40 00	 npad	 4
$LL4@SetValidNe:
; File C:\IAGOS\server\v18\Source\Source\_Common\Item.h

; 105  : 	DWORD	GetPiercingItem( int nth )	{	return m_piercing.GetPiercingItem( nth );	}

  000c0	8b 4d 08	 mov	 ecx, DWORD PTR _pItemElem$[ebp]
  000c3	56		 push	 esi
  000c4	8d 49 3c	 lea	 ecx, DWORD PTR [ecx+60]
  000c7	e8 00 00 00 00	 call	 ?GetPiercingItem@CPiercing@@QAEKH@Z ; CPiercing::GetPiercingItem
; File C:\IAGOS\server\v18\Source\Source\_Common\MoverSkill.cpp

; 4609 : 		if( pPropVis->dwReferTarget1 == pItemElem->GetPiercingItem( i ) )

  000cc	8b 4d fc	 mov	 ecx, DWORD PTR $T1[ebp]
  000cf	39 81 d8 01 00
	00		 cmp	 DWORD PTR [ecx+472], eax
  000d5	75 10		 jne	 SHORT $LN10@SetValidNe

; 4610 : 			bResult1 = SetValidNeedVis( pItemElem, i, vecValid );

  000d7	8b 4d f8	 mov	 ecx, DWORD PTR _this$1$[ebp]
  000da	57		 push	 edi
  000db	56		 push	 esi
  000dc	ff 75 08	 push	 DWORD PTR _pItemElem$[ebp]
  000df	e8 00 00 00 00	 call	 ?SetValidNeedVis@CMover@@AAEHPAVCItemElem@@HAAV?$vector@EV?$allocator@E@std@@@std@@@Z ; CMover::SetValidNeedVis
  000e4	89 45 10	 mov	 DWORD PTR _bResult1$1$[ebp], eax
$LN10@SetValidNe:
; File C:\IAGOS\server\v18\Source\Source\_Common\Item.h

; 105  : 	DWORD	GetPiercingItem( int nth )	{	return m_piercing.GetPiercingItem( nth );	}

  000e7	8b 4d 08	 mov	 ecx, DWORD PTR _pItemElem$[ebp]
  000ea	56		 push	 esi
  000eb	8d 49 3c	 lea	 ecx, DWORD PTR [ecx+60]
  000ee	e8 00 00 00 00	 call	 ?GetPiercingItem@CPiercing@@QAEKH@Z ; CPiercing::GetPiercingItem
; File C:\IAGOS\server\v18\Source\Source\_Common\MoverSkill.cpp

; 4612 : 		if( pPropVis->dwReferTarget2 == pItemElem->GetPiercingItem( i ) )

  000f3	8b 4d fc	 mov	 ecx, DWORD PTR $T1[ebp]
  000f6	39 81 dc 01 00
	00		 cmp	 DWORD PTR [ecx+476], eax
  000fc	75 0f		 jne	 SHORT $LN11@SetValidNe

; 4613 : 			bResult2 = SetValidNeedVis( pItemElem, i, vecValid );

  000fe	8b 4d f8	 mov	 ecx, DWORD PTR _this$1$[ebp]
  00101	57		 push	 edi
  00102	56		 push	 esi
  00103	ff 75 08	 push	 DWORD PTR _pItemElem$[ebp]
  00106	e8 00 00 00 00	 call	 ?SetValidNeedVis@CMover@@AAEHPAVCItemElem@@HAAV?$vector@EV?$allocator@E@std@@@std@@@Z ; CMover::SetValidNeedVis
  0010b	8b d8		 mov	 ebx, eax
$LN11@SetValidNe:

; 4614 : 
; 4615 : 		if( bResult1 && bResult2 )

  0010d	83 7d 10 00	 cmp	 DWORD PTR _bResult1$1$[ebp], 0
  00111	74 04		 je	 SHORT $LN2@SetValidNe
  00113	85 db		 test	 ebx, ebx
  00115	75 2e		 jne	 SHORT $LN63@SetValidNe
$LN2@SetValidNe:
; File C:\IAGOS\server\v18\Source\Source\_Common\Item.h

; 103  : 	int		GetPiercingSize()	{	return m_piercing.GetPiercingSize();		}

  00117	8b 4d 08	 mov	 ecx, DWORD PTR _pItemElem$[ebp]
; File C:\IAGOS\server\v18\Source\Source\_Common\MoverSkill.cpp

; 4607 : 	for( int i=0; i<pItemElem->GetPiercingSize(); i++ )

  0011a	46		 inc	 esi
; File C:\IAGOS\server\v18\Source\Source\_Common\Item.h

; 103  : 	int		GetPiercingSize()	{	return m_piercing.GetPiercingSize();		}

  0011b	8d 49 3c	 lea	 ecx, DWORD PTR [ecx+60]
  0011e	e8 00 00 00 00	 call	 ?GetPiercingSize@CPiercing@@QAEHXZ ; CPiercing::GetPiercingSize
; File C:\IAGOS\server\v18\Source\Source\_Common\MoverSkill.cpp

; 4607 : 	for( int i=0; i<pItemElem->GetPiercingSize(); i++ )

  00123	3b f0		 cmp	 esi, eax
  00125	7c 99		 jl	 SHORT $LL4@SetValidNe
$LN65@SetValidNe:

; 4618 : 			return TRUE;
; 4619 : 		}
; 4620 : 	}
; 4621 : 
; 4622 : 	if( !bResult1 && bResult2 )

  00127	83 7d 10 00	 cmp	 DWORD PTR _bResult1$1$[ebp], 0
  0012b	75 2f		 jne	 SHORT $LN69@SetValidNe
  0012d	85 db		 test	 ebx, ebx
  0012f	74 43		 je	 SHORT $LN15@SetValidNe

; 4623 : 		vecValid[nPos] = FAILED_1ST_NEEDVIS;

  00131	8b 07		 mov	 eax, DWORD PTR [edi]
  00133	8b 4d 0c	 mov	 ecx, DWORD PTR _nPos$[ebp]
  00136	5e		 pop	 esi
  00137	5f		 pop	 edi

; 4628 : 	return FALSE;
; 4629 : }

  00138	5b		 pop	 ebx
  00139	c6 04 01 01	 mov	 BYTE PTR [ecx+eax], 1
  0013d	33 c0		 xor	 eax, eax
  0013f	8b e5		 mov	 esp, ebp
  00141	5d		 pop	 ebp
  00142	c2 0c 00	 ret	 12			; 0000000cH
$LN63@SetValidNe:

; 4616 : 		{
; 4617 : 			vecValid[nPos] = SUCCSESS_NEEDVIS;

  00145	8b 07		 mov	 eax, DWORD PTR [edi]
  00147	8b 4d 0c	 mov	 ecx, DWORD PTR _nPos$[ebp]
  0014a	5e		 pop	 esi
  0014b	5f		 pop	 edi

; 4628 : 	return FALSE;
; 4629 : }

  0014c	5b		 pop	 ebx
  0014d	c6 04 01 03	 mov	 BYTE PTR [ecx+eax], 3
  00151	b8 01 00 00 00	 mov	 eax, 1
  00156	8b e5		 mov	 esp, ebp
  00158	5d		 pop	 ebp
  00159	c2 0c 00	 ret	 12			; 0000000cH
$LN69@SetValidNe:

; 4624 : 	else if( bResult1 && !bResult2 )

  0015c	85 db		 test	 ebx, ebx
  0015e	75 14		 jne	 SHORT $LN15@SetValidNe

; 4625 : 		vecValid[nPos] = FAILED_2ND_NEEDVIS;

  00160	8b 07		 mov	 eax, DWORD PTR [edi]
  00162	8b 4d 0c	 mov	 ecx, DWORD PTR _nPos$[ebp]
  00165	5e		 pop	 esi
  00166	5f		 pop	 edi

; 4628 : 	return FALSE;
; 4629 : }

  00167	5b		 pop	 ebx
  00168	c6 04 01 02	 mov	 BYTE PTR [ecx+eax], 2
  0016c	33 c0		 xor	 eax, eax
  0016e	8b e5		 mov	 esp, ebp
  00170	5d		 pop	 ebp
  00171	c2 0c 00	 ret	 12			; 0000000cH
$LN15@SetValidNe:

; 4626 : 	else
; 4627 : 		vecValid[nPos] = FAILED_BOTH_NEEDVIS;

  00174	8b 07		 mov	 eax, DWORD PTR [edi]
  00176	8b 4d 0c	 mov	 ecx, DWORD PTR _nPos$[ebp]
  00179	5e		 pop	 esi
  0017a	5f		 pop	 edi

; 4628 : 	return FALSE;
; 4629 : }

  0017b	5b		 pop	 ebx
  0017c	c6 04 01 00	 mov	 BYTE PTR [ecx+eax], 0
  00180	33 c0		 xor	 eax, eax
  00182	8b e5		 mov	 esp, ebp
  00184	5d		 pop	 ebp
  00185	c2 0c 00	 ret	 12			; 0000000cH
$LN31@SetValidNe:
; File C:\IAGOS\server\v18\Source\Source\_Common\Project.h

; 579  : 	LPCTSTR szErr = Error( _T( "%s min:%d, max:%d, index:%d" ), szMsg, nMin, nMax, nIndex ); 

  00188	51		 push	 ecx
  00189	50		 push	 eax
  0018a	6a 00		 push	 0
  0018c	68 00 00 00 00	 push	 OFFSET ??_C@_0BI@BEIFNGEL@GetItemProp?5range_error@
  00191	68 00 00 00 00	 push	 OFFSET ??_C@_0BM@HMFGHCP@?$CFs?5min?3?$CFd?0?5max?3?$CFd?0?5index?3?$CFd@
  00196	e8 00 00 00 00	 call	 ?Error@@YAPBDPBDZZ	; Error
  0019b	83 c4 14	 add	 esp, 20			; 00000014H
$LN71@SetValidNe:
; File C:\IAGOS\server\v18\Source\Source\_Common\MoverSkill.cpp

; 4593 : 		vecValid[nPos] = FAILED_BOTH_NEEDVIS;

  0019e	8b 07		 mov	 eax, DWORD PTR [edi]
  001a0	5e		 pop	 esi
  001a1	5f		 pop	 edi
  001a2	c6 04 03 00	 mov	 BYTE PTR [ebx+eax], 0

; 4594 : 		return FALSE;

  001a6	33 c0		 xor	 eax, eax

; 4628 : 	return FALSE;
; 4629 : }

  001a8	5b		 pop	 ebx
  001a9	8b e5		 mov	 esp, ebp
  001ab	5d		 pop	 ebp
  001ac	c2 0c 00	 ret	 12			; 0000000cH
?SetValidNeedVis@CMover@@AAEHPAVCItemElem@@HAAV?$vector@EV?$allocator@E@std@@@std@@@Z ENDP ; CMover::SetValidNeedVis
_TEXT	ENDS
; Function compile flags: /Ogtp
; File C:\IAGOS\server\v18\Source\Source\_Common\MoverSkill.cpp
; File C:\IAGOS\server\v18\Source\Source\_Common\Item.h
; File C:\IAGOS\server\v18\Source\Source\_Common\Project.h
; File C:\IAGOS\server\v18\Source\Source\_Common\data.h
; File C:\IAGOS\server\v18\Source\Source\_Common\Project.h
; File C:\IAGOS\server\v18\Source\Source\_Common\data.h
; File C:\IAGOS\server\v18\Source\Source\_Common\Project.h
; File C:\IAGOS\server\v18\Source\Source\_Common\data.h
; File C:\IAGOS\server\v18\Source\Source\_Common\Project.h
; File C:\IAGOS\server\v18\Source\Source\_Common\data.h
; File C:\IAGOS\server\v18\Source\Source\_Common\Project.h
; File C:\IAGOS\server\v18\Source\Source\_Common\Item.h
; File C:\IAGOS\server\v18\Source\Source\_Common\Project.h
; File C:\IAGOS\server\v18\Source\Source\_Common\data.h
; File C:\IAGOS\server\v18\Source\Source\_Common\Project.h
; File C:\IAGOS\server\v18\Source\Source\_Common\MoverSkill.cpp
; File C:\IAGOS\server\v18\Source\Source\_Common\Item.h
; File C:\IAGOS\server\v18\Source\Source\_Common\Project.h
; File C:\IAGOS\server\v18\Source\Source\_Common\data.h
; File C:\IAGOS\server\v18\Source\Source\_Common\Project.h
; File C:\IAGOS\server\v18\Source\Source\_Common\MoverSkill.cpp
;	COMDAT ?DoUseItemPetTonic@CMover@@AAEHPAVCItemElem@@@Z
_TEXT	SEGMENT
_dwCurr$1$ = -8						; size = 4
_pBuff$1$ = -4						; size = 4
tv367 = -4						; size = 4
_pItemElem$ = 8						; size = 4
?DoUseItemPetTonic@CMover@@AAEHPAVCItemElem@@@Z PROC	; CMover::DoUseItemPetTonic, COMDAT
; _this$ = ecx

; 4662 : {

  00000	55		 push	 ebp
  00001	8b ec		 mov	 ebp, esp
  00003	83 ec 08	 sub	 esp, 8
  00006	53		 push	 ebx
  00007	56		 push	 esi

; 4663 : 	// Ćę żµľçÁ¦ µÎ Áľ·ů¸¦ ĽŻľîĽ­ »çżëÇŇ Ľö ľř´Ů
; 4664 : 	if( ( pItemElem->m_dwItemId == II_SYS_SYS_SCR_PET_TONIC_A && HasBuff( BUFF_ITEM, II_SYS_SYS_SCR_PET_TONIC_B ) )
; 4665 : 		|| ( pItemElem->m_dwItemId == II_SYS_SYS_SCR_PET_TONIC_B && HasBuff( BUFF_ITEM, II_SYS_SYS_SCR_PET_TONIC_A ) )

  00008	8b 75 08	 mov	 esi, DWORD PTR _pItemElem$[ebp]
  0000b	8b d9		 mov	 ebx, ecx
  0000d	81 7e 0c 28 52
	00 00		 cmp	 DWORD PTR [esi+12], 21032 ; 00005228H
  00014	8d 46 0c	 lea	 eax, DWORD PTR [esi+12]
  00017	57		 push	 edi
  00018	89 45 fc	 mov	 DWORD PTR tv367[ebp], eax
  0001b	8b f8		 mov	 edi, eax
  0001d	75 16		 jne	 SHORT $LN4@DoUseItemP
  0001f	68 29 52 00 00	 push	 21033			; 00005229H
  00024	6a 00		 push	 0
  00026	e8 00 00 00 00	 call	 ?HasBuff@CMover@@QAEHGG@Z ; CMover::HasBuff
  0002b	85 c0		 test	 eax, eax
  0002d	75 22		 jne	 SHORT $LN3@DoUseItemP
  0002f	8b 45 fc	 mov	 eax, DWORD PTR tv367[ebp]
  00032	8d 7e 0c	 lea	 edi, DWORD PTR [esi+12]
$LN4@DoUseItemP:
  00035	81 38 29 52 00
	00		 cmp	 DWORD PTR [eax], 21033	; 00005229H
  0003b	8b f7		 mov	 esi, edi
  0003d	75 26		 jne	 SHORT $LN49@DoUseItemP
  0003f	68 28 52 00 00	 push	 21032			; 00005228H
  00044	6a 00		 push	 0
  00046	8b cb		 mov	 ecx, ebx
  00048	e8 00 00 00 00	 call	 ?HasBuff@CMover@@QAEHGG@Z ; CMover::HasBuff
  0004d	85 c0		 test	 eax, eax
  0004f	74 0e		 je	 SHORT $LN50@DoUseItemP
$LN3@DoUseItemP:
  00051	5f		 pop	 edi

; 4683 : 	return 0;
; 4684 : }

  00052	5e		 pop	 esi
  00053	b8 02 00 00 00	 mov	 eax, 2
  00058	5b		 pop	 ebx
  00059	8b e5		 mov	 esp, ebp
  0005b	5d		 pop	 ebp
  0005c	c2 04 00	 ret	 4
$LN50@DoUseItemP:

; 4663 : 	// Ćę żµľçÁ¦ µÎ Áľ·ů¸¦ ĽŻľîĽ­ »çżëÇŇ Ľö ľř´Ů
; 4664 : 	if( ( pItemElem->m_dwItemId == II_SYS_SYS_SCR_PET_TONIC_A && HasBuff( BUFF_ITEM, II_SYS_SYS_SCR_PET_TONIC_B ) )
; 4665 : 		|| ( pItemElem->m_dwItemId == II_SYS_SYS_SCR_PET_TONIC_B && HasBuff( BUFF_ITEM, II_SYS_SYS_SCR_PET_TONIC_A ) )

  0005f	8b 75 08	 mov	 esi, DWORD PTR _pItemElem$[ebp]
  00062	83 c6 0c	 add	 esi, 12			; 0000000cH
$LN49@DoUseItemP:

; 4666 : 	)
; 4667 : 		return 2;
; 4668 : 
; 4669 : 	// ˝Ă°Ł żŔąöÇĂ·Îżě ¸·±â
; 4670 : 	DWORD dwCurr	= ::timeGetTime();

  00065	ff 15 00 00 00
	00		 call	 DWORD PTR __imp__timeGetTime@0

; 4671 : #ifdef __BUFF_1107
; 4672 : 	IBuff* pBuff	= m_buffs.GetBuff( BUFF_ITEM, (WORD)( pItemElem->m_dwItemId ) );

  0006b	8b 4d fc	 mov	 ecx, DWORD PTR tv367[ebp]
  0006e	89 45 f8	 mov	 DWORD PTR _dwCurr$1$[ebp], eax
  00071	0f b7 09	 movzx	 ecx, WORD PTR [ecx]
  00074	51		 push	 ecx
  00075	6a 00		 push	 0
  00077	8d 8b ec 02 00
	00		 lea	 ecx, DWORD PTR [ebx+748]
  0007d	e8 00 00 00 00	 call	 ?GetBuff@CBuffMgr@@QAEPAVIBuff@@GG@Z ; CBuffMgr::GetBuff

; 4673 : 	if( pBuff && static_cast<int>( pItemElem->GetProp()->dwSkillTime ) > static_cast<int>( pItemElem->GetProp()->dwSkillTime + ( pBuff->GetTotal() - ( dwCurr - pBuff->GetInst() ) ) ) )

  00082	8b 0d 40 02 00
	00		 mov	 ecx, DWORD PTR ?prj@@3VCProject@@A+576
  00088	89 45 fc	 mov	 DWORD PTR _pBuff$1$[ebp], eax
  0008b	85 c0		 test	 eax, eax
  0008d	0f 84 a4 00 00
	00		 je	 $LN5@DoUseItemP
; File C:\IAGOS\server\v18\Source\Source\_Common\Item.h

; 230  : 	ItemProp*	GetProp()	{	return prj.GetItemProp( m_dwItemId );	}

  00093	8b 17		 mov	 edx, DWORD PTR [edi]
; File C:\IAGOS\server\v18\Source\Source\_Common\Project.h

; 1389 : 	VERIFY_RANGE_ASSERT( nIndex, 0, m_aPropItem.GetSize(), "GetItemProp range_error", NULL );

  00095	85 d2		 test	 edx, edx
  00097	78 22		 js	 SHORT $LN14@DoUseItemP
  00099	8b fe		 mov	 edi, esi
  0009b	3b d1		 cmp	 edx, ecx
  0009d	7d 1c		 jge	 SHORT $LN14@DoUseItemP
; File C:\IAGOS\server\v18\Source\Source\_Common\data.h

; 270  : 	if( dwIndex >= (DWORD)m_nMaxIndex )

  0009f	72 0a		 jb	 SHORT $LN19@DoUseItemP
; File C:\IAGOS\server\v18\Source\Source\_Common\Project.h

; 1390 : 	return m_aPropItem.GetAt( nIndex ); 

  000a1	8b 75 08	 mov	 esi, DWORD PTR _pItemElem$[ebp]
; File C:\IAGOS\server\v18\Source\Source\_Common\data.h

; 271  : 		return NULL;

  000a4	33 ff		 xor	 edi, edi
; File C:\IAGOS\server\v18\Source\Source\_Common\Project.h

; 1390 : 	return m_aPropItem.GetAt( nIndex ); 

  000a6	83 c6 0c	 add	 esi, 12			; 0000000cH
  000a9	eb 30		 jmp	 SHORT $LN9@DoUseItemP
$LN19@DoUseItemP:
; File C:\IAGOS\server\v18\Source\Source\_Common\data.h

; 272  : 	return (T*) m_apOffset[ dwIndex ];

  000ab	a1 30 02 00 00	 mov	 eax, DWORD PTR ?prj@@3VCProject@@A+560
; File C:\IAGOS\server\v18\Source\Source\_Common\Project.h

; 1390 : 	return m_aPropItem.GetAt( nIndex ); 

  000b0	8b 75 08	 mov	 esi, DWORD PTR _pItemElem$[ebp]
  000b3	83 c6 0c	 add	 esi, 12			; 0000000cH
; File C:\IAGOS\server\v18\Source\Source\_Common\data.h

; 272  : 	return (T*) m_apOffset[ dwIndex ];

  000b6	8b 3c 90	 mov	 edi, DWORD PTR [eax+edx*4]
; File C:\IAGOS\server\v18\Source\Source\_Common\Project.h

; 1390 : 	return m_aPropItem.GetAt( nIndex ); 

  000b9	eb 20		 jmp	 SHORT $LN9@DoUseItemP
$LN14@DoUseItemP:

; 579  : 	LPCTSTR szErr = Error( _T( "%s min:%d, max:%d, index:%d" ), szMsg, nMin, nMax, nIndex ); 

  000bb	52		 push	 edx
  000bc	51		 push	 ecx
  000bd	6a 00		 push	 0
  000bf	68 00 00 00 00	 push	 OFFSET ??_C@_0BI@BEIFNGEL@GetItemProp?5range_error@
  000c4	68 00 00 00 00	 push	 OFFSET ??_C@_0BM@HMFGHCP@?$CFs?5min?3?$CFd?0?5max?3?$CFd?0?5index?3?$CFd@
  000c9	e8 00 00 00 00	 call	 ?Error@@YAPBDPBDZZ	; Error

; 1389 : 	VERIFY_RANGE_ASSERT( nIndex, 0, m_aPropItem.GetSize(), "GetItemProp range_error", NULL );

  000ce	8b 0d 40 02 00
	00		 mov	 ecx, DWORD PTR ?prj@@3VCProject@@A+576

; 579  : 	LPCTSTR szErr = Error( _T( "%s min:%d, max:%d, index:%d" ), szMsg, nMin, nMax, nIndex ); 

  000d4	83 c4 14	 add	 esp, 20			; 00000014H

; 1389 : 	VERIFY_RANGE_ASSERT( nIndex, 0, m_aPropItem.GetSize(), "GetItemProp range_error", NULL );

  000d7	8b f7		 mov	 esi, edi
  000d9	33 ff		 xor	 edi, edi
$LN9@DoUseItemP:
; File C:\IAGOS\server\v18\Source\Source\_Common\Item.h

; 230  : 	ItemProp*	GetProp()	{	return prj.GetItemProp( m_dwItemId );	}

  000db	8b 16		 mov	 edx, DWORD PTR [esi]
; File C:\IAGOS\server\v18\Source\Source\_Common\Project.h

; 1389 : 	VERIFY_RANGE_ASSERT( nIndex, 0, m_aPropItem.GetSize(), "GetItemProp range_error", NULL );

  000dd	85 d2		 test	 edx, edx
  000df	78 10		 js	 SHORT $LN28@DoUseItemP
  000e1	3b d1		 cmp	 edx, ecx
  000e3	7d 0c		 jge	 SHORT $LN28@DoUseItemP
; File C:\IAGOS\server\v18\Source\Source\_Common\data.h

; 270  : 	if( dwIndex >= (DWORD)m_nMaxIndex )

  000e5	73 26		 jae	 SHORT $LN66@DoUseItemP

; 272  : 	return (T*) m_apOffset[ dwIndex ];

  000e7	a1 30 02 00 00	 mov	 eax, DWORD PTR ?prj@@3VCProject@@A+560
  000ec	8b 04 90	 mov	 eax, DWORD PTR [eax+edx*4]
; File C:\IAGOS\server\v18\Source\Source\_Common\Project.h

; 1390 : 	return m_aPropItem.GetAt( nIndex ); 

  000ef	eb 1e		 jmp	 SHORT $LN23@DoUseItemP
$LN28@DoUseItemP:

; 579  : 	LPCTSTR szErr = Error( _T( "%s min:%d, max:%d, index:%d" ), szMsg, nMin, nMax, nIndex ); 

  000f1	52		 push	 edx
  000f2	51		 push	 ecx
  000f3	6a 00		 push	 0
  000f5	68 00 00 00 00	 push	 OFFSET ??_C@_0BI@BEIFNGEL@GetItemProp?5range_error@
  000fa	68 00 00 00 00	 push	 OFFSET ??_C@_0BM@HMFGHCP@?$CFs?5min?3?$CFd?0?5max?3?$CFd?0?5index?3?$CFd@
  000ff	e8 00 00 00 00	 call	 ?Error@@YAPBDPBDZZ	; Error

; 1389 : 	VERIFY_RANGE_ASSERT( nIndex, 0, m_aPropItem.GetSize(), "GetItemProp range_error", NULL );

  00104	8b 0d 40 02 00
	00		 mov	 ecx, DWORD PTR ?prj@@3VCProject@@A+576

; 579  : 	LPCTSTR szErr = Error( _T( "%s min:%d, max:%d, index:%d" ), szMsg, nMin, nMax, nIndex ); 

  0010a	83 c4 14	 add	 esp, 20			; 00000014H
$LN66@DoUseItemP:
; File C:\IAGOS\server\v18\Source\Source\_Common\MoverSkill.cpp

; 4673 : 	if( pBuff && static_cast<int>( pItemElem->GetProp()->dwSkillTime ) > static_cast<int>( pItemElem->GetProp()->dwSkillTime + ( pBuff->GetTotal() - ( dwCurr - pBuff->GetInst() ) ) ) )

  0010d	33 c0		 xor	 eax, eax
$LN23@DoUseItemP:
  0010f	8b 55 fc	 mov	 edx, DWORD PTR _pBuff$1$[ebp]
  00112	8b 80 c0 01 00
	00		 mov	 eax, DWORD PTR [eax+448]
  00118	03 42 10	 add	 eax, DWORD PTR [edx+16]
  0011b	03 42 0c	 add	 eax, DWORD PTR [edx+12]
  0011e	2b 45 f8	 sub	 eax, DWORD PTR _dwCurr$1$[ebp]
  00121	39 87 c0 01 00
	00		 cmp	 DWORD PTR [edi+448], eax
  00127	7e 0e		 jle	 SHORT $LN5@DoUseItemP

; 4683 : 	return 0;
; 4684 : }

  00129	5f		 pop	 edi
  0012a	5e		 pop	 esi
  0012b	b8 01 00 00 00	 mov	 eax, 1
  00130	5b		 pop	 ebx
  00131	8b e5		 mov	 esp, ebp
  00133	5d		 pop	 ebp
  00134	c2 04 00	 ret	 4
$LN5@DoUseItemP:
; File C:\IAGOS\server\v18\Source\Source\_Common\Item.h

; 230  : 	ItemProp*	GetProp()	{	return prj.GetItemProp( m_dwItemId );	}

  00137	8b 16		 mov	 edx, DWORD PTR [esi]
; File C:\IAGOS\server\v18\Source\Source\_Common\Project.h

; 1389 : 	VERIFY_RANGE_ASSERT( nIndex, 0, m_aPropItem.GetSize(), "GetItemProp range_error", NULL );

  00139	85 d2		 test	 edx, edx
  0013b	78 10		 js	 SHORT $LN42@DoUseItemP
  0013d	3b d1		 cmp	 edx, ecx
  0013f	7d 0c		 jge	 SHORT $LN42@DoUseItemP
; File C:\IAGOS\server\v18\Source\Source\_Common\data.h

; 270  : 	if( dwIndex >= (DWORD)m_nMaxIndex )

  00141	73 20		 jae	 SHORT $LN67@DoUseItemP

; 272  : 	return (T*) m_apOffset[ dwIndex ];

  00143	a1 30 02 00 00	 mov	 eax, DWORD PTR ?prj@@3VCProject@@A+560
  00148	8b 04 90	 mov	 eax, DWORD PTR [eax+edx*4]
; File C:\IAGOS\server\v18\Source\Source\_Common\Project.h

; 1390 : 	return m_aPropItem.GetAt( nIndex ); 

  0014b	eb 18		 jmp	 SHORT $LN37@DoUseItemP
$LN42@DoUseItemP:

; 579  : 	LPCTSTR szErr = Error( _T( "%s min:%d, max:%d, index:%d" ), szMsg, nMin, nMax, nIndex ); 

  0014d	52		 push	 edx
  0014e	51		 push	 ecx
  0014f	6a 00		 push	 0
  00151	68 00 00 00 00	 push	 OFFSET ??_C@_0BI@BEIFNGEL@GetItemProp?5range_error@
  00156	68 00 00 00 00	 push	 OFFSET ??_C@_0BM@HMFGHCP@?$CFs?5min?3?$CFd?0?5max?3?$CFd?0?5index?3?$CFd@
  0015b	e8 00 00 00 00	 call	 ?Error@@YAPBDPBDZZ	; Error
  00160	83 c4 14	 add	 esp, 20			; 00000014H
$LN67@DoUseItemP:
; File C:\IAGOS\server\v18\Source\Source\_Common\MoverSkill.cpp

; 4682 : 	DoApplySkill( this, pItemElem->GetProp(), NULL );

  00163	33 c0		 xor	 eax, eax
$LN37@DoUseItemP:
  00165	6a 00		 push	 0
  00167	6a 00		 push	 0
  00169	6a 00		 push	 0
  0016b	6a 00		 push	 0
  0016d	6a 00		 push	 0
  0016f	50		 push	 eax
  00170	53		 push	 ebx
  00171	8b cb		 mov	 ecx, ebx
  00173	e8 00 00 00 00	 call	 ?DoApplySkill@CCtrl@@QAEHPAV1@PAUItemProp@@PAUAddSkillProp@@_NHHH@Z ; CCtrl::DoApplySkill
  00178	5f		 pop	 edi

; 4683 : 	return 0;
; 4684 : }

  00179	5e		 pop	 esi
  0017a	33 c0		 xor	 eax, eax
  0017c	5b		 pop	 ebx
  0017d	8b e5		 mov	 esp, ebp
  0017f	5d		 pop	 ebp
  00180	c2 04 00	 ret	 4
?DoUseItemPetTonic@CMover@@AAEHPAVCItemElem@@@Z ENDP	; CMover::DoUseItemPetTonic
_TEXT	ENDS
; Function compile flags: /Ogtp
; File C:\IAGOS\server\v18\Source\Source\_Common\MoverSkill.cpp
; File C:\IAGOS\server\v18\Source\Source\_Common\Mover.h
; File C:\IAGOS\server\v18\Source\Source\_Common\MoverSkill.cpp
; File C:\IAGOS\server\v18\Source\Source\_Common\Mover.h
; File C:\IAGOS\server\v18\Source\Source\_Common\MoverSkill.cpp
; File C:\IAGOS\server\v18\Source\Source\_Common\Item.h
; File C:\IAGOS\server\v18\Source\Source\_Common\MoverSkill.cpp
; File C:\IAGOS\server\v18\Source\Source\_Common\Item.h
; File C:\IAGOS\server\v18\Source\Source\_Common\MoverSkill.cpp
; File C:\IAGOS\server\v18\Source\Source\_Common\Item.h
; File C:\IAGOS\server\v18\Source\Source\_Common\MoverSkill.cpp
; File C:\IAGOS\server\v18\Source\Source\_Common\Item.h
; File C:\IAGOS\server\v18\Source\Source\_Common\MoverSkill.cpp
; File C:\IAGOS\server\v18\Source\Source\_Common\Item.h
; File C:\IAGOS\server\v18\Source\Source\_Common\MoverSkill.cpp
; File C:\IAGOS\server\v18\Source\Source\_Common\Project.h
; File C:\IAGOS\server\v18\Source\Source\_Common\data.h
; File C:\IAGOS\server\v18\Source\Source\_Common\MoverSkill.cpp
; File C:\IAGOS\server\v18\Source\Source\_Common\Project.h
; File C:\IAGOS\server\v18\Source\Source\_Common\MoverSkill.cpp
; File C:\IAGOS\server\v18\Source\Source\_Common\Item.h
; File C:\IAGOS\server\v18\Source\Source\_Common\MoverSkill.cpp
; File C:\IAGOS\server\v18\Source\Source\_Common\Item.h
; File C:\IAGOS\server\v18\Source\Source\_Common\MoverSkill.cpp
;	COMDAT ?ProcessVisPet@CMover@@QAEXXZ
_TEXT	SEGMENT
?ProcessVisPet@CMover@@QAEXXZ PROC			; CMover::ProcessVisPet, COMDAT
; _this$ = ecx

; 4467 : {

  00000	53		 push	 ebx
  00001	8b d9		 mov	 ebx, ecx
; File C:\IAGOS\server\v18\Source\Source\_Common\Mover.h

; 825  : 	BOOL		HasActivatedVisPet()	{ return m_objIdVisPet != NULL_ID; }

  00003	8b 83 a0 10 00
	00		 mov	 eax, DWORD PTR [ebx+4256]
  00009	83 f8 ff	 cmp	 eax, -1
; File C:\IAGOS\server\v18\Source\Source\_Common\MoverSkill.cpp

; 4468 : 	if( HasActivatedVisPet() )

  0000c	0f 84 c4 00 00
	00		 je	 $LN3@ProcessVis
; File C:\IAGOS\server\v18\Source\Source\_Common\Mover.h

; 823  : 	CItemElem*	GetVisPetItem( void )	{ return m_Inventory.GetAtId( m_objIdVisPet ); }

  00012	50		 push	 eax
  00013	8d 8b fc 0a 00
	00		 lea	 ecx, DWORD PTR [ebx+2812]
  00019	e8 00 00 00 00	 call	 ?GetAtId@?$CItemContainer@VCItemElem@@@@QAEPAVCItemElem@@K@Z ; CItemContainer<CItemElem>::GetAtId
; File C:\IAGOS\server\v18\Source\Source\_Common\MoverSkill.cpp

; 4471 : 		if( pItemElem )

  0001e	85 c0		 test	 eax, eax
  00020	0f 84 b0 00 00
	00		 je	 $LN3@ProcessVis
  00026	56		 push	 esi
  00027	57		 push	 edi
; File C:\IAGOS\server\v18\Source\Source\_Common\Item.h

; 103  : 	int		GetPiercingSize()	{	return m_piercing.GetPiercingSize();		}

  00028	8d 78 3c	 lea	 edi, DWORD PTR [eax+60]
; File C:\IAGOS\server\v18\Source\Source\_Common\MoverSkill.cpp

; 4473 : 			for( int i=0; i<pItemElem->GetPiercingSize(); i++ )

  0002b	33 f6		 xor	 esi, esi
; File C:\IAGOS\server\v18\Source\Source\_Common\Item.h

; 103  : 	int		GetPiercingSize()	{	return m_piercing.GetPiercingSize();		}

  0002d	8b cf		 mov	 ecx, edi
  0002f	e8 00 00 00 00	 call	 ?GetPiercingSize@CPiercing@@QAEHXZ ; CPiercing::GetPiercingSize
; File C:\IAGOS\server\v18\Source\Source\_Common\MoverSkill.cpp

; 4473 : 			for( int i=0; i<pItemElem->GetPiercingSize(); i++ )

  00034	85 c0		 test	 eax, eax
  00036	0f 8e 98 00 00
	00		 jle	 $LN47@ProcessVis
  0003c	0f 1f 40 00	 npad	 4
$LL4@ProcessVis:
; File C:\IAGOS\server\v18\Source\Source\_Common\Item.h

; 105  : 	DWORD	GetPiercingItem( int nth )	{	return m_piercing.GetPiercingItem( nth );	}

  00040	56		 push	 esi
  00041	8b cf		 mov	 ecx, edi
  00043	e8 00 00 00 00	 call	 ?GetPiercingItem@CPiercing@@QAEKH@Z ; CPiercing::GetPiercingItem
; File C:\IAGOS\server\v18\Source\Source\_Common\MoverSkill.cpp

; 4475 : 				if( pItemElem->GetPiercingItem( i ) != 0 && time_null() >= pItemElem->GetVisKeepTime( i ) )

  00048	85 c0		 test	 eax, eax
  0004a	74 78		 je	 SHORT $LN2@ProcessVis
; File C:\IAGOS\server\v18\Source\Source\_Common\Item.h

; 279  : 	time_t	GetVisKeepTime( int nth )					{ return m_piercing.GetVisKeepTime( nth ); }

  0004c	56		 push	 esi
  0004d	8b cf		 mov	 ecx, edi
  0004f	e8 00 00 00 00	 call	 ?GetVisKeepTime@CPiercing@@QAEJH@Z ; CPiercing::GetVisKeepTime
; File C:\IAGOS\server\v18\Source\Source\_Common\MoverSkill.cpp

; 4475 : 				if( pItemElem->GetPiercingItem( i ) != 0 && time_null() >= pItemElem->GetVisKeepTime( i ) )

  00054	39 05 00 00 00
	00		 cmp	 DWORD PTR ?g_tCurrent@@3JA, eax ; g_tCurrent
  0005a	7c 68		 jl	 SHORT $LN2@ProcessVis
; File C:\IAGOS\server\v18\Source\Source\_Common\Item.h

; 105  : 	DWORD	GetPiercingItem( int nth )	{	return m_piercing.GetPiercingItem( nth );	}

  0005c	56		 push	 esi
  0005d	8b cf		 mov	 ecx, edi
  0005f	e8 00 00 00 00	 call	 ?GetPiercingItem@CPiercing@@QAEKH@Z ; CPiercing::GetPiercingItem
; File C:\IAGOS\server\v18\Source\Source\_Common\MoverSkill.cpp

; 4477 : 					ItemProp* pItemProp = prj.GetItemProp( pItemElem->GetPiercingItem( i ) );

  00064	8b c8		 mov	 ecx, eax
; File C:\IAGOS\server\v18\Source\Source\_Common\Project.h

; 1389 : 	VERIFY_RANGE_ASSERT( nIndex, 0, m_aPropItem.GetSize(), "GetItemProp range_error", NULL );

  00066	a1 40 02 00 00	 mov	 eax, DWORD PTR ?prj@@3VCProject@@A+576
  0006b	85 c9		 test	 ecx, ecx
  0006d	78 2f		 js	 SHORT $LN27@ProcessVis
  0006f	3b c8		 cmp	 ecx, eax
  00071	7d 2b		 jge	 SHORT $LN27@ProcessVis
; File C:\IAGOS\server\v18\Source\Source\_Common\data.h

; 270  : 	if( dwIndex >= (DWORD)m_nMaxIndex )

  00073	72 04		 jb	 SHORT $LN32@ProcessVis

; 271  : 		return NULL;

  00075	33 c0		 xor	 eax, eax
  00077	eb 08		 jmp	 SHORT $LN31@ProcessVis
$LN32@ProcessVis:

; 272  : 	return (T*) m_apOffset[ dwIndex ];

  00079	a1 30 02 00 00	 mov	 eax, DWORD PTR ?prj@@3VCProject@@A+560
  0007e	8b 04 88	 mov	 eax, DWORD PTR [eax+ecx*4]
$LN31@ProcessVis:
; File C:\IAGOS\server\v18\Source\Source\_Common\MoverSkill.cpp

; 4478 : 					if( pItemProp )

  00081	85 c0		 test	 eax, eax
  00083	74 2f		 je	 SHORT $LN8@ProcessVis

; 4479 : 						static_cast<CUser*>( this )->AddDefinedText( TID_GAME_BUFFPET_TIMEOUTVIS, "\"%s\"", pItemProp->szName );

  00085	83 c0 04	 add	 eax, 4
  00088	50		 push	 eax
  00089	68 00 00 00 00	 push	 OFFSET ??_C@_04OEDFLLKD@?$CC?$CFs?$CC@
  0008e	68 82 10 00 00	 push	 4226			; 00001082H
  00093	53		 push	 ebx
  00094	e8 00 00 00 00	 call	 ?AddDefinedText@CUser@@QAAXHPBDZZ ; CUser::AddDefinedText
  00099	83 c4 10	 add	 esp, 16			; 00000010H
  0009c	eb 16		 jmp	 SHORT $LN8@ProcessVis
$LN27@ProcessVis:
; File C:\IAGOS\server\v18\Source\Source\_Common\Project.h

; 579  : 	LPCTSTR szErr = Error( _T( "%s min:%d, max:%d, index:%d" ), szMsg, nMin, nMax, nIndex ); 

  0009e	51		 push	 ecx
  0009f	50		 push	 eax
  000a0	6a 00		 push	 0
  000a2	68 00 00 00 00	 push	 OFFSET ??_C@_0BI@BEIFNGEL@GetItemProp?5range_error@
  000a7	68 00 00 00 00	 push	 OFFSET ??_C@_0BM@HMFGHCP@?$CFs?5min?3?$CFd?0?5max?3?$CFd?0?5index?3?$CFd@
  000ac	e8 00 00 00 00	 call	 ?Error@@YAPBDPBDZZ	; Error
  000b1	83 c4 14	 add	 esp, 20			; 00000014H
$LN8@ProcessVis:
; File C:\IAGOS\server\v18\Source\Source\_Common\MoverSkill.cpp

; 4480 : 					CItemUpgrade::GetInstance()->RemovePetVisItem( static_cast<CUser*>( this ), i, TRUE );

  000b4	6a 01		 push	 1
  000b6	56		 push	 esi
  000b7	53		 push	 ebx
  000b8	e8 00 00 00 00	 call	 ?GetInstance@CItemUpgrade@@SAPAV1@XZ ; CItemUpgrade::GetInstance
  000bd	8b c8		 mov	 ecx, eax
  000bf	e8 00 00 00 00	 call	 ?RemovePetVisItem@CItemUpgrade@@QAEXPAVCUser@@HH@Z ; CItemUpgrade::RemovePetVisItem
$LN2@ProcessVis:
; File C:\IAGOS\server\v18\Source\Source\_Common\Item.h

; 103  : 	int		GetPiercingSize()	{	return m_piercing.GetPiercingSize();		}

  000c4	8b cf		 mov	 ecx, edi
; File C:\IAGOS\server\v18\Source\Source\_Common\MoverSkill.cpp

; 4473 : 			for( int i=0; i<pItemElem->GetPiercingSize(); i++ )

  000c6	46		 inc	 esi
; File C:\IAGOS\server\v18\Source\Source\_Common\Item.h

; 103  : 	int		GetPiercingSize()	{	return m_piercing.GetPiercingSize();		}

  000c7	e8 00 00 00 00	 call	 ?GetPiercingSize@CPiercing@@QAEHXZ ; CPiercing::GetPiercingSize
; File C:\IAGOS\server\v18\Source\Source\_Common\MoverSkill.cpp

; 4473 : 			for( int i=0; i<pItemElem->GetPiercingSize(); i++ )

  000cc	3b f0		 cmp	 esi, eax
  000ce	0f 8c 6c ff ff
	ff		 jl	 $LL4@ProcessVis
$LN47@ProcessVis:
  000d4	5f		 pop	 edi
  000d5	5e		 pop	 esi
$LN3@ProcessVis:
  000d6	5b		 pop	 ebx

; 4481 : 				}
; 4482 : 			}
; 4483 : 		}		
; 4484 : 	}
; 4485 : }

  000d7	c3		 ret	 0
?ProcessVisPet@CMover@@QAEXXZ ENDP			; CMover::ProcessVisPet
_TEXT	ENDS
; Function compile flags: /Ogtp
; File C:\IAGOS\server\v18\Source\Source\_Common\MoverSkill.cpp
; File C:\IAGOS\server\v18\Source\Source\_Common\Item.h
; File C:\IAGOS\server\v18\Source\Source\_Common\MoverSkill.cpp
; File C:\IAGOS\server\v18\Source\Source\_Common\Item.h
; File C:\IAGOS\server\v18\Source\Source\_Common\MoverSkill.cpp
; File C:\IAGOS\server\v18\Source\Source\_Common\Item.h
; File C:\IAGOS\server\v18\Source\Source\_Common\MoverSkill.cpp
; File C:\IAGOS\server\v18\Source\Source\_Common\Item.h
; File C:\IAGOS\server\v18\Source\Source\_Common\Project.h
; File C:\IAGOS\server\v18\Source\Source\_Common\data.h
; File C:\IAGOS\server\v18\Source\Source\_Common\Project.h
; File C:\IAGOS\server\v18\Source\Source\_Common\MoverSkill.cpp
; File C:\IAGOS\server\v18\Source\Source\_Common\Item.h
; File C:\IAGOS\server\v18\Source\Source\_Common\MoverSkill.cpp
; File C:\IAGOS\server\v18\Source\Source\_Common\Item.h
; File C:\IAGOS\server\v18\Source\Source\_Common\MoverSkill.cpp
;	COMDAT ?ResetPetVisDST@CMover@@QAEXPAVCItemElem@@@Z
_TEXT	SEGMENT
_vecValidTable$2 = -24					; size = 12
__$EHRec$ = -12						; size = 12
_pItemElem$ = 8						; size = 4
?ResetPetVisDST@CMover@@QAEXPAVCItemElem@@@Z PROC	; CMover::ResetPetVisDST, COMDAT
; _this$ = ecx

; 4447 : {

  00000	55		 push	 ebp
  00001	8b ec		 mov	 ebp, esp
  00003	6a ff		 push	 -1
  00005	68 00 00 00 00	 push	 __ehhandler$?ResetPetVisDST@CMover@@QAEXPAVCItemElem@@@Z
  0000a	64 a1 00 00 00
	00		 mov	 eax, DWORD PTR fs:0
  00010	50		 push	 eax
  00011	83 ec 0c	 sub	 esp, 12			; 0000000cH
  00014	53		 push	 ebx
  00015	56		 push	 esi
  00016	57		 push	 edi
  00017	a1 00 00 00 00	 mov	 eax, DWORD PTR ___security_cookie
  0001c	33 c5		 xor	 eax, ebp
  0001e	50		 push	 eax
  0001f	8d 45 f4	 lea	 eax, DWORD PTR __$EHRec$[ebp]
  00022	64 a3 00 00 00
	00		 mov	 DWORD PTR fs:0, eax
  00028	8b d9		 mov	 ebx, ecx

; 4448 : 	if( pItemElem && pItemElem->IsVisPet() )

  0002a	8b 75 08	 mov	 esi, DWORD PTR _pItemElem$[ebp]
  0002d	85 f6		 test	 esi, esi
  0002f	0f 84 d1 00 00
	00		 je	 $LN5@ResetPetVi
  00035	8b ce		 mov	 ecx, esi
  00037	e8 00 00 00 00	 call	 ?IsVisPet@CItemElem@@QAEHXZ ; CItemElem::IsVisPet
  0003c	85 c0		 test	 eax, eax
  0003e	0f 84 c2 00 00
	00		 je	 $LN5@ResetPetVi

; 4449 : 	{
; 4450 : 		m_buffs.RemoveBuff( BUFF_EQUIP, (WORD)( pItemElem->m_dwItemId ), FALSE );

  00044	0f b7 46 0c	 movzx	 eax, WORD PTR [esi+12]
  00048	8d 8b ec 02 00
	00		 lea	 ecx, DWORD PTR [ebx+748]
  0004e	6a 00		 push	 0
  00050	50		 push	 eax
  00051	6a 04		 push	 4
  00053	e8 00 00 00 00	 call	 ?RemoveBuff@CBuffMgr@@QAEXGGH@Z ; CBuffMgr::RemoveBuff

; 4452 : 		vector<BYTE> vecValidTable = GetValidVisTable( pItemElem );

  00058	56		 push	 esi
  00059	8d 45 e8	 lea	 eax, DWORD PTR _vecValidTable$2[ebp]
  0005c	8b cb		 mov	 ecx, ebx
  0005e	50		 push	 eax
  0005f	e8 00 00 00 00	 call	 ?GetValidVisTable@CMover@@QAE?AV?$vector@EV?$allocator@E@std@@@std@@PAVCItemElem@@@Z ; CMover::GetValidVisTable
; File C:\IAGOS\server\v18\Source\Source\_Common\Item.h

; 103  : 	int		GetPiercingSize()	{	return m_piercing.GetPiercingSize();		}

  00064	83 c6 3c	 add	 esi, 60			; 0000003cH
; File C:\IAGOS\server\v18\Source\Source\_Common\MoverSkill.cpp

; 4452 : 		vector<BYTE> vecValidTable = GetValidVisTable( pItemElem );

  00067	c7 45 fc 00 00
	00 00		 mov	 DWORD PTR __$EHRec$[ebp+8], 0
; File C:\IAGOS\server\v18\Source\Source\_Common\Item.h

; 103  : 	int		GetPiercingSize()	{	return m_piercing.GetPiercingSize();		}

  0006e	8b ce		 mov	 ecx, esi
; File C:\IAGOS\server\v18\Source\Source\_Common\MoverSkill.cpp

; 4453 : 		for( int i=0; i<pItemElem->GetPiercingSize(); i++ )

  00070	33 ff		 xor	 edi, edi
; File C:\IAGOS\server\v18\Source\Source\_Common\Item.h

; 103  : 	int		GetPiercingSize()	{	return m_piercing.GetPiercingSize();		}

  00072	e8 00 00 00 00	 call	 ?GetPiercingSize@CPiercing@@QAEHXZ ; CPiercing::GetPiercingSize
; File C:\IAGOS\server\v18\Source\Source\_Common\MoverSkill.cpp

; 4453 : 		for( int i=0; i<pItemElem->GetPiercingSize(); i++ )

  00077	85 c0		 test	 eax, eax
  00079	0f 8e 7f 00 00
	00		 jle	 $LN3@ResetPetVi
  0007f	90		 npad	 1
$LL4@ResetPetVi:
; File C:\IAGOS\server\v18\Source\Source\_Common\Item.h

; 105  : 	DWORD	GetPiercingItem( int nth )	{	return m_piercing.GetPiercingItem( nth );	}

  00080	57		 push	 edi
  00081	8b ce		 mov	 ecx, esi
  00083	e8 00 00 00 00	 call	 ?GetPiercingItem@CPiercing@@QAEKH@Z ; CPiercing::GetPiercingItem
; File C:\IAGOS\server\v18\Source\Source\_Common\Project.h

; 1389 : 	VERIFY_RANGE_ASSERT( nIndex, 0, m_aPropItem.GetSize(), "GetItemProp range_error", NULL );

  00088	8b 0d 40 02 00
	00		 mov	 ecx, DWORD PTR ?prj@@3VCProject@@A+576
  0008e	85 c0		 test	 eax, eax
  00090	78 11		 js	 SHORT $LN18@ResetPetVi
  00092	3b c1		 cmp	 eax, ecx
  00094	7d 0d		 jge	 SHORT $LN18@ResetPetVi
; File C:\IAGOS\server\v18\Source\Source\_Common\data.h

; 270  : 	if( dwIndex >= (DWORD)m_nMaxIndex )

  00096	73 21		 jae	 SHORT $LN33@ResetPetVi

; 271  : 		return NULL;
; 272  : 	return (T*) m_apOffset[ dwIndex ];

  00098	8b 35 30 02 00
	00		 mov	 esi, DWORD PTR ?prj@@3VCProject@@A+560
  0009e	8b 34 86	 mov	 esi, DWORD PTR [esi+eax*4]
; File C:\IAGOS\server\v18\Source\Source\_Common\Project.h

; 1390 : 	return m_aPropItem.GetAt( nIndex ); 

  000a1	eb 18		 jmp	 SHORT $LN13@ResetPetVi
$LN18@ResetPetVi:

; 579  : 	LPCTSTR szErr = Error( _T( "%s min:%d, max:%d, index:%d" ), szMsg, nMin, nMax, nIndex ); 

  000a3	50		 push	 eax
  000a4	51		 push	 ecx
  000a5	6a 00		 push	 0
  000a7	68 00 00 00 00	 push	 OFFSET ??_C@_0BI@BEIFNGEL@GetItemProp?5range_error@
  000ac	68 00 00 00 00	 push	 OFFSET ??_C@_0BM@HMFGHCP@?$CFs?5min?3?$CFd?0?5max?3?$CFd?0?5index?3?$CFd@
  000b1	e8 00 00 00 00	 call	 ?Error@@YAPBDPBDZZ	; Error
  000b6	83 c4 14	 add	 esp, 20			; 00000014H
$LN33@ResetPetVi:
; File C:\IAGOS\server\v18\Source\Source\_Common\MoverSkill.cpp

; 4456 : 			if( vecValidTable[i] == SUCCSESS_NEEDVIS && pItemProp )

  000b9	33 f6		 xor	 esi, esi
$LN13@ResetPetVi:
  000bb	8b 45 e8	 mov	 eax, DWORD PTR _vecValidTable$2[ebp]
  000be	80 3c 38 03	 cmp	 BYTE PTR [eax+edi], 3
  000c2	75 28		 jne	 SHORT $LN2@ResetPetVi
  000c4	85 f6		 test	 esi, esi
  000c6	74 24		 je	 SHORT $LN2@ResetPetVi

; 4457 : 			{
; 4458 : 				ResetDestParam( 0, pItemProp );

  000c8	6a 01		 push	 1
  000ca	56		 push	 esi
  000cb	6a 00		 push	 0
  000cd	8b cb		 mov	 ecx, ebx
  000cf	e8 00 00 00 00	 call	 ?ResetDestParam@CMover@@QAEXHPAUItemProp@@H@Z ; CMover::ResetDestParam

; 4459 : 				ResetDestParam( 1, pItemProp );

  000d4	6a 01		 push	 1
  000d6	56		 push	 esi
  000d7	6a 01		 push	 1
  000d9	8b cb		 mov	 ecx, ebx
  000db	e8 00 00 00 00	 call	 ?ResetDestParam@CMover@@QAEXHPAUItemProp@@H@Z ; CMover::ResetDestParam

; 4460 : 				ResetDestParam( 2, pItemProp );

  000e0	6a 01		 push	 1
  000e2	56		 push	 esi
  000e3	6a 02		 push	 2
  000e5	8b cb		 mov	 ecx, ebx
  000e7	e8 00 00 00 00	 call	 ?ResetDestParam@CMover@@QAEXHPAUItemProp@@H@Z ; CMover::ResetDestParam
$LN2@ResetPetVi:
; File C:\IAGOS\server\v18\Source\Source\_Common\Item.h

; 103  : 	int		GetPiercingSize()	{	return m_piercing.GetPiercingSize();		}

  000ec	8b 75 08	 mov	 esi, DWORD PTR _pItemElem$[ebp]
; File C:\IAGOS\server\v18\Source\Source\_Common\MoverSkill.cpp

; 4453 : 		for( int i=0; i<pItemElem->GetPiercingSize(); i++ )

  000ef	47		 inc	 edi
; File C:\IAGOS\server\v18\Source\Source\_Common\Item.h

; 103  : 	int		GetPiercingSize()	{	return m_piercing.GetPiercingSize();		}

  000f0	83 c6 3c	 add	 esi, 60			; 0000003cH
  000f3	8b ce		 mov	 ecx, esi
  000f5	e8 00 00 00 00	 call	 ?GetPiercingSize@CPiercing@@QAEHXZ ; CPiercing::GetPiercingSize
; File C:\IAGOS\server\v18\Source\Source\_Common\MoverSkill.cpp

; 4453 : 		for( int i=0; i<pItemElem->GetPiercingSize(); i++ )

  000fa	3b f8		 cmp	 edi, eax
  000fc	7c 82		 jl	 SHORT $LL4@ResetPetVi
$LN3@ResetPetVi:

; 4461 : 			}
; 4462 : 		}
; 4463 : 	}

  000fe	8d 4d e8	 lea	 ecx, DWORD PTR _vecValidTable$2[ebp]
  00101	e8 00 00 00 00	 call	 ??1?$vector@EV?$allocator@E@std@@@std@@QAE@XZ ; std::vector<unsigned char,std::allocator<unsigned char> >::~vector<unsigned char,std::allocator<unsigned char> >
$LN5@ResetPetVi:

; 4464 : }

  00106	8b 4d f4	 mov	 ecx, DWORD PTR __$EHRec$[ebp]
  00109	64 89 0d 00 00
	00 00		 mov	 DWORD PTR fs:0, ecx
  00110	59		 pop	 ecx
  00111	5f		 pop	 edi
  00112	5e		 pop	 esi
  00113	5b		 pop	 ebx
  00114	8b e5		 mov	 esp, ebp
  00116	5d		 pop	 ebp
  00117	c2 04 00	 ret	 4
_TEXT	ENDS
;	COMDAT text$x
text$x	SEGMENT
__unwindfunclet$?ResetPetVisDST@CMover@@QAEXPAVCItemElem@@@Z$0:
  00000	8d 4d e8	 lea	 ecx, DWORD PTR _vecValidTable$2[ebp]
  00003	e9 00 00 00 00	 jmp	 ??1?$vector@EV?$allocator@E@std@@@std@@QAE@XZ ; std::vector<unsigned char,std::allocator<unsigned char> >::~vector<unsigned char,std::allocator<unsigned char> >
  00008	cc		 int	 3
  00009	cc		 int	 3
  0000a	cc		 int	 3
  0000b	cc		 int	 3
  0000c	cc		 int	 3
__ehhandler$?ResetPetVisDST@CMover@@QAEXPAVCItemElem@@@Z:
  0000d	90		 npad	 1
  0000e	90		 npad	 1
  0000f	8b 54 24 08	 mov	 edx, DWORD PTR [esp+8]
  00013	8d 42 0c	 lea	 eax, DWORD PTR [edx+12]
  00016	8b 4a e4	 mov	 ecx, DWORD PTR [edx-28]
  00019	33 c8		 xor	 ecx, eax
  0001b	e8 00 00 00 00	 call	 @__security_check_cookie@4
  00020	b8 00 00 00 00	 mov	 eax, OFFSET __ehfuncinfo$?ResetPetVisDST@CMover@@QAEXPAVCItemElem@@@Z
  00025	e9 00 00 00 00	 jmp	 ___CxxFrameHandler3
text$x	ENDS
?ResetPetVisDST@CMover@@QAEXPAVCItemElem@@@Z ENDP	; CMover::ResetPetVisDST
; Function compile flags: /Ogtp
; File C:\IAGOS\server\v18\Source\Source\_Common\MoverSkill.cpp
; File C:\IAGOS\server\v18\Source\Source\_Common\Item.h
; File C:\IAGOS\server\v18\Source\Source\_Common\MoverSkill.cpp
; File C:\IAGOS\server\v18\Source\Source\_Common\Item.h
; File C:\IAGOS\server\v18\Source\Source\_Common\MoverSkill.cpp
; File C:\IAGOS\server\v18\Source\Source\_Common\Item.h
; File C:\IAGOS\server\v18\Source\Source\_Common\MoverSkill.cpp
; File C:\IAGOS\server\v18\Source\Source\_Common\Item.h
; File C:\IAGOS\server\v18\Source\Source\_Common\Project.h
; File C:\IAGOS\server\v18\Source\Source\_Common\data.h
; File C:\IAGOS\server\v18\Source\Source\_Common\Project.h
; File C:\IAGOS\server\v18\Source\Source\_Common\MoverSkill.cpp
; File C:\IAGOS\server\v18\Source\Source\_Common\Item.h
; File C:\IAGOS\server\v18\Source\Source\_Common\MoverSkill.cpp
; File C:\IAGOS\server\v18\Source\Source\_Common\Item.h
; File C:\IAGOS\server\v18\Source\Source\_Common\MoverSkill.cpp
;	COMDAT ?SetPetVisDST@CMover@@QAEXPAVCItemElem@@@Z
_TEXT	SEGMENT
_vecValidTable$2 = -24					; size = 12
__$EHRec$ = -12						; size = 12
_pItemElem$ = 8						; size = 4
?SetPetVisDST@CMover@@QAEXPAVCItemElem@@@Z PROC		; CMover::SetPetVisDST, COMDAT
; _this$ = ecx

; 4422 : {

  00000	55		 push	 ebp
  00001	8b ec		 mov	 ebp, esp
  00003	6a ff		 push	 -1
  00005	68 00 00 00 00	 push	 __ehhandler$?SetPetVisDST@CMover@@QAEXPAVCItemElem@@@Z
  0000a	64 a1 00 00 00
	00		 mov	 eax, DWORD PTR fs:0
  00010	50		 push	 eax
  00011	83 ec 0c	 sub	 esp, 12			; 0000000cH
  00014	53		 push	 ebx
  00015	56		 push	 esi
  00016	57		 push	 edi
  00017	a1 00 00 00 00	 mov	 eax, DWORD PTR ___security_cookie
  0001c	33 c5		 xor	 eax, ebp
  0001e	50		 push	 eax
  0001f	8d 45 f4	 lea	 eax, DWORD PTR __$EHRec$[ebp]
  00022	64 a3 00 00 00
	00		 mov	 DWORD PTR fs:0, eax
  00028	8b f9		 mov	 edi, ecx

; 4423 : 	if( pItemElem && pItemElem->IsVisPet() )

  0002a	8b 75 08	 mov	 esi, DWORD PTR _pItemElem$[ebp]
  0002d	85 f6		 test	 esi, esi
  0002f	0f 84 fd 00 00
	00		 je	 $LN5@SetPetVisD
  00035	8b ce		 mov	 ecx, esi
  00037	e8 00 00 00 00	 call	 ?IsVisPet@CItemElem@@QAEHXZ ; CItemElem::IsVisPet
  0003c	85 c0		 test	 eax, eax
  0003e	0f 84 ee 00 00
	00		 je	 $LN5@SetPetVisD

; 4424 : 	{
; 4425 : 		AddBuff( BUFF_EQUIP, (WORD)( pItemElem->m_dwItemId ), 1, 999999999 );

  00044	0f b7 46 0c	 movzx	 eax, WORD PTR [esi+12]
  00048	8b cf		 mov	 ecx, edi
  0004a	6a ff		 push	 -1
  0004c	68 ff c9 9a 3b	 push	 999999999		; 3b9ac9ffH
  00051	6a 01		 push	 1
  00053	50		 push	 eax
  00054	6a 04		 push	 4
  00056	e8 00 00 00 00	 call	 ?AddBuff@CMover@@QAEHGGKKK@Z ; CMover::AddBuff

; 4427 : 		vector<BYTE> vecValidTable = GetValidVisTable( pItemElem );

  0005b	56		 push	 esi
  0005c	8d 45 e8	 lea	 eax, DWORD PTR _vecValidTable$2[ebp]
  0005f	8b cf		 mov	 ecx, edi
  00061	50		 push	 eax
  00062	e8 00 00 00 00	 call	 ?GetValidVisTable@CMover@@QAE?AV?$vector@EV?$allocator@E@std@@@std@@PAVCItemElem@@@Z ; CMover::GetValidVisTable
; File C:\IAGOS\server\v18\Source\Source\_Common\Item.h

; 103  : 	int		GetPiercingSize()	{	return m_piercing.GetPiercingSize();		}

  00067	83 c6 3c	 add	 esi, 60			; 0000003cH
; File C:\IAGOS\server\v18\Source\Source\_Common\MoverSkill.cpp

; 4427 : 		vector<BYTE> vecValidTable = GetValidVisTable( pItemElem );

  0006a	c7 45 fc 00 00
	00 00		 mov	 DWORD PTR __$EHRec$[ebp+8], 0
; File C:\IAGOS\server\v18\Source\Source\_Common\Item.h

; 103  : 	int		GetPiercingSize()	{	return m_piercing.GetPiercingSize();		}

  00071	8b ce		 mov	 ecx, esi
; File C:\IAGOS\server\v18\Source\Source\_Common\MoverSkill.cpp

; 4428 : 		for( int i=0; i<pItemElem->GetPiercingSize(); i++ )

  00073	33 db		 xor	 ebx, ebx
; File C:\IAGOS\server\v18\Source\Source\_Common\Item.h

; 103  : 	int		GetPiercingSize()	{	return m_piercing.GetPiercingSize();		}

  00075	e8 00 00 00 00	 call	 ?GetPiercingSize@CPiercing@@QAEHXZ ; CPiercing::GetPiercingSize
; File C:\IAGOS\server\v18\Source\Source\_Common\MoverSkill.cpp

; 4428 : 		for( int i=0; i<pItemElem->GetPiercingSize(); i++ )

  0007a	85 c0		 test	 eax, eax
  0007c	0f 8e a8 00 00
	00		 jle	 $LN3@SetPetVisD
$LL4@SetPetVisD:
; File C:\IAGOS\server\v18\Source\Source\_Common\Item.h

; 105  : 	DWORD	GetPiercingItem( int nth )	{	return m_piercing.GetPiercingItem( nth );	}

  00082	53		 push	 ebx
  00083	8b ce		 mov	 ecx, esi
  00085	e8 00 00 00 00	 call	 ?GetPiercingItem@CPiercing@@QAEKH@Z ; CPiercing::GetPiercingItem
; File C:\IAGOS\server\v18\Source\Source\_Common\Project.h

; 1389 : 	VERIFY_RANGE_ASSERT( nIndex, 0, m_aPropItem.GetSize(), "GetItemProp range_error", NULL );

  0008a	8b 0d 40 02 00
	00		 mov	 ecx, DWORD PTR ?prj@@3VCProject@@A+576
  00090	85 c0		 test	 eax, eax
  00092	78 11		 js	 SHORT $LN20@SetPetVisD
  00094	3b c1		 cmp	 eax, ecx
  00096	7d 0d		 jge	 SHORT $LN20@SetPetVisD
; File C:\IAGOS\server\v18\Source\Source\_Common\data.h

; 270  : 	if( dwIndex >= (DWORD)m_nMaxIndex )

  00098	73 21		 jae	 SHORT $LN37@SetPetVisD

; 271  : 		return NULL;
; 272  : 	return (T*) m_apOffset[ dwIndex ];

  0009a	8b 35 30 02 00
	00		 mov	 esi, DWORD PTR ?prj@@3VCProject@@A+560
  000a0	8b 34 86	 mov	 esi, DWORD PTR [esi+eax*4]
; File C:\IAGOS\server\v18\Source\Source\_Common\Project.h

; 1390 : 	return m_aPropItem.GetAt( nIndex ); 

  000a3	eb 18		 jmp	 SHORT $LN15@SetPetVisD
$LN20@SetPetVisD:

; 579  : 	LPCTSTR szErr = Error( _T( "%s min:%d, max:%d, index:%d" ), szMsg, nMin, nMax, nIndex ); 

  000a5	50		 push	 eax
  000a6	51		 push	 ecx
  000a7	6a 00		 push	 0
  000a9	68 00 00 00 00	 push	 OFFSET ??_C@_0BI@BEIFNGEL@GetItemProp?5range_error@
  000ae	68 00 00 00 00	 push	 OFFSET ??_C@_0BM@HMFGHCP@?$CFs?5min?3?$CFd?0?5max?3?$CFd?0?5index?3?$CFd@
  000b3	e8 00 00 00 00	 call	 ?Error@@YAPBDPBDZZ	; Error
  000b8	83 c4 14	 add	 esp, 20			; 00000014H
$LN37@SetPetVisD:
; File C:\IAGOS\server\v18\Source\Source\_Common\MoverSkill.cpp

; 4431 : 			if( vecValidTable[i] == SUCCSESS_NEEDVIS && pItemProp )

  000bb	33 f6		 xor	 esi, esi
$LN15@SetPetVisD:
  000bd	8b 45 e8	 mov	 eax, DWORD PTR _vecValidTable$2[ebp]
  000c0	80 3c 18 03	 cmp	 BYTE PTR [eax+ebx], 3
  000c4	75 2a		 jne	 SHORT $LN35@SetPetVisD
  000c6	85 f6		 test	 esi, esi
  000c8	74 26		 je	 SHORT $LN35@SetPetVisD

; 4432 : 			{
; 4433 : 				SetDestParam( 0, pItemProp );

  000ca	6a 01		 push	 1
  000cc	56		 push	 esi
  000cd	6a 00		 push	 0
  000cf	8b cf		 mov	 ecx, edi
  000d1	e8 00 00 00 00	 call	 ?SetDestParam@CMover@@QAEXHPAUItemProp@@H@Z ; CMover::SetDestParam

; 4434 : 				SetDestParam( 1, pItemProp );

  000d6	6a 01		 push	 1
  000d8	56		 push	 esi
  000d9	6a 01		 push	 1
  000db	8b cf		 mov	 ecx, edi
  000dd	e8 00 00 00 00	 call	 ?SetDestParam@CMover@@QAEXHPAUItemProp@@H@Z ; CMover::SetDestParam

; 4435 : 				SetDestParam( 2, pItemProp );

  000e2	6a 01		 push	 1
  000e4	56		 push	 esi
  000e5	6a 02		 push	 2
  000e7	8b cf		 mov	 ecx, edi
  000e9	e8 00 00 00 00	 call	 ?SetDestParam@CMover@@QAEXHPAUItemProp@@H@Z ; CMover::SetDestParam

; 4436 : 			}

  000ee	eb 24		 jmp	 SHORT $LN2@SetPetVisD
$LN35@SetPetVisD:

; 4437 : 			else
; 4438 : 			{
; 4439 : 				if( IsPlayer() && pItemProp )

  000f0	83 bf 30 02 00
	00 00		 cmp	 DWORD PTR [edi+560], 0
  000f7	74 1b		 je	 SHORT $LN2@SetPetVisD
  000f9	85 f6		 test	 esi, esi
  000fb	74 17		 je	 SHORT $LN2@SetPetVisD

; 4440 : 					static_cast<CUser*>( this )->AddDefinedText( TID_GAME_BUFFPET_NOTREQVIS, "\"%s\"", pItemProp->szName );

  000fd	83 c6 04	 add	 esi, 4
  00100	56		 push	 esi
  00101	68 00 00 00 00	 push	 OFFSET ??_C@_04OEDFLLKD@?$CC?$CFs?$CC@
  00106	68 85 10 00 00	 push	 4229			; 00001085H
  0010b	57		 push	 edi
  0010c	e8 00 00 00 00	 call	 ?AddDefinedText@CUser@@QAAXHPBDZZ ; CUser::AddDefinedText
  00111	83 c4 10	 add	 esp, 16			; 00000010H
$LN2@SetPetVisD:
; File C:\IAGOS\server\v18\Source\Source\_Common\Item.h

; 103  : 	int		GetPiercingSize()	{	return m_piercing.GetPiercingSize();		}

  00114	8b 75 08	 mov	 esi, DWORD PTR _pItemElem$[ebp]
; File C:\IAGOS\server\v18\Source\Source\_Common\MoverSkill.cpp

; 4428 : 		for( int i=0; i<pItemElem->GetPiercingSize(); i++ )

  00117	43		 inc	 ebx
; File C:\IAGOS\server\v18\Source\Source\_Common\Item.h

; 103  : 	int		GetPiercingSize()	{	return m_piercing.GetPiercingSize();		}

  00118	83 c6 3c	 add	 esi, 60			; 0000003cH
  0011b	8b ce		 mov	 ecx, esi
  0011d	e8 00 00 00 00	 call	 ?GetPiercingSize@CPiercing@@QAEHXZ ; CPiercing::GetPiercingSize
; File C:\IAGOS\server\v18\Source\Source\_Common\MoverSkill.cpp

; 4428 : 		for( int i=0; i<pItemElem->GetPiercingSize(); i++ )

  00122	3b d8		 cmp	 ebx, eax
  00124	0f 8c 58 ff ff
	ff		 jl	 $LL4@SetPetVisD
$LN3@SetPetVisD:

; 4441 : 			}
; 4442 : 		}
; 4443 : 	}

  0012a	8d 4d e8	 lea	 ecx, DWORD PTR _vecValidTable$2[ebp]
  0012d	e8 00 00 00 00	 call	 ??1?$vector@EV?$allocator@E@std@@@std@@QAE@XZ ; std::vector<unsigned char,std::allocator<unsigned char> >::~vector<unsigned char,std::allocator<unsigned char> >
$LN5@SetPetVisD:

; 4444 : }

  00132	8b 4d f4	 mov	 ecx, DWORD PTR __$EHRec$[ebp]
  00135	64 89 0d 00 00
	00 00		 mov	 DWORD PTR fs:0, ecx
  0013c	59		 pop	 ecx
  0013d	5f		 pop	 edi
  0013e	5e		 pop	 esi
  0013f	5b		 pop	 ebx
  00140	8b e5		 mov	 esp, ebp
  00142	5d		 pop	 ebp
  00143	c2 04 00	 ret	 4
_TEXT	ENDS
;	COMDAT text$x
text$x	SEGMENT
__unwindfunclet$?SetPetVisDST@CMover@@QAEXPAVCItemElem@@@Z$0:
  00000	8d 4d e8	 lea	 ecx, DWORD PTR _vecValidTable$2[ebp]
  00003	e9 00 00 00 00	 jmp	 ??1?$vector@EV?$allocator@E@std@@@std@@QAE@XZ ; std::vector<unsigned char,std::allocator<unsigned char> >::~vector<unsigned char,std::allocator<unsigned char> >
  00008	cc		 int	 3
  00009	cc		 int	 3
  0000a	cc		 int	 3
  0000b	cc		 int	 3
  0000c	cc		 int	 3
__ehhandler$?SetPetVisDST@CMover@@QAEXPAVCItemElem@@@Z:
  0000d	90		 npad	 1
  0000e	90		 npad	 1
  0000f	8b 54 24 08	 mov	 edx, DWORD PTR [esp+8]
  00013	8d 42 0c	 lea	 eax, DWORD PTR [edx+12]
  00016	8b 4a e4	 mov	 ecx, DWORD PTR [edx-28]
  00019	33 c8		 xor	 ecx, eax
  0001b	e8 00 00 00 00	 call	 @__security_check_cookie@4
  00020	b8 00 00 00 00	 mov	 eax, OFFSET __ehfuncinfo$?SetPetVisDST@CMover@@QAEXPAVCItemElem@@@Z
  00025	e9 00 00 00 00	 jmp	 ___CxxFrameHandler3
text$x	ENDS
?SetPetVisDST@CMover@@QAEXPAVCItemElem@@@Z ENDP		; CMover::SetPetVisDST
; Function compile flags: /Ogtp
; File C:\IAGOS\server\v18\Source\Source\_Common\MoverSkill.cpp
;	COMDAT ?InactivateSystemPet@CMover@@QAEXPAVCItemElem@@@Z
_TEXT	SEGMENT
_pItemElem$ = 8						; size = 4
?InactivateSystemPet@CMover@@QAEXPAVCItemElem@@@Z PROC	; CMover::InactivateSystemPet, COMDAT
; _this$ = ecx

; 4310 : {

  00000	55		 push	 ebp
  00001	8b ec		 mov	 ebp, esp

; 4311 : 	if( GetPetId() == pItemElem->m_dwObjId )

  00003	8b 45 08	 mov	 eax, DWORD PTR _pItemElem$[ebp]
  00006	8b 91 98 10 00
	00		 mov	 edx, DWORD PTR [ecx+4248]
  0000c	3b 50 04	 cmp	 edx, DWORD PTR [eax+4]
  0000f	75 09		 jne	 SHORT $LN2@Inactivate

; 4312 : 		PetRelease();

  00011	e8 00 00 00 00	 call	 ?PetRelease@CMover@@QAEXXZ ; CMover::PetRelease

; 4315 : }

  00016	5d		 pop	 ebp
  00017	c2 04 00	 ret	 4
$LN2@Inactivate:

; 4313 : 	else
; 4314 : 		static_cast<CUser*>(this )->AddDefinedText( TID_GAME_PET_NOWUSE );

  0001a	c7 45 08 0c 0d
	00 00		 mov	 DWORD PTR _pItemElem$[ebp], 3340 ; 00000d0cH

; 4315 : }

  00021	5d		 pop	 ebp

; 4313 : 	else
; 4314 : 		static_cast<CUser*>(this )->AddDefinedText( TID_GAME_PET_NOWUSE );

  00022	e9 00 00 00 00	 jmp	 ?AddDefinedText@CUser@@QAEXH@Z ; CUser::AddDefinedText
?InactivateSystemPet@CMover@@QAEXPAVCItemElem@@@Z ENDP	; CMover::InactivateSystemPet
_TEXT	ENDS
; Function compile flags: /Ogtp
; File C:\IAGOS\server\v18\Source\Source\_Common\MoverSkill.cpp
; File C:\IAGOS\server\v18\Source\Source\_Common\Obj.h
; File C:\IAGOS\server\v18\Source\Source\_Common\MoverSkill.cpp
; File C:\IAGOS\server\v18\Source\Source\_Common\Mover.h
; File C:\IAGOS\server\v18\Source\Source\_Common\MoverSkill.cpp
; File C:\IAGOS\server\v18\Source\Source\_Common\Mover.h
; File C:\IAGOS\server\v18\Source\Source\_Common\MoverSkill.cpp
;	COMDAT ?InactivateEatPet@CMover@@QAEXXZ
_TEXT	SEGMENT
?InactivateEatPet@CMover@@QAEXXZ PROC			; CMover::InactivateEatPet, COMDAT
; _this$ = ecx

; 4393 : {

  00000	56		 push	 esi
  00001	8b f1		 mov	 esi, ecx

; 4394 : 	CMover* pEatPet		= prj.GetMover( GetEatPetId() );

  00003	b9 00 00 00 00	 mov	 ecx, OFFSET ?prj@@3VCProject@@A ; prj
  00008	57		 push	 edi
  00009	ff b6 74 06 00
	00		 push	 DWORD PTR [esi+1652]
  0000f	e8 00 00 00 00	 call	 ?GetMover@CProject@@QAEPAVCMover@@K@Z ; CProject::GetMover
  00014	8b f8		 mov	 edi, eax
; File C:\IAGOS\server\v18\Source\Source\_Common\Obj.h

; 327  : 	return pObj && ( pObj->IsDelete() == FALSE ); 

  00016	85 ff		 test	 edi, edi
  00018	74 52		 je	 SHORT $LN17@Inactivate

; 180  : 	BOOL			IsDelete()	{ return (m_dwFlags & OBJ_FLAG_DELETE);  }

  0001a	f6 47 04 01	 test	 BYTE PTR [edi+4], 1

; 327  : 	return pObj && ( pObj->IsDelete() == FALSE ); 

  0001e	75 4c		 jne	 SHORT $LN17@Inactivate
; File C:\IAGOS\server\v18\Source\Source\_Common\MoverSkill.cpp

; 4399 : 		CAIPet *pAIPet	= static_cast<CAIPet*>( pEatPet->m_pAIInterface );

  00020	53		 push	 ebx
  00021	8b 9f 88 01 00
	00		 mov	 ebx, DWORD PTR [edi+392]

; 4400 : 		if( pAIPet )

  00027	85 db		 test	 ebx, ebx
  00029	74 39		 je	 SHORT $LN3@Inactivate
; File C:\IAGOS\server\v18\Source\Source\_Common\Mover.h

; 823  : 	CItemElem*	GetVisPetItem( void )	{ return m_Inventory.GetAtId( m_objIdVisPet ); }

  0002b	ff b6 a0 10 00
	00		 push	 DWORD PTR [esi+4256]
  00031	8d 8e fc 0a 00
	00		 lea	 ecx, DWORD PTR [esi+2812]
  00037	e8 00 00 00 00	 call	 ?GetAtId@?$CItemContainer@VCItemElem@@@@QAEPAVCItemElem@@K@Z ; CItemContainer<CItemElem>::GetAtId
; File C:\IAGOS\server\v18\Source\Source\_Common\MoverSkill.cpp

; 4404 : 			if( pItemElem )

  0003c	85 c0		 test	 eax, eax
  0003e	74 1d		 je	 SHORT $LN4@Inactivate

; 4405 : 			{
; 4406 : 				ResetPetVisDST( pItemElem );

  00040	50		 push	 eax
  00041	8b ce		 mov	 ecx, esi
  00043	e8 00 00 00 00	 call	 ?ResetPetVisDST@CMover@@QAEXPAVCItemElem@@@Z ; CMover::ResetPetVisDST

; 4408 : 				static_cast<CUser*>(this)->AddActivateVisPet( NULL_ID, NULL_ID );

  00048	6a ff		 push	 -1
  0004a	6a ff		 push	 -1
  0004c	8b ce		 mov	 ecx, esi
; File C:\IAGOS\server\v18\Source\Source\_Common\Mover.h

; 824  : 	void		SetVisPetItem( OBJID objId )	{ m_objIdVisPet = objId; }

  0004e	c7 86 a0 10 00
	00 ff ff ff ff	 mov	 DWORD PTR [esi+4256], -1
; File C:\IAGOS\server\v18\Source\Source\_Common\MoverSkill.cpp

; 4408 : 				static_cast<CUser*>(this)->AddActivateVisPet( NULL_ID, NULL_ID );

  00058	e8 00 00 00 00	 call	 ?AddActivateVisPet@CUser@@QAEXKK@Z ; CUser::AddActivateVisPet
$LN4@Inactivate:

; 4409 : 			}
; 4410 : #endif // __PETVIS
; 4411 : 			pAIPet->ResetItem();

  0005d	8b cb		 mov	 ecx, ebx
  0005f	e8 00 00 00 00	 call	 ?ResetItem@CAIPet@@QAEXXZ ; CAIPet::ResetItem
$LN3@Inactivate:

; 4412 : 		}
; 4413 : #endif	// __PET_0519
; 4414 : 
; 4415 : 		pEatPet->Delete();

  00064	8b cf		 mov	 ecx, edi
  00066	e8 00 00 00 00	 call	 ?Delete@CObj@@QAEXXZ	; CObj::Delete

; 4416 : 	}
; 4417 : 	SetEatPetId( NULL_ID );

  0006b	5b		 pop	 ebx
$LN17@Inactivate:

; 4418 : }

  0006c	5f		 pop	 edi
  0006d	c7 86 74 06 00
	00 ff ff ff ff	 mov	 DWORD PTR [esi+1652], -1
  00077	5e		 pop	 esi
  00078	c3		 ret	 0
?InactivateEatPet@CMover@@QAEXXZ ENDP			; CMover::InactivateEatPet
_TEXT	ENDS
; Function compile flags: /Ogtp
; File C:\IAGOS\server\v18\Source\Source\_Common\MoverSkill.cpp
; File C:\IAGOS\server\v18\Source\Source\_Common\pet.h
; File C:\IAGOS\server\v18\Source\Source\_Common\MoverSkill.cpp
; File C:\IAGOS\server\v18\Source\Source\_Common\pet.h
; File C:\IAGOS\server\v18\Source\Source\_Common\MoverSkill.cpp
;	COMDAT ?ActivateSystemPet@CMover@@QAEXPAVCItemElem@@@Z
_TEXT	SEGMENT
_bFirst$1$ = -16					; size = 4
__$EHRec$ = -12						; size = 12
_pItemElem$ = 8						; size = 4
$T2 = 8							; size = 4
?ActivateSystemPet@CMover@@QAEXPAVCItemElem@@@Z PROC	; CMover::ActivateSystemPet, COMDAT
; _this$ = ecx

; 4275 : {

  00000	55		 push	 ebp
  00001	8b ec		 mov	 ebp, esp
  00003	6a ff		 push	 -1
  00005	68 00 00 00 00	 push	 __ehhandler$?ActivateSystemPet@CMover@@QAEXPAVCItemElem@@@Z
  0000a	64 a1 00 00 00
	00		 mov	 eax, DWORD PTR fs:0
  00010	50		 push	 eax
  00011	51		 push	 ecx
  00012	53		 push	 ebx
  00013	56		 push	 esi
  00014	57		 push	 edi
  00015	a1 00 00 00 00	 mov	 eax, DWORD PTR ___security_cookie
  0001a	33 c5		 xor	 eax, ebp
  0001c	50		 push	 eax
  0001d	8d 45 f4	 lea	 eax, DWORD PTR __$EHRec$[ebp]
  00020	64 a3 00 00 00
	00		 mov	 DWORD PTR fs:0, eax
  00026	8b f9		 mov	 edi, ecx

; 4276 : #ifdef __QUIZ
; 4277 : 	if( GetWorld() && GetWorld()->GetID() == WI_WORLD_QUIZ )

  00028	8b 87 6c 01 00
	00		 mov	 eax, DWORD PTR [edi+364]
  0002e	85 c0		 test	 eax, eax
  00030	74 0c		 je	 SHORT $LN2@ActivateSy
  00032	81 38 d3 00 00
	00		 cmp	 DWORD PTR [eax], 211	; 000000d3H
  00038	0f 84 d9 00 00
	00		 je	 $LN5@ActivateSy
$LN2@ActivateSy:

; 4278 : 		return;
; 4279 : #endif // __QUIZ
; 4280 : 	if( IsFly() )

  0003e	8b 87 38 02 00
	00		 mov	 eax, DWORD PTR [edi+568]
  00044	f6 40 08 08	 test	 BYTE PTR [eax+8], 8
  00048	74 1e		 je	 SHORT $LN3@ActivateSy

; 4281 : 	{
; 4282 : 		static_cast<CUser*>( this )->AddDefinedText( TID_GAME_CANNOT_CALL_PET_ON_FLYING );

  0004a	68 8a 0c 00 00	 push	 3210			; 00000c8aH
  0004f	e8 00 00 00 00	 call	 ?AddDefinedText@CUser@@QAEXH@Z ; CUser::AddDefinedText

; 4307 : }

  00054	8b 4d f4	 mov	 ecx, DWORD PTR __$EHRec$[ebp]
  00057	64 89 0d 00 00
	00 00		 mov	 DWORD PTR fs:0, ecx
  0005e	59		 pop	 ecx
  0005f	5f		 pop	 edi
  00060	5e		 pop	 esi
  00061	5b		 pop	 ebx
  00062	8b e5		 mov	 esp, ebp
  00064	5d		 pop	 ebp
  00065	c2 04 00	 ret	 4
$LN3@ActivateSy:

; 4283 : 		return;	
; 4284 : 	}
; 4285 : 	BOOL bFirst		= FALSE;
; 4286 : 	if( pItemElem->m_pPet == NULL )

  00068	8b 5d 08	 mov	 ebx, DWORD PTR _pItemElem$[ebp]
  0006b	c7 45 f0 00 00
	00 00		 mov	 DWORD PTR _bFirst$1$[ebp], 0
  00072	83 bb a0 00 00
	00 00		 cmp	 DWORD PTR [ebx+160], 0
  00079	75 3e		 jne	 SHORT $LN4@ActivateSy

; 4287 : 	{
; 4288 : 		pItemElem->m_pPet	= new CPet;

  0007b	6a 28		 push	 40			; 00000028H
  0007d	e8 00 00 00 00	 call	 ??2@YAPAXI@Z		; operator new
  00082	83 c4 04	 add	 esp, 4
  00085	89 45 08	 mov	 DWORD PTR $T2[ebp], eax
  00088	c7 45 fc 00 00
	00 00		 mov	 DWORD PTR __$EHRec$[ebp+8], 0
  0008f	85 c0		 test	 eax, eax
  00091	74 09		 je	 SHORT $LN7@ActivateSy
  00093	8b c8		 mov	 ecx, eax
  00095	e8 00 00 00 00	 call	 ??0CPet@@QAE@XZ		; CPet::CPet
  0009a	eb 02		 jmp	 SHORT $LN8@ActivateSy
$LN7@ActivateSy:
  0009c	33 c0		 xor	 eax, eax
$LN8@ActivateSy:

; 4289 : 		pItemElem->m_pPet->InitEgg();

  0009e	8b c8		 mov	 ecx, eax
  000a0	c7 45 fc ff ff
	ff ff		 mov	 DWORD PTR __$EHRec$[ebp+8], -1
  000a7	89 83 a0 00 00
	00		 mov	 DWORD PTR [ebx+160], eax
  000ad	e8 00 00 00 00	 call	 ?InitEgg@CPet@@QAEXXZ	; CPet::InitEgg

; 4290 : 		bFirst	= TRUE;

  000b2	c7 45 f0 01 00
	00 00		 mov	 DWORD PTR _bFirst$1$[ebp], 1
$LN4@ActivateSy:

; 4291 : 	}
; 4292 : 	SetPetId( pItemElem->m_dwObjId );

  000b9	8b 43 04	 mov	 eax, DWORD PTR [ebx+4]

; 4293 : 
; 4294 : //#if __VER >= 12 // __PET_0519	// CMover::ProcessPetAvail()·Î ŔĚµż
; 4295 : //	SetDestParamRandomOptExtension( pItemElem );	// ˝Ă˝şĹŰ Ćę Č°ĽşČ­ ˝Ă °˘Ľş Čż°ú Ŕűżë
; 4296 : //#endif	// __PET_0519
; 4297 : 	g_dpDBClient.CalluspPetLog( m_idPlayer, pItemElem->GetSerialNumber(), 0, PETLOGTYPE_CALL, pItemElem->m_pPet );

  000bc	b9 00 00 00 00	 mov	 ecx, OFFSET ?g_dpDBClient@@3VCDPDatabaseClient@@A ; g_dpDBClient
  000c1	89 87 98 10 00
	00		 mov	 DWORD PTR [edi+4248], eax
  000c7	ff b3 a0 00 00
	00		 push	 DWORD PTR [ebx+160]
  000cd	6a 00		 push	 0
  000cf	6a 00		 push	 0
  000d1	ff 73 38	 push	 DWORD PTR [ebx+56]
  000d4	ff b7 34 02 00
	00		 push	 DWORD PTR [edi+564]
  000da	e8 00 00 00 00	 call	 ?CalluspPetLog@CDPDatabaseClient@@QAEXKKKHPAVCPet@@@Z ; CDPDatabaseClient::CalluspPetLog
; File C:\IAGOS\server\v18\Source\Source\_Common\pet.h

; 143  : 	const char*	GetName()	{	return m_szName;	}

  000df	8b 8b a0 00 00
	00		 mov	 ecx, DWORD PTR [ebx+160]
; File C:\IAGOS\server\v18\Source\Source\_Common\MoverSkill.cpp

; 4300 : 	g_UserMng.AddPetCall( this, pItemElem->m_dwObjId, pItemElem->m_pPet->GetIndex(), (BYTE)pItemElem->m_pPet->GetLevel(), pItemElem->m_pPet->GetName() );

  000e5	8b 73 04	 mov	 esi, DWORD PTR [ebx+4]
  000e8	8a 51 05	 mov	 dl, BYTE PTR [ecx+5]
; File C:\IAGOS\server\v18\Source\Source\_Common\pet.h

; 143  : 	const char*	GetName()	{	return m_szName;	}

  000eb	8d 41 16	 lea	 eax, DWORD PTR [ecx+22]
; File C:\IAGOS\server\v18\Source\Source\_Common\MoverSkill.cpp

; 4300 : 	g_UserMng.AddPetCall( this, pItemElem->m_dwObjId, pItemElem->m_pPet->GetIndex(), (BYTE)pItemElem->m_pPet->GetLevel(), pItemElem->m_pPet->GetName() );

  000ee	50		 push	 eax
  000ef	52		 push	 edx
  000f0	e8 00 00 00 00	 call	 ?GetIndex@CPet@@QAEKXZ	; CPet::GetIndex
  000f5	50		 push	 eax
  000f6	56		 push	 esi
  000f7	57		 push	 edi
  000f8	b9 00 00 00 00	 mov	 ecx, OFFSET ?g_UserMng@@3VCUserMng@@A ; g_UserMng
  000fd	e8 00 00 00 00	 call	 ?AddPetCall@CUserMng@@QAEXPAVCMover@@KKEPBD@Z ; CUserMng::AddPetCall

; 4301 : #else	// __PET_1024
; 4302 : 	g_UserMng.AddPetCall( this, pItemElem->m_dwObjId, pItemElem->m_pPet->GetIndex(), (BYTE)pItemElem->m_pPet->GetLevel() );
; 4303 : #endif	// __PET_1024
; 4304 : 	
; 4305 : 	if( bFirst )

  00102	83 7d f0 00	 cmp	 DWORD PTR _bFirst$1$[ebp], 0
  00106	74 0f		 je	 SHORT $LN5@ActivateSy

; 4306 : 		static_cast<CUser*>(this )->AddPet( pItemElem->m_pPet, PF_PET );

  00108	6a 00		 push	 0
  0010a	ff b3 a0 00 00
	00		 push	 DWORD PTR [ebx+160]
  00110	8b cf		 mov	 ecx, edi
  00112	e8 00 00 00 00	 call	 ?AddPet@CUser@@QAEXPAVCPet@@E@Z ; CUser::AddPet
$LN5@ActivateSy:

; 4307 : }

  00117	8b 4d f4	 mov	 ecx, DWORD PTR __$EHRec$[ebp]
  0011a	64 89 0d 00 00
	00 00		 mov	 DWORD PTR fs:0, ecx
  00121	59		 pop	 ecx
  00122	5f		 pop	 edi
  00123	5e		 pop	 esi
  00124	5b		 pop	 ebx
  00125	8b e5		 mov	 esp, ebp
  00127	5d		 pop	 ebp
  00128	c2 04 00	 ret	 4
_TEXT	ENDS
;	COMDAT text$x
text$x	SEGMENT
__unwindfunclet$?ActivateSystemPet@CMover@@QAEXPAVCItemElem@@@Z$0:
  00000	6a 28		 push	 40			; 00000028H
  00002	8b 45 08	 mov	 eax, DWORD PTR $T2[ebp]
  00005	50		 push	 eax
  00006	e8 00 00 00 00	 call	 ??3@YAXPAXI@Z		; operator delete
  0000b	83 c4 08	 add	 esp, 8
  0000e	c3		 ret	 0
  0000f	cc		 int	 3
  00010	cc		 int	 3
  00011	cc		 int	 3
  00012	cc		 int	 3
  00013	cc		 int	 3
__ehhandler$?ActivateSystemPet@CMover@@QAEXPAVCItemElem@@@Z:
  00014	90		 npad	 1
  00015	90		 npad	 1
  00016	8b 54 24 08	 mov	 edx, DWORD PTR [esp+8]
  0001a	8d 42 0c	 lea	 eax, DWORD PTR [edx+12]
  0001d	8b 4a ec	 mov	 ecx, DWORD PTR [edx-20]
  00020	33 c8		 xor	 ecx, eax
  00022	e8 00 00 00 00	 call	 @__security_check_cookie@4
  00027	b8 00 00 00 00	 mov	 eax, OFFSET __ehfuncinfo$?ActivateSystemPet@CMover@@QAEXPAVCItemElem@@@Z
  0002c	e9 00 00 00 00	 jmp	 ___CxxFrameHandler3
text$x	ENDS
?ActivateSystemPet@CMover@@QAEXPAVCItemElem@@@Z ENDP	; CMover::ActivateSystemPet
; Function compile flags: /Ogtp
; File C:\IAGOS\server\v18\Source\Source\_Common\MoverSkill.cpp
; File C:\IAGOS\server\v18\Source\Source\_Common\Project.h
; File C:\IAGOS\server\v18\Source\Source\_Common\MoverSkill.cpp
; File C:\IAGOS\server\v18\Source\Source\_Common\Item.h
; File C:\IAGOS\server\v18\Source\Source\_Common\Project.h
; File C:\IAGOS\server\v18\Source\Source\_Common\data.h
; File C:\IAGOS\server\v18\Source\Source\_Common\MoverSkill.cpp
; File C:\IAGOS\server\v18\Source\Source\_Common\Obj.h
; File C:\IAGOS\server\v18\Source\Source\_Common\MoverSkill.cpp
; File C:\IAGOS\server\v18\Source\Source\_Common\Obj.h
; File C:\IAGOS\server\v18\Source\Source\_Common\MoverSkill.cpp
; File C:\IAGOS\server\v18\Source\Source\_Common\Obj.h
; File C:\IAGOS\server\v18\Source\Source\_Common\MoverSkill.cpp
; File C:\IAGOS\server\v18\Source\Source\_Common\Item.h
; File C:\IAGOS\server\v18\Source\Source\_Common\MoverSkill.cpp
; File C:\IAGOS\server\v18\Source\Source\_Common\Project.h
; File C:\IAGOS\server\v18\Source\Source\_Common\MoverSkill.cpp
; File C:\IAGOS\server\v18\Source\Source\_Common\Project.h
; File C:\IAGOS\server\v18\Source\Source\_Common\MoverSkill.cpp
;	COMDAT ?ActivateEatPet@CMover@@QAEXPAVCItemElem@@@Z
_TEXT	SEGMENT
$T1 = -16						; size = 12
__$ArrayPad$ = -4					; size = 4
_pItemElem$ = 8						; size = 4
?ActivateEatPet@CMover@@QAEXPAVCItemElem@@@Z PROC	; CMover::ActivateEatPet, COMDAT
; _this$ = ecx

; 4345 : {

  00000	55		 push	 ebp
  00001	8b ec		 mov	 ebp, esp
  00003	83 ec 10	 sub	 esp, 16			; 00000010H
  00006	a1 00 00 00 00	 mov	 eax, DWORD PTR ___security_cookie
  0000b	33 c5		 xor	 eax, ebp
  0000d	89 45 fc	 mov	 DWORD PTR __$ArrayPad$[ebp], eax
; File C:\IAGOS\server\v18\Source\Source\_Common\Project.h

; 1389 : 	VERIFY_RANGE_ASSERT( nIndex, 0, m_aPropItem.GetSize(), "GetItemProp range_error", NULL );

  00010	a1 40 02 00 00	 mov	 eax, DWORD PTR ?prj@@3VCProject@@A+576
; File C:\IAGOS\server\v18\Source\Source\_Common\MoverSkill.cpp

; 4345 : {

  00015	56		 push	 esi
  00016	57		 push	 edi
  00017	8b 7d 08	 mov	 edi, DWORD PTR _pItemElem$[ebp]
  0001a	8b f1		 mov	 esi, ecx
; File C:\IAGOS\server\v18\Source\Source\_Common\Item.h

; 230  : 	ItemProp*	GetProp()	{	return prj.GetItemProp( m_dwItemId );	}

  0001c	8b 4f 0c	 mov	 ecx, DWORD PTR [edi+12]
; File C:\IAGOS\server\v18\Source\Source\_Common\Project.h

; 1389 : 	VERIFY_RANGE_ASSERT( nIndex, 0, m_aPropItem.GetSize(), "GetItemProp range_error", NULL );

  0001f	85 c9		 test	 ecx, ecx
  00021	0f 88 24 01 00
	00		 js	 $LN17@ActivateEa
  00027	3b c8		 cmp	 ecx, eax
  00029	0f 8d 1c 01 00
	00		 jge	 $LN17@ActivateEa
; File C:\IAGOS\server\v18\Source\Source\_Common\data.h

; 270  : 	if( dwIndex >= (DWORD)m_nMaxIndex )

  0002f	72 04		 jb	 SHORT $LN22@ActivateEa

; 271  : 		return NULL;

  00031	33 d2		 xor	 edx, edx
  00033	eb 08		 jmp	 SHORT $LN21@ActivateEa
$LN22@ActivateEa:

; 272  : 	return (T*) m_apOffset[ dwIndex ];

  00035	a1 30 02 00 00	 mov	 eax, DWORD PTR ?prj@@3VCProject@@A+560
  0003a	8b 14 88	 mov	 edx, DWORD PTR [eax+ecx*4]
$LN21@ActivateEa:
; File C:\IAGOS\server\v18\Source\Source\_Common\MoverSkill.cpp

; 4347 : 	if( !pProp )

  0003d	85 d2		 test	 edx, edx
  0003f	0f 84 f4 00 00
	00		 je	 $LN7@ActivateEa

; 4348 : 		return;
; 4349 : 
; 4350 : #ifdef __QUIZ
; 4351 : 	if( GetWorld() && GetWorld()->GetID() == WI_WORLD_QUIZ )

  00045	8b 8e 6c 01 00
	00		 mov	 ecx, DWORD PTR [esi+364]
  0004b	85 c9		 test	 ecx, ecx
  0004d	74 0c		 je	 SHORT $LN3@ActivateEa
  0004f	81 39 d3 00 00
	00		 cmp	 DWORD PTR [ecx], 211	; 000000d3H
  00055	0f 84 de 00 00
	00		 je	 $LN7@ActivateEa
$LN3@ActivateEa:

; 4352 : 		return;
; 4353 : #endif // __QUIZ
; 4354 : 
; 4355 : 	if( IsFly() )

  0005b	8b 86 38 02 00
	00		 mov	 eax, DWORD PTR [esi+568]
  00061	f6 40 08 08	 test	 BYTE PTR [eax+8], 8
  00065	74 1e		 je	 SHORT $LN4@ActivateEa

; 4356 : 	{
; 4357 : 		static_cast<CUser*>( this )->AddDefinedText( TID_GAME_CANNOT_CALL_PET_ON_FLYING );

  00067	68 8a 0c 00 00	 push	 3210			; 00000c8aH
  0006c	8b ce		 mov	 ecx, esi
  0006e	e8 00 00 00 00	 call	 ?AddDefinedText@CUser@@QAEXH@Z ; CUser::AddDefinedText
  00073	5f		 pop	 edi

; 4390 : }

  00074	5e		 pop	 esi
  00075	8b 4d fc	 mov	 ecx, DWORD PTR __$ArrayPad$[ebp]
  00078	33 cd		 xor	 ecx, ebp
  0007a	e8 00 00 00 00	 call	 @__security_check_cookie@4
  0007f	8b e5		 mov	 esp, ebp
  00081	5d		 pop	 ebp
  00082	c2 04 00	 ret	 4
$LN4@ActivateEa:
; File C:\IAGOS\server\v18\Source\Source\_Common\Obj.h

; 215  : 	D3DXVECTOR3		GetPos()	{ return m_vPos; }

  00085	8b 86 68 01 00
	00		 mov	 eax, DWORD PTR [esi+360]
  0008b	f3 0f 7e 86 60
	01 00 00	 movq	 xmm0, QWORD PTR [esi+352]
  00093	53		 push	 ebx
; File C:\IAGOS\server\v18\Source\Source\_Common\MoverSkill.cpp

; 4362 : 	CMover *pEatPet	= CreateMover( GetWorld(), pProp->dwLinkKind, GetPos(), GetLayer() );

  00094	ff b6 b8 01 00
	00		 push	 DWORD PTR [esi+440]
; File C:\IAGOS\server\v18\Source\Source\_Common\Obj.h

; 215  : 	D3DXVECTOR3		GetPos()	{ return m_vPos; }

  0009a	89 45 f8	 mov	 DWORD PTR $T1[ebp+8], eax
; File C:\IAGOS\server\v18\Source\Source\_Common\MoverSkill.cpp

; 4362 : 	CMover *pEatPet	= CreateMover( GetWorld(), pProp->dwLinkKind, GetPos(), GetLayer() );

  0009d	8d 45 f0	 lea	 eax, DWORD PTR $T1[ebp]
  000a0	50		 push	 eax
  000a1	ff b2 e0 00 00
	00		 push	 DWORD PTR [edx+224]
; File C:\IAGOS\server\v18\Source\Source\_Common\Obj.h

; 215  : 	D3DXVECTOR3		GetPos()	{ return m_vPos; }

  000a7	66 0f d6 45 f0	 movq	 QWORD PTR $T1[ebp], xmm0
; File C:\IAGOS\server\v18\Source\Source\_Common\MoverSkill.cpp

; 4362 : 	CMover *pEatPet	= CreateMover( GetWorld(), pProp->dwLinkKind, GetPos(), GetLayer() );

  000ac	51		 push	 ecx
  000ad	e8 00 00 00 00	 call	 ?CreateMover@@YAPAVCMover@@PAVCWorld@@KABUD3DXVECTOR3@@H@Z ; CreateMover
  000b2	8b d8		 mov	 ebx, eax
  000b4	83 c4 10	 add	 esp, 16			; 00000010H

; 4363 : #else	// __LAYER_1015
; 4364 : 	CMover *pEatPet	= CreateMover( GetWorld(), pProp->dwLinkKind, GetPos() );
; 4365 : #endif	// __LAYER_1015
; 4366 : 	if( pEatPet )

  000b7	85 db		 test	 ebx, ebx
  000b9	74 7d		 je	 SHORT $LN43@ActivateEa

; 4367 : 	{
; 4368 : 		CAIPet *pAIPet	= static_cast<CAIPet*>( pEatPet->m_pAIInterface );

  000bb	8b 8b 88 01 00
	00		 mov	 ecx, DWORD PTR [ebx+392]

; 4369 : 		if( pAIPet )

  000c1	85 c9		 test	 ecx, ecx
  000c3	74 73		 je	 SHORT $LN43@ActivateEa

; 4370 : 		{
; 4371 : 			pAIPet->SetOwner( GetId() );

  000c5	8b 96 bc 01 00
	00		 mov	 edx, DWORD PTR [esi+444]
  000cb	89 51 38	 mov	 DWORD PTR [ecx+56], edx

; 4372 : 			SetEatPetId( pEatPet->GetId() );

  000ce	8b 83 bc 01 00
	00		 mov	 eax, DWORD PTR [ebx+444]

; 4373 : #if __VER >= 12 // __PET_0519
; 4374 : 			pAIPet->SetItem( this, pItemElem );		// ¸ÔĆę Č°ĽşČ­ ˝Ă °˘Ľş Čż°ú Ŕűżë

  000d4	57		 push	 edi
  000d5	56		 push	 esi
  000d6	89 86 74 06 00
	00		 mov	 DWORD PTR [esi+1652], eax
  000dc	e8 00 00 00 00	 call	 ?SetItem@CAIPet@@QAEXPAVCMover@@PAVCItemElem@@@Z ; CAIPet::SetItem

; 4375 : #endif	// __PET_0519
; 4376 : #if __VER >= 15 // __PETVIS
; 4377 : 			if( pItemElem->IsVisPet() )

  000e1	8b cf		 mov	 ecx, edi
  000e3	e8 00 00 00 00	 call	 ?IsVisPet@CItemElem@@QAEHXZ ; CItemElem::IsVisPet
  000e8	85 c0		 test	 eax, eax
  000ea	74 4c		 je	 SHORT $LN43@ActivateEa
; File C:\IAGOS\server\v18\Source\Source\_Common\Item.h

; 103  : 	int		GetPiercingSize()	{	return m_piercing.GetPiercingSize();		}

  000ec	8d 4f 3c	 lea	 ecx, DWORD PTR [edi+60]
  000ef	e8 00 00 00 00	 call	 ?GetPiercingSize@CPiercing@@QAEHXZ ; CPiercing::GetPiercingSize
; File C:\IAGOS\server\v18\Source\Source\_Common\MoverSkill.cpp

; 4379 : 				if( pItemElem->GetPiercingSize() <= 0 )	// Ăą ĽŇČŻ˝Ă şń˝şĆęŔĚ¸é şń˝ş ˝˝·Ô 2°ł(±âş») ¶ŐľîÁÜ

  000f4	85 c0		 test	 eax, eax
  000f6	7f 12		 jg	 SHORT $LN32@ActivateEa

; 4380 : 					UpdateItem( (BYTE)( pItemElem->m_dwObjId ), UI_PETVIS_SIZE, PETVIS_DEFAULT_VIS_SLOT_SZIE );

  000f8	0f b6 47 04	 movzx	 eax, BYTE PTR [edi+4]
  000fc	8b ce		 mov	 ecx, esi
  000fe	6a 00		 push	 0
  00100	6a 02		 push	 2
  00102	6a 0f		 push	 15			; 0000000fH
  00104	50		 push	 eax
  00105	e8 00 00 00 00	 call	 ?UpdateItem@CMover@@QAEXEDKK@Z ; CMover::UpdateItem
$LN32@ActivateEa:

; 4381 : 
; 4382 : 				SetVisPetItem( pItemElem->m_dwObjId );	// ÇŘ´ç ¸ÔĆęŔĚ şń˝şĆęŔĚ¸é şń˝şŔÇ ´É·ÂÄˇ¸¦ ŔűżëÇĎ°í ŔĚĆĺĆ®¸¦ ÁöÁ¤ÇŃ´Ů.

  0010a	8b 47 04	 mov	 eax, DWORD PTR [edi+4]

; 4383 : 				SetPetVisDST( pItemElem );

  0010d	8b ce		 mov	 ecx, esi
  0010f	57		 push	 edi
  00110	89 86 a0 10 00
	00		 mov	 DWORD PTR [esi+4256], eax
  00116	e8 00 00 00 00	 call	 ?SetPetVisDST@CMover@@QAEXPAVCItemElem@@@Z ; CMover::SetPetVisDST

; 4384 : 				pEatPet->m_dwMoverSfxId = pItemElem->GetVisPetSfxId();

  0011b	8b cf		 mov	 ecx, edi
  0011d	e8 00 00 00 00	 call	 ?GetVisPetSfxId@CItemElem@@QAEKXZ ; CItemElem::GetVisPetSfxId
  00122	89 83 9c 10 00
	00		 mov	 DWORD PTR [ebx+4252], eax

; 4385 : 				static_cast<CUser*>(this)->AddActivateVisPet( pItemElem->m_dwObjId, GetEatPetId() );

  00128	8b ce		 mov	 ecx, esi
  0012a	ff b6 74 06 00
	00		 push	 DWORD PTR [esi+1652]
  00130	ff 77 04	 push	 DWORD PTR [edi+4]
  00133	e8 00 00 00 00	 call	 ?AddActivateVisPet@CUser@@QAEXKK@Z ; CUser::AddActivateVisPet
$LN43@ActivateEa:
  00138	5b		 pop	 ebx
$LN7@ActivateEa:
  00139	5f		 pop	 edi

; 4390 : }

  0013a	5e		 pop	 esi
  0013b	8b 4d fc	 mov	 ecx, DWORD PTR __$ArrayPad$[ebp]
  0013e	33 cd		 xor	 ecx, ebp
  00140	e8 00 00 00 00	 call	 @__security_check_cookie@4
  00145	8b e5		 mov	 esp, ebp
  00147	5d		 pop	 ebp
  00148	c2 04 00	 ret	 4
$LN17@ActivateEa:
; File C:\IAGOS\server\v18\Source\Source\_Common\Project.h

; 579  : 	LPCTSTR szErr = Error( _T( "%s min:%d, max:%d, index:%d" ), szMsg, nMin, nMax, nIndex ); 

  0014b	51		 push	 ecx
  0014c	50		 push	 eax
  0014d	6a 00		 push	 0
  0014f	68 00 00 00 00	 push	 OFFSET ??_C@_0BI@BEIFNGEL@GetItemProp?5range_error@
  00154	68 00 00 00 00	 push	 OFFSET ??_C@_0BM@HMFGHCP@?$CFs?5min?3?$CFd?0?5max?3?$CFd?0?5index?3?$CFd@
  00159	e8 00 00 00 00	 call	 ?Error@@YAPBDPBDZZ	; Error
; File C:\IAGOS\server\v18\Source\Source\_Common\MoverSkill.cpp

; 4390 : }

  0015e	8b 4d fc	 mov	 ecx, DWORD PTR __$ArrayPad$[ebp]
; File C:\IAGOS\server\v18\Source\Source\_Common\Project.h

; 579  : 	LPCTSTR szErr = Error( _T( "%s min:%d, max:%d, index:%d" ), szMsg, nMin, nMax, nIndex ); 

  00161	83 c4 14	 add	 esp, 20			; 00000014H
; File C:\IAGOS\server\v18\Source\Source\_Common\MoverSkill.cpp

; 4390 : }

  00164	33 cd		 xor	 ecx, ebp
  00166	5f		 pop	 edi
  00167	5e		 pop	 esi
  00168	e8 00 00 00 00	 call	 @__security_check_cookie@4
  0016d	8b e5		 mov	 esp, ebp
  0016f	5d		 pop	 ebp
  00170	c2 04 00	 ret	 4
?ActivateEatPet@CMover@@QAEXPAVCItemElem@@@Z ENDP	; CMover::ActivateEatPet
_TEXT	ENDS
; Function compile flags: /Ogtp
; File C:\IAGOS\server\v18\Source\Source\_Common\MoverSkill.cpp
; File C:\IAGOS\server\v18\Source\Source\_Common\Mover.h
; File C:\IAGOS\server\v18\Source\Source\_Common\MoverSkill.cpp
;	COMDAT ?DoUseSystemPet@CMover@@AAEXPAVCItemElem@@@Z
_TEXT	SEGMENT
_pItemElem$ = 8						; size = 4
?DoUseSystemPet@CMover@@AAEXPAVCItemElem@@@Z PROC	; CMover::DoUseSystemPet, COMDAT
; _this$ = ecx

; 4318 : {

  00000	55		 push	 ebp
  00001	8b ec		 mov	 ebp, esp
; File C:\IAGOS\server\v18\Source\Source\_Common\Mover.h

; 807  : 	BOOL	HasActivatedSystemPet( void )	{	return m_dwPetId != NULL_ID;	}

  00003	83 b9 98 10 00
	00 ff		 cmp	 DWORD PTR [ecx+4248], -1
; File C:\IAGOS\server\v18\Source\Source\_Common\MoverSkill.cpp

; 4319 : 	if( HasActivatedSystemPet() )

  0000a	74 06		 je	 SHORT $LN2@DoUseSyste

; 4323 : }

  0000c	5d		 pop	 ebp

; 4320 : 		InactivateSystemPet( pItemElem );

  0000d	e9 00 00 00 00	 jmp	 ?InactivateSystemPet@CMover@@QAEXPAVCItemElem@@@Z ; CMover::InactivateSystemPet
$LN2@DoUseSyste:

; 4323 : }

  00012	5d		 pop	 ebp

; 4321 : 	else
; 4322 : 		ActivateSystemPet( pItemElem );

  00013	e9 00 00 00 00	 jmp	 ?ActivateSystemPet@CMover@@QAEXPAVCItemElem@@@Z ; CMover::ActivateSystemPet
?DoUseSystemPet@CMover@@AAEXPAVCItemElem@@@Z ENDP	; CMover::DoUseSystemPet
_TEXT	ENDS
; Function compile flags: /Ogtp
; File C:\IAGOS\server\v18\Source\Source\_Common\MoverSkill.cpp
; File C:\IAGOS\server\v18\Source\Source\_Common\Mover.h
; File C:\IAGOS\server\v18\Source\Source\_Common\MoverSkill.cpp
; File C:\IAGOS\server\v18\Source\Source\_Common\Mover.h
; File C:\IAGOS\server\v18\Source\Source\_Common\Project.h
; File C:\IAGOS\server\v18\Source\Source\_Common\MoverSkill.cpp
;	COMDAT ?DoUseEatPet@CMover@@AAEXPAVCItemElem@@@Z
_TEXT	SEGMENT
_pItemElem$ = 8						; size = 4
?DoUseEatPet@CMover@@AAEXPAVCItemElem@@@Z PROC		; CMover::DoUseEatPet, COMDAT
; _this$ = ecx

; 4326 : {

  00000	55		 push	 ebp
  00001	8b ec		 mov	 ebp, esp
  00003	56		 push	 esi
  00004	8b f1		 mov	 esi, ecx
; File C:\IAGOS\server\v18\Source\Source\_Common\Mover.h

; 806  : 	BOOL	HasActivatedEatPet( void )		{	return m_oiEatPet != NULL_ID;	}

  00006	8b 86 74 06 00
	00		 mov	 eax, DWORD PTR [esi+1652]
  0000c	83 f8 ff	 cmp	 eax, -1
; File C:\IAGOS\server\v18\Source\Source\_Common\MoverSkill.cpp

; 4328 : 	if( HasActivatedEatPet() )

  0000f	74 67		 je	 SHORT $LN2@DoUseEatPe

; 4329 : 	{
; 4330 : 		CMover* pPet = prj.GetMover( GetEatPetId() );

  00011	50		 push	 eax
  00012	b9 00 00 00 00	 mov	 ecx, OFFSET ?prj@@3VCProject@@A ; prj
  00017	e8 00 00 00 00	 call	 ?GetMover@CProject@@QAEPAVCMover@@K@Z ; CProject::GetMover

; 4331 : 		if( pPet && pPet->GetProp()->dwAI == AII_NONE )

  0001c	85 c0		 test	 eax, eax
  0001e	74 4c		 je	 SHORT $LN4@DoUseEatPe
; File C:\IAGOS\server\v18\Source\Source\_Common\Mover.h

; 1020 : 	MoverProp*		GetProp() { return prj.GetMoverProp( m_dwIndex ); }	// °´ĂĽŔÇ ÇÁ·ÎĆŰĆĽ ľň±â 	

  00020	8b 80 74 01 00
	00		 mov	 eax, DWORD PTR [eax+372]
; File C:\IAGOS\server\v18\Source\Source\_Common\Project.h

; 1406 : 	VERIFY_RANGE( nIndex, 0, m_nMoverPropSize, "GetMoverProp range_error", NULL );

  00026	8b 0d b4 01 00
	00		 mov	 ecx, DWORD PTR ?prj@@3VCProject@@A+436
  0002c	85 c0		 test	 eax, eax
  0002e	78 12		 js	 SHORT $LN16@DoUseEatPe
  00030	3b c1		 cmp	 eax, ecx
  00032	7d 0e		 jge	 SHORT $LN16@DoUseEatPe

; 1407 : 	return m_pPropMover + nIndex;

  00034	69 c0 90 06 00
	00		 imul	 eax, eax, 1680
  0003a	03 05 b8 01 00
	00		 add	 eax, DWORD PTR ?prj@@3VCProject@@A+440
  00040	eb 18		 jmp	 SHORT $LN11@DoUseEatPe
$LN16@DoUseEatPe:

; 579  : 	LPCTSTR szErr = Error( _T( "%s min:%d, max:%d, index:%d" ), szMsg, nMin, nMax, nIndex ); 

  00042	50		 push	 eax
  00043	51		 push	 ecx
  00044	6a 00		 push	 0
  00046	68 00 00 00 00	 push	 OFFSET ??_C@_0BJ@GKPOBPPI@GetMoverProp?5range_error@
  0004b	68 00 00 00 00	 push	 OFFSET ??_C@_0BM@HMFGHCP@?$CFs?5min?3?$CFd?0?5max?3?$CFd?0?5index?3?$CFd@
  00050	e8 00 00 00 00	 call	 ?Error@@YAPBDPBDZZ	; Error
  00055	83 c4 14	 add	 esp, 20			; 00000014H

; 1406 : 	VERIFY_RANGE( nIndex, 0, m_nMoverPropSize, "GetMoverProp range_error", NULL );

  00058	33 c0		 xor	 eax, eax
$LN11@DoUseEatPe:
; File C:\IAGOS\server\v18\Source\Source\_Common\MoverSkill.cpp

; 4331 : 		if( pPet && pPet->GetProp()->dwAI == AII_NONE )

  0005a	83 78 48 00	 cmp	 DWORD PTR [eax+72], 0
  0005e	75 0c		 jne	 SHORT $LN4@DoUseEatPe

; 4332 : 			InactivateBarunaPet();

  00060	8b ce		 mov	 ecx, esi
  00062	e8 00 00 00 00	 call	 ?InactivateBarunaPet@CMover@@QAEXXZ ; CMover::InactivateBarunaPet
  00067	5e		 pop	 esi

; 4342 : }		

  00068	5d		 pop	 ebp
  00069	c2 04 00	 ret	 4
$LN4@DoUseEatPe:

; 4333 : 		else
; 4334 : 			InactivateEatPet();

  0006c	8b ce		 mov	 ecx, esi
  0006e	e8 00 00 00 00	 call	 ?InactivateEatPet@CMover@@QAEXXZ ; CMover::InactivateEatPet
  00073	5e		 pop	 esi

; 4342 : }		

  00074	5d		 pop	 ebp
  00075	c2 04 00	 ret	 4
$LN2@DoUseEatPe:

; 4335 : 	}
; 4336 : #else // __NEW_ITEM_VARUNA
; 4337 : 	if( HasActivatedEatPet() )
; 4338 : 		InactivateEatPet();
; 4339 : #endif // __NEW_ITEM_VARUNA
; 4340 : 	else
; 4341 : 		ActivateEatPet( pItemElem );

  00078	ff 75 08	 push	 DWORD PTR _pItemElem$[ebp]
  0007b	e8 00 00 00 00	 call	 ?ActivateEatPet@CMover@@QAEXPAVCItemElem@@@Z ; CMover::ActivateEatPet
  00080	5e		 pop	 esi

; 4342 : }		

  00081	5d		 pop	 ebp
  00082	c2 04 00	 ret	 4
?DoUseEatPet@CMover@@AAEXPAVCItemElem@@@Z ENDP		; CMover::DoUseEatPet
_TEXT	ENDS
; Function compile flags: /Ogtp
; File C:\IAGOS\server\v18\Source\Source\_Common\MoverSkill.cpp
;	COMDAT ?SetRemoveSfxObj@CMover@@QAEXK@Z
_TEXT	SEGMENT
_dwRemoveSfxObjID$ = 8					; size = 4
?SetRemoveSfxObj@CMover@@QAEXK@Z PROC			; CMover::SetRemoveSfxObj, COMDAT
; _this$ = ecx

; 1226 : {

  00000	55		 push	 ebp
  00001	8b ec		 mov	 ebp, esp
  00003	56		 push	 esi

; 1227 : 	for(int i=0;i<MAX_SKILLBUFF_COUNT;i++)

  00004	8d 91 70 07 00
	00		 lea	 edx, DWORD PTR [ecx+1904]
  0000a	33 f6		 xor	 esi, esi
  0000c	57		 push	 edi
  0000d	8b 7d 08	 mov	 edi, DWORD PTR _dwRemoveSfxObjID$[ebp]
  00010	8b c2		 mov	 eax, edx
$LL4@SetRemoveS:

; 1228 : 	{
; 1229 : 		if(dwRemoveSfxObj[i] ==  dwRemoveSfxObjID)

  00012	39 38		 cmp	 DWORD PTR [eax], edi
  00014	74 26		 je	 SHORT $LN6@SetRemoveS

; 1227 : 	for(int i=0;i<MAX_SKILLBUFF_COUNT;i++)

  00016	46		 inc	 esi
  00017	83 c0 04	 add	 eax, 4
  0001a	83 fe 40	 cmp	 esi, 64			; 00000040H
  0001d	7c f3		 jl	 SHORT $LL4@SetRemoveS

; 1230 : 			return;
; 1231 : 	}
; 1232 : 	for( int i=0;i<MAX_SKILLBUFF_COUNT;i++)

  0001f	33 c0		 xor	 eax, eax
$LL7@SetRemoveS:

; 1233 : 	{
; 1234 : 		if(dwRemoveSfxObj[i] ==  0)

  00021	83 3a 00	 cmp	 DWORD PTR [edx], 0
  00024	74 0f		 je	 SHORT $LN14@SetRemoveS

; 1230 : 			return;
; 1231 : 	}
; 1232 : 	for( int i=0;i<MAX_SKILLBUFF_COUNT;i++)

  00026	40		 inc	 eax
  00027	83 c2 04	 add	 edx, 4
  0002a	83 f8 40	 cmp	 eax, 64			; 00000040H
  0002d	7c f2		 jl	 SHORT $LL7@SetRemoveS

; 1237 : 			return;
; 1238 : 		}
; 1239 : 	}
; 1240 : }

  0002f	5f		 pop	 edi
  00030	5e		 pop	 esi
  00031	5d		 pop	 ebp
  00032	c2 04 00	 ret	 4
$LN14@SetRemoveS:

; 1235 : 		{
; 1236 : 			dwRemoveSfxObj[i] = dwRemoveSfxObjID;

  00035	89 bc 81 70 07
	00 00		 mov	 DWORD PTR [ecx+eax*4+1904], edi
$LN6@SetRemoveS:
  0003c	5f		 pop	 edi

; 1237 : 			return;
; 1238 : 		}
; 1239 : 	}
; 1240 : }

  0003d	5e		 pop	 esi
  0003e	5d		 pop	 ebp
  0003f	c2 04 00	 ret	 4
?SetRemoveSfxObj@CMover@@QAEXK@Z ENDP			; CMover::SetRemoveSfxObj
_TEXT	ENDS
; Function compile flags: /Ogtp
; File C:\IAGOS\server\v18\Source\Source\_Common\MoverSkill.cpp
;	COMDAT ?GetRemoveSfxObj@CMover@@QAEKK@Z
_TEXT	SEGMENT
_dwRemoveSfxObjID$ = 8					; size = 4
?GetRemoveSfxObj@CMover@@QAEKK@Z PROC			; CMover::GetRemoveSfxObj, COMDAT
; _this$ = ecx

; 1211 : {

  00000	55		 push	 ebp
  00001	8b ec		 mov	 ebp, esp
  00003	56		 push	 esi
  00004	57		 push	 edi

; 1212 : 	DWORD	dwResult = 0;
; 1213 : 	for(int i=0;i<MAX_SKILLBUFF_COUNT;i++)

  00005	8b 7d 08	 mov	 edi, DWORD PTR _dwRemoveSfxObjID$[ebp]
  00008	8d 91 70 07 00
	00		 lea	 edx, DWORD PTR [ecx+1904]
  0000e	33 c0		 xor	 eax, eax
$LL4@GetRemoveS:

; 1214 : 	{
; 1215 : 		if(dwRemoveSfxObj[i] ==  dwRemoveSfxObjID)

  00010	8b 32		 mov	 esi, DWORD PTR [edx]
  00012	3b f7		 cmp	 esi, edi
  00014	74 11		 je	 SHORT $LN8@GetRemoveS

; 1212 : 	DWORD	dwResult = 0;
; 1213 : 	for(int i=0;i<MAX_SKILLBUFF_COUNT;i++)

  00016	40		 inc	 eax
  00017	83 c2 04	 add	 edx, 4
  0001a	83 f8 40	 cmp	 eax, 64			; 00000040H
  0001d	7c f1		 jl	 SHORT $LL4@GetRemoveS

; 1220 : 		}
; 1221 : 	}	
; 1222 : 	return	dwResult;	

  0001f	5f		 pop	 edi
  00020	33 c0		 xor	 eax, eax

; 1223 : }

  00022	5e		 pop	 esi
  00023	5d		 pop	 ebp
  00024	c2 04 00	 ret	 4
$LN8@GetRemoveS:

; 1216 : 		{
; 1217 : 			dwResult = dwRemoveSfxObj[i];
; 1218 : 			dwRemoveSfxObj[i] = 0;

  00027	c7 84 81 70 07
	00 00 00 00 00
	00		 mov	 DWORD PTR [ecx+eax*4+1904], 0

; 1219 : 			return	dwResult;

  00032	8b c6		 mov	 eax, esi
  00034	5f		 pop	 edi

; 1223 : }

  00035	5e		 pop	 esi
  00036	5d		 pop	 ebp
  00037	c2 04 00	 ret	 4
?GetRemoveSfxObj@CMover@@QAEKK@Z ENDP			; CMover::GetRemoveSfxObj
_TEXT	ENDS
; Function compile flags: /Ogtp
; File C:\Program Files\Microsoft Visual Studio\2022\Professional\VC\Tools\MSVC\14.44.35207\include\xtree
;	COMDAT ??E?$_Tree_iterator@V?$_Tree_val@U?$_Tree_simple_types@U?$pair@$$CBKPAVIBuff@@@std@@@std@@@std@@@std@@QAEAAV01@XZ
_TEXT	SEGMENT
??E?$_Tree_iterator@V?$_Tree_val@U?$_Tree_simple_types@U?$pair@$$CBKPAVIBuff@@@std@@@std@@@std@@@std@@QAEAAV01@XZ PROC ; std::_Tree_iterator<std::_Tree_val<std::_Tree_simple_types<std::pair<unsigned long const ,IBuff *> > > >::operator++, COMDAT
; _this$ = ecx

; 281  :     _Tree_iterator& operator++() noexcept {

  00000	56		 push	 esi
  00001	8b f1		 mov	 esi, ecx
  00003	57		 push	 edi

; 50   :         if (_Ptr->_Right->_Isnil) { // climb looking for right subtree

  00004	8b 16		 mov	 edx, DWORD PTR [esi]
  00006	8b 7a 08	 mov	 edi, DWORD PTR [edx+8]
  00009	80 7f 0d 00	 cmp	 BYTE PTR [edi+13], 0
  0000d	74 22		 je	 SHORT $LN10@operator

; 51   :             _Nodeptr _Pnode;
; 52   :             while (!(_Pnode = _Ptr->_Parent)->_Isnil && _Ptr == _Pnode->_Right) {

  0000f	8b 42 04	 mov	 eax, DWORD PTR [edx+4]
  00012	80 78 0d 00	 cmp	 BYTE PTR [eax+13], 0
  00016	75 12		 jne	 SHORT $LN27@operator
$LL8@operator:
  00018	3b 50 08	 cmp	 edx, DWORD PTR [eax+8]
  0001b	75 0d		 jne	 SHORT $LN27@operator

; 53   :                 _Ptr = _Pnode; // ==> parent while right subtree

  0001d	89 06		 mov	 DWORD PTR [esi], eax
  0001f	8b d0		 mov	 edx, eax
  00021	8b 40 04	 mov	 eax, DWORD PTR [eax+4]
  00024	80 78 0d 00	 cmp	 BYTE PTR [eax+13], 0
  00028	74 ee		 je	 SHORT $LL8@operator
$LN27@operator:

; 282  :         _Mybase::operator++();
; 283  :         return *this;

  0002a	89 06		 mov	 DWORD PTR [esi], eax

; 284  :     }

  0002c	8b c6		 mov	 eax, esi
  0002e	5f		 pop	 edi
  0002f	5e		 pop	 esi
  00030	c3		 ret	 0
$LN10@operator:

; 476  :         while (!_Pnode->_Left->_Isnil) {

  00031	8b 0f		 mov	 ecx, DWORD PTR [edi]
  00033	80 79 0d 00	 cmp	 BYTE PTR [ecx+13], 0
  00037	75 13		 jne	 SHORT $LN16@operator
  00039	0f 1f 80 00 00
	00 00		 npad	 7
$LL15@operator:
  00040	8b 01		 mov	 eax, DWORD PTR [ecx]

; 477  :             _Pnode = _Pnode->_Left;

  00042	8b f9		 mov	 edi, ecx
  00044	8b c8		 mov	 ecx, eax
  00046	80 78 0d 00	 cmp	 BYTE PTR [eax+13], 0
  0004a	74 f4		 je	 SHORT $LL15@operator
$LN16@operator:

; 282  :         _Mybase::operator++();
; 283  :         return *this;

  0004c	89 3e		 mov	 DWORD PTR [esi], edi

; 284  :     }

  0004e	8b c6		 mov	 eax, esi
  00050	5f		 pop	 edi
  00051	5e		 pop	 esi
  00052	c3		 ret	 0
??E?$_Tree_iterator@V?$_Tree_val@U?$_Tree_simple_types@U?$pair@$$CBKPAVIBuff@@@std@@@std@@@std@@@std@@QAEAAV01@XZ ENDP ; std::_Tree_iterator<std::_Tree_val<std::_Tree_simple_types<std::pair<unsigned long const ,IBuff *> > > >::operator++
_TEXT	ENDS
; Function compile flags: /Ogtp
; File C:\IAGOS\server\v18\Source\Source\_Common\Item.h
;	COMDAT ?GetAtItemId@?$CItemContainer@VCItemElem@@@@QAEPAVCItemElem@@K@Z
_TEXT	SEGMENT
_dwItemId$ = 8						; size = 4
?GetAtItemId@?$CItemContainer@VCItemElem@@@@QAEPAVCItemElem@@K@Z PROC ; CItemContainer<CItemElem>::GetAtItemId, COMDAT
; _this$ = ecx

; 527  : {

  00000	55		 push	 ebp
  00001	8b ec		 mov	 ebp, esp
  00003	56		 push	 esi

; 528  : 	for( DWORD i = 0; i < m_dwItemMax; i++ )

  00004	8b 71 0c	 mov	 esi, DWORD PTR [ecx+12]
  00007	33 d2		 xor	 edx, edx
  00009	85 f6		 test	 esi, esi
  0000b	74 15		 je	 SHORT $LN3@GetAtItemI

; 529  : 	{
; 530  : 		if( m_apItem[i].m_dwItemId == dwItemId )

  0000d	8b 41 10	 mov	 eax, DWORD PTR [ecx+16]
  00010	8b 4d 08	 mov	 ecx, DWORD PTR _dwItemId$[ebp]
$LL4@GetAtItemI:
  00013	39 48 0c	 cmp	 DWORD PTR [eax+12], ecx
  00016	74 0c		 je	 SHORT $LN1@GetAtItemI

; 528  : 	for( DWORD i = 0; i < m_dwItemMax; i++ )

  00018	42		 inc	 edx
  00019	05 b0 00 00 00	 add	 eax, 176		; 000000b0H
  0001e	3b d6		 cmp	 edx, esi
  00020	72 f1		 jb	 SHORT $LL4@GetAtItemI
$LN3@GetAtItemI:

; 531  : 			return &m_apItem[i];
; 532  : 	}
; 533  : 	return NULL;

  00022	33 c0		 xor	 eax, eax
$LN1@GetAtItemI:
  00024	5e		 pop	 esi

; 534  : }

  00025	5d		 pop	 ebp
  00026	c2 04 00	 ret	 4
?GetAtItemId@?$CItemContainer@VCItemElem@@@@QAEPAVCItemElem@@K@Z ENDP ; CItemContainer<CItemElem>::GetAtItemId
_TEXT	ENDS
; Function compile flags: /Ogtp
; File C:\IAGOS\server\v18\Source\Source\_Common\Item.h
;	COMDAT ?GetAtId@?$CItemContainer@VCItemElem@@@@QAEPAVCItemElem@@K@Z
_TEXT	SEGMENT
_dwId$ = 8						; size = 4
?GetAtId@?$CItemContainer@VCItemElem@@@@QAEPAVCItemElem@@K@Z PROC ; CItemContainer<CItemElem>::GetAtId, COMDAT
; _this$ = ecx

; 518  : {

  00000	55		 push	 ebp
  00001	8b ec		 mov	 ebp, esp

; 519  : 	if( dwId >= (DWORD)( GetMax() ) ) return NULL;

  00003	8b 45 08	 mov	 eax, DWORD PTR _dwId$[ebp]
  00006	3b 41 0c	 cmp	 eax, DWORD PTR [ecx+12]
  00009	73 15		 jae	 SHORT $LN7@GetAtId

; 520  : 	T* pItemElem = &m_apItem[ dwId ];

  0000b	69 c0 b0 00 00
	00		 imul	 eax, eax, 176
  00011	03 41 10	 add	 eax, DWORD PTR [ecx+16]

; 50   : 	BOOL			IsEmpty() { return m_dwItemId ? FALSE : TRUE; }

  00014	33 c9		 xor	 ecx, ecx
  00016	39 48 0c	 cmp	 DWORD PTR [eax+12], ecx
  00019	0f 44 c1	 cmove	 eax, ecx

; 523  : 	return pItemElem;
; 524  : }

  0001c	5d		 pop	 ebp
  0001d	c2 04 00	 ret	 4
$LN7@GetAtId:

; 521  : 	if( pItemElem->IsEmpty() ) 
; 522  : 		return NULL;

  00020	33 c0		 xor	 eax, eax

; 523  : 	return pItemElem;
; 524  : }

  00022	5d		 pop	 ebp
  00023	c2 04 00	 ret	 4
?GetAtId@?$CItemContainer@VCItemElem@@@@QAEPAVCItemElem@@K@Z ENDP ; CItemContainer<CItemElem>::GetAtId
_TEXT	ENDS
; Function compile flags: /Ogtp
; File C:\IAGOS\server\v18\Source\Source\_Common\Item.h
;	COMDAT ?GetEquip@?$CItemContainer@VCItemElem@@@@QAEPAVCItemElem@@K@Z
_TEXT	SEGMENT
_dwIndex$ = 8						; size = 4
?GetEquip@?$CItemContainer@VCItemElem@@@@QAEPAVCItemElem@@K@Z PROC ; CItemContainer<CItemElem>::GetEquip, COMDAT
; _this$ = ecx

; 618  : {

  00000	55		 push	 ebp
  00001	8b ec		 mov	 ebp, esp

; 619  : 	if( m_dwIndexNum )

  00003	8b 41 08	 mov	 eax, DWORD PTR [ecx+8]
  00006	85 c0		 test	 eax, eax
  00008	74 30		 je	 SHORT $LN2@GetEquip

; 620  : 	{
; 621  : 		if( dwIndex < 0 || dwIndex >= ( m_dwItemMax - m_dwIndexNum ) )

  0000a	8b 51 0c	 mov	 edx, DWORD PTR [ecx+12]
  0000d	56		 push	 esi
  0000e	8b 75 08	 mov	 esi, DWORD PTR _dwIndex$[ebp]
  00011	2b d0		 sub	 edx, eax
  00013	3b f2		 cmp	 esi, edx
  00015	73 0c		 jae	 SHORT $LN6@GetEquip

; 625  : 		}
; 626  : 		return GetAt( m_dwIndexNum + dwIndex );

  00017	03 c6		 add	 eax, esi
  00019	5e		 pop	 esi
  0001a	89 45 08	 mov	 DWORD PTR _dwIndex$[ebp], eax

; 629  : }

  0001d	5d		 pop	 ebp

; 625  : 		}
; 626  : 		return GetAt( m_dwIndexNum + dwIndex );

  0001e	e9 00 00 00 00	 jmp	 ?GetAt@?$CItemContainer@VCItemElem@@@@QAEPAVCItemElem@@K@Z ; CItemContainer<CItemElem>::GetAt
$LN6@GetEquip:

; 622  : 		{
; 623  : 			WriteError( "GETEQUIP//%d, %d, %d", m_dwIndexNum, m_dwItemMax - m_dwIndexNum, dwIndex );

  00023	56		 push	 esi
  00024	52		 push	 edx
  00025	50		 push	 eax
  00026	68 00 00 00 00	 push	 OFFSET ??_C@_0BF@OJMCJNHH@GETEQUIP?1?1?$CFd?0?5?$CFd?0?5?$CFd@
  0002b	e8 00 00 00 00	 call	 ?WriteError@@YAXPBDZZ	; WriteError
  00030	83 c4 10	 add	 esp, 16			; 00000010H

; 624  : 			return NULL;

  00033	33 c0		 xor	 eax, eax
  00035	5e		 pop	 esi

; 629  : }

  00036	5d		 pop	 ebp
  00037	c2 04 00	 ret	 4
$LN2@GetEquip:

; 627  : 	}
; 628  : 	return NULL;

  0003a	33 c0		 xor	 eax, eax

; 629  : }

  0003c	5d		 pop	 ebp
  0003d	c2 04 00	 ret	 4
?GetEquip@?$CItemContainer@VCItemElem@@@@QAEPAVCItemElem@@K@Z ENDP ; CItemContainer<CItemElem>::GetEquip
_TEXT	ENDS
; Function compile flags: /Ogtp
; File C:\IAGOS\server\v18\Source\Source\_Common\Item.h
;	COMDAT ?GetAt@?$CItemContainer@VCItemElem@@@@QAEPAVCItemElem@@K@Z
_TEXT	SEGMENT
_dwIndex$ = 8						; size = 4
?GetAt@?$CItemContainer@VCItemElem@@@@QAEPAVCItemElem@@K@Z PROC ; CItemContainer<CItemElem>::GetAt, COMDAT
; _this$ = ecx

; 821  : {

  00000	55		 push	 ebp
  00001	8b ec		 mov	 ebp, esp

; 822  : 	DWORD dwIdx = m_apIndex[ dwIndex ];

  00003	8b 51 04	 mov	 edx, DWORD PTR [ecx+4]
  00006	8b 45 08	 mov	 eax, DWORD PTR _dwIndex$[ebp]
  00009	8b 04 82	 mov	 eax, DWORD PTR [edx+eax*4]

; 823  : 	if( dwIdx == NULL_ID )

  0000c	83 f8 ff	 cmp	 eax, -1
  0000f	74 15		 je	 SHORT $LN7@GetAt

; 824  : 		return NULL;
; 825  : 	T* pItemElem = &m_apItem[ dwIdx ];

  00011	69 c0 b0 00 00
	00		 imul	 eax, eax, 176
  00017	03 41 10	 add	 eax, DWORD PTR [ecx+16]

; 50   : 	BOOL			IsEmpty() { return m_dwItemId ? FALSE : TRUE; }

  0001a	33 c9		 xor	 ecx, ecx
  0001c	39 48 0c	 cmp	 DWORD PTR [eax+12], ecx
  0001f	0f 44 c1	 cmove	 eax, ecx

; 828  : 	return pItemElem;
; 829  : }

  00022	5d		 pop	 ebp
  00023	c2 04 00	 ret	 4
$LN7@GetAt:

; 826  : 	if( pItemElem->IsEmpty() ) 
; 827  : 		return NULL;

  00026	33 c0		 xor	 eax, eax

; 828  : 	return pItemElem;
; 829  : }

  00028	5d		 pop	 ebp
  00029	c2 04 00	 ret	 4
?GetAt@?$CItemContainer@VCItemElem@@@@QAEPAVCItemElem@@K@Z ENDP ; CItemContainer<CItemElem>::GetAt
_TEXT	ENDS
; Function compile flags: /Ogtp
; File C:\IAGOS\server\v18\Source\Source\_Common\Item.h
; File C:\IAGOS\server\v18\Source\Source\_Common\Project.h
; File C:\IAGOS\server\v18\Source\Source\_Common\Item.h
; File C:\IAGOS\server\v18\Source\Source\_Common\Project.h
; File C:\IAGOS\server\v18\Source\Source\_Common\data.h
; File C:\IAGOS\server\v18\Source\Source\_Common\Item.h
; File C:\IAGOS\server\v18\Source\Source\_Common\Project.h
; File C:\IAGOS\server\v18\Source\Source\_Common\data.h
; File C:\IAGOS\server\v18\Source\Source\_Common\Project.h
; File C:\IAGOS\server\v18\Source\Source\_Common\ProjectCmn.h
; File C:\IAGOS\server\v18\Source\Source\_Common\Project.h
; File C:\IAGOS\server\v18\Source\Source\_Common\Item.h
; File C:\IAGOS\server\v18\Source\Source\_Common\Project.h
; File C:\IAGOS\server\v18\Source\Source\_Common\data.h
; File C:\IAGOS\server\v18\Source\Source\_Common\Item.h
; File C:\IAGOS\server\v18\Source\Source\_Common\Project.h
; File C:\IAGOS\server\v18\Source\Source\_Common\data.h
; File C:\IAGOS\server\v18\Source\Source\_Common\Project.h
; File C:\IAGOS\server\v18\Source\Source\_Common\Item.h
; File C:\IAGOS\server\v18\Source\Source\_Common\Project.h
; File C:\IAGOS\server\v18\Source\Source\_Common\Item.h
;	COMDAT ?IsVisPet@CItemElem@@QAEHXZ
_TEXT	SEGMENT
?IsVisPet@CItemElem@@QAEHXZ PROC			; CItemElem::IsVisPet, COMDAT
; _this$ = ecx
; File C:\IAGOS\server\v18\Source\Source\_Common\Project.h

; 1389 : 	VERIFY_RANGE_ASSERT( nIndex, 0, m_aPropItem.GetSize(), "GetItemProp range_error", NULL );

  00000	a1 40 02 00 00	 mov	 eax, DWORD PTR ?prj@@3VCProject@@A+576
; File C:\IAGOS\server\v18\Source\Source\_Common\Item.h

; 275  : 	BOOL	IsVisPet()	{ return ( GetProp() && GetProp()->IsVisPet() ) || IsTransformVisPet() ; }

  00005	56		 push	 esi
  00006	57		 push	 edi
  00007	8b f9		 mov	 edi, ecx

; 230  : 	ItemProp*	GetProp()	{	return prj.GetItemProp( m_dwItemId );	}

  00009	8b 57 0c	 mov	 edx, DWORD PTR [edi+12]
; File C:\IAGOS\server\v18\Source\Source\_Common\Project.h

; 1389 : 	VERIFY_RANGE_ASSERT( nIndex, 0, m_aPropItem.GetSize(), "GetItemProp range_error", NULL );

  0000c	85 d2		 test	 edx, edx
  0000e	78 56		 js	 SHORT $LN13@IsVisPet
  00010	3b d0		 cmp	 edx, eax
  00012	7d 52		 jge	 SHORT $LN13@IsVisPet
; File C:\IAGOS\server\v18\Source\Source\_Common\data.h

; 270  : 	if( dwIndex >= (DWORD)m_nMaxIndex )

  00014	8b 35 30 02 00
	00		 mov	 esi, DWORD PTR ?prj@@3VCProject@@A+560
  0001a	72 04		 jb	 SHORT $LN18@IsVisPet

; 271  : 		return NULL;

  0001c	33 c9		 xor	 ecx, ecx
  0001e	eb 03		 jmp	 SHORT $LN8@IsVisPet
$LN18@IsVisPet:

; 272  : 	return (T*) m_apOffset[ dwIndex ];

  00020	8b 0c 96	 mov	 ecx, DWORD PTR [esi+edx*4]
$LN8@IsVisPet:
; File C:\IAGOS\server\v18\Source\Source\_Common\Item.h

; 275  : 	BOOL	IsVisPet()	{ return ( GetProp() && GetProp()->IsVisPet() ) || IsTransformVisPet() ; }

  00023	85 c9		 test	 ecx, ecx
  00025	74 60		 je	 SHORT $LN3@IsVisPet
; File C:\IAGOS\server\v18\Source\Source\_Common\Project.h

; 1389 : 	VERIFY_RANGE_ASSERT( nIndex, 0, m_aPropItem.GetSize(), "GetItemProp range_error", NULL );

  00027	3b d0		 cmp	 edx, eax
  00029	7d 07		 jge	 SHORT $LN27@IsVisPet
; File C:\IAGOS\server\v18\Source\Source\_Common\data.h

; 270  : 	if( dwIndex >= (DWORD)m_nMaxIndex )

  0002b	73 26		 jae	 SHORT $LN85@IsVisPet

; 272  : 	return (T*) m_apOffset[ dwIndex ];

  0002d	8b 0c 96	 mov	 ecx, DWORD PTR [esi+edx*4]
; File C:\IAGOS\server\v18\Source\Source\_Common\Project.h

; 1390 : 	return m_aPropItem.GetAt( nIndex ); 

  00030	eb 23		 jmp	 SHORT $LN22@IsVisPet
$LN27@IsVisPet:

; 579  : 	LPCTSTR szErr = Error( _T( "%s min:%d, max:%d, index:%d" ), szMsg, nMin, nMax, nIndex ); 

  00032	52		 push	 edx
  00033	50		 push	 eax
  00034	6a 00		 push	 0
  00036	68 00 00 00 00	 push	 OFFSET ??_C@_0BI@BEIFNGEL@GetItemProp?5range_error@
  0003b	68 00 00 00 00	 push	 OFFSET ??_C@_0BM@HMFGHCP@?$CFs?5min?3?$CFd?0?5max?3?$CFd?0?5index?3?$CFd@
  00040	e8 00 00 00 00	 call	 ?Error@@YAPBDPBDZZ	; Error

; 1389 : 	VERIFY_RANGE_ASSERT( nIndex, 0, m_aPropItem.GetSize(), "GetItemProp range_error", NULL );

  00045	a1 40 02 00 00	 mov	 eax, DWORD PTR ?prj@@3VCProject@@A+576

; 579  : 	LPCTSTR szErr = Error( _T( "%s min:%d, max:%d, index:%d" ), szMsg, nMin, nMax, nIndex ); 

  0004a	83 c4 14	 add	 esp, 20			; 00000014H

; 1389 : 	VERIFY_RANGE_ASSERT( nIndex, 0, m_aPropItem.GetSize(), "GetItemProp range_error", NULL );

  0004d	8b 35 30 02 00
	00		 mov	 esi, DWORD PTR ?prj@@3VCProject@@A+560
$LN85@IsVisPet:
; File C:\IAGOS\server\v18\Source\Source\_Common\ProjectCmn.h

; 456  : 	BOOL	IsVisPet()	{ return (dwItemKind3 == IK3_PET) && (dwReferStat1 == PET_VIS); }

  00053	33 c9		 xor	 ecx, ecx
$LN22@IsVisPet:
  00055	83 79 78 64	 cmp	 DWORD PTR [ecx+120], 100 ; 00000064H
  00059	75 2c		 jne	 SHORT $LN3@IsVisPet
  0005b	83 b9 d0 01 00
	00 01		 cmp	 DWORD PTR [ecx+464], 1
  00062	74 6d		 je	 SHORT $LN4@IsVisPet
  00064	eb 21		 jmp	 SHORT $LN3@IsVisPet
$LN13@IsVisPet:
; File C:\IAGOS\server\v18\Source\Source\_Common\Project.h

; 579  : 	LPCTSTR szErr = Error( _T( "%s min:%d, max:%d, index:%d" ), szMsg, nMin, nMax, nIndex ); 

  00066	52		 push	 edx
  00067	50		 push	 eax
  00068	6a 00		 push	 0
  0006a	68 00 00 00 00	 push	 OFFSET ??_C@_0BI@BEIFNGEL@GetItemProp?5range_error@
  0006f	68 00 00 00 00	 push	 OFFSET ??_C@_0BM@HMFGHCP@?$CFs?5min?3?$CFd?0?5max?3?$CFd?0?5index?3?$CFd@
  00074	e8 00 00 00 00	 call	 ?Error@@YAPBDPBDZZ	; Error
  00079	a1 40 02 00 00	 mov	 eax, DWORD PTR ?prj@@3VCProject@@A+576
  0007e	83 c4 14	 add	 esp, 20			; 00000014H
  00081	8b 35 30 02 00
	00		 mov	 esi, DWORD PTR ?prj@@3VCProject@@A+560
$LN3@IsVisPet:
; File C:\IAGOS\server\v18\Source\Source\_Common\Item.h

; 230  : 	ItemProp*	GetProp()	{	return prj.GetItemProp( m_dwItemId );	}

  00087	8b 4f 0c	 mov	 ecx, DWORD PTR [edi+12]
; File C:\IAGOS\server\v18\Source\Source\_Common\Project.h

; 1389 : 	VERIFY_RANGE_ASSERT( nIndex, 0, m_aPropItem.GetSize(), "GetItemProp range_error", NULL );

  0008a	85 c9		 test	 ecx, ecx
  0008c	78 4b		 js	 SHORT $LN49@IsVisPet
  0008e	3b c8		 cmp	 ecx, eax
  00090	7d 47		 jge	 SHORT $LN49@IsVisPet
; File C:\IAGOS\server\v18\Source\Source\_Common\data.h

; 270  : 	if( dwIndex >= (DWORD)m_nMaxIndex )

  00092	72 04		 jb	 SHORT $LN54@IsVisPet

; 271  : 		return NULL;

  00094	33 d2		 xor	 edx, edx
  00096	eb 03		 jmp	 SHORT $LN44@IsVisPet
$LN54@IsVisPet:

; 272  : 	return (T*) m_apOffset[ dwIndex ];

  00098	8b 14 8e	 mov	 edx, DWORD PTR [esi+ecx*4]
$LN44@IsVisPet:
; File C:\IAGOS\server\v18\Source\Source\_Common\Item.h

; 281  : 	BOOL	IsTransformVisPet() { return GetProp() && GetProp()->dwItemKind3 == IK3_PET && m_bTranformVisPet; }

  0009b	85 d2		 test	 edx, edx
  0009d	74 50		 je	 SHORT $LN70@IsVisPet
; File C:\IAGOS\server\v18\Source\Source\_Common\Project.h

; 1389 : 	VERIFY_RANGE_ASSERT( nIndex, 0, m_aPropItem.GetSize(), "GetItemProp range_error", NULL );

  0009f	3b c8		 cmp	 ecx, eax
  000a1	7d 07		 jge	 SHORT $LN63@IsVisPet
; File C:\IAGOS\server\v18\Source\Source\_Common\data.h

; 270  : 	if( dwIndex >= (DWORD)m_nMaxIndex )

  000a3	73 1b		 jae	 SHORT $LN86@IsVisPet

; 272  : 	return (T*) m_apOffset[ dwIndex ];

  000a5	8b 04 8e	 mov	 eax, DWORD PTR [esi+ecx*4]
; File C:\IAGOS\server\v18\Source\Source\_Common\Project.h

; 1390 : 	return m_aPropItem.GetAt( nIndex ); 

  000a8	eb 18		 jmp	 SHORT $LN58@IsVisPet
$LN63@IsVisPet:

; 579  : 	LPCTSTR szErr = Error( _T( "%s min:%d, max:%d, index:%d" ), szMsg, nMin, nMax, nIndex ); 

  000aa	51		 push	 ecx
  000ab	50		 push	 eax
  000ac	6a 00		 push	 0
  000ae	68 00 00 00 00	 push	 OFFSET ??_C@_0BI@BEIFNGEL@GetItemProp?5range_error@
  000b3	68 00 00 00 00	 push	 OFFSET ??_C@_0BM@HMFGHCP@?$CFs?5min?3?$CFd?0?5max?3?$CFd?0?5index?3?$CFd@
  000b8	e8 00 00 00 00	 call	 ?Error@@YAPBDPBDZZ	; Error
  000bd	83 c4 14	 add	 esp, 20			; 00000014H
$LN86@IsVisPet:
; File C:\IAGOS\server\v18\Source\Source\_Common\Item.h

; 281  : 	BOOL	IsTransformVisPet() { return GetProp() && GetProp()->dwItemKind3 == IK3_PET && m_bTranformVisPet; }

  000c0	33 c0		 xor	 eax, eax
$LN58@IsVisPet:
  000c2	83 78 78 64	 cmp	 DWORD PTR [eax+120], 100 ; 00000064H
  000c6	75 27		 jne	 SHORT $LN70@IsVisPet
  000c8	83 bf ac 00 00
	00 00		 cmp	 DWORD PTR [edi+172], 0
  000cf	74 1e		 je	 SHORT $LN70@IsVisPet
$LN4@IsVisPet:
  000d1	5f		 pop	 edi

; 275  : 	BOOL	IsVisPet()	{ return ( GetProp() && GetProp()->IsVisPet() ) || IsTransformVisPet() ; }

  000d2	b8 01 00 00 00	 mov	 eax, 1
  000d7	5e		 pop	 esi
  000d8	c3		 ret	 0
$LN49@IsVisPet:
; File C:\IAGOS\server\v18\Source\Source\_Common\Project.h

; 579  : 	LPCTSTR szErr = Error( _T( "%s min:%d, max:%d, index:%d" ), szMsg, nMin, nMax, nIndex ); 

  000d9	51		 push	 ecx
  000da	50		 push	 eax
  000db	6a 00		 push	 0
  000dd	68 00 00 00 00	 push	 OFFSET ??_C@_0BI@BEIFNGEL@GetItemProp?5range_error@
  000e2	68 00 00 00 00	 push	 OFFSET ??_C@_0BM@HMFGHCP@?$CFs?5min?3?$CFd?0?5max?3?$CFd?0?5index?3?$CFd@
  000e7	e8 00 00 00 00	 call	 ?Error@@YAPBDPBDZZ	; Error
  000ec	83 c4 14	 add	 esp, 20			; 00000014H
$LN70@IsVisPet:
  000ef	5f		 pop	 edi
; File C:\IAGOS\server\v18\Source\Source\_Common\Item.h

; 275  : 	BOOL	IsVisPet()	{ return ( GetProp() && GetProp()->IsVisPet() ) || IsTransformVisPet() ; }

  000f0	33 c0		 xor	 eax, eax
  000f2	5e		 pop	 esi
  000f3	c3		 ret	 0
?IsVisPet@CItemElem@@QAEHXZ ENDP			; CItemElem::IsVisPet
_TEXT	ENDS
; Function compile flags: /Ogtp
; File C:\IAGOS\server\v18\Source\Source\_Common\Item.h
; File C:\IAGOS\server\v18\Source\Source\_Common\Project.h
; File C:\IAGOS\server\v18\Source\Source\_Common\data.h
; File C:\IAGOS\server\v18\Source\Source\_Common\Item.h
; File C:\IAGOS\server\v18\Source\Source\_Common\Project.h
; File C:\IAGOS\server\v18\Source\Source\_Common\Item.h
;	COMDAT ?GetPropA@CItemElem@@QAEPAUItemProp@@XZ
_TEXT	SEGMENT
?GetPropA@CItemElem@@QAEPAUItemProp@@XZ PROC		; CItemElem::GetPropA, COMDAT
; _this$ = ecx

; 230  : 	ItemProp*	GetProp()	{	return prj.GetItemProp( m_dwItemId );	}

  00000	8b 49 0c	 mov	 ecx, DWORD PTR [ecx+12]
; File C:\IAGOS\server\v18\Source\Source\_Common\Project.h

; 1389 : 	VERIFY_RANGE_ASSERT( nIndex, 0, m_aPropItem.GetSize(), "GetItemProp range_error", NULL );

  00003	a1 40 02 00 00	 mov	 eax, DWORD PTR ?prj@@3VCProject@@A+576
  00008	85 c9		 test	 ecx, ecx
  0000a	78 0f		 js	 SHORT $LN8@GetPropA
  0000c	3b c8		 cmp	 ecx, eax
  0000e	7d 0b		 jge	 SHORT $LN8@GetPropA
; File C:\IAGOS\server\v18\Source\Source\_Common\data.h

; 270  : 	if( dwIndex >= (DWORD)m_nMaxIndex )

  00010	73 1f		 jae	 SHORT $LN15@GetPropA

; 271  : 		return NULL;
; 272  : 	return (T*) m_apOffset[ dwIndex ];

  00012	a1 30 02 00 00	 mov	 eax, DWORD PTR ?prj@@3VCProject@@A+560
  00017	8b 04 88	 mov	 eax, DWORD PTR [eax+ecx*4]
; File C:\IAGOS\server\v18\Source\Source\_Common\Item.h

; 230  : 	ItemProp*	GetProp()	{	return prj.GetItemProp( m_dwItemId );	}

  0001a	c3		 ret	 0
$LN8@GetPropA:
; File C:\IAGOS\server\v18\Source\Source\_Common\Project.h

; 579  : 	LPCTSTR szErr = Error( _T( "%s min:%d, max:%d, index:%d" ), szMsg, nMin, nMax, nIndex ); 

  0001b	51		 push	 ecx
  0001c	50		 push	 eax
  0001d	6a 00		 push	 0
  0001f	68 00 00 00 00	 push	 OFFSET ??_C@_0BI@BEIFNGEL@GetItemProp?5range_error@
  00024	68 00 00 00 00	 push	 OFFSET ??_C@_0BM@HMFGHCP@?$CFs?5min?3?$CFd?0?5max?3?$CFd?0?5index?3?$CFd@
  00029	e8 00 00 00 00	 call	 ?Error@@YAPBDPBDZZ	; Error
  0002e	83 c4 14	 add	 esp, 20			; 00000014H
$LN15@GetPropA:
; File C:\IAGOS\server\v18\Source\Source\_Common\Item.h

; 230  : 	ItemProp*	GetProp()	{	return prj.GetItemProp( m_dwItemId );	}

  00031	33 c0		 xor	 eax, eax
  00033	c3		 ret	 0
?GetPropA@CItemElem@@QAEPAUItemProp@@XZ ENDP		; CItemElem::GetPropA
_TEXT	ENDS
; Function compile flags: /Ogtp
; File C:\IAGOS\server\v18\Source\Source\_Common\Project.h
; File C:\IAGOS\server\v18\Source\Source\_Common\data.h
; File C:\IAGOS\server\v18\Source\Source\_Common\Project.h
;	COMDAT ?GetText@CProject@@QAEPBDK@Z
_TEXT	SEGMENT
_dwIndex$ = 8						; size = 4
?GetText@CProject@@QAEPBDK@Z PROC			; CProject::GetText, COMDAT
; _this$ = ecx

; 1426 : { 

  00000	55		 push	 ebp
  00001	8b ec		 mov	 ebp, esp

; 1427 : 	VERIFY_RANGE( (int)( dwIndex ), 0, m_colorText.GetSize(), "GetText range_error", "error" );

  00003	8b 55 08	 mov	 edx, DWORD PTR _dwIndex$[ebp]
  00006	56		 push	 esi
  00007	85 d2		 test	 edx, edx
  00009	78 29		 js	 SHORT $LN19@GetText
  0000b	3b 91 ac 02 00
	00		 cmp	 edx, DWORD PTR [ecx+684]
  00011	7d 21		 jge	 SHORT $LN19@GetText
; File C:\IAGOS\server\v18\Source\Source\_Common\data.h

; 270  : 	if( dwIndex >= (DWORD)m_nMaxIndex )

  00013	73 15		 jae	 SHORT $LN18@GetText

; 271  : 		return NULL;
; 272  : 	return (T*) m_apOffset[ dwIndex ];

  00015	8b 81 9c 02 00
	00		 mov	 eax, DWORD PTR [ecx+668]
  0001b	8b 04 90	 mov	 eax, DWORD PTR [eax+edx*4]
; File C:\IAGOS\server\v18\Source\Source\_Common\Project.h

; 1428 : 	if( m_colorText.GetAt( dwIndex ) == NULL )

  0001e	85 c0		 test	 eax, eax
  00020	74 08		 je	 SHORT $LN18@GetText

; 1430 : 	return m_colorText.GetAt( dwIndex )->lpszData; 

  00022	8b 40 04	 mov	 eax, DWORD PTR [eax+4]
  00025	5e		 pop	 esi

; 1431 : }

  00026	5d		 pop	 ebp
  00027	c2 04 00	 ret	 4
$LN18@GetText:

; 1429 : 		return "";

  0002a	b8 00 00 00 00	 mov	 eax, OFFSET ??_C@_00CNPNBAHC@@
  0002f	5e		 pop	 esi

; 1431 : }

  00030	5d		 pop	 ebp
  00031	c2 04 00	 ret	 4
$LN19@GetText:

; 579  : 	LPCTSTR szErr = Error( _T( "%s min:%d, max:%d, index:%d" ), szMsg, nMin, nMax, nIndex ); 

  00034	52		 push	 edx
  00035	ff b1 ac 02 00
	00		 push	 DWORD PTR [ecx+684]
  0003b	6a 00		 push	 0
  0003d	68 00 00 00 00	 push	 OFFSET ??_C@_0BE@OHDBLHOM@GetText?5range_error@
  00042	68 00 00 00 00	 push	 OFFSET ??_C@_0BM@HMFGHCP@?$CFs?5min?3?$CFd?0?5max?3?$CFd?0?5index?3?$CFd@
  00047	e8 00 00 00 00	 call	 ?Error@@YAPBDPBDZZ	; Error
  0004c	83 c4 14	 add	 esp, 20			; 00000014H

; 1427 : 	VERIFY_RANGE( (int)( dwIndex ), 0, m_colorText.GetSize(), "GetText range_error", "error" );

  0004f	b8 00 00 00 00	 mov	 eax, OFFSET ??_C@_05KKCIMGE@error@
  00054	5e		 pop	 esi

; 1431 : }

  00055	5d		 pop	 ebp
  00056	c2 04 00	 ret	 4
?GetText@CProject@@QAEPBDK@Z ENDP			; CProject::GetText
_TEXT	ENDS
; Function compile flags: /Ogtp
; File C:\IAGOS\server\v18\Source\Source\_Common\Project.h
; File C:\IAGOS\server\v18\Source\Source\_Common\data.h
; File C:\IAGOS\server\v18\Source\Source\_Common\Project.h
;	COMDAT ?GetSkillProp@CProject@@QAEPAUItemProp@@H@Z
_TEXT	SEGMENT
_nIndex$ = 8						; size = 4
?GetSkillProp@CProject@@QAEPAUItemProp@@H@Z PROC	; CProject::GetSkillProp, COMDAT
; _this$ = ecx

; 1394 : { 

  00000	55		 push	 ebp
  00001	8b ec		 mov	 ebp, esp

; 1395 : 	VERIFY_RANGE( nIndex, 0, m_aPropSkill.GetSize(), "GetSkillProp range_error", NULL );

  00003	8b 55 08	 mov	 edx, DWORD PTR _nIndex$[ebp]
  00006	56		 push	 esi
  00007	85 d2		 test	 edx, edx
  00009	78 18		 js	 SHORT $LN14@GetSkillPr
  0000b	3b 91 64 02 00
	00		 cmp	 edx, DWORD PTR [ecx+612]
  00011	7d 10		 jge	 SHORT $LN14@GetSkillPr
; File C:\IAGOS\server\v18\Source\Source\_Common\data.h

; 270  : 	if( dwIndex >= (DWORD)m_nMaxIndex )

  00013	73 29		 jae	 SHORT $LN18@GetSkillPr

; 271  : 		return NULL;
; 272  : 	return (T*) m_apOffset[ dwIndex ];

  00015	8b 81 54 02 00
	00		 mov	 eax, DWORD PTR [ecx+596]
  0001b	5e		 pop	 esi
  0001c	8b 04 90	 mov	 eax, DWORD PTR [eax+edx*4]
; File C:\IAGOS\server\v18\Source\Source\_Common\Project.h

; 1397 : }

  0001f	5d		 pop	 ebp
  00020	c2 04 00	 ret	 4
$LN14@GetSkillPr:

; 579  : 	LPCTSTR szErr = Error( _T( "%s min:%d, max:%d, index:%d" ), szMsg, nMin, nMax, nIndex ); 

  00023	52		 push	 edx
  00024	ff b1 64 02 00
	00		 push	 DWORD PTR [ecx+612]
  0002a	6a 00		 push	 0
  0002c	68 00 00 00 00	 push	 OFFSET ??_C@_0BJ@GPNGCFMK@GetSkillProp?5range_error@
  00031	68 00 00 00 00	 push	 OFFSET ??_C@_0BM@HMFGHCP@?$CFs?5min?3?$CFd?0?5max?3?$CFd?0?5index?3?$CFd@
  00036	e8 00 00 00 00	 call	 ?Error@@YAPBDPBDZZ	; Error
  0003b	83 c4 14	 add	 esp, 20			; 00000014H
$LN18@GetSkillPr:

; 1397 : }

  0003e	33 c0		 xor	 eax, eax
  00040	5e		 pop	 esi
  00041	5d		 pop	 ebp
  00042	c2 04 00	 ret	 4
?GetSkillProp@CProject@@QAEPAUItemProp@@H@Z ENDP	; CProject::GetSkillProp
_TEXT	ENDS
; Function compile flags: /Ogtp
; File C:\IAGOS\server\v18\Source\Source\_Common\Project.h
; File C:\IAGOS\server\v18\Source\Source\_Common\data.h
; File C:\IAGOS\server\v18\Source\Source\_Common\Project.h
;	COMDAT ?GetItemProp@CProject@@QAEPAUItemProp@@H@Z
_TEXT	SEGMENT
_nIndex$ = 8						; size = 4
?GetItemProp@CProject@@QAEPAUItemProp@@H@Z PROC		; CProject::GetItemProp, COMDAT
; _this$ = ecx

; 1388 : { 

  00000	55		 push	 ebp
  00001	8b ec		 mov	 ebp, esp

; 1389 : 	VERIFY_RANGE_ASSERT( nIndex, 0, m_aPropItem.GetSize(), "GetItemProp range_error", NULL );

  00003	8b 55 08	 mov	 edx, DWORD PTR _nIndex$[ebp]
  00006	56		 push	 esi
  00007	85 d2		 test	 edx, edx
  00009	78 18		 js	 SHORT $LN14@GetItemPro
  0000b	3b 91 40 02 00
	00		 cmp	 edx, DWORD PTR [ecx+576]
  00011	7d 10		 jge	 SHORT $LN14@GetItemPro
; File C:\IAGOS\server\v18\Source\Source\_Common\data.h

; 270  : 	if( dwIndex >= (DWORD)m_nMaxIndex )

  00013	73 29		 jae	 SHORT $LN18@GetItemPro

; 271  : 		return NULL;
; 272  : 	return (T*) m_apOffset[ dwIndex ];

  00015	8b 81 30 02 00
	00		 mov	 eax, DWORD PTR [ecx+560]
  0001b	5e		 pop	 esi
  0001c	8b 04 90	 mov	 eax, DWORD PTR [eax+edx*4]
; File C:\IAGOS\server\v18\Source\Source\_Common\Project.h

; 1391 : }

  0001f	5d		 pop	 ebp
  00020	c2 04 00	 ret	 4
$LN14@GetItemPro:

; 579  : 	LPCTSTR szErr = Error( _T( "%s min:%d, max:%d, index:%d" ), szMsg, nMin, nMax, nIndex ); 

  00023	52		 push	 edx
  00024	ff b1 40 02 00
	00		 push	 DWORD PTR [ecx+576]
  0002a	6a 00		 push	 0
  0002c	68 00 00 00 00	 push	 OFFSET ??_C@_0BI@BEIFNGEL@GetItemProp?5range_error@
  00031	68 00 00 00 00	 push	 OFFSET ??_C@_0BM@HMFGHCP@?$CFs?5min?3?$CFd?0?5max?3?$CFd?0?5index?3?$CFd@
  00036	e8 00 00 00 00	 call	 ?Error@@YAPBDPBDZZ	; Error
  0003b	83 c4 14	 add	 esp, 20			; 00000014H
$LN18@GetItemPro:

; 1391 : }

  0003e	33 c0		 xor	 eax, eax
  00040	5e		 pop	 esi
  00041	5d		 pop	 ebp
  00042	c2 04 00	 ret	 4
?GetItemProp@CProject@@QAEPAUItemProp@@H@Z ENDP		; CProject::GetItemProp
_TEXT	ENDS
; Function compile flags: /Ogtp
; File C:\Program Files\Microsoft Visual Studio\2022\Professional\VC\Tools\MSVC\14.44.35207\include\vector
;	COMDAT ?_Xlength@?$vector@EV?$allocator@E@std@@@std@@CAXXZ
_TEXT	SEGMENT
?_Xlength@?$vector@EV?$allocator@E@std@@@std@@CAXXZ PROC ; std::vector<unsigned char,std::allocator<unsigned char> >::_Xlength, COMDAT

; 2184 :         _Xlength_error("vector too long");

  00000	68 00 00 00 00	 push	 OFFSET ??_C@_0BA@FOIKENOD@vector?5too?5long@
  00005	e8 00 00 00 00	 call	 ?_Xlength_error@std@@YAXPBD@Z ; std::_Xlength_error
$LN3@Xlength:
  0000a	cc		 int	 3
?_Xlength@?$vector@EV?$allocator@E@std@@@std@@CAXXZ ENDP ; std::vector<unsigned char,std::allocator<unsigned char> >::_Xlength
_TEXT	ENDS
; Function compile flags: /Ogtp
; File C:\Program Files\Microsoft Visual Studio\2022\Professional\VC\Tools\MSVC\14.44.35207\include\vector
; File C:\Program Files\Microsoft Visual Studio\2022\Professional\VC\Tools\MSVC\14.44.35207\include\xmemory
; File C:\Program Files\Microsoft Visual Studio\2022\Professional\VC\Tools\MSVC\14.44.35207\include\vector
; File C:\Program Files\Microsoft Visual Studio\2022\Professional\VC\Tools\MSVC\14.44.35207\include\xmemory
; File C:\Program Files\Microsoft Visual Studio\2022\Professional\VC\Tools\MSVC\14.44.35207\include\vector
; File C:\Program Files\Microsoft Visual Studio\2022\Professional\VC\Tools\MSVC\14.44.35207\include\xmemory
; File C:\Program Files\Microsoft Visual Studio\2022\Professional\VC\Tools\MSVC\14.44.35207\include\vector
;	COMDAT ??1?$vector@EV?$allocator@E@std@@@std@@QAE@XZ
_TEXT	SEGMENT
??1?$vector@EV?$allocator@E@std@@@std@@QAE@XZ PROC	; std::vector<unsigned char,std::allocator<unsigned char> >::~vector<unsigned char,std::allocator<unsigned char> >, COMDAT
; _this$ = ecx

; 829  :     _CONSTEXPR20 ~vector() noexcept {

  00000	56		 push	 esi
  00001	8b f1		 mov	 esi, ecx

; 2090 :         if (_Myfirst) { // destroy and deallocate old array

  00003	8b 06		 mov	 eax, DWORD PTR [esi]
  00005	85 c0		 test	 eax, eax
  00007	74 3d		 je	 SHORT $LN5@vector

; 2091 :             _STD _Destroy_range(_Myfirst, _Mylast, _Al);
; 2092 :             _ASAN_VECTOR_REMOVE;
; 2093 :             _Al.deallocate(_Myfirst, static_cast<size_type>(_Myend - _Myfirst));

  00009	8b 4e 08	 mov	 ecx, DWORD PTR [esi+8]
  0000c	2b c8		 sub	 ecx, eax
; File C:\Program Files\Microsoft Visual Studio\2022\Professional\VC\Tools\MSVC\14.44.35207\include\xmemory

; 284  :         if (_Bytes >= _Big_allocation_threshold) {

  0000e	81 f9 00 10 00
	00		 cmp	 ecx, 4096		; 00001000H
  00014	72 12		 jb	 SHORT $LN18@vector

; 205  :     const uintptr_t _Ptr_container   = _Ptr_user[-1];

  00016	8b 50 fc	 mov	 edx, DWORD PTR [eax-4]
  00019	83 c1 23	 add	 ecx, 35			; 00000023H

; 206  : 
; 207  :     // If the following asserts, it likely means that we are performing
; 208  :     // an aligned delete on memory coming from an unaligned allocation.
; 209  :     _STL_ASSERT(_Ptr_user[-2] == _Big_allocation_sentinel, "invalid argument");
; 210  : 
; 211  :     // Extra paranoia on aligned allocation/deallocation; ensure _Ptr_container is
; 212  :     // in range [_Min_back_shift, _Non_user_size]
; 213  : #ifdef _DEBUG
; 214  :     constexpr uintptr_t _Min_back_shift = 2 * sizeof(void*);
; 215  : #else // ^^^ defined(_DEBUG) / !defined(_DEBUG) vvv
; 216  :     constexpr uintptr_t _Min_back_shift = sizeof(void*);
; 217  : #endif // ^^^ !defined(_DEBUG) ^^^
; 218  :     const uintptr_t _Back_shift = reinterpret_cast<uintptr_t>(_Ptr) - _Ptr_container;

  0001c	2b c2		 sub	 eax, edx

; 219  :     _STL_VERIFY(_Back_shift >= _Min_back_shift && _Back_shift <= _Non_user_size, "invalid argument");

  0001e	83 c0 fc	 add	 eax, -4			; fffffffcH
  00021	83 f8 1f	 cmp	 eax, 31			; 0000001fH
  00024	77 22		 ja	 SHORT $LN17@vector

; 220  :     _Ptr = reinterpret_cast<void*>(_Ptr_container);

  00026	8b c2		 mov	 eax, edx
$LN18@vector:

; 289  :         ::operator delete(_Ptr, _Bytes);

  00028	51		 push	 ecx
  00029	50		 push	 eax
  0002a	e8 00 00 00 00	 call	 ??3@YAXPAXI@Z		; operator delete
; File C:\Program Files\Microsoft Visual Studio\2022\Professional\VC\Tools\MSVC\14.44.35207\include\vector

; 2095 :             _Myfirst = nullptr;

  0002f	c7 06 00 00 00
	00		 mov	 DWORD PTR [esi], 0
; File C:\Program Files\Microsoft Visual Studio\2022\Professional\VC\Tools\MSVC\14.44.35207\include\xmemory

; 289  :         ::operator delete(_Ptr, _Bytes);

  00035	83 c4 08	 add	 esp, 8
; File C:\Program Files\Microsoft Visual Studio\2022\Professional\VC\Tools\MSVC\14.44.35207\include\vector

; 2096 :             _Mylast  = nullptr;

  00038	c7 46 04 00 00
	00 00		 mov	 DWORD PTR [esi+4], 0

; 2097 :             _Myend   = nullptr;

  0003f	c7 46 08 00 00
	00 00		 mov	 DWORD PTR [esi+8], 0
$LN5@vector:
  00046	5e		 pop	 esi

; 835  :     }

  00047	c3		 ret	 0
$LN17@vector:
; File C:\Program Files\Microsoft Visual Studio\2022\Professional\VC\Tools\MSVC\14.44.35207\include\xmemory

; 219  :     _STL_VERIFY(_Back_shift >= _Min_back_shift && _Back_shift <= _Non_user_size, "invalid argument");

  00048	6a 00		 push	 0
  0004a	6a 00		 push	 0
  0004c	6a 00		 push	 0
  0004e	6a 00		 push	 0
  00050	6a 00		 push	 0
  00052	e8 00 00 00 00	 call	 __invoke_watson
$LN26@vector:
  00057	cc		 int	 3
??1?$vector@EV?$allocator@E@std@@@std@@QAE@XZ ENDP	; std::vector<unsigned char,std::allocator<unsigned char> >::~vector<unsigned char,std::allocator<unsigned char> >
_TEXT	ENDS
; Function compile flags: /Ogtp
; File C:\IAGOS\server\v18\Source\Source\_Common\Obj.h
; File C:\Program Files (x86)\Windows Kits\10\Include\10.0.26100.0\ucrt\corecrt_math.h
; File C:\IAGOS\server\v18\Source\Source\DX_SDK\d3dx9math.inl
; File C:\Program Files (x86)\Windows Kits\10\Include\10.0.26100.0\ucrt\corecrt_math.h
; File C:\IAGOS\server\v18\Source\Source\DX_SDK\d3dx9math.inl
; File C:\Program Files (x86)\Windows Kits\10\Include\10.0.26100.0\ucrt\corecrt_math.h
; File C:\IAGOS\server\v18\Source\Source\_Common\Obj.h
; File C:\IAGOS\server\v18\Source\Source\DX_SDK\d3dx9math.inl
; File C:\IAGOS\server\v18\Source\Source\_Common\Obj.h
; File C:\IAGOS\server\v18\Source\Source\DX_SDK\d3dx9math.inl
; File C:\Program Files (x86)\Windows Kits\10\Include\10.0.26100.0\ucrt\corecrt_math.h
; File C:\IAGOS\server\v18\Source\Source\_Common\Obj.h
;	COMDAT ?GetDegree@@YAMABUD3DXVECTOR3@@0@Z
_TEXT	SEGMENT
_fDegree$ = -32						; size = 4
_vDir1$ = -28						; size = 12
_vDir2$ = -16						; size = 12
__$ArrayPad$ = -4					; size = 4
_vDestPos$ = 8						; size = 4
_vSrcPos$ = 12						; size = 4
?GetDegree@@YAMABUD3DXVECTOR3@@0@Z PROC			; GetDegree, COMDAT

; 289  : {

  00000	55		 push	 ebp
  00001	8b ec		 mov	 ebp, esp
  00003	83 ec 20	 sub	 esp, 32			; 00000020H
  00006	a1 00 00 00 00	 mov	 eax, DWORD PTR ___security_cookie
  0000b	33 c5		 xor	 eax, ebp
  0000d	89 45 fc	 mov	 DWORD PTR __$ArrayPad$[ebp], eax
  00010	56		 push	 esi
  00011	8b 75 08	 mov	 esi, DWORD PTR _vDestPos$[ebp]
  00014	0f 57 c0	 xorps	 xmm0, xmm0
  00017	57		 push	 edi
  00018	8b 7d 0c	 mov	 edi, DWORD PTR _vSrcPos$[ebp]
; File C:\Program Files (x86)\Windows Kits\10\Include\10.0.26100.0\ucrt\corecrt_math.h

; 789  :             return (float)sin(_X);

  0001b	e8 00 00 00 00	 call	 __libm_sse2_sin_precise
  00020	0f 57 c9	 xorps	 xmm1, xmm1
; File C:\IAGOS\server\v18\Source\Source\DX_SDK\d3dx9math.inl

; 301  :     y = fy;

  00023	c7 45 e8 00 00
	00 00		 mov	 DWORD PTR _vDir1$[ebp+4], 0
; File C:\Program Files (x86)\Windows Kits\10\Include\10.0.26100.0\ucrt\corecrt_math.h

; 789  :             return (float)sin(_X);

  0002a	f2 0f 5a c8	 cvtsd2ss xmm1, xmm0
  0002e	0f 57 c0	 xorps	 xmm0, xmm0
; File C:\IAGOS\server\v18\Source\Source\DX_SDK\d3dx9math.inl

; 300  :     x = fx;

  00031	f3 0f 11 4d e4	 movss	 DWORD PTR _vDir1$[ebp], xmm1
; File C:\Program Files (x86)\Windows Kits\10\Include\10.0.26100.0\ucrt\corecrt_math.h

; 683  :             return (float)cos(_X);

  00036	e8 00 00 00 00	 call	 __libm_sse2_cos_precise
  0003b	f2 0f 5a c0	 cvtsd2ss xmm0, xmm0
; File C:\IAGOS\server\v18\Source\Source\_Common\Obj.h

; 294  : 	D3DXVec3Normalize( &vDir1, &vDir1 );

  0003f	8d 45 e4	 lea	 eax, DWORD PTR _vDir1$[ebp]
  00042	c7 45 f4 00 00
	00 00		 mov	 DWORD PTR _vDir2$[ebp+4], 0
  00049	50		 push	 eax
  0004a	50		 push	 eax

; 282  : 	FLOAT fz = -cosf( fTheta ) * fVelocity;

  0004b	0f 57 05 00 00
	00 00		 xorps	 xmm0, DWORD PTR __xmm@80000000800000008000000080000000
; File C:\IAGOS\server\v18\Source\Source\DX_SDK\d3dx9math.inl

; 302  :     z = fz;

  00052	f3 0f 11 45 ec	 movss	 DWORD PTR _vDir1$[ebp+8], xmm0

; 383  :     return D3DXVECTOR3(x - v.x, y - v.y, z - v.z);

  00057	f3 0f 10 06	 movss	 xmm0, DWORD PTR [esi]
  0005b	f3 0f 5c 07	 subss	 xmm0, DWORD PTR [edi]

; 300  :     x = fx;

  0005f	f3 0f 11 45 f0	 movss	 DWORD PTR _vDir2$[ebp], xmm0

; 383  :     return D3DXVECTOR3(x - v.x, y - v.y, z - v.z);

  00064	f3 0f 10 46 08	 movss	 xmm0, DWORD PTR [esi+8]
  00069	f3 0f 5c 47 08	 subss	 xmm0, DWORD PTR [edi+8]

; 302  :     z = fz;

  0006e	f3 0f 11 45 f8	 movss	 DWORD PTR _vDir2$[ebp+8], xmm0
; File C:\IAGOS\server\v18\Source\Source\_Common\Obj.h

; 294  : 	D3DXVec3Normalize( &vDir1, &vDir1 );

  00073	e8 00 00 00 00	 call	 _D3DXVec3Normalize@8

; 295  : 	D3DXVec3Normalize( &vDir2, &vDir2 );

  00078	8d 45 f0	 lea	 eax, DWORD PTR _vDir2$[ebp]
  0007b	50		 push	 eax
  0007c	50		 push	 eax
  0007d	e8 00 00 00 00	 call	 _D3DXVec3Normalize@8
; File C:\IAGOS\server\v18\Source\Source\DX_SDK\d3dx9math.inl

; 1709 :     return pV1->x * pV2->x + pV1->y * pV2->y + pV1->z * pV2->z;

  00082	f3 0f 10 4d e4	 movss	 xmm1, DWORD PTR _vDir1$[ebp]
  00087	f3 0f 10 45 e8	 movss	 xmm0, DWORD PTR _vDir1$[ebp+4]
  0008c	f3 0f 59 45 f4	 mulss	 xmm0, DWORD PTR _vDir2$[ebp+4]
  00091	f3 0f 59 4d f0	 mulss	 xmm1, DWORD PTR _vDir2$[ebp]
  00096	f3 0f 58 c8	 addss	 xmm1, xmm0
  0009a	f3 0f 10 45 f8	 movss	 xmm0, DWORD PTR _vDir2$[ebp+8]
  0009f	f3 0f 59 45 ec	 mulss	 xmm0, DWORD PTR _vDir1$[ebp+8]
  000a4	f3 0f 58 c8	 addss	 xmm1, xmm0
; File C:\Program Files (x86)\Windows Kits\10\Include\10.0.26100.0\ucrt\corecrt_math.h

; 658  :             return (float)acos(_X);

  000a8	0f 5a c1	 cvtps2pd xmm0, xmm1
  000ab	e8 00 00 00 00	 call	 __libm_sse2_acos_precise
  000b0	0f 57 c9	 xorps	 xmm1, xmm1
  000b3	f2 0f 5a c8	 cvtsd2ss xmm1, xmm0
; File C:\IAGOS\server\v18\Source\Source\_Common\Obj.h

; 299  : 	if( vDir2.x < 0.0f )

  000b7	5f		 pop	 edi
  000b8	5e		 pop	 esi
  000b9	0f 57 c0	 xorps	 xmm0, xmm0
  000bc	0f 2f 45 f0	 comiss	 xmm0, DWORD PTR _vDir2$[ebp]
  000c0	f3 0f 59 0d 00
	00 00 00	 mulss	 xmm1, DWORD PTR __real@42652ee0
  000c8	f3 0f 11 4d e0	 movss	 DWORD PTR _fDegree$[ebp], xmm1
  000cd	76 11		 jbe	 SHORT $LN21@GetDegree

; 300  : 		fDegree = 360.0f - fDegree;

  000cf	f3 0f 10 05 00
	00 00 00	 movss	 xmm0, DWORD PTR __real@43b40000
  000d7	f3 0f 5c c1	 subss	 xmm0, xmm1
  000db	f3 0f 11 45 e0	 movss	 DWORD PTR _fDegree$[ebp], xmm0
$LN21@GetDegree:

; 301  : 	else
; 302  : 		fDegree = fDegree;
; 303  : 	return fDegree;
; 304  : }

  000e0	8b 4d fc	 mov	 ecx, DWORD PTR __$ArrayPad$[ebp]
  000e3	d9 45 e0	 fld	 DWORD PTR _fDegree$[ebp]
  000e6	33 cd		 xor	 ecx, ebp
  000e8	e8 00 00 00 00	 call	 @__security_check_cookie@4
  000ed	8b e5		 mov	 esp, ebp
  000ef	5d		 pop	 ebp
  000f0	c3		 ret	 0
?GetDegree@@YAMABUD3DXVECTOR3@@0@Z ENDP			; GetDegree
_TEXT	ENDS
; Function compile flags: /Ogtp
; File C:\IAGOS\server\v18\Source\Source\_network\CmnHdr.h
;	COMDAT ??0_LogItemInfo@@QAE@XZ
_TEXT	SEGMENT
??0_LogItemInfo@@QAE@XZ PROC				; _LogItemInfo::_LogItemInfo, COMDAT
; _this$ = ecx

; 636  : 	{
; 637  : 		Action = _T("");

  00000	c7 01 00 00 00
	00		 mov	 DWORD PTR [ecx], OFFSET ??_C@_00CNPNBAHC@@
  00006	0f 57 c0	 xorps	 xmm0, xmm0

; 638  : 		SendName = _T("");

  00009	c7 41 04 00 00
	00 00		 mov	 DWORD PTR [ecx+4], OFFSET ??_C@_00CNPNBAHC@@

; 639  : 		RecvName = _T("");
; 640  : 		WorldId = Gold = Gold2 = 0;
; 641  : 		Negudo = 0;
; 642  : 		MaxNegudo = 0;
; 643  : 		ItemNo = 0;
; 644  : 		//ItemName = _T("");
; 645  : 		::memset( szItemName, 0, sizeof(szItemName) );
; 646  : 		itemNumber = 0;
; 647  : 		nAbilityOption = 0;
; 648  : 		Gold_1 = 0;
; 649  : 		nSlot = 100;
; 650  : 		nSlot1 = 100;
; 651  : 		nItemResist = 0;
; 652  : 		nResistAbilityOption = 0;
; 653  : 		m_bCharged = FALSE;
; 654  : 		m_dwKeepTime = 0;
; 655  : #if __VER >= 11 // __SYS_IDENTIFY
; 656  : 		m_iRandomOptItemId = 0;
; 657  : #else	//__SYS_IDENTIFY
; 658  : 		m_nRandomOptItemId = 0;
; 659  : #endif	// __SYS_IDENTIFY
; 660  : #if __VER >= 12 // __EXT_PIERCING
; 661  : 		nPiercedSize = 0;
; 662  : //		for( int i=0; i<MAX_PIERCING_WEAPON; i++ )
; 663  : //			adwItemId[i] = 0;
; 664  : 		memset( adwItemId, 0, sizeof(adwItemId) );
; 665  : 		nUMPiercedSize = 0;
; 666  : //		for( i=0; i<MAX_PIERCING_ULTIMATE; i++ )
; 667  : //	adwUMItemId[i] = 0;
; 668  : 		memset( adwUMItemId, 0, sizeof(adwUMItemId) );
; 669  : #else // __EXT_PIERCING
; 670  : 		nPiercedSize = 0;
; 671  : 		adwItemId0 = 0;
; 672  : 		adwItemId1 = 0;
; 673  : 		adwItemId2 = 0;
; 674  : 		adwItemId3 = 0;
; 675  : #if __VER >= 9 // __ULTIMATE
; 676  : 		adwItemId4 = 0;
; 677  : #endif // __ULTIMATE
; 678  : #endif // __EXT_PIERCING
; 679  : #if __VER >= 9 // __PET_0410
; 680  : 		nPetKind = 0;
; 681  : 		nPetLevel = 0;
; 682  : 		dwPetExp = 0;
; 683  : 		wPetEnergy = 0;

  00010	33 c0		 xor	 eax, eax
  00012	c7 41 08 00 00
	00 00		 mov	 DWORD PTR [ecx+8], OFFSET ??_C@_00CNPNBAHC@@
  00019	c7 41 14 00 00
	00 00		 mov	 DWORD PTR [ecx+20], 0
  00020	c7 41 10 00 00
	00 00		 mov	 DWORD PTR [ecx+16], 0
  00027	c7 41 0c 00 00
	00 00		 mov	 DWORD PTR [ecx+12], 0
  0002e	c7 41 1c 00 00
	00 00		 mov	 DWORD PTR [ecx+28], 0
  00035	c7 41 20 00 00
	00 00		 mov	 DWORD PTR [ecx+32], 0
  0003c	c7 41 18 00 00
	00 00		 mov	 DWORD PTR [ecx+24], 0
  00043	0f 11 41 24	 movups	 XMMWORD PTR [ecx+36], xmm0
  00047	0f 11 41 34	 movups	 XMMWORD PTR [ecx+52], xmm0
  0004b	c7 41 44 00 00
	00 00		 mov	 DWORD PTR [ecx+68], 0
  00052	c7 41 48 00 00
	00 00		 mov	 DWORD PTR [ecx+72], 0
  00059	c7 41 4c 00 00
	00 00		 mov	 DWORD PTR [ecx+76], 0
  00060	c7 41 50 64 00
	00 00		 mov	 DWORD PTR [ecx+80], 100	; 00000064H
  00067	c7 41 54 64 00
	00 00		 mov	 DWORD PTR [ecx+84], 100	; 00000064H
  0006e	c7 41 58 00 00
	00 00		 mov	 DWORD PTR [ecx+88], 0
  00075	c7 41 5c 00 00
	00 00		 mov	 DWORD PTR [ecx+92], 0
  0007c	c7 41 60 00 00
	00 00		 mov	 DWORD PTR [ecx+96], 0
  00083	c7 41 64 00 00
	00 00		 mov	 DWORD PTR [ecx+100], 0
  0008a	c7 41 68 00 00
	00 00		 mov	 DWORD PTR [ecx+104], 0
  00091	c7 41 6c 00 00
	00 00		 mov	 DWORD PTR [ecx+108], 0
  00098	c7 41 70 00 00
	00 00		 mov	 DWORD PTR [ecx+112], 0
  0009f	0f 11 41 74	 movups	 XMMWORD PTR [ecx+116], xmm0
  000a3	0f 11 81 84 00
	00 00		 movups	 XMMWORD PTR [ecx+132], xmm0
  000aa	66 0f d6 81 94
	00 00 00	 movq	 QWORD PTR [ecx+148], xmm0
  000b2	c7 81 9c 00 00
	00 00 00 00 00	 mov	 DWORD PTR [ecx+156], 0
  000bc	0f 11 81 a0 00
	00 00		 movups	 XMMWORD PTR [ecx+160], xmm0
  000c3	c7 81 b0 00 00
	00 00 00 00 00	 mov	 DWORD PTR [ecx+176], 0
  000cd	89 81 bc 00 00
	00		 mov	 DWORD PTR [ecx+188], eax

; 684  : 		wPetLife = 0;
; 685  : 		nPetAL_D = 0;

  000d3	89 81 c0 00 00
	00		 mov	 DWORD PTR [ecx+192], eax

; 686  : 		nPetAL_C = 0;
; 687  : 		nPetAL_B = 0;
; 688  : 		nPetAL_A = 0;
; 689  : 		nPetAL_S = 0;

  000d9	88 81 c4 00 00
	00		 mov	 BYTE PTR [ecx+196], al

; 690  : #endif // __PET_0410
; 691  : 	}

  000df	8b c1		 mov	 eax, ecx
  000e1	66 c7 81 b4 00
	00 00 00 00	 mov	 WORD PTR [ecx+180], 0
  000ea	c7 81 b8 00 00
	00 00 00 00 00	 mov	 DWORD PTR [ecx+184], 0
  000f4	c3		 ret	 0
??0_LogItemInfo@@QAE@XZ ENDP				; _LogItemInfo::_LogItemInfo
_TEXT	ENDS
; Function compile flags: /Ogtp
; File C:\IAGOS\server\v18\Source\Source\DX_SDK\d3dx9math.h
;	COMDAT ??0D3DXVECTOR3@@QAE@XZ
_TEXT	SEGMENT
??0D3DXVECTOR3@@QAE@XZ PROC				; D3DXVECTOR3::D3DXVECTOR3, COMDAT
; _this$ = ecx

; 165  :     D3DXVECTOR3() {};

  00000	8b c1		 mov	 eax, ecx
  00002	c3		 ret	 0
??0D3DXVECTOR3@@QAE@XZ ENDP				; D3DXVECTOR3::D3DXVECTOR3
_TEXT	ENDS
; Function compile flags: /Ogtp
; File C:\Program Files\Microsoft Visual Studio\2022\Professional\VC\Tools\MSVC\14.44.35207\include\xmemory
;	COMDAT ?_Throw_bad_array_new_length@std@@YAXXZ
_TEXT	SEGMENT
$T1 = -12						; size = 12
?_Throw_bad_array_new_length@std@@YAXXZ PROC		; std::_Throw_bad_array_new_length, COMDAT

; 107  : [[noreturn]] inline void _Throw_bad_array_new_length() {

  00000	55		 push	 ebp
  00001	8b ec		 mov	 ebp, esp
  00003	83 ec 0c	 sub	 esp, 12			; 0000000cH

; 108  :     _THROW(bad_array_new_length{});

  00006	8d 4d f4	 lea	 ecx, DWORD PTR $T1[ebp]
  00009	e8 00 00 00 00	 call	 ??0bad_array_new_length@std@@QAE@XZ ; std::bad_array_new_length::bad_array_new_length
  0000e	68 00 00 00 00	 push	 OFFSET __TI3?AVbad_array_new_length@std@@
  00013	8d 45 f4	 lea	 eax, DWORD PTR $T1[ebp]
  00016	50		 push	 eax
  00017	e8 00 00 00 00	 call	 __CxxThrowException@8
$LN3@Throw_bad_:
  0001c	cc		 int	 3
?_Throw_bad_array_new_length@std@@YAXXZ ENDP		; std::_Throw_bad_array_new_length
_TEXT	ENDS
; Function compile flags: /Ogtp
; File C:\Program Files\Microsoft Visual Studio\2022\Professional\VC\Tools\MSVC\14.44.35207\include\vcruntime_exception.h
;	COMDAT ??_Gbad_array_new_length@std@@UAEPAXI@Z
_TEXT	SEGMENT
___flags$ = 8						; size = 4
??_Gbad_array_new_length@std@@UAEPAXI@Z PROC		; std::bad_array_new_length::`scalar deleting destructor', COMDAT
; _this$ = ecx
  00000	55		 push	 ebp
  00001	8b ec		 mov	 ebp, esp

; 90   :     {

  00003	56		 push	 esi
  00004	8b f1		 mov	 esi, ecx

; 91   :         __std_exception_destroy(&_Data);

  00006	8d 46 04	 lea	 eax, DWORD PTR [esi+4]
  00009	c7 06 00 00 00
	00		 mov	 DWORD PTR [esi], OFFSET ??_7exception@std@@6B@
  0000f	50		 push	 eax
  00010	e8 00 00 00 00	 call	 ___std_exception_destroy
  00015	83 c4 04	 add	 esp, 4
  00018	f6 45 08 01	 test	 BYTE PTR ___flags$[ebp], 1
  0001c	74 0b		 je	 SHORT $LN18@scalar
  0001e	6a 0c		 push	 12			; 0000000cH
  00020	56		 push	 esi
  00021	e8 00 00 00 00	 call	 ??3@YAXPAXI@Z		; operator delete
  00026	83 c4 08	 add	 esp, 8
$LN18@scalar:
  00029	8b c6		 mov	 eax, esi
  0002b	5e		 pop	 esi
  0002c	5d		 pop	 ebp
  0002d	c2 04 00	 ret	 4
??_Gbad_array_new_length@std@@UAEPAXI@Z ENDP		; std::bad_array_new_length::`scalar deleting destructor'
_TEXT	ENDS
; Function compile flags: /Ogtp
; File C:\Program Files\Microsoft Visual Studio\2022\Professional\VC\Tools\MSVC\14.44.35207\include\vcruntime_exception.h
;	COMDAT ??0bad_array_new_length@std@@QAE@ABV01@@Z
_TEXT	SEGMENT
___that$ = 8						; size = 4
??0bad_array_new_length@std@@QAE@ABV01@@Z PROC		; std::bad_array_new_length::bad_array_new_length, COMDAT
; _this$ = ecx
  00000	55		 push	 ebp
  00001	8b ec		 mov	 ebp, esp

; 73   :     {

  00003	56		 push	 esi
  00004	8b f1		 mov	 esi, ecx
  00006	0f 57 c0	 xorps	 xmm0, xmm0

; 72   :         : _Data()

  00009	8d 46 04	 lea	 eax, DWORD PTR [esi+4]

; 74   :         __std_exception_copy(&_Other._Data, &_Data);

  0000c	50		 push	 eax
  0000d	c7 06 00 00 00
	00		 mov	 DWORD PTR [esi], OFFSET ??_7exception@std@@6B@
  00013	66 0f d6 00	 movq	 QWORD PTR [eax], xmm0
  00017	8b 45 08	 mov	 eax, DWORD PTR ___that$[ebp]
  0001a	83 c0 04	 add	 eax, 4
  0001d	50		 push	 eax
  0001e	e8 00 00 00 00	 call	 ___std_exception_copy
  00023	83 c4 08	 add	 esp, 8
  00026	c7 06 00 00 00
	00		 mov	 DWORD PTR [esi], OFFSET ??_7bad_array_new_length@std@@6B@
  0002c	8b c6		 mov	 eax, esi
  0002e	5e		 pop	 esi
  0002f	5d		 pop	 ebp
  00030	c2 04 00	 ret	 4
??0bad_array_new_length@std@@QAE@ABV01@@Z ENDP		; std::bad_array_new_length::bad_array_new_length
_TEXT	ENDS
; Function compile flags: /Ogtp
; File C:\Program Files\Microsoft Visual Studio\2022\Professional\VC\Tools\MSVC\14.44.35207\include\vcruntime_exception.h
;	COMDAT ??1bad_array_new_length@std@@UAE@XZ
_TEXT	SEGMENT
??1bad_array_new_length@std@@UAE@XZ PROC		; std::bad_array_new_length::~bad_array_new_length, COMDAT
; _this$ = ecx

; 91   :         __std_exception_destroy(&_Data);

  00000	8d 41 04	 lea	 eax, DWORD PTR [ecx+4]
  00003	c7 01 00 00 00
	00		 mov	 DWORD PTR [ecx], OFFSET ??_7exception@std@@6B@
  00009	50		 push	 eax
  0000a	e8 00 00 00 00	 call	 ___std_exception_destroy
  0000f	59		 pop	 ecx
  00010	c3		 ret	 0
??1bad_array_new_length@std@@UAE@XZ ENDP		; std::bad_array_new_length::~bad_array_new_length
_TEXT	ENDS
; Function compile flags: /Ogtp
; File C:\Program Files\Microsoft Visual Studio\2022\Professional\VC\Tools\MSVC\14.44.35207\include\vcruntime_exception.h
;	COMDAT ??0bad_array_new_length@std@@QAE@XZ
_TEXT	SEGMENT
??0bad_array_new_length@std@@QAE@XZ PROC		; std::bad_array_new_length::bad_array_new_length, COMDAT
; _this$ = ecx

; 144  :     {

  00000	0f 57 c0	 xorps	 xmm0, xmm0

; 145  :     }

  00003	8b c1		 mov	 eax, ecx

; 66   :         : _Data()

  00005	66 0f d6 41 04	 movq	 QWORD PTR [ecx+4], xmm0

; 67   :     {
; 68   :         _Data._What = _Message;

  0000a	c7 41 04 00 00
	00 00		 mov	 DWORD PTR [ecx+4], OFFSET ??_C@_0BF@KINCDENJ@bad?5array?5new?5length@

; 144  :     {

  00011	c7 01 00 00 00
	00		 mov	 DWORD PTR [ecx], OFFSET ??_7bad_array_new_length@std@@6B@

; 145  :     }

  00017	c3		 ret	 0
??0bad_array_new_length@std@@QAE@XZ ENDP		; std::bad_array_new_length::bad_array_new_length
_TEXT	ENDS
; Function compile flags: /Ogtp
; File C:\Program Files\Microsoft Visual Studio\2022\Professional\VC\Tools\MSVC\14.44.35207\include\vcruntime_exception.h
;	COMDAT ??_Gbad_alloc@std@@UAEPAXI@Z
_TEXT	SEGMENT
___flags$ = 8						; size = 4
??_Gbad_alloc@std@@UAEPAXI@Z PROC			; std::bad_alloc::`scalar deleting destructor', COMDAT
; _this$ = ecx
  00000	55		 push	 ebp
  00001	8b ec		 mov	 ebp, esp

; 90   :     {

  00003	56		 push	 esi
  00004	8b f1		 mov	 esi, ecx

; 91   :         __std_exception_destroy(&_Data);

  00006	8d 46 04	 lea	 eax, DWORD PTR [esi+4]
  00009	c7 06 00 00 00
	00		 mov	 DWORD PTR [esi], OFFSET ??_7exception@std@@6B@
  0000f	50		 push	 eax
  00010	e8 00 00 00 00	 call	 ___std_exception_destroy
  00015	83 c4 04	 add	 esp, 4
  00018	f6 45 08 01	 test	 BYTE PTR ___flags$[ebp], 1
  0001c	74 0b		 je	 SHORT $LN13@scalar
  0001e	6a 0c		 push	 12			; 0000000cH
  00020	56		 push	 esi
  00021	e8 00 00 00 00	 call	 ??3@YAXPAXI@Z		; operator delete
  00026	83 c4 08	 add	 esp, 8
$LN13@scalar:
  00029	8b c6		 mov	 eax, esi
  0002b	5e		 pop	 esi
  0002c	5d		 pop	 ebp
  0002d	c2 04 00	 ret	 4
??_Gbad_alloc@std@@UAEPAXI@Z ENDP			; std::bad_alloc::`scalar deleting destructor'
_TEXT	ENDS
; Function compile flags: /Ogtp
; File C:\Program Files\Microsoft Visual Studio\2022\Professional\VC\Tools\MSVC\14.44.35207\include\vcruntime_exception.h
;	COMDAT ??0bad_alloc@std@@QAE@ABV01@@Z
_TEXT	SEGMENT
___that$ = 8						; size = 4
??0bad_alloc@std@@QAE@ABV01@@Z PROC			; std::bad_alloc::bad_alloc, COMDAT
; _this$ = ecx
  00000	55		 push	 ebp
  00001	8b ec		 mov	 ebp, esp

; 73   :     {

  00003	56		 push	 esi
  00004	8b f1		 mov	 esi, ecx
  00006	0f 57 c0	 xorps	 xmm0, xmm0

; 72   :         : _Data()

  00009	8d 46 04	 lea	 eax, DWORD PTR [esi+4]

; 74   :         __std_exception_copy(&_Other._Data, &_Data);

  0000c	50		 push	 eax
  0000d	c7 06 00 00 00
	00		 mov	 DWORD PTR [esi], OFFSET ??_7exception@std@@6B@
  00013	66 0f d6 00	 movq	 QWORD PTR [eax], xmm0
  00017	8b 45 08	 mov	 eax, DWORD PTR ___that$[ebp]
  0001a	83 c0 04	 add	 eax, 4
  0001d	50		 push	 eax
  0001e	e8 00 00 00 00	 call	 ___std_exception_copy
  00023	83 c4 08	 add	 esp, 8
  00026	c7 06 00 00 00
	00		 mov	 DWORD PTR [esi], OFFSET ??_7bad_alloc@std@@6B@
  0002c	8b c6		 mov	 eax, esi
  0002e	5e		 pop	 esi
  0002f	5d		 pop	 ebp
  00030	c2 04 00	 ret	 4
??0bad_alloc@std@@QAE@ABV01@@Z ENDP			; std::bad_alloc::bad_alloc
_TEXT	ENDS
; Function compile flags: /Ogtp
; File C:\Program Files\Microsoft Visual Studio\2022\Professional\VC\Tools\MSVC\14.44.35207\include\vcruntime_exception.h
;	COMDAT ??_Gexception@std@@UAEPAXI@Z
_TEXT	SEGMENT
___flags$ = 8						; size = 4
??_Gexception@std@@UAEPAXI@Z PROC			; std::exception::`scalar deleting destructor', COMDAT
; _this$ = ecx
  00000	55		 push	 ebp
  00001	8b ec		 mov	 ebp, esp

; 90   :     {

  00003	56		 push	 esi
  00004	8b f1		 mov	 esi, ecx

; 91   :         __std_exception_destroy(&_Data);

  00006	8d 46 04	 lea	 eax, DWORD PTR [esi+4]
  00009	c7 06 00 00 00
	00		 mov	 DWORD PTR [esi], OFFSET ??_7exception@std@@6B@
  0000f	50		 push	 eax
  00010	e8 00 00 00 00	 call	 ___std_exception_destroy
  00015	83 c4 04	 add	 esp, 4
  00018	f6 45 08 01	 test	 BYTE PTR ___flags$[ebp], 1
  0001c	74 0b		 je	 SHORT $LN8@scalar
  0001e	6a 0c		 push	 12			; 0000000cH
  00020	56		 push	 esi
  00021	e8 00 00 00 00	 call	 ??3@YAXPAXI@Z		; operator delete
  00026	83 c4 08	 add	 esp, 8
$LN8@scalar:
  00029	8b c6		 mov	 eax, esi
  0002b	5e		 pop	 esi
  0002c	5d		 pop	 ebp
  0002d	c2 04 00	 ret	 4
??_Gexception@std@@UAEPAXI@Z ENDP			; std::exception::`scalar deleting destructor'
_TEXT	ENDS
; Function compile flags: /Ogtp
; File C:\Program Files\Microsoft Visual Studio\2022\Professional\VC\Tools\MSVC\14.44.35207\include\vcruntime_exception.h
;	COMDAT ?what@exception@std@@UBEPBDXZ
_TEXT	SEGMENT
?what@exception@std@@UBEPBDXZ PROC			; std::exception::what, COMDAT
; _this$ = ecx

; 96   :         return _Data._What ? _Data._What : "Unknown exception";

  00000	8b 49 04	 mov	 ecx, DWORD PTR [ecx+4]
  00003	b8 00 00 00 00	 mov	 eax, OFFSET ??_C@_0BC@EOODALEL@Unknown?5exception@
  00008	85 c9		 test	 ecx, ecx
  0000a	0f 45 c1	 cmovne	 eax, ecx

; 97   :     }

  0000d	c3		 ret	 0
?what@exception@std@@UBEPBDXZ ENDP			; std::exception::what
_TEXT	ENDS
; Function compile flags: /Ogtp
; File C:\Program Files\Microsoft Visual Studio\2022\Professional\VC\Tools\MSVC\14.44.35207\include\vcruntime_exception.h
;	COMDAT ??1exception@std@@UAE@XZ
_TEXT	SEGMENT
??1exception@std@@UAE@XZ PROC				; std::exception::~exception, COMDAT
; _this$ = ecx

; 91   :         __std_exception_destroy(&_Data);

  00000	8d 41 04	 lea	 eax, DWORD PTR [ecx+4]
  00003	c7 01 00 00 00
	00		 mov	 DWORD PTR [ecx], OFFSET ??_7exception@std@@6B@
  00009	50		 push	 eax
  0000a	e8 00 00 00 00	 call	 ___std_exception_destroy
  0000f	59		 pop	 ecx

; 92   :     }

  00010	c3		 ret	 0
??1exception@std@@UAE@XZ ENDP				; std::exception::~exception
_TEXT	ENDS
; Function compile flags: /Ogtp
; File C:\Program Files\Microsoft Visual Studio\2022\Professional\VC\Tools\MSVC\14.44.35207\include\vcruntime_exception.h
;	COMDAT ??0exception@std@@QAE@ABV01@@Z
_TEXT	SEGMENT
__Other$ = 8						; size = 4
??0exception@std@@QAE@ABV01@@Z PROC			; std::exception::exception, COMDAT
; _this$ = ecx

; 73   :     {

  00000	55		 push	 ebp
  00001	8b ec		 mov	 ebp, esp
  00003	56		 push	 esi
  00004	8b f1		 mov	 esi, ecx
  00006	0f 57 c0	 xorps	 xmm0, xmm0
  00009	8d 46 04	 lea	 eax, DWORD PTR [esi+4]

; 74   :         __std_exception_copy(&_Other._Data, &_Data);

  0000c	50		 push	 eax
  0000d	c7 06 00 00 00
	00		 mov	 DWORD PTR [esi], OFFSET ??_7exception@std@@6B@
  00013	66 0f d6 00	 movq	 QWORD PTR [eax], xmm0
  00017	8b 45 08	 mov	 eax, DWORD PTR __Other$[ebp]
  0001a	83 c0 04	 add	 eax, 4
  0001d	50		 push	 eax
  0001e	e8 00 00 00 00	 call	 ___std_exception_copy
  00023	83 c4 08	 add	 esp, 8

; 75   :     }

  00026	8b c6		 mov	 eax, esi
  00028	5e		 pop	 esi
  00029	5d		 pop	 ebp
  0002a	c2 04 00	 ret	 4
??0exception@std@@QAE@ABV01@@Z ENDP			; std::exception::exception
_TEXT	ENDS
; Function compile flags: /Ogtp
; File C:\Program Files\Microsoft Visual Studio\2022\Professional\VC\Tools\MSVC\14.44.35207\atlmfc\include\cstringt.h
; File C:\Program Files\Microsoft Visual Studio\2022\Professional\VC\Tools\MSVC\14.44.35207\atlmfc\include\afxstr.h
; File C:\Program Files\Microsoft Visual Studio\2022\Professional\VC\Tools\MSVC\14.44.35207\atlmfc\include\cstringt.h
; File C:\Program Files\Microsoft Visual Studio\2022\Professional\VC\Tools\MSVC\14.44.35207\atlmfc\include\afxstr.h
; File C:\Program Files\Microsoft Visual Studio\2022\Professional\VC\Tools\MSVC\14.44.35207\atlmfc\include\cstringt.h
; File C:\Program Files\Microsoft Visual Studio\2022\Professional\VC\Tools\MSVC\14.44.35207\atlmfc\include\atlcore.h
; File C:\Program Files\Microsoft Visual Studio\2022\Professional\VC\Tools\MSVC\14.44.35207\atlmfc\include\cstringt.h
; File C:\Program Files\Microsoft Visual Studio\2022\Professional\VC\Tools\MSVC\14.44.35207\atlmfc\include\atlsimpstr.h
; File C:\Program Files\Microsoft Visual Studio\2022\Professional\VC\Tools\MSVC\14.44.35207\atlmfc\include\cstringt.h
; File C:\Program Files\Microsoft Visual Studio\2022\Professional\VC\Tools\MSVC\14.44.35207\atlmfc\include\atlsimpstr.h
; File C:\Program Files\Microsoft Visual Studio\2022\Professional\VC\Tools\MSVC\14.44.35207\atlmfc\include\cstringt.h
; File C:\Program Files\Microsoft Visual Studio\2022\Professional\VC\Tools\MSVC\14.44.35207\atlmfc\include\atlsimpstr.h
; File C:\Program Files\Microsoft Visual Studio\2022\Professional\VC\Tools\MSVC\14.44.35207\atlmfc\include\cstringt.h
; File C:\Program Files\Microsoft Visual Studio\2022\Professional\VC\Tools\MSVC\14.44.35207\atlmfc\include\atlsimpstr.h
; File C:\Program Files\Microsoft Visual Studio\2022\Professional\VC\Tools\MSVC\14.44.35207\atlmfc\include\cstringt.h
;	COMDAT ?LoadStringA@?$CStringT@DV?$StrTraitMFC@DV?$ChTraitsCRT@D@ATL@@@@@ATL@@QAEHI@Z
_TEXT	SEGMENT
_this$1$ = -4						; size = 4
_nID$ = 8						; size = 4
_hResource$1$ = 8					; size = 4
?LoadStringA@?$CStringT@DV?$StrTraitMFC@DV?$ChTraitsCRT@D@ATL@@@@@ATL@@QAEHI@Z PROC ; ATL::CStringT<char,StrTraitMFC<char,ATL::ChTraitsCRT<char> > >::LoadStringA, COMDAT
; _this$ = ecx

; 2340 : 	{

  00000	55		 push	 ebp
  00001	8b ec		 mov	 ebp, esp
  00003	51		 push	 ecx
  00004	53		 push	 ebx
  00005	57		 push	 edi
; File C:\Program Files\Microsoft Visual Studio\2022\Professional\VC\Tools\MSVC\14.44.35207\atlmfc\include\afxstr.h

; 51   : 		return( AfxFindStringResourceHandle( nID ) );

  00006	8b 7d 08	 mov	 edi, DWORD PTR _nID$[ebp]
  00009	57		 push	 edi
; File C:\Program Files\Microsoft Visual Studio\2022\Professional\VC\Tools\MSVC\14.44.35207\atlmfc\include\cstringt.h

; 2340 : 	{

  0000a	89 4d fc	 mov	 DWORD PTR _this$1$[ebp], ecx
; File C:\Program Files\Microsoft Visual Studio\2022\Professional\VC\Tools\MSVC\14.44.35207\atlmfc\include\afxstr.h

; 51   : 		return( AfxFindStringResourceHandle( nID ) );

  0000d	e8 00 00 00 00	 call	 ?AfxFindStringResourceHandle@@YGPAUHINSTANCE__@@I@Z ; AfxFindStringResourceHandle
; File C:\Program Files\Microsoft Visual Studio\2022\Professional\VC\Tools\MSVC\14.44.35207\atlmfc\include\cstringt.h

; 2341 : 		HINSTANCE hInstance = StringTraits::FindStringResourceInstance( nID );

  00012	8b d8		 mov	 ebx, eax

; 2342 : 		if( hInstance == NULL )

  00014	85 db		 test	 ebx, ebx
  00016	75 08		 jne	 SHORT $LN2@LoadString

; 2348 : 	}

  00018	5f		 pop	 edi
  00019	5b		 pop	 ebx
  0001a	8b e5		 mov	 esp, ebp
  0001c	5d		 pop	 ebp
  0001d	c2 04 00	 ret	 4
$LN2@LoadString:
; File C:\Program Files\Microsoft Visual Studio\2022\Professional\VC\Tools\MSVC\14.44.35207\atlmfc\include\atlcore.h

; 380  : 	hResource = ::FindResourceW(hInstance, MAKEINTRESOURCEW( (((id>>4)+1) & static_cast<WORD>(~0)) ), (LPWSTR) RT_STRING);

  00020	8b c7		 mov	 eax, edi
  00022	c1 e8 04	 shr	 eax, 4
  00025	56		 push	 esi
  00026	40		 inc	 eax
  00027	6a 06		 push	 6
  00029	0f b7 c0	 movzx	 eax, ax
  0002c	50		 push	 eax
  0002d	53		 push	 ebx
  0002e	ff 15 00 00 00
	00		 call	 DWORD PTR __imp__FindResourceW@12
  00034	89 45 08	 mov	 DWORD PTR _hResource$1$[ebp], eax

; 381  : 	if( hResource == NULL )

  00037	85 c0		 test	 eax, eax
  00039	0f 84 cc 00 00
	00		 je	 $LN51@LoadString

; 338  : 	hGlobal = ::LoadResource( hInstance, hResource );

  0003f	50		 push	 eax
  00040	53		 push	 ebx
  00041	ff 15 00 00 00
	00		 call	 DWORD PTR __imp__LoadResource@8

; 339  : 	if( hGlobal == NULL )

  00047	85 c0		 test	 eax, eax
  00049	75 04		 jne	 SHORT $LN15@LoadString

; 340  : 	{
; 341  : 		return( NULL );

  0004b	33 f6		 xor	 esi, esi
  0004d	eb 43		 jmp	 SHORT $LN18@LoadString
$LN15@LoadString:

; 342  : 	}
; 343  : 
; 344  : 	pImage = (const ATLSTRINGRESOURCEIMAGE*)::LockResource( hGlobal );

  0004f	50		 push	 eax
  00050	ff 15 00 00 00
	00		 call	 DWORD PTR __imp__LockResource@4
  00056	8b f0		 mov	 esi, eax

; 345  : 	if( pImage == NULL )

  00058	85 f6		 test	 esi, esi
  0005a	74 36		 je	 SHORT $LN18@LoadString
$LN16@LoadString:

; 346  : 	{
; 347  : 		return( NULL );
; 348  : 	}
; 349  : 
; 350  : 	nResourceSize = ::SizeofResource( hInstance, hResource );

  0005c	ff 75 08	 push	 DWORD PTR _hResource$1$[ebp]
  0005f	53		 push	 ebx
  00060	ff 15 00 00 00
	00		 call	 DWORD PTR __imp__SizeofResource@8

; 351  : 	pImageEnd = (const ATLSTRINGRESOURCEIMAGE*)(LPBYTE( pImage )+nResourceSize);

  00066	8d 0c 06	 lea	 ecx, DWORD PTR [esi+eax]

; 352  : 	iIndex = id&0x000f;

  00069	83 e7 0f	 and	 edi, 15			; 0000000fH

; 353  : 
; 354  : 	while( (iIndex > 0) && (pImage < pImageEnd) )

  0006c	76 14		 jbe	 SHORT $LN14@LoadString
  0006e	66 90		 npad	 2
$LL13@LoadString:
  00070	3b f1		 cmp	 esi, ecx
  00072	73 12		 jae	 SHORT $LN50@LoadString

; 355  : 	{
; 356  : 		pImage = (const ATLSTRINGRESOURCEIMAGE*)(LPBYTE( pImage )+(sizeof( ATLSTRINGRESOURCEIMAGE )+(pImage->nLength*sizeof( WCHAR ))));

  00074	0f b7 06	 movzx	 eax, WORD PTR [esi]
  00077	8d 34 46	 lea	 esi, DWORD PTR [esi+eax*2]
  0007a	83 c6 02	 add	 esi, 2

; 357  : 		iIndex--;

  0007d	83 ef 01	 sub	 edi, 1
  00080	75 ee		 jne	 SHORT $LL13@LoadString
$LN14@LoadString:

; 358  : 	}
; 359  : 	if( pImage >= pImageEnd )

  00082	3b f1		 cmp	 esi, ecx
  00084	72 04		 jb	 SHORT $LN17@LoadString
$LN50@LoadString:

; 360  : 	{
; 361  : 		return( NULL );

  00086	33 f6		 xor	 esi, esi
  00088	eb 08		 jmp	 SHORT $LN18@LoadString
$LN17@LoadString:

; 362  : 	}
; 363  : 	if( pImage->nLength == 0 )

  0008a	33 c0		 xor	 eax, eax
  0008c	66 39 06	 cmp	 WORD PTR [esi], ax
  0008f	0f 44 f0	 cmove	 esi, eax
$LN18@LoadString:
; File C:\Program Files\Microsoft Visual Studio\2022\Professional\VC\Tools\MSVC\14.44.35207\atlmfc\include\cstringt.h

; 2356 : 		if( pImage == NULL )

  00092	85 f6		 test	 esi, esi
  00094	74 75		 je	 SHORT $LN51@LoadString

; 2359 : 		}
; 2360 : 
; 2361 : 		int nLength = StringTraits::GetBaseTypeLength( pImage->achString, pImage->nLength );

  00096	0f b7 06	 movzx	 eax, WORD PTR [esi]
  00099	8d 4e 02	 lea	 ecx, DWORD PTR [esi+2]

; 350  : 		return ::WideCharToMultiByte( _AtlGetConversionACP(), 0, pszSource, nLength, NULL, 0, NULL, NULL );

  0009c	6a 00		 push	 0
  0009e	6a 00		 push	 0
  000a0	6a 00		 push	 0
  000a2	6a 00		 push	 0
  000a4	50		 push	 eax
  000a5	51		 push	 ecx
  000a6	6a 00		 push	 0
  000a8	6a 03		 push	 3
  000aa	ff 15 00 00 00
	00		 call	 DWORD PTR __imp__WideCharToMultiByte@32

; 2361 : 		int nLength = StringTraits::GetBaseTypeLength( pImage->achString, pImage->nLength );

  000b0	8b f8		 mov	 edi, eax
; File C:\Program Files\Microsoft Visual Studio\2022\Professional\VC\Tools\MSVC\14.44.35207\atlmfc\include\atlsimpstr.h

; 808  : 		if (nLength < 0)

  000b2	85 ff		 test	 edi, edi
  000b4	78 60		 js	 SHORT $LN38@LoadString

; 804  : 		return( reinterpret_cast< CStringData* >( m_pszData )-1 );

  000b6	8b 5d fc	 mov	 ebx, DWORD PTR _this$1$[ebp]

; 812  : 		int nShared = 1-pOldData->nRefs;  // nShared < 0 means true, >= 0 means false

  000b9	ba 01 00 00 00	 mov	 edx, 1

; 804  : 		return( reinterpret_cast< CStringData* >( m_pszData )-1 );

  000be	8b 0b		 mov	 ecx, DWORD PTR [ebx]

; 812  : 		int nShared = 1-pOldData->nRefs;  // nShared < 0 means true, >= 0 means false

  000c0	2b 51 fc	 sub	 edx, DWORD PTR [ecx-4]

; 813  : 		int nTooShort = pOldData->nAllocLength-nLength;  // nTooShort < 0 means true, >= 0 means false

  000c3	8b 49 f8	 mov	 ecx, DWORD PTR [ecx-8]
  000c6	2b cf		 sub	 ecx, edi

; 814  : 		if( (nShared|nTooShort) < 0 )  // If either sign bit is set (i.e. either is less than zero), we need to copy data

  000c8	0b d1		 or	 edx, ecx
  000ca	7d 08		 jge	 SHORT $LN26@LoadString

; 815  : 		{
; 816  : 			PrepareWrite2( nLength );

  000cc	57		 push	 edi
  000cd	8b cb		 mov	 ecx, ebx
  000cf	e8 00 00 00 00	 call	 ?PrepareWrite2@?$CSimpleStringT@D$0A@@ATL@@AAEXH@Z ; ATL::CSimpleStringT<char,0>::PrepareWrite2
$LN26@LoadString:
; File C:\Program Files\Microsoft Visual Studio\2022\Professional\VC\Tools\MSVC\14.44.35207\atlmfc\include\cstringt.h

; 2363 : 		StringTraits::ConvertToBaseType( pszBuffer, nLength, pImage->achString, pImage->nLength );

  000d4	0f b7 06	 movzx	 eax, WORD PTR [esi]

; 372  : 		::WideCharToMultiByte( _AtlGetConversionACP(), 0, pszSrc, nSrcLength, pszDest, nDestLength, NULL, NULL );

  000d7	6a 00		 push	 0
  000d9	6a 00		 push	 0
  000db	57		 push	 edi
  000dc	ff 33		 push	 DWORD PTR [ebx]
  000de	50		 push	 eax
  000df	8d 46 02	 lea	 eax, DWORD PTR [esi+2]
  000e2	50		 push	 eax
  000e3	6a 00		 push	 0
  000e5	6a 03		 push	 3
  000e7	ff 15 00 00 00
	00		 call	 DWORD PTR __imp__WideCharToMultiByte@32
; File C:\Program Files\Microsoft Visual Studio\2022\Professional\VC\Tools\MSVC\14.44.35207\atlmfc\include\atlsimpstr.h

; 875  : 		if( nLength < 0 || nLength > GetData()->nAllocLength)

  000ed	8b 03		 mov	 eax, DWORD PTR [ebx]
  000ef	3b 78 f8	 cmp	 edi, DWORD PTR [eax-8]
  000f2	7f 22		 jg	 SHORT $LN38@LoadString

; 877  : 
; 878  : 		GetData()->nDataLength = nLength;

  000f4	89 78 f4	 mov	 DWORD PTR [eax-12], edi

; 879  : 		m_pszData[nLength] = 0;

  000f7	8b 03		 mov	 eax, DWORD PTR [ebx]
; File C:\Program Files\Microsoft Visual Studio\2022\Professional\VC\Tools\MSVC\14.44.35207\atlmfc\include\cstringt.h

; 2347 : 		return( LoadString( hInstance, nID ) );

  000f9	5e		 pop	 esi
; File C:\Program Files\Microsoft Visual Studio\2022\Professional\VC\Tools\MSVC\14.44.35207\atlmfc\include\atlsimpstr.h

; 879  : 		m_pszData[nLength] = 0;

  000fa	c6 04 07 00	 mov	 BYTE PTR [edi+eax], 0
; File C:\Program Files\Microsoft Visual Studio\2022\Professional\VC\Tools\MSVC\14.44.35207\atlmfc\include\cstringt.h

; 2366 : 		return( TRUE );

  000fe	b8 01 00 00 00	 mov	 eax, 1
  00103	5f		 pop	 edi

; 2348 : 	}

  00104	5b		 pop	 ebx
  00105	8b e5		 mov	 esp, ebp
  00107	5d		 pop	 ebp
  00108	c2 04 00	 ret	 4
$LN51@LoadString:

; 2347 : 		return( LoadString( hInstance, nID ) );

  0010b	5e		 pop	 esi
  0010c	5f		 pop	 edi

; 2358 : 			return( FALSE );

  0010d	33 c0		 xor	 eax, eax

; 2348 : 	}

  0010f	5b		 pop	 ebx
  00110	8b e5		 mov	 esp, ebp
  00112	5d		 pop	 ebp
  00113	c2 04 00	 ret	 4
$LN38@LoadString:
; File C:\Program Files\Microsoft Visual Studio\2022\Professional\VC\Tools\MSVC\14.44.35207\atlmfc\include\atlsimpstr.h

; 876  : 			AtlThrow(E_INVALIDARG);

  00116	68 57 00 07 80	 push	 -2147024809		; 80070057H
  0011b	e8 00 00 00 00	 call	 ?AtlThrowImpl@ATL@@YGXJ@Z ; ATL::AtlThrowImpl
$LN63@LoadString:
  00120	cc		 int	 3
?LoadStringA@?$CStringT@DV?$StrTraitMFC@DV?$ChTraitsCRT@D@ATL@@@@@ATL@@QAEHI@Z ENDP ; ATL::CStringT<char,StrTraitMFC<char,ATL::ChTraitsCRT<char> > >::LoadStringA
_TEXT	ENDS
; Function compile flags: /Ogtp
; File C:\Program Files\Microsoft Visual Studio\2022\Professional\VC\Tools\MSVC\14.44.35207\atlmfc\include\cstringt.h
; File C:\Program Files (x86)\Windows Kits\10\Include\10.0.26100.0\ucrt\stdio.h
; File C:\Program Files\Microsoft Visual Studio\2022\Professional\VC\Tools\MSVC\14.44.35207\atlmfc\include\cstringt.h
; File C:\Program Files\Microsoft Visual Studio\2022\Professional\VC\Tools\MSVC\14.44.35207\atlmfc\include\atlsimpstr.h
; File C:\Program Files\Microsoft Visual Studio\2022\Professional\VC\Tools\MSVC\14.44.35207\atlmfc\include\cstringt.h
; File C:\Program Files\Microsoft Visual Studio\2022\Professional\VC\Tools\MSVC\14.44.35207\atlmfc\include\afxstr.h
; File C:\Program Files\Microsoft Visual Studio\2022\Professional\VC\Tools\MSVC\14.44.35207\atlmfc\include\cstringt.h
; File C:\Program Files\Microsoft Visual Studio\2022\Professional\VC\Tools\MSVC\14.44.35207\atlmfc\include\atlsimpstr.h
; File C:\Program Files\Microsoft Visual Studio\2022\Professional\VC\Tools\MSVC\14.44.35207\atlmfc\include\cstringt.h
; File C:\Program Files\Microsoft Visual Studio\2022\Professional\VC\Tools\MSVC\14.44.35207\atlmfc\include\atlsimpstr.h
; File C:\Program Files\Microsoft Visual Studio\2022\Professional\VC\Tools\MSVC\14.44.35207\atlmfc\include\cstringt.h
; File C:\Program Files\Microsoft Visual Studio\2022\Professional\VC\Tools\MSVC\14.44.35207\atlmfc\include\atlsimpstr.h
; File C:\Program Files (x86)\Windows Kits\10\Include\10.0.26100.0\ucrt\stdio.h
; File C:\Program Files\Microsoft Visual Studio\2022\Professional\VC\Tools\MSVC\14.44.35207\atlmfc\include\cstringt.h
; File C:\Program Files (x86)\Windows Kits\10\Include\10.0.26100.0\ucrt\stdio.h
; File C:\Program Files\Microsoft Visual Studio\2022\Professional\VC\Tools\MSVC\14.44.35207\atlmfc\include\atlsimpstr.h
; File C:\Program Files (x86)\Windows Kits\10\Include\10.0.26100.0\ucrt\stdio.h
; File C:\Program Files\Microsoft Visual Studio\2022\Professional\VC\Tools\MSVC\14.44.35207\atlmfc\include\atlsimpstr.h
; File C:\Program Files\Microsoft Visual Studio\2022\Professional\VC\Tools\MSVC\14.44.35207\atlmfc\include\cstringt.h
; File C:\Program Files\Microsoft Visual Studio\2022\Professional\VC\Tools\MSVC\14.44.35207\atlmfc\include\atlsimpstr.h
; File C:\Program Files\Microsoft Visual Studio\2022\Professional\VC\Tools\MSVC\14.44.35207\atlmfc\include\cstringt.h
; File C:\Program Files\Microsoft Visual Studio\2022\Professional\VC\Tools\MSVC\14.44.35207\atlmfc\include\atlsimpstr.h
; File C:\Program Files\Microsoft Visual Studio\2022\Professional\VC\Tools\MSVC\14.44.35207\atlmfc\include\cstringt.h
;	COMDAT ?FormatV@?$CStringT@DV?$StrTraitMFC@DV?$ChTraitsCRT@D@ATL@@@@@ATL@@QAEXPBDPAD@Z
_TEXT	SEGMENT
tv434 = -16						; size = 4
__$EHRec$ = -12						; size = 12
_pszFormat$ = 8						; size = 4
_temp$ = 8						; size = 4
_args$ = 12						; size = 4
?FormatV@?$CStringT@DV?$StrTraitMFC@DV?$ChTraitsCRT@D@ATL@@@@@ATL@@QAEXPBDPAD@Z PROC ; ATL::CStringT<char,StrTraitMFC<char,ATL::ChTraitsCRT<char> > >::FormatV, COMDAT
; _this$ = ecx

; 2225 : 	{

  00000	55		 push	 ebp
  00001	8b ec		 mov	 ebp, esp
  00003	6a ff		 push	 -1
  00005	68 00 00 00 00	 push	 __ehhandler$?FormatV@?$CStringT@DV?$StrTraitMFC@DV?$ChTraitsCRT@D@ATL@@@@@ATL@@QAEXPBDPAD@Z
  0000a	64 a1 00 00 00
	00		 mov	 eax, DWORD PTR fs:0
  00010	50		 push	 eax
  00011	51		 push	 ecx
  00012	53		 push	 ebx
  00013	56		 push	 esi
  00014	57		 push	 edi
  00015	a1 00 00 00 00	 mov	 eax, DWORD PTR ___security_cookie
  0001a	33 c5		 xor	 eax, ebp
  0001c	50		 push	 eax
  0001d	8d 45 f4	 lea	 eax, DWORD PTR __$EHRec$[ebp]
  00020	64 a3 00 00 00
	00		 mov	 DWORD PTR fs:0, eax
  00026	8b d9		 mov	 ebx, ecx

; 2226 : 		ATLASSERT( AtlIsValidString( pszFormat ) );
; 2227 : 		if(pszFormat == NULL)

  00028	8b 75 08	 mov	 esi, DWORD PTR _pszFormat$[ebp]
  0002b	85 f6		 test	 esi, esi
  0002d	0f 84 1b 01 00
	00		 je	 $LN61@FormatV
; File C:\Program Files (x86)\Windows Kits\10\Include\10.0.26100.0\ucrt\stdio.h

; 1652 :         int const _Result = __stdio_common_vsprintf(

  00033	e8 00 00 00 00	 call	 ___local_stdio_printf_options
  00038	ff 75 0c	 push	 DWORD PTR _args$[ebp]
  0003b	89 45 f0	 mov	 DWORD PTR tv434[ebp], eax
  0003e	6a 00		 push	 0
  00040	8b 08		 mov	 ecx, DWORD PTR [eax]
  00042	56		 push	 esi
  00043	6a 00		 push	 0
  00045	6a 00		 push	 0
  00047	ff 70 04	 push	 DWORD PTR [eax+4]
  0004a	83 c9 02	 or	 ecx, 2
  0004d	51		 push	 ecx
  0004e	e8 00 00 00 00	 call	 ___stdio_common_vsprintf
  00053	8b f8		 mov	 edi, eax
  00055	83 c4 1c	 add	 esp, 28			; 0000001cH

; 1653 :             _CRT_INTERNAL_LOCAL_PRINTF_OPTIONS | _CRT_INTERNAL_PRINTF_STANDARD_SNPRINTF_BEHAVIOR,
; 1654 :             NULL, 0, _Format, _Locale, _ArgList);
; 1655 : 
; 1656 :         return _Result < 0 ? -1 : _Result;

  00058	83 c8 ff	 or	 eax, -1
  0005b	85 ff		 test	 edi, edi
  0005d	0f 48 f8	 cmovs	 edi, eax
; File C:\Program Files\Microsoft Visual Studio\2022\Professional\VC\Tools\MSVC\14.44.35207\atlmfc\include\cstringt.h

; 2232 : 		if (nLength < 0)

  00060	85 ff		 test	 edi, edi
  00062	0f 88 dc 00 00
	00		 js	 $LN78@FormatV
; File C:\Program Files\Microsoft Visual Studio\2022\Professional\VC\Tools\MSVC\14.44.35207\atlmfc\include\atlsimpstr.h

; 527  : 		IAtlStringMgr* pStringMgr = GetData()->pStringMgr;

  00068	8b 03		 mov	 eax, DWORD PTR [ebx]
  0006a	8b 48 f0	 mov	 ecx, DWORD PTR [eax-16]

; 528  : 		return pStringMgr ? pStringMgr->Clone() : NULL;

  0006d	85 c9		 test	 ecx, ecx
  0006f	74 0b		 je	 SHORT $LN13@FormatV
  00071	8b 01		 mov	 eax, DWORD PTR [ecx]
  00073	ff 50 10	 call	 DWORD PTR [eax+16]
  00076	8b c8		 mov	 ecx, eax
; File C:\Program Files\Microsoft Visual Studio\2022\Professional\VC\Tools\MSVC\14.44.35207\atlmfc\include\cstringt.h

; 1442 : 		if(pStringMgr) { return pStringMgr; }

  00078	85 c9		 test	 ecx, ecx
  0007a	75 16		 jne	 SHORT $LN28@FormatV
$LN13@FormatV:
; File C:\Program Files\Microsoft Visual Studio\2022\Professional\VC\Tools\MSVC\14.44.35207\atlmfc\include\afxstr.h

; 56   : 		return( AfxGetStringManager() );

  0007c	e8 00 00 00 00	 call	 ?AfxGetStringManager@@YGPAUIAtlStringMgr@ATL@@XZ ; AfxGetStringManager
; File C:\Program Files\Microsoft Visual Studio\2022\Professional\VC\Tools\MSVC\14.44.35207\atlmfc\include\cstringt.h

; 1445 : 		return pStringMgr->Clone();

  00081	8b c8		 mov	 ecx, eax
  00083	8b 10		 mov	 edx, DWORD PTR [eax]
  00085	ff 52 10	 call	 DWORD PTR [edx+16]
  00088	8b c8		 mov	 ecx, eax
; File C:\Program Files\Microsoft Visual Studio\2022\Professional\VC\Tools\MSVC\14.44.35207\atlmfc\include\atlsimpstr.h

; 209  : 		ATLENSURE( pStringMgr != NULL );

  0008a	85 c9		 test	 ecx, ecx
  0008c	0f 84 b2 00 00
	00		 je	 $LN78@FormatV
$LN28@FormatV:

; 210  : 		CStringData* pData = pStringMgr->GetNilString();

  00092	8b 01		 mov	 eax, DWORD PTR [ecx]
  00094	ff 50 0c	 call	 DWORD PTR [eax+12]

; 211  : 		Attach( pData );

  00097	83 c0 10	 add	 eax, 16			; 00000010H
  0009a	89 45 08	 mov	 DWORD PTR _temp$[ebp], eax
; File C:\Program Files\Microsoft Visual Studio\2022\Professional\VC\Tools\MSVC\14.44.35207\atlmfc\include\cstringt.h

; 1063 : 		CThisSimpleString( pStringMgr )

  0009d	c7 45 fc 00 00
	00 00		 mov	 DWORD PTR __$EHRec$[ebp+8], 0

; 2712 : 		if( (pv != NULL) && IS_INTRESOURCE( pv ) )

  000a4	8d 4d 08	 lea	 ecx, DWORD PTR _temp$[ebp]
  000a7	f7 c6 00 00 ff
	ff		 test	 esi, -65536		; ffff0000H
  000ad	75 0b		 jne	 SHORT $LN77@FormatV

; 2713 : 		{
; 2714 : 			UINT nID = LOWORD( reinterpret_cast< DWORD_PTR >( pv ) );

  000af	0f b7 c6	 movzx	 eax, si

; 2715 : 			(nID);
; 2716 : #ifdef _ATL_USE_WINAPI_FAMILY_DESKTOP_APP
; 2717 : 			if( !LoadString( nID ) )

  000b2	50		 push	 eax
  000b3	e8 00 00 00 00	 call	 ?LoadStringA@?$CStringT@DV?$StrTraitMFC@DV?$ChTraitsCRT@D@ATL@@@@@ATL@@QAEHI@Z ; ATL::CStringT<char,StrTraitMFC<char,ATL::ChTraitsCRT<char> > >::LoadStringA

; 1065 : 		if( !CheckImplicitLoad( pszSrc ) )

  000b8	eb 06		 jmp	 SHORT $LN24@FormatV
$LN77@FormatV:

; 1066 : 		{
; 1067 : 			*this = pszSrc;

  000ba	56		 push	 esi
  000bb	e8 00 00 00 00	 call	 ??4?$CStringT@DV?$StrTraitMFC@DV?$ChTraitsCRT@D@ATL@@@@@ATL@@QAEAAV01@PBD@Z ; ATL::CStringT<char,StrTraitMFC<char,ATL::ChTraitsCRT<char> > >::operator=
$LN24@FormatV:
; File C:\Program Files\Microsoft Visual Studio\2022\Professional\VC\Tools\MSVC\14.44.35207\atlmfc\include\atlsimpstr.h

; 804  : 		return( reinterpret_cast< CStringData* >( m_pszData )-1 );

  000c0	8b 03		 mov	 eax, DWORD PTR [ebx]

; 812  : 		int nShared = 1-pOldData->nRefs;  // nShared < 0 means true, >= 0 means false

  000c2	b9 01 00 00 00	 mov	 ecx, 1
; File C:\Program Files\Microsoft Visual Studio\2022\Professional\VC\Tools\MSVC\14.44.35207\atlmfc\include\cstringt.h

; 2235 : 		CStringT temp(pszFormat, this->GetManager());

  000c7	c7 45 fc 01 00
	00 00		 mov	 DWORD PTR __$EHRec$[ebp+8], 1
; File C:\Program Files\Microsoft Visual Studio\2022\Professional\VC\Tools\MSVC\14.44.35207\atlmfc\include\atlsimpstr.h

; 812  : 		int nShared = 1-pOldData->nRefs;  // nShared < 0 means true, >= 0 means false

  000ce	2b 48 fc	 sub	 ecx, DWORD PTR [eax-4]

; 813  : 		int nTooShort = pOldData->nAllocLength-nLength;  // nTooShort < 0 means true, >= 0 means false

  000d1	8b 40 f8	 mov	 eax, DWORD PTR [eax-8]
  000d4	2b c7		 sub	 eax, edi

; 814  : 		if( (nShared|nTooShort) < 0 )  // If either sign bit is set (i.e. either is less than zero), we need to copy data

  000d6	0b c1		 or	 eax, ecx
  000d8	7d 08		 jge	 SHORT $LN46@FormatV

; 815  : 		{
; 816  : 			PrepareWrite2( nLength );

  000da	57		 push	 edi
  000db	8b cb		 mov	 ecx, ebx
  000dd	e8 00 00 00 00	 call	 ?PrepareWrite2@?$CSimpleStringT@D$0A@@ATL@@AAEXH@Z ; ATL::CSimpleStringT<char,0>::PrepareWrite2
$LN46@FormatV:
; File C:\Program Files (x86)\Windows Kits\10\Include\10.0.26100.0\ucrt\stdio.h

; 1491 :         int const _Result = __stdio_common_vsprintf_s(

  000e2	ff 75 0c	 push	 DWORD PTR _args$[ebp]
  000e5	8b 75 08	 mov	 esi, DWORD PTR _temp$[ebp]
; File C:\Program Files\Microsoft Visual Studio\2022\Professional\VC\Tools\MSVC\14.44.35207\atlmfc\include\cstringt.h

; 2237 : 		StringTraits::Format( pszBuffer, nLength+1, temp, args );

  000e8	8d 47 01	 lea	 eax, DWORD PTR [edi+1]
; File C:\Program Files (x86)\Windows Kits\10\Include\10.0.26100.0\ucrt\stdio.h

; 1491 :         int const _Result = __stdio_common_vsprintf_s(

  000eb	6a 00		 push	 0
  000ed	56		 push	 esi
  000ee	50		 push	 eax
  000ef	8b 45 f0	 mov	 eax, DWORD PTR tv434[ebp]
  000f2	ff 33		 push	 DWORD PTR [ebx]
  000f4	ff 70 04	 push	 DWORD PTR [eax+4]
  000f7	ff 30		 push	 DWORD PTR [eax]
  000f9	e8 00 00 00 00	 call	 ___stdio_common_vsprintf_s
; File C:\Program Files\Microsoft Visual Studio\2022\Professional\VC\Tools\MSVC\14.44.35207\atlmfc\include\atlsimpstr.h

; 875  : 		if( nLength < 0 || nLength > GetData()->nAllocLength)

  000fe	8b 03		 mov	 eax, DWORD PTR [ebx]
; File C:\Program Files (x86)\Windows Kits\10\Include\10.0.26100.0\ucrt\stdio.h

; 1491 :         int const _Result = __stdio_common_vsprintf_s(

  00100	83 c4 1c	 add	 esp, 28			; 0000001cH
; File C:\Program Files\Microsoft Visual Studio\2022\Professional\VC\Tools\MSVC\14.44.35207\atlmfc\include\atlsimpstr.h

; 875  : 		if( nLength < 0 || nLength > GetData()->nAllocLength)

  00103	3b 78 f8	 cmp	 edi, DWORD PTR [eax-8]
  00106	7f 46		 jg	 SHORT $LN61@FormatV

; 876  : 			AtlThrow(E_INVALIDARG);
; 877  : 
; 878  : 		GetData()->nDataLength = nLength;

  00108	89 78 f4	 mov	 DWORD PTR [eax-12], edi

; 804  : 		return( reinterpret_cast< CStringData* >( m_pszData )-1 );

  0010b	83 c6 f0	 add	 esi, -16		; fffffff0H

; 879  : 		m_pszData[nLength] = 0;

  0010e	8b 03		 mov	 eax, DWORD PTR [ebx]
; File C:\Program Files\Microsoft Visual Studio\2022\Professional\VC\Tools\MSVC\14.44.35207\atlmfc\include\cstringt.h

; 2239 : 	}

  00110	c7 45 fc ff ff
	ff ff		 mov	 DWORD PTR __$EHRec$[ebp+8], -1
; File C:\Program Files\Microsoft Visual Studio\2022\Professional\VC\Tools\MSVC\14.44.35207\atlmfc\include\atlsimpstr.h

; 879  : 		m_pszData[nLength] = 0;

  00117	c6 04 07 00	 mov	 BYTE PTR [edi+eax], 0

; 92   : 		if( _InterlockedDecrement( &nRefs ) <= 0 )

  0011b	83 c8 ff	 or	 eax, -1
  0011e	f0 0f c1 46 0c	 lock	  xadd	 DWORD PTR [esi+12], eax
  00123	48		 dec	 eax
  00124	85 c0		 test	 eax, eax
  00126	7f 08		 jg	 SHORT $LN75@FormatV

; 93   : 		{
; 94   : 			pStringMgr->Free( this );

  00128	8b 0e		 mov	 ecx, DWORD PTR [esi]
  0012a	56		 push	 esi
  0012b	8b 01		 mov	 eax, DWORD PTR [ecx]
  0012d	ff 50 04	 call	 DWORD PTR [eax+4]
$LN75@FormatV:
; File C:\Program Files\Microsoft Visual Studio\2022\Professional\VC\Tools\MSVC\14.44.35207\atlmfc\include\cstringt.h

; 2239 : 	}

  00130	8b 4d f4	 mov	 ecx, DWORD PTR __$EHRec$[ebp]
  00133	64 89 0d 00 00
	00 00		 mov	 DWORD PTR fs:0, ecx
  0013a	59		 pop	 ecx
  0013b	5f		 pop	 edi
  0013c	5e		 pop	 esi
  0013d	5b		 pop	 ebx
  0013e	8b e5		 mov	 esp, ebp
  00140	5d		 pop	 ebp
  00141	c2 08 00	 ret	 8
$LN78@FormatV:
; File C:\Program Files\Microsoft Visual Studio\2022\Professional\VC\Tools\MSVC\14.44.35207\atlmfc\include\atlsimpstr.h

; 209  : 		ATLENSURE( pStringMgr != NULL );

  00144	68 05 40 00 80	 push	 -2147467259		; 80004005H
  00149	e8 00 00 00 00	 call	 ?AtlThrowImpl@ATL@@YGXJ@Z ; ATL::AtlThrowImpl
$LN61@FormatV:
; File C:\Program Files\Microsoft Visual Studio\2022\Professional\VC\Tools\MSVC\14.44.35207\atlmfc\include\cstringt.h

; 2239 : 	}

  0014e	68 57 00 07 80	 push	 -2147024809		; 80070057H
  00153	e8 00 00 00 00	 call	 ?AtlThrowImpl@ATL@@YGXJ@Z ; ATL::AtlThrowImpl
$LN81@FormatV:
  00158	cc		 int	 3
_TEXT	ENDS
;	COMDAT text$x
text$x	SEGMENT
__unwindfunclet$?FormatV@?$CStringT@DV?$StrTraitMFC@DV?$ChTraitsCRT@D@ATL@@@@@ATL@@QAEXPBDPAD@Z$1:
  00000	8d 4d 08	 lea	 ecx, DWORD PTR _temp$[ebp]
  00003	e9 00 00 00 00	 jmp	 ??1?$CSimpleStringT@D$0A@@ATL@@QAE@XZ ; ATL::CSimpleStringT<char,0>::~CSimpleStringT<char,0>
__unwindfunclet$?FormatV@?$CStringT@DV?$StrTraitMFC@DV?$ChTraitsCRT@D@ATL@@@@@ATL@@QAEXPBDPAD@Z$0:
  00008	8d 4d 08	 lea	 ecx, DWORD PTR _temp$[ebp]
  0000b	e9 00 00 00 00	 jmp	 ??1?$CStringT@DV?$StrTraitMFC@DV?$ChTraitsCRT@D@ATL@@@@@ATL@@QAE@XZ ; ATL::CStringT<char,StrTraitMFC<char,ATL::ChTraitsCRT<char> > >::~CStringT<char,StrTraitMFC<char,ATL::ChTraitsCRT<char> > >
  00010	cc		 int	 3
  00011	cc		 int	 3
  00012	cc		 int	 3
  00013	cc		 int	 3
  00014	cc		 int	 3
__ehhandler$?FormatV@?$CStringT@DV?$StrTraitMFC@DV?$ChTraitsCRT@D@ATL@@@@@ATL@@QAEXPBDPAD@Z:
  00015	90		 npad	 1
  00016	90		 npad	 1
  00017	8b 54 24 08	 mov	 edx, DWORD PTR [esp+8]
  0001b	8d 42 0c	 lea	 eax, DWORD PTR [edx+12]
  0001e	8b 4a ec	 mov	 ecx, DWORD PTR [edx-20]
  00021	33 c8		 xor	 ecx, eax
  00023	e8 00 00 00 00	 call	 @__security_check_cookie@4
  00028	b8 00 00 00 00	 mov	 eax, OFFSET __ehfuncinfo$?FormatV@?$CStringT@DV?$StrTraitMFC@DV?$ChTraitsCRT@D@ATL@@@@@ATL@@QAEXPBDPAD@Z
  0002d	e9 00 00 00 00	 jmp	 ___CxxFrameHandler3
text$x	ENDS
?FormatV@?$CStringT@DV?$StrTraitMFC@DV?$ChTraitsCRT@D@ATL@@@@@ATL@@QAEXPBDPAD@Z ENDP ; ATL::CStringT<char,StrTraitMFC<char,ATL::ChTraitsCRT<char> > >::FormatV
; Function compile flags: /Ogtp
; File C:\Program Files\Microsoft Visual Studio\2022\Professional\VC\Tools\MSVC\14.44.35207\atlmfc\include\cstringt.h
;	COMDAT ?Format@?$CStringT@DV?$StrTraitMFC@DV?$ChTraitsCRT@D@ATL@@@@@ATL@@QAAXPBDZZ
_TEXT	SEGMENT
_this$ = 8						; size = 4
_pszFormat$ = 12					; size = 4
?Format@?$CStringT@DV?$StrTraitMFC@DV?$ChTraitsCRT@D@ATL@@@@@ATL@@QAAXPBDZZ PROC ; ATL::CStringT<char,StrTraitMFC<char,ATL::ChTraitsCRT<char> > >::Format, COMDAT

; 2745 : {

  00000	55		 push	 ebp
  00001	8b ec		 mov	 ebp, esp

; 2746 : 	ATLASSERT( AtlIsValidString( pszFormat ) );
; 2747 : 
; 2748 : 	va_list argList;
; 2749 : 	va_start( argList, pszFormat );
; 2750 : 	FormatV( pszFormat, argList );

  00003	8b 4d 08	 mov	 ecx, DWORD PTR _this$[ebp]
  00006	8d 45 10	 lea	 eax, DWORD PTR _pszFormat$[ebp+4]
  00009	50		 push	 eax
  0000a	ff 75 0c	 push	 DWORD PTR _pszFormat$[ebp]
  0000d	e8 00 00 00 00	 call	 ?FormatV@?$CStringT@DV?$StrTraitMFC@DV?$ChTraitsCRT@D@ATL@@@@@ATL@@QAEXPBDPAD@Z ; ATL::CStringT<char,StrTraitMFC<char,ATL::ChTraitsCRT<char> > >::FormatV

; 2751 : 	va_end( argList );
; 2752 : }

  00012	5d		 pop	 ebp
  00013	c3		 ret	 0
?Format@?$CStringT@DV?$StrTraitMFC@DV?$ChTraitsCRT@D@ATL@@@@@ATL@@QAAXPBDZZ ENDP ; ATL::CStringT<char,StrTraitMFC<char,ATL::ChTraitsCRT<char> > >::Format
_TEXT	ENDS
; Function compile flags: /Ogtp
; File C:\Program Files\Microsoft Visual Studio\2022\Professional\VC\Tools\MSVC\14.44.35207\atlmfc\include\cstringt.h
; File C:\Program Files\Microsoft Visual Studio\2022\Professional\VC\Tools\MSVC\14.44.35207\atlmfc\include\atlsimpstr.h
; File C:\Program Files\Microsoft Visual Studio\2022\Professional\VC\Tools\MSVC\14.44.35207\atlmfc\include\cstringt.h
; File C:\Program Files\Microsoft Visual Studio\2022\Professional\VC\Tools\MSVC\14.44.35207\atlmfc\include\atlsimpstr.h
; File C:\Program Files\Microsoft Visual Studio\2022\Professional\VC\Tools\MSVC\14.44.35207\atlmfc\include\cstringt.h
; File C:\Program Files\Microsoft Visual Studio\2022\Professional\VC\Tools\MSVC\14.44.35207\atlmfc\include\atlsimpstr.h
; File C:\Program Files\Microsoft Visual Studio\2022\Professional\VC\Tools\MSVC\14.44.35207\atlmfc\include\cstringt.h
; File C:\Program Files\Microsoft Visual Studio\2022\Professional\VC\Tools\MSVC\14.44.35207\atlmfc\include\atlsimpstr.h
; File C:\Program Files\Microsoft Visual Studio\2022\Professional\VC\Tools\MSVC\14.44.35207\atlmfc\include\cstringt.h
;	COMDAT ?Replace@?$CStringT@DV?$StrTraitMFC@DV?$ChTraitsCRT@D@ATL@@@@@ATL@@QAEHDD@Z
_TEXT	SEGMENT
_nLength$1$ = -12					; size = 4
_nCount$1$ = -8						; size = 4
_bCopied$1$ = -1					; size = 1
_chOld$ = 8						; size = 1
_chNew$ = 12						; size = 1
?Replace@?$CStringT@DV?$StrTraitMFC@DV?$ChTraitsCRT@D@ATL@@@@@ATL@@QAEHDD@Z PROC ; ATL::CStringT<char,StrTraitMFC<char,ATL::ChTraitsCRT<char> > >::Replace, COMDAT
; _this$ = ecx

; 1569 : 	{

  00000	55		 push	 ebp
  00001	8b ec		 mov	 ebp, esp
  00003	83 ec 0c	 sub	 esp, 12			; 0000000cH
  00006	53		 push	 ebx
  00007	8b d9		 mov	 ebx, ecx

; 1570 : 		int nCount = 0;

  00009	33 c0		 xor	 eax, eax

; 1571 : 
; 1572 : 		// short-circuit the nop case
; 1573 : 		if( chOld != chNew )

  0000b	8a 6d 08	 mov	 ch, BYTE PTR _chOld$[ebp]
  0000e	89 45 f8	 mov	 DWORD PTR _nCount$1$[ebp], eax
  00011	3a 6d 0c	 cmp	 ch, BYTE PTR _chNew$[ebp]
  00014	0f 84 89 00 00
	00		 je	 $LN30@Replace

; 1574 : 		{
; 1575 : 			// otherwise modify each character that matches in the string
; 1576 : 			bool bCopied = false;
; 1577 : 			PXSTR pszBuffer = const_cast< PXSTR >( this->GetString() );  // We don't actually write to pszBuffer until we've called GetBuffer().

  0001a	56		 push	 esi
  0001b	8b 33		 mov	 esi, DWORD PTR [ebx]
  0001d	32 c9		 xor	 cl, cl
  0001f	57		 push	 edi

; 1578 : 
; 1579 : 			int nLength = this->GetLength();
; 1580 : 			int iChar = 0;

  00020	33 ff		 xor	 edi, edi
  00022	88 4d ff	 mov	 BYTE PTR _bCopied$1$[ebp], cl
  00025	8b 56 f4	 mov	 edx, DWORD PTR [esi-12]
  00028	89 55 f4	 mov	 DWORD PTR _nLength$1$[ebp], edx

; 1581 : 			while( iChar < nLength )

  0002b	85 d2		 test	 edx, edx
  0002d	7e 72		 jle	 SHORT $LN54@Replace
  0002f	eb 03		 jmp	 SHORT $LN2@Replace
$LL46@Replace:
  00031	8a 4d ff	 mov	 cl, BYTE PTR _bCopied$1$[ebp]
$LN2@Replace:

; 1582 : 			{
; 1583 : 				// replace instances of the specified character only
; 1584 : 				if( pszBuffer[iChar] == chOld )

  00034	38 2c 37	 cmp	 BYTE PTR [edi+esi], ch
  00037	75 32		 jne	 SHORT $LN5@Replace

; 1585 : 				{
; 1586 : 					if( !bCopied )

  00039	84 c9		 test	 cl, cl
  0003b	75 24		 jne	 SHORT $LN44@Replace
; File C:\Program Files\Microsoft Visual Studio\2022\Professional\VC\Tools\MSVC\14.44.35207\atlmfc\include\atlsimpstr.h

; 804  : 		return( reinterpret_cast< CStringData* >( m_pszData )-1 );

  0003d	8b 03		 mov	 eax, DWORD PTR [ebx]

; 812  : 		int nShared = 1-pOldData->nRefs;  // nShared < 0 means true, >= 0 means false

  0003f	b9 01 00 00 00	 mov	 ecx, 1
; File C:\Program Files\Microsoft Visual Studio\2022\Professional\VC\Tools\MSVC\14.44.35207\atlmfc\include\cstringt.h

; 1588 : 						bCopied = true;

  00044	c6 45 ff 01	 mov	 BYTE PTR _bCopied$1$[ebp], 1
; File C:\Program Files\Microsoft Visual Studio\2022\Professional\VC\Tools\MSVC\14.44.35207\atlmfc\include\atlsimpstr.h

; 812  : 		int nShared = 1-pOldData->nRefs;  // nShared < 0 means true, >= 0 means false

  00048	2b 48 fc	 sub	 ecx, DWORD PTR [eax-4]

; 813  : 		int nTooShort = pOldData->nAllocLength-nLength;  // nTooShort < 0 means true, >= 0 means false

  0004b	8b 40 f8	 mov	 eax, DWORD PTR [eax-8]
  0004e	2b c2		 sub	 eax, edx

; 814  : 		if( (nShared|nTooShort) < 0 )  // If either sign bit is set (i.e. either is less than zero), we need to copy data

  00050	0b c8		 or	 ecx, eax
  00052	7d 08		 jge	 SHORT $LN17@Replace

; 815  : 		{
; 816  : 			PrepareWrite2( nLength );

  00054	52		 push	 edx
  00055	8b cb		 mov	 ecx, ebx
  00057	e8 00 00 00 00	 call	 ?PrepareWrite2@?$CSimpleStringT@D$0A@@ATL@@AAEXH@Z ; ATL::CSimpleStringT<char,0>::PrepareWrite2
$LN17@Replace:
; File C:\Program Files\Microsoft Visual Studio\2022\Professional\VC\Tools\MSVC\14.44.35207\atlmfc\include\cstringt.h

; 1589 : 						pszBuffer = this->GetBuffer( nLength );

  0005c	8b 33		 mov	 esi, DWORD PTR [ebx]
  0005e	8b 45 f8	 mov	 eax, DWORD PTR _nCount$1$[ebp]
$LN44@Replace:

; 1590 : 					}
; 1591 : 					pszBuffer[iChar] = chNew;

  00061	8a 4d 0c	 mov	 cl, BYTE PTR _chNew$[ebp]

; 1592 : 					nCount++;

  00064	40		 inc	 eax
  00065	88 0c 37	 mov	 BYTE PTR [edi+esi], cl
  00068	89 45 f8	 mov	 DWORD PTR _nCount$1$[ebp], eax
$LN5@Replace:

; 1593 : 				}
; 1594 : 				iChar = int( StringTraits::CharNext( pszBuffer+iChar )-pszBuffer );

  0006b	8d 04 37	 lea	 eax, DWORD PTR [edi+esi]

; 167  : 		return reinterpret_cast< char* >( _mbsinc( reinterpret_cast< const unsigned char* >( p ) ) );

  0006e	50		 push	 eax
  0006f	e8 00 00 00 00	 call	 __mbsinc

; 1581 : 			while( iChar < nLength )

  00074	8b 55 f4	 mov	 edx, DWORD PTR _nLength$1$[ebp]

; 167  : 		return reinterpret_cast< char* >( _mbsinc( reinterpret_cast< const unsigned char* >( p ) ) );

  00077	8b f8		 mov	 edi, eax

; 1581 : 			while( iChar < nLength )

  00079	8b 45 f8	 mov	 eax, DWORD PTR _nCount$1$[ebp]

; 1593 : 				}
; 1594 : 				iChar = int( StringTraits::CharNext( pszBuffer+iChar )-pszBuffer );

  0007c	2b fe		 sub	 edi, esi
  0007e	8a 6d 08	 mov	 ch, BYTE PTR _chOld$[ebp]

; 167  : 		return reinterpret_cast< char* >( _mbsinc( reinterpret_cast< const unsigned char* >( p ) ) );

  00081	83 c4 04	 add	 esp, 4

; 1581 : 			while( iChar < nLength )

  00084	3b fa		 cmp	 edi, edx
  00086	7c a9		 jl	 SHORT $LL46@Replace

; 1596 : 			if( bCopied )

  00088	80 7d ff 00	 cmp	 BYTE PTR _bCopied$1$[ebp], 0
  0008c	74 10		 je	 SHORT $LN45@Replace
; File C:\Program Files\Microsoft Visual Studio\2022\Professional\VC\Tools\MSVC\14.44.35207\atlmfc\include\atlsimpstr.h

; 875  : 		if( nLength < 0 || nLength > GetData()->nAllocLength)

  0008e	8b 03		 mov	 eax, DWORD PTR [ebx]
  00090	3b 50 f8	 cmp	 edx, DWORD PTR [eax-8]
  00093	7f 15		 jg	 SHORT $LN29@Replace

; 877  : 
; 878  : 		GetData()->nDataLength = nLength;

  00095	89 50 f4	 mov	 DWORD PTR [eax-12], edx

; 879  : 		m_pszData[nLength] = 0;

  00098	8b 03		 mov	 eax, DWORD PTR [ebx]
  0009a	c6 04 02 00	 mov	 BYTE PTR [edx+eax], 0
$LN45@Replace:
; File C:\Program Files\Microsoft Visual Studio\2022\Professional\VC\Tools\MSVC\14.44.35207\atlmfc\include\cstringt.h

; 1596 : 			if( bCopied )

  0009e	8b 45 f8	 mov	 eax, DWORD PTR _nCount$1$[ebp]
$LN54@Replace:
  000a1	5f		 pop	 edi
  000a2	5e		 pop	 esi
$LN30@Replace:

; 1597 : 			{
; 1598 : 				this->ReleaseBufferSetLength( nLength );
; 1599 : 			}
; 1600 : 		}
; 1601 : 
; 1602 : 		return( nCount );

  000a3	5b		 pop	 ebx

; 1603 : 	}

  000a4	8b e5		 mov	 esp, ebp
  000a6	5d		 pop	 ebp
  000a7	c2 08 00	 ret	 8
$LN29@Replace:
; File C:\Program Files\Microsoft Visual Studio\2022\Professional\VC\Tools\MSVC\14.44.35207\atlmfc\include\atlsimpstr.h

; 876  : 			AtlThrow(E_INVALIDARG);

  000aa	68 57 00 07 80	 push	 -2147024809		; 80070057H
  000af	e8 00 00 00 00	 call	 ?AtlThrowImpl@ATL@@YGXJ@Z ; ATL::AtlThrowImpl
$LN56@Replace:
  000b4	cc		 int	 3
?Replace@?$CStringT@DV?$StrTraitMFC@DV?$ChTraitsCRT@D@ATL@@@@@ATL@@QAEHDD@Z ENDP ; ATL::CStringT<char,StrTraitMFC<char,ATL::ChTraitsCRT<char> > >::Replace
_TEXT	ENDS
; Function compile flags: /Ogtp
; File C:\Program Files\Microsoft Visual Studio\2022\Professional\VC\Tools\MSVC\14.44.35207\atlmfc\include\cstringt.h
; File C:\Program Files\Microsoft Visual Studio\2022\Professional\VC\Tools\MSVC\14.44.35207\atlmfc\include\atlsimpstr.h
; File C:\Program Files\Microsoft Visual Studio\2022\Professional\VC\Tools\MSVC\14.44.35207\atlmfc\include\cstringt.h
; File C:\Program Files\Microsoft Visual Studio\2022\Professional\VC\Tools\MSVC\14.44.35207\atlmfc\include\atlsimpstr.h
; File C:\Program Files (x86)\Windows Kits\10\Include\10.0.26100.0\ucrt\corecrt_memcpy_s.h
; File C:\Program Files\Microsoft Visual Studio\2022\Professional\VC\Tools\MSVC\14.44.35207\atlmfc\include\atlsimpstr.h
; File C:\Program Files (x86)\Windows Kits\10\Include\10.0.26100.0\ucrt\corecrt_memcpy_s.h
; File C:\Program Files\Microsoft Visual Studio\2022\Professional\VC\Tools\MSVC\14.44.35207\atlmfc\include\atlsimpstr.h
; File C:\Program Files\Microsoft Visual Studio\2022\Professional\VC\Tools\MSVC\14.44.35207\atlmfc\include\cstringt.h
; File C:\Program Files\Microsoft Visual Studio\2022\Professional\VC\Tools\MSVC\14.44.35207\atlmfc\include\atlsimpstr.h
; File C:\Program Files\Microsoft Visual Studio\2022\Professional\VC\Tools\MSVC\14.44.35207\atlmfc\include\cstringt.h
; File C:\Program Files\Microsoft Visual Studio\2022\Professional\VC\Tools\MSVC\14.44.35207\atlmfc\include\atlsimpstr.h
; File C:\Program Files\Microsoft Visual Studio\2022\Professional\VC\Tools\MSVC\14.44.35207\atlmfc\include\cstringt.h
;	COMDAT ??4?$CStringT@DV?$StrTraitMFC@DV?$ChTraitsCRT@D@ATL@@@@@ATL@@QAEAAV01@PBD@Z
_TEXT	SEGMENT
_nOldLength$1$ = -4					; size = 4
_pszSrc$ = 8						; size = 4
_nOffset$1$ = 8						; size = 4
??4?$CStringT@DV?$StrTraitMFC@DV?$ChTraitsCRT@D@ATL@@@@@ATL@@QAEAAV01@PBD@Z PROC ; ATL::CStringT<char,StrTraitMFC<char,ATL::ChTraitsCRT<char> > >::operator=, COMDAT
; _this$ = ecx

; 1322 : 	{

  00000	55		 push	 ebp
  00001	8b ec		 mov	 ebp, esp
  00003	51		 push	 ecx
  00004	53		 push	 ebx
; File C:\Program Files\Microsoft Visual Studio\2022\Professional\VC\Tools\MSVC\14.44.35207\atlmfc\include\atlsimpstr.h

; 726  : 		if( psz == NULL )

  00005	8b 5d 08	 mov	 ebx, DWORD PTR _pszSrc$[ebp]
; File C:\Program Files\Microsoft Visual Studio\2022\Professional\VC\Tools\MSVC\14.44.35207\atlmfc\include\cstringt.h

; 1322 : 	{

  00008	56		 push	 esi
  00009	57		 push	 edi
  0000a	8b f9		 mov	 edi, ecx
; File C:\Program Files\Microsoft Visual Studio\2022\Professional\VC\Tools\MSVC\14.44.35207\atlmfc\include\atlsimpstr.h

; 726  : 		if( psz == NULL )

  0000c	85 db		 test	 ebx, ebx
  0000e	0f 84 e6 00 00
	00		 je	 $LN69@operator

; 727  : 		{
; 728  : 			return( 0 );
; 729  : 		}
; 730  : 		return( int( strlen( psz ) ) );

  00014	8b f3		 mov	 esi, ebx
  00016	8d 4e 01	 lea	 ecx, DWORD PTR [esi+1]
  00019	0f 1f 80 00 00
	00 00		 npad	 7
$LL71@operator:
  00020	8a 06		 mov	 al, BYTE PTR [esi]
  00022	46		 inc	 esi
  00023	84 c0		 test	 al, al
  00025	75 f9		 jne	 SHORT $LL71@operator
  00027	2b f1		 sub	 esi, ecx

; 612  : 		if( nLength == 0 )

  00029	0f 84 cb 00 00
	00		 je	 $LN69@operator

; 523  : 		return( GetData()->nDataLength );

  0002f	8b 07		 mov	 eax, DWORD PTR [edi]

; 628  : 			UINT_PTR nOffset = pszSrc-GetString();

  00031	8b d3		 mov	 edx, ebx
  00033	2b d0		 sub	 edx, eax
  00035	89 55 08	 mov	 DWORD PTR _nOffset$1$[ebp], edx
  00038	8b 48 f4	 mov	 ecx, DWORD PTR [eax-12]
  0003b	89 4d fc	 mov	 DWORD PTR _nOldLength$1$[ebp], ecx

; 808  : 		if (nLength < 0)

  0003e	85 f6		 test	 esi, esi
  00040	0f 88 c6 00 00
	00		 js	 $LN59@operator

; 809  : 			AtlThrow(E_INVALIDARG);
; 810  : 
; 811  : 		CStringData* pOldData = GetData();
; 812  : 		int nShared = 1-pOldData->nRefs;  // nShared < 0 means true, >= 0 means false

  00046	b9 01 00 00 00	 mov	 ecx, 1
  0004b	2b 48 fc	 sub	 ecx, DWORD PTR [eax-4]

; 813  : 		int nTooShort = pOldData->nAllocLength-nLength;  // nTooShort < 0 means true, >= 0 means false

  0004e	8b 40 f8	 mov	 eax, DWORD PTR [eax-8]
  00051	2b c6		 sub	 eax, esi

; 814  : 		if( (nShared|nTooShort) < 0 )  // If either sign bit is set (i.e. either is less than zero), we need to copy data

  00053	0b c8		 or	 ecx, eax
  00055	7d 0b		 jge	 SHORT $LN25@operator

; 815  : 		{
; 816  : 			PrepareWrite2( nLength );

  00057	56		 push	 esi
  00058	8b cf		 mov	 ecx, edi
  0005a	e8 00 00 00 00	 call	 ?PrepareWrite2@?$CSimpleStringT@D$0A@@ATL@@AAEXH@Z ; ATL::CSimpleStringT<char,0>::PrepareWrite2
  0005f	8b 55 08	 mov	 edx, DWORD PTR _nOffset$1$[ebp]
$LN25@operator:

; 632  : 			PXSTR pszBuffer = GetBuffer( nLength );

  00062	8b 07		 mov	 eax, DWORD PTR [edi]
  00064	8b 48 f8	 mov	 ecx, DWORD PTR [eax-8]

; 633  : 			if( nOffset <= nOldLength )

  00067	3b 55 fc	 cmp	 edx, DWORD PTR _nOldLength$1$[ebp]
  0006a	77 35		 ja	 SHORT $LN14@operator

; 634  : 			{
; 635  : 				CopyCharsOverlapped( pszBuffer, GetAllocLength(),

  0006c	03 d0		 add	 edx, eax
; File C:\Program Files (x86)\Windows Kits\10\Include\10.0.26100.0\ucrt\corecrt_memcpy_s.h

; 81   :         _CRT_MEMCPY_S_VALIDATE_RETURN_ERRCODE(_Destination != NULL,            EINVAL);

  0006e	85 c0		 test	 eax, eax
  00070	75 0d		 jne	 SHORT $LN39@operator
  00072	e8 00 00 00 00	 call	 __errno
  00077	c7 00 16 00 00
	00		 mov	 DWORD PTR [eax], 22	; 00000016H
  0007d	eb 5b		 jmp	 SHORT $LN85@operator
$LN39@operator:

; 82   :         _CRT_MEMCPY_S_VALIDATE_RETURN_ERRCODE(_Source != NULL,                 EINVAL);

  0007f	85 d2		 test	 edx, edx
  00081	75 0d		 jne	 SHORT $LN40@operator
  00083	e8 00 00 00 00	 call	 __errno
  00088	c7 00 16 00 00
	00		 mov	 DWORD PTR [eax], 22	; 00000016H
  0008e	eb 4a		 jmp	 SHORT $LN85@operator
$LN40@operator:

; 83   :         _CRT_MEMCPY_S_VALIDATE_RETURN_ERRCODE(_DestinationSize >= _SourceSize, ERANGE);

  00090	3b ce		 cmp	 ecx, esi
  00092	72 3b		 jb	 SHORT $LN86@operator

; 84   : 
; 85   :         memmove(_Destination, _Source, _SourceSize);

  00094	56		 push	 esi
  00095	52		 push	 edx
  00096	50		 push	 eax
  00097	e8 00 00 00 00	 call	 _memmove
  0009c	83 c4 0c	 add	 esp, 12			; 0000000cH
; File C:\Program Files\Microsoft Visual Studio\2022\Professional\VC\Tools\MSVC\14.44.35207\atlmfc\include\atlsimpstr.h

; 637  : 			}

  0009f	eb 3e		 jmp	 SHORT $LN53@operator
$LN14@operator:
; File C:\Program Files (x86)\Windows Kits\10\Include\10.0.26100.0\ucrt\corecrt_memcpy_s.h

; 52   :         _CRT_MEMCPY_S_VALIDATE_RETURN_ERRCODE(_Destination != NULL, EINVAL);

  000a1	85 c0		 test	 eax, eax
  000a3	75 0d		 jne	 SHORT $LN49@operator
  000a5	e8 00 00 00 00	 call	 __errno
  000aa	c7 00 16 00 00
	00		 mov	 DWORD PTR [eax], 22	; 00000016H
  000b0	eb 28		 jmp	 SHORT $LN85@operator
$LN49@operator:

; 53   :         if (_Source == NULL || _DestinationSize < _SourceSize)

  000b2	3b ce		 cmp	 ecx, esi
  000b4	72 0d		 jb	 SHORT $LN51@operator

; 56   : 
; 57   :             _CRT_MEMCPY_S_VALIDATE_RETURN_ERRCODE(_Source != NULL,                 EINVAL);
; 58   :             _CRT_MEMCPY_S_VALIDATE_RETURN_ERRCODE(_DestinationSize >= _SourceSize, ERANGE);
; 59   : 
; 60   :             // Unreachable, but required to suppress /analyze warnings:
; 61   :             return EINVAL;
; 62   :         }
; 63   :         memcpy(_Destination, _Source, _SourceSize);

  000b6	56		 push	 esi
  000b7	53		 push	 ebx
  000b8	50		 push	 eax
  000b9	e8 00 00 00 00	 call	 _memcpy
  000be	83 c4 0c	 add	 esp, 12			; 0000000cH
  000c1	eb 1c		 jmp	 SHORT $LN53@operator
$LN51@operator:

; 54   :         {
; 55   :             memset(_Destination, 0, _DestinationSize);

  000c3	51		 push	 ecx
  000c4	6a 00		 push	 0
  000c6	50		 push	 eax
  000c7	e8 00 00 00 00	 call	 _memset
  000cc	83 c4 0c	 add	 esp, 12			; 0000000cH
$LN86@operator:
; File C:\Program Files\Microsoft Visual Studio\2022\Professional\VC\Tools\MSVC\14.44.35207\atlmfc\include\atlsimpstr.h

; 875  : 		if( nLength < 0 || nLength > GetData()->nAllocLength)

  000cf	e8 00 00 00 00	 call	 __errno
  000d4	c7 00 22 00 00
	00		 mov	 DWORD PTR [eax], 34	; 00000022H
$LN85@operator:
  000da	e8 00 00 00 00	 call	 __invalid_parameter_noinfo
$LN53@operator:
  000df	8b 07		 mov	 eax, DWORD PTR [edi]
  000e1	3b 70 f8	 cmp	 esi, DWORD PTR [eax-8]
  000e4	7f 26		 jg	 SHORT $LN59@operator

; 877  : 
; 878  : 		GetData()->nDataLength = nLength;

  000e6	89 70 f4	 mov	 DWORD PTR [eax-12], esi

; 879  : 		m_pszData[nLength] = 0;

  000e9	8b 07		 mov	 eax, DWORD PTR [edi]
  000eb	c6 04 06 00	 mov	 BYTE PTR [esi+eax], 0
; File C:\Program Files\Microsoft Visual Studio\2022\Professional\VC\Tools\MSVC\14.44.35207\atlmfc\include\cstringt.h

; 1325 : 		return( *this );

  000ef	8b c7		 mov	 eax, edi
  000f1	5f		 pop	 edi
  000f2	5e		 pop	 esi
  000f3	5b		 pop	 ebx

; 1326 : 	}

  000f4	8b e5		 mov	 esp, ebp
  000f6	5d		 pop	 ebp
  000f7	c2 04 00	 ret	 4
$LN69@operator:
; File C:\Program Files\Microsoft Visual Studio\2022\Professional\VC\Tools\MSVC\14.44.35207\atlmfc\include\atlsimpstr.h

; 614  : 			Empty();

  000fa	8b cf		 mov	 ecx, edi
  000fc	e8 00 00 00 00	 call	 ?Empty@?$CSimpleStringT@D$0A@@ATL@@QAEXXZ ; ATL::CSimpleStringT<char,0>::Empty
; File C:\Program Files\Microsoft Visual Studio\2022\Professional\VC\Tools\MSVC\14.44.35207\atlmfc\include\cstringt.h

; 1325 : 		return( *this );

  00101	8b c7		 mov	 eax, edi
  00103	5f		 pop	 edi
  00104	5e		 pop	 esi
  00105	5b		 pop	 ebx

; 1326 : 	}

  00106	8b e5		 mov	 esp, ebp
  00108	5d		 pop	 ebp
  00109	c2 04 00	 ret	 4
$LN59@operator:
; File C:\Program Files\Microsoft Visual Studio\2022\Professional\VC\Tools\MSVC\14.44.35207\atlmfc\include\atlsimpstr.h

; 876  : 			AtlThrow(E_INVALIDARG);

  0010c	68 57 00 07 80	 push	 -2147024809		; 80070057H
  00111	e8 00 00 00 00	 call	 ?AtlThrowImpl@ATL@@YGXJ@Z ; ATL::AtlThrowImpl
$LN84@operator:
  00116	cc		 int	 3
??4?$CStringT@DV?$StrTraitMFC@DV?$ChTraitsCRT@D@ATL@@@@@ATL@@QAEAAV01@PBD@Z ENDP ; ATL::CStringT<char,StrTraitMFC<char,ATL::ChTraitsCRT<char> > >::operator=
_TEXT	ENDS
; Function compile flags: /Ogtp
; File C:\Program Files\Microsoft Visual Studio\2022\Professional\VC\Tools\MSVC\14.44.35207\atlmfc\include\cstringt.h
; File C:\Program Files\Microsoft Visual Studio\2022\Professional\VC\Tools\MSVC\14.44.35207\atlmfc\include\atlsimpstr.h
; File C:\Program Files\Microsoft Visual Studio\2022\Professional\VC\Tools\MSVC\14.44.35207\atlmfc\include\cstringt.h
;	COMDAT ??1?$CStringT@DV?$StrTraitMFC@DV?$ChTraitsCRT@D@ATL@@@@@ATL@@QAE@XZ
_TEXT	SEGMENT
??1?$CStringT@DV?$StrTraitMFC@DV?$ChTraitsCRT@D@ATL@@@@@ATL@@QAE@XZ PROC ; ATL::CStringT<char,StrTraitMFC<char,ATL::ChTraitsCRT<char> > >::~CStringT<char,StrTraitMFC<char,ATL::ChTraitsCRT<char> > >, COMDAT
; _this$ = ecx
; File C:\Program Files\Microsoft Visual Studio\2022\Professional\VC\Tools\MSVC\14.44.35207\atlmfc\include\atlsimpstr.h

; 804  : 		return( reinterpret_cast< CStringData* >( m_pszData )-1 );

  00000	8b 11		 mov	 edx, DWORD PTR [ecx]

; 92   : 		if( _InterlockedDecrement( &nRefs ) <= 0 )

  00002	83 c8 ff	 or	 eax, -1

; 804  : 		return( reinterpret_cast< CStringData* >( m_pszData )-1 );

  00005	83 ea 10	 sub	 edx, 16			; 00000010H

; 92   : 		if( _InterlockedDecrement( &nRefs ) <= 0 )

  00008	f0 0f c1 42 0c	 lock	  xadd	 DWORD PTR [edx+12], eax
  0000d	48		 dec	 eax
  0000e	85 c0		 test	 eax, eax
  00010	7f 08		 jg	 SHORT $LN8@CStringT

; 93   : 		{
; 94   : 			pStringMgr->Free( this );

  00012	8b 0a		 mov	 ecx, DWORD PTR [edx]
  00014	52		 push	 edx
  00015	8b 01		 mov	 eax, DWORD PTR [ecx]
  00017	ff 50 04	 call	 DWORD PTR [eax+4]
$LN8@CStringT:
; File C:\Program Files\Microsoft Visual Studio\2022\Professional\VC\Tools\MSVC\14.44.35207\atlmfc\include\cstringt.h

; 1303 : 	}

  0001a	c3		 ret	 0
??1?$CStringT@DV?$StrTraitMFC@DV?$ChTraitsCRT@D@ATL@@@@@ATL@@QAE@XZ ENDP ; ATL::CStringT<char,StrTraitMFC<char,ATL::ChTraitsCRT<char> > >::~CStringT<char,StrTraitMFC<char,ATL::ChTraitsCRT<char> > >
_TEXT	ENDS
; Function compile flags: /Ogtp
; File C:\Program Files\Microsoft Visual Studio\2022\Professional\VC\Tools\MSVC\14.44.35207\atlmfc\include\cstringt.h
; File C:\Program Files\Microsoft Visual Studio\2022\Professional\VC\Tools\MSVC\14.44.35207\atlmfc\include\afxstr.h
; File C:\Program Files\Microsoft Visual Studio\2022\Professional\VC\Tools\MSVC\14.44.35207\atlmfc\include\cstringt.h
; File C:\Program Files\Microsoft Visual Studio\2022\Professional\VC\Tools\MSVC\14.44.35207\atlmfc\include\atlsimpstr.h
; File C:\Program Files\Microsoft Visual Studio\2022\Professional\VC\Tools\MSVC\14.44.35207\atlmfc\include\cstringt.h
; File C:\Program Files\Microsoft Visual Studio\2022\Professional\VC\Tools\MSVC\14.44.35207\atlmfc\include\atlsimpstr.h
; File C:\Program Files\Microsoft Visual Studio\2022\Professional\VC\Tools\MSVC\14.44.35207\atlmfc\include\cstringt.h
;	COMDAT ??0?$CStringT@DV?$StrTraitMFC@DV?$ChTraitsCRT@D@ATL@@@@@ATL@@QAE@XZ
_TEXT	SEGMENT
??0?$CStringT@DV?$StrTraitMFC@DV?$ChTraitsCRT@D@ATL@@@@@ATL@@QAE@XZ PROC ; ATL::CStringT<char,StrTraitMFC<char,ATL::ChTraitsCRT<char> > >::CStringT<char,StrTraitMFC<char,ATL::ChTraitsCRT<char> > >, COMDAT
; _this$ = ecx

; 1015 : 	{

  00000	56		 push	 esi
  00001	8b f1		 mov	 esi, ecx
; File C:\Program Files\Microsoft Visual Studio\2022\Professional\VC\Tools\MSVC\14.44.35207\atlmfc\include\afxstr.h

; 56   : 		return( AfxGetStringManager() );

  00003	e8 00 00 00 00	 call	 ?AfxGetStringManager@@YGPAUIAtlStringMgr@ATL@@XZ ; AfxGetStringManager
; File C:\Program Files\Microsoft Visual Studio\2022\Professional\VC\Tools\MSVC\14.44.35207\atlmfc\include\cstringt.h

; 1014 : 		CThisSimpleString( StringTraits::GetDefaultManager() )

  00008	8b c8		 mov	 ecx, eax
; File C:\Program Files\Microsoft Visual Studio\2022\Professional\VC\Tools\MSVC\14.44.35207\atlmfc\include\atlsimpstr.h

; 209  : 		ATLENSURE( pStringMgr != NULL );

  0000a	85 c9		 test	 ecx, ecx
  0000c	74 0e		 je	 SHORT $LN18@CStringT

; 210  : 		CStringData* pData = pStringMgr->GetNilString();

  0000e	8b 01		 mov	 eax, DWORD PTR [ecx]
  00010	ff 50 0c	 call	 DWORD PTR [eax+12]

; 211  : 		Attach( pData );

  00013	83 c0 10	 add	 eax, 16			; 00000010H
  00016	89 06		 mov	 DWORD PTR [esi], eax
; File C:\Program Files\Microsoft Visual Studio\2022\Professional\VC\Tools\MSVC\14.44.35207\atlmfc\include\cstringt.h

; 1016 : 	}

  00018	8b c6		 mov	 eax, esi
  0001a	5e		 pop	 esi
  0001b	c3		 ret	 0
$LN18@CStringT:
; File C:\Program Files\Microsoft Visual Studio\2022\Professional\VC\Tools\MSVC\14.44.35207\atlmfc\include\atlsimpstr.h

; 209  : 		ATLENSURE( pStringMgr != NULL );

  0001c	68 05 40 00 80	 push	 -2147467259		; 80004005H
  00021	e8 00 00 00 00	 call	 ?AtlThrowImpl@ATL@@YGXJ@Z ; ATL::AtlThrowImpl
$LN16@CStringT:
  00026	cc		 int	 3
??0?$CStringT@DV?$StrTraitMFC@DV?$ChTraitsCRT@D@ATL@@@@@ATL@@QAE@XZ ENDP ; ATL::CStringT<char,StrTraitMFC<char,ATL::ChTraitsCRT<char> > >::CStringT<char,StrTraitMFC<char,ATL::ChTraitsCRT<char> > >
_TEXT	ENDS
; Function compile flags: /Ogtp
; File C:\Program Files\Microsoft Visual Studio\2022\Professional\VC\Tools\MSVC\14.44.35207\atlmfc\include\atlsimpstr.h
;	COMDAT ?Reallocate@?$CSimpleStringT@D$0A@@ATL@@AAEXH@Z
_TEXT	SEGMENT
_nLength$ = 8						; size = 4
?Reallocate@?$CSimpleStringT@D$0A@@ATL@@AAEXH@Z PROC	; ATL::CSimpleStringT<char,0>::Reallocate, COMDAT
; _this$ = ecx

; 853  : 	{

  00000	55		 push	 ebp
  00001	8b ec		 mov	 ebp, esp
  00003	56		 push	 esi

; 854  : 		CStringData* pOldData = GetData();
; 855  : 		ATLASSERT( pOldData->nAllocLength < nLength );
; 856  : 		IAtlStringMgr* pStringMgr = pOldData->pStringMgr;
; 857  : 		if ( pOldData->nAllocLength >= nLength || nLength <= 0)

  00004	8b 75 08	 mov	 esi, DWORD PTR _nLength$[ebp]
  00007	57		 push	 edi
  00008	8b f9		 mov	 edi, ecx

; 804  : 		return( reinterpret_cast< CStringData* >( m_pszData )-1 );

  0000a	8b 17		 mov	 edx, DWORD PTR [edi]
  0000c	83 ea 10	 sub	 edx, 16			; 00000010H

; 854  : 		CStringData* pOldData = GetData();
; 855  : 		ATLASSERT( pOldData->nAllocLength < nLength );
; 856  : 		IAtlStringMgr* pStringMgr = pOldData->pStringMgr;
; 857  : 		if ( pOldData->nAllocLength >= nLength || nLength <= 0)

  0000f	39 72 08	 cmp	 DWORD PTR [edx+8], esi
  00012	7d 1e		 jge	 SHORT $LN3@Reallocate
  00014	85 f6		 test	 esi, esi
  00016	7e 1a		 jle	 SHORT $LN3@Reallocate

; 860  : 			return;
; 861  : 		}
; 862  : 		CStringData* pNewData = pStringMgr->Reallocate( pOldData, nLength, sizeof( XCHAR ) );

  00018	8b 0a		 mov	 ecx, DWORD PTR [edx]
  0001a	6a 01		 push	 1
  0001c	56		 push	 esi
  0001d	52		 push	 edx
  0001e	8b 01		 mov	 eax, DWORD PTR [ecx]
  00020	ff 50 08	 call	 DWORD PTR [eax+8]

; 863  : 		if( pNewData == NULL )

  00023	85 c0		 test	 eax, eax
  00025	74 0b		 je	 SHORT $LN3@Reallocate

; 864  : 		{
; 865  : 			ThrowMemoryException();
; 866  : 		}
; 867  : 		Attach( pNewData );

  00027	83 c0 10	 add	 eax, 16			; 00000010H
  0002a	89 07		 mov	 DWORD PTR [edi], eax
  0002c	5f		 pop	 edi
  0002d	5e		 pop	 esi

; 868  : 	}

  0002e	5d		 pop	 ebp
  0002f	c2 04 00	 ret	 4
$LN3@Reallocate:

; 858  : 		{
; 859  : 			ThrowMemoryException();

  00032	e8 00 00 00 00	 call	 ?ThrowMemoryException@?$CSimpleStringT@D$0A@@ATL@@KAXXZ ; ATL::CSimpleStringT<char,0>::ThrowMemoryException
$LN12@Reallocate:
  00037	cc		 int	 3
?Reallocate@?$CSimpleStringT@D$0A@@ATL@@AAEXH@Z ENDP	; ATL::CSimpleStringT<char,0>::Reallocate
_TEXT	ENDS
; Function compile flags: /Ogtp
; File C:\Program Files\Microsoft Visual Studio\2022\Professional\VC\Tools\MSVC\14.44.35207\atlmfc\include\atlsimpstr.h
;	COMDAT ?PrepareWrite2@?$CSimpleStringT@D$0A@@ATL@@AAEXH@Z
_TEXT	SEGMENT
_nLength$ = 8						; size = 4
?PrepareWrite2@?$CSimpleStringT@D$0A@@ATL@@AAEXH@Z PROC	; ATL::CSimpleStringT<char,0>::PrepareWrite2, COMDAT
; _this$ = ecx

; 822  : 	{

  00000	55		 push	 ebp
  00001	8b ec		 mov	 ebp, esp
  00003	56		 push	 esi

; 823  : 		CStringData* pOldData = GetData();
; 824  : 		if( pOldData->nDataLength > nLength )

  00004	8b 75 08	 mov	 esi, DWORD PTR _nLength$[ebp]
  00007	57		 push	 edi
  00008	8b f9		 mov	 edi, ecx

; 804  : 		return( reinterpret_cast< CStringData* >( m_pszData )-1 );

  0000a	8b 0f		 mov	 ecx, DWORD PTR [edi]

; 823  : 		CStringData* pOldData = GetData();
; 824  : 		if( pOldData->nDataLength > nLength )

  0000c	39 71 f4	 cmp	 DWORD PTR [ecx-12], esi
  0000f	0f 4f 71 f4	 cmovg	 esi, DWORD PTR [ecx-12]

; 77   : 		return( nRefs > 1 );

  00013	83 79 fc 01	 cmp	 DWORD PTR [ecx-4], 1

; 825  : 		{
; 826  : 			nLength = pOldData->nDataLength;
; 827  : 		}
; 828  : 		if( pOldData->IsShared() )

  00017	7e 0e		 jle	 SHORT $LN3@PrepareWri

; 829  : 		{
; 830  : 			Fork( nLength );

  00019	56		 push	 esi
  0001a	8b cf		 mov	 ecx, edi
  0001c	e8 00 00 00 00	 call	 ?Fork@?$CSimpleStringT@D$0A@@ATL@@AAEXH@Z ; ATL::CSimpleStringT<char,0>::Fork
  00021	5f		 pop	 edi

; 850  : 		}
; 851  : 	}

  00022	5e		 pop	 esi
  00023	5d		 pop	 ebp
  00024	c2 04 00	 ret	 4
$LN3@PrepareWri:

; 831  : 		}
; 832  : 		else if( pOldData->nAllocLength < nLength )

  00027	8b 49 f8	 mov	 ecx, DWORD PTR [ecx-8]
  0002a	3b ce		 cmp	 ecx, esi
  0002c	7d 25		 jge	 SHORT $LN5@PrepareWri

; 833  : 		{
; 834  : 			// Grow exponentially, until we hit 1G, then by 1M thereafter.
; 835  : 			int nNewLength = pOldData->nAllocLength;
; 836  : 			if( nNewLength > 1024 * 1024 * 1024 )

  0002e	81 f9 00 00 00
	40		 cmp	 ecx, 1073741824		; 40000000H
  00034	7e 07		 jle	 SHORT $LN6@PrepareWri

; 837  : 			{
; 838  : 				nNewLength += 1024 * 1024;

  00036	b8 00 00 10 00	 mov	 eax, 1048576		; 00100000H

; 839  : 			}

  0003b	eb 07		 jmp	 SHORT $LN7@PrepareWri
$LN6@PrepareWri:

; 840  : 			else
; 841  : 			{
; 842  : 				// Exponential growth factor is 1.5.
; 843  : 				nNewLength = nNewLength + nNewLength / 2;

  0003d	8b c1		 mov	 eax, ecx
  0003f	99		 cdq
  00040	2b c2		 sub	 eax, edx
  00042	d1 f8		 sar	 eax, 1
$LN7@PrepareWri:

; 844  : 			}
; 845  : 			if( nNewLength < nLength )

  00044	03 c1		 add	 eax, ecx

; 846  : 			{
; 847  : 				nNewLength = nLength;
; 848  : 			}
; 849  : 			Reallocate( nNewLength );

  00046	8b cf		 mov	 ecx, edi
  00048	3b c6		 cmp	 eax, esi
  0004a	0f 4d f0	 cmovge	 esi, eax
  0004d	56		 push	 esi
  0004e	e8 00 00 00 00	 call	 ?Reallocate@?$CSimpleStringT@D$0A@@ATL@@AAEXH@Z ; ATL::CSimpleStringT<char,0>::Reallocate
$LN5@PrepareWri:

; 850  : 		}
; 851  : 	}

  00053	5f		 pop	 edi
  00054	5e		 pop	 esi
  00055	5d		 pop	 ebp
  00056	c2 04 00	 ret	 4
?PrepareWrite2@?$CSimpleStringT@D$0A@@ATL@@AAEXH@Z ENDP	; ATL::CSimpleStringT<char,0>::PrepareWrite2
_TEXT	ENDS
; Function compile flags: /Ogtp
; File C:\Program Files\Microsoft Visual Studio\2022\Professional\VC\Tools\MSVC\14.44.35207\atlmfc\include\atlsimpstr.h
; File C:\Program Files (x86)\Windows Kits\10\Include\10.0.26100.0\ucrt\corecrt_memcpy_s.h
; File C:\Program Files\Microsoft Visual Studio\2022\Professional\VC\Tools\MSVC\14.44.35207\atlmfc\include\atlsimpstr.h
;	COMDAT ?Fork@?$CSimpleStringT@D$0A@@ATL@@AAEXH@Z
_TEXT	SEGMENT
_this$1$ = -12						; size = 4
_nOldLength$1$ = -8					; size = 4
__Source$1$ = -4					; size = 4
_nLength$ = 8						; size = 4
_pNewData$1$ = 8					; size = 4
?Fork@?$CSimpleStringT@D$0A@@ATL@@AAEXH@Z PROC		; ATL::CSimpleStringT<char,0>::Fork, COMDAT
; _this$ = ecx

; 787  : 	{

  00000	55		 push	 ebp
  00001	8b ec		 mov	 ebp, esp
  00003	83 ec 0c	 sub	 esp, 12			; 0000000cH
  00006	8b c1		 mov	 eax, ecx
  00008	89 45 f4	 mov	 DWORD PTR _this$1$[ebp], eax
  0000b	53		 push	 ebx
  0000c	56		 push	 esi

; 804  : 		return( reinterpret_cast< CStringData* >( m_pszData )-1 );

  0000d	8b 00		 mov	 eax, DWORD PTR [eax]

; 790  : 		CStringData* pNewData = pOldData->pStringMgr->Clone()->Allocate( nLength, sizeof( XCHAR ) );

  0000f	8b 48 f0	 mov	 ecx, DWORD PTR [eax-16]

; 804  : 		return( reinterpret_cast< CStringData* >( m_pszData )-1 );

  00012	8d 58 f0	 lea	 ebx, DWORD PTR [eax-16]
  00015	89 45 fc	 mov	 DWORD PTR __Source$1$[ebp], eax

; 787  : 	{

  00018	57		 push	 edi

; 788  : 		CStringData* pOldData = GetData();
; 789  : 		int nOldLength = pOldData->nDataLength;

  00019	8b 7b 04	 mov	 edi, DWORD PTR [ebx+4]

; 790  : 		CStringData* pNewData = pOldData->pStringMgr->Clone()->Allocate( nLength, sizeof( XCHAR ) );

  0001c	8b 01		 mov	 eax, DWORD PTR [ecx]
  0001e	89 7d f8	 mov	 DWORD PTR _nOldLength$1$[ebp], edi
  00021	ff 50 10	 call	 DWORD PTR [eax+16]
  00024	8b 75 08	 mov	 esi, DWORD PTR _nLength$[ebp]
  00027	8b c8		 mov	 ecx, eax
  00029	6a 01		 push	 1
  0002b	56		 push	 esi
  0002c	8b 10		 mov	 edx, DWORD PTR [eax]
  0002e	ff 12		 call	 DWORD PTR [edx]
  00030	89 45 08	 mov	 DWORD PTR _pNewData$1$[ebp], eax

; 791  : 		if( pNewData == NULL )

  00033	85 c0		 test	 eax, eax
  00035	74 6c		 je	 SHORT $LN25@Fork

; 794  : 		}
; 795  : 		int nCharsToCopy = ((nOldLength < nLength) ? nOldLength : nLength)+1;  // Copy '\0'

  00037	3b fe		 cmp	 edi, esi
  00039	0f 4c f7	 cmovl	 esi, edi

; 796  : 		memcpy_s( PXSTR( pNewData->data() ), nCharsToCopy * sizeof( XCHAR ),

  0003c	8d 78 10	 lea	 edi, DWORD PTR [eax+16]
  0003f	83 c6 01	 add	 esi, 1
; File C:\Program Files (x86)\Windows Kits\10\Include\10.0.26100.0\ucrt\corecrt_memcpy_s.h

; 47   :         if (_SourceSize == 0)

  00042	74 33		 je	 SHORT $LN11@Fork

; 48   :         {
; 49   :             return 0;
; 50   :         }
; 51   : 
; 52   :         _CRT_MEMCPY_S_VALIDATE_RETURN_ERRCODE(_Destination != NULL, EINVAL);

  00044	85 ff		 test	 edi, edi
  00046	74 1f		 je	 SHORT $LN23@Fork

; 53   :         if (_Source == NULL || _DestinationSize < _SourceSize)

  00048	8b 45 fc	 mov	 eax, DWORD PTR __Source$1$[ebp]
  0004b	56		 push	 esi
  0004c	85 c0		 test	 eax, eax
  0004e	74 0c		 je	 SHORT $LN10@Fork

; 56   : 
; 57   :             _CRT_MEMCPY_S_VALIDATE_RETURN_ERRCODE(_Source != NULL,                 EINVAL);
; 58   :             _CRT_MEMCPY_S_VALIDATE_RETURN_ERRCODE(_DestinationSize >= _SourceSize, ERANGE);
; 59   : 
; 60   :             // Unreachable, but required to suppress /analyze warnings:
; 61   :             return EINVAL;
; 62   :         }
; 63   :         memcpy(_Destination, _Source, _SourceSize);

  00050	50		 push	 eax
  00051	57		 push	 edi
  00052	e8 00 00 00 00	 call	 _memcpy
  00057	83 c4 0c	 add	 esp, 12			; 0000000cH
  0005a	eb 1b		 jmp	 SHORT $LN11@Fork
$LN10@Fork:

; 54   :         {
; 55   :             memset(_Destination, 0, _DestinationSize);

  0005c	6a 00		 push	 0
  0005e	57		 push	 edi
  0005f	e8 00 00 00 00	 call	 _memset
  00064	83 c4 0c	 add	 esp, 12			; 0000000cH
$LN23@Fork:
; File C:\Program Files\Microsoft Visual Studio\2022\Professional\VC\Tools\MSVC\14.44.35207\atlmfc\include\atlsimpstr.h

; 798  : 		pNewData->nDataLength = nOldLength;

  00067	e8 00 00 00 00	 call	 __errno
  0006c	c7 00 16 00 00
	00		 mov	 DWORD PTR [eax], 22	; 00000016H
  00072	e8 00 00 00 00	 call	 __invalid_parameter_noinfo
$LN11@Fork:
  00077	8b 4d 08	 mov	 ecx, DWORD PTR _pNewData$1$[ebp]
  0007a	8b 45 f8	 mov	 eax, DWORD PTR _nOldLength$1$[ebp]
  0007d	89 41 04	 mov	 DWORD PTR [ecx+4], eax

; 92   : 		if( _InterlockedDecrement( &nRefs ) <= 0 )

  00080	83 c8 ff	 or	 eax, -1
  00083	f0 0f c1 43 0c	 lock	  xadd	 DWORD PTR [ebx+12], eax
  00088	48		 dec	 eax
  00089	85 c0		 test	 eax, eax
  0008b	7f 08		 jg	 SHORT $LN15@Fork

; 93   : 		{
; 94   : 			pStringMgr->Free( this );

  0008d	8b 0b		 mov	 ecx, DWORD PTR [ebx]
  0008f	53		 push	 ebx
  00090	8b 01		 mov	 eax, DWORD PTR [ecx]
  00092	ff 50 04	 call	 DWORD PTR [eax+4]
$LN15@Fork:

; 799  : 		pOldData->Release();
; 800  : 		Attach( pNewData );

  00095	8b 45 f4	 mov	 eax, DWORD PTR _this$1$[ebp]
  00098	89 38		 mov	 DWORD PTR [eax], edi

; 801  : 	}

  0009a	5f		 pop	 edi
  0009b	5e		 pop	 esi
  0009c	5b		 pop	 ebx
  0009d	8b e5		 mov	 esp, ebp
  0009f	5d		 pop	 ebp
  000a0	c2 04 00	 ret	 4
$LN25@Fork:

; 792  : 		{
; 793  : 			ThrowMemoryException();

  000a3	e8 00 00 00 00	 call	 ?ThrowMemoryException@?$CSimpleStringT@D$0A@@ATL@@KAXXZ ; ATL::CSimpleStringT<char,0>::ThrowMemoryException
$LN22@Fork:
  000a8	cc		 int	 3
?Fork@?$CSimpleStringT@D$0A@@ATL@@AAEXH@Z ENDP		; ATL::CSimpleStringT<char,0>::Fork
_TEXT	ENDS
; Function compile flags: /Ogtp
; File C:\Program Files\Microsoft Visual Studio\2022\Professional\VC\Tools\MSVC\14.44.35207\atlmfc\include\atlsimpstr.h
;	COMDAT ?ThrowMemoryException@?$CSimpleStringT@D$0A@@ATL@@KAXXZ
_TEXT	SEGMENT
?ThrowMemoryException@?$CSimpleStringT@D$0A@@ATL@@KAXXZ PROC ; ATL::CSimpleStringT<char,0>::ThrowMemoryException, COMDAT

; 777  : 		AtlThrow( E_OUTOFMEMORY );

  00000	68 0e 00 07 80	 push	 -2147024882		; 8007000eH
  00005	e8 00 00 00 00	 call	 ?AtlThrowImpl@ATL@@YGXJ@Z ; ATL::AtlThrowImpl
$LN3@ThrowMemor:
  0000a	cc		 int	 3
?ThrowMemoryException@?$CSimpleStringT@D$0A@@ATL@@KAXXZ ENDP ; ATL::CSimpleStringT<char,0>::ThrowMemoryException
_TEXT	ENDS
; Function compile flags: /Ogtp
; File C:\Program Files\Microsoft Visual Studio\2022\Professional\VC\Tools\MSVC\14.44.35207\atlmfc\include\atlsimpstr.h
;	COMDAT ?Empty@?$CSimpleStringT@D$0A@@ATL@@QAEXXZ
_TEXT	SEGMENT
?Empty@?$CSimpleStringT@D$0A@@ATL@@QAEXXZ PROC		; ATL::CSimpleStringT<char,0>::Empty, COMDAT
; _this$ = ecx

; 440  : 	{

  00000	56		 push	 esi
  00001	8b f1		 mov	 esi, ecx
  00003	57		 push	 edi

; 804  : 		return( reinterpret_cast< CStringData* >( m_pszData )-1 );

  00004	8b 06		 mov	 eax, DWORD PTR [esi]

; 443  : 		if( pOldData->nDataLength == 0 )

  00006	83 78 f4 00	 cmp	 DWORD PTR [eax-12], 0

; 804  : 		return( reinterpret_cast< CStringData* >( m_pszData )-1 );

  0000a	8d 50 f0	 lea	 edx, DWORD PTR [eax-16]

; 441  : 		CStringData* pOldData = GetData();
; 442  : 		IAtlStringMgr* pStringMgr = pOldData->pStringMgr;

  0000d	8b 3a		 mov	 edi, DWORD PTR [edx]

; 443  : 		if( pOldData->nDataLength == 0 )

  0000f	74 3e		 je	 SHORT $LN4@Empty

; 73   : 		return nRefs < 0;

  00011	83 7a 0c 00	 cmp	 DWORD PTR [edx+12], 0
  00015	8d 4a 0c	 lea	 ecx, DWORD PTR [edx+12]

; 444  : 		{
; 445  : 			return;
; 446  : 		}
; 447  : 
; 448  : 		if( pOldData->IsLocked() )

  00018	7d 15		 jge	 SHORT $LN3@Empty

; 875  : 		if( nLength < 0 || nLength > GetData()->nAllocLength)

  0001a	83 78 f8 00	 cmp	 DWORD PTR [eax-8], 0
  0001e	7c 32		 jl	 SHORT $LN28@Empty

; 877  : 
; 878  : 		GetData()->nDataLength = nLength;

  00020	c7 40 f4 00 00
	00 00		 mov	 DWORD PTR [eax-12], 0

; 879  : 		m_pszData[nLength] = 0;

  00027	8b 06		 mov	 eax, DWORD PTR [esi]
  00029	5f		 pop	 edi

; 458  : 		}
; 459  : 	}

  0002a	5e		 pop	 esi

; 879  : 		m_pszData[nLength] = 0;

  0002b	c6 00 00	 mov	 BYTE PTR [eax], 0

; 458  : 		}
; 459  : 	}

  0002e	c3		 ret	 0
$LN3@Empty:

; 92   : 		if( _InterlockedDecrement( &nRefs ) <= 0 )

  0002f	83 c8 ff	 or	 eax, -1
  00032	f0 0f c1 01	 lock	  xadd	 DWORD PTR [ecx], eax
  00036	48		 dec	 eax
  00037	85 c0		 test	 eax, eax
  00039	7f 08		 jg	 SHORT $LN20@Empty

; 93   : 		{
; 94   : 			pStringMgr->Free( this );

  0003b	8b 0a		 mov	 ecx, DWORD PTR [edx]
  0003d	52		 push	 edx
  0003e	8b 01		 mov	 eax, DWORD PTR [ecx]
  00040	ff 50 04	 call	 DWORD PTR [eax+4]
$LN20@Empty:

; 449  : 		{
; 450  : 			// Don't reallocate a locked buffer that's shrinking
; 451  : 			SetLength( 0 );
; 452  : 		}
; 453  : 		else
; 454  : 		{
; 455  : 			pOldData->Release();
; 456  : 			CStringData* pNewData = pStringMgr->GetNilString();

  00043	8b 07		 mov	 eax, DWORD PTR [edi]
  00045	8b cf		 mov	 ecx, edi
  00047	ff 50 0c	 call	 DWORD PTR [eax+12]

; 457  : 			Attach( pNewData );

  0004a	83 c0 10	 add	 eax, 16			; 00000010H
  0004d	89 06		 mov	 DWORD PTR [esi], eax
$LN4@Empty:

; 458  : 		}
; 459  : 	}

  0004f	5f		 pop	 edi
  00050	5e		 pop	 esi
  00051	c3		 ret	 0
$LN28@Empty:

; 876  : 			AtlThrow(E_INVALIDARG);

  00052	68 57 00 07 80	 push	 -2147024809		; 80070057H
  00057	e8 00 00 00 00	 call	 ?AtlThrowImpl@ATL@@YGXJ@Z ; ATL::AtlThrowImpl
$LN26@Empty:
  0005c	cc		 int	 3
?Empty@?$CSimpleStringT@D$0A@@ATL@@QAEXXZ ENDP		; ATL::CSimpleStringT<char,0>::Empty
_TEXT	ENDS
; Function compile flags: /Ogtp
; File C:\Program Files\Microsoft Visual Studio\2022\Professional\VC\Tools\MSVC\14.44.35207\atlmfc\include\atlsimpstr.h
;	COMDAT ??1?$CSimpleStringT@D$0A@@ATL@@QAE@XZ
_TEXT	SEGMENT
??1?$CSimpleStringT@D$0A@@ATL@@QAE@XZ PROC		; ATL::CSimpleStringT<char,0>::~CSimpleStringT<char,0>, COMDAT
; _this$ = ecx

; 804  : 		return( reinterpret_cast< CStringData* >( m_pszData )-1 );

  00000	8b 11		 mov	 edx, DWORD PTR [ecx]

; 92   : 		if( _InterlockedDecrement( &nRefs ) <= 0 )

  00002	83 c8 ff	 or	 eax, -1

; 804  : 		return( reinterpret_cast< CStringData* >( m_pszData )-1 );

  00005	83 ea 10	 sub	 edx, 16			; 00000010H

; 92   : 		if( _InterlockedDecrement( &nRefs ) <= 0 )

  00008	f0 0f c1 42 0c	 lock	  xadd	 DWORD PTR [edx+12], eax
  0000d	48		 dec	 eax
  0000e	85 c0		 test	 eax, eax
  00010	7f 08		 jg	 SHORT $LN6@CSimpleStr

; 93   : 		{
; 94   : 			pStringMgr->Free( this );

  00012	8b 0a		 mov	 ecx, DWORD PTR [edx]
  00014	52		 push	 edx
  00015	8b 01		 mov	 eax, DWORD PTR [ecx]
  00017	ff 50 04	 call	 DWORD PTR [eax+4]
$LN6@CSimpleStr:

; 265  : 		CStringData* pData = GetData();
; 266  : 		pData->Release();
; 267  : 	}

  0001a	c3		 ret	 0
??1?$CSimpleStringT@D$0A@@ATL@@QAE@XZ ENDP		; ATL::CSimpleStringT<char,0>::~CSimpleStringT<char,0>
_TEXT	ENDS
; Function compile flags: /Ogtp
; File C:\Program Files\Microsoft Visual Studio\2022\Professional\VC\Tools\MSVC\14.44.35207\atlmfc\include\atlexcept.h
;	COMDAT ?AtlThrowImpl@ATL@@YGXJ@Z
_TEXT	SEGMENT
_hr$ = 8						; size = 4
?AtlThrowImpl@ATL@@YGXJ@Z PROC				; ATL::AtlThrowImpl, COMDAT

; 69   : {

  00000	55		 push	 ebp
  00001	8b ec		 mov	 ebp, esp

; 70   : 	ATLTRACE(atlTraceException, 0, _T("AtlThrow: hr = 0x%x\n"), hr );
; 71   : #ifdef _AFX
; 72   : 	if( hr == E_OUTOFMEMORY )

  00003	8b 45 08	 mov	 eax, DWORD PTR _hr$[ebp]
  00006	3d 0e 00 07 80	 cmp	 eax, -2147024882	; 8007000eH
  0000b	75 05		 jne	 SHORT $LN2@AtlThrowIm

; 73   : 	{
; 74   : 		AfxThrowMemoryException();

  0000d	e8 00 00 00 00	 call	 ?AfxThrowMemoryException@@YGXXZ ; AfxThrowMemoryException
$LN2@AtlThrowIm:

; 75   : 	}
; 76   : 	else
; 77   : 	{
; 78   : 		AfxThrowOleException( hr );

  00012	50		 push	 eax
  00013	e8 00 00 00 00	 call	 ?AfxThrowOleException@@YGXJ@Z ; AfxThrowOleException
$LN5@AtlThrowIm:
  00018	cc		 int	 3
?AtlThrowImpl@ATL@@YGXJ@Z ENDP				; ATL::AtlThrowImpl
_TEXT	ENDS
; Function compile flags: /Ogtp
; File C:\Program Files (x86)\Windows Kits\10\Include\10.0.26100.0\ucrt\stdio.h
;	COMDAT _sprintf
_TEXT	SEGMENT
__Buffer$ = 8						; size = 4
__Format$ = 12						; size = 4
_sprintf PROC						; COMDAT

; 1771 :     {

  00000	55		 push	 ebp
  00001	8b ec		 mov	 ebp, esp

; 1392 :         int const _Result = __stdio_common_vsprintf(

  00003	8d 45 10	 lea	 eax, DWORD PTR __Format$[ebp+4]
  00006	50		 push	 eax
  00007	6a 00		 push	 0
  00009	ff 75 0c	 push	 DWORD PTR __Format$[ebp]
  0000c	6a ff		 push	 -1
  0000e	ff 75 08	 push	 DWORD PTR __Buffer$[ebp]
  00011	e8 00 00 00 00	 call	 ___local_stdio_printf_options
  00016	8b 08		 mov	 ecx, DWORD PTR [eax]
  00018	ff 70 04	 push	 DWORD PTR [eax+4]
  0001b	83 c9 01	 or	 ecx, 1
  0001e	51		 push	 ecx
  0001f	e8 00 00 00 00	 call	 ___stdio_common_vsprintf

; 1393 :             _CRT_INTERNAL_LOCAL_PRINTF_OPTIONS | _CRT_INTERNAL_PRINTF_LEGACY_VSPRINTF_NULL_TERMINATION,
; 1394 :             _Buffer, _BufferCount, _Format, _Locale, _ArgList);
; 1395 : 
; 1396 :         return _Result < 0 ? -1 : _Result;

  00024	83 c9 ff	 or	 ecx, -1
  00027	83 c4 1c	 add	 esp, 28			; 0000001cH
  0002a	85 c0		 test	 eax, eax
  0002c	0f 48 c1	 cmovs	 eax, ecx

; 1772 :         int _Result;
; 1773 :         va_list _ArgList;
; 1774 :         __crt_va_start(_ArgList, _Format);
; 1775 : 
; 1776 :         _Result = _vsprintf_l(_Buffer, _Format, NULL, _ArgList);
; 1777 : 
; 1778 :         __crt_va_end(_ArgList);
; 1779 :         return _Result;
; 1780 :     }

  0002f	5d		 pop	 ebp
  00030	c3		 ret	 0
_sprintf ENDP
_TEXT	ENDS
; Function compile flags: /Ogtp
; File C:\Program Files (x86)\Windows Kits\10\Include\10.0.26100.0\ucrt\corecrt_stdio_config.h
;	COMDAT ___local_stdio_printf_options
_TEXT	SEGMENT
___local_stdio_printf_options PROC			; COMDAT

; 91   :         static unsigned __int64 _OptionsStorage;
; 92   :         return &_OptionsStorage;

  00000	b8 00 00 00 00	 mov	 eax, OFFSET ?_OptionsStorage@?1??__local_stdio_printf_options@@9@4_KA ; `__local_stdio_printf_options'::`2'::_OptionsStorage

; 93   :     }

  00005	c3		 ret	 0
___local_stdio_printf_options ENDP
_TEXT	ENDS
; Function compile flags: /Ogtp
; File C:\IAGOS\server\v18\Source\Source\_Common\MoverSkill.cpp
;	COMDAT ?__empty_global_delete@@YAXPAXI@Z
_TEXT	SEGMENT
___formal$ = 8						; size = 4
___formal$ = 12						; size = 4
?__empty_global_delete@@YAXPAXI@Z PROC			; __empty_global_delete, COMDAT

  00000	c2 00 00	 ret	 0
?__empty_global_delete@@YAXPAXI@Z ENDP			; __empty_global_delete
_TEXT	ENDS
; Function compile flags: /Ogtp
; File C:\IAGOS\server\v18\Source\Source\_Common\MoverSkill.cpp
;	COMDAT ?__empty_global_delete@@YAXPAX@Z
_TEXT	SEGMENT
___formal$ = 8						; size = 4
?__empty_global_delete@@YAXPAX@Z PROC			; __empty_global_delete, COMDAT

  00000	c2 00 00	 ret	 0
?__empty_global_delete@@YAXPAX@Z ENDP			; __empty_global_delete
_TEXT	ENDS
END
