; Listing generated by Microsoft (R) Optimizing Compiler Version 19.44.35225.0 

	TITLE	C:\IAGOS\server\v18\Source\Output\WorldServer\Release\MoverActEvent.obj
	.686P
	.XMM
	include listing.inc
	.model	flat

INCLUDELIB LIBCMT
INCLUDELIB OLDNAMES

CONST	SEGMENT
?piecewise_construct@std@@3Upiecewise_construct_t@1@B	ORG $+1 ; std::piecewise_construct
CONST	ENDS
PUBLIC	?__empty_global_delete@@YAXPAX@Z		; __empty_global_delete
PUBLIC	?__empty_global_delete@@YAXPAXI@Z		; __empty_global_delete
PUBLIC	___local_stdio_printf_options
PUBLIC	_sprintf
PUBLIC	??0D3DXVECTOR3@@QAE@XZ				; D3DXVECTOR3::D3DXVECTOR3
PUBLIC	??0_LogItemInfo@@QAE@XZ				; _LogItemInfo::_LogItemInfo
PUBLIC	?GetItemProp@CProject@@QAEPAUItemProp@@H@Z	; CProject::GetItemProp
PUBLIC	?UpdateMatrixBone@CModelObject@@QAEXXZ		; CModelObject::UpdateMatrixBone
PUBLIC	?GetEventPos@CModelObject@@QAEXPAUD3DXVECTOR3@@H@Z ; CModelObject::GetEventPos
PUBLIC	?GetMatrixBone@CModelObject@@QAEPAUD3DXMATRIX@@H@Z ; CModelObject::GetMatrixBone
PUBLIC	?IsFull@?$CItemContainer@VCItemElem@@@@QAEHPAVCItemElem@@PAUItemProp@@F@Z ; CItemContainer<CItemElem>::IsFull
PUBLIC	?GetPropA@CMover@@QAEPAUMoverProp@@XZ		; CMover::GetPropA
PUBLIC	?SubLootDropNotMob@CMover@@QAEHPAVCItem@@@Z	; CMover::SubLootDropNotMob
PUBLIC	?SubLootDropMobSingle@CMover@@QAEHPAVCItem@@@Z	; CMover::SubLootDropMobSingle
PUBLIC	?SubLootDropMobParty@CMover@@QAEHPAVCItem@@PAVCParty@@@Z ; CMover::SubLootDropMobParty
PUBLIC	?SubLootDropMob@CMover@@QAEHPAVCItem@@@Z	; CMover::SubLootDropMob
PUBLIC	?DoLoot@CMover@@QAEHPAVCItem@@@Z		; CMover::DoLoot
PUBLIC	?SubReferTime@CMover@@QAEXPAK0PAUItemProp@@PAUAddSkillProp@@@Z ; CMover::SubReferTime
PUBLIC	?ApplyParam@CMover@@QAEHPAVCCtrl@@PAUItemProp@@PAUAddSkillProp@@HH@Z ; CMover::ApplyParam
PUBLIC	?GetSkillProp@CMover@@UAEHPAPAUItemProp@@PAPAUAddSkillProp@@HKPBD@Z ; CMover::GetSkillProp
PUBLIC	?RemoveInvisible@CMover@@QAEXXZ			; CMover::RemoveInvisible
PUBLIC	?OnDamage@CMover@@QAEHHKPAV1@PBUD3DXVECTOR3@@K@Z ; CMover::OnDamage
PUBLIC	?SetCoolTime@CMover@@QAEXPAUAddSkillProp@@PBD@Z	; CMover::SetCoolTime
PUBLIC	?OnMeleeSkill@CMover@@QAEHHH@Z			; CMover::OnMeleeSkill
PUBLIC	?OnMagicSkill@CMover@@QAEHHH@Z			; CMover::OnMagicSkill
PUBLIC	?OnAttackRange@CMover@@QAEHXZ			; CMover::OnAttackRange
PUBLIC	?OnAttackMelee@CMover@@QAEHKPAV1@@Z		; CMover::OnAttackMelee
PUBLIC	?OnAttackMeleeContinue@CMover@@QAEHK@Z		; CMover::OnAttackMeleeContinue
PUBLIC	?OnAttackMelee_ClockWorks@CMover@@QAEXKPAV1@@Z	; CMover::OnAttackMelee_ClockWorks
PUBLIC	?OnAttackMelee_BigMuscle@CMover@@QAEXKPAV1@@Z	; CMover::OnAttackMelee_BigMuscle
PUBLIC	?OnAttackMelee_Krrr@CMover@@QAEXKPAV1@@Z	; CMover::OnAttackMelee_Krrr
PUBLIC	?OnAttackMelee_Bear@CMover@@QAEXKPAV1@@Z	; CMover::OnAttackMelee_Bear
PUBLIC	?OnAttackMelee_Meteonyker@CMover@@QAEXKPAV1@@Z	; CMover::OnAttackMelee_Meteonyker
PUBLIC	?OnAttackMagic@CMover@@QAEHXZ			; CMover::OnAttackMagic
PUBLIC	?OnAttackSP@CMover@@QAEHXZ			; CMover::OnAttackSP
PUBLIC	?OnActDrop@CMover@@QAEXXZ			; CMover::OnActDrop
PUBLIC	?OnActCollision@CMover@@QAEXXZ			; CMover::OnActCollision
PUBLIC	?OnActEndMeleeSkill@CMover@@QAEXXZ		; CMover::OnActEndMeleeSkill
PUBLIC	?OnActEndMagicSkill@CMover@@QAEXXZ		; CMover::OnActEndMagicSkill
PUBLIC	?OnActEndJump4@CMover@@QAEXXZ			; CMover::OnActEndJump4
PUBLIC	?OnActLanding@CMover@@QAEXXZ			; CMover::OnActLanding
PUBLIC	?OnActFMove@CMover@@QAEXXZ			; CMover::OnActFMove
PUBLIC	?OnActIALanding@CMover@@QAEXPAVCObj@@ABUD3DXVECTOR3@@@Z ; CMover::OnActIALanding
PUBLIC	?OnAttackStart@CMover@@QAEXPAV1@W4OBJMSG@@@Z	; CMover::OnAttackStart
PUBLIC	?IsLoot@CMover@@QAEHPAVCItem@@H@Z		; CMover::IsLoot
PUBLIC	?GetTickCount@CTickCount@@QAE_JXZ		; CTickCount::GetTickCount
PUBLIC	?IsLootSendText@@YAHPAUItemProp@@@Z		; IsLootSendText
PUBLIC	?_OptionsStorage@?1??__local_stdio_printf_options@@9@4_KA ; `__local_stdio_printf_options'::`2'::_OptionsStorage
PUBLIC	??_C@_00CNPNBAHC@@				; `string'
PUBLIC	??_C@_0BM@HMFGHCP@?$CFs?5min?3?$CFd?0?5max?3?$CFd?0?5index?3?$CFd@ ; `string'
PUBLIC	??_C@_0BI@BEIFNGEL@GetItemProp?5range_error@	; `string'
PUBLIC	??_C@_0BJ@GKPOBPPI@GetMoverProp?5range_error@	; `string'
PUBLIC	??_C@_0BE@OHDBLHOM@GetText?5range_error@	; `string'
PUBLIC	??_C@_05KKCIMGE@error@				; `string'
PUBLIC	??_C@_0N@NAIGPEGH@OnMeleeSkill@			; `string'
PUBLIC	??_C@_05MPOCIJBL@?$CFs?9?$CFs@			; `string'
PUBLIC	??_C@_0DB@HBBPMINL@szCall?5SetCoolTime?5?3?5?$CFd?5?$CFd?$LN?$LK?E?$LD?$MA@ ; `string'
PUBLIC	??_C@_0BF@MPKCELDK@CMover?3?3OnMagicSkill@	; `string'
PUBLIC	??_C@_0DO@MIGMHMLK@OnMagicSkill?5?3?5?$LN?$LK?E?$LD?G?A?$LH?S?$MA?P?$LB?b?5?$LN?G?F@ ; `string'
PUBLIC	??_C@_0N@GPEHOKLF@OnMagicSkill@			; `string'
PUBLIC	??_C@_0BI@NKGAIBCK@OnAttackMelee_BigMuscle@	; `string'
PUBLIC	??_C@_08IKHLBNOC@OnSfxHit@			; `string'
PUBLIC	??_C@_0BD@PLELFAFG@OnAttackMelee_Krrr@		; `string'
PUBLIC	??_C@_0BC@HLPOJCHF@SI_GEN_STUNSINGLE@		; `string'
PUBLIC	??_C@_0BJ@DLBDMEGD@OnAttackMelee_Meteonyker@	; `string'
PUBLIC	??_C@_0BD@CFPFEACI@OnAttackMelee_Bear@		; `string'
PUBLIC	??_C@_0CO@HAMCEPMB@CMover?3?3OnAttackSP?5?3?5?$CFs?$MA?G?5itemP@ ; `string'
PUBLIC	??_C@_04OEDFLLKD@?$CC?$CFs?$CC@			; `string'
PUBLIC	??_C@_01DGKLNCNG@R@				; `string'
PUBLIC	??_C@_06GKBINIEJ@GROUND@			; `string'
PUBLIC	??_C@_09DPACILDJ@?$CC?$CFs?$CC?5?$CC?$CFs?$CC@	; `string'
PUBLIC	??_C@_09KHPJMIO@?$CC?$CFs?$CFs?5?$CFs?$CC@	; `string'
PUBLIC	__real@3c8efa35
PUBLIC	__real@3e4ccccd
PUBLIC	__real@3f800000
PUBLIC	__real@3fa66666
PUBLIC	__real@3ff33333
PUBLIC	__real@40a00000
PUBLIC	__real@41200000
PUBLIC	__real@41700000
PUBLIC	__real@42480000
PUBLIC	__real@42652ee0
PUBLIC	__real@42c80000
PUBLIC	__real@43b40000
PUBLIC	__real@447a0000
PUBLIC	__xmm@41f00000000000000000000000000000
PUBLIC	__xmm@80000000800000008000000080000000
PUBLIC	__xmm@cdcdcdcdcdcdcdcdcdcdcdcdcdcdcdcd
EXTRN	___stdio_common_vsprintf:PROC
EXTRN	__imp__timeGetTime@0:PROC
EXTRN	_D3DXVec3Normalize@8:PROC
EXTRN	_D3DXVec3TransformCoord@12:PROC
EXTRN	_D3DXMatrixMultiply@12:PROC
EXTRN	?Error@@YAPBDPBDZZ:PROC				; Error
EXTRN	?GetLanguage@@YAHXZ:PROC			; GetLanguage
EXTRN	?UpdateMatrix@CObj@@QAEXXZ:PROC			; CObj::UpdateMatrix
EXTRN	?IsRangeObj@CObj@@QAEHPAV1@M@Z:PROC		; CObj::IsRangeObj
EXTRN	?Delete@CObj@@QAEXXZ:PROC			; CObj::Delete
EXTRN	?SetPos@CObj@@QAEXABUD3DXVECTOR3@@@Z:PROC	; CObj::SetPos
EXTRN	?SetScale@CObj@@QAEXABUD3DXVECTOR3@@@Z:PROC	; CObj::SetScale
EXTRN	?GetSkillProp@CCtrl@@UAEHPAPAUItemProp@@PAPAUAddSkillProp@@HKPBD@Z:PROC ; CCtrl::GetSkillProp
EXTRN	?ShootSkill@CCtrl@@QAEHPAV1@PAUItemProp@@PAUAddSkillProp@@@Z:PROC ; CCtrl::ShootSkill
EXTRN	?ApplySkill@CCtrl@@QAEXPAV1@PAUItemProp@@PAUAddSkillProp@@_NHHH@Z:PROC ; CCtrl::ApplySkill
EXTRN	?DoApplySkill@CCtrl@@QAEHPAV1@PAUItemProp@@PAUAddSkillProp@@_NHHH@Z:PROC ; CCtrl::DoApplySkill
EXTRN	?ApplySkillAround@CCtrl@@QAEXPAV1@HPAUItemProp@@PAUAddSkillProp@@_NHMH@Z:PROC ; CCtrl::ApplySkillAround
EXTRN	?SetIAObjLink@CCtrl@@QAEXPAVCShip@@@Z:PROC	; CCtrl::SetIAObjLink
EXTRN	?GetPartyQuest@CPartyQuestProcessor@@QAEPAU_PARTYQUESTELEM@@H@Z:PROC ; CPartyQuestProcessor::GetPartyQuest
EXTRN	?GetPartyQuestRect@CPartyQuestProcessor@@QAEPAU__PARTYQUESTRECT@@H@Z:PROC ; CPartyQuestProcessor::GetPartyQuestRect
EXTRN	?GetInstance@CPartyQuestProcessor@@SAPAV1@XZ:PROC ; CPartyQuestProcessor::GetInstance
EXTRN	?PtInQuestRect@CPartyQuestProcessor@@QAEHKABUD3DXVECTOR3@@@Z:PROC ; CPartyQuestProcessor::PtInQuestRect
EXTRN	?GetMover@CProject@@QAEPAVCMover@@K@Z:PROC	; CProject::GetMover
EXTRN	?AnimateBone@CMotion@@QAEXPAUD3DXMATRIX@@PAV1@MHHHM@Z:PROC ; CMotion::AnimateBone
EXTRN	?GetNextFrame@CModel@@QAEHXZ:PROC		; CModel::GetNextFrame
EXTRN	?GetPropA@CItemBase@@QAEPAUItemProp@@XZ:PROC	; CItemBase::GetPropA
EXTRN	?GetGold@CItemElem@@QAEHXZ:PROC			; CItemElem::GetGold
EXTRN	?IsLogable@CItemElem@@QAEHXZ:PROC		; CItemElem::IsLogable
EXTRN	?RemoveBuff@CMover@@QAEXGG@Z:PROC		; CMover::RemoveBuff
EXTRN	?SetDarkCover@CMover@@QAEHHK@Z:PROC		; CMover::SetDarkCover
EXTRN	?SetStun@CMover@@QAEHHK@Z:PROC			; CMover::SetStun
EXTRN	?SetPoison@CMover@@QAEHHKKKF@Z:PROC		; CMover::SetPoison
EXTRN	?SetDark@CMover@@QAEHHKH@Z:PROC			; CMover::SetDark
EXTRN	?SetBleeding@CMover@@QAEHHKKKF@Z:PROC		; CMover::SetBleeding
EXTRN	?RemoveDebuff@CMover@@QAEXK@Z:PROC		; CMover::RemoveDebuff
EXTRN	?RemoveBuffOne@CMover@@QAEXK@Z:PROC		; CMover::RemoveBuffOne
EXTRN	?RemoveBuffAll@CMover@@QAEXXZ:PROC		; CMover::RemoveBuffAll
EXTRN	?GetActiveHandItemProp@CMover@@QAEPAUItemProp@@H@Z:PROC ; CMover::GetActiveHandItemProp
EXTRN	?SetDestPos@CMover@@QAEXABUD3DXVECTOR3@@_NH@Z:PROC ; CMover::SetDestPos
EXTRN	?PostAIMsg@CMover@@QAEXKKKK@Z:PROC		; CMover::PostAIMsg
EXTRN	?IsDualWeapon@CMover@@QAEHXZ:PROC		; CMover::IsDualWeapon
EXTRN	?SetDestParam@CMover@@QAEXHHHH@Z:PROC		; CMover::SetDestParam
EXTRN	?ResetDestParam@CMover@@QAEXHHH@Z:PROC		; CMover::ResetDestParam
EXTRN	?GetAdjParam@CMover@@QAEHH@Z:PROC		; CMover::GetAdjParam
EXTRN	?GetSkillIdx@CMover@@QAEHK@Z:PROC		; CMover::GetSkillIdx
EXTRN	?GetName@CMover@@QAEPBDH@Z:PROC			; CMover::GetName
EXTRN	?IncManaPoint@CMover@@QAEXH@Z:PROC		; CMover::IncManaPoint
EXTRN	?IncFatiguePoint@CMover@@QAEXH@Z:PROC		; CMover::IncFatiguePoint
EXTRN	?GetDex@CMover@@QAEHXZ:PROC			; CMover::GetDex
EXTRN	?GetInt@CMover@@QAEHXZ:PROC			; CMover::GetInt
EXTRN	?GetSta@CMover@@QAEHXZ:PROC			; CMover::GetSta
EXTRN	?GetHitPoint@CMover@@QAEHXZ:PROC		; CMover::GetHitPoint
EXTRN	?GetMaxHitPoint@CMover@@QAEHXZ:PROC		; CMover::GetMaxHitPoint
EXTRN	?GetMaxManaPoint@CMover@@QAEHXZ:PROC		; CMover::GetMaxManaPoint
EXTRN	?GetMaxFatiguePoint@CMover@@QAEHXZ:PROC		; CMover::GetMaxFatiguePoint
EXTRN	?GetReqMp@CMover@@QAEHH@Z:PROC			; CMover::GetReqMp
EXTRN	?GetReqFp@CMover@@QAEHH@Z:PROC			; CMover::GetReqFp
EXTRN	?PickupGold@CMover@@QAEXHH@Z:PROC		; CMover::PickupGold
EXTRN	?IsValidArea@CMover@@QAEHPAV1@M@Z:PROC		; CMover::IsValidArea
EXTRN	?SendDamageAround@CMover@@QAEXHPAV1@HHMMM@Z:PROC ; CMover::SendDamageAround
EXTRN	?OnAttackSFX@CMover@@QAEXKHKHMMKH@Z:PROC	; CMover::OnAttackSFX
EXTRN	?CreateItem@CMover@@QAEHPAVCItemBase@@PAEPAFE@Z:PROC ; CMover::CreateItem
EXTRN	?Replace@CMover@@QAEHKKAAUD3DXVECTOR3@@W4REPLACE_TYPE@@H@Z:PROC ; CMover::Replace
EXTRN	?GetLandHeight@CWorld@@QAEMMM@Z:PROC		; CWorld::GetLandHeight
EXTRN	?IntersectObjLine@CWorld@@QAEHPAUD3DXVECTOR3@@ABU2@1HHH@Z:PROC ; CWorld::IntersectObjLine
EXTRN	?SendDamageAround@CWorld@@QAEXPBUD3DXVECTOR3@@HPAVCMover@@HHM@Z:PROC ; CWorld::SendDamageAround
EXTRN	?GetInstance@CMonsterSkill@@SAPAV1@XZ:PROC	; CMonsterSkill::GetInstance
EXTRN	?ApplySkill@CMonsterSkill@@QAEHPAVCMover@@0K@Z:PROC ; CMonsterSkill::ApplySkill
EXTRN	?SetNextSkill@CUserTaskBar@@QAEHPAVCUser@@@Z:PROC ; CUserTaskBar::SetNextSkill
EXTRN	?FindMember@CParty@@QAEHK@Z:PROC		; CParty::FindMember
EXTRN	?GetParty@CPartyMng@@QAEPAVCParty@@K@Z:PROC	; CPartyMng::GetParty
EXTRN	?AddDefinedText@CUser@@QAAXHPBDZZ:PROC		; CUser::AddDefinedText
EXTRN	?AddChatText@CUser@@QAAXHPBDZZ:PROC		; CUser::AddChatText
EXTRN	?AddDefinedText@CUser@@QAEXH@Z:PROC		; CUser::AddDefinedText
EXTRN	?AddQueryGetPos@CUser@@QAEXK@Z:PROC		; CUser::AddQueryGetPos
EXTRN	?GetUserByPlayerID@CUserMng@@QAEPAVCUser@@K@Z:PROC ; CUserMng::GetUserByPlayerID
EXTRN	?AddSetPos@CUserMng@@QAEXPAVCCtrl@@AAUD3DXVECTOR3@@@Z:PROC ; CUserMng::AddSetPos
EXTRN	?AddSetScale@CUserMng@@QAEXPAVCMover@@M@Z:PROC	; CUserMng::AddSetScale
EXTRN	?AddCreateSfxAllow@CUserMng@@QAEXPAVCMover@@KKUD3DXVECTOR3@@H@Z:PROC ; CUserMng::AddCreateSfxAllow
EXTRN	?AddPushPower@CUserMng@@QAEXPAVCMover@@UD3DXVECTOR3@@MMM@Z:PROC ; CUserMng::AddPushPower
EXTRN	?AddMoverCorr@CUserMng@@QAEXPAVCMover@@AAUD3DXVECTOR3@@1MKKKHHK_J@Z:PROC ; CUserMng::AddMoverCorr
EXTRN	?AddMoverCorr2@CUserMng@@QAEXPAVCMover@@AAUD3DXVECTOR3@@1MMMMKKKHHK_J@Z:PROC ; CUserMng::AddMoverCorr2
EXTRN	?ReplaceWorldArea@CUserMng@@QAEXKKKMMMHH@Z:PROC	; CUserMng::ReplaceWorldArea
EXTRN	?GetRevivalPosChao@CWorldMng@@QAEPAUREGIONELEM@@KPBD@Z:PROC ; CWorldMng::GetRevivalPosChao
EXTRN	?GetNearRevivalPosChao@CWorldMng@@QAEPAUREGIONELEM@@KAAUD3DXVECTOR3@@@Z:PROC ; CWorldMng::GetNearRevivalPosChao
EXTRN	?GetRevivalPos@CWorldMng@@QAEPAUREGIONELEM@@KPBD@Z:PROC ; CWorldMng::GetRevivalPos
EXTRN	?GetNearRevivalPos@CWorldMng@@QAEPAUREGIONELEM@@KAAUD3DXVECTOR3@@@Z:PROC ; CWorldMng::GetNearRevivalPos
EXTRN	?OnLogItem@CDPSrvr@@QAEXAAU_LogItemInfo@@PAVCItemElem@@H@Z:PROC ; CDPSrvr::OnLogItem
EXTRN	?GetInstance@CEventMonster@@SAPAV1@XZ:PROC	; CEventMonster::GetInstance
EXTRN	?SetEventMonster@CEventMonster@@QAEHK@Z:PROC	; CEventMonster::SetEventMonster
EXTRN	?IsPetAble@CEventMonster@@QAEHXZ:PROC		; CEventMonster::IsPetAble
EXTRN	?GetLootTime@CEventMonster@@QAEKXZ:PROC		; CEventMonster::GetLootTime
EXTRN	@__security_check_cookie@4:PROC
EXTRN	__ftol3:PROC
EXTRN	__libm_sse2_acos_precise:PROC
EXTRN	__libm_sse2_cos_precise:PROC
EXTRN	__libm_sse2_sin_precise:PROC
EXTRN	_memset:PROC
EXTRN	?g_next@@3KA:DWORD				; g_next
EXTRN	?m_pObjActive@CObj@@2PAV1@A:DWORD		; CObj::m_pObjActive
EXTRN	?prj@@3VCProject@@A:BYTE			; prj
EXTRN	?g_tmCurrent@@3KA:DWORD				; g_tmCurrent
EXTRN	?g_TickCount@@3VCTickCount@@A:BYTE		; g_TickCount
EXTRN	?g_uIdofMulti@@3KA:DWORD			; g_uIdofMulti
EXTRN	?g_UserMng@@3VCUserMng@@A:BYTE			; g_UserMng
EXTRN	?g_WorldMng@@3VCWorldMng@@A:BYTE		; g_WorldMng
EXTRN	?g_DPSrvr@@3VCDPSrvr@@A:BYTE			; g_DPSrvr
EXTRN	?g_PartyMng@@3VCPartyMng@@A:BYTE		; g_PartyMng
EXTRN	___security_cookie:DWORD
EXTRN	__fltused:DWORD
EXTRN	__tls_array:DWORD
EXTRN	__tls_index:DWORD
;	COMDAT ?_OptionsStorage@?1??__local_stdio_printf_options@@9@4_KA
_BSS	SEGMENT
?_OptionsStorage@?1??__local_stdio_printf_options@@9@4_KA DQ 01H DUP (?) ; `__local_stdio_printf_options'::`2'::_OptionsStorage
_BSS	ENDS
;	COMDAT ?v3OldPos@?BD@??OnAttackMelee_BigMuscle@CMover@@QAEXKPAV2@@Z@4UD3DXVECTOR3@@A
_BSS	SEGMENT
?v3OldPos@?BD@??OnAttackMelee_BigMuscle@CMover@@QAEXKPAV2@@Z@4UD3DXVECTOR3@@A DB 0cH DUP (?) ; `CMover::OnAttackMelee_BigMuscle'::`19'::v3OldPos
_BSS	ENDS
;	COMDAT ?vLocal@?BC@??OnAttackMelee_Krrr@CMover@@QAEXKPAV2@@Z@4UD3DXVECTOR3@@A
_BSS	SEGMENT
?vLocal@?BC@??OnAttackMelee_Krrr@CMover@@QAEXKPAV2@@Z@4UD3DXVECTOR3@@A DB 0cH DUP (?) ; `CMover::OnAttackMelee_Krrr'::`18'::vLocal
_BSS	ENDS
;	COMDAT __xmm@cdcdcdcdcdcdcdcdcdcdcdcdcdcdcdcd
CONST	SEGMENT
__xmm@cdcdcdcdcdcdcdcdcdcdcdcdcdcdcdcd DB 0cdH, 0cdH, 0cdH, 0cdH, 0cdH, 0cdH
	DB	0cdH, 0cdH, 0cdH, 0cdH, 0cdH, 0cdH, 0cdH, 0cdH, 0cdH, 0cdH
CONST	ENDS
;	COMDAT __xmm@80000000800000008000000080000000
CONST	SEGMENT
__xmm@80000000800000008000000080000000 DB 00H, 00H, 00H, 080H, 00H, 00H, 00H
	DB	080H, 00H, 00H, 00H, 080H, 00H, 00H, 00H, 080H
CONST	ENDS
;	COMDAT __xmm@41f00000000000000000000000000000
CONST	SEGMENT
__xmm@41f00000000000000000000000000000 DB 00H, 00H, 00H, 00H, 00H, 00H, 00H
	DB	00H, 00H, 00H, 00H, 00H, 00H, 00H, 0f0H, 'A'
CONST	ENDS
;	COMDAT __real@447a0000
CONST	SEGMENT
__real@447a0000 DD 0447a0000r			; 1000
CONST	ENDS
;	COMDAT __real@43b40000
CONST	SEGMENT
__real@43b40000 DD 043b40000r			; 360
CONST	ENDS
;	COMDAT __real@42c80000
CONST	SEGMENT
__real@42c80000 DD 042c80000r			; 100
CONST	ENDS
;	COMDAT __real@42652ee0
CONST	SEGMENT
__real@42652ee0 DD 042652ee0r			; 57.2958
CONST	ENDS
;	COMDAT __real@42480000
CONST	SEGMENT
__real@42480000 DD 042480000r			; 50
CONST	ENDS
;	COMDAT __real@41700000
CONST	SEGMENT
__real@41700000 DD 041700000r			; 15
CONST	ENDS
;	COMDAT __real@41200000
CONST	SEGMENT
__real@41200000 DD 041200000r			; 10
CONST	ENDS
;	COMDAT __real@40a00000
CONST	SEGMENT
__real@40a00000 DD 040a00000r			; 5
CONST	ENDS
;	COMDAT __real@3ff33333
CONST	SEGMENT
__real@3ff33333 DD 03ff33333r			; 1.9
CONST	ENDS
;	COMDAT __real@3fa66666
CONST	SEGMENT
__real@3fa66666 DD 03fa66666r			; 1.3
CONST	ENDS
;	COMDAT __real@3f800000
CONST	SEGMENT
__real@3f800000 DD 03f800000r			; 1
CONST	ENDS
;	COMDAT __real@3e4ccccd
CONST	SEGMENT
__real@3e4ccccd DD 03e4ccccdr			; 0.2
CONST	ENDS
;	COMDAT __real@3c8efa35
CONST	SEGMENT
__real@3c8efa35 DD 03c8efa35r			; 0.0174533
CONST	ENDS
;	COMDAT ??_C@_09KHPJMIO@?$CC?$CFs?$CFs?5?$CFs?$CC@
CONST	SEGMENT
??_C@_09KHPJMIO@?$CC?$CFs?$CFs?5?$CFs?$CC@ DB '"%s%s %s"', 00H ; `string'
CONST	ENDS
;	COMDAT ??_C@_09DPACILDJ@?$CC?$CFs?$CC?5?$CC?$CFs?$CC@
CONST	SEGMENT
??_C@_09DPACILDJ@?$CC?$CFs?$CC?5?$CC?$CFs?$CC@ DB '"%s" "%s"', 00H ; `string'
CONST	ENDS
;	COMDAT ??_C@_06GKBINIEJ@GROUND@
CONST	SEGMENT
??_C@_06GKBINIEJ@GROUND@ DB 'GROUND', 00H		; `string'
CONST	ENDS
;	COMDAT ??_C@_01DGKLNCNG@R@
CONST	SEGMENT
??_C@_01DGKLNCNG@R@ DB 'R', 00H				; `string'
CONST	ENDS
;	COMDAT ??_C@_04OEDFLLKD@?$CC?$CFs?$CC@
CONST	SEGMENT
??_C@_04OEDFLLKD@?$CC?$CFs?$CC@ DB '"%s"', 00H		; `string'
CONST	ENDS
;	COMDAT ??_C@_0CO@HAMCEPMB@CMover?3?3OnAttackSP?5?3?5?$CFs?$MA?G?5itemP@
CONST	SEGMENT
??_C@_0CO@HAMCEPMB@CMover?3?3OnAttackSP?5?3?5?$CFs?$MA?G?5itemP@ DB 'CMov'
	DB	'er::OnAttackSP : %s', 0c0H, 0c7H, ' itemProp', 0c0H, 0ccH, ' '
	DB	0beH, 0f8H, 0b4H, 0d9H, '. %d', 00H		; `string'
CONST	ENDS
;	COMDAT ??_C@_0BD@CFPFEACI@OnAttackMelee_Bear@
CONST	SEGMENT
??_C@_0BD@CFPFEACI@OnAttackMelee_Bear@ DB 'OnAttackMelee_Bear', 00H ; `string'
CONST	ENDS
;	COMDAT ??_C@_0BJ@DLBDMEGD@OnAttackMelee_Meteonyker@
CONST	SEGMENT
??_C@_0BJ@DLBDMEGD@OnAttackMelee_Meteonyker@ DB 'OnAttackMelee_Meteonyker'
	DB	00H						; `string'
CONST	ENDS
;	COMDAT ??_C@_0BC@HLPOJCHF@SI_GEN_STUNSINGLE@
CONST	SEGMENT
??_C@_0BC@HLPOJCHF@SI_GEN_STUNSINGLE@ DB 'SI_GEN_STUNSINGLE', 00H ; `string'
CONST	ENDS
;	COMDAT ??_C@_0BD@PLELFAFG@OnAttackMelee_Krrr@
CONST	SEGMENT
??_C@_0BD@PLELFAFG@OnAttackMelee_Krrr@ DB 'OnAttackMelee_Krrr', 00H ; `string'
CONST	ENDS
;	COMDAT ??_C@_08IKHLBNOC@OnSfxHit@
CONST	SEGMENT
??_C@_08IKHLBNOC@OnSfxHit@ DB 'OnSfxHit', 00H		; `string'
CONST	ENDS
;	COMDAT ??_C@_0BI@NKGAIBCK@OnAttackMelee_BigMuscle@
CONST	SEGMENT
??_C@_0BI@NKGAIBCK@OnAttackMelee_BigMuscle@ DB 'OnAttackMelee_BigMuscle', 00H ; `string'
CONST	ENDS
;	COMDAT ??_C@_0N@GPEHOKLF@OnMagicSkill@
CONST	SEGMENT
??_C@_0N@GPEHOKLF@OnMagicSkill@ DB 'OnMagicSkill', 00H	; `string'
CONST	ENDS
;	COMDAT ??_C@_0DO@MIGMHMLK@OnMagicSkill?5?3?5?$LN?$LK?E?$LD?G?A?$LH?S?$MA?P?$LB?b?5?$LN?G?F@
CONST	SEGMENT
??_C@_0DO@MIGMHMLK@OnMagicSkill?5?3?5?$LN?$LK?E?$LD?G?A?$LH?S?$MA?P?$LB?b?5?$LN?G?F@ DB 'O'
	DB	'nMagicSkill : ', 0bdH, 0baH, 0c5H, 0b3H, 0c7H, 0c1H, 0b7H, 0d3H
	DB	0c0H, 0d0H, 0b1H, 0e2H, ' ', 0bdH, 0c7H, 0c6H, 0d0H, 0c7H, 0d4H
	DB	'. ', 0c7H, 0f6H, 0c0H, 0e7H, 0c1H, 0f8H, 0c7H, 0e0H, 0c1H, 0dfH
	DB	0c0H, 0ceH, ' Motion=%d %d', 00H		; `string'
CONST	ENDS
;	COMDAT ??_C@_0BF@MPKCELDK@CMover?3?3OnMagicSkill@
CONST	SEGMENT
??_C@_0BF@MPKCELDK@CMover?3?3OnMagicSkill@ DB 'CMover::OnMagicSkill', 00H ; `string'
CONST	ENDS
;	COMDAT ??_C@_0DB@HBBPMINL@szCall?5SetCoolTime?5?3?5?$CFd?5?$CFd?$LN?$LK?E?$LD?$MA@
CONST	SEGMENT
??_C@_0DB@HBBPMINL@szCall?5SetCoolTime?5?3?5?$CFd?5?$CFd?$LN?$LK?E?$LD?$MA@ DB 's'
	DB	'zCall SetCoolTime : %d %d', 0bdH, 0baH, 0c5H, 0b3H, 0c0H, 0bbH
	DB	' ', 0c3H, 0a3H, 0c0H, 0bbH, ' ', 0bcH, 0f6H, ' ', 0beH, 0f8H, 0c0H
	DB	0bdH, ' %s', 00H				; `string'
CONST	ENDS
;	COMDAT ??_C@_05MPOCIJBL@?$CFs?9?$CFs@
CONST	SEGMENT
??_C@_05MPOCIJBL@?$CFs?9?$CFs@ DB '%s-%s', 00H		; `string'
CONST	ENDS
;	COMDAT ??_C@_0N@NAIGPEGH@OnMeleeSkill@
CONST	SEGMENT
??_C@_0N@NAIGPEGH@OnMeleeSkill@ DB 'OnMeleeSkill', 00H	; `string'
CONST	ENDS
;	COMDAT ??_C@_05KKCIMGE@error@
CONST	SEGMENT
??_C@_05KKCIMGE@error@ DB 'error', 00H			; `string'
CONST	ENDS
;	COMDAT ??_C@_0BE@OHDBLHOM@GetText?5range_error@
CONST	SEGMENT
??_C@_0BE@OHDBLHOM@GetText?5range_error@ DB 'GetText range_error', 00H ; `string'
CONST	ENDS
;	COMDAT ??_C@_0BJ@GKPOBPPI@GetMoverProp?5range_error@
CONST	SEGMENT
??_C@_0BJ@GKPOBPPI@GetMoverProp?5range_error@ DB 'GetMoverProp range_erro'
	DB	'r', 00H					; `string'
CONST	ENDS
;	COMDAT ??_C@_0BI@BEIFNGEL@GetItemProp?5range_error@
CONST	SEGMENT
??_C@_0BI@BEIFNGEL@GetItemProp?5range_error@ DB 'GetItemProp range_error', 00H ; `string'
CONST	ENDS
;	COMDAT ??_C@_0BM@HMFGHCP@?$CFs?5min?3?$CFd?0?5max?3?$CFd?0?5index?3?$CFd@
CONST	SEGMENT
??_C@_0BM@HMFGHCP@?$CFs?5min?3?$CFd?0?5max?3?$CFd?0?5index?3?$CFd@ DB '%s'
	DB	' min:%d, max:%d, index:%d', 00H		; `string'
CONST	ENDS
;	COMDAT ??_C@_00CNPNBAHC@@
CONST	SEGMENT
??_C@_00CNPNBAHC@@ DB 00H				; `string'
CONST	ENDS
; Function compile flags: /Ogtp
; File C:\IAGOS\server\v18\Source\Source\_Common\MoverActEvent.cpp
;	COMDAT ?IsLootSendText@@YAHPAUItemProp@@@Z
_TEXT	SEGMENT
_pItemProp$ = 8						; size = 4
?IsLootSendText@@YAHPAUItemProp@@@Z PROC		; IsLootSendText, COMDAT

; 45   : {

  00000	55		 push	 ebp
  00001	8b ec		 mov	 ebp, esp

; 46   : 	if( pItemProp == NULL )

  00003	8b 4d 08	 mov	 ecx, DWORD PTR _pItemProp$[ebp]
  00006	85 c9		 test	 ecx, ecx
  00008	74 1b		 je	 SHORT $LN4@IsLootSend

; 47   : 		return FALSE;
; 48   : 
; 49   : 	if( pItemProp->dwItemKind1 == IK1_GOLD    ||
; 50   : 		pItemProp->dwItemKind1 == IK1_GENERAL ||
; 51   : 		pItemProp->dwItemKind1 == IK1_SYSTEM  ||

  0000a	8b 49 70	 mov	 ecx, DWORD PTR [ecx+112]
  0000d	85 c9		 test	 ecx, ecx
  0000f	74 14		 je	 SHORT $LN4@IsLootSend
  00011	83 f9 03	 cmp	 ecx, 3
  00014	74 0f		 je	 SHORT $LN4@IsLootSend
  00016	83 f9 05	 cmp	 ecx, 5
  00019	74 0a		 je	 SHORT $LN4@IsLootSend
  0001b	33 c0		 xor	 eax, eax
  0001d	83 f9 04	 cmp	 ecx, 4
  00020	0f 95 c0	 setne	 al

; 54   : 
; 55   : 	return TRUE;
; 56   : }

  00023	5d		 pop	 ebp
  00024	c3		 ret	 0
$LN4@IsLootSend:

; 52   : 		pItemProp->dwItemKind1 == IK1_RIDE        )
; 53   : 		return FALSE;

  00025	33 c0		 xor	 eax, eax

; 54   : 
; 55   : 	return TRUE;
; 56   : }

  00027	5d		 pop	 ebp
  00028	c3		 ret	 0
?IsLootSendText@@YAHPAUItemProp@@@Z ENDP		; IsLootSendText
_TEXT	ENDS
; Function compile flags: /Ogtp
; File C:\IAGOS\server\v18\Source\Source\_Network\Misc\Include\tickcount.h
;	COMDAT ?GetTickCount@CTickCount@@QAE_JXZ
_TEXT	SEGMENT
?GetTickCount@CTickCount@@QAE_JXZ PROC			; CTickCount::GetTickCount, COMDAT
; _this$ = ecx

; 51   : {

  00000	56		 push	 esi
  00001	8b f1		 mov	 esi, ecx

; 52   : 	m_dwOffset	= timeGetTime();

  00003	ff 15 00 00 00
	00		 call	 DWORD PTR __imp__timeGetTime@0
  00009	89 46 0c	 mov	 DWORD PTR [esi+12], eax

; 53   : 	return( m_nStart + ( m_dwOffset - m_dwBase ) * 10000 );

  0000c	33 d2		 xor	 edx, edx
  0000e	2b 46 08	 sub	 eax, DWORD PTR [esi+8]
  00011	69 c0 10 27 00
	00		 imul	 eax, eax, 10000
  00017	03 06		 add	 eax, DWORD PTR [esi]
  00019	13 56 04	 adc	 edx, DWORD PTR [esi+4]
  0001c	5e		 pop	 esi

; 54   : }

  0001d	c3		 ret	 0
?GetTickCount@CTickCount@@QAE_JXZ ENDP			; CTickCount::GetTickCount
_TEXT	ENDS
; Function compile flags: /Ogtp
; File C:\IAGOS\server\v18\Source\Source\_Common\MoverActEvent.cpp
; File C:\IAGOS\server\v18\Source\Source\_Common\Obj.h
; File C:\IAGOS\server\v18\Source\Source\_Common\MoverActEvent.cpp
; File C:\IAGOS\server\v18\Source\Source\_Common\Obj.h
; File C:\IAGOS\server\v18\Source\Source\_Common\MoverActEvent.cpp
; File C:\IAGOS\server\v18\Source\Source\_Common\Obj.h
; File C:\IAGOS\server\v18\Source\Source\_Common\MoverActEvent.cpp
; File C:\IAGOS\server\v18\Source\Source\_Common\Project.h
; File C:\IAGOS\server\v18\Source\Source\_Common\Item.h
; File C:\IAGOS\server\v18\Source\Source\_Common\Project.h
; File C:\IAGOS\server\v18\Source\Source\_Common\data.h
; File C:\IAGOS\server\v18\Source\Source\_Common\Project.h
; File C:\IAGOS\server\v18\Source\Source\_Common\MoverActEvent.cpp
;	COMDAT ?IsLoot@CMover@@QAEHPAVCItem@@H@Z
_TEXT	SEGMENT
_this$1$ = -4						; size = 4
_pItem$ = 8						; size = 4
_bPet$ = 12						; size = 4
?IsLoot@CMover@@QAEHPAVCItem@@H@Z PROC			; CMover::IsLoot, COMDAT
; _this$ = ecx

; 2265 : {

  00000	55		 push	 ebp
  00001	8b ec		 mov	 ebp, esp
  00003	51		 push	 ecx
  00004	53		 push	 ebx
  00005	56		 push	 esi
  00006	57		 push	 edi
; File C:\IAGOS\server\v18\Source\Source\_Common\Obj.h

; 180  : 	BOOL			IsDelete()	{ return (m_dwFlags & OBJ_FLAG_DELETE);  }

  00007	8b 7d 08	 mov	 edi, DWORD PTR _pItem$[ebp]
; File C:\IAGOS\server\v18\Source\Source\_Common\MoverActEvent.cpp

; 2265 : {

  0000a	8b d9		 mov	 ebx, ecx

; 2266 : 	BOOL bTake	= FALSE;

  0000c	33 f6		 xor	 esi, esi
  0000e	89 5d fc	 mov	 DWORD PTR _this$1$[ebp], ebx
; File C:\IAGOS\server\v18\Source\Source\_Common\Obj.h

; 180  : 	BOOL			IsDelete()	{ return (m_dwFlags & OBJ_FLAG_DELETE);  }

  00011	f6 47 04 01	 test	 BYTE PTR [edi+4], 1
; File C:\IAGOS\server\v18\Source\Source\_Common\MoverActEvent.cpp

; 2268 : 	if( pItem->IsDelete() || ( pItem->m_idHolder != 0 && pItem->m_idHolder != m_idPlayer ) )

  00015	0f 85 54 01 00
	00		 jne	 $LN3@IsLoot
  0001b	8b 87 34 02 00
	00		 mov	 eax, DWORD PTR [edi+564]
  00021	85 c0		 test	 eax, eax
  00023	74 0c		 je	 SHORT $LN2@IsLoot
  00025	3b 83 34 02 00
	00		 cmp	 eax, DWORD PTR [ebx+564]
  0002b	0f 85 3e 01 00
	00		 jne	 $LN3@IsLoot
$LN2@IsLoot:

; 2269 : 	{
; 2270 : 		return bTake;
; 2271 : 	}
; 2272 : 
; 2273 : 	if( pItem->m_idOwn != NULL_ID )		// 아이템에 주인이 있을때

  00031	8b 87 38 02 00
	00		 mov	 eax, DWORD PTR [edi+568]
  00037	83 f8 ff	 cmp	 eax, -1
  0003a	74 3a		 je	 SHORT $LN4@IsLoot

; 2274 : 	{
; 2275 : 		// 일반적으로 떨어진 아이템.
; 2276 : 		CMover *pOther = prj.GetMover( pItem->m_idOwn );		// pItem을 집을 권한이 있는사람.(가령...막타)

  0003c	50		 push	 eax
  0003d	b9 00 00 00 00	 mov	 ecx, OFFSET ?prj@@3VCProject@@A ; prj
  00042	e8 00 00 00 00	 call	 ?GetMover@CProject@@QAEPAVCMover@@K@Z ; CProject::GetMover
; File C:\IAGOS\server\v18\Source\Source\_Common\Obj.h

; 327  : 	return pObj && ( pObj->IsDelete() == FALSE ); 

  00047	85 c0		 test	 eax, eax
  00049	74 18		 je	 SHORT $LN6@IsLoot

; 180  : 	BOOL			IsDelete()	{ return (m_dwFlags & OBJ_FLAG_DELETE);  }

  0004b	f6 40 04 01	 test	 BYTE PTR [eax+4], 1

; 327  : 	return pObj && ( pObj->IsDelete() == FALSE ); 

  0004f	75 12		 jne	 SHORT $LN6@IsLoot
; File C:\IAGOS\server\v18\Source\Source\_Common\MoverActEvent.cpp

; 2279 : 			if( m_idparty && (pOther->m_idparty == m_idparty) )		// 파티가 있고 나랑 같은 파티원이면 줏을수 있어요~~~ ㅋㅋㅋ

  00051	8b 8b 10 07 00
	00		 mov	 ecx, DWORD PTR [ebx+1808]
  00057	85 c9		 test	 ecx, ecx
  00059	74 0d		 je	 SHORT $LN7@IsLoot
  0005b	39 88 10 07 00
	00		 cmp	 DWORD PTR [eax+1808], ecx
  00061	75 05		 jne	 SHORT $LN7@IsLoot
$LN6@IsLoot:

; 2280 : 				bTake = TRUE;
; 2281 : 		} else
; 2282 : 			bTake = TRUE;		// idOwn이 Invalid상태면 아무나 줏을 수 있음.
; 2283 : 		
; 2284 : 		if( pItem->m_idOwn == GetId() )		// 아이템의 소유권자면 집을 수 있다.

  00063	be 01 00 00 00	 mov	 esi, 1
$LN7@IsLoot:
  00068	8b 87 38 02 00
	00		 mov	 eax, DWORD PTR [edi+568]
  0006e	3b 83 bc 01 00
	00		 cmp	 eax, DWORD PTR [ebx+444]
  00074	75 05		 jne	 SHORT $LN5@IsLoot
$LN4@IsLoot:

; 2285 : 			bTake = TRUE;
; 2286 : 		
; 2287 : 	} else
; 2288 : 		bTake = TRUE;	// 주인이 없는거면 아무나 줏을수 있다.
; 2289 : 
; 2290 : 	DWORD dwTime	= g_tmCurrent;

  00076	be 01 00 00 00	 mov	 esi, 1
$LN5@IsLoot:

; 2291 : #ifdef __EVENT_MONSTER
; 2292 : 	DWORD dwMonsterId = pItem->m_IdEventMonster;

  0007b	8b 87 44 02 00
	00		 mov	 eax, DWORD PTR [edi+580]
  00081	8b 1d 00 00 00
	00		 mov	 ebx, DWORD PTR ?g_tmCurrent@@3KA ; g_tmCurrent

; 2293 : 	if( dwMonsterId != NULL_ID && CEventMonster::GetInstance()->SetEventMonster( dwMonsterId ) )

  00087	83 f8 ff	 cmp	 eax, -1
  0008a	74 51		 je	 SHORT $LN10@IsLoot
  0008c	50		 push	 eax
  0008d	e8 00 00 00 00	 call	 ?GetInstance@CEventMonster@@SAPAV1@XZ ; CEventMonster::GetInstance
  00092	8b c8		 mov	 ecx, eax
  00094	e8 00 00 00 00	 call	 ?SetEventMonster@CEventMonster@@QAEHK@Z ; CEventMonster::SetEventMonster
  00099	85 c0		 test	 eax, eax
  0009b	74 40		 je	 SHORT $LN10@IsLoot

; 2294 : 	{
; 2295 : 		DWORD dwLootTime = CEventMonster::GetInstance()->GetLootTime();

  0009d	e8 00 00 00 00	 call	 ?GetInstance@CEventMonster@@SAPAV1@XZ ; CEventMonster::GetInstance
  000a2	8b c8		 mov	 ecx, eax
  000a4	e8 00 00 00 00	 call	 ?GetLootTime@CEventMonster@@QAEKXZ ; CEventMonster::GetLootTime

; 2296 : 		if( (dwTime - pItem->m_dwDropTime) >= (DWORD)( SEC(dwLootTime) ) )

  000a9	2b 9f 3c 02 00
	00		 sub	 ebx, DWORD PTR [edi+572]
  000af	b9 01 00 00 00	 mov	 ecx, 1
  000b4	69 c0 e8 03 00
	00		 imul	 eax, eax, 1000
  000ba	3b d8		 cmp	 ebx, eax
  000bc	0f 43 f1	 cmovae	 esi, ecx

; 2297 : 			bTake = TRUE;
; 2298 : 		
; 2299 : 		if( bPet && !CEventMonster::GetInstance()->IsPetAble() )

  000bf	83 7d 0c 00	 cmp	 DWORD PTR _bPet$[ebp], 0
  000c3	0f 84 9b 00 00
	00		 je	 $LN17@IsLoot
  000c9	e8 00 00 00 00	 call	 ?GetInstance@CEventMonster@@SAPAV1@XZ ; CEventMonster::GetInstance
  000ce	8b c8		 mov	 ecx, eax
  000d0	e8 00 00 00 00	 call	 ?IsPetAble@CEventMonster@@QAEHXZ ; CEventMonster::IsPetAble
  000d5	85 c0		 test	 eax, eax
  000d7	75 1e		 jne	 SHORT $LN42@IsLoot

; 2300 : 			bTake = FALSE;

  000d9	33 f6		 xor	 esi, esi

; 2301 : 	}

  000db	eb 1a		 jmp	 SHORT $LN42@IsLoot
$LN10@IsLoot:

; 2302 : 	else
; 2303 : #endif // __EVENT_MONSTER
; 2304 : #if __VER >= 9 // __S_9_ADD
; 2305 : 	if( (dwTime - pItem->m_dwDropTime) >= SEC(7) )	// 7초가 지난건 아무나 줏을 수 있다.

  000dd	2b 9f 3c 02 00
	00		 sub	 ebx, DWORD PTR [edi+572]
  000e3	b8 01 00 00 00	 mov	 eax, 1
  000e8	81 fb 58 1b 00
	00		 cmp	 ebx, 7000		; 00001b58H
  000ee	0f 43 f0	 cmovae	 esi, eax

; 2306 : #else // __S_9_ADD
; 2307 : 	if( (dwTime - pItem->m_dwDropTime) >= SEC(40) )	// 40초가 지난건 아무나 줏을 수 있다.
; 2308 : #endif // __S_9_ADD
; 2309 : 		bTake = TRUE;
; 2310 : 
; 2311 : 	// 펫은 리스폰된 아이템을 집을수 없음.
; 2312 : 	if( bPet && bTake )

  000f1	83 7d 0c 00	 cmp	 DWORD PTR _bPet$[ebp], 0
  000f5	74 6d		 je	 SHORT $LN17@IsLoot
$LN42@IsLoot:
  000f7	85 f6		 test	 esi, esi
  000f9	74 69		 je	 SHORT $LN17@IsLoot

; 2313 : 	{
; 2314 : 		if( 0 < ((CCtrl*)pItem)->m_lRespawn )
; 2315 : 			bTake = FALSE;
; 2316 : #ifdef __JEFF_11
; 2317 : 		// 소지품이 가득 차서 해당 아이템을 획득할 수 없다
; 2318 : 		CItemElem* pItemElem	= (CItemElem*)pItem->m_pItemBase;

  000fb	33 c0		 xor	 eax, eax
  000fd	39 87 04 02 00
	00		 cmp	 DWORD PTR [edi+516], eax
  00103	8b bf 30 02 00
	00		 mov	 edi, DWORD PTR [edi+560]
  00109	0f 4e c6	 cmovle	 eax, esi
  0010c	8b f0		 mov	 esi, eax
; File C:\IAGOS\server\v18\Source\Source\_Common\Project.h

; 1389 : 	VERIFY_RANGE_ASSERT( nIndex, 0, m_aPropItem.GetSize(), "GetItemProp range_error", NULL );

  0010e	a1 40 02 00 00	 mov	 eax, DWORD PTR ?prj@@3VCProject@@A+576
; File C:\IAGOS\server\v18\Source\Source\_Common\Item.h

; 230  : 	ItemProp*	GetProp()	{	return prj.GetItemProp( m_dwItemId );	}

  00113	8b 4f 0c	 mov	 ecx, DWORD PTR [edi+12]
; File C:\IAGOS\server\v18\Source\Source\_Common\Project.h

; 1389 : 	VERIFY_RANGE_ASSERT( nIndex, 0, m_aPropItem.GetSize(), "GetItemProp range_error", NULL );

  00116	85 c9		 test	 ecx, ecx
  00118	78 10		 js	 SHORT $LN34@IsLoot
  0011a	3b c8		 cmp	 ecx, eax
  0011c	7d 0c		 jge	 SHORT $LN34@IsLoot
; File C:\IAGOS\server\v18\Source\Source\_Common\data.h

; 270  : 	if( dwIndex >= (DWORD)m_nMaxIndex )

  0011e	73 20		 jae	 SHORT $LN60@IsLoot

; 271  : 		return NULL;
; 272  : 	return (T*) m_apOffset[ dwIndex ];

  00120	a1 30 02 00 00	 mov	 eax, DWORD PTR ?prj@@3VCProject@@A+560
  00125	8b 0c 88	 mov	 ecx, DWORD PTR [eax+ecx*4]
; File C:\IAGOS\server\v18\Source\Source\_Common\Project.h

; 1390 : 	return m_aPropItem.GetAt( nIndex ); 

  00128	eb 18		 jmp	 SHORT $LN29@IsLoot
$LN34@IsLoot:

; 579  : 	LPCTSTR szErr = Error( _T( "%s min:%d, max:%d, index:%d" ), szMsg, nMin, nMax, nIndex ); 

  0012a	51		 push	 ecx
  0012b	50		 push	 eax
  0012c	6a 00		 push	 0
  0012e	68 00 00 00 00	 push	 OFFSET ??_C@_0BI@BEIFNGEL@GetItemProp?5range_error@
  00133	68 00 00 00 00	 push	 OFFSET ??_C@_0BM@HMFGHCP@?$CFs?5min?3?$CFd?0?5max?3?$CFd?0?5index?3?$CFd@
  00138	e8 00 00 00 00	 call	 ?Error@@YAPBDPBDZZ	; Error
  0013d	83 c4 14	 add	 esp, 20			; 00000014H
$LN60@IsLoot:
; File C:\IAGOS\server\v18\Source\Source\_Common\MoverActEvent.cpp

; 2320 : 		if( pItemProp->dwItemKind3 != IK3_GOLD && m_Inventory.IsFull( pItemElem, pItemProp, pItemElem->m_nItemNum ) )

  00140	33 c9		 xor	 ecx, ecx
$LN29@IsLoot:
  00142	83 79 78 00	 cmp	 DWORD PTR [ecx+120], 0
  00146	74 1c		 je	 SHORT $LN17@IsLoot
  00148	0f b7 47 74	 movzx	 eax, WORD PTR [edi+116]
  0014c	50		 push	 eax
  0014d	51		 push	 ecx
  0014e	8b 4d fc	 mov	 ecx, DWORD PTR _this$1$[ebp]
  00151	57		 push	 edi
  00152	81 c1 fc 0a 00
	00		 add	 ecx, 2812		; 00000afcH
  00158	e8 00 00 00 00	 call	 ?IsFull@?$CItemContainer@VCItemElem@@@@QAEHPAVCItemElem@@PAUItemProp@@F@Z ; CItemContainer<CItemElem>::IsFull
  0015d	33 c9		 xor	 ecx, ecx
  0015f	85 c0		 test	 eax, eax
  00161	0f 45 f1	 cmovne	 esi, ecx
$LN17@IsLoot:

; 2321 : 			bTake	= FALSE;
; 2322 : #endif	// __JEFF_11
; 2323 : 	}
; 2324 : 
; 2325 : 	return bTake;

  00164	5f		 pop	 edi
  00165	8b c6		 mov	 eax, esi

; 2326 : }

  00167	5e		 pop	 esi
  00168	5b		 pop	 ebx
  00169	8b e5		 mov	 esp, ebp
  0016b	5d		 pop	 ebp
  0016c	c2 08 00	 ret	 8
$LN3@IsLoot:
  0016f	5f		 pop	 edi
  00170	5e		 pop	 esi
  00171	33 c0		 xor	 eax, eax
  00173	5b		 pop	 ebx
  00174	8b e5		 mov	 esp, ebp
  00176	5d		 pop	 ebp
  00177	c2 08 00	 ret	 8
?IsLoot@CMover@@QAEHPAVCItem@@H@Z ENDP			; CMover::IsLoot
_TEXT	ENDS
; Function compile flags: /Ogtp
; File C:\IAGOS\server\v18\Source\Source\_Common\MoverActEvent.cpp
;	COMDAT ?OnAttackStart@CMover@@QAEXPAV1@W4OBJMSG@@@Z
_TEXT	SEGMENT
_pTarget$ = 8						; size = 4
_dwMsg$ = 12						; size = 4
?OnAttackStart@CMover@@QAEXPAV1@W4OBJMSG@@@Z PROC	; CMover::OnAttackStart, COMDAT
; _this$ = ecx

; 2244 : }

  00000	c2 08 00	 ret	 8
?OnAttackStart@CMover@@QAEXPAV1@W4OBJMSG@@@Z ENDP	; CMover::OnAttackStart
_TEXT	ENDS
; Function compile flags: /Ogtp
; File C:\IAGOS\server\v18\Source\Source\_Common\MoverActEvent.cpp
;	COMDAT ?OnActIALanding@CMover@@QAEXPAVCObj@@ABUD3DXVECTOR3@@@Z
_TEXT	SEGMENT
_pIAObj$ = 8						; size = 4
_vPos$ = 12						; size = 4
?OnActIALanding@CMover@@QAEXPAVCObj@@ABUD3DXVECTOR3@@@Z PROC ; CMover::OnActIALanding, COMDAT
; _this$ = ecx

; 2194 : {

  00000	55		 push	 ebp
  00001	8b ec		 mov	 ebp, esp

; 2195 : 	if( pIAObj->GetType() != OT_SHIP )	

  00003	8b 45 08	 mov	 eax, DWORD PTR _pIAObj$[ebp]
  00006	83 b8 70 01 00
	00 07		 cmp	 DWORD PTR [eax+368], 7
  0000d	75 06		 jne	 SHORT $LN4@OnActIALan

; 2196 : 		return;
; 2197 : 	CShip *pIA = (CShip *)pIAObj;
; 2198 : 
; 2199 : 	CObj *pOldIA = GetIAObjLink();
; 2200 : 	SetIAObjLink( pIA );

  0000f	50		 push	 eax
  00010	e8 00 00 00 00	 call	 ?SetIAObjLink@CCtrl@@QAEXPAVCShip@@@Z ; CCtrl::SetIAObjLink
$LN4@OnActIALan:

; 2201 : 	
; 2202 : 	if( IsActiveMover() )
; 2203 : 	{
; 2204 : 		if( pIA != pOldIA )	// 걸어다닐때도 계속 갱신되기땜에 매번 보낼필요는 없다.
; 2205 : 		{
; 2206 : #ifdef __CLIENT			
; 2207 : 			D3DXVECTOR3 vLocal = GetPos() - pIA->GetPos();		// IA오브젝트로부터의 상대 좌표를 뽑음.
; 2208 : 			g_DPlay.SendLocalPosFromIA( vLocal, pIA->GetId() );				// 상대좌표 서버로 전송
; 2209 : 			TRACE( "SendLocalPosFromIA\n" );
; 2210 : #endif //__CLIENT
; 2211 : 		}
; 2212 : 	}
; 2213 : 
; 2214 : }

  00015	5d		 pop	 ebp
  00016	c2 08 00	 ret	 8
?OnActIALanding@CMover@@QAEXPAVCObj@@ABUD3DXVECTOR3@@@Z ENDP ; CMover::OnActIALanding
_TEXT	ENDS
; Function compile flags: /Ogtp
; File C:\IAGOS\server\v18\Source\Source\_Common\MoverActEvent.cpp
;	COMDAT ?OnActFMove@CMover@@QAEXXZ
_TEXT	SEGMENT
?OnActFMove@CMover@@QAEXXZ PROC				; CMover::OnActFMove, COMDAT
; _this$ = ecx

; 2185 : #ifdef __WORLDSERVER
; 2186 : 	PostAIMsg( AIMSG_BEGINMOVE );

  00000	6a 00		 push	 0
  00002	6a 00		 push	 0
  00004	6a 00		 push	 0
  00006	6a 0d		 push	 13			; 0000000dH
  00008	e8 00 00 00 00	 call	 ?PostAIMsg@CMover@@QAEXKKKK@Z ; CMover::PostAIMsg

; 2187 : #endif
; 2188 : }

  0000d	c3		 ret	 0
?OnActFMove@CMover@@QAEXXZ ENDP				; CMover::OnActFMove
_TEXT	ENDS
; Function compile flags: /Ogtp
; File C:\IAGOS\server\v18\Source\Source\_Common\MoverActEvent.cpp
;	COMDAT ?OnActLanding@CMover@@QAEXXZ
_TEXT	SEGMENT
?OnActLanding@CMover@@QAEXXZ PROC			; CMover::OnActLanding, COMDAT
; _this$ = ecx

; 2174 : #ifdef __CLIENT	
; 2175 : 	if( m_dwIndex == MI_CLOCKWORK1 )
; 2176 : 	{
; 2177 : 		GetWorld()->m_pCamera->SetQuake( 60, 1.0f );		// 보스가 떨어지면 땅이 흔들림.
; 2178 : 	}
; 2179 : #endif
; 2180 : }

  00000	c2 00 00	 ret	 0
?OnActLanding@CMover@@QAEXXZ ENDP			; CMover::OnActLanding
_TEXT	ENDS
; Function compile flags: /Ogtp
; File C:\IAGOS\server\v18\Source\Source\_Common\MoverActEvent.cpp
; File C:\IAGOS\server\v18\Source\Source\_Common\Mover.h
; File C:\IAGOS\server\v18\Source\Source\_Common\MoverActEvent.cpp
; File C:\IAGOS\server\v18\Source\Source\_Common\Mover.h
; File C:\IAGOS\server\v18\Source\Source\_Common\MoverActEvent.cpp
; File C:\IAGOS\server\v18\Source\Source\_Common\Mover.h
; File C:\IAGOS\server\v18\Source\Source\_Common\MoverActEvent.cpp
;	COMDAT ?OnActEndJump4@CMover@@QAEXXZ
_TEXT	SEGMENT
$T1 = -16						; size = 12
__$ArrayPad$ = -4					; size = 4
?OnActEndJump4@CMover@@QAEXXZ PROC			; CMover::OnActEndJump4, COMDAT
; _this$ = ecx

; 2161 : {

  00000	55		 push	 ebp
  00001	8b ec		 mov	 ebp, esp
  00003	83 ec 10	 sub	 esp, 16			; 00000010H
  00006	a1 00 00 00 00	 mov	 eax, DWORD PTR ___security_cookie
  0000b	33 c5		 xor	 eax, ebp
  0000d	89 45 fc	 mov	 DWORD PTR __$ArrayPad$[ebp], eax
  00010	56		 push	 esi
  00011	8b f1		 mov	 esi, ecx
  00013	0f 57 c9	 xorps	 xmm1, xmm1
; File C:\IAGOS\server\v18\Source\Source\_Common\Mover.h

; 1036 : 	BOOL			IsEmptyDestPos()	{ return m_vDestPos.x == 0.0f && m_vDestPos.z == 0.0f; }

  00016	f3 0f 10 86 5c
	02 00 00	 movss	 xmm0, DWORD PTR [esi+604]
  0001e	0f 2e c1	 ucomiss xmm0, xmm1
  00021	9f		 lahf
  00022	f6 c4 44	 test	 ah, 68			; 00000044H
  00025	7a 11		 jp	 SHORT $LN15@OnActEndJu
  00027	f3 0f 10 86 64
	02 00 00	 movss	 xmm0, DWORD PTR [esi+612]
  0002f	0f 2e c1	 ucomiss xmm0, xmm1
  00032	9f		 lahf
  00033	f6 c4 44	 test	 ah, 68			; 00000044H
  00036	7b 29		 jnp	 SHORT $LN2@OnActEndJu
$LN15@OnActEndJu:

; 1026 : 	D3DXVECTOR3		GetDestPos()		{ return m_vDestPos; }

  00038	8b 86 64 02 00
	00		 mov	 eax, DWORD PTR [esi+612]
  0003e	f3 0f 7e 86 5c
	02 00 00	 movq	 xmm0, QWORD PTR [esi+604]
  00046	89 45 f8	 mov	 DWORD PTR $T1[ebp+8], eax
; File C:\IAGOS\server\v18\Source\Source\_Common\MoverActEvent.cpp

; 2163 : 		SetDestPos( GetDestPos(), m_bForward, FALSE );

  00049	0f b6 86 cc 02
	00 00		 movzx	 eax, BYTE PTR [esi+716]
  00050	6a 00		 push	 0
  00052	50		 push	 eax
  00053	8d 45 f0	 lea	 eax, DWORD PTR $T1[ebp]
; File C:\IAGOS\server\v18\Source\Source\_Common\Mover.h

; 1026 : 	D3DXVECTOR3		GetDestPos()		{ return m_vDestPos; }

  00056	66 0f d6 45 f0	 movq	 QWORD PTR $T1[ebp], xmm0
; File C:\IAGOS\server\v18\Source\Source\_Common\MoverActEvent.cpp

; 2163 : 		SetDestPos( GetDestPos(), m_bForward, FALSE );

  0005b	50		 push	 eax
  0005c	e8 00 00 00 00	 call	 ?SetDestPos@CMover@@QAEXABUD3DXVECTOR3@@_NH@Z ; CMover::SetDestPos
$LN2@OnActEndJu:

; 2164 : 
; 2165 : 	if( m_dwIndex == MI_CLOCKWORK1 )

  00061	81 be 74 01 00
	00 a4 00 00 00	 cmp	 DWORD PTR [esi+372], 164 ; 000000a4H
  0006b	75 1b		 jne	 SHORT $LN12@OnActEndJu
; File C:\IAGOS\server\v18\Source\Source\_Common\Mover.h

; 1785 : 	if( m_pActMover )	

  0006d	8b 8e 38 02 00
	00		 mov	 ecx, DWORD PTR [esi+568]
  00073	85 c9		 test	 ecx, ecx
  00075	74 11		 je	 SHORT $LN12@OnActEndJu

; 1786 : 		return m_pActMover->SendActMsg( dwMsg, nParam1, nParam2, nParam3, nParam4 );	

  00077	8b 01		 mov	 eax, DWORD PTR [ecx]
  00079	6a 00		 push	 0
  0007b	6a 00		 push	 0
  0007d	6a 00		 push	 0
  0007f	6a 00		 push	 0
  00081	6a 00		 push	 0
  00083	6a 0e		 push	 14			; 0000000eH
  00085	ff 50 04	 call	 DWORD PTR [eax+4]
$LN12@OnActEndJu:
; File C:\IAGOS\server\v18\Source\Source\_Common\MoverActEvent.cpp

; 2169 : }

  00088	8b 4d fc	 mov	 ecx, DWORD PTR __$ArrayPad$[ebp]
  0008b	33 cd		 xor	 ecx, ebp
  0008d	5e		 pop	 esi
  0008e	e8 00 00 00 00	 call	 @__security_check_cookie@4
  00093	8b e5		 mov	 esp, ebp
  00095	5d		 pop	 ebp
  00096	c3		 ret	 0
?OnActEndJump4@CMover@@QAEXXZ ENDP			; CMover::OnActEndJump4
_TEXT	ENDS
; Function compile flags: /Ogtp
; File C:\IAGOS\server\v18\Source\Source\_Common\MoverActEvent.cpp
; File C:\IAGOS\server\v18\Source\Source\_Common\Mover.h
; File C:\IAGOS\server\v18\Source\Source\_Common\MoverActEvent.cpp
;	COMDAT ?OnActEndMagicSkill@CMover@@QAEXXZ
_TEXT	SEGMENT
?OnActEndMagicSkill@CMover@@QAEXXZ PROC			; CMover::OnActEndMagicSkill, COMDAT
; _this$ = ecx
; File C:\IAGOS\server\v18\Source\Source\_Common\Mover.h

; 1816 : 	memset( m_nAParam, 0xcd, sizeof(m_nAParam) );

  00000	0f 28 05 00 00
	00 00		 movaps	 xmm0, XMMWORD PTR __xmm@cdcdcdcdcdcdcdcdcdcdcdcdcdcdcdcd
  00007	c7 81 ac 11 00
	00 00 00 00 00	 mov	 DWORD PTR [ecx+4524], 0
  00011	0f 11 81 b0 11
	00 00		 movups	 XMMWORD PTR [ecx+4528], xmm0
  00018	c7 81 c0 11 00
	00 cd cd cd cd	 mov	 DWORD PTR [ecx+4544], -842150451 ; cdcdcdcdH
; File C:\IAGOS\server\v18\Source\Source\_Common\MoverActEvent.cpp

; 2147 : 	m_dwFlag &= (~MVRF_SKILL);

  00022	83 a1 44 02 00
	00 fe		 and	 DWORD PTR [ecx+580], -2	; fffffffeH

; 2148 :  #ifdef __WORLDSERVER
; 2149 : 	if( IsPlayer() )

  00029	83 b9 30 02 00
	00 00		 cmp	 DWORD PTR [ecx+560], 0
  00030	74 15		 je	 SHORT $LN3@OnActEndMa

; 2150 : 	{
; 2151 : 		if( ((CUser *)this)->m_playTaskBar.m_nUsedSkillQueue != -1 )

  00032	83 b9 3c 8e 00
	00 ff		 cmp	 DWORD PTR [ecx+36412], -1
  00039	74 0c		 je	 SHORT $LN3@OnActEndMa

; 2152 : 		{
; 2153 : 			((CUser *)this)->m_playTaskBar.SetNextSkill( (CUser *)this );

  0003b	51		 push	 ecx
  0003c	81 c1 cc 55 00
	00		 add	 ecx, 21964		; 000055ccH
  00042	e8 00 00 00 00	 call	 ?SetNextSkill@CUserTaskBar@@QAEHPAVCUser@@@Z ; CUserTaskBar::SetNextSkill
$LN3@OnActEndMa:

; 2154 : 		}
; 2155 : 	}
; 2156 :  #endif 
; 2157 : }

  00047	c3		 ret	 0
?OnActEndMagicSkill@CMover@@QAEXXZ ENDP			; CMover::OnActEndMagicSkill
_TEXT	ENDS
; Function compile flags: /Ogtp
; File C:\IAGOS\server\v18\Source\Source\_Common\MoverActEvent.cpp
; File C:\IAGOS\server\v18\Source\Source\_Common\Mover.h
; File C:\IAGOS\server\v18\Source\Source\_Common\MoverActEvent.cpp
;	COMDAT ?OnActEndMeleeSkill@CMover@@QAEXXZ
_TEXT	SEGMENT
?OnActEndMeleeSkill@CMover@@QAEXXZ PROC			; CMover::OnActEndMeleeSkill, COMDAT
; _this$ = ecx
; File C:\IAGOS\server\v18\Source\Source\_Common\Mover.h

; 1816 : 	memset( m_nAParam, 0xcd, sizeof(m_nAParam) );

  00000	0f 28 05 00 00
	00 00		 movaps	 xmm0, XMMWORD PTR __xmm@cdcdcdcdcdcdcdcdcdcdcdcdcdcdcdcd
  00007	c7 81 ac 11 00
	00 00 00 00 00	 mov	 DWORD PTR [ecx+4524], 0
  00011	0f 11 81 b0 11
	00 00		 movups	 XMMWORD PTR [ecx+4528], xmm0
  00018	c7 81 c0 11 00
	00 cd cd cd cd	 mov	 DWORD PTR [ecx+4544], -842150451 ; cdcdcdcdH
; File C:\IAGOS\server\v18\Source\Source\_Common\MoverActEvent.cpp

; 2130 : 	m_dwFlag &= (~MVRF_SKILL);

  00022	83 a1 44 02 00
	00 fe		 and	 DWORD PTR [ecx+580], -2	; fffffffeH

; 2131 : #ifdef __WORLDSERVER
; 2132 : 	if( IsPlayer() )

  00029	83 b9 30 02 00
	00 00		 cmp	 DWORD PTR [ecx+560], 0
  00030	74 15		 je	 SHORT $LN3@OnActEndMe

; 2133 : 	{
; 2134 : 		if( ((CUser *)this)->m_playTaskBar.m_nUsedSkillQueue != -1 )

  00032	83 b9 3c 8e 00
	00 ff		 cmp	 DWORD PTR [ecx+36412], -1
  00039	74 0c		 je	 SHORT $LN3@OnActEndMe

; 2135 : 		{
; 2136 : 			((CUser *)this)->m_playTaskBar.SetNextSkill( (CUser *)this );

  0003b	51		 push	 ecx
  0003c	81 c1 cc 55 00
	00		 add	 ecx, 21964		; 000055ccH
  00042	e8 00 00 00 00	 call	 ?SetNextSkill@CUserTaskBar@@QAEHPAVCUser@@@Z ; CUserTaskBar::SetNextSkill
$LN3@OnActEndMe:

; 2137 : 		}
; 2138 : 	}
; 2139 : #endif 
; 2140 : 
; 2141 : }

  00047	c3		 ret	 0
?OnActEndMeleeSkill@CMover@@QAEXXZ ENDP			; CMover::OnActEndMeleeSkill
_TEXT	ENDS
; Function compile flags: /Ogtp
; File C:\IAGOS\server\v18\Source\Source\_Common\MoverActEvent.cpp
; File C:\IAGOS\server\v18\Source\Source\_Common\Mover.h
; File C:\IAGOS\server\v18\Source\Source\_AIInterface\Action.h
; File C:\IAGOS\server\v18\Source\Source\_Common\MoverActEvent.cpp
; File C:\IAGOS\server\v18\Source\Source\_AIInterface\Action.h
; File C:\IAGOS\server\v18\Source\Source\_Common\MoverActEvent.cpp
; File C:\IAGOS\server\v18\Source\Source\_AIInterface\Action.h
; File C:\IAGOS\server\v18\Source\Source\_Common\MoverActEvent.cpp
; File C:\IAGOS\server\v18\Source\Source\_Common\Obj.h
; File C:\IAGOS\server\v18\Source\Source\_Common\MoverActEvent.cpp
; File C:\IAGOS\server\v18\Source\Source\_Common\Obj.h
; File C:\IAGOS\server\v18\Source\Source\_Common\MoverActEvent.cpp
; File C:\IAGOS\server\v18\Source\Source\_Common\Obj.h
; File C:\IAGOS\server\v18\Source\Source\_Common\MoverActEvent.cpp
; File C:\IAGOS\server\v18\Source\Source\_Common\Obj.h
; File C:\IAGOS\server\v18\Source\Source\_Common\MoverActEvent.cpp
; File C:\IAGOS\server\v18\Source\Source\_Common\Mover.h
; File C:\IAGOS\server\v18\Source\Source\_Common\MoverActEvent.cpp
;	COMDAT ?OnActCollision@CMover@@QAEXXZ
_TEXT	SEGMENT
tv530 = -52						; size = 4
tv529 = -48						; size = 4
tv572 = -44						; size = 4
_this$GSCopy$1$ = -40					; size = 4
$T1 = -36						; size = 4
$T2 = -32						; size = 4
tv573 = -28						; size = 4
tv551 = -24						; size = 4
tv577 = -24						; size = 4
tv550 = -20						; size = 4
$T3 = -20						; size = 4
$T4 = -16						; size = 12
$T5 = -16						; size = 12
__$ArrayPad$ = -4					; size = 4
?OnActCollision@CMover@@QAEXXZ PROC			; CMover::OnActCollision, COMDAT
; _this$ = ecx

; 2051 : {

  00000	55		 push	 ebp
  00001	8b ec		 mov	 ebp, esp
  00003	83 ec 34	 sub	 esp, 52			; 00000034H
  00006	a1 00 00 00 00	 mov	 eax, DWORD PTR ___security_cookie
  0000b	33 c5		 xor	 eax, ebp
  0000d	89 45 fc	 mov	 DWORD PTR __$ArrayPad$[ebp], eax
  00010	57		 push	 edi
  00011	8b f9		 mov	 edi, ecx
  00013	89 7d d8	 mov	 DWORD PTR _this$GSCopy$1$[ebp], edi

; 2052 : #ifdef __WORLDSERVER
; 2053 : 	if( FALSE == IsPlayer() )

  00016	83 bf 30 02 00
	00 00		 cmp	 DWORD PTR [edi+560], 0
  0001d	0f 85 f7 01 00
	00		 jne	 $LN2@OnActColli

; 2054 : 	{
; 2055 : 		if( m_nCorr < 0 
; 2056 : #if __VER >= 9	//__AI_0509
; 2057 : 			&& GetSpeedFactor() < 1.9F && m_dwAIInterface != AII_PET

  00023	83 bf 74 02 00
	00 00		 cmp	 DWORD PTR [edi+628], 0
  0002a	0f 8d 32 02 00
	00		 jge	 $LN7@OnActColli
  00030	f3 0f 10 05 00
	00 00 00	 movss	 xmm0, DWORD PTR __real@3ff33333
  00038	0f 2f 87 08 07
	00 00		 comiss	 xmm0, DWORD PTR [edi+1800]
  0003f	0f 86 1d 02 00
	00		 jbe	 $LN7@OnActColli
  00045	83 bf 8c 01 00
	00 05		 cmp	 DWORD PTR [edi+396], 5
  0004c	0f 84 10 02 00
	00		 je	 $LN7@OnActColli
; File C:\IAGOS\server\v18\Source\Source\_Common\Mover.h

; 1030 : 	void			ClearDestObj()     	{ m_idDest = NULL_ID; m_fArrivalRange = 0.0f; }

  00052	c7 87 58 02 00
	00 ff ff ff ff	 mov	 DWORD PTR [edi+600], -1
  0005c	c7 87 54 02 00
	00 00 00 00 00	 mov	 DWORD PTR [edi+596], 0

; 1031 : 	void			ClearDestPos()		{ m_vDestPos = D3DXVECTOR3( 0.0f, 0.0f, 0.0f ); }		

  00066	c7 87 5c 02 00
	00 00 00 00 00	 mov	 DWORD PTR [edi+604], 0
  00070	c7 87 60 02 00
	00 00 00 00 00	 mov	 DWORD PTR [edi+608], 0
  0007a	c7 87 64 02 00
	00 00 00 00 00	 mov	 DWORD PTR [edi+612], 0

; 1785 : 	if( m_pActMover )	

  00084	8b 8f 38 02 00
	00		 mov	 ecx, DWORD PTR [edi+568]
  0008a	85 c9		 test	 ecx, ecx
  0008c	74 11		 je	 SHORT $LN28@OnActColli

; 1786 : 		return m_pActMover->SendActMsg( dwMsg, nParam1, nParam2, nParam3, nParam4 );	

  0008e	8b 01		 mov	 eax, DWORD PTR [ecx]
  00090	6a 00		 push	 0
  00092	6a 00		 push	 0
  00094	6a 00		 push	 0
  00096	6a 00		 push	 0
  00098	6a 00		 push	 0
  0009a	6a 03		 push	 3
  0009c	ff 50 04	 call	 DWORD PTR [eax+4]
$LN28@OnActColli:
; File C:\IAGOS\server\v18\Source\Source\_AIInterface\Action.h

; 309  : 	BOOL			IsFly() { return (m_dwStateFlag & OBJSTAF_FLY) ? TRUE : FALSE; }

  0009f	8b 87 38 02 00
	00		 mov	 eax, DWORD PTR [edi+568]
; File C:\IAGOS\server\v18\Source\Source\_Common\MoverActEvent.cpp

; 2065 : 			if( m_pActMover->IsFly() )

  000a5	f3 0f 10 47 18	 movss	 xmm0, DWORD PTR [edi+24]
  000aa	53		 push	 ebx
  000ab	56		 push	 esi
; File C:\IAGOS\server\v18\Source\Source\_AIInterface\Action.h

; 309  : 	BOOL			IsFly() { return (m_dwStateFlag & OBJSTAF_FLY) ? TRUE : FALSE; }

  000ac	8b 48 08	 mov	 ecx, DWORD PTR [eax+8]
; File C:\IAGOS\server\v18\Source\Source\_Common\MoverActEvent.cpp

; 2065 : 			if( m_pActMover->IsFly() )

  000af	f6 c1 08	 test	 cl, 8
  000b2	8b 40 04	 mov	 eax, DWORD PTR [eax+4]
  000b5	89 45 e0	 mov	 DWORD PTR $T2[ebp], eax
  000b8	8b 87 68 01 00
	00		 mov	 eax, DWORD PTR [edi+360]
; File C:\IAGOS\server\v18\Source\Source\_AIInterface\Action.h

; 309  : 	BOOL			IsFly() { return (m_dwStateFlag & OBJSTAF_FLY) ? TRUE : FALSE; }

  000be	89 4d e4	 mov	 DWORD PTR tv573[ebp], ecx
; File C:\IAGOS\server\v18\Source\Source\_Common\MoverActEvent.cpp

; 2065 : 			if( m_pActMover->IsFly() )

  000c1	b9 00 00 00 00	 mov	 ecx, OFFSET ?g_TickCount@@3VCTickCount@@A ; g_TickCount
  000c6	89 45 f8	 mov	 DWORD PTR $T4[ebp+8], eax
  000c9	8b 87 dc 02 00
	00		 mov	 eax, DWORD PTR [edi+732]
  000cf	f3 0f 11 45 dc	 movss	 DWORD PTR $T1[ebp], xmm0
  000d4	0f 84 ae 00 00
	00		 je	 $LN5@OnActColli
; File C:\IAGOS\server\v18\Source\Source\_Common\Obj.h

; 186  : 	FLOAT			GetAngleX() { return m_fAngX; }

  000da	f3 0f 10 47 1c	 movss	 xmm0, DWORD PTR [edi+28]
; File C:\IAGOS\server\v18\Source\Source\_Common\MoverActEvent.cpp

; 2066 : 				g_UserMng.AddMoverCorr2( this, GetPos(), m_pActMover->m_vDelta, GetAngle(), GetAngleX(),

  000df	89 45 d4	 mov	 DWORD PTR tv572[ebp], eax
  000e2	8b 87 78 01 00
	00		 mov	 eax, DWORD PTR [edi+376]
; File C:\IAGOS\server\v18\Source\Source\_Common\Obj.h

; 186  : 	FLOAT			GetAngleX() { return m_fAngX; }

  000e8	f3 0f 11 45 ec	 movss	 DWORD PTR $T3[ebp], xmm0

; 215  : 	D3DXVECTOR3		GetPos()	{ return m_vPos; }

  000ed	f3 0f 7e 87 60
	01 00 00	 movq	 xmm0, QWORD PTR [edi+352]
  000f5	66 0f d6 45 f0	 movq	 QWORD PTR $T4[ebp], xmm0
; File C:\IAGOS\server\v18\Source\Source\_Common\MoverActEvent.cpp

; 2066 : 				g_UserMng.AddMoverCorr2( this, GetPos(), m_pActMover->m_vDelta, GetAngle(), GetAngleX(),

  000fa	8b 98 b4 00 00
	00		 mov	 ebx, DWORD PTR [eax+180]
  00100	8b 87 38 02 00
	00		 mov	 eax, DWORD PTR [edi+568]
  00106	8b bf d8 02 00
	00		 mov	 edi, DWORD PTR [edi+728]
  0010c	89 45 e8	 mov	 DWORD PTR tv551[ebp], eax
  0010f	f3 0f 10 80 84
	00 00 00	 movss	 xmm0, DWORD PTR [eax+132]
  00117	8b b0 8c 00 00
	00		 mov	 esi, DWORD PTR [eax+140]
  0011d	f3 0f 11 45 d0	 movss	 DWORD PTR tv529[ebp], xmm0
  00122	f3 0f 10 40 4c	 movss	 xmm0, DWORD PTR [eax+76]
  00127	f3 0f 11 45 cc	 movss	 DWORD PTR tv530[ebp], xmm0
  0012c	e8 00 00 00 00	 call	 ?GetTickCount@CTickCount@@QAE_JXZ ; CTickCount::GetTickCount
  00131	f3 0f 10 45 d0	 movss	 xmm0, DWORD PTR tv529[ebp]
  00136	b9 00 00 00 00	 mov	 ecx, OFFSET ?g_UserMng@@3VCUserMng@@A ; g_UserMng
  0013b	52		 push	 edx
  0013c	50		 push	 eax
  0013d	ff 75 d4	 push	 DWORD PTR tv572[ebp]
  00140	8b 45 e8	 mov	 eax, DWORD PTR tv551[ebp]
  00143	53		 push	 ebx
  00144	56		 push	 esi
  00145	57		 push	 edi
  00146	ff 75 e4	 push	 DWORD PTR tv573[ebp]
  00149	8b 75 d8	 mov	 esi, DWORD PTR _this$GSCopy$1$[ebp]
  0014c	83 c0 50	 add	 eax, 80			; 00000050H
  0014f	ff 75 e0	 push	 DWORD PTR $T2[ebp]
  00152	83 ec 10	 sub	 esp, 16			; 00000010H
  00155	f3 0f 11 44 24
	0c		 movss	 DWORD PTR [esp+12], xmm0
  0015b	f3 0f 10 45 cc	 movss	 xmm0, DWORD PTR tv530[ebp]
  00160	f3 0f 11 44 24
	08		 movss	 DWORD PTR [esp+8], xmm0
  00166	f3 0f 10 45 ec	 movss	 xmm0, DWORD PTR $T3[ebp]
  0016b	f3 0f 11 44 24
	04		 movss	 DWORD PTR [esp+4], xmm0
  00171	f3 0f 10 45 dc	 movss	 xmm0, DWORD PTR $T1[ebp]
  00176	f3 0f 11 04 24	 movss	 DWORD PTR [esp], xmm0
  0017b	50		 push	 eax
  0017c	8d 45 f0	 lea	 eax, DWORD PTR $T4[ebp]
  0017f	50		 push	 eax
  00180	56		 push	 esi
  00181	e8 00 00 00 00	 call	 ?AddMoverCorr2@CUserMng@@QAEXPAVCMover@@AAUD3DXVECTOR3@@1MMMMKKKHHK_J@Z ; CUserMng::AddMoverCorr2
  00186	eb 68		 jmp	 SHORT $LN6@OnActColli
$LN5@OnActColli:
; File C:\IAGOS\server\v18\Source\Source\_Common\Obj.h

; 215  : 	D3DXVECTOR3		GetPos()	{ return m_vPos; }

  00188	f3 0f 7e 87 60
	01 00 00	 movq	 xmm0, QWORD PTR [edi+352]
; File C:\IAGOS\server\v18\Source\Source\_Common\MoverActEvent.cpp

; 2070 : 				g_UserMng.AddMoverCorr( this, GetPos(), m_pActMover->m_vDelta, GetAngle(),

  00190	89 45 e8	 mov	 DWORD PTR tv577[ebp], eax
  00193	8b 87 78 01 00
	00		 mov	 eax, DWORD PTR [edi+376]
; File C:\IAGOS\server\v18\Source\Source\_Common\Obj.h

; 215  : 	D3DXVECTOR3		GetPos()	{ return m_vPos; }

  00199	66 0f d6 45 f0	 movq	 QWORD PTR $T5[ebp], xmm0
; File C:\IAGOS\server\v18\Source\Source\_Common\MoverActEvent.cpp

; 2070 : 				g_UserMng.AddMoverCorr( this, GetPos(), m_pActMover->m_vDelta, GetAngle(),

  0019e	8b 98 b4 00 00
	00		 mov	 ebx, DWORD PTR [eax+180]
  001a4	8b 87 38 02 00
	00		 mov	 eax, DWORD PTR [edi+568]
  001aa	8b bf d8 02 00
	00		 mov	 edi, DWORD PTR [edi+728]
  001b0	89 45 ec	 mov	 DWORD PTR tv550[ebp], eax
  001b3	8b b0 8c 00 00
	00		 mov	 esi, DWORD PTR [eax+140]
  001b9	e8 00 00 00 00	 call	 ?GetTickCount@CTickCount@@QAE_JXZ ; CTickCount::GetTickCount
  001be	f3 0f 10 45 dc	 movss	 xmm0, DWORD PTR $T1[ebp]
  001c3	52		 push	 edx
  001c4	50		 push	 eax
  001c5	ff 75 e8	 push	 DWORD PTR tv577[ebp]
  001c8	8b 45 ec	 mov	 eax, DWORD PTR tv550[ebp]
  001cb	53		 push	 ebx
  001cc	56		 push	 esi
  001cd	8b 75 d8	 mov	 esi, DWORD PTR _this$GSCopy$1$[ebp]
  001d0	83 c0 50	 add	 eax, 80			; 00000050H
  001d3	57		 push	 edi
  001d4	ff 75 e4	 push	 DWORD PTR tv573[ebp]
  001d7	ff 75 e0	 push	 DWORD PTR $T2[ebp]
  001da	51		 push	 ecx
  001db	f3 0f 11 04 24	 movss	 DWORD PTR [esp], xmm0
  001e0	b9 00 00 00 00	 mov	 ecx, OFFSET ?g_UserMng@@3VCUserMng@@A ; g_UserMng
  001e5	50		 push	 eax
  001e6	8d 45 f0	 lea	 eax, DWORD PTR $T5[ebp]
  001e9	50		 push	 eax
  001ea	56		 push	 esi
  001eb	e8 00 00 00 00	 call	 ?AddMoverCorr@CUserMng@@QAEXPAVCMover@@AAUD3DXVECTOR3@@1MKKKHHK_J@Z ; CUserMng::AddMoverCorr
$LN6@OnActColli:

; 2071 : 					m_pActMover->GetState(), m_pActMover->GetStateFlag(), m_dwMotion, m_pActMover->m_nMotionEx,
; 2072 : 					m_pModel->m_nLoop, m_dwMotionOption, g_TickCount.GetTickCount() );
; 2073 : 
; 2074 : 			m_nCorr		= 0;
; 2075 : 
; 2076 : 			PostAIMsg( AIMSG_COLLISION );

  001f0	6a 00		 push	 0
  001f2	6a 00		 push	 0
  001f4	6a 00		 push	 0
  001f6	6a 0a		 push	 10			; 0000000aH
  001f8	8b ce		 mov	 ecx, esi
  001fa	c7 86 74 02 00
	00 00 00 00 00	 mov	 DWORD PTR [esi+628], 0
  00204	e8 00 00 00 00	 call	 ?PostAIMsg@CMover@@QAEXKKKK@Z ; CMover::PostAIMsg
  00209	5e		 pop	 esi
  0020a	5b		 pop	 ebx
  0020b	5f		 pop	 edi

; 2085 : 		}
; 2086 : 	}
; 2087 : 
; 2088 : #else	// __WORLDSERVER
; 2089 : 	if( TRUE == IsActiveMover() )
; 2090 : 	{
; 2091 : 		if( m_nCorr != 0 )
; 2092 : 		{
; 2093 : 			if( m_nCorr < 0 )
; 2094 : 			{
; 2095 : 				ClearDest();
; 2096 : 				SendActMsg( OBJMSG_STAND );
; 2097 : 				CWndWorld* pWndWorld	= (CWndWorld*)g_WndMng.GetWndBase( APP_WORLD );
; 2098 : 				if( pWndWorld )
; 2099 : 					pWndWorld->m_bLButtonDown	= FALSE;
; 2100 : 			}
; 2101 : 			if( m_pActMover->IsFly() )
; 2102 : 				g_DPlay.SendPlayerCorr2();
; 2103 : 			else
; 2104 : 				g_DPlay.SendPlayerCorr();
; 2105 : 
; 2106 : 			m_nCorr	= 0;
; 2107 : 		}
; 2108 : 	}
; 2109 : 	else if( FALSE == IsActiveMover() )
; 2110 : 	{
; 2111 : #if __VER >= 9	//__AI_0509
; 2112 : 		if( IsPlayer() || GetSpeedFactor() < 1.9F )
; 2113 : #endif	// __AI_0509
; 2114 : 		{
; 2115 : 			if( FALSE == IsEmptyDest() && FALSE == m_fWaitQueryGetPos )
; 2116 : 			{
; 2117 : 				g_DPlay.SendQueryGetPos( this );
; 2118 : 				m_fWaitQueryGetPos	= TRUE;
; 2119 : 			}
; 2120 : 		}
; 2121 : 	}
; 2122 : 
; 2123 : #endif	// __WORLDSERVER
; 2124 : }

  0020c	8b 4d fc	 mov	 ecx, DWORD PTR __$ArrayPad$[ebp]
  0020f	33 cd		 xor	 ecx, ebp
  00211	e8 00 00 00 00	 call	 @__security_check_cookie@4
  00216	8b e5		 mov	 esp, ebp
  00218	5d		 pop	 ebp
  00219	c3		 ret	 0
$LN2@OnActColli:
; File C:\IAGOS\server\v18\Source\Source\_Common\Mover.h

; 1036 : 	BOOL			IsEmptyDestPos()	{ return m_vDestPos.x == 0.0f && m_vDestPos.z == 0.0f; }

  0021a	f3 0f 10 87 5c
	02 00 00	 movss	 xmm0, DWORD PTR [edi+604]
  00222	0f 57 c9	 xorps	 xmm1, xmm1
  00225	0f 2e c1	 ucomiss xmm0, xmm1
  00228	9f		 lahf
  00229	f6 c4 44	 test	 ah, 68			; 00000044H
  0022c	7a 1a		 jp	 SHORT $LN51@OnActColli
  0022e	f3 0f 10 87 64
	02 00 00	 movss	 xmm0, DWORD PTR [edi+612]
  00236	0f 2e c1	 ucomiss xmm0, xmm1
  00239	9f		 lahf
  0023a	f6 c4 44	 test	 ah, 68			; 00000044H
  0023d	7a 09		 jp	 SHORT $LN51@OnActColli

; 1035 : 	BOOL			IsEmptyDestObj()	{ return m_idDest == NULL_ID; }

  0023f	83 bf 58 02 00
	00 ff		 cmp	 DWORD PTR [edi+600], -1

; 1037 : 	BOOL			IsEmptyDest()		{ return IsEmptyDestPos() && IsEmptyDestObj(); }

  00246	74 1a		 je	 SHORT $LN7@OnActColli
$LN51@OnActColli:
; File C:\IAGOS\server\v18\Source\Source\_Common\MoverActEvent.cpp

; 2081 : 		if( FALSE == IsEmptyDest() && FALSE == m_fWaitQueryGetPos )

  00248	83 bf 70 02 00
	00 00		 cmp	 DWORD PTR [edi+624], 0
  0024f	75 11		 jne	 SHORT $LN7@OnActColli

; 2082 : 		{
; 2083 : 			( (CUser*)this )->AddQueryGetPos( NULL_ID );

  00251	6a ff		 push	 -1
  00253	e8 00 00 00 00	 call	 ?AddQueryGetPos@CUser@@QAEXK@Z ; CUser::AddQueryGetPos

; 2084 : 			m_fWaitQueryGetPos	= TRUE;

  00258	c7 87 70 02 00
	00 01 00 00 00	 mov	 DWORD PTR [edi+624], 1
$LN7@OnActColli:

; 2085 : 		}
; 2086 : 	}
; 2087 : 
; 2088 : #else	// __WORLDSERVER
; 2089 : 	if( TRUE == IsActiveMover() )
; 2090 : 	{
; 2091 : 		if( m_nCorr != 0 )
; 2092 : 		{
; 2093 : 			if( m_nCorr < 0 )
; 2094 : 			{
; 2095 : 				ClearDest();
; 2096 : 				SendActMsg( OBJMSG_STAND );
; 2097 : 				CWndWorld* pWndWorld	= (CWndWorld*)g_WndMng.GetWndBase( APP_WORLD );
; 2098 : 				if( pWndWorld )
; 2099 : 					pWndWorld->m_bLButtonDown	= FALSE;
; 2100 : 			}
; 2101 : 			if( m_pActMover->IsFly() )
; 2102 : 				g_DPlay.SendPlayerCorr2();
; 2103 : 			else
; 2104 : 				g_DPlay.SendPlayerCorr();
; 2105 : 
; 2106 : 			m_nCorr	= 0;
; 2107 : 		}
; 2108 : 	}
; 2109 : 	else if( FALSE == IsActiveMover() )
; 2110 : 	{
; 2111 : #if __VER >= 9	//__AI_0509
; 2112 : 		if( IsPlayer() || GetSpeedFactor() < 1.9F )
; 2113 : #endif	// __AI_0509
; 2114 : 		{
; 2115 : 			if( FALSE == IsEmptyDest() && FALSE == m_fWaitQueryGetPos )
; 2116 : 			{
; 2117 : 				g_DPlay.SendQueryGetPos( this );
; 2118 : 				m_fWaitQueryGetPos	= TRUE;
; 2119 : 			}
; 2120 : 		}
; 2121 : 	}
; 2122 : 
; 2123 : #endif	// __WORLDSERVER
; 2124 : }

  00262	8b 4d fc	 mov	 ecx, DWORD PTR __$ArrayPad$[ebp]
  00265	33 cd		 xor	 ecx, ebp
  00267	5f		 pop	 edi
  00268	e8 00 00 00 00	 call	 @__security_check_cookie@4
  0026d	8b e5		 mov	 esp, ebp
  0026f	5d		 pop	 ebp
  00270	c3		 ret	 0
?OnActCollision@CMover@@QAEXXZ ENDP			; CMover::OnActCollision
_TEXT	ENDS
; Function compile flags: /Ogtp
; File C:\IAGOS\server\v18\Source\Source\_Common\MoverActEvent.cpp
; File C:\IAGOS\server\v18\Source\Source\_AIInterface\Action.h
; File C:\IAGOS\server\v18\Source\Source\_Common\MoverActEvent.cpp
; File C:\IAGOS\server\v18\Source\Source\_Common\Mover.h
; File C:\IAGOS\server\v18\Source\Source\_AIInterface\Action.h
; File C:\IAGOS\server\v18\Source\Source\_Common\MoverActEvent.cpp
; File C:\IAGOS\server\v18\Source\Source\_AIInterface\Action.h
; File C:\IAGOS\server\v18\Source\Source\_Common\MoverActEvent.cpp
; File C:\IAGOS\server\v18\Source\Source\_AIInterface\Action.h
; File C:\IAGOS\server\v18\Source\Source\_Common\MoverActEvent.cpp
; File C:\IAGOS\server\v18\Source\Source\_Common\Obj.h
; File C:\IAGOS\server\v18\Source\Source\_Common\MoverActEvent.cpp
; File C:\IAGOS\server\v18\Source\Source\_Common\Obj.h
; File C:\IAGOS\server\v18\Source\Source\_Common\MoverActEvent.cpp
; File C:\IAGOS\server\v18\Source\Source\_Common\Obj.h
; File C:\IAGOS\server\v18\Source\Source\_Common\MoverActEvent.cpp
; File C:\IAGOS\server\v18\Source\Source\_Common\Obj.h
; File C:\IAGOS\server\v18\Source\Source\_Common\MoverActEvent.cpp
; File C:\IAGOS\server\v18\Source\Source\_Common\Mover.h
; File C:\IAGOS\server\v18\Source\Source\_Common\MoverActEvent.cpp
;	COMDAT ?OnActDrop@CMover@@QAEXXZ
_TEXT	SEGMENT
tv532 = -52						; size = 4
tv531 = -48						; size = 4
tv575 = -44						; size = 4
_this$GSCopy$1$ = -40					; size = 4
$T1 = -36						; size = 4
$T2 = -32						; size = 4
tv577 = -28						; size = 4
tv553 = -24						; size = 4
tv581 = -24						; size = 4
tv552 = -20						; size = 4
$T3 = -20						; size = 4
$T4 = -16						; size = 12
$T5 = -16						; size = 12
__$ArrayPad$ = -4					; size = 4
?OnActDrop@CMover@@QAEXXZ PROC				; CMover::OnActDrop, COMDAT
; _this$ = ecx

; 1980 : {

  00000	55		 push	 ebp
  00001	8b ec		 mov	 ebp, esp
  00003	83 ec 34	 sub	 esp, 52			; 00000034H
  00006	a1 00 00 00 00	 mov	 eax, DWORD PTR ___security_cookie
  0000b	33 c5		 xor	 eax, ebp
  0000d	89 45 fc	 mov	 DWORD PTR __$ArrayPad$[ebp], eax
  00010	57		 push	 edi
  00011	8b f9		 mov	 edi, ecx
  00013	89 7d d8	 mov	 DWORD PTR _this$GSCopy$1$[ebp], edi
; File C:\IAGOS\server\v18\Source\Source\_AIInterface\Action.h

; 304  : 	DWORD			GetDmgState() { return m_dwState & OBJSTA_DMG_ALL; }

  00016	8b 8f 38 02 00
	00		 mov	 ecx, DWORD PTR [edi+568]
; File C:\IAGOS\server\v18\Source\Source\_Common\MoverActEvent.cpp

; 1982 : 	if( m_pActMover->GetDmgState() & OBJSTA_DMG_FLY_ALL )		// 데미지 플라이땐 이거 안하는게 좋다.

  0001c	f7 41 04 00 00
	00 02		 test	 DWORD PTR [ecx+4], 33554432 ; 02000000H
  00023	0f 85 3e 02 00
	00		 jne	 $LN8@OnActDrop

; 1983 : 		return;
; 1984 : 
; 1985 : 	if( FALSE == IsPlayer() )

  00029	83 bf 30 02 00
	00 00		 cmp	 DWORD PTR [edi+560], 0
  00030	0f 85 e7 01 00
	00		 jne	 $LN3@OnActDrop

; 1986 : 	{
; 1987 : 		if( m_nCorr < 0
; 1988 : #if __VER >= 9	//__AI_0509
; 1989 : 			&& GetSpeedFactor() < 1.9F
; 1990 : #endif	// __AI_0509
; 1991 : #ifdef __JEFF_11
; 1992 : 			&& m_dwAIInterface != AII_PET

  00036	83 bf 74 02 00
	00 00		 cmp	 DWORD PTR [edi+628], 0
  0003d	0f 8d 24 02 00
	00		 jge	 $LN8@OnActDrop
  00043	f3 0f 10 05 00
	00 00 00	 movss	 xmm0, DWORD PTR __real@3ff33333
  0004b	0f 2f 87 08 07
	00 00		 comiss	 xmm0, DWORD PTR [edi+1800]
  00052	0f 86 0f 02 00
	00		 jbe	 $LN8@OnActDrop
  00058	83 bf 8c 01 00
	00 05		 cmp	 DWORD PTR [edi+396], 5
  0005f	0f 84 02 02 00
	00		 je	 $LN8@OnActDrop
; File C:\IAGOS\server\v18\Source\Source\_Common\Mover.h

; 1031 : 	void			ClearDestPos()		{ m_vDestPos = D3DXVECTOR3( 0.0f, 0.0f, 0.0f ); }		

  00065	c7 87 5c 02 00
	00 00 00 00 00	 mov	 DWORD PTR [edi+604], 0
  0006f	c7 87 60 02 00
	00 00 00 00 00	 mov	 DWORD PTR [edi+608], 0
  00079	c7 87 64 02 00
	00 00 00 00 00	 mov	 DWORD PTR [edi+612], 0

; 1785 : 	if( m_pActMover )	

  00083	85 c9		 test	 ecx, ecx
  00085	74 11		 je	 SHORT $LN27@OnActDrop

; 1786 : 		return m_pActMover->SendActMsg( dwMsg, nParam1, nParam2, nParam3, nParam4 );	

  00087	8b 01		 mov	 eax, DWORD PTR [ecx]
  00089	6a 00		 push	 0
  0008b	6a 00		 push	 0
  0008d	6a 00		 push	 0
  0008f	6a 00		 push	 0
  00091	6a 00		 push	 0
  00093	6a 03		 push	 3
  00095	ff 50 04	 call	 DWORD PTR [eax+4]
$LN27@OnActDrop:
; File C:\IAGOS\server\v18\Source\Source\_AIInterface\Action.h

; 309  : 	BOOL			IsFly() { return (m_dwStateFlag & OBJSTAF_FLY) ? TRUE : FALSE; }

  00098	8b 87 38 02 00
	00		 mov	 eax, DWORD PTR [edi+568]
; File C:\IAGOS\server\v18\Source\Source\_Common\MoverActEvent.cpp

; 1998 : 			if( m_pActMover->IsFly() )

  0009e	f3 0f 10 47 18	 movss	 xmm0, DWORD PTR [edi+24]
  000a3	53		 push	 ebx
  000a4	56		 push	 esi
; File C:\IAGOS\server\v18\Source\Source\_AIInterface\Action.h

; 309  : 	BOOL			IsFly() { return (m_dwStateFlag & OBJSTAF_FLY) ? TRUE : FALSE; }

  000a5	8b 48 08	 mov	 ecx, DWORD PTR [eax+8]
; File C:\IAGOS\server\v18\Source\Source\_Common\MoverActEvent.cpp

; 1998 : 			if( m_pActMover->IsFly() )

  000a8	f6 c1 08	 test	 cl, 8
  000ab	8b 40 04	 mov	 eax, DWORD PTR [eax+4]
  000ae	89 45 e0	 mov	 DWORD PTR $T2[ebp], eax
  000b1	8b 87 68 01 00
	00		 mov	 eax, DWORD PTR [edi+360]
; File C:\IAGOS\server\v18\Source\Source\_AIInterface\Action.h

; 309  : 	BOOL			IsFly() { return (m_dwStateFlag & OBJSTAF_FLY) ? TRUE : FALSE; }

  000b7	89 4d e4	 mov	 DWORD PTR tv577[ebp], ecx
; File C:\IAGOS\server\v18\Source\Source\_Common\MoverActEvent.cpp

; 1998 : 			if( m_pActMover->IsFly() )

  000ba	b9 00 00 00 00	 mov	 ecx, OFFSET ?g_TickCount@@3VCTickCount@@A ; g_TickCount
  000bf	89 45 f8	 mov	 DWORD PTR $T4[ebp+8], eax
  000c2	8b 87 dc 02 00
	00		 mov	 eax, DWORD PTR [edi+732]
  000c8	f3 0f 11 45 dc	 movss	 DWORD PTR $T1[ebp], xmm0
  000cd	0f 84 c7 00 00
	00		 je	 $LN6@OnActDrop
; File C:\IAGOS\server\v18\Source\Source\_Common\Obj.h

; 186  : 	FLOAT			GetAngleX() { return m_fAngX; }

  000d3	f3 0f 10 47 1c	 movss	 xmm0, DWORD PTR [edi+28]
; File C:\IAGOS\server\v18\Source\Source\_Common\MoverActEvent.cpp

; 1999 : 				g_UserMng.AddMoverCorr2( this, GetPos(), m_pActMover->m_vDelta, GetAngle(), GetAngleX(),

  000d8	89 45 d4	 mov	 DWORD PTR tv575[ebp], eax
  000db	8b 87 78 01 00
	00		 mov	 eax, DWORD PTR [edi+376]
; File C:\IAGOS\server\v18\Source\Source\_Common\Obj.h

; 186  : 	FLOAT			GetAngleX() { return m_fAngX; }

  000e1	f3 0f 11 45 ec	 movss	 DWORD PTR $T3[ebp], xmm0

; 215  : 	D3DXVECTOR3		GetPos()	{ return m_vPos; }

  000e6	f3 0f 7e 87 60
	01 00 00	 movq	 xmm0, QWORD PTR [edi+352]
  000ee	66 0f d6 45 f0	 movq	 QWORD PTR $T4[ebp], xmm0
; File C:\IAGOS\server\v18\Source\Source\_Common\MoverActEvent.cpp

; 1999 : 				g_UserMng.AddMoverCorr2( this, GetPos(), m_pActMover->m_vDelta, GetAngle(), GetAngleX(),

  000f3	8b 98 b4 00 00
	00		 mov	 ebx, DWORD PTR [eax+180]
  000f9	8b 87 38 02 00
	00		 mov	 eax, DWORD PTR [edi+568]
  000ff	8b bf d8 02 00
	00		 mov	 edi, DWORD PTR [edi+728]
  00105	89 45 e8	 mov	 DWORD PTR tv553[ebp], eax
  00108	f3 0f 10 80 84
	00 00 00	 movss	 xmm0, DWORD PTR [eax+132]
  00110	8b b0 8c 00 00
	00		 mov	 esi, DWORD PTR [eax+140]
  00116	f3 0f 11 45 d0	 movss	 DWORD PTR tv531[ebp], xmm0
  0011b	f3 0f 10 40 4c	 movss	 xmm0, DWORD PTR [eax+76]
  00120	f3 0f 11 45 cc	 movss	 DWORD PTR tv532[ebp], xmm0
  00125	e8 00 00 00 00	 call	 ?GetTickCount@CTickCount@@QAE_JXZ ; CTickCount::GetTickCount
  0012a	f3 0f 10 45 d0	 movss	 xmm0, DWORD PTR tv531[ebp]
  0012f	b9 00 00 00 00	 mov	 ecx, OFFSET ?g_UserMng@@3VCUserMng@@A ; g_UserMng
  00134	52		 push	 edx
  00135	50		 push	 eax
  00136	ff 75 d4	 push	 DWORD PTR tv575[ebp]
  00139	8b 45 e8	 mov	 eax, DWORD PTR tv553[ebp]
  0013c	53		 push	 ebx
  0013d	56		 push	 esi
  0013e	57		 push	 edi
  0013f	ff 75 e4	 push	 DWORD PTR tv577[ebp]
  00142	8b 75 d8	 mov	 esi, DWORD PTR _this$GSCopy$1$[ebp]
  00145	83 c0 50	 add	 eax, 80			; 00000050H
  00148	ff 75 e0	 push	 DWORD PTR $T2[ebp]
  0014b	83 ec 10	 sub	 esp, 16			; 00000010H
  0014e	f3 0f 11 44 24
	0c		 movss	 DWORD PTR [esp+12], xmm0
  00154	f3 0f 10 45 cc	 movss	 xmm0, DWORD PTR tv532[ebp]
  00159	f3 0f 11 44 24
	08		 movss	 DWORD PTR [esp+8], xmm0
  0015f	f3 0f 10 45 ec	 movss	 xmm0, DWORD PTR $T3[ebp]
  00164	f3 0f 11 44 24
	04		 movss	 DWORD PTR [esp+4], xmm0
  0016a	f3 0f 10 45 dc	 movss	 xmm0, DWORD PTR $T1[ebp]
  0016f	f3 0f 11 04 24	 movss	 DWORD PTR [esp], xmm0
  00174	50		 push	 eax
  00175	8d 45 f0	 lea	 eax, DWORD PTR $T4[ebp]
  00178	50		 push	 eax
  00179	56		 push	 esi
  0017a	e8 00 00 00 00	 call	 ?AddMoverCorr2@CUserMng@@QAEXPAVCMover@@AAUD3DXVECTOR3@@1MMMMKKKHHK_J@Z ; CUserMng::AddMoverCorr2

; 2004 : 					m_pActMover->GetState(), m_pActMover->GetStateFlag(), m_dwMotion, m_pActMover->m_nMotionEx,
; 2005 : 					m_pModel->m_nLoop, m_dwMotionOption, g_TickCount.GetTickCount() );
; 2006 : 			m_nCorr		= 0;

  0017f	c7 86 74 02 00
	00 00 00 00 00	 mov	 DWORD PTR [esi+628], 0
  00189	5e		 pop	 esi
  0018a	5b		 pop	 ebx
  0018b	5f		 pop	 edi

; 2015 : 		}
; 2016 : 	}
; 2017 : #else	// __WORLDSERVER
; 2018 : 
; 2019 : 	if( IsActiveMover() )
; 2020 : 	{
; 2021 : 		if( m_nCorr != 0 )
; 2022 : 		{
; 2023 : 			if( m_nCorr < 0 ) {
; 2024 : 				ClearDest();
; 2025 : 				SendActMsg( OBJMSG_STAND );
; 2026 : 			}
; 2027 : 			if( m_pActMover->IsFly() )
; 2028 : 				g_DPlay.SendPlayerCorr2();
; 2029 : 			else
; 2030 : 				g_DPlay.SendPlayerCorr();
; 2031 : 			m_nCorr		= 0;
; 2032 : 		}
; 2033 : 	}
; 2034 : 	else
; 2035 : 	{
; 2036 : #if __VER >= 9	//__AI_0509
; 2037 : 		if( IsPlayer() || GetSpeedFactor() < 1.9F )
; 2038 : #endif	// __AI_0509
; 2039 : 		{
; 2040 : 			if( FALSE == IsEmptyDest() && FALSE == m_fWaitQueryGetPos )
; 2041 : 			{
; 2042 : 				g_DPlay.SendQueryGetPos( this );
; 2043 : 				m_fWaitQueryGetPos	= TRUE;
; 2044 : 			}
; 2045 : 		}
; 2046 : 	}
; 2047 : #endif	// not __WORLDSERVER
; 2048 : }

  0018c	8b 4d fc	 mov	 ecx, DWORD PTR __$ArrayPad$[ebp]
  0018f	33 cd		 xor	 ecx, ebp
  00191	e8 00 00 00 00	 call	 @__security_check_cookie@4
  00196	8b e5		 mov	 esp, ebp
  00198	5d		 pop	 ebp
  00199	c3		 ret	 0
$LN6@OnActDrop:
; File C:\IAGOS\server\v18\Source\Source\_Common\Obj.h

; 215  : 	D3DXVECTOR3		GetPos()	{ return m_vPos; }

  0019a	f3 0f 7e 87 60
	01 00 00	 movq	 xmm0, QWORD PTR [edi+352]
; File C:\IAGOS\server\v18\Source\Source\_Common\MoverActEvent.cpp

; 2003 : 				g_UserMng.AddMoverCorr( this, GetPos(), m_pActMover->m_vDelta, GetAngle(),

  001a2	89 45 e8	 mov	 DWORD PTR tv581[ebp], eax
  001a5	8b 87 78 01 00
	00		 mov	 eax, DWORD PTR [edi+376]
; File C:\IAGOS\server\v18\Source\Source\_Common\Obj.h

; 215  : 	D3DXVECTOR3		GetPos()	{ return m_vPos; }

  001ab	66 0f d6 45 f0	 movq	 QWORD PTR $T5[ebp], xmm0
; File C:\IAGOS\server\v18\Source\Source\_Common\MoverActEvent.cpp

; 2003 : 				g_UserMng.AddMoverCorr( this, GetPos(), m_pActMover->m_vDelta, GetAngle(),

  001b0	8b 98 b4 00 00
	00		 mov	 ebx, DWORD PTR [eax+180]
  001b6	8b 87 38 02 00
	00		 mov	 eax, DWORD PTR [edi+568]
  001bc	8b bf d8 02 00
	00		 mov	 edi, DWORD PTR [edi+728]
  001c2	89 45 ec	 mov	 DWORD PTR tv552[ebp], eax
  001c5	8b b0 8c 00 00
	00		 mov	 esi, DWORD PTR [eax+140]
  001cb	e8 00 00 00 00	 call	 ?GetTickCount@CTickCount@@QAE_JXZ ; CTickCount::GetTickCount
  001d0	f3 0f 10 45 dc	 movss	 xmm0, DWORD PTR $T1[ebp]
  001d5	52		 push	 edx
  001d6	50		 push	 eax
  001d7	ff 75 e8	 push	 DWORD PTR tv581[ebp]
  001da	8b 45 ec	 mov	 eax, DWORD PTR tv552[ebp]
  001dd	53		 push	 ebx
  001de	56		 push	 esi
  001df	8b 75 d8	 mov	 esi, DWORD PTR _this$GSCopy$1$[ebp]
  001e2	83 c0 50	 add	 eax, 80			; 00000050H
  001e5	57		 push	 edi
  001e6	ff 75 e4	 push	 DWORD PTR tv577[ebp]
  001e9	ff 75 e0	 push	 DWORD PTR $T2[ebp]
  001ec	51		 push	 ecx
  001ed	f3 0f 11 04 24	 movss	 DWORD PTR [esp], xmm0
  001f2	b9 00 00 00 00	 mov	 ecx, OFFSET ?g_UserMng@@3VCUserMng@@A ; g_UserMng
  001f7	50		 push	 eax
  001f8	8d 45 f0	 lea	 eax, DWORD PTR $T5[ebp]
  001fb	50		 push	 eax
  001fc	56		 push	 esi
  001fd	e8 00 00 00 00	 call	 ?AddMoverCorr@CUserMng@@QAEXPAVCMover@@AAUD3DXVECTOR3@@1MKKKHHK_J@Z ; CUserMng::AddMoverCorr

; 2004 : 					m_pActMover->GetState(), m_pActMover->GetStateFlag(), m_dwMotion, m_pActMover->m_nMotionEx,
; 2005 : 					m_pModel->m_nLoop, m_dwMotionOption, g_TickCount.GetTickCount() );
; 2006 : 			m_nCorr		= 0;

  00202	c7 86 74 02 00
	00 00 00 00 00	 mov	 DWORD PTR [esi+628], 0
  0020c	5e		 pop	 esi
  0020d	5b		 pop	 ebx
  0020e	5f		 pop	 edi

; 2015 : 		}
; 2016 : 	}
; 2017 : #else	// __WORLDSERVER
; 2018 : 
; 2019 : 	if( IsActiveMover() )
; 2020 : 	{
; 2021 : 		if( m_nCorr != 0 )
; 2022 : 		{
; 2023 : 			if( m_nCorr < 0 ) {
; 2024 : 				ClearDest();
; 2025 : 				SendActMsg( OBJMSG_STAND );
; 2026 : 			}
; 2027 : 			if( m_pActMover->IsFly() )
; 2028 : 				g_DPlay.SendPlayerCorr2();
; 2029 : 			else
; 2030 : 				g_DPlay.SendPlayerCorr();
; 2031 : 			m_nCorr		= 0;
; 2032 : 		}
; 2033 : 	}
; 2034 : 	else
; 2035 : 	{
; 2036 : #if __VER >= 9	//__AI_0509
; 2037 : 		if( IsPlayer() || GetSpeedFactor() < 1.9F )
; 2038 : #endif	// __AI_0509
; 2039 : 		{
; 2040 : 			if( FALSE == IsEmptyDest() && FALSE == m_fWaitQueryGetPos )
; 2041 : 			{
; 2042 : 				g_DPlay.SendQueryGetPos( this );
; 2043 : 				m_fWaitQueryGetPos	= TRUE;
; 2044 : 			}
; 2045 : 		}
; 2046 : 	}
; 2047 : #endif	// not __WORLDSERVER
; 2048 : }

  0020f	8b 4d fc	 mov	 ecx, DWORD PTR __$ArrayPad$[ebp]
  00212	33 cd		 xor	 ecx, ebp
  00214	e8 00 00 00 00	 call	 @__security_check_cookie@4
  00219	8b e5		 mov	 esp, ebp
  0021b	5d		 pop	 ebp
  0021c	c3		 ret	 0
$LN3@OnActDrop:
; File C:\IAGOS\server\v18\Source\Source\_Common\Mover.h

; 1036 : 	BOOL			IsEmptyDestPos()	{ return m_vDestPos.x == 0.0f && m_vDestPos.z == 0.0f; }

  0021d	f3 0f 10 87 5c
	02 00 00	 movss	 xmm0, DWORD PTR [edi+604]
  00225	0f 57 c9	 xorps	 xmm1, xmm1
  00228	0f 2e c1	 ucomiss xmm0, xmm1
  0022b	9f		 lahf
  0022c	f6 c4 44	 test	 ah, 68			; 00000044H
  0022f	7a 1a		 jp	 SHORT $LN50@OnActDrop
  00231	f3 0f 10 87 64
	02 00 00	 movss	 xmm0, DWORD PTR [edi+612]
  00239	0f 2e c1	 ucomiss xmm0, xmm1
  0023c	9f		 lahf
  0023d	f6 c4 44	 test	 ah, 68			; 00000044H
  00240	7a 09		 jp	 SHORT $LN50@OnActDrop

; 1035 : 	BOOL			IsEmptyDestObj()	{ return m_idDest == NULL_ID; }

  00242	83 bf 58 02 00
	00 ff		 cmp	 DWORD PTR [edi+600], -1

; 1037 : 	BOOL			IsEmptyDest()		{ return IsEmptyDestPos() && IsEmptyDestObj(); }

  00249	74 1c		 je	 SHORT $LN8@OnActDrop
$LN50@OnActDrop:
; File C:\IAGOS\server\v18\Source\Source\_Common\MoverActEvent.cpp

; 2011 : 		if( FALSE == IsEmptyDest() && FALSE == m_fWaitQueryGetPos )

  0024b	83 bf 70 02 00
	00 00		 cmp	 DWORD PTR [edi+624], 0
  00252	75 13		 jne	 SHORT $LN8@OnActDrop

; 2012 : 		{
; 2013 : 			( (CUser*)this )->AddQueryGetPos( NULL_ID );

  00254	6a ff		 push	 -1
  00256	8b cf		 mov	 ecx, edi
  00258	e8 00 00 00 00	 call	 ?AddQueryGetPos@CUser@@QAEXK@Z ; CUser::AddQueryGetPos

; 2014 : 			m_fWaitQueryGetPos	= TRUE;

  0025d	c7 87 70 02 00
	00 01 00 00 00	 mov	 DWORD PTR [edi+624], 1
$LN8@OnActDrop:

; 2015 : 		}
; 2016 : 	}
; 2017 : #else	// __WORLDSERVER
; 2018 : 
; 2019 : 	if( IsActiveMover() )
; 2020 : 	{
; 2021 : 		if( m_nCorr != 0 )
; 2022 : 		{
; 2023 : 			if( m_nCorr < 0 ) {
; 2024 : 				ClearDest();
; 2025 : 				SendActMsg( OBJMSG_STAND );
; 2026 : 			}
; 2027 : 			if( m_pActMover->IsFly() )
; 2028 : 				g_DPlay.SendPlayerCorr2();
; 2029 : 			else
; 2030 : 				g_DPlay.SendPlayerCorr();
; 2031 : 			m_nCorr		= 0;
; 2032 : 		}
; 2033 : 	}
; 2034 : 	else
; 2035 : 	{
; 2036 : #if __VER >= 9	//__AI_0509
; 2037 : 		if( IsPlayer() || GetSpeedFactor() < 1.9F )
; 2038 : #endif	// __AI_0509
; 2039 : 		{
; 2040 : 			if( FALSE == IsEmptyDest() && FALSE == m_fWaitQueryGetPos )
; 2041 : 			{
; 2042 : 				g_DPlay.SendQueryGetPos( this );
; 2043 : 				m_fWaitQueryGetPos	= TRUE;
; 2044 : 			}
; 2045 : 		}
; 2046 : 	}
; 2047 : #endif	// not __WORLDSERVER
; 2048 : }

  00267	8b 4d fc	 mov	 ecx, DWORD PTR __$ArrayPad$[ebp]
  0026a	33 cd		 xor	 ecx, ebp
  0026c	5f		 pop	 edi
  0026d	e8 00 00 00 00	 call	 @__security_check_cookie@4
  00272	8b e5		 mov	 esp, ebp
  00274	5d		 pop	 ebp
  00275	c3		 ret	 0
?OnActDrop@CMover@@QAEXXZ ENDP				; CMover::OnActDrop
_TEXT	ENDS
; Function compile flags: /Ogtp
; File C:\IAGOS\server\v18\Source\Source\_Common\MoverActEvent.cpp
; File C:\IAGOS\server\v18\Source\Source\_Common\Obj.h
; File C:\IAGOS\server\v18\Source\Source\_Common\MoverActEvent.cpp
; File C:\IAGOS\server\v18\Source\Source\_AIInterface\Action.h
; File C:\IAGOS\server\v18\Source\Source\_Common\Mover.h
; File C:\IAGOS\server\v18\Source\Source\_AIInterface\ActionMover.h
; File C:\IAGOS\server\v18\Source\Source\_Common\MoverActEvent.cpp
; File C:\IAGOS\server\v18\Source\Source\_AIInterface\ActionMover.h
; File C:\IAGOS\server\v18\Source\Source\_Common\MoverActEvent.cpp
;	COMDAT ?OnAttackSP@CMover@@QAEHXZ
_TEXT	SEGMENT
?OnAttackSP@CMover@@QAEHXZ PROC				; CMover::OnAttackSP, COMDAT
; _this$ = ecx

; 1940 : {

  00000	53		 push	 ebx
  00001	56		 push	 esi
  00002	57		 push	 edi
  00003	8b f9		 mov	 edi, ecx

; 1941 : 	int		idTarget = GetActParam( 0 );		
; 1942 : 	int		nItemID = GetActParam( 1 );	// 사용할 아이템 아이디
; 1943 : 	
; 1944 : 	CMover* pHit = prj.GetMover( idTarget );	// 타겟의 포인터를 얻어냄.

  00005	b9 00 00 00 00	 mov	 ecx, OFFSET ?prj@@3VCProject@@A ; prj
  0000a	ff b7 b0 11 00
	00		 push	 DWORD PTR [edi+4528]
  00010	8b b7 b4 11 00
	00		 mov	 esi, DWORD PTR [edi+4532]
  00016	e8 00 00 00 00	 call	 ?GetMover@CProject@@QAEPAVCMover@@K@Z ; CProject::GetMover
  0001b	8b d8		 mov	 ebx, eax
; File C:\IAGOS\server\v18\Source\Source\_Common\Obj.h

; 327  : 	return pObj && ( pObj->IsDelete() == FALSE ); 

  0001d	85 db		 test	 ebx, ebx
  0001f	74 3e		 je	 SHORT $LN32@OnAttackSP

; 180  : 	BOOL			IsDelete()	{ return (m_dwFlags & OBJ_FLAG_DELETE);  }

  00021	f6 43 04 01	 test	 BYTE PTR [ebx+4], 1

; 327  : 	return pObj && ( pObj->IsDelete() == FALSE ); 

  00025	75 38		 jne	 SHORT $LN32@OnAttackSP
; File C:\IAGOS\server\v18\Source\Source\_Common\MoverActEvent.cpp

; 1948 : 	if( nItemID == NULL_ID || nItemID == 0 )	

  00027	83 fe ff	 cmp	 esi, -1
  0002a	74 11		 je	 SHORT $LN5@OnAttackSP
  0002c	85 f6		 test	 esi, esi
  0002e	74 0d		 je	 SHORT $LN5@OnAttackSP

; 1950 : 	else
; 1951 : 		pItemProp = prj.GetItemProp( nItemID );	// 직접 아이템을 지정한 경우는 그걸로 공격함(몬스터가 주로 사용함)

  00030	56		 push	 esi
  00031	b9 00 00 00 00	 mov	 ecx, OFFSET ?prj@@3VCProject@@A ; prj
  00036	e8 00 00 00 00	 call	 ?GetItemProp@CProject@@QAEPAUItemProp@@H@Z ; CProject::GetItemProp
  0003b	eb 09		 jmp	 SHORT $LN4@OnAttackSP
$LN5@OnAttackSP:

; 1949 : 		pItemProp = GetActiveHandItemProp();	// 이런경우는 걍 손에 든 무기(혹은 기본아이템)

  0003d	6a 0a		 push	 10			; 0000000aH
  0003f	8b cf		 mov	 ecx, edi
  00041	e8 00 00 00 00	 call	 ?GetActiveHandItemProp@CMover@@QAEPAUItemProp@@H@Z ; CMover::GetActiveHandItemProp
$LN4@OnAttackSP:

; 1952 : 
; 1953 : 	if( pItemProp == NULL )

  00046	85 c0		 test	 eax, eax
  00048	75 1b		 jne	 SHORT $LN6@OnAttackSP

; 1954 : 	{
; 1955 : 		Error( "CMover::OnAttackSP : %s의 itemProp이 없다. %d", m_szName, nItemID );

  0004a	56		 push	 esi
  0004b	8d 87 ec 14 00
	00		 lea	 eax, DWORD PTR [edi+5356]
  00051	50		 push	 eax
  00052	68 00 00 00 00	 push	 OFFSET ??_C@_0CO@HAMCEPMB@CMover?3?3OnAttackSP?5?3?5?$CFs?$MA?G?5itemP@
  00057	e8 00 00 00 00	 call	 ?Error@@YAPBDPBDZZ	; Error
  0005c	83 c4 0c	 add	 esp, 12			; 0000000cH
$LN32@OnAttackSP:

; 1974 : }                                                         

  0005f	5f		 pop	 edi
  00060	5e		 pop	 esi
  00061	33 c0		 xor	 eax, eax
  00063	5b		 pop	 ebx
  00064	c3		 ret	 0
$LN6@OnAttackSP:

; 1956 : 		return FALSE;
; 1957 : 	}
; 1958 : 
; 1959 : 	if( pItemProp->dwSpellRegion == SRO_AROUND )

  00065	83 b8 cc 01 00
	00 07		 cmp	 DWORD PTR [eax+460], 7
  0006c	75 4c		 jne	 SHORT $LN7@OnAttackSP

; 1960 : 	{	
; 1961 : 		SendDamageAround( AF_GENERIC, this, OBJTYPE_PLAYER, nItemID, (float)( pItemProp->_dwSkillRange ), 0.0, 1.0f );	// 범위공격스따일

  0006e	8b 80 9c 01 00
	00		 mov	 eax, DWORD PTR [eax+412]
  00074	83 ec 0c	 sub	 esp, 12			; 0000000cH
  00077	8b cf		 mov	 ecx, edi
  00079	66 0f 6e c0	 movd	 xmm0, eax
  0007d	f3 0f e6 c0	 cvtdq2pd xmm0, xmm0
  00081	c7 44 24 08 00
	00 80 3f	 mov	 DWORD PTR [esp+8], 1065353216 ; 3f800000H
  00089	c7 44 24 04 00
	00 00 00	 mov	 DWORD PTR [esp+4], 0
  00091	c1 e8 1f	 shr	 eax, 31			; 0000001fH
  00094	f2 0f 58 04 c5
	00 00 00 00	 addsd	 xmm0, QWORD PTR __xmm@41f00000000000000000000000000000[eax*8]
  0009d	66 0f 5a c0	 cvtpd2ps xmm0, xmm0
  000a1	f3 0f 11 04 24	 movss	 DWORD PTR [esp], xmm0
  000a6	56		 push	 esi
  000a7	6a 01		 push	 1
  000a9	57		 push	 edi
  000aa	6a 01		 push	 1
  000ac	e8 00 00 00 00	 call	 ?SendDamageAround@CMover@@QAEXHPAV1@HHMMM@Z ; CMover::SendDamageAround
  000b1	5f		 pop	 edi

; 1974 : }                                                         

  000b2	5e		 pop	 esi
  000b3	b8 01 00 00 00	 mov	 eax, 1
  000b8	5b		 pop	 ebx
  000b9	c3		 ret	 0
$LN7@OnAttackSP:
; File C:\IAGOS\server\v18\Source\Source\_AIInterface\Action.h

; 310  : 	BOOL			IsDie() { return (m_dwState & OBJSTA_DIE_ALL) ? TRUE : FALSE; }

  000ba	8b 8b 38 02 00
	00		 mov	 ecx, DWORD PTR [ebx+568]
; File C:\IAGOS\server\v18\Source\Source\_Common\Mover.h

; 1251 : 	BOOL			IsLive() { return m_pActMover->IsDie() == FALSE || m_nHitPoint > 0; }		// && 를  ||로 바꿨음.  !=를 >로 바꿈

  000c0	f7 41 04 00 00
	00 08		 test	 DWORD PTR [ecx+4], 134217728 ; 08000000H
  000c7	74 09		 je	 SHORT $LN31@OnAttackSP
  000c9	83 bb f8 05 00
	00 00		 cmp	 DWORD PTR [ebx+1528], 0
  000d0	7e 17		 jle	 SHORT $LN9@OnAttackSP
$LN31@OnAttackSP:
; File C:\IAGOS\server\v18\Source\Source\_AIInterface\ActionMover.h

; 134  : 	int				SendDamage( DWORD dwAtkFlags, OBJID idSender, int nParam = 0, BOOL bTarget = TRUE, int nReflect = 0 )	{	return SendActMsg( OBJMSG_DAMAGE, dwAtkFlags, idSender, nParam, bTarget, nReflect );	}

  000d2	8b 01		 mov	 eax, DWORD PTR [ecx]
  000d4	6a 00		 push	 0
  000d6	6a 01		 push	 1
; File C:\IAGOS\server\v18\Source\Source\_Common\MoverActEvent.cpp

; 1969 : 			pHit->m_pActMover->SendDamage( AF_GENERIC, GetId(), (nItemID << 16) );	// 직접 공격 스따일.

  000d8	c1 e6 10	 shl	 esi, 16			; 00000010H
; File C:\IAGOS\server\v18\Source\Source\_AIInterface\ActionMover.h

; 134  : 	int				SendDamage( DWORD dwAtkFlags, OBJID idSender, int nParam = 0, BOOL bTarget = TRUE, int nReflect = 0 )	{	return SendActMsg( OBJMSG_DAMAGE, dwAtkFlags, idSender, nParam, bTarget, nReflect );	}

  000db	56		 push	 esi
  000dc	ff b7 bc 01 00
	00		 push	 DWORD PTR [edi+444]
  000e2	6a 01		 push	 1
  000e4	6a 29		 push	 41			; 00000029H
  000e6	ff 50 04	 call	 DWORD PTR [eax+4]
$LN9@OnAttackSP:
  000e9	5f		 pop	 edi
; File C:\IAGOS\server\v18\Source\Source\_Common\MoverActEvent.cpp

; 1974 : }                                                         

  000ea	5e		 pop	 esi
  000eb	b8 01 00 00 00	 mov	 eax, 1
  000f0	5b		 pop	 ebx
  000f1	c3		 ret	 0
?OnAttackSP@CMover@@QAEHXZ ENDP				; CMover::OnAttackSP
_TEXT	ENDS
; Function compile flags: /Ogtp
; File C:\IAGOS\server\v18\Source\Source\_Common\MoverActEvent.cpp
; File C:\IAGOS\server\v18\Source\Source\_Common\Obj.h
; File C:\IAGOS\server\v18\Source\Source\_Common\MoverActEvent.cpp
;	COMDAT ?OnAttackMagic@CMover@@QAEHXZ
_TEXT	SEGMENT
?OnAttackMagic@CMover@@QAEHXZ PROC			; CMover::OnAttackMagic, COMDAT
; _this$ = ecx

; 845  : {

  00000	53		 push	 ebx
  00001	56		 push	 esi
  00002	8b f1		 mov	 esi, ecx

; 846  : 	int		idTarget = GetActParam( 0 );
; 847  : 	int		nMagicPower = GetActParam( 1 );
; 848  : #if __VER >= 8 // __S8_PK
; 849  : 	BOOL	bControl = GetActParam( 4 );
; 850  : #endif // __VER >= 8 // __S8_PK
; 851  : 
; 852  : 	CMover* pHit = prj.GetMover( idTarget );	// 타겟의 포인터를 얻어냄.

  00004	b9 00 00 00 00	 mov	 ecx, OFFSET ?prj@@3VCProject@@A ; prj
  00009	57		 push	 edi
  0000a	ff b6 b0 11 00
	00		 push	 DWORD PTR [esi+4528]
  00010	8b be b4 11 00
	00		 mov	 edi, DWORD PTR [esi+4532]
  00016	8b 9e c0 11 00
	00		 mov	 ebx, DWORD PTR [esi+4544]
  0001c	e8 00 00 00 00	 call	 ?GetMover@CProject@@QAEPAVCMover@@K@Z ; CProject::GetMover
; File C:\IAGOS\server\v18\Source\Source\_Common\Obj.h

; 327  : 	return pObj && ( pObj->IsDelete() == FALSE ); 

  00021	85 c0		 test	 eax, eax
  00023	74 36		 je	 SHORT $LN18@OnAttackMa

; 180  : 	BOOL			IsDelete()	{ return (m_dwFlags & OBJ_FLAG_DELETE);  }

  00025	f6 40 04 01	 test	 BYTE PTR [eax+4], 1

; 327  : 	return pObj && ( pObj->IsDelete() == FALSE ); 

  00029	75 30		 jne	 SHORT $LN18@OnAttackMa
; File C:\IAGOS\server\v18\Source\Source\_Common\MoverActEvent.cpp

; 859  : 	OnAttackSFX( pHit->GetId(), nMagicPower, NULL_ID, 0, 0, 0, AF_MAGIC, bControl );

  0002b	53		 push	 ebx
  0002c	6a 08		 push	 8
  0002e	83 ec 08	 sub	 esp, 8
  00031	8b ce		 mov	 ecx, esi
  00033	c7 44 24 04 00
	00 00 00	 mov	 DWORD PTR [esp+4], 0
  0003b	c7 04 24 00 00
	00 00		 mov	 DWORD PTR [esp], 0
  00042	6a 00		 push	 0
  00044	6a ff		 push	 -1
  00046	57		 push	 edi
  00047	ff b0 bc 01 00
	00		 push	 DWORD PTR [eax+444]
  0004d	e8 00 00 00 00	 call	 ?OnAttackSFX@CMover@@QAEXKHKHMMKH@Z ; CMover::OnAttackSFX
  00052	5f		 pop	 edi

; 860  : #else // __VER >= 8 // __S8_PK
; 861  : 	OnAttackSFX( pHit->GetId(), nMagicPower, NULL_ID, 0, 0, 0, AF_MAGIC );
; 862  : #endif // __VER >= 8 // __S8_PK
; 863  : #else	// __WORLDSERVER
; 864  : 	DWORD dwWeaponId;
; 865  : 
; 866  : 	if( IsActiveMover() ) 
; 867  : 	{
; 868  : 		CItemElem* pWeapon = GetWeaponItem();
; 869  : 		if( pWeapon == NULL )	return FALSE;
; 870  : 		dwWeaponId	= pWeapon->m_dwItemId;
; 871  : 	}
; 872  : 	else 
; 873  : 	{
; 874  : 		dwWeaponId	= m_aEquipInfo[PARTS_RWEAPON].dwId;
; 875  : 		if( dwWeaponId == NULL )	return FALSE;
; 876  : 	}
; 877  : 
; 878  : #if __VER < 11 // __REMOVE_ENDURANCE
; 879  : 	if( IsActiveMover() )
; 880  : 	{
; 881  : 		CItemElem* pWeapon = GetWeaponItem();
; 882  : 		ItemProp* pItemProp		= pWeapon->GetProp();
; 883  : 		if( pItemProp )
; 884  : 			if( ( ( pWeapon->m_nHitPoint * 100 ) / pItemProp->dwEndurance ) == 0 )
; 885  : 				g_WndMng.PutString( prj.GetText( TID_GAME_WASTEENDURANCE ), NULL, prj.GetTextColor( TID_GAME_WASTEENDURANCE ) );
; 886  : 	}
; 887  : #endif // __REMOVE_ENDURANCE
; 888  : 
; 889  : 	D3DXVECTOR3 vPosDest = pHit->GetPos(); 
; 890  : 	// 발사 목표지점은 상대의 중앙.
; 891  : 	float fHeight = fabs(pHit->m_pModel->m_vMax.y) / 2.0f;	// 아이바트같은넘은 공중에 떠있기땜에 순수 높이인 Max값만 취했다.
; 892  : 	fHeight *= pHit->GetScale().x;
; 893  : 	vPosDest.y += fHeight;	
; 894  : 
; 895  : 	D3DXVECTOR3 vPosSrc = GetPos() + D3DXVECTOR3( 0.0f, 1.0f, 0.0f ); // 발사 지점을 임의로 올려준다. 땜빵 
; 896  : 
; 897  : 	ItemProp *pHandItemProp = GetActiveHandItemProp( PARTS_RWEAPON );
; 898  : 	CSfx* pSfx = NULL;
; 899  : 	if( m_pActMover->IsFly() )
; 900  : 	{
; 901  : 		pSfx = CreateSfx( D3DDEVICE, XI_FIR_WAND02, vPosSrc, GetId(), vPosDest, idTarget );
; 902  : 		if( pSfx )
; 903  : 			pSfx->ShootSfx( GetAngle(), -GetAngleX(), 0.75f );		 
; 904  : 	} 
; 905  : 	else
; 906  : 	{
; 907  : 		DWORD dwSfxObj2 = XI_FIR_WAND01;
; 908  : 		if( pHandItemProp )
; 909  : 			dwSfxObj2 = pHandItemProp->dwSfxObj2;
; 910  : 
; 911  : 		pSfx = CreateSfx( D3DDEVICE, dwSfxObj2, vPosSrc,GetId(), vPosDest ,idTarget );
; 912  : 		if( pSfx )
; 913  : 		{
; 914  : 			switch(nMagicPower) 
; 915  : 			{
; 916  : 			case 1:		pSfx->SetScale( D3DXVECTOR3( 1.2f, 1.2f, 1.2f ) );	break;
; 917  : 			case 2:		pSfx->SetScale( D3DXVECTOR3( 1.7f, 1.7f, 1.7f ) );	break;
; 918  : 			case 3:
; 919  : 			case 4:		pSfx->SetScale( D3DXVECTOR3( 2.5f, 2.5f, 2.5f ) );	break;
; 920  : 			}
; 921  : 			((CSfxItemWandAtk1 *)pSfx)->m_fCenter = fHeight;		
; 922  : 		}
; 923  : 	}
; 924  : 
; 925  : 	if( pSfx )
; 926  : 	{
; 927  : 		if( IsActiveMover() )		// g_pPlayer만 아래짓을 하게 한다.
; 928  : 		{
; 929  : 			int idSfxHit = ++m_idSfxHit;			// 클라에서 발사체가 생성된 즉시 ID를 만들고 그것을 서버로 보냄.
; 930  : 			g_DPlay.SendSfxID( idTarget, idSfxHit, AF_MAGIC );
; 931  : 			pSfx->m_idSfxHit	= idSfxHit;
; 932  : 			pSfx->m_nMagicPower = nMagicPower;		// 충전레벨도 넣어준다.
; 933  : 		}
; 934  : 	}
; 935  : 
; 936  : 
; 937  : 	CModelObject* pModel = (CModelObject*)m_pModel;
; 938  : 	if( pModel )
; 939  : 	{
; 940  : 		pModel->m_SparkInfo.m_bUsed  = TRUE;
; 941  : 		pModel->m_SparkInfo.m_v3Color.x = 2.0f;
; 942  : 		pModel->m_SparkInfo.m_v3Color.y = 2.0f;
; 943  : 		pModel->m_SparkInfo.m_v3Color.z = 2.0f;
; 944  : 		pModel->m_SparkInfo.m_nCnt = 0;
; 945  : 		pModel->m_SparkInfo.m_fLerp= 1.0f;
; 946  : 		
; 947  : 		AngleToVectorXZ( &pModel->m_SparkInfo.m_v3SparkDir, GetAngle(), -1.0f );
; 948  : 	}
; 949  : #endif // __WORLDSERVER
; 950  : 	return TRUE;
; 951  : }

  00053	5e		 pop	 esi
  00054	b8 01 00 00 00	 mov	 eax, 1
  00059	5b		 pop	 ebx
  0005a	c3		 ret	 0
$LN18@OnAttackMa:
  0005b	5f		 pop	 edi
  0005c	5e		 pop	 esi
  0005d	33 c0		 xor	 eax, eax
  0005f	5b		 pop	 ebx
  00060	c3		 ret	 0
?OnAttackMagic@CMover@@QAEHXZ ENDP			; CMover::OnAttackMagic
_TEXT	ENDS
; Function compile flags: /Ogtp
; File C:\IAGOS\server\v18\Source\Source\_Common\MoverActEvent.cpp
; File C:\IAGOS\server\v18\Source\Source\_Common\ModelObject.h
; File C:\IAGOS\server\v18\Source\Source\_Common\MoverActEvent.cpp
; File C:\IAGOS\server\v18\Source\Source\_Common\Obj.h
; File C:\IAGOS\server\v18\Source\Source\_Common\MoverActEvent.cpp
; File C:\IAGOS\server\v18\Source\Source\_Common\Obj.h
; File C:\IAGOS\server\v18\Source\Source\_Common\MoverActEvent.cpp
; File C:\IAGOS\server\v18\Source\Source\_Common\Obj.h
; File C:\IAGOS\server\v18\Source\Source\_Common\MoverActEvent.cpp
; File C:\IAGOS\server\v18\Source\Source\_Common\Obj.h
; File C:\IAGOS\server\v18\Source\Source\_Common\MoverActEvent.cpp
; File C:\IAGOS\server\v18\Source\Source\_Common\Obj.h
; File C:\IAGOS\server\v18\Source\Source\_Common\MoverActEvent.cpp
; File C:\IAGOS\server\v18\Source\Source\_Common\Obj.h
; File C:\IAGOS\server\v18\Source\Source\_Common\MoverActEvent.cpp
; File C:\IAGOS\server\v18\Source\Source\_Common\Obj.h
; File C:\IAGOS\server\v18\Source\Source\_Common\MoverActEvent.cpp
; File C:\IAGOS\server\v18\Source\Source\_Common\Obj.h
; File C:\IAGOS\server\v18\Source\Source\_Common\MoverActEvent.cpp
; File C:\IAGOS\server\v18\Source\Source\_Common\xUtil.h
; File C:\IAGOS\server\v18\Source\Source\_Common\MoverActEvent.cpp
; File C:\IAGOS\server\v18\Source\Source\_Common\Obj.h
; File C:\IAGOS\server\v18\Source\Source\_Common\MoverActEvent.cpp
;	COMDAT ?OnAttackMelee_Meteonyker@CMover@@QAEXKPAV1@@Z
_TEXT	SEGMENT
_nItemID$1$ = -44					; size = 4
tv370 = -40						; size = 4
_pModel$1$ = -40					; size = 4
_pAddSkillProp$1 = -36					; size = 4
_pAddSkillProp$2 = -36					; size = 4
_pHitObj$GSCopy$1$ = -36				; size = 4
_pSkillProp$3 = -32					; size = 4
_pSkillProp$4 = -32					; size = 4
_this$GSCopy$1$ = -32					; size = 4
$T5 = -28						; size = 12
_vPos$6 = -16						; size = 12
_vPos$7 = -16						; size = 12
__$ArrayPad$ = -4					; size = 4
_dwState$ = 8						; size = 4
_pHitObj$ = 12						; size = 4
?OnAttackMelee_Meteonyker@CMover@@QAEXKPAV1@@Z PROC	; CMover::OnAttackMelee_Meteonyker, COMDAT
; _this$ = ecx

; 1342 : {

  00000	55		 push	 ebp
  00001	8b ec		 mov	 ebp, esp
  00003	83 ec 2c	 sub	 esp, 44			; 0000002cH
  00006	a1 00 00 00 00	 mov	 eax, DWORD PTR ___security_cookie
  0000b	33 c5		 xor	 eax, ebp
  0000d	89 45 fc	 mov	 DWORD PTR __$ArrayPad$[ebp], eax
  00010	53		 push	 ebx
  00011	8b d9		 mov	 ebx, ecx
  00013	56		 push	 esi
  00014	8b 75 0c	 mov	 esi, DWORD PTR _pHitObj$[ebp]
  00017	57		 push	 edi

; 1343 : 	int		nItemID = GetActParam( 1 );	// 사용할 아이템 아이디

  00018	8b 83 b4 11 00
	00		 mov	 eax, DWORD PTR [ebx+4532]
  0001e	89 45 d4	 mov	 DWORD PTR _nItemID$1$[ebp], eax

; 1344 : 
; 1345 : 	CModelObject *pModel = (CModelObject *)m_pModel;

  00021	8b 83 78 01 00
	00		 mov	 eax, DWORD PTR [ebx+376]
  00027	89 5d e0	 mov	 DWORD PTR _this$GSCopy$1$[ebp], ebx
  0002a	89 75 dc	 mov	 DWORD PTR _pHitObj$GSCopy$1$[ebp], esi
  0002d	89 45 d8	 mov	 DWORD PTR _pModel$1$[ebp], eax

; 1346 : 	
; 1347 : #ifdef __WORLDSERVER
; 1348 : 	UpdateMatrix();		// 몸체의 특정부위에서 나는 데미지를 처리하기 위해선 서버에서도 매트릭스를 갱신해야한다.

  00030	e8 00 00 00 00	 call	 ?UpdateMatrix@CObj@@QAEXXZ ; CObj::UpdateMatrix
; File C:\IAGOS\server\v18\Source\Source\_Common\ModelObject.h

; 311  : 		if( m_pMotion )		// 현재 프레임의 모션에 대한 매트릭스를 갱신시킴.

  00035	8b 45 d8	 mov	 eax, DWORD PTR _pModel$1$[ebp]
  00038	83 b8 8c 2a 00
	00 00		 cmp	 DWORD PTR [eax+10892], 0
  0003f	74 5b		 je	 SHORT $LN18@OnAttackMe

; 312  : 			m_pMotion->AnimateBone( m_mUpdateBone, m_pMotionOld, m_fFrameCurrent, GetNextFrame(), m_nFrameOld, m_bMotionBlending, m_fBlendWeight );	

  00041	f3 0f 10 80 c4
	00 00 00	 movss	 xmm0, DWORD PTR [eax+196]
  00049	f3 0f 10 88 a0
	00 00 00	 movss	 xmm1, DWORD PTR [eax+160]
  00051	8b b0 88 2a 00
	00		 mov	 esi, DWORD PTR [eax+10888]
  00057	8b b8 9c 2a 00
	00		 mov	 edi, DWORD PTR [eax+10908]
  0005d	8b 98 8c 2a 00
	00		 mov	 ebx, DWORD PTR [eax+10892]
  00063	51		 push	 ecx
  00064	f3 0f 11 04 24	 movss	 DWORD PTR [esp], xmm0
  00069	8b c8		 mov	 ecx, eax
  0006b	ff b0 c0 00 00
	00		 push	 DWORD PTR [eax+192]
  00071	f3 0f 11 4d d8	 movss	 DWORD PTR tv370[ebp], xmm1
  00076	ff b0 98 2a 00
	00		 push	 DWORD PTR [eax+10904]
  0007c	e8 00 00 00 00	 call	 ?GetNextFrame@CModel@@QAEHXZ ; CModel::GetNextFrame
  00081	f3 0f 10 45 d8	 movss	 xmm0, DWORD PTR tv370[ebp]
  00086	50		 push	 eax
  00087	51		 push	 ecx
  00088	f3 0f 11 04 24	 movss	 DWORD PTR [esp], xmm0
  0008d	8b cb		 mov	 ecx, ebx
  0008f	56		 push	 esi
  00090	57		 push	 edi
  00091	e8 00 00 00 00	 call	 ?AnimateBone@CMotion@@QAEXPAUD3DXMATRIX@@PAV1@MHHHM@Z ; CMotion::AnimateBone
  00096	8b 5d e0	 mov	 ebx, DWORD PTR _this$GSCopy$1$[ebp]
  00099	8b 75 dc	 mov	 esi, DWORD PTR _pHitObj$GSCopy$1$[ebp]
$LN18@OnAttackMe:
; File C:\IAGOS\server\v18\Source\Source\_Common\MoverActEvent.cpp

; 1352 : 	switch( dwState )

  0009c	8b 7d 08	 mov	 edi, DWORD PTR _dwState$[ebp]
  0009f	81 ff 00 00 01
	00		 cmp	 edi, 65536		; 00010000H
  000a5	0f 84 6c 01 00
	00		 je	 $LN4@OnAttackMe
  000ab	81 ff 00 00 03
	00		 cmp	 edi, 196608		; 00030000H
  000b1	0f 84 91 00 00
	00		 je	 $LN6@OnAttackMe
  000b7	81 ff 00 00 04
	00		 cmp	 edi, 262144		; 00040000H
  000bd	0f 85 6e 01 00
	00		 jne	 $LN5@OnAttackMe

; 1383 : 					}
; 1384 : 
; 1385 : 	#ifdef __CLIENT
; 1386 : 					CSfx *pSfx = CreateSfx( D3DDEVICE, XI_NPCSP1RANBALL, vPos, GetId(), pTarget->GetPos(), pTarget->GetId(), -1 );		// 포탄
; 1387 : 					if( pSfx )
; 1388 : 					{
; 1389 : 						pSfx->SetScale( D3DXVECTOR3(4.0f, 4.0f, 4.0f) );
; 1390 : 						{
; 1391 : 							FLOAT fAngXZ, fAngH;
; 1392 : 							D3DXVECTOR3 vDist = pTarget->GetPos() - vPos;
; 1393 : 							xGetDegree( &fAngXZ, &fAngH, vDist );		// 목표와의 각도구함.
; 1394 : 							((CSfxAtkStraight *)pSfx)->ShootSfx( fAngXZ, -fAngH, 2.0f, XI_NPCSP1RANBOOM );		// 날아가는 방향 설정.
; 1395 : 						}
; 1396 : 					}
; 1397 : 	#endif	// __CLIENT
; 1398 : 				}
; 1399 : 			}
; 1400 : 		}
; 1401 : 		break;
; 1402 : 	case OBJSTA_ATK4:   // 날개 접었다가 펼치기
; 1403 : 		{
; 1404 : 			if( m_pActMover->m_nMotionHitCount == 0 )

  000c3	8b 83 38 02 00
	00		 mov	 eax, DWORD PTR [ebx+568]
  000c9	83 b8 9c 00 00
	00 00		 cmp	 DWORD PTR [eax+156], 0
  000d0	0f 85 5b 01 00
	00		 jne	 $LN5@OnAttackMe

; 1405 : 			{
; 1406 : 				// 광역 효과
; 1407 : 				ItemProp *pSkillProp;
; 1408 : 				AddSkillProp *pAddSkillProp;
; 1409 : 				BOOL bSuccess = GetSkillProp( &pSkillProp, &pAddSkillProp, SI_GEN_BURN, 1, "OnAttackMelee_Meteonyker" );

  000d6	8b 03		 mov	 eax, DWORD PTR [ebx]
  000d8	8d 4d dc	 lea	 ecx, DWORD PTR _pAddSkillProp$2[ebp]
  000db	68 00 00 00 00	 push	 OFFSET ??_C@_0BJ@DLBDMEGD@OnAttackMelee_Meteonyker@
  000e0	6a 01		 push	 1
  000e2	68 34 01 00 00	 push	 308			; 00000134H
  000e7	51		 push	 ecx
  000e8	8d 4d e0	 lea	 ecx, DWORD PTR _pSkillProp$4[ebp]
  000eb	51		 push	 ecx
  000ec	8b cb		 mov	 ecx, ebx
  000ee	ff 50 30	 call	 DWORD PTR [eax+48]

; 1410 : 				if( bSuccess )

  000f1	85 c0		 test	 eax, eax
  000f3	0f 84 38 01 00
	00		 je	 $LN5@OnAttackMe
; File C:\IAGOS\server\v18\Source\Source\_Common\Obj.h

; 215  : 	D3DXVECTOR3		GetPos()	{ return m_vPos; }

  000f9	f3 0f 7e 83 60
	01 00 00	 movq	 xmm0, QWORD PTR [ebx+352]
  00101	8b 83 68 01 00
	00		 mov	 eax, DWORD PTR [ebx+360]
; File C:\IAGOS\server\v18\Source\Source\_Common\MoverActEvent.cpp

; 1413 : 					ApplySkillAround( this, OBJTYPE_PLAYER, pSkillProp, pAddSkillProp, false, FALSE, 10.0F );

  00107	6a 00		 push	 0
  00109	51		 push	 ecx
  0010a	c7 04 24 00 00
	20 41		 mov	 DWORD PTR [esp], 1092616192 ; 41200000H
  00111	8b cb		 mov	 ecx, ebx
  00113	6a 00		 push	 0
  00115	6a 00		 push	 0
  00117	ff 75 dc	 push	 DWORD PTR _pAddSkillProp$2[ebp]
; File C:\IAGOS\server\v18\Source\Source\_Common\Obj.h

; 215  : 	D3DXVECTOR3		GetPos()	{ return m_vPos; }

  0011a	66 0f d6 45 f0	 movq	 QWORD PTR _vPos$7[ebp], xmm0
; File C:\IAGOS\server\v18\Source\Source\_Common\MoverActEvent.cpp

; 1413 : 					ApplySkillAround( this, OBJTYPE_PLAYER, pSkillProp, pAddSkillProp, false, FALSE, 10.0F );

  0011f	ff 75 e0	 push	 DWORD PTR _pSkillProp$4[ebp]
; File C:\IAGOS\server\v18\Source\Source\_Common\Obj.h

; 215  : 	D3DXVECTOR3		GetPos()	{ return m_vPos; }

  00122	89 45 f8	 mov	 DWORD PTR _vPos$7[ebp+8], eax
; File C:\IAGOS\server\v18\Source\Source\_Common\MoverActEvent.cpp

; 1413 : 					ApplySkillAround( this, OBJTYPE_PLAYER, pSkillProp, pAddSkillProp, false, FALSE, 10.0F );

  00125	6a 01		 push	 1
  00127	53		 push	 ebx
  00128	e8 00 00 00 00	 call	 ?ApplySkillAround@CCtrl@@QAEXPAV1@HPAUItemProp@@PAUAddSkillProp@@_NHMH@Z ; CCtrl::ApplySkillAround

; 1414 : 					MoverProp* pProp	= GetProp();

  0012d	8b cb		 mov	 ecx, ebx
  0012f	e8 00 00 00 00	 call	 ?GetPropA@CMover@@QAEPAUMoverProp@@XZ ; CMover::GetPropA

; 1415 : 					OnDamage( pProp->dwAtk4, OBJSTA_ATK4, NULL, &vPos );

  00134	6a 01		 push	 1
  00136	8d 4d f0	 lea	 ecx, DWORD PTR _vPos$7[ebp]
  00139	51		 push	 ecx
  0013a	6a 00		 push	 0
  0013c	57		 push	 edi
  0013d	ff b0 bc 00 00
	00		 push	 DWORD PTR [eax+188]
  00143	e9 e2 00 00 00	 jmp	 $LN55@OnAttackMe
$LN6@OnAttackMe:

; 1359 : 			}
; 1360 : 		}
; 1361 : 		break;
; 1362 : 	case OBJSTA_ATK3:		// 파이어볼 발사
; 1363 : 		{
; 1364 : 			if( m_pActMover->m_nMotionHitCount == 0 )

  00148	8b 83 38 02 00
	00		 mov	 eax, DWORD PTR [ebx+568]
  0014e	83 b8 9c 00 00
	00 00		 cmp	 DWORD PTR [eax+156], 0
  00155	0f 85 d6 00 00
	00		 jne	 $LN5@OnAttackMe

; 1365 : 			{
; 1366 : 				CMover *pTarget = pHitObj;
; 1367 : 
; 1368 : 				D3DXVECTOR3 vPos;
; 1369 : 				CModelObject *pModel = (CModelObject *)m_pModel;
; 1370 : 				pModel->GetEventPos( &vPos, 0 );	// 용의 입 좌표.

  0015b	8b 8b 78 01 00
	00		 mov	 ecx, DWORD PTR [ebx+376]
  00161	8d 45 f0	 lea	 eax, DWORD PTR _vPos$6[ebp]
  00164	6a 00		 push	 0
  00166	50		 push	 eax
  00167	e8 00 00 00 00	 call	 ?GetEventPos@CModelObject@@QAEXPAUD3DXVECTOR3@@H@Z ; CModelObject::GetEventPos
; File C:\IAGOS\server\v18\Source\Source\_Common\Obj.h

; 232  : 	D3DXMATRIX*		GetMatrixWorldPtr()		    { return &m_matWorld; } // 포인터 리턴 버전

  0016c	8d 83 e4 00 00
	00		 lea	 eax, DWORD PTR [ebx+228]
; File C:\IAGOS\server\v18\Source\Source\_Common\MoverActEvent.cpp

; 1371 : 				D3DXVec3TransformCoord( &vPos, &vPos, GetMatrixWorldPtr() );

  00172	50		 push	 eax
  00173	8d 45 f0	 lea	 eax, DWORD PTR _vPos$6[ebp]
  00176	50		 push	 eax
  00177	50		 push	 eax
  00178	e8 00 00 00 00	 call	 _D3DXVec3TransformCoord@12
; File C:\IAGOS\server\v18\Source\Source\_Common\Obj.h

; 327  : 	return pObj && ( pObj->IsDelete() == FALSE ); 

  0017d	85 f6		 test	 esi, esi
  0017f	0f 84 ac 00 00
	00		 je	 $LN5@OnAttackMe

; 180  : 	BOOL			IsDelete()	{ return (m_dwFlags & OBJ_FLAG_DELETE);  }

  00185	f6 46 04 01	 test	 BYTE PTR [esi+4], 1

; 327  : 	return pObj && ( pObj->IsDelete() == FALSE ); 

  00189	0f 85 a2 00 00
	00		 jne	 $LN5@OnAttackMe

; 215  : 	D3DXVECTOR3		GetPos()	{ return m_vPos; }

  0018f	8b 86 68 01 00
	00		 mov	 eax, DWORD PTR [esi+360]
; File C:\IAGOS\server\v18\Source\Source\_Common\MoverActEvent.cpp

; 1375 : 					OnDamage( nItemID, dwState, pTarget, &pTarget->GetPos() );		// 타겟의 좌표를 중심으로 데미지를 줌.

  00195	8b cb		 mov	 ecx, ebx
; File C:\IAGOS\server\v18\Source\Source\_Common\Obj.h

; 215  : 	D3DXVECTOR3		GetPos()	{ return m_vPos; }

  00197	f3 0f 7e 86 60
	01 00 00	 movq	 xmm0, QWORD PTR [esi+352]
; File C:\IAGOS\server\v18\Source\Source\_Common\MoverActEvent.cpp

; 1375 : 					OnDamage( nItemID, dwState, pTarget, &pTarget->GetPos() );		// 타겟의 좌표를 중심으로 데미지를 줌.

  0019f	6a 01		 push	 1
; File C:\IAGOS\server\v18\Source\Source\_Common\Obj.h

; 215  : 	D3DXVECTOR3		GetPos()	{ return m_vPos; }

  001a1	89 45 ec	 mov	 DWORD PTR $T5[ebp+8], eax
; File C:\IAGOS\server\v18\Source\Source\_Common\MoverActEvent.cpp

; 1375 : 					OnDamage( nItemID, dwState, pTarget, &pTarget->GetPos() );		// 타겟의 좌표를 중심으로 데미지를 줌.

  001a4	8d 45 e4	 lea	 eax, DWORD PTR $T5[ebp]
  001a7	50		 push	 eax
  001a8	56		 push	 esi
  001a9	57		 push	 edi
  001aa	ff 75 d4	 push	 DWORD PTR _nItemID$1$[ebp]
; File C:\IAGOS\server\v18\Source\Source\_Common\Obj.h

; 215  : 	D3DXVECTOR3		GetPos()	{ return m_vPos; }

  001ad	66 0f d6 45 e4	 movq	 QWORD PTR $T5[ebp], xmm0
; File C:\IAGOS\server\v18\Source\Source\_Common\MoverActEvent.cpp

; 1375 : 					OnDamage( nItemID, dwState, pTarget, &pTarget->GetPos() );		// 타겟의 좌표를 중심으로 데미지를 줌.

  001b2	e8 00 00 00 00	 call	 ?OnDamage@CMover@@QAEHHKPAV1@PBUD3DXVECTOR3@@K@Z ; CMover::OnDamage

; 1376 : 					ItemProp *pSkillProp;
; 1377 : 					AddSkillProp *pAddSkillProp;
; 1378 : 					BOOL bFind	= GetSkillProp( &pSkillProp, &pAddSkillProp, SI_GEN_STUNSINGLE, 5, "SI_GEN_STUNSINGLE" );

  001b7	8b 03		 mov	 eax, DWORD PTR [ebx]
  001b9	8d 4d dc	 lea	 ecx, DWORD PTR _pAddSkillProp$1[ebp]
  001bc	68 00 00 00 00	 push	 OFFSET ??_C@_0BC@HLPOJCHF@SI_GEN_STUNSINGLE@
  001c1	6a 05		 push	 5
  001c3	68 bd 00 00 00	 push	 189			; 000000bdH
  001c8	51		 push	 ecx
  001c9	8d 4d e0	 lea	 ecx, DWORD PTR _pSkillProp$3[ebp]
  001cc	51		 push	 ecx
  001cd	8b cb		 mov	 ecx, ebx
  001cf	ff 50 30	 call	 DWORD PTR [eax+48]

; 1379 : 					if( bFind )

  001d2	85 c0		 test	 eax, eax
  001d4	74 5b		 je	 SHORT $LN5@OnAttackMe
; File C:\IAGOS\server\v18\Source\Source\_Common\xUtil.h

; 16   : 	g_next = g_next * 1103515245 + 12345;// + nRandomSeed[ i++ ];

  001d6	69 05 00 00 00
	00 6d 4e c6 41	 imul	 eax, DWORD PTR ?g_next@@3KA, 1103515245 ; g_next
  001e0	05 39 30 00 00	 add	 eax, 12345		; 00003039H
  001e5	a3 00 00 00 00	 mov	 DWORD PTR ?g_next@@3KA, eax ; g_next
  001ea	a8 01		 test	 al, 1
; File C:\IAGOS\server\v18\Source\Source\_Common\MoverActEvent.cpp

; 1381 : 						if( xRand() % 2 )

  001ec	74 43		 je	 SHORT $LN5@OnAttackMe

; 1382 : 							DoApplySkill( pTarget, pSkillProp, pAddSkillProp , false );

  001ee	6a 00		 push	 0
  001f0	6a 00		 push	 0
  001f2	6a 00		 push	 0
  001f4	6a 00		 push	 0
  001f6	ff 75 dc	 push	 DWORD PTR _pAddSkillProp$1[ebp]
  001f9	8b cb		 mov	 ecx, ebx
  001fb	ff 75 e0	 push	 DWORD PTR _pSkillProp$3[ebp]
  001fe	56		 push	 esi
  001ff	e8 00 00 00 00	 call	 ?DoApplySkill@CCtrl@@QAEHPAV1@PAUItemProp@@PAUAddSkillProp@@_NHHH@Z ; CCtrl::DoApplySkill
  00204	5f		 pop	 edi

; 1416 : #ifdef __CLIENT
; 1417 : 					CSfx *pSfx = CreateSfx( D3DDEVICE, XI_NPCMETEONYKER, vPos );
; 1418 : #endif	// __CLIENT
; 1419 : 				}
; 1420 : 			}
; 1421 : 		}
; 1422 : 		break;
; 1423 : 	}
; 1424 : }

  00205	5e		 pop	 esi
  00206	5b		 pop	 ebx
  00207	8b 4d fc	 mov	 ecx, DWORD PTR __$ArrayPad$[ebp]
  0020a	33 cd		 xor	 ecx, ebp
  0020c	e8 00 00 00 00	 call	 @__security_check_cookie@4
  00211	8b e5		 mov	 esp, ebp
  00213	5d		 pop	 ebp
  00214	c2 08 00	 ret	 8
$LN4@OnAttackMe:
; File C:\IAGOS\server\v18\Source\Source\_Common\Obj.h

; 327  : 	return pObj && ( pObj->IsDelete() == FALSE ); 

  00217	85 f6		 test	 esi, esi
  00219	74 16		 je	 SHORT $LN5@OnAttackMe

; 180  : 	BOOL			IsDelete()	{ return (m_dwFlags & OBJ_FLAG_DELETE);  }

  0021b	f6 46 04 01	 test	 BYTE PTR [esi+4], 1

; 327  : 	return pObj && ( pObj->IsDelete() == FALSE ); 

  0021f	75 10		 jne	 SHORT $LN5@OnAttackMe
; File C:\IAGOS\server\v18\Source\Source\_Common\MoverActEvent.cpp

; 1358 : 				OnDamage( nItemID, dwState, pHitObj );		

  00221	6a 01		 push	 1
  00223	6a 00		 push	 0
  00225	56		 push	 esi
  00226	57		 push	 edi
  00227	ff 75 d4	 push	 DWORD PTR _nItemID$1$[ebp]
$LN55@OnAttackMe:

; 1416 : #ifdef __CLIENT
; 1417 : 					CSfx *pSfx = CreateSfx( D3DDEVICE, XI_NPCMETEONYKER, vPos );
; 1418 : #endif	// __CLIENT
; 1419 : 				}
; 1420 : 			}
; 1421 : 		}
; 1422 : 		break;
; 1423 : 	}
; 1424 : }

  0022a	8b cb		 mov	 ecx, ebx
  0022c	e8 00 00 00 00	 call	 ?OnDamage@CMover@@QAEHHKPAV1@PBUD3DXVECTOR3@@K@Z ; CMover::OnDamage
$LN5@OnAttackMe:
  00231	8b 4d fc	 mov	 ecx, DWORD PTR __$ArrayPad$[ebp]
  00234	5f		 pop	 edi
  00235	5e		 pop	 esi
  00236	33 cd		 xor	 ecx, ebp
  00238	5b		 pop	 ebx
  00239	e8 00 00 00 00	 call	 @__security_check_cookie@4
  0023e	8b e5		 mov	 esp, ebp
  00240	5d		 pop	 ebp
  00241	c2 08 00	 ret	 8
?OnAttackMelee_Meteonyker@CMover@@QAEXKPAV1@@Z ENDP	; CMover::OnAttackMelee_Meteonyker
_TEXT	ENDS
; Function compile flags: /Ogtp
; File C:\IAGOS\server\v18\Source\Source\_Common\MoverActEvent.cpp
; File C:\IAGOS\server\v18\Source\Source\_Common\ModelObject.h
; File C:\IAGOS\server\v18\Source\Source\_Common\MoverActEvent.cpp
; File C:\IAGOS\server\v18\Source\Source\_Common\Obj.h
; File C:\IAGOS\server\v18\Source\Source\DX_SDK\d3dx9math.inl
; File C:\IAGOS\server\v18\Source\Source\_Common\Obj.h
; File C:\IAGOS\server\v18\Source\Source\DX_SDK\d3dx9math.inl
; File C:\IAGOS\server\v18\Source\Source\_Common\Obj.h
; File C:\IAGOS\server\v18\Source\Source\DX_SDK\d3dx9math.inl
; File C:\IAGOS\server\v18\Source\Source\_Common\MoverActEvent.cpp
;	COMDAT ?OnAttackMelee_Bear@CMover@@QAEXKPAV1@@Z
_TEXT	SEGMENT
_pAddSkillProp$1 = -32					; size = 4
_pAddSkillProp$2 = -32					; size = 4
_pHitObj$GSCopy$1$ = -32				; size = 4
_pSkillProp$3 = -28					; size = 4
_pSkillProp$4 = -28					; size = 4
_this$GSCopy$1$ = -28					; size = 4
_pSkillProp$5 = -24					; size = 4
_nItemID$1$ = -24					; size = 4
_pAddSkillProp$6 = -20					; size = 4
tv422 = -20						; size = 4
_pModel$1$ = -20					; size = 4
_vScale$7 = -16						; size = 12
__$ArrayPad$ = -4					; size = 4
_dwState$ = 8						; size = 4
_pHitObj$ = 12						; size = 4
?OnAttackMelee_Bear@CMover@@QAEXKPAV1@@Z PROC		; CMover::OnAttackMelee_Bear, COMDAT
; _this$ = ecx

; 1428 : {

  00000	55		 push	 ebp
  00001	8b ec		 mov	 ebp, esp
  00003	83 ec 20	 sub	 esp, 32			; 00000020H
  00006	a1 00 00 00 00	 mov	 eax, DWORD PTR ___security_cookie
  0000b	33 c5		 xor	 eax, ebp
  0000d	89 45 fc	 mov	 DWORD PTR __$ArrayPad$[ebp], eax
  00010	53		 push	 ebx
  00011	8b d9		 mov	 ebx, ecx
  00013	56		 push	 esi
  00014	57		 push	 edi
  00015	8b 7d 0c	 mov	 edi, DWORD PTR _pHitObj$[ebp]

; 1429 : 	int		nItemID = GetActParam( 1 );	// 사용할 아이템 아이디

  00018	8b 83 b4 11 00
	00		 mov	 eax, DWORD PTR [ebx+4532]
  0001e	89 45 e8	 mov	 DWORD PTR _nItemID$1$[ebp], eax

; 1430 : 
; 1431 : 	CModelObject *pModel = (CModelObject *)m_pModel;

  00021	8b 83 78 01 00
	00		 mov	 eax, DWORD PTR [ebx+376]
  00027	89 5d e4	 mov	 DWORD PTR _this$GSCopy$1$[ebp], ebx
  0002a	89 7d e0	 mov	 DWORD PTR _pHitObj$GSCopy$1$[ebp], edi
  0002d	89 45 ec	 mov	 DWORD PTR _pModel$1$[ebp], eax

; 1432 : 	
; 1433 : #ifdef __WORLDSERVER
; 1434 : 	UpdateMatrix();		// 몸체의 특정부위에서 나는 데미지를 처리하기 위해선 서버에서도 매트릭스를 갱신해야한다.

  00030	e8 00 00 00 00	 call	 ?UpdateMatrix@CObj@@QAEXXZ ; CObj::UpdateMatrix
; File C:\IAGOS\server\v18\Source\Source\_Common\ModelObject.h

; 311  : 		if( m_pMotion )		// 현재 프레임의 모션에 대한 매트릭스를 갱신시킴.

  00035	8b 45 ec	 mov	 eax, DWORD PTR _pModel$1$[ebp]
  00038	83 b8 8c 2a 00
	00 00		 cmp	 DWORD PTR [eax+10892], 0
  0003f	74 5b		 je	 SHORT $LN30@OnAttackMe

; 312  : 			m_pMotion->AnimateBone( m_mUpdateBone, m_pMotionOld, m_fFrameCurrent, GetNextFrame(), m_nFrameOld, m_bMotionBlending, m_fBlendWeight );	

  00041	f3 0f 10 80 c4
	00 00 00	 movss	 xmm0, DWORD PTR [eax+196]
  00049	f3 0f 10 88 a0
	00 00 00	 movss	 xmm1, DWORD PTR [eax+160]
  00051	8b b0 88 2a 00
	00		 mov	 esi, DWORD PTR [eax+10888]
  00057	8b b8 9c 2a 00
	00		 mov	 edi, DWORD PTR [eax+10908]
  0005d	8b 98 8c 2a 00
	00		 mov	 ebx, DWORD PTR [eax+10892]
  00063	51		 push	 ecx
  00064	f3 0f 11 04 24	 movss	 DWORD PTR [esp], xmm0
  00069	8b c8		 mov	 ecx, eax
  0006b	ff b0 c0 00 00
	00		 push	 DWORD PTR [eax+192]
  00071	f3 0f 11 4d ec	 movss	 DWORD PTR tv422[ebp], xmm1
  00076	ff b0 98 2a 00
	00		 push	 DWORD PTR [eax+10904]
  0007c	e8 00 00 00 00	 call	 ?GetNextFrame@CModel@@QAEHXZ ; CModel::GetNextFrame
  00081	f3 0f 10 45 ec	 movss	 xmm0, DWORD PTR tv422[ebp]
  00086	50		 push	 eax
  00087	51		 push	 ecx
  00088	f3 0f 11 04 24	 movss	 DWORD PTR [esp], xmm0
  0008d	8b cb		 mov	 ecx, ebx
  0008f	56		 push	 esi
  00090	57		 push	 edi
  00091	e8 00 00 00 00	 call	 ?AnimateBone@CMotion@@QAEXPAUD3DXMATRIX@@PAV1@MHHHM@Z ; CMotion::AnimateBone
  00096	8b 5d e4	 mov	 ebx, DWORD PTR _this$GSCopy$1$[ebp]
  00099	8b 7d e0	 mov	 edi, DWORD PTR _pHitObj$GSCopy$1$[ebp]
$LN30@OnAttackMe:
; File C:\IAGOS\server\v18\Source\Source\_Common\MoverActEvent.cpp

; 1438 : 	switch( dwState )

  0009c	8b 75 08	 mov	 esi, DWORD PTR _dwState$[ebp]
  0009f	81 fe 00 00 03
	00		 cmp	 esi, 196608		; 00030000H
  000a5	0f 87 f3 00 00
	00		 ja	 $LN26@OnAttackMe
  000ab	74 76		 je	 SHORT $LN7@OnAttackMe
  000ad	81 fe 00 00 01
	00		 cmp	 esi, 65536		; 00010000H
  000b3	74 0e		 je	 SHORT $LN4@OnAttackMe
  000b5	81 fe 00 00 02
	00		 cmp	 esi, 131072		; 00020000H
  000bb	0f 85 64 03 00
	00		 jne	 $LN24@OnAttackMe

; 1448 : 			
; 1449 : 			OnDamage( nItemID, dwState, pHitObj );					
; 1450 : 	#endif // WorldServer
; 1451 : 		}
; 1452 : 		break;
; 1453 : 	case OBJSTA_ATK2:	
; 1454 : 		{
; 1455 : 	#ifdef __WORLDSERVER
; 1456 : 			OnDamage( nItemID, dwState, pHitObj );					
; 1457 : 	#endif // WorldServer
; 1458 : 		}
; 1459 : 		break;

  000c1	eb 3d		 jmp	 SHORT $LN5@OnAttackMe
$LN4@OnAttackMe:

; 1439 : 	{
; 1440 : 	case OBJSTA_ATK1:	
; 1441 : 		{
; 1442 : 	#ifdef __WORLDSERVER
; 1443 : 			ItemProp *pSkillProp;
; 1444 : 			AddSkillProp *pAddSkillProp;
; 1445 : 			BOOL bSuccess = GetSkillProp( &pSkillProp, &pAddSkillProp, SI_GEN_ATKSPELL_RATEGROUP, 5, "OnAttackMelee_BigMuscle" );

  000c3	8b 03		 mov	 eax, DWORD PTR [ebx]
  000c5	8d 4d e0	 lea	 ecx, DWORD PTR _pAddSkillProp$1[ebp]
  000c8	68 00 00 00 00	 push	 OFFSET ??_C@_0BI@NKGAIBCK@OnAttackMelee_BigMuscle@
  000cd	6a 05		 push	 5
  000cf	68 ea 00 00 00	 push	 234			; 000000eaH
  000d4	51		 push	 ecx
  000d5	8d 4d e4	 lea	 ecx, DWORD PTR _pSkillProp$3[ebp]
  000d8	51		 push	 ecx
  000d9	8b cb		 mov	 ecx, ebx
  000db	ff 50 30	 call	 DWORD PTR [eax+48]

; 1446 : 			if( bSuccess )

  000de	85 c0		 test	 eax, eax
  000e0	74 1e		 je	 SHORT $LN5@OnAttackMe

; 1447 : 				ApplySkillAround( this, OBJTYPE_PLAYER, pSkillProp, pAddSkillProp , false );			

  000e2	6a 00		 push	 0
  000e4	51		 push	 ecx
  000e5	c7 04 24 00 00
	00 00		 mov	 DWORD PTR [esp], 0
  000ec	8b cb		 mov	 ecx, ebx
  000ee	6a 00		 push	 0
  000f0	6a 00		 push	 0
  000f2	ff 75 e0	 push	 DWORD PTR _pAddSkillProp$1[ebp]
  000f5	ff 75 e4	 push	 DWORD PTR _pSkillProp$3[ebp]
  000f8	6a 01		 push	 1
  000fa	53		 push	 ebx
  000fb	e8 00 00 00 00	 call	 ?ApplySkillAround@CCtrl@@QAEXPAV1@HPAUItemProp@@PAUAddSkillProp@@_NHMH@Z ; CCtrl::ApplySkillAround
$LN5@OnAttackMe:

; 1565 : 			}
; 1566 : 			
; 1567 : #endif //__WORLDSERVER			
; 1568 : 		}
; 1569 : 		break;
; 1570 : 	}
; 1571 : }

  00100	6a 01		 push	 1
  00102	6a 00		 push	 0
  00104	57		 push	 edi
  00105	56		 push	 esi
  00106	ff 75 e8	 push	 DWORD PTR _nItemID$1$[ebp]
  00109	8b cb		 mov	 ecx, ebx
  0010b	e8 00 00 00 00	 call	 ?OnDamage@CMover@@QAEHHKPAV1@PBUD3DXVECTOR3@@K@Z ; CMover::OnDamage
  00110	5f		 pop	 edi
  00111	5e		 pop	 esi
  00112	5b		 pop	 ebx
  00113	8b 4d fc	 mov	 ecx, DWORD PTR __$ArrayPad$[ebp]
  00116	33 cd		 xor	 ecx, ebp
  00118	e8 00 00 00 00	 call	 @__security_check_cookie@4
  0011d	8b e5		 mov	 esp, ebp
  0011f	5d		 pop	 ebp
  00120	c2 08 00	 ret	 8
$LN7@OnAttackMe:

; 1460 : 	case OBJSTA_ATK3:		
; 1461 : 		{
; 1462 : 			if( m_pActMover->m_nMotionHitCount == 0 )

  00123	8b 83 38 02 00
	00		 mov	 eax, DWORD PTR [ebx+568]
  00129	8b 80 9c 00 00
	00		 mov	 eax, DWORD PTR [eax+156]
  0012f	85 c0		 test	 eax, eax
  00131	75 0e		 jne	 SHORT $LN8@OnAttackMe

; 1463 : 			{				
; 1464 : 	#ifdef __CLIENT
; 1465 : 				CSfx *pSfx = CreateSfx( D3DDEVICE, XI_SKILL_CIRCLE_DUST, GetPos() );			
; 1466 : 				if( pSfx )
; 1467 : 					pSfx->SetScale( D3DXVECTOR3( 12.0f, 12.0f, 12.0f ) );
; 1468 : 				
; 1469 : 				PLAYSND( SND_PC_SKILLD_HITOFPENYA );//, &v2 );
; 1470 : 	#endif //__CLIENT 			
; 1471 : 				
; 1472 : 	#ifdef __WORLDSERVER
; 1473 : 				ItemProp *pSkillProp;
; 1474 : 				AddSkillProp *pAddSkillProp;
; 1475 : 				BOOL bSuccess = GetSkillProp( &pSkillProp, &pAddSkillProp, SI_GEN_KNOCK_BACK, 4, "OnAttackMelee_BigMuscle" );

  00133	68 00 00 00 00	 push	 OFFSET ??_C@_0BI@NKGAIBCK@OnAttackMelee_BigMuscle@
  00138	6a 04		 push	 4
  0013a	68 e0 00 00 00	 push	 224			; 000000e0H

; 1476 : 				if( bSuccess )
; 1477 : 					ApplySkillAround( this, OBJTYPE_PLAYER, pSkillProp, pAddSkillProp , false );
; 1478 : 	#endif //__WORLDSERVER			
; 1479 : 			}

  0013f	eb 15		 jmp	 SHORT $LN59@OnAttackMe
$LN8@OnAttackMe:

; 1480 : 			else
; 1481 : 			if( m_pActMover->m_nMotionHitCount == 1 )

  00141	83 f8 01	 cmp	 eax, 1
  00144	0f 85 db 02 00
	00		 jne	 $LN24@OnAttackMe

; 1482 : 			{
; 1483 : 	#ifdef __CLIENT
; 1484 : 				PLAYSND( SND_PC_BOSS_STUN );
; 1485 : 	#endif //__CLIENT
; 1486 : 				
; 1487 : 	#ifdef __WORLDSERVER
; 1488 : 				ItemProp *pSkillProp;
; 1489 : 				AddSkillProp *pAddSkillProp;
; 1490 : 				BOOL bSuccess = GetSkillProp( &pSkillProp, &pAddSkillProp, SI_GEN_STUNGROUP, 5, "OnAttackMelee_Bear" );

  0014a	68 00 00 00 00	 push	 OFFSET ??_C@_0BD@CFPFEACI@OnAttackMelee_Bear@
  0014f	6a 05		 push	 5
  00151	68 be 00 00 00	 push	 190			; 000000beH
$LN59@OnAttackMe:

; 1565 : 			}
; 1566 : 			
; 1567 : #endif //__WORLDSERVER			
; 1568 : 		}
; 1569 : 		break;
; 1570 : 	}
; 1571 : }

  00156	8b 03		 mov	 eax, DWORD PTR [ebx]
  00158	8d 4d e0	 lea	 ecx, DWORD PTR _pAddSkillProp$2[ebp]
  0015b	51		 push	 ecx
  0015c	8d 4d e4	 lea	 ecx, DWORD PTR _pSkillProp$4[ebp]
  0015f	51		 push	 ecx
  00160	8b cb		 mov	 ecx, ebx
  00162	ff 50 30	 call	 DWORD PTR [eax+48]
  00165	85 c0		 test	 eax, eax
  00167	0f 84 b8 02 00
	00		 je	 $LN24@OnAttackMe
  0016d	6a 00		 push	 0
  0016f	51		 push	 ecx
  00170	c7 04 24 00 00
	00 00		 mov	 DWORD PTR [esp], 0
  00177	8b cb		 mov	 ecx, ebx
  00179	6a 00		 push	 0
  0017b	6a 00		 push	 0
  0017d	ff 75 e0	 push	 DWORD PTR _pAddSkillProp$2[ebp]
  00180	ff 75 e4	 push	 DWORD PTR _pSkillProp$4[ebp]
  00183	6a 01		 push	 1
  00185	53		 push	 ebx
  00186	e8 00 00 00 00	 call	 ?ApplySkillAround@CCtrl@@QAEXPAV1@HPAUItemProp@@PAUAddSkillProp@@_NHMH@Z ; CCtrl::ApplySkillAround
  0018b	5f		 pop	 edi
  0018c	5e		 pop	 esi
  0018d	5b		 pop	 ebx
  0018e	8b 4d fc	 mov	 ecx, DWORD PTR __$ArrayPad$[ebp]
  00191	33 cd		 xor	 ecx, ebp
  00193	e8 00 00 00 00	 call	 @__security_check_cookie@4
  00198	8b e5		 mov	 esp, ebp
  0019a	5d		 pop	 ebp
  0019b	c2 08 00	 ret	 8
$LN26@OnAttackMe:

; 1438 : 	switch( dwState )

  0019e	81 fe 00 00 04
	00		 cmp	 esi, 262144		; 00040000H
  001a4	0f 85 7b 02 00
	00		 jne	 $LN24@OnAttackMe

; 1491 : 				if( bSuccess )
; 1492 : 					ApplySkillAround( this, OBJTYPE_PLAYER, pSkillProp, pAddSkillProp , false );				
; 1493 : 	#endif //__WORLDSERVER			
; 1494 : 			}
; 1495 : 		}
; 1496 : 		break;
; 1497 : 	case OBJSTA_ATK4:	
; 1498 : 		{	
; 1499 : #ifdef __WORLDSERVER
; 1500 : 			ItemProp *pSkillProp;
; 1501 : 			AddSkillProp *pAddSkillProp;
; 1502 : 			BOOL bSuccess;
; 1503 : 	
; 1504 : 			// 자신 힐링
; 1505 : 			bSuccess = GetSkillProp( &pSkillProp, &pAddSkillProp, SI_ASS_HEAL_HEALING, 1, "OnAttackMelee_BigMuscle" );

  001aa	8b 03		 mov	 eax, DWORD PTR [ebx]
  001ac	8d 4d ec	 lea	 ecx, DWORD PTR _pAddSkillProp$6[ebp]
  001af	68 00 00 00 00	 push	 OFFSET ??_C@_0BI@NKGAIBCK@OnAttackMelee_BigMuscle@
  001b4	6a 01		 push	 1
  001b6	6a 2c		 push	 44			; 0000002cH
  001b8	51		 push	 ecx
  001b9	8d 4d e8	 lea	 ecx, DWORD PTR _pSkillProp$5[ebp]
  001bc	51		 push	 ecx
  001bd	8b cb		 mov	 ecx, ebx
  001bf	ff 50 30	 call	 DWORD PTR [eax+48]

; 1506 : 			if( bSuccess )

  001c2	85 c0		 test	 eax, eax
  001c4	74 16		 je	 SHORT $LN14@OnAttackMe

; 1507 : 				DoApplySkill( this, pSkillProp, pAddSkillProp , false );

  001c6	6a 00		 push	 0
  001c8	6a 00		 push	 0
  001ca	6a 00		 push	 0
  001cc	6a 00		 push	 0
  001ce	ff 75 ec	 push	 DWORD PTR _pAddSkillProp$6[ebp]
  001d1	8b cb		 mov	 ecx, ebx
  001d3	ff 75 e8	 push	 DWORD PTR _pSkillProp$5[ebp]
  001d6	53		 push	 ebx
  001d7	e8 00 00 00 00	 call	 ?DoApplySkill@CCtrl@@QAEHPAV1@PAUItemProp@@PAUAddSkillProp@@_NHHH@Z ; CCtrl::DoApplySkill
$LN14@OnAttackMe:

; 1508 : 
; 1509 : 			//버서크
; 1510 : 			bSuccess = GetSkillProp( &pSkillProp, &pAddSkillProp, SI_MUSHMOOT_BERSERK, 1, "OnAttackMelee_Bear" );

  001dc	8b 03		 mov	 eax, DWORD PTR [ebx]
  001de	8d 4d ec	 lea	 ecx, DWORD PTR _pAddSkillProp$6[ebp]
  001e1	68 00 00 00 00	 push	 OFFSET ??_C@_0BD@CFPFEACI@OnAttackMelee_Bear@
  001e6	6a 01		 push	 1
  001e8	68 2f 01 00 00	 push	 303			; 0000012fH
  001ed	51		 push	 ecx
  001ee	8d 4d e8	 lea	 ecx, DWORD PTR _pSkillProp$5[ebp]
  001f1	51		 push	 ecx
  001f2	8b cb		 mov	 ecx, ebx
  001f4	ff 50 30	 call	 DWORD PTR [eax+48]

; 1511 : 			if( bSuccess )

  001f7	85 c0		 test	 eax, eax
  001f9	74 16		 je	 SHORT $LN15@OnAttackMe

; 1512 : 				DoApplySkill( this, pSkillProp, pAddSkillProp , false );

  001fb	6a 00		 push	 0
  001fd	6a 00		 push	 0
  001ff	6a 00		 push	 0
  00201	6a 00		 push	 0
  00203	ff 75 ec	 push	 DWORD PTR _pAddSkillProp$6[ebp]
  00206	8b cb		 mov	 ecx, ebx
  00208	ff 75 e8	 push	 DWORD PTR _pSkillProp$5[ebp]
  0020b	53		 push	 ebx
  0020c	e8 00 00 00 00	 call	 ?DoApplySkill@CCtrl@@QAEHPAV1@PAUItemProp@@PAUAddSkillProp@@_NHHH@Z ; CCtrl::DoApplySkill
$LN15@OnAttackMe:

; 1513 : 
; 1514 : 			// 우든스킨 
; 1515 : 			bSuccess = GetSkillProp( &pSkillProp, &pAddSkillProp, SI_MUSHMOOT_WOODENSKIN, 1, "OnAttackMelee_Bear" );

  00211	8b 03		 mov	 eax, DWORD PTR [ebx]
  00213	8d 4d ec	 lea	 ecx, DWORD PTR _pAddSkillProp$6[ebp]
  00216	68 00 00 00 00	 push	 OFFSET ??_C@_0BD@CFPFEACI@OnAttackMelee_Bear@
  0021b	6a 01		 push	 1
  0021d	68 30 01 00 00	 push	 304			; 00000130H
  00222	51		 push	 ecx
  00223	8d 4d e8	 lea	 ecx, DWORD PTR _pSkillProp$5[ebp]
  00226	51		 push	 ecx
  00227	8b cb		 mov	 ecx, ebx
  00229	ff 50 30	 call	 DWORD PTR [eax+48]

; 1516 : 			if( bSuccess )

  0022c	85 c0		 test	 eax, eax
  0022e	74 16		 je	 SHORT $LN16@OnAttackMe

; 1517 : 				DoApplySkill( this, pSkillProp, pAddSkillProp , false );

  00230	6a 00		 push	 0
  00232	6a 00		 push	 0
  00234	6a 00		 push	 0
  00236	6a 00		 push	 0
  00238	ff 75 ec	 push	 DWORD PTR _pAddSkillProp$6[ebp]
  0023b	8b cb		 mov	 ecx, ebx
  0023d	ff 75 e8	 push	 DWORD PTR _pSkillProp$5[ebp]
  00240	53		 push	 ebx
  00241	e8 00 00 00 00	 call	 ?DoApplySkill@CCtrl@@QAEHPAV1@PAUItemProp@@PAUAddSkillProp@@_NHHH@Z ; CCtrl::DoApplySkill
$LN16@OnAttackMe:

; 1518 : 			
; 1519 : 			// 힘업
; 1520 : 			bSuccess = GetSkillProp( &pSkillProp, &pAddSkillProp, SI_ASS_CHEER_HEAPUP, 1, "OnAttackMelee_BigMuscle" );

  00246	8b 03		 mov	 eax, DWORD PTR [ebx]
  00248	8d 4d ec	 lea	 ecx, DWORD PTR _pAddSkillProp$6[ebp]
  0024b	68 00 00 00 00	 push	 OFFSET ??_C@_0BI@NKGAIBCK@OnAttackMelee_BigMuscle@
  00250	6a 01		 push	 1
  00252	6a 31		 push	 49			; 00000031H
  00254	51		 push	 ecx
  00255	8d 4d e8	 lea	 ecx, DWORD PTR _pSkillProp$5[ebp]
  00258	51		 push	 ecx
  00259	8b cb		 mov	 ecx, ebx
  0025b	ff 50 30	 call	 DWORD PTR [eax+48]

; 1521 : 			if( bSuccess )

  0025e	85 c0		 test	 eax, eax
  00260	74 16		 je	 SHORT $LN17@OnAttackMe

; 1522 : 				DoApplySkill( this, pSkillProp, pAddSkillProp , false );

  00262	6a 00		 push	 0
  00264	6a 00		 push	 0
  00266	6a 00		 push	 0
  00268	6a 00		 push	 0
  0026a	ff 75 ec	 push	 DWORD PTR _pAddSkillProp$6[ebp]
  0026d	8b cb		 mov	 ecx, ebx
  0026f	ff 75 e8	 push	 DWORD PTR _pSkillProp$5[ebp]
  00272	53		 push	 ebx
  00273	e8 00 00 00 00	 call	 ?DoApplySkill@CCtrl@@QAEHPAV1@PAUItemProp@@PAUAddSkillProp@@_NHHH@Z ; CCtrl::DoApplySkill
$LN17@OnAttackMe:

; 1523 : 
; 1524 : 			//캐논볼
; 1525 : 			bSuccess = GetSkillProp( &pSkillProp, &pAddSkillProp, SI_ASS_CHEER_CANNONBALL, 1, "OnAttackMelee_BigMuscle" );

  00278	8b 03		 mov	 eax, DWORD PTR [ebx]
  0027a	8d 4d ec	 lea	 ecx, DWORD PTR _pAddSkillProp$6[ebp]
  0027d	68 00 00 00 00	 push	 OFFSET ??_C@_0BI@NKGAIBCK@OnAttackMelee_BigMuscle@
  00282	6a 01		 push	 1
  00284	6a 32		 push	 50			; 00000032H
  00286	51		 push	 ecx
  00287	8d 4d e8	 lea	 ecx, DWORD PTR _pSkillProp$5[ebp]
  0028a	51		 push	 ecx
  0028b	8b cb		 mov	 ecx, ebx
  0028d	ff 50 30	 call	 DWORD PTR [eax+48]

; 1526 : 			if( bSuccess )

  00290	85 c0		 test	 eax, eax
  00292	74 16		 je	 SHORT $LN18@OnAttackMe

; 1527 : 				DoApplySkill( this, pSkillProp, pAddSkillProp , false );

  00294	6a 00		 push	 0
  00296	6a 00		 push	 0
  00298	6a 00		 push	 0
  0029a	6a 00		 push	 0
  0029c	ff 75 ec	 push	 DWORD PTR _pAddSkillProp$6[ebp]
  0029f	8b cb		 mov	 ecx, ebx
  002a1	ff 75 e8	 push	 DWORD PTR _pSkillProp$5[ebp]
  002a4	53		 push	 ebx
  002a5	e8 00 00 00 00	 call	 ?DoApplySkill@CCtrl@@QAEHPAV1@PAUItemProp@@PAUAddSkillProp@@_NHHH@Z ; CCtrl::DoApplySkill
$LN18@OnAttackMe:

; 1528 : 
; 1529 : 			//멘탈사인
; 1530 : 			bSuccess = GetSkillProp( &pSkillProp, &pAddSkillProp, SI_ASS_CHEER_MENTALSIGN, 1, "OnAttackMelee_BigMuscle" );

  002aa	8b 03		 mov	 eax, DWORD PTR [ebx]
  002ac	8d 4d ec	 lea	 ecx, DWORD PTR _pAddSkillProp$6[ebp]
  002af	68 00 00 00 00	 push	 OFFSET ??_C@_0BI@NKGAIBCK@OnAttackMelee_BigMuscle@
  002b4	6a 01		 push	 1
  002b6	6a 34		 push	 52			; 00000034H
  002b8	51		 push	 ecx
  002b9	8d 4d e8	 lea	 ecx, DWORD PTR _pSkillProp$5[ebp]
  002bc	51		 push	 ecx
  002bd	8b cb		 mov	 ecx, ebx
  002bf	ff 50 30	 call	 DWORD PTR [eax+48]

; 1531 : 			if( bSuccess )

  002c2	85 c0		 test	 eax, eax
  002c4	74 16		 je	 SHORT $LN19@OnAttackMe

; 1532 : 				DoApplySkill( this, pSkillProp, pAddSkillProp , false );

  002c6	6a 00		 push	 0
  002c8	6a 00		 push	 0
  002ca	6a 00		 push	 0
  002cc	6a 00		 push	 0
  002ce	ff 75 ec	 push	 DWORD PTR _pAddSkillProp$6[ebp]
  002d1	8b cb		 mov	 ecx, ebx
  002d3	ff 75 e8	 push	 DWORD PTR _pSkillProp$5[ebp]
  002d6	53		 push	 ebx
  002d7	e8 00 00 00 00	 call	 ?DoApplySkill@CCtrl@@QAEHPAV1@PAUItemProp@@PAUAddSkillProp@@_NHHH@Z ; CCtrl::DoApplySkill
$LN19@OnAttackMe:

; 1533 : 
; 1534 : 			//비프업
; 1535 : 			bSuccess = GetSkillProp( &pSkillProp, &pAddSkillProp, SI_ASS_CHEER_BEEFUP, 1, "OnAttackMelee_BigMuscle" );

  002dc	8b 03		 mov	 eax, DWORD PTR [ebx]
  002de	8d 4d ec	 lea	 ecx, DWORD PTR _pAddSkillProp$6[ebp]
  002e1	68 00 00 00 00	 push	 OFFSET ??_C@_0BI@NKGAIBCK@OnAttackMelee_BigMuscle@
  002e6	6a 01		 push	 1
  002e8	6a 35		 push	 53			; 00000035H
  002ea	51		 push	 ecx
  002eb	8d 4d e8	 lea	 ecx, DWORD PTR _pSkillProp$5[ebp]
  002ee	51		 push	 ecx
  002ef	8b cb		 mov	 ecx, ebx
  002f1	ff 50 30	 call	 DWORD PTR [eax+48]

; 1536 : 			if( bSuccess )

  002f4	85 c0		 test	 eax, eax
  002f6	74 16		 je	 SHORT $LN20@OnAttackMe

; 1537 : 				DoApplySkill( this, pSkillProp, pAddSkillProp , false );

  002f8	6a 00		 push	 0
  002fa	6a 00		 push	 0
  002fc	6a 00		 push	 0
  002fe	6a 00		 push	 0
  00300	ff 75 ec	 push	 DWORD PTR _pAddSkillProp$6[ebp]
  00303	8b cb		 mov	 ecx, ebx
  00305	ff 75 e8	 push	 DWORD PTR _pSkillProp$5[ebp]
  00308	53		 push	 ebx
  00309	e8 00 00 00 00	 call	 ?DoApplySkill@CCtrl@@QAEHPAV1@PAUItemProp@@PAUAddSkillProp@@_NHHH@Z ; CCtrl::DoApplySkill
$LN20@OnAttackMe:

; 1538 : 			
; 1539 : 			
; 1540 : 			//캐츠플렉스
; 1541 : 			bSuccess = GetSkillProp( &pSkillProp, &pAddSkillProp, SI_ASS_CHEER_CATSREFLEX, 1, "OnAttackMelee_BigMuscle" );

  0030e	8b 03		 mov	 eax, DWORD PTR [ebx]
  00310	8d 4d ec	 lea	 ecx, DWORD PTR _pAddSkillProp$6[ebp]
  00313	68 00 00 00 00	 push	 OFFSET ??_C@_0BI@NKGAIBCK@OnAttackMelee_BigMuscle@
  00318	6a 01		 push	 1
  0031a	6a 73		 push	 115			; 00000073H
  0031c	51		 push	 ecx
  0031d	8d 4d e8	 lea	 ecx, DWORD PTR _pSkillProp$5[ebp]
  00320	51		 push	 ecx
  00321	8b cb		 mov	 ecx, ebx
  00323	ff 50 30	 call	 DWORD PTR [eax+48]

; 1542 : 			if( bSuccess )

  00326	85 c0		 test	 eax, eax
  00328	74 16		 je	 SHORT $LN21@OnAttackMe

; 1543 : 				DoApplySkill( this, pSkillProp, pAddSkillProp , false );

  0032a	6a 00		 push	 0
  0032c	6a 00		 push	 0
  0032e	6a 00		 push	 0
  00330	6a 00		 push	 0
  00332	ff 75 ec	 push	 DWORD PTR _pAddSkillProp$6[ebp]
  00335	8b cb		 mov	 ecx, ebx
  00337	ff 75 e8	 push	 DWORD PTR _pSkillProp$5[ebp]
  0033a	53		 push	 ebx
  0033b	e8 00 00 00 00	 call	 ?DoApplySkill@CCtrl@@QAEHPAV1@PAUItemProp@@PAUAddSkillProp@@_NHHH@Z ; CCtrl::DoApplySkill
$LN21@OnAttackMe:

; 1544 : 
; 1545 : 			//어큐러시
; 1546 : 			bSuccess = GetSkillProp( &pSkillProp, &pAddSkillProp, SI_ASS_CHEER_ACCURACY, 1, "OnAttackMelee_BigMuscle" );

  00340	8b 03		 mov	 eax, DWORD PTR [ebx]
  00342	8d 4d ec	 lea	 ecx, DWORD PTR _pAddSkillProp$6[ebp]
  00345	68 00 00 00 00	 push	 OFFSET ??_C@_0BI@NKGAIBCK@OnAttackMelee_BigMuscle@
  0034a	6a 01		 push	 1
  0034c	6a 74		 push	 116			; 00000074H
  0034e	51		 push	 ecx
  0034f	8d 4d e8	 lea	 ecx, DWORD PTR _pSkillProp$5[ebp]
  00352	51		 push	 ecx
  00353	8b cb		 mov	 ecx, ebx
  00355	ff 50 30	 call	 DWORD PTR [eax+48]

; 1547 : 			if( bSuccess )

  00358	85 c0		 test	 eax, eax
  0035a	74 16		 je	 SHORT $LN22@OnAttackMe

; 1548 : 				DoApplySkill( this, pSkillProp, pAddSkillProp , false );

  0035c	6a 00		 push	 0
  0035e	6a 00		 push	 0
  00360	6a 00		 push	 0
  00362	6a 00		 push	 0
  00364	ff 75 ec	 push	 DWORD PTR _pAddSkillProp$6[ebp]
  00367	8b cb		 mov	 ecx, ebx
  00369	ff 75 e8	 push	 DWORD PTR _pSkillProp$5[ebp]
  0036c	53		 push	 ebx
  0036d	e8 00 00 00 00	 call	 ?DoApplySkill@CCtrl@@QAEHPAV1@PAUItemProp@@PAUAddSkillProp@@_NHHH@Z ; CCtrl::DoApplySkill
$LN22@OnAttackMe:

; 1549 : 
; 1550 : 			//해이스트
; 1551 : 			bSuccess = GetSkillProp( &pSkillProp, &pAddSkillProp, SI_ASS_CHEER_HASTE, 1, "OnAttackMelee_BigMuscle" );

  00372	8b 03		 mov	 eax, DWORD PTR [ebx]
  00374	8d 4d ec	 lea	 ecx, DWORD PTR _pAddSkillProp$6[ebp]
  00377	68 00 00 00 00	 push	 OFFSET ??_C@_0BI@NKGAIBCK@OnAttackMelee_BigMuscle@
  0037c	6a 01		 push	 1
  0037e	6a 14		 push	 20			; 00000014H
  00380	51		 push	 ecx
  00381	8d 4d e8	 lea	 ecx, DWORD PTR _pSkillProp$5[ebp]
  00384	51		 push	 ecx
  00385	8b cb		 mov	 ecx, ebx
  00387	ff 50 30	 call	 DWORD PTR [eax+48]

; 1552 : 			if( bSuccess )

  0038a	85 c0		 test	 eax, eax
  0038c	74 16		 je	 SHORT $LN23@OnAttackMe

; 1553 : 				DoApplySkill( this, pSkillProp, pAddSkillProp , false );

  0038e	6a 00		 push	 0
  00390	6a 00		 push	 0
  00392	6a 00		 push	 0
  00394	6a 00		 push	 0
  00396	ff 75 ec	 push	 DWORD PTR _pAddSkillProp$6[ebp]
  00399	8b cb		 mov	 ecx, ebx
  0039b	ff 75 e8	 push	 DWORD PTR _pSkillProp$5[ebp]
  0039e	53		 push	 ebx
  0039f	e8 00 00 00 00	 call	 ?DoApplySkill@CCtrl@@QAEHPAV1@PAUItemProp@@PAUAddSkillProp@@_NHHH@Z ; CCtrl::DoApplySkill
$LN23@OnAttackMe:
; File C:\IAGOS\server\v18\Source\Source\_Common\Obj.h

; 220  : 	D3DXVECTOR3		GetScale()	{ return m_vScale; }

  003a4	f3 0f 7e 43 0c	 movq	 xmm0, QWORD PTR [ebx+12]
; File C:\IAGOS\server\v18\Source\Source\DX_SDK\d3dx9math.inl

; 342  :     x *= f;

  003a9	f3 0f 10 0d 00
	00 00 00	 movss	 xmm1, DWORD PTR __real@3fa66666
; File C:\IAGOS\server\v18\Source\Source\_Common\Obj.h

; 220  : 	D3DXVECTOR3		GetScale()	{ return m_vScale; }

  003b1	8b 43 14	 mov	 eax, DWORD PTR [ebx+20]
  003b4	66 0f d6 45 f0	 movq	 QWORD PTR _vScale$7[ebp], xmm0
; File C:\IAGOS\server\v18\Source\Source\DX_SDK\d3dx9math.inl

; 343  :     y *= f;

  003b9	f3 0f 10 45 f4	 movss	 xmm0, DWORD PTR _vScale$7[ebp+4]
  003be	f3 0f 10 55 f0	 movss	 xmm2, DWORD PTR _vScale$7[ebp]
  003c3	f3 0f 59 c1	 mulss	 xmm0, xmm1
; File C:\IAGOS\server\v18\Source\Source\_Common\Obj.h

; 220  : 	D3DXVECTOR3		GetScale()	{ return m_vScale; }

  003c7	89 45 f8	 mov	 DWORD PTR _vScale$7[ebp+8], eax
; File C:\IAGOS\server\v18\Source\Source\DX_SDK\d3dx9math.inl

; 342  :     x *= f;

  003ca	f3 0f 59 d1	 mulss	 xmm2, xmm1

; 343  :     y *= f;

  003ce	f3 0f 11 45 f4	 movss	 DWORD PTR _vScale$7[ebp+4], xmm0

; 344  :     z *= f;

  003d3	f3 0f 10 45 f8	 movss	 xmm0, DWORD PTR _vScale$7[ebp+8]
  003d8	f3 0f 59 c1	 mulss	 xmm0, xmm1
  003dc	f3 0f 11 55 f0	 movss	 DWORD PTR _vScale$7[ebp], xmm2
  003e1	f3 0f 11 45 f8	 movss	 DWORD PTR _vScale$7[ebp+8], xmm0
  003e6	f3 0f 10 05 00
	00 00 00	 movss	 xmm0, DWORD PTR __real@41200000
  003ee	0f 2f c2	 comiss	 xmm0, xmm2
; File C:\IAGOS\server\v18\Source\Source\_Common\MoverActEvent.cpp

; 1561 : 			if( vScale.x < 10.0f )

  003f1	76 32		 jbe	 SHORT $LN24@OnAttackMe

; 1562 : 			{
; 1563 : 				SetScale( vScale );

  003f3	8d 45 f0	 lea	 eax, DWORD PTR _vScale$7[ebp]
  003f6	8b cb		 mov	 ecx, ebx
  003f8	50		 push	 eax
  003f9	e8 00 00 00 00	 call	 ?SetScale@CObj@@QAEXABUD3DXVECTOR3@@@Z ; CObj::SetScale

; 1564 : 				g_UserMng.AddSetScale( this, (vScale.x / m_pModel->m_pModelElem->m_fScale)  );

  003fe	8b 83 78 01 00
	00		 mov	 eax, DWORD PTR [ebx+376]
  00404	f3 0f 10 45 f0	 movss	 xmm0, DWORD PTR _vScale$7[ebp]
  00409	51		 push	 ecx
  0040a	b9 00 00 00 00	 mov	 ecx, OFFSET ?g_UserMng@@3VCUserMng@@A ; g_UserMng
  0040f	8b 80 90 00 00
	00		 mov	 eax, DWORD PTR [eax+144]
  00415	f3 0f 5e 40 74	 divss	 xmm0, DWORD PTR [eax+116]
  0041a	f3 0f 11 04 24	 movss	 DWORD PTR [esp], xmm0
  0041f	53		 push	 ebx
  00420	e8 00 00 00 00	 call	 ?AddSetScale@CUserMng@@QAEXPAVCMover@@M@Z ; CUserMng::AddSetScale
$LN24@OnAttackMe:

; 1565 : 			}
; 1566 : 			
; 1567 : #endif //__WORLDSERVER			
; 1568 : 		}
; 1569 : 		break;
; 1570 : 	}
; 1571 : }

  00425	8b 4d fc	 mov	 ecx, DWORD PTR __$ArrayPad$[ebp]
  00428	5f		 pop	 edi
  00429	5e		 pop	 esi
  0042a	33 cd		 xor	 ecx, ebp
  0042c	5b		 pop	 ebx
  0042d	e8 00 00 00 00	 call	 @__security_check_cookie@4
  00432	8b e5		 mov	 esp, ebp
  00434	5d		 pop	 ebp
  00435	c2 08 00	 ret	 8
?OnAttackMelee_Bear@CMover@@QAEXKPAV1@@Z ENDP		; CMover::OnAttackMelee_Bear
_TEXT	ENDS
; Function compile flags: /Ogtp
; File C:\IAGOS\server\v18\Source\Source\_Common\MoverActEvent.cpp
; File C:\IAGOS\server\v18\Source\Source\_Common\ModelObject.h
; File C:\IAGOS\server\v18\Source\Source\_Common\MoverActEvent.cpp
; File C:\IAGOS\server\v18\Source\Source\_Common\xUtil.h
; File C:\IAGOS\server\v18\Source\Source\_Common\MoverActEvent.cpp
; File C:\IAGOS\server\v18\Source\Source\_Common\XUtil3D.h
; File C:\Program Files (x86)\Windows Kits\10\Include\10.0.26100.0\ucrt\corecrt_math.h
; File C:\IAGOS\server\v18\Source\Source\_Common\XUtil3D.h
; File C:\Program Files (x86)\Windows Kits\10\Include\10.0.26100.0\ucrt\corecrt_math.h
; File C:\IAGOS\server\v18\Source\Source\_Common\Obj.h
; File C:\Program Files (x86)\Windows Kits\10\Include\10.0.26100.0\ucrt\corecrt_math.h
; File C:\IAGOS\server\v18\Source\Source\_Common\XUtil3D.h
; File C:\IAGOS\server\v18\Source\Source\_Common\MoverActEvent.cpp
; File C:\IAGOS\server\v18\Source\Source\_Common\XUtil3D.h
; File C:\IAGOS\server\v18\Source\Source\_Common\Obj.h
; File C:\IAGOS\server\v18\Source\Source\DX_SDK\d3dx9math.inl
; File C:\IAGOS\server\v18\Source\Source\_Common\Obj.h
; File C:\IAGOS\server\v18\Source\Source\DX_SDK\d3dx9math.inl
; File C:\IAGOS\server\v18\Source\Source\_Common\MoverActEvent.cpp
; File C:\IAGOS\server\v18\Source\Source\_Common\Obj.h
; File C:\IAGOS\server\v18\Source\Source\_Common\MoverActEvent.cpp
; File C:\IAGOS\server\v18\Source\Source\_Common\Obj.h
; File C:\IAGOS\server\v18\Source\Source\_Common\MoverActEvent.cpp
;	COMDAT ?OnAttackMelee_Krrr@CMover@@QAEXKPAV1@@Z
_TEXT	SEGMENT
_pSkillProp$1 = -44					; size = 4
tv686 = -44						; size = 4
_pModel$1$ = -40					; size = 4
tv611 = -40						; size = 4
$T2 = -36						; size = 12
tv673 = -32						; size = 8
_pAddSkillProp$3 = -28					; size = 4
_pSkillProp$4 = -28					; size = 4
_pSkillProp$5 = -28					; size = 4
_this$GSCopy$1$ = -28					; size = 4
_pProc$1$ = -24						; size = 4
_pHitObj$GSCopy$1$ = -24				; size = 4
_pAddSkillProp$6 = -20					; size = 4
_pAddSkillProp$7 = -20					; size = 4
_nItemID$1$ = -20					; size = 4
_pElem$1$ = -20						; size = 4
?vLocal@?BC@??OnAttackMelee_Krrr@CMover@@QAEXKPAV2@@Z@4UD3DXVECTOR3@@A$1 = -20 ; size = 4
$T8 = -16						; size = 12
$T9 = -16						; size = 12
__$ArrayPad$ = -4					; size = 4
_dwState$ = 8						; size = 4
_pHitObj$ = 12						; size = 4
?OnAttackMelee_Krrr@CMover@@QAEXKPAV1@@Z PROC		; CMover::OnAttackMelee_Krrr, COMDAT
; _this$ = ecx

; 1191 : {

  00000	55		 push	 ebp
  00001	8b ec		 mov	 ebp, esp
  00003	83 ec 2c	 sub	 esp, 44			; 0000002cH
  00006	a1 00 00 00 00	 mov	 eax, DWORD PTR ___security_cookie
  0000b	33 c5		 xor	 eax, ebp
  0000d	89 45 fc	 mov	 DWORD PTR __$ArrayPad$[ebp], eax
  00010	8b 45 0c	 mov	 eax, DWORD PTR _pHitObj$[ebp]
  00013	56		 push	 esi
  00014	8b f1		 mov	 esi, ecx
  00016	89 45 e8	 mov	 DWORD PTR _pHitObj$GSCopy$1$[ebp], eax
  00019	57		 push	 edi
  0001a	89 75 e4	 mov	 DWORD PTR _this$GSCopy$1$[ebp], esi

; 1192 : 	int		nItemID = GetActParam( 1 );	// 사용할 아이템 아이디

  0001d	8b 86 b4 11 00
	00		 mov	 eax, DWORD PTR [esi+4532]
  00023	89 45 ec	 mov	 DWORD PTR _nItemID$1$[ebp], eax

; 1193 : 
; 1194 : 	CModelObject *pModel = (CModelObject *)m_pModel;

  00026	8b 86 78 01 00
	00		 mov	 eax, DWORD PTR [esi+376]
  0002c	89 45 d8	 mov	 DWORD PTR _pModel$1$[ebp], eax

; 1195 : 	
; 1196 : #ifdef __WORLDSERVER
; 1197 : 	UpdateMatrix();		// 몸체의 특정부위에서 나는 데미지를 처리하기 위해선 서버에서도 매트릭스를 갱신해야한다.

  0002f	e8 00 00 00 00	 call	 ?UpdateMatrix@CObj@@QAEXXZ ; CObj::UpdateMatrix
; File C:\IAGOS\server\v18\Source\Source\_Common\ModelObject.h

; 311  : 		if( m_pMotion )		// 현재 프레임의 모션에 대한 매트릭스를 갱신시킴.

  00034	8b 4d d8	 mov	 ecx, DWORD PTR _pModel$1$[ebp]
  00037	83 b9 8c 2a 00
	00 00		 cmp	 DWORD PTR [ecx+10892], 0
  0003e	74 5a		 je	 SHORT $LN30@OnAttackMe

; 312  : 			m_pMotion->AnimateBone( m_mUpdateBone, m_pMotionOld, m_fFrameCurrent, GetNextFrame(), m_nFrameOld, m_bMotionBlending, m_fBlendWeight );	

  00040	f3 0f 10 81 c4
	00 00 00	 movss	 xmm0, DWORD PTR [ecx+196]
  00048	f3 0f 10 89 a0
	00 00 00	 movss	 xmm1, DWORD PTR [ecx+160]
  00050	8b 81 8c 2a 00
	00		 mov	 eax, DWORD PTR [ecx+10892]
  00056	8b b1 88 2a 00
	00		 mov	 esi, DWORD PTR [ecx+10888]
  0005c	8b b9 9c 2a 00
	00		 mov	 edi, DWORD PTR [ecx+10908]
  00062	51		 push	 ecx
  00063	f3 0f 11 04 24	 movss	 DWORD PTR [esp], xmm0
  00068	ff b1 c0 00 00
	00		 push	 DWORD PTR [ecx+192]
  0006e	f3 0f 11 4d d8	 movss	 DWORD PTR tv611[ebp], xmm1
  00073	ff b1 98 2a 00
	00		 push	 DWORD PTR [ecx+10904]
  00079	89 45 d4	 mov	 DWORD PTR tv686[ebp], eax
  0007c	e8 00 00 00 00	 call	 ?GetNextFrame@CModel@@QAEHXZ ; CModel::GetNextFrame
  00081	f3 0f 10 45 d8	 movss	 xmm0, DWORD PTR tv611[ebp]
  00086	50		 push	 eax
  00087	51		 push	 ecx
  00088	8b 4d d4	 mov	 ecx, DWORD PTR tv686[ebp]
  0008b	f3 0f 11 04 24	 movss	 DWORD PTR [esp], xmm0
  00090	56		 push	 esi
  00091	57		 push	 edi
  00092	e8 00 00 00 00	 call	 ?AnimateBone@CMotion@@QAEXPAUD3DXMATRIX@@PAV1@MHHHM@Z ; CMotion::AnimateBone
  00097	8b 75 e4	 mov	 esi, DWORD PTR _this$GSCopy$1$[ebp]
$LN30@OnAttackMe:
; File C:\IAGOS\server\v18\Source\Source\_Common\MoverActEvent.cpp

; 1201 : 	switch( dwState )

  0009a	8b 7d 08	 mov	 edi, DWORD PTR _dwState$[ebp]
  0009d	81 ff 00 00 03
	00		 cmp	 edi, 196608		; 00030000H
  000a3	0f 87 0b 01 00
	00		 ja	 $LN25@OnAttackMe
  000a9	0f 84 b4 00 00
	00		 je	 $LN10@OnAttackMe
  000af	81 ff 00 00 01
	00		 cmp	 edi, 65536		; 00010000H
  000b5	0f 84 84 00 00
	00		 je	 $LN5@OnAttackMe
  000bb	81 ff 00 00 02
	00		 cmp	 edi, 131072		; 00020000H
  000c1	0f 85 32 03 00
	00		 jne	 $LN23@OnAttackMe
; File C:\IAGOS\server\v18\Source\Source\_Common\xUtil.h

; 16   : 	g_next = g_next * 1103515245 + 12345;// + nRandomSeed[ i++ ];

  000c7	69 0d 00 00 00
	00 6d 4e c6 41	 imul	 ecx, DWORD PTR ?g_next@@3KA, 1103515245 ; g_next

; 22   : 	return  xRand() % num;

  000d1	b8 1f 85 eb 51	 mov	 eax, 1374389535		; 51eb851fH

; 16   : 	g_next = g_next * 1103515245 + 12345;// + nRandomSeed[ i++ ];

  000d6	81 c1 39 30 00
	00		 add	 ecx, 12345		; 00003039H

; 22   : 	return  xRand() % num;

  000dc	f7 e1		 mul	 ecx

; 16   : 	g_next = g_next * 1103515245 + 12345;// + nRandomSeed[ i++ ];

  000de	89 0d 00 00 00
	00		 mov	 DWORD PTR ?g_next@@3KA, ecx ; g_next

; 22   : 	return  xRand() % num;

  000e4	c1 ea 05	 shr	 edx, 5
  000e7	6b c2 64	 imul	 eax, edx, 100
  000ea	2b c8		 sub	 ecx, eax
; File C:\IAGOS\server\v18\Source\Source\_Common\MoverActEvent.cpp

; 1214 : 			if( nRandom <= 50 )

  000ec	83 f9 32	 cmp	 ecx, 50			; 00000032H
  000ef	7f 4e		 jg	 SHORT $LN5@OnAttackMe

; 1215 : 			{
; 1216 : 				ItemProp *pSkillProp;
; 1217 : 				AddSkillProp *pAddSkillProp;
; 1218 : 				BOOL bSuccess = GetSkillProp( &pSkillProp, &pAddSkillProp, SI_KRRR_POISON, 1, "OnSfxHit" );

  000f1	8b 06		 mov	 eax, DWORD PTR [esi]
  000f3	8d 4d e4	 lea	 ecx, DWORD PTR _pAddSkillProp$3[ebp]
  000f6	68 00 00 00 00	 push	 OFFSET ??_C@_08IKHLBNOC@OnSfxHit@
  000fb	6a 01		 push	 1
  000fd	68 2d 01 00 00	 push	 301			; 0000012dH
  00102	8b 40 30	 mov	 eax, DWORD PTR [eax+48]
  00105	51		 push	 ecx
  00106	8d 4d d4	 lea	 ecx, DWORD PTR _pSkillProp$1[ebp]
  00109	51		 push	 ecx
  0010a	8b ce		 mov	 ecx, esi
  0010c	ff d0		 call	 eax

; 1219 : 				if( bSuccess )

  0010e	85 c0		 test	 eax, eax
  00110	0f 84 e3 02 00
	00		 je	 $LN23@OnAttackMe

; 1220 : 				{
; 1221 : 					pHitObj->ApplySkill( this, pSkillProp, pAddSkillProp );

  00116	8b 4d e8	 mov	 ecx, DWORD PTR _pHitObj$GSCopy$1$[ebp]
  00119	6a 01		 push	 1
  0011b	6a 00		 push	 0
  0011d	6a 00		 push	 0
  0011f	6a 00		 push	 0
  00121	ff 75 e4	 push	 DWORD PTR _pAddSkillProp$3[ebp]
  00124	ff 75 d4	 push	 DWORD PTR _pSkillProp$1[ebp]
  00127	56		 push	 esi
  00128	e8 00 00 00 00	 call	 ?ApplySkill@CCtrl@@QAEXPAV1@PAUItemProp@@PAUAddSkillProp@@_NHHH@Z ; CCtrl::ApplySkill
  0012d	5f		 pop	 edi

; 1331 : 					, 5.0f );	
; 1332 : 		#endif //__WORLDSERVER
; 1333 : 				
; 1334 : 			}
; 1335 : 		}
; 1336 : 		break;
; 1337 : 	}
; 1338 : }

  0012e	5e		 pop	 esi
  0012f	8b 4d fc	 mov	 ecx, DWORD PTR __$ArrayPad$[ebp]
  00132	33 cd		 xor	 ecx, ebp
  00134	e8 00 00 00 00	 call	 @__security_check_cookie@4
  00139	8b e5		 mov	 esp, ebp
  0013b	5d		 pop	 ebp
  0013c	c2 08 00	 ret	 8
$LN5@OnAttackMe:

; 1202 : 	{
; 1203 : 	case OBJSTA_ATK1:	
; 1204 : 		{
; 1205 : 	#ifdef __WORLDSERVER			
; 1206 : 			OnDamage( nItemID, dwState, pHitObj );		

  0013f	6a 01		 push	 1
  00141	6a 00		 push	 0
  00143	ff 75 e8	 push	 DWORD PTR _pHitObj$GSCopy$1$[ebp]
  00146	8b ce		 mov	 ecx, esi
  00148	57		 push	 edi
  00149	ff 75 ec	 push	 DWORD PTR _nItemID$1$[ebp]
  0014c	e8 00 00 00 00	 call	 ?OnDamage@CMover@@QAEHHKPAV1@PBUD3DXVECTOR3@@K@Z ; CMover::OnDamage
  00151	5f		 pop	 edi

; 1331 : 					, 5.0f );	
; 1332 : 		#endif //__WORLDSERVER
; 1333 : 				
; 1334 : 			}
; 1335 : 		}
; 1336 : 		break;
; 1337 : 	}
; 1338 : }

  00152	5e		 pop	 esi
  00153	8b 4d fc	 mov	 ecx, DWORD PTR __$ArrayPad$[ebp]
  00156	33 cd		 xor	 ecx, ebp
  00158	e8 00 00 00 00	 call	 @__security_check_cookie@4
  0015d	8b e5		 mov	 esp, ebp
  0015f	5d		 pop	 ebp
  00160	c2 08 00	 ret	 8
$LN10@OnAttackMe:

; 1222 : 				}
; 1223 : 			}
; 1224 : 			else
; 1225 : 			{
; 1226 : 				OnDamage( nItemID, dwState, pHitObj );		
; 1227 : 			}
; 1228 : 	#endif // WorldServer
; 1229 : 		}
; 1230 : 		break;
; 1231 : 	case OBJSTA_ATK3:		// 두손으로 도끼 내려치기
; 1232 : 		{
; 1233 : 		#ifdef __CLIENT
; 1234 : 			CSfx *pSfx = CreateSfx( D3DDEVICE, XI_NPCSP1DIRFIRESP, pHitObj->GetPos() );	// 이펙트를 발생 - 서버에선 생성 안됨.
; 1235 : 			if( pSfx )
; 1236 : 				pSfx->SetAngle( -GetAngle() );
; 1237 : 
; 1238 : 			PLAYSND( SND_PC_BOSS_CRASH, &pHitObj->GetPos() );
; 1239 : 		#endif //__CLIENT
; 1240 : 
; 1241 : 		#ifdef __WORLDSERVER
; 1242 : 			ItemProp *pSkillProp;
; 1243 : 			AddSkillProp *pAddSkillProp;
; 1244 : 			BOOL bSuccess = GetSkillProp( &pSkillProp, &pAddSkillProp, SI_GEN_KNOCK_BACK, 4, "OnAttackMelee_BigMuscle" );

  00163	8b 06		 mov	 eax, DWORD PTR [esi]
  00165	8d 4d ec	 lea	 ecx, DWORD PTR _pAddSkillProp$6[ebp]
  00168	68 00 00 00 00	 push	 OFFSET ??_C@_0BI@NKGAIBCK@OnAttackMelee_BigMuscle@
  0016d	6a 04		 push	 4
  0016f	68 e0 00 00 00	 push	 224			; 000000e0H
  00174	8b 40 30	 mov	 eax, DWORD PTR [eax+48]
  00177	51		 push	 ecx
  00178	8d 4d e4	 lea	 ecx, DWORD PTR _pSkillProp$4[ebp]
  0017b	51		 push	 ecx
  0017c	8b ce		 mov	 ecx, esi
  0017e	ff d0		 call	 eax

; 1245 : 			if( bSuccess )

  00180	85 c0		 test	 eax, eax
  00182	74 1e		 je	 SHORT $LN11@OnAttackMe

; 1246 : 				ApplySkillAround( this, OBJTYPE_PLAYER, pSkillProp, pAddSkillProp , false );							

  00184	6a 00		 push	 0
  00186	51		 push	 ecx
  00187	c7 04 24 00 00
	00 00		 mov	 DWORD PTR [esp], 0
  0018e	8b ce		 mov	 ecx, esi
  00190	6a 00		 push	 0
  00192	6a 00		 push	 0
  00194	ff 75 ec	 push	 DWORD PTR _pAddSkillProp$6[ebp]
  00197	ff 75 e4	 push	 DWORD PTR _pSkillProp$4[ebp]
  0019a	6a 01		 push	 1
  0019c	56		 push	 esi
  0019d	e8 00 00 00 00	 call	 ?ApplySkillAround@CCtrl@@QAEXPAV1@HPAUItemProp@@PAUAddSkillProp@@_NHMH@Z ; CCtrl::ApplySkillAround
$LN11@OnAttackMe:

; 1247 : 
; 1248 : 			GetWorld()->SendDamageAround( &(pHitObj->GetPos()), AF_GENERIC, this, OBJTYPE_PLAYER, II_WEA_MOB_MONSTER4_ATK1

  001a2	51		 push	 ecx
  001a3	c7 04 24 00 00
	e0 40		 mov	 DWORD PTR [esp], 1088421888 ; 40e00000H
  001aa	68 2d 24 00 00	 push	 9261			; 0000242dH

; 1249 : 				, 7.0f );	
; 1250 : 		#endif //__WORLDSERVER
; 1251 : 		}
; 1252 : 		break;

  001af	e9 18 02 00 00	 jmp	 $LN70@OnAttackMe
$LN25@OnAttackMe:

; 1201 : 	switch( dwState )

  001b4	81 ff 00 00 04
	00		 cmp	 edi, 262144		; 00040000H
  001ba	0f 85 39 02 00
	00		 jne	 $LN23@OnAttackMe

; 1253 : 	case OBJSTA_ATK4:		// 주문을 외우고 플레이어들 한곳에 모인후 광역데미지 줌
; 1254 : 		{
; 1255 : 			static D3DXVECTOR3	  vLocal;
; 1256 : 			if( m_pActMover->m_nMotionHitCount == 0 )

  001c0	8b 86 38 02 00
	00		 mov	 eax, DWORD PTR [esi+568]
  001c6	8b 80 9c 00 00
	00		 mov	 eax, DWORD PTR [eax+156]
  001cc	85 c0		 test	 eax, eax
  001ce	0f 85 8b 01 00
	00		 jne	 $LN13@OnAttackMe
; File C:\IAGOS\server\v18\Source\Source\_Common\XUtil3D.h

; 39   : 	fAngXZ = D3DXToRadian(fAngXZ);

  001d4	f3 0f 10 46 18	 movss	 xmm0, DWORD PTR [esi+24]
  001d9	f3 0f 59 05 00
	00 00 00	 mulss	 xmm0, DWORD PTR __real@3c8efa35
; File C:\Program Files (x86)\Windows Kits\10\Include\10.0.26100.0\ucrt\corecrt_math.h

; 789  :             return (float)sin(_X);

  001e1	0f 5a c0	 cvtps2pd xmm0, xmm0
  001e4	f2 0f 11 45 e0	 movsd	 QWORD PTR tv673[ebp], xmm0
  001e9	e8 00 00 00 00	 call	 __libm_sse2_sin_precise
  001ee	f2 0f 5a c0	 cvtsd2ss xmm0, xmm0
; File C:\IAGOS\server\v18\Source\Source\_Common\XUtil3D.h

; 40   : 	vDelta->x = sinf(fAngXZ) * fSpeed;

  001f2	f3 0f 59 05 00
	00 00 00	 mulss	 xmm0, DWORD PTR __real@40a00000
  001fa	f3 0f 11 45 ec	 movss	 DWORD PTR ?vLocal@?BC@??OnAttackMelee_Krrr@CMover@@QAEXKPAV2@@Z@4UD3DXVECTOR3@@A$1[ebp], xmm0
  001ff	f3 0f 11 05 00
	00 00 00	 movss	 DWORD PTR ?vLocal@?BC@??OnAttackMelee_Krrr@CMover@@QAEXKPAV2@@Z@4UD3DXVECTOR3@@A, xmm0
; File C:\Program Files (x86)\Windows Kits\10\Include\10.0.26100.0\ucrt\corecrt_math.h

; 683  :             return (float)cos(_X);

  00207	f2 0f 10 45 e0	 movsd	 xmm0, QWORD PTR tv673[ebp]
  0020c	e8 00 00 00 00	 call	 __libm_sse2_cos_precise
; File C:\IAGOS\server\v18\Source\Source\_Common\Obj.h

; 215  : 	D3DXVECTOR3		GetPos()	{ return m_vPos; }

  00211	f3 0f 10 5d ec	 movss	 xmm3, DWORD PTR ?vLocal@?BC@??OnAttackMelee_Krrr@CMover@@QAEXKPAV2@@Z@4UD3DXVECTOR3@@A$1[ebp]
; File C:\Program Files (x86)\Windows Kits\10\Include\10.0.26100.0\ucrt\corecrt_math.h

; 683  :             return (float)cos(_X);

  00216	0f 57 d2	 xorps	 xmm2, xmm2
  00219	f2 0f 5a d0	 cvtsd2ss xmm2, xmm0
; File C:\IAGOS\server\v18\Source\Source\_Common\XUtil3D.h

; 42   : 	vDelta->y = 0;

  0021d	c7 05 04 00 00
	00 00 00 00 00	 mov	 DWORD PTR ?vLocal@?BC@??OnAttackMelee_Krrr@CMover@@QAEXKPAV2@@Z@4UD3DXVECTOR3@@A+4, 0
; File C:\IAGOS\server\v18\Source\Source\_Common\MoverActEvent.cpp

; 1265 : 				FLOAT fHeight = GetWorld()->GetLandHeight( vLocal.x, vLocal.z );

  00227	83 ec 08	 sub	 esp, 8
  0022a	0f 57 c9	 xorps	 xmm1, xmm1
; File C:\IAGOS\server\v18\Source\Source\_Common\XUtil3D.h

; 41   : 	vDelta->z = -cosf(fAngXZ) * fSpeed;

  0022d	0f 57 15 00 00
	00 00		 xorps	 xmm2, DWORD PTR __xmm@80000000800000008000000080000000
  00234	f3 0f 59 15 00
	00 00 00	 mulss	 xmm2, DWORD PTR __real@40a00000
  0023c	f3 0f 11 15 08
	00 00 00	 movss	 DWORD PTR ?vLocal@?BC@??OnAttackMelee_Krrr@CMover@@QAEXKPAV2@@Z@4UD3DXVECTOR3@@A+8, xmm2
; File C:\IAGOS\server\v18\Source\Source\_Common\Obj.h

; 215  : 	D3DXVECTOR3		GetPos()	{ return m_vPos; }

  00244	f3 0f 7e 86 60
	01 00 00	 movq	 xmm0, QWORD PTR [esi+352]
  0024c	8b 86 68 01 00
	00		 mov	 eax, DWORD PTR [esi+360]
  00252	66 0f d6 45 dc	 movq	 QWORD PTR $T2[ebp], xmm0
; File C:\IAGOS\server\v18\Source\Source\DX_SDK\d3dx9math.inl

; 324  :     x += v.x;

  00257	f3 0f 10 45 e0	 movss	 xmm0, DWORD PTR $T2[ebp+4]
; File C:\IAGOS\server\v18\Source\Source\_Common\Obj.h

; 215  : 	D3DXVECTOR3		GetPos()	{ return m_vPos; }

  0025c	f3 0f 58 5d dc	 addss	 xmm3, DWORD PTR $T2[ebp]
  00261	89 45 e4	 mov	 DWORD PTR $T2[ebp+8], eax
; File C:\IAGOS\server\v18\Source\Source\DX_SDK\d3dx9math.inl

; 324  :     x += v.x;

  00264	f3 0f 58 c1	 addss	 xmm0, xmm1

; 325  :     y += v.y;

  00268	f3 0f 58 55 e4	 addss	 xmm2, DWORD PTR $T2[ebp+8]
  0026d	f3 0f 11 1d 00
	00 00 00	 movss	 DWORD PTR ?vLocal@?BC@??OnAttackMelee_Krrr@CMover@@QAEXKPAV2@@Z@4UD3DXVECTOR3@@A, xmm3
  00275	f3 0f 11 05 04
	00 00 00	 movss	 DWORD PTR ?vLocal@?BC@??OnAttackMelee_Krrr@CMover@@QAEXKPAV2@@Z@4UD3DXVECTOR3@@A+4, xmm0

; 326  :     z += v.z;

  0027d	f3 0f 11 15 08
	00 00 00	 movss	 DWORD PTR ?vLocal@?BC@??OnAttackMelee_Krrr@CMover@@QAEXKPAV2@@Z@4UD3DXVECTOR3@@A+8, xmm2
; File C:\IAGOS\server\v18\Source\Source\_Common\MoverActEvent.cpp

; 1265 : 				FLOAT fHeight = GetWorld()->GetLandHeight( vLocal.x, vLocal.z );

  00285	8b 8e 6c 01 00
	00		 mov	 ecx, DWORD PTR [esi+364]
  0028b	f3 0f 11 54 24
	04		 movss	 DWORD PTR [esp+4], xmm2
  00291	f3 0f 11 1c 24	 movss	 DWORD PTR [esp], xmm3
  00296	e8 00 00 00 00	 call	 ?GetLandHeight@CWorld@@QAEMMM@Z ; CWorld::GetLandHeight

; 1266 : 				vLocal.y = fHeight;

  0029b	d9 1d 04 00 00
	00		 fstp	 DWORD PTR ?vLocal@?BC@??OnAttackMelee_Krrr@CMover@@QAEXKPAV2@@Z@4UD3DXVECTOR3@@A+4

; 1267 : 				
; 1268 : 		#ifdef __WORLDSERVER
; 1269 : 				CPartyQuestProcessor* pProc	= CPartyQuestProcessor::GetInstance();

  002a1	e8 00 00 00 00	 call	 ?GetInstance@CPartyQuestProcessor@@SAPAV1@XZ ; CPartyQuestProcessor::GetInstance

; 1270 : 				CWorld* pWorld	= GetWorld();

  002a6	8b 96 6c 01 00
	00		 mov	 edx, DWORD PTR [esi+364]
  002ac	89 45 e8	 mov	 DWORD PTR _pProc$1$[ebp], eax

; 1271 : 				if( pWorld )

  002af	85 d2		 test	 edx, edx
  002b1	0f 84 42 01 00
	00		 je	 $LN23@OnAttackMe
; File C:\IAGOS\server\v18\Source\Source\_Common\Obj.h

; 215  : 	D3DXVECTOR3		GetPos()	{ return m_vPos; }

  002b7	8b 8e 68 01 00
	00		 mov	 ecx, DWORD PTR [esi+360]
  002bd	f3 0f 7e 86 60
	01 00 00	 movq	 xmm0, QWORD PTR [esi+352]
  002c5	89 4d f8	 mov	 DWORD PTR $T8[ebp+8], ecx
; File C:\IAGOS\server\v18\Source\Source\_Common\MoverActEvent.cpp

; 1273 : 					int nId	= pProc->PtInQuestRect( pWorld->GetID(), GetPos() );

  002c8	8d 4d f0	 lea	 ecx, DWORD PTR $T8[ebp]
  002cb	51		 push	 ecx
  002cc	ff 32		 push	 DWORD PTR [edx]
  002ce	8b c8		 mov	 ecx, eax
; File C:\IAGOS\server\v18\Source\Source\_Common\Obj.h

; 215  : 	D3DXVECTOR3		GetPos()	{ return m_vPos; }

  002d0	66 0f d6 45 f0	 movq	 QWORD PTR $T8[ebp], xmm0
; File C:\IAGOS\server\v18\Source\Source\_Common\MoverActEvent.cpp

; 1273 : 					int nId	= pProc->PtInQuestRect( pWorld->GetID(), GetPos() );

  002d5	e8 00 00 00 00	 call	 ?PtInQuestRect@CPartyQuestProcessor@@QAEHKABUD3DXVECTOR3@@@Z ; CPartyQuestProcessor::PtInQuestRect
  002da	8b f8		 mov	 edi, eax

; 1274 : 					if( nId > -1 )

  002dc	83 ff ff	 cmp	 edi, -1
  002df	0f 8e 14 01 00
	00		 jle	 $LN23@OnAttackMe

; 1275 : 					{
; 1276 : 						PPARTYQUESTELEM pElem	= pProc->GetPartyQuest( nId );

  002e5	8b 4d e8	 mov	 ecx, DWORD PTR _pProc$1$[ebp]
  002e8	57		 push	 edi
  002e9	e8 00 00 00 00	 call	 ?GetPartyQuest@CPartyQuestProcessor@@QAEPAU_PARTYQUESTELEM@@H@Z ; CPartyQuestProcessor::GetPartyQuest

; 1277 : 						PPARTYQUESTRECT pRect	= pProc->GetPartyQuestRect( nId );

  002ee	8b 4d e8	 mov	 ecx, DWORD PTR _pProc$1$[ebp]
  002f1	57		 push	 edi
  002f2	89 45 ec	 mov	 DWORD PTR _pElem$1$[ebp], eax
  002f5	e8 00 00 00 00	 call	 ?GetPartyQuestRect@CPartyQuestProcessor@@QAEPAU__PARTYQUESTRECT@@H@Z ; CPartyQuestProcessor::GetPartyQuestRect

; 1278 : 						if( pElem && pRect )

  002fa	8b 4d ec	 mov	 ecx, DWORD PTR _pElem$1$[ebp]
  002fd	85 c9		 test	 ecx, ecx
  002ff	0f 84 f4 00 00
	00		 je	 $LN23@OnAttackMe
  00305	85 c0		 test	 eax, eax
  00307	0f 84 ec 00 00
	00		 je	 $LN23@OnAttackMe

; 1279 : #ifdef __LAYER_1015
; 1280 : 							g_UserMng.ReplaceWorldArea( pElem->idParty, pRect->dwWorldId, pRect->dwWorldId, vLocal.x, vLocal.z, 0.5f, TRUE, GetLayer() );

  0030d	ff b6 b8 01 00
	00		 push	 DWORD PTR [esi+440]
  00313	f3 0f 10 05 08
	00 00 00	 movss	 xmm0, DWORD PTR ?vLocal@?BC@??OnAttackMelee_Krrr@CMover@@QAEXKPAV2@@Z@4UD3DXVECTOR3@@A+8
  0031b	8b 40 04	 mov	 eax, DWORD PTR [eax+4]
  0031e	6a 01		 push	 1
  00320	83 ec 0c	 sub	 esp, 12			; 0000000cH
  00323	c7 44 24 08 00
	00 00 3f	 mov	 DWORD PTR [esp+8], 1056964608 ; 3f000000H
  0032b	f3 0f 11 44 24
	04		 movss	 DWORD PTR [esp+4], xmm0
  00331	f3 0f 10 05 00
	00 00 00	 movss	 xmm0, DWORD PTR ?vLocal@?BC@??OnAttackMelee_Krrr@CMover@@QAEXKPAV2@@Z@4UD3DXVECTOR3@@A
  00339	f3 0f 11 04 24	 movss	 DWORD PTR [esp], xmm0
  0033e	50		 push	 eax
  0033f	50		 push	 eax
  00340	ff 71 08	 push	 DWORD PTR [ecx+8]
  00343	b9 00 00 00 00	 mov	 ecx, OFFSET ?g_UserMng@@3VCUserMng@@A ; g_UserMng
  00348	e8 00 00 00 00	 call	 ?ReplaceWorldArea@CUserMng@@QAEXKKKMMMHH@Z ; CUserMng::ReplaceWorldArea
  0034d	5f		 pop	 edi

; 1331 : 					, 5.0f );	
; 1332 : 		#endif //__WORLDSERVER
; 1333 : 				
; 1334 : 			}
; 1335 : 		}
; 1336 : 		break;
; 1337 : 	}
; 1338 : }

  0034e	5e		 pop	 esi
  0034f	8b 4d fc	 mov	 ecx, DWORD PTR __$ArrayPad$[ebp]
  00352	33 cd		 xor	 ecx, ebp
  00354	e8 00 00 00 00	 call	 @__security_check_cookie@4
  00359	8b e5		 mov	 esp, ebp
  0035b	5d		 pop	 ebp
  0035c	c2 08 00	 ret	 8
$LN13@OnAttackMe:

; 1281 : #else	// __LAYER_1015
; 1282 : 							g_UserMng.ReplaceWorldArea( pElem->idParty, pRect->dwWorldId, pRect->dwWorldId, vLocal.x, vLocal.z, 0.5f, TRUE );
; 1283 : #endif	// __LAYER_1015
; 1284 : 					}
; 1285 : 				}
; 1286 : 		#endif //__WORLDSERVER
; 1287 : 			}
; 1288 : 			else
; 1289 : 			if( m_pActMover->m_nMotionHitCount == 1 )		// 약 5초후에 스턴

  0035f	83 f8 01	 cmp	 eax, 1
  00362	75 51		 jne	 SHORT $LN18@OnAttackMe

; 1290 : 			{	
; 1291 : 		#ifdef __CLIENT
; 1292 : 				PLAYSND( SND_PC_BOSS_STUN );
; 1293 : 		#endif //__CLIENT
; 1294 : #ifdef __WORLDSERVER
; 1295 : 				ItemProp *pSkillProp;
; 1296 : 				AddSkillProp *pAddSkillProp;
; 1297 : 				BOOL bSuccess = GetSkillProp( &pSkillProp, &pAddSkillProp, SI_KRRR_STUNGROUP, 1, "OnAttackMelee_Krrr" );

  00364	8b 06		 mov	 eax, DWORD PTR [esi]
  00366	8d 4d ec	 lea	 ecx, DWORD PTR _pAddSkillProp$7[ebp]
  00369	68 00 00 00 00	 push	 OFFSET ??_C@_0BD@PLELFAFG@OnAttackMelee_Krrr@
  0036e	6a 01		 push	 1
  00370	68 2e 01 00 00	 push	 302			; 0000012eH
  00375	8b 40 30	 mov	 eax, DWORD PTR [eax+48]
  00378	51		 push	 ecx
  00379	8d 4d e4	 lea	 ecx, DWORD PTR _pSkillProp$5[ebp]
  0037c	51		 push	 ecx
  0037d	8b ce		 mov	 ecx, esi
  0037f	ff d0		 call	 eax

; 1298 : 				if( bSuccess )

  00381	85 c0		 test	 eax, eax
  00383	74 74		 je	 SHORT $LN23@OnAttackMe

; 1299 : 					ApplySkillAround( this, OBJTYPE_PLAYER, pSkillProp, pAddSkillProp , false );	

  00385	6a 00		 push	 0
  00387	51		 push	 ecx
  00388	c7 04 24 00 00
	00 00		 mov	 DWORD PTR [esp], 0
  0038f	8b ce		 mov	 ecx, esi
  00391	6a 00		 push	 0
  00393	6a 00		 push	 0
  00395	ff 75 ec	 push	 DWORD PTR _pAddSkillProp$7[ebp]
  00398	ff 75 e4	 push	 DWORD PTR _pSkillProp$5[ebp]
  0039b	6a 01		 push	 1
  0039d	56		 push	 esi
  0039e	e8 00 00 00 00	 call	 ?ApplySkillAround@CCtrl@@QAEXPAV1@HPAUItemProp@@PAUAddSkillProp@@_NHMH@Z ; CCtrl::ApplySkillAround
  003a3	5f		 pop	 edi

; 1331 : 					, 5.0f );	
; 1332 : 		#endif //__WORLDSERVER
; 1333 : 				
; 1334 : 			}
; 1335 : 		}
; 1336 : 		break;
; 1337 : 	}
; 1338 : }

  003a4	5e		 pop	 esi
  003a5	8b 4d fc	 mov	 ecx, DWORD PTR __$ArrayPad$[ebp]
  003a8	33 cd		 xor	 ecx, ebp
  003aa	e8 00 00 00 00	 call	 @__security_check_cookie@4
  003af	8b e5		 mov	 esp, ebp
  003b1	5d		 pop	 ebp
  003b2	c2 08 00	 ret	 8
$LN18@OnAttackMe:

; 1300 : #endif //__WORLDSERVER
; 1301 : 				
; 1302 : 			}
; 1303 : 			else
; 1304 : 			if( m_pActMover->m_nMotionHitCount == 2 )

  003b5	83 f8 02	 cmp	 eax, 2
  003b8	74 3f		 je	 SHORT $LN23@OnAttackMe

; 1305 : 			{	
; 1306 : #ifdef __CLIENT
; 1307 : 				D3DXVECTOR3 v3Pos = vLocal;
; 1308 : 				CSfx *pSfx = CreateSfx( D3DDEVICE, XI_SKILL_ELE_MULTI_METEOSHOWER02, v3Pos );	// 이펙트를 발생 - 서버에선 생성 안됨.
; 1309 : 				if( pSfx )
; 1310 : 					pSfx->SetScale( D3DXVECTOR3( 0.8f, 0.8f, 0.8f ) );
; 1311 : 				
; 1312 : 				v3Pos.x += ( xRandomF( 12.0f ) + -6.0f );
; 1313 : 				pSfx = CreateSfx( D3DDEVICE, XI_SKILL_ELE_MULTI_METEOSHOWER02, v3Pos );	// 이펙트를 발생 - 서버에선 생성 안됨.
; 1314 : 				if( pSfx )
; 1315 : 					pSfx->SetScale( D3DXVECTOR3( 0.8f, 0.8f, 0.8f ) );
; 1316 : 				
; 1317 : 				v3Pos = vLocal;
; 1318 : 				v3Pos.z += ( xRandomF( 12.0f ) + -6.0f );
; 1319 : 				pSfx = CreateSfx( D3DDEVICE, XI_SKILL_ELE_MULTI_METEOSHOWER02, v3Pos );	// 이펙트를 발생 - 서버에선 생성 안됨.
; 1320 : 				if( pSfx )
; 1321 : 					pSfx->SetScale( D3DXVECTOR3( 0.8f, 0.8f, 0.8f ) );
; 1322 : 				
; 1323 : #endif //__CLIENT
; 1324 : 				
; 1325 : 			}
; 1326 : 			else
; 1327 : 			if( m_pActMover->m_nMotionHitCount == 3 )

  003ba	83 f8 03	 cmp	 eax, 3
  003bd	75 3a		 jne	 SHORT $LN23@OnAttackMe

; 1328 : 			{	
; 1329 : 		#ifdef __WORLDSERVER
; 1330 : 				GetWorld()->SendDamageAround( &(pHitObj->GetPos()), AF_GENERIC, this, OBJTYPE_PLAYER, II_WEA_MOB_MONSTER4_ATK2

  003bf	51		 push	 ecx
  003c0	c7 04 24 00 00
	a0 40		 mov	 DWORD PTR [esp], 1084227584 ; 40a00000H
  003c7	68 2e 24 00 00	 push	 9262			; 0000242eH
$LN70@OnAttackMe:

; 1331 : 					, 5.0f );	
; 1332 : 		#endif //__WORLDSERVER
; 1333 : 				
; 1334 : 			}
; 1335 : 		}
; 1336 : 		break;
; 1337 : 	}
; 1338 : }

  003cc	8b 45 e8	 mov	 eax, DWORD PTR _pHitObj$GSCopy$1$[ebp]
  003cf	8b 8e 6c 01 00
	00		 mov	 ecx, DWORD PTR [esi+364]
  003d5	6a 01		 push	 1
  003d7	56		 push	 esi
  003d8	f3 0f 7e 80 60
	01 00 00	 movq	 xmm0, QWORD PTR [eax+352]
  003e0	8b 80 68 01 00
	00		 mov	 eax, DWORD PTR [eax+360]
  003e6	89 45 f8	 mov	 DWORD PTR $T9[ebp+8], eax
  003e9	8d 45 f0	 lea	 eax, DWORD PTR $T9[ebp]
  003ec	6a 01		 push	 1
  003ee	50		 push	 eax
  003ef	66 0f d6 45 f0	 movq	 QWORD PTR $T9[ebp], xmm0
  003f4	e8 00 00 00 00	 call	 ?SendDamageAround@CWorld@@QAEXPBUD3DXVECTOR3@@HPAVCMover@@HHM@Z ; CWorld::SendDamageAround
$LN23@OnAttackMe:
  003f9	8b 4d fc	 mov	 ecx, DWORD PTR __$ArrayPad$[ebp]
  003fc	5f		 pop	 edi
  003fd	33 cd		 xor	 ecx, ebp
  003ff	5e		 pop	 esi
  00400	e8 00 00 00 00	 call	 @__security_check_cookie@4
  00405	8b e5		 mov	 esp, ebp
  00407	5d		 pop	 ebp
  00408	c2 08 00	 ret	 8
?OnAttackMelee_Krrr@CMover@@QAEXKPAV1@@Z ENDP		; CMover::OnAttackMelee_Krrr
_TEXT	ENDS
; Function compile flags: /Ogtp
; File C:\IAGOS\server\v18\Source\Source\_Common\MoverActEvent.cpp
; File C:\IAGOS\server\v18\Source\Source\_Common\ModelObject.h
; File C:\IAGOS\server\v18\Source\Source\_Common\MoverActEvent.cpp
; File C:\IAGOS\server\v18\Source\Source\_Common\Obj.h
; File C:\IAGOS\server\v18\Source\Source\_Common\MoverActEvent.cpp
; File C:\IAGOS\server\v18\Source\Source\_Common\ModelObject.h
; File C:\IAGOS\server\v18\Source\Source\_Common\Obj.h
; File C:\IAGOS\server\v18\Source\Source\_Common\ModelObject.h
; File C:\IAGOS\server\v18\Source\Source\_Common\MoverActEvent.cpp
; File C:\IAGOS\server\v18\Source\Source\_Common\Obj.h
; File C:\IAGOS\server\v18\Source\Source\_Common\ModelObject.h
; File C:\IAGOS\server\v18\Source\Source\_Common\Obj.h
; File C:\IAGOS\server\v18\Source\Source\_Common\ModelObject.h
; File C:\IAGOS\server\v18\Source\Source\_Common\Obj.h
; File C:\IAGOS\server\v18\Source\Source\_Common\ModelObject.h
; File C:\IAGOS\server\v18\Source\Source\_Common\MoverActEvent.cpp
; File C:\IAGOS\server\v18\Source\Source\_Common\Obj.h
; File C:\IAGOS\server\v18\Source\Source\_Common\MoverActEvent.cpp
; File C:\IAGOS\server\v18\Source\Source\_Common\Obj.h
; File C:\IAGOS\server\v18\Source\Source\_Common\MoverActEvent.cpp
; File C:\IAGOS\server\v18\Source\Source\_Common\Obj.h
; File C:\IAGOS\server\v18\Source\Source\_Common\MoverActEvent.cpp
; File C:\IAGOS\server\v18\Source\Source\_Common\Obj.h
; File C:\IAGOS\server\v18\Source\Source\_Common\MoverActEvent.cpp
; File C:\IAGOS\server\v18\Source\Source\_Common\Obj.h
; File C:\IAGOS\server\v18\Source\Source\_Common\MoverActEvent.cpp
; File C:\IAGOS\server\v18\Source\Source\_Common\Obj.h
; File C:\IAGOS\server\v18\Source\Source\_Common\MoverActEvent.cpp
;	COMDAT ?OnAttackMelee_BigMuscle@CMover@@QAEXKPAV1@@Z
_TEXT	SEGMENT
_pHitObj$GSCopy$1$ = -168				; size = 4
_this$GSCopy$1$ = -164					; size = 4
tv567 = -160						; size = 4
_pModel$1$ = -156					; size = 4
_pAddSkillProp$1 = -152					; size = 4
_pAddSkillProp$2 = -152					; size = 4
_nItemID$1$ = -152					; size = 4
_pSkillProp$3 = -148					; size = 4
_pSkillProp$4 = -148					; size = 4
$T5 = -148						; size = 4
_mMatrix$6 = -144					; size = 64
_mMatrix$7 = -144					; size = 64
$T8 = -80						; size = 64
$T9 = -80						; size = 64
$T10 = -80						; size = 64
$T11 = -16						; size = 12
__$ArrayPad$ = -4					; size = 4
_dwState$ = 8						; size = 4
_pHitObj$ = 12						; size = 4
?OnAttackMelee_BigMuscle@CMover@@QAEXKPAV1@@Z PROC	; CMover::OnAttackMelee_BigMuscle, COMDAT
; _this$ = ecx

; 1053 : {

  00000	55		 push	 ebp
  00001	8b ec		 mov	 ebp, esp
  00003	81 ec a8 00 00
	00		 sub	 esp, 168		; 000000a8H
  00009	a1 00 00 00 00	 mov	 eax, DWORD PTR ___security_cookie
  0000e	33 c5		 xor	 eax, ebp
  00010	89 45 fc	 mov	 DWORD PTR __$ArrayPad$[ebp], eax
  00013	53		 push	 ebx
  00014	8b d9		 mov	 ebx, ecx
  00016	56		 push	 esi
  00017	8b 75 0c	 mov	 esi, DWORD PTR _pHitObj$[ebp]
  0001a	57		 push	 edi

; 1054 : 	int		nItemID = GetActParam( 1 );	// 사용할 아이템 아이디

  0001b	8b 83 b4 11 00
	00		 mov	 eax, DWORD PTR [ebx+4532]
  00021	89 85 68 ff ff
	ff		 mov	 DWORD PTR _nItemID$1$[ebp], eax

; 1055 : 	CModelObject *pModel = (CModelObject *)m_pModel;

  00027	8b 83 78 01 00
	00		 mov	 eax, DWORD PTR [ebx+376]
  0002d	89 9d 5c ff ff
	ff		 mov	 DWORD PTR _this$GSCopy$1$[ebp], ebx
  00033	89 b5 58 ff ff
	ff		 mov	 DWORD PTR _pHitObj$GSCopy$1$[ebp], esi
  00039	89 85 64 ff ff
	ff		 mov	 DWORD PTR _pModel$1$[ebp], eax

; 1056 : 	
; 1057 : #ifdef __WORLDSERVER
; 1058 : 	UpdateMatrix();		// 몸체의 특정부위에서 나는 데미지를 처리하기 위해선 서버에서도 매트릭스를 갱신해야한다.

  0003f	e8 00 00 00 00	 call	 ?UpdateMatrix@CObj@@QAEXXZ ; CObj::UpdateMatrix
; File C:\IAGOS\server\v18\Source\Source\_Common\ModelObject.h

; 311  : 		if( m_pMotion )		// 현재 프레임의 모션에 대한 매트릭스를 갱신시킴.

  00044	8b 8d 64 ff ff
	ff		 mov	 ecx, DWORD PTR _pModel$1$[ebp]
  0004a	83 b9 8c 2a 00
	00 00		 cmp	 DWORD PTR [ecx+10892], 0
  00051	8d b9 9c 2a 00
	00		 lea	 edi, DWORD PTR [ecx+10908]
  00057	89 bd 6c ff ff
	ff		 mov	 DWORD PTR $T5[ebp], edi
  0005d	74 6d		 je	 SHORT $LN50@OnAttackMe

; 312  : 			m_pMotion->AnimateBone( m_mUpdateBone, m_pMotionOld, m_fFrameCurrent, GetNextFrame(), m_nFrameOld, m_bMotionBlending, m_fBlendWeight );	

  0005f	f3 0f 10 81 c4
	00 00 00	 movss	 xmm0, DWORD PTR [ecx+196]
  00067	f3 0f 10 89 a0
	00 00 00	 movss	 xmm1, DWORD PTR [ecx+160]
  0006f	8b b1 88 2a 00
	00		 mov	 esi, DWORD PTR [ecx+10888]
  00075	8b 3f		 mov	 edi, DWORD PTR [edi]
  00077	8b 99 8c 2a 00
	00		 mov	 ebx, DWORD PTR [ecx+10892]
  0007d	51		 push	 ecx
  0007e	f3 0f 11 04 24	 movss	 DWORD PTR [esp], xmm0
  00083	ff b1 c0 00 00
	00		 push	 DWORD PTR [ecx+192]
  00089	f3 0f 11 8d 60
	ff ff ff	 movss	 DWORD PTR tv567[ebp], xmm1
  00091	ff b1 98 2a 00
	00		 push	 DWORD PTR [ecx+10904]
  00097	e8 00 00 00 00	 call	 ?GetNextFrame@CModel@@QAEHXZ ; CModel::GetNextFrame
  0009c	f3 0f 10 85 60
	ff ff ff	 movss	 xmm0, DWORD PTR tv567[ebp]
  000a4	50		 push	 eax
  000a5	51		 push	 ecx
  000a6	f3 0f 11 04 24	 movss	 DWORD PTR [esp], xmm0
  000ab	8b cb		 mov	 ecx, ebx
  000ad	56		 push	 esi
  000ae	57		 push	 edi
  000af	e8 00 00 00 00	 call	 ?AnimateBone@CMotion@@QAEXPAUD3DXMATRIX@@PAV1@MHHHM@Z ; CMotion::AnimateBone
  000b4	8b 9d 5c ff ff
	ff		 mov	 ebx, DWORD PTR _this$GSCopy$1$[ebp]
  000ba	8b b5 58 ff ff
	ff		 mov	 esi, DWORD PTR _pHitObj$GSCopy$1$[ebp]
  000c0	8b 8d 64 ff ff
	ff		 mov	 ecx, DWORD PTR _pModel$1$[ebp]
  000c6	8b bd 6c ff ff
	ff		 mov	 edi, DWORD PTR $T5[ebp]
$LN50@OnAttackMe:
; File C:\IAGOS\server\v18\Source\Source\_Common\MoverActEvent.cpp

; 1062 : 	switch( dwState )

  000cc	8b 45 08	 mov	 eax, DWORD PTR _dwState$[ebp]
  000cf	3d 00 00 03 00	 cmp	 eax, 196608		; 00030000H
  000d4	0f 87 b3 01 00
	00		 ja	 $LN19@OnAttackMe
  000da	74 4a		 je	 SHORT $LN8@OnAttackMe
  000dc	3d 00 00 01 00	 cmp	 eax, 65536		; 00010000H
  000e1	74 0b		 je	 SHORT $LN5@OnAttackMe
  000e3	3d 00 00 02 00	 cmp	 eax, 131072		; 00020000H
  000e8	0f 85 9b 02 00
	00		 jne	 $LN16@OnAttackMe
$LN5@OnAttackMe:
; File C:\IAGOS\server\v18\Source\Source\_Common\Obj.h

; 327  : 	return pObj && ( pObj->IsDelete() == FALSE ); 

  000ee	85 f6		 test	 esi, esi
  000f0	0f 84 93 02 00
	00		 je	 $LN16@OnAttackMe

; 180  : 	BOOL			IsDelete()	{ return (m_dwFlags & OBJ_FLAG_DELETE);  }

  000f6	f6 46 04 01	 test	 BYTE PTR [esi+4], 1

; 327  : 	return pObj && ( pObj->IsDelete() == FALSE ); 

  000fa	0f 85 89 02 00
	00		 jne	 $LN16@OnAttackMe
; File C:\IAGOS\server\v18\Source\Source\_Common\MoverActEvent.cpp

; 1069 : 				OnDamage( nItemID, dwState, pHitObj );		

  00100	6a 01		 push	 1
  00102	6a 00		 push	 0
  00104	56		 push	 esi
  00105	50		 push	 eax
  00106	ff b5 68 ff ff
	ff		 push	 DWORD PTR _nItemID$1$[ebp]
  0010c	8b cb		 mov	 ecx, ebx
  0010e	e8 00 00 00 00	 call	 ?OnDamage@CMover@@QAEHHKPAV1@PBUD3DXVECTOR3@@K@Z ; CMover::OnDamage
  00113	5f		 pop	 edi

; 1179 : 					, 4.0f );	
; 1180 : 			#endif //__WORLDSERVER
; 1181 : 				
; 1182 : 					
; 1183 : 			}
; 1184 : 		}
; 1185 : 		
; 1186 : 		break;
; 1187 : 	}
; 1188 : }

  00114	5e		 pop	 esi
  00115	5b		 pop	 ebx
  00116	8b 4d fc	 mov	 ecx, DWORD PTR __$ArrayPad$[ebp]
  00119	33 cd		 xor	 ecx, ebp
  0011b	e8 00 00 00 00	 call	 @__security_check_cookie@4
  00120	8b e5		 mov	 esp, ebp
  00122	5d		 pop	 ebp
  00123	c2 08 00	 ret	 8
$LN8@OnAttackMe:
; File C:\IAGOS\server\v18\Source\Source\_Common\ModelObject.h

; 324  : 		if( m_pBone == NULL )	return NULL;

  00126	83 b9 84 2a 00
	00 00		 cmp	 DWORD PTR [ecx+10884], 0
; File C:\IAGOS\server\v18\Source\Source\_Common\Obj.h

; 231  : 	D3DXMATRIX		GetMatrixWorld() const		{ return m_matWorld; } // 모든 매트릭스가 곱해진 결과 

  0012d	0f 10 83 e4 00
	00 00		 movups	 xmm0, XMMWORD PTR [ebx+228]
  00134	0f 11 45 b0	 movups	 XMMWORD PTR $T8[ebp], xmm0
  00138	0f 10 83 f4 00
	00 00		 movups	 xmm0, XMMWORD PTR [ebx+244]
  0013f	0f 11 45 c0	 movups	 XMMWORD PTR $T8[ebp+16], xmm0
  00143	0f 10 83 04 01
	00 00		 movups	 xmm0, XMMWORD PTR [ebx+260]
  0014a	0f 11 45 d0	 movups	 XMMWORD PTR $T8[ebp+32], xmm0
  0014e	0f 10 83 14 01
	00 00		 movups	 xmm0, XMMWORD PTR [ebx+276]
  00155	0f 11 45 e0	 movups	 XMMWORD PTR $T8[ebp+48], xmm0
; File C:\IAGOS\server\v18\Source\Source\_Common\ModelObject.h

; 324  : 		if( m_pBone == NULL )	return NULL;

  00159	75 04		 jne	 SHORT $LN29@OnAttackMe
  0015b	33 c0		 xor	 eax, eax
  0015d	eb 0b		 jmp	 SHORT $LN28@OnAttackMe
$LN29@OnAttackMe:

; 325  : 		if( m_mUpdateBone == NULL )	return NULL;

  0015f	8b 07		 mov	 eax, DWORD PTR [edi]
  00161	85 c0		 test	 eax, eax
  00163	74 05		 je	 SHORT $LN28@OnAttackMe
$LN30@OnAttackMe:

; 326  : 		return &m_mUpdateBone[ nBoneIdx ];

  00165	05 00 03 00 00	 add	 eax, 768		; 00000300H
$LN28@OnAttackMe:
; File C:\IAGOS\server\v18\Source\Source\_Common\MoverActEvent.cpp

; 1077 : 			D3DXMatrixMultiply( &mMatrix, (pModel->GetMatrixBone(12)), &(GetMatrixWorld()) );

  0016a	8d 4d b0	 lea	 ecx, DWORD PTR $T8[ebp]
  0016d	51		 push	 ecx
  0016e	50		 push	 eax
  0016f	8d 85 70 ff ff
	ff		 lea	 eax, DWORD PTR _mMatrix$6[ebp]
  00175	50		 push	 eax
  00176	e8 00 00 00 00	 call	 _D3DXMatrixMultiply@12
; File C:\IAGOS\server\v18\Source\Source\_Common\Obj.h

; 231  : 	D3DXMATRIX		GetMatrixWorld() const		{ return m_matWorld; } // 모든 매트릭스가 곱해진 결과 

  0017b	0f 10 83 e4 00
	00 00		 movups	 xmm0, XMMWORD PTR [ebx+228]
; File C:\IAGOS\server\v18\Source\Source\_Common\ModelObject.h

; 324  : 		if( m_pBone == NULL )	return NULL;

  00182	8b 85 64 ff ff
	ff		 mov	 eax, DWORD PTR _pModel$1$[ebp]
; File C:\IAGOS\server\v18\Source\Source\_Common\Obj.h

; 231  : 	D3DXMATRIX		GetMatrixWorld() const		{ return m_matWorld; } // 모든 매트릭스가 곱해진 결과 

  00188	0f 11 45 b0	 movups	 XMMWORD PTR $T9[ebp], xmm0
; File C:\IAGOS\server\v18\Source\Source\_Common\ModelObject.h

; 324  : 		if( m_pBone == NULL )	return NULL;

  0018c	83 b8 84 2a 00
	00 00		 cmp	 DWORD PTR [eax+10884], 0
; File C:\IAGOS\server\v18\Source\Source\_Common\Obj.h

; 231  : 	D3DXMATRIX		GetMatrixWorld() const		{ return m_matWorld; } // 모든 매트릭스가 곱해진 결과 

  00193	0f 10 83 f4 00
	00 00		 movups	 xmm0, XMMWORD PTR [ebx+244]
  0019a	0f 11 45 c0	 movups	 XMMWORD PTR $T9[ebp+16], xmm0
  0019e	0f 10 83 04 01
	00 00		 movups	 xmm0, XMMWORD PTR [ebx+260]
  001a5	0f 11 45 d0	 movups	 XMMWORD PTR $T9[ebp+32], xmm0
  001a9	0f 10 83 14 01
	00 00		 movups	 xmm0, XMMWORD PTR [ebx+276]
  001b0	0f 11 45 e0	 movups	 XMMWORD PTR $T9[ebp+48], xmm0
; File C:\IAGOS\server\v18\Source\Source\_Common\ModelObject.h

; 324  : 		if( m_pBone == NULL )	return NULL;

  001b4	75 04		 jne	 SHORT $LN35@OnAttackMe
  001b6	33 c0		 xor	 eax, eax
  001b8	eb 0b		 jmp	 SHORT $LN34@OnAttackMe
$LN35@OnAttackMe:

; 325  : 		if( m_mUpdateBone == NULL )	return NULL;

  001ba	8b 07		 mov	 eax, DWORD PTR [edi]
  001bc	85 c0		 test	 eax, eax
  001be	74 05		 je	 SHORT $LN34@OnAttackMe
$LN36@OnAttackMe:

; 326  : 		return &m_mUpdateBone[ nBoneIdx ];

  001c0	05 00 04 00 00	 add	 eax, 1024		; 00000400H
$LN34@OnAttackMe:
; File C:\IAGOS\server\v18\Source\Source\_Common\MoverActEvent.cpp

; 1094 : 			D3DXMatrixMultiply( &mMatrix, (pModel->GetMatrixBone(16)), &(GetMatrixWorld()) );

  001c5	8d 4d b0	 lea	 ecx, DWORD PTR $T9[ebp]
  001c8	51		 push	 ecx
  001c9	50		 push	 eax
  001ca	8d 85 70 ff ff
	ff		 lea	 eax, DWORD PTR _mMatrix$6[ebp]
  001d0	50		 push	 eax
  001d1	e8 00 00 00 00	 call	 _D3DXMatrixMultiply@12

; 1095 : 			D3DXVECTOR3 v3;
; 1096 : 			v3.x = mMatrix._41;
; 1097 : 			v3.y = mMatrix._42;
; 1098 : 			v3.z = mMatrix._43;						
; 1099 : 			v3.y -= 5.0f;
; 1100 : 			
; 1101 : 		#ifdef __CLIENT
; 1102 : 			// 땅치고 끝날때 이펙트 오른손
; 1103 : 			pSfx = CreateSfx( D3DDEVICE, XI_SKILL_CIRCLE_DUST, v3 );			
; 1104 : 			if( pSfx )
; 1105 : 				pSfx->SetScale( D3DXVECTOR3( 12.0f, 12.0f, 12.0f ) );
; 1106 : 		#endif //__CLIENT 			
; 1107 : 		
; 1108 : 			if( m_pActMover->m_nMotionHitCount == 1 )

  001d6	8b 83 38 02 00
	00		 mov	 eax, DWORD PTR [ebx+568]
  001dc	83 b8 9c 00 00
	00 01		 cmp	 DWORD PTR [eax+156], 1
  001e3	75 48		 jne	 SHORT $LN9@OnAttackMe
; File C:\IAGOS\server\v18\Source\Source\_Common\Obj.h

; 215  : 	D3DXVECTOR3		GetPos()	{ return m_vPos; }

  001e5	8b 83 68 01 00
	00		 mov	 eax, DWORD PTR [ebx+360]
  001eb	f3 0f 7e 83 60
	01 00 00	 movq	 xmm0, QWORD PTR [ebx+352]
; File C:\IAGOS\server\v18\Source\Source\_Common\MoverActEvent.cpp

; 1111 : 				GetWorld()->SendDamageAround( &GetPos(), (AF_GENERIC | AF_CRITICAL) , this, OBJTYPE_PLAYER, II_WEA_MOB_MONSTER4_ATK2

  001f3	51		 push	 ecx
  001f4	8b 8b 6c 01 00
	00		 mov	 ecx, DWORD PTR [ebx+364]
  001fa	c7 04 24 00 00
	80 41		 mov	 DWORD PTR [esp], 1098907648 ; 41800000H
  00201	68 2e 24 00 00	 push	 9262			; 0000242eH
  00206	6a 01		 push	 1
  00208	53		 push	 ebx
; File C:\IAGOS\server\v18\Source\Source\_Common\Obj.h

; 215  : 	D3DXVECTOR3		GetPos()	{ return m_vPos; }

  00209	89 45 f8	 mov	 DWORD PTR $T11[ebp+8], eax
; File C:\IAGOS\server\v18\Source\Source\_Common\MoverActEvent.cpp

; 1111 : 				GetWorld()->SendDamageAround( &GetPos(), (AF_GENERIC | AF_CRITICAL) , this, OBJTYPE_PLAYER, II_WEA_MOB_MONSTER4_ATK2

  0020c	8d 45 f0	 lea	 eax, DWORD PTR $T11[ebp]
  0020f	68 c1 00 00 00	 push	 193			; 000000c1H
  00214	50		 push	 eax
; File C:\IAGOS\server\v18\Source\Source\_Common\Obj.h

; 215  : 	D3DXVECTOR3		GetPos()	{ return m_vPos; }

  00215	66 0f d6 45 f0	 movq	 QWORD PTR $T11[ebp], xmm0
; File C:\IAGOS\server\v18\Source\Source\_Common\MoverActEvent.cpp

; 1111 : 				GetWorld()->SendDamageAround( &GetPos(), (AF_GENERIC | AF_CRITICAL) , this, OBJTYPE_PLAYER, II_WEA_MOB_MONSTER4_ATK2

  0021a	e8 00 00 00 00	 call	 ?SendDamageAround@CWorld@@QAEXPBUD3DXVECTOR3@@HPAVCMover@@HHM@Z ; CWorld::SendDamageAround

; 1112 : 					, 16.0f );					
; 1113 : 
; 1114 : 				ItemProp *pSkillProp;
; 1115 : 				AddSkillProp *pAddSkillProp;
; 1116 : 				BOOL bSuccess = GetSkillProp( &pSkillProp, &pAddSkillProp, SI_GEN_BLEEDING, 10, "OnAttackMelee_BigMuscle" );

  0021f	68 00 00 00 00	 push	 OFFSET ??_C@_0BI@NKGAIBCK@OnAttackMelee_BigMuscle@
  00224	6a 0a		 push	 10			; 0000000aH
  00226	68 e4 00 00 00	 push	 228			; 000000e4H

; 1117 : 				if( bSuccess )
; 1118 : 					ApplySkillAround( this, OBJTYPE_PLAYER, pSkillProp, pAddSkillProp , false );							
; 1119 : 	#endif //__WORLDSERVER
; 1120 : 				
; 1121 : 			}

  0022b	eb 0c		 jmp	 SHORT $LN70@OnAttackMe
$LN9@OnAttackMe:

; 1122 : 			else
; 1123 : 			{
; 1124 : 	#ifdef __CLIENT
; 1125 : 				PLAYSND( SND_PC_BOSS_STUN );
; 1126 : 	#endif //__CLIENT
; 1127 : 	#ifdef __WORLDSERVER				
; 1128 : 				ItemProp *pSkillProp;
; 1129 : 				AddSkillProp *pAddSkillProp;
; 1130 : 				BOOL bSuccess = GetSkillProp( &pSkillProp, &pAddSkillProp, SI_BIGMUSCLE_STUNGROUP, 1, "OnAttackMelee_BigMuscle" );

  0022d	68 00 00 00 00	 push	 OFFSET ??_C@_0BI@NKGAIBCK@OnAttackMelee_BigMuscle@
  00232	6a 01		 push	 1
  00234	68 2c 01 00 00	 push	 300			; 0000012cH
$LN70@OnAttackMe:

; 1179 : 					, 4.0f );	
; 1180 : 			#endif //__WORLDSERVER
; 1181 : 				
; 1182 : 					
; 1183 : 			}
; 1184 : 		}
; 1185 : 		
; 1186 : 		break;
; 1187 : 	}
; 1188 : }

  00239	8b 03		 mov	 eax, DWORD PTR [ebx]
  0023b	8d 8d 68 ff ff
	ff		 lea	 ecx, DWORD PTR _pAddSkillProp$1[ebp]
  00241	51		 push	 ecx
  00242	8d 8d 6c ff ff
	ff		 lea	 ecx, DWORD PTR _pSkillProp$3[ebp]
  00248	51		 push	 ecx
  00249	8b cb		 mov	 ecx, ebx
  0024b	ff 50 30	 call	 DWORD PTR [eax+48]
  0024e	85 c0		 test	 eax, eax
  00250	0f 84 33 01 00
	00		 je	 $LN16@OnAttackMe
  00256	6a 00		 push	 0
  00258	51		 push	 ecx
  00259	c7 04 24 00 00
	00 00		 mov	 DWORD PTR [esp], 0
  00260	8b cb		 mov	 ecx, ebx
  00262	6a 00		 push	 0
  00264	6a 00		 push	 0
  00266	ff b5 68 ff ff
	ff		 push	 DWORD PTR _pAddSkillProp$1[ebp]
  0026c	ff b5 6c ff ff
	ff		 push	 DWORD PTR _pSkillProp$3[ebp]
  00272	6a 01		 push	 1
  00274	53		 push	 ebx
  00275	e8 00 00 00 00	 call	 ?ApplySkillAround@CCtrl@@QAEXPAV1@HPAUItemProp@@PAUAddSkillProp@@_NHMH@Z ; CCtrl::ApplySkillAround
  0027a	5f		 pop	 edi
  0027b	5e		 pop	 esi
  0027c	5b		 pop	 ebx
  0027d	8b 4d fc	 mov	 ecx, DWORD PTR __$ArrayPad$[ebp]
  00280	33 cd		 xor	 ecx, ebp
  00282	e8 00 00 00 00	 call	 @__security_check_cookie@4
  00287	8b e5		 mov	 esp, ebp
  00289	5d		 pop	 ebp
  0028a	c2 08 00	 ret	 8
$LN19@OnAttackMe:

; 1062 : 	switch( dwState )

  0028d	3d 00 00 04 00	 cmp	 eax, 262144		; 00040000H
  00292	0f 85 f1 00 00
	00		 jne	 $LN16@OnAttackMe

; 1131 : 				if( bSuccess )
; 1132 : 					ApplySkillAround( this, OBJTYPE_PLAYER, pSkillProp, pAddSkillProp , false );							
; 1133 : 	#endif //__WORLDSERVER
; 1134 : 			}
; 1135 : 		}
; 1136 : 		break;
; 1137 : 	case OBJSTA_ATK4:   // 땅치기 스킬 - 한손
; 1138 : 		{
; 1139 : 			static D3DXVECTOR3 v3OldPos;
; 1140 : 
; 1141 : 			if( m_pActMover->m_nMotionHitCount == 0 )

  00298	8b 83 38 02 00
	00		 mov	 eax, DWORD PTR [ebx+568]
  0029e	8b 80 9c 00 00
	00		 mov	 eax, DWORD PTR [eax+156]
  002a4	85 c0		 test	 eax, eax
  002a6	75 2e		 jne	 SHORT $LN14@OnAttackMe

; 1142 : 			{
; 1143 : 				v3OldPos = pHitObj->GetPos();			

  002a8	f3 0f 7e 86 60
	01 00 00	 movq	 xmm0, QWORD PTR [esi+352]
  002b0	5f		 pop	 edi
  002b1	66 0f d6 05 00
	00 00 00	 movq	 QWORD PTR ?v3OldPos@?BD@??OnAttackMelee_BigMuscle@CMover@@QAEXKPAV2@@Z@4UD3DXVECTOR3@@A, xmm0
  002b9	8b 86 68 01 00
	00		 mov	 eax, DWORD PTR [esi+360]

; 1179 : 					, 4.0f );	
; 1180 : 			#endif //__WORLDSERVER
; 1181 : 				
; 1182 : 					
; 1183 : 			}
; 1184 : 		}
; 1185 : 		
; 1186 : 		break;
; 1187 : 	}
; 1188 : }

  002bf	5e		 pop	 esi
  002c0	a3 08 00 00 00	 mov	 DWORD PTR ?v3OldPos@?BD@??OnAttackMelee_BigMuscle@CMover@@QAEXKPAV2@@Z@4UD3DXVECTOR3@@A+8, eax
  002c5	5b		 pop	 ebx
  002c6	8b 4d fc	 mov	 ecx, DWORD PTR __$ArrayPad$[ebp]
  002c9	33 cd		 xor	 ecx, ebp
  002cb	e8 00 00 00 00	 call	 @__security_check_cookie@4
  002d0	8b e5		 mov	 esp, ebp
  002d2	5d		 pop	 ebp
  002d3	c2 08 00	 ret	 8
$LN14@OnAttackMe:

; 1144 : 			}
; 1145 : 			else
; 1146 : 			if( m_pActMover->m_nMotionHitCount == 1 )

  002d6	83 f8 01	 cmp	 eax, 1
  002d9	0f 85 aa 00 00
	00		 jne	 $LN16@OnAttackMe
; File C:\IAGOS\server\v18\Source\Source\_Common\Obj.h

; 231  : 	D3DXMATRIX		GetMatrixWorld() const		{ return m_matWorld; } // 모든 매트릭스가 곱해진 결과 

  002df	0f 10 83 e4 00
	00 00		 movups	 xmm0, XMMWORD PTR [ebx+228]
; File C:\IAGOS\server\v18\Source\Source\_Common\MoverActEvent.cpp

; 1150 : 				D3DXMatrixMultiply( &mMatrix, (pModel->GetMatrixBone(12)), &(GetMatrixWorld()) );

  002e6	8d 45 b0	 lea	 eax, DWORD PTR $T10[ebp]
  002e9	50		 push	 eax
; File C:\IAGOS\server\v18\Source\Source\_Common\Obj.h

; 231  : 	D3DXMATRIX		GetMatrixWorld() const		{ return m_matWorld; } // 모든 매트릭스가 곱해진 결과 

  002ea	0f 11 45 b0	 movups	 XMMWORD PTR $T10[ebp], xmm0
; File C:\IAGOS\server\v18\Source\Source\_Common\MoverActEvent.cpp

; 1150 : 				D3DXMatrixMultiply( &mMatrix, (pModel->GetMatrixBone(12)), &(GetMatrixWorld()) );

  002ee	6a 0c		 push	 12			; 0000000cH
; File C:\IAGOS\server\v18\Source\Source\_Common\Obj.h

; 231  : 	D3DXMATRIX		GetMatrixWorld() const		{ return m_matWorld; } // 모든 매트릭스가 곱해진 결과 

  002f0	0f 10 83 f4 00
	00 00		 movups	 xmm0, XMMWORD PTR [ebx+244]
  002f7	0f 11 45 c0	 movups	 XMMWORD PTR $T10[ebp+16], xmm0
  002fb	0f 10 83 04 01
	00 00		 movups	 xmm0, XMMWORD PTR [ebx+260]
  00302	0f 11 45 d0	 movups	 XMMWORD PTR $T10[ebp+32], xmm0
  00306	0f 10 83 14 01
	00 00		 movups	 xmm0, XMMWORD PTR [ebx+276]
  0030d	0f 11 45 e0	 movups	 XMMWORD PTR $T10[ebp+48], xmm0
; File C:\IAGOS\server\v18\Source\Source\_Common\MoverActEvent.cpp

; 1150 : 				D3DXMatrixMultiply( &mMatrix, (pModel->GetMatrixBone(12)), &(GetMatrixWorld()) );

  00311	e8 00 00 00 00	 call	 ?GetMatrixBone@CModelObject@@QAEPAUD3DXMATRIX@@H@Z ; CModelObject::GetMatrixBone
  00316	50		 push	 eax
  00317	8d 85 70 ff ff
	ff		 lea	 eax, DWORD PTR _mMatrix$7[ebp]
  0031d	50		 push	 eax
  0031e	e8 00 00 00 00	 call	 _D3DXMatrixMultiply@12

; 1151 : 				
; 1152 : 				D3DXVECTOR3 v2;
; 1153 : 				v2.x = mMatrix._41;
; 1154 : 				v2.y = mMatrix._42;
; 1155 : 				v2.z = mMatrix._43;
; 1156 : 				v2.y -= 5.0f;
; 1157 : 				
; 1158 : 			#ifdef __CLIENT
; 1159 : 				// 땅치고 끝날때 이펙트 왼손
; 1160 : 				CSfx *pSfx = CreateSfx( D3DDEVICE, XI_SKILL_CIRCLE_DUST, v2 );
; 1161 : 				if( pSfx )
; 1162 : 					pSfx->SetScale( D3DXVECTOR3( 9.0f, 9.0f, 9.0f ) );
; 1163 : 				
; 1164 : 				pSfx = CreateSfx( D3DDEVICE, XI_SKILL_MAG_EARTH_ROCKCRASH01, v3OldPos );
; 1165 : 				if( pSfx )
; 1166 : 					pSfx->SetScale( D3DXVECTOR3( 2.0f, 2.0f, 2.0f ) );
; 1167 : 				
; 1168 : 				PLAYSND( SND_PC_SKILLD_HITOFPENYA );
; 1169 : 			#endif //__CLIENT
; 1170 : 
; 1171 : 			#ifdef __WORLDSERVER
; 1172 : 				ItemProp *pSkillProp;
; 1173 : 				AddSkillProp *pAddSkillProp;
; 1174 : 				BOOL bSuccess = GetSkillProp( &pSkillProp, &pAddSkillProp, SI_GEN_BLEEDING, 10, "OnAttackMelee_BigMuscle" );

  00323	8b 03		 mov	 eax, DWORD PTR [ebx]
  00325	8d 8d 68 ff ff
	ff		 lea	 ecx, DWORD PTR _pAddSkillProp$2[ebp]
  0032b	68 00 00 00 00	 push	 OFFSET ??_C@_0BI@NKGAIBCK@OnAttackMelee_BigMuscle@
  00330	6a 0a		 push	 10			; 0000000aH
  00332	68 e4 00 00 00	 push	 228			; 000000e4H
  00337	51		 push	 ecx
  00338	8d 8d 6c ff ff
	ff		 lea	 ecx, DWORD PTR _pSkillProp$4[ebp]
  0033e	51		 push	 ecx
  0033f	8b cb		 mov	 ecx, ebx
  00341	ff 50 30	 call	 DWORD PTR [eax+48]

; 1175 : 				if( bSuccess )

  00344	85 c0		 test	 eax, eax
  00346	74 1c		 je	 SHORT $LN17@OnAttackMe

; 1176 : 					DoApplySkill( pHitObj, pSkillProp, pAddSkillProp );	

  00348	6a 00		 push	 0
  0034a	6a 00		 push	 0
  0034c	6a 00		 push	 0
  0034e	6a 00		 push	 0
  00350	ff b5 68 ff ff
	ff		 push	 DWORD PTR _pAddSkillProp$2[ebp]
  00356	8b cb		 mov	 ecx, ebx
  00358	ff b5 6c ff ff
	ff		 push	 DWORD PTR _pSkillProp$4[ebp]
  0035e	56		 push	 esi
  0035f	e8 00 00 00 00	 call	 ?DoApplySkill@CCtrl@@QAEHPAV1@PAUItemProp@@PAUAddSkillProp@@_NHHH@Z ; CCtrl::DoApplySkill
$LN17@OnAttackMe:

; 1177 : 				
; 1178 : 				GetWorld()->SendDamageAround( &(v3OldPos), AF_GENERIC | AF_CRITICAL , this, OBJTYPE_PLAYER, II_WEA_MOB_MONSTER4_ATK2

  00364	51		 push	 ecx
  00365	8b 8b 6c 01 00
	00		 mov	 ecx, DWORD PTR [ebx+364]
  0036b	c7 04 24 00 00
	80 40		 mov	 DWORD PTR [esp], 1082130432 ; 40800000H
  00372	68 2e 24 00 00	 push	 9262			; 0000242eH
  00377	6a 01		 push	 1
  00379	53		 push	 ebx
  0037a	68 c1 00 00 00	 push	 193			; 000000c1H
  0037f	68 00 00 00 00	 push	 OFFSET ?v3OldPos@?BD@??OnAttackMelee_BigMuscle@CMover@@QAEXKPAV2@@Z@4UD3DXVECTOR3@@A
  00384	e8 00 00 00 00	 call	 ?SendDamageAround@CWorld@@QAEXPBUD3DXVECTOR3@@HPAVCMover@@HHM@Z ; CWorld::SendDamageAround
$LN16@OnAttackMe:

; 1179 : 					, 4.0f );	
; 1180 : 			#endif //__WORLDSERVER
; 1181 : 				
; 1182 : 					
; 1183 : 			}
; 1184 : 		}
; 1185 : 		
; 1186 : 		break;
; 1187 : 	}
; 1188 : }

  00389	8b 4d fc	 mov	 ecx, DWORD PTR __$ArrayPad$[ebp]
  0038c	5f		 pop	 edi
  0038d	5e		 pop	 esi
  0038e	33 cd		 xor	 ecx, ebp
  00390	5b		 pop	 ebx
  00391	e8 00 00 00 00	 call	 @__security_check_cookie@4
  00396	8b e5		 mov	 esp, ebp
  00398	5d		 pop	 ebp
  00399	c2 08 00	 ret	 8
?OnAttackMelee_BigMuscle@CMover@@QAEXKPAV1@@Z ENDP	; CMover::OnAttackMelee_BigMuscle
_TEXT	ENDS
; Function compile flags: /Ogtp
; File C:\IAGOS\server\v18\Source\Source\_Common\MoverActEvent.cpp
; File C:\IAGOS\server\v18\Source\Source\_Common\ModelObject.h
; File C:\IAGOS\server\v18\Source\Source\_Common\MoverActEvent.cpp
; File C:\IAGOS\server\v18\Source\Source\_Common\xUtil.h
; File C:\IAGOS\server\v18\Source\Source\_Common\MoverActEvent.cpp
; File C:\IAGOS\server\v18\Source\Source\_Common\xUtil.h
; File C:\IAGOS\server\v18\Source\Source\_Common\MoverActEvent.cpp
; File C:\IAGOS\server\v18\Source\Source\_Common\xUtil.h
; File C:\IAGOS\server\v18\Source\Source\_Common\MoverActEvent.cpp
; File C:\IAGOS\server\v18\Source\Source\_Common\Obj.h
; File C:\IAGOS\server\v18\Source\Source\_Common\MoverActEvent.cpp
; File C:\IAGOS\server\v18\Source\Source\_Common\ModelObject.h
; File C:\IAGOS\server\v18\Source\Source\_Common\MoverActEvent.cpp
; File C:\IAGOS\server\v18\Source\Source\_Common\Obj.h
; File C:\IAGOS\server\v18\Source\Source\_Common\MoverActEvent.cpp
; File C:\IAGOS\server\v18\Source\Source\_Common\Obj.h
; File C:\IAGOS\server\v18\Source\Source\_Common\MoverActEvent.cpp
; File C:\IAGOS\server\v18\Source\Source\_Common\ModelObject.h
; File C:\IAGOS\server\v18\Source\Source\_Common\MoverActEvent.cpp
;	COMDAT ?OnAttackMelee_ClockWorks@CMover@@QAEXKPAV1@@Z
_TEXT	SEGMENT
_pHitObj$GSCopy$1$ = -44				; size = 4
_this$GSCopy$1$ = -40					; size = 4
tv429 = -36						; size = 4
_nItemID$1$ = -32					; size = 4
$T1 = -28						; size = 12
_vPos$2 = -16						; size = 12
_vPos$3 = -16						; size = 12
_vPos$4 = -16						; size = 12
__$ArrayPad$ = -4					; size = 4
_dwState$ = 8						; size = 4
_pHitObj$ = 12						; size = 4
?OnAttackMelee_ClockWorks@CMover@@QAEXKPAV1@@Z PROC	; CMover::OnAttackMelee_ClockWorks, COMDAT
; _this$ = ecx

; 954  : {

  00000	55		 push	 ebp
  00001	8b ec		 mov	 ebp, esp
  00003	83 ec 2c	 sub	 esp, 44			; 0000002cH
  00006	a1 00 00 00 00	 mov	 eax, DWORD PTR ___security_cookie
  0000b	33 c5		 xor	 eax, ebp
  0000d	89 45 fc	 mov	 DWORD PTR __$ArrayPad$[ebp], eax
  00010	53		 push	 ebx
  00011	8b d9		 mov	 ebx, ecx
  00013	56		 push	 esi
  00014	57		 push	 edi
  00015	8b 7d 0c	 mov	 edi, DWORD PTR _pHitObj$[ebp]

; 955  : 	int		nItemID = GetActParam( 1 );	// 사용할 아이템 아이디

  00018	8b 83 b4 11 00
	00		 mov	 eax, DWORD PTR [ebx+4532]
  0001e	89 5d d8	 mov	 DWORD PTR _this$GSCopy$1$[ebp], ebx
  00021	89 7d d4	 mov	 DWORD PTR _pHitObj$GSCopy$1$[ebp], edi
  00024	89 45 e0	 mov	 DWORD PTR _nItemID$1$[ebp], eax

; 956  : 
; 957  : #ifdef __WORLDSERVER
; 958  : 	UpdateMatrix();		// 몸체의 특정부위에서 나는 데미지를 처리하기 위해선 서버에서도 매트릭스를 갱신해야한다.

  00027	e8 00 00 00 00	 call	 ?UpdateMatrix@CObj@@QAEXXZ ; CObj::UpdateMatrix

; 959  : 	CModelObject *pModel = (CModelObject *)m_pModel;

  0002c	8b 8b 78 01 00
	00		 mov	 ecx, DWORD PTR [ebx+376]
; File C:\IAGOS\server\v18\Source\Source\_Common\ModelObject.h

; 311  : 		if( m_pMotion )		// 현재 프레임의 모션에 대한 매트릭스를 갱신시킴.

  00032	83 b9 8c 2a 00
	00 00		 cmp	 DWORD PTR [ecx+10892], 0
  00039	74 59		 je	 SHORT $LN14@OnAttackMe

; 312  : 			m_pMotion->AnimateBone( m_mUpdateBone, m_pMotionOld, m_fFrameCurrent, GetNextFrame(), m_nFrameOld, m_bMotionBlending, m_fBlendWeight );	

  0003b	f3 0f 10 81 c4
	00 00 00	 movss	 xmm0, DWORD PTR [ecx+196]
  00043	f3 0f 10 89 a0
	00 00 00	 movss	 xmm1, DWORD PTR [ecx+160]
  0004b	8b b1 88 2a 00
	00		 mov	 esi, DWORD PTR [ecx+10888]
  00051	8b b9 9c 2a 00
	00		 mov	 edi, DWORD PTR [ecx+10908]
  00057	8b 99 8c 2a 00
	00		 mov	 ebx, DWORD PTR [ecx+10892]
  0005d	51		 push	 ecx
  0005e	f3 0f 11 04 24	 movss	 DWORD PTR [esp], xmm0
  00063	ff b1 c0 00 00
	00		 push	 DWORD PTR [ecx+192]
  00069	f3 0f 11 4d dc	 movss	 DWORD PTR tv429[ebp], xmm1
  0006e	ff b1 98 2a 00
	00		 push	 DWORD PTR [ecx+10904]
  00074	e8 00 00 00 00	 call	 ?GetNextFrame@CModel@@QAEHXZ ; CModel::GetNextFrame
  00079	f3 0f 10 45 dc	 movss	 xmm0, DWORD PTR tv429[ebp]
  0007e	50		 push	 eax
  0007f	51		 push	 ecx
  00080	f3 0f 11 04 24	 movss	 DWORD PTR [esp], xmm0
  00085	8b cb		 mov	 ecx, ebx
  00087	56		 push	 esi
  00088	57		 push	 edi
  00089	e8 00 00 00 00	 call	 ?AnimateBone@CMotion@@QAEXPAUD3DXMATRIX@@PAV1@MHHHM@Z ; CMotion::AnimateBone
  0008e	8b 5d d8	 mov	 ebx, DWORD PTR _this$GSCopy$1$[ebp]
  00091	8b 7d d4	 mov	 edi, DWORD PTR _pHitObj$GSCopy$1$[ebp]
$LN14@OnAttackMe:
; File C:\IAGOS\server\v18\Source\Source\_Common\MoverActEvent.cpp

; 963  : 	switch( dwState )

  00094	8b 75 08	 mov	 esi, DWORD PTR _dwState$[ebp]
  00097	81 fe 00 00 01
	00		 cmp	 esi, 65536		; 00010000H
  0009d	0f 84 11 01 00
	00		 je	 $LN4@OnAttackMe
  000a3	81 fe 00 00 02
	00		 cmp	 esi, 131072		; 00020000H
  000a9	0f 84 99 00 00
	00		 je	 $LN5@OnAttackMe
  000af	81 fe 00 00 04
	00		 cmp	 esi, 262144		; 00040000H
  000b5	0f 85 53 01 00
	00		 jne	 $LN2@OnAttackMe
; File C:\IAGOS\server\v18\Source\Source\_Common\xUtil.h

; 16   : 	g_next = g_next * 1103515245 + 12345;// + nRandomSeed[ i++ ];

  000bb	69 0d 00 00 00
	00 6d 4e c6 41	 imul	 ecx, DWORD PTR ?g_next@@3KA, 1103515245 ; g_next
; File C:\IAGOS\server\v18\Source\Source\_Common\MoverActEvent.cpp

; 1024 : 			vPos = GetPos();

  000c5	8b 83 68 01 00
	00		 mov	 eax, DWORD PTR [ebx+360]
  000cb	f3 0f 7e 83 60
	01 00 00	 movq	 xmm0, QWORD PTR [ebx+352]
  000d3	89 45 f8	 mov	 DWORD PTR _vPos$4[ebp+8], eax
; File C:\IAGOS\server\v18\Source\Source\_Common\xUtil.h

; 22   : 	return  xRand() % num;

  000d6	b8 1f 85 eb 51	 mov	 eax, 1374389535		; 51eb851fH
; File C:\IAGOS\server\v18\Source\Source\_Common\MoverActEvent.cpp

; 1024 : 			vPos = GetPos();

  000db	66 0f d6 45 f0	 movq	 QWORD PTR _vPos$4[ebp], xmm0
; File C:\IAGOS\server\v18\Source\Source\_Common\xUtil.h

; 16   : 	g_next = g_next * 1103515245 + 12345;// + nRandomSeed[ i++ ];

  000e0	81 c1 39 30 00
	00		 add	 ecx, 12345		; 00003039H

; 22   : 	return  xRand() % num;

  000e6	f7 e1		 mul	 ecx

; 16   : 	g_next = g_next * 1103515245 + 12345;// + nRandomSeed[ i++ ];

  000e8	89 0d 00 00 00
	00		 mov	 DWORD PTR ?g_next@@3KA, ecx ; g_next

; 22   : 	return  xRand() % num;

  000ee	c1 ea 05	 shr	 edx, 5
  000f1	6b c2 64	 imul	 eax, edx, 100
  000f4	2b c8		 sub	 ecx, eax
; File C:\IAGOS\server\v18\Source\Source\_Common\MoverActEvent.cpp

; 1028 : 			OnDamage( nItemID, dwState, NULL, &vPos, dwFlag );		// 데미지는 몸중심을 기준으로 한다.

  000f6	83 f9 0f	 cmp	 ecx, 15			; 0000000fH
  000f9	8b cb		 mov	 ecx, ebx
  000fb	1b c0		 sbb	 eax, eax
  000fd	25 00 00 00 10	 and	 eax, 268435456		; 10000000H
  00102	40		 inc	 eax
  00103	50		 push	 eax
  00104	8d 45 f0	 lea	 eax, DWORD PTR _vPos$4[ebp]
  00107	50		 push	 eax
  00108	6a 00		 push	 0
  0010a	56		 push	 esi
  0010b	ff 75 e0	 push	 DWORD PTR _nItemID$1$[ebp]
  0010e	e8 00 00 00 00	 call	 ?OnDamage@CMover@@QAEHHKPAV1@PBUD3DXVECTOR3@@K@Z ; CMover::OnDamage

; 1029 : 
; 1030 : 			CModelObject *pModel = (CModelObject *)m_pModel;
; 1031 : 			pModel->GetEventPos( &vPos, 3 );

  00113	8b 8b 78 01 00
	00		 mov	 ecx, DWORD PTR [ebx+376]
  00119	8d 45 f0	 lea	 eax, DWORD PTR _vPos$4[ebp]
  0011c	6a 03		 push	 3
  0011e	50		 push	 eax
  0011f	e8 00 00 00 00	 call	 ?GetEventPos@CModelObject@@QAEXPAUD3DXVECTOR3@@H@Z ; CModelObject::GetEventPos
; File C:\IAGOS\server\v18\Source\Source\_Common\Obj.h

; 232  : 	D3DXMATRIX*		GetMatrixWorldPtr()		    { return &m_matWorld; } // 포인터 리턴 버전

  00124	8d 83 e4 00 00
	00		 lea	 eax, DWORD PTR [ebx+228]
; File C:\IAGOS\server\v18\Source\Source\_Common\MoverActEvent.cpp

; 1032 : 			D3DXVec3TransformCoord( &vPos, &vPos, GetMatrixWorldPtr() );

  0012a	50		 push	 eax
  0012b	8d 45 f0	 lea	 eax, DWORD PTR _vPos$4[ebp]
  0012e	50		 push	 eax
  0012f	50		 push	 eax
  00130	e8 00 00 00 00	 call	 _D3DXVec3TransformCoord@12
  00135	5f		 pop	 edi

; 1033 : 
; 1034 : #ifdef __CLIENT
; 1035 : 			GetWorld()->m_pCamera->SetQuake( 60, 1.5f );
; 1036 : 
; 1037 : 			CSfx *pSfx = CreateSfx( D3DDEVICE, XI_NPCSP1DIRCIRCLE, vPos );
; 1038 : 			if( pSfx )
; 1039 : 				pSfx->SetScale( D3DXVECTOR3(2.0f, 2.0f, 2.0f) );
; 1040 : 			pModel->GetEventPos( &vPos, 4 );
; 1041 : 			D3DXVec3TransformCoord( &vPos, &vPos, GetMatrixWorldPtr() );
; 1042 : 
; 1043 : 			pSfx = CreateSfx( D3DDEVICE, XI_NPCSP1DIRCIRCLE, vPos );
; 1044 : 			if( pSfx )
; 1045 : 				pSfx->SetScale( D3DXVECTOR3(2.0f, 2.0f, 2.0f) );
; 1046 : #endif
; 1047 : 		}
; 1048 : 		break;
; 1049 : 	}
; 1050 : }

  00136	5e		 pop	 esi
  00137	5b		 pop	 ebx
  00138	8b 4d fc	 mov	 ecx, DWORD PTR __$ArrayPad$[ebp]
  0013b	33 cd		 xor	 ecx, ebp
  0013d	e8 00 00 00 00	 call	 @__security_check_cookie@4
  00142	8b e5		 mov	 esp, ebp
  00144	5d		 pop	 ebp
  00145	c2 08 00	 ret	 8
$LN5@OnAttackMe:

; 973  : #ifdef __CLIENT
; 974  : 			GetWorld()->m_pCamera->SetQuake( 15, 0.5f );
; 975  : 			CSfx *pSfx = CreateSfx( D3DDEVICE, XI_NPCSP1DIRFIRESP, vPos );	// 이펙트를 발생 - 서버에선 생성 안됨.
; 976  : 			if( pSfx )
; 977  : 				pSfx->SetAngle( -GetAngle() );
; 978  : #endif 
; 979  : 		}
; 980  : 		break;
; 981  : 	case OBJSTA_ATK2:		// 포쏘기
; 982  : 		{
; 983  : 			D3DXVECTOR3 vPos;
; 984  : 			CModelObject *pModel = (CModelObject *)m_pModel;

  00148	8b 83 78 01 00
	00		 mov	 eax, DWORD PTR [ebx+376]
; File C:\IAGOS\server\v18\Source\Source\_Common\ModelObject.h

; 316  : 		if( m_pBone == NULL )	return;

  0014e	8b 88 84 2a 00
	00		 mov	 ecx, DWORD PTR [eax+10884]
  00154	85 c9		 test	 ecx, ecx
  00156	74 26		 je	 SHORT $LN20@OnAttackMe

; 317  : 		if( m_mUpdateBone == NULL )	return;

  00158	8b 90 9c 2a 00
	00		 mov	 edx, DWORD PTR [eax+10908]
  0015e	85 d2		 test	 edx, edx
  00160	74 1c		 je	 SHORT $LN20@OnAttackMe

; 318  : 		D3DXVec3TransformCoord( pOut, &m_pBone->m_vEvent[nIdx], &m_mUpdateBone[ m_pBone->m_nEventParentIdx[nIdx] ] );

  00162	8b 81 c4 01 00
	00		 mov	 eax, DWORD PTR [ecx+452]
  00168	c1 e0 06	 shl	 eax, 6
  0016b	03 c2		 add	 eax, edx
  0016d	50		 push	 eax
  0016e	8d 81 6c 01 00
	00		 lea	 eax, DWORD PTR [ecx+364]
  00174	50		 push	 eax
  00175	8d 45 f0	 lea	 eax, DWORD PTR _vPos$3[ebp]
  00178	50		 push	 eax
  00179	e8 00 00 00 00	 call	 _D3DXVec3TransformCoord@12
$LN20@OnAttackMe:
; File C:\IAGOS\server\v18\Source\Source\_Common\MoverActEvent.cpp

; 986  : 			D3DXVec3TransformCoord( &vPos, &vPos, GetMatrixWorldPtr() );

  0017e	8d 83 e4 00 00
	00		 lea	 eax, DWORD PTR [ebx+228]
  00184	50		 push	 eax
  00185	8d 45 f0	 lea	 eax, DWORD PTR _vPos$3[ebp]
  00188	50		 push	 eax
  00189	50		 push	 eax
  0018a	e8 00 00 00 00	 call	 _D3DXVec3TransformCoord@12
; File C:\IAGOS\server\v18\Source\Source\_Common\Obj.h

; 327  : 	return pObj && ( pObj->IsDelete() == FALSE ); 

  0018f	85 ff		 test	 edi, edi
  00191	74 7b		 je	 SHORT $LN2@OnAttackMe

; 180  : 	BOOL			IsDelete()	{ return (m_dwFlags & OBJ_FLAG_DELETE);  }

  00193	f6 47 04 01	 test	 BYTE PTR [edi+4], 1

; 327  : 	return pObj && ( pObj->IsDelete() == FALSE ); 

  00197	75 75		 jne	 SHORT $LN2@OnAttackMe

; 215  : 	D3DXVECTOR3		GetPos()	{ return m_vPos; }

  00199	8b 87 68 01 00
	00		 mov	 eax, DWORD PTR [edi+360]
  0019f	f3 0f 7e 87 60
	01 00 00	 movq	 xmm0, QWORD PTR [edi+352]
  001a7	89 45 ec	 mov	 DWORD PTR $T1[ebp+8], eax
; File C:\IAGOS\server\v18\Source\Source\_Common\MoverActEvent.cpp

; 998  : 				OnDamage( nItemID, dwState, NULL, &pTarget->GetPos() );		// 타겟의 좌표를 중심으로 데미지를 줌.

  001aa	8d 45 e4	 lea	 eax, DWORD PTR $T1[ebp]
; File C:\IAGOS\server\v18\Source\Source\_Common\Obj.h

; 215  : 	D3DXVECTOR3		GetPos()	{ return m_vPos; }

  001ad	66 0f d6 45 e4	 movq	 QWORD PTR $T1[ebp], xmm0
; File C:\IAGOS\server\v18\Source\Source\_Common\MoverActEvent.cpp

; 1014 : 		break;

  001b2	eb 4a		 jmp	 SHORT $LN51@OnAttackMe
$LN4@OnAttackMe:

; 964  : 	{
; 965  : 	case OBJSTA_ATK1:		// 칼로 내려치기
; 966  : 		{
; 967  : 			D3DXVECTOR3 vPos;
; 968  : 			CModelObject *pModel = (CModelObject *)m_pModel;

  001b4	8b 83 78 01 00
	00		 mov	 eax, DWORD PTR [ebx+376]
; File C:\IAGOS\server\v18\Source\Source\_Common\ModelObject.h

; 316  : 		if( m_pBone == NULL )	return;

  001ba	8b 88 84 2a 00
	00		 mov	 ecx, DWORD PTR [eax+10884]
  001c0	85 c9		 test	 ecx, ecx
  001c2	74 26		 je	 SHORT $LN16@OnAttackMe

; 317  : 		if( m_mUpdateBone == NULL )	return;

  001c4	8b 90 9c 2a 00
	00		 mov	 edx, DWORD PTR [eax+10908]
  001ca	85 d2		 test	 edx, edx
  001cc	74 1c		 je	 SHORT $LN16@OnAttackMe

; 318  : 		D3DXVec3TransformCoord( pOut, &m_pBone->m_vEvent[nIdx], &m_mUpdateBone[ m_pBone->m_nEventParentIdx[nIdx] ] );

  001ce	8b 81 c0 01 00
	00		 mov	 eax, DWORD PTR [ecx+448]
  001d4	c1 e0 06	 shl	 eax, 6
  001d7	03 c2		 add	 eax, edx
  001d9	50		 push	 eax
  001da	8d 81 60 01 00
	00		 lea	 eax, DWORD PTR [ecx+352]
  001e0	50		 push	 eax
  001e1	8d 45 f0	 lea	 eax, DWORD PTR _vPos$2[ebp]
  001e4	50		 push	 eax
  001e5	e8 00 00 00 00	 call	 _D3DXVec3TransformCoord@12
$LN16@OnAttackMe:
; File C:\IAGOS\server\v18\Source\Source\_Common\MoverActEvent.cpp

; 970  : 			D3DXVec3TransformCoord( &vPos, &vPos, GetMatrixWorldPtr() );

  001ea	8d 83 e4 00 00
	00		 lea	 eax, DWORD PTR [ebx+228]
  001f0	50		 push	 eax
  001f1	8d 45 f0	 lea	 eax, DWORD PTR _vPos$2[ebp]
  001f4	50		 push	 eax
  001f5	50		 push	 eax
  001f6	e8 00 00 00 00	 call	 _D3DXVec3TransformCoord@12

; 971  : 
; 972  : 			OnDamage( nItemID, dwState, NULL, &vPos );		// 이펙트가 발생하는 위치에 데미지를 주고

  001fb	8d 45 f0	 lea	 eax, DWORD PTR _vPos$2[ebp]
$LN51@OnAttackMe:

; 1033 : 
; 1034 : #ifdef __CLIENT
; 1035 : 			GetWorld()->m_pCamera->SetQuake( 60, 1.5f );
; 1036 : 
; 1037 : 			CSfx *pSfx = CreateSfx( D3DDEVICE, XI_NPCSP1DIRCIRCLE, vPos );
; 1038 : 			if( pSfx )
; 1039 : 				pSfx->SetScale( D3DXVECTOR3(2.0f, 2.0f, 2.0f) );
; 1040 : 			pModel->GetEventPos( &vPos, 4 );
; 1041 : 			D3DXVec3TransformCoord( &vPos, &vPos, GetMatrixWorldPtr() );
; 1042 : 
; 1043 : 			pSfx = CreateSfx( D3DDEVICE, XI_NPCSP1DIRCIRCLE, vPos );
; 1044 : 			if( pSfx )
; 1045 : 				pSfx->SetScale( D3DXVECTOR3(2.0f, 2.0f, 2.0f) );
; 1046 : #endif
; 1047 : 		}
; 1048 : 		break;
; 1049 : 	}
; 1050 : }

  001fe	6a 01		 push	 1
  00200	50		 push	 eax
  00201	6a 00		 push	 0
  00203	56		 push	 esi
  00204	ff 75 e0	 push	 DWORD PTR _nItemID$1$[ebp]
  00207	8b cb		 mov	 ecx, ebx
  00209	e8 00 00 00 00	 call	 ?OnDamage@CMover@@QAEHHKPAV1@PBUD3DXVECTOR3@@K@Z ; CMover::OnDamage
$LN2@OnAttackMe:
  0020e	8b 4d fc	 mov	 ecx, DWORD PTR __$ArrayPad$[ebp]
  00211	5f		 pop	 edi
  00212	5e		 pop	 esi
  00213	33 cd		 xor	 ecx, ebp
  00215	5b		 pop	 ebx
  00216	e8 00 00 00 00	 call	 @__security_check_cookie@4
  0021b	8b e5		 mov	 esp, ebp
  0021d	5d		 pop	 ebp
  0021e	c2 08 00	 ret	 8
?OnAttackMelee_ClockWorks@CMover@@QAEXKPAV1@@Z ENDP	; CMover::OnAttackMelee_ClockWorks
_TEXT	ENDS
; Function compile flags: /Ogtp
; File C:\IAGOS\server\v18\Source\Source\_Common\MoverActEvent.cpp
; File C:\IAGOS\server\v18\Source\Source\_Common\ModelObject.h
; File C:\IAGOS\server\v18\Source\Source\_Common\MoverActEvent.cpp
; File C:\IAGOS\server\v18\Source\Source\_Common\ModelObject.h
; File C:\IAGOS\server\v18\Source\Source\_Common\MoverActEvent.cpp
; File C:\IAGOS\server\v18\Source\Source\_Common\Obj.h
; File C:\IAGOS\server\v18\Source\Source\_Common\MoverActEvent.cpp
; File C:\IAGOS\server\v18\Source\Source\_Common\ModelObject.h
; File C:\IAGOS\server\v18\Source\Source\_Common\MoverActEvent.cpp
; File C:\IAGOS\server\v18\Source\Source\_Common\Obj.h
; File C:\IAGOS\server\v18\Source\Source\_Common\MoverActEvent.cpp
; File C:\IAGOS\server\v18\Source\Source\_Common\Obj.h
; File C:\IAGOS\server\v18\Source\Source\_Common\MoverActEvent.cpp
; File C:\IAGOS\server\v18\Source\Source\_Common\Obj.h
; File C:\IAGOS\server\v18\Source\Source\_Common\MoverActEvent.cpp
;	COMDAT ?OnAttackMeleeContinue@CMover@@QAEHK@Z
_TEXT	SEGMENT
_nItemID$1$ = -56					; size = 4
_v3$1 = -52						; size = 12
_vOut$2 = -40						; size = 12
_vOut$3 = -40						; size = 12
_v1$4 = -28						; size = 12
_v1$5 = -28						; size = 12
_v2$6 = -16						; size = 12
_v2$7 = -16						; size = 12
__$ArrayPad$ = -4					; size = 4
_dwState$ = 8						; size = 4
?OnAttackMeleeContinue@CMover@@QAEHK@Z PROC		; CMover::OnAttackMeleeContinue, COMDAT
; _this$ = ecx

; 1803 : {

  00000	55		 push	 ebp
  00001	8b ec		 mov	 ebp, esp
  00003	83 ec 38	 sub	 esp, 56			; 00000038H
  00006	a1 00 00 00 00	 mov	 eax, DWORD PTR ___security_cookie
  0000b	33 c5		 xor	 eax, ebp
  0000d	89 45 fc	 mov	 DWORD PTR __$ArrayPad$[ebp], eax
  00010	53		 push	 ebx
  00011	56		 push	 esi
  00012	8b f1		 mov	 esi, ecx
  00014	57		 push	 edi

; 1804 : 	int		nItemID = GetActParam( 1 );	// 사용할 아이템 아이디
; 1805 : 
; 1806 : 	if( m_dwIndex == MI_CLOCKWORK1 )	// 클락워크의 경우 때릴때 이펙트.

  00015	8b 86 74 01 00
	00		 mov	 eax, DWORD PTR [esi+372]
  0001b	8b 9e b4 11 00
	00		 mov	 ebx, DWORD PTR [esi+4532]
  00021	89 5d c8	 mov	 DWORD PTR _nItemID$1$[ebp], ebx
  00024	3d a4 00 00 00	 cmp	 eax, 164		; 000000a4H
  00029	0f 85 f5 00 00
	00		 jne	 $LN6@OnAttackMe

; 1807 : 	{
; 1808 : 	#ifdef __WORLDSERVER
; 1809 : 		UpdateMatrix();		// 몸체의 특정부위에서 나는 데미지를 처리하기 위해선 서버에서도 매트릭스를 갱신해야한다.

  0002f	e8 00 00 00 00	 call	 ?UpdateMatrix@CObj@@QAEXXZ ; CObj::UpdateMatrix

; 1810 : 		CModelObject *pModel = (CModelObject *)m_pModel;
; 1811 : 		pModel->UpdateMatrixBone();		// 서버에서는 본애니메이션을 하지 않으므로 GetEventPos()를 사용할 일이 있을땐 업데이트를 해줘야 한다.

  00034	8b 8e 78 01 00
	00		 mov	 ecx, DWORD PTR [esi+376]
  0003a	e8 00 00 00 00	 call	 ?UpdateMatrixBone@CModelObject@@QAEXXZ ; CModelObject::UpdateMatrixBone

; 1812 : 	#endif // WorldServer
; 1813 : 
; 1814 : 		switch( dwState )

  0003f	81 7d 08 00 00
	03 00		 cmp	 DWORD PTR _dwState$[ebp], 196608 ; 00030000H
  00046	0f 85 ee 01 00
	00		 jne	 $LN15@OnAttackMe

; 1815 : 		{
; 1816 : 		case OBJSTA_ATK3:
; 1817 : 			{
; 1818 : 				D3DXVECTOR3 v1, v2;
; 1819 : 				CModelObject *pModel = (CModelObject *)m_pModel;

  0004c	8b be 78 01 00
	00		 mov	 edi, DWORD PTR [esi+376]
; File C:\IAGOS\server\v18\Source\Source\_Common\ModelObject.h

; 316  : 		if( m_pBone == NULL )	return;

  00052	8b 8f 84 2a 00
	00		 mov	 ecx, DWORD PTR [edi+10884]
  00058	85 c9		 test	 ecx, ecx
  0005a	74 26		 je	 SHORT $LN19@OnAttackMe

; 317  : 		if( m_mUpdateBone == NULL )	return;

  0005c	8b 97 9c 2a 00
	00		 mov	 edx, DWORD PTR [edi+10908]
  00062	85 d2		 test	 edx, edx
  00064	74 1c		 je	 SHORT $LN19@OnAttackMe

; 318  : 		D3DXVec3TransformCoord( pOut, &m_pBone->m_vEvent[nIdx], &m_mUpdateBone[ m_pBone->m_nEventParentIdx[nIdx] ] );

  00066	8b 81 c8 01 00
	00		 mov	 eax, DWORD PTR [ecx+456]
  0006c	c1 e0 06	 shl	 eax, 6
  0006f	03 c2		 add	 eax, edx
  00071	50		 push	 eax
  00072	8d 81 78 01 00
	00		 lea	 eax, DWORD PTR [ecx+376]
  00078	50		 push	 eax
  00079	8d 45 e4	 lea	 eax, DWORD PTR _v1$4[ebp]
  0007c	50		 push	 eax
  0007d	e8 00 00 00 00	 call	 _D3DXVec3TransformCoord@12
$LN19@OnAttackMe:
; File C:\IAGOS\server\v18\Source\Source\_Common\MoverActEvent.cpp

; 1821 : 				D3DXVec3TransformCoord( &v1, &v1, GetMatrixWorldPtr() );	// 월드공간으로 변환.

  00082	8d 9e e4 00 00
	00		 lea	 ebx, DWORD PTR [esi+228]
  00088	53		 push	 ebx
  00089	8d 45 e4	 lea	 eax, DWORD PTR _v1$4[ebp]
  0008c	50		 push	 eax
  0008d	50		 push	 eax
  0008e	e8 00 00 00 00	 call	 _D3DXVec3TransformCoord@12

; 1822 : 				
; 1823 : 				v2 = D3DXVECTOR3( 0, 0, 40.0f );

  00093	c7 45 f0 00 00
	00 00		 mov	 DWORD PTR _v2$6[ebp], 0
  0009a	c7 45 f4 00 00
	00 00		 mov	 DWORD PTR _v2$6[ebp+4], 0
  000a1	c7 45 f8 00 00
	20 42		 mov	 DWORD PTR _v2$6[ebp+8], 1109393408 ; 42200000H
; File C:\IAGOS\server\v18\Source\Source\_Common\ModelObject.h

; 324  : 		if( m_pBone == NULL )	return NULL;

  000a8	83 bf 84 2a 00
	00 00		 cmp	 DWORD PTR [edi+10884], 0
  000af	75 04		 jne	 SHORT $LN26@OnAttackMe
  000b1	33 c0		 xor	 eax, eax
  000b3	eb 0f		 jmp	 SHORT $LN25@OnAttackMe
$LN26@OnAttackMe:

; 325  : 		if( m_mUpdateBone == NULL )	return NULL;

  000b5	8b 87 9c 2a 00
	00		 mov	 eax, DWORD PTR [edi+10908]
  000bb	85 c0		 test	 eax, eax
  000bd	74 05		 je	 SHORT $LN25@OnAttackMe
$LN27@OnAttackMe:

; 326  : 		return &m_mUpdateBone[ nBoneIdx ];

  000bf	05 80 01 00 00	 add	 eax, 384		; 00000180H
$LN25@OnAttackMe:
; File C:\IAGOS\server\v18\Source\Source\_Common\MoverActEvent.cpp

; 1824 : 				D3DXVec3TransformCoord( &v2, &v2, pModel->GetMatrixBone(6) );	// 6이 머리.  머리에서 v2지점의 위치를 계산.

  000c4	50		 push	 eax
  000c5	8d 45 f0	 lea	 eax, DWORD PTR _v2$6[ebp]
  000c8	50		 push	 eax
  000c9	50		 push	 eax
  000ca	e8 00 00 00 00	 call	 _D3DXVec3TransformCoord@12

; 1825 : 				D3DXVec3TransformCoord( &v2, &v2, GetMatrixWorldPtr() );	// 월드 공간으로 변환.

  000cf	53		 push	 ebx
  000d0	8d 45 f0	 lea	 eax, DWORD PTR _v2$6[ebp]
  000d3	50		 push	 eax
  000d4	50		 push	 eax
  000d5	e8 00 00 00 00	 call	 _D3DXVec3TransformCoord@12

; 1826 : 				
; 1827 : 		#ifdef __CLIENT
; 1828 : 				extern CPartsLaser g_Laser;
; 1829 : 				g_Laser.SetPos( v1, v2, 0.5f );
; 1830 : 		#endif
; 1831 : 
; 1832 : 		#ifdef __CLIENT
; 1833 : 				if( (m_pActMover->m_nCount & 1) == 0 )
; 1834 : 		#else				
; 1835 : 				if( (m_pActMover->m_nCount & 3) == 0 )

  000da	8b 86 38 02 00
	00		 mov	 eax, DWORD PTR [esi+568]
  000e0	f6 40 40 03	 test	 BYTE PTR [eax+64], 3
  000e4	0f 85 50 01 00
	00		 jne	 $LN15@OnAttackMe

; 1836 : 		#endif
; 1837 : 				{
; 1838 : 					CWorld *pWorld = GetWorld();
; 1839 : 					D3DXVECTOR3 vOut;
; 1840 : 					if( pWorld->IntersectObjLine( &vOut, v1, v2, FALSE, TRUE, FALSE ) )

  000ea	8b 8e 6c 01 00
	00		 mov	 ecx, DWORD PTR [esi+364]
  000f0	8d 45 f0	 lea	 eax, DWORD PTR _v2$6[ebp]
  000f3	6a 00		 push	 0
  000f5	6a 01		 push	 1
  000f7	6a 00		 push	 0
  000f9	50		 push	 eax
  000fa	8d 45 e4	 lea	 eax, DWORD PTR _v1$4[ebp]
  000fd	50		 push	 eax
  000fe	8d 45 d8	 lea	 eax, DWORD PTR _vOut$2[ebp]
  00101	50		 push	 eax
  00102	e8 00 00 00 00	 call	 ?IntersectObjLine@CWorld@@QAEHPAUD3DXVECTOR3@@ABU2@1HHH@Z ; CWorld::IntersectObjLine
  00107	85 c0		 test	 eax, eax
  00109	0f 84 2b 01 00
	00		 je	 $LN15@OnAttackMe

; 1841 : 					{
; 1842 : 						OnDamage( nItemID, dwState, NULL, &vOut );		// 이펙트가 터지는 위치에 데미지를 줌.

  0010f	6a 01		 push	 1
  00111	8d 45 d8	 lea	 eax, DWORD PTR _vOut$2[ebp]
  00114	50		 push	 eax
  00115	6a 00		 push	 0
  00117	68 00 00 03 00	 push	 196608			; 00030000H
  0011c	ff 75 c8	 push	 DWORD PTR _nItemID$1$[ebp]

; 1843 : 
; 1844 : 					#ifdef __CLIENT
; 1845 : 						CSfx *pSfx = CreateSfx( D3DDEVICE,  XI_NPCSP1RANSPARK, vOut );
; 1846 : 						if( pSfx )
; 1847 : 							pSfx->SetScale( D3DXVECTOR3( 2.0f, 2.0f, 2.0f ) );
; 1848 : 					#endif // __CLIENT
; 1849 : 					}
; 1850 : 						
; 1851 : 				}
; 1852 : 			}
; 1853 : 			break;
; 1854 : 		}
; 1855 : 	}

  0011f	e9 0f 01 00 00	 jmp	 $LN61@OnAttackMe
$LN6@OnAttackMe:

; 1856 : #if __VER >= 10 // __Y_DRAGON_FIRE
; 1857 : 	else
; 1858 : 	if( m_dwIndex == MI_DU_METEONYKER || m_dwIndex == MI_DU_METEONYKER2 || m_dwIndex == MI_DU_METEONYKER3 ||

  00124	3d cb 02 00 00	 cmp	 eax, 715		; 000002cbH
  00129	74 19		 je	 SHORT $LN12@OnAttackMe
  0012b	3d f1 02 00 00	 cmp	 eax, 753		; 000002f1H
  00130	74 12		 je	 SHORT $LN12@OnAttackMe
  00132	3d f2 02 00 00	 cmp	 eax, 754		; 000002f2H
  00137	74 0b		 je	 SHORT $LN12@OnAttackMe
  00139	3d f3 02 00 00	 cmp	 eax, 755		; 000002f3H
  0013e	0f 85 f6 00 00
	00		 jne	 $LN15@OnAttackMe
$LN12@OnAttackMe:

; 1859 : 		m_dwIndex == MI_DU_METEONYKER4 )
; 1860 : 	{
; 1861 : 	#ifdef __WORLDSERVER
; 1862 : 		UpdateMatrix();		// 몸체의 특정부위에서 나는 데미지를 처리하기 위해선 서버에서도 매트릭스를 갱신해야한다.

  00144	e8 00 00 00 00	 call	 ?UpdateMatrix@CObj@@QAEXXZ ; CObj::UpdateMatrix

; 1863 : 		CModelObject *pModel = (CModelObject *)m_pModel;
; 1864 : 		pModel->UpdateMatrixBone();		// 서버에서는 본애니메이션을 하지 않으므로 GetEventPos()를 사용할 일이 있을땐 업데이트를 해줘야 한다.

  00149	8b 8e 78 01 00
	00		 mov	 ecx, DWORD PTR [esi+376]
  0014f	e8 00 00 00 00	 call	 ?UpdateMatrixBone@CModelObject@@QAEXXZ ; CModelObject::UpdateMatrixBone

; 1865 : 	#endif // WorldServer
; 1866 : 
; 1867 : 		switch( dwState )

  00154	81 7d 08 00 00
	02 00		 cmp	 DWORD PTR _dwState$[ebp], 131072 ; 00020000H
  0015b	0f 85 d9 00 00
	00		 jne	 $LN15@OnAttackMe

; 1868 : 		{
; 1869 : 			case OBJSTA_ATK2:
; 1870 : 			{
; 1871 : 				if( m_pActMover->m_nMotionHitCount == 1 )

  00161	8b 86 38 02 00
	00		 mov	 eax, DWORD PTR [esi+568]
  00167	83 b8 9c 00 00
	00 01		 cmp	 DWORD PTR [eax+156], 1
  0016e	0f 85 c6 00 00
	00		 jne	 $LN15@OnAttackMe

; 1872 : 				{
; 1873 : 					D3DXVECTOR3 v1, v2, v3;
; 1874 : 					CModelObject *pModel = (CModelObject *)m_pModel;

  00174	8b be 78 01 00
	00		 mov	 edi, DWORD PTR [esi+376]

; 1875 : 					pModel->GetEventPos( &v1, 0 );		// 레이저 나가는 부분.

  0017a	8d 45 e4	 lea	 eax, DWORD PTR _v1$5[ebp]
  0017d	6a 00		 push	 0
  0017f	50		 push	 eax
  00180	8b cf		 mov	 ecx, edi
  00182	e8 00 00 00 00	 call	 ?GetEventPos@CModelObject@@QAEXPAUD3DXVECTOR3@@H@Z ; CModelObject::GetEventPos

; 1876 : 					pModel->GetEventPos( &v3, 1 );		// 레이저 나가는 부분.

  00187	6a 01		 push	 1
  00189	8d 45 cc	 lea	 eax, DWORD PTR _v3$1[ebp]
  0018c	8b cf		 mov	 ecx, edi
  0018e	50		 push	 eax
  0018f	e8 00 00 00 00	 call	 ?GetEventPos@CModelObject@@QAEXPAUD3DXVECTOR3@@H@Z ; CModelObject::GetEventPos
; File C:\IAGOS\server\v18\Source\Source\_Common\Obj.h

; 232  : 	D3DXMATRIX*		GetMatrixWorldPtr()		    { return &m_matWorld; } // 포인터 리턴 버전

  00194	8d 86 e4 00 00
	00		 lea	 eax, DWORD PTR [esi+228]
; File C:\IAGOS\server\v18\Source\Source\_Common\MoverActEvent.cpp

; 1877 : 					D3DXVec3TransformCoord( &v1, &v1, GetMatrixWorldPtr() );	// 월드공간으로 변환.

  0019a	50		 push	 eax
  0019b	8d 45 e4	 lea	 eax, DWORD PTR _v1$5[ebp]
  0019e	50		 push	 eax
  0019f	50		 push	 eax
  001a0	e8 00 00 00 00	 call	 _D3DXVec3TransformCoord@12

; 1878 : 					D3DXVec3TransformCoord( &v3, &v3, GetMatrixWorldPtr() );	// 월드공간으로 변환.

  001a5	8d 86 e4 00 00
	00		 lea	 eax, DWORD PTR [esi+228]
  001ab	50		 push	 eax
  001ac	8d 45 cc	 lea	 eax, DWORD PTR _v3$1[ebp]
  001af	50		 push	 eax
  001b0	50		 push	 eax
  001b1	e8 00 00 00 00	 call	 _D3DXVec3TransformCoord@12

; 1879 : 
; 1880 : 					v2 = D3DXVECTOR3( 0, 0, 40.0f );

  001b6	c7 45 f0 00 00
	00 00		 mov	 DWORD PTR _v2$7[ebp], 0
  001bd	c7 45 f4 00 00
	00 00		 mov	 DWORD PTR _v2$7[ebp+4], 0
  001c4	c7 45 f8 00 00
	20 42		 mov	 DWORD PTR _v2$7[ebp+8], 1109393408 ; 42200000H
; File C:\IAGOS\server\v18\Source\Source\_Common\ModelObject.h

; 324  : 		if( m_pBone == NULL )	return NULL;

  001cb	83 bf 84 2a 00
	00 00		 cmp	 DWORD PTR [edi+10884], 0
  001d2	75 04		 jne	 SHORT $LN38@OnAttackMe
  001d4	33 c0		 xor	 eax, eax
  001d6	eb 0f		 jmp	 SHORT $LN37@OnAttackMe
$LN38@OnAttackMe:

; 325  : 		if( m_mUpdateBone == NULL )	return NULL;

  001d8	8b 87 9c 2a 00
	00		 mov	 eax, DWORD PTR [edi+10908]
  001de	85 c0		 test	 eax, eax
  001e0	74 05		 je	 SHORT $LN37@OnAttackMe
$LN39@OnAttackMe:

; 326  : 		return &m_mUpdateBone[ nBoneIdx ];

  001e2	05 80 01 00 00	 add	 eax, 384		; 00000180H
$LN37@OnAttackMe:
; File C:\IAGOS\server\v18\Source\Source\_Common\MoverActEvent.cpp

; 1881 : 					D3DXVec3TransformCoord( &v2, &v2, pModel->GetMatrixBone(6) );	// 6이 머리.  머리에서 v2지점의 위치를 계산.

  001e7	50		 push	 eax
  001e8	8d 45 f0	 lea	 eax, DWORD PTR _v2$7[ebp]
  001eb	50		 push	 eax
  001ec	50		 push	 eax
  001ed	e8 00 00 00 00	 call	 _D3DXVec3TransformCoord@12

; 1882 : 					D3DXVec3TransformCoord( &v2, &v2, GetMatrixWorldPtr() );	// 월드 공간으로 변환.

  001f2	8d 86 e4 00 00
	00		 lea	 eax, DWORD PTR [esi+228]
  001f8	50		 push	 eax
  001f9	8d 45 f0	 lea	 eax, DWORD PTR _v2$7[ebp]
  001fc	50		 push	 eax
  001fd	50		 push	 eax
  001fe	e8 00 00 00 00	 call	 _D3DXVec3TransformCoord@12

; 1883 : 					
; 1884 : 			#ifdef __CLIENT
; 1885 : 					D3DXVECTOR3 vDir = v3 - v1;
; 1886 : 					D3DXVec3Normalize( &vDir, &vDir );
; 1887 : 					D3DXVECTOR3 vTemp;
; 1888 : 					D3DXVECTOR3 vScal = D3DXVECTOR3( 0.3f, 0.3f, 0.3f );
; 1889 : 					D3DXVECTOR3 vModelScal = GetScale();
; 1890 : 
; 1891 : 					vScal.x *= vModelScal.x;
; 1892 : 					vScal.y *= vModelScal.y;
; 1893 : 					vScal.z *= vModelScal.z;
; 1894 : 
; 1895 : 					for( int i = 0; i < 2; i ++ )
; 1896 : 					{
; 1897 : 						vTemp = vDir * (xRandomF( 0.2f ) + 0.1f );
; 1898 : 						vTemp *= 0.8f;
; 1899 : 						vTemp.y -= (xRandomF( 0.05f ) + 0.01f );
; 1900 : 						
; 1901 : 						extern CPartsFireDragon	g_FireDragon;
; 1902 : 						g_FireDragon.Create( D3DDEVICE, v1, XI_NAT_FIRE01_ADV, vScal, vTemp );
; 1903 : 					}
; 1904 : 
; 1905 : 			#endif
; 1906 : 
; 1907 : 			#ifdef __CLIENT
; 1908 : 					if( (m_pActMover->m_nCount & 1) == 0 )
; 1909 : 			#else				
; 1910 : 					if( (m_pActMover->m_nCount & 3) == 0 )

  00203	8b 86 38 02 00
	00		 mov	 eax, DWORD PTR [esi+568]
  00209	f6 40 40 03	 test	 BYTE PTR [eax+64], 3
  0020d	75 2b		 jne	 SHORT $LN15@OnAttackMe
; File C:\IAGOS\server\v18\Source\Source\_Common\Obj.h

; 215  : 	D3DXVECTOR3		GetPos()	{ return m_vPos; }

  0020f	8b 86 68 01 00
	00		 mov	 eax, DWORD PTR [esi+360]
  00215	f3 0f 7e 86 60
	01 00 00	 movq	 xmm0, QWORD PTR [esi+352]
; File C:\IAGOS\server\v18\Source\Source\_Common\MoverActEvent.cpp

; 1917 : 							OnDamage( nItemID, dwState, NULL, &vOut );		// 이펙트가 터지는 위치에 데미지를 줌.

  0021d	6a 01		 push	 1
; File C:\IAGOS\server\v18\Source\Source\_Common\Obj.h

; 215  : 	D3DXVECTOR3		GetPos()	{ return m_vPos; }

  0021f	89 45 e0	 mov	 DWORD PTR _vOut$3[ebp+8], eax
; File C:\IAGOS\server\v18\Source\Source\_Common\MoverActEvent.cpp

; 1917 : 							OnDamage( nItemID, dwState, NULL, &vOut );		// 이펙트가 터지는 위치에 데미지를 줌.

  00222	8d 45 d8	 lea	 eax, DWORD PTR _vOut$3[ebp]
  00225	50		 push	 eax
  00226	6a 00		 push	 0
  00228	68 00 00 02 00	 push	 131072			; 00020000H
; File C:\IAGOS\server\v18\Source\Source\_Common\Obj.h

; 215  : 	D3DXVECTOR3		GetPos()	{ return m_vPos; }

  0022d	66 0f d6 45 d8	 movq	 QWORD PTR _vOut$3[ebp], xmm0
; File C:\IAGOS\server\v18\Source\Source\_Common\MoverActEvent.cpp

; 1917 : 							OnDamage( nItemID, dwState, NULL, &vOut );		// 이펙트가 터지는 위치에 데미지를 줌.

  00232	53		 push	 ebx
$LN61@OnAttackMe:

; 1918 : 	/*
; 1919 : 						#ifdef __CLIENT
; 1920 : 							CSfx *pSfx = CreateSfx( D3DDEVICE,  XI_NPCSP1RANSPARK, vOut );
; 1921 : 							if( pSfx )
; 1922 : 								pSfx->SetScale( D3DXVECTOR3( 2.0f, 2.0f, 2.0f ) );
; 1923 : 						#endif // __CLIENT
; 1924 : 	*/
; 1925 : 						}
; 1926 : 							
; 1927 : 					}
; 1928 : 				}
; 1929 : 				break;
; 1930 : 			}
; 1931 : 		}
; 1932 : 	}
; 1933 : #endif //__Y_DRAGON_FIRE
; 1934 : 
; 1935 : 	return TRUE;

  00233	8b ce		 mov	 ecx, esi
  00235	e8 00 00 00 00	 call	 ?OnDamage@CMover@@QAEHHKPAV1@PBUD3DXVECTOR3@@K@Z ; CMover::OnDamage
$LN15@OnAttackMe:

; 1936 : }

  0023a	8b 4d fc	 mov	 ecx, DWORD PTR __$ArrayPad$[ebp]
  0023d	b8 01 00 00 00	 mov	 eax, 1
  00242	5f		 pop	 edi
  00243	5e		 pop	 esi
  00244	33 cd		 xor	 ecx, ebp
  00246	5b		 pop	 ebx
  00247	e8 00 00 00 00	 call	 @__security_check_cookie@4
  0024c	8b e5		 mov	 esp, ebp
  0024e	5d		 pop	 ebp
  0024f	c2 04 00	 ret	 4
?OnAttackMeleeContinue@CMover@@QAEHK@Z ENDP		; CMover::OnAttackMeleeContinue
_TEXT	ENDS
; Function compile flags: /Ogtp
; File C:\IAGOS\server\v18\Source\Source\_Common\MoverActEvent.cpp
; File C:\IAGOS\server\v18\Source\Source\_Common\Mover.h
; File C:\IAGOS\server\v18\Source\Source\_Common\MoverActEvent.cpp
; File C:\IAGOS\server\v18\Source\Source\_Common\Mover.h
; File C:\IAGOS\server\v18\Source\Source\_Common\MoverActEvent.cpp
; File C:\IAGOS\server\v18\Source\Source\_Common\Mover.h
; File C:\IAGOS\server\v18\Source\Source\_Common\MoverActEvent.cpp
;	COMDAT ?OnAttackMelee@CMover@@QAEHKPAV1@@Z
_TEXT	SEGMENT
_nItemID$1$ = -4					; size = 4
_dwState$ = 8						; size = 4
_pHitObj$ = 12						; size = 4
?OnAttackMelee@CMover@@QAEHKPAV1@@Z PROC		; CMover::OnAttackMelee, COMDAT
; _this$ = ecx

; 1664 : {

  00000	55		 push	 ebp
  00001	8b ec		 mov	 ebp, esp
  00003	51		 push	 ecx
  00004	56		 push	 esi

; 1665 : 	CModelObject	*pModel = (CModelObject *)m_pModel;
; 1666 : 	int		nItemID = GetActParam( 1 );	// 사용할 아이템 아이디
; 1667 : 
; 1668 : #ifdef __WORLDSERVER
; 1669 : 	PostAIMsg( AIMSG_ATTACK_MELEE );

  00005	6a 00		 push	 0
  00007	8b f1		 mov	 esi, ecx
  00009	6a 00		 push	 0
  0000b	6a 00		 push	 0
  0000d	6a 0e		 push	 14			; 0000000eH
  0000f	8b 86 b4 11 00
	00		 mov	 eax, DWORD PTR [esi+4532]
  00015	89 45 fc	 mov	 DWORD PTR _nItemID$1$[ebp], eax
  00018	e8 00 00 00 00	 call	 ?PostAIMsg@CMover@@QAEXKKKK@Z ; CMover::PostAIMsg

; 1670 : #endif
; 1671 : 	
; 1672 :  	if( m_dwIndex == MI_CLOCKWORK1 )	// 클락워크의 경우 때릴때 이펙트.

  0001d	8b 86 74 01 00
	00		 mov	 eax, DWORD PTR [esi+372]
  00023	3d a4 00 00 00	 cmp	 eax, 164		; 000000a4H
  00028	75 19		 jne	 SHORT $LN2@OnAttackMe

; 1673 : 	{
; 1674 : 		OnAttackMelee_ClockWorks( dwState, pHitObj );

  0002a	ff 75 0c	 push	 DWORD PTR _pHitObj$[ebp]
  0002d	8b ce		 mov	 ecx, esi
  0002f	ff 75 08	 push	 DWORD PTR _dwState$[ebp]
  00032	e8 00 00 00 00	 call	 ?OnAttackMelee_ClockWorks@CMover@@QAEXKPAV1@@Z ; CMover::OnAttackMelee_ClockWorks

; 1675 : 		return TRUE;

  00037	b8 01 00 00 00	 mov	 eax, 1
  0003c	5e		 pop	 esi

; 1797 : }

  0003d	8b e5		 mov	 esp, ebp
  0003f	5d		 pop	 ebp
  00040	c2 08 00	 ret	 8
$LN2@OnAttackMe:

; 1676 : 	}
; 1677 : 	
; 1678 : 	if( m_dwIndex == MI_BIGMUSCLE )	// 빅머슬의 경우 때릴때 이펙트.

  00043	3d a5 00 00 00	 cmp	 eax, 165		; 000000a5H
  00048	75 25		 jne	 SHORT $LN3@OnAttackMe

; 1679 : 	{
; 1680 : 		OnAttackMelee_BigMuscle( dwState, pHitObj );

  0004a	ff 75 0c	 push	 DWORD PTR _pHitObj$[ebp]
  0004d	8b ce		 mov	 ecx, esi
  0004f	ff 75 08	 push	 DWORD PTR _dwState$[ebp]
  00052	e8 00 00 00 00	 call	 ?OnAttackMelee_BigMuscle@CMover@@QAEXKPAV1@@Z ; CMover::OnAttackMelee_BigMuscle
$LN42@OnAttackMe:

; 1797 : }

  00057	8b 86 38 02 00
	00		 mov	 eax, DWORD PTR [esi+568]
  0005d	5e		 pop	 esi
  0005e	ff 80 9c 00 00
	00		 inc	 DWORD PTR [eax+156]
  00064	b8 01 00 00 00	 mov	 eax, 1
  00069	8b e5		 mov	 esp, ebp
  0006b	5d		 pop	 ebp
  0006c	c2 08 00	 ret	 8
$LN3@OnAttackMe:

; 1681 : 		m_pActMover->m_nMotionHitCount++;		
; 1682 : 		return TRUE;
; 1683 : 	}
; 1684 : 
; 1685 : 	if( m_dwIndex == MI_KRRR )	// 크르릉의 경우 때릴때 이펙트.

  0006f	3d a6 00 00 00	 cmp	 eax, 166		; 000000a6H
  00074	75 0f		 jne	 SHORT $LN4@OnAttackMe

; 1686 : 	{
; 1687 : 		OnAttackMelee_Krrr( dwState, pHitObj );

  00076	ff 75 0c	 push	 DWORD PTR _pHitObj$[ebp]
  00079	8b ce		 mov	 ecx, esi
  0007b	ff 75 08	 push	 DWORD PTR _dwState$[ebp]
  0007e	e8 00 00 00 00	 call	 ?OnAttackMelee_Krrr@CMover@@QAEXKPAV1@@Z ; CMover::OnAttackMelee_Krrr

; 1688 : 		m_pActMover->m_nMotionHitCount++;		
; 1689 : 		return TRUE;

  00083	eb d2		 jmp	 SHORT $LN42@OnAttackMe
$LN4@OnAttackMe:

; 1690 : 	}	
; 1691 : 
; 1692 : 	if( m_dwIndex == MI_MUSHMOOT )	// 크르릉의 경우 때릴때 이펙트.

  00085	3d a7 00 00 00	 cmp	 eax, 167		; 000000a7H
  0008a	75 0f		 jne	 SHORT $LN5@OnAttackMe

; 1693 : 	{
; 1694 : 		OnAttackMelee_Bear( dwState, pHitObj );

  0008c	ff 75 0c	 push	 DWORD PTR _pHitObj$[ebp]
  0008f	8b ce		 mov	 ecx, esi
  00091	ff 75 08	 push	 DWORD PTR _dwState$[ebp]
  00094	e8 00 00 00 00	 call	 ?OnAttackMelee_Bear@CMover@@QAEXKPAV1@@Z ; CMover::OnAttackMelee_Bear

; 1695 : 		m_pActMover->m_nMotionHitCount++;		
; 1696 : 		return TRUE;

  00099	eb bc		 jmp	 SHORT $LN42@OnAttackMe
$LN5@OnAttackMe:

; 1697 : 	}	
; 1698 : 
; 1699 : #if __VER >= 10 // __Y_DRAGON_FIRE
; 1700 : 	if( m_dwIndex == MI_DU_METEONYKER || m_dwIndex == MI_DU_METEONYKER2 || m_dwIndex == MI_DU_METEONYKER3 ||

  0009b	3d cb 02 00 00	 cmp	 eax, 715		; 000002cbH
  000a0	0f 84 b9 00 00
	00		 je	 $LN7@OnAttackMe
  000a6	3d f1 02 00 00	 cmp	 eax, 753		; 000002f1H
  000ab	0f 84 ae 00 00
	00		 je	 $LN7@OnAttackMe
  000b1	3d f2 02 00 00	 cmp	 eax, 754		; 000002f2H
  000b6	0f 84 a3 00 00
	00		 je	 $LN7@OnAttackMe
  000bc	3d f3 02 00 00	 cmp	 eax, 755		; 000002f3H
  000c1	0f 84 98 00 00
	00		 je	 $LN7@OnAttackMe
; File C:\IAGOS\server\v18\Source\Source\_Common\Mover.h

; 1015 : 	BOOL			IsNPC()				{ return !m_bPlayer; }

  000c7	83 be 30 02 00
	00 00		 cmp	 DWORD PTR [esi+560], 0
  000ce	53		 push	 ebx
; File C:\IAGOS\server\v18\Source\Source\_Common\MoverActEvent.cpp

; 1711 : 	if( IsNPC() && CMonsterSkill::GetInstance()->ApplySkill( this, pHitObj, ATK_MELEE ) )

  000cf	8b 5d 0c	 mov	 ebx, DWORD PTR _pHitObj$[ebp]
  000d2	57		 push	 edi
; File C:\IAGOS\server\v18\Source\Source\_Common\Mover.h

; 1015 : 	BOOL			IsNPC()				{ return !m_bPlayer; }

  000d3	8d be 30 02 00
	00		 lea	 edi, DWORD PTR [esi+560]
  000d9	8b c7		 mov	 eax, edi
; File C:\IAGOS\server\v18\Source\Source\_Common\MoverActEvent.cpp

; 1711 : 	if( IsNPC() && CMonsterSkill::GetInstance()->ApplySkill( this, pHitObj, ATK_MELEE ) )

  000db	75 3e		 jne	 SHORT $LN9@OnAttackMe
  000dd	6a 01		 push	 1
  000df	53		 push	 ebx
  000e0	56		 push	 esi
  000e1	e8 00 00 00 00	 call	 ?GetInstance@CMonsterSkill@@SAPAV1@XZ ; CMonsterSkill::GetInstance
  000e6	8b c8		 mov	 ecx, eax
  000e8	e8 00 00 00 00	 call	 ?ApplySkill@CMonsterSkill@@QAEHPAVCMover@@0K@Z ; CMonsterSkill::ApplySkill
  000ed	85 c0		 test	 eax, eax
  000ef	75 60		 jne	 SHORT $LN13@OnAttackMe
; File C:\IAGOS\server\v18\Source\Source\_Common\Mover.h

; 1015 : 	BOOL			IsNPC()				{ return !m_bPlayer; }

  000f1	83 3f 00	 cmp	 DWORD PTR [edi], 0
  000f4	8d 86 30 02 00
	00		 lea	 eax, DWORD PTR [esi+560]
; File C:\IAGOS\server\v18\Source\Source\_Common\MoverActEvent.cpp

; 1723 : 	if( IsNPC() && pHitObj->IsPlayer() && pHitObj->IsRangeObj( this, 10.0f ) == FALSE )		// 두번죽는 경우땜에 넣어봤다. 몹->유저 10미터 이상 떨어져있을때는 안맞게.

  000fa	75 1f		 jne	 SHORT $LN9@OnAttackMe
  000fc	83 bb 30 02 00
	00 00		 cmp	 DWORD PTR [ebx+560], 0
  00103	8b f8		 mov	 edi, eax
  00105	74 14		 je	 SHORT $LN9@OnAttackMe
  00107	51		 push	 ecx
  00108	c7 04 24 00 00
	20 41		 mov	 DWORD PTR [esp], 1092616192 ; 41200000H
  0010f	8b cb		 mov	 ecx, ebx
  00111	56		 push	 esi
  00112	e8 00 00 00 00	 call	 ?IsRangeObj@CObj@@QAEHPAV1@M@Z ; CObj::IsRangeObj
  00117	85 c0		 test	 eax, eax
  00119	74 36		 je	 SHORT $LN13@OnAttackMe
$LN9@OnAttackMe:

; 1724 : 		bDamage = FALSE;
; 1725 : #endif
; 1726 : 	if( bDamage )
; 1727 : 	{
; 1728 : 		bSuccess = OnDamage( nItemID, dwState, pHitObj );	// 데미지를 준다.

  0011b	6a 01		 push	 1
  0011d	6a 00		 push	 0
  0011f	53		 push	 ebx
  00120	8b 5d 08	 mov	 ebx, DWORD PTR _dwState$[ebp]
  00123	8b ce		 mov	 ecx, esi
  00125	53		 push	 ebx
  00126	ff 75 fc	 push	 DWORD PTR _nItemID$1$[ebp]
  00129	e8 00 00 00 00	 call	 ?OnDamage@CMover@@QAEHHKPAV1@PBUD3DXVECTOR3@@K@Z ; CMover::OnDamage

; 1729 : 	}
; 1730 : 
; 1731 : #ifdef __WORLDSERVER
; 1732 : 	if( bSuccess )

  0012e	85 c0		 test	 eax, eax
  00130	74 1f		 je	 SHORT $LN13@OnAttackMe

; 1733 : 	{
; 1734 : 		if( IsPlayer() )

  00132	83 3f 00	 cmp	 DWORD PTR [edi], 0
  00135	74 1a		 je	 SHORT $LN13@OnAttackMe

; 1735 : 		{
; 1736 : 			if( dwState == OBJSTA_ATK1 && ((CUser*)this)->m_playTaskBar.m_nActionPoint < 100 )	// 2타째 치는건 액션포인트 올라감.

  00137	81 fb 00 00 01
	00		 cmp	 ebx, 65536		; 00010000H
  0013d	75 12		 jne	 SHORT $LN13@OnAttackMe
  0013f	8b 86 38 8e 00
	00		 mov	 eax, DWORD PTR [esi+36408]
  00145	83 f8 64	 cmp	 eax, 100		; 00000064H
  00148	7d 07		 jge	 SHORT $LN13@OnAttackMe

; 1737 : 				((CUser*)this)->m_playTaskBar.m_nActionPoint ++;

  0014a	40		 inc	 eax
  0014b	89 86 38 8e 00
	00		 mov	 DWORD PTR [esi+36408], eax
$LN13@OnAttackMe:

; 1738 : 		}
; 1739 : 	}
; 1740 : #endif	// worldserver
; 1741 : 
; 1742 : #ifdef __CLIENT
; 1743 : 	if( bSuccess )		// 타격에 성공했다면 타격음을 플레이.
; 1744 : 	{
; 1745 : 		if( CMover::GetActiveMover() == this )
; 1746 : 		{
; 1747 : 			if( dwState == OBJSTA_ATK1 && g_WndMng.m_pWndTaskBar->m_nActionPoint < 100 )	// 2타째 치는건 액션포인트 올라감.
; 1748 : 				g_WndMng.m_pWndTaskBar->m_nActionPoint ++;
; 1749 : 		}
; 1750 : 		//  플레이어는 들고 있는 무기에 따라 타격 음이 다르다.
; 1751 : 		ItemProp* pItemProp = GetActiveHandItemProp();
; 1752 : 		if( pItemProp )
; 1753 : 		{
; 1754 : /*		#ifndef __Y_DRAGON_FIRE
; 1755 : 			if( pItemProp->dwSfxObj2 != NULL_ID )
; 1756 : 			{
; 1757 : 				CSfx *pSfx = CreateSfx( D3DDEVICE, pItemProp->dwSfxObj2,  GetPos(), GetId(), this->GetPos(), this->GetId(), 0 ); 
; 1758 : 			}
; 1759 : 		#endif //__Y_DRAGON_FIRE
; 1760 : */
; 1761 : 			PLAYSND( pItemProp->dwSndAttack1, &GetPos() );
; 1762 : 		}
; 1763 : 		
; 1764 : 		if( IsPlayer() )
; 1765 : 		{
; 1766 : 			pModel->m_nPause = 5;	// frame 멈춤
; 1767 : 		}
; 1768 : 		else
; 1769 : 		{
; 1770 : 			pModel->m_nPause = 0;	// 몬스터는 멈추지 않음
; 1771 : 			pHitObj->m_pModel->m_nPause = 0;
; 1772 : 		}
; 1773 : 
; 1774 : #if defined(__CLIENT)
; 1775 : 		{
; 1776 : 			if( IsValidObj( pHitObj ) )
; 1777 : 			{
; 1778 : 				pModel->m_SparkInfo.m_bUsed  = TRUE;
; 1779 : 				pModel->m_SparkInfo.m_v3Color.x = 2.0f;
; 1780 : 				pModel->m_SparkInfo.m_v3Color.y = 2.0f;
; 1781 : 				pModel->m_SparkInfo.m_v3Color.z = 2.0f;
; 1782 : 				pModel->m_SparkInfo.m_nCnt = 0;
; 1783 : 				pModel->m_SparkInfo.m_fLerp= 1.0f;
; 1784 : 				
; 1785 : 				D3DXVECTOR3 vDir = GetPos() - pHitObj->GetPos();
; 1786 : 				D3DXVec3Normalize( &pModel->m_SparkInfo.m_v3SparkDir, &vDir );
; 1787 : 			}
; 1788 : 		}
; 1789 : #endif //defined(__CLIENT)
; 1790 : 		
; 1791 : 		
; 1792 : 	}
; 1793 : #endif // client
; 1794 : 	
; 1795 : 	
; 1796 : 	return TRUE;

  00151	5f		 pop	 edi
  00152	5b		 pop	 ebx
  00153	b8 01 00 00 00	 mov	 eax, 1
  00158	5e		 pop	 esi

; 1797 : }

  00159	8b e5		 mov	 esp, ebp
  0015b	5d		 pop	 ebp
  0015c	c2 08 00	 ret	 8
$LN7@OnAttackMe:

; 1701 : 		m_dwIndex == MI_DU_METEONYKER4 )
; 1702 : 	{
; 1703 : 		OnAttackMelee_Meteonyker( dwState, pHitObj );

  0015f	ff 75 0c	 push	 DWORD PTR _pHitObj$[ebp]
  00162	8b ce		 mov	 ecx, esi
  00164	ff 75 08	 push	 DWORD PTR _dwState$[ebp]
  00167	e8 00 00 00 00	 call	 ?OnAttackMelee_Meteonyker@CMover@@QAEXKPAV1@@Z ; CMover::OnAttackMelee_Meteonyker
  0016c	e9 e6 fe ff ff	 jmp	 $LN42@OnAttackMe
?OnAttackMelee@CMover@@QAEHKPAV1@@Z ENDP		; CMover::OnAttackMelee
_TEXT	ENDS
; Function compile flags: /Ogtp
; File C:\IAGOS\server\v18\Source\Source\_Common\MoverActEvent.cpp
; File C:\IAGOS\server\v18\Source\Source\_Common\Obj.h
; File C:\IAGOS\server\v18\Source\Source\_Common\MoverActEvent.cpp
; File C:\IAGOS\server\v18\Source\Source\_Common\Mover.h
; File C:\IAGOS\server\v18\Source\Source\_Common\MoverActEvent.cpp
; File C:\IAGOS\server\v18\Source\Source\_Common\Obj.h
; File C:\IAGOS\server\v18\Source\Source\DX_SDK\d3dx9math.inl
; File C:\IAGOS\server\v18\Source\Source\_Common\Obj.h
; File C:\IAGOS\server\v18\Source\Source\DX_SDK\d3dx9math.inl
; File C:\IAGOS\server\v18\Source\Source\_Common\MoverActEvent.cpp
;	COMDAT ?OnAttackRange@CMover@@QAEHXZ
_TEXT	SEGMENT
_vPosDest$ = -32					; size = 12
$T1 = -20						; size = 12
_dwItemID$1$ = -8					; size = 4
_idTarget$1$ = -4					; size = 4
?OnAttackRange@CMover@@QAEHXZ PROC			; CMover::OnAttackRange, COMDAT
; _this$ = ecx

; 744  : {

  00000	55		 push	 ebp
  00001	8b ec		 mov	 ebp, esp
  00003	83 ec 20	 sub	 esp, 32			; 00000020H
  00006	53		 push	 ebx
  00007	56		 push	 esi
  00008	8b f1		 mov	 esi, ecx

; 745  : 	int		idTarget = GetActParam( 0 );
; 746  : 	DWORD	dwItemID = GetActParam( 1 );		// 사용할 아이템 아이디 (player이면 충전레벨)
; 747  : 	int		idSfxHit = GetActParam( 2 );		// 몬스터가 사용한것이면 여기에 서버로부터 받은값이 들어있다.
; 748  : #if __VER >= 8 // __S8_PK
; 749  : 	BOOL	bControl = FALSE;
; 750  : #endif // __VER >= 8 // __S8_PK
; 751  : 
; 752  : 	CMover* pHit = prj.GetMover( idTarget );	// 타겟의 포인터를 얻어냄.

  0000a	b9 00 00 00 00	 mov	 ecx, OFFSET ?prj@@3VCProject@@A ; prj
  0000f	57		 push	 edi
  00010	8b 86 b0 11 00
	00		 mov	 eax, DWORD PTR [esi+4528]
  00016	8b be b4 11 00
	00		 mov	 edi, DWORD PTR [esi+4532]
  0001c	50		 push	 eax
  0001d	89 45 fc	 mov	 DWORD PTR _idTarget$1$[ebp], eax
  00020	89 7d f8	 mov	 DWORD PTR _dwItemID$1$[ebp], edi
  00023	e8 00 00 00 00	 call	 ?GetMover@CProject@@QAEPAVCMover@@K@Z ; CProject::GetMover
  00028	8b d8		 mov	 ebx, eax
; File C:\IAGOS\server\v18\Source\Source\_Common\Obj.h

; 327  : 	return pObj && ( pObj->IsDelete() == FALSE ); 

  0002a	85 db		 test	 ebx, ebx
  0002c	0f 84 3e 01 00
	00		 je	 $LN49@OnAttackRa

; 180  : 	BOOL			IsDelete()	{ return (m_dwFlags & OBJ_FLAG_DELETE);  }

  00032	f6 43 04 01	 test	 BYTE PTR [ebx+4], 1

; 327  : 	return pObj && ( pObj->IsDelete() == FALSE ); 

  00036	0f 85 34 01 00
	00		 jne	 $LN49@OnAttackRa
; File C:\IAGOS\server\v18\Source\Source\_Common\MoverActEvent.cpp

; 757  : 	if( IsPlayer() )

  0003c	83 be 30 02 00
	00 00		 cmp	 DWORD PTR [esi+560], 0
  00043	75 16		 jne	 SHORT $LN7@OnAttackRa

; 758  : 		pItemProp = GetActiveHandItemProp();		// 이런경우는 걍 손에 든 무기(혹은 기본아이템)
; 759  : 	else 
; 760  : 	{
; 761  : 		if( dwItemID == NULL_ID || dwItemID == 0 )	

  00045	83 ff ff	 cmp	 edi, -1
  00048	74 11		 je	 SHORT $LN7@OnAttackRa
  0004a	85 ff		 test	 edi, edi
  0004c	74 0d		 je	 SHORT $LN7@OnAttackRa

; 762  : 			pItemProp = GetActiveHandItemProp();		// 이런경우는 걍 손에 든 무기(혹은 기본아이템)
; 763  : 		else
; 764  : 			pItemProp = prj.GetItemProp( dwItemID );	// 직접 아이템을 지정한 경우는 그걸로 공격함(몬스터가 주로 사용함)

  0004e	57		 push	 edi
  0004f	b9 00 00 00 00	 mov	 ecx, OFFSET ?prj@@3VCProject@@A ; prj
  00054	e8 00 00 00 00	 call	 ?GetItemProp@CProject@@QAEPAUItemProp@@H@Z ; CProject::GetItemProp
  00059	eb 09		 jmp	 SHORT $LN61@OnAttackRa
$LN7@OnAttackRa:

; 765  : 	}
; 766  : 
; 767  : 	if( pItemProp == NULL )

  0005b	6a 0a		 push	 10			; 0000000aH
  0005d	8b ce		 mov	 ecx, esi
  0005f	e8 00 00 00 00	 call	 ?GetActiveHandItemProp@CMover@@QAEPAUItemProp@@H@Z ; CMover::GetActiveHandItemProp
$LN61@OnAttackRa:
  00064	8b f8		 mov	 edi, eax
  00066	85 ff		 test	 edi, edi
  00068	0f 84 02 01 00
	00		 je	 $LN49@OnAttackRa
; File C:\IAGOS\server\v18\Source\Source\_Common\Mover.h

; 1015 : 	BOOL			IsNPC()				{ return !m_bPlayer; }

  0006e	83 be 30 02 00
	00 00		 cmp	 DWORD PTR [esi+560], 0
; File C:\IAGOS\server\v18\Source\Source\_Common\MoverActEvent.cpp

; 772  : 	if( IsNPC() )

  00075	75 10		 jne	 SHORT $LN9@OnAttackRa

; 773  : 		CMonsterSkill::GetInstance()->ApplySkill( this, pHit, ATK_RANGE );

  00077	6a 02		 push	 2
  00079	53		 push	 ebx
  0007a	56		 push	 esi
  0007b	e8 00 00 00 00	 call	 ?GetInstance@CMonsterSkill@@SAPAV1@XZ ; CMonsterSkill::GetInstance
  00080	8b c8		 mov	 ecx, eax
  00082	e8 00 00 00 00	 call	 ?ApplySkill@CMonsterSkill@@QAEHPAVCMover@@0K@Z ; CMonsterSkill::ApplySkill
$LN9@OnAttackRa:

; 786  : 	if( IsPlayer() )		

  00087	83 be 30 02 00
	00 00		 cmp	 DWORD PTR [esi+560], 0
  0008e	0f 57 c9	 xorps	 xmm1, xmm1
; File C:\IAGOS\server\v18\Source\Source\_Common\Obj.h

; 215  : 	D3DXVECTOR3		GetPos()	{ return m_vPos; }

  00091	f3 0f 7e 83 60
	01 00 00	 movq	 xmm0, QWORD PTR [ebx+352]
  00099	8b 83 68 01 00
	00		 mov	 eax, DWORD PTR [ebx+360]
  0009f	66 0f d6 45 ec	 movq	 QWORD PTR $T1[ebp], xmm0
; File C:\IAGOS\server\v18\Source\Source\DX_SDK\d3dx9math.inl

; 377  :     return D3DXVECTOR3(x + v.x, y + v.y, z + v.z);

  000a4	f3 0f 10 45 ec	 movss	 xmm0, DWORD PTR $T1[ebp]
  000a9	f3 0f 58 c1	 addss	 xmm0, xmm1
; File C:\IAGOS\server\v18\Source\Source\_Common\Obj.h

; 215  : 	D3DXVECTOR3		GetPos()	{ return m_vPos; }

  000ad	89 45 f4	 mov	 DWORD PTR $T1[ebp+8], eax
; File C:\IAGOS\server\v18\Source\Source\DX_SDK\d3dx9math.inl

; 300  :     x = fx;

  000b0	f3 0f 11 45 e0	 movss	 DWORD PTR _vPosDest$[ebp], xmm0

; 377  :     return D3DXVECTOR3(x + v.x, y + v.y, z + v.z);

  000b5	f3 0f 10 45 f0	 movss	 xmm0, DWORD PTR $T1[ebp+4]
  000ba	f3 0f 58 05 00
	00 00 00	 addss	 xmm0, DWORD PTR __real@3f800000

; 301  :     y = fy;

  000c2	f3 0f 11 45 e4	 movss	 DWORD PTR _vPosDest$[ebp+4], xmm0

; 377  :     return D3DXVECTOR3(x + v.x, y + v.y, z + v.z);

  000c7	f3 0f 10 45 f4	 movss	 xmm0, DWORD PTR $T1[ebp+8]
  000cc	f3 0f 58 c1	 addss	 xmm0, xmm1

; 302  :     z = fz;

  000d0	f3 0f 11 45 e8	 movss	 DWORD PTR _vPosDest$[ebp+8], xmm0
; File C:\IAGOS\server\v18\Source\Source\_Common\MoverActEvent.cpp

; 786  : 	if( IsPlayer() )		

  000d5	74 43		 je	 SHORT $LN10@OnAttackRa

; 787  : 	{
; 788  : 		ItemProp *pItemElem = GetActiveHandItemProp( PARTS_BULLET );  // 화살아이템을 참조로 화살이펙트 생성

  000d7	6a 19		 push	 25			; 00000019H
  000d9	8b ce		 mov	 ecx, esi
  000db	e8 00 00 00 00	 call	 ?GetActiveHandItemProp@CMover@@QAEPAUItemProp@@H@Z ; CMover::GetActiveHandItemProp

; 789  : 		if( pItemElem && pItemElem->dwSfxObj2 != NULL_ID )

  000e0	85 c0		 test	 eax, eax
  000e2	74 3f		 je	 SHORT $LN13@OnAttackRa
  000e4	8b 90 a8 01 00
	00		 mov	 edx, DWORD PTR [eax+424]
  000ea	83 fa ff	 cmp	 edx, -1
  000ed	74 34		 je	 SHORT $LN13@OnAttackRa

; 790  : 		{
; 791  : 		#ifdef __CLIENT
; 792  : 			if( IsActiveMover() )
; 793  : 				pSfx = CreateSfxArrow( pItemElem->dwSfxObj2, pItemProp->dwSfxObj3, vPosDest, idTarget );
; 794  : 		#endif //__CLIENT
; 795  : 
; 796  : 		#ifdef __WORLDSERVER
; 797  : 			g_UserMng.AddCreateSfxAllow( this, pItemElem->dwSfxObj2, pItemProp->dwSfxObj3, vPosDest, idTarget );

  000ef	ff 75 fc	 push	 DWORD PTR _idTarget$1$[ebp]
  000f2	f3 0f 7e 45 e0	 movq	 xmm0, QWORD PTR _vPosDest$[ebp]
  000f7	8b 45 e8	 mov	 eax, DWORD PTR _vPosDest$[ebp+8]
  000fa	83 ec 0c	 sub	 esp, 12			; 0000000cH
  000fd	8b cc		 mov	 ecx, esp
  000ff	ff b7 ac 01 00
	00		 push	 DWORD PTR [edi+428]
  00105	66 0f d6 01	 movq	 QWORD PTR [ecx], xmm0
  00109	52		 push	 edx
  0010a	89 41 08	 mov	 DWORD PTR [ecx+8], eax
  0010d	b9 00 00 00 00	 mov	 ecx, OFFSET ?g_UserMng@@3VCUserMng@@A ; g_UserMng
  00112	56		 push	 esi
  00113	e8 00 00 00 00	 call	 ?AddCreateSfxAllow@CUserMng@@QAEXPAVCMover@@KKUD3DXVECTOR3@@H@Z ; CUserMng::AddCreateSfxAllow

; 798  : 		#endif //__WORLDSERVER
; 799  : 		}
; 800  : 	}

  00118	eb 09		 jmp	 SHORT $LN13@OnAttackRa
$LN10@OnAttackRa:

; 801  : 	else
; 802  : 	{
; 803  : 		if( dwSfxObj == NULL_ID )	

  0011a	83 bf a8 01 00
	00 ff		 cmp	 DWORD PTR [edi+424], -1
  00121	74 4d		 je	 SHORT $LN49@OnAttackRa
$LN13@OnAttackRa:

; 804  : 			return FALSE;
; 805  : 	#ifdef __CLIENT		
; 806  : 		pSfx = CreateSfx( D3DDEVICE, dwSfxObj, vPosSrc,GetId(), vPosDest ,idTarget );
; 807  : 	#endif
; 808  : 	}
; 809  : 
; 810  : 	DWORD dwAtkFlags = AF_GENERIC;
; 811  : 	if( IsPlayer() )

  00123	8b 96 30 02 00
	00		 mov	 edx, DWORD PTR [esi+560]

; 812  : 		dwAtkFlags |= AF_RANGE;
; 813  : 
; 814  : #ifdef __WORLDSERVER
; 815  : #if __VER >= 8 // __S8_PK
; 816  : 	OnAttackSFX( pHit->GetId(), ( IsPlayer()? dwItemID: 0 ), NULL_ID, 0, 0, 0, dwAtkFlags, bControl );

  00129	b8 01 40 00 00	 mov	 eax, 16385		; 00004001H
  0012e	6a 00		 push	 0
  00130	85 d2		 test	 edx, edx
  00132	bf 01 00 00 00	 mov	 edi, 1
  00137	0f 44 c7	 cmove	 eax, edi
  0013a	33 c9		 xor	 ecx, ecx
  0013c	50		 push	 eax
  0013d	83 ec 08	 sub	 esp, 8
  00140	85 d2		 test	 edx, edx
  00142	0f 45 4d f8	 cmovne	 ecx, DWORD PTR _dwItemID$1$[ebp]
  00146	c7 44 24 04 00
	00 00 00	 mov	 DWORD PTR [esp+4], 0
  0014e	c7 04 24 00 00
	00 00		 mov	 DWORD PTR [esp], 0
  00155	6a 00		 push	 0
  00157	6a ff		 push	 -1
  00159	51		 push	 ecx
  0015a	ff b3 bc 01 00
	00		 push	 DWORD PTR [ebx+444]
  00160	8b ce		 mov	 ecx, esi
  00162	e8 00 00 00 00	 call	 ?OnAttackSFX@CMover@@QAEXKHKHMMKH@Z ; CMover::OnAttackSFX

; 817  : #else // __VER >= 8 // __S8_PK
; 818  : 	OnAttackSFX( pHit->GetId(), ( IsPlayer()? dwItemID: 0 ), NULL_ID, 0, 0, 0, dwAtkFlags );
; 819  : #endif // __VER >= 8 // __S8_PK
; 820  : #endif	// __WORLDSERVER
; 821  : 
; 822  : #ifdef __CLIENT
; 823  : 	if( pSfx )
; 824  : 	{
; 825  : 		if( IsActiveMover() )		
; 826  : 		{
; 827  : 			idSfxHit = ++m_idSfxHit; 	// 클라에서 발사체가 생성된 즉시 ID를 만들고 그것을 서버로 보냄.
; 828  : 			g_DPlay.SendSfxID( idTarget, idSfxHit, dwAtkFlags );
; 829  : 			pSfx->m_idSfxHit	= idSfxHit;
; 830  : 			pSfx->m_nMagicPower = IsPlayer() ? dwItemID : 0;		// 충전레벨도 넣어준다.
; 831  : 		}
; 832  : 		// 쏜놈이 g_pPlayer거나 / 쏜놈은 몹이고 맞는놈이 g_pPlayer면
; 833  : 		if( IsActiveMover() || (IsNPC() && pHit->IsActiveMover()) )
; 834  : 			pSfx->m_idSfxHit	= idSfxHit;		// id를 등록함
; 835  : 	}
; 836  : #endif //__CLIENT
; 837  : 	return TRUE;

  00167	8b c7		 mov	 eax, edi

; 838  : }

  00169	5f		 pop	 edi
  0016a	5e		 pop	 esi
  0016b	5b		 pop	 ebx
  0016c	8b e5		 mov	 esp, ebp
  0016e	5d		 pop	 ebp
  0016f	c3		 ret	 0
$LN49@OnAttackRa:
  00170	5f		 pop	 edi
  00171	5e		 pop	 esi
  00172	33 c0		 xor	 eax, eax
  00174	5b		 pop	 ebx
  00175	8b e5		 mov	 esp, ebp
  00177	5d		 pop	 ebp
  00178	c3		 ret	 0
?OnAttackRange@CMover@@QAEHXZ ENDP			; CMover::OnAttackRange
_TEXT	ENDS
; Function compile flags: /Ogtp
; File C:\IAGOS\server\v18\Source\Source\_Common\MoverActEvent.cpp
; File C:\IAGOS\server\v18\Source\Source\_Common\Obj.h
; File C:\IAGOS\server\v18\Source\Source\_Common\MoverActEvent.cpp
; File C:\IAGOS\server\v18\Source\Source\_Common\Mover.h
; File C:\IAGOS\server\v18\Source\Source\_Common\MoverActEvent.cpp
; File C:\IAGOS\server\v18\Source\Source\_Common\Mover.h
; File C:\IAGOS\server\v18\Source\Source\_Common\MoverActEvent.cpp
; File C:\IAGOS\server\v18\Source\Source\_Common\Obj.h
; File C:\IAGOS\server\v18\Source\Source\_Common\MoverActEvent.cpp
; File C:\IAGOS\server\v18\Source\Source\_Common\Obj.h
; File C:\IAGOS\server\v18\Source\Source\_Common\MoverActEvent.cpp
; File C:\IAGOS\server\v18\Source\Source\_Common\Obj.h
; File C:\IAGOS\server\v18\Source\Source\_Common\MoverActEvent.cpp
; File C:\IAGOS\server\v18\Source\Source\_Common\Obj.h
; File C:\IAGOS\server\v18\Source\Source\_Common\MoverActEvent.cpp
; File C:\IAGOS\server\v18\Source\Source\_Common\Obj.h
; File C:\IAGOS\server\v18\Source\Source\_Common\MoverActEvent.cpp
; File C:\IAGOS\server\v18\Source\Source\_Common\Obj.h
; File C:\IAGOS\server\v18\Source\Source\_Common\MoverActEvent.cpp
; File C:\IAGOS\server\v18\Source\Source\_Common\Obj.h
; File C:\IAGOS\server\v18\Source\Source\_Common\MoverActEvent.cpp
; File C:\IAGOS\server\v18\Source\Source\_Common\Obj.h
; File C:\IAGOS\server\v18\Source\Source\_Common\MoverActEvent.cpp
; File C:\IAGOS\server\v18\Source\Source\_Common\Obj.h
; File C:\IAGOS\server\v18\Source\Source\_Common\MoverActEvent.cpp
; File C:\IAGOS\server\v18\Source\Source\_Common\Obj.h
; File C:\Program Files (x86)\Windows Kits\10\Include\10.0.26100.0\ucrt\corecrt_math.h
; File C:\IAGOS\server\v18\Source\Source\DX_SDK\d3dx9math.inl
; File C:\Program Files (x86)\Windows Kits\10\Include\10.0.26100.0\ucrt\corecrt_math.h
; File C:\IAGOS\server\v18\Source\Source\DX_SDK\d3dx9math.inl
; File C:\Program Files (x86)\Windows Kits\10\Include\10.0.26100.0\ucrt\corecrt_math.h
; File C:\IAGOS\server\v18\Source\Source\_Common\Obj.h
; File C:\IAGOS\server\v18\Source\Source\DX_SDK\d3dx9math.inl
; File C:\IAGOS\server\v18\Source\Source\_Common\Obj.h
; File C:\IAGOS\server\v18\Source\Source\DX_SDK\d3dx9math.inl
; File C:\Program Files (x86)\Windows Kits\10\Include\10.0.26100.0\ucrt\corecrt_math.h
; File C:\IAGOS\server\v18\Source\Source\_Common\Obj.h
; File C:\IAGOS\server\v18\Source\Source\_Common\MoverActEvent.cpp
; File C:\IAGOS\server\v18\Source\Source\_Common\Mover.h
; File C:\IAGOS\server\v18\Source\Source\_Common\MoverActEvent.cpp
;	COMDAT ?OnMagicSkill@CMover@@QAEHHH@Z
_TEXT	SEGMENT
$T1 = -80						; size = 12
tv803 = -68						; size = 4
_idTarget$1$ = -68					; size = 4
_pSkillProp$ = -64					; size = 4
_pAddSkillProp$ = -60					; size = 4
_bControl$1$ = -56					; size = 4
_pWorld$1$ = -56					; size = 4
_fDegree$1$ = -56					; size = 4
$T2 = -52						; size = 12
$T3 = -52						; size = 12
_vDir1$4 = -40						; size = 12
_vDir2$5 = -28						; size = 12
$T6 = -16						; size = 12
$T7 = -16						; size = 12
_vSrc$8 = -16						; size = 12
__$ArrayPad$ = -4					; size = 4
_nType$ = 8						; size = 4
_nCount$ = 12						; size = 4
?OnMagicSkill@CMover@@QAEHHH@Z PROC			; CMover::OnMagicSkill, COMDAT
; _this$ = ecx

; 547  : {

  00000	55		 push	 ebp
  00001	8b ec		 mov	 ebp, esp
  00003	83 ec 50	 sub	 esp, 80			; 00000050H
  00006	a1 00 00 00 00	 mov	 eax, DWORD PTR ___security_cookie
  0000b	33 c5		 xor	 eax, ebp
  0000d	89 45 fc	 mov	 DWORD PTR __$ArrayPad$[ebp], eax
  00010	56		 push	 esi
  00011	8b f1		 mov	 esi, ecx
  00013	57		 push	 edi

; 548  : 	if( m_oaAct != OBJACT_USESKILL )	

  00014	83 be ac 11 00
	00 05		 cmp	 DWORD PTR [esi+4524], 5
  0001b	75 5b		 jne	 SHORT $LN99@OnMagicSki

; 549  : 		return FALSE;	// 스킬사용후 타점이 되기전에 다른 명령으로 바뀐경우. 이런상황이 와선 안된다.
; 550  : 
; 551  : 	int			nSkill = GetActParam(0);
; 552  : 	OBJID		idTarget = GetActParam(1);

  0001d	8b 86 b4 11 00
	00		 mov	 eax, DWORD PTR [esi+4532]

; 553  : 	DWORD		dwLevel = GetActParam( 3 );
; 554  : #if __VER >= 8 // __S8_PK
; 555  : 	BOOL	bControl = GetActParam( 4 );
; 556  : #endif // __VER >= 8 // __S8_PK
; 557  : 
; 558  : 	ItemProp*	pSkillProp = NULL;
; 559  : 	AddSkillProp* pAddSkillProp = NULL;
; 560  : 	LPSKILL		pSkill	= NULL;
; 561  : 	
; 562  : 	BOOL bRet = GetSkillProp( &pSkillProp, &pAddSkillProp, nSkill, dwLevel, "CMover::OnMagicSkill" );

  00023	8d 4d c4	 lea	 ecx, DWORD PTR _pAddSkillProp$[ebp]
  00026	8b be bc 11 00
	00		 mov	 edi, DWORD PTR [esi+4540]
  0002c	68 00 00 00 00	 push	 OFFSET ??_C@_0BF@MPKCELDK@CMover?3?3OnMagicSkill@
  00031	57		 push	 edi
  00032	ff b6 b0 11 00
	00		 push	 DWORD PTR [esi+4528]
  00038	89 45 bc	 mov	 DWORD PTR _idTarget$1$[ebp], eax
  0003b	8b 86 c0 11 00
	00		 mov	 eax, DWORD PTR [esi+4544]
  00041	89 45 c8	 mov	 DWORD PTR _bControl$1$[ebp], eax
  00044	8b 06		 mov	 eax, DWORD PTR [esi]
  00046	51		 push	 ecx
  00047	8d 4d c0	 lea	 ecx, DWORD PTR _pSkillProp$[ebp]
  0004a	c7 45 c0 00 00
	00 00		 mov	 DWORD PTR _pSkillProp$[ebp], 0
  00051	51		 push	 ecx
  00052	8b 40 30	 mov	 eax, DWORD PTR [eax+48]
  00055	8b ce		 mov	 ecx, esi
  00057	c7 45 c4 00 00
	00 00		 mov	 DWORD PTR _pAddSkillProp$[ebp], 0
  0005e	ff d0		 call	 eax

; 563  : 	if( bRet == FALSE )

  00060	85 c0		 test	 eax, eax
  00062	75 28		 jne	 SHORT $LN3@OnMagicSki

; 564  : 	{
; 565  : 		Error( "OnMagicSkill : 스킬프롭읽기 실패함. 현재진행중인 Motion=%d %d", m_dwMotion, dwLevel );

  00064	57		 push	 edi
  00065	ff b6 d8 02 00
	00		 push	 DWORD PTR [esi+728]
  0006b	68 00 00 00 00	 push	 OFFSET ??_C@_0DO@MIGMHMLK@OnMagicSkill?5?3?5?$LN?$LK?E?$LD?G?A?$LH?S?$MA?P?$LB?b?5?$LN?G?F@
  00070	e8 00 00 00 00	 call	 ?Error@@YAPBDPBDZZ	; Error
  00075	83 c4 0c	 add	 esp, 12			; 0000000cH
$LN99@OnMagicSki:

; 715  : #else	// __SKILL_0706
; 716  : 		if( pSkillProp->dwSkillReady != 0xffffffff )	// 쿨타임이 있는 스킬의 경우
; 717  : 			SetCoolTime( pSkillProp, "OnMagicSkill" );
; 718  : #endif	// __SKILL_0706
; 719  : 	} // bSuccess
; 720  : 
; 721  : #if defined(__CLIENT)
; 722  : 	CModelObject* pModel = (CModelObject*)m_pModel;
; 723  : 	if( pModel )
; 724  : 	{
; 725  : 		pModel->m_SparkInfo.m_bUsed  = TRUE;
; 726  : 		pModel->m_SparkInfo.m_v3Color.x = 2.0f;
; 727  : 		pModel->m_SparkInfo.m_v3Color.y = 2.0f;
; 728  : 		pModel->m_SparkInfo.m_v3Color.z = 2.0f;
; 729  : 		pModel->m_SparkInfo.m_nCnt = 0;
; 730  : 		pModel->m_SparkInfo.m_fLerp= 1.0f;
; 731  : 		
; 732  : 		AngleToVectorXZ( &pModel->m_SparkInfo.m_v3SparkDir, GetAngle(), -1.0f );
; 733  : 	}
; 734  : #endif //defined(__CLIENT)
; 735  : 
; 736  : 	return TRUE;
; 737  : } // OnMagicSkill

  00078	33 c0		 xor	 eax, eax
  0007a	5f		 pop	 edi
  0007b	5e		 pop	 esi
  0007c	8b 4d fc	 mov	 ecx, DWORD PTR __$ArrayPad$[ebp]
  0007f	33 cd		 xor	 ecx, ebp
  00081	e8 00 00 00 00	 call	 @__security_check_cookie@4
  00086	8b e5		 mov	 esp, ebp
  00088	5d		 pop	 ebp
  00089	c2 08 00	 ret	 8
$LN3@OnMagicSki:

; 566  : 		return FALSE;
; 567  : 	}
; 568  : 	
; 569  : 	CMover* pFocusObj = prj.GetMover( idTarget );		// 타겟무버포인터를 얻어냄.

  0008c	ff 75 bc	 push	 DWORD PTR _idTarget$1$[ebp]
  0008f	b9 00 00 00 00	 mov	 ecx, OFFSET ?prj@@3VCProject@@A ; prj
  00094	e8 00 00 00 00	 call	 ?GetMover@CProject@@QAEPAVCMover@@K@Z ; CProject::GetMover
  00099	8b f8		 mov	 edi, eax
; File C:\IAGOS\server\v18\Source\Source\_Common\Obj.h

; 327  : 	return pObj && ( pObj->IsDelete() == FALSE ); 

  0009b	85 ff		 test	 edi, edi
  0009d	74 d9		 je	 SHORT $LN99@OnMagicSki

; 180  : 	BOOL			IsDelete()	{ return (m_dwFlags & OBJ_FLAG_DELETE);  }

  0009f	f6 47 04 01	 test	 BYTE PTR [edi+4], 1

; 327  : 	return pObj && ( pObj->IsDelete() == FALSE ); 

  000a3	75 d3		 jne	 SHORT $LN99@OnMagicSki
; File C:\IAGOS\server\v18\Source\Source\_Common\MoverActEvent.cpp

; 573  : 	if( pSkillProp->dwID == SI_ASS_HEAL_HEALING )	// 힐링 상대가 죽었으면 취소

  000a5	8b 4d c0	 mov	 ecx, DWORD PTR _pSkillProp$[ebp]
  000a8	8b 11		 mov	 edx, DWORD PTR [ecx]
  000aa	83 fa 2c	 cmp	 edx, 44			; 0000002cH
  000ad	75 18		 jne	 SHORT $LN6@OnMagicSki
; File C:\IAGOS\server\v18\Source\Source\_Common\Mover.h

; 1250 : 	BOOL			IsDie() { return m_pActMover->IsDie() || m_nHitPoint == 0; }

  000af	8b 87 38 02 00
	00		 mov	 eax, DWORD PTR [edi+568]
  000b5	f7 40 04 00 00
	00 08		 test	 DWORD PTR [eax+4], 134217728 ; 08000000H
  000bc	75 ba		 jne	 SHORT $LN99@OnMagicSki
  000be	83 bf f8 05 00
	00 00		 cmp	 DWORD PTR [edi+1528], 0
  000c5	74 b1		 je	 SHORT $LN99@OnMagicSki
$LN6@OnMagicSki:
; File C:\IAGOS\server\v18\Source\Source\_Common\MoverActEvent.cpp

; 580  : 	BOOL bShoot	= pSkillProp->dwExeTarget == EXT_MAGICATKSHOT  || pSkillProp->dwExeTarget == EXT_MAGICSHOT;

  000c7	8b 81 c4 01 00
	00		 mov	 eax, DWORD PTR [ecx+452]
  000cd	83 f8 0e	 cmp	 eax, 14			; 0000000eH
  000d0	74 20		 je	 SHORT $LN96@OnMagicSki
  000d2	83 f8 03	 cmp	 eax, 3
  000d5	74 1b		 je	 SHORT $LN96@OnMagicSki

; 598  : 	}
; 599  : 	else
; 600  : 	{
; 601  : 		// 적용범위 처리. 내부에서 ApplySkill()을 호출.
; 602  : #if __VER >= 8 // __S8_PK
; 603  : 		int nDamage = DoApplySkill( pFocusObj, pSkillProp, pAddSkillProp, false, 0, FALSE, bControl );

  000d7	ff 75 c8	 push	 DWORD PTR _bControl$1$[ebp]
  000da	6a 00		 push	 0
  000dc	6a 00		 push	 0
  000de	6a 00		 push	 0
  000e0	ff 75 c4	 push	 DWORD PTR _pAddSkillProp$[ebp]
  000e3	51		 push	 ecx
  000e4	57		 push	 edi
  000e5	8b ce		 mov	 ecx, esi
  000e7	e8 00 00 00 00	 call	 ?DoApplySkill@CCtrl@@QAEHPAV1@PAUItemProp@@PAUAddSkillProp@@_NHHH@Z ; CCtrl::DoApplySkill

; 604  : #else // __VER >= 8 // __S8_PK
; 605  : 		int nDamage = DoApplySkill( pFocusObj, pSkillProp, pAddSkillProp );
; 606  : #endif // __VER >= 8 // __S8_PK
; 607  : 		if( nDamage == 0 )

  000ec	85 c0		 test	 eax, eax
  000ee	74 88		 je	 SHORT $LN99@OnMagicSki
  000f0	eb 77		 jmp	 SHORT $LN95@OnMagicSki
$LN96@OnMagicSki:

; 581  : 	if( bShoot )	// 쏘는 형태만 sfx발생.
; 582  : 	{
; 583  : #ifdef __WORLDSERVER
; 584  : 		int nMaxDmgCnt	= 1;
; 585  : 		if( pSkillProp->tmContinuousPain != NULL_ID )
; 586  : 			nMaxDmgCnt	= ( pAddSkillProp->dwSkillTime / pAddSkillProp->dwPainTime ) + 1;
; 587  : 		float fDmgPower = 0;
; 588  : 		if( pSkillProp->dwDmgShift != NULL_ID )

  000f2	8b 81 34 01 00
	00		 mov	 eax, DWORD PTR [ecx+308]
  000f8	0f 57 c0	 xorps	 xmm0, xmm0
  000fb	83 f8 ff	 cmp	 eax, -1
  000fe	74 0f		 je	 SHORT $LN10@OnMagicSki

; 589  : 			fDmgPower	= (int)pSkillProp->dwDmgShift * 0.2f;

  00100	66 0f 6e c0	 movd	 xmm0, eax
  00104	0f 5b c0	 cvtdq2ps xmm0, xmm0
  00107	f3 0f 59 05 00
	00 00 00	 mulss	 xmm0, DWORD PTR __real@3e4ccccd
$LN10@OnMagicSki:

; 590  : //		for( int nDmgCnt = 0; nDmgCnt < nMaxDmgCnt; nDmgCnt++ )
; 591  : #if __VER >= 8 // __S8_PK
; 592  : 			OnAttackSFX( pFocusObj->GetId(), pAddSkillProp->dwSkillLvl, pSkillProp->dwID, 0, GetAngle(), fDmgPower, ( pSkillProp->dwSkillType == KT_SKILL? AF_MELEESKILL: AF_MAGICSKILL ), bControl );

  0010f	ff 75 c8	 push	 DWORD PTR _bControl$1$[ebp]
  00112	83 b9 e8 01 00
	00 02		 cmp	 DWORD PTR [ecx+488], 2
  00119	b8 20 00 00 00	 mov	 eax, 32			; 00000020H
  0011e	c7 45 bc 10 00
	00 00		 mov	 DWORD PTR tv803[ebp], 16 ; 00000010H
  00125	8b ce		 mov	 ecx, esi
  00127	0f 44 45 bc	 cmove	 eax, DWORD PTR tv803[ebp]
  0012b	50		 push	 eax
  0012c	8b 45 c4	 mov	 eax, DWORD PTR _pAddSkillProp$[ebp]
  0012f	83 ec 08	 sub	 esp, 8
  00132	f3 0f 11 44 24
	04		 movss	 DWORD PTR [esp+4], xmm0
  00138	f3 0f 10 46 18	 movss	 xmm0, DWORD PTR [esi+24]
  0013d	f3 0f 11 04 24	 movss	 DWORD PTR [esp], xmm0
  00142	6a 00		 push	 0
  00144	52		 push	 edx
  00145	ff 70 08	 push	 DWORD PTR [eax+8]
  00148	ff b7 bc 01 00
	00		 push	 DWORD PTR [edi+444]
  0014e	e8 00 00 00 00	 call	 ?OnAttackSFX@CMover@@QAEXKHKHMMKH@Z ; CMover::OnAttackSFX

; 593  : #else // __VER >= 8 // __S8_PK
; 594  : 			OnAttackSFX( pFocusObj->GetId(), pAddSkillProp->dwSkillLvl, pSkillProp->dwID, 0, GetAngle(), fDmgPower, ( pSkillProp->dwSkillType == KT_SKILL? AF_MELEESKILL: AF_MAGICSKILL ) );
; 595  : #endif // __VER >= 8 // __S8_PK
; 596  : #endif	// __WORLDSERVER
; 597  : 		bSuccess = ShootSkill( pFocusObj, pSkillProp, pAddSkillProp );		// 서버에선 이부분은 실행안된다.

  00153	ff 75 c4	 push	 DWORD PTR _pAddSkillProp$[ebp]
  00156	8b ce		 mov	 ecx, esi
  00158	ff 75 c0	 push	 DWORD PTR _pSkillProp$[ebp]
  0015b	57		 push	 edi
  0015c	e8 00 00 00 00	 call	 ?ShootSkill@CCtrl@@QAEHPAV1@PAUItemProp@@PAUAddSkillProp@@@Z ; CCtrl::ShootSkill

; 608  : 			return FALSE;
; 609  : 		bSuccess = (BOOL)nDamage;
; 610  : 
; 611  : 	#ifdef __CLIENT	
; 612  : 		if( pSkillProp->dwID == SI_MAG_MAG_BLINKPOOL )
; 613  : 		{
; 614  : 			CWndWorld* pWndWorld = (CWndWorld*)g_WndMng.GetWndBase( APP_WORLD );
; 615  : 			
; 616  : 			if( IsActiveMover() )
; 617  : 			{
; 618  : 				D3DXVECTOR3 vStart;
; 619  : 				D3DXVECTOR3 vEnd;
; 620  : 
; 621  : 				vStart = GetPos();		vStart.y += 1.0f;
; 622  : 				vEnd = pWndWorld->m_vTelePos;
; 623  : 				
; 624  : 				CWorld *pWorld = GetWorld();
; 625  : 				
; 626  : 				if( pWorld->IntersectObjLine( NULL, vStart, vEnd, FALSE, FALSE ) )
; 627  : 				{
; 628  : 					g_WndMng.m_pWndWorld->SetNextSkill( NEXTSKILL_NONE );
; 629  : 					g_WndMng.PutString( prj.GetText( TID_GAME_BLOCKTARGETING ), NULL, prj.GetTextColor( TID_GAME_BLOCKTARGETING ) );
; 630  : 					return FALSE;
; 631  : 				}
; 632  : 			
; 633  : 				g_DPlay.SendTeleSkill( GetId(), pWndWorld->m_vTelePos );
; 634  : 			}
; 635  : 		}
; 636  : 	#endif // Client		
; 637  : 	}
; 638  : 	
; 639  : 	if( bSuccess )	// 스킬사용 실패하면 마나안깎임. / 경험치 안오름.

  00161	85 c0		 test	 eax, eax
  00163	0f 84 f0 02 00
	00		 je	 $LN28@OnMagicSki
$LN95@OnMagicSki:

; 640  : 	{
; 641  : 	#ifdef __WORLDSERVER
; 642  : 		// 발사한 순간에 마나등을 깍는다.
; 643  : 		int nReqMp = GetReqMp( pAddSkillProp->nReqMp );

  00169	8b 45 c4	 mov	 eax, DWORD PTR _pAddSkillProp$[ebp]
  0016c	8b ce		 mov	 ecx, esi
  0016e	ff 70 54	 push	 DWORD PTR [eax+84]
  00171	e8 00 00 00 00	 call	 ?GetReqMp@CMover@@QAEHH@Z ; CMover::GetReqMp

; 644  : 
; 645  : 		#if __VER >= 10 // __LEGEND	//	10차 전승시스템	Neuz, World, Trans
; 646  : 		if(nReqMp != 9999999)

  00176	3d 7f 96 98 00	 cmp	 eax, 9999999		; 0098967fH
  0017b	74 35		 je	 SHORT $LN102@OnMagicSki

; 647  : 		#endif	//__LEGEND	//	10차 전승시스템	Neuz, World, Trans
; 648  : 		{
; 649  : 			if( pAddSkillProp->nSkillCount > 1 )

  0017d	8b 4d c4	 mov	 ecx, DWORD PTR _pAddSkillProp$[ebp]
  00180	8b 49 74	 mov	 ecx, DWORD PTR [ecx+116]
  00183	83 f9 01	 cmp	 ecx, 1
  00186	7e 03		 jle	 SHORT $LN14@OnMagicSki

; 650  : 				nReqMp /= pAddSkillProp->nSkillCount;

  00188	99		 cdq
  00189	f7 f9		 idiv	 ecx
$LN14@OnMagicSki:

; 651  : 			IncManaPoint( -nReqMp );

  0018b	f7 d8		 neg	 eax
  0018d	8b ce		 mov	 ecx, esi
  0018f	50		 push	 eax
  00190	e8 00 00 00 00	 call	 ?IncManaPoint@CMover@@QAEXH@Z ; CMover::IncManaPoint

; 652  : 			if( pAddSkillProp->nReqFp != NULL_ID )

  00195	8b 45 c4	 mov	 eax, DWORD PTR _pAddSkillProp$[ebp]
  00198	8b 40 58	 mov	 eax, DWORD PTR [eax+88]
  0019b	83 f8 ff	 cmp	 eax, -1
  0019e	74 12		 je	 SHORT $LN102@OnMagicSki

; 653  : 				IncFatiguePoint( -GetReqFp( pAddSkillProp->nReqFp ) );

  001a0	50		 push	 eax
  001a1	8b ce		 mov	 ecx, esi
  001a3	e8 00 00 00 00	 call	 ?GetReqFp@CMover@@QAEHH@Z ; CMover::GetReqFp
  001a8	f7 d8		 neg	 eax
  001aa	8b ce		 mov	 ecx, esi
  001ac	50		 push	 eax
  001ad	e8 00 00 00 00	 call	 ?IncFatiguePoint@CMover@@QAEXH@Z ; CMover::IncFatiguePoint
$LN102@OnMagicSki:

; 654  : 		}
; 655  : 		
; 656  : 		#if __VER >= 10 // __LEGEND	//	10차 전승시스템	Neuz, World, Trans
; 657  : 			if( pSkillProp->dwID == SI_RIG_HERO_RETURN )

  001b2	8b 45 c0	 mov	 eax, DWORD PTR _pSkillProp$[ebp]
  001b5	81 38 f4 00 00
	00		 cmp	 DWORD PTR [eax], 244	; 000000f4H
  001bb	0f 85 fa 00 00
	00		 jne	 $LN25@OnMagicSki

; 658  : 			{
; 659  : 				REPLACE_TYPE type = REPLACE_NORMAL;
; 660  : 
; 661  : 				PRegionElem pRgnElem	= NULL;
; 662  : 				CWorld* pWorld	= GetWorld();

  001c1	8b 86 6c 01 00
	00		 mov	 eax, DWORD PTR [esi+364]
  001c7	89 45 c8	 mov	 DWORD PTR _pWorld$1$[ebp], eax

; 663  : 				if( !pWorld )

  001ca	85 c0		 test	 eax, eax
  001cc	0f 84 a6 fe ff
	ff		 je	 $LN99@OnMagicSki
; File C:\IAGOS\server\v18\Source\Source\_Common\Mover.h

; 1257 : 	BOOL			IsChaotic( void ) { return m_dwPKPropensity > 0; }	/// 카오인지

  001d2	83 be 58 07 00
	00 00		 cmp	 DWORD PTR [esi+1880], 0
  001d9	8b 10		 mov	 edx, DWORD PTR [eax]
  001db	8b 88 00 93 08
	00		 mov	 ecx, DWORD PTR [eax+561920]
; File C:\IAGOS\server\v18\Source\Source\_Common\MoverActEvent.cpp

; 666  : 				if( IsChaotic() )

  001e1	76 4a		 jbe	 SHORT $LN18@OnMagicSki

; 667  : 				{
; 668  : 		#if __VER >= 8 // __S8_PK
; 669  : 					if( pWorld->GetID() != pWorld->m_dwIdWorldRevival && pWorld->m_dwIdWorldRevival != 0 )

  001e3	3b d1		 cmp	 edx, ecx
  001e5	74 1b		 je	 SHORT $LN93@OnMagicSki
  001e7	85 c9		 test	 ecx, ecx
  001e9	74 17		 je	 SHORT $LN93@OnMagicSki

; 670  : 						pRgnElem	= g_WorldMng.GetRevivalPosChao( pWorld->m_dwIdWorldRevival, pWorld->m_szKeyRevival );

  001eb	05 e0 92 08 00	 add	 eax, 561888		; 000892e0H
  001f0	50		 push	 eax
  001f1	51		 push	 ecx
  001f2	b9 00 00 00 00	 mov	 ecx, OFFSET ?g_WorldMng@@3VCWorldMng@@A ; g_WorldMng
  001f7	e8 00 00 00 00	 call	 ?GetRevivalPosChao@CWorldMng@@QAEPAUREGIONELEM@@KPBD@Z ; CWorldMng::GetRevivalPosChao
  001fc	8b c8		 mov	 ecx, eax

; 671  : 					if( NULL == pRgnElem )	// Find near revival pos

  001fe	85 c9		 test	 ecx, ecx
  00200	75 79		 jne	 SHORT $LN92@OnMagicSki
$LN93@OnMagicSki:
; File C:\IAGOS\server\v18\Source\Source\_Common\Obj.h

; 215  : 	D3DXVECTOR3		GetPos()	{ return m_vPos; }

  00202	8b 86 68 01 00
	00		 mov	 eax, DWORD PTR [esi+360]
; File C:\IAGOS\server\v18\Source\Source\_Common\MoverActEvent.cpp

; 672  : 						pRgnElem	= g_WorldMng.GetNearRevivalPosChao( pWorld->GetID(), GetPos() );

  00208	b9 00 00 00 00	 mov	 ecx, OFFSET ?g_WorldMng@@3VCWorldMng@@A ; g_WorldMng
; File C:\IAGOS\server\v18\Source\Source\_Common\Obj.h

; 215  : 	D3DXVECTOR3		GetPos()	{ return m_vPos; }

  0020d	f3 0f 7e 86 60
	01 00 00	 movq	 xmm0, QWORD PTR [esi+352]
  00215	89 45 f8	 mov	 DWORD PTR $T6[ebp+8], eax
; File C:\IAGOS\server\v18\Source\Source\_Common\MoverActEvent.cpp

; 672  : 						pRgnElem	= g_WorldMng.GetNearRevivalPosChao( pWorld->GetID(), GetPos() );

  00218	8d 45 f0	 lea	 eax, DWORD PTR $T6[ebp]
  0021b	50		 push	 eax
  0021c	8b 45 c8	 mov	 eax, DWORD PTR _pWorld$1$[ebp]
; File C:\IAGOS\server\v18\Source\Source\_Common\Obj.h

; 215  : 	D3DXVECTOR3		GetPos()	{ return m_vPos; }

  0021f	66 0f d6 45 f0	 movq	 QWORD PTR $T6[ebp], xmm0
; File C:\IAGOS\server\v18\Source\Source\_Common\MoverActEvent.cpp

; 672  : 						pRgnElem	= g_WorldMng.GetNearRevivalPosChao( pWorld->GetID(), GetPos() );

  00224	ff 30		 push	 DWORD PTR [eax]
  00226	e8 00 00 00 00	 call	 ?GetNearRevivalPosChao@CWorldMng@@QAEPAUREGIONELEM@@KAAUD3DXVECTOR3@@@Z ; CWorldMng::GetNearRevivalPosChao

; 673  : 		#else // __VER >= 8 // __S8_PK
; 674  : 					pRgnElem	= g_WorldMng.GetNearRevivalPosChao( pWorld->GetID(), GetPos() );
; 675  : 		#endif // __VER >= 8 // __S8_PK
; 676  : 				}

  0022b	eb 48		 jmp	 SHORT $LN125@OnMagicSki
$LN18@OnMagicSki:

; 677  : 				else
; 678  : 
; 679  : 				{
; 680  : 					if( pWorld->GetID() != pWorld->m_dwIdWorldRevival && pWorld->m_dwIdWorldRevival != 0 )

  0022d	3b d1		 cmp	 edx, ecx
  0022f	74 1b		 je	 SHORT $LN94@OnMagicSki
  00231	85 c9		 test	 ecx, ecx
  00233	74 17		 je	 SHORT $LN94@OnMagicSki

; 681  : 						pRgnElem	= g_WorldMng.GetRevivalPos( pWorld->m_dwIdWorldRevival, pWorld->m_szKeyRevival );

  00235	05 e0 92 08 00	 add	 eax, 561888		; 000892e0H
  0023a	50		 push	 eax
  0023b	51		 push	 ecx
  0023c	b9 00 00 00 00	 mov	 ecx, OFFSET ?g_WorldMng@@3VCWorldMng@@A ; g_WorldMng
  00241	e8 00 00 00 00	 call	 ?GetRevivalPos@CWorldMng@@QAEPAUREGIONELEM@@KPBD@Z ; CWorldMng::GetRevivalPos
  00246	8b c8		 mov	 ecx, eax

; 682  : 					if( NULL == pRgnElem )	// Find near revival pos

  00248	85 c9		 test	 ecx, ecx
  0024a	75 2f		 jne	 SHORT $LN92@OnMagicSki
$LN94@OnMagicSki:
; File C:\IAGOS\server\v18\Source\Source\_Common\Obj.h

; 215  : 	D3DXVECTOR3		GetPos()	{ return m_vPos; }

  0024c	8b 86 68 01 00
	00		 mov	 eax, DWORD PTR [esi+360]
; File C:\IAGOS\server\v18\Source\Source\_Common\MoverActEvent.cpp

; 683  : 						pRgnElem	= g_WorldMng.GetNearRevivalPos( pWorld->GetID(), GetPos() );

  00252	b9 00 00 00 00	 mov	 ecx, OFFSET ?g_WorldMng@@3VCWorldMng@@A ; g_WorldMng
; File C:\IAGOS\server\v18\Source\Source\_Common\Obj.h

; 215  : 	D3DXVECTOR3		GetPos()	{ return m_vPos; }

  00257	f3 0f 7e 86 60
	01 00 00	 movq	 xmm0, QWORD PTR [esi+352]
  0025f	89 45 d4	 mov	 DWORD PTR $T2[ebp+8], eax
; File C:\IAGOS\server\v18\Source\Source\_Common\MoverActEvent.cpp

; 683  : 						pRgnElem	= g_WorldMng.GetNearRevivalPos( pWorld->GetID(), GetPos() );

  00262	8d 45 cc	 lea	 eax, DWORD PTR $T2[ebp]
  00265	50		 push	 eax
  00266	8b 45 c8	 mov	 eax, DWORD PTR _pWorld$1$[ebp]
; File C:\IAGOS\server\v18\Source\Source\_Common\Obj.h

; 215  : 	D3DXVECTOR3		GetPos()	{ return m_vPos; }

  00269	66 0f d6 45 cc	 movq	 QWORD PTR $T2[ebp], xmm0
; File C:\IAGOS\server\v18\Source\Source\_Common\MoverActEvent.cpp

; 683  : 						pRgnElem	= g_WorldMng.GetNearRevivalPos( pWorld->GetID(), GetPos() );

  0026e	ff 30		 push	 DWORD PTR [eax]
  00270	e8 00 00 00 00	 call	 ?GetNearRevivalPos@CWorldMng@@QAEPAUREGIONELEM@@KAAUD3DXVECTOR3@@@Z ; CWorldMng::GetNearRevivalPos
$LN125@OnMagicSki:

; 684  : 				}
; 685  : 				if( NULL != pRgnElem )

  00275	8b c8		 mov	 ecx, eax
  00277	85 c9		 test	 ecx, ecx
  00279	74 10		 je	 SHORT $LN24@OnMagicSki
$LN92@OnMagicSki:

; 686  : 					REPLACE( g_uIdofMulti, pRgnElem->m_dwWorldId, pRgnElem->m_vPos, type, nRevivalLayer );

  0027b	6a 00		 push	 0
  0027d	6a 00		 push	 0
  0027f	8d 41 10	 lea	 eax, DWORD PTR [ecx+16]
  00282	50		 push	 eax
  00283	ff b1 c0 02 00
	00		 push	 DWORD PTR [ecx+704]
  00289	eb 23		 jmp	 SHORT $LN126@OnMagicSki
$LN24@OnMagicSki:
; File C:\IAGOS\server\v18\Source\Source\_Common\Obj.h

; 215  : 	D3DXVECTOR3		GetPos()	{ return m_vPos; }

  0028b	8b 86 68 01 00
	00		 mov	 eax, DWORD PTR [esi+360]
  00291	f3 0f 7e 86 60
	01 00 00	 movq	 xmm0, QWORD PTR [esi+352]
; File C:\IAGOS\server\v18\Source\Source\_Common\MoverActEvent.cpp

; 688  : 					REPLACE( g_uIdofMulti, pWorld->GetID(), GetPos(), type, nDefaultLayer );

  00299	6a 00		 push	 0
; File C:\IAGOS\server\v18\Source\Source\_Common\Obj.h

; 215  : 	D3DXVECTOR3		GetPos()	{ return m_vPos; }

  0029b	89 45 f8	 mov	 DWORD PTR $T7[ebp+8], eax
; File C:\IAGOS\server\v18\Source\Source\_Common\MoverActEvent.cpp

; 688  : 					REPLACE( g_uIdofMulti, pWorld->GetID(), GetPos(), type, nDefaultLayer );

  0029e	8d 45 f0	 lea	 eax, DWORD PTR $T7[ebp]
  002a1	6a 00		 push	 0
  002a3	50		 push	 eax
  002a4	8b 45 c8	 mov	 eax, DWORD PTR _pWorld$1$[ebp]
; File C:\IAGOS\server\v18\Source\Source\_Common\Obj.h

; 215  : 	D3DXVECTOR3		GetPos()	{ return m_vPos; }

  002a7	66 0f d6 45 f0	 movq	 QWORD PTR $T7[ebp], xmm0
; File C:\IAGOS\server\v18\Source\Source\_Common\MoverActEvent.cpp

; 688  : 					REPLACE( g_uIdofMulti, pWorld->GetID(), GetPos(), type, nDefaultLayer );

  002ac	ff 30		 push	 DWORD PTR [eax]
$LN126@OnMagicSki:

; 689  : 			}
; 690  : 			if( pSkillProp->dwID == SI_KNT_HERO_DRAWING || pSkillProp->dwID == SI_LOD_SUP_PULLING )

  002ae	ff 35 00 00 00
	00		 push	 DWORD PTR ?g_uIdofMulti@@3KA ; g_uIdofMulti
  002b4	8b ce		 mov	 ecx, esi
  002b6	e8 00 00 00 00	 call	 ?Replace@CMover@@QAEHKKAAUD3DXVECTOR3@@W4REPLACE_TYPE@@H@Z ; CMover::Replace
$LN25@OnMagicSki:
  002bb	8b 45 c0	 mov	 eax, DWORD PTR _pSkillProp$[ebp]
  002be	8b 00		 mov	 eax, DWORD PTR [eax]
  002c0	3d ee 00 00 00	 cmp	 eax, 238		; 000000eeH
  002c5	74 0b		 je	 SHORT $LN27@OnMagicSki
  002c7	3d 90 01 00 00	 cmp	 eax, 400		; 00000190H
  002cc	0f 85 71 01 00
	00		 jne	 $LN26@OnMagicSki
$LN27@OnMagicSki:
; File C:\IAGOS\server\v18\Source\Source\_Common\Obj.h

; 215  : 	D3DXVECTOR3		GetPos()	{ return m_vPos; }

  002d2	f3 0f 7e 86 60
	01 00 00	 movq	 xmm0, QWORD PTR [esi+352]
  002da	8b 86 68 01 00
	00		 mov	 eax, DWORD PTR [esi+360]
  002e0	66 0f d6 45 f0	 movq	 QWORD PTR _vSrc$8[ebp], xmm0
  002e5	f3 0f 7e c0	 movq	 xmm0, xmm0
  002e9	66 0f d6 45 cc	 movq	 QWORD PTR $T3[ebp], xmm0
  002ee	f3 0f 7e 87 60
	01 00 00	 movq	 xmm0, QWORD PTR [edi+352]
  002f6	89 45 f8	 mov	 DWORD PTR _vSrc$8[ebp+8], eax
  002f9	89 45 d4	 mov	 DWORD PTR $T3[ebp+8], eax
  002fc	8b 87 68 01 00
	00		 mov	 eax, DWORD PTR [edi+360]
  00302	66 0f d6 45 b0	 movq	 QWORD PTR $T1[ebp], xmm0
  00307	0f 57 c0	 xorps	 xmm0, xmm0
  0030a	89 45 b8	 mov	 DWORD PTR $T1[ebp+8], eax
; File C:\Program Files (x86)\Windows Kits\10\Include\10.0.26100.0\ucrt\corecrt_math.h

; 789  :             return (float)sin(_X);

  0030d	e8 00 00 00 00	 call	 __libm_sse2_sin_precise
  00312	0f 57 c9	 xorps	 xmm1, xmm1
; File C:\IAGOS\server\v18\Source\Source\DX_SDK\d3dx9math.inl

; 301  :     y = fy;

  00315	c7 45 dc 00 00
	00 00		 mov	 DWORD PTR _vDir1$4[ebp+4], 0
; File C:\Program Files (x86)\Windows Kits\10\Include\10.0.26100.0\ucrt\corecrt_math.h

; 789  :             return (float)sin(_X);

  0031c	f2 0f 5a c8	 cvtsd2ss xmm1, xmm0
  00320	0f 57 c0	 xorps	 xmm0, xmm0
; File C:\IAGOS\server\v18\Source\Source\DX_SDK\d3dx9math.inl

; 300  :     x = fx;

  00323	f3 0f 11 4d d8	 movss	 DWORD PTR _vDir1$4[ebp], xmm1
; File C:\Program Files (x86)\Windows Kits\10\Include\10.0.26100.0\ucrt\corecrt_math.h

; 683  :             return (float)cos(_X);

  00328	e8 00 00 00 00	 call	 __libm_sse2_cos_precise
  0032d	f2 0f 5a c0	 cvtsd2ss xmm0, xmm0
; File C:\IAGOS\server\v18\Source\Source\_Common\Obj.h

; 294  : 	D3DXVec3Normalize( &vDir1, &vDir1 );

  00331	8d 45 d8	 lea	 eax, DWORD PTR _vDir1$4[ebp]
  00334	c7 45 e8 00 00
	00 00		 mov	 DWORD PTR _vDir2$5[ebp+4], 0
  0033b	50		 push	 eax
  0033c	50		 push	 eax

; 282  : 	FLOAT fz = -cosf( fTheta ) * fVelocity;

  0033d	0f 57 05 00 00
	00 00		 xorps	 xmm0, DWORD PTR __xmm@80000000800000008000000080000000
; File C:\IAGOS\server\v18\Source\Source\DX_SDK\d3dx9math.inl

; 302  :     z = fz;

  00344	f3 0f 11 45 e0	 movss	 DWORD PTR _vDir1$4[ebp+8], xmm0

; 383  :     return D3DXVECTOR3(x - v.x, y - v.y, z - v.z);

  00349	f3 0f 10 45 b0	 movss	 xmm0, DWORD PTR $T1[ebp]
  0034e	f3 0f 5c 45 cc	 subss	 xmm0, DWORD PTR $T3[ebp]

; 300  :     x = fx;

  00353	f3 0f 11 45 e4	 movss	 DWORD PTR _vDir2$5[ebp], xmm0

; 383  :     return D3DXVECTOR3(x - v.x, y - v.y, z - v.z);

  00358	f3 0f 10 45 b8	 movss	 xmm0, DWORD PTR $T1[ebp+8]
  0035d	f3 0f 5c 45 d4	 subss	 xmm0, DWORD PTR $T3[ebp+8]

; 302  :     z = fz;

  00362	f3 0f 11 45 ec	 movss	 DWORD PTR _vDir2$5[ebp+8], xmm0
; File C:\IAGOS\server\v18\Source\Source\_Common\Obj.h

; 294  : 	D3DXVec3Normalize( &vDir1, &vDir1 );

  00367	e8 00 00 00 00	 call	 _D3DXVec3Normalize@8

; 295  : 	D3DXVec3Normalize( &vDir2, &vDir2 );

  0036c	8d 45 e4	 lea	 eax, DWORD PTR _vDir2$5[ebp]
  0036f	50		 push	 eax
  00370	50		 push	 eax
  00371	e8 00 00 00 00	 call	 _D3DXVec3Normalize@8
; File C:\IAGOS\server\v18\Source\Source\DX_SDK\d3dx9math.inl

; 1709 :     return pV1->x * pV2->x + pV1->y * pV2->y + pV1->z * pV2->z;

  00376	f3 0f 10 4d d8	 movss	 xmm1, DWORD PTR _vDir1$4[ebp]
  0037b	f3 0f 10 45 e8	 movss	 xmm0, DWORD PTR _vDir2$5[ebp+4]
  00380	f3 0f 59 45 dc	 mulss	 xmm0, DWORD PTR _vDir1$4[ebp+4]
  00385	f3 0f 59 4d e4	 mulss	 xmm1, DWORD PTR _vDir2$5[ebp]
  0038a	f3 0f 58 c8	 addss	 xmm1, xmm0
  0038e	f3 0f 10 45 ec	 movss	 xmm0, DWORD PTR _vDir2$5[ebp+8]
  00393	f3 0f 59 45 e0	 mulss	 xmm0, DWORD PTR _vDir1$4[ebp+8]
  00398	f3 0f 58 c8	 addss	 xmm1, xmm0
; File C:\Program Files (x86)\Windows Kits\10\Include\10.0.26100.0\ucrt\corecrt_math.h

; 658  :             return (float)acos(_X);

  0039c	0f 5a c1	 cvtps2pd xmm0, xmm1
  0039f	e8 00 00 00 00	 call	 __libm_sse2_acos_precise
  003a4	0f 57 c9	 xorps	 xmm1, xmm1
  003a7	f2 0f 5a c8	 cvtsd2ss xmm1, xmm0
  003ab	0f 57 c0	 xorps	 xmm0, xmm0
; File C:\IAGOS\server\v18\Source\Source\_Common\Obj.h

; 299  : 	if( vDir2.x < 0.0f )

  003ae	0f 2f 45 e4	 comiss	 xmm0, DWORD PTR _vDir2$5[ebp]
  003b2	f3 0f 59 0d 00
	00 00 00	 mulss	 xmm1, DWORD PTR __real@42652ee0
  003ba	f3 0f 11 4d c8	 movss	 DWORD PTR _fDegree$1$[ebp], xmm1
  003bf	76 11		 jbe	 SHORT $LN61@OnMagicSki

; 300  : 		fDegree = 360.0f - fDegree;

  003c1	f3 0f 10 05 00
	00 00 00	 movss	 xmm0, DWORD PTR __real@43b40000
  003c9	f3 0f 5c c1	 subss	 xmm0, xmm1
  003cd	f3 0f 11 45 c8	 movss	 DWORD PTR _fDegree$1$[ebp], xmm0
$LN61@OnMagicSki:
; File C:\IAGOS\server\v18\Source\Source\_Common\MoverActEvent.cpp

; 697  : 				pFocusObj->SetPos(vSrc);

  003d2	8d 45 f0	 lea	 eax, DWORD PTR _vSrc$8[ebp]
  003d5	8b cf		 mov	 ecx, edi
  003d7	50		 push	 eax
  003d8	e8 00 00 00 00	 call	 ?SetPos@CObj@@QAEXABUD3DXVECTOR3@@@Z ; CObj::SetPos

; 698  : 				g_UserMng.AddSetPos( pFocusObj, vSrc );

  003dd	8d 45 f0	 lea	 eax, DWORD PTR _vSrc$8[ebp]
  003e0	b9 00 00 00 00	 mov	 ecx, OFFSET ?g_UserMng@@3VCUserMng@@A ; g_UserMng
  003e5	50		 push	 eax
  003e6	57		 push	 edi
  003e7	e8 00 00 00 00	 call	 ?AddSetPos@CUserMng@@QAEXPAVCCtrl@@AAUD3DXVECTOR3@@@Z ; CUserMng::AddSetPos

; 699  : 				g_UserMng.AddPushPower( pFocusObj, pFocusObj->GetPos(), pFocusObj->GetAngle(), fAngle, 0.2f );

  003ec	f3 0f 10 45 c8	 movss	 xmm0, DWORD PTR _fDegree$1$[ebp]
  003f1	83 ec 18	 sub	 esp, 24			; 00000018H
  003f4	8b 87 68 01 00
	00		 mov	 eax, DWORD PTR [edi+360]
  003fa	8b cc		 mov	 ecx, esp
  003fc	c7 44 24 14 cd
	cc 4c 3e	 mov	 DWORD PTR [esp+20], 1045220557 ; 3e4ccccdH
  00404	f3 0f 11 44 24
	10		 movss	 DWORD PTR [esp+16], xmm0
  0040a	f3 0f 10 47 18	 movss	 xmm0, DWORD PTR [edi+24]
  0040f	f3 0f 11 44 24
	0c		 movss	 DWORD PTR [esp+12], xmm0
  00415	f3 0f 7e 87 60
	01 00 00	 movq	 xmm0, QWORD PTR [edi+352]
  0041d	66 0f d6 01	 movq	 QWORD PTR [ecx], xmm0
  00421	89 41 08	 mov	 DWORD PTR [ecx+8], eax
  00424	b9 00 00 00 00	 mov	 ecx, OFFSET ?g_UserMng@@3VCUserMng@@A ; g_UserMng
  00429	57		 push	 edi
  0042a	e8 00 00 00 00	 call	 ?AddPushPower@CUserMng@@QAEXPAVCMover@@UD3DXVECTOR3@@MMM@Z ; CUserMng::AddPushPower
; File C:\IAGOS\server\v18\Source\Source\_Common\Mover.h

; 1030 : 	void			ClearDestObj()     	{ m_idDest = NULL_ID; m_fArrivalRange = 0.0f; }

  0042f	c7 87 58 02 00
	00 ff ff ff ff	 mov	 DWORD PTR [edi+600], -1
  00439	c7 87 54 02 00
	00 00 00 00 00	 mov	 DWORD PTR [edi+596], 0
$LN26@OnMagicSki:
; File C:\IAGOS\server\v18\Source\Source\_Common\MoverActEvent.cpp

; 713  : 		if( pAddSkillProp->dwCooldown != 0xFFFFFFFF )

  00443	8b 45 c4	 mov	 eax, DWORD PTR _pAddSkillProp$[ebp]
  00446	83 78 5c ff	 cmp	 DWORD PTR [eax+92], -1
  0044a	74 0d		 je	 SHORT $LN28@OnMagicSki

; 714  : 			SetCoolTime( pAddSkillProp, "OnMagicSkill" );

  0044c	68 00 00 00 00	 push	 OFFSET ??_C@_0N@GPEHOKLF@OnMagicSkill@
  00451	50		 push	 eax
  00452	8b ce		 mov	 ecx, esi
  00454	e8 00 00 00 00	 call	 ?SetCoolTime@CMover@@QAEXPAUAddSkillProp@@PBD@Z ; CMover::SetCoolTime
$LN28@OnMagicSki:

; 715  : #else	// __SKILL_0706
; 716  : 		if( pSkillProp->dwSkillReady != 0xffffffff )	// 쿨타임이 있는 스킬의 경우
; 717  : 			SetCoolTime( pSkillProp, "OnMagicSkill" );
; 718  : #endif	// __SKILL_0706
; 719  : 	} // bSuccess
; 720  : 
; 721  : #if defined(__CLIENT)
; 722  : 	CModelObject* pModel = (CModelObject*)m_pModel;
; 723  : 	if( pModel )
; 724  : 	{
; 725  : 		pModel->m_SparkInfo.m_bUsed  = TRUE;
; 726  : 		pModel->m_SparkInfo.m_v3Color.x = 2.0f;
; 727  : 		pModel->m_SparkInfo.m_v3Color.y = 2.0f;
; 728  : 		pModel->m_SparkInfo.m_v3Color.z = 2.0f;
; 729  : 		pModel->m_SparkInfo.m_nCnt = 0;
; 730  : 		pModel->m_SparkInfo.m_fLerp= 1.0f;
; 731  : 		
; 732  : 		AngleToVectorXZ( &pModel->m_SparkInfo.m_v3SparkDir, GetAngle(), -1.0f );
; 733  : 	}
; 734  : #endif //defined(__CLIENT)
; 735  : 
; 736  : 	return TRUE;
; 737  : } // OnMagicSkill

  00459	8b 4d fc	 mov	 ecx, DWORD PTR __$ArrayPad$[ebp]
  0045c	b8 01 00 00 00	 mov	 eax, 1
  00461	5f		 pop	 edi
  00462	33 cd		 xor	 ecx, ebp
  00464	5e		 pop	 esi
  00465	e8 00 00 00 00	 call	 @__security_check_cookie@4
  0046a	8b e5		 mov	 esp, ebp
  0046c	5d		 pop	 ebp
  0046d	c2 08 00	 ret	 8
?OnMagicSkill@CMover@@QAEHHH@Z ENDP			; CMover::OnMagicSkill
_TEXT	ENDS
; Function compile flags: /Ogtp
; File C:\IAGOS\server\v18\Source\Source\_Common\MoverActEvent.cpp
; File C:\IAGOS\server\v18\Source\Source\_Common\Obj.h
; File C:\IAGOS\server\v18\Source\Source\_Common\MoverActEvent.cpp
;	COMDAT ?OnMeleeSkill@CMover@@QAEHHH@Z
_TEXT	SEGMENT
_pSkillProp$ = -8					; size = 4
_pAddSkillProp$ = -4					; size = 4
_nType$ = 8						; size = 4
_nCount$ = 12						; size = 4
?OnMeleeSkill@CMover@@QAEHHH@Z PROC			; CMover::OnMeleeSkill, COMDAT
; _this$ = ecx

; 73   : {

  00000	55		 push	 ebp
  00001	8b ec		 mov	 ebp, esp
  00003	83 ec 08	 sub	 esp, 8
  00006	53		 push	 ebx
  00007	56		 push	 esi
  00008	57		 push	 edi
  00009	8b f9		 mov	 edi, ecx

; 74   : 	if( m_oaAct != OBJACT_USESKILL )	

  0000b	83 bf ac 11 00
	00 05		 cmp	 DWORD PTR [edi+4524], 5
  00012	0f 85 0c 01 00
	00		 jne	 $LN28@OnMeleeSki

; 75   : 		return FALSE;	// 스킬사용후 타점이 되기전에 다른 명령으로 바뀐경우. 이런상황이 와선 안된다.
; 76   : 	int		nSkill = GetActParam( 0 );
; 77   : 	OBJID	idTarget = GetActParam( 1 );
; 78   : 	DWORD	dwLevel	= GetActParam( 3 );
; 79   : #if __VER >= 8 // __S8_PK
; 80   : 	BOOL	bControl = GetActParam( 4 );
; 81   : #endif // __VER >= 8 // __S8_PK
; 82   : 
; 83   : 	ItemProp* pSkillProp;
; 84   : 	AddSkillProp* pAddSkillProp;
; 85   : 
; 86   : 	// 스킬프로퍼티 가져옴.
; 87   : 	GetSkillProp( &pSkillProp, &pAddSkillProp, nSkill, dwLevel, "OnMeleeSkill" );

  00018	8b 07		 mov	 eax, DWORD PTR [edi]
  0001a	8d 4d fc	 lea	 ecx, DWORD PTR _pAddSkillProp$[ebp]
  0001d	8b b7 b4 11 00
	00		 mov	 esi, DWORD PTR [edi+4532]
  00023	8b 9f c0 11 00
	00		 mov	 ebx, DWORD PTR [edi+4544]
  00029	68 00 00 00 00	 push	 OFFSET ??_C@_0N@NAIGPEGH@OnMeleeSkill@
  0002e	ff b7 bc 11 00
	00		 push	 DWORD PTR [edi+4540]
  00034	ff b7 b0 11 00
	00		 push	 DWORD PTR [edi+4528]
  0003a	51		 push	 ecx
  0003b	8d 4d f8	 lea	 ecx, DWORD PTR _pSkillProp$[ebp]
  0003e	51		 push	 ecx
  0003f	8b cf		 mov	 ecx, edi
  00041	ff 50 30	 call	 DWORD PTR [eax+48]

; 88   : 
; 89   : 	// .타겟에게 스킬효과(데미지같은..)를 준다.
; 90   : 	CMover* pFocusObj = prj.GetMover( idTarget );		// 타겟무버포인터를 얻어냄.

  00044	56		 push	 esi
  00045	b9 00 00 00 00	 mov	 ecx, OFFSET ?prj@@3VCProject@@A ; prj
  0004a	e8 00 00 00 00	 call	 ?GetMover@CProject@@QAEPAVCMover@@K@Z ; CProject::GetMover
  0004f	8b f0		 mov	 esi, eax
; File C:\IAGOS\server\v18\Source\Source\_Common\Obj.h

; 327  : 	return pObj && ( pObj->IsDelete() == FALSE ); 

  00051	85 f6		 test	 esi, esi
  00053	0f 84 cb 00 00
	00		 je	 $LN28@OnMeleeSki

; 180  : 	BOOL			IsDelete()	{ return (m_dwFlags & OBJ_FLAG_DELETE);  }

  00059	f6 46 04 01	 test	 BYTE PTR [esi+4], 1

; 327  : 	return pObj && ( pObj->IsDelete() == FALSE ); 

  0005d	0f 85 c1 00 00
	00		 jne	 $LN28@OnMeleeSki
; File C:\IAGOS\server\v18\Source\Source\_Common\MoverActEvent.cpp

; 118  : 	if( pSkillProp->dwExeTarget == EXT_MAGICATKSHOT || pSkillProp->dwExeTarget == EXT_MAGICSHOT	)	

  00063	8b 4d f8	 mov	 ecx, DWORD PTR _pSkillProp$[ebp]
  00066	8b 81 c4 01 00
	00		 mov	 eax, DWORD PTR [ecx+452]
  0006c	83 f8 0e	 cmp	 eax, 14			; 0000000eH
  0006f	74 1a		 je	 SHORT $LN6@OnMeleeSki
  00071	83 f8 03	 cmp	 eax, 3
  00074	74 15		 je	 SHORT $LN6@OnMeleeSki

; 135  : 	}
; 136  : 	else
; 137  : 	{
; 138  : 		// 적용범위 처리. 내부에서 ApplySkill()을 호출.
; 139  : #if __VER >= 8 // __S8_PK
; 140  : 		nDamage = DoApplySkill( pFocusObj, pSkillProp, pAddSkillProp, false, 0, FALSE, bControl );

  00076	53		 push	 ebx
  00077	6a 00		 push	 0
  00079	6a 00		 push	 0
  0007b	6a 00		 push	 0
  0007d	ff 75 fc	 push	 DWORD PTR _pAddSkillProp$[ebp]
  00080	51		 push	 ecx
  00081	56		 push	 esi
  00082	8b cf		 mov	 ecx, edi
  00084	e8 00 00 00 00	 call	 ?DoApplySkill@CCtrl@@QAEHPAV1@PAUItemProp@@PAUAddSkillProp@@_NHHH@Z ; CCtrl::DoApplySkill
  00089	eb 6b		 jmp	 SHORT $LN5@OnMeleeSki
$LN6@OnMeleeSki:

; 119  : 	{
; 120  : #ifdef __WORLDSERVER
; 121  : 		int nMaxDmgCnt	= 1;
; 122  : 		if( pSkillProp->tmContinuousPain != NULL_ID )
; 123  : 			nMaxDmgCnt	= ( pAddSkillProp->dwSkillTime / pAddSkillProp->dwPainTime ) + 1;
; 124  : 		float fDmgPower = 0;
; 125  : 		if( pSkillProp->dwDmgShift != NULL_ID )

  0008b	8b 81 34 01 00
	00		 mov	 eax, DWORD PTR [ecx+308]
  00091	0f 57 c0	 xorps	 xmm0, xmm0
  00094	83 f8 ff	 cmp	 eax, -1
  00097	74 0f		 je	 SHORT $LN8@OnMeleeSki

; 126  : 			fDmgPower	= (int)pSkillProp->dwDmgShift * 0.2f;

  00099	66 0f 6e c0	 movd	 xmm0, eax
  0009d	0f 5b c0	 cvtdq2ps xmm0, xmm0
  000a0	f3 0f 59 05 00
	00 00 00	 mulss	 xmm0, DWORD PTR __real@3e4ccccd
$LN8@OnMeleeSki:

; 127  : //		for( int nDmgCnt = 0; nDmgCnt < nMaxDmgCnt; nDmgCnt++ )
; 128  : #if __VER >= 8 // __S8_PK
; 129  : 			OnAttackSFX( pFocusObj->GetId(), pAddSkillProp->dwSkillLvl, pSkillProp->dwID, 0, GetAngle(), fDmgPower, ( pSkillProp->dwSkillType == KT_SKILL? AF_MELEESKILL: AF_MAGICSKILL ), bControl );

  000a8	83 b9 e8 01 00
	00 02		 cmp	 DWORD PTR [ecx+488], 2
  000af	ba 10 00 00 00	 mov	 edx, 16			; 00000010H
  000b4	53		 push	 ebx
  000b5	b8 20 00 00 00	 mov	 eax, 32			; 00000020H
  000ba	0f 44 c2	 cmove	 eax, edx
  000bd	50		 push	 eax
  000be	8b 45 fc	 mov	 eax, DWORD PTR _pAddSkillProp$[ebp]
  000c1	83 ec 08	 sub	 esp, 8
  000c4	f3 0f 11 44 24
	04		 movss	 DWORD PTR [esp+4], xmm0
  000ca	f3 0f 10 47 18	 movss	 xmm0, DWORD PTR [edi+24]
  000cf	f3 0f 11 04 24	 movss	 DWORD PTR [esp], xmm0
  000d4	6a 00		 push	 0
  000d6	ff 31		 push	 DWORD PTR [ecx]
  000d8	8b cf		 mov	 ecx, edi
  000da	ff 70 08	 push	 DWORD PTR [eax+8]
  000dd	ff b6 bc 01 00
	00		 push	 DWORD PTR [esi+444]
  000e3	e8 00 00 00 00	 call	 ?OnAttackSFX@CMover@@QAEXKHKHMMKH@Z ; CMover::OnAttackSFX

; 130  : #else // __VER >= 8 // __S8_PK
; 131  : 			OnAttackSFX( pFocusObj->GetId(), pAddSkillProp->dwSkillLvl, pSkillProp->dwID, 0, GetAngle(), fDmgPower, ( pSkillProp->dwSkillType == KT_SKILL? AF_MELEESKILL: AF_MAGICSKILL ) );
; 132  : #endif // __VER >= 8 // __S8_PK
; 133  : #endif	// __WORLDSERVER
; 134  : 		nDamage = ShootSkill( pFocusObj, pSkillProp, pAddSkillProp );		// 서버에선 이부분은 실행안된다.

  000e8	ff 75 fc	 push	 DWORD PTR _pAddSkillProp$[ebp]
  000eb	8b cf		 mov	 ecx, edi
  000ed	ff 75 f8	 push	 DWORD PTR _pSkillProp$[ebp]
  000f0	56		 push	 esi
  000f1	e8 00 00 00 00	 call	 ?ShootSkill@CCtrl@@QAEHPAV1@PAUItemProp@@PAUAddSkillProp@@@Z ; CCtrl::ShootSkill
$LN5@OnMeleeSki:

; 141  : #else // __VER >= 8 // __S8_PK
; 142  : 		nDamage = DoApplySkill( pFocusObj, pSkillProp, pAddSkillProp );
; 143  : #endif // __VER >= 8 // __S8_PK
; 144  : 	}
; 145  : 	TRACE( "OnMeleeSkill%s, ", pSkillProp->szName );
; 146  : 
; 147  : 	if( nDamage && nCount == 0 )		// 연속타점일경우 첫번째 타점에만 적용

  000f6	85 c0		 test	 eax, eax
  000f8	74 1c		 je	 SHORT $LN10@OnMeleeSki
  000fa	83 7d 0c 00	 cmp	 DWORD PTR _nCount$[ebp], 0
  000fe	75 16		 jne	 SHORT $LN10@OnMeleeSki

; 148  : 	{
; 149  : 		// 쿨타임 시간 적용 - 클라 서버 동시에 돌아간다
; 150  : #ifdef __CLIENT
; 151  : 		if( IsActiveMover() )
; 152  : #endif
; 153  : 		{
; 154  : #if __VER >= 9	// __SKILL_0706
; 155  : 			if( pAddSkillProp->dwCooldown != 0xFFFFFFFF )	// 쿨타임이 있는 스킬의 경우

  00100	8b 45 fc	 mov	 eax, DWORD PTR _pAddSkillProp$[ebp]
  00103	83 78 5c ff	 cmp	 DWORD PTR [eax+92], -1
  00107	74 0d		 je	 SHORT $LN10@OnMeleeSki

; 156  : 				SetCoolTime( pAddSkillProp, "OnMeleeSkill" );

  00109	68 00 00 00 00	 push	 OFFSET ??_C@_0N@NAIGPEGH@OnMeleeSkill@
  0010e	50		 push	 eax
  0010f	8b cf		 mov	 ecx, edi
  00111	e8 00 00 00 00	 call	 ?SetCoolTime@CMover@@QAEXPAUAddSkillProp@@PBD@Z ; CMover::SetCoolTime
$LN10@OnMeleeSki:

; 157  : #else	// __SKILL_0706
; 158  : 			if( pSkillProp->dwSkillReady != 0xffffffff )	// 쿨타임이 있는 스킬의 경우
; 159  : 				SetCoolTime( pSkillProp, "OnMeleeSkill" );
; 160  : #endif	// __SKILL_0706
; 161  : 		}
; 162  : 	}
; 163  : 	return TRUE;
; 164  : } 

  00116	5f		 pop	 edi
  00117	5e		 pop	 esi
  00118	b8 01 00 00 00	 mov	 eax, 1
  0011d	5b		 pop	 ebx
  0011e	8b e5		 mov	 esp, ebp
  00120	5d		 pop	 ebp
  00121	c2 08 00	 ret	 8
$LN28@OnMeleeSki:
  00124	5f		 pop	 edi
  00125	5e		 pop	 esi
  00126	33 c0		 xor	 eax, eax
  00128	5b		 pop	 ebx
  00129	8b e5		 mov	 esp, ebp
  0012b	5d		 pop	 ebp
  0012c	c2 08 00	 ret	 8
?OnMeleeSkill@CMover@@QAEHHH@Z ENDP			; CMover::OnMeleeSkill
_TEXT	ENDS
; Function compile flags: /Ogtp
; File C:\IAGOS\server\v18\Source\Source\_Common\MoverActEvent.cpp
;	COMDAT ?SetCoolTime@CMover@@QAEXPAUAddSkillProp@@PBD@Z
_TEXT	SEGMENT
_pAddSkillProp$ = 8					; size = 4
_szCall$ = 12						; size = 4
?SetCoolTime@CMover@@QAEXPAUAddSkillProp@@PBD@Z PROC	; CMover::SetCoolTime, COMDAT
; _this$ = ecx

; 523  : {

  00000	55		 push	 ebp
  00001	8b ec		 mov	 ebp, esp
  00003	53		 push	 ebx
  00004	56		 push	 esi

; 524  : 	int nIdx	= GetSkillIdx( pAddSkillProp->dwName );		// 스킬리스트 인덱스를 찾음.

  00005	8b 75 08	 mov	 esi, DWORD PTR _pAddSkillProp$[ebp]
  00008	57		 push	 edi
  00009	8b f9		 mov	 edi, ecx
  0000b	ff 76 04	 push	 DWORD PTR [esi+4]
  0000e	e8 00 00 00 00	 call	 ?GetSkillIdx@CMover@@QAEHK@Z ; CMover::GetSkillIdx
  00013	8b d8		 mov	 ebx, eax

; 525  : 	
; 526  : 	if( nIdx < 0 || nIdx >= MAX_SKILL_JOB )

  00015	83 fb 32	 cmp	 ebx, 50			; 00000032H
  00018	77 19		 ja	 SHORT $LN4@SetCoolTim

; 528  : 	else
; 529  : 		m_tmReUseDelay[ nIdx ] = pAddSkillProp->dwCooldown + timeGetTime();		// 1/1000단위

  0001a	8b 76 5c	 mov	 esi, DWORD PTR [esi+92]
  0001d	ff 15 00 00 00
	00		 call	 DWORD PTR __imp__timeGetTime@0
  00023	03 c6		 add	 eax, esi
  00025	89 84 9f fc 04
	00 00		 mov	 DWORD PTR [edi+ebx*4+1276], eax
  0002c	5f		 pop	 edi

; 530  : }

  0002d	5e		 pop	 esi
  0002e	5b		 pop	 ebx
  0002f	5d		 pop	 ebp
  00030	c2 08 00	 ret	 8
$LN4@SetCoolTim:

; 527  : 		Error( "szCall SetCoolTime : %d %d스킬을 찾을 수 없음 %s", nIdx, pAddSkillProp->dwName, GetName() );

  00033	8b 76 04	 mov	 esi, DWORD PTR [esi+4]
  00036	8b cf		 mov	 ecx, edi
  00038	6a 00		 push	 0
  0003a	e8 00 00 00 00	 call	 ?GetName@CMover@@QAEPBDH@Z ; CMover::GetName
  0003f	50		 push	 eax
  00040	56		 push	 esi
  00041	53		 push	 ebx
  00042	68 00 00 00 00	 push	 OFFSET ??_C@_0DB@HBBPMINL@szCall?5SetCoolTime?5?3?5?$CFd?5?$CFd?$LN?$LK?E?$LD?$MA@
  00047	e8 00 00 00 00	 call	 ?Error@@YAPBDPBDZZ	; Error
  0004c	83 c4 10	 add	 esp, 16			; 00000010H
  0004f	5f		 pop	 edi

; 530  : }

  00050	5e		 pop	 esi
  00051	5b		 pop	 ebx
  00052	5d		 pop	 ebp
  00053	c2 08 00	 ret	 8
?SetCoolTime@CMover@@QAEXPAUAddSkillProp@@PBD@Z ENDP	; CMover::SetCoolTime
_TEXT	ENDS
; Function compile flags: /Ogtp
; File C:\IAGOS\server\v18\Source\Source\_Common\MoverActEvent.cpp
; File C:\IAGOS\server\v18\Source\Source\_AIInterface\ActionMover.h
; File C:\IAGOS\server\v18\Source\Source\_Common\MoverActEvent.cpp
; File C:\IAGOS\server\v18\Source\Source\_AIInterface\ActionMover.h
; File C:\IAGOS\server\v18\Source\Source\_Common\MoverActEvent.cpp
; File C:\IAGOS\server\v18\Source\Source\_Common\Project.h
; File C:\IAGOS\server\v18\Source\Source\_Common\data.h
; File C:\IAGOS\server\v18\Source\Source\_Common\MoverActEvent.cpp
; File C:\IAGOS\server\v18\Source\Source\_Common\Project.h
; File C:\IAGOS\server\v18\Source\Source\_Common\MoverActEvent.cpp
;	COMDAT ?OnDamage@CMover@@QAEHHKPAV1@PBUD3DXVECTOR3@@K@Z
_TEXT	SEGMENT
_nItemID$ = 8						; size = 4
_dwState$ = 12						; size = 4
_pHitObj$ = 16						; size = 4
_nDamage$1$ = 16					; size = 4
_pvDamagePos$ = 20					; size = 4
_dwAtkFlag$ = 24					; size = 4
?OnDamage@CMover@@QAEHHKPAV1@PBUD3DXVECTOR3@@K@Z PROC	; CMover::OnDamage, COMDAT
; _this$ = ecx

; 1575 : {

  00000	55		 push	 ebp
  00001	8b ec		 mov	 ebp, esp
  00003	53		 push	 ebx
  00004	56		 push	 esi
  00005	57		 push	 edi
  00006	8b f9		 mov	 edi, ecx

; 1576 : 	int nParam = 0x01;		//sun

  00008	bb 01 00 00 00	 mov	 ebx, 1

; 1577 : 
; 1578 : 	if( IsPlayer() && IsDualWeapon() )		// 쌍칼모드냐?

  0000d	83 bf 30 02 00
	00 00		 cmp	 DWORD PTR [edi+560], 0
  00014	74 7b		 je	 SHORT $LN30@OnDamage
  00016	e8 00 00 00 00	 call	 ?IsDualWeapon@CMover@@QAEHXZ ; CMover::IsDualWeapon
  0001b	85 c0		 test	 eax, eax
  0001d	74 3c		 je	 SHORT $LN2@OnDamage

; 1579 : 	{
; 1580 : 		if( m_pActMover->m_dwAtkFlags & AF_GENERIC )	// 평타면

  0001f	8b 87 38 02 00
	00		 mov	 eax, DWORD PTR [edi+568]
  00025	84 98 94 00 00
	00		 test	 BYTE PTR [eax+148], bl
  0002b	74 2e		 je	 SHORT $LN2@OnDamage

; 1581 : 		{
; 1582 : 			switch( dwState )

  0002d	8b 45 0c	 mov	 eax, DWORD PTR _dwState$[ebp]
  00030	3d 00 00 03 00	 cmp	 eax, 196608		; 00030000H
  00035	77 17		 ja	 SHORT $LN24@OnDamage
  00037	74 22		 je	 SHORT $LN2@OnDamage
  00039	3d 00 00 01 00	 cmp	 eax, 65536		; 00010000H
  0003e	74 1b		 je	 SHORT $LN2@OnDamage
  00040	3d 00 00 02 00	 cmp	 eax, 131072		; 00020000H
  00045	75 14		 jne	 SHORT $LN2@OnDamage

; 1583 : 			{
; 1584 : 			case OBJSTA_ATK1:	nParam |= 0x01;		break; // 오른손
; 1585 : 			case OBJSTA_ATK2:	nParam |= 0x02;		break; // 왼손

  00047	bb 03 00 00 00	 mov	 ebx, 3
  0004c	eb 0d		 jmp	 SHORT $LN2@OnDamage
$LN24@OnDamage:

; 1581 : 		{
; 1582 : 			switch( dwState )

  0004e	3d 00 00 04 00	 cmp	 eax, 262144		; 00040000H
  00053	b9 03 00 00 00	 mov	 ecx, 3
  00058	0f 44 d9	 cmove	 ebx, ecx
$LN2@OnDamage:

; 1586 : 			case OBJSTA_ATK3:	nParam |= 0x01;		break; // 오른손
; 1587 : 			case OBJSTA_ATK4:	nParam |= 0x03;		break; // 양손
; 1588 : 			}
; 1589 : 		}
; 1590 : 	}
; 1591 : 
; 1592 : 
; 1593 : #if defined(__CLIENT)
; 1594 : 	if( IsValidObj(pHitObj) )
; 1595 : 	{
; 1596 : 		CModelObject* pHitModel = (CModelObject*)pHitObj->m_pModel;
; 1597 : 		if( pHitModel )
; 1598 : 		{
; 1599 : 			D3DXVECTOR3 vDir;
; 1600 : 			pHitModel->m_SparkInfo.m_bUsed = TRUE;
; 1601 : 			pHitModel->m_SparkInfo.m_v3Color.x = 2.0f;
; 1602 : 			pHitModel->m_SparkInfo.m_v3Color.y = 2.0f;
; 1603 : 			pHitModel->m_SparkInfo.m_v3Color.z = 2.0f;
; 1604 : 			pHitModel->m_SparkInfo.m_nCnt = 0;
; 1605 : 			pHitModel->m_SparkInfo.m_fLerp= 1.0f;
; 1606 : 
; 1607 : 			vDir = pHitObj->GetPos() - GetPos();
; 1608 : 			D3DXVec3Normalize( &pHitModel->m_SparkInfo.m_v3SparkDir, &vDir );
; 1609 : 		}
; 1610 : 	}
; 1611 : #endif //defined(__CLIENT) 
; 1612 : 	
; 1613 : 	int	nDamage = 0;
; 1614 : 	if( IsPlayer() )

  0005b	83 bf 30 02 00
	00 00		 cmp	 DWORD PTR [edi+560], 0
  00062	74 2d		 je	 SHORT $LN30@OnDamage

; 1617 : 		nDamage = pHitObj->m_pActMover->SendDamage( m_pActMover->m_dwAtkFlags, GetId(), nParam );

  00064	8b 75 10	 mov	 esi, DWORD PTR _pHitObj$[ebp]
  00067	8b 87 38 02 00
	00		 mov	 eax, DWORD PTR [edi+568]
; File C:\IAGOS\server\v18\Source\Source\_AIInterface\ActionMover.h

; 134  : 	int				SendDamage( DWORD dwAtkFlags, OBJID idSender, int nParam = 0, BOOL bTarget = TRUE, int nReflect = 0 )	{	return SendActMsg( OBJMSG_DAMAGE, dwAtkFlags, idSender, nParam, bTarget, nReflect );	}

  0006d	6a 00		 push	 0
  0006f	6a 01		 push	 1
; File C:\IAGOS\server\v18\Source\Source\_Common\MoverActEvent.cpp

; 1617 : 		nDamage = pHitObj->m_pActMover->SendDamage( m_pActMover->m_dwAtkFlags, GetId(), nParam );

  00071	8b 8e 38 02 00
	00		 mov	 ecx, DWORD PTR [esi+568]
  00077	8b 90 94 00 00
	00		 mov	 edx, DWORD PTR [eax+148]
; File C:\IAGOS\server\v18\Source\Source\_AIInterface\ActionMover.h

; 134  : 	int				SendDamage( DWORD dwAtkFlags, OBJID idSender, int nParam = 0, BOOL bTarget = TRUE, int nReflect = 0 )	{	return SendActMsg( OBJMSG_DAMAGE, dwAtkFlags, idSender, nParam, bTarget, nReflect );	}

  0007d	53		 push	 ebx
  0007e	ff b7 bc 01 00
	00		 push	 DWORD PTR [edi+444]
  00084	8b 01		 mov	 eax, DWORD PTR [ecx]
  00086	52		 push	 edx
  00087	6a 29		 push	 41			; 00000029H
  00089	ff 50 04	 call	 DWORD PTR [eax+4]
; File C:\IAGOS\server\v18\Source\Source\_Common\MoverActEvent.cpp

; 1618 : 	}

  0008c	e9 03 01 00 00	 jmp	 $LN70@OnDamage
$LN30@OnDamage:
; File C:\IAGOS\server\v18\Source\Source\_Common\Project.h

; 1389 : 	VERIFY_RANGE_ASSERT( nIndex, 0, m_aPropItem.GetSize(), "GetItemProp range_error", NULL );

  00091	8b 4d 08	 mov	 ecx, DWORD PTR _nItemID$[ebp]
  00094	a1 40 02 00 00	 mov	 eax, DWORD PTR ?prj@@3VCProject@@A+576
  00099	85 c9		 test	 ecx, ecx
  0009b	0f 88 b1 00 00
	00		 js	 $LN32@OnDamage
  000a1	3b c8		 cmp	 ecx, eax
  000a3	0f 8d a9 00 00
	00		 jge	 $LN32@OnDamage
; File C:\IAGOS\server\v18\Source\Source\_Common\data.h

; 270  : 	if( dwIndex >= (DWORD)m_nMaxIndex )

  000a9	72 04		 jb	 SHORT $LN37@OnDamage

; 271  : 		return NULL;

  000ab	33 c0		 xor	 eax, eax
  000ad	eb 08		 jmp	 SHORT $LN36@OnDamage
$LN37@OnDamage:

; 272  : 	return (T*) m_apOffset[ dwIndex ];

  000af	a1 30 02 00 00	 mov	 eax, DWORD PTR ?prj@@3VCProject@@A+560
  000b4	8b 04 88	 mov	 eax, DWORD PTR [eax+ecx*4]
$LN36@OnDamage:
; File C:\IAGOS\server\v18\Source\Source\_Common\MoverActEvent.cpp

; 1623 : 		if( pItemProp )

  000b7	85 c0		 test	 eax, eax
  000b9	0f 84 a9 00 00
	00		 je	 $LN12@OnDamage

; 1624 : 		{
; 1625 : 			if( pItemProp->dwSpellRegion == SRO_AROUND )

  000bf	83 b8 cc 01 00
	00 07		 cmp	 DWORD PTR [eax+460], 7
  000c6	0f 85 9c 00 00
	00		 jne	 $LN12@OnDamage

; 1626 : 			{
; 1627 : 				int nType = OBJTYPE_PLAYER;		// 플레이어들만 데미지.

  000cc	8b 80 9c 01 00
	00		 mov	 eax, DWORD PTR [eax+412]
  000d2	66 0f 6e c0	 movd	 xmm0, eax
  000d6	f3 0f e6 c0	 cvtdq2pd xmm0, xmm0
  000da	c1 e8 1f	 shr	 eax, 31			; 0000001fH
  000dd	f2 0f 58 04 c5
	00 00 00 00	 addsd	 xmm0, QWORD PTR __xmm@41f00000000000000000000000000000[eax*8]

; 1628 : 				if( pHitObj )

  000e6	8b 45 10	 mov	 eax, DWORD PTR _pHitObj$[ebp]
  000e9	66 0f 5a c8	 cvtpd2ps xmm1, xmm0
  000ed	85 c0		 test	 eax, eax
  000ef	74 36		 je	 SHORT $LN16@OnDamage

; 1629 : 					pHitObj->SendDamageAround( dwAtkFlag, this, nType, nItemID, (float)pItemProp->_dwSkillRange, 1.0f, 1.0f ); 

  000f1	83 ec 0c	 sub	 esp, 12			; 0000000cH
  000f4	c7 44 24 08 00
	00 80 3f	 mov	 DWORD PTR [esp+8], 1065353216 ; 3f800000H
  000fc	c7 44 24 04 00
	00 80 3f	 mov	 DWORD PTR [esp+4], 1065353216 ; 3f800000H
  00104	f3 0f 11 0c 24	 movss	 DWORD PTR [esp], xmm1
  00109	51		 push	 ecx
  0010a	6a 01		 push	 1
  0010c	57		 push	 edi
  0010d	ff 75 18	 push	 DWORD PTR _dwAtkFlag$[ebp]
  00110	8b c8		 mov	 ecx, eax
  00112	e8 00 00 00 00	 call	 ?SendDamageAround@CMover@@QAEXHPAV1@HHMMM@Z ; CMover::SendDamageAround
$LN46@OnDamage:

; 1654 : 			}
; 1655 : 		}
; 1656 : 	}
; 1657 :  #endif
; 1658 : 	return nDamage > 0;

  00117	33 c9		 xor	 ecx, ecx
$LN22@OnDamage:
  00119	33 c0		 xor	 eax, eax
  0011b	85 c9		 test	 ecx, ecx
  0011d	5f		 pop	 edi
  0011e	5e		 pop	 esi
  0011f	0f 9f c0	 setg	 al
  00122	5b		 pop	 ebx

; 1659 : }

  00123	5d		 pop	 ebp
  00124	c2 14 00	 ret	 20			; 00000014H
$LN16@OnDamage:

; 1630 : 				else
; 1631 : 					GetWorld()->SendDamageAround( pvDamagePos, dwAtkFlag, this, nType, nItemID, (float)pItemProp->_dwSkillRange ); 

  00127	51		 push	 ecx
  00128	f3 0f 11 0c 24	 movss	 DWORD PTR [esp], xmm1
  0012d	51		 push	 ecx
  0012e	8b 8f 6c 01 00
	00		 mov	 ecx, DWORD PTR [edi+364]
  00134	6a 01		 push	 1
  00136	57		 push	 edi
  00137	ff 75 18	 push	 DWORD PTR _dwAtkFlag$[ebp]
  0013a	ff 75 14	 push	 DWORD PTR _pvDamagePos$[ebp]
  0013d	e8 00 00 00 00	 call	 ?SendDamageAround@CWorld@@QAEXPBUD3DXVECTOR3@@HPAVCMover@@HHM@Z ; CWorld::SendDamageAround

; 1654 : 			}
; 1655 : 		}
; 1656 : 	}
; 1657 :  #endif
; 1658 : 	return nDamage > 0;

  00142	33 c9		 xor	 ecx, ecx
  00144	33 c0		 xor	 eax, eax
  00146	5f		 pop	 edi
  00147	85 c9		 test	 ecx, ecx
  00149	5e		 pop	 esi
  0014a	0f 9f c0	 setg	 al
  0014d	5b		 pop	 ebx

; 1659 : }

  0014e	5d		 pop	 ebp
  0014f	c2 14 00	 ret	 20			; 00000014H
$LN32@OnDamage:
; File C:\IAGOS\server\v18\Source\Source\_Common\Project.h

; 579  : 	LPCTSTR szErr = Error( _T( "%s min:%d, max:%d, index:%d" ), szMsg, nMin, nMax, nIndex ); 

  00152	51		 push	 ecx
  00153	50		 push	 eax
  00154	6a 00		 push	 0
  00156	68 00 00 00 00	 push	 OFFSET ??_C@_0BI@BEIFNGEL@GetItemProp?5range_error@
  0015b	68 00 00 00 00	 push	 OFFSET ??_C@_0BM@HMFGHCP@?$CFs?5min?3?$CFd?0?5max?3?$CFd?0?5index?3?$CFd@
  00160	e8 00 00 00 00	 call	 ?Error@@YAPBDPBDZZ	; Error
  00165	83 c4 14	 add	 esp, 20			; 00000014H
$LN12@OnDamage:
; File C:\IAGOS\server\v18\Source\Source\_Common\MoverActEvent.cpp

; 1646 : 	if( nDamage > 0 )		// THIS가 공격했는데 데미지 먹이는데 성공했다

  00168	8b 75 10	 mov	 esi, DWORD PTR _pHitObj$[ebp]
  0016b	85 f6		 test	 esi, esi
  0016d	74 a8		 je	 SHORT $LN46@OnDamage
  0016f	8b 87 38 02 00
	00		 mov	 eax, DWORD PTR [edi+568]
  00175	8b 8e 38 02 00
	00		 mov	 ecx, DWORD PTR [esi+568]
  0017b	6a 00		 push	 0
  0017d	6a 01		 push	 1
  0017f	6a 01		 push	 1
  00181	ff b7 bc 01 00
	00		 push	 DWORD PTR [edi+444]
  00187	8b 11		 mov	 edx, DWORD PTR [ecx]
  00189	ff b0 94 00 00
	00		 push	 DWORD PTR [eax+148]
  0018f	6a 29		 push	 41			; 00000029H
  00191	ff 52 04	 call	 DWORD PTR [edx+4]
$LN70@OnDamage:
  00194	89 45 10	 mov	 DWORD PTR _nDamage$1$[ebp], eax
  00197	8b c8		 mov	 ecx, eax
  00199	85 c0		 test	 eax, eax
  0019b	0f 8e 78 ff ff
	ff		 jle	 $LN22@OnDamage

; 1647 : 	{
; 1648 : 		if( pHitObj->m_pActMover->GetState() & OBJSTA_ATK_MELEESKILL )	// 맞는놈이 스킬 모션중이었다.

  001a1	8b 86 38 02 00
	00		 mov	 eax, DWORD PTR [esi+568]
  001a7	f7 40 04 00 00
	09 00		 test	 DWORD PTR [eax+4], 589824 ; 00090000H
  001ae	0f 84 65 ff ff
	ff		 je	 $LN22@OnDamage

; 1649 : 		{
; 1650 : 			DWORD dwSkill = pHitObj->GetActParam(0);		// 현재 사용하고 있는 스킬. dwSkill
; 1651 : 			if( dwSkill == SI_MER_ONE_REFLEXHIT )			// 리플렉히트 스킬을 쓰고 있는 중에 맞았다.

  001b4	83 be b0 11 00
	00 0e		 cmp	 DWORD PTR [esi+4528], 14 ; 0000000eH
  001bb	0f 85 58 ff ff
	ff		 jne	 $LN22@OnDamage

; 1652 : 			{
; 1653 : 				pHitObj->m_nReflexDmg += nDamage;			// 리플렉데미지는 쌓임.

  001c1	01 8e ac 06 00
	00		 add	 DWORD PTR [esi+1708], ecx

; 1654 : 			}
; 1655 : 		}
; 1656 : 	}
; 1657 :  #endif
; 1658 : 	return nDamage > 0;

  001c7	33 c0		 xor	 eax, eax
  001c9	5f		 pop	 edi
  001ca	85 c9		 test	 ecx, ecx
  001cc	5e		 pop	 esi
  001cd	0f 9f c0	 setg	 al
  001d0	5b		 pop	 ebx

; 1659 : }

  001d1	5d		 pop	 ebp
  001d2	c2 14 00	 ret	 20			; 00000014H
?OnDamage@CMover@@QAEHHKPAV1@PBUD3DXVECTOR3@@K@Z ENDP	; CMover::OnDamage
_TEXT	ENDS
; Function compile flags: /Ogtp
; File C:\IAGOS\server\v18\Source\Source\_Common\MoverActEvent.cpp
;	COMDAT ?RemoveInvisible@CMover@@QAEXXZ
_TEXT	SEGMENT
?RemoveInvisible@CMover@@QAEXXZ PROC			; CMover::RemoveInvisible, COMDAT
; _this$ = ecx

; 2248 : {

  00000	56		 push	 esi

; 2249 : #ifdef __WORLDSERVER
; 2250 : 
; 2251 : 	if( GetAdjParam( DST_CHRSTATE ) & CHS_INVISIBILITY )		// 투명화 상태다.

  00001	6a 40		 push	 64			; 00000040H
  00003	8b f1		 mov	 esi, ecx
  00005	e8 00 00 00 00	 call	 ?GetAdjParam@CMover@@QAEHH@Z ; CMover::GetAdjParam
  0000a	a9 00 04 00 00	 test	 eax, 1024		; 00000400H
  0000f	74 10		 je	 SHORT $LN2@RemoveInvi

; 2252 : 	{
; 2253 : 		ResetDestParam( DST_CHRSTATE, CHS_INVISIBILITY, TRUE );

  00011	6a 01		 push	 1
  00013	68 00 04 00 00	 push	 1024			; 00000400H
  00018	6a 40		 push	 64			; 00000040H
  0001a	8b ce		 mov	 ecx, esi
  0001c	e8 00 00 00 00	 call	 ?ResetDestParam@CMover@@QAEXHHH@Z ; CMover::ResetDestParam
$LN2@RemoveInvi:

; 2254 : 	}
; 2255 : 
; 2256 : 	RemoveBuff( BUFF_SKILL, SI_ACR_SUP_DARKILLUSION );		// 해제.				

  00021	68 c1 00 00 00	 push	 193			; 000000c1H
  00026	6a 01		 push	 1
  00028	8b ce		 mov	 ecx, esi
  0002a	e8 00 00 00 00	 call	 ?RemoveBuff@CMover@@QAEXGG@Z ; CMover::RemoveBuff
  0002f	5e		 pop	 esi

; 2257 : 
; 2258 : #endif // __WORLDSERVER
; 2259 : }

  00030	c3		 ret	 0
?RemoveInvisible@CMover@@QAEXXZ ENDP			; CMover::RemoveInvisible
_TEXT	ENDS
; Function compile flags: /Ogtp
; File C:\IAGOS\server\v18\Source\Source\_Common\MoverActEvent.cpp
;	COMDAT ?GetSkillProp@CMover@@UAEHPAPAUItemProp@@PAPAUAddSkillProp@@HKPBD@Z
_TEXT	SEGMENT
_this$GSCopy$1$ = -264					; size = 4
_szStr$ = -260						; size = 256
__$ArrayPad$ = -4					; size = 4
_ppSkillProp$ = 8					; size = 4
_ppAddSkillProp$ = 12					; size = 4
_nSkill$ = 16						; size = 4
_dwLevel$ = 20						; size = 4
_szErr$ = 24						; size = 4
?GetSkillProp@CMover@@UAEHPAPAUItemProp@@PAPAUAddSkillProp@@HKPBD@Z PROC ; CMover::GetSkillProp, COMDAT
; _this$ = ecx

; 512  : {

  00000	55		 push	 ebp
  00001	8b ec		 mov	 ebp, esp
  00003	81 ec 08 01 00
	00		 sub	 esp, 264		; 00000108H
  00009	a1 00 00 00 00	 mov	 eax, DWORD PTR ___security_cookie
  0000e	33 c5		 xor	 eax, ebp
  00010	89 45 fc	 mov	 DWORD PTR __$ArrayPad$[ebp], eax
  00013	53		 push	 ebx
  00014	8b 5d 08	 mov	 ebx, DWORD PTR _ppSkillProp$[ebp]

; 513  : 	char szStr[256] = {0, };

  00017	8d 85 fc fe ff
	ff		 lea	 eax, DWORD PTR _szStr$[ebp]
  0001d	56		 push	 esi
  0001e	8b 75 18	 mov	 esi, DWORD PTR _szErr$[ebp]
  00021	57		 push	 edi
  00022	8b 7d 0c	 mov	 edi, DWORD PTR _ppAddSkillProp$[ebp]
  00025	68 00 01 00 00	 push	 256			; 00000100H
  0002a	6a 00		 push	 0
  0002c	50		 push	 eax
  0002d	89 8d f8 fe ff
	ff		 mov	 DWORD PTR _this$GSCopy$1$[ebp], ecx
  00033	e8 00 00 00 00	 call	 _memset

; 514  : 	sprintf( szStr, "%s-%s", m_szName, szErr );

  00038	56		 push	 esi
  00039	8b b5 f8 fe ff
	ff		 mov	 esi, DWORD PTR _this$GSCopy$1$[ebp]
  0003f	8d 86 ec 14 00
	00		 lea	 eax, DWORD PTR [esi+5356]
  00045	50		 push	 eax
  00046	8d 85 fc fe ff
	ff		 lea	 eax, DWORD PTR _szStr$[ebp]
  0004c	68 00 00 00 00	 push	 OFFSET ??_C@_05MPOCIJBL@?$CFs?9?$CFs@
  00051	50		 push	 eax
  00052	e8 00 00 00 00	 call	 _sprintf
  00057	83 c4 1c	 add	 esp, 28			; 0000001cH

; 515  : 
; 516  : 	return CCtrl::GetSkillProp( ppSkillProp, ppAddSkillProp, nSkill, dwLevel, szStr );

  0005a	8d 85 fc fe ff
	ff		 lea	 eax, DWORD PTR _szStr$[ebp]
  00060	8b ce		 mov	 ecx, esi
  00062	50		 push	 eax
  00063	ff 75 14	 push	 DWORD PTR _dwLevel$[ebp]
  00066	ff 75 10	 push	 DWORD PTR _nSkill$[ebp]
  00069	57		 push	 edi
  0006a	53		 push	 ebx
  0006b	e8 00 00 00 00	 call	 ?GetSkillProp@CCtrl@@UAEHPAPAUItemProp@@PAPAUAddSkillProp@@HKPBD@Z ; CCtrl::GetSkillProp

; 517  : }

  00070	8b 4d fc	 mov	 ecx, DWORD PTR __$ArrayPad$[ebp]
  00073	5f		 pop	 edi
  00074	5e		 pop	 esi
  00075	33 cd		 xor	 ecx, ebp
  00077	5b		 pop	 ebx
  00078	e8 00 00 00 00	 call	 @__security_check_cookie@4
  0007d	8b e5		 mov	 esp, ebp
  0007f	5d		 pop	 ebp
  00080	c2 14 00	 ret	 20			; 00000014H
?GetSkillProp@CMover@@UAEHPAPAUItemProp@@PAPAUAddSkillProp@@HKPBD@Z ENDP ; CMover::GetSkillProp
_TEXT	ENDS
; Function compile flags: /Ogtp
; File C:\IAGOS\server\v18\Source\Source\_Common\MoverActEvent.cpp
; File C:\IAGOS\server\v18\Source\Source\_Common\Mover.h
; File C:\IAGOS\server\v18\Source\Source\_Common\Project.h
; File C:\IAGOS\server\v18\Source\Source\_Common\MoverActEvent.cpp
; File C:\IAGOS\server\v18\Source\Source\_AIInterface\ActionMover.h
; File C:\IAGOS\server\v18\Source\Source\_Common\MoverActEvent.cpp
; File C:\IAGOS\server\v18\Source\Source\_Common\Mover.h
; File C:\IAGOS\server\v18\Source\Source\_Common\Project.h
; File C:\IAGOS\server\v18\Source\Source\_Common\MoverActEvent.cpp
; File C:\IAGOS\server\v18\Source\Source\_Common\Project.h
; File C:\IAGOS\server\v18\Source\Source\_Common\MoverActEvent.cpp
; File C:\IAGOS\server\v18\Source\Source\_Common\Ctrl.h
; File C:\IAGOS\server\v18\Source\Source\_Common\MoverActEvent.cpp
; File C:\IAGOS\server\v18\Source\Source\_Common\Ctrl.h
; File C:\IAGOS\server\v18\Source\Source\_Common\MoverActEvent.cpp
;	COMDAT ?ApplyParam@CMover@@QAEHPAVCCtrl@@PAUItemProp@@PAUAddSkillProp@@HH@Z
_TEXT	SEGMENT
$T1 = -24						; size = 4
_nDestData$$sroa$446$1$ = -24				; size = 4
_dwPainTime$1$ = -20					; size = 4
_dwHp2$1$ = -20						; size = 4
_dwHp1$1$ = -16						; size = 4
_nDestData$1$ = -16					; size = 4
_nChgParam$1$ = -12					; size = 4
_nIncHP$1$ = -12					; size = 4
_dwSkillTime$1$ = -8					; size = 4
$T2 = -8						; size = 4
_i$1$ = -4						; size = 4
_pSrc$ = 8						; size = 4
_pSkillProp$ = 12					; size = 4
_pAddSkillProp$ = 16					; size = 4
_bSend$ = 20						; size = 4
_nDamage$ = 24						; size = 4
?ApplyParam@CMover@@QAEHPAVCCtrl@@PAUItemProp@@PAUAddSkillProp@@HH@Z PROC ; CMover::ApplyParam, COMDAT
; _this$ = ecx

; 206  : {

  00000	55		 push	 ebp
  00001	8b ec		 mov	 ebp, esp
  00003	83 ec 18	 sub	 esp, 24			; 00000018H
  00006	53		 push	 ebx
  00007	8b d9		 mov	 ebx, ecx

; 207  : 	int		i;
; 208  : 	CMover *pTarget = (CMover *)this;
; 209  : 
; 210  : 	DWORD	dwDestParam, dwSkillTime, dwPainTime, dwAbilityMin;
; 211  : 	int		nAdjParam, nChgParam;
; 212  : 	int		nDestData[3];
; 213  : 
; 214  : #if __VER >= 9	// __SKILL_0706
; 215  : 	BOOL bPVP	= pSrc->GetType() == OT_MOVER && ( (CMover*)pSrc )->IsPlayer() && IsPlayer();
; 216  : #endif	// __SKILL_0706
; 217  : 
; 218  : #ifdef __FIX_STAT_BUFF
; 219  : #if __VER >= 19
; 220  : 	for (int i = 0; i < 6; i++)
; 221  : #else
; 222  : 	for (int i = 0; i < 3; i++)

  00009	33 c9		 xor	 ecx, ecx
  0000b	56		 push	 esi
  0000c	57		 push	 edi
  0000d	89 4d fc	 mov	 DWORD PTR _i$1$[ebp], ecx
$LL4@ApplyParam:

; 223  : #endif
; 224  : #else
; 225  : 	for (int i = 0; i < 2; i++)
; 226  : #endif
; 227  : 	{
; 228  : 		if( pAddSkillProp )

  00010	8b 55 10	 mov	 edx, DWORD PTR _pAddSkillProp$[ebp]
  00013	85 d2		 test	 edx, edx
  00015	74 3e		 je	 SHORT $LN17@ApplyParam

; 229  : 		{
; 230  : #ifdef __FIX_STAT_BUFF
; 231  : 			if (i > 1)

  00017	83 f9 01	 cmp	 ecx, 1
  0001a	0f 8f 77 07 00
	00		 jg	 $LN131@ApplyParam

; 232  : 				break;
; 233  : 
; 234  : 			if (pAddSkillProp->dwDestParam[i] == NULL_ID && pAddSkillProp->nAdjParamVal[i] == NULL_ID)

  00020	8b 7c 8a 24	 mov	 edi, DWORD PTR [edx+ecx*4+36]
  00024	83 ff ff	 cmp	 edi, -1
  00027	75 0a		 jne	 SHORT $LN141@ApplyParam
  00029	39 7c 8a 2c	 cmp	 DWORD PTR [edx+ecx*4+44], edi
  0002d	0f 84 57 07 00
	00		 je	 $LN2@ApplyParam
$LN141@ApplyParam:

; 235  : 				continue;
; 236  : #endif
; 237  : 			dwDestParam = pAddSkillProp->dwDestParam[i];
; 238  : 			dwSkillTime = pAddSkillProp->dwSkillTime;

  00033	8b 42 70	 mov	 eax, DWORD PTR [edx+112]

; 239  : 			dwPainTime = pAddSkillProp->dwPainTime;
; 240  : #if __VER >= 9	// __SKILL_0706
; 241  : 			dwAbilityMin	= bPVP? pAddSkillProp->dwAbilityMinPVP: pAddSkillProp->dwAbilityMin;
; 242  : #else	// __SKILL_0706
; 243  : 			dwAbilityMin	= pAddSkillProp->dwAbilityMin;
; 244  : #endif	// __SKILL_0706
; 245  : 			nAdjParam	= pAddSkillProp->nAdjParamVal[i];

  00036	8b 74 8a 2c	 mov	 esi, DWORD PTR [edx+ecx*4+44]
  0003a	89 45 f8	 mov	 DWORD PTR _dwSkillTime$1$[ebp], eax
  0003d	8b 42 6c	 mov	 eax, DWORD PTR [edx+108]
  00040	89 45 ec	 mov	 DWORD PTR _dwPainTime$1$[ebp], eax

; 246  : 			nChgParam	= (int)pAddSkillProp->dwChgParamVal[i];

  00043	8b 44 8a 34	 mov	 eax, DWORD PTR [edx+ecx*4+52]
  00047	89 45 f4	 mov	 DWORD PTR _nChgParam$1$[ebp], eax

; 247  : 			nDestData[0] = pAddSkillProp->nDestData1[0];

  0004a	8b 42 3c	 mov	 eax, DWORD PTR [edx+60]
  0004d	89 45 f0	 mov	 DWORD PTR _nDestData$1$[ebp], eax

; 248  : 			nDestData[1] = pAddSkillProp->nDestData1[1];

  00050	8b 42 40	 mov	 eax, DWORD PTR [edx+64]

; 249  : 			nDestData[2] = pAddSkillProp->nDestData1[2];
; 250  : 		}

  00053	eb 45		 jmp	 SHORT $LN210@ApplyParam
$LN17@ApplyParam:

; 251  : 		else
; 252  : 		{	
; 253  : 			dwDestParam = pSkillProp->dwDestParam[i];

  00055	8b 75 0c	 mov	 esi, DWORD PTR _pSkillProp$[ebp]

; 254  : 			dwSkillTime = pSkillProp->dwSkillTime;

  00058	8b 86 c0 01 00
	00		 mov	 eax, DWORD PTR [esi+448]
  0005e	8b bc 8e 40 01
	00 00		 mov	 edi, DWORD PTR [esi+ecx*4+320]
  00065	89 45 f8	 mov	 DWORD PTR _dwSkillTime$1$[ebp], eax

; 255  : 			dwPainTime  = pSkillProp->tmContinuousPain;

  00068	8b 86 20 01 00
	00		 mov	 eax, DWORD PTR [esi+288]

; 256  : 			dwAbilityMin = pSkillProp->dwAbilityMin;
; 257  : 			nAdjParam	= pSkillProp->nAdjParamVal[i];

  0006e	8b b4 8e 4c 01
	00 00		 mov	 esi, DWORD PTR [esi+ecx*4+332]
  00075	89 45 ec	 mov	 DWORD PTR _dwPainTime$1$[ebp], eax

; 258  : 			nChgParam	= (int)pSkillProp->dwChgParamVal[i];

  00078	8b 45 0c	 mov	 eax, DWORD PTR _pSkillProp$[ebp]
  0007b	8b 84 88 58 01
	00 00		 mov	 eax, DWORD PTR [eax+ecx*4+344]
  00082	89 45 f4	 mov	 DWORD PTR _nChgParam$1$[ebp], eax

; 259  : 			nDestData[0] = pSkillProp->nDestData1[0];

  00085	8b 45 0c	 mov	 eax, DWORD PTR _pSkillProp$[ebp]
  00088	8b 80 64 01 00
	00		 mov	 eax, DWORD PTR [eax+356]
  0008e	89 45 f0	 mov	 DWORD PTR _nDestData$1$[ebp], eax

; 260  : 			nDestData[1] = pSkillProp->nDestData1[1];

  00091	8b 45 0c	 mov	 eax, DWORD PTR _pSkillProp$[ebp]
  00094	8b 80 68 01 00
	00		 mov	 eax, DWORD PTR [eax+360]
$LN210@ApplyParam:

; 261  : 			nDestData[2] = pSkillProp->nDestData1[2];
; 262  : 		}
; 263  : 		// destParam 1
; 264  : 		switch( dwDestParam )

  0009a	89 45 e8	 mov	 DWORD PTR _nDestData$$sroa$446$1$[ebp], eax
  0009d	81 ff 16 27 00
	00		 cmp	 edi, 10006		; 00002716H
  000a3	0f 87 f6 04 00
	00		 ja	 $LN90@ApplyParam
  000a9	0f 84 e3 04 00
	00		 je	 $LN48@ApplyParam
  000af	8d 47 f5	 lea	 eax, DWORD PTR [edi-11]
  000b2	83 f8 3b	 cmp	 eax, 59			; 0000003bH
  000b5	0f 87 d0 05 00
	00		 ja	 $LN84@ApplyParam
  000bb	0f b6 80 00 00
	00 00		 movzx	 eax, BYTE PTR $LN145@ApplyParam[eax]
  000c2	ff 24 85 00 00
	00 00		 jmp	 DWORD PTR $LN146@ApplyParam[eax*4]
$LN22@ApplyParam:

; 265  : 		{
; 266  : 		case NULL_ID:
; 267  : 			break;
; 268  : 		case DST_CHRSTATE:		// 상태 변경
; 269  : 			if( nAdjParam & CHS_INVISIBILITY )	// 다크일루션상태로...

  000c9	f7 c6 00 04 00
	00		 test	 esi, 1024		; 00000400H
  000cf	74 22		 je	 SHORT $LN23@ApplyParam

; 270  : 			{
; 271  : 				if( pTarget->SetDarkCover( TRUE, dwSkillTime ) == FALSE )

  000d1	ff 75 f8	 push	 DWORD PTR _dwSkillTime$1$[ebp]
  000d4	8b cb		 mov	 ecx, ebx
  000d6	6a 01		 push	 1
  000d8	e8 00 00 00 00	 call	 ?SetDarkCover@CMover@@QAEHHK@Z ; CMover::SetDarkCover
  000dd	85 c0		 test	 eax, eax
  000df	0f 84 c0 06 00
	00		 je	 $LN127@ApplyParam

; 272  : 					return FALSE;
; 273  : 				pTarget->m_wDarkCover = 0;		

  000e5	33 c0		 xor	 eax, eax
  000e7	66 89 83 d2 06
	00 00		 mov	 WORD PTR [ebx+1746], ax

; 274  : 			}

  000ee	e9 94 06 00 00	 jmp	 $LN211@ApplyParam
$LN23@ApplyParam:
  000f3	f7 c6 08 00 20
	00		 test	 esi, 2097160		; 00200008H

; 275  : 			else
; 276  : #ifdef __SLEEPING_FIX
; 277  : 				if (nAdjParam & CHS_STUN || nAdjParam & CHS_SLEEPING)

  000f9	0f 85 1a 01 00
	00		 jne	 $LN28@ApplyParam

; 295  : 			} else
; 296  : 			if( nAdjParam & CHS_POISON )	// 독상태로..

  000ff	f7 c6 00 08 00
	00		 test	 esi, 2048		; 00000800H
  00105	74 31		 je	 SHORT $LN30@ApplyParam

; 297  : 			{
; 298  : 				if( pTarget->SetPoison( TRUE, pSrc->GetId(), dwSkillTime, dwPainTime, nDestData[0] ) == FALSE )	// nDestData[0] 틱당 들어가는 데미지

  00107	ff 75 f0	 push	 DWORD PTR _nDestData$1$[ebp]
  0010a	8b 45 08	 mov	 eax, DWORD PTR _pSrc$[ebp]
  0010d	8b cb		 mov	 ecx, ebx
  0010f	ff 75 ec	 push	 DWORD PTR _dwPainTime$1$[ebp]
  00112	ff 75 f8	 push	 DWORD PTR _dwSkillTime$1$[ebp]
  00115	ff b0 bc 01 00
	00		 push	 DWORD PTR [eax+444]
  0011b	6a 01		 push	 1
  0011d	e8 00 00 00 00	 call	 ?SetPoison@CMover@@QAEHHKKKF@Z ; CMover::SetPoison
  00122	85 c0		 test	 eax, eax
  00124	0f 84 7b 06 00
	00		 je	 $LN127@ApplyParam

; 299  : 					return FALSE;
; 300  : 				pTarget->m_wPoisonCnt = 0;		// 스턴이랑 같은 이유

  0012a	33 c0		 xor	 eax, eax
  0012c	66 89 83 c6 06
	00 00		 mov	 WORD PTR [ebx+1734], ax

; 301  : 			} else

  00133	e9 4f 06 00 00	 jmp	 $LN211@ApplyParam
$LN30@ApplyParam:

; 302  : 			if( nAdjParam & CHS_DARK )	// 암흑상태

  00138	f7 c6 00 01 00
	00		 test	 esi, 256		; 00000100H
  0013e	74 25		 je	 SHORT $LN33@ApplyParam

; 303  : 			{
; 304  : 				if( pTarget->SetDark( TRUE, dwSkillTime, nDestData[1] ) == FALSE )		// nDestData1[1] : 명중률 수정치.

  00140	ff 75 e8	 push	 DWORD PTR _nDestData$$sroa$446$1$[ebp]
  00143	8b cb		 mov	 ecx, ebx
  00145	ff 75 f8	 push	 DWORD PTR _dwSkillTime$1$[ebp]
  00148	6a 01		 push	 1
  0014a	e8 00 00 00 00	 call	 ?SetDark@CMover@@QAEHHKH@Z ; CMover::SetDark
  0014f	85 c0		 test	 eax, eax
  00151	0f 84 4e 06 00
	00		 je	 $LN127@ApplyParam

; 305  : 					return FALSE;
; 306  : 				pTarget->m_wDarkCnt = 0;		// 스턴이랑 같은 이유

  00157	33 c0		 xor	 eax, eax
  00159	66 89 83 ca 06
	00 00		 mov	 WORD PTR [ebx+1738], ax

; 307  : 			} else

  00160	e9 22 06 00 00	 jmp	 $LN211@ApplyParam
$LN33@ApplyParam:

; 308  : 
; 309  : 			if( nAdjParam & CHS_BLEEDING )	// 출혈상태로..

  00165	f7 c6 00 80 00
	00		 test	 esi, 32768		; 00008000H
  0016b	74 47		 je	 SHORT $LN36@ApplyParam

; 310  : 			{
; 311  : 				if( nDestData[0] < 0 )

  0016d	8b 45 f0	 mov	 eax, DWORD PTR _nDestData$1$[ebp]
  00170	85 c0		 test	 eax, eax
  00172	79 11		 jns	 SHORT $LN38@ApplyParam

; 312  : 					nDestData[0]	= nDamage / 5;

  00174	b8 67 66 66 66	 mov	 eax, 1717986919		; 66666667H
  00179	f7 6d 18	 imul	 DWORD PTR _nDamage$[ebp]
  0017c	d1 fa		 sar	 edx, 1
  0017e	8b c2		 mov	 eax, edx
  00180	c1 e8 1f	 shr	 eax, 31			; 0000001fH
  00183	03 c2		 add	 eax, edx
$LN38@ApplyParam:

; 313  : 				if( pTarget->SetBleeding( TRUE, pSrc->GetId(), dwSkillTime, dwPainTime, nDestData[0] ) == FALSE )

  00185	50		 push	 eax
  00186	ff 75 ec	 push	 DWORD PTR _dwPainTime$1$[ebp]
  00189	8b 45 08	 mov	 eax, DWORD PTR _pSrc$[ebp]
  0018c	8b cb		 mov	 ecx, ebx
  0018e	ff 75 f8	 push	 DWORD PTR _dwSkillTime$1$[ebp]
  00191	ff b0 bc 01 00
	00		 push	 DWORD PTR [eax+444]
  00197	6a 01		 push	 1
  00199	e8 00 00 00 00	 call	 ?SetBleeding@CMover@@QAEHHKKKF@Z ; CMover::SetBleeding
  0019e	85 c0		 test	 eax, eax
  001a0	0f 84 ff 05 00
	00		 je	 $LN127@ApplyParam

; 314  : 					return FALSE;
; 315  : 				pTarget->m_wBleedingCnt = 0;		// 스턴이랑 같은 이유

  001a6	33 c0		 xor	 eax, eax
  001a8	66 89 83 ce 06
	00 00		 mov	 WORD PTR [ebx+1742], ax

; 316  : 			} else

  001af	e9 d3 05 00 00	 jmp	 $LN211@ApplyParam
$LN36@ApplyParam:

; 320  : 				if( (nAdjParam & CHS_SLOW) && pTarget->GetProp()->dwClass == RANK_MIDBOSS )		// 슬로우상태를 중간보스에게 걸려고 했다면.

  001b4	f7 c6 00 10 00
	00		 test	 esi, 4096		; 00001000H
  001ba	74 4d		 je	 SHORT $LN144@ApplyParam
; File C:\IAGOS\server\v18\Source\Source\_Common\Mover.h

; 1020 : 	MoverProp*		GetProp() { return prj.GetMoverProp( m_dwIndex ); }	// 객체의 프로퍼티 얻기 	

  001bc	8b 83 74 01 00
	00		 mov	 eax, DWORD PTR [ebx+372]
; File C:\IAGOS\server\v18\Source\Source\_Common\Project.h

; 1406 : 	VERIFY_RANGE( nIndex, 0, m_nMoverPropSize, "GetMoverProp range_error", NULL );

  001c2	85 c0		 test	 eax, eax
  001c4	78 16		 js	 SHORT $LN114@ApplyParam
  001c6	3b 05 b4 01 00
	00		 cmp	 eax, DWORD PTR ?prj@@3VCProject@@A+436
  001cc	7d 0e		 jge	 SHORT $LN114@ApplyParam

; 1407 : 	return m_pPropMover + nIndex;

  001ce	69 c0 90 06 00
	00		 imul	 eax, eax, 1680
  001d4	03 05 b8 01 00
	00		 add	 eax, DWORD PTR ?prj@@3VCProject@@A+440
  001da	eb 20		 jmp	 SHORT $LN109@ApplyParam
$LN114@ApplyParam:

; 579  : 	LPCTSTR szErr = Error( _T( "%s min:%d, max:%d, index:%d" ), szMsg, nMin, nMax, nIndex ); 

  001dc	50		 push	 eax
  001dd	ff 35 b4 01 00
	00		 push	 DWORD PTR ?prj@@3VCProject@@A+436
  001e3	6a 00		 push	 0
  001e5	68 00 00 00 00	 push	 OFFSET ??_C@_0BJ@GKPOBPPI@GetMoverProp?5range_error@
  001ea	68 00 00 00 00	 push	 OFFSET ??_C@_0BM@HMFGHCP@?$CFs?5min?3?$CFd?0?5max?3?$CFd?0?5index?3?$CFd@
  001ef	e8 00 00 00 00	 call	 ?Error@@YAPBDPBDZZ	; Error
  001f4	8b 4d fc	 mov	 ecx, DWORD PTR _i$1$[ebp]
  001f7	83 c4 14	 add	 esp, 20			; 00000014H

; 1406 : 	VERIFY_RANGE( nIndex, 0, m_nMoverPropSize, "GetMoverProp range_error", NULL );

  001fa	33 c0		 xor	 eax, eax
$LN109@ApplyParam:
; File C:\IAGOS\server\v18\Source\Source\_Common\MoverActEvent.cpp

; 320  : 				if( (nAdjParam & CHS_SLOW) && pTarget->GetProp()->dwClass == RANK_MIDBOSS )		// 슬로우상태를 중간보스에게 걸려고 했다면.

  001fc	83 b8 94 00 00
	00 05		 cmp	 DWORD PTR [eax+148], 5
  00203	0f 84 81 05 00
	00		 je	 $LN2@ApplyParam
$LN144@ApplyParam:

; 321  : 					bAble = FALSE;		// 면역.
; 322  : 				if( bAble )
; 323  : 					pTarget->SetDestParam( dwDestParam, nAdjParam, NULL_CHGPARAM, TRUE );

  00209	6a 01		 push	 1
  0020b	68 ff ff ff 7f	 push	 2147483647		; 7fffffffH
  00210	56		 push	 esi
  00211	57		 push	 edi
  00212	8b cb		 mov	 ecx, ebx
  00214	e9 69 05 00 00	 jmp	 $LN212@ApplyParam
$LN28@ApplyParam:

; 278  : #else
; 279  : 				if (nAdjParam & CHS_STUN)	// 스턴상태로...
; 280  : #endif
; 281  : 			{
; 282  : 				if( pTarget->SetStun( TRUE, dwSkillTime ) == FALSE )

  00219	ff 75 f8	 push	 DWORD PTR _dwSkillTime$1$[ebp]
  0021c	8b cb		 mov	 ecx, ebx
  0021e	6a 01		 push	 1
  00220	e8 00 00 00 00	 call	 ?SetStun@CMover@@QAEHHK@Z ; CMover::SetStun
  00225	85 c0		 test	 eax, eax
  00227	0f 84 78 05 00
	00		 je	 $LN127@ApplyParam

; 283  : 					return FALSE;
; 284  : 				// 일단 땜빵. 
; 285  : 				// 스턴이 걸리는건 두가지 루트가 있는데
; 286  : 				// 1. 스킬에 맞았을때.
; 287  : 				// 2. 스턴아이템에 맞았을때
; 288  : 				// 3. 기타 상황(트랩같은..)
; 289  : 				// 스킬을 사용해서 스턴이 걸린건 SkillInflu에서 처리해서
; 290  : 				// 해제까지 시켜주기땜에 m_wStunCnt에 값이 들어가면 두군데서 해제를 시키게 된다.
; 291  : 				// 아이템에 의해 스턴이 걸린건 SkillInflu에서 처리를 안하므로 m_wStunCnt가 필요하다.
; 292  : 				// 이곳은 스킬에 의해서 들어오는 곳이기 때문.
; 293  : 				// 구조가 잘못설계됐다.  스킬중심이 아니고 상태중심으로 처리가 됐어야 했다.
; 294  : 				pTarget->m_wStunCnt = 0;		

  0022d	33 c0		 xor	 eax, eax
  0022f	66 89 83 c4 06
	00 00		 mov	 WORD PTR [ebx+1732], ax

; 324  : 			}
; 325  : 			break;

  00236	e9 4c 05 00 00	 jmp	 $LN211@ApplyParam
$LN42@ApplyParam:

; 326  : 
; 327  : 		case DST_CHR_STEALHP: 			// HP흡수.  흡혈은 DST_로 하기가 좀 안좋다.
; 328  : 			{
; 329  : 				int nStealHP = (int)( nDamage * (nAdjParam / 100.0f) );	// 실제가격한 데미지에서 흡수할양을 정함.
; 330  : 				if( pSrc->GetType() == OT_MOVER )

  0023b	8b 7d 08	 mov	 edi, DWORD PTR _pSrc$[ebp]
  0023e	83 bf 70 01 00
	00 05		 cmp	 DWORD PTR [edi+368], 5
  00245	0f 85 3f 05 00
	00		 jne	 $LN2@ApplyParam

; 331  : 					((CMover *)pSrc)->SetDestParam( DST_HP, nStealHP, NULL_CHGPARAM );		// 시전자 HP로 흡수.

  0024b	66 0f 6e ce	 movd	 xmm1, esi
  0024f	8b cf		 mov	 ecx, edi
  00251	0f 5b c9	 cvtdq2ps xmm1, xmm1
  00254	6a 01		 push	 1
  00256	68 ff ff ff 7f	 push	 2147483647		; 7fffffffH
  0025b	66 0f 6e 45 18	 movd	 xmm0, DWORD PTR _nDamage$[ebp]
  00260	f3 0f 5e 0d 00
	00 00 00	 divss	 xmm1, DWORD PTR __real@42c80000
  00268	0f 5b c0	 cvtdq2ps xmm0, xmm0
  0026b	f3 0f 59 c8	 mulss	 xmm1, xmm0
  0026f	f3 0f 2c c1	 cvttss2si eax, xmm1
  00273	50		 push	 eax
  00274	6a 26		 push	 38			; 00000026H

; 332  : 			}
; 333  : 			break;

  00276	e9 07 05 00 00	 jmp	 $LN212@ApplyParam
$LN44@ApplyParam:

; 334  : 		case DST_CHR_STEALHP_IMM: 			// 지정된양의 HP흡수.  
; 335  : 			{
; 336  : 				if( GetType() == OT_MOVER )

  0027b	83 bb 70 01 00
	00 05		 cmp	 DWORD PTR [ebx+368], 5
  00282	0f 85 02 05 00
	00		 jne	 $LN2@ApplyParam

; 337  : 				{
; 338  : 					int nHP = GetHitPoint();		// 방어자의 hp

  00288	8b cb		 mov	 ecx, ebx
  0028a	e8 00 00 00 00	 call	 ?GetHitPoint@CMover@@QAEHXZ ; CMover::GetHitPoint

; 339  : 					int nStealHP = nAdjParam;	// 흡수해야할 hp
; 340  : 					if( nHP < nStealHP )	// 피를 뽑아와야하는데 남은피가 더 적으면.
; 341  : 						nStealHP = nHP;		// 남은피만큼 뽑아옴
; 342  : 					//SetDestParam( DST_HP, -nStealHP, 0 );		// 피를 뺏김.
; 343  : 					if( pSrc->GetType() == OT_MOVER )

  0028f	8b 7d 08	 mov	 edi, DWORD PTR _pSrc$[ebp]
  00292	3b c6		 cmp	 eax, esi
  00294	0f 4c f0	 cmovl	 esi, eax
  00297	83 bf 70 01 00
	00 05		 cmp	 DWORD PTR [edi+368], 5
  0029e	0f 85 e3 04 00
	00		 jne	 $LN211@ApplyParam

; 344  : 					{
; 345  : //   						((CMover*)this)->m_pActMover->SendDamage( AF_FORCE,		// 타겟은 데미지입고
; 346  : //   													      GetId(), 
; 347  : //  														  nStealHP );
; 348  : 						// chipi_080303 버그 수정 - 몬스터가 자기 자신을 타겟으로 설정하는 문제
; 349  :  						((CMover*)this)->m_pActMover->SendDamage( AF_FORCE,		// 타겟은 데미지입고

  002a4	8b 8b 38 02 00
	00		 mov	 ecx, DWORD PTR [ebx+568]
; File C:\IAGOS\server\v18\Source\Source\_AIInterface\ActionMover.h

; 134  : 	int				SendDamage( DWORD dwAtkFlags, OBJID idSender, int nParam = 0, BOOL bTarget = TRUE, int nReflect = 0 )	{	return SendActMsg( OBJMSG_DAMAGE, dwAtkFlags, idSender, nParam, bTarget, nReflect );	}

  002aa	6a 00		 push	 0
  002ac	6a 01		 push	 1
  002ae	56		 push	 esi
  002af	ff b7 bc 01 00
	00		 push	 DWORD PTR [edi+444]
  002b5	8b 01		 mov	 eax, DWORD PTR [ecx]
  002b7	68 00 20 00 00	 push	 8192			; 00002000H
  002bc	6a 29		 push	 41			; 00000029H
  002be	ff 50 04	 call	 DWORD PTR [eax+4]
; File C:\IAGOS\server\v18\Source\Source\_Common\MoverActEvent.cpp

; 354  : 						((CMover *)pSrc)->SetDestParam( DST_HP, nStealHP, NULL_CHGPARAM, TRUE  );		// 공격자 HP로 흡수.

  002c1	6a 01		 push	 1
  002c3	68 ff ff ff 7f	 push	 2147483647		; 7fffffffH
  002c8	56		 push	 esi
  002c9	6a 26		 push	 38			; 00000026H
  002cb	8b cf		 mov	 ecx, edi

; 355  : 					}
; 356  : 				}
; 357  : 			}
; 358  : 			break;

  002cd	e9 b0 04 00 00	 jmp	 $LN212@ApplyParam
$LN49@ApplyParam:

; 363  : 
; 364  : 		case DST_CLEARBUFF:		// 대상의 버프를 파괴.
; 365  : 			if( nAdjParam == NULL_ID )

  002d2	83 fe ff	 cmp	 esi, -1
  002d5	75 0c		 jne	 SHORT $LN50@ApplyParam

; 366  : 			{
; 367  : 				pTarget->RemoveBuffAll();

  002d7	8b cb		 mov	 ecx, ebx
  002d9	e8 00 00 00 00	 call	 ?RemoveBuffAll@CMover@@QAEXXZ ; CMover::RemoveBuffAll

; 368  : 			}

  002de	e9 a4 04 00 00	 jmp	 $LN211@ApplyParam
$LN50@ApplyParam:

; 369  : 			else
; 370  : 			{
; 371  : 				for( int i = 0; i < nAdjParam; i ++ )

  002e3	85 f6		 test	 esi, esi
  002e5	0f 8e 9f 04 00
	00		 jle	 $LN2@ApplyParam
  002eb	0f 1f 44 00 00	 npad	 5
$LL9@ApplyParam:

; 372  : 					pTarget->RemoveBuffOne();

  002f0	6a 00		 push	 0
  002f2	8b cb		 mov	 ecx, ebx
  002f4	e8 00 00 00 00	 call	 ?RemoveBuffOne@CMover@@QAEXK@Z ; CMover::RemoveBuffOne
  002f9	83 ee 01	 sub	 esi, 1
  002fc	75 f2		 jne	 SHORT $LL9@ApplyParam

; 373  : 			}
; 374  : 			break;

  002fe	e9 84 04 00 00	 jmp	 $LN211@ApplyParam
$LN52@ApplyParam:

; 375  : 		case DST_CHR_CHANCESTUN:	// adj:확률		data1:스킬
; 376  : 		case DST_CHR_CHANCEPOISON:	// adj:확률		data1:스킬
; 377  : 		case DST_CHR_CHANCEDARK:	// adj:확률		data1:스킬
; 378  : 		case DST_CHR_CHANCEBLEEDING:// adj:확률		data1:스킬
; 379  : 		case DST_CHR_CHANCESTEALHP:	// adj:확률		data1:스킬
; 380  : 			pTarget->SetDestParam( dwDestParam, nAdjParam, nChgParam, TRUE );

  00303	6a 01		 push	 1
  00305	ff 75 f4	 push	 DWORD PTR _nChgParam$1$[ebp]
  00308	8b cb		 mov	 ecx, ebx
  0030a	56		 push	 esi
  0030b	57		 push	 edi

; 381  : 			break;

  0030c	e9 71 04 00 00	 jmp	 $LN212@ApplyParam
$LN57@ApplyParam:

; 382  : 			
; 383  : #ifdef __WORLDSERVER
; 384  : 		case DST_HP:	// 힐링.
; 385  : 			if( pAddSkillProp )

  00311	85 d2		 test	 edx, edx
  00313	0f 84 71 04 00
	00		 je	 $LN2@ApplyParam

; 386  : 			{
; 387  : 				if( pSkillProp->dwReferTarget1 == RT_HEAL || pSkillProp->dwReferTarget2 == RT_HEAL )

  00319	8b 7d 0c	 mov	 edi, DWORD PTR _pSkillProp$[ebp]
  0031c	8b 87 d8 01 00
	00		 mov	 eax, DWORD PTR [edi+472]
  00322	83 f8 03	 cmp	 eax, 3
  00325	74 0d		 je	 SHORT $LN142@ApplyParam
  00327	83 bf dc 01 00
	00 03		 cmp	 DWORD PTR [edi+476], 3
  0032e	0f 85 56 04 00
	00		 jne	 $LN2@ApplyParam
$LN142@ApplyParam:

; 388  : 				{
; 389  : 					DWORD dwHp1 = 0, dwHp2 = 0;
; 390  : 					
; 391  : 					if( pSrc->GetType() == OT_MOVER )	// 시전자가 사람일때만 스탯에 의한 영향

  00334	8b 75 08	 mov	 esi, DWORD PTR _pSrc$[ebp]
  00337	83 be 70 01 00
	00 05		 cmp	 DWORD PTR [esi+368], 5
  0033e	8d 8e 70 01 00
	00		 lea	 ecx, DWORD PTR [esi+368]
  00344	c7 45 f0 00 00
	00 00		 mov	 DWORD PTR _dwHp1$1$[ebp], 0
  0034b	c7 45 ec 00 00
	00 00		 mov	 DWORD PTR _dwHp2$1$[ebp], 0
  00352	89 4d f8	 mov	 DWORD PTR $T2[ebp], ecx
  00355	0f 85 8e 01 00
	00		 jne	 $LN148@ApplyParam

; 392  : 					{
; 393  : 						if( pSkillProp->dwReferTarget1 == RT_HEAL )

  0035b	83 f8 03	 cmp	 eax, 3
  0035e	0f 85 bc 00 00
	00		 jne	 $LN143@ApplyParam

; 394  : 						{
; 395  : 							switch( pSkillProp->dwReferStat1 )

  00364	8b 87 d0 01 00
	00		 mov	 eax, DWORD PTR [edi+464]
  0036a	83 e8 02	 sub	 eax, 2
  0036d	74 22		 je	 SHORT $LN64@ApplyParam
  0036f	83 e8 01	 sub	 eax, 1
  00372	74 11		 je	 SHORT $LN65@ApplyParam
  00374	83 e8 01	 sub	 eax, 1
  00377	75 24		 jne	 SHORT $LN153@ApplyParam

; 396  : 							{
; 397  : 							case DST_STA:		dwHp1 = ((CMover *)pSrc)->GetSta();			break;

  00379	8b ce		 mov	 ecx, esi
  0037b	e8 00 00 00 00	 call	 ?GetSta@CMover@@QAEHXZ	; CMover::GetSta
  00380	8b 55 10	 mov	 edx, DWORD PTR _pAddSkillProp$[ebp]
  00383	eb 1b		 jmp	 SHORT $LN10@ApplyParam
$LN65@ApplyParam:

; 399  : 							case DST_INT:		dwHp1 = ((CMover *)pSrc)->GetInt();			break;

  00385	8b ce		 mov	 ecx, esi
  00387	e8 00 00 00 00	 call	 ?GetInt@CMover@@QAEHXZ	; CMover::GetInt
  0038c	8b 55 10	 mov	 edx, DWORD PTR _pAddSkillProp$[ebp]
  0038f	eb 0f		 jmp	 SHORT $LN10@ApplyParam
$LN64@ApplyParam:

; 398  : 							case DST_DEX:		dwHp1 = ((CMover *)pSrc)->GetDex();			break;

  00391	8b ce		 mov	 ecx, esi
  00393	e8 00 00 00 00	 call	 ?GetDex@CMover@@QAEHXZ	; CMover::GetDex
  00398	8b 55 10	 mov	 edx, DWORD PTR _pAddSkillProp$[ebp]
  0039b	eb 03		 jmp	 SHORT $LN10@ApplyParam
$LN153@ApplyParam:

; 394  : 						{
; 395  : 							switch( pSkillProp->dwReferStat1 )

  0039d	8b 45 f0	 mov	 eax, DWORD PTR _dwHp1$1$[ebp]
$LN10@ApplyParam:
  003a0	0f 57 c0	 xorps	 xmm0, xmm0
  003a3	0f 57 c9	 xorps	 xmm1, xmm1

; 401  : 							dwHp1 = (DWORD)( ((pSkillProp->dwReferValue1 / 10.0f) * dwHp1) + (pAddSkillProp->dwSkillLvl * FLOAT(dwHp1 / 50.0f)) );

  003a6	f2 0f 2a c0	 cvtsi2sd xmm0, eax
  003aa	c1 e8 1f	 shr	 eax, 31			; 0000001fH
  003ad	f2 0f 58 04 c5
	00 00 00 00	 addsd	 xmm0, QWORD PTR __xmm@41f00000000000000000000000000000[eax*8]
  003b6	8b 42 08	 mov	 eax, DWORD PTR [edx+8]
  003b9	66 0f 5a d8	 cvtpd2ps xmm3, xmm0
  003bd	0f 57 c0	 xorps	 xmm0, xmm0
  003c0	f2 0f 2a c0	 cvtsi2sd xmm0, eax
  003c4	c1 e8 1f	 shr	 eax, 31			; 0000001fH
  003c7	f2 0f 58 04 c5
	00 00 00 00	 addsd	 xmm0, QWORD PTR __xmm@41f00000000000000000000000000000[eax*8]
  003d0	8b 87 e0 01 00
	00		 mov	 eax, DWORD PTR [edi+480]
  003d6	f2 0f 2a c8	 cvtsi2sd xmm1, eax
  003da	c1 e8 1f	 shr	 eax, 31			; 0000001fH
  003dd	66 0f 5a d0	 cvtpd2ps xmm2, xmm0
  003e1	f2 0f 58 0c c5
	00 00 00 00	 addsd	 xmm1, QWORD PTR __xmm@41f00000000000000000000000000000[eax*8]
  003ea	0f 28 c3	 movaps	 xmm0, xmm3
  003ed	f3 0f 5e 05 00
	00 00 00	 divss	 xmm0, DWORD PTR __real@42480000
  003f5	66 0f 5a c9	 cvtpd2ps xmm1, xmm1
  003f9	f3 0f 59 c2	 mulss	 xmm0, xmm2
  003fd	f3 0f 5e 0d 00
	00 00 00	 divss	 xmm1, DWORD PTR __real@41200000
  00405	f3 0f 59 cb	 mulss	 xmm1, xmm3
  00409	f3 0f 58 c1	 addss	 xmm0, xmm1
  0040d	e8 00 00 00 00	 call	 __ftol3
  00412	89 45 f0	 mov	 DWORD PTR _dwHp1$1$[ebp], eax
  00415	8d 86 70 01 00
	00		 lea	 eax, DWORD PTR [esi+368]
  0041b	89 45 f8	 mov	 DWORD PTR $T2[ebp], eax
  0041e	eb 03		 jmp	 SHORT $LN137@ApplyParam
$LN143@ApplyParam:
  00420	89 4d f8	 mov	 DWORD PTR $T2[ebp], ecx
$LN137@ApplyParam:

; 402  : 						}
; 403  : 						
; 404  : 						if( pSkillProp->dwReferTarget2 == RT_HEAL )

  00423	83 bf dc 01 00
	00 03		 cmp	 DWORD PTR [edi+476], 3
  0042a	0f 85 bd 00 00
	00		 jne	 $LN149@ApplyParam

; 405  : 						{
; 406  : 							switch( pSkillProp->dwReferStat2 )

  00430	8b 87 d4 01 00
	00		 mov	 eax, DWORD PTR [edi+468]
  00436	83 e8 02	 sub	 eax, 2
  00439	74 1c		 je	 SHORT $LN68@ApplyParam
  0043b	83 e8 01	 sub	 eax, 1
  0043e	74 0e		 je	 SHORT $LN69@ApplyParam
  00440	83 e8 01	 sub	 eax, 1
  00443	75 1b		 jne	 SHORT $LN152@ApplyParam

; 407  : 							{
; 408  : 							case DST_STA:		dwHp2 = ((CMover *)pSrc)->GetSta();			break;

  00445	8b ce		 mov	 ecx, esi
  00447	e8 00 00 00 00	 call	 ?GetSta@CMover@@QAEHXZ	; CMover::GetSta
  0044c	eb 15		 jmp	 SHORT $LN12@ApplyParam
$LN69@ApplyParam:

; 410  : 							case DST_INT:		dwHp2 = ((CMover *)pSrc)->GetInt();			break;

  0044e	8b ce		 mov	 ecx, esi
  00450	e8 00 00 00 00	 call	 ?GetInt@CMover@@QAEHXZ	; CMover::GetInt
  00455	eb 0c		 jmp	 SHORT $LN12@ApplyParam
$LN68@ApplyParam:

; 409  : 							case DST_DEX:		dwHp2 = ((CMover *)pSrc)->GetDex();			break;

  00457	8b ce		 mov	 ecx, esi
  00459	e8 00 00 00 00	 call	 ?GetDex@CMover@@QAEHXZ	; CMover::GetDex
  0045e	eb 03		 jmp	 SHORT $LN12@ApplyParam
$LN152@ApplyParam:

; 405  : 						{
; 406  : 							switch( pSkillProp->dwReferStat2 )

  00460	8b 45 ec	 mov	 eax, DWORD PTR _dwHp2$1$[ebp]
$LN12@ApplyParam:

; 411  : 							}
; 412  : 							dwHp2 = (DWORD)( ((pSkillProp->dwReferValue2 / 10.0f) * dwHp2) + (pAddSkillProp->dwSkillLvl * FLOAT(dwHp2 / 50.0f)) );

  00463	8b 7d 10	 mov	 edi, DWORD PTR _pAddSkillProp$[ebp]
  00466	66 0f 6e c0	 movd	 xmm0, eax
  0046a	f3 0f e6 c0	 cvtdq2pd xmm0, xmm0
  0046e	c1 e8 1f	 shr	 eax, 31			; 0000001fH
  00471	f2 0f 58 04 c5
	00 00 00 00	 addsd	 xmm0, QWORD PTR __xmm@41f00000000000000000000000000000[eax*8]
  0047a	8b 47 08	 mov	 eax, DWORD PTR [edi+8]
  0047d	66 0f 5a d8	 cvtpd2ps xmm3, xmm0
  00481	66 0f 6e c0	 movd	 xmm0, eax
  00485	f3 0f e6 c0	 cvtdq2pd xmm0, xmm0
  00489	c1 e8 1f	 shr	 eax, 31			; 0000001fH
  0048c	f2 0f 58 04 c5
	00 00 00 00	 addsd	 xmm0, QWORD PTR __xmm@41f00000000000000000000000000000[eax*8]
  00495	8b 45 0c	 mov	 eax, DWORD PTR _pSkillProp$[ebp]
  00498	8b 80 e4 01 00
	00		 mov	 eax, DWORD PTR [eax+484]
  0049e	66 0f 5a d0	 cvtpd2ps xmm2, xmm0
  004a2	66 0f 6e c8	 movd	 xmm1, eax
  004a6	0f 28 c3	 movaps	 xmm0, xmm3
  004a9	f3 0f 5e 05 00
	00 00 00	 divss	 xmm0, DWORD PTR __real@42480000
  004b1	c1 e8 1f	 shr	 eax, 31			; 0000001fH
  004b4	f3 0f e6 c9	 cvtdq2pd xmm1, xmm1
  004b8	f3 0f 59 c2	 mulss	 xmm0, xmm2
  004bc	f2 0f 58 0c c5
	00 00 00 00	 addsd	 xmm1, QWORD PTR __xmm@41f00000000000000000000000000000[eax*8]
  004c5	66 0f 5a c9	 cvtpd2ps xmm1, xmm1
  004c9	f3 0f 5e 0d 00
	00 00 00	 divss	 xmm1, DWORD PTR __real@41200000
  004d1	f3 0f 59 cb	 mulss	 xmm1, xmm3
  004d5	f3 0f 58 c1	 addss	 xmm0, xmm1
  004d9	e8 00 00 00 00	 call	 __ftol3
  004de	89 45 ec	 mov	 DWORD PTR _dwHp2$1$[ebp], eax
  004e1	8b 45 f8	 mov	 eax, DWORD PTR $T2[ebp]
  004e4	89 45 f8	 mov	 DWORD PTR $T2[ebp], eax
  004e7	eb 07		 jmp	 SHORT $LN66@ApplyParam
$LN148@ApplyParam:

; 388  : 				{
; 389  : 					DWORD dwHp1 = 0, dwHp2 = 0;
; 390  : 					
; 391  : 					if( pSrc->GetType() == OT_MOVER )	// 시전자가 사람일때만 스탯에 의한 영향

  004e9	8b fa		 mov	 edi, edx
  004eb	eb 03		 jmp	 SHORT $LN66@ApplyParam
$LN149@ApplyParam:

; 402  : 						}
; 403  : 						
; 404  : 						if( pSkillProp->dwReferTarget2 == RT_HEAL )

  004ed	8b 7d 10	 mov	 edi, DWORD PTR _pAddSkillProp$[ebp]
$LN66@ApplyParam:

; 413  : 						}
; 414  : 					}
; 415  : 					
; 416  : 					// 증가될 HP량.
; 417  : 					int nIncHP = pAddSkillProp->nAdjParamVal1 + dwHp1 + dwHp2;

  004f0	8b 47 2c	 mov	 eax, DWORD PTR [edi+44]
  004f3	03 45 ec	 add	 eax, DWORD PTR _dwHp2$1$[ebp]
  004f6	03 45 f0	 add	 eax, DWORD PTR _dwHp1$1$[ebp]

; 418  : 					// 힐링계열 스킬을 썼냐?
; 419  : 					if( (pAddSkillProp->dwDestParam1 == DST_HP || pAddSkillProp->dwDestParam2 == DST_HP) && nIncHP > 0 )

  004f9	83 7f 24 26	 cmp	 DWORD PTR [edi+36], 38	; 00000026H
  004fd	89 45 f4	 mov	 DWORD PTR _nIncHP$1$[ebp], eax
  00500	74 09		 je	 SHORT $LN71@ApplyParam
  00502	83 7f 28 26	 cmp	 DWORD PTR [edi+40], 38	; 00000026H
  00506	8d 47 24	 lea	 eax, DWORD PTR [edi+36]
  00509	75 75		 jne	 SHORT $LN151@ApplyParam
$LN71@ApplyParam:
  0050b	8b 4d f4	 mov	 ecx, DWORD PTR _nIncHP$1$[ebp]
  0050e	8d 47 24	 lea	 eax, DWORD PTR [edi+36]
  00511	85 c9		 test	 ecx, ecx
  00513	7e 6e		 jle	 SHORT $LN74@ApplyParam

; 420  : 					{
; 421  : 						if( pSrc->GetType() == OT_MOVER )

  00515	8b 75 f8	 mov	 esi, DWORD PTR $T2[ebp]
  00518	8d 47 24	 lea	 eax, DWORD PTR [edi+36]
  0051b	83 3e 05	 cmp	 DWORD PTR [esi], 5
  0051e	8b 75 08	 mov	 esi, DWORD PTR _pSrc$[ebp]
  00521	75 60		 jne	 SHORT $LN74@ApplyParam

; 422  : 							if( ((CMover *)pSrc)->IsPlayer() )	// 시전자가 플레이어일때

  00523	83 be 30 02 00
	00 00		 cmp	 DWORD PTR [esi+560], 0
  0052a	8d 47 24	 lea	 eax, DWORD PTR [edi+36]
  0052d	74 54		 je	 SHORT $LN74@ApplyParam

; 423  : 								if( pTarget->GetMaxHitPoint() > pTarget->GetHitPoint() + nIncHP )		// 타겟이 오버힐 됐냐?

  0052f	8b cb		 mov	 ecx, ebx
  00531	e8 00 00 00 00	 call	 ?GetHitPoint@CMover@@QAEHXZ ; CMover::GetHitPoint
  00536	8b f0		 mov	 esi, eax
  00538	8b cb		 mov	 ecx, ebx
  0053a	03 75 f4	 add	 esi, DWORD PTR _nIncHP$1$[ebp]
  0053d	8d 47 24	 lea	 eax, DWORD PTR [edi+36]
  00540	89 45 e8	 mov	 DWORD PTR $T1[ebp], eax
  00543	e8 00 00 00 00	 call	 ?GetMaxHitPoint@CMover@@QAEHXZ ; CMover::GetMaxHitPoint
  00548	8b 4d f4	 mov	 ecx, DWORD PTR _nIncHP$1$[ebp]
  0054b	3b c6		 cmp	 eax, esi
  0054d	7e 1f		 jle	 SHORT $LN150@ApplyParam

; 424  : 									((CUser *)pSrc)->m_nOverHeal = PROCESS_COUNT * 30;				// 시전자는 30초간 오버힐 상태. 

  0054f	8b 45 08	 mov	 eax, DWORD PTR _pSrc$[ebp]

; 425  : 					}
; 426  : 					
; 427  : 					// 힐시작.
; 428  : 					pTarget->SetDestParam( pAddSkillProp->dwDestParam1, nIncHP, pAddSkillProp->dwChgParamVal1, TRUE );

  00552	6a 01		 push	 1
  00554	c7 80 7c 8e 00
	00 c2 01 00 00	 mov	 DWORD PTR [eax+36476], 450 ; 000001c2H
  0055e	8d 47 24	 lea	 eax, DWORD PTR [edi+36]
  00561	ff 77 34	 push	 DWORD PTR [edi+52]
  00564	51		 push	 ecx
  00565	ff 30		 push	 DWORD PTR [eax]
  00567	8b cb		 mov	 ecx, ebx

; 429  : 					
; 430  : 				}
; 431  : 			}
; 432  : 			break;

  00569	e9 14 02 00 00	 jmp	 $LN212@ApplyParam
$LN150@ApplyParam:

; 423  : 								if( pTarget->GetMaxHitPoint() > pTarget->GetHitPoint() + nIncHP )		// 타겟이 오버힐 됐냐?

  0056e	8b 45 e8	 mov	 eax, DWORD PTR $T1[ebp]

; 425  : 					}
; 426  : 					
; 427  : 					// 힐시작.
; 428  : 					pTarget->SetDestParam( pAddSkillProp->dwDestParam1, nIncHP, pAddSkillProp->dwChgParamVal1, TRUE );

  00571	6a 01		 push	 1
  00573	ff 77 34	 push	 DWORD PTR [edi+52]
  00576	51		 push	 ecx
  00577	ff 30		 push	 DWORD PTR [eax]
  00579	8b cb		 mov	 ecx, ebx

; 429  : 					
; 430  : 				}
; 431  : 			}
; 432  : 			break;

  0057b	e9 02 02 00 00	 jmp	 $LN212@ApplyParam
$LN151@ApplyParam:

; 418  : 					// 힐링계열 스킬을 썼냐?
; 419  : 					if( (pAddSkillProp->dwDestParam1 == DST_HP || pAddSkillProp->dwDestParam2 == DST_HP) && nIncHP > 0 )

  00580	8b 4d f4	 mov	 ecx, DWORD PTR _nIncHP$1$[ebp]
$LN74@ApplyParam:

; 425  : 					}
; 426  : 					
; 427  : 					// 힐시작.
; 428  : 					pTarget->SetDestParam( pAddSkillProp->dwDestParam1, nIncHP, pAddSkillProp->dwChgParamVal1, TRUE );

  00583	6a 01		 push	 1
  00585	ff 77 34	 push	 DWORD PTR [edi+52]
  00588	51		 push	 ecx
  00589	ff 30		 push	 DWORD PTR [eax]
  0058b	8b cb		 mov	 ecx, ebx

; 429  : 					
; 430  : 				}
; 431  : 			}
; 432  : 			break;

  0058d	e9 f0 01 00 00	 jmp	 $LN212@ApplyParam
$LN48@ApplyParam:

; 359  : 
; 360  : 		case DST_CURECHR:		// 상태 해제
; 361  : 			pTarget->RemoveDebuff( nAdjParam );

  00592	56		 push	 esi
  00593	8b cb		 mov	 ecx, ebx
  00595	e8 00 00 00 00	 call	 ?RemoveDebuff@CMover@@QAEXK@Z ; CMover::RemoveDebuff

; 362  : 			break;

  0059a	e9 e8 01 00 00	 jmp	 $LN211@ApplyParam
$LN90@ApplyParam:

; 261  : 			nDestData[2] = pSkillProp->nDestData1[2];
; 262  : 		}
; 263  : 		// destParam 1
; 264  : 		switch( dwDestParam )

  0059f	81 ff 2e 27 00
	00		 cmp	 edi, 10030		; 0000272eH
  005a5	0f 87 7e 01 00
	00		 ja	 $LN91@ApplyParam
  005ab	0f 84 4a 01 00
	00		 je	 $LN75@ApplyParam
  005b1	8b c7		 mov	 eax, edi
  005b3	2d 25 27 00 00	 sub	 eax, 10021		; 00002725H
  005b8	0f 84 fc 00 00
	00		 je	 $LN78@ApplyParam
  005be	83 e8 01	 sub	 eax, 1
  005c1	0f 85 c4 00 00
	00		 jne	 $LN84@ApplyParam

; 470  : 		case DST_FORCE_DAMAGE_VALUE:
; 471  : 			for ( int i = 0; i <= MAX_BARUNA_DOT; i++ )

  005c7	33 c9		 xor	 ecx, ecx
  005c9	8d 83 f8 06 00
	00		 lea	 eax, DWORD PTR [ebx+1784]
  005cf	90		 npad	 1
$LL16@ApplyParam:

; 472  : 			{
; 473  : 				if( m_dwForceAttackerID[i] == 0 )

  005d0	83 38 00	 cmp	 DWORD PTR [eax], 0
  005d3	74 0b		 je	 SHORT $LN121@ApplyParam

; 470  : 		case DST_FORCE_DAMAGE_VALUE:
; 471  : 			for ( int i = 0; i <= MAX_BARUNA_DOT; i++ )

  005d5	41		 inc	 ecx
  005d6	83 c0 04	 add	 eax, 4
  005d9	83 f9 02	 cmp	 ecx, 2
  005dc	7e f2		 jle	 SHORT $LL16@ApplyParam

; 278  : #else
; 279  : 				if (nAdjParam & CHS_STUN)	// 스턴상태로...
; 280  : #endif
; 281  : 			{
; 282  : 				if( pTarget->SetStun( TRUE, dwSkillTime ) == FALSE )

  005de	eb 6c		 jmp	 SHORT $LN213@ApplyParam
$LN121@ApplyParam:

; 474  : 				{
; 475  : 					m_dwForceDamageCnt[i] =  (short)( ( pAddSkillProp->dwSkillTime / 1000.0f) * PROCESS_COUNT );

  005e0	8b 42 70	 mov	 eax, DWORD PTR [edx+112]

; 476  : 					m_dwForceDamageDamage[i] = (short)pAddSkillProp->nAdjParamVal1;
; 477  : 					m_dwForceDamageUnit[i] = pAddSkillProp->dwPainTime;
; 478  : 					m_dwForceAttackerID[i] = pSrc->GetId();
; 479  : 					//m_adjParamAry[DST_FORCE_DAMAGE_VALUE]	+= pAddSkillProp->nAdjParamVal1;
; 480  : 					pTarget->SetDestParam( dwDestParam, nAdjParam, nChgParam, bSend );

  005e3	ff 75 14	 push	 DWORD PTR _bSend$[ebp]
  005e6	ff 75 f4	 push	 DWORD PTR _nChgParam$1$[ebp]
  005e9	66 0f 6e c0	 movd	 xmm0, eax
  005ed	f3 0f e6 c0	 cvtdq2pd xmm0, xmm0
  005f1	c1 e8 1f	 shr	 eax, 31			; 0000001fH
  005f4	56		 push	 esi
  005f5	57		 push	 edi
  005f6	f2 0f 58 04 c5
	00 00 00 00	 addsd	 xmm0, QWORD PTR __xmm@41f00000000000000000000000000000[eax*8]
  005ff	66 0f 5a c0	 cvtpd2ps xmm0, xmm0
  00603	f3 0f 5e 05 00
	00 00 00	 divss	 xmm0, DWORD PTR __real@447a0000
  0060b	f3 0f 59 05 00
	00 00 00	 mulss	 xmm0, DWORD PTR __real@41700000
  00613	f3 0f 2c c0	 cvttss2si eax, xmm0
  00617	66 89 84 4b de
	06 00 00	 mov	 WORD PTR [ebx+ecx*2+1758], ax
  0061f	66 8b 42 2c	 mov	 ax, WORD PTR [edx+44]
  00623	66 89 84 4b d6
	06 00 00	 mov	 WORD PTR [ebx+ecx*2+1750], ax
  0062b	8b 42 6c	 mov	 eax, DWORD PTR [edx+108]
  0062e	89 84 8b e8 06
	00 00		 mov	 DWORD PTR [ebx+ecx*4+1768], eax
  00635	8b 45 08	 mov	 eax, DWORD PTR _pSrc$[ebp]
  00638	8b 80 bc 01 00
	00		 mov	 eax, DWORD PTR [eax+444]
  0063e	89 84 8b f8 06
	00 00		 mov	 DWORD PTR [ebx+ecx*4+1784], eax
  00645	8b cb		 mov	 ecx, ebx
  00647	e8 00 00 00 00	 call	 ?SetDestParam@CMover@@QAEXHHHH@Z ; CMover::SetDestParam
$LN213@ApplyParam:
; File C:\IAGOS\server\v18\Source\Source\_Common\Mover.h

; 1020 : 	MoverProp*		GetProp() { return prj.GetMoverProp( m_dwIndex ); }	// 객체의 프로퍼티 얻기 	

  0064c	8b 4d fc	 mov	 ecx, DWORD PTR _i$1$[ebp]
$LN15@ApplyParam:
  0064f	8b 83 74 01 00
	00		 mov	 eax, DWORD PTR [ebx+372]
; File C:\IAGOS\server\v18\Source\Source\_Common\Project.h

; 1406 : 	VERIFY_RANGE( nIndex, 0, m_nMoverPropSize, "GetMoverProp range_error", NULL );

  00655	85 c0		 test	 eax, eax
  00657	78 41		 js	 SHORT $LN99@ApplyParam
  00659	3b 05 b4 01 00
	00		 cmp	 eax, DWORD PTR ?prj@@3VCProject@@A+436
  0065f	7d 39		 jge	 SHORT $LN99@ApplyParam

; 1407 : 	return m_pPropMover + nIndex;

  00661	69 c0 90 06 00
	00		 imul	 eax, eax, 1680
  00667	03 05 b8 01 00
	00		 add	 eax, DWORD PTR ?prj@@3VCProject@@A+440
; File C:\IAGOS\server\v18\Source\Source\_Common\MoverActEvent.cpp

; 489  : 				if( pMoverProp )

  0066d	0f 84 17 01 00
	00		 je	 $LN2@ApplyParam

; 490  : 				{
; 491  : 					if( pMoverProp->dwClass != RANK_MIDBOSS		// MIDBOSS만 아니면 다 걸림.
; 492  : #if __VER >= 12 // __SECRET_ROOM
; 493  : 						&& pMoverProp->dwClass != RANK_SUPER	// 12차 부터는 SUPER도 안걸린다.

  00673	8b 80 94 00 00
	00		 mov	 eax, DWORD PTR [eax+148]
  00679	83 f8 05	 cmp	 eax, 5
  0067c	0f 84 08 01 00
	00		 je	 $LN2@ApplyParam
  00682	83 f8 07	 cmp	 eax, 7
$LN215@ApplyParam:

; 207  : 	int		i;
; 208  : 	CMover *pTarget = (CMover *)this;
; 209  : 
; 210  : 	DWORD	dwDestParam, dwSkillTime, dwPainTime, dwAbilityMin;
; 211  : 	int		nAdjParam, nChgParam;
; 212  : 	int		nDestData[3];
; 213  : 
; 214  : #if __VER >= 9	// __SKILL_0706
; 215  : 	BOOL bPVP	= pSrc->GetType() == OT_MOVER && ( (CMover*)pSrc )->IsPlayer() && IsPlayer();
; 216  : #endif	// __SKILL_0706
; 217  : 
; 218  : #ifdef __FIX_STAT_BUFF
; 219  : #if __VER >= 19
; 220  : 	for (int i = 0; i < 6; i++)
; 221  : #else
; 222  : 	for (int i = 0; i < 3; i++)

  00685	0f 84 ff 00 00
	00		 je	 $LN2@ApplyParam
$LN84@ApplyParam:
  0068b	ff 75 14	 push	 DWORD PTR _bSend$[ebp]
  0068e	8b cb		 mov	 ecx, ebx
  00690	ff 75 f4	 push	 DWORD PTR _nChgParam$1$[ebp]
  00693	56		 push	 esi
  00694	57		 push	 edi
  00695	e9 e8 00 00 00	 jmp	 $LN212@ApplyParam
$LN99@ApplyParam:
; File C:\IAGOS\server\v18\Source\Source\_Common\Project.h

; 579  : 	LPCTSTR szErr = Error( _T( "%s min:%d, max:%d, index:%d" ), szMsg, nMin, nMax, nIndex ); 

  0069a	50		 push	 eax
  0069b	ff 35 b4 01 00
	00		 push	 DWORD PTR ?prj@@3VCProject@@A+436
  006a1	6a 00		 push	 0
  006a3	68 00 00 00 00	 push	 OFFSET ??_C@_0BJ@GKPOBPPI@GetMoverProp?5range_error@
  006a8	68 00 00 00 00	 push	 OFFSET ??_C@_0BM@HMFGHCP@?$CFs?5min?3?$CFd?0?5max?3?$CFd?0?5index?3?$CFd@
  006ad	e8 00 00 00 00	 call	 ?Error@@YAPBDPBDZZ	; Error
  006b2	83 c4 14	 add	 esp, 20			; 00000014H
; File C:\IAGOS\server\v18\Source\Source\_Common\MoverActEvent.cpp

; 401  : 							dwHp1 = (DWORD)( ((pSkillProp->dwReferValue1 / 10.0f) * dwHp1) + (pAddSkillProp->dwSkillLvl * FLOAT(dwHp1 / 50.0f)) );

  006b5	e9 cd 00 00 00	 jmp	 $LN211@ApplyParam
$LN78@ApplyParam:
; File C:\IAGOS\server\v18\Source\Source\_Common\Ctrl.h

; 58   : 	OBJID			GetId()					{ return m_objid;   }

  006ba	8b 45 08	 mov	 eax, DWORD PTR _pSrc$[ebp]
; File C:\IAGOS\server\v18\Source\Source\_Common\MoverActEvent.cpp

; 466  : 				pTarget->SendDamage( AF_FORCE, ((CMover*)pSrc)->GetId(), 

  006bd	8b cb		 mov	 ecx, ebx
  006bf	8b 3b		 mov	 edi, DWORD PTR [ebx]
; File C:\IAGOS\server\v18\Source\Source\_Common\Ctrl.h

; 58   : 	OBJID			GetId()					{ return m_objid;   }

  006c1	8b b0 bc 01 00
	00		 mov	 esi, DWORD PTR [eax+444]
; File C:\IAGOS\server\v18\Source\Source\_Common\MoverActEvent.cpp

; 466  : 				pTarget->SendDamage( AF_FORCE, ((CMover*)pSrc)->GetId(), 

  006c7	e8 00 00 00 00	 call	 ?GetMaxHitPoint@CMover@@QAEHXZ ; CMover::GetMaxHitPoint
  006cc	8b c8		 mov	 ecx, eax
  006ce	b8 ad 8b db 68	 mov	 eax, 1759218605		; 68db8badH
  006d3	f7 e9		 imul	 ecx
  006d5	8b 45 10	 mov	 eax, DWORD PTR _pAddSkillProp$[ebp]
  006d8	c1 fa 0c	 sar	 edx, 12			; 0000000cH
  006db	8b ca		 mov	 ecx, edx
  006dd	c1 e9 1f	 shr	 ecx, 31			; 0000001fH
  006e0	8b 40 2c	 mov	 eax, DWORD PTR [eax+44]
  006e3	03 ca		 add	 ecx, edx
  006e5	0f af c1	 imul	 eax, ecx
  006e8	8b cb		 mov	 ecx, ebx
  006ea	6a 01		 push	 1
  006ec	50		 push	 eax
  006ed	56		 push	 esi
  006ee	68 00 20 00 00	 push	 8192			; 00002000H
  006f3	ff 57 34	 call	 DWORD PTR [edi+52]

; 467  : 					( pTarget->GetMaxHitPoint() / 10000 ) * pAddSkillProp->nAdjParamVal1 ) ;
; 468  : 			}
; 469  : 			break;

  006f6	e9 8c 00 00 00	 jmp	 $LN211@ApplyParam
$LN75@ApplyParam:

; 433  : #endif // WorldServer
; 434  : #ifdef __BARUNA_PIERCING
; 435  : #ifdef __WORLDSERVER
; 436  : 		case DST_HEAL_HP_RATE:
; 437  : 			{
; 438  : 				int nIncHp = (((CMover*)pSrc)->GetMaxHitPoint() / 10000 ) * pAddSkillProp->nAdjParamVal1;

  006fb	8b 4d 08	 mov	 ecx, DWORD PTR _pSrc$[ebp]
  006fe	e8 00 00 00 00	 call	 ?GetMaxHitPoint@CMover@@QAEHXZ ; CMover::GetMaxHitPoint
  00703	8b c8		 mov	 ecx, eax
  00705	b8 ad 8b db 68	 mov	 eax, 1759218605		; 68db8badH
  0070a	f7 e9		 imul	 ecx

; 439  : 				((CMover*)pSrc)->SetDestParam( DST_HP, nIncHp, pAddSkillProp->dwChgParamVal1, TRUE);

  0070c	6a 01		 push	 1
  0070e	c1 fa 0c	 sar	 edx, 12			; 0000000cH
  00711	8b c2		 mov	 eax, edx
  00713	c1 e8 1f	 shr	 eax, 31			; 0000001fH
  00716	03 c2		 add	 eax, edx
  00718	8b 55 10	 mov	 edx, DWORD PTR _pAddSkillProp$[ebp]
  0071b	8b 4a 2c	 mov	 ecx, DWORD PTR [edx+44]
  0071e	ff 72 34	 push	 DWORD PTR [edx+52]
  00721	0f af c8	 imul	 ecx, eax
  00724	51		 push	 ecx
  00725	6a 26		 push	 38			; 00000026H

; 440  : 			}
; 441  : 			break;

  00727	eb 56		 jmp	 SHORT $LN214@ApplyParam
$LN91@ApplyParam:

; 261  : 			nDestData[2] = pSkillProp->nDestData1[2];
; 262  : 		}
; 263  : 		// destParam 1
; 264  : 		switch( dwDestParam )

  00729	81 ff 2f 27 00
	00		 cmp	 edi, 10031		; 0000272fH
  0072f	74 30		 je	 SHORT $LN77@ApplyParam
  00731	81 ff 30 27 00
	00		 cmp	 edi, 10032		; 00002730H
  00737	74 08		 je	 SHORT $LN76@ApplyParam
  00739	83 ff ff	 cmp	 edi, -1

; 494  : #endif // __SECRET_ROOM
; 495  : 						)		
; 496  : 						pTarget->SetDestParam( dwDestParam, nAdjParam, nChgParam, bSend );
; 497  : 				}
; 498  : 			}
; 499  : 			break;
; 500  : 		default: // 그외 DST_는 일반적인 루틴을 탄다.
; 501  : 			// 일반 DST_처리
; 502  : 			pTarget->SetDestParam( dwDestParam, nAdjParam, nChgParam, bSend );

  0073c	e9 44 ff ff ff	 jmp	 $LN215@ApplyParam
$LN76@ApplyParam:

; 442  : 		case DST_HEAL_FP_RATE:
; 443  : 			{
; 444  : 				int nIncFp = (((CMover*)pSrc)->GetMaxFatiguePoint() * 10000 ) / pAddSkillProp->nAdjParamVal1;

  00741	8b 4d 08	 mov	 ecx, DWORD PTR _pSrc$[ebp]
  00744	e8 00 00 00 00	 call	 ?GetMaxFatiguePoint@CMover@@QAEHXZ ; CMover::GetMaxFatiguePoint
  00749	8b 4d 10	 mov	 ecx, DWORD PTR _pAddSkillProp$[ebp]
  0074c	33 d2		 xor	 edx, edx
  0074e	69 c0 10 27 00
	00		 imul	 eax, eax, 10000

; 445  : 				((CMover*)pSrc)->SetDestParam( DST_FP, nIncFp, pAddSkillProp->dwChgParamVal1, TRUE);

  00754	6a 01		 push	 1
  00756	ff 71 34	 push	 DWORD PTR [ecx+52]
  00759	f7 71 2c	 div	 DWORD PTR [ecx+44]
  0075c	50		 push	 eax
  0075d	6a 28		 push	 40			; 00000028H

; 446  : 			}
; 447  : 			break;

  0075f	eb 1e		 jmp	 SHORT $LN214@ApplyParam
$LN77@ApplyParam:

; 448  : 		case DST_HEAL_MP_RATE:
; 449  : 			{
; 450  : 				int nIncMp = (((CMover*)pSrc)->GetMaxManaPoint() * 10000 ) / pAddSkillProp->nAdjParamVal1;

  00761	8b 4d 08	 mov	 ecx, DWORD PTR _pSrc$[ebp]
  00764	e8 00 00 00 00	 call	 ?GetMaxManaPoint@CMover@@QAEHXZ ; CMover::GetMaxManaPoint
  00769	8b 4d 10	 mov	 ecx, DWORD PTR _pAddSkillProp$[ebp]
  0076c	33 d2		 xor	 edx, edx
  0076e	69 c0 10 27 00
	00		 imul	 eax, eax, 10000

; 451  : 				((CMover*)pSrc)->SetDestParam( DST_MP, nIncMp, pAddSkillProp->dwChgParamVal1, TRUE);

  00774	6a 01		 push	 1
  00776	ff 71 34	 push	 DWORD PTR [ecx+52]
  00779	f7 71 2c	 div	 DWORD PTR [ecx+44]
  0077c	50		 push	 eax
  0077d	6a 27		 push	 39			; 00000027H
$LN214@ApplyParam:

; 207  : 	int		i;
; 208  : 	CMover *pTarget = (CMover *)this;
; 209  : 
; 210  : 	DWORD	dwDestParam, dwSkillTime, dwPainTime, dwAbilityMin;
; 211  : 	int		nAdjParam, nChgParam;
; 212  : 	int		nDestData[3];
; 213  : 
; 214  : #if __VER >= 9	// __SKILL_0706
; 215  : 	BOOL bPVP	= pSrc->GetType() == OT_MOVER && ( (CMover*)pSrc )->IsPlayer() && IsPlayer();
; 216  : #endif	// __SKILL_0706
; 217  : 
; 218  : #ifdef __FIX_STAT_BUFF
; 219  : #if __VER >= 19
; 220  : 	for (int i = 0; i < 6; i++)
; 221  : #else
; 222  : 	for (int i = 0; i < 3; i++)

  0077f	8b 4d 08	 mov	 ecx, DWORD PTR _pSrc$[ebp]
$LN212@ApplyParam:
  00782	e8 00 00 00 00	 call	 ?SetDestParam@CMover@@QAEXHHHH@Z ; CMover::SetDestParam
$LN211@ApplyParam:
  00787	8b 4d fc	 mov	 ecx, DWORD PTR _i$1$[ebp]
$LN2@ApplyParam:
  0078a	41		 inc	 ecx
  0078b	89 4d fc	 mov	 DWORD PTR _i$1$[ebp], ecx
  0078e	83 f9 03	 cmp	 ecx, 3
  00791	0f 8c 79 f8 ff
	ff		 jl	 $LL4@ApplyParam
$LN131@ApplyParam:
  00797	5f		 pop	 edi

; 503  : 			break;
; 504  : 		}
; 505  : 	}
; 506  : 
; 507  : 	return TRUE;
; 508  : }

  00798	5e		 pop	 esi
  00799	b8 01 00 00 00	 mov	 eax, 1
  0079e	5b		 pop	 ebx
  0079f	8b e5		 mov	 esp, ebp
  007a1	5d		 pop	 ebp
  007a2	c2 14 00	 ret	 20			; 00000014H
$LN127@ApplyParam:
  007a5	5f		 pop	 edi
  007a6	5e		 pop	 esi
  007a7	33 c0		 xor	 eax, eax
  007a9	5b		 pop	 ebx
  007aa	8b e5		 mov	 esp, ebp
  007ac	5d		 pop	 ebp
  007ad	c2 14 00	 ret	 20			; 00000014H
$LN146@ApplyParam:
  007b0	00 00 00 00	 DD	 $LN15@ApplyParam
  007b4	00 00 00 00	 DD	 $LN57@ApplyParam
  007b8	00 00 00 00	 DD	 $LN49@ApplyParam
  007bc	00 00 00 00	 DD	 $LN44@ApplyParam
  007c0	00 00 00 00	 DD	 $LN42@ApplyParam
  007c4	00 00 00 00	 DD	 $LN52@ApplyParam
  007c8	00 00 00 00	 DD	 $LN22@ApplyParam
  007cc	00 00 00 00	 DD	 $LN84@ApplyParam
$LN145@ApplyParam:
  007d0	00		 DB	 0
  007d1	07		 DB	 7
  007d2	07		 DB	 7
  007d3	07		 DB	 7
  007d4	07		 DB	 7
  007d5	07		 DB	 7
  007d6	07		 DB	 7
  007d7	07		 DB	 7
  007d8	07		 DB	 7
  007d9	07		 DB	 7
  007da	07		 DB	 7
  007db	07		 DB	 7
  007dc	07		 DB	 7
  007dd	07		 DB	 7
  007de	07		 DB	 7
  007df	07		 DB	 7
  007e0	07		 DB	 7
  007e1	07		 DB	 7
  007e2	07		 DB	 7
  007e3	07		 DB	 7
  007e4	07		 DB	 7
  007e5	07		 DB	 7
  007e6	07		 DB	 7
  007e7	07		 DB	 7
  007e8	07		 DB	 7
  007e9	07		 DB	 7
  007ea	07		 DB	 7
  007eb	01		 DB	 1
  007ec	07		 DB	 7
  007ed	07		 DB	 7
  007ee	07		 DB	 7
  007ef	07		 DB	 7
  007f0	07		 DB	 7
  007f1	07		 DB	 7
  007f2	07		 DB	 7
  007f3	07		 DB	 7
  007f4	07		 DB	 7
  007f5	07		 DB	 7
  007f6	02		 DB	 2
  007f7	03		 DB	 3
  007f8	07		 DB	 7
  007f9	07		 DB	 7
  007fa	07		 DB	 7
  007fb	07		 DB	 7
  007fc	07		 DB	 7
  007fd	04		 DB	 4
  007fe	05		 DB	 5
  007ff	07		 DB	 7
  00800	05		 DB	 5
  00801	05		 DB	 5
  00802	07		 DB	 7
  00803	07		 DB	 7
  00804	07		 DB	 7
  00805	06		 DB	 6
  00806	07		 DB	 7
  00807	07		 DB	 7
  00808	07		 DB	 7
  00809	07		 DB	 7
  0080a	05		 DB	 5
  0080b	05		 DB	 5
?ApplyParam@CMover@@QAEHPAVCCtrl@@PAUItemProp@@PAUAddSkillProp@@HH@Z ENDP ; CMover::ApplyParam
_TEXT	ENDS
; Function compile flags: /Ogtp
; File C:\IAGOS\server\v18\Source\Source\_Common\MoverActEvent.cpp
;	COMDAT ?SubReferTime@CMover@@QAEXPAK0PAUItemProp@@PAUAddSkillProp@@@Z
_TEXT	SEGMENT
_pTime1$ = 8						; size = 4
_pTime2$ = 12						; size = 4
_pSkillProp$ = 16					; size = 4
_pAddSkillProp$ = 20					; size = 4
?SubReferTime@CMover@@QAEXPAK0PAUItemProp@@PAUAddSkillProp@@@Z PROC ; CMover::SubReferTime, COMDAT
; _this$ = ecx

; 169  : {

  00000	55		 push	 ebp
  00001	8b ec		 mov	 ebp, esp

; 170  : 	DWORD dwTime1 = 0, dwTime2 = 0;
; 171  : 
; 172  : 	if( pSkillProp->dwReferTarget1 == RT_TIME )

  00003	8b 45 10	 mov	 eax, DWORD PTR _pSkillProp$[ebp]
  00006	53		 push	 ebx
  00007	56		 push	 esi
  00008	57		 push	 edi
  00009	33 ff		 xor	 edi, edi
  0000b	33 db		 xor	 ebx, ebx
  0000d	83 b8 d8 01 00
	00 02		 cmp	 DWORD PTR [eax+472], 2
  00014	8b f1		 mov	 esi, ecx
  00016	0f 85 a4 00 00
	00		 jne	 $LN16@SubReferTi

; 173  : 	{
; 174  : 		switch( pSkillProp->dwReferStat1 )

  0001c	8b 80 d0 01 00
	00		 mov	 eax, DWORD PTR [eax+464]
  00022	83 e8 02	 sub	 eax, 2
  00025	74 18		 je	 SHORT $LN8@SubReferTi
  00027	83 e8 01	 sub	 eax, 1
  0002a	74 0c		 je	 SHORT $LN9@SubReferTi
  0002c	83 e8 01	 sub	 eax, 1
  0002f	75 15		 jne	 SHORT $LN2@SubReferTi

; 175  : 		{
; 176  : 		case DST_STA:	dwTime1 = GetSta();		break;

  00031	e8 00 00 00 00	 call	 ?GetSta@CMover@@QAEHXZ	; CMover::GetSta
  00036	eb 0c		 jmp	 SHORT $LN26@SubReferTi
$LN9@SubReferTi:

; 178  : 		case DST_INT:	dwTime1 = GetInt();		break;

  00038	e8 00 00 00 00	 call	 ?GetInt@CMover@@QAEHXZ	; CMover::GetInt
  0003d	eb 05		 jmp	 SHORT $LN26@SubReferTi
$LN8@SubReferTi:

; 177  : 		case DST_DEX:	dwTime1 = GetDex();		break;

  0003f	e8 00 00 00 00	 call	 ?GetDex@CMover@@QAEHXZ	; CMover::GetDex
$LN26@SubReferTi:

; 179  : 		}
; 180  : 		
; 181  : 		dwTime1 = (DWORD)( ((pSkillProp->dwReferValue1/10.0f)*dwTime1) + (pAddSkillProp->dwSkillLvl * FLOAT(dwTime1/50.0f)) );

  00044	8b f8		 mov	 edi, eax
$LN2@SubReferTi:
  00046	8b 45 10	 mov	 eax, DWORD PTR _pSkillProp$[ebp]
  00049	0f 57 c0	 xorps	 xmm0, xmm0
  0004c	f2 0f 2a c7	 cvtsi2sd xmm0, edi
  00050	c1 ef 1f	 shr	 edi, 31			; 0000001fH
  00053	8b 80 e0 01 00
	00		 mov	 eax, DWORD PTR [eax+480]
  00059	0f 57 c9	 xorps	 xmm1, xmm1
  0005c	f2 0f 58 04 fd
	00 00 00 00	 addsd	 xmm0, QWORD PTR __xmm@41f00000000000000000000000000000[edi*8]
  00065	66 0f 5a d0	 cvtpd2ps xmm2, xmm0
  00069	0f 57 c0	 xorps	 xmm0, xmm0
  0006c	f2 0f 2a c0	 cvtsi2sd xmm0, eax
  00070	c1 e8 1f	 shr	 eax, 31			; 0000001fH
  00073	f2 0f 58 04 c5
	00 00 00 00	 addsd	 xmm0, QWORD PTR __xmm@41f00000000000000000000000000000[eax*8]
  0007c	8b 45 14	 mov	 eax, DWORD PTR _pAddSkillProp$[ebp]
  0007f	66 0f 5a c0	 cvtpd2ps xmm0, xmm0
  00083	8b 40 08	 mov	 eax, DWORD PTR [eax+8]
  00086	f2 0f 2a c8	 cvtsi2sd xmm1, eax
  0008a	c1 e8 1f	 shr	 eax, 31			; 0000001fH
  0008d	f3 0f 5e 05 00
	00 00 00	 divss	 xmm0, DWORD PTR __real@41200000
  00095	f2 0f 58 0c c5
	00 00 00 00	 addsd	 xmm1, QWORD PTR __xmm@41f00000000000000000000000000000[eax*8]
  0009e	f3 0f 59 c2	 mulss	 xmm0, xmm2
  000a2	f3 0f 5e 15 00
	00 00 00	 divss	 xmm2, DWORD PTR __real@42480000
  000aa	66 0f 5a c9	 cvtpd2ps xmm1, xmm1
  000ae	f3 0f 59 d1	 mulss	 xmm2, xmm1
  000b2	f3 0f 58 c2	 addss	 xmm0, xmm2
  000b6	e8 00 00 00 00	 call	 __ftol3
  000bb	8b f8		 mov	 edi, eax
  000bd	8b 45 10	 mov	 eax, DWORD PTR _pSkillProp$[ebp]
$LN16@SubReferTi:

; 182  : 	}
; 183  : 	
; 184  : 	if( pSkillProp->dwReferTarget2 == RT_TIME )

  000c0	83 b8 dc 01 00
	00 02		 cmp	 DWORD PTR [eax+476], 2
  000c7	0f 85 b6 00 00
	00		 jne	 $LN17@SubReferTi

; 185  : 	{
; 186  : 		switch( pSkillProp->dwReferStat2 )

  000cd	8b 80 d4 01 00
	00		 mov	 eax, DWORD PTR [eax+468]
  000d3	83 e8 02	 sub	 eax, 2
  000d6	74 1c		 je	 SHORT $LN12@SubReferTi
  000d8	83 e8 01	 sub	 eax, 1
  000db	74 0e		 je	 SHORT $LN13@SubReferTi
  000dd	83 e8 01	 sub	 eax, 1
  000e0	75 1b		 jne	 SHORT $LN4@SubReferTi

; 187  : 		{
; 188  : 		case DST_STA:	dwTime2 = GetSta();		break;

  000e2	8b ce		 mov	 ecx, esi
  000e4	e8 00 00 00 00	 call	 ?GetSta@CMover@@QAEHXZ	; CMover::GetSta
  000e9	eb 10		 jmp	 SHORT $LN27@SubReferTi
$LN13@SubReferTi:

; 190  : 		case DST_INT:	dwTime2 = GetInt();		break;

  000eb	8b ce		 mov	 ecx, esi
  000ed	e8 00 00 00 00	 call	 ?GetInt@CMover@@QAEHXZ	; CMover::GetInt
  000f2	eb 07		 jmp	 SHORT $LN27@SubReferTi
$LN12@SubReferTi:

; 189  : 		case DST_DEX:	dwTime2 = GetDex();		break;

  000f4	8b ce		 mov	 ecx, esi
  000f6	e8 00 00 00 00	 call	 ?GetDex@CMover@@QAEHXZ	; CMover::GetDex
$LN27@SubReferTi:

; 191  : 		}
; 192  : 		
; 193  : 		dwTime2 = (DWORD)( ((pSkillProp->dwReferValue2/10.0f)*dwTime2) + (pAddSkillProp->dwSkillLvl * FLOAT(dwTime2/50.0f)) );

  000fb	8b d8		 mov	 ebx, eax
$LN4@SubReferTi:
  000fd	8b 45 10	 mov	 eax, DWORD PTR _pSkillProp$[ebp]
  00100	0f 57 c0	 xorps	 xmm0, xmm0
  00103	f2 0f 2a c3	 cvtsi2sd xmm0, ebx
  00107	c1 eb 1f	 shr	 ebx, 31			; 0000001fH
  0010a	8b 80 e4 01 00
	00		 mov	 eax, DWORD PTR [eax+484]
  00110	0f 57 c9	 xorps	 xmm1, xmm1
  00113	f2 0f 58 04 dd
	00 00 00 00	 addsd	 xmm0, QWORD PTR __xmm@41f00000000000000000000000000000[ebx*8]
  0011c	66 0f 5a d0	 cvtpd2ps xmm2, xmm0
  00120	0f 57 c0	 xorps	 xmm0, xmm0
  00123	f2 0f 2a c0	 cvtsi2sd xmm0, eax
  00127	c1 e8 1f	 shr	 eax, 31			; 0000001fH
  0012a	f2 0f 58 04 c5
	00 00 00 00	 addsd	 xmm0, QWORD PTR __xmm@41f00000000000000000000000000000[eax*8]
  00133	8b 45 14	 mov	 eax, DWORD PTR _pAddSkillProp$[ebp]
  00136	66 0f 5a c0	 cvtpd2ps xmm0, xmm0
  0013a	8b 40 08	 mov	 eax, DWORD PTR [eax+8]
  0013d	f2 0f 2a c8	 cvtsi2sd xmm1, eax
  00141	c1 e8 1f	 shr	 eax, 31			; 0000001fH
  00144	f3 0f 5e 05 00
	00 00 00	 divss	 xmm0, DWORD PTR __real@41200000
  0014c	f2 0f 58 0c c5
	00 00 00 00	 addsd	 xmm1, QWORD PTR __xmm@41f00000000000000000000000000000[eax*8]
  00155	f3 0f 59 c2	 mulss	 xmm0, xmm2
  00159	f3 0f 5e 15 00
	00 00 00	 divss	 xmm2, DWORD PTR __real@42480000
  00161	66 0f 5a c9	 cvtpd2ps xmm1, xmm1
  00165	f3 0f 59 d1	 mulss	 xmm2, xmm1
  00169	f3 0f 58 c2	 addss	 xmm0, xmm2
  0016d	e8 00 00 00 00	 call	 __ftol3

; 194  : 	}
; 195  : 
; 196  : 	*pTime1 = dwTime1;

  00172	8b 4d 08	 mov	 ecx, DWORD PTR _pTime1$[ebp]
  00175	89 39		 mov	 DWORD PTR [ecx], edi

; 197  : 	*pTime2 = dwTime2;

  00177	8b 4d 0c	 mov	 ecx, DWORD PTR _pTime2$[ebp]
  0017a	5f		 pop	 edi

; 198  : }

  0017b	5e		 pop	 esi
  0017c	5b		 pop	 ebx
  0017d	89 01		 mov	 DWORD PTR [ecx], eax
  0017f	5d		 pop	 ebp
  00180	c2 10 00	 ret	 16			; 00000010H
$LN17@SubReferTi:

; 194  : 	}
; 195  : 
; 196  : 	*pTime1 = dwTime1;

  00183	8b 45 08	 mov	 eax, DWORD PTR _pTime1$[ebp]
  00186	89 38		 mov	 DWORD PTR [eax], edi

; 197  : 	*pTime2 = dwTime2;

  00188	8b 45 0c	 mov	 eax, DWORD PTR _pTime2$[ebp]
  0018b	5f		 pop	 edi

; 198  : }

  0018c	5e		 pop	 esi
  0018d	89 18		 mov	 DWORD PTR [eax], ebx
  0018f	5b		 pop	 ebx
  00190	5d		 pop	 ebp
  00191	c2 10 00	 ret	 16			; 00000010H
?SubReferTime@CMover@@QAEXPAK0PAUItemProp@@PAUAddSkillProp@@@Z ENDP ; CMover::SubReferTime
_TEXT	ENDS
; Function compile flags: /Ogtp
; File C:\IAGOS\server\v18\Source\Source\_Common\MoverActEvent.cpp
; File C:\IAGOS\server\v18\Source\Source\_Common\Item.h
; File C:\IAGOS\server\v18\Source\Source\_Common\MoverActEvent.cpp
; File C:\IAGOS\server\v18\Source\Source\_Common\Project.h
; File C:\IAGOS\server\v18\Source\Source\_Common\data.h
; File C:\IAGOS\server\v18\Source\Source\_Common\Project.h
; File C:\IAGOS\server\v18\Source\Source\_Common\MoverActEvent.cpp
;	COMDAT ?DoLoot@CMover@@QAEHPAVCItem@@@Z
_TEXT	SEGMENT
_pItem$ = 8						; size = 4
_pItemBase$1$ = 8					; size = 4
?DoLoot@CMover@@QAEHPAVCItem@@@Z PROC			; CMover::DoLoot, COMDAT
; _this$ = ecx

; 2647 : {

  00000	55		 push	 ebp
  00001	8b ec		 mov	 ebp, esp
  00003	57		 push	 edi
  00004	8b f9		 mov	 edi, ecx

; 2648 : 	if( IsPlayer() == FALSE )	return FALSE;

  00006	83 bf 30 02 00
	00 00		 cmp	 DWORD PTR [edi+560], 0
  0000d	75 07		 jne	 SHORT $LN2@DoLoot
  0000f	33 c0		 xor	 eax, eax
  00011	5f		 pop	 edi

; 2690 : }

  00012	5d		 pop	 ebp
  00013	c2 04 00	 ret	 4
$LN2@DoLoot:
  00016	53		 push	 ebx
  00017	56		 push	 esi

; 2650 : 	CItemBase* pItemBase = pItem->m_pItemBase;

  00018	8b 75 08	 mov	 esi, DWORD PTR _pItem$[ebp]

; 2651 : 	BOOL bSuccess = TRUE;

  0001b	bb 01 00 00 00	 mov	 ebx, 1
  00020	8b 86 30 02 00
	00		 mov	 eax, DWORD PTR [esi+560]
; File C:\IAGOS\server\v18\Source\Source\_Common\Item.h

; 987  : 	ItemProp* GetProp() { return prj.GetItemProp( GetIndex() ); }

  00026	8b 8e 74 01 00
	00		 mov	 ecx, DWORD PTR [esi+372]
; File C:\IAGOS\server\v18\Source\Source\_Common\MoverActEvent.cpp

; 2650 : 	CItemBase* pItemBase = pItem->m_pItemBase;

  0002c	89 45 08	 mov	 DWORD PTR _pItemBase$1$[ebp], eax
; File C:\IAGOS\server\v18\Source\Source\_Common\Project.h

; 1389 : 	VERIFY_RANGE_ASSERT( nIndex, 0, m_aPropItem.GetSize(), "GetItemProp range_error", NULL );

  0002f	a1 40 02 00 00	 mov	 eax, DWORD PTR ?prj@@3VCProject@@A+576
  00034	85 c9		 test	 ecx, ecx
  00036	78 10		 js	 SHORT $LN16@DoLoot
  00038	3b c8		 cmp	 ecx, eax
  0003a	7d 0c		 jge	 SHORT $LN16@DoLoot
; File C:\IAGOS\server\v18\Source\Source\_Common\data.h

; 270  : 	if( dwIndex >= (DWORD)m_nMaxIndex )

  0003c	73 20		 jae	 SHORT $LN30@DoLoot

; 271  : 		return NULL;
; 272  : 	return (T*) m_apOffset[ dwIndex ];

  0003e	a1 30 02 00 00	 mov	 eax, DWORD PTR ?prj@@3VCProject@@A+560
  00043	8b 04 88	 mov	 eax, DWORD PTR [eax+ecx*4]
; File C:\IAGOS\server\v18\Source\Source\_Common\Project.h

; 1390 : 	return m_aPropItem.GetAt( nIndex ); 

  00046	eb 18		 jmp	 SHORT $LN11@DoLoot
$LN16@DoLoot:

; 579  : 	LPCTSTR szErr = Error( _T( "%s min:%d, max:%d, index:%d" ), szMsg, nMin, nMax, nIndex ); 

  00048	51		 push	 ecx
  00049	50		 push	 eax
  0004a	6a 00		 push	 0
  0004c	68 00 00 00 00	 push	 OFFSET ??_C@_0BI@BEIFNGEL@GetItemProp?5range_error@
  00051	68 00 00 00 00	 push	 OFFSET ??_C@_0BM@HMFGHCP@?$CFs?5min?3?$CFd?0?5max?3?$CFd?0?5index?3?$CFd@
  00056	e8 00 00 00 00	 call	 ?Error@@YAPBDPBDZZ	; Error
  0005b	83 c4 14	 add	 esp, 20			; 00000014H
$LN30@DoLoot:
; File C:\IAGOS\server\v18\Source\Source\_Common\MoverActEvent.cpp

; 2658 : 	if( pItemProp->dwItemKind1 == IK1_GOLD ) 

  0005e	33 c0		 xor	 eax, eax
$LN11@DoLoot:
  00060	83 78 70 00	 cmp	 DWORD PTR [eax+112], 0
  00064	8b 96 40 02 00
	00		 mov	 edx, DWORD PTR [esi+576]
  0006a	75 13		 jne	 SHORT $LN3@DoLoot

; 2659 : 	{
; 2660 : 		PickupGold( ((CItemElem*)pItemBase)->GetGold(), pItem->m_bDropMob );

  0006c	8b 4d 08	 mov	 ecx, DWORD PTR _pItemBase$1$[ebp]
  0006f	52		 push	 edx
  00070	e8 00 00 00 00	 call	 ?GetGold@CItemElem@@QAEHXZ ; CItemElem::GetGold
  00075	50		 push	 eax
  00076	8b cf		 mov	 ecx, edi
  00078	e8 00 00 00 00	 call	 ?PickupGold@CMover@@QAEXHH@Z ; CMover::PickupGold

; 2661 : 	}

  0007d	eb 1b		 jmp	 SHORT $LN23@DoLoot
$LN3@DoLoot:

; 2662 : 	else 
; 2663 : 	{
; 2664 : 		// <아이템 로그 - 획득>
; 2665 : #ifdef __WORLDSERVER
; 2666 : 		if( pItem->m_bDropMob == TRUE ) // 몬스터가 떨어뜨린것만

  0007f	8b cf		 mov	 ecx, edi
  00081	56		 push	 esi
  00082	83 fa 01	 cmp	 edx, 1
  00085	75 07		 jne	 SHORT $LN5@DoLoot

; 2667 : 		{
; 2668 : 			// 몹이 떨어트린 아이템에 대한 루팅 처리
; 2669 : 			bSuccess = SubLootDropMob( pItem );

  00087	e8 00 00 00 00	 call	 ?SubLootDropMob@CMover@@QAEHPAVCItem@@@Z ; CMover::SubLootDropMob

; 2670 : 		}

  0008c	eb 05		 jmp	 SHORT $LN31@DoLoot
$LN5@DoLoot:

; 2671 : 		else	// 어떤유저가 떨어뜨린것은 줏은넘이 임자~
; 2672 : 		{
; 2673 : 			// 몹이 떨어트린게 아닌 아이템의 루팅에 대한 처리
; 2674 : 			bSuccess = SubLootDropNotMob( pItem );

  0008e	e8 00 00 00 00	 call	 ?SubLootDropNotMob@CMover@@QAEHPAVCItem@@@Z ; CMover::SubLootDropNotMob
$LN31@DoLoot:

; 2675 : 
; 2676 : 		}
; 2677 : #endif	// __WORLDSERVER
; 2678 : 	}
; 2679 : 
; 2680 : 	if( TRUE == bSuccess )

  00093	8b d8		 mov	 ebx, eax
  00095	83 fb 01	 cmp	 ebx, 1
  00098	75 0e		 jne	 SHORT $LN7@DoLoot
$LN23@DoLoot:

; 2681 : 	{
; 2682 : 		pItem->Delete();

  0009a	8b ce		 mov	 ecx, esi
  0009c	e8 00 00 00 00	 call	 ?Delete@CObj@@QAEXXZ	; CObj::Delete

; 2683 : #ifdef __WORLDSERVER
; 2684 : //		g_UserMng.AddMotion( this, OBJMSG_PICKUP );
; 2685 : 		RemoveInvisible();		// 아이템 줏으면 투명 해제.

  000a1	8b cf		 mov	 ecx, edi
  000a3	e8 00 00 00 00	 call	 ?RemoveInvisible@CMover@@QAEXXZ ; CMover::RemoveInvisible
$LN7@DoLoot:

; 2686 : #endif	// __WORLDSERVER
; 2687 : 	}
; 2688 : 
; 2689 : 	return bSuccess;

  000a8	5e		 pop	 esi
  000a9	8b c3		 mov	 eax, ebx
  000ab	5b		 pop	 ebx
  000ac	5f		 pop	 edi

; 2690 : }

  000ad	5d		 pop	 ebp
  000ae	c2 04 00	 ret	 4
?DoLoot@CMover@@QAEHPAVCItem@@@Z ENDP			; CMover::DoLoot
_TEXT	ENDS
; Function compile flags: /Ogtp
; File C:\IAGOS\server\v18\Source\Source\_Common\MoverActEvent.cpp
; File C:\IAGOS\server\v18\Source\Source\_Common\Party.h
; File C:\IAGOS\server\v18\Source\Source\_Common\MoverActEvent.cpp
;	COMDAT ?SubLootDropMob@CMover@@QAEHPAVCItem@@@Z
_TEXT	SEGMENT
_pItem$ = 8						; size = 4
?SubLootDropMob@CMover@@QAEHPAVCItem@@@Z PROC		; CMover::SubLootDropMob, COMDAT
; _this$ = ecx

; 2563 : {

  00000	55		 push	 ebp
  00001	8b ec		 mov	 ebp, esp
  00003	56		 push	 esi
  00004	8b f1		 mov	 esi, ecx

; 2564 : 	BOOL bSuccess = TRUE;
; 2565 : #ifdef __WORLDSERVER
; 2566 : 	CParty *pParty	= g_PartyMng.GetParty( m_idparty );

  00006	b9 00 00 00 00	 mov	 ecx, OFFSET ?g_PartyMng@@3VCPartyMng@@A ; g_PartyMng
  0000b	57		 push	 edi
  0000c	ff b6 10 07 00
	00		 push	 DWORD PTR [esi+1808]
  00012	e8 00 00 00 00	 call	 ?GetParty@CPartyMng@@QAEPAVCParty@@K@Z ; CPartyMng::GetParty
  00017	8b f8		 mov	 edi, eax

; 2567 : 	if( pParty && pParty->IsMember( m_idPlayer )  )	// 파티가 있으므로 경험치 분배대로 해야함

  00019	85 ff		 test	 edi, edi
  0001b	74 22		 je	 SHORT $LN2@SubLootDro
; File C:\IAGOS\server\v18\Source\Source\_Common\Party.h

; 105  : 	BOOL	IsMember( u_long uPlayerId )		{	return( FindMember( uPlayerId ) >= 0 );	}

  0001d	ff b6 34 02 00
	00		 push	 DWORD PTR [esi+564]
  00023	8b cf		 mov	 ecx, edi
  00025	e8 00 00 00 00	 call	 ?FindMember@CParty@@QAEHK@Z ; CParty::FindMember
  0002a	85 c0		 test	 eax, eax
; File C:\IAGOS\server\v18\Source\Source\_Common\MoverActEvent.cpp

; 2567 : 	if( pParty && pParty->IsMember( m_idPlayer )  )	// 파티가 있으므로 경험치 분배대로 해야함

  0002c	78 11		 js	 SHORT $LN2@SubLootDro

; 2568 : 	{
; 2569 : 		// 파티가 있을경우 루팅 처리.
; 2570 : 		bSuccess = SubLootDropMobParty( pItem, pParty );

  0002e	57		 push	 edi
  0002f	ff 75 08	 push	 DWORD PTR _pItem$[ebp]
  00032	8b ce		 mov	 ecx, esi
  00034	e8 00 00 00 00	 call	 ?SubLootDropMobParty@CMover@@QAEHPAVCItem@@PAVCParty@@@Z ; CMover::SubLootDropMobParty
  00039	5f		 pop	 edi

; 2575 : 	}
; 2576 : #endif	// __WORLDSERVER
; 2577 : 
; 2578 : 	return bSuccess;
; 2579 : }

  0003a	5e		 pop	 esi
  0003b	5d		 pop	 ebp
  0003c	c2 04 00	 ret	 4
$LN2@SubLootDro:

; 2571 : 	}
; 2572 : 	else // 파티가 없을때~
; 2573 : 	{
; 2574 : 		bSuccess = SubLootDropMobSingle( pItem );

  0003f	ff 75 08	 push	 DWORD PTR _pItem$[ebp]
  00042	8b ce		 mov	 ecx, esi
  00044	e8 00 00 00 00	 call	 ?SubLootDropMobSingle@CMover@@QAEHPAVCItem@@@Z ; CMover::SubLootDropMobSingle
  00049	5f		 pop	 edi

; 2575 : 	}
; 2576 : #endif	// __WORLDSERVER
; 2577 : 
; 2578 : 	return bSuccess;
; 2579 : }

  0004a	5e		 pop	 esi
  0004b	5d		 pop	 ebp
  0004c	c2 04 00	 ret	 4
?SubLootDropMob@CMover@@QAEHPAVCItem@@@Z ENDP		; CMover::SubLootDropMob
_TEXT	ENDS
; Function compile flags: /Ogtp
; File C:\IAGOS\server\v18\Source\Source\_Common\MoverActEvent.cpp
; File C:\IAGOS\server\v18\Source\Source\_Common\xUtil.h
; File C:\IAGOS\server\v18\Source\Source\_Common\MoverActEvent.cpp
; File C:\IAGOS\server\v18\Source\Source\_Common\Party.h
; File C:\IAGOS\server\v18\Source\Source\_Common\MoverActEvent.cpp
; File C:\IAGOS\server\v18\Source\Source\_Common\Project.h
; File C:\IAGOS\server\v18\Source\Source\_Common\data.h
; File C:\IAGOS\server\v18\Source\Source\_Common\Project.h
; File C:\IAGOS\server\v18\Source\Source\_Common\MoverActEvent.cpp
;	COMDAT ?SubLootDropMobParty@CMover@@QAEHPAVCItem@@PAVCParty@@@Z
_TEXT	SEGMENT
tv718 = -256						; size = 4
_pMember$1$ = -252					; size = 4
$T1 = -252						; size = 4
_bSuccess$1$ = -248					; size = 4
tv706 = -248						; size = 4
_i$1$ = -244						; size = 4
_pParty$GSCopy$1$ = -244				; size = 4
_pItemBase$1$ = -240					; size = 4
_aLogItem$2 = -236					; size = 200
_pListMember$ = -36					; size = 32
__$ArrayPad$ = -4					; size = 4
_pItem$ = 8						; size = 4
_pParty$ = 12						; size = 4
?SubLootDropMobParty@CMover@@QAEHPAVCItem@@PAVCParty@@@Z PROC ; CMover::SubLootDropMobParty, COMDAT
; _this$ = ecx

; 2392 : {

  00000	55		 push	 ebp
  00001	8b ec		 mov	 ebp, esp
  00003	81 ec 00 01 00
	00		 sub	 esp, 256		; 00000100H
  00009	a1 00 00 00 00	 mov	 eax, DWORD PTR ___security_cookie
  0000e	33 c5		 xor	 eax, ebp
  00010	89 45 fc	 mov	 DWORD PTR __$ArrayPad$[ebp], eax
  00013	8b 55 0c	 mov	 edx, DWORD PTR _pParty$[ebp]
  00016	0f 57 c0	 xorps	 xmm0, xmm0
  00019	8b 45 08	 mov	 eax, DWORD PTR _pItem$[ebp]
  0001c	53		 push	 ebx
  0001d	56		 push	 esi

; 2393 : 	BOOL bSuccess = TRUE;;
; 2394 : #ifdef __WORLDSERVER
; 2395 : 	CUser *pListMember[ 8 ];
; 2396 : 	int	nMaxListMember = 0;

  0001e	33 db		 xor	 ebx, ebx
  00020	89 95 0c ff ff
	ff		 mov	 DWORD PTR _pParty$GSCopy$1$[ebp], edx
  00026	8b f1		 mov	 esi, ecx
  00028	57		 push	 edi

; 2397 : 	CUser* pMember	= NULL;
; 2398 : 	CUser* pGetUser = NULL;
; 2399 : 	D3DXVECTOR3	vDist;
; 2400 : 	CItemBase* pItemBase = pItem->m_pItemBase;

  00029	8b b8 30 02 00
	00		 mov	 edi, DWORD PTR [eax+560]
  0002f	89 bd 10 ff ff
	ff		 mov	 DWORD PTR _pItemBase$1$[ebp], edi

; 2401 : 	
; 2402 : 	// 아이템줍는사람 반경안에 드는 멤버들만 추려낸다.
; 2403 : 	memset( pListMember, 0, sizeof(pListMember) );

  00035	0f 11 45 dc	 movups	 XMMWORD PTR _pListMember$[ebp], xmm0
  00039	0f 11 45 ec	 movups	 XMMWORD PTR _pListMember$[ebp+16], xmm0

; 2404 : 	for( int i = 0; i < pParty->m_nSizeofMember; i++ )

  0003d	39 9a cc 01 00
	00		 cmp	 DWORD PTR [edx+460], ebx
  00043	0f 8e 09 01 00
	00		 jle	 $LN82@SubLootDro

; 2392 : {

  00049	8d 42 28	 lea	 eax, DWORD PTR [edx+40]
  0004c	33 ff		 xor	 edi, edi
  0004e	89 85 00 ff ff
	ff		 mov	 DWORD PTR tv718[ebp], eax
  00054	89 85 08 ff ff
	ff		 mov	 DWORD PTR tv706[ebp], eax
  0005a	66 0f 1f 44 00
	00		 npad	 6
$LL4@SubLootDro:

; 2405 : 	{
; 2406 : 		pMember		= g_UserMng.GetUserByPlayerID( pParty->m_aMember[i].m_uPlayerId );

  00060	ff 30		 push	 DWORD PTR [eax]
  00062	b9 00 00 00 00	 mov	 ecx, OFFSET ?g_UserMng@@3VCUserMng@@A ; g_UserMng
  00067	e8 00 00 00 00	 call	 ?GetUserByPlayerID@CUserMng@@QAEPAVCUser@@K@Z ; CUserMng::GetUserByPlayerID

; 2407 : //		if( IsValidObj( (CObj*)pMember ) )
; 2408 : 		// 12-3 康: 아이템 획득은 같은 맵 일정 반경에 속한 사용자로 제한해야한다.
; 2409 : 		/*  
; 2410 : 		if( IsValidObj( (CObj*)pMember ) && GetWorld() == pMember->GetWorld() )
; 2411 : 		{
; 2412 : 			vDist = pMember->GetPos() - GetPos();
; 2413 : 			fDist = D3DXVec3LengthSq( &vDist );		// 아이템 줍는사람과 멤버간의 거리.
; 2414 : 			if( fDist < 32.0f * 32.0f )		// xx미터보다 작으면
; 2415 : 			{
; 2416 : 				pListMember[ nMaxListMember++ ] = pMember;
; 2417 : 			}
; 2418 : 		}
; 2419 : 		*/ //2009.01.21 // 반경 검사에 레이어 추가
; 2420 : 		if( IsValidArea( pMember, 32.0f ) )

  0006c	51		 push	 ecx
  0006d	c7 04 24 00 00
	00 42		 mov	 DWORD PTR [esp], 1107296256 ; 42000000H
  00074	8b ce		 mov	 ecx, esi
  00076	50		 push	 eax
  00077	89 85 04 ff ff
	ff		 mov	 DWORD PTR _pMember$1$[ebp], eax
  0007d	e8 00 00 00 00	 call	 ?IsValidArea@CMover@@QAEHPAV1@M@Z ; CMover::IsValidArea
  00082	85 c0		 test	 eax, eax
  00084	74 0b		 je	 SHORT $LN2@SubLootDro

; 2421 : 			pListMember[ nMaxListMember++ ] = pMember;

  00086	8b 85 04 ff ff
	ff		 mov	 eax, DWORD PTR _pMember$1$[ebp]
  0008c	89 44 9d dc	 mov	 DWORD PTR _pListMember$[ebp+ebx*4], eax
  00090	43		 inc	 ebx
$LN2@SubLootDro:

; 2404 : 	for( int i = 0; i < pParty->m_nSizeofMember; i++ )

  00091	8b 95 0c ff ff
	ff		 mov	 edx, DWORD PTR _pParty$GSCopy$1$[ebp]
  00097	47		 inc	 edi
  00098	8b 85 08 ff ff
	ff		 mov	 eax, DWORD PTR tv706[ebp]
  0009e	83 c0 1c	 add	 eax, 28			; 0000001cH
  000a1	89 85 08 ff ff
	ff		 mov	 DWORD PTR tv706[ebp], eax
  000a7	3b ba cc 01 00
	00		 cmp	 edi, DWORD PTR [edx+460]
  000ad	7c b1		 jl	 SHORT $LL4@SubLootDro

; 2422 : 	}
; 2423 : 
; 2424 : 	if( nMaxListMember == 0 )

  000af	8b bd 10 ff ff
	ff		 mov	 edi, DWORD PTR _pItemBase$1$[ebp]
  000b5	85 db		 test	 ebx, ebx
  000b7	0f 84 95 00 00
	00		 je	 $LN82@SubLootDro

; 2425 : 	{
; 2426 : 		pGetUser	= (CUser*)this;
; 2427 : 	}
; 2428 : 	else
; 2429 : 	{
; 2430 : 		switch( pParty->m_nTroupeShareItem )

  000bd	8b 82 e0 01 00
	00		 mov	 eax, DWORD PTR [edx+480]
  000c3	83 e8 01	 sub	 eax, 1
  000c6	74 42		 je	 SHORT $LN18@SubLootDro
  000c8	83 e8 01	 sub	 eax, 1
  000cb	74 27		 je	 SHORT $LN23@SubLootDro
  000cd	83 e8 01	 sub	 eax, 1
  000d0	0f 85 7c 00 00
	00		 jne	 $LN82@SubLootDro
; File C:\IAGOS\server\v18\Source\Source\_Common\xUtil.h

; 16   : 	g_next = g_next * 1103515245 + 12345;// + nRandomSeed[ i++ ];

  000d6	69 05 00 00 00
	00 6d 4e c6 41	 imul	 eax, DWORD PTR ?g_next@@3KA, 1103515245 ; g_next
  000e0	33 d2		 xor	 edx, edx
  000e2	05 39 30 00 00	 add	 eax, 12345		; 00003039H
  000e7	a3 00 00 00 00	 mov	 DWORD PTR ?g_next@@3KA, eax ; g_next
  000ec	f7 f3		 div	 ebx
; File C:\IAGOS\server\v18\Source\Source\_Common\MoverActEvent.cpp

; 2473 : 				pGetUser = pListMember[dwRand];

  000ee	8b 74 95 dc	 mov	 esi, DWORD PTR _pListMember$[ebp+edx*4]

; 2474 : 			}
; 2475 : 			break;

  000f2	eb 5e		 jmp	 SHORT $LN82@SubLootDro
$LN23@SubLootDro:
; File C:\IAGOS\server\v18\Source\Source\_Common\Party.h

; 106  : 	int		IsLeader( u_long uPlayerId )		{	return( m_aMember[0].m_uPlayerId == uPlayerId );	}

  000f4	8b 8d 00 ff ff
	ff		 mov	 ecx, DWORD PTR tv718[ebp]
  000fa	8b 45 dc	 mov	 eax, DWORD PTR _pListMember$[ebp]
  000fd	8b 09		 mov	 ecx, DWORD PTR [ecx]
  000ff	3b 88 34 02 00
	00		 cmp	 ecx, DWORD PTR [eax+564]
; File C:\IAGOS\server\v18\Source\Source\_Common\MoverActEvent.cpp

; 2460 : 				if( pParty->IsLeader( pListMember[0]->m_idPlayer ) )

  00105	0f 44 f0	 cmove	 esi, eax

; 2461 : 				{
; 2462 : 					pGetUser = pListMember[0];
; 2463 : 				}
; 2464 : 				else
; 2465 : 				{
; 2466 : 					pGetUser = (CUser*)this;
; 2467 : 				}
; 2468 : 			}
; 2469 : 			break;

  00108	eb 48		 jmp	 SHORT $LN82@SubLootDro
$LN18@SubLootDro:

; 2431 : 		{
; 2432 : 		case 1 :	// 순서분배
; 2433 : 
; 2434 : 			{
; 2435 : 				for( int i = 0 ; i < nMaxListMember ; i++ )

  0010a	8b 45 dc	 mov	 eax, DWORD PTR _pListMember$[ebp]
  0010d	33 c9		 xor	 ecx, ecx
  0010f	85 db		 test	 ebx, ebx
  00111	7e 3d		 jle	 SHORT $LN83@SubLootDro

; 2436 : 				{
; 2437 : 					if( pParty->m_nGetItemPlayerId == pListMember[i]->m_idPlayer )

  00113	8b 92 00 02 00
	00		 mov	 edx, DWORD PTR [edx+512]
  00119	0f 1f 80 00 00
	00 00		 npad	 7
$LL9@SubLootDro:
  00120	8d 34 8d 00 00
	00 00		 lea	 esi, DWORD PTR [ecx*4]
  00127	41		 inc	 ecx
  00128	8b 44 35 dc	 mov	 eax, DWORD PTR _pListMember$[ebp+esi]
  0012c	3b 90 34 02 00
	00		 cmp	 edx, DWORD PTR [eax+564]
  00132	74 09		 je	 SHORT $LN72@SubLootDro

; 2431 : 		{
; 2432 : 		case 1 :	// 순서분배
; 2433 : 
; 2434 : 			{
; 2435 : 				for( int i = 0 ; i < nMaxListMember ; i++ )

  00134	3b cb		 cmp	 ecx, ebx
  00136	7c e8		 jl	 SHORT $LL9@SubLootDro

; 2436 : 				{
; 2437 : 					if( pParty->m_nGetItemPlayerId == pListMember[i]->m_idPlayer )

  00138	8b 45 dc	 mov	 eax, DWORD PTR _pListMember$[ebp]
  0013b	eb 13		 jmp	 SHORT $LN83@SubLootDro
$LN72@SubLootDro:

; 2438 : 					{
; 2439 : 						if( i + 1 >= nMaxListMember )

  0013d	8b 45 dc	 mov	 eax, DWORD PTR _pListMember$[ebp]
  00140	3b cb		 cmp	 ecx, ebx
  00142	7c 04		 jl	 SHORT $LN20@SubLootDro

; 2440 : 						{
; 2441 : 							pGetUser = pListMember[0];

  00144	8b f0		 mov	 esi, eax

; 2442 : 							break;												

  00146	eb 04		 jmp	 SHORT $LN8@SubLootDro
$LN20@SubLootDro:

; 2443 : 						}
; 2444 : 						else
; 2445 : 						{
; 2446 : 							pGetUser = pListMember[ i+1 ];

  00148	8b 74 35 e0	 mov	 esi, DWORD PTR _pListMember$[ebp+esi+4]
$LN8@SubLootDro:

; 2447 : 							break;
; 2448 : 						}
; 2449 : 					}
; 2450 : 				}
; 2451 : 				
; 2452 : 				if( pGetUser == NULL )

  0014c	85 f6		 test	 esi, esi
  0014e	75 02		 jne	 SHORT $LN82@SubLootDro
$LN83@SubLootDro:

; 2453 : 				{
; 2454 : 					pGetUser = pListMember[0];

  00150	8b f0		 mov	 esi, eax
$LN82@SubLootDro:

; 2476 : 		default:	// 기본 개임분배
; 2477 : 
; 2478 : 			{
; 2479 : 				pGetUser = (CUser*)this; 
; 2480 : 			}
; 2481 : 			break;
; 2482 : 		}	// switch
; 2483 : 	}	
; 2484 : 	pParty->m_nGetItemPlayerId = pGetUser->m_idPlayer;

  00152	8b 8d 0c ff ff
	ff		 mov	 ecx, DWORD PTR _pParty$GSCopy$1$[ebp]
  00158	8b 86 34 02 00
	00		 mov	 eax, DWORD PTR [esi+564]

; 2485 : 
; 2486 : 	bSuccess	= pGetUser->CreateItem( pItemBase );

  0015e	6a 00		 push	 0
  00160	6a 00		 push	 0
  00162	6a 00		 push	 0
  00164	89 81 00 02 00
	00		 mov	 DWORD PTR [ecx+512], eax
  0016a	8b ce		 mov	 ecx, esi
  0016c	57		 push	 edi
  0016d	e8 00 00 00 00	 call	 ?CreateItem@CMover@@QAEHPAVCItemBase@@PAEPAFE@Z ; CMover::CreateItem
  00172	33 c9		 xor	 ecx, ecx
  00174	89 85 08 ff ff
	ff		 mov	 DWORD PTR _bSuccess$1$[ebp], eax
  0017a	89 8d 0c ff ff
	ff		 mov	 DWORD PTR _i$1$[ebp], ecx

; 2487 : 
; 2488 : 	for( int i = 0; i < nMaxListMember; i++ )

  00180	85 db		 test	 ebx, ebx
  00182	0f 8e c1 01 00
	00		 jle	 $LN11@SubLootDro
  00188	0f 1f 84 00 00
	00 00 00	 npad	 8
$LL12@SubLootDro:

; 2489 : 	{
; 2490 : 		pMember = pListMember[i];

  00190	8b bd 0c ff ff
	ff		 mov	 edi, DWORD PTR _i$1$[ebp]
  00196	8b 7c bd dc	 mov	 edi, DWORD PTR _pListMember$[ebp+edi*4]

; 2491 : 		if( TRUE == pMember->IsPlayer() && pItemBase->GetProp() != NULL )

  0019a	83 bf 30 02 00
	00 01		 cmp	 DWORD PTR [edi+560], 1
  001a1	0f 85 87 01 00
	00		 jne	 $LN91@SubLootDro
  001a7	8b 8d 10 ff ff
	ff		 mov	 ecx, DWORD PTR _pItemBase$1$[ebp]
  001ad	e8 00 00 00 00	 call	 ?GetPropA@CItemBase@@QAEPAUItemProp@@XZ ; CItemBase::GetPropA
  001b2	85 c0		 test	 eax, eax
  001b4	0f 84 74 01 00
	00		 je	 $LN91@SubLootDro

; 2492 : 		{
; 2493 : 			if( bSuccess )

  001ba	83 bd 08 ff ff
	ff 00		 cmp	 DWORD PTR _bSuccess$1$[ebp], 0
  001c1	0f 84 57 01 00
	00		 je	 $LN29@SubLootDro

; 2494 : 			{
; 2495 : 				if( pMember->m_idPlayer != pGetUser->m_idPlayer )

  001c7	8b 87 34 02 00
	00		 mov	 eax, DWORD PTR [edi+564]
  001cd	3b 86 34 02 00
	00		 cmp	 eax, DWORD PTR [esi+564]
  001d3	0f 84 1f 01 00
	00		 je	 $LN31@SubLootDro

; 2496 : 				{
; 2497 : 					if( ::GetLanguage() == LANG_TWN || ::GetLanguage() == LANG_JAP || ::GetLanguage() == LANG_HK )

  001d9	e8 00 00 00 00	 call	 ?GetLanguage@@YAHXZ	; GetLanguage
  001de	83 f8 05	 cmp	 eax, 5
  001e1	0f 84 e3 00 00
	00		 je	 $LN35@SubLootDro
  001e7	e8 00 00 00 00	 call	 ?GetLanguage@@YAHXZ	; GetLanguage
  001ec	83 f8 02	 cmp	 eax, 2
  001ef	0f 84 d5 00 00
	00		 je	 $LN35@SubLootDro
  001f5	e8 00 00 00 00	 call	 ?GetLanguage@@YAHXZ	; GetLanguage
  001fa	83 f8 09	 cmp	 eax, 9
  001fd	0f 84 c7 00 00
	00		 je	 $LN35@SubLootDro

; 2499 : 					else
; 2500 : 					{
; 2501 : 						if( ::GetLanguage() == LANG_THA )

  00203	e8 00 00 00 00	 call	 ?GetLanguage@@YAHXZ	; GetLanguage
  00208	83 f8 04	 cmp	 eax, 4
  0020b	75 31		 jne	 SHORT $LN56@SubLootDro

; 2502 : 							( (CUser*)pMember )->AddDefinedText( TID_GAME_REAPITEM_THA, "\"%s\" \"%s\"", pGetUser->GetName(), pItemBase->GetProp()->szName );

  0020d	8b 8d 10 ff ff
	ff		 mov	 ecx, DWORD PTR _pItemBase$1$[ebp]
  00213	e8 00 00 00 00	 call	 ?GetPropA@CItemBase@@QAEPAUItemProp@@XZ ; CItemBase::GetPropA
  00218	83 c0 04	 add	 eax, 4
  0021b	8b ce		 mov	 ecx, esi
  0021d	50		 push	 eax
  0021e	6a 00		 push	 0
  00220	e8 00 00 00 00	 call	 ?GetName@CMover@@QAEPBDH@Z ; CMover::GetName
  00225	50		 push	 eax
  00226	68 00 00 00 00	 push	 OFFSET ??_C@_09DPACILDJ@?$CC?$CFs?$CC?5?$CC?$CFs?$CC@
  0022b	68 35 09 00 00	 push	 2357			; 00000935H
  00230	57		 push	 edi
  00231	e8 00 00 00 00	 call	 ?AddDefinedText@CUser@@QAAXHPBDZZ ; CUser::AddDefinedText
  00236	83 c4 14	 add	 esp, 20			; 00000014H
  00239	e9 f0 00 00 00	 jmp	 $LN91@SubLootDro
$LN56@SubLootDro:
; File C:\IAGOS\server\v18\Source\Source\_Common\Project.h

; 1427 : 	VERIFY_RANGE( (int)( dwIndex ), 0, m_colorText.GetSize(), "GetText range_error", "error" );

  0023e	a1 ac 02 00 00	 mov	 eax, DWORD PTR ?prj@@3VCProject@@A+684
  00243	3d 98 04 00 00	 cmp	 eax, 1176		; 00000498H
  00248	7f 26		 jg	 SHORT $LN54@SubLootDro

; 579  : 	LPCTSTR szErr = Error( _T( "%s min:%d, max:%d, index:%d" ), szMsg, nMin, nMax, nIndex ); 

  0024a	68 98 04 00 00	 push	 1176			; 00000498H
  0024f	50		 push	 eax
  00250	6a 00		 push	 0
  00252	68 00 00 00 00	 push	 OFFSET ??_C@_0BE@OHDBLHOM@GetText?5range_error@
  00257	68 00 00 00 00	 push	 OFFSET ??_C@_0BM@HMFGHCP@?$CFs?5min?3?$CFd?0?5max?3?$CFd?0?5index?3?$CFd@
  0025c	e8 00 00 00 00	 call	 ?Error@@YAPBDPBDZZ	; Error
  00261	83 c4 14	 add	 esp, 20			; 00000014H

; 1427 : 	VERIFY_RANGE( (int)( dwIndex ), 0, m_colorText.GetSize(), "GetText range_error", "error" );

  00264	c7 85 04 ff ff
	ff 00 00 00 00	 mov	 DWORD PTR $T1[ebp], OFFSET ??_C@_05KKCIMGE@error@
  0026e	eb 26		 jmp	 SHORT $LN53@SubLootDro
$LN54@SubLootDro:
; File C:\IAGOS\server\v18\Source\Source\_Common\data.h

; 270  : 	if( dwIndex >= (DWORD)m_nMaxIndex )

  00270	76 1a		 jbe	 SHORT $LN84@SubLootDro

; 271  : 		return NULL;
; 272  : 	return (T*) m_apOffset[ dwIndex ];

  00272	a1 9c 02 00 00	 mov	 eax, DWORD PTR ?prj@@3VCProject@@A+668
  00277	8b 80 60 12 00
	00		 mov	 eax, DWORD PTR [eax+4704]
; File C:\IAGOS\server\v18\Source\Source\_Common\Project.h

; 1428 : 	if( m_colorText.GetAt( dwIndex ) == NULL )

  0027d	85 c0		 test	 eax, eax
  0027f	74 0b		 je	 SHORT $LN84@SubLootDro

; 1430 : 	return m_colorText.GetAt( dwIndex )->lpszData; 

  00281	8b 40 04	 mov	 eax, DWORD PTR [eax+4]
  00284	89 85 04 ff ff
	ff		 mov	 DWORD PTR $T1[ebp], eax
  0028a	eb 0a		 jmp	 SHORT $LN53@SubLootDro
$LN84@SubLootDro:

; 1429 : 		return "";

  0028c	c7 85 04 ff ff
	ff 00 00 00 00	 mov	 DWORD PTR $T1[ebp], OFFSET ??_C@_00CNPNBAHC@@
$LN53@SubLootDro:
; File C:\IAGOS\server\v18\Source\Source\_Common\MoverActEvent.cpp

; 2504 : 							( (CUser*)pMember )->AddDefinedText( TID_GAME_REAPITEM, "\"%s%s %s\"", pGetUser->GetName(), prj.GetText(TID_GAME_FROM2), pItemBase->GetProp()->szName );

  00296	8b 8d 10 ff ff
	ff		 mov	 ecx, DWORD PTR _pItemBase$1$[ebp]
  0029c	e8 00 00 00 00	 call	 ?GetPropA@CItemBase@@QAEPAUItemProp@@XZ ; CItemBase::GetPropA
  002a1	83 c0 04	 add	 eax, 4
  002a4	8b ce		 mov	 ecx, esi
  002a6	50		 push	 eax
  002a7	ff b5 04 ff ff
	ff		 push	 DWORD PTR $T1[ebp]
  002ad	6a 00		 push	 0
  002af	e8 00 00 00 00	 call	 ?GetName@CMover@@QAEPBDH@Z ; CMover::GetName
  002b4	50		 push	 eax
  002b5	68 00 00 00 00	 push	 OFFSET ??_C@_09KHPJMIO@?$CC?$CFs?$CFs?5?$CFs?$CC@
  002ba	68 74 02 00 00	 push	 628			; 00000274H
  002bf	57		 push	 edi
  002c0	e8 00 00 00 00	 call	 ?AddDefinedText@CUser@@QAAXHPBDZZ ; CUser::AddDefinedText
  002c5	83 c4 18	 add	 esp, 24			; 00000018H
  002c8	eb 64		 jmp	 SHORT $LN91@SubLootDro
$LN35@SubLootDro:

; 2498 : 						( (CUser*)pMember )->AddDefinedText( TID_GAME_TROUPEREAPITEM, "\"%s\" \"%s\"", pGetUser->GetName(), pItemBase->GetProp()->szName );

  002ca	8b 8d 10 ff ff
	ff		 mov	 ecx, DWORD PTR _pItemBase$1$[ebp]
  002d0	e8 00 00 00 00	 call	 ?GetPropA@CItemBase@@QAEPAUItemProp@@XZ ; CItemBase::GetPropA
  002d5	83 c0 04	 add	 eax, 4
  002d8	8b ce		 mov	 ecx, esi
  002da	50		 push	 eax
  002db	6a 00		 push	 0
  002dd	e8 00 00 00 00	 call	 ?GetName@CMover@@QAEPBDH@Z ; CMover::GetName
  002e2	50		 push	 eax
  002e3	68 00 00 00 00	 push	 OFFSET ??_C@_09DPACILDJ@?$CC?$CFs?$CC?5?$CC?$CFs?$CC@
  002e8	68 89 02 00 00	 push	 649			; 00000289H
  002ed	57		 push	 edi
  002ee	e8 00 00 00 00	 call	 ?AddDefinedText@CUser@@QAAXHPBDZZ ; CUser::AddDefinedText
  002f3	83 c4 14	 add	 esp, 20			; 00000014H

; 2505 : 					}
; 2506 : 				}

  002f6	eb 36		 jmp	 SHORT $LN91@SubLootDro
$LN31@SubLootDro:

; 2507 : 				else
; 2508 : 				{
; 2509 : 					( (CUser*)pGetUser )->AddDefinedText( TID_GAME_REAPITEM, "\"%s\"", pItemBase->GetProp()->szName );

  002f8	8b bd 10 ff ff
	ff		 mov	 edi, DWORD PTR _pItemBase$1$[ebp]
  002fe	8b cf		 mov	 ecx, edi
  00300	e8 00 00 00 00	 call	 ?GetPropA@CItemBase@@QAEPAUItemProp@@XZ ; CItemBase::GetPropA
  00305	83 c0 04	 add	 eax, 4
  00308	50		 push	 eax
  00309	68 00 00 00 00	 push	 OFFSET ??_C@_04OEDFLLKD@?$CC?$CFs?$CC@
  0030e	68 74 02 00 00	 push	 628			; 00000274H
  00313	56		 push	 esi
  00314	e8 00 00 00 00	 call	 ?AddDefinedText@CUser@@QAAXHPBDZZ ; CUser::AddDefinedText
  00319	83 c4 10	 add	 esp, 16			; 00000010H

; 2510 : 				}
; 2511 : 			}

  0031c	eb 16		 jmp	 SHORT $LN10@SubLootDro
$LN29@SubLootDro:

; 2512 : 			else
; 2513 : 			{
; 2514 : 				// CreateItem을 실패함 Full
; 2515 : 				if( pGetUser == pMember )

  0031e	3b f7		 cmp	 esi, edi
  00320	75 0c		 jne	 SHORT $LN91@SubLootDro

; 2516 : 					( (CUser*)pGetUser )->AddDefinedText( TID_GAME_LACKSPACE );

  00322	68 72 02 00 00	 push	 626			; 00000272H
  00327	8b ce		 mov	 ecx, esi
  00329	e8 00 00 00 00	 call	 ?AddDefinedText@CUser@@QAEXH@Z ; CUser::AddDefinedText
$LN91@SubLootDro:

; 2487 : 
; 2488 : 	for( int i = 0; i < nMaxListMember; i++ )

  0032e	8b bd 10 ff ff
	ff		 mov	 edi, DWORD PTR _pItemBase$1$[ebp]
$LN10@SubLootDro:
  00334	8b 8d 0c ff ff
	ff		 mov	 ecx, DWORD PTR _i$1$[ebp]
  0033a	41		 inc	 ecx
  0033b	89 8d 0c ff ff
	ff		 mov	 DWORD PTR _i$1$[ebp], ecx
  00341	3b cb		 cmp	 ecx, ebx
  00343	0f 8c 47 fe ff
	ff		 jl	 $LL12@SubLootDro
$LN11@SubLootDro:

; 2517 : 			}
; 2518 : 		}									
; 2519 : 	}
; 2520 : 	
; 2521 : 	if( ( (CItemElem*)pItemBase )->IsLogable() && bSuccess )

  00349	8b cf		 mov	 ecx, edi
  0034b	e8 00 00 00 00	 call	 ?IsLogable@CItemElem@@QAEHXZ ; CItemElem::IsLogable
  00350	85 c0		 test	 eax, eax
  00352	0f 84 a8 00 00
	00		 je	 $LN86@SubLootDro
  00358	8b 9d 08 ff ff
	ff		 mov	 ebx, DWORD PTR _bSuccess$1$[ebp]
  0035e	85 db		 test	 ebx, ebx
  00360	0f 84 85 00 00
	00		 je	 $LN87@SubLootDro

; 2522 : 	{
; 2523 : 		switch( pItemBase->GetProp()->dwItemKind2 ) 

  00366	8b cf		 mov	 ecx, edi
  00368	e8 00 00 00 00	 call	 ?GetPropA@CItemBase@@QAEPAUItemProp@@XZ ; CItemBase::GetPropA
  0036d	8b 40 74	 mov	 eax, DWORD PTR [eax+116]
  00370	83 c0 f5	 add	 eax, -11		; fffffff5H
  00373	83 f8 04	 cmp	 eax, 4
  00376	77 0e		 ja	 SHORT $LN45@SubLootDro
  00378	ff 24 85 00 00
	00 00		 jmp	 DWORD PTR $LN85@SubLootDro[eax*4]
$LN40@SubLootDro:

; 2524 : 		{
; 2525 : 		case IK2_FOOD:
; 2526 : 		case IK2_MAGIC:
; 2527 : 		case IK2_POTION:
; 2528 : 		case IK2_REFRESHER:
; 2529 : 			{
; 2530 : 				if( ( ( (CItemElem*)pItemBase )->m_nItemNum ) > 9 )

  0037f	66 83 7f 74 09	 cmp	 WORD PTR [edi+116], 9
  00384	7e 65		 jle	 SHORT $LN87@SubLootDro
$LN45@SubLootDro:

; 2531 : 				{
; 2532 : 					LogItemInfo aLogItem;
; 2533 : 					aLogItem.Action = "R";
; 2534 : 					aLogItem.SendName = "GROUND";
; 2535 : 					aLogItem.RecvName = pGetUser->GetName();
; 2536 : 					aLogItem.WorldId = pGetUser->GetWorld()->GetID();
; 2537 : 					aLogItem.Gold = aLogItem.Gold2 = pGetUser->GetGold();
; 2538 : 					g_DPSrvr.OnLogItem( aLogItem, ( (CItemElem*)pItemBase ), ( (CItemElem*)pItemBase )->m_nItemNum );
; 2539 : 				}
; 2540 : 				break;
; 2541 : 			}
; 2542 : 		default:
; 2543 : 			{
; 2544 : 				LogItemInfo aLogItem;
; 2545 : 				aLogItem.Action = "R";
; 2546 : 				aLogItem.SendName = "GROUND";
; 2547 : 				aLogItem.RecvName = pGetUser->GetName();
; 2548 : 				aLogItem.WorldId = pGetUser->GetWorld()->GetID();
; 2549 : 				aLogItem.Gold = aLogItem.Gold2 = pGetUser->GetGold();
; 2550 : 				g_DPSrvr.OnLogItem( aLogItem, ( (CItemElem*)pItemBase ), ( (CItemElem*)pItemBase )->m_nItemNum );
; 2551 : 				break;
; 2552 : 			}
; 2553 : 		}
; 2554 : 	}
; 2555 : #endif // __WORLDSERVER
; 2556 : 	return bSuccess;
; 2557 : } // SubLootDropMobParty

  00386	8d 8d 14 ff ff
	ff		 lea	 ecx, DWORD PTR _aLogItem$2[ebp]
  0038c	e8 00 00 00 00	 call	 ??0_LogItemInfo@@QAE@XZ	; _LogItemInfo::_LogItemInfo
  00391	6a 00		 push	 0
  00393	8b ce		 mov	 ecx, esi
  00395	c7 85 14 ff ff
	ff 00 00 00 00	 mov	 DWORD PTR _aLogItem$2[ebp], OFFSET ??_C@_01DGKLNCNG@R@
  0039f	c7 85 18 ff ff
	ff 00 00 00 00	 mov	 DWORD PTR _aLogItem$2[ebp+4], OFFSET ??_C@_06GKBINIEJ@GROUND@
  003a9	e8 00 00 00 00	 call	 ?GetName@CMover@@QAEPBDH@Z ; CMover::GetName
  003ae	89 85 1c ff ff
	ff		 mov	 DWORD PTR _aLogItem$2[ebp+8], eax
  003b4	b9 00 00 00 00	 mov	 ecx, OFFSET ?g_DPSrvr@@3VCDPSrvr@@A ; g_DPSrvr
  003b9	8b 86 6c 01 00
	00		 mov	 eax, DWORD PTR [esi+364]
  003bf	8b 00		 mov	 eax, DWORD PTR [eax]
  003c1	89 85 20 ff ff
	ff		 mov	 DWORD PTR _aLogItem$2[ebp+12], eax
  003c7	8b 86 e0 14 00
	00		 mov	 eax, DWORD PTR [esi+5344]
  003cd	89 85 28 ff ff
	ff		 mov	 DWORD PTR _aLogItem$2[ebp+20], eax
  003d3	89 85 24 ff ff
	ff		 mov	 DWORD PTR _aLogItem$2[ebp+16], eax
  003d9	0f bf 47 74	 movsx	 eax, WORD PTR [edi+116]
  003dd	50		 push	 eax
  003de	57		 push	 edi
  003df	8d 85 14 ff ff
	ff		 lea	 eax, DWORD PTR _aLogItem$2[ebp]
  003e5	50		 push	 eax
  003e6	e8 00 00 00 00	 call	 ?OnLogItem@CDPSrvr@@QAEXAAU_LogItemInfo@@PAVCItemElem@@H@Z ; CDPSrvr::OnLogItem
$LN87@SubLootDro:
  003eb	5f		 pop	 edi
  003ec	5e		 pop	 esi
  003ed	8b c3		 mov	 eax, ebx
  003ef	5b		 pop	 ebx
  003f0	8b 4d fc	 mov	 ecx, DWORD PTR __$ArrayPad$[ebp]
  003f3	33 cd		 xor	 ecx, ebp
  003f5	e8 00 00 00 00	 call	 @__security_check_cookie@4
  003fa	8b e5		 mov	 esp, ebp
  003fc	5d		 pop	 ebp
  003fd	c2 08 00	 ret	 8
$LN86@SubLootDro:
  00400	8b 4d fc	 mov	 ecx, DWORD PTR __$ArrayPad$[ebp]
  00403	8b 85 08 ff ff
	ff		 mov	 eax, DWORD PTR _bSuccess$1$[ebp]
  00409	33 cd		 xor	 ecx, ebp
  0040b	5f		 pop	 edi
  0040c	5e		 pop	 esi
  0040d	5b		 pop	 ebx
  0040e	e8 00 00 00 00	 call	 @__security_check_cookie@4
  00413	8b e5		 mov	 esp, ebp
  00415	5d		 pop	 ebp
  00416	c2 08 00	 ret	 8
  00419	0f 1f 00	 npad	 3
$LN85@SubLootDro:
  0041c	00 00 00 00	 DD	 $LN40@SubLootDro
  00420	00 00 00 00	 DD	 $LN40@SubLootDro
  00424	00 00 00 00	 DD	 $LN45@SubLootDro
  00428	00 00 00 00	 DD	 $LN40@SubLootDro
  0042c	00 00 00 00	 DD	 $LN40@SubLootDro
?SubLootDropMobParty@CMover@@QAEHPAVCItem@@PAVCParty@@@Z ENDP ; CMover::SubLootDropMobParty
_TEXT	ENDS
; Function compile flags: /Ogtp
; File C:\IAGOS\server\v18\Source\Source\_Common\MoverActEvent.cpp
;	COMDAT ?SubLootDropMobSingle@CMover@@QAEHPAVCItem@@@Z
_TEXT	SEGMENT
_aLogItem$1 = -204					; size = 200
__$ArrayPad$ = -4					; size = 4
_pItem$ = 8						; size = 4
?SubLootDropMobSingle@CMover@@QAEHPAVCItem@@@Z PROC	; CMover::SubLootDropMobSingle, COMDAT
; _this$ = ecx

; 2331 : {

  00000	55		 push	 ebp
  00001	8b ec		 mov	 ebp, esp
  00003	81 ec cc 00 00
	00		 sub	 esp, 204		; 000000ccH
  00009	a1 00 00 00 00	 mov	 eax, DWORD PTR ___security_cookie
  0000e	33 c5		 xor	 eax, ebp
  00010	89 45 fc	 mov	 DWORD PTR __$ArrayPad$[ebp], eax
  00013	8b 45 08	 mov	 eax, DWORD PTR _pItem$[ebp]
  00016	53		 push	 ebx
  00017	56		 push	 esi
  00018	57		 push	 edi

; 2332 : 	BOOL bSuccess = TRUE;
; 2333 : #ifdef __WORLDSERVER	
; 2334 : 	CItemBase* pItemBase = pItem->m_pItemBase;

  00019	8b b0 30 02 00
	00		 mov	 esi, DWORD PTR [eax+560]
  0001f	8b d9		 mov	 ebx, ecx

; 2335 : 	bSuccess	= CreateItem( pItemBase );

  00021	6a 00		 push	 0
  00023	6a 00		 push	 0
  00025	6a 00		 push	 0
  00027	56		 push	 esi
  00028	e8 00 00 00 00	 call	 ?CreateItem@CMover@@QAEHPAVCItemBase@@PAEPAFE@Z ; CMover::CreateItem

; 2336 : 	
; 2337 : 	if( IsPlayer() && pItemBase->GetProp() != NULL )

  0002d	83 bb 30 02 00
	00 00		 cmp	 DWORD PTR [ebx+560], 0
  00034	8b f8		 mov	 edi, eax
  00036	74 6d		 je	 SHORT $LN6@SubLootDro
  00038	8b ce		 mov	 ecx, esi
  0003a	e8 00 00 00 00	 call	 ?GetPropA@CItemBase@@QAEPAUItemProp@@XZ ; CItemBase::GetPropA
  0003f	85 c0		 test	 eax, eax
  00041	74 62		 je	 SHORT $LN6@SubLootDro

; 2338 : 	{
; 2339 : 		if( bSuccess )

  00043	85 ff		 test	 edi, edi
  00045	74 52		 je	 SHORT $LN5@SubLootDro

; 2340 : 		{
; 2341 : 			((CUser*)this)->AddDefinedText( TID_GAME_REAPITEM, "\"%s\"", pItemBase->GetProp()->szName );

  00047	8b ce		 mov	 ecx, esi
  00049	e8 00 00 00 00	 call	 ?GetPropA@CItemBase@@QAEPAUItemProp@@XZ ; CItemBase::GetPropA
  0004e	83 c0 04	 add	 eax, 4
  00051	50		 push	 eax
  00052	68 00 00 00 00	 push	 OFFSET ??_C@_04OEDFLLKD@?$CC?$CFs?$CC@
  00057	68 74 02 00 00	 push	 628			; 00000274H
  0005c	53		 push	 ebx
  0005d	e8 00 00 00 00	 call	 ?AddDefinedText@CUser@@QAAXHPBDZZ ; CUser::AddDefinedText
  00062	83 c4 10	 add	 esp, 16			; 00000010H

; 2342 : 
; 2343 : 			if( IsLootSendText( pItemBase->GetProp() ) )

  00065	8b ce		 mov	 ecx, esi
  00067	e8 00 00 00 00	 call	 ?GetPropA@CItemBase@@QAEPAUItemProp@@XZ ; CItemBase::GetPropA
  0006c	50		 push	 eax
  0006d	e8 00 00 00 00	 call	 ?IsLootSendText@@YAHPAUItemProp@@@Z ; IsLootSendText
  00072	83 c4 04	 add	 esp, 4
  00075	85 c0		 test	 eax, eax
  00077	74 2c		 je	 SHORT $LN6@SubLootDro

; 2344 : 				((CUser*)this)->AddChatText( TID_GAME_REAPITEM, "\"%s\"", pItemBase->GetProp()->szName );									

  00079	8b ce		 mov	 ecx, esi
  0007b	e8 00 00 00 00	 call	 ?GetPropA@CItemBase@@QAEPAUItemProp@@XZ ; CItemBase::GetPropA
  00080	83 c0 04	 add	 eax, 4
  00083	50		 push	 eax
  00084	68 00 00 00 00	 push	 OFFSET ??_C@_04OEDFLLKD@?$CC?$CFs?$CC@
  00089	68 74 02 00 00	 push	 628			; 00000274H
  0008e	53		 push	 ebx
  0008f	e8 00 00 00 00	 call	 ?AddChatText@CUser@@QAAXHPBDZZ ; CUser::AddChatText
  00094	83 c4 10	 add	 esp, 16			; 00000010H

; 2345 : 			
; 2346 : 		}

  00097	eb 0c		 jmp	 SHORT $LN6@SubLootDro
$LN5@SubLootDro:

; 2347 : 		else
; 2348 : 			((CUser*)this)->AddDefinedText( TID_GAME_LACKSPACE );

  00099	68 72 02 00 00	 push	 626			; 00000272H
  0009e	8b cb		 mov	 ecx, ebx
  000a0	e8 00 00 00 00	 call	 ?AddDefinedText@CUser@@QAEXH@Z ; CUser::AddDefinedText
$LN6@SubLootDro:

; 2349 : 	}
; 2350 : 	
; 2351 : 	if( ( (CItemElem*)pItemBase )->IsLogable() && bSuccess )

  000a5	8b ce		 mov	 ecx, esi
  000a7	e8 00 00 00 00	 call	 ?IsLogable@CItemElem@@QAEHXZ ; CItemElem::IsLogable
  000ac	85 c0		 test	 eax, eax
  000ae	0f 84 8d 00 00
	00		 je	 $LN17@SubLootDro
  000b4	85 ff		 test	 edi, edi
  000b6	0f 84 85 00 00
	00		 je	 $LN17@SubLootDro

; 2352 : 	{
; 2353 : 		switch( pItemBase->GetProp()->dwItemKind2 ) 

  000bc	8b ce		 mov	 ecx, esi
  000be	e8 00 00 00 00	 call	 ?GetPropA@CItemBase@@QAEPAUItemProp@@XZ ; CItemBase::GetPropA
  000c3	8b 40 74	 mov	 eax, DWORD PTR [eax+116]
  000c6	83 c0 f5	 add	 eax, -11		; fffffff5H
  000c9	83 f8 04	 cmp	 eax, 4
  000cc	77 0e		 ja	 SHORT $LN14@SubLootDro
  000ce	ff 24 85 00 00
	00 00		 jmp	 DWORD PTR $LN16@SubLootDro[eax*4]
$LN9@SubLootDro:

; 2354 : 		{
; 2355 : 		case IK2_FOOD:
; 2356 : 		case IK2_MAGIC:
; 2357 : 		case IK2_POTION:
; 2358 : 		case IK2_REFRESHER:
; 2359 : 			{
; 2360 : 				if( ( (CItemElem*)pItemBase )->m_nItemNum > 9 )

  000d5	66 83 7e 74 09	 cmp	 WORD PTR [esi+116], 9
  000da	7e 65		 jle	 SHORT $LN17@SubLootDro
$LN14@SubLootDro:

; 2361 : 				{
; 2362 : 					LogItemInfo aLogItem;
; 2363 : 					aLogItem.Action = "R";
; 2364 : 					aLogItem.SendName = "GROUND";
; 2365 : 					aLogItem.RecvName = GetName();
; 2366 : 					aLogItem.WorldId = GetWorld()->GetID();
; 2367 : 					aLogItem.Gold = aLogItem.Gold2 = GetGold();
; 2368 : 					g_DPSrvr.OnLogItem( aLogItem, ( (CItemElem*)pItemBase ), ( (CItemElem*)pItemBase )->m_nItemNum );
; 2369 : 				}
; 2370 : 				break;
; 2371 : 			}
; 2372 : 		default:
; 2373 : 			{
; 2374 : 				LogItemInfo aLogItem;
; 2375 : 				aLogItem.Action = "R";
; 2376 : 				aLogItem.SendName = "GROUND";
; 2377 : 				aLogItem.RecvName = GetName();
; 2378 : 				aLogItem.WorldId = GetWorld()->GetID();
; 2379 : 				aLogItem.Gold = aLogItem.Gold2 = GetGold();
; 2380 : 				g_DPSrvr.OnLogItem( aLogItem, ( (CItemElem*)pItemBase ), ( (CItemElem*)pItemBase )->m_nItemNum );
; 2381 : 				break;
; 2382 : 			}
; 2383 : 		}
; 2384 : 	}
; 2385 : 
; 2386 : #endif // WorldServer
; 2387 : 	return bSuccess;
; 2388 : } // SubLootDropMobSingle

  000dc	8d 8d 34 ff ff
	ff		 lea	 ecx, DWORD PTR _aLogItem$1[ebp]
  000e2	e8 00 00 00 00	 call	 ??0_LogItemInfo@@QAE@XZ	; _LogItemInfo::_LogItemInfo
  000e7	6a 00		 push	 0
  000e9	8b cb		 mov	 ecx, ebx
  000eb	c7 85 34 ff ff
	ff 00 00 00 00	 mov	 DWORD PTR _aLogItem$1[ebp], OFFSET ??_C@_01DGKLNCNG@R@
  000f5	c7 85 38 ff ff
	ff 00 00 00 00	 mov	 DWORD PTR _aLogItem$1[ebp+4], OFFSET ??_C@_06GKBINIEJ@GROUND@
  000ff	e8 00 00 00 00	 call	 ?GetName@CMover@@QAEPBDH@Z ; CMover::GetName
  00104	89 85 3c ff ff
	ff		 mov	 DWORD PTR _aLogItem$1[ebp+8], eax
  0010a	b9 00 00 00 00	 mov	 ecx, OFFSET ?g_DPSrvr@@3VCDPSrvr@@A ; g_DPSrvr
  0010f	8b 83 6c 01 00
	00		 mov	 eax, DWORD PTR [ebx+364]
  00115	8b 00		 mov	 eax, DWORD PTR [eax]
  00117	89 85 40 ff ff
	ff		 mov	 DWORD PTR _aLogItem$1[ebp+12], eax
  0011d	8b 83 e0 14 00
	00		 mov	 eax, DWORD PTR [ebx+5344]
  00123	89 85 48 ff ff
	ff		 mov	 DWORD PTR _aLogItem$1[ebp+20], eax
  00129	89 85 44 ff ff
	ff		 mov	 DWORD PTR _aLogItem$1[ebp+16], eax
  0012f	0f bf 46 74	 movsx	 eax, WORD PTR [esi+116]
  00133	50		 push	 eax
  00134	56		 push	 esi
  00135	8d 85 34 ff ff
	ff		 lea	 eax, DWORD PTR _aLogItem$1[ebp]
  0013b	50		 push	 eax
  0013c	e8 00 00 00 00	 call	 ?OnLogItem@CDPSrvr@@QAEXAAU_LogItemInfo@@PAVCItemElem@@H@Z ; CDPSrvr::OnLogItem
$LN17@SubLootDro:
  00141	8b 4d fc	 mov	 ecx, DWORD PTR __$ArrayPad$[ebp]
  00144	8b c7		 mov	 eax, edi
  00146	5f		 pop	 edi
  00147	5e		 pop	 esi
  00148	33 cd		 xor	 ecx, ebp
  0014a	5b		 pop	 ebx
  0014b	e8 00 00 00 00	 call	 @__security_check_cookie@4
  00150	8b e5		 mov	 esp, ebp
  00152	5d		 pop	 ebp
  00153	c2 04 00	 ret	 4
  00156	66 90		 npad	 2
$LN16@SubLootDro:
  00158	00 00 00 00	 DD	 $LN9@SubLootDro
  0015c	00 00 00 00	 DD	 $LN9@SubLootDro
  00160	00 00 00 00	 DD	 $LN14@SubLootDro
  00164	00 00 00 00	 DD	 $LN9@SubLootDro
  00168	00 00 00 00	 DD	 $LN9@SubLootDro
?SubLootDropMobSingle@CMover@@QAEHPAVCItem@@@Z ENDP	; CMover::SubLootDropMobSingle
_TEXT	ENDS
; Function compile flags: /Ogtp
; File C:\IAGOS\server\v18\Source\Source\_Common\MoverActEvent.cpp
;	COMDAT ?SubLootDropNotMob@CMover@@QAEHPAVCItem@@@Z
_TEXT	SEGMENT
_aLogItem$1 = -204					; size = 200
__$ArrayPad$ = -4					; size = 4
_pItem$ = 8						; size = 4
?SubLootDropNotMob@CMover@@QAEHPAVCItem@@@Z PROC	; CMover::SubLootDropNotMob, COMDAT
; _this$ = ecx

; 2583 : {

  00000	55		 push	 ebp
  00001	8b ec		 mov	 ebp, esp
  00003	81 ec cc 00 00
	00		 sub	 esp, 204		; 000000ccH
  00009	a1 00 00 00 00	 mov	 eax, DWORD PTR ___security_cookie
  0000e	33 c5		 xor	 eax, ebp
  00010	89 45 fc	 mov	 DWORD PTR __$ArrayPad$[ebp], eax
  00013	8b 45 08	 mov	 eax, DWORD PTR _pItem$[ebp]
  00016	53		 push	 ebx
  00017	56		 push	 esi
  00018	57		 push	 edi

; 2584 : 	BOOL bSuccess = TRUE;
; 2585 : #ifdef __WORLDSERVER
; 2586 : 	CItemBase* pItemBase = pItem->m_pItemBase;

  00019	8b b0 30 02 00
	00		 mov	 esi, DWORD PTR [eax+560]
  0001f	8b d9		 mov	 ebx, ecx

; 2587 : 	
; 2588 : 	bSuccess	= CreateItem( pItemBase );

  00021	6a 00		 push	 0
  00023	6a 00		 push	 0
  00025	6a 00		 push	 0
  00027	56		 push	 esi
  00028	e8 00 00 00 00	 call	 ?CreateItem@CMover@@QAEHPAVCItemBase@@PAEPAFE@Z ; CMover::CreateItem

; 2589 : 	if( TRUE == IsPlayer() && pItemBase->GetProp() != NULL )

  0002d	83 bb 30 02 00
	00 01		 cmp	 DWORD PTR [ebx+560], 1
  00034	8b f8		 mov	 edi, eax
  00036	75 6d		 jne	 SHORT $LN6@SubLootDro
  00038	8b ce		 mov	 ecx, esi
  0003a	e8 00 00 00 00	 call	 ?GetPropA@CItemBase@@QAEPAUItemProp@@XZ ; CItemBase::GetPropA
  0003f	85 c0		 test	 eax, eax
  00041	74 62		 je	 SHORT $LN6@SubLootDro

; 2590 : 	{
; 2591 : 		if( bSuccess )

  00043	85 ff		 test	 edi, edi
  00045	74 52		 je	 SHORT $LN5@SubLootDro

; 2592 : 		{
; 2593 : 			((CUser*)this)->AddDefinedText( TID_GAME_REAPITEM, "\"%s\"", pItemBase->GetProp()->szName );						

  00047	8b ce		 mov	 ecx, esi
  00049	e8 00 00 00 00	 call	 ?GetPropA@CItemBase@@QAEPAUItemProp@@XZ ; CItemBase::GetPropA
  0004e	83 c0 04	 add	 eax, 4
  00051	50		 push	 eax
  00052	68 00 00 00 00	 push	 OFFSET ??_C@_04OEDFLLKD@?$CC?$CFs?$CC@
  00057	68 74 02 00 00	 push	 628			; 00000274H
  0005c	53		 push	 ebx
  0005d	e8 00 00 00 00	 call	 ?AddDefinedText@CUser@@QAAXHPBDZZ ; CUser::AddDefinedText
  00062	83 c4 10	 add	 esp, 16			; 00000010H

; 2594 : 
; 2595 : 			if( IsLootSendText( pItemBase->GetProp() ) )

  00065	8b ce		 mov	 ecx, esi
  00067	e8 00 00 00 00	 call	 ?GetPropA@CItemBase@@QAEPAUItemProp@@XZ ; CItemBase::GetPropA
  0006c	50		 push	 eax
  0006d	e8 00 00 00 00	 call	 ?IsLootSendText@@YAHPAUItemProp@@@Z ; IsLootSendText
  00072	83 c4 04	 add	 esp, 4
  00075	85 c0		 test	 eax, eax
  00077	74 2c		 je	 SHORT $LN6@SubLootDro

; 2596 : 				((CUser*)this)->AddChatText( TID_GAME_REAPITEM, "\"%s\"", pItemBase->GetProp()->szName );									

  00079	8b ce		 mov	 ecx, esi
  0007b	e8 00 00 00 00	 call	 ?GetPropA@CItemBase@@QAEPAUItemProp@@XZ ; CItemBase::GetPropA
  00080	83 c0 04	 add	 eax, 4
  00083	50		 push	 eax
  00084	68 00 00 00 00	 push	 OFFSET ??_C@_04OEDFLLKD@?$CC?$CFs?$CC@
  00089	68 74 02 00 00	 push	 628			; 00000274H
  0008e	53		 push	 ebx
  0008f	e8 00 00 00 00	 call	 ?AddChatText@CUser@@QAAXHPBDZZ ; CUser::AddChatText
  00094	83 c4 10	 add	 esp, 16			; 00000010H

; 2597 : 		}

  00097	eb 0c		 jmp	 SHORT $LN6@SubLootDro
$LN5@SubLootDro:

; 2598 : 		else
; 2599 : 			((CUser*)this)->AddDefinedText( TID_GAME_LACKSPACE );

  00099	68 72 02 00 00	 push	 626			; 00000272H
  0009e	8b cb		 mov	 ecx, ebx
  000a0	e8 00 00 00 00	 call	 ?AddDefinedText@CUser@@QAEXH@Z ; CUser::AddDefinedText
$LN6@SubLootDro:

; 2600 : 	}
; 2601 : 	
; 2602 : 	if( ( (CItemElem*)pItemBase )->IsLogable() && bSuccess )

  000a5	8b ce		 mov	 ecx, esi
  000a7	e8 00 00 00 00	 call	 ?IsLogable@CItemElem@@QAEHXZ ; CItemElem::IsLogable
  000ac	85 c0		 test	 eax, eax
  000ae	0f 84 8d 00 00
	00		 je	 $LN17@SubLootDro
  000b4	85 ff		 test	 edi, edi
  000b6	0f 84 85 00 00
	00		 je	 $LN17@SubLootDro

; 2603 : 	{
; 2604 : 		switch( pItemBase->GetProp()->dwItemKind2 ) 

  000bc	8b ce		 mov	 ecx, esi
  000be	e8 00 00 00 00	 call	 ?GetPropA@CItemBase@@QAEPAUItemProp@@XZ ; CItemBase::GetPropA
  000c3	8b 40 74	 mov	 eax, DWORD PTR [eax+116]
  000c6	83 c0 f5	 add	 eax, -11		; fffffff5H
  000c9	83 f8 04	 cmp	 eax, 4
  000cc	77 0e		 ja	 SHORT $LN14@SubLootDro
  000ce	ff 24 85 00 00
	00 00		 jmp	 DWORD PTR $LN16@SubLootDro[eax*4]
$LN9@SubLootDro:

; 2605 : 		{
; 2606 : 		case IK2_FOOD:
; 2607 : 		case IK2_MAGIC:
; 2608 : 		case IK2_POTION:
; 2609 : 		case IK2_REFRESHER:
; 2610 : 			{
; 2611 : 				if( ( (CItemElem*)pItemBase )->m_nItemNum > 9 )

  000d5	66 83 7e 74 09	 cmp	 WORD PTR [esi+116], 9
  000da	7e 65		 jle	 SHORT $LN17@SubLootDro
$LN14@SubLootDro:

; 2612 : 				{
; 2613 : 					LogItemInfo aLogItem;
; 2614 : 					aLogItem.Action = "R";
; 2615 : 					aLogItem.SendName = "GROUND";
; 2616 : 					aLogItem.RecvName = GetName();
; 2617 : 					aLogItem.WorldId = GetWorld()->GetID();
; 2618 : 					aLogItem.Gold = aLogItem.Gold2 = GetGold();
; 2619 : 					g_DPSrvr.OnLogItem( aLogItem, ( (CItemElem*)pItemBase ), ( (CItemElem*)pItemBase )->m_nItemNum );
; 2620 : 				}
; 2621 : 				break;
; 2622 : 			}
; 2623 : 		default:
; 2624 : 			{
; 2625 : 				LogItemInfo aLogItem;
; 2626 : 				aLogItem.Action = "R";
; 2627 : 				aLogItem.SendName = "GROUND";
; 2628 : 				aLogItem.RecvName = GetName();
; 2629 : 				aLogItem.WorldId = GetWorld()->GetID();
; 2630 : 				aLogItem.Gold = aLogItem.Gold2 = GetGold();
; 2631 : 				g_DPSrvr.OnLogItem( aLogItem, ( (CItemElem*)pItemBase ), ( (CItemElem*)pItemBase )->m_nItemNum );
; 2632 : 				break;
; 2633 : 			}
; 2634 : 		}
; 2635 : 	}
; 2636 : #endif // __WORLDSERVER
; 2637 : 	
; 2638 : 	return bSuccess;
; 2639 : } // SubLootDropNotMob

  000dc	8d 8d 34 ff ff
	ff		 lea	 ecx, DWORD PTR _aLogItem$1[ebp]
  000e2	e8 00 00 00 00	 call	 ??0_LogItemInfo@@QAE@XZ	; _LogItemInfo::_LogItemInfo
  000e7	6a 00		 push	 0
  000e9	8b cb		 mov	 ecx, ebx
  000eb	c7 85 34 ff ff
	ff 00 00 00 00	 mov	 DWORD PTR _aLogItem$1[ebp], OFFSET ??_C@_01DGKLNCNG@R@
  000f5	c7 85 38 ff ff
	ff 00 00 00 00	 mov	 DWORD PTR _aLogItem$1[ebp+4], OFFSET ??_C@_06GKBINIEJ@GROUND@
  000ff	e8 00 00 00 00	 call	 ?GetName@CMover@@QAEPBDH@Z ; CMover::GetName
  00104	89 85 3c ff ff
	ff		 mov	 DWORD PTR _aLogItem$1[ebp+8], eax
  0010a	b9 00 00 00 00	 mov	 ecx, OFFSET ?g_DPSrvr@@3VCDPSrvr@@A ; g_DPSrvr
  0010f	8b 83 6c 01 00
	00		 mov	 eax, DWORD PTR [ebx+364]
  00115	8b 00		 mov	 eax, DWORD PTR [eax]
  00117	89 85 40 ff ff
	ff		 mov	 DWORD PTR _aLogItem$1[ebp+12], eax
  0011d	8b 83 e0 14 00
	00		 mov	 eax, DWORD PTR [ebx+5344]
  00123	89 85 48 ff ff
	ff		 mov	 DWORD PTR _aLogItem$1[ebp+20], eax
  00129	89 85 44 ff ff
	ff		 mov	 DWORD PTR _aLogItem$1[ebp+16], eax
  0012f	0f bf 46 74	 movsx	 eax, WORD PTR [esi+116]
  00133	50		 push	 eax
  00134	56		 push	 esi
  00135	8d 85 34 ff ff
	ff		 lea	 eax, DWORD PTR _aLogItem$1[ebp]
  0013b	50		 push	 eax
  0013c	e8 00 00 00 00	 call	 ?OnLogItem@CDPSrvr@@QAEXAAU_LogItemInfo@@PAVCItemElem@@H@Z ; CDPSrvr::OnLogItem
$LN17@SubLootDro:
  00141	8b 4d fc	 mov	 ecx, DWORD PTR __$ArrayPad$[ebp]
  00144	8b c7		 mov	 eax, edi
  00146	5f		 pop	 edi
  00147	5e		 pop	 esi
  00148	33 cd		 xor	 ecx, ebp
  0014a	5b		 pop	 ebx
  0014b	e8 00 00 00 00	 call	 @__security_check_cookie@4
  00150	8b e5		 mov	 esp, ebp
  00152	5d		 pop	 ebp
  00153	c2 04 00	 ret	 4
  00156	66 90		 npad	 2
$LN16@SubLootDro:
  00158	00 00 00 00	 DD	 $LN9@SubLootDro
  0015c	00 00 00 00	 DD	 $LN9@SubLootDro
  00160	00 00 00 00	 DD	 $LN14@SubLootDro
  00164	00 00 00 00	 DD	 $LN9@SubLootDro
  00168	00 00 00 00	 DD	 $LN9@SubLootDro
?SubLootDropNotMob@CMover@@QAEHPAVCItem@@@Z ENDP	; CMover::SubLootDropNotMob
_TEXT	ENDS
; Function compile flags: /Ogtp
; File C:\IAGOS\server\v18\Source\Source\_Common\Mover.h
; File C:\IAGOS\server\v18\Source\Source\_Common\Project.h
; File C:\IAGOS\server\v18\Source\Source\_Common\Mover.h
; File C:\IAGOS\server\v18\Source\Source\_Common\Project.h
; File C:\IAGOS\server\v18\Source\Source\_Common\Mover.h
;	COMDAT ?GetPropA@CMover@@QAEPAUMoverProp@@XZ
_TEXT	SEGMENT
?GetPropA@CMover@@QAEPAUMoverProp@@XZ PROC		; CMover::GetPropA, COMDAT
; _this$ = ecx

; 1020 : 	MoverProp*		GetProp() { return prj.GetMoverProp( m_dwIndex ); }	// 객체의 프로퍼티 얻기 	

  00000	8b 81 74 01 00
	00		 mov	 eax, DWORD PTR [ecx+372]
; File C:\IAGOS\server\v18\Source\Source\_Common\Project.h

; 1406 : 	VERIFY_RANGE( nIndex, 0, m_nMoverPropSize, "GetMoverProp range_error", NULL );

  00006	8b 0d b4 01 00
	00		 mov	 ecx, DWORD PTR ?prj@@3VCProject@@A+436
  0000c	85 c0		 test	 eax, eax
  0000e	78 11		 js	 SHORT $LN8@GetPropA
  00010	3b c1		 cmp	 eax, ecx
  00012	7d 0d		 jge	 SHORT $LN8@GetPropA

; 1407 : 	return m_pPropMover + nIndex;

  00014	69 c0 90 06 00
	00		 imul	 eax, eax, 1680
  0001a	03 05 b8 01 00
	00		 add	 eax, DWORD PTR ?prj@@3VCProject@@A+440
; File C:\IAGOS\server\v18\Source\Source\_Common\Mover.h

; 1020 : 	MoverProp*		GetProp() { return prj.GetMoverProp( m_dwIndex ); }	// 객체의 프로퍼티 얻기 	

  00020	c3		 ret	 0
$LN8@GetPropA:
; File C:\IAGOS\server\v18\Source\Source\_Common\Project.h

; 579  : 	LPCTSTR szErr = Error( _T( "%s min:%d, max:%d, index:%d" ), szMsg, nMin, nMax, nIndex ); 

  00021	50		 push	 eax
  00022	51		 push	 ecx
  00023	6a 00		 push	 0
  00025	68 00 00 00 00	 push	 OFFSET ??_C@_0BJ@GKPOBPPI@GetMoverProp?5range_error@
  0002a	68 00 00 00 00	 push	 OFFSET ??_C@_0BM@HMFGHCP@?$CFs?5min?3?$CFd?0?5max?3?$CFd?0?5index?3?$CFd@
  0002f	e8 00 00 00 00	 call	 ?Error@@YAPBDPBDZZ	; Error
  00034	83 c4 14	 add	 esp, 20			; 00000014H
; File C:\IAGOS\server\v18\Source\Source\_Common\Mover.h

; 1020 : 	MoverProp*		GetProp() { return prj.GetMoverProp( m_dwIndex ); }	// 객체의 프로퍼티 얻기 	

  00037	33 c0		 xor	 eax, eax
  00039	c3		 ret	 0
?GetPropA@CMover@@QAEPAUMoverProp@@XZ ENDP		; CMover::GetPropA
_TEXT	ENDS
; Function compile flags: /Ogtp
; File C:\IAGOS\server\v18\Source\Source\_Common\Item.h
;	COMDAT ?IsFull@?$CItemContainer@VCItemElem@@@@QAEHPAVCItemElem@@PAUItemProp@@F@Z
_TEXT	SEGMENT
_this$1$ = -4						; size = 4
_pElem$ = 8						; size = 4
_pItemProp$ = 12					; size = 4
_nNum$ = 16						; size = 2
tv344 = 16						; size = 4
?IsFull@?$CItemContainer@VCItemElem@@@@QAEHPAVCItemElem@@PAUItemProp@@F@Z PROC ; CItemContainer<CItemElem>::IsFull, COMDAT
; _this$ = ecx

; 632  : {

  00000	55		 push	 ebp
  00001	8b ec		 mov	 ebp, esp
  00003	51		 push	 ecx

; 633  : 	int nId;
; 634  : 	short nNumtmp	= nNum;

  00004	0f b7 55 10	 movzx	 edx, WORD PTR _nNum$[ebp]
  00008	53		 push	 ebx
  00009	56		 push	 esi
  0000a	8b f1		 mov	 esi, ecx
  0000c	57		 push	 edi

; 635  : 	CItemElem* pElemtmp;
; 636  : 	for( DWORD i = 0; i < m_dwIndexNum; i++ )

  0000d	33 ff		 xor	 edi, edi
  0000f	89 75 fc	 mov	 DWORD PTR _this$1$[ebp], esi
  00012	39 7e 08	 cmp	 DWORD PTR [esi+8], edi
  00015	0f 86 7e 00 00
	00		 jbe	 $LN19@IsFull

; 637  : 	{
; 638  : 		nId	= m_apIndex[i];

  0001b	8b 5e 04	 mov	 ebx, DWORD PTR [esi+4]
  0001e	66 90		 npad	 2
$LL4@IsFull:
  00020	8b 03		 mov	 eax, DWORD PTR [ebx]

; 639  : 		if( nId < 0 || nId >= (int)( m_dwItemMax ) )

  00022	85 c0		 test	 eax, eax
  00024	78 6a		 js	 SHORT $LN2@IsFull
  00026	3b 46 0c	 cmp	 eax, DWORD PTR [esi+12]
  00029	7d 65		 jge	 SHORT $LN2@IsFull

; 640  : 			continue;
; 641  : 		pElemtmp	= (CItemElem*)&m_apItem[nId];

  0002b	69 c8 b0 00 00
	00		 imul	 ecx, eax, 176
  00031	03 4e 10	 add	 ecx, DWORD PTR [esi+16]

; 50   : 	BOOL			IsEmpty() { return m_dwItemId ? FALSE : TRUE; }

  00034	8b 41 0c	 mov	 eax, DWORD PTR [ecx+12]
  00037	85 c0		 test	 eax, eax

; 642  : 		if( pElemtmp->IsEmpty() )

  00039	75 10		 jne	 SHORT $LN7@IsFull

; 643  : 		{
; 644  : 			if( nNumtmp > (short)pItemProp->dwPackMax )

  0003b	8b 45 0c	 mov	 eax, DWORD PTR _pItemProp$[ebp]
  0003e	0f b7 40 6c	 movzx	 eax, WORD PTR [eax+108]
  00042	66 3b d0	 cmp	 dx, ax
  00045	7e 60		 jle	 SHORT $LN12@IsFull

; 645  : 				nNumtmp		-= (short)pItemProp->dwPackMax;

  00047	2b d0		 sub	 edx, eax

; 646  : 			else
; 647  : 				return FALSE;
; 648  : 		}

  00049	eb 45		 jmp	 SHORT $LN2@IsFull
$LN7@IsFull:

; 649  : 		else if( pElem->m_dwItemId == pElemtmp->m_dwItemId
; 650  : 				&& pElem->m_byFlag == pElemtmp->m_byFlag && pElem->m_bCharged == pElemtmp->m_bCharged )

  0004b	8b 75 08	 mov	 esi, DWORD PTR _pElem$[ebp]
  0004e	39 46 0c	 cmp	 DWORD PTR [esi+12], eax
  00051	75 3a		 jne	 SHORT $LN24@IsFull
  00053	8a 46 76	 mov	 al, BYTE PTR [esi+118]
  00056	3a 41 76	 cmp	 al, BYTE PTR [ecx+118]
  00059	75 32		 jne	 SHORT $LN24@IsFull
  0005b	8b 86 a4 00 00
	00		 mov	 eax, DWORD PTR [esi+164]
  00061	3b 81 a4 00 00
	00		 cmp	 eax, DWORD PTR [ecx+164]
  00067	75 24		 jne	 SHORT $LN24@IsFull

; 651  : 		{
; 652  : 			if( pElemtmp->m_nItemNum + nNumtmp > (short)pItemProp->dwPackMax )

  00069	0f b7 71 74	 movzx	 esi, WORD PTR [ecx+116]
  0006d	0f bf c2	 movsx	 eax, dx
  00070	0f bf ce	 movsx	 ecx, si
  00073	03 c8		 add	 ecx, eax
  00075	89 4d 10	 mov	 DWORD PTR tv344[ebp], ecx
  00078	8b 4d 0c	 mov	 ecx, DWORD PTR _pItemProp$[ebp]
  0007b	0f b7 41 6c	 movzx	 eax, WORD PTR [ecx+108]
  0007f	98		 cwde
  00080	39 45 10	 cmp	 DWORD PTR tv344[ebp], eax
  00083	7e 22		 jle	 SHORT $LN12@IsFull

; 653  : 				nNumtmp	-= ( (short)pItemProp->dwPackMax - pElemtmp->m_nItemNum );

  00085	0f b7 41 6c	 movzx	 eax, WORD PTR [ecx+108]
  00089	2b f0		 sub	 esi, eax
  0008b	03 d6		 add	 edx, esi
$LN24@IsFull:

; 635  : 	CItemElem* pElemtmp;
; 636  : 	for( DWORD i = 0; i < m_dwIndexNum; i++ )

  0008d	8b 75 fc	 mov	 esi, DWORD PTR _this$1$[ebp]
$LN2@IsFull:
  00090	47		 inc	 edi
  00091	83 c3 04	 add	 ebx, 4
  00094	3b 7e 08	 cmp	 edi, DWORD PTR [esi+8]
  00097	72 87		 jb	 SHORT $LL4@IsFull
$LN19@IsFull:
  00099	5f		 pop	 edi

; 654  : 			else
; 655  : 				return FALSE;
; 656  : 		}
; 657  : 	}
; 658  : 
; 659  : 	return TRUE;
; 660  : }

  0009a	5e		 pop	 esi
  0009b	b8 01 00 00 00	 mov	 eax, 1
  000a0	5b		 pop	 ebx
  000a1	8b e5		 mov	 esp, ebp
  000a3	5d		 pop	 ebp
  000a4	c2 0c 00	 ret	 12			; 0000000cH
$LN12@IsFull:
  000a7	5f		 pop	 edi
  000a8	5e		 pop	 esi
  000a9	33 c0		 xor	 eax, eax
  000ab	5b		 pop	 ebx
  000ac	8b e5		 mov	 esp, ebp
  000ae	5d		 pop	 ebp
  000af	c2 0c 00	 ret	 12			; 0000000cH
?IsFull@?$CItemContainer@VCItemElem@@@@QAEHPAVCItemElem@@PAUItemProp@@F@Z ENDP ; CItemContainer<CItemElem>::IsFull
_TEXT	ENDS
; Function compile flags: /Ogtp
; File C:\IAGOS\server\v18\Source\Source\_Common\ModelObject.h
;	COMDAT ?GetMatrixBone@CModelObject@@QAEPAUD3DXMATRIX@@H@Z
_TEXT	SEGMENT
_nBoneIdx$ = 8						; size = 4
?GetMatrixBone@CModelObject@@QAEPAUD3DXMATRIX@@H@Z PROC	; CModelObject::GetMatrixBone, COMDAT
; _this$ = ecx

; 323  : 	{

  00000	55		 push	 ebp
  00001	8b ec		 mov	 ebp, esp

; 324  : 		if( m_pBone == NULL )	return NULL;

  00003	83 b9 84 2a 00
	00 00		 cmp	 DWORD PTR [ecx+10884], 0
  0000a	74 16		 je	 SHORT $LN5@GetMatrixB

; 325  : 		if( m_mUpdateBone == NULL )	return NULL;

  0000c	8b 89 9c 2a 00
	00		 mov	 ecx, DWORD PTR [ecx+10908]
  00012	85 c9		 test	 ecx, ecx
  00014	74 0c		 je	 SHORT $LN5@GetMatrixB

; 326  : 		return &m_mUpdateBone[ nBoneIdx ];

  00016	8b 45 08	 mov	 eax, DWORD PTR _nBoneIdx$[ebp]
  00019	c1 e0 06	 shl	 eax, 6
  0001c	03 c1		 add	 eax, ecx

; 327  : 	}

  0001e	5d		 pop	 ebp
  0001f	c2 04 00	 ret	 4
$LN5@GetMatrixB:

; 325  : 		if( m_mUpdateBone == NULL )	return NULL;

  00022	33 c0		 xor	 eax, eax

; 327  : 	}

  00024	5d		 pop	 ebp
  00025	c2 04 00	 ret	 4
?GetMatrixBone@CModelObject@@QAEPAUD3DXMATRIX@@H@Z ENDP	; CModelObject::GetMatrixBone
_TEXT	ENDS
; Function compile flags: /Ogtp
; File C:\IAGOS\server\v18\Source\Source\_Common\ModelObject.h
;	COMDAT ?GetEventPos@CModelObject@@QAEXPAUD3DXVECTOR3@@H@Z
_TEXT	SEGMENT
_pOut$ = 8						; size = 4
_nIdx$ = 12						; size = 4
?GetEventPos@CModelObject@@QAEXPAUD3DXVECTOR3@@H@Z PROC	; CModelObject::GetEventPos, COMDAT
; _this$ = ecx

; 315  : 	{ 

  00000	55		 push	 ebp
  00001	8b ec		 mov	 ebp, esp

; 316  : 		if( m_pBone == NULL )	return;

  00003	8b 91 84 2a 00
	00		 mov	 edx, DWORD PTR [ecx+10884]
  00009	85 d2		 test	 edx, edx
  0000b	74 2e		 je	 SHORT $LN1@GetEventPo

; 317  : 		if( m_mUpdateBone == NULL )	return;

  0000d	56		 push	 esi
  0000e	8b b1 9c 2a 00
	00		 mov	 esi, DWORD PTR [ecx+10908]
  00014	85 f6		 test	 esi, esi
  00016	74 22		 je	 SHORT $LN7@GetEventPo

; 318  : 		D3DXVec3TransformCoord( pOut, &m_pBone->m_vEvent[nIdx], &m_mUpdateBone[ m_pBone->m_nEventParentIdx[nIdx] ] );

  00018	8b 4d 0c	 mov	 ecx, DWORD PTR _nIdx$[ebp]
  0001b	8b 84 8a c0 01
	00 00		 mov	 eax, DWORD PTR [edx+ecx*4+448]
  00022	c1 e0 06	 shl	 eax, 6
  00025	03 c6		 add	 eax, esi
  00027	50		 push	 eax
  00028	8d 41 2c	 lea	 eax, DWORD PTR [ecx+44]
  0002b	8d 04 41	 lea	 eax, DWORD PTR [ecx+eax*2]
  0002e	8d 04 82	 lea	 eax, DWORD PTR [edx+eax*4]
  00031	50		 push	 eax
  00032	ff 75 08	 push	 DWORD PTR _pOut$[ebp]
  00035	e8 00 00 00 00	 call	 _D3DXVec3TransformCoord@12
$LN7@GetEventPo:
  0003a	5e		 pop	 esi
$LN1@GetEventPo:

; 319  : 		// 곱한 결과인 pOut은 로컬기준이므로 최종 m_mWorld와 곱해줘야 한다.
; 320  : 		// vFinal = pOut * m_mWorld;
; 321  : 	}

  0003b	5d		 pop	 ebp
  0003c	c2 08 00	 ret	 8
?GetEventPos@CModelObject@@QAEXPAUD3DXVECTOR3@@H@Z ENDP	; CModelObject::GetEventPos
_TEXT	ENDS
; Function compile flags: /Ogtp
; File C:\IAGOS\server\v18\Source\Source\_Common\ModelObject.h
;	COMDAT ?UpdateMatrixBone@CModelObject@@QAEXXZ
_TEXT	SEGMENT
tv139 = -4						; size = 4
?UpdateMatrixBone@CModelObject@@QAEXXZ PROC		; CModelObject::UpdateMatrixBone, COMDAT
; _this$ = ecx

; 310  : 	{

  00000	55		 push	 ebp
  00001	8b ec		 mov	 ebp, esp
  00003	51		 push	 ecx

; 311  : 		if( m_pMotion )		// 현재 프레임의 모션에 대한 매트릭스를 갱신시킴.

  00004	83 b9 8c 2a 00
	00 00		 cmp	 DWORD PTR [ecx+10892], 0
  0000b	74 59		 je	 SHORT $LN2@UpdateMatr

; 312  : 			m_pMotion->AnimateBone( m_mUpdateBone, m_pMotionOld, m_fFrameCurrent, GetNextFrame(), m_nFrameOld, m_bMotionBlending, m_fBlendWeight );	

  0000d	f3 0f 10 81 c4
	00 00 00	 movss	 xmm0, DWORD PTR [ecx+196]
  00015	f3 0f 10 89 a0
	00 00 00	 movss	 xmm1, DWORD PTR [ecx+160]
  0001d	53		 push	 ebx
  0001e	8b 99 8c 2a 00
	00		 mov	 ebx, DWORD PTR [ecx+10892]
  00024	56		 push	 esi
  00025	8b b1 88 2a 00
	00		 mov	 esi, DWORD PTR [ecx+10888]
  0002b	57		 push	 edi
  0002c	8b b9 9c 2a 00
	00		 mov	 edi, DWORD PTR [ecx+10908]
  00032	51		 push	 ecx
  00033	f3 0f 11 04 24	 movss	 DWORD PTR [esp], xmm0
  00038	ff b1 c0 00 00
	00		 push	 DWORD PTR [ecx+192]
  0003e	f3 0f 11 4d fc	 movss	 DWORD PTR tv139[ebp], xmm1
  00043	ff b1 98 2a 00
	00		 push	 DWORD PTR [ecx+10904]
  00049	e8 00 00 00 00	 call	 ?GetNextFrame@CModel@@QAEHXZ ; CModel::GetNextFrame
  0004e	f3 0f 10 45 fc	 movss	 xmm0, DWORD PTR tv139[ebp]
  00053	50		 push	 eax
  00054	51		 push	 ecx
  00055	f3 0f 11 04 24	 movss	 DWORD PTR [esp], xmm0
  0005a	8b cb		 mov	 ecx, ebx
  0005c	56		 push	 esi
  0005d	57		 push	 edi
  0005e	e8 00 00 00 00	 call	 ?AnimateBone@CMotion@@QAEXPAUD3DXMATRIX@@PAV1@MHHHM@Z ; CMotion::AnimateBone
  00063	5f		 pop	 edi
  00064	5e		 pop	 esi
  00065	5b		 pop	 ebx
$LN2@UpdateMatr:

; 313  : 	}

  00066	8b e5		 mov	 esp, ebp
  00068	5d		 pop	 ebp
  00069	c3		 ret	 0
?UpdateMatrixBone@CModelObject@@QAEXXZ ENDP		; CModelObject::UpdateMatrixBone
_TEXT	ENDS
; Function compile flags: /Ogtp
; File C:\IAGOS\server\v18\Source\Source\_Common\Project.h
; File C:\IAGOS\server\v18\Source\Source\_Common\data.h
; File C:\IAGOS\server\v18\Source\Source\_Common\Project.h
;	COMDAT ?GetItemProp@CProject@@QAEPAUItemProp@@H@Z
_TEXT	SEGMENT
_nIndex$ = 8						; size = 4
?GetItemProp@CProject@@QAEPAUItemProp@@H@Z PROC		; CProject::GetItemProp, COMDAT
; _this$ = ecx

; 1388 : { 

  00000	55		 push	 ebp
  00001	8b ec		 mov	 ebp, esp

; 1389 : 	VERIFY_RANGE_ASSERT( nIndex, 0, m_aPropItem.GetSize(), "GetItemProp range_error", NULL );

  00003	8b 55 08	 mov	 edx, DWORD PTR _nIndex$[ebp]
  00006	56		 push	 esi
  00007	85 d2		 test	 edx, edx
  00009	78 18		 js	 SHORT $LN14@GetItemPro
  0000b	3b 91 40 02 00
	00		 cmp	 edx, DWORD PTR [ecx+576]
  00011	7d 10		 jge	 SHORT $LN14@GetItemPro
; File C:\IAGOS\server\v18\Source\Source\_Common\data.h

; 270  : 	if( dwIndex >= (DWORD)m_nMaxIndex )

  00013	73 29		 jae	 SHORT $LN18@GetItemPro

; 271  : 		return NULL;
; 272  : 	return (T*) m_apOffset[ dwIndex ];

  00015	8b 81 30 02 00
	00		 mov	 eax, DWORD PTR [ecx+560]
  0001b	5e		 pop	 esi
  0001c	8b 04 90	 mov	 eax, DWORD PTR [eax+edx*4]
; File C:\IAGOS\server\v18\Source\Source\_Common\Project.h

; 1391 : }

  0001f	5d		 pop	 ebp
  00020	c2 04 00	 ret	 4
$LN14@GetItemPro:

; 579  : 	LPCTSTR szErr = Error( _T( "%s min:%d, max:%d, index:%d" ), szMsg, nMin, nMax, nIndex ); 

  00023	52		 push	 edx
  00024	ff b1 40 02 00
	00		 push	 DWORD PTR [ecx+576]
  0002a	6a 00		 push	 0
  0002c	68 00 00 00 00	 push	 OFFSET ??_C@_0BI@BEIFNGEL@GetItemProp?5range_error@
  00031	68 00 00 00 00	 push	 OFFSET ??_C@_0BM@HMFGHCP@?$CFs?5min?3?$CFd?0?5max?3?$CFd?0?5index?3?$CFd@
  00036	e8 00 00 00 00	 call	 ?Error@@YAPBDPBDZZ	; Error
  0003b	83 c4 14	 add	 esp, 20			; 00000014H
$LN18@GetItemPro:

; 1391 : }

  0003e	33 c0		 xor	 eax, eax
  00040	5e		 pop	 esi
  00041	5d		 pop	 ebp
  00042	c2 04 00	 ret	 4
?GetItemProp@CProject@@QAEPAUItemProp@@H@Z ENDP		; CProject::GetItemProp
_TEXT	ENDS
; Function compile flags: /Ogtp
; File C:\IAGOS\server\v18\Source\Source\_network\CmnHdr.h
;	COMDAT ??0_LogItemInfo@@QAE@XZ
_TEXT	SEGMENT
??0_LogItemInfo@@QAE@XZ PROC				; _LogItemInfo::_LogItemInfo, COMDAT
; _this$ = ecx

; 636  : 	{
; 637  : 		Action = _T("");

  00000	c7 01 00 00 00
	00		 mov	 DWORD PTR [ecx], OFFSET ??_C@_00CNPNBAHC@@
  00006	0f 57 c0	 xorps	 xmm0, xmm0

; 638  : 		SendName = _T("");

  00009	c7 41 04 00 00
	00 00		 mov	 DWORD PTR [ecx+4], OFFSET ??_C@_00CNPNBAHC@@

; 639  : 		RecvName = _T("");
; 640  : 		WorldId = Gold = Gold2 = 0;
; 641  : 		Negudo = 0;
; 642  : 		MaxNegudo = 0;
; 643  : 		ItemNo = 0;
; 644  : 		//ItemName = _T("");
; 645  : 		::memset( szItemName, 0, sizeof(szItemName) );
; 646  : 		itemNumber = 0;
; 647  : 		nAbilityOption = 0;
; 648  : 		Gold_1 = 0;
; 649  : 		nSlot = 100;
; 650  : 		nSlot1 = 100;
; 651  : 		nItemResist = 0;
; 652  : 		nResistAbilityOption = 0;
; 653  : 		m_bCharged = FALSE;
; 654  : 		m_dwKeepTime = 0;
; 655  : #if __VER >= 11 // __SYS_IDENTIFY
; 656  : 		m_iRandomOptItemId = 0;
; 657  : #else	//__SYS_IDENTIFY
; 658  : 		m_nRandomOptItemId = 0;
; 659  : #endif	// __SYS_IDENTIFY
; 660  : #if __VER >= 12 // __EXT_PIERCING
; 661  : 		nPiercedSize = 0;
; 662  : //		for( int i=0; i<MAX_PIERCING_WEAPON; i++ )
; 663  : //			adwItemId[i] = 0;
; 664  : 		memset( adwItemId, 0, sizeof(adwItemId) );
; 665  : 		nUMPiercedSize = 0;
; 666  : //		for( i=0; i<MAX_PIERCING_ULTIMATE; i++ )
; 667  : //	adwUMItemId[i] = 0;
; 668  : 		memset( adwUMItemId, 0, sizeof(adwUMItemId) );
; 669  : #else // __EXT_PIERCING
; 670  : 		nPiercedSize = 0;
; 671  : 		adwItemId0 = 0;
; 672  : 		adwItemId1 = 0;
; 673  : 		adwItemId2 = 0;
; 674  : 		adwItemId3 = 0;
; 675  : #if __VER >= 9 // __ULTIMATE
; 676  : 		adwItemId4 = 0;
; 677  : #endif // __ULTIMATE
; 678  : #endif // __EXT_PIERCING
; 679  : #if __VER >= 9 // __PET_0410
; 680  : 		nPetKind = 0;
; 681  : 		nPetLevel = 0;
; 682  : 		dwPetExp = 0;
; 683  : 		wPetEnergy = 0;

  00010	33 c0		 xor	 eax, eax
  00012	c7 41 08 00 00
	00 00		 mov	 DWORD PTR [ecx+8], OFFSET ??_C@_00CNPNBAHC@@
  00019	c7 41 14 00 00
	00 00		 mov	 DWORD PTR [ecx+20], 0
  00020	c7 41 10 00 00
	00 00		 mov	 DWORD PTR [ecx+16], 0
  00027	c7 41 0c 00 00
	00 00		 mov	 DWORD PTR [ecx+12], 0
  0002e	c7 41 1c 00 00
	00 00		 mov	 DWORD PTR [ecx+28], 0
  00035	c7 41 20 00 00
	00 00		 mov	 DWORD PTR [ecx+32], 0
  0003c	c7 41 18 00 00
	00 00		 mov	 DWORD PTR [ecx+24], 0
  00043	0f 11 41 24	 movups	 XMMWORD PTR [ecx+36], xmm0
  00047	0f 11 41 34	 movups	 XMMWORD PTR [ecx+52], xmm0
  0004b	c7 41 44 00 00
	00 00		 mov	 DWORD PTR [ecx+68], 0
  00052	c7 41 48 00 00
	00 00		 mov	 DWORD PTR [ecx+72], 0
  00059	c7 41 4c 00 00
	00 00		 mov	 DWORD PTR [ecx+76], 0
  00060	c7 41 50 64 00
	00 00		 mov	 DWORD PTR [ecx+80], 100	; 00000064H
  00067	c7 41 54 64 00
	00 00		 mov	 DWORD PTR [ecx+84], 100	; 00000064H
  0006e	c7 41 58 00 00
	00 00		 mov	 DWORD PTR [ecx+88], 0
  00075	c7 41 5c 00 00
	00 00		 mov	 DWORD PTR [ecx+92], 0
  0007c	c7 41 60 00 00
	00 00		 mov	 DWORD PTR [ecx+96], 0
  00083	c7 41 64 00 00
	00 00		 mov	 DWORD PTR [ecx+100], 0
  0008a	c7 41 68 00 00
	00 00		 mov	 DWORD PTR [ecx+104], 0
  00091	c7 41 6c 00 00
	00 00		 mov	 DWORD PTR [ecx+108], 0
  00098	c7 41 70 00 00
	00 00		 mov	 DWORD PTR [ecx+112], 0
  0009f	0f 11 41 74	 movups	 XMMWORD PTR [ecx+116], xmm0
  000a3	0f 11 81 84 00
	00 00		 movups	 XMMWORD PTR [ecx+132], xmm0
  000aa	66 0f d6 81 94
	00 00 00	 movq	 QWORD PTR [ecx+148], xmm0
  000b2	c7 81 9c 00 00
	00 00 00 00 00	 mov	 DWORD PTR [ecx+156], 0
  000bc	0f 11 81 a0 00
	00 00		 movups	 XMMWORD PTR [ecx+160], xmm0
  000c3	c7 81 b0 00 00
	00 00 00 00 00	 mov	 DWORD PTR [ecx+176], 0
  000cd	89 81 bc 00 00
	00		 mov	 DWORD PTR [ecx+188], eax

; 684  : 		wPetLife = 0;
; 685  : 		nPetAL_D = 0;

  000d3	89 81 c0 00 00
	00		 mov	 DWORD PTR [ecx+192], eax

; 686  : 		nPetAL_C = 0;
; 687  : 		nPetAL_B = 0;
; 688  : 		nPetAL_A = 0;
; 689  : 		nPetAL_S = 0;

  000d9	88 81 c4 00 00
	00		 mov	 BYTE PTR [ecx+196], al

; 690  : #endif // __PET_0410
; 691  : 	}

  000df	8b c1		 mov	 eax, ecx
  000e1	66 c7 81 b4 00
	00 00 00 00	 mov	 WORD PTR [ecx+180], 0
  000ea	c7 81 b8 00 00
	00 00 00 00 00	 mov	 DWORD PTR [ecx+184], 0
  000f4	c3		 ret	 0
??0_LogItemInfo@@QAE@XZ ENDP				; _LogItemInfo::_LogItemInfo
_TEXT	ENDS
; Function compile flags: /Ogtp
; File C:\IAGOS\server\v18\Source\Source\DX_SDK\d3dx9math.h
;	COMDAT ??0D3DXVECTOR3@@QAE@XZ
_TEXT	SEGMENT
??0D3DXVECTOR3@@QAE@XZ PROC				; D3DXVECTOR3::D3DXVECTOR3, COMDAT
; _this$ = ecx

; 165  :     D3DXVECTOR3() {};

  00000	8b c1		 mov	 eax, ecx
  00002	c3		 ret	 0
??0D3DXVECTOR3@@QAE@XZ ENDP				; D3DXVECTOR3::D3DXVECTOR3
_TEXT	ENDS
; Function compile flags: /Ogtp
; File C:\Program Files (x86)\Windows Kits\10\Include\10.0.26100.0\ucrt\stdio.h
;	COMDAT _sprintf
_TEXT	SEGMENT
__Buffer$ = 8						; size = 4
__Format$ = 12						; size = 4
_sprintf PROC						; COMDAT

; 1771 :     {

  00000	55		 push	 ebp
  00001	8b ec		 mov	 ebp, esp

; 1392 :         int const _Result = __stdio_common_vsprintf(

  00003	8d 45 10	 lea	 eax, DWORD PTR __Format$[ebp+4]
  00006	50		 push	 eax
  00007	6a 00		 push	 0
  00009	ff 75 0c	 push	 DWORD PTR __Format$[ebp]
  0000c	6a ff		 push	 -1
  0000e	ff 75 08	 push	 DWORD PTR __Buffer$[ebp]
  00011	e8 00 00 00 00	 call	 ___local_stdio_printf_options
  00016	8b 08		 mov	 ecx, DWORD PTR [eax]
  00018	ff 70 04	 push	 DWORD PTR [eax+4]
  0001b	83 c9 01	 or	 ecx, 1
  0001e	51		 push	 ecx
  0001f	e8 00 00 00 00	 call	 ___stdio_common_vsprintf

; 1393 :             _CRT_INTERNAL_LOCAL_PRINTF_OPTIONS | _CRT_INTERNAL_PRINTF_LEGACY_VSPRINTF_NULL_TERMINATION,
; 1394 :             _Buffer, _BufferCount, _Format, _Locale, _ArgList);
; 1395 : 
; 1396 :         return _Result < 0 ? -1 : _Result;

  00024	83 c9 ff	 or	 ecx, -1
  00027	83 c4 1c	 add	 esp, 28			; 0000001cH
  0002a	85 c0		 test	 eax, eax
  0002c	0f 48 c1	 cmovs	 eax, ecx

; 1772 :         int _Result;
; 1773 :         va_list _ArgList;
; 1774 :         __crt_va_start(_ArgList, _Format);
; 1775 : 
; 1776 :         _Result = _vsprintf_l(_Buffer, _Format, NULL, _ArgList);
; 1777 : 
; 1778 :         __crt_va_end(_ArgList);
; 1779 :         return _Result;
; 1780 :     }

  0002f	5d		 pop	 ebp
  00030	c3		 ret	 0
_sprintf ENDP
_TEXT	ENDS
; Function compile flags: /Ogtp
; File C:\Program Files (x86)\Windows Kits\10\Include\10.0.26100.0\ucrt\corecrt_stdio_config.h
;	COMDAT ___local_stdio_printf_options
_TEXT	SEGMENT
___local_stdio_printf_options PROC			; COMDAT

; 91   :         static unsigned __int64 _OptionsStorage;
; 92   :         return &_OptionsStorage;

  00000	b8 00 00 00 00	 mov	 eax, OFFSET ?_OptionsStorage@?1??__local_stdio_printf_options@@9@4_KA ; `__local_stdio_printf_options'::`2'::_OptionsStorage

; 93   :     }

  00005	c3		 ret	 0
___local_stdio_printf_options ENDP
_TEXT	ENDS
; Function compile flags: /Ogtp
; File C:\IAGOS\server\v18\Source\Source\_Common\MoverActEvent.cpp
;	COMDAT ?__empty_global_delete@@YAXPAXI@Z
_TEXT	SEGMENT
___formal$ = 8						; size = 4
___formal$ = 12						; size = 4
?__empty_global_delete@@YAXPAXI@Z PROC			; __empty_global_delete, COMDAT

  00000	c2 00 00	 ret	 0
?__empty_global_delete@@YAXPAXI@Z ENDP			; __empty_global_delete
_TEXT	ENDS
; Function compile flags: /Ogtp
; File C:\IAGOS\server\v18\Source\Source\_Common\MoverActEvent.cpp
;	COMDAT ?__empty_global_delete@@YAXPAX@Z
_TEXT	SEGMENT
___formal$ = 8						; size = 4
?__empty_global_delete@@YAXPAX@Z PROC			; __empty_global_delete, COMDAT

  00000	c2 00 00	 ret	 0
?__empty_global_delete@@YAXPAX@Z ENDP			; __empty_global_delete
_TEXT	ENDS
END
