; Listing generated by Microsoft (R) Optimizing Compiler Version 19.44.35225.0 

	TITLE	C:\IAGOS\server\v18\Source\Output\WorldServer\Release\MoverSkill.obj
	.686P
	.XMM
	include listing.inc
	.model	flat

INCLUDELIB LIBCMT
INCLUDELIB OLDNAMES

CONST	SEGMENT
?piecewise_construct@std@@3Upiecewise_construct_t@1@B	ORG $+1 ; std::piecewise_construct
CONST	ENDS
PUBLIC	?__empty_global_delete@@YAXPAX@Z		; __empty_global_delete
PUBLIC	?__empty_global_delete@@YAXPAXI@Z		; __empty_global_delete
PUBLIC	___local_stdio_printf_options
PUBLIC	_sprintf
PUBLIC	?AtlThrowImpl@ATL@@YGXJ@Z			; ATL::AtlThrowImpl
PUBLIC	??1?$CSimpleStringT@D$0A@@ATL@@QAE@XZ		; ATL::CSimpleStringT<char,0>::~CSimpleStringT<char,0>
PUBLIC	?Empty@?$CSimpleStringT@D$0A@@ATL@@QAEXXZ	; ATL::CSimpleStringT<char,0>::Empty
PUBLIC	?ThrowMemoryException@?$CSimpleStringT@D$0A@@ATL@@KAXXZ ; ATL::CSimpleStringT<char,0>::ThrowMemoryException
PUBLIC	?Fork@?$CSimpleStringT@D$0A@@ATL@@AAEXH@Z	; ATL::CSimpleStringT<char,0>::Fork
PUBLIC	?PrepareWrite2@?$CSimpleStringT@D$0A@@ATL@@AAEXH@Z ; ATL::CSimpleStringT<char,0>::PrepareWrite2
PUBLIC	?Reallocate@?$CSimpleStringT@D$0A@@ATL@@AAEXH@Z	; ATL::CSimpleStringT<char,0>::Reallocate
PUBLIC	??0?$CStringT@DV?$StrTraitMFC@DV?$ChTraitsCRT@D@ATL@@@@@ATL@@QAE@XZ ; ATL::CStringT<char,StrTraitMFC<char,ATL::ChTraitsCRT<char> > >::CStringT<char,StrTraitMFC<char,ATL::ChTraitsCRT<char> > >
PUBLIC	??1?$CStringT@DV?$StrTraitMFC@DV?$ChTraitsCRT@D@ATL@@@@@ATL@@QAE@XZ ; ATL::CStringT<char,StrTraitMFC<char,ATL::ChTraitsCRT<char> > >::~CStringT<char,StrTraitMFC<char,ATL::ChTraitsCRT<char> > >
PUBLIC	??4?$CStringT@DV?$StrTraitMFC@DV?$ChTraitsCRT@D@ATL@@@@@ATL@@QAEAAV01@PBD@Z ; ATL::CStringT<char,StrTraitMFC<char,ATL::ChTraitsCRT<char> > >::operator=
PUBLIC	?Replace@?$CStringT@DV?$StrTraitMFC@DV?$ChTraitsCRT@D@ATL@@@@@ATL@@QAEHDD@Z ; ATL::CStringT<char,StrTraitMFC<char,ATL::ChTraitsCRT<char> > >::Replace
PUBLIC	?Format@?$CStringT@DV?$StrTraitMFC@DV?$ChTraitsCRT@D@ATL@@@@@ATL@@QAAXPBDZZ ; ATL::CStringT<char,StrTraitMFC<char,ATL::ChTraitsCRT<char> > >::Format
PUBLIC	?FormatV@?$CStringT@DV?$StrTraitMFC@DV?$ChTraitsCRT@D@ATL@@@@@ATL@@QAEXPBDPAD@Z ; ATL::CStringT<char,StrTraitMFC<char,ATL::ChTraitsCRT<char> > >::FormatV
PUBLIC	?LoadStringA@?$CStringT@DV?$StrTraitMFC@DV?$ChTraitsCRT@D@ATL@@@@@ATL@@QAEHI@Z ; ATL::CStringT<char,StrTraitMFC<char,ATL::ChTraitsCRT<char> > >::LoadStringA
PUBLIC	??0exception@std@@QAE@ABV01@@Z			; std::exception::exception
PUBLIC	??1exception@std@@UAE@XZ			; std::exception::~exception
PUBLIC	?what@exception@std@@UBEPBDXZ			; std::exception::what
PUBLIC	??_Gexception@std@@UAEPAXI@Z			; std::exception::`scalar deleting destructor'
PUBLIC	??0bad_alloc@std@@QAE@ABV01@@Z			; std::bad_alloc::bad_alloc
PUBLIC	??_Gbad_alloc@std@@UAEPAXI@Z			; std::bad_alloc::`scalar deleting destructor'
PUBLIC	??0bad_array_new_length@std@@QAE@XZ		; std::bad_array_new_length::bad_array_new_length
PUBLIC	??1bad_array_new_length@std@@UAE@XZ		; std::bad_array_new_length::~bad_array_new_length
PUBLIC	??0bad_array_new_length@std@@QAE@ABV01@@Z	; std::bad_array_new_length::bad_array_new_length
PUBLIC	??_Gbad_array_new_length@std@@UAEPAXI@Z		; std::bad_array_new_length::`scalar deleting destructor'
PUBLIC	?_Throw_bad_array_new_length@std@@YAXXZ		; std::_Throw_bad_array_new_length
PUBLIC	??0D3DXVECTOR3@@QAE@XZ				; D3DXVECTOR3::D3DXVECTOR3
PUBLIC	??0_LogItemInfo@@QAE@XZ				; _LogItemInfo::_LogItemInfo
PUBLIC	?GetDegree@@YAMABUD3DXVECTOR3@@0@Z		; GetDegree
PUBLIC	??1?$vector@EV?$allocator@E@std@@@std@@QAE@XZ	; std::vector<unsigned char,std::allocator<unsigned char> >::~vector<unsigned char,std::allocator<unsigned char> >
PUBLIC	?_Xlength@?$vector@EV?$allocator@E@std@@@std@@CAXXZ ; std::vector<unsigned char,std::allocator<unsigned char> >::_Xlength
PUBLIC	?GetItemProp@CProject@@QAEPAUItemProp@@H@Z	; CProject::GetItemProp
PUBLIC	?GetSkillProp@CProject@@QAEPAUItemProp@@H@Z	; CProject::GetSkillProp
PUBLIC	?GetText@CProject@@QAEPBDK@Z			; CProject::GetText
PUBLIC	?GetPropA@CItemElem@@QAEPAUItemProp@@XZ		; CItemElem::GetPropA
PUBLIC	?IsVisPet@CItemElem@@QAEHXZ			; CItemElem::IsVisPet
PUBLIC	?GetAt@?$CItemContainer@VCItemElem@@@@QAEPAVCItemElem@@K@Z ; CItemContainer<CItemElem>::GetAt
PUBLIC	?GetEquip@?$CItemContainer@VCItemElem@@@@QAEPAVCItemElem@@K@Z ; CItemContainer<CItemElem>::GetEquip
PUBLIC	?GetAtId@?$CItemContainer@VCItemElem@@@@QAEPAVCItemElem@@K@Z ; CItemContainer<CItemElem>::GetAtId
PUBLIC	?GetAtItemId@?$CItemContainer@VCItemElem@@@@QAEPAVCItemElem@@K@Z ; CItemContainer<CItemElem>::GetAtItemId
PUBLIC	??E?$_Tree_iterator@V?$_Tree_val@U?$_Tree_simple_types@U?$pair@$$CBKPAVIBuff@@@std@@@std@@@std@@@std@@QAEAAV01@XZ ; std::_Tree_iterator<std::_Tree_val<std::_Tree_simple_types<std::pair<unsigned long const ,IBuff *> > > >::operator++
PUBLIC	?GetRemoveSfxObj@CMover@@QAEKK@Z		; CMover::GetRemoveSfxObj
PUBLIC	?SetRemoveSfxObj@CMover@@QAEXK@Z		; CMover::SetRemoveSfxObj
PUBLIC	?DoUseEatPet@CMover@@AAEXPAVCItemElem@@@Z	; CMover::DoUseEatPet
PUBLIC	?DoUseSystemPet@CMover@@AAEXPAVCItemElem@@@Z	; CMover::DoUseSystemPet
PUBLIC	?ActivateEatPet@CMover@@QAEXPAVCItemElem@@@Z	; CMover::ActivateEatPet
PUBLIC	?ActivateSystemPet@CMover@@QAEXPAVCItemElem@@@Z	; CMover::ActivateSystemPet
PUBLIC	?InactivateEatPet@CMover@@QAEXXZ		; CMover::InactivateEatPet
PUBLIC	?InactivateSystemPet@CMover@@QAEXPAVCItemElem@@@Z ; CMover::InactivateSystemPet
PUBLIC	?SetPetVisDST@CMover@@QAEXPAVCItemElem@@@Z	; CMover::SetPetVisDST
PUBLIC	?ResetPetVisDST@CMover@@QAEXPAVCItemElem@@@Z	; CMover::ResetPetVisDST
PUBLIC	?ProcessVisPet@CMover@@QAEXXZ			; CMover::ProcessVisPet
PUBLIC	?DoUseItemPetTonic@CMover@@AAEHPAVCItemElem@@@Z	; CMover::DoUseItemPetTonic
PUBLIC	?SetValidNeedVis@CMover@@AAEHPAVCItemElem@@HAAV?$vector@EV?$allocator@E@std@@@std@@@Z ; CMover::SetValidNeedVis
PUBLIC	?GetValidVisTable@CMover@@QAE?AV?$vector@EV?$allocator@E@std@@@std@@PAVCItemElem@@@Z ; CMover::GetValidVisTable
PUBLIC	?IsSatisfyNeedVis@CMover@@QAEEPAVCItemElem@@PAUItemProp@@@Z ; CMover::IsSatisfyNeedVis
PUBLIC	?DoUseItemFeedPocket@CMover@@QAEHPAVCItemElem@@@Z ; CMover::DoUseItemFeedPocket
PUBLIC	?DoUseBarunaPet@CMover@@QAEXPAVCItemElem@@@Z	; CMover::DoUseBarunaPet
PUBLIC	?InactivateBarunaPet@CMover@@QAEXXZ		; CMover::InactivateBarunaPet
PUBLIC	?GetReuseDelay@CMover@@QAEKH@Z			; CMover::GetReuseDelay
PUBLIC	?GetPropA@CMover@@QAEPAUMoverProp@@XZ		; CMover::GetPropA
PUBLIC	?OnEndSkillState@CMover@@QAEXKK@Z		; CMover::OnEndSkillState
PUBLIC	?IsDie@CMover@@QAEHXZ				; CMover::IsDie
PUBLIC	?DoUseSkill@CMover@@QAEHKHKW4SKILLUSETYPE@@HH@Z	; CMover::DoUseSkill
PUBLIC	?OnAfterUseItem@CMover@@QAEXPBUItemProp@@@Z	; CMover::OnAfterUseItem
PUBLIC	?DoUseItemVirtual@CMover@@QAEHKH@Z		; CMover::DoUseItemVirtual
PUBLIC	?DoUseItem@CMover@@QAEHKKH@Z			; CMover::DoUseItem
PUBLIC	?DoUseItemBlinkWing@CMover@@QAEHPAUItemProp@@PAVCItemElem@@H@Z ; CMover::DoUseItemBlinkWing
PUBLIC	?DoUseItemFood_SM@CMover@@QAEHPAUItemProp@@PAVCItemElem@@@Z ; CMover::DoUseItemFood_SM
PUBLIC	?DoUseItemFood@CMover@@QAEHPAUItemProp@@PAVCItemElem@@@Z ; CMover::DoUseItemFood
PUBLIC	?DoUseItemWarp@CMover@@QAEHPAUItemProp@@PAVCItemElem@@@Z ; CMover::DoUseItemWarp
PUBLIC	?DoUseItemSystem@CMover@@QAEHPAUItemProp@@PAVCItemElem@@H@Z ; CMover::DoUseItemSystem
PUBLIC	?DoUseItemOnce@CMover@@QAEHPAUItemProp@@PAVCItemElem@@H@Z ; CMover::DoUseItemOnce
PUBLIC	?DoUseItemKeep@CMover@@QAEHPAUItemProp@@PAVCItemElem@@H@Z ; CMover::DoUseItemKeep
PUBLIC	?DoPickupItemAround@CMover@@QAEXXZ		; CMover::DoPickupItemAround
PUBLIC	?DoAttackMagic@CMover@@QAEHPAVCObj@@HH@Z	; CMover::DoAttackMagic
PUBLIC	?DoAttackRange@CMover@@QAEHPAVCObj@@KH@Z	; CMover::DoAttackRange
PUBLIC	?DoAttackSP@CMover@@QAEHPAVCObj@@K@Z		; CMover::DoAttackSP
PUBLIC	?DoAttackMelee@CMover@@QAEHPAV1@W4OBJMSG@@K@Z	; CMover::DoAttackMelee
PUBLIC	?SendDamageAround@CMover@@QAEXHPAV1@HHMMM@Z	; CMover::SendDamageAround
PUBLIC	?SendDamageLine@CMover@@QAEXHHHMMM@Z		; CMover::SendDamageLine
PUBLIC	?OnEndMeleeAttack@CMover@@QAEXK@Z		; CMover::OnEndMeleeAttack
PUBLIC	?SetMasterSkillPointUp@CMover@@QAEXXZ		; CMover::SetMasterSkillPointUp
PUBLIC	?GetQueueCastingTime@CMover@@QAEHXZ		; CMover::GetQueueCastingTime
PUBLIC	?DoUseSkill@CMover@@QAEHHHKW4SKILLUSETYPE@@H@Z	; CMover::DoUseSkill
PUBLIC	?DoUseItemSexChange@CMover@@QAEHH@Z		; CMover::DoUseItemSexChange
PUBLIC	?IsDoUseBuff@CMover@@QAEHPAUItemProp@@@Z	; CMover::IsDoUseBuff
PUBLIC	??$_Copy_memmove_tail@PAE@std@@YAPAEQBDQAEII@Z	; std::_Copy_memmove_tail<unsigned char *>
PUBLIC	??$_Copy_memmove@PAEPAE@std@@YAPAEPAE00@Z	; std::_Copy_memmove<unsigned char *,unsigned char *>
PUBLIC	??$_Allocate_manually_vector_aligned@U_Default_allocate_traits@std@@@std@@YAPAXI@Z ; std::_Allocate_manually_vector_aligned<std::_Default_allocate_traits>
PUBLIC	??$_Resize@E@?$vector@EV?$allocator@E@std@@@std@@AAEXIABE@Z ; std::vector<unsigned char,std::allocator<unsigned char> >::_Resize<unsigned char>
PUBLIC	??$_Fill_memset@PAEE@std@@YAXPAEEI@Z		; std::_Fill_memset<unsigned char *,unsigned char>
PUBLIC	?_OptionsStorage@?1??__local_stdio_printf_options@@9@4_KA ; `__local_stdio_printf_options'::`2'::_OptionsStorage
PUBLIC	??_C@_02DPKJAMEF@?$CFd@				; `string'
PUBLIC	??_C@_00CNPNBAHC@@				; `string'
PUBLIC	??_7exception@std@@6B@				; std::exception::`vftable'
PUBLIC	??_C@_0BC@EOODALEL@Unknown?5exception@		; `string'
PUBLIC	??_7bad_alloc@std@@6B@				; std::bad_alloc::`vftable'
PUBLIC	??_7bad_array_new_length@std@@6B@		; std::bad_array_new_length::`vftable'
PUBLIC	??_C@_0BF@KINCDENJ@bad?5array?5new?5length@	; `string'
PUBLIC	??_R0?AVexception@std@@@8			; std::exception `RTTI Type Descriptor'
PUBLIC	__CT??_R0?AVexception@std@@@8??0exception@std@@QAE@ABV01@@Z12
PUBLIC	__TI3?AVbad_array_new_length@std@@
PUBLIC	__CTA3?AVbad_array_new_length@std@@
PUBLIC	??_R0?AVbad_array_new_length@std@@@8		; std::bad_array_new_length `RTTI Type Descriptor'
PUBLIC	__CT??_R0?AVbad_array_new_length@std@@@8??0bad_array_new_length@std@@QAE@ABV01@@Z12
PUBLIC	??_R0?AVbad_alloc@std@@@8			; std::bad_alloc `RTTI Type Descriptor'
PUBLIC	__CT??_R0?AVbad_alloc@std@@@8??0bad_alloc@std@@QAE@ABV01@@Z12
PUBLIC	??_C@_0BM@HMFGHCP@?$CFs?5min?3?$CFd?0?5max?3?$CFd?0?5index?3?$CFd@ ; `string'
PUBLIC	??_C@_0BI@BEIFNGEL@GetItemProp?5range_error@	; `string'
PUBLIC	??_C@_0BJ@GPNGCFMK@GetSkillProp?5range_error@	; `string'
PUBLIC	??_C@_0BJ@GKPOBPPI@GetMoverProp?5range_error@	; `string'
PUBLIC	??_C@_0BE@OHDBLHOM@GetText?5range_error@	; `string'
PUBLIC	??_C@_05KKCIMGE@error@				; `string'
PUBLIC	??_C@_0BA@FOIKENOD@vector?5too?5long@		; `string'
PUBLIC	??_R4exception@std@@6B@				; std::exception::`RTTI Complete Object Locator'
PUBLIC	??_R3exception@std@@8				; std::exception::`RTTI Class Hierarchy Descriptor'
PUBLIC	??_R2exception@std@@8				; std::exception::`RTTI Base Class Array'
PUBLIC	??_R1A@?0A@EA@exception@std@@8			; std::exception::`RTTI Base Class Descriptor at (0,-1,0,64)'
PUBLIC	??_R4bad_array_new_length@std@@6B@		; std::bad_array_new_length::`RTTI Complete Object Locator'
PUBLIC	??_R3bad_array_new_length@std@@8		; std::bad_array_new_length::`RTTI Class Hierarchy Descriptor'
PUBLIC	??_R2bad_array_new_length@std@@8		; std::bad_array_new_length::`RTTI Base Class Array'
PUBLIC	??_R1A@?0A@EA@bad_array_new_length@std@@8	; std::bad_array_new_length::`RTTI Base Class Descriptor at (0,-1,0,64)'
PUBLIC	??_R1A@?0A@EA@bad_alloc@std@@8			; std::bad_alloc::`RTTI Base Class Descriptor at (0,-1,0,64)'
PUBLIC	??_R3bad_alloc@std@@8				; std::bad_alloc::`RTTI Class Hierarchy Descriptor'
PUBLIC	??_R2bad_alloc@std@@8				; std::bad_alloc::`RTTI Base Class Array'
PUBLIC	??_R4bad_alloc@std@@6B@				; std::bad_alloc::`RTTI Complete Object Locator'
PUBLIC	??_C@_0DO@PAGMBNAO@CMover?3?3GetQueueCastingTime?5?3?5?$CF@ ; `string'
PUBLIC	??_C@_0EC@JPIDGHBC@CMover?3?3GetQueueCastingTime?5?3?5?$CF@ ; `string'
PUBLIC	??_C@_0DN@POBPMOID@CMover?3?3DoUseSkill?5?3?5?$CFs?$LE?B?5nIdx?$LP@ ; `string'
PUBLIC	??_C@_0N@FIJAGOKJ@DoUseSkill_P@			; `string'
PUBLIC	??_C@_0L@LLMCBIOI@DoUseSkill@			; `string'
PUBLIC	??_C@_04OEDFLLKD@?$CC?$CFs?$CC@			; `string'
PUBLIC	??_C@_0CN@EEBJCALL@DoUseSkill?5?3?5?$CFs?5?0?5?E?$LI?$LA?Y?5?$CFs?5?$MA?G?5?G?A@ ; `string'
PUBLIC	??_C@_0N@KNNGFFII@SkillLevel1?5@		; `string'
PUBLIC	??_C@_0DF@KIFDAMPH@DoUseSkill?5?3?5?$CFs?5NULL?5GetSkill?5?$CF@ ; `string'
PUBLIC	??_C@_0N@KPJAOLNB@SkillLevel2?5@		; `string'
PUBLIC	??_C@_0CB@HOKPNGH@DoUseSkill?5?3?5?$CFs?5dwSkillType?5?$DN?5?$CF@ ; `string'
PUBLIC	??_C@_0CL@ILELHNJ@OnEndSkillState?5?3?5?$LN?$LK?E?$LD?$MA?G?5?$LJ?$PM?$MA?$KH?$LI?$KG@ ; `string'
PUBLIC	??_C@_0BA@LLKPHDJP@OnEndSkillState@		; `string'
PUBLIC	??_C@_0BC@PPLMFBOE@GUILDHOUSE_LISTUP@		; `string'
PUBLIC	??_C@_01INIBCBCB@f@				; `string'
PUBLIC	??_C@_0M@HGMIEEBN@HOUSING_USE@			; `string'
PUBLIC	??_C@_01HNPIGOCE@?$CG@				; `string'
PUBLIC	??_C@_0N@OINNJKEM@ANGEL_SUMMON@			; `string'
PUBLIC	??_C@_04PNFMAOFG@?$CC?$CFd?$CC@			; `string'
PUBLIC	??_C@_01HIHLOKLC@1@				; `string'
PUBLIC	??_C@_0BE@COEAJDGE@USE_RECCURENCE_ITEM@		; `string'
PUBLIC	??_C@_01NOFIACDB@w@				; `string'
PUBLIC	??_C@_0BB@KAAKNBKL@USE_RESTATE_ITEM@		; `string'
PUBLIC	??_C@_07PFGKEPEH@?$CFd?5?9?5?$CFd@		; `string'
PUBLIC	??_C@_09DPACILDJ@?$CC?$CFs?$CC?5?$CC?$CFs?$CC@	; `string'
PUBLIC	??_C@_0L@PGLFOAIL@?$CFs?5?$CFd?$CF?$CF?5?$CFs@	; `string'
PUBLIC	??_C@_01KMDKNFGN@?1@				; `string'
PUBLIC	??_C@_0DD@FCPHEJAC@DoUseItem?0?5IK2_SKILL?0?5item?5?$CFs?5?9@ ; `string'
PUBLIC	??_C@_0DA@GIPACFEO@II_SYS_SYS_SCR_RETURN?5selected?5@ ; `string'
PUBLIC	??_C@_0BB@KDNJAMCD@MaFl_InstantBank@		; `string'
PUBLIC	??_C@_01GFHCPBMG@C@				; `string'
PUBLIC	??_C@_09FAFPDOMC@USE_PERIN@			; `string'
PUBLIC	??_C@_0CN@DCNDELEC@DoAttackRange?5?3?5?$CFs?5ActiveHandIt@ ; `string'
PUBLIC	??_C@_0DA@HDIEHEPJ@DoAttackRange?5?3?5?$CFs?5?$FL?$CFd?$FN?8s?5dwUse@ ; `string'
PUBLIC	??_C@_0CG@EOHFKLIK@DoAttackSP?5?3?5?$CFs?5?$MA?G?5ItemProp?$MA?L?5N@ ; `string'
PUBLIC	??_C@_0DJ@FIKMOPND@DoAttackSP?5?3?5?$CFs?$MA?G?5?$LA?x?$LA?$NN?$CFd?$MA?G?5dwUs@ ; `string'
PUBLIC	??_C@_0CJ@BKJEKCBD@DoAttackMelee?5?3?5?$CFs?5?$MA?G?5ItemProp?$MA@ ; `string'
PUBLIC	??_C@_0CL@JELFJLED@CMover?3?3SendDamageAround?5?3?5D?3?$CFs@ ; `string'
PUBLIC	??_C@_0DL@FEJEHPAL@CMover?3?3SendDamageAround?5?3?5?$CFs?4?5@ ; `string'
PUBLIC	??_C@_0DN@BLLPBDJB@CMover?3?3SendDamageAround?5?3?5?$CFs?4?5@ ; `string'
PUBLIC	??_C@_0CJ@BEJKIDOG@CMover?3?3SendDamageLine?5?3?5D?3?$CFs?5A@ ; `string'
PUBLIC	??_C@_0DL@KEBMKGCP@CMover?3?3SendDamageLine?5?3?5?$CFs?4?5?$LN?$LK@ ; `string'
PUBLIC	??_C@_0DN@LKDJCKJ@CMover?3?3SendDamageLine?5?3?5?$CFs?4?5?$LO?F@ ; `string'
PUBLIC	??_C@_02DKCKIIND@?$CFs@				; `string'
PUBLIC	??_C@_0N@EGNMKPHL@Pet_Seltpiyo@			; `string'
PUBLIC	??_C@_0N@BOLHNAPJ@Pet_Seltpudi@			; `string'
PUBLIC	??_C@_0N@CNOPGOC@Pet_Seltcobi@			; `string'
PUBLIC	??_C@_0P@NPNKEHMC@Pet_Seltpierce@		; `string'
PUBLIC	??_C@_0BF@OJMCJNHH@GETEQUIP?1?1?$CFd?0?5?$CFd?0?5?$CFd@ ; `string'
PUBLIC	__real@00000000
PUBLIC	__real@3c8efa35
PUBLIC	__real@3e99999a
PUBLIC	__real@3f000000
PUBLIC	__real@3f333333
PUBLIC	__real@3f4ccccd
PUBLIC	__real@3f800000
PUBLIC	__real@3fc00000
PUBLIC	__real@40400000
PUBLIC	__real@40800000
PUBLIC	__real@41000000
PUBLIC	__real@41700000
PUBLIC	__real@41800000
PUBLIC	__real@42652ee0
PUBLIC	__real@43b40000
PUBLIC	__real@447a0000
PUBLIC	__real@4eee6b28
PUBLIC	__xmm@41f00000000000000000000000000000
PUBLIC	__xmm@80000000800000008000000080000000
EXTRN	??2@YAPAXI@Z:PROC				; operator new
EXTRN	??3@YAXPAXI@Z:PROC				; operator delete
EXTRN	__invalid_parameter_noinfo:PROC
EXTRN	__invoke_watson:PROC
EXTRN	__errno:PROC
EXTRN	_strncpy:PROC
EXTRN	__imp__GetTickCount@0:PROC
EXTRN	__imp__LoadResource@8:PROC
EXTRN	__imp__LockResource@4:PROC
EXTRN	__imp__SizeofResource@8:PROC
EXTRN	__imp__FindResourceW@12:PROC
EXTRN	__imp__lstrcpyA@8:PROC
EXTRN	__imp__WideCharToMultiByte@32:PROC
EXTRN	__mbsinc:PROC
EXTRN	__mbsstr:PROC
EXTRN	___stdio_common_vsprintf:PROC
EXTRN	___stdio_common_vsprintf_s:PROC
EXTRN	__time64:PROC
EXTRN	?AfxThrowMemoryException@@YGXXZ:PROC		; AfxThrowMemoryException
EXTRN	?AfxThrowOleException@@YGXJ@Z:PROC		; AfxThrowOleException
EXTRN	?AfxFindStringResourceHandle@@YGPAUHINSTANCE__@@I@Z:PROC ; AfxFindStringResourceHandle
EXTRN	?AfxGetStringManager@@YGPAUIAtlStringMgr@ATL@@XZ:PROC ; AfxGetStringManager
EXTRN	__isnan:PROC
EXTRN	___std_exception_copy:PROC
EXTRN	___std_exception_destroy:PROC
EXTRN	??_Eexception@std@@UAEPAXI@Z:PROC		; std::exception::`vector deleting destructor'
EXTRN	??_Ebad_alloc@std@@UAEPAXI@Z:PROC		; std::bad_alloc::`vector deleting destructor'
EXTRN	??_Ebad_array_new_length@std@@UAEPAXI@Z:PROC	; std::bad_array_new_length::`vector deleting destructor'
EXTRN	?_Xlength_error@std@@YAXPBD@Z:PROC		; std::_Xlength_error
EXTRN	__imp__timeGetTime@0:PROC
EXTRN	_D3DXVec3Normalize@8:PROC
EXTRN	_D3DXVec3TransformCoord@12:PROC
EXTRN	_D3DXMatrixMultiply@12:PROC
EXTRN	_D3DXMatrixInverse@12:PROC
EXTRN	_D3DXMatrixTranslation@16:PROC
EXTRN	_D3DXMatrixRotationY@8:PROC
EXTRN	?ParsingCommand@@YAHPBDPAVCMover@@H@Z:PROC	; ParsingCommand
EXTRN	?WriteError@@YAXPBDZZ:PROC			; WriteError
EXTRN	?Error@@YAPBDPBDZZ:PROC				; Error
EXTRN	?IsTouchAABB@@YAHABUD3DXVECTOR3@@000@Z:PROC	; IsTouchAABB
EXTRN	?UpdateLocalMatrix@CObj@@QAEXXZ:PROC		; CObj::UpdateLocalMatrix
EXTRN	?ResetScale@CObj@@QAEXXZ:PROC			; CObj::ResetScale
EXTRN	?SetTypeIndex@CObj@@QAEHPAUIDirect3DDevice9@@KKH@Z:PROC ; CObj::SetTypeIndex
EXTRN	?Delete@CObj@@QAEXXZ:PROC			; CObj::Delete
EXTRN	?SetPos@CObj@@QAEXABUD3DXVECTOR3@@@Z:PROC	; CObj::SetPos
EXTRN	?SetAngle@CObj@@QAEXM@Z:PROC			; CObj::SetAngle
EXTRN	?DoApplySkill@CCtrl@@QAEHPAV1@PAUItemProp@@PAUAddSkillProp@@_NHHH@Z:PROC ; CCtrl::DoApplySkill
EXTRN	?DoActiveSkill@CCtrl@@QAEXKHPAV1@_NH@Z:PROC	; CCtrl::DoActiveSkill
EXTRN	?IsGuildQuestRegion@CProject@@QAEHABUD3DXVECTOR3@@@Z:PROC ; CProject::IsGuildQuestRegion
EXTRN	?GetAddSkillProp@CProject@@QAEPAUAddSkillProp@@KK@Z:PROC ; CProject::GetAddSkillProp
EXTRN	?GetMover@CProject@@QAEPAVCMover@@K@Z:PROC	; CProject::GetMover
EXTRN	?GetAddLife@CPetProperty@@QAEGXZ:PROC		; CPetProperty::GetAddLife
EXTRN	?GetInstance@CPetProperty@@SAPAV1@XZ:PROC	; CPetProperty::GetInstance
EXTRN	??0CPet@@QAE@XZ:PROC				; CPet::CPet
EXTRN	?GetIndex@CPet@@QAEKXZ:PROC			; CPet::GetIndex
EXTRN	?GetLife@CPet@@QAEGXZ:PROC			; CPet::GetLife
EXTRN	?InitEgg@CPet@@QAEXXZ:PROC			; CPet::InitEgg
EXTRN	?GetPiercingSize@CPiercing@@QAEHXZ:PROC		; CPiercing::GetPiercingSize
EXTRN	?GetPiercingItem@CPiercing@@QAEKH@Z:PROC	; CPiercing::GetPiercingItem
EXTRN	?GetVisKeepTime@CPiercing@@QAEJH@Z:PROC		; CPiercing::GetVisKeepTime
EXTRN	?GetPropA@CItemBase@@QAEPAUItemProp@@XZ:PROC	; CItemBase::GetPropA
EXTRN	?UseItem@CItemElem@@QAEXXZ:PROC			; CItemElem::UseItem
EXTRN	?GetVisPetSfxId@CItemElem@@QAEKXZ:PROC		; CItemElem::GetVisPetSfxId
EXTRN	?IsUsableItem@@YAHPAVCItemBase@@@Z:PROC		; IsUsableItem
EXTRN	?RemoveBuff@CBuffMgr@@QAEXGGH@Z:PROC		; CBuffMgr::RemoveBuff
EXTRN	?GetBuff@CBuffMgr@@QAEPAVIBuff@@GG@Z:PROC	; CBuffMgr::GetBuff
EXTRN	?ResetState@CAction@@QAEXK@Z:PROC		; CAction::ResetState
EXTRN	?SendDamageForce@CActionMover@@QAEHKKHH@Z:PROC	; CActionMover::SendDamageForce
EXTRN	?GetGroup@CCooltimeMgr@@SAKPAUItemProp@@@Z:PROC	; CCooltimeMgr::GetGroup
EXTRN	?CanUse@CCooltimeMgr@@QAEHK@Z:PROC		; CCooltimeMgr::CanUse
EXTRN	?SetTime@CCooltimeMgr@@QAEXKK@Z:PROC		; CCooltimeMgr::SetTime
EXTRN	?HasBuff@CMover@@QAEHGG@Z:PROC			; CMover::HasBuff
EXTRN	?RemoveBuff@CMover@@QAEXGG@Z:PROC		; CMover::RemoveBuff
EXTRN	?HasBuffByIk3@CMover@@QAEHK@Z:PROC		; CMover::HasBuffByIk3
EXTRN	?AddBuff@CMover@@QAEHGGKKK@Z:PROC		; CMover::AddBuff
EXTRN	?RemoveIk3Buffs@CMover@@QAEXK@Z:PROC		; CMover::RemoveIk3Buffs
EXTRN	?RemoveDebufBuffs@CMover@@QAEXXZ:PROC		; CMover::RemoveDebufBuffs
EXTRN	?SetHonorAdd@CMover@@QAEXHHH@Z:PROC		; CMover::SetHonorAdd
EXTRN	?GetPet@CMover@@QAEPAVCPet@@XZ:PROC		; CMover::GetPet
EXTRN	?GetPetItem@CMover@@QAEPAVCItemElem@@XZ:PROC	; CMover::GetPetItem
EXTRN	?PetLevelup@CMover@@QAEXXZ:PROC			; CMover::PetLevelup
EXTRN	?PetRelease@CMover@@QAEXXZ:PROC			; CMover::PetRelease
EXTRN	?GetMaxPoint@CMover@@QAEHH@Z:PROC		; CMover::GetMaxPoint
EXTRN	?InitSkillExp@CMover@@QAEHXZ:PROC		; CMover::InitSkillExp
EXTRN	?InitCharacter@CMover@@QAEXPAUtagCHARACTER@@@Z:PROC ; CMover::InitCharacter
EXTRN	?GetCharacter@CMover@@QAEPAUtagCHARACTER@@XZ:PROC ; CMover::GetCharacter
EXTRN	?InitNPCProperty@CMover@@QAEXXZ:PROC		; CMover::InitNPCProperty
EXTRN	?IsSteal@CMover@@QAEHPAV1@@Z:PROC		; CMover::IsSteal
EXTRN	?GetActiveHandItemProp@CMover@@QAEPAUItemProp@@H@Z:PROC ; CMover::GetActiveHandItemProp
EXTRN	?PostAIMsg@CMover@@QAEXKKKK@Z:PROC		; CMover::PostAIMsg
EXTRN	?GetWeaponItem@CMover@@QAEPAVCItemElem@@H@Z:PROC ; CMover::GetWeaponItem
EXTRN	?GetLWeaponItem@CMover@@QAEPAVCItemElem@@XZ:PROC ; CMover::GetLWeaponItem
EXTRN	?GetEquipItem@CMover@@QAEPAVCItemElem@@H@Z:PROC	; CMover::GetEquipItem
EXTRN	?IsDualWeapon@CMover@@QAEHXZ:PROC		; CMover::IsDualWeapon
EXTRN	?RedoEquip@CMover@@QAEXHH@Z:PROC		; CMover::RedoEquip
EXTRN	?GetQuest@CMover@@QAEPAUtagQuest@@H@Z:PROC	; CMover::GetQuest
EXTRN	?GetParam@CMover@@QAEHHH@Z:PROC			; CMover::GetParam
EXTRN	?SetDestParam@CMover@@QAEXHHHH@Z:PROC		; CMover::SetDestParam
EXTRN	?SetDestParam@CMover@@QAEXHPAUItemProp@@H@Z:PROC ; CMover::SetDestParam
EXTRN	?ResetDestParam@CMover@@QAEXHHH@Z:PROC		; CMover::ResetDestParam
EXTRN	?ResetDestParam@CMover@@QAEXHPAUItemProp@@H@Z:PROC ; CMover::ResetDestParam
EXTRN	?GetAdjParam@CMover@@QAEHH@Z:PROC		; CMover::GetAdjParam
EXTRN	?GetPointParam@CMover@@QAEHH@Z:PROC		; CMover::GetPointParam
EXTRN	?SetPointParam@CMover@@QAEXHHH@Z:PROC		; CMover::SetPointParam
EXTRN	?GetSkill@CMover@@QAEPAUtagSkill@@HH@Z:PROC	; CMover::GetSkill
EXTRN	?GetSkill@CMover@@QAEPAUtagSkill@@K@Z:PROC	; CMover::GetSkill
EXTRN	?GetSkillIdx@CMover@@QAEHK@Z:PROC		; CMover::GetSkillIdx
EXTRN	?GetName@CMover@@QAEPBDH@Z:PROC			; CMover::GetName
EXTRN	?IncManaPoint@CMover@@QAEXH@Z:PROC		; CMover::IncManaPoint
EXTRN	?IncFatiguePoint@CMover@@QAEXH@Z:PROC		; CMover::IncFatiguePoint
EXTRN	?IsPVPTarget@CMover@@QAEHPAV1@@Z:PROC		; CMover::IsPVPTarget
EXTRN	?IsWarTarget@CMover@@QAEHPAV1@@Z:PROC		; CMover::IsWarTarget
EXTRN	?IsArenaTarget@CMover@@QAEHPAV1@@Z:PROC		; CMover::IsArenaTarget
EXTRN	?GetHitType2@CMover@@QAE?AW4HITTYPE@@PAV1@HH@Z:PROC ; CMover::GetHitType2
EXTRN	?AddGold@CMover@@QAEHHH@Z:PROC			; CMover::AddGold
EXTRN	?GetManaPoint@CMover@@QAEHXZ:PROC		; CMover::GetManaPoint
EXTRN	?GetFatiguePoint@CMover@@QAEHXZ:PROC		; CMover::GetFatiguePoint
EXTRN	?GetMaxHitPoint@CMover@@QAEHXZ:PROC		; CMover::GetMaxHitPoint
EXTRN	?GetMaxManaPoint@CMover@@QAEHXZ:PROC		; CMover::GetMaxManaPoint
EXTRN	?GetMaxFatiguePoint@CMover@@QAEHXZ:PROC		; CMover::GetMaxFatiguePoint
EXTRN	?GetMaxOriginHitPoint@CMover@@QAEHH@Z:PROC	; CMover::GetMaxOriginHitPoint
EXTRN	?GetCastingTime@CMover@@QAEHH@Z:PROC		; CMover::GetCastingTime
EXTRN	?GetReqMp@CMover@@QAEHH@Z:PROC			; CMover::GetReqMp
EXTRN	?GetReqFp@CMover@@QAEHH@Z:PROC			; CMover::GetReqFp
EXTRN	?UpdateItem@CMover@@QAEXEDKK@Z:PROC		; CMover::UpdateItem
EXTRN	?UpdateItemEx@CMover@@QAEXED_J@Z:PROC		; CMover::UpdateItemEx
EXTRN	?GetItemId@CMover@@QAEPAVCItemBase@@K@Z:PROC	; CMover::GetItemId
EXTRN	?IsPKPVPInspectionBase@CMover@@QAEHKH@Z:PROC	; CMover::IsPKPVPInspectionBase
EXTRN	?DoUseEquipmentItem@CMover@@QAEHPAVCItemElem@@KH@Z:PROC ; CMover::DoUseEquipmentItem
EXTRN	?SetJJim@CMover@@QAEXPAV1@@Z:PROC		; CMover::SetJJim
EXTRN	?IsBullet@CMover@@QAEHPAUItemProp@@@Z:PROC	; CMover::IsBullet
EXTRN	?ReState@CMover@@QAEXXZ:PROC			; CMover::ReState
EXTRN	?ReStateOne@CMover@@QAEXH@Z:PROC		; CMover::ReStateOne
EXTRN	?ReStateOneLow@CMover@@QAEXH@Z:PROC		; CMover::ReStateOneLow
EXTRN	?GetPKPVPRegionAttr@CMover@@QAEKXZ:PROC		; CMover::GetPKPVPRegionAttr
EXTRN	?IsMaster@CMover@@QAEHXZ:PROC			; CMover::IsMaster
EXTRN	?IsHero@CMover@@QAEHXZ:PROC			; CMover::IsHero
EXTRN	?IsLegendHero@CMover@@QAEHXZ:PROC		; CMover::IsLegendHero
EXTRN	?IsGuildCombatTarget@CMover@@QAEHPAV1@@Z:PROC	; CMover::IsGuildCombatTarget
EXTRN	?ArrowDown@CMover@@QAEXH@Z:PROC			; CMover::ArrowDown
EXTRN	?Replace@CMover@@QAEHKKAAUD3DXVECTOR3@@W4REPLACE_TYPE@@H@Z:PROC ; CMover::Replace
EXTRN	?IsItemRedyTime@CMover@@QAEHPAUItemProp@@KH@Z:PROC ; CMover::IsItemRedyTime
EXTRN	?SetSMMode@CMover@@QAEHHK@Z:PROC		; CMover::SetSMMode
EXTRN	?GetSummonState@CMover@@QAEHXZ:PROC		; CMover::GetSummonState
EXTRN	?IsShoutFull@CMover@@QAEHXZ:PROC		; CMover::IsShoutFull
EXTRN	?IsCommBank@CMover@@QAEHXZ:PROC			; CMover::IsCommBank
EXTRN	?SetActParam@CMover@@AAEXW4OBJACT@@HHH@Z:PROC	; CMover::SetActParam
EXTRN	?GetLinkWidth@CLayeredLinkMap@@QAEHKHH@Z:PROC	; CLayeredLinkMap::GetLinkWidth
EXTRN	?GetObj@CLayeredLinkMap@@QAEPAPAVCObj@@KKH@Z:PROC ; CLayeredLinkMap::GetObj
EXTRN	?GetMaxLinkLevel@CLayeredLinkMap@@QAEHKH@Z:PROC	; CLayeredLinkMap::GetMaxLinkLevel
EXTRN	?AddObj@CWorld@@QAEHPAVCObj@@HH@Z:PROC		; CWorld::AddObj
EXTRN	?GetFullHeight@CWorld@@QAEMABUD3DXVECTOR3@@@Z:PROC ; CWorld::GetFullHeight
EXTRN	?GetUnderHeight@CWorld@@QAEMABUD3DXVECTOR3@@@Z:PROC ; CWorld::GetUnderHeight
EXTRN	?CreateMover@@YAPAVCMover@@PAVCWorld@@KABUD3DXVECTOR3@@H@Z:PROC ; CreateMover
EXTRN	?CreateObj@@YAPAVCObj@@PAUIDirect3DDevice9@@KKH@Z:PROC ; CreateObj
EXTRN	?GetState@CFlyffEvent@@QAEEH@Z:PROC		; CFlyffEvent::GetState
EXTRN	?IsPossibleUser@CGuildCombat1to1Mng@@QAEHPAVCUser@@@Z:PROC ; CGuildCombat1to1Mng::IsPossibleUser
EXTRN	?SetPartyLevel@CParty@@QAEXPAVCUser@@KKK@Z:PROC	; CParty::SetPartyLevel
EXTRN	?GetParty@CPartyMng@@QAEPAVCParty@@K@Z:PROC	; CPartyMng::GetParty
EXTRN	?SetItem@CAIPet@@QAEXPAVCMover@@PAVCItemElem@@@Z:PROC ; CAIPet::SetItem
EXTRN	?ResetItem@CAIPet@@QAEXXZ:PROC			; CAIPet::ResetItem
EXTRN	?GetInstance@CPlayerDataCenter@@SAPAV1@XZ:PROC	; CPlayerDataCenter::GetInstance
EXTRN	?GetPlayerString@CPlayerDataCenter@@QAEPBDK@Z:PROC ; CPlayerDataCenter::GetPlayerString
EXTRN	?GetInstance@CSecretRoomMng@@SAPAV1@XZ:PROC	; CSecretRoomMng::GetInstance
EXTRN	?IsInTheSecretRoom@CSecretRoomMng@@QAEHPAVCMover@@@Z:PROC ; CSecretRoomMng::IsInTheSecretRoom
EXTRN	?GetInstance@CRainbowRaceMng@@SAPAV1@XZ:PROC	; CRainbowRaceMng::GetInstance
EXTRN	?IsEntry@CRainbowRaceMng@@QAEHK@Z:PROC		; CRainbowRaceMng::IsEntry
EXTRN	?GetInstance@CHousingMng@@SAPAV1@XZ:PROC	; CHousingMng::GetInstance
EXTRN	?ReqSetFurnitureList@CHousingMng@@QAEHPAVCUser@@K@Z:PROC ; CHousingMng::ReqSetFurnitureList
EXTRN	??0GuildHouse_Furniture_Info@CGuildHouseBase@@QAE@KHUD3DXVECTOR3@@MJ@Z:PROC ; CGuildHouseBase::GuildHouse_Furniture_Info::GuildHouse_Furniture_Info
EXTRN	?GetInstance@CGuildHouseMng@@SAPAV1@XZ:PROC	; CGuildHouseMng::GetInstance
EXTRN	?EnteranceGuildHouse@CGuildHouseMng@@QAEHPAVCUser@@K@Z:PROC ; CGuildHouseMng::EnteranceGuildHouse
EXTRN	?SendWorldToDatabase@CGuildHouseMng@@QAEHPAVCUser@@HAAUGuildHouse_Furniture_Info@CGuildHouseBase@@H@Z:PROC ; CGuildHouseMng::SendWorldToDatabase
EXTRN	?SetReturnPos@CUser@@QAEXABUD3DXVECTOR3@@@Z:PROC ; CUser::SetReturnPos
EXTRN	?GetReturnPos@CUser@@QAEAAUD3DXVECTOR3@@PAK@Z:PROC ; CUser::GetReturnPos
EXTRN	?Notify@CUser@@QAEHXZ:PROC			; CUser::Notify
EXTRN	?AddDiagText@CUser@@QAEXPBD@Z:PROC		; CUser::AddDiagText
EXTRN	?AddText@CUser@@QAEXPBD@Z:PROC			; CUser::AddText
EXTRN	?AddDefinedText@CUser@@QAAXHPBDZZ:PROC		; CUser::AddDefinedText
EXTRN	?AddDefinedText@CUser@@QAEXH@Z:PROC		; CUser::AddDefinedText
EXTRN	?AddSetFuel@CUser@@QAEXHK@Z:PROC		; CUser::AddSetFuel
EXTRN	?AddInitSkill@CUser@@QAEXXZ:PROC		; CUser::AddInitSkill
EXTRN	?AddSetTarget@CUser@@QAEXK@Z:PROC		; CUser::AddSetTarget
EXTRN	?AddSummonFriendUse@CUser@@QAEXPAVCItemElem@@@Z:PROC ; CUser::AddSummonFriendUse
EXTRN	?AddDoUseSkillPoint@CUser@@QAEXQAUtagSkill@@H@Z:PROC ; CUser::AddDoUseSkillPoint
EXTRN	?AddAngelInfo@CUser@@QAEXH@Z:PROC		; CUser::AddAngelInfo
EXTRN	?AddPet@CUser@@QAEXPAVCPet@@E@Z:PROC		; CUser::AddPet
EXTRN	?AddPetState@CUser@@QAEXKGGK@Z:PROC		; CUser::AddPetState
EXTRN	?DoUseItemBattery@CUser@@QAEHXZ:PROC		; CUser::DoUseItemBattery
EXTRN	?DoUseItemInput@CUser@@QAEHPAUItemProp@@PAVCItemElem@@@Z:PROC ; CUser::DoUseItemInput
EXTRN	?AddActivateVisPet@CUser@@QAEXKK@Z:PROC		; CUser::AddActivateVisPet
EXTRN	?AddActivateBarunaPet@CUser@@QAEXKKH@Z:PROC	; CUser::AddActivateBarunaPet
EXTRN	?AddSetPos@CUserMng@@QAEXPAVCCtrl@@AAUD3DXVECTOR3@@@Z:PROC ; CUserMng::AddSetPos
EXTRN	?AddMeleeAttack@CUserMng@@QAEXPAVCMover@@KKHH@Z:PROC ; CUserMng::AddMeleeAttack
EXTRN	?AddMagicAttack@CUserMng@@QAEXPAVCMover@@KKHHHH@Z:PROC ; CUserMng::AddMagicAttack
EXTRN	?AddRangeAttack@CUserMng@@QAEXPAVCMover@@KKHHH@Z:PROC ; CUserMng::AddRangeAttack
EXTRN	?AddAttackSP@CUserMng@@QAEXPAVCMover@@KKHH@Z:PROC ; CUserMng::AddAttackSP
EXTRN	?AddCreateSfxObj@CUserMng@@QAEXPAVCCtrl@@KMMMH@Z:PROC ; CUserMng::AddCreateSfxObj
EXTRN	?AddUseSkill@CUserMng@@QAEXPAVCMover@@KKKHH@Z:PROC ; CUserMng::AddUseSkill
EXTRN	?AddSexChange@CUserMng@@QAEXPAVCMover@@@Z:PROC	; CUserMng::AddSexChange
EXTRN	?AddChangeFace@CUserMng@@QAEXKK@Z:PROC		; CUserMng::AddChangeFace
EXTRN	?AddPKPink@CUserMng@@QAEXPAVCMover@@E@Z:PROC	; CUserMng::AddPKPink
EXTRN	?AddPetCall@CUserMng@@QAEXPAVCMover@@KKEPBD@Z:PROC ; CUserMng::AddPetCall
EXTRN	?GetWorld@CWorldMng@@QAEPAVCWorld@@K@Z:PROC	; CWorldMng::GetWorld
EXTRN	?GetRevivalPosChao@CWorldMng@@QAEPAUREGIONELEM@@KPBD@Z:PROC ; CWorldMng::GetRevivalPosChao
EXTRN	?GetNearRevivalPosChao@CWorldMng@@QAEPAUREGIONELEM@@KAAUD3DXVECTOR3@@@Z:PROC ; CWorldMng::GetNearRevivalPosChao
EXTRN	?GetRevivalPos@CWorldMng@@QAEPAUREGIONELEM@@KPBD@Z:PROC ; CWorldMng::GetRevivalPos
EXTRN	?GetNearRevivalPos@CWorldMng@@QAEPAUREGIONELEM@@KAAUD3DXVECTOR3@@@Z:PROC ; CWorldMng::GetNearRevivalPos
EXTRN	?OnLogItem@CDPSrvr@@QAEXAAU_LogItemInfo@@PAVCItemElem@@H@Z:PROC ; CDPSrvr::OnLogItem
EXTRN	?PutItemLog@CDPSrvr@@QAEXPAVCUser@@PBD1PAVCItemElem@@H@Z:PROC ; CDPSrvr::PutItemLog
EXTRN	?GetInstance@CInstanceDungeonHelper@@SAPAV1@XZ:PROC ; CInstanceDungeonHelper::GetInstance
EXTRN	?GetType@CInstanceDungeonHelper@@AAEHK@Z:PROC	; CInstanceDungeonHelper::GetType
EXTRN	?SendUserPartySkill@CDPCoreClient@@QAEXKHKHH@Z:PROC ; CDPCoreClient::SendUserPartySkill
EXTRN	?SendTeleportPlayer@CDPCoreClient@@QAEXKK@Z:PROC ; CDPCoreClient::SendTeleportPlayer
EXTRN	?SendLogSkillPoint@CDPDatabaseClient@@QAEXHHPAVCMover@@PAUtagSkill@@@Z:PROC ; CDPDatabaseClient::SendLogSkillPoint
EXTRN	?SendLogSMItemUse@CDPDatabaseClient@@QAEXPBDPAVCUser@@PAVCItemElem@@PAUItemProp@@0@Z:PROC ; CDPDatabaseClient::SendLogSMItemUse
EXTRN	?CalluspPetLog@CDPDatabaseClient@@QAEXKKKHPAVCPet@@@Z:PROC ; CDPDatabaseClient::CalluspPetLog
EXTRN	?SendUpdatePlayerData@CDPDatabaseClient@@QAEXPAVCUser@@@Z:PROC ; CDPDatabaseClient::SendUpdatePlayerData
EXTRN	?GetInstance@CItemUpgrade@@SAPAV1@XZ:PROC	; CItemUpgrade::GetInstance
EXTRN	?RemovePetVisItem@CItemUpgrade@@QAEXPAVCUser@@HH@Z:PROC ; CItemUpgrade::RemovePetVisItem
EXTRN	?GetInstance@CFunnyCoin@@SAPAV1@XZ:PROC		; CFunnyCoin::GetInstance
EXTRN	?DoUseFunnyCoin@CFunnyCoin@@QAEHPAVCUser@@PAVCItemElem@@@Z:PROC ; CFunnyCoin::DoUseFunnyCoin
EXTRN	?__SetQuest@@YAXKH@Z:PROC			; __SetQuest
EXTRN	@__security_check_cookie@4:PROC
EXTRN	__CxxThrowException@8:PROC
EXTRN	___CxxFrameHandler3:PROC
EXTRN	__allmul:PROC
EXTRN	__ftol3:PROC
EXTRN	__libm_sse2_acos_precise:PROC
EXTRN	__libm_sse2_cos_precise:PROC
EXTRN	__libm_sse2_sin_precise:PROC
EXTRN	_memcpy:PROC
EXTRN	_memmove:PROC
EXTRN	_memset:PROC
EXTRN	??_7type_info@@6B@:QWORD			; type_info::`vftable'
EXTRN	?g_tCurrent@@3JA:DWORD				; g_tCurrent
EXTRN	?g_next@@3KA:DWORD				; g_next
EXTRN	?prj@@3VCProject@@A:BYTE			; prj
EXTRN	?g_uIdofMulti@@3KA:DWORD			; g_uIdofMulti
EXTRN	?g_eLocal@@3VCFlyffEvent@@A:BYTE		; g_eLocal
EXTRN	?g_GuildCombat1to1Mng@@3VCGuildCombat1to1Mng@@A:BYTE ; g_GuildCombat1to1Mng
EXTRN	?g_UserMng@@3VCUserMng@@A:BYTE			; g_UserMng
EXTRN	?g_WorldMng@@3VCWorldMng@@A:BYTE		; g_WorldMng
EXTRN	?g_DPSrvr@@3VCDPSrvr@@A:BYTE			; g_DPSrvr
EXTRN	?g_DPCoreClient@@3VCDPCoreClient@@A:BYTE	; g_DPCoreClient
EXTRN	?g_dpDBClient@@3VCDPDatabaseClient@@A:BYTE	; g_dpDBClient
EXTRN	?g_PartyMng@@3VCPartyMng@@A:BYTE		; g_PartyMng
EXTRN	?g_GuildCombatMng@@3VCGuildCombat@@A:BYTE	; g_GuildCombatMng
EXTRN	___security_cookie:DWORD
EXTRN	__fltused:DWORD
;	COMDAT ?_OptionsStorage@?1??__local_stdio_printf_options@@9@4_KA
_BSS	SEGMENT
?_OptionsStorage@?1??__local_stdio_printf_options@@9@4_KA DQ 01H DUP (?) ; `__local_stdio_printf_options'::`2'::_OptionsStorage
_BSS	ENDS
;	COMDAT __xmm@80000000800000008000000080000000
CONST	SEGMENT
__xmm@80000000800000008000000080000000 DB 00H, 00H, 00H, 080H, 00H, 00H, 00H
	DB	080H, 00H, 00H, 00H, 080H, 00H, 00H, 00H, 080H
CONST	ENDS
;	COMDAT __xmm@41f00000000000000000000000000000
CONST	SEGMENT
__xmm@41f00000000000000000000000000000 DB 00H, 00H, 00H, 00H, 00H, 00H, 00H
	DB	00H, 00H, 00H, 00H, 00H, 00H, 00H, 0f0H, 'A'
CONST	ENDS
;	COMDAT __real@4eee6b28
CONST	SEGMENT
__real@4eee6b28 DD 04eee6b28r			; 2e+09
CONST	ENDS
;	COMDAT __real@447a0000
CONST	SEGMENT
__real@447a0000 DD 0447a0000r			; 1000
CONST	ENDS
;	COMDAT __real@43b40000
CONST	SEGMENT
__real@43b40000 DD 043b40000r			; 360
CONST	ENDS
;	COMDAT __real@42652ee0
CONST	SEGMENT
__real@42652ee0 DD 042652ee0r			; 57.2958
CONST	ENDS
;	COMDAT __real@41800000
CONST	SEGMENT
__real@41800000 DD 041800000r			; 16
CONST	ENDS
;	COMDAT __real@41700000
CONST	SEGMENT
__real@41700000 DD 041700000r			; 15
CONST	ENDS
;	COMDAT __real@41000000
CONST	SEGMENT
__real@41000000 DD 041000000r			; 8
CONST	ENDS
;	COMDAT __real@40800000
CONST	SEGMENT
__real@40800000 DD 040800000r			; 4
CONST	ENDS
;	COMDAT __real@40400000
CONST	SEGMENT
__real@40400000 DD 040400000r			; 3
CONST	ENDS
;	COMDAT __real@3fc00000
CONST	SEGMENT
__real@3fc00000 DD 03fc00000r			; 1.5
CONST	ENDS
;	COMDAT __real@3f800000
CONST	SEGMENT
__real@3f800000 DD 03f800000r			; 1
CONST	ENDS
;	COMDAT __real@3f4ccccd
CONST	SEGMENT
__real@3f4ccccd DD 03f4ccccdr			; 0.8
CONST	ENDS
;	COMDAT __real@3f333333
CONST	SEGMENT
__real@3f333333 DD 03f333333r			; 0.7
CONST	ENDS
;	COMDAT __real@3f000000
CONST	SEGMENT
__real@3f000000 DD 03f000000r			; 0.5
CONST	ENDS
;	COMDAT __real@3e99999a
CONST	SEGMENT
__real@3e99999a DD 03e99999ar			; 0.3
CONST	ENDS
;	COMDAT __real@3c8efa35
CONST	SEGMENT
__real@3c8efa35 DD 03c8efa35r			; 0.0174533
CONST	ENDS
;	COMDAT __real@00000000
CONST	SEGMENT
__real@00000000 DD 000000000r			; 0
CONST	ENDS
;	COMDAT ??_C@_0BF@OJMCJNHH@GETEQUIP?1?1?$CFd?0?5?$CFd?0?5?$CFd@
CONST	SEGMENT
??_C@_0BF@OJMCJNHH@GETEQUIP?1?1?$CFd?0?5?$CFd?0?5?$CFd@ DB 'GETEQUIP//%d,'
	DB	' %d, %d', 00H				; `string'
CONST	ENDS
;	COMDAT ??_C@_0P@NPNKEHMC@Pet_Seltpierce@
CONST	SEGMENT
??_C@_0P@NPNKEHMC@Pet_Seltpierce@ DB 'Pet_Seltpierce', 00H ; `string'
CONST	ENDS
;	COMDAT ??_C@_0N@CNOPGOC@Pet_Seltcobi@
CONST	SEGMENT
??_C@_0N@CNOPGOC@Pet_Seltcobi@ DB 'Pet_Seltcobi', 00H	; `string'
CONST	ENDS
;	COMDAT ??_C@_0N@BOLHNAPJ@Pet_Seltpudi@
CONST	SEGMENT
??_C@_0N@BOLHNAPJ@Pet_Seltpudi@ DB 'Pet_Seltpudi', 00H	; `string'
CONST	ENDS
;	COMDAT ??_C@_0N@EGNMKPHL@Pet_Seltpiyo@
CONST	SEGMENT
??_C@_0N@EGNMKPHL@Pet_Seltpiyo@ DB 'Pet_Seltpiyo', 00H	; `string'
CONST	ENDS
;	COMDAT ??_C@_02DKCKIIND@?$CFs@
CONST	SEGMENT
??_C@_02DKCKIIND@?$CFs@ DB '%s', 00H			; `string'
CONST	ENDS
;	COMDAT ??_C@_0DN@LKDJCKJ@CMover?3?3SendDamageLine?5?3?5?$CFs?4?5?$LO?F@
CONST	SEGMENT
??_C@_0DN@LKDJCKJ@CMover?3?3SendDamageLine?5?3?5?$CFs?4?5?$LO?F@ DB 'CMov'
	DB	'er::SendDamageLine : %s. ', 0beH, 0c6H, 0c0H, 0ccH, 0c5H, 0dbH
	DB	'(%d)', 0c0H, 0c7H, ' ', 0c7H, 0c1H, 0b7H, 0ceH, 0c6H, 0dbH, 0c6H
	DB	0bcH, 0b0H, 0a1H, ' ', 0beH, 0f7H, 0a4H, 0b2H, 0b4H, 0d9H, '.', 00H ; `string'
CONST	ENDS
;	COMDAT ??_C@_0DL@KEBMKGCP@CMover?3?3SendDamageLine?5?3?5?$CFs?4?5?$LN?$LK@
CONST	SEGMENT
??_C@_0DL@KEBMKGCP@CMover?3?3SendDamageLine?5?3?5?$CFs?4?5?$LN?$LK@ DB 'C'
	DB	'Mover::SendDamageLine : %s. ', 0bdH, 0baH, 0c5H, 0b3H, '(%d)', 0c0H
	DB	0c7H, ' ', 0c7H, 0c1H, 0b7H, 0ceH, 0c6H, 0dbH, 0c6H, 0bcH, 0b0H
	DB	0a1H, ' ', 0beH, 0f7H, 0a4H, 0b2H, 0b4H, 0d9H, '.', 00H ; `string'
CONST	ENDS
;	COMDAT ??_C@_0CJ@BEJKIDOG@CMover?3?3SendDamageLine?5?3?5D?3?$CFs?5A@
CONST	SEGMENT
??_C@_0CJ@BEJKIDOG@CMover?3?3SendDamageLine?5?3?5D?3?$CFs?5A@ DB 'CMover:'
	DB	':SendDamageLine : D:%s A:%s %d %f', 00H	; `string'
CONST	ENDS
;	COMDAT ??_C@_0DN@BLLPBDJB@CMover?3?3SendDamageAround?5?3?5?$CFs?4?5@
CONST	SEGMENT
??_C@_0DN@BLLPBDJB@CMover?3?3SendDamageAround?5?3?5?$CFs?4?5@ DB 'CMover:'
	DB	':SendDamageAround : %s. ', 0beH, 0c6H, 0c0H, 0ccH, 0c5H, 0dbH
	DB	'(%d)', 0c0H, 0c7H, ' ', 0c7H, 0c1H, 0b7H, 0ceH, 0c6H, 0dbH, 0c6H
	DB	0bcH, 0b0H, 0a1H, ' ', 0beH, 0f7H, 0b4H, 0d9H, '.', 00H ; `string'
CONST	ENDS
;	COMDAT ??_C@_0DL@FEJEHPAL@CMover?3?3SendDamageAround?5?3?5?$CFs?4?5@
CONST	SEGMENT
??_C@_0DL@FEJEHPAL@CMover?3?3SendDamageAround?5?3?5?$CFs?4?5@ DB 'CMover:'
	DB	':SendDamageAround : %s. ', 0bdH, 0baH, 0c5H, 0b3H, '(%d)', 0c0H
	DB	0c7H, ' ', 0c7H, 0c1H, 0b7H, 0ceH, 0c6H, 0dbH, 0c6H, 0bcH, 0b0H
	DB	0a1H, ' ', 0beH, 0f7H, 0b4H, 0d9H, '.', 00H	; `string'
CONST	ENDS
;	COMDAT ??_C@_0CL@JELFJLED@CMover?3?3SendDamageAround?5?3?5D?3?$CFs@
CONST	SEGMENT
??_C@_0CL@JELFJLED@CMover?3?3SendDamageAround?5?3?5D?3?$CFs@ DB 'CMover::'
	DB	'SendDamageAround : D:%s A:%s %d %f', 00H	; `string'
CONST	ENDS
;	COMDAT ??_C@_0CJ@BKJEKCBD@DoAttackMelee?5?3?5?$CFs?5?$MA?G?5ItemProp?$MA@
CONST	SEGMENT
??_C@_0CJ@BKJEKCBD@DoAttackMelee?5?3?5?$CFs?5?$MA?G?5ItemProp?$MA@ DB 'Do'
	DB	'AttackMelee : %s ', 0c0H, 0c7H, ' ItemProp', 0c0H, 0ccH, ' NU'
	DB	'LL %d', 00H					; `string'
CONST	ENDS
;	COMDAT ??_C@_0DJ@FIKMOPND@DoAttackSP?5?3?5?$CFs?$MA?G?5?$LA?x?$LA?$NN?$CFd?$MA?G?5dwUs@
CONST	SEGMENT
??_C@_0DJ@FIKMOPND@DoAttackSP?5?3?5?$CFs?$MA?G?5?$LA?x?$LA?$NN?$CFd?$MA?G?5dwUs@ DB 'D'
	DB	'oAttackSP : %s', 0c0H, 0c7H, ' ', 0b0H, 0f8H, 0b0H, 0ddH, '%d'
	DB	0c0H, 0c7H, ' dwUseMotion', 0c0H, 0ccH, ' ', 0c1H, 0f6H, 0c1H, 0a4H
	DB	0b5H, 0c7H, 0c1H, 0f6H, ' ', 0beH, 0caH, 0beH, 0d2H, 0b4H, 0d9H
	DB	00H						; `string'
CONST	ENDS
;	COMDAT ??_C@_0CG@EOHFKLIK@DoAttackSP?5?3?5?$CFs?5?$MA?G?5ItemProp?$MA?L?5N@
CONST	SEGMENT
??_C@_0CG@EOHFKLIK@DoAttackSP?5?3?5?$CFs?5?$MA?G?5ItemProp?$MA?L?5N@ DB 'D'
	DB	'oAttackSP : %s ', 0c0H, 0c7H, ' ItemProp', 0c0H, 0ccH, ' NULL'
	DB	' %d', 00H					; `string'
CONST	ENDS
;	COMDAT ??_C@_0DA@HDIEHEPJ@DoAttackRange?5?3?5?$CFs?5?$FL?$CFd?$FN?8s?5dwUse@
CONST	SEGMENT
??_C@_0DA@HDIEHEPJ@DoAttackRange?5?3?5?$CFs?5?$FL?$CFd?$FN?8s?5dwUse@ DB 'D'
	DB	'oAttackRange : %s [%d]''s dwUseMotion = NULL_ID', 00H ; `string'
CONST	ENDS
;	COMDAT ??_C@_0CN@DCNDELEC@DoAttackRange?5?3?5?$CFs?5ActiveHandIt@
CONST	SEGMENT
??_C@_0CN@DCNDELEC@DoAttackRange?5?3?5?$CFs?5ActiveHandIt@ DB 'DoAttackRa'
	DB	'nge : %s ActiveHandItemProp = NULL', 00H	; `string'
CONST	ENDS
;	COMDAT ??_C@_09FAFPDOMC@USE_PERIN@
CONST	SEGMENT
??_C@_09FAFPDOMC@USE_PERIN@ DB 'USE_PERIN', 00H		; `string'
CONST	ENDS
;	COMDAT ??_C@_01GFHCPBMG@C@
CONST	SEGMENT
??_C@_01GFHCPBMG@C@ DB 'C', 00H				; `string'
CONST	ENDS
;	COMDAT ??_C@_0BB@KDNJAMCD@MaFl_InstantBank@
CONST	SEGMENT
??_C@_0BB@KDNJAMCD@MaFl_InstantBank@ DB 'MaFl_InstantBank', 00H ; `string'
CONST	ENDS
;	COMDAT ??_C@_0DA@GIPACFEO@II_SYS_SYS_SCR_RETURN?5selected?5@
CONST	SEGMENT
??_C@_0DA@GIPACFEO@II_SYS_SYS_SCR_RETURN?5selected?5@ DB 'II_SYS_SYS_SCR_'
	DB	'RETURN selected village is NULL', 0aH, 00H	; `string'
CONST	ENDS
;	COMDAT ??_C@_0DD@FCPHEJAC@DoUseItem?0?5IK2_SKILL?0?5item?5?$CFs?5?9@
CONST	SEGMENT
??_C@_0DD@FCPHEJAC@DoUseItem?0?5IK2_SKILL?0?5item?5?$CFs?5?9@ DB 'DoUseIt'
	DB	'em, IK2_SKILL, item %s -> %d skill not prop', 00H ; `string'
CONST	ENDS
;	COMDAT ??_C@_01KMDKNFGN@?1@
CONST	SEGMENT
??_C@_01KMDKNFGN@?1@ DB '/', 00H			; `string'
CONST	ENDS
;	COMDAT ??_C@_0L@PGLFOAIL@?$CFs?5?$CFd?$CF?$CF?5?$CFs@
CONST	SEGMENT
??_C@_0L@PGLFOAIL@?$CFs?5?$CFd?$CF?$CF?5?$CFs@ DB '%s %d%% %s', 00H ; `string'
CONST	ENDS
;	COMDAT ??_C@_09DPACILDJ@?$CC?$CFs?$CC?5?$CC?$CFs?$CC@
CONST	SEGMENT
??_C@_09DPACILDJ@?$CC?$CFs?$CC?5?$CC?$CFs?$CC@ DB '"%s" "%s"', 00H ; `string'
CONST	ENDS
;	COMDAT ??_C@_07PFGKEPEH@?$CFd?5?9?5?$CFd@
CONST	SEGMENT
??_C@_07PFGKEPEH@?$CFd?5?9?5?$CFd@ DB '%d - %d', 00H	; `string'
CONST	ENDS
;	COMDAT ??_C@_0BB@KAAKNBKL@USE_RESTATE_ITEM@
CONST	SEGMENT
??_C@_0BB@KAAKNBKL@USE_RESTATE_ITEM@ DB 'USE_RESTATE_ITEM', 00H ; `string'
CONST	ENDS
;	COMDAT ??_C@_01NOFIACDB@w@
CONST	SEGMENT
??_C@_01NOFIACDB@w@ DB 'w', 00H				; `string'
CONST	ENDS
;	COMDAT ??_C@_0BE@COEAJDGE@USE_RECCURENCE_ITEM@
CONST	SEGMENT
??_C@_0BE@COEAJDGE@USE_RECCURENCE_ITEM@ DB 'USE_RECCURENCE_ITEM', 00H ; `string'
CONST	ENDS
;	COMDAT ??_C@_01HIHLOKLC@1@
CONST	SEGMENT
??_C@_01HIHLOKLC@1@ DB '1', 00H				; `string'
CONST	ENDS
;	COMDAT ??_C@_04PNFMAOFG@?$CC?$CFd?$CC@
CONST	SEGMENT
??_C@_04PNFMAOFG@?$CC?$CFd?$CC@ DB '"%d"', 00H		; `string'
CONST	ENDS
;	COMDAT ??_C@_0N@OINNJKEM@ANGEL_SUMMON@
CONST	SEGMENT
??_C@_0N@OINNJKEM@ANGEL_SUMMON@ DB 'ANGEL_SUMMON', 00H	; `string'
CONST	ENDS
;	COMDAT ??_C@_01HNPIGOCE@?$CG@
CONST	SEGMENT
??_C@_01HNPIGOCE@?$CG@ DB '&', 00H			; `string'
CONST	ENDS
;	COMDAT ??_C@_0M@HGMIEEBN@HOUSING_USE@
CONST	SEGMENT
??_C@_0M@HGMIEEBN@HOUSING_USE@ DB 'HOUSING_USE', 00H	; `string'
CONST	ENDS
;	COMDAT ??_C@_01INIBCBCB@f@
CONST	SEGMENT
??_C@_01INIBCBCB@f@ DB 'f', 00H				; `string'
CONST	ENDS
;	COMDAT ??_C@_0BC@PPLMFBOE@GUILDHOUSE_LISTUP@
CONST	SEGMENT
??_C@_0BC@PPLMFBOE@GUILDHOUSE_LISTUP@ DB 'GUILDHOUSE_LISTUP', 00H ; `string'
CONST	ENDS
;	COMDAT ??_C@_0BA@LLKPHDJP@OnEndSkillState@
CONST	SEGMENT
??_C@_0BA@LLKPHDJP@OnEndSkillState@ DB 'OnEndSkillState', 00H ; `string'
CONST	ENDS
;	COMDAT ??_C@_0CL@ILELHNJ@OnEndSkillState?5?3?5?$LN?$LK?E?$LD?$MA?G?5?$LJ?$PM?$MA?$KH?$LI?$KG@
CONST	SEGMENT
??_C@_0CL@ILELHNJ@OnEndSkillState?5?3?5?$LN?$LK?E?$LD?$MA?G?5?$LJ?$PM?$MA?$KH?$LI?$KG@ DB 'O'
	DB	'nEndSkillState : ', 0bdH, 0baH, 0c5H, 0b3H, 0c0H, 0c7H, ' ', 0b9H
	DB	0fcH, 0c0H, 0a7H, 0b8H, 0a6H, ' ', 0b3H, 0d1H, 0beH, 0eeH, 0bcH
	DB	0b6H, '. %d', 00H				; `string'
CONST	ENDS
;	COMDAT ??_C@_0CB@HOKPNGH@DoUseSkill?5?3?5?$CFs?5dwSkillType?5?$DN?5?$CF@
CONST	SEGMENT
??_C@_0CB@HOKPNGH@DoUseSkill?5?3?5?$CFs?5dwSkillType?5?$DN?5?$CF@ DB 'DoU'
	DB	'seSkill : %s dwSkillType = %d', 00H		; `string'
CONST	ENDS
;	COMDAT ??_C@_0N@KPJAOLNB@SkillLevel2?5@
CONST	SEGMENT
??_C@_0N@KPJAOLNB@SkillLevel2?5@ DB 'SkillLevel2 ', 00H	; `string'
CONST	ENDS
;	COMDAT ??_C@_0DF@KIFDAMPH@DoUseSkill?5?3?5?$CFs?5NULL?5GetSkill?5?$CF@
CONST	SEGMENT
??_C@_0DF@KIFDAMPH@DoUseSkill?5?3?5?$CFs?5NULL?5GetSkill?5?$CF@ DB 'DoUse'
	DB	'Skill : %s NULL GetSkill %d = dwReSkill(%d, %d)', 00H ; `string'
CONST	ENDS
;	COMDAT ??_C@_0N@KNNGFFII@SkillLevel1?5@
CONST	SEGMENT
??_C@_0N@KNNGFFII@SkillLevel1?5@ DB 'SkillLevel1 ', 00H	; `string'
CONST	ENDS
;	COMDAT ??_C@_0CN@EEBJCALL@DoUseSkill?5?3?5?$CFs?5?0?5?E?$LI?$LA?Y?5?$CFs?5?$MA?G?5?G?A@
CONST	SEGMENT
??_C@_0CN@EEBJCALL@DoUseSkill?5?3?5?$CFs?5?0?5?E?$LI?$LA?Y?5?$CFs?5?$MA?G?5?G?A@ DB 'D'
	DB	'oUseSkill : %s , ', 0c5H, 0b8H, 0b0H, 0d9H, ' %s ', 0c0H, 0c7H
	DB	' ', 0c7H, 0c1H, 0b7H, 0ceH, 0c6H, 0dbH, 0c6H, 0bcH, 0b0H, 0a1H
	DB	' ', 0beH, 0f8H, 0b4H, 0d9H, 00H		; `string'
CONST	ENDS
;	COMDAT ??_C@_04OEDFLLKD@?$CC?$CFs?$CC@
CONST	SEGMENT
??_C@_04OEDFLLKD@?$CC?$CFs?$CC@ DB '"%s"', 00H		; `string'
CONST	ENDS
;	COMDAT ??_C@_0L@LLMCBIOI@DoUseSkill@
CONST	SEGMENT
??_C@_0L@LLMCBIOI@DoUseSkill@ DB 'DoUseSkill', 00H	; `string'
CONST	ENDS
;	COMDAT ??_C@_0N@FIJAGOKJ@DoUseSkill_P@
CONST	SEGMENT
??_C@_0N@FIJAGOKJ@DoUseSkill_P@ DB 'DoUseSkill_P', 00H	; `string'
CONST	ENDS
;	COMDAT ??_C@_0DN@POBPMOID@CMover?3?3DoUseSkill?5?3?5?$CFs?$LE?B?5nIdx?$LP@
CONST	SEGMENT
??_C@_0DN@POBPMOID@CMover?3?3DoUseSkill?5?3?5?$CFs?$LE?B?5nIdx?$LP@ DB 'C'
	DB	'Mover::DoUseSkill : %s', 0b4H, 0c2H, ' nIdx', 0bfH, 0a1H, ' ', 0bdH
	DB	0baH, 0c5H, 0b3H, 0c0H, 0bbH, ' ', 0b0H, 0a1H, 0c1H, 0f6H, 0b0H
	DB	0edH, ' ', 0c0H, 0d6H, 0c1H, 0f6H, ' ', 0beH, 0caH, 0b4H, 0d9H
	DB	'. %d', 00H					; `string'
CONST	ENDS
;	COMDAT ??_C@_0EC@JPIDGHBC@CMover?3?3GetQueueCastingTime?5?3?5?$CF@
CONST	SEGMENT
??_C@_0EC@JPIDGHBC@CMover?3?3GetQueueCastingTime?5?3?5?$CF@ DB 'CMover::G'
	DB	'etQueueCastingTime : %s. ', 0beH, 0d6H, 0b5H, 0e5H, 0bdH, 0baH
	DB	0c5H, 0b3H, '(%d)', 0c0H, 0c7H, ' ', 0c7H, 0c1H, 0b7H, 0ceH, 0c6H
	DB	0dbH, 0c6H, 0bcH, 0b0H, 0a1H, ' ', 0beH, 0f8H, 0b4H, 0d9H, '.', 00H ; `string'
CONST	ENDS
;	COMDAT ??_C@_0DO@PAGMBNAO@CMover?3?3GetQueueCastingTime?5?3?5?$CF@
CONST	SEGMENT
??_C@_0DO@PAGMBNAO@CMover?3?3GetQueueCastingTime?5?3?5?$CF@ DB 'CMover::G'
	DB	'etQueueCastingTime : %s. ', 0bdH, 0baH, 0c5H, 0b3H, '(%d)', 0c0H
	DB	0c7H, ' ', 0c7H, 0c1H, 0b7H, 0ceH, 0c6H, 0dbH, 0c6H, 0bcH, 0b0H
	DB	0a1H, ' ', 0beH, 0f8H, 0b4H, 0d9H, '.', 00H	; `string'
CONST	ENDS
;	COMDAT ??_R4bad_alloc@std@@6B@
rdata$r	SEGMENT
??_R4bad_alloc@std@@6B@ DD 00H				; std::bad_alloc::`RTTI Complete Object Locator'
	DD	00H
	DD	00H
	DD	FLAT:??_R0?AVbad_alloc@std@@@8
	DD	FLAT:??_R3bad_alloc@std@@8
rdata$r	ENDS
;	COMDAT ??_R2bad_alloc@std@@8
rdata$r	SEGMENT
??_R2bad_alloc@std@@8 DD FLAT:??_R1A@?0A@EA@bad_alloc@std@@8 ; std::bad_alloc::`RTTI Base Class Array'
	DD	FLAT:??_R1A@?0A@EA@exception@std@@8
rdata$r	ENDS
;	COMDAT ??_R3bad_alloc@std@@8
rdata$r	SEGMENT
??_R3bad_alloc@std@@8 DD 00H				; std::bad_alloc::`RTTI Class Hierarchy Descriptor'
	DD	00H
	DD	02H
	DD	FLAT:??_R2bad_alloc@std@@8
rdata$r	ENDS
;	COMDAT ??_R1A@?0A@EA@bad_alloc@std@@8
rdata$r	SEGMENT
??_R1A@?0A@EA@bad_alloc@std@@8 DD FLAT:??_R0?AVbad_alloc@std@@@8 ; std::bad_alloc::`RTTI Base Class Descriptor at (0,-1,0,64)'
	DD	01H
	DD	00H
	DD	0ffffffffH
	DD	00H
	DD	040H
	DD	FLAT:??_R3bad_alloc@std@@8
rdata$r	ENDS
;	COMDAT ??_R1A@?0A@EA@bad_array_new_length@std@@8
rdata$r	SEGMENT
??_R1A@?0A@EA@bad_array_new_length@std@@8 DD FLAT:??_R0?AVbad_array_new_length@std@@@8 ; std::bad_array_new_length::`RTTI Base Class Descriptor at (0,-1,0,64)'
	DD	02H
	DD	00H
	DD	0ffffffffH
	DD	00H
	DD	040H
	DD	FLAT:??_R3bad_array_new_length@std@@8
rdata$r	ENDS
;	COMDAT ??_R2bad_array_new_length@std@@8
rdata$r	SEGMENT
??_R2bad_array_new_length@std@@8 DD FLAT:??_R1A@?0A@EA@bad_array_new_length@std@@8 ; std::bad_array_new_length::`RTTI Base Class Array'
	DD	FLAT:??_R1A@?0A@EA@bad_alloc@std@@8
	DD	FLAT:??_R1A@?0A@EA@exception@std@@8
rdata$r	ENDS
;	COMDAT ??_R3bad_array_new_length@std@@8
rdata$r	SEGMENT
??_R3bad_array_new_length@std@@8 DD 00H			; std::bad_array_new_length::`RTTI Class Hierarchy Descriptor'
	DD	00H
	DD	03H
	DD	FLAT:??_R2bad_array_new_length@std@@8
rdata$r	ENDS
;	COMDAT ??_R4bad_array_new_length@std@@6B@
rdata$r	SEGMENT
??_R4bad_array_new_length@std@@6B@ DD 00H		; std::bad_array_new_length::`RTTI Complete Object Locator'
	DD	00H
	DD	00H
	DD	FLAT:??_R0?AVbad_array_new_length@std@@@8
	DD	FLAT:??_R3bad_array_new_length@std@@8
rdata$r	ENDS
;	COMDAT ??_R1A@?0A@EA@exception@std@@8
rdata$r	SEGMENT
??_R1A@?0A@EA@exception@std@@8 DD FLAT:??_R0?AVexception@std@@@8 ; std::exception::`RTTI Base Class Descriptor at (0,-1,0,64)'
	DD	00H
	DD	00H
	DD	0ffffffffH
	DD	00H
	DD	040H
	DD	FLAT:??_R3exception@std@@8
rdata$r	ENDS
;	COMDAT ??_R2exception@std@@8
rdata$r	SEGMENT
??_R2exception@std@@8 DD FLAT:??_R1A@?0A@EA@exception@std@@8 ; std::exception::`RTTI Base Class Array'
rdata$r	ENDS
;	COMDAT ??_R3exception@std@@8
rdata$r	SEGMENT
??_R3exception@std@@8 DD 00H				; std::exception::`RTTI Class Hierarchy Descriptor'
	DD	00H
	DD	01H
	DD	FLAT:??_R2exception@std@@8
rdata$r	ENDS
;	COMDAT ??_R4exception@std@@6B@
rdata$r	SEGMENT
??_R4exception@std@@6B@ DD 00H				; std::exception::`RTTI Complete Object Locator'
	DD	00H
	DD	00H
	DD	FLAT:??_R0?AVexception@std@@@8
	DD	FLAT:??_R3exception@std@@8
rdata$r	ENDS
;	COMDAT ??_C@_0BA@FOIKENOD@vector?5too?5long@
CONST	SEGMENT
??_C@_0BA@FOIKENOD@vector?5too?5long@ DB 'vector too long', 00H ; `string'
CONST	ENDS
;	COMDAT ??_C@_05KKCIMGE@error@
CONST	SEGMENT
??_C@_05KKCIMGE@error@ DB 'error', 00H			; `string'
CONST	ENDS
;	COMDAT ??_C@_0BE@OHDBLHOM@GetText?5range_error@
CONST	SEGMENT
??_C@_0BE@OHDBLHOM@GetText?5range_error@ DB 'GetText range_error', 00H ; `string'
CONST	ENDS
;	COMDAT ??_C@_0BJ@GKPOBPPI@GetMoverProp?5range_error@
CONST	SEGMENT
??_C@_0BJ@GKPOBPPI@GetMoverProp?5range_error@ DB 'GetMoverProp range_erro'
	DB	'r', 00H					; `string'
CONST	ENDS
;	COMDAT ??_C@_0BJ@GPNGCFMK@GetSkillProp?5range_error@
CONST	SEGMENT
??_C@_0BJ@GPNGCFMK@GetSkillProp?5range_error@ DB 'GetSkillProp range_erro'
	DB	'r', 00H					; `string'
CONST	ENDS
;	COMDAT ??_C@_0BI@BEIFNGEL@GetItemProp?5range_error@
CONST	SEGMENT
??_C@_0BI@BEIFNGEL@GetItemProp?5range_error@ DB 'GetItemProp range_error', 00H ; `string'
CONST	ENDS
;	COMDAT ??_C@_0BM@HMFGHCP@?$CFs?5min?3?$CFd?0?5max?3?$CFd?0?5index?3?$CFd@
CONST	SEGMENT
??_C@_0BM@HMFGHCP@?$CFs?5min?3?$CFd?0?5max?3?$CFd?0?5index?3?$CFd@ DB '%s'
	DB	' min:%d, max:%d, index:%d', 00H		; `string'
CONST	ENDS
;	COMDAT __CT??_R0?AVbad_alloc@std@@@8??0bad_alloc@std@@QAE@ABV01@@Z12
xdata$x	SEGMENT
__CT??_R0?AVbad_alloc@std@@@8??0bad_alloc@std@@QAE@ABV01@@Z12 DD 010H
	DD	FLAT:??_R0?AVbad_alloc@std@@@8
	DD	00H
	DD	0ffffffffH
	ORG $+4
	DD	0cH
	DD	FLAT:??0bad_alloc@std@@QAE@ABV01@@Z
xdata$x	ENDS
;	COMDAT ??_R0?AVbad_alloc@std@@@8
data$r	SEGMENT
??_R0?AVbad_alloc@std@@@8 DD FLAT:??_7type_info@@6B@	; std::bad_alloc `RTTI Type Descriptor'
	DD	00H
	DB	'.?AVbad_alloc@std@@', 00H
data$r	ENDS
;	COMDAT __CT??_R0?AVbad_array_new_length@std@@@8??0bad_array_new_length@std@@QAE@ABV01@@Z12
xdata$x	SEGMENT
__CT??_R0?AVbad_array_new_length@std@@@8??0bad_array_new_length@std@@QAE@ABV01@@Z12 DD 00H
	DD	FLAT:??_R0?AVbad_array_new_length@std@@@8
	DD	00H
	DD	0ffffffffH
	ORG $+4
	DD	0cH
	DD	FLAT:??0bad_array_new_length@std@@QAE@ABV01@@Z
xdata$x	ENDS
;	COMDAT ??_R0?AVbad_array_new_length@std@@@8
data$r	SEGMENT
??_R0?AVbad_array_new_length@std@@@8 DD FLAT:??_7type_info@@6B@ ; std::bad_array_new_length `RTTI Type Descriptor'
	DD	00H
	DB	'.?AVbad_array_new_length@std@@', 00H
data$r	ENDS
;	COMDAT __CTA3?AVbad_array_new_length@std@@
xdata$x	SEGMENT
__CTA3?AVbad_array_new_length@std@@ DD 03H
	DD	FLAT:__CT??_R0?AVbad_array_new_length@std@@@8??0bad_array_new_length@std@@QAE@ABV01@@Z12
	DD	FLAT:__CT??_R0?AVbad_alloc@std@@@8??0bad_alloc@std@@QAE@ABV01@@Z12
	DD	FLAT:__CT??_R0?AVexception@std@@@8??0exception@std@@QAE@ABV01@@Z12
xdata$x	ENDS
;	COMDAT __TI3?AVbad_array_new_length@std@@
xdata$x	SEGMENT
__TI3?AVbad_array_new_length@std@@ DD 00H
	DD	FLAT:??1bad_array_new_length@std@@UAE@XZ
	DD	00H
	DD	FLAT:__CTA3?AVbad_array_new_length@std@@
xdata$x	ENDS
;	COMDAT __CT??_R0?AVexception@std@@@8??0exception@std@@QAE@ABV01@@Z12
xdata$x	SEGMENT
__CT??_R0?AVexception@std@@@8??0exception@std@@QAE@ABV01@@Z12 DD 00H
	DD	FLAT:??_R0?AVexception@std@@@8
	DD	00H
	DD	0ffffffffH
	ORG $+4
	DD	0cH
	DD	FLAT:??0exception@std@@QAE@ABV01@@Z
xdata$x	ENDS
;	COMDAT ??_R0?AVexception@std@@@8
data$r	SEGMENT
??_R0?AVexception@std@@@8 DD FLAT:??_7type_info@@6B@	; std::exception `RTTI Type Descriptor'
	DD	00H
	DB	'.?AVexception@std@@', 00H
data$r	ENDS
;	COMDAT ??_C@_0BF@KINCDENJ@bad?5array?5new?5length@
CONST	SEGMENT
??_C@_0BF@KINCDENJ@bad?5array?5new?5length@ DB 'bad array new length', 00H ; `string'
CONST	ENDS
;	COMDAT ??_7bad_array_new_length@std@@6B@
CONST	SEGMENT
??_7bad_array_new_length@std@@6B@ DD FLAT:??_R4bad_array_new_length@std@@6B@ ; std::bad_array_new_length::`vftable'
	DD	FLAT:??_Ebad_array_new_length@std@@UAEPAXI@Z
	DD	FLAT:?what@exception@std@@UBEPBDXZ
CONST	ENDS
;	COMDAT ??_7bad_alloc@std@@6B@
CONST	SEGMENT
??_7bad_alloc@std@@6B@ DD FLAT:??_R4bad_alloc@std@@6B@	; std::bad_alloc::`vftable'
	DD	FLAT:??_Ebad_alloc@std@@UAEPAXI@Z
	DD	FLAT:?what@exception@std@@UBEPBDXZ
CONST	ENDS
;	COMDAT ??_C@_0BC@EOODALEL@Unknown?5exception@
CONST	SEGMENT
??_C@_0BC@EOODALEL@Unknown?5exception@ DB 'Unknown exception', 00H ; `string'
CONST	ENDS
;	COMDAT ??_7exception@std@@6B@
CONST	SEGMENT
??_7exception@std@@6B@ DD FLAT:??_R4exception@std@@6B@	; std::exception::`vftable'
	DD	FLAT:??_Eexception@std@@UAEPAXI@Z
	DD	FLAT:?what@exception@std@@UBEPBDXZ
CONST	ENDS
;	COMDAT ??_C@_00CNPNBAHC@@
CONST	SEGMENT
??_C@_00CNPNBAHC@@ DB 00H				; `string'
CONST	ENDS
;	COMDAT ??_C@_02DPKJAMEF@?$CFd@
CONST	SEGMENT
??_C@_02DPKJAMEF@?$CFd@ DB '%d', 00H			; `string'
CONST	ENDS
;	COMDAT xdata$x
xdata$x	SEGMENT
__ehfuncinfo$?DoUseItem@CMover@@QAEHKKH@Z DD 019930522H
	DD	06H
	DD	FLAT:__unwindtable$?DoUseItem@CMover@@QAEHKKH@Z
	DD	2 DUP(00H)
	DD	2 DUP(00H)
	DD	00H
	DD	01H
__unwindtable$?DoUseItem@CMover@@QAEHKKH@Z DD 0ffffffffH
	DD	FLAT:__unwindfunclet$?DoUseItem@CMover@@QAEHKKH@Z$0
	DD	0ffffffffH
	DD	FLAT:__unwindfunclet$?DoUseItem@CMover@@QAEHKKH@Z$1
	DD	01H
	DD	FLAT:__unwindfunclet$?DoUseItem@CMover@@QAEHKKH@Z$2
	DD	0ffffffffH
	DD	FLAT:__unwindfunclet$?DoUseItem@CMover@@QAEHKKH@Z$3
	DD	0ffffffffH
	DD	FLAT:__unwindfunclet$?DoUseItem@CMover@@QAEHKKH@Z$5
	DD	0ffffffffH
	DD	FLAT:__unwindfunclet$?DoUseItem@CMover@@QAEHKKH@Z$4
xdata$x	ENDS
;	COMDAT xdata$x
xdata$x	SEGMENT
__unwindtable$?DoUseBarunaPet@CMover@@QAEXPAVCItemElem@@@Z DD 0ffffffffH
	DD	FLAT:__unwindfunclet$?DoUseBarunaPet@CMover@@QAEXPAVCItemElem@@@Z$0
__ehfuncinfo$?DoUseBarunaPet@CMover@@QAEXPAVCItemElem@@@Z DD 019930522H
	DD	01H
	DD	FLAT:__unwindtable$?DoUseBarunaPet@CMover@@QAEXPAVCItemElem@@@Z
	DD	2 DUP(00H)
	DD	2 DUP(00H)
	DD	00H
	DD	01H
xdata$x	ENDS
;	COMDAT xdata$x
xdata$x	SEGMENT
__unwindtable$?IsSatisfyNeedVis@CMover@@QAEEPAVCItemElem@@PAUItemProp@@@Z DD 0ffffffffH
	DD	FLAT:__unwindfunclet$?IsSatisfyNeedVis@CMover@@QAEEPAVCItemElem@@PAUItemProp@@@Z$0
__ehfuncinfo$?IsSatisfyNeedVis@CMover@@QAEEPAVCItemElem@@PAUItemProp@@@Z DD 019930522H
	DD	01H
	DD	FLAT:__unwindtable$?IsSatisfyNeedVis@CMover@@QAEEPAVCItemElem@@PAUItemProp@@@Z
	DD	2 DUP(00H)
	DD	2 DUP(00H)
	DD	00H
	DD	01H
xdata$x	ENDS
;	COMDAT xdata$x
xdata$x	SEGMENT
__unwindtable$?GetValidVisTable@CMover@@QAE?AV?$vector@EV?$allocator@E@std@@@std@@PAVCItemElem@@@Z DD 0ffffffffH
	DD	FLAT:__unwindfunclet$?GetValidVisTable@CMover@@QAE?AV?$vector@EV?$allocator@E@std@@@std@@PAVCItemElem@@@Z$0
__ehfuncinfo$?GetValidVisTable@CMover@@QAE?AV?$vector@EV?$allocator@E@std@@@std@@PAVCItemElem@@@Z DD 019930522H
	DD	01H
	DD	FLAT:__unwindtable$?GetValidVisTable@CMover@@QAE?AV?$vector@EV?$allocator@E@std@@@std@@PAVCItemElem@@@Z
	DD	2 DUP(00H)
	DD	2 DUP(00H)
	DD	00H
	DD	01H
xdata$x	ENDS
;	COMDAT xdata$x
xdata$x	SEGMENT
__unwindtable$?ResetPetVisDST@CMover@@QAEXPAVCItemElem@@@Z DD 0ffffffffH
	DD	FLAT:__unwindfunclet$?ResetPetVisDST@CMover@@QAEXPAVCItemElem@@@Z$0
__ehfuncinfo$?ResetPetVisDST@CMover@@QAEXPAVCItemElem@@@Z DD 019930522H
	DD	01H
	DD	FLAT:__unwindtable$?ResetPetVisDST@CMover@@QAEXPAVCItemElem@@@Z
	DD	2 DUP(00H)
	DD	2 DUP(00H)
	DD	00H
	DD	01H
xdata$x	ENDS
;	COMDAT xdata$x
xdata$x	SEGMENT
__unwindtable$?SetPetVisDST@CMover@@QAEXPAVCItemElem@@@Z DD 0ffffffffH
	DD	FLAT:__unwindfunclet$?SetPetVisDST@CMover@@QAEXPAVCItemElem@@@Z$0
__ehfuncinfo$?SetPetVisDST@CMover@@QAEXPAVCItemElem@@@Z DD 019930522H
	DD	01H
	DD	FLAT:__unwindtable$?SetPetVisDST@CMover@@QAEXPAVCItemElem@@@Z
	DD	2 DUP(00H)
	DD	2 DUP(00H)
	DD	00H
	DD	01H
xdata$x	ENDS
;	COMDAT xdata$x
xdata$x	SEGMENT
__unwindtable$?ActivateSystemPet@CMover@@QAEXPAVCItemElem@@@Z DD 0ffffffffH
	DD	FLAT:__unwindfunclet$?ActivateSystemPet@CMover@@QAEXPAVCItemElem@@@Z$0
__ehfuncinfo$?ActivateSystemPet@CMover@@QAEXPAVCItemElem@@@Z DD 019930522H
	DD	01H
	DD	FLAT:__unwindtable$?ActivateSystemPet@CMover@@QAEXPAVCItemElem@@@Z
	DD	2 DUP(00H)
	DD	2 DUP(00H)
	DD	00H
	DD	01H
xdata$x	ENDS
;	COMDAT xdata$x
xdata$x	SEGMENT
__unwindtable$?FormatV@?$CStringT@DV?$StrTraitMFC@DV?$ChTraitsCRT@D@ATL@@@@@ATL@@QAEXPBDPAD@Z DD 0ffffffffH
	DD	FLAT:__unwindfunclet$?FormatV@?$CStringT@DV?$StrTraitMFC@DV?$ChTraitsCRT@D@ATL@@@@@ATL@@QAEXPBDPAD@Z$1
	DD	0ffffffffH
	DD	FLAT:__unwindfunclet$?FormatV@?$CStringT@DV?$StrTraitMFC@DV?$ChTraitsCRT@D@ATL@@@@@ATL@@QAEXPBDPAD@Z$0
__ehfuncinfo$?FormatV@?$CStringT@DV?$StrTraitMFC@DV?$ChTraitsCRT@D@ATL@@@@@ATL@@QAEXPBDPAD@Z DD 019930522H
	DD	02H
	DD	FLAT:__unwindtable$?FormatV@?$CStringT@DV?$StrTraitMFC@DV?$ChTraitsCRT@D@ATL@@@@@ATL@@QAEXPBDPAD@Z
	DD	2 DUP(00H)
	DD	2 DUP(00H)
	DD	00H
	DD	01H
xdata$x	ENDS
;	COMDAT xdata$x
xdata$x	SEGMENT
__unwindtable$??0?$CStringT@DV?$StrTraitMFC@DV?$ChTraitsCRT@D@ATL@@@@@ATL@@QAE@PBDPAUIAtlStringMgr@1@@Z DD 0ffffffffH
	DD	FLAT:__unwindfunclet$??0?$CStringT@DV?$StrTraitMFC@DV?$ChTraitsCRT@D@ATL@@@@@ATL@@QAE@PBDPAUIAtlStringMgr@1@@Z$0
__ehfuncinfo$??0?$CStringT@DV?$StrTraitMFC@DV?$ChTraitsCRT@D@ATL@@@@@ATL@@QAE@PBDPAUIAtlStringMgr@1@@Z DD 019930522H
	DD	01H
	DD	FLAT:__unwindtable$??0?$CStringT@DV?$StrTraitMFC@DV?$ChTraitsCRT@D@ATL@@@@@ATL@@QAE@PBDPAUIAtlStringMgr@1@@Z
	DD	2 DUP(00H)
	DD	2 DUP(00H)
	DD	00H
	DD	01H
xdata$x	ENDS
;	COMDAT xdata$x
xdata$x	SEGMENT
__unwindtable$??0?$CStringT@DV?$StrTraitMFC@DV?$ChTraitsCRT@D@ATL@@@@@ATL@@QAE@PBD@Z DD 0ffffffffH
	DD	FLAT:__unwindfunclet$??0?$CStringT@DV?$StrTraitMFC@DV?$ChTraitsCRT@D@ATL@@@@@ATL@@QAE@PBD@Z$0
__ehfuncinfo$??0?$CStringT@DV?$StrTraitMFC@DV?$ChTraitsCRT@D@ATL@@@@@ATL@@QAE@PBD@Z DD 019930522H
	DD	01H
	DD	FLAT:__unwindtable$??0?$CStringT@DV?$StrTraitMFC@DV?$ChTraitsCRT@D@ATL@@@@@ATL@@QAE@PBD@Z
	DD	2 DUP(00H)
	DD	2 DUP(00H)
	DD	00H
	DD	01H
xdata$x	ENDS
; Function compile flags: /Ogtp
; File C:\Program Files\Microsoft Visual Studio\2022\Professional\VC\Tools\MSVC\14.44.35207\include\xutility
;	COMDAT ??$_Fill_memset@PAEE@std@@YAXPAEEI@Z
_TEXT	SEGMENT
__Dest$ = 8						; size = 4
__Val$ = 12						; size = 1
__Count$ = 16						; size = 4
??$_Fill_memset@PAEE@std@@YAXPAEEI@Z PROC		; std::_Fill_memset<unsigned char *,unsigned char>, COMDAT

; 5262 : void _Fill_memset(_CtgIt _Dest, const _Ty _Val, const size_t _Count) {

  00000	55		 push	 ebp
  00001	8b ec		 mov	 ebp, esp

; 5263 :     // implicitly convert (a cast would suppress warnings); also handles _Iter_value_t<_CtgIt> being bool
; 5264 :     _Iter_value_t<_CtgIt> _Dest_val = _Val;
; 5265 :     _CSTD memset(_STD _To_address(_Dest), static_cast<unsigned char>(_Dest_val), _Count);

  00003	0f b6 45 0c	 movzx	 eax, BYTE PTR __Val$[ebp]
  00007	89 45 0c	 mov	 DWORD PTR __Val$[ebp], eax

; 5266 : }

  0000a	5d		 pop	 ebp

; 5263 :     // implicitly convert (a cast would suppress warnings); also handles _Iter_value_t<_CtgIt> being bool
; 5264 :     _Iter_value_t<_CtgIt> _Dest_val = _Val;
; 5265 :     _CSTD memset(_STD _To_address(_Dest), static_cast<unsigned char>(_Dest_val), _Count);

  0000b	e9 00 00 00 00	 jmp	 _memset
??$_Fill_memset@PAEE@std@@YAXPAEEI@Z ENDP		; std::_Fill_memset<unsigned char *,unsigned char>
_TEXT	ENDS
; Function compile flags: /Ogtp
; File C:\Program Files\Microsoft Visual Studio\2022\Professional\VC\Tools\MSVC\14.44.35207\include\vector
; File C:\Program Files\Microsoft Visual Studio\2022\Professional\VC\Tools\MSVC\14.44.35207\include\xmemory
; File C:\Program Files\Microsoft Visual Studio\2022\Professional\VC\Tools\MSVC\14.44.35207\include\vector
; File C:\Program Files\Microsoft Visual Studio\2022\Professional\VC\Tools\MSVC\14.44.35207\include\xmemory
; File C:\Program Files\Microsoft Visual Studio\2022\Professional\VC\Tools\MSVC\14.44.35207\include\vector
; File C:\Program Files\Microsoft Visual Studio\2022\Professional\VC\Tools\MSVC\14.44.35207\include\xmemory
; File C:\Program Files\Microsoft Visual Studio\2022\Professional\VC\Tools\MSVC\14.44.35207\include\vector
; File C:\Program Files\Microsoft Visual Studio\2022\Professional\VC\Tools\MSVC\14.44.35207\include\xmemory
; File C:\Program Files\Microsoft Visual Studio\2022\Professional\VC\Tools\MSVC\14.44.35207\include\vector
; File C:\Program Files\Microsoft Visual Studio\2022\Professional\VC\Tools\MSVC\14.44.35207\include\xmemory
; File C:\Program Files\Microsoft Visual Studio\2022\Professional\VC\Tools\MSVC\14.44.35207\include\vector
; File C:\Program Files\Microsoft Visual Studio\2022\Professional\VC\Tools\MSVC\14.44.35207\include\xmemory
; File C:\Program Files\Microsoft Visual Studio\2022\Professional\VC\Tools\MSVC\14.44.35207\include\vector
; File C:\Program Files\Microsoft Visual Studio\2022\Professional\VC\Tools\MSVC\14.44.35207\include\xmemory
; File C:\Program Files\Microsoft Visual Studio\2022\Professional\VC\Tools\MSVC\14.44.35207\include\vector
; File C:\Program Files\Microsoft Visual Studio\2022\Professional\VC\Tools\MSVC\14.44.35207\include\xmemory
; File C:\Program Files\Microsoft Visual Studio\2022\Professional\VC\Tools\MSVC\14.44.35207\include\vector
;	COMDAT ??$_Resize@E@?$vector@EV?$allocator@E@std@@@std@@AAEXIABE@Z
_TEXT	SEGMENT
__Oldsize$1$ = -8					; size = 4
tv610 = -4						; size = 4
__Newsize$ = 8						; size = 4
$T1 = 8							; size = 4
__Val$ = 12						; size = 4
??$_Resize@E@?$vector@EV?$allocator@E@std@@@std@@AAEXIABE@Z PROC ; std::vector<unsigned char,std::allocator<unsigned char> >::_Resize<unsigned char>, COMDAT
; _this$ = ecx

; 1589 :     _CONSTEXPR20 void _Resize(const size_type _Newsize, const _Ty2& _Val) {

  00000	55		 push	 ebp
  00001	8b ec		 mov	 ebp, esp
  00003	83 ec 08	 sub	 esp, 8
  00006	53		 push	 ebx
  00007	56		 push	 esi

; 1590 :         // trim or append elements, provide strong guarantee
; 1591 :         auto& _Al           = _Getal();
; 1592 :         auto& _My_data      = _Mypair._Myval2;
; 1593 :         pointer& _Myfirst   = _My_data._Myfirst;
; 1594 :         pointer& _Mylast    = _My_data._Mylast;
; 1595 :         const auto _Oldsize = static_cast<size_type>(_Mylast - _Myfirst);
; 1596 :         if (_Newsize < _Oldsize) { // trim

  00008	8b 75 08	 mov	 esi, DWORD PTR __Newsize$[ebp]
  0000b	57		 push	 edi
  0000c	8b f9		 mov	 edi, ecx
  0000e	8b 5f 04	 mov	 ebx, DWORD PTR [edi+4]
  00011	8b c3		 mov	 eax, ebx
  00013	8b 17		 mov	 edx, DWORD PTR [edi]
  00015	2b c2		 sub	 eax, edx
  00017	89 45 f8	 mov	 DWORD PTR __Oldsize$1$[ebp], eax
  0001a	3b f0		 cmp	 esi, eax
  0001c	73 0f		 jae	 SHORT $LN2@Resize

; 1597 :             const pointer _Newlast = _Myfirst + _Newsize;

  0001e	8d 04 32	 lea	 eax, DWORD PTR [edx+esi]

; 1625 :     }

  00021	89 47 04	 mov	 DWORD PTR [edi+4], eax
  00024	5f		 pop	 edi
  00025	5e		 pop	 esi
  00026	5b		 pop	 ebx
  00027	8b e5		 mov	 esp, ebp
  00029	5d		 pop	 ebp
  0002a	c2 08 00	 ret	 8
$LN2@Resize:

; 1598 :             _Orphan_range(_Newlast, _Mylast);
; 1599 :             _Destroy_range(_Newlast, _Mylast, _Al);
; 1600 :             _ASAN_VECTOR_MODIFY(static_cast<difference_type>(_Newsize - _Oldsize));
; 1601 :             _Mylast = _Newlast;
; 1602 :             return;
; 1603 :         }
; 1604 : 
; 1605 :         if (_Newsize > _Oldsize) { // append

  0002d	0f 86 ee 00 00
	00		 jbe	 $LN3@Resize

; 1606 :             const auto _Oldcapacity = static_cast<size_type>(_My_data._Myend - _Myfirst);

  00033	8b 4f 08	 mov	 ecx, DWORD PTR [edi+8]
  00036	2b ca		 sub	 ecx, edx

; 1607 :             if (_Newsize > _Oldcapacity) { // reallocate

  00038	3b f1		 cmp	 esi, ecx
  0003a	0f 86 c8 00 00
	00		 jbe	 $LN4@Resize

; 1553 :         if (_Newsize > max_size()) {

  00040	81 fe ff ff ff
	7f		 cmp	 esi, 2147483647		; 7fffffffH
  00046	0f 87 de 00 00
	00		 ja	 $LN113@Resize

; 2011 :         if (_Oldcapacity > _Max - _Oldcapacity / 2) {

  0004c	8b d1		 mov	 edx, ecx
  0004e	b8 ff ff ff 7f	 mov	 eax, 2147483647		; 7fffffffH
  00053	d1 ea		 shr	 edx, 1
  00055	2b c2		 sub	 eax, edx
  00057	3b c8		 cmp	 ecx, eax
  00059	76 0d		 jbe	 SHORT $LN11@Resize

; 2012 :             return _Max; // geometric growth would overflow

  0005b	bb ff ff ff 7f	 mov	 ebx, 2147483647		; 7fffffffH
; File C:\Program Files\Microsoft Visual Studio\2022\Professional\VC\Tools\MSVC\14.44.35207\include\xmemory

; 253  :             return _Allocate_manually_vector_aligned<_Traits>(_Bytes);

  00060	53		 push	 ebx
  00061	e8 00 00 00 00	 call	 ??$_Allocate_manually_vector_aligned@U_Default_allocate_traits@std@@@std@@YAPAXI@Z ; std::_Allocate_manually_vector_aligned<std::_Default_allocate_traits>
  00066	eb 27		 jmp	 SHORT $LN111@Resize
$LN11@Resize:
; File C:\Program Files\Microsoft Visual Studio\2022\Professional\VC\Tools\MSVC\14.44.35207\include\vector

; 2015 :         const size_type _Geometric = _Oldcapacity + _Oldcapacity / 2;

  00068	8d 1c 0a	 lea	 ebx, DWORD PTR [edx+ecx]

; 2016 : 
; 2017 :         if (_Geometric < _Newsize) {

  0006b	3b de		 cmp	 ebx, esi
  0006d	0f 42 de	 cmovb	 ebx, esi
; File C:\Program Files\Microsoft Visual Studio\2022\Professional\VC\Tools\MSVC\14.44.35207\include\xmemory

; 227  :     if (_Bytes == 0) {

  00070	8b c3		 mov	 eax, ebx
  00072	85 db		 test	 ebx, ebx
  00074	75 04		 jne	 SHORT $LN22@Resize

; 228  :         return nullptr;

  00076	33 c9		 xor	 ecx, ecx
  00078	eb 1a		 jmp	 SHORT $LN110@Resize
$LN22@Resize:

; 229  :     }
; 230  : 
; 231  : #if _HAS_CXX20 // TRANSITION, GH-1532
; 232  :     if (_STD is_constant_evaluated()) {
; 233  :         return _Traits::_Allocate(_Bytes);
; 234  :     }
; 235  : #endif // _HAS_CXX20
; 236  : 
; 237  : #ifdef __cpp_aligned_new
; 238  :     if constexpr (_Align > __STDCPP_DEFAULT_NEW_ALIGNMENT__) {
; 239  :         size_t _Passed_align = _Align;
; 240  : #if defined(_M_IX86) || defined(_M_X64)
; 241  :         if (_Bytes >= _Big_allocation_threshold) {
; 242  :             // boost the alignment of big allocations to help autovectorization
; 243  :             _Passed_align = (_STD max)(_Align, _Big_allocation_alignment);
; 244  :         }
; 245  : #endif // defined(_M_IX86) || defined(_M_X64)
; 246  :         return _Traits::_Allocate_aligned(_Bytes, _Passed_align);
; 247  :     } else
; 248  : #endif // defined(__cpp_aligned_new)
; 249  :     {
; 250  : #if defined(_M_IX86) || defined(_M_X64)
; 251  :         if (_Bytes >= _Big_allocation_threshold) {

  0007a	3d 00 10 00 00	 cmp	 eax, 4096		; 00001000H
  0007f	72 08		 jb	 SHORT $LN23@Resize

; 253  :             return _Allocate_manually_vector_aligned<_Traits>(_Bytes);

  00081	53		 push	 ebx
  00082	e8 00 00 00 00	 call	 ??$_Allocate_manually_vector_aligned@U_Default_allocate_traits@std@@@std@@YAPAXI@Z ; std::_Allocate_manually_vector_aligned<std::_Default_allocate_traits>
  00087	eb 06		 jmp	 SHORT $LN111@Resize
$LN23@Resize:

; 136  :         return ::operator new(_Bytes);

  00089	50		 push	 eax
  0008a	e8 00 00 00 00	 call	 ??2@YAPAXI@Z		; operator new
$LN111@Resize:
; File C:\Program Files\Microsoft Visual Studio\2022\Professional\VC\Tools\MSVC\14.44.35207\include\vector

; 1572 :             _Appended_last = _Uninitialized_fill_n(_Appended_first, _Newsize - _Oldsize, _Val, _Al);

  0008f	8b c8		 mov	 ecx, eax
  00091	83 c4 04	 add	 esp, 4
$LN110@Resize:
  00094	8b 55 f8	 mov	 edx, DWORD PTR __Oldsize$1$[ebp]
  00097	8b c6		 mov	 eax, esi
  00099	2b c2		 sub	 eax, edx
  0009b	89 4d 08	 mov	 DWORD PTR $T1[ebp], ecx
; File C:\Program Files\Microsoft Visual Studio\2022\Professional\VC\Tools\MSVC\14.44.35207\include\xmemory

; 2015 :             _Fill_memset(_Unfancy(_First), _Val, static_cast<size_t>(_Count));

  0009e	50		 push	 eax
  0009f	8b 45 0c	 mov	 eax, DWORD PTR __Val$[ebp]
  000a2	0f b6 00	 movzx	 eax, BYTE PTR [eax]
  000a5	50		 push	 eax
; File C:\Program Files\Microsoft Visual Studio\2022\Professional\VC\Tools\MSVC\14.44.35207\include\vector

; 1566 :         const pointer _Appended_first = _Newvec + _Oldsize;

  000a6	8d 04 11	 lea	 eax, DWORD PTR [ecx+edx]
; File C:\Program Files\Microsoft Visual Studio\2022\Professional\VC\Tools\MSVC\14.44.35207\include\xmemory

; 2015 :             _Fill_memset(_Unfancy(_First), _Val, static_cast<size_t>(_Count));

  000a9	50		 push	 eax
  000aa	e8 00 00 00 00	 call	 ??$_Fill_memset@PAEE@std@@YAXPAEEI@Z ; std::_Fill_memset<unsigned char *,unsigned char>

; 1992 :             _STD _Copy_memmove(_UFirst, _ULast, _STD _Unfancy(_Dest));

  000af	ff 75 08	 push	 DWORD PTR $T1[ebp]
  000b2	ff 77 04	 push	 DWORD PTR [edi+4]
  000b5	ff 37		 push	 DWORD PTR [edi]
  000b7	e8 00 00 00 00	 call	 ??$_Copy_memmove@PAEPAE@std@@YAPAEPAE00@Z ; std::_Copy_memmove<unsigned char *,unsigned char *>
; File C:\Program Files\Microsoft Visual Studio\2022\Professional\VC\Tools\MSVC\14.44.35207\include\vector

; 2069 :         if (_Myfirst) { // destroy and deallocate old array

  000bc	8b 07		 mov	 eax, DWORD PTR [edi]
; File C:\Program Files\Microsoft Visual Studio\2022\Professional\VC\Tools\MSVC\14.44.35207\include\xmemory

; 1992 :             _STD _Copy_memmove(_UFirst, _ULast, _STD _Unfancy(_Dest));

  000be	83 c4 18	 add	 esp, 24			; 00000018H
; File C:\Program Files\Microsoft Visual Studio\2022\Professional\VC\Tools\MSVC\14.44.35207\include\vector

; 2069 :         if (_Myfirst) { // destroy and deallocate old array

  000c1	85 c0		 test	 eax, eax
  000c3	74 29		 je	 SHORT $LN58@Resize

; 2070 :             _STD _Destroy_range(_Myfirst, _Mylast, _Al);
; 2071 :             _ASAN_VECTOR_REMOVE;
; 2072 :             _Al.deallocate(_Myfirst, static_cast<size_type>(_Myend - _Myfirst));

  000c5	8b 4f 08	 mov	 ecx, DWORD PTR [edi+8]
  000c8	2b c8		 sub	 ecx, eax
; File C:\Program Files\Microsoft Visual Studio\2022\Professional\VC\Tools\MSVC\14.44.35207\include\xmemory

; 284  :         if (_Bytes >= _Big_allocation_threshold) {

  000ca	81 f9 00 10 00
	00		 cmp	 ecx, 4096		; 00001000H
  000d0	72 12		 jb	 SHORT $LN63@Resize

; 205  :     const uintptr_t _Ptr_container   = _Ptr_user[-1];

  000d2	8b 50 fc	 mov	 edx, DWORD PTR [eax-4]
  000d5	83 c1 23	 add	 ecx, 35			; 00000023H

; 206  : 
; 207  :     // If the following asserts, it likely means that we are performing
; 208  :     // an aligned delete on memory coming from an unaligned allocation.
; 209  :     _STL_ASSERT(_Ptr_user[-2] == _Big_allocation_sentinel, "invalid argument");
; 210  : 
; 211  :     // Extra paranoia on aligned allocation/deallocation; ensure _Ptr_container is
; 212  :     // in range [_Min_back_shift, _Non_user_size]
; 213  : #ifdef _DEBUG
; 214  :     constexpr uintptr_t _Min_back_shift = 2 * sizeof(void*);
; 215  : #else // ^^^ defined(_DEBUG) / !defined(_DEBUG) vvv
; 216  :     constexpr uintptr_t _Min_back_shift = sizeof(void*);
; 217  : #endif // ^^^ !defined(_DEBUG) ^^^
; 218  :     const uintptr_t _Back_shift = reinterpret_cast<uintptr_t>(_Ptr) - _Ptr_container;

  000d8	2b c2		 sub	 eax, edx

; 219  :     _STL_VERIFY(_Back_shift >= _Min_back_shift && _Back_shift <= _Non_user_size, "invalid argument");

  000da	83 c0 fc	 add	 eax, -4			; fffffffcH
  000dd	83 f8 1f	 cmp	 eax, 31			; 0000001fH
  000e0	77 4d		 ja	 SHORT $LN62@Resize

; 220  :     _Ptr = reinterpret_cast<void*>(_Ptr_container);

  000e2	8b c2		 mov	 eax, edx
$LN63@Resize:

; 289  :         ::operator delete(_Ptr, _Bytes);

  000e4	51		 push	 ecx
  000e5	50		 push	 eax
  000e6	e8 00 00 00 00	 call	 ??3@YAXPAXI@Z		; operator delete
  000eb	83 c4 08	 add	 esp, 8
$LN58@Resize:
; File C:\Program Files\Microsoft Visual Studio\2022\Professional\VC\Tools\MSVC\14.44.35207\include\vector

; 2075 :         _Myfirst = _Newvec;

  000ee	8b 4d 08	 mov	 ecx, DWORD PTR $T1[ebp]
  000f1	89 0f		 mov	 DWORD PTR [edi], ecx

; 2076 :         _Mylast  = _Newvec + _Newsize;

  000f3	8d 04 31	 lea	 eax, DWORD PTR [ecx+esi]
  000f6	89 47 04	 mov	 DWORD PTR [edi+4], eax

; 2077 :         _Myend   = _Newvec + _Newcapacity;

  000f9	8d 04 19	 lea	 eax, DWORD PTR [ecx+ebx]
  000fc	89 47 08	 mov	 DWORD PTR [edi+8], eax
  000ff	5f		 pop	 edi

; 1625 :     }

  00100	5e		 pop	 esi
  00101	5b		 pop	 ebx
  00102	8b e5		 mov	 esp, ebp
  00104	5d		 pop	 ebp
  00105	c2 08 00	 ret	 8
$LN4@Resize:

; 1608 :                 _Resize_reallocate(_Newsize, _Val);
; 1609 :                 return;
; 1610 :             }
; 1611 : 
; 1612 :             _ASAN_VECTOR_EXTEND_GUARD(_Newsize);
; 1613 :             const pointer _Oldlast = _Mylast;
; 1614 :             if constexpr (is_same_v<_Ty2, _Ty>) {
; 1615 :                 _Mylast = _Uninitialized_fill_n(_Oldlast, _Newsize - _Oldsize, _Val, _Al);

  00108	2b f0		 sub	 esi, eax
; File C:\Program Files\Microsoft Visual Studio\2022\Professional\VC\Tools\MSVC\14.44.35207\include\xmemory

; 2015 :             _Fill_memset(_Unfancy(_First), _Val, static_cast<size_t>(_Count));

  0010a	8b 45 0c	 mov	 eax, DWORD PTR __Val$[ebp]
  0010d	56		 push	 esi
  0010e	0f b6 00	 movzx	 eax, BYTE PTR [eax]
  00111	50		 push	 eax
  00112	53		 push	 ebx
  00113	e8 00 00 00 00	 call	 ??$_Fill_memset@PAEE@std@@YAXPAEEI@Z ; std::_Fill_memset<unsigned char *,unsigned char>

; 2016 :             return _First + _Count;

  00118	8d 04 1e	 lea	 eax, DWORD PTR [esi+ebx]
  0011b	83 c4 0c	 add	 esp, 12			; 0000000cH
; File C:\Program Files\Microsoft Visual Studio\2022\Professional\VC\Tools\MSVC\14.44.35207\include\vector

; 1625 :     }

  0011e	89 47 04	 mov	 DWORD PTR [edi+4], eax
$LN3@Resize:
  00121	5f		 pop	 edi
  00122	5e		 pop	 esi
  00123	5b		 pop	 ebx
  00124	8b e5		 mov	 esp, ebp
  00126	5d		 pop	 ebp
  00127	c2 08 00	 ret	 8
$LN113@Resize:

; 1554 :             _Xlength();

  0012a	e8 00 00 00 00	 call	 ?_Xlength@?$vector@EV?$allocator@E@std@@@std@@CAXXZ ; std::vector<unsigned char,std::allocator<unsigned char> >::_Xlength
$LN62@Resize:
; File C:\Program Files\Microsoft Visual Studio\2022\Professional\VC\Tools\MSVC\14.44.35207\include\xmemory

; 219  :     _STL_VERIFY(_Back_shift >= _Min_back_shift && _Back_shift <= _Non_user_size, "invalid argument");

  0012f	6a 00		 push	 0
  00131	6a 00		 push	 0
  00133	6a 00		 push	 0
  00135	6a 00		 push	 0
  00137	6a 00		 push	 0
  00139	e8 00 00 00 00	 call	 __invoke_watson
$LN108@Resize:
  0013e	cc		 int	 3
??$_Resize@E@?$vector@EV?$allocator@E@std@@@std@@AAEXIABE@Z ENDP ; std::vector<unsigned char,std::allocator<unsigned char> >::_Resize<unsigned char>
_TEXT	ENDS
; Function compile flags: /Ogtp
; File C:\Program Files\Microsoft Visual Studio\2022\Professional\VC\Tools\MSVC\14.44.35207\include\xmemory
;	COMDAT ??$_Allocate_manually_vector_aligned@U_Default_allocate_traits@std@@@std@@YAPAXI@Z
_TEXT	SEGMENT
__Bytes$ = 8						; size = 4
??$_Allocate_manually_vector_aligned@U_Default_allocate_traits@std@@@std@@YAPAXI@Z PROC ; std::_Allocate_manually_vector_aligned<std::_Default_allocate_traits>, COMDAT

; 182  : __declspec(allocator) void* _Allocate_manually_vector_aligned(const size_t _Bytes) {

  00000	55		 push	 ebp
  00001	8b ec		 mov	 ebp, esp

; 183  :     // allocate _Bytes manually aligned to at least _Big_allocation_alignment
; 184  :     const size_t _Block_size = _Non_user_size + _Bytes;

  00003	8b 45 08	 mov	 eax, DWORD PTR __Bytes$[ebp]
  00006	8d 48 23	 lea	 ecx, DWORD PTR [eax+35]

; 185  :     if (_Block_size <= _Bytes) {

  00009	3b c8		 cmp	 ecx, eax
  0000b	0f 86 00 00 00
	00		 jbe	 ?_Throw_bad_array_new_length@std@@YAXXZ ; std::_Throw_bad_array_new_length

; 136  :         return ::operator new(_Bytes);

  00011	51		 push	 ecx
  00012	e8 00 00 00 00	 call	 ??2@YAPAXI@Z		; operator new

; 186  :         _Throw_bad_array_new_length(); // add overflow
; 187  :     }
; 188  : 
; 189  :     const uintptr_t _Ptr_container = reinterpret_cast<uintptr_t>(_Traits::_Allocate(_Block_size));

  00017	8b c8		 mov	 ecx, eax

; 136  :         return ::operator new(_Bytes);

  00019	83 c4 04	 add	 esp, 4

; 190  :     _STL_VERIFY(_Ptr_container != 0, "invalid argument"); // validate even in release since we're doing p[-1]

  0001c	85 c9		 test	 ecx, ecx
  0001e	74 0b		 je	 SHORT $LN9@Allocate_m

; 191  :     void* const _Ptr = reinterpret_cast<void*>((_Ptr_container + _Non_user_size) & ~(_Big_allocation_alignment - 1));

  00020	8d 41 23	 lea	 eax, DWORD PTR [ecx+35]
  00023	83 e0 e0	 and	 eax, -32		; ffffffe0H

; 192  :     static_cast<uintptr_t*>(_Ptr)[-1] = _Ptr_container;

  00026	89 48 fc	 mov	 DWORD PTR [eax-4], ecx

; 193  : 
; 194  : #ifdef _DEBUG
; 195  :     static_cast<uintptr_t*>(_Ptr)[-2] = _Big_allocation_sentinel;
; 196  : #endif // defined(_DEBUG)
; 197  :     return _Ptr;
; 198  : }

  00029	5d		 pop	 ebp
  0002a	c3		 ret	 0
$LN9@Allocate_m:

; 190  :     _STL_VERIFY(_Ptr_container != 0, "invalid argument"); // validate even in release since we're doing p[-1]

  0002b	6a 00		 push	 0
  0002d	6a 00		 push	 0
  0002f	6a 00		 push	 0
  00031	6a 00		 push	 0
  00033	6a 00		 push	 0
  00035	e8 00 00 00 00	 call	 __invoke_watson
$LN7@Allocate_m:
  0003a	cc		 int	 3
??$_Allocate_manually_vector_aligned@U_Default_allocate_traits@std@@@std@@YAPAXI@Z ENDP ; std::_Allocate_manually_vector_aligned<std::_Default_allocate_traits>
_TEXT	ENDS
; Function compile flags: /Ogtp
; File C:\Program Files\Microsoft Visual Studio\2022\Professional\VC\Tools\MSVC\14.44.35207\include\xutility
;	COMDAT ??$_Copy_memmove@PAEPAE@std@@YAPAEPAE00@Z
_TEXT	SEGMENT
__First$ = 8						; size = 4
__Last$ = 12						; size = 4
__Dest$ = 16						; size = 4
??$_Copy_memmove@PAEPAE@std@@YAPAEPAE00@Z PROC		; std::_Copy_memmove<unsigned char *,unsigned char *>, COMDAT

; 4762 : _OutCtgIt _Copy_memmove(_CtgIt _First, _CtgIt _Last, _OutCtgIt _Dest) {

  00000	55		 push	 ebp
  00001	8b ec		 mov	 ebp, esp

; 4763 :     _STL_INTERNAL_CHECK(_First <= _Last);
; 4764 :     const auto _First_ptr    = _STD _To_address(_First);
; 4765 :     const auto _Last_ptr     = _STD _To_address(_Last);
; 4766 :     const auto _Object_count = static_cast<size_t>(_Last_ptr - _First_ptr);

  00003	8b 4d 08	 mov	 ecx, DWORD PTR __First$[ebp]
  00006	8b 45 0c	 mov	 eax, DWORD PTR __Last$[ebp]
  00009	2b c1		 sub	 eax, ecx

; 4767 :     const auto _First_ch     = const_cast<const char*>(reinterpret_cast<const volatile char*>(_First_ptr));
; 4768 :     const auto _Last_ch      = const_cast<const char*>(reinterpret_cast<const volatile char*>(_Last_ptr));
; 4769 :     const auto _Byte_count   = static_cast<size_t>(_Last_ch - _First_ch);
; 4770 :     return _STD _Copy_memmove_tail(_First_ch, _STD move(_Dest), _Byte_count, _Object_count);

  0000b	50		 push	 eax
  0000c	50		 push	 eax
  0000d	ff 75 10	 push	 DWORD PTR __Dest$[ebp]
  00010	51		 push	 ecx
  00011	e8 00 00 00 00	 call	 ??$_Copy_memmove_tail@PAE@std@@YAPAEQBDQAEII@Z ; std::_Copy_memmove_tail<unsigned char *>
  00016	83 c4 10	 add	 esp, 16			; 00000010H

; 4771 : }

  00019	5d		 pop	 ebp
  0001a	c3		 ret	 0
??$_Copy_memmove@PAEPAE@std@@YAPAEPAE00@Z ENDP		; std::_Copy_memmove<unsigned char *,unsigned char *>
_TEXT	ENDS
; Function compile flags: /Ogtp
; File C:\Program Files\Microsoft Visual Studio\2022\Professional\VC\Tools\MSVC\14.44.35207\include\xutility
;	COMDAT ??$_Copy_memmove_tail@PAE@std@@YAPAEQBDQAEII@Z
_TEXT	SEGMENT
__First_ch$ = 8						; size = 4
__Dest$ = 12						; size = 4
__Byte_count$ = 16					; size = 4
__Object_count$ = 20					; size = 4
??$_Copy_memmove_tail@PAE@std@@YAPAEQBDQAEII@Z PROC	; std::_Copy_memmove_tail<unsigned char *>, COMDAT

; 4747 :     const char* const _First_ch, const _OutCtgIt _Dest, const size_t _Byte_count, const size_t _Object_count) {

  00000	55		 push	 ebp
  00001	8b ec		 mov	 ebp, esp
  00003	56		 push	 esi

; 4748 :     _STL_INTERNAL_CHECK(_Byte_count == _Object_count * sizeof(*_Dest));
; 4749 :     const auto _Dest_ptr = _STD _To_address(_Dest);
; 4750 :     const auto _Dest_ch  = const_cast<char*>(reinterpret_cast<const volatile char*>(_Dest_ptr));
; 4751 :     _CSTD memmove(_Dest_ch, _First_ch, _Byte_count);

  00004	8b 75 0c	 mov	 esi, DWORD PTR __Dest$[ebp]
  00007	57		 push	 edi
  00008	8b 7d 10	 mov	 edi, DWORD PTR __Byte_count$[ebp]
  0000b	57		 push	 edi
  0000c	ff 75 08	 push	 DWORD PTR __First_ch$[ebp]
  0000f	56		 push	 esi
  00010	e8 00 00 00 00	 call	 _memmove
  00015	83 c4 0c	 add	 esp, 12			; 0000000cH

; 4752 :     if constexpr (is_pointer_v<_OutCtgIt>) {
; 4753 :         (void) _Object_count;
; 4754 :         // CodeQL [SM02986] This cast is correct: we're bypassing pointer arithmetic for performance.
; 4755 :         return reinterpret_cast<_OutCtgIt>(_Dest_ch + _Byte_count);

  00018	8d 04 3e	 lea	 eax, DWORD PTR [esi+edi]
  0001b	5f		 pop	 edi
  0001c	5e		 pop	 esi

; 4756 :     } else {
; 4757 :         return _Dest + static_cast<_Iter_diff_t<_OutCtgIt>>(_Object_count);
; 4758 :     }
; 4759 : }

  0001d	5d		 pop	 ebp
  0001e	c3		 ret	 0
??$_Copy_memmove_tail@PAE@std@@YAPAEQBDQAEII@Z ENDP	; std::_Copy_memmove_tail<unsigned char *>
_TEXT	ENDS
; Function compile flags: /Ogtp
; File C:\IAGOS\server\v18\Source\Source\_Common\MoverSkill.cpp
; File C:\IAGOS\server\v18\Source\Source\_Common\Item.h
; File C:\IAGOS\server\v18\Source\Source\_Common\MoverSkill.cpp
;	COMDAT ?IsDoUseBuff@CMover@@QAEHPAUItemProp@@@Z
_TEXT	SEGMENT
_nMax$1$ = -8						; size = 4
_i$1$ = -4						; size = 4
_pItemProp$ = 8						; size = 4
_pBuff$1$ = 8						; size = 4
?IsDoUseBuff@CMover@@QAEHPAUItemProp@@@Z PROC		; CMover::IsDoUseBuff, COMDAT
; _this$ = ecx

; 3137 : {

  00000	55		 push	 ebp
  00001	8b ec		 mov	 ebp, esp
  00003	83 ec 08	 sub	 esp, 8
  00006	53		 push	 ebx

; 3138 : 	int nResult = 0;
; 3139 : 	if( pItemProp->dwItemKind3 == IK3_POTION_BUFF_STR
; 3140 : 		|| pItemProp->dwItemKind3 == IK3_POTION_BUFF_DEX
; 3141 : 		|| pItemProp->dwItemKind3 == IK3_POTION_BUFF_INT
; 3142 : 		|| pItemProp->dwItemKind3 == IK3_POTION_BUFF_STA
; 3143 : 		|| pItemProp->dwItemKind3 == IK3_POTION_BUFF_DEFENSE		
; 3144 : #if __VER >= 8 //__CSC_VER8_5
; 3145 : 		|| pItemProp->dwItemKind3 == IK3_ANGEL_BUFF		
; 3146 : #endif // __CSC_VER8_5
; 3147 : #ifdef __BUFF_TOGIFT
; 3148 : 		|| pItemProp->dwItemKind2 == IK2_BUFF_TOGIFT

  00007	8b 5d 08	 mov	 ebx, DWORD PTR _pItemProp$[ebp]
  0000a	56		 push	 esi
  0000b	33 f6		 xor	 esi, esi
  0000d	57		 push	 edi
  0000e	8b 43 78	 mov	 eax, DWORD PTR [ebx+120]
  00011	8b f9		 mov	 edi, ecx
  00013	83 f8 5a	 cmp	 eax, 90			; 0000005aH
  00016	0f 84 77 02 00
	00		 je	 $LN9@IsDoUseBuf
  0001c	83 f8 5b	 cmp	 eax, 91			; 0000005bH
  0001f	0f 84 6e 02 00
	00		 je	 $LN9@IsDoUseBuf
  00025	83 f8 5c	 cmp	 eax, 92			; 0000005cH
  00028	0f 84 65 02 00
	00		 je	 $LN9@IsDoUseBuf
  0002e	83 f8 5d	 cmp	 eax, 93			; 0000005dH
  00031	0f 84 5c 02 00
	00		 je	 $LN9@IsDoUseBuf
  00037	83 f8 5e	 cmp	 eax, 94			; 0000005eH
  0003a	0f 84 53 02 00
	00		 je	 $LN9@IsDoUseBuf
  00040	83 f8 5f	 cmp	 eax, 95			; 0000005fH
  00043	0f 84 4a 02 00
	00		 je	 $LN9@IsDoUseBuf
  00049	83 7b 74 25	 cmp	 DWORD PTR [ebx+116], 37	; 00000025H
  0004d	0f 84 40 02 00
	00		 je	 $LN9@IsDoUseBuf

; 3174 : 		}
; 3175 : #else //__PKSERVER_USE_ANGEL
; 3176 : 		if( pItemProp->dwItemKind3 == IK3_ANGEL_BUFF )
; 3177 : 		{
; 3178 : 			if( 0 >= GetPKValue() )
; 3179 : 				nResult = 2;
; 3180 : 			if( GetQuest( QUEST_PKMINUS ) == NULL )
; 3181 : 				nResult = 3;
; 3182 : 			if( m_Inventory.GetAtItemId( II_SYS_SYS_QUE_ANGEL_RED100 ) != NULL 
; 3183 : 				|| m_Inventory.GetAtItemId( II_SYS_SYS_QUE_ANGEL_BLUE100 ) != NULL 
; 3184 : 				|| m_Inventory.GetAtItemId( II_SYS_SYS_QUE_ANGEL_GREEN100 ) != NULL 
; 3185 : 				|| m_Inventory.GetAtItemId( II_SYS_SYS_QUE_ANGEL_WHITE100 ) != NULL 
; 3186 : 				)
; 3187 : 				nResult = 4;
; 3188 : 		}
; 3189 : #endif //__PKSERVER_USE_ANGEL
; 3190 : #endif // __CSC_VER8_5
; 3191 : 	}
; 3192 : #if __VER >= 8
; 3193 : 	else if( pItemProp->dwID == II_SYS_SYS_SCR_DEFENSE20 || pItemProp->dwID == II_SYS_SYS_SCR_DEFENSE50 )

  00053	8b 03		 mov	 eax, DWORD PTR [ebx]
  00055	0f b7 c8	 movzx	 ecx, ax
  00058	3d 02 66 00 00	 cmp	 eax, 26114		; 00006602H
  0005d	0f 84 16 02 00
	00		 je	 $LN20@IsDoUseBuf
  00063	3d 03 66 00 00	 cmp	 eax, 26115		; 00006603H
  00068	0f 84 0b 02 00
	00		 je	 $LN20@IsDoUseBuf

; 3198 : #endif // __VER >= 8
; 3199 : #ifdef __JEFF_11_1
; 3200 : 	else if( pItemProp->dwID == II_SYS_SYS_SCR_PET_FEED_POCKET02 )

  0006e	3d a3 67 00 00	 cmp	 eax, 26531		; 000067a3H
  00073	0f 85 a9 00 00
	00		 jne	 $LN23@IsDoUseBuf

; 3201 : 	{
; 3202 : 		int nMax	= m_Inventory.GetMax();

  00079	8b 8f 08 0b 00
	00		 mov	 ecx, DWORD PTR [edi+2824]

; 3203 : 		CItemElem* pItem;
; 3204 : 		for( int i = 0 ; i < nMax; i++ )

  0007f	33 c0		 xor	 eax, eax
  00081	89 4d f8	 mov	 DWORD PTR _nMax$1$[ebp], ecx
  00084	89 45 fc	 mov	 DWORD PTR _i$1$[ebp], eax
  00087	85 c9		 test	 ecx, ecx
  00089	7e 41		 jle	 SHORT $LN62@IsDoUseBuf
$LN104@IsDoUseBuf:

; 3205 : 		{
; 3206 : 			pItem	= m_Inventory.GetAtId( i );

  0008b	8d 8f fc 0a 00
	00		 lea	 ecx, DWORD PTR [edi+2812]
  00091	50		 push	 eax
  00092	e8 00 00 00 00	 call	 ?GetAtId@?$CItemContainer@VCItemElem@@@@QAEPAVCItemElem@@K@Z ; CItemContainer<CItemElem>::GetAtId
  00097	8b d8		 mov	 ebx, eax

; 3210 : 				&& !pItem->IsFlag( CItemElem::expired )

  00099	53		 push	 ebx
  0009a	e8 00 00 00 00	 call	 ?IsUsableItem@@YAHPAVCItemBase@@@Z ; IsUsableItem
  0009f	83 c4 04	 add	 esp, 4
  000a2	85 c0		 test	 eax, eax
  000a4	74 17		 je	 SHORT $LN2@IsDoUseBuf
  000a6	81 7b 0c 2b 52
	00 00		 cmp	 DWORD PTR [ebx+12], 21035 ; 0000522bH
  000ad	75 0e		 jne	 SHORT $LN2@IsDoUseBuf
  000af	39 b3 a8 00 00
	00		 cmp	 DWORD PTR [ebx+168], esi
  000b5	76 06		 jbe	 SHORT $LN2@IsDoUseBuf
; File C:\IAGOS\server\v18\Source\Source\_Common\Item.h

; 257  : 	BOOL	IsFlag( BYTE byFlag )	{	return ( m_byFlag & byFlag ) ? TRUE: FALSE;		}

  000b7	f6 43 76 01	 test	 BYTE PTR [ebx+118], 1
; File C:\IAGOS\server\v18\Source\Source\_Common\MoverSkill.cpp

; 3210 : 				&& !pItem->IsFlag( CItemElem::expired )

  000bb	74 5b		 je	 SHORT $LN56@IsDoUseBuf
$LN2@IsDoUseBuf:

; 3203 : 		CItemElem* pItem;
; 3204 : 		for( int i = 0 ; i < nMax; i++ )

  000bd	8b 45 fc	 mov	 eax, DWORD PTR _i$1$[ebp]
  000c0	40		 inc	 eax
  000c1	89 45 fc	 mov	 DWORD PTR _i$1$[ebp], eax
  000c4	3b 45 f8	 cmp	 eax, DWORD PTR _nMax$1$[ebp]
  000c7	7c c2		 jl	 SHORT $LN104@IsDoUseBuf
  000c9	8b 5d 08	 mov	 ebx, DWORD PTR _pItemProp$[ebp]
$LN62@IsDoUseBuf:

; 3214 : 				break;
; 3215 : 			}
; 3216 : 		}
; 3217 : 		if( nResult != 1 )
; 3218 : 		{
; 3219 : 		#ifdef __BUFF_1107
; 3220 : 			IBuff* pBuff	= m_buffs.GetBuff( BUFF_ITEM, (WORD)( pItemProp->dwID ) );

  000cc	0f b7 03	 movzx	 eax, WORD PTR [ebx]
  000cf	8d 8f ec 02 00
	00		 lea	 ecx, DWORD PTR [edi+748]
  000d5	50		 push	 eax
  000d6	6a 00		 push	 0
  000d8	e8 00 00 00 00	 call	 ?GetBuff@CBuffMgr@@QAEPAVIBuff@@GG@Z ; CBuffMgr::GetBuff
  000dd	89 45 08	 mov	 DWORD PTR _pBuff$1$[ebp], eax

; 3221 : 			if( pBuff )

  000e0	85 c0		 test	 eax, eax
  000e2	74 21		 je	 SHORT $LN13@IsDoUseBuf

; 3222 : 			{
; 3223 : 				DWORD dwCurr	= ::timeGetTime();

  000e4	ff 15 00 00 00
	00		 call	 DWORD PTR __imp__timeGetTime@0

; 3224 : 				if( static_cast<int>( pItemProp->dwSkillTime ) > static_cast<int>( pItemProp->dwSkillTime + ( pBuff->GetTotal() - ( dwCurr - pBuff->GetInst() ) ) ) )

  000ea	8b 93 c0 01 00
	00		 mov	 edx, DWORD PTR [ebx+448]
  000f0	8b 5d 08	 mov	 ebx, DWORD PTR _pBuff$1$[ebp]
  000f3	8b 4b 10	 mov	 ecx, DWORD PTR [ebx+16]
  000f6	03 4b 0c	 add	 ecx, DWORD PTR [ebx+12]
  000f9	2b c8		 sub	 ecx, eax
  000fb	03 ca		 add	 ecx, edx
  000fd	3b d1		 cmp	 edx, ecx
  000ff	0f 8f 3f 01 00
	00		 jg	 $LN40@IsDoUseBuf
$LN13@IsDoUseBuf:

; 3285 : 			)
; 3286 : 			nResult = 1;
; 3287 : 	}
; 3288 : #endif // //12Â÷ ±Ř´ÜŔŻ·áľĆŔĚĹŰ
; 3289 : 	
; 3290 : 	switch( nResult )

  00105	8d 46 ff	 lea	 eax, DWORD PTR [esi-1]
  00108	83 f8 03	 cmp	 eax, 3
  0010b	0f 87 79 02 00
	00		 ja	 $LN5@IsDoUseBuf
$LN61@IsDoUseBuf:
  00111	ff 24 85 00 00
	00 00		 jmp	 DWORD PTR $LN63@IsDoUseBuf[eax*4]
$LN56@IsDoUseBuf:

; 3211 : 				)
; 3212 : 			{
; 3213 : 				nResult		= 1;

  00118	be 01 00 00 00	 mov	 esi, 1
  0011d	8d 46 ff	 lea	 eax, DWORD PTR [esi-1]
  00120	eb ef		 jmp	 SHORT $LN61@IsDoUseBuf
$LN23@IsDoUseBuf:

; 3225 : 					nResult		= 1;
; 3226 : 			}
; 3227 : 		#else	// __BUFF_1107
; 3228 : 			LPSKILLINFLUENCE ptr	= m_SkillState.FindPtr( BUFF_ITEM, pItemProp->dwID );
; 3229 : 			if( ptr )
; 3230 : 			{
; 3231 : 				DWORD dwCurr	= ::timeGetTime();
; 3232 : 				if( static_cast<int>( pItemProp->dwSkillTime ) > static_cast<int>( pItemProp->dwSkillTime + ( ptr->tmCount - ( dwCurr - ptr->tmTime ) ) ) )
; 3233 : 					nResult		= 1;
; 3234 : 			}
; 3235 : 		#endif	// __BUFF_1107
; 3236 : 		}
; 3237 : 	}
; 3238 : #endif	// __JEFF_11_1
; 3239 : 	else if( HasBuff( BUFF_ITEM, (WORD)( pItemProp->dwID ) ) )

  00122	51		 push	 ecx
  00123	6a 00		 push	 0
  00125	8b cf		 mov	 ecx, edi
  00127	e8 00 00 00 00	 call	 ?HasBuff@CMover@@QAEHGG@Z ; CMover::HasBuff
  0012c	85 c0		 test	 eax, eax
  0012e	0f 85 b3 00 00
	00		 jne	 $LN47@IsDoUseBuf

; 3240 : 	{
; 3241 : 		nResult = 1;
; 3242 : 	}
; 3243 : #if __VER >= 11 // __SYS_COLLECTING
; 3244 : 	else if( pItemProp->dwID == II_GEN_TOO_COL_SILVERBATTERY
; 3245 : 		|| pItemProp->dwID == II_GEN_TOO_COL_GOLDBATTERY
; 3246 : 		|| pItemProp->dwID == II_GEN_TOO_COL_BATTERY001

  00134	8b 03		 mov	 eax, DWORD PTR [ebx]
  00136	3d 56 67 00 00	 cmp	 eax, 26454		; 00006756H
  0013b	0f 84 0d 01 00
	00		 je	 $LN33@IsDoUseBuf
  00141	3d 57 67 00 00	 cmp	 eax, 26455		; 00006757H
  00146	0f 84 02 01 00
	00		 je	 $LN33@IsDoUseBuf
  0014c	3d c0 67 00 00	 cmp	 eax, 26560		; 000067c0H
  00151	0f 84 f7 00 00
	00		 je	 $LN33@IsDoUseBuf

; 3255 : #endif // __SYS_COLLECTING
; 3256 : #if __VER >= 12 // __JHMA_VER12_1	//12Â÷ ±Ř´ÜŔŻ·áľĆŔĚĹŰ
; 3257 : 	#define II_SYS_SYS_SCR_PARTYEXPUP01_01 20296
; 3258 : #define II_SYS_SYS_SCR_PARTYSKILLUP01_01 20297
; 3259 : 	else if( pItemProp->dwID == II_SYS_SYS_SCR_PARTYEXPUP01
; 3260 : 		|| pItemProp->dwID == II_SYS_SYS_SCR_PARTYEXPUP02
; 3261 : 		|| pItemProp->dwID == II_SYS_SYS_SCR_PARTYEXPUP01_01

  00157	3d a9 67 00 00	 cmp	 eax, 26537		; 000067a9H
  0015c	0f 84 a8 00 00
	00		 je	 $LN38@IsDoUseBuf
  00162	3d aa 67 00 00	 cmp	 eax, 26538		; 000067aaH
  00167	0f 84 9d 00 00
	00		 je	 $LN38@IsDoUseBuf
  0016d	3d 48 4f 00 00	 cmp	 eax, 20296		; 00004f48H
  00172	0f 84 92 00 00
	00		 je	 $LN38@IsDoUseBuf

; 3267 : 			)
; 3268 : 			nResult = 1;
; 3269 : 	}
; 3270 : 	else if( pItemProp->dwID == II_SYS_SYS_SCR_SPETGOOD

  00178	3d cd 67 00 00	 cmp	 eax, 26573		; 000067cdH
  0017d	75 15		 jne	 SHORT $LN41@IsDoUseBuf

; 3271 : 		)
; 3272 : 	{
; 3273 : 		if( HasBuff( BUFF_ITEM2, II_SYS_SYS_SCR_SPETGOOD )

  0017f	50		 push	 eax
  00180	6a 03		 push	 3
  00182	8b cf		 mov	 ecx, edi
  00184	e8 00 00 00 00	 call	 ?HasBuff@CMover@@QAEHGG@Z ; CMover::HasBuff

; 3274 : 			)
; 3275 : 			nResult = 1;
; 3276 : 	}

  00189	f7 d8		 neg	 eax
  0018b	1b f6		 sbb	 esi, esi
  0018d	f7 de		 neg	 esi
  0018f	e9 71 ff ff ff	 jmp	 $LN13@IsDoUseBuf
$LN41@IsDoUseBuf:

; 3277 : 	else if( pItemProp->dwID == II_SYS_SYS_SCR_PARTYSKILLUP01
; 3278 : 		|| pItemProp->dwID == II_SYS_SYS_SCR_PARTYSKILLUP02
; 3279 : 		|| pItemProp->dwID == II_SYS_SYS_SCR_PARTYSKILLUP01_01

  00194	3d ab 67 00 00	 cmp	 eax, 26539		; 000067abH
  00199	74 12		 je	 SHORT $LN45@IsDoUseBuf
  0019b	3d ac 67 00 00	 cmp	 eax, 26540		; 000067acH
  001a0	74 0b		 je	 SHORT $LN45@IsDoUseBuf
  001a2	3d 49 4f 00 00	 cmp	 eax, 20297		; 00004f49H
  001a7	0f 85 58 ff ff
	ff		 jne	 $LN13@IsDoUseBuf
$LN45@IsDoUseBuf:

; 3280 : 		)
; 3281 : 	{
; 3282 : 		if( HasBuff( BUFF_ITEM2, II_SYS_SYS_SCR_PARTYSKILLUP01 )
; 3283 : 			|| HasBuff( BUFF_ITEM2, II_SYS_SYS_SCR_PARTYSKILLUP02 )
; 3284 : 			|| HasBuff( BUFF_ITEM2, II_SYS_SYS_SCR_PARTYSKILLUP01_01 )

  001ad	68 ab 67 00 00	 push	 26539			; 000067abH
  001b2	6a 03		 push	 3
  001b4	8b cf		 mov	 ecx, edi
  001b6	e8 00 00 00 00	 call	 ?HasBuff@CMover@@QAEHGG@Z ; CMover::HasBuff
  001bb	85 c0		 test	 eax, eax
  001bd	75 28		 jne	 SHORT $LN47@IsDoUseBuf
  001bf	68 ac 67 00 00	 push	 26540			; 000067acH
  001c4	6a 03		 push	 3
  001c6	8b cf		 mov	 ecx, edi
  001c8	e8 00 00 00 00	 call	 ?HasBuff@CMover@@QAEHGG@Z ; CMover::HasBuff
  001cd	85 c0		 test	 eax, eax
  001cf	75 16		 jne	 SHORT $LN47@IsDoUseBuf
  001d1	68 49 4f 00 00	 push	 20297			; 00004f49H
  001d6	6a 03		 push	 3
  001d8	8b cf		 mov	 ecx, edi
  001da	e8 00 00 00 00	 call	 ?HasBuff@CMover@@QAEHGG@Z ; CMover::HasBuff
  001df	85 c0		 test	 eax, eax
  001e1	0f 84 1e ff ff
	ff		 je	 $LN13@IsDoUseBuf
$LN47@IsDoUseBuf:

; 3291 : 	{
; 3292 : 	case 1:
; 3293 : 		((CUser*)this)->AddDefinedText( TID_GAME_LIMITED_USE, "" ); // »çżëÁßŔĚľîĽ­ »çżëÇŇĽö ľřŔ˝

  001e7	be 01 00 00 00	 mov	 esi, 1
$LN48@IsDoUseBuf:
  001ec	68 00 00 00 00	 push	 OFFSET ??_C@_00CNPNBAHC@@
  001f1	68 30 08 00 00	 push	 2096			; 00000830H
  001f6	57		 push	 edi
  001f7	e8 00 00 00 00	 call	 ?AddDefinedText@CUser@@QAAXHPBDZZ ; CUser::AddDefinedText
  001fc	83 c4 0c	 add	 esp, 12			; 0000000cH

; 3304 : 		break;	
; 3305 : #endif // __CSC_VER8_5
; 3306 : 	}
; 3307 : 	return nResult;

  001ff	8b c6		 mov	 eax, esi
  00201	5f		 pop	 edi
  00202	5e		 pop	 esi
  00203	5b		 pop	 ebx

; 3308 : }

  00204	8b e5		 mov	 esp, ebp
  00206	5d		 pop	 ebp
  00207	c2 04 00	 ret	 4
$LN38@IsDoUseBuf:

; 3262 : 		)
; 3263 : 	{
; 3264 : 		if( HasBuff( BUFF_ITEM2, II_SYS_SYS_SCR_PARTYEXPUP01 )
; 3265 : 			|| HasBuff( BUFF_ITEM2, II_SYS_SYS_SCR_PARTYEXPUP02 )
; 3266 : 			|| HasBuff( BUFF_ITEM2, II_SYS_SYS_SCR_PARTYEXPUP01_01 )

  0020a	68 a9 67 00 00	 push	 26537			; 000067a9H
  0020f	6a 03		 push	 3
  00211	8b cf		 mov	 ecx, edi
  00213	e8 00 00 00 00	 call	 ?HasBuff@CMover@@QAEHGG@Z ; CMover::HasBuff
  00218	85 c0		 test	 eax, eax
  0021a	75 28		 jne	 SHORT $LN40@IsDoUseBuf
  0021c	68 aa 67 00 00	 push	 26538			; 000067aaH
  00221	6a 03		 push	 3
  00223	8b cf		 mov	 ecx, edi
  00225	e8 00 00 00 00	 call	 ?HasBuff@CMover@@QAEHGG@Z ; CMover::HasBuff
  0022a	85 c0		 test	 eax, eax
  0022c	75 16		 jne	 SHORT $LN40@IsDoUseBuf
  0022e	68 48 4f 00 00	 push	 20296			; 00004f48H
$LN105@IsDoUseBuf:

; 3285 : 			)
; 3286 : 			nResult = 1;
; 3287 : 	}
; 3288 : #endif // //12Â÷ ±Ř´ÜŔŻ·áľĆŔĚĹŰ
; 3289 : 	
; 3290 : 	switch( nResult )

  00233	6a 03		 push	 3
$LN106@IsDoUseBuf:
  00235	8b cf		 mov	 ecx, edi
  00237	e8 00 00 00 00	 call	 ?HasBuff@CMover@@QAEHGG@Z ; CMover::HasBuff
  0023c	85 c0		 test	 eax, eax
  0023e	0f 84 c1 fe ff
	ff		 je	 $LN13@IsDoUseBuf
$LN40@IsDoUseBuf:
  00244	be 01 00 00 00	 mov	 esi, 1
  00249	e9 b7 fe ff ff	 jmp	 $LN13@IsDoUseBuf
$LN33@IsDoUseBuf:

; 3247 : 		)
; 3248 : 	{
; 3249 : 		if( HasBuff( BUFF_ITEM2, II_GEN_TOO_COL_SILVERBATTERY )
; 3250 : 			|| HasBuff( BUFF_ITEM2, II_GEN_TOO_COL_GOLDBATTERY )
; 3251 : 			|| HasBuff( BUFF_ITEM2, II_GEN_TOO_COL_BATTERY001 )

  0024e	68 56 67 00 00	 push	 26454			; 00006756H
  00253	6a 03		 push	 3
  00255	8b cf		 mov	 ecx, edi
  00257	e8 00 00 00 00	 call	 ?HasBuff@CMover@@QAEHGG@Z ; CMover::HasBuff
  0025c	85 c0		 test	 eax, eax
  0025e	75 e4		 jne	 SHORT $LN40@IsDoUseBuf
  00260	68 57 67 00 00	 push	 26455			; 00006757H
  00265	6a 03		 push	 3
  00267	8b cf		 mov	 ecx, edi
  00269	e8 00 00 00 00	 call	 ?HasBuff@CMover@@QAEHGG@Z ; CMover::HasBuff
  0026e	85 c0		 test	 eax, eax
  00270	75 d2		 jne	 SHORT $LN40@IsDoUseBuf
  00272	68 c0 67 00 00	 push	 26560			; 000067c0H

; 3252 : 			)
; 3253 : 			nResult = 1;
; 3254 : 	}

  00277	eb ba		 jmp	 SHORT $LN105@IsDoUseBuf
$LN20@IsDoUseBuf:

; 3194 : 	{
; 3195 : 		if( HasBuff( BUFF_ITEM, II_SYS_SYS_SCR_DEFENSE20 ) || HasBuff( BUFF_ITEM, II_SYS_SYS_SCR_DEFENSE50 ) )

  00279	68 02 66 00 00	 push	 26114			; 00006602H
  0027e	6a 00		 push	 0
  00280	8b cf		 mov	 ecx, edi
  00282	e8 00 00 00 00	 call	 ?HasBuff@CMover@@QAEHGG@Z ; CMover::HasBuff
  00287	85 c0		 test	 eax, eax
  00289	75 b9		 jne	 SHORT $LN40@IsDoUseBuf
  0028b	68 03 66 00 00	 push	 26115			; 00006603H
  00290	50		 push	 eax

; 3196 : 			nResult = 1;
; 3197 : 	}

  00291	eb a2		 jmp	 SHORT $LN106@IsDoUseBuf
$LN9@IsDoUseBuf:

; 3149 : #endif // __BUFF_TOGIFT
; 3150 : 		)
; 3151 : 	{
; 3152 : 		if( HasBuffByIk3( pItemProp->dwItemKind3 ) )

  00293	50		 push	 eax
  00294	e8 00 00 00 00	 call	 ?HasBuffByIk3@CMover@@QAEHK@Z ; CMover::HasBuffByIk3

; 3153 : 			nResult = 1;
; 3154 : 
; 3155 : #if __VER >= 8 //__CSC_VER8_5
; 3156 : #ifdef __PKSERVER_USE_ANGEL
; 3157 : 		if( pItemProp->dwItemKind3 == IK3_ANGEL_BUFF )

  00299	f7 d8		 neg	 eax
  0029b	1b f6		 sbb	 esi, esi
  0029d	f7 de		 neg	 esi
  0029f	83 7b 78 5f	 cmp	 DWORD PTR [ebx+120], 95	; 0000005fH
  002a3	0f 85 5c fe ff
	ff		 jne	 $LN13@IsDoUseBuf

; 3158 : 		{
; 3159 : 			if(g_eLocal.GetState( EVE_PK ))	

  002a9	6a 0b		 push	 11			; 0000000bH
  002ab	b9 00 00 00 00	 mov	 ecx, OFFSET ?g_eLocal@@3VCFlyffEvent@@A ; g_eLocal
  002b0	e8 00 00 00 00	 call	 ?GetState@CFlyffEvent@@QAEEH@Z ; CFlyffEvent::GetState
  002b5	84 c0		 test	 al, al
  002b7	0f 84 83 00 00
	00		 je	 $LN12@IsDoUseBuf

; 3160 : 			{
; 3161 : 				if( 0 >= GetPKValue() )

  002bd	83 bf 54 07 00
	00 00		 cmp	 DWORD PTR [edi+1876], 0
  002c4	b8 02 00 00 00	 mov	 eax, 2

; 3162 : 					nResult = 2;
; 3163 : 				if( GetQuest( QUEST_PKMINUS ) == NULL )

  002c9	68 8c 13 00 00	 push	 5004			; 0000138cH
  002ce	8b cf		 mov	 ecx, edi
  002d0	0f 4e f0	 cmovle	 esi, eax
  002d3	e8 00 00 00 00	 call	 ?GetQuest@CMover@@QAEPAUtagQuest@@H@Z ; CMover::GetQuest
  002d8	85 c0		 test	 eax, eax
  002da	b9 03 00 00 00	 mov	 ecx, 3

; 3164 : 					nResult = 3;
; 3165 : 				if( m_Inventory.GetAtItemId( II_SYS_SYS_QUE_ANGEL_RED100 ) != NULL 
; 3166 : 					|| m_Inventory.GetAtItemId( II_SYS_SYS_QUE_ANGEL_BLUE100 ) != NULL 
; 3167 : 					|| m_Inventory.GetAtItemId( II_SYS_SYS_QUE_ANGEL_GREEN100 ) != NULL 
; 3168 : 					|| m_Inventory.GetAtItemId( II_SYS_SYS_QUE_ANGEL_WHITE100 ) != NULL 

  002df	68 57 75 00 00	 push	 30039			; 00007557H
  002e4	0f 44 f1	 cmove	 esi, ecx
  002e7	8d 8f fc 0a 00
	00		 lea	 ecx, DWORD PTR [edi+2812]
  002ed	e8 00 00 00 00	 call	 ?GetAtItemId@?$CItemContainer@VCItemElem@@@@QAEPAVCItemElem@@K@Z ; CItemContainer<CItemElem>::GetAtItemId
  002f2	85 c0		 test	 eax, eax
  002f4	75 40		 jne	 SHORT $LN17@IsDoUseBuf
  002f6	68 58 75 00 00	 push	 30040			; 00007558H
  002fb	8d 8f fc 0a 00
	00		 lea	 ecx, DWORD PTR [edi+2812]
  00301	e8 00 00 00 00	 call	 ?GetAtItemId@?$CItemContainer@VCItemElem@@@@QAEPAVCItemElem@@K@Z ; CItemContainer<CItemElem>::GetAtItemId
  00306	85 c0		 test	 eax, eax
  00308	75 2c		 jne	 SHORT $LN17@IsDoUseBuf
  0030a	68 59 75 00 00	 push	 30041			; 00007559H
  0030f	8d 8f fc 0a 00
	00		 lea	 ecx, DWORD PTR [edi+2812]
  00315	e8 00 00 00 00	 call	 ?GetAtItemId@?$CItemContainer@VCItemElem@@@@QAEPAVCItemElem@@K@Z ; CItemContainer<CItemElem>::GetAtItemId
  0031a	85 c0		 test	 eax, eax
  0031c	75 18		 jne	 SHORT $LN17@IsDoUseBuf
  0031e	68 5a 75 00 00	 push	 30042			; 0000755aH
  00323	8d 8f fc 0a 00
	00		 lea	 ecx, DWORD PTR [edi+2812]
  00329	e8 00 00 00 00	 call	 ?GetAtItemId@?$CItemContainer@VCItemElem@@@@QAEPAVCItemElem@@K@Z ; CItemContainer<CItemElem>::GetAtItemId
  0032e	85 c0		 test	 eax, eax
  00330	0f 84 cf fd ff
	ff		 je	 $LN13@IsDoUseBuf
$LN17@IsDoUseBuf:

; 3169 : 					)
; 3170 : 					nResult = 4;

  00336	be 04 00 00 00	 mov	 esi, 4

; 3171 : 			}

  0033b	e9 c5 fd ff ff	 jmp	 $LN13@IsDoUseBuf
$LN12@IsDoUseBuf:

; 3172 : 			else
; 3173 : 				nResult = 5;

  00340	be 05 00 00 00	 mov	 esi, 5

; 3304 : 		break;	
; 3305 : #endif // __CSC_VER8_5
; 3306 : 	}
; 3307 : 	return nResult;

  00345	5f		 pop	 edi
  00346	8b c6		 mov	 eax, esi
  00348	5e		 pop	 esi
  00349	5b		 pop	 ebx

; 3308 : }

  0034a	8b e5		 mov	 esp, ebp
  0034c	5d		 pop	 ebp
  0034d	c2 04 00	 ret	 4
$LN49@IsDoUseBuf:

; 3294 : 		break;
; 3295 : #if __VER >= 8 //__CSC_VER8_5
; 3296 : 	case 2:
; 3297 : 		((CUser*)this)->AddDefinedText( TID_GAME_PKVALUE_NOT_ANGEL );

  00350	68 43 0c 00 00	 push	 3139			; 00000c43H

; 3304 : 		break;	
; 3305 : #endif // __CSC_VER8_5
; 3306 : 	}
; 3307 : 	return nResult;

  00355	8b cf		 mov	 ecx, edi
  00357	e8 00 00 00 00	 call	 ?AddDefinedText@CUser@@QAEXH@Z ; CUser::AddDefinedText
  0035c	5f		 pop	 edi
  0035d	8b c6		 mov	 eax, esi
  0035f	5e		 pop	 esi
  00360	5b		 pop	 ebx

; 3308 : }

  00361	8b e5		 mov	 esp, ebp
  00363	5d		 pop	 ebp
  00364	c2 04 00	 ret	 4
$LN50@IsDoUseBuf:

; 3298 : 		break;
; 3299 : 	case 3:
; 3300 : 		((CUser*)this)->AddDefinedText( TID_GAME_NOT_QUEST_ANGEL );

  00367	68 4b 0c 00 00	 push	 3147			; 00000c4bH

; 3304 : 		break;	
; 3305 : #endif // __CSC_VER8_5
; 3306 : 	}
; 3307 : 	return nResult;

  0036c	8b cf		 mov	 ecx, edi
  0036e	e8 00 00 00 00	 call	 ?AddDefinedText@CUser@@QAEXH@Z ; CUser::AddDefinedText
  00373	5f		 pop	 edi
  00374	8b c6		 mov	 eax, esi
  00376	5e		 pop	 esi
  00377	5b		 pop	 ebx

; 3308 : }

  00378	8b e5		 mov	 esp, ebp
  0037a	5d		 pop	 ebp
  0037b	c2 04 00	 ret	 4
$LN51@IsDoUseBuf:

; 3301 : 		break;	
; 3302 : 	case 4:
; 3303 : 		((CUser*)this)->AddDefinedText( TID_GAME_NOT_COMPLETE_ANGEL );

  0037e	68 4c 0c 00 00	 push	 3148			; 00000c4cH

; 3304 : 		break;	
; 3305 : #endif // __CSC_VER8_5
; 3306 : 	}
; 3307 : 	return nResult;

  00383	8b cf		 mov	 ecx, edi
  00385	e8 00 00 00 00	 call	 ?AddDefinedText@CUser@@QAEXH@Z ; CUser::AddDefinedText
$LN5@IsDoUseBuf:
  0038a	5f		 pop	 edi
  0038b	8b c6		 mov	 eax, esi
  0038d	5e		 pop	 esi
  0038e	5b		 pop	 ebx

; 3308 : }

  0038f	8b e5		 mov	 esp, ebp
  00391	5d		 pop	 ebp
  00392	c2 04 00	 ret	 4
  00395	0f 1f 00	 npad	 3
$LN63@IsDoUseBuf:
  00398	00 00 00 00	 DD	 $LN48@IsDoUseBuf
  0039c	00 00 00 00	 DD	 $LN49@IsDoUseBuf
  003a0	00 00 00 00	 DD	 $LN50@IsDoUseBuf
  003a4	00 00 00 00	 DD	 $LN51@IsDoUseBuf
?IsDoUseBuff@CMover@@QAEHPAUItemProp@@@Z ENDP		; CMover::IsDoUseBuff
_TEXT	ENDS
; Function compile flags: /Ogtp
; File C:\IAGOS\server\v18\Source\Source\_Common\MoverSkill.cpp
;	COMDAT ?DoUseItemSexChange@CMover@@QAEHH@Z
_TEXT	SEGMENT
_nFace$ = 8						; size = 4
?DoUseItemSexChange@CMover@@QAEHH@Z PROC		; CMover::DoUseItemSexChange, COMDAT
; _this$ = ecx

; 3431 : {

  00000	55		 push	 ebp
  00001	8b ec		 mov	 ebp, esp
  00003	56		 push	 esi
  00004	57		 push	 edi
  00005	8b f9		 mov	 edi, ecx

; 3432 : 	// 1.
; 3433 : 	for( DWORD dwParts = 0; dwParts < MAX_HUMAN_PARTS; dwParts++ )

  00007	33 f6		 xor	 esi, esi
  00009	0f 1f 80 00 00
	00 00		 npad	 7
$LL4@DoUseItemS:

; 3434 : 	{
; 3435 : 		if( dwParts == PARTS_HEAD || dwParts == PARTS_HAIR || dwParts == PARTS_LWEAPON
; 3436 : 			|| dwParts == PARTS_RWEAPON || dwParts == PARTS_SHIELD || dwParts == PARTS_RIDE
; 3437 : 			|| ( dwParts >= PARTS_NECKLACE1 && dwParts <= PARTS_BULLET ) )

  00010	85 f6		 test	 esi, esi
  00012	74 37		 je	 SHORT $LN2@DoUseItemS
  00014	83 fe 01	 cmp	 esi, 1
  00017	74 32		 je	 SHORT $LN2@DoUseItemS
  00019	83 fe 09	 cmp	 esi, 9
  0001c	74 2d		 je	 SHORT $LN2@DoUseItemS
  0001e	83 fe 0a	 cmp	 esi, 10			; 0000000aH
  00021	74 28		 je	 SHORT $LN2@DoUseItemS
  00023	83 fe 0b	 cmp	 esi, 11			; 0000000bH
  00026	74 23		 je	 SHORT $LN2@DoUseItemS
  00028	83 fe 0d	 cmp	 esi, 13			; 0000000dH
  0002b	74 1e		 je	 SHORT $LN2@DoUseItemS
  0002d	83 fe 13	 cmp	 esi, 19			; 00000013H
  00030	72 05		 jb	 SHORT $LN5@DoUseItemS
  00032	83 fe 19	 cmp	 esi, 25			; 00000019H
  00035	76 14		 jbe	 SHORT $LN2@DoUseItemS
$LN5@DoUseItemS:

; 3438 : 			continue;
; 3439 : 		
; 3440 : 		CItemElem* pArmor	= m_Inventory.GetEquip( dwParts );

  00037	56		 push	 esi
  00038	8d 8f fc 0a 00
	00		 lea	 ecx, DWORD PTR [edi+2812]
  0003e	e8 00 00 00 00	 call	 ?GetEquip@?$CItemContainer@VCItemElem@@@@QAEPAVCItemElem@@K@Z ; CItemContainer<CItemElem>::GetEquip

; 3441 : 		if( pArmor )

  00043	85 c0		 test	 eax, eax
  00045	0f 85 90 00 00
	00		 jne	 $LN12@DoUseItemS
$LN2@DoUseItemS:

; 3432 : 	// 1.
; 3433 : 	for( DWORD dwParts = 0; dwParts < MAX_HUMAN_PARTS; dwParts++ )

  0004b	46		 inc	 esi
  0004c	83 fe 1f	 cmp	 esi, 31			; 0000001fH
  0004f	72 bf		 jb	 SHORT $LL4@DoUseItemS

; 3445 : 		}
; 3446 : 	}
; 3447 : 
; 3448 : 	// 2.
; 3449 : 	DWORD dwIndex;
; 3450 : 	if( GetSex() == SEX_MALE )

  00051	8a 8f 18 06 00
	00		 mov	 cl, BYTE PTR [edi+1560]

; 3451 : 	{
; 3452 : 		dwIndex		= MI_FEMALE;
; 3453 : 		SetSex( SEX_FEMALE );
; 3454 : 	}
; 3455 : 	else
; 3456 : 	{
; 3457 : 		dwIndex	= MI_MALE;
; 3458 : 		SetSex( SEX_MALE );
; 3459 : 	}
; 3460 : 
; 3461 : 	SetTypeIndex( D3DDEVICE, OT_MOVER, dwIndex );

  00057	84 c9		 test	 cl, cl
  00059	6a 00		 push	 0
  0005b	0f 94 c0	 sete	 al
  0005e	88 87 18 06 00
	00		 mov	 BYTE PTR [edi+1560], al
  00064	33 c0		 xor	 eax, eax
  00066	84 c9		 test	 cl, cl
  00068	8b cf		 mov	 ecx, edi
  0006a	0f 94 c0	 sete	 al
  0006d	83 c0 0b	 add	 eax, 11			; 0000000bH
  00070	50		 push	 eax
  00071	6a 05		 push	 5
  00073	6a 00		 push	 0
  00075	e8 00 00 00 00	 call	 ?SetTypeIndex@CObj@@QAEHPAUIDirect3DDevice9@@KKH@Z ; CObj::SetTypeIndex

; 3462 : 	ResetScale();

  0007a	8b cf		 mov	 ecx, edi
  0007c	e8 00 00 00 00	 call	 ?ResetScale@CObj@@QAEXXZ ; CObj::ResetScale

; 3463 : 	SetMotion( MTI_WALK );

  00081	8b 07		 mov	 eax, DWORD PTR [edi]
  00083	8b cf		 mov	 ecx, edi
  00085	6a 00		 push	 0
  00087	6a 04		 push	 4
  00089	6a 03		 push	 3
  0008b	ff 50 04	 call	 DWORD PTR [eax+4]

; 3464 : 	//RedoEquip( FALSE );		// chipi_091125 Á¦°Ĺ
; 3465 : 	RedoEquip( FALSE, FALSE );	// chipi_091125 Ăß°ˇ - ľÇĽĽ»ç¸®, ą«±â µîŔÇ ľĆŔĚĹŰŔş Âřżë »óĹÂ·Î Ć®·ŁÁö°ˇ °ˇ´ÉÇŃµĄ ´É·ÂÄˇ¸¦ ´Ů˝Ă(Áßşą) Ŕűżë˝ĂĹ°´Â ą®Á¦°ˇ ŔÖľú´Ů.

  0008e	6a 00		 push	 0
  00090	6a 00		 push	 0
  00092	8b cf		 mov	 ecx, edi
  00094	e8 00 00 00 00	 call	 ?RedoEquip@CMover@@QAEXHH@Z ; CMover::RedoEquip

; 3466 : 	UpdateLocalMatrix();

  00099	8b cf		 mov	 ecx, edi
  0009b	e8 00 00 00 00	 call	 ?UpdateLocalMatrix@CObj@@QAEXXZ ; CObj::UpdateLocalMatrix

; 3467 : 
; 3468 : 	// 3.
; 3469 : 	g_UserMng.AddSexChange( this );

  000a0	57		 push	 edi
  000a1	b9 00 00 00 00	 mov	 ecx, OFFSET ?g_UserMng@@3VCUserMng@@A ; g_UserMng
  000a6	e8 00 00 00 00	 call	 ?AddSexChange@CUserMng@@QAEXPAVCMover@@@Z ; CUserMng::AddSexChange

; 3470 : 
; 3471 : 	// 4.
; 3472 : 	m_dwHeadMesh	= (DWORD)nFace;

  000ab	8b 45 08	 mov	 eax, DWORD PTR _nFace$[ebp]

; 3473 : 	g_UserMng.AddChangeFace( m_idPlayer, (DWORD)nFace );

  000ae	b9 00 00 00 00	 mov	 ecx, OFFSET ?g_UserMng@@3VCUserMng@@A ; g_UserMng
  000b3	50		 push	 eax
  000b4	ff b7 34 02 00
	00		 push	 DWORD PTR [edi+564]
  000ba	89 87 2c 06 00
	00		 mov	 DWORD PTR [edi+1580], eax
  000c0	e8 00 00 00 00	 call	 ?AddChangeFace@CUserMng@@QAEXKK@Z ; CUserMng::AddChangeFace

; 3474 : 
; 3475 : #if __VER >= 11 // __SYS_PLAYER_DATA
; 3476 : 	g_dpDBClient.SendUpdatePlayerData( static_cast<CUser*>(this) );

  000c5	57		 push	 edi
  000c6	b9 00 00 00 00	 mov	 ecx, OFFSET ?g_dpDBClient@@3VCDPDatabaseClient@@A ; g_dpDBClient
  000cb	e8 00 00 00 00	 call	 ?SendUpdatePlayerData@CDPDatabaseClient@@QAEXPAVCUser@@@Z ; CDPDatabaseClient::SendUpdatePlayerData
  000d0	5f		 pop	 edi

; 3477 : #endif // __SYS_PLAYER_DATA
; 3478 : 
; 3479 : 	return TRUE;

  000d1	b8 01 00 00 00	 mov	 eax, 1

; 3480 : }

  000d6	5e		 pop	 esi
  000d7	5d		 pop	 ebp
  000d8	c2 04 00	 ret	 4
$LN12@DoUseItemS:

; 3442 : 		{
; 3443 : 			((CUser*)this)->AddDefinedText( TID_GAME_CHECK_EQUIP, "" );

  000db	68 00 00 00 00	 push	 OFFSET ??_C@_00CNPNBAHC@@
  000e0	68 3f 0a 00 00	 push	 2623			; 00000a3fH
  000e5	57		 push	 edi
  000e6	e8 00 00 00 00	 call	 ?AddDefinedText@CUser@@QAAXHPBDZZ ; CUser::AddDefinedText
  000eb	83 c4 0c	 add	 esp, 12			; 0000000cH

; 3444 : 				return FALSE;

  000ee	33 c0		 xor	 eax, eax
  000f0	5f		 pop	 edi

; 3480 : }

  000f1	5e		 pop	 esi
  000f2	5d		 pop	 ebp
  000f3	c2 04 00	 ret	 4
?DoUseItemSexChange@CMover@@QAEHH@Z ENDP		; CMover::DoUseItemSexChange
_TEXT	ENDS
; Function compile flags: /Ogtp
; File C:\IAGOS\server\v18\Source\Source\_Common\MoverSkill.cpp
; File C:\IAGOS\server\v18\Source\Source\_Common\Mover.h
; File C:\IAGOS\server\v18\Source\Source\_Common\MoverSkill.cpp
;	COMDAT ?DoUseSkill@CMover@@QAEHHHKW4SKILLUSETYPE@@H@Z
_TEXT	SEGMENT
_dwSkill$1$ = -4					; size = 4
_nType$ = 8						; size = 4
_pAddSkillProp$ = 8					; size = 4
_nIdx$ = 12						; size = 4
_pSkillProp$ = 12					; size = 4
_idFocusObj$ = 16					; size = 4
_sutType$ = 20						; size = 4
_dwLevel$ = 20						; size = 4
_bControl$ = 24						; size = 4
?DoUseSkill@CMover@@QAEHHHKW4SKILLUSETYPE@@H@Z PROC	; CMover::DoUseSkill, COMDAT
; _this$ = ecx

; 179  : {

  00000	55		 push	 ebp
  00001	8b ec		 mov	 ebp, esp
  00003	51		 push	 ecx
  00004	53		 push	 ebx
  00005	56		 push	 esi
  00006	8b f1		 mov	 esi, ecx
  00008	57		 push	 edi
; File C:\IAGOS\server\v18\Source\Source\_Common\Mover.h

; 1015 : 	BOOL			IsNPC()				{ return !m_bPlayer; }

  00009	83 be 30 02 00
	00 00		 cmp	 DWORD PTR [esi+560], 0
; File C:\IAGOS\server\v18\Source\Source\_Common\MoverSkill.cpp

; 180  : 	if( IsNPC() )	

  00010	74 30		 je	 SHORT $LN18@DoUseSkill

; 181  : 		return FALSE;		// żŁÇÇľľ´Â ŔĚÂĘŔ» Ĺ¸¸é ľČµČ´Ů.
; 182  : 
; 183  : #ifdef __WORLDSERVER
; 184  : 	DWORD dwSkill = 0, dwLevel;
; 185  : #endif	// __WORLDSERVER
; 186  : 	
; 187  : 	if( nIdx >= 0 )

  00012	8b 7d 0c	 mov	 edi, DWORD PTR _nIdx$[ebp]
  00015	33 c9		 xor	 ecx, ecx
  00017	89 4d fc	 mov	 DWORD PTR _dwSkill$1$[ebp], ecx
  0001a	85 ff		 test	 edi, edi
  0001c	78 42		 js	 SHORT $LN22@DoUseSkill

; 188  : 	{
; 189  : 		LPSKILL pSkill = GetSkill( nType, nIdx );

  0001e	57		 push	 edi
  0001f	ff 75 08	 push	 DWORD PTR _nType$[ebp]
  00022	8b ce		 mov	 ecx, esi
  00024	e8 00 00 00 00	 call	 ?GetSkill@CMover@@QAEPAUtagSkill@@HH@Z ; CMover::GetSkill

; 190  : 		if( pSkill == NULL )

  00029	85 c0		 test	 eax, eax
  0002b	75 20		 jne	 SHORT $LN4@DoUseSkill

; 191  : 		{
; 192  : 			Error( "CMover::DoUseSkill : %s´Â nIdxżˇ ˝şĹłŔ» °ˇÁö°í ŔÖÁö ľĘ´Ů. %d", m_szName, nIdx );

  0002d	57		 push	 edi
  0002e	8d 86 ec 14 00
	00		 lea	 eax, DWORD PTR [esi+5356]
  00034	50		 push	 eax
  00035	68 00 00 00 00	 push	 OFFSET ??_C@_0DN@POBPMOID@CMover?3?3DoUseSkill?5?3?5?$CFs?$LE?B?5nIdx?$LP@
  0003a	e8 00 00 00 00	 call	 ?Error@@YAPBDPBDZZ	; Error
  0003f	83 c4 0c	 add	 esp, 12			; 0000000cH
$LN18@DoUseSkill:

; 282  : #else // __VER >= 8 // __S8_PK
; 283  : 	BOOL bSuccess = DoUseSkill( dwSkill, dwLevel, idFocusObj, sutType, nCastingTime );
; 284  : #endif // __VER >= 8 // __S8_PK
; 285  : 	return  bSuccess;
; 286  : }

  00042	5f		 pop	 edi
  00043	5e		 pop	 esi
  00044	33 c0		 xor	 eax, eax
  00046	5b		 pop	 ebx
  00047	8b e5		 mov	 esp, ebp
  00049	5d		 pop	 ebp
  0004a	c2 14 00	 ret	 20			; 00000014H
$LN4@DoUseSkill:

; 193  : 			return FALSE;
; 194  : 		}
; 195  : 		dwSkill	= pSkill->dwSkill;

  0004d	8b 08		 mov	 ecx, DWORD PTR [eax]

; 196  : 	#ifdef __SKILL0517
; 197  : 		dwLevel	= GetSkillLevel( pSkill );
; 198  : 	#else	// __SKILL0517
; 199  : 		dwLevel	= pSkill->dwLevel;

  0004f	8b 58 04	 mov	 ebx, DWORD PTR [eax+4]
  00052	89 4d fc	 mov	 DWORD PTR _dwSkill$1$[ebp], ecx

; 200  : 	#endif	// __SKILL0517
; 201  : 
; 202  : 		if( dwSkill == DWORD(-1) )

  00055	83 f9 ff	 cmp	 ecx, -1
  00058	74 e8		 je	 SHORT $LN18@DoUseSkill

; 203  : 			return FALSE;
; 204  : 
; 205  : 		if( dwLevel <= 0 )

  0005a	85 db		 test	 ebx, ebx
  0005c	74 e4		 je	 SHORT $LN18@DoUseSkill

; 181  : 		return FALSE;		// żŁÇÇľľ´Â ŔĚÂĘŔ» Ĺ¸¸é ľČµČ´Ů.
; 182  : 
; 183  : #ifdef __WORLDSERVER
; 184  : 	DWORD dwSkill = 0, dwLevel;
; 185  : #endif	// __WORLDSERVER
; 186  : 	
; 187  : 	if( nIdx >= 0 )

  0005e	eb 03		 jmp	 SHORT $LN6@DoUseSkill
$LN22@DoUseSkill:
  00060	8b 5d 14	 mov	 ebx, DWORD PTR _dwLevel$[ebp]
$LN6@DoUseSkill:

; 206  : 			return FALSE;
; 207  : /*
; 208  : #ifdef __GUILD_COMBAT_1TO1 // chipi_071227 ŔÓ˝Ă·Î ¸·Ŕ˝
; 209  : 		if( dwSkill == SI_KNT_HERO_DRAWING )
; 210  : 		{
; 211  : 		#ifdef __CLIENT
; 212  : 			if( g_GuildCombat1to1Mng.IsPossibleMover( this ) )
; 213  : 				return FALSE;
; 214  : 		#endif // __CLIENT
; 215  : 		#ifdef __WORLDSERVER
; 216  : 			if( g_GuildCombat1to1Mng.IsPossibleUser( (CUser*)this ) )
; 217  : 			{
; 218  : 				((CUser*)this)->AddDefinedText( TID_GAME_NEVERKILLSTOP );
; 219  : 				return FALSE;
; 220  : 			}
; 221  : 		#endif // __WORLDSERVER
; 222  : 		}
; 223  : #endif // __GUILD_COMBAT_1TO1
; 224  : */
; 225  : 	}
; 226  : 
; 227  : #ifdef __WORLDSERVER
; 228  : 	int nCastingTime = 0;
; 229  : #endif
; 230  : 
; 231  : 	ItemProp *pSkillProp = NULL;
; 232  : 	AddSkillProp *pAddSkillProp = NULL;
; 233  : 	GetSkillProp( &pSkillProp, &pAddSkillProp, dwSkill, dwLevel, "DoUseSkill_P" );

  00063	8b 06		 mov	 eax, DWORD PTR [esi]
  00065	33 ff		 xor	 edi, edi
  00067	68 00 00 00 00	 push	 OFFSET ??_C@_0N@FIJAGOKJ@DoUseSkill_P@
  0006c	53		 push	 ebx
  0006d	51		 push	 ecx
  0006e	8d 4d 08	 lea	 ecx, DWORD PTR _pAddSkillProp$[ebp]
  00071	89 7d 0c	 mov	 DWORD PTR _pSkillProp$[ebp], edi
  00074	51		 push	 ecx
  00075	8d 4d 0c	 lea	 ecx, DWORD PTR _pSkillProp$[ebp]
  00078	89 7d 08	 mov	 DWORD PTR _pAddSkillProp$[ebp], edi
  0007b	51		 push	 ecx
  0007c	8b ce		 mov	 ecx, esi
  0007e	ff 50 30	 call	 DWORD PTR [eax+48]

; 234  : 
; 235  : 	if(pSkillProp == NULL)

  00081	8b 4d 0c	 mov	 ecx, DWORD PTR _pSkillProp$[ebp]
  00084	85 c9		 test	 ecx, ecx
  00086	74 ba		 je	 SHORT $LN18@DoUseSkill

; 236  : 		return FALSE;
; 237  : 
; 238  : 	OBJMSG dwMsg = OBJMSG_NONE;
; 239  : 	int nMotion = (int)pSkillProp->dwUseMotion;
; 240  : 	
; 241  : 	if( pSkillProp->dwSkillType == KT_MAGIC )

  00088	8b 89 e8 01 00
	00		 mov	 ecx, DWORD PTR [ecx+488]
  0008e	8b 45 14	 mov	 eax, DWORD PTR _sutType$[ebp]
  00091	83 f9 01	 cmp	 ecx, 1
  00094	75 5d		 jne	 SHORT $LN8@DoUseSkill

; 242  : 	{
; 243  : 		if( sutType == SUT_QUEUESTART )		// ˝şĹłĹĄ ˝ĂŔŰ ˝şĹł

  00096	83 f8 01	 cmp	 eax, 1
  00099	75 0e		 jne	 SHORT $LN10@DoUseSkill

; 244  : 		{
; 245  : 		#ifdef __WORLDSERVER
; 246  : 			nCastingTime = GetQueueCastingTime();	// ĹĄł»ŔÇ ¸đµç ˝şĹłŔÇ Äł˝şĆĂŔ» ¸ôľĆĽ­ ÇŃ´Ů.

  0009b	8b ce		 mov	 ecx, esi
  0009d	e8 00 00 00 00	 call	 ?GetQueueCastingTime@CMover@@QAEHXZ ; CMover::GetQueueCastingTime
  000a2	8b f8		 mov	 edi, eax

; 247  : 		#endif
; 248  : 			dwMsg = OBJMSG_MAGICCASTING;
; 249  : 		} 

  000a4	8b 45 14	 mov	 eax, DWORD PTR _sutType$[ebp]
  000a7	eb 55		 jmp	 SHORT $LN14@DoUseSkill
$LN10@DoUseSkill:

; 250  : 		else if( sutType == SUT_QUEUEING )	// ˝şĹłĹĄ ÁřÇŕÁß ˝şĹł

  000a9	83 f8 02	 cmp	 eax, 2
  000ac	75 04		 jne	 SHORT $LN12@DoUseSkill

; 251  : 		{
; 252  : 		#ifdef __WORLDSERVER
; 253  : 			nCastingTime = 0;						// Äł˝şĆĂ µżŔŰľřŔĚ ˝ĂŔü.

  000ae	33 ff		 xor	 edi, edi

; 254  : 		#endif
; 255  : 			nMotion += 2;
; 256  : 			dwMsg = OBJMSG_MAGICSKILL;
; 257  : 		} 

  000b0	eb 4c		 jmp	 SHORT $LN14@DoUseSkill
$LN12@DoUseSkill:

; 258  : 		else
; 259  : 		{									// ŔĎąÝŔűŔÎ ¸¶ąý ˝şĹł »çżë
; 260  : 		#ifdef __WORLDSERVER
; 261  : 		
; 262  : 		#if __VER >= 9	// __SKILL_0706
; 263  : 			nCastingTime	= (int)( ( pAddSkillProp->dwCastingTime / 1000.0f ) * SEC1 );	// Äł˝şĆĂ µżŔŰ ŔÖŔ˝.

  000b2	8b 45 08	 mov	 eax, DWORD PTR _pAddSkillProp$[ebp]

; 264  : 		#else	// __SKILL_0706
; 265  : 			nCastingTime = (int)((pAddSkillProp->dwSkillReady / 1000.0f) * SEC1);	// Äł˝şĆĂ µżŔŰ ŔÖŔ˝.
; 266  : 		#endif	// __SKILL_0706
; 267  : 		
; 268  : 			nCastingTime = GetCastingTime( nCastingTime );

  000b5	8b ce		 mov	 ecx, esi
  000b7	8b 40 60	 mov	 eax, DWORD PTR [eax+96]
  000ba	66 0f 6e c0	 movd	 xmm0, eax
  000be	f3 0f e6 c0	 cvtdq2pd xmm0, xmm0
  000c2	c1 e8 1f	 shr	 eax, 31			; 0000001fH
  000c5	f2 0f 58 04 c5
	00 00 00 00	 addsd	 xmm0, QWORD PTR __xmm@41f00000000000000000000000000000[eax*8]
  000ce	66 0f 5a c0	 cvtpd2ps xmm0, xmm0
  000d2	f3 0f 5e 05 00
	00 00 00	 divss	 xmm0, DWORD PTR __real@447a0000
  000da	f3 0f 59 05 00
	00 00 00	 mulss	 xmm0, DWORD PTR __real@41700000
  000e2	f3 0f 2c c0	 cvttss2si eax, xmm0
  000e6	50		 push	 eax
  000e7	e8 00 00 00 00	 call	 ?GetCastingTime@CMover@@QAEHH@Z ; CMover::GetCastingTime
  000ec	8b f8		 mov	 edi, eax

; 269  : 		#endif	// __WORLDSERVER
; 270  : 			dwMsg = OBJMSG_MAGICCASTING;
; 271  : 		}
; 272  : 	}

  000ee	8b 45 14	 mov	 eax, DWORD PTR _sutType$[ebp]
  000f1	eb 0b		 jmp	 SHORT $LN14@DoUseSkill
$LN8@DoUseSkill:

; 273  : 	else if( pSkillProp->dwSkillType == KT_SKILL )

  000f3	83 f9 02	 cmp	 ecx, 2
  000f6	ba 01 00 00 00	 mov	 edx, 1
  000fb	0f 44 fa	 cmove	 edi, edx
$LN14@DoUseSkill:

; 274  : 	{
; 275  : 	#ifdef __WORLDSERVER
; 276  : 		nCastingTime = 1;
; 277  : 	#endif
; 278  : 	}
; 279  : 
; 280  : #if __VER >= 8 // __S8_PK
; 281  : 	BOOL bSuccess = DoUseSkill( dwSkill, dwLevel, idFocusObj, sutType, bControl, nCastingTime );

  000fe	57		 push	 edi
  000ff	ff 75 18	 push	 DWORD PTR _bControl$[ebp]
  00102	8b ce		 mov	 ecx, esi
  00104	50		 push	 eax
  00105	ff 75 10	 push	 DWORD PTR _idFocusObj$[ebp]
  00108	53		 push	 ebx
  00109	ff 75 fc	 push	 DWORD PTR _dwSkill$1$[ebp]
  0010c	e8 00 00 00 00	 call	 ?DoUseSkill@CMover@@QAEHKHKW4SKILLUSETYPE@@HH@Z ; CMover::DoUseSkill
  00111	5f		 pop	 edi

; 282  : #else // __VER >= 8 // __S8_PK
; 283  : 	BOOL bSuccess = DoUseSkill( dwSkill, dwLevel, idFocusObj, sutType, nCastingTime );
; 284  : #endif // __VER >= 8 // __S8_PK
; 285  : 	return  bSuccess;
; 286  : }

  00112	5e		 pop	 esi
  00113	5b		 pop	 ebx
  00114	8b e5		 mov	 esp, ebp
  00116	5d		 pop	 ebp
  00117	c2 14 00	 ret	 20			; 00000014H
?DoUseSkill@CMover@@QAEHHHKW4SKILLUSETYPE@@H@Z ENDP	; CMover::DoUseSkill
_TEXT	ENDS
; Function compile flags: /Ogtp
; File C:\IAGOS\server\v18\Source\Source\_Common\MoverSkill.cpp
; File C:\IAGOS\server\v18\Source\Source\_Common\Mover.h
; File C:\IAGOS\server\v18\Source\Source\_Common\MoverSkill.cpp
; File C:\IAGOS\server\v18\Source\Source\_Common\Project.h
; File C:\IAGOS\server\v18\Source\Source\_Common\MoverSkill.cpp
; File C:\IAGOS\server\v18\Source\Source\_Common\Item.h
; File C:\IAGOS\server\v18\Source\Source\_Common\Project.h
; File C:\IAGOS\server\v18\Source\Source\_Common\data.h
; File C:\IAGOS\server\v18\Source\Source\_Common\MoverSkill.cpp
; File C:\IAGOS\server\v18\Source\Source\_Common\Project.h
; File C:\IAGOS\server\v18\Source\Source\_Common\MoverSkill.cpp
;	COMDAT ?GetQueueCastingTime@CMover@@QAEHXZ
_TEXT	SEGMENT
_this$1$ = -8						; size = 4
_pSkill$1$ = -4						; size = 4
?GetQueueCastingTime@CMover@@QAEHXZ PROC		; CMover::GetQueueCastingTime, COMDAT
; _this$ = ecx

; 101  : {

  00000	55		 push	 ebp
  00001	8b ec		 mov	 ebp, esp
  00003	83 ec 08	 sub	 esp, 8
; File C:\IAGOS\server\v18\Source\Source\_Common\Mover.h

; 1015 : 	BOOL			IsNPC()				{ return !m_bPlayer; }

  00006	83 b9 30 02 00
	00 00		 cmp	 DWORD PTR [ecx+560], 0
; File C:\IAGOS\server\v18\Source\Source\_Common\MoverSkill.cpp

; 101  : {

  0000d	89 4d f8	 mov	 DWORD PTR _this$1$[ebp], ecx

; 102  : 	if( IsNPC() )	

  00010	75 06		 jne	 SHORT $LN5@GetQueueCa

; 103  : 		return 0;

  00012	33 c0		 xor	 eax, eax

; 155  : 
; 156  : 	return nTotalTime;
; 157  : }

  00014	8b e5		 mov	 esp, ebp
  00016	5d		 pop	 ebp
  00017	c3		 ret	 0
$LN5@GetQueueCa:
  00018	53		 push	 ebx
  00019	56		 push	 esi
  0001a	57		 push	 edi

; 104  : 
; 105  : 	CUser *pUser = (CUser *)this;
; 106  : 	int		i;
; 107  : 	SHORTCUT *pSlotQueue = pUser->m_playTaskBar.m_aSlotQueue;
; 108  : 	int		nTotalTime = 0;

  0001b	33 db		 xor	 ebx, ebx
  0001d	8d b1 40 8b 00
	00		 lea	 esi, DWORD PTR [ecx+35648]

; 109  : 
; 110  : 	for( i = 0; i < MAX_SLOT_QUEUE; i ++ )

  00023	33 ff		 xor	 edi, edi
$LL4@GetQueueCa:

; 111  : 	{
; 112  : 		if( pSlotQueue[i].m_dwShortcut )

  00025	83 3e 00	 cmp	 DWORD PTR [esi], 0
  00028	74 5b		 je	 SHORT $LN2@GetQueueCa

; 114  : 			LPSKILL pSkill = GetSkill( 0, pSlotQueue[i].m_dwId );

  0002a	ff 76 04	 push	 DWORD PTR [esi+4]
  0002d	6a 00		 push	 0
  0002f	e8 00 00 00 00	 call	 ?GetSkill@CMover@@QAEPAUtagSkill@@HH@Z ; CMover::GetSkill
; File C:\IAGOS\server\v18\Source\Source\_Common\Project.h

; 1395 : 	VERIFY_RANGE( nIndex, 0, m_aPropSkill.GetSize(), "GetSkillProp range_error", NULL );

  00034	8b 15 64 02 00
	00		 mov	 edx, DWORD PTR ?prj@@3VCProject@@A+612
; File C:\IAGOS\server\v18\Source\Source\_Common\MoverSkill.cpp

; 114  : 			LPSKILL pSkill = GetSkill( 0, pSlotQueue[i].m_dwId );

  0003a	89 45 fc	 mov	 DWORD PTR _pSkill$1$[ebp], eax
; File C:\IAGOS\server\v18\Source\Source\_Common\Item.h

; 314  : 	ItemProp* GetProp()	{ return prj.GetSkillProp( dwSkill ); }

  0003d	8b 08		 mov	 ecx, DWORD PTR [eax]
; File C:\IAGOS\server\v18\Source\Source\_Common\Project.h

; 1395 : 	VERIFY_RANGE( nIndex, 0, m_aPropSkill.GetSize(), "GetSkillProp range_error", NULL );

  0003f	85 c9		 test	 ecx, ecx
  00041	0f 88 a9 00 00
	00		 js	 $LN19@GetQueueCa
  00047	3b ca		 cmp	 ecx, edx
  00049	0f 8d a1 00 00
	00		 jge	 $LN19@GetQueueCa
; File C:\IAGOS\server\v18\Source\Source\_Common\data.h

; 270  : 	if( dwIndex >= (DWORD)m_nMaxIndex )

  0004f	72 04		 jb	 SHORT $LN24@GetQueueCa

; 271  : 		return NULL;

  00051	33 c0		 xor	 eax, eax
  00053	eb 08		 jmp	 SHORT $LN23@GetQueueCa
$LN24@GetQueueCa:

; 272  : 	return (T*) m_apOffset[ dwIndex ];

  00055	a1 54 02 00 00	 mov	 eax, DWORD PTR ?prj@@3VCProject@@A+596
  0005a	8b 04 88	 mov	 eax, DWORD PTR [eax+ecx*4]
$LN23@GetQueueCa:
; File C:\IAGOS\server\v18\Source\Source\_Common\MoverSkill.cpp

; 117  : 			if( !( pSkillProp = pSkill->GetProp() ) )					// JobSkill ¸®˝şĆ®żˇĽ­ ˛¨ł˝ ˝şĹłŔÇ ÇÁ·ÎĆŰĆĽ¸¦ ˛¨łż.

  0005d	85 c0		 test	 eax, eax
  0005f	0f 84 a1 00 00
	00		 je	 $LN27@GetQueueCa

; 121  : 			}
; 122  : 			
; 123  : 			AddSkillProp* pAddSkillProp;
; 124  : 			
; 125  : 		#ifdef __SKILL0517
; 126  : 			if( !( pAddSkillProp	= prj.GetAddSkillProp( pSkillProp->dwSubDefine, GetSkillLevel( pSkill ) ) ) )					// JobSkill ¸®˝şĆ®żˇĽ­ ˛¨ł˝ ˝şĹłŔÇ ÇÁ·ÎĆŰĆĽ¸¦ ˛¨łż.
; 127  : 		#else	// __SKILL0517
; 128  : 			if( !( pAddSkillProp	= prj.GetAddSkillProp( pSkillProp->dwSubDefine, pSkill->dwLevel ) ) )					// JobSkill ¸®˝şĆ®żˇĽ­ ˛¨ł˝ ˝şĹłŔÇ ÇÁ·ÎĆŰĆĽ¸¦ ˛¨łż.

  00065	8b 4d fc	 mov	 ecx, DWORD PTR _pSkill$1$[ebp]
  00068	ff 71 04	 push	 DWORD PTR [ecx+4]
  0006b	b9 00 00 00 00	 mov	 ecx, OFFSET ?prj@@3VCProject@@A ; prj
  00070	ff b0 10 02 00
	00		 push	 DWORD PTR [eax+528]
  00076	e8 00 00 00 00	 call	 ?GetAddSkillProp@CProject@@QAEPAUAddSkillProp@@KK@Z ; CProject::GetAddSkillProp
  0007b	85 c0		 test	 eax, eax
  0007d	74 4d		 je	 SHORT $LN28@GetQueueCa

; 133  : 			}
; 134  : 
; 135  : 		#ifdef _DEBUG
; 136  : 		#if __VER >= 9	// __SKILL_0706
; 137  : 			if( (int)pAddSkillProp->dwCastingTime <= 0 )
; 138  : 				Error( "GetQueueCastingTime : %sŔÇ addProp dwCastingTimeŔĚ %d", pSkillProp->szName, pAddSkillProp->dwCastingTime );
; 139  : 		#else	// __SKILL_0706
; 140  : 			if( (int)pAddSkillProp->dwSkillReady <= 0 )
; 141  : 				Error( "GetQueueCastingTime : %sŔÇ addProp dwSkillReady°ˇ %d", pSkillProp->szName, pAddSkillProp->dwSkillReady );
; 142  : 		#endif	// __SKILL_0706
; 143  : 		#endif
; 144  : #if __VER >= 9	// __SKILL_0706
; 145  : 			nTotalTime += (int)pAddSkillProp->dwCastingTime;

  0007f	03 58 60	 add	 ebx, DWORD PTR [eax+96]
  00082	8b 4d f8	 mov	 ecx, DWORD PTR _this$1$[ebp]
$LN2@GetQueueCa:

; 109  : 
; 110  : 	for( i = 0; i < MAX_SLOT_QUEUE; i ++ )

  00085	47		 inc	 edi
  00086	81 c6 98 00 00
	00		 add	 esi, 152		; 00000098H
  0008c	83 ff 05	 cmp	 edi, 5
  0008f	7c 94		 jl	 SHORT $LL4@GetQueueCa

; 146  : #else	// __SKILL_0706
; 147  : 			nTotalTime += (int)pAddSkillProp->dwSkillReady;
; 148  : #endif	// __SKILL_0706
; 149  : 		}
; 150  : 	}
; 151  : 
; 152  : 	nTotalTime = (int)(nTotalTime * 0.7f);		// 70ÇÁ·Î ŔűżëÇŃČÄ.

  00091	66 0f 6e c3	 movd	 xmm0, ebx
  00095	0f 5b c0	 cvtdq2ps xmm0, xmm0
  00098	f3 0f 59 05 00
	00 00 00	 mulss	 xmm0, DWORD PTR __real@3f333333
  000a0	f3 0f 2c c0	 cvttss2si eax, xmm0
  000a4	66 0f 6e c0	 movd	 xmm0, eax

; 153  : 	nTotalTime = (int)( (nTotalTime / 1000.0f) * SEC1 );	// Äł˝şĆĂ´ÜŔ§ ˝Ă°ŁŔ¸·Î şŻČŻ.

  000a8	0f 5b c0	 cvtdq2ps xmm0, xmm0
  000ab	f3 0f 5e 05 00
	00 00 00	 divss	 xmm0, DWORD PTR __real@447a0000
  000b3	f3 0f 59 05 00
	00 00 00	 mulss	 xmm0, DWORD PTR __real@41700000
  000bb	f3 0f 2c c0	 cvttss2si eax, xmm0

; 154  : 	nTotalTime	= GetCastingTime( nTotalTime );

  000bf	50		 push	 eax
  000c0	e8 00 00 00 00	 call	 ?GetCastingTime@CMover@@QAEHH@Z ; CMover::GetCastingTime
  000c5	5f		 pop	 edi
  000c6	5e		 pop	 esi
  000c7	5b		 pop	 ebx

; 155  : 
; 156  : 	return nTotalTime;
; 157  : }

  000c8	8b e5		 mov	 esp, ebp
  000ca	5d		 pop	 ebp
  000cb	c3		 ret	 0
$LN28@GetQueueCa:

; 129  : 		#endif	// __SKILL0517
; 130  : 			{
; 131  : 				Error( "CMover::GetQueueCastingTime : %s. ľÖµĺ˝şĹł(%d)ŔÇ ÇÁ·ÎĆŰĆĽ°ˇ ľř´Ů.", m_szName, pSkill->dwSkill );

  000cc	8b 45 fc	 mov	 eax, DWORD PTR _pSkill$1$[ebp]
  000cf	ff 30		 push	 DWORD PTR [eax]
  000d1	8b 45 f8	 mov	 eax, DWORD PTR _this$1$[ebp]
  000d4	05 ec 14 00 00	 add	 eax, 5356		; 000014ecH
  000d9	50		 push	 eax
  000da	68 00 00 00 00	 push	 OFFSET ??_C@_0EC@JPIDGHBC@CMover?3?3GetQueueCastingTime?5?3?5?$CF@
  000df	e8 00 00 00 00	 call	 ?Error@@YAPBDPBDZZ	; Error
  000e4	83 c4 0c	 add	 esp, 12			; 0000000cH

; 132  : 				return FALSE;	// property not found

  000e7	33 c0		 xor	 eax, eax
  000e9	5f		 pop	 edi
  000ea	5e		 pop	 esi
  000eb	5b		 pop	 ebx

; 155  : 
; 156  : 	return nTotalTime;
; 157  : }

  000ec	8b e5		 mov	 esp, ebp
  000ee	5d		 pop	 ebp
  000ef	c3		 ret	 0
$LN19@GetQueueCa:
; File C:\IAGOS\server\v18\Source\Source\_Common\Project.h

; 579  : 	LPCTSTR szErr = Error( _T( "%s min:%d, max:%d, index:%d" ), szMsg, nMin, nMax, nIndex ); 

  000f0	51		 push	 ecx
  000f1	52		 push	 edx
  000f2	6a 00		 push	 0
  000f4	68 00 00 00 00	 push	 OFFSET ??_C@_0BJ@GPNGCFMK@GetSkillProp?5range_error@
  000f9	68 00 00 00 00	 push	 OFFSET ??_C@_0BM@HMFGHCP@?$CFs?5min?3?$CFd?0?5max?3?$CFd?0?5index?3?$CFd@
  000fe	e8 00 00 00 00	 call	 ?Error@@YAPBDPBDZZ	; Error
  00103	83 c4 14	 add	 esp, 20			; 00000014H
$LN27@GetQueueCa:
; File C:\IAGOS\server\v18\Source\Source\_Common\MoverSkill.cpp

; 119  : 				Error( "CMover::GetQueueCastingTime : %s. ˝şĹł(%d)ŔÇ ÇÁ·ÎĆŰĆĽ°ˇ ľř´Ů.", m_szName, pSkill->dwSkill );

  00106	8b 45 fc	 mov	 eax, DWORD PTR _pSkill$1$[ebp]
  00109	ff 30		 push	 DWORD PTR [eax]
  0010b	8b 45 f8	 mov	 eax, DWORD PTR _this$1$[ebp]
  0010e	05 ec 14 00 00	 add	 eax, 5356		; 000014ecH
  00113	50		 push	 eax
  00114	68 00 00 00 00	 push	 OFFSET ??_C@_0DO@PAGMBNAO@CMover?3?3GetQueueCastingTime?5?3?5?$CF@
  00119	e8 00 00 00 00	 call	 ?Error@@YAPBDPBDZZ	; Error
  0011e	83 c4 0c	 add	 esp, 12			; 0000000cH

; 120  : 				return FALSE;	// property not found

  00121	33 c0		 xor	 eax, eax
  00123	5f		 pop	 edi
  00124	5e		 pop	 esi
  00125	5b		 pop	 ebx

; 155  : 
; 156  : 	return nTotalTime;
; 157  : }

  00126	8b e5		 mov	 esp, ebp
  00128	5d		 pop	 ebp
  00129	c3		 ret	 0
?GetQueueCastingTime@CMover@@QAEHXZ ENDP		; CMover::GetQueueCastingTime
_TEXT	ENDS
; Function compile flags: /Ogtp
; File C:\IAGOS\server\v18\Source\Source\_Common\MoverSkill.cpp
; File C:\IAGOS\server\v18\Source\Source\_Common\Project.h
; File C:\IAGOS\server\v18\Source\Source\_Common\data.h
; File C:\IAGOS\server\v18\Source\Source\_Common\MoverSkill.cpp
; File C:\IAGOS\server\v18\Source\Source\_Common\Project.h
; File C:\IAGOS\server\v18\Source\Source\_Common\MoverSkill.cpp
; File C:\IAGOS\server\v18\Source\Source\_Common\Obj.h
; File C:\IAGOS\server\v18\Source\Source\_Common\MoverSkill.cpp
; File C:\IAGOS\server\v18\Source\Source\_Common\Obj.h
; File C:\IAGOS\server\v18\Source\Source\_Common\MoverSkill.cpp
; File C:\IAGOS\server\v18\Source\Source\_Common\Obj.h
; File C:\IAGOS\server\v18\Source\Source\_Common\MoverSkill.cpp
; File C:\IAGOS\server\v18\Source\Source\_Common\Obj.h
; File C:\IAGOS\server\v18\Source\Source\_Common\MoverSkill.cpp
; File C:\IAGOS\server\v18\Source\Source\_Common\Obj.h
; File C:\IAGOS\server\v18\Source\Source\_Common\MoverSkill.cpp
;	COMDAT ?SetMasterSkillPointUp@CMover@@QAEXXZ
_TEXT	SEGMENT
$T1 = -36						; size = 12
$T2 = -24						; size = 12
$T3 = -12						; size = 12
?SetMasterSkillPointUp@CMover@@QAEXXZ PROC		; CMover::SetMasterSkillPointUp, COMDAT
; _this$ = ecx

; 65   : {

  00000	55		 push	 ebp
  00001	8b ec		 mov	 ebp, esp
  00003	83 ec 24	 sub	 esp, 36			; 00000024H
  00006	57		 push	 edi
  00007	8b f9		 mov	 edi, ecx

; 66   : 	if( m_nLevel != 72 && m_nLevel != 84 && m_nLevel != 96 && m_nLevel != 108 )

  00009	8b 87 d8 05 00
	00		 mov	 eax, DWORD PTR [edi+1496]
  0000f	83 f8 48	 cmp	 eax, 72			; 00000048H
  00012	74 13		 je	 SHORT $LN5@SetMasterS
  00014	83 f8 54	 cmp	 eax, 84			; 00000054H
  00017	74 0e		 je	 SHORT $LN5@SetMasterS
  00019	83 f8 60	 cmp	 eax, 96			; 00000060H
  0001c	74 09		 je	 SHORT $LN5@SetMasterS
  0001e	83 f8 6c	 cmp	 eax, 108		; 0000006cH
  00021	0f 85 05 01 00
	00		 jne	 $LN1@SetMasterS
$LN5@SetMasterS:

; 67   : 		return;
; 68   : 	if( IsHero() )

  00027	e8 00 00 00 00	 call	 ?IsHero@CMover@@QAEHXZ	; CMover::IsHero
  0002c	85 c0		 test	 eax, eax
  0002e	0f 85 f8 00 00
	00		 jne	 $LN1@SetMasterS

; 69   : 		return;
; 70   : #ifdef __3RD_LEGEND16
; 71   : 	if( IsLegendHero() )

  00034	8b cf		 mov	 ecx, edi
  00036	e8 00 00 00 00	 call	 ?IsLegendHero@CMover@@QAEHXZ ; CMover::IsLegendHero
  0003b	85 c0		 test	 eax, eax
  0003d	0f 85 e9 00 00
	00		 jne	 $LN1@SetMasterS

; 74   : 	for( int i = 0; i < MAX_SKILL_JOB; i++ ) 

  00043	8b 15 64 02 00
	00		 mov	 edx, DWORD PTR ?prj@@3VCProject@@A+612
  00049	53		 push	 ebx
  0004a	56		 push	 esi
  0004b	8d b7 64 03 00
	00		 lea	 esi, DWORD PTR [edi+868]
  00051	8d 58 33	 lea	 ebx, DWORD PTR [eax+51]
$LL4@SetMasterS:

; 75   : 	{				
; 76   : 		LPSKILL lpSkill = &(m_aJobSkill[i]);
; 77   : 		if( lpSkill && lpSkill->dwSkill != NULL_ID )

  00054	85 f6		 test	 esi, esi
  00056	74 58		 je	 SHORT $LN2@SetMasterS
  00058	8b 0e		 mov	 ecx, DWORD PTR [esi]
  0005a	83 f9 ff	 cmp	 ecx, -1
  0005d	74 51		 je	 SHORT $LN2@SetMasterS
; File C:\IAGOS\server\v18\Source\Source\_Common\Project.h

; 1395 : 	VERIFY_RANGE( nIndex, 0, m_aPropSkill.GetSize(), "GetSkillProp range_error", NULL );

  0005f	85 c9		 test	 ecx, ecx
  00061	78 31		 js	 SHORT $LN17@SetMasterS
  00063	3b ca		 cmp	 ecx, edx
  00065	7d 2d		 jge	 SHORT $LN17@SetMasterS
; File C:\IAGOS\server\v18\Source\Source\_Common\data.h

; 270  : 	if( dwIndex >= (DWORD)m_nMaxIndex )

  00067	72 04		 jb	 SHORT $LN22@SetMasterS

; 271  : 		return NULL;

  00069	33 c0		 xor	 eax, eax
  0006b	eb 08		 jmp	 SHORT $LN21@SetMasterS
$LN22@SetMasterS:

; 272  : 	return (T*) m_apOffset[ dwIndex ];

  0006d	a1 54 02 00 00	 mov	 eax, DWORD PTR ?prj@@3VCProject@@A+596
  00072	8b 04 88	 mov	 eax, DWORD PTR [eax+ecx*4]
$LN21@SetMasterS:
; File C:\IAGOS\server\v18\Source\Source\_Common\MoverSkill.cpp

; 80   : 			if( pSkillProp == NULL )

  00075	85 c0		 test	 eax, eax
  00077	74 37		 je	 SHORT $LN2@SetMasterS

; 81   : 				continue;
; 82   : 			if( pSkillProp->dwItemKind1 != JTYPE_MASTER)

  00079	83 78 70 05	 cmp	 DWORD PTR [eax+112], 5
  0007d	75 31		 jne	 SHORT $LN2@SetMasterS

; 83   : 				continue;
; 84   : 			lpSkill->dwLevel++;

  0007f	ff 46 04	 inc	 DWORD PTR [esi+4]

; 85   : 			g_dpDBClient.SendLogSkillPoint( LOG_SKILLPOINT_USE, 1, this, &(m_aJobSkill[i]) );

  00082	b9 00 00 00 00	 mov	 ecx, OFFSET ?g_dpDBClient@@3VCDPDatabaseClient@@A ; g_dpDBClient
  00087	56		 push	 esi
  00088	57		 push	 edi
  00089	6a 01		 push	 1
  0008b	6a 10		 push	 16			; 00000010H
  0008d	e8 00 00 00 00	 call	 ?SendLogSkillPoint@CDPDatabaseClient@@QAEXHHPAVCMover@@PAUtagSkill@@@Z ; CDPDatabaseClient::SendLogSkillPoint
  00092	eb 16		 jmp	 SHORT $LN47@SetMasterS
$LN17@SetMasterS:
; File C:\IAGOS\server\v18\Source\Source\_Common\Project.h

; 579  : 	LPCTSTR szErr = Error( _T( "%s min:%d, max:%d, index:%d" ), szMsg, nMin, nMax, nIndex ); 

  00094	51		 push	 ecx
  00095	52		 push	 edx
  00096	6a 00		 push	 0
  00098	68 00 00 00 00	 push	 OFFSET ??_C@_0BJ@GPNGCFMK@GetSkillProp?5range_error@
  0009d	68 00 00 00 00	 push	 OFFSET ??_C@_0BM@HMFGHCP@?$CFs?5min?3?$CFd?0?5max?3?$CFd?0?5index?3?$CFd@
  000a2	e8 00 00 00 00	 call	 ?Error@@YAPBDPBDZZ	; Error
  000a7	83 c4 14	 add	 esp, 20			; 00000014H
$LN47@SetMasterS:
; File C:\IAGOS\server\v18\Source\Source\_Common\MoverSkill.cpp

; 74   : 	for( int i = 0; i < MAX_SKILL_JOB; i++ ) 

  000aa	8b 15 64 02 00
	00		 mov	 edx, DWORD PTR ?prj@@3VCProject@@A+612
$LN2@SetMasterS:
  000b0	83 c6 08	 add	 esi, 8
  000b3	83 eb 01	 sub	 ebx, 1
  000b6	75 9c		 jne	 SHORT $LL4@SetMasterS
; File C:\IAGOS\server\v18\Source\Source\_Common\Obj.h

; 215  : 	D3DXVECTOR3		GetPos()	{ return m_vPos; }

  000b8	f3 0f 7e 87 60
	01 00 00	 movq	 xmm0, QWORD PTR [edi+352]
; File C:\IAGOS\server\v18\Source\Source\_Common\MoverSkill.cpp

; 88   : 	g_UserMng.AddCreateSfxObj(this, XI_SYS_EXCHAN01, GetPos().x, GetPos().y, GetPos().z);

  000c0	b9 00 00 00 00	 mov	 ecx, OFFSET ?g_UserMng@@3VCUserMng@@A ; g_UserMng
; File C:\IAGOS\server\v18\Source\Source\_Common\Obj.h

; 215  : 	D3DXVECTOR3		GetPos()	{ return m_vPos; }

  000c5	8b 87 68 01 00
	00		 mov	 eax, DWORD PTR [edi+360]
; File C:\IAGOS\server\v18\Source\Source\_Common\MoverSkill.cpp

; 74   : 	for( int i = 0; i < MAX_SKILL_JOB; i++ ) 

  000cb	5e		 pop	 esi
; File C:\IAGOS\server\v18\Source\Source\_Common\Obj.h

; 215  : 	D3DXVECTOR3		GetPos()	{ return m_vPos; }

  000cc	66 0f d6 45 f4	 movq	 QWORD PTR $T3[ebp], xmm0
  000d1	f3 0f 7e c0	 movq	 xmm0, xmm0
; File C:\IAGOS\server\v18\Source\Source\_Common\MoverSkill.cpp

; 74   : 	for( int i = 0; i < MAX_SKILL_JOB; i++ ) 

  000d5	5b		 pop	 ebx
; File C:\IAGOS\server\v18\Source\Source\_Common\Obj.h

; 215  : 	D3DXVECTOR3		GetPos()	{ return m_vPos; }

  000d6	66 0f d6 45 e8	 movq	 QWORD PTR $T2[ebp], xmm0
  000db	f3 0f 7e 87 60
	01 00 00	 movq	 xmm0, QWORD PTR [edi+352]
; File C:\IAGOS\server\v18\Source\Source\_Common\MoverSkill.cpp

; 88   : 	g_UserMng.AddCreateSfxObj(this, XI_SYS_EXCHAN01, GetPos().x, GetPos().y, GetPos().z);

  000e3	6a 00		 push	 0
  000e5	83 ec 0c	 sub	 esp, 12			; 0000000cH
; File C:\IAGOS\server\v18\Source\Source\_Common\Obj.h

; 215  : 	D3DXVECTOR3		GetPos()	{ return m_vPos; }

  000e8	66 0f d6 45 dc	 movq	 QWORD PTR $T1[ebp], xmm0
  000ed	89 45 fc	 mov	 DWORD PTR $T3[ebp+8], eax
; File C:\IAGOS\server\v18\Source\Source\_Common\MoverSkill.cpp

; 88   : 	g_UserMng.AddCreateSfxObj(this, XI_SYS_EXCHAN01, GetPos().x, GetPos().y, GetPos().z);

  000f0	f3 0f 10 45 fc	 movss	 xmm0, DWORD PTR $T3[ebp+8]
  000f5	f3 0f 11 44 24
	08		 movss	 DWORD PTR [esp+8], xmm0
  000fb	f3 0f 10 45 ec	 movss	 xmm0, DWORD PTR $T2[ebp+4]
  00100	f3 0f 11 44 24
	04		 movss	 DWORD PTR [esp+4], xmm0
  00106	f3 0f 10 45 dc	 movss	 xmm0, DWORD PTR $T1[ebp]
  0010b	f3 0f 11 04 24	 movss	 DWORD PTR [esp], xmm0
  00110	6a 6c		 push	 108			; 0000006cH
  00112	57		 push	 edi
  00113	e8 00 00 00 00	 call	 ?AddCreateSfxObj@CUserMng@@QAEXPAVCCtrl@@KMMMH@Z ; CUserMng::AddCreateSfxObj

; 89   : 
; 90   : 	CUser *pUser = (CUser *)this;
; 91   : 	pUser->AddDoUseSkillPoint( &m_aJobSkill[0], m_nSkillPoint );

  00118	ff b7 b0 10 00
	00		 push	 DWORD PTR [edi+4272]
  0011e	8d 87 64 03 00
	00		 lea	 eax, DWORD PTR [edi+868]
  00124	8b cf		 mov	 ecx, edi
  00126	50		 push	 eax
  00127	e8 00 00 00 00	 call	 ?AddDoUseSkillPoint@CUser@@QAEXQAUtagSkill@@H@Z ; CUser::AddDoUseSkillPoint
$LN1@SetMasterS:
  0012c	5f		 pop	 edi

; 92   : 
; 93   : #ifdef __S_NEW_SKILL_2
; 94   : 	g_dpDBClient.SaveSkill( this );
; 95   : #endif // __S_NEW_SKILL_2
; 96   : }

  0012d	8b e5		 mov	 esp, ebp
  0012f	5d		 pop	 ebp
  00130	c3		 ret	 0
?SetMasterSkillPointUp@CMover@@QAEXXZ ENDP		; CMover::SetMasterSkillPointUp
_TEXT	ENDS
; Function compile flags: /Ogtp
; File C:\IAGOS\server\v18\Source\Source\_Common\MoverSkill.cpp
;	COMDAT ?OnEndMeleeAttack@CMover@@QAEXK@Z
_TEXT	SEGMENT
_dwState$ = 8						; size = 4
?OnEndMeleeAttack@CMover@@QAEXK@Z PROC			; CMover::OnEndMeleeAttack, COMDAT
; _this$ = ecx

; 1204 : #ifdef __WORLDSERVER
; 1205 : 	PostAIMsg( AIMSG_END_MELEEATTACK );

  00000	6a 00		 push	 0
  00002	6a 00		 push	 0
  00004	6a 00		 push	 0
  00006	6a 0f		 push	 15			; 0000000fH
  00008	e8 00 00 00 00	 call	 ?PostAIMsg@CMover@@QAEXKKKK@Z ; CMover::PostAIMsg

; 1206 : #endif // WorldServer
; 1207 : }

  0000d	c2 04 00	 ret	 4
?OnEndMeleeAttack@CMover@@QAEXK@Z ENDP			; CMover::OnEndMeleeAttack
_TEXT	ENDS
; Function compile flags: /Ogtp
; File C:\IAGOS\server\v18\Source\Source\_Common\MoverSkill.cpp
; File C:\IAGOS\server\v18\Source\Source\_Common\Obj.h
; File C:\IAGOS\server\v18\Source\Source\_Common\MoverSkill.cpp
; File C:\IAGOS\server\v18\Source\Source\_Common\Obj.h
; File C:\IAGOS\server\v18\Source\Source\_Common\MoverSkill.cpp
; File C:\IAGOS\server\v18\Source\Source\_Common\Obj.h
; File C:\IAGOS\server\v18\Source\Source\_Common\MoverSkill.cpp
; File C:\IAGOS\server\v18\Source\Source\DX_SDK\d3dx9math.inl
; File C:\IAGOS\server\v18\Source\Source\_Common\MoverSkill.cpp
; File C:\IAGOS\server\v18\Source\Source\DX_SDK\d3dx9math.inl
; File C:\IAGOS\server\v18\Source\Source\_Common\MoverSkill.cpp
; File C:\IAGOS\server\v18\Source\Source\DX_SDK\d3dx9math.inl
; File C:\IAGOS\server\v18\Source\Source\_Common\MoverSkill.cpp
; File C:\IAGOS\server\v18\Source\Source\_Common\Obj.h
; File C:\IAGOS\server\v18\Source\Source\_Common\MoverSkill.cpp
; File C:\IAGOS\server\v18\Source\Source\_Common\Obj.h
; File C:\IAGOS\server\v18\Source\Source\_Common\MoverSkill.cpp
; File C:\IAGOS\server\v18\Source\Source\_Common\Obj.h
; File C:\IAGOS\server\v18\Source\Source\_Common\MoverSkill.cpp
; File C:\IAGOS\server\v18\Source\Source\_Common\Project.h
; File C:\IAGOS\server\v18\Source\Source\_Common\data.h
; File C:\IAGOS\server\v18\Source\Source\_Common\MoverSkill.cpp
; File C:\IAGOS\server\v18\Source\Source\_Common\Project.h
; File C:\IAGOS\server\v18\Source\Source\_Common\MoverSkill.cpp
; File C:\IAGOS\server\v18\Source\Source\_Common\Project.h
; File C:\IAGOS\server\v18\Source\Source\_Common\data.h
; File C:\IAGOS\server\v18\Source\Source\_Common\MoverSkill.cpp
; File C:\IAGOS\server\v18\Source\Source\_Common\Obj.h
; File C:\IAGOS\server\v18\Source\Source\_Common\MoverSkill.cpp
; File C:\IAGOS\server\v18\Source\Source\_Common\Obj.h
; File C:\IAGOS\server\v18\Source\Source\_Common\MoverSkill.cpp
; File C:\IAGOS\server\v18\Source\Source\_Common\Obj.h
; File C:\IAGOS\server\v18\Source\Source\_Common\Mover.h
; File C:\IAGOS\server\v18\Source\Source\_Common\Obj.h
; File C:\IAGOS\server\v18\Source\Source\_Common\MoverSkill.cpp
; File C:\IAGOS\server\v18\Source\Source\_Common\Obj.h
; File C:\IAGOS\server\v18\Source\Source\_Common\MoverSkill.cpp
; File C:\IAGOS\server\v18\Source\Source\DX_SDK\d3dx9math.inl
; File C:\IAGOS\server\v18\Source\Source\_Common\MoverSkill.cpp
; File C:\IAGOS\server\v18\Source\Source\DX_SDK\d3dx9math.inl
; File C:\IAGOS\server\v18\Source\Source\_Common\MoverSkill.cpp
; File C:\IAGOS\server\v18\Source\Source\DX_SDK\d3dx9math.inl
; File C:\IAGOS\server\v18\Source\Source\_Common\MoverSkill.cpp
; File C:\IAGOS\server\v18\Source\Source\DX_SDK\d3dx9math.inl
; File C:\IAGOS\server\v18\Source\Source\_Common\MoverSkill.cpp
; File C:\IAGOS\server\v18\Source\Source\_Common\Obj.h
; File C:\IAGOS\server\v18\Source\Source\_Common\MoverSkill.cpp
; File C:\IAGOS\server\v18\Source\Source\_Common\Obj.h
; File C:\IAGOS\server\v18\Source\Source\_Common\MoverSkill.cpp
; File C:\IAGOS\server\v18\Source\Source\_Common\Obj.h
; File C:\IAGOS\server\v18\Source\Source\_Common\MoverSkill.cpp
; File C:\IAGOS\server\v18\Source\Source\_Common\Mover.h
; File C:\IAGOS\server\v18\Source\Source\_Common\MoverSkill.cpp
; File C:\IAGOS\server\v18\Source\Source\_Common\Obj.h
; File C:\IAGOS\server\v18\Source\Source\_Common\Mover.h
; File C:\IAGOS\server\v18\Source\Source\_Common\Obj.h
; File C:\IAGOS\server\v18\Source\Source\_Common\MoverSkill.cpp
; File C:\IAGOS\server\v18\Source\Source\_Common\Obj.h
; File C:\IAGOS\server\v18\Source\Source\_Common\MoverSkill.cpp
; File C:\IAGOS\server\v18\Source\Source\DX_SDK\d3dx9math.inl
; File C:\IAGOS\server\v18\Source\Source\_Common\MoverSkill.cpp
; File C:\IAGOS\server\v18\Source\Source\DX_SDK\d3dx9math.inl
; File C:\IAGOS\server\v18\Source\Source\_Common\MoverSkill.cpp
; File C:\IAGOS\server\v18\Source\Source\DX_SDK\d3dx9math.inl
; File C:\IAGOS\server\v18\Source\Source\_Common\MoverSkill.cpp
; File C:\IAGOS\server\v18\Source\Source\DX_SDK\d3dx9math.inl
; File C:\IAGOS\server\v18\Source\Source\_Common\MoverSkill.cpp
; File C:\IAGOS\server\v18\Source\Source\_AIInterface\ActionMover.h
; File C:\IAGOS\server\v18\Source\Source\_Common\MoverSkill.cpp
; File C:\IAGOS\server\v18\Source\Source\_Common\Obj.h
; File C:\IAGOS\server\v18\Source\Source\_Common\MoverSkill.cpp
; File C:\IAGOS\server\v18\Source\Source\_Common\Obj.h
; File C:\IAGOS\server\v18\Source\Source\_Common\MoverSkill.cpp
; File C:\IAGOS\server\v18\Source\Source\_Common\Project.h
; File C:\IAGOS\server\v18\Source\Source\_Common\MoverSkill.cpp
;	COMDAT ?SendDamageLine@CMover@@QAEXHHHMMM@Z
_TEXT	SEGMENT
_nAttackID$GSCopy$1$ = -432				; size = 4
tv2016 = -428						; size = 4
tv2030 = -428						; size = 4
_vPos$ = -424						; size = 12
tv2033 = -412						; size = 4
tv2052 = -412						; size = 4
tv2031 = -408						; size = 4
tv2002 = -408						; size = 4
__pObjs$1$ = -404					; size = 4
tv2020 = -404						; size = 4
tv1994 = -400						; size = 4
tv2034 = -400						; size = 4
tv2032 = -396						; size = 4
tv2014 = -396						; size = 4
_pProp$1$ = -392					; size = 4
__nZ$1$ = -388						; size = 4
tv2054 = -388						; size = 4
tv2026 = -388						; size = 4
_this$GSCopy$1$ = -384					; size = 4
__k$1$ = -380						; size = 4
__k$1$ = -380						; size = 4
__nX$1$ = -376						; size = 4
tv1990 = -376						; size = 4
tv2024 = -376						; size = 4
__pObjs$1$ = -372					; size = 4
_nRange$1$ = -372					; size = 4
tv1982 = -368						; size = 4
__nX$1$ = -368						; size = 4
$T1 = -368						; size = 4
__nZ$1$ = -364						; size = 4
__j$1$ = -364						; size = 4
tv2053 = -364						; size = 4
tv2005 = -360						; size = 4
tv2057 = -360						; size = 4
__j$1$ = -360						; size = 4
__i$1$ = -356						; size = 4
__nLinkX$1$ = -356					; size = 4
__nLinkZ$1$ = -352					; size = 4
__nMaxWidth$1$ = -352					; size = 4
__nLinkZ$1$ = -348					; size = 4
__nMaxWidth$1$ = -348					; size = 4
__nLinkX$1$ = -344					; size = 4
__i$1$ = -344						; size = 4
tv2018 = -340						; size = 4
tv1986 = -340						; size = 4
__nUnit$1$ = -340					; size = 4
tv2028 = -336						; size = 4
__nUnit$1$ = -336					; size = 4
$T2 = -336						; size = 4
_m1$ = -332						; size = 64
_m2$ = -268						; size = 64
_m3$ = -204						; size = 64
_mInv$ = -140						; size = 64
_vMax1$ = -76						; size = 12
_vMin1$ = -64						; size = 12
_vDestLocal$ = -52					; size = 12
$T3 = -40						; size = 12
$T4 = -40						; size = 12
$T5 = -40						; size = 12
_vMin2$6 = -28						; size = 12
$T7 = -28						; size = 12
_vMax2$8 = -28						; size = 12
_vMax2$9 = -16						; size = 12
$T10 = -16						; size = 12
_vMin2$11 = -16						; size = 12
__$ArrayPad$ = -4					; size = 4
_nDmgType$ = 8						; size = 4
_nApplyType$ = 12					; size = 4
_nAttackID$ = 16					; size = 4
_fWidth$ = 20						; size = 4
_fHeight$ = 24						; size = 4
_fDepth$ = 28						; size = 4
?SendDamageLine@CMover@@QAEXHHHMMM@Z PROC		; CMover::SendDamageLine, COMDAT
; _this$ = ecx

; 3973 : {

  00000	55		 push	 ebp
  00001	8b ec		 mov	 ebp, esp
  00003	81 ec b0 01 00
	00		 sub	 esp, 432		; 000001b0H
  00009	a1 00 00 00 00	 mov	 eax, DWORD PTR ___security_cookie
  0000e	33 c5		 xor	 eax, ebp
  00010	89 45 fc	 mov	 DWORD PTR __$ArrayPad$[ebp], eax

; 3983 : 	D3DXVECTOR3 vMin1 = D3DXVECTOR3( -fWidth / 2.0f, -fHeight / 2.0f, -fDepth );

  00013	f3 0f 10 5d 14	 movss	 xmm3, DWORD PTR _fWidth$[ebp]
  00018	f3 0f 10 25 00
	00 00 00	 movss	 xmm4, DWORD PTR __xmm@80000000800000008000000080000000
  00020	f3 0f 10 15 00
	00 00 00	 movss	 xmm2, DWORD PTR __real@3f000000
  00028	f3 0f 10 4d 18	 movss	 xmm1, DWORD PTR _fHeight$[ebp]
  0002d	56		 push	 esi
  0002e	57		 push	 edi
  0002f	8b f9		 mov	 edi, ecx
  00031	8b 75 10	 mov	 esi, DWORD PTR _nAttackID$[ebp]

; 3988 : 	D3DXMatrixRotationY( &m1, D3DXToRadian( -GetAngle() ) );

  00034	51		 push	 ecx
  00035	89 bd 80 fe ff
	ff		 mov	 DWORD PTR _this$GSCopy$1$[ebp], edi
  0003b	89 b5 50 fe ff
	ff		 mov	 DWORD PTR _nAttackID$GSCopy$1$[ebp], esi
; File C:\IAGOS\server\v18\Source\Source\_Common\Obj.h

; 215  : 	D3DXVECTOR3		GetPos()	{ return m_vPos; }

  00041	f3 0f 7e 87 60
	01 00 00	 movq	 xmm0, QWORD PTR [edi+352]
  00049	66 0f d6 85 58
	fe ff ff	 movq	 QWORD PTR _vPos$[ebp], xmm0
; File C:\IAGOS\server\v18\Source\Source\_Common\MoverSkill.cpp

; 3983 : 	D3DXVECTOR3 vMin1 = D3DXVECTOR3( -fWidth / 2.0f, -fHeight / 2.0f, -fDepth );

  00051	0f 28 c3	 movaps	 xmm0, xmm3
  00054	0f 57 c4	 xorps	 xmm0, xmm4
; File C:\IAGOS\server\v18\Source\Source\_Common\Obj.h

; 215  : 	D3DXVECTOR3		GetPos()	{ return m_vPos; }

  00057	8b 87 68 01 00
	00		 mov	 eax, DWORD PTR [edi+360]
; File C:\IAGOS\server\v18\Source\Source\_Common\MoverSkill.cpp

; 3983 : 	D3DXVECTOR3 vMin1 = D3DXVECTOR3( -fWidth / 2.0f, -fHeight / 2.0f, -fDepth );

  0005d	f3 0f 59 c2	 mulss	 xmm0, xmm2
; File C:\IAGOS\server\v18\Source\Source\_Common\Obj.h

; 215  : 	D3DXVECTOR3		GetPos()	{ return m_vPos; }

  00061	89 85 60 fe ff
	ff		 mov	 DWORD PTR _vPos$[ebp+8], eax
; File C:\IAGOS\server\v18\Source\Source\_Common\MoverSkill.cpp

; 3988 : 	D3DXMatrixRotationY( &m1, D3DXToRadian( -GetAngle() ) );

  00067	8d 85 b4 fe ff
	ff		 lea	 eax, DWORD PTR _m1$[ebp]
  0006d	f3 0f 59 da	 mulss	 xmm3, xmm2
; File C:\IAGOS\server\v18\Source\Source\DX_SDK\d3dx9math.inl

; 302  :     z = fz;

  00071	c7 45 bc 00 00
	00 00		 mov	 DWORD PTR _vMax1$[ebp+8], 0

; 300  :     x = fx;

  00078	f3 0f 11 45 c0	 movss	 DWORD PTR _vMin1$[ebp], xmm0
; File C:\IAGOS\server\v18\Source\Source\_Common\MoverSkill.cpp

; 3983 : 	D3DXVECTOR3 vMin1 = D3DXVECTOR3( -fWidth / 2.0f, -fHeight / 2.0f, -fDepth );

  0007d	0f 28 c1	 movaps	 xmm0, xmm1
  00080	0f 57 c4	 xorps	 xmm0, xmm4

; 3984 : 	D3DXVECTOR3 vMax1 = D3DXVECTOR3(  fWidth / 2.0f,  fHeight / 2.0f, 0 );

  00083	f3 0f 59 ca	 mulss	 xmm1, xmm2
  00087	f3 0f 59 c2	 mulss	 xmm0, xmm2
; File C:\IAGOS\server\v18\Source\Source\DX_SDK\d3dx9math.inl

; 300  :     x = fx;

  0008b	f3 0f 11 5d b4	 movss	 DWORD PTR _vMax1$[ebp], xmm3

; 301  :     y = fy;

  00090	f3 0f 11 4d b8	 movss	 DWORD PTR _vMax1$[ebp+4], xmm1
  00095	f3 0f 11 45 c4	 movss	 DWORD PTR _vMin1$[ebp+4], xmm0
; File C:\IAGOS\server\v18\Source\Source\_Common\MoverSkill.cpp

; 3983 : 	D3DXVECTOR3 vMin1 = D3DXVECTOR3( -fWidth / 2.0f, -fHeight / 2.0f, -fDepth );

  0009a	f3 0f 10 45 1c	 movss	 xmm0, DWORD PTR _fDepth$[ebp]
  0009f	0f 57 c4	 xorps	 xmm0, xmm4
; File C:\IAGOS\server\v18\Source\Source\DX_SDK\d3dx9math.inl

; 302  :     z = fz;

  000a2	f3 0f 11 45 c8	 movss	 DWORD PTR _vMin1$[ebp+8], xmm0
; File C:\IAGOS\server\v18\Source\Source\_Common\MoverSkill.cpp

; 3988 : 	D3DXMatrixRotationY( &m1, D3DXToRadian( -GetAngle() ) );

  000a7	f3 0f 10 47 18	 movss	 xmm0, DWORD PTR [edi+24]
  000ac	0f 57 c4	 xorps	 xmm0, xmm4
  000af	f3 0f 59 05 00
	00 00 00	 mulss	 xmm0, DWORD PTR __real@3c8efa35
  000b7	f3 0f 11 04 24	 movss	 DWORD PTR [esp], xmm0
  000bc	50		 push	 eax
  000bd	e8 00 00 00 00	 call	 _D3DXMatrixRotationY@8
; File C:\IAGOS\server\v18\Source\Source\_Common\Obj.h

; 215  : 	D3DXVECTOR3		GetPos()	{ return m_vPos; }

  000c2	f3 0f 7e 87 60
	01 00 00	 movq	 xmm0, QWORD PTR [edi+352]
; File C:\IAGOS\server\v18\Source\Source\_Common\MoverSkill.cpp

; 3989 : 	D3DXMatrixTranslation( &m2, GetPos().x, GetPos().y, GetPos().z );

  000ca	83 ec 0c	 sub	 esp, 12			; 0000000cH
; File C:\IAGOS\server\v18\Source\Source\_Common\Obj.h

; 215  : 	D3DXVECTOR3		GetPos()	{ return m_vPos; }

  000cd	8b 87 68 01 00
	00		 mov	 eax, DWORD PTR [edi+360]
  000d3	66 0f d6 45 d8	 movq	 QWORD PTR $T4[ebp], xmm0
  000d8	f3 0f 7e c0	 movq	 xmm0, xmm0
  000dc	66 0f d6 45 f0	 movq	 QWORD PTR $T10[ebp], xmm0
  000e1	f3 0f 7e 87 60
	01 00 00	 movq	 xmm0, QWORD PTR [edi+352]
  000e9	66 0f d6 45 e4	 movq	 QWORD PTR $T7[ebp], xmm0
  000ee	89 45 ec	 mov	 DWORD PTR $T7[ebp+8], eax
; File C:\IAGOS\server\v18\Source\Source\_Common\MoverSkill.cpp

; 3989 : 	D3DXMatrixTranslation( &m2, GetPos().x, GetPos().y, GetPos().z );

  000f1	f3 0f 10 45 ec	 movss	 xmm0, DWORD PTR $T7[ebp+8]
  000f6	f3 0f 11 44 24
	08		 movss	 DWORD PTR [esp+8], xmm0
  000fc	f3 0f 10 45 f4	 movss	 xmm0, DWORD PTR $T10[ebp+4]
  00101	f3 0f 11 44 24
	04		 movss	 DWORD PTR [esp+4], xmm0
  00107	f3 0f 10 45 d8	 movss	 xmm0, DWORD PTR $T4[ebp]
; File C:\IAGOS\server\v18\Source\Source\_Common\Obj.h

; 215  : 	D3DXVECTOR3		GetPos()	{ return m_vPos; }

  0010c	89 45 e0	 mov	 DWORD PTR $T4[ebp+8], eax
  0010f	89 45 f8	 mov	 DWORD PTR $T10[ebp+8], eax
; File C:\IAGOS\server\v18\Source\Source\_Common\MoverSkill.cpp

; 3989 : 	D3DXMatrixTranslation( &m2, GetPos().x, GetPos().y, GetPos().z );

  00112	8d 85 f4 fe ff
	ff		 lea	 eax, DWORD PTR _m2$[ebp]
  00118	f3 0f 11 04 24	 movss	 DWORD PTR [esp], xmm0
  0011d	50		 push	 eax
  0011e	e8 00 00 00 00	 call	 _D3DXMatrixTranslation@16

; 3990 : 	D3DXMatrixMultiply( &m3, &m1, &m2 );	// world = rot * trans

  00123	8d 85 f4 fe ff
	ff		 lea	 eax, DWORD PTR _m2$[ebp]
  00129	50		 push	 eax
  0012a	8d 85 b4 fe ff
	ff		 lea	 eax, DWORD PTR _m1$[ebp]
  00130	50		 push	 eax
  00131	8d 85 34 ff ff
	ff		 lea	 eax, DWORD PTR _m3$[ebp]
  00137	50		 push	 eax
  00138	e8 00 00 00 00	 call	 _D3DXMatrixMultiply@12

; 3991 : 	
; 3992 : 	D3DXMatrixInverse( &mInv, NULL, &m3 );		// °ř°ÝŔÚŔÇ żŞÇŕ·Ä ¸¸µë.

  0013d	8d 85 34 ff ff
	ff		 lea	 eax, DWORD PTR _m3$[ebp]
  00143	50		 push	 eax
  00144	6a 00		 push	 0
  00146	8d 85 74 ff ff
	ff		 lea	 eax, DWORD PTR _mInv$[ebp]
  0014c	50		 push	 eax
  0014d	e8 00 00 00 00	 call	 _D3DXMatrixInverse@12

; 3993 : 
; 3994 : 	// Ĺ¸°ŮŔÇ ÁÂÇĄ¸¦ °ř°ÝŔÚĂř ±âÁŘŔ¸·Î żŞşŻČŻ ÇŃ°Í.
; 3995 : 	D3DXVECTOR3 vDestLocal;
; 3996 : 
; 3997 : 	// ŔĎąÝŔűŔ¸·Î fDepth°ˇ °ˇŔĺ ±ć±â¶§ą®żˇ °Ë»ç żµżŞŔş fDepth·Î Çß´Ů. 
; 3998 : 	if( fDepth <= 4.0f )

  00152	f3 0f 10 05 00
	00 00 00	 movss	 xmm0, DWORD PTR __real@40800000
  0015a	f3 0f 10 4d 1c	 movss	 xmm1, DWORD PTR _fDepth$[ebp]
  0015f	0f 2f c1	 comiss	 xmm0, xmm1
  00162	72 0c		 jb	 SHORT $LN24@SendDamage

; 3999 : 		nRange = 4;

  00164	c7 85 8c fe ff
	ff 04 00 00 00	 mov	 DWORD PTR _nRange$1$[ebp], 4
  0016e	eb 37		 jmp	 SHORT $LN28@SendDamage
$LN24@SendDamage:

; 4000 : 	else if( fDepth <= 8.0f )

  00170	f3 0f 10 05 00
	00 00 00	 movss	 xmm0, DWORD PTR __real@41000000
  00178	0f 2f c1	 comiss	 xmm0, xmm1
  0017b	72 0c		 jb	 SHORT $LN26@SendDamage

; 4001 : 		nRange = 8;

  0017d	c7 85 8c fe ff
	ff 08 00 00 00	 mov	 DWORD PTR _nRange$1$[ebp], 8
  00187	eb 1e		 jmp	 SHORT $LN28@SendDamage
$LN26@SendDamage:

; 4002 : 	else if( fDepth <= 16.0f )

  00189	f3 0f 10 05 00
	00 00 00	 movss	 xmm0, DWORD PTR __real@41800000
  00191	b8 20 00 00 00	 mov	 eax, 32			; 00000020H
  00196	0f 2f c1	 comiss	 xmm0, xmm1
  00199	b9 10 00 00 00	 mov	 ecx, 16			; 00000010H
  0019e	0f 43 c1	 cmovae	 eax, ecx
  001a1	89 85 8c fe ff
	ff		 mov	 DWORD PTR _nRange$1$[ebp], eax
$LN28@SendDamage:

; 4003 : 		nRange = 16;
; 4004 : 	else
; 4005 : 		nRange = 32;
; 4006 : 	
; 4007 : 	if( fDepth <= 0 )	// ąüŔ§°ˇ 0ŔĚ°ĹłŞ Ŕ˝ĽöŔĎĽö´Â ľř´Ů.

  001a7	0f 57 c0	 xorps	 xmm0, xmm0
  001aa	0f 2f c1	 comiss	 xmm0, xmm1
  001ad	72 23		 jb	 SHORT $LN30@SendDamage

; 4008 : 		Error( "CMover::SendDamageLine : D:%s A:%s %d %f", GetName(), nAttackID, fDepth );

  001af	0f 5a c1	 cvtps2pd xmm0, xmm1
  001b2	83 ec 08	 sub	 esp, 8
  001b5	8b cf		 mov	 ecx, edi
  001b7	f2 0f 11 04 24	 movsd	 QWORD PTR [esp], xmm0
  001bc	56		 push	 esi
  001bd	6a 00		 push	 0
  001bf	e8 00 00 00 00	 call	 ?GetName@CMover@@QAEPBDH@Z ; CMover::GetName
  001c4	50		 push	 eax
  001c5	68 00 00 00 00	 push	 OFFSET ??_C@_0CJ@BEJKIDOG@CMover?3?3SendDamageLine?5?3?5D?3?$CFs?5A@
  001ca	e8 00 00 00 00	 call	 ?Error@@YAPBDPBDZZ	; Error
  001cf	83 c4 14	 add	 esp, 20			; 00000014H
$LN30@SendDamage:

; 4009 : 
; 4010 : 	ItemProp* pProp;
; 4011 : 	if( nDmgType == AF_MAGICSKILL )

  001d2	83 7d 08 20	 cmp	 DWORD PTR _nDmgType$[ebp], 32 ; 00000020H
  001d6	75 5f		 jne	 SHORT $LN136@SendDamage
; File C:\IAGOS\server\v18\Source\Source\_Common\Project.h

; 1395 : 	VERIFY_RANGE( nIndex, 0, m_aPropSkill.GetSize(), "GetSkillProp range_error", NULL );

  001d8	a1 64 02 00 00	 mov	 eax, DWORD PTR ?prj@@3VCProject@@A+612
  001dd	85 f6		 test	 esi, esi
  001df	78 2e		 js	 SHORT $LN150@SendDamage
  001e1	3b f0		 cmp	 esi, eax
  001e3	7d 2a		 jge	 SHORT $LN150@SendDamage
; File C:\IAGOS\server\v18\Source\Source\_Common\data.h

; 270  : 	if( dwIndex >= (DWORD)m_nMaxIndex )

  001e5	72 04		 jb	 SHORT $LN155@SendDamage

; 271  : 		return NULL;

  001e7	33 c0		 xor	 eax, eax
  001e9	eb 08		 jmp	 SHORT $LN236@SendDamage
$LN155@SendDamage:

; 272  : 	return (T*) m_apOffset[ dwIndex ];

  001eb	a1 54 02 00 00	 mov	 eax, DWORD PTR ?prj@@3VCProject@@A+596
  001f0	8b 04 b0	 mov	 eax, DWORD PTR [eax+esi*4]
$LN236@SendDamage:
; File C:\IAGOS\server\v18\Source\Source\_Common\MoverSkill.cpp

; 4014 : 		if( pProp == NULL )

  001f3	89 85 78 fe ff
	ff		 mov	 DWORD PTR _pProp$1$[ebp], eax
  001f9	85 c0		 test	 eax, eax
  001fb	75 6b		 jne	 SHORT $LN34@SendDamage

; 4016 : 			Error( "CMover::SendDamageLine : %s. ˝şĹł(%d)ŔÇ ÇÁ·ÎĆŰĆĽ°ˇ ľ÷¤˛´Ů.", m_szName, nAttackID );

  001fd	56		 push	 esi
  001fe	8d 87 ec 14 00
	00		 lea	 eax, DWORD PTR [edi+5356]
  00204	50		 push	 eax
  00205	68 00 00 00 00	 push	 OFFSET ??_C@_0DL@KEBMKGCP@CMover?3?3SendDamageLine?5?3?5?$CFs?4?5?$LN?$LK@

; 4017 : 			return;	// property not found

  0020a	e9 af 08 00 00	 jmp	 $LN237@SendDamage
$LN150@SendDamage:
; File C:\IAGOS\server\v18\Source\Source\_Common\Project.h

; 579  : 	LPCTSTR szErr = Error( _T( "%s min:%d, max:%d, index:%d" ), szMsg, nMin, nMax, nIndex ); 

  0020f	56		 push	 esi
  00210	50		 push	 eax
  00211	6a 00		 push	 0
  00213	68 00 00 00 00	 push	 OFFSET ??_C@_0BJ@GPNGCFMK@GetSkillProp?5range_error@
  00218	68 00 00 00 00	 push	 OFFSET ??_C@_0BM@HMFGHCP@?$CFs?5min?3?$CFd?0?5max?3?$CFd?0?5index?3?$CFd@
  0021d	e8 00 00 00 00	 call	 ?Error@@YAPBDPBDZZ	; Error
  00222	83 c4 14	 add	 esp, 20			; 00000014H
; File C:\IAGOS\server\v18\Source\Source\_Common\MoverSkill.cpp

; 4016 : 			Error( "CMover::SendDamageLine : %s. ˝şĹł(%d)ŔÇ ÇÁ·ÎĆŰĆĽ°ˇ ľ÷¤˛´Ů.", m_szName, nAttackID );

  00225	8d 87 ec 14 00
	00		 lea	 eax, DWORD PTR [edi+5356]
  0022b	56		 push	 esi
  0022c	50		 push	 eax
  0022d	68 00 00 00 00	 push	 OFFSET ??_C@_0DL@KEBMKGCP@CMover?3?3SendDamageLine?5?3?5?$CFs?4?5?$LN?$LK@

; 4017 : 			return;	// property not found

  00232	e9 87 08 00 00	 jmp	 $LN237@SendDamage
$LN136@SendDamage:
; File C:\IAGOS\server\v18\Source\Source\_Common\Project.h

; 1389 : 	VERIFY_RANGE_ASSERT( nIndex, 0, m_aPropItem.GetSize(), "GetItemProp range_error", NULL );

  00237	a1 40 02 00 00	 mov	 eax, DWORD PTR ?prj@@3VCProject@@A+576
  0023c	85 f6		 test	 esi, esi
  0023e	0f 88 57 08 00
	00		 js	 $LN138@SendDamage
  00244	3b f0		 cmp	 esi, eax
  00246	0f 8d 4f 08 00
	00		 jge	 $LN138@SendDamage
; File C:\IAGOS\server\v18\Source\Source\_Common\data.h

; 270  : 	if( dwIndex >= (DWORD)m_nMaxIndex )

  0024c	72 04		 jb	 SHORT $LN143@SendDamage

; 271  : 		return NULL;

  0024e	33 c0		 xor	 eax, eax
  00250	eb 08		 jmp	 SHORT $LN238@SendDamage
$LN143@SendDamage:

; 272  : 	return (T*) m_apOffset[ dwIndex ];

  00252	a1 30 02 00 00	 mov	 eax, DWORD PTR ?prj@@3VCProject@@A+560
  00257	8b 04 b0	 mov	 eax, DWORD PTR [eax+esi*4]
$LN238@SendDamage:
; File C:\IAGOS\server\v18\Source\Source\_Common\MoverSkill.cpp

; 4022 : 		if( pProp == NULL )

  0025a	89 85 78 fe ff
	ff		 mov	 DWORD PTR _pProp$1$[ebp], eax
  00260	85 c0		 test	 eax, eax
  00262	0f 84 49 08 00
	00		 je	 $LN193@SendDamage
$LN34@SendDamage:

; 4025 : 			return;	// property not found
; 4026 : 		}
; 4027 : 	}
; 4028 : 	
; 4029 : 	BOOL	bDamage = FALSE;
; 4030 : 
; 4031 : 	if( nApplyType & OBJTYPE_PLAYER )	// Ŕűżë´ë»óŔĚ ÇĂ·ąŔĚľîŔÎ°ˇ 

  00268	8b 45 0c	 mov	 eax, DWORD PTR _nApplyType$[ebp]
  0026b	f3 0f 10 95 60
	fe ff ff	 movss	 xmm2, DWORD PTR _vPos$[ebp+8]
  00273	f3 0f 10 85 58
	fe ff ff	 movss	 xmm0, DWORD PTR _vPos$[ebp]
  0027b	a8 01		 test	 al, 1
  0027d	0f 84 e4 03 00
	00		 je	 $LN3@SendDamage

; 4033 : 		FOR_LINKMAP( GetWorld(), vPos, pObj, nRange, CObj::linkPlayer, GetLayer() )

  00283	8b 8f 6c 01 00
	00		 mov	 ecx, DWORD PTR [edi+364]
  00289	33 f6		 xor	 esi, esi
  0028b	ff b7 b8 01 00
	00		 push	 DWORD PTR [edi+440]
  00291	89 b5 9c fe ff
	ff		 mov	 DWORD PTR __i$1$[ebp], esi
  00297	6a 02		 push	 2
  00299	66 0f 6e 49 14	 movd	 xmm1, DWORD PTR [ecx+20]
  0029e	83 c1 24	 add	 ecx, 36			; 00000024H
  002a1	0f 5b c9	 cvtdq2ps xmm1, xmm1
  002a4	f3 0f 5e c1	 divss	 xmm0, xmm1
  002a8	f3 0f 2c c0	 cvttss2si eax, xmm0
  002ac	0f 28 c2	 movaps	 xmm0, xmm2
  002af	f3 0f 5e c1	 divss	 xmm0, xmm1
  002b3	89 85 a8 fe ff
	ff		 mov	 DWORD PTR __nLinkX$1$[ebp], eax
  002b9	f3 0f 2c c0	 cvttss2si eax, xmm0
  002bd	89 85 a4 fe ff
	ff		 mov	 DWORD PTR __nLinkZ$1$[ebp], eax
  002c3	e8 00 00 00 00	 call	 ?GetMaxLinkLevel@CLayeredLinkMap@@QAEHKH@Z ; CLayeredLinkMap::GetMaxLinkLevel
  002c8	85 c0		 test	 eax, eax
  002ca	0f 8e 84 03 00
	00		 jle	 $LN197@SendDamage
  002d0	f3 0f 2c 85 58
	fe ff ff	 cvttss2si eax, DWORD PTR _vPos$[ebp]
  002d8	8b 8d a8 fe ff
	ff		 mov	 ecx, DWORD PTR __nLinkX$1$[ebp]
  002de	8b d1		 mov	 edx, ecx
  002e0	89 85 70 fe ff
	ff		 mov	 DWORD PTR tv2034[ebp], eax
  002e6	f3 0f 2c 85 60
	fe ff ff	 cvttss2si eax, DWORD PTR _vPos$[ebp+8]
  002ee	89 85 74 fe ff
	ff		 mov	 DWORD PTR tv2032[ebp], eax
  002f4	8b 85 8c fe ff
	ff		 mov	 eax, DWORD PTR _nRange$1$[ebp]
  002fa	2b d0		 sub	 edx, eax
  002fc	89 95 54 fe ff
	ff		 mov	 DWORD PTR tv2030[ebp], edx
  00302	03 c8		 add	 ecx, eax
  00304	8b 95 a4 fe ff
	ff		 mov	 edx, DWORD PTR __nLinkZ$1$[ebp]
  0030a	89 95 b0 fe ff
	ff		 mov	 DWORD PTR tv2028[ebp], edx
  00310	29 85 b0 fe ff
	ff		 sub	 DWORD PTR tv2028[ebp], eax
  00316	03 c2		 add	 eax, edx
  00318	89 8d 7c fe ff
	ff		 mov	 DWORD PTR tv2026[ebp], ecx
  0031e	89 85 88 fe ff
	ff		 mov	 DWORD PTR tv2024[ebp], eax
  00324	0f 1f 40 00 0f
	1f 84 00 00 00
	00 00		 npad	 12
$LL4@SendDamage:
  00330	ff b7 b8 01 00
	00		 push	 DWORD PTR [edi+440]
; File C:\IAGOS\server\v18\Source\Source\_Common\Obj.h

; 221  : 	CWorld*			GetWorld()	{ return m_pWorld; }

  00336	8b 8f 6c 01 00
	00		 mov	 ecx, DWORD PTR [edi+364]
; File C:\IAGOS\server\v18\Source\Source\_Common\MoverSkill.cpp

; 4033 : 		FOR_LINKMAP( GetWorld(), vPos, pObj, nRange, CObj::linkPlayer, GetLayer() )

  0033c	56		 push	 esi
  0033d	6a 02		 push	 2
  0033f	83 c1 24	 add	 ecx, 36			; 00000024H
  00342	e8 00 00 00 00	 call	 ?GetLinkWidth@CLayeredLinkMap@@QAEHKHH@Z ; CLayeredLinkMap::GetLinkWidth
  00347	ff b7 b8 01 00
	00		 push	 DWORD PTR [edi+440]
  0034d	8b 8f 6c 01 00
	00		 mov	 ecx, DWORD PTR [edi+364]
  00353	8b f0		 mov	 esi, eax
  00355	ff b5 9c fe ff
	ff		 push	 DWORD PTR __i$1$[ebp]
  0035b	83 c1 24	 add	 ecx, 36			; 00000024H
  0035e	6a 02		 push	 2
  00360	e8 00 00 00 00	 call	 ?GetObj@CLayeredLinkMap@@QAEPAPAVCObj@@KKH@Z ; CLayeredLinkMap::GetObj
  00365	8b 8f 6c 01 00
	00		 mov	 ecx, DWORD PTR [edi+364]
  0036b	89 85 6c fe ff
	ff		 mov	 DWORD PTR __pObjs$1$[ebp], eax
  00371	8b 51 08	 mov	 edx, DWORD PTR [ecx+8]
  00374	8b 41 04	 mov	 eax, DWORD PTR [ecx+4]
  00377	8b f8		 mov	 edi, eax
  00379	0f af d6	 imul	 edx, esi
  0037c	c1 e0 07	 shl	 eax, 7
  0037f	0f af fe	 imul	 edi, esi
  00382	8b 71 14	 mov	 esi, DWORD PTR [ecx+20]
  00385	89 95 98 fe ff
	ff		 mov	 DWORD PTR tv2005[ebp], edx
  0038b	99		 cdq
  0038c	f7 ff		 idiv	 edi
  0038e	89 bd a0 fe ff
	ff		 mov	 DWORD PTR __nMaxWidth$1$[ebp], edi
  00394	8b f8		 mov	 edi, eax
  00396	8b c6		 mov	 eax, esi
  00398	0f af c7	 imul	 eax, edi
  0039b	89 bd ac fe ff
	ff		 mov	 DWORD PTR __nUnit$1$[ebp], edi
  003a1	99		 cdq
  003a2	2b c2		 sub	 eax, edx
  003a4	8b c8		 mov	 ecx, eax
  003a6	8b 85 a8 fe ff
	ff		 mov	 eax, DWORD PTR __nLinkX$1$[ebp]
  003ac	99		 cdq
  003ad	f7 ff		 idiv	 edi
  003af	33 c0		 xor	 eax, eax
  003b1	d1 f9		 sar	 ecx, 1
  003b3	2b 95 a8 fe ff
	ff		 sub	 edx, DWORD PTR __nLinkX$1$[ebp]
  003b9	0f af d6	 imul	 edx, esi
  003bc	03 95 70 fe ff
	ff		 add	 edx, DWORD PTR tv2034[ebp]
  003c2	3b d1		 cmp	 edx, ecx
  003c4	0f 9f c0	 setg	 al
  003c7	89 85 90 fe ff
	ff		 mov	 DWORD PTR __nX$1$[ebp], eax
  003cd	8b 85 a4 fe ff
	ff		 mov	 eax, DWORD PTR __nLinkZ$1$[ebp]
  003d3	99		 cdq
  003d4	f7 ff		 idiv	 edi
  003d6	33 c0		 xor	 eax, eax
  003d8	2b 95 a4 fe ff
	ff		 sub	 edx, DWORD PTR __nLinkZ$1$[ebp]
  003de	0f af d6	 imul	 edx, esi
  003e1	03 95 74 fe ff
	ff		 add	 edx, DWORD PTR tv2032[ebp]
  003e7	3b d1		 cmp	 edx, ecx
  003e9	0f 9f c0	 setg	 al
  003ec	33 c9		 xor	 ecx, ecx
  003ee	89 85 94 fe ff
	ff		 mov	 DWORD PTR __nZ$1$[ebp], eax
  003f4	8b 85 54 fe ff
	ff		 mov	 eax, DWORD PTR tv2030[ebp]
  003fa	99		 cdq
  003fb	f7 ff		 idiv	 edi
  003fd	8b b5 94 fe ff
	ff		 mov	 esi, DWORD PTR __nZ$1$[ebp]
  00403	48		 dec	 eax
  00404	03 85 90 fe ff
	ff		 add	 eax, DWORD PTR __nX$1$[ebp]
  0040a	0f 49 c8	 cmovns	 ecx, eax
  0040d	8b 85 b0 fe ff
	ff		 mov	 eax, DWORD PTR tv2028[ebp]
  00413	99		 cdq
  00414	f7 ff		 idiv	 edi
  00416	89 8d 84 fe ff
	ff		 mov	 DWORD PTR __k$1$[ebp], ecx
  0041c	8d 4e ff	 lea	 ecx, DWORD PTR [esi-1]
  0041f	03 c8		 add	 ecx, eax
  00421	8b 85 7c fe ff
	ff		 mov	 eax, DWORD PTR tv2026[ebp]
  00427	99		 cdq
  00428	f7 ff		 idiv	 edi
  0042a	8b 95 a0 fe ff
	ff		 mov	 edx, DWORD PTR __nMaxWidth$1$[ebp]
  00430	03 85 90 fe ff
	ff		 add	 eax, DWORD PTR __nX$1$[ebp]
  00436	3b c2		 cmp	 eax, edx
  00438	8d 7a ff	 lea	 edi, DWORD PTR [edx-1]
  0043b	0f 4c f8	 cmovl	 edi, eax
  0043e	8b 85 88 fe ff
	ff		 mov	 eax, DWORD PTR tv2024[ebp]
  00444	99		 cdq
  00445	f7 bd ac fe ff
	ff		 idiv	 DWORD PTR __nUnit$1$[ebp]
  0044b	89 bd 68 fe ff
	ff		 mov	 DWORD PTR tv2002[ebp], edi
  00451	03 c6		 add	 eax, esi
  00453	8b 95 98 fe ff
	ff		 mov	 edx, DWORD PTR tv2005[ebp]
  00459	3b c2		 cmp	 eax, edx
  0045b	8d 72 ff	 lea	 esi, DWORD PTR [edx-1]
  0045e	0f 4c f0	 cmovl	 esi, eax
  00461	33 d2		 xor	 edx, edx
  00463	85 c9		 test	 ecx, ecx
  00465	89 b5 64 fe ff
	ff		 mov	 DWORD PTR tv2052[ebp], esi
  0046b	0f 49 d1	 cmovns	 edx, ecx
  0046e	89 95 94 fe ff
	ff		 mov	 DWORD PTR __j$1$[ebp], edx
  00474	3b d6		 cmp	 edx, esi
  00476	0f 8f a7 01 00
	00		 jg	 $LN2@SendDamage
; File C:\IAGOS\server\v18\Source\Source\_Common\Obj.h

; 221  : 	CWorld*			GetWorld()	{ return m_pWorld; }

  0047c	8b 8d a0 fe ff
	ff		 mov	 ecx, DWORD PTR __nMaxWidth$1$[ebp]
  00482	8b c2		 mov	 eax, edx
  00484	8b b5 84 fe ff
	ff		 mov	 esi, DWORD PTR __k$1$[ebp]
  0048a	0f af c1	 imul	 eax, ecx
  0048d	03 c6		 add	 eax, esi
  0048f	89 85 90 fe ff
	ff		 mov	 DWORD PTR $T1[ebp], eax
$LL7@SendDamage:
; File C:\IAGOS\server\v18\Source\Source\_Common\MoverSkill.cpp

; 4033 : 		FOR_LINKMAP( GetWorld(), vPos, pObj, nRange, CObj::linkPlayer, GetLayer() )

  00495	3b f7		 cmp	 esi, edi
  00497	0f 8f 6b 01 00
	00		 jg	 $LN5@SendDamage
  0049d	8b 8d 6c fe ff
	ff		 mov	 ecx, DWORD PTR __pObjs$1$[ebp]
  004a3	8b d7		 mov	 edx, edi
  004a5	2b d6		 sub	 edx, esi
  004a7	42		 inc	 edx
  004a8	89 95 98 fe ff
	ff		 mov	 DWORD PTR tv2057[ebp], edx
  004ae	8d 0c 81	 lea	 ecx, DWORD PTR [ecx+eax*4]
  004b1	89 8d ac fe ff
	ff		 mov	 DWORD PTR tv1986[ebp], ecx
$LL10@SendDamage:
  004b7	8b 31		 mov	 esi, DWORD PTR [ecx]
  004b9	bf e8 03 00 00	 mov	 edi, 1000		; 000003e8H
  004be	85 f6		 test	 esi, esi
  004c0	0f 84 0c 01 00
	00		 je	 $LN8@SendDamage
$LL11@SendDamage:
  004c6	8b c7		 mov	 eax, edi
  004c8	4f		 dec	 edi
  004c9	85 c0		 test	 eax, eax
  004cb	0f 84 f5 00 00
	00		 je	 $LN195@SendDamage

; 4034 : 		{
; 4035 : 			if( pObj->GetType() == OT_MOVER )

  004d1	83 be 70 01 00
	00 05		 cmp	 DWORD PTR [esi+368], 5
  004d8	0f 85 da 00 00
	00		 jne	 $LN43@SendDamage

; 4036 : 			{
; 4037 : 				bDamage = TRUE;	
; 4038 : 
; 4039 : 				if( bDamage && pObj != this )		// this´Â °ř°Ý´ë»óżˇĽ­ Á¦żÜ.

  004de	3b b5 80 fe ff
	ff		 cmp	 esi, DWORD PTR _this$GSCopy$1$[ebp]
  004e4	0f 84 ce 00 00
	00		 je	 $LN43@SendDamage
; File C:\IAGOS\server\v18\Source\Source\_Common\Obj.h

; 180  : 	BOOL			IsDelete()	{ return (m_dwFlags & OBJ_FLAG_DELETE);  }

  004ea	f6 46 04 01	 test	 BYTE PTR [esi+4], 1

; 327  : 	return pObj && ( pObj->IsDelete() == FALSE ); 

  004ee	0f 85 c4 00 00
	00		 jne	 $LN43@SendDamage
; File C:\IAGOS\server\v18\Source\Source\_Common\Mover.h

; 1251 : 	BOOL			IsLive() { return m_pActMover->IsDie() == FALSE || m_nHitPoint > 0; }		// && ¸¦  ||·Î ąŮ˛ĺŔ˝.  !=¸¦ >·Î ąŮ˛Ţ

  004f4	8b 86 38 02 00
	00		 mov	 eax, DWORD PTR [esi+568]
  004fa	f7 40 04 00 00
	00 08		 test	 DWORD PTR [eax+4], 134217728 ; 08000000H
  00501	74 0d		 je	 SHORT $LN191@SendDamage
  00503	83 be f8 05 00
	00 00		 cmp	 DWORD PTR [esi+1528], 0
  0050a	0f 8e a8 00 00
	00		 jle	 $LN43@SendDamage
$LN191@SendDamage:
; File C:\IAGOS\server\v18\Source\Source\_Common\Obj.h

; 215  : 	D3DXVECTOR3		GetPos()	{ return m_vPos; }

  00510	8b 86 68 01 00
	00		 mov	 eax, DWORD PTR [esi+360]
  00516	f3 0f 7e 86 60
	01 00 00	 movq	 xmm0, QWORD PTR [esi+352]
  0051e	89 45 e0	 mov	 DWORD PTR $T5[ebp+8], eax
; File C:\IAGOS\server\v18\Source\Source\_Common\MoverSkill.cpp

; 4045 : 						D3DXVec3TransformCoord( &vDestLocal, &pTarget->GetPos(), &mInv );

  00521	8d 85 74 ff ff
	ff		 lea	 eax, DWORD PTR _mInv$[ebp]
  00527	50		 push	 eax
  00528	8d 45 d8	 lea	 eax, DWORD PTR $T5[ebp]
; File C:\IAGOS\server\v18\Source\Source\_Common\Obj.h

; 215  : 	D3DXVECTOR3		GetPos()	{ return m_vPos; }

  0052b	66 0f d6 45 d8	 movq	 QWORD PTR $T5[ebp], xmm0
; File C:\IAGOS\server\v18\Source\Source\_Common\MoverSkill.cpp

; 4045 : 						D3DXVec3TransformCoord( &vDestLocal, &pTarget->GetPos(), &mInv );

  00530	50		 push	 eax
  00531	8d 45 cc	 lea	 eax, DWORD PTR _vDestLocal$[ebp]
  00534	50		 push	 eax
  00535	e8 00 00 00 00	 call	 _D3DXVec3TransformCoord@12

; 4046 : 						// Ĺ¸°ŮĂř AABB
; 4047 : 						D3DXVECTOR3 vMin2 = vDestLocal + pTarget->m_pModel->m_vMin;

  0053a	8b 86 78 01 00
	00		 mov	 eax, DWORD PTR [esi+376]
; File C:\IAGOS\server\v18\Source\Source\DX_SDK\d3dx9math.inl

; 377  :     return D3DXVECTOR3(x + v.x, y + v.y, z + v.z);

  00540	f3 0f 10 6d d0	 movss	 xmm5, DWORD PTR _vDestLocal$[ebp+4]
  00545	f3 0f 10 65 d4	 movss	 xmm4, DWORD PTR _vDestLocal$[ebp+8]
  0054a	0f 28 d5	 movaps	 xmm2, xmm5
  0054d	f3 0f 10 5d cc	 movss	 xmm3, DWORD PTR _vDestLocal$[ebp]
  00552	0f 28 cc	 movaps	 xmm1, xmm4
  00555	f3 0f 58 50 7c	 addss	 xmm2, DWORD PTR [eax+124]
  0055a	f3 0f 58 88 80
	00 00 00	 addss	 xmm1, DWORD PTR [eax+128]
  00562	0f 28 c3	 movaps	 xmm0, xmm3
  00565	f3 0f 58 40 78	 addss	 xmm0, DWORD PTR [eax+120]

; 301  :     y = fy;

  0056a	f3 0f 11 55 e8	 movss	 DWORD PTR _vMin2$6[ebp+4], xmm2

; 302  :     z = fz;

  0056f	f3 0f 11 4d ec	 movss	 DWORD PTR _vMin2$6[ebp+8], xmm1
  00574	f3 0f 11 45 e4	 movss	 DWORD PTR _vMin2$6[ebp], xmm0

; 377  :     return D3DXVECTOR3(x + v.x, y + v.y, z + v.z);

  00579	f3 0f 58 a8 88
	00 00 00	 addss	 xmm5, DWORD PTR [eax+136]
  00581	f3 0f 58 a0 8c
	00 00 00	 addss	 xmm4, DWORD PTR [eax+140]
  00589	f3 0f 58 98 84
	00 00 00	 addss	 xmm3, DWORD PTR [eax+132]
; File C:\IAGOS\server\v18\Source\Source\_Common\MoverSkill.cpp

; 4049 : 						if( ::IsTouchAABB( vMin1, vMax1, vMin2, vMax2 ) )		// AABBĂćµą°Ë»ç.

  00591	8d 45 f0	 lea	 eax, DWORD PTR _vMax2$9[ebp]
  00594	50		 push	 eax
  00595	8d 45 e4	 lea	 eax, DWORD PTR _vMin2$6[ebp]
; File C:\IAGOS\server\v18\Source\Source\DX_SDK\d3dx9math.inl

; 301  :     y = fy;

  00598	f3 0f 11 6d f4	 movss	 DWORD PTR _vMax2$9[ebp+4], xmm5
; File C:\IAGOS\server\v18\Source\Source\_Common\MoverSkill.cpp

; 4049 : 						if( ::IsTouchAABB( vMin1, vMax1, vMin2, vMax2 ) )		// AABBĂćµą°Ë»ç.

  0059d	50		 push	 eax
  0059e	8d 45 b4	 lea	 eax, DWORD PTR _vMax1$[ebp]
; File C:\IAGOS\server\v18\Source\Source\DX_SDK\d3dx9math.inl

; 300  :     x = fx;

  005a1	f3 0f 11 5d f0	 movss	 DWORD PTR _vMax2$9[ebp], xmm3
; File C:\IAGOS\server\v18\Source\Source\_Common\MoverSkill.cpp

; 4049 : 						if( ::IsTouchAABB( vMin1, vMax1, vMin2, vMax2 ) )		// AABBĂćµą°Ë»ç.

  005a6	50		 push	 eax
  005a7	8d 45 c0	 lea	 eax, DWORD PTR _vMin1$[ebp]
; File C:\IAGOS\server\v18\Source\Source\DX_SDK\d3dx9math.inl

; 302  :     z = fz;

  005aa	f3 0f 11 65 f8	 movss	 DWORD PTR _vMax2$9[ebp+8], xmm4
; File C:\IAGOS\server\v18\Source\Source\_Common\MoverSkill.cpp

; 4049 : 						if( ::IsTouchAABB( vMin1, vMax1, vMin2, vMax2 ) )		// AABBĂćµą°Ë»ç.

  005af	50		 push	 eax
  005b0	e8 00 00 00 00	 call	 ?IsTouchAABB@@YAHABUD3DXVECTOR3@@000@Z ; IsTouchAABB
  005b5	83 c4 10	 add	 esp, 16			; 00000010H
$LN43@SendDamage:

; 4050 : 						{
; 4051 : 						//	if( pProp->dwComboStyle == CT_FINISH )
; 4052 : 						//		pTarget->m_pActMover->SendDamageForce( nDmgType, pAttacker->GetId(), (nAttackID << 16) );
; 4053 : 						//	else
; 4054 : 						//		pTarget->m_pActMover->SendDamage( nDmgType, pAttacker->GetId(), (nAttackID << 16) ); 					
; 4055 : 						}
; 4056 : 					}
; 4057 : 				} // bDamage
; 4058 : 			}
; 4059 : 		}
; 4060 : 		END_LINKMAP

  005b8	8b b6 80 01 00
	00		 mov	 esi, DWORD PTR [esi+384]
  005be	85 f6		 test	 esi, esi
  005c0	0f 85 00 ff ff
	ff		 jne	 $LL11@SendDamage
$LN195@SendDamage:
  005c6	8b 8d ac fe ff
	ff		 mov	 ecx, DWORD PTR tv1986[ebp]
  005cc	8b 95 98 fe ff
	ff		 mov	 edx, DWORD PTR tv2057[ebp]
$LN8@SendDamage:

; 4033 : 		FOR_LINKMAP( GetWorld(), vPos, pObj, nRange, CObj::linkPlayer, GetLayer() )

  005d2	83 c1 04	 add	 ecx, 4
  005d5	83 ea 01	 sub	 edx, 1
  005d8	89 8d ac fe ff
	ff		 mov	 DWORD PTR tv1986[ebp], ecx
  005de	89 95 98 fe ff
	ff		 mov	 DWORD PTR tv2057[ebp], edx
  005e4	0f 85 cd fe ff
	ff		 jne	 $LL10@SendDamage
  005ea	8b 95 94 fe ff
	ff		 mov	 edx, DWORD PTR __j$1$[ebp]
  005f0	8b 85 90 fe ff
	ff		 mov	 eax, DWORD PTR $T1[ebp]
  005f6	8b b5 84 fe ff
	ff		 mov	 esi, DWORD PTR __k$1$[ebp]
  005fc	8b bd 68 fe ff
	ff		 mov	 edi, DWORD PTR tv2002[ebp]
  00602	8b 8d a0 fe ff
	ff		 mov	 ecx, DWORD PTR __nMaxWidth$1$[ebp]
$LN5@SendDamage:
  00608	42		 inc	 edx
  00609	03 c1		 add	 eax, ecx
  0060b	89 95 94 fe ff
	ff		 mov	 DWORD PTR __j$1$[ebp], edx
  00611	89 85 90 fe ff
	ff		 mov	 DWORD PTR $T1[ebp], eax
  00617	3b 95 64 fe ff
	ff		 cmp	 edx, DWORD PTR tv2052[ebp]
  0061d	0f 8e 72 fe ff
	ff		 jle	 $LL7@SendDamage
$LN2@SendDamage:
  00623	8b bd 80 fe ff
	ff		 mov	 edi, DWORD PTR _this$GSCopy$1$[ebp]
  00629	8b b5 9c fe ff
	ff		 mov	 esi, DWORD PTR __i$1$[ebp]
  0062f	46		 inc	 esi
  00630	89 b5 9c fe ff
	ff		 mov	 DWORD PTR __i$1$[ebp], esi
  00636	ff b7 b8 01 00
	00		 push	 DWORD PTR [edi+440]
  0063c	8b 8f 6c 01 00
	00		 mov	 ecx, DWORD PTR [edi+364]
  00642	6a 02		 push	 2
  00644	83 c1 24	 add	 ecx, 36			; 00000024H
  00647	e8 00 00 00 00	 call	 ?GetMaxLinkLevel@CLayeredLinkMap@@QAEHKH@Z ; CLayeredLinkMap::GetMaxLinkLevel
  0064c	3b f0		 cmp	 esi, eax
  0064e	0f 8c dc fc ff
	ff		 jl	 $LL4@SendDamage
$LN197@SendDamage:

; 4061 : 	}
; 4062 : 
; 4063 : 	// Ŕűżë´ë»óŔĚ ¸ó˝şĹÍŔÎ°ˇ.
; 4064 : 	if( nApplyType & OBJTYPE_MONSTER )

  00654	8b 45 0c	 mov	 eax, DWORD PTR _nApplyType$[ebp]
  00657	f3 0f 10 85 58
	fe ff ff	 movss	 xmm0, DWORD PTR _vPos$[ebp]
  0065f	f3 0f 10 95 60
	fe ff ff	 movss	 xmm2, DWORD PTR _vPos$[ebp+8]
$LN3@SendDamage:
  00667	a8 02		 test	 al, 2
  00669	0f 84 57 04 00
	00		 je	 $LN14@SendDamage

; 4066 : 		FOR_LINKMAP( GetWorld(), vPos, pObj, nRange, CObj::linkDynamic, GetLayer() )

  0066f	8b 8f 6c 01 00
	00		 mov	 ecx, DWORD PTR [edi+364]
  00675	33 f6		 xor	 esi, esi
  00677	ff b7 b8 01 00
	00		 push	 DWORD PTR [edi+440]
  0067d	89 b5 a8 fe ff
	ff		 mov	 DWORD PTR __i$1$[ebp], esi
  00683	6a 01		 push	 1
  00685	66 0f 6e 49 14	 movd	 xmm1, DWORD PTR [ecx+20]
  0068a	83 c1 24	 add	 ecx, 36			; 00000024H
  0068d	0f 5b c9	 cvtdq2ps xmm1, xmm1
  00690	f3 0f 5e c1	 divss	 xmm0, xmm1
  00694	f3 0f 2c c0	 cvttss2si eax, xmm0
  00698	0f 28 c2	 movaps	 xmm0, xmm2
  0069b	f3 0f 5e c1	 divss	 xmm0, xmm1
  0069f	89 85 9c fe ff
	ff		 mov	 DWORD PTR __nLinkX$1$[ebp], eax
  006a5	f3 0f 2c c0	 cvttss2si eax, xmm0
  006a9	89 85 a0 fe ff
	ff		 mov	 DWORD PTR __nLinkZ$1$[ebp], eax
  006af	e8 00 00 00 00	 call	 ?GetMaxLinkLevel@CLayeredLinkMap@@QAEHKH@Z ; CLayeredLinkMap::GetMaxLinkLevel
  006b4	85 c0		 test	 eax, eax
  006b6	0f 8e 0a 04 00
	00		 jle	 $LN14@SendDamage
  006bc	f3 0f 2c 85 58
	fe ff ff	 cvttss2si eax, DWORD PTR _vPos$[ebp]
  006c4	8b 8d 9c fe ff
	ff		 mov	 ecx, DWORD PTR __nLinkX$1$[ebp]
  006ca	8b d1		 mov	 edx, ecx
  006cc	89 85 64 fe ff
	ff		 mov	 DWORD PTR tv2033[ebp], eax
  006d2	f3 0f 2c 85 60
	fe ff ff	 cvttss2si eax, DWORD PTR _vPos$[ebp+8]
  006da	89 85 68 fe ff
	ff		 mov	 DWORD PTR tv2031[ebp], eax
  006e0	8b 85 8c fe ff
	ff		 mov	 eax, DWORD PTR _nRange$1$[ebp]
  006e6	2b d0		 sub	 edx, eax
  006e8	89 95 6c fe ff
	ff		 mov	 DWORD PTR tv2020[ebp], edx
  006ee	03 c8		 add	 ecx, eax
  006f0	8b 95 a0 fe ff
	ff		 mov	 edx, DWORD PTR __nLinkZ$1$[ebp]
  006f6	89 95 ac fe ff
	ff		 mov	 DWORD PTR tv2018[ebp], edx
  006fc	29 85 ac fe ff
	ff		 sub	 DWORD PTR tv2018[ebp], eax
  00702	03 c2		 add	 eax, edx
  00704	89 8d 54 fe ff
	ff		 mov	 DWORD PTR tv2016[ebp], ecx
  0070a	89 85 74 fe ff
	ff		 mov	 DWORD PTR tv2014[ebp], eax
$LL15@SendDamage:
  00710	ff b7 b8 01 00
	00		 push	 DWORD PTR [edi+440]
; File C:\IAGOS\server\v18\Source\Source\_Common\Obj.h

; 221  : 	CWorld*			GetWorld()	{ return m_pWorld; }

  00716	8b 8f 6c 01 00
	00		 mov	 ecx, DWORD PTR [edi+364]
; File C:\IAGOS\server\v18\Source\Source\_Common\MoverSkill.cpp

; 4066 : 		FOR_LINKMAP( GetWorld(), vPos, pObj, nRange, CObj::linkDynamic, GetLayer() )

  0071c	56		 push	 esi
  0071d	6a 01		 push	 1
  0071f	83 c1 24	 add	 ecx, 36			; 00000024H
  00722	e8 00 00 00 00	 call	 ?GetLinkWidth@CLayeredLinkMap@@QAEHKHH@Z ; CLayeredLinkMap::GetLinkWidth
  00727	ff b7 b8 01 00
	00		 push	 DWORD PTR [edi+440]
; File C:\IAGOS\server\v18\Source\Source\_Common\Obj.h

; 221  : 	CWorld*			GetWorld()	{ return m_pWorld; }

  0072d	8b 8f 6c 01 00
	00		 mov	 ecx, DWORD PTR [edi+364]
; File C:\IAGOS\server\v18\Source\Source\_Common\MoverSkill.cpp

; 4066 : 		FOR_LINKMAP( GetWorld(), vPos, pObj, nRange, CObj::linkDynamic, GetLayer() )

  00733	8b f0		 mov	 esi, eax
  00735	ff b5 a8 fe ff
	ff		 push	 DWORD PTR __i$1$[ebp]
  0073b	83 c1 24	 add	 ecx, 36			; 00000024H
  0073e	6a 01		 push	 1
  00740	e8 00 00 00 00	 call	 ?GetObj@CLayeredLinkMap@@QAEPAPAVCObj@@KKH@Z ; CLayeredLinkMap::GetObj
  00745	8b 8f 6c 01 00
	00		 mov	 ecx, DWORD PTR [edi+364]
  0074b	8b fe		 mov	 edi, esi
  0074d	89 85 8c fe ff
	ff		 mov	 DWORD PTR __pObjs$1$[ebp], eax
  00753	8b 51 08	 mov	 edx, DWORD PTR [ecx+8]
  00756	8b 41 04	 mov	 eax, DWORD PTR [ecx+4]
  00759	0f af f8	 imul	 edi, eax
  0075c	0f af d6	 imul	 edx, esi
  0075f	c1 e0 07	 shl	 eax, 7
  00762	8b 71 14	 mov	 esi, DWORD PTR [ecx+20]
  00765	89 bd a4 fe ff
	ff		 mov	 DWORD PTR __nMaxWidth$1$[ebp], edi
  0076b	89 95 70 fe ff
	ff		 mov	 DWORD PTR tv1994[ebp], edx
  00771	99		 cdq
  00772	f7 ff		 idiv	 edi
  00774	8b f8		 mov	 edi, eax
  00776	0f af c6	 imul	 eax, esi
  00779	89 bd b0 fe ff
	ff		 mov	 DWORD PTR __nUnit$1$[ebp], edi
  0077f	99		 cdq
  00780	2b c2		 sub	 eax, edx
  00782	8b c8		 mov	 ecx, eax
  00784	8b 85 9c fe ff
	ff		 mov	 eax, DWORD PTR __nLinkX$1$[ebp]
  0078a	99		 cdq
  0078b	f7 ff		 idiv	 edi
  0078d	33 c0		 xor	 eax, eax
  0078f	d1 f9		 sar	 ecx, 1
  00791	2b 95 9c fe ff
	ff		 sub	 edx, DWORD PTR __nLinkX$1$[ebp]
  00797	0f af d6	 imul	 edx, esi
  0079a	03 95 64 fe ff
	ff		 add	 edx, DWORD PTR tv2033[ebp]
  007a0	3b d1		 cmp	 edx, ecx
  007a2	0f 9f c0	 setg	 al
  007a5	89 85 88 fe ff
	ff		 mov	 DWORD PTR __nX$1$[ebp], eax
  007ab	8b 85 a0 fe ff
	ff		 mov	 eax, DWORD PTR __nLinkZ$1$[ebp]
  007b1	99		 cdq
  007b2	f7 ff		 idiv	 edi
  007b4	33 c0		 xor	 eax, eax
  007b6	2b 95 a0 fe ff
	ff		 sub	 edx, DWORD PTR __nLinkZ$1$[ebp]
  007bc	0f af d6	 imul	 edx, esi
  007bf	03 95 68 fe ff
	ff		 add	 edx, DWORD PTR tv2031[ebp]
  007c5	3b d1		 cmp	 edx, ecx
  007c7	0f 9f c0	 setg	 al
  007ca	33 c9		 xor	 ecx, ecx
  007cc	89 85 7c fe ff
	ff		 mov	 DWORD PTR __nZ$1$[ebp], eax
  007d2	8b 85 6c fe ff
	ff		 mov	 eax, DWORD PTR tv2020[ebp]
  007d8	99		 cdq
  007d9	f7 ff		 idiv	 edi
  007db	8b b5 7c fe ff
	ff		 mov	 esi, DWORD PTR __nZ$1$[ebp]
  007e1	48		 dec	 eax
  007e2	03 85 88 fe ff
	ff		 add	 eax, DWORD PTR __nX$1$[ebp]
  007e8	0f 49 c8	 cmovns	 ecx, eax
  007eb	8b 85 ac fe ff
	ff		 mov	 eax, DWORD PTR tv2018[ebp]
  007f1	99		 cdq
  007f2	f7 ff		 idiv	 edi
  007f4	89 8d 84 fe ff
	ff		 mov	 DWORD PTR __k$1$[ebp], ecx
  007fa	8d 4e ff	 lea	 ecx, DWORD PTR [esi-1]
  007fd	03 c8		 add	 ecx, eax
  007ff	8b 85 54 fe ff
	ff		 mov	 eax, DWORD PTR tv2016[ebp]
  00805	99		 cdq
  00806	f7 ff		 idiv	 edi
  00808	8b 95 a4 fe ff
	ff		 mov	 edx, DWORD PTR __nMaxWidth$1$[ebp]
  0080e	03 85 88 fe ff
	ff		 add	 eax, DWORD PTR __nX$1$[ebp]
  00814	3b c2		 cmp	 eax, edx
  00816	8d 7a ff	 lea	 edi, DWORD PTR [edx-1]
  00819	0f 4c f8	 cmovl	 edi, eax
  0081c	8b 85 74 fe ff
	ff		 mov	 eax, DWORD PTR tv2014[ebp]
  00822	99		 cdq
  00823	f7 bd b0 fe ff
	ff		 idiv	 DWORD PTR __nUnit$1$[ebp]
  00829	8b 95 70 fe ff
	ff		 mov	 edx, DWORD PTR tv1994[ebp]
  0082f	89 bd 88 fe ff
	ff		 mov	 DWORD PTR tv1990[ebp], edi
  00835	03 c6		 add	 eax, esi
  00837	3b c2		 cmp	 eax, edx
  00839	8d 72 ff	 lea	 esi, DWORD PTR [edx-1]
  0083c	0f 4c f0	 cmovl	 esi, eax
  0083f	33 d2		 xor	 edx, edx
  00841	85 c9		 test	 ecx, ecx
  00843	89 b5 7c fe ff
	ff		 mov	 DWORD PTR tv2054[ebp], esi
  00849	0f 49 d1	 cmovns	 edx, ecx
  0084c	89 95 98 fe ff
	ff		 mov	 DWORD PTR __j$1$[ebp], edx
  00852	3b d6		 cmp	 edx, esi
  00854	0f 8f fe 01 00
	00		 jg	 $LN13@SendDamage
; File C:\IAGOS\server\v18\Source\Source\_Common\Obj.h

; 221  : 	CWorld*			GetWorld()	{ return m_pWorld; }

  0085a	8b 8d a4 fe ff
	ff		 mov	 ecx, DWORD PTR __nMaxWidth$1$[ebp]
  00860	8b c2		 mov	 eax, edx
  00862	8b b5 84 fe ff
	ff		 mov	 esi, DWORD PTR __k$1$[ebp]
  00868	0f af c1	 imul	 eax, ecx
  0086b	03 c6		 add	 eax, esi
  0086d	89 85 b0 fe ff
	ff		 mov	 DWORD PTR $T2[ebp], eax
$LL18@SendDamage:
; File C:\IAGOS\server\v18\Source\Source\_Common\MoverSkill.cpp

; 4066 : 		FOR_LINKMAP( GetWorld(), vPos, pObj, nRange, CObj::linkDynamic, GetLayer() )

  00873	3b f7		 cmp	 esi, edi
  00875	0f 8f c2 01 00
	00		 jg	 $LN16@SendDamage
  0087b	8b 8d 8c fe ff
	ff		 mov	 ecx, DWORD PTR __pObjs$1$[ebp]
  00881	8b d7		 mov	 edx, edi
  00883	2b d6		 sub	 edx, esi
  00885	42		 inc	 edx
  00886	89 95 94 fe ff
	ff		 mov	 DWORD PTR tv2053[ebp], edx
  0088c	8d 0c 81	 lea	 ecx, DWORD PTR [ecx+eax*4]
  0088f	89 8d 90 fe ff
	ff		 mov	 DWORD PTR tv1982[ebp], ecx
$LL21@SendDamage:
  00895	8b 31		 mov	 esi, DWORD PTR [ecx]
  00897	bf e8 03 00 00	 mov	 edi, 1000		; 000003e8H
  0089c	85 f6		 test	 esi, esi
  0089e	0f 84 63 01 00
	00		 je	 $LN19@SendDamage
$LL22@SendDamage:
  008a4	8b c7		 mov	 eax, edi
  008a6	4f		 dec	 edi
  008a7	85 c0		 test	 eax, eax
  008a9	0f 84 4c 01 00
	00		 je	 $LN196@SendDamage

; 4068 : 			if( pObj->GetType() == OT_MOVER && ((CMover *)pObj)->IsPeaceful() == FALSE )

  008af	83 be 70 01 00
	00 05		 cmp	 DWORD PTR [esi+368], 5
  008b6	0f 85 31 01 00
	00		 jne	 $LN53@SendDamage
; File C:\IAGOS\server\v18\Source\Source\_Common\Mover.h

; 1120 : 	BOOL			IsPeaceful() { return m_dwBelligerence == BELLI_PEACEFUL; }

  008bc	83 be 64 06 00
	00 01		 cmp	 DWORD PTR [esi+1636], 1
; File C:\IAGOS\server\v18\Source\Source\_Common\MoverSkill.cpp

; 4068 : 			if( pObj->GetType() == OT_MOVER && ((CMover *)pObj)->IsPeaceful() == FALSE )

  008c3	0f 84 24 01 00
	00		 je	 $LN53@SendDamage
; File C:\IAGOS\server\v18\Source\Source\_Common\Obj.h

; 180  : 	BOOL			IsDelete()	{ return (m_dwFlags & OBJ_FLAG_DELETE);  }

  008c9	f6 46 04 01	 test	 BYTE PTR [esi+4], 1

; 327  : 	return pObj && ( pObj->IsDelete() == FALSE ); 

  008cd	0f 85 1a 01 00
	00		 jne	 $LN53@SendDamage
; File C:\IAGOS\server\v18\Source\Source\_Common\Mover.h

; 1251 : 	BOOL			IsLive() { return m_pActMover->IsDie() == FALSE || m_nHitPoint > 0; }		// && ¸¦  ||·Î ąŮ˛ĺŔ˝.  !=¸¦ >·Î ąŮ˛Ţ

  008d3	8b 86 38 02 00
	00		 mov	 eax, DWORD PTR [esi+568]
  008d9	f7 40 04 00 00
	00 08		 test	 DWORD PTR [eax+4], 134217728 ; 08000000H
  008e0	74 0d		 je	 SHORT $LN189@SendDamage
  008e2	83 be f8 05 00
	00 00		 cmp	 DWORD PTR [esi+1528], 0
  008e9	0f 8e fe 00 00
	00		 jle	 $LN53@SendDamage
$LN189@SendDamage:
; File C:\IAGOS\server\v18\Source\Source\_Common\Obj.h

; 215  : 	D3DXVECTOR3		GetPos()	{ return m_vPos; }

  008ef	8b 86 68 01 00
	00		 mov	 eax, DWORD PTR [esi+360]
  008f5	f3 0f 7e 86 60
	01 00 00	 movq	 xmm0, QWORD PTR [esi+352]
  008fd	89 45 e0	 mov	 DWORD PTR $T3[ebp+8], eax
; File C:\IAGOS\server\v18\Source\Source\_Common\MoverSkill.cpp

; 4074 : 					D3DXVec3TransformCoord( &vDestLocal, &pTarget->GetPos(), &mInv );

  00900	8d 85 74 ff ff
	ff		 lea	 eax, DWORD PTR _mInv$[ebp]
  00906	50		 push	 eax
  00907	8d 45 d8	 lea	 eax, DWORD PTR $T3[ebp]
; File C:\IAGOS\server\v18\Source\Source\_Common\Obj.h

; 215  : 	D3DXVECTOR3		GetPos()	{ return m_vPos; }

  0090a	66 0f d6 45 d8	 movq	 QWORD PTR $T3[ebp], xmm0
; File C:\IAGOS\server\v18\Source\Source\_Common\MoverSkill.cpp

; 4074 : 					D3DXVec3TransformCoord( &vDestLocal, &pTarget->GetPos(), &mInv );

  0090f	50		 push	 eax
  00910	8d 45 cc	 lea	 eax, DWORD PTR _vDestLocal$[ebp]
  00913	50		 push	 eax
  00914	e8 00 00 00 00	 call	 _D3DXVec3TransformCoord@12

; 4075 : 					// Ĺ¸°ŮĂř AABB
; 4076 : 					D3DXVECTOR3 vMin2 = vDestLocal + pTarget->m_pModel->m_vMin;

  00919	8b 86 78 01 00
	00		 mov	 eax, DWORD PTR [esi+376]
; File C:\IAGOS\server\v18\Source\Source\DX_SDK\d3dx9math.inl

; 377  :     return D3DXVECTOR3(x + v.x, y + v.y, z + v.z);

  0091f	f3 0f 10 6d d0	 movss	 xmm5, DWORD PTR _vDestLocal$[ebp+4]
  00924	f3 0f 10 65 d4	 movss	 xmm4, DWORD PTR _vDestLocal$[ebp+8]
  00929	0f 28 d5	 movaps	 xmm2, xmm5
  0092c	f3 0f 10 5d cc	 movss	 xmm3, DWORD PTR _vDestLocal$[ebp]
  00931	0f 28 cc	 movaps	 xmm1, xmm4
  00934	f3 0f 58 50 7c	 addss	 xmm2, DWORD PTR [eax+124]
  00939	f3 0f 58 88 80
	00 00 00	 addss	 xmm1, DWORD PTR [eax+128]
  00941	0f 28 c3	 movaps	 xmm0, xmm3
  00944	f3 0f 58 40 78	 addss	 xmm0, DWORD PTR [eax+120]

; 301  :     y = fy;

  00949	f3 0f 11 55 f4	 movss	 DWORD PTR _vMin2$11[ebp+4], xmm2

; 302  :     z = fz;

  0094e	f3 0f 11 4d f8	 movss	 DWORD PTR _vMin2$11[ebp+8], xmm1
  00953	f3 0f 11 45 f0	 movss	 DWORD PTR _vMin2$11[ebp], xmm0

; 377  :     return D3DXVECTOR3(x + v.x, y + v.y, z + v.z);

  00958	f3 0f 58 a8 88
	00 00 00	 addss	 xmm5, DWORD PTR [eax+136]
  00960	f3 0f 58 a0 8c
	00 00 00	 addss	 xmm4, DWORD PTR [eax+140]
  00968	f3 0f 58 98 84
	00 00 00	 addss	 xmm3, DWORD PTR [eax+132]
; File C:\IAGOS\server\v18\Source\Source\_Common\MoverSkill.cpp

; 4078 : 					if( ::IsTouchAABB( vMin1, vMax1, vMin2, vMax2 ) )		// AABBĂćµą°Ë»ç.

  00970	8d 45 e4	 lea	 eax, DWORD PTR _vMax2$8[ebp]
  00973	50		 push	 eax
  00974	8d 45 f0	 lea	 eax, DWORD PTR _vMin2$11[ebp]
; File C:\IAGOS\server\v18\Source\Source\DX_SDK\d3dx9math.inl

; 301  :     y = fy;

  00977	f3 0f 11 6d e8	 movss	 DWORD PTR _vMax2$8[ebp+4], xmm5
; File C:\IAGOS\server\v18\Source\Source\_Common\MoverSkill.cpp

; 4078 : 					if( ::IsTouchAABB( vMin1, vMax1, vMin2, vMax2 ) )		// AABBĂćµą°Ë»ç.

  0097c	50		 push	 eax
  0097d	8d 45 b4	 lea	 eax, DWORD PTR _vMax1$[ebp]
; File C:\IAGOS\server\v18\Source\Source\DX_SDK\d3dx9math.inl

; 300  :     x = fx;

  00980	f3 0f 11 5d e4	 movss	 DWORD PTR _vMax2$8[ebp], xmm3
; File C:\IAGOS\server\v18\Source\Source\_Common\MoverSkill.cpp

; 4078 : 					if( ::IsTouchAABB( vMin1, vMax1, vMin2, vMax2 ) )		// AABBĂćµą°Ë»ç.

  00985	50		 push	 eax
  00986	8d 45 c0	 lea	 eax, DWORD PTR _vMin1$[ebp]
; File C:\IAGOS\server\v18\Source\Source\DX_SDK\d3dx9math.inl

; 302  :     z = fz;

  00989	f3 0f 11 65 ec	 movss	 DWORD PTR _vMax2$8[ebp+8], xmm4
; File C:\IAGOS\server\v18\Source\Source\_Common\MoverSkill.cpp

; 4078 : 					if( ::IsTouchAABB( vMin1, vMax1, vMin2, vMax2 ) )		// AABBĂćµą°Ë»ç.

  0098e	50		 push	 eax
  0098f	e8 00 00 00 00	 call	 ?IsTouchAABB@@YAHABUD3DXVECTOR3@@000@Z ; IsTouchAABB
  00994	83 c4 10	 add	 esp, 16			; 00000010H
  00997	85 c0		 test	 eax, eax
  00999	74 52		 je	 SHORT $LN53@SendDamage

; 4079 : 					{
; 4080 : 						if( pProp->dwComboStyle == CT_FINISH )

  0099b	8b 85 78 fe ff
	ff		 mov	 eax, DWORD PTR _pProp$1$[ebp]
  009a1	8b 95 50 fe ff
	ff		 mov	 edx, DWORD PTR _nAttackID$GSCopy$1$[ebp]
  009a7	8b 8e 38 02 00
	00		 mov	 ecx, DWORD PTR [esi+568]
  009ad	c1 e2 10	 shl	 edx, 16			; 00000010H
  009b0	83 b8 18 02 00
	00 03		 cmp	 DWORD PTR [eax+536], 3
  009b7	75 19		 jne	 SHORT $LN52@SendDamage

; 4081 : 							pTarget->m_pActMover->SendDamageForce( nDmgType, GetId(), (nAttackID << 16) );

  009b9	8b 85 80 fe ff
	ff		 mov	 eax, DWORD PTR _this$GSCopy$1$[ebp]
  009bf	6a 01		 push	 1
  009c1	52		 push	 edx
  009c2	ff b0 bc 01 00
	00		 push	 DWORD PTR [eax+444]
  009c8	ff 75 08	 push	 DWORD PTR _nDmgType$[ebp]
  009cb	e8 00 00 00 00	 call	 ?SendDamageForce@CActionMover@@QAEHKKHH@Z ; CActionMover::SendDamageForce
  009d0	eb 1b		 jmp	 SHORT $LN53@SendDamage
$LN52@SendDamage:
; File C:\IAGOS\server\v18\Source\Source\_AIInterface\ActionMover.h

; 134  : 	int				SendDamage( DWORD dwAtkFlags, OBJID idSender, int nParam = 0, BOOL bTarget = TRUE, int nReflect = 0 )	{	return SendActMsg( OBJMSG_DAMAGE, dwAtkFlags, idSender, nParam, bTarget, nReflect );	}

  009d2	8b 01		 mov	 eax, DWORD PTR [ecx]
  009d4	6a 00		 push	 0
  009d6	6a 01		 push	 1
  009d8	52		 push	 edx
  009d9	8b 95 80 fe ff
	ff		 mov	 edx, DWORD PTR _this$GSCopy$1$[ebp]
  009df	ff b2 bc 01 00
	00		 push	 DWORD PTR [edx+444]
  009e5	ff 75 08	 push	 DWORD PTR _nDmgType$[ebp]
  009e8	6a 29		 push	 41			; 00000029H
  009ea	ff 50 04	 call	 DWORD PTR [eax+4]
$LN53@SendDamage:
; File C:\IAGOS\server\v18\Source\Source\_Common\MoverSkill.cpp

; 4088 : 		END_LINKMAP

  009ed	8b b6 80 01 00
	00		 mov	 esi, DWORD PTR [esi+384]
  009f3	85 f6		 test	 esi, esi
  009f5	0f 85 a9 fe ff
	ff		 jne	 $LL22@SendDamage
$LN196@SendDamage:
  009fb	8b 8d 90 fe ff
	ff		 mov	 ecx, DWORD PTR tv1982[ebp]
  00a01	8b 95 94 fe ff
	ff		 mov	 edx, DWORD PTR tv2053[ebp]
$LN19@SendDamage:

; 4066 : 		FOR_LINKMAP( GetWorld(), vPos, pObj, nRange, CObj::linkDynamic, GetLayer() )

  00a07	83 c1 04	 add	 ecx, 4
  00a0a	83 ea 01	 sub	 edx, 1
  00a0d	89 8d 90 fe ff
	ff		 mov	 DWORD PTR tv1982[ebp], ecx
  00a13	89 95 94 fe ff
	ff		 mov	 DWORD PTR tv2053[ebp], edx
  00a19	0f 85 76 fe ff
	ff		 jne	 $LL21@SendDamage
  00a1f	8b 95 98 fe ff
	ff		 mov	 edx, DWORD PTR __j$1$[ebp]
  00a25	8b 85 b0 fe ff
	ff		 mov	 eax, DWORD PTR $T2[ebp]
  00a2b	8b b5 84 fe ff
	ff		 mov	 esi, DWORD PTR __k$1$[ebp]
  00a31	8b bd 88 fe ff
	ff		 mov	 edi, DWORD PTR tv1990[ebp]
  00a37	8b 8d a4 fe ff
	ff		 mov	 ecx, DWORD PTR __nMaxWidth$1$[ebp]
$LN16@SendDamage:
  00a3d	42		 inc	 edx
  00a3e	03 c1		 add	 eax, ecx
  00a40	89 95 98 fe ff
	ff		 mov	 DWORD PTR __j$1$[ebp], edx
  00a46	89 85 b0 fe ff
	ff		 mov	 DWORD PTR $T2[ebp], eax
  00a4c	3b 95 7c fe ff
	ff		 cmp	 edx, DWORD PTR tv2054[ebp]
  00a52	0f 8e 1b fe ff
	ff		 jle	 $LL18@SendDamage
$LN13@SendDamage:
; File C:\IAGOS\server\v18\Source\Source\_Common\Obj.h

; 221  : 	CWorld*			GetWorld()	{ return m_pWorld; }

  00a58	8b bd 80 fe ff
	ff		 mov	 edi, DWORD PTR _this$GSCopy$1$[ebp]
; File C:\IAGOS\server\v18\Source\Source\_Common\MoverSkill.cpp

; 4066 : 		FOR_LINKMAP( GetWorld(), vPos, pObj, nRange, CObj::linkDynamic, GetLayer() )

  00a5e	8b b5 a8 fe ff
	ff		 mov	 esi, DWORD PTR __i$1$[ebp]
  00a64	46		 inc	 esi
  00a65	89 b5 a8 fe ff
	ff		 mov	 DWORD PTR __i$1$[ebp], esi
  00a6b	ff b7 b8 01 00
	00		 push	 DWORD PTR [edi+440]
; File C:\IAGOS\server\v18\Source\Source\_Common\Obj.h

; 221  : 	CWorld*			GetWorld()	{ return m_pWorld; }

  00a71	8b 8f 6c 01 00
	00		 mov	 ecx, DWORD PTR [edi+364]
; File C:\IAGOS\server\v18\Source\Source\_Common\MoverSkill.cpp

; 4066 : 		FOR_LINKMAP( GetWorld(), vPos, pObj, nRange, CObj::linkDynamic, GetLayer() )

  00a77	6a 01		 push	 1
  00a79	83 c1 24	 add	 ecx, 36			; 00000024H
  00a7c	e8 00 00 00 00	 call	 ?GetMaxLinkLevel@CLayeredLinkMap@@QAEHKH@Z ; CLayeredLinkMap::GetMaxLinkLevel
  00a81	3b f0		 cmp	 esi, eax
  00a83	0f 8c 87 fc ff
	ff		 jl	 $LL15@SendDamage

; 4089 : 	}
; 4090 : 		
; 4091 : #endif // WORLDSERVER		
; 4092 : } // SendDamageLine()

  00a89	5f		 pop	 edi
  00a8a	5e		 pop	 esi
  00a8b	8b 4d fc	 mov	 ecx, DWORD PTR __$ArrayPad$[ebp]
  00a8e	33 cd		 xor	 ecx, ebp
  00a90	e8 00 00 00 00	 call	 @__security_check_cookie@4
  00a95	8b e5		 mov	 esp, ebp
  00a97	5d		 pop	 ebp
  00a98	c2 18 00	 ret	 24			; 00000018H
$LN138@SendDamage:
; File C:\IAGOS\server\v18\Source\Source\_Common\Project.h

; 579  : 	LPCTSTR szErr = Error( _T( "%s min:%d, max:%d, index:%d" ), szMsg, nMin, nMax, nIndex ); 

  00a9b	56		 push	 esi
  00a9c	50		 push	 eax
  00a9d	6a 00		 push	 0
  00a9f	68 00 00 00 00	 push	 OFFSET ??_C@_0BI@BEIFNGEL@GetItemProp?5range_error@
  00aa4	68 00 00 00 00	 push	 OFFSET ??_C@_0BM@HMFGHCP@?$CFs?5min?3?$CFd?0?5max?3?$CFd?0?5index?3?$CFd@
  00aa9	e8 00 00 00 00	 call	 ?Error@@YAPBDPBDZZ	; Error
  00aae	83 c4 14	 add	 esp, 20			; 00000014H
$LN193@SendDamage:
; File C:\IAGOS\server\v18\Source\Source\_Common\MoverSkill.cpp

; 4024 : 			Error( "CMover::SendDamageLine : %s. ľĆŔĚĹŰ(%d)ŔÇ ÇÁ·ÎĆŰĆĽ°ˇ ľ÷¤˛´Ů.", m_szName, nAttackID );

  00ab1	56		 push	 esi
  00ab2	8d 87 ec 14 00
	00		 lea	 eax, DWORD PTR [edi+5356]
  00ab8	50		 push	 eax
  00ab9	68 00 00 00 00	 push	 OFFSET ??_C@_0DN@LKDJCKJ@CMover?3?3SendDamageLine?5?3?5?$CFs?4?5?$LO?F@
$LN237@SendDamage:

; 4089 : 	}
; 4090 : 		
; 4091 : #endif // WORLDSERVER		
; 4092 : } // SendDamageLine()

  00abe	e8 00 00 00 00	 call	 ?Error@@YAPBDPBDZZ	; Error
  00ac3	83 c4 0c	 add	 esp, 12			; 0000000cH
$LN14@SendDamage:
  00ac6	8b 4d fc	 mov	 ecx, DWORD PTR __$ArrayPad$[ebp]
  00ac9	5f		 pop	 edi
  00aca	33 cd		 xor	 ecx, ebp
  00acc	5e		 pop	 esi
  00acd	e8 00 00 00 00	 call	 @__security_check_cookie@4
  00ad2	8b e5		 mov	 esp, ebp
  00ad4	5d		 pop	 ebp
  00ad5	c2 18 00	 ret	 24			; 00000018H
?SendDamageLine@CMover@@QAEXHHHMMM@Z ENDP		; CMover::SendDamageLine
_TEXT	ENDS
; Function compile flags: /Ogtp
; File C:\IAGOS\server\v18\Source\Source\_Common\MoverSkill.cpp
; File C:\IAGOS\server\v18\Source\Source\_Common\Obj.h
; File C:\IAGOS\server\v18\Source\Source\_Common\MoverSkill.cpp
; File C:\IAGOS\server\v18\Source\Source\_Common\Obj.h
; File C:\IAGOS\server\v18\Source\Source\_Common\MoverSkill.cpp
; File C:\IAGOS\server\v18\Source\Source\_Common\Project.h
; File C:\IAGOS\server\v18\Source\Source\_Common\data.h
; File C:\IAGOS\server\v18\Source\Source\_Common\MoverSkill.cpp
; File C:\IAGOS\server\v18\Source\Source\_Common\Project.h
; File C:\IAGOS\server\v18\Source\Source\_Common\MoverSkill.cpp
; File C:\IAGOS\server\v18\Source\Source\_Common\Project.h
; File C:\IAGOS\server\v18\Source\Source\_Common\data.h
; File C:\IAGOS\server\v18\Source\Source\_Common\MoverSkill.cpp
; File C:\IAGOS\server\v18\Source\Source\_Common\Obj.h
; File C:\IAGOS\server\v18\Source\Source\_Common\MoverSkill.cpp
; File C:\IAGOS\server\v18\Source\Source\_Common\Obj.h
; File C:\IAGOS\server\v18\Source\Source\_Common\MoverSkill.cpp
; File C:\IAGOS\server\v18\Source\Source\_Common\Obj.h
; File C:\IAGOS\server\v18\Source\Source\_Common\MoverSkill.cpp
; File C:\IAGOS\server\v18\Source\Source\_Common\Obj.h
; File C:\IAGOS\server\v18\Source\Source\DX_SDK\d3dx9math.inl
; File C:\IAGOS\server\v18\Source\Source\_Common\Obj.h
; File C:\IAGOS\server\v18\Source\Source\DX_SDK\d3dx9math.inl
; File C:\IAGOS\server\v18\Source\Source\_Common\MoverSkill.cpp
; File C:\IAGOS\server\v18\Source\Source\DX_SDK\d3dx9math.inl
; File C:\IAGOS\server\v18\Source\Source\_Common\MoverSkill.cpp
; File C:\IAGOS\server\v18\Source\Source\_Common\Obj.h
; File C:\IAGOS\server\v18\Source\Source\_AIInterface\Action.h
; File C:\IAGOS\server\v18\Source\Source\_Common\Mover.h
; File C:\IAGOS\server\v18\Source\Source\_Common\MoverSkill.cpp
; File C:\IAGOS\server\v18\Source\Source\_AIInterface\ActionMover.h
; File C:\IAGOS\server\v18\Source\Source\_Common\MoverSkill.cpp
; File C:\IAGOS\server\v18\Source\Source\_Common\Mover.h
; File C:\IAGOS\server\v18\Source\Source\_Common\MoverSkill.cpp
; File C:\IAGOS\server\v18\Source\Source\_Common\Obj.h
; File C:\IAGOS\server\v18\Source\Source\DX_SDK\d3dx9math.inl
; File C:\IAGOS\server\v18\Source\Source\_Common\Obj.h
; File C:\IAGOS\server\v18\Source\Source\DX_SDK\d3dx9math.inl
; File C:\IAGOS\server\v18\Source\Source\_Common\MoverSkill.cpp
; File C:\IAGOS\server\v18\Source\Source\DX_SDK\d3dx9math.inl
; File C:\IAGOS\server\v18\Source\Source\_Common\MoverSkill.cpp
; File C:\IAGOS\server\v18\Source\Source\DX_SDK\d3dx9math.inl
; File C:\IAGOS\server\v18\Source\Source\_Common\MoverSkill.cpp
; File C:\IAGOS\server\v18\Source\Source\_Common\Obj.h
; File C:\IAGOS\server\v18\Source\Source\_AIInterface\Action.h
; File C:\IAGOS\server\v18\Source\Source\_Common\Mover.h
; File C:\IAGOS\server\v18\Source\Source\_Common\MoverSkill.cpp
; File C:\IAGOS\server\v18\Source\Source\_AIInterface\ActionMover.h
; File C:\IAGOS\server\v18\Source\Source\_Common\MoverSkill.cpp
; File C:\IAGOS\server\v18\Source\Source\_Common\Project.h
; File C:\IAGOS\server\v18\Source\Source\_Common\MoverSkill.cpp
;	COMDAT ?SendDamageAround@CMover@@QAEXHPAV1@HHMMM@Z
_TEXT	SEGMENT
$T1 = -104						; size = 12
$T2 = -104						; size = 12
_vPos$ = -92						; size = 12
tv1882 = -80						; size = 4
__nLinkX$1$ = -80					; size = 4
__pObjs$1$ = -76					; size = 4
tv1900 = -76						; size = 4
tv1864 = -72						; size = 4
tv1904 = -72						; size = 4
__nX$1$ = -72						; size = 4
tv1898 = -68						; size = 4
tv1907 = -68						; size = 4
tv1895 = -64						; size = 4
tv1909 = -64						; size = 4
tv1893 = -60						; size = 4
tv1912 = -60						; size = 4
__nX$1$ = -56						; size = 4
__nLinkZ$1$ = -56					; size = 4
$T3 = -56						; size = 4
__j$1$ = -52						; size = 4
tv1850 = -52						; size = 4
tv1869 = -52						; size = 4
tv1886 = -52						; size = 4
tv1941 = -48						; size = 4
tv1931 = -48						; size = 4
__k$1$ = -44						; size = 4
__k$1$ = -44						; size = 4
tv1937 = -40						; size = 4
tv1938 = -40						; size = 4
tv1861 = -36						; size = 4
__j$1$ = -36						; size = 4
$T4 = -32						; size = 4
___limit$1$ = -32					; size = 4
__i$1$ = -28						; size = 4
__nLinkZ$1$ = -28					; size = 4
__nLinkX$1$ = -24					; size = 4
__pObjs$1$ = -24					; size = 4
_nRange$1$ = -20					; size = 4
__i$1$ = -16						; size = 4
__nMaxWidth$1$ = -12					; size = 4
_this$1$ = -8						; size = 4
_pProp$1$ = -4						; size = 4
_nDmgType$ = 8						; size = 4
_pAttacker$ = 12					; size = 4
_nApplyType$ = 16					; size = 4
__nMaxWidth$1$ = 16					; size = 4
_nAttackID$ = 20					; size = 4
_fRange$ = 24						; size = 4
_fTargetRatio$ = 28					; size = 4
_fAroundRatio$ = 32					; size = 4
?SendDamageAround@CMover@@QAEXHPAV1@HHMMM@Z PROC	; CMover::SendDamageAround, COMDAT
; _this$ = ecx

; 3834 : {

  00000	55		 push	 ebp
  00001	8b ec		 mov	 ebp, esp
  00003	83 ec 68	 sub	 esp, 104		; 00000068H

; 3843 : 	if( fRange <= 4.0f )

  00006	f3 0f 10 4d 18	 movss	 xmm1, DWORD PTR _fRange$[ebp]
  0000b	53		 push	 ebx
  0000c	8b d9		 mov	 ebx, ecx
  0000e	56		 push	 esi
  0000f	57		 push	 edi
  00010	89 5d f8	 mov	 DWORD PTR _this$1$[ebp], ebx
; File C:\IAGOS\server\v18\Source\Source\_Common\Obj.h

; 215  : 	D3DXVECTOR3		GetPos()	{ return m_vPos; }

  00013	f3 0f 7e 83 60
	01 00 00	 movq	 xmm0, QWORD PTR [ebx+352]
  0001b	8b 83 68 01 00
	00		 mov	 eax, DWORD PTR [ebx+360]
  00021	66 0f d6 45 a4	 movq	 QWORD PTR _vPos$[ebp], xmm0
; File C:\IAGOS\server\v18\Source\Source\_Common\MoverSkill.cpp

; 3843 : 	if( fRange <= 4.0f )

  00026	f3 0f 10 05 00
	00 00 00	 movss	 xmm0, DWORD PTR __real@40800000
  0002e	0f 2f c1	 comiss	 xmm0, xmm1
; File C:\IAGOS\server\v18\Source\Source\_Common\Obj.h

; 215  : 	D3DXVECTOR3		GetPos()	{ return m_vPos; }

  00031	89 45 ac	 mov	 DWORD PTR _vPos$[ebp+8], eax
; File C:\IAGOS\server\v18\Source\Source\_Common\MoverSkill.cpp

; 3843 : 	if( fRange <= 4.0f )

  00034	72 07		 jb	 SHORT $LN24@SendDamage

; 3844 : 		nRange = 4;

  00036	bf 04 00 00 00	 mov	 edi, 4
  0003b	eb 2c		 jmp	 SHORT $LN227@SendDamage
$LN24@SendDamage:

; 3845 : 	else if( fRange <= 8.0f )

  0003d	f3 0f 10 05 00
	00 00 00	 movss	 xmm0, DWORD PTR __real@41000000
  00045	0f 2f c1	 comiss	 xmm0, xmm1
  00048	72 07		 jb	 SHORT $LN26@SendDamage

; 3846 : 		nRange = 8;

  0004a	bf 08 00 00 00	 mov	 edi, 8
  0004f	eb 18		 jmp	 SHORT $LN227@SendDamage
$LN26@SendDamage:

; 3847 : 	else if( fRange <= 16.0f )

  00051	f3 0f 10 05 00
	00 00 00	 movss	 xmm0, DWORD PTR __real@41800000
  00059	bf 20 00 00 00	 mov	 edi, 32			; 00000020H
  0005e	0f 2f c1	 comiss	 xmm0, xmm1
  00061	b8 10 00 00 00	 mov	 eax, 16			; 00000010H
  00066	0f 43 f8	 cmovae	 edi, eax
$LN227@SendDamage:

; 3848 : 		nRange = 16;
; 3849 : 	else
; 3850 : 		nRange = 32;
; 3851 : 	
; 3852 : 	if( fRange <= 0 )	// ąüŔ§°ˇ 0ŔĚ°ĹłŞ Ŕ˝ĽöŔĎĽö´Â ľř´Ů.

  00069	8b 75 14	 mov	 esi, DWORD PTR _nAttackID$[ebp]
  0006c	0f 57 c0	 xorps	 xmm0, xmm0
  0006f	0f 2f c1	 comiss	 xmm0, xmm1
  00072	89 7d ec	 mov	 DWORD PTR _nRange$1$[ebp], edi
  00075	72 2e		 jb	 SHORT $LN30@SendDamage

; 3853 : 		Error( "CMover::SendDamageAround : D:%s A:%s %d %f", GetName(), pAttacker->GetName(), nAttackID, fRange );

  00077	8b 4d 0c	 mov	 ecx, DWORD PTR _pAttacker$[ebp]
  0007a	83 ec 08	 sub	 esp, 8
  0007d	0f 5a c1	 cvtps2pd xmm0, xmm1
  00080	f2 0f 11 04 24	 movsd	 QWORD PTR [esp], xmm0
  00085	56		 push	 esi
  00086	6a 00		 push	 0
  00088	e8 00 00 00 00	 call	 ?GetName@CMover@@QAEPBDH@Z ; CMover::GetName
  0008d	50		 push	 eax
  0008e	6a 00		 push	 0
  00090	8b cb		 mov	 ecx, ebx
  00092	e8 00 00 00 00	 call	 ?GetName@CMover@@QAEPBDH@Z ; CMover::GetName
  00097	50		 push	 eax
  00098	68 00 00 00 00	 push	 OFFSET ??_C@_0CL@JELFJLED@CMover?3?3SendDamageAround?5?3?5D?3?$CFs@
  0009d	e8 00 00 00 00	 call	 ?Error@@YAPBDPBDZZ	; Error
  000a2	83 c4 18	 add	 esp, 24			; 00000018H
$LN30@SendDamage:

; 3854 : 
; 3855 : 	ItemProp* pProp;
; 3856 : 	if( nDmgType == AF_MAGICSKILL )

  000a5	83 7d 08 20	 cmp	 DWORD PTR _nDmgType$[ebp], 32 ; 00000020H
  000a9	75 78		 jne	 SHORT $LN132@SendDamage
; File C:\IAGOS\server\v18\Source\Source\_Common\Project.h

; 1395 : 	VERIFY_RANGE( nIndex, 0, m_aPropSkill.GetSize(), "GetSkillProp range_error", NULL );

  000ab	a1 64 02 00 00	 mov	 eax, DWORD PTR ?prj@@3VCProject@@A+612
  000b0	85 f6		 test	 esi, esi
  000b2	78 3b		 js	 SHORT $LN122@SendDamage
  000b4	3b f0		 cmp	 esi, eax
  000b6	7d 37		 jge	 SHORT $LN122@SendDamage
; File C:\IAGOS\server\v18\Source\Source\_Common\data.h

; 270  : 	if( dwIndex >= (DWORD)m_nMaxIndex )

  000b8	72 04		 jb	 SHORT $LN127@SendDamage

; 271  : 		return NULL;

  000ba	33 c0		 xor	 eax, eax
  000bc	eb 08		 jmp	 SHORT $LN228@SendDamage
$LN127@SendDamage:

; 272  : 	return (T*) m_apOffset[ dwIndex ];

  000be	a1 54 02 00 00	 mov	 eax, DWORD PTR ?prj@@3VCProject@@A+596
  000c3	8b 04 b0	 mov	 eax, DWORD PTR [eax+esi*4]
$LN228@SendDamage:
; File C:\IAGOS\server\v18\Source\Source\_Common\MoverSkill.cpp

; 3859 : 		if( pProp == NULL )

  000c6	89 45 fc	 mov	 DWORD PTR _pProp$1$[ebp], eax
  000c9	85 c0		 test	 eax, eax
  000cb	0f 85 80 00 00
	00		 jne	 $LN34@SendDamage

; 3861 : 			Error( "CMover::SendDamageAround : %s. ˝şĹł(%d)ŔÇ ÇÁ·ÎĆŰĆĽ°ˇ ľ÷´Ů.", m_szName, nAttackID );

  000d1	56		 push	 esi
  000d2	8d 83 ec 14 00
	00		 lea	 eax, DWORD PTR [ebx+5356]
  000d8	50		 push	 eax
  000d9	68 00 00 00 00	 push	 OFFSET ??_C@_0DL@FEJEHPAL@CMover?3?3SendDamageAround?5?3?5?$CFs?4?5@

; 3948 : 	}
; 3949 : 		
; 3950 : #endif // WORLDSERVER		
; 3951 : } // SendDamageAround()

  000de	e8 00 00 00 00	 call	 ?Error@@YAPBDPBDZZ	; Error
  000e3	83 c4 0c	 add	 esp, 12			; 0000000cH
  000e6	5f		 pop	 edi
  000e7	5e		 pop	 esi
  000e8	5b		 pop	 ebx
  000e9	8b e5		 mov	 esp, ebp
  000eb	5d		 pop	 ebp
  000ec	c2 1c 00	 ret	 28			; 0000001cH
$LN122@SendDamage:
; File C:\IAGOS\server\v18\Source\Source\_Common\Project.h

; 579  : 	LPCTSTR szErr = Error( _T( "%s min:%d, max:%d, index:%d" ), szMsg, nMin, nMax, nIndex ); 

  000ef	56		 push	 esi
  000f0	50		 push	 eax
  000f1	6a 00		 push	 0
  000f3	68 00 00 00 00	 push	 OFFSET ??_C@_0BJ@GPNGCFMK@GetSkillProp?5range_error@
  000f8	68 00 00 00 00	 push	 OFFSET ??_C@_0BM@HMFGHCP@?$CFs?5min?3?$CFd?0?5max?3?$CFd?0?5index?3?$CFd@
  000fd	e8 00 00 00 00	 call	 ?Error@@YAPBDPBDZZ	; Error
  00102	83 c4 14	 add	 esp, 20			; 00000014H
; File C:\IAGOS\server\v18\Source\Source\_Common\MoverSkill.cpp

; 3861 : 			Error( "CMover::SendDamageAround : %s. ˝şĹł(%d)ŔÇ ÇÁ·ÎĆŰĆĽ°ˇ ľ÷´Ů.", m_szName, nAttackID );

  00105	8d 83 ec 14 00
	00		 lea	 eax, DWORD PTR [ebx+5356]
  0010b	56		 push	 esi
  0010c	50		 push	 eax
  0010d	68 00 00 00 00	 push	 OFFSET ??_C@_0DL@FEJEHPAL@CMover?3?3SendDamageAround?5?3?5?$CFs?4?5@

; 3948 : 	}
; 3949 : 		
; 3950 : #endif // WORLDSERVER		
; 3951 : } // SendDamageAround()

  00112	e8 00 00 00 00	 call	 ?Error@@YAPBDPBDZZ	; Error
  00117	83 c4 0c	 add	 esp, 12			; 0000000cH
  0011a	5f		 pop	 edi
  0011b	5e		 pop	 esi
  0011c	5b		 pop	 ebx
  0011d	8b e5		 mov	 esp, ebp
  0011f	5d		 pop	 ebp
  00120	c2 1c 00	 ret	 28			; 0000001cH
$LN132@SendDamage:
; File C:\IAGOS\server\v18\Source\Source\_Common\Project.h

; 1389 : 	VERIFY_RANGE_ASSERT( nIndex, 0, m_aPropItem.GetSize(), "GetItemProp range_error", NULL );

  00123	a1 40 02 00 00	 mov	 eax, DWORD PTR ?prj@@3VCProject@@A+576
  00128	85 f6		 test	 esi, esi
  0012a	0f 88 7f 06 00
	00		 js	 $LN134@SendDamage
  00130	3b f0		 cmp	 esi, eax
  00132	0f 8d 77 06 00
	00		 jge	 $LN134@SendDamage
; File C:\IAGOS\server\v18\Source\Source\_Common\data.h

; 270  : 	if( dwIndex >= (DWORD)m_nMaxIndex )

  00138	72 04		 jb	 SHORT $LN139@SendDamage

; 271  : 		return NULL;

  0013a	33 c0		 xor	 eax, eax
  0013c	eb 08		 jmp	 SHORT $LN230@SendDamage
$LN139@SendDamage:

; 272  : 	return (T*) m_apOffset[ dwIndex ];

  0013e	a1 30 02 00 00	 mov	 eax, DWORD PTR ?prj@@3VCProject@@A+560
  00143	8b 04 b0	 mov	 eax, DWORD PTR [eax+esi*4]
$LN230@SendDamage:
; File C:\IAGOS\server\v18\Source\Source\_Common\MoverSkill.cpp

; 3867 : 		if( pProp == NULL )

  00146	89 45 fc	 mov	 DWORD PTR _pProp$1$[ebp], eax
  00149	85 c0		 test	 eax, eax
  0014b	0f 84 74 06 00
	00		 je	 $LN177@SendDamage
$LN34@SendDamage:

; 3870 : 			return;	// property not found
; 3871 : 		}
; 3872 : 	}
; 3873 : 	
; 3874 : 	BOOL	bDamage = FALSE;
; 3875 : 	BOOL	bTarget = FALSE;
; 3876 : 
; 3877 : 	if( nApplyType & OBJTYPE_PLAYER )	// Ŕűżë´ë»óŔĚ ÇĂ·ąŔĚľîŔÎ°ˇ 

  00151	8b 45 10	 mov	 eax, DWORD PTR _nApplyType$[ebp]
  00154	f3 0f 10 55 ac	 movss	 xmm2, DWORD PTR _vPos$[ebp+8]
  00159	f3 0f 10 45 a4	 movss	 xmm0, DWORD PTR _vPos$[ebp]
  0015e	a8 01		 test	 al, 1
  00160	0f 84 24 03 00
	00		 je	 $LN3@SendDamage

; 3879 : 		FOR_LINKMAP( GetWorld(), vPos, pObj, nRange, CObj::linkPlayer, GetLayer() )

  00166	8b 8b 6c 01 00
	00		 mov	 ecx, DWORD PTR [ebx+364]
  0016c	33 f6		 xor	 esi, esi
  0016e	ff b3 b8 01 00
	00		 push	 DWORD PTR [ebx+440]
  00174	89 75 f0	 mov	 DWORD PTR __i$1$[ebp], esi
  00177	6a 02		 push	 2
  00179	66 0f 6e 49 14	 movd	 xmm1, DWORD PTR [ecx+20]
  0017e	83 c1 24	 add	 ecx, 36			; 00000024H
  00181	0f 5b c9	 cvtdq2ps xmm1, xmm1
  00184	f3 0f 5e c1	 divss	 xmm0, xmm1
  00188	f3 0f 2c c0	 cvttss2si eax, xmm0
  0018c	0f 28 c2	 movaps	 xmm0, xmm2
  0018f	f3 0f 5e c1	 divss	 xmm0, xmm1
  00193	89 45 e8	 mov	 DWORD PTR __nLinkX$1$[ebp], eax
  00196	f3 0f 2c c0	 cvttss2si eax, xmm0
  0019a	89 45 e4	 mov	 DWORD PTR __nLinkZ$1$[ebp], eax
  0019d	e8 00 00 00 00	 call	 ?GetMaxLinkLevel@CLayeredLinkMap@@QAEHKH@Z ; CLayeredLinkMap::GetMaxLinkLevel
  001a2	85 c0		 test	 eax, eax
  001a4	0f 8e d3 02 00
	00		 jle	 $LN181@SendDamage
  001aa	8b 45 e8	 mov	 eax, DWORD PTR __nLinkX$1$[ebp]
  001ad	8b c8		 mov	 ecx, eax
  001af	2b cf		 sub	 ecx, edi
  001b1	89 4d c4	 mov	 DWORD PTR tv1912[ebp], ecx
  001b4	8b 4d e4	 mov	 ecx, DWORD PTR __nLinkZ$1$[ebp]
  001b7	8b d1		 mov	 edx, ecx
  001b9	2b d7		 sub	 edx, edi
  001bb	03 c7		 add	 eax, edi
  001bd	89 45 bc	 mov	 DWORD PTR tv1907[ebp], eax
  001c0	89 55 c0	 mov	 DWORD PTR tv1909[ebp], edx
  001c3	8d 04 39	 lea	 eax, DWORD PTR [ecx+edi]
  001c6	89 45 b8	 mov	 DWORD PTR tv1904[ebp], eax
  001c9	0f 1f 80 00 00
	00 00		 npad	 7
$LL4@SendDamage:
  001d0	ff b3 b8 01 00
	00		 push	 DWORD PTR [ebx+440]
; File C:\IAGOS\server\v18\Source\Source\_Common\Obj.h

; 221  : 	CWorld*			GetWorld()	{ return m_pWorld; }

  001d6	8b 8b 6c 01 00
	00		 mov	 ecx, DWORD PTR [ebx+364]
; File C:\IAGOS\server\v18\Source\Source\_Common\MoverSkill.cpp

; 3879 : 		FOR_LINKMAP( GetWorld(), vPos, pObj, nRange, CObj::linkPlayer, GetLayer() )

  001dc	56		 push	 esi
  001dd	6a 02		 push	 2
  001df	83 c1 24	 add	 ecx, 36			; 00000024H
  001e2	e8 00 00 00 00	 call	 ?GetLinkWidth@CLayeredLinkMap@@QAEHKHH@Z ; CLayeredLinkMap::GetLinkWidth
  001e7	ff b3 b8 01 00
	00		 push	 DWORD PTR [ebx+440]
; File C:\IAGOS\server\v18\Source\Source\_Common\Obj.h

; 221  : 	CWorld*			GetWorld()	{ return m_pWorld; }

  001ed	8b 8b 6c 01 00
	00		 mov	 ecx, DWORD PTR [ebx+364]
; File C:\IAGOS\server\v18\Source\Source\_Common\MoverSkill.cpp

; 3879 : 		FOR_LINKMAP( GetWorld(), vPos, pObj, nRange, CObj::linkPlayer, GetLayer() )

  001f3	8b f0		 mov	 esi, eax
  001f5	ff 75 f0	 push	 DWORD PTR __i$1$[ebp]
  001f8	83 c1 24	 add	 ecx, 36			; 00000024H
  001fb	6a 02		 push	 2
  001fd	e8 00 00 00 00	 call	 ?GetObj@CLayeredLinkMap@@QAEPAPAVCObj@@KKH@Z ; CLayeredLinkMap::GetObj
  00202	8b 8b 6c 01 00
	00		 mov	 ecx, DWORD PTR [ebx+364]
  00208	89 45 b4	 mov	 DWORD PTR __pObjs$1$[ebp], eax
  0020b	8b 51 08	 mov	 edx, DWORD PTR [ecx+8]
  0020e	8b 41 04	 mov	 eax, DWORD PTR [ecx+4]
  00211	8b d8		 mov	 ebx, eax
  00213	0f af d6	 imul	 edx, esi
  00216	c1 e0 07	 shl	 eax, 7
  00219	0f af de	 imul	 ebx, esi
  0021c	8b 71 14	 mov	 esi, DWORD PTR [ecx+20]
  0021f	89 55 cc	 mov	 DWORD PTR tv1886[ebp], edx
  00222	99		 cdq
  00223	f7 fb		 idiv	 ebx
  00225	89 5d f4	 mov	 DWORD PTR __nMaxWidth$1$[ebp], ebx
  00228	8b f8		 mov	 edi, eax
  0022a	8b c6		 mov	 eax, esi
  0022c	0f af c7	 imul	 eax, edi
  0022f	99		 cdq
  00230	2b c2		 sub	 eax, edx
  00232	8b c8		 mov	 ecx, eax
  00234	8b 45 e8	 mov	 eax, DWORD PTR __nLinkX$1$[ebp]
  00237	99		 cdq
  00238	f7 ff		 idiv	 edi
  0023a	f3 0f 2c 45 a4	 cvttss2si eax, DWORD PTR _vPos$[ebp]
  0023f	2b 55 e8	 sub	 edx, DWORD PTR __nLinkX$1$[ebp]
  00242	d1 f9		 sar	 ecx, 1
  00244	0f af d6	 imul	 edx, esi
  00247	03 d0		 add	 edx, eax
  00249	33 c0		 xor	 eax, eax
  0024b	3b d1		 cmp	 edx, ecx
  0024d	0f 9f c0	 setg	 al
  00250	33 db		 xor	 ebx, ebx
  00252	89 45 c8	 mov	 DWORD PTR __nX$1$[ebp], eax
  00255	8b 45 e4	 mov	 eax, DWORD PTR __nLinkZ$1$[ebp]
  00258	99		 cdq
  00259	f7 ff		 idiv	 edi
  0025b	f3 0f 2c 45 ac	 cvttss2si eax, DWORD PTR _vPos$[ebp+8]
  00260	2b 55 e4	 sub	 edx, DWORD PTR __nLinkZ$1$[ebp]
  00263	0f af d6	 imul	 edx, esi
  00266	03 d0		 add	 edx, eax
  00268	8b 45 c4	 mov	 eax, DWORD PTR tv1912[ebp]
  0026b	3b d1		 cmp	 edx, ecx
  0026d	99		 cdq
  0026e	0f 9f c3	 setg	 bl
  00271	33 c9		 xor	 ecx, ecx
  00273	f7 ff		 idiv	 edi
  00275	48		 dec	 eax
  00276	03 45 c8	 add	 eax, DWORD PTR __nX$1$[ebp]
  00279	0f 49 c8	 cmovns	 ecx, eax
  0027c	8b 45 c0	 mov	 eax, DWORD PTR tv1909[ebp]
  0027f	99		 cdq
  00280	f7 ff		 idiv	 edi
  00282	89 4d d4	 mov	 DWORD PTR __k$1$[ebp], ecx
  00285	8d 4b ff	 lea	 ecx, DWORD PTR [ebx-1]
  00288	03 c8		 add	 ecx, eax
  0028a	8b 45 bc	 mov	 eax, DWORD PTR tv1907[ebp]
  0028d	99		 cdq
  0028e	f7 ff		 idiv	 edi
  00290	8b 55 f4	 mov	 edx, DWORD PTR __nMaxWidth$1$[ebp]
  00293	03 45 c8	 add	 eax, DWORD PTR __nX$1$[ebp]
  00296	3b c2		 cmp	 eax, edx
  00298	8d 72 ff	 lea	 esi, DWORD PTR [edx-1]
  0029b	0f 4c f0	 cmovl	 esi, eax
  0029e	8b 45 b8	 mov	 eax, DWORD PTR tv1904[ebp]
  002a1	99		 cdq
  002a2	f7 ff		 idiv	 edi
  002a4	8b 55 cc	 mov	 edx, DWORD PTR tv1886[ebp]
  002a7	89 75 b0	 mov	 DWORD PTR tv1882[ebp], esi
  002aa	03 c3		 add	 eax, ebx
  002ac	3b c2		 cmp	 eax, edx
  002ae	8d 5a ff	 lea	 ebx, DWORD PTR [edx-1]
  002b1	0f 4c d8	 cmovl	 ebx, eax
  002b4	33 d2		 xor	 edx, edx
  002b6	85 c9		 test	 ecx, ecx
  002b8	89 5d d0	 mov	 DWORD PTR tv1931[ebp], ebx
  002bb	0f 49 d1	 cmovns	 edx, ecx
  002be	89 55 cc	 mov	 DWORD PTR __j$1$[ebp], edx
  002c1	3b d3		 cmp	 edx, ebx
  002c3	0f 8f 8c 01 00
	00		 jg	 $LN2@SendDamage
; File C:\IAGOS\server\v18\Source\Source\_Common\Obj.h

; 221  : 	CWorld*			GetWorld()	{ return m_pWorld; }

  002c9	8b 4d d4	 mov	 ecx, DWORD PTR __k$1$[ebp]
  002cc	8b c2		 mov	 eax, edx
  002ce	0f af 45 f4	 imul	 eax, DWORD PTR __nMaxWidth$1$[ebp]
  002d2	8b 5d f4	 mov	 ebx, DWORD PTR __nMaxWidth$1$[ebp]
  002d5	8b 7d d0	 mov	 edi, DWORD PTR tv1931[ebp]
  002d8	03 c1		 add	 eax, ecx
  002da	89 45 c8	 mov	 DWORD PTR $T3[ebp], eax
  002dd	0f 1f 00	 npad	 3
$LL7@SendDamage:
; File C:\IAGOS\server\v18\Source\Source\_Common\MoverSkill.cpp

; 3879 : 		FOR_LINKMAP( GetWorld(), vPos, pObj, nRange, CObj::linkPlayer, GetLayer() )

  002e0	3b ce		 cmp	 ecx, esi
  002e2	0f 8f 5c 01 00
	00		 jg	 $LN5@SendDamage
  002e8	8b 55 b4	 mov	 edx, DWORD PTR __pObjs$1$[ebp]
  002eb	8b de		 mov	 ebx, esi
  002ed	2b d9		 sub	 ebx, ecx
  002ef	43		 inc	 ebx
  002f0	89 5d d8	 mov	 DWORD PTR tv1938[ebp], ebx
  002f3	8d 14 82	 lea	 edx, DWORD PTR [edx+eax*4]
  002f6	89 55 dc	 mov	 DWORD PTR tv1861[ebp], edx
  002f9	0f 1f 80 00 00
	00 00		 npad	 7
$LL10@SendDamage:
  00300	8b 32		 mov	 esi, DWORD PTR [edx]
  00302	b9 e8 03 00 00	 mov	 ecx, 1000		; 000003e8H
  00307	85 f6		 test	 esi, esi
  00309	0f 84 11 01 00
	00		 je	 $LN8@SendDamage
  0030f	90		 npad	 1
$LL11@SendDamage:
  00310	8b c1		 mov	 eax, ecx
  00312	49		 dec	 ecx
  00313	89 4d e0	 mov	 DWORD PTR ___limit$1$[ebp], ecx
  00316	85 c0		 test	 eax, eax
  00318	0f 84 fc 00 00
	00		 je	 $LN179@SendDamage

; 3880 : 		{
; 3881 : 			if( pObj->GetType() == OT_MOVER )

  0031e	83 be 70 01 00
	00 05		 cmp	 DWORD PTR [esi+368], 5
  00325	0f 85 e1 00 00
	00		 jne	 $LN48@SendDamage
; File C:\IAGOS\server\v18\Source\Source\_Common\Obj.h

; 215  : 	D3DXVECTOR3		GetPos()	{ return m_vPos; }

  0032b	f3 0f 7e 86 60
	01 00 00	 movq	 xmm0, QWORD PTR [esi+352]
  00333	8b 86 68 01 00
	00		 mov	 eax, DWORD PTR [esi+360]
  00339	66 0f d6 45 98	 movq	 QWORD PTR $T1[ebp], xmm0
; File C:\IAGOS\server\v18\Source\Source\DX_SDK\d3dx9math.inl

; 383  :     return D3DXVECTOR3(x - v.x, y - v.y, z - v.z);

  0033e	f3 0f 10 4d 98	 movss	 xmm1, DWORD PTR $T1[ebp]
  00343	f3 0f 10 55 9c	 movss	 xmm2, DWORD PTR $T1[ebp+4]
  00348	f3 0f 5c 55 a8	 subss	 xmm2, DWORD PTR _vPos$[ebp+4]
  0034d	f3 0f 5c 4d a4	 subss	 xmm1, DWORD PTR _vPos$[ebp]
; File C:\IAGOS\server\v18\Source\Source\_Common\Obj.h

; 215  : 	D3DXVECTOR3		GetPos()	{ return m_vPos; }

  00352	89 45 a0	 mov	 DWORD PTR $T1[ebp+8], eax
; File C:\IAGOS\server\v18\Source\Source\DX_SDK\d3dx9math.inl

; 383  :     return D3DXVECTOR3(x - v.x, y - v.y, z - v.z);

  00355	f3 0f 10 45 a0	 movss	 xmm0, DWORD PTR $T1[ebp+8]
  0035a	f3 0f 5c 45 ac	 subss	 xmm0, DWORD PTR _vPos$[ebp+8]
; File C:\IAGOS\server\v18\Source\Source\_Common\MoverSkill.cpp

; 3887 : 					vDist = pObj->GetPos() - vPos;		// this -> Ĺ¸°Ů±îÁöŔÇ ş¤ĹÍ

  0035f	f3 0f 59 d2	 mulss	 xmm2, xmm2
; File C:\IAGOS\server\v18\Source\Source\DX_SDK\d3dx9math.inl

; 1698 :     return pV->x * pV->x + pV->y * pV->y + pV->z * pV->z;

  00363	f3 0f 59 c9	 mulss	 xmm1, xmm1
  00367	f3 0f 59 c0	 mulss	 xmm0, xmm0
  0036b	f3 0f 58 d1	 addss	 xmm2, xmm1
  0036f	f3 0f 58 d0	 addss	 xmm2, xmm0
; File C:\IAGOS\server\v18\Source\Source\_Common\MoverSkill.cpp

; 3889 : 					if( fDistSq < fRange * fRange )		// Ĺ¸°Ů°úŔÇ °Ĺ¸®°ˇ fRangeąĚĹÍ ŔĚł»ŔÎ°ÍŔ» ´ë»óŔ¸·Î.

  00373	f3 0f 10 45 18	 movss	 xmm0, DWORD PTR _fRange$[ebp]
  00378	f3 0f 59 c0	 mulss	 xmm0, xmm0
  0037c	0f 2f c2	 comiss	 xmm0, xmm2
  0037f	0f 86 87 00 00
	00		 jbe	 $LN48@SendDamage

; 3890 : 					{
; 3891 : 						if( pObj == this && fTargetRatio == 0.0f )	// Ĺ¸°ŮµĄąĚÁö şńŔ˛ŔĚ 0ŔĚ¸é ŔÚ±âŔÚ˝Ĺ(Ĺ¸°Ů)Ŕş µĄąĚÁö¸¦ ÁÖÁöľĘŔ˝.

  00385	8b 45 f8	 mov	 eax, DWORD PTR _this$1$[ebp]
  00388	3b f0		 cmp	 esi, eax
  0038a	75 15		 jne	 SHORT $LN43@SendDamage
  0038c	f3 0f 10 45 1c	 movss	 xmm0, DWORD PTR _fTargetRatio$[ebp]
  00391	0f 2e 05 00 00
	00 00		 ucomiss xmm0, DWORD PTR __real@00000000
  00398	9f		 lahf
  00399	f6 c4 44	 test	 ah, 68			; 00000044H
  0039c	7b 6e		 jnp	 SHORT $LN48@SendDamage
  0039e	8b 45 f8	 mov	 eax, DWORD PTR _this$1$[ebp]
$LN43@SendDamage:

; 3892 : 						{
; 3893 : 						} else
; 3894 : 						{
; 3895 : 							if( pObj != pAttacker )		// ľîĹÂÄż´Â °Ë»ö´ë»óżˇĽ­ Á¦żÜ.

  003a1	8b 5d 0c	 mov	 ebx, DWORD PTR _pAttacker$[ebp]
  003a4	3b f3		 cmp	 esi, ebx
  003a6	74 64		 je	 SHORT $LN48@SendDamage

; 3896 : 							{
; 3897 : 								pTarget = (CMover *)pObj;
; 3898 : 								bTarget = ( pTarget == this );

  003a8	33 d2		 xor	 edx, edx
  003aa	3b f0		 cmp	 esi, eax
  003ac	0f 94 c2	 sete	 dl
; File C:\IAGOS\server\v18\Source\Source\_Common\Obj.h

; 180  : 	BOOL			IsDelete()	{ return (m_dwFlags & OBJ_FLAG_DELETE);  }

  003af	f6 46 04 01	 test	 BYTE PTR [esi+4], 1

; 327  : 	return pObj && ( pObj->IsDelete() == FALSE ); 

  003b3	75 57		 jne	 SHORT $LN48@SendDamage
; File C:\IAGOS\server\v18\Source\Source\_AIInterface\Action.h

; 310  : 	BOOL			IsDie() { return (m_dwState & OBJSTA_DIE_ALL) ? TRUE : FALSE; }

  003b5	8b be 38 02 00
	00		 mov	 edi, DWORD PTR [esi+568]
; File C:\IAGOS\server\v18\Source\Source\_Common\Mover.h

; 1251 : 	BOOL			IsLive() { return m_pActMover->IsDie() == FALSE || m_nHitPoint > 0; }		// && ¸¦  ||·Î ąŮ˛ĺŔ˝.  !=¸¦ >·Î ąŮ˛Ţ

  003bb	f7 47 04 00 00
	00 08		 test	 DWORD PTR [edi+4], 134217728 ; 08000000H
  003c2	74 09		 je	 SHORT $LN175@SendDamage
  003c4	83 be f8 05 00
	00 00		 cmp	 DWORD PTR [esi+1528], 0
  003cb	7e 3f		 jle	 SHORT $LN48@SendDamage
$LN175@SendDamage:
; File C:\IAGOS\server\v18\Source\Source\_Common\MoverSkill.cpp

; 3901 : 									if( pProp->dwComboStyle == CT_FINISH )

  003cd	8b 45 fc	 mov	 eax, DWORD PTR _pProp$1$[ebp]
  003d0	8b 4d 14	 mov	 ecx, DWORD PTR _nAttackID$[ebp]
  003d3	c1 e1 10	 shl	 ecx, 16			; 00000010H
  003d6	83 b8 18 02 00
	00 03		 cmp	 DWORD PTR [eax+536], 3
  003dd	75 14		 jne	 SHORT $LN47@SendDamage

; 3902 : 										pTarget->m_pActMover->SendDamageForce( nDmgType, pAttacker->GetId(), (nAttackID << 16), bTarget );

  003df	52		 push	 edx
  003e0	51		 push	 ecx
  003e1	ff b3 bc 01 00
	00		 push	 DWORD PTR [ebx+444]
  003e7	8b cf		 mov	 ecx, edi
  003e9	ff 75 08	 push	 DWORD PTR _nDmgType$[ebp]
  003ec	e8 00 00 00 00	 call	 ?SendDamageForce@CActionMover@@QAEHKKHH@Z ; CActionMover::SendDamageForce
  003f1	eb 16		 jmp	 SHORT $LN231@SendDamage
$LN47@SendDamage:
; File C:\IAGOS\server\v18\Source\Source\_AIInterface\ActionMover.h

; 134  : 	int				SendDamage( DWORD dwAtkFlags, OBJID idSender, int nParam = 0, BOOL bTarget = TRUE, int nReflect = 0 )	{	return SendActMsg( OBJMSG_DAMAGE, dwAtkFlags, idSender, nParam, bTarget, nReflect );	}

  003f3	8b 07		 mov	 eax, DWORD PTR [edi]
  003f5	6a 00		 push	 0
  003f7	52		 push	 edx
  003f8	51		 push	 ecx
  003f9	ff b3 bc 01 00
	00		 push	 DWORD PTR [ebx+444]
  003ff	8b cf		 mov	 ecx, edi
  00401	ff 75 08	 push	 DWORD PTR _nDmgType$[ebp]
  00404	6a 29		 push	 41			; 00000029H
  00406	ff 50 04	 call	 DWORD PTR [eax+4]
$LN231@SendDamage:
; File C:\IAGOS\server\v18\Source\Source\_Common\MoverSkill.cpp

; 3914 : 		END_LINKMAP

  00409	8b 4d e0	 mov	 ecx, DWORD PTR ___limit$1$[ebp]
$LN48@SendDamage:
  0040c	8b b6 80 01 00
	00		 mov	 esi, DWORD PTR [esi+384]
  00412	85 f6		 test	 esi, esi
  00414	0f 85 f6 fe ff
	ff		 jne	 $LL11@SendDamage
$LN179@SendDamage:
  0041a	8b 55 dc	 mov	 edx, DWORD PTR tv1861[ebp]
  0041d	8b 5d d8	 mov	 ebx, DWORD PTR tv1938[ebp]
$LN8@SendDamage:

; 3879 : 		FOR_LINKMAP( GetWorld(), vPos, pObj, nRange, CObj::linkPlayer, GetLayer() )

  00420	83 c2 04	 add	 edx, 4
  00423	83 eb 01	 sub	 ebx, 1
  00426	89 55 dc	 mov	 DWORD PTR tv1861[ebp], edx
  00429	89 5d d8	 mov	 DWORD PTR tv1938[ebp], ebx
  0042c	0f 85 ce fe ff
	ff		 jne	 $LL10@SendDamage
  00432	8b 55 cc	 mov	 edx, DWORD PTR __j$1$[ebp]
  00435	8b 45 c8	 mov	 eax, DWORD PTR $T3[ebp]
  00438	8b 4d d4	 mov	 ecx, DWORD PTR __k$1$[ebp]
  0043b	8b 75 b0	 mov	 esi, DWORD PTR tv1882[ebp]
  0043e	8b 5d f4	 mov	 ebx, DWORD PTR __nMaxWidth$1$[ebp]
  00441	8b 7d d0	 mov	 edi, DWORD PTR tv1931[ebp]
$LN5@SendDamage:
  00444	42		 inc	 edx
  00445	03 c3		 add	 eax, ebx
  00447	89 55 cc	 mov	 DWORD PTR __j$1$[ebp], edx
  0044a	89 45 c8	 mov	 DWORD PTR $T3[ebp], eax
  0044d	3b d7		 cmp	 edx, edi
  0044f	0f 8e 8b fe ff
	ff		 jle	 $LL7@SendDamage
$LN2@SendDamage:
  00455	8b 5d f8	 mov	 ebx, DWORD PTR _this$1$[ebp]
  00458	8b 75 f0	 mov	 esi, DWORD PTR __i$1$[ebp]
  0045b	46		 inc	 esi
  0045c	89 75 f0	 mov	 DWORD PTR __i$1$[ebp], esi
  0045f	ff b3 b8 01 00
	00		 push	 DWORD PTR [ebx+440]
  00465	8b 8b 6c 01 00
	00		 mov	 ecx, DWORD PTR [ebx+364]
  0046b	6a 02		 push	 2
  0046d	83 c1 24	 add	 ecx, 36			; 00000024H
  00470	e8 00 00 00 00	 call	 ?GetMaxLinkLevel@CLayeredLinkMap@@QAEHKH@Z ; CLayeredLinkMap::GetMaxLinkLevel
  00475	3b f0		 cmp	 esi, eax
  00477	0f 8c 53 fd ff
	ff		 jl	 $LL4@SendDamage
$LN181@SendDamage:

; 3915 : 	}
; 3916 : 
; 3917 : 	// Ŕűżë´ë»óŔĚ ¸ó˝şĹÍŔÎ°ˇ.
; 3918 : 	if( nApplyType & OBJTYPE_MONSTER )

  0047d	8b 45 10	 mov	 eax, DWORD PTR _nApplyType$[ebp]
  00480	f3 0f 10 45 a4	 movss	 xmm0, DWORD PTR _vPos$[ebp]
  00485	f3 0f 10 55 ac	 movss	 xmm2, DWORD PTR _vPos$[ebp+8]
$LN3@SendDamage:
  0048a	a8 02		 test	 al, 2
  0048c	0f 84 48 03 00
	00		 je	 $LN14@SendDamage

; 3919 : 	{
; 3920 : 		FOR_LINKMAP( GetWorld(), vPos, pObj, nRange, CObj::linkDynamic, GetLayer() )

  00492	8b 8b 6c 01 00
	00		 mov	 ecx, DWORD PTR [ebx+364]
  00498	33 ff		 xor	 edi, edi
  0049a	ff b3 b8 01 00
	00		 push	 DWORD PTR [ebx+440]
  004a0	89 7d e4	 mov	 DWORD PTR __i$1$[ebp], edi
  004a3	6a 01		 push	 1
  004a5	66 0f 6e 49 14	 movd	 xmm1, DWORD PTR [ecx+20]
  004aa	83 c1 24	 add	 ecx, 36			; 00000024H
  004ad	0f 5b c9	 cvtdq2ps xmm1, xmm1
  004b0	f3 0f 5e c1	 divss	 xmm0, xmm1
  004b4	f3 0f 2c f0	 cvttss2si esi, xmm0
  004b8	0f 28 c2	 movaps	 xmm0, xmm2
  004bb	f3 0f 5e c1	 divss	 xmm0, xmm1
  004bf	89 75 b0	 mov	 DWORD PTR __nLinkX$1$[ebp], esi
  004c2	f3 0f 2c c0	 cvttss2si eax, xmm0
  004c6	89 45 c8	 mov	 DWORD PTR __nLinkZ$1$[ebp], eax
  004c9	e8 00 00 00 00	 call	 ?GetMaxLinkLevel@CLayeredLinkMap@@QAEHKH@Z ; CLayeredLinkMap::GetMaxLinkLevel
  004ce	85 c0		 test	 eax, eax
  004d0	0f 8e 04 03 00
	00		 jle	 $LN14@SendDamage
  004d6	8b 45 ec	 mov	 eax, DWORD PTR _nRange$1$[ebp]
  004d9	8b ce		 mov	 ecx, esi
  004db	8b 55 c8	 mov	 edx, DWORD PTR __nLinkZ$1$[ebp]
  004de	2b c8		 sub	 ecx, eax
  004e0	2b d0		 sub	 edx, eax
  004e2	89 4d b4	 mov	 DWORD PTR tv1900[ebp], ecx
  004e5	89 55 bc	 mov	 DWORD PTR tv1898[ebp], edx
  004e8	8d 14 06	 lea	 edx, DWORD PTR [esi+eax]
  004eb	03 45 c8	 add	 eax, DWORD PTR __nLinkZ$1$[ebp]
  004ee	89 55 c0	 mov	 DWORD PTR tv1895[ebp], edx
  004f1	89 45 c4	 mov	 DWORD PTR tv1893[ebp], eax
  004f4	0f 1f 40 00 0f
	1f 84 00 00 00
	00 00		 npad	 12
$LL15@SendDamage:
  00500	ff b3 b8 01 00
	00		 push	 DWORD PTR [ebx+440]
  00506	8b 8b 6c 01 00
	00		 mov	 ecx, DWORD PTR [ebx+364]
  0050c	57		 push	 edi
  0050d	6a 01		 push	 1
  0050f	83 c1 24	 add	 ecx, 36			; 00000024H
  00512	e8 00 00 00 00	 call	 ?GetLinkWidth@CLayeredLinkMap@@QAEHKHH@Z ; CLayeredLinkMap::GetLinkWidth
  00517	ff b3 b8 01 00
	00		 push	 DWORD PTR [ebx+440]
  0051d	8b 8b 6c 01 00
	00		 mov	 ecx, DWORD PTR [ebx+364]
  00523	8b f0		 mov	 esi, eax
  00525	57		 push	 edi
  00526	6a 01		 push	 1
  00528	83 c1 24	 add	 ecx, 36			; 00000024H
  0052b	e8 00 00 00 00	 call	 ?GetObj@CLayeredLinkMap@@QAEPAPAVCObj@@KKH@Z ; CLayeredLinkMap::GetObj
  00530	8b 8b 6c 01 00
	00		 mov	 ecx, DWORD PTR [ebx+364]
  00536	89 45 e8	 mov	 DWORD PTR __pObjs$1$[ebp], eax
  00539	8b 51 08	 mov	 edx, DWORD PTR [ecx+8]
  0053c	8b 41 04	 mov	 eax, DWORD PTR [ecx+4]
  0053f	8b d8		 mov	 ebx, eax
  00541	0f af d6	 imul	 edx, esi
  00544	c1 e0 07	 shl	 eax, 7
  00547	0f af de	 imul	 ebx, esi
  0054a	8b 71 14	 mov	 esi, DWORD PTR [ecx+20]
  0054d	89 55 cc	 mov	 DWORD PTR tv1869[ebp], edx
  00550	99		 cdq
  00551	f7 fb		 idiv	 ebx
  00553	89 5d 10	 mov	 DWORD PTR __nMaxWidth$1$[ebp], ebx
  00556	8b f8		 mov	 edi, eax
  00558	8b c6		 mov	 eax, esi
  0055a	0f af c7	 imul	 eax, edi
  0055d	99		 cdq
  0055e	2b c2		 sub	 eax, edx
  00560	8b c8		 mov	 ecx, eax
  00562	8b 45 b0	 mov	 eax, DWORD PTR __nLinkX$1$[ebp]
  00565	99		 cdq
  00566	f7 ff		 idiv	 edi
  00568	f3 0f 2c 45 a4	 cvttss2si eax, DWORD PTR _vPos$[ebp]
  0056d	2b 55 b0	 sub	 edx, DWORD PTR __nLinkX$1$[ebp]
  00570	d1 f9		 sar	 ecx, 1
  00572	0f af d6	 imul	 edx, esi
  00575	03 d0		 add	 edx, eax
  00577	33 c0		 xor	 eax, eax
  00579	3b d1		 cmp	 edx, ecx
  0057b	0f 9f c0	 setg	 al
  0057e	33 db		 xor	 ebx, ebx
  00580	89 45 b8	 mov	 DWORD PTR __nX$1$[ebp], eax
  00583	8b 45 c8	 mov	 eax, DWORD PTR __nLinkZ$1$[ebp]
  00586	99		 cdq
  00587	f7 ff		 idiv	 edi
  00589	f3 0f 2c 45 ac	 cvttss2si eax, DWORD PTR _vPos$[ebp+8]
  0058e	2b 55 c8	 sub	 edx, DWORD PTR __nLinkZ$1$[ebp]
  00591	0f af d6	 imul	 edx, esi
  00594	03 d0		 add	 edx, eax
  00596	8b 45 b4	 mov	 eax, DWORD PTR tv1900[ebp]
  00599	3b d1		 cmp	 edx, ecx
  0059b	99		 cdq
  0059c	0f 9f c3	 setg	 bl
  0059f	33 c9		 xor	 ecx, ecx
  005a1	f7 ff		 idiv	 edi
  005a3	48		 dec	 eax
  005a4	03 45 b8	 add	 eax, DWORD PTR __nX$1$[ebp]
  005a7	0f 49 c8	 cmovns	 ecx, eax
  005aa	8b 45 bc	 mov	 eax, DWORD PTR tv1898[ebp]
  005ad	99		 cdq
  005ae	f7 ff		 idiv	 edi
  005b0	89 4d d4	 mov	 DWORD PTR __k$1$[ebp], ecx
  005b3	8d 4b ff	 lea	 ecx, DWORD PTR [ebx-1]
  005b6	03 c8		 add	 ecx, eax
  005b8	8b 45 c0	 mov	 eax, DWORD PTR tv1895[ebp]
  005bb	99		 cdq
  005bc	f7 ff		 idiv	 edi
  005be	8b 55 10	 mov	 edx, DWORD PTR __nMaxWidth$1$[ebp]
  005c1	03 45 b8	 add	 eax, DWORD PTR __nX$1$[ebp]
  005c4	3b c2		 cmp	 eax, edx
  005c6	8d 72 ff	 lea	 esi, DWORD PTR [edx-1]
  005c9	0f 4c f0	 cmovl	 esi, eax
  005cc	8b 45 c4	 mov	 eax, DWORD PTR tv1893[ebp]
  005cf	99		 cdq
  005d0	f7 ff		 idiv	 edi
  005d2	8b 55 cc	 mov	 edx, DWORD PTR tv1869[ebp]
  005d5	89 75 b8	 mov	 DWORD PTR tv1864[ebp], esi
  005d8	03 c3		 add	 eax, ebx
  005da	3b c2		 cmp	 eax, edx
  005dc	8d 5a ff	 lea	 ebx, DWORD PTR [edx-1]
  005df	0f 4c d8	 cmovl	 ebx, eax
  005e2	33 d2		 xor	 edx, edx
  005e4	85 c9		 test	 ecx, ecx
  005e6	89 5d d8	 mov	 DWORD PTR tv1937[ebp], ebx
  005e9	0f 49 d1	 cmovns	 edx, ecx
  005ec	89 55 dc	 mov	 DWORD PTR __j$1$[ebp], edx
  005ef	3b d3		 cmp	 edx, ebx
  005f1	0f 8f 87 01 00
	00		 jg	 $LN13@SendDamage
  005f7	8b 4d 10	 mov	 ecx, DWORD PTR __nMaxWidth$1$[ebp]
  005fa	8b c2		 mov	 eax, edx
  005fc	8b 5d d4	 mov	 ebx, DWORD PTR __k$1$[ebp]
  005ff	8b 7d d8	 mov	 edi, DWORD PTR tv1937[ebp]
  00602	0f af c1	 imul	 eax, ecx
  00605	03 c3		 add	 eax, ebx
  00607	89 45 e0	 mov	 DWORD PTR $T4[ebp], eax
  0060a	66 0f 1f 44 00
	00		 npad	 6
$LL18@SendDamage:
  00610	3b de		 cmp	 ebx, esi
  00612	0f 8f 55 01 00
	00		 jg	 $LN16@SendDamage
  00618	8b 4d e8	 mov	 ecx, DWORD PTR __pObjs$1$[ebp]
  0061b	8b d6		 mov	 edx, esi
  0061d	2b d3		 sub	 edx, ebx
  0061f	42		 inc	 edx
  00620	89 55 d0	 mov	 DWORD PTR tv1941[ebp], edx
  00623	8d 0c 81	 lea	 ecx, DWORD PTR [ecx+eax*4]
  00626	89 4d cc	 mov	 DWORD PTR tv1850[ebp], ecx
  00629	0f 1f 80 00 00
	00 00		 npad	 7
$LL21@SendDamage:
  00630	8b 31		 mov	 esi, DWORD PTR [ecx]
  00632	bf e8 03 00 00	 mov	 edi, 1000		; 000003e8H
  00637	85 f6		 test	 esi, esi
  00639	0f 84 0a 01 00
	00		 je	 $LN19@SendDamage
  0063f	90		 npad	 1
$LL22@SendDamage:
  00640	8b c7		 mov	 eax, edi
  00642	4f		 dec	 edi
  00643	85 c0		 test	 eax, eax
  00645	0f 84 f8 00 00
	00		 je	 $LN180@SendDamage

; 3922 : 			if( pObj->GetType() == OT_MOVER && ((CMover *)pObj)->IsPeaceful() == FALSE )

  0064b	83 be 70 01 00
	00 05		 cmp	 DWORD PTR [esi+368], 5
  00652	0f 85 dd 00 00
	00		 jne	 $LN61@SendDamage
; File C:\IAGOS\server\v18\Source\Source\_Common\Mover.h

; 1120 : 	BOOL			IsPeaceful() { return m_dwBelligerence == BELLI_PEACEFUL; }

  00658	83 be 64 06 00
	00 01		 cmp	 DWORD PTR [esi+1636], 1
; File C:\IAGOS\server\v18\Source\Source\_Common\MoverSkill.cpp

; 3922 : 			if( pObj->GetType() == OT_MOVER && ((CMover *)pObj)->IsPeaceful() == FALSE )

  0065f	0f 84 d0 00 00
	00		 je	 $LN61@SendDamage
; File C:\IAGOS\server\v18\Source\Source\_Common\Obj.h

; 215  : 	D3DXVECTOR3		GetPos()	{ return m_vPos; }

  00665	f3 0f 7e 86 60
	01 00 00	 movq	 xmm0, QWORD PTR [esi+352]
  0066d	8b 86 68 01 00
	00		 mov	 eax, DWORD PTR [esi+360]
  00673	66 0f d6 45 98	 movq	 QWORD PTR $T2[ebp], xmm0
; File C:\IAGOS\server\v18\Source\Source\DX_SDK\d3dx9math.inl

; 383  :     return D3DXVECTOR3(x - v.x, y - v.y, z - v.z);

  00678	f3 0f 10 45 9c	 movss	 xmm0, DWORD PTR $T2[ebp+4]
  0067d	f3 0f 10 55 98	 movss	 xmm2, DWORD PTR $T2[ebp]
  00682	f3 0f 5c 55 a4	 subss	 xmm2, DWORD PTR _vPos$[ebp]
  00687	f3 0f 5c 45 a8	 subss	 xmm0, DWORD PTR _vPos$[ebp+4]
; File C:\IAGOS\server\v18\Source\Source\_Common\Obj.h

; 215  : 	D3DXVECTOR3		GetPos()	{ return m_vPos; }

  0068c	89 45 a0	 mov	 DWORD PTR $T2[ebp+8], eax
; File C:\IAGOS\server\v18\Source\Source\DX_SDK\d3dx9math.inl

; 383  :     return D3DXVECTOR3(x - v.x, y - v.y, z - v.z);

  0068f	f3 0f 10 4d a0	 movss	 xmm1, DWORD PTR $T2[ebp+8]
  00694	f3 0f 5c 4d ac	 subss	 xmm1, DWORD PTR _vPos$[ebp+8]

; 1698 :     return pV->x * pV->x + pV->y * pV->y + pV->z * pV->z;

  00699	f3 0f 59 d2	 mulss	 xmm2, xmm2
; File C:\IAGOS\server\v18\Source\Source\_Common\MoverSkill.cpp

; 3924 : 				vDist = pObj->GetPos() - vPos;		// this -> Ĺ¸°Ů±îÁöŔÇ ş¤ĹÍ

  0069d	f3 0f 59 c0	 mulss	 xmm0, xmm0
; File C:\IAGOS\server\v18\Source\Source\DX_SDK\d3dx9math.inl

; 1698 :     return pV->x * pV->x + pV->y * pV->y + pV->z * pV->z;

  006a1	f3 0f 59 c9	 mulss	 xmm1, xmm1
  006a5	f3 0f 58 d0	 addss	 xmm2, xmm0
; File C:\IAGOS\server\v18\Source\Source\_Common\MoverSkill.cpp

; 3926 : 				if( fDistSq < fRange * fRange )		// Ĺ¸°Ů°úŔÇ °Ĺ¸®°ˇ fRangeąĚĹÍ ŔĚł»ŔÎ°ÍŔ» ´ë»óŔ¸·Î.

  006a9	f3 0f 10 45 18	 movss	 xmm0, DWORD PTR _fRange$[ebp]
  006ae	f3 0f 59 c0	 mulss	 xmm0, xmm0
; File C:\IAGOS\server\v18\Source\Source\DX_SDK\d3dx9math.inl

; 1698 :     return pV->x * pV->x + pV->y * pV->y + pV->z * pV->z;

  006b2	f3 0f 58 d1	 addss	 xmm2, xmm1
; File C:\IAGOS\server\v18\Source\Source\_Common\MoverSkill.cpp

; 3926 : 				if( fDistSq < fRange * fRange )		// Ĺ¸°Ů°úŔÇ °Ĺ¸®°ˇ fRangeąĚĹÍ ŔĚł»ŔÎ°ÍŔ» ´ë»óŔ¸·Î.

  006b6	0f 2f c2	 comiss	 xmm0, xmm2
  006b9	76 7a		 jbe	 SHORT $LN61@SendDamage

; 3927 : 				{
; 3928 : 					if( pObj == this && fTargetRatio == 0.0f )	// Ĺ¸°ŮµĄąĚÁö şńŔ˛ŔĚ 0ŔĚ¸é ŔÚ±âŔÚ˝Ĺ(Ĺ¸°Ů)Ŕş µĄąĚÁö¸¦ ÁÖÁöľĘŔ˝.

  006bb	3b 75 f8	 cmp	 esi, DWORD PTR _this$1$[ebp]
  006be	75 12		 jne	 SHORT $LN56@SendDamage
  006c0	f3 0f 10 45 1c	 movss	 xmm0, DWORD PTR _fTargetRatio$[ebp]
  006c5	0f 2e 05 00 00
	00 00		 ucomiss xmm0, DWORD PTR __real@00000000
  006cc	9f		 lahf
  006cd	f6 c4 44	 test	 ah, 68			; 00000044H
  006d0	7b 63		 jnp	 SHORT $LN61@SendDamage
$LN56@SendDamage:

; 3929 : 					{
; 3930 : 					} else
; 3931 : 					{
; 3932 : 						if( pObj != pAttacker )		// °ř°ÝŔÚ´Â °Ë»ç´ë»óżˇĽ­ Á¦żÜ.

  006d2	8b 5d 0c	 mov	 ebx, DWORD PTR _pAttacker$[ebp]
  006d5	3b f3		 cmp	 esi, ebx
  006d7	74 5c		 je	 SHORT $LN61@SendDamage
; File C:\IAGOS\server\v18\Source\Source\_Common\Obj.h

; 180  : 	BOOL			IsDelete()	{ return (m_dwFlags & OBJ_FLAG_DELETE);  }

  006d9	f6 46 04 01	 test	 BYTE PTR [esi+4], 1

; 327  : 	return pObj && ( pObj->IsDelete() == FALSE ); 

  006dd	75 56		 jne	 SHORT $LN61@SendDamage
; File C:\IAGOS\server\v18\Source\Source\_AIInterface\Action.h

; 310  : 	BOOL			IsDie() { return (m_dwState & OBJSTA_DIE_ALL) ? TRUE : FALSE; }

  006df	8b 96 38 02 00
	00		 mov	 edx, DWORD PTR [esi+568]
; File C:\IAGOS\server\v18\Source\Source\_Common\Mover.h

; 1251 : 	BOOL			IsLive() { return m_pActMover->IsDie() == FALSE || m_nHitPoint > 0; }		// && ¸¦  ||·Î ąŮ˛ĺŔ˝.  !=¸¦ >·Î ąŮ˛Ţ

  006e5	f7 42 04 00 00
	00 08		 test	 DWORD PTR [edx+4], 134217728 ; 08000000H
  006ec	74 09		 je	 SHORT $LN173@SendDamage
  006ee	83 be f8 05 00
	00 00		 cmp	 DWORD PTR [esi+1528], 0
  006f5	7e 3e		 jle	 SHORT $LN61@SendDamage
$LN173@SendDamage:
; File C:\IAGOS\server\v18\Source\Source\_Common\MoverSkill.cpp

; 3937 : 								if( pProp->dwComboStyle == CT_FINISH )

  006f7	8b 45 fc	 mov	 eax, DWORD PTR _pProp$1$[ebp]
  006fa	8b 4d 14	 mov	 ecx, DWORD PTR _nAttackID$[ebp]
  006fd	c1 e1 10	 shl	 ecx, 16			; 00000010H
  00700	83 b8 18 02 00
	00 03		 cmp	 DWORD PTR [eax+536], 3
  00707	75 15		 jne	 SHORT $LN60@SendDamage

; 3938 : 									pTarget->m_pActMover->SendDamageForce( nDmgType, pAttacker->GetId(), (nAttackID << 16) );

  00709	6a 01		 push	 1
  0070b	51		 push	 ecx
  0070c	ff b3 bc 01 00
	00		 push	 DWORD PTR [ebx+444]
  00712	8b ca		 mov	 ecx, edx
  00714	ff 75 08	 push	 DWORD PTR _nDmgType$[ebp]
  00717	e8 00 00 00 00	 call	 ?SendDamageForce@CActionMover@@QAEHKKHH@Z ; CActionMover::SendDamageForce
  0071c	eb 17		 jmp	 SHORT $LN61@SendDamage
$LN60@SendDamage:
; File C:\IAGOS\server\v18\Source\Source\_AIInterface\ActionMover.h

; 134  : 	int				SendDamage( DWORD dwAtkFlags, OBJID idSender, int nParam = 0, BOOL bTarget = TRUE, int nReflect = 0 )	{	return SendActMsg( OBJMSG_DAMAGE, dwAtkFlags, idSender, nParam, bTarget, nReflect );	}

  0071e	8b 02		 mov	 eax, DWORD PTR [edx]
  00720	6a 00		 push	 0
  00722	6a 01		 push	 1
  00724	51		 push	 ecx
  00725	ff b3 bc 01 00
	00		 push	 DWORD PTR [ebx+444]
  0072b	8b ca		 mov	 ecx, edx
  0072d	ff 75 08	 push	 DWORD PTR _nDmgType$[ebp]
  00730	6a 29		 push	 41			; 00000029H
  00732	ff 50 04	 call	 DWORD PTR [eax+4]
$LN61@SendDamage:
; File C:\IAGOS\server\v18\Source\Source\_Common\MoverSkill.cpp

; 3947 : 		END_LINKMAP

  00735	8b b6 80 01 00
	00		 mov	 esi, DWORD PTR [esi+384]
  0073b	85 f6		 test	 esi, esi
  0073d	0f 85 fd fe ff
	ff		 jne	 $LL22@SendDamage
$LN180@SendDamage:
  00743	8b 4d cc	 mov	 ecx, DWORD PTR tv1850[ebp]
  00746	8b 55 d0	 mov	 edx, DWORD PTR tv1941[ebp]
$LN19@SendDamage:

; 3919 : 	{
; 3920 : 		FOR_LINKMAP( GetWorld(), vPos, pObj, nRange, CObj::linkDynamic, GetLayer() )

  00749	83 c1 04	 add	 ecx, 4
  0074c	83 ea 01	 sub	 edx, 1
  0074f	89 4d cc	 mov	 DWORD PTR tv1850[ebp], ecx
  00752	89 55 d0	 mov	 DWORD PTR tv1941[ebp], edx
  00755	0f 85 d5 fe ff
	ff		 jne	 $LL21@SendDamage
  0075b	8b 55 dc	 mov	 edx, DWORD PTR __j$1$[ebp]
  0075e	8b 45 e0	 mov	 eax, DWORD PTR $T4[ebp]
  00761	8b 5d d4	 mov	 ebx, DWORD PTR __k$1$[ebp]
  00764	8b 75 b8	 mov	 esi, DWORD PTR tv1864[ebp]
  00767	8b 4d 10	 mov	 ecx, DWORD PTR __nMaxWidth$1$[ebp]
  0076a	8b 7d d8	 mov	 edi, DWORD PTR tv1937[ebp]
$LN16@SendDamage:
  0076d	42		 inc	 edx
  0076e	03 c1		 add	 eax, ecx
  00770	89 55 dc	 mov	 DWORD PTR __j$1$[ebp], edx
  00773	89 45 e0	 mov	 DWORD PTR $T4[ebp], eax
  00776	3b d7		 cmp	 edx, edi
  00778	0f 8e 92 fe ff
	ff		 jle	 $LL18@SendDamage
$LN13@SendDamage:
  0077e	8b 5d f8	 mov	 ebx, DWORD PTR _this$1$[ebp]
  00781	8b 7d e4	 mov	 edi, DWORD PTR __i$1$[ebp]
  00784	47		 inc	 edi
  00785	89 7d e4	 mov	 DWORD PTR __i$1$[ebp], edi
  00788	ff b3 b8 01 00
	00		 push	 DWORD PTR [ebx+440]
  0078e	8b 8b 6c 01 00
	00		 mov	 ecx, DWORD PTR [ebx+364]
  00794	6a 01		 push	 1
  00796	83 c1 24	 add	 ecx, 36			; 00000024H
  00799	e8 00 00 00 00	 call	 ?GetMaxLinkLevel@CLayeredLinkMap@@QAEHKH@Z ; CLayeredLinkMap::GetMaxLinkLevel
  0079e	3b f8		 cmp	 edi, eax
  007a0	0f 8c 5a fd ff
	ff		 jl	 $LL15@SendDamage

; 3948 : 	}
; 3949 : 		
; 3950 : #endif // WORLDSERVER		
; 3951 : } // SendDamageAround()

  007a6	5f		 pop	 edi
  007a7	5e		 pop	 esi
  007a8	5b		 pop	 ebx
  007a9	8b e5		 mov	 esp, ebp
  007ab	5d		 pop	 ebp
  007ac	c2 1c 00	 ret	 28			; 0000001cH
$LN134@SendDamage:
; File C:\IAGOS\server\v18\Source\Source\_Common\Project.h

; 579  : 	LPCTSTR szErr = Error( _T( "%s min:%d, max:%d, index:%d" ), szMsg, nMin, nMax, nIndex ); 

  007af	56		 push	 esi
  007b0	50		 push	 eax
  007b1	6a 00		 push	 0
  007b3	68 00 00 00 00	 push	 OFFSET ??_C@_0BI@BEIFNGEL@GetItemProp?5range_error@
  007b8	68 00 00 00 00	 push	 OFFSET ??_C@_0BM@HMFGHCP@?$CFs?5min?3?$CFd?0?5max?3?$CFd?0?5index?3?$CFd@
  007bd	e8 00 00 00 00	 call	 ?Error@@YAPBDPBDZZ	; Error
  007c2	83 c4 14	 add	 esp, 20			; 00000014H
$LN177@SendDamage:
; File C:\IAGOS\server\v18\Source\Source\_Common\MoverSkill.cpp

; 3869 : 			Error( "CMover::SendDamageAround : %s. ľĆŔĚĹŰ(%d)ŔÇ ÇÁ·ÎĆŰĆĽ°ˇ ľ÷´Ů.", m_szName, nAttackID );

  007c5	56		 push	 esi
  007c6	8d 83 ec 14 00
	00		 lea	 eax, DWORD PTR [ebx+5356]
  007cc	50		 push	 eax
  007cd	68 00 00 00 00	 push	 OFFSET ??_C@_0DN@BLLPBDJB@CMover?3?3SendDamageAround?5?3?5?$CFs?4?5@

; 3948 : 	}
; 3949 : 		
; 3950 : #endif // WORLDSERVER		
; 3951 : } // SendDamageAround()

  007d2	e8 00 00 00 00	 call	 ?Error@@YAPBDPBDZZ	; Error
  007d7	83 c4 0c	 add	 esp, 12			; 0000000cH
$LN14@SendDamage:
  007da	5f		 pop	 edi
  007db	5e		 pop	 esi
  007dc	5b		 pop	 ebx
  007dd	8b e5		 mov	 esp, ebp
  007df	5d		 pop	 ebp
  007e0	c2 1c 00	 ret	 28			; 0000001cH
?SendDamageAround@CMover@@QAEXHPAV1@HHMMM@Z ENDP	; CMover::SendDamageAround
_TEXT	ENDS
; Function compile flags: /Ogtp
; File C:\IAGOS\server\v18\Source\Source\_Common\MoverSkill.cpp
; File C:\IAGOS\server\v18\Source\Source\_Common\Mover.h
; File C:\IAGOS\server\v18\Source\Source\_Common\Obj.h
; File C:\IAGOS\server\v18\Source\Source\_Common\MoverSkill.cpp
; File C:\IAGOS\server\v18\Source\Source\_Common\Mover.h
; File C:\IAGOS\server\v18\Source\Source\_Common\MoverSkill.cpp
;	COMDAT ?DoAttackMelee@CMover@@QAEHPAV1@W4OBJMSG@@K@Z
_TEXT	SEGMENT
_pTarget$ = 8						; size = 4
$T1 = 8							; size = 4
_dwMsg$ = 12						; size = 4
_dwItemID$ = 16						; size = 4
?DoAttackMelee@CMover@@QAEHPAV1@W4OBJMSG@@K@Z PROC	; CMover::DoAttackMelee, COMDAT
; _this$ = ecx

; 3729 : {

  00000	55		 push	 ebp
  00001	8b ec		 mov	 ebp, esp
  00003	53		 push	 ebx
  00004	57		 push	 edi
  00005	8b f9		 mov	 edi, ecx
; File C:\IAGOS\server\v18\Source\Source\_Common\Mover.h

; 1785 : 	if( m_pActMover )	

  00007	8b 8f 38 02 00
	00		 mov	 ecx, DWORD PTR [edi+568]
  0000d	85 c9		 test	 ecx, ecx
  0000f	74 11		 je	 SHORT $LN10@DoAttackMe

; 1786 : 		return m_pActMover->SendActMsg( dwMsg, nParam1, nParam2, nParam3, nParam4 );	

  00011	8b 01		 mov	 eax, DWORD PTR [ecx]
  00013	6a 00		 push	 0
  00015	6a 00		 push	 0
  00017	6a 00		 push	 0
  00019	6a 00		 push	 0
  0001b	6a 00		 push	 0
  0001d	6a 06		 push	 6
  0001f	ff 50 04	 call	 DWORD PTR [eax+4]
$LN10@DoAttackMe:
; File C:\IAGOS\server\v18\Source\Source\_Common\Obj.h

; 327  : 	return pObj && ( pObj->IsDelete() == FALSE ); 

  00022	8b 5d 08	 mov	 ebx, DWORD PTR _pTarget$[ebp]
  00025	85 db		 test	 ebx, ebx
  00027	0f 84 b6 00 00
	00		 je	 $LN27@DoAttackMe

; 180  : 	BOOL			IsDelete()	{ return (m_dwFlags & OBJ_FLAG_DELETE);  }

  0002d	f6 43 04 01	 test	 BYTE PTR [ebx+4], 1

; 327  : 	return pObj && ( pObj->IsDelete() == FALSE ); 

  00031	0f 85 ac 00 00
	00		 jne	 $LN27@DoAttackMe
; File C:\IAGOS\server\v18\Source\Source\_Common\MoverSkill.cpp

; 3736 : 	if( dwItemID == NULL_ID || dwItemID == 0 )	

  00037	56		 push	 esi
  00038	8b 75 10	 mov	 esi, DWORD PTR _dwItemID$[ebp]
  0003b	83 fe ff	 cmp	 esi, -1
  0003e	74 11		 je	 SHORT $LN5@DoAttackMe
  00040	85 f6		 test	 esi, esi
  00042	74 0d		 je	 SHORT $LN5@DoAttackMe

; 3738 : 	else
; 3739 : 		pItemProp = prj.GetItemProp( dwItemID );	// Á÷Á˘ ľĆŔĚĹŰŔ» ÁöÁ¤ÇŃ °ćżě´Â ±×°É·Î °ř°ÝÇÔ(¸ó˝şĹÍ°ˇ ÁÖ·Î »çżëÇÔ)

  00044	56		 push	 esi
  00045	b9 00 00 00 00	 mov	 ecx, OFFSET ?prj@@3VCProject@@A ; prj
  0004a	e8 00 00 00 00	 call	 ?GetItemProp@CProject@@QAEPAUItemProp@@H@Z ; CProject::GetItemProp
  0004f	eb 09		 jmp	 SHORT $LN4@DoAttackMe
$LN5@DoAttackMe:

; 3737 : 		pItemProp = GetActiveHandItemProp();	// ŔĚ·±°ćżě´Â °Á ĽŐżˇ µç ą«±â(Č¤Ŕş ±âş»ľĆŔĚĹŰ)

  00051	6a 0a		 push	 10			; 0000000aH
  00053	8b cf		 mov	 ecx, edi
  00055	e8 00 00 00 00	 call	 ?GetActiveHandItemProp@CMover@@QAEPAUItemProp@@H@Z ; CMover::GetActiveHandItemProp
$LN4@DoAttackMe:

; 3740 : 	if( pItemProp == NULL )

  0005a	85 c0		 test	 eax, eax
  0005c	75 20		 jne	 SHORT $LN6@DoAttackMe

; 3741 : 	{
; 3742 : 		Error( "DoAttackMelee : %s ŔÇ ItemPropŔĚ NULL %d", GetName(), (int)dwItemID );

  0005e	56		 push	 esi
  0005f	50		 push	 eax
  00060	8b cf		 mov	 ecx, edi
  00062	e8 00 00 00 00	 call	 ?GetName@CMover@@QAEPBDH@Z ; CMover::GetName
  00067	50		 push	 eax
  00068	68 00 00 00 00	 push	 OFFSET ??_C@_0CJ@BKJEKCBD@DoAttackMelee?5?3?5?$CFs?5?$MA?G?5ItemProp?$MA@
  0006d	e8 00 00 00 00	 call	 ?Error@@YAPBDPBDZZ	; Error
  00072	83 c4 0c	 add	 esp, 12			; 0000000cH

; 3743 : 		return FALSE;

  00075	33 c0		 xor	 eax, eax
  00077	5e		 pop	 esi
  00078	5f		 pop	 edi

; 3780 : }	

  00079	5b		 pop	 ebx
  0007a	5d		 pop	 ebp
  0007b	c2 0c 00	 ret	 12			; 0000000cH
$LN6@DoAttackMe:
; File C:\IAGOS\server\v18\Source\Source\_Common\Mover.h

; 1785 : 	if( m_pActMover )	

  0007e	8b 8f 38 02 00
	00		 mov	 ecx, DWORD PTR [edi+568]
  00084	85 c9		 test	 ecx, ecx
  00086	74 4f		 je	 SHORT $LN7@DoAttackMe

; 1786 : 		return m_pActMover->SendActMsg( dwMsg, nParam1, nParam2, nParam3, nParam4 );	

  00088	8b 01		 mov	 eax, DWORD PTR [ecx]
  0008a	6a 00		 push	 0
  0008c	6a 00		 push	 0
  0008e	6a 00		 push	 0
  00090	6a 00		 push	 0
  00092	ff b3 bc 01 00
	00		 push	 DWORD PTR [ebx+444]
  00098	ff 75 0c	 push	 DWORD PTR _dwMsg$[ebp]
  0009b	ff 50 04	 call	 DWORD PTR [eax+4]
  0009e	89 45 08	 mov	 DWORD PTR $T1[ebp], eax
; File C:\IAGOS\server\v18\Source\Source\_Common\MoverSkill.cpp

; 3748 : 	if( nError > 0 )

  000a1	85 c0		 test	 eax, eax
  000a3	7e 32		 jle	 SHORT $LN7@DoAttackMe

; 3749 : 	{
; 3750 : 		SetActParam( OBJACT_MELEE_ATTACK, pTarget->GetId(), (int)dwItemID );	// OnAttackMeleeżˇĽ­ ľµĽö ŔÖµµ·Ď ĆÄ¶ó¸ŢĹÍ µî·Ď.

  000a5	6a 00		 push	 0
  000a7	56		 push	 esi
  000a8	ff b3 bc 01 00
	00		 push	 DWORD PTR [ebx+444]
  000ae	8b cf		 mov	 ecx, edi
  000b0	6a 01		 push	 1
  000b2	e8 00 00 00 00	 call	 ?SetActParam@CMover@@AAEXW4OBJACT@@HHH@Z ; CMover::SetActParam

; 3751 : 
; 3752 : #ifdef __CLIENT
; 3753 : #ifdef __HACK_1023
; 3754 : 		ItemProp* pHandItemProp		= GetActiveHandItemProp();
; 3755 : 		FLOAT fVal	= pHandItemProp? pHandItemProp->fAttackSpeed: 0.0F;
; 3756 : 		g_DPlay.SendMeleeAttack( dwMsg, pTarget->GetId(), MAKELONG( 0, 0 ), MAKELONG( 0, (WORD)nError ), fVal );
; 3757 : #else	// __HACK_1023
; 3758 : 		g_DPlay.SendMeleeAttack( dwMsg, pTarget->GetId(), MAKELONG( 0, 0 ), MAKELONG( 0, (WORD)nError ) );
; 3759 : #endif	// __HACK_1023
; 3760 : 		if( IsActiveMover() )
; 3761 : 		{
; 3762 : 			PlayCombatMusic();
; 3763 : #if __VER < 11 // __REMOVE_ENDURANCE
; 3764 : 			CItemElem* pWeapon	= GetWeaponItem();
; 3765 : 			if( pWeapon )
; 3766 : 			{
; 3767 : 				ItemProp* pItemProp		= pWeapon->GetProp();
; 3768 : 				if( pItemProp )
; 3769 : 					if( ( ( pWeapon->m_nHitPoint * 100 ) / pItemProp->dwEndurance ) == 0 )
; 3770 : 						g_WndMng.PutString( prj.GetText( TID_GAME_WASTEENDURANCE ), NULL, prj.GetTextColor( TID_GAME_WASTEENDURANCE ) );
; 3771 : 			}
; 3772 : #endif // __REMOVE_ENDURANCE
; 3773 : 		}
; 3774 : #else	// __CLIENT
; 3775 : 		g_UserMng.AddMeleeAttack( this, dwMsg, pTarget->GetId(), MAKELONG( 0, 0 ), MAKELONG( 0, (WORD)nError ) );

  000b7	8b 4d 08	 mov	 ecx, DWORD PTR $T1[ebp]
  000ba	0f b7 c1	 movzx	 eax, cx
  000bd	b9 00 00 00 00	 mov	 ecx, OFFSET ?g_UserMng@@3VCUserMng@@A ; g_UserMng
  000c2	c1 e0 10	 shl	 eax, 16			; 00000010H
  000c5	50		 push	 eax
  000c6	6a 00		 push	 0
  000c8	ff b3 bc 01 00
	00		 push	 DWORD PTR [ebx+444]
  000ce	ff 75 0c	 push	 DWORD PTR _dwMsg$[ebp]
  000d1	57		 push	 edi
  000d2	e8 00 00 00 00	 call	 ?AddMeleeAttack@CUserMng@@QAEXPAVCMover@@KKHH@Z ; CUserMng::AddMeleeAttack
$LN7@DoAttackMe:

; 3776 : #endif	// __CLIENT
; 3777 : 	}
; 3778 : 
; 3779 : 	return TRUE;	

  000d7	5e		 pop	 esi
  000d8	5f		 pop	 edi
  000d9	b8 01 00 00 00	 mov	 eax, 1

; 3780 : }	

  000de	5b		 pop	 ebx
  000df	5d		 pop	 ebp
  000e0	c2 0c 00	 ret	 12			; 0000000cH
$LN27@DoAttackMe:
  000e3	5f		 pop	 edi

; 3730 : 	SendActMsg( OBJMSG_STOP );		// Á¦ŔÚ¸® ¸ŘĂă.
; 3731 : 
; 3732 : 	if( IsInvalidObj(pTarget) )
; 3733 : 		return 0;

  000e4	33 c0		 xor	 eax, eax

; 3780 : }	

  000e6	5b		 pop	 ebx
  000e7	5d		 pop	 ebp
  000e8	c2 0c 00	 ret	 12			; 0000000cH
?DoAttackMelee@CMover@@QAEHPAV1@W4OBJMSG@@K@Z ENDP	; CMover::DoAttackMelee
_TEXT	ENDS
; Function compile flags: /Ogtp
; File C:\IAGOS\server\v18\Source\Source\_Common\MoverSkill.cpp
; File C:\IAGOS\server\v18\Source\Source\_Common\Obj.h
; File C:\IAGOS\server\v18\Source\Source\_Common\MoverSkill.cpp
; File C:\IAGOS\server\v18\Source\Source\_Common\Obj.h
; File C:\IAGOS\server\v18\Source\Source\_Common\MoverSkill.cpp
; File C:\IAGOS\server\v18\Source\Source\_Common\Obj.h
; File C:\IAGOS\server\v18\Source\Source\_Common\MoverSkill.cpp
; File C:\IAGOS\server\v18\Source\Source\_Common\Obj.h
; File C:\IAGOS\server\v18\Source\Source\_Common\MoverSkill.cpp
; File C:\IAGOS\server\v18\Source\Source\_Common\Obj.h
; File C:\IAGOS\server\v18\Source\Source\_Common\MoverSkill.cpp
; File C:\IAGOS\server\v18\Source\Source\_Common\Obj.h
; File C:\IAGOS\server\v18\Source\Source\_Common\MoverSkill.cpp
;	COMDAT ?DoAttackSP@CMover@@QAEHPAVCObj@@K@Z
_TEXT	SEGMENT
$T1 = -24						; size = 12
$T2 = -12						; size = 12
_pTargetObj$ = 8					; size = 4
_idTarget$1$ = 8					; size = 4
_dwItemID$ = 12						; size = 4
_nError$1$ = 12						; size = 4
?DoAttackSP@CMover@@QAEHPAVCObj@@K@Z PROC		; CMover::DoAttackSP, COMDAT
; _this$ = ecx

; 3676 : {

  00000	55		 push	 ebp
  00001	8b ec		 mov	 ebp, esp
  00003	83 ec 18	 sub	 esp, 24			; 00000018H
  00006	53		 push	 ebx
; File C:\IAGOS\server\v18\Source\Source\_Common\Obj.h

; 327  : 	return pObj && ( pObj->IsDelete() == FALSE ); 

  00007	8b 5d 08	 mov	 ebx, DWORD PTR _pTargetObj$[ebp]
; File C:\IAGOS\server\v18\Source\Source\_Common\MoverSkill.cpp

; 3676 : {

  0000a	57		 push	 edi
  0000b	8b f9		 mov	 edi, ecx
; File C:\IAGOS\server\v18\Source\Source\_Common\Obj.h

; 327  : 	return pObj && ( pObj->IsDelete() == FALSE ); 

  0000d	85 db		 test	 ebx, ebx
  0000f	0f 84 0f 01 00
	00		 je	 $LN22@DoAttackSP

; 180  : 	BOOL			IsDelete()	{ return (m_dwFlags & OBJ_FLAG_DELETE);  }

  00015	f6 43 04 01	 test	 BYTE PTR [ebx+4], 1

; 327  : 	return pObj && ( pObj->IsDelete() == FALSE ); 

  00019	0f 85 05 01 00
	00		 jne	 $LN22@DoAttackSP
; File C:\IAGOS\server\v18\Source\Source\_Common\MoverSkill.cpp

; 3681 : 	if( dwItemID == NULL_ID || dwItemID == 0 )	

  0001f	56		 push	 esi
  00020	8b 75 0c	 mov	 esi, DWORD PTR _dwItemID$[ebp]
  00023	83 fe ff	 cmp	 esi, -1
  00026	74 11		 je	 SHORT $LN5@DoAttackSP
  00028	85 f6		 test	 esi, esi
  0002a	74 0d		 je	 SHORT $LN5@DoAttackSP

; 3683 : 	else
; 3684 : 		pItemProp = prj.GetItemProp( dwItemID );	// Á÷Á˘ ľĆŔĚĹŰŔ» ÁöÁ¤ÇŃ °ćżě´Â ±×°É·Î °ř°ÝÇÔ(¸ó˝şĹÍ°ˇ ÁÖ·Î »çżëÇÔ)

  0002c	56		 push	 esi
  0002d	b9 00 00 00 00	 mov	 ecx, OFFSET ?prj@@3VCProject@@A ; prj
  00032	e8 00 00 00 00	 call	 ?GetItemProp@CProject@@QAEPAUItemProp@@H@Z ; CProject::GetItemProp
  00037	eb 07		 jmp	 SHORT $LN4@DoAttackSP
$LN5@DoAttackSP:

; 3682 : 		pItemProp = GetActiveHandItemProp();	// ŔĚ·±°ćżě´Â °Á ĽŐżˇ µç ą«±â(Č¤Ŕş ±âş»ľĆŔĚĹŰ)

  00039	6a 0a		 push	 10			; 0000000aH
  0003b	e8 00 00 00 00	 call	 ?GetActiveHandItemProp@CMover@@QAEPAUItemProp@@H@Z ; CMover::GetActiveHandItemProp
$LN4@DoAttackSP:

; 3685 : 	if( pItemProp == NULL )

  00040	85 c0		 test	 eax, eax
  00042	75 20		 jne	 SHORT $LN6@DoAttackSP

; 3686 : 	{
; 3687 : 		Error( "DoAttackSP : %s ŔÇ ItemPropŔĚ NULL %d", m_szName, (int)dwItemID );

  00044	56		 push	 esi
  00045	8d 87 ec 14 00
	00		 lea	 eax, DWORD PTR [edi+5356]
  0004b	50		 push	 eax
  0004c	68 00 00 00 00	 push	 OFFSET ??_C@_0CG@EOHFKLIK@DoAttackSP?5?3?5?$CFs?5?$MA?G?5ItemProp?$MA?L?5N@
  00051	e8 00 00 00 00	 call	 ?Error@@YAPBDPBDZZ	; Error
  00056	83 c4 0c	 add	 esp, 12			; 0000000cH

; 3688 : 		return FALSE;

  00059	33 c0		 xor	 eax, eax
$LN30@DoAttackSP:

; 3708 : #else	// __WORLDSERVER
; 3709 : 	
; 3710 : #if 0 //2009_12_18 ±âČążˇĽ­ Á¦°Ĺ żäĂ» : ąßµżĹ¸ŔÓżˇ Ĺ¸°Ůżˇ ´ëÇŘ ŔĚĆĺĆ® ÇĘżäľřŔ˝ 
; 3711 : 		DWORD dwSfxObj = pItemProp->dwSfxObj3;		// ĆŻĽö°ř°Ýżˇ ąßµżŔĚĆĺĆ®°ˇ ŔÖ´Ů¸é 3ąř»çżë.
; 3712 : 		if( dwSfxObj != NULL_ID )
; 3713 : 			CreateSfx( D3DDEVICE, dwSfxObj, GetPos(), GetId(), D3DXVECTOR3(0,0,0), idTarget );
; 3714 : #endif 
; 3715 : 
; 3716 : 	//gmpbigsun: ąßµż˝Ă °ř°ÝŔÚżˇ ´ëÇŃ ąßµż effect
; 3717 : 	DWORD dwSfxObj = pItemProp->dwSfxObj;
; 3718 : 	if( NULL_ID != dwSfxObj )
; 3719 : 		CreateSfx( D3DDEVICE, dwSfxObj, GetPos() );
; 3720 : 
; 3721 : 		
; 3722 : #endif	// __WORLDSERVER
; 3723 : 	}
; 3724 : 
; 3725 : 	return( nError );
; 3726 : }

  0005b	5e		 pop	 esi
  0005c	5f		 pop	 edi
  0005d	5b		 pop	 ebx
  0005e	8b e5		 mov	 esp, ebp
  00060	5d		 pop	 ebp
  00061	c2 08 00	 ret	 8
$LN6@DoAttackSP:

; 3689 : 	}
; 3690 : 
; 3691 : 	DWORD dwUseMotion = pItemProp->dwUseMotion;

  00064	8b 90 b8 01 00
	00		 mov	 edx, DWORD PTR [eax+440]

; 3692 : 	if( dwUseMotion == NULL_ID )

  0006a	83 fa ff	 cmp	 edx, -1
  0006d	75 1b		 jne	 SHORT $LN7@DoAttackSP

; 3693 : 	{
; 3694 : 		Error( "DoAttackSP : %sŔÇ °ř°Ý%dŔÇ dwUseMotionŔĚ ÁöÁ¤µÇÁö ľĘľŇ´Ů", m_szName, pItemProp->dwID );

  0006f	ff 30		 push	 DWORD PTR [eax]
  00071	8d 87 ec 14 00
	00		 lea	 eax, DWORD PTR [edi+5356]
  00077	50		 push	 eax
  00078	68 00 00 00 00	 push	 OFFSET ??_C@_0DJ@FIKMOPND@DoAttackSP?5?3?5?$CFs?$MA?G?5?$LA?x?$LA?$NN?$CFd?$MA?G?5dwUs@
  0007d	e8 00 00 00 00	 call	 ?Error@@YAPBDPBDZZ	; Error
  00082	83 c4 0c	 add	 esp, 12			; 0000000cH

; 3695 : 		dwUseMotion = MTI_ATK1;		// ÇÁ·ÎĆŰĆĽżˇ Ŕĺ°Ĺ¸® °ř°Ý ¸đĽÇŔĚ ÁöÁ¤µÇÁö ľĘľŇŔ¸¸é ±âş» ¸đĽÇŔ¸·Î ÇŃ´Ů.

  00085	ba 17 00 00 00	 mov	 edx, 23			; 00000017H
$LN7@DoAttackSP:

; 3696 : 	}
; 3697 : 	
; 3698 : 	OBJID	idTarget = ((CCtrl*)pTargetObj)->GetId();
; 3699 : 	
; 3700 : 	int nError;
; 3701 : 	if( ( nError = m_pActMover->SendActMsg( OBJMSG_SP_ATK1, idTarget, (int)dwItemID, (int)dwUseMotion ) ) == 1 )	// Ŕĺ°Ĺ¸®°ř°Ý.

  0008a	8b 8f 38 02 00
	00		 mov	 ecx, DWORD PTR [edi+568]
  00090	8b 83 bc 01 00
	00		 mov	 eax, DWORD PTR [ebx+444]
  00096	6a 00		 push	 0
  00098	6a 00		 push	 0
  0009a	52		 push	 edx
  0009b	89 45 08	 mov	 DWORD PTR _idTarget$1$[ebp], eax
  0009e	8b 01		 mov	 eax, DWORD PTR [ecx]
  000a0	56		 push	 esi
  000a1	ff 75 08	 push	 DWORD PTR _idTarget$1$[ebp]
  000a4	6a 21		 push	 33			; 00000021H
  000a6	ff 50 04	 call	 DWORD PTR [eax+4]
  000a9	89 45 0c	 mov	 DWORD PTR _nError$1$[ebp], eax
  000ac	83 f8 01	 cmp	 eax, 1
  000af	75 aa		 jne	 SHORT $LN30@DoAttackSP
; File C:\IAGOS\server\v18\Source\Source\_Common\Obj.h

; 215  : 	D3DXVECTOR3		GetPos()	{ return m_vPos; }

  000b1	8b 83 68 01 00
	00		 mov	 eax, DWORD PTR [ebx+360]
  000b7	f3 0f 7e 87 60
	01 00 00	 movq	 xmm0, QWORD PTR [edi+352]
  000bf	8b 8f 68 01 00
	00		 mov	 ecx, DWORD PTR [edi+360]
  000c5	89 45 f0	 mov	 DWORD PTR $T1[ebp+8], eax
; File C:\IAGOS\server\v18\Source\Source\_Common\MoverSkill.cpp

; 3703 : 		SetAngle( GetDegree(pTargetObj->GetPos(), GetPos()) );		// ¸ńÇĄÂĘŔ¸·Î ¸öŔ» µą¸˛.

  000c8	8d 45 f4	 lea	 eax, DWORD PTR $T2[ebp]
  000cb	50		 push	 eax
; File C:\IAGOS\server\v18\Source\Source\_Common\Obj.h

; 215  : 	D3DXVECTOR3		GetPos()	{ return m_vPos; }

  000cc	66 0f d6 45 f4	 movq	 QWORD PTR $T2[ebp], xmm0
; File C:\IAGOS\server\v18\Source\Source\_Common\MoverSkill.cpp

; 3703 : 		SetAngle( GetDegree(pTargetObj->GetPos(), GetPos()) );		// ¸ńÇĄÂĘŔ¸·Î ¸öŔ» µą¸˛.

  000d1	8d 45 e8	 lea	 eax, DWORD PTR $T1[ebp]
; File C:\IAGOS\server\v18\Source\Source\_Common\Obj.h

; 215  : 	D3DXVECTOR3		GetPos()	{ return m_vPos; }

  000d4	f3 0f 7e 83 60
	01 00 00	 movq	 xmm0, QWORD PTR [ebx+352]
; File C:\IAGOS\server\v18\Source\Source\_Common\MoverSkill.cpp

; 3703 : 		SetAngle( GetDegree(pTargetObj->GetPos(), GetPos()) );		// ¸ńÇĄÂĘŔ¸·Î ¸öŔ» µą¸˛.

  000dc	50		 push	 eax
; File C:\IAGOS\server\v18\Source\Source\_Common\Obj.h

; 215  : 	D3DXVECTOR3		GetPos()	{ return m_vPos; }

  000dd	89 4d fc	 mov	 DWORD PTR $T2[ebp+8], ecx
  000e0	66 0f d6 45 e8	 movq	 QWORD PTR $T1[ebp], xmm0
; File C:\IAGOS\server\v18\Source\Source\_Common\MoverSkill.cpp

; 3703 : 		SetAngle( GetDegree(pTargetObj->GetPos(), GetPos()) );		// ¸ńÇĄÂĘŔ¸·Î ¸öŔ» µą¸˛.

  000e5	e8 00 00 00 00	 call	 ?GetDegree@@YAMABUD3DXVECTOR3@@0@Z ; GetDegree
  000ea	83 c4 04	 add	 esp, 4
  000ed	8b cf		 mov	 ecx, edi
  000ef	d9 1c 24	 fstp	 DWORD PTR [esp]
  000f2	e8 00 00 00 00	 call	 ?SetAngle@CObj@@QAEXM@Z	; CObj::SetAngle

; 3704 : 		SetActParam( OBJACT_SP_ATTACK, idTarget, (int)dwItemID );	// Čż°ú ˝Äş°ŔÚ µî·Ď

  000f7	8b 5d 08	 mov	 ebx, DWORD PTR _idTarget$1$[ebp]
  000fa	8b cf		 mov	 ecx, edi
  000fc	6a 00		 push	 0
  000fe	56		 push	 esi
  000ff	53		 push	 ebx
  00100	6a 04		 push	 4
  00102	e8 00 00 00 00	 call	 ?SetActParam@CMover@@AAEXW4OBJACT@@HHH@Z ; CMover::SetActParam

; 3705 : 		
; 3706 : #ifdef __WORLDSERVER
; 3707 : 		g_UserMng.AddAttackSP( this, OBJMSG_SP_ATK1, idTarget, dwItemID, 0 );

  00107	6a 00		 push	 0
  00109	56		 push	 esi
  0010a	53		 push	 ebx
  0010b	6a 21		 push	 33			; 00000021H
  0010d	57		 push	 edi
  0010e	b9 00 00 00 00	 mov	 ecx, OFFSET ?g_UserMng@@3VCUserMng@@A ; g_UserMng
  00113	e8 00 00 00 00	 call	 ?AddAttackSP@CUserMng@@QAEXPAVCMover@@KKHH@Z ; CUserMng::AddAttackSP
  00118	8b 45 0c	 mov	 eax, DWORD PTR _nError$1$[ebp]
  0011b	5e		 pop	 esi
  0011c	5f		 pop	 edi

; 3708 : #else	// __WORLDSERVER
; 3709 : 	
; 3710 : #if 0 //2009_12_18 ±âČążˇĽ­ Á¦°Ĺ żäĂ» : ąßµżĹ¸ŔÓżˇ Ĺ¸°Ůżˇ ´ëÇŘ ŔĚĆĺĆ® ÇĘżäľřŔ˝ 
; 3711 : 		DWORD dwSfxObj = pItemProp->dwSfxObj3;		// ĆŻĽö°ř°Ýżˇ ąßµżŔĚĆĺĆ®°ˇ ŔÖ´Ů¸é 3ąř»çżë.
; 3712 : 		if( dwSfxObj != NULL_ID )
; 3713 : 			CreateSfx( D3DDEVICE, dwSfxObj, GetPos(), GetId(), D3DXVECTOR3(0,0,0), idTarget );
; 3714 : #endif 
; 3715 : 
; 3716 : 	//gmpbigsun: ąßµż˝Ă °ř°ÝŔÚżˇ ´ëÇŃ ąßµż effect
; 3717 : 	DWORD dwSfxObj = pItemProp->dwSfxObj;
; 3718 : 	if( NULL_ID != dwSfxObj )
; 3719 : 		CreateSfx( D3DDEVICE, dwSfxObj, GetPos() );
; 3720 : 
; 3721 : 		
; 3722 : #endif	// __WORLDSERVER
; 3723 : 	}
; 3724 : 
; 3725 : 	return( nError );
; 3726 : }

  0011d	5b		 pop	 ebx
  0011e	8b e5		 mov	 esp, ebp
  00120	5d		 pop	 ebp
  00121	c2 08 00	 ret	 8
$LN22@DoAttackSP:
  00124	5f		 pop	 edi

; 3677 : 	if( IsInvalidObj(pTargetObj) )
; 3678 : 		return( -1 );

  00125	83 c8 ff	 or	 eax, -1

; 3708 : #else	// __WORLDSERVER
; 3709 : 	
; 3710 : #if 0 //2009_12_18 ±âČążˇĽ­ Á¦°Ĺ żäĂ» : ąßµżĹ¸ŔÓżˇ Ĺ¸°Ůżˇ ´ëÇŘ ŔĚĆĺĆ® ÇĘżäľřŔ˝ 
; 3711 : 		DWORD dwSfxObj = pItemProp->dwSfxObj3;		// ĆŻĽö°ř°Ýżˇ ąßµżŔĚĆĺĆ®°ˇ ŔÖ´Ů¸é 3ąř»çżë.
; 3712 : 		if( dwSfxObj != NULL_ID )
; 3713 : 			CreateSfx( D3DDEVICE, dwSfxObj, GetPos(), GetId(), D3DXVECTOR3(0,0,0), idTarget );
; 3714 : #endif 
; 3715 : 
; 3716 : 	//gmpbigsun: ąßµż˝Ă °ř°ÝŔÚżˇ ´ëÇŃ ąßµż effect
; 3717 : 	DWORD dwSfxObj = pItemProp->dwSfxObj;
; 3718 : 	if( NULL_ID != dwSfxObj )
; 3719 : 		CreateSfx( D3DDEVICE, dwSfxObj, GetPos() );
; 3720 : 
; 3721 : 		
; 3722 : #endif	// __WORLDSERVER
; 3723 : 	}
; 3724 : 
; 3725 : 	return( nError );
; 3726 : }

  00128	5b		 pop	 ebx
  00129	8b e5		 mov	 esp, ebp
  0012b	5d		 pop	 ebp
  0012c	c2 08 00	 ret	 8
?DoAttackSP@CMover@@QAEHPAVCObj@@K@Z ENDP		; CMover::DoAttackSP
_TEXT	ENDS
; Function compile flags: /Ogtp
; File C:\IAGOS\server\v18\Source\Source\_Common\MoverSkill.cpp
; File C:\IAGOS\server\v18\Source\Source\_Common\Obj.h
; File C:\IAGOS\server\v18\Source\Source\_Common\MoverSkill.cpp
; File C:\IAGOS\server\v18\Source\Source\_Common\Obj.h
; File C:\IAGOS\server\v18\Source\Source\_Common\MoverSkill.cpp
; File C:\IAGOS\server\v18\Source\Source\_Common\Obj.h
; File C:\IAGOS\server\v18\Source\Source\_Common\MoverSkill.cpp
; File C:\IAGOS\server\v18\Source\Source\_Common\Obj.h
; File C:\IAGOS\server\v18\Source\Source\_Common\MoverSkill.cpp
; File C:\IAGOS\server\v18\Source\Source\_Common\Obj.h
; File C:\IAGOS\server\v18\Source\Source\_Common\MoverSkill.cpp
; File C:\IAGOS\server\v18\Source\Source\_Common\Obj.h
; File C:\IAGOS\server\v18\Source\Source\_Common\MoverSkill.cpp
;	COMDAT ?DoAttackRange@CMover@@QAEHPAVCObj@@KH@Z
_TEXT	SEGMENT
$T1 = -24						; size = 12
$T2 = -12						; size = 12
_pTargetObj$ = 8					; size = 4
_idTarget$1$ = 8					; size = 4
_dwItemID$ = 12						; size = 4
_nError$1$ = 12						; size = 4
