; Listing generated by Microsoft (R) Optimizing Compiler Version 19.44.35225.0 

	TITLE	C:\IAGOS\server\v18\Source\Output\WorldServer\Release\MoverEquip.obj
	.686P
	.XMM
	include listing.inc
	.model	flat

INCLUDELIB LIBCMT
INCLUDELIB OLDNAMES

PUBLIC	?nMaleHairColor@@3PAY02EA			; nMaleHairColor
PUBLIC	?nFeMaleHairColor@@3PAY02EA			; nFeMaleHairColor
CONST	SEGMENT
?piecewise_construct@std@@3Upiecewise_construct_t@1@B	ORG $+1 ; std::piecewise_construct
CONST	ENDS
_DATA	SEGMENT
?nMaleHairColor@@3PAY02EA DB 090H			; nMaleHairColor
	DB	063H
	DB	065H
	DB	064H
	DB	06bH
	DB	07dH
	DB	09eH
	DB	077H
	DB	06dH
	DB	0c7H
	DB	09cH
	DB	064H
	DB	064H
	DB	07bH
	DB	075H
	DB	064H
	DB	064H
	DB	064H
	DB	064H
	DB	064H
	DB	064H
	DB	064H
	DB	064H
	DB	064H
	DB	064H
	DB	064H
	DB	064H
	DB	064H
	DB	064H
	DB	064H
	ORG $+2
?nFeMaleHairColor@@3PAY02EA DB 0faH			; nFeMaleHairColor
	DB	0faH
	DB	05aH
	DB	0faH
	DB	0faH
	DB	05aH
	DB	093H
	DB	076H
	DB	067H
	DB	096H
	DB	064H
	DB	055H
	DB	0d5H
	DB	082H
	DB	064H
	DB	064H
	DB	064H
	DB	064H
	DB	064H
	DB	064H
	DB	064H
	DB	064H
	DB	064H
	DB	064H
	DB	064H
	DB	064H
	DB	064H
	DB	064H
	DB	064H
	DB	064H
_DATA	ENDS
PUBLIC	?__empty_global_delete@@YAXPAX@Z		; __empty_global_delete
PUBLIC	?__empty_global_delete@@YAXPAXI@Z		; __empty_global_delete
PUBLIC	___local_stdio_printf_options
PUBLIC	_sprintf
PUBLIC	??0D3DXVECTOR3@@QAE@XZ				; D3DXVECTOR3::D3DXVECTOR3
PUBLIC	??0_LogItemInfo@@QAE@XZ				; _LogItemInfo::_LogItemInfo
PUBLIC	?GetPropA@CItemElem@@QAEPAUItemProp@@XZ		; CItemElem::GetPropA
PUBLIC	?GetAt@?$CItemContainer@VCItemElem@@@@QAEPAVCItemElem@@K@Z ; CItemContainer<CItemElem>::GetAt
PUBLIC	?DoEquip@?$CItemContainer@VCItemElem@@@@QAEHKK@Z ; CItemContainer<CItemElem>::DoEquip
PUBLIC	?UnEquip@?$CItemContainer@VCItemElem@@@@QAEHK@Z	; CItemContainer<CItemElem>::UnEquip
PUBLIC	?IsEquip@?$CItemContainer@VCItemElem@@@@QAEHK@Z	; CItemContainer<CItemElem>::IsEquip
PUBLIC	?GetEquip@?$CItemContainer@VCItemElem@@@@QAEPAVCItemElem@@K@Z ; CItemContainer<CItemElem>::GetEquip
PUBLIC	?Swap@?$CItemContainer@VCItemElem@@@@QAEXKK@Z	; CItemContainer<CItemElem>::Swap
PUBLIC	?GetAtId@?$CItemContainer@VCItemElem@@@@QAEPAVCItemElem@@K@Z ; CItemContainer<CItemElem>::GetAtId
PUBLIC	?RemoveAtId@?$CItemContainer@VCItemElem@@@@QAEXK@Z ; CItemContainer<CItemElem>::RemoveAtId
PUBLIC	?Swap2@?$CItemContainer@VCItemElem@@@@AAEXKK@Z	; CItemContainer<CItemElem>::Swap2
PUBLIC	?UpdateParts@CMover@@SAXHHHHHPAU_EQUIP_INFO@@PAVCModelObject@@PAV?$CItemContainer@VCItemElem@@@@HPAV1@@Z ; CMover::UpdateParts
PUBLIC	?DoEquip@CMover@@SAHHHPAVCItemElem@@HABU_EQUIP_INFO@@PAV?$CItemContainer@VCItemElem@@@@PAU3@PAVCModelObject@@HPAV1@@Z ; CMover::DoEquip
PUBLIC	?ClearEquipInfo@CMover@@QAEXXZ			; CMover::ClearEquipInfo
PUBLIC	?RedoEquip@CMover@@QAEXHH@Z			; CMover::RedoEquip
PUBLIC	?UpdateParts@CMover@@QAEXH@Z			; CMover::UpdateParts
PUBLIC	?InvalidEquipOff@CMover@@QAEHH@Z		; CMover::InvalidEquipOff
PUBLIC	?DoEquip@CMover@@QAEHPAVCItemElem@@HH@Z		; CMover::DoEquip
PUBLIC	?IsEquipAble@CMover@@QAEHPAVCItemElem@@H@Z	; CMover::IsEquipAble
PUBLIC	?IsUnEquipAble@CMover@@QAEHPAUItemProp@@@Z	; CMover::IsUnEquipAble
PUBLIC	?SetDestParamEquip@CMover@@QAEXPAUItemProp@@PAVCItemElem@@H@Z ; CMover::SetDestParamEquip
PUBLIC	?ResetDestParamEquip@CMover@@QAEXPAUItemProp@@PAVCItemElem@@@Z ; CMover::ResetDestParamEquip
PUBLIC	?SetHair@CMover@@QAEXH@Z			; CMover::SetHair
PUBLIC	?SetHairColor@CMover@@QAEXK@Z			; CMover::SetHairColor
PUBLIC	?SetHairColor@CMover@@QAEXMMM@Z			; CMover::SetHairColor
PUBLIC	?SetHead@CMover@@QAEXH@Z			; CMover::SetHead
PUBLIC	?SetSkinSet@CMover@@QAEXH@Z			; CMover::SetSkinSet
PUBLIC	?PickupGoldCore@CMover@@QAEXH@Z			; CMover::PickupGoldCore
PUBLIC	?PickupGold@CMover@@QAEXHH@Z			; CMover::PickupGold
PUBLIC	?DropGold@CMover@@QAEPAVCItem@@KABUD3DXVECTOR3@@H@Z ; CMover::DropGold
PUBLIC	?UnequipRide@CMover@@QAEXXZ			; CMover::UnequipRide
PUBLIC	?EquipItem@CMover@@QAEXPAVCItemElem@@HH@Z	; CMover::EquipItem
PUBLIC	?DoUseEquipmentItem@CMover@@QAEHPAVCItemElem@@KH@Z ; CMover::DoUseEquipmentItem
PUBLIC	?GetSelfDST@@YAHE@Z				; GetSelfDST
PUBLIC	?GetStrongDST@@YAHE@Z				; GetStrongDST
PUBLIC	?GetWeakDST@@YAHE@Z				; GetWeakDST
PUBLIC	?GetInventoryProp@@YAPAUItemProp@@PAU_EQUIP_INFO@@PAV?$CItemContainer@VCItemElem@@@@H@Z ; GetInventoryProp
PUBLIC	?_OptionsStorage@?1??__local_stdio_printf_options@@9@4_KA ; `__local_stdio_printf_options'::`2'::_OptionsStorage
PUBLIC	??_C@_02DPKJAMEF@?$CFd@				; `string'
PUBLIC	??_C@_01CKDDGHAB@D@				; `string'
PUBLIC	??_C@_00CNPNBAHC@@				; `string'
PUBLIC	??_C@_0BM@HMFGHCP@?$CFs?5min?3?$CFd?0?5max?3?$CFd?0?5index?3?$CFd@ ; `string'
PUBLIC	??_C@_0BI@BEIFNGEL@GetItemProp?5range_error@	; `string'
PUBLIC	??_C@_0BJ@GKPOBPPI@GetMoverProp?5range_error@	; `string'
PUBLIC	??_C@_0BG@JBMGFBFC@Part_maleHair?$CF02d?4o3d@	; `string'
PUBLIC	??_C@_0BI@JFPGNEBG@Part_femaleHair?$CF02d?4o3d@	; `string'
PUBLIC	??_C@_0BG@CKLHGKPA@Part_maleHair?$CF02d?4dds@	; `string'
PUBLIC	??_C@_0BI@COIHOPLE@Part_femaleHair?$CF02d?4dds@	; `string'
PUBLIC	??_C@_0BE@CFLEBCFF@Part_maleHair01?4dds@	; `string'
PUBLIC	??_C@_0BG@IINDKLJA@Part_femaleHair01?4dds@	; `string'
PUBLIC	??_C@_0BG@CLDHKMH@Part_maleHead?$CF02d?4o3d@	; `string'
PUBLIC	??_C@_0BI@GIDPPID@Part_femaleHead?$CF02d?4o3d@	; `string'
PUBLIC	??_C@_0CF@DJOHAJCE@CMover?3?3UpdateParts?5?3?5pModel?5is@ ; `string'
PUBLIC	??_C@_04FPLDHIIH@part@				; `string'
PUBLIC	??_C@_0BD@FANBKNEH@Part_maleUpper?4o3d@		; `string'
PUBLIC	??_C@_0BF@FAOACOCN@Part_femaleUpper?4o3d@	; `string'
PUBLIC	??_C@_0BD@PCNGIDNM@Part_maleLower?4o3d@		; `string'
PUBLIC	??_C@_0BF@PCOHAALG@Part_femaleLower?4o3d@	; `string'
PUBLIC	??_C@_0BC@MBDHHPEB@Part_maleHand?4o3d@		; `string'
PUBLIC	??_C@_0BE@PALEBFEB@Part_femaleHand?4o3d@	; `string'
PUBLIC	??_C@_0BC@LJNOLPMO@Part_maleFoot?4o3d@		; `string'
PUBLIC	??_C@_0BE@IIFNNFMO@Part_femaleFoot?4o3d@	; `string'
PUBLIC	??_C@_0DJ@KPKAOEGE@C?3?2IAGOS?2server?2v18?2Source?2Sour@ ; `string'
PUBLIC	??_C@_05DIALNFFA@?$CFs?5?$CFd@			; `string'
PUBLIC	??_C@_0BH@NHGMHOG@Part_maleUpper?$CF02d?4dds@	; `string'
PUBLIC	??_C@_0BJ@HMMDHCOK@Part_femaleUpper?$CF02d?4dds@ ; `string'
PUBLIC	??_C@_0BF@MFIGMCKI@Part_maleUpper01?4dds@	; `string'
PUBLIC	??_C@_0BH@COCFJDCO@Part_femaleUpper01?4dds@	; `string'
PUBLIC	??_C@_0BH@CCHNJOKK@Part_maleLower?$CF02d?4dds@	; `string'
PUBLIC	??_C@_0BJ@FDMICLKG@Part_femaleLower?$CF02d?4dds@ ; `string'
PUBLIC	??_C@_0BF@ILOFDOLB@Part_maleLower01?4dds@	; `string'
PUBLIC	??_C@_0BH@GAEGGPDH@Part_femaleLower01?4dds@	; `string'
PUBLIC	??_C@_04OEDFLLKD@?$CC?$CFs?$CC@			; `string'
PUBLIC	??_C@_04PNFMAOFG@?$CC?$CFd?$CC@			; `string'
PUBLIC	??_C@_0BD@DBDFKDKF@?$CFs?5PickupGold?5?9?5?$CFd@ ; `string'
PUBLIC	??_C@_0CA@MKEDOMG@party?5pick?5money?5error?3?$CFs?5?$CFd?5?$CFd@ ; `string'
PUBLIC	??_C@_0BC@MDAJNMLM@?4?4?2PartyError?4txt@	; `string'
PUBLIC	??_C@_05OPEIBKFE@?$CFd?5?$CFs@			; `string'
PUBLIC	??_C@_01DGKLNCNG@R@				; `string'
PUBLIC	??_C@_06GKBINIEJ@GROUND@			; `string'
PUBLIC	??_C@_0N@GELFDHNG@CONTAINER?1?10@		; `string'
PUBLIC	??_C@_0BF@OJMCJNHH@GETEQUIP?1?1?$CFd?0?5?$CFd?0?5?$CFd@ ; `string'
PUBLIC	__real@3c23d70a
PUBLIC	__real@3e99999a
PUBLIC	__real@3f333333
PUBLIC	__real@3f50624de0000000
PUBLIC	__real@3f800000
PUBLIC	__real@3f99999a
PUBLIC	__real@437f0000
PUBLIC	__xmm@41f00000000000000000000000000000
PUBLIC	__xmm@7fffffffffffffff7fffffffffffffff
EXTRN	??2@YAPAXI@Z:PROC				; operator new
EXTRN	??3@YAXPAXI@Z:PROC				; operator delete
EXTRN	___stdio_common_vsprintf:PROC
EXTRN	_rand:PROC
EXTRN	__imp__timeGetTime@0:PROC
EXTRN	?FILEOUT@@YAXPBD0ZZ:PROC			; FILEOUT
EXTRN	?WriteError@@YAXPBDZZ:PROC			; WriteError
EXTRN	?Error@@YAPBDPBDZZ:PROC				; Error
EXTRN	?GetLanguage@@YAHXZ:PROC			; GetLanguage
EXTRN	?MakeModelName@CModelMng@@QAEXPADKK@Z:PROC	; CModelMng::MakeModelName
EXTRN	?MakePartsName@CModelMng@@QAEXPADPBDKH@Z:PROC	; CModelMng::MakePartsName
EXTRN	?UpdateBoundBox@CObj@@QAEHXZ:PROC		; CObj::UpdateBoundBox
EXTRN	?SetPos@CObj@@QAEXABUD3DXVECTOR3@@@Z:PROC	; CObj::SetPos
EXTRN	?SetAngle@CObj@@QAEXM@Z:PROC			; CObj::SetAngle
EXTRN	?SetDestParamUltimate@CUltimateWeapon@@QAEXPAVCMover@@PAVCItemElem@@HK@Z:PROC ; CUltimateWeapon::SetDestParamUltimate
EXTRN	?TakeOffParts@CModelObject@@QAEXH@Z:PROC	; CModelObject::TakeOffParts
EXTRN	?LoadElement@CModelObject@@QAEHPBDH@Z:PROC	; CModelObject::LoadElement
EXTRN	?SetParent@CModelObject@@QAEXHH@Z:PROC		; CModelObject::SetParent
EXTRN	?ChangeTexture@CModelObject@@QAEXHPBD0@Z:PROC	; CModelObject::ChangeTexture
EXTRN	?GetInstance@CAccessoryProperty@@SAPAV1@XZ:PROC	; CAccessoryProperty::GetInstance
EXTRN	?IsAccessory@CAccessoryProperty@@QAEHK@Z:PROC	; CAccessoryProperty::IsAccessory
EXTRN	?GetDst@CAccessoryProperty@@QAEPAV?$vector@U_SINGLE_DST@@V?$allocator@U_SINGLE_DST@@@std@@@std@@KH@Z:PROC ; CAccessoryProperty::GetDst
EXTRN	?GetLimitLevel@CItemElem@@QAEKXZ:PROC		; CItemElem::GetLimitLevel
EXTRN	?IsLimitLevel@CItemElem@@QAEHPAVCMover@@@Z:PROC	; CItemElem::IsLimitLevel
EXTRN	??0CItemElem@@QAE@XZ:PROC			; CItemElem::CItemElem
EXTRN	??0CItem@@QAE@XZ:PROC				; CItem::CItem
EXTRN	?RemoveBuff@CMover@@QAEXGG@Z:PROC		; CMover::RemoveBuff
EXTRN	?HasBuffByIk3@CMover@@QAEHK@Z:PROC		; CMover::HasBuffByIk3
EXTRN	?AddBuff@CMover@@QAEHGGKKK@Z:PROC		; CMover::AddBuff
EXTRN	?GetEquipItem@CMover@@QAEPAVCItemElem@@H@Z:PROC	; CMover::GetEquipItem
EXTRN	?GetEquipItemProp@CMover@@QAEPAUItemProp@@PAV?$CItemContainer@VCItemElem@@@@PAU_EQUIP_INFO@@H@Z:PROC ; CMover::GetEquipItemProp
EXTRN	?IsDisguise@CMover@@QAEHXZ:PROC			; CMover::IsDisguise
EXTRN	?UpdateParam@CMover@@QAEXXZ:PROC		; CMover::UpdateParam
EXTRN	?SetDestParam@CMover@@QAEXHHHH@Z:PROC		; CMover::SetDestParam
EXTRN	?SetDestParam@CMover@@QAEXHPAUItemProp@@H@Z:PROC ; CMover::SetDestParam
EXTRN	?ResetDestParam@CMover@@QAEXHHH@Z:PROC		; CMover::ResetDestParam
EXTRN	?GetName@CMover@@QAEPBDH@Z:PROC			; CMover::GetName
EXTRN	?IsInteriorityJob@CMover@@QAEHH@Z:PROC		; CMover::IsInteriorityJob
EXTRN	?GetJob@CMover@@QAEHXZ:PROC			; CMover::GetJob
EXTRN	?AddGold@CMover@@QAEHHH@Z:PROC			; CMover::AddGold
EXTRN	?GetSetItem@CMover@@QAEHPAVCItemElem@@@Z:PROC	; CMover::GetSetItem
EXTRN	?SetSetItemAvail@CMover@@QAEXH@Z:PROC		; CMover::SetSetItemAvail
EXTRN	?ResetSetItemAvail@CMover@@QAEXH@Z:PROC		; CMover::ResetSetItemAvail
EXTRN	?DestParamPiercingAvail@CMover@@QAEXPAVCItemElem@@H@Z:PROC ; CMover::DestParamPiercingAvail
EXTRN	?SetDestParamSetItem@CMover@@QAEXPAVCItemElem@@@Z:PROC ; CMover::SetDestParamSetItem
EXTRN	?ResetDestParamSetItem@CMover@@QAEXPAVCItemElem@@@Z:PROC ; CMover::ResetDestParamSetItem
EXTRN	?SetDestParamRandomOpt@CMover@@QAEXPAVCItemElem@@@Z:PROC ; CMover::SetDestParamRandomOpt
EXTRN	?ResetDestParamRandomOpt@CMover@@QAEXPAVCItemElem@@@Z:PROC ; CMover::ResetDestParamRandomOpt
EXTRN	?IsDropableState@CMover@@QAEHH@Z:PROC		; CMover::IsDropableState
EXTRN	?UpdateItem@CMover@@QAEXEDKK@Z:PROC		; CMover::UpdateItem
EXTRN	?IsValidArea@CMover@@QAEHPAV1@M@Z:PROC		; CMover::IsValidArea
EXTRN	?RemoveItem@CMover@@QAEXEF@Z:PROC		; CMover::RemoveItem
EXTRN	?IsItemRedyTime@CMover@@QAEHPAUItemProp@@KH@Z:PROC ; CMover::IsItemRedyTime
EXTRN	?SetSMMode@CMover@@QAEHHK@Z:PROC		; CMover::SetSMMode
EXTRN	?AddObj@CWorld@@QAEHPAVCObj@@HH@Z:PROC		; CWorld::AddObj
EXTRN	?GetHeightAttribute@CWorld@@QAEHMM@Z:PROC	; CWorld::GetHeightAttribute
EXTRN	?GetState@CFlyffEvent@@QAEEH@Z:PROC		; CFlyffEvent::GetState
EXTRN	?FindMember@CParty@@QAEHK@Z:PROC		; CParty::FindMember
EXTRN	?GetParty@CPartyMng@@QAEPAVCParty@@K@Z:PROC	; CPartyMng::GetParty
EXTRN	?DoSMItemEquip@CUser@@QAEXPAVCItemElem@@K@Z:PROC ; CUser::DoSMItemEquip
EXTRN	?DoSMItemUnEquip@CUser@@QAEXPAVCItemElem@@K@Z:PROC ; CUser::DoSMItemUnEquip
EXTRN	?AddDefinedText@CUser@@QAAXHPBDZZ:PROC		; CUser::AddDefinedText
EXTRN	?AddDefinedText@CUser@@QAEXH@Z:PROC		; CUser::AddDefinedText
EXTRN	?AddGoldText@CUser@@QAEXH@Z:PROC		; CUser::AddGoldText
EXTRN	?AddResistSMMode@CUser@@QAEXEEE@Z:PROC		; CUser::AddResistSMMode
EXTRN	?GetUserByPlayerID@CUserMng@@QAEPAVCUser@@K@Z:PROC ; CUserMng::GetUserByPlayerID
EXTRN	?AddDoEquip@CUserMng@@QAEXPAVCMover@@HPAVCItemElem@@E@Z:PROC ; CUserMng::AddDoEquip
EXTRN	?OnLogItem@CDPSrvr@@QAEXAAU_LogItemInfo@@PAVCItemElem@@H@Z:PROC ; CDPSrvr::OnLogItem
EXTRN	?RunItemScript@@YAHPAVCMover@@KW4ITEM_OP@@PAH@Z:PROC ; RunItemScript
EXTRN	@__security_check_cookie@4:PROC
EXTRN	___CxxFrameHandler3:PROC
EXTRN	__ftol3:PROC
EXTRN	_memset:PROC
EXTRN	?g_next@@3KA:DWORD				; g_next
EXTRN	?prj@@3VCProject@@A:BYTE			; prj
EXTRN	?g_eLocal@@3VCFlyffEvent@@A:BYTE		; g_eLocal
EXTRN	?g_UserMng@@3VCUserMng@@A:BYTE			; g_UserMng
EXTRN	?g_DPSrvr@@3VCDPSrvr@@A:BYTE			; g_DPSrvr
EXTRN	?g_PartyMng@@3VCPartyMng@@A:BYTE		; g_PartyMng
EXTRN	___security_cookie:DWORD
EXTRN	__fltused:DWORD
;	COMDAT ?_OptionsStorage@?1??__local_stdio_printf_options@@9@4_KA
_BSS	SEGMENT
?_OptionsStorage@?1??__local_stdio_printf_options@@9@4_KA DQ 01H DUP (?) ; `__local_stdio_printf_options'::`2'::_OptionsStorage
_BSS	ENDS
;	COMDAT __xmm@7fffffffffffffff7fffffffffffffff
CONST	SEGMENT
__xmm@7fffffffffffffff7fffffffffffffff DB 0ffH, 0ffH, 0ffH, 0ffH, 0ffH, 0ffH
	DB	0ffH, 07fH, 0ffH, 0ffH, 0ffH, 0ffH, 0ffH, 0ffH, 0ffH, 07fH
CONST	ENDS
;	COMDAT __xmm@41f00000000000000000000000000000
CONST	SEGMENT
__xmm@41f00000000000000000000000000000 DB 00H, 00H, 00H, 00H, 00H, 00H, 00H
	DB	00H, 00H, 00H, 00H, 00H, 00H, 00H, 0f0H, 'A'
CONST	ENDS
;	COMDAT __real@437f0000
CONST	SEGMENT
__real@437f0000 DD 0437f0000r			; 255
CONST	ENDS
;	COMDAT __real@3f99999a
CONST	SEGMENT
__real@3f99999a DD 03f99999ar			; 1.2
CONST	ENDS
;	COMDAT __real@3f800000
CONST	SEGMENT
__real@3f800000 DD 03f800000r			; 1
CONST	ENDS
;	COMDAT __real@3f50624de0000000
CONST	SEGMENT
__real@3f50624de0000000 DQ 03f50624de0000000r	; 0.001
CONST	ENDS
;	COMDAT __real@3f333333
CONST	SEGMENT
__real@3f333333 DD 03f333333r			; 0.7
CONST	ENDS
;	COMDAT __real@3e99999a
CONST	SEGMENT
__real@3e99999a DD 03e99999ar			; 0.3
CONST	ENDS
;	COMDAT __real@3c23d70a
CONST	SEGMENT
__real@3c23d70a DD 03c23d70ar			; 0.01
CONST	ENDS
;	COMDAT ??_C@_0BF@OJMCJNHH@GETEQUIP?1?1?$CFd?0?5?$CFd?0?5?$CFd@
CONST	SEGMENT
??_C@_0BF@OJMCJNHH@GETEQUIP?1?1?$CFd?0?5?$CFd?0?5?$CFd@ DB 'GETEQUIP//%d,'
	DB	' %d, %d', 00H				; `string'
CONST	ENDS
;	COMDAT ??_C@_0N@GELFDHNG@CONTAINER?1?10@
CONST	SEGMENT
??_C@_0N@GELFDHNG@CONTAINER?1?10@ DB 'CONTAINER//0', 00H ; `string'
CONST	ENDS
;	COMDAT ??_C@_06GKBINIEJ@GROUND@
CONST	SEGMENT
??_C@_06GKBINIEJ@GROUND@ DB 'GROUND', 00H		; `string'
CONST	ENDS
;	COMDAT ??_C@_01DGKLNCNG@R@
CONST	SEGMENT
??_C@_01DGKLNCNG@R@ DB 'R', 00H				; `string'
CONST	ENDS
;	COMDAT ??_C@_05OPEIBKFE@?$CFd?5?$CFs@
CONST	SEGMENT
??_C@_05OPEIBKFE@?$CFd?5?$CFs@ DB '%d %s', 00H		; `string'
CONST	ENDS
;	COMDAT ??_C@_0BC@MDAJNMLM@?4?4?2PartyError?4txt@
CONST	SEGMENT
??_C@_0BC@MDAJNMLM@?4?4?2PartyError?4txt@ DB '..\PartyError.txt', 00H ; `string'
CONST	ENDS
;	COMDAT ??_C@_0CA@MKEDOMG@party?5pick?5money?5error?3?$CFs?5?$CFd?5?$CFd@
CONST	SEGMENT
??_C@_0CA@MKEDOMG@party?5pick?5money?5error?3?$CFs?5?$CFd?5?$CFd@ DB 'par'
	DB	'ty pick money error:%s %d %d', 00H		; `string'
CONST	ENDS
;	COMDAT ??_C@_0BD@DBDFKDKF@?$CFs?5PickupGold?5?9?5?$CFd@
CONST	SEGMENT
??_C@_0BD@DBDFKDKF@?$CFs?5PickupGold?5?9?5?$CFd@ DB '%s PickupGold - %d', 00H ; `string'
CONST	ENDS
;	COMDAT ??_C@_04PNFMAOFG@?$CC?$CFd?$CC@
CONST	SEGMENT
??_C@_04PNFMAOFG@?$CC?$CFd?$CC@ DB '"%d"', 00H		; `string'
CONST	ENDS
;	COMDAT ??_C@_04OEDFLLKD@?$CC?$CFs?$CC@
CONST	SEGMENT
??_C@_04OEDFLLKD@?$CC?$CFs?$CC@ DB '"%s"', 00H		; `string'
CONST	ENDS
;	COMDAT ??_C@_0BH@GAEGGPDH@Part_femaleLower01?4dds@
CONST	SEGMENT
??_C@_0BH@GAEGGPDH@Part_femaleLower01?4dds@ DB 'Part_femaleLower01.dds', 00H ; `string'
CONST	ENDS
;	COMDAT ??_C@_0BF@ILOFDOLB@Part_maleLower01?4dds@
CONST	SEGMENT
??_C@_0BF@ILOFDOLB@Part_maleLower01?4dds@ DB 'Part_maleLower01.dds', 00H ; `string'
CONST	ENDS
;	COMDAT ??_C@_0BJ@FDMICLKG@Part_femaleLower?$CF02d?4dds@
CONST	SEGMENT
??_C@_0BJ@FDMICLKG@Part_femaleLower?$CF02d?4dds@ DB 'Part_femaleLower%02d'
	DB	'.dds', 00H					; `string'
CONST	ENDS
;	COMDAT ??_C@_0BH@CCHNJOKK@Part_maleLower?$CF02d?4dds@
CONST	SEGMENT
??_C@_0BH@CCHNJOKK@Part_maleLower?$CF02d?4dds@ DB 'Part_maleLower%02d.dds'
	DB	00H						; `string'
CONST	ENDS
;	COMDAT ??_C@_0BH@COCFJDCO@Part_femaleUpper01?4dds@
CONST	SEGMENT
??_C@_0BH@COCFJDCO@Part_femaleUpper01?4dds@ DB 'Part_femaleUpper01.dds', 00H ; `string'
CONST	ENDS
;	COMDAT ??_C@_0BF@MFIGMCKI@Part_maleUpper01?4dds@
CONST	SEGMENT
??_C@_0BF@MFIGMCKI@Part_maleUpper01?4dds@ DB 'Part_maleUpper01.dds', 00H ; `string'
CONST	ENDS
;	COMDAT ??_C@_0BJ@HMMDHCOK@Part_femaleUpper?$CF02d?4dds@
CONST	SEGMENT
??_C@_0BJ@HMMDHCOK@Part_femaleUpper?$CF02d?4dds@ DB 'Part_femaleUpper%02d'
	DB	'.dds', 00H					; `string'
CONST	ENDS
;	COMDAT ??_C@_0BH@NHGMHOG@Part_maleUpper?$CF02d?4dds@
CONST	SEGMENT
??_C@_0BH@NHGMHOG@Part_maleUpper?$CF02d?4dds@ DB 'Part_maleUpper%02d.dds', 00H ; `string'
CONST	ENDS
;	COMDAT ??_C@_05DIALNFFA@?$CFs?5?$CFd@
CONST	SEGMENT
??_C@_05DIALNFFA@?$CFs?5?$CFd@ DB '%s %d', 00H		; `string'
CONST	ENDS
;	COMDAT ??_C@_0DJ@KPKAOEGE@C?3?2IAGOS?2server?2v18?2Source?2Sour@
CONST	SEGMENT
??_C@_0DJ@KPKAOEGE@C?3?2IAGOS?2server?2v18?2Source?2Sour@ DB 'C:\IAGOS\se'
	DB	'rver\v18\Source\Source\_common\MoverEquip.cpp', 00H ; `string'
CONST	ENDS
;	COMDAT ??_C@_0BE@IIFNNFMO@Part_femaleFoot?4o3d@
CONST	SEGMENT
??_C@_0BE@IIFNNFMO@Part_femaleFoot?4o3d@ DB 'Part_femaleFoot.o3d', 00H ; `string'
CONST	ENDS
;	COMDAT ??_C@_0BC@LJNOLPMO@Part_maleFoot?4o3d@
CONST	SEGMENT
??_C@_0BC@LJNOLPMO@Part_maleFoot?4o3d@ DB 'Part_maleFoot.o3d', 00H ; `string'
CONST	ENDS
;	COMDAT ??_C@_0BE@PALEBFEB@Part_femaleHand?4o3d@
CONST	SEGMENT
??_C@_0BE@PALEBFEB@Part_femaleHand?4o3d@ DB 'Part_femaleHand.o3d', 00H ; `string'
CONST	ENDS
;	COMDAT ??_C@_0BC@MBDHHPEB@Part_maleHand?4o3d@
CONST	SEGMENT
??_C@_0BC@MBDHHPEB@Part_maleHand?4o3d@ DB 'Part_maleHand.o3d', 00H ; `string'
CONST	ENDS
;	COMDAT ??_C@_0BF@PCOHAALG@Part_femaleLower?4o3d@
CONST	SEGMENT
??_C@_0BF@PCOHAALG@Part_femaleLower?4o3d@ DB 'Part_femaleLower.o3d', 00H ; `string'
CONST	ENDS
;	COMDAT ??_C@_0BD@PCNGIDNM@Part_maleLower?4o3d@
CONST	SEGMENT
??_C@_0BD@PCNGIDNM@Part_maleLower?4o3d@ DB 'Part_maleLower.o3d', 00H ; `string'
CONST	ENDS
;	COMDAT ??_C@_0BF@FAOACOCN@Part_femaleUpper?4o3d@
CONST	SEGMENT
??_C@_0BF@FAOACOCN@Part_femaleUpper?4o3d@ DB 'Part_femaleUpper.o3d', 00H ; `string'
CONST	ENDS
;	COMDAT ??_C@_0BD@FANBKNEH@Part_maleUpper?4o3d@
CONST	SEGMENT
??_C@_0BD@FANBKNEH@Part_maleUpper?4o3d@ DB 'Part_maleUpper.o3d', 00H ; `string'
CONST	ENDS
;	COMDAT ??_C@_04FPLDHIIH@part@
CONST	SEGMENT
??_C@_04FPLDHIIH@part@ DB 'part', 00H			; `string'
CONST	ENDS
;	COMDAT ??_C@_0CF@DJOHAJCE@CMover?3?3UpdateParts?5?3?5pModel?5is@
CONST	SEGMENT
??_C@_0CF@DJOHAJCE@CMover?3?3UpdateParts?5?3?5pModel?5is@ DB 'CMover::Upd'
	DB	'ateParts : pModel is NULL', 00H		; `string'
CONST	ENDS
;	COMDAT ??_C@_0BI@GIDPPID@Part_femaleHead?$CF02d?4o3d@
CONST	SEGMENT
??_C@_0BI@GIDPPID@Part_femaleHead?$CF02d?4o3d@ DB 'Part_femaleHead%02d.o3'
	DB	'd', 00H					; `string'
CONST	ENDS
;	COMDAT ??_C@_0BG@CLDHKMH@Part_maleHead?$CF02d?4o3d@
CONST	SEGMENT
??_C@_0BG@CLDHKMH@Part_maleHead?$CF02d?4o3d@ DB 'Part_maleHead%02d.o3d', 00H ; `string'
CONST	ENDS
;	COMDAT ??_C@_0BG@IINDKLJA@Part_femaleHair01?4dds@
CONST	SEGMENT
??_C@_0BG@IINDKLJA@Part_femaleHair01?4dds@ DB 'Part_femaleHair01.dds', 00H ; `string'
CONST	ENDS
;	COMDAT ??_C@_0BE@CFLEBCFF@Part_maleHair01?4dds@
CONST	SEGMENT
??_C@_0BE@CFLEBCFF@Part_maleHair01?4dds@ DB 'Part_maleHair01.dds', 00H ; `string'
CONST	ENDS
;	COMDAT ??_C@_0BI@COIHOPLE@Part_femaleHair?$CF02d?4dds@
CONST	SEGMENT
??_C@_0BI@COIHOPLE@Part_femaleHair?$CF02d?4dds@ DB 'Part_femaleHair%02d.d'
	DB	'ds', 00H					; `string'
CONST	ENDS
;	COMDAT ??_C@_0BG@CKLHGKPA@Part_maleHair?$CF02d?4dds@
CONST	SEGMENT
??_C@_0BG@CKLHGKPA@Part_maleHair?$CF02d?4dds@ DB 'Part_maleHair%02d.dds', 00H ; `string'
CONST	ENDS
;	COMDAT ??_C@_0BI@JFPGNEBG@Part_femaleHair?$CF02d?4o3d@
CONST	SEGMENT
??_C@_0BI@JFPGNEBG@Part_femaleHair?$CF02d?4o3d@ DB 'Part_femaleHair%02d.o'
	DB	'3d', 00H					; `string'
CONST	ENDS
;	COMDAT ??_C@_0BG@JBMGFBFC@Part_maleHair?$CF02d?4o3d@
CONST	SEGMENT
??_C@_0BG@JBMGFBFC@Part_maleHair?$CF02d?4o3d@ DB 'Part_maleHair%02d.o3d', 00H ; `string'
CONST	ENDS
;	COMDAT ??_C@_0BJ@GKPOBPPI@GetMoverProp?5range_error@
CONST	SEGMENT
??_C@_0BJ@GKPOBPPI@GetMoverProp?5range_error@ DB 'GetMoverProp range_erro'
	DB	'r', 00H					; `string'
CONST	ENDS
;	COMDAT ??_C@_0BI@BEIFNGEL@GetItemProp?5range_error@
CONST	SEGMENT
??_C@_0BI@BEIFNGEL@GetItemProp?5range_error@ DB 'GetItemProp range_error', 00H ; `string'
CONST	ENDS
;	COMDAT ??_C@_0BM@HMFGHCP@?$CFs?5min?3?$CFd?0?5max?3?$CFd?0?5index?3?$CFd@
CONST	SEGMENT
??_C@_0BM@HMFGHCP@?$CFs?5min?3?$CFd?0?5max?3?$CFd?0?5index?3?$CFd@ DB '%s'
	DB	' min:%d, max:%d, index:%d', 00H		; `string'
CONST	ENDS
;	COMDAT ??_C@_00CNPNBAHC@@
CONST	SEGMENT
??_C@_00CNPNBAHC@@ DB 00H				; `string'
CONST	ENDS
;	COMDAT ??_C@_01CKDDGHAB@D@
CONST	SEGMENT
??_C@_01CKDDGHAB@D@ DB 'D', 00H				; `string'
CONST	ENDS
;	COMDAT ??_C@_02DPKJAMEF@?$CFd@
CONST	SEGMENT
??_C@_02DPKJAMEF@?$CFd@ DB '%d', 00H			; `string'
CONST	ENDS
;	COMDAT xdata$x
xdata$x	SEGMENT
__unwindtable$?DropGold@CMover@@QAEPAVCItem@@KABUD3DXVECTOR3@@H@Z DD 0ffffffffH
	DD	FLAT:__unwindfunclet$?DropGold@CMover@@QAEPAVCItem@@KABUD3DXVECTOR3@@H@Z$0
	DD	0ffffffffH
	DD	FLAT:__unwindfunclet$?DropGold@CMover@@QAEPAVCItem@@KABUD3DXVECTOR3@@H@Z$1
__ehfuncinfo$?DropGold@CMover@@QAEPAVCItem@@KABUD3DXVECTOR3@@H@Z DD 019930522H
	DD	02H
	DD	FLAT:__unwindtable$?DropGold@CMover@@QAEPAVCItem@@KABUD3DXVECTOR3@@H@Z
	DD	2 DUP(00H)
	DD	2 DUP(00H)
	DD	00H
	DD	01H
xdata$x	ENDS
; Function compile flags: /Ogtp
; File C:\IAGOS\server\v18\Source\Source\_common\MoverEquip.cpp
; File C:\IAGOS\server\v18\Source\Source\_Common\Project.h
; File C:\IAGOS\server\v18\Source\Source\_common\MoverEquip.cpp
; File C:\IAGOS\server\v18\Source\Source\_Common\Item.h
; File C:\IAGOS\server\v18\Source\Source\_Common\Project.h
; File C:\IAGOS\server\v18\Source\Source\_common\MoverEquip.cpp
;	COMDAT ?GetInventoryProp@@YAPAUItemProp@@PAU_EQUIP_INFO@@PAV?$CItemContainer@VCItemElem@@@@H@Z
_TEXT	SEGMENT
_pEquipInfo$ = 8					; size = 4
_pInventory$ = 12					; size = 4
_nParts$ = 16						; size = 4
?GetInventoryProp@@YAPAUItemProp@@PAU_EQUIP_INFO@@PAV?$CItemContainer@VCItemElem@@@@H@Z PROC ; GetInventoryProp, COMDAT

; 260  : {

  00000	55		 push	 ebp
  00001	8b ec		 mov	 ebp, esp

; 261  : 	CItemElem* pItemElem = NULL;
; 262  : 	ItemProp* pItemProp = NULL;
; 263  : 
; 264  : 	if( pInventory == NULL ) // fake only

  00003	8b 4d 0c	 mov	 ecx, DWORD PTR _pInventory$[ebp]
  00006	85 c9		 test	 ecx, ecx
  00008	75 2a		 jne	 SHORT $LN2@GetInvento

; 265  : 	{
; 266  : 		if( pEquipInfo[nParts].dwId != NULL_ID ) 

  0000a	8b 45 10	 mov	 eax, DWORD PTR _nParts$[ebp]
  0000d	8d 0c 40	 lea	 ecx, DWORD PTR [eax+eax*2]
  00010	8b 45 08	 mov	 eax, DWORD PTR _pEquipInfo$[ebp]
  00013	8b 0c 88	 mov	 ecx, DWORD PTR [eax+ecx*4]
  00016	83 f9 ff	 cmp	 ecx, -1
  00019	74 4b		 je	 SHORT $LN33@GetInvento
; File C:\IAGOS\server\v18\Source\Source\_Common\Project.h

; 1389 : 	VERIFY_RANGE_ASSERT( nIndex, 0, m_aPropItem.GetSize(), "GetItemProp range_error", NULL );

  0001b	a1 40 02 00 00	 mov	 eax, DWORD PTR ?prj@@3VCProject@@A+576
  00020	85 c9		 test	 ecx, ecx
  00022	78 2c		 js	 SHORT $LN26@GetInvento
  00024	3b c8		 cmp	 ecx, eax
  00026	7d 28		 jge	 SHORT $LN26@GetInvento
$LN37@GetInvento:
; File C:\IAGOS\server\v18\Source\Source\_common\MoverEquip.cpp

; 277  : }

  00028	73 3c		 jae	 SHORT $LN33@GetInvento
  0002a	a1 30 02 00 00	 mov	 eax, DWORD PTR ?prj@@3VCProject@@A+560
  0002f	8b 04 88	 mov	 eax, DWORD PTR [eax+ecx*4]
  00032	5d		 pop	 ebp
  00033	c3		 ret	 0
$LN2@GetInvento:

; 267  : 			pItemProp = prj.GetItemProp( pEquipInfo[nParts].dwId );
; 268  : 	}
; 269  : 	else
; 270  : 	{
; 271  : 		pItemElem = pInventory->GetEquip( nParts );

  00034	ff 75 10	 push	 DWORD PTR _nParts$[ebp]
  00037	e8 00 00 00 00	 call	 ?GetEquip@?$CItemContainer@VCItemElem@@@@QAEPAVCItemElem@@K@Z ; CItemContainer<CItemElem>::GetEquip

; 272  : 		if( pItemElem )

  0003c	85 c0		 test	 eax, eax
  0003e	74 26		 je	 SHORT $LN33@GetInvento
; File C:\IAGOS\server\v18\Source\Source\_Common\Item.h

; 230  : 	ItemProp*	GetProp()	{	return prj.GetItemProp( m_dwItemId );	}

  00040	8b 48 0c	 mov	 ecx, DWORD PTR [eax+12]
; File C:\IAGOS\server\v18\Source\Source\_Common\Project.h

; 1389 : 	VERIFY_RANGE_ASSERT( nIndex, 0, m_aPropItem.GetSize(), "GetItemProp range_error", NULL );

  00043	a1 40 02 00 00	 mov	 eax, DWORD PTR ?prj@@3VCProject@@A+576
  00048	85 c9		 test	 ecx, ecx
  0004a	78 04		 js	 SHORT $LN26@GetInvento
  0004c	3b c8		 cmp	 ecx, eax
  0004e	7c d8		 jl	 SHORT $LN37@GetInvento
$LN26@GetInvento:
; File C:\IAGOS\server\v18\Source\Source\_common\MoverEquip.cpp

; 277  : }

  00050	51		 push	 ecx
  00051	50		 push	 eax
  00052	6a 00		 push	 0
  00054	68 00 00 00 00	 push	 OFFSET ??_C@_0BI@BEIFNGEL@GetItemProp?5range_error@
  00059	68 00 00 00 00	 push	 OFFSET ??_C@_0BM@HMFGHCP@?$CFs?5min?3?$CFd?0?5max?3?$CFd?0?5index?3?$CFd@
  0005e	e8 00 00 00 00	 call	 ?Error@@YAPBDPBDZZ	; Error
  00063	83 c4 14	 add	 esp, 20			; 00000014H
$LN33@GetInvento:
  00066	33 c0		 xor	 eax, eax
  00068	5d		 pop	 ebp
  00069	c3		 ret	 0
?GetInventoryProp@@YAPAUItemProp@@PAU_EQUIP_INFO@@PAV?$CItemContainer@VCItemElem@@@@H@Z ENDP ; GetInventoryProp
_TEXT	ENDS
; Function compile flags: /Ogtp
; File C:\IAGOS\server\v18\Source\Source\_common\MoverEquip.cpp
;	COMDAT ?GetWeakDST@@YAHE@Z
_TEXT	SEGMENT
_type$ = 8						; size = 1
?GetWeakDST@@YAHE@Z PROC				; GetWeakDST, COMDAT

; 123  : {

  00000	55		 push	 ebp
  00001	8b ec		 mov	 ebp, esp

; 124  : 	switch( type )

  00003	0f b6 45 08	 movzx	 eax, BYTE PTR _type$[ebp]
  00007	48		 dec	 eax
  00008	83 f8 04	 cmp	 eax, 4
  0000b	77 23		 ja	 SHORT $LN2@GetWeakDST
  0000d	ff 24 85 00 00
	00 00		 jmp	 DWORD PTR $LN10@GetWeakDST[eax*4]
$LN4@GetWeakDST:

; 125  : 	{
; 126  : 		case SAI79::FIRE:
; 127  : 			return DST_RESIST_WATER;

  00014	b8 20 00 00 00	 mov	 eax, 32			; 00000020H

; 138  : }

  00019	5d		 pop	 ebp
  0001a	c3		 ret	 0
$LN5@GetWeakDST:

; 128  : 		case SAI79::WATER:
; 129  : 			return DST_RESIST_ELECTRICITY;

  0001b	b8 1c 00 00 00	 mov	 eax, 28			; 0000001cH

; 138  : }

  00020	5d		 pop	 ebp
  00021	c3		 ret	 0
$LN7@GetWeakDST:

; 130  : 		case SAI79::WIND:
; 131  : 			return DST_RESIST_FIRE;
; 132  : 		case SAI79::ELECTRICITY:
; 133  : 			return DST_RESIST_EARTH;

  00022	b8 21 00 00 00	 mov	 eax, 33			; 00000021H

; 138  : }

  00027	5d		 pop	 ebp
  00028	c3		 ret	 0
$LN8@GetWeakDST:

; 134  : 		case SAI79::EARTH:
; 135  : 			return DST_RESIST_WIND;

  00029	b8 1f 00 00 00	 mov	 eax, 31			; 0000001fH

; 138  : }

  0002e	5d		 pop	 ebp
  0002f	c3		 ret	 0
$LN2@GetWeakDST:

; 136  : 	}
; 137  : 	return DST_RESIST_FIRE;

  00030	b8 1e 00 00 00	 mov	 eax, 30			; 0000001eH

; 138  : }

  00035	5d		 pop	 ebp
  00036	c3		 ret	 0
  00037	90		 npad	 1
$LN10@GetWeakDST:
  00038	00 00 00 00	 DD	 $LN4@GetWeakDST
  0003c	00 00 00 00	 DD	 $LN5@GetWeakDST
  00040	00 00 00 00	 DD	 $LN7@GetWeakDST
  00044	00 00 00 00	 DD	 $LN2@GetWeakDST
  00048	00 00 00 00	 DD	 $LN8@GetWeakDST
?GetWeakDST@@YAHE@Z ENDP				; GetWeakDST
_TEXT	ENDS
; Function compile flags: /Ogtp
; File C:\IAGOS\server\v18\Source\Source\_common\MoverEquip.cpp
;	COMDAT ?GetStrongDST@@YAHE@Z
_TEXT	SEGMENT
_type$ = 8						; size = 1
?GetStrongDST@@YAHE@Z PROC				; GetStrongDST, COMDAT

; 105  : {

  00000	55		 push	 ebp
  00001	8b ec		 mov	 ebp, esp

; 106  : 	switch( type )

  00003	0f b6 45 08	 movzx	 eax, BYTE PTR _type$[ebp]
  00007	48		 dec	 eax
  00008	83 f8 04	 cmp	 eax, 4
  0000b	77 23		 ja	 SHORT $LN2@GetStrongD
  0000d	ff 24 85 00 00
	00 00		 jmp	 DWORD PTR $LN10@GetStrongD[eax*4]
$LN4@GetStrongD:

; 107  : 	{
; 108  : 		case SAI79::FIRE:
; 109  : 			return DST_RESIST_WIND;

  00014	b8 1f 00 00 00	 mov	 eax, 31			; 0000001fH

; 120  : }

  00019	5d		 pop	 ebp
  0001a	c3		 ret	 0
$LN6@GetStrongD:

; 110  : 		case SAI79::WATER:
; 111  : 			return DST_RESIST_FIRE;
; 112  : 		case SAI79::WIND:
; 113  : 			return DST_RESIST_EARTH;

  0001b	b8 21 00 00 00	 mov	 eax, 33			; 00000021H

; 120  : }

  00020	5d		 pop	 ebp
  00021	c3		 ret	 0
$LN7@GetStrongD:

; 114  : 		case SAI79::ELECTRICITY:
; 115  : 			return DST_RESIST_WATER;

  00022	b8 20 00 00 00	 mov	 eax, 32			; 00000020H

; 120  : }

  00027	5d		 pop	 ebp
  00028	c3		 ret	 0
$LN8@GetStrongD:

; 116  : 		case SAI79::EARTH:
; 117  : 			return DST_RESIST_ELECTRICITY;

  00029	b8 1c 00 00 00	 mov	 eax, 28			; 0000001cH

; 120  : }

  0002e	5d		 pop	 ebp
  0002f	c3		 ret	 0
$LN2@GetStrongD:

; 118  : 	}
; 119  : 	return DST_RESIST_FIRE;

  00030	b8 1e 00 00 00	 mov	 eax, 30			; 0000001eH

; 120  : }

  00035	5d		 pop	 ebp
  00036	c3		 ret	 0
  00037	90		 npad	 1
$LN10@GetStrongD:
  00038	00 00 00 00	 DD	 $LN4@GetStrongD
  0003c	00 00 00 00	 DD	 $LN2@GetStrongD
  00040	00 00 00 00	 DD	 $LN7@GetStrongD
  00044	00 00 00 00	 DD	 $LN6@GetStrongD
  00048	00 00 00 00	 DD	 $LN8@GetStrongD
?GetStrongDST@@YAHE@Z ENDP				; GetStrongDST
_TEXT	ENDS
; Function compile flags: /Ogtp
; File C:\IAGOS\server\v18\Source\Source\_common\MoverEquip.cpp
;	COMDAT ?GetSelfDST@@YAHE@Z
_TEXT	SEGMENT
_type$ = 8						; size = 1
?GetSelfDST@@YAHE@Z PROC				; GetSelfDST, COMDAT

; 87   : {

  00000	55		 push	 ebp
  00001	8b ec		 mov	 ebp, esp

; 88   : 	switch( type )

  00003	0f b6 45 08	 movzx	 eax, BYTE PTR _type$[ebp]
  00007	48		 dec	 eax
  00008	83 f8 04	 cmp	 eax, 4
  0000b	77 23		 ja	 SHORT $LN2@GetSelfDST
  0000d	ff 24 85 00 00
	00 00		 jmp	 DWORD PTR $LN10@GetSelfDST[eax*4]
$LN5@GetSelfDST:

; 89   : 	{
; 90   : 		case SAI79::FIRE:
; 91   : 			return DST_RESIST_FIRE;
; 92   : 		case SAI79::WATER:
; 93   : 			return DST_RESIST_WATER;

  00014	b8 20 00 00 00	 mov	 eax, 32			; 00000020H

; 102  : }

  00019	5d		 pop	 ebp
  0001a	c3		 ret	 0
$LN6@GetSelfDST:

; 94   : 		case SAI79::WIND:
; 95   : 			return DST_RESIST_WIND; 

  0001b	b8 1f 00 00 00	 mov	 eax, 31			; 0000001fH

; 102  : }

  00020	5d		 pop	 ebp
  00021	c3		 ret	 0
$LN7@GetSelfDST:

; 96   : 		case SAI79::ELECTRICITY:
; 97   : 			return DST_RESIST_ELECTRICITY;

  00022	b8 1c 00 00 00	 mov	 eax, 28			; 0000001cH

; 102  : }

  00027	5d		 pop	 ebp
  00028	c3		 ret	 0
$LN8@GetSelfDST:

; 98   : 		case SAI79::EARTH:
; 99   : 			return DST_RESIST_EARTH;

  00029	b8 21 00 00 00	 mov	 eax, 33			; 00000021H

; 102  : }

  0002e	5d		 pop	 ebp
  0002f	c3		 ret	 0
$LN2@GetSelfDST:

; 100  : 	}
; 101  : 	return DST_RESIST_FIRE;

  00030	b8 1e 00 00 00	 mov	 eax, 30			; 0000001eH

; 102  : }

  00035	5d		 pop	 ebp
  00036	c3		 ret	 0
  00037	90		 npad	 1
$LN10@GetSelfDST:
  00038	00 00 00 00	 DD	 $LN2@GetSelfDST
  0003c	00 00 00 00	 DD	 $LN5@GetSelfDST
  00040	00 00 00 00	 DD	 $LN7@GetSelfDST
  00044	00 00 00 00	 DD	 $LN6@GetSelfDST
  00048	00 00 00 00	 DD	 $LN8@GetSelfDST
?GetSelfDST@@YAHE@Z ENDP				; GetSelfDST
_TEXT	ENDS
; Function compile flags: /Ogtp
; File C:\IAGOS\server\v18\Source\Source\_common\MoverEquip.cpp
; File C:\IAGOS\server\v18\Source\Source\_Common\Item.h
; File C:\IAGOS\server\v18\Source\Source\_Common\Project.h
; File C:\IAGOS\server\v18\Source\Source\_Common\data.h
; File C:\IAGOS\server\v18\Source\Source\_Common\Project.h
; File C:\IAGOS\server\v18\Source\Source\_common\MoverEquip.cpp
; File C:\IAGOS\server\v18\Source\Source\_Common\Item.h
; File C:\IAGOS\server\v18\Source\Source\_Common\Project.h
; File C:\IAGOS\server\v18\Source\Source\_Common\data.h
; File C:\IAGOS\server\v18\Source\Source\_common\MoverEquip.cpp
; File C:\IAGOS\server\v18\Source\Source\_Common\Project.h
; File C:\IAGOS\server\v18\Source\Source\_common\MoverEquip.cpp
;	COMDAT ?DoUseEquipmentItem@CMover@@QAEHPAVCItemElem@@KH@Z
_TEXT	SEGMENT
_pItemElem$ = 8						; size = 4
_dwId$ = 12						; size = 4
_bEquip$1$ = 12						; size = 4
_nPart$ = 16						; size = 4
?DoUseEquipmentItem@CMover@@QAEHPAVCItemElem@@KH@Z PROC	; CMover::DoUseEquipmentItem, COMDAT
; _this$ = ecx

; 2603 : { 

  00000	55		 push	 ebp
  00001	8b ec		 mov	 ebp, esp
  00003	53		 push	 ebx
  00004	56		 push	 esi
  00005	8b d9		 mov	 ebx, ecx
  00007	57		 push	 edi

; 2604 : #ifdef __WORLDSERVER
; 2605 : 	BOOL bEquip	= !m_Inventory.IsEquip( dwId );	// equip

  00008	ff 75 0c	 push	 DWORD PTR _dwId$[ebp]
  0000b	8d 8b fc 0a 00
	00		 lea	 ecx, DWORD PTR [ebx+2812]
  00011	e8 00 00 00 00	 call	 ?IsEquip@?$CItemContainer@VCItemElem@@@@QAEHK@Z ; CItemContainer<CItemElem>::IsEquip
  00016	8b 7d 08	 mov	 edi, DWORD PTR _pItemElem$[ebp]
  00019	33 c9		 xor	 ecx, ecx
  0001b	85 c0		 test	 eax, eax
  0001d	0f 94 c1	 sete	 cl
  00020	89 4d 0c	 mov	 DWORD PTR _bEquip$1$[ebp], ecx

; 2606 : 	if( bEquip && IsItemRedyTime( pItemElem->GetProp(), pItemElem->m_dwObjId, TRUE ) == FALSE )

  00023	85 c0		 test	 eax, eax
  00025	75 49		 jne	 SHORT $LN36@DoUseEquip
; File C:\IAGOS\server\v18\Source\Source\_Common\Item.h

; 230  : 	ItemProp*	GetProp()	{	return prj.GetItemProp( m_dwItemId );	}

  00027	8b 4f 0c	 mov	 ecx, DWORD PTR [edi+12]
; File C:\IAGOS\server\v18\Source\Source\_Common\Project.h

; 1389 : 	VERIFY_RANGE_ASSERT( nIndex, 0, m_aPropItem.GetSize(), "GetItemProp range_error", NULL );

  0002a	a1 40 02 00 00	 mov	 eax, DWORD PTR ?prj@@3VCProject@@A+576
  0002f	85 c9		 test	 ecx, ecx
  00031	78 10		 js	 SHORT $LN15@DoUseEquip
  00033	3b c8		 cmp	 ecx, eax
  00035	7d 0c		 jge	 SHORT $LN15@DoUseEquip
; File C:\IAGOS\server\v18\Source\Source\_Common\data.h

; 270  : 	if( dwIndex >= (DWORD)m_nMaxIndex )

  00037	73 20		 jae	 SHORT $LN50@DoUseEquip

; 272  : 	return (T*) m_apOffset[ dwIndex ];

  00039	a1 30 02 00 00	 mov	 eax, DWORD PTR ?prj@@3VCProject@@A+560
  0003e	8b 04 88	 mov	 eax, DWORD PTR [eax+ecx*4]
; File C:\IAGOS\server\v18\Source\Source\_Common\Project.h

; 1390 : 	return m_aPropItem.GetAt( nIndex ); 

  00041	eb 18		 jmp	 SHORT $LN10@DoUseEquip
$LN15@DoUseEquip:

; 579  : 	LPCTSTR szErr = Error( _T( "%s min:%d, max:%d, index:%d" ), szMsg, nMin, nMax, nIndex ); 

  00043	51		 push	 ecx
  00044	50		 push	 eax
  00045	6a 00		 push	 0
  00047	68 00 00 00 00	 push	 OFFSET ??_C@_0BI@BEIFNGEL@GetItemProp?5range_error@
  0004c	68 00 00 00 00	 push	 OFFSET ??_C@_0BM@HMFGHCP@?$CFs?5min?3?$CFd?0?5max?3?$CFd?0?5index?3?$CFd@
  00051	e8 00 00 00 00	 call	 ?Error@@YAPBDPBDZZ	; Error
  00056	83 c4 14	 add	 esp, 20			; 00000014H
$LN50@DoUseEquip:
; File C:\IAGOS\server\v18\Source\Source\_common\MoverEquip.cpp

; 2606 : 	if( bEquip && IsItemRedyTime( pItemElem->GetProp(), pItemElem->m_dwObjId, TRUE ) == FALSE )

  00059	33 c0		 xor	 eax, eax
$LN10@DoUseEquip:
  0005b	6a 01		 push	 1
  0005d	ff 77 04	 push	 DWORD PTR [edi+4]
  00060	8b cb		 mov	 ecx, ebx
  00062	50		 push	 eax
  00063	e8 00 00 00 00	 call	 ?IsItemRedyTime@CMover@@QAEHPAUItemProp@@KH@Z ; CMover::IsItemRedyTime
  00068	85 c0		 test	 eax, eax
  0006a	0f 84 8a 00 00
	00		 je	 $LN6@DoUseEquip
$LN36@DoUseEquip:
; File C:\IAGOS\server\v18\Source\Source\_Common\Item.h

; 230  : 	ItemProp*	GetProp()	{	return prj.GetItemProp( m_dwItemId );	}

  00070	8b 4f 0c	 mov	 ecx, DWORD PTR [edi+12]
; File C:\IAGOS\server\v18\Source\Source\_Common\Project.h

; 1389 : 	VERIFY_RANGE_ASSERT( nIndex, 0, m_aPropItem.GetSize(), "GetItemProp range_error", NULL );

  00073	a1 40 02 00 00	 mov	 eax, DWORD PTR ?prj@@3VCProject@@A+576
  00078	85 c9		 test	 ecx, ecx
  0007a	78 68		 js	 SHORT $LN29@DoUseEquip
  0007c	3b c8		 cmp	 ecx, eax
  0007e	7d 64		 jge	 SHORT $LN29@DoUseEquip
; File C:\IAGOS\server\v18\Source\Source\_Common\data.h

; 270  : 	if( dwIndex >= (DWORD)m_nMaxIndex )

  00080	72 04		 jb	 SHORT $LN34@DoUseEquip

; 271  : 		return NULL;

  00082	33 f6		 xor	 esi, esi
  00084	eb 08		 jmp	 SHORT $LN33@DoUseEquip
$LN34@DoUseEquip:

; 272  : 	return (T*) m_apOffset[ dwIndex ];

  00086	a1 30 02 00 00	 mov	 eax, DWORD PTR ?prj@@3VCProject@@A+560
  0008b	8b 34 88	 mov	 esi, DWORD PTR [eax+ecx*4]
$LN33@DoUseEquip:
; File C:\IAGOS\server\v18\Source\Source\_common\MoverEquip.cpp

; 2611 : 	if( !pItemProp )

  0008e	85 f6		 test	 esi, esi
  00090	74 68		 je	 SHORT $LN6@DoUseEquip

; 2612 : 		return FALSE;
; 2613 : 		
; 2614 : 	if( pItemProp->dwParts != nPart && nPart != -1)

  00092	8b 7d 10	 mov	 edi, DWORD PTR _nPart$[ebp]
  00095	39 be a8 00 00
	00		 cmp	 DWORD PTR [esi+168], edi
  0009b	74 2d		 je	 SHORT $LN5@DoUseEquip
  0009d	83 ff ff	 cmp	 edi, -1
  000a0	74 28		 je	 SHORT $LN5@DoUseEquip

; 2615 : 	{
; 2616 : 		CItemElem* pTempElem = m_Inventory.GetAt( MAX_INVENTORY + nPart );

  000a2	8d 47 2a	 lea	 eax, DWORD PTR [edi+42]
  000a5	50		 push	 eax
  000a6	8d 8b fc 0a 00
	00		 lea	 ecx, DWORD PTR [ebx+2812]
  000ac	e8 00 00 00 00	 call	 ?GetAt@?$CItemContainer@VCItemElem@@@@QAEPAVCItemElem@@K@Z ; CItemContainer<CItemElem>::GetAt

; 2617 : 		if( !pTempElem || pTempElem->GetProp()->dwParts != pItemProp->dwParts )

  000b1	85 c0		 test	 eax, eax
  000b3	74 45		 je	 SHORT $LN6@DoUseEquip
  000b5	8b c8		 mov	 ecx, eax
  000b7	e8 00 00 00 00	 call	 ?GetPropA@CItemElem@@QAEPAUItemProp@@XZ ; CItemElem::GetPropA
  000bc	8b 80 a8 00 00
	00		 mov	 eax, DWORD PTR [eax+168]
  000c2	3b 86 a8 00 00
	00		 cmp	 eax, DWORD PTR [esi+168]
  000c8	75 30		 jne	 SHORT $LN6@DoUseEquip
$LN5@DoUseEquip:

; 2618 : 			return FALSE;
; 2619 : 	}
; 2620 : 	// END chipi_090731 - 클라이언트 변조시 문제 발생
; 2621 : 
; 2622 : 	EquipItem( pItemElem, bEquip, nPart );

  000ca	57		 push	 edi
  000cb	ff 75 0c	 push	 DWORD PTR _bEquip$1$[ebp]
  000ce	8b cb		 mov	 ecx, ebx
  000d0	ff 75 08	 push	 DWORD PTR _pItemElem$[ebp]
  000d3	e8 00 00 00 00	 call	 ?EquipItem@CMover@@QAEXPAVCItemElem@@HH@Z ; CMover::EquipItem
  000d8	5f		 pop	 edi

; 2626 : }

  000d9	5e		 pop	 esi
  000da	b8 01 00 00 00	 mov	 eax, 1
  000df	5b		 pop	 ebx
  000e0	5d		 pop	 ebp
  000e1	c2 0c 00	 ret	 12			; 0000000cH
$LN29@DoUseEquip:
; File C:\IAGOS\server\v18\Source\Source\_Common\Project.h

; 579  : 	LPCTSTR szErr = Error( _T( "%s min:%d, max:%d, index:%d" ), szMsg, nMin, nMax, nIndex ); 

  000e4	51		 push	 ecx
  000e5	50		 push	 eax
  000e6	6a 00		 push	 0
  000e8	68 00 00 00 00	 push	 OFFSET ??_C@_0BI@BEIFNGEL@GetItemProp?5range_error@
  000ed	68 00 00 00 00	 push	 OFFSET ??_C@_0BM@HMFGHCP@?$CFs?5min?3?$CFd?0?5max?3?$CFd?0?5index?3?$CFd@
  000f2	e8 00 00 00 00	 call	 ?Error@@YAPBDPBDZZ	; Error
  000f7	83 c4 14	 add	 esp, 20			; 00000014H
$LN6@DoUseEquip:
  000fa	5f		 pop	 edi
; File C:\IAGOS\server\v18\Source\Source\_common\MoverEquip.cpp

; 2626 : }

  000fb	5e		 pop	 esi
  000fc	33 c0		 xor	 eax, eax
  000fe	5b		 pop	 ebx
  000ff	5d		 pop	 ebp
  00100	c2 0c 00	 ret	 12			; 0000000cH
?DoUseEquipmentItem@CMover@@QAEHPAVCItemElem@@KH@Z ENDP	; CMover::DoUseEquipmentItem
_TEXT	ENDS
; Function compile flags: /Ogtp
; File C:\IAGOS\server\v18\Source\Source\_common\MoverEquip.cpp
; File C:\IAGOS\server\v18\Source\Source\_AIInterface\Action.h
; File C:\IAGOS\server\v18\Source\Source\_common\MoverEquip.cpp
; File C:\IAGOS\server\v18\Source\Source\_Common\Item.h
; File C:\IAGOS\server\v18\Source\Source\_Common\Project.h
; File C:\IAGOS\server\v18\Source\Source\_Common\data.h
; File C:\IAGOS\server\v18\Source\Source\_Common\Project.h
; File C:\IAGOS\server\v18\Source\Source\_common\MoverEquip.cpp
; File C:\IAGOS\server\v18\Source\Source\_Common\Item.h
; File C:\IAGOS\server\v18\Source\Source\_Common\Project.h
; File C:\IAGOS\server\v18\Source\Source\_Common\data.h
; File C:\IAGOS\server\v18\Source\Source\_Common\Project.h
; File C:\IAGOS\server\v18\Source\Source\_common\MoverEquip.cpp
;	COMDAT ?EquipItem@CMover@@QAEXPAVCItemElem@@HH@Z
_TEXT	SEGMENT
_pItemElem$ = 8						; size = 4
_bEquip$ = 12						; size = 4
_nPart$ = 16						; size = 4
?EquipItem@CMover@@QAEXPAVCItemElem@@HH@Z PROC		; CMover::EquipItem, COMDAT
; _this$ = ecx

; 2573 : {

  00000	55		 push	 ebp
  00001	8b ec		 mov	 ebp, esp
  00003	57		 push	 edi
  00004	8b f9		 mov	 edi, ecx

; 2574 : 	if( m_pActMover && m_pActMover->IsActAttack() )

  00006	8b 87 38 02 00
	00		 mov	 eax, DWORD PTR [edi+568]
  0000c	85 c0		 test	 eax, eax
  0000e	74 0d		 je	 SHORT $LN2@EquipItem
; File C:\IAGOS\server\v18\Source\Source\_AIInterface\Action.h

; 322  : 	BOOL			IsActAttack()		{ return m_dwState & OBJSTA_ATK_ALL; }

  00010	f7 40 04 00 00
	ff 00		 test	 DWORD PTR [eax+4], 16711680 ; 00ff0000H
; File C:\IAGOS\server\v18\Source\Source\_common\MoverEquip.cpp

; 2574 : 	if( m_pActMover && m_pActMover->IsActAttack() )

  00017	0f 85 bb 00 00
	00		 jne	 $LN4@EquipItem
$LN2@EquipItem:
  0001d	56		 push	 esi

; 2575 : 		return;
; 2576 : 
; 2577 : 	if( DoEquip( pItemElem, bEquip, nPart ) )

  0001e	ff 75 10	 push	 DWORD PTR _nPart$[ebp]
  00021	8b 75 08	 mov	 esi, DWORD PTR _pItemElem$[ebp]
  00024	ff 75 0c	 push	 DWORD PTR _bEquip$[ebp]
  00027	56		 push	 esi
  00028	e8 00 00 00 00	 call	 ?DoEquip@CMover@@QAEHPAVCItemElem@@HH@Z ; CMover::DoEquip
  0002d	85 c0		 test	 eax, eax
  0002f	0f 84 a2 00 00
	00		 je	 $LN47@EquipItem

; 2578 : 	{
; 2579 : 	#ifdef __WORLDSERVER
; 2580 : 		g_UserMng.AddDoEquip( this, nPart, pItemElem, bEquip );

  00035	ff 75 0c	 push	 DWORD PTR _bEquip$[ebp]
  00038	b9 00 00 00 00	 mov	 ecx, OFFSET ?g_UserMng@@3VCUserMng@@A ; g_UserMng
  0003d	56		 push	 esi
  0003e	ff 75 10	 push	 DWORD PTR _nPart$[ebp]
  00041	57		 push	 edi
  00042	e8 00 00 00 00	 call	 ?AddDoEquip@CUserMng@@QAEXPAVCMover@@HPAVCItemElem@@E@Z ; CUserMng::AddDoEquip
; File C:\IAGOS\server\v18\Source\Source\_Common\Item.h

; 230  : 	ItemProp*	GetProp()	{	return prj.GetItemProp( m_dwItemId );	}

  00047	8b 4e 0c	 mov	 ecx, DWORD PTR [esi+12]
; File C:\IAGOS\server\v18\Source\Source\_Common\Project.h

; 1389 : 	VERIFY_RANGE_ASSERT( nIndex, 0, m_aPropItem.GetSize(), "GetItemProp range_error", NULL );

  0004a	a1 40 02 00 00	 mov	 eax, DWORD PTR ?prj@@3VCProject@@A+576
  0004f	85 c9		 test	 ecx, ecx
  00051	78 11		 js	 SHORT $LN15@EquipItem
  00053	3b c8		 cmp	 ecx, eax
  00055	7d 0d		 jge	 SHORT $LN15@EquipItem
; File C:\IAGOS\server\v18\Source\Source\_Common\data.h

; 270  : 	if( dwIndex >= (DWORD)m_nMaxIndex )

  00057	8b 15 30 02 00
	00		 mov	 edx, DWORD PTR ?prj@@3VCProject@@A+560
  0005d	73 26		 jae	 SHORT $LN48@EquipItem

; 271  : 		return NULL;
; 272  : 	return (T*) m_apOffset[ dwIndex ];

  0005f	8b 0c 8a	 mov	 ecx, DWORD PTR [edx+ecx*4]
; File C:\IAGOS\server\v18\Source\Source\_Common\Project.h

; 1390 : 	return m_aPropItem.GetAt( nIndex ); 

  00062	eb 23		 jmp	 SHORT $LN10@EquipItem
$LN15@EquipItem:

; 579  : 	LPCTSTR szErr = Error( _T( "%s min:%d, max:%d, index:%d" ), szMsg, nMin, nMax, nIndex ); 

  00064	51		 push	 ecx
  00065	50		 push	 eax
  00066	6a 00		 push	 0
  00068	68 00 00 00 00	 push	 OFFSET ??_C@_0BI@BEIFNGEL@GetItemProp?5range_error@
  0006d	68 00 00 00 00	 push	 OFFSET ??_C@_0BM@HMFGHCP@?$CFs?5min?3?$CFd?0?5max?3?$CFd?0?5index?3?$CFd@
  00072	e8 00 00 00 00	 call	 ?Error@@YAPBDPBDZZ	; Error

; 1389 : 	VERIFY_RANGE_ASSERT( nIndex, 0, m_aPropItem.GetSize(), "GetItemProp range_error", NULL );

  00077	a1 40 02 00 00	 mov	 eax, DWORD PTR ?prj@@3VCProject@@A+576

; 579  : 	LPCTSTR szErr = Error( _T( "%s min:%d, max:%d, index:%d" ), szMsg, nMin, nMax, nIndex ); 

  0007c	83 c4 14	 add	 esp, 20			; 00000014H

; 1389 : 	VERIFY_RANGE_ASSERT( nIndex, 0, m_aPropItem.GetSize(), "GetItemProp range_error", NULL );

  0007f	8b 15 30 02 00
	00		 mov	 edx, DWORD PTR ?prj@@3VCProject@@A+560
$LN48@EquipItem:
; File C:\IAGOS\server\v18\Source\Source\_common\MoverEquip.cpp

; 2581 : 		if( pItemElem->GetProp()->dwParts == PARTS_RIDE && pItemElem->GetProp()->dwItemJob == JOB_VAGRANT && bEquip == FALSE )

  00085	33 c9		 xor	 ecx, ecx
$LN10@EquipItem:
  00087	83 b9 a8 00 00
	00 0d		 cmp	 DWORD PTR [ecx+168], 13	; 0000000dH
  0008e	75 47		 jne	 SHORT $LN47@EquipItem
; File C:\IAGOS\server\v18\Source\Source\_Common\Item.h

; 230  : 	ItemProp*	GetProp()	{	return prj.GetItemProp( m_dwItemId );	}

  00090	8b 4e 0c	 mov	 ecx, DWORD PTR [esi+12]
; File C:\IAGOS\server\v18\Source\Source\_Common\Project.h

; 1389 : 	VERIFY_RANGE_ASSERT( nIndex, 0, m_aPropItem.GetSize(), "GetItemProp range_error", NULL );

  00093	85 c9		 test	 ecx, ecx
  00095	78 0b		 js	 SHORT $LN29@EquipItem
  00097	3b c8		 cmp	 ecx, eax
  00099	7d 07		 jge	 SHORT $LN29@EquipItem
; File C:\IAGOS\server\v18\Source\Source\_Common\data.h

; 270  : 	if( dwIndex >= (DWORD)m_nMaxIndex )

  0009b	73 1b		 jae	 SHORT $LN49@EquipItem

; 271  : 		return NULL;
; 272  : 	return (T*) m_apOffset[ dwIndex ];

  0009d	8b 04 8a	 mov	 eax, DWORD PTR [edx+ecx*4]
; File C:\IAGOS\server\v18\Source\Source\_Common\Project.h

; 1390 : 	return m_aPropItem.GetAt( nIndex ); 

  000a0	eb 18		 jmp	 SHORT $LN24@EquipItem
$LN29@EquipItem:

; 579  : 	LPCTSTR szErr = Error( _T( "%s min:%d, max:%d, index:%d" ), szMsg, nMin, nMax, nIndex ); 

  000a2	51		 push	 ecx
  000a3	50		 push	 eax
  000a4	6a 00		 push	 0
  000a6	68 00 00 00 00	 push	 OFFSET ??_C@_0BI@BEIFNGEL@GetItemProp?5range_error@
  000ab	68 00 00 00 00	 push	 OFFSET ??_C@_0BM@HMFGHCP@?$CFs?5min?3?$CFd?0?5max?3?$CFd?0?5index?3?$CFd@
  000b0	e8 00 00 00 00	 call	 ?Error@@YAPBDPBDZZ	; Error
  000b5	83 c4 14	 add	 esp, 20			; 00000014H
$LN49@EquipItem:
; File C:\IAGOS\server\v18\Source\Source\_common\MoverEquip.cpp

; 2581 : 		if( pItemElem->GetProp()->dwParts == PARTS_RIDE && pItemElem->GetProp()->dwItemJob == JOB_VAGRANT && bEquip == FALSE )

  000b8	33 c0		 xor	 eax, eax
$LN24@EquipItem:
  000ba	83 78 7c 00	 cmp	 DWORD PTR [eax+124], 0
  000be	75 17		 jne	 SHORT $LN47@EquipItem
  000c0	83 7d 0c 00	 cmp	 DWORD PTR _bEquip$[ebp], 0
  000c4	75 11		 jne	 SHORT $LN47@EquipItem

; 2582 : //			( ( pItemElem->m_dwItemId == II_RID_RID_BOR_EVEINSHOVER || pItemElem->m_dwItemId == II_RID_RID_BOR_LADOLF ) && bEquip == FALSE )
; 2583 : 			RemoveItem( (BYTE)( pItemElem->m_dwObjId ), pItemElem->m_nItemNum );

  000c6	0f b7 46 74	 movzx	 eax, WORD PTR [esi+116]
  000ca	8b cf		 mov	 ecx, edi
  000cc	50		 push	 eax
  000cd	0f b6 46 04	 movzx	 eax, BYTE PTR [esi+4]
  000d1	50		 push	 eax
  000d2	e8 00 00 00 00	 call	 ?RemoveItem@CMover@@QAEXEF@Z ; CMover::RemoveItem
$LN47@EquipItem:
  000d7	5e		 pop	 esi
$LN4@EquipItem:
  000d8	5f		 pop	 edi

; 2584 : 	#endif // __WORLDSERVER
; 2585 : 	}
; 2586 : }

  000d9	5d		 pop	 ebp
  000da	c2 0c 00	 ret	 12			; 0000000cH
?EquipItem@CMover@@QAEXPAVCItemElem@@HH@Z ENDP		; CMover::EquipItem
_TEXT	ENDS
; Function compile flags: /Ogtp
; File C:\IAGOS\server\v18\Source\Source\_common\MoverEquip.cpp
;	COMDAT ?UnequipRide@CMover@@QAEXXZ
_TEXT	SEGMENT
?UnequipRide@CMover@@QAEXXZ PROC			; CMover::UnequipRide, COMDAT
; _this$ = ecx

; 2590 : {

  00000	56		 push	 esi
  00001	8b f1		 mov	 esi, ecx

; 2591 : 	if( IsPlayer() )

  00003	83 be 30 02 00
	00 00		 cmp	 DWORD PTR [esi+560], 0
  0000a	74 17		 je	 SHORT $LN3@UnequipRid

; 2592 : 	{
; 2593 : 		CItemElem* pItemElem = GetEquipItem( PARTS_RIDE );

  0000c	6a 0d		 push	 13			; 0000000dH
  0000e	e8 00 00 00 00	 call	 ?GetEquipItem@CMover@@QAEPAVCItemElem@@H@Z ; CMover::GetEquipItem

; 2594 : 		if( pItemElem )

  00013	85 c0		 test	 eax, eax
  00015	74 0c		 je	 SHORT $LN3@UnequipRid

; 2595 : 			EquipItem( pItemElem, FALSE, -1 );	// -1 파츠번호 

  00017	6a ff		 push	 -1
  00019	6a 00		 push	 0
  0001b	50		 push	 eax
  0001c	8b ce		 mov	 ecx, esi
  0001e	e8 00 00 00 00	 call	 ?EquipItem@CMover@@QAEXPAVCItemElem@@HH@Z ; CMover::EquipItem
$LN3@UnequipRid:

; 2596 : 	}
; 2597 : }

  00023	5e		 pop	 esi
  00024	c3		 ret	 0
?UnequipRide@CMover@@QAEXXZ ENDP			; CMover::UnequipRide
_TEXT	ENDS
; Function compile flags: /Ogtp
; File C:\IAGOS\server\v18\Source\Source\_common\MoverEquip.cpp
; File C:\IAGOS\server\v18\Source\Source\_Common\Project.h
; File C:\IAGOS\server\v18\Source\Source\_common\MoverEquip.cpp
; File C:\IAGOS\server\v18\Source\Source\_Common\Project.h
; File C:\IAGOS\server\v18\Source\Source\_Common\data.h
; File C:\IAGOS\server\v18\Source\Source\_common\MoverEquip.cpp
; File C:\IAGOS\server\v18\Source\Source\_Common\Project.h
; File C:\IAGOS\server\v18\Source\Source\_Common\data.h
; File C:\IAGOS\server\v18\Source\Source\_common\MoverEquip.cpp
; File C:\IAGOS\server\v18\Source\Source\_Common\Project.h
; File C:\IAGOS\server\v18\Source\Source\_Common\data.h
; File C:\IAGOS\server\v18\Source\Source\_common\MoverEquip.cpp
; File C:\IAGOS\server\v18\Source\Source\_Common\xUtil.h
; File C:\IAGOS\server\v18\Source\Source\_common\MoverEquip.cpp
;	COMDAT ?DropGold@CMover@@QAEPAVCItem@@KABUD3DXVECTOR3@@H@Z
_TEXT	SEGMENT
$T2 = -232						; size = 4
$T3 = -232						; size = 4
_pWorld$1$ = -228					; size = 4
_this$GSCopy$1$ = -224					; size = 4
_vPos$GSCopy$1$ = -220					; size = 4
_aLogItem$4 = -216					; size = 200
__$ArrayPad$ = -16					; size = 4
__$EHRec$ = -12						; size = 12
_dwGold$ = 8						; size = 4
_vPos$ = 12						; size = 4
_bPK$ = 16						; size = 4
?DropGold@CMover@@QAEPAVCItem@@KABUD3DXVECTOR3@@H@Z PROC ; CMover::DropGold, COMDAT
; _this$ = ecx

; 2435 : {

  00000	55		 push	 ebp
  00001	8b ec		 mov	 ebp, esp
  00003	6a ff		 push	 -1
  00005	68 00 00 00 00	 push	 __ehhandler$?DropGold@CMover@@QAEPAVCItem@@KABUD3DXVECTOR3@@H@Z
  0000a	64 a1 00 00 00
	00		 mov	 eax, DWORD PTR fs:0
  00010	50		 push	 eax
  00011	81 ec dc 00 00
	00		 sub	 esp, 220		; 000000dcH
  00017	a1 00 00 00 00	 mov	 eax, DWORD PTR ___security_cookie
  0001c	33 c5		 xor	 eax, ebp
  0001e	89 45 f0	 mov	 DWORD PTR __$ArrayPad$[ebp], eax
  00021	53		 push	 ebx
  00022	56		 push	 esi
  00023	57		 push	 edi
  00024	50		 push	 eax
  00025	8d 45 f4	 lea	 eax, DWORD PTR __$EHRec$[ebp]
  00028	64 a3 00 00 00
	00		 mov	 DWORD PTR fs:0, eax
  0002e	8b d9		 mov	 ebx, ecx
  00030	89 9d 20 ff ff
	ff		 mov	 DWORD PTR _this$GSCopy$1$[ebp], ebx
  00036	8b 45 0c	 mov	 eax, DWORD PTR _vPos$[ebp]

; 2436 : 	if( IsDropableState( bPK ) == FALSE )

  00039	ff 75 10	 push	 DWORD PTR _bPK$[ebp]
  0003c	89 85 24 ff ff
	ff		 mov	 DWORD PTR _vPos$GSCopy$1$[ebp], eax
  00042	e8 00 00 00 00	 call	 ?IsDropableState@CMover@@QAEHH@Z ; CMover::IsDropableState
  00047	85 c0		 test	 eax, eax
  00049	0f 84 9c 02 00
	00		 je	 $LN3@DropGold

; 2437 : 		return NULL;
; 2438 : 
; 2439 : 	CWorld *pWorld = GetWorld();
; 2440 : 
; 2441 : 	int nGold	= (int)dwGold;
; 2442 : 	if( nGold > 0 && nGold <= (int)GetGold() )

  0004f	8b 75 08	 mov	 esi, DWORD PTR _dwGold$[ebp]
  00052	8b bb 6c 01 00
	00		 mov	 edi, DWORD PTR [ebx+364]
  00058	89 bd 1c ff ff
	ff		 mov	 DWORD PTR _pWorld$1$[ebp], edi
  0005e	85 f6		 test	 esi, esi
  00060	0f 8e 85 02 00
	00		 jle	 $LN3@DropGold
  00066	3b b3 e0 14 00
	00		 cmp	 esi, DWORD PTR [ebx+5344]
  0006c	0f 8f 79 02 00
	00		 jg	 $LN3@DropGold

; 2443 : 	{
; 2444 : 		if( nGold >= 500 )

  00072	81 fe f4 01 00
	00		 cmp	 esi, 500		; 000001f4H
  00078	7c 7b		 jl	 SHORT $LN4@DropGold

; 2445 : 		{
; 2446 : 			LogItemInfo aLogItem;

  0007a	8d 8d 28 ff ff
	ff		 lea	 ecx, DWORD PTR _aLogItem$4[ebp]
  00080	e8 00 00 00 00	 call	 ??0_LogItemInfo@@QAE@XZ	; _LogItemInfo::_LogItemInfo

; 2447 : 			aLogItem.Action = "D";
; 2448 : 			aLogItem.SendName = GetName();

  00085	6a 00		 push	 0
  00087	8b cb		 mov	 ecx, ebx
  00089	c7 85 28 ff ff
	ff 00 00 00 00	 mov	 DWORD PTR _aLogItem$4[ebp], OFFSET ??_C@_01CKDDGHAB@D@
  00093	e8 00 00 00 00	 call	 ?GetName@CMover@@QAEPBDH@Z ; CMover::GetName
  00098	89 85 2c ff ff
	ff		 mov	 DWORD PTR _aLogItem$4[ebp+4], eax

; 2449 : 			aLogItem.RecvName = "GROUND";	// 땅에 버린것
; 2450 : 			aLogItem.WorldId = pWorld->GetID();

  0009e	8b 07		 mov	 eax, DWORD PTR [edi]
  000a0	89 85 34 ff ff
	ff		 mov	 DWORD PTR _aLogItem$4[ebp+12], eax

; 2451 : 			aLogItem.Gold = GetGold();

  000a6	8b 83 e0 14 00
	00		 mov	 eax, DWORD PTR [ebx+5344]
  000ac	89 85 38 ff ff
	ff		 mov	 DWORD PTR _aLogItem$4[ebp+16], eax

; 2452 : 			aLogItem.Gold2 = GetGold() - nGold;

  000b2	2b c6		 sub	 eax, esi

; 2453 : 			//aLogItem.ItemName = "SEED";
; 2454 : 			_stprintf( aLogItem.szItemName, "%d", II_GOLD_SEED1 );

  000b4	6a 0c		 push	 12			; 0000000cH
  000b6	89 85 3c ff ff
	ff		 mov	 DWORD PTR _aLogItem$4[ebp+20], eax
  000bc	8d 85 4c ff ff
	ff		 lea	 eax, DWORD PTR _aLogItem$4[ebp+36]
  000c2	68 00 00 00 00	 push	 OFFSET ??_C@_02DPKJAMEF@?$CFd@
  000c7	50		 push	 eax
  000c8	c7 85 30 ff ff
	ff 00 00 00 00	 mov	 DWORD PTR _aLogItem$4[ebp+8], OFFSET ??_C@_06GKBINIEJ@GROUND@
  000d2	e8 00 00 00 00	 call	 _sprintf
  000d7	83 c4 0c	 add	 esp, 12			; 0000000cH

; 2455 : 			aLogItem.itemNumber = nGold;

  000da	89 b5 6c ff ff
	ff		 mov	 DWORD PTR _aLogItem$4[ebp+68], esi

; 2456 : 			g_DPSrvr.OnLogItem( aLogItem );

  000e0	8d 85 28 ff ff
	ff		 lea	 eax, DWORD PTR _aLogItem$4[ebp]
  000e6	b9 00 00 00 00	 mov	 ecx, OFFSET ?g_DPSrvr@@3VCDPSrvr@@A ; g_DPSrvr
  000eb	6a 00		 push	 0
  000ed	6a 00		 push	 0
  000ef	50		 push	 eax
  000f0	e8 00 00 00 00	 call	 ?OnLogItem@CDPSrvr@@QAEXAAU_LogItemInfo@@PAVCItemElem@@H@Z ; CDPSrvr::OnLogItem
$LN4@DropGold:

; 2457 : 		}
; 2458 : 
; 2459 : 		AddGold( -nGold );

  000f5	8b c6		 mov	 eax, esi
  000f7	8b cb		 mov	 ecx, ebx
  000f9	6a 01		 push	 1
  000fb	f7 d8		 neg	 eax
  000fd	50		 push	 eax
  000fe	e8 00 00 00 00	 call	 ?AddGold@CMover@@QAEHHH@Z ; CMover::AddGold

; 2461 : 		CItemElem* pItemElem	= new CItemElem;

  00103	68 b0 00 00 00	 push	 176			; 000000b0H
  00108	e8 00 00 00 00	 call	 ??2@YAPAXI@Z		; operator new
  0010d	83 c4 04	 add	 esp, 4
  00110	89 85 18 ff ff
	ff		 mov	 DWORD PTR $T2[ebp], eax
  00116	c7 45 fc 00 00
	00 00		 mov	 DWORD PTR __$EHRec$[ebp+8], 0
  0011d	85 c0		 test	 eax, eax
  0011f	74 0b		 je	 SHORT $LN12@DropGold
  00121	8b c8		 mov	 ecx, eax
  00123	e8 00 00 00 00	 call	 ??0CItemElem@@QAE@XZ	; CItemElem::CItemElem
  00128	8b d8		 mov	 ebx, eax
  0012a	eb 02		 jmp	 SHORT $LN13@DropGold
$LN12@DropGold:
  0012c	33 db		 xor	 ebx, ebx
$LN13@DropGold:
; File C:\IAGOS\server\v18\Source\Source\_Common\Project.h

; 1389 : 	VERIFY_RANGE_ASSERT( nIndex, 0, m_aPropItem.GetSize(), "GetItemProp range_error", NULL );

  0012e	a1 40 02 00 00	 mov	 eax, DWORD PTR ?prj@@3VCProject@@A+576
; File C:\IAGOS\server\v18\Source\Source\_common\MoverEquip.cpp

; 2461 : 		CItemElem* pItemElem	= new CItemElem;

  00133	c7 45 fc ff ff
	ff ff		 mov	 DWORD PTR __$EHRec$[ebp+8], -1
; File C:\IAGOS\server\v18\Source\Source\_Common\Project.h

; 1389 : 	VERIFY_RANGE_ASSERT( nIndex, 0, m_aPropItem.GetSize(), "GetItemProp range_error", NULL );

  0013a	83 f8 0c	 cmp	 eax, 12			; 0000000cH
  0013d	7f 26		 jg	 SHORT $LN19@DropGold

; 579  : 	LPCTSTR szErr = Error( _T( "%s min:%d, max:%d, index:%d" ), szMsg, nMin, nMax, nIndex ); 

  0013f	6a 0c		 push	 12			; 0000000cH
  00141	50		 push	 eax
  00142	6a 00		 push	 0
  00144	68 00 00 00 00	 push	 OFFSET ??_C@_0BI@BEIFNGEL@GetItemProp?5range_error@
  00149	68 00 00 00 00	 push	 OFFSET ??_C@_0BM@HMFGHCP@?$CFs?5min?3?$CFd?0?5max?3?$CFd?0?5index?3?$CFd@
  0014e	e8 00 00 00 00	 call	 ?Error@@YAPBDPBDZZ	; Error

; 1389 : 	VERIFY_RANGE_ASSERT( nIndex, 0, m_aPropItem.GetSize(), "GetItemProp range_error", NULL );

  00153	a1 40 02 00 00	 mov	 eax, DWORD PTR ?prj@@3VCProject@@A+576

; 579  : 	LPCTSTR szErr = Error( _T( "%s min:%d, max:%d, index:%d" ), szMsg, nMin, nMax, nIndex ); 

  00158	83 c4 14	 add	 esp, 20			; 00000014H

; 1389 : 	VERIFY_RANGE_ASSERT( nIndex, 0, m_aPropItem.GetSize(), "GetItemProp range_error", NULL );

  0015b	8b 0d 30 02 00
	00		 mov	 ecx, DWORD PTR ?prj@@3VCProject@@A+560
  00161	33 d2		 xor	 edx, edx
  00163	eb 0f		 jmp	 SHORT $LN27@DropGold
$LN19@DropGold:
; File C:\IAGOS\server\v18\Source\Source\_Common\data.h

; 270  : 	if( dwIndex >= (DWORD)m_nMaxIndex )

  00165	8b 0d 30 02 00
	00		 mov	 ecx, DWORD PTR ?prj@@3VCProject@@A+560
  0016b	77 04		 ja	 SHORT $LN28@DropGold

; 271  : 		return NULL;

  0016d	33 d2		 xor	 edx, edx
  0016f	eb 03		 jmp	 SHORT $LN27@DropGold
$LN28@DropGold:

; 272  : 	return (T*) m_apOffset[ dwIndex ];

  00171	8b 51 30	 mov	 edx, DWORD PTR [ecx+48]
$LN27@DropGold:
; File C:\IAGOS\server\v18\Source\Source\_common\MoverEquip.cpp

; 2463 : 		if( nGold <= (int)prj.GetItemProp( II_GOLD_SEED1 )->dwAbilityMax )

  00174	3b b2 e8 00 00
	00		 cmp	 esi, DWORD PTR [edx+232]
  0017a	7f 0e		 jg	 SHORT $LN33@DropGold

; 2464 : 			pItemElem->m_dwItemId	= II_GOLD_SEED1;

  0017c	8d 7b 0c	 lea	 edi, DWORD PTR [ebx+12]
  0017f	c7 07 0c 00 00
	00		 mov	 DWORD PTR [edi], 12	; 0000000cH
  00185	e9 89 00 00 00	 jmp	 $LN10@DropGold
$LN33@DropGold:
; File C:\IAGOS\server\v18\Source\Source\_Common\Project.h

; 1389 : 	VERIFY_RANGE_ASSERT( nIndex, 0, m_aPropItem.GetSize(), "GetItemProp range_error", NULL );

  0018a	83 f8 0d	 cmp	 eax, 13			; 0000000dH
  0018d	7f 26		 jg	 SHORT $LN31@DropGold

; 579  : 	LPCTSTR szErr = Error( _T( "%s min:%d, max:%d, index:%d" ), szMsg, nMin, nMax, nIndex ); 

  0018f	6a 0d		 push	 13			; 0000000dH
  00191	50		 push	 eax
  00192	6a 00		 push	 0
  00194	68 00 00 00 00	 push	 OFFSET ??_C@_0BI@BEIFNGEL@GetItemProp?5range_error@
  00199	68 00 00 00 00	 push	 OFFSET ??_C@_0BM@HMFGHCP@?$CFs?5min?3?$CFd?0?5max?3?$CFd?0?5index?3?$CFd@
  0019e	e8 00 00 00 00	 call	 ?Error@@YAPBDPBDZZ	; Error

; 1389 : 	VERIFY_RANGE_ASSERT( nIndex, 0, m_aPropItem.GetSize(), "GetItemProp range_error", NULL );

  001a3	a1 40 02 00 00	 mov	 eax, DWORD PTR ?prj@@3VCProject@@A+576

; 579  : 	LPCTSTR szErr = Error( _T( "%s min:%d, max:%d, index:%d" ), szMsg, nMin, nMax, nIndex ); 

  001a8	83 c4 14	 add	 esp, 20			; 00000014H

; 1389 : 	VERIFY_RANGE_ASSERT( nIndex, 0, m_aPropItem.GetSize(), "GetItemProp range_error", NULL );

  001ab	8b 0d 30 02 00
	00		 mov	 ecx, DWORD PTR ?prj@@3VCProject@@A+560
  001b1	33 d2		 xor	 edx, edx
  001b3	eb 09		 jmp	 SHORT $LN39@DropGold
$LN31@DropGold:
; File C:\IAGOS\server\v18\Source\Source\_Common\data.h

; 270  : 	if( dwIndex >= (DWORD)m_nMaxIndex )

  001b5	77 04		 ja	 SHORT $LN40@DropGold

; 271  : 		return NULL;

  001b7	33 d2		 xor	 edx, edx
  001b9	eb 03		 jmp	 SHORT $LN39@DropGold
$LN40@DropGold:

; 272  : 	return (T*) m_apOffset[ dwIndex ];

  001bb	8b 51 34	 mov	 edx, DWORD PTR [ecx+52]
$LN39@DropGold:
; File C:\IAGOS\server\v18\Source\Source\_common\MoverEquip.cpp

; 2465 : 		else if( nGold <= (int)prj.GetItemProp( II_GOLD_SEED2 )->dwAbilityMax )

  001be	3b b2 e8 00 00
	00		 cmp	 esi, DWORD PTR [edx+232]
  001c4	7f 0b		 jg	 SHORT $LN45@DropGold

; 2466 : 			pItemElem->m_dwItemId	= II_GOLD_SEED2;

  001c6	8d 7b 0c	 lea	 edi, DWORD PTR [ebx+12]
  001c9	c7 07 0d 00 00
	00		 mov	 DWORD PTR [edi], 13	; 0000000dH
  001cf	eb 42		 jmp	 SHORT $LN10@DropGold
$LN45@DropGold:
; File C:\IAGOS\server\v18\Source\Source\_Common\Project.h

; 1389 : 	VERIFY_RANGE_ASSERT( nIndex, 0, m_aPropItem.GetSize(), "GetItemProp range_error", NULL );

  001d1	83 f8 0e	 cmp	 eax, 14			; 0000000eH
  001d4	7f 1b		 jg	 SHORT $LN43@DropGold

; 579  : 	LPCTSTR szErr = Error( _T( "%s min:%d, max:%d, index:%d" ), szMsg, nMin, nMax, nIndex ); 

  001d6	6a 0e		 push	 14			; 0000000eH
  001d8	50		 push	 eax
  001d9	6a 00		 push	 0
  001db	68 00 00 00 00	 push	 OFFSET ??_C@_0BI@BEIFNGEL@GetItemProp?5range_error@
  001e0	68 00 00 00 00	 push	 OFFSET ??_C@_0BM@HMFGHCP@?$CFs?5min?3?$CFd?0?5max?3?$CFd?0?5index?3?$CFd@
  001e5	e8 00 00 00 00	 call	 ?Error@@YAPBDPBDZZ	; Error
  001ea	83 c4 14	 add	 esp, 20			; 00000014H

; 1389 : 	VERIFY_RANGE_ASSERT( nIndex, 0, m_aPropItem.GetSize(), "GetItemProp range_error", NULL );

  001ed	33 c0		 xor	 eax, eax
  001ef	eb 09		 jmp	 SHORT $LN51@DropGold
$LN43@DropGold:
; File C:\IAGOS\server\v18\Source\Source\_Common\data.h

; 270  : 	if( dwIndex >= (DWORD)m_nMaxIndex )

  001f1	77 04		 ja	 SHORT $LN52@DropGold

; 271  : 		return NULL;

  001f3	33 c0		 xor	 eax, eax
  001f5	eb 03		 jmp	 SHORT $LN51@DropGold
$LN52@DropGold:

; 272  : 	return (T*) m_apOffset[ dwIndex ];

  001f7	8b 41 38	 mov	 eax, DWORD PTR [ecx+56]
$LN51@DropGold:
; File C:\IAGOS\server\v18\Source\Source\_common\MoverEquip.cpp

; 2467 : 		else if( nGold <= (int)prj.GetItemProp( II_GOLD_SEED3 )->dwAbilityMax )

  001fa	8d 7b 0c	 lea	 edi, DWORD PTR [ebx+12]
  001fd	3b b0 e8 00 00
	00		 cmp	 esi, DWORD PTR [eax+232]
  00203	7f 08		 jg	 SHORT $LN9@DropGold

; 2468 : 			pItemElem->m_dwItemId	= II_GOLD_SEED3;

  00205	c7 07 0e 00 00
	00		 mov	 DWORD PTR [edi], 14	; 0000000eH
  0020b	eb 06		 jmp	 SHORT $LN10@DropGold
$LN9@DropGold:

; 2469 : 		else
; 2470 : 			pItemElem->m_dwItemId	= II_GOLD_SEED4;

  0020d	c7 07 0f 00 00
	00		 mov	 DWORD PTR [edi], 15	; 0000000fH
$LN10@DropGold:

; 2471 : 
; 2472 : 		pItemElem->m_nItemNum	= (short)nGold;				// __NPP_050308 이후에는 사용하지 않을 것
; 2473 : 		pItemElem->m_nHitPoint  = nGold;					// int형으로 돈을 버리게 하기 위해서 이 변수를 사용 
; 2474 : 
; 2475 : 		CItem* pItem	= new CItem;

  00213	68 48 02 00 00	 push	 584			; 00000248H
  00218	66 89 73 74	 mov	 WORD PTR [ebx+116], si
  0021c	89 73 70	 mov	 DWORD PTR [ebx+112], esi
  0021f	e8 00 00 00 00	 call	 ??2@YAPAXI@Z		; operator new
  00224	83 c4 04	 add	 esp, 4
  00227	89 85 18 ff ff
	ff		 mov	 DWORD PTR $T3[ebp], eax
  0022d	c7 45 fc 01 00
	00 00		 mov	 DWORD PTR __$EHRec$[ebp+8], 1
  00234	85 c0		 test	 eax, eax
  00236	74 0b		 je	 SHORT $LN14@DropGold
  00238	8b c8		 mov	 ecx, eax
  0023a	e8 00 00 00 00	 call	 ??0CItem@@QAE@XZ	; CItem::CItem
  0023f	8b f0		 mov	 esi, eax
  00241	eb 02		 jmp	 SHORT $LN15@DropGold
$LN14@DropGold:
  00243	33 f6		 xor	 esi, esi
$LN15@DropGold:

; 2476 : 		pItem->m_pItemBase	= pItemElem;
; 2477 : 		pItem->SetIndex( D3DDEVICE, pItemElem->m_dwItemId );

  00245	8b 06		 mov	 eax, DWORD PTR [esi]
  00247	8b ce		 mov	 ecx, esi
  00249	6a 00		 push	 0
  0024b	89 9e 30 02 00
	00		 mov	 DWORD PTR [esi+560], ebx
  00251	ff 37		 push	 DWORD PTR [edi]
  00253	c7 45 fc ff ff
	ff ff		 mov	 DWORD PTR __$EHRec$[ebp+8], -1
  0025a	6a 00		 push	 0
  0025c	ff 50 2c	 call	 DWORD PTR [eax+44]

; 2478 : 		pItem->SetPos( vPos );

  0025f	ff b5 24 ff ff
	ff		 push	 DWORD PTR _vPos$GSCopy$1$[ebp]
  00265	8b ce		 mov	 ecx, esi
  00267	e8 00 00 00 00	 call	 ?SetPos@CObj@@QAEXABUD3DXVECTOR3@@@Z ; CObj::SetPos
; File C:\IAGOS\server\v18\Source\Source\_Common\xUtil.h

; 16   : 	g_next = g_next * 1103515245 + 12345;// + nRandomSeed[ i++ ];

  0026c	69 0d 00 00 00
	00 6d 4e c6 41	 imul	 ecx, DWORD PTR ?g_next@@3KA, 1103515245 ; g_next

; 22   : 	return  xRand() % num;

  00276	b8 6d c1 16 6c	 mov	 eax, 1813430637		; 6c16c16dH

; 16   : 	g_next = g_next * 1103515245 + 12345;// + nRandomSeed[ i++ ];

  0027b	81 c1 39 30 00
	00		 add	 ecx, 12345		; 00003039H

; 22   : 	return  xRand() % num;

  00281	f7 e1		 mul	 ecx
  00283	8b c1		 mov	 eax, ecx

; 16   : 	g_next = g_next * 1103515245 + 12345;// + nRandomSeed[ i++ ];

  00285	89 0d 00 00 00
	00		 mov	 DWORD PTR ?g_next@@3KA, ecx ; g_next

; 22   : 	return  xRand() % num;

  0028b	2b c2		 sub	 eax, edx
  0028d	d1 e8		 shr	 eax, 1
  0028f	03 c2		 add	 eax, edx
  00291	c1 e8 08	 shr	 eax, 8
  00294	69 c0 68 01 00
	00		 imul	 eax, eax, 360
  0029a	2b c8		 sub	 ecx, eax
  0029c	66 0f 6e c1	 movd	 xmm0, ecx
; File C:\IAGOS\server\v18\Source\Source\_common\MoverEquip.cpp

; 2479 : 		pItem->SetAngle( (float)xRandom( 360 ) );

  002a0	f3 0f e6 c0	 cvtdq2pd xmm0, xmm0
  002a4	c1 e9 1f	 shr	 ecx, 31			; 0000001fH
  002a7	51		 push	 ecx
  002a8	f2 0f 58 04 cd
	00 00 00 00	 addsd	 xmm0, QWORD PTR __xmm@41f00000000000000000000000000000[ecx*8]
  002b1	8b ce		 mov	 ecx, esi
  002b3	66 0f 5a c0	 cvtpd2ps xmm0, xmm0
  002b7	f3 0f 11 04 24	 movss	 DWORD PTR [esp], xmm0
  002bc	e8 00 00 00 00	 call	 ?SetAngle@CObj@@QAEXM@Z	; CObj::SetAngle

; 2480 : 		pItem->m_dwDropTime		= timeGetTime();	

  002c1	ff 15 00 00 00
	00		 call	 DWORD PTR __imp__timeGetTime@0

; 2481 : 		pWorld->ADDOBJ( pItem, TRUE, GetLayer() );

  002c7	8b 8d 1c ff ff
	ff		 mov	 ecx, DWORD PTR _pWorld$1$[ebp]
  002cd	89 86 3c 02 00
	00		 mov	 DWORD PTR [esi+572], eax
  002d3	8b 85 20 ff ff
	ff		 mov	 eax, DWORD PTR _this$GSCopy$1$[ebp]
  002d9	ff b0 b8 01 00
	00		 push	 DWORD PTR [eax+440]
  002df	6a 01		 push	 1
  002e1	56		 push	 esi
  002e2	e8 00 00 00 00	 call	 ?AddObj@CWorld@@QAEHPAVCObj@@HH@Z ; CWorld::AddObj

; 2482 : 		return pItem;

  002e7	8b c6		 mov	 eax, esi
  002e9	eb 02		 jmp	 SHORT $LN1@DropGold
$LN3@DropGold:

; 2483 : 	}
; 2484 : 	
; 2485 : 	return NULL;

  002eb	33 c0		 xor	 eax, eax
$LN1@DropGold:

; 2486 : }

  002ed	8b 4d f4	 mov	 ecx, DWORD PTR __$EHRec$[ebp]
  002f0	64 89 0d 00 00
	00 00		 mov	 DWORD PTR fs:0, ecx
  002f7	59		 pop	 ecx
  002f8	5f		 pop	 edi
  002f9	5e		 pop	 esi
  002fa	5b		 pop	 ebx
  002fb	8b 4d f0	 mov	 ecx, DWORD PTR __$ArrayPad$[ebp]
  002fe	33 cd		 xor	 ecx, ebp
  00300	e8 00 00 00 00	 call	 @__security_check_cookie@4
  00305	8b e5		 mov	 esp, ebp
  00307	5d		 pop	 ebp
  00308	c2 0c 00	 ret	 12			; 0000000cH
_TEXT	ENDS
;	COMDAT text$x
text$x	SEGMENT
__unwindfunclet$?DropGold@CMover@@QAEPAVCItem@@KABUD3DXVECTOR3@@H@Z$0:
  00000	68 b0 00 00 00	 push	 176			; 000000b0H
  00005	8b 85 18 ff ff
	ff		 mov	 eax, DWORD PTR $T2[ebp]
  0000b	50		 push	 eax
  0000c	e8 00 00 00 00	 call	 ??3@YAXPAXI@Z		; operator delete
  00011	83 c4 08	 add	 esp, 8
  00014	c3		 ret	 0
__unwindfunclet$?DropGold@CMover@@QAEPAVCItem@@KABUD3DXVECTOR3@@H@Z$1:
  00015	68 48 02 00 00	 push	 584			; 00000248H
  0001a	8b 85 18 ff ff
	ff		 mov	 eax, DWORD PTR $T3[ebp]
  00020	50		 push	 eax
  00021	e8 00 00 00 00	 call	 ??3@YAXPAXI@Z		; operator delete
  00026	83 c4 08	 add	 esp, 8
  00029	c3		 ret	 0
  0002a	cc		 int	 3
  0002b	cc		 int	 3
  0002c	cc		 int	 3
  0002d	cc		 int	 3
  0002e	cc		 int	 3
__ehhandler$?DropGold@CMover@@QAEPAVCItem@@KABUD3DXVECTOR3@@H@Z:
  0002f	90		 npad	 1
  00030	90		 npad	 1
  00031	8b 54 24 08	 mov	 edx, DWORD PTR [esp+8]
  00035	8d 42 0c	 lea	 eax, DWORD PTR [edx+12]
  00038	8b 8a 14 ff ff
	ff		 mov	 ecx, DWORD PTR [edx-236]
  0003e	33 c8		 xor	 ecx, eax
  00040	e8 00 00 00 00	 call	 @__security_check_cookie@4
  00045	8b 4a fc	 mov	 ecx, DWORD PTR [edx-4]
  00048	33 c8		 xor	 ecx, eax
  0004a	e8 00 00 00 00	 call	 @__security_check_cookie@4
  0004f	b8 00 00 00 00	 mov	 eax, OFFSET __ehfuncinfo$?DropGold@CMover@@QAEPAVCItem@@KABUD3DXVECTOR3@@H@Z
  00054	e9 00 00 00 00	 jmp	 ___CxxFrameHandler3
text$x	ENDS
?DropGold@CMover@@QAEPAVCItem@@KABUD3DXVECTOR3@@H@Z ENDP ; CMover::DropGold
; Function compile flags: /Ogtp
; File C:\IAGOS\server\v18\Source\Source\_common\MoverEquip.cpp
; File C:\IAGOS\server\v18\Source\Source\_common\party.h
; File C:\IAGOS\server\v18\Source\Source\_common\MoverEquip.cpp
; File C:\IAGOS\server\v18\Source\Source\_Common\xUtil.h
; File C:\IAGOS\server\v18\Source\Source\_common\MoverEquip.cpp
; File C:\IAGOS\server\v18\Source\Source\_Common\Obj.h
; File C:\IAGOS\server\v18\Source\Source\_common\MoverEquip.cpp
;	COMDAT ?PickupGold@CMover@@QAEXHH@Z
_TEXT	SEGMENT
tv395 = -76						; size = 4
_i$1$ = -72						; size = 4
_nRest$1$ = -68						; size = 4
_this$GSCopy$1$ = -68					; size = 4
_pListMember$1 = -64					; size = 60
__$ArrayPad$ = -4					; size = 4
_nGold$ = 8						; size = 4
_bDropMob$ = 12						; size = 4
?PickupGold@CMover@@QAEXHH@Z PROC			; CMover::PickupGold, COMDAT
; _this$ = ecx

; 2320 : {

  00000	55		 push	 ebp
  00001	8b ec		 mov	 ebp, esp
  00003	83 ec 4c	 sub	 esp, 76			; 0000004cH
  00006	a1 00 00 00 00	 mov	 eax, DWORD PTR ___security_cookie
  0000b	33 c5		 xor	 eax, ebp
  0000d	89 45 fc	 mov	 DWORD PTR __$ArrayPad$[ebp], eax
  00010	56		 push	 esi
  00011	57		 push	 edi
  00012	8b 7d 08	 mov	 edi, DWORD PTR _nGold$[ebp]
  00015	8b f1		 mov	 esi, ecx
  00017	89 75 bc	 mov	 DWORD PTR _this$GSCopy$1$[ebp], esi

; 2321 : 	ASSERT( nGold > 0 );
; 2322 : 	if( nGold <= 0 )

  0001a	85 ff		 test	 edi, edi
  0001c	7f 28		 jg	 SHORT $LN11@PickupGold

; 2323 : 	{
; 2324 : 		Error( "%s PickupGold - %d", GetName(), nGold );

  0001e	57		 push	 edi
  0001f	6a 00		 push	 0
  00021	e8 00 00 00 00	 call	 ?GetName@CMover@@QAEPBDH@Z ; CMover::GetName
  00026	50		 push	 eax
  00027	68 00 00 00 00	 push	 OFFSET ??_C@_0BD@DBDFKDKF@?$CFs?5PickupGold?5?9?5?$CFd@
  0002c	e8 00 00 00 00	 call	 ?Error@@YAPBDPBDZZ	; Error
  00031	83 c4 0c	 add	 esp, 12			; 0000000cH
  00034	5f		 pop	 edi

; 2400 : 	}
; 2401 : }

  00035	5e		 pop	 esi
  00036	8b 4d fc	 mov	 ecx, DWORD PTR __$ArrayPad$[ebp]
  00039	33 cd		 xor	 ecx, ebp
  0003b	e8 00 00 00 00	 call	 @__security_check_cookie@4
  00040	8b e5		 mov	 esp, ebp
  00042	5d		 pop	 ebp
  00043	c2 08 00	 ret	 8
$LN11@PickupGold:
  00046	53		 push	 ebx

; 2325 : 		return;
; 2326 : 	}
; 2327 : 
; 2328 : #ifdef __WORLDSERVER
; 2329 : 	CParty *pParty	= g_PartyMng.GetParty( m_idparty );

  00047	ff b6 10 07 00
	00		 push	 DWORD PTR [esi+1808]
  0004d	b9 00 00 00 00	 mov	 ecx, OFFSET ?g_PartyMng@@3VCPartyMng@@A ; g_PartyMng
  00052	e8 00 00 00 00	 call	 ?GetParty@CPartyMng@@QAEPAVCParty@@K@Z ; CPartyMng::GetParty
  00057	8b d8		 mov	 ebx, eax

; 2330 : 	if( pParty && pParty->IsMember( m_idPlayer ) && bDropMob )	// 파티가 있고 몹이 떨군 돈만 분배된다.

  00059	85 db		 test	 ebx, ebx
  0005b	0f 84 61 01 00
	00		 je	 $LN12@PickupGold
; File C:\IAGOS\server\v18\Source\Source\_common\party.h

; 105  : 	BOOL	IsMember( u_long uPlayerId )		{	return( FindMember( uPlayerId ) >= 0 );	}

  00061	ff b6 34 02 00
	00		 push	 DWORD PTR [esi+564]
  00067	8b cb		 mov	 ecx, ebx
  00069	e8 00 00 00 00	 call	 ?FindMember@CParty@@QAEHK@Z ; CParty::FindMember
  0006e	85 c0		 test	 eax, eax
; File C:\IAGOS\server\v18\Source\Source\_common\MoverEquip.cpp

; 2330 : 	if( pParty && pParty->IsMember( m_idPlayer ) && bDropMob )	// 파티가 있고 몹이 떨군 돈만 분배된다.

  00070	0f 88 4c 01 00
	00		 js	 $LN12@PickupGold
  00076	83 7d 0c 00	 cmp	 DWORD PTR _bDropMob$[ebp], 0
  0007a	0f 84 42 01 00
	00		 je	 $LN12@PickupGold

; 2331 : 	{
; 2332 : 		// 파티가 있는 상태에서 돈을 집으려면 돈이 분배된다.
; 2333 : 		// 몬스터가 드롭한돈만 분배되어야 한다.
; 2334 : 		int nNumInsideMember = 1;		// 돈 줍는사람 중심으로 반경 xx미터 이내있는사람이 몇명이나 되는지 검사. 
; 2335 : 		CUser *pListMember[MAX_PTMEMBER_SIZE];
; 2336 : 		int	nMaxListMember = 0;
; 2337 : 		CUser* pMember	= NULL;
; 2338 : 		int i;
; 2339 : //		float fDist;
; 2340 : 		D3DXVECTOR3	vDist;
; 2341 : 
; 2342 : 		// 돈줍는사람 반경안에 드는 멤버들만 추려낸다.
; 2343 : 		memset( pListMember, 0, sizeof(pListMember) );

  00080	6a 3c		 push	 60			; 0000003cH
  00082	33 f6		 xor	 esi, esi
  00084	8d 45 c0	 lea	 eax, DWORD PTR _pListMember$1[ebp]
  00087	56		 push	 esi
  00088	50		 push	 eax
  00089	e8 00 00 00 00	 call	 _memset

; 2344 : 		for( i = 0; i < pParty->m_nSizeofMember; i++ )

  0008e	8b 8b cc 01 00
	00		 mov	 ecx, DWORD PTR [ebx+460]
  00094	83 c4 0c	 add	 esp, 12			; 0000000cH
  00097	89 75 b8	 mov	 DWORD PTR _i$1$[ebp], esi
  0009a	85 c9		 test	 ecx, ecx
  0009c	0f 8e 9a 00 00
	00		 jle	 $LN15@PickupGold

; 2331 : 	{
; 2332 : 		// 파티가 있는 상태에서 돈을 집으려면 돈이 분배된다.
; 2333 : 		// 몬스터가 드롭한돈만 분배되어야 한다.
; 2334 : 		int nNumInsideMember = 1;		// 돈 줍는사람 중심으로 반경 xx미터 이내있는사람이 몇명이나 되는지 검사. 
; 2335 : 		CUser *pListMember[MAX_PTMEMBER_SIZE];
; 2336 : 		int	nMaxListMember = 0;
; 2337 : 		CUser* pMember	= NULL;
; 2338 : 		int i;
; 2339 : //		float fDist;
; 2340 : 		D3DXVECTOR3	vDist;
; 2341 : 
; 2342 : 		// 돈줍는사람 반경안에 드는 멤버들만 추려낸다.
; 2343 : 		memset( pListMember, 0, sizeof(pListMember) );

  000a2	8d 53 28	 lea	 edx, DWORD PTR [ebx+40]
  000a5	89 55 b4	 mov	 DWORD PTR tv395[ebp], edx
  000a8	0f 1f 84 00 00
	00 00 00	 npad	 8
$LL4@PickupGold:

; 2345 : 		{
; 2346 : 			pMember	= g_UserMng.GetUserByPlayerID( pParty->m_aMember[i].m_uPlayerId );

  000b0	ff 32		 push	 DWORD PTR [edx]
  000b2	b9 00 00 00 00	 mov	 ecx, OFFSET ?g_UserMng@@3VCUserMng@@A ; g_UserMng
  000b7	e8 00 00 00 00	 call	 ?GetUserByPlayerID@CUserMng@@QAEPAVCUser@@K@Z ; CUserMng::GetUserByPlayerID

; 2347 : 			/*
; 2348 : 			if( IsValidObj( pMember ) )
; 2349 : 			{
; 2350 : 				vDist = pMember->GetPos() - GetPos();
; 2351 : 				fDist = D3DXVec3LengthSq( &vDist );		// 돈 줍는사람과 멤버간의 거리.
; 2352 : 				if( fDist < 32.0f * 32.0f )				// xx미터보다 작으면
; 2353 : 				{
; 2354 : 					pListMember[ nMaxListMember++ ] = pMember;
; 2355 : 				}
; 2356 : 			}
; 2357 : 			*/ //2009.01.21 // 반경 검사에 레이어 추가
; 2358 : 			if( IsValidArea( pMember, 32.0f ) )

  000bc	51		 push	 ecx
  000bd	8b 4d bc	 mov	 ecx, DWORD PTR _this$GSCopy$1$[ebp]
  000c0	8b f8		 mov	 edi, eax
  000c2	c7 04 24 00 00
	00 42		 mov	 DWORD PTR [esp], 1107296256 ; 42000000H
  000c9	57		 push	 edi
  000ca	e8 00 00 00 00	 call	 ?IsValidArea@CMover@@QAEHPAV1@M@Z ; CMover::IsValidArea
  000cf	85 c0		 test	 eax, eax
  000d1	74 05		 je	 SHORT $LN2@PickupGold

; 2359 : 				pListMember[ nMaxListMember++ ] = pMember;

  000d3	89 7c b5 c0	 mov	 DWORD PTR _pListMember$1[ebp+esi*4], edi
  000d7	46		 inc	 esi
$LN2@PickupGold:

; 2344 : 		for( i = 0; i < pParty->m_nSizeofMember; i++ )

  000d8	8b 45 b8	 mov	 eax, DWORD PTR _i$1$[ebp]
  000db	8b fe		 mov	 edi, esi
  000dd	8b 55 b4	 mov	 edx, DWORD PTR tv395[ebp]
  000e0	40		 inc	 eax
  000e1	8b 8b cc 01 00
	00		 mov	 ecx, DWORD PTR [ebx+460]
  000e7	83 c2 1c	 add	 edx, 28			; 0000001cH
  000ea	89 45 b8	 mov	 DWORD PTR _i$1$[ebp], eax
  000ed	89 55 b4	 mov	 DWORD PTR tv395[ebp], edx
  000f0	3b c1		 cmp	 eax, ecx
  000f2	7c bc		 jl	 SHORT $LL4@PickupGold

; 2360 : 		}
; 2361 : 
; 2362 : 		if( nMaxListMember > 0 )

  000f4	85 ff		 test	 edi, edi
  000f6	7e 44		 jle	 SHORT $LN15@PickupGold

; 2363 : 		{
; 2364 : 			int nShare = nGold / nMaxListMember;		// 멤버 각각의 몫

  000f8	8b 45 08	 mov	 eax, DWORD PTR _nGold$[ebp]
  000fb	99		 cdq
  000fc	f7 ff		 idiv	 edi
  000fe	8b d8		 mov	 ebx, eax
  00100	8b f2		 mov	 esi, edx
  00102	89 75 bc	 mov	 DWORD PTR _nRest$1$[ebp], esi

; 2365 : 			int nRest  = nGold % nMaxListMember;		// 나누고난 후 나머지.
; 2366 : 			if( nShare )	// 몫이 있을때.

  00105	85 db		 test	 ebx, ebx
  00107	74 19		 je	 SHORT $LN6@PickupGold

; 2367 : 			{
; 2368 : 				for( i = 0; i < nMaxListMember; i++ )

  00109	33 f6		 xor	 esi, esi
  0010b	0f 1f 44 00 00	 npad	 5
$LL7@PickupGold:

; 2369 : 				{
; 2370 : 					pMember = pListMember[i];
; 2371 : 					pMember->PickupGoldCore( nShare );

  00110	8b 4c b5 c0	 mov	 ecx, DWORD PTR _pListMember$1[ebp+esi*4]
  00114	53		 push	 ebx
  00115	e8 00 00 00 00	 call	 ?PickupGoldCore@CMover@@QAEXH@Z ; CMover::PickupGoldCore
  0011a	46		 inc	 esi
  0011b	3b f7		 cmp	 esi, edi
  0011d	7c f1		 jl	 SHORT $LL7@PickupGold
  0011f	8b 75 bc	 mov	 esi, DWORD PTR _nRest$1$[ebp]
$LN6@PickupGold:

; 2372 : 				}
; 2373 : 			}
; 2374 : 
; 2375 : 			// 나머지는 랜덤으로 한사람이 가짐.
; 2376 : 			if( nRest )

  00122	85 f6		 test	 esi, esi
  00124	0f 84 a0 00 00
	00		 je	 $LN59@PickupGold
; File C:\IAGOS\server\v18\Source\Source\_Common\xUtil.h

; 28   : inline int	random( int nNum ) { return rand() % nNum; }

  0012a	e8 00 00 00 00	 call	 _rand
  0012f	99		 cdq
  00130	f7 ff		 idiv	 edi
; File C:\IAGOS\server\v18\Source\Source\_common\MoverEquip.cpp

; 2379 : 				pMember->PickupGoldCore( nRest );

  00132	56		 push	 esi
  00133	8b 4c 95 c0	 mov	 ecx, DWORD PTR _pListMember$1[ebp+edx*4]

; 2380 : 			}
; 2381 : 		}

  00137	e9 89 00 00 00	 jmp	 $LN60@PickupGold
$LN15@PickupGold:

; 2382 : 		else
; 2383 : 		{
; 2384 : 			FILEOUT( "..\\PartyError.txt", "party pick money error:%s %d %d", GetName(), pParty->m_nSizeofMember, nMaxListMember );

  0013c	56		 push	 esi
  0013d	51		 push	 ecx
  0013e	8b 4d bc	 mov	 ecx, DWORD PTR _this$GSCopy$1$[ebp]
  00141	6a 00		 push	 0
  00143	e8 00 00 00 00	 call	 ?GetName@CMover@@QAEPBDH@Z ; CMover::GetName
  00148	50		 push	 eax
  00149	68 00 00 00 00	 push	 OFFSET ??_C@_0CA@MKEDOMG@party?5pick?5money?5error?3?$CFs?5?$CFd?5?$CFd@
  0014e	68 00 00 00 00	 push	 OFFSET ??_C@_0BC@MDAJNMLM@?4?4?2PartyError?4txt@
  00153	e8 00 00 00 00	 call	 ?FILEOUT@@YAXPBD0ZZ	; FILEOUT

; 2385 : 			for( i = 0; i < pParty->m_nSizeofMember; i ++ )

  00158	33 f6		 xor	 esi, esi
  0015a	83 c4 14	 add	 esp, 20			; 00000014H
  0015d	39 b3 cc 01 00
	00		 cmp	 DWORD PTR [ebx+460], esi
  00163	7e 65		 jle	 SHORT $LN59@PickupGold

; 2382 : 		else
; 2383 : 		{
; 2384 : 			FILEOUT( "..\\PartyError.txt", "party pick money error:%s %d %d", GetName(), pParty->m_nSizeofMember, nMaxListMember );

  00165	8d 7b 28	 lea	 edi, DWORD PTR [ebx+40]
  00168	0f 1f 84 00 00
	00 00 00	 npad	 8
$LL10@PickupGold:

; 2386 : 			{
; 2387 : 				pMember		= g_UserMng.GetUserByPlayerID( pParty->m_aMember[i].m_uPlayerId );

  00170	ff 37		 push	 DWORD PTR [edi]
  00172	b9 00 00 00 00	 mov	 ecx, OFFSET ?g_UserMng@@3VCUserMng@@A ; g_UserMng
  00177	e8 00 00 00 00	 call	 ?GetUserByPlayerID@CUserMng@@QAEPAVCUser@@K@Z ; CUserMng::GetUserByPlayerID
; File C:\IAGOS\server\v18\Source\Source\_Common\Obj.h

; 327  : 	return pObj && ( pObj->IsDelete() == FALSE ); 

  0017c	85 c0		 test	 eax, eax
  0017e	74 23		 je	 SHORT $LN8@PickupGold

; 180  : 	BOOL			IsDelete()	{ return (m_dwFlags & OBJ_FLAG_DELETE);  }

  00180	f6 40 04 01	 test	 BYTE PTR [eax+4], 1

; 327  : 	return pObj && ( pObj->IsDelete() == FALSE ); 

  00184	75 1d		 jne	 SHORT $LN8@PickupGold
; File C:\IAGOS\server\v18\Source\Source\_common\MoverEquip.cpp

; 2390 : 					FILEOUT( "..\\PartyError.txt", "%d %s", i, pMember->GetName() );

  00186	6a 00		 push	 0
  00188	8b c8		 mov	 ecx, eax
  0018a	e8 00 00 00 00	 call	 ?GetName@CMover@@QAEPBDH@Z ; CMover::GetName
  0018f	50		 push	 eax
  00190	56		 push	 esi
  00191	68 00 00 00 00	 push	 OFFSET ??_C@_05OPEIBKFE@?$CFd?5?$CFs@
  00196	68 00 00 00 00	 push	 OFFSET ??_C@_0BC@MDAJNMLM@?4?4?2PartyError?4txt@
  0019b	e8 00 00 00 00	 call	 ?FILEOUT@@YAXPBD0ZZ	; FILEOUT
  001a0	83 c4 10	 add	 esp, 16			; 00000010H
$LN8@PickupGold:

; 2385 : 			for( i = 0; i < pParty->m_nSizeofMember; i ++ )

  001a3	46		 inc	 esi
  001a4	83 c7 1c	 add	 edi, 28			; 0000001cH
  001a7	3b b3 cc 01 00
	00		 cmp	 esi, DWORD PTR [ebx+460]
  001ad	7c c1		 jl	 SHORT $LL10@PickupGold

; 2400 : 	}
; 2401 : }

  001af	5b		 pop	 ebx
  001b0	5f		 pop	 edi
  001b1	5e		 pop	 esi
  001b2	8b 4d fc	 mov	 ecx, DWORD PTR __$ArrayPad$[ebp]
  001b5	33 cd		 xor	 ecx, ebp
  001b7	e8 00 00 00 00	 call	 @__security_check_cookie@4
  001bc	8b e5		 mov	 esp, ebp
  001be	5d		 pop	 ebp
  001bf	c2 08 00	 ret	 8
$LN12@PickupGold:

; 2391 : 				}
; 2392 : 			}
; 2393 : 		}
; 2394 : 	} 
; 2395 : 	else
; 2396 : #endif // WORLDSERVER	
; 2397 : 	{
; 2398 : 		// 파티 없을때
; 2399 : 		PickupGoldCore( nGold );

  001c2	57		 push	 edi
  001c3	8b ce		 mov	 ecx, esi
$LN60@PickupGold:
  001c5	e8 00 00 00 00	 call	 ?PickupGoldCore@CMover@@QAEXH@Z ; CMover::PickupGoldCore
$LN59@PickupGold:

; 2400 : 	}
; 2401 : }

  001ca	8b 4d fc	 mov	 ecx, DWORD PTR __$ArrayPad$[ebp]
  001cd	5b		 pop	 ebx
  001ce	5f		 pop	 edi
  001cf	33 cd		 xor	 ecx, ebp
  001d1	5e		 pop	 esi
  001d2	e8 00 00 00 00	 call	 @__security_check_cookie@4
  001d7	8b e5		 mov	 esp, ebp
  001d9	5d		 pop	 ebp
  001da	c2 08 00	 ret	 8
?PickupGold@CMover@@QAEXHH@Z ENDP			; CMover::PickupGold
_TEXT	ENDS
; Function compile flags: /Ogtp
; File C:\IAGOS\server\v18\Source\Source\_common\MoverEquip.cpp
;	COMDAT ?PickupGoldCore@CMover@@QAEXH@Z
_TEXT	SEGMENT
_aLogItem$1 = -204					; size = 200
__$ArrayPad$ = -4					; size = 4
_nGold$ = 8						; size = 4
?PickupGoldCore@CMover@@QAEXH@Z PROC			; CMover::PickupGoldCore, COMDAT
; _this$ = ecx

; 2405 : {

  00000	55		 push	 ebp
  00001	8b ec		 mov	 ebp, esp
  00003	81 ec cc 00 00
	00		 sub	 esp, 204		; 000000ccH
  00009	a1 00 00 00 00	 mov	 eax, DWORD PTR ___security_cookie
  0000e	33 c5		 xor	 eax, ebp
  00010	89 45 fc	 mov	 DWORD PTR __$ArrayPad$[ebp], eax
  00013	56		 push	 esi
  00014	57		 push	 edi

; 2406 : 	if( AddGold( nGold ) == FALSE )

  00015	8b 7d 08	 mov	 edi, DWORD PTR _nGold$[ebp]
  00018	8b f1		 mov	 esi, ecx
  0001a	6a 01		 push	 1
  0001c	57		 push	 edi
  0001d	e8 00 00 00 00	 call	 ?AddGold@CMover@@QAEHHH@Z ; CMover::AddGold
  00022	85 c0		 test	 eax, eax
  00024	0f 84 a4 00 00
	00		 je	 $LN4@PickupGold

; 2407 : 		return;
; 2408 : 
; 2409 : #ifdef __WORLDSERVER
; 2410 : 	if( IsPlayer() )

  0002a	83 be 30 02 00
	00 00		 cmp	 DWORD PTR [esi+560], 0
  00031	0f 84 97 00 00
	00		 je	 $LN4@PickupGold

; 2411 : 	{
; 2412 : 		((CUser*)this)->AddGoldText( nGold );

  00037	57		 push	 edi
  00038	8b ce		 mov	 ecx, esi
  0003a	e8 00 00 00 00	 call	 ?AddGoldText@CUser@@QAEXH@Z ; CUser::AddGoldText

; 2413 : 		if( nGold >= 500 )

  0003f	81 ff f4 01 00
	00		 cmp	 edi, 500		; 000001f4H
  00045	0f 8c 83 00 00
	00		 jl	 $LN4@PickupGold

; 2414 : 		{
; 2415 : 			LogItemInfo aLogItem;

  0004b	8d 8d 34 ff ff
	ff		 lea	 ecx, DWORD PTR _aLogItem$1[ebp]
  00051	e8 00 00 00 00	 call	 ??0_LogItemInfo@@QAE@XZ	; _LogItemInfo::_LogItemInfo

; 2416 : 			aLogItem.Action = "R";
; 2417 : 			aLogItem.SendName = "GROUND";
; 2418 : 			aLogItem.RecvName = GetName();

  00056	6a 00		 push	 0
  00058	8b ce		 mov	 ecx, esi
  0005a	c7 85 34 ff ff
	ff 00 00 00 00	 mov	 DWORD PTR _aLogItem$1[ebp], OFFSET ??_C@_01DGKLNCNG@R@
  00064	c7 85 38 ff ff
	ff 00 00 00 00	 mov	 DWORD PTR _aLogItem$1[ebp+4], OFFSET ??_C@_06GKBINIEJ@GROUND@
  0006e	e8 00 00 00 00	 call	 ?GetName@CMover@@QAEPBDH@Z ; CMover::GetName

; 2419 : 			aLogItem.WorldId = GetWorld()->GetID();
; 2420 : 			aLogItem.Gold = GetGold() - nGold;

  00073	8b 8e e0 14 00
	00		 mov	 ecx, DWORD PTR [esi+5344]
  00079	89 85 3c ff ff
	ff		 mov	 DWORD PTR _aLogItem$1[ebp+8], eax
  0007f	8b 86 6c 01 00
	00		 mov	 eax, DWORD PTR [esi+364]

; 2421 : 			aLogItem.Gold2 = GetGold();
; 2422 : 			//aLogItem.ItemName = "SEED";
; 2423 : 			_stprintf( aLogItem.szItemName, "%d", II_GOLD_SEED1 );

  00085	6a 0c		 push	 12			; 0000000cH
  00087	68 00 00 00 00	 push	 OFFSET ??_C@_02DPKJAMEF@?$CFd@
  0008c	8b 00		 mov	 eax, DWORD PTR [eax]
  0008e	89 85 40 ff ff
	ff		 mov	 DWORD PTR _aLogItem$1[ebp+12], eax
  00094	8b c1		 mov	 eax, ecx
  00096	2b c7		 sub	 eax, edi
  00098	89 8d 48 ff ff
	ff		 mov	 DWORD PTR _aLogItem$1[ebp+20], ecx
  0009e	89 85 44 ff ff
	ff		 mov	 DWORD PTR _aLogItem$1[ebp+16], eax
  000a4	8d 85 58 ff ff
	ff		 lea	 eax, DWORD PTR _aLogItem$1[ebp+36]
  000aa	50		 push	 eax
  000ab	e8 00 00 00 00	 call	 _sprintf
  000b0	83 c4 0c	 add	 esp, 12			; 0000000cH

; 2424 : 			aLogItem.itemNumber = nGold;

  000b3	89 bd 78 ff ff
	ff		 mov	 DWORD PTR _aLogItem$1[ebp+68], edi

; 2425 : 			g_DPSrvr.OnLogItem( aLogItem );

  000b9	8d 85 34 ff ff
	ff		 lea	 eax, DWORD PTR _aLogItem$1[ebp]
  000bf	b9 00 00 00 00	 mov	 ecx, OFFSET ?g_DPSrvr@@3VCDPSrvr@@A ; g_DPSrvr
  000c4	6a 00		 push	 0
  000c6	6a 00		 push	 0
  000c8	50		 push	 eax
  000c9	e8 00 00 00 00	 call	 ?OnLogItem@CDPSrvr@@QAEXAAU_LogItemInfo@@PAVCItemElem@@H@Z ; CDPSrvr::OnLogItem
$LN4@PickupGold:

; 2426 : 		}										
; 2427 : 	}
; 2428 : #endif	// __WORLDSERVER
; 2429 : }

  000ce	8b 4d fc	 mov	 ecx, DWORD PTR __$ArrayPad$[ebp]
  000d1	5f		 pop	 edi
  000d2	33 cd		 xor	 ecx, ebp
  000d4	5e		 pop	 esi
  000d5	e8 00 00 00 00	 call	 @__security_check_cookie@4
  000da	8b e5		 mov	 esp, ebp
  000dc	5d		 pop	 ebp
  000dd	c2 04 00	 ret	 4
?PickupGoldCore@CMover@@QAEXH@Z ENDP			; CMover::PickupGoldCore
_TEXT	ENDS
; Function compile flags: /Ogtp
; File C:\IAGOS\server\v18\Source\Source\_common\MoverEquip.cpp
;	COMDAT ?SetSkinSet@CMover@@QAEXH@Z
_TEXT	SEGMENT
_nSkinSet$ = 8						; size = 4
?SetSkinSet@CMover@@QAEXH@Z PROC			; CMover::SetSkinSet, COMDAT
; _this$ = ecx

; 237  : {

  00000	55		 push	 ebp
  00001	8b ec		 mov	 ebp, esp

; 238  : 	if( nSkinSet < 2 )

  00003	8b 45 08	 mov	 eax, DWORD PTR _nSkinSet$[ebp]
  00006	83 f8 02	 cmp	 eax, 2
  00009	7d 06		 jge	 SHORT $LN2@SetSkinSet

; 239  : 	{
; 240  : 		m_dwSkinSet = nSkinSet;

  0000b	89 81 1c 06 00
	00		 mov	 DWORD PTR [ecx+1564], eax
$LN2@SetSkinSet:

; 241  : #ifdef __CLIENT
; 242  : 		UpdateParts();
; 243  : #endif
; 244  : 	}
; 245  : }

  00011	5d		 pop	 ebp
  00012	c2 04 00	 ret	 4
?SetSkinSet@CMover@@QAEXH@Z ENDP			; CMover::SetSkinSet
_TEXT	ENDS
; Function compile flags: /Ogtp
; File C:\IAGOS\server\v18\Source\Source\_common\MoverEquip.cpp
;	COMDAT ?SetHead@CMover@@QAEXH@Z
_TEXT	SEGMENT
_lpszTemp$1 = -68					; size = 64
__$ArrayPad$ = -4					; size = 4
_nHead$ = 8						; size = 4
?SetHead@CMover@@QAEXH@Z PROC				; CMover::SetHead, COMDAT
; _this$ = ecx

; 225  : {

  00000	55		 push	 ebp
  00001	8b ec		 mov	 ebp, esp
  00003	83 ec 44	 sub	 esp, 68			; 00000044H
  00006	a1 00 00 00 00	 mov	 eax, DWORD PTR ___security_cookie
  0000b	33 c5		 xor	 eax, ebp
  0000d	89 45 fc	 mov	 DWORD PTR __$ArrayPad$[ebp], eax

; 226  : 	if( nHead < MAX_HEAD )

  00010	8b 45 08	 mov	 eax, DWORD PTR _nHead$[ebp]
  00013	83 f8 0b	 cmp	 eax, 11			; 0000000bH
  00016	7d 3e		 jge	 SHORT $LN2@SetHead

; 227  : 	{
; 228  : 		m_dwHeadMesh = nHead;

  00018	89 81 2c 06 00
	00		 mov	 DWORD PTR [ecx+1580], eax

; 229  : 		CModelObject* pModel = (CModelObject*)m_pModel;
; 230  : 		TCHAR lpszTemp[ 64 ];
; 231  : 		// Hair
; 232  : 		_stprintf( lpszTemp, PARTSMESH_HEAD( GetSex() ), m_dwHeadMesh + 1 );

  0001e	ba 00 00 00 00	 mov	 edx, OFFSET ??_C@_0BI@GIDPPID@Part_femaleHead?$CF02d?4o3d@
  00023	40		 inc	 eax
  00024	80 b9 18 06 00
	00 00		 cmp	 BYTE PTR [ecx+1560], 0
  0002b	56		 push	 esi
  0002c	8b b1 78 01 00
	00		 mov	 esi, DWORD PTR [ecx+376]
  00032	50		 push	 eax
  00033	b8 00 00 00 00	 mov	 eax, OFFSET ??_C@_0BG@CLDHKMH@Part_maleHead?$CF02d?4o3d@
  00038	0f 45 c2	 cmovne	 eax, edx
  0003b	50		 push	 eax
  0003c	8d 45 bc	 lea	 eax, DWORD PTR _lpszTemp$1[ebp]
  0003f	50		 push	 eax
  00040	e8 00 00 00 00	 call	 _sprintf
  00045	83 c4 0c	 add	 esp, 12			; 0000000cH

; 233  : 		pModel->LoadElement( lpszTemp, PARTS_HEAD );

  00048	8d 45 bc	 lea	 eax, DWORD PTR _lpszTemp$1[ebp]
  0004b	8b ce		 mov	 ecx, esi
  0004d	6a 00		 push	 0
  0004f	50		 push	 eax
  00050	e8 00 00 00 00	 call	 ?LoadElement@CModelObject@@QAEHPBDH@Z ; CModelObject::LoadElement
  00055	5e		 pop	 esi
$LN2@SetHead:

; 234  : 	}
; 235  : }

  00056	8b 4d fc	 mov	 ecx, DWORD PTR __$ArrayPad$[ebp]
  00059	33 cd		 xor	 ecx, ebp
  0005b	e8 00 00 00 00	 call	 @__security_check_cookie@4
  00060	8b e5		 mov	 esp, ebp
  00062	5d		 pop	 ebp
  00063	c2 04 00	 ret	 4
?SetHead@CMover@@QAEXH@Z ENDP				; CMover::SetHead
_TEXT	ENDS
; Function compile flags: /Ogtp
; File C:\IAGOS\server\v18\Source\Source\_common\MoverEquip.cpp
;	COMDAT ?SetHairColor@CMover@@QAEXMMM@Z
_TEXT	SEGMENT
_r$ = 8							; size = 4
$T1 = 8							; size = 4
_g$ = 12						; size = 4
_b$ = 16						; size = 4
?SetHairColor@CMover@@QAEXMMM@Z PROC			; CMover::SetHairColor, COMDAT
; _this$ = ecx

; 157  : { 

  00000	55		 push	 ebp
  00001	8b ec		 mov	 ebp, esp

; 158  : #ifndef __Y_HAIR_BUG_FIX	
; 159  : 	if( ( r == 1.0f && g == 1.0f && b == 1.0f ) || 

  00003	f3 0f 10 7d 08	 movss	 xmm7, DWORD PTR _r$[ebp]
  00008	f3 0f 10 0d 00
	00 00 00	 movss	 xmm1, DWORD PTR __real@3f800000
  00010	f3 0f 10 15 00
	00 00 00	 movss	 xmm2, DWORD PTR __real@437f0000
  00018	f3 0f 10 6d 10	 movss	 xmm5, DWORD PTR _b$[ebp]
  0001d	f3 0f 10 75 0c	 movss	 xmm6, DWORD PTR _g$[ebp]
  00022	0f 2e f9	 ucomiss xmm7, xmm1
  00025	56		 push	 esi
  00026	57		 push	 edi
  00027	8b f9		 mov	 edi, ecx
  00029	9f		 lahf
  0002a	f6 c4 44	 test	 ah, 68			; 00000044H
  0002d	7a 12		 jp	 SHORT $LN5@SetHairCol
  0002f	0f 2e f1	 ucomiss xmm6, xmm1
  00032	9f		 lahf
  00033	f6 c4 44	 test	 ah, 68			; 00000044H
  00036	7a 09		 jp	 SHORT $LN5@SetHairCol
  00038	0f 2e e9	 ucomiss xmm5, xmm1
  0003b	9f		 lahf
  0003c	f6 c4 44	 test	 ah, 68			; 00000044H
  0003f	7b 55		 jnp	 SHORT $LN4@SetHairCol
$LN5@SetHairCol:
  00041	f2 0f 10 1d 00
	00 00 00	 movsd	 xmm3, QWORD PTR __xmm@7fffffffffffffff7fffffffffffffff
  00049	0f 28 c7	 movaps	 xmm0, xmm7
  0004c	f2 0f 10 25 00
	00 00 00	 movsd	 xmm4, QWORD PTR __real@3f50624de0000000
  00054	f3 0f 5c c1	 subss	 xmm0, xmm1
  00058	0f 5a c0	 cvtps2pd xmm0, xmm0
  0005b	0f 54 c3	 andps	 xmm0, xmm3
  0005e	66 0f 2f e0	 comisd	 xmm4, xmm0
  00062	0f 86 d7 00 00
	00		 jbe	 $LN2@SetHairCol
  00068	0f 28 c6	 movaps	 xmm0, xmm6
  0006b	f3 0f 5c c1	 subss	 xmm0, xmm1
  0006f	0f 5a c0	 cvtps2pd xmm0, xmm0
  00072	0f 54 c3	 andps	 xmm0, xmm3
  00075	66 0f 2f e0	 comisd	 xmm4, xmm0
  00079	0f 86 c0 00 00
	00		 jbe	 $LN2@SetHairCol
  0007f	0f 28 c5	 movaps	 xmm0, xmm5
  00082	f3 0f 5c c1	 subss	 xmm0, xmm1
  00086	0f 5a c0	 cvtps2pd xmm0, xmm0
  00089	0f 54 c3	 andps	 xmm0, xmm3
  0008c	66 0f 2f e0	 comisd	 xmm4, xmm0
  00090	0f 86 a9 00 00
	00		 jbe	 $LN2@SetHairCol
$LN4@SetHairCol:

; 160  : 		( fabs( r - 1.0f ) < 0.001f && fabs( g - 1.0f ) < 0.001f && fabs( b - 1.0f ) < 0.001f ) )
; 161  : 	{
; 162  : 		if( GetSex() == SEX_MALE )

  00096	80 bf 18 06 00
	00 00		 cmp	 BYTE PTR [edi+1560], 0
  0009d	8b 8f 24 06 00
	00		 mov	 ecx, DWORD PTR [edi+1572]
  000a3	75 4d		 jne	 SHORT $LN6@SetHairCol

; 163  : 		{
; 164  : 			m_fHairColorR = (nMaleHairColor[m_dwHairMesh][0])/255.f;

  000a5	0f b6 84 49 00
	00 00 00	 movzx	 eax, BYTE PTR ?nMaleHairColor@@3PAY02EA[ecx+ecx*2]
  000ad	66 0f 6e c0	 movd	 xmm0, eax
  000b1	0f 5b c0	 cvtdq2ps xmm0, xmm0
  000b4	f3 0f 5e c2	 divss	 xmm0, xmm2
  000b8	f3 0f 11 87 30
	06 00 00	 movss	 DWORD PTR [edi+1584], xmm0

; 165  : 			m_fHairColorG = (nMaleHairColor[m_dwHairMesh][1])/255.f;

  000c0	0f b6 84 49 01
	00 00 00	 movzx	 eax, BYTE PTR ?nMaleHairColor@@3PAY02EA[ecx+ecx*2+1]
  000c8	66 0f 6e c0	 movd	 xmm0, eax
  000cc	0f 5b c0	 cvtdq2ps xmm0, xmm0
  000cf	f3 0f 5e c2	 divss	 xmm0, xmm2
  000d3	f3 0f 11 87 34
	06 00 00	 movss	 DWORD PTR [edi+1588], xmm0

; 166  : 			m_fHairColorB = (nMaleHairColor[m_dwHairMesh][2])/255.f;

  000db	0f b6 84 49 02
	00 00 00	 movzx	 eax, BYTE PTR ?nMaleHairColor@@3PAY02EA[ecx+ecx*2+2]

; 173  : 		}
; 174  : 	}

  000e3	66 0f 6e c8	 movd	 xmm1, eax
  000e7	8b c7		 mov	 eax, edi
  000e9	0f 5b c9	 cvtdq2ps xmm1, xmm1
  000ec	f3 0f 5e ca	 divss	 xmm1, xmm2
  000f0	eb 79		 jmp	 SHORT $LN21@SetHairCol
$LN6@SetHairCol:

; 167  : 		}
; 168  : 		else
; 169  : 		{
; 170  : 			m_fHairColorR = (nFeMaleHairColor[m_dwHairMesh][0])/255.f;

  000f2	0f b6 84 49 00
	00 00 00	 movzx	 eax, BYTE PTR ?nFeMaleHairColor@@3PAY02EA[ecx+ecx*2]
  000fa	66 0f 6e c0	 movd	 xmm0, eax
  000fe	0f 5b c0	 cvtdq2ps xmm0, xmm0
  00101	f3 0f 5e c2	 divss	 xmm0, xmm2
  00105	f3 0f 11 87 30
	06 00 00	 movss	 DWORD PTR [edi+1584], xmm0

; 171  : 			m_fHairColorG = (nFeMaleHairColor[m_dwHairMesh][1])/255.f;

  0010d	0f b6 84 49 01
	00 00 00	 movzx	 eax, BYTE PTR ?nFeMaleHairColor@@3PAY02EA[ecx+ecx*2+1]
  00115	66 0f 6e c0	 movd	 xmm0, eax
  00119	0f 5b c0	 cvtdq2ps xmm0, xmm0
  0011c	f3 0f 5e c2	 divss	 xmm0, xmm2
  00120	f3 0f 11 87 34
	06 00 00	 movss	 DWORD PTR [edi+1588], xmm0

; 172  : 			m_fHairColorB = (nFeMaleHairColor[m_dwHairMesh][2])/255.f;

  00128	0f b6 84 49 02
	00 00 00	 movzx	 eax, BYTE PTR ?nFeMaleHairColor@@3PAY02EA[ecx+ecx*2+2]

; 173  : 		}
; 174  : 	}

  00130	66 0f 6e c8	 movd	 xmm1, eax
  00134	8b c7		 mov	 eax, edi
  00136	0f 5b c9	 cvtdq2ps xmm1, xmm1
  00139	f3 0f 5e ca	 divss	 xmm1, xmm2
  0013d	eb 2c		 jmp	 SHORT $LN21@SetHairCol
$LN2@SetHairCol:

; 175  : 	else
; 176  : #endif //__Y_HAIR_BUG_FIX
; 177  : 	{
; 178  : #ifdef __Y_HAIR_BUG_FIX
; 179  : 		m_fHairColorR = ( r < 0.0f ) ? 0.0f : r;
; 180  : 		m_fHairColorG = ( g < 0.0f ) ? 0.0f : g;
; 181  : 		m_fHairColorB = ( b < 0.0f ) ? 0.0f : b;
; 182  : #else //__Y_HAIR_BUG_FIX
; 183  : 		m_fHairColorR = ( r < 0.3f ) ? 0.3f : r;

  0013f	f3 0f 10 0d 00
	00 00 00	 movss	 xmm1, DWORD PTR __real@3e99999a

; 184  : 		m_fHairColorG = ( g < 0.3f ) ? 0.3f : g;
; 185  : 		m_fHairColorB = ( b < 0.3f ) ? 0.3f : b;

  00147	8b c1		 mov	 eax, ecx
  00149	0f 28 c1	 movaps	 xmm0, xmm1
  0014c	f3 0f 5f c7	 maxss	 xmm0, xmm7
  00150	f3 0f 11 87 30
	06 00 00	 movss	 DWORD PTR [edi+1584], xmm0
  00158	0f 28 c1	 movaps	 xmm0, xmm1
  0015b	f3 0f 5f c6	 maxss	 xmm0, xmm6
  0015f	f3 0f 5f cd	 maxss	 xmm1, xmm5
  00163	f3 0f 11 87 34
	06 00 00	 movss	 DWORD PTR [edi+1588], xmm0
$LN21@SetHairCol:

; 186  : #endif //__Y_HAIR_BUG_FIX
; 187  : 	}
; 188  : 	
; 189  : 	m_dwHairColor = D3DCOLOR_COLORVALUE( m_fHairColorR, m_fHairColorG, m_fHairColorB, 1.0f );

  0016b	b9 38 06 00 00	 mov	 ecx, 1592		; 00000638H
  00170	f3 0f 11 4d 08	 movss	 DWORD PTR $T1[ebp], xmm1
  00175	f3 0f 11 0c 01	 movss	 DWORD PTR [ecx+eax], xmm1
  0017a	f3 0f 10 87 30
	06 00 00	 movss	 xmm0, DWORD PTR [edi+1584]
  00182	f3 0f 59 c2	 mulss	 xmm0, xmm2
  00186	e8 00 00 00 00	 call	 __ftol3
  0018b	f3 0f 10 87 34
	06 00 00	 movss	 xmm0, DWORD PTR [edi+1588]
  00193	8b f0		 mov	 esi, eax
  00195	f3 0f 59 05 00
	00 00 00	 mulss	 xmm0, DWORD PTR __real@437f0000
  0019d	81 ce 00 ff ff
	ff		 or	 esi, -256		; ffffff00H
  001a3	c1 e6 08	 shl	 esi, 8
  001a6	e8 00 00 00 00	 call	 __ftol3
  001ab	f3 0f 10 45 08	 movss	 xmm0, DWORD PTR $T1[ebp]
  001b0	f3 0f 59 05 00
	00 00 00	 mulss	 xmm0, DWORD PTR __real@437f0000
  001b8	0f b6 c8	 movzx	 ecx, al
  001bb	0b f1		 or	 esi, ecx
  001bd	c1 e6 08	 shl	 esi, 8
  001c0	e8 00 00 00 00	 call	 __ftol3
  001c5	0f b6 c0	 movzx	 eax, al
  001c8	0b f0		 or	 esi, eax
  001ca	89 b7 28 06 00
	00		 mov	 DWORD PTR [edi+1576], esi
  001d0	5f		 pop	 edi
  001d1	5e		 pop	 esi

; 190  : }

  001d2	5d		 pop	 ebp
  001d3	c2 0c 00	 ret	 12			; 0000000cH
?SetHairColor@CMover@@QAEXMMM@Z ENDP			; CMover::SetHairColor
_TEXT	ENDS
; Function compile flags: /Ogtp
; File C:\IAGOS\server\v18\Source\Source\_common\MoverEquip.cpp
;	COMDAT ?SetHairColor@CMover@@QAEXK@Z
_TEXT	SEGMENT
$T1 = -4						; size = 4
_dwHairColor$ = 8					; size = 4
$T2 = 8							; size = 4
?SetHairColor@CMover@@QAEXK@Z PROC			; CMover::SetHairColor, COMDAT
; _this$ = ecx

; 194  : {

  00000	55		 push	 ebp
  00001	8b ec		 mov	 ebp, esp
  00003	51		 push	 ecx

; 195  : 	m_dwHairColor = dwHairColor;

  00004	8b 55 08	 mov	 edx, DWORD PTR _dwHairColor$[ebp]

; 196  : 	m_fHairColorR = ((dwHairColor>>16) & 0xff) / 255.f;

  00007	8b c2		 mov	 eax, edx
  00009	c1 e8 10	 shr	 eax, 16			; 00000010H
  0000c	0f b6 c0	 movzx	 eax, al
  0000f	f3 0f 10 15 00
	00 00 00	 movss	 xmm2, DWORD PTR __real@437f0000

; 197  : 	m_fHairColorG = ((dwHairColor>>8) & 0xff)  / 255.f;
; 198  : 	m_fHairColorB = ((dwHairColor) & 0xff)     / 255.f;
; 199  : 
; 200  : #ifndef __Y_HAIR_BUG_FIX
; 201  : 	if( ( m_fHairColorR == 1.0f && m_fHairColorG == 1.0f && m_fHairColorB == 1.0f ) || 

  00017	f3 0f 10 25 00
	00 00 00	 movss	 xmm4, DWORD PTR __real@3f800000
  0001f	56		 push	 esi
  00020	66 0f 6e c0	 movd	 xmm0, eax
  00024	f3 0f e6 c0	 cvtdq2pd xmm0, xmm0
  00028	c1 e8 1f	 shr	 eax, 31			; 0000001fH
  0002b	57		 push	 edi
  0002c	8b f9		 mov	 edi, ecx
  0002e	f2 0f 58 04 c5
	00 00 00 00	 addsd	 xmm0, QWORD PTR __xmm@41f00000000000000000000000000000[eax*8]
  00037	8b c2		 mov	 eax, edx
  00039	89 97 28 06 00
	00		 mov	 DWORD PTR [edi+1576], edx
  0003f	c1 e8 08	 shr	 eax, 8
  00042	0f b6 c0	 movzx	 eax, al
  00045	66 0f 5a f0	 cvtpd2ps xmm6, xmm0
  00049	66 0f 6e c0	 movd	 xmm0, eax
  0004d	f3 0f e6 c0	 cvtdq2pd xmm0, xmm0
  00051	c1 e8 1f	 shr	 eax, 31			; 0000001fH
  00054	f3 0f 5e f2	 divss	 xmm6, xmm2
  00058	f2 0f 58 04 c5
	00 00 00 00	 addsd	 xmm0, QWORD PTR __xmm@41f00000000000000000000000000000[eax*8]
  00061	0f b6 c2	 movzx	 eax, dl
  00064	f3 0f 11 b7 30
	06 00 00	 movss	 DWORD PTR [edi+1584], xmm6
  0006c	66 0f 5a e8	 cvtpd2ps xmm5, xmm0
  00070	66 0f 6e c0	 movd	 xmm0, eax
  00074	f3 0f e6 c0	 cvtdq2pd xmm0, xmm0
  00078	c1 e8 1f	 shr	 eax, 31			; 0000001fH
  0007b	f3 0f 5e ea	 divss	 xmm5, xmm2
  0007f	f2 0f 58 04 c5
	00 00 00 00	 addsd	 xmm0, QWORD PTR __xmm@41f00000000000000000000000000000[eax*8]
  00088	0f 2e f4	 ucomiss xmm6, xmm4
  0008b	66 0f 5a d8	 cvtpd2ps xmm3, xmm0
  0008f	9f		 lahf
  00090	f3 0f 11 af 34
	06 00 00	 movss	 DWORD PTR [edi+1588], xmm5
  00098	f3 0f 5e da	 divss	 xmm3, xmm2
  0009c	f3 0f 11 9f 38
	06 00 00	 movss	 DWORD PTR [edi+1592], xmm3
  000a4	f6 c4 44	 test	 ah, 68			; 00000044H
  000a7	7a 16		 jp	 SHORT $LN4@SetHairCol
  000a9	0f 2e ec	 ucomiss xmm5, xmm4
  000ac	9f		 lahf
  000ad	f6 c4 44	 test	 ah, 68			; 00000044H
  000b0	7a 0d		 jp	 SHORT $LN4@SetHairCol
  000b2	0f 2e dc	 ucomiss xmm3, xmm4
  000b5	9f		 lahf
  000b6	f6 c4 44	 test	 ah, 68			; 00000044H
  000b9	0f 8b a2 00 00
	00		 jnp	 $LN3@SetHairCol
$LN4@SetHairCol:
  000bf	f2 0f 10 3d 00
	00 00 00	 movsd	 xmm7, QWORD PTR __xmm@7fffffffffffffff7fffffffffffffff
  000c7	0f 28 c5	 movaps	 xmm0, xmm5
  000ca	f3 0f 11 45 08	 movss	 DWORD PTR $T2[ebp], xmm0
  000cf	0f 28 ce	 movaps	 xmm1, xmm6
  000d2	0f 28 c3	 movaps	 xmm0, xmm3
  000d5	f3 0f 11 45 fc	 movss	 DWORD PTR $T1[ebp], xmm0
  000da	0f 28 c6	 movaps	 xmm0, xmm6
  000dd	f3 0f 5c c4	 subss	 xmm0, xmm4
  000e1	0f 5a c0	 cvtps2pd xmm0, xmm0
  000e4	0f 54 c7	 andps	 xmm0, xmm7
  000e7	f2 0f 10 3d 00
	00 00 00	 movsd	 xmm7, QWORD PTR __real@3f50624de0000000
  000ef	66 0f 2f f8	 comisd	 xmm7, xmm0
  000f3	f2 0f 10 3d 00
	00 00 00	 movsd	 xmm7, QWORD PTR __xmm@7fffffffffffffff7fffffffffffffff
  000fb	0f 86 0a 01 00
	00		 jbe	 $LN6@SetHairCol
  00101	0f 28 c5	 movaps	 xmm0, xmm5
  00104	f3 0f 11 45 08	 movss	 DWORD PTR $T2[ebp], xmm0
  00109	0f 28 c3	 movaps	 xmm0, xmm3
  0010c	f3 0f 11 45 fc	 movss	 DWORD PTR $T1[ebp], xmm0
  00111	0f 28 c5	 movaps	 xmm0, xmm5
  00114	f3 0f 5c c4	 subss	 xmm0, xmm4
  00118	0f 5a c0	 cvtps2pd xmm0, xmm0
  0011b	0f 54 c7	 andps	 xmm0, xmm7
  0011e	f2 0f 10 3d 00
	00 00 00	 movsd	 xmm7, QWORD PTR __real@3f50624de0000000
  00126	66 0f 2f f8	 comisd	 xmm7, xmm0
  0012a	f2 0f 10 3d 00
	00 00 00	 movsd	 xmm7, QWORD PTR __xmm@7fffffffffffffff7fffffffffffffff
  00132	0f 86 d3 00 00
	00		 jbe	 $LN6@SetHairCol
  00138	0f 28 c3	 movaps	 xmm0, xmm3
  0013b	f3 0f 11 6d 08	 movss	 DWORD PTR $T2[ebp], xmm5
  00140	f3 0f 5c dc	 subss	 xmm3, xmm4
  00144	f3 0f 11 45 fc	 movss	 DWORD PTR $T1[ebp], xmm0
  00149	0f 5a c3	 cvtps2pd xmm0, xmm3
  0014c	f2 0f 10 1d 00
	00 00 00	 movsd	 xmm3, QWORD PTR __real@3f50624de0000000
  00154	0f 54 c7	 andps	 xmm0, xmm7
  00157	66 0f 2f d8	 comisd	 xmm3, xmm0
  0015b	0f 86 aa 00 00
	00		 jbe	 $LN6@SetHairCol
$LN3@SetHairCol:

; 202  : 		( fabs( m_fHairColorR - 1.0f ) < 0.001f && fabs( m_fHairColorG - 1.0f ) < 0.001f && fabs( m_fHairColorB - 1.0f ) < 0.001f ) )
; 203  : 	{
; 204  : 		if( GetSex() == SEX_MALE )

  00161	80 bf 18 06 00
	00 00		 cmp	 BYTE PTR [edi+1560], 0
  00168	8b 8f 24 06 00
	00		 mov	 ecx, DWORD PTR [edi+1572]
  0016e	75 40		 jne	 SHORT $LN5@SetHairCol

; 205  : 		{
; 206  : 			m_fHairColorR = (nMaleHairColor[m_dwHairMesh][0])/255.f;

  00170	0f b6 84 49 00
	00 00 00	 movzx	 eax, BYTE PTR ?nMaleHairColor@@3PAY02EA[ecx+ecx*2]
  00178	66 0f 6e c8	 movd	 xmm1, eax
  0017c	0f 5b c9	 cvtdq2ps xmm1, xmm1
  0017f	f3 0f 5e ca	 divss	 xmm1, xmm2
  00183	f3 0f 11 8f 30
	06 00 00	 movss	 DWORD PTR [edi+1584], xmm1

; 207  : 			m_fHairColorG = (nMaleHairColor[m_dwHairMesh][1])/255.f;

  0018b	0f b6 84 49 01
	00 00 00	 movzx	 eax, BYTE PTR ?nMaleHairColor@@3PAY02EA[ecx+ecx*2+1]
  00193	66 0f 6e c0	 movd	 xmm0, eax
  00197	0f 5b c0	 cvtdq2ps xmm0, xmm0
  0019a	f3 0f 5e c2	 divss	 xmm0, xmm2
  0019e	f3 0f 11 87 34
	06 00 00	 movss	 DWORD PTR [edi+1588], xmm0

; 208  : 			m_fHairColorB = (nMaleHairColor[m_dwHairMesh][2])/255.f;

  001a6	0f b6 84 49 02
	00 00 00	 movzx	 eax, BYTE PTR ?nMaleHairColor@@3PAY02EA[ecx+ecx*2+2]

; 209  : 		}

  001ae	eb 3e		 jmp	 SHORT $LN13@SetHairCol
$LN5@SetHairCol:

; 210  : 		else
; 211  : 		{
; 212  : 			m_fHairColorR = (nFeMaleHairColor[m_dwHairMesh][0])/255.f;

  001b0	0f b6 84 49 00
	00 00 00	 movzx	 eax, BYTE PTR ?nFeMaleHairColor@@3PAY02EA[ecx+ecx*2]
  001b8	66 0f 6e c8	 movd	 xmm1, eax
  001bc	0f 5b c9	 cvtdq2ps xmm1, xmm1
  001bf	f3 0f 5e ca	 divss	 xmm1, xmm2
  001c3	f3 0f 11 8f 30
	06 00 00	 movss	 DWORD PTR [edi+1584], xmm1

; 213  : 			m_fHairColorG = (nFeMaleHairColor[m_dwHairMesh][1])/255.f;

  001cb	0f b6 84 49 01
	00 00 00	 movzx	 eax, BYTE PTR ?nFeMaleHairColor@@3PAY02EA[ecx+ecx*2+1]
  001d3	66 0f 6e c0	 movd	 xmm0, eax
  001d7	0f 5b c0	 cvtdq2ps xmm0, xmm0
  001da	f3 0f 5e c2	 divss	 xmm0, xmm2
  001de	f3 0f 11 87 34
	06 00 00	 movss	 DWORD PTR [edi+1588], xmm0

; 214  : 			m_fHairColorB = (nFeMaleHairColor[m_dwHairMesh][2])/255.f;

  001e6	0f b6 84 49 02
	00 00 00	 movzx	 eax, BYTE PTR ?nFeMaleHairColor@@3PAY02EA[ecx+ecx*2+2]
$LN13@SetHairCol:

; 215  : 		}
; 216  : 
; 217  : 	}
; 218  : #endif //__Y_HAIR_BUG_FIX
; 219  : 
; 220  : 	m_dwHairColor = D3DCOLOR_COLORVALUE( m_fHairColorR, m_fHairColorG, m_fHairColorB, 1.0f );

  001ee	f3 0f 11 45 08	 movss	 DWORD PTR $T2[ebp], xmm0
  001f3	66 0f 6e c0	 movd	 xmm0, eax
  001f7	0f 5b c0	 cvtdq2ps xmm0, xmm0
  001fa	f3 0f 5e c2	 divss	 xmm0, xmm2
  001fe	f3 0f 11 87 38
	06 00 00	 movss	 DWORD PTR [edi+1592], xmm0
  00206	f3 0f 11 45 fc	 movss	 DWORD PTR $T1[ebp], xmm0
$LN6@SetHairCol:
  0020b	f3 0f 59 ca	 mulss	 xmm1, xmm2
  0020f	0f 28 c1	 movaps	 xmm0, xmm1
  00212	e8 00 00 00 00	 call	 __ftol3
  00217	f3 0f 10 45 08	 movss	 xmm0, DWORD PTR $T2[ebp]
  0021c	8b f0		 mov	 esi, eax
  0021e	f3 0f 59 05 00
	00 00 00	 mulss	 xmm0, DWORD PTR __real@437f0000
  00226	81 ce 00 ff ff
	ff		 or	 esi, -256		; ffffff00H
  0022c	c1 e6 08	 shl	 esi, 8
  0022f	e8 00 00 00 00	 call	 __ftol3
  00234	f3 0f 10 45 fc	 movss	 xmm0, DWORD PTR $T1[ebp]
  00239	f3 0f 59 05 00
	00 00 00	 mulss	 xmm0, DWORD PTR __real@437f0000
  00241	0f b6 c8	 movzx	 ecx, al
  00244	0b f1		 or	 esi, ecx
  00246	c1 e6 08	 shl	 esi, 8
  00249	e8 00 00 00 00	 call	 __ftol3
  0024e	0f b6 c0	 movzx	 eax, al
  00251	0b f0		 or	 esi, eax
  00253	89 b7 28 06 00
	00		 mov	 DWORD PTR [edi+1576], esi
  00259	5f		 pop	 edi
  0025a	5e		 pop	 esi

; 221  : }

  0025b	8b e5		 mov	 esp, ebp
  0025d	5d		 pop	 ebp
  0025e	c2 04 00	 ret	 4
?SetHairColor@CMover@@QAEXK@Z ENDP			; CMover::SetHairColor
_TEXT	ENDS
; Function compile flags: /Ogtp
; File C:\IAGOS\server\v18\Source\Source\_common\MoverEquip.cpp
;	COMDAT ?SetHair@CMover@@QAEXH@Z
_TEXT	SEGMENT
_lpszTemp$1 = -68					; size = 64
__$ArrayPad$ = -4					; size = 4
_nHair$ = 8						; size = 4
?SetHair@CMover@@QAEXH@Z PROC				; CMover::SetHair, COMDAT
; _this$ = ecx

; 142  : {

  00000	55		 push	 ebp
  00001	8b ec		 mov	 ebp, esp
  00003	83 ec 44	 sub	 esp, 68			; 00000044H
  00006	a1 00 00 00 00	 mov	 eax, DWORD PTR ___security_cookie
  0000b	33 c5		 xor	 eax, ebp
  0000d	89 45 fc	 mov	 DWORD PTR __$ArrayPad$[ebp], eax

; 143  : 	if( nHair >= 0 && nHair < MAX_HAIR )

  00010	8b 45 08	 mov	 eax, DWORD PTR _nHair$[ebp]
  00013	57		 push	 edi
  00014	8b f9		 mov	 edi, ecx
  00016	85 c0		 test	 eax, eax
  00018	0f 88 8c 00 00
	00		 js	 $LN2@SetHair
  0001e	83 f8 0a	 cmp	 eax, 10			; 0000000aH
  00021	0f 8d 83 00 00
	00		 jge	 $LN2@SetHair

; 144  : 	{
; 145  : 		m_dwHairMesh = nHair;

  00027	89 87 24 06 00
	00		 mov	 DWORD PTR [edi+1572], eax

; 146  : 		CModelObject* pModel = (CModelObject*)m_pModel;
; 147  : 		TCHAR lpszTemp[ 64 ];
; 148  : 		// Hair
; 149  : 		_stprintf( lpszTemp, PARTSMESH_HAIR( GetSex() ), m_dwHairMesh + 1 );

  0002d	b9 00 00 00 00	 mov	 ecx, OFFSET ??_C@_0BI@JFPGNEBG@Part_femaleHair?$CF02d?4o3d@
  00032	40		 inc	 eax
  00033	80 bf 18 06 00
	00 00		 cmp	 BYTE PTR [edi+1560], 0
  0003a	56		 push	 esi
  0003b	8b b7 78 01 00
	00		 mov	 esi, DWORD PTR [edi+376]
  00041	50		 push	 eax
  00042	b8 00 00 00 00	 mov	 eax, OFFSET ??_C@_0BG@JBMGFBFC@Part_maleHair?$CF02d?4o3d@
  00047	0f 45 c1	 cmovne	 eax, ecx
  0004a	50		 push	 eax
  0004b	8d 45 bc	 lea	 eax, DWORD PTR _lpszTemp$1[ebp]
  0004e	50		 push	 eax
  0004f	e8 00 00 00 00	 call	 _sprintf
  00054	83 c4 0c	 add	 esp, 12			; 0000000cH

; 150  : 		pModel->LoadElement( lpszTemp, PARTS_HAIR );

  00057	8d 45 bc	 lea	 eax, DWORD PTR _lpszTemp$1[ebp]
  0005a	8b ce		 mov	 ecx, esi
  0005c	6a 01		 push	 1
  0005e	50		 push	 eax
  0005f	e8 00 00 00 00	 call	 ?LoadElement@CModelObject@@QAEHPBDH@Z ; CModelObject::LoadElement

; 151  : 		_stprintf( lpszTemp, PARTSTEX_HAIR( GetSex() ), 0 /*nHairColor*/ + 1 );

  00064	80 bf 18 06 00
	00 00		 cmp	 BYTE PTR [edi+1560], 0
  0006b	b9 00 00 00 00	 mov	 ecx, OFFSET ??_C@_0BI@COIHOPLE@Part_femaleHair?$CF02d?4dds@
  00070	b8 00 00 00 00	 mov	 eax, OFFSET ??_C@_0BG@CKLHGKPA@Part_maleHair?$CF02d?4dds@
  00075	0f 45 c1	 cmovne	 eax, ecx
  00078	6a 01		 push	 1
  0007a	50		 push	 eax
  0007b	8d 45 bc	 lea	 eax, DWORD PTR _lpszTemp$1[ebp]
  0007e	50		 push	 eax
  0007f	e8 00 00 00 00	 call	 _sprintf
  00084	83 c4 0c	 add	 esp, 12			; 0000000cH

; 152  : 		pModel->ChangeTexture( PARTS_HAIR, TEX_PART_HAIR( GetSex() ), lpszTemp );

  00087	8d 45 bc	 lea	 eax, DWORD PTR _lpszTemp$1[ebp]
  0008a	80 bf 18 06 00
	00 00		 cmp	 BYTE PTR [edi+1560], 0
  00091	b9 00 00 00 00	 mov	 ecx, OFFSET ??_C@_0BG@IINDKLJA@Part_femaleHair01?4dds@
  00096	50		 push	 eax
  00097	b8 00 00 00 00	 mov	 eax, OFFSET ??_C@_0BE@CFLEBCFF@Part_maleHair01?4dds@
  0009c	0f 45 c1	 cmovne	 eax, ecx
  0009f	8b ce		 mov	 ecx, esi
  000a1	50		 push	 eax
  000a2	6a 01		 push	 1
  000a4	e8 00 00 00 00	 call	 ?ChangeTexture@CModelObject@@QAEXHPBD0@Z ; CModelObject::ChangeTexture
  000a9	5e		 pop	 esi
$LN2@SetHair:

; 153  : 	}
; 154  : }

  000aa	8b 4d fc	 mov	 ecx, DWORD PTR __$ArrayPad$[ebp]
  000ad	33 cd		 xor	 ecx, ebp
  000af	5f		 pop	 edi
  000b0	e8 00 00 00 00	 call	 @__security_check_cookie@4
  000b5	8b e5		 mov	 esp, ebp
  000b7	5d		 pop	 ebp
  000b8	c2 04 00	 ret	 4
?SetHair@CMover@@QAEXH@Z ENDP				; CMover::SetHair
_TEXT	ENDS
; Function compile flags: /Ogtp
; File C:\IAGOS\server\v18\Source\Source\_common\MoverEquip.cpp
; File C:\IAGOS\server\v18\Source\Source\_Common\Item.h
; File C:\IAGOS\server\v18\Source\Source\_common\MoverEquip.cpp
; File C:\IAGOS\server\v18\Source\Source\_Common\Item.h
; File C:\IAGOS\server\v18\Source\Source\_Common\Project.h
; File C:\IAGOS\server\v18\Source\Source\_Common\data.h
; File C:\IAGOS\server\v18\Source\Source\_Common\Project.h
; File C:\IAGOS\server\v18\Source\Source\_common\MoverEquip.cpp
; File C:\IAGOS\server\v18\Source\Source\_Common\Item.h
; File C:\IAGOS\server\v18\Source\Source\_common\MoverEquip.cpp
; File C:\IAGOS\server\v18\Source\Source\_Common\Item.h
; File C:\IAGOS\server\v18\Source\Source\_common\MoverEquip.cpp
; File C:\Program Files\Microsoft Visual Studio\2022\Professional\VC\Tools\MSVC\14.44.35207\include\vector
; File C:\IAGOS\server\v18\Source\Source\_common\MoverEquip.cpp
; File C:\Program Files\Microsoft Visual Studio\2022\Professional\VC\Tools\MSVC\14.44.35207\include\vector
; File C:\IAGOS\server\v18\Source\Source\_common\MoverEquip.cpp
; File C:\Program Files\Microsoft Visual Studio\2022\Professional\VC\Tools\MSVC\14.44.35207\include\vector
; File C:\IAGOS\server\v18\Source\Source\_common\MoverEquip.cpp
; File C:\Program Files\Microsoft Visual Studio\2022\Professional\VC\Tools\MSVC\14.44.35207\include\vector
; File C:\IAGOS\server\v18\Source\Source\_common\MoverEquip.cpp
;	COMDAT ?ResetDestParamEquip@CMover@@QAEXPAUItemProp@@PAVCItemElem@@@Z
_TEXT	SEGMENT
tv635 = -12						; size = 4
_pProperty$1$ = -12					; size = 4
_pDst$1$ = -12						; size = 4
_nStrong$1$ = -8					; size = 4
tv634 = -4						; size = 4
_nWeak$1$ = -4						; size = 4
_pItemProp$ = 8						; size = 4
_pItemElem$ = 12					; size = 4
?ResetDestParamEquip@CMover@@QAEXPAUItemProp@@PAVCItemElem@@@Z PROC ; CMover::ResetDestParamEquip, COMDAT
; _this$ = ecx

; 2232 : {

  00000	55		 push	 ebp
  00001	8b ec		 mov	 ebp, esp
  00003	83 ec 0c	 sub	 esp, 12			; 0000000cH
  00006	56		 push	 esi

; 2233 : 	if( pItemElem && pItemElem->IsFlag( CItemElem::expired ) )

  00007	8b 75 0c	 mov	 esi, DWORD PTR _pItemElem$[ebp]
  0000a	57		 push	 edi
  0000b	8b f9		 mov	 edi, ecx
  0000d	85 f6		 test	 esi, esi
  0000f	74 0a		 je	 SHORT $LN5@ResetDestP
; File C:\IAGOS\server\v18\Source\Source\_Common\Item.h

; 257  : 	BOOL	IsFlag( BYTE byFlag )	{	return ( m_byFlag & byFlag ) ? TRUE: FALSE;		}

  00011	f6 46 76 01	 test	 BYTE PTR [esi+118], 1
; File C:\IAGOS\server\v18\Source\Source\_common\MoverEquip.cpp

; 2233 : 	if( pItemElem && pItemElem->IsFlag( CItemElem::expired ) )

  00015	0f 85 c1 02 00
	00		 jne	 $LN19@ResetDestP
$LN5@ResetDestP:
  0001b	53		 push	 ebx

; 2234 : 		return;
; 2235 : 
; 2236 : #ifdef __WORLDSERVER
; 2237 : 	RunItemScript( this, pItemProp->dwID, ITEM_OP_UNEQUIP, NULL );

  0001c	8b 5d 08	 mov	 ebx, DWORD PTR _pItemProp$[ebp]
  0001f	6a 00		 push	 0
  00021	6a 01		 push	 1
  00023	ff 33		 push	 DWORD PTR [ebx]
  00025	57		 push	 edi
  00026	e8 00 00 00 00	 call	 ?RunItemScript@@YAHPAVCMover@@KW4ITEM_OP@@PAH@Z ; RunItemScript

; 2238 : #endif // __WORLDSERVER
; 2239 : 
; 2240 : 	if( pItemProp->dwDestParam1 != -1 )

  0002b	8b 83 40 01 00
	00		 mov	 eax, DWORD PTR [ebx+320]
  00031	83 c4 10	 add	 esp, 16			; 00000010H
  00034	83 f8 ff	 cmp	 eax, -1
  00037	74 10		 je	 SHORT $LN6@ResetDestP

; 2241 : 		ResetDestParam( pItemProp->dwDestParam1, pItemProp->nAdjParamVal1 );

  00039	6a 01		 push	 1
  0003b	ff b3 4c 01 00
	00		 push	 DWORD PTR [ebx+332]
  00041	8b cf		 mov	 ecx, edi
  00043	50		 push	 eax
  00044	e8 00 00 00 00	 call	 ?ResetDestParam@CMover@@QAEXHHH@Z ; CMover::ResetDestParam
$LN6@ResetDestP:

; 2242 : 	if( pItemProp->dwDestParam2 != -1 )

  00049	8b 83 44 01 00
	00		 mov	 eax, DWORD PTR [ebx+324]
  0004f	83 f8 ff	 cmp	 eax, -1
  00052	74 10		 je	 SHORT $LN7@ResetDestP

; 2243 : 		ResetDestParam( pItemProp->dwDestParam2, pItemProp->nAdjParamVal2 );

  00054	6a 01		 push	 1
  00056	ff b3 50 01 00
	00		 push	 DWORD PTR [ebx+336]
  0005c	8b cf		 mov	 ecx, edi
  0005e	50		 push	 eax
  0005f	e8 00 00 00 00	 call	 ?ResetDestParam@CMover@@QAEXHHH@Z ; CMover::ResetDestParam
$LN7@ResetDestP:

; 2244 : #ifdef __PROP_0827
; 2245 : 	if( pItemProp->dwDestParam3 != -1 )

  00064	8b 83 48 01 00
	00		 mov	 eax, DWORD PTR [ebx+328]
  0006a	83 f8 ff	 cmp	 eax, -1
  0006d	74 10		 je	 SHORT $LN8@ResetDestP

; 2246 : 		ResetDestParam( pItemProp->dwDestParam3, pItemProp->nAdjParamVal3 );

  0006f	6a 01		 push	 1
  00071	ff b3 54 01 00
	00		 push	 DWORD PTR [ebx+340]
  00077	8b cf		 mov	 ecx, edi
  00079	50		 push	 eax
  0007a	e8 00 00 00 00	 call	 ?ResetDestParam@CMover@@QAEXHHH@Z ; CMover::ResetDestParam
$LN8@ResetDestP:

; 2249 : 	if( pItemElem && pItemElem->m_nResistAbilityOption && pItemElem->GetProp()->dwItemKind1 == IK1_ARMOR )

  0007f	85 f6		 test	 esi, esi
  00081	0f 84 1f 01 00
	00		 je	 $LN9@ResetDestP
  00087	83 be 80 00 00
	00 00		 cmp	 DWORD PTR [esi+128], 0
  0008e	0f 84 12 01 00
	00		 je	 $LN9@ResetDestP
; File C:\IAGOS\server\v18\Source\Source\_Common\Item.h

; 230  : 	ItemProp*	GetProp()	{	return prj.GetItemProp( m_dwItemId );	}

  00094	8b 4e 0c	 mov	 ecx, DWORD PTR [esi+12]
; File C:\IAGOS\server\v18\Source\Source\_Common\Project.h

; 1389 : 	VERIFY_RANGE_ASSERT( nIndex, 0, m_aPropItem.GetSize(), "GetItemProp range_error", NULL );

  00097	a1 40 02 00 00	 mov	 eax, DWORD PTR ?prj@@3VCProject@@A+576
  0009c	85 c9		 test	 ecx, ecx
  0009e	78 10		 js	 SHORT $LN34@ResetDestP
  000a0	3b c8		 cmp	 ecx, eax
  000a2	7d 0c		 jge	 SHORT $LN34@ResetDestP
; File C:\IAGOS\server\v18\Source\Source\_Common\data.h

; 270  : 	if( dwIndex >= (DWORD)m_nMaxIndex )

  000a4	73 20		 jae	 SHORT $LN81@ResetDestP

; 271  : 		return NULL;
; 272  : 	return (T*) m_apOffset[ dwIndex ];

  000a6	a1 30 02 00 00	 mov	 eax, DWORD PTR ?prj@@3VCProject@@A+560
  000ab	8b 04 88	 mov	 eax, DWORD PTR [eax+ecx*4]
; File C:\IAGOS\server\v18\Source\Source\_Common\Project.h

; 1390 : 	return m_aPropItem.GetAt( nIndex ); 

  000ae	eb 18		 jmp	 SHORT $LN29@ResetDestP
$LN34@ResetDestP:

; 579  : 	LPCTSTR szErr = Error( _T( "%s min:%d, max:%d, index:%d" ), szMsg, nMin, nMax, nIndex ); 

  000b0	51		 push	 ecx
  000b1	50		 push	 eax
  000b2	6a 00		 push	 0
  000b4	68 00 00 00 00	 push	 OFFSET ??_C@_0BI@BEIFNGEL@GetItemProp?5range_error@
  000b9	68 00 00 00 00	 push	 OFFSET ??_C@_0BM@HMFGHCP@?$CFs?5min?3?$CFd?0?5max?3?$CFd?0?5index?3?$CFd@
  000be	e8 00 00 00 00	 call	 ?Error@@YAPBDPBDZZ	; Error
  000c3	83 c4 14	 add	 esp, 20			; 00000014H
$LN81@ResetDestP:
; File C:\IAGOS\server\v18\Source\Source\_common\MoverEquip.cpp

; 2249 : 	if( pItemElem && pItemElem->m_nResistAbilityOption && pItemElem->GetProp()->dwItemKind1 == IK1_ARMOR )

  000c6	33 c0		 xor	 eax, eax
$LN29@ResetDestP:
  000c8	83 78 70 02	 cmp	 DWORD PTR [eax+112], 2
  000cc	0f 85 d4 00 00
	00		 jne	 $LN9@ResetDestP

; 2250 : 	{
; 2251 : 		if( pItemElem->m_bItemResist != SAI79::NO_PROP )

  000d2	8a 46 7c	 mov	 al, BYTE PTR [esi+124]
  000d5	89 45 fc	 mov	 DWORD PTR tv634[ebp], eax
  000d8	88 45 f4	 mov	 BYTE PTR tv635[ebp], al
  000db	84 c0		 test	 al, al
  000dd	0f 84 39 01 00
	00		 je	 $LN56@ResetDestP

; 2252 : 		{
; 2253 : 			int nSelf   = GetSelfDST( pItemElem->m_bItemResist );
; 2254 : 			int nStrong = GetStrongDST( pItemElem->m_bItemResist );

  000e3	50		 push	 eax
  000e4	e8 00 00 00 00	 call	 ?GetStrongDST@@YAHE@Z	; GetStrongDST

; 2255 : 			int nWeak   = GetWeakDST( pItemElem->m_bItemResist );

  000e9	ff 75 fc	 push	 DWORD PTR tv634[ebp]
  000ec	89 45 f8	 mov	 DWORD PTR _nStrong$1$[ebp], eax
  000ef	e8 00 00 00 00	 call	 ?GetWeakDST@@YAHE@Z	; GetWeakDST
  000f4	83 c4 08	 add	 esp, 8
  000f7	89 45 fc	 mov	 DWORD PTR _nWeak$1$[ebp], eax

; 2256 : 
; 2257 : 			if( ::GetLanguage() == LANG_THA )			

  000fa	e8 00 00 00 00	 call	 ?GetLanguage@@YAHXZ	; GetLanguage
  000ff	8b 8e 80 00 00
	00		 mov	 ecx, DWORD PTR [esi+128]
  00105	6a 01		 push	 1
  00107	83 f8 04	 cmp	 eax, 4
  0010a	75 74		 jne	 SHORT $LN12@ResetDestP

; 2258 : 			{
; 2259 : 				float fResult = ((float)pItemElem->m_nResistAbilityOption+1.2f) * (0.7f+(float)(pItemElem->m_nResistAbilityOption*0.01f));

  0010c	66 0f 6e c1	 movd	 xmm0, ecx
  00110	0f 5b c0	 cvtdq2ps xmm0, xmm0
  00113	0f 28 c8	 movaps	 xmm1, xmm0
  00116	f3 0f 59 0d 00
	00 00 00	 mulss	 xmm1, DWORD PTR __real@3c23d70a
  0011e	f3 0f 58 05 00
	00 00 00	 addss	 xmm0, DWORD PTR __real@3f99999a
  00126	f3 0f 58 0d 00
	00 00 00	 addss	 xmm1, DWORD PTR __real@3f333333
  0012e	f3 0f 59 c8	 mulss	 xmm1, xmm0

; 2260 : 				int nResult = (int)( fResult * fResult );

  00132	f3 0f 59 c9	 mulss	 xmm1, xmm1
  00136	f3 0f 2c f1	 cvttss2si esi, xmm1

; 2261 : 
; 2262 : 				ResetDestParam( nSelf,   nResult );

  0013a	56		 push	 esi
  0013b	ff 75 f4	 push	 DWORD PTR tv635[ebp]
  0013e	e8 00 00 00 00	 call	 ?GetSelfDST@@YAHE@Z	; GetSelfDST
  00143	83 c4 04	 add	 esp, 4
  00146	8b cf		 mov	 ecx, edi
  00148	50		 push	 eax
  00149	e8 00 00 00 00	 call	 ?ResetDestParam@CMover@@QAEXHHH@Z ; CMover::ResetDestParam

; 2263 : 				ResetDestParam( nWeak,  -nResult/2 );

  0014e	8b c6		 mov	 eax, esi
  00150	8b cf		 mov	 ecx, edi
  00152	99		 cdq
  00153	2b c2		 sub	 eax, edx
  00155	d1 f8		 sar	 eax, 1
  00157	6a 01		 push	 1
  00159	f7 d8		 neg	 eax
  0015b	50		 push	 eax
  0015c	ff 75 fc	 push	 DWORD PTR _nWeak$1$[ebp]
  0015f	e8 00 00 00 00	 call	 ?ResetDestParam@CMover@@QAEXHHH@Z ; CMover::ResetDestParam

; 2264 : 				ResetDestParam( nStrong, nResult/2 );

  00164	8b c6		 mov	 eax, esi
  00166	8b cf		 mov	 ecx, edi
  00168	99		 cdq
  00169	2b c2		 sub	 eax, edx
  0016b	6a 01		 push	 1
  0016d	d1 f8		 sar	 eax, 1
  0016f	50		 push	 eax
  00170	ff 75 f8	 push	 DWORD PTR _nStrong$1$[ebp]
  00173	e8 00 00 00 00	 call	 ?ResetDestParam@CMover@@QAEXHHH@Z ; CMover::ResetDestParam

; 2265 : 			}

  00178	8b 75 0c	 mov	 esi, DWORD PTR _pItemElem$[ebp]
  0017b	e9 9c 00 00 00	 jmp	 $LN56@ResetDestP
$LN12@ResetDestP:

; 2266 : 			else
; 2267 : 			{
; 2268 : 				ResetDestParam( nWeak,  -pItemElem->m_nResistAbilityOption*2 );

  00180	f7 d9		 neg	 ecx
  00182	03 c9		 add	 ecx, ecx
  00184	51		 push	 ecx
  00185	ff 75 fc	 push	 DWORD PTR _nWeak$1$[ebp]
  00188	8b cf		 mov	 ecx, edi
  0018a	e8 00 00 00 00	 call	 ?ResetDestParam@CMover@@QAEXHHH@Z ; CMover::ResetDestParam

; 2269 : 				ResetDestParam( nStrong, pItemElem->m_nResistAbilityOption*2 );

  0018f	8b 86 80 00 00
	00		 mov	 eax, DWORD PTR [esi+128]
  00195	8b cf		 mov	 ecx, edi
  00197	6a 01		 push	 1
  00199	03 c0		 add	 eax, eax
  0019b	50		 push	 eax
  0019c	ff 75 f8	 push	 DWORD PTR _nStrong$1$[ebp]
  0019f	e8 00 00 00 00	 call	 ?ResetDestParam@CMover@@QAEXHHH@Z ; CMover::ResetDestParam

; 2270 : 			}
; 2271 : 		}
; 2272 : 	} 

  001a4	eb 76		 jmp	 SHORT $LN56@ResetDestP
$LN9@ResetDestP:

; 2273 : 	else
; 2274 : 	{	
; 2275 : 		if( pItemProp->nItemResistElecricity )

  001a6	8b 83 ec 01 00
	00		 mov	 eax, DWORD PTR [ebx+492]
  001ac	85 c0		 test	 eax, eax
  001ae	74 0c		 je	 SHORT $LN14@ResetDestP

; 2276 : 			ResetDestParam( DST_RESIST_ELECTRICITY, pItemProp->nItemResistElecricity);

  001b0	6a 01		 push	 1
  001b2	50		 push	 eax
  001b3	6a 1c		 push	 28			; 0000001cH
  001b5	8b cf		 mov	 ecx, edi
  001b7	e8 00 00 00 00	 call	 ?ResetDestParam@CMover@@QAEXHHH@Z ; CMover::ResetDestParam
$LN14@ResetDestP:

; 2277 : 		if( pItemProp->nItemResistFire )

  001bc	8b 83 f4 01 00
	00		 mov	 eax, DWORD PTR [ebx+500]
  001c2	85 c0		 test	 eax, eax
  001c4	74 0c		 je	 SHORT $LN15@ResetDestP

; 2278 : 			ResetDestParam( DST_RESIST_FIRE, pItemProp->nItemResistFire );

  001c6	6a 01		 push	 1
  001c8	50		 push	 eax
  001c9	6a 1e		 push	 30			; 0000001eH
  001cb	8b cf		 mov	 ecx, edi
  001cd	e8 00 00 00 00	 call	 ?ResetDestParam@CMover@@QAEXHHH@Z ; CMover::ResetDestParam
$LN15@ResetDestP:

; 2279 : 		if( pItemProp->nItemResistWind )

  001d2	8b 83 f8 01 00
	00		 mov	 eax, DWORD PTR [ebx+504]
  001d8	85 c0		 test	 eax, eax
  001da	74 0c		 je	 SHORT $LN16@ResetDestP

; 2280 : 			ResetDestParam( DST_RESIST_WIND, pItemProp->nItemResistWind );

  001dc	6a 01		 push	 1
  001de	50		 push	 eax
  001df	6a 1f		 push	 31			; 0000001fH
  001e1	8b cf		 mov	 ecx, edi
  001e3	e8 00 00 00 00	 call	 ?ResetDestParam@CMover@@QAEXHHH@Z ; CMover::ResetDestParam
$LN16@ResetDestP:

; 2281 : 		if( pItemProp->nItemResistWater )

  001e8	8b 83 fc 01 00
	00		 mov	 eax, DWORD PTR [ebx+508]
  001ee	85 c0		 test	 eax, eax
  001f0	74 0c		 je	 SHORT $LN17@ResetDestP

; 2282 : 			ResetDestParam( DST_RESIST_WATER, pItemProp->nItemResistWater );

  001f2	6a 01		 push	 1
  001f4	50		 push	 eax
  001f5	6a 20		 push	 32			; 00000020H
  001f7	8b cf		 mov	 ecx, edi
  001f9	e8 00 00 00 00	 call	 ?ResetDestParam@CMover@@QAEXHHH@Z ; CMover::ResetDestParam
$LN17@ResetDestP:

; 2283 : 		if( pItemProp->nItemResistEarth )

  001fe	8b 83 00 02 00
	00		 mov	 eax, DWORD PTR [ebx+512]
  00204	85 c0		 test	 eax, eax
  00206	74 0c		 je	 SHORT $LN18@ResetDestP

; 2284 : 			ResetDestParam( DST_RESIST_EARTH, pItemProp->nItemResistEarth );

  00208	6a 01		 push	 1
  0020a	50		 push	 eax
  0020b	6a 21		 push	 33			; 00000021H
  0020d	8b cf		 mov	 ecx, edi
  0020f	e8 00 00 00 00	 call	 ?ResetDestParam@CMover@@QAEXHHH@Z ; CMover::ResetDestParam
$LN18@ResetDestP:

; 2285 : 	}
; 2286 : 
; 2287 : 	if( pItemElem )

  00214	85 f6		 test	 esi, esi
  00216	0f 84 bf 00 00
	00		 je	 $LN80@ResetDestP
$LN56@ResetDestP:

; 2290 : 		CAccessoryProperty* pProperty	= CAccessoryProperty::GetInstance();

  0021c	e8 00 00 00 00	 call	 ?GetInstance@CAccessoryProperty@@SAPAV1@XZ ; CAccessoryProperty::GetInstance
; File C:\IAGOS\server\v18\Source\Source\_Common\Item.h

; 154  : 	BOOL	IsAccessory( void )		{	return CAccessoryProperty::GetInstance()->IsAccessory( m_dwItemId );	}

  00221	ff 76 0c	 push	 DWORD PTR [esi+12]
; File C:\IAGOS\server\v18\Source\Source\_common\MoverEquip.cpp

; 2290 : 		CAccessoryProperty* pProperty	= CAccessoryProperty::GetInstance();

  00224	89 45 f4	 mov	 DWORD PTR _pProperty$1$[ebp], eax
; File C:\IAGOS\server\v18\Source\Source\_Common\Item.h

; 154  : 	BOOL	IsAccessory( void )		{	return CAccessoryProperty::GetInstance()->IsAccessory( m_dwItemId );	}

  00227	e8 00 00 00 00	 call	 ?GetInstance@CAccessoryProperty@@SAPAV1@XZ ; CAccessoryProperty::GetInstance
  0022c	8b c8		 mov	 ecx, eax
  0022e	e8 00 00 00 00	 call	 ?IsAccessory@CAccessoryProperty@@QAEHK@Z ; CAccessoryProperty::IsAccessory
; File C:\IAGOS\server\v18\Source\Source\_common\MoverEquip.cpp

; 2291 : 		if( pItemElem->IsAccessory() )		// 액세서리

  00233	85 c0		 test	 eax, eax
  00235	74 4e		 je	 SHORT $LN3@ResetDestP

; 2292 : 		{
; 2293 : 			vector<SINGLE_DST>* pDst	= pProperty->GetDst( pItemElem->m_dwItemId, pItemElem->GetAbilityOption() );

  00237	ff 76 64	 push	 DWORD PTR [esi+100]
  0023a	8b 4d f4	 mov	 ecx, DWORD PTR _pProperty$1$[ebp]
  0023d	ff 76 0c	 push	 DWORD PTR [esi+12]
  00240	e8 00 00 00 00	 call	 ?GetDst@CAccessoryProperty@@QAEPAV?$vector@U_SINGLE_DST@@V?$allocator@U_SINGLE_DST@@@std@@@std@@KH@Z ; CAccessoryProperty::GetDst
  00245	89 45 f4	 mov	 DWORD PTR _pDst$1$[ebp], eax
; File C:\Program Files\Microsoft Visual Studio\2022\Professional\VC\Tools\MSVC\14.44.35207\include\vector

; 1915 :         return static_cast<size_type>(_My_data._Mylast - _My_data._Myfirst);

  00248	8b 48 04	 mov	 ecx, DWORD PTR [eax+4]
  0024b	8b 10		 mov	 edx, DWORD PTR [eax]
  0024d	2b ca		 sub	 ecx, edx
  0024f	c1 f9 03	 sar	 ecx, 3
; File C:\IAGOS\server\v18\Source\Source\_common\MoverEquip.cpp

; 2294 : 			for( DWORD i = 0; i < pDst->size(); i++ )

  00252	85 c9		 test	 ecx, ecx
  00254	74 2f		 je	 SHORT $LN3@ResetDestP
; File C:\Program Files\Microsoft Visual Studio\2022\Professional\VC\Tools\MSVC\14.44.35207\include\vector

; 1914 :         auto& _My_data = _Mypair._Myval2;

  00256	33 db		 xor	 ebx, ebx
  00258	8b f0		 mov	 esi, eax
  0025a	66 0f 1f 44 00
	00		 npad	 6
$LL4@ResetDestP:
; File C:\IAGOS\server\v18\Source\Source\_common\MoverEquip.cpp

; 2295 : 				ResetDestParam( (*pDst)[i].nDst, (*pDst)[i].nAdj );

  00260	6a 01		 push	 1
  00262	ff 74 da 04	 push	 DWORD PTR [edx+ebx*8+4]
  00266	8b cf		 mov	 ecx, edi
  00268	ff 34 da	 push	 DWORD PTR [edx+ebx*8]
  0026b	e8 00 00 00 00	 call	 ?ResetDestParam@CMover@@QAEXHHH@Z ; CMover::ResetDestParam
; File C:\Program Files\Microsoft Visual Studio\2022\Professional\VC\Tools\MSVC\14.44.35207\include\vector

; 1915 :         return static_cast<size_type>(_My_data._Mylast - _My_data._Myfirst);

  00270	8b 46 04	 mov	 eax, DWORD PTR [esi+4]
; File C:\IAGOS\server\v18\Source\Source\_common\MoverEquip.cpp

; 2294 : 			for( DWORD i = 0; i < pDst->size(); i++ )

  00273	43		 inc	 ebx
; File C:\Program Files\Microsoft Visual Studio\2022\Professional\VC\Tools\MSVC\14.44.35207\include\vector

; 1915 :         return static_cast<size_type>(_My_data._Mylast - _My_data._Myfirst);

  00274	8b 16		 mov	 edx, DWORD PTR [esi]
  00276	2b c2		 sub	 eax, edx
  00278	c1 f8 03	 sar	 eax, 3
; File C:\IAGOS\server\v18\Source\Source\_common\MoverEquip.cpp

; 2294 : 			for( DWORD i = 0; i < pDst->size(); i++ )

  0027b	3b d8		 cmp	 ebx, eax
  0027d	72 e1		 jb	 SHORT $LL4@ResetDestP
  0027f	8b 5d 08	 mov	 ebx, DWORD PTR _pItemProp$[ebp]
  00282	8b 75 0c	 mov	 esi, DWORD PTR _pItemElem$[ebp]
$LN3@ResetDestP:

; 2296 : 		}
; 2297 : #endif	// __SYS_COLLECTING
; 2298 : 
; 2299 : #ifdef __WORLDSERVER
; 2300 : #ifdef __DST_GIFTBOX
; 2301 : 		if( pItemProp->dwDestParam[0] == DST_GIFTBOX || pItemProp->dwDestParam[1] == DST_GIFTBOX || pItemProp->dwDestParam[2] == DST_GIFTBOX )

  00285	83 bb 40 01 00
	00 5c		 cmp	 DWORD PTR [ebx+320], 92	; 0000005cH
  0028c	74 12		 je	 SHORT $LN22@ResetDestP
  0028e	83 bb 44 01 00
	00 5c		 cmp	 DWORD PTR [ebx+324], 92	; 0000005cH
  00295	74 09		 je	 SHORT $LN22@ResetDestP
  00297	83 bb 48 01 00
	00 5c		 cmp	 DWORD PTR [ebx+328], 92	; 0000005cH
  0029e	75 0d		 jne	 SHORT $LN21@ResetDestP
$LN22@ResetDestP:

; 2302 : 		{
; 2303 : 			((CUser*)this)->RemoveBuff( BUFF_EQUIP, (WORD)( pItemProp->dwID ) );

  002a0	0f b7 03	 movzx	 eax, WORD PTR [ebx]
  002a3	8b cf		 mov	 ecx, edi
  002a5	50		 push	 eax
  002a6	6a 04		 push	 4
  002a8	e8 00 00 00 00	 call	 ?RemoveBuff@CMover@@QAEXGG@Z ; CMover::RemoveBuff
$LN21@ResetDestP:

; 2304 : 		}
; 2305 : #endif // __DST_GIFTBOX
; 2306 : #endif // __WORLDSERVER
; 2307 : 
; 2308 : 		int nAbilityOption	= GetSetItem( pItemElem );

  002ad	56		 push	 esi
  002ae	8b cf		 mov	 ecx, edi
  002b0	e8 00 00 00 00	 call	 ?GetSetItem@CMover@@QAEHPAVCItemElem@@@Z ; CMover::GetSetItem

; 2309 : 		if( nAbilityOption > 0 )

  002b5	85 c0		 test	 eax, eax
  002b7	7e 08		 jle	 SHORT $LN23@ResetDestP

; 2310 : 			ResetSetItemAvail( nAbilityOption );

  002b9	50		 push	 eax
  002ba	8b cf		 mov	 ecx, edi
  002bc	e8 00 00 00 00	 call	 ?ResetSetItemAvail@CMover@@QAEXH@Z ; CMover::ResetSetItemAvail
$LN23@ResetDestP:

; 2311 : 		DestParamPiercingAvail( pItemElem, FALSE );

  002c1	6a 00		 push	 0
  002c3	56		 push	 esi
  002c4	8b cf		 mov	 ecx, edi
  002c6	e8 00 00 00 00	 call	 ?DestParamPiercingAvail@CMover@@QAEXPAVCItemElem@@H@Z ; CMover::DestParamPiercingAvail

; 2312 : 		ResetDestParamSetItem( pItemElem );

  002cb	56		 push	 esi
  002cc	8b cf		 mov	 ecx, edi
  002ce	e8 00 00 00 00	 call	 ?ResetDestParamSetItem@CMover@@QAEXPAVCItemElem@@@Z ; CMover::ResetDestParamSetItem

; 2313 : 		ResetDestParamRandomOpt( pItemElem );

  002d3	56		 push	 esi
  002d4	8b cf		 mov	 ecx, edi
  002d6	e8 00 00 00 00	 call	 ?ResetDestParamRandomOpt@CMover@@QAEXPAVCItemElem@@@Z ; CMover::ResetDestParamRandomOpt
$LN80@ResetDestP:
  002db	5b		 pop	 ebx
$LN19@ResetDestP:
  002dc	5f		 pop	 edi

; 2314 : 	}
; 2315 : }

  002dd	5e		 pop	 esi
  002de	8b e5		 mov	 esp, ebp
  002e0	5d		 pop	 ebp
  002e1	c2 08 00	 ret	 8
?ResetDestParamEquip@CMover@@QAEXPAUItemProp@@PAVCItemElem@@@Z ENDP ; CMover::ResetDestParamEquip
_TEXT	ENDS
; Function compile flags: /Ogtp
; File C:\IAGOS\server\v18\Source\Source\_common\MoverEquip.cpp
; File C:\IAGOS\server\v18\Source\Source\_Common\Item.h
; File C:\IAGOS\server\v18\Source\Source\_common\MoverEquip.cpp
; File C:\IAGOS\server\v18\Source\Source\_Common\Item.h
; File C:\IAGOS\server\v18\Source\Source\_Common\Project.h
; File C:\IAGOS\server\v18\Source\Source\_Common\data.h
; File C:\IAGOS\server\v18\Source\Source\_Common\Project.h
; File C:\IAGOS\server\v18\Source\Source\_common\MoverEquip.cpp
; File C:\IAGOS\server\v18\Source\Source\_Common\Item.h
; File C:\IAGOS\server\v18\Source\Source\_common\MoverEquip.cpp
; File C:\Program Files\Microsoft Visual Studio\2022\Professional\VC\Tools\MSVC\14.44.35207\include\vector
; File C:\IAGOS\server\v18\Source\Source\_common\MoverEquip.cpp
; File C:\Program Files\Microsoft Visual Studio\2022\Professional\VC\Tools\MSVC\14.44.35207\include\vector
; File C:\IAGOS\server\v18\Source\Source\_common\MoverEquip.cpp
; File C:\Program Files\Microsoft Visual Studio\2022\Professional\VC\Tools\MSVC\14.44.35207\include\vector
; File C:\IAGOS\server\v18\Source\Source\_common\MoverEquip.cpp
; File C:\Program Files\Microsoft Visual Studio\2022\Professional\VC\Tools\MSVC\14.44.35207\include\vector
; File C:\IAGOS\server\v18\Source\Source\_common\MoverEquip.cpp
; File C:\IAGOS\server\v18\Source\Source\_Common\Item.h
; File C:\IAGOS\server\v18\Source\Source\_common\MoverEquip.cpp
;	COMDAT ?SetDestParamEquip@CMover@@QAEXPAUItemProp@@PAVCItemElem@@H@Z
_TEXT	SEGMENT
_pProperty$1$ = -4					; size = 4
_pDst$1$ = -4						; size = 4
tv553 = -4						; size = 4
_pItemProp$ = 8						; size = 4
_pItemElem$ = 12					; size = 4
_bIgnoreSetItem$ = 16					; size = 4
?SetDestParamEquip@CMover@@QAEXPAUItemProp@@PAVCItemElem@@H@Z PROC ; CMover::SetDestParamEquip, COMDAT
; _this$ = ecx

; 2151 : {

  00000	55		 push	 ebp
  00001	8b ec		 mov	 ebp, esp
  00003	51		 push	 ecx
  00004	56		 push	 esi
  00005	57		 push	 edi
  00006	8b 7d 0c	 mov	 edi, DWORD PTR _pItemElem$[ebp]
  00009	8b f1		 mov	 esi, ecx

; 2152 : 	if( pItemElem && pItemElem->IsFlag( CItemElem::expired ) )

  0000b	85 ff		 test	 edi, edi
  0000d	74 0a		 je	 SHORT $LN5@SetDestPar
; File C:\IAGOS\server\v18\Source\Source\_Common\Item.h

; 257  : 	BOOL	IsFlag( BYTE byFlag )	{	return ( m_byFlag & byFlag ) ? TRUE: FALSE;		}

  0000f	f6 47 76 01	 test	 BYTE PTR [edi+118], 1
; File C:\IAGOS\server\v18\Source\Source\_common\MoverEquip.cpp

; 2152 : 	if( pItemElem && pItemElem->IsFlag( CItemElem::expired ) )

  00013	0f 85 61 02 00
	00		 jne	 $LN23@SetDestPar
$LN5@SetDestPar:
  00019	53		 push	 ebx

; 2153 : 		return;
; 2154 : 
; 2155 : #ifdef __WORLDSERVER
; 2156 : 	RunItemScript( this, pItemProp->dwID, ITEM_OP_EQUIP, NULL );

  0001a	8b 5d 08	 mov	 ebx, DWORD PTR _pItemProp$[ebp]
  0001d	6a 00		 push	 0
  0001f	6a 00		 push	 0
  00021	ff 33		 push	 DWORD PTR [ebx]
  00023	56		 push	 esi
  00024	e8 00 00 00 00	 call	 ?RunItemScript@@YAHPAVCMover@@KW4ITEM_OP@@PAH@Z ; RunItemScript
  00029	83 c4 10	 add	 esp, 16			; 00000010H

; 2157 : #endif // __WORLDSERVER
; 2158 : 
; 2159 : 	if( pItemProp->dwDestParam[0] != -1 )

  0002c	83 bb 40 01 00
	00 ff		 cmp	 DWORD PTR [ebx+320], -1
  00033	74 0c		 je	 SHORT $LN6@SetDestPar

; 2160 : 		SetDestParam( 0, pItemProp, 1 );

  00035	6a 01		 push	 1
  00037	53		 push	 ebx
  00038	6a 00		 push	 0
  0003a	8b ce		 mov	 ecx, esi
  0003c	e8 00 00 00 00	 call	 ?SetDestParam@CMover@@QAEXHPAUItemProp@@H@Z ; CMover::SetDestParam
$LN6@SetDestPar:

; 2161 : 	if( pItemProp->dwDestParam[1] != -1 )

  00041	83 bb 44 01 00
	00 ff		 cmp	 DWORD PTR [ebx+324], -1
  00048	74 0c		 je	 SHORT $LN7@SetDestPar

; 2162 : 		SetDestParam( 1, pItemProp );

  0004a	6a 01		 push	 1
  0004c	53		 push	 ebx
  0004d	6a 01		 push	 1
  0004f	8b ce		 mov	 ecx, esi
  00051	e8 00 00 00 00	 call	 ?SetDestParam@CMover@@QAEXHPAUItemProp@@H@Z ; CMover::SetDestParam
$LN7@SetDestPar:

; 2163 : #ifdef __PROP_0827
; 2164 : 	if( pItemProp->dwDestParam[2] != -1 )

  00056	83 bb 48 01 00
	00 ff		 cmp	 DWORD PTR [ebx+328], -1
  0005d	74 0c		 je	 SHORT $LN8@SetDestPar

; 2165 : 		SetDestParam( 2, pItemProp );

  0005f	6a 01		 push	 1
  00061	53		 push	 ebx
  00062	6a 02		 push	 2
  00064	8b ce		 mov	 ecx, esi
  00066	e8 00 00 00 00	 call	 ?SetDestParam@CMover@@QAEXHPAUItemProp@@H@Z ; CMover::SetDestParam
$LN8@SetDestPar:

; 2171 : 	if( pItemElem && pItemElem->m_nResistAbilityOption && pItemElem->GetProp()->dwItemKind1 == IK1_ARMOR )

  0006b	85 ff		 test	 edi, edi
  0006d	0f 84 a4 00 00
	00		 je	 $LN9@SetDestPar
  00073	83 bf 80 00 00
	00 00		 cmp	 DWORD PTR [edi+128], 0
  0007a	0f 84 97 00 00
	00		 je	 $LN9@SetDestPar
; File C:\IAGOS\server\v18\Source\Source\_Common\Item.h

; 230  : 	ItemProp*	GetProp()	{	return prj.GetItemProp( m_dwItemId );	}

  00080	8b 4f 0c	 mov	 ecx, DWORD PTR [edi+12]
; File C:\IAGOS\server\v18\Source\Source\_Common\Project.h

; 1389 : 	VERIFY_RANGE_ASSERT( nIndex, 0, m_aPropItem.GetSize(), "GetItemProp range_error", NULL );

  00083	a1 40 02 00 00	 mov	 eax, DWORD PTR ?prj@@3VCProject@@A+576
  00088	85 c9		 test	 ecx, ecx
  0008a	78 10		 js	 SHORT $LN34@SetDestPar
  0008c	3b c8		 cmp	 ecx, eax
  0008e	7d 0c		 jge	 SHORT $LN34@SetDestPar
; File C:\IAGOS\server\v18\Source\Source\_Common\data.h

; 270  : 	if( dwIndex >= (DWORD)m_nMaxIndex )

  00090	73 20		 jae	 SHORT $LN85@SetDestPar

; 271  : 		return NULL;
; 272  : 	return (T*) m_apOffset[ dwIndex ];

  00092	a1 30 02 00 00	 mov	 eax, DWORD PTR ?prj@@3VCProject@@A+560
  00097	8b 04 88	 mov	 eax, DWORD PTR [eax+ecx*4]
; File C:\IAGOS\server\v18\Source\Source\_Common\Project.h

; 1390 : 	return m_aPropItem.GetAt( nIndex ); 

  0009a	eb 18		 jmp	 SHORT $LN29@SetDestPar
$LN34@SetDestPar:

; 579  : 	LPCTSTR szErr = Error( _T( "%s min:%d, max:%d, index:%d" ), szMsg, nMin, nMax, nIndex ); 

  0009c	51		 push	 ecx
  0009d	50		 push	 eax
  0009e	6a 00		 push	 0
  000a0	68 00 00 00 00	 push	 OFFSET ??_C@_0BI@BEIFNGEL@GetItemProp?5range_error@
  000a5	68 00 00 00 00	 push	 OFFSET ??_C@_0BM@HMFGHCP@?$CFs?5min?3?$CFd?0?5max?3?$CFd?0?5index?3?$CFd@
  000aa	e8 00 00 00 00	 call	 ?Error@@YAPBDPBDZZ	; Error
  000af	83 c4 14	 add	 esp, 20			; 00000014H
$LN85@SetDestPar:
; File C:\IAGOS\server\v18\Source\Source\_common\MoverEquip.cpp

; 2171 : 	if( pItemElem && pItemElem->m_nResistAbilityOption && pItemElem->GetProp()->dwItemKind1 == IK1_ARMOR )

  000b2	33 c0		 xor	 eax, eax
$LN29@SetDestPar:
  000b4	83 78 70 02	 cmp	 DWORD PTR [eax+112], 2
  000b8	75 5d		 jne	 SHORT $LN9@SetDestPar

; 2172 : 	{
; 2173 : 		if( pItemElem->m_bItemResist != SAI79::NO_PROP )

  000ba	8a 4f 7c	 mov	 cl, BYTE PTR [edi+124]
  000bd	88 4d fc	 mov	 BYTE PTR tv553[ebp], cl
  000c0	84 c9		 test	 cl, cl
  000c2	74 46		 je	 SHORT $LN11@SetDestPar

; 2174 : 		{
; 2175 : 			int nStrong = GetStrongDST( pItemElem->m_bItemResist );
; 2176 : 			int nWeak   = GetWeakDST( pItemElem->m_bItemResist );
; 2177 : 
; 2178 : 			SetDestParam( nWeak,  -pItemElem->m_nResistAbilityOption*2, NULL_CHGPARAM );

  000c4	8b 87 80 00 00
	00		 mov	 eax, DWORD PTR [edi+128]
  000ca	6a 01		 push	 1
  000cc	f7 d8		 neg	 eax
  000ce	68 ff ff ff 7f	 push	 2147483647		; 7fffffffH
  000d3	03 c0		 add	 eax, eax
  000d5	50		 push	 eax
  000d6	51		 push	 ecx
  000d7	e8 00 00 00 00	 call	 ?GetWeakDST@@YAHE@Z	; GetWeakDST
  000dc	83 c4 04	 add	 esp, 4
  000df	8b ce		 mov	 ecx, esi
  000e1	50		 push	 eax
  000e2	e8 00 00 00 00	 call	 ?SetDestParam@CMover@@QAEXHHHH@Z ; CMover::SetDestParam

; 2179 : 			SetDestParam( nStrong, pItemElem->m_nResistAbilityOption*2, NULL_CHGPARAM );

  000e7	8b 87 80 00 00
	00		 mov	 eax, DWORD PTR [edi+128]
  000ed	6a 01		 push	 1
  000ef	68 ff ff ff 7f	 push	 2147483647		; 7fffffffH
  000f4	03 c0		 add	 eax, eax
  000f6	50		 push	 eax
  000f7	ff 75 fc	 push	 DWORD PTR tv553[ebp]
  000fa	e8 00 00 00 00	 call	 ?GetStrongDST@@YAHE@Z	; GetStrongDST
  000ff	83 c4 04	 add	 esp, 4
  00102	8b ce		 mov	 ecx, esi
  00104	50		 push	 eax
  00105	e8 00 00 00 00	 call	 ?SetDestParam@CMover@@QAEXHHHH@Z ; CMover::SetDestParam
$LN11@SetDestPar:

; 2180 : 		}
; 2181 : 	}

  0010a	e8 00 00 00 00	 call	 ?GetInstance@CAccessoryProperty@@SAPAV1@XZ ; CAccessoryProperty::GetInstance
  0010f	89 45 fc	 mov	 DWORD PTR _pProperty$1$[ebp], eax
  00112	e9 93 00 00 00	 jmp	 $LN59@SetDestPar
$LN9@SetDestPar:

; 2182 : 	else
; 2183 : 	{
; 2184 : 		if( pItemProp->nItemResistElecricity )

  00117	8b 83 ec 01 00
	00		 mov	 eax, DWORD PTR [ebx+492]
  0011d	85 c0		 test	 eax, eax
  0011f	74 11		 je	 SHORT $LN12@SetDestPar

; 2185 : 			SetDestParam( DST_RESIST_ELECTRICITY, pItemProp->nItemResistElecricity, NULL_CHGPARAM );

  00121	6a 01		 push	 1
  00123	68 ff ff ff 7f	 push	 2147483647		; 7fffffffH
  00128	50		 push	 eax
  00129	6a 1c		 push	 28			; 0000001cH
  0012b	8b ce		 mov	 ecx, esi
  0012d	e8 00 00 00 00	 call	 ?SetDestParam@CMover@@QAEXHHHH@Z ; CMover::SetDestParam
$LN12@SetDestPar:

; 2186 : 		if( pItemProp->nItemResistFire )

  00132	8b 83 f4 01 00
	00		 mov	 eax, DWORD PTR [ebx+500]
  00138	85 c0		 test	 eax, eax
  0013a	74 11		 je	 SHORT $LN13@SetDestPar

; 2187 : 			SetDestParam( DST_RESIST_FIRE, pItemProp->nItemResistFire, NULL_CHGPARAM );

  0013c	6a 01		 push	 1
  0013e	68 ff ff ff 7f	 push	 2147483647		; 7fffffffH
  00143	50		 push	 eax
  00144	6a 1e		 push	 30			; 0000001eH
  00146	8b ce		 mov	 ecx, esi
  00148	e8 00 00 00 00	 call	 ?SetDestParam@CMover@@QAEXHHHH@Z ; CMover::SetDestParam
$LN13@SetDestPar:

; 2188 : 		if( pItemProp->nItemResistWind )

  0014d	8b 83 f8 01 00
	00		 mov	 eax, DWORD PTR [ebx+504]
  00153	85 c0		 test	 eax, eax
  00155	74 11		 je	 SHORT $LN14@SetDestPar

; 2189 : 			SetDestParam( DST_RESIST_WIND, pItemProp->nItemResistWind, NULL_CHGPARAM );

  00157	6a 01		 push	 1
  00159	68 ff ff ff 7f	 push	 2147483647		; 7fffffffH
  0015e	50		 push	 eax
  0015f	6a 1f		 push	 31			; 0000001fH
  00161	8b ce		 mov	 ecx, esi
  00163	e8 00 00 00 00	 call	 ?SetDestParam@CMover@@QAEXHHHH@Z ; CMover::SetDestParam
$LN14@SetDestPar:

; 2190 : 		if( pItemProp->nItemResistWater )

  00168	8b 83 fc 01 00
	00		 mov	 eax, DWORD PTR [ebx+508]
  0016e	85 c0		 test	 eax, eax
  00170	74 11		 je	 SHORT $LN15@SetDestPar

; 2191 : 			SetDestParam( DST_RESIST_WATER, pItemProp->nItemResistWater, NULL_CHGPARAM );

  00172	6a 01		 push	 1
  00174	68 ff ff ff 7f	 push	 2147483647		; 7fffffffH
  00179	50		 push	 eax
  0017a	6a 20		 push	 32			; 00000020H
  0017c	8b ce		 mov	 ecx, esi
  0017e	e8 00 00 00 00	 call	 ?SetDestParam@CMover@@QAEXHHHH@Z ; CMover::SetDestParam
$LN15@SetDestPar:

; 2192 : 		if( pItemProp->nItemResistEarth )

  00183	8b 83 00 02 00
	00		 mov	 eax, DWORD PTR [ebx+512]
  00189	85 c0		 test	 eax, eax
  0018b	74 11		 je	 SHORT $LN16@SetDestPar

; 2193 : 			SetDestParam( DST_RESIST_EARTH, pItemProp->nItemResistEarth, NULL_CHGPARAM );

  0018d	6a 01		 push	 1
  0018f	68 ff ff ff 7f	 push	 2147483647		; 7fffffffH
  00194	50		 push	 eax
  00195	6a 21		 push	 33			; 00000021H
  00197	8b ce		 mov	 ecx, esi
  00199	e8 00 00 00 00	 call	 ?SetDestParam@CMover@@QAEXHHHH@Z ; CMover::SetDestParam
$LN16@SetDestPar:

; 2194 : 	}
; 2195 : 
; 2196 : #if __VER >= 11 // __SYS_COLLECTING
; 2197 : 	CAccessoryProperty* pProperty	= CAccessoryProperty::GetInstance();

  0019e	e8 00 00 00 00	 call	 ?GetInstance@CAccessoryProperty@@SAPAV1@XZ ; CAccessoryProperty::GetInstance
  001a3	89 45 fc	 mov	 DWORD PTR _pProperty$1$[ebp], eax

; 2198 : 	if( pItemElem && pItemElem->IsAccessory() )		// 액세서리

  001a6	85 ff		 test	 edi, edi
  001a8	74 60		 je	 SHORT $LN3@SetDestPar
$LN59@SetDestPar:
; File C:\IAGOS\server\v18\Source\Source\_Common\Item.h

; 154  : 	BOOL	IsAccessory( void )		{	return CAccessoryProperty::GetInstance()->IsAccessory( m_dwItemId );	}

  001aa	ff 77 0c	 push	 DWORD PTR [edi+12]
  001ad	e8 00 00 00 00	 call	 ?GetInstance@CAccessoryProperty@@SAPAV1@XZ ; CAccessoryProperty::GetInstance
  001b2	8b c8		 mov	 ecx, eax
  001b4	e8 00 00 00 00	 call	 ?IsAccessory@CAccessoryProperty@@QAEHK@Z ; CAccessoryProperty::IsAccessory
; File C:\IAGOS\server\v18\Source\Source\_common\MoverEquip.cpp

; 2198 : 	if( pItemElem && pItemElem->IsAccessory() )		// 액세서리

  001b9	85 c0		 test	 eax, eax
  001bb	74 4d		 je	 SHORT $LN3@SetDestPar

; 2199 : 	{
; 2200 : 		vector<SINGLE_DST>* pDst	= pProperty->GetDst( pItemElem->m_dwItemId, pItemElem->GetAbilityOption() );

  001bd	ff 77 64	 push	 DWORD PTR [edi+100]
  001c0	8b 4d fc	 mov	 ecx, DWORD PTR _pProperty$1$[ebp]
  001c3	ff 77 0c	 push	 DWORD PTR [edi+12]
  001c6	e8 00 00 00 00	 call	 ?GetDst@CAccessoryProperty@@QAEPAV?$vector@U_SINGLE_DST@@V?$allocator@U_SINGLE_DST@@@std@@@std@@KH@Z ; CAccessoryProperty::GetDst
  001cb	89 45 fc	 mov	 DWORD PTR _pDst$1$[ebp], eax
; File C:\Program Files\Microsoft Visual Studio\2022\Professional\VC\Tools\MSVC\14.44.35207\include\vector

; 1915 :         return static_cast<size_type>(_My_data._Mylast - _My_data._Myfirst);

  001ce	8b 48 04	 mov	 ecx, DWORD PTR [eax+4]
  001d1	8b 10		 mov	 edx, DWORD PTR [eax]
  001d3	2b ca		 sub	 ecx, edx
  001d5	c1 f9 03	 sar	 ecx, 3
; File C:\IAGOS\server\v18\Source\Source\_common\MoverEquip.cpp

; 2201 : 		for( DWORD i = 0; i < pDst->size(); i++ )

  001d8	85 c9		 test	 ecx, ecx
  001da	74 2e		 je	 SHORT $LN3@SetDestPar
; File C:\Program Files\Microsoft Visual Studio\2022\Professional\VC\Tools\MSVC\14.44.35207\include\vector

; 1914 :         auto& _My_data = _Mypair._Myval2;

  001dc	33 db		 xor	 ebx, ebx
  001de	8b f8		 mov	 edi, eax
$LL4@SetDestPar:
; File C:\IAGOS\server\v18\Source\Source\_common\MoverEquip.cpp

; 2202 : 			SetDestParam( (*pDst)[i].nDst, (*pDst)[i].nAdj, NULL_CHGPARAM );

  001e0	6a 01		 push	 1
  001e2	68 ff ff ff 7f	 push	 2147483647		; 7fffffffH
  001e7	ff 74 da 04	 push	 DWORD PTR [edx+ebx*8+4]
  001eb	8b ce		 mov	 ecx, esi
  001ed	ff 34 da	 push	 DWORD PTR [edx+ebx*8]
  001f0	e8 00 00 00 00	 call	 ?SetDestParam@CMover@@QAEXHHHH@Z ; CMover::SetDestParam
; File C:\Program Files\Microsoft Visual Studio\2022\Professional\VC\Tools\MSVC\14.44.35207\include\vector

; 1915 :         return static_cast<size_type>(_My_data._Mylast - _My_data._Myfirst);

  001f5	8b 47 04	 mov	 eax, DWORD PTR [edi+4]
; File C:\IAGOS\server\v18\Source\Source\_common\MoverEquip.cpp

; 2201 : 		for( DWORD i = 0; i < pDst->size(); i++ )

  001f8	43		 inc	 ebx
; File C:\Program Files\Microsoft Visual Studio\2022\Professional\VC\Tools\MSVC\14.44.35207\include\vector

; 1915 :         return static_cast<size_type>(_My_data._Mylast - _My_data._Myfirst);

  001f9	8b 17		 mov	 edx, DWORD PTR [edi]
  001fb	2b c2		 sub	 eax, edx
  001fd	c1 f8 03	 sar	 eax, 3
; File C:\IAGOS\server\v18\Source\Source\_common\MoverEquip.cpp

; 2201 : 		for( DWORD i = 0; i < pDst->size(); i++ )

  00200	3b d8		 cmp	 ebx, eax
  00202	72 dc		 jb	 SHORT $LL4@SetDestPar
  00204	8b 7d 0c	 mov	 edi, DWORD PTR _pItemElem$[ebp]
  00207	8b 5d 08	 mov	 ebx, DWORD PTR _pItemProp$[ebp]
$LN3@SetDestPar:

; 2203 : 	}
; 2204 : #endif	// __SYS_COLLECTING
; 2205 : 
; 2206 : #ifdef __WORLDSERVER
; 2207 : #ifdef __DST_GIFTBOX
; 2208 : 	if( pItemProp->dwDestParam[0] == DST_GIFTBOX || pItemProp->dwDestParam[1] == DST_GIFTBOX || pItemProp->dwDestParam[2] == DST_GIFTBOX )

  0020a	83 bb 40 01 00
	00 5c		 cmp	 DWORD PTR [ebx+320], 92	; 0000005cH
  00211	74 12		 je	 SHORT $LN19@SetDestPar
  00213	83 bb 44 01 00
	00 5c		 cmp	 DWORD PTR [ebx+324], 92	; 0000005cH
  0021a	74 09		 je	 SHORT $LN19@SetDestPar
  0021c	83 bb 48 01 00
	00 5c		 cmp	 DWORD PTR [ebx+328], 92	; 0000005cH
  00223	75 16		 jne	 SHORT $LN18@SetDestPar
$LN19@SetDestPar:

; 2209 : 		static_cast<CUser*>( this )->AddBuff( BUFF_EQUIP, (WORD)( pItemProp->dwID ), 1, 999999999 );

  00225	0f b7 03	 movzx	 eax, WORD PTR [ebx]
  00228	8b ce		 mov	 ecx, esi
  0022a	6a ff		 push	 -1
  0022c	68 ff c9 9a 3b	 push	 999999999		; 3b9ac9ffH
  00231	6a 01		 push	 1
  00233	50		 push	 eax
  00234	6a 04		 push	 4
  00236	e8 00 00 00 00	 call	 ?AddBuff@CMover@@QAEHGGKKK@Z ; CMover::AddBuff
$LN18@SetDestPar:

; 2214 : 	{
; 2215 : 		if( pItemElem )

  0023b	5b		 pop	 ebx
  0023c	85 ff		 test	 edi, edi
  0023e	74 3a		 je	 SHORT $LN23@SetDestPar

; 2210 : #endif // __DST_GIFTBOX
; 2211 : #endif // __WORLDSERVER
; 2212 : 
; 2213 : 	if( !bIgnoreSetItem )

  00240	83 7d 10 00	 cmp	 DWORD PTR _bIgnoreSetItem$[ebp], 0
  00244	75 1c		 jne	 SHORT $LN21@SetDestPar

; 2216 : 		{
; 2217 : 			int nAbilityOption	= GetSetItem( pItemElem );

  00246	57		 push	 edi
  00247	8b ce		 mov	 ecx, esi
  00249	e8 00 00 00 00	 call	 ?GetSetItem@CMover@@QAEHPAVCItemElem@@@Z ; CMover::GetSetItem

; 2218 : 			if( nAbilityOption > 0 )

  0024e	85 c0		 test	 eax, eax
  00250	7e 08		 jle	 SHORT $LN22@SetDestPar

; 2219 : 				SetSetItemAvail( nAbilityOption );

  00252	50		 push	 eax
  00253	8b ce		 mov	 ecx, esi
  00255	e8 00 00 00 00	 call	 ?SetSetItemAvail@CMover@@QAEXH@Z ; CMover::SetSetItemAvail
$LN22@SetDestPar:

; 2220 : 			SetDestParamSetItem( pItemElem );

  0025a	57		 push	 edi
  0025b	8b ce		 mov	 ecx, esi
  0025d	e8 00 00 00 00	 call	 ?SetDestParamSetItem@CMover@@QAEXPAVCItemElem@@@Z ; CMover::SetDestParamSetItem
$LN21@SetDestPar:
; File C:\IAGOS\server\v18\Source\Source\_Common\Item.h

; 257  : 	BOOL	IsFlag( BYTE byFlag )	{	return ( m_byFlag & byFlag ) ? TRUE: FALSE;		}

  00262	f6 47 76 01	 test	 BYTE PTR [edi+118], 1
; File C:\IAGOS\server\v18\Source\Source\_common\MoverEquip.cpp

; 2224 : 	if( pItemElem && !pItemElem->IsFlag( CItemElem::expired ) )

  00266	75 12		 jne	 SHORT $LN23@SetDestPar

; 2225 : 	{
; 2226 : 		DestParamPiercingAvail( pItemElem, TRUE );

  00268	6a 01		 push	 1
  0026a	57		 push	 edi
  0026b	8b ce		 mov	 ecx, esi
  0026d	e8 00 00 00 00	 call	 ?DestParamPiercingAvail@CMover@@QAEXPAVCItemElem@@H@Z ; CMover::DestParamPiercingAvail

; 2227 : 		SetDestParamRandomOpt( pItemElem );

  00272	57		 push	 edi
  00273	8b ce		 mov	 ecx, esi
  00275	e8 00 00 00 00	 call	 ?SetDestParamRandomOpt@CMover@@QAEXPAVCItemElem@@@Z ; CMover::SetDestParamRandomOpt
$LN23@SetDestPar:

; 2228 : 	}
; 2229 : }

  0027a	5f		 pop	 edi
  0027b	5e		 pop	 esi
  0027c	8b e5		 mov	 esp, ebp
  0027e	5d		 pop	 ebp
  0027f	c2 0c 00	 ret	 12			; 0000000cH
?SetDestParamEquip@CMover@@QAEXPAUItemProp@@PAVCItemElem@@H@Z ENDP ; CMover::SetDestParamEquip
_TEXT	ENDS
; Function compile flags: /Ogtp
; File C:\IAGOS\server\v18\Source\Source\_common\MoverEquip.cpp
; File C:\IAGOS\server\v18\Source\Source\_Common\Obj.h
; File C:\IAGOS\server\v18\Source\Source\_common\MoverEquip.cpp
; File C:\IAGOS\server\v18\Source\Source\_Common\Obj.h
; File C:\IAGOS\server\v18\Source\Source\_common\MoverEquip.cpp
; File C:\IAGOS\server\v18\Source\Source\_Common\Obj.h
; File C:\IAGOS\server\v18\Source\Source\_common\MoverEquip.cpp
;	COMDAT ?IsUnEquipAble@CMover@@QAEHPAUItemProp@@@Z
_TEXT	SEGMENT
$T1 = -24						; size = 12
$T2 = -12						; size = 12
_pItemProp$ = 8						; size = 4
?IsUnEquipAble@CMover@@QAEHPAUItemProp@@@Z PROC		; CMover::IsUnEquipAble, COMDAT
; _this$ = ecx

; 1723 : {

  00000	55		 push	 ebp
  00001	8b ec		 mov	 ebp, esp
  00003	83 ec 18	 sub	 esp, 24			; 00000018H
  00006	56		 push	 esi

; 1724 : 	if( pItemProp->dwParts == PARTS_RIDE )

  00007	8b 75 08	 mov	 esi, DWORD PTR _pItemProp$[ebp]
  0000a	83 be a8 00 00
	00 0d		 cmp	 DWORD PTR [esi+168], 13	; 0000000dH
  00011	75 6c		 jne	 SHORT $LN5@IsUnEquipA

; 1725 : 	{
; 1726 : 		if( m_pActMover->IsSit() )	// 빗자루는 앉은 상태에서는 탈착 금지

  00013	8b 81 38 02 00
	00		 mov	 eax, DWORD PTR [ecx+568]
  00019	f6 40 08 04	 test	 BYTE PTR [eax+8], 4
  0001d	75 57		 jne	 SHORT $LN15@IsUnEquipA

; 1727 : 			return FALSE;
; 1728 : 
; 1729 : 		if( GetWorld() )	// RedoEquip에서 불렀을때 NULL인경우 있음. NULL이면 걍 벗김

  0001f	8b 91 6c 01 00
	00		 mov	 edx, DWORD PTR [ecx+364]
  00025	85 d2		 test	 edx, edx
  00027	74 56		 je	 SHORT $LN5@IsUnEquipA
; File C:\IAGOS\server\v18\Source\Source\_Common\Obj.h

; 215  : 	D3DXVECTOR3		GetPos()	{ return m_vPos; }

  00029	f3 0f 7e 81 60
	01 00 00	 movq	 xmm0, QWORD PTR [ecx+352]
; File C:\IAGOS\server\v18\Source\Source\_common\MoverEquip.cpp

; 1731 : 			int nAttr = GetWorld()->GetHeightAttribute( GetPos().x, GetPos().z );		// 이동할 위치의 속성 읽음.

  00031	83 ec 08	 sub	 esp, 8
; File C:\IAGOS\server\v18\Source\Source\_Common\Obj.h

; 215  : 	D3DXVECTOR3		GetPos()	{ return m_vPos; }

  00034	8b 81 68 01 00
	00		 mov	 eax, DWORD PTR [ecx+360]
; File C:\IAGOS\server\v18\Source\Source\_common\MoverEquip.cpp

; 1731 : 			int nAttr = GetWorld()->GetHeightAttribute( GetPos().x, GetPos().z );		// 이동할 위치의 속성 읽음.

  0003a	8b ca		 mov	 ecx, edx
; File C:\IAGOS\server\v18\Source\Source\_Common\Obj.h

; 215  : 	D3DXVECTOR3		GetPos()	{ return m_vPos; }

  0003c	66 0f d6 45 f4	 movq	 QWORD PTR $T2[ebp], xmm0
  00041	f3 0f 7e c0	 movq	 xmm0, xmm0
  00045	66 0f d6 45 e8	 movq	 QWORD PTR $T1[ebp], xmm0
  0004a	89 45 fc	 mov	 DWORD PTR $T2[ebp+8], eax
; File C:\IAGOS\server\v18\Source\Source\_common\MoverEquip.cpp

; 1731 : 			int nAttr = GetWorld()->GetHeightAttribute( GetPos().x, GetPos().z );		// 이동할 위치의 속성 읽음.

  0004d	f3 0f 10 45 fc	 movss	 xmm0, DWORD PTR $T2[ebp+8]
  00052	f3 0f 11 44 24
	04		 movss	 DWORD PTR [esp+4], xmm0
  00058	f3 0f 10 45 e8	 movss	 xmm0, DWORD PTR $T1[ebp]
  0005d	f3 0f 11 04 24	 movss	 DWORD PTR [esp], xmm0
  00062	e8 00 00 00 00	 call	 ?GetHeightAttribute@CWorld@@QAEHMM@Z ; CWorld::GetHeightAttribute

; 1732 : 			// 비행금지 or 걷기금지 or 이동금지 지역에서 는 못내림.
; 1733 : 			if( (nAttr == HATTR_NOFLY || nAttr == HATTR_NOWALK || nAttr == HATTR_NOMOVE ) )		

  00067	83 f8 02	 cmp	 eax, 2
  0006a	74 0a		 je	 SHORT $LN15@IsUnEquipA
  0006c	83 f8 01	 cmp	 eax, 1
  0006f	74 05		 je	 SHORT $LN15@IsUnEquipA
  00071	83 f8 03	 cmp	 eax, 3
  00074	75 09		 jne	 SHORT $LN5@IsUnEquipA
$LN15@IsUnEquipA:

; 1739 : 		return FALSE;

  00076	33 c0		 xor	 eax, eax
  00078	5e		 pop	 esi

; 1742 : }

  00079	8b e5		 mov	 esp, ebp
  0007b	5d		 pop	 ebp
  0007c	c2 04 00	 ret	 4
$LN5@IsUnEquipA:

; 1734 : 				return FALSE;
; 1735 : 		}
; 1736 : 	}
; 1737 : 
; 1738 : 	if( g_eLocal.GetState( EVE_SCHOOL ) && pItemProp->dwItemKind3 == IK3_CLOAK )

  0007f	6a 04		 push	 4
  00081	b9 00 00 00 00	 mov	 ecx, OFFSET ?g_eLocal@@3VCFlyffEvent@@A ; g_eLocal
  00086	e8 00 00 00 00	 call	 ?GetState@CFlyffEvent@@QAEEH@Z ; CFlyffEvent::GetState
  0008b	84 c0		 test	 al, al
  0008d	74 10		 je	 SHORT $LN7@IsUnEquipA
  0008f	33 c0		 xor	 eax, eax
  00091	83 7e 78 18	 cmp	 DWORD PTR [esi+120], 24	; 00000018H
  00095	5e		 pop	 esi
  00096	0f 95 c0	 setne	 al

; 1742 : }

  00099	8b e5		 mov	 esp, ebp
  0009b	5d		 pop	 ebp
  0009c	c2 04 00	 ret	 4
$LN7@IsUnEquipA:

; 1740 : 	
; 1741 : 	return TRUE;

  0009f	b8 01 00 00 00	 mov	 eax, 1
  000a4	5e		 pop	 esi

; 1742 : }

  000a5	8b e5		 mov	 esp, ebp
  000a7	5d		 pop	 ebp
  000a8	c2 04 00	 ret	 4
?IsUnEquipAble@CMover@@QAEHPAUItemProp@@@Z ENDP		; CMover::IsUnEquipAble
_TEXT	ENDS
; Function compile flags: /Ogtp
; File C:\IAGOS\server\v18\Source\Source\_common\MoverEquip.cpp
; File C:\IAGOS\server\v18\Source\Source\_Common\Item.h
; File C:\IAGOS\server\v18\Source\Source\_Common\Project.h
; File C:\IAGOS\server\v18\Source\Source\_Common\data.h
; File C:\IAGOS\server\v18\Source\Source\_Common\Project.h
; File C:\IAGOS\server\v18\Source\Source\_common\MoverEquip.cpp
; File C:\IAGOS\server\v18\Source\Source\_Common\Obj.h
; File C:\IAGOS\server\v18\Source\Source\_common\MoverEquip.cpp
; File C:\IAGOS\server\v18\Source\Source\_Common\Obj.h
; File C:\IAGOS\server\v18\Source\Source\_common\MoverEquip.cpp
; File C:\IAGOS\server\v18\Source\Source\_Common\Mover.h
; File C:\IAGOS\server\v18\Source\Source\_common\MoverEquip.cpp
; File C:\IAGOS\server\v18\Source\Source\_AIInterface\Action.h
; File C:\IAGOS\server\v18\Source\Source\_common\MoverEquip.cpp
; File C:\IAGOS\server\v18\Source\Source\_Common\Mover.h
; File C:\IAGOS\server\v18\Source\Source\_common\MoverEquip.cpp
; File C:\Program Files\Microsoft Visual Studio\2022\Professional\VC\Tools\MSVC\14.44.35207\include\xtree
; File C:\IAGOS\server\v18\Source\Source\_Common\Project.h
; File C:\Program Files\Microsoft Visual Studio\2022\Professional\VC\Tools\MSVC\14.44.35207\include\xtree
; File C:\IAGOS\server\v18\Source\Source\_Common\Project.h
; File C:\Program Files\Microsoft Visual Studio\2022\Professional\VC\Tools\MSVC\14.44.35207\include\xtree
; File C:\Program Files\Microsoft Visual Studio\2022\Professional\VC\Tools\MSVC\14.44.35207\include\type_traits
; File C:\Program Files\Microsoft Visual Studio\2022\Professional\VC\Tools\MSVC\14.44.35207\include\xtree
; File C:\IAGOS\server\v18\Source\Source\_Common\Project.h
; File C:\Program Files\Microsoft Visual Studio\2022\Professional\VC\Tools\MSVC\14.44.35207\include\xtree
; File C:\Program Files\Microsoft Visual Studio\2022\Professional\VC\Tools\MSVC\14.44.35207\include\type_traits
; File C:\Program Files\Microsoft Visual Studio\2022\Professional\VC\Tools\MSVC\14.44.35207\include\xtree
; File C:\IAGOS\server\v18\Source\Source\_Common\Project.h
; File C:\IAGOS\server\v18\Source\Source\_common\MoverEquip.cpp
; File C:\IAGOS\server\v18\Source\Source\_Common\Mover.h
; File C:\IAGOS\server\v18\Source\Source\_common\MoverEquip.cpp
; File C:\IAGOS\server\v18\Source\Source\_Common\Mover.h
; File C:\IAGOS\server\v18\Source\Source\_common\MoverEquip.cpp
;	COMDAT ?IsEquipAble@CMover@@QAEHPAVCItemElem@@H@Z
_TEXT	SEGMENT
_Propensity$2 = -80					; size = 44
_Propensity$3 = -80					; size = 44
$T4 = -36						; size = 12
$T5 = -24						; size = 12
_nAttr$1$ = -12						; size = 4
_pWorld$1$ = -8						; size = 4
tv1281 = -4						; size = 4
_pItem$ = 8						; size = 4
_bIgnoreLevel$ = 12					; size = 4
?IsEquipAble@CMover@@QAEHPAVCItemElem@@H@Z PROC		; CMover::IsEquipAble, COMDAT
; _this$ = ecx

; 1491 : {

  00000	55		 push	 ebp
  00001	8b ec		 mov	 ebp, esp
  00003	83 ec 50	 sub	 esp, 80			; 00000050H
  00006	53		 push	 ebx

; 1492 : #if __VER >= 11 // __SYS_IDENTIFY
; 1493 : 	if( !pItem )

  00007	8b 5d 08	 mov	 ebx, DWORD PTR _pItem$[ebp]
  0000a	56		 push	 esi
  0000b	8b f1		 mov	 esi, ecx
  0000d	57		 push	 edi
  0000e	85 db		 test	 ebx, ebx
  00010	0f 84 d2 02 00
	00		 je	 $LN37@IsEquipAbl
; File C:\IAGOS\server\v18\Source\Source\_Common\Item.h

; 230  : 	ItemProp*	GetProp()	{	return prj.GetItemProp( m_dwItemId );	}

  00016	8b 4b 0c	 mov	 ecx, DWORD PTR [ebx+12]
; File C:\IAGOS\server\v18\Source\Source\_Common\Project.h

; 1389 : 	VERIFY_RANGE_ASSERT( nIndex, 0, m_aPropItem.GetSize(), "GetItemProp range_error", NULL );

  00019	a1 40 02 00 00	 mov	 eax, DWORD PTR ?prj@@3VCProject@@A+576
  0001e	85 c9		 test	 ecx, ecx
  00020	78 10		 js	 SHORT $LN46@IsEquipAbl
  00022	3b c8		 cmp	 ecx, eax
  00024	7d 0c		 jge	 SHORT $LN46@IsEquipAbl
; File C:\IAGOS\server\v18\Source\Source\_Common\data.h

; 270  : 	if( dwIndex >= (DWORD)m_nMaxIndex )

  00026	73 20		 jae	 SHORT $LN265@IsEquipAbl

; 271  : 		return NULL;
; 272  : 	return (T*) m_apOffset[ dwIndex ];

  00028	a1 30 02 00 00	 mov	 eax, DWORD PTR ?prj@@3VCProject@@A+560
  0002d	8b 3c 88	 mov	 edi, DWORD PTR [eax+ecx*4]
; File C:\IAGOS\server\v18\Source\Source\_Common\Project.h

; 1390 : 	return m_aPropItem.GetAt( nIndex ); 

  00030	eb 18		 jmp	 SHORT $LN41@IsEquipAbl
$LN46@IsEquipAbl:

; 579  : 	LPCTSTR szErr = Error( _T( "%s min:%d, max:%d, index:%d" ), szMsg, nMin, nMax, nIndex ); 

  00032	51		 push	 ecx
  00033	50		 push	 eax
  00034	6a 00		 push	 0
  00036	68 00 00 00 00	 push	 OFFSET ??_C@_0BI@BEIFNGEL@GetItemProp?5range_error@
  0003b	68 00 00 00 00	 push	 OFFSET ??_C@_0BM@HMFGHCP@?$CFs?5min?3?$CFd?0?5max?3?$CFd?0?5index?3?$CFd@
  00040	e8 00 00 00 00	 call	 ?Error@@YAPBDPBDZZ	; Error
  00045	83 c4 14	 add	 esp, 20			; 00000014H
$LN265@IsEquipAbl:
; File C:\IAGOS\server\v18\Source\Source\_common\MoverEquip.cpp

; 1499 : 	if( pItemProp->dwParts == PARTS_RIDE )

  00048	33 ff		 xor	 edi, edi
$LN41@IsEquipAbl:
  0004a	83 bf a8 00 00
	00 0d		 cmp	 DWORD PTR [edi+168], 13	; 0000000dH
  00051	b8 01 00 00 00	 mov	 eax, 1
  00056	0f 85 56 02 00
	00		 jne	 $LN15@IsEquipAbl

; 1500 : 	{
; 1501 : 		int nLimitLv = pItemProp->dwFlightLimit;

  0005c	8b 9f 28 02 00
	00		 mov	 ebx, DWORD PTR [edi+552]

; 1502 : 		if( nLimitLv == NULL_ID )

  00062	83 fb ff	 cmp	 ebx, -1

; 1503 : 			nLimitLv = 1;
; 1504 : #ifdef __NOLIMIT_RIDE_ITEM
; 1505 : 		if( pItemProp->dwID == II_RID_RID_STI_MAGIC01 )
; 1506 : 			nLimitLv = 0;
; 1507 : #endif // __NOLIMIT_RIDE_ITEM
; 1508 : 		
; 1509 : 		CWorld* pWorld = GetWorld();

  00065	8b 8e 6c 01 00
	00		 mov	 ecx, DWORD PTR [esi+364]
  0006b	0f 44 d8	 cmove	 ebx, eax
  0006e	89 4d f8	 mov	 DWORD PTR _pWorld$1$[ebp], ecx
  00071	8b 07		 mov	 eax, DWORD PTR [edi]
  00073	89 45 fc	 mov	 DWORD PTR tv1281[ebp], eax

; 1510 : 		if( pWorld )

  00076	85 c9		 test	 ecx, ecx
  00078	0f 84 f5 00 00
	00		 je	 $LN12@IsEquipAbl
; File C:\IAGOS\server\v18\Source\Source\_Common\Obj.h

; 215  : 	D3DXVECTOR3		GetPos()	{ return m_vPos; }

  0007e	f3 0f 7e 86 60
	01 00 00	 movq	 xmm0, QWORD PTR [esi+352]
; File C:\IAGOS\server\v18\Source\Source\_common\MoverEquip.cpp

; 1512 : 			int nAttr	= pWorld->GetHeightAttribute( GetPos().x, GetPos().z );

  00086	83 ec 08	 sub	 esp, 8
; File C:\IAGOS\server\v18\Source\Source\_Common\Obj.h

; 215  : 	D3DXVECTOR3		GetPos()	{ return m_vPos; }

  00089	8b 86 68 01 00
	00		 mov	 eax, DWORD PTR [esi+360]
  0008f	66 0f d6 45 e8	 movq	 QWORD PTR $T5[ebp], xmm0
  00094	f3 0f 7e c0	 movq	 xmm0, xmm0
  00098	66 0f d6 45 dc	 movq	 QWORD PTR $T4[ebp], xmm0
  0009d	89 45 f0	 mov	 DWORD PTR $T5[ebp+8], eax
; File C:\IAGOS\server\v18\Source\Source\_common\MoverEquip.cpp

; 1512 : 			int nAttr	= pWorld->GetHeightAttribute( GetPos().x, GetPos().z );

  000a0	f3 0f 10 45 f0	 movss	 xmm0, DWORD PTR $T5[ebp+8]
  000a5	f3 0f 11 44 24
	04		 movss	 DWORD PTR [esp+4], xmm0
  000ab	f3 0f 10 45 dc	 movss	 xmm0, DWORD PTR $T4[ebp]
  000b0	f3 0f 11 04 24	 movss	 DWORD PTR [esp], xmm0
  000b5	e8 00 00 00 00	 call	 ?GetHeightAttribute@CWorld@@QAEHMM@Z ; CWorld::GetHeightAttribute
  000ba	33 c9		 xor	 ecx, ecx
  000bc	89 45 f4	 mov	 DWORD PTR _nAttr$1$[ebp], eax
  000bf	81 7d fc 92 67
	00 00		 cmp	 DWORD PTR tv1281[ebp], 26514 ; 00006792H
  000c6	0f 45 cb	 cmovne	 ecx, ebx
; File C:\IAGOS\server\v18\Source\Source\_Common\Mover.h

; 549  : 	LONG	GetFlightLv( void )	{	return ( GetLevel() >= 20? 1: 0 );		}

  000c9	33 c0		 xor	 eax, eax
  000cb	83 be d8 05 00
	00 14		 cmp	 DWORD PTR [esi+1496], 20 ; 00000014H
  000d2	0f 9d c0	 setge	 al
; File C:\IAGOS\server\v18\Source\Source\_common\MoverEquip.cpp

; 1514 : 			if( GetFlightLv() < nLimitLv )		// 비행레벨이 안되면 못탄다.

  000d5	3b c1		 cmp	 eax, ecx
  000d7	7d 2b		 jge	 SHORT $LN7@IsEquipAbl

; 1515 : 			{
; 1516 : #ifdef __WORLDSERVER
; 1517 : 				if( TRUE == IsPlayer() )

  000d9	83 be 30 02 00
	00 01		 cmp	 DWORD PTR [esi+560], 1
  000e0	0f 85 02 02 00
	00		 jne	 $LN37@IsEquipAbl

; 1518 : 					( (CUser*)this )->AddDefinedText( TID_GAME_USEAIRCRAFT, "" );	// 잠시만 기다려주세요.

  000e6	68 00 00 00 00	 push	 OFFSET ??_C@_00CNPNBAHC@@
  000eb	68 64 02 00 00	 push	 612			; 00000264H
  000f0	56		 push	 esi
  000f1	e8 00 00 00 00	 call	 ?AddDefinedText@CUser@@QAAXHPBDZZ ; CUser::AddDefinedText
  000f6	83 c4 0c	 add	 esp, 12			; 0000000cH

; 1711 : 		return FALSE;
; 1712 : #else // __CROSSBOW
; 1713 : 	if( pItemProp->dwItemKind3 == IK3_ARROW && ( pHandItemProp == NULL || pHandItemProp->dwItemKind3 != IK3_BOW ) )
; 1714 : 		return FALSE;	
; 1715 : #endif // __CROSSBOW
; 1716 : 	return TRUE;
; 1717 : }

  000f9	33 c0		 xor	 eax, eax
  000fb	5f		 pop	 edi
  000fc	5e		 pop	 esi
  000fd	5b		 pop	 ebx
  000fe	8b e5		 mov	 esp, ebp
  00100	5d		 pop	 ebp
  00101	c2 08 00	 ret	 8
$LN7@IsEquipAbl:

; 1519 : #else // __WORLDSERVER
; 1520 : 				g_WndMng.PutString( prj.GetText( TID_GAME_USEAIRCRAFT ), NULL, prj.GetTextColor( TID_GAME_USEAIRCRAFT ) );
; 1521 : #endif // __WORLDSERVER
; 1522 : 				return FALSE;
; 1523 : 			}
; 1524 : 			
; 1525 : 			if( !pWorld->m_bFly )

  00104	8b 45 f8	 mov	 eax, DWORD PTR _pWorld$1$[ebp]
  00107	83 b8 04 93 08
	00 00		 cmp	 DWORD PTR [eax+561924], 0
  0010e	75 1e		 jne	 SHORT $LN9@IsEquipAbl

; 1526 : 			{
; 1527 : #ifdef __WORLDSERVER
; 1528 : 				( (CUser*)this )->AddDefinedText( TID_ERROR_NOFLY, "" );	// 비행금지구역입니다.

  00110	68 00 00 00 00	 push	 OFFSET ??_C@_00CNPNBAHC@@
  00115	68 65 09 00 00	 push	 2405			; 00000965H
  0011a	56		 push	 esi
  0011b	e8 00 00 00 00	 call	 ?AddDefinedText@CUser@@QAAXHPBDZZ ; CUser::AddDefinedText
  00120	83 c4 0c	 add	 esp, 12			; 0000000cH

; 1711 : 		return FALSE;
; 1712 : #else // __CROSSBOW
; 1713 : 	if( pItemProp->dwItemKind3 == IK3_ARROW && ( pHandItemProp == NULL || pHandItemProp->dwItemKind3 != IK3_BOW ) )
; 1714 : 		return FALSE;	
; 1715 : #endif // __CROSSBOW
; 1716 : 	return TRUE;
; 1717 : }

  00123	33 c0		 xor	 eax, eax
  00125	5f		 pop	 edi
  00126	5e		 pop	 esi
  00127	5b		 pop	 ebx
  00128	8b e5		 mov	 esp, ebp
  0012a	5d		 pop	 ebp
  0012b	c2 08 00	 ret	 8
$LN9@IsEquipAbl:

; 1529 : #else // __WORLDSERVER
; 1530 : 				g_WndMng.PutString( prj.GetText( TID_ERROR_NOFLY ), NULL, prj.GetTextColor( TID_ERROR_NOFLY ) );
; 1531 : #endif // __WORLDSERVER
; 1532 : 				return FALSE;
; 1533 : 			}
; 1534 : 
; 1535 : 			if( HasBuffByIk3( IK3_TEXT_DISGUISE ) )

  0012e	6a 51		 push	 81			; 00000051H
  00130	8b ce		 mov	 ecx, esi
  00132	e8 00 00 00 00	 call	 ?HasBuffByIk3@CMover@@QAEHK@Z ; CMover::HasBuffByIk3
  00137	85 c0		 test	 eax, eax
  00139	74 1e		 je	 SHORT $LN10@IsEquipAbl

; 1536 : 			{
; 1537 : #ifdef __WORLDSERVER
; 1538 : 				( (CUser*)this )->AddDefinedText( TID_QUEST_DISQUISE_NOTFLY, "" );	// 변신중에는 비행을 할수 없습니다

  0013b	68 00 00 00 00	 push	 OFFSET ??_C@_00CNPNBAHC@@
  00140	68 f1 09 00 00	 push	 2545			; 000009f1H
  00145	56		 push	 esi
  00146	e8 00 00 00 00	 call	 ?AddDefinedText@CUser@@QAAXHPBDZZ ; CUser::AddDefinedText
  0014b	83 c4 0c	 add	 esp, 12			; 0000000cH

; 1711 : 		return FALSE;
; 1712 : #else // __CROSSBOW
; 1713 : 	if( pItemProp->dwItemKind3 == IK3_ARROW && ( pHandItemProp == NULL || pHandItemProp->dwItemKind3 != IK3_BOW ) )
; 1714 : 		return FALSE;	
; 1715 : #endif // __CROSSBOW
; 1716 : 	return TRUE;
; 1717 : }

  0014e	33 c0		 xor	 eax, eax
  00150	5f		 pop	 edi
  00151	5e		 pop	 esi
  00152	5b		 pop	 ebx
  00153	8b e5		 mov	 esp, ebp
  00155	5d		 pop	 ebp
  00156	c2 08 00	 ret	 8
$LN10@IsEquipAbl:

; 1539 : #else // __WORLDSERVER
; 1540 : 				g_WndMng.PutString( prj.GetText( TID_QUEST_DISQUISE_NOTFLY ), NULL, prj.GetTextColor( TID_QUEST_DISQUISE_NOTFLY ) );
; 1541 : #endif // __WORLDSERVER
; 1542 : 				return FALSE;
; 1543 : 			}
; 1544 : 			
; 1545 : 			// 장착 이전에 검사하여야 한다.
; 1546 : 			if( nAttr == HATTR_NOFLY )		// 비행금지구역에선 못탄다.

  00159	83 7d f4 02	 cmp	 DWORD PTR _nAttr$1$[ebp], 2
  0015d	0f 84 85 01 00
	00		 je	 $LN37@IsEquipAbl
; File C:\IAGOS\server\v18\Source\Source\_AIInterface\Action.h

; 307  : 	BOOL			IsState( DWORD dwState ) { return ( m_dwState & dwState ) ? TRUE : FALSE; }

  00163	8b 86 38 02 00
	00		 mov	 eax, DWORD PTR [esi+568]
  00169	f6 40 04 01	 test	 BYTE PTR [eax+4], 1
; File C:\IAGOS\server\v18\Source\Source\_common\MoverEquip.cpp

; 1550 : 			if( m_pActMover->IsState( OBJSTA_STAND ) == FALSE )

  0016d	0f 84 75 01 00
	00		 je	 $LN37@IsEquipAbl
$LN12@IsEquipAbl:
; File C:\IAGOS\server\v18\Source\Source\_Common\Mover.h

; 1257 : 	BOOL			IsChaotic( void ) { return m_dwPKPropensity > 0; }	/// 카오인지

  00173	8b 96 58 07 00
	00		 mov	 edx, DWORD PTR [esi+1880]
  00179	85 d2		 test	 edx, edx
; File C:\IAGOS\server\v18\Source\Source\_common\MoverEquip.cpp

; 1557 : 		if( IsChaotic() )

  0017b	0f 84 05 01 00
	00		 je	 $LN14@IsEquipAbl
; File C:\Program Files\Microsoft Visual Studio\2022\Professional\VC\Tools\MSVC\14.44.35207\include\xtree

; 37   :     _Tree_unchecked_const_iterator(_Nodeptr _Pnode, const _Mytree* _Plist) noexcept : _Ptr(_Pnode) {

  00181	8b 1d 8c 4b 0b
	00		 mov	 ebx, DWORD PTR ?prj@@3VCProject@@A+740236
  00187	8b 03		 mov	 eax, DWORD PTR [ebx]

; 237  :         return !(*this == _Right);

  00189	3b c3		 cmp	 eax, ebx
; File C:\IAGOS\server\v18\Source\Source\_Common\Project.h

; 1304 : 	for( ; it != m_PKSetting.mapPropensityPenalty.end() ; it++ )

  0018b	74 79		 je	 SHORT $LN198@IsEquipAbl
  0018d	0f 1f 00	 npad	 3
$LL66@IsEquipAbl:

; 1305 : 	{
; 1306 : 		CHAO_PROPENSITY Propensity = it->second;

  00190	0f 10 48 14	 movups	 xmm1, XMMWORD PTR [eax+20]
  00194	0f 10 40 24	 movups	 xmm0, XMMWORD PTR [eax+36]

; 1307 : 		if( Propensity.dwPropensityMin <= dwPropensity && dwPropensity <= Propensity.dwPropensityMax )

  00198	66 0f 7e c9	 movd	 ecx, xmm1
  0019c	0f 11 45 c0	 movups	 XMMWORD PTR _Propensity$3[ebp+16], xmm0
  001a0	f3 0f 7e 40 34	 movq	 xmm0, QWORD PTR [eax+52]
  001a5	66 0f d6 45 d0	 movq	 QWORD PTR _Propensity$3[ebp+32], xmm0
  001aa	0f 11 4d b0	 movups	 XMMWORD PTR _Propensity$3[ebp], xmm1
  001ae	3b ca		 cmp	 ecx, edx
  001b0	77 05		 ja	 SHORT $LN64@IsEquipAbl
  001b2	3b 55 b4	 cmp	 edx, DWORD PTR _Propensity$3[ebp+4]
  001b5	76 65		 jbe	 SHORT $LN194@IsEquipAbl
$LN64@IsEquipAbl:
; File C:\Program Files\Microsoft Visual Studio\2022\Professional\VC\Tools\MSVC\14.44.35207\include\xtree

; 50   :         if (_Ptr->_Right->_Isnil) { // climb looking for right subtree

  001b7	8b 48 08	 mov	 ecx, DWORD PTR [eax+8]
  001ba	80 79 0d 00	 cmp	 BYTE PTR [ecx+13], 0
  001be	74 24		 je	 SHORT $LN91@IsEquipAbl

; 51   :             _Nodeptr _Pnode;
; 52   :             while (!(_Pnode = _Ptr->_Parent)->_Isnil && _Ptr == _Pnode->_Right) {

  001c0	8b 48 04	 mov	 ecx, DWORD PTR [eax+4]
  001c3	80 79 0d 00	 cmp	 BYTE PTR [ecx+13], 0
  001c7	75 17		 jne	 SHORT $LN213@IsEquipAbl
  001c9	0f 1f 80 00 00
	00 00		 npad	 7
$LL89@IsEquipAbl:
  001d0	3b 41 08	 cmp	 eax, DWORD PTR [ecx+8]
  001d3	75 0b		 jne	 SHORT $LN213@IsEquipAbl

; 53   :                 _Ptr = _Pnode; // ==> parent while right subtree

  001d5	8b c1		 mov	 eax, ecx
  001d7	8b 49 04	 mov	 ecx, DWORD PTR [ecx+4]
  001da	80 79 0d 00	 cmp	 BYTE PTR [ecx+13], 0
  001de	74 f0		 je	 SHORT $LL89@IsEquipAbl
$LN213@IsEquipAbl:

; 54   :             }
; 55   : 
; 56   :             _Ptr = _Pnode; // ==> parent (head if end())

  001e0	8b c1		 mov	 eax, ecx

; 57   :         } else {

  001e2	eb 1e		 jmp	 SHORT $LN197@IsEquipAbl
$LN91@IsEquipAbl:

; 58   :             _Ptr = _Mytree::_Min(_Ptr->_Right); // ==> smallest of right subtree

  001e4	8b c1		 mov	 eax, ecx

; 476  :         while (!_Pnode->_Left->_Isnil) {

  001e6	8b 10		 mov	 edx, DWORD PTR [eax]
  001e8	80 7a 0d 00	 cmp	 BYTE PTR [edx+13], 0
  001ec	75 0e		 jne	 SHORT $LN97@IsEquipAbl
  001ee	66 90		 npad	 2
$LL96@IsEquipAbl:
  001f0	8b 0a		 mov	 ecx, DWORD PTR [edx]

; 477  :             _Pnode = _Pnode->_Left;

  001f2	8b c2		 mov	 eax, edx
  001f4	8b d1		 mov	 edx, ecx
  001f6	80 79 0d 00	 cmp	 BYTE PTR [ecx+13], 0
  001fa	74 f4		 je	 SHORT $LL96@IsEquipAbl
$LN97@IsEquipAbl:

; 58   :             _Ptr = _Mytree::_Min(_Ptr->_Right); // ==> smallest of right subtree

  001fc	8b 96 58 07 00
	00		 mov	 edx, DWORD PTR [esi+1880]
$LN197@IsEquipAbl:

; 237  :         return !(*this == _Right);

  00202	3b c3		 cmp	 eax, ebx
; File C:\IAGOS\server\v18\Source\Source\_Common\Project.h

; 1304 : 	for( ; it != m_PKSetting.mapPropensityPenalty.end() ; it++ )

  00204	75 8a		 jne	 SHORT $LL66@IsEquipAbl
$LN198@IsEquipAbl:
; File C:\Program Files\Microsoft Visual Studio\2022\Professional\VC\Tools\MSVC\14.44.35207\include\xtree

; 1630 :         _Tree_find_result<_Nodeptr> _Result{{_Scary->_Myhead->_Parent, _Tree_child::_Right}, _Scary->_Myhead};

  00206	8b 43 04	 mov	 eax, DWORD PTR [ebx+4]
  00209	8b cb		 mov	 ecx, ebx

; 1631 :         _Nodeptr _Trynode = _Result._Location._Parent;
; 1632 :         while (!_Trynode->_Isnil) {

  0020b	80 78 0d 00	 cmp	 BYTE PTR [eax+13], 0
  0020f	75 2c		 jne	 SHORT $LN134@IsEquipAbl
$LL133@IsEquipAbl:
; File C:\Program Files\Microsoft Visual Studio\2022\Professional\VC\Tools\MSVC\14.44.35207\include\type_traits

; 2380 :         return _Left < _Right;

  00211	83 78 10 08	 cmp	 DWORD PTR [eax+16], 8
; File C:\Program Files\Microsoft Visual Studio\2022\Professional\VC\Tools\MSVC\14.44.35207\include\xtree

; 1634 :             if (_DEBUG_LT_PRED(_Getcomp(), _Traits::_Kfn(_Trynode->_Myval), _Keyval)) {

  00215	7d 1c		 jge	 SHORT $LN135@IsEquipAbl

; 1635 :                 _Result._Location._Child = _Tree_child::_Right;
; 1636 :                 _Trynode                 = _Trynode->_Right;

  00217	8b 40 08	 mov	 eax, DWORD PTR [eax+8]

; 1637 :             } else {

  0021a	eb 1b		 jmp	 SHORT $LN136@IsEquipAbl
$LN194@IsEquipAbl:
; File C:\IAGOS\server\v18\Source\Source\_Common\Project.h

; 1308 : 			return Propensity;

  0021c	0f 10 40 14	 movups	 xmm0, XMMWORD PTR [eax+20]
  00220	0f 11 45 b0	 movups	 XMMWORD PTR _Propensity$2[ebp], xmm0
  00224	0f 10 40 24	 movups	 xmm0, XMMWORD PTR [eax+36]
  00228	0f 11 45 c0	 movups	 XMMWORD PTR _Propensity$2[ebp+16], xmm0
  0022c	f3 0f 7e 40 34	 movq	 xmm0, QWORD PTR [eax+52]
  00231	eb 31		 jmp	 SHORT $LN266@IsEquipAbl
$LN135@IsEquipAbl:
; File C:\Program Files\Microsoft Visual Studio\2022\Professional\VC\Tools\MSVC\14.44.35207\include\xtree

; 1639 :                 _Result._Bound           = _Trynode;

  00233	8b c8		 mov	 ecx, eax

; 1640 :                 _Trynode                 = _Trynode->_Left;

  00235	8b 00		 mov	 eax, DWORD PTR [eax]
$LN136@IsEquipAbl:

; 1631 :         _Nodeptr _Trynode = _Result._Location._Parent;
; 1632 :         while (!_Trynode->_Isnil) {

  00237	80 78 0d 00	 cmp	 BYTE PTR [eax+13], 0
  0023b	74 d4		 je	 SHORT $LL133@IsEquipAbl
$LN134@IsEquipAbl:

; 1624 :         return !_Bound->_Isnil && !_DEBUG_LT_PRED(_Getcomp(), _Keyval, _Traits::_Kfn(_Bound->_Myval));

  0023d	80 79 0d 00	 cmp	 BYTE PTR [ecx+13], 0
  00241	75 06		 jne	 SHORT $LN130@IsEquipAbl
; File C:\Program Files\Microsoft Visual Studio\2022\Professional\VC\Tools\MSVC\14.44.35207\include\type_traits

; 2380 :         return _Left < _Right;

  00243	83 79 10 08	 cmp	 DWORD PTR [ecx+16], 8
; File C:\Program Files\Microsoft Visual Studio\2022\Professional\VC\Tools\MSVC\14.44.35207\include\xtree

; 1624 :         return !_Bound->_Isnil && !_DEBUG_LT_PRED(_Getcomp(), _Keyval, _Traits::_Kfn(_Bound->_Myval));

  00247	7e 02		 jle	 SHORT $LN129@IsEquipAbl
$LN130@IsEquipAbl:

; 1389 :         return _Get_scary()->_Myhead;

  00249	8b cb		 mov	 ecx, ebx
$LN129@IsEquipAbl:

; 37   :     _Tree_unchecked_const_iterator(_Nodeptr _Pnode, const _Mytree* _Plist) noexcept : _Ptr(_Pnode) {

  0024b	3b cb		 cmp	 ecx, ebx
; File C:\IAGOS\server\v18\Source\Source\_Common\Project.h

; 1312 : 	if( it != m_PKSetting.mapPropensityPenalty.end() )

  0024d	74 37		 je	 SHORT $LN14@IsEquipAbl

; 1313 : 		return it->second;

  0024f	0f 10 41 14	 movups	 xmm0, XMMWORD PTR [ecx+20]
  00253	0f 11 45 b0	 movups	 XMMWORD PTR _Propensity$2[ebp], xmm0
  00257	0f 10 41 24	 movups	 xmm0, XMMWORD PTR [ecx+36]
  0025b	0f 11 45 c0	 movups	 XMMWORD PTR _Propensity$2[ebp+16], xmm0
  0025f	f3 0f 7e 41 34	 movq	 xmm0, QWORD PTR [ecx+52]
$LN266@IsEquipAbl:
; File C:\IAGOS\server\v18\Source\Source\_common\MoverEquip.cpp

; 1560 : 			if( !Propensity.nFly )

  00264	66 0f d6 45 d0	 movq	 QWORD PTR _Propensity$2[ebp+32], xmm0
  00269	83 7d d0 00	 cmp	 DWORD PTR _Propensity$2[ebp+32], 0
  0026d	75 17		 jne	 SHORT $LN14@IsEquipAbl

; 1561 : 			{
; 1562 : 				((CUser*)this)->AddDefinedText( TID_GAME_CHAOTIC_NOT_FLY );

  0026f	68 3f 0c 00 00	 push	 3135			; 00000c3fH
  00274	8b ce		 mov	 ecx, esi
  00276	e8 00 00 00 00	 call	 ?AddDefinedText@CUser@@QAEXH@Z ; CUser::AddDefinedText
  0027b	5f		 pop	 edi

; 1711 : 		return FALSE;
; 1712 : #else // __CROSSBOW
; 1713 : 	if( pItemProp->dwItemKind3 == IK3_ARROW && ( pHandItemProp == NULL || pHandItemProp->dwItemKind3 != IK3_BOW ) )
; 1714 : 		return FALSE;	
; 1715 : #endif // __CROSSBOW
; 1716 : 	return TRUE;
; 1717 : }

  0027c	5e		 pop	 esi
  0027d	33 c0		 xor	 eax, eax
  0027f	5b		 pop	 ebx
  00280	8b e5		 mov	 esp, ebp
  00282	5d		 pop	 ebp
  00283	c2 08 00	 ret	 8
$LN14@IsEquipAbl:
; File C:\IAGOS\server\v18\Source\Source\_Common\Mover.h

; 806  : 	BOOL	HasActivatedEatPet( void )		{	return m_oiEatPet != NULL_ID;	}

  00286	83 be 74 06 00
	00 ff		 cmp	 DWORD PTR [esi+1652], -1
; File C:\IAGOS\server\v18\Source\Source\_common\MoverEquip.cpp

; 1571 : 		if( HasActivatedEatPet() || HasActivatedSystemPet() )	// 펫이 소환된 상태라면 비행 불가

  0028d	75 09		 jne	 SHORT $LN16@IsEquipAbl
; File C:\IAGOS\server\v18\Source\Source\_Common\Mover.h

; 807  : 	BOOL	HasActivatedSystemPet( void )	{	return m_dwPetId != NULL_ID;	}

  0028f	83 be 98 10 00
	00 ff		 cmp	 DWORD PTR [esi+4248], -1
; File C:\IAGOS\server\v18\Source\Source\_common\MoverEquip.cpp

; 1571 : 		if( HasActivatedEatPet() || HasActivatedSystemPet() )	// 펫이 소환된 상태라면 비행 불가

  00296	74 17		 je	 SHORT $LN214@IsEquipAbl
$LN16@IsEquipAbl:

; 1572 : 		{
; 1573 : 			( (CUser*)this )->AddDefinedText( TID_GAME_CANNOT_FLY_WITH_PET );

  00298	68 89 0c 00 00	 push	 3209			; 00000c89H
  0029d	8b ce		 mov	 ecx, esi
  0029f	e8 00 00 00 00	 call	 ?AddDefinedText@CUser@@QAEXH@Z ; CUser::AddDefinedText
  002a4	5f		 pop	 edi

; 1711 : 		return FALSE;
; 1712 : #else // __CROSSBOW
; 1713 : 	if( pItemProp->dwItemKind3 == IK3_ARROW && ( pHandItemProp == NULL || pHandItemProp->dwItemKind3 != IK3_BOW ) )
; 1714 : 		return FALSE;	
; 1715 : #endif // __CROSSBOW
; 1716 : 	return TRUE;
; 1717 : }

  002a5	5e		 pop	 esi
  002a6	33 c0		 xor	 eax, eax
  002a8	5b		 pop	 ebx
  002a9	8b e5		 mov	 esp, ebp
  002ab	5d		 pop	 ebp
  002ac	c2 08 00	 ret	 8
$LN214@IsEquipAbl:

; 1571 : 		if( HasActivatedEatPet() || HasActivatedSystemPet() )	// 펫이 소환된 상태라면 비행 불가

  002af	8b 5d 08	 mov	 ebx, DWORD PTR _pItem$[ebp]
$LN15@IsEquipAbl:

; 1574 : 			return FALSE;
; 1575 : 		}
; 1576 : #endif	// __WORLDSERVER
; 1577 : #endif	// __PET_0410
; 1578 : 	}
; 1579 : 
; 1580 : 	// 무기류가 아닌것(방어구)는 성별을 확인한다.
; 1581 : 	{
; 1582 : 		// 성별 확인( 무기는 빠짐 )
; 1583 : 		if( pItemProp->dwItemSex != NULL_ID && pItemProp->dwItemSex != GetSex() )

  002b2	8b 8f 88 00 00
	00		 mov	 ecx, DWORD PTR [edi+136]
  002b8	83 f9 ff	 cmp	 ecx, -1
  002bb	74 36		 je	 SHORT $LN17@IsEquipAbl
  002bd	0f b6 86 18 06
	00 00		 movzx	 eax, BYTE PTR [esi+1560]
  002c4	3b c8		 cmp	 ecx, eax
  002c6	74 2b		 je	 SHORT $LN17@IsEquipAbl

; 1584 : 		{
; 1585 : #ifdef __WORLDSERVER
; 1586 : 			if( TRUE == IsPlayer() )

  002c8	83 be 30 02 00
	00 01		 cmp	 DWORD PTR [esi+560], 1
  002cf	75 17		 jne	 SHORT $LN37@IsEquipAbl

; 1587 : 				( (CUser*)this )->AddDefinedText( TID_GAME_WRONGSEX, "\"%s\"", pItemProp->szName );

  002d1	8d 47 04	 lea	 eax, DWORD PTR [edi+4]
  002d4	50		 push	 eax
  002d5	68 00 00 00 00	 push	 OFFSET ??_C@_04OEDFLLKD@?$CC?$CFs?$CC@
  002da	68 6e 02 00 00	 push	 622			; 0000026eH

; 1711 : 		return FALSE;
; 1712 : #else // __CROSSBOW
; 1713 : 	if( pItemProp->dwItemKind3 == IK3_ARROW && ( pHandItemProp == NULL || pHandItemProp->dwItemKind3 != IK3_BOW ) )
; 1714 : 		return FALSE;	
; 1715 : #endif // __CROSSBOW
; 1716 : 	return TRUE;
; 1717 : }

  002df	56		 push	 esi
  002e0	e8 00 00 00 00	 call	 ?AddDefinedText@CUser@@QAAXHPBDZZ ; CUser::AddDefinedText
  002e5	83 c4 10	 add	 esp, 16			; 00000010H
$LN37@IsEquipAbl:
  002e8	5f		 pop	 edi
  002e9	5e		 pop	 esi
  002ea	33 c0		 xor	 eax, eax
  002ec	5b		 pop	 ebx
  002ed	8b e5		 mov	 esp, ebp
  002ef	5d		 pop	 ebp
  002f0	c2 08 00	 ret	 8
$LN17@IsEquipAbl:

; 1588 : #endif	// __WORLDSERVER
; 1589 : 			return FALSE;
; 1590 : 		} // 성별
; 1591 : 	}// 무기
; 1592 : 	
; 1593 : 	// 방어구 입을때 직업확인.
; 1594 : 	if( pItemProp->dwItemKind1 != IK1_WEAPON )

  002f3	83 7f 70 01	 cmp	 DWORD PTR [edi+112], 1
  002f7	74 1a		 je	 SHORT $LN268@IsEquipAbl

; 1595 : 	{
; 1596 : 		if( pItemProp->dwItemJob != NULL_ID && FALSE == IsInteriorityJob( pItemProp->dwItemJob ) ) {

  002f9	8b 47 7c	 mov	 eax, DWORD PTR [edi+124]
  002fc	83 f8 ff	 cmp	 eax, -1
  002ff	74 0c		 je	 SHORT $LN20@IsEquipAbl
  00301	50		 push	 eax
  00302	8b ce		 mov	 ecx, esi
  00304	e8 00 00 00 00	 call	 ?IsInteriorityJob@CMover@@QAEHH@Z ; CMover::IsInteriorityJob
  00309	85 c0		 test	 eax, eax
  0030b	74 1a		 je	 SHORT $LN270@IsEquipAbl
$LN20@IsEquipAbl:

; 1597 : #ifdef __WORLDSERVER
; 1598 : 			if( TRUE == IsPlayer() )
; 1599 : 				( (CUser*)this )->AddDefinedText( TID_GAME_WRONGJOB, "\"%s\"", pItemProp->szName );
; 1600 : #endif	// __WORLDSERVER
; 1601 : 			return FALSE;
; 1602 : 		}
; 1603 : 	}
; 1604 : 
; 1605 : 	// 아이템 필요직업검사.
; 1606 : 	if( pItemProp->dwItemKind1 == IK1_WEAPON )		// 무기류를 장착하려할때

  0030d	83 7f 70 01	 cmp	 DWORD PTR [edi+112], 1
  00311	75 3f		 jne	 SHORT $LN23@IsEquipAbl
$LN268@IsEquipAbl:

; 1607 : 	{
; 1608 : 		if( pItemProp->dwItemJob != NULL_ID && FALSE == IsInteriorityJob( pItemProp->dwItemJob ) )	// 아이템에 필요직업이 지정되어 있고

  00313	8b 47 7c	 mov	 eax, DWORD PTR [edi+124]
  00316	83 f8 ff	 cmp	 eax, -1
  00319	74 37		 je	 SHORT $LN23@IsEquipAbl
  0031b	50		 push	 eax
  0031c	8b ce		 mov	 ecx, esi
  0031e	e8 00 00 00 00	 call	 ?IsInteriorityJob@CMover@@QAEHH@Z ; CMover::IsInteriorityJob
  00323	85 c0		 test	 eax, eax
  00325	75 2b		 jne	 SHORT $LN23@IsEquipAbl
$LN270@IsEquipAbl:

; 1711 : 		return FALSE;
; 1712 : #else // __CROSSBOW
; 1713 : 	if( pItemProp->dwItemKind3 == IK3_ARROW && ( pHandItemProp == NULL || pHandItemProp->dwItemKind3 != IK3_BOW ) )
; 1714 : 		return FALSE;	
; 1715 : #endif // __CROSSBOW
; 1716 : 	return TRUE;
; 1717 : }

  00327	83 be 30 02 00
	00 01		 cmp	 DWORD PTR [esi+560], 1
  0032e	75 b8		 jne	 SHORT $LN37@IsEquipAbl
  00330	8d 47 04	 lea	 eax, DWORD PTR [edi+4]
  00333	50		 push	 eax
  00334	68 00 00 00 00	 push	 OFFSET ??_C@_04OEDFLLKD@?$CC?$CFs?$CC@
  00339	68 6d 02 00 00	 push	 621			; 0000026dH
  0033e	56		 push	 esi
  0033f	e8 00 00 00 00	 call	 ?AddDefinedText@CUser@@QAAXHPBDZZ ; CUser::AddDefinedText
  00344	83 c4 10	 add	 esp, 16			; 00000010H
  00347	33 c0		 xor	 eax, eax
  00349	5f		 pop	 edi
  0034a	5e		 pop	 esi
  0034b	5b		 pop	 ebx
  0034c	8b e5		 mov	 esp, ebp
  0034e	5d		 pop	 ebp
  0034f	c2 08 00	 ret	 8
$LN23@IsEquipAbl:

; 1609 : 		{
; 1610 : #ifdef __WORLDSERVER
; 1611 : 			if( TRUE == IsPlayer() )
; 1612 : 				( (CUser*)this )->AddDefinedText( TID_GAME_WRONGJOB, "\"%s\"", pItemProp->szName );
; 1613 : #endif	// __WORLDSERVER
; 1614 : 			return FALSE;
; 1615 : 		}
; 1616 : 	}
; 1617 : 
; 1618 : 	if( !g_eLocal.GetState( EVE_SCHOOL ) && !bIgnoreLevel )

  00352	6a 04		 push	 4
  00354	b9 00 00 00 00	 mov	 ecx, OFFSET ?g_eLocal@@3VCFlyffEvent@@A ; g_eLocal
  00359	e8 00 00 00 00	 call	 ?GetState@CFlyffEvent@@QAEEH@Z ; CFlyffEvent::GetState
  0035e	84 c0		 test	 al, al
  00360	75 69		 jne	 SHORT $LN31@IsEquipAbl
  00362	83 7d 0c 00	 cmp	 DWORD PTR _bIgnoreLevel$[ebp], 0
  00366	75 63		 jne	 SHORT $LN31@IsEquipAbl

; 1619 : 	{
; 1620 : 
; 1621 : 		// 아이템 필요레벨 검사.
; 1622 : 		if( pItemProp->dwLimitLevel1 != 0xffffffff )	// 필요레벨이 지정되어 있고

  00368	83 bf 30 02 00
	00 ff		 cmp	 DWORD PTR [edi+560], -1
  0036f	74 0c		 je	 SHORT $LN209@IsEquipAbl

; 1623 : 		{
; 1624 : #if __VER >= 14 // __NEW_ITEM_LIMIT_LEVEL
; 1625 : 			if( pItem->IsLimitLevel( this ) )	// 레벨이 안되면 못참.

  00371	56		 push	 esi
  00372	8b cb		 mov	 ecx, ebx
  00374	e8 00 00 00 00	 call	 ?IsLimitLevel@CItemElem@@QAEHPAVCMover@@@Z ; CItemElem::IsLimitLevel
  00379	85 c0		 test	 eax, eax
  0037b	75 1b		 jne	 SHORT $LN269@IsEquipAbl
$LN209@IsEquipAbl:

; 1626 : #else // __NEW_ITEM_LIMIT_LEVEL
; 1627 : #if __VER >= 10 // __LEGEND	//	10차 전승시스템	Neuz, World, Trans
; 1628 : #if __VER >= 11 // __SYS_IDENTIFY
; 1629 : 			if( m_nLevel < pItem->GetLimitLevel() && !IsMaster() && !IsHero()  )	// 레벨이 안되면 못참.				
; 1630 : #else	// __SYS_IDENTIFY
; 1631 : 			if( ( m_nLevel < pItemProp->dwLimitLevel1 ) && !IsMaster() && !IsHero()  )	// 레벨이 안되면 못참.				
; 1632 : #endif	// __SYS_IDENTIFY
; 1633 : #else //__LEGEND	//	10차 전승시스템	Neuz, World, Trans
; 1634 : 			if( m_nLevel < pItemProp->dwLimitLevel1 )	// 아이템을 찰 레벨이 안되었으면 못참.
; 1635 : #endif	//__LEGEND	//	10차 전승시스템	Neuz, World, Trans
; 1636 : #endif // __NEW_ITEM_LIMIT_LEVEL
; 1637 : 			{
; 1638 : #	ifdef __WORLDSERVER
; 1639 : 				if( TRUE == IsPlayer() )
; 1640 : 				{
; 1641 : #if __VER >= 11 // __SYS_IDENTIFY
; 1642 : 					( (CUser*)this )->AddDefinedText( TID_GAME_REQLEVEL, "\"%d\"", pItem->GetLimitLevel() );
; 1643 : #else	// __SYS_IDENTIFY
; 1644 : 					( (CUser*)this )->AddDefinedText( TID_GAME_REQLEVEL, "\"%d\"", pItemProp->dwLimitLevel1 );
; 1645 : #endif	// __SYS_IDENTIFY
; 1646 : 				}
; 1647 : #	endif	// __WORLDSERVER
; 1648 : 				return FALSE;
; 1649 : 			}
; 1650 : 		}
; 1651 : 		// 보석류를 장착
; 1652 : 		if( pItemProp->dwItemKind2 == IK2_JEWELRY )

  0037d	83 7f 74 0d	 cmp	 DWORD PTR [edi+116], 13	; 0000000dH
  00381	75 48		 jne	 SHORT $LN31@IsEquipAbl

; 1653 : 		{
; 1654 : 			if( pItemProp->dwLimitLevel1 != 0xffffffff )	// 제한레벨이 걸려있고

  00383	83 bf 30 02 00
	00 ff		 cmp	 DWORD PTR [edi+560], -1
  0038a	74 3f		 je	 SHORT $LN31@IsEquipAbl

; 1655 : 			{
; 1656 : #if __VER >= 14 // __NEW_ITEM_LIMIT_LEVEL
; 1657 : 				if( pItem->IsLimitLevel( this ) )	// 레벨이 안되면 못참.

  0038c	56		 push	 esi
  0038d	8b cb		 mov	 ecx, ebx
  0038f	e8 00 00 00 00	 call	 ?IsLimitLevel@CItemElem@@QAEHPAVCMover@@@Z ; CItemElem::IsLimitLevel
  00394	85 c0		 test	 eax, eax
  00396	74 33		 je	 SHORT $LN31@IsEquipAbl
$LN269@IsEquipAbl:

; 1711 : 		return FALSE;
; 1712 : #else // __CROSSBOW
; 1713 : 	if( pItemProp->dwItemKind3 == IK3_ARROW && ( pHandItemProp == NULL || pHandItemProp->dwItemKind3 != IK3_BOW ) )
; 1714 : 		return FALSE;	
; 1715 : #endif // __CROSSBOW
; 1716 : 	return TRUE;
; 1717 : }

  00398	83 be 30 02 00
	00 01		 cmp	 DWORD PTR [esi+560], 1
  0039f	0f 85 43 ff ff
	ff		 jne	 $LN37@IsEquipAbl
  003a5	8b cb		 mov	 ecx, ebx
  003a7	e8 00 00 00 00	 call	 ?GetLimitLevel@CItemElem@@QAEKXZ ; CItemElem::GetLimitLevel
  003ac	50		 push	 eax
  003ad	68 00 00 00 00	 push	 OFFSET ??_C@_04PNFMAOFG@?$CC?$CFd?$CC@
  003b2	68 e7 03 00 00	 push	 999			; 000003e7H
  003b7	56		 push	 esi
  003b8	e8 00 00 00 00	 call	 ?AddDefinedText@CUser@@QAAXHPBDZZ ; CUser::AddDefinedText
  003bd	83 c4 10	 add	 esp, 16			; 00000010H
  003c0	33 c0		 xor	 eax, eax
  003c2	5f		 pop	 edi
  003c3	5e		 pop	 esi
  003c4	5b		 pop	 ebx
  003c5	8b e5		 mov	 esp, ebp
  003c7	5d		 pop	 ebp
  003c8	c2 08 00	 ret	 8
$LN31@IsEquipAbl:

; 1658 : #else // __NEW_ITEM_LIMIT_LEVEL
; 1659 : #if __VER >= 10 // __LEGEND	//	10차 전승시스템	Neuz, World, Trans
; 1660 : #if __VER >= 11 // __SYS_IDENTIFY
; 1661 : 				if( m_nLevel < pItem->GetLimitLevel() && !IsMaster() && !IsHero()  )	// 레벨이 안되면 못참.				
; 1662 : #else	// __SYS_IDENTIFY
; 1663 : 				if( ( m_nLevel < pItemProp->dwLimitLevel1 ) && !IsMaster() && !IsHero()  )	// 레벨이 안되면 못참.				
; 1664 : #endif	// __SYS_IDENTIFY
; 1665 : #else //__LEGEND	//	10차 전승시스템	Neuz, World, Trans
; 1666 : 				if( m_nLevel < pItemProp->dwLimitLevel1 )	// 레벨이 안되면 못참.
; 1667 : #endif	//__LEGEND	//	10차 전승시스템	Neuz, World, Trans
; 1668 : #endif // __NEW_ITEM_LIMIT_LEVEL
; 1669 : 				{
; 1670 : #	ifdef __WORLDSERVER
; 1671 : 					if( TRUE == IsPlayer() )
; 1672 : 					{
; 1673 : #if __VER >= 11 // __SYS_IDENTIFY
; 1674 : 						( (CUser*)this )->AddDefinedText( TID_GAME_REQLEVEL, "\"%d\"", pItem->GetLimitLevel() );
; 1675 : #else	// __SYS_IDENTIFY
; 1676 : 						( (CUser*)this )->AddDefinedText( TID_GAME_REQLEVEL, "\"%d\"", pItemProp->dwLimitLevel1 );
; 1677 : #endif	// __SYS_IDENTIFY
; 1678 : 					}
; 1679 : #	endif	// __WORLDSERVER
; 1680 : 					return FALSE;
; 1681 : 				}
; 1682 : 			}
; 1683 : 		}
; 1684 : 
; 1685 : 	}
; 1686 : #if __VER < 8 // __S8_PK
; 1687 : 	//카오용 아이템을 선한자가 장착할 수 없다.
; 1688 : 	if( (pItemProp->nEvildoing < 0) && IsChaotic() == FALSE )
; 1689 : 	{
; 1690 : 	#ifdef __WORLDSERVER
; 1691 : 		if( IsPlayer() )
; 1692 : 			( (CUser*)this )->AddDefinedText( TID_PK_ITEM_MESSAGE1 , "" );	// 카오 아이템은 카오상태에서만...
; 1693 : 	#endif	// __WORLDSERVER
; 1694 : 			
; 1695 : 		return FALSE;
; 1696 : 	}
; 1697 : #endif // __VER < 8 // __S8_PK
; 1698 : 
; 1699 : 	ItemProp *pHandItemProp	= NULL;
; 1700 : 	
; 1701 : 	// 들고있는 무기 프로퍼티 꺼냄.
; 1702 : 	CItemElem *pItemElem = m_Inventory.GetEquip( PARTS_RWEAPON );		

  003cb	6a 0a		 push	 10			; 0000000aH
  003cd	8d 8e fc 0a 00
	00		 lea	 ecx, DWORD PTR [esi+2812]
  003d3	33 db		 xor	 ebx, ebx
  003d5	e8 00 00 00 00	 call	 ?GetEquip@?$CItemContainer@VCItemElem@@@@QAEPAVCItemElem@@K@Z ; CItemContainer<CItemElem>::GetEquip

; 1703 : 	if( pItemElem )

  003da	85 c0		 test	 eax, eax
  003dc	74 09		 je	 SHORT $LN33@IsEquipAbl

; 1704 : 		pHandItemProp = pItemElem->GetProp();

  003de	8b c8		 mov	 ecx, eax
  003e0	e8 00 00 00 00	 call	 ?GetPropA@CItemElem@@QAEPAUItemProp@@XZ ; CItemElem::GetPropA
  003e5	8b d8		 mov	 ebx, eax
$LN33@IsEquipAbl:

; 1705 : 
; 1706 : 	// 화살을 착용하려 했을때 보우일때만 착용돼야 함
; 1707 : #ifdef __CROSSBOW
; 1708 : 	if( pItemProp->dwItemKind3 == IK3_ARROW && ( pHandItemProp == NULL || ( pHandItemProp->dwItemKind3 != IK3_BOW && pHandItemProp->dwItemKind3 != IK3_CROSSBOW ) ))

  003e7	8b 47 78	 mov	 eax, DWORD PTR [edi+120]
  003ea	83 f8 3c	 cmp	 eax, 60			; 0000003cH
  003ed	75 27		 jne	 SHORT $LN34@IsEquipAbl
  003ef	85 db		 test	 ebx, ebx
  003f1	0f 84 f1 fe ff
	ff		 je	 $LN37@IsEquipAbl
  003f7	8b 43 78	 mov	 eax, DWORD PTR [ebx+120]
  003fa	83 f8 0c	 cmp	 eax, 12			; 0000000cH
  003fd	74 09		 je	 SHORT $LN36@IsEquipAbl
  003ff	83 f8 0e	 cmp	 eax, 14			; 0000000eH
  00402	0f 85 e0 fe ff
	ff		 jne	 $LN37@IsEquipAbl
$LN36@IsEquipAbl:
  00408	5f		 pop	 edi

; 1711 : 		return FALSE;
; 1712 : #else // __CROSSBOW
; 1713 : 	if( pItemProp->dwItemKind3 == IK3_ARROW && ( pHandItemProp == NULL || pHandItemProp->dwItemKind3 != IK3_BOW ) )
; 1714 : 		return FALSE;	
; 1715 : #endif // __CROSSBOW
; 1716 : 	return TRUE;
; 1717 : }

  00409	5e		 pop	 esi
  0040a	b8 01 00 00 00	 mov	 eax, 1
  0040f	5b		 pop	 ebx
  00410	8b e5		 mov	 esp, ebp
  00412	5d		 pop	 ebp
  00413	c2 08 00	 ret	 8
$LN34@IsEquipAbl:

; 1709 : 		return FALSE;		
; 1710 : 	if( pItemProp->dwItemKind3 == IK3_CROSSARROW && ( pHandItemProp == NULL || pHandItemProp->dwItemKind3 != IK3_CROSSBOW ))

  00416	3d 95 00 00 00	 cmp	 eax, 149		; 00000095H
  0041b	75 eb		 jne	 SHORT $LN36@IsEquipAbl
  0041d	85 db		 test	 ebx, ebx
  0041f	0f 84 c3 fe ff
	ff		 je	 $LN37@IsEquipAbl
  00425	33 c0		 xor	 eax, eax
  00427	83 7b 78 0e	 cmp	 DWORD PTR [ebx+120], 14	; 0000000eH
  0042b	5f		 pop	 edi

; 1711 : 		return FALSE;
; 1712 : #else // __CROSSBOW
; 1713 : 	if( pItemProp->dwItemKind3 == IK3_ARROW && ( pHandItemProp == NULL || pHandItemProp->dwItemKind3 != IK3_BOW ) )
; 1714 : 		return FALSE;	
; 1715 : #endif // __CROSSBOW
; 1716 : 	return TRUE;
; 1717 : }

  0042c	5e		 pop	 esi
  0042d	0f 94 c0	 sete	 al
  00430	5b		 pop	 ebx
  00431	8b e5		 mov	 esp, ebp
  00433	5d		 pop	 ebp
  00434	c2 08 00	 ret	 8
?IsEquipAble@CMover@@QAEHPAVCItemElem@@H@Z ENDP		; CMover::IsEquipAble
_TEXT	ENDS
; Function compile flags: /Ogtp
; File C:\IAGOS\server\v18\Source\Source\_common\MoverEquip.cpp
; File C:\IAGOS\server\v18\Source\Source\_Common\Project.h
; File C:\IAGOS\server\v18\Source\Source\_common\MoverEquip.cpp
; File C:\IAGOS\server\v18\Source\Source\_Common\Item.h
; File C:\IAGOS\server\v18\Source\Source\_Common\Project.h
; File C:\IAGOS\server\v18\Source\Source\_Common\data.h
; File C:\IAGOS\server\v18\Source\Source\_Common\Project.h
; File C:\IAGOS\server\v18\Source\Source\_Common\Mover.h
; File C:\IAGOS\server\v18\Source\Source\_common\MoverEquip.cpp
; File C:\IAGOS\server\v18\Source\Source\_Common\Item.h
; File C:\IAGOS\server\v18\Source\Source\_common\MoverEquip.cpp
; File C:\IAGOS\server\v18\Source\Source\_Common\Item.h
; File C:\IAGOS\server\v18\Source\Source\_common\MoverEquip.cpp
; File C:\IAGOS\server\v18\Source\Source\_Common\Item.h
; File C:\IAGOS\server\v18\Source\Source\_common\MoverEquip.cpp
; File C:\IAGOS\server\v18\Source\Source\_Common\Item.h
; File C:\IAGOS\server\v18\Source\Source\_common\MoverEquip.cpp
; File C:\IAGOS\server\v18\Source\Source\_Common\Item.h
; File C:\IAGOS\server\v18\Source\Source\_common\MoverEquip.cpp
; File C:\IAGOS\server\v18\Source\Source\_Common\Item.h
; File C:\IAGOS\server\v18\Source\Source\_common\MoverEquip.cpp
; File C:\IAGOS\server\v18\Source\Source\_Common\Item.h
; File C:\IAGOS\server\v18\Source\Source\_common\MoverEquip.cpp
; File C:\IAGOS\server\v18\Source\Source\_Common\Item.h
; File C:\IAGOS\server\v18\Source\Source\_common\MoverEquip.cpp
; File C:\IAGOS\server\v18\Source\Source\_AIInterface\Action.h
; File C:\IAGOS\server\v18\Source\Source\_common\MoverEquip.cpp
; File C:\IAGOS\server\v18\Source\Source\_Common\Mover.h
; File C:\IAGOS\server\v18\Source\Source\_common\MoverEquip.cpp
; File C:\IAGOS\server\v18\Source\Source\_Common\Mover.h
; File C:\IAGOS\server\v18\Source\Source\_common\MoverEquip.cpp
; File C:\IAGOS\server\v18\Source\Source\_Common\Mover.h
; File C:\IAGOS\server\v18\Source\Source\_common\MoverEquip.cpp
; File C:\IAGOS\server\v18\Source\Source\_Common\Mover.h
; File C:\IAGOS\server\v18\Source\Source\_common\MoverEquip.cpp
; File C:\IAGOS\server\v18\Source\Source\_Common\Mover.h
; File C:\IAGOS\server\v18\Source\Source\_common\MoverEquip.cpp
; File C:\IAGOS\server\v18\Source\Source\_Common\Mover.h
; File C:\IAGOS\server\v18\Source\Source\_common\MoverEquip.cpp
; File C:\IAGOS\server\v18\Source\Source\_Common\Mover.h
; File C:\IAGOS\server\v18\Source\Source\_common\MoverEquip.cpp
; File C:\IAGOS\server\v18\Source\Source\_Common\Mover.h
; File C:\IAGOS\server\v18\Source\Source\_common\MoverEquip.cpp
;	COMDAT ?DoEquip@CMover@@QAEHPAVCItemElem@@HH@Z
_TEXT	SEGMENT
_equipInfo$ = -12					; size = 12
_pItemElem$ = 8						; size = 4
_bResult$1$ = 8						; size = 4
_bEquip$ = 12						; size = 4
_nPart$ = 16						; size = 4
?DoEquip@CMover@@QAEHPAVCItemElem@@HH@Z PROC		; CMover::DoEquip, COMDAT
; _this$ = ecx

; 1748 : {

  00000	55		 push	 ebp
  00001	8b ec		 mov	 ebp, esp
; File C:\IAGOS\server\v18\Source\Source\_Common\Project.h

; 1389 : 	VERIFY_RANGE_ASSERT( nIndex, 0, m_aPropItem.GetSize(), "GetItemProp range_error", NULL );

  00003	a1 40 02 00 00	 mov	 eax, DWORD PTR ?prj@@3VCProject@@A+576
; File C:\IAGOS\server\v18\Source\Source\_common\MoverEquip.cpp

; 1748 : {

  00008	83 ec 0c	 sub	 esp, 12			; 0000000cH
  0000b	53		 push	 ebx
  0000c	8b 5d 08	 mov	 ebx, DWORD PTR _pItemElem$[ebp]
  0000f	56		 push	 esi
  00010	8b f1		 mov	 esi, ecx
  00012	57		 push	 edi
; File C:\IAGOS\server\v18\Source\Source\_Common\Item.h

; 230  : 	ItemProp*	GetProp()	{	return prj.GetItemProp( m_dwItemId );	}

  00013	8b 4b 0c	 mov	 ecx, DWORD PTR [ebx+12]
; File C:\IAGOS\server\v18\Source\Source\_Common\Project.h

; 1389 : 	VERIFY_RANGE_ASSERT( nIndex, 0, m_aPropItem.GetSize(), "GetItemProp range_error", NULL );

  00016	85 c9		 test	 ecx, ecx
  00018	78 10		 js	 SHORT $LN78@DoEquip
  0001a	3b c8		 cmp	 ecx, eax
  0001c	7d 0c		 jge	 SHORT $LN78@DoEquip
; File C:\IAGOS\server\v18\Source\Source\_Common\data.h

; 270  : 	if( dwIndex >= (DWORD)m_nMaxIndex )

  0001e	73 20		 jae	 SHORT $LN109@DoEquip

; 271  : 		return NULL;
; 272  : 	return (T*) m_apOffset[ dwIndex ];

  00020	a1 30 02 00 00	 mov	 eax, DWORD PTR ?prj@@3VCProject@@A+560
  00025	8b 3c 88	 mov	 edi, DWORD PTR [eax+ecx*4]
; File C:\IAGOS\server\v18\Source\Source\_Common\Project.h

; 1390 : 	return m_aPropItem.GetAt( nIndex ); 

  00028	eb 18		 jmp	 SHORT $LN25@DoEquip
$LN78@DoEquip:

; 579  : 	LPCTSTR szErr = Error( _T( "%s min:%d, max:%d, index:%d" ), szMsg, nMin, nMax, nIndex ); 

  0002a	51		 push	 ecx
  0002b	50		 push	 eax
  0002c	6a 00		 push	 0
  0002e	68 00 00 00 00	 push	 OFFSET ??_C@_0BI@BEIFNGEL@GetItemProp?5range_error@
  00033	68 00 00 00 00	 push	 OFFSET ??_C@_0BM@HMFGHCP@?$CFs?5min?3?$CFd?0?5max?3?$CFd?0?5index?3?$CFd@
  00038	e8 00 00 00 00	 call	 ?Error@@YAPBDPBDZZ	; Error
  0003d	83 c4 14	 add	 esp, 20			; 00000014H
$LN109@DoEquip:
; File C:\IAGOS\server\v18\Source\Source\_Common\Mover.h

; 1250 : 	BOOL			IsDie() { return m_pActMover->IsDie() || m_nHitPoint == 0; }

  00040	33 ff		 xor	 edi, edi
$LN25@DoEquip:
  00042	8b 86 38 02 00
	00		 mov	 eax, DWORD PTR [esi+568]
  00048	f7 40 04 00 00
	00 08		 test	 DWORD PTR [eax+4], 134217728 ; 08000000H
  0004f	0f 85 e8 01 00
	00		 jne	 $LN82@DoEquip
  00055	83 be f8 05 00
	00 00		 cmp	 DWORD PTR [esi+1528], 0
  0005c	0f 84 db 01 00
	00		 je	 $LN82@DoEquip
; File C:\IAGOS\server\v18\Source\Source\_common\MoverEquip.cpp

; 1756 : 	if( bEquip )

  00062	83 7d 0c 00	 cmp	 DWORD PTR _bEquip$[ebp], 0
  00066	74 3d		 je	 SHORT $LN3@DoEquip

; 1757 : 	{
; 1758 : 		if( pItemProp->dwParts == PARTS_RIDE && m_Inventory.GetEquip( PARTS_RIDE ) )

  00068	83 bf a8 00 00
	00 0d		 cmp	 DWORD PTR [edi+168], 13	; 0000000dH
  0006f	75 28		 jne	 SHORT $LN79@DoEquip
  00071	6a 0d		 push	 13			; 0000000dH
  00073	8d 8e fc 0a 00
	00		 lea	 ecx, DWORD PTR [esi+2812]
  00079	e8 00 00 00 00	 call	 ?GetEquip@?$CItemContainer@VCItemElem@@@@QAEPAVCItemElem@@K@Z ; CItemContainer<CItemElem>::GetEquip
  0007e	85 c0		 test	 eax, eax
  00080	0f 85 b7 01 00
	00		 jne	 $LN82@DoEquip

; 1760 : 		if( pItemProp->dwParts == PARTS_RIDE && pItemElem && pItemElem->IsFlag( CItemElem::expired ) )

  00086	83 bf a8 00 00
	00 0d		 cmp	 DWORD PTR [edi+168], 13	; 0000000dH
  0008d	75 0a		 jne	 SHORT $LN79@DoEquip
; File C:\IAGOS\server\v18\Source\Source\_Common\Item.h

; 257  : 	BOOL	IsFlag( BYTE byFlag )	{	return ( m_byFlag & byFlag ) ? TRUE: FALSE;		}

  0008f	f6 43 76 01	 test	 BYTE PTR [ebx+118], 1
; File C:\IAGOS\server\v18\Source\Source\_common\MoverEquip.cpp

; 1760 : 		if( pItemProp->dwParts == PARTS_RIDE && pItemElem && pItemElem->IsFlag( CItemElem::expired ) )

  00093	0f 85 a4 01 00
	00		 jne	 $LN82@DoEquip
$LN79@DoEquip:

; 1761 : 			return FALSE;
; 1762 : #if __VER >= 11 // __SYS_IDENTIFY
; 1763 : 		if( IsEquipAble( pItemElem ) == FALSE )

  00099	6a 00		 push	 0
  0009b	53		 push	 ebx
  0009c	8b ce		 mov	 ecx, esi
  0009e	e8 00 00 00 00	 call	 ?IsEquipAble@CMover@@QAEHPAVCItemElem@@H@Z ; CMover::IsEquipAble

; 1764 : 			return FALSE;
; 1765 : #else	// __SYS_IDENTIFY
; 1766 : 		if( IsEquipAble( pItemProp, pItemElem->m_dwObjId ) == FALSE )
; 1767 : 			return FALSE;
; 1768 : #endif	// __SYS_IDENTIFY
; 1769 : 	}

  000a3	eb 08		 jmp	 SHORT $LN112@DoEquip
$LN3@DoEquip:

; 1770 : 	else
; 1771 : 	{
; 1772 : 		if( IsUnEquipAble( pItemProp ) == FALSE )

  000a5	57		 push	 edi
  000a6	8b ce		 mov	 ecx, esi
  000a8	e8 00 00 00 00	 call	 ?IsUnEquipAble@CMover@@QAEHPAUItemProp@@@Z ; CMover::IsUnEquipAble
$LN112@DoEquip:

; 1773 : 			return FALSE;
; 1774 : 	}
; 1775 : 
; 1776 : 	EQUIP_INFO equipInfo;
; 1777 : 	equipInfo.dwId	= pItemElem->m_dwItemId;

  000ad	85 c0		 test	 eax, eax
  000af	0f 84 88 01 00
	00		 je	 $LN82@DoEquip
  000b5	8b 43 0c	 mov	 eax, DWORD PTR [ebx+12]
  000b8	8d 96 fc 0a 00
	00		 lea	 edx, DWORD PTR [esi+2812]
; File C:\IAGOS\server\v18\Source\Source\_Common\Item.h

; 289  : 	int nAttr = (int)m_bItemResist;

  000be	8b 8b 80 00 00
	00		 mov	 ecx, DWORD PTR [ebx+128]
; File C:\IAGOS\server\v18\Source\Source\_common\MoverEquip.cpp

; 1780 : 	BOOL bResult = DoEquip( GetSex(), m_dwSkinSet, pItemElem, nPart, equipInfo, &m_Inventory, m_aEquipInfo, (CModelObject*)m_pModel, bEquip, this );

  000c4	56		 push	 esi
  000c5	ff 75 0c	 push	 DWORD PTR _bEquip$[ebp]
  000c8	89 45 f4	 mov	 DWORD PTR _equipInfo$[ebp], eax
; File C:\IAGOS\server\v18\Source\Source\_Common\Item.h

; 289  : 	int nAttr = (int)m_bItemResist;

  000cb	0f b6 43 7c	 movzx	 eax, BYTE PTR [ebx+124]
; File C:\IAGOS\server\v18\Source\Source\_common\MoverEquip.cpp

; 1780 : 	BOOL bResult = DoEquip( GetSex(), m_dwSkinSet, pItemElem, nPart, equipInfo, &m_Inventory, m_aEquipInfo, (CModelObject*)m_pModel, bEquip, this );

  000cf	ff b6 78 01 00
	00		 push	 DWORD PTR [esi+376]
; File C:\IAGOS\server\v18\Source\Source\_Common\Item.h

; 289  : 	int nAttr = (int)m_bItemResist;

  000d5	c1 e1 08	 shl	 ecx, 8

; 294  : 	nRet |= (nOption << 24);	// D24~D31 : 속성레벨

  000d8	0b c8		 or	 ecx, eax
; File C:\IAGOS\server\v18\Source\Source\_common\MoverEquip.cpp

; 1779 : 	equipInfo.byFlag	= pItemElem->m_byFlag;

  000da	8a 43 76	 mov	 al, BYTE PTR [ebx+118]
  000dd	88 45 fc	 mov	 BYTE PTR _equipInfo$[ebp+8], al

; 1780 : 	BOOL bResult = DoEquip( GetSex(), m_dwSkinSet, pItemElem, nPart, equipInfo, &m_Inventory, m_aEquipInfo, (CModelObject*)m_pModel, bEquip, this );

  000e0	8d 86 24 0b 00
	00		 lea	 eax, DWORD PTR [esi+2852]
  000e6	50		 push	 eax
  000e7	52		 push	 edx
  000e8	8d 45 f4	 lea	 eax, DWORD PTR _equipInfo$[ebp]
; File C:\IAGOS\server\v18\Source\Source\_Common\Item.h

; 294  : 	nRet |= (nOption << 24);	// D24~D31 : 속성레벨

  000eb	c1 e1 10	 shl	 ecx, 16			; 00000010H
  000ee	0b 4b 64	 or	 ecx, DWORD PTR [ebx+100]
; File C:\IAGOS\server\v18\Source\Source\_common\MoverEquip.cpp

; 1780 : 	BOOL bResult = DoEquip( GetSex(), m_dwSkinSet, pItemElem, nPart, equipInfo, &m_Inventory, m_aEquipInfo, (CModelObject*)m_pModel, bEquip, this );

  000f1	50		 push	 eax
  000f2	ff 75 10	 push	 DWORD PTR _nPart$[ebp]
  000f5	0f b6 86 18 06
	00 00		 movzx	 eax, BYTE PTR [esi+1560]
  000fc	53		 push	 ebx
  000fd	ff b6 1c 06 00
	00		 push	 DWORD PTR [esi+1564]
  00103	89 4d f8	 mov	 DWORD PTR _equipInfo$[ebp+4], ecx
  00106	50		 push	 eax
  00107	e8 00 00 00 00	 call	 ?DoEquip@CMover@@SAHHHPAVCItemElem@@HABU_EQUIP_INFO@@PAV?$CItemContainer@VCItemElem@@@@PAU3@PAVCModelObject@@HPAV1@@Z ; CMover::DoEquip
  0010c	83 c4 28	 add	 esp, 40			; 00000028H
  0010f	89 45 08	 mov	 DWORD PTR _bResult$1$[ebp], eax

; 1781 : 		
; 1782 : 	if( !bResult )	// 2004/04/27

  00112	85 c0		 test	 eax, eax
  00114	0f 84 23 01 00
	00		 je	 $LN82@DoEquip

; 1783 : 		return FALSE;
; 1784 : 
; 1785 : #ifndef __CLIENT
; 1786 : 	if( bEquip )

  0011a	83 7d 0c 00	 cmp	 DWORD PTR _bEquip$[ebp], 0
  0011e	8b ce		 mov	 ecx, esi
  00120	74 3d		 je	 SHORT $LN10@DoEquip

; 1787 : 	{
; 1788 : #ifdef 	__BLADELWEAPON0608	//	9th 블레이드 양손에 무기를 착용 시 추가 옵션은 오른손에 들고 있는 무기의 것만 적용이 되도록 수정
; 1789 : 		if( (pItemElem->m_dwObjIndex - m_Inventory.GetSize() ) != PARTS_LWEAPON  )	// equiped item
; 1790 : #endif	//__BLADELWEAPON0608	//	9th 블레이드 양손에 무기를 착용 시 추가 옵션은 오른손에 들고 있는 무기의 것만 적용이 되도록 수정
; 1791 : 			SetDestParamEquip( pItemProp, pItemElem );		// 장착한 장비의 DestParam설정

  00122	6a 00		 push	 0
  00124	53		 push	 ebx
  00125	57		 push	 edi
  00126	e8 00 00 00 00	 call	 ?SetDestParamEquip@CMover@@QAEXPAUItemProp@@PAVCItemElem@@H@Z ; CMover::SetDestParamEquip

; 1793 : 		if( ( pItemProp->dwFlag & IP_FLAG_EQUIP_BIND ) && !pItemElem->IsFlag( CItemElem::binds ) )

  0012b	f6 87 a4 00 00
	00 04		 test	 BYTE PTR [edi+164], 4
  00132	74 59		 je	 SHORT $LN54@DoEquip
; File C:\IAGOS\server\v18\Source\Source\_Common\Item.h

; 257  : 	BOOL	IsFlag( BYTE byFlag )	{	return ( m_byFlag & byFlag ) ? TRUE: FALSE;		}

  00134	8a 43 76	 mov	 al, BYTE PTR [ebx+118]
  00137	a8 02		 test	 al, 2
; File C:\IAGOS\server\v18\Source\Source\_common\MoverEquip.cpp

; 1793 : 		if( ( pItemProp->dwFlag & IP_FLAG_EQUIP_BIND ) && !pItemElem->IsFlag( CItemElem::binds ) )

  00139	75 52		 jne	 SHORT $LN54@DoEquip
; File C:\IAGOS\server\v18\Source\Source\_Common\Item.h

; 256  : 	void	SetFlag( BYTE byFlag )		{	m_byFlag	|= byFlag;		}

  0013b	0c 02		 or	 al, 2
; File C:\IAGOS\server\v18\Source\Source\_common\MoverEquip.cpp

; 1796 : 			UpdateItem( (BYTE)( pItemElem->m_dwObjId ), UI_FLAG, MAKELONG( pItemElem->m_dwObjIndex, pItemElem->m_byFlag ) );

  0013d	0f b6 c8	 movzx	 ecx, al
; File C:\IAGOS\server\v18\Source\Source\_Common\Item.h

; 256  : 	void	SetFlag( BYTE byFlag )		{	m_byFlag	|= byFlag;		}

  00140	88 43 76	 mov	 BYTE PTR [ebx+118], al
; File C:\IAGOS\server\v18\Source\Source\_common\MoverEquip.cpp

; 1796 : 			UpdateItem( (BYTE)( pItemElem->m_dwObjId ), UI_FLAG, MAKELONG( pItemElem->m_dwObjIndex, pItemElem->m_byFlag ) );

  00143	0f b7 43 08	 movzx	 eax, WORD PTR [ebx+8]
  00147	c1 e1 10	 shl	 ecx, 16			; 00000010H
  0014a	6a 00		 push	 0
  0014c	0b c8		 or	 ecx, eax
  0014e	0f b6 43 04	 movzx	 eax, BYTE PTR [ebx+4]
  00152	51		 push	 ecx
  00153	6a 09		 push	 9
  00155	50		 push	 eax
  00156	8b ce		 mov	 ecx, esi
  00158	e8 00 00 00 00	 call	 ?UpdateItem@CMover@@QAEXEDKK@Z ; CMover::UpdateItem

; 1797 : 		}
; 1798 : 
; 1799 : #endif // __EQUIP_BIND
; 1800 : 	}

  0015d	eb 2e		 jmp	 SHORT $LN54@DoEquip
$LN10@DoEquip:

; 1801 : 	else
; 1802 : 	if( bEquip == FALSE )
; 1803 : 	{
; 1804 : #ifdef 	__BLADELWEAPON0608	//	9th 블레이드 양손에 무기를 착용 시 추가 옵션은 오른손에 들고 있는 무기의 것만 적용이 되도록 수정
; 1805 : 		if( (pItemElem->m_dwObjIndex - m_Inventory.GetSize() ) != PARTS_LWEAPON  )	// equiped item
; 1806 : #endif	//__BLADELWEAPON0608	//	9th 블레이드 양손에 무기를 착용 시 추가 옵션은 오른손에 들고 있는 무기의 것만 적용이 되도록 수정
; 1807 : 			ResetDestParamEquip( pItemProp, pItemElem );	// 해제하는 장비의 DestParam리셋

  0015f	53		 push	 ebx
  00160	57		 push	 edi
  00161	e8 00 00 00 00	 call	 ?ResetDestParamEquip@CMover@@QAEXPAUItemProp@@PAVCItemElem@@@Z ; CMover::ResetDestParamEquip

; 1808 : 		
; 1809 : 		if( pItemProp->dwItemKind1 == IK1_WEAPON ) 

  00166	83 7f 70 01	 cmp	 DWORD PTR [edi+112], 1
  0016a	75 21		 jne	 SHORT $LN54@DoEquip
; File C:\IAGOS\server\v18\Source\Source\_AIInterface\Action.h

; 308  : 	BOOL			IsStateFlag( DWORD dwStateFlag ) { return ( m_dwStateFlag & dwStateFlag ) ? TRUE : FALSE; }

  0016c	8b 8e 38 02 00
	00		 mov	 ecx, DWORD PTR [esi+568]
  00172	f6 41 08 01	 test	 BYTE PTR [ecx+8], 1
; File C:\IAGOS\server\v18\Source\Source\_common\MoverEquip.cpp

; 1811 : 			if( m_pActMover->IsStateFlag( OBJSTAF_COMBAT ) )

  00176	74 15		 je	 SHORT $LN54@DoEquip
; File C:\IAGOS\server\v18\Source\Source\_Common\Mover.h

; 1785 : 	if( m_pActMover )	

  00178	85 c9		 test	 ecx, ecx
  0017a	74 11		 je	 SHORT $LN54@DoEquip

; 1786 : 		return m_pActMover->SendActMsg( dwMsg, nParam1, nParam2, nParam3, nParam4 );	

  0017c	8b 01		 mov	 eax, DWORD PTR [ecx]
  0017e	6a 00		 push	 0
  00180	6a 00		 push	 0
  00182	6a 00		 push	 0
  00184	6a 00		 push	 0
  00186	6a 00		 push	 0
  00188	6a 13		 push	 19			; 00000013H
  0018a	ff 50 04	 call	 DWORD PTR [eax+4]
$LN54@DoEquip:
; File C:\IAGOS\server\v18\Source\Source\_common\MoverEquip.cpp

; 1818 : 	if( pItemProp->dwParts == PARTS_RIDE )

  0018d	83 bf a8 00 00
	00 0d		 cmp	 DWORD PTR [edi+168], 13	; 0000000dH
  00194	75 76		 jne	 SHORT $LN16@DoEquip

; 1820 : 		if( bEquip )

  00196	8b 8e 38 02 00
	00		 mov	 ecx, DWORD PTR [esi+568]
; File C:\IAGOS\server\v18\Source\Source\_Common\Mover.h

; 1785 : 	if( m_pActMover )	

  0019c	85 c9		 test	 ecx, ecx
  0019e	74 1d		 je	 SHORT $LN62@DoEquip
; File C:\IAGOS\server\v18\Source\Source\_common\MoverEquip.cpp

; 1820 : 		if( bEquip )

  001a0	83 7d 0c 00	 cmp	 DWORD PTR _bEquip$[ebp], 0
  001a4	8b 01		 mov	 eax, DWORD PTR [ecx]
  001a6	6a 00		 push	 0
  001a8	6a 00		 push	 0
  001aa	6a 01		 push	 1
  001ac	6a 00		 push	 0
  001ae	74 06		 je	 SHORT $LN17@DoEquip
; File C:\IAGOS\server\v18\Source\Source\_Common\Mover.h

; 1786 : 		return m_pActMover->SendActMsg( dwMsg, nParam1, nParam2, nParam3, nParam4 );	

  001b0	ff 37		 push	 DWORD PTR [edi]
  001b2	6a 16		 push	 22			; 00000016H
; File C:\IAGOS\server\v18\Source\Source\_common\MoverEquip.cpp

; 1838 : 		}

  001b4	eb 04		 jmp	 SHORT $LN113@DoEquip
$LN17@DoEquip:
; File C:\IAGOS\server\v18\Source\Source\_Common\Mover.h

; 1786 : 		return m_pActMover->SendActMsg( dwMsg, nParam1, nParam2, nParam3, nParam4 );	

  001b6	6a 00		 push	 0
  001b8	6a 17		 push	 23			; 00000017H
$LN113@DoEquip:

; 1030 : 	void			ClearDestObj()     	{ m_idDest = NULL_ID; m_fArrivalRange = 0.0f; }

  001ba	ff 50 04	 call	 DWORD PTR [eax+4]
$LN62@DoEquip:
  001bd	c7 86 58 02 00
	00 ff ff ff ff	 mov	 DWORD PTR [esi+600], -1
; File C:\IAGOS\server\v18\Source\Source\_common\MoverEquip.cpp

; 1845 : 		memset( &m_CorrAction, 0, sizeof(CORR_ACTION) );

  001c7	8d 86 7c 02 00
	00		 lea	 eax, DWORD PTR [esi+636]
; File C:\IAGOS\server\v18\Source\Source\_Common\Mover.h

; 1030 : 	void			ClearDestObj()     	{ m_idDest = NULL_ID; m_fArrivalRange = 0.0f; }

  001cd	c7 86 54 02 00
	00 00 00 00 00	 mov	 DWORD PTR [esi+596], 0

; 1031 : 	void			ClearDestPos()		{ m_vDestPos = D3DXVECTOR3( 0.0f, 0.0f, 0.0f ); }		

  001d7	c7 86 5c 02 00
	00 00 00 00 00	 mov	 DWORD PTR [esi+604], 0
; File C:\IAGOS\server\v18\Source\Source\_common\MoverEquip.cpp

; 1845 : 		memset( &m_CorrAction, 0, sizeof(CORR_ACTION) );

  001e1	6a 50		 push	 80			; 00000050H
; File C:\IAGOS\server\v18\Source\Source\_Common\Mover.h

; 1031 : 	void			ClearDestPos()		{ m_vDestPos = D3DXVECTOR3( 0.0f, 0.0f, 0.0f ); }		

  001e3	c7 86 60 02 00
	00 00 00 00 00	 mov	 DWORD PTR [esi+608], 0
; File C:\IAGOS\server\v18\Source\Source\_common\MoverEquip.cpp

; 1845 : 		memset( &m_CorrAction, 0, sizeof(CORR_ACTION) );

  001ed	6a 00		 push	 0
; File C:\IAGOS\server\v18\Source\Source\_Common\Mover.h

; 1031 : 	void			ClearDestPos()		{ m_vDestPos = D3DXVECTOR3( 0.0f, 0.0f, 0.0f ); }		

  001ef	c7 86 64 02 00
	00 00 00 00 00	 mov	 DWORD PTR [esi+612], 0
; File C:\IAGOS\server\v18\Source\Source\_common\MoverEquip.cpp

; 1845 : 		memset( &m_CorrAction, 0, sizeof(CORR_ACTION) );

  001f9	50		 push	 eax
; File C:\IAGOS\server\v18\Source\Source\_Common\Mover.h

; 1039 : 	void			ClearDestAngle()	{ m_fDestAngle	= -1.0f; }

  001fa	c7 86 68 02 00
	00 00 00 80 bf	 mov	 DWORD PTR [esi+616], -1082130432 ; bf800000H
; File C:\IAGOS\server\v18\Source\Source\_common\MoverEquip.cpp

; 1845 : 		memset( &m_CorrAction, 0, sizeof(CORR_ACTION) );

  00204	e8 00 00 00 00	 call	 _memset
  00209	83 c4 0c	 add	 esp, 12			; 0000000cH
$LN16@DoEquip:

; 1846 : 	}
; 1847 : 
; 1848 : 	// 망토 입을때 처리.
; 1849 : 	if( bEquip )

  0020c	83 7d 0c 00	 cmp	 DWORD PTR _bEquip$[ebp], 0
  00210	74 11		 je	 SHORT $LN20@DoEquip

; 1850 : 	{
; 1851 : 		if( pItemProp->dwID == II_ARM_S_CLO_CLO_BLANK )		// 길드전용 민짜 망토.

  00212	81 3f f9 11 00
	00		 cmp	 DWORD PTR [edi], 4601	; 000011f9H
  00218	75 09		 jne	 SHORT $LN20@DoEquip

; 1852 : 		{
; 1853 : 			m_idGuildCloak = pItemElem->m_idGuild;			// 망토에 박혀있던 길드아이디를 받음.

  0021a	8b 43 78	 mov	 eax, DWORD PTR [ebx+120]
  0021d	89 86 1c 07 00
	00		 mov	 DWORD PTR [esi+1820], eax
$LN20@DoEquip:

; 1854 : #ifdef __XCLOAK
; 1855 : 			m_pCloakTexture = g_GuildTexture.LoadGuildTexture( pItemElem->m_idGuild );
; 1856 : #endif
; 1857 : 		} 
; 1858 : 		else
; 1859 : 		{
; 1860 : #ifdef __XCLOAK
; 1861 : 			m_pCloakTexture = NULL;
; 1862 : 			m_idGuildCloak = 0;			// 망토에 박혀있던 길드아이디를 받음.
; 1863 : #endif
; 1864 : 		}
; 1865 : 	}
; 1866 : 
; 1867 : 	UpdateBoundBox();

  00223	8b ce		 mov	 ecx, esi
  00225	e8 00 00 00 00	 call	 ?UpdateBoundBox@CObj@@QAEHXZ ; CObj::UpdateBoundBox

; 1868 : 	UpdateParam();

  0022a	8b ce		 mov	 ecx, esi
  0022c	e8 00 00 00 00	 call	 ?UpdateParam@CMover@@QAEXXZ ; CMover::UpdateParam

; 1869 : 
; 1870 : 	return bResult;

  00231	8b 45 08	 mov	 eax, DWORD PTR _bResult$1$[ebp]
  00234	5f		 pop	 edi

; 1871 : }

  00235	5e		 pop	 esi
  00236	5b		 pop	 ebx
  00237	8b e5		 mov	 esp, ebp
  00239	5d		 pop	 ebp
  0023a	c2 0c 00	 ret	 12			; 0000000cH
$LN82@DoEquip:
  0023d	5f		 pop	 edi
  0023e	5e		 pop	 esi
  0023f	33 c0		 xor	 eax, eax
  00241	5b		 pop	 ebx
  00242	8b e5		 mov	 esp, ebp
  00244	5d		 pop	 ebp
  00245	c2 0c 00	 ret	 12			; 0000000cH
?DoEquip@CMover@@QAEHPAVCItemElem@@HH@Z ENDP		; CMover::DoEquip
_TEXT	ENDS
; Function compile flags: /Ogtp
; File C:\IAGOS\server\v18\Source\Source\_common\MoverEquip.cpp
; File C:\IAGOS\server\v18\Source\Source\_Common\Item.h
; File C:\IAGOS\server\v18\Source\Source\_Common\Project.h
; File C:\IAGOS\server\v18\Source\Source\_common\MoverEquip.cpp
;	COMDAT ?InvalidEquipOff@CMover@@QAEHH@Z
_TEXT	SEGMENT
_this$1$ = -4						; size = 4
_bFakeParts$ = 8					; size = 4
?InvalidEquipOff@CMover@@QAEHH@Z PROC			; CMover::InvalidEquipOff, COMDAT
; _this$ = ecx

; 2096 : {

  00000	55		 push	 ebp
  00001	8b ec		 mov	 ebp, esp
  00003	51		 push	 ecx

; 2097 : 	CItemElem* pItemElem = NULL;
; 2098 : 	ItemProp* pItemProp	= NULL;
; 2099 : 	int		i;
; 2100 : 
; 2101 : 	for( i = 0; i < MAX_HUMAN_PARTS; i ++ )

  00004	8b 15 40 02 00
	00		 mov	 edx, DWORD PTR ?prj@@3VCProject@@A+576
  0000a	8b c1		 mov	 eax, ecx
  0000c	53		 push	 ebx
  0000d	56		 push	 esi
  0000e	57		 push	 edi
  0000f	89 45 fc	 mov	 DWORD PTR _this$1$[ebp], eax
  00012	8d 98 24 0b 00
	00		 lea	 ebx, DWORD PTR [eax+2852]
  00018	33 ff		 xor	 edi, edi
  0001a	66 0f 1f 44 00
	00		 npad	 6
$LL4@InvalidEqu:

; 2102 : 	{
; 2103 : 		pItemElem = NULL;		

  00020	33 f6		 xor	 esi, esi

; 2104 : 		pItemProp = NULL;
; 2105 : 
; 2106 : 		// 장착된 아이템의 프로퍼티 꺼냄.
; 2107 : 		if( bFakeParts )	// Fake 장비

  00022	39 75 08	 cmp	 DWORD PTR _bFakeParts$[ebp], esi
  00025	74 09		 je	 SHORT $LN5@InvalidEqu

; 2108 : 		{
; 2109 : 			if( m_aEquipInfo[i].dwId	== NULL_ID )	continue;

  00027	8b 0b		 mov	 ecx, DWORD PTR [ebx]
  00029	83 f9 ff	 cmp	 ecx, -1
  0002c	74 7b		 je	 SHORT $LN2@InvalidEqu

; 2110 : 			pItemProp	= prj.GetItemProp( m_aEquipInfo[i].dwId );
; 2111 : 		}

  0002e	eb 1b		 jmp	 SHORT $LN63@InvalidEqu
$LN5@InvalidEqu:

; 2112 : 		else
; 2113 : 		{
; 2114 : 			pItemElem = m_Inventory.GetEquip( i );

  00030	57		 push	 edi
  00031	8d 88 fc 0a 00
	00		 lea	 ecx, DWORD PTR [eax+2812]
  00037	e8 00 00 00 00	 call	 ?GetEquip@?$CItemContainer@VCItemElem@@@@QAEPAVCItemElem@@K@Z ; CItemContainer<CItemElem>::GetEquip
  0003c	8b f0		 mov	 esi, eax

; 2115 : 			if( pItemElem )

  0003e	85 f6		 test	 esi, esi
  00040	74 5e		 je	 SHORT $LN44@InvalidEqu
; File C:\IAGOS\server\v18\Source\Source\_Common\Item.h

; 230  : 	ItemProp*	GetProp()	{	return prj.GetItemProp( m_dwItemId );	}

  00042	8b 4e 0c	 mov	 ecx, DWORD PTR [esi+12]
; File C:\IAGOS\server\v18\Source\Source\_Common\Project.h

; 1389 : 	VERIFY_RANGE_ASSERT( nIndex, 0, m_aPropItem.GetSize(), "GetItemProp range_error", NULL );

  00045	8b 15 40 02 00
	00		 mov	 edx, DWORD PTR ?prj@@3VCProject@@A+576
$LN63@InvalidEqu:
; File C:\IAGOS\server\v18\Source\Source\_common\MoverEquip.cpp

; 2119 : 		if( pItemProp == NULL )	

  0004b	85 c9		 test	 ecx, ecx
  0004d	78 10		 js	 SHORT $LN33@InvalidEqu
  0004f	3b ca		 cmp	 ecx, edx
  00051	7d 0c		 jge	 SHORT $LN33@InvalidEqu
  00053	73 26		 jae	 SHORT $LN59@InvalidEqu
  00055	a1 30 02 00 00	 mov	 eax, DWORD PTR ?prj@@3VCProject@@A+560
  0005a	8b 04 88	 mov	 eax, DWORD PTR [eax+ecx*4]
  0005d	eb 1e		 jmp	 SHORT $LN28@InvalidEqu
$LN33@InvalidEqu:
  0005f	51		 push	 ecx
  00060	52		 push	 edx
  00061	6a 00		 push	 0
  00063	68 00 00 00 00	 push	 OFFSET ??_C@_0BI@BEIFNGEL@GetItemProp?5range_error@
  00068	68 00 00 00 00	 push	 OFFSET ??_C@_0BM@HMFGHCP@?$CFs?5min?3?$CFd?0?5max?3?$CFd?0?5index?3?$CFd@
  0006d	e8 00 00 00 00	 call	 ?Error@@YAPBDPBDZZ	; Error
  00072	8b 15 40 02 00
	00		 mov	 edx, DWORD PTR ?prj@@3VCProject@@A+576
  00078	83 c4 14	 add	 esp, 20			; 00000014H
$LN59@InvalidEqu:
  0007b	33 c0		 xor	 eax, eax
$LN28@InvalidEqu:
  0007d	85 c0		 test	 eax, eax
  0007f	74 25		 je	 SHORT $LN45@InvalidEqu

; 2120 : 			continue;	// 프로퍼티 없으면 실패.
; 2121 : 
; 2122 : #if __VER >= 8 // __S8_PK
; 2123 : #if __VER >= 11 // __SYS_IDENTIFY
; 2124 : 		if( IsEquipAble( pItemElem,TRUE ) == FALSE )	// 장착할 수 없는 아이템이다.

  00081	8b 4d fc	 mov	 ecx, DWORD PTR _this$1$[ebp]
  00084	6a 01		 push	 1
  00086	56		 push	 esi
  00087	e8 00 00 00 00	 call	 ?IsEquipAble@CMover@@QAEHPAVCItemElem@@H@Z ; CMover::IsEquipAble
  0008c	85 c0		 test	 eax, eax
  0008e	75 10		 jne	 SHORT $LN44@InvalidEqu

; 2125 : #else	// __SYS_IDENTIFY
; 2126 : 		if( IsEquipAble( pItemProp, pItemElem->m_dwObjId, TRUE ) == FALSE )	// 장착할 수 없는 아이템이다.
; 2127 : #endif	// __SYS_IDENTIFY
; 2128 : #else	// __S8_PK
; 2129 : 		if( IsEquipAble( pItemProp, pItemElem->m_dwObjId) == FALSE )	// 장착할 수 없는 아이템이다.
; 2130 : #endif	// __S8_PK
; 2131 : 		{
; 2132 : 			if( pItemElem )

  00090	85 f6		 test	 esi, esi
  00092	74 0c		 je	 SHORT $LN44@InvalidEqu

; 2133 : 			{
; 2134 : 				if( DoEquip( pItemElem, FALSE ) == FALSE )		// 벗김.

  00094	8b 4d fc	 mov	 ecx, DWORD PTR _this$1$[ebp]
  00097	6a ff		 push	 -1
  00099	50		 push	 eax
  0009a	56		 push	 esi
  0009b	e8 00 00 00 00	 call	 ?DoEquip@CMover@@QAEHPAVCItemElem@@HH@Z ; CMover::DoEquip
$LN44@InvalidEqu:

; 2097 : 	CItemElem* pItemElem = NULL;
; 2098 : 	ItemProp* pItemProp	= NULL;
; 2099 : 	int		i;
; 2100 : 
; 2101 : 	for( i = 0; i < MAX_HUMAN_PARTS; i ++ )

  000a0	8b 15 40 02 00
	00		 mov	 edx, DWORD PTR ?prj@@3VCProject@@A+576
$LN45@InvalidEqu:
  000a6	8b 45 fc	 mov	 eax, DWORD PTR _this$1$[ebp]
$LN2@InvalidEqu:
  000a9	47		 inc	 edi
  000aa	83 c3 0c	 add	 ebx, 12			; 0000000cH
  000ad	83 ff 1f	 cmp	 edi, 31			; 0000001fH
  000b0	0f 8c 6a ff ff
	ff		 jl	 $LL4@InvalidEqu
  000b6	5f		 pop	 edi
  000b7	5e		 pop	 esi
  000b8	5b		 pop	 ebx

; 2135 : 				{
; 2136 : 				#ifdef __WORLDSERVER
; 2137 : 					// 벗기는데 실패함. 인벤이 꽉찼다거나 기타등등 이유
; 2138 : 					#ifndef _DEBUG
; 2139 : 						//Error( "Invalid Equipment Removed : %s", GetName() );
; 2140 : 					#endif
; 2141 : 				#endif
; 2142 : 				}
; 2143 : 			} 
; 2144 : 		}
; 2145 : 	} // for
; 2146 : 	
; 2147 : 	return FALSE;

  000b9	33 c0		 xor	 eax, eax

; 2148 : }

  000bb	8b e5		 mov	 esp, ebp
  000bd	5d		 pop	 ebp
  000be	c2 04 00	 ret	 4
?InvalidEquipOff@CMover@@QAEHH@Z ENDP			; CMover::InvalidEquipOff
_TEXT	ENDS
; Function compile flags: /Ogtp
; File C:\IAGOS\server\v18\Source\Source\_common\MoverEquip.cpp
; File C:\IAGOS\server\v18\Source\Source\_Common\Project.h
; File C:\IAGOS\server\v18\Source\Source\_common\MoverEquip.cpp
; File C:\IAGOS\server\v18\Source\Source\_Common\Mover.h
; File C:\IAGOS\server\v18\Source\Source\_Common\Project.h
; File C:\IAGOS\server\v18\Source\Source\_common\MoverEquip.cpp
;	COMDAT ?UpdateParts@CMover@@QAEXH@Z
_TEXT	SEGMENT
_bFakeParts$ = 8					; size = 4
?UpdateParts@CMover@@QAEXH@Z PROC			; CMover::UpdateParts, COMDAT
; _this$ = ecx

; 251  : {

  00000	55		 push	 ebp
  00001	8b ec		 mov	 ebp, esp
  00003	56		 push	 esi
  00004	8b f1		 mov	 esi, ecx
; File C:\IAGOS\server\v18\Source\Source\_Common\Project.h

; 1406 : 	VERIFY_RANGE( nIndex, 0, m_nMoverPropSize, "GetMoverProp range_error", NULL );

  00006	8b 0d b4 01 00
	00		 mov	 ecx, DWORD PTR ?prj@@3VCProject@@A+436
; File C:\IAGOS\server\v18\Source\Source\_common\MoverEquip.cpp

; 251  : {

  0000c	57		 push	 edi
; File C:\IAGOS\server\v18\Source\Source\_Common\Mover.h

; 1020 : 	MoverProp*		GetProp() { return prj.GetMoverProp( m_dwIndex ); }	// 객체의 프로퍼티 얻기 	

  0000d	33 ff		 xor	 edi, edi
  0000f	39 7d 08	 cmp	 DWORD PTR _bFakeParts$[ebp], edi
  00012	8d 86 fc 0a 00
	00		 lea	 eax, DWORD PTR [esi+2812]
  00018	0f 44 f8	 cmove	 edi, eax
  0001b	8b 86 74 01 00
	00		 mov	 eax, DWORD PTR [esi+372]
; File C:\IAGOS\server\v18\Source\Source\_Common\Project.h

; 1406 : 	VERIFY_RANGE( nIndex, 0, m_nMoverPropSize, "GetMoverProp range_error", NULL );

  00021	85 c0		 test	 eax, eax
  00023	78 12		 js	 SHORT $LN12@UpdatePart
  00025	3b c1		 cmp	 eax, ecx
  00027	7d 0e		 jge	 SHORT $LN12@UpdatePart

; 1407 : 	return m_pPropMover + nIndex;

  00029	69 c0 90 06 00
	00		 imul	 eax, eax, 1680
  0002f	03 05 b8 01 00
	00		 add	 eax, DWORD PTR ?prj@@3VCProject@@A+440
  00035	eb 18		 jmp	 SHORT $LN7@UpdatePart
$LN12@UpdatePart:

; 579  : 	LPCTSTR szErr = Error( _T( "%s min:%d, max:%d, index:%d" ), szMsg, nMin, nMax, nIndex ); 

  00037	50		 push	 eax
  00038	51		 push	 ecx
  00039	6a 00		 push	 0
  0003b	68 00 00 00 00	 push	 OFFSET ??_C@_0BJ@GKPOBPPI@GetMoverProp?5range_error@
  00040	68 00 00 00 00	 push	 OFFSET ??_C@_0BM@HMFGHCP@?$CFs?5min?3?$CFd?0?5max?3?$CFd?0?5index?3?$CFd@
  00045	e8 00 00 00 00	 call	 ?Error@@YAPBDPBDZZ	; Error
  0004a	83 c4 14	 add	 esp, 20			; 00000014H

; 1406 : 	VERIFY_RANGE( nIndex, 0, m_nMoverPropSize, "GetMoverProp range_error", NULL );

  0004d	33 c0		 xor	 eax, eax
$LN7@UpdatePart:
; File C:\IAGOS\server\v18\Source\Source\_common\MoverEquip.cpp

; 252  : 	UpdateParts( GetSex(), m_dwSkinSet, m_dwFace, m_dwHairMesh, m_dwHeadMesh, 

  0004f	56		 push	 esi
  00050	ff b0 98 00 00
	00		 push	 DWORD PTR [eax+152]
  00056	8d 86 24 0b 00
	00		 lea	 eax, DWORD PTR [esi+2852]
  0005c	57		 push	 edi
  0005d	ff b6 78 01 00
	00		 push	 DWORD PTR [esi+376]
  00063	50		 push	 eax
  00064	ff b6 2c 06 00
	00		 push	 DWORD PTR [esi+1580]
  0006a	0f b6 86 18 06
	00 00		 movzx	 eax, BYTE PTR [esi+1560]
  00071	ff b6 24 06 00
	00		 push	 DWORD PTR [esi+1572]
  00077	ff b6 20 06 00
	00		 push	 DWORD PTR [esi+1568]
  0007d	ff b6 1c 06 00
	00		 push	 DWORD PTR [esi+1564]
  00083	50		 push	 eax
  00084	e8 00 00 00 00	 call	 ?UpdateParts@CMover@@SAXHHHHHPAU_EQUIP_INFO@@PAVCModelObject@@PAV?$CItemContainer@VCItemElem@@@@HPAV1@@Z ; CMover::UpdateParts

; 253  : 		m_aEquipInfo, (CModelObject*)m_pModel, bFakeParts ? NULL : &m_Inventory, GetProp()->bIfParts, this );
; 254  : 	((CModelObject*)m_pModel)->RestoreDeviceObjects();

  00089	8b 8e 78 01 00
	00		 mov	 ecx, DWORD PTR [esi+376]
  0008f	83 c4 28	 add	 esp, 40			; 00000028H
  00092	8b 01		 mov	 eax, DWORD PTR [ecx]
  00094	ff 50 5c	 call	 DWORD PTR [eax+92]

; 255  : 	UpdateBoundBox();

  00097	8b ce		 mov	 ecx, esi
  00099	e8 00 00 00 00	 call	 ?UpdateBoundBox@CObj@@QAEHXZ ; CObj::UpdateBoundBox

; 256  : 	UpdateParam();

  0009e	8b ce		 mov	 ecx, esi
  000a0	e8 00 00 00 00	 call	 ?UpdateParam@CMover@@QAEXXZ ; CMover::UpdateParam
  000a5	5f		 pop	 edi
  000a6	5e		 pop	 esi

; 257  : }

  000a7	5d		 pop	 ebp
  000a8	c2 04 00	 ret	 4
?UpdateParts@CMover@@QAEXH@Z ENDP			; CMover::UpdateParts
_TEXT	ENDS
; Function compile flags: /Ogtp
; File C:\IAGOS\server\v18\Source\Source\_common\MoverEquip.cpp
; File C:\IAGOS\server\v18\Source\Source\_Common\Item.h
; File C:\IAGOS\server\v18\Source\Source\_common\MoverEquip.cpp
; File C:\IAGOS\server\v18\Source\Source\_AIInterface\Action.h
; File C:\IAGOS\server\v18\Source\Source\_common\MoverEquip.cpp
; File C:\IAGOS\server\v18\Source\Source\_Common\Mover.h
; File C:\IAGOS\server\v18\Source\Source\_common\MoverEquip.cpp
; File C:\IAGOS\server\v18\Source\Source\_Common\Item.h
; File C:\IAGOS\server\v18\Source\Source\_common\MoverEquip.cpp
; File C:\IAGOS\server\v18\Source\Source\_Common\Item.h
; File C:\IAGOS\server\v18\Source\Source\_common\MoverEquip.cpp
; File C:\IAGOS\server\v18\Source\Source\_Common\Item.h
; File C:\IAGOS\server\v18\Source\Source\_common\MoverEquip.cpp
; File C:\IAGOS\server\v18\Source\Source\_Common\Item.h
; File C:\IAGOS\server\v18\Source\Source\_common\MoverEquip.cpp
; File C:\IAGOS\server\v18\Source\Source\_AIInterface\Action.h
; File C:\IAGOS\server\v18\Source\Source\_common\MoverEquip.cpp
; File C:\IAGOS\server\v18\Source\Source\_Common\Mover.h
; File C:\IAGOS\server\v18\Source\Source\_common\MoverEquip.cpp
;	COMDAT ?RedoEquip@CMover@@QAEXHH@Z
_TEXT	SEGMENT
_pItemElem$1$ = -4					; size = 4
_fFakeParts$ = 8					; size = 4
_bDestParam$ = 12					; size = 4
?RedoEquip@CMover@@QAEXHH@Z PROC			; CMover::RedoEquip, COMDAT
; _this$ = ecx

; 1944 : {

  00000	55		 push	 ebp
  00001	8b ec		 mov	 ebp, esp
  00003	51		 push	 ecx
  00004	53		 push	 ebx
  00005	56		 push	 esi
  00006	57		 push	 edi
  00007	8b f9		 mov	 edi, ecx

; 1945 : 	CItemElem* pItemElem = NULL;
; 1946 : 	ItemProp* pItemProp	= NULL;
; 1947 : 	BOOL bEquip;
; 1948 : 
; 1949 : 	// 장착될 아이템의 선 처리 
; 1950 : 	for( int i = 0; i < MAX_HUMAN_PARTS; i++ )

  00009	33 f6		 xor	 esi, esi
$LN121@RedoEquip:

; 1951 : 	{
; 1952 : 		bEquip	= fFakeParts? ( m_aEquipInfo[i].dwId != NULL_ID ) : ( m_Inventory.GetEquip( i ) != NULL );

  0000b	8d 97 fc 0a 00
	00		 lea	 edx, DWORD PTR [edi+2812]
$LL84@RedoEquip:
  00011	8b 4d 08	 mov	 ecx, DWORD PTR _fFakeParts$[ebp]
  00014	8d 1c 76	 lea	 ebx, DWORD PTR [esi+esi*2]
  00017	85 c9		 test	 ecx, ecx
  00019	74 0f		 je	 SHORT $LN31@RedoEquip
  0001b	33 c0		 xor	 eax, eax
  0001d	83 bc 9f 24 0b
	00 00 ff	 cmp	 DWORD PTR [edi+ebx*4+2852], -1
  00025	0f 95 c0	 setne	 al
  00028	eb 17		 jmp	 SHORT $LN32@RedoEquip
$LN31@RedoEquip:
  0002a	56		 push	 esi
  0002b	8b ca		 mov	 ecx, edx
  0002d	e8 00 00 00 00	 call	 ?GetEquip@?$CItemContainer@VCItemElem@@@@QAEPAVCItemElem@@K@Z ; CItemContainer<CItemElem>::GetEquip
  00032	8b 4d 08	 mov	 ecx, DWORD PTR _fFakeParts$[ebp]
  00035	8d 97 fc 0a 00
	00		 lea	 edx, DWORD PTR [edi+2812]
  0003b	f7 d8		 neg	 eax
  0003d	1b c0		 sbb	 eax, eax
  0003f	f7 d8		 neg	 eax
$LN32@RedoEquip:

; 1953 : 		if( bEquip )

  00041	85 c0		 test	 eax, eax
  00043	0f 84 05 02 00
	00		 je	 $LN5@RedoEquip

; 1954 : 		{
; 1955 : 			pItemElem = NULL;			pItemProp = NULL;

  00049	c7 45 fc 00 00
	00 00		 mov	 DWORD PTR _pItemElem$1$[ebp], 0

; 1956 : 			
; 1957 : 			// 장착된 아이템의 프로퍼티 꺼냄.
; 1958 : 			if( !fFakeParts )	// 진짜 장비냐.

  00050	85 c9		 test	 ecx, ecx
  00052	75 18		 jne	 SHORT $LN7@RedoEquip

; 1959 : 			{
; 1960 : 				pItemElem	= m_Inventory.GetEquip( i );

  00054	56		 push	 esi
  00055	8b ca		 mov	 ecx, edx
  00057	e8 00 00 00 00	 call	 ?GetEquip@?$CItemContainer@VCItemElem@@@@QAEPAVCItemElem@@K@Z ; CItemContainer<CItemElem>::GetEquip
  0005c	89 45 fc	 mov	 DWORD PTR _pItemElem$1$[ebp], eax

; 1961 : 				if( NULL != pItemElem )

  0005f	85 c0		 test	 eax, eax
  00061	0f 84 31 01 00
	00		 je	 $LN10@RedoEquip
; File C:\IAGOS\server\v18\Source\Source\_Common\Item.h

; 230  : 	ItemProp*	GetProp()	{	return prj.GetItemProp( m_dwItemId );	}

  00067	8b 48 0c	 mov	 ecx, DWORD PTR [eax+12]
; File C:\IAGOS\server\v18\Source\Source\_common\MoverEquip.cpp

; 1984 : 			}

  0006a	eb 07		 jmp	 SHORT $LN125@RedoEquip
$LN7@RedoEquip:

; 1985 : 			else
; 1986 : 			{
; 1987 : 				pItemProp	= prj.GetItemProp( m_aEquipInfo[i].dwId );

  0006c	8b 8c 9f 24 0b
	00 00		 mov	 ecx, DWORD PTR [edi+ebx*4+2852]
$LN125@RedoEquip:

; 1988 : 			}
; 1989 : 
; 1990 : 			
; 1991 : 				
; 1992 : 			if( ( pItemProp != NULL && pItemProp->dwID > 0 && 
; 1993 : 				( pItemProp->dwParts == i || pItemProp->dwPartsub == i || 
; 1994 : 				  (pItemProp->dwParts == PARTS_RWEAPON && i == PARTS_LWEAPON) )		// RWEAPON은 LWEAPON과 같은것으로 친다.
; 1995 : 				) &&

  00073	85 c9		 test	 ecx, ecx
  00075	78 14		 js	 SHORT $LN52@RedoEquip
  00077	3b 0d 40 02 00
	00		 cmp	 ecx, DWORD PTR ?prj@@3VCProject@@A+576
  0007d	7d 0c		 jge	 SHORT $LN52@RedoEquip
  0007f	73 25		 jae	 SHORT $LN120@RedoEquip
  00081	a1 30 02 00 00	 mov	 eax, DWORD PTR ?prj@@3VCProject@@A+560
  00086	8b 1c 88	 mov	 ebx, DWORD PTR [eax+ecx*4]
  00089	eb 1d		 jmp	 SHORT $LN47@RedoEquip
$LN52@RedoEquip:
  0008b	51		 push	 ecx
  0008c	ff 35 40 02 00
	00		 push	 DWORD PTR ?prj@@3VCProject@@A+576
  00092	6a 00		 push	 0
  00094	68 00 00 00 00	 push	 OFFSET ??_C@_0BI@BEIFNGEL@GetItemProp?5range_error@
  00099	68 00 00 00 00	 push	 OFFSET ??_C@_0BM@HMFGHCP@?$CFs?5min?3?$CFd?0?5max?3?$CFd?0?5index?3?$CFd@
  0009e	e8 00 00 00 00	 call	 ?Error@@YAPBDPBDZZ	; Error
  000a3	83 c4 14	 add	 esp, 20			; 00000014H
$LN120@RedoEquip:
  000a6	33 db		 xor	 ebx, ebx
$LN47@RedoEquip:
  000a8	85 db		 test	 ebx, ebx
  000aa	0f 84 e8 00 00
	00		 je	 $LN10@RedoEquip
  000b0	83 3b 00	 cmp	 DWORD PTR [ebx], 0
  000b3	0f 86 df 00 00
	00		 jbe	 $LN10@RedoEquip
  000b9	8b 83 a8 00 00
	00		 mov	 eax, DWORD PTR [ebx+168]
  000bf	3b c6		 cmp	 eax, esi
  000c1	74 1a		 je	 SHORT $LN12@RedoEquip
  000c3	39 b3 ac 00 00
	00		 cmp	 DWORD PTR [ebx+172], esi
  000c9	74 12		 je	 SHORT $LN12@RedoEquip
  000cb	83 f8 0a	 cmp	 eax, 10			; 0000000aH
  000ce	0f 85 c4 00 00
	00		 jne	 $LN10@RedoEquip
  000d4	83 fe 09	 cmp	 esi, 9
  000d7	0f 85 bb 00 00
	00		 jne	 $LN10@RedoEquip
$LN12@RedoEquip:
  000dd	83 7d 08 00	 cmp	 DWORD PTR _fFakeParts$[ebp], 0
  000e1	75 19		 jne	 SHORT $LN13@RedoEquip
  000e3	8b 45 fc	 mov	 eax, DWORD PTR _pItemElem$1$[ebp]
  000e6	8d 8f fc 0a 00
	00		 lea	 ecx, DWORD PTR [edi+2812]
  000ec	ff 70 04	 push	 DWORD PTR [eax+4]
  000ef	e8 00 00 00 00	 call	 ?IsEquip@?$CItemContainer@VCItemElem@@@@QAEHK@Z ; CItemContainer<CItemElem>::IsEquip
  000f4	85 c0		 test	 eax, eax
  000f6	0f 84 9c 00 00
	00		 je	 $LN10@RedoEquip
$LN13@RedoEquip:

; 1996 : 				( fFakeParts || m_Inventory.IsEquip( pItemElem->m_dwObjId ) ) )
; 1997 : 			{
; 1998 : 				// 빗자루를 장착할껀데
; 1999 : 				if( i == PARTS_RIDE )

  000fc	83 fe 0d	 cmp	 esi, 13			; 0000000dH
  000ff	75 32		 jne	 SHORT $LN16@RedoEquip
; File C:\IAGOS\server\v18\Source\Source\_AIInterface\Action.h

; 309  : 	BOOL			IsFly() { return (m_dwStateFlag & OBJSTAF_FLY) ? TRUE : FALSE; }

  00101	8b 8f 38 02 00
	00		 mov	 ecx, DWORD PTR [edi+568]
; File C:\IAGOS\server\v18\Source\Source\_common\MoverEquip.cpp

; 2001 : 					if( FALSE == m_pActMover->IsFly() )	// 비행중이 아니면

  00107	f6 41 08 08	 test	 BYTE PTR [ecx+8], 8
  0010b	75 15		 jne	 SHORT $LN62@RedoEquip
; File C:\IAGOS\server\v18\Source\Source\_Common\Mover.h

; 1785 : 	if( m_pActMover )	

  0010d	85 c9		 test	 ecx, ecx
  0010f	74 11		 je	 SHORT $LN62@RedoEquip

; 1786 : 		return m_pActMover->SendActMsg( dwMsg, nParam1, nParam2, nParam3, nParam4 );	

  00111	8b 01		 mov	 eax, DWORD PTR [ecx]
  00113	6a 00		 push	 0
  00115	6a 00		 push	 0
  00117	6a 01		 push	 1
  00119	6a 00		 push	 0
  0011b	ff 33		 push	 DWORD PTR [ebx]
  0011d	6a 16		 push	 22			; 00000016H
  0011f	ff 50 04	 call	 DWORD PTR [eax+4]
$LN62@RedoEquip:
; File C:\IAGOS\server\v18\Source\Source\_common\MoverEquip.cpp

; 2006 : 					if( m_dwRideItemIdx == 0 )	// 빗자루 ID가 없으면

  00122	83 bf e4 14 00
	00 00		 cmp	 DWORD PTR [edi+5348], 0
  00129	75 08		 jne	 SHORT $LN16@RedoEquip

; 2007 : 					{
; 2008 : //						WriteLog( "RedoEquip(): m_dwRideItemIdx	= pItemProp->dwID" );
; 2009 : 						m_dwRideItemIdx	= pItemProp->dwID;	// 값 보정.

  0012b	8b 03		 mov	 eax, DWORD PTR [ebx]
  0012d	89 87 e4 14 00
	00		 mov	 DWORD PTR [edi+5348], eax
$LN16@RedoEquip:

; 2013 : 				{
; 2014 : 					if( pItemElem )		// 서버 / 클라(액티브무버)

  00133	8b 55 fc	 mov	 edx, DWORD PTR _pItemElem$1$[ebp]
  00136	85 d2		 test	 edx, edx
  00138	74 30		 je	 SHORT $LN19@RedoEquip

; 2010 : 					}
; 2011 : 				} 
; 2012 : 				if( pItemProp->dwID == II_ARM_S_CLO_CLO_BLANK )		// 길드전용 민짜 망토.

  0013a	81 3b f9 11 00
	00		 cmp	 DWORD PTR [ebx], 4601	; 000011f9H
  00140	75 09		 jne	 SHORT $LN18@RedoEquip

; 2015 : 						m_idGuildCloak = pItemElem->m_idGuild;

  00142	8b 42 78	 mov	 eax, DWORD PTR [edx+120]
  00145	89 87 1c 07 00
	00		 mov	 DWORD PTR [edi+1820], eax
$LN18@RedoEquip:
; File C:\IAGOS\server\v18\Source\Source\_Common\Item.h

; 289  : 	int nAttr = (int)m_bItemResist;

  0014b	8b 8a 80 00 00
	00		 mov	 ecx, DWORD PTR [edx+128]
  00151	0f b6 42 7c	 movzx	 eax, BYTE PTR [edx+124]
  00155	c1 e1 08	 shl	 ecx, 8

; 294  : 	nRet |= (nOption << 24);	// D24~D31 : 속성레벨

  00158	0b c8		 or	 ecx, eax
; File C:\IAGOS\server\v18\Source\Source\_common\MoverEquip.cpp

; 2021 : 					m_aEquipInfo[i].nOption	= pItemElem->GetAttrOption();

  0015a	8d 04 76	 lea	 eax, DWORD PTR [esi+esi*2]
; File C:\IAGOS\server\v18\Source\Source\_Common\Item.h

; 294  : 	nRet |= (nOption << 24);	// D24~D31 : 속성레벨

  0015d	c1 e1 10	 shl	 ecx, 16			; 00000010H
  00160	0b 4a 64	 or	 ecx, DWORD PTR [edx+100]
; File C:\IAGOS\server\v18\Source\Source\_common\MoverEquip.cpp

; 2021 : 					m_aEquipInfo[i].nOption	= pItemElem->GetAttrOption();

  00163	89 8c 87 28 0b
	00 00		 mov	 DWORD PTR [edi+eax*4+2856], ecx
$LN19@RedoEquip:

; 2022 : 
; 2023 : 				if( bDestParam )

  0016a	83 7d 0c 00	 cmp	 DWORD PTR _bDestParam$[ebp], 0
  0016e	74 36		 je	 SHORT $LN2@RedoEquip

; 2024 : 				{
; 2025 : #ifdef 	__BLADELWEAPON0608	//	9th 블레이드 양손에 무기를 착용 시 추가 옵션은 오른손에 들고 있는 무기의 것만 적용이 되도록 수정
; 2026 : 					if( i != PARTS_LWEAPON )	// equiped item
; 2027 : #endif	//__BLADELWEAPON0608	//	9th 블레이드 양손에 무기를 착용 시 추가 옵션은 오른손에 들고 있는 무기의 것만 적용이 되도록 수정
; 2028 : 						SetDestParamEquip( pItemProp, pItemElem, TRUE );

  00170	6a 01		 push	 1
  00172	52		 push	 edx
  00173	53		 push	 ebx
  00174	8b cf		 mov	 ecx, edi
  00176	e8 00 00 00 00	 call	 ?SetDestParamEquip@CMover@@QAEXPAUItemProp@@PAVCItemElem@@H@Z ; CMover::SetDestParamEquip

; 2029 : #if __VER >= 9 // __ULTIMATE
; 2030 : 					if( i == PARTS_RWEAPON )

  0017b	83 fe 0a	 cmp	 esi, 10			; 0000000aH
  0017e	75 26		 jne	 SHORT $LN2@RedoEquip

; 2031 : 						prj.m_UltimateWeapon.SetDestParamUltimate( this, pItemElem, TRUE, PARTS_RWEAPON );

  00180	8b 45 fc	 mov	 eax, DWORD PTR _pItemElem$1$[ebp]
  00183	b9 74 96 0d 00	 mov	 ecx, OFFSET ?prj@@3VCProject@@A+890484
  00188	56		 push	 esi
  00189	6a 01		 push	 1
  0018b	50		 push	 eax
  0018c	57		 push	 edi
  0018d	e8 00 00 00 00	 call	 ?SetDestParamUltimate@CUltimateWeapon@@QAEXPAVCMover@@PAVCItemElem@@HK@Z ; CUltimateWeapon::SetDestParamUltimate
  00192	46		 inc	 esi

; 2032 : #endif // __ULTIMATE
; 2033 : 				}
; 2034 : 			}

  00193	e9 73 fe ff ff	 jmp	 $LN121@RedoEquip
$LN10@RedoEquip:

; 2035 : 			else
; 2036 : 			{
; 2037 : 				//WriteLog( "RedoEquip(): Illegal dwParts, %s, %d", m_szName, i );
; 2038 : 				m_aEquipInfo[i].dwId	= NULL_ID;

  00198	8d 04 76	 lea	 eax, DWORD PTR [esi+esi*2]
  0019b	c7 84 87 24 0b
	00 00 ff ff ff
	ff		 mov	 DWORD PTR [edi+eax*4+2852], -1
$LN2@RedoEquip:

; 1945 : 	CItemElem* pItemElem = NULL;
; 1946 : 	ItemProp* pItemProp	= NULL;
; 1947 : 	BOOL bEquip;
; 1948 : 
; 1949 : 	// 장착될 아이템의 선 처리 
; 1950 : 	for( int i = 0; i < MAX_HUMAN_PARTS; i++ )

  001a6	46		 inc	 esi
  001a7	8d 97 fc 0a 00
	00		 lea	 edx, DWORD PTR [edi+2812]
  001ad	83 fe 1f	 cmp	 esi, 31			; 0000001fH
  001b0	0f 8c 5b fe ff
	ff		 jl	 $LL84@RedoEquip

; 2059 : 				}
; 2060 : 			}
; 2061 : 		}
; 2062 : 	}
; 2063 : 
; 2064 : 
; 2065 : 	pItemElem	= m_Inventory.GetEquip( PARTS_RWEAPON );		// 위에 루프에서 모든파츠를 이렇게 일괄적으로 넣어도 될듯 싶다.

  001b6	8d 8f fc 0a 00
	00		 lea	 ecx, DWORD PTR [edi+2812]
  001bc	6a 0a		 push	 10			; 0000000aH
  001be	e8 00 00 00 00	 call	 ?GetEquip@?$CItemContainer@VCItemElem@@@@QAEPAVCItemElem@@K@Z ; CItemContainer<CItemElem>::GetEquip

; 2066 : 	if( pItemElem )

  001c3	85 c0		 test	 eax, eax
  001c5	74 1b		 je	 SHORT $LN26@RedoEquip
; File C:\IAGOS\server\v18\Source\Source\_Common\Item.h

; 289  : 	int nAttr = (int)m_bItemResist;

  001c7	8b 90 80 00 00
	00		 mov	 edx, DWORD PTR [eax+128]
  001cd	0f b6 48 7c	 movzx	 ecx, BYTE PTR [eax+124]
  001d1	c1 e2 08	 shl	 edx, 8

; 294  : 	nRet |= (nOption << 24);	// D24~D31 : 속성레벨

  001d4	0b d1		 or	 edx, ecx
  001d6	c1 e2 10	 shl	 edx, 16			; 00000010H
  001d9	0b 50 64	 or	 edx, DWORD PTR [eax+100]
; File C:\IAGOS\server\v18\Source\Source\_common\MoverEquip.cpp

; 2068 : 		m_aEquipInfo[PARTS_RWEAPON].nOption	= pItemElem->GetAttrOption();

  001dc	89 97 a0 0b 00
	00		 mov	 DWORD PTR [edi+2976], edx
$LN26@RedoEquip:

; 2069 : 	}
; 2070 : 	pItemElem	= m_Inventory.GetEquip( PARTS_LWEAPON );

  001e2	8d 8f fc 0a 00
	00		 lea	 ecx, DWORD PTR [edi+2812]
  001e8	6a 09		 push	 9
  001ea	e8 00 00 00 00	 call	 ?GetEquip@?$CItemContainer@VCItemElem@@@@QAEPAVCItemElem@@K@Z ; CItemContainer<CItemElem>::GetEquip

; 2071 : 	if( pItemElem )

  001ef	85 c0		 test	 eax, eax
  001f1	74 1b		 je	 SHORT $LN27@RedoEquip
; File C:\IAGOS\server\v18\Source\Source\_Common\Item.h

; 289  : 	int nAttr = (int)m_bItemResist;

  001f3	8b 90 80 00 00
	00		 mov	 edx, DWORD PTR [eax+128]
  001f9	0f b6 48 7c	 movzx	 ecx, BYTE PTR [eax+124]
  001fd	c1 e2 08	 shl	 edx, 8

; 294  : 	nRet |= (nOption << 24);	// D24~D31 : 속성레벨

  00200	0b d1		 or	 edx, ecx
  00202	c1 e2 10	 shl	 edx, 16			; 00000010H
  00205	0b 50 64	 or	 edx, DWORD PTR [eax+100]
; File C:\IAGOS\server\v18\Source\Source\_common\MoverEquip.cpp

; 2073 : 		m_aEquipInfo[PARTS_LWEAPON].nOption	= pItemElem->GetAttrOption();

  00208	89 97 94 0b 00
	00		 mov	 DWORD PTR [edi+2964], edx
$LN27@RedoEquip:

; 2074 : 	}
; 2075 : 
; 2076 : 	// 아이템이 실제 장착.
; 2077 : 	UpdateParts( fFakeParts );

  0020e	8b 5d 08	 mov	 ebx, DWORD PTR _fFakeParts$[ebp]
  00211	8b cf		 mov	 ecx, edi
  00213	53		 push	 ebx
  00214	e8 00 00 00 00	 call	 ?UpdateParts@CMover@@QAEXH@Z ; CMover::UpdateParts

; 2078 : 
; 2079 : #ifdef __WORLDSERVER
; 2080 : 	InvalidEquipOff( fFakeParts );		// 장착되어설 안될 장비가 장착되어 있다면 벗김

  00219	53		 push	 ebx
  0021a	8b cf		 mov	 ecx, edi
  0021c	e8 00 00 00 00	 call	 ?InvalidEquipOff@CMover@@QAEHH@Z ; CMover::InvalidEquipOff

; 2081 : #endif
; 2082 : 
; 2083 : 	if( bDestParam )

  00221	83 7d 0c 00	 cmp	 DWORD PTR _bDestParam$[ebp], 0
  00225	74 1e		 je	 SHORT $LN28@RedoEquip

; 2084 : 	{
; 2085 : 		int nAbilityOption	= GetSetItem();

  00227	6a 00		 push	 0
  00229	8b cf		 mov	 ecx, edi
  0022b	e8 00 00 00 00	 call	 ?GetSetItem@CMover@@QAEHPAVCItemElem@@@Z ; CMover::GetSetItem

; 2086 : 		if( nAbilityOption > 0 )

  00230	85 c0		 test	 eax, eax
  00232	7e 08		 jle	 SHORT $LN29@RedoEquip

; 2087 : 			SetSetItemAvail( nAbilityOption );

  00234	50		 push	 eax
  00235	8b cf		 mov	 ecx, edi
  00237	e8 00 00 00 00	 call	 ?SetSetItemAvail@CMover@@QAEXH@Z ; CMover::SetSetItemAvail
$LN29@RedoEquip:

; 2088 : 
; 2089 : 		
; 2090 : 		SetDestParamSetItem( NULL );

  0023c	6a 00		 push	 0
  0023e	8b cf		 mov	 ecx, edi
  00240	e8 00 00 00 00	 call	 ?SetDestParamSetItem@CMover@@QAEXPAVCItemElem@@@Z ; CMover::SetDestParamSetItem
$LN28@RedoEquip:

; 2091 : 	}
; 2092 : }

  00245	5f		 pop	 edi
  00246	5e		 pop	 esi
  00247	5b		 pop	 ebx
  00248	8b e5		 mov	 esp, ebp
  0024a	5d		 pop	 ebp
  0024b	c2 08 00	 ret	 8
$LN5@RedoEquip:

; 2039 : 			}
; 2040 : 		}
; 2041 : 		else 
; 2042 : 		{	// 장착될게 없음.
; 2043 : 			if( i == PARTS_RIDE )	// 빗자루가 장착되어 있지 않은데

  0024e	83 fe 0d	 cmp	 esi, 13			; 0000000dH
  00251	0f 85 4f ff ff
	ff		 jne	 $LN2@RedoEquip
; File C:\IAGOS\server\v18\Source\Source\_AIInterface\Action.h

; 309  : 	BOOL			IsFly() { return (m_dwStateFlag & OBJSTAF_FLY) ? TRUE : FALSE; }

  00257	8b 8f 38 02 00
	00		 mov	 ecx, DWORD PTR [edi+568]
  0025d	8b c2		 mov	 eax, edx
; File C:\IAGOS\server\v18\Source\Source\_common\MoverEquip.cpp

; 2045 : 				if( m_pActMover->IsFly() )	// 비행중이다.

  0025f	f6 41 08 08	 test	 BYTE PTR [ecx+8], 8
  00263	74 1d		 je	 SHORT $LN70@RedoEquip
; File C:\IAGOS\server\v18\Source\Source\_Common\Mover.h

; 1785 : 	if( m_pActMover )	

  00265	85 c9		 test	 ecx, ecx
  00267	74 19		 je	 SHORT $LN70@RedoEquip

; 1786 : 		return m_pActMover->SendActMsg( dwMsg, nParam1, nParam2, nParam3, nParam4 );	

  00269	8b 01		 mov	 eax, DWORD PTR [ecx]
  0026b	6a 00		 push	 0
  0026d	6a 00		 push	 0
  0026f	6a 01		 push	 1
  00271	6a 00		 push	 0
  00273	6a 00		 push	 0
  00275	6a 17		 push	 23			; 00000017H
  00277	ff 50 04	 call	 DWORD PTR [eax+4]
  0027a	8d 97 fc 0a 00
	00		 lea	 edx, DWORD PTR [edi+2812]
  00280	8b c2		 mov	 eax, edx
$LN70@RedoEquip:
; File C:\IAGOS\server\v18\Source\Source\_common\MoverEquip.cpp

; 2050 : 				if( m_dwRideItemIdx != 0 )		// 빗자루 인덱스도 0이어야 하는데 뭔가 있다.

  00282	83 bf e4 14 00
	00 00		 cmp	 DWORD PTR [edi+5348], 0
  00289	8b da		 mov	 ebx, edx
  0028b	74 0c		 je	 SHORT $LN24@RedoEquip

; 2051 : 				{
; 2052 : //					WriteLog( "RedoEquip(): m_dwRideItemIdx	= 0" );
; 2053 : 					m_dwRideItemIdx		= 0;	// 그러면 0으로 클리어.

  0028d	c7 87 e4 14 00
	00 00 00 00 00	 mov	 DWORD PTR [edi+5348], 0
  00297	8b d8		 mov	 ebx, eax
$LN24@RedoEquip:

; 2054 : 				}
; 2055 : 				if( m_Inventory.GetEquip( i ) )

  00299	6a 0d		 push	 13			; 0000000dH
  0029b	8b cb		 mov	 ecx, ebx
  0029d	e8 00 00 00 00	 call	 ?GetEquip@?$CItemContainer@VCItemElem@@@@QAEPAVCItemElem@@K@Z ; CItemContainer<CItemElem>::GetEquip
  002a2	85 c0		 test	 eax, eax
  002a4	0f 84 fc fe ff
	ff		 je	 $LN2@RedoEquip

; 2056 : 				{
; 2057 : //					WriteLog( "RedoEquip(): pRide is not null" );
; 2058 : 					m_Inventory.UnEquip( i );

  002aa	6a 0d		 push	 13			; 0000000dH
  002ac	8b cb		 mov	 ecx, ebx
  002ae	e8 00 00 00 00	 call	 ?UnEquip@?$CItemContainer@VCItemElem@@@@QAEHK@Z ; CItemContainer<CItemElem>::UnEquip
  002b3	46		 inc	 esi
  002b4	e9 52 fd ff ff	 jmp	 $LN121@RedoEquip
?RedoEquip@CMover@@QAEXHH@Z ENDP			; CMover::RedoEquip
_TEXT	ENDS
; Function compile flags: /Ogtp
; File C:\IAGOS\server\v18\Source\Source\_common\MoverEquip.cpp
;	COMDAT ?ClearEquipInfo@CMover@@QAEXXZ
_TEXT	SEGMENT
?ClearEquipInfo@CMover@@QAEXXZ PROC			; CMover::ClearEquipInfo, COMDAT
; _this$ = ecx

; 2629 : {

  00000	56		 push	 esi

; 2630 : 	memset( m_aEquipInfo, 0, sizeof(EQUIP_INFO) * MAX_HUMAN_PARTS );

  00001	68 74 01 00 00	 push	 372			; 00000174H
  00006	8d b1 24 0b 00
	00		 lea	 esi, DWORD PTR [ecx+2852]
  0000c	6a 00		 push	 0
  0000e	56		 push	 esi
  0000f	e8 00 00 00 00	 call	 _memset
  00014	83 c4 0c	 add	 esp, 12			; 0000000cH
  00017	b8 1f 00 00 00	 mov	 eax, 31			; 0000001fH
  0001c	0f 1f 40 00	 npad	 4
$LL4@ClearEquip:

; 2631 : 	for( int i = 0; i < MAX_HUMAN_PARTS; i++ )
; 2632 : 		m_aEquipInfo[i].dwId = NULL_ID;

  00020	c7 06 ff ff ff
	ff		 mov	 DWORD PTR [esi], -1
  00026	8d 76 0c	 lea	 esi, DWORD PTR [esi+12]
  00029	83 e8 01	 sub	 eax, 1
  0002c	75 f2		 jne	 SHORT $LL4@ClearEquip

; 2633 : }

  0002e	5e		 pop	 esi
  0002f	c3		 ret	 0
?ClearEquipInfo@CMover@@QAEXXZ ENDP			; CMover::ClearEquipInfo
_TEXT	ENDS
; Function compile flags: /Ogtp
; File C:\IAGOS\server\v18\Source\Source\_common\MoverEquip.cpp
; File C:\IAGOS\server\v18\Source\Source\_Common\Item.h
; File C:\IAGOS\server\v18\Source\Source\_Common\Project.h
; File C:\IAGOS\server\v18\Source\Source\_Common\data.h
; File C:\IAGOS\server\v18\Source\Source\_common\MoverEquip.cpp
; File C:\IAGOS\server\v18\Source\Source\_Common\Project.h
; File C:\IAGOS\server\v18\Source\Source\_common\MoverEquip.cpp
; File C:\IAGOS\server\v18\Source\Source\_Common\Project.h
; File C:\IAGOS\server\v18\Source\Source\_Common\data.h
; File C:\IAGOS\server\v18\Source\Source\_Common\Project.h
; File C:\IAGOS\server\v18\Source\Source\_common\MoverEquip.cpp
; File C:\IAGOS\server\v18\Source\Source\_Common\Mover.h
; File C:\IAGOS\server\v18\Source\Source\_Common\Project.h
; File C:\IAGOS\server\v18\Source\Source\_common\MoverEquip.cpp
; File C:\IAGOS\server\v18\Source\Source\_Common\Project.h
; File C:\IAGOS\server\v18\Source\Source\_common\MoverEquip.cpp
; File C:\IAGOS\server\v18\Source\Source\_Common\Item.h
; File C:\IAGOS\server\v18\Source\Source\_common\MoverEquip.cpp
; File C:\IAGOS\server\v18\Source\Source\_Common\Mover.h
; File C:\IAGOS\server\v18\Source\Source\_common\MoverEquip.cpp
;	COMDAT ?DoEquip@CMover@@SAHHHPAVCItemElem@@HABU_EQUIP_INFO@@PAV?$CItemContainer@VCItemElem@@@@PAU3@PAVCModelObject@@HPAV1@@Z
_TEXT	SEGMENT
_bIfParts$1$ = -108					; size = 4
_dwIndex$1$ = -104					; size = 4
_pItemElemTemp1$1$ = -100				; size = 4
_rEquipInfo$GSCopy$1$ = -100				; size = 4
_pItemElem$GSCopy$1$ = -96				; size = 4
_pExclusive$1$ = -92					; size = 4
tv1288 = -92						; size = 4
_pModel$GSCopy$1$ = -88					; size = 4
_pItemProp$1$ = -84					; size = 4
_pHandItemProp$1$ = -80					; size = 4
tv1280 = -80						; size = 4
_nSex$GSCopy$1$ = -80					; size = 4
_pProp$1$ = -76						; size = 4
_pItemElemOld$1$ = -76					; size = 4
_pItemElemOld$1$ = -76					; size = 4
_pItemElemOld$1$ = -76					; size = 4
_pItemElemOld$2$ = -76					; size = 4
_pItemElemOld$1$ = -76					; size = 4
_pInventory$GSCopy$1$ = -72				; size = 4
_lpszTemp$ = -68					; size = 64
__$ArrayPad$ = -4					; size = 4
_nSex$ = 8						; size = 4
_nSkinSet$ = 12						; size = 4
_pItemElem$ = 16					; size = 4
_nPart$ = 20						; size = 4
_rEquipInfo$ = 24					; size = 4
_pInventory$ = 28					; size = 4
_pEquipInfo$ = 32					; size = 4
_pModel$ = 36						; size = 4
_bEquip$ = 40						; size = 4
_pMover$ = 44						; size = 4
?DoEquip@CMover@@SAHHHPAVCItemElem@@HABU_EQUIP_INFO@@PAV?$CItemContainer@VCItemElem@@@@PAU3@PAVCModelObject@@HPAV1@@Z PROC ; CMover::DoEquip, COMDAT

; 462  : {

  00000	55		 push	 ebp
  00001	8b ec		 mov	 ebp, esp
  00003	83 ec 6c	 sub	 esp, 108		; 0000006cH
  00006	a1 00 00 00 00	 mov	 eax, DWORD PTR ___security_cookie
  0000b	33 c5		 xor	 eax, ebp
  0000d	89 45 fc	 mov	 DWORD PTR __$ArrayPad$[ebp], eax
  00010	8b 45 08	 mov	 eax, DWORD PTR _nSex$[ebp]
  00013	8b 4d 18	 mov	 ecx, DWORD PTR _rEquipInfo$[ebp]
  00016	53		 push	 ebx
  00017	8b 5d 10	 mov	 ebx, DWORD PTR _pItemElem$[ebp]
  0001a	89 45 b0	 mov	 DWORD PTR _nSex$GSCopy$1$[ebp], eax
  0001d	8b 45 1c	 mov	 eax, DWORD PTR _pInventory$[ebp]
  00020	89 45 b8	 mov	 DWORD PTR _pInventory$GSCopy$1$[ebp], eax
  00023	8b 45 24	 mov	 eax, DWORD PTR _pModel$[ebp]
  00026	89 45 a8	 mov	 DWORD PTR _pModel$GSCopy$1$[ebp], eax

; 463  : 	ItemProp* pItemProp = pItemElem ? pItemElem->GetProp() : prj.GetItemProp( rEquipInfo.dwId );

  00029	a1 40 02 00 00	 mov	 eax, DWORD PTR ?prj@@3VCProject@@A+576
  0002e	89 5d a0	 mov	 DWORD PTR _pItemElem$GSCopy$1$[ebp], ebx
  00031	89 4d 9c	 mov	 DWORD PTR _rEquipInfo$GSCopy$1$[ebp], ecx
  00034	56		 push	 esi
  00035	8b 75 20	 mov	 esi, DWORD PTR _pEquipInfo$[ebp]
  00038	57		 push	 edi
  00039	8b 7d 2c	 mov	 edi, DWORD PTR _pMover$[ebp]
  0003c	85 db		 test	 ebx, ebx
  0003e	74 3d		 je	 SHORT $LN101@DoEquip
; File C:\IAGOS\server\v18\Source\Source\_Common\Item.h

; 230  : 	ItemProp*	GetProp()	{	return prj.GetItemProp( m_dwItemId );	}

  00040	8b 4b 0c	 mov	 ecx, DWORD PTR [ebx+12]
; File C:\IAGOS\server\v18\Source\Source\_Common\Project.h

; 1389 : 	VERIFY_RANGE_ASSERT( nIndex, 0, m_aPropItem.GetSize(), "GetItemProp range_error", NULL );

  00043	85 c9		 test	 ecx, ecx
  00045	78 16		 js	 SHORT $LN114@DoEquip
  00047	3b c8		 cmp	 ecx, eax
  00049	7d 12		 jge	 SHORT $LN114@DoEquip
; File C:\IAGOS\server\v18\Source\Source\_Common\data.h

; 270  : 	if( dwIndex >= (DWORD)m_nMaxIndex )

  0004b	73 26		 jae	 SHORT $LN269@DoEquip

; 271  : 		return NULL;
; 272  : 	return (T*) m_apOffset[ dwIndex ];

  0004d	a1 30 02 00 00	 mov	 eax, DWORD PTR ?prj@@3VCProject@@A+560
  00052	8b 04 88	 mov	 eax, DWORD PTR [eax+ecx*4]
; File C:\IAGOS\server\v18\Source\Source\_common\MoverEquip.cpp

; 464  : 	DWORD dwIndex = pItemElem ? pItemElem->m_dwObjIndex : 0;

  00055	8b 4b 08	 mov	 ecx, DWORD PTR [ebx+8]
  00058	89 4d 98	 mov	 DWORD PTR _dwIndex$1$[ebp], ecx
  0005b	eb 55		 jmp	 SHORT $LN276@DoEquip
$LN114@DoEquip:
; File C:\IAGOS\server\v18\Source\Source\_Common\Project.h

; 579  : 	LPCTSTR szErr = Error( _T( "%s min:%d, max:%d, index:%d" ), szMsg, nMin, nMax, nIndex ); 

  0005d	51		 push	 ecx
  0005e	50		 push	 eax
  0005f	6a 00		 push	 0
  00061	68 00 00 00 00	 push	 OFFSET ??_C@_0BI@BEIFNGEL@GetItemProp?5range_error@
  00066	68 00 00 00 00	 push	 OFFSET ??_C@_0BM@HMFGHCP@?$CFs?5min?3?$CFd?0?5max?3?$CFd?0?5index?3?$CFd@
  0006b	e8 00 00 00 00	 call	 ?Error@@YAPBDPBDZZ	; Error
  00070	83 c4 14	 add	 esp, 20			; 00000014H
$LN269@DoEquip:
; File C:\IAGOS\server\v18\Source\Source\_common\MoverEquip.cpp

; 464  : 	DWORD dwIndex = pItemElem ? pItemElem->m_dwObjIndex : 0;

  00073	8b 4b 08	 mov	 ecx, DWORD PTR [ebx+8]
  00076	33 c0		 xor	 eax, eax
  00078	89 4d 98	 mov	 DWORD PTR _dwIndex$1$[ebp], ecx
  0007b	eb 35		 jmp	 SHORT $LN276@DoEquip
$LN101@DoEquip:

; 463  : 	ItemProp* pItemProp = pItemElem ? pItemElem->GetProp() : prj.GetItemProp( rEquipInfo.dwId );

  0007d	8b 09		 mov	 ecx, DWORD PTR [ecx]
; File C:\IAGOS\server\v18\Source\Source\_Common\Project.h

; 1389 : 	VERIFY_RANGE_ASSERT( nIndex, 0, m_aPropItem.GetSize(), "GetItemProp range_error", NULL );

  0007f	85 c9		 test	 ecx, ecx
  00081	78 10		 js	 SHORT $LN126@DoEquip
  00083	3b c8		 cmp	 ecx, eax
  00085	7d 0c		 jge	 SHORT $LN126@DoEquip
; File C:\IAGOS\server\v18\Source\Source\_Common\data.h

; 270  : 	if( dwIndex >= (DWORD)m_nMaxIndex )

  00087	73 20		 jae	 SHORT $LN272@DoEquip

; 271  : 		return NULL;
; 272  : 	return (T*) m_apOffset[ dwIndex ];

  00089	a1 30 02 00 00	 mov	 eax, DWORD PTR ?prj@@3VCProject@@A+560
  0008e	8b 04 88	 mov	 eax, DWORD PTR [eax+ecx*4]
; File C:\IAGOS\server\v18\Source\Source\_Common\Project.h

; 1390 : 	return m_aPropItem.GetAt( nIndex ); 

  00091	eb 18		 jmp	 SHORT $LN273@DoEquip
$LN126@DoEquip:

; 579  : 	LPCTSTR szErr = Error( _T( "%s min:%d, max:%d, index:%d" ), szMsg, nMin, nMax, nIndex ); 

  00093	51		 push	 ecx
  00094	50		 push	 eax
  00095	6a 00		 push	 0
  00097	68 00 00 00 00	 push	 OFFSET ??_C@_0BI@BEIFNGEL@GetItemProp?5range_error@
  0009c	68 00 00 00 00	 push	 OFFSET ??_C@_0BM@HMFGHCP@?$CFs?5min?3?$CFd?0?5max?3?$CFd?0?5index?3?$CFd@
  000a1	e8 00 00 00 00	 call	 ?Error@@YAPBDPBDZZ	; Error
  000a6	83 c4 14	 add	 esp, 20			; 00000014H
$LN272@DoEquip:
; File C:\IAGOS\server\v18\Source\Source\_common\MoverEquip.cpp

; 464  : 	DWORD dwIndex = pItemElem ? pItemElem->m_dwObjIndex : 0;

  000a9	33 c0		 xor	 eax, eax
$LN273@DoEquip:
  000ab	c7 45 98 00 00
	00 00		 mov	 DWORD PTR _dwIndex$1$[ebp], 0
$LN276@DoEquip:

; 465  : 	DWORD dwParts = pItemProp->dwParts;

  000b2	8b 98 a8 00 00
	00		 mov	 ebx, DWORD PTR [eax+168]
  000b8	89 45 ac	 mov	 DWORD PTR _pItemProp$1$[ebp], eax
  000bb	89 45 a4	 mov	 DWORD PTR tv1288[ebp], eax

; 466  : 	BOOL bIfParts = pMover ? pMover->GetProp()->bIfParts : 0;

  000be	85 ff		 test	 edi, edi
  000c0	74 4e		 je	 SHORT $LN105@DoEquip
; File C:\IAGOS\server\v18\Source\Source\_Common\Mover.h

; 1020 : 	MoverProp*		GetProp() { return prj.GetMoverProp( m_dwIndex ); }	// 객체의 프로퍼티 얻기 	

  000c2	8b 87 74 01 00
	00		 mov	 eax, DWORD PTR [edi+372]
; File C:\IAGOS\server\v18\Source\Source\_Common\Project.h

; 1406 : 	VERIFY_RANGE( nIndex, 0, m_nMoverPropSize, "GetMoverProp range_error", NULL );

  000c8	8b 0d b4 01 00
	00		 mov	 ecx, DWORD PTR ?prj@@3VCProject@@A+436
  000ce	85 c0		 test	 eax, eax
  000d0	78 1b		 js	 SHORT $LN140@DoEquip
  000d2	3b c1		 cmp	 eax, ecx
  000d4	7d 17		 jge	 SHORT $LN140@DoEquip

; 1407 : 	return m_pPropMover + nIndex;

  000d6	69 c0 90 06 00
	00		 imul	 eax, eax, 1680
  000dc	03 05 b8 01 00
	00		 add	 eax, DWORD PTR ?prj@@3VCProject@@A+440
; File C:\IAGOS\server\v18\Source\Source\_common\MoverEquip.cpp

; 466  : 	BOOL bIfParts = pMover ? pMover->GetProp()->bIfParts : 0;

  000e2	8b 80 98 00 00
	00		 mov	 eax, DWORD PTR [eax+152]
  000e8	89 45 94	 mov	 DWORD PTR _bIfParts$1$[ebp], eax
  000eb	eb 2a		 jmp	 SHORT $LN106@DoEquip
$LN140@DoEquip:
; File C:\IAGOS\server\v18\Source\Source\_Common\Project.h

; 579  : 	LPCTSTR szErr = Error( _T( "%s min:%d, max:%d, index:%d" ), szMsg, nMin, nMax, nIndex ); 

  000ed	50		 push	 eax
  000ee	51		 push	 ecx
  000ef	6a 00		 push	 0
  000f1	68 00 00 00 00	 push	 OFFSET ??_C@_0BJ@GKPOBPPI@GetMoverProp?5range_error@
  000f6	68 00 00 00 00	 push	 OFFSET ??_C@_0BM@HMFGHCP@?$CFs?5min?3?$CFd?0?5max?3?$CFd?0?5index?3?$CFd@
  000fb	e8 00 00 00 00	 call	 ?Error@@YAPBDPBDZZ	; Error
  00100	83 c4 14	 add	 esp, 20			; 00000014H

; 1406 : 	VERIFY_RANGE( nIndex, 0, m_nMoverPropSize, "GetMoverProp range_error", NULL );

  00103	33 c0		 xor	 eax, eax
; File C:\IAGOS\server\v18\Source\Source\_common\MoverEquip.cpp

; 466  : 	BOOL bIfParts = pMover ? pMover->GetProp()->bIfParts : 0;

  00105	8b 80 98 00 00
	00		 mov	 eax, DWORD PTR [eax+152]
  0010b	89 45 94	 mov	 DWORD PTR _bIfParts$1$[ebp], eax
  0010e	eb 07		 jmp	 SHORT $LN106@DoEquip
$LN105@DoEquip:
  00110	c7 45 94 00 00
	00 00		 mov	 DWORD PTR _bIfParts$1$[ebp], 0
$LN106@DoEquip:

; 467  : 	TCHAR lpszTemp[ 64 ];
; 468  : 	BOOL bFake = (pInventory == NULL) ? TRUE : FALSE;
; 469  : #ifdef __SECURITY_FIXES
; 470  : 	if( dwParts == NULL_ID || ( nPart == -1 &&  dwParts != PARTS_RIDE && dwParts != PARTS_RING2 && dwParts != PARTS_EARRING2) )

  00117	83 fb ff	 cmp	 ebx, -1
  0011a	0f 84 ee 05 00
	00		 je	 $LN5@DoEquip
  00120	83 7d 14 ff	 cmp	 DWORD PTR _nPart$[ebp], -1
  00124	75 13		 jne	 SHORT $LN4@DoEquip
  00126	83 fb 0d	 cmp	 ebx, 13			; 0000000dH
  00129	74 0e		 je	 SHORT $LN4@DoEquip
  0012b	83 fb 15	 cmp	 ebx, 21			; 00000015H
  0012e	74 09		 je	 SHORT $LN4@DoEquip
  00130	83 fb 17	 cmp	 ebx, 23			; 00000017H
  00133	0f 85 d5 05 00
	00		 jne	 $LN5@DoEquip
$LN4@DoEquip:

; 471  : 		return FALSE;
; 472  : #else // __SECURITY_FIXES
; 473  : 	if( dwParts == NULL_ID )
; 474  : 		return FALSE;
; 475  : #endif// __SECURITY_FIXES
; 476  : 
; 477  : 	// 반지/귀걸이 벗을때 처리.
; 478  : 	if( !bEquip )

  00139	8b 55 28	 mov	 edx, DWORD PTR _bEquip$[ebp]
  0013c	85 d2		 test	 edx, edx
  0013e	75 2a		 jne	 SHORT $LN167@DoEquip

; 479  : 	{
; 480  : 		if( dwParts == PARTS_RING1 || dwParts == PARTS_EARRING1 )

  00140	83 fb 14	 cmp	 ebx, 20			; 00000014H
  00143	74 05		 je	 SHORT $LN8@DoEquip
  00145	83 fb 16	 cmp	 ebx, 22			; 00000016H
  00148	75 20		 jne	 SHORT $LN167@DoEquip
$LN8@DoEquip:

; 481  : 		{
; 482  : 			CItemElem *pItemElemTemp;
; 483  : 			
; 484  : 			if( pInventory )

  0014a	8b 45 b8	 mov	 eax, DWORD PTR _pInventory$GSCopy$1$[ebp]
  0014d	85 c0		 test	 eax, eax
  0014f	74 1c		 je	 SHORT $LN10@DoEquip

; 485  : 			{
; 486  : 				pItemElemTemp = (CItemElem*)pInventory->GetEquip( dwParts );

  00151	53		 push	 ebx
  00152	8b c8		 mov	 ecx, eax
  00154	e8 00 00 00 00	 call	 ?GetEquip@?$CItemContainer@VCItemElem@@@@QAEPAVCItemElem@@K@Z ; CItemContainer<CItemElem>::GetEquip

; 487  : 				if( pItemElemTemp != pItemElem )

  00159	8b 55 28	 mov	 edx, DWORD PTR _bEquip$[ebp]
  0015c	3b 45 a0	 cmp	 eax, DWORD PTR _pItemElem$GSCopy$1$[ebp]
  0015f	74 09		 je	 SHORT $LN167@DoEquip

; 488  : 					dwParts = pItemProp->dwPartsub;

  00161	8b 45 ac	 mov	 eax, DWORD PTR _pItemProp$1$[ebp]
  00164	8b 98 ac 00 00
	00		 mov	 ebx, DWORD PTR [eax+172]
$LN167@DoEquip:

; 489  : 			}
; 490  : 		}
; 491  : 	}
; 492  : 	// 쌍칼(이도류) 처리.
; 493  : 	if( pItemProp && pItemProp->dwHanded == HD_ONE && pItemProp->dwParts == PARTS_RWEAPON )	// 원핸드 무기를 차려고 하는가?

  0016a	8b 45 b8	 mov	 eax, DWORD PTR _pInventory$GSCopy$1$[ebp]
$LN10@DoEquip:
  0016d	8b 4d ac	 mov	 ecx, DWORD PTR _pItemProp$1$[ebp]
  00170	83 b9 a0 00 00
	00 01		 cmp	 DWORD PTR [ecx+160], 1
  00177	0f 85 aa 00 00
	00		 jne	 $LN20@DoEquip
  0017d	83 b9 a8 00 00
	00 0a		 cmp	 DWORD PTR [ecx+168], 10	; 0000000aH
  00184	0f 85 9d 00 00
	00		 jne	 $LN20@DoEquip

; 494  : 	{
; 495  : 		if( bEquip )

  0018a	85 d2		 test	 edx, edx
  0018c	0f 84 8d 00 00
	00		 je	 $LN12@DoEquip

; 496  : 		{
; 497  : 			// 디폴트는 장착위치 오른손
; 498  : 			// 왼손에 무기가 가야하는 상황을 검사
; 499  : 			ItemProp *pProp = pMover->GetEquipItemProp( pInventory, pEquipInfo, PARTS_RWEAPON );

  00192	6a 0a		 push	 10			; 0000000aH
  00194	56		 push	 esi
  00195	50		 push	 eax
  00196	8b cf		 mov	 ecx, edi
  00198	e8 00 00 00 00	 call	 ?GetEquipItemProp@CMover@@QAEPAUItemProp@@PAV?$CItemContainer@VCItemElem@@@@PAU_EQUIP_INFO@@H@Z ; CMover::GetEquipItemProp

; 500  : #ifdef __3RD_LEGEND16
; 501  : 			if( pMover->GetJob() == JOB_BLADE || pMover->GetJob() == JOB_BLADE_MASTER || pMover->GetJob() == JOB_BLADE_HERO || pMover->GetJob() == JOB_STORMBLADE_HERO )

  0019d	8b cf		 mov	 ecx, edi
  0019f	89 45 b4	 mov	 DWORD PTR _pProp$1$[ebp], eax
  001a2	e8 00 00 00 00	 call	 ?GetJob@CMover@@QAEHXZ	; CMover::GetJob
  001a7	83 f8 07	 cmp	 eax, 7
  001aa	74 24		 je	 SHORT $LN15@DoEquip
  001ac	8b cf		 mov	 ecx, edi
  001ae	e8 00 00 00 00	 call	 ?GetJob@CMover@@QAEHXZ	; CMover::GetJob
  001b3	83 f8 11	 cmp	 eax, 17			; 00000011H
  001b6	74 18		 je	 SHORT $LN15@DoEquip
  001b8	8b cf		 mov	 ecx, edi
  001ba	e8 00 00 00 00	 call	 ?GetJob@CMover@@QAEHXZ	; CMover::GetJob
  001bf	83 f8 19	 cmp	 eax, 25			; 00000019H
  001c2	74 0c		 je	 SHORT $LN15@DoEquip
  001c4	8b cf		 mov	 ecx, edi
  001c6	e8 00 00 00 00	 call	 ?GetJob@CMover@@QAEHXZ	; CMover::GetJob
  001cb	83 f8 21	 cmp	 eax, 33			; 00000021H
  001ce	75 36		 jne	 SHORT $LN18@DoEquip
$LN15@DoEquip:

; 502  : #else // __3RD_LEGEND16
; 503  : #if __VER >= 10 // __LEGEND	//	9차 전승시스템	Neuz, World, Trans
; 504  : 			if( pMover->GetJob() == JOB_BLADE || pMover->GetJob() == JOB_BLADE_MASTER || pMover->GetJob() == JOB_BLADE_HERO )	// 쌍칼속성
; 505  : #else //__LEGEND	//	9차 전승시스템	Neuz, World, Trans
; 506  : 			if( pMover->GetJob() == JOB_BLADE )	// 쌍칼속성
; 507  : #endif	//__LEGEND	//	9차 전승시스템	Neuz, World, Trans
; 508  : #endif // __3RD_LEGEND16
; 509  : 			{
; 510  : 				if( pItemProp->dwID != II_WEA_KNU_ISHOFIST )

  001d0	8b 45 ac	 mov	 eax, DWORD PTR _pItemProp$1$[ebp]
  001d3	81 38 b3 18 00
	00		 cmp	 DWORD PTR [eax], 6323	; 000018b3H
  001d9	74 2b		 je	 SHORT $LN18@DoEquip

; 511  : 				{
; 512  : 					if( pProp && pProp->dwHanded == HD_ONE )	// 오른손에 무기가 있냐? 그 무기가 원핸드냐

  001db	8b 45 b4	 mov	 eax, DWORD PTR _pProp$1$[ebp]
  001de	85 c0		 test	 eax, eax
  001e0	74 45		 je	 SHORT $LN20@DoEquip
  001e2	83 b8 a0 00 00
	00 01		 cmp	 DWORD PTR [eax+160], 1
  001e9	75 22		 jne	 SHORT $LN151@DoEquip

; 513  : 					{
; 514  : 						if( pMover->GetEquipItemProp( pInventory, pEquipInfo, PARTS_SHIELD ) == NULL )	//왼손에 방패없냐?

  001eb	6a 0b		 push	 11			; 0000000bH
  001ed	56		 push	 esi
  001ee	ff 75 b8	 push	 DWORD PTR _pInventory$GSCopy$1$[ebp]
  001f1	8b cf		 mov	 ecx, edi
  001f3	e8 00 00 00 00	 call	 ?GetEquipItemProp@CMover@@QAEPAUItemProp@@PAV?$CItemContainer@VCItemElem@@@@PAU_EQUIP_INFO@@H@Z ; CMover::GetEquipItemProp
  001f8	85 c0		 test	 eax, eax
  001fa	8b 45 b4	 mov	 eax, DWORD PTR _pProp$1$[ebp]
  001fd	75 0e		 jne	 SHORT $LN151@DoEquip

; 515  : 							dwParts = PARTS_LWEAPON;		// 장착위치를 왼손으로 바꿈

  001ff	bb 09 00 00 00	 mov	 ebx, 9
  00204	eb 07		 jmp	 SHORT $LN151@DoEquip
$LN18@DoEquip:

; 516  : 					} 
; 517  : 				}
; 518  : 			}
; 519  : 
; 520  : 			if( pProp && pProp->dwItemKind3 == IK3_YOYO )		// 오른손에 무기가 요요였으면

  00206	8b 45 b4	 mov	 eax, DWORD PTR _pProp$1$[ebp]
  00209	85 c0		 test	 eax, eax
  0020b	74 1a		 je	 SHORT $LN20@DoEquip
$LN151@DoEquip:
  0020d	83 78 78 0b	 cmp	 DWORD PTR [eax+120], 11	; 0000000bH
  00211	75 14		 jne	 SHORT $LN20@DoEquip

; 521  : 				pModel->TakeOffParts( PARTS_LWEAPON );			// 왼손에 요요모델도 삭제함. 오른손모델은 밑에서 자동으로 

  00213	8b 4d a8	 mov	 ecx, DWORD PTR _pModel$GSCopy$1$[ebp]
  00216	6a 09		 push	 9
  00218	e8 00 00 00 00	 call	 ?TakeOffParts@CModelObject@@QAEXH@Z ; CModelObject::TakeOffParts

; 522  : 			
; 523  : 		} 

  0021d	eb 08		 jmp	 SHORT $LN20@DoEquip
$LN12@DoEquip:

; 524  : 		else
; 525  : 		{
; 526  : 			// 해제시도.
; 527  : 			if( nPart >= 0  )		// 파츠를 직접 지정했을때만

  0021f	8b 45 14	 mov	 eax, DWORD PTR _nPart$[ebp]
  00222	85 c0		 test	 eax, eax
  00224	0f 49 d8	 cmovns	 ebx, eax
$LN20@DoEquip:

; 528  : 				dwParts = nPart;	// 해제하라고 한 부위를 해제시킨다.
; 529  : 		}
; 530  : 	} // 쌍칼 처리.
; 531  : 	
; 532  : #ifndef __WORLDSERVER	// <<<< 월드에서 처리안하면 메모리 리크 나지 않나? -xuzhu-
; 533  : 	((CModelObject*)pModel)->TakeOffParts( dwParts );	
; 534  : #endif
; 535  : 
; 536  : 	if( pItemProp && pItemProp->dwItemKind3 == IK3_YOYO )	// 벗으려던 무기가 요요였으면

  00227	8b 45 ac	 mov	 eax, DWORD PTR _pItemProp$1$[ebp]
  0022a	83 78 78 0b	 cmp	 DWORD PTR [eax+120], 11	; 0000000bH
  0022e	75 0d		 jne	 SHORT $LN21@DoEquip

; 537  : 		pModel->TakeOffParts( PARTS_LWEAPON );		// 왼손에 있던 요요모델도 없애준다.

  00230	8b 4d a8	 mov	 ecx, DWORD PTR _pModel$GSCopy$1$[ebp]
  00233	6a 09		 push	 9
  00235	e8 00 00 00 00	 call	 ?TakeOffParts@CModelObject@@QAEXH@Z ; CModelObject::TakeOffParts
