; Listing generated by Microsoft (R) Optimizing Compiler Version 19.44.35225.0 

	TITLE	C:\IAGOS\server\v18\Source\Output\WorldServer\Release\MoverMove.obj
	.686P
	.XMM
	include listing.inc
	.model	flat

INCLUDELIB LIBCMT
INCLUDELIB OLDNAMES

CONST	SEGMENT
?piecewise_construct@std@@3Upiecewise_construct_t@1@B	ORG $+1 ; std::piecewise_construct
CONST	ENDS
PUBLIC	?__empty_global_delete@@YAXPAX@Z		; __empty_global_delete
PUBLIC	?__empty_global_delete@@YAXPAXI@Z		; __empty_global_delete
PUBLIC	?GetDegree@@YAMABUD3DXVECTOR3@@0@Z		; GetDegree
PUBLIC	?GetDegreeX@@YAMABUD3DXVECTOR3@@0@Z		; GetDegreeX
PUBLIC	?SendActMsg@CMover@@QAEHW4OBJMSG@@HHHH@Z	; CMover::SendActMsg
PUBLIC	?ProcessMovePattern@CMover@@QAEXXZ		; CMover::ProcessMovePattern
PUBLIC	?ProcessMove@CMover@@AAEXXZ			; CMover::ProcessMove
PUBLIC	?ProcessMoveArrival@CMover@@AAEXPAVCCtrl@@@Z	; CMover::ProcessMoveArrival
PUBLIC	??_C@_00CNPNBAHC@@				; `string'
PUBLIC	??_C@_0DB@BPKCMOPH@ProcessMoveArrival?5mover?3?$CFs?5ski@ ; `string'
PUBLIC	__real@00000000
PUBLIC	__real@3f000000
PUBLIC	__real@42340000
PUBLIC	__real@42652ee0
PUBLIC	__real@42b40000
PUBLIC	__real@43070000
PUBLIC	__real@43340000
PUBLIC	__real@43b40000
PUBLIC	__real@c2b40000
PUBLIC	__real@c3340000
PUBLIC	__xmm@80000000800000008000000080000000
EXTRN	_D3DXVec3Normalize@8:PROC
EXTRN	?Error@@YAPBDPBDZZ:PROC				; Error
EXTRN	?SetAngleX@CObj@@QAEXM@Z:PROC			; CObj::SetAngleX
EXTRN	?IsRangeObj@CObj@@QAEHPAV1@M@Z:PROC		; CObj::IsRangeObj
EXTRN	?SetAngle@CObj@@QAEXM@Z:PROC			; CObj::SetAngle
EXTRN	?GetCtrl@CProject@@QAEPAVCCtrl@@K@Z:PROC	; CProject::GetCtrl
EXTRN	?GetSkill@CMover@@QAEPAUtagSkill@@HH@Z:PROC	; CMover::GetSkill
EXTRN	?DoUseSkill@CMover@@QAEHHHKW4SKILLUSETYPE@@H@Z:PROC ; CMover::DoUseSkill
EXTRN	?EnforcedGhostCorr@CMover@@AAEXXZ:PROC		; CMover::EnforcedGhostCorr
EXTRN	?ApproachGhostAngle@CMover@@AAEXXZ:PROC		; CMover::ApproachGhostAngle
EXTRN	?OnArriveAtPos@CMover@@AAEXXZ:PROC		; CMover::OnArriveAtPos
EXTRN	?OnArrive@CMover@@AAEXKK@Z:PROC			; CMover::OnArrive
EXTRN	?SetCmd@CMover@@AAEXW4OBJACT@@HHH@Z:PROC	; CMover::SetCmd
EXTRN	?IntersectObjLine@CWorld@@QAEHPAUD3DXVECTOR3@@ABU2@1HHH@Z:PROC ; CWorld::IntersectObjLine
EXTRN	?OnEndSkillQueue@CUserTaskBar@@QAEXPAVCUser@@@Z:PROC ; CUserTaskBar::OnEndSkillQueue
EXTRN	?AddDefinedText@CUser@@QAAXHPBDZZ:PROC		; CUser::AddDefinedText
EXTRN	?AddQueryGetDestObj@CUser@@QAEXK@Z:PROC		; CUser::AddQueryGetDestObj
EXTRN	@__security_check_cookie@4:PROC
EXTRN	__CIatan2:PROC
EXTRN	__ftol2_sse:PROC
EXTRN	__libm_sse2_acos_precise:PROC
EXTRN	__libm_sse2_cos_precise:PROC
EXTRN	__libm_sse2_sin_precise:PROC
EXTRN	__libm_sse2_sqrt_precise:PROC
EXTRN	?prj@@3VCProject@@A:BYTE			; prj
EXTRN	___security_cookie:DWORD
EXTRN	__fltused:DWORD
;	COMDAT __xmm@80000000800000008000000080000000
CONST	SEGMENT
__xmm@80000000800000008000000080000000 DB 00H, 00H, 00H, 080H, 00H, 00H, 00H
	DB	080H, 00H, 00H, 00H, 080H, 00H, 00H, 00H, 080H
CONST	ENDS
;	COMDAT __real@c3340000
CONST	SEGMENT
__real@c3340000 DD 0c3340000r			; -180
CONST	ENDS
;	COMDAT __real@c2b40000
CONST	SEGMENT
__real@c2b40000 DD 0c2b40000r			; -90
CONST	ENDS
;	COMDAT __real@43b40000
CONST	SEGMENT
__real@43b40000 DD 043b40000r			; 360
CONST	ENDS
;	COMDAT __real@43340000
CONST	SEGMENT
__real@43340000 DD 043340000r			; 180
CONST	ENDS
;	COMDAT __real@43070000
CONST	SEGMENT
__real@43070000 DD 043070000r			; 135
CONST	ENDS
;	COMDAT __real@42b40000
CONST	SEGMENT
__real@42b40000 DD 042b40000r			; 90
CONST	ENDS
;	COMDAT __real@42652ee0
CONST	SEGMENT
__real@42652ee0 DD 042652ee0r			; 57.2958
CONST	ENDS
;	COMDAT __real@42340000
CONST	SEGMENT
__real@42340000 DD 042340000r			; 45
CONST	ENDS
;	COMDAT __real@3f000000
CONST	SEGMENT
__real@3f000000 DD 03f000000r			; 0.5
CONST	ENDS
;	COMDAT __real@00000000
CONST	SEGMENT
__real@00000000 DD 000000000r			; 0
CONST	ENDS
;	COMDAT ??_C@_0DB@BPKCMOPH@ProcessMoveArrival?5mover?3?$CFs?5ski@
CONST	SEGMENT
??_C@_0DB@BPKCMOPH@ProcessMoveArrival?5mover?3?$CFs?5ski@ DB 'ProcessMove'
	DB	'Arrival mover:%s skill(%d) not found.', 00H	; `string'
CONST	ENDS
;	COMDAT ??_C@_00CNPNBAHC@@
CONST	SEGMENT
??_C@_00CNPNBAHC@@ DB 00H				; `string'
CONST	ENDS
; Function compile flags: /Ogtp
; File C:\IAGOS\server\v18\Source\Source\_Common\MoverMove.cpp
; File C:\IAGOS\server\v18\Source\Source\_Common\Mover.h
; File C:\IAGOS\server\v18\Source\Source\_Common\MoverMove.cpp
; File C:\IAGOS\server\v18\Source\Source\_Common\Mover.h
; File C:\IAGOS\server\v18\Source\Source\_Common\MoverMove.cpp
; File C:\IAGOS\server\v18\Source\Source\_Common\Mover.h
; File C:\IAGOS\server\v18\Source\Source\_Common\MoverMove.cpp
; File C:\IAGOS\server\v18\Source\Source\_Common\Obj.h
; File C:\IAGOS\server\v18\Source\Source\_Common\MoverMove.cpp
; File C:\IAGOS\server\v18\Source\Source\_Common\Obj.h
; File C:\IAGOS\server\v18\Source\Source\_Common\MoverMove.cpp
; File C:\IAGOS\server\v18\Source\Source\_Common\Obj.h
; File C:\IAGOS\server\v18\Source\Source\_Common\MoverMove.cpp
; File C:\IAGOS\server\v18\Source\Source\_Common\Obj.h
; File C:\IAGOS\server\v18\Source\Source\_Common\MoverMove.cpp
; File C:\IAGOS\server\v18\Source\Source\_Common\Obj.h
; File C:\IAGOS\server\v18\Source\Source\_Common\MoverMove.cpp
; File C:\IAGOS\server\v18\Source\Source\_Common\Mover.h
; File C:\IAGOS\server\v18\Source\Source\_Common\MoverMove.cpp
;	COMDAT ?ProcessMoveArrival@CMover@@AAEXPAVCCtrl@@@Z
_TEXT	SEGMENT
_idTarget$1$ = -36					; size = 4
_sutType$1$ = -32					; size = 4
_vStart$1 = -28						; size = 12
_vEnd$2 = -16						; size = 12
__$ArrayPad$ = -4					; size = 4
_pObj$ = 8						; size = 4
?ProcessMoveArrival@CMover@@AAEXPAVCCtrl@@@Z PROC	; CMover::ProcessMoveArrival, COMDAT
; _this$ = ecx

; 281  : {

  00000	55		 push	 ebp
  00001	8b ec		 mov	 ebp, esp
  00003	83 ec 24	 sub	 esp, 36			; 00000024H
  00006	a1 00 00 00 00	 mov	 eax, DWORD PTR ___security_cookie
  0000b	33 c5		 xor	 eax, ebp
  0000d	89 45 fc	 mov	 DWORD PTR __$ArrayPad$[ebp], eax
  00010	53		 push	 ebx
  00011	8b 5d 08	 mov	 ebx, DWORD PTR _pObj$[ebp]
  00014	56		 push	 esi
  00015	8b f1		 mov	 esi, ecx
  00017	57		 push	 edi

; 282  : 	switch( m_oaCmd )	// ¸ńÇĄżˇ µµÂřÇŃ ČÄŔÇ ¸í·É Ăł¸®.

  00018	83 be 9c 11 00
	00 05		 cmp	 DWORD PTR [esi+4508], 5
  0001f	74 43		 je	 SHORT $LN4@ProcessMov
; File C:\IAGOS\server\v18\Source\Source\_Common\Mover.h

; 1785 : 	if( m_pActMover )	

  00021	8b 8e 38 02 00
	00		 mov	 ecx, DWORD PTR [esi+568]
  00027	85 c9		 test	 ecx, ecx
  00029	74 11		 je	 SHORT $LN17@ProcessMov

; 1786 : 		return m_pActMover->SendActMsg( dwMsg, nParam1, nParam2, nParam3, nParam4 );	

  0002b	8b 01		 mov	 eax, DWORD PTR [ecx]
  0002d	6a 00		 push	 0
  0002f	6a 00		 push	 0
  00031	6a 00		 push	 0
  00033	6a 00		 push	 0
  00035	6a 00		 push	 0
  00037	6a 06		 push	 6
  00039	ff 50 04	 call	 DWORD PTR [eax+4]
$LN17@ProcessMov:
; File C:\IAGOS\server\v18\Source\Source\_Common\MoverMove.cpp

; 332  : 		OnArrive( pObj->GetId(), 0 );

  0003c	6a 00		 push	 0
; File C:\IAGOS\server\v18\Source\Source\_Common\Mover.h

; 1030 : 	void			ClearDestObj()     	{ m_idDest = NULL_ID; m_fArrivalRange = 0.0f; }

  0003e	c7 86 58 02 00
	00 ff ff ff ff	 mov	 DWORD PTR [esi+600], -1
; File C:\IAGOS\server\v18\Source\Source\_Common\MoverMove.cpp

; 332  : 		OnArrive( pObj->GetId(), 0 );

  00048	8b ce		 mov	 ecx, esi
; File C:\IAGOS\server\v18\Source\Source\_Common\Mover.h

; 1030 : 	void			ClearDestObj()     	{ m_idDest = NULL_ID; m_fArrivalRange = 0.0f; }

  0004a	c7 86 54 02 00
	00 00 00 00 00	 mov	 DWORD PTR [esi+596], 0
; File C:\IAGOS\server\v18\Source\Source\_Common\MoverMove.cpp

; 332  : 		OnArrive( pObj->GetId(), 0 );

  00054	ff b3 bc 01 00
	00		 push	 DWORD PTR [ebx+444]
  0005a	e8 00 00 00 00	 call	 ?OnArrive@CMover@@AAEXKK@Z ; CMover::OnArrive
  0005f	e9 55 01 00 00	 jmp	 $LN36@ProcessMov
$LN4@ProcessMov:

; 283  : 	{
; 284  : 	case OBJACT_USESKILL:
; 285  : 		if( pObj->GetType() == OT_MOVER )	// Ĺ¸°ŮŔĚ ą«ąöŔĎ¶§¸é Ăł¸®ÇÔ.

  00064	83 bb 70 01 00
	00 05		 cmp	 DWORD PTR [ebx+368], 5
  0006b	0f 85 48 01 00
	00		 jne	 $LN36@ProcessMov

; 286  : 		{
; 287  : 			int nSkillIdx = GetCmdParam(0);

  00071	8b be a0 11 00
	00		 mov	 edi, DWORD PTR [esi+4512]

; 288  : 			OBJID idTarget = (OBJID)GetCmdParam(1);

  00077	8b 86 a4 11 00
	00		 mov	 eax, DWORD PTR [esi+4516]

; 289  : 			SKILLUSETYPE sutType = (SKILLUSETYPE)GetCmdParam(2);
; 290  : 
; 291  : 			LPSKILL pSkill	= GetSkill( 0, nSkillIdx );		// this°ˇ °ˇÁř ˝şĹłÁß nIdxżˇ ÇŘ´çÇĎ´Â ˝şĹłŔ» ˛¨ł˝´Ů.

  0007d	57		 push	 edi
  0007e	89 45 dc	 mov	 DWORD PTR _idTarget$1$[ebp], eax
  00081	8b 86 a8 11 00
	00		 mov	 eax, DWORD PTR [esi+4520]
  00087	6a 00		 push	 0
  00089	89 45 e0	 mov	 DWORD PTR _sutType$1$[ebp], eax
  0008c	e8 00 00 00 00	 call	 ?GetSkill@CMover@@QAEPAUtagSkill@@HH@Z ; CMover::GetSkill

; 292  : 			if( pSkill == NULL )

  00091	85 c0		 test	 eax, eax
  00093	75 28		 jne	 SHORT $LN6@ProcessMov

; 293  : 			{
; 294  : 				Error( "ProcessMoveArrival mover:%s skill(%d) not found.", m_szName, nSkillIdx );

  00095	57		 push	 edi
  00096	8d 86 ec 14 00
	00		 lea	 eax, DWORD PTR [esi+5356]
  0009c	50		 push	 eax
  0009d	68 00 00 00 00	 push	 OFFSET ??_C@_0DB@BPKCMOPH@ProcessMoveArrival?5mover?3?$CFs?5ski@
  000a2	e8 00 00 00 00	 call	 ?Error@@YAPBDPBDZZ	; Error
  000a7	83 c4 0c	 add	 esp, 12			; 0000000cH
  000aa	5f		 pop	 edi

; 340  : }

  000ab	5e		 pop	 esi
  000ac	5b		 pop	 ebx
  000ad	8b 4d fc	 mov	 ecx, DWORD PTR __$ArrayPad$[ebp]
  000b0	33 cd		 xor	 ecx, ebp
  000b2	e8 00 00 00 00	 call	 @__security_check_cookie@4
  000b7	8b e5		 mov	 esp, ebp
  000b9	5d		 pop	 ebp
  000ba	c2 04 00	 ret	 4
$LN6@ProcessMov:

; 295  : 				return;	// skill not found
; 296  : 			}
; 297  : #if __VER >= 10 // __LEGEND	//	10Â÷ Ŕü˝Â˝Ă˝şĹŰ	Neuz, World, Trans
; 298  : 			if( pSkill->dwSkill == SI_MAG_MAG_BLINKPOOL || pSkill->dwSkill == SI_RIG_HERO_RETURN )

  000bd	8b 00		 mov	 eax, DWORD PTR [eax]
  000bf	83 f8 6b	 cmp	 eax, 107		; 0000006bH
  000c2	0f 84 12 01 00
	00		 je	 $LN14@ProcessMov
  000c8	3d f4 00 00 00	 cmp	 eax, 244		; 000000f4H
  000cd	0f 84 07 01 00
	00		 je	 $LN14@ProcessMov
; File C:\IAGOS\server\v18\Source\Source\_Common\Obj.h

; 215  : 	D3DXVECTOR3		GetPos()	{ return m_vPos; }

  000d3	f3 0f 7e 86 60
	01 00 00	 movq	 xmm0, QWORD PTR [esi+352]
  000db	8b 86 68 01 00
	00		 mov	 eax, DWORD PTR [esi+360]
; File C:\IAGOS\server\v18\Source\Source\_Common\MoverMove.cpp

; 308  : 			if( pWorld->IntersectObjLine( NULL, vStart, vEnd, FALSE, FALSE ) )	// ˝ĂŔüŔÚżÍ Ĺ¸°Ů»çŔĚ ŔĺľÖą°Ŕ» °Ë»ç.

  000e1	8b 8e 6c 01 00
	00		 mov	 ecx, DWORD PTR [esi+364]
; File C:\IAGOS\server\v18\Source\Source\_Common\Obj.h

; 215  : 	D3DXVECTOR3		GetPos()	{ return m_vPos; }

  000e7	66 0f d6 45 e4	 movq	 QWORD PTR _vStart$1[ebp], xmm0
; File C:\IAGOS\server\v18\Source\Source\_Common\MoverMove.cpp

; 305  : 			D3DXVECTOR3 vStart = GetPos();			vStart.y += 0.5f;

  000ec	f3 0f 10 45 e8	 movss	 xmm0, DWORD PTR _vStart$1[ebp+4]
  000f1	f3 0f 58 05 00
	00 00 00	 addss	 xmm0, DWORD PTR __real@3f000000

; 308  : 			if( pWorld->IntersectObjLine( NULL, vStart, vEnd, FALSE, FALSE ) )	// ˝ĂŔüŔÚżÍ Ĺ¸°Ů»çŔĚ ŔĺľÖą°Ŕ» °Ë»ç.

  000f9	6a 01		 push	 1
; File C:\IAGOS\server\v18\Source\Source\_Common\Obj.h

; 215  : 	D3DXVECTOR3		GetPos()	{ return m_vPos; }

  000fb	89 45 ec	 mov	 DWORD PTR _vStart$1[ebp+8], eax
  000fe	8b 83 68 01 00
	00		 mov	 eax, DWORD PTR [ebx+360]
; File C:\IAGOS\server\v18\Source\Source\_Common\MoverMove.cpp

; 308  : 			if( pWorld->IntersectObjLine( NULL, vStart, vEnd, FALSE, FALSE ) )	// ˝ĂŔüŔÚżÍ Ĺ¸°Ů»çŔĚ ŔĺľÖą°Ŕ» °Ë»ç.

  00104	6a 00		 push	 0
  00106	f3 0f 11 45 e8	 movss	 DWORD PTR _vStart$1[ebp+4], xmm0
; File C:\IAGOS\server\v18\Source\Source\_Common\Obj.h

; 215  : 	D3DXVECTOR3		GetPos()	{ return m_vPos; }

  0010b	f3 0f 7e 83 60
	01 00 00	 movq	 xmm0, QWORD PTR [ebx+352]
  00113	66 0f d6 45 f0	 movq	 QWORD PTR _vEnd$2[ebp], xmm0
; File C:\IAGOS\server\v18\Source\Source\_Common\MoverMove.cpp

; 306  : 			D3DXVECTOR3 vEnd   = pObj->GetPos();	vEnd.y += 0.5f;

  00118	f3 0f 10 45 f4	 movss	 xmm0, DWORD PTR _vEnd$2[ebp+4]
  0011d	f3 0f 58 05 00
	00 00 00	 addss	 xmm0, DWORD PTR __real@3f000000
; File C:\IAGOS\server\v18\Source\Source\_Common\Obj.h

; 215  : 	D3DXVECTOR3		GetPos()	{ return m_vPos; }

  00125	89 45 f8	 mov	 DWORD PTR _vEnd$2[ebp+8], eax
; File C:\IAGOS\server\v18\Source\Source\_Common\MoverMove.cpp

; 308  : 			if( pWorld->IntersectObjLine( NULL, vStart, vEnd, FALSE, FALSE ) )	// ˝ĂŔüŔÚżÍ Ĺ¸°Ů»çŔĚ ŔĺľÖą°Ŕ» °Ë»ç.

  00128	8d 45 f0	 lea	 eax, DWORD PTR _vEnd$2[ebp]
  0012b	6a 00		 push	 0
  0012d	50		 push	 eax
  0012e	8d 45 e4	 lea	 eax, DWORD PTR _vStart$1[ebp]
  00131	50		 push	 eax
  00132	6a 00		 push	 0
  00134	f3 0f 11 45 f4	 movss	 DWORD PTR _vEnd$2[ebp+4], xmm0
  00139	e8 00 00 00 00	 call	 ?IntersectObjLine@CWorld@@QAEHPAUD3DXVECTOR3@@ABU2@1HHH@Z ; CWorld::IntersectObjLine
  0013e	85 c0		 test	 eax, eax
  00140	74 1e		 je	 SHORT $LN9@ProcessMov

; 309  : 			{
; 310  : 				if( IsPlayer() )

  00142	83 be 30 02 00
	00 00		 cmp	 DWORD PTR [esi+560], 0
  00149	74 6e		 je	 SHORT $LN36@ProcessMov

; 311  : 					((CUser *)this)->AddDefinedText( TID_GAME_BLOCKTARGETING, "" );

  0014b	68 00 00 00 00	 push	 OFFSET ??_C@_00CNPNBAHC@@
  00150	68 9f 02 00 00	 push	 671			; 0000029fH
  00155	56		 push	 esi
  00156	e8 00 00 00 00	 call	 ?AddDefinedText@CUser@@QAAXHPBDZZ ; CUser::AddDefinedText
  0015b	83 c4 0c	 add	 esp, 12			; 0000000cH

; 312  : 				break;

  0015e	eb 59		 jmp	 SHORT $LN36@ProcessMov
$LN9@ProcessMov:

; 313  : 			}
; 314  : 
; 315  : #if __VER >= 8 // __S8_PK
; 316  : 			BOOL bSuccess = DoUseSkill( 0, nSkillIdx, idTarget, sutType, FALSE );		// ¸ńÇĄÁöÁˇżˇ µµÂřÇĎ¸é ˝şĹł »çżë˝ĂŔŰ.

  00160	6a 00		 push	 0
  00162	ff 75 e0	 push	 DWORD PTR _sutType$1$[ebp]
  00165	8b ce		 mov	 ecx, esi
  00167	ff 75 dc	 push	 DWORD PTR _idTarget$1$[ebp]
  0016a	57		 push	 edi
  0016b	6a 00		 push	 0
  0016d	e8 00 00 00 00	 call	 ?DoUseSkill@CMover@@QAEHHHKW4SKILLUSETYPE@@H@Z ; CMover::DoUseSkill

; 317  : #else // __VER >= 8 // __S8_PK
; 318  : 			BOOL bSuccess = DoUseSkill( 0, nSkillIdx, idTarget, sutType );		// ¸ńÇĄÁöÁˇżˇ µµÂřÇĎ¸é ˝şĹł »çżë˝ĂŔŰ.
; 319  : #endif // __VER >= 8 // __S8_PK
; 320  : 			if( bSuccess == FALSE )

  00172	85 c0		 test	 eax, eax
  00174	75 14		 jne	 SHORT $LN12@ProcessMov

; 321  : 				if( IsPlayer() )

  00176	39 86 30 02 00
	00		 cmp	 DWORD PTR [esi+560], eax
  0017c	74 0c		 je	 SHORT $LN12@ProcessMov

; 322  : 					((CUser *)this)->m_playTaskBar.OnEndSkillQueue( (CUser *)this );

  0017e	56		 push	 esi
  0017f	8d 8e cc 55 00
	00		 lea	 ecx, DWORD PTR [esi+21964]
  00185	e8 00 00 00 00	 call	 ?OnEndSkillQueue@CUserTaskBar@@QAEXPAVCUser@@@Z ; CUserTaskBar::OnEndSkillQueue
$LN12@ProcessMov:
; File C:\IAGOS\server\v18\Source\Source\_Common\Mover.h

; 1785 : 	if( m_pActMover )	

  0018a	8b 8e 38 02 00
	00		 mov	 ecx, DWORD PTR [esi+568]

; 1030 : 	void			ClearDestObj()     	{ m_idDest = NULL_ID; m_fArrivalRange = 0.0f; }

  00190	c7 86 58 02 00
	00 ff ff ff ff	 mov	 DWORD PTR [esi+600], -1
  0019a	c7 86 54 02 00
	00 00 00 00 00	 mov	 DWORD PTR [esi+596], 0

; 1785 : 	if( m_pActMover )	

  001a4	85 c9		 test	 ecx, ecx
  001a6	74 11		 je	 SHORT $LN36@ProcessMov

; 1786 : 		return m_pActMover->SendActMsg( dwMsg, nParam1, nParam2, nParam3, nParam4 );	

  001a8	8b 01		 mov	 eax, DWORD PTR [ecx]
  001aa	6a 00		 push	 0
  001ac	6a 00		 push	 0
  001ae	6a 00		 push	 0
  001b0	6a 00		 push	 0
  001b2	6a 00		 push	 0
  001b4	6a 06		 push	 6
  001b6	ff 50 04	 call	 DWORD PTR [eax+4]
$LN36@ProcessMov:
; File C:\IAGOS\server\v18\Source\Source\_Common\MoverMove.cpp

; 336  : 	SetCmd( OBJACT_NONE );

  001b9	6a 00		 push	 0
  001bb	6a 00		 push	 0
  001bd	6a 00		 push	 0
  001bf	6a 00		 push	 0
  001c1	8b ce		 mov	 ecx, esi
  001c3	e8 00 00 00 00	 call	 ?SetCmd@CMover@@AAEXW4OBJACT@@HHH@Z ; CMover::SetCmd

; 337  : 	
; 338  : 	if( IsPlayer() )

  001c8	83 be 30 02 00
	00 00		 cmp	 DWORD PTR [esi+560], 0
  001cf	74 09		 je	 SHORT $LN14@ProcessMov

; 339  : 		((CUser*)this)->AddQueryGetDestObj( NULL_ID );

  001d1	6a ff		 push	 -1
  001d3	8b ce		 mov	 ecx, esi
  001d5	e8 00 00 00 00	 call	 ?AddQueryGetDestObj@CUser@@QAEXK@Z ; CUser::AddQueryGetDestObj
$LN14@ProcessMov:

; 340  : }

  001da	8b 4d fc	 mov	 ecx, DWORD PTR __$ArrayPad$[ebp]
  001dd	5f		 pop	 edi
  001de	5e		 pop	 esi
  001df	33 cd		 xor	 ecx, ebp
  001e1	5b		 pop	 ebx
  001e2	e8 00 00 00 00	 call	 @__security_check_cookie@4
  001e7	8b e5		 mov	 esp, ebp
  001e9	5d		 pop	 ebp
  001ea	c2 04 00	 ret	 4
?ProcessMoveArrival@CMover@@AAEXPAVCCtrl@@@Z ENDP	; CMover::ProcessMoveArrival
_TEXT	ENDS
; Function compile flags: /Ogtp
; File C:\IAGOS\server\v18\Source\Source\_Common\MoverMove.cpp
; File C:\IAGOS\server\v18\Source\Source\_Common\Mover.h
; File C:\IAGOS\server\v18\Source\Source\_AIInterface\Action.h
; File C:\IAGOS\server\v18\Source\Source\_Common\MoverMove.cpp
; File C:\IAGOS\server\v18\Source\Source\_Common\Obj.h
; File C:\IAGOS\server\v18\Source\Source\_Common\Mover.h
; File C:\IAGOS\server\v18\Source\Source\_Common\Obj.h
; File C:\IAGOS\server\v18\Source\Source\_Common\MoverMove.cpp
; File C:\IAGOS\server\v18\Source\Source\_Common\Mover.h
; File C:\IAGOS\server\v18\Source\Source\_Common\Obj.h
; File C:\IAGOS\server\v18\Source\Source\_Common\MoverMove.cpp
; File C:\IAGOS\server\v18\Source\Source\_Common\Mover.h
; File C:\IAGOS\server\v18\Source\Source\_Common\MoverMove.cpp
; File C:\IAGOS\server\v18\Source\Source\_Common\Mover.h
; File C:\IAGOS\server\v18\Source\Source\_Common\MoverMove.cpp
; File C:\IAGOS\server\v18\Source\Source\_Common\Obj.h
; File C:\IAGOS\server\v18\Source\Source\_Common\MoverMove.cpp
; File C:\IAGOS\server\v18\Source\Source\_Common\Mover.h
; File C:\IAGOS\server\v18\Source\Source\_Common\MoverMove.cpp
; File C:\IAGOS\server\v18\Source\Source\_Common\Mover.h
; File C:\IAGOS\server\v18\Source\Source\_Common\MoverMove.cpp
; File C:\IAGOS\server\v18\Source\Source\_AIInterface\Action.h
; File C:\IAGOS\server\v18\Source\Source\_Common\MoverMove.cpp
; File C:\IAGOS\server\v18\Source\Source\_Common\Mover.h
; File C:\IAGOS\server\v18\Source\Source\_Common\MoverMove.cpp
; File C:\IAGOS\server\v18\Source\Source\_AIInterface\Action.h
; File C:\IAGOS\server\v18\Source\Source\_Common\MoverMove.cpp
; File C:\IAGOS\server\v18\Source\Source\DX_SDK\d3dx9math.inl
; File C:\Program Files (x86)\Windows Kits\10\Include\10.0.26100.0\ucrt\corecrt_math.h
; File C:\IAGOS\server\v18\Source\Source\_Common\MoverMove.cpp
;	COMDAT ?ProcessMove@CMover@@AAEXXZ
_TEXT	SEGMENT
tv697 = -28						; size = 4
tv711 = -28						; size = 4
tv725 = -28						; size = 4
_vDestPos$ = -24					; size = 12
_vPos$ = -12						; size = 12
?ProcessMove@CMover@@AAEXXZ PROC			; CMover::ProcessMove, COMDAT
; _this$ = ecx

; 345  : {

  00000	55		 push	 ebp
  00001	8b ec		 mov	 ebp, esp
  00003	83 e4 f8	 and	 esp, -8			; fffffff8H
  00006	83 ec 20	 sub	 esp, 32			; 00000020H
  00009	56		 push	 esi
  0000a	8b f1		 mov	 esi, ecx
  0000c	57		 push	 edi

; 346  : 	if( m_pActMover->IsSit() )	

  0000d	8b 86 38 02 00
	00		 mov	 eax, DWORD PTR [esi+568]
  00013	f6 40 08 04	 test	 BYTE PTR [eax+8], 4
  00017	0f 85 23 03 00
	00		 jne	 $LN19@ProcessMov

; 347  : 		return;
; 348  : 
; 349  : 	EnforcedGhostCorr();	// °í˝şĆ®ŔÇ °­Á¦ µż±â°ˇ ÇĘżäÇĎ´Ů¸é ˝ÇÇŕ

  0001d	e8 00 00 00 00	 call	 ?EnforcedGhostCorr@CMover@@AAEXXZ ; CMover::EnforcedGhostCorr

; 350  : 	ApproachGhostAngle();	// °í˝şĆ®ŔÇ ¸ńÇĄ °˘µµ·ÎŔÇ ÁˇÁřŔűŔÎ °˘µµŔÇ şŻ°ć

  00022	8b ce		 mov	 ecx, esi
  00024	e8 00 00 00 00	 call	 ?ApproachGhostAngle@CMover@@AAEXXZ ; CMover::ApproachGhostAngle
; File C:\IAGOS\server\v18\Source\Source\_Common\Mover.h

; 1036 : 	BOOL			IsEmptyDestPos()	{ return m_vDestPos.x == 0.0f && m_vDestPos.z == 0.0f; }

  00029	f3 0f 10 96 5c
	02 00 00	 movss	 xmm2, DWORD PTR [esi+604]
  00031	0f 57 c9	 xorps	 xmm1, xmm1
  00034	0f 2e d1	 ucomiss xmm2, xmm1
  00037	9f		 lahf
  00038	f6 c4 44	 test	 ah, 68			; 00000044H
  0003b	7a 1e		 jp	 SHORT $LN73@ProcessMov
  0003d	f3 0f 10 86 64
	02 00 00	 movss	 xmm0, DWORD PTR [esi+612]
  00045	0f 2e c1	 ucomiss xmm0, xmm1
  00048	9f		 lahf
  00049	f6 c4 44	 test	 ah, 68			; 00000044H
  0004c	7a 0d		 jp	 SHORT $LN73@ProcessMov

; 1035 : 	BOOL			IsEmptyDestObj()	{ return m_idDest == NULL_ID; }

  0004e	83 be 58 02 00
	00 ff		 cmp	 DWORD PTR [esi+600], -1

; 1037 : 	BOOL			IsEmptyDest()		{ return IsEmptyDestPos() && IsEmptyDestObj(); }

  00055	0f 84 e5 02 00
	00		 je	 $LN19@ProcessMov
$LN73@ProcessMov:
; File C:\IAGOS\server\v18\Source\Source\_AIInterface\Action.h

; 322  : 	BOOL			IsActAttack()		{ return m_dwState & OBJSTA_ATK_ALL; }

  0005b	8b 86 38 02 00
	00		 mov	 eax, DWORD PTR [esi+568]
  00061	f7 40 04 00 00
	ff 00		 test	 DWORD PTR [eax+4], 16711680 ; 00ff0000H
; File C:\IAGOS\server\v18\Source\Source\_Common\MoverMove.cpp

; 354  : 	if( m_pActMover->IsActAttack() )

  00068	0f 85 d2 02 00
	00		 jne	 $LN19@ProcessMov
; File C:\IAGOS\server\v18\Source\Source\_Common\Obj.h

; 215  : 	D3DXVECTOR3		GetPos()	{ return m_vPos; }

  0006e	8b 86 68 01 00
	00		 mov	 eax, DWORD PTR [esi+360]
  00074	f3 0f 7e 86 60
	01 00 00	 movq	 xmm0, QWORD PTR [esi+352]
; File C:\IAGOS\server\v18\Source\Source\_Common\Mover.h

; 1036 : 	BOOL			IsEmptyDestPos()	{ return m_vDestPos.x == 0.0f && m_vDestPos.z == 0.0f; }

  0007c	0f 2e d1	 ucomiss xmm2, xmm1
; File C:\IAGOS\server\v18\Source\Source\_Common\Obj.h

; 215  : 	D3DXVECTOR3		GetPos()	{ return m_vPos; }

  0007f	89 44 24 24	 mov	 DWORD PTR _vPos$[esp+48], eax
; File C:\IAGOS\server\v18\Source\Source\_Common\MoverMove.cpp

; 358  : 	D3DXVECTOR3 vDestPos = m_vDestPos; 

  00083	8b 86 64 02 00
	00		 mov	 eax, DWORD PTR [esi+612]
  00089	89 44 24 18	 mov	 DWORD PTR _vDestPos$[esp+48], eax
; File C:\IAGOS\server\v18\Source\Source\_Common\Mover.h

; 1036 : 	BOOL			IsEmptyDestPos()	{ return m_vDestPos.x == 0.0f && m_vDestPos.z == 0.0f; }

  0008d	f3 0f 10 5c 24
	24		 movss	 xmm3, DWORD PTR _vPos$[esp+48]
; File C:\IAGOS\server\v18\Source\Source\_Common\Obj.h

; 215  : 	D3DXVECTOR3		GetPos()	{ return m_vPos; }

  00093	66 0f d6 44 24
	1c		 movq	 QWORD PTR _vPos$[esp+40], xmm0
; File C:\IAGOS\server\v18\Source\Source\_Common\MoverMove.cpp

; 358  : 	D3DXVECTOR3 vDestPos = m_vDestPos; 

  00099	f3 0f 7e 86 5c
	02 00 00	 movq	 xmm0, QWORD PTR [esi+604]
; File C:\IAGOS\server\v18\Source\Source\_Common\Mover.h

; 1036 : 	BOOL			IsEmptyDestPos()	{ return m_vDestPos.x == 0.0f && m_vDestPos.z == 0.0f; }

  000a1	f3 0f 10 64 24
	1c		 movss	 xmm4, DWORD PTR _vPos$[esp+40]
  000a7	9f		 lahf
; File C:\IAGOS\server\v18\Source\Source\_Common\MoverMove.cpp

; 358  : 	D3DXVECTOR3 vDestPos = m_vDestPos; 

  000a8	66 0f d6 44 24
	10		 movq	 QWORD PTR _vDestPos$[esp+40], xmm0
; File C:\IAGOS\server\v18\Source\Source\_Common\Mover.h

; 1036 : 	BOOL			IsEmptyDestPos()	{ return m_vDestPos.x == 0.0f && m_vDestPos.z == 0.0f; }

  000ae	f6 c4 44	 test	 ah, 68			; 00000044H
  000b1	0f 8a e5 00 00
	00		 jp	 $LN72@ProcessMov
  000b7	f3 0f 10 86 64
	02 00 00	 movss	 xmm0, DWORD PTR [esi+612]
  000bf	0f 2e c1	 ucomiss xmm0, xmm1
  000c2	9f		 lahf
  000c3	f6 c4 44	 test	 ah, 68			; 00000044H
  000c6	0f 8a d0 00 00
	00		 jp	 $LN72@ProcessMov
; File C:\IAGOS\server\v18\Source\Source\_Common\MoverMove.cpp

; 400  : 		CCtrl* pObj = prj.GetCtrl( m_idDest );

  000cc	ff b6 58 02 00
	00		 push	 DWORD PTR [esi+600]
  000d2	b9 00 00 00 00	 mov	 ecx, OFFSET ?prj@@3VCProject@@A ; prj
  000d7	e8 00 00 00 00	 call	 ?GetCtrl@CProject@@QAEPAVCCtrl@@K@Z ; CProject::GetCtrl
  000dc	8b f8		 mov	 edi, eax
; File C:\IAGOS\server\v18\Source\Source\_Common\Obj.h

; 327  : 	return pObj && ( pObj->IsDelete() == FALSE ); 

  000de	85 ff		 test	 edi, edi
  000e0	0f 84 91 00 00
	00		 je	 $LN43@ProcessMov

; 180  : 	BOOL			IsDelete()	{ return (m_dwFlags & OBJ_FLAG_DELETE);  }

  000e6	f6 47 04 01	 test	 BYTE PTR [edi+4], 1

; 327  : 	return pObj && ( pObj->IsDelete() == FALSE ); 

  000ea	0f 85 87 00 00
	00		 jne	 $LN43@ProcessMov
; File C:\IAGOS\server\v18\Source\Source\_Common\MoverMove.cpp

; 407  : 		vDestPos = pObj->GetPos(); 

  000f0	8b 87 68 01 00
	00		 mov	 eax, DWORD PTR [edi+360]
  000f6	f3 0f 7e 87 60
	01 00 00	 movq	 xmm0, QWORD PTR [edi+352]
  000fe	89 44 24 18	 mov	 DWORD PTR _vDestPos$[esp+48], eax

; 408  : 		if( m_pActMover->IsFly() )

  00102	8b 86 38 02 00
	00		 mov	 eax, DWORD PTR [esi+568]
  00108	51		 push	 ecx
  00109	66 0f d6 44 24
	14		 movq	 QWORD PTR _vDestPos$[esp+44], xmm0
  0010f	8b cf		 mov	 ecx, edi
  00111	f3 0f 10 86 54
	02 00 00	 movss	 xmm0, DWORD PTR [esi+596]
  00119	f6 40 08 08	 test	 BYTE PTR [eax+8], 8
  0011d	f3 0f 11 04 24	 movss	 DWORD PTR [esp], xmm0
  00122	56		 push	 esi
  00123	74 3b		 je	 SHORT $LN10@ProcessMov

; 409  : 		{
; 410  : 			BOOL bRangeObj = pObj->IsRangeObj( this, m_fArrivalRange );

  00125	e8 00 00 00 00	 call	 ?IsRangeObj@CObj@@QAEHPAV1@M@Z ; CObj::IsRangeObj

; 411  : 			if( bRangeObj == TRUE )

  0012a	83 f8 01	 cmp	 eax, 1
  0012d	75 23		 jne	 SHORT $LN75@ProcessMov

; 415  : 				OnArrive( pObj->GetId(), 0 );

  0012f	6a 00		 push	 0
; File C:\IAGOS\server\v18\Source\Source\_Common\Mover.h

; 1030 : 	void			ClearDestObj()     	{ m_idDest = NULL_ID; m_fArrivalRange = 0.0f; }

  00131	c7 86 58 02 00
	00 ff ff ff ff	 mov	 DWORD PTR [esi+600], -1
; File C:\IAGOS\server\v18\Source\Source\_Common\MoverMove.cpp

; 415  : 				OnArrive( pObj->GetId(), 0 );

  0013b	8b ce		 mov	 ecx, esi
; File C:\IAGOS\server\v18\Source\Source\_Common\Mover.h

; 1030 : 	void			ClearDestObj()     	{ m_idDest = NULL_ID; m_fArrivalRange = 0.0f; }

  0013d	c7 86 54 02 00
	00 00 00 00 00	 mov	 DWORD PTR [esi+596], 0
; File C:\IAGOS\server\v18\Source\Source\_Common\MoverMove.cpp

; 415  : 				OnArrive( pObj->GetId(), 0 );

  00147	ff b7 bc 01 00
	00		 push	 DWORD PTR [edi+444]
  0014d	e8 00 00 00 00	 call	 ?OnArrive@CMover@@AAEXKK@Z ; CMover::OnArrive
$LN75@ProcessMov:
; File C:\IAGOS\server\v18\Source\Source\_AIInterface\Action.h

; 309  : 	BOOL			IsFly() { return (m_dwStateFlag & OBJSTAF_FLY) ? TRUE : FALSE; }

  00152	f3 0f 10 5c 24
	24		 movss	 xmm3, DWORD PTR _vPos$[esp+48]
  00158	f3 0f 10 64 24
	1c		 movss	 xmm4, DWORD PTR _vPos$[esp+40]
  0015e	eb 72		 jmp	 SHORT $LN13@ProcessMov
$LN10@ProcessMov:
; File C:\IAGOS\server\v18\Source\Source\_Common\MoverMove.cpp

; 421  : 			if( pObj->IsRangeObj( this, m_fArrivalRange ) )		// 3D Ăćµążˇ ˝ÇĆĐÇßÁö¸¸

  00160	e8 00 00 00 00	 call	 ?IsRangeObj@CObj@@QAEHPAV1@M@Z ; CObj::IsRangeObj
  00165	85 c0		 test	 eax, eax
  00167	74 e9		 je	 SHORT $LN75@ProcessMov

; 422  : 			{
; 423  : 				ProcessMoveArrival( pObj );

  00169	57		 push	 edi
  0016a	8b ce		 mov	 ecx, esi
  0016c	e8 00 00 00 00	 call	 ?ProcessMoveArrival@CMover@@AAEXPAVCCtrl@@@Z ; CMover::ProcessMoveArrival

; 450  : } 

  00171	5f		 pop	 edi
  00172	5e		 pop	 esi
  00173	8b e5		 mov	 esp, ebp
  00175	5d		 pop	 ebp
  00176	c3		 ret	 0
$LN43@ProcessMov:
; File C:\IAGOS\server\v18\Source\Source\_Common\Mover.h

; 1785 : 	if( m_pActMover )	

  00177	8b 8e 38 02 00
	00		 mov	 ecx, DWORD PTR [esi+568]
  0017d	85 c9		 test	 ecx, ecx
  0017f	0f 84 bb 01 00
	00		 je	 $LN19@ProcessMov

; 1786 : 		return m_pActMover->SendActMsg( dwMsg, nParam1, nParam2, nParam3, nParam4 );	

  00185	8b 01		 mov	 eax, DWORD PTR [ecx]
  00187	6a 00		 push	 0
  00189	6a 00		 push	 0
  0018b	6a 00		 push	 0
  0018d	6a 00		 push	 0
  0018f	6a 00		 push	 0
  00191	6a 03		 push	 3
  00193	ff 50 04	 call	 DWORD PTR [eax+4]
; File C:\IAGOS\server\v18\Source\Source\_Common\MoverMove.cpp

; 450  : } 

  00196	5f		 pop	 edi
  00197	5e		 pop	 esi
  00198	8b e5		 mov	 esp, ebp
  0019a	5d		 pop	 ebp
  0019b	c3		 ret	 0
$LN72@ProcessMov:

; 359  : 
; 360  : 	if( !IsEmptyDestPos() )	// ÁÂÇĄ
; 361  : 	{
; 362  : 		bool bPositiveX = ( (vPos.x - vDestPos.x) > 0.0f );

  0019c	0f 28 c4	 movaps	 xmm0, xmm4

; 363  : 		bool bPositiveZ = ( (vPos.z - vDestPos.z) > 0.0f );

  0019f	0f 28 d3	 movaps	 xmm2, xmm3
  001a2	f3 0f 5c 44 24
	10		 subss	 xmm0, DWORD PTR _vDestPos$[esp+40]
  001a8	f3 0f 5c 54 24
	18		 subss	 xmm2, DWORD PTR _vDestPos$[esp+48]
  001ae	0f 2f c1	 comiss	 xmm0, xmm1
  001b1	0f 97 c0	 seta	 al

; 364  : 
; 365  : #ifdef __BS_FIX_ARRIVEPOS_ALGO		// ¸¶żě˝ş ¸ńŔűÁÂÇĄ ŔĚµż˝Ă Ŕý´ëĂŕ°ú °°Ŕş°ćżě Áß°Łżˇ ¸ŘĂß´Â Çö»óŔĚ ŔÖľú´Ů.
; 366  : 		if( ( bPositiveX != m_bPositiveX || bPositiveZ != m_bPositiveZ ) ) 
; 367  : 		{
; 368  : 			if( IsActiveMover( ) )
; 369  : 			{
; 370  : 				D3DXVECTOR3 kDir = vPos - vDestPos ;
; 371  : 				D3DXVec3Normalize( &kDir, &kDir );
; 372  : 
; 373  : 				D3DXVECTOR3 kMyDir;
; 374  : 				AngleToVectorXZ( &kMyDir, GetAngle(), 1.0f );
; 375  : 				D3DXVec3Normalize( &kMyDir, &kMyDir );
; 376  : 
; 377  : 				float fAngle = D3DXVec3Dot( &kDir, &kMyDir );
; 378  : 				if( fAngle > 0.0f )
; 379  : 				{
; 380  : 					OnArriveAtPos( );
; 381  : 					return;
; 382  : 				}
; 383  : 			}
; 384  : 			else
; 385  : 			{
; 386  : 				OnArriveAtPos( );
; 387  : 				return;
; 388  : 			}
; 389  : 		}
; 390  : #else
; 391  : 		if( ( bPositiveX != m_bPositiveX || bPositiveZ != m_bPositiveZ ) ) 

  001b4	3a 86 cd 02 00
	00		 cmp	 al, BYTE PTR [esi+717]
  001ba	0f 85 79 01 00
	00		 jne	 $LN8@ProcessMov

; 363  : 		bool bPositiveZ = ( (vPos.z - vDestPos.z) > 0.0f );

  001c0	0f 2f d1	 comiss	 xmm2, xmm1
  001c3	0f 97 c0	 seta	 al

; 364  : 
; 365  : #ifdef __BS_FIX_ARRIVEPOS_ALGO		// ¸¶żě˝ş ¸ńŔűÁÂÇĄ ŔĚµż˝Ă Ŕý´ëĂŕ°ú °°Ŕş°ćżě Áß°Łżˇ ¸ŘĂß´Â Çö»óŔĚ ŔÖľú´Ů.
; 366  : 		if( ( bPositiveX != m_bPositiveX || bPositiveZ != m_bPositiveZ ) ) 
; 367  : 		{
; 368  : 			if( IsActiveMover( ) )
; 369  : 			{
; 370  : 				D3DXVECTOR3 kDir = vPos - vDestPos ;
; 371  : 				D3DXVec3Normalize( &kDir, &kDir );
; 372  : 
; 373  : 				D3DXVECTOR3 kMyDir;
; 374  : 				AngleToVectorXZ( &kMyDir, GetAngle(), 1.0f );
; 375  : 				D3DXVec3Normalize( &kMyDir, &kMyDir );
; 376  : 
; 377  : 				float fAngle = D3DXVec3Dot( &kDir, &kMyDir );
; 378  : 				if( fAngle > 0.0f )
; 379  : 				{
; 380  : 					OnArriveAtPos( );
; 381  : 					return;
; 382  : 				}
; 383  : 			}
; 384  : 			else
; 385  : 			{
; 386  : 				OnArriveAtPos( );
; 387  : 				return;
; 388  : 			}
; 389  : 		}
; 390  : #else
; 391  : 		if( ( bPositiveX != m_bPositiveX || bPositiveZ != m_bPositiveZ ) ) 

  001c6	3a 86 ce 02 00
	00		 cmp	 al, BYTE PTR [esi+718]
  001cc	0f 85 67 01 00
	00		 jne	 $LN8@ProcessMov
$LN13@ProcessMov:
; File C:\IAGOS\server\v18\Source\Source\_AIInterface\Action.h

; 309  : 	BOOL			IsFly() { return (m_dwStateFlag & OBJSTAF_FLY) ? TRUE : FALSE; }

  001d2	8b be 38 02 00
	00		 mov	 edi, DWORD PTR [esi+568]
; File C:\IAGOS\server\v18\Source\Source\_Common\MoverMove.cpp

; 430  : 	if( m_pActMover->IsFly() )

  001d8	8b 86 78 02 00
	00		 mov	 eax, DWORD PTR [esi+632]
  001de	f6 47 08 08	 test	 BYTE PTR [edi+8], 8
  001e2	0f 84 ad 00 00
	00		 je	 $LN14@ProcessMov

; 431  : 	{
; 432  : 		if( m_uRemnantCorrFrm > 0 ) 

  001e8	85 c0		 test	 eax, eax
  001ea	0f 84 50 01 00
	00		 je	 $LN19@ProcessMov
; File C:\IAGOS\server\v18\Source\Source\DX_SDK\d3dx9math.inl

; 383  :     return D3DXVECTOR3(x - v.x, y - v.y, z - v.z);

  001f0	f3 0f 10 4c 24
	10		 movss	 xmm1, DWORD PTR _vDestPos$[esp+40]
  001f6	f3 0f 10 54 24
	14		 movss	 xmm2, DWORD PTR _vDestPos$[esp+44]
  001fc	f3 0f 5c cc	 subss	 xmm1, xmm4
  00200	f3 0f 5c 54 24
	20		 subss	 xmm2, DWORD PTR _vPos$[esp+44]
  00206	f3 0f 10 44 24
	18		 movss	 xmm0, DWORD PTR _vDestPos$[esp+48]
  0020c	f3 0f 5c c3	 subss	 xmm0, xmm3

; 1684 :     return sqrtf(pV->x * pV->x + pV->y * pV->y + pV->z * pV->z);

  00210	f3 0f 59 c9	 mulss	 xmm1, xmm1

; 302  :     z = fz;

  00214	f3 0f 59 d2	 mulss	 xmm2, xmm2

; 1684 :     return sqrtf(pV->x * pV->x + pV->y * pV->y + pV->z * pV->z);

  00218	f3 0f 59 c0	 mulss	 xmm0, xmm0
  0021c	f3 0f 58 d1	 addss	 xmm2, xmm1
  00220	0f 57 c9	 xorps	 xmm1, xmm1
  00223	f3 0f 58 d0	 addss	 xmm2, xmm0
; File C:\Program Files (x86)\Windows Kits\10\Include\10.0.26100.0\ucrt\corecrt_math.h

; 799  :             return (float)sqrt(_X);

  00227	0f 5a c2	 cvtps2pd xmm0, xmm2
  0022a	66 0f 2e c8	 ucomisd xmm1, xmm0
  0022e	77 06		 ja	 SHORT $LN76@ProcessMov
  00230	f2 0f 51 c0	 sqrtsd	 xmm0, xmm0
  00234	eb 05		 jmp	 SHORT $LN77@ProcessMov
$LN76@ProcessMov:
  00236	e8 00 00 00 00	 call	 __libm_sse2_sqrt_precise
$LN77@ProcessMov:
  0023b	f2 0f 5a c0	 cvtsd2ss xmm0, xmm0
; File C:\IAGOS\server\v18\Source\Source\_Common\MoverMove.cpp

; 436  : 			SendActMsg( OBJMSG_TURNMOVE, (int)GetDegree( vDestPos, vPos ), (int)GetDegreeX( vDestPos, vPos ), 0 );

  0023f	8d 44 24 1c	 lea	 eax, DWORD PTR _vPos$[esp+40]
  00243	50		 push	 eax
  00244	8d 44 24 14	 lea	 eax, DWORD PTR _vDestPos$[esp+44]
  00248	50		 push	 eax
  00249	f3 0f 11 87 90
	00 00 00	 movss	 DWORD PTR [edi+144], xmm0
  00251	e8 00 00 00 00	 call	 ?GetDegreeX@@YAMABUD3DXVECTOR3@@0@Z ; GetDegreeX
  00256	d9 5c 24 14	 fstp	 DWORD PTR tv725[esp+48]
  0025a	f3 0f 2c 44 24
	14		 cvttss2si eax, DWORD PTR tv725[esp+48]
  00260	83 c4 08	 add	 esp, 8
  00263	6a 00		 push	 0
  00265	6a 00		 push	 0
  00267	50		 push	 eax
  00268	8d 44 24 28	 lea	 eax, DWORD PTR _vPos$[esp+52]
  0026c	50		 push	 eax
  0026d	8d 44 24 20	 lea	 eax, DWORD PTR _vDestPos$[esp+56]
  00271	50		 push	 eax
  00272	e8 00 00 00 00	 call	 ?GetDegree@@YAMABUD3DXVECTOR3@@0@Z ; GetDegree
  00277	83 c4 08	 add	 esp, 8
  0027a	e8 00 00 00 00	 call	 __ftol2_sse
  0027f	50		 push	 eax
  00280	6a 2f		 push	 47			; 0000002fH
  00282	8b ce		 mov	 ecx, esi
  00284	e8 00 00 00 00	 call	 ?SendActMsg@CMover@@QAEHW4OBJMSG@@HHHH@Z ; CMover::SendActMsg

; 437  : 			m_uRemnantCorrFrm--;

  00289	ff 8e 78 02 00
	00		 dec	 DWORD PTR [esi+632]

; 450  : } 

  0028f	5f		 pop	 edi
  00290	5e		 pop	 esi
  00291	8b e5		 mov	 esp, ebp
  00293	5d		 pop	 ebp
  00294	c3		 ret	 0
$LN14@ProcessMov:

; 438  : 		}
; 439  : 	}
; 440  : 	else
; 441  : 	{
; 442  : 		if( m_uRemnantCorrFrm > 0 )

  00295	85 c0		 test	 eax, eax
  00297	74 07		 je	 SHORT $LN17@ProcessMov

; 443  : 			m_uRemnantCorrFrm--;

  00299	48		 dec	 eax
  0029a	89 86 78 02 00
	00		 mov	 DWORD PTR [esi+632], eax
$LN17@ProcessMov:

; 444  : 
; 445  : 		if( m_bForward ) 

  002a0	80 be cc 02 00
	00 00		 cmp	 BYTE PTR [esi+716], 0
  002a7	74 48		 je	 SHORT $LN18@ProcessMov

; 446  : 			SendActMsg( OBJMSG_TURNMOVE, (int)GetDegree( vDestPos, vPos ), (int)GetDegreeX( vDestPos, vPos ) );

  002a9	8d 44 24 1c	 lea	 eax, DWORD PTR _vPos$[esp+40]
  002ad	50		 push	 eax
  002ae	8d 44 24 14	 lea	 eax, DWORD PTR _vDestPos$[esp+44]
  002b2	50		 push	 eax
  002b3	e8 00 00 00 00	 call	 ?GetDegreeX@@YAMABUD3DXVECTOR3@@0@Z ; GetDegreeX
  002b8	d9 5c 24 14	 fstp	 DWORD PTR tv711[esp+48]
  002bc	f3 0f 2c 44 24
	14		 cvttss2si eax, DWORD PTR tv711[esp+48]
  002c2	83 c4 08	 add	 esp, 8
  002c5	6a 00		 push	 0
  002c7	6a 00		 push	 0
  002c9	50		 push	 eax
  002ca	8d 44 24 28	 lea	 eax, DWORD PTR _vPos$[esp+52]
  002ce	50		 push	 eax
  002cf	8d 44 24 20	 lea	 eax, DWORD PTR _vDestPos$[esp+56]
  002d3	50		 push	 eax
  002d4	e8 00 00 00 00	 call	 ?GetDegree@@YAMABUD3DXVECTOR3@@0@Z ; GetDegree
  002d9	83 c4 08	 add	 esp, 8
  002dc	e8 00 00 00 00	 call	 __ftol2_sse
  002e1	50		 push	 eax
  002e2	6a 2f		 push	 47			; 0000002fH
  002e4	8b ce		 mov	 ecx, esi
  002e6	e8 00 00 00 00	 call	 ?SendActMsg@CMover@@QAEHW4OBJMSG@@HHHH@Z ; CMover::SendActMsg

; 450  : } 

  002eb	5f		 pop	 edi
  002ec	5e		 pop	 esi
  002ed	8b e5		 mov	 esp, ebp
  002ef	5d		 pop	 ebp
  002f0	c3		 ret	 0
$LN18@ProcessMov:

; 447  : 		else 
; 448  : 			SendActMsg( OBJMSG_TURNMOVE2, (int)GetDegree( vPos, vDestPos ),  (int)GetDegreeX( vPos, vDestPos ) );

  002f1	8d 44 24 10	 lea	 eax, DWORD PTR _vDestPos$[esp+40]
  002f5	50		 push	 eax
  002f6	8d 44 24 20	 lea	 eax, DWORD PTR _vPos$[esp+44]
  002fa	50		 push	 eax
  002fb	e8 00 00 00 00	 call	 ?GetDegreeX@@YAMABUD3DXVECTOR3@@0@Z ; GetDegreeX
  00300	d9 5c 24 14	 fstp	 DWORD PTR tv697[esp+48]
  00304	f3 0f 2c 44 24
	14		 cvttss2si eax, DWORD PTR tv697[esp+48]
  0030a	83 c4 08	 add	 esp, 8
  0030d	6a 00		 push	 0
  0030f	6a 00		 push	 0
  00311	50		 push	 eax
  00312	8d 44 24 1c	 lea	 eax, DWORD PTR _vDestPos$[esp+52]
  00316	50		 push	 eax
  00317	8d 44 24 2c	 lea	 eax, DWORD PTR _vPos$[esp+56]
  0031b	50		 push	 eax
  0031c	e8 00 00 00 00	 call	 ?GetDegree@@YAMABUD3DXVECTOR3@@0@Z ; GetDegree
  00321	83 c4 08	 add	 esp, 8
  00324	e8 00 00 00 00	 call	 __ftol2_sse
  00329	50		 push	 eax
  0032a	6a 30		 push	 48			; 00000030H
  0032c	8b ce		 mov	 ecx, esi
  0032e	e8 00 00 00 00	 call	 ?SendActMsg@CMover@@QAEHW4OBJMSG@@HHHH@Z ; CMover::SendActMsg

; 450  : } 

  00333	5f		 pop	 edi
  00334	5e		 pop	 esi
  00335	8b e5		 mov	 esp, ebp
  00337	5d		 pop	 ebp
  00338	c3		 ret	 0
$LN8@ProcessMov:

; 392  : 		{
; 393  : 			OnArriveAtPos();									// ÁÂÇĄżˇ µµÂřÇßŔ» ¶§ŔÇ Ăł¸®

  00339	8b ce		 mov	 ecx, esi
  0033b	e8 00 00 00 00	 call	 ?OnArriveAtPos@CMover@@AAEXXZ ; CMover::OnArriveAtPos
$LN19@ProcessMov:

; 450  : } 

  00340	5f		 pop	 edi
  00341	5e		 pop	 esi
  00342	8b e5		 mov	 esp, ebp
  00344	5d		 pop	 ebp
  00345	c3		 ret	 0
?ProcessMove@CMover@@AAEXXZ ENDP			; CMover::ProcessMove
_TEXT	ENDS
; Function compile flags: /Ogtp
; File C:\IAGOS\server\v18\Source\Source\_Common\MoverMove.cpp
; File C:\IAGOS\server\v18\Source\Source\_Common\Mover.h
; File C:\IAGOS\server\v18\Source\Source\_Common\MoverMove.cpp
; File C:\IAGOS\server\v18\Source\Source\_Common\Mover.h
; File C:\IAGOS\server\v18\Source\Source\_Common\MoverMove.cpp
; File C:\IAGOS\server\v18\Source\Source\_Common\Mover.h
; File C:\IAGOS\server\v18\Source\Source\_Common\MoverMove.cpp
; File C:\IAGOS\server\v18\Source\Source\_Common\Mover.h
; File C:\IAGOS\server\v18\Source\Source\_Common\MoverMove.cpp
; File C:\IAGOS\server\v18\Source\Source\_Common\Mover.h
; File C:\IAGOS\server\v18\Source\Source\_Common\MoverMove.cpp
; File C:\IAGOS\server\v18\Source\Source\_Common\Mover.h
; File C:\IAGOS\server\v18\Source\Source\_Common\MoverMove.cpp
; File C:\IAGOS\server\v18\Source\Source\_Common\Mover.h
; File C:\IAGOS\server\v18\Source\Source\_Common\MoverMove.cpp
; File C:\IAGOS\server\v18\Source\Source\_Common\Mover.h
; File C:\IAGOS\server\v18\Source\Source\_Common\MoverMove.cpp
; File C:\IAGOS\server\v18\Source\Source\_Common\Mover.h
; File C:\IAGOS\server\v18\Source\Source\_Common\MoverMove.cpp
; File C:\IAGOS\server\v18\Source\Source\_Common\Mover.h
; File C:\IAGOS\server\v18\Source\Source\_Common\MoverMove.cpp
; File C:\IAGOS\server\v18\Source\Source\_Common\Mover.h
; File C:\IAGOS\server\v18\Source\Source\_Common\MoverMove.cpp
; File C:\IAGOS\server\v18\Source\Source\_Common\Mover.h
; File C:\IAGOS\server\v18\Source\Source\_Common\MoverMove.cpp
; File C:\IAGOS\server\v18\Source\Source\_Common\Mover.h
; File C:\IAGOS\server\v18\Source\Source\_Common\MoverMove.cpp
; File C:\IAGOS\server\v18\Source\Source\_Common\Mover.h
; File C:\IAGOS\server\v18\Source\Source\_Common\MoverMove.cpp
; File C:\IAGOS\server\v18\Source\Source\_Common\Mover.h
; File C:\IAGOS\server\v18\Source\Source\_Common\MoverMove.cpp
; File C:\IAGOS\server\v18\Source\Source\_Common\Mover.h
; File C:\IAGOS\server\v18\Source\Source\_Common\MoverMove.cpp
; File C:\IAGOS\server\v18\Source\Source\_Common\Mover.h
; File C:\IAGOS\server\v18\Source\Source\_Common\MoverMove.cpp
; File C:\IAGOS\server\v18\Source\Source\_Common\Mover.h
; File C:\IAGOS\server\v18\Source\Source\_Common\MoverMove.cpp
; File C:\IAGOS\server\v18\Source\Source\_Common\Mover.h
; File C:\IAGOS\server\v18\Source\Source\_Common\MoverMove.cpp
; File C:\IAGOS\server\v18\Source\Source\_Common\Mover.h
; File C:\IAGOS\server\v18\Source\Source\_Common\MoverMove.cpp
; File C:\IAGOS\server\v18\Source\Source\_Common\Mover.h
; File C:\IAGOS\server\v18\Source\Source\_Common\MoverMove.cpp
; File C:\IAGOS\server\v18\Source\Source\_Common\Mover.h
; File C:\IAGOS\server\v18\Source\Source\_Common\MoverMove.cpp
; File C:\IAGOS\server\v18\Source\Source\_Common\Mover.h
; File C:\IAGOS\server\v18\Source\Source\_Common\MoverMove.cpp
; File C:\IAGOS\server\v18\Source\Source\_Common\Mover.h
; File C:\IAGOS\server\v18\Source\Source\_Common\MoverMove.cpp
; File C:\IAGOS\server\v18\Source\Source\_Common\Mover.h
; File C:\IAGOS\server\v18\Source\Source\_Common\MoverMove.cpp
; File C:\IAGOS\server\v18\Source\Source\_Common\Mover.h
; File C:\IAGOS\server\v18\Source\Source\_Common\MoverMove.cpp
; File C:\IAGOS\server\v18\Source\Source\_Common\Mover.h
; File C:\IAGOS\server\v18\Source\Source\_Common\MoverMove.cpp
; File C:\IAGOS\server\v18\Source\Source\_Common\Mover.h
; File C:\IAGOS\server\v18\Source\Source\_Common\MoverMove.cpp
;	COMDAT ?ProcessMovePattern@CMover@@QAEXXZ
_TEXT	SEGMENT
?ProcessMovePattern@CMover@@QAEXXZ PROC			; CMover::ProcessMovePattern, COMDAT
; _this$ = ecx

; 454  : {

  00000	56		 push	 esi
  00001	8b f1		 mov	 esi, ecx

; 455  : 	if( m_nMovePattern == 1 )	// 8ŔÚŔĚµż ĆĐĹĎ.

  00003	8b 86 c0 14 00
	00		 mov	 eax, DWORD PTR [esi+5312]
  00009	83 f8 01	 cmp	 eax, 1
  0000c	0f 85 c9 02 00
	00		 jne	 $LN6@ProcessMov

; 456  : 	{
; 457  : 		switch( m_nMoveEvent )

  00012	8b 86 c4 14 00
	00		 mov	 eax, DWORD PTR [esi+5316]
  00018	83 f8 04	 cmp	 eax, 4
  0001b	0f 87 ef 04 00
	00		 ja	 $LN49@ProcessMov
  00021	ff 24 85 00 00
	00 00		 jmp	 DWORD PTR $LN228@ProcessMov[eax*4]
$LN8@ProcessMov:

; 458  : 		{
; 459  : 		case 0:			
; 460  : 			m_nMoveEvent ++;

  00028	40		 inc	 eax

; 461  : 			m_nMoveEventCnt = 0;

  00029	c7 86 c8 14 00
	00 00 00 00 00	 mov	 DWORD PTR [esi+5320], 0
  00033	89 86 c4 14 00
	00		 mov	 DWORD PTR [esi+5316], eax
$LN9@ProcessMov:
; File C:\IAGOS\server\v18\Source\Source\_Common\Mover.h

; 1785 : 	if( m_pActMover )	

  00039	8b 8e 38 02 00
	00		 mov	 ecx, DWORD PTR [esi+568]
  0003f	85 c9		 test	 ecx, ecx
  00041	74 11		 je	 SHORT $LN53@ProcessMov

; 1786 : 		return m_pActMover->SendActMsg( dwMsg, nParam1, nParam2, nParam3, nParam4 );	

  00043	8b 01		 mov	 eax, DWORD PTR [ecx]
  00045	6a 00		 push	 0
  00047	6a 00		 push	 0
  00049	6a 00		 push	 0
  0004b	6a 00		 push	 0
  0004d	6a 00		 push	 0
  0004f	6a 01		 push	 1
  00051	ff 50 04	 call	 DWORD PTR [eax+4]
$LN53@ProcessMov:
; File C:\IAGOS\server\v18\Source\Source\_Common\MoverMove.cpp

; 465  : 			if( (m_nMoveEventCnt & 3) == 0 )

  00054	8b 86 c8 14 00
	00		 mov	 eax, DWORD PTR [esi+5320]
  0005a	8b 8e 38 02 00
	00		 mov	 ecx, DWORD PTR [esi+568]
  00060	83 e0 03	 and	 eax, 3
; File C:\IAGOS\server\v18\Source\Source\_Common\Mover.h

; 1785 : 	if( m_pActMover )	

  00063	85 c9		 test	 ecx, ecx
  00065	74 19		 je	 SHORT $LN61@ProcessMov
; File C:\IAGOS\server\v18\Source\Source\_Common\MoverMove.cpp

; 465  : 			if( (m_nMoveEventCnt & 3) == 0 )

  00067	6a 00		 push	 0
  00069	6a 00		 push	 0
  0006b	6a 00		 push	 0
  0006d	6a 00		 push	 0
  0006f	85 c0		 test	 eax, eax
  00071	8b 01		 mov	 eax, DWORD PTR [ecx]
  00073	6a 00		 push	 0
  00075	75 04		 jne	 SHORT $LN10@ProcessMov
; File C:\IAGOS\server\v18\Source\Source\_Common\Mover.h

; 1786 : 		return m_pActMover->SendActMsg( dwMsg, nParam1, nParam2, nParam3, nParam4 );	

  00077	6a 08		 push	 8
; File C:\IAGOS\server\v18\Source\Source\_Common\MoverMove.cpp

; 466  : 				SendActMsg( OBJMSG_LTURN );

  00079	eb 02		 jmp	 SHORT $LN292@ProcessMov
$LN10@ProcessMov:
; File C:\IAGOS\server\v18\Source\Source\_Common\Mover.h

; 1786 : 		return m_pActMover->SendActMsg( dwMsg, nParam1, nParam2, nParam3, nParam4 );	

  0007b	6a 0a		 push	 10			; 0000000aH
$LN292@ProcessMov:
; File C:\IAGOS\server\v18\Source\Source\_Common\MoverMove.cpp

; 470  : 			if( ++m_nMoveEventCnt > SEC1 * 2 )

  0007d	ff 50 04	 call	 DWORD PTR [eax+4]
$LN61@ProcessMov:
  00080	ff 86 c8 14 00
	00		 inc	 DWORD PTR [esi+5320]
  00086	83 be c8 14 00
	00 1e		 cmp	 DWORD PTR [esi+5320], 30 ; 0000001eH
  0008d	0f 8e 7d 04 00
	00		 jle	 $LN49@ProcessMov

; 471  : 			{
; 472  : 				m_nMoveEventCnt = 0;
; 473  : 				m_nMoveEvent ++;
; 474  : //				SendActMsg( OBJMSG_STOP );
; 475  : 			}
; 476  : 			break;

  00093	e9 be 02 00 00	 jmp	 $LN308@ProcessMov
$LN13@ProcessMov:
; File C:\IAGOS\server\v18\Source\Source\_Common\Mover.h

; 1785 : 	if( m_pActMover )	

  00098	8b 8e 38 02 00
	00		 mov	 ecx, DWORD PTR [esi+568]
  0009e	85 c9		 test	 ecx, ecx
  000a0	74 11		 je	 SHORT $LN65@ProcessMov

; 1786 : 		return m_pActMover->SendActMsg( dwMsg, nParam1, nParam2, nParam3, nParam4 );	

  000a2	8b 01		 mov	 eax, DWORD PTR [ecx]
  000a4	6a 00		 push	 0
  000a6	6a 00		 push	 0
  000a8	6a 00		 push	 0
  000aa	6a 00		 push	 0
  000ac	6a 00		 push	 0
  000ae	6a 01		 push	 1
  000b0	ff 50 04	 call	 DWORD PTR [eax+4]
$LN65@ProcessMov:
; File C:\IAGOS\server\v18\Source\Source\_Common\MoverMove.cpp

; 479  : 			if( (m_nMoveEventCnt & 3) == 0 )

  000b3	8b 86 c8 14 00
	00		 mov	 eax, DWORD PTR [esi+5320]
  000b9	8b 8e 38 02 00
	00		 mov	 ecx, DWORD PTR [esi+568]
  000bf	83 e0 03	 and	 eax, 3
; File C:\IAGOS\server\v18\Source\Source\_Common\Mover.h

; 1785 : 	if( m_pActMover )	

  000c2	85 c9		 test	 ecx, ecx
  000c4	74 19		 je	 SHORT $LN85@ProcessMov
; File C:\IAGOS\server\v18\Source\Source\_Common\MoverMove.cpp

; 479  : 			if( (m_nMoveEventCnt & 3) == 0 )

  000c6	6a 00		 push	 0
  000c8	6a 00		 push	 0
  000ca	6a 00		 push	 0
  000cc	6a 00		 push	 0
  000ce	85 c0		 test	 eax, eax
  000d0	8b 01		 mov	 eax, DWORD PTR [ecx]
  000d2	6a 00		 push	 0
  000d4	75 04		 jne	 SHORT $LN14@ProcessMov
; File C:\IAGOS\server\v18\Source\Source\_Common\Mover.h

; 1786 : 		return m_pActMover->SendActMsg( dwMsg, nParam1, nParam2, nParam3, nParam4 );	

  000d6	6a 09		 push	 9
; File C:\IAGOS\server\v18\Source\Source\_Common\MoverMove.cpp

; 480  : 				SendActMsg( OBJMSG_RTURN );

  000d8	eb 02		 jmp	 SHORT $LN293@ProcessMov
$LN14@ProcessMov:
; File C:\IAGOS\server\v18\Source\Source\_Common\Mover.h

; 1786 : 		return m_pActMover->SendActMsg( dwMsg, nParam1, nParam2, nParam3, nParam4 );	

  000da	6a 0a		 push	 10			; 0000000aH
$LN293@ProcessMov:
; File C:\IAGOS\server\v18\Source\Source\_Common\MoverMove.cpp

; 483  : 			if( m_nMoveEventCnt < (SEC1 * 5) / 2 )

  000dc	ff 50 04	 call	 DWORD PTR [eax+4]
$LN85@ProcessMov:
  000df	83 be c8 14 00
	00 25		 cmp	 DWORD PTR [esi+5320], 37 ; 00000025H
  000e6	8b 8e 38 02 00
	00		 mov	 ecx, DWORD PTR [esi+568]
  000ec	7d 12		 jge	 SHORT $LN16@ProcessMov
; File C:\IAGOS\server\v18\Source\Source\_Common\Mover.h

; 1785 : 	if( m_pActMover )	

  000ee	85 c9		 test	 ecx, ecx
  000f0	74 4b		 je	 SHORT $LN169@ProcessMov

; 1786 : 		return m_pActMover->SendActMsg( dwMsg, nParam1, nParam2, nParam3, nParam4 );	

  000f2	6a 00		 push	 0
  000f4	6a 00		 push	 0
  000f6	6a 00		 push	 0
  000f8	6a 00		 push	 0
  000fa	6a 00		 push	 0
  000fc	6a 2b		 push	 43			; 0000002bH
; File C:\IAGOS\server\v18\Source\Source\_Common\MoverMove.cpp

; 486  : 			} else

  000fe	eb 38		 jmp	 SHORT $LN294@ProcessMov
$LN16@ProcessMov:

; 487  : 			if( m_nMoveEventCnt == (SEC1 * 5) / 2 )

  00100	75 26		 jne	 SHORT $LN18@ProcessMov
; File C:\IAGOS\server\v18\Source\Source\_Common\Mover.h

; 1785 : 	if( m_pActMover )	

  00102	85 c9		 test	 ecx, ecx
  00104	74 11		 je	 SHORT $LN153@ProcessMov

; 1786 : 		return m_pActMover->SendActMsg( dwMsg, nParam1, nParam2, nParam3, nParam4 );	

  00106	8b 01		 mov	 eax, DWORD PTR [ecx]
  00108	6a 00		 push	 0
  0010a	6a 00		 push	 0
  0010c	6a 00		 push	 0
  0010e	6a 00		 push	 0
  00110	6a 00		 push	 0
  00112	6a 2d		 push	 45			; 0000002dH
  00114	ff 50 04	 call	 DWORD PTR [eax+4]
$LN153@ProcessMov:
; File C:\IAGOS\server\v18\Source\Source\_Common\MoverMove.cpp

; 490  : 				SetAngleX( 0 );		// ĽöĆňŔ¸·Î ¸ÂĂă.

  00117	51		 push	 ecx
  00118	8b ce		 mov	 ecx, esi
  0011a	c7 04 24 00 00
	00 00		 mov	 DWORD PTR [esp], 0
  00121	e8 00 00 00 00	 call	 ?SetAngleX@CObj@@QAEXM@Z ; CObj::SetAngleX

; 491  : 			} else

  00126	eb 15		 jmp	 SHORT $LN169@ProcessMov
$LN18@ProcessMov:
; File C:\IAGOS\server\v18\Source\Source\_Common\Mover.h

; 1785 : 	if( m_pActMover )	

  00128	85 c9		 test	 ecx, ecx
  0012a	74 11		 je	 SHORT $LN169@ProcessMov

; 1786 : 		return m_pActMover->SendActMsg( dwMsg, nParam1, nParam2, nParam3, nParam4 );	

  0012c	6a 00		 push	 0
  0012e	6a 00		 push	 0
  00130	6a 00		 push	 0
  00132	6a 00		 push	 0
  00134	6a 00		 push	 0
  00136	6a 2c		 push	 44			; 0000002cH
$LN294@ProcessMov:
; File C:\IAGOS\server\v18\Source\Source\_Common\MoverMove.cpp

; 496  : 			if( ++m_nMoveEventCnt > SEC1 * 5 )

  00138	8b 01		 mov	 eax, DWORD PTR [ecx]
  0013a	ff 50 04	 call	 DWORD PTR [eax+4]
$LN169@ProcessMov:
  0013d	ff 86 c8 14 00
	00		 inc	 DWORD PTR [esi+5320]
  00143	83 be c8 14 00
	00 4b		 cmp	 DWORD PTR [esi+5320], 75 ; 0000004bH
  0014a	0f 8e c0 03 00
	00		 jle	 $LN49@ProcessMov

; 497  : 			{
; 498  : 				m_nMoveEventCnt = 0;
; 499  : 				m_nMoveEvent ++;

  00150	ff 86 c4 14 00
	00		 inc	 DWORD PTR [esi+5316]
  00156	e9 4b 03 00 00	 jmp	 $LN300@ProcessMov
$LN21@ProcessMov:
; File C:\IAGOS\server\v18\Source\Source\_Common\Mover.h

; 1785 : 	if( m_pActMover )	

  0015b	8b 8e 38 02 00
	00		 mov	 ecx, DWORD PTR [esi+568]
  00161	85 c9		 test	 ecx, ecx
  00163	74 11		 je	 SHORT $LN69@ProcessMov

; 1786 : 		return m_pActMover->SendActMsg( dwMsg, nParam1, nParam2, nParam3, nParam4 );	

  00165	8b 01		 mov	 eax, DWORD PTR [ecx]
  00167	6a 00		 push	 0
  00169	6a 00		 push	 0
  0016b	6a 00		 push	 0
  0016d	6a 00		 push	 0
  0016f	6a 00		 push	 0
  00171	6a 01		 push	 1
  00173	ff 50 04	 call	 DWORD PTR [eax+4]
$LN69@ProcessMov:
; File C:\IAGOS\server\v18\Source\Source\_Common\MoverMove.cpp

; 508  : 			if( m_nMoveEventCnt < (SEC1 * 5) / 2 )		// 

  00176	8b 86 c8 14 00
	00		 mov	 eax, DWORD PTR [esi+5320]
  0017c	8b d0		 mov	 edx, eax
  0017e	8b 8e 38 02 00
	00		 mov	 ecx, DWORD PTR [esi+568]
  00184	83 e2 03	 and	 edx, 3
  00187	83 f8 25	 cmp	 eax, 37			; 00000025H
  0018a	7d 18		 jge	 SHORT $LN22@ProcessMov
; File C:\IAGOS\server\v18\Source\Source\_Common\Mover.h

; 1785 : 	if( m_pActMover )	

  0018c	85 c9		 test	 ecx, ecx
  0018e	74 31		 je	 SHORT $LN181@ProcessMov
; File C:\IAGOS\server\v18\Source\Source\_Common\MoverMove.cpp

; 510  : 				if( (m_nMoveEventCnt & 3) == 0 )

  00190	8b 01		 mov	 eax, DWORD PTR [ecx]
  00192	6a 00		 push	 0
  00194	6a 00		 push	 0
  00196	6a 00		 push	 0
  00198	6a 00		 push	 0
  0019a	6a 00		 push	 0
  0019c	85 d2		 test	 edx, edx
  0019e	75 1c		 jne	 SHORT $LN24@ProcessMov
; File C:\IAGOS\server\v18\Source\Source\_Common\Mover.h

; 1786 : 		return m_pActMover->SendActMsg( dwMsg, nParam1, nParam2, nParam3, nParam4 );	

  001a0	6a 09		 push	 9
; File C:\IAGOS\server\v18\Source\Source\_Common\MoverMove.cpp

; 511  : 					SendActMsg( OBJMSG_RTURN );

  001a2	eb 1a		 jmp	 SHORT $LN301@ProcessMov
$LN22@ProcessMov:
; File C:\IAGOS\server\v18\Source\Source\_Common\Mover.h

; 1785 : 	if( m_pActMover )	

  001a4	85 c9		 test	 ecx, ecx
  001a6	74 19		 je	 SHORT $LN181@ProcessMov
; File C:\IAGOS\server\v18\Source\Source\_Common\MoverMove.cpp

; 516  : 				if( (m_nMoveEventCnt & 3) == 0 )

  001a8	8b 01		 mov	 eax, DWORD PTR [ecx]
  001aa	6a 00		 push	 0
  001ac	6a 00		 push	 0
  001ae	6a 00		 push	 0
  001b0	6a 00		 push	 0
  001b2	6a 00		 push	 0
  001b4	85 d2		 test	 edx, edx
  001b6	75 04		 jne	 SHORT $LN24@ProcessMov
; File C:\IAGOS\server\v18\Source\Source\_Common\Mover.h

; 1786 : 		return m_pActMover->SendActMsg( dwMsg, nParam1, nParam2, nParam3, nParam4 );	

  001b8	6a 08		 push	 8
; File C:\IAGOS\server\v18\Source\Source\_Common\MoverMove.cpp

; 517  : 					SendActMsg( OBJMSG_LTURN );

  001ba	eb 02		 jmp	 SHORT $LN301@ProcessMov
$LN24@ProcessMov:

; 518  : 				else
; 519  : 					SendActMsg( OBJMSG_STOP_TURN );
; 520  : 			}
; 521  : 				
; 522  : 			if( ++m_nMoveEventCnt > SEC1 * 5 )

  001bc	6a 0a		 push	 10			; 0000000aH
$LN301@ProcessMov:
  001be	ff 50 04	 call	 DWORD PTR [eax+4]
$LN181@ProcessMov:
  001c1	ff 86 c8 14 00
	00		 inc	 DWORD PTR [esi+5320]
  001c7	83 be c8 14 00
	00 4b		 cmp	 DWORD PTR [esi+5320], 75 ; 0000004bH
  001ce	0f 8e 3c 03 00
	00		 jle	 $LN49@ProcessMov
$LN310@ProcessMov:

; 635  : 				m_nMoveEventCnt = 0;
; 636  : 				m_nMoveEvent = 99;
; 637  : 				SendActMsg( OBJMSG_STOP_LOOK );
; 638  : 				SendActMsg( OBJMSG_STOP_TURN );
; 639  : 				SendActMsg( OBJMSG_STOP );
; 640  : 				SetAngleX( 0 );		// ĽöĆňŔ¸·Î ¸ÂĂă.

  001d4	ff 86 c4 14 00
	00		 inc	 DWORD PTR [esi+5316]
  001da	8b 8e 38 02 00
	00		 mov	 ecx, DWORD PTR [esi+568]
  001e0	c7 86 c8 14 00
	00 00 00 00 00	 mov	 DWORD PTR [esi+5320], 0
  001ea	85 c9		 test	 ecx, ecx
  001ec	74 11		 je	 SHORT $LN121@ProcessMov
  001ee	8b 01		 mov	 eax, DWORD PTR [ecx]
  001f0	6a 00		 push	 0
  001f2	6a 00		 push	 0
  001f4	6a 00		 push	 0
  001f6	6a 00		 push	 0
  001f8	6a 00		 push	 0
  001fa	6a 2d		 push	 45			; 0000002dH
  001fc	ff 50 04	 call	 DWORD PTR [eax+4]
$LN121@ProcessMov:
  001ff	8b 8e 38 02 00
	00		 mov	 ecx, DWORD PTR [esi+568]
  00205	85 c9		 test	 ecx, ecx
  00207	0f 84 f4 02 00
	00		 je	 $LN225@ProcessMov
  0020d	6a 00		 push	 0
  0020f	6a 00		 push	 0
  00211	6a 00		 push	 0
  00213	6a 00		 push	 0
  00215	6a 00		 push	 0
  00217	6a 0a		 push	 10			; 0000000aH
  00219	e9 de 02 00 00	 jmp	 $LN302@ProcessMov
$LN29@ProcessMov:
; File C:\IAGOS\server\v18\Source\Source\_Common\Mover.h

; 1785 : 	if( m_pActMover )	

  0021e	8b 8e 38 02 00
	00		 mov	 ecx, DWORD PTR [esi+568]
  00224	85 c9		 test	 ecx, ecx
  00226	74 11		 je	 SHORT $LN73@ProcessMov

; 1786 : 		return m_pActMover->SendActMsg( dwMsg, nParam1, nParam2, nParam3, nParam4 );	

  00228	8b 01		 mov	 eax, DWORD PTR [ecx]
  0022a	6a 00		 push	 0
  0022c	6a 00		 push	 0
  0022e	6a 00		 push	 0
  00230	6a 00		 push	 0
  00232	6a 00		 push	 0
  00234	6a 01		 push	 1
  00236	ff 50 04	 call	 DWORD PTR [eax+4]
$LN73@ProcessMov:
; File C:\IAGOS\server\v18\Source\Source\_Common\MoverMove.cpp

; 533  : 			if( (m_nMoveEventCnt & 3) == 0 )

  00239	8b 86 c8 14 00
	00		 mov	 eax, DWORD PTR [esi+5320]
  0023f	8b 8e 38 02 00
	00		 mov	 ecx, DWORD PTR [esi+568]
  00245	83 e0 03	 and	 eax, 3
; File C:\IAGOS\server\v18\Source\Source\_Common\Mover.h

; 1785 : 	if( m_pActMover )	

  00248	85 c9		 test	 ecx, ecx
  0024a	74 19		 je	 SHORT $LN133@ProcessMov
; File C:\IAGOS\server\v18\Source\Source\_Common\MoverMove.cpp

; 533  : 			if( (m_nMoveEventCnt & 3) == 0 )

  0024c	6a 00		 push	 0
  0024e	6a 00		 push	 0
  00250	6a 00		 push	 0
  00252	6a 00		 push	 0
  00254	85 c0		 test	 eax, eax
  00256	8b 01		 mov	 eax, DWORD PTR [ecx]
  00258	6a 00		 push	 0
  0025a	75 04		 jne	 SHORT $LN30@ProcessMov
; File C:\IAGOS\server\v18\Source\Source\_Common\Mover.h

; 1786 : 		return m_pActMover->SendActMsg( dwMsg, nParam1, nParam2, nParam3, nParam4 );	

  0025c	6a 08		 push	 8
; File C:\IAGOS\server\v18\Source\Source\_Common\MoverMove.cpp

; 534  : 				SendActMsg( OBJMSG_LTURN );

  0025e	eb 02		 jmp	 SHORT $LN303@ProcessMov
$LN30@ProcessMov:
; File C:\IAGOS\server\v18\Source\Source\_Common\Mover.h

; 1786 : 		return m_pActMover->SendActMsg( dwMsg, nParam1, nParam2, nParam3, nParam4 );	

  00260	6a 0a		 push	 10			; 0000000aH
$LN303@ProcessMov:
; File C:\IAGOS\server\v18\Source\Source\_Common\MoverMove.cpp

; 537  : 			if( m_nMoveEventCnt < (SEC1 * 5) / 2 )

  00262	ff 50 04	 call	 DWORD PTR [eax+4]
$LN133@ProcessMov:
  00265	83 be c8 14 00
	00 25		 cmp	 DWORD PTR [esi+5320], 37 ; 00000025H
  0026c	8b 8e 38 02 00
	00		 mov	 ecx, DWORD PTR [esi+568]
  00272	7d 12		 jge	 SHORT $LN32@ProcessMov
; File C:\IAGOS\server\v18\Source\Source\_Common\Mover.h

; 1785 : 	if( m_pActMover )	

  00274	85 c9		 test	 ecx, ecx
  00276	74 4b		 je	 SHORT $LN177@ProcessMov

; 1786 : 		return m_pActMover->SendActMsg( dwMsg, nParam1, nParam2, nParam3, nParam4 );	

  00278	6a 00		 push	 0
  0027a	6a 00		 push	 0
  0027c	6a 00		 push	 0
  0027e	6a 00		 push	 0
  00280	6a 00		 push	 0
  00282	6a 2c		 push	 44			; 0000002cH
; File C:\IAGOS\server\v18\Source\Source\_Common\MoverMove.cpp

; 540  : 			} else

  00284	eb 38		 jmp	 SHORT $LN304@ProcessMov
$LN32@ProcessMov:

; 541  : 			if( m_nMoveEventCnt == (SEC1 * 5) / 2 )

  00286	75 26		 jne	 SHORT $LN34@ProcessMov
; File C:\IAGOS\server\v18\Source\Source\_Common\Mover.h

; 1785 : 	if( m_pActMover )	

  00288	85 c9		 test	 ecx, ecx
  0028a	74 11		 je	 SHORT $LN161@ProcessMov

; 1786 : 		return m_pActMover->SendActMsg( dwMsg, nParam1, nParam2, nParam3, nParam4 );	

  0028c	8b 01		 mov	 eax, DWORD PTR [ecx]
  0028e	6a 00		 push	 0
  00290	6a 00		 push	 0
  00292	6a 00		 push	 0
  00294	6a 00		 push	 0
  00296	6a 00		 push	 0
  00298	6a 2d		 push	 45			; 0000002dH
  0029a	ff 50 04	 call	 DWORD PTR [eax+4]
$LN161@ProcessMov:
; File C:\IAGOS\server\v18\Source\Source\_Common\MoverMove.cpp

; 544  : 				SetAngleX( 0 );		// ĽöĆňŔ¸·Î ¸ÂĂă.

  0029d	51		 push	 ecx
  0029e	8b ce		 mov	 ecx, esi
  002a0	c7 04 24 00 00
	00 00		 mov	 DWORD PTR [esp], 0
  002a7	e8 00 00 00 00	 call	 ?SetAngleX@CObj@@QAEXM@Z ; CObj::SetAngleX

; 545  : 			} else

  002ac	eb 15		 jmp	 SHORT $LN177@ProcessMov
$LN34@ProcessMov:
; File C:\IAGOS\server\v18\Source\Source\_Common\Mover.h

; 1785 : 	if( m_pActMover )	

  002ae	85 c9		 test	 ecx, ecx
  002b0	74 11		 je	 SHORT $LN177@ProcessMov

; 1786 : 		return m_pActMover->SendActMsg( dwMsg, nParam1, nParam2, nParam3, nParam4 );	

  002b2	6a 00		 push	 0
  002b4	6a 00		 push	 0
  002b6	6a 00		 push	 0
  002b8	6a 00		 push	 0
  002ba	6a 00		 push	 0
  002bc	6a 2b		 push	 43			; 0000002bH
$LN304@ProcessMov:
; File C:\IAGOS\server\v18\Source\Source\_Common\MoverMove.cpp

; 550  : 			if( ++m_nMoveEventCnt > SEC1 * 5 )

  002be	8b 01		 mov	 eax, DWORD PTR [ecx]
  002c0	ff 50 04	 call	 DWORD PTR [eax+4]
$LN177@ProcessMov:
  002c3	ff 86 c8 14 00
	00		 inc	 DWORD PTR [esi+5320]
  002c9	83 be c8 14 00
	00 4b		 cmp	 DWORD PTR [esi+5320], 75 ; 0000004bH
  002d0	0f 8e 3a 02 00
	00		 jle	 $LN49@ProcessMov
  002d6	e9 c1 01 00 00	 jmp	 $LN305@ProcessMov
$LN6@ProcessMov:

; 551  : 			{
; 552  : 				m_nMoveEventCnt = 0;
; 553  : 				m_nMoveEvent = 99;
; 554  : 				SendActMsg( OBJMSG_STOP_LOOK );
; 555  : 				SendActMsg( OBJMSG_STOP_TURN );
; 556  : 				SendActMsg( OBJMSG_STOP );
; 557  : 				SetAngleX( 0 );		// ĽöĆňŔ¸·Î ¸ÂĂă.
; 558  : 			}
; 559  : 			break;
; 560  : 				
; 561  : 		case 99:
; 562  : 			break;
; 563  : 		}
; 564  : 	} else	// movePattern 1
; 565  : 	if( m_nMovePattern == 2 )		// şńÇŕ ĆĐĹĎ 2

  002db	83 f8 02	 cmp	 eax, 2
  002de	0f 85 2c 02 00
	00		 jne	 $LN49@ProcessMov

; 566  : 	{
; 567  : 		switch( m_nMoveEvent )

  002e4	8b 86 c4 14 00
	00		 mov	 eax, DWORD PTR [esi+5316]
  002ea	83 f8 05	 cmp	 eax, 5
  002ed	0f 87 1d 02 00
	00		 ja	 $LN49@ProcessMov
  002f3	ff 24 85 00 00
	00 00		 jmp	 DWORD PTR $LN229@ProcessMov[eax*4]
$LN39@ProcessMov:

; 568  : 		{
; 569  : 		case 0:			
; 570  : 			m_nMoveEvent ++;

  002fa	40		 inc	 eax

; 571  : 			m_nMoveEventCnt = 0;

  002fb	c7 86 c8 14 00
	00 00 00 00 00	 mov	 DWORD PTR [esi+5320], 0
  00305	89 86 c4 14 00
	00		 mov	 DWORD PTR [esi+5316], eax
$LN40@ProcessMov:
; File C:\IAGOS\server\v18\Source\Source\_Common\Mover.h

; 1785 : 	if( m_pActMover )	

  0030b	8b 8e 38 02 00
	00		 mov	 ecx, DWORD PTR [esi+568]
  00311	85 c9		 test	 ecx, ecx
  00313	74 11		 je	 SHORT $LN77@ProcessMov

; 1786 : 		return m_pActMover->SendActMsg( dwMsg, nParam1, nParam2, nParam3, nParam4 );	

  00315	8b 01		 mov	 eax, DWORD PTR [ecx]
  00317	6a 00		 push	 0
  00319	6a 00		 push	 0
  0031b	6a 00		 push	 0
  0031d	6a 00		 push	 0
  0031f	6a 00		 push	 0
  00321	6a 01		 push	 1
  00323	ff 50 04	 call	 DWORD PTR [eax+4]
$LN77@ProcessMov:
; File C:\IAGOS\server\v18\Source\Source\_Common\MoverMove.cpp

; 576  : 			if( ++m_nMoveEventCnt > SEC1 )		// 1ĂĘ°ˇ ÁöłŞ¸é ±Ţ żěČ¸Ŕü.

  00326	8b 86 c8 14 00
	00		 mov	 eax, DWORD PTR [esi+5320]
  0032c	40		 inc	 eax
  0032d	89 86 c8 14 00
	00		 mov	 DWORD PTR [esi+5320], eax
  00333	83 f8 0f	 cmp	 eax, 15			; 0000000fH
  00336	0f 8e d4 01 00
	00		 jle	 $LN49@ProcessMov

; 577  : 			{
; 578  : 				FLOAT fAngle = GetAngle();
; 579  : 				SetAngle( fAngle + 135.0f );

  0033c	f3 0f 10 46 18	 movss	 xmm0, DWORD PTR [esi+24]
  00341	f3 0f 58 05 00
	00 00 00	 addss	 xmm0, DWORD PTR __real@43070000
  00349	51		 push	 ecx
  0034a	8b ce		 mov	 ecx, esi
  0034c	f3 0f 11 04 24	 movss	 DWORD PTR [esp], xmm0
  00351	e8 00 00 00 00	 call	 ?SetAngle@CObj@@QAEXM@Z	; CObj::SetAngle
$LN308@ProcessMov:

; 641  : 			}
; 642  : 			break;
; 643  : 			
; 644  : 		case 99:
; 645  : 			break;
; 646  : 		}
; 647  : 	} // MovePattern 2
; 648  : }

  00356	ff 86 c4 14 00
	00		 inc	 DWORD PTR [esi+5316]
  0035c	c7 86 c8 14 00
	00 00 00 00 00	 mov	 DWORD PTR [esi+5320], 0
  00366	5e		 pop	 esi
  00367	c3		 ret	 0
$LN42@ProcessMov:
; File C:\IAGOS\server\v18\Source\Source\_Common\Mover.h

; 1785 : 	if( m_pActMover )	

  00368	8b 8e 38 02 00
	00		 mov	 ecx, DWORD PTR [esi+568]
  0036e	85 c9		 test	 ecx, ecx
  00370	74 11		 je	 SHORT $LN145@ProcessMov

; 1786 : 		return m_pActMover->SendActMsg( dwMsg, nParam1, nParam2, nParam3, nParam4 );	

  00372	8b 01		 mov	 eax, DWORD PTR [ecx]
  00374	6a 00		 push	 0
  00376	6a 00		 push	 0
  00378	6a 00		 push	 0
  0037a	6a 00		 push	 0
  0037c	6a 00		 push	 0
  0037e	6a 01		 push	 1
  00380	ff 50 04	 call	 DWORD PTR [eax+4]
$LN145@ProcessMov:
; File C:\IAGOS\server\v18\Source\Source\_Common\MoverMove.cpp

; 587  : 			if( ++m_nMoveEventCnt > SEC1 * 2 )		// 2ĂĘ°Ł Á÷ÁřÇĎ´Ů°ˇ ´Ů˝Ă ÁÂ·Î 90µµ Č¸Ŕü.

  00383	8b 86 c8 14 00
	00		 mov	 eax, DWORD PTR [esi+5320]
  00389	40		 inc	 eax
  0038a	89 86 c8 14 00
	00		 mov	 DWORD PTR [esi+5320], eax
  00390	83 f8 1e	 cmp	 eax, 30			; 0000001eH
  00393	0f 8e 77 01 00
	00		 jle	 $LN49@ProcessMov

; 588  : 			{
; 589  : 				FLOAT fAngle = GetAngle();
; 590  : 				SetAngle( fAngle - 90.0f );

  00399	f3 0f 10 46 18	 movss	 xmm0, DWORD PTR [esi+24]
  0039e	f3 0f 5c 05 00
	00 00 00	 subss	 xmm0, DWORD PTR __real@42b40000
$LN306@ProcessMov:

; 635  : 				m_nMoveEventCnt = 0;
; 636  : 				m_nMoveEvent = 99;
; 637  : 				SendActMsg( OBJMSG_STOP_LOOK );
; 638  : 				SendActMsg( OBJMSG_STOP_TURN );
; 639  : 				SendActMsg( OBJMSG_STOP );
; 640  : 				SetAngleX( 0 );		// ĽöĆňŔ¸·Î ¸ÂĂă.

  003a6	51		 push	 ecx
  003a7	8b ce		 mov	 ecx, esi
  003a9	f3 0f 11 04 24	 movss	 DWORD PTR [esp], xmm0
  003ae	e8 00 00 00 00	 call	 ?SetAngle@CObj@@QAEXM@Z	; CObj::SetAngle
  003b3	ff 86 c4 14 00
	00		 inc	 DWORD PTR [esi+5316]
  003b9	e9 e8 00 00 00	 jmp	 $LN300@ProcessMov
$LN44@ProcessMov:
; File C:\IAGOS\server\v18\Source\Source\_Common\Mover.h

; 1785 : 	if( m_pActMover )	

  003be	8b 8e 38 02 00
	00		 mov	 ecx, DWORD PTR [esi+568]
  003c4	85 c9		 test	 ecx, ecx
  003c6	74 11		 je	 SHORT $LN149@ProcessMov

; 1786 : 		return m_pActMover->SendActMsg( dwMsg, nParam1, nParam2, nParam3, nParam4 );	

  003c8	8b 01		 mov	 eax, DWORD PTR [ecx]
  003ca	6a 00		 push	 0
  003cc	6a 00		 push	 0
  003ce	6a 00		 push	 0
  003d0	6a 00		 push	 0
  003d2	6a 00		 push	 0
  003d4	6a 01		 push	 1
  003d6	ff 50 04	 call	 DWORD PTR [eax+4]
$LN149@ProcessMov:
; File C:\IAGOS\server\v18\Source\Source\_Common\MoverMove.cpp

; 602  : 			if( ++m_nMoveEventCnt > SEC1 * 2 )

  003d9	8b 86 c8 14 00
	00		 mov	 eax, DWORD PTR [esi+5320]
  003df	40		 inc	 eax
  003e0	89 86 c8 14 00
	00		 mov	 DWORD PTR [esi+5320], eax
  003e6	83 f8 1e	 cmp	 eax, 30			; 0000001eH
  003e9	0f 8e 21 01 00
	00		 jle	 $LN49@ProcessMov

; 603  : 			{
; 604  : 				FLOAT fAngle = GetAngle();
; 605  : 				SetAngle( fAngle - 45.0f );

  003ef	f3 0f 10 46 18	 movss	 xmm0, DWORD PTR [esi+24]
  003f4	f3 0f 5c 05 00
	00 00 00	 subss	 xmm0, DWORD PTR __real@42340000
  003fc	51		 push	 ecx
  003fd	8b ce		 mov	 ecx, esi
  003ff	f3 0f 11 04 24	 movss	 DWORD PTR [esp], xmm0
  00404	e8 00 00 00 00	 call	 ?SetAngle@CObj@@QAEXM@Z	; CObj::SetAngle
  00409	e9 c6 fd ff ff	 jmp	 $LN310@ProcessMov
$LN46@ProcessMov:
; File C:\IAGOS\server\v18\Source\Source\_Common\Mover.h

; 1785 : 	if( m_pActMover )	

  0040e	8b 8e 38 02 00
	00		 mov	 ecx, DWORD PTR [esi+568]
  00414	85 c9		 test	 ecx, ecx
  00416	74 11		 je	 SHORT $LN137@ProcessMov

; 1786 : 		return m_pActMover->SendActMsg( dwMsg, nParam1, nParam2, nParam3, nParam4 );	

  00418	8b 01		 mov	 eax, DWORD PTR [ecx]
  0041a	6a 00		 push	 0
  0041c	6a 00		 push	 0
  0041e	6a 00		 push	 0
  00420	6a 00		 push	 0
  00422	6a 00		 push	 0
  00424	6a 01		 push	 1
  00426	ff 50 04	 call	 DWORD PTR [eax+4]
$LN137@ProcessMov:
; File C:\IAGOS\server\v18\Source\Source\_Common\MoverMove.cpp

; 616  : 			if( ++m_nMoveEventCnt > SEC1 * 1 )

  00429	8b 86 c8 14 00
	00		 mov	 eax, DWORD PTR [esi+5320]
  0042f	40		 inc	 eax
  00430	89 86 c8 14 00
	00		 mov	 DWORD PTR [esi+5320], eax
  00436	83 f8 0f	 cmp	 eax, 15			; 0000000fH
  00439	0f 8e d1 00 00
	00		 jle	 $LN49@ProcessMov

; 617  : 			{
; 618  : 				FLOAT fAngle = GetAngle();
; 619  : 				SetAngle( fAngle - 45.0f );

  0043f	f3 0f 10 46 18	 movss	 xmm0, DWORD PTR [esi+24]
  00444	f3 0f 5c 05 00
	00 00 00	 subss	 xmm0, DWORD PTR __real@42340000
  0044c	e9 55 ff ff ff	 jmp	 $LN306@ProcessMov
$LN48@ProcessMov:
; File C:\IAGOS\server\v18\Source\Source\_Common\Mover.h

; 1785 : 	if( m_pActMover )	

  00451	8b 8e 38 02 00
	00		 mov	 ecx, DWORD PTR [esi+568]
  00457	85 c9		 test	 ecx, ecx
  00459	74 11		 je	 SHORT $LN141@ProcessMov

; 1786 : 		return m_pActMover->SendActMsg( dwMsg, nParam1, nParam2, nParam3, nParam4 );	

  0045b	8b 01		 mov	 eax, DWORD PTR [ecx]
  0045d	6a 00		 push	 0
  0045f	6a 00		 push	 0
  00461	6a 00		 push	 0
  00463	6a 00		 push	 0
  00465	6a 00		 push	 0
  00467	6a 01		 push	 1
  00469	ff 50 04	 call	 DWORD PTR [eax+4]
$LN141@ProcessMov:
; File C:\IAGOS\server\v18\Source\Source\_Common\MoverMove.cpp

; 631  : 			if( ++m_nMoveEventCnt > SEC1 * 3 )

  0046c	8b 86 c8 14 00
	00		 mov	 eax, DWORD PTR [esi+5320]
  00472	40		 inc	 eax
  00473	89 86 c8 14 00
	00		 mov	 DWORD PTR [esi+5320], eax
  00479	83 f8 2d	 cmp	 eax, 45			; 0000002dH
  0047c	0f 8e 8e 00 00
	00		 jle	 $LN49@ProcessMov

; 632  : 			{
; 633  : 				FLOAT fAngle = GetAngle();
; 634  : 				SetAngle( fAngle + 45.0f );

  00482	f3 0f 10 46 18	 movss	 xmm0, DWORD PTR [esi+24]
  00487	f3 0f 58 05 00
	00 00 00	 addss	 xmm0, DWORD PTR __real@42340000
  0048f	51		 push	 ecx
  00490	8b ce		 mov	 ecx, esi
  00492	f3 0f 11 04 24	 movss	 DWORD PTR [esp], xmm0
  00497	e8 00 00 00 00	 call	 ?SetAngle@CObj@@QAEXM@Z	; CObj::SetAngle
$LN305@ProcessMov:

; 635  : 				m_nMoveEventCnt = 0;
; 636  : 				m_nMoveEvent = 99;
; 637  : 				SendActMsg( OBJMSG_STOP_LOOK );
; 638  : 				SendActMsg( OBJMSG_STOP_TURN );
; 639  : 				SendActMsg( OBJMSG_STOP );
; 640  : 				SetAngleX( 0 );		// ĽöĆňŔ¸·Î ¸ÂĂă.

  0049c	c7 86 c4 14 00
	00 63 00 00 00	 mov	 DWORD PTR [esi+5316], 99 ; 00000063H
$LN300@ProcessMov:
  004a6	8b 8e 38 02 00
	00		 mov	 ecx, DWORD PTR [esi+568]
  004ac	c7 86 c8 14 00
	00 00 00 00 00	 mov	 DWORD PTR [esi+5320], 0
  004b6	85 c9		 test	 ecx, ecx
  004b8	74 11		 je	 SHORT $LN217@ProcessMov
  004ba	8b 01		 mov	 eax, DWORD PTR [ecx]
  004bc	6a 00		 push	 0
  004be	6a 00		 push	 0
  004c0	6a 00		 push	 0
  004c2	6a 00		 push	 0
  004c4	6a 00		 push	 0
  004c6	6a 2d		 push	 45			; 0000002dH
  004c8	ff 50 04	 call	 DWORD PTR [eax+4]
$LN217@ProcessMov:
  004cb	8b 8e 38 02 00
	00		 mov	 ecx, DWORD PTR [esi+568]
  004d1	85 c9		 test	 ecx, ecx
  004d3	74 11		 je	 SHORT $LN221@ProcessMov
  004d5	8b 01		 mov	 eax, DWORD PTR [ecx]
  004d7	6a 00		 push	 0
  004d9	6a 00		 push	 0
  004db	6a 00		 push	 0
  004dd	6a 00		 push	 0
  004df	6a 00		 push	 0
  004e1	6a 0a		 push	 10			; 0000000aH
  004e3	ff 50 04	 call	 DWORD PTR [eax+4]
$LN221@ProcessMov:
  004e6	8b 8e 38 02 00
	00		 mov	 ecx, DWORD PTR [esi+568]
  004ec	85 c9		 test	 ecx, ecx
  004ee	74 11		 je	 SHORT $LN225@ProcessMov
  004f0	6a 00		 push	 0
  004f2	6a 00		 push	 0
  004f4	6a 00		 push	 0
  004f6	6a 00		 push	 0
  004f8	6a 00		 push	 0
  004fa	6a 06		 push	 6
$LN302@ProcessMov:
  004fc	8b 01		 mov	 eax, DWORD PTR [ecx]
  004fe	ff 50 04	 call	 DWORD PTR [eax+4]
$LN225@ProcessMov:
  00501	51		 push	 ecx
  00502	8b ce		 mov	 ecx, esi
  00504	c7 04 24 00 00
	00 00		 mov	 DWORD PTR [esp], 0
  0050b	e8 00 00 00 00	 call	 ?SetAngleX@CObj@@QAEXM@Z ; CObj::SetAngleX
$LN49@ProcessMov:

; 641  : 			}
; 642  : 			break;
; 643  : 			
; 644  : 		case 99:
; 645  : 			break;
; 646  : 		}
; 647  : 	} // MovePattern 2
; 648  : }

  00510	5e		 pop	 esi
  00511	c3		 ret	 0
  00512	66 90		 npad	 2
$LN228@ProcessMov:
  00514	00 00 00 00	 DD	 $LN8@ProcessMov
  00518	00 00 00 00	 DD	 $LN9@ProcessMov
  0051c	00 00 00 00	 DD	 $LN13@ProcessMov
  00520	00 00 00 00	 DD	 $LN21@ProcessMov
  00524	00 00 00 00	 DD	 $LN29@ProcessMov
$LN229@ProcessMov:
  00528	00 00 00 00	 DD	 $LN39@ProcessMov
  0052c	00 00 00 00	 DD	 $LN40@ProcessMov
  00530	00 00 00 00	 DD	 $LN42@ProcessMov
  00534	00 00 00 00	 DD	 $LN44@ProcessMov
  00538	00 00 00 00	 DD	 $LN46@ProcessMov
  0053c	00 00 00 00	 DD	 $LN48@ProcessMov
?ProcessMovePattern@CMover@@QAEXXZ ENDP			; CMover::ProcessMovePattern
_TEXT	ENDS
; Function compile flags: /Ogtp
; File C:\IAGOS\server\v18\Source\Source\_Common\Mover.h
;	COMDAT ?SendActMsg@CMover@@QAEHW4OBJMSG@@HHHH@Z
_TEXT	SEGMENT
_dwMsg$ = 8						; size = 4
_nParam1$ = 12						; size = 4
_nParam2$ = 16						; size = 4
_nParam3$ = 20						; size = 4
_nParam4$ = 24						; size = 4
?SendActMsg@CMover@@QAEHW4OBJMSG@@HHHH@Z PROC		; CMover::SendActMsg, COMDAT
; _this$ = ecx

; 1784 : {	

  00000	55		 push	 ebp
  00001	8b ec		 mov	 ebp, esp

; 1785 : 	if( m_pActMover )	

  00003	8b 89 38 02 00
	00		 mov	 ecx, DWORD PTR [ecx+568]
  00009	85 c9		 test	 ecx, ecx
  0000b	74 1a		 je	 SHORT $LN2@SendActMsg

; 1786 : 		return m_pActMover->SendActMsg( dwMsg, nParam1, nParam2, nParam3, nParam4 );	

  0000d	8b 01		 mov	 eax, DWORD PTR [ecx]
  0000f	6a 00		 push	 0
  00011	ff 75 18	 push	 DWORD PTR _nParam4$[ebp]
  00014	ff 75 14	 push	 DWORD PTR _nParam3$[ebp]
  00017	ff 75 10	 push	 DWORD PTR _nParam2$[ebp]
  0001a	ff 75 0c	 push	 DWORD PTR _nParam1$[ebp]
  0001d	ff 75 08	 push	 DWORD PTR _dwMsg$[ebp]
  00020	ff 50 04	 call	 DWORD PTR [eax+4]

; 1789 : }

  00023	5d		 pop	 ebp
  00024	c2 14 00	 ret	 20			; 00000014H
$LN2@SendActMsg:

; 1787 : 	else
; 1788 : 		return 0;

  00027	33 c0		 xor	 eax, eax

; 1789 : }

  00029	5d		 pop	 ebp
  0002a	c2 14 00	 ret	 20			; 00000014H
?SendActMsg@CMover@@QAEHW4OBJMSG@@HHHH@Z ENDP		; CMover::SendActMsg
_TEXT	ENDS
; Function compile flags: /Ogtp
; File C:\IAGOS\server\v18\Source\Source\_Common\Obj.h
; File C:\IAGOS\server\v18\Source\Source\DX_SDK\d3dx9math.inl
; File C:\IAGOS\server\v18\Source\Source\_Common\Obj.h
; File C:\IAGOS\server\v18\Source\Source\DX_SDK\d3dx9math.inl
; File C:\IAGOS\server\v18\Source\Source\_Common\Obj.h
; File C:\IAGOS\server\v18\Source\Source\DX_SDK\d3dx9math.inl
; File C:\IAGOS\server\v18\Source\Source\_Common\Obj.h
; File C:\Program Files (x86)\Windows Kits\10\Include\10.0.26100.0\ucrt\corecrt_math.h
; File C:\IAGOS\server\v18\Source\Source\_Common\Obj.h
; File C:\Program Files (x86)\Windows Kits\10\Include\10.0.26100.0\ucrt\corecrt_math.h
; File C:\IAGOS\server\v18\Source\Source\_Common\Obj.h
;	COMDAT ?GetDegreeX@@YAMABUD3DXVECTOR3@@0@Z
_TEXT	SEGMENT
_a$ = -16						; size = 4
tv313 = -16						; size = 8
tv307 = -8						; size = 8
tv319 = -8						; size = 8
_vDestPos$ = 8						; size = 4
_vSrcPos$ = 12						; size = 4
?GetDegreeX@@YAMABUD3DXVECTOR3@@0@Z PROC		; GetDegreeX, COMDAT

; 307  : {

  00000	55		 push	 ebp
  00001	8b ec		 mov	 ebp, esp
  00003	83 e4 f8	 and	 esp, -8			; fffffff8H
  00006	83 ec 10	 sub	 esp, 16			; 00000010H
; File C:\IAGOS\server\v18\Source\Source\DX_SDK\d3dx9math.inl

; 383  :     return D3DXVECTOR3(x - v.x, y - v.y, z - v.z);

  00009	8b 4d 08	 mov	 ecx, DWORD PTR _vDestPos$[ebp]
  0000c	8b 45 0c	 mov	 eax, DWORD PTR _vSrcPos$[ebp]
  0000f	f3 0f 10 11	 movss	 xmm2, DWORD PTR [ecx]
  00013	f3 0f 5c 10	 subss	 xmm2, DWORD PTR [eax]
  00017	f3 0f 10 49 08	 movss	 xmm1, DWORD PTR [ecx+8]
  0001c	f3 0f 5c 48 08	 subss	 xmm1, DWORD PTR [eax+8]
  00021	f3 0f 10 41 04	 movss	 xmm0, DWORD PTR [ecx+4]
  00026	f3 0f 5c 40 04	 subss	 xmm0, DWORD PTR [eax+4]
; File C:\IAGOS\server\v18\Source\Source\_Common\Obj.h

; 314  : 	float r = (float)atan2( yDist, -zDist );

  0002b	f3 0f 59 d2	 mulss	 xmm2, xmm2
; File C:\IAGOS\server\v18\Source\Source\DX_SDK\d3dx9math.inl

; 1684 :     return sqrtf(pV->x * pV->x + pV->y * pV->y + pV->z * pV->z);

  0002f	f3 0f 59 c9	 mulss	 xmm1, xmm1
  00033	f3 0f 58 15 00
	00 00 00	 addss	 xmm2, DWORD PTR __real@00000000
; File C:\IAGOS\server\v18\Source\Source\_Common\Obj.h

; 314  : 	float r = (float)atan2( yDist, -zDist );

  0003b	0f 5a c0	 cvtps2pd xmm0, xmm0
; File C:\IAGOS\server\v18\Source\Source\DX_SDK\d3dx9math.inl

; 1684 :     return sqrtf(pV->x * pV->x + pV->y * pV->y + pV->z * pV->z);

  0003e	f3 0f 58 d1	 addss	 xmm2, xmm1
  00042	0f 57 c9	 xorps	 xmm1, xmm1
; File C:\IAGOS\server\v18\Source\Source\_Common\Obj.h

; 314  : 	float r = (float)atan2( yDist, -zDist );

  00045	f2 0f 11 44 24
	08		 movsd	 QWORD PTR tv319[esp+16], xmm0
; File C:\Program Files (x86)\Windows Kits\10\Include\10.0.26100.0\ucrt\corecrt_math.h

; 799  :             return (float)sqrt(_X);

  0004b	0f 5a c2	 cvtps2pd xmm0, xmm2
  0004e	66 0f 2e c8	 ucomisd xmm1, xmm0
  00052	77 06		 ja	 SHORT $LN15@GetDegreeX
  00054	f2 0f 51 c0	 sqrtsd	 xmm0, xmm0
  00058	eb 05		 jmp	 SHORT $LN16@GetDegreeX
$LN15@GetDegreeX:
  0005a	e8 00 00 00 00	 call	 __libm_sse2_sqrt_precise
$LN16@GetDegreeX:
; File C:\IAGOS\server\v18\Source\Source\_Common\Obj.h

; 314  : 	float r = (float)atan2( yDist, -zDist );

  0005f	dd 44 24 08	 fld	 QWORD PTR tv319[esp+16]
; File C:\Program Files (x86)\Windows Kits\10\Include\10.0.26100.0\ucrt\corecrt_math.h

; 799  :             return (float)sqrt(_X);

  00063	f2 0f 5a c0	 cvtsd2ss xmm0, xmm0
; File C:\IAGOS\server\v18\Source\Source\_Common\Obj.h

; 314  : 	float r = (float)atan2( yDist, -zDist );

  00067	0f 57 05 00 00
	00 00		 xorps	 xmm0, DWORD PTR __xmm@80000000800000008000000080000000
  0006e	f3 0f 5a c0	 cvtss2sd xmm0, xmm0
  00072	f2 0f 11 04 24	 movsd	 QWORD PTR tv313[esp+16], xmm0
  00077	dd 04 24	 fld	 QWORD PTR tv313[esp+16]
  0007a	e8 00 00 00 00	 call	 __CIatan2
  0007f	dd 5c 24 08	 fstp	 QWORD PTR tv307[esp+16]
  00083	f2 0f 10 4c 24
	08		 movsd	 xmm1, QWORD PTR tv307[esp+16]
  00089	66 0f 5a c9	 cvtpd2ps xmm1, xmm1

; 315  : 	float a = D3DXToDegree( r );

  0008d	f3 0f 59 0d 00
	00 00 00	 mulss	 xmm1, DWORD PTR __real@42652ee0

; 316  : 	a = -a;

  00095	0f 57 0d 00 00
	00 00		 xorps	 xmm1, DWORD PTR __xmm@80000000800000008000000080000000

; 317  : 
; 318  : 	if( a > 90.0f )

  0009c	0f 2f 0d 00 00
	00 00		 comiss	 xmm1, DWORD PTR __real@42b40000
  000a3	f3 0f 11 0c 24	 movss	 DWORD PTR _a$[esp+16], xmm1
  000a8	76 18		 jbe	 SHORT $LN2@GetDegreeX

; 319  : 		a	= 180.0f - a;

  000aa	f3 0f 10 05 00
	00 00 00	 movss	 xmm0, DWORD PTR __real@43340000

; 322  : 	return a;
; 323  : }

  000b2	f3 0f 5c c1	 subss	 xmm0, xmm1
  000b6	f3 0f 11 04 24	 movss	 DWORD PTR _a$[esp+16], xmm0
  000bb	d9 04 24	 fld	 DWORD PTR _a$[esp+16]
  000be	8b e5		 mov	 esp, ebp
  000c0	5d		 pop	 ebp
  000c1	c3		 ret	 0
$LN2@GetDegreeX:

; 320  : 	else if( a < -90.0f )

  000c2	f3 0f 10 05 00
	00 00 00	 movss	 xmm0, DWORD PTR __real@c2b40000
  000ca	0f 2f c1	 comiss	 xmm0, xmm1
  000cd	76 11		 jbe	 SHORT $LN14@GetDegreeX

; 321  : 		a	= -180.0f - a;

  000cf	f3 0f 10 05 00
	00 00 00	 movss	 xmm0, DWORD PTR __real@c3340000

; 322  : 	return a;
; 323  : }

  000d7	f3 0f 5c c1	 subss	 xmm0, xmm1
  000db	f3 0f 11 04 24	 movss	 DWORD PTR _a$[esp+16], xmm0
$LN14@GetDegreeX:
  000e0	d9 04 24	 fld	 DWORD PTR _a$[esp+16]
  000e3	8b e5		 mov	 esp, ebp
  000e5	5d		 pop	 ebp
  000e6	c3		 ret	 0
?GetDegreeX@@YAMABUD3DXVECTOR3@@0@Z ENDP		; GetDegreeX
_TEXT	ENDS
; Function compile flags: /Ogtp
; File C:\IAGOS\server\v18\Source\Source\_Common\Obj.h
; File C:\Program Files (x86)\Windows Kits\10\Include\10.0.26100.0\ucrt\corecrt_math.h
; File C:\IAGOS\server\v18\Source\Source\DX_SDK\d3dx9math.inl
; File C:\Program Files (x86)\Windows Kits\10\Include\10.0.26100.0\ucrt\corecrt_math.h
; File C:\IAGOS\server\v18\Source\Source\DX_SDK\d3dx9math.inl
; File C:\Program Files (x86)\Windows Kits\10\Include\10.0.26100.0\ucrt\corecrt_math.h
; File C:\IAGOS\server\v18\Source\Source\_Common\Obj.h
; File C:\IAGOS\server\v18\Source\Source\DX_SDK\d3dx9math.inl
; File C:\IAGOS\server\v18\Source\Source\_Common\Obj.h
; File C:\IAGOS\server\v18\Source\Source\DX_SDK\d3dx9math.inl
; File C:\Program Files (x86)\Windows Kits\10\Include\10.0.26100.0\ucrt\corecrt_math.h
; File C:\IAGOS\server\v18\Source\Source\_Common\Obj.h
;	COMDAT ?GetDegree@@YAMABUD3DXVECTOR3@@0@Z
_TEXT	SEGMENT
_fDegree$ = -32						; size = 4
_vDir1$ = -28						; size = 12
_vDir2$ = -16						; size = 12
__$ArrayPad$ = -4					; size = 4
_vDestPos$ = 8						; size = 4
_vSrcPos$ = 12						; size = 4
?GetDegree@@YAMABUD3DXVECTOR3@@0@Z PROC			; GetDegree, COMDAT

; 289  : {

  00000	55		 push	 ebp
  00001	8b ec		 mov	 ebp, esp
  00003	83 ec 20	 sub	 esp, 32			; 00000020H
  00006	a1 00 00 00 00	 mov	 eax, DWORD PTR ___security_cookie
  0000b	33 c5		 xor	 eax, ebp
  0000d	89 45 fc	 mov	 DWORD PTR __$ArrayPad$[ebp], eax
  00010	56		 push	 esi
  00011	8b 75 08	 mov	 esi, DWORD PTR _vDestPos$[ebp]
  00014	0f 57 c0	 xorps	 xmm0, xmm0
  00017	57		 push	 edi
  00018	8b 7d 0c	 mov	 edi, DWORD PTR _vSrcPos$[ebp]
; File C:\Program Files (x86)\Windows Kits\10\Include\10.0.26100.0\ucrt\corecrt_math.h

; 789  :             return (float)sin(_X);

  0001b	e8 00 00 00 00	 call	 __libm_sse2_sin_precise
  00020	0f 57 c9	 xorps	 xmm1, xmm1
; File C:\IAGOS\server\v18\Source\Source\DX_SDK\d3dx9math.inl

; 301  :     y = fy;

  00023	c7 45 e8 00 00
	00 00		 mov	 DWORD PTR _vDir1$[ebp+4], 0
; File C:\Program Files (x86)\Windows Kits\10\Include\10.0.26100.0\ucrt\corecrt_math.h

; 789  :             return (float)sin(_X);

  0002a	f2 0f 5a c8	 cvtsd2ss xmm1, xmm0
  0002e	0f 57 c0	 xorps	 xmm0, xmm0
; File C:\IAGOS\server\v18\Source\Source\DX_SDK\d3dx9math.inl

; 300  :     x = fx;

  00031	f3 0f 11 4d e4	 movss	 DWORD PTR _vDir1$[ebp], xmm1
; File C:\Program Files (x86)\Windows Kits\10\Include\10.0.26100.0\ucrt\corecrt_math.h

; 683  :             return (float)cos(_X);

  00036	e8 00 00 00 00	 call	 __libm_sse2_cos_precise
  0003b	f2 0f 5a c0	 cvtsd2ss xmm0, xmm0
; File C:\IAGOS\server\v18\Source\Source\_Common\Obj.h

; 294  : 	D3DXVec3Normalize( &vDir1, &vDir1 );

  0003f	8d 45 e4	 lea	 eax, DWORD PTR _vDir1$[ebp]
  00042	c7 45 f4 00 00
	00 00		 mov	 DWORD PTR _vDir2$[ebp+4], 0
  00049	50		 push	 eax
  0004a	50		 push	 eax

; 282  : 	FLOAT fz = -cosf( fTheta ) * fVelocity;

  0004b	0f 57 05 00 00
	00 00		 xorps	 xmm0, DWORD PTR __xmm@80000000800000008000000080000000
; File C:\IAGOS\server\v18\Source\Source\DX_SDK\d3dx9math.inl

; 302  :     z = fz;

  00052	f3 0f 11 45 ec	 movss	 DWORD PTR _vDir1$[ebp+8], xmm0

; 383  :     return D3DXVECTOR3(x - v.x, y - v.y, z - v.z);

  00057	f3 0f 10 06	 movss	 xmm0, DWORD PTR [esi]
  0005b	f3 0f 5c 07	 subss	 xmm0, DWORD PTR [edi]

; 300  :     x = fx;

  0005f	f3 0f 11 45 f0	 movss	 DWORD PTR _vDir2$[ebp], xmm0

; 383  :     return D3DXVECTOR3(x - v.x, y - v.y, z - v.z);

  00064	f3 0f 10 46 08	 movss	 xmm0, DWORD PTR [esi+8]
  00069	f3 0f 5c 47 08	 subss	 xmm0, DWORD PTR [edi+8]

; 302  :     z = fz;

  0006e	f3 0f 11 45 f8	 movss	 DWORD PTR _vDir2$[ebp+8], xmm0
; File C:\IAGOS\server\v18\Source\Source\_Common\Obj.h

; 294  : 	D3DXVec3Normalize( &vDir1, &vDir1 );

  00073	e8 00 00 00 00	 call	 _D3DXVec3Normalize@8

; 295  : 	D3DXVec3Normalize( &vDir2, &vDir2 );

  00078	8d 45 f0	 lea	 eax, DWORD PTR _vDir2$[ebp]
  0007b	50		 push	 eax
  0007c	50		 push	 eax
  0007d	e8 00 00 00 00	 call	 _D3DXVec3Normalize@8
; File C:\IAGOS\server\v18\Source\Source\DX_SDK\d3dx9math.inl

; 1709 :     return pV1->x * pV2->x + pV1->y * pV2->y + pV1->z * pV2->z;

  00082	f3 0f 10 4d e4	 movss	 xmm1, DWORD PTR _vDir1$[ebp]
  00087	f3 0f 10 45 e8	 movss	 xmm0, DWORD PTR _vDir1$[ebp+4]
  0008c	f3 0f 59 45 f4	 mulss	 xmm0, DWORD PTR _vDir2$[ebp+4]
  00091	f3 0f 59 4d f0	 mulss	 xmm1, DWORD PTR _vDir2$[ebp]
  00096	f3 0f 58 c8	 addss	 xmm1, xmm0
  0009a	f3 0f 10 45 f8	 movss	 xmm0, DWORD PTR _vDir2$[ebp+8]
  0009f	f3 0f 59 45 ec	 mulss	 xmm0, DWORD PTR _vDir1$[ebp+8]
  000a4	f3 0f 58 c8	 addss	 xmm1, xmm0
; File C:\Program Files (x86)\Windows Kits\10\Include\10.0.26100.0\ucrt\corecrt_math.h

; 658  :             return (float)acos(_X);

  000a8	0f 5a c1	 cvtps2pd xmm0, xmm1
  000ab	e8 00 00 00 00	 call	 __libm_sse2_acos_precise
  000b0	0f 57 c9	 xorps	 xmm1, xmm1
  000b3	f2 0f 5a c8	 cvtsd2ss xmm1, xmm0
; File C:\IAGOS\server\v18\Source\Source\_Common\Obj.h

; 299  : 	if( vDir2.x < 0.0f )

  000b7	5f		 pop	 edi
  000b8	5e		 pop	 esi
  000b9	0f 57 c0	 xorps	 xmm0, xmm0
  000bc	0f 2f 45 f0	 comiss	 xmm0, DWORD PTR _vDir2$[ebp]
  000c0	f3 0f 59 0d 00
	00 00 00	 mulss	 xmm1, DWORD PTR __real@42652ee0
  000c8	f3 0f 11 4d e0	 movss	 DWORD PTR _fDegree$[ebp], xmm1
  000cd	76 11		 jbe	 SHORT $LN21@GetDegree

; 300  : 		fDegree = 360.0f - fDegree;

  000cf	f3 0f 10 05 00
	00 00 00	 movss	 xmm0, DWORD PTR __real@43b40000
  000d7	f3 0f 5c c1	 subss	 xmm0, xmm1
  000db	f3 0f 11 45 e0	 movss	 DWORD PTR _fDegree$[ebp], xmm0
$LN21@GetDegree:

; 301  : 	else
; 302  : 		fDegree = fDegree;
; 303  : 	return fDegree;
; 304  : }

  000e0	8b 4d fc	 mov	 ecx, DWORD PTR __$ArrayPad$[ebp]
  000e3	d9 45 e0	 fld	 DWORD PTR _fDegree$[ebp]
  000e6	33 cd		 xor	 ecx, ebp
  000e8	e8 00 00 00 00	 call	 @__security_check_cookie@4
  000ed	8b e5		 mov	 esp, ebp
  000ef	5d		 pop	 ebp
  000f0	c3		 ret	 0
?GetDegree@@YAMABUD3DXVECTOR3@@0@Z ENDP			; GetDegree
_TEXT	ENDS
; Function compile flags: /Ogtp
; File C:\IAGOS\server\v18\Source\Source\_Common\MoverMove.cpp
;	COMDAT ?__empty_global_delete@@YAXPAXI@Z
_TEXT	SEGMENT
___formal$ = 8						; size = 4
___formal$ = 12						; size = 4
?__empty_global_delete@@YAXPAXI@Z PROC			; __empty_global_delete, COMDAT

  00000	c2 00 00	 ret	 0
?__empty_global_delete@@YAXPAXI@Z ENDP			; __empty_global_delete
_TEXT	ENDS
; Function compile flags: /Ogtp
; File C:\IAGOS\server\v18\Source\Source\_Common\MoverMove.cpp
;	COMDAT ?__empty_global_delete@@YAXPAX@Z
_TEXT	SEGMENT
___formal$ = 8						; size = 4
?__empty_global_delete@@YAXPAX@Z PROC			; __empty_global_delete, COMDAT

  00000	c2 00 00	 ret	 0
?__empty_global_delete@@YAXPAX@Z ENDP			; __empty_global_delete
_TEXT	ENDS
END
