; Listing generated by Microsoft (R) Optimizing Compiler Version 19.44.35225.0 

	TITLE	C:\IAGOS\server\v18\Source\Output\WorldServer\Release\MoverItem.obj
	.686P
	.XMM
	include listing.inc
	.model	flat

INCLUDELIB LIBCMT
INCLUDELIB OLDNAMES

CONST	SEGMENT
?piecewise_construct@std@@3Upiecewise_construct_t@1@B	ORG $+1 ; std::piecewise_construct
CONST	ENDS
PUBLIC	?__empty_global_delete@@YAXPAX@Z		; __empty_global_delete
PUBLIC	?__empty_global_delete@@YAXPAXI@Z		; __empty_global_delete
PUBLIC	___local_stdio_printf_options
PUBLIC	_sprintf
PUBLIC	??0exception@std@@QAE@ABV01@@Z			; std::exception::exception
PUBLIC	??1exception@std@@UAE@XZ			; std::exception::~exception
PUBLIC	?what@exception@std@@UBEPBDXZ			; std::exception::what
PUBLIC	??_Gexception@std@@UAEPAXI@Z			; std::exception::`scalar deleting destructor'
PUBLIC	??0bad_alloc@std@@QAE@ABV01@@Z			; std::bad_alloc::bad_alloc
PUBLIC	??_Gbad_alloc@std@@UAEPAXI@Z			; std::bad_alloc::`scalar deleting destructor'
PUBLIC	??0bad_array_new_length@std@@QAE@XZ		; std::bad_array_new_length::bad_array_new_length
PUBLIC	??1bad_array_new_length@std@@UAE@XZ		; std::bad_array_new_length::~bad_array_new_length
PUBLIC	??0bad_array_new_length@std@@QAE@ABV01@@Z	; std::bad_array_new_length::bad_array_new_length
PUBLIC	??_Gbad_array_new_length@std@@UAEPAXI@Z		; std::bad_array_new_length::`scalar deleting destructor'
PUBLIC	?_Throw_bad_array_new_length@std@@YAXXZ		; std::_Throw_bad_array_new_length
PUBLIC	?_Xlen_string@std@@YAXXZ			; std::_Xlen_string
PUBLIC	??4?$basic_string@DU?$char_traits@D@std@@V?$allocator@D@2@@std@@QAEAAV01@QBD@Z ; std::basic_string<char,std::char_traits<char>,std::allocator<char> >::operator=
PUBLIC	??_ECItemElem@@UAEPAXI@Z			; CItemElem::`vector deleting destructor'
PUBLIC	?SetItemContainer@?$CItemContainer@VCItemElem@@@@QAEXKKK@Z ; CItemContainer<CItemElem>::SetItemContainer
PUBLIC	??0?$CItemContainer@VCItemElem@@@@QAE@XZ	; CItemContainer<CItemElem>::CItemContainer<CItemElem>
PUBLIC	??1?$CItemContainer@VCItemElem@@@@UAE@XZ	; CItemContainer<CItemElem>::~CItemContainer<CItemElem>
PUBLIC	?Clear@?$CItemContainer@VCItemElem@@@@QAEXXZ	; CItemContainer<CItemElem>::Clear
PUBLIC	?IsEquip@?$CItemContainer@VCItemElem@@@@QAEHK@Z	; CItemContainer<CItemElem>::IsEquip
PUBLIC	?Add@?$CItemContainer@VCItemElem@@@@QAEHPAVCItemElem@@PAEPAF1@Z ; CItemContainer<CItemElem>::Add
PUBLIC	?IsFull@?$CItemContainer@VCItemElem@@@@QAEHPAVCItemElem@@PAUItemProp@@F@Z ; CItemContainer<CItemElem>::IsFull
PUBLIC	?GetAtId@?$CItemContainer@VCItemElem@@@@QAEPAVCItemElem@@K@Z ; CItemContainer<CItemElem>::GetAtId
PUBLIC	?RemoveAtId@?$CItemContainer@VCItemElem@@@@QAEXK@Z ; CItemContainer<CItemElem>::RemoveAtId
PUBLIC	??_G?$CItemContainer@VCItemElem@@@@UAEPAXI@Z	; CItemContainer<CItemElem>::`scalar deleting destructor'
PUBLIC	?GetOther@CVTInfo@@QAEPAVCMover@@XZ		; CVTInfo::GetOther
PUBLIC	?SetOther@CVTInfo@@QAEXPAVCMover@@@Z		; CVTInfo::SetOther
PUBLIC	?Init@CVTInfo@@QAEXPAVCMover@@@Z		; CVTInfo::Init
PUBLIC	?GetItem@CVTInfo@@QAEPAVCItemBase@@E@Z		; CVTInfo::GetItem
PUBLIC	?SetItem@CVTInfo@@QAEXEPAVCItemBase@@@Z		; CVTInfo::SetItem
PUBLIC	?GetTitle@CVTInfo@@QAEPBDXZ			; CVTInfo::GetTitle
PUBLIC	?SetTitle@CVTInfo@@QAEXPBD@Z			; CVTInfo::SetTitle
PUBLIC	?IsVendorOpen@CVTInfo@@QAEHXZ			; CVTInfo::IsVendorOpen
PUBLIC	?TradeClear@CVTInfo@@QAEXXZ			; CVTInfo::TradeClear
PUBLIC	?TradeSetItem@CVTInfo@@QAEXEEF@Z		; CVTInfo::TradeSetItem
PUBLIC	?TradeClearItem@CVTInfo@@QAEHE@Z		; CVTInfo::TradeClearItem
PUBLIC	?TradeSetGold@CVTInfo@@QAEXK@Z			; CVTInfo::TradeSetGold
PUBLIC	?TradeGetGold@CVTInfo@@QAEHXZ			; CVTInfo::TradeGetGold
PUBLIC	?TradeConsent@CVTInfo@@QAEHXZ			; CVTInfo::TradeConsent
PUBLIC	?TradeSetItem2@CVTInfo@@QAEKEEAAF@Z		; CVTInfo::TradeSetItem2
PUBLIC	?TradeLastConfirm@CVTInfo@@QAE?AW4TRADE_CONFIRM_TYPE@@AAVCAr@@@Z ; CVTInfo::TradeLastConfirm
PUBLIC	?TradeGetState@CVTInfo@@QAE?AW4TRADE_STATE@@XZ	; CVTInfo::TradeGetState
PUBLIC	?TradeSetState@CVTInfo@@QAEXW4TRADE_STATE@@@Z	; CVTInfo::TradeSetState
PUBLIC	?VendorClose@CVTInfo@@QAEXH@Z			; CVTInfo::VendorClose
PUBLIC	?VendorCopyItems@CVTInfo@@QAEXPAPAVCItemBase@@@Z ; CVTInfo::VendorCopyItems
PUBLIC	?VendorItemNum@CVTInfo@@QAEXEF@Z		; CVTInfo::VendorItemNum
PUBLIC	?VendorSetItem@CVTInfo@@QAEXEEFH@Z		; CVTInfo::VendorSetItem
PUBLIC	?VendorClearItem@CVTInfo@@QAEHE@Z		; CVTInfo::VendorClearItem
PUBLIC	?VendorSellItem@CVTInfo@@QAEHPAVCMover@@EKFAAUVENDOR_SELL_RESULT@@@Z ; CVTInfo::VendorSellItem
PUBLIC	?VendorIsVendor@CVTInfo@@QAEHXZ			; CVTInfo::VendorIsVendor
PUBLIC	?IsTrading@CVTInfo@@QAEHPAVCItemElem@@@Z	; CVTInfo::IsTrading
PUBLIC	??$_Allocate_manually_vector_aligned@U_Default_allocate_traits@std@@@std@@YAPAXI@Z ; std::_Allocate_manually_vector_aligned<std::_Default_allocate_traits>
PUBLIC	??$?6G@CAr@@QAEAAV0@ABG@Z			; CAr::operator<<<unsigned short>
PUBLIC	??$?6H@CAr@@QAEAAV0@ABH@Z			; CAr::operator<<<int>
PUBLIC	??$?6K@CAr@@QAEAAV0@ABK@Z			; CAr::operator<<<unsigned long>
PUBLIC	?TradeLog@@YAXAAVCAr@@PAVCItemBase@@F@Z		; TradeLog
PUBLIC	??$?6F@CAr@@QAEAAV0@ABF@Z			; CAr::operator<<<short>
PUBLIC	??$?6_J@CAr@@QAEAAV0@AB_J@Z			; CAr::operator<<<__int64>
PUBLIC	??$?6E@CAr@@QAEAAV0@ABE@Z			; CAr::operator<<<unsigned char>
PUBLIC	?CheckTradeGold@@YAHPAVCMover@@HH@Z		; CheckTradeGold
PUBLIC	?_OptionsStorage@?1??__local_stdio_printf_options@@9@4_KA ; `__local_stdio_printf_options'::`2'::_OptionsStorage
PUBLIC	??_C@_02DPKJAMEF@?$CFd@				; `string'
PUBLIC	??_C@_00CNPNBAHC@@				; `string'
PUBLIC	??_7exception@std@@6B@				; std::exception::`vftable'
PUBLIC	??_C@_0BC@EOODALEL@Unknown?5exception@		; `string'
PUBLIC	??_7bad_alloc@std@@6B@				; std::bad_alloc::`vftable'
PUBLIC	??_7bad_array_new_length@std@@6B@		; std::bad_array_new_length::`vftable'
PUBLIC	??_C@_0BF@KINCDENJ@bad?5array?5new?5length@	; `string'
PUBLIC	??_R0?AVexception@std@@@8			; std::exception `RTTI Type Descriptor'
PUBLIC	__CT??_R0?AVexception@std@@@8??0exception@std@@QAE@ABV01@@Z12
PUBLIC	__TI3?AVbad_array_new_length@std@@
PUBLIC	__CTA3?AVbad_array_new_length@std@@
PUBLIC	??_R0?AVbad_array_new_length@std@@@8		; std::bad_array_new_length `RTTI Type Descriptor'
PUBLIC	__CT??_R0?AVbad_array_new_length@std@@@8??0bad_array_new_length@std@@QAE@ABV01@@Z12
PUBLIC	??_R0?AVbad_alloc@std@@@8			; std::bad_alloc `RTTI Type Descriptor'
PUBLIC	__CT??_R0?AVbad_alloc@std@@@8??0bad_alloc@std@@QAE@ABV01@@Z12
PUBLIC	??_C@_0BA@JFNIOLAK@string?5too?5long@		; `string'
PUBLIC	??_C@_0BM@HMFGHCP@?$CFs?5min?3?$CFd?0?5max?3?$CFd?0?5index?3?$CFd@ ; `string'
PUBLIC	??_C@_0BI@BEIFNGEL@GetItemProp?5range_error@	; `string'
PUBLIC	??_7?$CItemContainer@VCItemElem@@@@6B@		; CItemContainer<CItemElem>::`vftable'
PUBLIC	??_R4exception@std@@6B@				; std::exception::`RTTI Complete Object Locator'
PUBLIC	??_R3exception@std@@8				; std::exception::`RTTI Class Hierarchy Descriptor'
PUBLIC	??_R2exception@std@@8				; std::exception::`RTTI Base Class Array'
PUBLIC	??_R1A@?0A@EA@exception@std@@8			; std::exception::`RTTI Base Class Descriptor at (0,-1,0,64)'
PUBLIC	??_R4bad_array_new_length@std@@6B@		; std::bad_array_new_length::`RTTI Complete Object Locator'
PUBLIC	??_R3bad_array_new_length@std@@8		; std::bad_array_new_length::`RTTI Class Hierarchy Descriptor'
PUBLIC	??_R2bad_array_new_length@std@@8		; std::bad_array_new_length::`RTTI Base Class Array'
PUBLIC	??_R1A@?0A@EA@bad_array_new_length@std@@8	; std::bad_array_new_length::`RTTI Base Class Descriptor at (0,-1,0,64)'
PUBLIC	??_R1A@?0A@EA@bad_alloc@std@@8			; std::bad_alloc::`RTTI Base Class Descriptor at (0,-1,0,64)'
PUBLIC	??_R3bad_alloc@std@@8				; std::bad_alloc::`RTTI Class Hierarchy Descriptor'
PUBLIC	??_R2bad_alloc@std@@8				; std::bad_alloc::`RTTI Base Class Array'
PUBLIC	??_R4bad_alloc@std@@6B@				; std::bad_alloc::`RTTI Complete Object Locator'
PUBLIC	??_R4?$CItemContainer@VCItemElem@@@@6B@		; CItemContainer<CItemElem>::`RTTI Complete Object Locator'
PUBLIC	??_R0?AV?$CItemContainer@VCItemElem@@@@@8	; CItemContainer<CItemElem> `RTTI Type Descriptor'
PUBLIC	??_R3?$CItemContainer@VCItemElem@@@@8		; CItemContainer<CItemElem>::`RTTI Class Hierarchy Descriptor'
PUBLIC	??_R2?$CItemContainer@VCItemElem@@@@8		; CItemContainer<CItemElem>::`RTTI Base Class Array'
PUBLIC	??_R1A@?0A@EA@?$CItemContainer@VCItemElem@@@@8	; CItemContainer<CItemElem>::`RTTI Base Class Descriptor at (0,-1,0,64)'
PUBLIC	??_C@_01GAPBHFFA@T@				; `string'
PUBLIC	??_C@_0N@GELFDHNG@CONTAINER?1?10@		; `string'
PUBLIC	??_C@_0EK@GINEPMCL@template?5?$DMclass?5T?$DO?5BOOL?5CItemCo@ ; `string'
EXTRN	??_L@YGXPAXIIP6EX0@Z1@Z:PROC			; `eh vector constructor iterator'
EXTRN	??_M@YGXPAXIIP6EX0@Z@Z:PROC			; `eh vector destructor iterator'
EXTRN	??2@YAPAXI@Z:PROC				; operator new
EXTRN	??3@YAXPAXI@Z:PROC				; operator delete
EXTRN	??_U@YAPAXI@Z:PROC				; operator new[]
EXTRN	??_V@YAXPAX@Z:PROC				; operator delete[]
EXTRN	??_V@YAXPAXI@Z:PROC				; operator delete[]
EXTRN	__invoke_watson:PROC
EXTRN	___stdio_common_vsprintf:PROC
EXTRN	___std_exception_copy:PROC
EXTRN	___std_exception_destroy:PROC
EXTRN	??_Eexception@std@@UAEPAXI@Z:PROC		; std::exception::`vector deleting destructor'
EXTRN	??_Ebad_alloc@std@@UAEPAXI@Z:PROC		; std::bad_alloc::`vector deleting destructor'
EXTRN	??_Ebad_array_new_length@std@@UAEPAXI@Z:PROC	; std::bad_array_new_length::`vector deleting destructor'
EXTRN	?_Xlength_error@std@@YAXPBD@Z:PROC		; std::_Xlength_error
EXTRN	?WriteError@@YAXPBDZZ:PROC			; WriteError
EXTRN	?Error@@YAPBDPBDZZ:PROC				; Error
EXTRN	?GetMover@CProject@@QAEPAVCMover@@K@Z:PROC	; CProject::GetMover
EXTRN	?GetAvailLevel@CPet@@QAEEE@Z:PROC		; CPet::GetAvailLevel
EXTRN	?GetLife@CPet@@QAEGXZ:PROC			; CPet::GetLife
EXTRN	?GetPiercingSize@CPiercing@@QAEHXZ:PROC		; CPiercing::GetPiercingSize
EXTRN	?GetPiercingItem@CPiercing@@QAEKH@Z:PROC	; CPiercing::GetPiercingItem
EXTRN	?GetUltimatePiercingSize@CPiercing@@QAEHXZ:PROC	; CPiercing::GetUltimatePiercingSize
EXTRN	?GetUltimatePiercingItem@CPiercing@@QAEKH@Z:PROC ; CPiercing::GetUltimatePiercingItem
EXTRN	?IsQuest@CItemBase@@QAEHXZ:PROC			; CItemBase::IsQuest
EXTRN	?GetPropA@CItemBase@@QAEPAUItemProp@@XZ:PROC	; CItemBase::GetPropA
EXTRN	?SetTexture@CItemBase@@QAEXXZ:PROC		; CItemBase::SetTexture
EXTRN	??0CItemElem@@QAE@XZ:PROC			; CItemElem::CItemElem
EXTRN	??1CItemElem@@UAE@XZ:PROC			; CItemElem::~CItemElem
EXTRN	?IsBinds@CItemElem@@QAEHXZ:PROC			; CItemElem::IsBinds
EXTRN	?IsUsableItem@@YAHPAVCItemBase@@@Z:PROC		; IsUsableItem
EXTRN	?IsUsingItem@@YAHPAVCItemBase@@@Z:PROC		; IsUsingItem
EXTRN	?CheckBuf@CAr@@QAEXI@Z:PROC			; CAr::CheckBuf
EXTRN	?WriteString@CAr@@QAEXPBD@Z:PROC		; CAr::WriteString
EXTRN	?GetBuffer@CAr@@QAEPAEPAH@Z:PROC		; CAr::GetBuffer
EXTRN	??_E?$CItemContainer@VCItemElem@@@@UAEPAXI@Z:PROC ; CItemContainer<CItemElem>::`vector deleting destructor'
EXTRN	?GetName@CMover@@QAEPBDH@Z:PROC			; CMover::GetName
EXTRN	?GetJob@CMover@@QAEHXZ:PROC			; CMover::GetJob
EXTRN	?AddGold@CMover@@QAEHHH@Z:PROC			; CMover::AddGold
EXTRN	?GetItemId@CMover@@QAEPAVCItemBase@@K@Z:PROC	; CMover::GetItemId
EXTRN	?CreateItem@CMover@@QAEHPAVCItemBase@@PAEPAFE@Z:PROC ; CMover::CreateItem
EXTRN	?RemoveItem@CMover@@QAEXEF@Z:PROC		; CMover::RemoveItem
EXTRN	?IsUsing@CMover@@QAEHPAVCItemElem@@@Z:PROC	; CMover::IsUsing
EXTRN	?AddPVendorItemNum@CUserMng@@QAEXPAVCUser@@EFPBD@Z:PROC ; CUserMng::AddPVendorItemNum
EXTRN	@__security_check_cookie@4:PROC
EXTRN	__CxxThrowException@8:PROC
EXTRN	___CxxFrameHandler3:PROC
EXTRN	_memcpy:PROC
EXTRN	_memmove:PROC
EXTRN	_memset:PROC
EXTRN	??_7type_info@@6B@:QWORD			; type_info::`vftable'
EXTRN	?prj@@3VCProject@@A:BYTE			; prj
EXTRN	?g_UserMng@@3VCUserMng@@A:BYTE			; g_UserMng
EXTRN	___security_cookie:DWORD
EXTRN	__fltused:DWORD
;	COMDAT ?_OptionsStorage@?1??__local_stdio_printf_options@@9@4_KA
_BSS	SEGMENT
?_OptionsStorage@?1??__local_stdio_printf_options@@9@4_KA DQ 01H DUP (?) ; `__local_stdio_printf_options'::`2'::_OptionsStorage
_BSS	ENDS
;	COMDAT ??_C@_0EK@GINEPMCL@template?5?$DMclass?5T?$DO?5BOOL?5CItemCo@
CONST	SEGMENT
??_C@_0EK@GINEPMCL@template?5?$DMclass?5T?$DO?5BOOL?5CItemCo@ DB 'templat'
	DB	'e <class T> BOOL CItemContainer<T>::Add( T* pElem... : nNumtm'
	DB	'p > 0', 00H					; `string'
CONST	ENDS
;	COMDAT ??_C@_0N@GELFDHNG@CONTAINER?1?10@
CONST	SEGMENT
??_C@_0N@GELFDHNG@CONTAINER?1?10@ DB 'CONTAINER//0', 00H ; `string'
CONST	ENDS
;	COMDAT ??_C@_01GAPBHFFA@T@
CONST	SEGMENT
??_C@_01GAPBHFFA@T@ DB 'T', 00H				; `string'
CONST	ENDS
;	COMDAT ??_R1A@?0A@EA@?$CItemContainer@VCItemElem@@@@8
rdata$r	SEGMENT
??_R1A@?0A@EA@?$CItemContainer@VCItemElem@@@@8 DD FLAT:??_R0?AV?$CItemContainer@VCItemElem@@@@@8 ; CItemContainer<CItemElem>::`RTTI Base Class Descriptor at (0,-1,0,64)'
	DD	00H
	DD	00H
	DD	0ffffffffH
	DD	00H
	DD	040H
	DD	FLAT:??_R3?$CItemContainer@VCItemElem@@@@8
rdata$r	ENDS
;	COMDAT ??_R2?$CItemContainer@VCItemElem@@@@8
rdata$r	SEGMENT
??_R2?$CItemContainer@VCItemElem@@@@8 DD FLAT:??_R1A@?0A@EA@?$CItemContainer@VCItemElem@@@@8 ; CItemContainer<CItemElem>::`RTTI Base Class Array'
rdata$r	ENDS
;	COMDAT ??_R3?$CItemContainer@VCItemElem@@@@8
rdata$r	SEGMENT
??_R3?$CItemContainer@VCItemElem@@@@8 DD 00H		; CItemContainer<CItemElem>::`RTTI Class Hierarchy Descriptor'
	DD	00H
	DD	01H
	DD	FLAT:??_R2?$CItemContainer@VCItemElem@@@@8
rdata$r	ENDS
;	COMDAT ??_R0?AV?$CItemContainer@VCItemElem@@@@@8
data$rs	SEGMENT
??_R0?AV?$CItemContainer@VCItemElem@@@@@8 DD FLAT:??_7type_info@@6B@ ; CItemContainer<CItemElem> `RTTI Type Descriptor'
	DD	00H
	DB	'.?AV?$CItemContainer@VCItemElem@@@@', 00H
data$rs	ENDS
;	COMDAT ??_R4?$CItemContainer@VCItemElem@@@@6B@
rdata$r	SEGMENT
??_R4?$CItemContainer@VCItemElem@@@@6B@ DD 00H		; CItemContainer<CItemElem>::`RTTI Complete Object Locator'
	DD	00H
	DD	00H
	DD	FLAT:??_R0?AV?$CItemContainer@VCItemElem@@@@@8
	DD	FLAT:??_R3?$CItemContainer@VCItemElem@@@@8
rdata$r	ENDS
;	COMDAT ??_R4bad_alloc@std@@6B@
rdata$r	SEGMENT
??_R4bad_alloc@std@@6B@ DD 00H				; std::bad_alloc::`RTTI Complete Object Locator'
	DD	00H
	DD	00H
	DD	FLAT:??_R0?AVbad_alloc@std@@@8
	DD	FLAT:??_R3bad_alloc@std@@8
rdata$r	ENDS
;	COMDAT ??_R2bad_alloc@std@@8
rdata$r	SEGMENT
??_R2bad_alloc@std@@8 DD FLAT:??_R1A@?0A@EA@bad_alloc@std@@8 ; std::bad_alloc::`RTTI Base Class Array'
	DD	FLAT:??_R1A@?0A@EA@exception@std@@8
rdata$r	ENDS
;	COMDAT ??_R3bad_alloc@std@@8
rdata$r	SEGMENT
??_R3bad_alloc@std@@8 DD 00H				; std::bad_alloc::`RTTI Class Hierarchy Descriptor'
	DD	00H
	DD	02H
	DD	FLAT:??_R2bad_alloc@std@@8
rdata$r	ENDS
;	COMDAT ??_R1A@?0A@EA@bad_alloc@std@@8
rdata$r	SEGMENT
??_R1A@?0A@EA@bad_alloc@std@@8 DD FLAT:??_R0?AVbad_alloc@std@@@8 ; std::bad_alloc::`RTTI Base Class Descriptor at (0,-1,0,64)'
	DD	01H
	DD	00H
	DD	0ffffffffH
	DD	00H
	DD	040H
	DD	FLAT:??_R3bad_alloc@std@@8
rdata$r	ENDS
;	COMDAT ??_R1A@?0A@EA@bad_array_new_length@std@@8
rdata$r	SEGMENT
??_R1A@?0A@EA@bad_array_new_length@std@@8 DD FLAT:??_R0?AVbad_array_new_length@std@@@8 ; std::bad_array_new_length::`RTTI Base Class Descriptor at (0,-1,0,64)'
	DD	02H
	DD	00H
	DD	0ffffffffH
	DD	00H
	DD	040H
	DD	FLAT:??_R3bad_array_new_length@std@@8
rdata$r	ENDS
;	COMDAT ??_R2bad_array_new_length@std@@8
rdata$r	SEGMENT
??_R2bad_array_new_length@std@@8 DD FLAT:??_R1A@?0A@EA@bad_array_new_length@std@@8 ; std::bad_array_new_length::`RTTI Base Class Array'
	DD	FLAT:??_R1A@?0A@EA@bad_alloc@std@@8
	DD	FLAT:??_R1A@?0A@EA@exception@std@@8
rdata$r	ENDS
;	COMDAT ??_R3bad_array_new_length@std@@8
rdata$r	SEGMENT
??_R3bad_array_new_length@std@@8 DD 00H			; std::bad_array_new_length::`RTTI Class Hierarchy Descriptor'
	DD	00H
	DD	03H
	DD	FLAT:??_R2bad_array_new_length@std@@8
rdata$r	ENDS
;	COMDAT ??_R4bad_array_new_length@std@@6B@
rdata$r	SEGMENT
??_R4bad_array_new_length@std@@6B@ DD 00H		; std::bad_array_new_length::`RTTI Complete Object Locator'
	DD	00H
	DD	00H
	DD	FLAT:??_R0?AVbad_array_new_length@std@@@8
	DD	FLAT:??_R3bad_array_new_length@std@@8
rdata$r	ENDS
;	COMDAT ??_R1A@?0A@EA@exception@std@@8
rdata$r	SEGMENT
??_R1A@?0A@EA@exception@std@@8 DD FLAT:??_R0?AVexception@std@@@8 ; std::exception::`RTTI Base Class Descriptor at (0,-1,0,64)'
	DD	00H
	DD	00H
	DD	0ffffffffH
	DD	00H
	DD	040H
	DD	FLAT:??_R3exception@std@@8
rdata$r	ENDS
;	COMDAT ??_R2exception@std@@8
rdata$r	SEGMENT
??_R2exception@std@@8 DD FLAT:??_R1A@?0A@EA@exception@std@@8 ; std::exception::`RTTI Base Class Array'
rdata$r	ENDS
;	COMDAT ??_R3exception@std@@8
rdata$r	SEGMENT
??_R3exception@std@@8 DD 00H				; std::exception::`RTTI Class Hierarchy Descriptor'
	DD	00H
	DD	01H
	DD	FLAT:??_R2exception@std@@8
rdata$r	ENDS
;	COMDAT ??_R4exception@std@@6B@
rdata$r	SEGMENT
??_R4exception@std@@6B@ DD 00H				; std::exception::`RTTI Complete Object Locator'
	DD	00H
	DD	00H
	DD	FLAT:??_R0?AVexception@std@@@8
	DD	FLAT:??_R3exception@std@@8
rdata$r	ENDS
;	COMDAT ??_7?$CItemContainer@VCItemElem@@@@6B@
CONST	SEGMENT
??_7?$CItemContainer@VCItemElem@@@@6B@ DD FLAT:??_R4?$CItemContainer@VCItemElem@@@@6B@ ; CItemContainer<CItemElem>::`vftable'
	DD	FLAT:??_E?$CItemContainer@VCItemElem@@@@UAEPAXI@Z
CONST	ENDS
;	COMDAT ??_C@_0BI@BEIFNGEL@GetItemProp?5range_error@
CONST	SEGMENT
??_C@_0BI@BEIFNGEL@GetItemProp?5range_error@ DB 'GetItemProp range_error', 00H ; `string'
CONST	ENDS
;	COMDAT ??_C@_0BM@HMFGHCP@?$CFs?5min?3?$CFd?0?5max?3?$CFd?0?5index?3?$CFd@
CONST	SEGMENT
??_C@_0BM@HMFGHCP@?$CFs?5min?3?$CFd?0?5max?3?$CFd?0?5index?3?$CFd@ DB '%s'
	DB	' min:%d, max:%d, index:%d', 00H		; `string'
CONST	ENDS
;	COMDAT ??_C@_0BA@JFNIOLAK@string?5too?5long@
CONST	SEGMENT
??_C@_0BA@JFNIOLAK@string?5too?5long@ DB 'string too long', 00H ; `string'
CONST	ENDS
;	COMDAT __CT??_R0?AVbad_alloc@std@@@8??0bad_alloc@std@@QAE@ABV01@@Z12
xdata$x	SEGMENT
__CT??_R0?AVbad_alloc@std@@@8??0bad_alloc@std@@QAE@ABV01@@Z12 DD 010H
	DD	FLAT:??_R0?AVbad_alloc@std@@@8
	DD	00H
	DD	0ffffffffH
	ORG $+4
	DD	0cH
	DD	FLAT:??0bad_alloc@std@@QAE@ABV01@@Z
xdata$x	ENDS
;	COMDAT ??_R0?AVbad_alloc@std@@@8
data$r	SEGMENT
??_R0?AVbad_alloc@std@@@8 DD FLAT:??_7type_info@@6B@	; std::bad_alloc `RTTI Type Descriptor'
	DD	00H
	DB	'.?AVbad_alloc@std@@', 00H
data$r	ENDS
;	COMDAT __CT??_R0?AVbad_array_new_length@std@@@8??0bad_array_new_length@std@@QAE@ABV01@@Z12
xdata$x	SEGMENT
__CT??_R0?AVbad_array_new_length@std@@@8??0bad_array_new_length@std@@QAE@ABV01@@Z12 DD 00H
	DD	FLAT:??_R0?AVbad_array_new_length@std@@@8
	DD	00H
	DD	0ffffffffH
	ORG $+4
	DD	0cH
	DD	FLAT:??0bad_array_new_length@std@@QAE@ABV01@@Z
xdata$x	ENDS
;	COMDAT ??_R0?AVbad_array_new_length@std@@@8
data$r	SEGMENT
??_R0?AVbad_array_new_length@std@@@8 DD FLAT:??_7type_info@@6B@ ; std::bad_array_new_length `RTTI Type Descriptor'
	DD	00H
	DB	'.?AVbad_array_new_length@std@@', 00H
data$r	ENDS
;	COMDAT __CTA3?AVbad_array_new_length@std@@
xdata$x	SEGMENT
__CTA3?AVbad_array_new_length@std@@ DD 03H
	DD	FLAT:__CT??_R0?AVbad_array_new_length@std@@@8??0bad_array_new_length@std@@QAE@ABV01@@Z12
	DD	FLAT:__CT??_R0?AVbad_alloc@std@@@8??0bad_alloc@std@@QAE@ABV01@@Z12
	DD	FLAT:__CT??_R0?AVexception@std@@@8??0exception@std@@QAE@ABV01@@Z12
xdata$x	ENDS
;	COMDAT __TI3?AVbad_array_new_length@std@@
xdata$x	SEGMENT
__TI3?AVbad_array_new_length@std@@ DD 00H
	DD	FLAT:??1bad_array_new_length@std@@UAE@XZ
	DD	00H
	DD	FLAT:__CTA3?AVbad_array_new_length@std@@
xdata$x	ENDS
;	COMDAT __CT??_R0?AVexception@std@@@8??0exception@std@@QAE@ABV01@@Z12
xdata$x	SEGMENT
__CT??_R0?AVexception@std@@@8??0exception@std@@QAE@ABV01@@Z12 DD 00H
	DD	FLAT:??_R0?AVexception@std@@@8
	DD	00H
	DD	0ffffffffH
	ORG $+4
	DD	0cH
	DD	FLAT:??0exception@std@@QAE@ABV01@@Z
xdata$x	ENDS
;	COMDAT ??_R0?AVexception@std@@@8
data$r	SEGMENT
??_R0?AVexception@std@@@8 DD FLAT:??_7type_info@@6B@	; std::exception `RTTI Type Descriptor'
	DD	00H
	DB	'.?AVexception@std@@', 00H
data$r	ENDS
;	COMDAT ??_C@_0BF@KINCDENJ@bad?5array?5new?5length@
CONST	SEGMENT
??_C@_0BF@KINCDENJ@bad?5array?5new?5length@ DB 'bad array new length', 00H ; `string'
CONST	ENDS
;	COMDAT ??_7bad_array_new_length@std@@6B@
CONST	SEGMENT
??_7bad_array_new_length@std@@6B@ DD FLAT:??_R4bad_array_new_length@std@@6B@ ; std::bad_array_new_length::`vftable'
	DD	FLAT:??_Ebad_array_new_length@std@@UAEPAXI@Z
	DD	FLAT:?what@exception@std@@UBEPBDXZ
CONST	ENDS
;	COMDAT ??_7bad_alloc@std@@6B@
CONST	SEGMENT
??_7bad_alloc@std@@6B@ DD FLAT:??_R4bad_alloc@std@@6B@	; std::bad_alloc::`vftable'
	DD	FLAT:??_Ebad_alloc@std@@UAEPAXI@Z
	DD	FLAT:?what@exception@std@@UBEPBDXZ
CONST	ENDS
;	COMDAT ??_C@_0BC@EOODALEL@Unknown?5exception@
CONST	SEGMENT
??_C@_0BC@EOODALEL@Unknown?5exception@ DB 'Unknown exception', 00H ; `string'
CONST	ENDS
;	COMDAT ??_7exception@std@@6B@
CONST	SEGMENT
??_7exception@std@@6B@ DD FLAT:??_R4exception@std@@6B@	; std::exception::`vftable'
	DD	FLAT:??_Eexception@std@@UAEPAXI@Z
	DD	FLAT:?what@exception@std@@UBEPBDXZ
CONST	ENDS
;	COMDAT ??_C@_00CNPNBAHC@@
CONST	SEGMENT
??_C@_00CNPNBAHC@@ DB 00H				; `string'
CONST	ENDS
;	COMDAT ??_C@_02DPKJAMEF@?$CFd@
CONST	SEGMENT
??_C@_02DPKJAMEF@?$CFd@ DB '%d', 00H			; `string'
CONST	ENDS
;	COMDAT xdata$x
xdata$x	SEGMENT
__unwindtable$?VendorSellItem@CVTInfo@@QAEHPAVCMover@@EKFAAUVENDOR_SELL_RESULT@@@Z DD 0ffffffffH
	DD	FLAT:__unwindfunclet$?VendorSellItem@CVTInfo@@QAEHPAVCMover@@EKFAAUVENDOR_SELL_RESULT@@@Z$0
__ehfuncinfo$?VendorSellItem@CVTInfo@@QAEHPAVCMover@@EKFAAUVENDOR_SELL_RESULT@@@Z DD 019930522H
	DD	01H
	DD	FLAT:__unwindtable$?VendorSellItem@CVTInfo@@QAEHPAVCMover@@EKFAAUVENDOR_SELL_RESULT@@@Z
	DD	2 DUP(00H)
	DD	2 DUP(00H)
	DD	00H
	DD	01H
xdata$x	ENDS
;	COMDAT xdata$x
xdata$x	SEGMENT
__unwindtable$?TradeLastConfirm@CVTInfo@@QAE?AW4TRADE_CONFIRM_TYPE@@AAVCAr@@@Z DD 0ffffffffH
	DD	FLAT:__unwindfunclet$?TradeLastConfirm@CVTInfo@@QAE?AW4TRADE_CONFIRM_TYPE@@AAVCAr@@@Z$0
__ehfuncinfo$?TradeLastConfirm@CVTInfo@@QAE?AW4TRADE_CONFIRM_TYPE@@AAVCAr@@@Z DD 019930522H
	DD	01H
	DD	FLAT:__unwindtable$?TradeLastConfirm@CVTInfo@@QAE?AW4TRADE_CONFIRM_TYPE@@AAVCAr@@@Z
	DD	2 DUP(00H)
	DD	2 DUP(00H)
	DD	00H
	DD	01H
xdata$x	ENDS
;	COMDAT xdata$x
xdata$x	SEGMENT
__unwindtable$?TradeConsent@CVTInfo@@QAEHXZ DD 0ffffffffH
	DD	FLAT:__unwindfunclet$?TradeConsent@CVTInfo@@QAEHXZ$0
__ehfuncinfo$?TradeConsent@CVTInfo@@QAEHXZ DD 019930522H
	DD	01H
	DD	FLAT:__unwindtable$?TradeConsent@CVTInfo@@QAEHXZ
	DD	2 DUP(00H)
	DD	2 DUP(00H)
	DD	00H
	DD	01H
xdata$x	ENDS
;	COMDAT xdata$x
xdata$x	SEGMENT
__unwindtable$?SetItemContainer@?$CItemContainer@VCItemElem@@@@QAEXKKK@Z DD 0ffffffffH
	DD	FLAT:__unwindfunclet$?SetItemContainer@?$CItemContainer@VCItemElem@@@@QAEXKKK@Z$0
__ehfuncinfo$?SetItemContainer@?$CItemContainer@VCItemElem@@@@QAEXKKK@Z DD 019930522H
	DD	01H
	DD	FLAT:__unwindtable$?SetItemContainer@?$CItemContainer@VCItemElem@@@@QAEXKKK@Z
	DD	2 DUP(00H)
	DD	2 DUP(00H)
	DD	00H
	DD	01H
xdata$x	ENDS
;	COMDAT xdata$x
xdata$x	SEGMENT
__ehfuncinfo$??_ECItemElem@@UAEPAXI@Z DD 019930522H
	DD	00H
	DD	00H
	DD	2 DUP(00H)
	DD	2 DUP(00H)
	DD	00H
	DD	05H
xdata$x	ENDS
; Function compile flags: /Ogtp
; File C:\IAGOS\server\v18\Source\Source\_Common\MoverItem.cpp
;	COMDAT ?CheckTradeGold@@YAHPAVCMover@@HH@Z
_TEXT	SEGMENT
_pMover$ = 8						; size = 4
_nMinus$ = 12						; size = 4
_nPlus$ = 16						; size = 4
?CheckTradeGold@@YAHPAVCMover@@HH@Z PROC		; CheckTradeGold, COMDAT

; 326  : {

  00000	55		 push	 ebp
  00001	8b ec		 mov	 ebp, esp

; 327  : 	if( nMinus >= 0 )

  00003	8b 55 0c	 mov	 edx, DWORD PTR _nMinus$[ebp]
  00006	85 d2		 test	 edx, edx
  00008	78 2d		 js	 SHORT $LN7@CheckTrade

; 328  : 	{
; 329  : 		if( pMover->GetGold() >= nMinus )

  0000a	8b 45 08	 mov	 eax, DWORD PTR _pMover$[ebp]
  0000d	8b 88 e0 14 00
	00		 mov	 ecx, DWORD PTR [eax+5344]
  00013	3b ca		 cmp	 ecx, edx
  00015	7c 20		 jl	 SHORT $LN7@CheckTrade

; 330  : 		{
; 331  : 			int nGold = pMover->GetGold() - nMinus;
; 332  : 			int nResult = nGold + nPlus;

  00017	8b 45 10	 mov	 eax, DWORD PTR _nPlus$[ebp]
  0001a	2b ca		 sub	 ecx, edx
  0001c	8d 14 01	 lea	 edx, DWORD PTR [ecx+eax]

; 333  : 			if( nPlus >= 0 )

  0001f	85 c0		 test	 eax, eax
  00021	78 0b		 js	 SHORT $LN4@CheckTrade

; 334  : 			{
; 335  : 				if( nResult >= nGold )	// overflow°ˇ ľĆ´Ď¸é?

  00023	3b d1		 cmp	 edx, ecx
  00025	7c 10		 jl	 SHORT $LN7@CheckTrade

; 341  : 					return TRUE;

  00027	b8 01 00 00 00	 mov	 eax, 1

; 348  : }

  0002c	5d		 pop	 ebp
  0002d	c3		 ret	 0
$LN4@CheckTrade:

; 336  : 					return TRUE;
; 337  : 			}
; 338  : 			else
; 339  : 			{
; 340  : 				if( nResult >= 0 )		// underflow°ˇ ľĆ´Ď¸é?

  0002e	33 c0		 xor	 eax, eax
  00030	85 d2		 test	 edx, edx
  00032	0f 99 c0	 setns	 al

; 348  : }

  00035	5d		 pop	 ebp
  00036	c3		 ret	 0
$LN7@CheckTrade:

; 342  : 			}
; 343  : 
; 344  : 		}
; 345  : 	}
; 346  : 
; 347  : 	return FALSE;

  00037	33 c0		 xor	 eax, eax

; 348  : }

  00039	5d		 pop	 ebp
  0003a	c3		 ret	 0
?CheckTradeGold@@YAHPAVCMover@@HH@Z ENDP		; CheckTradeGold
_TEXT	ENDS
; Function compile flags: /Ogtp
; File C:\IAGOS\server\v18\Source\Source\_Network\Misc\Include\ar.h
;	COMDAT ??$?6E@CAr@@QAEAAV0@ABE@Z
_TEXT	SEGMENT
_t$ = 8							; size = 4
??$?6E@CAr@@QAEAAV0@ABE@Z PROC				; CAr::operator<<<unsigned char>, COMDAT
; _this$ = ecx

; 255  : {

  00000	55		 push	 ebp
  00001	8b ec		 mov	 ebp, esp
  00003	56		 push	 esi

; 256  : 	CheckBuf(sizeof(T));

  00004	6a 01		 push	 1
  00006	8b f1		 mov	 esi, ecx
  00008	e8 00 00 00 00	 call	 ?CheckBuf@CAr@@QAEXI@Z	; CAr::CheckBuf

; 257  : 	*(UNALIGNED T*)m_lpBufCur = t;

  0000d	8b 45 08	 mov	 eax, DWORD PTR _t$[ebp]
  00010	8b 56 08	 mov	 edx, DWORD PTR [esi+8]
  00013	8a 00		 mov	 al, BYTE PTR [eax]
  00015	88 02		 mov	 BYTE PTR [edx], al

; 258  : 	m_lpBufCur += sizeof(T);
; 259  : 	return *this;

  00017	8b c6		 mov	 eax, esi
  00019	ff 46 08	 inc	 DWORD PTR [esi+8]
  0001c	5e		 pop	 esi

; 260  : }

  0001d	5d		 pop	 ebp
  0001e	c2 04 00	 ret	 4
??$?6E@CAr@@QAEAAV0@ABE@Z ENDP				; CAr::operator<<<unsigned char>
_TEXT	ENDS
; Function compile flags: /Ogtp
; File C:\IAGOS\server\v18\Source\Source\_Network\Misc\Include\ar.h
;	COMDAT ??$?6_J@CAr@@QAEAAV0@AB_J@Z
_TEXT	SEGMENT
_t$ = 8							; size = 4
??$?6_J@CAr@@QAEAAV0@AB_J@Z PROC			; CAr::operator<<<__int64>, COMDAT
; _this$ = ecx

; 255  : {

  00000	55		 push	 ebp
  00001	8b ec		 mov	 ebp, esp
  00003	56		 push	 esi
  00004	57		 push	 edi

; 256  : 	CheckBuf(sizeof(T));

  00005	6a 08		 push	 8
  00007	8b f9		 mov	 edi, ecx
  00009	e8 00 00 00 00	 call	 ?CheckBuf@CAr@@QAEXI@Z	; CAr::CheckBuf

; 257  : 	*(UNALIGNED T*)m_lpBufCur = t;

  0000e	8b 45 08	 mov	 eax, DWORD PTR _t$[ebp]
  00011	8b 70 04	 mov	 esi, DWORD PTR [eax+4]
  00014	8b 10		 mov	 edx, DWORD PTR [eax]
  00016	8b 47 08	 mov	 eax, DWORD PTR [edi+8]
  00019	89 10		 mov	 DWORD PTR [eax], edx
  0001b	89 70 04	 mov	 DWORD PTR [eax+4], esi

; 258  : 	m_lpBufCur += sizeof(T);
; 259  : 	return *this;

  0001e	8b c7		 mov	 eax, edi
  00020	83 47 08 08	 add	 DWORD PTR [edi+8], 8
  00024	5f		 pop	 edi
  00025	5e		 pop	 esi

; 260  : }

  00026	5d		 pop	 ebp
  00027	c2 04 00	 ret	 4
??$?6_J@CAr@@QAEAAV0@AB_J@Z ENDP			; CAr::operator<<<__int64>
_TEXT	ENDS
; Function compile flags: /Ogtp
; File C:\IAGOS\server\v18\Source\Source\_Network\Misc\Include\ar.h
;	COMDAT ??$?6F@CAr@@QAEAAV0@ABF@Z
_TEXT	SEGMENT
_t$ = 8							; size = 4
??$?6F@CAr@@QAEAAV0@ABF@Z PROC				; CAr::operator<<<short>, COMDAT
; _this$ = ecx

; 255  : {

  00000	55		 push	 ebp
  00001	8b ec		 mov	 ebp, esp
  00003	56		 push	 esi

; 256  : 	CheckBuf(sizeof(T));

  00004	6a 02		 push	 2
  00006	8b f1		 mov	 esi, ecx
  00008	e8 00 00 00 00	 call	 ?CheckBuf@CAr@@QAEXI@Z	; CAr::CheckBuf

; 257  : 	*(UNALIGNED T*)m_lpBufCur = t;

  0000d	8b 45 08	 mov	 eax, DWORD PTR _t$[ebp]
  00010	8b 56 08	 mov	 edx, DWORD PTR [esi+8]
  00013	66 8b 00	 mov	 ax, WORD PTR [eax]
  00016	66 89 02	 mov	 WORD PTR [edx], ax

; 258  : 	m_lpBufCur += sizeof(T);
; 259  : 	return *this;

  00019	8b c6		 mov	 eax, esi
  0001b	83 46 08 02	 add	 DWORD PTR [esi+8], 2
  0001f	5e		 pop	 esi

; 260  : }

  00020	5d		 pop	 ebp
  00021	c2 04 00	 ret	 4
??$?6F@CAr@@QAEAAV0@ABF@Z ENDP				; CAr::operator<<<short>
_TEXT	ENDS
; Function compile flags: /Ogtp
; File C:\IAGOS\server\v18\Source\Source\_Common\MoverItem.cpp
; File C:\IAGOS\server\v18\Source\Source\_Common\Item.h
; File C:\IAGOS\server\v18\Source\Source\_Common\MoverItem.cpp
; File C:\IAGOS\server\v18\Source\Source\_Common\Item.h
; File C:\IAGOS\server\v18\Source\Source\_Common\MoverItem.cpp
; File C:\IAGOS\server\v18\Source\Source\_Common\Item.h
; File C:\IAGOS\server\v18\Source\Source\_Common\MoverItem.cpp
; File C:\IAGOS\server\v18\Source\Source\_Common\Item.h
; File C:\IAGOS\server\v18\Source\Source\_Common\MoverItem.cpp
; File C:\IAGOS\server\v18\Source\Source\_Common\Item.h
; File C:\IAGOS\server\v18\Source\Source\_Common\MoverItem.cpp
; File C:\IAGOS\server\v18\Source\Source\_Common\Item.h
; File C:\IAGOS\server\v18\Source\Source\_Common\MoverItem.cpp
; File C:\IAGOS\server\v18\Source\Source\_Common\Item.h
; File C:\IAGOS\server\v18\Source\Source\_Common\MoverItem.cpp
; File C:\IAGOS\server\v18\Source\Source\_Common\Item.h
; File C:\IAGOS\server\v18\Source\Source\_Common\MoverItem.cpp
; File C:\IAGOS\server\v18\Source\Source\_Common\Item.h
; File C:\IAGOS\server\v18\Source\Source\_Common\MoverItem.cpp
; File C:\IAGOS\server\v18\Source\Source\_Common\Item.h
; File C:\IAGOS\server\v18\Source\Source\_Common\MoverItem.cpp
; File C:\IAGOS\server\v18\Source\Source\_Common\Item.h
; File C:\IAGOS\server\v18\Source\Source\_Common\MoverItem.cpp
; File C:\IAGOS\server\v18\Source\Source\_Common\Item.h
; File C:\IAGOS\server\v18\Source\Source\_Common\MoverItem.cpp
; File C:\IAGOS\server\v18\Source\Source\_Common\Item.h
; File C:\IAGOS\server\v18\Source\Source\_Common\Project.h
; File C:\IAGOS\server\v18\Source\Source\_Common\data.h
; File C:\IAGOS\server\v18\Source\Source\_Common\Item.h
; File C:\IAGOS\server\v18\Source\Source\_Common\Project.h
; File C:\IAGOS\server\v18\Source\Source\_Common\data.h
; File C:\IAGOS\server\v18\Source\Source\_Common\Project.h
; File C:\IAGOS\server\v18\Source\Source\_Common\Item.h
; File C:\IAGOS\server\v18\Source\Source\_Common\MoverItem.cpp
; File C:\IAGOS\server\v18\Source\Source\_Common\Project.h
; File C:\IAGOS\server\v18\Source\Source\_Common\MoverItem.cpp
;	COMDAT ?TradeLog@@YAXAAVCAr@@PAVCItemBase@@F@Z
_TEXT	SEGMENT
$T1 = -8						; size = 8
$T2 = -4						; size = 4
$T3 = -4						; size = 4
$T4 = -4						; size = 4
$T5 = -4						; size = 4
$T6 = -4						; size = 4
$T7 = -4						; size = 4
_ar$ = 8						; size = 4
_pItemBase$ = 12					; size = 4
$T8 = 12						; size = 4
$T9 = 12						; size = 4
$T10 = 12						; size = 2
$T11 = 12						; size = 2
$T12 = 12						; size = 2
$T13 = 12						; size = 2
$T14 = 15						; size = 1
$T15 = 15						; size = 1
$T16 = 15						; size = 1
$T17 = 15						; size = 1
$T18 = 15						; size = 1
$T19 = 15						; size = 1
$T20 = 15						; size = 1
$T21 = 15						; size = 1
$T22 = 15						; size = 1
$T23 = 15						; size = 1
$T24 = 15						; size = 1
$T25 = 15						; size = 1
$T26 = 15						; size = 1
$T27 = 15						; size = 1
$T28 = 15						; size = 1
_nItemCount$ = 16					; size = 2
?TradeLog@@YAXAAVCAr@@PAVCItemBase@@F@Z PROC		; TradeLog, COMDAT

; 251  : {

  00000	55		 push	 ebp
  00001	8b ec		 mov	 ebp, esp
  00003	83 ec 08	 sub	 esp, 8
  00006	53		 push	 ebx
  00007	56		 push	 esi

; 252  : 	ar << nItemCount;

  00008	8b 75 08	 mov	 esi, DWORD PTR _ar$[ebp]
  0000b	8d 45 10	 lea	 eax, DWORD PTR _nItemCount$[ebp]
  0000e	57		 push	 edi
  0000f	50		 push	 eax
  00010	8b ce		 mov	 ecx, esi
  00012	e8 00 00 00 00	 call	 ??$?6F@CAr@@QAEAAV0@ABF@Z ; CAr::operator<<<short>

; 253  : 	ar << ( (CItemElem*)pItemBase )->GetAbilityOption();

  00017	8b 5d 0c	 mov	 ebx, DWORD PTR _pItemBase$[ebp]
  0001a	8b ce		 mov	 ecx, esi
  0001c	8b 43 64	 mov	 eax, DWORD PTR [ebx+100]
  0001f	89 45 fc	 mov	 DWORD PTR $T2[ebp], eax
  00022	8d 45 fc	 lea	 eax, DWORD PTR $T2[ebp]
  00025	50		 push	 eax
  00026	e8 00 00 00 00	 call	 ??$?6H@CAr@@QAEAAV0@ABH@Z ; CAr::operator<<<int>

; 254  : 	ar << int(( (CItemElem*)pItemBase )->m_bItemResist);

  0002b	0f b6 43 7c	 movzx	 eax, BYTE PTR [ebx+124]
  0002f	8b ce		 mov	 ecx, esi
  00031	89 45 fc	 mov	 DWORD PTR $T3[ebp], eax
  00034	8d 45 fc	 lea	 eax, DWORD PTR $T3[ebp]
  00037	50		 push	 eax
  00038	e8 00 00 00 00	 call	 ??$?6H@CAr@@QAEAAV0@ABH@Z ; CAr::operator<<<int>

; 255  : 	ar << int(( (CItemElem*)pItemBase )->m_nResistAbilityOption);

  0003d	8d 83 80 00 00
	00		 lea	 eax, DWORD PTR [ebx+128]
  00043	8b ce		 mov	 ecx, esi
  00045	50		 push	 eax
  00046	e8 00 00 00 00	 call	 ??$?6H@CAr@@QAEAAV0@ABH@Z ; CAr::operator<<<int>

; 256  : 	ar << ( (CItemElem*)pItemBase )->m_nHitPoint;

  0004b	8d 43 70	 lea	 eax, DWORD PTR [ebx+112]
  0004e	8b ce		 mov	 ecx, esi
  00050	50		 push	 eax
  00051	e8 00 00 00 00	 call	 ??$?6H@CAr@@QAEAAV0@ABH@Z ; CAr::operator<<<int>

; 257  : 	ar << ( (CItemElem*)pItemBase )->m_nRepair;

  00056	8d 43 68	 lea	 eax, DWORD PTR [ebx+104]
  00059	8b ce		 mov	 ecx, esi
  0005b	50		 push	 eax
  0005c	e8 00 00 00 00	 call	 ??$?6H@CAr@@QAEAAV0@ABH@Z ; CAr::operator<<<int>

; 258  : 	ar << ( (CItemElem*)pItemBase )->m_bCharged;

  00061	8d 83 a4 00 00
	00		 lea	 eax, DWORD PTR [ebx+164]
  00067	8b ce		 mov	 ecx, esi
  00069	50		 push	 eax
  0006a	e8 00 00 00 00	 call	 ??$?6H@CAr@@QAEAAV0@ABH@Z ; CAr::operator<<<int>

; 259  : 	ar << ( (CItemElem*)pItemBase )->m_dwKeepTime;

  0006f	8d 83 a8 00 00
	00		 lea	 eax, DWORD PTR [ebx+168]
  00075	8b ce		 mov	 ecx, esi
  00077	50		 push	 eax
  00078	e8 00 00 00 00	 call	 ??$?6K@CAr@@QAEAAV0@ABK@Z ; CAr::operator<<<unsigned long>
; File C:\IAGOS\server\v18\Source\Source\_Common\Item.h

; 103  : 	int		GetPiercingSize()	{	return m_piercing.GetPiercingSize();		}

  0007d	8d 7b 3c	 lea	 edi, DWORD PTR [ebx+60]
  00080	8b cf		 mov	 ecx, edi
  00082	e8 00 00 00 00	 call	 ?GetPiercingSize@CPiercing@@QAEHXZ ; CPiercing::GetPiercingSize
; File C:\IAGOS\server\v18\Source\Source\_Common\MoverItem.cpp

; 261  : 	ar << ( (CItemElem*)pItemBase )->GetPiercingSize();

  00087	89 45 fc	 mov	 DWORD PTR $T4[ebp], eax
  0008a	8b ce		 mov	 ecx, esi
  0008c	8d 45 fc	 lea	 eax, DWORD PTR $T4[ebp]
  0008f	50		 push	 eax
  00090	e8 00 00 00 00	 call	 ??$?6H@CAr@@QAEAAV0@ABH@Z ; CAr::operator<<<int>
; File C:\IAGOS\server\v18\Source\Source\_Common\Item.h

; 103  : 	int		GetPiercingSize()	{	return m_piercing.GetPiercingSize();		}

  00095	8b cf		 mov	 ecx, edi
; File C:\IAGOS\server\v18\Source\Source\_Common\MoverItem.cpp

; 262  : 	for( int i=0; i<( (CItemElem*)pItemBase )->GetPiercingSize(); i++ )

  00097	33 db		 xor	 ebx, ebx
; File C:\IAGOS\server\v18\Source\Source\_Common\Item.h

; 103  : 	int		GetPiercingSize()	{	return m_piercing.GetPiercingSize();		}

  00099	e8 00 00 00 00	 call	 ?GetPiercingSize@CPiercing@@QAEHXZ ; CPiercing::GetPiercingSize
; File C:\IAGOS\server\v18\Source\Source\_Common\MoverItem.cpp

; 262  : 	for( int i=0; i<( (CItemElem*)pItemBase )->GetPiercingSize(); i++ )

  0009e	85 c0		 test	 eax, eax
  000a0	7e 22		 jle	 SHORT $LN3@TradeLog
$LL4@TradeLog:
; File C:\IAGOS\server\v18\Source\Source\_Common\Item.h

; 105  : 	DWORD	GetPiercingItem( int nth )	{	return m_piercing.GetPiercingItem( nth );	}

  000a2	53		 push	 ebx
  000a3	8b cf		 mov	 ecx, edi
  000a5	e8 00 00 00 00	 call	 ?GetPiercingItem@CPiercing@@QAEKH@Z ; CPiercing::GetPiercingItem
; File C:\IAGOS\server\v18\Source\Source\_Common\MoverItem.cpp

; 263  : 		ar << ( (CItemElem*)pItemBase )->GetPiercingItem( i );

  000aa	89 45 fc	 mov	 DWORD PTR $T5[ebp], eax
  000ad	8b ce		 mov	 ecx, esi
  000af	8d 45 fc	 lea	 eax, DWORD PTR $T5[ebp]
  000b2	50		 push	 eax
  000b3	e8 00 00 00 00	 call	 ??$?6K@CAr@@QAEAAV0@ABK@Z ; CAr::operator<<<unsigned long>
; File C:\IAGOS\server\v18\Source\Source\_Common\Item.h

; 103  : 	int		GetPiercingSize()	{	return m_piercing.GetPiercingSize();		}

  000b8	8b cf		 mov	 ecx, edi
; File C:\IAGOS\server\v18\Source\Source\_Common\MoverItem.cpp

; 262  : 	for( int i=0; i<( (CItemElem*)pItemBase )->GetPiercingSize(); i++ )

  000ba	43		 inc	 ebx
; File C:\IAGOS\server\v18\Source\Source\_Common\Item.h

; 103  : 	int		GetPiercingSize()	{	return m_piercing.GetPiercingSize();		}

  000bb	e8 00 00 00 00	 call	 ?GetPiercingSize@CPiercing@@QAEHXZ ; CPiercing::GetPiercingSize
; File C:\IAGOS\server\v18\Source\Source\_Common\MoverItem.cpp

; 262  : 	for( int i=0; i<( (CItemElem*)pItemBase )->GetPiercingSize(); i++ )

  000c0	3b d8		 cmp	 ebx, eax
  000c2	7c de		 jl	 SHORT $LL4@TradeLog
$LN3@TradeLog:
; File C:\IAGOS\server\v18\Source\Source\_Common\Item.h

; 111  : 	int		GetUltimatePiercingSize()	{	return m_piercing.GetUltimatePiercingSize();		}

  000c4	8b cf		 mov	 ecx, edi
  000c6	e8 00 00 00 00	 call	 ?GetUltimatePiercingSize@CPiercing@@QAEHXZ ; CPiercing::GetUltimatePiercingSize
; File C:\IAGOS\server\v18\Source\Source\_Common\MoverItem.cpp

; 264  : 	ar << ( (CItemElem*)pItemBase )->GetUltimatePiercingSize();

  000cb	89 45 fc	 mov	 DWORD PTR $T6[ebp], eax
  000ce	8b ce		 mov	 ecx, esi
  000d0	8d 45 fc	 lea	 eax, DWORD PTR $T6[ebp]
  000d3	50		 push	 eax
  000d4	e8 00 00 00 00	 call	 ??$?6H@CAr@@QAEAAV0@ABH@Z ; CAr::operator<<<int>
; File C:\IAGOS\server\v18\Source\Source\_Common\Item.h

; 111  : 	int		GetUltimatePiercingSize()	{	return m_piercing.GetUltimatePiercingSize();		}

  000d9	8b cf		 mov	 ecx, edi
; File C:\IAGOS\server\v18\Source\Source\_Common\MoverItem.cpp

; 265  : 	for( int i=0; i<( (CItemElem*)pItemBase )->GetUltimatePiercingSize(); i++ )

  000db	33 db		 xor	 ebx, ebx
; File C:\IAGOS\server\v18\Source\Source\_Common\Item.h

; 111  : 	int		GetUltimatePiercingSize()	{	return m_piercing.GetUltimatePiercingSize();		}

  000dd	e8 00 00 00 00	 call	 ?GetUltimatePiercingSize@CPiercing@@QAEHXZ ; CPiercing::GetUltimatePiercingSize
; File C:\IAGOS\server\v18\Source\Source\_Common\MoverItem.cpp

; 265  : 	for( int i=0; i<( (CItemElem*)pItemBase )->GetUltimatePiercingSize(); i++ )

  000e2	85 c0		 test	 eax, eax
  000e4	7e 22		 jle	 SHORT $LN6@TradeLog
$LL7@TradeLog:
; File C:\IAGOS\server\v18\Source\Source\_Common\Item.h

; 113  : 	DWORD	GetUltimatePiercingItem( int nth )	{	return m_piercing.GetUltimatePiercingItem( nth );	}

  000e6	53		 push	 ebx
  000e7	8b cf		 mov	 ecx, edi
  000e9	e8 00 00 00 00	 call	 ?GetUltimatePiercingItem@CPiercing@@QAEKH@Z ; CPiercing::GetUltimatePiercingItem
; File C:\IAGOS\server\v18\Source\Source\_Common\MoverItem.cpp

; 266  : 		ar << ( (CItemElem*)pItemBase )->GetUltimatePiercingItem( i );

  000ee	89 45 fc	 mov	 DWORD PTR $T7[ebp], eax
  000f1	8b ce		 mov	 ecx, esi
  000f3	8d 45 fc	 lea	 eax, DWORD PTR $T7[ebp]
  000f6	50		 push	 eax
  000f7	e8 00 00 00 00	 call	 ??$?6K@CAr@@QAEAAV0@ABK@Z ; CAr::operator<<<unsigned long>
; File C:\IAGOS\server\v18\Source\Source\_Common\Item.h

; 111  : 	int		GetUltimatePiercingSize()	{	return m_piercing.GetUltimatePiercingSize();		}

  000fc	8b cf		 mov	 ecx, edi
; File C:\IAGOS\server\v18\Source\Source\_Common\MoverItem.cpp

; 265  : 	for( int i=0; i<( (CItemElem*)pItemBase )->GetUltimatePiercingSize(); i++ )

  000fe	43		 inc	 ebx
; File C:\IAGOS\server\v18\Source\Source\_Common\Item.h

; 111  : 	int		GetUltimatePiercingSize()	{	return m_piercing.GetUltimatePiercingSize();		}

  000ff	e8 00 00 00 00	 call	 ?GetUltimatePiercingSize@CPiercing@@QAEHXZ ; CPiercing::GetUltimatePiercingSize
; File C:\IAGOS\server\v18\Source\Source\_Common\MoverItem.cpp

; 265  : 	for( int i=0; i<( (CItemElem*)pItemBase )->GetUltimatePiercingSize(); i++ )

  00104	3b d8		 cmp	 ebx, eax
  00106	7c de		 jl	 SHORT $LL7@TradeLog
$LN6@TradeLog:

; 267  : #else // __EXT_PIERCING
; 268  : 	ar << ( (CItemElem*)pItemBase )->GetPiercingSize();
; 269  : 	ar << ( (CItemElem*)pItemBase )->GetPiercingItem( 0 );
; 270  : 	ar << ( (CItemElem*)pItemBase )->GetPiercingItem( 1 );
; 271  : 	ar << ( (CItemElem*)pItemBase )->GetPiercingItem( 2 );
; 272  : 	ar << ( (CItemElem*)pItemBase )->GetPiercingItem( 3 );
; 273  : #if __VER >= 9 // __ULTIMATE
; 274  : 	ar << ( (CItemElem*)pItemBase )->GetPiercingItem( 4 );
; 275  : #endif // __ULTIMATE
; 276  : #endif // __EXT_PIERCING
; 277  : 	ar << ( (CItemElem*)pItemBase )->GetRandomOptItemId();

  00108	8b 7d 0c	 mov	 edi, DWORD PTR _pItemBase$[ebp]
  0010b	8b 87 90 00 00
	00		 mov	 eax, DWORD PTR [edi+144]
  00111	8b 8f 94 00 00
	00		 mov	 ecx, DWORD PTR [edi+148]
  00117	89 45 f8	 mov	 DWORD PTR $T1[ebp], eax
  0011a	8d 45 f8	 lea	 eax, DWORD PTR $T1[ebp]
  0011d	89 4d fc	 mov	 DWORD PTR $T1[ebp+4], ecx
  00120	8b ce		 mov	 ecx, esi
  00122	50		 push	 eax
  00123	e8 00 00 00 00	 call	 ??$?6_J@CAr@@QAEAAV0@AB_J@Z ; CAr::operator<<<__int64>

; 278  : #if __VER >= 9 // __PET_0410
; 279  : 		if( ((CItemElem*)pItemBase)->m_pPet )

  00128	8b 9f a0 00 00
	00		 mov	 ebx, DWORD PTR [edi+160]
  0012e	85 db		 test	 ebx, ebx
  00130	0f 84 d7 00 00
	00		 je	 $LN8@TradeLog

; 280  : 		{
; 281  : 			CPet* pPet = ((CItemElem*)pItemBase)->m_pPet;
; 282  : 
; 283  : 			ar << pPet->GetKind();

  00136	8a 43 04	 mov	 al, BYTE PTR [ebx+4]
  00139	8b ce		 mov	 ecx, esi
  0013b	88 45 0f	 mov	 BYTE PTR $T14[ebp], al
  0013e	8d 45 0f	 lea	 eax, DWORD PTR $T14[ebp]
  00141	50		 push	 eax
  00142	e8 00 00 00 00	 call	 ??$?6E@CAr@@QAEAAV0@ABE@Z ; CAr::operator<<<unsigned char>

; 284  : 			ar << pPet->GetLevel();

  00147	8a 43 05	 mov	 al, BYTE PTR [ebx+5]
  0014a	8b ce		 mov	 ecx, esi
  0014c	88 45 0f	 mov	 BYTE PTR $T15[ebp], al
  0014f	8d 45 0f	 lea	 eax, DWORD PTR $T15[ebp]
  00152	50		 push	 eax
  00153	e8 00 00 00 00	 call	 ??$?6E@CAr@@QAEAAV0@ABE@Z ; CAr::operator<<<unsigned char>

; 285  : 			ar << pPet->GetExp();

  00158	8b 43 08	 mov	 eax, DWORD PTR [ebx+8]
  0015b	8b ce		 mov	 ecx, esi
  0015d	89 45 0c	 mov	 DWORD PTR $T8[ebp], eax
  00160	8d 45 0c	 lea	 eax, DWORD PTR $T8[ebp]
  00163	50		 push	 eax
  00164	e8 00 00 00 00	 call	 ??$?6K@CAr@@QAEAAV0@ABK@Z ; CAr::operator<<<unsigned long>

; 286  : 			ar << pPet->GetEnergy();

  00169	0f b7 43 0c	 movzx	 eax, WORD PTR [ebx+12]
  0016d	8b ce		 mov	 ecx, esi
  0016f	89 45 0c	 mov	 DWORD PTR $T11[ebp], eax
  00172	8d 45 0c	 lea	 eax, DWORD PTR $T11[ebp]
  00175	50		 push	 eax
  00176	e8 00 00 00 00	 call	 ??$?6G@CAr@@QAEAAV0@ABG@Z ; CAr::operator<<<unsigned short>

; 287  : 			ar << pPet->GetLife();

  0017b	8b cb		 mov	 ecx, ebx
  0017d	e8 00 00 00 00	 call	 ?GetLife@CPet@@QAEGXZ	; CPet::GetLife
  00182	0f b7 c0	 movzx	 eax, ax
  00185	8b ce		 mov	 ecx, esi
  00187	89 45 0c	 mov	 DWORD PTR $T10[ebp], eax
  0018a	8d 45 0c	 lea	 eax, DWORD PTR $T10[ebp]
  0018d	50		 push	 eax
  0018e	e8 00 00 00 00	 call	 ??$?6G@CAr@@QAEAAV0@ABG@Z ; CAr::operator<<<unsigned short>

; 288  : 			ar << pPet->GetAvailLevel( PL_D );

  00193	6a 01		 push	 1
  00195	8b cb		 mov	 ecx, ebx
  00197	e8 00 00 00 00	 call	 ?GetAvailLevel@CPet@@QAEEE@Z ; CPet::GetAvailLevel
  0019c	88 45 0f	 mov	 BYTE PTR $T16[ebp], al
  0019f	8b ce		 mov	 ecx, esi
  001a1	8d 45 0f	 lea	 eax, DWORD PTR $T16[ebp]
  001a4	50		 push	 eax
  001a5	e8 00 00 00 00	 call	 ??$?6E@CAr@@QAEAAV0@ABE@Z ; CAr::operator<<<unsigned char>

; 289  : 			ar << pPet->GetAvailLevel( PL_C );

  001aa	6a 02		 push	 2
  001ac	8b cb		 mov	 ecx, ebx
  001ae	e8 00 00 00 00	 call	 ?GetAvailLevel@CPet@@QAEEE@Z ; CPet::GetAvailLevel
  001b3	88 45 0f	 mov	 BYTE PTR $T17[ebp], al
  001b6	8b ce		 mov	 ecx, esi
  001b8	8d 45 0f	 lea	 eax, DWORD PTR $T17[ebp]
  001bb	50		 push	 eax
  001bc	e8 00 00 00 00	 call	 ??$?6E@CAr@@QAEAAV0@ABE@Z ; CAr::operator<<<unsigned char>

; 290  : 			ar << pPet->GetAvailLevel( PL_B );

  001c1	6a 03		 push	 3
  001c3	8b cb		 mov	 ecx, ebx
  001c5	e8 00 00 00 00	 call	 ?GetAvailLevel@CPet@@QAEEE@Z ; CPet::GetAvailLevel
  001ca	88 45 0f	 mov	 BYTE PTR $T18[ebp], al
  001cd	8b ce		 mov	 ecx, esi
  001cf	8d 45 0f	 lea	 eax, DWORD PTR $T18[ebp]
  001d2	50		 push	 eax
  001d3	e8 00 00 00 00	 call	 ??$?6E@CAr@@QAEAAV0@ABE@Z ; CAr::operator<<<unsigned char>

; 291  : 			ar << pPet->GetAvailLevel( PL_A );

  001d8	6a 04		 push	 4
  001da	8b cb		 mov	 ecx, ebx
  001dc	e8 00 00 00 00	 call	 ?GetAvailLevel@CPet@@QAEEE@Z ; CPet::GetAvailLevel
  001e1	88 45 0f	 mov	 BYTE PTR $T19[ebp], al
  001e4	8b ce		 mov	 ecx, esi
  001e6	8d 45 0f	 lea	 eax, DWORD PTR $T19[ebp]
  001e9	50		 push	 eax
  001ea	e8 00 00 00 00	 call	 ??$?6E@CAr@@QAEAAV0@ABE@Z ; CAr::operator<<<unsigned char>

; 292  : 			ar << pPet->GetAvailLevel( PL_S );

  001ef	6a 05		 push	 5
  001f1	8b cb		 mov	 ecx, ebx
  001f3	e8 00 00 00 00	 call	 ?GetAvailLevel@CPet@@QAEEE@Z ; CPet::GetAvailLevel
  001f8	88 45 0f	 mov	 BYTE PTR $T20[ebp], al

; 318  : 			ar << (BYTE)0;
; 319  : 		}
; 320  : #endif // __PET_0410
; 321  : }

  001fb	8b ce		 mov	 ecx, esi
  001fd	8d 45 0f	 lea	 eax, DWORD PTR $T28[ebp]
  00200	50		 push	 eax
  00201	e8 00 00 00 00	 call	 ??$?6E@CAr@@QAEAAV0@ABE@Z ; CAr::operator<<<unsigned char>
  00206	5f		 pop	 edi
  00207	5e		 pop	 esi
  00208	5b		 pop	 ebx
  00209	8b e5		 mov	 esp, ebp
  0020b	5d		 pop	 ebp
  0020c	c3		 ret	 0
$LN8@TradeLog:
; File C:\IAGOS\server\v18\Source\Source\_Common\Item.h

; 230  : 	ItemProp*	GetProp()	{	return prj.GetItemProp( m_dwItemId );	}

  0020d	8b 47 0c	 mov	 eax, DWORD PTR [edi+12]
; File C:\IAGOS\server\v18\Source\Source\_Common\Project.h

; 1389 : 	VERIFY_RANGE_ASSERT( nIndex, 0, m_aPropItem.GetSize(), "GetItemProp range_error", NULL );

  00210	8b 0d 40 02 00
	00		 mov	 ecx, DWORD PTR ?prj@@3VCProject@@A+576
  00216	85 c0		 test	 eax, eax
  00218	78 4f		 js	 SHORT $LN36@TradeLog
  0021a	3b c1		 cmp	 eax, ecx
  0021c	7d 4b		 jge	 SHORT $LN36@TradeLog
; File C:\IAGOS\server\v18\Source\Source\_Common\data.h

; 270  : 	if( dwIndex >= (DWORD)m_nMaxIndex )

  0021e	8b 1d 30 02 00
	00		 mov	 ebx, DWORD PTR ?prj@@3VCProject@@A+560
  00224	72 04		 jb	 SHORT $LN41@TradeLog

; 271  : 		return NULL;

  00226	33 d2		 xor	 edx, edx
  00228	eb 03		 jmp	 SHORT $LN31@TradeLog
$LN41@TradeLog:

; 272  : 	return (T*) m_apOffset[ dwIndex ];

  0022a	8b 14 83	 mov	 edx, DWORD PTR [ebx+eax*4]
$LN31@TradeLog:
; File C:\IAGOS\server\v18\Source\Source\_Common\Item.h

; 281  : 	BOOL	IsTransformVisPet() { return GetProp() && GetProp()->dwItemKind3 == IK3_PET && m_bTranformVisPet; }

  0022d	85 d2		 test	 edx, edx
  0022f	74 4e		 je	 SHORT $LN10@TradeLog
; File C:\IAGOS\server\v18\Source\Source\_Common\Project.h

; 1389 : 	VERIFY_RANGE_ASSERT( nIndex, 0, m_aPropItem.GetSize(), "GetItemProp range_error", NULL );

  00231	3b c1		 cmp	 eax, ecx
  00233	7d 07		 jge	 SHORT $LN50@TradeLog
; File C:\IAGOS\server\v18\Source\Source\_Common\data.h

; 270  : 	if( dwIndex >= (DWORD)m_nMaxIndex )

  00235	73 1b		 jae	 SHORT $LN78@TradeLog

; 272  : 	return (T*) m_apOffset[ dwIndex ];

  00237	8b 04 83	 mov	 eax, DWORD PTR [ebx+eax*4]
; File C:\IAGOS\server\v18\Source\Source\_Common\Project.h

; 1390 : 	return m_aPropItem.GetAt( nIndex ); 

  0023a	eb 18		 jmp	 SHORT $LN45@TradeLog
$LN50@TradeLog:

; 579  : 	LPCTSTR szErr = Error( _T( "%s min:%d, max:%d, index:%d" ), szMsg, nMin, nMax, nIndex ); 

  0023c	50		 push	 eax
  0023d	51		 push	 ecx
  0023e	6a 00		 push	 0
  00240	68 00 00 00 00	 push	 OFFSET ??_C@_0BI@BEIFNGEL@GetItemProp?5range_error@
  00245	68 00 00 00 00	 push	 OFFSET ??_C@_0BM@HMFGHCP@?$CFs?5min?3?$CFd?0?5max?3?$CFd?0?5index?3?$CFd@
  0024a	e8 00 00 00 00	 call	 ?Error@@YAPBDPBDZZ	; Error
  0024f	83 c4 14	 add	 esp, 20			; 00000014H
$LN78@TradeLog:
; File C:\IAGOS\server\v18\Source\Source\_Common\Item.h

; 281  : 	BOOL	IsTransformVisPet() { return GetProp() && GetProp()->dwItemKind3 == IK3_PET && m_bTranformVisPet; }

  00252	33 c0		 xor	 eax, eax
$LN45@TradeLog:
  00254	83 78 78 64	 cmp	 DWORD PTR [eax+120], 100 ; 00000064H
  00258	75 25		 jne	 SHORT $LN10@TradeLog
  0025a	83 bf ac 00 00
	00 00		 cmp	 DWORD PTR [edi+172], 0
  00261	74 1c		 je	 SHORT $LN10@TradeLog
; File C:\IAGOS\server\v18\Source\Source\_Common\MoverItem.cpp

; 301  : 			}

  00263	c6 45 0f 64	 mov	 BYTE PTR $T21[ebp], 100	; 00000064H
  00267	eb 1a		 jmp	 SHORT $LN79@TradeLog
$LN36@TradeLog:
; File C:\IAGOS\server\v18\Source\Source\_Common\Project.h

; 579  : 	LPCTSTR szErr = Error( _T( "%s min:%d, max:%d, index:%d" ), szMsg, nMin, nMax, nIndex ); 

  00269	50		 push	 eax
  0026a	51		 push	 ecx
  0026b	6a 00		 push	 0
  0026d	68 00 00 00 00	 push	 OFFSET ??_C@_0BI@BEIFNGEL@GetItemProp?5range_error@
  00272	68 00 00 00 00	 push	 OFFSET ??_C@_0BM@HMFGHCP@?$CFs?5min?3?$CFd?0?5max?3?$CFd?0?5index?3?$CFd@
  00277	e8 00 00 00 00	 call	 ?Error@@YAPBDPBDZZ	; Error
  0027c	83 c4 14	 add	 esp, 20			; 00000014H
$LN10@TradeLog:
; File C:\IAGOS\server\v18\Source\Source\_Common\MoverItem.cpp

; 304  : 				ar << (BYTE)0;

  0027f	c6 45 0f 00	 mov	 BYTE PTR $T22[ebp], 0
$LN79@TradeLog:

; 305  : 			}
; 306  : #else // __PETVIS
; 307  : 			ar << (BYTE)0;
; 308  : #endif // __PETVIS
; 309  : 			// mirchang_100514 TransformVisPet_Log
; 310  : 			ar << (BYTE)0;

  00283	8d 45 0f	 lea	 eax, DWORD PTR $T22[ebp]
  00286	8b ce		 mov	 ecx, esi
  00288	50		 push	 eax
  00289	e8 00 00 00 00	 call	 ??$?6E@CAr@@QAEAAV0@ABE@Z ; CAr::operator<<<unsigned char>
  0028e	8d 45 0f	 lea	 eax, DWORD PTR $T23[ebp]
  00291	c6 45 0f 00	 mov	 BYTE PTR $T23[ebp], 0
  00295	50		 push	 eax
  00296	8b ce		 mov	 ecx, esi
  00298	e8 00 00 00 00	 call	 ??$?6E@CAr@@QAEAAV0@ABE@Z ; CAr::operator<<<unsigned char>

; 311  : 			ar << (DWORD)0;

  0029d	8d 45 0c	 lea	 eax, DWORD PTR $T9[ebp]
  002a0	c7 45 0c 00 00
	00 00		 mov	 DWORD PTR $T9[ebp], 0
  002a7	50		 push	 eax
  002a8	8b ce		 mov	 ecx, esi
  002aa	e8 00 00 00 00	 call	 ??$?6K@CAr@@QAEAAV0@ABK@Z ; CAr::operator<<<unsigned long>

; 312  : 			ar << (WORD)0;

  002af	8d 45 0c	 lea	 eax, DWORD PTR $T13[ebp]
  002b2	c7 45 0c 00 00
	00 00		 mov	 DWORD PTR $T13[ebp], 0
  002b9	50		 push	 eax
  002ba	8b ce		 mov	 ecx, esi
  002bc	e8 00 00 00 00	 call	 ??$?6G@CAr@@QAEAAV0@ABG@Z ; CAr::operator<<<unsigned short>

; 313  : 			ar << (WORD)0;

  002c1	8d 45 0c	 lea	 eax, DWORD PTR $T12[ebp]
  002c4	c7 45 0c 00 00
	00 00		 mov	 DWORD PTR $T12[ebp], 0
  002cb	50		 push	 eax
  002cc	8b ce		 mov	 ecx, esi
  002ce	e8 00 00 00 00	 call	 ??$?6G@CAr@@QAEAAV0@ABG@Z ; CAr::operator<<<unsigned short>

; 314  : 			ar << (BYTE)0;

  002d3	8d 45 0f	 lea	 eax, DWORD PTR $T24[ebp]
  002d6	c6 45 0f 00	 mov	 BYTE PTR $T24[ebp], 0
  002da	50		 push	 eax
  002db	8b ce		 mov	 ecx, esi
  002dd	e8 00 00 00 00	 call	 ??$?6E@CAr@@QAEAAV0@ABE@Z ; CAr::operator<<<unsigned char>

; 315  : 			ar << (BYTE)0;

  002e2	8d 45 0f	 lea	 eax, DWORD PTR $T25[ebp]
  002e5	c6 45 0f 00	 mov	 BYTE PTR $T25[ebp], 0
  002e9	50		 push	 eax
  002ea	8b ce		 mov	 ecx, esi
  002ec	e8 00 00 00 00	 call	 ??$?6E@CAr@@QAEAAV0@ABE@Z ; CAr::operator<<<unsigned char>

; 316  : 			ar << (BYTE)0;

  002f1	8d 45 0f	 lea	 eax, DWORD PTR $T26[ebp]
  002f4	c6 45 0f 00	 mov	 BYTE PTR $T26[ebp], 0
  002f8	50		 push	 eax
  002f9	8b ce		 mov	 ecx, esi
  002fb	e8 00 00 00 00	 call	 ??$?6E@CAr@@QAEAAV0@ABE@Z ; CAr::operator<<<unsigned char>

; 317  : 			ar << (BYTE)0;

  00300	8d 45 0f	 lea	 eax, DWORD PTR $T27[ebp]
  00303	c6 45 0f 00	 mov	 BYTE PTR $T27[ebp], 0
  00307	50		 push	 eax
  00308	8b ce		 mov	 ecx, esi
  0030a	e8 00 00 00 00	 call	 ??$?6E@CAr@@QAEAAV0@ABE@Z ; CAr::operator<<<unsigned char>

; 318  : 			ar << (BYTE)0;
; 319  : 		}
; 320  : #endif // __PET_0410
; 321  : }

  0030f	8d 45 0f	 lea	 eax, DWORD PTR $T28[ebp]
  00312	c6 45 0f 00	 mov	 BYTE PTR $T28[ebp], 0
  00316	50		 push	 eax
  00317	8b ce		 mov	 ecx, esi
  00319	e8 00 00 00 00	 call	 ??$?6E@CAr@@QAEAAV0@ABE@Z ; CAr::operator<<<unsigned char>
  0031e	5f		 pop	 edi
  0031f	5e		 pop	 esi
  00320	5b		 pop	 ebx
  00321	8b e5		 mov	 esp, ebp
  00323	5d		 pop	 ebp
  00324	c3		 ret	 0
?TradeLog@@YAXAAVCAr@@PAVCItemBase@@F@Z ENDP		; TradeLog
_TEXT	ENDS
; Function compile flags: /Ogtp
; File C:\IAGOS\server\v18\Source\Source\_Network\Misc\Include\ar.h
;	COMDAT ??$?6K@CAr@@QAEAAV0@ABK@Z
_TEXT	SEGMENT
_t$ = 8							; size = 4
??$?6K@CAr@@QAEAAV0@ABK@Z PROC				; CAr::operator<<<unsigned long>, COMDAT
; _this$ = ecx

; 255  : {

  00000	55		 push	 ebp
  00001	8b ec		 mov	 ebp, esp
  00003	56		 push	 esi

; 256  : 	CheckBuf(sizeof(T));

  00004	6a 04		 push	 4
  00006	8b f1		 mov	 esi, ecx
  00008	e8 00 00 00 00	 call	 ?CheckBuf@CAr@@QAEXI@Z	; CAr::CheckBuf

; 257  : 	*(UNALIGNED T*)m_lpBufCur = t;

  0000d	8b 56 08	 mov	 edx, DWORD PTR [esi+8]
  00010	8b 45 08	 mov	 eax, DWORD PTR _t$[ebp]
  00013	8b 00		 mov	 eax, DWORD PTR [eax]
  00015	89 02		 mov	 DWORD PTR [edx], eax

; 258  : 	m_lpBufCur += sizeof(T);
; 259  : 	return *this;

  00017	8b c6		 mov	 eax, esi
  00019	83 46 08 04	 add	 DWORD PTR [esi+8], 4
  0001d	5e		 pop	 esi

; 260  : }

  0001e	5d		 pop	 ebp
  0001f	c2 04 00	 ret	 4
??$?6K@CAr@@QAEAAV0@ABK@Z ENDP				; CAr::operator<<<unsigned long>
_TEXT	ENDS
; Function compile flags: /Ogtp
; File C:\IAGOS\server\v18\Source\Source\_Network\Misc\Include\ar.h
;	COMDAT ??$?6H@CAr@@QAEAAV0@ABH@Z
_TEXT	SEGMENT
_t$ = 8							; size = 4
??$?6H@CAr@@QAEAAV0@ABH@Z PROC				; CAr::operator<<<int>, COMDAT
; _this$ = ecx

; 255  : {

  00000	55		 push	 ebp
  00001	8b ec		 mov	 ebp, esp
  00003	56		 push	 esi

; 256  : 	CheckBuf(sizeof(T));

  00004	6a 04		 push	 4
  00006	8b f1		 mov	 esi, ecx
  00008	e8 00 00 00 00	 call	 ?CheckBuf@CAr@@QAEXI@Z	; CAr::CheckBuf

; 257  : 	*(UNALIGNED T*)m_lpBufCur = t;

  0000d	8b 56 08	 mov	 edx, DWORD PTR [esi+8]
  00010	8b 45 08	 mov	 eax, DWORD PTR _t$[ebp]
  00013	8b 00		 mov	 eax, DWORD PTR [eax]
  00015	89 02		 mov	 DWORD PTR [edx], eax

; 258  : 	m_lpBufCur += sizeof(T);
; 259  : 	return *this;

  00017	8b c6		 mov	 eax, esi
  00019	83 46 08 04	 add	 DWORD PTR [esi+8], 4
  0001d	5e		 pop	 esi

; 260  : }

  0001e	5d		 pop	 ebp
  0001f	c2 04 00	 ret	 4
??$?6H@CAr@@QAEAAV0@ABH@Z ENDP				; CAr::operator<<<int>
_TEXT	ENDS
; Function compile flags: /Ogtp
; File C:\IAGOS\server\v18\Source\Source\_Network\Misc\Include\ar.h
;	COMDAT ??$?6G@CAr@@QAEAAV0@ABG@Z
_TEXT	SEGMENT
_t$ = 8							; size = 4
??$?6G@CAr@@QAEAAV0@ABG@Z PROC				; CAr::operator<<<unsigned short>, COMDAT
; _this$ = ecx

; 255  : {

  00000	55		 push	 ebp
  00001	8b ec		 mov	 ebp, esp
  00003	56		 push	 esi

; 256  : 	CheckBuf(sizeof(T));

  00004	6a 02		 push	 2
  00006	8b f1		 mov	 esi, ecx
  00008	e8 00 00 00 00	 call	 ?CheckBuf@CAr@@QAEXI@Z	; CAr::CheckBuf

; 257  : 	*(UNALIGNED T*)m_lpBufCur = t;

  0000d	8b 45 08	 mov	 eax, DWORD PTR _t$[ebp]
  00010	8b 56 08	 mov	 edx, DWORD PTR [esi+8]
  00013	66 8b 00	 mov	 ax, WORD PTR [eax]
  00016	66 89 02	 mov	 WORD PTR [edx], ax

; 258  : 	m_lpBufCur += sizeof(T);
; 259  : 	return *this;

  00019	8b c6		 mov	 eax, esi
  0001b	83 46 08 02	 add	 DWORD PTR [esi+8], 2
  0001f	5e		 pop	 esi

; 260  : }

  00020	5d		 pop	 ebp
  00021	c2 04 00	 ret	 4
??$?6G@CAr@@QAEAAV0@ABG@Z ENDP				; CAr::operator<<<unsigned short>
_TEXT	ENDS
; Function compile flags: /Ogtp
; File C:\Program Files\Microsoft Visual Studio\2022\Professional\VC\Tools\MSVC\14.44.35207\include\xmemory
;	COMDAT ??$_Allocate_manually_vector_aligned@U_Default_allocate_traits@std@@@std@@YAPAXI@Z
_TEXT	SEGMENT
__Bytes$ = 8						; size = 4
??$_Allocate_manually_vector_aligned@U_Default_allocate_traits@std@@@std@@YAPAXI@Z PROC ; std::_Allocate_manually_vector_aligned<std::_Default_allocate_traits>, COMDAT

; 182  : __declspec(allocator) void* _Allocate_manually_vector_aligned(const size_t _Bytes) {

  00000	55		 push	 ebp
  00001	8b ec		 mov	 ebp, esp

; 183  :     // allocate _Bytes manually aligned to at least _Big_allocation_alignment
; 184  :     const size_t _Block_size = _Non_user_size + _Bytes;

  00003	8b 45 08	 mov	 eax, DWORD PTR __Bytes$[ebp]
  00006	8d 48 23	 lea	 ecx, DWORD PTR [eax+35]

; 185  :     if (_Block_size <= _Bytes) {

  00009	3b c8		 cmp	 ecx, eax
  0000b	0f 86 00 00 00
	00		 jbe	 ?_Throw_bad_array_new_length@std@@YAXXZ ; std::_Throw_bad_array_new_length

; 136  :         return ::operator new(_Bytes);

  00011	51		 push	 ecx
  00012	e8 00 00 00 00	 call	 ??2@YAPAXI@Z		; operator new

; 186  :         _Throw_bad_array_new_length(); // add overflow
; 187  :     }
; 188  : 
; 189  :     const uintptr_t _Ptr_container = reinterpret_cast<uintptr_t>(_Traits::_Allocate(_Block_size));

  00017	8b c8		 mov	 ecx, eax

; 136  :         return ::operator new(_Bytes);

  00019	83 c4 04	 add	 esp, 4

; 190  :     _STL_VERIFY(_Ptr_container != 0, "invalid argument"); // validate even in release since we're doing p[-1]

  0001c	85 c9		 test	 ecx, ecx
  0001e	74 0b		 je	 SHORT $LN9@Allocate_m

; 191  :     void* const _Ptr = reinterpret_cast<void*>((_Ptr_container + _Non_user_size) & ~(_Big_allocation_alignment - 1));

  00020	8d 41 23	 lea	 eax, DWORD PTR [ecx+35]
  00023	83 e0 e0	 and	 eax, -32		; ffffffe0H

; 192  :     static_cast<uintptr_t*>(_Ptr)[-1] = _Ptr_container;

  00026	89 48 fc	 mov	 DWORD PTR [eax-4], ecx

; 193  : 
; 194  : #ifdef _DEBUG
; 195  :     static_cast<uintptr_t*>(_Ptr)[-2] = _Big_allocation_sentinel;
; 196  : #endif // defined(_DEBUG)
; 197  :     return _Ptr;
; 198  : }

  00029	5d		 pop	 ebp
  0002a	c3		 ret	 0
$LN9@Allocate_m:

; 190  :     _STL_VERIFY(_Ptr_container != 0, "invalid argument"); // validate even in release since we're doing p[-1]

  0002b	6a 00		 push	 0
  0002d	6a 00		 push	 0
  0002f	6a 00		 push	 0
  00031	6a 00		 push	 0
  00033	6a 00		 push	 0
  00035	e8 00 00 00 00	 call	 __invoke_watson
$LN7@Allocate_m:
  0003a	cc		 int	 3
??$_Allocate_manually_vector_aligned@U_Default_allocate_traits@std@@@std@@YAPAXI@Z ENDP ; std::_Allocate_manually_vector_aligned<std::_Default_allocate_traits>
_TEXT	ENDS
; Function compile flags: /Ogtp
; File C:\IAGOS\server\v18\Source\Source\_Common\MoverItem.cpp
;	COMDAT ?IsTrading@CVTInfo@@QAEHPAVCItemElem@@@Z
_TEXT	SEGMENT
_pItemElem$ = 8						; size = 4
?IsTrading@CVTInfo@@QAEHPAVCItemElem@@@Z PROC		; CVTInfo::IsTrading, COMDAT
; _this$ = ecx

; 626  : {

  00000	55		 push	 ebp
  00001	8b ec		 mov	 ebp, esp

; 627  : 	for( int i = 0; i < MAX_VENDITEM; i++ )

  00003	8d 41 04	 lea	 eax, DWORD PTR [ecx+4]
  00006	33 d2		 xor	 edx, edx
  00008	8b 4d 08	 mov	 ecx, DWORD PTR _pItemElem$[ebp]
  0000b	0f 1f 44 00 00	 npad	 5
$LL4@IsTrading:

; 628  : 	{
; 629  : 		if( m_apItem_VT[i] == pItemElem )

  00010	39 08		 cmp	 DWORD PTR [eax], ecx
  00012	74 0f		 je	 SHORT $LN8@IsTrading

; 627  : 	for( int i = 0; i < MAX_VENDITEM; i++ )

  00014	42		 inc	 edx
  00015	83 c0 04	 add	 eax, 4
  00018	83 fa 1e	 cmp	 edx, 30			; 0000001eH
  0001b	7c f3		 jl	 SHORT $LL4@IsTrading

; 631  : 	}
; 632  : 	return FALSE;

  0001d	33 c0		 xor	 eax, eax

; 633  : }

  0001f	5d		 pop	 ebp
  00020	c2 04 00	 ret	 4
$LN8@IsTrading:

; 630  : 			return TRUE;

  00023	b8 01 00 00 00	 mov	 eax, 1

; 633  : }

  00028	5d		 pop	 ebp
  00029	c2 04 00	 ret	 4
?IsTrading@CVTInfo@@QAEHPAVCItemElem@@@Z ENDP		; CVTInfo::IsTrading
_TEXT	ENDS
; Function compile flags: /Ogtp
; File C:\IAGOS\server\v18\Source\Source\_Common\MoverItem.cpp
;	COMDAT ?VendorIsVendor@CVTInfo@@QAEHXZ
_TEXT	SEGMENT
?VendorIsVendor@CVTInfo@@QAEHXZ PROC			; CVTInfo::VendorIsVendor, COMDAT
; _this$ = ecx

; 616  : 	for( int i=0; i<MAX_VENDITEM; ++i )

  00000	33 d2		 xor	 edx, edx
  00002	8d 41 04	 lea	 eax, DWORD PTR [ecx+4]
$LL4@VendorIsVe:

; 617  : 	{
; 618  : 		if( m_apItem_VT[i] )	// µî·ĎÇŃ ľĆŔĚĹŰŔĚ ŔÖ´Â°ˇ?

  00005	83 38 00	 cmp	 DWORD PTR [eax], 0
  00008	75 0c		 jne	 SHORT $LN8@VendorIsVe

; 616  : 	for( int i=0; i<MAX_VENDITEM; ++i )

  0000a	42		 inc	 edx
  0000b	83 c0 04	 add	 eax, 4
  0000e	83 fa 1e	 cmp	 edx, 30			; 0000001eH
  00011	7c f2		 jl	 SHORT $LL4@VendorIsVe

; 620  : 	}
; 621  : 
; 622  : 	return FALSE;

  00013	33 c0		 xor	 eax, eax

; 623  : }

  00015	c3		 ret	 0
$LN8@VendorIsVe:

; 619  : 			return TRUE;

  00016	b8 01 00 00 00	 mov	 eax, 1

; 623  : }

  0001b	c3		 ret	 0
?VendorIsVendor@CVTInfo@@QAEHXZ ENDP			; CVTInfo::VendorIsVendor
_TEXT	ENDS
; Function compile flags: /Ogtp
; File C:\IAGOS\server\v18\Source\Source\_Common\MoverItem.cpp
;	COMDAT ?VendorSellItem@CVTInfo@@QAEHPAVCMover@@EKFAAUVENDOR_SELL_RESULT@@@Z
_TEXT	SEGMENT
_nCost$1$ = -224					; size = 4
_i$GSCopy$ = -220					; size = 1
tv338 = -216						; size = 4
_this$GSCopy$1$ = -212					; size = 4
tv365 = -208						; size = 4
_pBuyer$GSCopy$1$ = -204				; size = 4
_nRemain$1$ = -200					; size = 4
tv381 = -200						; size = 4
_i$GSCopy$1$ = -193					; size = 1
_itemElem$ = -192					; size = 176
__$ArrayPad$ = -16					; size = 4
__$EHRec$ = -12						; size = 12
_pBuyer$ = 8						; size = 4
_i$ = 12						; size = 1
_dwItemId$ = 16						; size = 4
_nNum$ = 20						; size = 2
_result$ = 24						; size = 4
?VendorSellItem@CVTInfo@@QAEHPAVCMover@@EKFAAUVENDOR_SELL_RESULT@@@Z PROC ; CVTInfo::VendorSellItem, COMDAT
; _this$ = ecx

; 638  : {

  00000	55		 push	 ebp
  00001	8b ec		 mov	 ebp, esp
  00003	6a ff		 push	 -1
  00005	68 00 00 00 00	 push	 __ehhandler$?VendorSellItem@CVTInfo@@QAEHPAVCMover@@EKFAAUVENDOR_SELL_RESULT@@@Z
  0000a	64 a1 00 00 00
	00		 mov	 eax, DWORD PTR fs:0
  00010	50		 push	 eax
  00011	81 ec d4 00 00
	00		 sub	 esp, 212		; 000000d4H
  00017	a1 00 00 00 00	 mov	 eax, DWORD PTR ___security_cookie
  0001c	33 c5		 xor	 eax, ebp
  0001e	89 45 f0	 mov	 DWORD PTR __$ArrayPad$[ebp], eax
  00021	53		 push	 ebx
  00022	56		 push	 esi
  00023	57		 push	 edi
  00024	50		 push	 eax
  00025	8d 45 f4	 lea	 eax, DWORD PTR __$EHRec$[ebp]
  00028	64 a3 00 00 00
	00		 mov	 DWORD PTR fs:0, eax
  0002e	8b d9		 mov	 ebx, ecx
  00030	89 9d 2c ff ff
	ff		 mov	 DWORD PTR _this$GSCopy$1$[ebp], ebx
  00036	8b 7d 18	 mov	 edi, DWORD PTR _result$[ebp]
  00039	8b 4d 08	 mov	 ecx, DWORD PTR _pBuyer$[ebp]
  0003c	8a 45 0c	 mov	 al, BYTE PTR _i$[ebp]
  0003f	89 8d 34 ff ff
	ff		 mov	 DWORD PTR _pBuyer$GSCopy$1$[ebp], ecx

; 639  : 	result.nRemain    = 0;
; 640  : 	result.nErrorCode = 0;
; 641  : 
; 642  : 	if( IsVendorOpen() == FALSE )

  00045	8b cb		 mov	 ecx, ebx
  00047	88 85 3f ff ff
	ff		 mov	 BYTE PTR _i$GSCopy$1$[ebp], al
  0004d	88 85 24 ff ff
	ff		 mov	 BYTE PTR _i$GSCopy$[ebp], al
  00053	c7 87 b0 00 00
	00 00 00 00 00	 mov	 DWORD PTR [edi+176], 0
  0005d	c7 87 b4 00 00
	00 00 00 00 00	 mov	 DWORD PTR [edi+180], 0
  00067	e8 00 00 00 00	 call	 ?IsVendorOpen@CVTInfo@@QAEHXZ ; CVTInfo::IsVendorOpen
  0006c	85 c0		 test	 eax, eax
  0006e	0f 84 95 00 00
	00		 je	 $LN4@VendorSell

; 643  : 		return FALSE;
; 644  : 
; 645  : 	CItemBase* pItemBase = m_apItem_VT[i];

  00074	0f b6 85 3f ff
	ff ff		 movzx	 eax, BYTE PTR _i$GSCopy$1$[ebp]
  0007b	89 85 28 ff ff
	ff		 mov	 DWORD PTR tv338[ebp], eax
  00081	8b 5c 83 04	 mov	 ebx, DWORD PTR [ebx+eax*4+4]

; 646  : 	if( IsUsingItem( pItemBase ) == FALSE || pItemBase->m_dwItemId != dwItemId )

  00085	53		 push	 ebx
  00086	e8 00 00 00 00	 call	 ?IsUsingItem@@YAHPAVCItemBase@@@Z ; IsUsingItem
  0008b	83 c4 04	 add	 esp, 4
  0008e	85 c0		 test	 eax, eax
  00090	74 77		 je	 SHORT $LN4@VendorSell
  00092	8b 43 0c	 mov	 eax, DWORD PTR [ebx+12]
  00095	3b 45 10	 cmp	 eax, DWORD PTR _dwItemId$[ebp]
  00098	75 6f		 jne	 SHORT $LN4@VendorSell

; 647  : 		return FALSE;
; 648  : 
; 649  : 	if( nNum < 1 )
; 650  : 		nNum = 1;
; 651  : 	if( nNum > pItemBase->GetExtra() )

  0009a	0f b7 4d 14	 movzx	 ecx, WORD PTR _nNum$[ebp]
  0009e	ba 01 00 00 00	 mov	 edx, 1
  000a3	66 39 55 14	 cmp	 WORD PTR _nNum$[ebp], dx
  000a7	0f 4d d1	 cmovge	 edx, ecx
  000aa	0f b7 c2	 movzx	 eax, dx
  000ad	8b 53 10	 mov	 edx, DWORD PTR [ebx+16]
  000b0	0f bf c8	 movsx	 ecx, ax

; 652  : 		nNum = (short)pItemBase->GetExtra();
; 653  : 
; 654  : //	06.10.26
; 655  : 	if( pItemBase->m_nCost > 0 && (float)pBuyer->GetGold() < (float)nNum * (float)pItemBase->m_nCost )

  000b3	3b ca		 cmp	 ecx, edx
  000b5	0f b7 f2	 movzx	 esi, dx
  000b8	8b 53 34	 mov	 edx, DWORD PTR [ebx+52]
  000bb	0f 4e f0	 cmovle	 esi, eax
  000be	0f b7 ce	 movzx	 ecx, si
  000c1	8b b5 34 ff ff
	ff		 mov	 esi, DWORD PTR _pBuyer$GSCopy$1$[ebp]
  000c7	0f b7 c1	 movzx	 eax, cx
  000ca	89 85 30 ff ff
	ff		 mov	 DWORD PTR tv365[ebp], eax
  000d0	89 8d 38 ff ff
	ff		 mov	 DWORD PTR tv381[ebp], ecx
  000d6	0f bf c1	 movsx	 eax, cx
  000d9	85 d2		 test	 edx, edx
  000db	7e 4c		 jle	 SHORT $LN16@VendorSell
  000dd	66 0f 6e 96 e0
	14 00 00	 movd	 xmm2, DWORD PTR [esi+5344]
  000e5	66 0f 6e ca	 movd	 xmm1, edx
  000e9	66 0f 6e c0	 movd	 xmm0, eax
  000ed	0f 5b c9	 cvtdq2ps xmm1, xmm1
  000f0	0f 5b c0	 cvtdq2ps xmm0, xmm0
  000f3	0f 5b d2	 cvtdq2ps xmm2, xmm2
  000f6	f3 0f 59 c8	 mulss	 xmm1, xmm0
  000fa	0f 2f ca	 comiss	 xmm1, xmm2
  000fd	76 2a		 jbe	 SHORT $LN16@VendorSell
$LN20@VendorSell:

; 704  : }

  000ff	c7 87 b4 00 00
	00 71 02 00 00	 mov	 DWORD PTR [edi+180], 625 ; 00000271H
$LN4@VendorSell:
  00109	33 c0		 xor	 eax, eax
$LN1@VendorSell:
  0010b	8b 4d f4	 mov	 ecx, DWORD PTR __$EHRec$[ebp]
  0010e	64 89 0d 00 00
	00 00		 mov	 DWORD PTR fs:0, ecx
  00115	59		 pop	 ecx
  00116	5f		 pop	 edi
  00117	5e		 pop	 esi
  00118	5b		 pop	 ebx
  00119	8b 4d f0	 mov	 ecx, DWORD PTR __$ArrayPad$[ebp]
  0011c	33 cd		 xor	 ecx, ebp
  0011e	e8 00 00 00 00	 call	 @__security_check_cookie@4
  00123	8b e5		 mov	 esp, ebp
  00125	5d		 pop	 ebp
  00126	c2 14 00	 ret	 20			; 00000014H
$LN16@VendorSell:

; 656  : 	{
; 657  : #if __VER >= 8 // __S8_VENDOR_REVISION
; 658  : 		result.nErrorCode = TID_GAME_LACKMONEY;
; 659  : 		return FALSE;
; 660  : #else // __VER >= 8 // __S8_VENDOR_REVISION
; 661  : 		nNum = (short)( pBuyer->GetGold() / pItemBase->m_nCost );
; 662  : #endif // __VER >= 8 // __S8_VENDOR_REVISION
; 663  : 	}
; 664  : 	
; 665  : 	if( nNum == 0 )

  00129	66 85 c9	 test	 cx, cx
  0012c	74 d1		 je	 SHORT $LN20@VendorSell

; 666  : 	{
; 667  : 		result.nErrorCode = TID_GAME_LACKMONEY;
; 668  : 		return FALSE;
; 669  : 	}
; 670  : 
; 671  : 	CItemElem* pItemElem = (CItemElem*)pItemBase;
; 672  : 	CItemElem itemElem;

  0012e	8d 8d 40 ff ff
	ff		 lea	 ecx, DWORD PTR _itemElem$[ebp]
  00134	e8 00 00 00 00	 call	 ??0CItemElem@@QAE@XZ	; CItemElem::CItemElem

; 673  : 	itemElem	= *pItemElem;

  00139	8b 85 40 ff ff
	ff		 mov	 eax, DWORD PTR _itemElem$[ebp]
  0013f	8d 8d 40 ff ff
	ff		 lea	 ecx, DWORD PTR _itemElem$[ebp]
  00145	53		 push	 ebx
  00146	c7 45 fc 00 00
	00 00		 mov	 DWORD PTR __$EHRec$[ebp+8], 0
  0014d	ff 50 10	 call	 DWORD PTR [eax+16]

; 674  : 	itemElem.m_nItemNum	 = nNum;

  00150	8b 85 30 ff ff
	ff		 mov	 eax, DWORD PTR tv365[ebp]

; 675  : 
; 676  : 	if( pBuyer->CreateItem( &itemElem ) == FALSE )

  00156	8b ce		 mov	 ecx, esi
  00158	6a 00		 push	 0
  0015a	6a 00		 push	 0
  0015c	66 89 45 b4	 mov	 WORD PTR _itemElem$[ebp+116], ax
  00160	8d 85 40 ff ff
	ff		 lea	 eax, DWORD PTR _itemElem$[ebp]
  00166	6a 00		 push	 0
  00168	50		 push	 eax
  00169	e8 00 00 00 00	 call	 ?CreateItem@CMover@@QAEHPAVCItemBase@@PAEPAFE@Z ; CMover::CreateItem
  0016e	85 c0		 test	 eax, eax
  00170	75 1e		 jne	 SHORT $LN9@VendorSell

; 702  : 	result.nRemain = nRemain;
; 703  : 	return TRUE;

  00172	8d 8d 40 ff ff
	ff		 lea	 ecx, DWORD PTR _itemElem$[ebp]
  00178	c7 87 b4 00 00
	00 72 02 00 00	 mov	 DWORD PTR [edi+180], 626 ; 00000272H
  00182	33 f6		 xor	 esi, esi
  00184	e8 00 00 00 00	 call	 ??1CItemElem@@UAE@XZ	; CItemElem::~CItemElem
  00189	8b c6		 mov	 eax, esi
  0018b	e9 7b ff ff ff	 jmp	 $LN1@VendorSell
$LN9@VendorSell:

; 677  : 	{
; 678  : 		result.nErrorCode = TID_GAME_LACKSPACE;
; 679  : 		return FALSE;
; 680  : 	}
; 681  : 
; 682  : 	// CItemElemŔÇ şą»ç ż¬»ęŔÚżˇ m_nCost´Â Á¦żÜµÇľî ŔÖ´Ů.
; 683  : 	int nCost	= pItemBase->m_nCost;

  00190	8b 43 34	 mov	 eax, DWORD PTR [ebx+52]

; 684  : 	pBuyer->AddGold( -( pItemBase->m_nCost * nNum ) );

  00193	8b 95 38 ff ff
	ff		 mov	 edx, DWORD PTR tv381[ebp]
  00199	0f bf ca	 movsx	 ecx, dx
  0019c	89 85 20 ff ff
	ff		 mov	 DWORD PTR _nCost$1$[ebp], eax
  001a2	0f af c1	 imul	 eax, ecx
  001a5	8b ce		 mov	 ecx, esi
  001a7	6a 01		 push	 1
  001a9	f7 d8		 neg	 eax
  001ab	50		 push	 eax
  001ac	e8 00 00 00 00	 call	 ?AddGold@CMover@@QAEHHH@Z ; CMover::AddGold

; 685  : 	m_pOwner->AddGold( pItemBase->m_nCost * nNum );

  001b1	8b 95 38 ff ff
	ff		 mov	 edx, DWORD PTR tv381[ebp]
  001b7	8b 43 34	 mov	 eax, DWORD PTR [ebx+52]
  001ba	8b b5 2c ff ff
	ff		 mov	 esi, DWORD PTR _this$GSCopy$1$[ebp]
  001c0	0f bf ca	 movsx	 ecx, dx
  001c3	0f af c1	 imul	 eax, ecx
  001c6	6a 01		 push	 1
  001c8	8b 8e 80 00 00
	00		 mov	 ecx, DWORD PTR [esi+128]
  001ce	50		 push	 eax
  001cf	e8 00 00 00 00	 call	 ?AddGold@CMover@@QAEHHH@Z ; CMover::AddGold

; 686  : 
; 687  : 	pItemBase->SetExtra( pItemBase->GetExtra() - nNum );

  001d4	8b 8d 38 ff ff
	ff		 mov	 ecx, DWORD PTR tv381[ebp]
  001da	0f bf c1	 movsx	 eax, cx
  001dd	29 43 10	 sub	 DWORD PTR [ebx+16], eax
  001e0	8b 43 10	 mov	 eax, DWORD PTR [ebx+16]
  001e3	89 85 38 ff ff
	ff		 mov	 DWORD PTR _nRemain$1$[ebp], eax

; 688  : 	int nRemain = pItemBase->GetExtra();
; 689  : 	if( nRemain <= 0 )

  001e9	85 c0		 test	 eax, eax
  001eb	7f 0e		 jg	 SHORT $LN10@VendorSell

; 690  : 		m_apItem_VT[i] = NULL;

  001ed	8b 85 28 ff ff
	ff		 mov	 eax, DWORD PTR tv338[ebp]
  001f3	c7 44 86 04 00
	00 00 00	 mov	 DWORD PTR [esi+eax*4+4], 0
$LN10@VendorSell:

; 691  : 
; 692  : #if __VER >= 11 // __MOD_VENDOR
; 693  : #ifdef __WORLDSERVER
; 694  : 	g_UserMng.AddPVendorItemNum( (CUser*)m_pOwner, i, nRemain, pBuyer->GetName() );

  001fb	8b 8d 34 ff ff
	ff		 mov	 ecx, DWORD PTR _pBuyer$GSCopy$1$[ebp]
  00201	8b b6 80 00 00
	00		 mov	 esi, DWORD PTR [esi+128]
  00207	6a 00		 push	 0
  00209	e8 00 00 00 00	 call	 ?GetName@CMover@@QAEPBDH@Z ; CMover::GetName
  0020e	50		 push	 eax
  0020f	ff b5 38 ff ff
	ff		 push	 DWORD PTR _nRemain$1$[ebp]
  00215	b9 00 00 00 00	 mov	 ecx, OFFSET ?g_UserMng@@3VCUserMng@@A ; g_UserMng
  0021a	ff b5 24 ff ff
	ff		 push	 DWORD PTR _i$GSCopy$[ebp]
  00220	56		 push	 esi
  00221	e8 00 00 00 00	 call	 ?AddPVendorItemNum@CUserMng@@QAEXPAVCUser@@EFPBD@Z ; CUserMng::AddPVendorItemNum

; 695  : #endif	// __WORLDSERVER
; 696  : #endif	// __MOD_VENDOR
; 697  : 
; 698  : 	m_pOwner->RemoveItem( (BYTE)pItemBase->m_dwObjId, nNum );

  00226	8b 8d 2c ff ff
	ff		 mov	 ecx, DWORD PTR _this$GSCopy$1$[ebp]
  0022c	ff b5 30 ff ff
	ff		 push	 DWORD PTR tv365[ebp]
  00232	0f b6 43 04	 movzx	 eax, BYTE PTR [ebx+4]
  00236	50		 push	 eax
  00237	8b 89 80 00 00
	00		 mov	 ecx, DWORD PTR [ecx+128]
  0023d	e8 00 00 00 00	 call	 ?RemoveItem@CMover@@QAEXEF@Z ; CMover::RemoveItem

; 699  : 
; 700  : 	result.item = itemElem;

  00242	8b 07		 mov	 eax, DWORD PTR [edi]
  00244	8d 8d 40 ff ff
	ff		 lea	 ecx, DWORD PTR _itemElem$[ebp]
  0024a	51		 push	 ecx
  0024b	8b cf		 mov	 ecx, edi
  0024d	ff 50 10	 call	 DWORD PTR [eax+16]

; 701  : 	result.item.m_nCost	= nCost;

  00250	8b 85 20 ff ff
	ff		 mov	 eax, DWORD PTR _nCost$1$[ebp]

; 702  : 	result.nRemain = nRemain;
; 703  : 	return TRUE;

  00256	8d 8d 40 ff ff
	ff		 lea	 ecx, DWORD PTR _itemElem$[ebp]
  0025c	89 47 34	 mov	 DWORD PTR [edi+52], eax
  0025f	be 01 00 00 00	 mov	 esi, 1
  00264	8b 85 38 ff ff
	ff		 mov	 eax, DWORD PTR _nRemain$1$[ebp]
  0026a	89 87 b0 00 00
	00		 mov	 DWORD PTR [edi+176], eax
  00270	e8 00 00 00 00	 call	 ??1CItemElem@@UAE@XZ	; CItemElem::~CItemElem
  00275	8b c6		 mov	 eax, esi
  00277	e9 8f fe ff ff	 jmp	 $LN1@VendorSell
_TEXT	ENDS
;	COMDAT text$x
text$x	SEGMENT
__unwindfunclet$?VendorSellItem@CVTInfo@@QAEHPAVCMover@@EKFAAUVENDOR_SELL_RESULT@@@Z$0:
  00000	8d 8d 40 ff ff
	ff		 lea	 ecx, DWORD PTR _itemElem$[ebp]
  00006	e9 00 00 00 00	 jmp	 ??1CItemElem@@UAE@XZ	; CItemElem::~CItemElem
  0000b	cc		 int	 3
  0000c	cc		 int	 3
  0000d	cc		 int	 3
  0000e	cc		 int	 3
  0000f	cc		 int	 3
__ehhandler$?VendorSellItem@CVTInfo@@QAEHPAVCMover@@EKFAAUVENDOR_SELL_RESULT@@@Z:
  00010	90		 npad	 1
  00011	90		 npad	 1
  00012	8b 54 24 08	 mov	 edx, DWORD PTR [esp+8]
  00016	8d 42 0c	 lea	 eax, DWORD PTR [edx+12]
  00019	8b 8a 1c ff ff
	ff		 mov	 ecx, DWORD PTR [edx-228]
  0001f	33 c8		 xor	 ecx, eax
  00021	e8 00 00 00 00	 call	 @__security_check_cookie@4
  00026	8b 4a fc	 mov	 ecx, DWORD PTR [edx-4]
  00029	33 c8		 xor	 ecx, eax
  0002b	e8 00 00 00 00	 call	 @__security_check_cookie@4
  00030	b8 00 00 00 00	 mov	 eax, OFFSET __ehfuncinfo$?VendorSellItem@CVTInfo@@QAEHPAVCMover@@EKFAAUVENDOR_SELL_RESULT@@@Z
  00035	e9 00 00 00 00	 jmp	 ___CxxFrameHandler3
text$x	ENDS
?VendorSellItem@CVTInfo@@QAEHPAVCMover@@EKFAAUVENDOR_SELL_RESULT@@@Z ENDP ; CVTInfo::VendorSellItem
; Function compile flags: /Ogtp
; File C:\IAGOS\server\v18\Source\Source\_Common\MoverItem.cpp
;	COMDAT ?VendorClearItem@CVTInfo@@QAEHE@Z
_TEXT	SEGMENT
_i$ = 8							; size = 1
?VendorClearItem@CVTInfo@@QAEHE@Z PROC			; CVTInfo::VendorClearItem, COMDAT
; _this$ = ecx

; 536  : {

  00000	55		 push	 ebp
  00001	8b ec		 mov	 ebp, esp

; 537  : 	CItemBase* pItemBase = m_apItem_VT[i];

  00003	0f b6 45 08	 movzx	 eax, BYTE PTR _i$[ebp]
  00007	8d 0c 81	 lea	 ecx, DWORD PTR [ecx+eax*4]
  0000a	8b 41 04	 mov	 eax, DWORD PTR [ecx+4]

; 538  : 	if( pItemBase )

  0000d	85 c0		 test	 eax, eax
  0000f	74 1e		 je	 SHORT $LN2@VendorClea

; 539  : 	{
; 540  : 		pItemBase->SetExtra( 0 );

  00011	c7 40 10 00 00
	00 00		 mov	 DWORD PTR [eax+16], 0

; 541  : 		pItemBase->m_nCost = 0;

  00018	c7 40 34 00 00
	00 00		 mov	 DWORD PTR [eax+52], 0

; 542  : 		m_apItem_VT[i]     = NULL;
; 543  : 		return TRUE;

  0001f	b8 01 00 00 00	 mov	 eax, 1
  00024	c7 41 04 00 00
	00 00		 mov	 DWORD PTR [ecx+4], 0

; 548  : 	}
; 549  : }

  0002b	5d		 pop	 ebp
  0002c	c2 04 00	 ret	 4
$LN2@VendorClea:

; 544  : 	}
; 545  : 	else
; 546  : 	{
; 547  : 		return FALSE;

  0002f	33 c0		 xor	 eax, eax

; 548  : 	}
; 549  : }

  00031	5d		 pop	 ebp
  00032	c2 04 00	 ret	 4
?VendorClearItem@CVTInfo@@QAEHE@Z ENDP			; CVTInfo::VendorClearItem
_TEXT	ENDS
; Function compile flags: /Ogtp
; File C:\IAGOS\server\v18\Source\Source\_Common\MoverItem.cpp
;	COMDAT ?VendorSetItem@CVTInfo@@QAEXEEFH@Z
_TEXT	SEGMENT
_nId$ = 8						; size = 1
_i$ = 12						; size = 1
_nNum$ = 16						; size = 2
_nCost$ = 20						; size = 4
?VendorSetItem@CVTInfo@@QAEXEEFH@Z PROC			; CVTInfo::VendorSetItem, COMDAT
; _this$ = ecx

; 553  : {

  00000	55		 push	 ebp
  00001	8b ec		 mov	 ebp, esp

; 554  : 	CItemBase* pItemBase = m_pOwner->GetItemId( nId );

  00003	0f b6 45 08	 movzx	 eax, BYTE PTR _nId$[ebp]
  00007	56		 push	 esi
  00008	8b f1		 mov	 esi, ecx
  0000a	50		 push	 eax
  0000b	8b 8e 80 00 00
	00		 mov	 ecx, DWORD PTR [esi+128]
  00011	e8 00 00 00 00	 call	 ?GetItemId@CMover@@QAEPAVCItemBase@@K@Z ; CMover::GetItemId

; 555  : 	if( pItemBase )

  00016	85 c0		 test	 eax, eax
  00018	74 15		 je	 SHORT $LN2@VendorSetI

; 556  : 	{
; 557  : 		m_apItem_VT[i] = pItemBase;

  0001a	0f b6 4d 0c	 movzx	 ecx, BYTE PTR _i$[ebp]
  0001e	89 44 8e 04	 mov	 DWORD PTR [esi+ecx*4+4], eax

; 558  : 		pItemBase->SetExtra( nNum );

  00022	0f bf 4d 10	 movsx	 ecx, WORD PTR _nNum$[ebp]
  00026	89 48 10	 mov	 DWORD PTR [eax+16], ecx

; 559  : 		pItemBase->m_nCost = nCost;

  00029	8b 4d 14	 mov	 ecx, DWORD PTR _nCost$[ebp]
  0002c	89 48 34	 mov	 DWORD PTR [eax+52], ecx
$LN2@VendorSetI:
  0002f	5e		 pop	 esi

; 560  : 	}
; 561  : }

  00030	5d		 pop	 ebp
  00031	c2 10 00	 ret	 16			; 00000010H
?VendorSetItem@CVTInfo@@QAEXEEFH@Z ENDP			; CVTInfo::VendorSetItem
_TEXT	ENDS
; Function compile flags: /Ogtp
; File C:\IAGOS\server\v18\Source\Source\_Common\MoverItem.cpp
;	COMDAT ?VendorItemNum@CVTInfo@@QAEXEF@Z
_TEXT	SEGMENT
_i$ = 8							; size = 1
_nNum$ = 12						; size = 2
?VendorItemNum@CVTInfo@@QAEXEF@Z PROC			; CVTInfo::VendorItemNum, COMDAT
; _this$ = ecx

; 566  : {

  00000	55		 push	 ebp
  00001	8b ec		 mov	 ebp, esp

; 567  : 	CItemBase* pItemBase = m_apItem_VT[i];

  00003	0f b6 45 08	 movzx	 eax, BYTE PTR _i$[ebp]
  00007	8d 14 81	 lea	 edx, DWORD PTR [ecx+eax*4]
  0000a	56		 push	 esi
  0000b	8b 72 04	 mov	 esi, DWORD PTR [edx+4]

; 568  : 	if( pItemBase )

  0000e	85 f6		 test	 esi, esi
  00010	74 16		 je	 SHORT $LN3@VendorItem

; 569  : 	{
; 570  : 		pItemBase->SetExtra( nNum );

  00012	66 8b 4d 0c	 mov	 cx, WORD PTR _nNum$[ebp]
  00016	0f bf c1	 movsx	 eax, cx
  00019	89 46 10	 mov	 DWORD PTR [esi+16], eax

; 571  : 		if( nNum == 0 )

  0001c	66 85 c9	 test	 cx, cx
  0001f	75 07		 jne	 SHORT $LN3@VendorItem

; 572  : 		{
; 573  : 		#ifdef __CLIENT
; 574  : 			if( m_pOwner->IsActiveMover() == FALSE )
; 575  : 				SAFE_DELETE( m_apItem_VT[i] );
; 576  : 		#endif
; 577  : 			m_apItem_VT[i] = NULL;

  00021	c7 42 04 00 00
	00 00		 mov	 DWORD PTR [edx+4], 0
$LN3@VendorItem:
  00028	5e		 pop	 esi

; 578  : 		}
; 579  : 	}
; 580  : }

  00029	5d		 pop	 ebp
  0002a	c2 08 00	 ret	 8
?VendorItemNum@CVTInfo@@QAEXEF@Z ENDP			; CVTInfo::VendorItemNum
_TEXT	ENDS
; Function compile flags: /Ogtp
; File C:\IAGOS\server\v18\Source\Source\_Common\MoverItem.cpp
;	COMDAT ?VendorCopyItems@CVTInfo@@QAEXPAPAVCItemBase@@@Z
_TEXT	SEGMENT
_ppItemVd$ = 8						; size = 4
?VendorCopyItems@CVTInfo@@QAEXPAPAVCItemBase@@@Z PROC	; CVTInfo::VendorCopyItems, COMDAT
; _this$ = ecx

; 585  : {

  00000	55		 push	 ebp
  00001	8b ec		 mov	 ebp, esp
  00003	56		 push	 esi

; 586  : 	memcpy( (void*)m_apItem_VT, ppItemVd, sizeof(m_apItem_VT) );

  00004	8b 75 08	 mov	 esi, DWORD PTR _ppItemVd$[ebp]
  00007	57		 push	 edi
  00008	8d 79 04	 lea	 edi, DWORD PTR [ecx+4]
  0000b	b9 1e 00 00 00	 mov	 ecx, 30			; 0000001eH
  00010	f3 a5		 rep movsd
  00012	5f		 pop	 edi
  00013	5e		 pop	 esi

; 587  : }

  00014	5d		 pop	 ebp
  00015	c2 04 00	 ret	 4
?VendorCopyItems@CVTInfo@@QAEXPAPAVCItemBase@@@Z ENDP	; CVTInfo::VendorCopyItems
_TEXT	ENDS
; Function compile flags: /Ogtp
; File C:\IAGOS\server\v18\Source\Source\_Common\MoverItem.cpp
; File C:\Program Files\Microsoft Visual Studio\2022\Professional\VC\Tools\MSVC\14.44.35207\include\xstring
; File C:\IAGOS\server\v18\Source\Source\_Common\MoverItem.cpp
;	COMDAT ?VendorClose@CVTInfo@@QAEXH@Z
_TEXT	SEGMENT
_bClearTitle$ = 8					; size = 4
?VendorClose@CVTInfo@@QAEXH@Z PROC			; CVTInfo::VendorClose, COMDAT
; _this$ = ecx

; 591  : {

  00000	55		 push	 ebp
  00001	8b ec		 mov	 ebp, esp
  00003	56		 push	 esi
  00004	57		 push	 edi
  00005	8b f9		 mov	 edi, ecx

; 592  : 	for( int i = 0; i < MAX_VENDITEM; i++ )

  00007	be 1e 00 00 00	 mov	 esi, 30			; 0000001eH
  0000c	8d 47 04	 lea	 eax, DWORD PTR [edi+4]
  0000f	90		 npad	 1
$LL4@VendorClos:

; 593  : 	{
; 594  : 		if( m_apItem_VT[i] )

  00010	8b 10		 mov	 edx, DWORD PTR [eax]
  00012	85 d2		 test	 edx, edx
  00014	74 16		 je	 SHORT $LN2@VendorClos

; 595  : 		{
; 596  : 			m_apItem_VT[i]->SetExtra( 0 );

  00016	c7 42 10 00 00
	00 00		 mov	 DWORD PTR [edx+16], 0

; 597  : 			m_apItem_VT[i]->m_nCost	= 0;

  0001d	8b 08		 mov	 ecx, DWORD PTR [eax]
  0001f	c7 41 34 00 00
	00 00		 mov	 DWORD PTR [ecx+52], 0

; 598  : 		#ifdef __CLIENT
; 599  : 			if( FALSE == m_pOwner->IsActiveMover() )
; 600  : 				SAFE_DELETE( m_apItem_VT[i] );
; 601  : 		#endif	// __CLIENT
; 602  : 			m_apItem_VT[i]	= NULL;

  00026	c7 00 00 00 00
	00		 mov	 DWORD PTR [eax], 0
$LN2@VendorClos:

; 592  : 	for( int i = 0; i < MAX_VENDITEM; i++ )

  0002c	83 c0 04	 add	 eax, 4
  0002f	83 ee 01	 sub	 esi, 1
  00032	75 dc		 jne	 SHORT $LL4@VendorClos

; 603  : 		}
; 604  : 	}
; 605  : 
; 606  : 	if( bClearTitle )

  00034	39 75 08	 cmp	 DWORD PTR _bClearTitle$[ebp], esi
  00037	74 22		 je	 SHORT $LN31@VendorClos
; File C:\Program Files\Microsoft Visual Studio\2022\Professional\VC\Tools\MSVC\14.44.35207\include\xstring

; 453  :         return _Myres > _Small_string_capacity;

  00039	83 bf 9c 00 00
	00 0f		 cmp	 DWORD PTR [edi+156], 15	; 0000000fH

; 435  :         value_type* _Result = _Bx._Buf;

  00040	8d 8f 88 00 00
	00		 lea	 ecx, DWORD PTR [edi+136]

; 436  :         if (_Large_mode_engaged()) {

  00046	76 06		 jbe	 SHORT $LN19@VendorClos

; 437  :             _Result = _Unfancy(_Bx._Ptr);

  00048	8b 8f 88 00 00
	00		 mov	 ecx, DWORD PTR [edi+136]
$LN19@VendorClos:

; 1621 :             _Mypair._Myval2._Mysize = _Count;

  0004e	c7 87 98 00 00
	00 00 00 00 00	 mov	 DWORD PTR [edi+152], 0

; 1622 :             _Traits::move(_Old_ptr, _Ptr, _Count);
; 1623 :             _Traits::assign(_Old_ptr[_Count], _Elem());

  00058	c6 01 00	 mov	 BYTE PTR [ecx], 0
$LN31@VendorClos:
; File C:\IAGOS\server\v18\Source\Source\_Common\MoverItem.cpp

; 609  : 	SetOther( NULL );	

  0005b	6a 00		 push	 0
  0005d	8b cf		 mov	 ecx, edi
  0005f	e8 00 00 00 00	 call	 ?SetOther@CVTInfo@@QAEXPAVCMover@@@Z ; CVTInfo::SetOther
  00064	5f		 pop	 edi
  00065	5e		 pop	 esi

; 610  : }

  00066	5d		 pop	 ebp
  00067	c2 04 00	 ret	 4
?VendorClose@CVTInfo@@QAEXH@Z ENDP			; CVTInfo::VendorClose
_TEXT	ENDS
; Function compile flags: /Ogtp
; File C:\IAGOS\server\v18\Source\Source\_Common\MoverItem.cpp
;	COMDAT ?TradeSetState@CVTInfo@@QAEXW4TRADE_STATE@@@Z
_TEXT	SEGMENT
_state$ = 8						; size = 4
?TradeSetState@CVTInfo@@QAEXW4TRADE_STATE@@@Z PROC	; CVTInfo::TradeSetState, COMDAT
; _this$ = ecx

; 526  : {

  00000	55		 push	 ebp
  00001	8b ec		 mov	 ebp, esp

; 527  : 	m_state = state;

  00003	8b 45 08	 mov	 eax, DWORD PTR _state$[ebp]
  00006	89 81 84 00 00
	00		 mov	 DWORD PTR [ecx+132], eax

; 528  : }

  0000c	5d		 pop	 ebp
  0000d	c2 04 00	 ret	 4
?TradeSetState@CVTInfo@@QAEXW4TRADE_STATE@@@Z ENDP	; CVTInfo::TradeSetState
_TEXT	ENDS
; Function compile flags: /Ogtp
; File C:\IAGOS\server\v18\Source\Source\_Common\MoverItem.cpp
;	COMDAT ?TradeGetState@CVTInfo@@QAE?AW4TRADE_STATE@@XZ
_TEXT	SEGMENT
?TradeGetState@CVTInfo@@QAE?AW4TRADE_STATE@@XZ PROC	; CVTInfo::TradeGetState, COMDAT
; _this$ = ecx

; 522  : 	return m_state;

  00000	8b 81 84 00 00
	00		 mov	 eax, DWORD PTR [ecx+132]

; 523  : }

  00006	c3		 ret	 0
?TradeGetState@CVTInfo@@QAE?AW4TRADE_STATE@@XZ ENDP	; CVTInfo::TradeGetState
_TEXT	ENDS
; Function compile flags: /Ogtp
; File C:\IAGOS\server\v18\Source\Source\_Common\MoverItem.cpp
; File C:\IAGOS\server\v18\Source\Source\_Common\Item.h
; File C:\IAGOS\server\v18\Source\Source\_Common\MoverItem.cpp
; File C:\IAGOS\server\v18\Source\Source\_Common\Item.h
; File C:\IAGOS\server\v18\Source\Source\_Common\MoverItem.cpp
; File C:\IAGOS\server\v18\Source\Source\_Network\Misc\Include\ar.h
; File C:\IAGOS\server\v18\Source\Source\_Common\MoverItem.cpp
; File C:\IAGOS\server\v18\Source\Source\_Network\Misc\Include\ar.h
; File C:\IAGOS\server\v18\Source\Source\_Common\MoverItem.cpp
; File C:\IAGOS\server\v18\Source\Source\_Network\Misc\Include\ar.h
; File C:\IAGOS\server\v18\Source\Source\_Common\MoverItem.cpp
; File C:\IAGOS\server\v18\Source\Source\_Network\Misc\Include\ar.h
; File C:\IAGOS\server\v18\Source\Source\_Common\MoverItem.cpp
; File C:\IAGOS\server\v18\Source\Source\_Common\Item.h
; File C:\IAGOS\server\v18\Source\Source\_Common\Project.h
; File C:\IAGOS\server\v18\Source\Source\_Common\data.h
; File C:\IAGOS\server\v18\Source\Source\_Common\Project.h
; File C:\IAGOS\server\v18\Source\Source\_Common\MoverItem.cpp
; File C:\IAGOS\server\v18\Source\Source\_Common\Item.h
; File C:\IAGOS\server\v18\Source\Source\_Common\Project.h
; File C:\IAGOS\server\v18\Source\Source\_Common\data.h
; File C:\IAGOS\server\v18\Source\Source\_Common\Project.h
; File C:\IAGOS\server\v18\Source\Source\_Common\MoverItem.cpp
; File C:\IAGOS\server\v18\Source\Source\_Common\Item.h
; File C:\IAGOS\server\v18\Source\Source\_Common\MoverItem.cpp
; File C:\IAGOS\server\v18\Source\Source\_Common\Item.h
; File C:\IAGOS\server\v18\Source\Source\_Common\MoverItem.cpp
;	COMDAT ?TradeLastConfirm@CVTInfo@@QAE?AW4TRADE_CONFIRM_TYPE@@AAVCAr@@@Z
_TEXT	SEGMENT
_nBufSize$2 = -120					; size = 4
_u$3 = -116						; size = 20
_uOffset2$1$ = -96					; size = 4
_uOffset1$1$ = -92					; size = 4
_result$1$ = -88					; size = 4
tv1317 = -88						; size = 4
_nTraders$1$ = -88					; size = 4
_uSize2$1$ = -84					; size = 4
tv1340 = -84						; size = 4
_nUserGold$ = -80					; size = 4
_uSize1$1$ = -80					; size = 4
_this$GSCopy$1$ = -76					; size = 4
_nPlayers$2$ = -72					; size = 4
$T4 = -72						; size = 4
tv1347 = -72						; size = 4
_nTraderGold$ = -68					; size = 4
tv1343 = -68						; size = 4
tv1330 = -68						; size = 4
tv1322 = -68						; size = 4
_ar$GSCopy$1$ = -64					; size = 4
_pTrader$1$ = -60					; size = 4
$T5 = -56						; size = 4
tv1319 = -56						; size = 4
$T6 = -56						; size = 4
tv1342 = -56						; size = 4
$T7 = -56						; size = 4
_nCount$1$ = -56					; size = 4
$T8 = -56						; size = 4
_i$1$ = -52						; size = 4
$T9 = -52						; size = 4
$T10 = -52						; size = 4
$T11 = -52						; size = 4
$T12 = -52						; size = 4
$T13 = -52						; size = 4
$T14 = -52						; size = 4
_i$1$ = -52						; size = 4
_nCount$1$ = -52					; size = 4
_i$1$ = -52						; size = 4
_szItemId$15 = -48					; size = 32
_szItemId$16 = -48					; size = 32
__$ArrayPad$ = -16					; size = 4
__$EHRec$ = -12						; size = 12
_ar$ = 8						; size = 4
?TradeLastConfirm@CVTInfo@@QAE?AW4TRADE_CONFIRM_TYPE@@AAVCAr@@@Z PROC ; CVTInfo::TradeLastConfirm, COMDAT
; _this$ = ecx

; 352  : {

  00000	55		 push	 ebp
  00001	8b ec		 mov	 ebp, esp
  00003	6a ff		 push	 -1
  00005	68 00 00 00 00	 push	 __ehhandler$?TradeLastConfirm@CVTInfo@@QAE?AW4TRADE_CONFIRM_TYPE@@AAVCAr@@@Z
  0000a	64 a1 00 00 00
	00		 mov	 eax, DWORD PTR fs:0
  00010	50		 push	 eax
  00011	83 ec 6c	 sub	 esp, 108		; 0000006cH
  00014	a1 00 00 00 00	 mov	 eax, DWORD PTR ___security_cookie
  00019	33 c5		 xor	 eax, ebp
  0001b	89 45 f0	 mov	 DWORD PTR __$ArrayPad$[ebp], eax
  0001e	56		 push	 esi
  0001f	57		 push	 edi
  00020	50		 push	 eax
  00021	8d 45 f4	 lea	 eax, DWORD PTR __$EHRec$[ebp]
  00024	64 a3 00 00 00
	00		 mov	 DWORD PTR fs:0, eax
  0002a	8b f1		 mov	 esi, ecx
  0002c	89 75 b4	 mov	 DWORD PTR _this$GSCopy$1$[ebp], esi
  0002f	8b 7d 08	 mov	 edi, DWORD PTR _ar$[ebp]
  00032	89 7d c0	 mov	 DWORD PTR _ar$GSCopy$1$[ebp], edi

; 353  : 	TRADE_CONFIRM_TYPE		result = TRADE_CONFIRM_ERROR;
; 354  : 	CMover*					pTrader	= GetOther();

  00035	e8 00 00 00 00	 call	 ?GetOther@CVTInfo@@QAEPAVCMover@@XZ ; CVTInfo::GetOther
  0003a	89 45 c4	 mov	 DWORD PTR _pTrader$1$[ebp], eax

; 355  : 
; 356  : 	// gold_step1. GetGold(), AddGold() ÇÔĽö°ˇ żřÇĎ´ÂµĄ·Î µżŔŰµÇµµ·Ď ş¸°ü ČÄżˇ clearÇŘµĐ´Ů.
; 357  : 	int nTraderGold        = pTrader->m_vtInfo.TradeGetGold();

  0003d	05 98 0c 00 00	 add	 eax, 3224		; 00000c98H
  00042	8b c8		 mov	 ecx, eax
  00044	89 45 c8	 mov	 DWORD PTR tv1342[ebp], eax
  00047	e8 00 00 00 00	 call	 ?TradeGetGold@CVTInfo@@QAEHXZ ; CVTInfo::TradeGetGold

; 358  : 	int nUserGold          = TradeGetGold();

  0004c	8b ce		 mov	 ecx, esi
  0004e	89 45 bc	 mov	 DWORD PTR _nTraderGold$[ebp], eax
  00051	e8 00 00 00 00	 call	 ?TradeGetGold@CVTInfo@@QAEHXZ ; CVTInfo::TradeGetGold

; 359  : 	
; 360  : 	// gold_step2. ÁŮµ·°ú »¬µ·Ŕ» ±¸ÇŘµĐ´Ů.
; 361  : 	int nThisAdd   = nTraderGold;
; 362  : 	int nTraderAdd = nUserGold;
; 363  : 
; 364  : 	// gold_step3. overflow¸¦ °Ë»ç 
; 365  : 	if( CheckTradeGold( m_pOwner, 0, nTraderGold ) == FALSE ||

  00056	ff 75 bc	 push	 DWORD PTR _nTraderGold$[ebp]
  00059	89 45 b0	 mov	 DWORD PTR _nUserGold$[ebp], eax
  0005c	8b 86 80 00 00
	00		 mov	 eax, DWORD PTR [esi+128]
  00062	6a 00		 push	 0
  00064	50		 push	 eax
  00065	89 45 ac	 mov	 DWORD PTR tv1340[ebp], eax
  00068	e8 00 00 00 00	 call	 ?CheckTradeGold@@YAHPAVCMover@@HH@Z ; CheckTradeGold
  0006d	83 c4 0c	 add	 esp, 12			; 0000000cH
  00070	85 c0		 test	 eax, eax
  00072	0f 84 28 06 00
	00		 je	 $LN15@TradeLastC
  00078	ff 75 b0	 push	 DWORD PTR _nUserGold$[ebp]
  0007b	8b 4d c4	 mov	 ecx, DWORD PTR _pTrader$1$[ebp]
  0007e	6a 00		 push	 0
  00080	51		 push	 ecx
  00081	e8 00 00 00 00	 call	 ?CheckTradeGold@@YAHPAVCMover@@HH@Z ; CheckTradeGold
  00086	83 c4 0c	 add	 esp, 12			; 0000000cH
  00089	85 c0		 test	 eax, eax
  0008b	0f 84 0f 06 00
	00		 je	 $LN15@TradeLastC

; 371  : 	}
; 372  : 
; 373  : 	// ±łČŻ ÇŇ ¸¸Ĺ­ ľçÂĘŔÇ ŔÎşĄĹä¸® ˝˝·ÔŔĚ ż©ŔŻ°ˇ ŔÖ´Â Áö¸¦ °Ë»çÇŃ´Ů. 
; 374  : 	int nPlayers = 0;

  00091	33 c9		 xor	 ecx, ecx
  00093	8b fe		 mov	 edi, esi
  00095	33 c0		 xor	 eax, eax
  00097	89 4d b8	 mov	 DWORD PTR _nPlayers$2$[ebp], ecx
  0009a	89 45 cc	 mov	 DWORD PTR _i$1$[ebp], eax
  0009d	0f 1f 00	 npad	 3
$LL4@TradeLastC:

; 375  : 	int nTraders = 0;
; 376  : 
; 377  : 	for( int i = 0; i < MAX_TRADE; i++ )
; 378  : 	{
; 379  : 		if( GetItem( i ) )

  000a0	8b f1		 mov	 esi, ecx
  000a2	89 45 a8	 mov	 DWORD PTR tv1317[ebp], eax
  000a5	50		 push	 eax
  000a6	8b cf		 mov	 ecx, edi
  000a8	e8 00 00 00 00	 call	 ?GetItem@CVTInfo@@QAEPAVCItemBase@@E@Z ; CVTInfo::GetItem

; 380  : 			nPlayers++;
; 381  : 
; 382  : 		if( pTrader->m_vtInfo.GetItem( i ) )

  000ad	8b 55 b8	 mov	 edx, DWORD PTR _nPlayers$2$[ebp]
  000b0	85 c0		 test	 eax, eax
  000b2	ff 75 a8	 push	 DWORD PTR tv1317[ebp]
  000b5	8d 4a 01	 lea	 ecx, DWORD PTR [edx+1]
  000b8	0f 44 ca	 cmove	 ecx, edx
  000bb	89 4d b8	 mov	 DWORD PTR _nPlayers$2$[ebp], ecx
  000be	8b 4d c8	 mov	 ecx, DWORD PTR tv1342[ebp]
  000c1	e8 00 00 00 00	 call	 ?GetItem@CVTInfo@@QAEPAVCItemBase@@E@Z ; CVTInfo::GetItem
  000c6	85 c0		 test	 eax, eax
  000c8	8d 4e 01	 lea	 ecx, DWORD PTR [esi+1]
  000cb	8b 45 cc	 mov	 eax, DWORD PTR _i$1$[ebp]
  000ce	0f 44 ce	 cmove	 ecx, esi
  000d1	40		 inc	 eax
  000d2	89 45 cc	 mov	 DWORD PTR _i$1$[ebp], eax
  000d5	83 f8 19	 cmp	 eax, 25			; 00000019H
  000d8	7c c6		 jl	 SHORT $LL4@TradeLastC
; File C:\IAGOS\server\v18\Source\Source\_Common\Item.h

; 430  : 			for( DWORD i = 0; i < m_dwItemMax; i++ )

  000da	8b 55 c4	 mov	 edx, DWORD PTR _pTrader$1$[ebp]
  000dd	8b 7d c0	 mov	 edi, DWORD PTR _ar$GSCopy$1$[ebp]
  000e0	89 4d a8	 mov	 DWORD PTR _nTraders$1$[ebp], ecx

; 231  : 	int			GetAttrOption();		// ľĆŔĚĹŰŔÇ +żÉĽÇ°Ş°ú ĽÓĽş/ĽÓĽş·ąş§°ŞŔ» ÇŐĂÄĽ­ ¸®ĹĎ.
; 232  : 	int			GetAbilityOption() { return m_nAbilityOption; }
; 233  : #if __VER >= 15 // __15_5TH_ELEMENTAL_SMELT_SAFETY
; 234  : 	int			GetItemResist( void ) const;
; 235  : 	int			GetResistAbilityOption( void ) const;
; 236  : #endif // __15_5TH_ELEMENTAL_SMELT_SAFETY
; 237  : 	int*		GetAbilityOptionPtr() { return &m_nAbilityOption; }
; 238  : 	void		SetAbilityOption( int nAbilityOption ) { m_nAbilityOption = nAbilityOption; }
; 239  : 	int			GetGold();
; 240  : 
; 241  : //	PIERCINGINFO	m_piercingInfo;
; 242  : 	void	GetPiercingAvail( PPIERCINGAVAIL pPiercingAvail/*input, output*/ );
; 243  : 	BOOL	m_bCharged;			// »óżëČ­ ľĆŔĚĹŰŔÎÁö Č®ŔÎ
; 244  : 	DWORD	m_dwKeepTime;		// ÁöĽÓ˝Ă°Ł
; 245  : 
; 246  : 	BOOL	IsExpiring( void )
; 247  : 		{	
; 248  : 			if( m_dwKeepTime )
; 249  : 			{
; 250  : 				if( time_null() > (time_t)m_dwKeepTime )
; 251  : 					return TRUE;
; 252  : 			}
; 253  : 			return FALSE;
; 254  : 		}
; 255  : 	void	ResetFlag( BYTE byFlag )	{	m_byFlag	&= ~byFlag;		}
; 256  : 	void	SetFlag( BYTE byFlag )		{	m_byFlag	|= byFlag;		}
; 257  : 	BOOL	IsFlag( BYTE byFlag )	{	return ( m_byFlag & byFlag ) ? TRUE: FALSE;		}
; 258  : 	BOOL	IsBinds();
; 259  : 	BOOL	IsUndestructable( void );
; 260  : 	BOOL	IsCharged();
; 261  : 	BOOL	IsLogable();
; 262  : 
; 263  : 	static BOOL	IsDiceRefineryAble( ItemProp* pProp );
; 264  : 	static BOOL	IsEleRefineryAble( ItemProp* pProp );
; 265  : #if __VER >= 15 // __15_5TH_ELEMENTAL_SMELT_SAFETY
; 266  : 	static BOOL	IsElementalCard( const DWORD dwItemID );
; 267  : #endif // __15_5TH_ELEMENTAL_SMELT_SAFETY
; 268  : 	
; 269  : //	Operations
; 270  : 	void		UseItem();
; 271  : 	virtual	CItemElem&	operator = ( CItemElem & ie );
; 272  : 	virtual	void		Serialize( CAr & ar );
; 273  : 
; 274  : #if __VER >= 15 // __PETVIS
; 275  : 	BOOL	IsVisPet()	{ return ( GetProp() && GetProp()->IsVisPet() ) || IsTransformVisPet() ; }
; 276  : 	void	SetSwapVisItem( int nPos1, int nPos2 );
; 277  : 	void	SetVisKeepTimeSize( int nSize )				{ m_piercing.SetVisKeepTimeSize( nSize ); }
; 278  : 	void	SetVisKeepTime( int nth, time_t tmKeep )	{ m_piercing.SetVisKeepTime( nth, tmKeep ); }
; 279  : 	time_t	GetVisKeepTime( int nth )					{ return m_piercing.GetVisKeepTime( nth ); }
; 280  : 	DWORD	GetVisPetSfxId();
; 281  : 	BOOL	IsTransformVisPet() { return GetProp() && GetProp()->dwItemKind3 == IK3_PET && m_bTranformVisPet; }
; 282  : 
; 283  : 	BOOL	m_bTranformVisPet;
; 284  : #endif // __PETVIS
; 285  : };
; 286  : 
; 287  : inline int CItemElem::GetAttrOption()		// ľĆŔĚĹŰŔÇ +żÉĽÇ°Ş°ú ĽÓĽş/ĽÓĽş·ąş§°ŞŔ» ÇŐĂÄĽ­ ¸®ĹĎ.
; 288  : {
; 289  : 	int nAttr = (int)m_bItemResist;
; 290  : 	int nOption = m_nResistAbilityOption;
; 291  : 	int nRet = m_nAbilityOption;
; 292  : 	
; 293  : 	nRet |= (nAttr << 16);		// D16~D23 : ĽÓĽş
; 294  : 	nRet |= (nOption << 24);	// D24~D31 : ĽÓĽş·ąş§
; 295  : 	return nRet;
; 296  : }
; 297  : 
; 298  : #if __VER >= 15 // __15_5TH_ELEMENTAL_SMELT_SAFETY
; 299  : inline int CItemElem::GetItemResist( void ) const
; 300  : {
; 301  : 	return m_bItemResist;
; 302  : }
; 303  : 
; 304  : inline int CItemElem::GetResistAbilityOption( void ) const
; 305  : {
; 306  : 	return m_nResistAbilityOption;
; 307  : }
; 308  : #endif // __15_5TH_ELEMENTAL_SMELT_SAFETY
; 309  : 
; 310  : typedef struct tagSkill
; 311  : {
; 312  : 	DWORD dwSkill;
; 313  : 	DWORD dwLevel;
; 314  : 	ItemProp* GetProp()	{ return prj.GetSkillProp( dwSkill ); }
; 315  : 	
; 316  : } SKILL,* LPSKILL;
; 317  : 
; 318  : /*
; 319  : #ifdef __XPET2
; 320  : class CPetElem : public CItemBase
; 321  : {
; 322  : 	int m_nMaxLevel;	// Ľö¸í
; 323  : 	int m_nLevel;		// ·ąş§(łŞŔĚ)
; 324  : 	int m_dwHungry;		// ąč°íÇÂÁ¤µµ -10 ~ 10		-10ŔĚÇĎ´Â Á¸ł»ąč°íÇÄ / -10 ~ -5 ąč°íÇÄ / -5 ~ 5 ş¸Ĺë / 5ŔĚ»ó ąčşÎ¸§
; 325  : 	int m_dwFeeling;	// ±âşĐ. -10 ~ 10			
; 326  : 
; 327  : 	void Init();
; 328  : 	void Destroy();
; 329  : public:
; 330  : 	CPetElem();
; 331  : 	~CPetElem();
; 332  : 	ItemProp* GetProp()	{	return prj.GetItemProp( m_dwItemId );	}
; 333  : 	virtual	CPetElem&	operator = ( CPetElem & pe );
; 334  : 	virtual void	Serialize( CAr & ar );
; 335  : };
; 336  : #endif // xPet2
; 337  : */
; 338  : 
; 339  : //////////////////////////////////////////////////////////////////////
; 340  : // ŔĚ°ÍŔş ľĆŔĚĹŰ ÇĎłŞÇĎłŞŔÇ żäĽŇ¸¦ ąčż­·Î ¸¸µéľî Ăß°ˇ, »čÁ¦ µîŔÇ 
; 341  : // ĆíÁýŔĚ °ˇ´ÉÇŃ ÄÁĹ×ŔĚłĘ Ĺ¬·ˇ˝ş´Ů.
; 342  : //////////////////////////////////////////////////////////////////////
; 343  : template <class T> class CItemContainer  
; 344  : {
; 345  : public:
; 346  : 	LPDWORD    m_apIndex;
; 347  : 	DWORD      m_dwIndexNum; // equpŔ» Á¦żÜÇŃ ĽřĽö ÄÜĹ×ŔĚłĘ »çŔĚÁî 
; 348  : 	DWORD      m_dwItemMax;  // equpŔ» Ć÷ÇÔÇŃ ŔüĂĽ »çŔĚÁî 
; 349  : 	T*         m_apItem;
; 350  : 
; 351  : 	void SetItemContainer( DWORD dwItemType, DWORD dwItemMax, DWORD dwExtra = NULL_ID );
; 352  : 	CItemContainer();
; 353  : //	CItemContainer( DWORD dwItemType, DWORD dwItemMax, DWORD dwExtra = NULL_ID );
; 354  : 	virtual ~CItemContainer();
; 355  : 
; 356  : 	void Clear();
; 357  : 
; 358  : 	T* GetAt( DWORD dwIndex );
; 359  : #ifdef __CLIENT
; 360  : 	void SetAt( DWORD dwIndex, DWORD dwItemId );
; 361  : 	void SetAt( DWORD dwIndex, T* pItemElem );
; 362  : 	void InsertAt( DWORD dwIndex, DWORD dwItemId );
; 363  : 	void InsertAt( DWORD dwIndex, T* pItemElem );
; 364  : 	void RemoveAt( DWORD dwIndex );
; 365  : #if __VER >= 8	// __JEFF_VER_8
; 366  : 	DWORD	Find( DWORD dwItemId )
; 367  : 		{
; 368  : 			if( dwItemId == 0 )
; 369  : 				return NULL_ID;
; 370  : 			for( int i = 0; i < (int)( m_dwIndexNum ); i++ )
; 371  : 			{
; 372  : 				DWORD nId	= m_apIndex[i];
; 373  : 				if( nId < 0 || nId >= m_dwItemMax )
; 374  : 					continue;
; 375  : 				if( m_apItem[nId].m_dwItemId == dwItemId )
; 376  : 					return nId;
; 377  : 			}
; 378  : 			return NULL_ID;
; 379  : 		}
; 380  : 	DWORD	GetItemCount( DWORD dwItemId )
; 381  : 		{
; 382  : 			if( dwItemId == 0 )
; 383  : 				return 0;
; 384  : 			int nCount	= 0;
; 385  : 			for( int i = 0; i < (int)( m_dwItemMax ); i++ )
; 386  : 			{
; 387  : 				CItemElem* pItemElem	= (CItemElem*)&m_apItem[i];
; 388  : 				if( pItemElem->m_dwItemId == dwItemId )
; 389  : 					nCount	+= pItemElem->m_nItemNum;
; 390  : 			}
; 391  : 			return( nCount );
; 392  : 		}
; 393  : #endif	// __JEFF_VER_8
; 394  : #endif	// __CLIENT
; 395  : 
; 396  : 	// Equip °ü·Ă 
; 397  : 	BOOL DoEquip( DWORD dwSrcIndex, DWORD dwDstIndex );
; 398  : 	BOOL UnEquip( DWORD dwIndex );
; 399  : 	BOOL IsEquip( DWORD dwObjId );
; 400  : 	T* GetEquip( DWORD dwIndex );
; 401  : 
; 402  : 	void	Swap( DWORD dwSrcIndex, DWORD dwDstIndex );
; 403  : 	BOOL	Add( T* pElem, BYTE* pnId = NULL, short* pnNum = NULL, BYTE* pnCount = NULL );
; 404  : 	BOOL	IsFull( T* pElem, ItemProp* pItemProp, short nNum );
; 405  : 	void	SetAtId( OBJID dwObjId, T* pItemElem );
; 406  : 
; 407  : 	T*	GetAtId( OBJID dwObjId );
; 408  : 	T* GetAtItemId( DWORD dwItemId );
; 409  : 	int		GetAtItemNum( DWORD dwItemId );
; 410  : 	void	RemoveAtId( OBJID dwObjId );
; 411  : 
; 412  : 	int		GetSize() { return int( m_dwIndexNum ); }
; 413  : 	int		GetMax() { return int( m_dwItemMax ); }
; 414  : 	void	Copy( CItemContainer<T> & rItemContainer );
; 415  : 	void	Serialize( CAr & ar );
; 416  : 
; 417  : 	int		GetEmptyCount()
; 418  : 		{
; 419  : 			int nCount	= 0;
; 420  : 			for( DWORD i = 0; i < m_dwItemMax; i++ )
; 421  : 			{
; 422  : 				if( m_apItem[i].IsEmpty() && m_apItem[i].m_dwObjIndex < m_dwIndexNum )
; 423  : 					nCount++;
; 424  : 			}
; 425  : 			return( nCount );
; 426  : 		}
; 427  : 	int		GetCount()
; 428  : 		{
; 429  : 			int nCount	= 0;

  000e3	33 c9		 xor	 ecx, ecx

; 430  : 			for( DWORD i = 0; i < m_dwItemMax; i++ )

  000e5	8b b2 08 0b 00
	00		 mov	 esi, DWORD PTR [edx+2824]
  000eb	85 f6		 test	 esi, esi
  000ed	74 36		 je	 SHORT $LN120@TradeLastC

; 431  : 			{
; 432  : 				if( m_apItem[i].IsEmpty() == FALSE && m_apItem[i].m_dwObjIndex < m_dwIndexNum )

  000ef	8b 8a 0c 0b 00
	00		 mov	 ecx, DWORD PTR [edx+2828]
  000f5	83 c1 08	 add	 ecx, 8
  000f8	33 ff		 xor	 edi, edi
  000fa	66 0f 1f 44 00
	00		 npad	 6
$LL74@TradeLastC:

; 50   : 	BOOL			IsEmpty() { return m_dwItemId ? FALSE : TRUE; }

  00100	83 79 04 00	 cmp	 DWORD PTR [ecx+4], 0

; 432  : 				if( m_apItem[i].IsEmpty() == FALSE && m_apItem[i].m_dwObjIndex < m_dwIndexNum )

  00104	74 0b		 je	 SHORT $LN72@TradeLastC
  00106	8b 01		 mov	 eax, DWORD PTR [ecx]
  00108	3b 82 04 0b 00
	00		 cmp	 eax, DWORD PTR [edx+2820]
  0010e	73 01		 jae	 SHORT $LN72@TradeLastC

; 433  : 					nCount++;

  00110	47		 inc	 edi
$LN72@TradeLastC:

; 430  : 			for( DWORD i = 0; i < m_dwItemMax; i++ )

  00111	81 c1 b0 00 00
	00		 add	 ecx, 176		; 000000b0H
  00117	83 ee 01	 sub	 esi, 1
  0011a	75 e4		 jne	 SHORT $LL74@TradeLastC
  0011c	89 7d cc	 mov	 DWORD PTR _nCount$1$[ebp], edi
  0011f	8b 7d c0	 mov	 edi, DWORD PTR _ar$GSCopy$1$[ebp]
  00122	8b 4d cc	 mov	 ecx, DWORD PTR _nCount$1$[ebp]
$LN120@TradeLastC:
; File C:\IAGOS\server\v18\Source\Source\_Common\MoverItem.cpp

; 386  : 	if( ( pTrader->m_Inventory.GetSize() - pTrader->m_Inventory.GetCount() ) < nPlayers )

  00125	8b 82 04 0b 00
	00		 mov	 eax, DWORD PTR [edx+2820]
  0012b	2b c1		 sub	 eax, ecx
  0012d	3b 45 b8	 cmp	 eax, DWORD PTR _nPlayers$2$[ebp]
  00130	7d 04		 jge	 SHORT $LN18@TradeLastC

; 387  : 		result = TRADE_CONFIRM_ERROR;

  00132	33 c9		 xor	 ecx, ecx
  00134	eb 4c		 jmp	 SHORT $LN126@TradeLastC
$LN18@TradeLastC:
; File C:\IAGOS\server\v18\Source\Source\_Common\Item.h

; 430  : 			for( DWORD i = 0; i < m_dwItemMax; i++ )

  00136	8b 45 ac	 mov	 eax, DWORD PTR tv1340[ebp]
  00139	33 f6		 xor	 esi, esi
  0013b	8b 90 08 0b 00
	00		 mov	 edx, DWORD PTR [eax+2824]
  00141	85 d2		 test	 edx, edx
  00143	74 2d		 je	 SHORT $LN81@TradeLastC

; 431  : 			{
; 432  : 				if( m_apItem[i].IsEmpty() == FALSE && m_apItem[i].m_dwObjIndex < m_dwIndexNum )

  00145	8b 88 0c 0b 00
	00		 mov	 ecx, DWORD PTR [eax+2828]
  0014b	8b f8		 mov	 edi, eax
  0014d	83 c1 08	 add	 ecx, 8
$LL82@TradeLastC:

; 50   : 	BOOL			IsEmpty() { return m_dwItemId ? FALSE : TRUE; }

  00150	83 79 04 00	 cmp	 DWORD PTR [ecx+4], 0

; 432  : 				if( m_apItem[i].IsEmpty() == FALSE && m_apItem[i].m_dwObjIndex < m_dwIndexNum )

  00154	74 0b		 je	 SHORT $LN80@TradeLastC
  00156	8b 01		 mov	 eax, DWORD PTR [ecx]
  00158	3b 87 04 0b 00
	00		 cmp	 eax, DWORD PTR [edi+2820]
  0015e	73 01		 jae	 SHORT $LN80@TradeLastC

; 433  : 					nCount++;

  00160	46		 inc	 esi
$LN80@TradeLastC:

; 430  : 			for( DWORD i = 0; i < m_dwItemMax; i++ )

  00161	81 c1 b0 00 00
	00		 add	 ecx, 176		; 000000b0H
  00167	83 ea 01	 sub	 edx, 1
  0016a	75 e4		 jne	 SHORT $LL82@TradeLastC
  0016c	8b 7d c0	 mov	 edi, DWORD PTR _ar$GSCopy$1$[ebp]
  0016f	8b 45 ac	 mov	 eax, DWORD PTR tv1340[ebp]
$LN81@TradeLastC:
; File C:\IAGOS\server\v18\Source\Source\_Common\MoverItem.cpp

; 388  : 	else if( ( m_pOwner->m_Inventory.GetSize() - m_pOwner->m_Inventory.GetCount() ) < nTraders )

  00172	8b 80 04 0b 00
	00		 mov	 eax, DWORD PTR [eax+2820]
  00178	33 c9		 xor	 ecx, ecx
  0017a	2b c6		 sub	 eax, esi
  0017c	3b 45 a8	 cmp	 eax, DWORD PTR _nTraders$1$[ebp]
  0017f	0f 9d c1	 setge	 cl
$LN126@TradeLastC:

; 389  : 		result = TRADE_CONFIRM_ERROR;
; 390  : 	else
; 391  : 		result = TRADE_CONFIRM_OK;
; 392  : 
; 393  : 	if( result == TRADE_CONFIRM_OK )

  00182	89 4d a8	 mov	 DWORD PTR _result$1$[ebp], ecx
  00185	83 f9 01	 cmp	 ecx, 1
  00188	0f 85 f7 04 00
	00		 jne	 $LN22@TradeLastC

; 394  : 	{
; 395  : 		CItemContainer<CItemElem> u;

  0018e	8d 4d 8c	 lea	 ecx, DWORD PTR _u$3[ebp]
  00191	e8 00 00 00 00	 call	 ??0?$CItemContainer@VCItemElem@@@@QAE@XZ ; CItemContainer<CItemElem>::CItemContainer<CItemElem>

; 396  : 		u.SetItemContainer( ITYPE_ITEM, MAX_TRADE );

  00196	6a ff		 push	 -1
  00198	6a 19		 push	 25			; 00000019H
  0019a	6a 00		 push	 0
  0019c	8d 4d 8c	 lea	 ecx, DWORD PTR _u$3[ebp]
  0019f	c7 45 fc 00 00
	00 00		 mov	 DWORD PTR __$EHRec$[ebp+8], 0
  001a6	e8 00 00 00 00	 call	 ?SetItemContainer@?$CItemContainer@VCItemElem@@@@QAEXKKK@Z ; CItemContainer<CItemElem>::SetItemContainer

; 397  : 
; 398  : 		// gold_step4. µ·Ŕ» ´őÇŃ´Ů.
; 399  : 		m_pOwner->AddGold( nThisAdd, FALSE );						

  001ab	8b 75 b4	 mov	 esi, DWORD PTR _this$GSCopy$1$[ebp]
  001ae	6a 00		 push	 0
  001b0	ff 75 bc	 push	 DWORD PTR _nTraderGold$[ebp]
  001b3	8b 8e 80 00 00
	00		 mov	 ecx, DWORD PTR [esi+128]
  001b9	e8 00 00 00 00	 call	 ?AddGold@CMover@@QAEHHH@Z ; CMover::AddGold

; 400  : 		pTrader->AddGold( nTraderAdd, FALSE );

  001be	8b 4d c4	 mov	 ecx, DWORD PTR _pTrader$1$[ebp]
  001c1	6a 00		 push	 0
  001c3	ff 75 b0	 push	 DWORD PTR _nUserGold$[ebp]
  001c6	e8 00 00 00 00	 call	 ?AddGold@CMover@@QAEHHH@Z ; CMover::AddGold

; 401  : 		// TradeClearżˇĽ­ żřşąŔĚ ľČµÇ±â Ŕ§ÇŘĽ­ 
; 402  : 		pTrader->m_vtInfo.TradeSetGold( 0 );

  001cb	8b 4d c8	 mov	 ecx, DWORD PTR tv1342[ebp]
  001ce	6a 00		 push	 0
  001d0	e8 00 00 00 00	 call	 ?TradeSetGold@CVTInfo@@QAEXK@Z ; CVTInfo::TradeSetGold

; 403  : 		TradeSetGold( 0 );

  001d5	6a 00		 push	 0
  001d7	8b ce		 mov	 ecx, esi
  001d9	e8 00 00 00 00	 call	 ?TradeSetGold@CVTInfo@@QAEXK@Z ; CVTInfo::TradeSetGold

; 404  : 
; 405  : 		ar.WriteString( "T" );

  001de	68 00 00 00 00	 push	 OFFSET ??_C@_01GAPBHFFA@T@
  001e3	8b cf		 mov	 ecx, edi
  001e5	e8 00 00 00 00	 call	 ?WriteString@CAr@@QAEXPBD@Z ; CAr::WriteString

; 406  : 		ar.WriteString( pTrader->GetName() );

  001ea	8b 4d c4	 mov	 ecx, DWORD PTR _pTrader$1$[ebp]
  001ed	6a 00		 push	 0
  001ef	e8 00 00 00 00	 call	 ?GetName@CMover@@QAEPBDH@Z ; CMover::GetName
  001f4	50		 push	 eax
  001f5	8b cf		 mov	 ecx, edi
  001f7	e8 00 00 00 00	 call	 ?WriteString@CAr@@QAEXPBD@Z ; CAr::WriteString

; 407  : 		ar.WriteString( m_pOwner->GetName() );

  001fc	8b 8e 80 00 00
	00		 mov	 ecx, DWORD PTR [esi+128]
  00202	6a 00		 push	 0
  00204	e8 00 00 00 00	 call	 ?GetName@CMover@@QAEPBDH@Z ; CMover::GetName
  00209	50		 push	 eax
  0020a	8b cf		 mov	 ecx, edi
  0020c	e8 00 00 00 00	 call	 ?WriteString@CAr@@QAEXPBD@Z ; CAr::WriteString

; 408  : 		ar << m_pOwner->GetWorld()->GetID();

  00211	8b 86 80 00 00
	00		 mov	 eax, DWORD PTR [esi+128]
  00217	8b cf		 mov	 ecx, edi
  00219	8b 80 6c 01 00
	00		 mov	 eax, DWORD PTR [eax+364]
  0021f	8b 00		 mov	 eax, DWORD PTR [eax]
  00221	89 45 cc	 mov	 DWORD PTR $T14[ebp], eax
  00224	8d 45 cc	 lea	 eax, DWORD PTR $T14[ebp]
  00227	50		 push	 eax
  00228	e8 00 00 00 00	 call	 ??$?6K@CAr@@QAEAAV0@ABK@Z ; CAr::operator<<<unsigned long>

; 409  : 		ar << nTraderGold << nUserGold;

  0022d	8d 45 b0	 lea	 eax, DWORD PTR _nUserGold$[ebp]
  00230	8b cf		 mov	 ecx, edi
  00232	50		 push	 eax
  00233	8d 45 bc	 lea	 eax, DWORD PTR _nTraderGold$[ebp]
  00236	50		 push	 eax
  00237	e8 00 00 00 00	 call	 ??$?6H@CAr@@QAEAAV0@ABH@Z ; CAr::operator<<<int>
  0023c	8b c8		 mov	 ecx, eax
  0023e	e8 00 00 00 00	 call	 ??$?6H@CAr@@QAEAAV0@ABH@Z ; CAr::operator<<<int>

; 410  : 		ar << pTrader->GetGold() << m_pOwner->GetGold();

  00243	8b 86 80 00 00
	00		 mov	 eax, DWORD PTR [esi+128]
  00249	8b cf		 mov	 ecx, edi
  0024b	8b 80 e0 14 00
	00		 mov	 eax, DWORD PTR [eax+5344]
  00251	89 45 cc	 mov	 DWORD PTR $T13[ebp], eax
  00254	8b 45 c4	 mov	 eax, DWORD PTR _pTrader$1$[ebp]
  00257	8b 80 e0 14 00
	00		 mov	 eax, DWORD PTR [eax+5344]
  0025d	89 45 c8	 mov	 DWORD PTR $T8[ebp], eax
  00260	8d 45 cc	 lea	 eax, DWORD PTR $T13[ebp]
  00263	50		 push	 eax
  00264	8d 45 c8	 lea	 eax, DWORD PTR $T8[ebp]
  00267	50		 push	 eax
  00268	e8 00 00 00 00	 call	 ??$?6H@CAr@@QAEAAV0@ABH@Z ; CAr::operator<<<int>
  0026d	8b c8		 mov	 ecx, eax
  0026f	e8 00 00 00 00	 call	 ??$?6H@CAr@@QAEAAV0@ABH@Z ; CAr::operator<<<int>

; 411  : 		ar << m_pOwner->m_idPlayer << m_pOwner->GetLevel() << m_pOwner->GetJob();

  00274	8b 8e 80 00 00
	00		 mov	 ecx, DWORD PTR [esi+128]
  0027a	e8 00 00 00 00	 call	 ?GetJob@CMover@@QAEHXZ	; CMover::GetJob
  0027f	8b 8e 80 00 00
	00		 mov	 ecx, DWORD PTR [esi+128]
  00285	89 45 cc	 mov	 DWORD PTR $T12[ebp], eax
  00288	8b 81 d8 05 00
	00		 mov	 eax, DWORD PTR [ecx+1496]
  0028e	89 45 c8	 mov	 DWORD PTR $T7[ebp], eax
  00291	8d 45 cc	 lea	 eax, DWORD PTR $T12[ebp]
  00294	50		 push	 eax
  00295	8d 45 c8	 lea	 eax, DWORD PTR $T7[ebp]
  00298	50		 push	 eax
  00299	8d 81 34 02 00
	00		 lea	 eax, DWORD PTR [ecx+564]
  0029f	50		 push	 eax
  002a0	8b cf		 mov	 ecx, edi
  002a2	e8 00 00 00 00	 call	 ??$?6K@CAr@@QAEAAV0@ABK@Z ; CAr::operator<<<unsigned long>
  002a7	8b c8		 mov	 ecx, eax
  002a9	e8 00 00 00 00	 call	 ??$?6H@CAr@@QAEAAV0@ABH@Z ; CAr::operator<<<int>
  002ae	8b c8		 mov	 ecx, eax
  002b0	e8 00 00 00 00	 call	 ??$?6H@CAr@@QAEAAV0@ABH@Z ; CAr::operator<<<int>

; 412  : 		ar << pTrader->m_idPlayer << pTrader->GetLevel() << pTrader->GetJob();

  002b5	8b 4d c4	 mov	 ecx, DWORD PTR _pTrader$1$[ebp]
  002b8	e8 00 00 00 00	 call	 ?GetJob@CMover@@QAEHXZ	; CMover::GetJob
  002bd	8b 4d c4	 mov	 ecx, DWORD PTR _pTrader$1$[ebp]
  002c0	89 45 cc	 mov	 DWORD PTR $T11[ebp], eax
  002c3	8b 81 d8 05 00
	00		 mov	 eax, DWORD PTR [ecx+1496]
  002c9	89 45 c8	 mov	 DWORD PTR $T5[ebp], eax
  002cc	8d 45 cc	 lea	 eax, DWORD PTR $T11[ebp]
  002cf	50		 push	 eax
  002d0	8d 45 c8	 lea	 eax, DWORD PTR $T5[ebp]
  002d3	50		 push	 eax
  002d4	8d 81 34 02 00
	00		 lea	 eax, DWORD PTR [ecx+564]
  002da	8b cf		 mov	 ecx, edi
  002dc	50		 push	 eax
  002dd	e8 00 00 00 00	 call	 ??$?6K@CAr@@QAEAAV0@ABK@Z ; CAr::operator<<<unsigned long>
  002e2	8b c8		 mov	 ecx, eax
  002e4	e8 00 00 00 00	 call	 ??$?6H@CAr@@QAEAAV0@ABH@Z ; CAr::operator<<<int>
  002e9	8b c8		 mov	 ecx, eax
  002eb	e8 00 00 00 00	 call	 ??$?6H@CAr@@QAEAAV0@ABH@Z ; CAr::operator<<<int>

; 413  : #ifdef __WORLDSERVER
; 414  : 		ar.WriteString( ( (CUser*)m_pOwner )->m_playAccount.lpAddr );

  002f0	8b 86 80 00 00
	00		 mov	 eax, DWORD PTR [esi+128]
  002f6	8b cf		 mov	 ecx, edi
  002f8	05 bc 55 00 00	 add	 eax, 21948		; 000055bcH
  002fd	50		 push	 eax
  002fe	e8 00 00 00 00	 call	 ?WriteString@CAr@@QAEXPBD@Z ; CAr::WriteString

; 415  : 		ar.WriteString( ( (CUser*)pTrader )->m_playAccount.lpAddr );

  00303	8b 45 c4	 mov	 eax, DWORD PTR _pTrader$1$[ebp]
  00306	8b cf		 mov	 ecx, edi
  00308	05 bc 55 00 00	 add	 eax, 21948		; 000055bcH
  0030d	50		 push	 eax
  0030e	e8 00 00 00 00	 call	 ?WriteString@CAr@@QAEXPBD@Z ; CAr::WriteString
; File C:\IAGOS\server\v18\Source\Source\_Network\Misc\Include\ar.h

; 356  : 	return( m_lpBufCur - m_lpBufStart );

  00313	8b 47 08	 mov	 eax, DWORD PTR [edi+8]
; File C:\IAGOS\server\v18\Source\Source\_Common\MoverItem.cpp

; 417  : 		u_long uSize1	= 0;

  00316	33 c9		 xor	 ecx, ecx
; File C:\IAGOS\server\v18\Source\Source\_Network\Misc\Include\ar.h

; 356  : 	return( m_lpBufCur - m_lpBufStart );

  00318	2b 47 10	 sub	 eax, DWORD PTR [edi+16]
  0031b	89 45 a4	 mov	 DWORD PTR _uOffset1$1$[ebp], eax
; File C:\IAGOS\server\v18\Source\Source\_Common\MoverItem.cpp

; 419  : 		ar << (DWORD)0;

  0031e	8d 45 cc	 lea	 eax, DWORD PTR $T10[ebp]
  00321	89 4d b0	 mov	 DWORD PTR _uSize1$1$[ebp], ecx
  00324	89 4d cc	 mov	 DWORD PTR $T10[ebp], ecx
  00327	8b cf		 mov	 ecx, edi
  00329	50		 push	 eax
  0032a	e8 00 00 00 00	 call	 ??$?6K@CAr@@QAEAAV0@ABK@Z ; CAr::operator<<<unsigned long>
; File C:\IAGOS\server\v18\Source\Source\_Network\Misc\Include\ar.h

; 356  : 	return( m_lpBufCur - m_lpBufStart );

  0032f	8b 47 08	 mov	 eax, DWORD PTR [edi+8]
; File C:\IAGOS\server\v18\Source\Source\_Common\MoverItem.cpp

; 422  : 		ar << (DWORD)0;

  00332	8b cf		 mov	 ecx, edi
; File C:\IAGOS\server\v18\Source\Source\_Network\Misc\Include\ar.h

; 356  : 	return( m_lpBufCur - m_lpBufStart );

  00334	2b 47 10	 sub	 eax, DWORD PTR [edi+16]
  00337	89 45 a0	 mov	 DWORD PTR _uOffset2$1$[ebp], eax
; File C:\IAGOS\server\v18\Source\Source\_Common\MoverItem.cpp

; 422  : 		ar << (DWORD)0;

  0033a	8d 45 cc	 lea	 eax, DWORD PTR $T9[ebp]
  0033d	50		 push	 eax
  0033e	c7 45 ac 00 00
	00 00		 mov	 DWORD PTR _uSize2$1$[ebp], 0
  00345	c7 45 cc 00 00
	00 00		 mov	 DWORD PTR $T9[ebp], 0
  0034c	e8 00 00 00 00	 call	 ??$?6K@CAr@@QAEAAV0@ABK@Z ; CAr::operator<<<unsigned long>
  00351	8d 7e 04	 lea	 edi, DWORD PTR [esi+4]
  00354	b8 19 00 00 00	 mov	 eax, 25			; 00000019H
  00359	89 7d bc	 mov	 DWORD PTR tv1322[ebp], edi
  0035c	89 45 b8	 mov	 DWORD PTR tv1347[ebp], eax
  0035f	90		 npad	 1
$LL7@TradeLastC:

; 427  : 		{
; 428  : 			pItemBase = m_apItem_VT[i];

  00360	8b 3f		 mov	 edi, DWORD PTR [edi]

; 429  : 			if( pItemBase == NULL )

  00362	85 ff		 test	 edi, edi
  00364	0f 84 98 00 00
	00		 je	 $LN5@TradeLastC

; 430  : 				continue;
; 431  : 
; 432  : 			m_apItem_VT[i] = NULL;

  0036a	8b 45 bc	 mov	 eax, DWORD PTR tv1322[ebp]
  0036d	c7 00 00 00 00
	00		 mov	 DWORD PTR [eax], 0
; File C:\IAGOS\server\v18\Source\Source\_Common\Item.h

; 230  : 	ItemProp*	GetProp()	{	return prj.GetItemProp( m_dwItemId );	}

  00373	8b 4f 0c	 mov	 ecx, DWORD PTR [edi+12]
; File C:\IAGOS\server\v18\Source\Source\_Common\Project.h

; 1389 : 	VERIFY_RANGE_ASSERT( nIndex, 0, m_aPropItem.GetSize(), "GetItemProp range_error", NULL );

  00376	a1 40 02 00 00	 mov	 eax, DWORD PTR ?prj@@3VCProject@@A+576
  0037b	85 c9		 test	 ecx, ecx
  0037d	78 10		 js	 SHORT $LN112@TradeLastC
  0037f	3b c8		 cmp	 ecx, eax
  00381	7d 0c		 jge	 SHORT $LN112@TradeLastC
; File C:\IAGOS\server\v18\Source\Source\_Common\data.h

; 270  : 	if( dwIndex >= (DWORD)m_nMaxIndex )

  00383	73 20		 jae	 SHORT $LN127@TradeLastC

; 271  : 		return NULL;
; 272  : 	return (T*) m_apOffset[ dwIndex ];

  00385	a1 30 02 00 00	 mov	 eax, DWORD PTR ?prj@@3VCProject@@A+560
  0038a	8b 04 88	 mov	 eax, DWORD PTR [eax+ecx*4]
; File C:\IAGOS\server\v18\Source\Source\_Common\Project.h

; 1390 : 	return m_aPropItem.GetAt( nIndex ); 

  0038d	eb 18		 jmp	 SHORT $LN59@TradeLastC
$LN112@TradeLastC:

; 579  : 	LPCTSTR szErr = Error( _T( "%s min:%d, max:%d, index:%d" ), szMsg, nMin, nMax, nIndex ); 

  0038f	51		 push	 ecx
  00390	50		 push	 eax
  00391	6a 00		 push	 0
  00393	68 00 00 00 00	 push	 OFFSET ??_C@_0BI@BEIFNGEL@GetItemProp?5range_error@
  00398	68 00 00 00 00	 push	 OFFSET ??_C@_0BM@HMFGHCP@?$CFs?5min?3?$CFd?0?5max?3?$CFd?0?5index?3?$CFd@
  0039d	e8 00 00 00 00	 call	 ?Error@@YAPBDPBDZZ	; Error
  003a2	83 c4 14	 add	 esp, 20			; 00000014H
$LN127@TradeLastC:
; File C:\IAGOS\server\v18\Source\Source\_Common\MoverItem.cpp

; 434  : 			if( pItemElem->GetProp()->dwPackMax > 1 )

  003a5	33 c0		 xor	 eax, eax
$LN59@TradeLastC:
  003a7	83 78 6c 01	 cmp	 DWORD PTR [eax+108], 1
  003ab	6a 00		 push	 0
  003ad	6a 00		 push	 0
  003af	6a 00		 push	 0
  003b1	57		 push	 edi
  003b2	76 2f		 jbe	 SHORT $LN24@TradeLastC

; 435  : 			{
; 436  : 				short nTradeNum = pItemElem->m_nItemNum - pItemBase->GetExtra();

  003b4	0f b7 4f 10	 movzx	 ecx, WORD PTR [edi+16]
  003b8	66 8b 47 74	 mov	 ax, WORD PTR [edi+116]
  003bc	66 2b c1	 sub	 ax, cx

; 437  : 				pItemElem->m_nItemNum = pItemBase->GetExtra();

  003bf	66 89 4f 74	 mov	 WORD PTR [edi+116], cx

; 438  : 				u.Add( pItemElem );

  003c3	8d 4d 8c	 lea	 ecx, DWORD PTR _u$3[ebp]
  003c6	0f b7 f0	 movzx	 esi, ax
  003c9	e8 00 00 00 00	 call	 ?Add@?$CItemContainer@VCItemElem@@@@QAEHPAVCItemElem@@PAEPAF1@Z ; CItemContainer<CItemElem>::Add

; 439  : 				pItemElem->m_nItemNum = nTradeNum;

  003ce	66 89 77 74	 mov	 WORD PTR [edi+116], si

; 440  : 				pItemElem->SetExtra( 0 );
; 441  : 				if( nTradeNum == 0 )

  003d2	66 85 f6	 test	 si, si
  003d5	8b 75 b4	 mov	 esi, DWORD PTR _this$GSCopy$1$[ebp]
  003d8	c7 47 10 00 00
	00 00		 mov	 DWORD PTR [edi+16], 0
  003df	75 1e		 jne	 SHORT $LN124@TradeLastC

; 442  : 					m_pOwner->m_Inventory.RemoveAtId( pItemBase->m_dwObjId );	// Á¦°Ĺ
; 443  : 			}

  003e1	eb 08		 jmp	 SHORT $LN130@TradeLastC
$LN24@TradeLastC:

; 444  : 			else
; 445  : 			{
; 446  : 				u.Add( pItemElem );	// ŔÓ˝Ă ąöĆŰżˇ Ăß°ˇ

  003e3	8d 4d 8c	 lea	 ecx, DWORD PTR _u$3[ebp]
  003e6	e8 00 00 00 00	 call	 ?Add@?$CItemContainer@VCItemElem@@@@QAEHPAVCItemElem@@PAEPAF1@Z ; CItemContainer<CItemElem>::Add
$LN130@TradeLastC:

; 423  : 
; 424  : 		// item_step1. m_pOwner->ŔÓ˝Ă 
; 425  : 		CItemBase* pItemBase;
; 426  : 		for( int i = 0; i < MAX_TRADE; i++ )

  003eb	8b 8e 80 00 00
	00		 mov	 ecx, DWORD PTR [esi+128]
  003f1	ff 77 04	 push	 DWORD PTR [edi+4]
  003f4	81 c1 fc 0a 00
	00		 add	 ecx, 2812		; 00000afcH
  003fa	e8 00 00 00 00	 call	 ?RemoveAtId@?$CItemContainer@VCItemElem@@@@QAEXK@Z ; CItemContainer<CItemElem>::RemoveAtId
$LN124@TradeLastC:
  003ff	8b 45 b8	 mov	 eax, DWORD PTR tv1347[ebp]
$LN5@TradeLastC:
  00402	8b 7d bc	 mov	 edi, DWORD PTR tv1322[ebp]
  00405	83 c7 04	 add	 edi, 4
  00408	83 e8 01	 sub	 eax, 1
  0040b	89 7d bc	 mov	 DWORD PTR tv1322[ebp], edi
  0040e	89 45 b8	 mov	 DWORD PTR tv1347[ebp], eax
  00411	0f 85 49 ff ff
	ff		 jne	 $LL7@TradeLastC

; 447  : 				m_pOwner->m_Inventory.RemoveAtId( pItemBase->m_dwObjId );	// Á¦°Ĺ
; 448  : 			}
; 449  : 		}
; 450  : 		
; 451  : 		// item_step2. pTrader -> m_pOwner
; 452  : 		for( int i = 0; i < MAX_TRADE; i++ )

  00417	8b 45 c4	 mov	 eax, DWORD PTR _pTrader$1$[ebp]
  0041a	33 c9		 xor	 ecx, ecx
  0041c	89 4d cc	 mov	 DWORD PTR _i$1$[ebp], ecx
  0041f	8d 90 98 0c 00
	00		 lea	 edx, DWORD PTR [eax+3224]
  00425	89 55 bc	 mov	 DWORD PTR tv1343[ebp], edx
$LL10@TradeLastC:

; 453  : 		{
; 454  : 			pItemBase = pTrader->m_vtInfo.GetItem( i );

  00428	8a c1		 mov	 al, cl
  0042a	8b ca		 mov	 ecx, edx
  0042c	50		 push	 eax
  0042d	89 45 c8	 mov	 DWORD PTR tv1319[ebp], eax
  00430	e8 00 00 00 00	 call	 ?GetItem@CVTInfo@@QAEPAVCItemBase@@E@Z ; CVTInfo::GetItem
  00435	8b f0		 mov	 esi, eax

; 455  : 			if( pItemBase == NULL )

  00437	85 f6		 test	 esi, esi
  00439	0f 84 30 01 00
	00		 je	 $LN123@TradeLastC

; 456  : 				continue;
; 457  : 
; 458  : 			pTrader->m_vtInfo.SetItem( i, NULL );

  0043f	8b 4d bc	 mov	 ecx, DWORD PTR tv1343[ebp]
  00442	6a 00		 push	 0
  00444	ff 75 c8	 push	 DWORD PTR tv1319[ebp]
  00447	e8 00 00 00 00	 call	 ?SetItem@CVTInfo@@QAEXEPAVCItemBase@@@Z ; CVTInfo::SetItem

; 459  : 			uSize1++;
; 460  : 			ar << pItemBase->m_dwItemId;

  0044c	8b 4d c0	 mov	 ecx, DWORD PTR _ar$GSCopy$1$[ebp]
  0044f	8d 7e 0c	 lea	 edi, DWORD PTR [esi+12]
  00452	ff 45 b0	 inc	 DWORD PTR _uSize1$1$[ebp]
  00455	57		 push	 edi
  00456	e8 00 00 00 00	 call	 ??$?6K@CAr@@QAEAAV0@ABK@Z ; CAr::operator<<<unsigned long>

; 461  : 			ar << pItemBase->GetSerialNumber();

  0045b	8b 46 38	 mov	 eax, DWORD PTR [esi+56]
  0045e	8b 4d c0	 mov	 ecx, DWORD PTR _ar$GSCopy$1$[ebp]
  00461	89 45 c8	 mov	 DWORD PTR $T6[ebp], eax
  00464	8d 45 c8	 lea	 eax, DWORD PTR $T6[ebp]
  00467	50		 push	 eax
  00468	e8 00 00 00 00	 call	 ??$?6K@CAr@@QAEAAV0@ABK@Z ; CAr::operator<<<unsigned long>
  0046d	0f 57 c0	 xorps	 xmm0, xmm0

; 462  : 			//ar.WriteString( pItemBase->GetProp()->szName );
; 463  : 			char szItemId[32] = {0, };
; 464  : 			_stprintf( szItemId, "%d", pItemBase->GetProp()->dwID );

  00470	8b ce		 mov	 ecx, esi
  00472	0f 11 45 d0	 movups	 XMMWORD PTR _szItemId$16[ebp], xmm0
  00476	0f 11 45 e0	 movups	 XMMWORD PTR _szItemId$16[ebp+16], xmm0
  0047a	e8 00 00 00 00	 call	 ?GetPropA@CItemBase@@QAEPAUItemProp@@XZ ; CItemBase::GetPropA
  0047f	ff 30		 push	 DWORD PTR [eax]
  00481	8d 45 d0	 lea	 eax, DWORD PTR _szItemId$16[ebp]
  00484	68 00 00 00 00	 push	 OFFSET ??_C@_02DPKJAMEF@?$CFd@
  00489	50		 push	 eax
  0048a	e8 00 00 00 00	 call	 _sprintf

; 465  : 			ar.WriteString( szItemId );

  0048f	8b 4d c0	 mov	 ecx, DWORD PTR _ar$GSCopy$1$[ebp]
  00492	8d 45 d0	 lea	 eax, DWORD PTR _szItemId$16[ebp]
  00495	83 c4 0c	 add	 esp, 12			; 0000000cH
  00498	50		 push	 eax
  00499	e8 00 00 00 00	 call	 ?WriteString@CAr@@QAEXPBD@Z ; CAr::WriteString
; File C:\IAGOS\server\v18\Source\Source\_Common\Item.h

; 230  : 	ItemProp*	GetProp()	{	return prj.GetItemProp( m_dwItemId );	}

  0049e	8b 0f		 mov	 ecx, DWORD PTR [edi]
; File C:\IAGOS\server\v18\Source\Source\_Common\Project.h

; 1389 : 	VERIFY_RANGE_ASSERT( nIndex, 0, m_aPropItem.GetSize(), "GetItemProp range_error", NULL );

  004a0	a1 40 02 00 00	 mov	 eax, DWORD PTR ?prj@@3VCProject@@A+576
  004a5	85 c9		 test	 ecx, ecx
  004a7	78 10		 js	 SHORT $LN48@TradeLastC
  004a9	3b c8		 cmp	 ecx, eax
  004ab	7d 0c		 jge	 SHORT $LN48@TradeLastC
; File C:\IAGOS\server\v18\Source\Source\_Common\data.h

; 270  : 	if( dwIndex >= (DWORD)m_nMaxIndex )

  004ad	73 20		 jae	 SHORT $LN128@TradeLastC

; 271  : 		return NULL;
; 272  : 	return (T*) m_apOffset[ dwIndex ];

  004af	a1 30 02 00 00	 mov	 eax, DWORD PTR ?prj@@3VCProject@@A+560
  004b4	8b 04 88	 mov	 eax, DWORD PTR [eax+ecx*4]
; File C:\IAGOS\server\v18\Source\Source\_Common\Project.h

; 1390 : 	return m_aPropItem.GetAt( nIndex ); 

  004b7	eb 18		 jmp	 SHORT $LN43@TradeLastC
$LN48@TradeLastC:

; 579  : 	LPCTSTR szErr = Error( _T( "%s min:%d, max:%d, index:%d" ), szMsg, nMin, nMax, nIndex ); 

  004b9	51		 push	 ecx
  004ba	50		 push	 eax
  004bb	6a 00		 push	 0
  004bd	68 00 00 00 00	 push	 OFFSET ??_C@_0BI@BEIFNGEL@GetItemProp?5range_error@
  004c2	68 00 00 00 00	 push	 OFFSET ??_C@_0BM@HMFGHCP@?$CFs?5min?3?$CFd?0?5max?3?$CFd?0?5index?3?$CFd@
  004c7	e8 00 00 00 00	 call	 ?Error@@YAPBDPBDZZ	; Error
  004cc	83 c4 14	 add	 esp, 20			; 00000014H
$LN128@TradeLastC:
; File C:\IAGOS\server\v18\Source\Source\_Common\MoverItem.cpp

; 468  : 			if( pItemElem->GetProp()->dwPackMax > 1 )

  004cf	33 c0		 xor	 eax, eax
$LN43@TradeLastC:
  004d1	83 78 6c 01	 cmp	 DWORD PTR [eax+108], 1
  004d5	76 5b		 jbe	 SHORT $LN28@TradeLastC

; 469  : 			{
; 470  : 				int nTradeNum = pItemElem->m_nItemNum - pItemBase->GetExtra();

  004d7	8b 46 10	 mov	 eax, DWORD PTR [esi+16]
  004da	0f bf 7e 74	 movsx	 edi, WORD PTR [esi+116]

; 471  : 				pItemElem->m_nItemNum = pItemBase->GetExtra();

  004de	66 89 46 74	 mov	 WORD PTR [esi+116], ax
  004e2	2b f8		 sub	 edi, eax

; 472  : 				m_pOwner->m_Inventory.Add( pItemElem );

  004e4	8b 45 b4	 mov	 eax, DWORD PTR _this$GSCopy$1$[ebp]
  004e7	6a 00		 push	 0
  004e9	6a 00		 push	 0
  004eb	6a 00		 push	 0
  004ed	8b 88 80 00 00
	00		 mov	 ecx, DWORD PTR [eax+128]
  004f3	56		 push	 esi
  004f4	81 c1 fc 0a 00
	00		 add	 ecx, 2812		; 00000afcH
  004fa	e8 00 00 00 00	 call	 ?Add@?$CItemContainer@VCItemElem@@@@QAEHPAVCItemElem@@PAEPAF1@Z ; CItemContainer<CItemElem>::Add

; 473  : 				pItemElem->m_nItemNum = (short)nTradeNum;
; 474  : 
; 475  : 				TradeLog( ar, pItemBase, pItemBase->GetExtra() );

  004ff	0f b7 46 10	 movzx	 eax, WORD PTR [esi+16]
  00503	50		 push	 eax
  00504	56		 push	 esi
  00505	ff 75 c0	 push	 DWORD PTR _ar$GSCopy$1$[ebp]
  00508	66 89 7e 74	 mov	 WORD PTR [esi+116], di
  0050c	e8 00 00 00 00	 call	 ?TradeLog@@YAXAAVCAr@@PAVCItemBase@@F@Z ; TradeLog
  00511	83 c4 0c	 add	 esp, 12			; 0000000cH
; File C:\IAGOS\server\v18\Source\Source\_Common\Item.h

; 72   : 	m_nExtra = nExtra;

  00514	c7 46 10 00 00
	00 00		 mov	 DWORD PTR [esi+16], 0
; File C:\IAGOS\server\v18\Source\Source\_Common\MoverItem.cpp

; 478  : 				if( nTradeNum == 0 )

  0051b	85 ff		 test	 edi, edi
  0051d	75 50		 jne	 SHORT $LN123@TradeLastC

; 479  : 					pTrader->m_Inventory.RemoveAtId( pItemBase->m_dwObjId );	

  0051f	ff 76 04	 push	 DWORD PTR [esi+4]
  00522	8b 75 c4	 mov	 esi, DWORD PTR _pTrader$1$[ebp]
  00525	8d 8e fc 0a 00
	00		 lea	 ecx, DWORD PTR [esi+2812]
  0052b	e8 00 00 00 00	 call	 ?RemoveAtId@?$CItemContainer@VCItemElem@@@@QAEXK@Z ; CItemContainer<CItemElem>::RemoveAtId
  00530	eb 40		 jmp	 SHORT $LN129@TradeLastC
$LN28@TradeLastC:

; 480  : 			}
; 481  : 			else
; 482  : 			{
; 483  : 				TradeLog( ar, pItemBase, 1 );

  00532	8b 7d c0	 mov	 edi, DWORD PTR _ar$GSCopy$1$[ebp]
  00535	6a 01		 push	 1
  00537	56		 push	 esi
  00538	57		 push	 edi
  00539	e8 00 00 00 00	 call	 ?TradeLog@@YAXAAVCAr@@PAVCItemBase@@F@Z ; TradeLog

; 484  : 				
; 485  : 				m_pOwner->m_Inventory.Add( pItemElem );	// pUserżˇ pTrader°ˇ ÁŘ ľĆŔĚĹŰŔ» Ăß°ˇ

  0053e	8b 45 b4	 mov	 eax, DWORD PTR _this$GSCopy$1$[ebp]
  00541	83 c4 0c	 add	 esp, 12			; 0000000cH
  00544	8b 88 80 00 00
	00		 mov	 ecx, DWORD PTR [eax+128]
  0054a	6a 00		 push	 0
  0054c	6a 00		 push	 0
  0054e	6a 00		 push	 0
  00550	56		 push	 esi
  00551	81 c1 fc 0a 00
	00		 add	 ecx, 2812		; 00000afcH
  00557	e8 00 00 00 00	 call	 ?Add@?$CItemContainer@VCItemElem@@@@QAEHPAVCItemElem@@PAEPAF1@Z ; CItemContainer<CItemElem>::Add

; 486  : 				pTrader->m_Inventory.RemoveAtId( pItemBase->m_dwObjId );	

  0055c	ff 76 04	 push	 DWORD PTR [esi+4]
  0055f	8b 75 c4	 mov	 esi, DWORD PTR _pTrader$1$[ebp]
  00562	8d 8e fc 0a 00
	00		 lea	 ecx, DWORD PTR [esi+2812]
  00568	e8 00 00 00 00	 call	 ?RemoveAtId@?$CItemContainer@VCItemElem@@@@QAEXK@Z ; CItemContainer<CItemElem>::RemoveAtId
  0056d	eb 06		 jmp	 SHORT $LN8@TradeLastC
$LN123@TradeLastC:

; 447  : 				m_pOwner->m_Inventory.RemoveAtId( pItemBase->m_dwObjId );	// Á¦°Ĺ
; 448  : 			}
; 449  : 		}
; 450  : 		
; 451  : 		// item_step2. pTrader -> m_pOwner
; 452  : 		for( int i = 0; i < MAX_TRADE; i++ )

  0056f	8b 75 c4	 mov	 esi, DWORD PTR _pTrader$1$[ebp]
$LN129@TradeLastC:
  00572	8b 7d c0	 mov	 edi, DWORD PTR _ar$GSCopy$1$[ebp]
$LN8@TradeLastC:
  00575	8b 4d cc	 mov	 ecx, DWORD PTR _i$1$[ebp]
  00578	8d 96 98 0c 00
	00		 lea	 edx, DWORD PTR [esi+3224]
  0057e	41		 inc	 ecx
  0057f	89 4d cc	 mov	 DWORD PTR _i$1$[ebp], ecx
  00582	83 f9 19	 cmp	 ecx, 25			; 00000019H
  00585	0f 8c 9d fe ff
	ff		 jl	 $LL10@TradeLastC
; File C:\IAGOS\server\v18\Source\Source\_Common\Item.h

; 430  : 			for( DWORD i = 0; i < m_dwItemMax; i++ )

  0058b	8b 55 98	 mov	 edx, DWORD PTR _u$3[ebp+12]
  0058e	33 c9		 xor	 ecx, ecx
  00590	89 4d c8	 mov	 DWORD PTR _nCount$1$[ebp], ecx
  00593	85 d2		 test	 edx, edx
  00595	74 24		 je	 SHORT $LN35@TradeLastC

; 231  : 	int			GetAttrOption();		// ľĆŔĚĹŰŔÇ +żÉĽÇ°Ş°ú ĽÓĽş/ĽÓĽş·ąş§°ŞŔ» ÇŐĂÄĽ­ ¸®ĹĎ.
; 232  : 	int			GetAbilityOption() { return m_nAbilityOption; }
; 233  : #if __VER >= 15 // __15_5TH_ELEMENTAL_SMELT_SAFETY
; 234  : 	int			GetItemResist( void ) const;
; 235  : 	int			GetResistAbilityOption( void ) const;
; 236  : #endif // __15_5TH_ELEMENTAL_SMELT_SAFETY
; 237  : 	int*		GetAbilityOptionPtr() { return &m_nAbilityOption; }
; 238  : 	void		SetAbilityOption( int nAbilityOption ) { m_nAbilityOption = nAbilityOption; }
; 239  : 	int			GetGold();
; 240  : 
; 241  : //	PIERCINGINFO	m_piercingInfo;
; 242  : 	void	GetPiercingAvail( PPIERCINGAVAIL pPiercingAvail/*input, output*/ );
; 243  : 	BOOL	m_bCharged;			// »óżëČ­ ľĆŔĚĹŰŔÎÁö Č®ŔÎ
; 244  : 	DWORD	m_dwKeepTime;		// ÁöĽÓ˝Ă°Ł
; 245  : 
; 246  : 	BOOL	IsExpiring( void )
; 247  : 		{	
; 248  : 			if( m_dwKeepTime )
; 249  : 			{
; 250  : 				if( time_null() > (time_t)m_dwKeepTime )
; 251  : 					return TRUE;
; 252  : 			}
; 253  : 			return FALSE;
; 254  : 		}
; 255  : 	void	ResetFlag( BYTE byFlag )	{	m_byFlag	&= ~byFlag;		}
; 256  : 	void	SetFlag( BYTE byFlag )		{	m_byFlag	|= byFlag;		}
; 257  : 	BOOL	IsFlag( BYTE byFlag )	{	return ( m_byFlag & byFlag ) ? TRUE: FALSE;		}
; 258  : 	BOOL	IsBinds();
; 259  : 	BOOL	IsUndestructable( void );
; 260  : 	BOOL	IsCharged();
; 261  : 	BOOL	IsLogable();
; 262  : 
; 263  : 	static BOOL	IsDiceRefineryAble( ItemProp* pProp );
; 264  : 	static BOOL	IsEleRefineryAble( ItemProp* pProp );
; 265  : #if __VER >= 15 // __15_5TH_ELEMENTAL_SMELT_SAFETY
; 266  : 	static BOOL	IsElementalCard( const DWORD dwItemID );
; 267  : #endif // __15_5TH_ELEMENTAL_SMELT_SAFETY
; 268  : 	
; 269  : //	Operations
; 270  : 	void		UseItem();
; 271  : 	virtual	CItemElem&	operator = ( CItemElem & ie );
; 272  : 	virtual	void		Serialize( CAr & ar );
; 273  : 
; 274  : #if __VER >= 15 // __PETVIS
; 275  : 	BOOL	IsVisPet()	{ return ( GetProp() && GetProp()->IsVisPet() ) || IsTransformVisPet() ; }
; 276  : 	void	SetSwapVisItem( int nPos1, int nPos2 );
; 277  : 	void	SetVisKeepTimeSize( int nSize )				{ m_piercing.SetVisKeepTimeSize( nSize ); }
; 278  : 	void	SetVisKeepTime( int nth, time_t tmKeep )	{ m_piercing.SetVisKeepTime( nth, tmKeep ); }
; 279  : 	time_t	GetVisKeepTime( int nth )					{ return m_piercing.GetVisKeepTime( nth ); }
; 280  : 	DWORD	GetVisPetSfxId();
; 281  : 	BOOL	IsTransformVisPet() { return GetProp() && GetProp()->dwItemKind3 == IK3_PET && m_bTranformVisPet; }
; 282  : 
; 283  : 	BOOL	m_bTranformVisPet;
; 284  : #endif // __PETVIS
; 285  : };
; 286  : 
; 287  : inline int CItemElem::GetAttrOption()		// ľĆŔĚĹŰŔÇ +żÉĽÇ°Ş°ú ĽÓĽş/ĽÓĽş·ąş§°ŞŔ» ÇŐĂÄĽ­ ¸®ĹĎ.
; 288  : {
; 289  : 	int nAttr = (int)m_bItemResist;
; 290  : 	int nOption = m_nResistAbilityOption;
; 291  : 	int nRet = m_nAbilityOption;
; 292  : 	
; 293  : 	nRet |= (nAttr << 16);		// D16~D23 : ĽÓĽş
; 294  : 	nRet |= (nOption << 24);	// D24~D31 : ĽÓĽş·ąş§
; 295  : 	return nRet;
; 296  : }
; 297  : 
; 298  : #if __VER >= 15 // __15_5TH_ELEMENTAL_SMELT_SAFETY
; 299  : inline int CItemElem::GetItemResist( void ) const
; 300  : {
; 301  : 	return m_bItemResist;
; 302  : }
; 303  : 
; 304  : inline int CItemElem::GetResistAbilityOption( void ) const
; 305  : {
; 306  : 	return m_nResistAbilityOption;
; 307  : }
; 308  : #endif // __15_5TH_ELEMENTAL_SMELT_SAFETY
; 309  : 
; 310  : typedef struct tagSkill
; 311  : {
; 312  : 	DWORD dwSkill;
; 313  : 	DWORD dwLevel;
; 314  : 	ItemProp* GetProp()	{ return prj.GetSkillProp( dwSkill ); }
; 315  : 	
; 316  : } SKILL,* LPSKILL;
; 317  : 
; 318  : /*
; 319  : #ifdef __XPET2
; 320  : class CPetElem : public CItemBase
; 321  : {
; 322  : 	int m_nMaxLevel;	// Ľö¸í
; 323  : 	int m_nLevel;		// ·ąş§(łŞŔĚ)
; 324  : 	int m_dwHungry;		// ąč°íÇÂÁ¤µµ -10 ~ 10		-10ŔĚÇĎ´Â Á¸ł»ąč°íÇÄ / -10 ~ -5 ąč°íÇÄ / -5 ~ 5 ş¸Ĺë / 5ŔĚ»ó ąčşÎ¸§
; 325  : 	int m_dwFeeling;	// ±âşĐ. -10 ~ 10			
; 326  : 
; 327  : 	void Init();
; 328  : 	void Destroy();
; 329  : public:
; 330  : 	CPetElem();
; 331  : 	~CPetElem();
; 332  : 	ItemProp* GetProp()	{	return prj.GetItemProp( m_dwItemId );	}
; 333  : 	virtual	CPetElem&	operator = ( CPetElem & pe );
; 334  : 	virtual void	Serialize( CAr & ar );
; 335  : };
; 336  : #endif // xPet2
; 337  : */
; 338  : 
; 339  : //////////////////////////////////////////////////////////////////////
; 340  : // ŔĚ°ÍŔş ľĆŔĚĹŰ ÇĎłŞÇĎłŞŔÇ żäĽŇ¸¦ ąčż­·Î ¸¸µéľî Ăß°ˇ, »čÁ¦ µîŔÇ 
; 341  : // ĆíÁýŔĚ °ˇ´ÉÇŃ ÄÁĹ×ŔĚłĘ Ĺ¬·ˇ˝ş´Ů.
; 342  : //////////////////////////////////////////////////////////////////////
; 343  : template <class T> class CItemContainer  
; 344  : {
; 345  : public:
; 346  : 	LPDWORD    m_apIndex;
; 347  : 	DWORD      m_dwIndexNum; // equpŔ» Á¦żÜÇŃ ĽřĽö ÄÜĹ×ŔĚłĘ »çŔĚÁî 
; 348  : 	DWORD      m_dwItemMax;  // equpŔ» Ć÷ÇÔÇŃ ŔüĂĽ »çŔĚÁî 
; 349  : 	T*         m_apItem;
; 350  : 
; 351  : 	void SetItemContainer( DWORD dwItemType, DWORD dwItemMax, DWORD dwExtra = NULL_ID );
; 352  : 	CItemContainer();
; 353  : //	CItemContainer( DWORD dwItemType, DWORD dwItemMax, DWORD dwExtra = NULL_ID );
; 354  : 	virtual ~CItemContainer();
; 355  : 
; 356  : 	void Clear();
; 357  : 
; 358  : 	T* GetAt( DWORD dwIndex );
; 359  : #ifdef __CLIENT
; 360  : 	void SetAt( DWORD dwIndex, DWORD dwItemId );
; 361  : 	void SetAt( DWORD dwIndex, T* pItemElem );
; 362  : 	void InsertAt( DWORD dwIndex, DWORD dwItemId );
; 363  : 	void InsertAt( DWORD dwIndex, T* pItemElem );
; 364  : 	void RemoveAt( DWORD dwIndex );
; 365  : #if __VER >= 8	// __JEFF_VER_8
; 366  : 	DWORD	Find( DWORD dwItemId )
; 367  : 		{
; 368  : 			if( dwItemId == 0 )
; 369  : 				return NULL_ID;
; 370  : 			for( int i = 0; i < (int)( m_dwIndexNum ); i++ )
; 371  : 			{
; 372  : 				DWORD nId	= m_apIndex[i];
; 373  : 				if( nId < 0 || nId >= m_dwItemMax )
; 374  : 					continue;
; 375  : 				if( m_apItem[nId].m_dwItemId == dwItemId )
; 376  : 					return nId;
; 377  : 			}
; 378  : 			return NULL_ID;
; 379  : 		}
; 380  : 	DWORD	GetItemCount( DWORD dwItemId )
; 381  : 		{
; 382  : 			if( dwItemId == 0 )
; 383  : 				return 0;
; 384  : 			int nCount	= 0;
; 385  : 			for( int i = 0; i < (int)( m_dwItemMax ); i++ )
; 386  : 			{
; 387  : 				CItemElem* pItemElem	= (CItemElem*)&m_apItem[i];
; 388  : 				if( pItemElem->m_dwItemId == dwItemId )
; 389  : 					nCount	+= pItemElem->m_nItemNum;
; 390  : 			}
; 391  : 			return( nCount );
; 392  : 		}
; 393  : #endif	// __JEFF_VER_8
; 394  : #endif	// __CLIENT
; 395  : 
; 396  : 	// Equip °ü·Ă 
; 397  : 	BOOL DoEquip( DWORD dwSrcIndex, DWORD dwDstIndex );
; 398  : 	BOOL UnEquip( DWORD dwIndex );
; 399  : 	BOOL IsEquip( DWORD dwObjId );
; 400  : 	T* GetEquip( DWORD dwIndex );
; 401  : 
; 402  : 	void	Swap( DWORD dwSrcIndex, DWORD dwDstIndex );
; 403  : 	BOOL	Add( T* pElem, BYTE* pnId = NULL, short* pnNum = NULL, BYTE* pnCount = NULL );
; 404  : 	BOOL	IsFull( T* pElem, ItemProp* pItemProp, short nNum );
; 405  : 	void	SetAtId( OBJID dwObjId, T* pItemElem );
; 406  : 
; 407  : 	T*	GetAtId( OBJID dwObjId );
; 408  : 	T* GetAtItemId( DWORD dwItemId );
; 409  : 	int		GetAtItemNum( DWORD dwItemId );
; 410  : 	void	RemoveAtId( OBJID dwObjId );
; 411  : 
; 412  : 	int		GetSize() { return int( m_dwIndexNum ); }
; 413  : 	int		GetMax() { return int( m_dwItemMax ); }
; 414  : 	void	Copy( CItemContainer<T> & rItemContainer );
; 415  : 	void	Serialize( CAr & ar );
; 416  : 
; 417  : 	int		GetEmptyCount()
; 418  : 		{
; 419  : 			int nCount	= 0;
; 420  : 			for( DWORD i = 0; i < m_dwItemMax; i++ )
; 421  : 			{
; 422  : 				if( m_apItem[i].IsEmpty() && m_apItem[i].m_dwObjIndex < m_dwIndexNum )
; 423  : 					nCount++;
; 424  : 			}
; 425  : 			return( nCount );
; 426  : 		}
; 427  : 	int		GetCount()
; 428  : 		{
; 429  : 			int nCount	= 0;

  00597	8b 45 9c	 mov	 eax, DWORD PTR _u$3[ebp+16]
  0059a	8b 7d 94	 mov	 edi, DWORD PTR _u$3[ebp+8]
  0059d	83 c0 08	 add	 eax, 8
$LL36@TradeLastC:

; 50   : 	BOOL			IsEmpty() { return m_dwItemId ? FALSE : TRUE; }

  005a0	83 78 04 00	 cmp	 DWORD PTR [eax+4], 0

; 432  : 				if( m_apItem[i].IsEmpty() == FALSE && m_apItem[i].m_dwObjIndex < m_dwIndexNum )

  005a4	74 05		 je	 SHORT $LN34@TradeLastC
  005a6	39 38		 cmp	 DWORD PTR [eax], edi
  005a8	73 01		 jae	 SHORT $LN34@TradeLastC

; 433  : 					nCount++;

  005aa	41		 inc	 ecx
$LN34@TradeLastC:

; 430  : 			for( DWORD i = 0; i < m_dwItemMax; i++ )

  005ab	05 b0 00 00 00	 add	 eax, 176		; 000000b0H
  005b0	83 ea 01	 sub	 edx, 1
  005b3	75 eb		 jne	 SHORT $LL36@TradeLastC
  005b5	8b 7d c0	 mov	 edi, DWORD PTR _ar$GSCopy$1$[ebp]
  005b8	89 4d c8	 mov	 DWORD PTR _nCount$1$[ebp], ecx
$LN35@TradeLastC:
; File C:\IAGOS\server\v18\Source\Source\_Common\MoverItem.cpp

; 491  : 		nPlayers = u.GetCount();	// ÇŐÄ§Ŕ» °í·ÁÇŘĽ­ ±¸ÇŘµĐ´Ů.

  005bb	33 c0		 xor	 eax, eax
  005bd	89 45 cc	 mov	 DWORD PTR _i$1$[ebp], eax

; 492  : 		for( int i = 0; i < nPlayers; i++ )

  005c0	85 c9		 test	 ecx, ecx
  005c2	0f 8e 91 00 00
	00		 jle	 $LN12@TradeLastC

; 493  : 		{

  005c8	8d 96 fc 0a 00
	00		 lea	 edx, DWORD PTR [esi+2812]
  005ce	89 4d ac	 mov	 DWORD PTR _uSize2$1$[ebp], ecx
  005d1	89 55 bc	 mov	 DWORD PTR tv1330[ebp], edx
$LL13@TradeLastC:

; 494  : 			pItemBase = u.GetAtId( i );

  005d4	50		 push	 eax
  005d5	8d 4d 8c	 lea	 ecx, DWORD PTR _u$3[ebp]
  005d8	e8 00 00 00 00	 call	 ?GetAtId@?$CItemContainer@VCItemElem@@@@QAEPAVCItemElem@@K@Z ; CItemContainer<CItemElem>::GetAtId

; 495  : 			pTrader->m_Inventory.Add( (CItemElem*)pItemBase );

  005dd	8b 4d bc	 mov	 ecx, DWORD PTR tv1330[ebp]
  005e0	8b f0		 mov	 esi, eax
  005e2	6a 00		 push	 0
  005e4	6a 00		 push	 0
  005e6	6a 00		 push	 0
  005e8	56		 push	 esi
  005e9	e8 00 00 00 00	 call	 ?Add@?$CItemContainer@VCItemElem@@@@QAEHPAVCItemElem@@PAEPAF1@Z ; CItemContainer<CItemElem>::Add

; 496  : 			uSize2++;
; 497  : 			ar << pItemBase->m_dwItemId;

  005ee	8d 4e 0c	 lea	 ecx, DWORD PTR [esi+12]
  005f1	51		 push	 ecx
  005f2	8b cf		 mov	 ecx, edi
  005f4	e8 00 00 00 00	 call	 ??$?6K@CAr@@QAEAAV0@ABK@Z ; CAr::operator<<<unsigned long>

; 498  : 			ar << pItemBase->GetSerialNumber();

  005f9	8b 46 38	 mov	 eax, DWORD PTR [esi+56]
  005fc	8b cf		 mov	 ecx, edi
  005fe	89 45 b8	 mov	 DWORD PTR $T4[ebp], eax
  00601	8d 45 b8	 lea	 eax, DWORD PTR $T4[ebp]
  00604	50		 push	 eax
  00605	e8 00 00 00 00	 call	 ??$?6K@CAr@@QAEAAV0@ABK@Z ; CAr::operator<<<unsigned long>
  0060a	0f 57 c0	 xorps	 xmm0, xmm0

; 499  : 			//ar.WriteString( pItemBase->GetProp()->szName );
; 500  : 			char szItemId[32] = {0, };
; 501  : 			_stprintf( szItemId, "%d", pItemBase->GetProp()->dwID );

  0060d	8b ce		 mov	 ecx, esi
  0060f	0f 11 45 d0	 movups	 XMMWORD PTR _szItemId$15[ebp], xmm0
  00613	0f 11 45 e0	 movups	 XMMWORD PTR _szItemId$15[ebp+16], xmm0
  00617	e8 00 00 00 00	 call	 ?GetPropA@CItemBase@@QAEPAUItemProp@@XZ ; CItemBase::GetPropA
  0061c	ff 30		 push	 DWORD PTR [eax]
  0061e	8d 45 d0	 lea	 eax, DWORD PTR _szItemId$15[ebp]
  00621	68 00 00 00 00	 push	 OFFSET ??_C@_02DPKJAMEF@?$CFd@
  00626	50		 push	 eax
  00627	e8 00 00 00 00	 call	 _sprintf
  0062c	83 c4 0c	 add	 esp, 12			; 0000000cH

; 502  : 			ar.WriteString( szItemId );

  0062f	8d 45 d0	 lea	 eax, DWORD PTR _szItemId$15[ebp]
  00632	8b cf		 mov	 ecx, edi
  00634	50		 push	 eax
  00635	e8 00 00 00 00	 call	 ?WriteString@CAr@@QAEXPBD@Z ; CAr::WriteString

; 503  : 			TradeLog( ar, pItemBase, ((CItemElem*)pItemBase)->m_nItemNum );

  0063a	0f b7 46 74	 movzx	 eax, WORD PTR [esi+116]
  0063e	50		 push	 eax
  0063f	56		 push	 esi
  00640	57		 push	 edi
  00641	e8 00 00 00 00	 call	 ?TradeLog@@YAXAAVCAr@@PAVCItemBase@@F@Z ; TradeLog
  00646	8b 45 cc	 mov	 eax, DWORD PTR _i$1$[ebp]
  00649	83 c4 0c	 add	 esp, 12			; 0000000cH
  0064c	40		 inc	 eax
  0064d	89 45 cc	 mov	 DWORD PTR _i$1$[ebp], eax
  00650	3b 45 c8	 cmp	 eax, DWORD PTR _nCount$1$[ebp]
  00653	0f 8c 7b ff ff
	ff		 jl	 $LL13@TradeLastC
$LN12@TradeLastC:

; 504  : 		}
; 505  : 
; 506  : //		GETBLOCK( ar, lpBlock, nBlockSize );
; 507  : 		int nBufSize;	
; 508  : 		LPBYTE lpBlock	= ar.GetBuffer( &nBufSize );

  00659	8d 45 88	 lea	 eax, DWORD PTR _nBufSize$2[ebp]
  0065c	8b cf		 mov	 ecx, edi
  0065e	50		 push	 eax
  0065f	e8 00 00 00 00	 call	 ?GetBuffer@CAr@@QAEPAEPAH@Z ; CAr::GetBuffer

; 509  : 
; 510  : 		*(UNALIGNED u_long*)( lpBlock + uOffset1 )	= uSize1;

  00664	8b 55 a4	 mov	 edx, DWORD PTR _uOffset1$1$[ebp]
  00667	8b 4d b0	 mov	 ecx, DWORD PTR _uSize1$1$[ebp]

; 511  : 		*(UNALIGNED u_long*)( lpBlock + uOffset2 )	= uSize2;	
; 512  : 	}

  0066a	c7 45 fc ff ff
	ff ff		 mov	 DWORD PTR __$EHRec$[ebp+8], -1
  00671	89 0c 10	 mov	 DWORD PTR [eax+edx], ecx
  00674	8b 55 a0	 mov	 edx, DWORD PTR _uOffset2$1$[ebp]
  00677	8b 4d ac	 mov	 ecx, DWORD PTR _uSize2$1$[ebp]
  0067a	89 0c 10	 mov	 DWORD PTR [eax+edx], ecx
  0067d	8d 4d 8c	 lea	 ecx, DWORD PTR _u$3[ebp]
  00680	e8 00 00 00 00	 call	 ??1?$CItemContainer@VCItemElem@@@@UAE@XZ ; CItemContainer<CItemElem>::~CItemContainer<CItemElem>
$LN22@TradeLastC:

; 513  : 
; 514  : 
; 515  : 	TradeClear();

  00685	8b 4d b4	 mov	 ecx, DWORD PTR _this$GSCopy$1$[ebp]
  00688	e8 00 00 00 00	 call	 ?TradeClear@CVTInfo@@QAEXXZ ; CVTInfo::TradeClear

; 516  : 	pTrader->m_vtInfo.TradeClear();

  0068d	8b 4d c4	 mov	 ecx, DWORD PTR _pTrader$1$[ebp]
  00690	8d 89 98 0c 00
	00		 lea	 ecx, DWORD PTR [ecx+3224]
  00696	e8 00 00 00 00	 call	 ?TradeClear@CVTInfo@@QAEXXZ ; CVTInfo::TradeClear

; 517  : 	return result;

  0069b	8b 45 a8	 mov	 eax, DWORD PTR _result$1$[ebp]
  0069e	eb 11		 jmp	 SHORT $LN1@TradeLastC
$LN15@TradeLastC:

; 366  : 		CheckTradeGold( pTrader, 0, nUserGold ) == FALSE )
; 367  : 	{
; 368  : 		TradeClear();

  006a0	8b ce		 mov	 ecx, esi
  006a2	e8 00 00 00 00	 call	 ?TradeClear@CVTInfo@@QAEXXZ ; CVTInfo::TradeClear

; 369  : 		pTrader->m_vtInfo.TradeClear();

  006a7	8b 4d c8	 mov	 ecx, DWORD PTR tv1342[ebp]
  006aa	e8 00 00 00 00	 call	 ?TradeClear@CVTInfo@@QAEXXZ ; CVTInfo::TradeClear

; 370  : 		return result;

  006af	33 c0		 xor	 eax, eax
$LN1@TradeLastC:

; 518  : }

  006b1	8b 4d f4	 mov	 ecx, DWORD PTR __$EHRec$[ebp]
  006b4	64 89 0d 00 00
	00 00		 mov	 DWORD PTR fs:0, ecx
  006bb	59		 pop	 ecx
  006bc	5f		 pop	 edi
  006bd	5e		 pop	 esi
  006be	8b 4d f0	 mov	 ecx, DWORD PTR __$ArrayPad$[ebp]
  006c1	33 cd		 xor	 ecx, ebp
  006c3	e8 00 00 00 00	 call	 @__security_check_cookie@4
  006c8	8b e5		 mov	 esp, ebp
  006ca	5d		 pop	 ebp
  006cb	c2 04 00	 ret	 4
_TEXT	ENDS
;	COMDAT text$x
text$x	SEGMENT
__unwindfunclet$?TradeLastConfirm@CVTInfo@@QAE?AW4TRADE_CONFIRM_TYPE@@AAVCAr@@@Z$0:
  00000	8d 4d 8c	 lea	 ecx, DWORD PTR _u$3[ebp]
  00003	e9 00 00 00 00	 jmp	 ??1?$CItemContainer@VCItemElem@@@@UAE@XZ ; CItemContainer<CItemElem>::~CItemContainer<CItemElem>
  00008	cc		 int	 3
  00009	cc		 int	 3
  0000a	cc		 int	 3
  0000b	cc		 int	 3
  0000c	cc		 int	 3
__ehhandler$?TradeLastConfirm@CVTInfo@@QAE?AW4TRADE_CONFIRM_TYPE@@AAVCAr@@@Z:
  0000d	90		 npad	 1
  0000e	90		 npad	 1
  0000f	8b 54 24 08	 mov	 edx, DWORD PTR [esp+8]
  00013	8d 42 0c	 lea	 eax, DWORD PTR [edx+12]
  00016	8b 4a 88	 mov	 ecx, DWORD PTR [edx-120]
  00019	33 c8		 xor	 ecx, eax
  0001b	e8 00 00 00 00	 call	 @__security_check_cookie@4
  00020	8b 4a fc	 mov	 ecx, DWORD PTR [edx-4]
  00023	33 c8		 xor	 ecx, eax
  00025	e8 00 00 00 00	 call	 @__security_check_cookie@4
  0002a	b8 00 00 00 00	 mov	 eax, OFFSET __ehfuncinfo$?TradeLastConfirm@CVTInfo@@QAE?AW4TRADE_CONFIRM_TYPE@@AAVCAr@@@Z
  0002f	e9 00 00 00 00	 jmp	 ___CxxFrameHandler3
text$x	ENDS
?TradeLastConfirm@CVTInfo@@QAE?AW4TRADE_CONFIRM_TYPE@@AAVCAr@@@Z ENDP ; CVTInfo::TradeLastConfirm
; Function compile flags: /Ogtp
; File C:\IAGOS\server\v18\Source\Source\_Common\MoverItem.cpp
;	COMDAT ?TradeSetItem2@CVTInfo@@QAEKEEAAF@Z
_TEXT	SEGMENT
_nId$ = 8						; size = 1
_i$ = 12						; size = 1
tv243 = 12						; size = 4
_nItemNum$ = 16						; size = 4
?TradeSetItem2@CVTInfo@@QAEKEEAAF@Z PROC		; CVTInfo::TradeSetItem2, COMDAT
; _this$ = ecx

; 218  : {

  00000	55		 push	 ebp
  00001	8b ec		 mov	 ebp, esp

; 219  : 	CItemBase* pItemBase = m_pOwner->GetItemId( nId );

  00003	8b 45 08	 mov	 eax, DWORD PTR _nId$[ebp]
  00006	53		 push	 ebx
  00007	56		 push	 esi
  00008	57		 push	 edi
  00009	8b f9		 mov	 edi, ecx
  0000b	0f b6 c0	 movzx	 eax, al
  0000e	50		 push	 eax
  0000f	8b 8f 80 00 00
	00		 mov	 ecx, DWORD PTR [edi+128]
  00015	e8 00 00 00 00	 call	 ?GetItemId@CMover@@QAEPAVCItemBase@@K@Z ; CMover::GetItemId
  0001a	8b f0		 mov	 esi, eax

; 220  : 	if( IsUsableItem( pItemBase ) == FALSE || m_apItem_VT[i] != NULL )  

  0001c	56		 push	 esi
  0001d	e8 00 00 00 00	 call	 ?IsUsableItem@@YAHPAVCItemBase@@@Z ; IsUsableItem
  00022	83 c4 04	 add	 esp, 4
  00025	85 c0		 test	 eax, eax
  00027	0f 84 db 00 00
	00		 je	 $LN3@TradeSetIt
  0002d	8b 5d 0c	 mov	 ebx, DWORD PTR _i$[ebp]
  00030	0f b6 cb	 movzx	 ecx, bl
  00033	83 7c 8f 04 00	 cmp	 DWORD PTR [edi+ecx*4+4], 0
  00038	0f 85 ca 00 00
	00		 jne	 $LN3@TradeSetIt

; 221  : 		return (DWORD)TID_GAME_CANNOTTRADE_ITEM;
; 222  : 
; 223  : 	if( m_pOwner->m_Inventory.IsEquip( pItemBase->m_dwObjId ) ) 

  0003e	8b 8f 80 00 00
	00		 mov	 ecx, DWORD PTR [edi+128]
  00044	ff 76 04	 push	 DWORD PTR [esi+4]
  00047	81 c1 fc 0a 00
	00		 add	 ecx, 2812		; 00000afcH
  0004d	e8 00 00 00 00	 call	 ?IsEquip@?$CItemContainer@VCItemElem@@@@QAEHK@Z ; CItemContainer<CItemElem>::IsEquip
  00052	85 c0		 test	 eax, eax
  00054	0f 85 ae 00 00
	00		 jne	 $LN3@TradeSetIt

; 224  : 		return (DWORD)TID_GAME_CANNOTTRADE_ITEM;
; 225  : 	
; 226  : 	if( ( (CItemElem*)pItemBase )->IsQuest() )

  0005a	8b ce		 mov	 ecx, esi
  0005c	e8 00 00 00 00	 call	 ?IsQuest@CItemBase@@QAEHXZ ; CItemBase::IsQuest
  00061	85 c0		 test	 eax, eax
  00063	0f 85 9f 00 00
	00		 jne	 $LN3@TradeSetIt

; 227  : 		return (DWORD)TID_GAME_CANNOTTRADE_ITEM;
; 228  : 
; 229  : 	if( ( (CItemElem*)pItemBase )->IsBinds() )

  00069	8b ce		 mov	 ecx, esi
  0006b	e8 00 00 00 00	 call	 ?IsBinds@CItemElem@@QAEHXZ ; CItemElem::IsBinds
  00070	85 c0		 test	 eax, eax
  00072	0f 85 90 00 00
	00		 jne	 $LN3@TradeSetIt

; 230  : 		return (DWORD)TID_GAME_CANNOTTRADE_ITEM;
; 231  : 
; 232  : 	if( m_pOwner->IsUsing( (CItemElem*)pItemBase ) )

  00078	8b 8f 80 00 00
	00		 mov	 ecx, DWORD PTR [edi+128]
  0007e	56		 push	 esi
  0007f	e8 00 00 00 00	 call	 ?IsUsing@CMover@@QAEHPAVCItemElem@@@Z ; CMover::IsUsing
  00084	85 c0		 test	 eax, eax
  00086	74 0c		 je	 SHORT $LN7@TradeSetIt

; 247  : 	return 0;
; 248  : }

  00088	5f		 pop	 edi
  00089	5e		 pop	 esi
  0008a	b8 aa 0c 00 00	 mov	 eax, 3242		; 00000caaH
  0008f	5b		 pop	 ebx
  00090	5d		 pop	 ebp
  00091	c2 0c 00	 ret	 12			; 0000000cH
$LN7@TradeSetIt:

; 233  : 		return (DWORD)TID_GAME_CANNOT_DO_USINGITEM;
; 234  : 
; 235  : 	if( pItemBase->GetProp()->dwItemKind3 == IK3_CLOAK && ( (CItemElem*)pItemBase )->m_idGuild != 0 )

  00094	8b ce		 mov	 ecx, esi
  00096	e8 00 00 00 00	 call	 ?GetPropA@CItemBase@@QAEPAUItemProp@@XZ ; CItemBase::GetPropA
  0009b	83 78 78 18	 cmp	 DWORD PTR [eax+120], 24	; 00000018H
  0009f	75 06		 jne	 SHORT $LN8@TradeSetIt
  000a1	83 7e 78 00	 cmp	 DWORD PTR [esi+120], 0
  000a5	75 61		 jne	 SHORT $LN3@TradeSetIt
$LN8@TradeSetIt:

; 236  : 		return (DWORD)TID_GAME_CANNOTTRADE_ITEM;
; 237  : 	
; 238  : 	if( pItemBase->GetProp()->dwParts == PARTS_RIDE && pItemBase->GetProp()->dwItemJob == JOB_VAGRANT )

  000a7	8b ce		 mov	 ecx, esi
  000a9	e8 00 00 00 00	 call	 ?GetPropA@CItemBase@@QAEPAUItemProp@@XZ ; CItemBase::GetPropA
  000ae	83 b8 a8 00 00
	00 0d		 cmp	 DWORD PTR [eax+168], 13	; 0000000dH
  000b5	75 0d		 jne	 SHORT $LN9@TradeSetIt
  000b7	8b ce		 mov	 ecx, esi
  000b9	e8 00 00 00 00	 call	 ?GetPropA@CItemBase@@QAEPAUItemProp@@XZ ; CItemBase::GetPropA
  000be	83 78 7c 00	 cmp	 DWORD PTR [eax+124], 0
  000c2	74 44		 je	 SHORT $LN3@TradeSetIt
$LN9@TradeSetIt:

; 239  : 		return (DWORD)TID_GAME_CANNOTTRADE_ITEM;
; 240  : 	
; 241  : 	if( nItemNum < 1)

  000c4	8b 4d 10	 mov	 ecx, DWORD PTR _nItemNum$[ebp]
  000c7	0f b7 01	 movzx	 eax, WORD PTR [ecx]
  000ca	8b d0		 mov	 edx, eax
  000cc	66 83 f8 01	 cmp	 ax, 1
  000d0	7d 0a		 jge	 SHORT $LN10@TradeSetIt

; 242  : 		nItemNum = 1;

  000d2	b8 01 00 00 00	 mov	 eax, 1
  000d7	66 89 01	 mov	 WORD PTR [ecx], ax
  000da	8b d0		 mov	 edx, eax
$LN10@TradeSetIt:

; 243  : 	if( nItemNum > ( (CItemElem*)pItemBase )->m_nItemNum )

  000dc	0f b7 46 74	 movzx	 eax, WORD PTR [esi+116]
  000e0	8b f0		 mov	 esi, eax
  000e2	89 75 0c	 mov	 DWORD PTR tv243[ebp], esi
  000e5	0f b7 f2	 movzx	 esi, dx
  000e8	66 3b d0	 cmp	 dx, ax
  000eb	7e 06		 jle	 SHORT $LN11@TradeSetIt

; 244  : 		nItemNum = ( (CItemElem*)pItemBase )->m_nItemNum;

  000ed	66 89 01	 mov	 WORD PTR [ecx], ax
  000f0	0f b7 f0	 movzx	 esi, ax
$LN11@TradeSetIt:

; 245  : 	
; 246  : 	TradeSetItem( nId, i, nItemNum );

  000f3	56		 push	 esi
  000f4	53		 push	 ebx
  000f5	ff 75 08	 push	 DWORD PTR _nId$[ebp]
  000f8	8b cf		 mov	 ecx, edi
  000fa	e8 00 00 00 00	 call	 ?TradeSetItem@CVTInfo@@QAEXEEF@Z ; CVTInfo::TradeSetItem
  000ff	5f		 pop	 edi

; 247  : 	return 0;
; 248  : }

  00100	5e		 pop	 esi
  00101	33 c0		 xor	 eax, eax
  00103	5b		 pop	 ebx
  00104	5d		 pop	 ebp
  00105	c2 0c 00	 ret	 12			; 0000000cH
$LN3@TradeSetIt:
  00108	5f		 pop	 edi
  00109	5e		 pop	 esi
  0010a	b8 fc 0b 00 00	 mov	 eax, 3068		; 00000bfcH
  0010f	5b		 pop	 ebx
  00110	5d		 pop	 ebp
  00111	c2 0c 00	 ret	 12			; 0000000cH
?TradeSetItem2@CVTInfo@@QAEKEEAAF@Z ENDP		; CVTInfo::TradeSetItem2
_TEXT	ENDS
; Function compile flags: /Ogtp
; File C:\IAGOS\server\v18\Source\Source\_Common\MoverItem.cpp
; File C:\IAGOS\server\v18\Source\Source\_Common\Item.h
; File C:\IAGOS\server\v18\Source\Source\_Common\Project.h
; File C:\IAGOS\server\v18\Source\Source\_Common\data.h
; File C:\IAGOS\server\v18\Source\Source\_Common\Project.h
; File C:\IAGOS\server\v18\Source\Source\_Common\MoverItem.cpp
; File C:\IAGOS\server\v18\Source\Source\_Common\Item.h
; File C:\IAGOS\server\v18\Source\Source\_Common\Project.h
; File C:\IAGOS\server\v18\Source\Source\_Common\data.h
; File C:\IAGOS\server\v18\Source\Source\_Common\Project.h
; File C:\IAGOS\server\v18\Source\Source\_Common\MoverItem.cpp
; File C:\IAGOS\server\v18\Source\Source\_Common\Item.h
; File C:\IAGOS\server\v18\Source\Source\_Common\MoverItem.cpp
;	COMDAT ?TradeConsent@CVTInfo@@QAEHXZ
_TEXT	SEGMENT
_a$ = -48						; size = 20
tv679 = -28						; size = 4
tv686 = -24						; size = 4
tv691 = -24						; size = 4
_pTrader$1$ = -20					; size = 4
_this$1$ = -16						; size = 4
__$EHRec$ = -12						; size = 12
?TradeConsent@CVTInfo@@QAEHXZ PROC			; CVTInfo::TradeConsent, COMDAT
; _this$ = ecx

; 133  : {

  00000	55		 push	 ebp
  00001	8b ec		 mov	 ebp, esp
  00003	6a ff		 push	 -1
  00005	68 00 00 00 00	 push	 __ehhandler$?TradeConsent@CVTInfo@@QAEHXZ
  0000a	64 a1 00 00 00
	00		 mov	 eax, DWORD PTR fs:0
  00010	50		 push	 eax
  00011	83 ec 24	 sub	 esp, 36			; 00000024H
  00014	53		 push	 ebx
  00015	56		 push	 esi
  00016	57		 push	 edi
  00017	a1 00 00 00 00	 mov	 eax, DWORD PTR ___security_cookie
  0001c	33 c5		 xor	 eax, ebp
  0001e	50		 push	 eax
  0001f	8d 45 f4	 lea	 eax, DWORD PTR __$EHRec$[ebp]
  00022	64 a3 00 00 00
	00		 mov	 DWORD PTR fs:0, eax
  00028	8b f1		 mov	 esi, ecx
  0002a	89 75 f0	 mov	 DWORD PTR _this$1$[ebp], esi

; 134  : 	CMover* pTrader	= GetOther();

  0002d	e8 00 00 00 00	 call	 ?GetOther@CVTInfo@@QAEPAVCMover@@XZ ; CVTInfo::GetOther
  00032	89 45 ec	 mov	 DWORD PTR _pTrader$1$[ebp], eax

; 135  : 	if( pTrader == NULL )

  00035	85 c0		 test	 eax, eax
  00037	75 12		 jne	 SHORT $LN11@TradeConse

; 215  : }

  00039	8b 4d f4	 mov	 ecx, DWORD PTR __$EHRec$[ebp]
  0003c	64 89 0d 00 00
	00 00		 mov	 DWORD PTR fs:0, ecx
  00043	59		 pop	 ecx
  00044	5f		 pop	 edi
  00045	5e		 pop	 esi
  00046	5b		 pop	 ebx
  00047	8b e5		 mov	 esp, ebp
  00049	5d		 pop	 ebp
  0004a	c3		 ret	 0
$LN11@TradeConse:

; 136  : 		return FALSE;
; 137  : 
; 138  : 	int cbI	= 0, cbYou	= 0;
; 139  : 	CItemContainer<CItemElem> a;

  0004b	8d 4d d0	 lea	 ecx, DWORD PTR _a$[ebp]
  0004e	e8 00 00 00 00	 call	 ??0?$CItemContainer@VCItemElem@@@@QAE@XZ ; CItemContainer<CItemElem>::CItemContainer<CItemElem>

; 140  : 	a.SetItemContainer( ITYPE_ITEM, MAX_TRADE );

  00053	6a ff		 push	 -1
  00055	6a 19		 push	 25			; 00000019H
  00057	6a 00		 push	 0
  00059	8d 4d d0	 lea	 ecx, DWORD PTR _a$[ebp]
  0005c	c7 45 fc 00 00
	00 00		 mov	 DWORD PTR __$EHRec$[ebp+8], 0
  00063	e8 00 00 00 00	 call	 ?SetItemContainer@?$CItemContainer@VCItemElem@@@@QAEXKKK@Z ; CItemContainer<CItemElem>::SetItemContainer
  00068	8d 5e 04	 lea	 ebx, DWORD PTR [esi+4]
  0006b	c7 45 e8 19 00
	00 00		 mov	 DWORD PTR tv691[ebp], 25 ; 00000019H
$LL4@TradeConse:

; 144  : 	{
; 145  : 		pItemBase = m_apItem_VT[i];

  00072	8b 3b		 mov	 edi, DWORD PTR [ebx]

; 146  : 		if( !pItemBase )

  00074	85 ff		 test	 edi, edi
  00076	0f 84 92 00 00
	00		 je	 $LN2@TradeConse

; 147  : 			continue;
; 148  : 
; 149  : 		m_apItem_VT[i] = NULL;

  0007c	c7 03 00 00 00
	00		 mov	 DWORD PTR [ebx], 0
; File C:\IAGOS\server\v18\Source\Source\_Common\Item.h

; 230  : 	ItemProp*	GetProp()	{	return prj.GetItemProp( m_dwItemId );	}

  00082	8b 4f 0c	 mov	 ecx, DWORD PTR [edi+12]
; File C:\IAGOS\server\v18\Source\Source\_Common\Project.h

; 1389 : 	VERIFY_RANGE_ASSERT( nIndex, 0, m_aPropItem.GetSize(), "GetItemProp range_error", NULL );

  00085	a1 40 02 00 00	 mov	 eax, DWORD PTR ?prj@@3VCProject@@A+576
  0008a	85 c9		 test	 ecx, ecx
  0008c	78 10		 js	 SHORT $LN29@TradeConse
  0008e	3b c8		 cmp	 ecx, eax
  00090	7d 0c		 jge	 SHORT $LN29@TradeConse
; File C:\IAGOS\server\v18\Source\Source\_Common\data.h

; 270  : 	if( dwIndex >= (DWORD)m_nMaxIndex )

  00092	73 20		 jae	 SHORT $LN79@TradeConse

; 271  : 		return NULL;
; 272  : 	return (T*) m_apOffset[ dwIndex ];

  00094	a1 30 02 00 00	 mov	 eax, DWORD PTR ?prj@@3VCProject@@A+560
  00099	8b 04 88	 mov	 eax, DWORD PTR [eax+ecx*4]
; File C:\IAGOS\server\v18\Source\Source\_Common\Project.h

; 1390 : 	return m_aPropItem.GetAt( nIndex ); 

  0009c	eb 18		 jmp	 SHORT $LN24@TradeConse
$LN29@TradeConse:

; 579  : 	LPCTSTR szErr = Error( _T( "%s min:%d, max:%d, index:%d" ), szMsg, nMin, nMax, nIndex ); 

  0009e	51		 push	 ecx
  0009f	50		 push	 eax
  000a0	6a 00		 push	 0
  000a2	68 00 00 00 00	 push	 OFFSET ??_C@_0BI@BEIFNGEL@GetItemProp?5range_error@
  000a7	68 00 00 00 00	 push	 OFFSET ??_C@_0BM@HMFGHCP@?$CFs?5min?3?$CFd?0?5max?3?$CFd?0?5index?3?$CFd@
  000ac	e8 00 00 00 00	 call	 ?Error@@YAPBDPBDZZ	; Error
  000b1	83 c4 14	 add	 esp, 20			; 00000014H
$LN79@TradeConse:
; File C:\IAGOS\server\v18\Source\Source\_Common\MoverItem.cpp

; 151  : 		if( pItemElem->GetProp()->dwPackMax > 1 )

  000b4	33 c0		 xor	 eax, eax
$LN24@TradeConse:
  000b6	83 78 6c 01	 cmp	 DWORD PTR [eax+108], 1
  000ba	6a 00		 push	 0
  000bc	6a 00		 push	 0
  000be	6a 00		 push	 0
  000c0	57		 push	 edi
  000c1	76 2f		 jbe	 SHORT $LN13@TradeConse

; 152  : 		{
; 153  : 			short nTradeNum = pItemElem->m_nItemNum - (short)pItemBase->GetExtra();

  000c3	0f b7 4f 10	 movzx	 ecx, WORD PTR [edi+16]
  000c7	66 8b 47 74	 mov	 ax, WORD PTR [edi+116]
  000cb	66 2b c1	 sub	 ax, cx

; 154  : 			pItemElem->m_nItemNum = pItemBase->GetExtra();

  000ce	66 89 4f 74	 mov	 WORD PTR [edi+116], cx

; 155  : 			a.Add( pItemElem );

  000d2	8d 4d d0	 lea	 ecx, DWORD PTR _a$[ebp]
  000d5	0f b7 f0	 movzx	 esi, ax
  000d8	e8 00 00 00 00	 call	 ?Add@?$CItemContainer@VCItemElem@@@@QAEHPAVCItemElem@@PAEPAF1@Z ; CItemContainer<CItemElem>::Add

; 156  : 			pItemElem->m_nItemNum = nTradeNum;

  000dd	66 89 77 74	 mov	 WORD PTR [edi+116], si

; 157  : 			pItemElem->SetExtra( 0 );
; 158  : 			if( nTradeNum == 0 )

  000e1	66 85 f6	 test	 si, si
  000e4	8b 75 f0	 mov	 esi, DWORD PTR _this$1$[ebp]
  000e7	c7 47 10 00 00
	00 00		 mov	 DWORD PTR [edi+16], 0
  000ee	75 1e		 jne	 SHORT $LN2@TradeConse

; 159  : 				m_pOwner->m_Inventory.RemoveAtId( pItemBase->m_dwObjId );	// Á¦°Ĺ
; 160  : 		}

  000f0	eb 08		 jmp	 SHORT $LN82@TradeConse
$LN13@TradeConse:

; 161  : 		else
; 162  : 		{
; 163  : 			a.Add( pItemElem );

  000f2	8d 4d d0	 lea	 ecx, DWORD PTR _a$[ebp]
  000f5	e8 00 00 00 00	 call	 ?Add@?$CItemContainer@VCItemElem@@@@QAEHPAVCItemElem@@PAEPAF1@Z ; CItemContainer<CItemElem>::Add
$LN82@TradeConse:

; 141  : 			
; 142  : 	CItemBase* pItemBase;
; 143  : 	for( int i = 0; i < MAX_TRADE; i++ )

  000fa	8b 8e 80 00 00
	00		 mov	 ecx, DWORD PTR [esi+128]
  00100	ff 77 04	 push	 DWORD PTR [edi+4]
  00103	81 c1 fc 0a 00
	00		 add	 ecx, 2812		; 00000afcH
  00109	e8 00 00 00 00	 call	 ?RemoveAtId@?$CItemContainer@VCItemElem@@@@QAEXK@Z ; CItemContainer<CItemElem>::RemoveAtId
$LN2@TradeConse:
  0010e	83 c3 04	 add	 ebx, 4
  00111	83 6d e8 01	 sub	 DWORD PTR tv691[ebp], 1
  00115	0f 85 57 ff ff
	ff		 jne	 $LL4@TradeConse

; 164  : 			m_pOwner->m_Inventory.RemoveAtId( pItemBase->m_dwObjId );
; 165  : 		}
; 166  : 	}
; 167  : 		
; 168  : 	for( int i = 0; i < MAX_TRADE; i++ )

  0011b	8b 4d ec	 mov	 ecx, DWORD PTR _pTrader$1$[ebp]
  0011e	33 db		 xor	 ebx, ebx
  00120	81 c1 98 0c 00
	00		 add	 ecx, 3224		; 00000c98H
  00126	89 4d e8	 mov	 DWORD PTR tv686[ebp], ecx
  00129	eb 08		 jmp	 SHORT $LN7@TradeConse
  0012b	0f 1f 44 00 00	 npad	 5
$LL76@TradeConse:
  00130	8b 75 f0	 mov	 esi, DWORD PTR _this$1$[ebp]
$LN7@TradeConse:

; 169  : 	{
; 170  : 		pItemBase = pTrader->m_vtInfo.GetItem( i );

  00133	8a c3		 mov	 al, bl
  00135	50		 push	 eax
  00136	89 45 e4	 mov	 DWORD PTR tv679[ebp], eax
  00139	e8 00 00 00 00	 call	 ?GetItem@CVTInfo@@QAEPAVCItemBase@@E@Z ; CVTInfo::GetItem
  0013e	8b f8		 mov	 edi, eax

; 171  : 		if( pItemBase == NULL )

  00140	85 ff		 test	 edi, edi
  00142	0f 84 a8 00 00
	00		 je	 $LN5@TradeConse

; 172  : 			continue;
; 173  : 
; 174  : 		pTrader->m_vtInfo.SetItem( i, NULL );

  00148	8b 4d e8	 mov	 ecx, DWORD PTR tv686[ebp]
  0014b	6a 00		 push	 0
  0014d	ff 75 e4	 push	 DWORD PTR tv679[ebp]
  00150	e8 00 00 00 00	 call	 ?SetItem@CVTInfo@@QAEXEPAVCItemBase@@@Z ; CVTInfo::SetItem
; File C:\IAGOS\server\v18\Source\Source\_Common\Item.h

; 230  : 	ItemProp*	GetProp()	{	return prj.GetItemProp( m_dwItemId );	}

  00155	8b 4f 0c	 mov	 ecx, DWORD PTR [edi+12]
; File C:\IAGOS\server\v18\Source\Source\_Common\Project.h

; 1389 : 	VERIFY_RANGE_ASSERT( nIndex, 0, m_aPropItem.GetSize(), "GetItemProp range_error", NULL );

  00158	a1 40 02 00 00	 mov	 eax, DWORD PTR ?prj@@3VCProject@@A+576
  0015d	85 c9		 test	 ecx, ecx
  0015f	78 10		 js	 SHORT $LN43@TradeConse
  00161	3b c8		 cmp	 ecx, eax
  00163	7d 0c		 jge	 SHORT $LN43@TradeConse
; File C:\IAGOS\server\v18\Source\Source\_Common\data.h

; 270  : 	if( dwIndex >= (DWORD)m_nMaxIndex )

  00165	73 20		 jae	 SHORT $LN80@TradeConse

; 271  : 		return NULL;
; 272  : 	return (T*) m_apOffset[ dwIndex ];

  00167	a1 30 02 00 00	 mov	 eax, DWORD PTR ?prj@@3VCProject@@A+560
  0016c	8b 04 88	 mov	 eax, DWORD PTR [eax+ecx*4]
; File C:\IAGOS\server\v18\Source\Source\_Common\Project.h

; 1390 : 	return m_aPropItem.GetAt( nIndex ); 

  0016f	eb 18		 jmp	 SHORT $LN38@TradeConse
$LN43@TradeConse:

; 579  : 	LPCTSTR szErr = Error( _T( "%s min:%d, max:%d, index:%d" ), szMsg, nMin, nMax, nIndex ); 

  00171	51		 push	 ecx
  00172	50		 push	 eax
  00173	6a 00		 push	 0
  00175	68 00 00 00 00	 push	 OFFSET ??_C@_0BI@BEIFNGEL@GetItemProp?5range_error@
  0017a	68 00 00 00 00	 push	 OFFSET ??_C@_0BM@HMFGHCP@?$CFs?5min?3?$CFd?0?5max?3?$CFd?0?5index?3?$CFd@
  0017f	e8 00 00 00 00	 call	 ?Error@@YAPBDPBDZZ	; Error
  00184	83 c4 14	 add	 esp, 20			; 00000014H
$LN80@TradeConse:
; File C:\IAGOS\server\v18\Source\Source\_Common\MoverItem.cpp

; 176  : 		if( pItemElem->GetProp()->dwPackMax > 1 )

  00187	33 c0		 xor	 eax, eax
$LN38@TradeConse:
  00189	83 78 6c 01	 cmp	 DWORD PTR [eax+108], 1
  0018d	6a 00		 push	 0
  0018f	6a 00		 push	 0
  00191	6a 00		 push	 0
  00193	57		 push	 edi
  00194	76 38		 jbe	 SHORT $LN17@TradeConse

; 177  : 		{
; 178  : 			short nTradeNum = pItemElem->m_nItemNum - (short)pItemBase->GetExtra();

  00196	0f b7 4f 10	 movzx	 ecx, WORD PTR [edi+16]
  0019a	66 8b 47 74	 mov	 ax, WORD PTR [edi+116]
  0019e	66 2b c1	 sub	 ax, cx

; 179  : 			pItemElem->m_nItemNum = pItemBase->GetExtra();

  001a1	66 89 4f 74	 mov	 WORD PTR [edi+116], cx

; 180  : 			m_pOwner->m_Inventory.Add( pItemElem );

  001a5	8b 4d f0	 mov	 ecx, DWORD PTR _this$1$[ebp]
  001a8	0f b7 f0	 movzx	 esi, ax
  001ab	8b 89 80 00 00
	00		 mov	 ecx, DWORD PTR [ecx+128]
  001b1	81 c1 fc 0a 00
	00		 add	 ecx, 2812		; 00000afcH
  001b7	e8 00 00 00 00	 call	 ?Add@?$CItemContainer@VCItemElem@@@@QAEHPAVCItemElem@@PAEPAF1@Z ; CItemContainer<CItemElem>::Add

; 181  : 			pItemElem->m_nItemNum = nTradeNum;

  001bc	66 89 77 74	 mov	 WORD PTR [edi+116], si

; 182  : 			pItemElem->SetExtra( 0 );

  001c0	c7 47 10 00 00
	00 00		 mov	 DWORD PTR [edi+16], 0

; 183  : 			if( nTradeNum == 0 )

  001c7	66 85 f6	 test	 si, si
  001ca	75 24		 jne	 SHORT $LN5@TradeConse

; 184  : 				pTrader->m_Inventory.RemoveAtId( pItemBase->m_dwObjId );	// Á¦°Ĺ

  001cc	eb 11		 jmp	 SHORT $LN81@TradeConse
$LN17@TradeConse:

; 185  : 		}
; 186  : 		else
; 187  : 		{
; 188  : 			m_pOwner->m_Inventory.Add( pItemElem );

  001ce	8b 8e 80 00 00
	00		 mov	 ecx, DWORD PTR [esi+128]
  001d4	81 c1 fc 0a 00
	00		 add	 ecx, 2812		; 00000afcH
  001da	e8 00 00 00 00	 call	 ?Add@?$CItemContainer@VCItemElem@@@@QAEHPAVCItemElem@@PAEPAF1@Z ; CItemContainer<CItemElem>::Add
$LN81@TradeConse:

; 164  : 			m_pOwner->m_Inventory.RemoveAtId( pItemBase->m_dwObjId );
; 165  : 		}
; 166  : 	}
; 167  : 		
; 168  : 	for( int i = 0; i < MAX_TRADE; i++ )

  001df	8b 45 ec	 mov	 eax, DWORD PTR _pTrader$1$[ebp]
  001e2	ff 77 04	 push	 DWORD PTR [edi+4]
  001e5	8d 88 fc 0a 00
	00		 lea	 ecx, DWORD PTR [eax+2812]
  001eb	e8 00 00 00 00	 call	 ?RemoveAtId@?$CItemContainer@VCItemElem@@@@QAEXK@Z ; CItemContainer<CItemElem>::RemoveAtId
$LN5@TradeConse:
  001f0	8b 4d e8	 mov	 ecx, DWORD PTR tv686[ebp]
  001f3	43		 inc	 ebx
  001f4	83 fb 19	 cmp	 ebx, 25			; 00000019H
  001f7	0f 8c 33 ff ff
	ff		 jl	 $LL76@TradeConse
; File C:\IAGOS\server\v18\Source\Source\_Common\Item.h

; 430  : 			for( DWORD i = 0; i < m_dwItemMax; i++ )

  001fd	8b 4d dc	 mov	 ecx, DWORD PTR _a$[ebp+12]
  00200	33 ff		 xor	 edi, edi
  00202	85 c9		 test	 ecx, ecx
  00204	74 1f		 je	 SHORT $LN52@TradeConse

; 231  : 	int			GetAttrOption();		// ľĆŔĚĹŰŔÇ +żÉĽÇ°Ş°ú ĽÓĽş/ĽÓĽş·ąş§°ŞŔ» ÇŐĂÄĽ­ ¸®ĹĎ.
; 232  : 	int			GetAbilityOption() { return m_nAbilityOption; }
; 233  : #if __VER >= 15 // __15_5TH_ELEMENTAL_SMELT_SAFETY
; 234  : 	int			GetItemResist( void ) const;
; 235  : 	int			GetResistAbilityOption( void ) const;
; 236  : #endif // __15_5TH_ELEMENTAL_SMELT_SAFETY
; 237  : 	int*		GetAbilityOptionPtr() { return &m_nAbilityOption; }
; 238  : 	void		SetAbilityOption( int nAbilityOption ) { m_nAbilityOption = nAbilityOption; }
; 239  : 	int			GetGold();
; 240  : 
; 241  : //	PIERCINGINFO	m_piercingInfo;
; 242  : 	void	GetPiercingAvail( PPIERCINGAVAIL pPiercingAvail/*input, output*/ );
; 243  : 	BOOL	m_bCharged;			// »óżëČ­ ľĆŔĚĹŰŔÎÁö Č®ŔÎ
; 244  : 	DWORD	m_dwKeepTime;		// ÁöĽÓ˝Ă°Ł
; 245  : 
; 246  : 	BOOL	IsExpiring( void )
; 247  : 		{	
; 248  : 			if( m_dwKeepTime )
; 249  : 			{
; 250  : 				if( time_null() > (time_t)m_dwKeepTime )
; 251  : 					return TRUE;
; 252  : 			}
; 253  : 			return FALSE;
; 254  : 		}
; 255  : 	void	ResetFlag( BYTE byFlag )	{	m_byFlag	&= ~byFlag;		}
; 256  : 	void	SetFlag( BYTE byFlag )		{	m_byFlag	|= byFlag;		}
; 257  : 	BOOL	IsFlag( BYTE byFlag )	{	return ( m_byFlag & byFlag ) ? TRUE: FALSE;		}
; 258  : 	BOOL	IsBinds();
; 259  : 	BOOL	IsUndestructable( void );
; 260  : 	BOOL	IsCharged();
; 261  : 	BOOL	IsLogable();
; 262  : 
; 263  : 	static BOOL	IsDiceRefineryAble( ItemProp* pProp );
; 264  : 	static BOOL	IsEleRefineryAble( ItemProp* pProp );
; 265  : #if __VER >= 15 // __15_5TH_ELEMENTAL_SMELT_SAFETY
; 266  : 	static BOOL	IsElementalCard( const DWORD dwItemID );
; 267  : #endif // __15_5TH_ELEMENTAL_SMELT_SAFETY
; 268  : 	
; 269  : //	Operations
; 270  : 	void		UseItem();
; 271  : 	virtual	CItemElem&	operator = ( CItemElem & ie );
; 272  : 	virtual	void		Serialize( CAr & ar );
; 273  : 
; 274  : #if __VER >= 15 // __PETVIS
; 275  : 	BOOL	IsVisPet()	{ return ( GetProp() && GetProp()->IsVisPet() ) || IsTransformVisPet() ; }
; 276  : 	void	SetSwapVisItem( int nPos1, int nPos2 );
; 277  : 	void	SetVisKeepTimeSize( int nSize )				{ m_piercing.SetVisKeepTimeSize( nSize ); }
; 278  : 	void	SetVisKeepTime( int nth, time_t tmKeep )	{ m_piercing.SetVisKeepTime( nth, tmKeep ); }
; 279  : 	time_t	GetVisKeepTime( int nth )					{ return m_piercing.GetVisKeepTime( nth ); }
; 280  : 	DWORD	GetVisPetSfxId();
; 281  : 	BOOL	IsTransformVisPet() { return GetProp() && GetProp()->dwItemKind3 == IK3_PET && m_bTranformVisPet; }
; 282  : 
; 283  : 	BOOL	m_bTranformVisPet;
; 284  : #endif // __PETVIS
; 285  : };
; 286  : 
; 287  : inline int CItemElem::GetAttrOption()		// ľĆŔĚĹŰŔÇ +żÉĽÇ°Ş°ú ĽÓĽş/ĽÓĽş·ąş§°ŞŔ» ÇŐĂÄĽ­ ¸®ĹĎ.
; 288  : {
; 289  : 	int nAttr = (int)m_bItemResist;
; 290  : 	int nOption = m_nResistAbilityOption;
; 291  : 	int nRet = m_nAbilityOption;
; 292  : 	
; 293  : 	nRet |= (nAttr << 16);		// D16~D23 : ĽÓĽş
; 294  : 	nRet |= (nOption << 24);	// D24~D31 : ĽÓĽş·ąş§
; 295  : 	return nRet;
; 296  : }
; 297  : 
; 298  : #if __VER >= 15 // __15_5TH_ELEMENTAL_SMELT_SAFETY
; 299  : inline int CItemElem::GetItemResist( void ) const
; 300  : {
; 301  : 	return m_bItemResist;
; 302  : }
; 303  : 
; 304  : inline int CItemElem::GetResistAbilityOption( void ) const
; 305  : {
; 306  : 	return m_nResistAbilityOption;
; 307  : }
; 308  : #endif // __15_5TH_ELEMENTAL_SMELT_SAFETY
; 309  : 
; 310  : typedef struct tagSkill
; 311  : {
; 312  : 	DWORD dwSkill;
; 313  : 	DWORD dwLevel;
; 314  : 	ItemProp* GetProp()	{ return prj.GetSkillProp( dwSkill ); }
; 315  : 	
; 316  : } SKILL,* LPSKILL;
; 317  : 
; 318  : /*
; 319  : #ifdef __XPET2
; 320  : class CPetElem : public CItemBase
; 321  : {
; 322  : 	int m_nMaxLevel;	// Ľö¸í
; 323  : 	int m_nLevel;		// ·ąş§(łŞŔĚ)
; 324  : 	int m_dwHungry;		// ąč°íÇÂÁ¤µµ -10 ~ 10		-10ŔĚÇĎ´Â Á¸ł»ąč°íÇÄ / -10 ~ -5 ąč°íÇÄ / -5 ~ 5 ş¸Ĺë / 5ŔĚ»ó ąčşÎ¸§
; 325  : 	int m_dwFeeling;	// ±âşĐ. -10 ~ 10			
; 326  : 
; 327  : 	void Init();
; 328  : 	void Destroy();
; 329  : public:
; 330  : 	CPetElem();
; 331  : 	~CPetElem();
; 332  : 	ItemProp* GetProp()	{	return prj.GetItemProp( m_dwItemId );	}
; 333  : 	virtual	CPetElem&	operator = ( CPetElem & pe );
; 334  : 	virtual void	Serialize( CAr & ar );
; 335  : };
; 336  : #endif // xPet2
; 337  : */
; 338  : 
; 339  : //////////////////////////////////////////////////////////////////////
; 340  : // ŔĚ°ÍŔş ľĆŔĚĹŰ ÇĎłŞÇĎłŞŔÇ żäĽŇ¸¦ ąčż­·Î ¸¸µéľî Ăß°ˇ, »čÁ¦ µîŔÇ 
; 341  : // ĆíÁýŔĚ °ˇ´ÉÇŃ ÄÁĹ×ŔĚłĘ Ĺ¬·ˇ˝ş´Ů.
; 342  : //////////////////////////////////////////////////////////////////////
; 343  : template <class T> class CItemContainer  
; 344  : {
; 345  : public:
; 346  : 	LPDWORD    m_apIndex;
; 347  : 	DWORD      m_dwIndexNum; // equpŔ» Á¦żÜÇŃ ĽřĽö ÄÜĹ×ŔĚłĘ »çŔĚÁî 
; 348  : 	DWORD      m_dwItemMax;  // equpŔ» Ć÷ÇÔÇŃ ŔüĂĽ »çŔĚÁî 
; 349  : 	T*         m_apItem;
; 350  : 
; 351  : 	void SetItemContainer( DWORD dwItemType, DWORD dwItemMax, DWORD dwExtra = NULL_ID );
; 352  : 	CItemContainer();
; 353  : //	CItemContainer( DWORD dwItemType, DWORD dwItemMax, DWORD dwExtra = NULL_ID );
; 354  : 	virtual ~CItemContainer();
; 355  : 
; 356  : 	void Clear();
; 357  : 
; 358  : 	T* GetAt( DWORD dwIndex );
; 359  : #ifdef __CLIENT
; 360  : 	void SetAt( DWORD dwIndex, DWORD dwItemId );
; 361  : 	void SetAt( DWORD dwIndex, T* pItemElem );
; 362  : 	void InsertAt( DWORD dwIndex, DWORD dwItemId );
; 363  : 	void InsertAt( DWORD dwIndex, T* pItemElem );
; 364  : 	void RemoveAt( DWORD dwIndex );
; 365  : #if __VER >= 8	// __JEFF_VER_8
; 366  : 	DWORD	Find( DWORD dwItemId )
; 367  : 		{
; 368  : 			if( dwItemId == 0 )
; 369  : 				return NULL_ID;
; 370  : 			for( int i = 0; i < (int)( m_dwIndexNum ); i++ )
; 371  : 			{
; 372  : 				DWORD nId	= m_apIndex[i];
; 373  : 				if( nId < 0 || nId >= m_dwItemMax )
; 374  : 					continue;
; 375  : 				if( m_apItem[nId].m_dwItemId == dwItemId )
; 376  : 					return nId;
; 377  : 			}
; 378  : 			return NULL_ID;
; 379  : 		}
; 380  : 	DWORD	GetItemCount( DWORD dwItemId )
; 381  : 		{
; 382  : 			if( dwItemId == 0 )
; 383  : 				return 0;
; 384  : 			int nCount	= 0;
; 385  : 			for( int i = 0; i < (int)( m_dwItemMax ); i++ )
; 386  : 			{
; 387  : 				CItemElem* pItemElem	= (CItemElem*)&m_apItem[i];
; 388  : 				if( pItemElem->m_dwItemId == dwItemId )
; 389  : 					nCount	+= pItemElem->m_nItemNum;
; 390  : 			}
; 391  : 			return( nCount );
; 392  : 		}
; 393  : #endif	// __JEFF_VER_8
; 394  : #endif	// __CLIENT
; 395  : 
; 396  : 	// Equip °ü·Ă 
; 397  : 	BOOL DoEquip( DWORD dwSrcIndex, DWORD dwDstIndex );
; 398  : 	BOOL UnEquip( DWORD dwIndex );
; 399  : 	BOOL IsEquip( DWORD dwObjId );
; 400  : 	T* GetEquip( DWORD dwIndex );
; 401  : 
; 402  : 	void	Swap( DWORD dwSrcIndex, DWORD dwDstIndex );
; 403  : 	BOOL	Add( T* pElem, BYTE* pnId = NULL, short* pnNum = NULL, BYTE* pnCount = NULL );
; 404  : 	BOOL	IsFull( T* pElem, ItemProp* pItemProp, short nNum );
; 405  : 	void	SetAtId( OBJID dwObjId, T* pItemElem );
; 406  : 
; 407  : 	T*	GetAtId( OBJID dwObjId );
; 408  : 	T* GetAtItemId( DWORD dwItemId );
; 409  : 	int		GetAtItemNum( DWORD dwItemId );
; 410  : 	void	RemoveAtId( OBJID dwObjId );
; 411  : 
; 412  : 	int		GetSize() { return int( m_dwIndexNum ); }
; 413  : 	int		GetMax() { return int( m_dwItemMax ); }
; 414  : 	void	Copy( CItemContainer<T> & rItemContainer );
; 415  : 	void	Serialize( CAr & ar );
; 416  : 
; 417  : 	int		GetEmptyCount()
; 418  : 		{
; 419  : 			int nCount	= 0;
; 420  : 			for( DWORD i = 0; i < m_dwItemMax; i++ )
; 421  : 			{
; 422  : 				if( m_apItem[i].IsEmpty() && m_apItem[i].m_dwObjIndex < m_dwIndexNum )
; 423  : 					nCount++;
; 424  : 			}
; 425  : 			return( nCount );
; 426  : 		}
; 427  : 	int		GetCount()
; 428  : 		{
; 429  : 			int nCount	= 0;

  00206	8b 45 e0	 mov	 eax, DWORD PTR _a$[ebp+16]
  00209	8b 55 d8	 mov	 edx, DWORD PTR _a$[ebp+8]
  0020c	83 c0 08	 add	 eax, 8
  0020f	90		 npad	 1
$LL53@TradeConse:

; 50   : 	BOOL			IsEmpty() { return m_dwItemId ? FALSE : TRUE; }

  00210	83 78 04 00	 cmp	 DWORD PTR [eax+4], 0

; 432  : 				if( m_apItem[i].IsEmpty() == FALSE && m_apItem[i].m_dwObjIndex < m_dwIndexNum )

  00214	74 05		 je	 SHORT $LN51@TradeConse
  00216	39 10		 cmp	 DWORD PTR [eax], edx
  00218	73 01		 jae	 SHORT $LN51@TradeConse

; 433  : 					nCount++;

  0021a	47		 inc	 edi
$LN51@TradeConse:

; 430  : 			for( DWORD i = 0; i < m_dwItemMax; i++ )

  0021b	05 b0 00 00 00	 add	 eax, 176		; 000000b0H
  00220	83 e9 01	 sub	 ecx, 1
  00223	75 eb		 jne	 SHORT $LL53@TradeConse
$LN52@TradeConse:
; File C:\IAGOS\server\v18\Source\Source\_Common\MoverItem.cpp

; 193  : 	cbI		= a.GetCount();

  00225	33 f6		 xor	 esi, esi

; 194  : 	for( int i = 0; i < cbI; i++ )

  00227	85 ff		 test	 edi, edi
  00229	7e 25		 jle	 SHORT $LN9@TradeConse
  0022b	8b 5d ec	 mov	 ebx, DWORD PTR _pTrader$1$[ebp]
  0022e	66 90		 npad	 2
$LL10@TradeConse:

; 195  : 	{
; 196  : 		pItemBase	= a.GetAtId( i );
; 197  : 		pTrader->m_Inventory.Add( (CItemElem*)pItemBase );

  00230	6a 00		 push	 0
  00232	6a 00		 push	 0
  00234	6a 00		 push	 0
  00236	56		 push	 esi
  00237	8d 4d d0	 lea	 ecx, DWORD PTR _a$[ebp]
  0023a	e8 00 00 00 00	 call	 ?GetAtId@?$CItemContainer@VCItemElem@@@@QAEPAVCItemElem@@K@Z ; CItemContainer<CItemElem>::GetAtId
  0023f	50		 push	 eax
  00240	8d 8b fc 0a 00
	00		 lea	 ecx, DWORD PTR [ebx+2812]
  00246	e8 00 00 00 00	 call	 ?Add@?$CItemContainer@VCItemElem@@@@QAEHPAVCItemElem@@PAEPAF1@Z ; CItemContainer<CItemElem>::Add
  0024b	46		 inc	 esi
  0024c	3b f7		 cmp	 esi, edi
  0024e	7c e0		 jl	 SHORT $LL10@TradeConse
$LN9@TradeConse:

; 198  : 	}
; 199  : 	
; 200  : 	// step1. ÁŮµ·°ú »¬µ·Ŕ» ±¸ÇŘµĐ´Ů.
; 201  : 	int nThisGold = pTrader->m_vtInfo.TradeGetGold();

  00250	8b 75 ec	 mov	 esi, DWORD PTR _pTrader$1$[ebp]
  00253	81 c6 98 0c 00
	00		 add	 esi, 3224		; 00000c98H
  00259	8b ce		 mov	 ecx, esi
  0025b	e8 00 00 00 00	 call	 ?TradeGetGold@CVTInfo@@QAEHXZ ; CVTInfo::TradeGetGold

; 202  : 	int nTraderGold = TradeGetGold();

  00260	8b 4d f0	 mov	 ecx, DWORD PTR _this$1$[ebp]
  00263	8b f8		 mov	 edi, eax
  00265	e8 00 00 00 00	 call	 ?TradeGetGold@CVTInfo@@QAEHXZ ; CVTInfo::TradeGetGold

; 203  : 
; 204  : 	// step2. m_dwTradeGold¸¦ clear
; 205  : 	TradeSetGold( 0 );						// żřşą ľČµÇ°Ô 

  0026a	8b 4d f0	 mov	 ecx, DWORD PTR _this$1$[ebp]
  0026d	8b d8		 mov	 ebx, eax
  0026f	6a 00		 push	 0
  00271	e8 00 00 00 00	 call	 ?TradeSetGold@CVTInfo@@QAEXK@Z ; CVTInfo::TradeSetGold

; 206  : 	TradeClear();

  00276	8b 4d f0	 mov	 ecx, DWORD PTR _this$1$[ebp]
  00279	e8 00 00 00 00	 call	 ?TradeClear@CVTInfo@@QAEXXZ ; CVTInfo::TradeClear

; 207  : 	pTrader->m_vtInfo.TradeSetGold( 0 );	// żřşą ľČµÇ°Ô 

  0027e	6a 00		 push	 0
  00280	8b ce		 mov	 ecx, esi
  00282	e8 00 00 00 00	 call	 ?TradeSetGold@CVTInfo@@QAEXK@Z ; CVTInfo::TradeSetGold

; 208  : 	pTrader->m_vtInfo.TradeClear();

  00287	8b ce		 mov	 ecx, esi
  00289	e8 00 00 00 00	 call	 ?TradeClear@CVTInfo@@QAEXXZ ; CVTInfo::TradeClear

; 209  : 
; 210  : 	// step3. µ·Ŕ» ´őÇŃ´Ů.
; 211  : 	m_pOwner->AddGold( nThisGold, FALSE );						

  0028e	8b 45 f0	 mov	 eax, DWORD PTR _this$1$[ebp]
  00291	6a 00		 push	 0
  00293	57		 push	 edi
  00294	8b 88 80 00 00
	00		 mov	 ecx, DWORD PTR [eax+128]
  0029a	e8 00 00 00 00	 call	 ?AddGold@CMover@@QAEHHH@Z ; CMover::AddGold

; 212  : 	pTrader->AddGold( nTraderGold, FALSE );

  0029f	8b 4d ec	 mov	 ecx, DWORD PTR _pTrader$1$[ebp]
  002a2	6a 00		 push	 0
  002a4	53		 push	 ebx
  002a5	e8 00 00 00 00	 call	 ?AddGold@CMover@@QAEHHH@Z ; CMover::AddGold

; 213  : 
; 214  : 	return TRUE;

  002aa	8d 4d d0	 lea	 ecx, DWORD PTR _a$[ebp]
  002ad	e8 00 00 00 00	 call	 ??1?$CItemContainer@VCItemElem@@@@UAE@XZ ; CItemContainer<CItemElem>::~CItemContainer<CItemElem>
  002b2	b8 01 00 00 00	 mov	 eax, 1

; 215  : }

  002b7	8b 4d f4	 mov	 ecx, DWORD PTR __$EHRec$[ebp]
  002ba	64 89 0d 00 00
	00 00		 mov	 DWORD PTR fs:0, ecx
  002c1	59		 pop	 ecx
  002c2	5f		 pop	 edi
  002c3	5e		 pop	 esi
  002c4	5b		 pop	 ebx
  002c5	8b e5		 mov	 esp, ebp
  002c7	5d		 pop	 ebp
  002c8	c3		 ret	 0
_TEXT	ENDS
;	COMDAT text$x
text$x	SEGMENT
__unwindfunclet$?TradeConsent@CVTInfo@@QAEHXZ$0:
  00000	8d 4d d0	 lea	 ecx, DWORD PTR _a$[ebp]
  00003	e9 00 00 00 00	 jmp	 ??1?$CItemContainer@VCItemElem@@@@UAE@XZ ; CItemContainer<CItemElem>::~CItemContainer<CItemElem>
  00008	cc		 int	 3
  00009	cc		 int	 3
  0000a	cc		 int	 3
  0000b	cc		 int	 3
  0000c	cc		 int	 3
__ehhandler$?TradeConsent@CVTInfo@@QAEHXZ:
  0000d	90		 npad	 1
  0000e	90		 npad	 1
  0000f	8b 54 24 08	 mov	 edx, DWORD PTR [esp+8]
  00013	8d 42 0c	 lea	 eax, DWORD PTR [edx+12]
  00016	8b 4a cc	 mov	 ecx, DWORD PTR [edx-52]
  00019	33 c8		 xor	 ecx, eax
  0001b	e8 00 00 00 00	 call	 @__security_check_cookie@4
  00020	b8 00 00 00 00	 mov	 eax, OFFSET __ehfuncinfo$?TradeConsent@CVTInfo@@QAEHXZ
  00025	e9 00 00 00 00	 jmp	 ___CxxFrameHandler3
text$x	ENDS
?TradeConsent@CVTInfo@@QAEHXZ ENDP			; CVTInfo::TradeConsent
; Function compile flags: /Ogtp
; File C:\IAGOS\server\v18\Source\Source\_Common\MoverItem.cpp
;	COMDAT ?TradeGetGold@CVTInfo@@QAEHXZ
_TEXT	SEGMENT
?TradeGetGold@CVTInfo@@QAEHXZ PROC			; CVTInfo::TradeGetGold, COMDAT
; _this$ = ecx

; 104  : 	return m_dwTradeGold;

  00000	8b 01		 mov	 eax, DWORD PTR [ecx]

; 105  : }

  00002	c3		 ret	 0
?TradeGetGold@CVTInfo@@QAEHXZ ENDP			; CVTInfo::TradeGetGold
_TEXT	ENDS
; Function compile flags: /Ogtp
; File C:\IAGOS\server\v18\Source\Source\_Common\MoverItem.cpp
;	COMDAT ?TradeSetGold@CVTInfo@@QAEXK@Z
_TEXT	SEGMENT
_dwGold$ = 8						; size = 4
?TradeSetGold@CVTInfo@@QAEXK@Z PROC			; CVTInfo::TradeSetGold, COMDAT
; _this$ = ecx

; 98   : {

  00000	55		 push	 ebp
  00001	8b ec		 mov	 ebp, esp

; 99   : 	m_dwTradeGold = dwGold;

  00003	8b 45 08	 mov	 eax, DWORD PTR _dwGold$[ebp]
  00006	89 01		 mov	 DWORD PTR [ecx], eax

; 100  : }

  00008	5d		 pop	 ebp
  00009	c2 04 00	 ret	 4
?TradeSetGold@CVTInfo@@QAEXK@Z ENDP			; CVTInfo::TradeSetGold
_TEXT	ENDS
; Function compile flags: /Ogtp
; File C:\IAGOS\server\v18\Source\Source\_Common\MoverItem.cpp
;	COMDAT ?TradeClearItem@CVTInfo@@QAEHE@Z
_TEXT	SEGMENT
_i$ = 8							; size = 1
?TradeClearItem@CVTInfo@@QAEHE@Z PROC			; CVTInfo::TradeClearItem, COMDAT
; _this$ = ecx

; 118  : {

  00000	55		 push	 ebp
  00001	8b ec		 mov	 ebp, esp

; 119  : 	CItemBase* pItemBase = m_apItem_VT[i];

  00003	0f b6 45 08	 movzx	 eax, BYTE PTR _i$[ebp]
  00007	56		 push	 esi
  00008	8d 34 81	 lea	 esi, DWORD PTR [ecx+eax*4]
  0000b	57		 push	 edi
  0000c	8b 7e 04	 mov	 edi, DWORD PTR [esi+4]

; 120  : 	if( IsUsingItem( pItemBase ) )

  0000f	57		 push	 edi
  00010	e8 00 00 00 00	 call	 ?IsUsingItem@@YAHPAVCItemBase@@@Z ; IsUsingItem
  00015	83 c4 04	 add	 esp, 4
  00018	85 c0		 test	 eax, eax
  0001a	74 19		 je	 SHORT $LN2@TradeClear

; 121  : 	{
; 122  : 		pItemBase->SetExtra( 0 );		// clear - using flag 

  0001c	c7 47 10 00 00
	00 00		 mov	 DWORD PTR [edi+16], 0

; 123  : 		m_apItem_VT[i] = NULL;
; 124  : 
; 125  : 		return TRUE;

  00023	b8 01 00 00 00	 mov	 eax, 1
  00028	5f		 pop	 edi
  00029	c7 46 04 00 00
	00 00		 mov	 DWORD PTR [esi+4], 0

; 129  : }

  00030	5e		 pop	 esi
  00031	5d		 pop	 ebp
  00032	c2 04 00	 ret	 4
$LN2@TradeClear:
  00035	5f		 pop	 edi

; 126  : 	}
; 127  : 	else
; 128  : 		return FALSE;

  00036	33 c0		 xor	 eax, eax

; 129  : }

  00038	5e		 pop	 esi
  00039	5d		 pop	 ebp
  0003a	c2 04 00	 ret	 4
?TradeClearItem@CVTInfo@@QAEHE@Z ENDP			; CVTInfo::TradeClearItem
_TEXT	ENDS
; Function compile flags: /Ogtp
; File C:\IAGOS\server\v18\Source\Source\_Common\MoverItem.cpp
;	COMDAT ?TradeSetItem@CVTInfo@@QAEXEEF@Z
_TEXT	SEGMENT
_nId$ = 8						; size = 1
_i$ = 12						; size = 1
_nItemNum$ = 16						; size = 2
?TradeSetItem@CVTInfo@@QAEXEEF@Z PROC			; CVTInfo::TradeSetItem, COMDAT
; _this$ = ecx

; 108  : {

  00000	55		 push	 ebp
  00001	8b ec		 mov	 ebp, esp

; 109  : 	CItemBase* pItemBase = m_pOwner->GetItemId( nId );

  00003	0f b6 45 08	 movzx	 eax, BYTE PTR _nId$[ebp]
  00007	56		 push	 esi
  00008	8b f1		 mov	 esi, ecx
  0000a	50		 push	 eax
  0000b	8b 8e 80 00 00
	00		 mov	 ecx, DWORD PTR [esi+128]
  00011	e8 00 00 00 00	 call	 ?GetItemId@CMover@@QAEPAVCItemBase@@K@Z ; CMover::GetItemId

; 110  : 	if( pItemBase )

  00016	85 c0		 test	 eax, eax
  00018	74 0f		 je	 SHORT $LN2@TradeSetIt

; 111  : 	{
; 112  : 		m_apItem_VT[i] = pItemBase;

  0001a	0f b6 4d 0c	 movzx	 ecx, BYTE PTR _i$[ebp]
  0001e	89 44 8e 04	 mov	 DWORD PTR [esi+ecx*4+4], eax

; 113  : 		pItemBase->SetExtra( nItemNum );

  00022	0f bf 4d 10	 movsx	 ecx, WORD PTR _nItemNum$[ebp]
  00026	89 48 10	 mov	 DWORD PTR [eax+16], ecx
$LN2@TradeSetIt:
  00029	5e		 pop	 esi

; 114  : 	}
; 115  : }

  0002a	5d		 pop	 ebp
  0002b	c2 0c 00	 ret	 12			; 0000000cH
?TradeSetItem@CVTInfo@@QAEXEEF@Z ENDP			; CVTInfo::TradeSetItem
_TEXT	ENDS
; Function compile flags: /Ogtp
; File C:\IAGOS\server\v18\Source\Source\_Common\MoverItem.cpp
;	COMDAT ?TradeClear@CVTInfo@@QAEXXZ
_TEXT	SEGMENT
?TradeClear@CVTInfo@@QAEXXZ PROC			; CVTInfo::TradeClear, COMDAT
; _this$ = ecx

; 75   : {

  00000	56		 push	 esi

; 76   : 	SetOther( NULL );

  00001	6a 00		 push	 0
  00003	8b f1		 mov	 esi, ecx
  00005	e8 00 00 00 00	 call	 ?SetOther@CVTInfo@@QAEXPAVCMover@@@Z ; CVTInfo::SetOther
  0000a	8d 46 04	 lea	 eax, DWORD PTR [esi+4]
  0000d	ba 19 00 00 00	 mov	 edx, 25			; 00000019H
$LL4@TradeClear:

; 78   : 	{
; 79   : 		if( m_apItem_VT[i] )

  00012	8b 08		 mov	 ecx, DWORD PTR [eax]
  00014	85 c9		 test	 ecx, ecx
  00016	74 0d		 je	 SHORT $LN2@TradeClear

; 80   : 		{
; 81   : 			m_apItem_VT[i]->SetExtra( 0 );

  00018	c7 41 10 00 00
	00 00		 mov	 DWORD PTR [ecx+16], 0

; 82   : 			m_apItem_VT[i] = NULL;

  0001f	c7 00 00 00 00
	00		 mov	 DWORD PTR [eax], 0
$LN2@TradeClear:

; 77   : 	for( int i = 0; i < MAX_TRADE; i++ )

  00025	83 c0 04	 add	 eax, 4
  00028	83 ea 01	 sub	 edx, 1
  0002b	75 e5		 jne	 SHORT $LL4@TradeClear

; 83   : 		}
; 84   : 	}
; 85   : #ifdef __WORLDSERVER	
; 86   : 	// raiders.2006.11.28	ŔÎşĄµ· = ŔÎşĄµ· + ł» °Ĺ·ˇĂ˘ µ·
; 87   : 	int nGold = TradeGetGold();

  0002d	8b ce		 mov	 ecx, esi
  0002f	e8 00 00 00 00	 call	 ?TradeGetGold@CVTInfo@@QAEHXZ ; CVTInfo::TradeGetGold

; 88   : 	if( nGold > 0 && m_pOwner )

  00034	85 c0		 test	 eax, eax
  00036	7e 12		 jle	 SHORT $LN6@TradeClear
  00038	8b 8e 80 00 00
	00		 mov	 ecx, DWORD PTR [esi+128]
  0003e	85 c9		 test	 ecx, ecx
  00040	74 08		 je	 SHORT $LN6@TradeClear

; 89   : 		m_pOwner->AddGold( nGold );

  00042	6a 01		 push	 1
  00044	50		 push	 eax
  00045	e8 00 00 00 00	 call	 ?AddGold@CMover@@QAEHHH@Z ; CMover::AddGold
$LN6@TradeClear:

; 90   : 	//
; 91   : #endif
; 92   : 
; 93   : 	TradeSetGold( 0 );

  0004a	6a 00		 push	 0
  0004c	8b ce		 mov	 ecx, esi
  0004e	e8 00 00 00 00	 call	 ?TradeSetGold@CVTInfo@@QAEXK@Z ; CVTInfo::TradeSetGold

; 94   : 	TradeSetState( TRADE_STEP_ITEM );

  00053	6a 00		 push	 0
  00055	8b ce		 mov	 ecx, esi
  00057	e8 00 00 00 00	 call	 ?TradeSetState@CVTInfo@@QAEXW4TRADE_STATE@@@Z ; CVTInfo::TradeSetState
  0005c	5e		 pop	 esi

; 95   : }

  0005d	c3		 ret	 0
?TradeClear@CVTInfo@@QAEXXZ ENDP			; CVTInfo::TradeClear
_TEXT	ENDS
; Function compile flags: /Ogtp
; File C:\IAGOS\server\v18\Source\Source\_Common\MoverItem.cpp
; File C:\Program Files\Microsoft Visual Studio\2022\Professional\VC\Tools\MSVC\14.44.35207\include\xstring
; File C:\IAGOS\server\v18\Source\Source\_Common\MoverItem.cpp
;	COMDAT ?IsVendorOpen@CVTInfo@@QAEHXZ
_TEXT	SEGMENT
?IsVendorOpen@CVTInfo@@QAEHXZ PROC			; CVTInfo::IsVendorOpen, COMDAT
; _this$ = ecx

; 59   : 	return (m_strTitle.empty() != true);

  00000	33 c0		 xor	 eax, eax
; File C:\Program Files\Microsoft Visual Studio\2022\Professional\VC\Tools\MSVC\14.44.35207\include\xstring

; 2494 :         return _Mypair._Myval2._Mysize == 0;

  00002	39 81 98 00 00
	00		 cmp	 DWORD PTR [ecx+152], eax
; File C:\IAGOS\server\v18\Source\Source\_Common\MoverItem.cpp

; 59   : 	return (m_strTitle.empty() != true);

  00008	0f 95 c0	 setne	 al

; 60   : }

  0000b	c3		 ret	 0
?IsVendorOpen@CVTInfo@@QAEHXZ ENDP			; CVTInfo::IsVendorOpen
_TEXT	ENDS
; Function compile flags: /Ogtp
; File C:\IAGOS\server\v18\Source\Source\_Common\MoverItem.cpp
;	COMDAT ?SetTitle@CVTInfo@@QAEXPBD@Z
_TEXT	SEGMENT
_szTitle$ = 8						; size = 4
?SetTitle@CVTInfo@@QAEXPBD@Z PROC			; CVTInfo::SetTitle, COMDAT
; _this$ = ecx

; 53   : {

  00000	55		 push	 ebp
  00001	8b ec		 mov	 ebp, esp

; 54   : 	m_strTitle = szTitle;

  00003	81 c1 88 00 00
	00		 add	 ecx, 136		; 00000088H

; 55   : }

  00009	5d		 pop	 ebp

; 54   : 	m_strTitle = szTitle;

  0000a	e9 00 00 00 00	 jmp	 ??4?$basic_string@DU?$char_traits@D@std@@V?$allocator@D@2@@std@@QAEAAV01@QBD@Z ; std::basic_string<char,std::char_traits<char>,std::allocator<char> >::operator=
?SetTitle@CVTInfo@@QAEXPBD@Z ENDP			; CVTInfo::SetTitle
_TEXT	ENDS
; Function compile flags: /Ogtp
; File C:\IAGOS\server\v18\Source\Source\_Common\MoverItem.cpp
; File C:\Program Files\Microsoft Visual Studio\2022\Professional\VC\Tools\MSVC\14.44.35207\include\xstring
; File C:\IAGOS\server\v18\Source\Source\_Common\MoverItem.cpp
;	COMDAT ?GetTitle@CVTInfo@@QAEPBDXZ
_TEXT	SEGMENT
?GetTitle@CVTInfo@@QAEPBDXZ PROC			; CVTInfo::GetTitle, COMDAT
; _this$ = ecx
; File C:\Program Files\Microsoft Visual Studio\2022\Professional\VC\Tools\MSVC\14.44.35207\include\xstring

; 453  :         return _Myres > _Small_string_capacity;

  00000	83 b9 9c 00 00
	00 0f		 cmp	 DWORD PTR [ecx+156], 15	; 0000000fH

; 2356 :         return _Mypair._Myval2._Myptr();

  00007	8d 81 88 00 00
	00		 lea	 eax, DWORD PTR [ecx+136]

; 445  :         if (_Large_mode_engaged()) {

  0000d	76 02		 jbe	 SHORT $LN7@GetTitle
; File C:\IAGOS\server\v18\Source\Source\_Common\MoverItem.cpp

; 49   : 	return m_strTitle.c_str();

  0000f	8b 00		 mov	 eax, DWORD PTR [eax]
$LN7@GetTitle:

; 50   : }

  00011	c3		 ret	 0
?GetTitle@CVTInfo@@QAEPBDXZ ENDP			; CVTInfo::GetTitle
_TEXT	ENDS
; Function compile flags: /Ogtp
; File C:\IAGOS\server\v18\Source\Source\_Common\MoverItem.cpp
;	COMDAT ?SetItem@CVTInfo@@QAEXEPAVCItemBase@@@Z
_TEXT	SEGMENT
_i$ = 8							; size = 1
_pItemBase$ = 12					; size = 4
?SetItem@CVTInfo@@QAEXEPAVCItemBase@@@Z PROC		; CVTInfo::SetItem, COMDAT
; _this$ = ecx

; 43   : {

  00000	55		 push	 ebp
  00001	8b ec		 mov	 ebp, esp

; 44   : 	m_apItem_VT[i] = pItemBase;

  00003	0f b6 55 08	 movzx	 edx, BYTE PTR _i$[ebp]
  00007	8b 45 0c	 mov	 eax, DWORD PTR _pItemBase$[ebp]
  0000a	89 44 91 04	 mov	 DWORD PTR [ecx+edx*4+4], eax

; 45   : }

  0000e	5d		 pop	 ebp
  0000f	c2 08 00	 ret	 8
?SetItem@CVTInfo@@QAEXEPAVCItemBase@@@Z ENDP		; CVTInfo::SetItem
_TEXT	ENDS
; Function compile flags: /Ogtp
; File C:\IAGOS\server\v18\Source\Source\_Common\MoverItem.cpp
;	COMDAT ?GetItem@CVTInfo@@QAEPAVCItemBase@@E@Z
_TEXT	SEGMENT
_i$ = 8							; size = 1
?GetItem@CVTInfo@@QAEPAVCItemBase@@E@Z PROC		; CVTInfo::GetItem, COMDAT
; _this$ = ecx

; 38   : {

  00000	55		 push	 ebp
  00001	8b ec		 mov	 ebp, esp

; 39   : 	return m_apItem_VT[i];

  00003	0f b6 45 08	 movzx	 eax, BYTE PTR _i$[ebp]
  00007	8b 44 81 04	 mov	 eax, DWORD PTR [ecx+eax*4+4]

; 40   : }

  0000b	5d		 pop	 ebp
  0000c	c2 04 00	 ret	 4
?GetItem@CVTInfo@@QAEPAVCItemBase@@E@Z ENDP		; CVTInfo::GetItem
_TEXT	ENDS
; Function compile flags: /Ogtp
; File C:\IAGOS\server\v18\Source\Source\_Common\MoverItem.cpp
;	COMDAT ?Init@CVTInfo@@QAEXPAVCMover@@@Z
_TEXT	SEGMENT
_pOwner$ = 8						; size = 4
?Init@CVTInfo@@QAEXPAVCMover@@@Z PROC			; CVTInfo::Init, COMDAT
; _this$ = ecx

; 63   : {

  00000	55		 push	 ebp
  00001	8b ec		 mov	 ebp, esp

; 64   : 	m_pOwner = pOwner;

  00003	8b 45 08	 mov	 eax, DWORD PTR _pOwner$[ebp]
  00006	56		 push	 esi
  00007	8b f1		 mov	 esi, ecx

; 65   : 	ZeroMemory( m_apItem_VT, sizeof( m_apItem_VT ) );

  00009	6a 78		 push	 120			; 00000078H
  0000b	6a 00		 push	 0
  0000d	89 86 80 00 00
	00		 mov	 DWORD PTR [esi+128], eax
  00013	8d 46 04	 lea	 eax, DWORD PTR [esi+4]
  00016	50		 push	 eax
  00017	e8 00 00 00 00	 call	 _memset
  0001c	83 c4 0c	 add	 esp, 12			; 0000000cH

; 66   : 	TradeSetGold( 0 );							// raiders.2006.11.28 

  0001f	8b ce		 mov	 ecx, esi
  00021	6a 00		 push	 0
  00023	e8 00 00 00 00	 call	 ?TradeSetGold@CVTInfo@@QAEXK@Z ; CVTInfo::TradeSetGold

; 67   : 	TradeClear();

  00028	8b ce		 mov	 ecx, esi
  0002a	e8 00 00 00 00	 call	 ?TradeClear@CVTInfo@@QAEXXZ ; CVTInfo::TradeClear

; 68   : 	m_strTitle = "";

  0002f	68 00 00 00 00	 push	 OFFSET ??_C@_00CNPNBAHC@@
  00034	8d 8e 88 00 00
	00		 lea	 ecx, DWORD PTR [esi+136]
  0003a	e8 00 00 00 00	 call	 ??4?$basic_string@DU?$char_traits@D@std@@V?$allocator@D@2@@std@@QAEAAV01@QBD@Z ; std::basic_string<char,std::char_traits<char>,std::allocator<char> >::operator=
  0003f	5e		 pop	 esi

; 69   : }

  00040	5d		 pop	 ebp
  00041	c2 04 00	 ret	 4
?Init@CVTInfo@@QAEXPAVCMover@@@Z ENDP			; CVTInfo::Init
_TEXT	ENDS
; Function compile flags: /Ogtp
; File C:\IAGOS\server\v18\Source\Source\_Common\MoverItem.cpp
;	COMDAT ?SetOther@CVTInfo@@QAEXPAVCMover@@@Z
_TEXT	SEGMENT
_pMover$ = 8						; size = 4
?SetOther@CVTInfo@@QAEXPAVCMover@@@Z PROC		; CVTInfo::SetOther, COMDAT
; _this$ = ecx

; 25   : {

  00000	55		 push	 ebp
  00001	8b ec		 mov	 ebp, esp

; 26   : //	m_pOther = pMover;
; 27   : 	if( pMover )

  00003	8b 45 08	 mov	 eax, DWORD PTR _pMover$[ebp]
  00006	85 c0		 test	 eax, eax
  00008	74 0d		 je	 SHORT $LN2@SetOther

; 28   : 	{
; 29   : 		m_objId = pMover->GetId();

  0000a	8b 80 bc 01 00
	00		 mov	 eax, DWORD PTR [eax+444]

; 30   : 	}
; 31   : 	else
; 32   : 	{
; 33   : 		m_objId = NULL_ID;
; 34   : 	}
; 35   : }

  00010	89 41 7c	 mov	 DWORD PTR [ecx+124], eax
  00013	5d		 pop	 ebp
  00014	c2 04 00	 ret	 4
$LN2@SetOther:
  00017	c7 41 7c ff ff
	ff ff		 mov	 DWORD PTR [ecx+124], -1
  0001e	5d		 pop	 ebp
  0001f	c2 04 00	 ret	 4
?SetOther@CVTInfo@@QAEXPAVCMover@@@Z ENDP		; CVTInfo::SetOther
_TEXT	ENDS
; Function compile flags: /Ogtp
; File C:\IAGOS\server\v18\Source\Source\_Common\MoverItem.cpp
;	COMDAT ?GetOther@CVTInfo@@QAEPAVCMover@@XZ
_TEXT	SEGMENT
?GetOther@CVTInfo@@QAEPAVCMover@@XZ PROC		; CVTInfo::GetOther, COMDAT
; _this$ = ecx

; 16   : //	return m_pOther;
; 17   : 	if( m_objId == NULL_ID )

  00000	8b 41 7c	 mov	 eax, DWORD PTR [ecx+124]
  00003	83 f8 ff	 cmp	 eax, -1
  00006	75 03		 jne	 SHORT $LN2@GetOther

; 18   : 		return NULL;

  00008	33 c0		 xor	 eax, eax

; 21   : }

  0000a	c3		 ret	 0
$LN2@GetOther:

; 19   : 
; 20   : 	return prj.GetMover( m_objId );

  0000b	50		 push	 eax
  0000c	b9 00 00 00 00	 mov	 ecx, OFFSET ?prj@@3VCProject@@A ; prj
  00011	e8 00 00 00 00	 call	 ?GetMover@CProject@@QAEPAVCMover@@K@Z ; CProject::GetMover

; 21   : }

  00016	c3		 ret	 0
?GetOther@CVTInfo@@QAEPAVCMover@@XZ ENDP		; CVTInfo::GetOther
_TEXT	ENDS
; Function compile flags: /Ogtp
;	COMDAT ??_G?$CItemContainer@VCItemElem@@@@UAEPAXI@Z
_TEXT	SEGMENT
___flags$ = 8						; size = 4
??_G?$CItemContainer@VCItemElem@@@@UAEPAXI@Z PROC	; CItemContainer<CItemElem>::`scalar deleting destructor', COMDAT
; _this$ = ecx
  00000	55		 push	 ebp
  00001	8b ec		 mov	 ebp, esp
  00003	56		 push	 esi
  00004	8b f1		 mov	 esi, ecx
  00006	e8 00 00 00 00	 call	 ??1?$CItemContainer@VCItemElem@@@@UAE@XZ ; CItemContainer<CItemElem>::~CItemContainer<CItemElem>
  0000b	f6 45 08 01	 test	 BYTE PTR ___flags$[ebp], 1
  0000f	74 0b		 je	 SHORT $LN5@scalar
  00011	6a 14		 push	 20			; 00000014H
  00013	56		 push	 esi
  00014	e8 00 00 00 00	 call	 ??3@YAXPAXI@Z		; operator delete
  00019	83 c4 08	 add	 esp, 8
$LN5@scalar:
  0001c	8b c6		 mov	 eax, esi
  0001e	5e		 pop	 esi
  0001f	5d		 pop	 ebp
  00020	c2 04 00	 ret	 4
??_G?$CItemContainer@VCItemElem@@@@UAEPAXI@Z ENDP	; CItemContainer<CItemElem>::`scalar deleting destructor'
_TEXT	ENDS
; Function compile flags: /Ogtp
; File C:\IAGOS\server\v18\Source\Source\_Common\Item.h
;	COMDAT ?RemoveAtId@?$CItemContainer@VCItemElem@@@@QAEXK@Z
_TEXT	SEGMENT
_dwObjId$ = 8						; size = 4
?RemoveAtId@?$CItemContainer@VCItemElem@@@@QAEXK@Z PROC	; CItemContainer<CItemElem>::RemoveAtId, COMDAT
; _this$ = ecx

; 764  : {

  00000	55		 push	 ebp
  00001	8b ec		 mov	 ebp, esp

; 765  : 	if( dwObjId >= m_dwItemMax )

  00003	8b 45 08	 mov	 eax, DWORD PTR _dwObjId$[ebp]
  00006	56		 push	 esi
  00007	8b f1		 mov	 esi, ecx
  00009	8b 56 0c	 mov	 edx, DWORD PTR [esi+12]
  0000c	3b c2		 cmp	 eax, edx
  0000e	73 38		 jae	 SHORT $LN4@RemoveAtId

; 766  : 		return;
; 767  : 	if( m_apItem[ dwObjId ].m_dwObjIndex >= m_dwItemMax )

  00010	8b 4e 10	 mov	 ecx, DWORD PTR [esi+16]
  00013	57		 push	 edi
  00014	69 f8 b0 00 00
	00		 imul	 edi, eax, 176
  0001a	03 cf		 add	 ecx, edi
  0001c	39 51 08	 cmp	 DWORD PTR [ecx+8], edx
  0001f	73 26		 jae	 SHORT $LN9@RemoveAtId

; 768  : 		return;
; 769  : 	m_apItem[ dwObjId ].Empty();

  00021	8b 01		 mov	 eax, DWORD PTR [ecx]
  00023	ff 50 0c	 call	 DWORD PTR [eax+12]

; 770  : 	if( m_apItem[ dwObjId ].m_dwObjIndex >= m_dwIndexNum )

  00026	8b 46 10	 mov	 eax, DWORD PTR [esi+16]
  00029	8b 4c 07 08	 mov	 ecx, DWORD PTR [edi+eax+8]
  0002d	3b 4e 08	 cmp	 ecx, DWORD PTR [esi+8]
  00030	72 15		 jb	 SHORT $LN9@RemoveAtId

; 771  : 	{
; 772  : 		m_apIndex[ m_apItem[ dwObjId ].m_dwObjIndex ] = NULL_ID;

  00032	8b 46 04	 mov	 eax, DWORD PTR [esi+4]
  00035	c7 04 88 ff ff
	ff ff		 mov	 DWORD PTR [eax+ecx*4], -1

; 773  : 		m_apItem[ dwObjId ].m_dwObjIndex = NULL_ID;

  0003c	8b 46 10	 mov	 eax, DWORD PTR [esi+16]
  0003f	c7 44 07 08 ff
	ff ff ff	 mov	 DWORD PTR [edi+eax+8], -1
$LN9@RemoveAtId:
  00047	5f		 pop	 edi
$LN4@RemoveAtId:
  00048	5e		 pop	 esi

; 774  : 	}
; 775  : }

  00049	5d		 pop	 ebp
  0004a	c2 04 00	 ret	 4
?RemoveAtId@?$CItemContainer@VCItemElem@@@@QAEXK@Z ENDP	; CItemContainer<CItemElem>::RemoveAtId
_TEXT	ENDS
; Function compile flags: /Ogtp
; File C:\IAGOS\server\v18\Source\Source\_Common\Item.h
;	COMDAT ?GetAtId@?$CItemContainer@VCItemElem@@@@QAEPAVCItemElem@@K@Z
_TEXT	SEGMENT
_dwId$ = 8						; size = 4
?GetAtId@?$CItemContainer@VCItemElem@@@@QAEPAVCItemElem@@K@Z PROC ; CItemContainer<CItemElem>::GetAtId, COMDAT
; _this$ = ecx

; 518  : {

  00000	55		 push	 ebp
  00001	8b ec		 mov	 ebp, esp

; 519  : 	if( dwId >= (DWORD)( GetMax() ) ) return NULL;

  00003	8b 45 08	 mov	 eax, DWORD PTR _dwId$[ebp]
  00006	3b 41 0c	 cmp	 eax, DWORD PTR [ecx+12]
  00009	73 15		 jae	 SHORT $LN7@GetAtId

; 520  : 	T* pItemElem = &m_apItem[ dwId ];

  0000b	69 c0 b0 00 00
	00		 imul	 eax, eax, 176
  00011	03 41 10	 add	 eax, DWORD PTR [ecx+16]

; 50   : 	BOOL			IsEmpty() { return m_dwItemId ? FALSE : TRUE; }

  00014	33 c9		 xor	 ecx, ecx
  00016	39 48 0c	 cmp	 DWORD PTR [eax+12], ecx
  00019	0f 44 c1	 cmove	 eax, ecx

; 523  : 	return pItemElem;
; 524  : }

  0001c	5d		 pop	 ebp
  0001d	c2 04 00	 ret	 4
$LN7@GetAtId:

; 521  : 	if( pItemElem->IsEmpty() ) 
; 522  : 		return NULL;

  00020	33 c0		 xor	 eax, eax

; 523  : 	return pItemElem;
; 524  : }

  00022	5d		 pop	 ebp
  00023	c2 04 00	 ret	 4
?GetAtId@?$CItemContainer@VCItemElem@@@@QAEPAVCItemElem@@K@Z ENDP ; CItemContainer<CItemElem>::GetAtId
_TEXT	ENDS
; Function compile flags: /Ogtp
; File C:\IAGOS\server\v18\Source\Source\_Common\Item.h
;	COMDAT ?IsFull@?$CItemContainer@VCItemElem@@@@QAEHPAVCItemElem@@PAUItemProp@@F@Z
_TEXT	SEGMENT
_this$1$ = -4						; size = 4
_pElem$ = 8						; size = 4
_pItemProp$ = 12					; size = 4
_nNum$ = 16						; size = 2
tv344 = 16						; size = 4
?IsFull@?$CItemContainer@VCItemElem@@@@QAEHPAVCItemElem@@PAUItemProp@@F@Z PROC ; CItemContainer<CItemElem>::IsFull, COMDAT
; _this$ = ecx

; 632  : {

  00000	55		 push	 ebp
  00001	8b ec		 mov	 ebp, esp
  00003	51		 push	 ecx

; 633  : 	int nId;
; 634  : 	short nNumtmp	= nNum;

  00004	0f b7 55 10	 movzx	 edx, WORD PTR _nNum$[ebp]
  00008	53		 push	 ebx
  00009	56		 push	 esi
  0000a	8b f1		 mov	 esi, ecx
  0000c	57		 push	 edi

; 635  : 	CItemElem* pElemtmp;
; 636  : 	for( DWORD i = 0; i < m_dwIndexNum; i++ )

  0000d	33 ff		 xor	 edi, edi
  0000f	89 75 fc	 mov	 DWORD PTR _this$1$[ebp], esi
  00012	39 7e 08	 cmp	 DWORD PTR [esi+8], edi
  00015	0f 86 7e 00 00
	00		 jbe	 $LN19@IsFull

; 637  : 	{
; 638  : 		nId	= m_apIndex[i];

  0001b	8b 5e 04	 mov	 ebx, DWORD PTR [esi+4]
  0001e	66 90		 npad	 2
$LL4@IsFull:
  00020	8b 03		 mov	 eax, DWORD PTR [ebx]

; 639  : 		if( nId < 0 || nId >= (int)( m_dwItemMax ) )

  00022	85 c0		 test	 eax, eax
  00024	78 6a		 js	 SHORT $LN2@IsFull
  00026	3b 46 0c	 cmp	 eax, DWORD PTR [esi+12]
  00029	7d 65		 jge	 SHORT $LN2@IsFull

; 640  : 			continue;
; 641  : 		pElemtmp	= (CItemElem*)&m_apItem[nId];

  0002b	69 c8 b0 00 00
	00		 imul	 ecx, eax, 176
  00031	03 4e 10	 add	 ecx, DWORD PTR [esi+16]

; 50   : 	BOOL			IsEmpty() { return m_dwItemId ? FALSE : TRUE; }

  00034	8b 41 0c	 mov	 eax, DWORD PTR [ecx+12]
  00037	85 c0		 test	 eax, eax

; 642  : 		if( pElemtmp->IsEmpty() )

  00039	75 10		 jne	 SHORT $LN7@IsFull

; 643  : 		{
; 644  : 			if( nNumtmp > (short)pItemProp->dwPackMax )

  0003b	8b 45 0c	 mov	 eax, DWORD PTR _pItemProp$[ebp]
  0003e	0f b7 40 6c	 movzx	 eax, WORD PTR [eax+108]
  00042	66 3b d0	 cmp	 dx, ax
  00045	7e 60		 jle	 SHORT $LN12@IsFull

; 645  : 				nNumtmp		-= (short)pItemProp->dwPackMax;

  00047	2b d0		 sub	 edx, eax

; 646  : 			else
; 647  : 				return FALSE;
; 648  : 		}

  00049	eb 45		 jmp	 SHORT $LN2@IsFull
$LN7@IsFull:

; 649  : 		else if( pElem->m_dwItemId == pElemtmp->m_dwItemId
; 650  : 				&& pElem->m_byFlag == pElemtmp->m_byFlag && pElem->m_bCharged == pElemtmp->m_bCharged )

  0004b	8b 75 08	 mov	 esi, DWORD PTR _pElem$[ebp]
  0004e	39 46 0c	 cmp	 DWORD PTR [esi+12], eax
  00051	75 3a		 jne	 SHORT $LN24@IsFull
  00053	8a 46 76	 mov	 al, BYTE PTR [esi+118]
  00056	3a 41 76	 cmp	 al, BYTE PTR [ecx+118]
  00059	75 32		 jne	 SHORT $LN24@IsFull
  0005b	8b 86 a4 00 00
	00		 mov	 eax, DWORD PTR [esi+164]
  00061	3b 81 a4 00 00
	00		 cmp	 eax, DWORD PTR [ecx+164]
  00067	75 24		 jne	 SHORT $LN24@IsFull

; 651  : 		{
; 652  : 			if( pElemtmp->m_nItemNum + nNumtmp > (short)pItemProp->dwPackMax )

  00069	0f b7 71 74	 movzx	 esi, WORD PTR [ecx+116]
  0006d	0f bf c2	 movsx	 eax, dx
  00070	0f bf ce	 movsx	 ecx, si
  00073	03 c8		 add	 ecx, eax
  00075	89 4d 10	 mov	 DWORD PTR tv344[ebp], ecx
  00078	8b 4d 0c	 mov	 ecx, DWORD PTR _pItemProp$[ebp]
  0007b	0f b7 41 6c	 movzx	 eax, WORD PTR [ecx+108]
  0007f	98		 cwde
  00080	39 45 10	 cmp	 DWORD PTR tv344[ebp], eax
  00083	7e 22		 jle	 SHORT $LN12@IsFull

; 653  : 				nNumtmp	-= ( (short)pItemProp->dwPackMax - pElemtmp->m_nItemNum );

  00085	0f b7 41 6c	 movzx	 eax, WORD PTR [ecx+108]
  00089	2b f0		 sub	 esi, eax
  0008b	03 d6		 add	 edx, esi
$LN24@IsFull:

; 635  : 	CItemElem* pElemtmp;
; 636  : 	for( DWORD i = 0; i < m_dwIndexNum; i++ )

  0008d	8b 75 fc	 mov	 esi, DWORD PTR _this$1$[ebp]
$LN2@IsFull:
  00090	47		 inc	 edi
  00091	83 c3 04	 add	 ebx, 4
  00094	3b 7e 08	 cmp	 edi, DWORD PTR [esi+8]
  00097	72 87		 jb	 SHORT $LL4@IsFull
$LN19@IsFull:
  00099	5f		 pop	 edi

; 654  : 			else
; 655  : 				return FALSE;
; 656  : 		}
; 657  : 	}
; 658  : 
; 659  : 	return TRUE;
; 660  : }

  0009a	5e		 pop	 esi
  0009b	b8 01 00 00 00	 mov	 eax, 1
  000a0	5b		 pop	 ebx
  000a1	8b e5		 mov	 esp, ebp
  000a3	5d		 pop	 ebp
  000a4	c2 0c 00	 ret	 12			; 0000000cH
$LN12@IsFull:
  000a7	5f		 pop	 edi
  000a8	5e		 pop	 esi
  000a9	33 c0		 xor	 eax, eax
  000ab	5b		 pop	 ebx
  000ac	8b e5		 mov	 esp, ebp
  000ae	5d		 pop	 ebp
  000af	c2 0c 00	 ret	 12			; 0000000cH
?IsFull@?$CItemContainer@VCItemElem@@@@QAEHPAVCItemElem@@PAUItemProp@@F@Z ENDP ; CItemContainer<CItemElem>::IsFull
_TEXT	ENDS
; Function compile flags: /Ogtp
; File C:\IAGOS\server\v18\Source\Source\_Common\Item.h
; File C:\IAGOS\server\v18\Source\Source\_Common\Project.h
; File C:\IAGOS\server\v18\Source\Source\_Common\Item.h
; File C:\IAGOS\server\v18\Source\Source\_Common\Project.h
; File C:\IAGOS\server\v18\Source\Source\_Common\data.h
; File C:\IAGOS\server\v18\Source\Source\_Common\Item.h
; File C:\IAGOS\server\v18\Source\Source\_Common\Project.h
; File C:\IAGOS\server\v18\Source\Source\_Common\Item.h
;	COMDAT ?Add@?$CItemContainer@VCItemElem@@@@QAEHPAVCItemElem@@PAEPAF1@Z
_TEXT	SEGMENT
_nId$1$ = -16						; size = 4
tv606 = -12						; size = 4
_nId$2$ = -12						; size = 4
_i$1$ = -8						; size = 4
_i$1$ = -8						; size = 4
$T1 = -4						; size = 4
_pElem$ = 8						; size = 4
_pnId$ = 12						; size = 4
_pnNum$ = 16						; size = 4
_pnCount$ = 20						; size = 4
_nNumtmp$ = 20						; size = 2
_nNumtmp$1$ = 22					; size = 2
?Add@?$CItemContainer@VCItemElem@@@@QAEHPAVCItemElem@@PAEPAF1@Z PROC ; CItemContainer<CItemElem>::Add, COMDAT
; _this$ = ecx

; 663  : {

  00000	55		 push	 ebp
  00001	8b ec		 mov	 ebp, esp
  00003	83 ec 10	 sub	 esp, 16			; 00000010H

; 664  : 	if( pnId )

  00006	83 7d 0c 00	 cmp	 DWORD PTR _pnId$[ebp], 0
  0000a	53		 push	 ebx
  0000b	8b 5d 14	 mov	 ebx, DWORD PTR _pnCount$[ebp]
  0000e	56		 push	 esi
  0000f	57		 push	 edi
  00010	8b f9		 mov	 edi, ecx
  00012	74 03		 je	 SHORT $LN8@Add

; 665  : 		*pnCount	= 0;

  00014	c6 03 00	 mov	 BYTE PTR [ebx], 0
$LN8@Add:

; 230  : 	ItemProp*	GetProp()	{	return prj.GetItemProp( m_dwItemId );	}

  00017	8b 75 08	 mov	 esi, DWORD PTR _pElem$[ebp]
; File C:\IAGOS\server\v18\Source\Source\_Common\Project.h

; 1389 : 	VERIFY_RANGE_ASSERT( nIndex, 0, m_aPropItem.GetSize(), "GetItemProp range_error", NULL );

  0001a	a1 40 02 00 00	 mov	 eax, DWORD PTR ?prj@@3VCProject@@A+576
; File C:\IAGOS\server\v18\Source\Source\_Common\Item.h

; 230  : 	ItemProp*	GetProp()	{	return prj.GetItemProp( m_dwItemId );	}

  0001f	8b 4e 0c	 mov	 ecx, DWORD PTR [esi+12]
; File C:\IAGOS\server\v18\Source\Source\_Common\Project.h

; 1389 : 	VERIFY_RANGE_ASSERT( nIndex, 0, m_aPropItem.GetSize(), "GetItemProp range_error", NULL );

  00022	85 c9		 test	 ecx, ecx
  00024	0f 88 45 02 00
	00		 js	 $LN37@Add
  0002a	3b c8		 cmp	 ecx, eax
  0002c	0f 8d 3d 02 00
	00		 jge	 $LN37@Add
; File C:\IAGOS\server\v18\Source\Source\_Common\data.h

; 270  : 	if( dwIndex >= (DWORD)m_nMaxIndex )

  00032	72 04		 jb	 SHORT $LN42@Add

; 271  : 		return NULL;

  00034	33 c9		 xor	 ecx, ecx
  00036	eb 08		 jmp	 SHORT $LN93@Add
$LN42@Add:

; 272  : 	return (T*) m_apOffset[ dwIndex ];

  00038	a1 30 02 00 00	 mov	 eax, DWORD PTR ?prj@@3VCProject@@A+560
  0003d	8b 0c 88	 mov	 ecx, DWORD PTR [eax+ecx*4]
$LN93@Add:
; File C:\IAGOS\server\v18\Source\Source\_Common\Item.h

; 667  : 	if( !pItemProp )

  00040	89 4d fc	 mov	 DWORD PTR $T1[ebp], ecx
  00043	85 c9		 test	 ecx, ecx
  00045	0f 84 3a 02 00
	00		 je	 $LN61@Add

; 668  : 		return FALSE;
; 669  : 	BOOL bPackItem = TRUE;
; 670  : 	int nId;
; 671  : 
; 672  : 	short nNumtmp	= ( (CItemElem*)pElem )->m_nItemNum;

  0004b	0f b7 46 74	 movzx	 eax, WORD PTR [esi+116]

; 673  : 	if( IsFull( pElem, pItemProp, nNumtmp ) )	// ľĆŔĚĹŰŔ» łÖŔ»Ľö ŔÖ´ÂÁö °Ë»ç

  0004f	50		 push	 eax
  00050	51		 push	 ecx
  00051	56		 push	 esi
  00052	8b cf		 mov	 ecx, edi
  00054	89 45 14	 mov	 DWORD PTR _nNumtmp$[ebp], eax
  00057	e8 00 00 00 00	 call	 ?IsFull@?$CItemContainer@VCItemElem@@@@QAEHPAVCItemElem@@PAUItemProp@@F@Z ; CItemContainer<CItemElem>::IsFull
  0005c	85 c0		 test	 eax, eax
  0005e	0f 85 21 02 00
	00		 jne	 $LN61@Add

; 674  : 		return FALSE;
; 675  : 
; 676  : 	if( pItemProp->dwPackMax == 1 )

  00064	8b 45 fc	 mov	 eax, DWORD PTR $T1[ebp]
  00067	83 78 6c 01	 cmp	 DWORD PTR [eax+108], 1
  0006b	0f 84 c1 00 00
	00		 je	 $LN52@Add

; 677  : 		bPackItem = FALSE;
; 678  : 
; 679  : 	CItemElem* pElemtmp;
; 680  : 	if( bPackItem )
; 681  : 	{
; 682  : 		for( DWORD i = 0; i < m_dwIndexNum; i++ )

  00071	33 c9		 xor	 ecx, ecx
  00073	89 4d f8	 mov	 DWORD PTR _i$1$[ebp], ecx
  00076	39 4f 08	 cmp	 DWORD PTR [edi+8], ecx
  00079	0f 86 b3 00 00
	00		 jbe	 $LN52@Add
  0007f	90		 npad	 1
$LL4@Add:

; 683  : 		{
; 684  : 			nId	= m_apIndex[i];

  00080	8b 47 04	 mov	 eax, DWORD PTR [edi+4]
  00083	8b 04 88	 mov	 eax, DWORD PTR [eax+ecx*4]
  00086	89 45 f0	 mov	 DWORD PTR _nId$1$[ebp], eax

; 685  : 			if( nId < 0 || nId >= (int)( m_dwItemMax ) )

  00089	85 c0		 test	 eax, eax
  0008b	0f 88 94 00 00
	00		 js	 $LN2@Add
  00091	3b 47 0c	 cmp	 eax, DWORD PTR [edi+12]
  00094	0f 8d 8b 00 00
	00		 jge	 $LN2@Add

; 686  : 				continue;
; 687  : 			pElemtmp	= (CItemElem*)&m_apItem[nId];

  0009a	69 d0 b0 00 00
	00		 imul	 edx, eax, 176
  000a0	03 57 10	 add	 edx, DWORD PTR [edi+16]

; 50   : 	BOOL			IsEmpty() { return m_dwItemId ? FALSE : TRUE; }

  000a3	8b 42 0c	 mov	 eax, DWORD PTR [edx+12]
  000a6	85 c0		 test	 eax, eax

; 688  : 			
; 689  : 			if( pElemtmp->IsEmpty() == FALSE && pElemtmp->m_dwItemId == pElem->m_dwItemId && pElemtmp->m_nItemNum < (short)pItemProp->dwPackMax 
; 690  : 				&& pElem->m_byFlag == pElemtmp->m_byFlag && pElem->m_bCharged == pElemtmp->m_bCharged )

  000a8	74 7b		 je	 SHORT $LN2@Add
  000aa	3b 46 0c	 cmp	 eax, DWORD PTR [esi+12]
  000ad	75 76		 jne	 SHORT $LN2@Add
  000af	8b 45 fc	 mov	 eax, DWORD PTR $T1[ebp]
  000b2	0f b7 72 74	 movzx	 esi, WORD PTR [edx+116]
  000b6	0f b7 40 6c	 movzx	 eax, WORD PTR [eax+108]
  000ba	89 45 f4	 mov	 DWORD PTR tv606[ebp], eax
  000bd	66 3b f0	 cmp	 si, ax
  000c0	7d 60		 jge	 SHORT $LN66@Add
  000c2	8b 45 08	 mov	 eax, DWORD PTR _pElem$[ebp]
  000c5	8a 40 76	 mov	 al, BYTE PTR [eax+118]
  000c8	3a 42 76	 cmp	 al, BYTE PTR [edx+118]
  000cb	75 55		 jne	 SHORT $LN66@Add
  000cd	8b 45 08	 mov	 eax, DWORD PTR _pElem$[ebp]
  000d0	8b 80 a4 00 00
	00		 mov	 eax, DWORD PTR [eax+164]
  000d6	3b 82 a4 00 00
	00		 cmp	 eax, DWORD PTR [edx+164]
  000dc	75 44		 jne	 SHORT $LN66@Add

; 691  : 			{
; 692  : 				if( pElemtmp->m_nItemNum + nNumtmp > (short)pItemProp->dwPackMax )

  000de	0f bf 45 14	 movsx	 eax, WORD PTR _nNumtmp$[ebp]
  000e2	0f bf ce	 movsx	 ecx, si
  000e5	03 c8		 add	 ecx, eax
  000e7	8b 45 f4	 mov	 eax, DWORD PTR tv606[ebp]
  000ea	98		 cwde
  000eb	3b c8		 cmp	 ecx, eax
  000ed	0f 8e 13 01 00
	00		 jle	 $LN16@Add

; 693  : 				{
; 694  : 					nNumtmp	-= ( (short)pItemProp->dwPackMax - pElemtmp->m_nItemNum );

  000f3	8b 45 f4	 mov	 eax, DWORD PTR tv606[ebp]
  000f6	2b f0		 sub	 esi, eax
  000f8	01 75 14	 add	 DWORD PTR _nNumtmp$[ebp], esi

; 695  : 					pElemtmp->m_nItemNum	= (short)pItemProp->dwPackMax;
; 696  : 					if( pnId )

  000fb	8b 75 0c	 mov	 esi, DWORD PTR _pnId$[ebp]
  000fe	66 89 42 74	 mov	 WORD PTR [edx+116], ax
  00102	85 f6		 test	 esi, esi
  00104	74 19		 je	 SHORT $LN63@Add

; 697  : 					{
; 698  : 						pnId[*pnCount]	= nId;

  00106	0f b6 03	 movzx	 eax, BYTE PTR [ebx]
  00109	8b 4d f0	 mov	 ecx, DWORD PTR _nId$1$[ebp]
  0010c	88 0c 30	 mov	 BYTE PTR [eax+esi], cl

; 699  : 						pnNum[*pnCount]	= pElemtmp->m_nItemNum;

  0010f	66 8b 42 74	 mov	 ax, WORD PTR [edx+116]
  00113	0f b6 0b	 movzx	 ecx, BYTE PTR [ebx]
  00116	8b 55 10	 mov	 edx, DWORD PTR _pnNum$[ebp]
  00119	66 89 04 4a	 mov	 WORD PTR [edx+ecx*2], ax

; 700  : 						( *pnCount )++;

  0011d	fe 03		 inc	 BYTE PTR [ebx]
$LN63@Add:

; 677  : 		bPackItem = FALSE;
; 678  : 
; 679  : 	CItemElem* pElemtmp;
; 680  : 	if( bPackItem )
; 681  : 	{
; 682  : 		for( DWORD i = 0; i < m_dwIndexNum; i++ )

  0011f	8b 4d f8	 mov	 ecx, DWORD PTR _i$1$[ebp]
$LN66@Add:
  00122	8b 75 08	 mov	 esi, DWORD PTR _pElem$[ebp]
$LN2@Add:
  00125	41		 inc	 ecx
  00126	89 4d f8	 mov	 DWORD PTR _i$1$[ebp], ecx
  00129	3b 4f 08	 cmp	 ecx, DWORD PTR [edi+8]
  0012c	0f 82 4e ff ff
	ff		 jb	 $LL4@Add
$LN52@Add:

; 708  : 						( *pnCount )++;
; 709  : 					}
; 710  : 					nNumtmp = 0;
; 711  : 					break;
; 712  : 				}
; 713  : 			}
; 714  : 			
; 715  : 		}
; 716  : 	}
; 717  : 
; 718  : 	if( nNumtmp > 0 )

  00132	66 8b 55 14	 mov	 dx, WORD PTR _nNumtmp$[ebp]
  00136	66 89 55 16	 mov	 WORD PTR _nNumtmp$1$[ebp], dx
  0013a	66 85 d2	 test	 dx, dx
  0013d	0f 8e b5 00 00
	00		 jle	 $LN28@Add

; 719  : 	{
; 720  : 		for( DWORD i = 0 ; i < m_dwIndexNum ; i++ )

  00143	33 c9		 xor	 ecx, ecx
  00145	89 4d f8	 mov	 DWORD PTR _i$1$[ebp], ecx
  00148	39 4f 08	 cmp	 DWORD PTR [edi+8], ecx
  0014b	0f 86 9a 00 00
	00		 jbe	 $LN58@Add
$LL7@Add:

; 721  : 		{
; 722  : 			nId	= m_apIndex[i];

  00151	8b 47 04	 mov	 eax, DWORD PTR [edi+4]
  00154	8b 04 88	 mov	 eax, DWORD PTR [eax+ecx*4]
  00157	89 45 f4	 mov	 DWORD PTR _nId$2$[ebp], eax

; 723  : 			if( nId < 0 || nId >= (int)( m_dwItemMax ) )

  0015a	85 c0		 test	 eax, eax
  0015c	78 78		 js	 SHORT $LN5@Add
  0015e	3b 47 0c	 cmp	 eax, DWORD PTR [edi+12]
  00161	7d 73		 jge	 SHORT $LN5@Add

; 724  : 				continue;
; 725  : 			pElemtmp	= (CItemElem*)&m_apItem[nId];

  00163	69 f0 b0 00 00
	00		 imul	 esi, eax, 176
  00169	03 77 10	 add	 esi, DWORD PTR [edi+16]

; 50   : 	BOOL			IsEmpty() { return m_dwItemId ? FALSE : TRUE; }

  0016c	83 7e 0c 00	 cmp	 DWORD PTR [esi+12], 0

; 726  : 			if( pElemtmp->IsEmpty() )	// şó°ř°ŁŔÎÁö °Ë»ç

  00170	75 64		 jne	 SHORT $LN5@Add

; 727  : 			{
; 728  : 				*pElemtmp	= *( (CItemElem*)pElem );

  00172	8b 06		 mov	 eax, DWORD PTR [esi]
  00174	8b ce		 mov	 ecx, esi
  00176	ff 75 08	 push	 DWORD PTR _pElem$[ebp]
  00179	ff 50 10	 call	 DWORD PTR [eax+16]

; 729  : 				pElemtmp->m_dwObjId	= nId;

  0017c	8b 45 f4	 mov	 eax, DWORD PTR _nId$2$[ebp]

; 730  : 				pElemtmp->m_dwObjIndex		= i;
; 731  : 				pElemtmp->SetTexture();

  0017f	8b ce		 mov	 ecx, esi
  00181	89 46 04	 mov	 DWORD PTR [esi+4], eax
  00184	8b 45 f8	 mov	 eax, DWORD PTR _i$1$[ebp]
  00187	89 46 08	 mov	 DWORD PTR [esi+8], eax
  0018a	e8 00 00 00 00	 call	 ?SetTexture@CItemBase@@QAEXXZ ; CItemBase::SetTexture

; 732  : 				
; 733  : 				if( nNumtmp > (short)pItemProp->dwPackMax )

  0018f	8b 55 fc	 mov	 edx, DWORD PTR $T1[ebp]
  00192	66 8b 4d 16	 mov	 cx, WORD PTR _nNumtmp$1$[ebp]
  00196	0f b7 42 6c	 movzx	 eax, WORD PTR [edx+108]
  0019a	66 3b c8	 cmp	 cx, ax
  0019d	0f 8e 9a 00 00
	00		 jle	 $LN24@Add

; 734  : 				{
; 735  : 					pElemtmp->m_nItemNum	= (short)pItemProp->dwPackMax;

  001a3	66 89 46 74	 mov	 WORD PTR [esi+116], ax

; 736  : 					nNumtmp		-= (short)pItemProp->dwPackMax;

  001a7	66 2b 4a 6c	 sub	 cx, WORD PTR [edx+108]

; 737  : 					if( pnId ) {

  001ab	8b 55 0c	 mov	 edx, DWORD PTR _pnId$[ebp]
  001ae	66 89 4d 16	 mov	 WORD PTR _nNumtmp$1$[ebp], cx
  001b2	85 d2		 test	 edx, edx
  001b4	74 19		 je	 SHORT $LN62@Add

; 738  : 						pnId[*pnCount]	= nId;

  001b6	0f b6 03	 movzx	 eax, BYTE PTR [ebx]
  001b9	8b 4d f4	 mov	 ecx, DWORD PTR _nId$2$[ebp]
  001bc	88 0c 10	 mov	 BYTE PTR [eax+edx], cl

; 739  : 						pnNum[*pnCount]	= pElemtmp->m_nItemNum;

  001bf	0f b6 0b	 movzx	 ecx, BYTE PTR [ebx]
  001c2	8b 55 10	 mov	 edx, DWORD PTR _pnNum$[ebp]
  001c5	66 8b 46 74	 mov	 ax, WORD PTR [esi+116]
  001c9	66 89 04 4a	 mov	 WORD PTR [edx+ecx*2], ax

; 740  : 						( *pnCount )++;

  001cd	fe 03		 inc	 BYTE PTR [ebx]
$LN62@Add:

; 719  : 	{
; 720  : 		for( DWORD i = 0 ; i < m_dwIndexNum ; i++ )

  001cf	66 8b 55 16	 mov	 dx, WORD PTR _nNumtmp$1$[ebp]
  001d3	8b 4d f8	 mov	 ecx, DWORD PTR _i$1$[ebp]
$LN5@Add:
  001d6	41		 inc	 ecx
  001d7	0f b7 c2	 movzx	 eax, dx
  001da	89 4d f8	 mov	 DWORD PTR _i$1$[ebp], ecx
  001dd	3b 4f 08	 cmp	 ecx, DWORD PTR [edi+8]
  001e0	0f 82 6b ff ff
	ff		 jb	 $LL7@Add

; 751  : 						( *pnCount )++;
; 752  : 					}
; 753  : 					break;
; 754  : 				}
; 755  : 			}
; 756  : 		}
; 757  : 	}
; 758  : 	if( nNumtmp > 0 )

  001e6	66 85 c0	 test	 ax, ax
  001e9	7e 0d		 jle	 SHORT $LN28@Add
$LN58@Add:

; 759  : 		Error( "template <class T> BOOL CItemContainer<T>::Add( T* pElem... : nNumtmp > 0" );

  001eb	68 00 00 00 00	 push	 OFFSET ??_C@_0EK@GINEPMCL@template?5?$DMclass?5T?$DO?5BOOL?5CItemCo@
  001f0	e8 00 00 00 00	 call	 ?Error@@YAPBDPBDZZ	; Error
  001f5	83 c4 04	 add	 esp, 4
$LN28@Add:

; 761  : }

  001f8	5f		 pop	 edi
  001f9	5e		 pop	 esi
  001fa	b8 01 00 00 00	 mov	 eax, 1
  001ff	5b		 pop	 ebx
  00200	8b e5		 mov	 esp, ebp
  00202	5d		 pop	 ebp
  00203	c2 10 00	 ret	 16			; 00000010H
$LN16@Add:

; 701  : 					}
; 702  : 				}
; 703  : 				else {
; 704  : 					pElemtmp->m_nItemNum	+= nNumtmp;

  00206	8b 45 14	 mov	 eax, DWORD PTR _nNumtmp$[ebp]
  00209	03 c6		 add	 eax, esi

; 705  : 					if( pnId ) {

  0020b	8b 75 0c	 mov	 esi, DWORD PTR _pnId$[ebp]
  0020e	66 89 42 74	 mov	 WORD PTR [edx+116], ax
  00212	85 f6		 test	 esi, esi
  00214	74 e2		 je	 SHORT $LN28@Add

; 706  : 						pnId[*pnCount]	= nId;

  00216	0f b6 03	 movzx	 eax, BYTE PTR [ebx]
  00219	8b 4d f0	 mov	 ecx, DWORD PTR _nId$1$[ebp]
  0021c	5f		 pop	 edi
  0021d	88 0c 30	 mov	 BYTE PTR [eax+esi], cl

; 707  : 						pnNum[*pnCount]		= pElemtmp->m_nItemNum;	

  00220	66 8b 42 74	 mov	 ax, WORD PTR [edx+116]
  00224	0f b6 0b	 movzx	 ecx, BYTE PTR [ebx]
  00227	8b 55 10	 mov	 edx, DWORD PTR _pnNum$[ebp]

; 761  : }

  0022a	5e		 pop	 esi
  0022b	66 89 04 4a	 mov	 WORD PTR [edx+ecx*2], ax
  0022f	b8 01 00 00 00	 mov	 eax, 1
  00234	fe 03		 inc	 BYTE PTR [ebx]
  00236	5b		 pop	 ebx
  00237	8b e5		 mov	 esp, ebp
  00239	5d		 pop	 ebp
  0023a	c2 10 00	 ret	 16			; 00000010H
$LN24@Add:

; 741  : 					}
; 742  : 				}
; 743  : 				else
; 744  : 				{
; 745  : 					pElemtmp->m_nItemNum	= nNumtmp;
; 746  : 					nNumtmp	= 0;
; 747  : 					if( pnId )

  0023d	8b 55 0c	 mov	 edx, DWORD PTR _pnId$[ebp]
  00240	66 89 4e 74	 mov	 WORD PTR [esi+116], cx
  00244	85 d2		 test	 edx, edx
  00246	74 b0		 je	 SHORT $LN28@Add

; 748  : 					{
; 749  : 						pnId[*pnCount]	= nId;

  00248	0f b6 03	 movzx	 eax, BYTE PTR [ebx]
  0024b	8b 4d f4	 mov	 ecx, DWORD PTR _nId$2$[ebp]
  0024e	5f		 pop	 edi
  0024f	88 0c 10	 mov	 BYTE PTR [eax+edx], cl

; 750  : 						pnNum[*pnCount]		= pElemtmp->m_nItemNum;

  00252	0f b6 0b	 movzx	 ecx, BYTE PTR [ebx]
  00255	66 8b 46 74	 mov	 ax, WORD PTR [esi+116]
  00259	8b 55 10	 mov	 edx, DWORD PTR _pnNum$[ebp]

; 761  : }

  0025c	5e		 pop	 esi
  0025d	66 89 04 4a	 mov	 WORD PTR [edx+ecx*2], ax
  00261	b8 01 00 00 00	 mov	 eax, 1
  00266	fe 03		 inc	 BYTE PTR [ebx]
  00268	5b		 pop	 ebx
  00269	8b e5		 mov	 esp, ebp
  0026b	5d		 pop	 ebp
  0026c	c2 10 00	 ret	 16			; 00000010H
$LN37@Add:
; File C:\IAGOS\server\v18\Source\Source\_Common\Project.h

; 579  : 	LPCTSTR szErr = Error( _T( "%s min:%d, max:%d, index:%d" ), szMsg, nMin, nMax, nIndex ); 

  0026f	51		 push	 ecx
  00270	50		 push	 eax
  00271	6a 00		 push	 0
  00273	68 00 00 00 00	 push	 OFFSET ??_C@_0BI@BEIFNGEL@GetItemProp?5range_error@
  00278	68 00 00 00 00	 push	 OFFSET ??_C@_0BM@HMFGHCP@?$CFs?5min?3?$CFd?0?5max?3?$CFd?0?5index?3?$CFd@
  0027d	e8 00 00 00 00	 call	 ?Error@@YAPBDPBDZZ	; Error
  00282	83 c4 14	 add	 esp, 20			; 00000014H
$LN61@Add:
  00285	5f		 pop	 edi
; File C:\IAGOS\server\v18\Source\Source\_Common\Item.h

; 761  : }

  00286	5e		 pop	 esi
  00287	33 c0		 xor	 eax, eax
  00289	5b		 pop	 ebx
  0028a	8b e5		 mov	 esp, ebp
  0028c	5d		 pop	 ebp
  0028d	c2 10 00	 ret	 16			; 00000010H
?Add@?$CItemContainer@VCItemElem@@@@QAEHPAVCItemElem@@PAEPAF1@Z ENDP ; CItemContainer<CItemElem>::Add
_TEXT	ENDS
; Function compile flags: /Ogtp
; File C:\IAGOS\server\v18\Source\Source\_Common\Item.h
;	COMDAT ?IsEquip@?$CItemContainer@VCItemElem@@@@QAEHK@Z
_TEXT	SEGMENT
_dwObjId$ = 8						; size = 4
?IsEquip@?$CItemContainer@VCItemElem@@@@QAEHK@Z PROC	; CItemContainer<CItemElem>::IsEquip, COMDAT
; _this$ = ecx

; 602  : {

  00000	55		 push	 ebp
  00001	8b ec		 mov	 ebp, esp

; 603  : 	if( !m_apItem )

  00003	8b 51 10	 mov	 edx, DWORD PTR [ecx+16]
  00006	85 d2		 test	 edx, edx
  00008	75 13		 jne	 SHORT $LN2@IsEquip

; 604  : 	{
; 605  : 		WriteError( "CONTAINER//0" );

  0000a	68 00 00 00 00	 push	 OFFSET ??_C@_0N@GELFDHNG@CONTAINER?1?10@
  0000f	e8 00 00 00 00	 call	 ?WriteError@@YAXPBDZZ	; WriteError
  00014	83 c4 04	 add	 esp, 4
$LN4@IsEquip:

; 613  : 		return TRUE;
; 614  : 	return FALSE;
; 615  : }

  00017	33 c0		 xor	 eax, eax
  00019	5d		 pop	 ebp
  0001a	c2 04 00	 ret	 4
$LN2@IsEquip:

; 606  : 		return FALSE;
; 607  : 	}
; 608  : 
; 609  : 	if( dwObjId >= m_dwItemMax )

  0001d	8b 45 08	 mov	 eax, DWORD PTR _dwObjId$[ebp]
  00020	3b 41 0c	 cmp	 eax, DWORD PTR [ecx+12]
  00023	73 f2		 jae	 SHORT $LN4@IsEquip

; 610  : 		return FALSE;
; 611  : 
; 612  : 	if( m_apItem[ dwObjId ].m_dwObjIndex >= m_dwIndexNum )

  00025	69 c0 b0 00 00
	00		 imul	 eax, eax, 176
  0002b	8b 44 10 08	 mov	 eax, DWORD PTR [eax+edx+8]
  0002f	3b 41 08	 cmp	 eax, DWORD PTR [ecx+8]
  00032	1b c0		 sbb	 eax, eax
  00034	40		 inc	 eax

; 613  : 		return TRUE;
; 614  : 	return FALSE;
; 615  : }

  00035	5d		 pop	 ebp
  00036	c2 04 00	 ret	 4
?IsEquip@?$CItemContainer@VCItemElem@@@@QAEHK@Z ENDP	; CItemContainer<CItemElem>::IsEquip
_TEXT	ENDS
; Function compile flags: /Ogtp
; File C:\IAGOS\server\v18\Source\Source\_Common\Item.h
;	COMDAT ?Clear@?$CItemContainer@VCItemElem@@@@QAEXXZ
_TEXT	SEGMENT
?Clear@?$CItemContainer@VCItemElem@@@@QAEXXZ PROC	; CItemContainer<CItemElem>::Clear, COMDAT
; _this$ = ecx

; 483  : {

  00000	56		 push	 esi
  00001	57		 push	 edi
  00002	8b f9		 mov	 edi, ecx

; 484  : 	for( DWORD i = 0; i < m_dwItemMax; i++ )

  00004	33 f6		 xor	 esi, esi
  00006	39 77 0c	 cmp	 DWORD PTR [edi+12], esi
  00009	76 41		 jbe	 SHORT $LN3@Clear
  0000b	53		 push	 ebx
  0000c	33 db		 xor	 ebx, ebx
  0000e	66 90		 npad	 2
$LL4@Clear:

; 485  : 	{
; 486  : 		m_apItem[ i ].Empty();

  00010	8b 4f 10	 mov	 ecx, DWORD PTR [edi+16]
  00013	03 cb		 add	 ecx, ebx
  00015	8b 01		 mov	 eax, DWORD PTR [ecx]
  00017	ff 50 0c	 call	 DWORD PTR [eax+12]

; 487  : 		m_apItem[ i ].m_dwObjId = i;

  0001a	8b 47 10	 mov	 eax, DWORD PTR [edi+16]
  0001d	89 74 18 04	 mov	 DWORD PTR [eax+ebx+4], esi

; 488  : 		if( i < m_dwIndexNum )

  00021	3b 77 08	 cmp	 esi, DWORD PTR [edi+8]
  00024	73 0f		 jae	 SHORT $LN5@Clear

; 489  : 		{
; 490  : 			m_apItem[ i ].m_dwObjIndex = i;

  00026	8b 47 10	 mov	 eax, DWORD PTR [edi+16]
  00029	89 74 18 08	 mov	 DWORD PTR [eax+ebx+8], esi

; 491  : 			m_apIndex[ i ] = i;

  0002d	8b 47 04	 mov	 eax, DWORD PTR [edi+4]
  00030	89 34 b0	 mov	 DWORD PTR [eax+esi*4], esi

; 492  : 		}

  00033	eb 0a		 jmp	 SHORT $LN2@Clear
$LN5@Clear:

; 493  : 		else 
; 494  : 		{
; 495  : 			m_apIndex[ i ] = NULL_ID;

  00035	8b 47 04	 mov	 eax, DWORD PTR [edi+4]
  00038	c7 04 b0 ff ff
	ff ff		 mov	 DWORD PTR [eax+esi*4], -1
$LN2@Clear:

; 484  : 	for( DWORD i = 0; i < m_dwItemMax; i++ )

  0003f	46		 inc	 esi
  00040	81 c3 b0 00 00
	00		 add	 ebx, 176		; 000000b0H
  00046	3b 77 0c	 cmp	 esi, DWORD PTR [edi+12]
  00049	72 c5		 jb	 SHORT $LL4@Clear
  0004b	5b		 pop	 ebx
$LN3@Clear:
  0004c	5f		 pop	 edi

; 496  : 		}
; 497  : 	}
; 498  : }

  0004d	5e		 pop	 esi
  0004e	c3		 ret	 0
?Clear@?$CItemContainer@VCItemElem@@@@QAEXXZ ENDP	; CItemContainer<CItemElem>::Clear
_TEXT	ENDS
; Function compile flags: /Ogtp
; File C:\IAGOS\server\v18\Source\Source\_Common\Item.h
;	COMDAT ??1?$CItemContainer@VCItemElem@@@@UAE@XZ
_TEXT	SEGMENT
??1?$CItemContainer@VCItemElem@@@@UAE@XZ PROC		; CItemContainer<CItemElem>::~CItemContainer<CItemElem>, COMDAT
; _this$ = ecx

; 477  : {

  00000	56		 push	 esi
  00001	8b f1		 mov	 esi, ecx

; 478  : 	SAFE_DELETE_ARRAY( m_apItem );

  00003	8b 4e 10	 mov	 ecx, DWORD PTR [esi+16]
  00006	c7 06 00 00 00
	00		 mov	 DWORD PTR [esi], OFFSET ??_7?$CItemContainer@VCItemElem@@@@6B@
  0000c	85 c9		 test	 ecx, ecx
  0000e	74 23		 je	 SHORT $LN2@CItemConta
  00010	83 79 fc 00	 cmp	 DWORD PTR [ecx-4], 0
  00014	8d 41 fc	 lea	 eax, DWORD PTR [ecx-4]
  00017	74 08		 je	 SHORT $LN5@CItemConta
  00019	8b 01		 mov	 eax, DWORD PTR [ecx]
  0001b	6a 03		 push	 3
  0001d	ff 10		 call	 DWORD PTR [eax]
  0001f	eb 0b		 jmp	 SHORT $LN6@CItemConta
$LN5@CItemConta:
  00021	6a 04		 push	 4
  00023	50		 push	 eax
  00024	e8 00 00 00 00	 call	 ??_V@YAXPAXI@Z		; operator delete[]
  00029	83 c4 08	 add	 esp, 8
$LN6@CItemConta:
  0002c	c7 46 10 00 00
	00 00		 mov	 DWORD PTR [esi+16], 0
$LN2@CItemConta:

; 479  : 	SAFE_DELETE_ARRAY( m_apIndex );

  00033	8b 46 04	 mov	 eax, DWORD PTR [esi+4]
  00036	85 c0		 test	 eax, eax
  00038	74 10		 je	 SHORT $LN3@CItemConta
  0003a	50		 push	 eax
  0003b	e8 00 00 00 00	 call	 ??_V@YAXPAX@Z		; operator delete[]
  00040	83 c4 04	 add	 esp, 4
  00043	c7 46 04 00 00
	00 00		 mov	 DWORD PTR [esi+4], 0
$LN3@CItemConta:

; 480  : }

  0004a	5e		 pop	 esi
  0004b	c3		 ret	 0
??1?$CItemContainer@VCItemElem@@@@UAE@XZ ENDP		; CItemContainer<CItemElem>::~CItemContainer<CItemElem>
_TEXT	ENDS
; Function compile flags: /Ogtp
; File C:\IAGOS\server\v18\Source\Source\_Common\Item.h
;	COMDAT ??0?$CItemContainer@VCItemElem@@@@QAE@XZ
_TEXT	SEGMENT
??0?$CItemContainer@VCItemElem@@@@QAE@XZ PROC		; CItemContainer<CItemElem>::CItemContainer<CItemElem>, COMDAT
; _this$ = ecx

; 462  : {

  00000	c7 01 00 00 00
	00		 mov	 DWORD PTR [ecx], OFFSET ??_7?$CItemContainer@VCItemElem@@@@6B@

; 463  : 	m_dwIndexNum = 0;
; 464  : 	m_dwItemMax = 0;
; 465  : 
; 466  : 	m_apItem = NULL;
; 467  : 	m_apIndex = NULL;
; 468  : }

  00006	8b c1		 mov	 eax, ecx
  00008	c7 41 08 00 00
	00 00		 mov	 DWORD PTR [ecx+8], 0
  0000f	c7 41 0c 00 00
	00 00		 mov	 DWORD PTR [ecx+12], 0
  00016	c7 41 10 00 00
	00 00		 mov	 DWORD PTR [ecx+16], 0
  0001d	c7 41 04 00 00
	00 00		 mov	 DWORD PTR [ecx+4], 0
  00024	c3		 ret	 0
??0?$CItemContainer@VCItemElem@@@@QAE@XZ ENDP		; CItemContainer<CItemElem>::CItemContainer<CItemElem>
_TEXT	ENDS
; Function compile flags: /Ogtp
; File C:\IAGOS\server\v18\Source\Source\_Common\Item.h
;	COMDAT ?SetItemContainer@?$CItemContainer@VCItemElem@@@@QAEXKKK@Z
_TEXT	SEGMENT
__$EHRec$ = -12						; size = 12
_dwItemType$ = 8					; size = 4
_dwItemMax$ = 12					; size = 4
$T2 = 12						; size = 4
_dwExtra$ = 16						; size = 4
$T3 = 16						; size = 4
?SetItemContainer@?$CItemContainer@VCItemElem@@@@QAEXKKK@Z PROC ; CItemContainer<CItemElem>::SetItemContainer, COMDAT
; _this$ = ecx

; 501  : {

  00000	55		 push	 ebp
  00001	8b ec		 mov	 ebp, esp
  00003	6a ff		 push	 -1
  00005	68 00 00 00 00	 push	 __ehhandler$?SetItemContainer@?$CItemContainer@VCItemElem@@@@QAEXKKK@Z
  0000a	64 a1 00 00 00
	00		 mov	 eax, DWORD PTR fs:0
  00010	50		 push	 eax
  00011	53		 push	 ebx
  00012	56		 push	 esi
  00013	57		 push	 edi
  00014	a1 00 00 00 00	 mov	 eax, DWORD PTR ___security_cookie
  00019	33 c5		 xor	 eax, ebp
  0001b	50		 push	 eax
  0001c	8d 45 f4	 lea	 eax, DWORD PTR __$EHRec$[ebp]
  0001f	64 a3 00 00 00
	00		 mov	 DWORD PTR fs:0, eax
  00025	8b f1		 mov	 esi, ecx

; 502  : 	m_dwIndexNum = dwItemMax;

  00027	8b 45 0c	 mov	 eax, DWORD PTR _dwItemMax$[ebp]

; 503  : 	m_dwItemMax = dwItemMax;
; 504  : 	if( dwExtra != NULL_ID )

  0002a	8b 4d 10	 mov	 ecx, DWORD PTR _dwExtra$[ebp]
  0002d	89 46 08	 mov	 DWORD PTR [esi+8], eax
  00030	89 46 0c	 mov	 DWORD PTR [esi+12], eax
  00033	83 f9 ff	 cmp	 ecx, -1
  00036	74 05		 je	 SHORT $LN2@SetItemCon

; 505  : 		m_dwItemMax += dwExtra;

  00038	03 c1		 add	 eax, ecx
  0003a	89 46 0c	 mov	 DWORD PTR [esi+12], eax
$LN2@SetItemCon:

; 506  : 	
; 507  : 	SAFE_DELETE_ARRAY( m_apItem );

  0003d	8b 4e 10	 mov	 ecx, DWORD PTR [esi+16]
  00040	85 c9		 test	 ecx, ecx
  00042	74 23		 je	 SHORT $LN3@SetItemCon
  00044	83 79 fc 00	 cmp	 DWORD PTR [ecx-4], 0
  00048	8d 41 fc	 lea	 eax, DWORD PTR [ecx-4]
  0004b	74 08		 je	 SHORT $LN6@SetItemCon
  0004d	8b 01		 mov	 eax, DWORD PTR [ecx]
  0004f	6a 03		 push	 3
  00051	ff 10		 call	 DWORD PTR [eax]
  00053	eb 0b		 jmp	 SHORT $LN7@SetItemCon
$LN6@SetItemCon:
  00055	6a 04		 push	 4
  00057	50		 push	 eax
  00058	e8 00 00 00 00	 call	 ??_V@YAXPAXI@Z		; operator delete[]
  0005d	83 c4 08	 add	 esp, 8
$LN7@SetItemCon:
  00060	c7 46 10 00 00
	00 00		 mov	 DWORD PTR [esi+16], 0
$LN3@SetItemCon:

; 508  : 	SAFE_DELETE_ARRAY( m_apIndex );

  00067	8b 46 04	 mov	 eax, DWORD PTR [esi+4]
  0006a	85 c0		 test	 eax, eax
  0006c	74 10		 je	 SHORT $LN4@SetItemCon
  0006e	50		 push	 eax
  0006f	e8 00 00 00 00	 call	 ??_V@YAXPAX@Z		; operator delete[]
  00074	83 c4 04	 add	 esp, 4
  00077	c7 46 04 00 00
	00 00		 mov	 DWORD PTR [esi+4], 0
$LN4@SetItemCon:

; 509  : 
; 510  : 	m_apItem = new T[ m_dwItemMax ];

  0007e	8b 5e 0c	 mov	 ebx, DWORD PTR [esi+12]
  00081	b9 b0 00 00 00	 mov	 ecx, 176		; 000000b0H
  00086	8b c3		 mov	 eax, ebx
  00088	89 5d 0c	 mov	 DWORD PTR $T2[ebp], ebx
  0008b	f7 e1		 mul	 ecx
  0008d	b9 ff ff ff ff	 mov	 ecx, -1
  00092	0f 42 c1	 cmovb	 eax, ecx
  00095	83 c0 04	 add	 eax, 4
  00098	0f 42 c1	 cmovb	 eax, ecx
  0009b	50		 push	 eax
  0009c	e8 00 00 00 00	 call	 ??_U@YAPAXI@Z		; operator new[]
  000a1	83 c4 04	 add	 esp, 4
  000a4	89 45 10	 mov	 DWORD PTR $T3[ebp], eax
  000a7	c7 45 fc 00 00
	00 00		 mov	 DWORD PTR __$EHRec$[ebp+8], 0
  000ae	85 c0		 test	 eax, eax
  000b0	74 1d		 je	 SHORT $LN10@SetItemCon
  000b2	68 00 00 00 00	 push	 OFFSET ??1CItemElem@@UAE@XZ ; CItemElem::~CItemElem
  000b7	68 00 00 00 00	 push	 OFFSET ??0CItemElem@@QAE@XZ ; CItemElem::CItemElem
  000bc	53		 push	 ebx
  000bd	8d 78 04	 lea	 edi, DWORD PTR [eax+4]
  000c0	89 18		 mov	 DWORD PTR [eax], ebx
  000c2	68 b0 00 00 00	 push	 176			; 000000b0H
  000c7	57		 push	 edi
  000c8	e8 00 00 00 00	 call	 ??_L@YGXPAXIIP6EX0@Z1@Z
  000cd	eb 02		 jmp	 SHORT $LN11@SetItemCon
$LN10@SetItemCon:
  000cf	33 ff		 xor	 edi, edi
$LN11@SetItemCon:

; 511  : 	m_apIndex = new DWORD[ m_dwItemMax ];

  000d1	8b 46 0c	 mov	 eax, DWORD PTR [esi+12]
  000d4	b9 04 00 00 00	 mov	 ecx, 4
  000d9	f7 e1		 mul	 ecx
  000db	b9 ff ff ff ff	 mov	 ecx, -1
  000e0	c7 45 fc ff ff
	ff ff		 mov	 DWORD PTR __$EHRec$[ebp+8], -1
  000e7	89 7e 10	 mov	 DWORD PTR [esi+16], edi
  000ea	0f 42 c1	 cmovb	 eax, ecx
  000ed	50		 push	 eax
  000ee	e8 00 00 00 00	 call	 ??_U@YAPAXI@Z		; operator new[]
  000f3	83 c4 04	 add	 esp, 4
  000f6	89 46 04	 mov	 DWORD PTR [esi+4], eax

; 512  : 	Clear();

  000f9	8b ce		 mov	 ecx, esi
  000fb	e8 00 00 00 00	 call	 ?Clear@?$CItemContainer@VCItemElem@@@@QAEXXZ ; CItemContainer<CItemElem>::Clear

; 513  : }

  00100	8b 4d f4	 mov	 ecx, DWORD PTR __$EHRec$[ebp]
  00103	64 89 0d 00 00
	00 00		 mov	 DWORD PTR fs:0, ecx
  0010a	59		 pop	 ecx
  0010b	5f		 pop	 edi
  0010c	5e		 pop	 esi
  0010d	5b		 pop	 ebx
  0010e	8b e5		 mov	 esp, ebp
  00110	5d		 pop	 ebp
  00111	c2 0c 00	 ret	 12			; 0000000cH
_TEXT	ENDS
;	COMDAT text$x
text$x	SEGMENT
__unwindfunclet$?SetItemContainer@?$CItemContainer@VCItemElem@@@@QAEXKKK@Z$0:
  00000	8b 45 0c	 mov	 eax, DWORD PTR $T2[ebp]
  00003	b9 b0 00 00 00	 mov	 ecx, 176		; 000000b0H
  00008	f7 e1		 mul	 ecx
  0000a	8b c8		 mov	 ecx, eax
  0000c	b8 ff ff ff ff	 mov	 eax, -1
  00011	0f 42 c8	 cmovb	 ecx, eax
  00014	83 c1 04	 add	 ecx, 4
  00017	b8 ff ff ff ff	 mov	 eax, -1
  0001c	0f 42 c8	 cmovb	 ecx, eax
  0001f	51		 push	 ecx
  00020	8b 45 10	 mov	 eax, DWORD PTR $T3[ebp]
  00023	50		 push	 eax
  00024	e8 00 00 00 00	 call	 ??_V@YAXPAXI@Z		; operator delete[]
  00029	83 c4 08	 add	 esp, 8
  0002c	c3		 ret	 0
  0002d	cc		 int	 3
  0002e	cc		 int	 3
  0002f	cc		 int	 3
  00030	cc		 int	 3
  00031	cc		 int	 3
__ehhandler$?SetItemContainer@?$CItemContainer@VCItemElem@@@@QAEXKKK@Z:
  00032	90		 npad	 1
  00033	90		 npad	 1
  00034	8b 54 24 08	 mov	 edx, DWORD PTR [esp+8]
  00038	8d 42 0c	 lea	 eax, DWORD PTR [edx+12]
  0003b	8b 4a f0	 mov	 ecx, DWORD PTR [edx-16]
  0003e	33 c8		 xor	 ecx, eax
  00040	e8 00 00 00 00	 call	 @__security_check_cookie@4
  00045	b8 00 00 00 00	 mov	 eax, OFFSET __ehfuncinfo$?SetItemContainer@?$CItemContainer@VCItemElem@@@@QAEXKKK@Z
  0004a	e9 00 00 00 00	 jmp	 ___CxxFrameHandler3
text$x	ENDS
?SetItemContainer@?$CItemContainer@VCItemElem@@@@QAEXKKK@Z ENDP ; CItemContainer<CItemElem>::SetItemContainer
; Function compile flags: /Ogtp
;	COMDAT ??_ECItemElem@@UAEPAXI@Z
_TEXT	SEGMENT
__$EHRec$ = -12						; size = 12
___flags$ = 8						; size = 4
??_ECItemElem@@UAEPAXI@Z PROC				; CItemElem::`vector deleting destructor', COMDAT
; _this$ = ecx
  00000	55		 push	 ebp
  00001	8b ec		 mov	 ebp, esp
  00003	6a ff		 push	 -1
  00005	68 00 00 00 00	 push	 __ehhandler$??_ECItemElem@@UAEPAXI@Z
  0000a	64 a1 00 00 00
	00		 mov	 eax, DWORD PTR fs:0
  00010	50		 push	 eax
  00011	53		 push	 ebx
  00012	56		 push	 esi
  00013	57		 push	 edi
  00014	a1 00 00 00 00	 mov	 eax, DWORD PTR ___security_cookie
  00019	33 c5		 xor	 eax, ebp
  0001b	50		 push	 eax
  0001c	8d 45 f4	 lea	 eax, DWORD PTR __$EHRec$[ebp]
  0001f	64 a3 00 00 00
	00		 mov	 DWORD PTR fs:0, eax
  00025	8b f1		 mov	 esi, ecx
  00027	8b 45 08	 mov	 eax, DWORD PTR ___flags$[ebp]
  0002a	8b f8		 mov	 edi, eax
  0002c	83 e7 01	 and	 edi, 1
  0002f	a8 02		 test	 al, 2
  00031	74 43		 je	 SHORT $LN2@vector
  00033	68 00 00 00 00	 push	 OFFSET ??1CItemElem@@UAE@XZ ; CItemElem::~CItemElem
  00038	ff 76 fc	 push	 DWORD PTR [esi-4]
  0003b	8d 5e fc	 lea	 ebx, DWORD PTR [esi-4]
  0003e	68 b0 00 00 00	 push	 176			; 000000b0H
  00043	56		 push	 esi
  00044	e8 00 00 00 00	 call	 ??_M@YGXPAXIIP6EX0@Z@Z
  00049	85 ff		 test	 edi, edi
  0004b	74 13		 je	 SHORT $LN3@vector
  0004d	69 0b b0 00 00
	00		 imul	 ecx, DWORD PTR [ebx], 176
  00053	83 c1 04	 add	 ecx, 4
  00056	51		 push	 ecx
  00057	53		 push	 ebx
  00058	e8 00 00 00 00	 call	 ??_V@YAXPAXI@Z		; operator delete[]
  0005d	83 c4 08	 add	 esp, 8
$LN3@vector:
  00060	8b c3		 mov	 eax, ebx
  00062	8b 4d f4	 mov	 ecx, DWORD PTR __$EHRec$[ebp]
  00065	64 89 0d 00 00
	00 00		 mov	 DWORD PTR fs:0, ecx
  0006c	59		 pop	 ecx
  0006d	5f		 pop	 edi
  0006e	5e		 pop	 esi
  0006f	5b		 pop	 ebx
  00070	8b e5		 mov	 esp, ebp
  00072	5d		 pop	 ebp
  00073	c2 04 00	 ret	 4
$LN2@vector:
  00076	e8 00 00 00 00	 call	 ??1CItemElem@@UAE@XZ	; CItemElem::~CItemElem
  0007b	85 ff		 test	 edi, edi
  0007d	74 0e		 je	 SHORT $LN4@vector
  0007f	68 b0 00 00 00	 push	 176			; 000000b0H
  00084	56		 push	 esi
  00085	e8 00 00 00 00	 call	 ??3@YAXPAXI@Z		; operator delete
  0008a	83 c4 08	 add	 esp, 8
$LN4@vector:
  0008d	8b c6		 mov	 eax, esi
  0008f	8b 4d f4	 mov	 ecx, DWORD PTR __$EHRec$[ebp]
  00092	64 89 0d 00 00
	00 00		 mov	 DWORD PTR fs:0, ecx
  00099	59		 pop	 ecx
  0009a	5f		 pop	 edi
  0009b	5e		 pop	 esi
  0009c	5b		 pop	 ebx
  0009d	8b e5		 mov	 esp, ebp
  0009f	5d		 pop	 ebp
  000a0	c2 04 00	 ret	 4
  000a3	cc		 int	 3
  000a4	cc		 int	 3
  000a5	cc		 int	 3
  000a6	cc		 int	 3
  000a7	cc		 int	 3
_TEXT	ENDS
;	COMDAT text$x
text$x	SEGMENT
__ehhandler$??_ECItemElem@@UAEPAXI@Z:
  00000	90		 npad	 1
  00001	90		 npad	 1
  00002	8b 54 24 08	 mov	 edx, DWORD PTR [esp+8]
  00006	8d 42 0c	 lea	 eax, DWORD PTR [edx+12]
  00009	8b 4a f0	 mov	 ecx, DWORD PTR [edx-16]
  0000c	33 c8		 xor	 ecx, eax
  0000e	e8 00 00 00 00	 call	 @__security_check_cookie@4
  00013	b8 00 00 00 00	 mov	 eax, OFFSET __ehfuncinfo$??_ECItemElem@@UAEPAXI@Z
  00018	e9 00 00 00 00	 jmp	 ___CxxFrameHandler3
text$x	ENDS
??_ECItemElem@@UAEPAXI@Z ENDP				; CItemElem::`vector deleting destructor'
; Function compile flags: /Ogtp
; File C:\Program Files\Microsoft Visual Studio\2022\Professional\VC\Tools\MSVC\14.44.35207\include\xstring
; File C:\Program Files\Microsoft Visual Studio\2022\Professional\VC\Tools\MSVC\14.44.35207\include\__msvc_string_view.hpp
; File C:\Program Files\Microsoft Visual Studio\2022\Professional\VC\Tools\MSVC\14.44.35207\include\xstring
; File C:\Program Files\Microsoft Visual Studio\2022\Professional\VC\Tools\MSVC\14.44.35207\include\__msvc_string_view.hpp
; File C:\Program Files\Microsoft Visual Studio\2022\Professional\VC\Tools\MSVC\14.44.35207\include\xstring
; File C:\Program Files\Microsoft Visual Studio\2022\Professional\VC\Tools\MSVC\14.44.35207\include\__msvc_string_view.hpp
; File C:\Program Files\Microsoft Visual Studio\2022\Professional\VC\Tools\MSVC\14.44.35207\include\xstring
; File C:\Program Files\Microsoft Visual Studio\2022\Professional\VC\Tools\MSVC\14.44.35207\include\__msvc_string_view.hpp
; File C:\Program Files\Microsoft Visual Studio\2022\Professional\VC\Tools\MSVC\14.44.35207\include\xstring
; File C:\Program Files\Microsoft Visual Studio\2022\Professional\VC\Tools\MSVC\14.44.35207\include\__msvc_string_view.hpp
; File C:\Program Files\Microsoft Visual Studio\2022\Professional\VC\Tools\MSVC\14.44.35207\include\xstring
; File C:\Program Files\Microsoft Visual Studio\2022\Professional\VC\Tools\MSVC\14.44.35207\include\xmemory
; File C:\Program Files\Microsoft Visual Studio\2022\Professional\VC\Tools\MSVC\14.44.35207\include\xstring
; File C:\Program Files\Microsoft Visual Studio\2022\Professional\VC\Tools\MSVC\14.44.35207\include\xmemory
; File C:\Program Files\Microsoft Visual Studio\2022\Professional\VC\Tools\MSVC\14.44.35207\include\xstring
; File C:\Program Files\Microsoft Visual Studio\2022\Professional\VC\Tools\MSVC\14.44.35207\include\xmemory
; File C:\Program Files\Microsoft Visual Studio\2022\Professional\VC\Tools\MSVC\14.44.35207\include\xstring
; File C:\Program Files\Microsoft Visual Studio\2022\Professional\VC\Tools\MSVC\14.44.35207\include\__msvc_string_view.hpp
; File C:\Program Files\Microsoft Visual Studio\2022\Professional\VC\Tools\MSVC\14.44.35207\include\xstring
; File C:\Program Files\Microsoft Visual Studio\2022\Professional\VC\Tools\MSVC\14.44.35207\include\__msvc_string_view.hpp
; File C:\Program Files\Microsoft Visual Studio\2022\Professional\VC\Tools\MSVC\14.44.35207\include\xstring
; File C:\Program Files\Microsoft Visual Studio\2022\Professional\VC\Tools\MSVC\14.44.35207\include\__msvc_string_view.hpp
; File C:\Program Files\Microsoft Visual Studio\2022\Professional\VC\Tools\MSVC\14.44.35207\include\xstring
; File C:\Program Files\Microsoft Visual Studio\2022\Professional\VC\Tools\MSVC\14.44.35207\include\__msvc_string_view.hpp
; File C:\Program Files\Microsoft Visual Studio\2022\Professional\VC\Tools\MSVC\14.44.35207\include\xstring
; File C:\Program Files\Microsoft Visual Studio\2022\Professional\VC\Tools\MSVC\14.44.35207\include\xmemory
; File C:\Program Files\Microsoft Visual Studio\2022\Professional\VC\Tools\MSVC\14.44.35207\include\xstring
; File C:\Program Files\Microsoft Visual Studio\2022\Professional\VC\Tools\MSVC\14.44.35207\include\xmemory
; File C:\Program Files\Microsoft Visual Studio\2022\Professional\VC\Tools\MSVC\14.44.35207\include\xstring
;	COMDAT ??4?$basic_string@DU?$char_traits@D@std@@V?$allocator@D@2@@std@@QAEAAV01@QBD@Z
_TEXT	SEGMENT
__Old$1$ = -8						; size = 4
$T1 = -4						; size = 4
__Ptr$ = 8						; size = 4
??4?$basic_string@DU?$char_traits@D@std@@V?$allocator@D@2@@std@@QAEAAV01@QBD@Z PROC ; std::basic_string<char,std::char_traits<char>,std::allocator<char> >::operator=, COMDAT
; _this$ = ecx

; 1445 :     _CONSTEXPR20 basic_string& operator=(_In_z_ const _Elem* const _Ptr) {

  00000	55		 push	 ebp
  00001	8b ec		 mov	 ebp, esp
; File C:\Program Files\Microsoft Visual Studio\2022\Professional\VC\Tools\MSVC\14.44.35207\include\__msvc_string_view.hpp

; 459  :         return _CSTD strlen(reinterpret_cast<const char*>(_First));

  00003	8b 55 08	 mov	 edx, DWORD PTR __Ptr$[ebp]
; File C:\Program Files\Microsoft Visual Studio\2022\Professional\VC\Tools\MSVC\14.44.35207\include\xstring

; 1445 :     _CONSTEXPR20 basic_string& operator=(_In_z_ const _Elem* const _Ptr) {

  00006	83 ec 08	 sub	 esp, 8
  00009	53		 push	 ebx
  0000a	56		 push	 esi
; File C:\Program Files\Microsoft Visual Studio\2022\Professional\VC\Tools\MSVC\14.44.35207\include\__msvc_string_view.hpp

; 459  :         return _CSTD strlen(reinterpret_cast<const char*>(_First));

  0000b	8b f2		 mov	 esi, edx
; File C:\Program Files\Microsoft Visual Studio\2022\Professional\VC\Tools\MSVC\14.44.35207\include\xstring

; 1445 :     _CONSTEXPR20 basic_string& operator=(_In_z_ const _Elem* const _Ptr) {

  0000d	57		 push	 edi
  0000e	8b f9		 mov	 edi, ecx
; File C:\Program Files\Microsoft Visual Studio\2022\Professional\VC\Tools\MSVC\14.44.35207\include\__msvc_string_view.hpp

; 459  :         return _CSTD strlen(reinterpret_cast<const char*>(_First));

  00010	8d 4e 01	 lea	 ecx, DWORD PTR [esi+1]
$LL76@operator:
  00013	8a 06		 mov	 al, BYTE PTR [esi]
  00015	46		 inc	 esi
  00016	84 c0		 test	 al, al
  00018	75 f9		 jne	 SHORT $LL76@operator
  0001a	2b f1		 sub	 esi, ecx
; File C:\Program Files\Microsoft Visual Studio\2022\Professional\VC\Tools\MSVC\14.44.35207\include\xstring

; 1618 :         if (_Count <= _Mypair._Myval2._Myres) {

  0001c	8b 4f 14	 mov	 ecx, DWORD PTR [edi+20]
  0001f	89 4d f8	 mov	 DWORD PTR __Old$1$[ebp], ecx
  00022	3b f1		 cmp	 esi, ecx
  00024	77 26		 ja	 SHORT $LN9@operator

; 435  :         value_type* _Result = _Bx._Buf;

  00026	8b df		 mov	 ebx, edi

; 453  :         return _Myres > _Small_string_capacity;

  00028	83 f9 0f	 cmp	 ecx, 15			; 0000000fH

; 436  :         if (_Large_mode_engaged()) {

  0002b	76 02		 jbe	 SHORT $LN12@operator

; 437  :             _Result = _Unfancy(_Bx._Ptr);

  0002d	8b 1f		 mov	 ebx, DWORD PTR [edi]
$LN12@operator:
; File C:\Program Files\Microsoft Visual Studio\2022\Professional\VC\Tools\MSVC\14.44.35207\include\__msvc_string_view.hpp

; 174  :         _CSTD memmove(_First1, _First2, _Count * sizeof(_Elem));

  0002f	56		 push	 esi
  00030	52		 push	 edx
  00031	53		 push	 ebx
; File C:\Program Files\Microsoft Visual Studio\2022\Professional\VC\Tools\MSVC\14.44.35207\include\xstring

; 1621 :             _Mypair._Myval2._Mysize = _Count;

  00032	89 77 10	 mov	 DWORD PTR [edi+16], esi
; File C:\Program Files\Microsoft Visual Studio\2022\Professional\VC\Tools\MSVC\14.44.35207\include\__msvc_string_view.hpp

; 174  :         _CSTD memmove(_First1, _First2, _Count * sizeof(_Elem));

  00035	e8 00 00 00 00	 call	 _memmove
  0003a	83 c4 0c	 add	 esp, 12			; 0000000cH
; File C:\Program Files\Microsoft Visual Studio\2022\Professional\VC\Tools\MSVC\14.44.35207\include\xstring

; 1623 :             _Traits::assign(_Old_ptr[_Count], _Elem());

  0003d	c6 04 33 00	 mov	 BYTE PTR [ebx+esi], 0

; 1446 :         return assign(_Ptr);

  00041	8b c7		 mov	 eax, edi

; 1447 :     }

  00043	5f		 pop	 edi
  00044	5e		 pop	 esi
  00045	5b		 pop	 ebx
  00046	8b e5		 mov	 esp, ebp
  00048	5d		 pop	 ebp
  00049	c2 04 00	 ret	 4
$LN9@operator:

; 2998 :         if (_New_size > max_size()) {

  0004c	81 fe ff ff ff
	7f		 cmp	 esi, 2147483647		; 7fffffffH
  00052	0f 87 d1 00 00
	00		 ja	 $LN91@operator

; 2978 :         const size_type _Masked = _Requested | _Alloc_mask;

  00058	8b de		 mov	 ebx, esi
  0005a	83 cb 0f	 or	 ebx, 15			; 0000000fH
  0005d	81 fb ff ff ff
	7f		 cmp	 ebx, 2147483647		; 7fffffffH

; 2979 :         if (_Masked > _Max) { // the mask overflows, settle for max_size()

  00063	76 12		 jbe	 SHORT $LN30@operator

; 2980 :             return _Max;

  00065	b8 00 00 00 80	 mov	 eax, -2147483648	; 80000000H
  0006a	bb ff ff ff 7f	 mov	 ebx, 2147483647		; 7fffffffH
; File C:\Program Files\Microsoft Visual Studio\2022\Professional\VC\Tools\MSVC\14.44.35207\include\xmemory

; 253  :             return _Allocate_manually_vector_aligned<_Traits>(_Bytes);

  0006f	50		 push	 eax
  00070	e8 00 00 00 00	 call	 ??$_Allocate_manually_vector_aligned@U_Default_allocate_traits@std@@@std@@YAPAXI@Z ; std::_Allocate_manually_vector_aligned<std::_Default_allocate_traits>
  00075	eb 45		 jmp	 SHORT $LN89@operator
$LN30@operator:
; File C:\Program Files\Microsoft Visual Studio\2022\Professional\VC\Tools\MSVC\14.44.35207\include\xstring

; 2983 :         if (_Old > _Max - _Old / 2) { // similarly, geometric overflows

  00077	8b d1		 mov	 edx, ecx
  00079	b8 ff ff ff 7f	 mov	 eax, 2147483647		; 7fffffffH
  0007e	d1 ea		 shr	 edx, 1
  00080	2b c2		 sub	 eax, edx
  00082	3b c8		 cmp	 ecx, eax
  00084	76 12		 jbe	 SHORT $LN31@operator

; 2984 :             return _Max;

  00086	b8 00 00 00 80	 mov	 eax, -2147483648	; 80000000H
  0008b	bb ff ff ff 7f	 mov	 ebx, 2147483647		; 7fffffffH
; File C:\Program Files\Microsoft Visual Studio\2022\Professional\VC\Tools\MSVC\14.44.35207\include\xmemory

; 253  :             return _Allocate_manually_vector_aligned<_Traits>(_Bytes);

  00090	50		 push	 eax
  00091	e8 00 00 00 00	 call	 ??$_Allocate_manually_vector_aligned@U_Default_allocate_traits@std@@@std@@YAPAXI@Z ; std::_Allocate_manually_vector_aligned<std::_Default_allocate_traits>
  00096	eb 24		 jmp	 SHORT $LN89@operator
$LN31@operator:
; File C:\Program Files\Microsoft Visual Studio\2022\Professional\VC\Tools\MSVC\14.44.35207\include\xstring

; 2987 :         return (_STD max)(_Masked, _Old + _Old / 2);

  00098	8d 04 0a	 lea	 eax, DWORD PTR [edx+ecx]
  0009b	3b d8		 cmp	 ebx, eax
  0009d	0f 42 d8	 cmovb	 ebx, eax

; 825  :         ++_Capacity; // Take null terminator into consideration

  000a0	8d 43 01	 lea	 eax, DWORD PTR [ebx+1]
; File C:\Program Files\Microsoft Visual Studio\2022\Professional\VC\Tools\MSVC\14.44.35207\include\xmemory

; 227  :     if (_Bytes == 0) {

  000a3	85 c0		 test	 eax, eax
  000a5	74 18		 je	 SHORT $LN88@operator
$LN44@operator:

; 228  :         return nullptr;
; 229  :     }
; 230  : 
; 231  : #if _HAS_CXX20 // TRANSITION, GH-1532
; 232  :     if (_STD is_constant_evaluated()) {
; 233  :         return _Traits::_Allocate(_Bytes);
; 234  :     }
; 235  : #endif // _HAS_CXX20
; 236  : 
; 237  : #ifdef __cpp_aligned_new
; 238  :     if constexpr (_Align > __STDCPP_DEFAULT_NEW_ALIGNMENT__) {
; 239  :         size_t _Passed_align = _Align;
; 240  : #if defined(_M_IX86) || defined(_M_X64)
; 241  :         if (_Bytes >= _Big_allocation_threshold) {
; 242  :             // boost the alignment of big allocations to help autovectorization
; 243  :             _Passed_align = (_STD max)(_Align, _Big_allocation_alignment);
; 244  :         }
; 245  : #endif // defined(_M_IX86) || defined(_M_X64)
; 246  :         return _Traits::_Allocate_aligned(_Bytes, _Passed_align);
; 247  :     } else
; 248  : #endif // defined(__cpp_aligned_new)
; 249  :     {
; 250  : #if defined(_M_IX86) || defined(_M_X64)
; 251  :         if (_Bytes >= _Big_allocation_threshold) {

  000a7	3d 00 10 00 00	 cmp	 eax, 4096		; 00001000H
  000ac	72 08		 jb	 SHORT $LN45@operator

; 253  :             return _Allocate_manually_vector_aligned<_Traits>(_Bytes);

  000ae	50		 push	 eax
  000af	e8 00 00 00 00	 call	 ??$_Allocate_manually_vector_aligned@U_Default_allocate_traits@std@@@std@@YAPAXI@Z ; std::_Allocate_manually_vector_aligned<std::_Default_allocate_traits>
  000b4	eb 06		 jmp	 SHORT $LN89@operator
$LN45@operator:

; 136  :         return ::operator new(_Bytes);

  000b6	50		 push	 eax
  000b7	e8 00 00 00 00	 call	 ??2@YAPAXI@Z		; operator new
$LN89@operator:
; File C:\Program Files\Microsoft Visual Studio\2022\Professional\VC\Tools\MSVC\14.44.35207\include\xstring

; 3009 :         _Mypair._Myval2._Mysize = _New_size;

  000bc	83 c4 04	 add	 esp, 4
$LN88@operator:
; File C:\Program Files\Microsoft Visual Studio\2022\Professional\VC\Tools\MSVC\14.44.35207\include\__msvc_string_view.hpp

; 121  :         _CSTD memcpy(_First1, _First2, _Count * sizeof(_Elem));

  000bf	56		 push	 esi
  000c0	ff 75 08	 push	 DWORD PTR __Ptr$[ebp]
; File C:\Program Files\Microsoft Visual Studio\2022\Professional\VC\Tools\MSVC\14.44.35207\include\xstring

; 3009 :         _Mypair._Myval2._Mysize = _New_size;

  000c3	89 45 fc	 mov	 DWORD PTR $T1[ebp], eax
; File C:\Program Files\Microsoft Visual Studio\2022\Professional\VC\Tools\MSVC\14.44.35207\include\__msvc_string_view.hpp

; 121  :         _CSTD memcpy(_First1, _First2, _Count * sizeof(_Elem));

  000c6	50		 push	 eax
; File C:\Program Files\Microsoft Visual Studio\2022\Professional\VC\Tools\MSVC\14.44.35207\include\xstring

; 3009 :         _Mypair._Myval2._Mysize = _New_size;

  000c7	89 77 10	 mov	 DWORD PTR [edi+16], esi

; 3010 :         _Mypair._Myval2._Myres  = _New_capacity;

  000ca	89 5f 14	 mov	 DWORD PTR [edi+20], ebx
; File C:\Program Files\Microsoft Visual Studio\2022\Professional\VC\Tools\MSVC\14.44.35207\include\__msvc_string_view.hpp

; 121  :         _CSTD memcpy(_First1, _First2, _Count * sizeof(_Elem));

  000cd	e8 00 00 00 00	 call	 _memcpy
; File C:\Program Files\Microsoft Visual Studio\2022\Professional\VC\Tools\MSVC\14.44.35207\include\xstring

; 1632 :                 _Traits::assign(_New_ptr[_Count], _Elem());

  000d2	8b 5d fc	 mov	 ebx, DWORD PTR $T1[ebp]
; File C:\Program Files\Microsoft Visual Studio\2022\Professional\VC\Tools\MSVC\14.44.35207\include\__msvc_string_view.hpp

; 121  :         _CSTD memcpy(_First1, _First2, _Count * sizeof(_Elem));

  000d5	83 c4 0c	 add	 esp, 12			; 0000000cH
; File C:\Program Files\Microsoft Visual Studio\2022\Professional\VC\Tools\MSVC\14.44.35207\include\xstring

; 3012 :         if (_Old_capacity > _Small_string_capacity) {

  000d8	8b 45 f8	 mov	 eax, DWORD PTR __Old$1$[ebp]

; 1632 :                 _Traits::assign(_New_ptr[_Count], _Elem());

  000db	c6 04 33 00	 mov	 BYTE PTR [ebx+esi], 0

; 3012 :         if (_Old_capacity > _Small_string_capacity) {

  000df	83 f8 0f	 cmp	 eax, 15			; 0000000fH
  000e2	76 29		 jbe	 SHORT $LN23@operator

; 852  :         _Al.deallocate(_Old_ptr, _Capacity + 1); // +1 for null terminator

  000e4	8d 48 01	 lea	 ecx, DWORD PTR [eax+1]
; File C:\Program Files\Microsoft Visual Studio\2022\Professional\VC\Tools\MSVC\14.44.35207\include\xmemory

; 985  :         _STD _Deallocate<_New_alignof<_Ty>>(_Ptr, sizeof(_Ty) * _Count);

  000e7	8b 07		 mov	 eax, DWORD PTR [edi]

; 284  :         if (_Bytes >= _Big_allocation_threshold) {

  000e9	81 f9 00 10 00
	00		 cmp	 ecx, 4096		; 00001000H
  000ef	72 12		 jb	 SHORT $LN67@operator

; 205  :     const uintptr_t _Ptr_container   = _Ptr_user[-1];

  000f1	8b 50 fc	 mov	 edx, DWORD PTR [eax-4]
  000f4	83 c1 23	 add	 ecx, 35			; 00000023H

; 206  : 
; 207  :     // If the following asserts, it likely means that we are performing
; 208  :     // an aligned delete on memory coming from an unaligned allocation.
; 209  :     _STL_ASSERT(_Ptr_user[-2] == _Big_allocation_sentinel, "invalid argument");
; 210  : 
; 211  :     // Extra paranoia on aligned allocation/deallocation; ensure _Ptr_container is
; 212  :     // in range [_Min_back_shift, _Non_user_size]
; 213  : #ifdef _DEBUG
; 214  :     constexpr uintptr_t _Min_back_shift = 2 * sizeof(void*);
; 215  : #else // ^^^ defined(_DEBUG) / !defined(_DEBUG) vvv
; 216  :     constexpr uintptr_t _Min_back_shift = sizeof(void*);
; 217  : #endif // ^^^ !defined(_DEBUG) ^^^
; 218  :     const uintptr_t _Back_shift = reinterpret_cast<uintptr_t>(_Ptr) - _Ptr_container;

  000f7	2b c2		 sub	 eax, edx

; 219  :     _STL_VERIFY(_Back_shift >= _Min_back_shift && _Back_shift <= _Non_user_size, "invalid argument");

  000f9	83 c0 fc	 add	 eax, -4			; fffffffcH
  000fc	83 f8 1f	 cmp	 eax, 31			; 0000001fH
  000ff	77 19		 ja	 SHORT $LN66@operator

; 220  :     _Ptr = reinterpret_cast<void*>(_Ptr_container);

  00101	8b c2		 mov	 eax, edx
$LN67@operator:

; 289  :         ::operator delete(_Ptr, _Bytes);

  00103	51		 push	 ecx
  00104	50		 push	 eax
  00105	e8 00 00 00 00	 call	 ??3@YAXPAXI@Z		; operator delete
  0010a	83 c4 08	 add	 esp, 8
$LN23@operator:
; File C:\Program Files\Microsoft Visual Studio\2022\Professional\VC\Tools\MSVC\14.44.35207\include\xstring

; 1628 :         return _Reallocate_for(

  0010d	89 1f		 mov	 DWORD PTR [edi], ebx

; 1446 :         return assign(_Ptr);

  0010f	8b c7		 mov	 eax, edi

; 1447 :     }

  00111	5f		 pop	 edi
  00112	5e		 pop	 esi
  00113	5b		 pop	 ebx
  00114	8b e5		 mov	 esp, ebp
  00116	5d		 pop	 ebp
  00117	c2 04 00	 ret	 4
$LN66@operator:
; File C:\Program Files\Microsoft Visual Studio\2022\Professional\VC\Tools\MSVC\14.44.35207\include\xmemory

; 219  :     _STL_VERIFY(_Back_shift >= _Min_back_shift && _Back_shift <= _Non_user_size, "invalid argument");

  0011a	6a 00		 push	 0
  0011c	6a 00		 push	 0
  0011e	6a 00		 push	 0
  00120	6a 00		 push	 0
  00122	6a 00		 push	 0
  00124	e8 00 00 00 00	 call	 __invoke_watson
$LN91@operator:
; File C:\Program Files\Microsoft Visual Studio\2022\Professional\VC\Tools\MSVC\14.44.35207\include\xstring

; 2999 :             _Xlen_string(); // result too long

  00129	e8 00 00 00 00	 call	 ?_Xlen_string@std@@YAXXZ ; std::_Xlen_string
$LN87@operator:
  0012e	cc		 int	 3
??4?$basic_string@DU?$char_traits@D@std@@V?$allocator@D@2@@std@@QAEAAV01@QBD@Z ENDP ; std::basic_string<char,std::char_traits<char>,std::allocator<char> >::operator=
_TEXT	ENDS
; Function compile flags: /Ogtp
; File C:\Program Files\Microsoft Visual Studio\2022\Professional\VC\Tools\MSVC\14.44.35207\include\xstring
;	COMDAT ?_Xlen_string@std@@YAXXZ
_TEXT	SEGMENT
?_Xlen_string@std@@YAXXZ PROC				; std::_Xlen_string, COMDAT

; 531  :     _Xlength_error("string too long");

  00000	68 00 00 00 00	 push	 OFFSET ??_C@_0BA@JFNIOLAK@string?5too?5long@
  00005	e8 00 00 00 00	 call	 ?_Xlength_error@std@@YAXPBD@Z ; std::_Xlength_error
$LN3@Xlen_strin:
  0000a	cc		 int	 3
?_Xlen_string@std@@YAXXZ ENDP				; std::_Xlen_string
_TEXT	ENDS
; Function compile flags: /Ogtp
; File C:\Program Files\Microsoft Visual Studio\2022\Professional\VC\Tools\MSVC\14.44.35207\include\xmemory
;	COMDAT ?_Throw_bad_array_new_length@std@@YAXXZ
_TEXT	SEGMENT
$T1 = -12						; size = 12
?_Throw_bad_array_new_length@std@@YAXXZ PROC		; std::_Throw_bad_array_new_length, COMDAT

; 107  : [[noreturn]] inline void _Throw_bad_array_new_length() {

  00000	55		 push	 ebp
  00001	8b ec		 mov	 ebp, esp
  00003	83 ec 0c	 sub	 esp, 12			; 0000000cH

; 108  :     _THROW(bad_array_new_length{});

  00006	8d 4d f4	 lea	 ecx, DWORD PTR $T1[ebp]
  00009	e8 00 00 00 00	 call	 ??0bad_array_new_length@std@@QAE@XZ ; std::bad_array_new_length::bad_array_new_length
  0000e	68 00 00 00 00	 push	 OFFSET __TI3?AVbad_array_new_length@std@@
  00013	8d 45 f4	 lea	 eax, DWORD PTR $T1[ebp]
  00016	50		 push	 eax
  00017	e8 00 00 00 00	 call	 __CxxThrowException@8
$LN3@Throw_bad_:
  0001c	cc		 int	 3
?_Throw_bad_array_new_length@std@@YAXXZ ENDP		; std::_Throw_bad_array_new_length
_TEXT	ENDS
; Function compile flags: /Ogtp
; File C:\Program Files\Microsoft Visual Studio\2022\Professional\VC\Tools\MSVC\14.44.35207\include\vcruntime_exception.h
;	COMDAT ??_Gbad_array_new_length@std@@UAEPAXI@Z
_TEXT	SEGMENT
___flags$ = 8						; size = 4
??_Gbad_array_new_length@std@@UAEPAXI@Z PROC		; std::bad_array_new_length::`scalar deleting destructor', COMDAT
; _this$ = ecx
  00000	55		 push	 ebp
  00001	8b ec		 mov	 ebp, esp

; 90   :     {

  00003	56		 push	 esi
  00004	8b f1		 mov	 esi, ecx

; 91   :         __std_exception_destroy(&_Data);

  00006	8d 46 04	 lea	 eax, DWORD PTR [esi+4]
  00009	c7 06 00 00 00
	00		 mov	 DWORD PTR [esi], OFFSET ??_7exception@std@@6B@
  0000f	50		 push	 eax
  00010	e8 00 00 00 00	 call	 ___std_exception_destroy
  00015	83 c4 04	 add	 esp, 4
  00018	f6 45 08 01	 test	 BYTE PTR ___flags$[ebp], 1
  0001c	74 0b		 je	 SHORT $LN18@scalar
  0001e	6a 0c		 push	 12			; 0000000cH
  00020	56		 push	 esi
  00021	e8 00 00 00 00	 call	 ??3@YAXPAXI@Z		; operator delete
  00026	83 c4 08	 add	 esp, 8
$LN18@scalar:
  00029	8b c6		 mov	 eax, esi
  0002b	5e		 pop	 esi
  0002c	5d		 pop	 ebp
  0002d	c2 04 00	 ret	 4
??_Gbad_array_new_length@std@@UAEPAXI@Z ENDP		; std::bad_array_new_length::`scalar deleting destructor'
_TEXT	ENDS
; Function compile flags: /Ogtp
; File C:\Program Files\Microsoft Visual Studio\2022\Professional\VC\Tools\MSVC\14.44.35207\include\vcruntime_exception.h
;	COMDAT ??0bad_array_new_length@std@@QAE@ABV01@@Z
_TEXT	SEGMENT
___that$ = 8						; size = 4
??0bad_array_new_length@std@@QAE@ABV01@@Z PROC		; std::bad_array_new_length::bad_array_new_length, COMDAT
; _this$ = ecx
  00000	55		 push	 ebp
  00001	8b ec		 mov	 ebp, esp

; 73   :     {

  00003	56		 push	 esi
  00004	8b f1		 mov	 esi, ecx
  00006	0f 57 c0	 xorps	 xmm0, xmm0

; 72   :         : _Data()

  00009	8d 46 04	 lea	 eax, DWORD PTR [esi+4]

; 74   :         __std_exception_copy(&_Other._Data, &_Data);

  0000c	50		 push	 eax
  0000d	c7 06 00 00 00
	00		 mov	 DWORD PTR [esi], OFFSET ??_7exception@std@@6B@
  00013	66 0f d6 00	 movq	 QWORD PTR [eax], xmm0
  00017	8b 45 08	 mov	 eax, DWORD PTR ___that$[ebp]
  0001a	83 c0 04	 add	 eax, 4
  0001d	50		 push	 eax
  0001e	e8 00 00 00 00	 call	 ___std_exception_copy
  00023	83 c4 08	 add	 esp, 8
  00026	c7 06 00 00 00
	00		 mov	 DWORD PTR [esi], OFFSET ??_7bad_array_new_length@std@@6B@
  0002c	8b c6		 mov	 eax, esi
  0002e	5e		 pop	 esi
  0002f	5d		 pop	 ebp
  00030	c2 04 00	 ret	 4
??0bad_array_new_length@std@@QAE@ABV01@@Z ENDP		; std::bad_array_new_length::bad_array_new_length
_TEXT	ENDS
; Function compile flags: /Ogtp
; File C:\Program Files\Microsoft Visual Studio\2022\Professional\VC\Tools\MSVC\14.44.35207\include\vcruntime_exception.h
;	COMDAT ??1bad_array_new_length@std@@UAE@XZ
_TEXT	SEGMENT
??1bad_array_new_length@std@@UAE@XZ PROC		; std::bad_array_new_length::~bad_array_new_length, COMDAT
; _this$ = ecx

; 91   :         __std_exception_destroy(&_Data);

  00000	8d 41 04	 lea	 eax, DWORD PTR [ecx+4]
  00003	c7 01 00 00 00
	00		 mov	 DWORD PTR [ecx], OFFSET ??_7exception@std@@6B@
  00009	50		 push	 eax
  0000a	e8 00 00 00 00	 call	 ___std_exception_destroy
  0000f	59		 pop	 ecx
  00010	c3		 ret	 0
??1bad_array_new_length@std@@UAE@XZ ENDP		; std::bad_array_new_length::~bad_array_new_length
_TEXT	ENDS
; Function compile flags: /Ogtp
; File C:\Program Files\Microsoft Visual Studio\2022\Professional\VC\Tools\MSVC\14.44.35207\include\vcruntime_exception.h
;	COMDAT ??0bad_array_new_length@std@@QAE@XZ
_TEXT	SEGMENT
??0bad_array_new_length@std@@QAE@XZ PROC		; std::bad_array_new_length::bad_array_new_length, COMDAT
; _this$ = ecx

; 144  :     {

  00000	0f 57 c0	 xorps	 xmm0, xmm0

; 145  :     }

  00003	8b c1		 mov	 eax, ecx

; 66   :         : _Data()

  00005	66 0f d6 41 04	 movq	 QWORD PTR [ecx+4], xmm0

; 67   :     {
; 68   :         _Data._What = _Message;

  0000a	c7 41 04 00 00
	00 00		 mov	 DWORD PTR [ecx+4], OFFSET ??_C@_0BF@KINCDENJ@bad?5array?5new?5length@

; 144  :     {

  00011	c7 01 00 00 00
	00		 mov	 DWORD PTR [ecx], OFFSET ??_7bad_array_new_length@std@@6B@

; 145  :     }

  00017	c3		 ret	 0
??0bad_array_new_length@std@@QAE@XZ ENDP		; std::bad_array_new_length::bad_array_new_length
_TEXT	ENDS
; Function compile flags: /Ogtp
; File C:\Program Files\Microsoft Visual Studio\2022\Professional\VC\Tools\MSVC\14.44.35207\include\vcruntime_exception.h
;	COMDAT ??_Gbad_alloc@std@@UAEPAXI@Z
_TEXT	SEGMENT
___flags$ = 8						; size = 4
??_Gbad_alloc@std@@UAEPAXI@Z PROC			; std::bad_alloc::`scalar deleting destructor', COMDAT
; _this$ = ecx
  00000	55		 push	 ebp
  00001	8b ec		 mov	 ebp, esp

; 90   :     {

  00003	56		 push	 esi
  00004	8b f1		 mov	 esi, ecx

; 91   :         __std_exception_destroy(&_Data);

  00006	8d 46 04	 lea	 eax, DWORD PTR [esi+4]
  00009	c7 06 00 00 00
	00		 mov	 DWORD PTR [esi], OFFSET ??_7exception@std@@6B@
  0000f	50		 push	 eax
  00010	e8 00 00 00 00	 call	 ___std_exception_destroy
  00015	83 c4 04	 add	 esp, 4
  00018	f6 45 08 01	 test	 BYTE PTR ___flags$[ebp], 1
  0001c	74 0b		 je	 SHORT $LN13@scalar
  0001e	6a 0c		 push	 12			; 0000000cH
  00020	56		 push	 esi
  00021	e8 00 00 00 00	 call	 ??3@YAXPAXI@Z		; operator delete
  00026	83 c4 08	 add	 esp, 8
$LN13@scalar:
  00029	8b c6		 mov	 eax, esi
  0002b	5e		 pop	 esi
  0002c	5d		 pop	 ebp
  0002d	c2 04 00	 ret	 4
??_Gbad_alloc@std@@UAEPAXI@Z ENDP			; std::bad_alloc::`scalar deleting destructor'
_TEXT	ENDS
; Function compile flags: /Ogtp
; File C:\Program Files\Microsoft Visual Studio\2022\Professional\VC\Tools\MSVC\14.44.35207\include\vcruntime_exception.h
;	COMDAT ??0bad_alloc@std@@QAE@ABV01@@Z
_TEXT	SEGMENT
___that$ = 8						; size = 4
??0bad_alloc@std@@QAE@ABV01@@Z PROC			; std::bad_alloc::bad_alloc, COMDAT
; _this$ = ecx
  00000	55		 push	 ebp
  00001	8b ec		 mov	 ebp, esp

; 73   :     {

  00003	56		 push	 esi
  00004	8b f1		 mov	 esi, ecx
  00006	0f 57 c0	 xorps	 xmm0, xmm0

; 72   :         : _Data()

  00009	8d 46 04	 lea	 eax, DWORD PTR [esi+4]

; 74   :         __std_exception_copy(&_Other._Data, &_Data);

  0000c	50		 push	 eax
  0000d	c7 06 00 00 00
	00		 mov	 DWORD PTR [esi], OFFSET ??_7exception@std@@6B@
  00013	66 0f d6 00	 movq	 QWORD PTR [eax], xmm0
  00017	8b 45 08	 mov	 eax, DWORD PTR ___that$[ebp]
  0001a	83 c0 04	 add	 eax, 4
  0001d	50		 push	 eax
  0001e	e8 00 00 00 00	 call	 ___std_exception_copy
  00023	83 c4 08	 add	 esp, 8
  00026	c7 06 00 00 00
	00		 mov	 DWORD PTR [esi], OFFSET ??_7bad_alloc@std@@6B@
  0002c	8b c6		 mov	 eax, esi
  0002e	5e		 pop	 esi
  0002f	5d		 pop	 ebp
  00030	c2 04 00	 ret	 4
??0bad_alloc@std@@QAE@ABV01@@Z ENDP			; std::bad_alloc::bad_alloc
_TEXT	ENDS
; Function compile flags: /Ogtp
; File C:\Program Files\Microsoft Visual Studio\2022\Professional\VC\Tools\MSVC\14.44.35207\include\vcruntime_exception.h
;	COMDAT ??_Gexception@std@@UAEPAXI@Z
_TEXT	SEGMENT
___flags$ = 8						; size = 4
??_Gexception@std@@UAEPAXI@Z PROC			; std::exception::`scalar deleting destructor', COMDAT
; _this$ = ecx
  00000	55		 push	 ebp
  00001	8b ec		 mov	 ebp, esp

; 90   :     {

  00003	56		 push	 esi
  00004	8b f1		 mov	 esi, ecx

; 91   :         __std_exception_destroy(&_Data);

  00006	8d 46 04	 lea	 eax, DWORD PTR [esi+4]
  00009	c7 06 00 00 00
	00		 mov	 DWORD PTR [esi], OFFSET ??_7exception@std@@6B@
  0000f	50		 push	 eax
  00010	e8 00 00 00 00	 call	 ___std_exception_destroy
  00015	83 c4 04	 add	 esp, 4
  00018	f6 45 08 01	 test	 BYTE PTR ___flags$[ebp], 1
  0001c	74 0b		 je	 SHORT $LN8@scalar
  0001e	6a 0c		 push	 12			; 0000000cH
  00020	56		 push	 esi
  00021	e8 00 00 00 00	 call	 ??3@YAXPAXI@Z		; operator delete
  00026	83 c4 08	 add	 esp, 8
$LN8@scalar:
  00029	8b c6		 mov	 eax, esi
  0002b	5e		 pop	 esi
  0002c	5d		 pop	 ebp
  0002d	c2 04 00	 ret	 4
??_Gexception@std@@UAEPAXI@Z ENDP			; std::exception::`scalar deleting destructor'
_TEXT	ENDS
; Function compile flags: /Ogtp
; File C:\Program Files\Microsoft Visual Studio\2022\Professional\VC\Tools\MSVC\14.44.35207\include\vcruntime_exception.h
;	COMDAT ?what@exception@std@@UBEPBDXZ
_TEXT	SEGMENT
?what@exception@std@@UBEPBDXZ PROC			; std::exception::what, COMDAT
; _this$ = ecx

