; Listing generated by Microsoft (R) Optimizing Compiler Version 19.44.35225.0 

	TITLE	C:\IAGOS\server\v18\Source\Output\WorldServer\Release\NpcProperty.obj
	.686P
	.XMM
	include listing.inc
	.model	flat

INCLUDELIB LIBCMT
INCLUDELIB OLDNAMES

PUBLIC	?__empty_global_delete@@YAXPAX@Z		; __empty_global_delete
PUBLIC	?__empty_global_delete@@YAXPAXI@Z		; __empty_global_delete
PUBLIC	??0CNpcProperty@@QAE@XZ				; CNpcProperty::CNpcProperty
PUBLIC	??1CNpcProperty@@UAE@XZ				; CNpcProperty::~CNpcProperty
PUBLIC	?LoadDialog@CNpcProperty@@QAEHPAUtagCHARACTER@@@Z ; CNpcProperty::LoadDialog
PUBLIC	?IsDialogLoaded@CNpcProperty@@QAEHXZ		; CNpcProperty::IsDialogLoaded
PUBLIC	?IsTimeOut@CNpcProperty@@QAEHXZ			; CNpcProperty::IsTimeOut
PUBLIC	?ResetTimer@CNpcProperty@@QAEXXZ		; CNpcProperty::ResetTimer
PUBLIC	?RunDialog@CNpcProperty@@QAEHPBDPAHHHHH@Z	; CNpcProperty::RunDialog
PUBLIC	??_GCNpcProperty@@UAEPAXI@Z			; CNpcProperty::`scalar deleting destructor'
PUBLIC	?GetReturn@CNpcDialogInfo@@UAEHXZ		; CNpcDialogInfo::GetReturn
PUBLIC	?GetDstId@CNpcDialogInfo@@UAEHXZ		; CNpcDialogInfo::GetDstId
PUBLIC	?GetSrcId@CNpcDialogInfo@@UAEHXZ		; CNpcDialogInfo::GetSrcId
PUBLIC	?GetCaller@CNpcDialogInfo@@UAEHXZ		; CNpcDialogInfo::GetCaller
PUBLIC	?GetQuest@CNpcDialogInfo@@UAEHXZ		; CNpcDialogInfo::GetQuest
PUBLIC	?GetNpcId@CNpcDialogInfo@@UAEHXZ		; CNpcDialogInfo::GetNpcId
PUBLIC	?GetPcId@CNpcDialogInfo@@UAEHXZ			; CNpcDialogInfo::GetPcId
PUBLIC	?GetGlobal@CNpcDialogInfo@@UAEPAHXZ		; CNpcDialogInfo::GetGlobal
PUBLIC	?GetName@CNpcDialogInfo@@UAEPBDXZ		; CNpcDialogInfo::GetName
PUBLIC	?GetFunctions@CNpcDialogInfo@@UAEPAUFunctions@@XZ ; CNpcDialogInfo::GetFunctions
PUBLIC	??_7CNpcProperty@@6B@				; CNpcProperty::`vftable'
PUBLIC	??_7NPCDIALOG_INFO@@6B@				; NPCDIALOG_INFO::`vftable'
PUBLIC	??_7CNpcDialogInfo@@6B@				; CNpcDialogInfo::`vftable'
PUBLIC	??_R4CNpcProperty@@6B@				; CNpcProperty::`RTTI Complete Object Locator'
PUBLIC	??_R0?AVCNpcProperty@@@8			; CNpcProperty `RTTI Type Descriptor'
PUBLIC	??_R3CNpcProperty@@8				; CNpcProperty::`RTTI Class Hierarchy Descriptor'
PUBLIC	??_R2CNpcProperty@@8				; CNpcProperty::`RTTI Base Class Array'
PUBLIC	??_R1A@?0A@EA@CNpcProperty@@8			; CNpcProperty::`RTTI Base Class Descriptor at (0,-1,0,64)'
PUBLIC	??_R4NPCDIALOG_INFO@@6B@			; NPCDIALOG_INFO::`RTTI Complete Object Locator'
PUBLIC	??_R0?AUNPCDIALOG_INFO@@@8			; NPCDIALOG_INFO `RTTI Type Descriptor'
PUBLIC	??_R3NPCDIALOG_INFO@@8				; NPCDIALOG_INFO::`RTTI Class Hierarchy Descriptor'
PUBLIC	??_R2NPCDIALOG_INFO@@8				; NPCDIALOG_INFO::`RTTI Base Class Array'
PUBLIC	??_R1A@?0A@EA@NPCDIALOG_INFO@@8			; NPCDIALOG_INFO::`RTTI Base Class Descriptor at (0,-1,0,64)'
PUBLIC	??_R4CNpcDialogInfo@@6B@			; CNpcDialogInfo::`RTTI Complete Object Locator'
PUBLIC	??_R0?AVCNpcDialogInfo@@@8			; CNpcDialogInfo `RTTI Type Descriptor'
PUBLIC	??_R3CNpcDialogInfo@@8				; CNpcDialogInfo::`RTTI Class Hierarchy Descriptor'
PUBLIC	??_R2CNpcDialogInfo@@8				; CNpcDialogInfo::`RTTI Base Class Array'
PUBLIC	??_R1A@?0A@EA@CNpcDialogInfo@@8			; CNpcDialogInfo::`RTTI Base Class Descriptor at (0,-1,0,64)'
EXTRN	__purecall:PROC
EXTRN	??3@YAXPAXI@Z:PROC				; operator delete
EXTRN	__imp__GetTickCount@0:PROC
EXTRN	__mbslwr:PROC
EXTRN	??_ECNpcProperty@@UAEPAXI@Z:PROC		; CNpcProperty::`vector deleting destructor'
EXTRN	?Run@CWorldDialog@@QAEHPBD0PAUNPCDIALOG_INFO@@@Z:PROC ; CWorldDialog::Run
EXTRN	?GetInstance@CWorldDialog@@SAAAV1@XZ:PROC	; CWorldDialog::GetInstance
EXTRN	?RunPredefineKey@@YAHPBDAAVCNpcDialogInfo@@@Z:PROC ; RunPredefineKey
EXTRN	?GetDialogFunctions@@YAPAUFunctions@@XZ:PROC	; GetDialogFunctions
EXTRN	??_7type_info@@6B@:QWORD			; type_info::`vftable'
EXTRN	?g_next@@3KA:DWORD				; g_next
;	COMDAT ??_R1A@?0A@EA@CNpcDialogInfo@@8
rdata$r	SEGMENT
??_R1A@?0A@EA@CNpcDialogInfo@@8 DD FLAT:??_R0?AVCNpcDialogInfo@@@8 ; CNpcDialogInfo::`RTTI Base Class Descriptor at (0,-1,0,64)'
	DD	01H
	DD	00H
	DD	0ffffffffH
	DD	00H
	DD	040H
	DD	FLAT:??_R3CNpcDialogInfo@@8
rdata$r	ENDS
;	COMDAT ??_R2CNpcDialogInfo@@8
rdata$r	SEGMENT
??_R2CNpcDialogInfo@@8 DD FLAT:??_R1A@?0A@EA@CNpcDialogInfo@@8 ; CNpcDialogInfo::`RTTI Base Class Array'
	DD	FLAT:??_R1A@?0A@EA@NPCDIALOG_INFO@@8
rdata$r	ENDS
;	COMDAT ??_R3CNpcDialogInfo@@8
rdata$r	SEGMENT
??_R3CNpcDialogInfo@@8 DD 00H				; CNpcDialogInfo::`RTTI Class Hierarchy Descriptor'
	DD	00H
	DD	02H
	DD	FLAT:??_R2CNpcDialogInfo@@8
rdata$r	ENDS
;	COMDAT ??_R0?AVCNpcDialogInfo@@@8
data$rs	SEGMENT
??_R0?AVCNpcDialogInfo@@@8 DD FLAT:??_7type_info@@6B@	; CNpcDialogInfo `RTTI Type Descriptor'
	DD	00H
	DB	'.?AVCNpcDialogInfo@@', 00H
data$rs	ENDS
;	COMDAT ??_R4CNpcDialogInfo@@6B@
rdata$r	SEGMENT
??_R4CNpcDialogInfo@@6B@ DD 00H				; CNpcDialogInfo::`RTTI Complete Object Locator'
	DD	00H
	DD	00H
	DD	FLAT:??_R0?AVCNpcDialogInfo@@@8
	DD	FLAT:??_R3CNpcDialogInfo@@8
rdata$r	ENDS
;	COMDAT ??_R1A@?0A@EA@NPCDIALOG_INFO@@8
rdata$r	SEGMENT
??_R1A@?0A@EA@NPCDIALOG_INFO@@8 DD FLAT:??_R0?AUNPCDIALOG_INFO@@@8 ; NPCDIALOG_INFO::`RTTI Base Class Descriptor at (0,-1,0,64)'
	DD	00H
	DD	00H
	DD	0ffffffffH
	DD	00H
	DD	040H
	DD	FLAT:??_R3NPCDIALOG_INFO@@8
rdata$r	ENDS
;	COMDAT ??_R2NPCDIALOG_INFO@@8
rdata$r	SEGMENT
??_R2NPCDIALOG_INFO@@8 DD FLAT:??_R1A@?0A@EA@NPCDIALOG_INFO@@8 ; NPCDIALOG_INFO::`RTTI Base Class Array'
rdata$r	ENDS
;	COMDAT ??_R3NPCDIALOG_INFO@@8
rdata$r	SEGMENT
??_R3NPCDIALOG_INFO@@8 DD 00H				; NPCDIALOG_INFO::`RTTI Class Hierarchy Descriptor'
	DD	00H
	DD	01H
	DD	FLAT:??_R2NPCDIALOG_INFO@@8
rdata$r	ENDS
;	COMDAT ??_R0?AUNPCDIALOG_INFO@@@8
data$rs	SEGMENT
??_R0?AUNPCDIALOG_INFO@@@8 DD FLAT:??_7type_info@@6B@	; NPCDIALOG_INFO `RTTI Type Descriptor'
	DD	00H
	DB	'.?AUNPCDIALOG_INFO@@', 00H
data$rs	ENDS
;	COMDAT ??_R4NPCDIALOG_INFO@@6B@
rdata$r	SEGMENT
??_R4NPCDIALOG_INFO@@6B@ DD 00H				; NPCDIALOG_INFO::`RTTI Complete Object Locator'
	DD	00H
	DD	00H
	DD	FLAT:??_R0?AUNPCDIALOG_INFO@@@8
	DD	FLAT:??_R3NPCDIALOG_INFO@@8
rdata$r	ENDS
;	COMDAT ??_R1A@?0A@EA@CNpcProperty@@8
rdata$r	SEGMENT
??_R1A@?0A@EA@CNpcProperty@@8 DD FLAT:??_R0?AVCNpcProperty@@@8 ; CNpcProperty::`RTTI Base Class Descriptor at (0,-1,0,64)'
	DD	00H
	DD	00H
	DD	0ffffffffH
	DD	00H
	DD	040H
	DD	FLAT:??_R3CNpcProperty@@8
rdata$r	ENDS
;	COMDAT ??_R2CNpcProperty@@8
rdata$r	SEGMENT
??_R2CNpcProperty@@8 DD FLAT:??_R1A@?0A@EA@CNpcProperty@@8 ; CNpcProperty::`RTTI Base Class Array'
rdata$r	ENDS
;	COMDAT ??_R3CNpcProperty@@8
rdata$r	SEGMENT
??_R3CNpcProperty@@8 DD 00H				; CNpcProperty::`RTTI Class Hierarchy Descriptor'
	DD	00H
	DD	01H
	DD	FLAT:??_R2CNpcProperty@@8
rdata$r	ENDS
;	COMDAT ??_R0?AVCNpcProperty@@@8
data$rs	SEGMENT
??_R0?AVCNpcProperty@@@8 DD FLAT:??_7type_info@@6B@	; CNpcProperty `RTTI Type Descriptor'
	DD	00H
	DB	'.?AVCNpcProperty@@', 00H
data$rs	ENDS
;	COMDAT ??_R4CNpcProperty@@6B@
rdata$r	SEGMENT
??_R4CNpcProperty@@6B@ DD 00H				; CNpcProperty::`RTTI Complete Object Locator'
	DD	00H
	DD	00H
	DD	FLAT:??_R0?AVCNpcProperty@@@8
	DD	FLAT:??_R3CNpcProperty@@8
rdata$r	ENDS
;	COMDAT ??_7CNpcDialogInfo@@6B@
CONST	SEGMENT
??_7CNpcDialogInfo@@6B@ DD FLAT:??_R4CNpcDialogInfo@@6B@ ; CNpcDialogInfo::`vftable'
	DD	FLAT:?GetReturn@CNpcDialogInfo@@UAEHXZ
	DD	FLAT:?GetDstId@CNpcDialogInfo@@UAEHXZ
	DD	FLAT:?GetSrcId@CNpcDialogInfo@@UAEHXZ
	DD	FLAT:?GetCaller@CNpcDialogInfo@@UAEHXZ
	DD	FLAT:?GetQuest@CNpcDialogInfo@@UAEHXZ
	DD	FLAT:?GetNpcId@CNpcDialogInfo@@UAEHXZ
	DD	FLAT:?GetPcId@CNpcDialogInfo@@UAEHXZ
	DD	FLAT:?GetGlobal@CNpcDialogInfo@@UAEPAHXZ
	DD	FLAT:?GetName@CNpcDialogInfo@@UAEPBDXZ
	DD	FLAT:?GetFunctions@CNpcDialogInfo@@UAEPAUFunctions@@XZ
CONST	ENDS
;	COMDAT ??_7NPCDIALOG_INFO@@6B@
CONST	SEGMENT
??_7NPCDIALOG_INFO@@6B@ DD FLAT:??_R4NPCDIALOG_INFO@@6B@ ; NPCDIALOG_INFO::`vftable'
	DD	FLAT:__purecall
	DD	FLAT:__purecall
	DD	FLAT:__purecall
	DD	FLAT:__purecall
	DD	FLAT:__purecall
	DD	FLAT:__purecall
	DD	FLAT:__purecall
	DD	FLAT:__purecall
	DD	FLAT:__purecall
	DD	FLAT:__purecall
CONST	ENDS
;	COMDAT ??_7CNpcProperty@@6B@
CONST	SEGMENT
??_7CNpcProperty@@6B@ DD FLAT:??_R4CNpcProperty@@6B@	; CNpcProperty::`vftable'
	DD	FLAT:??_ECNpcProperty@@UAEPAXI@Z
CONST	ENDS
; Function compile flags: /Ogtp
; File C:\IAGOS\server\v18\Source\Source\WorldServer\WorldDialog.h
;	COMDAT ?GetFunctions@CNpcDialogInfo@@UAEPAUFunctions@@XZ
_TEXT	SEGMENT
?GetFunctions@CNpcDialogInfo@@UAEPAUFunctions@@XZ PROC	; CNpcDialogInfo::GetFunctions, COMDAT
; _this$ = ecx

; 26   : 	virtual Functions*  GetFunctions() { return m_pFuctions; }

  00000	8b 41 1c	 mov	 eax, DWORD PTR [ecx+28]
  00003	c3		 ret	 0
?GetFunctions@CNpcDialogInfo@@UAEPAUFunctions@@XZ ENDP	; CNpcDialogInfo::GetFunctions
_TEXT	ENDS
; Function compile flags: /Ogtp
; File C:\IAGOS\server\v18\Source\Source\WorldServer\WorldDialog.h
;	COMDAT ?GetName@CNpcDialogInfo@@UAEPBDXZ
_TEXT	SEGMENT
?GetName@CNpcDialogInfo@@UAEPBDXZ PROC			; CNpcDialogInfo::GetName, COMDAT
; _this$ = ecx

; 25   : 	virtual LPCTSTR		GetName()    { return m_pszName; }

  00000	8b 41 18	 mov	 eax, DWORD PTR [ecx+24]
  00003	c3		 ret	 0
?GetName@CNpcDialogInfo@@UAEPBDXZ ENDP			; CNpcDialogInfo::GetName
_TEXT	ENDS
; Function compile flags: /Ogtp
; File C:\IAGOS\server\v18\Source\Source\WorldServer\WorldDialog.h
;	COMDAT ?GetGlobal@CNpcDialogInfo@@UAEPAHXZ
_TEXT	SEGMENT
?GetGlobal@CNpcDialogInfo@@UAEPAHXZ PROC		; CNpcDialogInfo::GetGlobal, COMDAT
; _this$ = ecx

; 24   : 	virtual int*		GetGlobal()  { return m_pnGlobal; }

  00000	8b 41 14	 mov	 eax, DWORD PTR [ecx+20]
  00003	c3		 ret	 0
?GetGlobal@CNpcDialogInfo@@UAEPAHXZ ENDP		; CNpcDialogInfo::GetGlobal
_TEXT	ENDS
; Function compile flags: /Ogtp
; File C:\IAGOS\server\v18\Source\Source\WorldServer\WorldDialog.h
;	COMDAT ?GetPcId@CNpcDialogInfo@@UAEHXZ
_TEXT	SEGMENT
?GetPcId@CNpcDialogInfo@@UAEHXZ PROC			; CNpcDialogInfo::GetPcId, COMDAT
; _this$ = ecx

; 23   : 	virtual int			GetPcId()    { return GetSrcId(); }

  00000	8b 01		 mov	 eax, DWORD PTR [ecx]
  00002	ff 60 08	 jmp	 DWORD PTR [eax+8]
?GetPcId@CNpcDialogInfo@@UAEHXZ ENDP			; CNpcDialogInfo::GetPcId
_TEXT	ENDS
; Function compile flags: /Ogtp
; File C:\IAGOS\server\v18\Source\Source\WorldServer\WorldDialog.h
;	COMDAT ?GetNpcId@CNpcDialogInfo@@UAEHXZ
_TEXT	SEGMENT
?GetNpcId@CNpcDialogInfo@@UAEHXZ PROC			; CNpcDialogInfo::GetNpcId, COMDAT
; _this$ = ecx

; 22   : 	virtual int			GetNpcId()   { return GetDstId(); }

  00000	8b 01		 mov	 eax, DWORD PTR [ecx]
  00002	ff 60 04	 jmp	 DWORD PTR [eax+4]
?GetNpcId@CNpcDialogInfo@@UAEHXZ ENDP			; CNpcDialogInfo::GetNpcId
_TEXT	ENDS
; Function compile flags: /Ogtp
; File C:\IAGOS\server\v18\Source\Source\WorldServer\WorldDialog.h
;	COMDAT ?GetQuest@CNpcDialogInfo@@UAEHXZ
_TEXT	SEGMENT
?GetQuest@CNpcDialogInfo@@UAEHXZ PROC			; CNpcDialogInfo::GetQuest, COMDAT
; _this$ = ecx

; 21   : 	virtual int			GetQuest()   { return m_nQuestId; }

  00000	8b 41 10	 mov	 eax, DWORD PTR [ecx+16]
  00003	c3		 ret	 0
?GetQuest@CNpcDialogInfo@@UAEHXZ ENDP			; CNpcDialogInfo::GetQuest
_TEXT	ENDS
; Function compile flags: /Ogtp
; File C:\IAGOS\server\v18\Source\Source\WorldServer\WorldDialog.h
;	COMDAT ?GetCaller@CNpcDialogInfo@@UAEHXZ
_TEXT	SEGMENT
?GetCaller@CNpcDialogInfo@@UAEHXZ PROC			; CNpcDialogInfo::GetCaller, COMDAT
; _this$ = ecx

; 20   : 	virtual int			GetCaller()  { return WES_DIALOG; }	// WES_DIALOG - 5

  00000	b8 05 00 00 00	 mov	 eax, 5
  00005	c3		 ret	 0
?GetCaller@CNpcDialogInfo@@UAEHXZ ENDP			; CNpcDialogInfo::GetCaller
_TEXT	ENDS
; Function compile flags: /Ogtp
; File C:\IAGOS\server\v18\Source\Source\WorldServer\WorldDialog.h
;	COMDAT ?GetSrcId@CNpcDialogInfo@@UAEHXZ
_TEXT	SEGMENT
?GetSrcId@CNpcDialogInfo@@UAEHXZ PROC			; CNpcDialogInfo::GetSrcId, COMDAT
; _this$ = ecx

; 19   : 	virtual int			GetSrcId()   { return m_nSrcId; }

  00000	8b 41 08	 mov	 eax, DWORD PTR [ecx+8]
  00003	c3		 ret	 0
?GetSrcId@CNpcDialogInfo@@UAEHXZ ENDP			; CNpcDialogInfo::GetSrcId
_TEXT	ENDS
; Function compile flags: /Ogtp
; File C:\IAGOS\server\v18\Source\Source\WorldServer\WorldDialog.h
;	COMDAT ?GetDstId@CNpcDialogInfo@@UAEHXZ
_TEXT	SEGMENT
?GetDstId@CNpcDialogInfo@@UAEHXZ PROC			; CNpcDialogInfo::GetDstId, COMDAT
; _this$ = ecx

; 18   : 	virtual int			GetDstId()   { return m_nDstId; }

  00000	8b 41 0c	 mov	 eax, DWORD PTR [ecx+12]
  00003	c3		 ret	 0
?GetDstId@CNpcDialogInfo@@UAEHXZ ENDP			; CNpcDialogInfo::GetDstId
_TEXT	ENDS
; Function compile flags: /Ogtp
; File C:\IAGOS\server\v18\Source\Source\WorldServer\WorldDialog.h
;	COMDAT ?GetReturn@CNpcDialogInfo@@UAEHXZ
_TEXT	SEGMENT
?GetReturn@CNpcDialogInfo@@UAEHXZ PROC			; CNpcDialogInfo::GetReturn, COMDAT
; _this$ = ecx

; 17   : 	virtual int			GetReturn()  { return m_nValue; }

  00000	8b 41 04	 mov	 eax, DWORD PTR [ecx+4]
  00003	c3		 ret	 0
?GetReturn@CNpcDialogInfo@@UAEHXZ ENDP			; CNpcDialogInfo::GetReturn
_TEXT	ENDS
; Function compile flags: /Ogtp
;	COMDAT ??_GCNpcProperty@@UAEPAXI@Z
_TEXT	SEGMENT
___flags$ = 8						; size = 4
??_GCNpcProperty@@UAEPAXI@Z PROC			; CNpcProperty::`scalar deleting destructor', COMDAT
; _this$ = ecx
  00000	55		 push	 ebp
  00001	8b ec		 mov	 ebp, esp
  00003	56		 push	 esi
  00004	8b f1		 mov	 esi, ecx
  00006	e8 00 00 00 00	 call	 ??1CNpcProperty@@UAE@XZ	; CNpcProperty::~CNpcProperty
  0000b	f6 45 08 01	 test	 BYTE PTR ___flags$[ebp], 1
  0000f	74 0b		 je	 SHORT $LN5@scalar
  00011	6a 4c		 push	 76			; 0000004cH
  00013	56		 push	 esi
  00014	e8 00 00 00 00	 call	 ??3@YAXPAXI@Z		; operator delete
  00019	83 c4 08	 add	 esp, 8
$LN5@scalar:
  0001c	8b c6		 mov	 eax, esi
  0001e	5e		 pop	 esi
  0001f	5d		 pop	 ebp
  00020	c2 04 00	 ret	 4
??_GCNpcProperty@@UAEPAXI@Z ENDP			; CNpcProperty::`scalar deleting destructor'
_TEXT	ENDS
; Function compile flags: /Ogtp
; File C:\IAGOS\server\v18\Source\Source\_Common\NpcProperty.cpp
;	COMDAT ?RunDialog@CNpcProperty@@QAEHPBDPAHHHHH@Z
_TEXT	SEGMENT
_info$ = -32						; size = 32
_szKey$ = 8						; size = 4
_pResult$ = 12						; size = 4
_nValue$ = 16						; size = 4
_nDstId$ = 20						; size = 4
_nSrcId$ = 24						; size = 4
_nQuestId$ = 28						; size = 4
?RunDialog@CNpcProperty@@QAEHPBDPAHHHHH@Z PROC		; CNpcProperty::RunDialog, COMDAT
; _this$ = ecx

; 68   : {

  00000	55		 push	 ebp
  00001	8b ec		 mov	 ebp, esp
  00003	83 ec 20	 sub	 esp, 32			; 00000020H

; 69   : #if! defined(__REMOVE_SCIRPT_060712)
; 70   : 	return m_Dialog.Run( szKey, pResult, nValue, nDstId, nSrcId, nQuestId );
; 71   : #else
; 72   : 	if( m_szName[0] == 0 )		// character.incżˇĽ­ dialog ŔĚ¸§Ŕ» µî·ĎÇĎÁö ľĘŔş °ćżě ´ë»ç°ˇ ľř´Ů°í °ŁÁÖ.

  00006	80 79 04 00	 cmp	 BYTE PTR [ecx+4], 0
  0000a	56		 push	 esi
  0000b	8d 71 04	 lea	 esi, DWORD PTR [ecx+4]
  0000e	74 65		 je	 SHORT $LN12@RunDialog

; 73   : 		return TRUE;
; 74   : 
; 75   : 	if( pResult )

  00010	8b 45 0c	 mov	 eax, DWORD PTR _pResult$[ebp]
  00013	85 c0		 test	 eax, eax
  00015	74 06		 je	 SHORT $LN3@RunDialog

; 76   : 		*pResult = 1;

  00017	c7 00 01 00 00
	00		 mov	 DWORD PTR [eax], 1
$LN3@RunDialog:

; 77   : 
; 78   : 	CNpcDialogInfo info;
; 79   : 	info.m_nValue    = nValue;

  0001d	8b 45 10	 mov	 eax, DWORD PTR _nValue$[ebp]
  00020	89 45 e4	 mov	 DWORD PTR _info$[ebp+4], eax

; 80   : 	info.m_nSrcId    = nSrcId;

  00023	8b 45 18	 mov	 eax, DWORD PTR _nSrcId$[ebp]
  00026	89 45 e8	 mov	 DWORD PTR _info$[ebp+8], eax

; 81   : 	info.m_nDstId    = nDstId;

  00029	8b 45 14	 mov	 eax, DWORD PTR _nDstId$[ebp]
  0002c	89 45 ec	 mov	 DWORD PTR _info$[ebp+12], eax

; 82   : 	info.m_nQuestId  = nQuestId;

  0002f	8b 45 1c	 mov	 eax, DWORD PTR _nQuestId$[ebp]
  00032	89 45 f0	 mov	 DWORD PTR _info$[ebp+16], eax

; 83   : 	info.m_pszName   = m_szName; 
; 84   : 	info.m_pnGlobal  = &m_nGlobal;

  00035	8d 41 44	 lea	 eax, DWORD PTR [ecx+68]
  00038	c7 45 e0 00 00
	00 00		 mov	 DWORD PTR _info$[ebp], OFFSET ??_7CNpcDialogInfo@@6B@
  0003f	89 75 f8	 mov	 DWORD PTR _info$[ebp+24], esi
  00042	89 45 f4	 mov	 DWORD PTR _info$[ebp+20], eax

; 85   : 	info.m_pFuctions = GetDialogFunctions();

  00045	e8 00 00 00 00	 call	 ?GetDialogFunctions@@YAPAUFunctions@@XZ ; GetDialogFunctions
  0004a	89 45 fc	 mov	 DWORD PTR _info$[ebp+28], eax

; 86   : 
; 87   : 	if( RunPredefineKey( szKey, info ) == TRUE )

  0004d	8d 45 e0	 lea	 eax, DWORD PTR _info$[ebp]
  00050	50		 push	 eax
  00051	ff 75 08	 push	 DWORD PTR _szKey$[ebp]
  00054	e8 00 00 00 00	 call	 ?RunPredefineKey@@YAHPBDAAVCNpcDialogInfo@@@Z ; RunPredefineKey
  00059	83 c4 08	 add	 esp, 8
  0005c	83 f8 01	 cmp	 eax, 1
  0005f	74 14		 je	 SHORT $LN12@RunDialog

; 88   : 		return TRUE;
; 89   : 
; 90   : 	CWorldDialog::GetInstance().Run( m_szName, szKey, &info );

  00061	8d 45 e0	 lea	 eax, DWORD PTR _info$[ebp]
  00064	50		 push	 eax
  00065	ff 75 08	 push	 DWORD PTR _szKey$[ebp]
  00068	56		 push	 esi
  00069	e8 00 00 00 00	 call	 ?GetInstance@CWorldDialog@@SAAAV1@XZ ; CWorldDialog::GetInstance
  0006e	8b c8		 mov	 ecx, eax
  00070	e8 00 00 00 00	 call	 ?Run@CWorldDialog@@QAEHPBD0PAUNPCDIALOG_INFO@@@Z ; CWorldDialog::Run
$LN12@RunDialog:

; 91   : 	return TRUE;
; 92   : #endif
; 93   : }

  00075	b8 01 00 00 00	 mov	 eax, 1
  0007a	5e		 pop	 esi
  0007b	8b e5		 mov	 esp, ebp
  0007d	5d		 pop	 ebp
  0007e	c2 18 00	 ret	 24			; 00000018H
?RunDialog@CNpcProperty@@QAEHPBDPAHHHHH@Z ENDP		; CNpcProperty::RunDialog
_TEXT	ENDS
; Function compile flags: /Ogtp
; File C:\IAGOS\server\v18\Source\Source\_Common\NpcProperty.cpp
; File C:\IAGOS\server\v18\Source\Source\_Common\xUtil.h
; File C:\IAGOS\server\v18\Source\Source\_Common\NpcProperty.cpp
; File C:\IAGOS\server\v18\Source\Source\_Common\xUtil.h
; File C:\IAGOS\server\v18\Source\Source\_Common\NpcProperty.cpp
; File C:\IAGOS\server\v18\Source\Source\_Common\xUtil.h
; File C:\IAGOS\server\v18\Source\Source\_Common\NpcProperty.cpp
;	COMDAT ?ResetTimer@CNpcProperty@@QAEXXZ
_TEXT	SEGMENT
?ResetTimer@CNpcProperty@@QAEXXZ PROC			; CNpcProperty::ResetTimer, COMDAT
; _this$ = ecx

; 27   : {

  00000	53		 push	 ebx
  00001	56		 push	 esi
  00002	57		 push	 edi
; File C:\IAGOS\server\v18\Source\Source\_Common\xUtil.h

; 16   : 	g_next = g_next * 1103515245 + 12345;// + nRandomSeed[ i++ ];

  00003	69 3d 00 00 00
	00 6d 4e c6 41	 imul	 edi, DWORD PTR ?g_next@@3KA, 1103515245 ; g_next
; File C:\IAGOS\server\v18\Source\Source\_Common\NpcProperty.cpp

; 27   : {

  0000d	8b d9		 mov	 ebx, ecx
; File C:\IAGOS\server\v18\Source\Source\_Common\xUtil.h

; 16   : 	g_next = g_next * 1103515245 + 12345;// + nRandomSeed[ i++ ];

  0000f	81 c7 39 30 00
	00		 add	 edi, 12345		; 00003039H
  00015	89 3d 00 00 00
	00		 mov	 DWORD PTR ?g_next@@3KA, edi ; g_next
; File C:\IAGOS\server\v18\Source\Source\_Common\NpcProperty.cpp

; 28   : 	m_dwTick = ::GetTickCount() + SEC( 15 ) + SEC( xRandom( 10 ) );

  0001b	ff 15 00 00 00
	00		 call	 DWORD PTR __imp__GetTickCount@0
  00021	8b f0		 mov	 esi, eax
; File C:\IAGOS\server\v18\Source\Source\_Common\xUtil.h

; 22   : 	return  xRand() % num;

  00023	b8 cd cc cc cc	 mov	 eax, -858993459		; cccccccdH
  00028	f7 e7		 mul	 edi
  0002a	c1 ea 03	 shr	 edx, 3
  0002d	8d 0c 92	 lea	 ecx, DWORD PTR [edx+edx*4]
  00030	03 c9		 add	 ecx, ecx
  00032	2b f9		 sub	 edi, ecx
; File C:\IAGOS\server\v18\Source\Source\_Common\NpcProperty.cpp

; 28   : 	m_dwTick = ::GetTickCount() + SEC( 15 ) + SEC( xRandom( 10 ) );

  00034	83 c7 0f	 add	 edi, 15			; 0000000fH
  00037	69 c7 e8 03 00
	00		 imul	 eax, edi, 1000
  0003d	5f		 pop	 edi
  0003e	03 f0		 add	 esi, eax
  00040	89 73 48	 mov	 DWORD PTR [ebx+72], esi
  00043	5e		 pop	 esi
  00044	5b		 pop	 ebx

; 29   : }

  00045	c3		 ret	 0
?ResetTimer@CNpcProperty@@QAEXXZ ENDP			; CNpcProperty::ResetTimer
_TEXT	ENDS
; Function compile flags: /Ogtp
; File C:\IAGOS\server\v18\Source\Source\_Common\NpcProperty.cpp
;	COMDAT ?IsTimeOut@CNpcProperty@@QAEHXZ
_TEXT	SEGMENT
?IsTimeOut@CNpcProperty@@QAEHXZ PROC			; CNpcProperty::IsTimeOut, COMDAT
; _this$ = ecx

; 22   : {

  00000	56		 push	 esi
  00001	8b f1		 mov	 esi, ecx

; 23   : 	return ::GetTickCount() > m_dwTick;

  00003	ff 15 00 00 00
	00		 call	 DWORD PTR __imp__GetTickCount@0
  00009	39 46 48	 cmp	 DWORD PTR [esi+72], eax
  0000c	5e		 pop	 esi
  0000d	1b c0		 sbb	 eax, eax
  0000f	f7 d8		 neg	 eax

; 24   : }

  00011	c3		 ret	 0
?IsTimeOut@CNpcProperty@@QAEHXZ ENDP			; CNpcProperty::IsTimeOut
_TEXT	ENDS
; Function compile flags: /Ogtp
; File C:\IAGOS\server\v18\Source\Source\_Common\NpcProperty.cpp
;	COMDAT ?IsDialogLoaded@CNpcProperty@@QAEHXZ
_TEXT	SEGMENT
?IsDialogLoaded@CNpcProperty@@QAEHXZ PROC		; CNpcProperty::IsDialogLoaded, COMDAT
; _this$ = ecx

; 33   : #if defined(__REMOVE_SCIRPT_060712)
; 34   : 	return m_szName[0] != '\0';

  00000	33 c0		 xor	 eax, eax
  00002	38 41 04	 cmp	 BYTE PTR [ecx+4], al
  00005	0f 95 c0	 setne	 al

; 35   : #else
; 36   : 	return m_Dialog.IsEmpty() == FALSE;
; 37   : #endif
; 38   : }

  00008	c3		 ret	 0
?IsDialogLoaded@CNpcProperty@@QAEHXZ ENDP		; CNpcProperty::IsDialogLoaded
_TEXT	ENDS
; Function compile flags: /Ogtp
; File C:\IAGOS\server\v18\Source\Source\_Common\NpcProperty.cpp
; File C:\Program Files (x86)\Windows Kits\10\Include\10.0.26100.0\ucrt\tchar.h
; File C:\IAGOS\server\v18\Source\Source\_Common\NpcProperty.cpp
; File C:\Program Files (x86)\Windows Kits\10\Include\10.0.26100.0\ucrt\tchar.h
; File C:\IAGOS\server\v18\Source\Source\_Common\NpcProperty.cpp
;	COMDAT ?LoadDialog@CNpcProperty@@QAEHPAUtagCHARACTER@@@Z
_TEXT	SEGMENT
_lpCharacter$ = 8					; size = 4
?LoadDialog@CNpcProperty@@QAEHPAUtagCHARACTER@@@Z PROC	; CNpcProperty::LoadDialog, COMDAT
; _this$ = ecx

; 41   : {

  00000	55		 push	 ebp
  00001	8b ec		 mov	 ebp, esp

; 42   : 	if( lpCharacter->m_szDialog[0] == '\0' )

  00003	8b 55 08	 mov	 edx, DWORD PTR _lpCharacter$[ebp]
  00006	53		 push	 ebx
  00007	81 c2 84 00 00
	00		 add	 edx, 132		; 00000084H
  0000d	8b d9		 mov	 ebx, ecx
  0000f	56		 push	 esi
  00010	57		 push	 edi
  00011	80 3a 00	 cmp	 BYTE PTR [edx], 0
  00014	74 46		 je	 SHORT $LN3@LoadDialog

; 43   : 		return FALSE;
; 44   : 
; 45   : #if defined(__REMOVE_SCIRPT_060712)
; 46   : 	int n = strlen( lpCharacter->m_szDialog ) - 4;

  00016	8b f2		 mov	 esi, edx
  00018	8d 4e 01	 lea	 ecx, DWORD PTR [esi+1]
  0001b	0f 1f 44 00 00	 npad	 5
$LL13@LoadDialog:
  00020	8a 06		 mov	 al, BYTE PTR [esi]
  00022	46		 inc	 esi
  00023	84 c0		 test	 al, al
  00025	75 f9		 jne	 SHORT $LL13@LoadDialog
  00027	2b f1		 sub	 esi, ecx
  00029	8d 7e fc	 lea	 edi, DWORD PTR [esi-4]

; 47   : 	if( n > 0 )

  0002c	85 ff		 test	 edi, edi
  0002e	7e 2c		 jle	 SHORT $LN3@LoadDialog

; 48   : 	{
; 49   : 		strcpy( m_szName, lpCharacter->m_szDialog );

  00030	8d 73 04	 lea	 esi, DWORD PTR [ebx+4]
  00033	8b ce		 mov	 ecx, esi
$LL6@LoadDialog:
  00035	8a 02		 mov	 al, BYTE PTR [edx]
  00037	8d 52 01	 lea	 edx, DWORD PTR [edx+1]
  0003a	88 01		 mov	 BYTE PTR [ecx], al
  0003c	8d 49 01	 lea	 ecx, DWORD PTR [ecx+1]
  0003f	84 c0		 test	 al, al
  00041	75 f2		 jne	 SHORT $LL6@LoadDialog
; File C:\Program Files (x86)\Windows Kits\10\Include\10.0.26100.0\ucrt\tchar.h

; 1848 :     return (char *)_mbslwr((unsigned char *)_String);

  00043	56		 push	 esi
; File C:\IAGOS\server\v18\Source\Source\_Common\NpcProperty.cpp

; 50   : 		m_szName[n] = '\0';

  00044	88 44 1f 04	 mov	 BYTE PTR [edi+ebx+4], al
; File C:\Program Files (x86)\Windows Kits\10\Include\10.0.26100.0\ucrt\tchar.h

; 1848 :     return (char *)_mbslwr((unsigned char *)_String);

  00048	e8 00 00 00 00	 call	 __mbslwr
  0004d	83 c4 04	 add	 esp, 4
; File C:\IAGOS\server\v18\Source\Source\_Common\NpcProperty.cpp

; 52   : 		return TRUE;

  00050	b8 01 00 00 00	 mov	 eax, 1
  00055	5f		 pop	 edi

; 53   : 	}
; 54   : 	else
; 55   : 		return FALSE;
; 56   : #else	// __REMOVE_SCIRPT_060712
; 57   : 
; 58   : 	char lpOutputString[100]	= { 0, };
; 59   : 	sprintf( lpOutputString, "dialog file: %s\n", lpCharacter->m_szDialog );
; 60   : 	OutputDebugString( lpOutputString );
; 61   : 
; 62   : 	m_Dialog.Free();
; 63   : 	return m_Dialog.LoadScript( MakePath( DIR_DIALOG, ::GetLanguage(), lpCharacter->m_szDialog ) );
; 64   : #endif	// not __REMOVE_SCIRPT_060712
; 65   : }

  00056	5e		 pop	 esi
  00057	5b		 pop	 ebx
  00058	5d		 pop	 ebp
  00059	c2 04 00	 ret	 4
$LN3@LoadDialog:
  0005c	5f		 pop	 edi
  0005d	5e		 pop	 esi
  0005e	33 c0		 xor	 eax, eax
  00060	5b		 pop	 ebx
  00061	5d		 pop	 ebp
  00062	c2 04 00	 ret	 4
?LoadDialog@CNpcProperty@@QAEHPAUtagCHARACTER@@@Z ENDP	; CNpcProperty::LoadDialog
_TEXT	ENDS
; Function compile flags: /Ogtp
; File C:\IAGOS\server\v18\Source\Source\_Common\NpcProperty.cpp
;	COMDAT ??1CNpcProperty@@UAE@XZ
_TEXT	SEGMENT
??1CNpcProperty@@UAE@XZ PROC				; CNpcProperty::~CNpcProperty, COMDAT
; _this$ = ecx

; 18   : {

  00000	c7 01 00 00 00
	00		 mov	 DWORD PTR [ecx], OFFSET ??_7CNpcProperty@@6B@

; 19   : }

  00006	c3		 ret	 0
??1CNpcProperty@@UAE@XZ ENDP				; CNpcProperty::~CNpcProperty
_TEXT	ENDS
; Function compile flags: /Ogtp
; File C:\IAGOS\server\v18\Source\Source\_Common\NpcProperty.cpp
; File C:\IAGOS\server\v18\Source\Source\_Common\xUtil.h
; File C:\IAGOS\server\v18\Source\Source\_Common\NpcProperty.cpp
; File C:\IAGOS\server\v18\Source\Source\_Common\xUtil.h
; File C:\IAGOS\server\v18\Source\Source\_Common\NpcProperty.cpp
; File C:\IAGOS\server\v18\Source\Source\_Common\xUtil.h
; File C:\IAGOS\server\v18\Source\Source\_Common\NpcProperty.cpp
;	COMDAT ??0CNpcProperty@@QAE@XZ
_TEXT	SEGMENT
??0CNpcProperty@@QAE@XZ PROC				; CNpcProperty::CNpcProperty, COMDAT
; _this$ = ecx

; 10   : {

  00000	53		 push	 ebx
  00001	8b d9		 mov	 ebx, ecx
  00003	56		 push	 esi
  00004	57		 push	 edi
  00005	c7 03 00 00 00
	00		 mov	 DWORD PTR [ebx], OFFSET ??_7CNpcProperty@@6B@
; File C:\IAGOS\server\v18\Source\Source\_Common\xUtil.h

; 16   : 	g_next = g_next * 1103515245 + 12345;// + nRandomSeed[ i++ ];

  0000b	69 3d 00 00 00
	00 6d 4e c6 41	 imul	 edi, DWORD PTR ?g_next@@3KA, 1103515245 ; g_next
  00015	81 c7 39 30 00
	00		 add	 edi, 12345		; 00003039H
  0001b	89 3d 00 00 00
	00		 mov	 DWORD PTR ?g_next@@3KA, edi ; g_next
; File C:\IAGOS\server\v18\Source\Source\_Common\NpcProperty.cpp

; 11   : 	m_dwTick = ::GetTickCount() + MIN( 1 ) + xRandom( SEC( 30 ) );

  00021	ff 15 00 00 00
	00		 call	 DWORD PTR __imp__GetTickCount@0
  00027	8b f0		 mov	 esi, eax

; 12   : #if defined(__REMOVE_SCIRPT_060712)
; 13   : 	m_szName[0] = '\0';

  00029	c6 43 04 00	 mov	 BYTE PTR [ebx+4], 0
; File C:\IAGOS\server\v18\Source\Source\_Common\xUtil.h

; 22   : 	return  xRand() % num;

  0002d	b8 73 b2 e7 45	 mov	 eax, 1172812403		; 45e7b273H
  00032	f7 e7		 mul	 edi
  00034	c1 ea 0d	 shr	 edx, 13			; 0000000dH
; File C:\IAGOS\server\v18\Source\Source\_Common\NpcProperty.cpp

; 11   : 	m_dwTick = ::GetTickCount() + MIN( 1 ) + xRandom( SEC( 30 ) );

  00037	69 ca 30 75 00
	00		 imul	 ecx, edx, 30000
; File C:\IAGOS\server\v18\Source\Source\_Common\xUtil.h

; 22   : 	return  xRand() % num;

  0003d	2b f9		 sub	 edi, ecx
; File C:\IAGOS\server\v18\Source\Source\_Common\NpcProperty.cpp

; 11   : 	m_dwTick = ::GetTickCount() + MIN( 1 ) + xRandom( SEC( 30 ) );

  0003f	8d 87 60 ea 00
	00		 lea	 eax, DWORD PTR [edi+60000]
  00045	03 c6		 add	 eax, esi

; 14   : #endif
; 15   : }

  00047	5f		 pop	 edi
  00048	89 43 48	 mov	 DWORD PTR [ebx+72], eax
  0004b	8b c3		 mov	 eax, ebx
  0004d	5e		 pop	 esi
  0004e	5b		 pop	 ebx
  0004f	c3		 ret	 0
??0CNpcProperty@@QAE@XZ ENDP				; CNpcProperty::CNpcProperty
_TEXT	ENDS
; Function compile flags: /Ogtp
; File C:\IAGOS\server\v18\Source\Source\_Common\NpcProperty.cpp
;	COMDAT ?__empty_global_delete@@YAXPAXI@Z
_TEXT	SEGMENT
___formal$ = 8						; size = 4
___formal$ = 12						; size = 4
?__empty_global_delete@@YAXPAXI@Z PROC			; __empty_global_delete, COMDAT

  00000	c2 00 00	 ret	 0
?__empty_global_delete@@YAXPAXI@Z ENDP			; __empty_global_delete
_TEXT	ENDS
; Function compile flags: /Ogtp
; File C:\IAGOS\server\v18\Source\Source\_Common\NpcProperty.cpp
;	COMDAT ?__empty_global_delete@@YAXPAX@Z
_TEXT	SEGMENT
___formal$ = 8						; size = 4
?__empty_global_delete@@YAXPAX@Z PROC			; __empty_global_delete, COMDAT

  00000	c2 00 00	 ret	 0
?__empty_global_delete@@YAXPAX@Z ENDP			; __empty_global_delete
_TEXT	ENDS
END
