; Listing generated by Microsoft (R) Optimizing Compiler Version 19.44.35225.0 

	TITLE	C:\IAGOS\server\v18\Source\Output\WorldServer\Release\Obj.obj
	.686P
	.XMM
	include listing.inc
	.model	flat

INCLUDELIB LIBCMT
INCLUDELIB OLDNAMES

PUBLIC	?m_nMethod@CObj@@2HA				; CObj::m_nMethod
PUBLIC	?m_pObjHighlight@CObj@@2PAV1@A			; CObj::m_pObjHighlight
PUBLIC	?m_pObjActive@CObj@@2PAV1@A			; CObj::m_pObjActive
PUBLIC	?m_bCollision@CObj@@2HA				; CObj::m_bCollision
PUBLIC	?m_bAnimate@CObj@@2HA				; CObj::m_bAnimate
_BSS	SEGMENT
?m_nMethod@CObj@@2HA DD 01H DUP (?)			; CObj::m_nMethod
?m_pObjHighlight@CObj@@2PAV1@A DD 01H DUP (?)		; CObj::m_pObjHighlight
?m_pObjActive@CObj@@2PAV1@A DD 01H DUP (?)		; CObj::m_pObjActive
_BSS	ENDS
_DATA	SEGMENT
?m_bCollision@CObj@@2HA DD 01H				; CObj::m_bCollision
?m_bAnimate@CObj@@2HA DD 01H				; CObj::m_bAnimate
_DATA	ENDS
PUBLIC	??_H@YGXPAXIIP6EPAX0@Z@Z			; `vector constructor iterator'
PUBLIC	?__empty_global_delete@@YAXPAX@Z		; __empty_global_delete
PUBLIC	?__empty_global_delete@@YAXPAXI@Z		; __empty_global_delete
PUBLIC	??0D3DXVECTOR3@@QAE@XZ				; D3DXVECTOR3::D3DXVECTOR3
PUBLIC	??0CObj@@QAE@XZ					; CObj::CObj
PUBLIC	??1CObj@@UAE@XZ					; CObj::~CObj
PUBLIC	?SetMotion@CObj@@UAEHKHK@Z			; CObj::SetMotion
PUBLIC	?InitMotion@CObj@@UAEHK@Z			; CObj::InitMotion
PUBLIC	?LoadModel@CObj@@UAEPAVCModel@@PAUIDirect3DDevice9@@KK@Z ; CObj::LoadModel
PUBLIC	?InitProp@CObj@@UAEXH@Z				; CObj::InitProp
PUBLIC	?GetName@CObj@@UAEPBDXZ				; CObj::GetName
PUBLIC	?Process@CObj@@UAEXXZ				; CObj::Process
PUBLIC	?Read@CObj@@UAEHPAVCFileIO@@@Z			; CObj::Read
PUBLIC	?Render@CObj@@UAEXPAUIDirect3DDevice9@@@Z	; CObj::Render
PUBLIC	?RenderName@CObj@@UAEXPAUIDirect3DDevice9@@PAVCD3DFont@@K@Z ; CObj::RenderName
PUBLIC	?SetIndex@CObj@@UAEHPAUIDirect3DDevice9@@KH@Z	; CObj::SetIndex
PUBLIC	?AddAngleX@CObj@@QAEXM@Z			; CObj::AddAngleX
PUBLIC	?SetAngleX@CObj@@QAEXM@Z			; CObj::SetAngleX
PUBLIC	?UpdateLocalMatrix@CObj@@QAEXXZ			; CObj::UpdateLocalMatrix
PUBLIC	?UpdateMatrix@CObj@@QAEXXZ			; CObj::UpdateMatrix
PUBLIC	?IsRangeObj@CObj@@QAEHPAV1@M@Z			; CObj::IsRangeObj
PUBLIC	?IsRangeObj@CObj@@QAEHABUD3DXVECTOR3@@M@Z	; CObj::IsRangeObj
PUBLIC	?InsPrevNode@CObj@@QAEXPAV1@@Z			; CObj::InsPrevNode
PUBLIC	?InsNextNode@CObj@@QAEXPAV1@@Z			; CObj::InsNextNode
PUBLIC	?DelNode@CObj@@QAEXXZ				; CObj::DelNode
PUBLIC	?ResetScale@CObj@@QAEXXZ			; CObj::ResetScale
PUBLIC	?UpdateBoundBox@CObj@@QAEHXZ			; CObj::UpdateBoundBox
PUBLIC	?SetOnLand@CObj@@QAEXXZ				; CObj::SetOnLand
PUBLIC	?SetAIInterface@CObj@@QAEXKK@Z			; CObj::SetAIInterface
PUBLIC	?GetPropA@CObj@@QAEPAUObjProp@@XZ		; CObj::GetPropA
PUBLIC	?SetTypeIndex@CObj@@QAEHPAUIDirect3DDevice9@@KKH@Z ; CObj::SetTypeIndex
PUBLIC	?ProcessAI@CObj@@QAEXXZ				; CObj::ProcessAI
PUBLIC	?ProcessAirShip@CObj@@QAEXXZ			; CObj::ProcessAirShip
PUBLIC	?GetLinkType@CObj@@QAEKXZ			; CObj::GetLinkType
PUBLIC	?Delete@CObj@@QAEXXZ				; CObj::Delete
PUBLIC	?SetPos@CObj@@QAEXABUD3DXVECTOR3@@@Z		; CObj::SetPos
PUBLIC	?SetAngle@CObj@@QAEXM@Z				; CObj::SetAngle
PUBLIC	?AddAngle@CObj@@QAEXM@Z				; CObj::AddAngle
PUBLIC	?SetScale@CObj@@QAEXABUD3DXVECTOR3@@@Z		; CObj::SetScale
PUBLIC	?SetWorld@CObj@@QAEXPAVCWorld@@@Z		; CObj::SetWorld
PUBLIC	?GetRadius@CObj@@QAEMXZ				; CObj::GetRadius
PUBLIC	?GetRadiusXZ@CObj@@QAEMXZ			; CObj::GetRadiusXZ
PUBLIC	?CalcLinkLevel@CObj@@AAEXXZ			; CObj::CalcLinkLevel
PUBLIC	??_GCObj@@UAEPAXI@Z				; CObj::`scalar deleting destructor'
PUBLIC	??_7CObj@@6B@					; CObj::`vftable'
PUBLIC	??_C@_05CJBACGMB@hello@				; `string'
PUBLIC	??_C@_0BE@NPFKIOKI@MODIFYLINK?1?1MAX?1?1?$CFd@	; `string'
PUBLIC	??_R4CObj@@6B@					; CObj::`RTTI Complete Object Locator'
PUBLIC	??_R0?AVCObj@@@8				; CObj `RTTI Type Descriptor'
PUBLIC	??_R3CObj@@8					; CObj::`RTTI Class Hierarchy Descriptor'
PUBLIC	??_R2CObj@@8					; CObj::`RTTI Base Class Array'
PUBLIC	??_R1A@?0A@EA@CObj@@8				; CObj::`RTTI Base Class Descriptor at (0,-1,0,64)'
PUBLIC	__real@00000000
PUBLIC	__real@3c8efa35
PUBLIC	__real@3e2aaaab
PUBLIC	__real@3f000000
PUBLIC	__real@3f4ccccd
PUBLIC	__real@3f76800000000000
PUBLIC	__real@3f800000
PUBLIC	__real@4066c16c16c16c17
PUBLIC	__real@477fff00
PUBLIC	__xmm@7fffffff7fffffff7fffffff7fffffff
PUBLIC	__xmm@7fffffffffffffff7fffffffffffffff
PUBLIC	__xmm@80000000800000008000000080000000
EXTRN	??2@YAPAXI@Z:PROC				; operator new
EXTRN	??3@YAXPAXI@Z:PROC				; operator delete
EXTRN	__isnan:PROC
EXTRN	_D3DXVec3Transform@12:PROC
EXTRN	_D3DXMatrixMultiply@12:PROC
EXTRN	_D3DXMatrixScaling@16:PROC
EXTRN	_D3DXMatrixTranslation@16:PROC
EXTRN	_D3DXMatrixRotationY@8:PROC
EXTRN	_D3DXMatrixRotationYawPitchRoll@16:PROC
EXTRN	?Error@@YAPBDPBDZZ:PROC				; Error
EXTRN	?LoadModel@CModelMng@@QAEPAVCModel@@PAUIDirect3DDevice9@@HHH@Z:PROC ; CModelMng::LoadModel
EXTRN	?UpdateMartix@BBOX@@QAEXABUD3DXVECTOR3@@0ABUD3DXMATRIX@@11@Z:PROC ; BBOX::UpdateMartix
EXTRN	?Serialize@CObj@@UAEXAAVCAr@@@Z:PROC		; CObj::Serialize
EXTRN	??_ECObj@@UAEPAXI@Z:PROC			; CObj::`vector deleting destructor'
EXTRN	?GetPropA@CProject@@QAEPAUObjProp@@HH@Z:PROC	; CProject::GetPropA
EXTRN	?IsAniable@CModel@@QAEHXZ:PROC			; CModel::IsAniable
EXTRN	?CalcLinkLevel@CLayeredLinkMap@@QAEKPAVCObj@@MH@Z:PROC ; CLayeredLinkMap::CalcLinkLevel
EXTRN	?DeleteObj@CWorld@@QAEXPAVCObj@@@Z:PROC		; CWorld::DeleteObj
EXTRN	?GetLandHeight@CWorld@@QAEMABUD3DXVECTOR3@@@Z:PROC ; CWorld::GetLandHeight
EXTRN	??0CAIMonster@@QAE@PAVCObj@@@Z:PROC		; CAIMonster::CAIMonster
EXTRN	??0CAIMonster2@@QAE@PAVCObj@@@Z:PROC		; CAIMonster2::CAIMonster2
EXTRN	??0CAIClockWorks@@QAE@PAVCObj@@@Z:PROC		; CAIClockWorks::CAIClockWorks
EXTRN	??0CAIPet@@QAE@PAVCObj@@@Z:PROC			; CAIPet::CAIPet
EXTRN	??0CAIBigMuscle@@QAE@PAVCObj@@@Z:PROC		; CAIBigMuscle::CAIBigMuscle
EXTRN	??0CAIKrrr@@QAE@PAVCObj@@@Z:PROC		; CAIKrrr::CAIKrrr
EXTRN	??0CAIBear@@QAE@PAVCObj@@@Z:PROC		; CAIBear::CAIBear
EXTRN	??0CAIMeteonyker@@QAE@PAVCObj@@@Z:PROC		; CAIMeteonyker::CAIMeteonyker
EXTRN	??0CAIAggroNormal@@QAE@PAVCObj@@@Z:PROC		; CAIAggroNormal::CAIAggroNormal
EXTRN	@__security_check_cookie@4:PROC
EXTRN	___CxxFrameHandler3:PROC
EXTRN	??_7type_info@@6B@:QWORD			; type_info::`vftable'
EXTRN	?OLD_MPU@@3HB:DWORD				; OLD_MPU
EXTRN	?prj@@3VCProject@@A:BYTE			; prj
EXTRN	___security_cookie:DWORD
EXTRN	__fltused:DWORD
;	COMDAT __xmm@80000000800000008000000080000000
CONST	SEGMENT
__xmm@80000000800000008000000080000000 DB 00H, 00H, 00H, 080H, 00H, 00H, 00H
	DB	080H, 00H, 00H, 00H, 080H, 00H, 00H, 00H, 080H
CONST	ENDS
;	COMDAT __xmm@7fffffffffffffff7fffffffffffffff
CONST	SEGMENT
__xmm@7fffffffffffffff7fffffffffffffff DB 0ffH, 0ffH, 0ffH, 0ffH, 0ffH, 0ffH
	DB	0ffH, 07fH, 0ffH, 0ffH, 0ffH, 0ffH, 0ffH, 0ffH, 0ffH, 07fH
CONST	ENDS
;	COMDAT __xmm@7fffffff7fffffff7fffffff7fffffff
CONST	SEGMENT
__xmm@7fffffff7fffffff7fffffff7fffffff DB 0ffH, 0ffH, 0ffH, 07fH, 0ffH, 0ffH
	DB	0ffH, 07fH, 0ffH, 0ffH, 0ffH, 07fH, 0ffH, 0ffH, 0ffH, 07fH
CONST	ENDS
;	COMDAT __real@477fff00
CONST	SEGMENT
__real@477fff00 DD 0477fff00r			; 65535
CONST	ENDS
;	COMDAT __real@4066c16c16c16c17
CONST	SEGMENT
__real@4066c16c16c16c17 DQ 04066c16c16c16c17r	; 182.044
CONST	ENDS
;	COMDAT __real@3f800000
CONST	SEGMENT
__real@3f800000 DD 03f800000r			; 1
CONST	ENDS
;	COMDAT __real@3f76800000000000
CONST	SEGMENT
__real@3f76800000000000 DQ 03f76800000000000r	; 0.00549316
CONST	ENDS
;	COMDAT __real@3f4ccccd
CONST	SEGMENT
__real@3f4ccccd DD 03f4ccccdr			; 0.8
CONST	ENDS
;	COMDAT __real@3f000000
CONST	SEGMENT
__real@3f000000 DD 03f000000r			; 0.5
CONST	ENDS
;	COMDAT __real@3e2aaaab
CONST	SEGMENT
__real@3e2aaaab DD 03e2aaaabr			; 0.166667
CONST	ENDS
;	COMDAT __real@3c8efa35
CONST	SEGMENT
__real@3c8efa35 DD 03c8efa35r			; 0.0174533
CONST	ENDS
;	COMDAT __real@00000000
CONST	SEGMENT
__real@00000000 DD 000000000r			; 0
CONST	ENDS
;	COMDAT ??_R1A@?0A@EA@CObj@@8
rdata$r	SEGMENT
??_R1A@?0A@EA@CObj@@8 DD FLAT:??_R0?AVCObj@@@8		; CObj::`RTTI Base Class Descriptor at (0,-1,0,64)'
	DD	00H
	DD	00H
	DD	0ffffffffH
	DD	00H
	DD	040H
	DD	FLAT:??_R3CObj@@8
rdata$r	ENDS
;	COMDAT ??_R2CObj@@8
rdata$r	SEGMENT
??_R2CObj@@8 DD	FLAT:??_R1A@?0A@EA@CObj@@8		; CObj::`RTTI Base Class Array'
rdata$r	ENDS
;	COMDAT ??_R3CObj@@8
rdata$r	SEGMENT
??_R3CObj@@8 DD	00H					; CObj::`RTTI Class Hierarchy Descriptor'
	DD	00H
	DD	01H
	DD	FLAT:??_R2CObj@@8
rdata$r	ENDS
;	COMDAT ??_R0?AVCObj@@@8
data$rs	SEGMENT
??_R0?AVCObj@@@8 DD FLAT:??_7type_info@@6B@		; CObj `RTTI Type Descriptor'
	DD	00H
	DB	'.?AVCObj@@', 00H
data$rs	ENDS
;	COMDAT ??_R4CObj@@6B@
rdata$r	SEGMENT
??_R4CObj@@6B@ DD 00H					; CObj::`RTTI Complete Object Locator'
	DD	00H
	DD	00H
	DD	FLAT:??_R0?AVCObj@@@8
	DD	FLAT:??_R3CObj@@8
rdata$r	ENDS
;	COMDAT ??_C@_0BE@NPFKIOKI@MODIFYLINK?1?1MAX?1?1?$CFd@
CONST	SEGMENT
??_C@_0BE@NPFKIOKI@MODIFYLINK?1?1MAX?1?1?$CFd@ DB 'MODIFYLINK//MAX//%d', 00H ; `string'
CONST	ENDS
;	COMDAT ??_C@_05CJBACGMB@hello@
CONST	SEGMENT
??_C@_05CJBACGMB@hello@ DB 'hello', 00H			; `string'
CONST	ENDS
;	COMDAT ??_7CObj@@6B@
CONST	SEGMENT
??_7CObj@@6B@ DD FLAT:??_R4CObj@@6B@			; CObj::`vftable'
	DD	FLAT:??_ECObj@@UAEPAXI@Z
	DD	FLAT:?SetMotion@CObj@@UAEHKHK@Z
	DD	FLAT:?InitMotion@CObj@@UAEHK@Z
	DD	FLAT:?LoadModel@CObj@@UAEPAVCModel@@PAUIDirect3DDevice9@@KK@Z
	DD	FLAT:?InitProp@CObj@@UAEXH@Z
	DD	FLAT:?GetName@CObj@@UAEPBDXZ
	DD	FLAT:?Process@CObj@@UAEXXZ
	DD	FLAT:?Read@CObj@@UAEHPAVCFileIO@@@Z
	DD	FLAT:?Serialize@CObj@@UAEXAAVCAr@@@Z
	DD	FLAT:?Render@CObj@@UAEXPAUIDirect3DDevice9@@@Z
	DD	FLAT:?RenderName@CObj@@UAEXPAUIDirect3DDevice9@@PAVCD3DFont@@K@Z
	DD	FLAT:?SetIndex@CObj@@UAEHPAUIDirect3DDevice9@@KH@Z
CONST	ENDS
;	COMDAT xdata$x
xdata$x	SEGMENT
__ehfuncinfo$?SetAIInterface@CObj@@QAEXKK@Z DD 019930522H
	DD	0bH
	DD	FLAT:__unwindtable$?SetAIInterface@CObj@@QAEXKK@Z
	DD	2 DUP(00H)
	DD	2 DUP(00H)
	DD	00H
	DD	01H
__unwindtable$?SetAIInterface@CObj@@QAEXKK@Z DD 0ffffffffH
	DD	FLAT:__unwindfunclet$?SetAIInterface@CObj@@QAEXKK@Z$0
	DD	0ffffffffH
	DD	FLAT:__unwindfunclet$?SetAIInterface@CObj@@QAEXKK@Z$1
	DD	0ffffffffH
	DD	FLAT:__unwindfunclet$?SetAIInterface@CObj@@QAEXKK@Z$2
	DD	0ffffffffH
	DD	FLAT:__unwindfunclet$?SetAIInterface@CObj@@QAEXKK@Z$3
	DD	0ffffffffH
	DD	FLAT:__unwindfunclet$?SetAIInterface@CObj@@QAEXKK@Z$4
	DD	0ffffffffH
	DD	FLAT:__unwindfunclet$?SetAIInterface@CObj@@QAEXKK@Z$5
	DD	0ffffffffH
	DD	FLAT:__unwindfunclet$?SetAIInterface@CObj@@QAEXKK@Z$6
	DD	0ffffffffH
	DD	FLAT:__unwindfunclet$?SetAIInterface@CObj@@QAEXKK@Z$7
	DD	0ffffffffH
	DD	FLAT:__unwindfunclet$?SetAIInterface@CObj@@QAEXKK@Z$8
	DD	0ffffffffH
	DD	FLAT:__unwindfunclet$?SetAIInterface@CObj@@QAEXKK@Z$9
	DD	0ffffffffH
	DD	FLAT:__unwindfunclet$?SetAIInterface@CObj@@QAEXKK@Z$10
xdata$x	ENDS
;	COMDAT xdata$x
xdata$x	SEGMENT
__ehfuncinfo$??1CObj@@UAE@XZ DD 019930522H
	DD	00H
	DD	00H
	DD	2 DUP(00H)
	DD	2 DUP(00H)
	DD	00H
	DD	05H
xdata$x	ENDS
; Function compile flags: /Ogtp
;	COMDAT ??_GCObj@@UAEPAXI@Z
_TEXT	SEGMENT
___flags$ = 8						; size = 4
??_GCObj@@UAEPAXI@Z PROC				; CObj::`scalar deleting destructor', COMDAT
; _this$ = ecx
  00000	55		 push	 ebp
  00001	8b ec		 mov	 ebp, esp
  00003	56		 push	 esi
  00004	8b f1		 mov	 esi, ecx
  00006	e8 00 00 00 00	 call	 ??1CObj@@UAE@XZ		; CObj::~CObj
  0000b	f6 45 08 01	 test	 BYTE PTR ___flags$[ebp], 1
  0000f	74 0e		 je	 SHORT $LN5@scalar
  00011	68 bc 01 00 00	 push	 444			; 000001bcH
  00016	56		 push	 esi
  00017	e8 00 00 00 00	 call	 ??3@YAXPAXI@Z		; operator delete
  0001c	83 c4 08	 add	 esp, 8
$LN5@scalar:
  0001f	8b c6		 mov	 eax, esi
  00021	5e		 pop	 esi
  00022	5d		 pop	 ebp
  00023	c2 04 00	 ret	 4
??_GCObj@@UAEPAXI@Z ENDP				; CObj::`scalar deleting destructor'
_TEXT	ENDS
; Function compile flags: /Ogtp
; File C:\IAGOS\server\v18\Source\Source\_Common\Obj.cpp
; File C:\IAGOS\server\v18\Source\Source\DX_SDK\d3dx9math.inl
; File C:\IAGOS\server\v18\Source\Source\_Common\Model.h
; File C:\IAGOS\server\v18\Source\Source\DX_SDK\d3dx9math.inl
; File C:\IAGOS\server\v18\Source\Source\_Common\Model.h
; File C:\IAGOS\server\v18\Source\Source\_Common\Obj.cpp
; File C:\IAGOS\server\v18\Source\Source\_Common\Obj.h
; File C:\IAGOS\server\v18\Source\Source\_Common\Obj.cpp
; File C:\IAGOS\server\v18\Source\Source\_Common\Obj.h
; File C:\IAGOS\server\v18\Source\Source\_Common\Obj.cpp
; File C:\IAGOS\server\v18\Source\Source\_Common\Obj.h
; File C:\IAGOS\server\v18\Source\Source\_Common\Obj.cpp
; File C:\IAGOS\server\v18\Source\Source\_Common\Obj.h
; File C:\IAGOS\server\v18\Source\Source\_Common\Obj.cpp
;	COMDAT ?CalcLinkLevel@CObj@@AAEXXZ
_TEXT	SEGMENT
_vMin$1 = -100						; size = 16
_vMax$2 = -84						; size = 16
_mWorld$3 = -68						; size = 64
__$ArrayPad$ = -4					; size = 4
?CalcLinkLevel@CObj@@AAEXXZ PROC			; CObj::CalcLinkLevel, COMDAT
; _this$ = ecx

; 983  : {

  00000	55		 push	 ebp
  00001	8b ec		 mov	 ebp, esp
  00003	83 ec 64	 sub	 esp, 100		; 00000064H
  00006	a1 00 00 00 00	 mov	 eax, DWORD PTR ___security_cookie
  0000b	33 c5		 xor	 eax, ebp
  0000d	89 45 fc	 mov	 DWORD PTR __$ArrayPad$[ebp], eax
  00010	56		 push	 esi
  00011	8b f1		 mov	 esi, ecx

; 984  : 	if( m_pModel == NULL )		// ˝şĹłżˇĽ­ ľ˛´Â °ˇ»óżŔşęÁ§Ć®¶§ą®żˇ ¸đµ¨ŔĚ ľř´Â żŔşęÁ§Ć®µµ »ý°ĺ´Ů.

  00013	8b 8e 78 01 00
	00		 mov	 ecx, DWORD PTR [esi+376]
  00019	85 c9		 test	 ecx, ecx
  0001b	75 12		 jne	 SHORT $LN2@CalcLinkLe

; 1004 : 	#else	// __LAYER_1015
; 1005 : 		m_dwLinkLevel = m_pWorld->m_linkMap.CalcLinkLevel( this, fThisWidth );
; 1006 : 	#endif	// __LAYER_1015
; 1007 : #else
; 1008 : 
; 1009 : 	int nWidthLink, nWidthPerGrid;
; 1010 : 	nWidthLink	= MAP_SIZE * 2;
; 1011 : 	int i = NULL;
; 1012 : 	for( ; i < MAX_LINKLEVEL; i++ )
; 1013 : 	{
; 1014 : 		// 16	// 8	// 4	// 2	// 1	// 1	-	// 32	// 64	// 128	// 256	// 512	// 1024
; 1015 : 		// 128	// 64	// 32	// 16	-	// 4	// 8	// 16	// 32
; 1016 : 		nWidthLink	/= 2;
; 1017 : 		if( nWidthLink == 0 )	
; 1018 : 			nWidthLink	= 1;
; 1019 : 
; 1020 : 		nWidthPerGrid	= MAP_SIZE * MPU / nWidthLink;
; 1021 : 		if( fThisWidth < (float)nWidthPerGrid )
; 1022 : 			break;
; 1023 : 	}
; 1024 : 
; 1025 : 	if( i == MAX_LINKLEVEL )
; 1026 : 		i = MAX_LINKLEVEL - 1;
; 1027 : 
; 1028 : 	m_dwLinkLevel	= i;
; 1029 : #endif // !__WORLDSERVER
; 1030 : }

  0001d	89 4e 08	 mov	 DWORD PTR [esi+8], ecx
  00020	5e		 pop	 esi
  00021	8b 4d fc	 mov	 ecx, DWORD PTR __$ArrayPad$[ebp]
  00024	33 cd		 xor	 ecx, ebp
  00026	e8 00 00 00 00	 call	 @__security_check_cookie@4
  0002b	8b e5		 mov	 esp, ebp
  0002d	5d		 pop	 ebp
  0002e	c3		 ret	 0
$LN2@CalcLinkLe:
; File C:\IAGOS\server\v18\Source\Source\DX_SDK\d3dx9math.inl

; 410  :     return x == v.x && y == v.y && z == v.z;

  0002f	f3 0f 10 49 78	 movss	 xmm1, DWORD PTR [ecx+120]
; File C:\IAGOS\server\v18\Source\Source\_Common\Model.h

; 138  : 	BOOL	IsNullBoundBox() { if( m_vMin == m_vMax || m_vMin.x == 65535.0f ) return TRUE; return FALSE; }

  00034	8d 51 78	 lea	 edx, DWORD PTR [ecx+120]
; File C:\IAGOS\server\v18\Source\Source\DX_SDK\d3dx9math.inl

; 410  :     return x == v.x && y == v.y && z == v.z;

  00037	0f 2e 89 84 00
	00 00		 ucomiss xmm1, DWORD PTR [ecx+132]
  0003e	0f 57 db	 xorps	 xmm3, xmm3
  00041	9f		 lahf
  00042	f6 c4 44	 test	 ah, 68			; 00000044H
  00045	7a 24		 jp	 SHORT $LN17@CalcLinkLe
  00047	f3 0f 10 42 04	 movss	 xmm0, DWORD PTR [edx+4]
  0004c	0f 2e 81 88 00
	00 00		 ucomiss xmm0, DWORD PTR [ecx+136]
  00053	9f		 lahf
  00054	f6 c4 44	 test	 ah, 68			; 00000044H
  00057	7a 12		 jp	 SHORT $LN17@CalcLinkLe
  00059	f3 0f 10 42 08	 movss	 xmm0, DWORD PTR [edx+8]
  0005e	0f 2e 81 8c 00
	00 00		 ucomiss xmm0, DWORD PTR [ecx+140]
  00065	9f		 lahf
  00066	f6 c4 44	 test	 ah, 68			; 00000044H
  00069	7b 11		 jnp	 SHORT $LN9@CalcLinkLe
$LN17@CalcLinkLe:
; File C:\IAGOS\server\v18\Source\Source\_Common\Model.h

; 138  : 	BOOL	IsNullBoundBox() { if( m_vMin == m_vMax || m_vMin.x == 65535.0f ) return TRUE; return FALSE; }

  0006b	0f 2e 0d 00 00
	00 00		 ucomiss xmm1, DWORD PTR __real@477fff00
  00072	9f		 lahf
  00073	f6 c4 44	 test	 ah, 68			; 00000044H
  00076	7b 04		 jnp	 SHORT $LN9@CalcLinkLe
  00078	33 c0		 xor	 eax, eax
  0007a	eb 05		 jmp	 SHORT $LN7@CalcLinkLe
$LN9@CalcLinkLe:
  0007c	b8 01 00 00 00	 mov	 eax, 1
$LN7@CalcLinkLe:
; File C:\IAGOS\server\v18\Source\Source\_Common\Obj.cpp

; 991  : 	if( m_pModel->IsNullBoundBox() == FALSE )

  00081	85 c0		 test	 eax, eax
  00083	0f 85 8b 00 00
	00		 jne	 $LN3@CalcLinkLe
; File C:\IAGOS\server\v18\Source\Source\_Common\Obj.h

; 231  : 	D3DXMATRIX		GetMatrixWorld() const		{ return m_matWorld; } // ¸đµç ¸ĹĆ®¸Ż˝ş°ˇ °öÇŘÁř °á°ú 

  00089	0f 10 86 e4 00
	00 00		 movups	 xmm0, XMMWORD PTR [esi+228]
; File C:\IAGOS\server\v18\Source\Source\_Common\Obj.cpp

; 995  : 		D3DXVec3Transform( &vMin, &m_pModel->m_vMin, &mWorld );	

  00090	8d 45 bc	 lea	 eax, DWORD PTR _mWorld$3[ebp]
  00093	50		 push	 eax
; File C:\IAGOS\server\v18\Source\Source\_Common\Obj.h

; 231  : 	D3DXMATRIX		GetMatrixWorld() const		{ return m_matWorld; } // ¸đµç ¸ĹĆ®¸Ż˝ş°ˇ °öÇŘÁř °á°ú 

  00094	0f 11 45 bc	 movups	 XMMWORD PTR _mWorld$3[ebp], xmm0
; File C:\IAGOS\server\v18\Source\Source\_Common\Obj.cpp

; 995  : 		D3DXVec3Transform( &vMin, &m_pModel->m_vMin, &mWorld );	

  00098	52		 push	 edx
; File C:\IAGOS\server\v18\Source\Source\_Common\Obj.h

; 231  : 	D3DXMATRIX		GetMatrixWorld() const		{ return m_matWorld; } // ¸đµç ¸ĹĆ®¸Ż˝ş°ˇ °öÇŘÁř °á°ú 

  00099	0f 10 86 f4 00
	00 00		 movups	 xmm0, XMMWORD PTR [esi+244]
; File C:\IAGOS\server\v18\Source\Source\_Common\Obj.cpp

; 995  : 		D3DXVec3Transform( &vMin, &m_pModel->m_vMin, &mWorld );	

  000a0	8d 45 9c	 lea	 eax, DWORD PTR _vMin$1[ebp]
  000a3	50		 push	 eax
; File C:\IAGOS\server\v18\Source\Source\_Common\Obj.h

; 231  : 	D3DXMATRIX		GetMatrixWorld() const		{ return m_matWorld; } // ¸đµç ¸ĹĆ®¸Ż˝ş°ˇ °öÇŘÁř °á°ú 

  000a4	0f 11 45 cc	 movups	 XMMWORD PTR _mWorld$3[ebp+16], xmm0
  000a8	0f 10 86 04 01
	00 00		 movups	 xmm0, XMMWORD PTR [esi+260]
  000af	0f 11 45 dc	 movups	 XMMWORD PTR _mWorld$3[ebp+32], xmm0
  000b3	0f 10 86 14 01
	00 00		 movups	 xmm0, XMMWORD PTR [esi+276]
  000ba	0f 11 45 ec	 movups	 XMMWORD PTR _mWorld$3[ebp+48], xmm0
; File C:\IAGOS\server\v18\Source\Source\_Common\Obj.cpp

; 995  : 		D3DXVec3Transform( &vMin, &m_pModel->m_vMin, &mWorld );	

  000be	e8 00 00 00 00	 call	 _D3DXVec3Transform@12

; 996  : 		D3DXVec3Transform( &vMax, &m_pModel->m_vMax, &mWorld );	

  000c3	8d 45 bc	 lea	 eax, DWORD PTR _mWorld$3[ebp]
  000c6	50		 push	 eax
  000c7	8b 86 78 01 00
	00		 mov	 eax, DWORD PTR [esi+376]
  000cd	05 84 00 00 00	 add	 eax, 132		; 00000084H
  000d2	50		 push	 eax
  000d3	8d 45 ac	 lea	 eax, DWORD PTR _vMax$2[ebp]
  000d6	50		 push	 eax
  000d7	e8 00 00 00 00	 call	 _D3DXVec3Transform@12

; 997  : 		fThisWidth =( fabs(vMax.x - vMin.x) > fabs(vMax.z - vMin.z) ) ? vMax.x - vMin.x : vMax.z - vMin.z; 

  000dc	f3 0f 10 5d ac	 movss	 xmm3, DWORD PTR _vMax$2[ebp]
  000e1	f3 0f 10 65 b4	 movss	 xmm4, DWORD PTR _vMax$2[ebp+8]
  000e6	f3 0f 5c 5d 9c	 subss	 xmm3, DWORD PTR _vMin$1[ebp]
  000eb	f3 0f 5c 65 a4	 subss	 xmm4, DWORD PTR _vMin$1[ebp+8]
  000f0	f2 0f 10 0d 00
	00 00 00	 movsd	 xmm1, QWORD PTR __xmm@7fffffffffffffff7fffffffffffffff
  000f8	0f 5a d3	 cvtps2pd xmm2, xmm3
  000fb	0f 5a c4	 cvtps2pd xmm0, xmm4
  000fe	0f 54 d1	 andps	 xmm2, xmm1
  00101	0f 54 c1	 andps	 xmm0, xmm1
  00104	66 0f 2f d0	 comisd	 xmm2, xmm0
  00108	77 03		 ja	 SHORT $LN6@CalcLinkLe
  0010a	0f 28 dc	 movaps	 xmm3, xmm4
$LN6@CalcLinkLe:

; 998  : 		fThisWidth = fabs( fThisWidth );

  0010d	0f 54 1d 00 00
	00 00		 andps	 xmm3, DWORD PTR __xmm@7fffffff7fffffff7fffffff7fffffff
$LN3@CalcLinkLe:

; 999  : 	}
; 1000 : 
; 1001 : #ifdef __WORLDSERVER
; 1002 : 	#ifdef __LAYER_1015
; 1003 : 		m_dwLinkLevel = m_pWorld->m_linkMap.CalcLinkLevel( this, fThisWidth, GetLayer() );

  00114	ff b6 b8 01 00
	00		 push	 DWORD PTR [esi+440]
  0011a	51		 push	 ecx
  0011b	8b 8e 6c 01 00
	00		 mov	 ecx, DWORD PTR [esi+364]
  00121	f3 0f 11 1c 24	 movss	 DWORD PTR [esp], xmm3
  00126	83 c1 24	 add	 ecx, 36			; 00000024H
  00129	56		 push	 esi
  0012a	e8 00 00 00 00	 call	 ?CalcLinkLevel@CLayeredLinkMap@@QAEKPAVCObj@@MH@Z ; CLayeredLinkMap::CalcLinkLevel

; 1004 : 	#else	// __LAYER_1015
; 1005 : 		m_dwLinkLevel = m_pWorld->m_linkMap.CalcLinkLevel( this, fThisWidth );
; 1006 : 	#endif	// __LAYER_1015
; 1007 : #else
; 1008 : 
; 1009 : 	int nWidthLink, nWidthPerGrid;
; 1010 : 	nWidthLink	= MAP_SIZE * 2;
; 1011 : 	int i = NULL;
; 1012 : 	for( ; i < MAX_LINKLEVEL; i++ )
; 1013 : 	{
; 1014 : 		// 16	// 8	// 4	// 2	// 1	// 1	-	// 32	// 64	// 128	// 256	// 512	// 1024
; 1015 : 		// 128	// 64	// 32	// 16	-	// 4	// 8	// 16	// 32
; 1016 : 		nWidthLink	/= 2;
; 1017 : 		if( nWidthLink == 0 )	
; 1018 : 			nWidthLink	= 1;
; 1019 : 
; 1020 : 		nWidthPerGrid	= MAP_SIZE * MPU / nWidthLink;
; 1021 : 		if( fThisWidth < (float)nWidthPerGrid )
; 1022 : 			break;
; 1023 : 	}
; 1024 : 
; 1025 : 	if( i == MAX_LINKLEVEL )
; 1026 : 		i = MAX_LINKLEVEL - 1;
; 1027 : 
; 1028 : 	m_dwLinkLevel	= i;
; 1029 : #endif // !__WORLDSERVER
; 1030 : }

  0012f	8b 4d fc	 mov	 ecx, DWORD PTR __$ArrayPad$[ebp]
  00132	89 46 08	 mov	 DWORD PTR [esi+8], eax
  00135	33 cd		 xor	 ecx, ebp
  00137	5e		 pop	 esi
  00138	e8 00 00 00 00	 call	 @__security_check_cookie@4
  0013d	8b e5		 mov	 esp, ebp
  0013f	5d		 pop	 ebp
  00140	c3		 ret	 0
?CalcLinkLevel@CObj@@AAEXXZ ENDP			; CObj::CalcLinkLevel
_TEXT	ENDS
; Function compile flags: /Ogtp
; File C:\IAGOS\server\v18\Source\Source\_Common\Obj.cpp
;	COMDAT ?GetRadiusXZ@CObj@@QAEMXZ
_TEXT	SEGMENT
tv234 = -4						; size = 4
?GetRadiusXZ@CObj@@QAEMXZ PROC				; CObj::GetRadiusXZ, COMDAT
; _this$ = ecx

; 776  : {

  00000	55		 push	 ebp
  00001	8b ec		 mov	 ebp, esp
  00003	51		 push	 ecx

; 777  : 	float	fLenX = fabs(m_pModel->m_vMax.x - m_pModel->m_vMin.x);
; 778  : 	float	fLenZ = fabs(m_pModel->m_vMax.z - m_pModel->m_vMin.z);

  00004	8b 81 78 01 00
	00		 mov	 eax, DWORD PTR [ecx+376]
  0000a	f3 0f 10 0d 00
	00 00 00	 movss	 xmm1, DWORD PTR __xmm@7fffffff7fffffff7fffffff7fffffff
  00012	f3 0f 10 90 8c
	00 00 00	 movss	 xmm2, DWORD PTR [eax+140]
  0001a	f3 0f 5c 90 80
	00 00 00	 subss	 xmm2, DWORD PTR [eax+128]
  00022	f3 0f 10 80 84
	00 00 00	 movss	 xmm0, DWORD PTR [eax+132]
  0002a	f3 0f 5c 40 78	 subss	 xmm0, DWORD PTR [eax+120]
  0002f	0f 54 d1	 andps	 xmm2, xmm1
  00032	0f 54 c1	 andps	 xmm0, xmm1

; 779  : 	
; 780  : 	float	fRadius = ((fLenX + fLenZ) / 2.0f) / 2.0f;		// this(Dest)¸đµ¨ŔÇ Ćň±Ő(!) ąÝÁö¸§.

  00035	f3 0f 58 d0	 addss	 xmm2, xmm0
  00039	f3 0f 59 15 00
	00 00 00	 mulss	 xmm2, DWORD PTR __real@3f000000
  00041	f3 0f 59 15 00
	00 00 00	 mulss	 xmm2, DWORD PTR __real@3f000000

; 781  : 	fRadius *= m_vScale.x;		// ˝şÄÉŔĎ Á¶Á¤.

  00049	f3 0f 59 51 0c	 mulss	 xmm2, DWORD PTR [ecx+12]

; 782  : 	
; 783  : 	return fRadius;

  0004e	f3 0f 11 55 fc	 movss	 DWORD PTR tv234[ebp], xmm2
  00053	d9 45 fc	 fld	 DWORD PTR tv234[ebp]

; 784  : }

  00056	8b e5		 mov	 esp, ebp
  00058	5d		 pop	 ebp
  00059	c3		 ret	 0
?GetRadiusXZ@CObj@@QAEMXZ ENDP				; CObj::GetRadiusXZ
_TEXT	ENDS
; Function compile flags: /Ogtp
; File C:\IAGOS\server\v18\Source\Source\_Common\Obj.cpp
;	COMDAT ?GetRadius@CObj@@QAEMXZ
_TEXT	SEGMENT
tv303 = -4						; size = 4
?GetRadius@CObj@@QAEMXZ PROC				; CObj::GetRadius, COMDAT
; _this$ = ecx

; 790  : {

  00000	55		 push	 ebp
  00001	8b ec		 mov	 ebp, esp
  00003	51		 push	 ecx

; 791  : 	float fRadius = fabs(m_pModel->m_vMax.x - m_pModel->m_vMin.x);

  00004	8b 81 78 01 00
	00		 mov	 eax, DWORD PTR [ecx+376]

; 792  : 	fRadius      += fabs(m_pModel->m_vMax.y - m_pModel->m_vMin.y);

  0000a	f2 0f 10 15 00
	00 00 00	 movsd	 xmm2, QWORD PTR __xmm@7fffffffffffffff7fffffffffffffff
  00012	f3 0f 10 80 84
	00 00 00	 movss	 xmm0, DWORD PTR [eax+132]
  0001a	f3 0f 5c 40 78	 subss	 xmm0, DWORD PTR [eax+120]
  0001f	0f 54 05 00 00
	00 00		 andps	 xmm0, DWORD PTR __xmm@7fffffff7fffffff7fffffff7fffffff
  00026	0f 5a c8	 cvtps2pd xmm1, xmm0
  00029	f3 0f 10 80 88
	00 00 00	 movss	 xmm0, DWORD PTR [eax+136]
  00031	f3 0f 5c 40 7c	 subss	 xmm0, DWORD PTR [eax+124]
  00036	0f 5a c0	 cvtps2pd xmm0, xmm0
  00039	0f 54 c2	 andps	 xmm0, xmm2
  0003c	f2 0f 58 c8	 addsd	 xmm1, xmm0
  00040	66 0f 5a c1	 cvtpd2ps xmm0, xmm1

; 793  : 	fRadius      += fabs(m_pModel->m_vMax.z - m_pModel->m_vMin.z);

  00044	0f 5a c8	 cvtps2pd xmm1, xmm0
  00047	f3 0f 10 80 8c
	00 00 00	 movss	 xmm0, DWORD PTR [eax+140]
  0004f	f3 0f 5c 80 80
	00 00 00	 subss	 xmm0, DWORD PTR [eax+128]
  00057	0f 5a c0	 cvtps2pd xmm0, xmm0
  0005a	0f 54 c2	 andps	 xmm0, xmm2
  0005d	f2 0f 58 c8	 addsd	 xmm1, xmm0
  00061	66 0f 5a c1	 cvtpd2ps xmm0, xmm1

; 794  : 	
; 795  : 	fRadius *= INV_6;			// 3¸é Ćň±ŐŔÇ ąÝŔĚ ąÝÁö¸§ = ((x + y + z) / 3.0f) / 2.0f 

  00065	f3 0f 59 05 00
	00 00 00	 mulss	 xmm0, DWORD PTR __real@3e2aaaab

; 796  : 	fRadius *= m_vScale.x;		// ˝şÄÉŔĎ Á¶Á¤.

  0006d	f3 0f 59 41 0c	 mulss	 xmm0, DWORD PTR [ecx+12]

; 797  : 
; 798  : 	return fRadius;

  00072	f3 0f 11 45 fc	 movss	 DWORD PTR tv303[ebp], xmm0
  00077	d9 45 fc	 fld	 DWORD PTR tv303[ebp]

; 799  : }

  0007a	8b e5		 mov	 esp, ebp
  0007c	5d		 pop	 ebp
  0007d	c3		 ret	 0
?GetRadius@CObj@@QAEMXZ ENDP				; CObj::GetRadius
_TEXT	ENDS
; Function compile flags: /Ogtp
; File C:\IAGOS\server\v18\Source\Source\_Common\Obj.cpp
;	COMDAT ?SetWorld@CObj@@QAEXPAVCWorld@@@Z
_TEXT	SEGMENT
_pWorld$ = 8						; size = 4
?SetWorld@CObj@@QAEXPAVCWorld@@@Z PROC			; CObj::SetWorld, COMDAT
; _this$ = ecx

; 971  : { 

  00000	55		 push	 ebp
  00001	8b ec		 mov	 ebp, esp

; 972  : 	m_pWorld = pWorld; 

  00003	8b 45 08	 mov	 eax, DWORD PTR _pWorld$[ebp]
  00006	89 81 6c 01 00
	00		 mov	 DWORD PTR [ecx+364], eax

; 973  : #ifdef __WORLDSERVER
; 974  : 	if( m_pWorld == NULL )

  0000c	85 c0		 test	 eax, eax
  0000e	74 05		 je	 SHORT $LN1@SetWorld

; 975  : 		return;
; 976  : 
; 977  : 	CalcLinkLevel();	

  00010	e8 00 00 00 00	 call	 ?CalcLinkLevel@CObj@@AAEXXZ ; CObj::CalcLinkLevel
$LN1@SetWorld:

; 978  : #endif //  __WORLDSERVER	
; 979  : }

  00015	5d		 pop	 ebp
  00016	c2 04 00	 ret	 4
?SetWorld@CObj@@QAEXPAVCWorld@@@Z ENDP			; CObj::SetWorld
_TEXT	ENDS
; Function compile flags: /Ogtp
; File C:\IAGOS\server\v18\Source\Source\_Common\Obj.cpp
; File C:\IAGOS\server\v18\Source\Source\_Common\Obj.h
; File C:\IAGOS\server\v18\Source\Source\_Common\Obj.cpp
;	COMDAT ?SetScale@CObj@@QAEXABUD3DXVECTOR3@@@Z
_TEXT	SEGMENT
_vScale$ = 8						; size = 4
?SetScale@CObj@@QAEXABUD3DXVECTOR3@@@Z PROC		; CObj::SetScale, COMDAT
; _this$ = ecx

; 713  : { 

  00000	55		 push	 ebp
  00001	8b ec		 mov	 ebp, esp

; 714  : 	m_vScale = vScale;

  00003	8b 45 08	 mov	 eax, DWORD PTR _vScale$[ebp]
  00006	56		 push	 esi
  00007	8b f1		 mov	 esi, ecx

; 715  : 	D3DXMatrixScaling( &m_matScale, m_vScale.x, m_vScale.y, m_vScale.z );

  00009	83 ec 0c	 sub	 esp, 12			; 0000000cH
  0000c	f3 0f 7e 00	 movq	 xmm0, QWORD PTR [eax]
  00010	66 0f d6 46 0c	 movq	 QWORD PTR [esi+12], xmm0
  00015	8b 40 08	 mov	 eax, DWORD PTR [eax+8]
  00018	89 46 14	 mov	 DWORD PTR [esi+20], eax
  0001b	8d 46 64	 lea	 eax, DWORD PTR [esi+100]
  0001e	f3 0f 10 46 14	 movss	 xmm0, DWORD PTR [esi+20]
  00023	f3 0f 11 44 24
	08		 movss	 DWORD PTR [esp+8], xmm0
  00029	f3 0f 10 46 10	 movss	 xmm0, DWORD PTR [esi+16]
  0002e	f3 0f 11 44 24
	04		 movss	 DWORD PTR [esp+4], xmm0
  00034	f3 0f 10 46 0c	 movss	 xmm0, DWORD PTR [esi+12]
  00039	f3 0f 11 04 24	 movss	 DWORD PTR [esp], xmm0
  0003e	50		 push	 eax
  0003f	e8 00 00 00 00	 call	 _D3DXMatrixScaling@16
; File C:\IAGOS\server\v18\Source\Source\_Common\Obj.h

; 273  : 		m_dwFlags |= dwValue;

  00044	83 4e 04 08	 or	 DWORD PTR [esi+4], 8
  00048	5e		 pop	 esi
; File C:\IAGOS\server\v18\Source\Source\_Common\Obj.cpp

; 717  : }

  00049	5d		 pop	 ebp
  0004a	c2 04 00	 ret	 4
?SetScale@CObj@@QAEXABUD3DXVECTOR3@@@Z ENDP		; CObj::SetScale
_TEXT	ENDS
; Function compile flags: /Ogtp
; File C:\IAGOS\server\v18\Source\Source\_Common\Obj.cpp
;	COMDAT ?AddAngle@CObj@@QAEXM@Z
_TEXT	SEGMENT
_fAngle$ = 8						; size = 4
?AddAngle@CObj@@QAEXM@Z PROC				; CObj::AddAngle, COMDAT
; _this$ = ecx

; 661  : {

  00000	55		 push	 ebp
  00001	8b ec		 mov	 ebp, esp

; 662  : 	SetAngle( m_fAngle + fAngle );

  00003	f3 0f 10 45 08	 movss	 xmm0, DWORD PTR _fAngle$[ebp]
  00008	f3 0f 58 41 18	 addss	 xmm0, DWORD PTR [ecx+24]
  0000d	51		 push	 ecx
  0000e	f3 0f 11 04 24	 movss	 DWORD PTR [esp], xmm0
  00013	e8 00 00 00 00	 call	 ?SetAngle@CObj@@QAEXM@Z	; CObj::SetAngle

; 663  : }

  00018	5d		 pop	 ebp
  00019	c2 04 00	 ret	 4
?AddAngle@CObj@@QAEXM@Z ENDP				; CObj::AddAngle
_TEXT	ENDS
; Function compile flags: /Ogtp
; File C:\IAGOS\server\v18\Source\Source\_Common\Obj.cpp
; File C:\IAGOS\server\v18\Source\Source\_Common\Obj.h
; File C:\IAGOS\server\v18\Source\Source\_Common\Obj.cpp
;	COMDAT ?SetAngle@CObj@@QAEXM@Z
_TEXT	SEGMENT
_fAngle$ = 8						; size = 4
?SetAngle@CObj@@QAEXM@Z PROC				; CObj::SetAngle, COMDAT
; _this$ = ecx

; 666  : { 

  00000	55		 push	 ebp
  00001	8b ec		 mov	 ebp, esp
  00003	f3 0f 10 45 08	 movss	 xmm0, DWORD PTR _fAngle$[ebp]

; 667  : 	m_fAngle = (float)( (360.0/65536) * ((int)(fAngle*(65536/360.0)) & 65535) );

  00008	0f 5a c0	 cvtps2pd xmm0, xmm0
  0000b	56		 push	 esi
  0000c	8b f1		 mov	 esi, ecx

; 668  : 
; 669  : 	FLOAT fAngZ = 0.0f;
; 670  : 	fAngZ = -m_fAngZ;
; 671  : 
; 672  : #if !defined(__CLIENT)
; 673  : 	D3DXMatrixRotationYawPitchRoll( &m_matRotation, D3DXToRadian( -m_fAngle ), D3DXToRadian( -m_fAngX ), D3DXToRadian( fAngZ ) );

  0000e	83 ec 0c	 sub	 esp, 12			; 0000000cH
  00011	f3 0f 10 15 00
	00 00 00	 movss	 xmm2, DWORD PTR __xmm@80000000800000008000000080000000
  00019	f2 0f 59 05 00
	00 00 00	 mulsd	 xmm0, QWORD PTR __real@4066c16c16c16c17
  00021	f3 0f 10 0d 00
	00 00 00	 movss	 xmm1, DWORD PTR __real@3c8efa35
  00029	f2 0f 2c c0	 cvttsd2si eax, xmm0
  0002d	0f b7 c0	 movzx	 eax, ax
  00030	66 0f 6e c0	 movd	 xmm0, eax
  00034	8d 86 a4 00 00
	00		 lea	 eax, DWORD PTR [esi+164]
  0003a	f3 0f e6 c0	 cvtdq2pd xmm0, xmm0
  0003e	f2 0f 59 05 00
	00 00 00	 mulsd	 xmm0, QWORD PTR __real@3f76800000000000
  00046	66 0f 5a d8	 cvtpd2ps xmm3, xmm0
  0004a	f3 0f 10 46 20	 movss	 xmm0, DWORD PTR [esi+32]
  0004f	0f 57 c2	 xorps	 xmm0, xmm2
  00052	f3 0f 11 5e 18	 movss	 DWORD PTR [esi+24], xmm3
  00057	f3 0f 59 c1	 mulss	 xmm0, xmm1
  0005b	0f 57 da	 xorps	 xmm3, xmm2
  0005e	f3 0f 59 d9	 mulss	 xmm3, xmm1
  00062	f3 0f 11 44 24
	08		 movss	 DWORD PTR [esp+8], xmm0
  00068	f3 0f 10 46 1c	 movss	 xmm0, DWORD PTR [esi+28]
  0006d	0f 57 c2	 xorps	 xmm0, xmm2
  00070	f3 0f 59 c1	 mulss	 xmm0, xmm1
  00074	f3 0f 11 44 24
	04		 movss	 DWORD PTR [esp+4], xmm0
  0007a	f3 0f 11 1c 24	 movss	 DWORD PTR [esp], xmm3
  0007f	50		 push	 eax
  00080	e8 00 00 00 00	 call	 _D3DXMatrixRotationYawPitchRoll@16
; File C:\IAGOS\server\v18\Source\Source\_Common\Obj.h

; 273  : 		m_dwFlags |= dwValue;

  00085	83 4e 04 08	 or	 DWORD PTR [esi+4], 8
  00089	5e		 pop	 esi
; File C:\IAGOS\server\v18\Source\Source\_Common\Obj.cpp

; 684  : }

  0008a	5d		 pop	 ebp
  0008b	c2 04 00	 ret	 4
?SetAngle@CObj@@QAEXM@Z ENDP				; CObj::SetAngle
_TEXT	ENDS
; Function compile flags: /Ogtp
; File C:\IAGOS\server\v18\Source\Source\_Common\Obj.cpp
; File C:\IAGOS\server\v18\Source\Source\DX_SDK\d3dx9math.inl
; File C:\IAGOS\server\v18\Source\Source\_Common\Obj.h
; File C:\IAGOS\server\v18\Source\Source\_Common\Obj.cpp
; File C:\IAGOS\server\v18\Source\Source\_Common\World.h
; File C:\IAGOS\server\v18\Source\Source\_Common\Obj.cpp
; File C:\IAGOS\server\v18\Source\Source\_Common\Obj.h
; File C:\IAGOS\server\v18\Source\Source\DX_SDK\d3dx9math.inl
; File C:\IAGOS\server\v18\Source\Source\_Common\Obj.h
; File C:\IAGOS\server\v18\Source\Source\_Common\Obj.cpp
; File C:\IAGOS\server\v18\Source\Source\_Common\Obj.h
; File C:\IAGOS\server\v18\Source\Source\DX_SDK\d3dx9math.inl
; File C:\IAGOS\server\v18\Source\Source\_Common\Obj.cpp
; File C:\IAGOS\server\v18\Source\Source\DX_SDK\d3dx9math.inl
; File C:\IAGOS\server\v18\Source\Source\_Common\Obj.cpp
; File C:\IAGOS\server\v18\Source\Source\DX_SDK\d3dx9math.inl
; File C:\IAGOS\server\v18\Source\Source\_Common\Obj.cpp
; File C:\IAGOS\server\v18\Source\Source\_Common\Obj.h
; File C:\IAGOS\server\v18\Source\Source\_Common\Obj.cpp
;	COMDAT ?SetPos@CObj@@QAEXABUD3DXVECTOR3@@@Z
_TEXT	SEGMENT
$T1 = -20						; size = 12
_x$1$ = -8						; size = 4
_inv_mpu$1$ = -4					; size = 4
_vPos$ = 8						; size = 4
_z$1$ = 8						; size = 4
?SetPos@CObj@@QAEXABUD3DXVECTOR3@@@Z PROC		; CObj::SetPos, COMDAT
; _this$ = ecx

; 536  : { 

  00000	55		 push	 ebp
  00001	8b ec		 mov	 ebp, esp
  00003	83 ec 14	 sub	 esp, 20			; 00000014H
  00006	56		 push	 esi
  00007	8b f1		 mov	 esi, ecx
  00009	57		 push	 edi
  0000a	8b 7d 08	 mov	 edi, DWORD PTR _vPos$[ebp]
; File C:\IAGOS\server\v18\Source\Source\DX_SDK\d3dx9math.inl

; 410  :     return x == v.x && y == v.y && z == v.z;

  0000d	f3 0f 10 86 60
	01 00 00	 movss	 xmm0, DWORD PTR [esi+352]
  00015	0f 2e 07	 ucomiss xmm0, DWORD PTR [edi]
  00018	9f		 lahf
  00019	f6 c4 44	 test	 ah, 68			; 00000044H
  0001c	7a 28		 jp	 SHORT $LN19@SetPos
  0001e	f3 0f 10 86 64
	01 00 00	 movss	 xmm0, DWORD PTR [esi+356]
  00026	0f 2e 47 04	 ucomiss xmm0, DWORD PTR [edi+4]
  0002a	9f		 lahf
  0002b	f6 c4 44	 test	 ah, 68			; 00000044H
  0002e	7a 16		 jp	 SHORT $LN19@SetPos
  00030	f3 0f 10 86 68
	01 00 00	 movss	 xmm0, DWORD PTR [esi+360]
  00038	0f 2e 47 08	 ucomiss xmm0, DWORD PTR [edi+8]
  0003c	9f		 lahf
  0003d	f6 c4 44	 test	 ah, 68			; 00000044H
  00040	0f 8b 14 03 00
	00		 jnp	 $LN66@SetPos
$LN19@SetPos:
; File C:\IAGOS\server\v18\Source\Source\_Common\Obj.h

; 273  : 		m_dwFlags |= dwValue;

  00046	83 4e 04 10	 or	 DWORD PTR [esi+4], 16	; 00000010H
  0004a	53		 push	 ebx
; File C:\IAGOS\server\v18\Source\Source\_Common\Obj.cpp

; 542  : 	CWorld* pWorld = GetWorld();

  0004b	8b 9e 6c 01 00
	00		 mov	 ebx, DWORD PTR [esi+364]

; 543  : #ifdef __WORLDSERVER
; 544  : 	if( pWorld )

  00051	85 db		 test	 ebx, ebx
  00053	0f 84 9c 02 00
	00		 je	 $LN6@SetPos
  00059	f3 0f 10 47 04	 movss	 xmm0, DWORD PTR [edi+4]
; File C:\IAGOS\server\v18\Source\Source\_Common\World.h

; 755  : 	if( _isnan( (double)vPos.y ) )

  0005e	83 ec 08	 sub	 esp, 8
  00061	0f 5a c0	 cvtps2pd xmm0, xmm0
  00064	f2 0f 11 04 24	 movsd	 QWORD PTR [esp], xmm0
  00069	e8 00 00 00 00	 call	 __isnan
  0006e	83 c4 08	 add	 esp, 8
  00071	85 c0		 test	 eax, eax
  00073	0f 85 e0 02 00
	00		 jne	 $LN96@SetPos

; 756  : 		return FALSE;
; 757  : 
; 758  : 	return VecInWorld( vPos.x, vPos.z );

  00079	f3 0f 10 47 08	 movss	 xmm0, DWORD PTR [edi+8]

; 734  : 	if( _isnan( x ) )

  0007e	83 ec 08	 sub	 esp, 8
  00081	f3 0f 10 0d 00
	00 00 00	 movss	 xmm1, DWORD PTR __real@3f800000

; 758  : 	return VecInWorld( vPos.x, vPos.z );

  00089	f3 0f 11 45 08	 movss	 DWORD PTR _z$1$[ebp], xmm0
  0008e	66 0f 6e 43 14	 movd	 xmm0, DWORD PTR [ebx+20]
  00093	f3 0f 10 17	 movss	 xmm2, DWORD PTR [edi]

; 732  : 	float inv_mpu = 1.0f / (float)m_iMPU;

  00097	0f 5b c0	 cvtdq2ps xmm0, xmm0

; 758  : 	return VecInWorld( vPos.x, vPos.z );

  0009a	f3 0f 11 55 f8	 movss	 DWORD PTR _x$1$[ebp], xmm2

; 732  : 	float inv_mpu = 1.0f / (float)m_iMPU;

  0009f	f3 0f 5e c8	 divss	 xmm1, xmm0

; 733  : 
; 734  : 	if( _isnan( x ) )

  000a3	0f 5a c2	 cvtps2pd xmm0, xmm2
  000a6	f3 0f 11 4d fc	 movss	 DWORD PTR _inv_mpu$1$[ebp], xmm1
  000ab	f2 0f 11 04 24	 movsd	 QWORD PTR [esp], xmm0
  000b0	e8 00 00 00 00	 call	 __isnan
  000b5	83 c4 08	 add	 esp, 8
  000b8	0f 57 c9	 xorps	 xmm1, xmm1
  000bb	85 c0		 test	 eax, eax
  000bd	74 04		 je	 SHORT $LN31@SetPos

; 735  : 		return FALSE;

  000bf	33 c0		 xor	 eax, eax
  000c1	eb 7b		 jmp	 SHORT $LN36@SetPos
$LN31@SetPos:

; 736  : 	if( x < 0.0f )

  000c3	f3 0f 10 45 f8	 movss	 xmm0, DWORD PTR _x$1$[ebp]
  000c8	0f 2f c8	 comiss	 xmm1, xmm0
  000cb	76 04		 jbe	 SHORT $LN32@SetPos

; 737  : 		return FALSE;

  000cd	33 c0		 xor	 eax, eax
  000cf	eb 6d		 jmp	 SHORT $LN36@SetPos
$LN32@SetPos:

; 738  : 	if( (x * inv_mpu) >= ( WORLD_WIDTH-1 ) )	

  000d1	8b 43 0c	 mov	 eax, DWORD PTR [ebx+12]
  000d4	f3 0f 10 4d fc	 movss	 xmm1, DWORD PTR _inv_mpu$1$[ebp]
  000d9	48		 dec	 eax
  000da	f3 0f 59 c8	 mulss	 xmm1, xmm0
  000de	66 0f 6e c0	 movd	 xmm0, eax
  000e2	0f 5b c0	 cvtdq2ps xmm0, xmm0
  000e5	0f 2f c8	 comiss	 xmm1, xmm0
  000e8	72 07		 jb	 SHORT $LN33@SetPos

; 739  : 	{
; 740  : 		return FALSE;

  000ea	33 c0		 xor	 eax, eax
  000ec	0f 57 c9	 xorps	 xmm1, xmm1
  000ef	eb 4d		 jmp	 SHORT $LN36@SetPos
$LN33@SetPos:
  000f1	f3 0f 10 45 08	 movss	 xmm0, DWORD PTR _z$1$[ebp]

; 741  : 	}
; 742  : 
; 743  : 	if( _isnan( z ) )

  000f6	83 ec 08	 sub	 esp, 8
  000f9	0f 5a c0	 cvtps2pd xmm0, xmm0
  000fc	f2 0f 11 04 24	 movsd	 QWORD PTR [esp], xmm0
  00101	e8 00 00 00 00	 call	 __isnan
  00106	83 c4 08	 add	 esp, 8
  00109	0f 57 c9	 xorps	 xmm1, xmm1
  0010c	85 c0		 test	 eax, eax
  0010e	74 04		 je	 SHORT $LN34@SetPos

; 744  : 		return FALSE;

  00110	33 c0		 xor	 eax, eax
  00112	eb 2a		 jmp	 SHORT $LN36@SetPos
$LN34@SetPos:

; 745  : 	if( z < 0.0f )

  00114	f3 0f 10 45 08	 movss	 xmm0, DWORD PTR _z$1$[ebp]
  00119	0f 2f c8	 comiss	 xmm1, xmm0
  0011c	76 04		 jbe	 SHORT $LN35@SetPos

; 746  : 		return FALSE;

  0011e	33 c0		 xor	 eax, eax
  00120	eb 1c		 jmp	 SHORT $LN36@SetPos
$LN35@SetPos:

; 747  : 	if( (z * inv_mpu) >= ( WORLD_HEIGHT-1 ) )		

  00122	8b 43 10	 mov	 eax, DWORD PTR [ebx+16]
  00125	f3 0f 10 55 fc	 movss	 xmm2, DWORD PTR _inv_mpu$1$[ebp]
  0012a	48		 dec	 eax
  0012b	f3 0f 59 d0	 mulss	 xmm2, xmm0
  0012f	66 0f 6e c0	 movd	 xmm0, eax
  00133	33 c0		 xor	 eax, eax
  00135	0f 5b c0	 cvtdq2ps xmm0, xmm0
  00138	0f 2f d0	 comiss	 xmm2, xmm0
  0013b	0f 92 c0	 setb	 al
$LN36@SetPos:
; File C:\IAGOS\server\v18\Source\Source\_Common\Obj.cpp

; 546  : 		if( pWorld->VecInWorld( vPos ) == FALSE )

  0013e	85 c0		 test	 eax, eax
  00140	0f 84 13 02 00
	00		 je	 $LN96@SetPos
; File C:\IAGOS\server\v18\Source\Source\_Common\Obj.h

; 238  : 	D3DXVECTOR3		GetLinkPos()							{	return m_vLink;	}

  00146	f3 0f 7e 86 ac
	01 00 00	 movq	 xmm0, QWORD PTR [esi+428]
; File C:\IAGOS\server\v18\Source\Source\DX_SDK\d3dx9math.inl

; 395  :     FLOAT fInv = 1.0f / f;

  0014e	f3 0f 10 25 00
	00 00 00	 movss	 xmm4, DWORD PTR __real@3f800000
; File C:\IAGOS\server\v18\Source\Source\_Common\Obj.h

; 238  : 	D3DXVECTOR3		GetLinkPos()							{	return m_vLink;	}

  00156	66 0f d6 45 ec	 movq	 QWORD PTR $T1[ebp], xmm0
  0015b	66 0f 6e 43 14	 movd	 xmm0, DWORD PTR [ebx+20]
; File C:\IAGOS\server\v18\Source\Source\_Common\Obj.cpp

; 549  : 		D3DXVECTOR3	vOld	= GetLinkPos() / (float)( pWorld->m_iMPU );

  00160	0f 5b c0	 cvtdq2ps xmm0, xmm0
; File C:\IAGOS\server\v18\Source\Source\_Common\Obj.h

; 238  : 	D3DXVECTOR3		GetLinkPos()							{	return m_vLink;	}

  00163	8b 86 b4 01 00
	00		 mov	 eax, DWORD PTR [esi+436]
  00169	89 45 f4	 mov	 DWORD PTR $T1[ebp+8], eax
; File C:\IAGOS\server\v18\Source\Source\DX_SDK\d3dx9math.inl

; 396  :     return D3DXVECTOR3(x * fInv, y * fInv, z * fInv);

  0016c	f3 0f 10 55 f4	 movss	 xmm2, DWORD PTR $T1[ebp+8]
  00171	f3 0f 5e e0	 divss	 xmm4, xmm0
  00175	0f 28 c4	 movaps	 xmm0, xmm4
  00178	f3 0f 59 d4	 mulss	 xmm2, xmm4
  0017c	f3 0f 59 07	 mulss	 xmm0, DWORD PTR [edi]
  00180	0f 28 dc	 movaps	 xmm3, xmm4
  00183	f3 0f 59 5f 08	 mulss	 xmm3, DWORD PTR [edi+8]

; 302  :     z = fz;

  00188	f3 0f 2c c8	 cvttss2si ecx, xmm0

; 396  :     return D3DXVECTOR3(x * fInv, y * fInv, z * fInv);

  0018c	f3 0f 10 45 ec	 movss	 xmm0, DWORD PTR $T1[ebp]
  00191	f3 0f 59 c4	 mulss	 xmm0, xmm4
; File C:\IAGOS\server\v18\Source\Source\_Common\Obj.cpp

; 551  : 		if( (int)vOld.x != (int)vCur.x || (int)vOld.z != (int)vCur.z )

  00195	f3 0f 2c c0	 cvttss2si eax, xmm0
  00199	3b c1		 cmp	 eax, ecx
  0019b	0f 85 c6 00 00
	00		 jne	 $LN11@SetPos
  001a1	f3 0f 2c cb	 cvttss2si ecx, xmm3
  001a5	f3 0f 2c c2	 cvttss2si eax, xmm2
  001a9	3b c1		 cmp	 eax, ecx
  001ab	0f 85 b6 00 00
	00		 jne	 $LN11@SetPos

; 562  : 		}
; 563  : 		else 
; 564  : 		{
; 565  : 			m_vPos  = vPos;

  001b1	f3 0f 7e 07	 movq	 xmm0, QWORD PTR [edi]
  001b5	66 0f d6 86 60
	01 00 00	 movq	 QWORD PTR [esi+352], xmm0
  001bd	8b 47 08	 mov	 eax, DWORD PTR [edi+8]
  001c0	89 86 68 01 00
	00		 mov	 DWORD PTR [esi+360], eax

; 566  : 			m_vLink	= vPos;

  001c6	f3 0f 7e 07	 movq	 xmm0, QWORD PTR [edi]
  001ca	66 0f d6 86 ac
	01 00 00	 movq	 QWORD PTR [esi+428], xmm0
  001d2	8b 47 08	 mov	 eax, DWORD PTR [edi+8]
  001d5	89 86 b4 01 00
	00		 mov	 DWORD PTR [esi+436], eax
; File C:\IAGOS\server\v18\Source\Source\DX_SDK\d3dx9math.inl

; 416  :     return x != v.x || y != v.y || z != v.z;

  001db	f3 0f 10 86 a0
	01 00 00	 movss	 xmm0, DWORD PTR [esi+416]
  001e3	0f 2e c1	 ucomiss xmm0, xmm1
  001e6	9f		 lahf
  001e7	f6 c4 44	 test	 ah, 68			; 00000044H
  001ea	7a 26		 jp	 SHORT $LN58@SetPos
  001ec	f3 0f 10 86 a4
	01 00 00	 movss	 xmm0, DWORD PTR [esi+420]
  001f4	0f 2e c1	 ucomiss xmm0, xmm1
  001f7	9f		 lahf
  001f8	f6 c4 44	 test	 ah, 68			; 00000044H
  001fb	7a 15		 jp	 SHORT $LN58@SetPos
  001fd	f3 0f 10 86 a8
	01 00 00	 movss	 xmm0, DWORD PTR [esi+424]
  00205	0f 2e c1	 ucomiss xmm0, xmm1
  00208	9f		 lahf
  00209	f6 c4 44	 test	 ah, 68			; 00000044H
  0020c	0f 8b 0e 01 00
	00		 jnp	 $LN7@SetPos
$LN58@SetPos:
; File C:\IAGOS\server\v18\Source\Source\_Common\Obj.cpp

; 570  : 				for( int i = 0; i < pWorld->m_cbModifyLink; i++ )

  00212	8b 93 50 00 05
	00		 mov	 edx, DWORD PTR [ebx+327760]
  00218	33 c0		 xor	 eax, eax
  0021a	85 d2		 test	 edx, edx
  0021c	0f 8e fe 00 00
	00		 jle	 $LN7@SetPos
  00222	8d 8b 54 00 05
	00		 lea	 ecx, DWORD PTR [ebx+327764]
$LL4@SetPos:

; 571  : 				{
; 572  : 					if( pWorld->m_apModifyLink[i] == this )

  00228	39 31		 cmp	 DWORD PTR [ecx], esi
  0022a	74 0d		 je	 SHORT $LN69@SetPos

; 570  : 				for( int i = 0; i < pWorld->m_cbModifyLink; i++ )

  0022c	40		 inc	 eax
  0022d	83 c1 04	 add	 ecx, 4
  00230	3b c2		 cmp	 eax, edx
  00232	7c f4		 jl	 SHORT $LL4@SetPos

; 571  : 				{
; 572  : 					if( pWorld->m_apModifyLink[i] == this )

  00234	e9 e7 00 00 00	 jmp	 $LN7@SetPos
$LN69@SetPos:

; 573  : 					{
; 574  : 						pWorld->m_apModifyLink[i]	= NULL;

  00239	c7 84 83 54 00
	05 00 00 00 00
	00		 mov	 DWORD PTR [ebx+eax*4+327764], 0

; 575  : 						m_vRemoval	= D3DXVECTOR3( 0.0f, 0.0f, 0.0f );

  00244	c7 86 a0 01 00
	00 00 00 00 00	 mov	 DWORD PTR [esi+416], 0
  0024e	c7 86 a4 01 00
	00 00 00 00 00	 mov	 DWORD PTR [esi+420], 0
  00258	c7 86 a8 01 00
	00 00 00 00 00	 mov	 DWORD PTR [esi+424], 0

; 576  : 						break;

  00262	e9 b9 00 00 00	 jmp	 $LN7@SetPos
$LN11@SetPos:
; File C:\IAGOS\server\v18\Source\Source\DX_SDK\d3dx9math.inl

; 410  :     return x == v.x && y == v.y && z == v.z;

  00267	f3 0f 10 86 a0
	01 00 00	 movss	 xmm0, DWORD PTR [esi+416]
  0026f	0f 2e c1	 ucomiss xmm0, xmm1
  00272	9f		 lahf
  00273	f6 c4 44	 test	 ah, 68			; 00000044H
  00276	7a 51		 jp	 SHORT $LN13@SetPos
  00278	f3 0f 10 86 a4
	01 00 00	 movss	 xmm0, DWORD PTR [esi+420]
  00280	0f 2e c1	 ucomiss xmm0, xmm1
  00283	9f		 lahf
  00284	f6 c4 44	 test	 ah, 68			; 00000044H
  00287	7a 40		 jp	 SHORT $LN13@SetPos
  00289	f3 0f 10 86 a8
	01 00 00	 movss	 xmm0, DWORD PTR [esi+424]
  00291	0f 2e c1	 ucomiss xmm0, xmm1
  00294	9f		 lahf
  00295	f6 c4 44	 test	 ah, 68			; 00000044H
  00298	7a 2f		 jp	 SHORT $LN13@SetPos
; File C:\IAGOS\server\v18\Source\Source\_Common\Obj.cpp

; 555  : 				pWorld->m_apModifyLink[pWorld->m_cbModifyLink++]	= this;

  0029a	8b 83 50 00 05
	00		 mov	 eax, DWORD PTR [ebx+327760]
  002a0	89 b4 83 54 00
	05 00		 mov	 DWORD PTR [ebx+eax*4+327764], esi
  002a7	8b 83 50 00 05
	00		 mov	 eax, DWORD PTR [ebx+327760]
  002ad	40		 inc	 eax
  002ae	89 83 50 00 05
	00		 mov	 DWORD PTR [ebx+327760], eax

; 556  : 				if( pWorld->m_cbModifyLink >= MAX_MODIFYLINK )

  002b4	3d 00 10 00 00	 cmp	 eax, 4096		; 00001000H
  002b9	7c 0e		 jl	 SHORT $LN13@SetPos

; 557  : 					Error( "MODIFYLINK//MAX//%d", pWorld->m_cbModifyLink ); 

  002bb	50		 push	 eax
  002bc	68 00 00 00 00	 push	 OFFSET ??_C@_0BE@NPFKIOKI@MODIFYLINK?1?1MAX?1?1?$CFd@
  002c1	e8 00 00 00 00	 call	 ?Error@@YAPBDPBDZZ	; Error
  002c6	83 c4 08	 add	 esp, 8
$LN13@SetPos:

; 558  : 			}
; 559  : 
; 560  : 			m_vRemoval = vPos;

  002c9	f3 0f 7e 07	 movq	 xmm0, QWORD PTR [edi]
  002cd	66 0f d6 86 a0
	01 00 00	 movq	 QWORD PTR [esi+416], xmm0
  002d5	8b 47 08	 mov	 eax, DWORD PTR [edi+8]
  002d8	89 86 a8 01 00
	00		 mov	 DWORD PTR [esi+424], eax

; 561  : 			m_vPos	= vPos;

  002de	f3 0f 7e 07	 movq	 xmm0, QWORD PTR [edi]
  002e2	66 0f d6 86 60
	01 00 00	 movq	 QWORD PTR [esi+352], xmm0
  002ea	8b 47 08	 mov	 eax, DWORD PTR [edi+8]
  002ed	89 86 68 01 00
	00		 mov	 DWORD PTR [esi+360], eax

; 577  : 					}
; 578  : 				}
; 579  : 			}
; 580  : 		}
; 581  : 	}

  002f3	eb 2b		 jmp	 SHORT $LN7@SetPos
$LN6@SetPos:

; 582  : 	else 
; 583  : 	{
; 584  : 		m_vPos	= vPos;

  002f5	f3 0f 7e 07	 movq	 xmm0, QWORD PTR [edi]
  002f9	66 0f d6 86 60
	01 00 00	 movq	 QWORD PTR [esi+352], xmm0
  00301	8b 47 08	 mov	 eax, DWORD PTR [edi+8]
  00304	89 86 68 01 00
	00		 mov	 DWORD PTR [esi+360], eax

; 585  : 		m_vLink	= m_vPos;

  0030a	f3 0f 7e 86 60
	01 00 00	 movq	 xmm0, QWORD PTR [esi+352]
  00312	66 0f d6 86 ac
	01 00 00	 movq	 QWORD PTR [esi+428], xmm0
  0031a	89 86 b4 01 00
	00		 mov	 DWORD PTR [esi+436], eax
$LN7@SetPos:

; 586  : 	}
; 587  : #else	// __WORLDSERVER
; 588  : 	if( pWorld )
; 589  : 	{
; 590  : 		if( pWorld->VecInWorld( vPos ) == FALSE )
; 591  : 			return;
; 592  : 
; 593  : 		D3DXVECTOR3	vOld	= GetPos() / (FLOAT)( MPU );
; 594  : 		D3DXVECTOR3 vCur	= vPos / (FLOAT)( MPU );
; 595  : 		if( (int)vOld.x != (int)vCur.x || (int)vOld.z != (int)vCur.z )
; 596  : 		{
; 597  : 			int nOldX = int( vOld.x / MAP_SIZE );
; 598  : 			int nOldZ = int( vOld.z / MAP_SIZE );
; 599  : 			int nCurX = int( vCur.x / MAP_SIZE );
; 600  : 			int nCurZ = int( vCur.z / MAP_SIZE );   
; 601  : 			if( nOldX != nCurX || nOldZ != nCurZ )
; 602  : 			{
; 603  : 				CLandscape* pOldLandscape	= pWorld->m_apLand[ nOldX + nOldZ * pWorld->m_nLandWidth ];
; 604  : 				if( NULL != pOldLandscape )
; 605  : 				{
; 606  : 					pOldLandscape->RemoveObjLink( this );
; 607  : 					pOldLandscape->RemoveObjArray( this );
; 608  : 				}
; 609  : 				m_vPos = vPos;
; 610  : 				CLandscape* pCurLandscape	= pWorld->m_apLand[ nCurX + nCurZ * pWorld->m_nLandWidth ];
; 611  : 				if( NULL != pCurLandscape )
; 612  : 				{
; 613  : 					pCurLandscape->InsertObjLink( this );
; 614  : 					pCurLandscape->AddObjArray( this );
; 615  : 				}
; 616  : 			}
; 617  : 			else
; 618  : 			{
; 619  : 				// °°Ŕş Landscape ľČżˇĽ­ŔÇ ŔĚµż 
; 620  : 				int nWidth = 0;
; 621  : 				if(m_pModel) 
; 622  : 					nWidth	= (int)( m_pModel->GetMaxWidth() );
; 623  : 				DWORD dwLinkType	= GetLinkType();
; 624  : 				if( pWorld->GetObjInLinkMap( m_vPos, dwLinkType, m_dwLinkLevel ) == this )
; 625  : 					pWorld->SetObjInLinkMap( m_vPos, dwLinkType, m_dwLinkLevel, m_pNext );
; 626  : 				DelNode();
; 627  : 				CObj* pObj	= pWorld->GetObjInLinkMap( vPos, dwLinkType, m_dwLinkLevel );
; 628  : 				if( pObj )
; 629  : 					pObj->InsNextNode( this );
; 630  : 				else
; 631  : 					pWorld->SetObjInLinkMap( vPos, dwLinkType, m_dwLinkLevel, this );
; 632  : 				m_vPos	= vPos; 
; 633  : 			}
; 634  : 		}
; 635  : 		else 
; 636  : 		{
; 637  : 			m_vPos	= vPos;
; 638  : 		}
; 639  : 	}
; 640  : 	else 
; 641  : 	{
; 642  : 		m_vPos	= vPos;
; 643  : 	}
; 644  : #endif	// __WORLDSERVER
; 645  : 
; 646  : #ifndef __CLIENT
; 647  : 	D3DXMatrixTranslation( &m_matTrans, m_vPos.x, m_vPos.y, m_vPos.z );

  00320	f3 0f 10 86 68
	01 00 00	 movss	 xmm0, DWORD PTR [esi+360]
  00328	8d 46 24	 lea	 eax, DWORD PTR [esi+36]
  0032b	83 ec 0c	 sub	 esp, 12			; 0000000cH
  0032e	f3 0f 11 44 24
	08		 movss	 DWORD PTR [esp+8], xmm0
  00334	f3 0f 10 86 64
	01 00 00	 movss	 xmm0, DWORD PTR [esi+356]
  0033c	f3 0f 11 44 24
	04		 movss	 DWORD PTR [esp+4], xmm0
  00342	f3 0f 10 86 60
	01 00 00	 movss	 xmm0, DWORD PTR [esi+352]
  0034a	f3 0f 11 04 24	 movss	 DWORD PTR [esp], xmm0
  0034f	50		 push	 eax
  00350	e8 00 00 00 00	 call	 _D3DXMatrixTranslation@16
; File C:\IAGOS\server\v18\Source\Source\_Common\Obj.h

; 273  : 		m_dwFlags |= dwValue;

  00355	83 4e 04 08	 or	 DWORD PTR [esi+4], 8
$LN96@SetPos:
  00359	5b		 pop	 ebx
$LN66@SetPos:
  0035a	5f		 pop	 edi
; File C:\IAGOS\server\v18\Source\Source\_Common\Obj.cpp

; 658  : }

  0035b	5e		 pop	 esi
  0035c	8b e5		 mov	 esp, ebp
  0035e	5d		 pop	 ebp
  0035f	c2 04 00	 ret	 4
?SetPos@CObj@@QAEXABUD3DXVECTOR3@@@Z ENDP		; CObj::SetPos
_TEXT	ENDS
; Function compile flags: /Ogtp
; File C:\IAGOS\server\v18\Source\Source\_Common\Obj.cpp
;	COMDAT ?Delete@CObj@@QAEXXZ
_TEXT	SEGMENT
?Delete@CObj@@QAEXXZ PROC				; CObj::Delete, COMDAT
; _this$ = ecx

; 756  : 	m_pWorld->DeleteObj( this );

  00000	51		 push	 ecx
  00001	8b 89 6c 01 00
	00		 mov	 ecx, DWORD PTR [ecx+364]
  00007	e8 00 00 00 00	 call	 ?DeleteObj@CWorld@@QAEXPAVCObj@@@Z ; CWorld::DeleteObj

; 757  : }

  0000c	c3		 ret	 0
?Delete@CObj@@QAEXXZ ENDP				; CObj::Delete
_TEXT	ENDS
; Function compile flags: /Ogtp
; File C:\IAGOS\server\v18\Source\Source\_Common\Obj.cpp
;	COMDAT ?GetLinkType@CObj@@QAEKXZ
_TEXT	SEGMENT
?GetLinkType@CObj@@QAEKXZ PROC				; CObj::GetLinkType, COMDAT
; _this$ = ecx

; 947  : 	switch( m_dwType )

  00000	8b 81 70 01 00
	00		 mov	 eax, DWORD PTR [ecx+368]
  00006	83 f8 07	 cmp	 eax, 7
  00009	77 25		 ja	 SHORT $LN2@GetLinkTyp
  0000b	ff 24 85 00 00
	00 00		 jmp	 DWORD PTR $LN12@GetLinkTyp[eax*4]
$LN4@GetLinkTyp:

; 948  : 	{
; 949  : 		case OT_OBJ:
; 950  : 			return CObj::linkStatic;

  00012	33 c0		 xor	 eax, eax

; 963  : }

  00014	c3		 ret	 0
$LN5@GetLinkTyp:

; 951  : 		case OT_SHIP:
; 952  : 			return CObj::linkAirShip;

  00015	b8 03 00 00 00	 mov	 eax, 3

; 963  : }

  0001a	c3		 ret	 0
$LN6@GetLinkTyp:

; 953  : 		case OT_MOVER:
; 954  : 			if( ( (CMover*)this )->IsPlayer() == TRUE )

  0001b	8b 81 30 02 00
	00		 mov	 eax, DWORD PTR [ecx+560]
  00021	48		 dec	 eax
  00022	f7 d8		 neg	 eax
  00024	1b c0		 sbb	 eax, eax
  00026	83 c0 02	 add	 eax, 2

; 963  : }

  00029	c3		 ret	 0
$LN7@GetLinkTyp:

; 955  : 				return CObj::linkPlayer;
; 956  : 		case OT_CTRL:
; 957  : 		case OT_SFX:
; 958  : 		case OT_ITEM:
; 959  : 			return CObj::linkDynamic;

  0002a	b8 01 00 00 00	 mov	 eax, 1

; 963  : }

  0002f	c3		 ret	 0
$LN2@GetLinkTyp:

; 960  : 	}
; 961  : 	ASSERT( 0 );
; 962  : 	return( -1 );

  00030	83 c8 ff	 or	 eax, -1

; 963  : }

  00033	c3		 ret	 0
$LN12@GetLinkTyp:
  00034	00 00 00 00	 DD	 $LN4@GetLinkTyp
  00038	00 00 00 00	 DD	 $LN2@GetLinkTyp
  0003c	00 00 00 00	 DD	 $LN7@GetLinkTyp
  00040	00 00 00 00	 DD	 $LN7@GetLinkTyp
  00044	00 00 00 00	 DD	 $LN7@GetLinkTyp
  00048	00 00 00 00	 DD	 $LN6@GetLinkTyp
  0004c	00 00 00 00	 DD	 $LN2@GetLinkTyp
  00050	00 00 00 00	 DD	 $LN5@GetLinkTyp
?GetLinkType@CObj@@QAEKXZ ENDP				; CObj::GetLinkType
_TEXT	ENDS
; Function compile flags: /Ogtp
; File C:\IAGOS\server\v18\Source\Source\_Common\Obj.cpp
;	COMDAT ?ProcessAirShip@CObj@@QAEXXZ
_TEXT	SEGMENT
?ProcessAirShip@CObj@@QAEXXZ PROC			; CObj::ProcessAirShip, COMDAT
; _this$ = ecx

; 858  : #ifdef __CLIENT
; 859  : 	D3DXVECTOR3	vPos = GetPos();
; 860  : 
; 861  : 	switch( m_nEvent )
; 862  : 	{
; 863  : 	case 0:		// ´ë±â »óĹÂ
; 864  : 		if( g_ShipExp == TRUE )
; 865  : 		{
; 866  : 			g_vPosShip = m_vPos;
; 867  : 			m_nEvent ++;
; 868  : 			m_nCnt = 0;
; 869  : 		}
; 870  : 		break;
; 871  : 	case 1:		// Ćřąß ˝ĂŔŰ
; 872  : 		{
; 873  : 			int		i;
; 874  : 			D3DXVECTOR3 vPos = GetPos();
; 875  : 			for( i = 0; i < 10; i ++ )
; 876  : 			{
; 877  : 				CObj* pObj = new CObj;
; 878  : 				vPos = GetPos();
; 879  : 				vPos.x += (10 - xRandom(20));
; 880  : 				vPos.y += (xRandom(20));
; 881  : 				vPos.z += (10 - xRandom(20));
; 882  : 				pObj->m_dwType = 1;
; 883  : 				pObj->SetScale( D3DXVECTOR3(50, 50, 50) );
; 884  : 				pObj->SetPos( vPos );
; 885  : 				pObj->SetIndex( g_Neuz.m_pd3dDevice, 22 );
; 886  : 				pObj->UpdateLocalMatrix();
; 887  : 				m_pWorld->AddObj( pObj );
; 888  : 			}
; 889  : 			PLAYSND( "CtrlCraftCrash.wav" , NULL );// ¸ÂŔ¸¸é »çżîµĺ ÇĂ·ąŔĚ
; 890  : 		}
; 891  : 		m_nEvent ++;
; 892  : 		break;
; 893  : 	case 2:	// ¶łľîÁü.
; 894  : 		{
; 895  : 			float	h = m_pWorld->GetLandHeight( vPos.x, vPos.z );
; 896  : 			m_fAngX += 0.1f;
; 897  : 			SetAngleX( m_fAngX );
; 898  : 			if( m_dy > -2.0f )	m_dy -= 0.001f;
; 899  : 			vPos.y += m_dy;
; 900  : 			if( vPos.y - 10.0f < h )		// ąŮ´Úżˇ ĂłąÚČű
; 901  : 			{
; 902  : 				m_nEvent ++;
; 903  : 				m_pWorld->m_pCamera->SetQuake( 60 );
; 904  : 				PLAYSND( "CtrlCraftCrash.wav" );	// ¸ÂŔ¸¸é »çżîµĺ ÇĂ·ąŔĚ
; 905  : 			}
; 906  : 			SetPos( vPos );
; 907  : 			if( (m_nCnt & 7) == 0 )
; 908  : 			{
; 909  : 				CObj* pObj = new CObj;
; 910  : 				vPos = GetPos();
; 911  : 				vPos.x += (FLOAT)(160 - xRandom(320)) / 10.0f;
; 912  : 				vPos.y += (FLOAT)(xRandom(20)) + 10;
; 913  : 				vPos.z += (FLOAT)(160 - xRandom(320)) / 10.0f;
; 914  : 				pObj->m_dwType = 1;
; 915  : 				pObj->SetScale( D3DXVECTOR3(50, 50, 50) );
; 916  : 				pObj->SetPos( vPos );
; 917  : 				pObj->SetIndex( g_Neuz.m_pd3dDevice, 22 );
; 918  : 				pObj->UpdateLocalMatrix();
; 919  : 				m_pWorld->AddObj( pObj );
; 920  : 			}
; 921  : 			if( (m_nCnt & 15) == 0 && m_nCnt < 100 )
; 922  : 			{
; 923  : 				PLAYSND( "CtrlAirmine.wav", NULL );// ¸ÂŔ¸¸é »çżîµĺ ÇĂ·ąŔĚ
; 924  : 			}
; 925  : 
; 926  : 		}
; 927  : 		break;
; 928  : 	case 3:	// ąŮ´Úżˇ ĂłąÚČű
; 929  : 		if( g_ShipExp == 0 )
; 930  : 		{
; 931  : 			m_nEvent = 0;
; 932  : 			SetPos( g_vPosShip );
; 933  : 			SetAngleX( 0 );
; 934  : 			m_dy = 0;
; 935  : 		}
; 936  : 		break;
; 937  : 	}
; 938  : 	m_nCnt ++;
; 939  : #endif
; 940  : }

  00000	c2 00 00	 ret	 0
?ProcessAirShip@CObj@@QAEXXZ ENDP			; CObj::ProcessAirShip
_TEXT	ENDS
; Function compile flags: /Ogtp
; File C:\IAGOS\server\v18\Source\Source\_Common\Obj.cpp
;	COMDAT ?ProcessAI@CObj@@QAEXXZ
_TEXT	SEGMENT
?ProcessAI@CObj@@QAEXXZ PROC				; CObj::ProcessAI, COMDAT
; _this$ = ecx

; 290  : {

  00000	8b c1		 mov	 eax, ecx

; 291  : 	if( m_pAIInterface && GetType() == OT_MOVER )

  00002	8b 88 88 01 00
	00		 mov	 ecx, DWORD PTR [eax+392]
  00008	85 c9		 test	 ecx, ecx
  0000a	74 0e		 je	 SHORT $LN2@ProcessAI
  0000c	83 b8 70 01 00
	00 05		 cmp	 DWORD PTR [eax+368], 5
  00013	75 05		 jne	 SHORT $LN2@ProcessAI

; 292  : 		m_pAIInterface->RouteMessage();

  00015	8b 01		 mov	 eax, DWORD PTR [ecx]
  00017	ff 60 08	 jmp	 DWORD PTR [eax+8]
$LN2@ProcessAI:

; 293  : }

  0001a	c3		 ret	 0
?ProcessAI@CObj@@QAEXXZ ENDP				; CObj::ProcessAI
_TEXT	ENDS
; Function compile flags: /Ogtp
; File C:\IAGOS\server\v18\Source\Source\_Common\Obj.cpp
;	COMDAT ?SetTypeIndex@CObj@@QAEHPAUIDirect3DDevice9@@KKH@Z
_TEXT	SEGMENT
_pd3dDevice$ = 8					; size = 4
_dwType$ = 12						; size = 4
_dwIndex$ = 16						; size = 4
_bInitProp$ = 20					; size = 4
?SetTypeIndex@CObj@@QAEHPAUIDirect3DDevice9@@KKH@Z PROC	; CObj::SetTypeIndex, COMDAT
; _this$ = ecx

; 401  : {

  00000	55		 push	 ebp
  00001	8b ec		 mov	 ebp, esp

; 402  : 	m_dwIndex = dwIndex;

  00003	8b 45 10	 mov	 eax, DWORD PTR _dwIndex$[ebp]
  00006	56		 push	 esi
  00007	8b f1		 mov	 esi, ecx

; 403  : 	m_pModel = LoadModel( pd3dDevice, dwType, dwIndex );

  00009	50		 push	 eax
  0000a	ff 75 0c	 push	 DWORD PTR _dwType$[ebp]
  0000d	8b 16		 mov	 edx, DWORD PTR [esi]
  0000f	ff 75 08	 push	 DWORD PTR _pd3dDevice$[ebp]
  00012	89 86 74 01 00
	00		 mov	 DWORD PTR [esi+372], eax
  00018	ff 52 0c	 call	 DWORD PTR [edx+12]
  0001b	89 86 78 01 00
	00		 mov	 DWORD PTR [esi+376], eax

; 404  : 	if( m_pModel ) 

  00021	85 c0		 test	 eax, eax
  00023	74 45		 je	 SHORT $LN2@SetTypeInd

; 405  : 	{ 
; 406  : 		if( bInitProp )

  00025	83 7d 14 00	 cmp	 DWORD PTR _bInitProp$[ebp], 0
  00029	74 21		 je	 SHORT $LN3@SetTypeInd

; 407  : 		{
; 408  : 			ResetScale();

  0002b	8b ce		 mov	 ecx, esi
  0002d	e8 00 00 00 00	 call	 ?ResetScale@CObj@@QAEXXZ ; CObj::ResetScale

; 409  : 			UpdateBoundBox();

  00032	8b ce		 mov	 ecx, esi
  00034	e8 00 00 00 00	 call	 ?UpdateBoundBox@CObj@@QAEHXZ ; CObj::UpdateBoundBox

; 410  : 			InitProp();

  00039	8b 06		 mov	 eax, DWORD PTR [esi]
  0003b	8b ce		 mov	 ecx, esi
  0003d	6a 01		 push	 1
  0003f	ff 50 10	 call	 DWORD PTR [eax+16]

; 421  : 		}
; 422  : 
; 423  : 		return TRUE; 

  00042	b8 01 00 00 00	 mov	 eax, 1
  00047	5e		 pop	 esi

; 427  : }

  00048	5d		 pop	 ebp
  00049	c2 10 00	 ret	 16			; 00000010H
$LN3@SetTypeInd:

; 411  : 		}
; 412  : 		else
; 413  : 		{
; 414  : #ifdef __WORLDSERVER
; 415  : #if __VER >= 11 // __FIX_COLLISION
; 416  : 			if(dwType != OT_OBJ)

  0004c	83 7d 0c 00	 cmp	 DWORD PTR _dwType$[ebp], 0
  00050	74 07		 je	 SHORT $LN5@SetTypeInd

; 417  : #endif
; 418  : 			ResetScale();

  00052	8b ce		 mov	 ecx, esi
  00054	e8 00 00 00 00	 call	 ?ResetScale@CObj@@QAEXXZ ; CObj::ResetScale
$LN5@SetTypeInd:

; 419  : #endif //__WORLDSERVER
; 420  : 			UpdateBoundBox();

  00059	8b ce		 mov	 ecx, esi
  0005b	e8 00 00 00 00	 call	 ?UpdateBoundBox@CObj@@QAEHXZ ; CObj::UpdateBoundBox

; 421  : 		}
; 422  : 
; 423  : 		return TRUE; 

  00060	b8 01 00 00 00	 mov	 eax, 1
  00065	5e		 pop	 esi

; 427  : }

  00066	5d		 pop	 ebp
  00067	c2 10 00	 ret	 16			; 00000010H
$LN2@SetTypeInd:

; 424  : 	} 
; 425  : 
; 426  : 	return FALSE;

  0006a	33 c0		 xor	 eax, eax
  0006c	5e		 pop	 esi

; 427  : }

  0006d	5d		 pop	 ebp
  0006e	c2 10 00	 ret	 16			; 00000010H
?SetTypeIndex@CObj@@QAEHPAUIDirect3DDevice9@@KKH@Z ENDP	; CObj::SetTypeIndex
_TEXT	ENDS
; Function compile flags: /Ogtp
; File C:\IAGOS\server\v18\Source\Source\_Common\Obj.cpp
;	COMDAT ?GetPropA@CObj@@QAEPAUObjProp@@XZ
_TEXT	SEGMENT
?GetPropA@CObj@@QAEPAUObjProp@@XZ PROC			; CObj::GetPropA, COMDAT
; _this$ = ecx

; 126  : 	return prj.GetProp( m_dwType, m_dwIndex ); 

  00000	ff b1 74 01 00
	00		 push	 DWORD PTR [ecx+372]
  00006	ff b1 70 01 00
	00		 push	 DWORD PTR [ecx+368]
  0000c	b9 00 00 00 00	 mov	 ecx, OFFSET ?prj@@3VCProject@@A ; prj
  00011	e8 00 00 00 00	 call	 ?GetPropA@CProject@@QAEPAUObjProp@@HH@Z ; CProject::GetPropA

; 127  : }

  00016	c3		 ret	 0
?GetPropA@CObj@@QAEPAUObjProp@@XZ ENDP			; CObj::GetPropA
_TEXT	ENDS
; Function compile flags: /Ogtp
; File C:\IAGOS\server\v18\Source\Source\_Common\Obj.cpp
;	COMDAT ?SetAIInterface@CObj@@QAEXKK@Z
_TEXT	SEGMENT
__$EHRec$ = -12						; size = 12
_dwAIInterface$ = 8					; size = 4
$T2 = 8							; size = 4
$T3 = 8							; size = 4
$T4 = 8							; size = 4
$T5 = 8							; size = 4
$T6 = 8							; size = 4
$T7 = 8							; size = 4
$T8 = 8							; size = 4
$T9 = 8							; size = 4
$T10 = 8						; size = 4
$T11 = 8						; size = 4
$T12 = 8						; size = 4
_dwState$ = 12						; size = 4
?SetAIInterface@CObj@@QAEXKK@Z PROC			; CObj::SetAIInterface, COMDAT
; _this$ = ecx

; 722  : {

  00000	55		 push	 ebp
  00001	8b ec		 mov	 ebp, esp
  00003	6a ff		 push	 -1
  00005	68 00 00 00 00	 push	 __ehhandler$?SetAIInterface@CObj@@QAEXKK@Z
  0000a	64 a1 00 00 00
	00		 mov	 eax, DWORD PTR fs:0
  00010	50		 push	 eax
  00011	53		 push	 ebx
  00012	56		 push	 esi
  00013	57		 push	 edi
  00014	a1 00 00 00 00	 mov	 eax, DWORD PTR ___security_cookie
  00019	33 c5		 xor	 eax, ebp
  0001b	50		 push	 eax
  0001c	8d 45 f4	 lea	 eax, DWORD PTR __$EHRec$[ebp]
  0001f	64 a3 00 00 00
	00		 mov	 DWORD PTR fs:0, eax
  00025	8b f1		 mov	 esi, ecx

; 723  : 	if( m_dwAIInterface == dwAIInterface && m_dwAIInterfaceState == dwState )

  00027	8b 7d 08	 mov	 edi, DWORD PTR _dwAIInterface$[ebp]
  0002a	8b 5d 0c	 mov	 ebx, DWORD PTR _dwState$[ebp]
  0002d	39 be 8c 01 00
	00		 cmp	 DWORD PTR [esi+396], edi
  00033	75 0c		 jne	 SHORT $LN4@SetAIInter
  00035	39 9e 90 01 00
	00		 cmp	 DWORD PTR [esi+400], ebx
  0003b	0f 84 ed 01 00
	00		 je	 $LN1@SetAIInter
$LN4@SetAIInter:

; 724  : 		return;
; 725  : 	
; 726  : 	SAFE_DELETE( m_pAIInterface );

  00041	8b 8e 88 01 00
	00		 mov	 ecx, DWORD PTR [esi+392]
  00047	85 c9		 test	 ecx, ecx
  00049	74 07		 je	 SHORT $LN5@SetAIInter
  0004b	8b 01		 mov	 eax, DWORD PTR [ecx]
  0004d	6a 01		 push	 1
  0004f	ff 50 04	 call	 DWORD PTR [eax+4]
$LN5@SetAIInter:

; 727  : 	m_pAIInterface = NULL;
; 728  : 
; 729  : 	switch( dwAIInterface )

  00052	8d 47 fe	 lea	 eax, DWORD PTR [edi-2]
  00055	c7 86 88 01 00
	00 00 00 00 00	 mov	 DWORD PTR [esi+392], 0
  0005f	83 f8 62	 cmp	 eax, 98			; 00000062H
  00062	0f 87 ba 01 00
	00		 ja	 $LN2@SetAIInter
  00068	0f b6 80 00 00
	00 00		 movzx	 eax, BYTE PTR $LN53@SetAIInter[eax]
  0006f	ff 24 85 00 00
	00 00		 jmp	 DWORD PTR $LN54@SetAIInter[eax*4]
$LN6@SetAIInter:

; 730  : 	{
; 731  : 		case AII_MONSTER:		m_pAIInterface = new CAIMonster( this );	break;

  00076	68 f0 00 00 00	 push	 240			; 000000f0H
  0007b	e8 00 00 00 00	 call	 ??2@YAPAXI@Z		; operator new
  00080	83 c4 04	 add	 esp, 4
  00083	89 45 08	 mov	 DWORD PTR $T2[ebp], eax
  00086	c7 45 fc 00 00
	00 00		 mov	 DWORD PTR __$EHRec$[ebp+8], 0
  0008d	85 c0		 test	 eax, eax
  0008f	0f 84 85 01 00
	00		 je	 $LN40@SetAIInter
  00095	56		 push	 esi
  00096	8b c8		 mov	 ecx, eax
  00098	e8 00 00 00 00	 call	 ??0CAIMonster@@QAE@PAVCObj@@@Z ; CAIMonster::CAIMonster
  0009d	e9 7a 01 00 00	 jmp	 $LN41@SetAIInter
$LN7@SetAIInter:

; 732  : 		case AII_CLOCKWORKS:	m_pAIInterface = new CAIClockWorks( this );	break;

  000a2	6a 78		 push	 120			; 00000078H
  000a4	e8 00 00 00 00	 call	 ??2@YAPAXI@Z		; operator new
  000a9	83 c4 04	 add	 esp, 4
  000ac	89 45 08	 mov	 DWORD PTR $T3[ebp], eax
  000af	c7 45 fc 01 00
	00 00		 mov	 DWORD PTR __$EHRec$[ebp+8], 1
  000b6	85 c0		 test	 eax, eax
  000b8	0f 84 5c 01 00
	00		 je	 $LN40@SetAIInter
  000be	56		 push	 esi
  000bf	8b c8		 mov	 ecx, eax
  000c1	e8 00 00 00 00	 call	 ??0CAIClockWorks@@QAE@PAVCObj@@@Z ; CAIClockWorks::CAIClockWorks
  000c6	e9 51 01 00 00	 jmp	 $LN41@SetAIInter
$LN8@SetAIInter:

; 733  : 		case AII_PET:			m_pAIInterface = new CAIPet( this );		break;

  000cb	6a 50		 push	 80			; 00000050H
  000cd	e8 00 00 00 00	 call	 ??2@YAPAXI@Z		; operator new
  000d2	83 c4 04	 add	 esp, 4
  000d5	89 45 08	 mov	 DWORD PTR $T4[ebp], eax
  000d8	c7 45 fc 02 00
	00 00		 mov	 DWORD PTR __$EHRec$[ebp+8], 2
  000df	85 c0		 test	 eax, eax
  000e1	0f 84 33 01 00
	00		 je	 $LN40@SetAIInter
  000e7	56		 push	 esi
  000e8	8b c8		 mov	 ecx, eax
  000ea	e8 00 00 00 00	 call	 ??0CAIPet@@QAE@PAVCObj@@@Z ; CAIPet::CAIPet
  000ef	e9 28 01 00 00	 jmp	 $LN41@SetAIInter
$LN9@SetAIInter:

; 734  : 		case AII_BIGMUSCLE:		m_pAIInterface = new CAIBigMuscle( this );	break;

  000f4	68 90 00 00 00	 push	 144			; 00000090H
  000f9	e8 00 00 00 00	 call	 ??2@YAPAXI@Z		; operator new
  000fe	83 c4 04	 add	 esp, 4
  00101	89 45 08	 mov	 DWORD PTR $T5[ebp], eax
  00104	c7 45 fc 03 00
	00 00		 mov	 DWORD PTR __$EHRec$[ebp+8], 3
  0010b	85 c0		 test	 eax, eax
  0010d	0f 84 07 01 00
	00		 je	 $LN40@SetAIInter
  00113	56		 push	 esi
  00114	8b c8		 mov	 ecx, eax
  00116	e8 00 00 00 00	 call	 ??0CAIBigMuscle@@QAE@PAVCObj@@@Z ; CAIBigMuscle::CAIBigMuscle
  0011b	e9 fc 00 00 00	 jmp	 $LN41@SetAIInter
$LN10@SetAIInter:

; 735  : 		case AII_KRRR:			m_pAIInterface = new CAIKrrr( this );		break;

  00120	68 98 00 00 00	 push	 152			; 00000098H
  00125	e8 00 00 00 00	 call	 ??2@YAPAXI@Z		; operator new
  0012a	83 c4 04	 add	 esp, 4
  0012d	89 45 08	 mov	 DWORD PTR $T6[ebp], eax
  00130	c7 45 fc 04 00
	00 00		 mov	 DWORD PTR __$EHRec$[ebp+8], 4
  00137	85 c0		 test	 eax, eax
  00139	0f 84 db 00 00
	00		 je	 $LN40@SetAIInter
  0013f	56		 push	 esi
  00140	8b c8		 mov	 ecx, eax
  00142	e8 00 00 00 00	 call	 ??0CAIKrrr@@QAE@PAVCObj@@@Z ; CAIKrrr::CAIKrrr
  00147	e9 d0 00 00 00	 jmp	 $LN41@SetAIInter
$LN11@SetAIInter:

; 736  : 		case AII_BEAR:			m_pAIInterface = new CAIBear( this );		break;

  0014c	68 b0 00 00 00	 push	 176			; 000000b0H
  00151	e8 00 00 00 00	 call	 ??2@YAPAXI@Z		; operator new
  00156	83 c4 04	 add	 esp, 4
  00159	89 45 08	 mov	 DWORD PTR $T7[ebp], eax
  0015c	c7 45 fc 05 00
	00 00		 mov	 DWORD PTR __$EHRec$[ebp+8], 5
  00163	85 c0		 test	 eax, eax
  00165	0f 84 af 00 00
	00		 je	 $LN40@SetAIInter
  0016b	56		 push	 esi
  0016c	8b c8		 mov	 ecx, eax
  0016e	e8 00 00 00 00	 call	 ??0CAIBear@@QAE@PAVCObj@@@Z ; CAIBear::CAIBear
  00173	e9 a4 00 00 00	 jmp	 $LN41@SetAIInter
$LN12@SetAIInter:

; 737  : 		case AII_VER2_TYPE0:	m_pAIInterface = new CAIMonster2( this );	break;

  00178	6a 70		 push	 112			; 00000070H
  0017a	e8 00 00 00 00	 call	 ??2@YAPAXI@Z		; operator new
  0017f	83 c4 04	 add	 esp, 4
  00182	89 45 08	 mov	 DWORD PTR $T8[ebp], eax
  00185	c7 45 fc 06 00
	00 00		 mov	 DWORD PTR __$EHRec$[ebp+8], 6
  0018c	85 c0		 test	 eax, eax
  0018e	0f 84 86 00 00
	00		 je	 $LN40@SetAIInter
  00194	56		 push	 esi
  00195	8b c8		 mov	 ecx, eax
  00197	e8 00 00 00 00	 call	 ??0CAIMonster2@@QAE@PAVCObj@@@Z ; CAIMonster2::CAIMonster2
  0019c	eb 7e		 jmp	 SHORT $LN41@SetAIInter
$LN13@SetAIInter:

; 738  : #if __VER >= 10	// __METEONYKER_0608
; 739  : 		case AII_METEONYKER:	m_pAIInterface	= new CAIMeteonyker( this );	break;

  0019e	68 a8 00 00 00	 push	 168			; 000000a8H
  001a3	e8 00 00 00 00	 call	 ??2@YAPAXI@Z		; operator new
  001a8	83 c4 04	 add	 esp, 4
  001ab	89 45 08	 mov	 DWORD PTR $T9[ebp], eax
  001ae	c7 45 fc 07 00
	00 00		 mov	 DWORD PTR __$EHRec$[ebp+8], 7
  001b5	85 c0		 test	 eax, eax
  001b7	74 61		 je	 SHORT $LN40@SetAIInter
  001b9	56		 push	 esi
  001ba	8b c8		 mov	 ecx, eax
  001bc	e8 00 00 00 00	 call	 ??0CAIMeteonyker@@QAE@PAVCObj@@@Z ; CAIMeteonyker::CAIMeteonyker
  001c1	eb 59		 jmp	 SHORT $LN41@SetAIInter
$LN14@SetAIInter:

; 740  : #endif	// __METEONYKER_0608
; 741  : #ifdef __INSTANCE_AGGRO_SYSTEM
; 742  : 		case AII_AGGRO_NORMAL:		m_pAIInterface = new CAIAggroNormal( this );	break;

  001c3	68 f0 00 00 00	 push	 240			; 000000f0H
  001c8	e8 00 00 00 00	 call	 ??2@YAPAXI@Z		; operator new
  001cd	83 c4 04	 add	 esp, 4
  001d0	89 45 08	 mov	 DWORD PTR $T10[ebp], eax
  001d3	c7 45 fc 08 00
	00 00		 mov	 DWORD PTR __$EHRec$[ebp+8], 8
  001da	eb 30		 jmp	 SHORT $LN56@SetAIInter
$LN15@SetAIInter:

; 743  : 		case AII_PARTY_AGGRO_LEADER:m_pAIInterface = new CAIAggroNormal( this );	break;

  001dc	68 f0 00 00 00	 push	 240			; 000000f0H
  001e1	e8 00 00 00 00	 call	 ??2@YAPAXI@Z		; operator new
  001e6	83 c4 04	 add	 esp, 4
  001e9	89 45 08	 mov	 DWORD PTR $T11[ebp], eax
  001ec	c7 45 fc 09 00
	00 00		 mov	 DWORD PTR __$EHRec$[ebp+8], 9
  001f3	eb 17		 jmp	 SHORT $LN56@SetAIInter
$LN16@SetAIInter:

; 744  : 		case AII_PARTY_AGGRO_SUB:	m_pAIInterface = new CAIAggroNormal( this );	break;

  001f5	68 f0 00 00 00	 push	 240			; 000000f0H
  001fa	e8 00 00 00 00	 call	 ??2@YAPAXI@Z		; operator new
  001ff	83 c4 04	 add	 esp, 4
  00202	89 45 08	 mov	 DWORD PTR $T12[ebp], eax
  00205	c7 45 fc 0a 00
	00 00		 mov	 DWORD PTR __$EHRec$[ebp+8], 10 ; 0000000aH
$LN56@SetAIInter:

; 745  : #endif // __INSTANCE_AGGRO_SYSTEM
; 746  : 	}
; 747  : 
; 748  : 	m_dwAIInterface		 = dwAIInterface;

  0020c	85 c0		 test	 eax, eax
  0020e	74 0a		 je	 SHORT $LN40@SetAIInter
  00210	56		 push	 esi
  00211	8b c8		 mov	 ecx, eax
  00213	e8 00 00 00 00	 call	 ??0CAIAggroNormal@@QAE@PAVCObj@@@Z ; CAIAggroNormal::CAIAggroNormal
  00218	eb 02		 jmp	 SHORT $LN41@SetAIInter
$LN40@SetAIInter:
  0021a	33 c0		 xor	 eax, eax
$LN41@SetAIInter:
  0021c	89 86 88 01 00
	00		 mov	 DWORD PTR [esi+392], eax
$LN2@SetAIInter:
  00222	89 be 8c 01 00
	00		 mov	 DWORD PTR [esi+396], edi

; 749  : 	m_dwAIInterfaceState = dwState;

  00228	89 9e 90 01 00
	00		 mov	 DWORD PTR [esi+400], ebx
$LN1@SetAIInter:

; 750  : }

  0022e	8b 4d f4	 mov	 ecx, DWORD PTR __$EHRec$[ebp]
  00231	64 89 0d 00 00
	00 00		 mov	 DWORD PTR fs:0, ecx
  00238	59		 pop	 ecx
  00239	5f		 pop	 edi
  0023a	5e		 pop	 esi
  0023b	5b		 pop	 ebx
  0023c	8b e5		 mov	 esp, ebp
  0023e	5d		 pop	 ebp
  0023f	c2 08 00	 ret	 8
  00242	66 90		 npad	 2
$LN54@SetAIInter:
  00244	00 00 00 00	 DD	 $LN6@SetAIInter
  00248	00 00 00 00	 DD	 $LN7@SetAIInter
  0024c	00 00 00 00	 DD	 $LN8@SetAIInter
  00250	00 00 00 00	 DD	 $LN9@SetAIInter
  00254	00 00 00 00	 DD	 $LN10@SetAIInter
  00258	00 00 00 00	 DD	 $LN11@SetAIInter
  0025c	00 00 00 00	 DD	 $LN13@SetAIInter
  00260	00 00 00 00	 DD	 $LN14@SetAIInter
  00264	00 00 00 00	 DD	 $LN15@SetAIInter
  00268	00 00 00 00	 DD	 $LN16@SetAIInter
  0026c	00 00 00 00	 DD	 $LN12@SetAIInter
  00270	00 00 00 00	 DD	 $LN2@SetAIInter
$LN53@SetAIInter:
  00274	00		 DB	 0
  00275	0b		 DB	 11			; 0000000bH
  00276	01		 DB	 1
  00277	02		 DB	 2
  00278	03		 DB	 3
  00279	04		 DB	 4
  0027a	05		 DB	 5
  0027b	0b		 DB	 11			; 0000000bH
  0027c	06		 DB	 6
  0027d	07		 DB	 7
  0027e	08		 DB	 8
  0027f	09		 DB	 9
  00280	0b		 DB	 11			; 0000000bH
  00281	0b		 DB	 11			; 0000000bH
  00282	0b		 DB	 11			; 0000000bH
  00283	0b		 DB	 11			; 0000000bH
  00284	0b		 DB	 11			; 0000000bH
  00285	0b		 DB	 11			; 0000000bH
  00286	0b		 DB	 11			; 0000000bH
  00287	0b		 DB	 11			; 0000000bH
  00288	0b		 DB	 11			; 0000000bH
  00289	0b		 DB	 11			; 0000000bH
  0028a	0b		 DB	 11			; 0000000bH
  0028b	0b		 DB	 11			; 0000000bH
  0028c	0b		 DB	 11			; 0000000bH
  0028d	0b		 DB	 11			; 0000000bH
  0028e	0b		 DB	 11			; 0000000bH
  0028f	0b		 DB	 11			; 0000000bH
  00290	0b		 DB	 11			; 0000000bH
  00291	0b		 DB	 11			; 0000000bH
  00292	0b		 DB	 11			; 0000000bH
  00293	0b		 DB	 11			; 0000000bH
  00294	0b		 DB	 11			; 0000000bH
  00295	0b		 DB	 11			; 0000000bH
  00296	0b		 DB	 11			; 0000000bH
  00297	0b		 DB	 11			; 0000000bH
  00298	0b		 DB	 11			; 0000000bH
  00299	0b		 DB	 11			; 0000000bH
  0029a	0b		 DB	 11			; 0000000bH
  0029b	0b		 DB	 11			; 0000000bH
  0029c	0b		 DB	 11			; 0000000bH
  0029d	0b		 DB	 11			; 0000000bH
  0029e	0b		 DB	 11			; 0000000bH
  0029f	0b		 DB	 11			; 0000000bH
  002a0	0b		 DB	 11			; 0000000bH
  002a1	0b		 DB	 11			; 0000000bH
  002a2	0b		 DB	 11			; 0000000bH
  002a3	0b		 DB	 11			; 0000000bH
  002a4	0b		 DB	 11			; 0000000bH
  002a5	0b		 DB	 11			; 0000000bH
  002a6	0b		 DB	 11			; 0000000bH
  002a7	0b		 DB	 11			; 0000000bH
  002a8	0b		 DB	 11			; 0000000bH
  002a9	0b		 DB	 11			; 0000000bH
  002aa	0b		 DB	 11			; 0000000bH
  002ab	0b		 DB	 11			; 0000000bH
  002ac	0b		 DB	 11			; 0000000bH
  002ad	0b		 DB	 11			; 0000000bH
  002ae	0b		 DB	 11			; 0000000bH
  002af	0b		 DB	 11			; 0000000bH
  002b0	0b		 DB	 11			; 0000000bH
  002b1	0b		 DB	 11			; 0000000bH
  002b2	0b		 DB	 11			; 0000000bH
  002b3	0b		 DB	 11			; 0000000bH
  002b4	0b		 DB	 11			; 0000000bH
  002b5	0b		 DB	 11			; 0000000bH
  002b6	0b		 DB	 11			; 0000000bH
  002b7	0b		 DB	 11			; 0000000bH
  002b8	0b		 DB	 11			; 0000000bH
  002b9	0b		 DB	 11			; 0000000bH
  002ba	0b		 DB	 11			; 0000000bH
  002bb	0b		 DB	 11			; 0000000bH
  002bc	0b		 DB	 11			; 0000000bH
  002bd	0b		 DB	 11			; 0000000bH
  002be	0b		 DB	 11			; 0000000bH
  002bf	0b		 DB	 11			; 0000000bH
  002c0	0b		 DB	 11			; 0000000bH
  002c1	0b		 DB	 11			; 0000000bH
  002c2	0b		 DB	 11			; 0000000bH
  002c3	0b		 DB	 11			; 0000000bH
  002c4	0b		 DB	 11			; 0000000bH
  002c5	0b		 DB	 11			; 0000000bH
  002c6	0b		 DB	 11			; 0000000bH
  002c7	0b		 DB	 11			; 0000000bH
  002c8	0b		 DB	 11			; 0000000bH
  002c9	0b		 DB	 11			; 0000000bH
  002ca	0b		 DB	 11			; 0000000bH
  002cb	0b		 DB	 11			; 0000000bH
  002cc	0b		 DB	 11			; 0000000bH
  002cd	0b		 DB	 11			; 0000000bH
  002ce	0b		 DB	 11			; 0000000bH
  002cf	0b		 DB	 11			; 0000000bH
  002d0	0b		 DB	 11			; 0000000bH
  002d1	0b		 DB	 11			; 0000000bH
  002d2	0b		 DB	 11			; 0000000bH
  002d3	0b		 DB	 11			; 0000000bH
  002d4	0b		 DB	 11			; 0000000bH
  002d5	0b		 DB	 11			; 0000000bH
  002d6	0a		 DB	 10			; 0000000aH
_TEXT	ENDS
;	COMDAT text$x
text$x	SEGMENT
__unwindfunclet$?SetAIInterface@CObj@@QAEXKK@Z$0:
  00000	68 f0 00 00 00	 push	 240			; 000000f0H
  00005	8b 45 08	 mov	 eax, DWORD PTR $T2[ebp]
  00008	50		 push	 eax
  00009	e8 00 00 00 00	 call	 ??3@YAXPAXI@Z		; operator delete
  0000e	83 c4 08	 add	 esp, 8
  00011	c3		 ret	 0
__unwindfunclet$?SetAIInterface@CObj@@QAEXKK@Z$1:
  00012	6a 78		 push	 120			; 00000078H
  00014	8b 45 08	 mov	 eax, DWORD PTR $T3[ebp]
  00017	50		 push	 eax
  00018	e8 00 00 00 00	 call	 ??3@YAXPAXI@Z		; operator delete
  0001d	83 c4 08	 add	 esp, 8
  00020	c3		 ret	 0
__unwindfunclet$?SetAIInterface@CObj@@QAEXKK@Z$2:
  00021	6a 50		 push	 80			; 00000050H
  00023	8b 45 08	 mov	 eax, DWORD PTR $T4[ebp]
  00026	50		 push	 eax
  00027	e8 00 00 00 00	 call	 ??3@YAXPAXI@Z		; operator delete
  0002c	83 c4 08	 add	 esp, 8
  0002f	c3		 ret	 0
__unwindfunclet$?SetAIInterface@CObj@@QAEXKK@Z$3:
  00030	68 90 00 00 00	 push	 144			; 00000090H
  00035	8b 45 08	 mov	 eax, DWORD PTR $T5[ebp]
  00038	50		 push	 eax
  00039	e8 00 00 00 00	 call	 ??3@YAXPAXI@Z		; operator delete
  0003e	83 c4 08	 add	 esp, 8
  00041	c3		 ret	 0
__unwindfunclet$?SetAIInterface@CObj@@QAEXKK@Z$4:
  00042	68 98 00 00 00	 push	 152			; 00000098H
  00047	8b 45 08	 mov	 eax, DWORD PTR $T6[ebp]
  0004a	50		 push	 eax
  0004b	e8 00 00 00 00	 call	 ??3@YAXPAXI@Z		; operator delete
  00050	83 c4 08	 add	 esp, 8
  00053	c3		 ret	 0
__unwindfunclet$?SetAIInterface@CObj@@QAEXKK@Z$5:
  00054	68 b0 00 00 00	 push	 176			; 000000b0H
  00059	8b 45 08	 mov	 eax, DWORD PTR $T7[ebp]
  0005c	50		 push	 eax
  0005d	e8 00 00 00 00	 call	 ??3@YAXPAXI@Z		; operator delete
  00062	83 c4 08	 add	 esp, 8
  00065	c3		 ret	 0
__unwindfunclet$?SetAIInterface@CObj@@QAEXKK@Z$6:
  00066	6a 70		 push	 112			; 00000070H
  00068	8b 45 08	 mov	 eax, DWORD PTR $T8[ebp]
  0006b	50		 push	 eax
  0006c	e8 00 00 00 00	 call	 ??3@YAXPAXI@Z		; operator delete
  00071	83 c4 08	 add	 esp, 8
  00074	c3		 ret	 0
__unwindfunclet$?SetAIInterface@CObj@@QAEXKK@Z$7:
  00075	68 a8 00 00 00	 push	 168			; 000000a8H
  0007a	8b 45 08	 mov	 eax, DWORD PTR $T9[ebp]
  0007d	50		 push	 eax
  0007e	e8 00 00 00 00	 call	 ??3@YAXPAXI@Z		; operator delete
  00083	83 c4 08	 add	 esp, 8
  00086	c3		 ret	 0
__unwindfunclet$?SetAIInterface@CObj@@QAEXKK@Z$8:
  00087	68 f0 00 00 00	 push	 240			; 000000f0H
  0008c	8b 45 08	 mov	 eax, DWORD PTR $T10[ebp]
  0008f	50		 push	 eax
  00090	e8 00 00 00 00	 call	 ??3@YAXPAXI@Z		; operator delete
  00095	83 c4 08	 add	 esp, 8
  00098	c3		 ret	 0
__unwindfunclet$?SetAIInterface@CObj@@QAEXKK@Z$9:
  00099	68 f0 00 00 00	 push	 240			; 000000f0H
  0009e	8b 45 08	 mov	 eax, DWORD PTR $T11[ebp]
  000a1	50		 push	 eax
  000a2	e8 00 00 00 00	 call	 ??3@YAXPAXI@Z		; operator delete
  000a7	83 c4 08	 add	 esp, 8
  000aa	c3		 ret	 0
__unwindfunclet$?SetAIInterface@CObj@@QAEXKK@Z$10:
  000ab	68 f0 00 00 00	 push	 240			; 000000f0H
  000b0	8b 45 08	 mov	 eax, DWORD PTR $T12[ebp]
  000b3	50		 push	 eax
  000b4	e8 00 00 00 00	 call	 ??3@YAXPAXI@Z		; operator delete
  000b9	83 c4 08	 add	 esp, 8
  000bc	c3		 ret	 0
  000bd	cc		 int	 3
  000be	cc		 int	 3
  000bf	cc		 int	 3
  000c0	cc		 int	 3
  000c1	cc		 int	 3
__ehhandler$?SetAIInterface@CObj@@QAEXKK@Z:
  000c2	90		 npad	 1
  000c3	90		 npad	 1
  000c4	8b 54 24 08	 mov	 edx, DWORD PTR [esp+8]
  000c8	8d 42 0c	 lea	 eax, DWORD PTR [edx+12]
  000cb	8b 4a f0	 mov	 ecx, DWORD PTR [edx-16]
  000ce	33 c8		 xor	 ecx, eax
  000d0	e8 00 00 00 00	 call	 @__security_check_cookie@4
  000d5	b8 00 00 00 00	 mov	 eax, OFFSET __ehfuncinfo$?SetAIInterface@CObj@@QAEXKK@Z
  000da	e9 00 00 00 00	 jmp	 ___CxxFrameHandler3
text$x	ENDS
?SetAIInterface@CObj@@QAEXKK@Z ENDP			; CObj::SetAIInterface
; Function compile flags: /Ogtp
; File C:\IAGOS\server\v18\Source\Source\_Common\Obj.cpp
; File C:\IAGOS\server\v18\Source\Source\_Common\Obj.h
; File C:\IAGOS\server\v18\Source\Source\_Common\Obj.cpp
; File C:\IAGOS\server\v18\Source\Source\_Common\Obj.h
; File C:\IAGOS\server\v18\Source\Source\_Common\Obj.cpp
; File C:\IAGOS\server\v18\Source\Source\_Common\Obj.h
; File C:\IAGOS\server\v18\Source\Source\_Common\Obj.cpp
; File C:\IAGOS\server\v18\Source\Source\_Common\Obj.h
; File C:\IAGOS\server\v18\Source\Source\_Common\Obj.cpp
;	COMDAT ?SetOnLand@CObj@@QAEXXZ
_TEXT	SEGMENT
_vPos$1 = -28						; size = 12
$T2 = -16						; size = 12
__$ArrayPad$ = -4					; size = 4
?SetOnLand@CObj@@QAEXXZ PROC				; CObj::SetOnLand, COMDAT
; _this$ = ecx

; 296  : {  

  00000	55		 push	 ebp
  00001	8b ec		 mov	 ebp, esp
  00003	83 ec 1c	 sub	 esp, 28			; 0000001cH
  00006	a1 00 00 00 00	 mov	 eax, DWORD PTR ___security_cookie
  0000b	33 c5		 xor	 eax, ebp
  0000d	89 45 fc	 mov	 DWORD PTR __$ArrayPad$[ebp], eax
  00010	56		 push	 esi
  00011	8b f1		 mov	 esi, ecx

; 297  : 	if( GetModel()->m_pModelElem->m_bFly == FALSE )

  00013	8b 86 78 01 00
	00		 mov	 eax, DWORD PTR [esi+376]
  00019	8b 80 90 00 00
	00		 mov	 eax, DWORD PTR [eax+144]
  0001f	f6 80 81 00 00
	00 01		 test	 BYTE PTR [eax+129], 1
  00026	75 3f		 jne	 SHORT $LN2@SetOnLand
; File C:\IAGOS\server\v18\Source\Source\_Common\Obj.h

; 215  : 	D3DXVECTOR3		GetPos()	{ return m_vPos; }

  00028	8b 86 68 01 00
	00		 mov	 eax, DWORD PTR [esi+360]
  0002e	f3 0f 7e 86 60
	01 00 00	 movq	 xmm0, QWORD PTR [esi+352]
; File C:\IAGOS\server\v18\Source\Source\_Common\Obj.cpp

; 300  : 		vPos.y = m_pWorld->GetLandHeight( GetPos() );

  00036	8b 8e 6c 01 00
	00		 mov	 ecx, DWORD PTR [esi+364]
; File C:\IAGOS\server\v18\Source\Source\_Common\Obj.h

; 215  : 	D3DXVECTOR3		GetPos()	{ return m_vPos; }

  0003c	89 45 ec	 mov	 DWORD PTR _vPos$1[ebp+8], eax
  0003f	89 45 f8	 mov	 DWORD PTR $T2[ebp+8], eax
; File C:\IAGOS\server\v18\Source\Source\_Common\Obj.cpp

; 300  : 		vPos.y = m_pWorld->GetLandHeight( GetPos() );

  00042	8d 45 f0	 lea	 eax, DWORD PTR $T2[ebp]
; File C:\IAGOS\server\v18\Source\Source\_Common\Obj.h

; 215  : 	D3DXVECTOR3		GetPos()	{ return m_vPos; }

  00045	66 0f d6 45 e4	 movq	 QWORD PTR _vPos$1[ebp], xmm0
  0004a	f3 0f 7e c0	 movq	 xmm0, xmm0
; File C:\IAGOS\server\v18\Source\Source\_Common\Obj.cpp

; 300  : 		vPos.y = m_pWorld->GetLandHeight( GetPos() );

  0004e	50		 push	 eax
; File C:\IAGOS\server\v18\Source\Source\_Common\Obj.h

; 215  : 	D3DXVECTOR3		GetPos()	{ return m_vPos; }

  0004f	66 0f d6 45 f0	 movq	 QWORD PTR $T2[ebp], xmm0
; File C:\IAGOS\server\v18\Source\Source\_Common\Obj.cpp

; 300  : 		vPos.y = m_pWorld->GetLandHeight( GetPos() );

  00054	e8 00 00 00 00	 call	 ?GetLandHeight@CWorld@@QAEMABUD3DXVECTOR3@@@Z ; CWorld::GetLandHeight

; 301  : 		SetPos( vPos );

  00059	8d 45 e4	 lea	 eax, DWORD PTR _vPos$1[ebp]
  0005c	8b ce		 mov	 ecx, esi
  0005e	50		 push	 eax
  0005f	d9 5d e8	 fstp	 DWORD PTR _vPos$1[ebp+4]
  00062	e8 00 00 00 00	 call	 ?SetPos@CObj@@QAEXABUD3DXVECTOR3@@@Z ; CObj::SetPos
$LN2@SetOnLand:

; 302  : 	}
; 303  : }

  00067	8b 4d fc	 mov	 ecx, DWORD PTR __$ArrayPad$[ebp]
  0006a	33 cd		 xor	 ecx, ebp
  0006c	5e		 pop	 esi
  0006d	e8 00 00 00 00	 call	 @__security_check_cookie@4
  00072	8b e5		 mov	 esp, ebp
  00074	5d		 pop	 ebp
  00075	c3		 ret	 0
?SetOnLand@CObj@@QAEXXZ ENDP				; CObj::SetOnLand
_TEXT	ENDS
; Function compile flags: /Ogtp
; File C:\IAGOS\server\v18\Source\Source\_Common\Obj.cpp
;	COMDAT ?UpdateBoundBox@CObj@@QAEHXZ
_TEXT	SEGMENT
?UpdateBoundBox@CObj@@QAEHXZ PROC			; CObj::UpdateBoundBox, COMDAT
; _this$ = ecx

; 431  : 	if( m_pModel == NULL ) 

  00000	8b 81 78 01 00
	00		 mov	 eax, DWORD PTR [ecx+376]
  00006	85 c0		 test	 eax, eax
  00008	75 01		 jne	 SHORT $LN2@UpdateBoun

; 463  : }

  0000a	c3		 ret	 0
$LN2@UpdateBoun:

; 432  : 		return FALSE;
; 433  : 
; 434  : 	const BOUND_BOX* pBB = m_pModel->GetBBVector();

  0000b	83 c0 0c	 add	 eax, 12			; 0000000cH

; 435  : 	if( pBB )

  0000e	74 05		 je	 SHORT $LN3@UpdateBoun

; 436  : 	{
; 437  : 		//     - z
; 438  : 		//   3 | 2
; 439  : 		// - --+-- + x
; 440  : 		//   0 | 1
; 441  : 		//
; 442  : 		//   7 | 6
; 443  : 		// - --+-- + x
; 444  : 		//   4 | 5
; 445  : 	#ifdef __CLIENT
; 446  : 		m_vecBoundsLocal[0] = D3DXVECTOR3( m_pModel->m_vMax.x, m_pModel->m_vMax.y, m_pModel->m_vMax.z );
; 447  : 		m_vecBoundsLocal[1] = D3DXVECTOR3( m_pModel->m_vMax.x, m_pModel->m_vMax.y, m_pModel->m_vMin.z );
; 448  : 		m_vecBoundsLocal[2] = D3DXVECTOR3( m_pModel->m_vMax.x, m_pModel->m_vMin.y, m_pModel->m_vMax.z );
; 449  : 		m_vecBoundsLocal[3] = D3DXVECTOR3( m_pModel->m_vMax.x, m_pModel->m_vMin.y, m_pModel->m_vMin.z );
; 450  : 		m_vecBoundsLocal[4] = D3DXVECTOR3( m_pModel->m_vMin.x, m_pModel->m_vMax.y, m_pModel->m_vMax.z );
; 451  : 		m_vecBoundsLocal[5] = D3DXVECTOR3( m_pModel->m_vMin.x, m_pModel->m_vMax.y, m_pModel->m_vMin.z );
; 452  : 		m_vecBoundsLocal[6] = D3DXVECTOR3( m_pModel->m_vMin.x, m_pModel->m_vMin.y, m_pModel->m_vMin.z );
; 453  : 		m_vecBoundsLocal[7] = D3DXVECTOR3( m_pModel->m_vMin.x, m_pModel->m_vMin.y, m_pModel->m_vMax.z );
; 454  : 	#endif // __CLIENT
; 455  : 		UpdateLocalMatrix();

  00010	e8 00 00 00 00	 call	 ?UpdateLocalMatrix@CObj@@QAEXXZ ; CObj::UpdateLocalMatrix
$LN3@UpdateBoun:

; 456  : 	}
; 457  : 
; 458  : #if !defined(__WORLDSERVER)
; 459  : 	CalcLinkLevel();
; 460  : #endif	// !defined(__WORLDSERVER)
; 461  : 
; 462  : 	return TRUE;

  00015	b8 01 00 00 00	 mov	 eax, 1

; 463  : }

  0001a	c3		 ret	 0
?UpdateBoundBox@CObj@@QAEHXZ ENDP			; CObj::UpdateBoundBox
_TEXT	ENDS
; Function compile flags: /Ogtp
; File C:\IAGOS\server\v18\Source\Source\_Common\Obj.cpp
;	COMDAT ?ResetScale@CObj@@QAEXXZ
_TEXT	SEGMENT
?ResetScale@CObj@@QAEXXZ PROC				; CObj::ResetScale, COMDAT
; _this$ = ecx

; 395  : 	m_vScale.x = m_pModel->m_pModelElem->m_fScale;

  00000	8b 91 78 01 00
	00		 mov	 edx, DWORD PTR [ecx+376]
  00006	8b 82 90 00 00
	00		 mov	 eax, DWORD PTR [edx+144]
  0000c	8b 40 74	 mov	 eax, DWORD PTR [eax+116]
  0000f	89 41 0c	 mov	 DWORD PTR [ecx+12], eax

; 396  : 	m_vScale.y = m_pModel->m_pModelElem->m_fScale;

  00012	8b 82 90 00 00
	00		 mov	 eax, DWORD PTR [edx+144]
  00018	8b 40 74	 mov	 eax, DWORD PTR [eax+116]
  0001b	89 41 10	 mov	 DWORD PTR [ecx+16], eax

; 397  : 	m_vScale.z = m_pModel->m_pModelElem->m_fScale;

  0001e	8b 82 90 00 00
	00		 mov	 eax, DWORD PTR [edx+144]
  00024	8b 40 74	 mov	 eax, DWORD PTR [eax+116]
  00027	89 41 14	 mov	 DWORD PTR [ecx+20], eax

; 398  : }

  0002a	c3		 ret	 0
?ResetScale@CObj@@QAEXXZ ENDP				; CObj::ResetScale
_TEXT	ENDS
; Function compile flags: /Ogtp
; File C:\IAGOS\server\v18\Source\Source\_Common\Obj.cpp
;	COMDAT ?DelNode@CObj@@QAEXXZ
_TEXT	SEGMENT
?DelNode@CObj@@QAEXXZ PROC				; CObj::DelNode, COMDAT
; _this$ = ecx

; 216  : 	if(m_pPrev)

  00000	8b 91 7c 01 00
	00		 mov	 edx, DWORD PTR [ecx+380]
  00006	85 d2		 test	 edx, edx
  00008	74 24		 je	 SHORT $LN3@DelNode

; 217  : 	{	
; 218  : 		m_pPrev->m_pNext = m_pNext;

  0000a	8b 81 80 01 00
	00		 mov	 eax, DWORD PTR [ecx+384]
  00010	89 82 80 01 00
	00		 mov	 DWORD PTR [edx+384], eax

; 219  : 		if(m_pPrev->m_pNext == this)

  00016	8b 81 7c 01 00
	00		 mov	 eax, DWORD PTR [ecx+380]
  0001c	39 88 80 01 00
	00		 cmp	 DWORD PTR [eax+384], ecx
  00022	75 0a		 jne	 SHORT $LN3@DelNode

; 220  : 			m_pPrev->m_pNext = NULL;

  00024	c7 80 80 01 00
	00 00 00 00 00	 mov	 DWORD PTR [eax+384], 0
$LN3@DelNode:

; 221  : 	}
; 222  : 	if(m_pNext)

  0002e	8b 91 80 01 00
	00		 mov	 edx, DWORD PTR [ecx+384]
  00034	85 d2		 test	 edx, edx
  00036	74 24		 je	 SHORT $LN8@DelNode

; 223  : 	{
; 224  : 		m_pNext->m_pPrev = m_pPrev;

  00038	8b 81 7c 01 00
	00		 mov	 eax, DWORD PTR [ecx+380]
  0003e	89 82 7c 01 00
	00		 mov	 DWORD PTR [edx+380], eax

; 225  : 		if(m_pNext->m_pPrev == this)

  00044	8b 81 80 01 00
	00		 mov	 eax, DWORD PTR [ecx+384]
  0004a	39 88 7c 01 00
	00		 cmp	 DWORD PTR [eax+380], ecx
  00050	75 0a		 jne	 SHORT $LN8@DelNode

; 226  : 			m_pNext->m_pPrev = NULL;

  00052	c7 80 7c 01 00
	00 00 00 00 00	 mov	 DWORD PTR [eax+380], 0
$LN8@DelNode:

; 227  : 	}
; 228  : 	m_pNext = m_pPrev = NULL;
; 229  : }

  0005c	c7 81 7c 01 00
	00 00 00 00 00	 mov	 DWORD PTR [ecx+380], 0
  00066	c7 81 80 01 00
	00 00 00 00 00	 mov	 DWORD PTR [ecx+384], 0
  00070	c3		 ret	 0
?DelNode@CObj@@QAEXXZ ENDP				; CObj::DelNode
_TEXT	ENDS
; Function compile flags: /Ogtp
; File C:\IAGOS\server\v18\Source\Source\_Common\Obj.cpp
;	COMDAT ?InsNextNode@CObj@@QAEXPAV1@@Z
_TEXT	SEGMENT
_pObj$ = 8						; size = 4
?InsNextNode@CObj@@QAEXPAV1@@Z PROC			; CObj::InsNextNode, COMDAT
; _this$ = ecx

; 203  : {

  00000	55		 push	 ebp
  00001	8b ec		 mov	 ebp, esp

; 204  : 	pObj->m_pNext = m_pNext;

  00003	8b 55 08	 mov	 edx, DWORD PTR _pObj$[ebp]
  00006	8b 81 80 01 00
	00		 mov	 eax, DWORD PTR [ecx+384]
  0000c	89 82 80 01 00
	00		 mov	 DWORD PTR [edx+384], eax

; 205  : 	pObj->m_pPrev = this;

  00012	89 8a 7c 01 00
	00		 mov	 DWORD PTR [edx+380], ecx

; 206  : 	if(m_pNext)

  00018	8b 81 80 01 00
	00		 mov	 eax, DWORD PTR [ecx+384]
  0001e	85 c0		 test	 eax, eax
  00020	74 06		 je	 SHORT $LN4@InsNextNod

; 207  : 		m_pNext->m_pPrev = pObj;

  00022	89 90 7c 01 00
	00		 mov	 DWORD PTR [eax+380], edx
$LN4@InsNextNod:

; 208  : 	m_pNext = pObj;
; 209  : }

  00028	89 91 80 01 00
	00		 mov	 DWORD PTR [ecx+384], edx
  0002e	5d		 pop	 ebp
  0002f	c2 04 00	 ret	 4
?InsNextNode@CObj@@QAEXPAV1@@Z ENDP			; CObj::InsNextNode
_TEXT	ENDS
; Function compile flags: /Ogtp
; File C:\IAGOS\server\v18\Source\Source\_Common\Obj.cpp
;	COMDAT ?InsPrevNode@CObj@@QAEXPAV1@@Z
_TEXT	SEGMENT
_pObj$ = 8						; size = 4
?InsPrevNode@CObj@@QAEXPAV1@@Z PROC			; CObj::InsPrevNode, COMDAT
; _this$ = ecx

; 188  : {

  00000	55		 push	 ebp
  00001	8b ec		 mov	 ebp, esp

; 189  : 	pObj->m_pNext = this;

  00003	8b 55 08	 mov	 edx, DWORD PTR _pObj$[ebp]
  00006	89 8a 80 01 00
	00		 mov	 DWORD PTR [edx+384], ecx

; 190  : 	pObj->m_pPrev = m_pPrev;

  0000c	8b 81 7c 01 00
	00		 mov	 eax, DWORD PTR [ecx+380]
  00012	89 82 7c 01 00
	00		 mov	 DWORD PTR [edx+380], eax

; 191  : 	if(m_pPrev)

  00018	8b 81 7c 01 00
	00		 mov	 eax, DWORD PTR [ecx+380]
  0001e	85 c0		 test	 eax, eax
  00020	74 06		 je	 SHORT $LN4@InsPrevNod

; 192  : 		m_pPrev->m_pNext = pObj;

  00022	89 90 80 01 00
	00		 mov	 DWORD PTR [eax+384], edx
$LN4@InsPrevNod:

; 193  : 	m_pPrev = pObj;
; 194  : }

  00028	89 91 7c 01 00
	00		 mov	 DWORD PTR [ecx+380], edx
  0002e	5d		 pop	 ebp
  0002f	c2 04 00	 ret	 4
?InsPrevNode@CObj@@QAEXPAV1@@Z ENDP			; CObj::InsPrevNode
_TEXT	ENDS
; Function compile flags: /Ogtp
; File C:\IAGOS\server\v18\Source\Source\_Common\Obj.cpp
; File C:\IAGOS\server\v18\Source\Source\_Common\Obj.h
; File C:\IAGOS\server\v18\Source\Source\DX_SDK\d3dx9math.inl
; File C:\IAGOS\server\v18\Source\Source\_Common\Obj.h
; File C:\IAGOS\server\v18\Source\Source\_Common\Obj.cpp
; File C:\IAGOS\server\v18\Source\Source\DX_SDK\d3dx9math.inl
; File C:\IAGOS\server\v18\Source\Source\_Common\Obj.cpp
; File C:\IAGOS\server\v18\Source\Source\DX_SDK\d3dx9math.inl
; File C:\IAGOS\server\v18\Source\Source\_Common\Obj.cpp
; File C:\IAGOS\server\v18\Source\Source\DX_SDK\d3dx9math.inl
; File C:\IAGOS\server\v18\Source\Source\_Common\Obj.cpp
; File C:\IAGOS\server\v18\Source\Source\DX_SDK\d3dx9math.inl
; File C:\IAGOS\server\v18\Source\Source\_Common\Obj.cpp
; File C:\IAGOS\server\v18\Source\Source\DX_SDK\d3dx9math.inl
; File C:\IAGOS\server\v18\Source\Source\_Common\Obj.cpp
;	COMDAT ?IsRangeObj@CObj@@QAEHABUD3DXVECTOR3@@M@Z
_TEXT	SEGMENT
$T1 = -16						; size = 12
tv293 = -4						; size = 4
_vDest$ = 8						; size = 4
_fRange$ = 12						; size = 4
?IsRangeObj@CObj@@QAEHABUD3DXVECTOR3@@M@Z PROC		; CObj::IsRangeObj, COMDAT
; _this$ = ecx

; 831  : {

  00000	55		 push	 ebp
  00001	8b ec		 mov	 ebp, esp
  00003	83 ec 10	 sub	 esp, 16			; 00000010H
  00006	56		 push	 esi
  00007	8b f1		 mov	 esi, ecx

; 832  : 	if( m_pModel == NULL )	return FALSE;

  00009	83 be 78 01 00
	00 00		 cmp	 DWORD PTR [esi+376], 0
  00010	74 7f		 je	 SHORT $LN3@IsRangeObj

; 833  : 
; 834  : 	float	fRadius = 1.0f;
; 835  : 	fRadius *= 0.8f;							// »ď¸é Ćň±ŐŔ¸·Î¸¸ ÇĎ´Ď±î łŃ ÄżĽ­ Á¶±Ý ÁŮż´´Ů.
; 836  : 
; 837  : 	float fRadiusSrc = GetRadius();

  00012	e8 00 00 00 00	 call	 ?GetRadius@CObj@@QAEMXZ	; CObj::GetRadius
; File C:\IAGOS\server\v18\Source\Source\_Common\Obj.h

; 215  : 	D3DXVECTOR3		GetPos()	{ return m_vPos; }

  00017	8b 86 68 01 00
	00		 mov	 eax, DWORD PTR [esi+360]
  0001d	f3 0f 7e 86 60
	01 00 00	 movq	 xmm0, QWORD PTR [esi+352]
  00025	89 45 f8	 mov	 DWORD PTR $T1[ebp+8], eax
; File C:\IAGOS\server\v18\Source\Source\DX_SDK\d3dx9math.inl

; 383  :     return D3DXVECTOR3(x - v.x, y - v.y, z - v.z);

  00028	8b 45 08	 mov	 eax, DWORD PTR _vDest$[ebp]
; File C:\IAGOS\server\v18\Source\Source\_Common\Obj.h

; 215  : 	D3DXVECTOR3		GetPos()	{ return m_vPos; }

  0002b	66 0f d6 45 f0	 movq	 QWORD PTR $T1[ebp], xmm0
; File C:\IAGOS\server\v18\Source\Source\_Common\Obj.cpp

; 838  : 	fRadiusSrc *= 0.8f;	

  00030	d9 5d fc	 fstp	 DWORD PTR tv293[ebp]
  00033	f3 0f 10 5d fc	 movss	 xmm3, DWORD PTR tv293[ebp]
; File C:\IAGOS\server\v18\Source\Source\DX_SDK\d3dx9math.inl

; 383  :     return D3DXVECTOR3(x - v.x, y - v.y, z - v.z);

  00038	f3 0f 10 08	 movss	 xmm1, DWORD PTR [eax]
  0003c	f3 0f 10 50 04	 movss	 xmm2, DWORD PTR [eax+4]
  00041	f3 0f 5c 55 f4	 subss	 xmm2, DWORD PTR $T1[ebp+4]
; File C:\IAGOS\server\v18\Source\Source\_Common\Obj.cpp

; 838  : 	fRadiusSrc *= 0.8f;	

  00046	f3 0f 59 1d 00
	00 00 00	 mulss	 xmm3, DWORD PTR __real@3f4ccccd
  0004e	5e		 pop	 esi
; File C:\IAGOS\server\v18\Source\Source\DX_SDK\d3dx9math.inl

; 383  :     return D3DXVECTOR3(x - v.x, y - v.y, z - v.z);

  0004f	f3 0f 5c 4d f0	 subss	 xmm1, DWORD PTR $T1[ebp]
  00054	f3 0f 10 40 08	 movss	 xmm0, DWORD PTR [eax+8]
; File C:\IAGOS\server\v18\Source\Source\_Common\Obj.cpp

; 846  : 	if( fDistSq < fRadius * fRadius )					// µÎÁˇ°ŁŔÇ °Ĺ¸®°ˇ ąüŔ§ş¸´Ů ŔŰŔ¸¸é Ăćµą

  00059	33 c0		 xor	 eax, eax
  0005b	f3 0f 58 5d 0c	 addss	 xmm3, DWORD PTR _fRange$[ebp]
; File C:\IAGOS\server\v18\Source\Source\DX_SDK\d3dx9math.inl

; 383  :     return D3DXVECTOR3(x - v.x, y - v.y, z - v.z);

  00060	f3 0f 5c 45 f8	 subss	 xmm0, DWORD PTR $T1[ebp+8]

; 1698 :     return pV->x * pV->x + pV->y * pV->y + pV->z * pV->z;

  00065	f3 0f 59 d2	 mulss	 xmm2, xmm2

; 302  :     z = fz;

  00069	f3 0f 59 c9	 mulss	 xmm1, xmm1
; File C:\IAGOS\server\v18\Source\Source\_Common\Obj.cpp

; 841  : 	fRadius += fRadiusSrc;

  0006d	f3 0f 58 1d 00
	00 00 00	 addss	 xmm3, DWORD PTR __real@3f4ccccd
; File C:\IAGOS\server\v18\Source\Source\DX_SDK\d3dx9math.inl

; 1698 :     return pV->x * pV->x + pV->y * pV->y + pV->z * pV->z;

  00075	f3 0f 59 c0	 mulss	 xmm0, xmm0
  00079	f3 0f 58 d1	 addss	 xmm2, xmm1
; File C:\IAGOS\server\v18\Source\Source\_Common\Obj.cpp

; 846  : 	if( fDistSq < fRadius * fRadius )					// µÎÁˇ°ŁŔÇ °Ĺ¸®°ˇ ąüŔ§ş¸´Ů ŔŰŔ¸¸é Ăćµą

  0007d	f3 0f 59 db	 mulss	 xmm3, xmm3
; File C:\IAGOS\server\v18\Source\Source\DX_SDK\d3dx9math.inl

; 1698 :     return pV->x * pV->x + pV->y * pV->y + pV->z * pV->z;

  00081	f3 0f 58 d0	 addss	 xmm2, xmm0
; File C:\IAGOS\server\v18\Source\Source\_Common\Obj.cpp

; 846  : 	if( fDistSq < fRadius * fRadius )					// µÎÁˇ°ŁŔÇ °Ĺ¸®°ˇ ąüŔ§ş¸´Ů ŔŰŔ¸¸é Ăćµą

  00085	0f 2f da	 comiss	 xmm3, xmm2
  00088	0f 97 c0	 seta	 al

; 850  : }

  0008b	8b e5		 mov	 esp, ebp
  0008d	5d		 pop	 ebp
  0008e	c2 08 00	 ret	 8
$LN3@IsRangeObj:

; 847  : 		return TRUE;
; 848  : 	
; 849  : 	return FALSE;

  00091	33 c0		 xor	 eax, eax
  00093	5e		 pop	 esi

; 850  : }

  00094	8b e5		 mov	 esp, ebp
  00096	5d		 pop	 ebp
  00097	c2 08 00	 ret	 8
?IsRangeObj@CObj@@QAEHABUD3DXVECTOR3@@M@Z ENDP		; CObj::IsRangeObj
_TEXT	ENDS
; Function compile flags: /Ogtp
; File C:\IAGOS\server\v18\Source\Source\_Common\Obj.cpp
; File C:\IAGOS\server\v18\Source\Source\_Common\Obj.h
; File C:\IAGOS\server\v18\Source\Source\_Common\Obj.cpp
; File C:\IAGOS\server\v18\Source\Source\_Common\Obj.h
; File C:\IAGOS\server\v18\Source\Source\_Common\Obj.cpp
; File C:\IAGOS\server\v18\Source\Source\_Common\Obj.h
; File C:\IAGOS\server\v18\Source\Source\_Common\Obj.cpp
; File C:\IAGOS\server\v18\Source\Source\_Common\Obj.h
; File C:\IAGOS\server\v18\Source\Source\_Common\Obj.cpp
; File C:\IAGOS\server\v18\Source\Source\_Common\Obj.h
; File C:\IAGOS\server\v18\Source\Source\DX_SDK\d3dx9math.inl
; File C:\IAGOS\server\v18\Source\Source\_Common\Obj.cpp
; File C:\IAGOS\server\v18\Source\Source\DX_SDK\d3dx9math.inl
; File C:\IAGOS\server\v18\Source\Source\_Common\Obj.cpp
;	COMDAT ?IsRangeObj@CObj@@QAEHPAV1@M@Z
_TEXT	SEGMENT
$T1 = -24						; size = 12
$T2 = -12						; size = 12
_pOther$ = 8						; size = 4
_fOther$ = 8						; size = 4
_fRange$ = 12						; size = 4
_fRadius$ = 12						; size = 4
tv284 = 12						; size = 4
?IsRangeObj@CObj@@QAEHPAV1@M@Z PROC			; CObj::IsRangeObj, COMDAT
; _this$ = ecx

; 803  : {

  00000	55		 push	 ebp
  00001	8b ec		 mov	 ebp, esp
  00003	83 ec 18	 sub	 esp, 24			; 00000018H
  00006	57		 push	 edi
  00007	8b f9		 mov	 edi, ecx

; 804  : 	if( m_pModel == NULL )	

  00009	83 bf 78 01 00
	00 00		 cmp	 DWORD PTR [edi+376], 0
  00010	0f 84 cc 00 00
	00		 je	 $LN4@IsRangeObj

; 805  : 		return FALSE;
; 806  : 
; 807  : 	if( fRange == 0.0f )

  00016	f3 0f 10 45 0c	 movss	 xmm0, DWORD PTR _fRange$[ebp]
  0001b	0f 2e 05 00 00
	00 00		 ucomiss xmm0, DWORD PTR __real@00000000
  00022	9f		 lahf
  00023	f6 c4 44	 test	 ah, 68			; 00000044H
  00026	7a 0d		 jp	 SHORT $LN3@IsRangeObj

; 808  : 		fRange = 1.0f;		

  00028	f3 0f 10 05 00
	00 00 00	 movss	 xmm0, DWORD PTR __real@3f800000
  00030	f3 0f 11 45 0c	 movss	 DWORD PTR _fRange$[ebp], xmm0
$LN3@IsRangeObj:

; 812  : 
; 813  : 	float fOther = pOther->GetRadius();

  00035	56		 push	 esi
  00036	8b 75 08	 mov	 esi, DWORD PTR _pOther$[ebp]
  00039	8b ce		 mov	 ecx, esi
  0003b	e8 00 00 00 00	 call	 ?GetRadius@CObj@@QAEMXZ	; CObj::GetRadius

; 814  : 	fOther *= 0.8f;								// »ď¸é Ćň±ŐŔ¸·Î¸¸ ÇĎ´Ď±î łŃ ÄżĽ­ Á¶±Ý ÁŮż´´Ů.

  00040	d8 0d 00 00 00
	00		 fmul	 DWORD PTR __real@3f4ccccd
  00046	8b cf		 mov	 ecx, edi
  00048	d9 5d 08	 fstp	 DWORD PTR _fOther$[ebp]
  0004b	e8 00 00 00 00	 call	 ?GetRadius@CObj@@QAEMXZ	; CObj::GetRadius

; 816  : 	fRadius += (fOther + fRange);

  00050	f3 0f 10 45 08	 movss	 xmm0, DWORD PTR _fOther$[ebp]
  00055	f3 0f 58 45 0c	 addss	 xmm0, DWORD PTR _fRange$[ebp]
; File C:\IAGOS\server\v18\Source\Source\_Common\Obj.h

; 215  : 	D3DXVECTOR3		GetPos()	{ return m_vPos; }

  0005a	8b 86 68 01 00
	00		 mov	 eax, DWORD PTR [esi+360]
; File C:\IAGOS\server\v18\Source\Source\_Common\Obj.cpp

; 811  : 	fRadius *= 0.8f;							// »ď¸é Ćň±ŐŔ¸·Î¸¸ ÇĎ´Ď±î łŃ ÄżĽ­ Á¶±Ý ÁŮż´´Ů.

  00060	d8 0d 00 00 00
	00		 fmul	 DWORD PTR __real@3f4ccccd
; File C:\IAGOS\server\v18\Source\Source\_Common\Obj.h

; 215  : 	D3DXVECTOR3		GetPos()	{ return m_vPos; }

  00066	89 45 f0	 mov	 DWORD PTR $T1[ebp+8], eax
  00069	8b 87 68 01 00
	00		 mov	 eax, DWORD PTR [edi+360]
; File C:\IAGOS\server\v18\Source\Source\_Common\Obj.cpp

; 816  : 	fRadius += (fOther + fRange);

  0006f	f3 0f 11 45 0c	 movss	 DWORD PTR tv284[ebp], xmm0
; File C:\IAGOS\server\v18\Source\Source\_Common\Obj.h

; 215  : 	D3DXVECTOR3		GetPos()	{ return m_vPos; }

  00074	f3 0f 7e 86 60
	01 00 00	 movq	 xmm0, QWORD PTR [esi+352]
; File C:\IAGOS\server\v18\Source\Source\_Common\Obj.cpp

; 816  : 	fRadius += (fOther + fRange);

  0007c	d8 45 0c	 fadd	 DWORD PTR tv284[ebp]
; File C:\IAGOS\server\v18\Source\Source\_Common\Obj.h

; 215  : 	D3DXVECTOR3		GetPos()	{ return m_vPos; }

  0007f	89 45 fc	 mov	 DWORD PTR $T2[ebp+8], eax
; File C:\IAGOS\server\v18\Source\Source\_Common\Obj.cpp

; 821  : 	if( fDistSq < (fRadius * fRadius) )					// µÎÁˇ°ŁŔÇ °Ĺ¸®°ˇ ąüŔ§ş¸´Ů ŔŰŔ¸¸é Ăćµą

  00082	33 c0		 xor	 eax, eax

; 822  : 		return TRUE;

  00084	5e		 pop	 esi
; File C:\IAGOS\server\v18\Source\Source\_Common\Obj.h

; 215  : 	D3DXVECTOR3		GetPos()	{ return m_vPos; }

  00085	66 0f d6 45 e8	 movq	 QWORD PTR $T1[ebp], xmm0
  0008a	f3 0f 7e 87 60
	01 00 00	 movq	 xmm0, QWORD PTR [edi+352]
  00092	66 0f d6 45 f4	 movq	 QWORD PTR $T2[ebp], xmm0
; File C:\IAGOS\server\v18\Source\Source\DX_SDK\d3dx9math.inl

; 383  :     return D3DXVECTOR3(x - v.x, y - v.y, z - v.z);

  00097	f3 0f 10 4d f4	 movss	 xmm1, DWORD PTR $T2[ebp]
  0009c	f3 0f 10 55 f8	 movss	 xmm2, DWORD PTR $T2[ebp+4]
  000a1	f3 0f 5c 55 ec	 subss	 xmm2, DWORD PTR $T1[ebp+4]
  000a6	f3 0f 5c 4d e8	 subss	 xmm1, DWORD PTR $T1[ebp]
  000ab	f3 0f 10 45 fc	 movss	 xmm0, DWORD PTR $T2[ebp+8]
  000b0	f3 0f 5c 45 f0	 subss	 xmm0, DWORD PTR $T1[ebp+8]
; File C:\IAGOS\server\v18\Source\Source\_Common\Obj.cpp

; 816  : 	fRadius += (fOther + fRange);

  000b5	d9 5d 0c	 fstp	 DWORD PTR _fRadius$[ebp]
; File C:\IAGOS\server\v18\Source\Source\DX_SDK\d3dx9math.inl

; 302  :     z = fz;

  000b8	f3 0f 59 d2	 mulss	 xmm2, xmm2
  000bc	5f		 pop	 edi

; 1698 :     return pV->x * pV->x + pV->y * pV->y + pV->z * pV->z;

  000bd	f3 0f 59 c9	 mulss	 xmm1, xmm1
  000c1	f3 0f 59 c0	 mulss	 xmm0, xmm0
  000c5	f3 0f 58 d1	 addss	 xmm2, xmm1
  000c9	f3 0f 58 d0	 addss	 xmm2, xmm0
; File C:\IAGOS\server\v18\Source\Source\_Common\Obj.cpp

; 821  : 	if( fDistSq < (fRadius * fRadius) )					// µÎÁˇ°ŁŔÇ °Ĺ¸®°ˇ ąüŔ§ş¸´Ů ŔŰŔ¸¸é Ăćµą

  000cd	f3 0f 10 45 0c	 movss	 xmm0, DWORD PTR _fRadius$[ebp]
  000d2	f3 0f 59 c0	 mulss	 xmm0, xmm0
  000d6	0f 2f c2	 comiss	 xmm0, xmm2
  000d9	0f 97 c0	 seta	 al

; 825  : }

  000dc	8b e5		 mov	 esp, ebp
  000de	5d		 pop	 ebp
  000df	c2 08 00	 ret	 8
$LN4@IsRangeObj:

; 823  : 	
; 824  : 	return FALSE;

  000e2	33 c0		 xor	 eax, eax
  000e4	5f		 pop	 edi

; 825  : }

  000e5	8b e5		 mov	 esp, ebp
  000e7	5d		 pop	 ebp
  000e8	c2 08 00	 ret	 8
?IsRangeObj@CObj@@QAEHPAV1@M@Z ENDP			; CObj::IsRangeObj
_TEXT	ENDS
; Function compile flags: /Ogtp
; File C:\IAGOS\server\v18\Source\Source\_Common\Obj.cpp
; File C:\IAGOS\server\v18\Source\Source\DX_SDK\d3dx9math.inl
; File C:\IAGOS\server\v18\Source\Source\_Common\Obj.cpp
; File C:\IAGOS\server\v18\Source\Source\DX_SDK\d3dx9math.inl
; File C:\IAGOS\server\v18\Source\Source\_Common\Obj.cpp
; File C:\IAGOS\server\v18\Source\Source\DX_SDK\d3dx9math.inl
; File C:\IAGOS\server\v18\Source\Source\_Common\Obj.cpp
;	COMDAT ?UpdateMatrix@CObj@@QAEXXZ
_TEXT	SEGMENT
?UpdateMatrix@CObj@@QAEXXZ PROC				; CObj::UpdateMatrix, COMDAT
; _this$ = ecx

; 143  : {

  00000	53		 push	 ebx
  00001	56		 push	 esi
  00002	57		 push	 edi
  00003	8b f9		 mov	 edi, ecx

; 144  :     // Recompute m_mat, m_vecBoundsWorld, and m_planeBoundsWorld 
; 145  :     // when the thing's position, orientation, or bounding box has changed
; 146  : 
; 147  : 	D3DXMatrixIdentity( &m_matWorld );

  00005	8d b7 e4 00 00
	00		 lea	 esi, DWORD PTR [edi+228]
; File C:\IAGOS\server\v18\Source\Source\DX_SDK\d3dx9math.inl

; 1961 :     pOut->m[0][1] = pOut->m[0][2] = pOut->m[0][3] =

  0000b	c7 46 38 00 00
	00 00		 mov	 DWORD PTR [esi+56], 0
  00012	c7 46 34 00 00
	00 00		 mov	 DWORD PTR [esi+52], 0
; File C:\IAGOS\server\v18\Source\Source\_Common\Obj.cpp

; 148  : 	D3DXMatrixMultiply( &m_matWorld, &m_matWorld, &m_matScale );

  00019	8d 5f 64	 lea	 ebx, DWORD PTR [edi+100]
; File C:\IAGOS\server\v18\Source\Source\DX_SDK\d3dx9math.inl

; 1961 :     pOut->m[0][1] = pOut->m[0][2] = pOut->m[0][3] =

  0001c	c7 46 30 00 00
	00 00		 mov	 DWORD PTR [esi+48], 0
; File C:\IAGOS\server\v18\Source\Source\_Common\Obj.cpp

; 148  : 	D3DXMatrixMultiply( &m_matWorld, &m_matWorld, &m_matScale );

  00023	53		 push	 ebx
  00024	56		 push	 esi
  00025	56		 push	 esi
; File C:\IAGOS\server\v18\Source\Source\DX_SDK\d3dx9math.inl

; 1961 :     pOut->m[0][1] = pOut->m[0][2] = pOut->m[0][3] =

  00026	c7 46 2c 00 00
	00 00		 mov	 DWORD PTR [esi+44], 0
  0002d	c7 46 24 00 00
	00 00		 mov	 DWORD PTR [esi+36], 0
  00034	c7 46 20 00 00
	00 00		 mov	 DWORD PTR [esi+32], 0
  0003b	c7 46 1c 00 00
	00 00		 mov	 DWORD PTR [esi+28], 0
  00042	c7 46 18 00 00
	00 00		 mov	 DWORD PTR [esi+24], 0
  00049	c7 46 10 00 00
	00 00		 mov	 DWORD PTR [esi+16], 0
  00050	c7 46 0c 00 00
	00 00		 mov	 DWORD PTR [esi+12], 0
  00057	c7 46 08 00 00
	00 00		 mov	 DWORD PTR [esi+8], 0
  0005e	c7 46 04 00 00
	00 00		 mov	 DWORD PTR [esi+4], 0

; 1962 :     pOut->m[1][0] = pOut->m[1][2] = pOut->m[1][3] =
; 1963 :     pOut->m[2][0] = pOut->m[2][1] = pOut->m[2][3] =
; 1964 :     pOut->m[3][0] = pOut->m[3][1] = pOut->m[3][2] = 0.0f;
; 1965 : 
; 1966 :     pOut->m[0][0] = pOut->m[1][1] = pOut->m[2][2] = pOut->m[3][3] = 1.0f;

  00065	c7 46 3c 00 00
	80 3f		 mov	 DWORD PTR [esi+60], 1065353216 ; 3f800000H
  0006c	c7 46 28 00 00
	80 3f		 mov	 DWORD PTR [esi+40], 1065353216 ; 3f800000H
  00073	c7 46 14 00 00
	80 3f		 mov	 DWORD PTR [esi+20], 1065353216 ; 3f800000H
  0007a	c7 06 00 00 80
	3f		 mov	 DWORD PTR [esi], 1065353216 ; 3f800000H
; File C:\IAGOS\server\v18\Source\Source\_Common\Obj.cpp

; 148  : 	D3DXMatrixMultiply( &m_matWorld, &m_matWorld, &m_matScale );

  00080	e8 00 00 00 00	 call	 _D3DXMatrixMultiply@12

; 149  : 	D3DXMatrixMultiply( &m_matWorld, &m_matWorld, &m_matRotation );

  00085	8d 87 a4 00 00
	00		 lea	 eax, DWORD PTR [edi+164]
  0008b	50		 push	 eax
  0008c	56		 push	 esi
  0008d	56		 push	 esi
  0008e	e8 00 00 00 00	 call	 _D3DXMatrixMultiply@12

; 150  : 	D3DXMatrixMultiply( &m_matWorld, &m_matWorld, &m_matTrans );

  00093	8d 47 24	 lea	 eax, DWORD PTR [edi+36]
  00096	50		 push	 eax
  00097	56		 push	 esi
  00098	56		 push	 esi
  00099	e8 00 00 00 00	 call	 _D3DXMatrixMultiply@12

; 151  : 
; 152  : 	if( m_pModel )

  0009e	8b 8f 78 01 00
	00		 mov	 ecx, DWORD PTR [edi+376]
  000a4	85 c9		 test	 ecx, ecx
  000a6	74 1f		 je	 SHORT $LN12@UpdateMatr

; 153  : 	{
; 154  : 		// OBBŔÇ ÁßÁˇ°ú ĂŕŔ» Ŕç°č»ęÇŃ´Ů.
; 155  : 		m_OBB.UpdateMartix( m_pModel->m_vMin, m_pModel->m_vMax, m_matScale, m_matRotation, m_matWorld );

  000a8	56		 push	 esi
  000a9	8d 87 a4 00 00
	00		 lea	 eax, DWORD PTR [edi+164]
  000af	50		 push	 eax
  000b0	8d 81 84 00 00
	00		 lea	 eax, DWORD PTR [ecx+132]
  000b6	53		 push	 ebx
  000b7	50		 push	 eax
  000b8	8d 41 78	 lea	 eax, DWORD PTR [ecx+120]
  000bb	50		 push	 eax
  000bc	8d 8f 24 01 00
	00		 lea	 ecx, DWORD PTR [edi+292]
  000c2	e8 00 00 00 00	 call	 ?UpdateMartix@BBOX@@QAEXABUD3DXVECTOR3@@0ABUD3DXMATRIX@@11@Z ; BBOX::UpdateMartix
$LN12@UpdateMatr:

; 156  : 	}
; 157  : 
; 158  : #ifdef __CLIENT
; 159  : 	// Transform bounding box coords from local space to world space
; 160  : 	for( int i = 0; i < 8; i++ )
; 161  : 		D3DXVec3TransformCoord( &m_vecBoundsWorld[i], &m_vecBoundsLocal[i], &m_matWorld );
; 162  : 
; 163  : 	// Determine planes of the bounding box
; 164  : 	D3DXPlaneFromPoints( &m_planeBoundsWorld[0], &m_vecBoundsWorld[0], 
; 165  : 		&m_vecBoundsWorld[1], &m_vecBoundsWorld[2] ); // Near
; 166  : 	D3DXPlaneFromPoints( &m_planeBoundsWorld[1], &m_vecBoundsWorld[6], 
; 167  : 		&m_vecBoundsWorld[7], &m_vecBoundsWorld[5] ); // Far
; 168  : 	D3DXPlaneFromPoints( &m_planeBoundsWorld[2], &m_vecBoundsWorld[2], 
; 169  : 		&m_vecBoundsWorld[6], &m_vecBoundsWorld[4] ); // Left
; 170  : 	D3DXPlaneFromPoints( &m_planeBoundsWorld[3], &m_vecBoundsWorld[7], 
; 171  : 		&m_vecBoundsWorld[3], &m_vecBoundsWorld[5] ); // Right
; 172  : 	D3DXPlaneFromPoints( &m_planeBoundsWorld[4], &m_vecBoundsWorld[2], 
; 173  : 		&m_vecBoundsWorld[3], &m_vecBoundsWorld[6] ); // Top
; 174  : 	D3DXPlaneFromPoints( &m_planeBoundsWorld[5], &m_vecBoundsWorld[1], 
; 175  : 		&m_vecBoundsWorld[0], &m_vecBoundsWorld[4] ); // Bottom
; 176  : #endif // __CLIENT
; 177  : 
; 178  : 	SetUpdateMatrix( FALSE );
; 179  : }

  000c7	83 67 04 f7	 and	 DWORD PTR [edi+4], -9	; fffffff7H
  000cb	5f		 pop	 edi
  000cc	5e		 pop	 esi
  000cd	5b		 pop	 ebx
  000ce	c3		 ret	 0
?UpdateMatrix@CObj@@QAEXXZ ENDP				; CObj::UpdateMatrix
_TEXT	ENDS
; Function compile flags: /Ogtp
; File C:\IAGOS\server\v18\Source\Source\_Common\Obj.cpp
;	COMDAT ?UpdateLocalMatrix@CObj@@QAEXXZ
_TEXT	SEGMENT
?UpdateLocalMatrix@CObj@@QAEXXZ PROC			; CObj::UpdateLocalMatrix, COMDAT
; _this$ = ecx

; 130  : {

  00000	56		 push	 esi
  00001	8b f1		 mov	 esi, ecx

; 131  : 	D3DXMatrixScaling( &m_matScale, m_vScale.x, m_vScale.y, m_vScale.z );

  00003	83 ec 0c	 sub	 esp, 12			; 0000000cH
  00006	f3 0f 10 46 14	 movss	 xmm0, DWORD PTR [esi+20]
  0000b	8d 46 64	 lea	 eax, DWORD PTR [esi+100]
  0000e	f3 0f 11 44 24
	08		 movss	 DWORD PTR [esp+8], xmm0
  00014	f3 0f 10 46 10	 movss	 xmm0, DWORD PTR [esi+16]
  00019	f3 0f 11 44 24
	04		 movss	 DWORD PTR [esp+4], xmm0
  0001f	f3 0f 10 46 0c	 movss	 xmm0, DWORD PTR [esi+12]
  00024	f3 0f 11 04 24	 movss	 DWORD PTR [esp], xmm0
  00029	50		 push	 eax
  0002a	e8 00 00 00 00	 call	 _D3DXMatrixScaling@16

; 132  : #if __VER >= 11 // __FIX_ROTATE
; 133  : 	D3DXMatrixRotationYawPitchRoll( &m_matRotation, D3DXToRadian( -m_fAngle ), D3DXToRadian( -m_fAngX ), D3DXToRadian( m_fAngZ ) );

  0002f	f3 0f 10 15 00
	00 00 00	 movss	 xmm2, DWORD PTR __real@3c8efa35
  00037	8d 86 a4 00 00
	00		 lea	 eax, DWORD PTR [esi+164]
  0003d	f3 0f 10 46 20	 movss	 xmm0, DWORD PTR [esi+32]
  00042	83 ec 0c	 sub	 esp, 12			; 0000000cH
  00045	f3 0f 59 c2	 mulss	 xmm0, xmm2
  00049	f3 0f 11 44 24
	08		 movss	 DWORD PTR [esp+8], xmm0
  0004f	f3 0f 10 46 1c	 movss	 xmm0, DWORD PTR [esi+28]
  00054	0f 57 05 00 00
	00 00		 xorps	 xmm0, DWORD PTR __xmm@80000000800000008000000080000000
  0005b	f3 0f 59 c2	 mulss	 xmm0, xmm2
  0005f	f3 0f 11 44 24
	04		 movss	 DWORD PTR [esp+4], xmm0
  00065	f3 0f 10 46 18	 movss	 xmm0, DWORD PTR [esi+24]
  0006a	0f 57 05 00 00
	00 00		 xorps	 xmm0, DWORD PTR __xmm@80000000800000008000000080000000
  00071	f3 0f 59 c2	 mulss	 xmm0, xmm2
  00075	f3 0f 11 04 24	 movss	 DWORD PTR [esp], xmm0
  0007a	50		 push	 eax
  0007b	e8 00 00 00 00	 call	 _D3DXMatrixRotationYawPitchRoll@16

; 134  : #else
; 135  : 	D3DXMatrixRotationYawPitchRoll( &m_matRotation, D3DXToRadian( -m_fAngle ), D3DXToRadian( -m_fAngX ), D3DXToRadian( -m_fAngZ ) );
; 136  : #endif
; 137  : 	
; 138  : 	D3DXMatrixTranslation( &m_matTrans, m_vPos.x, m_vPos.y, m_vPos.z );

  00080	f3 0f 10 86 68
	01 00 00	 movss	 xmm0, DWORD PTR [esi+360]
  00088	8d 46 24	 lea	 eax, DWORD PTR [esi+36]
  0008b	83 ec 0c	 sub	 esp, 12			; 0000000cH
  0008e	f3 0f 11 44 24
	08		 movss	 DWORD PTR [esp+8], xmm0
  00094	f3 0f 10 86 64
	01 00 00	 movss	 xmm0, DWORD PTR [esi+356]
  0009c	f3 0f 11 44 24
	04		 movss	 DWORD PTR [esp+4], xmm0
  000a2	f3 0f 10 86 60
	01 00 00	 movss	 xmm0, DWORD PTR [esi+352]
  000aa	f3 0f 11 04 24	 movss	 DWORD PTR [esp], xmm0
  000af	50		 push	 eax
  000b0	e8 00 00 00 00	 call	 _D3DXMatrixTranslation@16

; 139  : 	UpdateMatrix();

  000b5	8b ce		 mov	 ecx, esi
  000b7	5e		 pop	 esi
  000b8	e9 00 00 00 00	 jmp	 ?UpdateMatrix@CObj@@QAEXXZ ; CObj::UpdateMatrix
?UpdateLocalMatrix@CObj@@QAEXXZ ENDP			; CObj::UpdateLocalMatrix
_TEXT	ENDS
; Function compile flags: /Ogtp
; File C:\IAGOS\server\v18\Source\Source\_Common\Obj.cpp
; File C:\IAGOS\server\v18\Source\Source\_Common\Obj.h
; File C:\IAGOS\server\v18\Source\Source\_Common\Obj.cpp
;	COMDAT ?SetAngleX@CObj@@QAEXM@Z
_TEXT	SEGMENT
_fAngX$ = 8						; size = 4
?SetAngleX@CObj@@QAEXM@Z PROC				; CObj::SetAngleX, COMDAT
; _this$ = ecx

; 694  : { 

  00000	55		 push	 ebp
  00001	8b ec		 mov	 ebp, esp

; 695  : 	m_fAngX	= fAngX;
; 696  : 	
; 697  : 	FLOAT fAngZ = 0.0f;
; 698  : 	fAngZ = -m_fAngZ;

  00003	f3 0f 10 15 00
	00 00 00	 movss	 xmm2, DWORD PTR __xmm@80000000800000008000000080000000

; 699  : 		
; 700  : #if !defined(__CLIENT)
; 701  : 	D3DXMatrixRotationYawPitchRoll( &m_matRotation, D3DXToRadian( -m_fAngle ), D3DXToRadian( -m_fAngX ), D3DXToRadian( fAngZ ) );

  0000b	f3 0f 10 0d 00
	00 00 00	 movss	 xmm1, DWORD PTR __real@3c8efa35
  00013	f3 0f 10 5d 08	 movss	 xmm3, DWORD PTR _fAngX$[ebp]
  00018	56		 push	 esi
  00019	8b f1		 mov	 esi, ecx
  0001b	83 ec 0c	 sub	 esp, 12			; 0000000cH
  0001e	f3 0f 10 46 20	 movss	 xmm0, DWORD PTR [esi+32]
  00023	8d 86 a4 00 00
	00		 lea	 eax, DWORD PTR [esi+164]
  00029	0f 57 c2	 xorps	 xmm0, xmm2
  0002c	f3 0f 11 5e 1c	 movss	 DWORD PTR [esi+28], xmm3
  00031	f3 0f 59 c1	 mulss	 xmm0, xmm1
  00035	0f 57 da	 xorps	 xmm3, xmm2
  00038	f3 0f 59 d9	 mulss	 xmm3, xmm1
  0003c	f3 0f 11 44 24
	08		 movss	 DWORD PTR [esp+8], xmm0
  00042	f3 0f 10 46 18	 movss	 xmm0, DWORD PTR [esi+24]
  00047	0f 57 c2	 xorps	 xmm0, xmm2
  0004a	f3 0f 11 5c 24
	04		 movss	 DWORD PTR [esp+4], xmm3
  00050	f3 0f 59 c1	 mulss	 xmm0, xmm1
  00054	f3 0f 11 04 24	 movss	 DWORD PTR [esp], xmm0
  00059	50		 push	 eax
  0005a	e8 00 00 00 00	 call	 _D3DXMatrixRotationYawPitchRoll@16
; File C:\IAGOS\server\v18\Source\Source\_Common\Obj.h

; 273  : 		m_dwFlags |= dwValue;

  0005f	83 4e 04 08	 or	 DWORD PTR [esi+4], 8
  00063	5e		 pop	 esi
; File C:\IAGOS\server\v18\Source\Source\_Common\Obj.cpp

; 710  : }

  00064	5d		 pop	 ebp
  00065	c2 04 00	 ret	 4
?SetAngleX@CObj@@QAEXM@Z ENDP				; CObj::SetAngleX
_TEXT	ENDS
; Function compile flags: /Ogtp
; File C:\IAGOS\server\v18\Source\Source\_Common\Obj.cpp
;	COMDAT ?AddAngleX@CObj@@QAEXM@Z
_TEXT	SEGMENT
_fAngle$ = 8						; size = 4
?AddAngleX@CObj@@QAEXM@Z PROC				; CObj::AddAngleX, COMDAT
; _this$ = ecx

; 688  : {

  00000	55		 push	 ebp
  00001	8b ec		 mov	 ebp, esp

; 689  : 	m_fAngX += fAngle;

  00003	f3 0f 10 45 08	 movss	 xmm0, DWORD PTR _fAngle$[ebp]
  00008	f3 0f 58 41 1c	 addss	 xmm0, DWORD PTR [ecx+28]

; 690  : 	SetAngleX( m_fAngX ); 

  0000d	51		 push	 ecx
  0000e	f3 0f 11 41 1c	 movss	 DWORD PTR [ecx+28], xmm0
  00013	f3 0f 11 04 24	 movss	 DWORD PTR [esp], xmm0
  00018	e8 00 00 00 00	 call	 ?SetAngleX@CObj@@QAEXM@Z ; CObj::SetAngleX

; 691  : }

  0001d	5d		 pop	 ebp
  0001e	c2 04 00	 ret	 4
?AddAngleX@CObj@@QAEXM@Z ENDP				; CObj::AddAngleX
_TEXT	ENDS
; Function compile flags: /Ogtp
; File C:\IAGOS\server\v18\Source\Source\_Common\Obj.h
;	COMDAT ?SetIndex@CObj@@UAEHPAUIDirect3DDevice9@@KH@Z
_TEXT	SEGMENT
_pd3dDevice$ = 8					; size = 4
_dwIndex$ = 12						; size = 4
_bInitProp$ = 16					; size = 4
?SetIndex@CObj@@UAEHPAUIDirect3DDevice9@@KH@Z PROC	; CObj::SetIndex, COMDAT
; _this$ = ecx

; 172  : 	virtual	BOOL	SetIndex( LPDIRECT3DDEVICE9 pd3dDevice, DWORD dwIndex, BOOL bInitProp = FALSE ) { return SetTypeIndex( pd3dDevice, m_dwType, dwIndex, bInitProp ); }

  00000	55		 push	 ebp
  00001	8b ec		 mov	 ebp, esp
  00003	ff 75 10	 push	 DWORD PTR _bInitProp$[ebp]
  00006	ff 75 0c	 push	 DWORD PTR _dwIndex$[ebp]
  00009	ff b1 70 01 00
	00		 push	 DWORD PTR [ecx+368]
  0000f	ff 75 08	 push	 DWORD PTR _pd3dDevice$[ebp]
  00012	e8 00 00 00 00	 call	 ?SetTypeIndex@CObj@@QAEHPAUIDirect3DDevice9@@KKH@Z ; CObj::SetTypeIndex
  00017	5d		 pop	 ebp
  00018	c2 0c 00	 ret	 12			; 0000000cH
?SetIndex@CObj@@UAEHPAUIDirect3DDevice9@@KH@Z ENDP	; CObj::SetIndex
_TEXT	ENDS
; Function compile flags: /Ogtp
; File C:\IAGOS\server\v18\Source\Source\_Common\Obj.cpp
;	COMDAT ?RenderName@CObj@@UAEXPAUIDirect3DDevice9@@PAVCD3DFont@@K@Z
_TEXT	SEGMENT
_pd3dDevice$ = 8					; size = 4
_pFont$ = 12						; size = 4
_dwColor$ = 16						; size = 4
?RenderName@CObj@@UAEXPAUIDirect3DDevice9@@PAVCD3DFont@@K@Z PROC ; CObj::RenderName, COMDAT
; _this$ = ecx

; 967  : 	return;
; 968  : }

  00000	c2 0c 00	 ret	 12			; 0000000cH
?RenderName@CObj@@UAEXPAUIDirect3DDevice9@@PAVCD3DFont@@K@Z ENDP ; CObj::RenderName
_TEXT	ENDS
; Function compile flags: /Ogtp
; File C:\IAGOS\server\v18\Source\Source\_Common\Obj.cpp
;	COMDAT ?Render@CObj@@UAEXPAUIDirect3DDevice9@@@Z
_TEXT	SEGMENT
_pd3dDevice$ = 8					; size = 4
?Render@CObj@@UAEXPAUIDirect3DDevice9@@@Z PROC		; CObj::Render, COMDAT
; _this$ = ecx

; 308  : #ifndef __WORLDSERVER
; 309  : 	if( !IsVisible() || ( IsCull() && GetType() != 1 ))
; 310  : 		return;
; 311  : 
; 312  : 	if( IsUpdateMatrix() )
; 313  : 		UpdateMatrix();
; 314  : 
; 315  : 	// ModelŔĚ ľřŔ¸¸é Ăâ·ÂÇĎÁö ľĘŔ˝ 
; 316  : 	LPMODELELEM lpModelElem = prj.m_modelMng.GetModelElem( m_dwType, m_dwIndex );
; 317  : 	if( lpModelElem == NULL )
; 318  : 		return;
; 319  : 	if( lpModelElem->m_dwModelType == MODELTYPE_SFX )
; 320  : 	{
; 321  : 		((CSfxModel*)m_pModel)->m_vPos = GetPos();
; 322  : 		((CSfxModel*)m_pModel)->m_vPos.y += 0.2f;
; 323  : 		((CSfxModel*)m_pModel)->m_vRotate.y = GetAngle();
; 324  : 		((CSfxModel*)m_pModel)->m_vScale = GetScale();
; 325  : 		((CSfxModel*)m_pModel)->m_matScale = m_matScale;
; 326  : 		((CSfxModel*)m_pModel)->Render( pd3dDevice, NULL );
; 327  : 		return;
; 328  : 	}
; 329  : 
; 330  : 	CModel* pModel = m_pModel;
; 331  : 	DWORD dwModelType = pModel->GetModelType();
; 332  : 	
; 333  : 	pd3dDevice->SetTransform( D3DTS_WORLD, &m_matWorld );
; 334  : 	pd3dDevice->SetRenderState( D3DRS_ALPHABLENDENABLE, FALSE );
; 335  : 	pd3dDevice->SetRenderState( D3DRS_ALPHATESTENABLE, FALSE );
; 336  : 	pd3dDevice->SetSamplerState ( 0, D3DSAMP_MINFILTER, D3DTEXF_LINEAR );
; 337  : 	pd3dDevice->SetSamplerState ( 0, D3DSAMP_MAGFILTER, D3DTEXF_LINEAR );
; 338  : 	pd3dDevice->SetRenderState(D3DRS_SRCBLEND,D3DBLEND_SRCALPHA);
; 339  : 	pd3dDevice->SetRenderState(D3DRS_DESTBLEND,D3DBLEND_INVSRCALPHA);
; 340  : 	int wBlendFactor = m_wBlendFactor;
; 341  : 	if( m_pModel->m_nNoEffect )
; 342  : 		wBlendFactor = 255;
; 343  : 
; 344  : 	m_pModel->SetBlendFactor( wBlendFactor );
; 345  : 	
; 346  : 	if( pModel->m_nNoEffect == 0 )
; 347  : 	{
; 348  : 		if( m_pWorld->m_bIsIndoor == 1 )
; 349  : 			pModel->SetGroup( 0 );
; 350  : 		else
; 351  : 		{
; 352  : 			int fDist = (int)( 50.0f );
; 353  : 			switch( g_Option.m_nObjectDetail )
; 354  : 			{
; 355  : 			case 0 :	fDist = (int)( 50.0f );	break;
; 356  : 			case 1 :	fDist = (int)( 30.0f );	break;
; 357  : 			case 2 :	fDist = (int)( 15.0f );	break;
; 358  : 			}
; 359  : 			int nLevel = (int)( m_fDistCamera / fDist );
; 360  : 			if( nLevel >= 2 )	nLevel = 2;
; 361  : 			if( nLevel < 0 )	
; 362  : 			{
; 363  : 				Error( "CObj::Render : %d, lod lv=%d %f", m_dwIndex, nLevel, m_fDistCamera );
; 364  : 				nLevel = 0;
; 365  : 			}
; 366  : 			
; 367  : 			pModel->SetGroup( nLevel );
; 368  : 		}
; 369  : 	} 
; 370  : 	else
; 371  : 	{	
; 372  : 		pModel->SetGroup( 2 );		// ±×¸˛ŔÚ ÂďŔ»¶© °ˇŔĺ ł·Ŕş ´Ü°č·Î Âď´Â´Ů.
; 373  : 	}
; 374  : 
; 375  : 	if( pModel->GetType() == MODELTYPE_MESH || pModel->GetType() == MODELTYPE_ANIMATED_MESH )
; 376  : 	{
; 377  : 		if( ((CModelObject*)pModel)->m_pModelElem->m_nTextureEx > 0 )		// Č®ŔĺĹŘ˝şĂÄ ľ˛´ÂłŃŔÎ°ˇ?
; 378  : 			((CModelObject*)pModel)->SetTextureEx( ((CModelObject*)pModel)->m_pModelElem->m_nTextureEx );
; 379  : 		else
; 380  : 			((CModelObject*)pModel)->SetTextureEx( 0 );
; 381  : 	}
; 382  : 	
; 383  : 	pModel->Render( pd3dDevice, &m_matWorld ); 
; 384  : #endif
; 385  : }

  00000	c2 04 00	 ret	 4
?Render@CObj@@UAEXPAUIDirect3DDevice9@@@Z ENDP		; CObj::Render
_TEXT	ENDS
; Function compile flags: /Ogtp
; File C:\IAGOS\server\v18\Source\Source\_Common\Obj.cpp
;	COMDAT ?Read@CObj@@UAEHPAVCFileIO@@@Z
_TEXT	SEGMENT
_dwAIIntreface$ = -28					; size = 4
_dwAI2$ = -24						; size = 4
_dwMotion$ = -20					; size = 4
_vAxis$ = -16						; size = 12
__$ArrayPad$ = -4					; size = 4
_pFile$ = 8						; size = 4
?Read@CObj@@UAEHPAVCFileIO@@@Z PROC			; CObj::Read, COMDAT
; _this$ = ecx

; 475  : {

  00000	55		 push	 ebp
  00001	8b ec		 mov	 ebp, esp
  00003	83 ec 1c	 sub	 esp, 28			; 0000001cH
  00006	a1 00 00 00 00	 mov	 eax, DWORD PTR ___security_cookie
  0000b	33 c5		 xor	 eax, ebp
  0000d	89 45 fc	 mov	 DWORD PTR __$ArrayPad$[ebp], eax
  00010	53		 push	 ebx
  00011	56		 push	 esi
  00012	57		 push	 edi
  00013	8b 7d 08	 mov	 edi, DWORD PTR _pFile$[ebp]
  00016	8b d9		 mov	 ebx, ecx

; 476  : 	D3DXVECTOR3		vAxis;  // »çżëÇĎÁö ľĘ´Â´Ů.
; 477  : 	DWORD			dwMotion;			
; 478  : 	DWORD			dwAIIntreface;
; 479  : 	DWORD			dwAI2;
; 480  : 
; 481  : 	pFile->Read( &m_fAngle,      sizeof( m_fAngle ) );

  00018	6a 01		 push	 1
  0001a	6a 04		 push	 4
  0001c	8b cf		 mov	 ecx, edi
  0001e	8b 17		 mov	 edx, DWORD PTR [edi]
  00020	8d 43 18	 lea	 eax, DWORD PTR [ebx+24]
  00023	50		 push	 eax
  00024	ff 52 2c	 call	 DWORD PTR [edx+44]

; 482  : 	pFile->Read( &vAxis,         sizeof( vAxis ) );

  00027	8b 07		 mov	 eax, DWORD PTR [edi]
  00029	8d 4d f0	 lea	 ecx, DWORD PTR _vAxis$[ebp]
  0002c	6a 01		 push	 1
  0002e	6a 0c		 push	 12			; 0000000cH
  00030	51		 push	 ecx
  00031	8b cf		 mov	 ecx, edi
  00033	ff 50 2c	 call	 DWORD PTR [eax+44]

; 483  : 	pFile->Read( &m_vPos,        sizeof( m_vPos ) );

  00036	8b 07		 mov	 eax, DWORD PTR [edi]
  00038	8d 8b 60 01 00
	00		 lea	 ecx, DWORD PTR [ebx+352]
  0003e	6a 01		 push	 1
  00040	6a 0c		 push	 12			; 0000000cH
  00042	51		 push	 ecx
  00043	8b cf		 mov	 ecx, edi
  00045	ff 50 2c	 call	 DWORD PTR [eax+44]

; 484  : 	pFile->Read( &m_vScale,      sizeof( m_vScale ) );

  00048	8b 17		 mov	 edx, DWORD PTR [edi]
  0004a	8d 43 0c	 lea	 eax, DWORD PTR [ebx+12]
  0004d	6a 01		 push	 1
  0004f	6a 0c		 push	 12			; 0000000cH
  00051	50		 push	 eax
  00052	8b cf		 mov	 ecx, edi
  00054	ff 52 2c	 call	 DWORD PTR [edx+44]

; 485  : 	pFile->Read( &m_dwType,      sizeof( m_dwType ) ); 

  00057	8b 07		 mov	 eax, DWORD PTR [edi]
  00059	8d b3 70 01 00
	00		 lea	 esi, DWORD PTR [ebx+368]
  0005f	6a 01		 push	 1
  00061	6a 04		 push	 4
  00063	56		 push	 esi
  00064	8b cf		 mov	 ecx, edi
  00066	ff 50 2c	 call	 DWORD PTR [eax+44]

; 486  : 
; 487  : 	//gmpbigsun: m_dwTypeżˇ Ăß°ˇŔűŔ¸·Î Invisible collision ĽÓĽşŔĚ Ăß°ˇµĆ´Ů ( since 2009_08_13 ), ±âÁ¸µĄŔĚĹÍżÍ ČŁČŻ 
; 488  : 
; 489  : #ifdef __BS_ADDOBJATTR_INVISIBLE
; 490  : 	if( m_dwType & FOA_Invisible_Collision )		// ĽÓĽşŔĚ Ăß°ˇµČ °ćżě¸¸!!
; 491  : 	{
; 492  : 		m_dwType &= ~FOA_Invisible_Collision;
; 493  : 		SetVisible( FALSE );
; 494  : 	}
; 495  : 
; 496  : 	if( m_dwType & FOA_Invisible )
; 497  : 	{
; 498  : 		m_dwType &= ~FOA_Invisible;
; 499  : 		SetVisible( FALSE );
; 500  : 	}
; 501  : #endif
; 502  : 
; 503  : 	pFile->Read( &m_dwIndex,     sizeof( m_dwIndex ) );

  00069	8b 17		 mov	 edx, DWORD PTR [edi]
  0006b	8d 83 74 01 00
	00		 lea	 eax, DWORD PTR [ebx+372]
  00071	6a 01		 push	 1
  00073	6a 04		 push	 4
  00075	50		 push	 eax
  00076	8b cf		 mov	 ecx, edi
  00078	ff 52 2c	 call	 DWORD PTR [edx+44]

; 504  : 	pFile->Read( &dwMotion,      sizeof( dwMotion ) );

  0007b	8b 07		 mov	 eax, DWORD PTR [edi]
  0007d	8d 4d ec	 lea	 ecx, DWORD PTR _dwMotion$[ebp]
  00080	6a 01		 push	 1
  00082	6a 04		 push	 4
  00084	51		 push	 ecx
  00085	8b cf		 mov	 ecx, edi
  00087	ff 50 2c	 call	 DWORD PTR [eax+44]

; 505  : 	pFile->Read( &dwAIIntreface, sizeof( dwAIIntreface ) );

  0008a	8b 07		 mov	 eax, DWORD PTR [edi]
  0008c	8d 4d e4	 lea	 ecx, DWORD PTR _dwAIIntreface$[ebp]
  0008f	6a 01		 push	 1
  00091	6a 04		 push	 4
  00093	51		 push	 ecx
  00094	8b cf		 mov	 ecx, edi
  00096	ff 50 2c	 call	 DWORD PTR [eax+44]

; 506  : 	pFile->Read( &dwAI2,         sizeof( dwAI2 ) );

  00099	8b 07		 mov	 eax, DWORD PTR [edi]
  0009b	8d 4d e8	 lea	 ecx, DWORD PTR _dwAI2$[ebp]
  0009e	6a 01		 push	 1
  000a0	6a 04		 push	 4
  000a2	51		 push	 ecx
  000a3	8b cf		 mov	 ecx, edi
  000a5	ff 50 2c	 call	 DWORD PTR [eax+44]

; 507  : 
; 508  : 	m_fAngX = vAxis.x;

  000a8	f3 0f 10 45 f0	 movss	 xmm0, DWORD PTR _vAxis$[ebp]

; 509  : 	m_fAngZ = vAxis.z;
; 510  : 	
; 511  : 	InitProp( FALSE );		// FALSE - AIĽłÁ¤ľČÇÔ  SetAIInterface( pProp->dwAI );

  000ad	8b cb		 mov	 ecx, ebx
  000af	8b 03		 mov	 eax, DWORD PTR [ebx]
  000b1	f3 0f 11 43 1c	 movss	 DWORD PTR [ebx+28], xmm0
  000b6	f3 0f 10 45 f8	 movss	 xmm0, DWORD PTR _vAxis$[ebp+8]
  000bb	6a 00		 push	 0
  000bd	f3 0f 11 43 20	 movss	 DWORD PTR [ebx+32], xmm0
  000c2	ff 50 10	 call	 DWORD PTR [eax+16]

; 512  : 	if( m_dwType == OT_MOVER )

  000c5	83 3e 05	 cmp	 DWORD PTR [esi], 5
  000c8	75 16		 jne	 SHORT $LN2@Read

; 513  : 	{
; 514  : 		((CMover* )this)->m_dwMotion = dwMotion;
; 515  : 	#ifdef __WORLDSERVER
; 516  : 		SetAIInterface( dwAIIntreface, dwAI2 );

  000ca	ff 75 e8	 push	 DWORD PTR _dwAI2$[ebp]
  000cd	8b 45 ec	 mov	 eax, DWORD PTR _dwMotion$[ebp]
  000d0	8b cb		 mov	 ecx, ebx
  000d2	ff 75 e4	 push	 DWORD PTR _dwAIIntreface$[ebp]
  000d5	89 83 d8 02 00
	00		 mov	 DWORD PTR [ebx+728], eax
  000db	e8 00 00 00 00	 call	 ?SetAIInterface@CObj@@QAEXKK@Z ; CObj::SetAIInterface
$LN2@Read:

; 517  : 	#endif 
; 518  : 	}
; 519  : 
; 520  : 	// şńŔ˛ ŔűżëŔ» Ŕ§ÇŘĽ­ ŔĐŔ» ¶§ şążřÇŃ´Ů. ŔĚ´Â MPU¸¦ ąŮ˛ăŔ» ¶§ żŔşęÁ§Ć®µéŔĚ
; 521  : 	// ąŮ˛ď ¸ĘŔĚ ÁÂÇĄ şńŔ˛ŔĚ ŔçÁ¶Á¤µÇ°Ô ÇĎ±â Ŕ§ÇŃ °ÍŔĚ´Ů. żŔÁď µđ˝şĹ© ŔúŔĺ˝Ăżˇ¸¸ ÇĘżäÇĎ´Ů.
; 522  : 
; 523  : 	// gmpbigsun : ŔĚąĚ¸¸µéľîÁř ¸Ężˇ ´ëÇŘĽ­ şńŔ˛ŔűżëŔÇ ˛ŢŔ» Á˘ŔÚ Ŕ§żˇĽ­ ¸»ÇŃ´ë·Î żřş»˝şÄÉŔĎ±îÁö Á¦´ë·Î ±¸ÇöÇĎÁö ľĘŔ»˛¨¸é ...¸»ŔĚ´Ů.
; 524  : 	//				ŔĚÁ¦ ĹřżˇĽ­ Ŕý´ë»óĽö OLD_MPU·Î łŞ´«°ŞŔ» ´ÜĽřČ÷ żřş»Ŕ¸·Î şą±¸ÇŃ´Ů.
; 525  : 	m_vPos.x	*= FLOAT( OLD_MPU );

  000e0	66 0f 6e 05 00
	00 00 00	 movd	 xmm0, DWORD PTR ?OLD_MPU@@3HB ; OLD_MPU
  000e8	0f 5b c0	 cvtdq2ps xmm0, xmm0

; 526  : 	m_vPos.z	*= FLOAT( OLD_MPU );
; 527  : 
; 528  : #ifdef __WORLDSERVER
; 529  : 	m_vLink		= m_vPos;
; 530  : #endif	// __WORLDSERVER
; 531  : 
; 532  : 	return TRUE;
; 533  : }

  000eb	8b 4d fc	 mov	 ecx, DWORD PTR __$ArrayPad$[ebp]
  000ee	5f		 pop	 edi
  000ef	5e		 pop	 esi
  000f0	33 cd		 xor	 ecx, ebp
  000f2	f3 0f 59 83 60
	01 00 00	 mulss	 xmm0, DWORD PTR [ebx+352]
  000fa	f3 0f 11 83 60
	01 00 00	 movss	 DWORD PTR [ebx+352], xmm0
  00102	66 0f 6e 05 00
	00 00 00	 movd	 xmm0, DWORD PTR ?OLD_MPU@@3HB ; OLD_MPU
  0010a	0f 5b c0	 cvtdq2ps xmm0, xmm0
  0010d	f3 0f 59 83 68
	01 00 00	 mulss	 xmm0, DWORD PTR [ebx+360]
  00115	f3 0f 11 83 68
	01 00 00	 movss	 DWORD PTR [ebx+360], xmm0
  0011d	f3 0f 7e 83 60
	01 00 00	 movq	 xmm0, QWORD PTR [ebx+352]
  00125	8b 83 68 01 00
	00		 mov	 eax, DWORD PTR [ebx+360]
  0012b	66 0f d6 83 ac
	01 00 00	 movq	 QWORD PTR [ebx+428], xmm0
  00133	89 83 b4 01 00
	00		 mov	 DWORD PTR [ebx+436], eax
  00139	b8 01 00 00 00	 mov	 eax, 1
  0013e	5b		 pop	 ebx
  0013f	e8 00 00 00 00	 call	 @__security_check_cookie@4
  00144	8b e5		 mov	 esp, ebp
  00146	5d		 pop	 ebp
  00147	c2 04 00	 ret	 4
?Read@CObj@@UAEHPAVCFileIO@@@Z ENDP			; CObj::Read
_TEXT	ENDS
; Function compile flags: /Ogtp
; File C:\IAGOS\server\v18\Source\Source\_Common\Obj.cpp
;	COMDAT ?Process@CObj@@UAEXXZ
_TEXT	SEGMENT
?Process@CObj@@UAEXXZ PROC				; CObj::Process, COMDAT
; _this$ = ecx

; 233  : #ifdef __CLIENT
; 234  : 	LPMODELELEM lpModelElem = prj.m_modelMng.GetModelElem( m_dwType, m_dwIndex );
; 235  : 	if( lpModelElem == NULL )
; 236  : 		return;					// ModelŔĚ ľřŔ¸¸é Ăâ·ÂÇĎÁö ľĘŔ˝ 
; 237  : 
; 238  : 	if( lpModelElem->m_dwModelType == MODELTYPE_SFX )
; 239  : 	{
; 240  : 		if( ((CSfxModel*)m_pModel)->Process() )
; 241  : 			((CSfxModel*)m_pModel)->m_nCurFrame = 0;
; 242  : 	}
; 243  : 	else
; 244  : 	{
; 245  : 		D3DXVECTOR3 vPos = GetPos();
; 246  : 		m_pModel->FrameMove( &vPos );		// żůµĺĽ­ąöżˇĽ± CObj::m_pModelŔÇ FrameMove¸¦ µą¸±ÇĘżä ľř´Ů.
; 247  : 	}
; 248  : 
; 249  : 	if( m_pModel->m_pModelElem->m_bTrans )
; 250  : 	{
; 251  : 		D3DXVECTOR3 vPosObj, vPosAct, vPosCam;
; 252  : 		float fLengthObj, fLengthAct;
; 253  : 		if( GetActiveObj() != NULL )
; 254  : 		{
; 255  : 			vPosCam = m_pWorld->m_pCamera->m_vPos;
; 256  : 			vPosObj = GetPos() - vPosCam;
; 257  : 			vPosAct = GetActiveObj()->GetPos() - vPosCam;
; 258  : 			fLengthObj = D3DXVec3LengthSq( &vPosObj );	// Length¸¦ LengthSq·Î ąŮ˛Ţ. xuzhu
; 259  : 			fLengthAct = D3DXVec3LengthSq( &vPosAct );
; 260  : 		}		
; 261  : 		// Ä«¸Ţ¶óżÍ Áą¶ó ±ŮÁ˘ÇŃ °ćżě  
; 262  : 		if( fLengthObj < fLengthAct )
; 263  : 		{
; 264  : 			// łŞżÍ Ä«¸Ţ¶ó »çŔĚżˇ ŔÖ´Â żŔşęÁ§Ć®¸¦ ·ąŔĚĂĽĹ©ÇĎż© °É¸®¸é »ç¶óÁö°Ô ÇŃ´Ů.
; 265  : 			FLOAT fDist;
; 266  : 			D3DXVECTOR3 vIntersect;
; 267  : 			D3DXVECTOR3 vPickRayDir = vPosAct;
; 268  : 			D3DXVec3Normalize( &( vPickRayDir ), &( vPickRayDir ) );
; 269  : 			if( Pick( &vPosCam, &vPickRayDir, &vIntersect, &fDist, FALSE, FALSE ) )
; 270  : 			{
; 271  : 				m_wBlendFactor-=10;
; 272  : 				if( m_wBlendFactor < 64 ) m_wBlendFactor = 64;
; 273  : 			}
; 274  : 			else
; 275  : 			{
; 276  : 				m_wBlendFactor+=10;
; 277  : 				if( m_wBlendFactor > 255 ) m_wBlendFactor = 255;
; 278  : 			}
; 279  : 		}
; 280  : 		else
; 281  : 		{
; 282  : 			m_wBlendFactor+=5;
; 283  : 			if( m_wBlendFactor > 255 ) m_wBlendFactor = 255;
; 284  : 		}
; 285  : 	} 
; 286  : #endif // __CLIENT
; 287  : }

  00000	c2 00 00	 ret	 0
?Process@CObj@@UAEXXZ ENDP				; CObj::Process
_TEXT	ENDS
; Function compile flags: /Ogtp
; File C:\IAGOS\server\v18\Source\Source\_Common\Obj.h
;	COMDAT ?GetName@CObj@@UAEPBDXZ
_TEXT	SEGMENT
?GetName@CObj@@UAEPBDXZ PROC				; CObj::GetName, COMDAT
; _this$ = ecx

; 166  : 	virtual	LPCTSTR GetName() { return _T( "hello" ); }

  00000	b8 00 00 00 00	 mov	 eax, OFFSET ??_C@_05CJBACGMB@hello@
  00005	c3		 ret	 0
?GetName@CObj@@UAEPBDXZ ENDP				; CObj::GetName
_TEXT	ENDS
; Function compile flags: /Ogtp
; File C:\IAGOS\server\v18\Source\Source\_Common\Obj.cpp
;	COMDAT ?InitProp@CObj@@UAEXH@Z
_TEXT	SEGMENT
_bInitAI$ = 8						; size = 4
?InitProp@CObj@@UAEXH@Z PROC				; CObj::InitProp, COMDAT
; _this$ = ecx

; 122  : }

  00000	c2 04 00	 ret	 4
?InitProp@CObj@@UAEXH@Z ENDP				; CObj::InitProp
_TEXT	ENDS
; Function compile flags: /Ogtp
; File C:\IAGOS\server\v18\Source\Source\_Common\Obj.cpp
;	COMDAT ?LoadModel@CObj@@UAEPAVCModel@@PAUIDirect3DDevice9@@KK@Z
_TEXT	SEGMENT
_pd3dDevice$ = 8					; size = 4
_dwType$ = 12						; size = 4
_dwIndex$ = 16						; size = 4
?LoadModel@CObj@@UAEPAVCModel@@PAUIDirect3DDevice9@@KK@Z PROC ; CObj::LoadModel, COMDAT
; _this$ = ecx

; 389  : {

  00000	55		 push	 ebp
  00001	8b ec		 mov	 ebp, esp

; 390  : 	return prj.m_modelMng.LoadModel( pd3dDevice, dwType, dwIndex );

  00003	6a 00		 push	 0
  00005	ff 75 10	 push	 DWORD PTR _dwIndex$[ebp]
  00008	b9 68 00 00 00	 mov	 ecx, OFFSET ?prj@@3VCProject@@A+104
  0000d	ff 75 0c	 push	 DWORD PTR _dwType$[ebp]
  00010	ff 75 08	 push	 DWORD PTR _pd3dDevice$[ebp]
  00013	e8 00 00 00 00	 call	 ?LoadModel@CModelMng@@QAEPAVCModel@@PAUIDirect3DDevice9@@HHH@Z ; CModelMng::LoadModel

; 391  : }

  00018	5d		 pop	 ebp
  00019	c2 0c 00	 ret	 12			; 0000000cH
?LoadModel@CObj@@UAEPAVCModel@@PAUIDirect3DDevice9@@KK@Z ENDP ; CObj::LoadModel
_TEXT	ENDS
; Function compile flags: /Ogtp
; File C:\IAGOS\server\v18\Source\Source\_Common\Obj.h
;	COMDAT ?InitMotion@CObj@@UAEHK@Z
_TEXT	SEGMENT
_dwMotion$ = 8						; size = 4
?InitMotion@CObj@@UAEHK@Z PROC				; CObj::InitMotion, COMDAT
; _this$ = ecx

; 163  : 	virtual	BOOL	InitMotion(DWORD dwMotion) { return FALSE; }

  00000	33 c0		 xor	 eax, eax
  00002	c2 04 00	 ret	 4
?InitMotion@CObj@@UAEHK@Z ENDP				; CObj::InitMotion
_TEXT	ENDS
; Function compile flags: /Ogtp
; File C:\IAGOS\server\v18\Source\Source\_Common\Obj.h
;	COMDAT ?SetMotion@CObj@@UAEHKHK@Z
_TEXT	SEGMENT
_dwMotion$ = 8						; size = 4
_nLoop$ = 12						; size = 4
_dwOption$ = 16						; size = 4
?SetMotion@CObj@@UAEHKHK@Z PROC				; CObj::SetMotion, COMDAT
; _this$ = ecx

; 162  : 	virtual	BOOL	SetMotion(DWORD dwMotion, int nLoop = ANILOOP_LOOP, DWORD dwOption = 0 ) { return FALSE; }

  00000	33 c0		 xor	 eax, eax
  00002	c2 0c 00	 ret	 12			; 0000000cH
?SetMotion@CObj@@UAEHKHK@Z ENDP				; CObj::SetMotion
_TEXT	ENDS
; Function compile flags: /Ogtp
; File C:\IAGOS\server\v18\Source\Source\_Common\Obj.cpp
;	COMDAT ??1CObj@@UAE@XZ
_TEXT	SEGMENT
__$EHRec$ = -12						; size = 12
??1CObj@@UAE@XZ PROC					; CObj::~CObj, COMDAT
; _this$ = ecx

; 108  : {

  00000	55		 push	 ebp
  00001	8b ec		 mov	 ebp, esp
  00003	6a ff		 push	 -1
  00005	68 00 00 00 00	 push	 __ehhandler$??1CObj@@UAE@XZ
  0000a	64 a1 00 00 00
	00		 mov	 eax, DWORD PTR fs:0
  00010	50		 push	 eax
  00011	56		 push	 esi
  00012	a1 00 00 00 00	 mov	 eax, DWORD PTR ___security_cookie
  00017	33 c5		 xor	 eax, ebp
  00019	50		 push	 eax
  0001a	8d 45 f4	 lea	 eax, DWORD PTR __$EHRec$[ebp]
  0001d	64 a3 00 00 00
	00		 mov	 DWORD PTR fs:0, eax
  00023	8b f1		 mov	 esi, ecx

; 109  : 	// ľÖ´Ď¸ŢŔĚĽÇŔĚ °ˇ´ÉÇŃ °Í¸¸ ż©±âĽ­ ĆÄ±«°ˇ °ˇ´ÉÇĎ´Ů.
; 110  : 	// ľÖ´Ď¸ŢŔĚĽÇŔĚ şŇ°ˇ´ÉÇŃ °ÍŔş CModelMngżˇĽ­ °ü¸®ÇĎ°í ĆÄ±«ÇŃ´Ů.
; 111  : 	if( m_pModel && m_pModel->IsAniable() )

  00025	8b 8e 78 01 00
	00		 mov	 ecx, DWORD PTR [esi+376]
  0002b	c7 06 00 00 00
	00		 mov	 DWORD PTR [esi], OFFSET ??_7CObj@@6B@
  00031	85 c9		 test	 ecx, ecx
  00033	74 23		 je	 SHORT $LN3@CObj
  00035	e8 00 00 00 00	 call	 ?IsAniable@CModel@@QAEHXZ ; CModel::IsAniable
  0003a	85 c0		 test	 eax, eax
  0003c	74 1a		 je	 SHORT $LN3@CObj

; 112  : 		SAFE_DELETE( m_pModel );

  0003e	8b 8e 78 01 00
	00		 mov	 ecx, DWORD PTR [esi+376]
  00044	85 c9		 test	 ecx, ecx
  00046	74 10		 je	 SHORT $LN3@CObj
  00048	8b 01		 mov	 eax, DWORD PTR [ecx]
  0004a	6a 01		 push	 1
  0004c	ff 10		 call	 DWORD PTR [eax]
  0004e	c7 86 78 01 00
	00 00 00 00 00	 mov	 DWORD PTR [esi+376], 0
$LN3@CObj:

; 113  : 
; 114  : 	SAFE_DELETE( m_pAIInterface );

  00058	8b 8e 88 01 00
	00		 mov	 ecx, DWORD PTR [esi+392]
  0005e	85 c9		 test	 ecx, ecx
  00060	74 11		 je	 SHORT $LN4@CObj
  00062	8b 01		 mov	 eax, DWORD PTR [ecx]
  00064	6a 01		 push	 1
  00066	ff 50 04	 call	 DWORD PTR [eax+4]
  00069	c7 86 88 01 00
	00 00 00 00 00	 mov	 DWORD PTR [esi+392], 0
$LN4@CObj:

; 115  : #ifndef __WORLDSERVER
; 116  : 	SAFE_DELETE( m_pCamera );
; 117  : #endif	// __WORLDSERVER
; 118  : }

  00073	8b 4d f4	 mov	 ecx, DWORD PTR __$EHRec$[ebp]
  00076	64 89 0d 00 00
	00 00		 mov	 DWORD PTR fs:0, ecx
  0007d	59		 pop	 ecx
  0007e	5e		 pop	 esi
  0007f	8b e5		 mov	 esp, ebp
  00081	5d		 pop	 ebp
  00082	c3		 ret	 0
  00083	cc		 int	 3
  00084	cc		 int	 3
  00085	cc		 int	 3
  00086	cc		 int	 3
  00087	cc		 int	 3
_TEXT	ENDS
;	COMDAT text$x
text$x	SEGMENT
__ehhandler$??1CObj@@UAE@XZ:
  00000	90		 npad	 1
  00001	90		 npad	 1
  00002	8b 54 24 08	 mov	 edx, DWORD PTR [esp+8]
  00006	8d 42 0c	 lea	 eax, DWORD PTR [edx+12]
  00009	8b 4a f8	 mov	 ecx, DWORD PTR [edx-8]
  0000c	33 c8		 xor	 ecx, eax
  0000e	e8 00 00 00 00	 call	 @__security_check_cookie@4
  00013	b8 00 00 00 00	 mov	 eax, OFFSET __ehfuncinfo$??1CObj@@UAE@XZ
  00018	e9 00 00 00 00	 jmp	 ___CxxFrameHandler3
text$x	ENDS
??1CObj@@UAE@XZ ENDP					; CObj::~CObj
; Function compile flags: /Ogtp
; File C:\IAGOS\server\v18\Source\Source\_Common\Obj.cpp
; File C:\IAGOS\server\v18\Source\Source\_Common\Obj.h
; File C:\IAGOS\server\v18\Source\Source\_Common\Obj.cpp
; File C:\IAGOS\server\v18\Source\Source\DX_SDK\d3dx9math.inl
; File C:\IAGOS\server\v18\Source\Source\_Common\Obj.cpp
; File C:\IAGOS\server\v18\Source\Source\_Common\Obj.h
; File C:\IAGOS\server\v18\Source\Source\_Common\Obj.cpp
;	COMDAT ??0CObj@@QAE@XZ
_TEXT	SEGMENT
??0CObj@@QAE@XZ PROC					; CObj::CObj, COMDAT
; _this$ = ecx

; 46   : {

  00000	56		 push	 esi
  00001	8b f1		 mov	 esi, ecx

; 79   : 	D3DXMatrixScaling( &m_matScale, m_vScale.x, m_vScale.y, m_vScale.z );

  00003	83 ec 0c	 sub	 esp, 12			; 0000000cH
  00006	c7 06 00 00 00
	00		 mov	 DWORD PTR [esi], OFFSET ??_7CObj@@6B@
  0000c	8d 46 64	 lea	 eax, DWORD PTR [esi+100]
  0000f	c7 86 b8 01 00
	00 00 00 00 00	 mov	 DWORD PTR [esi+440], 0
  00019	c7 86 70 01 00
	00 00 00 00 00	 mov	 DWORD PTR [esi+368], 0
  00023	c7 86 74 01 00
	00 00 00 00 00	 mov	 DWORD PTR [esi+372], 0
  0002d	c7 86 84 01 00
	00 ff ff ff ff	 mov	 DWORD PTR [esi+388], -1
  00037	c7 86 78 01 00
	00 00 00 00 00	 mov	 DWORD PTR [esi+376], 0
  00041	c7 46 18 00 00
	00 00		 mov	 DWORD PTR [esi+24], 0
  00048	c7 46 1c 00 00
	00 00		 mov	 DWORD PTR [esi+28], 0
  0004f	c7 46 20 00 00
	00 00		 mov	 DWORD PTR [esi+32], 0
  00056	c7 86 60 01 00
	00 00 00 00 00	 mov	 DWORD PTR [esi+352], 0
  00060	c7 86 64 01 00
	00 00 00 00 00	 mov	 DWORD PTR [esi+356], 0
  0006a	c7 86 68 01 00
	00 00 00 00 00	 mov	 DWORD PTR [esi+360], 0
  00074	c7 46 0c 00 00
	80 3f		 mov	 DWORD PTR [esi+12], 1065353216 ; 3f800000H
  0007b	c7 46 10 00 00
	80 3f		 mov	 DWORD PTR [esi+16], 1065353216 ; 3f800000H
  00082	c7 46 14 00 00
	80 3f		 mov	 DWORD PTR [esi+20], 1065353216 ; 3f800000H
  00089	f3 0f 10 46 14	 movss	 xmm0, DWORD PTR [esi+20]
  0008e	80 a6 9c 01 00
	00 fc		 and	 BYTE PTR [esi+412], 252	; 000000fcH
  00095	f3 0f 11 44 24
	08		 movss	 DWORD PTR [esp+8], xmm0
  0009b	f3 0f 10 46 10	 movss	 xmm0, DWORD PTR [esi+16]
  000a0	f3 0f 11 44 24
	04		 movss	 DWORD PTR [esp+4], xmm0
  000a6	f3 0f 10 46 0c	 movss	 xmm0, DWORD PTR [esi+12]
  000ab	f3 0f 11 04 24	 movss	 DWORD PTR [esp], xmm0
  000b0	50		 push	 eax
  000b1	c7 86 7c 01 00
	00 00 00 00 00	 mov	 DWORD PTR [esi+380], 0
  000bb	c7 86 80 01 00
	00 00 00 00 00	 mov	 DWORD PTR [esi+384], 0
  000c5	c7 86 6c 01 00
	00 00 00 00 00	 mov	 DWORD PTR [esi+364], 0
  000cf	c7 86 8c 01 00
	00 00 00 00 00	 mov	 DWORD PTR [esi+396], 0
  000d9	c7 86 88 01 00
	00 00 00 00 00	 mov	 DWORD PTR [esi+392], 0
  000e3	c7 86 90 01 00
	00 02 00 00 00	 mov	 DWORD PTR [esi+400], 2
  000ed	c7 86 94 01 00
	00 ff ff ff ff	 mov	 DWORD PTR [esi+404], -1
  000f7	c7 86 98 01 00
	00 00 00 00 00	 mov	 DWORD PTR [esi+408], 0
  00101	c7 46 08 00 00
	00 00		 mov	 DWORD PTR [esi+8], 0
; File C:\IAGOS\server\v18\Source\Source\_Common\Obj.h

; 275  : 		m_dwFlags &= (~dwValue);

  00108	c7 46 04 18 00
	00 00		 mov	 DWORD PTR [esi+4], 24	; 00000018H
; File C:\IAGOS\server\v18\Source\Source\_Common\Obj.cpp

; 79   : 	D3DXMatrixScaling( &m_matScale, m_vScale.x, m_vScale.y, m_vScale.z );

  0010f	e8 00 00 00 00	 call	 _D3DXMatrixScaling@16

; 80   : 	D3DXMatrixRotationY( &m_matRotation, D3DXToRadian( -m_fAngle ) );

  00114	f3 0f 10 46 18	 movss	 xmm0, DWORD PTR [esi+24]
  00119	8d 86 a4 00 00
	00		 lea	 eax, DWORD PTR [esi+164]
  0011f	0f 57 05 00 00
	00 00		 xorps	 xmm0, DWORD PTR __xmm@80000000800000008000000080000000
  00126	f3 0f 59 05 00
	00 00 00	 mulss	 xmm0, DWORD PTR __real@3c8efa35
  0012e	51		 push	 ecx
  0012f	f3 0f 11 04 24	 movss	 DWORD PTR [esp], xmm0
  00134	50		 push	 eax
  00135	e8 00 00 00 00	 call	 _D3DXMatrixRotationY@8

; 81   : 	D3DXMatrixTranslation( &m_matTrans, m_vPos.x, m_vPos.y, m_vPos.z);

  0013a	f3 0f 10 86 68
	01 00 00	 movss	 xmm0, DWORD PTR [esi+360]
  00142	8d 46 24	 lea	 eax, DWORD PTR [esi+36]
  00145	83 ec 0c	 sub	 esp, 12			; 0000000cH
  00148	f3 0f 11 44 24
	08		 movss	 DWORD PTR [esp+8], xmm0
  0014e	f3 0f 10 86 64
	01 00 00	 movss	 xmm0, DWORD PTR [esi+356]
  00156	f3 0f 11 44 24
	04		 movss	 DWORD PTR [esp+4], xmm0
  0015c	f3 0f 10 86 60
	01 00 00	 movss	 xmm0, DWORD PTR [esi+352]
  00164	f3 0f 11 04 24	 movss	 DWORD PTR [esp], xmm0
  00169	50		 push	 eax
  0016a	e8 00 00 00 00	 call	 _D3DXMatrixTranslation@16
; File C:\IAGOS\server\v18\Source\Source\DX_SDK\d3dx9math.inl

; 1961 :     pOut->m[0][1] = pOut->m[0][2] = pOut->m[0][3] =

  0016f	c7 86 1c 01 00
	00 00 00 00 00	 mov	 DWORD PTR [esi+284], 0
  00179	c7 86 18 01 00
	00 00 00 00 00	 mov	 DWORD PTR [esi+280], 0
  00183	c7 86 14 01 00
	00 00 00 00 00	 mov	 DWORD PTR [esi+276], 0
  0018d	c7 86 10 01 00
	00 00 00 00 00	 mov	 DWORD PTR [esi+272], 0
  00197	c7 86 08 01 00
	00 00 00 00 00	 mov	 DWORD PTR [esi+264], 0
  001a1	c7 86 04 01 00
	00 00 00 00 00	 mov	 DWORD PTR [esi+260], 0
  001ab	c7 86 00 01 00
	00 00 00 00 00	 mov	 DWORD PTR [esi+256], 0
  001b5	c7 86 fc 00 00
	00 00 00 00 00	 mov	 DWORD PTR [esi+252], 0
  001bf	c7 86 f4 00 00
	00 00 00 00 00	 mov	 DWORD PTR [esi+244], 0
  001c9	c7 86 f0 00 00
	00 00 00 00 00	 mov	 DWORD PTR [esi+240], 0
  001d3	c7 86 ec 00 00
	00 00 00 00 00	 mov	 DWORD PTR [esi+236], 0
  001dd	c7 86 e8 00 00
	00 00 00 00 00	 mov	 DWORD PTR [esi+232], 0

; 1962 :     pOut->m[1][0] = pOut->m[1][2] = pOut->m[1][3] =
; 1963 :     pOut->m[2][0] = pOut->m[2][1] = pOut->m[2][3] =
; 1964 :     pOut->m[3][0] = pOut->m[3][1] = pOut->m[3][2] = 0.0f;
; 1965 : 
; 1966 :     pOut->m[0][0] = pOut->m[1][1] = pOut->m[2][2] = pOut->m[3][3] = 1.0f;

  001e7	c7 86 20 01 00
	00 00 00 80 3f	 mov	 DWORD PTR [esi+288], 1065353216 ; 3f800000H
  001f1	c7 86 0c 01 00
	00 00 00 80 3f	 mov	 DWORD PTR [esi+268], 1065353216 ; 3f800000H
  001fb	c7 86 f8 00 00
	00 00 00 80 3f	 mov	 DWORD PTR [esi+248], 1065353216 ; 3f800000H
  00205	c7 86 e4 00 00
	00 00 00 80 3f	 mov	 DWORD PTR [esi+228], 1065353216 ; 3f800000H
; File C:\IAGOS\server\v18\Source\Source\_Common\Obj.cpp

; 85   : 	m_vRemoval		= m_vLink	= D3DXVECTOR3(0.0f,0.0f,0.0f);

  0020f	c7 86 ac 01 00
	00 00 00 00 00	 mov	 DWORD PTR [esi+428], 0
  00219	c7 86 b0 01 00
	00 00 00 00 00	 mov	 DWORD PTR [esi+432], 0
  00223	c7 86 b4 01 00
	00 00 00 00 00	 mov	 DWORD PTR [esi+436], 0
  0022d	f3 0f 7e 86 ac
	01 00 00	 movq	 xmm0, QWORD PTR [esi+428]
  00235	8b 86 b4 01 00
	00		 mov	 eax, DWORD PTR [esi+436]
; File C:\IAGOS\server\v18\Source\Source\_Common\Obj.h

; 275  : 		m_dwFlags &= (~dwValue);

  0023b	83 66 04 fb	 and	 DWORD PTR [esi+4], -5	; fffffffbH
; File C:\IAGOS\server\v18\Source\Source\_Common\Obj.cpp

; 85   : 	m_vRemoval		= m_vLink	= D3DXVECTOR3(0.0f,0.0f,0.0f);

  0023f	66 0f d6 86 a0
	01 00 00	 movq	 QWORD PTR [esi+416], xmm0
  00247	89 86 a8 01 00
	00		 mov	 DWORD PTR [esi+424], eax

; 86   : 	SetVirtual( FALSE );
; 87   : #else	// !__WORLDSERVER
; 88   : 	m_fScrAngle		= 0.0f;
; 89   : 	m_fScrAngleX	= 0.0f;
; 90   : 	m_ppViewPtr		= NULL;
; 91   :     m_cullstate		= CS_UNKNOWN;
; 92   : 	m_wBlendFactor	= 255;
; 93   : 	m_pCamera		= NULL;
; 94   : 	m_fDistCamera	= 0.0f;
; 95   : 	m_dy			= 0.0f;
; 96   : 	m_nEvent		= 0;
; 97   : 	SetVisible( TRUE );
; 98   : 	
; 99   : 	#ifdef __YSMOOTH_OBJ	
; 100  : 		m_bSmooth       = FALSE;
; 101  : 		m_bSmoothOld    = FALSE;
; 102  : 		m_nSmoothCount  = 0;
; 103  : 	#endif //__YSMOOTH_OBJ
; 104  : #endif	// !__WORLDSERVER
; 105  : }

  0024d	8b c6		 mov	 eax, esi
  0024f	5e		 pop	 esi
  00250	c3		 ret	 0
??0CObj@@QAE@XZ ENDP					; CObj::CObj
_TEXT	ENDS
; Function compile flags: /Ogtp
; File C:\IAGOS\server\v18\Source\Source\DX_SDK\d3dx9math.h
;	COMDAT ??0D3DXVECTOR3@@QAE@XZ
_TEXT	SEGMENT
??0D3DXVECTOR3@@QAE@XZ PROC				; D3DXVECTOR3::D3DXVECTOR3, COMDAT
; _this$ = ecx

; 165  :     D3DXVECTOR3() {};

  00000	8b c1		 mov	 eax, ecx
  00002	c3		 ret	 0
??0D3DXVECTOR3@@QAE@XZ ENDP				; D3DXVECTOR3::D3DXVECTOR3
_TEXT	ENDS
; Function compile flags: /Ogtp
; File C:\IAGOS\server\v18\Source\Source\_Common\Obj.cpp
;	COMDAT ?__empty_global_delete@@YAXPAXI@Z
_TEXT	SEGMENT
___formal$ = 8						; size = 4
___formal$ = 12						; size = 4
?__empty_global_delete@@YAXPAXI@Z PROC			; __empty_global_delete, COMDAT

  00000	c2 00 00	 ret	 0
?__empty_global_delete@@YAXPAXI@Z ENDP			; __empty_global_delete
_TEXT	ENDS
; Function compile flags: /Ogtp
; File C:\IAGOS\server\v18\Source\Source\_Common\Obj.cpp
;	COMDAT ?__empty_global_delete@@YAXPAX@Z
_TEXT	SEGMENT
___formal$ = 8						; size = 4
?__empty_global_delete@@YAXPAX@Z PROC			; __empty_global_delete, COMDAT

  00000	c2 00 00	 ret	 0
?__empty_global_delete@@YAXPAX@Z ENDP			; __empty_global_delete
_TEXT	ENDS
; Function compile flags: /Ogtp
;	COMDAT ??_H@YGXPAXIIP6EPAX0@Z@Z
_TEXT	SEGMENT
___t$ = 8						; size = 4
___s$ = 12						; size = 4
___n$ = 16						; size = 4
___f$ = 20						; size = 4
??_H@YGXPAXIIP6EPAX0@Z@Z PROC				; `vector constructor iterator', COMDAT
  00000	55		 push	 ebp
  00001	8b ec		 mov	 ebp, esp
  00003	56		 push	 esi
  00004	8b 75 10	 mov	 esi, DWORD PTR ___n$[ebp]
  00007	85 f6		 test	 esi, esi
  00009	74 16		 je	 SHORT $LN6@vector
  0000b	53		 push	 ebx
  0000c	8b 5d 14	 mov	 ebx, DWORD PTR ___f$[ebp]
  0000f	57		 push	 edi
  00010	8b 7d 08	 mov	 edi, DWORD PTR ___t$[ebp]
$LL2@vector:
  00013	8b cf		 mov	 ecx, edi
  00015	ff d3		 call	 ebx
  00017	03 7d 0c	 add	 edi, DWORD PTR ___s$[ebp]
  0001a	83 ee 01	 sub	 esi, 1
  0001d	75 f4		 jne	 SHORT $LL2@vector
  0001f	5f		 pop	 edi
  00020	5b		 pop	 ebx
$LN6@vector:
  00021	5e		 pop	 esi
  00022	5d		 pop	 ebp
  00023	c2 10 00	 ret	 16			; 00000010H
??_H@YGXPAXIIP6EPAX0@Z@Z ENDP				; `vector constructor iterator'
_TEXT	ENDS
END
