; Listing generated by Microsoft (R) Optimizing Compiler Version 19.44.35225.0 

	TITLE	C:\IAGOS\server\v18\Source\Output\WorldServer\Release\object3d.obj
	.686P
	.XMM
	include listing.inc
	.model	flat

INCLUDELIB LIBCMT
INCLUDELIB OLDNAMES

PUBLIC	?g_pReflectMap@@3PAUIDirect3DTexture9@@A	; g_pReflectMap
PUBLIC	?g_pSkinVertexDeclaration@@3PAUIDirect3DVertexDeclaration9@@A ; g_pSkinVertexDeclaration
PUBLIC	?g_pShadowVertexDeclaration@@3PAUIDirect3DVertexDeclaration9@@A ; g_pShadowVertexDeclaration
PUBLIC	?g_pSkiningVS@@3PAUIDirect3DVertexShader9@@A	; g_pSkiningVS
PUBLIC	?g_pShadowVS@@3PAUIDirect3DVertexShader9@@A	; g_pShadowVS
PUBLIC	?g_MaxVB@@3HA					; g_MaxVB
_BSS	SEGMENT
?g_pReflectMap@@3PAUIDirect3DTexture9@@A DD 01H DUP (?)	; g_pReflectMap
?g_pSkinVertexDeclaration@@3PAUIDirect3DVertexDeclaration9@@A DD 01H DUP (?) ; g_pSkinVertexDeclaration
?g_pShadowVertexDeclaration@@3PAUIDirect3DVertexDeclaration9@@A DD 01H DUP (?) ; g_pShadowVertexDeclaration
?g_pSkiningVS@@3PAUIDirect3DVertexShader9@@A DD 01H DUP (?) ; g_pSkiningVS
?g_pShadowVS@@3PAUIDirect3DVertexShader9@@A DD 01H DUP (?) ; g_pShadowVS
?g_MaxVB@@3HA DD 01H DUP (?)				; g_MaxVB
_BSS	ENDS
PUBLIC	??_H@YGXPAXIIP6EPAX0@Z@Z			; `vector constructor iterator'
PUBLIC	?__empty_global_delete@@YAXPAX@Z		; __empty_global_delete
PUBLIC	?__empty_global_delete@@YAXPAXI@Z		; __empty_global_delete
PUBLIC	??1?$CStringT@DV?$StrTraitMFC@DV?$ChTraitsCRT@D@ATL@@@@@ATL@@QAE@XZ ; ATL::CStringT<char,StrTraitMFC<char,ATL::ChTraitsCRT<char> > >::~CStringT<char,StrTraitMFC<char,ATL::ChTraitsCRT<char> > >
PUBLIC	??0exception@std@@QAE@ABV01@@Z			; std::exception::exception
PUBLIC	??1exception@std@@UAE@XZ			; std::exception::~exception
PUBLIC	?what@exception@std@@UBEPBDXZ			; std::exception::what
PUBLIC	??_Gexception@std@@UAEPAXI@Z			; std::exception::`scalar deleting destructor'
PUBLIC	??0bad_alloc@std@@QAE@ABV01@@Z			; std::bad_alloc::bad_alloc
PUBLIC	??_Gbad_alloc@std@@UAEPAXI@Z			; std::bad_alloc::`scalar deleting destructor'
PUBLIC	??0bad_array_new_length@std@@QAE@XZ		; std::bad_array_new_length::bad_array_new_length
PUBLIC	??1bad_array_new_length@std@@UAE@XZ		; std::bad_array_new_length::~bad_array_new_length
PUBLIC	??0bad_array_new_length@std@@QAE@ABV01@@Z	; std::bad_array_new_length::bad_array_new_length
PUBLIC	??_Gbad_array_new_length@std@@UAEPAXI@Z		; std::bad_array_new_length::`scalar deleting destructor'
PUBLIC	?_Throw_bad_array_new_length@std@@YAXXZ		; std::_Throw_bad_array_new_length
PUBLIC	?_Xlen_string@std@@YAXXZ			; std::_Xlen_string
PUBLIC	??0?$basic_string@DU?$char_traits@D@std@@V?$allocator@D@2@@std@@QAE@QBD@Z ; std::basic_string<char,std::char_traits<char>,std::allocator<char> >::basic_string<char,std::char_traits<char>,std::allocator<char> >
PUBLIC	??1?$basic_string@DU?$char_traits@D@std@@V?$allocator@D@2@@std@@QAE@XZ ; std::basic_string<char,std::char_traits<char>,std::allocator<char> >::~basic_string<char,std::char_traits<char>,std::allocator<char> >
PUBLIC	?_Throw_tree_length_error@std@@YAXXZ		; std::_Throw_tree_length_error
PUBLIC	??0D3DXVECTOR3@@QAE@XZ				; D3DXVECTOR3::D3DXVECTOR3
PUBLIC	??0D3DXMATRIX@@QAE@XZ				; D3DXMATRIX::D3DXMATRIX
PUBLIC	??1CFileIO@@UAE@XZ				; CFileIO::~CFileIO
PUBLIC	?Flush@CFileIO@@UAEHXZ				; CFileIO::Flush
PUBLIC	?GetC@CFileIO@@UAEDXZ				; CFileIO::GetC
PUBLIC	?GetW@CFileIO@@UAEGXZ				; CFileIO::GetW
PUBLIC	?GetDW@CFileIO@@UAEKXZ				; CFileIO::GetDW
PUBLIC	?Tell@CFileIO@@UAEJXZ				; CFileIO::Tell
PUBLIC	?Seek@CFileIO@@UAEHJH@Z				; CFileIO::Seek
PUBLIC	?GetLength@CFileIO@@UAEJXZ			; CFileIO::GetLength
PUBLIC	?Read@CFileIO@@UAEIPAXII@Z			; CFileIO::Read
PUBLIC	??_GCFileIO@@UAEPAXI@Z				; CFileIO::`scalar deleting destructor'
PUBLIC	??0TM_ANIMATION@@QAE@XZ				; TM_ANIMATION::TM_ANIMATION
PUBLIC	??0SKINVERTEX@@QAE@XZ				; SKINVERTEX::SKINVERTEX
PUBLIC	??0NORMALVERTEX@@QAE@XZ				; NORMALVERTEX::NORMALVERTEX
PUBLIC	??0GMOBJECT@@QAE@XZ				; GMOBJECT::GMOBJECT
PUBLIC	?Init@CObject3D@@AAEXXZ				; CObject3D::Init
PUBLIC	?Destroy@CObject3D@@AAEXXZ			; CObject3D::Destroy
PUBLIC	?LoadGMObject@CObject3D@@AAEHPAVCFileIO@@PAUGMOBJECT@@@Z ; CObject3D::LoadGMObject
PUBLIC	?LoadTMAni@CObject3D@@AAEHPAVCFileIO@@PAUGMOBJECT@@@Z ; CObject3D::LoadTMAni
PUBLIC	?SaveGMObject@CObject3D@@AAEHPAU_iobuf@@PAUGMOBJECT@@@Z ; CObject3D::SaveGMObject
PUBLIC	?SaveTMAni@CObject3D@@AAEHPAU_iobuf@@PAUGMOBJECT@@@Z ; CObject3D::SaveTMAni
PUBLIC	??0CObject3D@@QAE@XZ				; CObject3D::CObject3D
PUBLIC	??1CObject3D@@QAE@XZ				; CObject3D::~CObject3D
PUBLIC	?SetTexture@CObject3D@@QAEXPBD@Z		; CObject3D::SetTexture
PUBLIC	?SetTexture@CObject3D@@QAEXPAUIDirect3DTexture9@@@Z ; CObject3D::SetTexture
PUBLIC	?SetTextureEx@CObject3D@@QAEXPAUGMOBJECT@@H@Z	; CObject3D::SetTextureEx
PUBLIC	?LoadTextureEx@CObject3D@@QAEXHPAUGMOBJECT@@QAPAUMATERIAL@@@Z ; CObject3D::LoadTextureEx
PUBLIC	?ChangeTexture@CObject3D@@QAEXPBD0@Z		; CObject3D::ChangeTexture
PUBLIC	?GetMaxVertex@CObject3D@@QAEHXZ			; CObject3D::GetMaxVertex
PUBLIC	?GetMaxFace@CObject3D@@QAEHXZ			; CObject3D::GetMaxFace
PUBLIC	?GetMaxMtrlBlk@CObject3D@@QAEHXZ		; CObject3D::GetMaxMtrlBlk
PUBLIC	?CreateDeviceBuffer@CObject3D@@QAEJPAUGMOBJECT@@PAPAUIDirect3DVertexBuffer9@@W4_D3DPOOL@@@Z ; CObject3D::CreateDeviceBuffer
PUBLIC	?SendVertexBuffer@CObject3D@@QAEJPAUGMOBJECT@@PAUIDirect3DVertexBuffer9@@@Z ; CObject3D::SendVertexBuffer
PUBLIC	?SendIndexBuffer@CObject3D@@QAEJPAUGMOBJECT@@@Z	; CObject3D::SendIndexBuffer
PUBLIC	?LoadObject@CObject3D@@QAEHPBD@Z		; CObject3D::LoadObject
PUBLIC	?IsAnimateFile@CObject3D@@SAHPBD@Z		; CObject3D::IsAnimateFile
PUBLIC	?SaveObject@CObject3D@@QAEHPBD@Z		; CObject3D::SaveObject
PUBLIC	?ClearNormal@CObject3D@@QAEXXZ			; CObject3D::ClearNormal
PUBLIC	?SlideVectorXZ@CObject3D@@QAEHPAUD3DXVECTOR3@@ABU2@1ABUD3DXMATRIX@@HH@Z ; CObject3D::SlideVectorXZ
PUBLIC	?SlideVectorXZ2@CObject3D@@QAEHPAUD3DXVECTOR3@@0ABU2@1ABUD3DXMATRIX@@H@Z ; CObject3D::SlideVectorXZ2
PUBLIC	?SlideVectorUnder@CObject3D@@QAEHPAUD3DXVECTOR3@@ABU2@1ABUD3DXMATRIX@@0@Z ; CObject3D::SlideVectorUnder
PUBLIC	?FindTouchTriLine@CObject3D@@QAEXPAPAUD3DXVECTOR3@@ABU2@1ABUD3DXMATRIX@@PAMH@Z ; CObject3D::FindTouchTriLine
PUBLIC	?IntersectRayTri@CObject3D@@QAEPAUD3DXVECTOR3@@ABU2@0ABUD3DXMATRIX@@PAU2@PAMH@Z ; CObject3D::IntersectRayTri
PUBLIC	?SimpleTriIntersect@CObject3D@@QAEHUD3DXMATRIX@@PAUGMOBJECT@@0@Z ; CObject3D::SimpleTriIntersect
PUBLIC	?ComputeInterval@CObject3D@@QAEXMMMMMMMMAAM0000@Z ; CObject3D::ComputeInterval
PUBLIC	?Skining@CObject3D@@QAEXPAUGMOBJECT@@PBUD3DXMATRIX@@@Z ; CObject3D::Skining
PUBLIC	?SetVertexBuffer@CObject3D@@QAEJPAUGMOBJECT@@@Z	; CObject3D::SetVertexBuffer
PUBLIC	?Animate@CObject3D@@QAEXMH@Z			; CObject3D::Animate
PUBLIC	?RestoreDeviceObjects@CObject3D@@QAEJPAPAUIDirect3DVertexBuffer9@@W4_D3DPOOL@@@Z ; CObject3D::RestoreDeviceObjects
PUBLIC	?InvalidateDeviceObjects@CObject3D@@QAEJXZ	; CObject3D::InvalidateDeviceObjects
PUBLIC	?DeleteDeviceObjects@CObject3D@@QAEJXZ		; CObject3D::DeleteDeviceObjects
PUBLIC	?erase@?$_Tree@V?$_Tmap_traits@V?$basic_string@DU?$char_traits@D@std@@V?$allocator@D@2@@std@@PAVCObject3D@@U?$less@V?$basic_string@DU?$char_traits@D@std@@V?$allocator@D@2@@std@@@2@V?$allocator@U?$pair@$$CBV?$basic_string@DU?$char_traits@D@std@@V?$allocator@D@2@@std@@PAVCObject3D@@@std@@@2@$0A@@std@@@std@@QAEIABV?$basic_string@DU?$char_traits@D@std@@V?$allocator@D@2@@2@@Z ; std::_Tree<std::_Tmap_traits<std::basic_string<char,std::char_traits<char>,std::allocator<char> >,CObject3D *,std::less<std::basic_string<char,std::char_traits<char>,std::allocator<char> > >,std::allocator<std::pair<std::basic_string<char,std::char_traits<char>,std::allocator<char> > const ,CObject3D *> >,0> >::erase
PUBLIC	?_Lrotate@?$_Tree_val@U?$_Tree_simple_types@U?$pair@$$CBV?$basic_string@DU?$char_traits@D@std@@V?$allocator@D@2@@std@@PAVCObject3D@@@std@@@std@@@std@@QAEXPAU?$_Tree_node@U?$pair@$$CBV?$basic_string@DU?$char_traits@D@std@@V?$allocator@D@2@@std@@PAVCObject3D@@@std@@PAX@2@@Z ; std::_Tree_val<std::_Tree_simple_types<std::pair<std::basic_string<char,std::char_traits<char>,std::allocator<char> > const ,CObject3D *> > >::_Lrotate
PUBLIC	?_Rrotate@?$_Tree_val@U?$_Tree_simple_types@U?$pair@$$CBV?$basic_string@DU?$char_traits@D@std@@V?$allocator@D@2@@std@@PAVCObject3D@@@std@@@std@@@std@@QAEXPAU?$_Tree_node@U?$pair@$$CBV?$basic_string@DU?$char_traits@D@std@@V?$allocator@D@2@@std@@PAVCObject3D@@@std@@PAX@2@@Z ; std::_Tree_val<std::_Tree_simple_types<std::pair<std::basic_string<char,std::char_traits<char>,std::allocator<char> > const ,CObject3D *> > >::_Rrotate
PUBLIC	?_Extract@?$_Tree_val@U?$_Tree_simple_types@U?$pair@$$CBV?$basic_string@DU?$char_traits@D@std@@V?$allocator@D@2@@std@@PAVCObject3D@@@std@@@std@@@std@@QAEPAU?$_Tree_node@U?$pair@$$CBV?$basic_string@DU?$char_traits@D@std@@V?$allocator@D@2@@std@@PAVCObject3D@@@std@@PAX@2@V?$_Tree_unchecked_const_iterator@V?$_Tree_val@U?$_Tree_simple_types@U?$pair@$$CBV?$basic_string@DU?$char_traits@D@std@@V?$allocator@D@2@@std@@PAVCObject3D@@@std@@@std@@@std@@U_Iterator_base0@2@@2@@Z ; std::_Tree_val<std::_Tree_simple_types<std::pair<std::basic_string<char,std::char_traits<char>,std::allocator<char> > const ,CObject3D *> > >::_Extract
PUBLIC	?_Insert_node@?$_Tree_val@U?$_Tree_simple_types@U?$pair@$$CBV?$basic_string@DU?$char_traits@D@std@@V?$allocator@D@2@@std@@PAVCObject3D@@@std@@@std@@@std@@QAEPAU?$_Tree_node@U?$pair@$$CBV?$basic_string@DU?$char_traits@D@std@@V?$allocator@D@2@@std@@PAVCObject3D@@@std@@PAX@2@U?$_Tree_id@PAU?$_Tree_node@U?$pair@$$CBV?$basic_string@DU?$char_traits@D@std@@V?$allocator@D@2@@std@@PAVCObject3D@@@std@@PAX@std@@@2@QAU32@@Z ; std::_Tree_val<std::_Tree_simple_types<std::pair<std::basic_string<char,std::char_traits<char>,std::allocator<char> > const ,CObject3D *> > >::_Insert_node
PUBLIC	?Init@CObject3DMng@@AAEXXZ			; CObject3DMng::Init
PUBLIC	?Destroy@CObject3DMng@@QAEXXZ			; CObject3DMng::Destroy
PUBLIC	?DeleteDeviceObjects@CObject3DMng@@QAEJXZ	; CObject3DMng::DeleteDeviceObjects
PUBLIC	?InvalidateDeviceObjects@CObject3DMng@@QAEJXZ	; CObject3DMng::InvalidateDeviceObjects
PUBLIC	??0CObject3DMng@@QAE@XZ				; CObject3DMng::CObject3DMng
PUBLIC	??1CObject3DMng@@QAE@XZ				; CObject3DMng::~CObject3DMng
PUBLIC	?DeleteObject3D@CObject3DMng@@QAEHPAVCObject3D@@@Z ; CObject3DMng::DeleteObject3D
PUBLIC	?LoadObject3D@CObject3DMng@@QAEPAVCObject3D@@PAUIDirect3DDevice9@@PBD@Z ; CObject3DMng::LoadObject3D
PUBLIC	?Process@CObject3DMng@@QAEXXZ			; CObject3DMng::Process
PUBLIC	??$?MDU?$char_traits@D@std@@V?$allocator@D@1@@std@@YA_NABV?$basic_string@DU?$char_traits@D@std@@V?$allocator@D@2@@0@0@Z ; std::operator<<char,std::char_traits<char>,std::allocator<char> >
PUBLIC	??$_Allocate_manually_vector_aligned@U_Default_allocate_traits@std@@@std@@YAPAXI@Z ; std::_Allocate_manually_vector_aligned<std::_Default_allocate_traits>
PUBLIC	??E?$_Tree_unchecked_const_iterator@V?$_Tree_val@U?$_Tree_simple_types@U?$pair@$$CBV?$basic_string@DU?$char_traits@D@std@@V?$allocator@D@2@@std@@PAVCObject3D@@@std@@@std@@@std@@U_Iterator_base0@2@@std@@QAEAAV01@XZ ; std::_Tree_unchecked_const_iterator<std::_Tree_val<std::_Tree_simple_types<std::pair<std::basic_string<char,std::char_traits<char>,std::allocator<char> > const ,CObject3D *> > >,std::_Iterator_base0>::operator++
PUBLIC	??1?$pair@$$CBV?$basic_string@DU?$char_traits@D@std@@V?$allocator@D@2@@std@@PAVCObject3D@@@std@@QAE@XZ ; std::pair<std::basic_string<char,std::char_traits<char>,std::allocator<char> > const ,CObject3D *>::~pair<std::basic_string<char,std::char_traits<char>,std::allocator<char> > const ,CObject3D *>
PUBLIC	??$_Emplace@U?$pair@$$CBV?$basic_string@DU?$char_traits@D@std@@V?$allocator@D@2@@std@@PAVCObject3D@@@std@@@?$_Tree@V?$_Tmap_traits@V?$basic_string@DU?$char_traits@D@std@@V?$allocator@D@2@@std@@PAVCObject3D@@U?$less@V?$basic_string@DU?$char_traits@D@std@@V?$allocator@D@2@@std@@@2@V?$allocator@U?$pair@$$CBV?$basic_string@DU?$char_traits@D@std@@V?$allocator@D@2@@std@@PAVCObject3D@@@std@@@2@$0A@@std@@@std@@IAE?AU?$pair@PAU?$_Tree_node@U?$pair@$$CBV?$basic_string@DU?$char_traits@D@std@@V?$allocator@D@2@@std@@PAVCObject3D@@@std@@PAX@std@@_N@1@$$QAU?$pair@$$CBV?$basic_string@DU?$char_traits@D@std@@V?$allocator@D@2@@std@@PAVCObject3D@@@1@@Z ; std::_Tree<std::_Tmap_traits<std::basic_string<char,std::char_traits<char>,std::allocator<char> >,CObject3D *,std::less<std::basic_string<char,std::char_traits<char>,std::allocator<char> > >,std::allocator<std::pair<std::basic_string<char,std::char_traits<char>,std::allocator<char> > const ,CObject3D *> >,0> >::_Emplace<std::pair<std::basic_string<char,std::char_traits<char>,std::allocator<char> > const ,CObject3D *> >
PUBLIC	??$_Erase_tree@V?$allocator@U?$_Tree_node@U?$pair@$$CBV?$basic_string@DU?$char_traits@D@std@@V?$allocator@D@2@@std@@PAVCObject3D@@@std@@PAX@std@@@std@@@?$_Tree_val@U?$_Tree_simple_types@U?$pair@$$CBV?$basic_string@DU?$char_traits@D@std@@V?$allocator@D@2@@std@@PAVCObject3D@@@std@@@std@@@std@@QAEXAAV?$allocator@U?$_Tree_node@U?$pair@$$CBV?$basic_string@DU?$char_traits@D@std@@V?$allocator@D@2@@std@@PAVCObject3D@@@std@@PAX@std@@@1@PAU?$_Tree_node@U?$pair@$$CBV?$basic_string@DU?$char_traits@D@std@@V?$allocator@D@2@@std@@PAVCObject3D@@@std@@PAX@1@@Z ; std::_Tree_val<std::_Tree_simple_types<std::pair<std::basic_string<char,std::char_traits<char>,std::allocator<char> > const ,CObject3D *> > >::_Erase_tree<std::allocator<std::_Tree_node<std::pair<std::basic_string<char,std::char_traits<char>,std::allocator<char> > const ,CObject3D *>,void *> > >
PUBLIC	??$_Find_lower_bound@V?$basic_string@DU?$char_traits@D@std@@V?$allocator@D@2@@std@@@?$_Tree@V?$_Tmap_traits@V?$basic_string@DU?$char_traits@D@std@@V?$allocator@D@2@@std@@PAVCObject3D@@U?$less@V?$basic_string@DU?$char_traits@D@std@@V?$allocator@D@2@@std@@@2@V?$allocator@U?$pair@$$CBV?$basic_string@DU?$char_traits@D@std@@V?$allocator@D@2@@std@@PAVCObject3D@@@std@@@2@$0A@@std@@@std@@IBE?AU?$_Tree_find_result@PAU?$_Tree_node@U?$pair@$$CBV?$basic_string@DU?$char_traits@D@std@@V?$allocator@D@2@@std@@PAVCObject3D@@@std@@PAX@std@@@1@ABV?$basic_string@DU?$char_traits@D@std@@V?$allocator@D@2@@1@@Z ; std::_Tree<std::_Tmap_traits<std::basic_string<char,std::char_traits<char>,std::allocator<char> >,CObject3D *,std::less<std::basic_string<char,std::char_traits<char>,std::allocator<char> > >,std::allocator<std::pair<std::basic_string<char,std::char_traits<char>,std::allocator<char> > const ,CObject3D *> >,0> >::_Find_lower_bound<std::basic_string<char,std::char_traits<char>,std::allocator<char> > >
PUBLIC	??1?$_Alloc_construct_ptr@V?$allocator@U?$_Tree_node@U?$pair@$$CBV?$basic_string@DU?$char_traits@D@std@@V?$allocator@D@2@@std@@PAVCObject3D@@@std@@PAX@std@@@std@@@std@@QAE@XZ ; std::_Alloc_construct_ptr<std::allocator<std::_Tree_node<std::pair<std::basic_string<char,std::char_traits<char>,std::allocator<char> > const ,CObject3D *>,void *> > >::~_Alloc_construct_ptr<std::allocator<std::_Tree_node<std::pair<std::basic_string<char,std::char_traits<char>,std::allocator<char> > const ,CObject3D *>,void *> > >
PUBLIC	??1?$_Tree_temp_node_alloc@V?$allocator@U?$_Tree_node@U?$pair@$$CBV?$basic_string@DU?$char_traits@D@std@@V?$allocator@D@2@@std@@PAVCObject3D@@@std@@PAX@std@@@std@@@std@@QAE@XZ ; std::_Tree_temp_node_alloc<std::allocator<std::_Tree_node<std::pair<std::basic_string<char,std::char_traits<char>,std::allocator<char> > const ,CObject3D *>,void *> > >::~_Tree_temp_node_alloc<std::allocator<std::_Tree_node<std::pair<std::basic_string<char,std::char_traits<char>,std::allocator<char> > const ,CObject3D *>,void *> > >
PUBLIC	??_7exception@std@@6B@				; std::exception::`vftable'
PUBLIC	??_C@_0BC@EOODALEL@Unknown?5exception@		; `string'
PUBLIC	??_7bad_alloc@std@@6B@				; std::bad_alloc::`vftable'
PUBLIC	??_7bad_array_new_length@std@@6B@		; std::bad_array_new_length::`vftable'
PUBLIC	??_C@_0BF@KINCDENJ@bad?5array?5new?5length@	; `string'
PUBLIC	??_R0?AVexception@std@@@8			; std::exception `RTTI Type Descriptor'
PUBLIC	__CT??_R0?AVexception@std@@@8??0exception@std@@QAE@ABV01@@Z12
PUBLIC	__TI3?AVbad_array_new_length@std@@
PUBLIC	__CTA3?AVbad_array_new_length@std@@
PUBLIC	??_R0?AVbad_array_new_length@std@@@8		; std::bad_array_new_length `RTTI Type Descriptor'
PUBLIC	__CT??_R0?AVbad_array_new_length@std@@@8??0bad_array_new_length@std@@QAE@ABV01@@Z12
PUBLIC	??_R0?AVbad_alloc@std@@@8			; std::bad_alloc `RTTI Type Descriptor'
PUBLIC	__CT??_R0?AVbad_alloc@std@@@8??0bad_alloc@std@@QAE@ABV01@@Z12
PUBLIC	??_C@_0BA@JFNIOLAK@string?5too?5long@		; `string'
PUBLIC	??_C@_0BB@GCADKGJO@map?1set?5too?5long@		; `string'
PUBLIC	??_7CFileIO@@6B@				; CFileIO::`vftable'
PUBLIC	?g_Object3DMng@@3VCObject3DMng@@A		; g_Object3DMng
PUBLIC	?g_mReflect@@3UD3DXMATRIX@@A			; g_mReflect
PUBLIC	??_R4exception@std@@6B@				; std::exception::`RTTI Complete Object Locator'
PUBLIC	??_R3exception@std@@8				; std::exception::`RTTI Class Hierarchy Descriptor'
PUBLIC	??_R2exception@std@@8				; std::exception::`RTTI Base Class Array'
PUBLIC	??_R1A@?0A@EA@exception@std@@8			; std::exception::`RTTI Base Class Descriptor at (0,-1,0,64)'
PUBLIC	??_R4bad_array_new_length@std@@6B@		; std::bad_array_new_length::`RTTI Complete Object Locator'
PUBLIC	??_R3bad_array_new_length@std@@8		; std::bad_array_new_length::`RTTI Class Hierarchy Descriptor'
PUBLIC	??_R2bad_array_new_length@std@@8		; std::bad_array_new_length::`RTTI Base Class Array'
PUBLIC	??_R1A@?0A@EA@bad_array_new_length@std@@8	; std::bad_array_new_length::`RTTI Base Class Descriptor at (0,-1,0,64)'
PUBLIC	??_R1A@?0A@EA@bad_alloc@std@@8			; std::bad_alloc::`RTTI Base Class Descriptor at (0,-1,0,64)'
PUBLIC	??_R3bad_alloc@std@@8				; std::bad_alloc::`RTTI Class Hierarchy Descriptor'
PUBLIC	??_R2bad_alloc@std@@8				; std::bad_alloc::`RTTI Base Class Array'
PUBLIC	??_R4bad_alloc@std@@6B@				; std::bad_alloc::`RTTI Complete Object Locator'
PUBLIC	??_R4CFileIO@@6B@				; CFileIO::`RTTI Complete Object Locator'
PUBLIC	??_R0?AVCFileIO@@@8				; CFileIO `RTTI Type Descriptor'
PUBLIC	??_R3CFileIO@@8					; CFileIO::`RTTI Class Hierarchy Descriptor'
PUBLIC	??_R2CFileIO@@8					; CFileIO::`RTTI Base Class Array'
PUBLIC	??_R1A@?0A@EA@CFileIO@@8			; CFileIO::`RTTI Base Class Descriptor at (0,-1,0,64)'
PUBLIC	??_C@_02JDPG@rb@				; `string'
PUBLIC	??_C@_0BN@MFAGAFAH@IsAnimateFile?5?3?5?$CFs?5?$MA?P?$LB?b?5?$LN?G?F?P@ ; `string'
PUBLIC	??_C@_06IJGEHPBH@Model?2@			; `string'
PUBLIC	??_C@_0CI@PCDMIADN@LoadObject3D?5?3?5?$CFs?5?F?D?$MA?O?$LI?m?$MA?L?5?$LD?J?$LJ?$KL@ ; `string'
PUBLIC	??_C@_0BJ@FJAKFGFC@?$MA?$NP?$LI?x?$LF?H?5?F?D?$MA?O?5?3?5?$CFs?0?5?$CFs?0?5?$CFs@ ; `string'
PUBLIC	??_C@_0BP@GIAEKCLE@?$CFs?$MA?G?5?$LJ?v?$MA?$PM?$MA?$LK?5?$CFd?4?5?5?C?V?$LN?E?$LJ?v?$MA?$PM?$MA?$LK?5?$CFd@ ; `string'
PUBLIC	??_C@_0DA@ENKKKOBI@?$LI?$NO?$LI?p?$LI?$KO?5?G?R?$LE?g?5?$LN?G?F?P?3CObject3D?3?3Loa@ ; `string'
PUBLIC	??_C@_0CG@LLHAJNGA@LoadObject?5?3?5?$LI?$NO?$LI?p?$LI?$KO?5?$LP?$MA?$LJ?v?G?C?$LH?N?$LP?l?5@ ; `string'
PUBLIC	??_C@_0EC@CMDBPBHJ@CObject3D?3?3LoadGMObject?5?3?5?$CFs?5?E?X@ ; `string'
PUBLIC	??_C@_0DB@PHDAAFJC@CObject3D?3?3LoadGeoMesh?$CI?$CJ?5?3?5?$CFs?$MA?G@ ; `string'
PUBLIC	??_C@_0CC@OPJGNFFN@?$LI?E?E?M?$LI?$KO?$LO?s?5?$LA?$LJ?$LM?v?$LA?$KB?532?$LA?$LD?$LI?$KG?5?$LD?Q?$LO?z?$LE?Y?4?5@ ; `string'
PUBLIC	??_C@_0CI@INGEON@SlideVectorXZ?3?$LN?$LK?E?$LC?$LP?$MA?$LK?j?A?$KH?F?$KO?5?$LJ?$NP?$LA?$NP@ ; `string'
PUBLIC	??_C@_0EI@DEOEDIHF@CActionMover?3?3ProcessCollisionG@ ; `string'
PUBLIC	??_C@_0CL@FLBENPCM@FindTouchTriLine?3?$LN?$LK?E?$LC?$LP?$MA?$LK?j?A?$KH?F?$KO?5?$LJ@ ; `string'
PUBLIC	??_C@_0DD@CLBMDIFP@IntersectRayTri?5?3?5?$LJ?v?E?X?$LN?$LK?$LJ?v?F?$NL?$MA?G?5@ ; `string'
PUBLIC	__real@00000000
PUBLIC	__real@3e4ccccd
PUBLIC	__real@3f000000
PUBLIC	__real@3f800000
PUBLIC	__real@40400000
PUBLIC	__real@477fff00
PUBLIC	__xmm@7fffffff7fffffff7fffffff7fffffff
PUBLIC	__xmm@7fffffffffffffff7fffffffffffffff
PUBLIC	__xmm@80000000800000008000000080000000
PUBLIC	__xmm@cdcdcdcdcdcdcdcdcdcdcdcdcdcdcdcd
EXTRN	??2@YAPAXI@Z:PROC				; operator new
EXTRN	??3@YAXPAXI@Z:PROC				; operator delete
EXTRN	??_U@YAPAXI@Z:PROC				; operator new[]
EXTRN	??_V@YAXPAX@Z:PROC				; operator delete[]
EXTRN	_atexit:PROC
EXTRN	___report_rangecheckfailure:PROC
EXTRN	___std_terminate:PROC
EXTRN	__invoke_watson:PROC
EXTRN	_strcmpi:PROC
EXTRN	_strlwr:PROC
EXTRN	_getwc:PROC
EXTRN	_fflush:PROC
EXTRN	_fread:PROC
EXTRN	_fseek:PROC
EXTRN	_ftell:PROC
EXTRN	_fwrite:PROC
EXTRN	_getc:PROC
EXTRN	_fileno:PROC
EXTRN	___std_exception_copy:PROC
EXTRN	___std_exception_destroy:PROC
EXTRN	??_Eexception@std@@UAEPAXI@Z:PROC		; std::exception::`vector deleting destructor'
EXTRN	??_Ebad_alloc@std@@UAEPAXI@Z:PROC		; std::bad_alloc::`vector deleting destructor'
EXTRN	??_Ebad_array_new_length@std@@UAEPAXI@Z:PROC	; std::bad_array_new_length::`vector deleting destructor'
EXTRN	?_Xlength_error@std@@YAXPBD@Z:PROC		; std::_Xlength_error
EXTRN	_D3DXVec3Normalize@8:PROC
EXTRN	_D3DXVec3TransformCoord@12:PROC
EXTRN	_D3DXVec3TransformNormal@12:PROC
EXTRN	_D3DXMatrixMultiply@12:PROC
EXTRN	_D3DXMatrixInverse@12:PROC
EXTRN	__filelength:PROC
EXTRN	?Open@CFileIO@@UAEHPBDPAD@Z:PROC		; CFileIO::Open
EXTRN	?Close@CFileIO@@UAEHXZ:PROC			; CFileIO::Close
EXTRN	?Read@CFileIO@@UAEPAXXZ:PROC			; CFileIO::Read
EXTRN	??_ECFileIO@@UAEPAXI@Z:PROC			; CFileIO::`vector deleting destructor'
EXTRN	?MakePath@@YA?AV?$CStringT@DV?$StrTraitMFC@DV?$ChTraitsCRT@D@ATL@@@@@ATL@@PBD0@Z:PROC ; MakePath
EXTRN	?GetFileName@@YAXPBDPAD@Z:PROC			; GetFileName
EXTRN	?Error@@YAPBDPBDZZ:PROC				; Error
EXTRN	?IsTouchRayTri@@YAHPBUD3DXVECTOR3@@0000PAM@Z:PROC ; IsTouchRayTri
EXTRN	?CalcSlideVec@@YAXPAUD3DXVECTOR3@@ABU1@1@Z:PROC	; CalcSlideVec
EXTRN	??0CMotion@@QAE@XZ:PROC				; CMotion::CMotion
EXTRN	??1CMotion@@QAE@XZ:PROC				; CMotion::~CMotion
EXTRN	?ReadTM@CMotion@@QAEXPAVCFileIO@@HH@Z:PROC	; CMotion::ReadTM
EXTRN	?CanSlide@@YAHABUD3DXVECTOR3@@00MPAU1@@Z:PROC	; CanSlide
EXTRN	@__security_check_cookie@4:PROC
EXTRN	__CxxThrowException@8:PROC
EXTRN	___CxxFrameHandler3:PROC
EXTRN	__libm_sse2_sqrt_precise:PROC
EXTRN	_memcpy:PROC
EXTRN	_memset:PROC
EXTRN	??_7type_info@@6B@:QWORD			; type_info::`vftable'
EXTRN	___security_cookie:DWORD
EXTRN	__fltused:DWORD
_BSS	SEGMENT
?g_Object3DMng@@3VCObject3DMng@@A DQ 01H DUP (?)	; g_Object3DMng
?_vPool@@3PAUD3DXVECTOR3@@A DB 0dc20H DUP (?)		; _vPool
_BSS	ENDS
CRT$XCU	SEGMENT
?g_Object3DMng$initializer$@@3P6AXXZA DD FLAT:??__Eg_Object3DMng@@YAXXZ ; g_Object3DMng$initializer$
CRT$XCU	ENDS
;	COMDAT __xmm@cdcdcdcdcdcdcdcdcdcdcdcdcdcdcdcd
CONST	SEGMENT
__xmm@cdcdcdcdcdcdcdcdcdcdcdcdcdcdcdcd DB 0cdH, 0cdH, 0cdH, 0cdH, 0cdH, 0cdH
	DB	0cdH, 0cdH, 0cdH, 0cdH, 0cdH, 0cdH, 0cdH, 0cdH, 0cdH, 0cdH
CONST	ENDS
;	COMDAT __xmm@80000000800000008000000080000000
CONST	SEGMENT
__xmm@80000000800000008000000080000000 DB 00H, 00H, 00H, 080H, 00H, 00H, 00H
	DB	080H, 00H, 00H, 00H, 080H, 00H, 00H, 00H, 080H
CONST	ENDS
;	COMDAT __xmm@7fffffffffffffff7fffffffffffffff
CONST	SEGMENT
__xmm@7fffffffffffffff7fffffffffffffff DB 0ffH, 0ffH, 0ffH, 0ffH, 0ffH, 0ffH
	DB	0ffH, 07fH, 0ffH, 0ffH, 0ffH, 0ffH, 0ffH, 0ffH, 0ffH, 07fH
CONST	ENDS
;	COMDAT __xmm@7fffffff7fffffff7fffffff7fffffff
CONST	SEGMENT
__xmm@7fffffff7fffffff7fffffff7fffffff DB 0ffH, 0ffH, 0ffH, 07fH, 0ffH, 0ffH
	DB	0ffH, 07fH, 0ffH, 0ffH, 0ffH, 07fH, 0ffH, 0ffH, 0ffH, 07fH
CONST	ENDS
;	COMDAT __real@477fff00
CONST	SEGMENT
__real@477fff00 DD 0477fff00r			; 65535
CONST	ENDS
;	COMDAT __real@40400000
CONST	SEGMENT
__real@40400000 DD 040400000r			; 3
CONST	ENDS
;	COMDAT __real@3f800000
CONST	SEGMENT
__real@3f800000 DD 03f800000r			; 1
CONST	ENDS
;	COMDAT __real@3f000000
CONST	SEGMENT
__real@3f000000 DD 03f000000r			; 0.5
CONST	ENDS
;	COMDAT __real@3e4ccccd
CONST	SEGMENT
__real@3e4ccccd DD 03e4ccccdr			; 0.2
CONST	ENDS
;	COMDAT __real@00000000
CONST	SEGMENT
__real@00000000 DD 000000000r			; 0
CONST	ENDS
;	COMDAT ??_C@_0DD@CLBMDIFP@IntersectRayTri?5?3?5?$LJ?v?E?X?$LN?$LK?$LJ?v?F?$NL?$MA?G?5@
CONST	SEGMENT
??_C@_0DD@CLBMDIFP@IntersectRayTri?5?3?5?$LJ?v?E?X?$LN?$LK?$LJ?v?F?$NL?$MA?G?5@ DB 'I'
	DB	'ntersectRayTri : ', 0b9H, 0f6H, 0c5H, 0d8H, 0bdH, 0baH, 0b9H, 0f6H
	DB	0c6H, 0dbH, 0c0H, 0c7H, ' ', 0b0H, 0b3H, 0bcH, 0f6H, 0b0H, 0a1H
	DB	' ', 0b3H, 0caH, 0b9H, 0abH, ' ', 0c5H, 0a9H, 0b4H, 0d9H, ' %d'
	DB	00H						; `string'
CONST	ENDS
;	COMDAT ??_C@_0CL@FLBENPCM@FindTouchTriLine?3?$LN?$LK?E?$LC?$LP?$MA?$LK?j?A?$KH?F?$KO?5?$LJ@
CONST	SEGMENT
??_C@_0CL@FLBENPCM@FindTouchTriLine?3?$LN?$LK?E?$LC?$LP?$MA?$LK?j?A?$KH?F?$KO?5?$LJ@ DB 'F'
	DB	'indTouchTriLine:', 0bdH, 0baH, 0c5H, 0b2H, 0bfH, 0c0H, 0baH, 0eaH
	DB	0c1H, 0a7H, 0c6H, 0aeH, ' ', 0b9H, 0dfH, 0b0H, 0dfH, '. ', 0bfH
	DB	0a1H, 0b7H, 0afH, '%s', 00H			; `string'
CONST	ENDS
;	COMDAT ??_C@_0EI@DEOEDIHF@CActionMover?3?3ProcessCollisionG@
CONST	SEGMENT
??_C@_0EI@DEOEDIHF@CActionMover?3?3ProcessCollisionG@ DB 'CActionMover::P'
	DB	'rocessCollisionGround : ', 0c3H, 0e6H, 0b5H, 0b9H, 0c7H, 0d1H
	DB	' ', 0b8H, 0e9H, 0c0H, 0c7H, ' ', 0b3H, 0ebH, 0b8H, 0bbH, 0c0H
	DB	0ccH, ' ', 0bfH, 0cfH, 0c0H, 0fcH, ' ', 0bcH, 0f6H, 0c1H, 0f7H
	DB	0c0H, 0ccH, 0b4H, 0d9H, 00H			; `string'
CONST	ENDS
;	COMDAT ??_C@_0CI@INGEON@SlideVectorXZ?3?$LN?$LK?E?$LC?$LP?$MA?$LK?j?A?$KH?F?$KO?5?$LJ?$NP?$LA?$NP@
CONST	SEGMENT
??_C@_0CI@INGEON@SlideVectorXZ?3?$LN?$LK?E?$LC?$LP?$MA?$LK?j?A?$KH?F?$KO?5?$LJ?$NP?$LA?$NP@ DB 'S'
	DB	'lideVectorXZ:', 0bdH, 0baH, 0c5H, 0b2H, 0bfH, 0c0H, 0baH, 0eaH
	DB	0c1H, 0a7H, 0c6H, 0aeH, ' ', 0b9H, 0dfH, 0b0H, 0dfH, '. ', 0bfH
	DB	0a1H, 0b7H, 0afH, '%s', 00H			; `string'
CONST	ENDS
;	COMDAT ??_C@_0CC@OPJGNFFN@?$LI?E?E?M?$LI?$KO?$LO?s?5?$LA?$LJ?$LM?v?$LA?$KB?532?$LA?$LD?$LI?$KG?5?$LD?Q?$LO?z?$LE?Y?4?5@
CONST	SEGMENT
??_C@_0CC@OPJGNFFN@?$LI?E?E?M?$LI?$KO?$LO?s?5?$LA?$LJ?$LM?v?$LA?$KB?532?$LA?$LD?$LI?$KG?5?$LD?Q?$LO?z?$LE?Y?4?5@ DB 0b8H
	DB	0c5H, 0c5H, 0cdH, 0b8H, 0aeH, 0beH, 0f3H, ' ', 0b0H, 0b9H, 0bcH
	DB	0f6H, 0b0H, 0a1H, ' 32', 0b0H, 0b3H, 0b8H, 0a6H, ' ', 0b3H, 0d1H
	DB	0beH, 0faH, 0b4H, 0d9H, '. %s', 00H		; `string'
CONST	ENDS
;	COMDAT ??_C@_0DB@PHDAAFJC@CObject3D?3?3LoadGeoMesh?$CI?$CJ?5?3?5?$CFs?$MA?G@
CONST	SEGMENT
??_C@_0DB@PHDAAFJC@CObject3D?3?3LoadGeoMesh?$CI?$CJ?5?3?5?$CFs?$MA?G@ DB 'C'
	DB	'Object3D::LoadGeoMesh() : %s', 0c0H, 0c7H, ' ', 0b1H, 0e6H, 0c0H
	DB	0ccH, 0b0H, 0a1H, ' ', 0b3H, 0caH, 0b9H, 0abH, ' ', 0b1H, 0e6H
	DB	0b4H, 0d9H, 00H				; `string'
CONST	ENDS
;	COMDAT ??_C@_0EC@CMDBPBHJ@CObject3D?3?3LoadGMObject?5?3?5?$CFs?5?E?X@
CONST	SEGMENT
??_C@_0EC@CMDBPBHJ@CObject3D?3?3LoadGMObject?5?3?5?$CFs?5?E?X@ DB 'CObjec'
	DB	't3D::LoadGMObject : %s ', 0c5H, 0d8H, 0bdH, 0baH, 0c3H, 0c4H, ' '
	DB	0c6H, 0c4H, 0c0H, 0cfH, 0b8H, 0edH, 0c0H, 0ccH, ' ', 0b3H, 0caH
	DB	0b9H, 0abH, 0b1H, 0e6H, 0b4H, 0d9H, ' : ', 0b1H, 0e6H, 0c0H, 0ccH
	DB	' = %d', 00H					; `string'
CONST	ENDS
;	COMDAT ??_C@_0CG@LLHAJNGA@LoadObject?5?3?5?$LI?$NO?$LI?p?$LI?$KO?5?$LP?$MA?$LJ?v?G?C?$LH?N?$LP?l?5@
CONST	SEGMENT
??_C@_0CG@LLHAJNGA@LoadObject?5?3?5?$LI?$NO?$LI?p?$LI?$KO?5?$LP?$MA?$LJ?v?G?C?$LH?N?$LP?l?5@ DB 'L'
	DB	'oadObject : ', 0b8H, 0deH, 0b8H, 0f0H, 0b8H, 0aeH, ' ', 0bfH, 0c0H
	DB	0b9H, 0f6H, 0c7H, 0c3H, 0b7H, 0ceH, 0bfH, 0ecH, ' %d, %d', 00H ; `string'
CONST	ENDS
;	COMDAT ??_C@_0DA@ENKKKOBI@?$LI?$NO?$LI?p?$LI?$KO?5?G?R?$LE?g?5?$LN?G?F?P?3CObject3D?3?3Loa@
CONST	SEGMENT
??_C@_0DA@ENKKKOBI@?$LI?$NO?$LI?p?$LI?$KO?5?G?R?$LE?g?5?$LN?G?F?P?3CObject3D?3?3Loa@ DB 0b8H
	DB	0deH, 0b8H, 0f0H, 0b8H, 0aeH, ' ', 0c7H, 0d2H, 0b4H, 0e7H, ' ', 0bdH
	DB	0c7H, 0c6H, 0d0H, ':CObject3D::LoadObject( %s ) %d', 00H ; `string'
CONST	ENDS
;	COMDAT ??_C@_0BP@GIAEKCLE@?$CFs?$MA?G?5?$LJ?v?$MA?$PM?$MA?$LK?5?$CFd?4?5?5?C?V?$LN?E?$LJ?v?$MA?$PM?$MA?$LK?5?$CFd@
CONST	SEGMENT
??_C@_0BP@GIAEKCLE@?$CFs?$MA?G?5?$LJ?v?$MA?$PM?$MA?$LK?5?$CFd?4?5?5?C?V?$LN?E?$LJ?v?$MA?$PM?$MA?$LK?5?$CFd@ DB '%'
	DB	's', 0c0H, 0c7H, ' ', 0b9H, 0f6H, 0c0H, 0fcH, 0c0H, 0baH, ' %d'
	DB	'.  ', 0c3H, 0d6H, 0bdH, 0c5H, 0b9H, 0f6H, 0c0H, 0fcH, 0c0H, 0baH
	DB	' %d', 00H					; `string'
CONST	ENDS
;	COMDAT ??_C@_0BJ@FJAKFGFC@?$MA?$NP?$LI?x?$LF?H?5?F?D?$MA?O?5?3?5?$CFs?0?5?$CFs?0?5?$CFs@
CONST	SEGMENT
??_C@_0BJ@FJAKFGFC@?$MA?$NP?$LI?x?$LF?H?5?F?D?$MA?O?5?3?5?$CFs?0?5?$CFs?0?5?$CFs@ DB 0c0H
	DB	0dfH, 0b8H, 0f8H, 0b5H, 0c8H, ' ', 0c6H, 0c4H, 0c0H, 0cfH, ' :'
	DB	' %s, %s, %s', 00H				; `string'
CONST	ENDS
;	COMDAT ??_C@_0CI@PCDMIADN@LoadObject3D?5?3?5?$CFs?5?F?D?$MA?O?$LI?m?$MA?L?5?$LD?J?$LJ?$KL@
CONST	SEGMENT
??_C@_0CI@PCDMIADN@LoadObject3D?5?3?5?$CFs?5?F?D?$MA?O?$LI?m?$MA?L?5?$LD?J?$LJ?$KL@ DB 'L'
	DB	'oadObject3D : %s ', 0c6H, 0c4H, 0c0H, 0cfH, 0b8H, 0edH, 0c0H, 0ccH
	DB	' ', 0b3H, 0caH, 0b9H, 0abH, ' ', 0b1H, 0e6H, 0b4H, 0d9H, ' %d'
	DB	00H						; `string'
CONST	ENDS
;	COMDAT ??_C@_06IJGEHPBH@Model?2@
CONST	SEGMENT
??_C@_06IJGEHPBH@Model?2@ DB 'Model\', 00H		; `string'
CONST	ENDS
;	COMDAT ??_C@_0BN@MFAGAFAH@IsAnimateFile?5?3?5?$CFs?5?$MA?P?$LB?b?5?$LN?G?F?P@
CONST	SEGMENT
??_C@_0BN@MFAGAFAH@IsAnimateFile?5?3?5?$CFs?5?$MA?P?$LB?b?5?$LN?G?F?P@ DB 'I'
	DB	'sAnimateFile : %s ', 0c0H, 0d0H, 0b1H, 0e2H, ' ', 0bdH, 0c7H, 0c6H
	DB	0d0H, 00H					; `string'
CONST	ENDS
;	COMDAT ??_C@_02JDPG@rb@
CONST	SEGMENT
??_C@_02JDPG@rb@ DB 'rb', 00H				; `string'
CONST	ENDS
;	COMDAT ??_R1A@?0A@EA@CFileIO@@8
rdata$r	SEGMENT
??_R1A@?0A@EA@CFileIO@@8 DD FLAT:??_R0?AVCFileIO@@@8	; CFileIO::`RTTI Base Class Descriptor at (0,-1,0,64)'
	DD	00H
	DD	00H
	DD	0ffffffffH
	DD	00H
	DD	040H
	DD	FLAT:??_R3CFileIO@@8
rdata$r	ENDS
;	COMDAT ??_R2CFileIO@@8
rdata$r	SEGMENT
??_R2CFileIO@@8 DD FLAT:??_R1A@?0A@EA@CFileIO@@8	; CFileIO::`RTTI Base Class Array'
rdata$r	ENDS
;	COMDAT ??_R3CFileIO@@8
rdata$r	SEGMENT
??_R3CFileIO@@8 DD 00H					; CFileIO::`RTTI Class Hierarchy Descriptor'
	DD	00H
	DD	01H
	DD	FLAT:??_R2CFileIO@@8
rdata$r	ENDS
;	COMDAT ??_R0?AVCFileIO@@@8
data$rs	SEGMENT
??_R0?AVCFileIO@@@8 DD FLAT:??_7type_info@@6B@		; CFileIO `RTTI Type Descriptor'
	DD	00H
	DB	'.?AVCFileIO@@', 00H
data$rs	ENDS
;	COMDAT ??_R4CFileIO@@6B@
rdata$r	SEGMENT
??_R4CFileIO@@6B@ DD 00H				; CFileIO::`RTTI Complete Object Locator'
	DD	00H
	DD	00H
	DD	FLAT:??_R0?AVCFileIO@@@8
	DD	FLAT:??_R3CFileIO@@8
rdata$r	ENDS
;	COMDAT ??_R4bad_alloc@std@@6B@
rdata$r	SEGMENT
??_R4bad_alloc@std@@6B@ DD 00H				; std::bad_alloc::`RTTI Complete Object Locator'
	DD	00H
	DD	00H
	DD	FLAT:??_R0?AVbad_alloc@std@@@8
	DD	FLAT:??_R3bad_alloc@std@@8
rdata$r	ENDS
;	COMDAT ??_R2bad_alloc@std@@8
rdata$r	SEGMENT
??_R2bad_alloc@std@@8 DD FLAT:??_R1A@?0A@EA@bad_alloc@std@@8 ; std::bad_alloc::`RTTI Base Class Array'
	DD	FLAT:??_R1A@?0A@EA@exception@std@@8
rdata$r	ENDS
;	COMDAT ??_R3bad_alloc@std@@8
rdata$r	SEGMENT
??_R3bad_alloc@std@@8 DD 00H				; std::bad_alloc::`RTTI Class Hierarchy Descriptor'
	DD	00H
	DD	02H
	DD	FLAT:??_R2bad_alloc@std@@8
rdata$r	ENDS
;	COMDAT ??_R1A@?0A@EA@bad_alloc@std@@8
rdata$r	SEGMENT
??_R1A@?0A@EA@bad_alloc@std@@8 DD FLAT:??_R0?AVbad_alloc@std@@@8 ; std::bad_alloc::`RTTI Base Class Descriptor at (0,-1,0,64)'
	DD	01H
	DD	00H
	DD	0ffffffffH
	DD	00H
	DD	040H
	DD	FLAT:??_R3bad_alloc@std@@8
rdata$r	ENDS
;	COMDAT ??_R1A@?0A@EA@bad_array_new_length@std@@8
rdata$r	SEGMENT
??_R1A@?0A@EA@bad_array_new_length@std@@8 DD FLAT:??_R0?AVbad_array_new_length@std@@@8 ; std::bad_array_new_length::`RTTI Base Class Descriptor at (0,-1,0,64)'
	DD	02H
	DD	00H
	DD	0ffffffffH
	DD	00H
	DD	040H
	DD	FLAT:??_R3bad_array_new_length@std@@8
rdata$r	ENDS
;	COMDAT ??_R2bad_array_new_length@std@@8
rdata$r	SEGMENT
??_R2bad_array_new_length@std@@8 DD FLAT:??_R1A@?0A@EA@bad_array_new_length@std@@8 ; std::bad_array_new_length::`RTTI Base Class Array'
	DD	FLAT:??_R1A@?0A@EA@bad_alloc@std@@8
	DD	FLAT:??_R1A@?0A@EA@exception@std@@8
rdata$r	ENDS
;	COMDAT ??_R3bad_array_new_length@std@@8
rdata$r	SEGMENT
??_R3bad_array_new_length@std@@8 DD 00H			; std::bad_array_new_length::`RTTI Class Hierarchy Descriptor'
	DD	00H
	DD	03H
	DD	FLAT:??_R2bad_array_new_length@std@@8
rdata$r	ENDS
;	COMDAT ??_R4bad_array_new_length@std@@6B@
rdata$r	SEGMENT
??_R4bad_array_new_length@std@@6B@ DD 00H		; std::bad_array_new_length::`RTTI Complete Object Locator'
	DD	00H
	DD	00H
	DD	FLAT:??_R0?AVbad_array_new_length@std@@@8
	DD	FLAT:??_R3bad_array_new_length@std@@8
rdata$r	ENDS
;	COMDAT ??_R1A@?0A@EA@exception@std@@8
rdata$r	SEGMENT
??_R1A@?0A@EA@exception@std@@8 DD FLAT:??_R0?AVexception@std@@@8 ; std::exception::`RTTI Base Class Descriptor at (0,-1,0,64)'
	DD	00H
	DD	00H
	DD	0ffffffffH
	DD	00H
	DD	040H
	DD	FLAT:??_R3exception@std@@8
rdata$r	ENDS
;	COMDAT ??_R2exception@std@@8
rdata$r	SEGMENT
??_R2exception@std@@8 DD FLAT:??_R1A@?0A@EA@exception@std@@8 ; std::exception::`RTTI Base Class Array'
rdata$r	ENDS
;	COMDAT ??_R3exception@std@@8
rdata$r	SEGMENT
??_R3exception@std@@8 DD 00H				; std::exception::`RTTI Class Hierarchy Descriptor'
	DD	00H
	DD	01H
	DD	FLAT:??_R2exception@std@@8
rdata$r	ENDS
;	COMDAT ??_R4exception@std@@6B@
rdata$r	SEGMENT
??_R4exception@std@@6B@ DD 00H				; std::exception::`RTTI Complete Object Locator'
	DD	00H
	DD	00H
	DD	FLAT:??_R0?AVexception@std@@@8
	DD	FLAT:??_R3exception@std@@8
rdata$r	ENDS
_DATA	SEGMENT
?g_mReflect@@3UD3DXMATRIX@@A DD 03f000000r	; 0.5	; g_mReflect
	DD	000000000r			; 0
	DD	000000000r			; 0
	DD	000000000r			; 0
	DD	000000000r			; 0
	DD	0bf000000r			; -0.5
	DD	000000000r			; 0
	DD	000000000r			; 0
	DD	000000000r			; 0
	DD	000000000r			; 0
	DD	03f800000r			; 1
	DD	000000000r			; 0
	DD	03f000000r			; 0.5
	DD	03f000000r			; 0.5
	DD	000000000r			; 0
	DD	03f800000r			; 1
_DATA	ENDS
;	COMDAT ??_7CFileIO@@6B@
CONST	SEGMENT
??_7CFileIO@@6B@ DD FLAT:??_R4CFileIO@@6B@		; CFileIO::`vftable'
	DD	FLAT:??_ECFileIO@@UAEPAXI@Z
	DD	FLAT:?Open@CFileIO@@UAEHPBDPAD@Z
	DD	FLAT:?Close@CFileIO@@UAEHXZ
	DD	FLAT:?Flush@CFileIO@@UAEHXZ
	DD	FLAT:?GetC@CFileIO@@UAEDXZ
	DD	FLAT:?GetW@CFileIO@@UAEGXZ
	DD	FLAT:?GetDW@CFileIO@@UAEKXZ
	DD	FLAT:?Tell@CFileIO@@UAEJXZ
	DD	FLAT:?Seek@CFileIO@@UAEHJH@Z
	DD	FLAT:?GetLength@CFileIO@@UAEJXZ
	DD	FLAT:?Read@CFileIO@@UAEPAXXZ
	DD	FLAT:?Read@CFileIO@@UAEIPAXII@Z
CONST	ENDS
;	COMDAT ??_C@_0BB@GCADKGJO@map?1set?5too?5long@
CONST	SEGMENT
??_C@_0BB@GCADKGJO@map?1set?5too?5long@ DB 'map/set too long', 00H ; `string'
CONST	ENDS
;	COMDAT ??_C@_0BA@JFNIOLAK@string?5too?5long@
CONST	SEGMENT
??_C@_0BA@JFNIOLAK@string?5too?5long@ DB 'string too long', 00H ; `string'
CONST	ENDS
;	COMDAT __CT??_R0?AVbad_alloc@std@@@8??0bad_alloc@std@@QAE@ABV01@@Z12
xdata$x	SEGMENT
__CT??_R0?AVbad_alloc@std@@@8??0bad_alloc@std@@QAE@ABV01@@Z12 DD 010H
	DD	FLAT:??_R0?AVbad_alloc@std@@@8
	DD	00H
	DD	0ffffffffH
	ORG $+4
	DD	0cH
	DD	FLAT:??0bad_alloc@std@@QAE@ABV01@@Z
xdata$x	ENDS
;	COMDAT ??_R0?AVbad_alloc@std@@@8
data$r	SEGMENT
??_R0?AVbad_alloc@std@@@8 DD FLAT:??_7type_info@@6B@	; std::bad_alloc `RTTI Type Descriptor'
	DD	00H
	DB	'.?AVbad_alloc@std@@', 00H
data$r	ENDS
;	COMDAT __CT??_R0?AVbad_array_new_length@std@@@8??0bad_array_new_length@std@@QAE@ABV01@@Z12
xdata$x	SEGMENT
__CT??_R0?AVbad_array_new_length@std@@@8??0bad_array_new_length@std@@QAE@ABV01@@Z12 DD 00H
	DD	FLAT:??_R0?AVbad_array_new_length@std@@@8
	DD	00H
	DD	0ffffffffH
	ORG $+4
	DD	0cH
	DD	FLAT:??0bad_array_new_length@std@@QAE@ABV01@@Z
xdata$x	ENDS
;	COMDAT ??_R0?AVbad_array_new_length@std@@@8
data$r	SEGMENT
??_R0?AVbad_array_new_length@std@@@8 DD FLAT:??_7type_info@@6B@ ; std::bad_array_new_length `RTTI Type Descriptor'
	DD	00H
	DB	'.?AVbad_array_new_length@std@@', 00H
data$r	ENDS
;	COMDAT __CTA3?AVbad_array_new_length@std@@
xdata$x	SEGMENT
__CTA3?AVbad_array_new_length@std@@ DD 03H
	DD	FLAT:__CT??_R0?AVbad_array_new_length@std@@@8??0bad_array_new_length@std@@QAE@ABV01@@Z12
	DD	FLAT:__CT??_R0?AVbad_alloc@std@@@8??0bad_alloc@std@@QAE@ABV01@@Z12
	DD	FLAT:__CT??_R0?AVexception@std@@@8??0exception@std@@QAE@ABV01@@Z12
xdata$x	ENDS
;	COMDAT __TI3?AVbad_array_new_length@std@@
xdata$x	SEGMENT
__TI3?AVbad_array_new_length@std@@ DD 00H
	DD	FLAT:??1bad_array_new_length@std@@UAE@XZ
	DD	00H
	DD	FLAT:__CTA3?AVbad_array_new_length@std@@
xdata$x	ENDS
;	COMDAT __CT??_R0?AVexception@std@@@8??0exception@std@@QAE@ABV01@@Z12
xdata$x	SEGMENT
__CT??_R0?AVexception@std@@@8??0exception@std@@QAE@ABV01@@Z12 DD 00H
	DD	FLAT:??_R0?AVexception@std@@@8
	DD	00H
	DD	0ffffffffH
	ORG $+4
	DD	0cH
	DD	FLAT:??0exception@std@@QAE@ABV01@@Z
xdata$x	ENDS
;	COMDAT ??_R0?AVexception@std@@@8
data$r	SEGMENT
??_R0?AVexception@std@@@8 DD FLAT:??_7type_info@@6B@	; std::exception `RTTI Type Descriptor'
	DD	00H
	DB	'.?AVexception@std@@', 00H
data$r	ENDS
;	COMDAT ??_C@_0BF@KINCDENJ@bad?5array?5new?5length@
CONST	SEGMENT
??_C@_0BF@KINCDENJ@bad?5array?5new?5length@ DB 'bad array new length', 00H ; `string'
CONST	ENDS
;	COMDAT ??_7bad_array_new_length@std@@6B@
CONST	SEGMENT
??_7bad_array_new_length@std@@6B@ DD FLAT:??_R4bad_array_new_length@std@@6B@ ; std::bad_array_new_length::`vftable'
	DD	FLAT:??_Ebad_array_new_length@std@@UAEPAXI@Z
	DD	FLAT:?what@exception@std@@UBEPBDXZ
CONST	ENDS
;	COMDAT ??_7bad_alloc@std@@6B@
CONST	SEGMENT
??_7bad_alloc@std@@6B@ DD FLAT:??_R4bad_alloc@std@@6B@	; std::bad_alloc::`vftable'
	DD	FLAT:??_Ebad_alloc@std@@UAEPAXI@Z
	DD	FLAT:?what@exception@std@@UBEPBDXZ
CONST	ENDS
;	COMDAT ??_C@_0BC@EOODALEL@Unknown?5exception@
CONST	SEGMENT
??_C@_0BC@EOODALEL@Unknown?5exception@ DB 'Unknown exception', 00H ; `string'
CONST	ENDS
;	COMDAT ??_7exception@std@@6B@
CONST	SEGMENT
??_7exception@std@@6B@ DD FLAT:??_R4exception@std@@6B@	; std::exception::`vftable'
	DD	FLAT:??_Eexception@std@@UAEPAXI@Z
	DD	FLAT:?what@exception@std@@UBEPBDXZ
CONST	ENDS
;	COMDAT xdata$x
xdata$x	SEGMENT
__unwindtable$??$?0U?$pair@$$CBV?$basic_string@DU?$char_traits@D@std@@V?$allocator@D@2@@std@@PAVCObject3D@@@std@@@?$_Tree_temp_node@V?$allocator@U?$_Tree_node@U?$pair@$$CBV?$basic_string@DU?$char_traits@D@std@@V?$allocator@D@2@@std@@PAVCObject3D@@@std@@PAX@std@@@std@@@std@@QAE@AAV?$allocator@U?$_Tree_node@U?$pair@$$CBV?$basic_string@DU?$char_traits@D@std@@V?$allocator@D@2@@std@@PAVCObject3D@@@std@@PAX@std@@@1@PAU?$_Tree_node@U?$pair@$$CBV?$basic_string@DU?$char_traits@D@std@@V?$allocator@D@2@@std@@PAVCObject3D@@@std@@PAX@1@$$QAU?$pair@$$CBV?$basic_string@DU?$char_traits@D@std@@V?$allocator@D@2@@std@@PAVCObject3D@@@1@@Z DD 0ffffffffH
	DD	FLAT:__unwindfunclet$??$?0U?$pair@$$CBV?$basic_string@DU?$char_traits@D@std@@V?$allocator@D@2@@std@@PAVCObject3D@@@std@@@?$_Tree_temp_node@V?$allocator@U?$_Tree_node@U?$pair@$$CBV?$basic_string@DU?$char_traits@D@std@@V?$allocator@D@2@@std@@PAVCObject3D@@@std@@PAX@std@@@std@@@std@@QAE@AAV?$allocator@U?$_Tree_node@U?$pair@$$CBV?$basic_string@DU?$char_traits@D@std@@V?$allocator@D@2@@std@@PAVCObject3D@@@std@@PAX@std@@@1@PAU?$_Tree_node@U?$pair@$$CBV?$basic_string@DU?$char_traits@D@std@@V?$allocator@D@2@@std@@PAVCObject3D@@@std@@PAX@1@$$QAU?$pair@$$CBV?$basic_string@DU?$char_traits@D@std@@V?$allocator@D@2@@std@@PAVCObject3D@@@1@@Z$1
	DD	0ffffffffH
	DD	FLAT:__unwindfunclet$??$?0U?$pair@$$CBV?$basic_string@DU?$char_traits@D@std@@V?$allocator@D@2@@std@@PAVCObject3D@@@std@@@?$_Tree_temp_node@V?$allocator@U?$_Tree_node@U?$pair@$$CBV?$basic_string@DU?$char_traits@D@std@@V?$allocator@D@2@@std@@PAVCObject3D@@@std@@PAX@std@@@std@@@std@@QAE@AAV?$allocator@U?$_Tree_node@U?$pair@$$CBV?$basic_string@DU?$char_traits@D@std@@V?$allocator@D@2@@std@@PAVCObject3D@@@std@@PAX@std@@@1@PAU?$_Tree_node@U?$pair@$$CBV?$basic_string@DU?$char_traits@D@std@@V?$allocator@D@2@@std@@PAVCObject3D@@@std@@PAX@1@$$QAU?$pair@$$CBV?$basic_string@DU?$char_traits@D@std@@V?$allocator@D@2@@std@@PAVCObject3D@@@1@@Z$0
__ehfuncinfo$??$?0U?$pair@$$CBV?$basic_string@DU?$char_traits@D@std@@V?$allocator@D@2@@std@@PAVCObject3D@@@std@@@?$_Tree_temp_node@V?$allocator@U?$_Tree_node@U?$pair@$$CBV?$basic_string@DU?$char_traits@D@std@@V?$allocator@D@2@@std@@PAVCObject3D@@@std@@PAX@std@@@std@@@std@@QAE@AAV?$allocator@U?$_Tree_node@U?$pair@$$CBV?$basic_string@DU?$char_traits@D@std@@V?$allocator@D@2@@std@@PAVCObject3D@@@std@@PAX@std@@@1@PAU?$_Tree_node@U?$pair@$$CBV?$basic_string@DU?$char_traits@D@std@@V?$allocator@D@2@@std@@PAVCObject3D@@@std@@PAX@1@$$QAU?$pair@$$CBV?$basic_string@DU?$char_traits@D@std@@V?$allocator@D@2@@std@@PAVCObject3D@@@1@@Z DD 019930522H
	DD	02H
	DD	FLAT:__unwindtable$??$?0U?$pair@$$CBV?$basic_string@DU?$char_traits@D@std@@V?$allocator@D@2@@std@@PAVCObject3D@@@std@@@?$_Tree_temp_node@V?$allocator@U?$_Tree_node@U?$pair@$$CBV?$basic_string@DU?$char_traits@D@std@@V?$allocator@D@2@@std@@PAVCObject3D@@@std@@PAX@std@@@std@@@std@@QAE@AAV?$allocator@U?$_Tree_node@U?$pair@$$CBV?$basic_string@DU?$char_traits@D@std@@V?$allocator@D@2@@std@@PAVCObject3D@@@std@@PAX@std@@@1@PAU?$_Tree_node@U?$pair@$$CBV?$basic_string@DU?$char_traits@D@std@@V?$allocator@D@2@@std@@PAVCObject3D@@@std@@PAX@1@$$QAU?$pair@$$CBV?$basic_string@DU?$char_traits@D@std@@V?$allocator@D@2@@std@@PAVCObject3D@@@1@@Z
	DD	2 DUP(00H)
	DD	2 DUP(00H)
	DD	00H
	DD	01H
xdata$x	ENDS
;	COMDAT xdata$x
xdata$x	SEGMENT
__unwindtable$??0?$_Tree_temp_node_alloc@V?$allocator@U?$_Tree_node@U?$pair@$$CBV?$basic_string@DU?$char_traits@D@std@@V?$allocator@D@2@@std@@PAVCObject3D@@@std@@PAX@std@@@std@@@std@@QAE@AAV?$allocator@U?$_Tree_node@U?$pair@$$CBV?$basic_string@DU?$char_traits@D@std@@V?$allocator@D@2@@std@@PAVCObject3D@@@std@@PAX@std@@@1@@Z DD 0ffffffffH
	DD	FLAT:__unwindfunclet$??0?$_Tree_temp_node_alloc@V?$allocator@U?$_Tree_node@U?$pair@$$CBV?$basic_string@DU?$char_traits@D@std@@V?$allocator@D@2@@std@@PAVCObject3D@@@std@@PAX@std@@@std@@@std@@QAE@AAV?$allocator@U?$_Tree_node@U?$pair@$$CBV?$basic_string@DU?$char_traits@D@std@@V?$allocator@D@2@@std@@PAVCObject3D@@@std@@PAX@std@@@1@@Z$0
__ehfuncinfo$??0?$_Tree_temp_node_alloc@V?$allocator@U?$_Tree_node@U?$pair@$$CBV?$basic_string@DU?$char_traits@D@std@@V?$allocator@D@2@@std@@PAVCObject3D@@@std@@PAX@std@@@std@@@std@@QAE@AAV?$allocator@U?$_Tree_node@U?$pair@$$CBV?$basic_string@DU?$char_traits@D@std@@V?$allocator@D@2@@std@@PAVCObject3D@@@std@@PAX@std@@@1@@Z DD 019930522H
	DD	01H
	DD	FLAT:__unwindtable$??0?$_Tree_temp_node_alloc@V?$allocator@U?$_Tree_node@U?$pair@$$CBV?$basic_string@DU?$char_traits@D@std@@V?$allocator@D@2@@std@@PAVCObject3D@@@std@@PAX@std@@@std@@@std@@QAE@AAV?$allocator@U?$_Tree_node@U?$pair@$$CBV?$basic_string@DU?$char_traits@D@std@@V?$allocator@D@2@@std@@PAVCObject3D@@@std@@PAX@std@@@1@@Z
	DD	2 DUP(00H)
	DD	2 DUP(00H)
	DD	00H
	DD	01H
xdata$x	ENDS
;	COMDAT xdata$x
xdata$x	SEGMENT
__unwindtable$??$_Emplace@U?$pair@$$CBV?$basic_string@DU?$char_traits@D@std@@V?$allocator@D@2@@std@@PAVCObject3D@@@std@@@?$_Tree@V?$_Tmap_traits@V?$basic_string@DU?$char_traits@D@std@@V?$allocator@D@2@@std@@PAVCObject3D@@U?$less@V?$basic_string@DU?$char_traits@D@std@@V?$allocator@D@2@@std@@@2@V?$allocator@U?$pair@$$CBV?$basic_string@DU?$char_traits@D@std@@V?$allocator@D@2@@std@@PAVCObject3D@@@std@@@2@$0A@@std@@@std@@IAE?AU?$pair@PAU?$_Tree_node@U?$pair@$$CBV?$basic_string@DU?$char_traits@D@std@@V?$allocator@D@2@@std@@PAVCObject3D@@@std@@PAX@std@@_N@1@$$QAU?$pair@$$CBV?$basic_string@DU?$char_traits@D@std@@V?$allocator@D@2@@std@@PAVCObject3D@@@1@@Z DD 0ffffffffH
	DD	FLAT:__unwindfunclet$??$_Emplace@U?$pair@$$CBV?$basic_string@DU?$char_traits@D@std@@V?$allocator@D@2@@std@@PAVCObject3D@@@std@@@?$_Tree@V?$_Tmap_traits@V?$basic_string@DU?$char_traits@D@std@@V?$allocator@D@2@@std@@PAVCObject3D@@U?$less@V?$basic_string@DU?$char_traits@D@std@@V?$allocator@D@2@@std@@@2@V?$allocator@U?$pair@$$CBV?$basic_string@DU?$char_traits@D@std@@V?$allocator@D@2@@std@@PAVCObject3D@@@std@@@2@$0A@@std@@@std@@IAE?AU?$pair@PAU?$_Tree_node@U?$pair@$$CBV?$basic_string@DU?$char_traits@D@std@@V?$allocator@D@2@@std@@PAVCObject3D@@@std@@PAX@std@@_N@1@$$QAU?$pair@$$CBV?$basic_string@DU?$char_traits@D@std@@V?$allocator@D@2@@std@@PAVCObject3D@@@1@@Z$2
	DD	0ffffffffH
	DD	FLAT:__unwindfunclet$??$_Emplace@U?$pair@$$CBV?$basic_string@DU?$char_traits@D@std@@V?$allocator@D@2@@std@@PAVCObject3D@@@std@@@?$_Tree@V?$_Tmap_traits@V?$basic_string@DU?$char_traits@D@std@@V?$allocator@D@2@@std@@PAVCObject3D@@U?$less@V?$basic_string@DU?$char_traits@D@std@@V?$allocator@D@2@@std@@@2@V?$allocator@U?$pair@$$CBV?$basic_string@DU?$char_traits@D@std@@V?$allocator@D@2@@std@@PAVCObject3D@@@std@@@2@$0A@@std@@@std@@IAE?AU?$pair@PAU?$_Tree_node@U?$pair@$$CBV?$basic_string@DU?$char_traits@D@std@@V?$allocator@D@2@@std@@PAVCObject3D@@@std@@PAX@std@@_N@1@$$QAU?$pair@$$CBV?$basic_string@DU?$char_traits@D@std@@V?$allocator@D@2@@std@@PAVCObject3D@@@1@@Z$1
__ehfuncinfo$??$_Emplace@U?$pair@$$CBV?$basic_string@DU?$char_traits@D@std@@V?$allocator@D@2@@std@@PAVCObject3D@@@std@@@?$_Tree@V?$_Tmap_traits@V?$basic_string@DU?$char_traits@D@std@@V?$allocator@D@2@@std@@PAVCObject3D@@U?$less@V?$basic_string@DU?$char_traits@D@std@@V?$allocator@D@2@@std@@@2@V?$allocator@U?$pair@$$CBV?$basic_string@DU?$char_traits@D@std@@V?$allocator@D@2@@std@@PAVCObject3D@@@std@@@2@$0A@@std@@@std@@IAE?AU?$pair@PAU?$_Tree_node@U?$pair@$$CBV?$basic_string@DU?$char_traits@D@std@@V?$allocator@D@2@@std@@PAVCObject3D@@@std@@PAX@std@@_N@1@$$QAU?$pair@$$CBV?$basic_string@DU?$char_traits@D@std@@V?$allocator@D@2@@std@@PAVCObject3D@@@1@@Z DD 019930522H
	DD	02H
	DD	FLAT:__unwindtable$??$_Emplace@U?$pair@$$CBV?$basic_string@DU?$char_traits@D@std@@V?$allocator@D@2@@std@@PAVCObject3D@@@std@@@?$_Tree@V?$_Tmap_traits@V?$basic_string@DU?$char_traits@D@std@@V?$allocator@D@2@@std@@PAVCObject3D@@U?$less@V?$basic_string@DU?$char_traits@D@std@@V?$allocator@D@2@@std@@@2@V?$allocator@U?$pair@$$CBV?$basic_string@DU?$char_traits@D@std@@V?$allocator@D@2@@std@@PAVCObject3D@@@std@@@2@$0A@@std@@@std@@IAE?AU?$pair@PAU?$_Tree_node@U?$pair@$$CBV?$basic_string@DU?$char_traits@D@std@@V?$allocator@D@2@@std@@PAVCObject3D@@@std@@PAX@std@@_N@1@$$QAU?$pair@$$CBV?$basic_string@DU?$char_traits@D@std@@V?$allocator@D@2@@std@@PAVCObject3D@@@1@@Z
	DD	2 DUP(00H)
	DD	2 DUP(00H)
	DD	00H
	DD	01H
xdata$x	ENDS
;	COMDAT xdata$x
xdata$x	SEGMENT
__unwindtable$?LoadObject3D@CObject3DMng@@QAEPAVCObject3D@@PAUIDirect3DDevice9@@PBD@Z DD 0ffffffffH
	DD	FLAT:__unwindfunclet$?LoadObject3D@CObject3DMng@@QAEPAVCObject3D@@PAUIDirect3DDevice9@@PBD@Z$2
__ehfuncinfo$?LoadObject3D@CObject3DMng@@QAEPAVCObject3D@@PAUIDirect3DDevice9@@PBD@Z DD 019930522H
	DD	01H
	DD	FLAT:__unwindtable$?LoadObject3D@CObject3DMng@@QAEPAVCObject3D@@PAUIDirect3DDevice9@@PBD@Z
	DD	2 DUP(00H)
	DD	2 DUP(00H)
	DD	00H
	DD	01H
xdata$x	ENDS
;	COMDAT xdata$x
xdata$x	SEGMENT
__ehfuncinfo$??1CObject3DMng@@QAE@XZ DD 019930522H
	DD	00H
	DD	00H
	DD	2 DUP(00H)
	DD	2 DUP(00H)
	DD	00H
	DD	05H
xdata$x	ENDS
;	COMDAT xdata$x
xdata$x	SEGMENT
__unwindtable$?IsAnimateFile@CObject3D@@SAHPBD@Z DD 0ffffffffH
	DD	FLAT:__unwindfunclet$?IsAnimateFile@CObject3D@@SAHPBD@Z$0
	DD	0ffffffffH
	DD	00H
	DD	0ffffffffH
	DD	FLAT:___std_terminate
__ehfuncinfo$?IsAnimateFile@CObject3D@@SAHPBD@Z DD 019930522H
	DD	03H
	DD	FLAT:__unwindtable$?IsAnimateFile@CObject3D@@SAHPBD@Z
	DD	2 DUP(00H)
	DD	2 DUP(00H)
	DD	00H
	DD	01H
xdata$x	ENDS
;	COMDAT xdata$x
xdata$x	SEGMENT
__ehfuncinfo$?LoadObject@CObject3D@@QAEHPBD@Z DD 019930522H
	DD	08H
	DD	FLAT:__unwindtable$?LoadObject@CObject3D@@QAEHPBD@Z
	DD	2 DUP(00H)
	DD	2 DUP(00H)
	DD	00H
	DD	01H
__unwindtable$?LoadObject@CObject3D@@QAEHPBD@Z DD 0ffffffffH
	DD	FLAT:__unwindfunclet$?LoadObject@CObject3D@@QAEHPBD@Z$0
	DD	00H
	DD	FLAT:__unwindfunclet$?LoadObject@CObject3D@@QAEHPBD@Z$1
	DD	0ffffffffH
	DD	FLAT:___std_terminate
	DD	0ffffffffH
	DD	FLAT:___std_terminate
	DD	0ffffffffH
	DD	FLAT:___std_terminate
	DD	0ffffffffH
	DD	FLAT:___std_terminate
	DD	00H
	DD	FLAT:__unwindfunclet$?LoadObject@CObject3D@@QAEHPBD@Z$3
	DD	0ffffffffH
	DD	FLAT:___std_terminate
xdata$x	ENDS
;	COMDAT xdata$x
xdata$x	SEGMENT
__ehfuncinfo$??1CObject3D@@QAE@XZ DD 019930522H
	DD	00H
	DD	00H
	DD	2 DUP(00H)
	DD	2 DUP(00H)
	DD	00H
	DD	05H
xdata$x	ENDS
;	COMDAT xdata$x
xdata$x	SEGMENT
__unwindtable$??_GCFileIO@@UAEPAXI@Z DD 0ffffffffH
	DD	FLAT:___std_terminate
__ehfuncinfo$??_GCFileIO@@UAEPAXI@Z DD 019930522H
	DD	01H
	DD	FLAT:__unwindtable$??_GCFileIO@@UAEPAXI@Z
	DD	2 DUP(00H)
	DD	2 DUP(00H)
	DD	00H
	DD	05H
xdata$x	ENDS
;	COMDAT xdata$x
xdata$x	SEGMENT
__ehfuncinfo$??1CFileIO@@UAE@XZ DD 019930522H
	DD	00H
	DD	00H
	DD	2 DUP(00H)
	DD	2 DUP(00H)
	DD	00H
	DD	05H
xdata$x	ENDS
; Function compile flags: /Ogtp
; File C:\Program Files\Microsoft Visual Studio\2022\Professional\VC\Tools\MSVC\14.44.35207\include\xmemory
;	COMDAT ??1?$_Tree_temp_node_alloc@V?$allocator@U?$_Tree_node@U?$pair@$$CBV?$basic_string@DU?$char_traits@D@std@@V?$allocator@D@2@@std@@PAVCObject3D@@@std@@PAX@std@@@std@@@std@@QAE@XZ
_TEXT	SEGMENT
??1?$_Tree_temp_node_alloc@V?$allocator@U?$_Tree_node@U?$pair@$$CBV?$basic_string@DU?$char_traits@D@std@@V?$allocator@D@2@@std@@PAVCObject3D@@@std@@PAX@std@@@std@@@std@@QAE@XZ PROC ; std::_Tree_temp_node_alloc<std::allocator<std::_Tree_node<std::pair<std::basic_string<char,std::char_traits<char>,std::allocator<char> > const ,CObject3D *>,void *> > >::~_Tree_temp_node_alloc<std::allocator<std::_Tree_node<std::pair<std::basic_string<char,std::char_traits<char>,std::allocator<char> > const ,CObject3D *>,void *> > >, COMDAT
; _this$ = ecx

; 1172 :         if (_Ptr) {

  00000	8b 41 04	 mov	 eax, DWORD PTR [ecx+4]
  00003	85 c0		 test	 eax, eax
  00005	74 0b		 je	 SHORT $LN13@Tree_temp_

; 289  :         ::operator delete(_Ptr, _Bytes);

  00007	6a 2c		 push	 44			; 0000002cH
  00009	50		 push	 eax
  0000a	e8 00 00 00 00	 call	 ??3@YAXPAXI@Z		; operator delete
  0000f	83 c4 08	 add	 esp, 8
$LN13@Tree_temp_:
  00012	c3		 ret	 0
??1?$_Tree_temp_node_alloc@V?$allocator@U?$_Tree_node@U?$pair@$$CBV?$basic_string@DU?$char_traits@D@std@@V?$allocator@D@2@@std@@PAVCObject3D@@@std@@PAX@std@@@std@@@std@@QAE@XZ ENDP ; std::_Tree_temp_node_alloc<std::allocator<std::_Tree_node<std::pair<std::basic_string<char,std::char_traits<char>,std::allocator<char> > const ,CObject3D *>,void *> > >::~_Tree_temp_node_alloc<std::allocator<std::_Tree_node<std::pair<std::basic_string<char,std::char_traits<char>,std::allocator<char> > const ,CObject3D *>,void *> > >
_TEXT	ENDS
; Function compile flags: /Ogtp
; File C:\Program Files\Microsoft Visual Studio\2022\Professional\VC\Tools\MSVC\14.44.35207\include\xmemory
;	COMDAT ??1?$_Alloc_construct_ptr@V?$allocator@U?$_Tree_node@U?$pair@$$CBV?$basic_string@DU?$char_traits@D@std@@V?$allocator@D@2@@std@@PAVCObject3D@@@std@@PAX@std@@@std@@@std@@QAE@XZ
_TEXT	SEGMENT
??1?$_Alloc_construct_ptr@V?$allocator@U?$_Tree_node@U?$pair@$$CBV?$basic_string@DU?$char_traits@D@std@@V?$allocator@D@2@@std@@PAVCObject3D@@@std@@PAX@std@@@std@@@std@@QAE@XZ PROC ; std::_Alloc_construct_ptr<std::allocator<std::_Tree_node<std::pair<std::basic_string<char,std::char_traits<char>,std::allocator<char> > const ,CObject3D *>,void *> > >::~_Alloc_construct_ptr<std::allocator<std::_Tree_node<std::pair<std::basic_string<char,std::char_traits<char>,std::allocator<char> > const ,CObject3D *>,void *> > >, COMDAT
; _this$ = ecx

; 1172 :         if (_Ptr) {

  00000	8b 41 04	 mov	 eax, DWORD PTR [ecx+4]
  00003	85 c0		 test	 eax, eax
  00005	74 0b		 je	 SHORT $LN10@Alloc_cons

; 289  :         ::operator delete(_Ptr, _Bytes);

  00007	6a 2c		 push	 44			; 0000002cH
  00009	50		 push	 eax
  0000a	e8 00 00 00 00	 call	 ??3@YAXPAXI@Z		; operator delete
  0000f	83 c4 08	 add	 esp, 8
$LN10@Alloc_cons:

; 1173 :             _Al.deallocate(_Ptr, 1);
; 1174 :         }
; 1175 :     }

  00012	c3		 ret	 0
??1?$_Alloc_construct_ptr@V?$allocator@U?$_Tree_node@U?$pair@$$CBV?$basic_string@DU?$char_traits@D@std@@V?$allocator@D@2@@std@@PAVCObject3D@@@std@@PAX@std@@@std@@@std@@QAE@XZ ENDP ; std::_Alloc_construct_ptr<std::allocator<std::_Tree_node<std::pair<std::basic_string<char,std::char_traits<char>,std::allocator<char> > const ,CObject3D *>,void *> > >::~_Alloc_construct_ptr<std::allocator<std::_Tree_node<std::pair<std::basic_string<char,std::char_traits<char>,std::allocator<char> > const ,CObject3D *>,void *> > >
_TEXT	ENDS
; Function compile flags: /Ogtp
; File C:\Program Files\Microsoft Visual Studio\2022\Professional\VC\Tools\MSVC\14.44.35207\include\xtree
; File C:\Program Files\Microsoft Visual Studio\2022\Professional\VC\Tools\MSVC\14.44.35207\include\type_traits
; File C:\Program Files\Microsoft Visual Studio\2022\Professional\VC\Tools\MSVC\14.44.35207\include\xtree
;	COMDAT ??$_Find_lower_bound@V?$basic_string@DU?$char_traits@D@std@@V?$allocator@D@2@@std@@@?$_Tree@V?$_Tmap_traits@V?$basic_string@DU?$char_traits@D@std@@V?$allocator@D@2@@std@@PAVCObject3D@@U?$less@V?$basic_string@DU?$char_traits@D@std@@V?$allocator@D@2@@std@@@2@V?$allocator@U?$pair@$$CBV?$basic_string@DU?$char_traits@D@std@@V?$allocator@D@2@@std@@PAVCObject3D@@@std@@@2@$0A@@std@@@std@@IBE?AU?$_Tree_find_result@PAU?$_Tree_node@U?$pair@$$CBV?$basic_string@DU?$char_traits@D@std@@V?$allocator@D@2@@std@@PAVCObject3D@@@std@@PAX@std@@@1@ABV?$basic_string@DU?$char_traits@D@std@@V?$allocator@D@2@@1@@Z
_TEXT	SEGMENT
___$ReturnUdt$ = 8					; size = 4
__Keyval$ = 12						; size = 4
??$_Find_lower_bound@V?$basic_string@DU?$char_traits@D@std@@V?$allocator@D@2@@std@@@?$_Tree@V?$_Tmap_traits@V?$basic_string@DU?$char_traits@D@std@@V?$allocator@D@2@@std@@PAVCObject3D@@U?$less@V?$basic_string@DU?$char_traits@D@std@@V?$allocator@D@2@@std@@@2@V?$allocator@U?$pair@$$CBV?$basic_string@DU?$char_traits@D@std@@V?$allocator@D@2@@std@@PAVCObject3D@@@std@@@2@$0A@@std@@@std@@IBE?AU?$_Tree_find_result@PAU?$_Tree_node@U?$pair@$$CBV?$basic_string@DU?$char_traits@D@std@@V?$allocator@D@2@@std@@PAVCObject3D@@@std@@PAX@std@@@1@ABV?$basic_string@DU?$char_traits@D@std@@V?$allocator@D@2@@1@@Z PROC ; std::_Tree<std::_Tmap_traits<std::basic_string<char,std::char_traits<char>,std::allocator<char> >,CObject3D *,std::less<std::basic_string<char,std::char_traits<char>,std::allocator<char> > >,std::allocator<std::pair<std::basic_string<char,std::char_traits<char>,std::allocator<char> > const ,CObject3D *> >,0> >::_Find_lower_bound<std::basic_string<char,std::char_traits<char>,std::allocator<char> > >, COMDAT
; _this$ = ecx

; 1628 :     _Tree_find_result<_Nodeptr> _Find_lower_bound(const _Keyty& _Keyval) const {

  00000	55		 push	 ebp
  00001	8b ec		 mov	 ebp, esp

; 1629 :         const auto _Scary = _Get_scary();
; 1630 :         _Tree_find_result<_Nodeptr> _Result{{_Scary->_Myhead->_Parent, _Tree_child::_Right}, _Scary->_Myhead};

  00003	8b 01		 mov	 eax, DWORD PTR [ecx]
  00005	56		 push	 esi
  00006	57		 push	 edi
  00007	8b 7d 08	 mov	 edi, DWORD PTR ___$ReturnUdt$[ebp]
  0000a	8b 70 04	 mov	 esi, DWORD PTR [eax+4]
  0000d	89 37		 mov	 DWORD PTR [edi], esi

; 1631 :         _Nodeptr _Trynode = _Result._Location._Parent;
; 1632 :         while (!_Trynode->_Isnil) {

  0000f	80 7e 0d 00	 cmp	 BYTE PTR [esi+13], 0
  00013	c7 47 04 00 00
	00 00		 mov	 DWORD PTR [edi+4], 0
  0001a	89 47 08	 mov	 DWORD PTR [edi+8], eax
  0001d	75 32		 jne	 SHORT $LN13@Find_lower
  0001f	53		 push	 ebx
  00020	8b 5d 0c	 mov	 ebx, DWORD PTR __Keyval$[ebp]
$LL2@Find_lower:

; 1634 :             if (_DEBUG_LT_PRED(_Getcomp(), _Traits::_Kfn(_Trynode->_Myval), _Keyval)) {

  00023	8d 46 10	 lea	 eax, DWORD PTR [esi+16]
  00026	89 37		 mov	 DWORD PTR [edi], esi
; File C:\Program Files\Microsoft Visual Studio\2022\Professional\VC\Tools\MSVC\14.44.35207\include\type_traits

; 2380 :         return _Left < _Right;

  00028	53		 push	 ebx
  00029	50		 push	 eax
  0002a	e8 00 00 00 00	 call	 ??$?MDU?$char_traits@D@std@@V?$allocator@D@1@@std@@YA_NABV?$basic_string@DU?$char_traits@D@std@@V?$allocator@D@2@@0@0@Z ; std::operator<<char,std::char_traits<char>,std::allocator<char> >
  0002f	83 c4 08	 add	 esp, 8
; File C:\Program Files\Microsoft Visual Studio\2022\Professional\VC\Tools\MSVC\14.44.35207\include\xtree

; 1634 :             if (_DEBUG_LT_PRED(_Getcomp(), _Traits::_Kfn(_Trynode->_Myval), _Keyval)) {

  00032	84 c0		 test	 al, al
  00034	74 07		 je	 SHORT $LN4@Find_lower

; 1635 :                 _Result._Location._Child = _Tree_child::_Right;
; 1636 :                 _Trynode                 = _Trynode->_Right;

  00036	8b 76 08	 mov	 esi, DWORD PTR [esi+8]
  00039	33 c0		 xor	 eax, eax

; 1637 :             } else {

  0003b	eb 0a		 jmp	 SHORT $LN5@Find_lower
$LN4@Find_lower:

; 1638 :                 _Result._Location._Child = _Tree_child::_Left;
; 1639 :                 _Result._Bound           = _Trynode;

  0003d	89 77 08	 mov	 DWORD PTR [edi+8], esi

; 1640 :                 _Trynode                 = _Trynode->_Left;

  00040	b8 01 00 00 00	 mov	 eax, 1
  00045	8b 36		 mov	 esi, DWORD PTR [esi]
$LN5@Find_lower:

; 1631 :         _Nodeptr _Trynode = _Result._Location._Parent;
; 1632 :         while (!_Trynode->_Isnil) {

  00047	89 47 04	 mov	 DWORD PTR [edi+4], eax
  0004a	80 7e 0d 00	 cmp	 BYTE PTR [esi+13], 0
  0004e	74 d3		 je	 SHORT $LL2@Find_lower
  00050	5b		 pop	 ebx
$LN13@Find_lower:

; 1641 :             }
; 1642 :         }
; 1643 : 
; 1644 :         return _Result;
; 1645 :     }

  00051	8b c7		 mov	 eax, edi
  00053	5f		 pop	 edi
  00054	5e		 pop	 esi
  00055	5d		 pop	 ebp
  00056	c2 08 00	 ret	 8
??$_Find_lower_bound@V?$basic_string@DU?$char_traits@D@std@@V?$allocator@D@2@@std@@@?$_Tree@V?$_Tmap_traits@V?$basic_string@DU?$char_traits@D@std@@V?$allocator@D@2@@std@@PAVCObject3D@@U?$less@V?$basic_string@DU?$char_traits@D@std@@V?$allocator@D@2@@std@@@2@V?$allocator@U?$pair@$$CBV?$basic_string@DU?$char_traits@D@std@@V?$allocator@D@2@@std@@PAVCObject3D@@@std@@@2@$0A@@std@@@std@@IBE?AU?$_Tree_find_result@PAU?$_Tree_node@U?$pair@$$CBV?$basic_string@DU?$char_traits@D@std@@V?$allocator@D@2@@std@@PAVCObject3D@@@std@@PAX@std@@@1@ABV?$basic_string@DU?$char_traits@D@std@@V?$allocator@D@2@@1@@Z ENDP ; std::_Tree<std::_Tmap_traits<std::basic_string<char,std::char_traits<char>,std::allocator<char> >,CObject3D *,std::less<std::basic_string<char,std::char_traits<char>,std::allocator<char> > >,std::allocator<std::pair<std::basic_string<char,std::char_traits<char>,std::allocator<char> > const ,CObject3D *> >,0> >::_Find_lower_bound<std::basic_string<char,std::char_traits<char>,std::allocator<char> > >
_TEXT	ENDS
; Function compile flags: /Ogtp
; File C:\Program Files\Microsoft Visual Studio\2022\Professional\VC\Tools\MSVC\14.44.35207\include\xtree
; File C:\Program Files\Microsoft Visual Studio\2022\Professional\VC\Tools\MSVC\14.44.35207\include\utility
; File C:\Program Files\Microsoft Visual Studio\2022\Professional\VC\Tools\MSVC\14.44.35207\include\xtree
; File C:\Program Files\Microsoft Visual Studio\2022\Professional\VC\Tools\MSVC\14.44.35207\include\xmemory
; File C:\Program Files\Microsoft Visual Studio\2022\Professional\VC\Tools\MSVC\14.44.35207\include\xtree
; File C:\Program Files\Microsoft Visual Studio\2022\Professional\VC\Tools\MSVC\14.44.35207\include\xmemory
; File C:\Program Files\Microsoft Visual Studio\2022\Professional\VC\Tools\MSVC\14.44.35207\include\xtree
;	COMDAT ??$_Erase_tree@V?$allocator@U?$_Tree_node@U?$pair@$$CBV?$basic_string@DU?$char_traits@D@std@@V?$allocator@D@2@@std@@PAVCObject3D@@@std@@PAX@std@@@std@@@?$_Tree_val@U?$_Tree_simple_types@U?$pair@$$CBV?$basic_string@DU?$char_traits@D@std@@V?$allocator@D@2@@std@@PAVCObject3D@@@std@@@std@@@std@@QAEXAAV?$allocator@U?$_Tree_node@U?$pair@$$CBV?$basic_string@DU?$char_traits@D@std@@V?$allocator@D@2@@std@@PAVCObject3D@@@std@@PAX@std@@@1@PAU?$_Tree_node@U?$pair@$$CBV?$basic_string@DU?$char_traits@D@std@@V?$allocator@D@2@@std@@PAVCObject3D@@@std@@PAX@1@@Z
_TEXT	SEGMENT
_this$1$ = -4						; size = 4
__Al$ = 8						; size = 4
__Rootnode$ = 12					; size = 4
??$_Erase_tree@V?$allocator@U?$_Tree_node@U?$pair@$$CBV?$basic_string@DU?$char_traits@D@std@@V?$allocator@D@2@@std@@PAVCObject3D@@@std@@PAX@std@@@std@@@?$_Tree_val@U?$_Tree_simple_types@U?$pair@$$CBV?$basic_string@DU?$char_traits@D@std@@V?$allocator@D@2@@std@@PAVCObject3D@@@std@@@std@@@std@@QAEXAAV?$allocator@U?$_Tree_node@U?$pair@$$CBV?$basic_string@DU?$char_traits@D@std@@V?$allocator@D@2@@std@@PAVCObject3D@@@std@@PAX@std@@@1@PAU?$_Tree_node@U?$pair@$$CBV?$basic_string@DU?$char_traits@D@std@@V?$allocator@D@2@@std@@PAVCObject3D@@@std@@PAX@1@@Z PROC ; std::_Tree_val<std::_Tree_simple_types<std::pair<std::basic_string<char,std::char_traits<char>,std::allocator<char> > const ,CObject3D *> > >::_Erase_tree<std::allocator<std::_Tree_node<std::pair<std::basic_string<char,std::char_traits<char>,std::allocator<char> > const ,CObject3D *>,void *> > >, COMDAT
; _this$ = ecx

; 767  :     void _Erase_tree(_Alnode& _Al, _Nodeptr _Rootnode) noexcept {

  00000	55		 push	 ebp
  00001	8b ec		 mov	 ebp, esp
  00003	51		 push	 ecx
  00004	56		 push	 esi

; 768  :         while (!_Rootnode->_Isnil) { // free subtrees, then node

  00005	8b 75 0c	 mov	 esi, DWORD PTR __Rootnode$[ebp]
  00008	8b c1		 mov	 eax, ecx
  0000a	89 45 fc	 mov	 DWORD PTR _this$1$[ebp], eax
  0000d	80 7e 0d 00	 cmp	 BYTE PTR [esi+13], 0
  00011	75 32		 jne	 SHORT $LN45@Erase_tree
  00013	53		 push	 ebx
  00014	8b 5d 08	 mov	 ebx, DWORD PTR __Al$[ebp]
  00017	57		 push	 edi
$LL2@Erase_tree:

; 769  :             _Erase_tree(_Al, _Rootnode->_Right);

  00018	ff 76 08	 push	 DWORD PTR [esi+8]
  0001b	8b c8		 mov	 ecx, eax
  0001d	53		 push	 ebx
  0001e	e8 00 00 00 00	 call	 ??$_Erase_tree@V?$allocator@U?$_Tree_node@U?$pair@$$CBV?$basic_string@DU?$char_traits@D@std@@V?$allocator@D@2@@std@@PAVCObject3D@@@std@@PAX@std@@@std@@@?$_Tree_val@U?$_Tree_simple_types@U?$pair@$$CBV?$basic_string@DU?$char_traits@D@std@@V?$allocator@D@2@@std@@PAVCObject3D@@@std@@@std@@@std@@QAEXAAV?$allocator@U?$_Tree_node@U?$pair@$$CBV?$basic_string@DU?$char_traits@D@std@@V?$allocator@D@2@@std@@PAVCObject3D@@@std@@PAX@std@@@1@PAU?$_Tree_node@U?$pair@$$CBV?$basic_string@DU?$char_traits@D@std@@V?$allocator@D@2@@std@@PAVCObject3D@@@std@@PAX@1@@Z ; std::_Tree_val<std::_Tree_simple_types<std::pair<std::basic_string<char,std::char_traits<char>,std::allocator<char> > const ,CObject3D *> > >::_Erase_tree<std::allocator<std::_Tree_node<std::pair<std::basic_string<char,std::char_traits<char>,std::allocator<char> > const ,CObject3D *>,void *> > >
; File C:\Program Files\Microsoft Visual Studio\2022\Professional\VC\Tools\MSVC\14.44.35207\include\utility

; 773  :     _Ty _Old_val = static_cast<_Ty&&>(_Val);

  00023	8b fe		 mov	 edi, esi

; 774  :     _Val         = static_cast<_Other&&>(_New_val);

  00025	8b 36		 mov	 esi, DWORD PTR [esi]
; File C:\Program Files\Microsoft Visual Studio\2022\Professional\VC\Tools\MSVC\14.44.35207\include\xtree

; 381  :         allocator_traits<_Alloc>::destroy(_Al, _STD addressof(_Ptr->_Myval));

  00027	8d 4f 10	 lea	 ecx, DWORD PTR [edi+16]
  0002a	e8 00 00 00 00	 call	 ??1?$basic_string@DU?$char_traits@D@std@@V?$allocator@D@2@@std@@QAE@XZ ; std::basic_string<char,std::char_traits<char>,std::allocator<char> >::~basic_string<char,std::char_traits<char>,std::allocator<char> >
; File C:\Program Files\Microsoft Visual Studio\2022\Professional\VC\Tools\MSVC\14.44.35207\include\xmemory

; 289  :         ::operator delete(_Ptr, _Bytes);

  0002f	6a 2c		 push	 44			; 0000002cH
  00031	57		 push	 edi
  00032	e8 00 00 00 00	 call	 ??3@YAXPAXI@Z		; operator delete
; File C:\Program Files\Microsoft Visual Studio\2022\Professional\VC\Tools\MSVC\14.44.35207\include\xtree

; 768  :         while (!_Rootnode->_Isnil) { // free subtrees, then node

  00037	8b 45 fc	 mov	 eax, DWORD PTR _this$1$[ebp]
; File C:\Program Files\Microsoft Visual Studio\2022\Professional\VC\Tools\MSVC\14.44.35207\include\xmemory

; 289  :         ::operator delete(_Ptr, _Bytes);

  0003a	83 c4 08	 add	 esp, 8
; File C:\Program Files\Microsoft Visual Studio\2022\Professional\VC\Tools\MSVC\14.44.35207\include\xtree

; 768  :         while (!_Rootnode->_Isnil) { // free subtrees, then node

  0003d	80 7e 0d 00	 cmp	 BYTE PTR [esi+13], 0
  00041	74 d5		 je	 SHORT $LL2@Erase_tree
  00043	5f		 pop	 edi
  00044	5b		 pop	 ebx
$LN45@Erase_tree:
  00045	5e		 pop	 esi

; 770  :             _Alnode::value_type::_Freenode(_Al, _STD exchange(_Rootnode, _Rootnode->_Left));
; 771  :         }
; 772  :     }

  00046	8b e5		 mov	 esp, ebp
  00048	5d		 pop	 ebp
  00049	c2 08 00	 ret	 8
??$_Erase_tree@V?$allocator@U?$_Tree_node@U?$pair@$$CBV?$basic_string@DU?$char_traits@D@std@@V?$allocator@D@2@@std@@PAVCObject3D@@@std@@PAX@std@@@std@@@?$_Tree_val@U?$_Tree_simple_types@U?$pair@$$CBV?$basic_string@DU?$char_traits@D@std@@V?$allocator@D@2@@std@@PAVCObject3D@@@std@@@std@@@std@@QAEXAAV?$allocator@U?$_Tree_node@U?$pair@$$CBV?$basic_string@DU?$char_traits@D@std@@V?$allocator@D@2@@std@@PAVCObject3D@@@std@@PAX@std@@@1@PAU?$_Tree_node@U?$pair@$$CBV?$basic_string@DU?$char_traits@D@std@@V?$allocator@D@2@@std@@PAVCObject3D@@@std@@PAX@1@@Z ENDP ; std::_Tree_val<std::_Tree_simple_types<std::pair<std::basic_string<char,std::char_traits<char>,std::allocator<char> > const ,CObject3D *> > >::_Erase_tree<std::allocator<std::_Tree_node<std::pair<std::basic_string<char,std::char_traits<char>,std::allocator<char> > const ,CObject3D *>,void *> > >
_TEXT	ENDS
; Function compile flags: /Ogtp
; File C:\Program Files\Microsoft Visual Studio\2022\Professional\VC\Tools\MSVC\14.44.35207\include\xtree
; File C:\Program Files\Microsoft Visual Studio\2022\Professional\VC\Tools\MSVC\14.44.35207\include\type_traits
; File C:\Program Files\Microsoft Visual Studio\2022\Professional\VC\Tools\MSVC\14.44.35207\include\xtree
; File C:\Program Files\Microsoft Visual Studio\2022\Professional\VC\Tools\MSVC\14.44.35207\include\utility
; File C:\Program Files\Microsoft Visual Studio\2022\Professional\VC\Tools\MSVC\14.44.35207\include\xtree
; File C:\Program Files\Microsoft Visual Studio\2022\Professional\VC\Tools\MSVC\14.44.35207\include\xmemory
; File C:\Program Files\Microsoft Visual Studio\2022\Professional\VC\Tools\MSVC\14.44.35207\include\xtree
; File C:\Program Files\Microsoft Visual Studio\2022\Professional\VC\Tools\MSVC\14.44.35207\include\xmemory
; File C:\Program Files\Microsoft Visual Studio\2022\Professional\VC\Tools\MSVC\14.44.35207\include\xtree
; File C:\Program Files\Microsoft Visual Studio\2022\Professional\VC\Tools\MSVC\14.44.35207\include\xstring
; File C:\Program Files\Microsoft Visual Studio\2022\Professional\VC\Tools\MSVC\14.44.35207\include\__msvc_string_view.hpp
; File C:\Program Files\Microsoft Visual Studio\2022\Professional\VC\Tools\MSVC\14.44.35207\include\xstring
; File C:\Program Files\Microsoft Visual Studio\2022\Professional\VC\Tools\MSVC\14.44.35207\include\xmemory
; File C:\Program Files\Microsoft Visual Studio\2022\Professional\VC\Tools\MSVC\14.44.35207\include\xstring
; File C:\Program Files\Microsoft Visual Studio\2022\Professional\VC\Tools\MSVC\14.44.35207\include\xmemory
; File C:\Program Files\Microsoft Visual Studio\2022\Professional\VC\Tools\MSVC\14.44.35207\include\xstring
; File C:\Program Files\Microsoft Visual Studio\2022\Professional\VC\Tools\MSVC\14.44.35207\include\__msvc_string_view.hpp
; File C:\Program Files\Microsoft Visual Studio\2022\Professional\VC\Tools\MSVC\14.44.35207\include\xstring
; File C:\Program Files\Microsoft Visual Studio\2022\Professional\VC\Tools\MSVC\14.44.35207\include\__msvc_string_view.hpp
; File C:\Program Files\Microsoft Visual Studio\2022\Professional\VC\Tools\MSVC\14.44.35207\include\xstring
; File C:\Program Files\Microsoft Visual Studio\2022\Professional\VC\Tools\MSVC\14.44.35207\include\__msvc_string_view.hpp
; File C:\Program Files\Microsoft Visual Studio\2022\Professional\VC\Tools\MSVC\14.44.35207\include\utility
; File C:\Program Files\Microsoft Visual Studio\2022\Professional\VC\Tools\MSVC\14.44.35207\include\xtree
; File C:\Program Files\Microsoft Visual Studio\2022\Professional\VC\Tools\MSVC\14.44.35207\include\utility
; File C:\Program Files\Microsoft Visual Studio\2022\Professional\VC\Tools\MSVC\14.44.35207\include\xtree
; File C:\Program Files\Microsoft Visual Studio\2022\Professional\VC\Tools\MSVC\14.44.35207\include\utility
; File C:\Program Files\Microsoft Visual Studio\2022\Professional\VC\Tools\MSVC\14.44.35207\include\xtree
; File C:\Program Files\Microsoft Visual Studio\2022\Professional\VC\Tools\MSVC\14.44.35207\include\utility
; File C:\Program Files\Microsoft Visual Studio\2022\Professional\VC\Tools\MSVC\14.44.35207\include\xtree
; File C:\Program Files\Microsoft Visual Studio\2022\Professional\VC\Tools\MSVC\14.44.35207\include\xstring
; File C:\Program Files\Microsoft Visual Studio\2022\Professional\VC\Tools\MSVC\14.44.35207\include\xtree
;	COMDAT ??$_Emplace@U?$pair@$$CBV?$basic_string@DU?$char_traits@D@std@@V?$allocator@D@2@@std@@PAVCObject3D@@@std@@@?$_Tree@V?$_Tmap_traits@V?$basic_string@DU?$char_traits@D@std@@V?$allocator@D@2@@std@@PAVCObject3D@@U?$less@V?$basic_string@DU?$char_traits@D@std@@V?$allocator@D@2@@std@@@2@V?$allocator@U?$pair@$$CBV?$basic_string@DU?$char_traits@D@std@@V?$allocator@D@2@@std@@PAVCObject3D@@@std@@@2@$0A@@std@@@std@@IAE?AU?$pair@PAU?$_Tree_node@U?$pair@$$CBV?$basic_string@DU?$char_traits@D@std@@V?$allocator@D@2@@std@@PAVCObject3D@@@std@@PAX@std@@_N@1@$$QAU?$pair@$$CBV?$basic_string@DU?$char_traits@D@std@@V?$allocator@D@2@@std@@PAVCObject3D@@@1@@Z
_TEXT	SEGMENT
__Loc$ = -52						; size = 12
$T2 = -40						; size = 12
$T3 = -36						; size = 8
__Myhead$1$ = -28					; size = 4
_this$1$ = -24						; size = 4
__Result$1$ = -20					; size = 4
__Count$1$ = -16					; size = 4
__$EHRec$ = -12						; size = 12
___$ReturnUdt$ = 8					; size = 4
_<_Vals_0>$ = 12					; size = 4
??$_Emplace@U?$pair@$$CBV?$basic_string@DU?$char_traits@D@std@@V?$allocator@D@2@@std@@PAVCObject3D@@@std@@@?$_Tree@V?$_Tmap_traits@V?$basic_string@DU?$char_traits@D@std@@V?$allocator@D@2@@std@@PAVCObject3D@@U?$less@V?$basic_string@DU?$char_traits@D@std@@V?$allocator@D@2@@std@@@2@V?$allocator@U?$pair@$$CBV?$basic_string@DU?$char_traits@D@std@@V?$allocator@D@2@@std@@PAVCObject3D@@@std@@@2@$0A@@std@@@std@@IAE?AU?$pair@PAU?$_Tree_node@U?$pair@$$CBV?$basic_string@DU?$char_traits@D@std@@V?$allocator@D@2@@std@@PAVCObject3D@@@std@@PAX@std@@_N@1@$$QAU?$pair@$$CBV?$basic_string@DU?$char_traits@D@std@@V?$allocator@D@2@@std@@PAVCObject3D@@@1@@Z PROC ; std::_Tree<std::_Tmap_traits<std::basic_string<char,std::char_traits<char>,std::allocator<char> >,CObject3D *,std::less<std::basic_string<char,std::char_traits<char>,std::allocator<char> > >,std::allocator<std::pair<std::basic_string<char,std::char_traits<char>,std::allocator<char> > const ,CObject3D *> >,0> >::_Emplace<std::pair<std::basic_string<char,std::char_traits<char>,std::allocator<char> > const ,CObject3D *> >, COMDAT
; _this$ = ecx

; 1010 :     pair<_Nodeptr, bool> _Emplace(_Valtys&&... _Vals) {

  00000	55		 push	 ebp
  00001	8b ec		 mov	 ebp, esp
  00003	6a ff		 push	 -1
  00005	68 00 00 00 00	 push	 __ehhandler$??$_Emplace@U?$pair@$$CBV?$basic_string@DU?$char_traits@D@std@@V?$allocator@D@2@@std@@PAVCObject3D@@@std@@@?$_Tree@V?$_Tmap_traits@V?$basic_string@DU?$char_traits@D@std@@V?$allocator@D@2@@std@@PAVCObject3D@@U?$less@V?$basic_string@DU?$char_traits@D@std@@V?$allocator@D@2@@std@@@2@V?$allocator@U?$pair@$$CBV?$basic_string@DU?$char_traits@D@std@@V?$allocator@D@2@@std@@PAVCObject3D@@@std@@@2@$0A@@std@@@std@@IAE?AU?$pair@PAU?$_Tree_node@U?$pair@$$CBV?$basic_string@DU?$char_traits@D@std@@V?$allocator@D@2@@std@@PAVCObject3D@@@std@@PAX@std@@_N@1@$$QAU?$pair@$$CBV?$basic_string@DU?$char_traits@D@std@@V?$allocator@D@2@@std@@PAVCObject3D@@@1@@Z
  0000a	64 a1 00 00 00
	00		 mov	 eax, DWORD PTR fs:0
  00010	50		 push	 eax
  00011	83 ec 28	 sub	 esp, 40			; 00000028H
  00014	56		 push	 esi
  00015	57		 push	 edi
  00016	a1 00 00 00 00	 mov	 eax, DWORD PTR ___security_cookie
  0001b	33 c5		 xor	 eax, ebp
  0001d	50		 push	 eax
  0001e	8d 45 f4	 lea	 eax, DWORD PTR __$EHRec$[ebp]
  00021	64 a3 00 00 00
	00		 mov	 DWORD PTR fs:0, eax
  00027	89 4d e8	 mov	 DWORD PTR _this$1$[ebp], ecx

; 1011 :         using _In_place_key_extractor = typename _Traits::template _In_place_key_extractor<_Valtys...>;
; 1012 :         const auto _Scary             = _Get_scary();
; 1013 :         _Tree_find_result<_Nodeptr> _Loc;
; 1014 :         _Nodeptr _Inserted;
; 1015 :         if constexpr (!_Multi && _In_place_key_extractor::_Extractable) {
; 1016 :             const auto& _Keyval = _In_place_key_extractor::_Extract(_Vals...);
; 1017 :             _Loc                = _Find_lower_bound(_Keyval);

  0002a	8b 7d 0c	 mov	 edi, DWORD PTR _<_Vals_0>$[ebp]
  0002d	8d 45 d8	 lea	 eax, DWORD PTR $T2[ebp]
  00030	57		 push	 edi
  00031	50		 push	 eax
  00032	e8 00 00 00 00	 call	 ??$_Find_lower_bound@V?$basic_string@DU?$char_traits@D@std@@V?$allocator@D@2@@std@@@?$_Tree@V?$_Tmap_traits@V?$basic_string@DU?$char_traits@D@std@@V?$allocator@D@2@@std@@PAVCObject3D@@U?$less@V?$basic_string@DU?$char_traits@D@std@@V?$allocator@D@2@@std@@@2@V?$allocator@U?$pair@$$CBV?$basic_string@DU?$char_traits@D@std@@V?$allocator@D@2@@std@@PAVCObject3D@@@std@@@2@$0A@@std@@@std@@IBE?AU?$_Tree_find_result@PAU?$_Tree_node@U?$pair@$$CBV?$basic_string@DU?$char_traits@D@std@@V?$allocator@D@2@@std@@PAVCObject3D@@@std@@PAX@std@@@1@ABV?$basic_string@DU?$char_traits@D@std@@V?$allocator@D@2@@1@@Z ; std::_Tree<std::_Tmap_traits<std::basic_string<char,std::char_traits<char>,std::allocator<char> >,CObject3D *,std::less<std::basic_string<char,std::char_traits<char>,std::allocator<char> > >,std::allocator<std::pair<std::basic_string<char,std::char_traits<char>,std::allocator<char> > const ,CObject3D *> >,0> >::_Find_lower_bound<std::basic_string<char,std::char_traits<char>,std::allocator<char> > >
  00037	8b 70 08	 mov	 esi, DWORD PTR [eax+8]
  0003a	f3 0f 7e 00	 movq	 xmm0, QWORD PTR [eax]
  0003e	66 0f d6 45 cc	 movq	 QWORD PTR __Loc$[ebp], xmm0

; 1624 :         return !_Bound->_Isnil && !_DEBUG_LT_PRED(_Getcomp(), _Keyval, _Traits::_Kfn(_Bound->_Myval));

  00043	80 7e 0d 00	 cmp	 BYTE PTR [esi+13], 0
  00047	75 2d		 jne	 SHORT $LN2@Emplace
  00049	8d 46 10	 lea	 eax, DWORD PTR [esi+16]
; File C:\Program Files\Microsoft Visual Studio\2022\Professional\VC\Tools\MSVC\14.44.35207\include\type_traits

; 2380 :         return _Left < _Right;

  0004c	50		 push	 eax
  0004d	57		 push	 edi
  0004e	e8 00 00 00 00	 call	 ??$?MDU?$char_traits@D@std@@V?$allocator@D@1@@std@@YA_NABV?$basic_string@DU?$char_traits@D@std@@V?$allocator@D@2@@0@0@Z ; std::operator<<char,std::char_traits<char>,std::allocator<char> >
  00053	83 c4 08	 add	 esp, 8
; File C:\Program Files\Microsoft Visual Studio\2022\Professional\VC\Tools\MSVC\14.44.35207\include\xtree

; 1624 :         return !_Bound->_Isnil && !_DEBUG_LT_PRED(_Getcomp(), _Keyval, _Traits::_Kfn(_Bound->_Myval));

  00056	84 c0		 test	 al, al
  00058	75 1c		 jne	 SHORT $LN2@Emplace
; File C:\Program Files\Microsoft Visual Studio\2022\Professional\VC\Tools\MSVC\14.44.35207\include\utility

; 274  :         : first(_STD forward<_Other1>(_Val1)), second(_STD forward<_Other2>(_Val2)) {

  0005a	8b 45 08	 mov	 eax, DWORD PTR ___$ReturnUdt$[ebp]
  0005d	89 30		 mov	 DWORD PTR [eax], esi
  0005f	c6 40 04 00	 mov	 BYTE PTR [eax+4], 0
; File C:\Program Files\Microsoft Visual Studio\2022\Professional\VC\Tools\MSVC\14.44.35207\include\xtree

; 1043 :     }

  00063	8b 4d f4	 mov	 ecx, DWORD PTR __$EHRec$[ebp]
  00066	64 89 0d 00 00
	00 00		 mov	 DWORD PTR fs:0, ecx
  0006d	59		 pop	 ecx
  0006e	5f		 pop	 edi
  0006f	5e		 pop	 esi
  00070	8b e5		 mov	 esp, ebp
  00072	5d		 pop	 ebp
  00073	c2 08 00	 ret	 8
$LN2@Emplace:

; 1648 :         if (max_size() == _Get_scary()->_Mysize) {

  00076	8b 45 e8	 mov	 eax, DWORD PTR _this$1$[ebp]
  00079	81 78 04 5d 74
	d1 05		 cmp	 DWORD PTR [eax+4], 97612893 ; 05d1745dH
  00080	0f 84 26 01 00
	00		 je	 $LN195@Emplace

; 1018 :             if (_Lower_bound_duplicate(_Loc._Bound, _Keyval)) {
; 1019 :                 return {_Loc._Bound, false};
; 1020 :             }
; 1021 : 
; 1022 :             _Check_grow_by_1();
; 1023 :             _Inserted = _Tree_temp_node<_Alnode>(_Getal(), _Scary->_Myhead, _STD forward<_Valtys>(_Vals)...)._Release();

  00086	8b 08		 mov	 ecx, DWORD PTR [eax]
  00088	89 4d e4	 mov	 DWORD PTR __Myhead$1$[ebp], ecx
; File C:\Program Files\Microsoft Visual Studio\2022\Professional\VC\Tools\MSVC\14.44.35207\include\xmemory

; 1160 :     _CONSTEXPR20 explicit _Alloc_construct_ptr(_Alloc& _Al_) : _Al(_Al_), _Ptr(nullptr) {}

  0008b	89 45 dc	 mov	 DWORD PTR $T3[ebp], eax

; 136  :         return ::operator new(_Bytes);

  0008e	6a 2c		 push	 44			; 0000002cH
; File C:\Program Files\Microsoft Visual Studio\2022\Professional\VC\Tools\MSVC\14.44.35207\include\xtree

; 808  :     explicit _Tree_temp_node_alloc(_Alnode& _Al_) : _Alloc_construct_ptr<_Alnode>(_Al_) {

  00090	c7 45 fc 00 00
	00 00		 mov	 DWORD PTR __$EHRec$[ebp+8], 0
; File C:\Program Files\Microsoft Visual Studio\2022\Professional\VC\Tools\MSVC\14.44.35207\include\xmemory

; 1167 :         _Ptr = nullptr; // if allocate throws, prevents double-free

  00097	c7 45 e0 00 00
	00 00		 mov	 DWORD PTR $T3[ebp+4], 0

; 136  :         return ::operator new(_Bytes);

  0009e	e8 00 00 00 00	 call	 ??2@YAPAXI@Z		; operator new

; 256  :         return _Traits::_Allocate(_Bytes);

  000a3	8b f0		 mov	 esi, eax

; 136  :         return ::operator new(_Bytes);

  000a5	83 c4 04	 add	 esp, 4

; 1168 :         _Ptr = _Al.allocate(1);

  000a8	89 75 e0	 mov	 DWORD PTR $T3[ebp+4], esi
  000ab	0f 57 c0	 xorps	 xmm0, xmm0
; File C:\Program Files\Microsoft Visual Studio\2022\Professional\VC\Tools\MSVC\14.44.35207\include\xtree

; 829  :         : _Tree_temp_node_alloc<_Alnode>(_Al_) {

  000ae	c7 45 fc 01 00
	00 00		 mov	 DWORD PTR __$EHRec$[ebp+8], 1
; File C:\Program Files\Microsoft Visual Studio\2022\Professional\VC\Tools\MSVC\14.44.35207\include\xstring

; 493  :         _CONSTEXPR20 _Bxty() noexcept : _Buf() {} // user-provided, for fancy pointers

  000b5	0f 11 46 10	 movups	 XMMWORD PTR [esi+16], xmm0

; 517  :     size_type _Mysize = 0; // current length of string (size)

  000b9	c7 46 20 00 00
	00 00		 mov	 DWORD PTR [esi+32], 0

; 444  :         const value_type* _Result = _Bx._Buf;

  000c0	8b cf		 mov	 ecx, edi

; 518  :     size_type _Myres  = 0; // current storage reserved for string (capacity)

  000c2	c7 46 24 00 00
	00 00		 mov	 DWORD PTR [esi+36], 0

; 453  :         return _Myres > _Small_string_capacity;

  000c9	83 7f 14 0f	 cmp	 DWORD PTR [edi+20], 15	; 0000000fH

; 444  :         const value_type* _Result = _Bx._Buf;

  000cd	89 7d ec	 mov	 DWORD PTR __Result$1$[ebp], edi

; 445  :         if (_Large_mode_engaged()) {

  000d0	76 05		 jbe	 SHORT $LN65@Emplace

; 446  :             _Result = _Unfancy(_Bx._Ptr);

  000d2	8b 0f		 mov	 ecx, DWORD PTR [edi]
  000d4	89 4d ec	 mov	 DWORD PTR __Result$1$[ebp], ecx
$LN65@Emplace:

; 718  :         _Construct<_Construct_strategy::_From_string>(_Right._Mypair._Myval2._Myptr(), _Right._Mypair._Myval2._Mysize);

  000d7	8b 47 10	 mov	 eax, DWORD PTR [edi+16]
  000da	89 45 f0	 mov	 DWORD PTR __Count$1$[ebp], eax

; 881  :         if (_Count > max_size()) {

  000dd	3d ff ff ff 7f	 cmp	 eax, 2147483647		; 7fffffffH
  000e2	0f 87 c9 00 00
	00		 ja	 $LN196@Emplace

; 883  :         }
; 884  : 
; 885  :         auto& _Al       = _Getal();
; 886  :         auto&& _Alproxy = _GET_PROXY_ALLOCATOR(_Alty, _Al);
; 887  :         _Container_proxy_ptr<_Alty> _Proxy(_Alproxy, _My_data);
; 888  : 
; 889  :         if (_Count <= _Small_string_capacity) {

  000e8	83 f8 0f	 cmp	 eax, 15			; 0000000fH
  000eb	77 13		 ja	 SHORT $LN73@Emplace

; 890  :             _My_data._Mysize = _Count;

  000ed	89 46 20	 mov	 DWORD PTR [esi+32], eax

; 891  :             _My_data._Myres  = _Small_string_capacity;

  000f0	c7 46 24 0f 00
	00 00		 mov	 DWORD PTR [esi+36], 15	; 0000000fH
; File C:\Program Files\Microsoft Visual Studio\2022\Professional\VC\Tools\MSVC\14.44.35207\include\__msvc_string_view.hpp

; 121  :         _CSTD memcpy(_First1, _First2, _Count * sizeof(_Elem));

  000f7	0f 10 01	 movups	 xmm0, XMMWORD PTR [ecx]
  000fa	0f 11 46 10	 movups	 XMMWORD PTR [esi+16], xmm0
; File C:\Program Files\Microsoft Visual Studio\2022\Professional\VC\Tools\MSVC\14.44.35207\include\xstring

; 908  :             return;

  000fe	eb 68		 jmp	 SHORT $LN99@Emplace
$LN73@Emplace:

; 2978 :         const size_type _Masked = _Requested | _Alloc_mask;

  00100	8b f8		 mov	 edi, eax
  00102	83 cf 0f	 or	 edi, 15			; 0000000fH
  00105	81 ff ff ff ff
	7f		 cmp	 edi, 2147483647		; 7fffffffH

; 2979 :         if (_Masked > _Max) { // the mask overflows, settle for max_size()

  0010b	76 12		 jbe	 SHORT $LN79@Emplace

; 2980 :             return _Max;

  0010d	b9 00 00 00 80	 mov	 ecx, -2147483648	; 80000000H
  00112	bf ff ff ff 7f	 mov	 edi, 2147483647		; 7fffffffH
; File C:\Program Files\Microsoft Visual Studio\2022\Professional\VC\Tools\MSVC\14.44.35207\include\xmemory

; 253  :             return _Allocate_manually_vector_aligned<_Traits>(_Bytes);

  00117	51		 push	 ecx
  00118	e8 00 00 00 00	 call	 ??$_Allocate_manually_vector_aligned@U_Default_allocate_traits@std@@@std@@YAPAXI@Z ; std::_Allocate_manually_vector_aligned<std::_Default_allocate_traits>
  0011d	eb 27		 jmp	 SHORT $LN193@Emplace
$LN79@Emplace:
; File C:\Program Files\Microsoft Visual Studio\2022\Professional\VC\Tools\MSVC\14.44.35207\include\xstring

; 2987 :         return (_STD max)(_Masked, _Old + _Old / 2);

  0011f	b9 16 00 00 00	 mov	 ecx, 22			; 00000016H
  00124	3b f9		 cmp	 edi, ecx
  00126	0f 42 f9	 cmovb	 edi, ecx

; 825  :         ++_Capacity; // Take null terminator into consideration

  00129	8d 4f 01	 lea	 ecx, DWORD PTR [edi+1]
; File C:\Program Files\Microsoft Visual Studio\2022\Professional\VC\Tools\MSVC\14.44.35207\include\xmemory

; 227  :     if (_Bytes == 0) {

  0012c	85 c9		 test	 ecx, ecx
  0012e	74 1e		 je	 SHORT $LN92@Emplace
$LN93@Emplace:

; 228  :         return nullptr;
; 229  :     }
; 230  : 
; 231  : #if _HAS_CXX20 // TRANSITION, GH-1532
; 232  :     if (_STD is_constant_evaluated()) {
; 233  :         return _Traits::_Allocate(_Bytes);
; 234  :     }
; 235  : #endif // _HAS_CXX20
; 236  : 
; 237  : #ifdef __cpp_aligned_new
; 238  :     if constexpr (_Align > __STDCPP_DEFAULT_NEW_ALIGNMENT__) {
; 239  :         size_t _Passed_align = _Align;
; 240  : #if defined(_M_IX86) || defined(_M_X64)
; 241  :         if (_Bytes >= _Big_allocation_threshold) {
; 242  :             // boost the alignment of big allocations to help autovectorization
; 243  :             _Passed_align = (_STD max)(_Align, _Big_allocation_alignment);
; 244  :         }
; 245  : #endif // defined(_M_IX86) || defined(_M_X64)
; 246  :         return _Traits::_Allocate_aligned(_Bytes, _Passed_align);
; 247  :     } else
; 248  : #endif // defined(__cpp_aligned_new)
; 249  :     {
; 250  : #if defined(_M_IX86) || defined(_M_X64)
; 251  :         if (_Bytes >= _Big_allocation_threshold) {

  00130	81 f9 00 10 00
	00		 cmp	 ecx, 4096		; 00001000H
  00136	72 08		 jb	 SHORT $LN94@Emplace

; 253  :             return _Allocate_manually_vector_aligned<_Traits>(_Bytes);

  00138	51		 push	 ecx
  00139	e8 00 00 00 00	 call	 ??$_Allocate_manually_vector_aligned@U_Default_allocate_traits@std@@@std@@YAPAXI@Z ; std::_Allocate_manually_vector_aligned<std::_Default_allocate_traits>
  0013e	eb 06		 jmp	 SHORT $LN193@Emplace
$LN94@Emplace:

; 136  :         return ::operator new(_Bytes);

  00140	51		 push	 ecx
  00141	e8 00 00 00 00	 call	 ??2@YAPAXI@Z		; operator new
$LN193@Emplace:
; File C:\Program Files\Microsoft Visual Studio\2022\Professional\VC\Tools\MSVC\14.44.35207\include\xstring

; 913  :         _Construct_in_place(_My_data._Bx._Ptr, _New_ptr);

  00146	8b c8		 mov	 ecx, eax
  00148	83 c4 04	 add	 esp, 4
  0014b	8b 45 f0	 mov	 eax, DWORD PTR __Count$1$[ebp]
$LN92@Emplace:

; 914  : 
; 915  :         _My_data._Mysize = _Count;

  0014e	89 46 20	 mov	 DWORD PTR [esi+32], eax

; 917  :         if constexpr (_Strat == _Construct_strategy::_From_char) {
; 918  :             _Traits::assign(_Unfancy(_New_ptr), _Count, _Arg);
; 919  :             _Traits::assign(_Unfancy(_New_ptr)[_Count], _Elem());
; 920  :         } else if constexpr (_Strat == _Construct_strategy::_From_ptr) {
; 921  :             _Traits::copy(_Unfancy(_New_ptr), _Arg, _Count);
; 922  :             _Traits::assign(_Unfancy(_New_ptr)[_Count], _Elem());
; 923  :         } else { // _Strat == _Construct_strategy::_From_string
; 924  :             _Traits::copy(_Unfancy(_New_ptr), _Arg, _Count + 1);

  00151	40		 inc	 eax
; File C:\Program Files\Microsoft Visual Studio\2022\Professional\VC\Tools\MSVC\14.44.35207\include\__msvc_string_view.hpp

; 121  :         _CSTD memcpy(_First1, _First2, _Count * sizeof(_Elem));

  00152	50		 push	 eax
  00153	ff 75 ec	 push	 DWORD PTR __Result$1$[ebp]
; File C:\Program Files\Microsoft Visual Studio\2022\Professional\VC\Tools\MSVC\14.44.35207\include\xstring

; 913  :         _Construct_in_place(_My_data._Bx._Ptr, _New_ptr);

  00156	89 4e 10	 mov	 DWORD PTR [esi+16], ecx
; File C:\Program Files\Microsoft Visual Studio\2022\Professional\VC\Tools\MSVC\14.44.35207\include\__msvc_string_view.hpp

; 121  :         _CSTD memcpy(_First1, _First2, _Count * sizeof(_Elem));

  00159	51		 push	 ecx
; File C:\Program Files\Microsoft Visual Studio\2022\Professional\VC\Tools\MSVC\14.44.35207\include\xstring

; 916  :         _My_data._Myres  = _New_capacity;

  0015a	89 7e 24	 mov	 DWORD PTR [esi+36], edi
; File C:\Program Files\Microsoft Visual Studio\2022\Professional\VC\Tools\MSVC\14.44.35207\include\__msvc_string_view.hpp

; 121  :         _CSTD memcpy(_First1, _First2, _Count * sizeof(_Elem));

  0015d	e8 00 00 00 00	 call	 _memcpy
  00162	8b 7d 0c	 mov	 edi, DWORD PTR _<_Vals_0>$[ebp]
  00165	83 c4 0c	 add	 esp, 12			; 0000000cH
$LN99@Emplace:
; File C:\Program Files\Microsoft Visual Studio\2022\Professional\VC\Tools\MSVC\14.44.35207\include\utility

; 278  :     pair(pair&&)      = default;

  00168	8b 47 18	 mov	 eax, DWORD PTR [edi+24]
; File C:\Program Files\Microsoft Visual Studio\2022\Professional\VC\Tools\MSVC\14.44.35207\include\xtree

; 1042 :         return {_Scary->_Insert_node(_Loc._Location, _Inserted), true};

  0016b	8b 4d e8	 mov	 ecx, DWORD PTR _this$1$[ebp]
; File C:\Program Files\Microsoft Visual Studio\2022\Professional\VC\Tools\MSVC\14.44.35207\include\utility

; 278  :     pair(pair&&)      = default;

  0016e	89 46 28	 mov	 DWORD PTR [esi+40], eax
; File C:\Program Files\Microsoft Visual Studio\2022\Professional\VC\Tools\MSVC\14.44.35207\include\xtree

; 831  :         _Construct_in_place(this->_Ptr->_Left, _Myhead);

  00171	8b 45 e4	 mov	 eax, DWORD PTR __Myhead$1$[ebp]

; 1042 :         return {_Scary->_Insert_node(_Loc._Location, _Inserted), true};

  00174	56		 push	 esi
  00175	ff 75 d0	 push	 DWORD PTR __Loc$[ebp+4]

; 831  :         _Construct_in_place(this->_Ptr->_Left, _Myhead);

  00178	89 06		 mov	 DWORD PTR [esi], eax

; 1042 :         return {_Scary->_Insert_node(_Loc._Location, _Inserted), true};

  0017a	ff 75 cc	 push	 DWORD PTR __Loc$[ebp]

; 832  :         _Construct_in_place(this->_Ptr->_Parent, _Myhead);

  0017d	89 46 04	 mov	 DWORD PTR [esi+4], eax

; 833  :         _Construct_in_place(this->_Ptr->_Right, _Myhead);

  00180	89 46 08	 mov	 DWORD PTR [esi+8], eax

; 834  :         this->_Ptr->_Color = _Red;

  00183	66 c7 46 0c 00
	00		 mov	 WORD PTR [esi+12], 0

; 1042 :         return {_Scary->_Insert_node(_Loc._Location, _Inserted), true};

  00189	e8 00 00 00 00	 call	 ?_Insert_node@?$_Tree_val@U?$_Tree_simple_types@U?$pair@$$CBV?$basic_string@DU?$char_traits@D@std@@V?$allocator@D@2@@std@@PAVCObject3D@@@std@@@std@@@std@@QAEPAU?$_Tree_node@U?$pair@$$CBV?$basic_string@DU?$char_traits@D@std@@V?$allocator@D@2@@std@@PAVCObject3D@@@std@@PAX@2@U?$_Tree_id@PAU?$_Tree_node@U?$pair@$$CBV?$basic_string@DU?$char_traits@D@std@@V?$allocator@D@2@@std@@PAVCObject3D@@@std@@PAX@std@@@2@QAU32@@Z ; std::_Tree_val<std::_Tree_simple_types<std::pair<std::basic_string<char,std::char_traits<char>,std::allocator<char> > const ,CObject3D *> > >::_Insert_node
; File C:\Program Files\Microsoft Visual Studio\2022\Professional\VC\Tools\MSVC\14.44.35207\include\utility

; 274  :         : first(_STD forward<_Other1>(_Val1)), second(_STD forward<_Other2>(_Val2)) {

  0018e	8b 4d 08	 mov	 ecx, DWORD PTR ___$ReturnUdt$[ebp]
  00191	89 01		 mov	 DWORD PTR [ecx], eax
; File C:\Program Files\Microsoft Visual Studio\2022\Professional\VC\Tools\MSVC\14.44.35207\include\xtree

; 1042 :         return {_Scary->_Insert_node(_Loc._Location, _Inserted), true};

  00193	8b c1		 mov	 eax, ecx
; File C:\Program Files\Microsoft Visual Studio\2022\Professional\VC\Tools\MSVC\14.44.35207\include\utility

; 274  :         : first(_STD forward<_Other1>(_Val1)), second(_STD forward<_Other2>(_Val2)) {

  00195	c6 41 04 01	 mov	 BYTE PTR [ecx+4], 1
; File C:\Program Files\Microsoft Visual Studio\2022\Professional\VC\Tools\MSVC\14.44.35207\include\xtree

; 1043 :     }

  00199	8b 4d f4	 mov	 ecx, DWORD PTR __$EHRec$[ebp]
  0019c	64 89 0d 00 00
	00 00		 mov	 DWORD PTR fs:0, ecx
  001a3	59		 pop	 ecx
  001a4	5f		 pop	 edi
  001a5	5e		 pop	 esi
  001a6	8b e5		 mov	 esp, ebp
  001a8	5d		 pop	 ebp
  001a9	c2 08 00	 ret	 8
$LN195@Emplace:

; 1649 :             _Throw_tree_length_error();

  001ac	e8 00 00 00 00	 call	 ?_Throw_tree_length_error@std@@YAXXZ ; std::_Throw_tree_length_error
$LN196@Emplace:
; File C:\Program Files\Microsoft Visual Studio\2022\Professional\VC\Tools\MSVC\14.44.35207\include\xstring

; 882  :             _Xlen_string(); // result too long

  001b1	e8 00 00 00 00	 call	 ?_Xlen_string@std@@YAXXZ ; std::_Xlen_string
$LN192@Emplace:
  001b6	cc		 int	 3
_TEXT	ENDS
;	COMDAT text$x
text$x	SEGMENT
__unwindfunclet$??$_Emplace@U?$pair@$$CBV?$basic_string@DU?$char_traits@D@std@@V?$allocator@D@2@@std@@PAVCObject3D@@@std@@@?$_Tree@V?$_Tmap_traits@V?$basic_string@DU?$char_traits@D@std@@V?$allocator@D@2@@std@@PAVCObject3D@@U?$less@V?$basic_string@DU?$char_traits@D@std@@V?$allocator@D@2@@std@@@2@V?$allocator@U?$pair@$$CBV?$basic_string@DU?$char_traits@D@std@@V?$allocator@D@2@@std@@PAVCObject3D@@@std@@@2@$0A@@std@@@std@@IAE?AU?$pair@PAU?$_Tree_node@U?$pair@$$CBV?$basic_string@DU?$char_traits@D@std@@V?$allocator@D@2@@std@@PAVCObject3D@@@std@@PAX@std@@_N@1@$$QAU?$pair@$$CBV?$basic_string@DU?$char_traits@D@std@@V?$allocator@D@2@@std@@PAVCObject3D@@@1@@Z$2:
  00000	8d 4d dc	 lea	 ecx, DWORD PTR $T3[ebp]
  00003	e9 00 00 00 00	 jmp	 ??1?$_Alloc_construct_ptr@V?$allocator@U?$_Tree_node@U?$pair@$$CBV?$basic_string@DU?$char_traits@D@std@@V?$allocator@D@2@@std@@PAVCObject3D@@@std@@PAX@std@@@std@@@std@@QAE@XZ ; std::_Alloc_construct_ptr<std::allocator<std::_Tree_node<std::pair<std::basic_string<char,std::char_traits<char>,std::allocator<char> > const ,CObject3D *>,void *> > >::~_Alloc_construct_ptr<std::allocator<std::_Tree_node<std::pair<std::basic_string<char,std::char_traits<char>,std::allocator<char> > const ,CObject3D *>,void *> > >
__unwindfunclet$??$_Emplace@U?$pair@$$CBV?$basic_string@DU?$char_traits@D@std@@V?$allocator@D@2@@std@@PAVCObject3D@@@std@@@?$_Tree@V?$_Tmap_traits@V?$basic_string@DU?$char_traits@D@std@@V?$allocator@D@2@@std@@PAVCObject3D@@U?$less@V?$basic_string@DU?$char_traits@D@std@@V?$allocator@D@2@@std@@@2@V?$allocator@U?$pair@$$CBV?$basic_string@DU?$char_traits@D@std@@V?$allocator@D@2@@std@@PAVCObject3D@@@std@@@2@$0A@@std@@@std@@IAE?AU?$pair@PAU?$_Tree_node@U?$pair@$$CBV?$basic_string@DU?$char_traits@D@std@@V?$allocator@D@2@@std@@PAVCObject3D@@@std@@PAX@std@@_N@1@$$QAU?$pair@$$CBV?$basic_string@DU?$char_traits@D@std@@V?$allocator@D@2@@std@@PAVCObject3D@@@1@@Z$1:
  00008	8d 4d dc	 lea	 ecx, DWORD PTR $T3[ebp]
  0000b	e9 00 00 00 00	 jmp	 ??1?$_Tree_temp_node_alloc@V?$allocator@U?$_Tree_node@U?$pair@$$CBV?$basic_string@DU?$char_traits@D@std@@V?$allocator@D@2@@std@@PAVCObject3D@@@std@@PAX@std@@@std@@@std@@QAE@XZ
  00010	cc		 int	 3
  00011	cc		 int	 3
  00012	cc		 int	 3
  00013	cc		 int	 3
  00014	cc		 int	 3
__ehhandler$??$_Emplace@U?$pair@$$CBV?$basic_string@DU?$char_traits@D@std@@V?$allocator@D@2@@std@@PAVCObject3D@@@std@@@?$_Tree@V?$_Tmap_traits@V?$basic_string@DU?$char_traits@D@std@@V?$allocator@D@2@@std@@PAVCObject3D@@U?$less@V?$basic_string@DU?$char_traits@D@std@@V?$allocator@D@2@@std@@@2@V?$allocator@U?$pair@$$CBV?$basic_string@DU?$char_traits@D@std@@V?$allocator@D@2@@std@@PAVCObject3D@@@std@@@2@$0A@@std@@@std@@IAE?AU?$pair@PAU?$_Tree_node@U?$pair@$$CBV?$basic_string@DU?$char_traits@D@std@@V?$allocator@D@2@@std@@PAVCObject3D@@@std@@PAX@std@@_N@1@$$QAU?$pair@$$CBV?$basic_string@DU?$char_traits@D@std@@V?$allocator@D@2@@std@@PAVCObject3D@@@1@@Z:
  00015	90		 npad	 1
  00016	90		 npad	 1
  00017	8b 54 24 08	 mov	 edx, DWORD PTR [esp+8]
  0001b	8d 42 0c	 lea	 eax, DWORD PTR [edx+12]
  0001e	8b 4a cc	 mov	 ecx, DWORD PTR [edx-52]
  00021	33 c8		 xor	 ecx, eax
  00023	e8 00 00 00 00	 call	 @__security_check_cookie@4
  00028	b8 00 00 00 00	 mov	 eax, OFFSET __ehfuncinfo$??$_Emplace@U?$pair@$$CBV?$basic_string@DU?$char_traits@D@std@@V?$allocator@D@2@@std@@PAVCObject3D@@@std@@@?$_Tree@V?$_Tmap_traits@V?$basic_string@DU?$char_traits@D@std@@V?$allocator@D@2@@std@@PAVCObject3D@@U?$less@V?$basic_string@DU?$char_traits@D@std@@V?$allocator@D@2@@std@@@2@V?$allocator@U?$pair@$$CBV?$basic_string@DU?$char_traits@D@std@@V?$allocator@D@2@@std@@PAVCObject3D@@@std@@@2@$0A@@std@@@std@@IAE?AU?$pair@PAU?$_Tree_node@U?$pair@$$CBV?$basic_string@DU?$char_traits@D@std@@V?$allocator@D@2@@std@@PAVCObject3D@@@std@@PAX@std@@_N@1@$$QAU?$pair@$$CBV?$basic_string@DU?$char_traits@D@std@@V?$allocator@D@2@@std@@PAVCObject3D@@@1@@Z
  0002d	e9 00 00 00 00	 jmp	 ___CxxFrameHandler3
text$x	ENDS
??$_Emplace@U?$pair@$$CBV?$basic_string@DU?$char_traits@D@std@@V?$allocator@D@2@@std@@PAVCObject3D@@@std@@@?$_Tree@V?$_Tmap_traits@V?$basic_string@DU?$char_traits@D@std@@V?$allocator@D@2@@std@@PAVCObject3D@@U?$less@V?$basic_string@DU?$char_traits@D@std@@V?$allocator@D@2@@std@@@2@V?$allocator@U?$pair@$$CBV?$basic_string@DU?$char_traits@D@std@@V?$allocator@D@2@@std@@PAVCObject3D@@@std@@@2@$0A@@std@@@std@@IAE?AU?$pair@PAU?$_Tree_node@U?$pair@$$CBV?$basic_string@DU?$char_traits@D@std@@V?$allocator@D@2@@std@@PAVCObject3D@@@std@@PAX@std@@_N@1@$$QAU?$pair@$$CBV?$basic_string@DU?$char_traits@D@std@@V?$allocator@D@2@@std@@PAVCObject3D@@@1@@Z ENDP ; std::_Tree<std::_Tmap_traits<std::basic_string<char,std::char_traits<char>,std::allocator<char> >,CObject3D *,std::less<std::basic_string<char,std::char_traits<char>,std::allocator<char> > >,std::allocator<std::pair<std::basic_string<char,std::char_traits<char>,std::allocator<char> > const ,CObject3D *> >,0> >::_Emplace<std::pair<std::basic_string<char,std::char_traits<char>,std::allocator<char> > const ,CObject3D *> >
; Function compile flags: /Ogtp
;	COMDAT ??1?$pair@$$CBV?$basic_string@DU?$char_traits@D@std@@V?$allocator@D@2@@std@@PAVCObject3D@@@std@@QAE@XZ
_TEXT	SEGMENT
??1?$pair@$$CBV?$basic_string@DU?$char_traits@D@std@@V?$allocator@D@2@@std@@PAVCObject3D@@@std@@QAE@XZ PROC ; std::pair<std::basic_string<char,std::char_traits<char>,std::allocator<char> > const ,CObject3D *>::~pair<std::basic_string<char,std::char_traits<char>,std::allocator<char> > const ,CObject3D *>, COMDAT
; _this$ = ecx
  00000	e9 00 00 00 00	 jmp	 ??1?$basic_string@DU?$char_traits@D@std@@V?$allocator@D@2@@std@@QAE@XZ ; std::basic_string<char,std::char_traits<char>,std::allocator<char> >::~basic_string<char,std::char_traits<char>,std::allocator<char> >
??1?$pair@$$CBV?$basic_string@DU?$char_traits@D@std@@V?$allocator@D@2@@std@@PAVCObject3D@@@std@@QAE@XZ ENDP ; std::pair<std::basic_string<char,std::char_traits<char>,std::allocator<char> > const ,CObject3D *>::~pair<std::basic_string<char,std::char_traits<char>,std::allocator<char> > const ,CObject3D *>
_TEXT	ENDS
; Function compile flags: /Ogtp
; File C:\Program Files\Microsoft Visual Studio\2022\Professional\VC\Tools\MSVC\14.44.35207\include\xtree
;	COMDAT ??E?$_Tree_unchecked_const_iterator@V?$_Tree_val@U?$_Tree_simple_types@U?$pair@$$CBV?$basic_string@DU?$char_traits@D@std@@V?$allocator@D@2@@std@@PAVCObject3D@@@std@@@std@@@std@@U_Iterator_base0@2@@std@@QAEAAV01@XZ
_TEXT	SEGMENT
??E?$_Tree_unchecked_const_iterator@V?$_Tree_val@U?$_Tree_simple_types@U?$pair@$$CBV?$basic_string@DU?$char_traits@D@std@@V?$allocator@D@2@@std@@PAVCObject3D@@@std@@@std@@@std@@U_Iterator_base0@2@@std@@QAEAAV01@XZ PROC ; std::_Tree_unchecked_const_iterator<std::_Tree_val<std::_Tree_simple_types<std::pair<std::basic_string<char,std::char_traits<char>,std::allocator<char> > const ,CObject3D *> > >,std::_Iterator_base0>::operator++, COMDAT
; _this$ = ecx

; 49   :     _Tree_unchecked_const_iterator& operator++() noexcept {

  00000	56		 push	 esi
  00001	8b f1		 mov	 esi, ecx
  00003	57		 push	 edi

; 50   :         if (_Ptr->_Right->_Isnil) { // climb looking for right subtree

  00004	8b 16		 mov	 edx, DWORD PTR [esi]
  00006	8b 7a 08	 mov	 edi, DWORD PTR [edx+8]
  00009	80 7f 0d 00	 cmp	 BYTE PTR [edi+13], 0
  0000d	74 22		 je	 SHORT $LN4@operator

; 51   :             _Nodeptr _Pnode;
; 52   :             while (!(_Pnode = _Ptr->_Parent)->_Isnil && _Ptr == _Pnode->_Right) {

  0000f	8b 42 04	 mov	 eax, DWORD PTR [edx+4]
  00012	80 78 0d 00	 cmp	 BYTE PTR [eax+13], 0
  00016	75 12		 jne	 SHORT $LN21@operator
$LL2@operator:
  00018	3b 50 08	 cmp	 edx, DWORD PTR [eax+8]
  0001b	75 0d		 jne	 SHORT $LN21@operator

; 53   :                 _Ptr = _Pnode; // ==> parent while right subtree

  0001d	89 06		 mov	 DWORD PTR [esi], eax
  0001f	8b d0		 mov	 edx, eax
  00021	8b 40 04	 mov	 eax, DWORD PTR [eax+4]
  00024	80 78 0d 00	 cmp	 BYTE PTR [eax+13], 0
  00028	74 ee		 je	 SHORT $LL2@operator
$LN21@operator:

; 54   :             }
; 55   : 
; 56   :             _Ptr = _Pnode; // ==> parent (head if end())
; 57   :         } else {
; 58   :             _Ptr = _Mytree::_Min(_Ptr->_Right); // ==> smallest of right subtree
; 59   :         }
; 60   : 
; 61   :         return *this;

  0002a	89 06		 mov	 DWORD PTR [esi], eax

; 62   :     }

  0002c	8b c6		 mov	 eax, esi
  0002e	5f		 pop	 edi
  0002f	5e		 pop	 esi
  00030	c3		 ret	 0
$LN4@operator:

; 476  :         while (!_Pnode->_Left->_Isnil) {

  00031	8b 0f		 mov	 ecx, DWORD PTR [edi]
  00033	80 79 0d 00	 cmp	 BYTE PTR [ecx+13], 0
  00037	75 13		 jne	 SHORT $LN10@operator
  00039	0f 1f 80 00 00
	00 00		 npad	 7
$LL9@operator:
  00040	8b 01		 mov	 eax, DWORD PTR [ecx]

; 477  :             _Pnode = _Pnode->_Left;

  00042	8b f9		 mov	 edi, ecx
  00044	8b c8		 mov	 ecx, eax
  00046	80 78 0d 00	 cmp	 BYTE PTR [eax+13], 0
  0004a	74 f4		 je	 SHORT $LL9@operator
$LN10@operator:

; 54   :             }
; 55   : 
; 56   :             _Ptr = _Pnode; // ==> parent (head if end())
; 57   :         } else {
; 58   :             _Ptr = _Mytree::_Min(_Ptr->_Right); // ==> smallest of right subtree
; 59   :         }
; 60   : 
; 61   :         return *this;

  0004c	89 3e		 mov	 DWORD PTR [esi], edi

; 62   :     }

  0004e	8b c6		 mov	 eax, esi
  00050	5f		 pop	 edi
  00051	5e		 pop	 esi
  00052	c3		 ret	 0
??E?$_Tree_unchecked_const_iterator@V?$_Tree_val@U?$_Tree_simple_types@U?$pair@$$CBV?$basic_string@DU?$char_traits@D@std@@V?$allocator@D@2@@std@@PAVCObject3D@@@std@@@std@@@std@@U_Iterator_base0@2@@std@@QAEAAV01@XZ ENDP ; std::_Tree_unchecked_const_iterator<std::_Tree_val<std::_Tree_simple_types<std::pair<std::basic_string<char,std::char_traits<char>,std::allocator<char> > const ,CObject3D *> > >,std::_Iterator_base0>::operator++
_TEXT	ENDS
; Function compile flags: /Ogtp
;	COMDAT ??__Fg_Object3DMng@@YAXXZ
text$yd	SEGMENT
??__Fg_Object3DMng@@YAXXZ PROC				; `dynamic atexit destructor for 'g_Object3DMng'', COMDAT
  00000	b9 00 00 00 00	 mov	 ecx, OFFSET ?g_Object3DMng@@3VCObject3DMng@@A ; g_Object3DMng
  00005	e9 00 00 00 00	 jmp	 ??1CObject3DMng@@QAE@XZ	; CObject3DMng::~CObject3DMng
??__Fg_Object3DMng@@YAXXZ ENDP				; `dynamic atexit destructor for 'g_Object3DMng''
text$yd	ENDS
; Function compile flags: /Ogtp
; File C:\IAGOS\server\v18\Source\Source\_Common\object3d.cpp
;	COMDAT ??__Eg_Object3DMng@@YAXXZ
text$di	SEGMENT
??__Eg_Object3DMng@@YAXXZ PROC				; `dynamic initializer for 'g_Object3DMng'', COMDAT

; 227  : CObject3DMng		g_Object3DMng;

  00000	b9 00 00 00 00	 mov	 ecx, OFFSET ?g_Object3DMng@@3VCObject3DMng@@A ; g_Object3DMng
  00005	e8 00 00 00 00	 call	 ??0CObject3DMng@@QAE@XZ	; CObject3DMng::CObject3DMng
  0000a	68 00 00 00 00	 push	 OFFSET ??__Fg_Object3DMng@@YAXXZ ; `dynamic atexit destructor for 'g_Object3DMng''
  0000f	e8 00 00 00 00	 call	 _atexit
  00014	59		 pop	 ecx
  00015	c3		 ret	 0
??__Eg_Object3DMng@@YAXXZ ENDP				; `dynamic initializer for 'g_Object3DMng''
text$di	ENDS
; Function compile flags: /Ogtp
; File C:\Program Files\Microsoft Visual Studio\2022\Professional\VC\Tools\MSVC\14.44.35207\include\xmemory
;	COMDAT ??$_Allocate_manually_vector_aligned@U_Default_allocate_traits@std@@@std@@YAPAXI@Z
_TEXT	SEGMENT
__Bytes$ = 8						; size = 4
??$_Allocate_manually_vector_aligned@U_Default_allocate_traits@std@@@std@@YAPAXI@Z PROC ; std::_Allocate_manually_vector_aligned<std::_Default_allocate_traits>, COMDAT

; 182  : __declspec(allocator) void* _Allocate_manually_vector_aligned(const size_t _Bytes) {

  00000	55		 push	 ebp
  00001	8b ec		 mov	 ebp, esp

; 183  :     // allocate _Bytes manually aligned to at least _Big_allocation_alignment
; 184  :     const size_t _Block_size = _Non_user_size + _Bytes;

  00003	8b 45 08	 mov	 eax, DWORD PTR __Bytes$[ebp]
  00006	8d 48 23	 lea	 ecx, DWORD PTR [eax+35]

; 185  :     if (_Block_size <= _Bytes) {

  00009	3b c8		 cmp	 ecx, eax
  0000b	0f 86 00 00 00
	00		 jbe	 ?_Throw_bad_array_new_length@std@@YAXXZ ; std::_Throw_bad_array_new_length

; 136  :         return ::operator new(_Bytes);

  00011	51		 push	 ecx
  00012	e8 00 00 00 00	 call	 ??2@YAPAXI@Z		; operator new

; 186  :         _Throw_bad_array_new_length(); // add overflow
; 187  :     }
; 188  : 
; 189  :     const uintptr_t _Ptr_container = reinterpret_cast<uintptr_t>(_Traits::_Allocate(_Block_size));

  00017	8b c8		 mov	 ecx, eax

; 136  :         return ::operator new(_Bytes);

  00019	83 c4 04	 add	 esp, 4

; 190  :     _STL_VERIFY(_Ptr_container != 0, "invalid argument"); // validate even in release since we're doing p[-1]

  0001c	85 c9		 test	 ecx, ecx
  0001e	74 0b		 je	 SHORT $LN9@Allocate_m

; 191  :     void* const _Ptr = reinterpret_cast<void*>((_Ptr_container + _Non_user_size) & ~(_Big_allocation_alignment - 1));

  00020	8d 41 23	 lea	 eax, DWORD PTR [ecx+35]
  00023	83 e0 e0	 and	 eax, -32		; ffffffe0H

; 192  :     static_cast<uintptr_t*>(_Ptr)[-1] = _Ptr_container;

  00026	89 48 fc	 mov	 DWORD PTR [eax-4], ecx

; 193  : 
; 194  : #ifdef _DEBUG
; 195  :     static_cast<uintptr_t*>(_Ptr)[-2] = _Big_allocation_sentinel;
; 196  : #endif // defined(_DEBUG)
; 197  :     return _Ptr;
; 198  : }

  00029	5d		 pop	 ebp
  0002a	c3		 ret	 0
$LN9@Allocate_m:

; 190  :     _STL_VERIFY(_Ptr_container != 0, "invalid argument"); // validate even in release since we're doing p[-1]

  0002b	6a 00		 push	 0
  0002d	6a 00		 push	 0
  0002f	6a 00		 push	 0
  00031	6a 00		 push	 0
  00033	6a 00		 push	 0
  00035	e8 00 00 00 00	 call	 __invoke_watson
$LN7@Allocate_m:
  0003a	cc		 int	 3
??$_Allocate_manually_vector_aligned@U_Default_allocate_traits@std@@@std@@YAPAXI@Z ENDP ; std::_Allocate_manually_vector_aligned<std::_Default_allocate_traits>
_TEXT	ENDS
; Function compile flags: /Ogtp
; File C:\Program Files\Microsoft Visual Studio\2022\Professional\VC\Tools\MSVC\14.44.35207\include\xstring
; File C:\Program Files\Microsoft Visual Studio\2022\Professional\VC\Tools\MSVC\14.44.35207\include\__msvc_string_view.hpp
; File C:\Program Files\Microsoft Visual Studio\2022\Professional\VC\Tools\MSVC\14.44.35207\include\xstring
; File C:\Program Files\Microsoft Visual Studio\2022\Professional\VC\Tools\MSVC\14.44.35207\include\__msvc_string_view.hpp
; File C:\Program Files\Microsoft Visual Studio\2022\Professional\VC\Tools\MSVC\14.44.35207\include\xstring
; File C:\Program Files\Microsoft Visual Studio\2022\Professional\VC\Tools\MSVC\14.44.35207\include\__msvc_string_view.hpp
; File C:\Program Files\Microsoft Visual Studio\2022\Professional\VC\Tools\MSVC\14.44.35207\include\xstring
;	COMDAT ??$?MDU?$char_traits@D@std@@V?$allocator@D@1@@std@@YA_NABV?$basic_string@DU?$char_traits@D@std@@V?$allocator@D@2@@0@0@Z
_TEXT	SEGMENT
__Left$ = 8						; size = 4
__Right$ = 12						; size = 4
??$?MDU?$char_traits@D@std@@V?$allocator@D@1@@std@@YA_NABV?$basic_string@DU?$char_traits@D@std@@V?$allocator@D@2@@0@0@Z PROC ; std::operator<<char,std::char_traits<char>,std::allocator<char> >, COMDAT

; 3307 :     const basic_string<_Elem, _Traits, _Alloc>& _Left, const basic_string<_Elem, _Traits, _Alloc>& _Right) noexcept {

  00000	55		 push	 ebp
  00001	8b ec		 mov	 ebp, esp

; 444  :         const value_type* _Result = _Bx._Buf;

  00003	8b 45 0c	 mov	 eax, DWORD PTR __Right$[ebp]
  00006	8b c8		 mov	 ecx, eax

; 453  :         return _Myres > _Small_string_capacity;

  00008	83 78 14 0f	 cmp	 DWORD PTR [eax+20], 15	; 0000000fH

; 445  :         if (_Large_mode_engaged()) {

  0000c	76 02		 jbe	 SHORT $LN8@operator

; 446  :             _Result = _Unfancy(_Bx._Ptr);

  0000e	8b 08		 mov	 ecx, DWORD PTR [eax]
$LN8@operator:
  00010	53		 push	 ebx
  00011	56		 push	 esi

; 444  :         const value_type* _Result = _Bx._Buf;

  00012	8b 75 08	 mov	 esi, DWORD PTR __Left$[ebp]
  00015	8b d6		 mov	 edx, esi
  00017	57		 push	 edi

; 453  :         return _Myres > _Small_string_capacity;

  00018	83 7e 14 0f	 cmp	 DWORD PTR [esi+20], 15	; 0000000fH

; 445  :         if (_Large_mode_engaged()) {

  0001c	76 02		 jbe	 SHORT $LN15@operator

; 446  :             _Result = _Unfancy(_Bx._Ptr);

  0001e	8b 16		 mov	 edx, DWORD PTR [esi]
$LN15@operator:

; 2890 :         return _Traits_compare<_Traits>(_Mypair._Myval2._Myptr(), _Mypair._Myval2._Mysize,

  00020	8b 5e 10	 mov	 ebx, DWORD PTR [esi+16]
  00023	8b f3		 mov	 esi, ebx
  00025	8b 78 10	 mov	 edi, DWORD PTR [eax+16]
  00028	3b fb		 cmp	 edi, ebx
  0002a	0f 42 f7	 cmovb	 esi, edi
; File C:\Program Files\Microsoft Visual Studio\2022\Professional\VC\Tools\MSVC\14.44.35207\include\__msvc_string_view.hpp

; 439  :         return _CSTD memcmp(_First1, _First2, _Count);

  0002d	83 ee 04	 sub	 esi, 4
  00030	72 11		 jb	 SHORT $LN35@operator
$LL36@operator:
  00032	8b 02		 mov	 eax, DWORD PTR [edx]
  00034	3b 01		 cmp	 eax, DWORD PTR [ecx]
  00036	75 10		 jne	 SHORT $LN34@operator
  00038	83 c2 04	 add	 edx, 4
  0003b	83 c1 04	 add	 ecx, 4
  0003e	83 ee 04	 sub	 esi, 4
  00041	73 ef		 jae	 SHORT $LL36@operator
$LN35@operator:
  00043	83 fe fc	 cmp	 esi, -4			; fffffffcH
  00046	74 34		 je	 SHORT $LN33@operator
$LN34@operator:
  00048	8a 02		 mov	 al, BYTE PTR [edx]
  0004a	3a 01		 cmp	 al, BYTE PTR [ecx]
  0004c	75 27		 jne	 SHORT $LN37@operator
  0004e	83 fe fd	 cmp	 esi, -3			; fffffffdH
  00051	74 29		 je	 SHORT $LN33@operator
  00053	8a 42 01	 mov	 al, BYTE PTR [edx+1]
  00056	3a 41 01	 cmp	 al, BYTE PTR [ecx+1]
  00059	75 1a		 jne	 SHORT $LN37@operator
  0005b	83 fe fe	 cmp	 esi, -2			; fffffffeH
  0005e	74 1c		 je	 SHORT $LN33@operator
  00060	8a 42 02	 mov	 al, BYTE PTR [edx+2]
  00063	3a 41 02	 cmp	 al, BYTE PTR [ecx+2]
  00066	75 0d		 jne	 SHORT $LN37@operator
  00068	83 fe ff	 cmp	 esi, -1
  0006b	74 0f		 je	 SHORT $LN33@operator
  0006d	8a 42 03	 mov	 al, BYTE PTR [edx+3]
  00070	3a 41 03	 cmp	 al, BYTE PTR [ecx+3]
  00073	74 07		 je	 SHORT $LN33@operator
$LN37@operator:
  00075	1b c0		 sbb	 eax, eax
  00077	83 c8 01	 or	 eax, 1
  0007a	eb 02		 jmp	 SHORT $LN38@operator
$LN33@operator:
  0007c	33 c0		 xor	 eax, eax
$LN38@operator:

; 621  :     if (_Ans != 0) {

  0007e	85 c0		 test	 eax, eax
  00080	75 13		 jne	 SHORT $LN24@operator

; 622  :         return _Ans;
; 623  :     }
; 624  : 
; 625  :     if (_Left_size < _Right_size) {

  00082	3b fb		 cmp	 edi, ebx
  00084	76 0b		 jbe	 SHORT $LN51@operator
; File C:\Program Files\Microsoft Visual Studio\2022\Professional\VC\Tools\MSVC\14.44.35207\include\xstring

; 3308 :     return _Left.compare(_Right) < 0;

  00086	5f		 pop	 edi
; File C:\Program Files\Microsoft Visual Studio\2022\Professional\VC\Tools\MSVC\14.44.35207\include\__msvc_string_view.hpp

; 626  :         return -1;

  00087	83 c8 ff	 or	 eax, -1
; File C:\Program Files\Microsoft Visual Studio\2022\Professional\VC\Tools\MSVC\14.44.35207\include\xstring

; 3308 :     return _Left.compare(_Right) < 0;

  0008a	5e		 pop	 esi
  0008b	c1 e8 1f	 shr	 eax, 31			; 0000001fH
  0008e	5b		 pop	 ebx

; 3309 : }

  0008f	5d		 pop	 ebp
  00090	c3		 ret	 0
$LN51@operator:
; File C:\Program Files\Microsoft Visual Studio\2022\Professional\VC\Tools\MSVC\14.44.35207\include\__msvc_string_view.hpp

; 629  :     if (_Left_size > _Right_size) {

  00091	1b c0		 sbb	 eax, eax
  00093	f7 d8		 neg	 eax
$LN24@operator:
; File C:\Program Files\Microsoft Visual Studio\2022\Professional\VC\Tools\MSVC\14.44.35207\include\xstring

; 3308 :     return _Left.compare(_Right) < 0;

  00095	5f		 pop	 edi
  00096	5e		 pop	 esi
  00097	c1 e8 1f	 shr	 eax, 31			; 0000001fH
  0009a	5b		 pop	 ebx

; 3309 : }

  0009b	5d		 pop	 ebp
  0009c	c3		 ret	 0
??$?MDU?$char_traits@D@std@@V?$allocator@D@1@@std@@YA_NABV?$basic_string@DU?$char_traits@D@std@@V?$allocator@D@2@@0@0@Z ENDP ; std::operator<<char,std::char_traits<char>,std::allocator<char> >
_TEXT	ENDS
; Function compile flags: /Ogtp
; File C:\IAGOS\server\v18\Source\Source\_Common\object3d.cpp
;	COMDAT ?Process@CObject3DMng@@QAEXXZ
_TEXT	SEGMENT
?Process@CObject3DMng@@QAEXXZ PROC			; CObject3DMng::Process, COMDAT
; _this$ = ecx

; 466  : }

  00000	c2 00 00	 ret	 0
?Process@CObject3DMng@@QAEXXZ ENDP			; CObject3DMng::Process
_TEXT	ENDS
; Function compile flags: /Ogtp
; File C:\IAGOS\server\v18\Source\Source\_Common\object3d.cpp
; File C:\Program Files\Microsoft Visual Studio\2022\Professional\VC\Tools\MSVC\14.44.35207\include\xtree
; File C:\Program Files\Microsoft Visual Studio\2022\Professional\VC\Tools\MSVC\14.44.35207\include\type_traits
; File C:\Program Files\Microsoft Visual Studio\2022\Professional\VC\Tools\MSVC\14.44.35207\include\xtree
; File C:\Program Files\Microsoft Visual Studio\2022\Professional\VC\Tools\MSVC\14.44.35207\include\xstring
; File C:\Program Files\Microsoft Visual Studio\2022\Professional\VC\Tools\MSVC\14.44.35207\include\xmemory
; File C:\Program Files\Microsoft Visual Studio\2022\Professional\VC\Tools\MSVC\14.44.35207\include\xstring
; File C:\Program Files\Microsoft Visual Studio\2022\Professional\VC\Tools\MSVC\14.44.35207\include\xmemory
; File C:\Program Files\Microsoft Visual Studio\2022\Professional\VC\Tools\MSVC\14.44.35207\include\xtree
; File C:\IAGOS\server\v18\Source\Source\_Common\object3d.cpp
; File C:\IAGOS\server\v18\Source\Source\_Common\Object3d.h
; File C:\IAGOS\server\v18\Source\Source\_Common\object3d.cpp
; File C:\IAGOS\server\v18\Source\Source\_Common\Object3d.h
; File C:\IAGOS\server\v18\Source\Source\_Common\object3d.cpp
; File C:\Program Files\Microsoft Visual Studio\2022\Professional\VC\Tools\MSVC\14.44.35207\include\utility
; File C:\IAGOS\server\v18\Source\Source\_Common\object3d.cpp
; File C:\Program Files\Microsoft Visual Studio\2022\Professional\VC\Tools\MSVC\14.44.35207\include\utility
; File C:\Program Files\Microsoft Visual Studio\2022\Professional\VC\Tools\MSVC\14.44.35207\include\xtree
; File C:\IAGOS\server\v18\Source\Source\_Common\object3d.cpp
; File C:\Program Files\Microsoft Visual Studio\2022\Professional\VC\Tools\MSVC\14.44.35207\include\xtree
; File C:\IAGOS\server\v18\Source\Source\_Common\object3d.cpp
; File C:\Program Files\Microsoft Visual Studio\2022\Professional\VC\Tools\MSVC\14.44.35207\include\xmemory
; File C:\IAGOS\server\v18\Source\Source\_Common\object3d.cpp
;	COMDAT ?LoadObject3D@CObject3DMng@@QAEPAVCObject3D@@PAUIDirect3DDevice9@@PBD@Z
_TEXT	SEGMENT
__Loc$2 = -316						; size = 12
__Result$3 = -312					; size = 8
$T4 = -308						; size = 4
$T5 = -304						; size = 28
$T6 = -300						; size = 24
_sFile$ = -276						; size = 260
__$ArrayPad$ = -16					; size = 4
__$EHRec$ = -12						; size = 12
_pd3dDevice$ = 8					; size = 4
_szFileName$ = 12					; size = 4
?LoadObject3D@CObject3DMng@@QAEPAVCObject3D@@PAUIDirect3DDevice9@@PBD@Z PROC ; CObject3DMng::LoadObject3D, COMDAT
; _this$ = ecx

; 371  : {

  00000	55		 push	 ebp
  00001	8b ec		 mov	 ebp, esp
  00003	6a ff		 push	 -1
  00005	68 00 00 00 00	 push	 __ehhandler$?LoadObject3D@CObject3DMng@@QAEPAVCObject3D@@PAUIDirect3DDevice9@@PBD@Z
  0000a	64 a1 00 00 00
	00		 mov	 eax, DWORD PTR fs:0
  00010	50		 push	 eax
  00011	81 ec 30 01 00
	00		 sub	 esp, 304		; 00000130H
  00017	a1 00 00 00 00	 mov	 eax, DWORD PTR ___security_cookie
  0001c	33 c5		 xor	 eax, ebp
  0001e	89 45 f0	 mov	 DWORD PTR __$ArrayPad$[ebp], eax
  00021	53		 push	 ebx
  00022	56		 push	 esi
  00023	57		 push	 edi
  00024	50		 push	 eax
  00025	8d 45 f4	 lea	 eax, DWORD PTR __$EHRec$[ebp]
  00028	64 a3 00 00 00
	00		 mov	 DWORD PTR fs:0, eax
  0002e	8b f9		 mov	 edi, ecx
  00030	8b 5d 0c	 mov	 ebx, DWORD PTR _szFileName$[ebp]

; 372  : #ifdef __JEFF_11_5
; 373  : 	char sFile[MAX_PATH]	= { 0,};

  00033	8d 85 ec fe ff
	ff		 lea	 eax, DWORD PTR _sFile$[ebp]
  00039	68 04 01 00 00	 push	 260			; 00000104H
  0003e	6a 00		 push	 0
  00040	50		 push	 eax
  00041	e8 00 00 00 00	 call	 _memset
  00046	8d 95 ec fe ff
	ff		 lea	 edx, DWORD PTR _sFile$[ebp]
  0004c	83 c4 0c	 add	 esp, 12			; 0000000cH

; 374  : 	strcpy( sFile, szFileName );

  0004f	8b cb		 mov	 ecx, ebx
  00051	2b d3		 sub	 edx, ebx
$LL6@LoadObject:
  00053	8a 01		 mov	 al, BYTE PTR [ecx]
  00055	8d 49 01	 lea	 ecx, DWORD PTR [ecx+1]
  00058	88 44 0a ff	 mov	 BYTE PTR [edx+ecx-1], al
  0005c	84 c0		 test	 al, al
  0005e	75 f3		 jne	 SHORT $LL6@LoadObject

; 375  : 	strlwr( sFile );

  00060	8d 85 ec fe ff
	ff		 lea	 eax, DWORD PTR _sFile$[ebp]
  00066	50		 push	 eax
  00067	e8 00 00 00 00	 call	 _strlwr
  0006c	83 c4 04	 add	 esp, 4

; 376  : 
; 377  : 	map<string, CObject3D*>::iterator i		= m_mapObject3D.find( sFile );

  0006f	8d 85 ec fe ff
	ff		 lea	 eax, DWORD PTR _sFile$[ebp]
  00075	8d 8d d4 fe ff
	ff		 lea	 ecx, DWORD PTR $T6[ebp]
  0007b	50		 push	 eax
  0007c	e8 00 00 00 00	 call	 ??0?$basic_string@DU?$char_traits@D@std@@V?$allocator@D@2@@std@@QAE@QBD@Z ; std::basic_string<char,std::char_traits<char>,std::allocator<char> >::basic_string<char,std::char_traits<char>,std::allocator<char> >
; File C:\Program Files\Microsoft Visual Studio\2022\Professional\VC\Tools\MSVC\14.44.35207\include\xtree

; 1384 :         const _Tree_find_result<_Nodeptr> _Loc = _Find_lower_bound(_Keyval);

  00081	8d 85 d4 fe ff
	ff		 lea	 eax, DWORD PTR $T6[ebp]
  00087	8b cf		 mov	 ecx, edi
  00089	50		 push	 eax
  0008a	8d 85 c4 fe ff
	ff		 lea	 eax, DWORD PTR __Loc$2[ebp]
  00090	50		 push	 eax
  00091	e8 00 00 00 00	 call	 ??$_Find_lower_bound@V?$basic_string@DU?$char_traits@D@std@@V?$allocator@D@2@@std@@@?$_Tree@V?$_Tmap_traits@V?$basic_string@DU?$char_traits@D@std@@V?$allocator@D@2@@std@@PAVCObject3D@@U?$less@V?$basic_string@DU?$char_traits@D@std@@V?$allocator@D@2@@std@@@2@V?$allocator@U?$pair@$$CBV?$basic_string@DU?$char_traits@D@std@@V?$allocator@D@2@@std@@PAVCObject3D@@@std@@@2@$0A@@std@@@std@@IBE?AU?$_Tree_find_result@PAU?$_Tree_node@U?$pair@$$CBV?$basic_string@DU?$char_traits@D@std@@V?$allocator@D@2@@std@@PAVCObject3D@@@std@@PAX@std@@@1@ABV?$basic_string@DU?$char_traits@D@std@@V?$allocator@D@2@@1@@Z ; std::_Tree<std::_Tmap_traits<std::basic_string<char,std::char_traits<char>,std::allocator<char> >,CObject3D *,std::less<std::basic_string<char,std::char_traits<char>,std::allocator<char> > >,std::allocator<std::pair<std::basic_string<char,std::char_traits<char>,std::allocator<char> > const ,CObject3D *> >,0> >::_Find_lower_bound<std::basic_string<char,std::char_traits<char>,std::allocator<char> > >

; 1624 :         return !_Bound->_Isnil && !_DEBUG_LT_PRED(_Getcomp(), _Keyval, _Traits::_Kfn(_Bound->_Myval));

  00096	8b b5 cc fe ff
	ff		 mov	 esi, DWORD PTR __Loc$2[ebp+8]
  0009c	80 7e 0d 00	 cmp	 BYTE PTR [esi+13], 0
  000a0	75 17		 jne	 SHORT $LN17@LoadObject
  000a2	8d 46 10	 lea	 eax, DWORD PTR [esi+16]
; File C:\Program Files\Microsoft Visual Studio\2022\Professional\VC\Tools\MSVC\14.44.35207\include\type_traits

; 2380 :         return _Left < _Right;

  000a5	50		 push	 eax
  000a6	8d 85 d4 fe ff
	ff		 lea	 eax, DWORD PTR $T6[ebp]
  000ac	50		 push	 eax
  000ad	e8 00 00 00 00	 call	 ??$?MDU?$char_traits@D@std@@V?$allocator@D@1@@std@@YA_NABV?$basic_string@DU?$char_traits@D@std@@V?$allocator@D@2@@0@0@Z ; std::operator<<char,std::char_traits<char>,std::allocator<char> >
  000b2	83 c4 08	 add	 esp, 8
; File C:\Program Files\Microsoft Visual Studio\2022\Professional\VC\Tools\MSVC\14.44.35207\include\xtree

; 1624 :         return !_Bound->_Isnil && !_DEBUG_LT_PRED(_Getcomp(), _Keyval, _Traits::_Kfn(_Bound->_Myval));

  000b5	84 c0		 test	 al, al
  000b7	74 02		 je	 SHORT $LN16@LoadObject
$LN17@LoadObject:

; 1389 :         return _Get_scary()->_Myhead;

  000b9	8b 37		 mov	 esi, DWORD PTR [edi]
$LN16@LoadObject:
; File C:\Program Files\Microsoft Visual Studio\2022\Professional\VC\Tools\MSVC\14.44.35207\include\xstring

; 453  :         return _Myres > _Small_string_capacity;

  000bb	8b 8d e8 fe ff
	ff		 mov	 ecx, DWORD PTR $T6[ebp+20]
  000c1	83 f9 0f	 cmp	 ecx, 15			; 0000000fH

; 3083 :         if (_My_data._Large_mode_engaged()) {

  000c4	76 2f		 jbe	 SHORT $LN55@LoadObject
; File C:\Program Files\Microsoft Visual Studio\2022\Professional\VC\Tools\MSVC\14.44.35207\include\xmemory

; 985  :         _STD _Deallocate<_New_alignof<_Ty>>(_Ptr, sizeof(_Ty) * _Count);

  000c6	8b 95 d4 fe ff
	ff		 mov	 edx, DWORD PTR $T6[ebp]
; File C:\Program Files\Microsoft Visual Studio\2022\Professional\VC\Tools\MSVC\14.44.35207\include\xstring

; 852  :         _Al.deallocate(_Old_ptr, _Capacity + 1); // +1 for null terminator

  000cc	41		 inc	 ecx
; File C:\Program Files\Microsoft Visual Studio\2022\Professional\VC\Tools\MSVC\14.44.35207\include\xmemory

; 985  :         _STD _Deallocate<_New_alignof<_Ty>>(_Ptr, sizeof(_Ty) * _Count);

  000cd	8b c2		 mov	 eax, edx

; 284  :         if (_Bytes >= _Big_allocation_threshold) {

  000cf	81 f9 00 10 00
	00		 cmp	 ecx, 4096		; 00001000H
  000d5	72 14		 jb	 SHORT $LN60@LoadObject

; 205  :     const uintptr_t _Ptr_container   = _Ptr_user[-1];

  000d7	8b 50 fc	 mov	 edx, DWORD PTR [eax-4]
  000da	83 c1 23	 add	 ecx, 35			; 00000023H
  000dd	2b c2		 sub	 eax, edx

; 219  :     _STL_VERIFY(_Back_shift >= _Min_back_shift && _Back_shift <= _Non_user_size, "invalid argument");

  000df	83 c0 fc	 add	 eax, -4			; fffffffcH
  000e2	83 f8 1f	 cmp	 eax, 31			; 0000001fH
  000e5	0f 87 db 00 00
	00		 ja	 $LN138@LoadObject
$LN60@LoadObject:

; 289  :         ::operator delete(_Ptr, _Bytes);

  000eb	51		 push	 ecx
  000ec	52		 push	 edx
  000ed	e8 00 00 00 00	 call	 ??3@YAXPAXI@Z		; operator delete
  000f2	83 c4 08	 add	 esp, 8
$LN55@LoadObject:
; File C:\Program Files\Microsoft Visual Studio\2022\Professional\VC\Tools\MSVC\14.44.35207\include\xtree

; 37   :     _Tree_unchecked_const_iterator(_Nodeptr _Pnode, const _Mytree* _Plist) noexcept : _Ptr(_Pnode) {

  000f5	3b 37		 cmp	 esi, DWORD PTR [edi]
; File C:\IAGOS\server\v18\Source\Source\_Common\object3d.cpp

; 378  : 	if( i != m_mapObject3D.end() )

  000f7	74 11		 je	 SHORT $LN2@LoadObject

; 379  : 	{
; 380  : 		i->second->m_nUseCnt++;

  000f9	8b 46 28	 mov	 eax, DWORD PTR [esi+40]
  000fc	ff 80 20 0c 00
	00		 inc	 DWORD PTR [eax+3104]

; 381  : 		return i->second;

  00102	8b 46 28	 mov	 eax, DWORD PTR [esi+40]
  00105	e9 9e 00 00 00	 jmp	 $LN1@LoadObject
$LN2@LoadObject:

; 382  : 	}
; 383  : 	CObject3D* pObject3D	= new CObject3D;

  0010a	68 30 0c 00 00	 push	 3120			; 00000c30H
  0010f	e8 00 00 00 00	 call	 ??2@YAPAXI@Z		; operator new
  00114	83 c4 04	 add	 esp, 4
  00117	89 85 cc fe ff
	ff		 mov	 DWORD PTR $T4[ebp], eax
  0011d	85 c0		 test	 eax, eax
  0011f	74 0b		 je	 SHORT $LN7@LoadObject
  00121	8b c8		 mov	 ecx, eax
  00123	e8 00 00 00 00	 call	 ??0CObject3D@@QAE@XZ	; CObject3D::CObject3D
  00128	8b f0		 mov	 esi, eax
  0012a	eb 02		 jmp	 SHORT $LN8@LoadObject
$LN7@LoadObject:
  0012c	33 f6		 xor	 esi, esi
$LN8@LoadObject:
; File C:\IAGOS\server\v18\Source\Source\_Common\Object3d.h

; 385  : 	HRESULT InitDeviceObjects( LPDIRECT3DDEVICE9 pd3dDevice ) { m_pd3dDevice = pd3dDevice;  return S_OK; }

  0012e	8b 45 08	 mov	 eax, DWORD PTR _pd3dDevice$[ebp]
; File C:\IAGOS\server\v18\Source\Source\_Common\object3d.cpp

; 385  : 	if( pObject3D->LoadObject( szFileName ) == FAIL )

  00131	8b ce		 mov	 ecx, esi
  00133	53		 push	 ebx
; File C:\IAGOS\server\v18\Source\Source\_Common\Object3d.h

; 385  : 	HRESULT InitDeviceObjects( LPDIRECT3DDEVICE9 pd3dDevice ) { m_pd3dDevice = pd3dDevice;  return S_OK; }

  00134	89 86 ac 00 00
	00		 mov	 DWORD PTR [esi+172], eax
; File C:\IAGOS\server\v18\Source\Source\_Common\object3d.cpp

; 385  : 	if( pObject3D->LoadObject( szFileName ) == FAIL )

  0013a	e8 00 00 00 00	 call	 ?LoadObject@CObject3D@@QAEHPBD@Z ; CObject3D::LoadObject
  0013f	83 f8 ff	 cmp	 eax, -1
  00142	75 19		 jne	 SHORT $LN3@LoadObject

; 386  : 	{
; 387  : 		SAFE_DELETE( pObject3D );
; 388  : 		return NULL;

  00144	8b ce		 mov	 ecx, esi
  00146	e8 00 00 00 00	 call	 ??1CObject3D@@QAE@XZ	; CObject3D::~CObject3D
  0014b	68 30 0c 00 00	 push	 3120			; 00000c30H
  00150	56		 push	 esi
  00151	e8 00 00 00 00	 call	 ??3@YAXPAXI@Z		; operator delete
  00156	83 c4 08	 add	 esp, 8
  00159	33 c0		 xor	 eax, eax
  0015b	eb 4b		 jmp	 SHORT $LN1@LoadObject
$LN3@LoadObject:
; File C:\Program Files\Microsoft Visual Studio\2022\Professional\VC\Tools\MSVC\14.44.35207\include\utility

; 274  :         : first(_STD forward<_Other1>(_Val1)), second(_STD forward<_Other2>(_Val2)) {

  0015d	8d 85 ec fe ff
	ff		 lea	 eax, DWORD PTR _sFile$[ebp]
; File C:\IAGOS\server\v18\Source\Source\_Common\object3d.cpp

; 390  : 	pObject3D->m_nUseCnt	= 1;

  00163	c7 86 20 0c 00
	00 01 00 00 00	 mov	 DWORD PTR [esi+3104], 1
; File C:\Program Files\Microsoft Visual Studio\2022\Professional\VC\Tools\MSVC\14.44.35207\include\utility

; 274  :         : first(_STD forward<_Other1>(_Val1)), second(_STD forward<_Other2>(_Val2)) {

  0016d	50		 push	 eax
  0016e	8d 8d d0 fe ff
	ff		 lea	 ecx, DWORD PTR $T5[ebp]
  00174	e8 00 00 00 00	 call	 ??0?$basic_string@DU?$char_traits@D@std@@V?$allocator@D@2@@std@@QAE@QBD@Z ; std::basic_string<char,std::char_traits<char>,std::allocator<char> >::basic_string<char,std::char_traits<char>,std::allocator<char> >
  00179	89 b5 e8 fe ff
	ff		 mov	 DWORD PTR $T5[ebp+24], esi
; File C:\Program Files\Microsoft Visual Studio\2022\Professional\VC\Tools\MSVC\14.44.35207\include\xtree

; 1246 :         const auto _Result = _Emplace(_STD move(_Val));

  0017f	8d 85 d0 fe ff
	ff		 lea	 eax, DWORD PTR $T5[ebp]
; File C:\IAGOS\server\v18\Source\Source\_Common\object3d.cpp

; 391  : 	bool bResult	= m_mapObject3D.insert( map<string, CObject3D*>::value_type( sFile, pObject3D ) ).second;

  00185	c7 45 fc 00 00
	00 00		 mov	 DWORD PTR __$EHRec$[ebp+8], 0
; File C:\Program Files\Microsoft Visual Studio\2022\Professional\VC\Tools\MSVC\14.44.35207\include\xtree

; 1246 :         const auto _Result = _Emplace(_STD move(_Val));

  0018c	50		 push	 eax
  0018d	8d 85 c8 fe ff
	ff		 lea	 eax, DWORD PTR __Result$3[ebp]
  00193	8b cf		 mov	 ecx, edi
  00195	50		 push	 eax
  00196	e8 00 00 00 00	 call	 ??$_Emplace@U?$pair@$$CBV?$basic_string@DU?$char_traits@D@std@@V?$allocator@D@2@@std@@PAVCObject3D@@@std@@@?$_Tree@V?$_Tmap_traits@V?$basic_string@DU?$char_traits@D@std@@V?$allocator@D@2@@std@@PAVCObject3D@@U?$less@V?$basic_string@DU?$char_traits@D@std@@V?$allocator@D@2@@std@@@2@V?$allocator@U?$pair@$$CBV?$basic_string@DU?$char_traits@D@std@@V?$allocator@D@2@@std@@PAVCObject3D@@@std@@@2@$0A@@std@@@std@@IAE?AU?$pair@PAU?$_Tree_node@U?$pair@$$CBV?$basic_string@DU?$char_traits@D@std@@V?$allocator@D@2@@std@@PAVCObject3D@@@std@@PAX@std@@_N@1@$$QAU?$pair@$$CBV?$basic_string@DU?$char_traits@D@std@@V?$allocator@D@2@@std@@PAVCObject3D@@@1@@Z ; std::_Tree<std::_Tmap_traits<std::basic_string<char,std::char_traits<char>,std::allocator<char> >,CObject3D *,std::less<std::basic_string<char,std::char_traits<char>,std::allocator<char> > >,std::allocator<std::pair<std::basic_string<char,std::char_traits<char>,std::allocator<char> > const ,CObject3D *> >,0> >::_Emplace<std::pair<std::basic_string<char,std::char_traits<char>,std::allocator<char> > const ,CObject3D *> >
  0019b	8d 8d d0 fe ff
	ff		 lea	 ecx, DWORD PTR $T5[ebp]
  001a1	e8 00 00 00 00	 call	 ??1?$basic_string@DU?$char_traits@D@std@@V?$allocator@D@2@@std@@QAE@XZ ; std::basic_string<char,std::char_traits<char>,std::allocator<char> >::~basic_string<char,std::char_traits<char>,std::allocator<char> >
; File C:\IAGOS\server\v18\Source\Source\_Common\object3d.cpp

; 393  : 	return pObject3D;

  001a6	8b c6		 mov	 eax, esi
$LN1@LoadObject:

; 460  : }

  001a8	8b 4d f4	 mov	 ecx, DWORD PTR __$EHRec$[ebp]
  001ab	64 89 0d 00 00
	00 00		 mov	 DWORD PTR fs:0, ecx
  001b2	59		 pop	 ecx
  001b3	5f		 pop	 edi
  001b4	5e		 pop	 esi
  001b5	5b		 pop	 ebx
  001b6	8b 4d f0	 mov	 ecx, DWORD PTR __$ArrayPad$[ebp]
  001b9	33 cd		 xor	 ecx, ebp
  001bb	e8 00 00 00 00	 call	 @__security_check_cookie@4
  001c0	8b e5		 mov	 esp, ebp
  001c2	5d		 pop	 ebp
  001c3	c2 08 00	 ret	 8
$LN138@LoadObject:
; File C:\Program Files\Microsoft Visual Studio\2022\Professional\VC\Tools\MSVC\14.44.35207\include\xmemory

; 219  :     _STL_VERIFY(_Back_shift >= _Min_back_shift && _Back_shift <= _Non_user_size, "invalid argument");

  001c6	6a 00		 push	 0
  001c8	6a 00		 push	 0
  001ca	6a 00		 push	 0
  001cc	6a 00		 push	 0
  001ce	6a 00		 push	 0
  001d0	e8 00 00 00 00	 call	 __invoke_watson
$LN136@LoadObject:
  001d5	cc		 int	 3
_TEXT	ENDS
;	COMDAT text$x
text$x	SEGMENT
__unwindfunclet$?LoadObject3D@CObject3DMng@@QAEPAVCObject3D@@PAUIDirect3DDevice9@@PBD@Z$2:
  00000	8d 8d d0 fe ff
	ff		 lea	 ecx, DWORD PTR $T5[ebp]
  00006	e9 00 00 00 00	 jmp	 ??1?$pair@$$CBV?$basic_string@DU?$char_traits@D@std@@V?$allocator@D@2@@std@@PAVCObject3D@@@std@@QAE@XZ
  0000b	cc		 int	 3
  0000c	cc		 int	 3
  0000d	cc		 int	 3
  0000e	cc		 int	 3
  0000f	cc		 int	 3
__ehhandler$?LoadObject3D@CObject3DMng@@QAEPAVCObject3D@@PAUIDirect3DDevice9@@PBD@Z:
  00010	90		 npad	 1
  00011	90		 npad	 1
  00012	8b 54 24 08	 mov	 edx, DWORD PTR [esp+8]
  00016	8d 42 0c	 lea	 eax, DWORD PTR [edx+12]
  00019	8b 8a c0 fe ff
	ff		 mov	 ecx, DWORD PTR [edx-320]
  0001f	33 c8		 xor	 ecx, eax
  00021	e8 00 00 00 00	 call	 @__security_check_cookie@4
  00026	8b 4a fc	 mov	 ecx, DWORD PTR [edx-4]
  00029	33 c8		 xor	 ecx, eax
  0002b	e8 00 00 00 00	 call	 @__security_check_cookie@4
  00030	b8 00 00 00 00	 mov	 eax, OFFSET __ehfuncinfo$?LoadObject3D@CObject3DMng@@QAEPAVCObject3D@@PAUIDirect3DDevice9@@PBD@Z
  00035	e9 00 00 00 00	 jmp	 ___CxxFrameHandler3
text$x	ENDS
?LoadObject3D@CObject3DMng@@QAEPAVCObject3D@@PAUIDirect3DDevice9@@PBD@Z ENDP ; CObject3DMng::LoadObject3D
; Function compile flags: /Ogtp
; File C:\IAGOS\server\v18\Source\Source\_Common\object3d.cpp
;	COMDAT ?DeleteObject3D@CObject3DMng@@QAEHPAVCObject3D@@@Z
_TEXT	SEGMENT
$T1 = -28						; size = 24
__$ArrayPad$ = -4					; size = 4
_pObject3D$ = 8						; size = 4
?DeleteObject3D@CObject3DMng@@QAEHPAVCObject3D@@@Z PROC	; CObject3DMng::DeleteObject3D, COMDAT
; _this$ = ecx

; 316  : {

  00000	55		 push	 ebp
  00001	8b ec		 mov	 ebp, esp
  00003	83 ec 1c	 sub	 esp, 28			; 0000001cH
  00006	a1 00 00 00 00	 mov	 eax, DWORD PTR ___security_cookie
  0000b	33 c5		 xor	 eax, ebp
  0000d	89 45 fc	 mov	 DWORD PTR __$ArrayPad$[ebp], eax
  00010	56		 push	 esi
  00011	8b 75 08	 mov	 esi, DWORD PTR _pObject3D$[ebp]
  00014	57		 push	 edi
  00015	8b f9		 mov	 edi, ecx

; 317  : #ifdef __JEFF_11_5
; 318  : 	if( !pObject3D )

  00017	85 f6		 test	 esi, esi
  00019	74 18		 je	 SHORT $LN15@DeleteObje

; 319  : 		return FALSE;
; 320  : 	if( m_mapObject3D.size() == 0 )

  0001b	83 7f 04 00	 cmp	 DWORD PTR [edi+4], 0
  0001f	74 12		 je	 SHORT $LN15@DeleteObje

; 321  : 		return FALSE;
; 322  : 	if( pObject3D->m_nUseCnt > 1 )

  00021	8b 86 20 0c 00
	00		 mov	 eax, DWORD PTR [esi+3104]
  00027	83 f8 01	 cmp	 eax, 1
  0002a	7e 1b		 jle	 SHORT $LN4@DeleteObje

; 323  : 		pObject3D->m_nUseCnt--;

  0002c	48		 dec	 eax
  0002d	89 86 20 0c 00
	00		 mov	 DWORD PTR [esi+3104], eax
$LN15@DeleteObje:

; 327  : 		SAFE_DELETE( pObject3D );
; 328  : 		return TRUE;
; 329  : 	}
; 330  : 	return FALSE;
; 331  : #else	// __JEFF_11_5
; 332  : 	if( pObject3D == NULL )	return FALSE;
; 333  : 	if( m_nMax == 0 )	return FALSE;
; 334  : 	
; 335  : 	int	i, j;
; 336  : 
; 337  : 	for( i = 0; i < MAX_OBJECT3D; i ++ )
; 338  : 	{
; 339  : 		if( m_pObject3DAry[i] )
; 340  : 		{
; 341  : 			if( m_pObject3DAry[i] == pObject3D )		// pObject3D를 찾았다.
; 342  : 			{
; 343  : 				if( m_pObject3DAry[i]->m_nUseCnt == 1 )			// 공유된게 아니다(usecnt == 1)
; 344  : 				{
; 345  : 					for( j = 0; j < MAX_OBJECT3D_CACHE; j ++ )
; 346  : 					{
; 347  : 						if( m_pCache[j] == pObject3D )
; 348  : 						{
; 349  : 							m_pCache[j] = NULL;			// 캐쉬에 있었는지 먼저 검사해보고 캐쉬를 먼저 치움.
; 350  : 							break;
; 351  : 						}
; 352  : 					}
; 353  : 					SAFE_DELETE( m_pObject3DAry[i] );			// 오브젝트 관리자에서도 삭제하고 실제 객체도 날려버림.
; 354  : 					m_nMax --;
; 355  : 					return TRUE;
; 356  : 				}
; 357  : 			}
; 358  : 		}
; 359  : 	}
; 360  : 
; 361  : 	return FALSE;
; 362  : #endif	// __JEFF_11_5
; 363  : }

  00033	5f		 pop	 edi
  00034	33 c0		 xor	 eax, eax
  00036	5e		 pop	 esi
  00037	8b 4d fc	 mov	 ecx, DWORD PTR __$ArrayPad$[ebp]
  0003a	33 cd		 xor	 ecx, ebp
  0003c	e8 00 00 00 00	 call	 @__security_check_cookie@4
  00041	8b e5		 mov	 esp, ebp
  00043	5d		 pop	 ebp
  00044	c2 04 00	 ret	 4
$LN4@DeleteObje:

; 324  : 	else
; 325  : 	{
; 326  : 		m_mapObject3D.erase( pObject3D->m_szFileName );

  00047	8d 86 c0 00 00
	00		 lea	 eax, DWORD PTR [esi+192]
  0004d	50		 push	 eax
  0004e	8d 4d e4	 lea	 ecx, DWORD PTR $T1[ebp]
  00051	e8 00 00 00 00	 call	 ??0?$basic_string@DU?$char_traits@D@std@@V?$allocator@D@2@@std@@QAE@QBD@Z ; std::basic_string<char,std::char_traits<char>,std::allocator<char> >::basic_string<char,std::char_traits<char>,std::allocator<char> >
  00056	8d 45 e4	 lea	 eax, DWORD PTR $T1[ebp]
  00059	8b cf		 mov	 ecx, edi
  0005b	50		 push	 eax
  0005c	e8 00 00 00 00	 call	 ?erase@?$_Tree@V?$_Tmap_traits@V?$basic_string@DU?$char_traits@D@std@@V?$allocator@D@2@@std@@PAVCObject3D@@U?$less@V?$basic_string@DU?$char_traits@D@std@@V?$allocator@D@2@@std@@@2@V?$allocator@U?$pair@$$CBV?$basic_string@DU?$char_traits@D@std@@V?$allocator@D@2@@std@@PAVCObject3D@@@std@@@2@$0A@@std@@@std@@QAEIABV?$basic_string@DU?$char_traits@D@std@@V?$allocator@D@2@@2@@Z ; std::_Tree<std::_Tmap_traits<std::basic_string<char,std::char_traits<char>,std::allocator<char> >,CObject3D *,std::less<std::basic_string<char,std::char_traits<char>,std::allocator<char> > >,std::allocator<std::pair<std::basic_string<char,std::char_traits<char>,std::allocator<char> > const ,CObject3D *> >,0> >::erase
  00061	8d 4d e4	 lea	 ecx, DWORD PTR $T1[ebp]
  00064	e8 00 00 00 00	 call	 ??1?$basic_string@DU?$char_traits@D@std@@V?$allocator@D@2@@std@@QAE@XZ ; std::basic_string<char,std::char_traits<char>,std::allocator<char> >::~basic_string<char,std::char_traits<char>,std::allocator<char> >
  00069	8b ce		 mov	 ecx, esi
  0006b	e8 00 00 00 00	 call	 ??1CObject3D@@QAE@XZ	; CObject3D::~CObject3D
  00070	68 30 0c 00 00	 push	 3120			; 00000c30H
  00075	56		 push	 esi
  00076	e8 00 00 00 00	 call	 ??3@YAXPAXI@Z		; operator delete

; 327  : 		SAFE_DELETE( pObject3D );
; 328  : 		return TRUE;
; 329  : 	}
; 330  : 	return FALSE;
; 331  : #else	// __JEFF_11_5
; 332  : 	if( pObject3D == NULL )	return FALSE;
; 333  : 	if( m_nMax == 0 )	return FALSE;
; 334  : 	
; 335  : 	int	i, j;
; 336  : 
; 337  : 	for( i = 0; i < MAX_OBJECT3D; i ++ )
; 338  : 	{
; 339  : 		if( m_pObject3DAry[i] )
; 340  : 		{
; 341  : 			if( m_pObject3DAry[i] == pObject3D )		// pObject3D를 찾았다.
; 342  : 			{
; 343  : 				if( m_pObject3DAry[i]->m_nUseCnt == 1 )			// 공유된게 아니다(usecnt == 1)
; 344  : 				{
; 345  : 					for( j = 0; j < MAX_OBJECT3D_CACHE; j ++ )
; 346  : 					{
; 347  : 						if( m_pCache[j] == pObject3D )
; 348  : 						{
; 349  : 							m_pCache[j] = NULL;			// 캐쉬에 있었는지 먼저 검사해보고 캐쉬를 먼저 치움.
; 350  : 							break;
; 351  : 						}
; 352  : 					}
; 353  : 					SAFE_DELETE( m_pObject3DAry[i] );			// 오브젝트 관리자에서도 삭제하고 실제 객체도 날려버림.
; 354  : 					m_nMax --;
; 355  : 					return TRUE;
; 356  : 				}
; 357  : 			}
; 358  : 		}
; 359  : 	}
; 360  : 
; 361  : 	return FALSE;
; 362  : #endif	// __JEFF_11_5
; 363  : }

  0007b	8b 4d fc	 mov	 ecx, DWORD PTR __$ArrayPad$[ebp]
  0007e	83 c4 08	 add	 esp, 8
  00081	33 cd		 xor	 ecx, ebp
  00083	b8 01 00 00 00	 mov	 eax, 1
  00088	5f		 pop	 edi
  00089	5e		 pop	 esi
  0008a	e8 00 00 00 00	 call	 @__security_check_cookie@4
  0008f	8b e5		 mov	 esp, ebp
  00091	5d		 pop	 ebp
  00092	c2 04 00	 ret	 4
?DeleteObject3D@CObject3DMng@@QAEHPAVCObject3D@@@Z ENDP	; CObject3DMng::DeleteObject3D
_TEXT	ENDS
; Function compile flags: /Ogtp
; File C:\IAGOS\server\v18\Source\Source\_Common\object3d.cpp
; File C:\Program Files\Microsoft Visual Studio\2022\Professional\VC\Tools\MSVC\14.44.35207\include\xtree
; File C:\Program Files\Microsoft Visual Studio\2022\Professional\VC\Tools\MSVC\14.44.35207\include\xmemory
; File C:\IAGOS\server\v18\Source\Source\_Common\object3d.cpp
;	COMDAT ??1CObject3DMng@@QAE@XZ
_TEXT	SEGMENT
__$EHRec$ = -12						; size = 12
??1CObject3DMng@@QAE@XZ PROC				; CObject3DMng::~CObject3DMng, COMDAT
; _this$ = ecx

; 235  : {

  00000	55		 push	 ebp
  00001	8b ec		 mov	 ebp, esp
  00003	6a ff		 push	 -1
  00005	68 00 00 00 00	 push	 __ehhandler$??1CObject3DMng@@QAE@XZ
  0000a	64 a1 00 00 00
	00		 mov	 eax, DWORD PTR fs:0
  00010	50		 push	 eax
  00011	56		 push	 esi
  00012	a1 00 00 00 00	 mov	 eax, DWORD PTR ___security_cookie
  00017	33 c5		 xor	 eax, ebp
  00019	50		 push	 eax
  0001a	8d 45 f4	 lea	 eax, DWORD PTR __$EHRec$[ebp]
  0001d	64 a3 00 00 00
	00		 mov	 DWORD PTR fs:0, eax
  00023	8b f1		 mov	 esi, ecx

; 236  : 	Destroy();

  00025	e8 00 00 00 00	 call	 ?Destroy@CObject3DMng@@QAEXXZ ; CObject3DMng::Destroy
; File C:\Program Files\Microsoft Visual Studio\2022\Professional\VC\Tools\MSVC\14.44.35207\include\xtree

; 777  :         _Erase_tree(_Al, _Myhead->_Parent);

  0002a	8b 06		 mov	 eax, DWORD PTR [esi]
  0002c	8b ce		 mov	 ecx, esi
  0002e	ff 70 04	 push	 DWORD PTR [eax+4]
  00031	56		 push	 esi
  00032	e8 00 00 00 00	 call	 ??$_Erase_tree@V?$allocator@U?$_Tree_node@U?$pair@$$CBV?$basic_string@DU?$char_traits@D@std@@V?$allocator@D@2@@std@@PAVCObject3D@@@std@@PAX@std@@@std@@@?$_Tree_val@U?$_Tree_simple_types@U?$pair@$$CBV?$basic_string@DU?$char_traits@D@std@@V?$allocator@D@2@@std@@PAVCObject3D@@@std@@@std@@@std@@QAEXAAV?$allocator@U?$_Tree_node@U?$pair@$$CBV?$basic_string@DU?$char_traits@D@std@@V?$allocator@D@2@@std@@PAVCObject3D@@@std@@PAX@std@@@1@PAU?$_Tree_node@U?$pair@$$CBV?$basic_string@DU?$char_traits@D@std@@V?$allocator@D@2@@std@@PAVCObject3D@@@std@@PAX@1@@Z ; std::_Tree_val<std::_Tree_simple_types<std::pair<std::basic_string<char,std::char_traits<char>,std::allocator<char> > const ,CObject3D *> > >::_Erase_tree<std::allocator<std::_Tree_node<std::pair<std::basic_string<char,std::char_traits<char>,std::allocator<char> > const ,CObject3D *>,void *> > >
; File C:\Program Files\Microsoft Visual Studio\2022\Professional\VC\Tools\MSVC\14.44.35207\include\xmemory

; 289  :         ::operator delete(_Ptr, _Bytes);

  00037	6a 2c		 push	 44			; 0000002cH
  00039	ff 36		 push	 DWORD PTR [esi]
  0003b	e8 00 00 00 00	 call	 ??3@YAXPAXI@Z		; operator delete
  00040	83 c4 08	 add	 esp, 8
; File C:\IAGOS\server\v18\Source\Source\_Common\object3d.cpp

; 237  : }

  00043	8b 4d f4	 mov	 ecx, DWORD PTR __$EHRec$[ebp]
  00046	64 89 0d 00 00
	00 00		 mov	 DWORD PTR fs:0, ecx
  0004d	59		 pop	 ecx
  0004e	5e		 pop	 esi
  0004f	8b e5		 mov	 esp, ebp
  00051	5d		 pop	 ebp
  00052	c3		 ret	 0
  00053	cc		 int	 3
  00054	cc		 int	 3
  00055	cc		 int	 3
  00056	cc		 int	 3
  00057	cc		 int	 3
_TEXT	ENDS
;	COMDAT text$x
text$x	SEGMENT
__ehhandler$??1CObject3DMng@@QAE@XZ:
  00000	90		 npad	 1
  00001	90		 npad	 1
  00002	8b 54 24 08	 mov	 edx, DWORD PTR [esp+8]
  00006	8d 42 0c	 lea	 eax, DWORD PTR [edx+12]
  00009	8b 4a f8	 mov	 ecx, DWORD PTR [edx-8]
  0000c	33 c8		 xor	 ecx, eax
  0000e	e8 00 00 00 00	 call	 @__security_check_cookie@4
  00013	b8 00 00 00 00	 mov	 eax, OFFSET __ehfuncinfo$??1CObject3DMng@@QAE@XZ
  00018	e9 00 00 00 00	 jmp	 ___CxxFrameHandler3
text$x	ENDS
??1CObject3DMng@@QAE@XZ ENDP				; CObject3DMng::~CObject3DMng
; Function compile flags: /Ogtp
; File C:\IAGOS\server\v18\Source\Source\_Common\object3d.cpp
; File C:\Program Files\Microsoft Visual Studio\2022\Professional\VC\Tools\MSVC\14.44.35207\include\xmemory
; File C:\IAGOS\server\v18\Source\Source\_Common\object3d.cpp
; File C:\Program Files\Microsoft Visual Studio\2022\Professional\VC\Tools\MSVC\14.44.35207\include\xtree
; File C:\Program Files\Microsoft Visual Studio\2022\Professional\VC\Tools\MSVC\14.44.35207\include\xmemory
; File C:\IAGOS\server\v18\Source\Source\_Common\object3d.cpp
; File C:\Program Files\Microsoft Visual Studio\2022\Professional\VC\Tools\MSVC\14.44.35207\include\xtree
; File C:\IAGOS\server\v18\Source\Source\_Common\object3d.cpp
;	COMDAT ??0CObject3DMng@@QAE@XZ
_TEXT	SEGMENT
_this$ = -4						; size = 4
??0CObject3DMng@@QAE@XZ PROC				; CObject3DMng::CObject3DMng, COMDAT
; _this$ = ecx

; 230  : {

  00000	55		 push	 ebp
  00001	8b ec		 mov	 ebp, esp
  00003	51		 push	 ecx
  00004	56		 push	 esi
  00005	8b f1		 mov	 esi, ecx
; File C:\Program Files\Microsoft Visual Studio\2022\Professional\VC\Tools\MSVC\14.44.35207\include\xmemory

; 136  :         return ::operator new(_Bytes);

  00007	6a 2c		 push	 44			; 0000002cH
; File C:\IAGOS\server\v18\Source\Source\_Common\object3d.cpp

; 230  : {

  00009	89 75 fc	 mov	 DWORD PTR _this$[ebp], esi
; File C:\Program Files\Microsoft Visual Studio\2022\Professional\VC\Tools\MSVC\14.44.35207\include\xtree

; 450  :     _Tree_val() noexcept : _Myhead(), _Mysize(0) {}

  0000c	c7 06 00 00 00
	00		 mov	 DWORD PTR [esi], 0
  00012	c7 46 04 00 00
	00 00		 mov	 DWORD PTR [esi+4], 0
; File C:\Program Files\Microsoft Visual Studio\2022\Professional\VC\Tools\MSVC\14.44.35207\include\xmemory

; 136  :         return ::operator new(_Bytes);

  00019	e8 00 00 00 00	 call	 ??2@YAPAXI@Z		; operator new
  0001e	83 c4 04	 add	 esp, 4
; File C:\IAGOS\server\v18\Source\Source\_Common\object3d.cpp

; 231  : 	Init();

  00021	8b ce		 mov	 ecx, esi
; File C:\Program Files\Microsoft Visual Studio\2022\Professional\VC\Tools\MSVC\14.44.35207\include\xtree

; 346  :         _Construct_in_place(_Pnode->_Left, _Pnode);

  00023	89 00		 mov	 DWORD PTR [eax], eax

; 347  :         _Construct_in_place(_Pnode->_Parent, _Pnode);

  00025	89 40 04	 mov	 DWORD PTR [eax+4], eax

; 348  :         _Construct_in_place(_Pnode->_Right, _Pnode);

  00028	89 40 08	 mov	 DWORD PTR [eax+8], eax

; 349  :         _Pnode->_Color = _Black;

  0002b	66 c7 40 0c 01
	01		 mov	 WORD PTR [eax+12], 257	; 00000101H

; 1957 :         _Scary->_Myhead = _Node::_Buyheadnode(_Getal());

  00031	89 06		 mov	 DWORD PTR [esi], eax
; File C:\IAGOS\server\v18\Source\Source\_Common\object3d.cpp

; 231  : 	Init();

  00033	e8 00 00 00 00	 call	 ?Init@CObject3DMng@@AAEXXZ ; CObject3DMng::Init

; 232  : }

  00038	8b c6		 mov	 eax, esi
  0003a	5e		 pop	 esi
  0003b	8b e5		 mov	 esp, ebp
  0003d	5d		 pop	 ebp
  0003e	c3		 ret	 0
??0CObject3DMng@@QAE@XZ ENDP				; CObject3DMng::CObject3DMng
_TEXT	ENDS
; Function compile flags: /Ogtp
; File C:\IAGOS\server\v18\Source\Source\_Common\object3d.cpp
;	COMDAT ?InvalidateDeviceObjects@CObject3DMng@@QAEJXZ
_TEXT	SEGMENT
?InvalidateDeviceObjects@CObject3DMng@@QAEJXZ PROC	; CObject3DMng::InvalidateDeviceObjects, COMDAT
; _this$ = ecx

; 286  : 	DeleteDeviceObjects();

  00000	e8 00 00 00 00	 call	 ?DeleteDeviceObjects@CObject3DMng@@QAEJXZ ; CObject3DMng::DeleteDeviceObjects

; 287  : 	return  S_OK;

  00005	33 c0		 xor	 eax, eax

; 288  : }

  00007	c3		 ret	 0
?InvalidateDeviceObjects@CObject3DMng@@QAEJXZ ENDP	; CObject3DMng::InvalidateDeviceObjects
_TEXT	ENDS
; Function compile flags: /Ogtp
; File C:\IAGOS\server\v18\Source\Source\_Common\object3d.cpp
; File C:\Program Files\Microsoft Visual Studio\2022\Professional\VC\Tools\MSVC\14.44.35207\include\xtree
; File C:\IAGOS\server\v18\Source\Source\_Common\object3d.cpp
; File C:\Program Files\Microsoft Visual Studio\2022\Professional\VC\Tools\MSVC\14.44.35207\include\xtree
; File C:\IAGOS\server\v18\Source\Source\_Common\object3d.cpp
;	COMDAT ?DeleteDeviceObjects@CObject3DMng@@QAEJXZ
_TEXT	SEGMENT
_i$1 = -4						; size = 4
?DeleteDeviceObjects@CObject3DMng@@QAEJXZ PROC		; CObject3DMng::DeleteDeviceObjects, COMDAT
; _this$ = ecx

; 292  : {

  00000	55		 push	 ebp
  00001	8b ec		 mov	 ebp, esp
  00003	51		 push	 ecx
  00004	56		 push	 esi
  00005	8b f1		 mov	 esi, ecx
; File C:\Program Files\Microsoft Visual Studio\2022\Professional\VC\Tools\MSVC\14.44.35207\include\xtree

; 1142 :         return iterator(_Scary->_Myhead->_Left, _Scary);

  00007	8b 16		 mov	 edx, DWORD PTR [esi]

; 37   :     _Tree_unchecked_const_iterator(_Nodeptr _Pnode, const _Mytree* _Plist) noexcept : _Ptr(_Pnode) {

  00009	8b 02		 mov	 eax, DWORD PTR [edx]
  0000b	89 45 fc	 mov	 DWORD PTR _i$1[ebp], eax

; 237  :         return !(*this == _Right);

  0000e	3b c2		 cmp	 eax, edx
; File C:\IAGOS\server\v18\Source\Source\_Common\object3d.cpp

; 294  : 	for( map<string, CObject3D*>::iterator i = m_mapObject3D.begin(); i != m_mapObject3D.end(); ++i )

  00010	74 17		 je	 SHORT $LN55@DeleteDevi
$LL4@DeleteDevi:

; 295  : 		i->second->DeleteDeviceObjects();

  00012	8b 48 28	 mov	 ecx, DWORD PTR [eax+40]
  00015	e8 00 00 00 00	 call	 ?DeleteDeviceObjects@CObject3D@@QAEJXZ ; CObject3D::DeleteDeviceObjects
; File C:\Program Files\Microsoft Visual Studio\2022\Professional\VC\Tools\MSVC\14.44.35207\include\xtree

; 198  :         _Mybase::operator++();

  0001a	8d 4d fc	 lea	 ecx, DWORD PTR _i$1[ebp]
  0001d	e8 00 00 00 00	 call	 ??E?$_Tree_unchecked_const_iterator@V?$_Tree_val@U?$_Tree_simple_types@U?$pair@$$CBV?$basic_string@DU?$char_traits@D@std@@V?$allocator@D@2@@std@@PAVCObject3D@@@std@@@std@@@std@@U_Iterator_base0@2@@std@@QAEAAV01@XZ ; std::_Tree_unchecked_const_iterator<std::_Tree_val<std::_Tree_simple_types<std::pair<std::basic_string<char,std::char_traits<char>,std::allocator<char> > const ,CObject3D *> > >,std::_Iterator_base0>::operator++

; 237  :         return !(*this == _Right);

  00022	8b 45 fc	 mov	 eax, DWORD PTR _i$1[ebp]
  00025	3b 06		 cmp	 eax, DWORD PTR [esi]
; File C:\IAGOS\server\v18\Source\Source\_Common\object3d.cpp

; 294  : 	for( map<string, CObject3D*>::iterator i = m_mapObject3D.begin(); i != m_mapObject3D.end(); ++i )

  00027	75 e9		 jne	 SHORT $LL4@DeleteDevi
$LN55@DeleteDevi:

; 296  : #else	// __JEFF_11_5
; 297  : 	int		i;
; 298  : 	CObject3D		**pAry = m_pObject3DAry;
; 299  : 	CObject3D		*pObject3D;
; 300  : 	
; 301  : 	for( i = 0; i < MAX_OBJECT3D; i ++ )
; 302  : 	{
; 303  : 		pObject3D = *pAry++;
; 304  : 		if( pObject3D )
; 305  : 		{
; 306  : 			pObject3D->DeleteDeviceObjects();
; 307  : 		}
; 308  : 	}
; 309  : #endif	// __JEFF_11_5
; 310  : 	return S_OK;
; 311  : }

  00029	33 c0		 xor	 eax, eax
  0002b	5e		 pop	 esi
  0002c	8b e5		 mov	 esp, ebp
  0002e	5d		 pop	 ebp
  0002f	c3		 ret	 0
?DeleteDeviceObjects@CObject3DMng@@QAEJXZ ENDP		; CObject3DMng::DeleteDeviceObjects
_TEXT	ENDS
; Function compile flags: /Ogtp
; File C:\IAGOS\server\v18\Source\Source\_Common\object3d.cpp
; File C:\Program Files\Microsoft Visual Studio\2022\Professional\VC\Tools\MSVC\14.44.35207\include\xtree
; File C:\IAGOS\server\v18\Source\Source\_Common\object3d.cpp
; File C:\Program Files\Microsoft Visual Studio\2022\Professional\VC\Tools\MSVC\14.44.35207\include\xtree
; File C:\IAGOS\server\v18\Source\Source\_Common\object3d.cpp
;	COMDAT ?Destroy@CObject3DMng@@QAEXXZ
_TEXT	SEGMENT
_i$1 = -4						; size = 4
?Destroy@CObject3DMng@@QAEXXZ PROC			; CObject3DMng::Destroy, COMDAT
; _this$ = ecx

; 257  : {

  00000	55		 push	 ebp
  00001	8b ec		 mov	 ebp, esp
  00003	51		 push	 ecx
  00004	53		 push	 ebx
  00005	8b d9		 mov	 ebx, ecx
  00007	56		 push	 esi
; File C:\Program Files\Microsoft Visual Studio\2022\Professional\VC\Tools\MSVC\14.44.35207\include\xtree

; 1142 :         return iterator(_Scary->_Myhead->_Left, _Scary);

  00008	8b 03		 mov	 eax, DWORD PTR [ebx]

; 37   :     _Tree_unchecked_const_iterator(_Nodeptr _Pnode, const _Mytree* _Plist) noexcept : _Ptr(_Pnode) {

  0000a	8b 30		 mov	 esi, DWORD PTR [eax]
  0000c	89 75 fc	 mov	 DWORD PTR _i$1[ebp], esi

; 237  :         return !(*this == _Right);

  0000f	3b f0		 cmp	 esi, eax
; File C:\IAGOS\server\v18\Source\Source\_Common\object3d.cpp

; 259  : 	for( map<string, CObject3D*>::iterator i = m_mapObject3D.begin(); i != m_mapObject3D.end(); ++i )

  00011	74 3c		 je	 SHORT $LN3@Destroy
  00013	57		 push	 edi
$LL4@Destroy:

; 260  : 	{
; 261  : 		i->second->DeleteDeviceObjects();

  00014	8b 4e 28	 mov	 ecx, DWORD PTR [esi+40]
  00017	e8 00 00 00 00	 call	 ?DeleteDeviceObjects@CObject3D@@QAEJXZ ; CObject3D::DeleteDeviceObjects

; 262  : 		SAFE_DELETE( i->second );

  0001c	8b 7e 28	 mov	 edi, DWORD PTR [esi+40]
  0001f	85 ff		 test	 edi, edi
  00021	74 1c		 je	 SHORT $LN2@Destroy
  00023	8b cf		 mov	 ecx, edi
  00025	e8 00 00 00 00	 call	 ??1CObject3D@@QAE@XZ	; CObject3D::~CObject3D
  0002a	68 30 0c 00 00	 push	 3120			; 00000c30H
  0002f	57		 push	 edi
  00030	e8 00 00 00 00	 call	 ??3@YAXPAXI@Z		; operator delete
  00035	83 c4 08	 add	 esp, 8
  00038	c7 46 28 00 00
	00 00		 mov	 DWORD PTR [esi+40], 0
$LN2@Destroy:
; File C:\Program Files\Microsoft Visual Studio\2022\Professional\VC\Tools\MSVC\14.44.35207\include\xtree

; 198  :         _Mybase::operator++();

  0003f	8d 4d fc	 lea	 ecx, DWORD PTR _i$1[ebp]
  00042	e8 00 00 00 00	 call	 ??E?$_Tree_unchecked_const_iterator@V?$_Tree_val@U?$_Tree_simple_types@U?$pair@$$CBV?$basic_string@DU?$char_traits@D@std@@V?$allocator@D@2@@std@@PAVCObject3D@@@std@@@std@@@std@@U_Iterator_base0@2@@std@@QAEAAV01@XZ ; std::_Tree_unchecked_const_iterator<std::_Tree_val<std::_Tree_simple_types<std::pair<std::basic_string<char,std::char_traits<char>,std::allocator<char> > const ,CObject3D *> > >,std::_Iterator_base0>::operator++

; 237  :         return !(*this == _Right);

  00047	8b 75 fc	 mov	 esi, DWORD PTR _i$1[ebp]
  0004a	3b 33		 cmp	 esi, DWORD PTR [ebx]
; File C:\IAGOS\server\v18\Source\Source\_Common\object3d.cpp

; 259  : 	for( map<string, CObject3D*>::iterator i = m_mapObject3D.begin(); i != m_mapObject3D.end(); ++i )

  0004c	75 c6		 jne	 SHORT $LL4@Destroy
  0004e	5f		 pop	 edi
$LN3@Destroy:

; 263  : 	}
; 264  : #else	// __JEFF_11_5
; 265  : 	int		i;
; 266  : 	CObject3D		**pAry = m_pObject3DAry;
; 267  : 	CObject3D		*pObject3D;
; 268  : 
; 269  : 	for( i = 0; i < MAX_OBJECT3D; i ++ )
; 270  : 	{
; 271  : 		pObject3D = *pAry++;
; 272  : 		if( pObject3D )
; 273  : 		{
; 274  : 			pObject3D->DeleteDeviceObjects();
; 275  : 			SAFE_DELETE( pObject3D );
; 276  : 			//TRACE( "Delete Object 3D%p\n", pObject3D);
; 277  : 		}
; 278  : 	}
; 279  : #endif	// __JEFF_11_5
; 280  : 
; 281  : 	Init();

  0004f	8b cb		 mov	 ecx, ebx
  00051	e8 00 00 00 00	 call	 ?Init@CObject3DMng@@AAEXXZ ; CObject3DMng::Init
  00056	5e		 pop	 esi
  00057	5b		 pop	 ebx

; 282  : }

  00058	8b e5		 mov	 esp, ebp
  0005a	5d		 pop	 ebp
  0005b	c3		 ret	 0
?Destroy@CObject3DMng@@QAEXXZ ENDP			; CObject3DMng::Destroy
_TEXT	ENDS
; Function compile flags: /Ogtp
; File C:\IAGOS\server\v18\Source\Source\_Common\object3d.cpp
; File C:\Program Files\Microsoft Visual Studio\2022\Professional\VC\Tools\MSVC\14.44.35207\include\xtree
; File C:\IAGOS\server\v18\Source\Source\_Common\object3d.cpp
;	COMDAT ?Init@CObject3DMng@@AAEXXZ
_TEXT	SEGMENT
?Init@CObject3DMng@@AAEXXZ PROC				; CObject3DMng::Init, COMDAT
; _this$ = ecx

; 240  : {

  00000	56		 push	 esi
  00001	57		 push	 edi
  00002	8b f9		 mov	 edi, ecx
; File C:\Program Files\Microsoft Visual Studio\2022\Professional\VC\Tools\MSVC\14.44.35207\include\xtree

; 1373 :         auto _Head = _Scary->_Myhead;

  00004	8b 37		 mov	 esi, DWORD PTR [edi]

; 1374 :         _Scary->_Erase_tree(_Getal(), _Head->_Parent);

  00006	ff 76 04	 push	 DWORD PTR [esi+4]
  00009	57		 push	 edi
  0000a	e8 00 00 00 00	 call	 ??$_Erase_tree@V?$allocator@U?$_Tree_node@U?$pair@$$CBV?$basic_string@DU?$char_traits@D@std@@V?$allocator@D@2@@std@@PAVCObject3D@@@std@@PAX@std@@@std@@@?$_Tree_val@U?$_Tree_simple_types@U?$pair@$$CBV?$basic_string@DU?$char_traits@D@std@@V?$allocator@D@2@@std@@PAVCObject3D@@@std@@@std@@@std@@QAEXAAV?$allocator@U?$_Tree_node@U?$pair@$$CBV?$basic_string@DU?$char_traits@D@std@@V?$allocator@D@2@@std@@PAVCObject3D@@@std@@PAX@std@@@1@PAU?$_Tree_node@U?$pair@$$CBV?$basic_string@DU?$char_traits@D@std@@V?$allocator@D@2@@std@@PAVCObject3D@@@std@@PAX@1@@Z ; std::_Tree_val<std::_Tree_simple_types<std::pair<std::basic_string<char,std::char_traits<char>,std::allocator<char> > const ,CObject3D *> > >::_Erase_tree<std::allocator<std::_Tree_node<std::pair<std::basic_string<char,std::char_traits<char>,std::allocator<char> > const ,CObject3D *>,void *> > >

; 1375 :         _Head->_Parent  = _Head;

  0000f	89 76 04	 mov	 DWORD PTR [esi+4], esi

; 1376 :         _Head->_Left    = _Head;

  00012	89 36		 mov	 DWORD PTR [esi], esi

; 1377 :         _Head->_Right   = _Head;

  00014	89 76 08	 mov	 DWORD PTR [esi+8], esi

; 1378 :         _Scary->_Mysize = 0;

  00017	c7 47 04 00 00
	00 00		 mov	 DWORD PTR [edi+4], 0
  0001e	5f		 pop	 edi
  0001f	5e		 pop	 esi
; File C:\IAGOS\server\v18\Source\Source\_Common\object3d.cpp

; 253  : }

  00020	c3		 ret	 0
?Init@CObject3DMng@@AAEXXZ ENDP				; CObject3DMng::Init
_TEXT	ENDS
; Function compile flags: /Ogtp
; File C:\Program Files\Microsoft Visual Studio\2022\Professional\VC\Tools\MSVC\14.44.35207\include\xtree
;	COMDAT ?_Insert_node@?$_Tree_val@U?$_Tree_simple_types@U?$pair@$$CBV?$basic_string@DU?$char_traits@D@std@@V?$allocator@D@2@@std@@PAVCObject3D@@@std@@@std@@@std@@QAEPAU?$_Tree_node@U?$pair@$$CBV?$basic_string@DU?$char_traits@D@std@@V?$allocator@D@2@@std@@PAVCObject3D@@@std@@PAX@2@U?$_Tree_id@PAU?$_Tree_node@U?$pair@$$CBV?$basic_string@DU?$char_traits@D@std@@V?$allocator@D@2@@std@@PAVCObject3D@@@std@@PAX@std@@@2@QAU32@@Z
_TEXT	SEGMENT
__Head$1$ = -4						; size = 4
__Loc$ = 8						; size = 8
__Newnode$ = 16						; size = 4
?_Insert_node@?$_Tree_val@U?$_Tree_simple_types@U?$pair@$$CBV?$basic_string@DU?$char_traits@D@std@@V?$allocator@D@2@@std@@PAVCObject3D@@@std@@@std@@@std@@QAEPAU?$_Tree_node@U?$pair@$$CBV?$basic_string@DU?$char_traits@D@std@@V?$allocator@D@2@@std@@PAVCObject3D@@@std@@PAX@2@U?$_Tree_id@PAU?$_Tree_node@U?$pair@$$CBV?$basic_string@DU?$char_traits@D@std@@V?$allocator@D@2@@std@@PAVCObject3D@@@std@@PAX@std@@@2@QAU32@@Z PROC ; std::_Tree_val<std::_Tree_simple_types<std::pair<std::basic_string<char,std::char_traits<char>,std::allocator<char> > const ,CObject3D *> > >::_Insert_node, COMDAT
; _this$ = ecx

; 669  :     _Nodeptr _Insert_node(const _Tree_id<_Nodeptr> _Loc, const _Nodeptr _Newnode) noexcept {

  00000	55		 push	 ebp
  00001	8b ec		 mov	 ebp, esp
  00003	51		 push	 ecx

; 670  :         ++_Mysize;
; 671  :         const auto _Head  = _Myhead;
; 672  :         _Newnode->_Parent = _Loc._Parent;

  00004	8b 55 08	 mov	 edx, DWORD PTR __Loc$[ebp]
  00007	53		 push	 ebx
  00008	8b d9		 mov	 ebx, ecx
  0000a	57		 push	 edi
  0000b	8b 7d 10	 mov	 edi, DWORD PTR __Newnode$[ebp]
  0000e	8b 03		 mov	 eax, DWORD PTR [ebx]
  00010	ff 43 04	 inc	 DWORD PTR [ebx+4]
  00013	89 45 fc	 mov	 DWORD PTR __Head$1$[ebp], eax
  00016	89 57 04	 mov	 DWORD PTR [edi+4], edx

; 673  :         if (_Loc._Parent == _Head) { // first node in tree, just set head values

  00019	3b d0		 cmp	 edx, eax
  0001b	75 16		 jne	 SHORT $LN5@Insert_nod

; 674  :             _Head->_Left     = _Newnode;

  0001d	89 38		 mov	 DWORD PTR [eax], edi

; 675  :             _Head->_Parent   = _Newnode;

  0001f	89 78 04	 mov	 DWORD PTR [eax+4], edi

; 676  :             _Head->_Right    = _Newnode;

  00022	89 78 08	 mov	 DWORD PTR [eax+8], edi

; 735  :         return _Newnode;
; 736  :     }

  00025	8b c7		 mov	 eax, edi
  00027	c6 47 0c 01	 mov	 BYTE PTR [edi+12], 1
  0002b	5f		 pop	 edi
  0002c	5b		 pop	 ebx
  0002d	8b e5		 mov	 esp, ebp
  0002f	5d		 pop	 ebp
  00030	c2 0c 00	 ret	 12			; 0000000cH
$LN5@Insert_nod:

; 677  :             _Newnode->_Color = _Black; // the root is black
; 678  :             return _Newnode;
; 679  :         }
; 680  : 
; 681  :         _STL_INTERNAL_CHECK(_Loc._Child != _Tree_child::_Unused);
; 682  :         if (_Loc._Child == _Tree_child::_Right) { // add to right of _Loc._Parent

  00033	83 7d 0c 00	 cmp	 DWORD PTR __Loc$[ebp+4], 0
  00037	75 0d		 jne	 SHORT $LN6@Insert_nod

; 683  :             _STL_INTERNAL_CHECK(_Loc._Parent->_Right->_Isnil);
; 684  :             _Loc._Parent->_Right = _Newnode;

  00039	89 7a 08	 mov	 DWORD PTR [edx+8], edi

; 685  :             if (_Loc._Parent == _Head->_Right) { // remember rightmost node

  0003c	3b 50 08	 cmp	 edx, DWORD PTR [eax+8]
  0003f	75 0d		 jne	 SHORT $LN9@Insert_nod

; 686  :                 _Head->_Right = _Newnode;

  00041	89 78 08	 mov	 DWORD PTR [eax+8], edi

; 687  :             }
; 688  :         } else { // add to left of _Loc._Parent

  00044	eb 08		 jmp	 SHORT $LN9@Insert_nod
$LN6@Insert_nod:

; 689  :             _STL_INTERNAL_CHECK(_Loc._Parent->_Left->_Isnil);
; 690  :             _Loc._Parent->_Left = _Newnode;

  00046	89 3a		 mov	 DWORD PTR [edx], edi

; 691  :             if (_Loc._Parent == _Head->_Left) { // remember leftmost node

  00048	3b 10		 cmp	 edx, DWORD PTR [eax]
  0004a	75 02		 jne	 SHORT $LN9@Insert_nod

; 692  :                 _Head->_Left = _Newnode;

  0004c	89 38		 mov	 DWORD PTR [eax], edi
$LN9@Insert_nod:

; 693  :             }
; 694  :         }
; 695  : 
; 696  :         for (_Nodeptr _Pnode = _Newnode; _Pnode->_Parent->_Color == _Red;) {

  0004e	8b 4f 04	 mov	 ecx, DWORD PTR [edi+4]
  00051	8b c7		 mov	 eax, edi
  00053	80 79 0c 00	 cmp	 BYTE PTR [ecx+12], 0
  00057	0f 85 7d 01 00
	00		 jne	 $LN3@Insert_nod
  0005d	56		 push	 esi
  0005e	66 90		 npad	 2
$LL4@Insert_nod:

; 697  :             if (_Pnode->_Parent == _Pnode->_Parent->_Parent->_Left) { // fixup red-red in left subtree

  00060	8b 50 04	 mov	 edx, DWORD PTR [eax+4]
  00063	8b 72 04	 mov	 esi, DWORD PTR [edx+4]
  00066	8b 0e		 mov	 ecx, DWORD PTR [esi]
  00068	3b d1		 cmp	 edx, ecx
  0006a	0f 85 aa 00 00
	00		 jne	 $LN10@Insert_nod

; 698  :                 const auto _Parent_sibling = _Pnode->_Parent->_Parent->_Right;

  00070	8b 4e 08	 mov	 ecx, DWORD PTR [esi+8]

; 699  :                 if (_Parent_sibling->_Color == _Red) { // parent's sibling has two red children, blacken both

  00073	80 79 0c 00	 cmp	 BYTE PTR [ecx+12], 0
  00077	0f 84 a3 00 00
	00		 je	 $LN82@Insert_nod

; 700  :                     _Pnode->_Parent->_Color          = _Black;
; 701  :                     _Parent_sibling->_Color          = _Black;
; 702  :                     _Pnode->_Parent->_Parent->_Color = _Red;
; 703  :                     _Pnode                           = _Pnode->_Parent->_Parent;
; 704  :                 } else { // parent's sibling has red and black children
; 705  :                     if (_Pnode == _Pnode->_Parent->_Right) { // rotate right child to left

  0007d	8b 72 08	 mov	 esi, DWORD PTR [edx+8]
  00080	3b c6		 cmp	 eax, esi
  00082	75 37		 jne	 SHORT $LN57@Insert_nod

; 485  :         _Wherenode->_Right = _Pnode->_Left;

  00084	8b 0e		 mov	 ecx, DWORD PTR [esi]

; 706  :                         _Pnode = _Pnode->_Parent;

  00086	8b c2		 mov	 eax, edx

; 485  :         _Wherenode->_Right = _Pnode->_Left;

  00088	89 4a 08	 mov	 DWORD PTR [edx+8], ecx

; 486  : 
; 487  :         if (!_Pnode->_Left->_Isnil) {

  0008b	8b 0e		 mov	 ecx, DWORD PTR [esi]
  0008d	80 79 0d 00	 cmp	 BYTE PTR [ecx+13], 0
  00091	75 03		 jne	 SHORT $LN21@Insert_nod

; 488  :             _Pnode->_Left->_Parent = _Wherenode;

  00093	89 41 04	 mov	 DWORD PTR [ecx+4], eax
$LN21@Insert_nod:

; 489  :         }
; 490  : 
; 491  :         _Pnode->_Parent = _Wherenode->_Parent;

  00096	8b 4a 04	 mov	 ecx, DWORD PTR [edx+4]
  00099	89 4e 04	 mov	 DWORD PTR [esi+4], ecx

; 492  : 
; 493  :         if (_Wherenode == _Myhead->_Parent) {

  0009c	8b 0b		 mov	 ecx, DWORD PTR [ebx]
  0009e	3b 41 04	 cmp	 eax, DWORD PTR [ecx+4]
  000a1	75 05		 jne	 SHORT $LN22@Insert_nod

; 494  :             _Myhead->_Parent = _Pnode;

  000a3	89 71 04	 mov	 DWORD PTR [ecx+4], esi
  000a6	eb 0e		 jmp	 SHORT $LN25@Insert_nod
$LN22@Insert_nod:

; 495  :         } else if (_Wherenode == _Wherenode->_Parent->_Left) {

  000a8	8b 4a 04	 mov	 ecx, DWORD PTR [edx+4]
  000ab	3b 01		 cmp	 eax, DWORD PTR [ecx]
  000ad	75 04		 jne	 SHORT $LN24@Insert_nod

; 496  :             _Wherenode->_Parent->_Left = _Pnode;

  000af	89 31		 mov	 DWORD PTR [ecx], esi

; 497  :         } else {

  000b1	eb 03		 jmp	 SHORT $LN25@Insert_nod
$LN24@Insert_nod:

; 498  :             _Wherenode->_Parent->_Right = _Pnode;

  000b3	89 71 08	 mov	 DWORD PTR [ecx+8], esi
$LN25@Insert_nod:

; 499  :         }
; 500  : 
; 501  :         _Pnode->_Left       = _Wherenode;

  000b6	89 06		 mov	 DWORD PTR [esi], eax

; 502  :         _Wherenode->_Parent = _Pnode;

  000b8	89 70 04	 mov	 DWORD PTR [eax+4], esi
$LN57@Insert_nod:

; 707  :                         _Lrotate(_Pnode);
; 708  :                     }
; 709  : 
; 710  :                     _Pnode->_Parent->_Color          = _Black; // propagate red up

  000bb	8b 48 04	 mov	 ecx, DWORD PTR [eax+4]
  000be	c6 41 0c 01	 mov	 BYTE PTR [ecx+12], 1

; 711  :                     _Pnode->_Parent->_Parent->_Color = _Red;

  000c2	8b 48 04	 mov	 ecx, DWORD PTR [eax+4]
  000c5	8b 49 04	 mov	 ecx, DWORD PTR [ecx+4]
  000c8	c6 41 0c 00	 mov	 BYTE PTR [ecx+12], 0

; 712  :                     _Rrotate(_Pnode->_Parent->_Parent);

  000cc	8b 48 04	 mov	 ecx, DWORD PTR [eax+4]
  000cf	8b 51 04	 mov	 edx, DWORD PTR [ecx+4]

; 506  :         _Nodeptr _Pnode   = _Wherenode->_Left;

  000d2	8b 32		 mov	 esi, DWORD PTR [edx]

; 507  :         _Wherenode->_Left = _Pnode->_Right;

  000d4	8b 4e 08	 mov	 ecx, DWORD PTR [esi+8]
  000d7	89 0a		 mov	 DWORD PTR [edx], ecx

; 508  : 
; 509  :         if (!_Pnode->_Right->_Isnil) {

  000d9	8b 4e 08	 mov	 ecx, DWORD PTR [esi+8]
  000dc	80 79 0d 00	 cmp	 BYTE PTR [ecx+13], 0
  000e0	75 03		 jne	 SHORT $LN29@Insert_nod

; 510  :             _Pnode->_Right->_Parent = _Wherenode;

  000e2	89 51 04	 mov	 DWORD PTR [ecx+4], edx
$LN29@Insert_nod:

; 511  :         }
; 512  : 
; 513  :         _Pnode->_Parent = _Wherenode->_Parent;

  000e5	8b 4a 04	 mov	 ecx, DWORD PTR [edx+4]
  000e8	89 4e 04	 mov	 DWORD PTR [esi+4], ecx

; 514  : 
; 515  :         if (_Wherenode == _Myhead->_Parent) {

  000eb	8b 0b		 mov	 ecx, DWORD PTR [ebx]
  000ed	3b 51 04	 cmp	 edx, DWORD PTR [ecx+4]
  000f0	75 0b		 jne	 SHORT $LN30@Insert_nod

; 516  :             _Myhead->_Parent = _Pnode;

  000f2	89 71 04	 mov	 DWORD PTR [ecx+4], esi

; 521  :         }
; 522  : 
; 523  :         _Pnode->_Right      = _Wherenode;

  000f5	89 56 08	 mov	 DWORD PTR [esi+8], edx

; 713  :                 }
; 714  :             } else { // fixup red-red in right subtree

  000f8	e9 cc 00 00 00	 jmp	 $LN81@Insert_nod
$LN30@Insert_nod:

; 517  :         } else if (_Wherenode == _Wherenode->_Parent->_Right) {

  000fd	8b 4a 04	 mov	 ecx, DWORD PTR [edx+4]
  00100	3b 51 08	 cmp	 edx, DWORD PTR [ecx+8]
  00103	75 0b		 jne	 SHORT $LN32@Insert_nod

; 518  :             _Wherenode->_Parent->_Right = _Pnode;

  00105	89 71 08	 mov	 DWORD PTR [ecx+8], esi

; 521  :         }
; 522  : 
; 523  :         _Pnode->_Right      = _Wherenode;

  00108	89 56 08	 mov	 DWORD PTR [esi+8], edx

; 713  :                 }
; 714  :             } else { // fixup red-red in right subtree

  0010b	e9 b9 00 00 00	 jmp	 $LN81@Insert_nod
$LN32@Insert_nod:

; 520  :             _Wherenode->_Parent->_Left = _Pnode;

  00110	89 31		 mov	 DWORD PTR [ecx], esi

; 521  :         }
; 522  : 
; 523  :         _Pnode->_Right      = _Wherenode;

  00112	89 56 08	 mov	 DWORD PTR [esi+8], edx

; 713  :                 }
; 714  :             } else { // fixup red-red in right subtree

  00115	e9 af 00 00 00	 jmp	 $LN81@Insert_nod
$LN10@Insert_nod:

; 715  :                 const auto _Parent_sibling = _Pnode->_Parent->_Parent->_Left;
; 716  :                 if (_Parent_sibling->_Color == _Red) { // parent's sibling has two red children, blacken both

  0011a	80 79 0c 00	 cmp	 BYTE PTR [ecx+12], 0
  0011e	75 1d		 jne	 SHORT $LN15@Insert_nod
$LN82@Insert_nod:

; 693  :             }
; 694  :         }
; 695  : 
; 696  :         for (_Nodeptr _Pnode = _Newnode; _Pnode->_Parent->_Color == _Red;) {

  00120	c6 42 0c 01	 mov	 BYTE PTR [edx+12], 1
  00124	c6 41 0c 01	 mov	 BYTE PTR [ecx+12], 1
  00128	8b 48 04	 mov	 ecx, DWORD PTR [eax+4]
  0012b	8b 49 04	 mov	 ecx, DWORD PTR [ecx+4]
  0012e	c6 41 0c 00	 mov	 BYTE PTR [ecx+12], 0
  00132	8b 48 04	 mov	 ecx, DWORD PTR [eax+4]
  00135	8b 41 04	 mov	 eax, DWORD PTR [ecx+4]
  00138	e9 8f 00 00 00	 jmp	 $LN2@Insert_nod
$LN15@Insert_nod:

; 717  :                     _Pnode->_Parent->_Color          = _Black;
; 718  :                     _Parent_sibling->_Color          = _Black;
; 719  :                     _Pnode->_Parent->_Parent->_Color = _Red;
; 720  :                     _Pnode                           = _Pnode->_Parent->_Parent;
; 721  :                 } else { // parent's sibling has red and black children
; 722  :                     if (_Pnode == _Pnode->_Parent->_Left) { // rotate left child to right

  0013d	8b 32		 mov	 esi, DWORD PTR [edx]
  0013f	3b c6		 cmp	 eax, esi
  00141	75 3a		 jne	 SHORT $LN42@Insert_nod

; 507  :         _Wherenode->_Left = _Pnode->_Right;

  00143	8b 4e 08	 mov	 ecx, DWORD PTR [esi+8]

; 723  :                         _Pnode = _Pnode->_Parent;

  00146	8b c2		 mov	 eax, edx

; 507  :         _Wherenode->_Left = _Pnode->_Right;

  00148	89 08		 mov	 DWORD PTR [eax], ecx

; 508  : 
; 509  :         if (!_Pnode->_Right->_Isnil) {

  0014a	8b 4e 08	 mov	 ecx, DWORD PTR [esi+8]
  0014d	80 79 0d 00	 cmp	 BYTE PTR [ecx+13], 0
  00151	75 03		 jne	 SHORT $LN37@Insert_nod

; 510  :             _Pnode->_Right->_Parent = _Wherenode;

  00153	89 41 04	 mov	 DWORD PTR [ecx+4], eax
$LN37@Insert_nod:

; 511  :         }
; 512  : 
; 513  :         _Pnode->_Parent = _Wherenode->_Parent;

  00156	8b 4a 04	 mov	 ecx, DWORD PTR [edx+4]
  00159	89 4e 04	 mov	 DWORD PTR [esi+4], ecx

; 514  : 
; 515  :         if (_Wherenode == _Myhead->_Parent) {

  0015c	8b 0b		 mov	 ecx, DWORD PTR [ebx]
  0015e	3b 41 04	 cmp	 eax, DWORD PTR [ecx+4]
  00161	75 05		 jne	 SHORT $LN38@Insert_nod

; 516  :             _Myhead->_Parent = _Pnode;

  00163	89 71 04	 mov	 DWORD PTR [ecx+4], esi
  00166	eb 0f		 jmp	 SHORT $LN41@Insert_nod
$LN38@Insert_nod:

; 517  :         } else if (_Wherenode == _Wherenode->_Parent->_Right) {

  00168	8b 4a 04	 mov	 ecx, DWORD PTR [edx+4]
  0016b	3b 41 08	 cmp	 eax, DWORD PTR [ecx+8]
  0016e	75 05		 jne	 SHORT $LN40@Insert_nod

; 518  :             _Wherenode->_Parent->_Right = _Pnode;

  00170	89 71 08	 mov	 DWORD PTR [ecx+8], esi

; 519  :         } else {

  00173	eb 02		 jmp	 SHORT $LN41@Insert_nod
$LN40@Insert_nod:

; 520  :             _Wherenode->_Parent->_Left = _Pnode;

  00175	89 31		 mov	 DWORD PTR [ecx], esi
$LN41@Insert_nod:

; 521  :         }
; 522  : 
; 523  :         _Pnode->_Right      = _Wherenode;

  00177	89 46 08	 mov	 DWORD PTR [esi+8], eax

; 524  :         _Wherenode->_Parent = _Pnode;

  0017a	89 70 04	 mov	 DWORD PTR [eax+4], esi
$LN42@Insert_nod:

; 724  :                         _Rrotate(_Pnode);
; 725  :                     }
; 726  : 
; 727  :                     _Pnode->_Parent->_Color          = _Black; // propagate red up

  0017d	8b 48 04	 mov	 ecx, DWORD PTR [eax+4]
  00180	c6 41 0c 01	 mov	 BYTE PTR [ecx+12], 1

; 728  :                     _Pnode->_Parent->_Parent->_Color = _Red;

  00184	8b 48 04	 mov	 ecx, DWORD PTR [eax+4]
  00187	8b 49 04	 mov	 ecx, DWORD PTR [ecx+4]
  0018a	c6 41 0c 00	 mov	 BYTE PTR [ecx+12], 0

; 729  :                     _Lrotate(_Pnode->_Parent->_Parent);

  0018e	8b 48 04	 mov	 ecx, DWORD PTR [eax+4]
  00191	8b 51 04	 mov	 edx, DWORD PTR [ecx+4]

; 484  :         _Nodeptr _Pnode    = _Wherenode->_Right;

  00194	8b 72 08	 mov	 esi, DWORD PTR [edx+8]

; 485  :         _Wherenode->_Right = _Pnode->_Left;

  00197	8b 0e		 mov	 ecx, DWORD PTR [esi]
  00199	89 4a 08	 mov	 DWORD PTR [edx+8], ecx

; 486  : 
; 487  :         if (!_Pnode->_Left->_Isnil) {

  0019c	8b 0e		 mov	 ecx, DWORD PTR [esi]
  0019e	80 79 0d 00	 cmp	 BYTE PTR [ecx+13], 0
  001a2	75 03		 jne	 SHORT $LN45@Insert_nod

; 488  :             _Pnode->_Left->_Parent = _Wherenode;

  001a4	89 51 04	 mov	 DWORD PTR [ecx+4], edx
$LN45@Insert_nod:

; 489  :         }
; 490  : 
; 491  :         _Pnode->_Parent = _Wherenode->_Parent;

  001a7	8b 4a 04	 mov	 ecx, DWORD PTR [edx+4]
  001aa	89 4e 04	 mov	 DWORD PTR [esi+4], ecx

; 492  : 
; 493  :         if (_Wherenode == _Myhead->_Parent) {

  001ad	8b 0b		 mov	 ecx, DWORD PTR [ebx]
  001af	3b 51 04	 cmp	 edx, DWORD PTR [ecx+4]
  001b2	75 05		 jne	 SHORT $LN46@Insert_nod

; 494  :             _Myhead->_Parent = _Pnode;

  001b4	89 71 04	 mov	 DWORD PTR [ecx+4], esi
  001b7	eb 0e		 jmp	 SHORT $LN49@Insert_nod
$LN46@Insert_nod:

; 495  :         } else if (_Wherenode == _Wherenode->_Parent->_Left) {

  001b9	8b 4a 04	 mov	 ecx, DWORD PTR [edx+4]
  001bc	3b 11		 cmp	 edx, DWORD PTR [ecx]
  001be	75 04		 jne	 SHORT $LN48@Insert_nod

; 496  :             _Wherenode->_Parent->_Left = _Pnode;

  001c0	89 31		 mov	 DWORD PTR [ecx], esi

; 497  :         } else {

  001c2	eb 03		 jmp	 SHORT $LN49@Insert_nod
$LN48@Insert_nod:

; 498  :             _Wherenode->_Parent->_Right = _Pnode;

  001c4	89 71 08	 mov	 DWORD PTR [ecx+8], esi
$LN49@Insert_nod:

; 499  :         }
; 500  : 
; 501  :         _Pnode->_Left       = _Wherenode;

  001c7	89 16		 mov	 DWORD PTR [esi], edx
$LN81@Insert_nod:

; 693  :             }
; 694  :         }
; 695  : 
; 696  :         for (_Nodeptr _Pnode = _Newnode; _Pnode->_Parent->_Color == _Red;) {

  001c9	89 72 04	 mov	 DWORD PTR [edx+4], esi
$LN2@Insert_nod:
  001cc	8b 48 04	 mov	 ecx, DWORD PTR [eax+4]
  001cf	80 79 0c 00	 cmp	 BYTE PTR [ecx+12], 0
  001d3	0f 84 87 fe ff
	ff		 je	 $LL4@Insert_nod
  001d9	5e		 pop	 esi
$LN3@Insert_nod:

; 730  :                 }
; 731  :             }
; 732  :         }
; 733  : 
; 734  :         _Head->_Parent->_Color = _Black; // root is always black

  001da	8b 45 fc	 mov	 eax, DWORD PTR __Head$1$[ebp]
  001dd	8b 40 04	 mov	 eax, DWORD PTR [eax+4]
  001e0	c6 40 0c 01	 mov	 BYTE PTR [eax+12], 1

; 735  :         return _Newnode;
; 736  :     }

  001e4	8b c7		 mov	 eax, edi
  001e6	5f		 pop	 edi
  001e7	5b		 pop	 ebx
  001e8	8b e5		 mov	 esp, ebp
  001ea	5d		 pop	 ebp
  001eb	c2 0c 00	 ret	 12			; 0000000cH
?_Insert_node@?$_Tree_val@U?$_Tree_simple_types@U?$pair@$$CBV?$basic_string@DU?$char_traits@D@std@@V?$allocator@D@2@@std@@PAVCObject3D@@@std@@@std@@@std@@QAEPAU?$_Tree_node@U?$pair@$$CBV?$basic_string@DU?$char_traits@D@std@@V?$allocator@D@2@@std@@PAVCObject3D@@@std@@PAX@2@U?$_Tree_id@PAU?$_Tree_node@U?$pair@$$CBV?$basic_string@DU?$char_traits@D@std@@V?$allocator@D@2@@std@@PAVCObject3D@@@std@@PAX@std@@@2@QAU32@@Z ENDP ; std::_Tree_val<std::_Tree_simple_types<std::pair<std::basic_string<char,std::char_traits<char>,std::allocator<char> > const ,CObject3D *> > >::_Insert_node
_TEXT	ENDS
; Function compile flags: /Ogtp
; File C:\Program Files\Microsoft Visual Studio\2022\Professional\VC\Tools\MSVC\14.44.35207\include\xtree
; File C:\Program Files\Microsoft Visual Studio\2022\Professional\VC\Tools\MSVC\14.44.35207\include\utility
; File C:\Program Files\Microsoft Visual Studio\2022\Professional\VC\Tools\MSVC\14.44.35207\include\xtree
;	COMDAT ?_Extract@?$_Tree_val@U?$_Tree_simple_types@U?$pair@$$CBV?$basic_string@DU?$char_traits@D@std@@V?$allocator@D@2@@std@@PAVCObject3D@@@std@@@std@@@std@@QAEPAU?$_Tree_node@U?$pair@$$CBV?$basic_string@DU?$char_traits@D@std@@V?$allocator@D@2@@std@@PAVCObject3D@@@std@@PAX@2@V?$_Tree_unchecked_const_iterator@V?$_Tree_val@U?$_Tree_simple_types@U?$pair@$$CBV?$basic_string@DU?$char_traits@D@std@@V?$allocator@D@2@@std@@PAVCObject3D@@@std@@@std@@@std@@U_Iterator_base0@2@@2@@Z
_TEXT	SEGMENT
tv1039 = -16						; size = 4
tv1073 = -12						; size = 4
tv1093 = -12						; size = 4
$T1 = -12						; size = 4
__Erasednode$1$ = -8					; size = 4
_this$1$ = -4						; size = 4
__Where$ = 8						; size = 4
?_Extract@?$_Tree_val@U?$_Tree_simple_types@U?$pair@$$CBV?$basic_string@DU?$char_traits@D@std@@V?$allocator@D@2@@std@@PAVCObject3D@@@std@@@std@@@std@@QAEPAU?$_Tree_node@U?$pair@$$CBV?$basic_string@DU?$char_traits@D@std@@V?$allocator@D@2@@std@@PAVCObject3D@@@std@@PAX@2@V?$_Tree_unchecked_const_iterator@V?$_Tree_val@U?$_Tree_simple_types@U?$pair@$$CBV?$basic_string@DU?$char_traits@D@std@@V?$allocator@D@2@@std@@PAVCObject3D@@@std@@@std@@@std@@U_Iterator_base0@2@@2@@Z PROC ; std::_Tree_val<std::_Tree_simple_types<std::pair<std::basic_string<char,std::char_traits<char>,std::allocator<char> > const ,CObject3D *> > >::_Extract, COMDAT
; _this$ = ecx

; 527  :     _Nodeptr _Extract(_Unchecked_const_iterator _Where) noexcept {

  00000	55		 push	 ebp
  00001	8b ec		 mov	 ebp, esp
  00003	83 ec 10	 sub	 esp, 16			; 00000010H

; 528  :         _Nodeptr _Erasednode = _Where._Ptr; // node to erase

  00006	8b 45 08	 mov	 eax, DWORD PTR __Where$[ebp]
  00009	53		 push	 ebx
  0000a	56		 push	 esi
  0000b	8b d9		 mov	 ebx, ecx
  0000d	89 45 f8	 mov	 DWORD PTR __Erasednode$1$[ebp], eax
  00010	57		 push	 edi

; 529  :         ++_Where; // save successor iterator for return

  00011	8d 4d 08	 lea	 ecx, DWORD PTR __Where$[ebp]
  00014	89 5d fc	 mov	 DWORD PTR _this$1$[ebp], ebx
  00017	e8 00 00 00 00	 call	 ??E?$_Tree_unchecked_const_iterator@V?$_Tree_val@U?$_Tree_simple_types@U?$pair@$$CBV?$basic_string@DU?$char_traits@D@std@@V?$allocator@D@2@@std@@PAVCObject3D@@@std@@@std@@@std@@U_Iterator_base0@2@@std@@QAEAAV01@XZ ; std::_Tree_unchecked_const_iterator<std::_Tree_val<std::_Tree_simple_types<std::pair<std::basic_string<char,std::char_traits<char>,std::allocator<char> > const ,CObject3D *> > >,std::_Iterator_base0>::operator++

; 530  : 
; 531  :         _Nodeptr _Fixnode; // the node to recolor as needed
; 532  :         _Nodeptr _Fixnodeparent; // parent of _Fixnode (which may be nil)
; 533  :         _Nodeptr _Pnode = _Erasednode;
; 534  : 
; 535  :         if (_Pnode->_Left->_Isnil) {

  0001c	8b 4d f8	 mov	 ecx, DWORD PTR __Erasednode$1$[ebp]
  0001f	8b 01		 mov	 eax, DWORD PTR [ecx]
  00021	8b 79 08	 mov	 edi, DWORD PTR [ecx+8]
  00024	80 78 0d 00	 cmp	 BYTE PTR [eax+13], 0
  00028	75 18		 jne	 SHORT $LN94@Extract

; 536  :             _Fixnode = _Pnode->_Right; // stitch up right subtree
; 537  :         } else if (_Pnode->_Right->_Isnil) {

  0002a	80 7f 0d 00	 cmp	 BYTE PTR [edi+13], 0
  0002e	74 04		 je	 SHORT $LN7@Extract

; 538  :             _Fixnode = _Pnode->_Left; // stitch up left subtree

  00030	8b f8		 mov	 edi, eax

; 539  :         } else { // two subtrees, must lift successor node to replace erased

  00032	eb 0e		 jmp	 SHORT $LN94@Extract
$LN7@Extract:

; 540  :             _Pnode   = _Where._Ptr; // _Pnode is successor node

  00034	8b 55 08	 mov	 edx, DWORD PTR __Where$[ebp]

; 541  :             _Fixnode = _Pnode->_Right; // _Fixnode is only subtree

  00037	8b 7a 08	 mov	 edi, DWORD PTR [edx+8]
  0003a	3b d1		 cmp	 edx, ecx

; 542  :         }
; 543  : 
; 544  :         if (_Pnode == _Erasednode) { // at most one subtree, relink it

  0003c	0f 85 91 00 00
	00		 jne	 $LN9@Extract
$LN94@Extract:

; 545  :             _Fixnodeparent = _Erasednode->_Parent;
; 546  :             if (!_Fixnode->_Isnil) {

  00042	80 7f 0d 00	 cmp	 BYTE PTR [edi+13], 0
  00046	8b 71 04	 mov	 esi, DWORD PTR [ecx+4]
  00049	75 03		 jne	 SHORT $LN11@Extract

; 547  :                 _Fixnode->_Parent = _Fixnodeparent; // link up

  0004b	89 77 04	 mov	 DWORD PTR [edi+4], esi
$LN11@Extract:

; 548  :             }
; 549  : 
; 550  :             if (_Myhead->_Parent == _Erasednode) {

  0004e	8b 03		 mov	 eax, DWORD PTR [ebx]
  00050	39 48 04	 cmp	 DWORD PTR [eax+4], ecx
  00053	75 05		 jne	 SHORT $LN12@Extract

; 551  :                 _Myhead->_Parent = _Fixnode; // link down from root

  00055	89 78 04	 mov	 DWORD PTR [eax+4], edi
  00058	eb 0b		 jmp	 SHORT $LN15@Extract
$LN12@Extract:

; 552  :             } else if (_Fixnodeparent->_Left == _Erasednode) {

  0005a	39 0e		 cmp	 DWORD PTR [esi], ecx
  0005c	75 04		 jne	 SHORT $LN14@Extract

; 553  :                 _Fixnodeparent->_Left = _Fixnode; // link down to left

  0005e	89 3e		 mov	 DWORD PTR [esi], edi

; 554  :             } else {

  00060	eb 03		 jmp	 SHORT $LN15@Extract
$LN14@Extract:

; 555  :                 _Fixnodeparent->_Right = _Fixnode; // link down to right

  00062	89 7e 08	 mov	 DWORD PTR [esi+8], edi
$LN15@Extract:

; 556  :             }
; 557  : 
; 558  :             if (_Myhead->_Left == _Erasednode) {

  00065	8b 03		 mov	 eax, DWORD PTR [ebx]
  00067	39 08		 cmp	 DWORD PTR [eax], ecx
  00069	75 28		 jne	 SHORT $LN16@Extract

; 559  :                 _Myhead->_Left = _Fixnode->_Isnil ? _Fixnodeparent // smallest is parent of erased node

  0006b	80 7f 0d 00	 cmp	 BYTE PTR [edi+13], 0
  0006f	74 04		 je	 SHORT $LN42@Extract
  00071	8b d6		 mov	 edx, esi
  00073	eb 1c		 jmp	 SHORT $LN43@Extract
$LN42@Extract:

; 476  :         while (!_Pnode->_Left->_Isnil) {

  00075	8b 0f		 mov	 ecx, DWORD PTR [edi]

; 559  :                 _Myhead->_Left = _Fixnode->_Isnil ? _Fixnodeparent // smallest is parent of erased node

  00077	8b d7		 mov	 edx, edi

; 476  :         while (!_Pnode->_Left->_Isnil) {

  00079	80 79 0d 00	 cmp	 BYTE PTR [ecx+13], 0
  0007d	75 0f		 jne	 SHORT $LN49@Extract
  0007f	90		 npad	 1
$LL48@Extract:
  00080	8b 01		 mov	 eax, DWORD PTR [ecx]

; 477  :             _Pnode = _Pnode->_Left;

  00082	8b d1		 mov	 edx, ecx
  00084	8b c8		 mov	 ecx, eax
  00086	80 78 0d 00	 cmp	 BYTE PTR [eax+13], 0
  0008a	74 f4		 je	 SHORT $LL48@Extract
  0008c	8b 03		 mov	 eax, DWORD PTR [ebx]
$LN49@Extract:
  0008e	8b 4d f8	 mov	 ecx, DWORD PTR __Erasednode$1$[ebp]
$LN43@Extract:

; 559  :                 _Myhead->_Left = _Fixnode->_Isnil ? _Fixnodeparent // smallest is parent of erased node

  00091	89 10		 mov	 DWORD PTR [eax], edx
$LN16@Extract:

; 560  :                                                   : _Min(_Fixnode); // smallest in relinked subtree
; 561  :             }
; 562  : 
; 563  :             if (_Myhead->_Right == _Erasednode) {

  00093	8b 13		 mov	 edx, DWORD PTR [ebx]
  00095	39 4a 08	 cmp	 DWORD PTR [edx+8], ecx
  00098	75 34		 jne	 SHORT $LN17@Extract

; 564  :                 _Myhead->_Right = _Fixnode->_Isnil ? _Fixnodeparent // largest is parent of erased node

  0009a	80 7f 0d 00	 cmp	 BYTE PTR [edi+13], 0
  0009e	74 0d		 je	 SHORT $LN44@Extract

; 565  :                                                    : _Max(_Fixnode); // largest in relinked subtree
; 566  :             }
; 567  :         } else { // erased has two subtrees, _Pnode is successor to erased

  000a0	8b 45 f8	 mov	 eax, DWORD PTR __Erasednode$1$[ebp]
  000a3	8b ce		 mov	 ecx, esi
  000a5	89 4a 08	 mov	 DWORD PTR [edx+8], ecx
  000a8	e9 94 00 00 00	 jmp	 $LN58@Extract
$LN44@Extract:

; 468  :         while (!_Pnode->_Right->_Isnil) {

  000ad	8b 47 08	 mov	 eax, DWORD PTR [edi+8]

; 564  :                 _Myhead->_Right = _Fixnode->_Isnil ? _Fixnodeparent // largest is parent of erased node

  000b0	8b cf		 mov	 ecx, edi

; 468  :         while (!_Pnode->_Right->_Isnil) {

  000b2	80 78 0d 00	 cmp	 BYTE PTR [eax+13], 0
  000b6	75 13		 jne	 SHORT $LN54@Extract
  000b8	0f 1f 84 00 00
	00 00 00	 npad	 8
$LL53@Extract:

; 469  :             _Pnode = _Pnode->_Right;

  000c0	8b c8		 mov	 ecx, eax
  000c2	8b 41 08	 mov	 eax, DWORD PTR [ecx+8]
  000c5	80 78 0d 00	 cmp	 BYTE PTR [eax+13], 0
  000c9	74 f5		 je	 SHORT $LL53@Extract
$LN54@Extract:

; 564  :                 _Myhead->_Right = _Fixnode->_Isnil ? _Fixnodeparent // largest is parent of erased node

  000cb	89 4a 08	 mov	 DWORD PTR [edx+8], ecx
$LN17@Extract:

; 565  :                                                    : _Max(_Fixnode); // largest in relinked subtree
; 566  :             }
; 567  :         } else { // erased has two subtrees, _Pnode is successor to erased

  000ce	8b 45 f8	 mov	 eax, DWORD PTR __Erasednode$1$[ebp]
  000d1	eb 6e		 jmp	 SHORT $LN58@Extract
$LN9@Extract:

; 568  :             _Erasednode->_Left->_Parent = _Pnode; // link left up

  000d3	89 50 04	 mov	 DWORD PTR [eax+4], edx

; 569  :             _Pnode->_Left               = _Erasednode->_Left; // link successor down

  000d6	8b 01		 mov	 eax, DWORD PTR [ecx]
  000d8	89 02		 mov	 DWORD PTR [edx], eax

; 570  : 
; 571  :             if (_Pnode == _Erasednode->_Right) {

  000da	8d 42 04	 lea	 eax, DWORD PTR [edx+4]
  000dd	89 45 f4	 mov	 DWORD PTR $T1[ebp], eax
  000e0	3b 51 08	 cmp	 edx, DWORD PTR [ecx+8]
  000e3	75 04		 jne	 SHORT $LN18@Extract

; 572  :                 _Fixnodeparent = _Pnode; // successor is next to erased

  000e5	8b f2		 mov	 esi, edx

; 573  :             } else { // successor further down, link in place of erased

  000e7	eb 1f		 jmp	 SHORT $LN19@Extract
$LN18@Extract:

; 574  :                 _Fixnodeparent = _Pnode->_Parent; // parent is successor's
; 575  :                 if (!_Fixnode->_Isnil) {

  000e9	80 7f 0d 00	 cmp	 BYTE PTR [edi+13], 0
  000ed	8b 30		 mov	 esi, DWORD PTR [eax]
  000ef	75 03		 jne	 SHORT $LN20@Extract

; 576  :                     _Fixnode->_Parent = _Fixnodeparent; // link fix up

  000f1	89 77 04	 mov	 DWORD PTR [edi+4], esi
$LN20@Extract:

; 577  :                 }
; 578  : 
; 579  :                 _Fixnodeparent->_Left        = _Fixnode; // link fix down

  000f4	89 3e		 mov	 DWORD PTR [esi], edi

; 580  :                 _Pnode->_Right               = _Erasednode->_Right; // link next down

  000f6	8b 41 08	 mov	 eax, DWORD PTR [ecx+8]
  000f9	89 42 08	 mov	 DWORD PTR [edx+8], eax

; 581  :                 _Erasednode->_Right->_Parent = _Pnode; // right up

  000fc	8b 41 08	 mov	 eax, DWORD PTR [ecx+8]
  000ff	89 50 04	 mov	 DWORD PTR [eax+4], edx
  00102	8d 42 04	 lea	 eax, DWORD PTR [edx+4]
  00105	89 45 f4	 mov	 DWORD PTR $T1[ebp], eax
$LN19@Extract:

; 582  :             }
; 583  : 
; 584  :             if (_Myhead->_Parent == _Erasednode) {

  00108	8b 03		 mov	 eax, DWORD PTR [ebx]
  0010a	39 48 04	 cmp	 DWORD PTR [eax+4], ecx
  0010d	75 05		 jne	 SHORT $LN21@Extract

; 585  :                 _Myhead->_Parent = _Pnode; // link down from root

  0010f	89 50 04	 mov	 DWORD PTR [eax+4], edx
  00112	eb 0e		 jmp	 SHORT $LN141@Extract
$LN21@Extract:

; 586  :             } else if (_Erasednode->_Parent->_Left == _Erasednode) {

  00114	8b 41 04	 mov	 eax, DWORD PTR [ecx+4]
  00117	39 08		 cmp	 DWORD PTR [eax], ecx
  00119	75 04		 jne	 SHORT $LN23@Extract

; 587  :                 _Erasednode->_Parent->_Left = _Pnode; // link down to left

  0011b	89 10		 mov	 DWORD PTR [eax], edx

; 588  :             } else {

  0011d	eb 03		 jmp	 SHORT $LN141@Extract
$LN23@Extract:

; 589  :                 _Erasednode->_Parent->_Right = _Pnode; // link down to right

  0011f	89 50 08	 mov	 DWORD PTR [eax+8], edx
$LN141@Extract:

; 590  :             }
; 591  : 
; 592  :             _Pnode->_Parent = _Erasednode->_Parent; // link successor up

  00122	b8 04 00 00 00	 mov	 eax, 4
  00127	8b 04 08	 mov	 eax, DWORD PTR [eax+ecx]
  0012a	8b 4d f4	 mov	 ecx, DWORD PTR $T1[ebp]
  0012d	89 01		 mov	 DWORD PTR [ecx], eax
; File C:\Program Files\Microsoft Visual Studio\2022\Professional\VC\Tools\MSVC\14.44.35207\include\utility

; 140  :     _Left    = _STD move(_Right);

  0012f	8b 45 f8	 mov	 eax, DWORD PTR __Erasednode$1$[ebp]
  00132	8a 4a 0c	 mov	 cl, BYTE PTR [edx+12]
  00135	8a 40 0c	 mov	 al, BYTE PTR [eax+12]
  00138	88 42 0c	 mov	 BYTE PTR [edx+12], al

; 141  :     _Right   = _STD move(_Tmp);

  0013b	8b 45 f8	 mov	 eax, DWORD PTR __Erasednode$1$[ebp]
  0013e	88 48 0c	 mov	 BYTE PTR [eax+12], cl
$LN58@Extract:
; File C:\Program Files\Microsoft Visual Studio\2022\Professional\VC\Tools\MSVC\14.44.35207\include\xtree

; 596  :         if (_Erasednode->_Color == _Black) { // erasing black link, must recolor/rebalance tree

  00141	80 78 0c 01	 cmp	 BYTE PTR [eax+12], 1
  00145	0f 85 ba 01 00
	00		 jne	 $LN25@Extract

; 597  :             for (; _Fixnode != _Myhead->_Parent && _Fixnode->_Color == _Black; _Fixnodeparent = _Fixnode->_Parent) {

  0014b	8b 03		 mov	 eax, DWORD PTR [ebx]
  0014d	3b 78 04	 cmp	 edi, DWORD PTR [eax+4]
  00150	0f 84 a8 01 00
	00		 je	 $LN3@Extract
  00156	80 7f 0c 01	 cmp	 BYTE PTR [edi+12], 1
  0015a	89 75 f4	 mov	 DWORD PTR tv1093[ebp], esi
  0015d	0f 85 9b 01 00
	00		 jne	 $LN3@Extract
$LL4@Extract:

; 598  :                 if (_Fixnode == _Fixnodeparent->_Left) { // fixup left subtree

  00163	8b 0e		 mov	 ecx, DWORD PTR [esi]
  00165	3b f9		 cmp	 edi, ecx
  00167	0f 85 be 00 00
	00		 jne	 $LN26@Extract

; 599  :                     _Pnode = _Fixnodeparent->_Right;

  0016d	8b 4e 08	 mov	 ecx, DWORD PTR [esi+8]

; 600  :                     if (_Pnode->_Color == _Red) { // rotate red up from right subtree

  00170	80 79 0c 00	 cmp	 BYTE PTR [ecx+12], 0
  00174	75 54		 jne	 SHORT $LN95@Extract

; 601  :                         _Pnode->_Color         = _Black;

  00176	c6 41 0c 01	 mov	 BYTE PTR [ecx+12], 1

; 484  :         _Nodeptr _Pnode    = _Wherenode->_Right;

  0017a	8b 4e 08	 mov	 ecx, DWORD PTR [esi+8]

; 602  :                         _Fixnodeparent->_Color = _Red;

  0017d	c6 46 0c 00	 mov	 BYTE PTR [esi+12], 0

; 485  :         _Wherenode->_Right = _Pnode->_Left;

  00181	8b 01		 mov	 eax, DWORD PTR [ecx]
  00183	89 46 08	 mov	 DWORD PTR [esi+8], eax

; 486  : 
; 487  :         if (!_Pnode->_Left->_Isnil) {

  00186	8b 01		 mov	 eax, DWORD PTR [ecx]
  00188	80 78 0d 00	 cmp	 BYTE PTR [eax+13], 0
  0018c	75 03		 jne	 SHORT $LN61@Extract

; 488  :             _Pnode->_Left->_Parent = _Wherenode;

  0018e	89 70 04	 mov	 DWORD PTR [eax+4], esi
$LN61@Extract:

; 489  :         }
; 490  : 
; 491  :         _Pnode->_Parent = _Wherenode->_Parent;

  00191	8b 46 04	 mov	 eax, DWORD PTR [esi+4]
  00194	8d 56 04	 lea	 edx, DWORD PTR [esi+4]
  00197	89 41 04	 mov	 DWORD PTR [ecx+4], eax

; 492  : 
; 493  :         if (_Wherenode == _Myhead->_Parent) {

  0019a	8b 03		 mov	 eax, DWORD PTR [ebx]
  0019c	3b 70 04	 cmp	 esi, DWORD PTR [eax+4]
  0019f	75 0c		 jne	 SHORT $LN62@Extract

; 494  :             _Myhead->_Parent = _Pnode;

  001a1	89 48 04	 mov	 DWORD PTR [eax+4], ecx

; 499  :         }
; 500  : 
; 501  :         _Pnode->_Left       = _Wherenode;

  001a4	89 31		 mov	 DWORD PTR [ecx], esi

; 502  :         _Wherenode->_Parent = _Pnode;

  001a6	89 0a		 mov	 DWORD PTR [edx], ecx

; 603  :                         _Lrotate(_Fixnodeparent);
; 604  :                         _Pnode = _Fixnodeparent->_Right;

  001a8	8b 4e 08	 mov	 ecx, DWORD PTR [esi+8]
  001ab	eb 20		 jmp	 SHORT $LN87@Extract
$LN62@Extract:

; 495  :         } else if (_Wherenode == _Wherenode->_Parent->_Left) {

  001ad	8b 02		 mov	 eax, DWORD PTR [edx]
  001af	3b 30		 cmp	 esi, DWORD PTR [eax]
  001b1	75 0b		 jne	 SHORT $LN64@Extract

; 496  :             _Wherenode->_Parent->_Left = _Pnode;

  001b3	89 08		 mov	 DWORD PTR [eax], ecx

; 499  :         }
; 500  : 
; 501  :         _Pnode->_Left       = _Wherenode;

  001b5	89 31		 mov	 DWORD PTR [ecx], esi

; 502  :         _Wherenode->_Parent = _Pnode;

  001b7	89 0a		 mov	 DWORD PTR [edx], ecx

; 603  :                         _Lrotate(_Fixnodeparent);
; 604  :                         _Pnode = _Fixnodeparent->_Right;

  001b9	8b 4e 08	 mov	 ecx, DWORD PTR [esi+8]
  001bc	eb 0f		 jmp	 SHORT $LN87@Extract
$LN64@Extract:

; 498  :             _Wherenode->_Parent->_Right = _Pnode;

  001be	89 48 08	 mov	 DWORD PTR [eax+8], ecx

; 499  :         }
; 500  : 
; 501  :         _Pnode->_Left       = _Wherenode;

  001c1	89 31		 mov	 DWORD PTR [ecx], esi

; 502  :         _Wherenode->_Parent = _Pnode;

  001c3	89 0a		 mov	 DWORD PTR [edx], ecx

; 603  :                         _Lrotate(_Fixnodeparent);
; 604  :                         _Pnode = _Fixnodeparent->_Right;

  001c5	8b 4e 08	 mov	 ecx, DWORD PTR [esi+8]
  001c8	eb 03		 jmp	 SHORT $LN87@Extract
$LN95@Extract:
  001ca	8d 56 04	 lea	 edx, DWORD PTR [esi+4]
$LN87@Extract:

; 605  :                     }
; 606  : 
; 607  :                     if (_Pnode->_Isnil) {

  001cd	80 79 0d 00	 cmp	 BYTE PTR [ecx+13], 0
  001d1	0f 85 d0 00 00
	00		 jne	 $LN2@Extract

; 608  :                         _Fixnode = _Fixnodeparent; // shouldn't happen
; 609  :                     } else if (_Pnode->_Left->_Color == _Black
; 610  :                                && _Pnode->_Right->_Color == _Black) { // redden right subtree with black children

  001d7	8b 01		 mov	 eax, DWORD PTR [ecx]
  001d9	80 78 0c 01	 cmp	 BYTE PTR [eax+12], 1
  001dd	75 0d		 jne	 SHORT $LN97@Extract
  001df	8b 41 08	 mov	 eax, DWORD PTR [ecx+8]
  001e2	80 78 0c 01	 cmp	 BYTE PTR [eax+12], 1
  001e6	0f 84 b4 00 00
	00		 je	 $LN142@Extract
$LN97@Extract:

; 611  :                         _Pnode->_Color = _Red;
; 612  :                         _Fixnode       = _Fixnodeparent;
; 613  :                     } else { // must rearrange right subtree
; 614  :                         if (_Pnode->_Right->_Color == _Black) { // rotate red up from left sub-subtree

  001ec	8b 41 08	 mov	 eax, DWORD PTR [ecx+8]
  001ef	8b 5d fc	 mov	 ebx, DWORD PTR _this$1$[ebp]
  001f2	80 78 0c 01	 cmp	 BYTE PTR [eax+12], 1
  001f6	75 15		 jne	 SHORT $LN33@Extract

; 615  :                             _Pnode->_Left->_Color = _Black;

  001f8	8b 01		 mov	 eax, DWORD PTR [ecx]

; 616  :                             _Pnode->_Color        = _Red;
; 617  :                             _Rrotate(_Pnode);

  001fa	51		 push	 ecx
  001fb	c6 40 0c 01	 mov	 BYTE PTR [eax+12], 1
  001ff	c6 41 0c 00	 mov	 BYTE PTR [ecx+12], 0
  00203	8b cb		 mov	 ecx, ebx
  00205	e8 00 00 00 00	 call	 ?_Rrotate@?$_Tree_val@U?$_Tree_simple_types@U?$pair@$$CBV?$basic_string@DU?$char_traits@D@std@@V?$allocator@D@2@@std@@PAVCObject3D@@@std@@@std@@@std@@QAEXPAU?$_Tree_node@U?$pair@$$CBV?$basic_string@DU?$char_traits@D@std@@V?$allocator@D@2@@std@@PAVCObject3D@@@std@@PAX@2@@Z ; std::_Tree_val<std::_Tree_simple_types<std::pair<std::basic_string<char,std::char_traits<char>,std::allocator<char> > const ,CObject3D *> > >::_Rrotate

; 618  :                             _Pnode = _Fixnodeparent->_Right;

  0020a	8b 4e 08	 mov	 ecx, DWORD PTR [esi+8]
$LN33@Extract:

; 619  :                         }
; 620  : 
; 621  :                         _Pnode->_Color         = _Fixnodeparent->_Color;

  0020d	8a 46 0c	 mov	 al, BYTE PTR [esi+12]
  00210	88 41 0c	 mov	 BYTE PTR [ecx+12], al

; 622  :                         _Fixnodeparent->_Color = _Black;

  00213	c6 46 0c 01	 mov	 BYTE PTR [esi+12], 1

; 623  :                         _Pnode->_Right->_Color = _Black;

  00217	8b 41 08	 mov	 eax, DWORD PTR [ecx+8]

; 624  :                         _Lrotate(_Fixnodeparent);

  0021a	8b cb		 mov	 ecx, ebx
  0021c	56		 push	 esi
  0021d	c6 40 0c 01	 mov	 BYTE PTR [eax+12], 1
  00221	e8 00 00 00 00	 call	 ?_Lrotate@?$_Tree_val@U?$_Tree_simple_types@U?$pair@$$CBV?$basic_string@DU?$char_traits@D@std@@V?$allocator@D@2@@std@@PAVCObject3D@@@std@@@std@@@std@@QAEXPAU?$_Tree_node@U?$pair@$$CBV?$basic_string@DU?$char_traits@D@std@@V?$allocator@D@2@@std@@PAVCObject3D@@@std@@PAX@2@@Z ; std::_Tree_val<std::_Tree_simple_types<std::pair<std::basic_string<char,std::char_traits<char>,std::allocator<char> > const ,CObject3D *> > >::_Lrotate

; 625  :                         break; // tree now recolored/rebalanced

  00226	e9 d3 00 00 00	 jmp	 $LN3@Extract
$LN26@Extract:

; 626  :                     }
; 627  :                 } else { // fixup right subtree
; 628  :                     _Pnode = _Fixnodeparent->_Left;
; 629  :                     if (_Pnode->_Color == _Red) { // rotate red up from left subtree

  0022b	80 79 0c 00	 cmp	 BYTE PTR [ecx+12], 0
  0022f	75 55		 jne	 SHORT $LN96@Extract

; 630  :                         _Pnode->_Color         = _Black;

  00231	c6 41 0c 01	 mov	 BYTE PTR [ecx+12], 1

; 506  :         _Nodeptr _Pnode   = _Wherenode->_Left;

  00235	8b 0e		 mov	 ecx, DWORD PTR [esi]

; 631  :                         _Fixnodeparent->_Color = _Red;

  00237	c6 46 0c 00	 mov	 BYTE PTR [esi+12], 0

; 507  :         _Wherenode->_Left = _Pnode->_Right;

  0023b	8b 41 08	 mov	 eax, DWORD PTR [ecx+8]
  0023e	89 06		 mov	 DWORD PTR [esi], eax

; 508  : 
; 509  :         if (!_Pnode->_Right->_Isnil) {

  00240	8b 41 08	 mov	 eax, DWORD PTR [ecx+8]
  00243	80 78 0d 00	 cmp	 BYTE PTR [eax+13], 0
  00247	75 03		 jne	 SHORT $LN69@Extract

; 510  :             _Pnode->_Right->_Parent = _Wherenode;

  00249	89 70 04	 mov	 DWORD PTR [eax+4], esi
$LN69@Extract:

; 511  :         }
; 512  : 
; 513  :         _Pnode->_Parent = _Wherenode->_Parent;

  0024c	8b 46 04	 mov	 eax, DWORD PTR [esi+4]
  0024f	8d 56 04	 lea	 edx, DWORD PTR [esi+4]
  00252	89 41 04	 mov	 DWORD PTR [ecx+4], eax

; 514  : 
; 515  :         if (_Wherenode == _Myhead->_Parent) {

  00255	8b 03		 mov	 eax, DWORD PTR [ebx]
  00257	3b 70 04	 cmp	 esi, DWORD PTR [eax+4]
  0025a	75 0c		 jne	 SHORT $LN70@Extract

; 516  :             _Myhead->_Parent = _Pnode;

  0025c	89 48 04	 mov	 DWORD PTR [eax+4], ecx

; 521  :         }
; 522  : 
; 523  :         _Pnode->_Right      = _Wherenode;

  0025f	89 71 08	 mov	 DWORD PTR [ecx+8], esi

; 524  :         _Wherenode->_Parent = _Pnode;

  00262	89 0a		 mov	 DWORD PTR [edx], ecx

; 632  :                         _Rrotate(_Fixnodeparent);
; 633  :                         _Pnode = _Fixnodeparent->_Left;

  00264	8b 0e		 mov	 ecx, DWORD PTR [esi]
  00266	eb 21		 jmp	 SHORT $LN86@Extract
$LN70@Extract:

; 517  :         } else if (_Wherenode == _Wherenode->_Parent->_Right) {

  00268	8b 02		 mov	 eax, DWORD PTR [edx]
  0026a	3b 70 08	 cmp	 esi, DWORD PTR [eax+8]
  0026d	75 0c		 jne	 SHORT $LN72@Extract

; 518  :             _Wherenode->_Parent->_Right = _Pnode;

  0026f	89 48 08	 mov	 DWORD PTR [eax+8], ecx

; 521  :         }
; 522  : 
; 523  :         _Pnode->_Right      = _Wherenode;

  00272	89 71 08	 mov	 DWORD PTR [ecx+8], esi

; 524  :         _Wherenode->_Parent = _Pnode;

  00275	89 0a		 mov	 DWORD PTR [edx], ecx

; 632  :                         _Rrotate(_Fixnodeparent);
; 633  :                         _Pnode = _Fixnodeparent->_Left;

  00277	8b 0e		 mov	 ecx, DWORD PTR [esi]
  00279	eb 0e		 jmp	 SHORT $LN86@Extract
$LN72@Extract:

; 520  :             _Wherenode->_Parent->_Left = _Pnode;

  0027b	89 08		 mov	 DWORD PTR [eax], ecx

; 521  :         }
; 522  : 
; 523  :         _Pnode->_Right      = _Wherenode;

  0027d	89 71 08	 mov	 DWORD PTR [ecx+8], esi

; 524  :         _Wherenode->_Parent = _Pnode;

  00280	89 0a		 mov	 DWORD PTR [edx], ecx

; 632  :                         _Rrotate(_Fixnodeparent);
; 633  :                         _Pnode = _Fixnodeparent->_Left;

  00282	8b 0e		 mov	 ecx, DWORD PTR [esi]
  00284	eb 03		 jmp	 SHORT $LN86@Extract
$LN96@Extract:
  00286	8d 56 04	 lea	 edx, DWORD PTR [esi+4]
$LN86@Extract:

; 634  :                     }
; 635  : 
; 636  :                     if (_Pnode->_Isnil) {

  00289	80 79 0d 00	 cmp	 BYTE PTR [ecx+13], 0
  0028d	75 18		 jne	 SHORT $LN2@Extract

; 637  :                         _Fixnode = _Fixnodeparent; // shouldn't happen
; 638  :                     } else if (_Pnode->_Right->_Color == _Black
; 639  :                                && _Pnode->_Left->_Color == _Black) { // redden left subtree with black children

  0028f	8b 59 08	 mov	 ebx, DWORD PTR [ecx+8]
  00292	80 7b 0c 01	 cmp	 BYTE PTR [ebx+12], 1
  00296	75 2c		 jne	 SHORT $LN98@Extract
  00298	8b 01		 mov	 eax, DWORD PTR [ecx]
  0029a	80 78 0c 01	 cmp	 BYTE PTR [eax+12], 1
  0029e	75 24		 jne	 SHORT $LN98@Extract
$LN142@Extract:

; 597  :             for (; _Fixnode != _Myhead->_Parent && _Fixnode->_Color == _Black; _Fixnodeparent = _Fixnode->_Parent) {

  002a0	8b 5d fc	 mov	 ebx, DWORD PTR _this$1$[ebp]
  002a3	c6 41 0c 00	 mov	 BYTE PTR [ecx+12], 0
$LN2@Extract:
  002a7	8b 03		 mov	 eax, DWORD PTR [ebx]
  002a9	8b 4d f4	 mov	 ecx, DWORD PTR tv1093[ebp]
  002ac	8b f9		 mov	 edi, ecx
  002ae	8b 32		 mov	 esi, DWORD PTR [edx]
  002b0	3b 48 04	 cmp	 ecx, DWORD PTR [eax+4]
  002b3	74 49		 je	 SHORT $LN3@Extract
  002b5	80 7f 0c 01	 cmp	 BYTE PTR [edi+12], 1
  002b9	89 75 f4	 mov	 DWORD PTR tv1093[ebp], esi
  002bc	0f 84 a1 fe ff
	ff		 je	 $LL4@Extract
  002c2	eb 3a		 jmp	 SHORT $LN3@Extract
$LN98@Extract:

; 640  :                         _Pnode->_Color = _Red;
; 641  :                         _Fixnode       = _Fixnodeparent;
; 642  :                     } else { // must rearrange left subtree
; 643  :                         if (_Pnode->_Left->_Color == _Black) { // rotate red up from right sub-subtree

  002c4	8b 01		 mov	 eax, DWORD PTR [ecx]
  002c6	80 78 0c 01	 cmp	 BYTE PTR [eax+12], 1
  002ca	75 17		 jne	 SHORT $LN101@Extract

; 644  :                             _Pnode->_Right->_Color = _Black;

  002cc	c6 43 0c 01	 mov	 BYTE PTR [ebx+12], 1

; 645  :                             _Pnode->_Color         = _Red;
; 646  :                             _Lrotate(_Pnode);

  002d0	8b 5d fc	 mov	 ebx, DWORD PTR _this$1$[ebp]
  002d3	c6 41 0c 00	 mov	 BYTE PTR [ecx+12], 0
  002d7	51		 push	 ecx
  002d8	8b cb		 mov	 ecx, ebx
  002da	e8 00 00 00 00	 call	 ?_Lrotate@?$_Tree_val@U?$_Tree_simple_types@U?$pair@$$CBV?$basic_string@DU?$char_traits@D@std@@V?$allocator@D@2@@std@@PAVCObject3D@@@std@@@std@@@std@@QAEXPAU?$_Tree_node@U?$pair@$$CBV?$basic_string@DU?$char_traits@D@std@@V?$allocator@D@2@@std@@PAVCObject3D@@@std@@PAX@2@@Z ; std::_Tree_val<std::_Tree_simple_types<std::pair<std::basic_string<char,std::char_traits<char>,std::allocator<char> > const ,CObject3D *> > >::_Lrotate

; 647  :                             _Pnode = _Fixnodeparent->_Left;

  002df	8b 0e		 mov	 ecx, DWORD PTR [esi]
  002e1	eb 03		 jmp	 SHORT $LN39@Extract
$LN101@Extract:

; 640  :                         _Pnode->_Color = _Red;
; 641  :                         _Fixnode       = _Fixnodeparent;
; 642  :                     } else { // must rearrange left subtree
; 643  :                         if (_Pnode->_Left->_Color == _Black) { // rotate red up from right sub-subtree

  002e3	8b 5d fc	 mov	 ebx, DWORD PTR _this$1$[ebp]
$LN39@Extract:

; 648  :                         }
; 649  : 
; 650  :                         _Pnode->_Color         = _Fixnodeparent->_Color;

  002e6	8a 46 0c	 mov	 al, BYTE PTR [esi+12]
  002e9	88 41 0c	 mov	 BYTE PTR [ecx+12], al

; 651  :                         _Fixnodeparent->_Color = _Black;

  002ec	c6 46 0c 01	 mov	 BYTE PTR [esi+12], 1

; 652  :                         _Pnode->_Left->_Color  = _Black;

  002f0	8b 01		 mov	 eax, DWORD PTR [ecx]

; 653  :                         _Rrotate(_Fixnodeparent);

  002f2	8b cb		 mov	 ecx, ebx
  002f4	56		 push	 esi
  002f5	c6 40 0c 01	 mov	 BYTE PTR [eax+12], 1
  002f9	e8 00 00 00 00	 call	 ?_Rrotate@?$_Tree_val@U?$_Tree_simple_types@U?$pair@$$CBV?$basic_string@DU?$char_traits@D@std@@V?$allocator@D@2@@std@@PAVCObject3D@@@std@@@std@@@std@@QAEXPAU?$_Tree_node@U?$pair@$$CBV?$basic_string@DU?$char_traits@D@std@@V?$allocator@D@2@@std@@PAVCObject3D@@@std@@PAX@2@@Z ; std::_Tree_val<std::_Tree_simple_types<std::pair<std::basic_string<char,std::char_traits<char>,std::allocator<char> > const ,CObject3D *> > >::_Rrotate
$LN3@Extract:

; 654  :                         break; // tree now recolored/rebalanced
; 655  :                     }
; 656  :                 }
; 657  :             }
; 658  : 
; 659  :             _Fixnode->_Color = _Black; // stopping node is black

  002fe	8b 45 f8	 mov	 eax, DWORD PTR __Erasednode$1$[ebp]
  00301	c6 47 0c 01	 mov	 BYTE PTR [edi+12], 1
$LN25@Extract:

; 660  :         }
; 661  : 
; 662  :         if (0 < _Mysize) {

  00305	8b 4b 04	 mov	 ecx, DWORD PTR [ebx+4]
  00308	85 c9		 test	 ecx, ecx
  0030a	74 04		 je	 SHORT $LN40@Extract

; 663  :             --_Mysize;

  0030c	49		 dec	 ecx
  0030d	89 4b 04	 mov	 DWORD PTR [ebx+4], ecx
$LN40@Extract:

; 664  :         }
; 665  : 
; 666  :         return _Erasednode;
; 667  :     }

  00310	5f		 pop	 edi
  00311	5e		 pop	 esi
  00312	5b		 pop	 ebx
  00313	8b e5		 mov	 esp, ebp
  00315	5d		 pop	 ebp
  00316	c2 04 00	 ret	 4
?_Extract@?$_Tree_val@U?$_Tree_simple_types@U?$pair@$$CBV?$basic_string@DU?$char_traits@D@std@@V?$allocator@D@2@@std@@PAVCObject3D@@@std@@@std@@@std@@QAEPAU?$_Tree_node@U?$pair@$$CBV?$basic_string@DU?$char_traits@D@std@@V?$allocator@D@2@@std@@PAVCObject3D@@@std@@PAX@2@V?$_Tree_unchecked_const_iterator@V?$_Tree_val@U?$_Tree_simple_types@U?$pair@$$CBV?$basic_string@DU?$char_traits@D@std@@V?$allocator@D@2@@std@@PAVCObject3D@@@std@@@std@@@std@@U_Iterator_base0@2@@2@@Z ENDP ; std::_Tree_val<std::_Tree_simple_types<std::pair<std::basic_string<char,std::char_traits<char>,std::allocator<char> > const ,CObject3D *> > >::_Extract
_TEXT	ENDS
; Function compile flags: /Ogtp
; File C:\Program Files\Microsoft Visual Studio\2022\Professional\VC\Tools\MSVC\14.44.35207\include\xtree
;	COMDAT ?_Rrotate@?$_Tree_val@U?$_Tree_simple_types@U?$pair@$$CBV?$basic_string@DU?$char_traits@D@std@@V?$allocator@D@2@@std@@PAVCObject3D@@@std@@@std@@@std@@QAEXPAU?$_Tree_node@U?$pair@$$CBV?$basic_string@DU?$char_traits@D@std@@V?$allocator@D@2@@std@@PAVCObject3D@@@std@@PAX@2@@Z
_TEXT	SEGMENT
__Wherenode$ = 8					; size = 4
?_Rrotate@?$_Tree_val@U?$_Tree_simple_types@U?$pair@$$CBV?$basic_string@DU?$char_traits@D@std@@V?$allocator@D@2@@std@@PAVCObject3D@@@std@@@std@@@std@@QAEXPAU?$_Tree_node@U?$pair@$$CBV?$basic_string@DU?$char_traits@D@std@@V?$allocator@D@2@@std@@PAVCObject3D@@@std@@PAX@2@@Z PROC ; std::_Tree_val<std::_Tree_simple_types<std::pair<std::basic_string<char,std::char_traits<char>,std::allocator<char> > const ,CObject3D *> > >::_Rrotate, COMDAT
; _this$ = ecx

; 505  :     void _Rrotate(_Nodeptr _Wherenode) noexcept { // promote left node to root of subtree

  00000	55		 push	 ebp
  00001	8b ec		 mov	 ebp, esp

; 506  :         _Nodeptr _Pnode   = _Wherenode->_Left;

  00003	8b 55 08	 mov	 edx, DWORD PTR __Wherenode$[ebp]
  00006	56		 push	 esi
  00007	8b 32		 mov	 esi, DWORD PTR [edx]

; 507  :         _Wherenode->_Left = _Pnode->_Right;

  00009	8b 46 08	 mov	 eax, DWORD PTR [esi+8]
  0000c	89 02		 mov	 DWORD PTR [edx], eax

; 508  : 
; 509  :         if (!_Pnode->_Right->_Isnil) {

  0000e	8b 46 08	 mov	 eax, DWORD PTR [esi+8]
  00011	80 78 0d 00	 cmp	 BYTE PTR [eax+13], 0
  00015	75 03		 jne	 SHORT $LN2@Rrotate

; 510  :             _Pnode->_Right->_Parent = _Wherenode;

  00017	89 50 04	 mov	 DWORD PTR [eax+4], edx
$LN2@Rrotate:

; 511  :         }
; 512  : 
; 513  :         _Pnode->_Parent = _Wherenode->_Parent;

  0001a	8b 42 04	 mov	 eax, DWORD PTR [edx+4]
  0001d	89 46 04	 mov	 DWORD PTR [esi+4], eax

; 514  : 
; 515  :         if (_Wherenode == _Myhead->_Parent) {

  00020	8b 01		 mov	 eax, DWORD PTR [ecx]
  00022	3b 50 04	 cmp	 edx, DWORD PTR [eax+4]
  00025	75 0e		 jne	 SHORT $LN3@Rrotate

; 516  :             _Myhead->_Parent = _Pnode;

  00027	89 70 04	 mov	 DWORD PTR [eax+4], esi

; 521  :         }
; 522  : 
; 523  :         _Pnode->_Right      = _Wherenode;
; 524  :         _Wherenode->_Parent = _Pnode;
; 525  :     }

  0002a	89 56 08	 mov	 DWORD PTR [esi+8], edx
  0002d	89 72 04	 mov	 DWORD PTR [edx+4], esi
  00030	5e		 pop	 esi
  00031	5d		 pop	 ebp
  00032	c2 04 00	 ret	 4
$LN3@Rrotate:

; 517  :         } else if (_Wherenode == _Wherenode->_Parent->_Right) {

  00035	8b 42 04	 mov	 eax, DWORD PTR [edx+4]
  00038	3b 50 08	 cmp	 edx, DWORD PTR [eax+8]
  0003b	75 0e		 jne	 SHORT $LN5@Rrotate

; 518  :             _Wherenode->_Parent->_Right = _Pnode;

  0003d	89 70 08	 mov	 DWORD PTR [eax+8], esi

; 521  :         }
; 522  : 
; 523  :         _Pnode->_Right      = _Wherenode;
; 524  :         _Wherenode->_Parent = _Pnode;
; 525  :     }

  00040	89 56 08	 mov	 DWORD PTR [esi+8], edx
  00043	89 72 04	 mov	 DWORD PTR [edx+4], esi
  00046	5e		 pop	 esi
  00047	5d		 pop	 ebp
  00048	c2 04 00	 ret	 4
$LN5@Rrotate:

; 519  :         } else {
; 520  :             _Wherenode->_Parent->_Left = _Pnode;

  0004b	89 30		 mov	 DWORD PTR [eax], esi

; 521  :         }
; 522  : 
; 523  :         _Pnode->_Right      = _Wherenode;
; 524  :         _Wherenode->_Parent = _Pnode;
; 525  :     }

  0004d	89 56 08	 mov	 DWORD PTR [esi+8], edx
  00050	89 72 04	 mov	 DWORD PTR [edx+4], esi
  00053	5e		 pop	 esi
  00054	5d		 pop	 ebp
  00055	c2 04 00	 ret	 4
?_Rrotate@?$_Tree_val@U?$_Tree_simple_types@U?$pair@$$CBV?$basic_string@DU?$char_traits@D@std@@V?$allocator@D@2@@std@@PAVCObject3D@@@std@@@std@@@std@@QAEXPAU?$_Tree_node@U?$pair@$$CBV?$basic_string@DU?$char_traits@D@std@@V?$allocator@D@2@@std@@PAVCObject3D@@@std@@PAX@2@@Z ENDP ; std::_Tree_val<std::_Tree_simple_types<std::pair<std::basic_string<char,std::char_traits<char>,std::allocator<char> > const ,CObject3D *> > >::_Rrotate
_TEXT	ENDS
; Function compile flags: /Ogtp
; File C:\Program Files\Microsoft Visual Studio\2022\Professional\VC\Tools\MSVC\14.44.35207\include\xtree
;	COMDAT ?_Lrotate@?$_Tree_val@U?$_Tree_simple_types@U?$pair@$$CBV?$basic_string@DU?$char_traits@D@std@@V?$allocator@D@2@@std@@PAVCObject3D@@@std@@@std@@@std@@QAEXPAU?$_Tree_node@U?$pair@$$CBV?$basic_string@DU?$char_traits@D@std@@V?$allocator@D@2@@std@@PAVCObject3D@@@std@@PAX@2@@Z
_TEXT	SEGMENT
__Wherenode$ = 8					; size = 4
?_Lrotate@?$_Tree_val@U?$_Tree_simple_types@U?$pair@$$CBV?$basic_string@DU?$char_traits@D@std@@V?$allocator@D@2@@std@@PAVCObject3D@@@std@@@std@@@std@@QAEXPAU?$_Tree_node@U?$pair@$$CBV?$basic_string@DU?$char_traits@D@std@@V?$allocator@D@2@@std@@PAVCObject3D@@@std@@PAX@2@@Z PROC ; std::_Tree_val<std::_Tree_simple_types<std::pair<std::basic_string<char,std::char_traits<char>,std::allocator<char> > const ,CObject3D *> > >::_Lrotate, COMDAT
; _this$ = ecx

; 483  :     void _Lrotate(_Nodeptr _Wherenode) noexcept { // promote right node to root of subtree

  00000	55		 push	 ebp
  00001	8b ec		 mov	 ebp, esp

; 484  :         _Nodeptr _Pnode    = _Wherenode->_Right;

  00003	8b 55 08	 mov	 edx, DWORD PTR __Wherenode$[ebp]
  00006	56		 push	 esi
  00007	8b 72 08	 mov	 esi, DWORD PTR [edx+8]

; 485  :         _Wherenode->_Right = _Pnode->_Left;

  0000a	8b 06		 mov	 eax, DWORD PTR [esi]
  0000c	89 42 08	 mov	 DWORD PTR [edx+8], eax

; 486  : 
; 487  :         if (!_Pnode->_Left->_Isnil) {

  0000f	8b 06		 mov	 eax, DWORD PTR [esi]
  00011	80 78 0d 00	 cmp	 BYTE PTR [eax+13], 0
  00015	75 03		 jne	 SHORT $LN2@Lrotate

; 488  :             _Pnode->_Left->_Parent = _Wherenode;

  00017	89 50 04	 mov	 DWORD PTR [eax+4], edx
$LN2@Lrotate:

; 489  :         }
; 490  : 
; 491  :         _Pnode->_Parent = _Wherenode->_Parent;

  0001a	8b 42 04	 mov	 eax, DWORD PTR [edx+4]
  0001d	89 46 04	 mov	 DWORD PTR [esi+4], eax

; 492  : 
; 493  :         if (_Wherenode == _Myhead->_Parent) {

  00020	8b 01		 mov	 eax, DWORD PTR [ecx]
  00022	3b 50 04	 cmp	 edx, DWORD PTR [eax+4]
  00025	75 0d		 jne	 SHORT $LN3@Lrotate

; 494  :             _Myhead->_Parent = _Pnode;

  00027	89 70 04	 mov	 DWORD PTR [eax+4], esi

; 499  :         }
; 500  : 
; 501  :         _Pnode->_Left       = _Wherenode;
; 502  :         _Wherenode->_Parent = _Pnode;
; 503  :     }

  0002a	89 16		 mov	 DWORD PTR [esi], edx
  0002c	89 72 04	 mov	 DWORD PTR [edx+4], esi
  0002f	5e		 pop	 esi
  00030	5d		 pop	 ebp
  00031	c2 04 00	 ret	 4
$LN3@Lrotate:

; 495  :         } else if (_Wherenode == _Wherenode->_Parent->_Left) {

  00034	8b 42 04	 mov	 eax, DWORD PTR [edx+4]
  00037	3b 10		 cmp	 edx, DWORD PTR [eax]
  00039	75 0c		 jne	 SHORT $LN5@Lrotate

; 496  :             _Wherenode->_Parent->_Left = _Pnode;

  0003b	89 30		 mov	 DWORD PTR [eax], esi

; 499  :         }
; 500  : 
; 501  :         _Pnode->_Left       = _Wherenode;
; 502  :         _Wherenode->_Parent = _Pnode;
; 503  :     }

  0003d	89 16		 mov	 DWORD PTR [esi], edx
  0003f	89 72 04	 mov	 DWORD PTR [edx+4], esi
  00042	5e		 pop	 esi
  00043	5d		 pop	 ebp
  00044	c2 04 00	 ret	 4
$LN5@Lrotate:

; 497  :         } else {
; 498  :             _Wherenode->_Parent->_Right = _Pnode;

  00047	89 70 08	 mov	 DWORD PTR [eax+8], esi

; 499  :         }
; 500  : 
; 501  :         _Pnode->_Left       = _Wherenode;
; 502  :         _Wherenode->_Parent = _Pnode;
; 503  :     }

  0004a	89 16		 mov	 DWORD PTR [esi], edx
  0004c	89 72 04	 mov	 DWORD PTR [edx+4], esi
  0004f	5e		 pop	 esi
  00050	5d		 pop	 ebp
  00051	c2 04 00	 ret	 4
?_Lrotate@?$_Tree_val@U?$_Tree_simple_types@U?$pair@$$CBV?$basic_string@DU?$char_traits@D@std@@V?$allocator@D@2@@std@@PAVCObject3D@@@std@@@std@@@std@@QAEXPAU?$_Tree_node@U?$pair@$$CBV?$basic_string@DU?$char_traits@D@std@@V?$allocator@D@2@@std@@PAVCObject3D@@@std@@PAX@2@@Z ENDP ; std::_Tree_val<std::_Tree_simple_types<std::pair<std::basic_string<char,std::char_traits<char>,std::allocator<char> > const ,CObject3D *> > >::_Lrotate
_TEXT	ENDS
; Function compile flags: /Ogtp
; File C:\Program Files\Microsoft Visual Studio\2022\Professional\VC\Tools\MSVC\14.44.35207\include\xtree
; File C:\Program Files\Microsoft Visual Studio\2022\Professional\VC\Tools\MSVC\14.44.35207\include\type_traits
; File C:\Program Files\Microsoft Visual Studio\2022\Professional\VC\Tools\MSVC\14.44.35207\include\xtree
; File C:\Program Files\Microsoft Visual Studio\2022\Professional\VC\Tools\MSVC\14.44.35207\include\type_traits
; File C:\Program Files\Microsoft Visual Studio\2022\Professional\VC\Tools\MSVC\14.44.35207\include\xtree
; File C:\Program Files\Microsoft Visual Studio\2022\Professional\VC\Tools\MSVC\14.44.35207\include\type_traits
; File C:\Program Files\Microsoft Visual Studio\2022\Professional\VC\Tools\MSVC\14.44.35207\include\xtree
; File C:\Program Files\Microsoft Visual Studio\2022\Professional\VC\Tools\MSVC\14.44.35207\include\xutility
; File C:\Program Files\Microsoft Visual Studio\2022\Professional\VC\Tools\MSVC\14.44.35207\include\xtree
; File C:\Program Files\Microsoft Visual Studio\2022\Professional\VC\Tools\MSVC\14.44.35207\include\xutility
; File C:\Program Files\Microsoft Visual Studio\2022\Professional\VC\Tools\MSVC\14.44.35207\include\xtree
; File C:\Program Files\Microsoft Visual Studio\2022\Professional\VC\Tools\MSVC\14.44.35207\include\xutility
; File C:\Program Files\Microsoft Visual Studio\2022\Professional\VC\Tools\MSVC\14.44.35207\include\xtree
; File C:\Program Files\Microsoft Visual Studio\2022\Professional\VC\Tools\MSVC\14.44.35207\include\xutility
; File C:\Program Files\Microsoft Visual Studio\2022\Professional\VC\Tools\MSVC\14.44.35207\include\xtree
; File C:\Program Files\Microsoft Visual Studio\2022\Professional\VC\Tools\MSVC\14.44.35207\include\xmemory
; File C:\Program Files\Microsoft Visual Studio\2022\Professional\VC\Tools\MSVC\14.44.35207\include\xtree
; File C:\Program Files\Microsoft Visual Studio\2022\Professional\VC\Tools\MSVC\14.44.35207\include\xmemory
; File C:\Program Files\Microsoft Visual Studio\2022\Professional\VC\Tools\MSVC\14.44.35207\include\xtree
;	COMDAT ?erase@?$_Tree@V?$_Tmap_traits@V?$basic_string@DU?$char_traits@D@std@@V?$allocator@D@2@@std@@PAVCObject3D@@U?$less@V?$basic_string@DU?$char_traits@D@std@@V?$allocator@D@2@@std@@@2@V?$allocator@U?$pair@$$CBV?$basic_string@DU?$char_traits@D@std@@V?$allocator@D@2@@std@@PAVCObject3D@@@std@@@2@$0A@@std@@@std@@QAEIABV?$basic_string@DU?$char_traits@D@std@@V?$allocator@D@2@@2@@Z
_TEXT	SEGMENT
__Off$1$ = -12						; size = 4
tv727 = -12						; size = 4
_this$1$ = -8						; size = 4
__Head$1$ = -4						; size = 4
__Keyval$ = 8						; size = 4
__First$ = 8						; size = 4
?erase@?$_Tree@V?$_Tmap_traits@V?$basic_string@DU?$char_traits@D@std@@V?$allocator@D@2@@std@@PAVCObject3D@@U?$less@V?$basic_string@DU?$char_traits@D@std@@V?$allocator@D@2@@std@@@2@V?$allocator@U?$pair@$$CBV?$basic_string@DU?$char_traits@D@std@@V?$allocator@D@2@@std@@PAVCObject3D@@@std@@@2@$0A@@std@@@std@@QAEIABV?$basic_string@DU?$char_traits@D@std@@V?$allocator@D@2@@2@@Z PROC ; std::_Tree<std::_Tmap_traits<std::basic_string<char,std::char_traits<char>,std::allocator<char> >,CObject3D *,std::less<std::basic_string<char,std::char_traits<char>,std::allocator<char> > >,std::allocator<std::pair<std::basic_string<char,std::char_traits<char>,std::allocator<char> > const ,CObject3D *> >,0> >::erase, COMDAT
; _this$ = ecx

; 1357 :     size_type erase(const key_type& _Keyval) noexcept(noexcept(_Eqrange(_Keyval))) /* strengthened */ {

  00000	55		 push	 ebp
  00001	8b ec		 mov	 ebp, esp
  00003	83 ec 0c	 sub	 esp, 12			; 0000000cH
  00006	8b c1		 mov	 eax, ecx

; 1713 :         while (!_Pnode->_Isnil) {

  00008	8b 4d 08	 mov	 ecx, DWORD PTR __Keyval$[ebp]

; 1357 :     size_type erase(const key_type& _Keyval) noexcept(noexcept(_Eqrange(_Keyval))) /* strengthened */ {

  0000b	53		 push	 ebx
  0000c	89 45 f8	 mov	 DWORD PTR _this$1$[ebp], eax
  0000f	56		 push	 esi

; 1709 :         _Nodeptr _Pnode   = _Scary->_Myhead->_Parent;

  00010	8b 00		 mov	 eax, DWORD PTR [eax]

; 1710 :         _Nodeptr _Lonode  = _Scary->_Myhead; // end() if search fails

  00012	8b f0		 mov	 esi, eax

; 1357 :     size_type erase(const key_type& _Keyval) noexcept(noexcept(_Eqrange(_Keyval))) /* strengthened */ {

  00014	57		 push	 edi

; 1709 :         _Nodeptr _Pnode   = _Scary->_Myhead->_Parent;

  00015	89 45 fc	 mov	 DWORD PTR __Head$1$[ebp], eax

; 1711 :         _Nodeptr _Hinode  = _Scary->_Myhead; // end() if search fails

  00018	8b d8		 mov	 ebx, eax
  0001a	8b 50 04	 mov	 edx, DWORD PTR [eax+4]
  0001d	8b fa		 mov	 edi, edx
  0001f	89 55 f4	 mov	 DWORD PTR tv727[ebp], edx

; 1712 : 
; 1713 :         while (!_Pnode->_Isnil) {

  00022	80 7f 0d 00	 cmp	 BYTE PTR [edi+13], 0
  00026	75 40		 jne	 SHORT $LN6@erase
$LL5@erase:

; 1714 :             const auto& _Nodekey = _Traits::_Kfn(_Pnode->_Myval);

  00028	8d 47 10	 lea	 eax, DWORD PTR [edi+16]
; File C:\Program Files\Microsoft Visual Studio\2022\Professional\VC\Tools\MSVC\14.44.35207\include\type_traits

; 2380 :         return _Left < _Right;

  0002b	51		 push	 ecx
  0002c	50		 push	 eax
  0002d	e8 00 00 00 00	 call	 ??$?MDU?$char_traits@D@std@@V?$allocator@D@1@@std@@YA_NABV?$basic_string@DU?$char_traits@D@std@@V?$allocator@D@2@@0@0@Z ; std::operator<<char,std::char_traits<char>,std::allocator<char> >
  00032	83 c4 08	 add	 esp, 8
; File C:\Program Files\Microsoft Visual Studio\2022\Professional\VC\Tools\MSVC\14.44.35207\include\xtree

; 1715 :             if (_DEBUG_LT_PRED(_Comp, _Nodekey, _Keyval)) {

  00035	84 c0		 test	 al, al
  00037	74 05		 je	 SHORT $LN9@erase

; 1716 :                 _Pnode = _Pnode->_Right; // descend right subtree

  00039	8b 7f 08	 mov	 edi, DWORD PTR [edi+8]

; 1717 :             } else { // _Pnode not less than _Keyval, remember it

  0003c	eb 1e		 jmp	 SHORT $LN10@erase
$LN9@erase:

; 1718 :                 if (_Hinode->_Isnil && _DEBUG_LT_PRED(_Comp, _Keyval, _Nodekey)) {

  0003e	80 7b 0d 00	 cmp	 BYTE PTR [ebx+13], 0
  00042	74 14		 je	 SHORT $LN11@erase
; File C:\Program Files\Microsoft Visual Studio\2022\Professional\VC\Tools\MSVC\14.44.35207\include\type_traits

; 2380 :         return _Left < _Right;

  00044	8d 47 10	 lea	 eax, DWORD PTR [edi+16]
  00047	50		 push	 eax
  00048	ff 75 08	 push	 DWORD PTR __Keyval$[ebp]
  0004b	e8 00 00 00 00	 call	 ??$?MDU?$char_traits@D@std@@V?$allocator@D@1@@std@@YA_NABV?$basic_string@DU?$char_traits@D@std@@V?$allocator@D@2@@0@0@Z ; std::operator<<char,std::char_traits<char>,std::allocator<char> >
  00050	83 c4 08	 add	 esp, 8
; File C:\Program Files\Microsoft Visual Studio\2022\Professional\VC\Tools\MSVC\14.44.35207\include\xtree

; 1718 :                 if (_Hinode->_Isnil && _DEBUG_LT_PRED(_Comp, _Keyval, _Nodekey)) {

  00053	84 c0		 test	 al, al
  00055	0f 45 df	 cmovne	 ebx, edi
$LN11@erase:

; 1719 :                     _Hinode = _Pnode; // _Pnode greater, remember it
; 1720 :                 }
; 1721 : 
; 1722 :                 _Lonode = _Pnode;

  00058	8b f7		 mov	 esi, edi

; 1723 :                 _Pnode  = _Pnode->_Left; // descend left subtree

  0005a	8b 3f		 mov	 edi, DWORD PTR [edi]
$LN10@erase:

; 1712 : 
; 1713 :         while (!_Pnode->_Isnil) {

  0005c	80 7f 0d 00	 cmp	 BYTE PTR [edi+13], 0
  00060	8b 4d 08	 mov	 ecx, DWORD PTR __Keyval$[ebp]
  00063	74 c3		 je	 SHORT $LL5@erase
  00065	8b 55 f4	 mov	 edx, DWORD PTR tv727[ebp]
$LN6@erase:

; 1724 :             }
; 1725 :         }
; 1726 : 
; 1727 :         _Pnode = _Hinode->_Isnil ? _Scary->_Myhead->_Parent : _Hinode->_Left; // continue scan for upper bound

  00068	80 7b 0d 00	 cmp	 BYTE PTR [ebx+13], 0
  0006c	8b fa		 mov	 edi, edx
  0006e	75 02		 jne	 SHORT $LN16@erase
  00070	8b 3b		 mov	 edi, DWORD PTR [ebx]
$LN16@erase:

; 1728 :         while (!_Pnode->_Isnil) {

  00072	80 7f 0d 00	 cmp	 BYTE PTR [edi+13], 0
  00076	75 23		 jne	 SHORT $LN8@erase
$LL7@erase:

; 1729 :             if (_DEBUG_LT_PRED(_Getcomp(), _Keyval, _Traits::_Kfn(_Pnode->_Myval))) {

  00078	8d 47 10	 lea	 eax, DWORD PTR [edi+16]
; File C:\Program Files\Microsoft Visual Studio\2022\Professional\VC\Tools\MSVC\14.44.35207\include\type_traits

; 2380 :         return _Left < _Right;

  0007b	50		 push	 eax
  0007c	51		 push	 ecx
  0007d	e8 00 00 00 00	 call	 ??$?MDU?$char_traits@D@std@@V?$allocator@D@1@@std@@YA_NABV?$basic_string@DU?$char_traits@D@std@@V?$allocator@D@2@@0@0@Z ; std::operator<<char,std::char_traits<char>,std::allocator<char> >
  00082	83 c4 08	 add	 esp, 8
; File C:\Program Files\Microsoft Visual Studio\2022\Professional\VC\Tools\MSVC\14.44.35207\include\xtree

; 1729 :             if (_DEBUG_LT_PRED(_Getcomp(), _Keyval, _Traits::_Kfn(_Pnode->_Myval))) {

  00085	84 c0		 test	 al, al
  00087	74 06		 je	 SHORT $LN12@erase

; 1730 :                 // _Pnode greater than _Keyval, remember it
; 1731 :                 _Hinode = _Pnode;

  00089	8b df		 mov	 ebx, edi

; 1732 :                 _Pnode  = _Pnode->_Left; // descend left subtree

  0008b	8b 3f		 mov	 edi, DWORD PTR [edi]

; 1733 :             } else {

  0008d	eb 03		 jmp	 SHORT $LN13@erase
$LN12@erase:

; 1734 :                 _Pnode = _Pnode->_Right; // descend right subtree

  0008f	8b 7f 08	 mov	 edi, DWORD PTR [edi+8]
$LN13@erase:

; 1728 :         while (!_Pnode->_Isnil) {

  00092	80 7f 0d 00	 cmp	 BYTE PTR [edi+13], 0
  00096	8b 4d 08	 mov	 ecx, DWORD PTR __Keyval$[ebp]
  00099	74 dd		 je	 SHORT $LL7@erase
$LN8@erase:
; File C:\Program Files\Microsoft Visual Studio\2022\Professional\VC\Tools\MSVC\14.44.35207\include\xutility

; 1667 :         _Iter_diff_t<_InIt> _Off = 0;

  0009b	33 ff		 xor	 edi, edi
  0009d	8b c6		 mov	 eax, esi
  0009f	89 7d f4	 mov	 DWORD PTR __Off$1$[ebp], edi
; File C:\Program Files\Microsoft Visual Studio\2022\Professional\VC\Tools\MSVC\14.44.35207\include\xtree

; 101  :         return !(*this == _Right);

  000a2	3b f3		 cmp	 esi, ebx
; File C:\Program Files\Microsoft Visual Studio\2022\Professional\VC\Tools\MSVC\14.44.35207\include\xutility

; 1668 :         for (; _UFirst != _ULast; ++_UFirst) {

  000a4	74 4d		 je	 SHORT $LN41@erase
$LL42@erase:
; File C:\Program Files\Microsoft Visual Studio\2022\Professional\VC\Tools\MSVC\14.44.35207\include\xtree

; 50   :         if (_Ptr->_Right->_Isnil) { // climb looking for right subtree

  000a6	8b 48 08	 mov	 ecx, DWORD PTR [eax+8]
; File C:\Program Files\Microsoft Visual Studio\2022\Professional\VC\Tools\MSVC\14.44.35207\include\xutility

; 1669 :             ++_Off;

  000a9	47		 inc	 edi
; File C:\Program Files\Microsoft Visual Studio\2022\Professional\VC\Tools\MSVC\14.44.35207\include\xtree

; 50   :         if (_Ptr->_Right->_Isnil) { // climb looking for right subtree

  000aa	80 79 0d 00	 cmp	 BYTE PTR [ecx+13], 0
  000ae	74 24		 je	 SHORT $LN47@erase

; 51   :             _Nodeptr _Pnode;
; 52   :             while (!(_Pnode = _Ptr->_Parent)->_Isnil && _Ptr == _Pnode->_Right) {

  000b0	8b 48 04	 mov	 ecx, DWORD PTR [eax+4]
  000b3	80 79 0d 00	 cmp	 BYTE PTR [ecx+13], 0
  000b7	75 17		 jne	 SHORT $LN156@erase
  000b9	0f 1f 80 00 00
	00 00		 npad	 7
$LL45@erase:
  000c0	3b 41 08	 cmp	 eax, DWORD PTR [ecx+8]
  000c3	75 0b		 jne	 SHORT $LN156@erase

; 53   :                 _Ptr = _Pnode; // ==> parent while right subtree

  000c5	8b c1		 mov	 eax, ecx
  000c7	8b 49 04	 mov	 ecx, DWORD PTR [ecx+4]
  000ca	80 79 0d 00	 cmp	 BYTE PTR [ecx+13], 0
  000ce	74 f0		 je	 SHORT $LL45@erase
$LN156@erase:

; 54   :             }
; 55   : 
; 56   :             _Ptr = _Pnode; // ==> parent (head if end())

  000d0	8b c1		 mov	 eax, ecx

; 57   :         } else {

  000d2	eb 18		 jmp	 SHORT $LN53@erase
$LN47@erase:

; 58   :             _Ptr = _Mytree::_Min(_Ptr->_Right); // ==> smallest of right subtree

  000d4	8b c1		 mov	 eax, ecx

; 476  :         while (!_Pnode->_Left->_Isnil) {

  000d6	8b 10		 mov	 edx, DWORD PTR [eax]
  000d8	80 7a 0d 00	 cmp	 BYTE PTR [edx+13], 0
  000dc	75 0e		 jne	 SHORT $LN53@erase
  000de	66 90		 npad	 2
$LL52@erase:
  000e0	8b 0a		 mov	 ecx, DWORD PTR [edx]

; 477  :             _Pnode = _Pnode->_Left;

  000e2	8b c2		 mov	 eax, edx
  000e4	8b d1		 mov	 edx, ecx
  000e6	80 79 0d 00	 cmp	 BYTE PTR [ecx+13], 0
  000ea	74 f4		 je	 SHORT $LL52@erase
$LN53@erase:

; 101  :         return !(*this == _Right);

  000ec	3b c3		 cmp	 eax, ebx
; File C:\Program Files\Microsoft Visual Studio\2022\Professional\VC\Tools\MSVC\14.44.35207\include\xutility

; 1668 :         for (; _UFirst != _ULast; ++_UFirst) {

  000ee	75 b6		 jne	 SHORT $LL42@erase
  000f0	89 7d f4	 mov	 DWORD PTR __Off$1$[ebp], edi
$LN41@erase:
; File C:\Program Files\Microsoft Visual Studio\2022\Professional\VC\Tools\MSVC\14.44.35207\include\xtree

; 96   :         return _Ptr == _Right._Ptr;

  000f3	8b 45 fc	 mov	 eax, DWORD PTR __Head$1$[ebp]

; 1329 :         _Erase_unchecked(_First, _Last);

  000f6	89 75 08	 mov	 DWORD PTR __First$[ebp], esi

; 96   :         return _Ptr == _Right._Ptr;

  000f9	3b 30		 cmp	 esi, DWORD PTR [eax]

; 1311 :         if (_First == _Begin && _Last._Ptr->_Isnil) {

  000fb	75 31		 jne	 SHORT $LN136@erase
  000fd	80 7b 0d 00	 cmp	 BYTE PTR [ebx+13], 0
  00101	74 2b		 je	 SHORT $LN136@erase

; 1374 :         _Scary->_Erase_tree(_Getal(), _Head->_Parent);

  00103	ff 70 04	 push	 DWORD PTR [eax+4]
  00106	8b 5d f8	 mov	 ebx, DWORD PTR _this$1$[ebp]
  00109	8b cb		 mov	 ecx, ebx
  0010b	53		 push	 ebx
  0010c	e8 00 00 00 00	 call	 ??$_Erase_tree@V?$allocator@U?$_Tree_node@U?$pair@$$CBV?$basic_string@DU?$char_traits@D@std@@V?$allocator@D@2@@std@@PAVCObject3D@@@std@@PAX@std@@@std@@@?$_Tree_val@U?$_Tree_simple_types@U?$pair@$$CBV?$basic_string@DU?$char_traits@D@std@@V?$allocator@D@2@@std@@PAVCObject3D@@@std@@@std@@@std@@QAEXAAV?$allocator@U?$_Tree_node@U?$pair@$$CBV?$basic_string@DU?$char_traits@D@std@@V?$allocator@D@2@@std@@PAVCObject3D@@@std@@PAX@std@@@1@PAU?$_Tree_node@U?$pair@$$CBV?$basic_string@DU?$char_traits@D@std@@V?$allocator@D@2@@std@@PAVCObject3D@@@std@@PAX@1@@Z ; std::_Tree_val<std::_Tree_simple_types<std::pair<std::basic_string<char,std::char_traits<char>,std::allocator<char> > const ,CObject3D *> > >::_Erase_tree<std::allocator<std::_Tree_node<std::pair<std::basic_string<char,std::char_traits<char>,std::allocator<char> > const ,CObject3D *>,void *> > >

; 1375 :         _Head->_Parent  = _Head;

  00111	8b 45 fc	 mov	 eax, DWORD PTR __Head$1$[ebp]
  00114	89 40 04	 mov	 DWORD PTR [eax+4], eax

; 1376 :         _Head->_Left    = _Head;

  00117	89 00		 mov	 DWORD PTR [eax], eax

; 1377 :         _Head->_Right   = _Head;

  00119	89 40 08	 mov	 DWORD PTR [eax+8], eax

; 1378 :         _Scary->_Mysize = 0;

  0011c	c7 43 04 00 00
	00 00		 mov	 DWORD PTR [ebx+4], 0
$LN155@erase:

; 1358 :         return _Erase(_Eqrange(_Keyval));
; 1359 :     }

  00123	8b c7		 mov	 eax, edi
  00125	5f		 pop	 edi
  00126	5e		 pop	 esi
  00127	5b		 pop	 ebx
  00128	8b e5		 mov	 esp, ebp
  0012a	5d		 pop	 ebp
  0012b	c2 04 00	 ret	 4
$LN136@erase:

; 101  :         return !(*this == _Right);

  0012e	3b f3		 cmp	 esi, ebx

; 1318 :         while (_First != _Last) {

  00130	74 f1		 je	 SHORT $LN155@erase
  00132	8b 7d f8	 mov	 edi, DWORD PTR _this$1$[ebp]
$LL63@erase:

; 66   :         ++*this;

  00135	8d 4d 08	 lea	 ecx, DWORD PTR __First$[ebp]
  00138	e8 00 00 00 00	 call	 ??E?$_Tree_unchecked_const_iterator@V?$_Tree_val@U?$_Tree_simple_types@U?$pair@$$CBV?$basic_string@DU?$char_traits@D@std@@V?$allocator@D@2@@std@@PAVCObject3D@@@std@@@std@@@std@@U_Iterator_base0@2@@std@@QAEAAV01@XZ ; std::_Tree_unchecked_const_iterator<std::_Tree_val<std::_Tree_simple_types<std::pair<std::basic_string<char,std::char_traits<char>,std::allocator<char> > const ,CObject3D *> > >,std::_Iterator_base0>::operator++

; 1303 :         _Nodeptr _Erasednode = _Scary->_Extract(_Where); // node to erase

  0013d	56		 push	 esi
  0013e	8b cf		 mov	 ecx, edi
  00140	e8 00 00 00 00	 call	 ?_Extract@?$_Tree_val@U?$_Tree_simple_types@U?$pair@$$CBV?$basic_string@DU?$char_traits@D@std@@V?$allocator@D@2@@std@@PAVCObject3D@@@std@@@std@@@std@@QAEPAU?$_Tree_node@U?$pair@$$CBV?$basic_string@DU?$char_traits@D@std@@V?$allocator@D@2@@std@@PAVCObject3D@@@std@@PAX@2@V?$_Tree_unchecked_const_iterator@V?$_Tree_val@U?$_Tree_simple_types@U?$pair@$$CBV?$basic_string@DU?$char_traits@D@std@@V?$allocator@D@2@@std@@PAVCObject3D@@@std@@@std@@@std@@U_Iterator_base0@2@@2@@Z ; std::_Tree_val<std::_Tree_simple_types<std::pair<std::basic_string<char,std::char_traits<char>,std::allocator<char> > const ,CObject3D *> > >::_Extract
  00145	8b f0		 mov	 esi, eax

; 381  :         allocator_traits<_Alloc>::destroy(_Al, _STD addressof(_Ptr->_Myval));

  00147	8d 4e 10	 lea	 ecx, DWORD PTR [esi+16]
  0014a	e8 00 00 00 00	 call	 ??1?$basic_string@DU?$char_traits@D@std@@V?$allocator@D@2@@std@@QAE@XZ ; std::basic_string<char,std::char_traits<char>,std::allocator<char> >::~basic_string<char,std::char_traits<char>,std::allocator<char> >
; File C:\Program Files\Microsoft Visual Studio\2022\Professional\VC\Tools\MSVC\14.44.35207\include\xmemory

; 289  :         ::operator delete(_Ptr, _Bytes);

  0014f	6a 2c		 push	 44			; 0000002cH
  00151	56		 push	 esi
  00152	e8 00 00 00 00	 call	 ??3@YAXPAXI@Z		; operator delete
; File C:\Program Files\Microsoft Visual Studio\2022\Professional\VC\Tools\MSVC\14.44.35207\include\xtree

; 101  :         return !(*this == _Right);

  00157	8b 75 08	 mov	 esi, DWORD PTR __First$[ebp]
; File C:\Program Files\Microsoft Visual Studio\2022\Professional\VC\Tools\MSVC\14.44.35207\include\xmemory

; 289  :         ::operator delete(_Ptr, _Bytes);

  0015a	83 c4 08	 add	 esp, 8
; File C:\Program Files\Microsoft Visual Studio\2022\Professional\VC\Tools\MSVC\14.44.35207\include\xtree

; 101  :         return !(*this == _Right);

  0015d	3b f3		 cmp	 esi, ebx

; 1318 :         while (_First != _Last) {

  0015f	75 d4		 jne	 SHORT $LL63@erase

; 1358 :         return _Erase(_Eqrange(_Keyval));
; 1359 :     }

  00161	8b 45 f4	 mov	 eax, DWORD PTR __Off$1$[ebp]
  00164	5f		 pop	 edi
  00165	5e		 pop	 esi
  00166	5b		 pop	 ebx
  00167	8b e5		 mov	 esp, ebp
  00169	5d		 pop	 ebp
  0016a	c2 04 00	 ret	 4
?erase@?$_Tree@V?$_Tmap_traits@V?$basic_string@DU?$char_traits@D@std@@V?$allocator@D@2@@std@@PAVCObject3D@@U?$less@V?$basic_string@DU?$char_traits@D@std@@V?$allocator@D@2@@std@@@2@V?$allocator@U?$pair@$$CBV?$basic_string@DU?$char_traits@D@std@@V?$allocator@D@2@@std@@PAVCObject3D@@@std@@@2@$0A@@std@@@std@@QAEIABV?$basic_string@DU?$char_traits@D@std@@V?$allocator@D@2@@2@@Z ENDP ; std::_Tree<std::_Tmap_traits<std::basic_string<char,std::char_traits<char>,std::allocator<char> >,CObject3D *,std::less<std::basic_string<char,std::char_traits<char>,std::allocator<char> > >,std::allocator<std::pair<std::basic_string<char,std::char_traits<char>,std::allocator<char> > const ,CObject3D *> >,0> >::erase
_TEXT	ENDS
; Function compile flags: /Ogtp
; File C:\IAGOS\server\v18\Source\Source\_Common\object3d.cpp
;	COMDAT ?DeleteDeviceObjects@CObject3D@@QAEJXZ
_TEXT	SEGMENT
tv424 = -4						; size = 4
?DeleteDeviceObjects@CObject3D@@QAEJXZ PROC		; CObject3D::DeleteDeviceObjects, COMDAT
; _this$ = ecx

; 709  : {

  00000	55		 push	 ebp
  00001	8b ec		 mov	 ebp, esp
  00003	51		 push	 ecx
  00004	53		 push	 ebx
  00005	56		 push	 esi

; 710  : 	int		i, j;
; 711  : 	GMOBJECT	*pObj;
; 712  : 	
; 713  : 	for( j = 0; j < MAX_GROUP; j ++ )

  00006	b8 03 00 00 00	 mov	 eax, 3
  0000b	8d 59 04	 lea	 ebx, DWORD PTR [ecx+4]
  0000e	57		 push	 edi
  0000f	89 45 fc	 mov	 DWORD PTR tv424[ebp], eax
$LL4@DeleteDevi:

; 716  : 		int			nMaxObject = m_Group[j].m_nMaxObject;

  00012	8b 3b		 mov	 edi, DWORD PTR [ebx]
  00014	8b 73 04	 mov	 esi, DWORD PTR [ebx+4]

; 717  : 		for( i = 0; i < nMaxObject; i ++ )

  00017	85 ff		 test	 edi, edi
  00019	7e 3a		 jle	 SHORT $LN2@DeleteDevi

; 714  : 	{
; 715  : 		GMOBJECT	*pObject = m_Group[j].m_pObject;

  0001b	81 c6 b8 0a 00
	00		 add	 esi, 2744		; 00000ab8H
$LL7@DeleteDevi:

; 718  : 		{
; 719  : 			pObj = &pObject[i];
; 720  : 			SAFE_RELEASE( pObj->m_pd3d_VB );

  00021	8b 4e fc	 mov	 ecx, DWORD PTR [esi-4]
  00024	85 c9		 test	 ecx, ecx
  00026	74 0d		 je	 SHORT $LN8@DeleteDevi
  00028	8b 01		 mov	 eax, DWORD PTR [ecx]
  0002a	51		 push	 ecx
  0002b	ff 50 08	 call	 DWORD PTR [eax+8]
  0002e	c7 46 fc 00 00
	00 00		 mov	 DWORD PTR [esi-4], 0
$LN8@DeleteDevi:

; 721  : 			SAFE_RELEASE( pObj->m_pd3d_IB );

  00035	8b 0e		 mov	 ecx, DWORD PTR [esi]
  00037	85 c9		 test	 ecx, ecx
  00039	74 0c		 je	 SHORT $LN5@DeleteDevi
  0003b	8b 01		 mov	 eax, DWORD PTR [ecx]
  0003d	51		 push	 ecx
  0003e	ff 50 08	 call	 DWORD PTR [eax+8]
  00041	c7 06 00 00 00
	00		 mov	 DWORD PTR [esi], 0
$LN5@DeleteDevi:

; 717  : 		for( i = 0; i < nMaxObject; i ++ )

  00047	81 c6 bc 0a 00
	00		 add	 esi, 2748		; 00000abcH
  0004d	83 ef 01	 sub	 edi, 1
  00050	75 cf		 jne	 SHORT $LL7@DeleteDevi
  00052	8b 45 fc	 mov	 eax, DWORD PTR tv424[ebp]
$LN2@DeleteDevi:

; 710  : 	int		i, j;
; 711  : 	GMOBJECT	*pObj;
; 712  : 	
; 713  : 	for( j = 0; j < MAX_GROUP; j ++ )

  00055	83 c3 0c	 add	 ebx, 12			; 0000000cH
  00058	83 e8 01	 sub	 eax, 1
  0005b	89 45 fc	 mov	 DWORD PTR tv424[ebp], eax
  0005e	75 b2		 jne	 SHORT $LL4@DeleteDevi
  00060	5f		 pop	 edi
  00061	5e		 pop	 esi
  00062	5b		 pop	 ebx

; 722  : 			
; 723  : #ifdef __YENV
; 724  : 			if( g_Option.m_bSpecBump )
; 725  : 			{
; 726  : 				for( int k=0; k < pObj->m_nMaxMtrlBlk; k++ )
; 727  : 				{
; 728  : 					if( pObj->m_pNormalTexture )
; 729  : 						SAFE_RELEASE( pObj->m_pNormalTexture[k] );
; 730  : 					
; 731  : 					if( pObj->m_pNoSpecTexture )
; 732  : 						SAFE_RELEASE( pObj->m_pNoSpecTexture[k] );
; 733  : 				}
; 734  : 			}
; 735  : #endif //__YENV
; 736  : 			
; 737  : 			
; 738  : 			// MtrlBlk의 m_pTexture는 여기서 지우지 않는다.
; 739  : 		}
; 740  : 	}
; 741  : 
; 742  : #ifdef __YENV	
; 743  : 	SAFE_RELEASE( m_pNormalDecl );		// 정점선언
; 744  : #endif //__YENV
; 745  : 
; 746  : 	return  S_OK;

  00063	33 c0		 xor	 eax, eax

; 747  : }	

  00065	8b e5		 mov	 esp, ebp
  00067	5d		 pop	 ebp
  00068	c3		 ret	 0
?DeleteDeviceObjects@CObject3D@@QAEJXZ ENDP		; CObject3D::DeleteDeviceObjects
_TEXT	ENDS
; Function compile flags: /Ogtp
; File C:\IAGOS\server\v18\Source\Source\_Common\object3d.cpp
;	COMDAT ?InvalidateDeviceObjects@CObject3D@@QAEJXZ
_TEXT	SEGMENT
?InvalidateDeviceObjects@CObject3D@@QAEJXZ PROC		; CObject3D::InvalidateDeviceObjects, COMDAT
; _this$ = ecx

; 704  : 	DeleteDeviceObjects();

  00000	e8 00 00 00 00	 call	 ?DeleteDeviceObjects@CObject3D@@QAEJXZ ; CObject3D::DeleteDeviceObjects

; 705  : 	return  S_OK;

  00005	33 c0		 xor	 eax, eax

; 706  : }	

  00007	c3		 ret	 0
?InvalidateDeviceObjects@CObject3D@@QAEJXZ ENDP		; CObject3D::InvalidateDeviceObjects
_TEXT	ENDS
; Function compile flags: /Ogtp
; File C:\IAGOS\server\v18\Source\Source\_Common\object3d.cpp
;	COMDAT ?RestoreDeviceObjects@CObject3D@@QAEJPAPAUIDirect3DVertexBuffer9@@W4_D3DPOOL@@@Z
_TEXT	SEGMENT
_ppd3d_VB$ = 8						; size = 4
_pool$ = 12						; size = 4
?RestoreDeviceObjects@CObject3D@@QAEJPAPAUIDirect3DVertexBuffer9@@W4_D3DPOOL@@@Z PROC ; CObject3D::RestoreDeviceObjects, COMDAT
; _this$ = ecx

; 658  : 	int		i, j;
; 659  : 	GMOBJECT	*pObj;
; 660  : 
; 661  : 	for( j = 0; j < MAX_GROUP; j ++ )
; 662  : 	{
; 663  : 		GMOBJECT	*pObject = m_Group[j].m_pObject;
; 664  : 		int			nMaxObject = m_Group[j].m_nMaxObject;
; 665  : 		for( i = 0; i < nMaxObject; i ++ )
; 666  : 		{
; 667  : 			pObj = &pObject[i];
; 668  : 			if( pObj->m_Type == GMT_SKIN )	
; 669  : 			{
; 670  : 
; 671  : 				#ifdef __YENV
; 672  : 				if( pObj->m_bBump && g_Option.m_bSpecBump )
; 673  : 				{
; 674  : 					ExtractBuffers( GMT_SKIN, &ppd3d_VB[i], pObj );
; 675  : 				}
; 676  : 				#endif //__YENV
; 677  : 
; 678  : 				// 스킨은 버텍스버퍼를 따로 써야 하므로 지정된 외부포인터에다 버텍스 버퍼를 받음.
; 679  : 				CreateDeviceBuffer( pObj, &ppd3d_VB[i], pool );
; 680  : 
; 681  : 			} else
; 682  : 			{
; 683  : 				if( pObj->m_pd3d_VB )	
; 684  : 					continue;
; 685  : 
; 686  : 				#ifdef __YENV
; 687  : 				if( pObj->m_bBump && g_Option.m_bSpecBump )
; 688  : 					ExtractBuffers( GMT_NORMAL, NULL, pObj );
; 689  : 				#endif //__YENV
; 690  : 
; 691  : 				CreateDeviceBuffer( pObj, NULL, pool );
; 692  : 
; 693  : 			}
; 694  : 		}
; 695  : 		ppd3d_VB += m_Group[j].m_nMaxObject;
; 696  : 	}
; 697  : 
; 698  : 
; 699  : 	return S_OK;

  00000	33 c0		 xor	 eax, eax

; 700  : }	

  00002	c2 08 00	 ret	 8
?RestoreDeviceObjects@CObject3D@@QAEJPAPAUIDirect3DVertexBuffer9@@W4_D3DPOOL@@@Z ENDP ; CObject3D::RestoreDeviceObjects
_TEXT	ENDS
; Function compile flags: /Ogtp
; File C:\IAGOS\server\v18\Source\Source\_Common\object3d.cpp
;	COMDAT ?Animate@CObject3D@@QAEXMH@Z
_TEXT	SEGMENT
_fFrameCurrent$ = 8					; size = 4
_nNextFrame$ = 12					; size = 4
?Animate@CObject3D@@QAEXMH@Z PROC			; CObject3D::Animate, COMDAT
; _this$ = ecx

; 2585 : #if !defined(__WORLDSERVER)
; 2586 : 	int		i;
; 2587 : 	TM_ANIMATION	*pFrame = NULL;					// 현재 프레임
; 2588 : 	TM_ANIMATION	*pNext = NULL;					// 다음 프레임
; 2589 : 	D3DXQUATERNION	qSlerp;
; 2590 : 	D3DXVECTOR3		vSlerp;
; 2591 : 	int		nCurrFrame;
; 2592 : 	float	fSlp;
; 2593 : 	D3DXMATRIX	m1, m2;
; 2594 : 	D3DXMATRIX *mUpdate = m_pGroup->_mUpdate;
; 2595 : 	D3DXMATRIX *mParent;
; 2596 : 
; 2597 : 	GMOBJECT	*pObj;
; 2598 : 	int nMaxObj = m_pGroup->m_nMaxObject;
; 2599 : 	for( i = 0; i < nMaxObj; i ++ )
; 2600 : 	{
; 2601 : 		pObj = &m_pGroup->m_pObject[i];
; 2602 : 		if( pObj->m_ParentType == GMT_BONE )
; 2603 : 		{
; 2604 : 			if( m_pmExternBone )	mParent = m_pmExternBone;
; 2605 : 			else					mParent = m_pBaseBone;
; 2606 : 		} else
; 2607 : 			mParent = m_pGroup->_mUpdate;
; 2608 : 		if( m_nMaxFrame > 0 )	// 프레임이 있을때
; 2609 : 		{
; 2610 : 			if( pObj->m_pFrame )
; 2611 : 			{
; 2612 : 				// 보간을 위한 Slerp 계산.
; 2613 : 				nCurrFrame = (int)fFrameCurrent;			// 소숫점 떼내고 정수부만..
; 2614 : 				fSlp = fFrameCurrent - (float)nCurrFrame;	// 소숫점 부분만 가져옴
; 2615 : 
; 2616 : 				pFrame = &pObj->m_pFrame[ nCurrFrame ];		// 현재 프레임 포인터 받음
; 2617 : 				pNext  = &pObj->m_pFrame[ nNextFrame ];		// 다음 프레임 포인터 받음
; 2618 : 
; 2619 : 				D3DXQuaternionSlerp( &qSlerp, &pFrame->m_qRot, &pNext->m_qRot, fSlp );		// 회전 보간
; 2620 : 				D3DXVec3Lerp( &vSlerp, &pFrame->m_vPos, &pNext->m_vPos, fSlp );					// 벡터 보간
; 2621 : 
; 2622 : 				// matAniTM계산
; 2623 : 				// 이동행렬 만듦
; 2624 : 				D3DXMatrixTranslation( &m1,	 vSlerp.x,  vSlerp.y,  vSlerp.z );
; 2625 : 			
; 2626 : 				// 쿼터니온 보간된 회전키값을 회전행렬로 만듦
; 2627 : 				D3DXMatrixRotationQuaternion( &m2, &qSlerp );
; 2628 : 				mUpdate[i] = m2 * m1;		// 이동행렬 X 회전행렬 = 애니행렬
; 2629 : 
; 2630 : 				if( pObj->m_nParentIdx != -1 )
; 2631 : 					mUpdate[i] *= mParent[ pObj->m_nParentIdx ];
; 2632 : //				else
; 2633 : //					mUpdate[i] *= *mCenter;		// 루트는 센터랑 최초 곱함.
; 2634 : 					
; 2635 : 			} else
; 2636 : 			// 이 오브젝트에 프레임이 없을때
; 2637 : 			{
; 2638 : 				if( pObj->m_nParentIdx != -1 )	// 부모가 있는 경우
; 2639 : 					mUpdate[i] = pObj->m_mLocalTM * mParent[ pObj->m_nParentIdx ];
; 2640 : 				else
; 2641 : 					mUpdate[i] = pObj->m_mLocalTM;					// 부모가 없다면 루트다.
; 2642 : //					mUpdate[i] = pObj->m_mLocalTM * *mCenter;		// 부모가 없다면 루트다. 루트는 센터랑 최초 곱함.
; 2643 : 			}
; 2644 : 		} else
; 2645 : 		// 프레임이 없을때.
; 2646 : 		{
; 2647 : 			if( pObj->m_nParentIdx != -1 )
; 2648 : 				mUpdate[i] = pObj->m_mLocalTM * mParent[ pObj->m_nParentIdx ];
; 2649 : 			else
; 2650 : 				mUpdate[i] = pObj->m_mLocalTM;		// 부모가 없다면 루트다. 
; 2651 : //				mUpdate[i] = pObj->m_mLocalTM * *mCenter;		// 부모가 없다면 루트다. 루트는 센터랑 최초 곱함.
; 2652 : 		}
; 2653 : 
; 2654 : 		// mUpdate[i]  최종 WorldTM
; 2655 : 	}
; 2656 : #endif // __WORLDSERVER
; 2657 : }

  00000	c2 08 00	 ret	 8
?Animate@CObject3D@@QAEXMH@Z ENDP			; CObject3D::Animate
_TEXT	ENDS
; Function compile flags: /Ogtp
; File C:\IAGOS\server\v18\Source\Source\_Common\object3d.cpp
;	COMDAT ?SetVertexBuffer@CObject3D@@QAEJPAUGMOBJECT@@@Z
_TEXT	SEGMENT
_pObj$ = 8						; size = 4
?SetVertexBuffer@CObject3D@@QAEJPAUGMOBJECT@@@Z PROC	; CObject3D::SetVertexBuffer, COMDAT
; _this$ = ecx

; 2694 : /*
; 2695 : 	CUSTOMVERTEX	*_pVB = pObj->_pVB;			// 스키닝을 위한 임시버퍼
; 2696 : 	WORD			*pIB;
; 2697 : 	D3DXVECTOR3		*pVList;
; 2698 : 	int				nMax = pObj->m_nMaxVB;		// 
; 2699 : 
; 2700 : 	// WorldPos값만 갱신되면 되므로 
; 2701 : 	// Skining()에서 계산된 WorldPos값만 카피시켜 준다.
; 2702 : 	pIB    = pObj->m_pIIB;
; 2703 : 	pVList = pObj->_pVertexUpdate;
; 2704 : 	while( nMax-- )
; 2705 : 	{
; 2706 : 		_pVB->position = pVList[ *pIB ];
; 2707 : 		_pVB ++;
; 2708 : 		pIB ++;
; 2709 : 	}
; 2710 : */
; 2711 : 	return S_OK;

  00000	33 c0		 xor	 eax, eax

; 2712 : }

  00002	c2 04 00	 ret	 4
?SetVertexBuffer@CObject3D@@QAEJPAUGMOBJECT@@@Z ENDP	; CObject3D::SetVertexBuffer
_TEXT	ENDS
; Function compile flags: /Ogtp
; File C:\IAGOS\server\v18\Source\Source\_Common\object3d.cpp
;	COMDAT ?Skining@CObject3D@@QAEXPAUGMOBJECT@@PBUD3DXMATRIX@@@Z
_TEXT	SEGMENT
_pObj$ = 8						; size = 4
_mBones$ = 12						; size = 4
?Skining@CObject3D@@QAEXPAUGMOBJECT@@PBUD3DXMATRIX@@@Z PROC ; CObject3D::Skining, COMDAT
; _this$ = ecx

; 2666 : /*
; 2667 : 	D3DXVECTOR3	*vLocal, *vWorld;
; 2668 : 	int			*pPhysique;
; 2669 : 	int			nMax;
; 2670 : 
; 2671 : 	// 버텍스 갯수만큼 돈다.
; 2672 : 	// 스킨의 각 버텍스들은 자기가 소속된 BONE의 최종결과 매트릭스와 자기로컬 좌표를 곱해서
; 2673 : 	// 최종 좌표를 생성해낸다.
; 2674 : 	vLocal	  = pObj->m_pVertexList;
; 2675 : 	pPhysique = pObj->m_pPhysiqueVertex;
; 2676 : 	nMax	  = pObj->m_nMaxVertexList;
; 2677 : 	vWorld	  = pObj->_pVertexUpdate;
; 2678 : 	while( nMax-- )
; 2679 : 	{
; 2680 : 		D3DXVec3TransformCoord( vWorld, vLocal, &mBones[ *pPhysique ] );		// 일단은 영향받는 bone을 한개만 쓴다.
; 2681 : 		// 여기서 노말도 같이 돌려야 한다.
; 2682 : 		vLocal ++;
; 2683 : 		vWorld ++;
; 2684 : 		pPhysique ++;
; 2685 : 	}
; 2686 : */
; 2687 : }

  00000	c2 08 00	 ret	 8
?Skining@CObject3D@@QAEXPAUGMOBJECT@@PBUD3DXMATRIX@@@Z ENDP ; CObject3D::Skining
_TEXT	ENDS
; Function compile flags: /Ogtp
; File C:\IAGOS\server\v18\Source\Source\_Common\object3d.cpp
;	COMDAT ?ComputeInterval@CObject3D@@QAEXMMMMMMMMAAM0000@Z
_TEXT	SEGMENT
_fVV0$ = 8						; size = 4
_fVV1$ = 12						; size = 4
_fVV2$ = 16						; size = 4
_fD0$ = 20						; size = 4
_fD1$ = 24						; size = 4
_fD2$ = 28						; size = 4
_fD0D1$ = 32						; size = 4
_fD0D2$ = 36						; size = 4
_fA$ = 40						; size = 4
_fB$ = 44						; size = 4
_fC$ = 48						; size = 4
_fX0$ = 52						; size = 4
_fX1$ = 56						; size = 4
?ComputeInterval@CObject3D@@QAEXMMMMMMMMAAM0000@Z PROC	; CObject3D::ComputeInterval, COMDAT
; _this$ = ecx

; 2129 : {

  00000	55		 push	 ebp
  00001	8b ec		 mov	 ebp, esp

; 2130 : 	if(fD0D1 > 0.0f) 

  00003	f3 0f 10 45 20	 movss	 xmm0, DWORD PTR _fD0D1$[ebp]
  00008	0f 57 c9	 xorps	 xmm1, xmm1
  0000b	0f 2f c1	 comiss	 xmm0, xmm1
  0000e	f3 0f 10 55 1c	 movss	 xmm2, DWORD PTR _fD2$[ebp]
  00013	f3 0f 10 5d 18	 movss	 xmm3, DWORD PTR _fD1$[ebp]
  00018	f3 0f 10 65 14	 movss	 xmm4, DWORD PTR _fD0$[ebp]
  0001d	77 39		 ja	 SHORT $LN16@ComputeInt

; 2131 : 	{ 
; 2132 : 		fA = fVV2; fB = (fVV0 - fVV2) * fD2; fC = (fVV1 - fVV2) * fD2; fX0 = fD2 - fD0; fX1 = fD2 - fD1; 
; 2133 : 	}
; 2134 : 	else if(fD0D2 > 0.0f)

  0001f	f3 0f 10 45 24	 movss	 xmm0, DWORD PTR _fD0D2$[ebp]
  00024	0f 2f c1	 comiss	 xmm0, xmm1
  00027	0f 87 cd 00 00
	00		 ja	 $LN14@ComputeInt

; 2135 : 	{
; 2136 : 		fA = fVV1; fB = (fVV0 - fVV1) * fD1; fC = (fVV2 - fVV1) * fD1; fX0 = fD1 - fD0; fX1 = fD1 - fD2;
; 2137 : 	}
; 2138 : 	else if(fD1 * fD2 > 0.0f || fD0 != 0.0f)

  0002d	0f 28 c3	 movaps	 xmm0, xmm3
  00030	f3 0f 59 c2	 mulss	 xmm0, xmm2
  00034	0f 2f c1	 comiss	 xmm0, xmm1
  00037	77 70		 ja	 SHORT $LN8@ComputeInt
  00039	0f 2e e1	 ucomiss xmm4, xmm1
  0003c	9f		 lahf
  0003d	f6 c4 44	 test	 ah, 68			; 00000044H
  00040	7a 67		 jp	 SHORT $LN8@ComputeInt

; 2141 : 	}
; 2142 : 	else if(fD1 != 0.0f) 

  00042	0f 2e d9	 ucomiss xmm3, xmm1
  00045	9f		 lahf
  00046	f6 c4 44	 test	 ah, 68			; 00000044H
  00049	0f 8a ab 00 00
	00		 jp	 $LN14@ComputeInt

; 2145 : 	}
; 2146 : 	else if(fD2 != 0.0f)

  0004f	0f 2e d1	 ucomiss xmm2, xmm1
  00052	9f		 lahf
  00053	f6 c4 44	 test	 ah, 68			; 00000044H
  00056	7b 4d		 jnp	 SHORT $LN12@ComputeInt
$LN16@ComputeInt:

; 2147 : 	{
; 2148 : 		fA = fVV2; fB = (fVV0 - fVV2) * fD2; fC = (fVV1 - fVV2) * fD2; fX0 = fD2 - fD0; fX1 = fD2 - fD1;

  00058	f3 0f 10 4d 10	 movss	 xmm1, DWORD PTR _fVV2$[ebp]
  0005d	f3 0f 10 45 08	 movss	 xmm0, DWORD PTR _fVV0$[ebp]
  00062	8b 45 28	 mov	 eax, DWORD PTR _fA$[ebp]
  00065	f3 0f 5c c1	 subss	 xmm0, xmm1
  00069	f3 0f 11 08	 movss	 DWORD PTR [eax], xmm1
  0006d	8b 45 2c	 mov	 eax, DWORD PTR _fB$[ebp]
  00070	f3 0f 59 c2	 mulss	 xmm0, xmm2
  00074	f3 0f 11 00	 movss	 DWORD PTR [eax], xmm0
  00078	f3 0f 10 45 0c	 movss	 xmm0, DWORD PTR _fVV1$[ebp]
  0007d	8b 45 30	 mov	 eax, DWORD PTR _fC$[ebp]
  00080	f3 0f 5c c1	 subss	 xmm0, xmm1
  00084	f3 0f 59 c2	 mulss	 xmm0, xmm2
  00088	f3 0f 11 00	 movss	 DWORD PTR [eax], xmm0
  0008c	0f 28 c2	 movaps	 xmm0, xmm2
  0008f	8b 45 34	 mov	 eax, DWORD PTR _fX0$[ebp]
  00092	f3 0f 5c c4	 subss	 xmm0, xmm4
  00096	f3 0f 5c d3	 subss	 xmm2, xmm3
  0009a	f3 0f 11 00	 movss	 DWORD PTR [eax], xmm0
  0009e	8b 45 38	 mov	 eax, DWORD PTR _fX1$[ebp]
  000a1	f3 0f 11 10	 movss	 DWORD PTR [eax], xmm2
$LN12@ComputeInt:

; 2149 : 	}
; 2150 : 	else
; 2151 : 	{
; 2152 : 		return;
; 2153 : 	}
; 2154 : 
; 2155 : }

  000a5	5d		 pop	 ebp
  000a6	c2 34 00	 ret	 52			; 00000034H
$LN8@ComputeInt:

; 2139 : 	{
; 2140 : 		fA = fVV0; fB = (fVV1 - fVV0) * fD0; fC = (fVV2 - fVV0) * fD0; fX0 = fD0 - fD1; fX1 = fD0 - fD2;

  000a9	f3 0f 10 4d 08	 movss	 xmm1, DWORD PTR _fVV0$[ebp]
  000ae	f3 0f 10 45 0c	 movss	 xmm0, DWORD PTR _fVV1$[ebp]
  000b3	8b 45 28	 mov	 eax, DWORD PTR _fA$[ebp]
  000b6	f3 0f 5c c1	 subss	 xmm0, xmm1
  000ba	f3 0f 11 08	 movss	 DWORD PTR [eax], xmm1
  000be	8b 45 2c	 mov	 eax, DWORD PTR _fB$[ebp]
  000c1	f3 0f 59 c4	 mulss	 xmm0, xmm4
  000c5	f3 0f 11 00	 movss	 DWORD PTR [eax], xmm0
  000c9	f3 0f 10 45 10	 movss	 xmm0, DWORD PTR _fVV2$[ebp]
  000ce	8b 45 30	 mov	 eax, DWORD PTR _fC$[ebp]
  000d1	f3 0f 5c c1	 subss	 xmm0, xmm1
  000d5	f3 0f 59 c4	 mulss	 xmm0, xmm4
  000d9	f3 0f 11 00	 movss	 DWORD PTR [eax], xmm0
  000dd	0f 28 c4	 movaps	 xmm0, xmm4
  000e0	8b 45 34	 mov	 eax, DWORD PTR _fX0$[ebp]
  000e3	f3 0f 5c c3	 subss	 xmm0, xmm3
  000e7	f3 0f 5c e2	 subss	 xmm4, xmm2
  000eb	f3 0f 11 00	 movss	 DWORD PTR [eax], xmm0
  000ef	8b 45 38	 mov	 eax, DWORD PTR _fX1$[ebp]
  000f2	f3 0f 11 20	 movss	 DWORD PTR [eax], xmm4

; 2149 : 	}
; 2150 : 	else
; 2151 : 	{
; 2152 : 		return;
; 2153 : 	}
; 2154 : 
; 2155 : }

  000f6	5d		 pop	 ebp
  000f7	c2 34 00	 ret	 52			; 00000034H
$LN14@ComputeInt:

; 2143 : 	{
; 2144 : 		fA = fVV1; fB = (fVV0 - fVV1) * fD1; fC = ( fVV2 - fVV1) * fD1; fX0 = fD1 - fD0; fX1 = fD1 - fD2;

  000fa	f3 0f 10 4d 0c	 movss	 xmm1, DWORD PTR _fVV1$[ebp]
  000ff	f3 0f 10 45 08	 movss	 xmm0, DWORD PTR _fVV0$[ebp]
  00104	8b 45 28	 mov	 eax, DWORD PTR _fA$[ebp]
  00107	f3 0f 5c c1	 subss	 xmm0, xmm1
  0010b	f3 0f 11 08	 movss	 DWORD PTR [eax], xmm1
  0010f	8b 45 2c	 mov	 eax, DWORD PTR _fB$[ebp]
  00112	f3 0f 59 c3	 mulss	 xmm0, xmm3
  00116	f3 0f 11 00	 movss	 DWORD PTR [eax], xmm0
  0011a	f3 0f 10 45 10	 movss	 xmm0, DWORD PTR _fVV2$[ebp]
  0011f	8b 45 30	 mov	 eax, DWORD PTR _fC$[ebp]
  00122	f3 0f 5c c1	 subss	 xmm0, xmm1
  00126	f3 0f 59 c3	 mulss	 xmm0, xmm3
  0012a	f3 0f 11 00	 movss	 DWORD PTR [eax], xmm0
  0012e	0f 28 c3	 movaps	 xmm0, xmm3
  00131	8b 45 34	 mov	 eax, DWORD PTR _fX0$[ebp]
  00134	f3 0f 5c c4	 subss	 xmm0, xmm4
  00138	f3 0f 5c da	 subss	 xmm3, xmm2
  0013c	f3 0f 11 00	 movss	 DWORD PTR [eax], xmm0
  00140	8b 45 38	 mov	 eax, DWORD PTR _fX1$[ebp]
  00143	f3 0f 11 18	 movss	 DWORD PTR [eax], xmm3

; 2149 : 	}
; 2150 : 	else
; 2151 : 	{
; 2152 : 		return;
; 2153 : 	}
; 2154 : 
; 2155 : }

  00147	5d		 pop	 ebp
  00148	c2 34 00	 ret	 52			; 00000034H
?ComputeInterval@CObject3D@@QAEXMMMMMMMMAAM0000@Z ENDP	; CObject3D::ComputeInterval
_TEXT	ENDS
; Function compile flags: /Ogtp
; File C:\IAGOS\server\v18\Source\Source\_Common\object3d.cpp
; File C:\IAGOS\server\v18\Source\Source\DX_SDK\d3dx9math.inl
; File C:\IAGOS\server\v18\Source\Source\_Common\object3d.cpp
; File C:\IAGOS\server\v18\Source\Source\DX_SDK\d3dx9math.inl
; File C:\IAGOS\server\v18\Source\Source\_Common\object3d.cpp
; File C:\IAGOS\server\v18\Source\Source\DX_SDK\d3dx9math.inl
; File C:\IAGOS\server\v18\Source\Source\_Common\object3d.cpp
; File C:\IAGOS\server\v18\Source\Source\DX_SDK\d3dx9math.inl
; File C:\IAGOS\server\v18\Source\Source\_Common\object3d.cpp
; File C:\IAGOS\server\v18\Source\Source\DX_SDK\d3dx9math.inl
; File C:\IAGOS\server\v18\Source\Source\_Common\object3d.cpp
; File C:\IAGOS\server\v18\Source\Source\DX_SDK\d3dx9math.inl
; File C:\IAGOS\server\v18\Source\Source\_Common\object3d.cpp
; File C:\IAGOS\server\v18\Source\Source\DX_SDK\d3dx9math.inl
; File C:\IAGOS\server\v18\Source\Source\_Common\object3d.cpp
; File C:\IAGOS\server\v18\Source\Source\DX_SDK\d3dx9math.inl
; File C:\IAGOS\server\v18\Source\Source\_Common\object3d.cpp
; File C:\IAGOS\server\v18\Source\Source\DX_SDK\d3dx9math.inl
; File C:\IAGOS\server\v18\Source\Source\_Common\object3d.cpp
; File C:\IAGOS\server\v18\Source\Source\DX_SDK\d3dx9math.inl
; File C:\IAGOS\server\v18\Source\Source\_Common\object3d.cpp
; File C:\IAGOS\server\v18\Source\Source\DX_SDK\d3dx9math.inl
; File C:\IAGOS\server\v18\Source\Source\_Common\object3d.cpp
; File C:\IAGOS\server\v18\Source\Source\DX_SDK\d3dx9math.inl
; File C:\IAGOS\server\v18\Source\Source\_Common\object3d.cpp
; File C:\IAGOS\server\v18\Source\Source\DX_SDK\d3dx9math.inl
; File C:\IAGOS\server\v18\Source\Source\_Common\object3d.cpp
; File C:\IAGOS\server\v18\Source\Source\DX_SDK\d3dx9math.inl
; File C:\IAGOS\server\v18\Source\Source\_Common\object3d.cpp
; File C:\IAGOS\server\v18\Source\Source\DX_SDK\d3dx9math.inl
; File C:\IAGOS\server\v18\Source\Source\_Common\object3d.cpp
; File C:\IAGOS\server\v18\Source\Source\DX_SDK\d3dx9math.inl
; File C:\IAGOS\server\v18\Source\Source\_Common\object3d.cpp
; File C:\IAGOS\server\v18\Source\Source\DX_SDK\d3dx9math.inl
; File C:\IAGOS\server\v18\Source\Source\_Common\object3d.cpp
; File C:\IAGOS\server\v18\Source\Source\DX_SDK\d3dx9math.inl
; File C:\IAGOS\server\v18\Source\Source\_Common\object3d.cpp
; File C:\IAGOS\server\v18\Source\Source\DX_SDK\d3dx9math.inl
; File C:\IAGOS\server\v18\Source\Source\_Common\object3d.cpp
; File C:\IAGOS\server\v18\Source\Source\DX_SDK\d3dx9math.inl
; File C:\IAGOS\server\v18\Source\Source\_Common\object3d.cpp
; File C:\IAGOS\server\v18\Source\Source\DX_SDK\d3dx9math.inl
; File C:\IAGOS\server\v18\Source\Source\_Common\object3d.cpp
; File C:\IAGOS\server\v18\Source\Source\DX_SDK\d3dx9math.inl
; File C:\IAGOS\server\v18\Source\Source\_Common\object3d.cpp
; File C:\IAGOS\server\v18\Source\Source\DX_SDK\d3dx9math.inl
; File C:\IAGOS\server\v18\Source\Source\_Common\object3d.cpp
; File C:\IAGOS\server\v18\Source\Source\DX_SDK\d3dx9math.inl
; File C:\IAGOS\server\v18\Source\Source\_Common\object3d.cpp
; File C:\IAGOS\server\v18\Source\Source\DX_SDK\d3dx9math.inl
; File C:\IAGOS\server\v18\Source\Source\_Common\object3d.cpp
;	COMDAT ?SimpleTriIntersect@CObject3D@@QAEHUD3DXMATRIX@@PAUGMOBJECT@@0@Z
_TEXT	SEGMENT
_nMax2$1$ = -372					; size = 4
_fdu1$1$ = -368						; size = 4
tv1649 = -364						; size = 4
_fCood1$1$ = -360					; size = 4
_fCood3$1$ = -356					; size = 4
_fdu02$1$ = -352					; size = 4
_ftdu01$1$ = -348					; size = 4
_fdu01$1$ = -344					; size = 4
_nMaxObj$2$ = -340					; size = 4
_pVB$1$ = -336						; size = 4
_pIB$1$ = -332						; size = 4
_nMax$1$ = -328						; size = 4
_fdu2$1$ = -324						; size = 4
_f$2 = -320						; size = 4
_e$3 = -316						; size = 4
_d$4 = -312						; size = 4
_c$5 = -308						; size = 4
_b$6 = -304						; size = 4
_a$7 = -300						; size = 4
_y1$8 = -296						; size = 4
_x1$9 = -292						; size = 4
_x0$10 = -288						; size = 4
_ftdu02$1$ = -284					; size = 4
_ftdu2$1$ = -280					; size = 4
_pTargetObj$GSCopy$1$ = -276				; size = 4
tv1734 = -272						; size = 4
_i$1$ = -268						; size = 4
tv1753 = -264						; size = 4
_j$1$ = -260						; size = 4
_y0$11 = -256						; size = 4
_fD$1$ = -252						; size = 4
_ftCood3$1$ = -248					; size = 4
_this$GSCopy$1$ = -244					; size = 4
_pVB2$1$ = -240						; size = 4
_ftCood2$1$ = -236					; size = 4
_vNormal$1$sroa$1039$1$ = -232				; size = 4
_ftCood1$1$ = -228					; size = 4
_vNormal$1$sroa$1040$1$ = -224				; size = 4
_vNormal$1$sroa$1038$1$ = -220				; size = 4
_ftdu1$1$ = -216					; size = 4
tv1713 = -216						; size = 4
tv1706 = -216						; size = 4
tv1647 = -212						; size = 4
_fCood2$1$ = -212					; size = 4
_tv2$2$ = -208						; size = 4
_ftdu0$1$ = -208					; size = 4
$T12 = -204						; size = 64
_mTM$ = -140						; size = 64
_tv2$ = -76						; size = 12
_tv3$ = -64						; size = 12
_v3$ = -52						; size = 12
_v2$ = -40						; size = 12
_tv1$ = -28						; size = 12
_v1$ = -16						; size = 12
__$ArrayPad$ = -4					; size = 4
_mWorld$ = 8						; size = 64
_pTargetObj$ = 72					; size = 4
_mTargetWorld$ = 76					; size = 64
?SimpleTriIntersect@CObject3D@@QAEHUD3DXMATRIX@@PAUGMOBJECT@@0@Z PROC ; CObject3D::SimpleTriIntersect, COMDAT
; _this$ = ecx

; 2158 : {

  00000	55		 push	 ebp
  00001	8b ec		 mov	 ebp, esp
  00003	81 ec 74 01 00
	00		 sub	 esp, 372		; 00000174H
  00009	a1 00 00 00 00	 mov	 eax, DWORD PTR ___security_cookie
  0000e	33 c5		 xor	 eax, ebp
  00010	89 45 fc	 mov	 DWORD PTR __$ArrayPad$[ebp], eax
  00013	8b 45 48	 mov	 eax, DWORD PTR _pTargetObj$[ebp]

; 2159 : 
; 2160 : 	D3DXVECTOR3	v1, v2, v3, tv1, tv2, tv3;
; 2161 : 	D3DXMATRIX	mTM;
; 2162 : 	int			nMax, nMax2;
; 2163 : 	int			nMaxObj = m_Group[0].m_nMaxObject;
; 2164 : 	GMOBJECT*	pObj = &m_Group[0].m_pObject[0];
; 2165 : 	WORD		*pIB, *pIB2;
; 2166 : 	int			i, j, k;
; 2167 : 	NORMALVERTEX *pVB, *pVB2;
; 2168 : 	
; 2169 : 	if( m_CollObject.m_Type != GMT_ERROR )	// 충돌메시가 없으면 걍 함.

  00016	8b 91 00 01 00
	00		 mov	 edx, DWORD PTR [ecx+256]
  0001c	83 fa ff	 cmp	 edx, -1
  0001f	56		 push	 esi
  00020	8b 71 04	 mov	 esi, DWORD PTR [ecx+4]
  00023	89 85 ec fe ff
	ff		 mov	 DWORD PTR _pTargetObj$GSCopy$1$[ebp], eax
  00029	8d 81 00 01 00
	00		 lea	 eax, DWORD PTR [ecx+256]
  0002f	57		 push	 edi
  00030	bf 01 00 00 00	 mov	 edi, 1
  00035	89 8d 0c ff ff
	ff		 mov	 DWORD PTR _this$GSCopy$1$[ebp], ecx
  0003b	0f 45 f7	 cmovne	 esi, edi

; 2170 : 	{
; 2171 : 		pObj = &m_CollObject;
; 2172 : 		nMaxObj = 1;	// 충돌메시는 무조건 1개다.
; 2173 : 	}
; 2174 : 
; 2175 : 	// 스킨 오브젝트는 없을테니까 제끼고 하자...시간상
; 2176 : 	for( i = 0; i < nMaxObj; i++ )

  0003e	c7 85 f4 fe ff
	ff 00 00 00 00	 mov	 DWORD PTR _i$1$[ebp], 0
  00048	89 b5 ac fe ff
	ff		 mov	 DWORD PTR _nMaxObj$2$[ebp], esi
  0004e	85 f6		 test	 esi, esi
  00050	0f 8e f2 07 00
	00		 jle	 $LN60@SimpleTriI
  00056	83 fa ff	 cmp	 edx, -1
  00059	0f 44 41 08	 cmove	 eax, DWORD PTR [ecx+8]
  0005d	33 d2		 xor	 edx, edx
  0005f	89 95 f0 fe ff
	ff		 mov	 DWORD PTR tv1734[ebp], edx
  00065	8d b0 a0 0a 00
	00		 lea	 esi, DWORD PTR [eax+2720]
  0006b	89 b5 f8 fe ff
	ff		 mov	 DWORD PTR tv1753[ebp], esi
$LL4@SimpleTriI:
; File C:\IAGOS\server\v18\Source\Source\DX_SDK\d3dx9math.inl

; 860  :     D3DXMatrixMultiply(&matT, this, &mat);

  00071	8d 45 08	 lea	 eax, DWORD PTR _mWorld$[ebp]
  00074	50		 push	 eax
; File C:\IAGOS\server\v18\Source\Source\_Common\object3d.cpp

; 2179 : 		mTM = m_Group[0]._mUpdate[i] * mWorld;

  00075	8b 41 0c	 mov	 eax, DWORD PTR [ecx+12]
  00078	03 c2		 add	 eax, edx
; File C:\IAGOS\server\v18\Source\Source\DX_SDK\d3dx9math.inl

; 860  :     D3DXMatrixMultiply(&matT, this, &mat);

  0007a	50		 push	 eax
  0007b	8d 85 34 ff ff
	ff		 lea	 eax, DWORD PTR $T12[ebp]
  00081	50		 push	 eax
  00082	e8 00 00 00 00	 call	 _D3DXMatrixMultiply@12
; File C:\IAGOS\server\v18\Source\Source\_Common\object3d.cpp

; 2179 : 		mTM = m_Group[0]._mUpdate[i] * mWorld;

  00087	0f 10 85 34 ff
	ff ff		 movups	 xmm0, XMMWORD PTR $T12[ebp]

; 2180 : 		
; 2181 : 		nMax = pObj->m_nMaxFaceList;
; 2182 : 		pVB	= (NORMALVERTEX*)(pObj->m_pVB);
; 2183 : 		pIB	= pObj->m_pIB;
; 2184 : 		for( j = 0; j < nMax; j++ )

  0008e	c7 85 fc fe ff
	ff 00 00 00 00	 mov	 DWORD PTR _j$1$[ebp], 0
  00098	0f 11 85 74 ff
	ff ff		 movups	 XMMWORD PTR _mTM$[ebp], xmm0
  0009f	0f 10 85 44 ff
	ff ff		 movups	 xmm0, XMMWORD PTR $T12[ebp+16]
  000a6	0f 11 45 84	 movups	 XMMWORD PTR _mTM$[ebp+16], xmm0
  000aa	0f 10 85 54 ff
	ff ff		 movups	 xmm0, XMMWORD PTR $T12[ebp+32]
  000b1	0f 11 45 94	 movups	 XMMWORD PTR _mTM$[ebp+32], xmm0
  000b5	0f 10 85 64 ff
	ff ff		 movups	 xmm0, XMMWORD PTR $T12[ebp+48]
  000bc	0f 11 45 a4	 movups	 XMMWORD PTR _mTM$[ebp+48], xmm0
  000c0	8b 86 f8 f5 ff
	ff		 mov	 eax, DWORD PTR [esi-2568]
  000c6	8b 3e		 mov	 edi, DWORD PTR [esi]
  000c8	8b 76 04	 mov	 esi, DWORD PTR [esi+4]
  000cb	89 85 b8 fe ff
	ff		 mov	 DWORD PTR _nMax$1$[ebp], eax
  000d1	89 bd b0 fe ff
	ff		 mov	 DWORD PTR _pVB$1$[ebp], edi
  000d7	85 c0		 test	 eax, eax
  000d9	0f 8e 11 07 00
	00		 jle	 $LN68@SimpleTriI
  000df	90		 npad	 1
$LL7@SimpleTriI:

; 2185 : 		{
; 2186 : 			// 로컬좌표계에서 월드좌표로 변환..
; 2187 : 			D3DXVec3TransformCoord( &v1, &pVB[ *pIB++ ].position, &mTM );

  000e0	8d 85 74 ff ff
	ff		 lea	 eax, DWORD PTR _mTM$[ebp]
  000e6	50		 push	 eax
  000e7	0f b7 06	 movzx	 eax, WORD PTR [esi]
  000ea	c1 e0 05	 shl	 eax, 5
  000ed	03 c7		 add	 eax, edi
  000ef	50		 push	 eax
  000f0	8d 45 f0	 lea	 eax, DWORD PTR _v1$[ebp]
  000f3	50		 push	 eax
  000f4	e8 00 00 00 00	 call	 _D3DXVec3TransformCoord@12

; 2188 : 			D3DXVec3TransformCoord( &v2, &pVB[ *pIB++ ].position, &mTM );

  000f9	8d 85 74 ff ff
	ff		 lea	 eax, DWORD PTR _mTM$[ebp]
  000ff	50		 push	 eax
  00100	0f b7 46 02	 movzx	 eax, WORD PTR [esi+2]
  00104	c1 e0 05	 shl	 eax, 5
  00107	03 c7		 add	 eax, edi
  00109	50		 push	 eax
  0010a	8d 45 d8	 lea	 eax, DWORD PTR _v2$[ebp]
  0010d	50		 push	 eax
  0010e	e8 00 00 00 00	 call	 _D3DXVec3TransformCoord@12

; 2189 : 			D3DXVec3TransformCoord( &v3, &pVB[ *pIB++ ].position, &mTM );

  00113	8d 85 74 ff ff
	ff		 lea	 eax, DWORD PTR _mTM$[ebp]
  00119	50		 push	 eax
  0011a	0f b7 46 04	 movzx	 eax, WORD PTR [esi+4]
  0011e	c1 e0 05	 shl	 eax, 5
  00121	03 c7		 add	 eax, edi
  00123	50		 push	 eax
  00124	8d 45 cc	 lea	 eax, DWORD PTR _v3$[ebp]
  00127	50		 push	 eax
  00128	e8 00 00 00 00	 call	 _D3DXVec3TransformCoord@12
; File C:\IAGOS\server\v18\Source\Source\DX_SDK\d3dx9math.inl

; 1754 :     pOut->z = pV1->z - pV2->z;

  0012d	f3 0f 10 4d d4	 movss	 xmm1, DWORD PTR _v3$[ebp+8]
; File C:\IAGOS\server\v18\Source\Source\_Common\object3d.cpp

; 2189 : 			D3DXVec3TransformCoord( &v3, &pVB[ *pIB++ ].position, &mTM );

  00132	83 c6 06	 add	 esi, 6
; File C:\IAGOS\server\v18\Source\Source\DX_SDK\d3dx9math.inl

; 1754 :     pOut->z = pV1->z - pV2->z;

  00135	f3 0f 5c 4d f8	 subss	 xmm1, DWORD PTR _v1$[ebp+8]

; 1753 :     pOut->y = pV1->y - pV2->y;

  0013a	f3 0f 10 75 f4	 movss	 xmm6, DWORD PTR _v1$[ebp+4]
; File C:\IAGOS\server\v18\Source\Source\_Common\object3d.cpp

; 2204 : 			for( k = 0; k < nMax2; k++ )

  0013f	33 ff		 xor	 edi, edi
; File C:\IAGOS\server\v18\Source\Source\DX_SDK\d3dx9math.inl

; 1753 :     pOut->y = pV1->y - pV2->y;

  00141	f3 0f 10 45 d0	 movss	 xmm0, DWORD PTR _v3$[ebp+4]

; 1754 :     pOut->z = pV1->z - pV2->z;

  00146	f3 0f 10 55 e0	 movss	 xmm2, DWORD PTR _v2$[ebp+8]

; 1753 :     pOut->y = pV1->y - pV2->y;

  0014b	f3 0f 5c c6	 subss	 xmm0, xmm6

; 1754 :     pOut->z = pV1->z - pV2->z;

  0014f	f3 0f 5c 55 f8	 subss	 xmm2, DWORD PTR _v1$[ebp+8]
  00154	f3 0f 10 65 dc	 movss	 xmm4, DWORD PTR _v2$[ebp+4]
  00159	0f 28 f9	 movaps	 xmm7, xmm1
  0015c	f3 0f 10 5d cc	 movss	 xmm3, DWORD PTR _v3$[ebp]

; 1753 :     pOut->y = pV1->y - pV2->y;

  00161	f3 0f 5c e6	 subss	 xmm4, xmm6

; 1752 :     pOut->x = pV1->x - pV2->x;

  00165	f3 0f 5c 5d f0	 subss	 xmm3, DWORD PTR _v1$[ebp]
  0016a	f3 0f 10 6d d8	 movss	 xmm5, DWORD PTR _v2$[ebp]
  0016f	f3 0f 5c 6d f0	 subss	 xmm5, DWORD PTR _v1$[ebp]

; 1753 :     pOut->y = pV1->y - pV2->y;

  00174	f3 0f 11 85 24
	ff ff ff	 movss	 DWORD PTR _vNormal$1$sroa$1038$1$[ebp], xmm0

; 1722 :     v.x = pV1->y * pV2->z - pV1->z * pV2->y;

  0017c	f3 0f 59 c2	 mulss	 xmm0, xmm2
; File C:\IAGOS\server\v18\Source\Source\_Common\object3d.cpp

; 2201 : 			nMax2 = pTargetObj->m_nMaxFaceList;

  00180	8b 95 ec fe ff
	ff		 mov	 edx, DWORD PTR _pTargetObj$GSCopy$1$[ebp]
; File C:\IAGOS\server\v18\Source\Source\DX_SDK\d3dx9math.inl

; 1754 :     pOut->z = pV1->z - pV2->z;

  00186	f3 0f 59 fc	 mulss	 xmm7, xmm4
; File C:\IAGOS\server\v18\Source\Source\_Common\object3d.cpp

; 2189 : 			D3DXVec3TransformCoord( &v3, &pVB[ *pIB++ ].position, &mTM );

  0018a	89 b5 b4 fe ff
	ff		 mov	 DWORD PTR _pIB$1$[ebp], esi
; File C:\IAGOS\server\v18\Source\Source\DX_SDK\d3dx9math.inl

; 1723 :     v.y = pV1->z * pV2->x - pV1->x * pV2->z;

  00190	f3 0f 59 cd	 mulss	 xmm1, xmm5
; File C:\IAGOS\server\v18\Source\Source\_Common\object3d.cpp

; 2201 : 			nMax2 = pTargetObj->m_nMaxFaceList;

  00194	8b 82 98 00 00
	00		 mov	 eax, DWORD PTR [edx+152]

; 2202 : 			pVB2  = (NORMALVERTEX*)(pTargetObj->m_pVB);

  0019a	8b 8a a0 0a 00
	00		 mov	 ecx, DWORD PTR [edx+2720]
; File C:\IAGOS\server\v18\Source\Source\DX_SDK\d3dx9math.inl

; 1722 :     v.x = pV1->y * pV2->z - pV1->z * pV2->y;

  001a0	f3 0f 5c f8	 subss	 xmm7, xmm0
; File C:\IAGOS\server\v18\Source\Source\_Common\object3d.cpp

; 2203 : 			pIB2  = pTargetObj->m_pIB;

  001a4	8b b2 a4 0a 00
	00		 mov	 esi, DWORD PTR [edx+2724]
; File C:\IAGOS\server\v18\Source\Source\DX_SDK\d3dx9math.inl

; 1722 :     v.x = pV1->y * pV2->z - pV1->z * pV2->y;

  001aa	0f 28 c3	 movaps	 xmm0, xmm3
  001ad	f3 0f 59 c2	 mulss	 xmm0, xmm2
; File C:\IAGOS\server\v18\Source\Source\_Common\object3d.cpp

; 2201 : 			nMax2 = pTargetObj->m_nMaxFaceList;

  001b1	89 85 8c fe ff
	ff		 mov	 DWORD PTR _nMax2$1$[ebp], eax
; File C:\IAGOS\server\v18\Source\Source\DX_SDK\d3dx9math.inl

; 1724 :     v.z = pV1->x * pV2->y - pV1->y * pV2->x;

  001b7	f3 0f 59 dc	 mulss	 xmm3, xmm4
; File C:\IAGOS\server\v18\Source\Source\_Common\object3d.cpp

; 2202 : 			pVB2  = (NORMALVERTEX*)(pTargetObj->m_pVB);

  001bb	89 8d 10 ff ff
	ff		 mov	 DWORD PTR _pVB2$1$[ebp], ecx
; File C:\IAGOS\server\v18\Source\Source\DX_SDK\d3dx9math.inl

; 1722 :     v.x = pV1->y * pV2->z - pV1->z * pV2->y;

  001c1	f3 0f 11 bd 20
	ff ff ff	 movss	 DWORD PTR _vNormal$1$sroa$1040$1$[ebp], xmm7

; 1723 :     v.y = pV1->z * pV2->x - pV1->x * pV2->z;

  001c9	f3 0f 5c c1	 subss	 xmm0, xmm1
  001cd	f3 0f 10 8d 24
	ff ff ff	 movss	 xmm1, DWORD PTR _vNormal$1$sroa$1038$1$[ebp]
  001d5	f3 0f 59 cd	 mulss	 xmm1, xmm5
  001d9	f3 0f 11 85 18
	ff ff ff	 movss	 DWORD PTR _vNormal$1$sroa$1039$1$[ebp], xmm0

; 1709 :     return pV1->x * pV2->x + pV1->y * pV2->y + pV1->z * pV2->z;

  001e1	0f 28 d0	 movaps	 xmm2, xmm0
  001e4	f3 0f 59 d6	 mulss	 xmm2, xmm6

; 1726 :     *pOut = v;

  001e8	0f 28 c7	 movaps	 xmm0, xmm7
  001eb	f3 0f 59 45 f0	 mulss	 xmm0, DWORD PTR _v1$[ebp]
  001f0	f3 0f 5c cb	 subss	 xmm1, xmm3

; 1709 :     return pV1->x * pV2->x + pV1->y * pV2->y + pV1->z * pV2->z;

  001f4	f3 0f 58 d0	 addss	 xmm2, xmm0

; 1724 :     v.z = pV1->x * pV2->y - pV1->y * pV2->x;

  001f8	f3 0f 11 8d 24
	ff ff ff	 movss	 DWORD PTR _vNormal$1$sroa$1038$1$[ebp], xmm1

; 1709 :     return pV1->x * pV2->x + pV1->y * pV2->y + pV1->z * pV2->z;

  00200	0f 28 c1	 movaps	 xmm0, xmm1
  00203	f3 0f 59 45 f8	 mulss	 xmm0, DWORD PTR _v1$[ebp+8]
  00208	f3 0f 58 d0	 addss	 xmm2, xmm0
; File C:\IAGOS\server\v18\Source\Source\_Common\object3d.cpp

; 2198 : 			fD = -D3DXVec3Dot(&vNormal, &v1);	// 평면의 방정식 D값 구함

  0020c	0f 57 15 00 00
	00 00		 xorps	 xmm2, DWORD PTR __xmm@80000000800000008000000080000000
  00213	f3 0f 11 95 04
	ff ff ff	 movss	 DWORD PTR _fD$1$[ebp], xmm2

; 2204 : 			for( k = 0; k < nMax2; k++ )

  0021b	85 c0		 test	 eax, eax
  0021d	0f 8e a8 05 00
	00		 jle	 $LN5@SimpleTriI
$LL10@SimpleTriI:

; 2205 : 			{
; 2206 : 				// 주의! 오브젝트가 하나인 경우로 가정하고 했다..아니라면 다시 오브젝트수만큼 루프돌리고 매개변수 바꿔서 다시 짜야된다
; 2207 : 				// 로컬좌표계에서 월드좌표로 변환..
; 2208 : 				float fdu0, fdu1, fdu2, ftdu0, ftdu1, ftdu2, fdu01, fdu02, ftdu01, ftdu02; 
; 2209 : 				D3DXVECTOR3	vtw1, vtw2, vtNormal, vCross;
; 2210 : 				float		fD2;
; 2211 : 				// 축관련
; 2212 : 				float		fXLen, fYLen, fZLen, fCood1, fCood2, fCood3, ftCood1, ftCood2, ftCood3;
; 2213 : 
; 2214 : 				D3DXVec3TransformCoord( &tv1, &pVB2[ *pIB2++ ].position, &mTargetWorld );

  00223	8d 45 4c	 lea	 eax, DWORD PTR _mTargetWorld$[ebp]
  00226	50		 push	 eax
  00227	0f b7 06	 movzx	 eax, WORD PTR [esi]
  0022a	c1 e0 05	 shl	 eax, 5
  0022d	03 c1		 add	 eax, ecx
  0022f	50		 push	 eax
  00230	8d 45 e4	 lea	 eax, DWORD PTR _tv1$[ebp]
  00233	50		 push	 eax
  00234	e8 00 00 00 00	 call	 _D3DXVec3TransformCoord@12

; 2215 : 				D3DXVec3TransformCoord( &tv2, &pVB2[ *pIB2++ ].position, &mTargetWorld );

  00239	8d 45 4c	 lea	 eax, DWORD PTR _mTargetWorld$[ebp]
  0023c	50		 push	 eax
  0023d	0f b7 46 02	 movzx	 eax, WORD PTR [esi+2]
  00241	c1 e0 05	 shl	 eax, 5
  00244	03 85 10 ff ff
	ff		 add	 eax, DWORD PTR _pVB2$1$[ebp]
  0024a	50		 push	 eax
  0024b	8d 45 b4	 lea	 eax, DWORD PTR _tv2$[ebp]
  0024e	50		 push	 eax
  0024f	e8 00 00 00 00	 call	 _D3DXVec3TransformCoord@12

; 2216 : 				D3DXVec3TransformCoord( &tv3, &pVB2[ *pIB2++ ].position, &mTargetWorld );

  00254	8d 45 4c	 lea	 eax, DWORD PTR _mTargetWorld$[ebp]
  00257	50		 push	 eax
  00258	0f b7 46 04	 movzx	 eax, WORD PTR [esi+4]
  0025c	c1 e0 05	 shl	 eax, 5
  0025f	03 85 10 ff ff
	ff		 add	 eax, DWORD PTR _pVB2$1$[ebp]
  00265	50		 push	 eax
  00266	8d 45 c0	 lea	 eax, DWORD PTR _tv3$[ebp]
  00269	50		 push	 eax
  0026a	e8 00 00 00 00	 call	 _D3DXVec3TransformCoord@12
; File C:\IAGOS\server\v18\Source\Source\DX_SDK\d3dx9math.inl

; 1709 :     return pV1->x * pV2->x + pV1->y * pV2->y + pV1->z * pV2->z;

  0026f	f3 0f 10 8d 20
	ff ff ff	 movss	 xmm1, DWORD PTR _vNormal$1$sroa$1040$1$[ebp]
; File C:\IAGOS\server\v18\Source\Source\_Common\object3d.cpp

; 2216 : 				D3DXVec3TransformCoord( &tv3, &pVB2[ *pIB2++ ].position, &mTargetWorld );

  00277	83 c6 06	 add	 esi, 6
; File C:\IAGOS\server\v18\Source\Source\DX_SDK\d3dx9math.inl

; 1709 :     return pV1->x * pV2->x + pV1->y * pV2->y + pV1->z * pV2->z;

  0027a	f3 0f 10 9d 18
	ff ff ff	 movss	 xmm3, DWORD PTR _vNormal$1$sroa$1039$1$[ebp]
  00282	0f 28 f1	 movaps	 xmm6, xmm1
  00285	f3 0f 59 75 e4	 mulss	 xmm6, DWORD PTR _tv1$[ebp]
  0028a	0f 28 c3	 movaps	 xmm0, xmm3
  0028d	f3 0f 59 45 e8	 mulss	 xmm0, DWORD PTR _tv1$[ebp+4]
  00292	0f 28 f9	 movaps	 xmm7, xmm1
  00295	f3 0f 10 95 24
	ff ff ff	 movss	 xmm2, DWORD PTR _vNormal$1$sroa$1038$1$[ebp]
  0029d	f3 0f 10 65 ec	 movss	 xmm4, DWORD PTR _tv1$[ebp+8]
  002a2	f3 0f 59 7d b4	 mulss	 xmm7, DWORD PTR _tv2$[ebp]
  002a7	f3 0f 58 f0	 addss	 xmm6, xmm0
  002ab	f3 0f 59 4d c0	 mulss	 xmm1, DWORD PTR _tv3$[ebp]
  002b0	0f 28 c2	 movaps	 xmm0, xmm2
  002b3	f3 0f 59 c4	 mulss	 xmm0, xmm4
  002b7	f3 0f 10 6d c4	 movss	 xmm5, DWORD PTR _tv3$[ebp+4]
  002bc	f3 0f 11 a5 1c
	ff ff ff	 movss	 DWORD PTR _ftCood1$1$[ebp], xmm4
  002c4	f3 0f 10 65 b8	 movss	 xmm4, DWORD PTR _tv2$[ebp+4]
  002c9	f3 0f 58 f0	 addss	 xmm6, xmm0
  002cd	0f 28 c3	 movaps	 xmm0, xmm3
  002d0	f3 0f 11 a5 30
	ff ff ff	 movss	 DWORD PTR _tv2$2$[ebp], xmm4
  002d8	f3 0f 59 c4	 mulss	 xmm0, xmm4
  002dc	f3 0f 10 65 bc	 movss	 xmm4, DWORD PTR _tv2$[ebp+8]
; File C:\IAGOS\server\v18\Source\Source\_Common\object3d.cpp

; 2219 : 				fdu0 = D3DXVec3Dot(&vNormal, &tv1) + fD;

  002e1	f3 0f 58 b5 04
	ff ff ff	 addss	 xmm6, DWORD PTR _fD$1$[ebp]
; File C:\IAGOS\server\v18\Source\Source\DX_SDK\d3dx9math.inl

; 1709 :     return pV1->x * pV2->x + pV1->y * pV2->y + pV1->z * pV2->z;

  002e9	f3 0f 58 f8	 addss	 xmm7, xmm0
  002ed	f3 0f 11 a5 14
	ff ff ff	 movss	 DWORD PTR _ftCood2$1$[ebp], xmm4
  002f5	0f 28 c2	 movaps	 xmm0, xmm2
  002f8	f3 0f 59 c4	 mulss	 xmm0, xmm4
  002fc	f3 0f 58 f8	 addss	 xmm7, xmm0
  00300	0f 28 c3	 movaps	 xmm0, xmm3
  00303	f3 0f 59 c5	 mulss	 xmm0, xmm5
; File C:\IAGOS\server\v18\Source\Source\_Common\object3d.cpp

; 2220 : 				fdu1 = D3DXVec3Dot(&vNormal, &tv2) + fD;

  00307	f3 0f 58 bd 04
	ff ff ff	 addss	 xmm7, DWORD PTR _fD$1$[ebp]
; File C:\IAGOS\server\v18\Source\Source\DX_SDK\d3dx9math.inl

; 1709 :     return pV1->x * pV2->x + pV1->y * pV2->y + pV1->z * pV2->z;

  0030f	f3 0f 58 c8	 addss	 xmm1, xmm0
  00313	0f 28 c2	 movaps	 xmm0, xmm2
  00316	f3 0f 10 55 c8	 movss	 xmm2, DWORD PTR _tv3$[ebp+8]
  0031b	f3 0f 59 c2	 mulss	 xmm0, xmm2
  0031f	f3 0f 11 95 08
	ff ff ff	 movss	 DWORD PTR _ftCood3$1$[ebp], xmm2
; File C:\IAGOS\server\v18\Source\Source\_Common\object3d.cpp

; 2223 : 				fdu01 = fdu0*fdu1;

  00327	0f 28 d7	 movaps	 xmm2, xmm7
  0032a	f3 0f 59 d6	 mulss	 xmm2, xmm6
; File C:\IAGOS\server\v18\Source\Source\DX_SDK\d3dx9math.inl

; 1709 :     return pV1->x * pV2->x + pV1->y * pV2->y + pV1->z * pV2->z;

  0032e	f3 0f 58 c8	 addss	 xmm1, xmm0
; File C:\IAGOS\server\v18\Source\Source\_Common\object3d.cpp

; 2220 : 				fdu1 = D3DXVec3Dot(&vNormal, &tv2) + fD;

  00332	f3 0f 11 bd 90
	fe ff ff	 movss	 DWORD PTR _fdu1$1$[ebp], xmm7

; 2223 : 				fdu01 = fdu0*fdu1;

  0033a	f3 0f 11 95 a8
	fe ff ff	 movss	 DWORD PTR _fdu01$1$[ebp], xmm2
  00342	f3 0f 58 8d 04
	ff ff ff	 addss	 xmm1, DWORD PTR _fD$1$[ebp]

; 2224 : 				fdu02 = fdu0*fdu2;

  0034a	0f 28 c1	 movaps	 xmm0, xmm1
  0034d	f3 0f 11 8d bc
	fe ff ff	 movss	 DWORD PTR _fdu2$1$[ebp], xmm1
  00355	f3 0f 59 c6	 mulss	 xmm0, xmm6
  00359	0f 57 c9	 xorps	 xmm1, xmm1

; 2225 : 				if(fdu01  > 0.0f && fdu02 > 0.0f) 

  0035c	0f 2f d1	 comiss	 xmm2, xmm1
  0035f	f3 0f 11 85 a0
	fe ff ff	 movss	 DWORD PTR _fdu02$1$[ebp], xmm0
  00367	76 09		 jbe	 SHORT $LN12@SimpleTriI
  00369	0f 2f c1	 comiss	 xmm0, xmm1
  0036c	0f 87 46 04 00
	00		 ja	 $LN8@SimpleTriI
$LN12@SimpleTriI:
; File C:\IAGOS\server\v18\Source\Source\DX_SDK\d3dx9math.inl

; 1753 :     pOut->y = pV1->y - pV2->y;

  00372	f3 0f 10 8d 30
	ff ff ff	 movss	 xmm1, DWORD PTR _tv2$2$[ebp]
  0037a	f3 0f 5c 4d e8	 subss	 xmm1, DWORD PTR _tv1$[ebp+4]
  0037f	f3 0f 5c 6d e8	 subss	 xmm5, DWORD PTR _tv1$[ebp+4]

; 1754 :     pOut->z = pV1->z - pV2->z;

  00384	f3 0f 10 95 14
	ff ff ff	 movss	 xmm2, DWORD PTR _ftCood2$1$[ebp]
  0038c	f3 0f 5c 95 1c
	ff ff ff	 subss	 xmm2, DWORD PTR _ftCood1$1$[ebp]

; 1752 :     pOut->x = pV1->x - pV2->x;

  00394	f3 0f 10 5d c0	 movss	 xmm3, DWORD PTR _tv3$[ebp]
  00399	f3 0f 5c 5d e4	 subss	 xmm3, DWORD PTR _tv1$[ebp]

; 1753 :     pOut->y = pV1->y - pV2->y;

  0039e	f3 0f 11 8d 30
	ff ff ff	 movss	 DWORD PTR _tv2$2$[ebp], xmm1

; 1754 :     pOut->z = pV1->z - pV2->z;

  003a6	f3 0f 10 8d 08
	ff ff ff	 movss	 xmm1, DWORD PTR _ftCood3$1$[ebp]
  003ae	f3 0f 5c 8d 1c
	ff ff ff	 subss	 xmm1, DWORD PTR _ftCood1$1$[ebp]

; 1752 :     pOut->x = pV1->x - pV2->x;

  003b6	f3 0f 10 65 b4	 movss	 xmm4, DWORD PTR _tv2$[ebp]
  003bb	f3 0f 5c 65 e4	 subss	 xmm4, DWORD PTR _tv1$[ebp]

; 1754 :     pOut->z = pV1->z - pV2->z;

  003c0	0f 28 c1	 movaps	 xmm0, xmm1
  003c3	f3 0f 59 85 30
	ff ff ff	 mulss	 xmm0, DWORD PTR _tv2$2$[ebp]

; 1723 :     v.y = pV1->z * pV2->x - pV1->x * pV2->z;

  003cb	f3 0f 59 cc	 mulss	 xmm1, xmm4

; 1754 :     pOut->z = pV1->z - pV2->z;

  003cf	f3 0f 11 85 2c
	ff ff ff	 movss	 DWORD PTR tv1647[ebp], xmm0

; 1722 :     v.x = pV1->y * pV2->z - pV1->z * pV2->y;

  003d7	0f 28 c5	 movaps	 xmm0, xmm5
  003da	f3 0f 10 bd 2c
	ff ff ff	 movss	 xmm7, DWORD PTR tv1647[ebp]
  003e2	f3 0f 59 c2	 mulss	 xmm0, xmm2

; 1723 :     v.y = pV1->z * pV2->x - pV1->x * pV2->z;

  003e6	f3 0f 59 ec	 mulss	 xmm5, xmm4
  003ea	f3 0f 5c f8	 subss	 xmm7, xmm0

; 1709 :     return pV1->x * pV2->x + pV1->y * pV2->y + pV1->z * pV2->z;

  003ee	f3 0f 10 65 f8	 movss	 xmm4, DWORD PTR _v1$[ebp+8]
  003f3	f3 0f 11 a5 98
	fe ff ff	 movss	 DWORD PTR _fCood1$1$[ebp], xmm4

; 1722 :     v.x = pV1->y * pV2->z - pV1->z * pV2->y;

  003fb	f3 0f 11 bd 2c
	ff ff ff	 movss	 DWORD PTR tv1647[ebp], xmm7
  00403	0f 28 fb	 movaps	 xmm7, xmm3

; 1724 :     v.z = pV1->x * pV2->y - pV1->y * pV2->x;

  00406	f3 0f 59 9d 30
	ff ff ff	 mulss	 xmm3, DWORD PTR _tv2$2$[ebp]
  0040e	f3 0f 59 fa	 mulss	 xmm7, xmm2

; 1709 :     return pV1->x * pV2->x + pV1->y * pV2->y + pV1->z * pV2->z;

  00412	f3 0f 10 95 2c
	ff ff ff	 movss	 xmm2, DWORD PTR tv1647[ebp]

; 1724 :     v.z = pV1->x * pV2->y - pV1->y * pV2->x;

  0041a	f3 0f 5c eb	 subss	 xmm5, xmm3

; 1709 :     return pV1->x * pV2->x + pV1->y * pV2->y + pV1->z * pV2->z;

  0041e	0f 28 c2	 movaps	 xmm0, xmm2
  00421	f3 0f 59 45 e4	 mulss	 xmm0, DWORD PTR _tv1$[ebp]

; 1723 :     v.y = pV1->z * pV2->x - pV1->x * pV2->z;

  00426	f3 0f 5c f9	 subss	 xmm7, xmm1

; 1725 : 
; 1726 :     *pOut = v;

  0042a	0f 28 cf	 movaps	 xmm1, xmm7
  0042d	f3 0f 11 bd 94
	fe ff ff	 movss	 DWORD PTR tv1649[ebp], xmm7
  00435	f3 0f 59 4d e8	 mulss	 xmm1, DWORD PTR _tv1$[ebp+4]
; File C:\IAGOS\server\v18\Source\Source\_Common\object3d.cpp

; 2232 : 				fD2 = -D3DXVec3Dot(&vtNormal, &tv1);	// 평면의 방정식 D값 구함

  0043a	0f 28 df	 movaps	 xmm3, xmm7
  0043d	f3 0f 59 5d f4	 mulss	 xmm3, DWORD PTR _v1$[ebp+4]
; File C:\IAGOS\server\v18\Source\Source\DX_SDK\d3dx9math.inl

; 1709 :     return pV1->x * pV2->x + pV1->y * pV2->y + pV1->z * pV2->z;

  00442	f3 0f 58 c8	 addss	 xmm1, xmm0
  00446	0f 28 c5	 movaps	 xmm0, xmm5
  00449	f3 0f 59 85 1c
	ff ff ff	 mulss	 xmm0, DWORD PTR _ftCood1$1$[ebp]
  00451	f3 0f 58 c8	 addss	 xmm1, xmm0
  00455	0f 28 c2	 movaps	 xmm0, xmm2
  00458	f3 0f 59 45 f0	 mulss	 xmm0, DWORD PTR _v1$[ebp]
; File C:\IAGOS\server\v18\Source\Source\_Common\object3d.cpp

; 2232 : 				fD2 = -D3DXVec3Dot(&vtNormal, &tv1);	// 평면의 방정식 D값 구함

  0045d	0f 57 0d 00 00
	00 00		 xorps	 xmm1, DWORD PTR __xmm@80000000800000008000000080000000
; File C:\IAGOS\server\v18\Source\Source\DX_SDK\d3dx9math.inl

; 1709 :     return pV1->x * pV2->x + pV1->y * pV2->y + pV1->z * pV2->z;

  00464	f3 0f 58 d8	 addss	 xmm3, xmm0
  00468	0f 28 c5	 movaps	 xmm0, xmm5
  0046b	f3 0f 59 c4	 mulss	 xmm0, xmm4
; File C:\IAGOS\server\v18\Source\Source\_Common\object3d.cpp

; 2235 : 				ftdu0 = D3DXVec3Dot(&vtNormal, &v1) + fD2;

  0046f	0f 28 e7	 movaps	 xmm4, xmm7
  00472	f3 0f 59 65 dc	 mulss	 xmm4, DWORD PTR _v2$[ebp+4]

; 2236 : 				ftdu1 = D3DXVec3Dot(&vtNormal, &v2) + fD2;

  00477	f3 0f 59 7d d0	 mulss	 xmm7, DWORD PTR _v3$[ebp+4]
; File C:\IAGOS\server\v18\Source\Source\DX_SDK\d3dx9math.inl

; 1709 :     return pV1->x * pV2->x + pV1->y * pV2->y + pV1->z * pV2->z;

  0047c	f3 0f 58 d8	 addss	 xmm3, xmm0
  00480	0f 28 c2	 movaps	 xmm0, xmm2
  00483	f3 0f 59 45 d8	 mulss	 xmm0, DWORD PTR _v2$[ebp]
; File C:\IAGOS\server\v18\Source\Source\_Common\object3d.cpp

; 2235 : 				ftdu0 = D3DXVec3Dot(&vtNormal, &v1) + fD2;

  00488	f3 0f 58 d9	 addss	 xmm3, xmm1
; File C:\IAGOS\server\v18\Source\Source\DX_SDK\d3dx9math.inl

; 1709 :     return pV1->x * pV2->x + pV1->y * pV2->y + pV1->z * pV2->z;

  0048c	f3 0f 58 e0	 addss	 xmm4, xmm0
  00490	0f 28 c5	 movaps	 xmm0, xmm5
; File C:\IAGOS\server\v18\Source\Source\_Common\object3d.cpp

; 2235 : 				ftdu0 = D3DXVec3Dot(&vtNormal, &v1) + fD2;

  00493	f3 0f 11 9d 30
	ff ff ff	 movss	 DWORD PTR _ftdu0$1$[ebp], xmm3
; File C:\IAGOS\server\v18\Source\Source\DX_SDK\d3dx9math.inl

; 1709 :     return pV1->x * pV2->x + pV1->y * pV2->y + pV1->z * pV2->z;

  0049b	f3 0f 10 5d e0	 movss	 xmm3, DWORD PTR _v2$[ebp+8]
  004a0	f3 0f 59 c3	 mulss	 xmm0, xmm3
  004a4	f3 0f 11 9d 2c
	ff ff ff	 movss	 DWORD PTR _fCood2$1$[ebp], xmm3
  004ac	f3 0f 10 5d d4	 movss	 xmm3, DWORD PTR _v3$[ebp+8]
  004b1	f3 0f 58 e0	 addss	 xmm4, xmm0
  004b5	f3 0f 11 9d 9c
	fe ff ff	 movss	 DWORD PTR _fCood3$1$[ebp], xmm3
  004bd	0f 28 c2	 movaps	 xmm0, xmm2
  004c0	f3 0f 59 45 cc	 mulss	 xmm0, DWORD PTR _v3$[ebp]
; File C:\IAGOS\server\v18\Source\Source\_Common\object3d.cpp

; 2236 : 				ftdu1 = D3DXVec3Dot(&vtNormal, &v2) + fD2;

  004c5	f3 0f 58 e1	 addss	 xmm4, xmm1
; File C:\IAGOS\server\v18\Source\Source\DX_SDK\d3dx9math.inl

; 1709 :     return pV1->x * pV2->x + pV1->y * pV2->y + pV1->z * pV2->z;

  004c9	f3 0f 58 f8	 addss	 xmm7, xmm0
  004cd	0f 28 c5	 movaps	 xmm0, xmm5
  004d0	f3 0f 59 c3	 mulss	 xmm0, xmm3
; File C:\IAGOS\server\v18\Source\Source\_Common\object3d.cpp

; 2236 : 				ftdu1 = D3DXVec3Dot(&vtNormal, &v2) + fD2;

  004d4	f3 0f 11 a5 28
	ff ff ff	 movss	 DWORD PTR _ftdu1$1$[ebp], xmm4

; 2239 : 				ftdu01 = ftdu0*ftdu1;

  004dc	f3 0f 59 a5 30
	ff ff ff	 mulss	 xmm4, DWORD PTR _ftdu0$1$[ebp]
; File C:\IAGOS\server\v18\Source\Source\DX_SDK\d3dx9math.inl

; 1709 :     return pV1->x * pV2->x + pV1->y * pV2->y + pV1->z * pV2->z;

  004e4	f3 0f 58 f8	 addss	 xmm7, xmm0
; File C:\IAGOS\server\v18\Source\Source\_Common\object3d.cpp

; 2239 : 				ftdu01 = ftdu0*ftdu1;

  004e8	f3 0f 11 a5 a4
	fe ff ff	 movss	 DWORD PTR _ftdu01$1$[ebp], xmm4
  004f0	f3 0f 58 f9	 addss	 xmm7, xmm1
  004f4	0f 57 c9	 xorps	 xmm1, xmm1

; 2240 : 				ftdu02 = ftdu0*ftdu2;
; 2241 : 				if(ftdu01  > 0.0f && ftdu02 > 0.0f) 

  004f7	0f 2f e1	 comiss	 xmm4, xmm1
  004fa	0f 28 c7	 movaps	 xmm0, xmm7
  004fd	f3 0f 11 bd e8
	fe ff ff	 movss	 DWORD PTR _ftdu2$1$[ebp], xmm7
  00505	f3 0f 59 85 30
	ff ff ff	 mulss	 xmm0, DWORD PTR _ftdu0$1$[ebp]
  0050d	f3 0f 10 bd 90
	fe ff ff	 movss	 xmm7, DWORD PTR _fdu1$1$[ebp]
  00515	f3 0f 11 85 e4
	fe ff ff	 movss	 DWORD PTR _ftdu02$1$[ebp], xmm0
  0051d	76 09		 jbe	 SHORT $LN13@SimpleTriI
  0051f	0f 2f c1	 comiss	 xmm0, xmm1
  00522	0f 87 90 02 00
	00		 ja	 $LN8@SimpleTriI
$LN13@SimpleTriI:
; File C:\IAGOS\server\v18\Source\Source\DX_SDK\d3dx9math.inl

; 1723 :     v.y = pV1->z * pV2->x - pV1->x * pV2->z;

  00528	f3 0f 10 8d 94
	fe ff ff	 movss	 xmm1, DWORD PTR tv1649[ebp]
  00530	0f 28 c5	 movaps	 xmm0, xmm5
  00533	f3 0f 59 85 20
	ff ff ff	 mulss	 xmm0, DWORD PTR _vNormal$1$sroa$1040$1$[ebp]
  0053b	0f 28 da	 movaps	 xmm3, xmm2
  0053e	f3 0f 59 9d 24
	ff ff ff	 mulss	 xmm3, DWORD PTR _vNormal$1$sroa$1038$1$[ebp]

; 1724 :     v.z = pV1->x * pV2->y - pV1->y * pV2->x;

  00546	f3 0f 59 95 18
	ff ff ff	 mulss	 xmm2, DWORD PTR _vNormal$1$sroa$1039$1$[ebp]
  0054e	f3 0f 59 ad 18
	ff ff ff	 mulss	 xmm5, DWORD PTR _vNormal$1$sroa$1039$1$[ebp]
  00556	f3 0f 5c d8	 subss	 xmm3, xmm0
  0055a	0f 28 c1	 movaps	 xmm0, xmm1
  0055d	f3 0f 59 8d 24
	ff ff ff	 mulss	 xmm1, DWORD PTR _vNormal$1$sroa$1038$1$[ebp]
  00565	f3 0f 59 85 20
	ff ff ff	 mulss	 xmm0, DWORD PTR _vNormal$1$sroa$1040$1$[ebp]
  0056d	f3 0f 5c e9	 subss	 xmm5, xmm1
  00571	f3 0f 5c c2	 subss	 xmm0, xmm2
; File C:\IAGOS\server\v18\Source\Source\_Common\object3d.cpp

; 2250 : 				fZLen = fabs(vCross.z);

  00575	f3 0f 10 15 00
	00 00 00	 movss	 xmm2, DWORD PTR __xmm@7fffffff7fffffff7fffffff7fffffff
  0057d	0f 54 ea	 andps	 xmm5, xmm2
  00580	0f 54 c2	 andps	 xmm0, xmm2

; 2251 : 
; 2252 : 				// 그축에 두개의 삼각형을 투영함
; 2253 : 				if(fYLen > fXLen && fYLen > fZLen) // y
; 2254 : 				{
; 2255 : 					fCood1 = v1.y;
; 2256 : 					fCood2 = v2.y;
; 2257 : 					fCood3 = v3.y;
; 2258 : 					ftCood1 = tv1.y;
; 2259 : 					ftCood2 = tv2.y;
; 2260 : 					ftCood3 = tv3.y;
; 2261 : 				}
; 2262 : 				if(fZLen > fXLen && fZLen > fYLen) // z

  00583	0f 2f c5	 comiss	 xmm0, xmm5
  00586	76 1a		 jbe	 SHORT $LN15@SimpleTriI
  00588	0f 54 da	 andps	 xmm3, xmm2
  0058b	0f 2f c3	 comiss	 xmm0, xmm3
  0058e	76 12		 jbe	 SHORT $LN15@SimpleTriI

; 2263 : 				{
; 2264 : 					fCood1 = v1.z;
; 2265 : 					fCood2 = v2.z;
; 2266 : 					fCood3 = v3.z;
; 2267 : 					ftCood1 = tv1.z;
; 2268 : 					ftCood2 = tv2.z;
; 2269 : 					ftCood3 = tv3.z;
; 2270 : 				}

  00590	f3 0f 10 8d 98
	fe ff ff	 movss	 xmm1, DWORD PTR _fCood1$1$[ebp]
  00598	f3 0f 10 95 9c
	fe ff ff	 movss	 xmm2, DWORD PTR _fCood3$1$[ebp]
  005a0	eb 3e		 jmp	 SHORT $LN16@SimpleTriI
$LN15@SimpleTriI:

; 2271 : 				else								// x
; 2272 : 				{
; 2273 : 					fCood1 = v1.x;
; 2274 : 					fCood2 = v2.x;

  005a2	f3 0f 10 45 d8	 movss	 xmm0, DWORD PTR _v2$[ebp]
  005a7	f3 0f 10 4d f0	 movss	 xmm1, DWORD PTR _v1$[ebp]

; 2275 : 					fCood3 = v3.x;

  005ac	f3 0f 10 55 cc	 movss	 xmm2, DWORD PTR _v3$[ebp]
  005b1	f3 0f 11 85 2c
	ff ff ff	 movss	 DWORD PTR _fCood2$1$[ebp], xmm0

; 2276 : 					ftCood1 = tv1.x;

  005b9	f3 0f 10 45 e4	 movss	 xmm0, DWORD PTR _tv1$[ebp]
  005be	f3 0f 11 85 1c
	ff ff ff	 movss	 DWORD PTR _ftCood1$1$[ebp], xmm0

; 2277 : 					ftCood2 = tv2.x;

  005c6	f3 0f 10 45 b4	 movss	 xmm0, DWORD PTR _tv2$[ebp]
  005cb	f3 0f 11 85 14
	ff ff ff	 movss	 DWORD PTR _ftCood2$1$[ebp], xmm0

; 2278 : 					ftCood3 = tv3.x;

  005d3	f3 0f 10 45 c0	 movss	 xmm0, DWORD PTR _tv3$[ebp]
  005d8	f3 0f 11 85 08
	ff ff ff	 movss	 DWORD PTR _ftCood3$1$[ebp], xmm0
$LN16@SimpleTriI:

; 2279 : 				}
; 2280 : 
; 2281 : 				float a,b,c,x0,x1, d,e,f,y0,y1;
; 2282 : 				float xx,yy,xxyy,tmp;
; 2283 : 				float isect1[2], isect2[2];
; 2284 : 
; 2285 : 				// 폴리곤1의 간격 계산
; 2286 : 				ComputeInterval(fCood1,fCood2,fCood3,fdu0,fdu1,fdu2,fdu01,fdu02,a,b,c,x0,x1);

  005e0	f3 0f 10 85 a0
	fe ff ff	 movss	 xmm0, DWORD PTR _fdu02$1$[ebp]
  005e8	8d 85 dc fe ff
	ff		 lea	 eax, DWORD PTR _x1$9[ebp]
  005ee	50		 push	 eax
  005ef	8b 8d 0c ff ff
	ff		 mov	 ecx, DWORD PTR _this$GSCopy$1$[ebp]
  005f5	8d 85 e0 fe ff
	ff		 lea	 eax, DWORD PTR _x0$10[ebp]
  005fb	50		 push	 eax
  005fc	8d 85 cc fe ff
	ff		 lea	 eax, DWORD PTR _c$5[ebp]
  00602	50		 push	 eax
  00603	8d 85 d0 fe ff
	ff		 lea	 eax, DWORD PTR _b$6[ebp]
  00609	50		 push	 eax
  0060a	8d 85 d4 fe ff
	ff		 lea	 eax, DWORD PTR _a$7[ebp]
  00610	50		 push	 eax
  00611	83 ec 20	 sub	 esp, 32			; 00000020H
  00614	f3 0f 11 44 24
	1c		 movss	 DWORD PTR [esp+28], xmm0
  0061a	f3 0f 10 85 a8
	fe ff ff	 movss	 xmm0, DWORD PTR _fdu01$1$[ebp]
  00622	f3 0f 11 44 24
	18		 movss	 DWORD PTR [esp+24], xmm0
  00628	f3 0f 10 85 bc
	fe ff ff	 movss	 xmm0, DWORD PTR _fdu2$1$[ebp]
  00630	f3 0f 11 44 24
	14		 movss	 DWORD PTR [esp+20], xmm0
  00636	f3 0f 10 85 2c
	ff ff ff	 movss	 xmm0, DWORD PTR _fCood2$1$[ebp]
  0063e	f3 0f 11 7c 24
	10		 movss	 DWORD PTR [esp+16], xmm7
  00644	f3 0f 11 74 24
	0c		 movss	 DWORD PTR [esp+12], xmm6
  0064a	f3 0f 11 54 24
	08		 movss	 DWORD PTR [esp+8], xmm2
  00650	f3 0f 11 44 24
	04		 movss	 DWORD PTR [esp+4], xmm0
  00656	f3 0f 11 0c 24	 movss	 DWORD PTR [esp], xmm1
  0065b	e8 00 00 00 00	 call	 ?ComputeInterval@CObject3D@@QAEXMMMMMMMMAAM0000@Z ; CObject3D::ComputeInterval

; 2287 : 
; 2288 : 				// 폴리곤2의 간격 계산
; 2289 : 				ComputeInterval(ftCood1,ftCood2,ftCood3,ftdu0,ftdu1,ftdu2,ftdu01,ftdu02,d,e,f,y0,y1);

  00660	f3 0f 10 85 e4
	fe ff ff	 movss	 xmm0, DWORD PTR _ftdu02$1$[ebp]
  00668	8d 85 d8 fe ff
	ff		 lea	 eax, DWORD PTR _y1$8[ebp]
  0066e	50		 push	 eax
  0066f	8d 85 00 ff ff
	ff		 lea	 eax, DWORD PTR _y0$11[ebp]
  00675	8b 8d 0c ff ff
	ff		 mov	 ecx, DWORD PTR _this$GSCopy$1$[ebp]
  0067b	50		 push	 eax
  0067c	8d 85 c0 fe ff
	ff		 lea	 eax, DWORD PTR _f$2[ebp]
  00682	50		 push	 eax
  00683	8d 85 c4 fe ff
	ff		 lea	 eax, DWORD PTR _e$3[ebp]
  00689	50		 push	 eax
  0068a	8d 85 c8 fe ff
	ff		 lea	 eax, DWORD PTR _d$4[ebp]
  00690	50		 push	 eax
  00691	83 ec 20	 sub	 esp, 32			; 00000020H
  00694	f3 0f 11 44 24
	1c		 movss	 DWORD PTR [esp+28], xmm0
  0069a	f3 0f 10 85 a4
	fe ff ff	 movss	 xmm0, DWORD PTR _ftdu01$1$[ebp]
  006a2	f3 0f 11 44 24
	18		 movss	 DWORD PTR [esp+24], xmm0
  006a8	f3 0f 10 85 e8
	fe ff ff	 movss	 xmm0, DWORD PTR _ftdu2$1$[ebp]
  006b0	f3 0f 11 44 24
	14		 movss	 DWORD PTR [esp+20], xmm0
  006b6	f3 0f 10 85 28
	ff ff ff	 movss	 xmm0, DWORD PTR _ftdu1$1$[ebp]
  006be	f3 0f 11 44 24
	10		 movss	 DWORD PTR [esp+16], xmm0
  006c4	f3 0f 10 85 30
	ff ff ff	 movss	 xmm0, DWORD PTR _ftdu0$1$[ebp]
  006cc	f3 0f 11 44 24
	0c		 movss	 DWORD PTR [esp+12], xmm0
  006d2	f3 0f 10 85 08
	ff ff ff	 movss	 xmm0, DWORD PTR _ftCood3$1$[ebp]
  006da	f3 0f 11 44 24
	08		 movss	 DWORD PTR [esp+8], xmm0
  006e0	f3 0f 10 85 14
	ff ff ff	 movss	 xmm0, DWORD PTR _ftCood2$1$[ebp]
  006e8	f3 0f 11 44 24
	04		 movss	 DWORD PTR [esp+4], xmm0
  006ee	f3 0f 10 85 1c
	ff ff ff	 movss	 xmm0, DWORD PTR _ftCood1$1$[ebp]
  006f6	f3 0f 11 04 24	 movss	 DWORD PTR [esp], xmm0
  006fb	e8 00 00 00 00	 call	 ?ComputeInterval@CObject3D@@QAEXMMMMMMMMAAM0000@Z ; CObject3D::ComputeInterval

; 2290 : 
; 2291 : 				xx = x0 * x1;
; 2292 : 				yy = y0 * y1;

  00700	f3 0f 10 95 00
	ff ff ff	 movss	 xmm2, DWORD PTR _y0$11[ebp]
  00708	f3 0f 59 95 d8
	fe ff ff	 mulss	 xmm2, DWORD PTR _y1$8[ebp]

; 2293 : 				xxyy = xx * yy;
; 2294 : 
; 2295 : 				tmp = a * xxyy;
; 2296 : 				isect1[0] = tmp + b * x1 * yy;

  00710	f3 0f 10 ad d0
	fe ff ff	 movss	 xmm5, DWORD PTR _b$6[ebp]
  00718	f3 0f 59 ad dc
	fe ff ff	 mulss	 xmm5, DWORD PTR _x1$9[ebp]
  00720	f3 0f 10 bd e0
	fe ff ff	 movss	 xmm7, DWORD PTR _x0$10[ebp]
  00728	0f 28 f2	 movaps	 xmm6, xmm2
  0072b	f3 0f 59 bd dc
	fe ff ff	 mulss	 xmm7, DWORD PTR _x1$9[ebp]
  00733	0f 28 cd	 movaps	 xmm1, xmm5

; 2297 : 				isect1[1] = tmp + c * x0 * yy;

  00736	f3 0f 10 ad cc
	fe ff ff	 movss	 xmm5, DWORD PTR _c$5[ebp]
  0073e	f3 0f 59 ad e0
	fe ff ff	 mulss	 xmm5, DWORD PTR _x0$10[ebp]
  00746	f3 0f 59 f7	 mulss	 xmm6, xmm7
  0074a	f3 0f 59 ca	 mulss	 xmm1, xmm2
  0074e	0f 28 c6	 movaps	 xmm0, xmm6
  00751	f3 0f 59 ea	 mulss	 xmm5, xmm2
  00755	f3 0f 59 85 d4
	fe ff ff	 mulss	 xmm0, DWORD PTR _a$7[ebp]

; 2298 : 
; 2299 : 				tmp = d * xxyy;

  0075d	f3 0f 59 b5 c8
	fe ff ff	 mulss	 xmm6, DWORD PTR _d$4[ebp]
  00765	f3 0f 58 c8	 addss	 xmm1, xmm0
  00769	f3 0f 58 e8	 addss	 xmm5, xmm0

; 2300 : 				isect2[0] = tmp + e * xx * y1;

  0076d	0f 28 c7	 movaps	 xmm0, xmm7
  00770	f3 0f 59 85 c4
	fe ff ff	 mulss	 xmm0, DWORD PTR _e$3[ebp]

; 2301 : 				isect2[1] = tmp + f * xx * y0;

  00778	f3 0f 59 bd c0
	fe ff ff	 mulss	 xmm7, DWORD PTR _f$2[ebp]
  00780	f3 0f 59 85 d8
	fe ff ff	 mulss	 xmm0, DWORD PTR _y1$8[ebp]
  00788	0f 28 d5	 movaps	 xmm2, xmm5
  0078b	f3 0f 59 bd 00
	ff ff ff	 mulss	 xmm7, DWORD PTR _y0$11[ebp]
  00793	f3 0f 58 c6	 addss	 xmm0, xmm6
  00797	0f 2f ca	 comiss	 xmm1, xmm2
  0079a	f3 0f 58 fe	 addss	 xmm7, xmm6

; 2302 : 
; 2303 : 				if(isect1[0] > isect1[1])

  0079e	76 03		 jbe	 SHORT $LN17@SimpleTriI

; 2304 : 				 tmp = isect1[0];

  007a0	0f 28 f1	 movaps	 xmm6, xmm1
$LN17@SimpleTriI:

; 2305 : 				 isect1[0] = isect1[1];
; 2306 : 				 isect1[1] = tmp;

  007a3	0f 2f c7	 comiss	 xmm0, xmm7
  007a6	0f 28 ce	 movaps	 xmm1, xmm6

; 2307 :                
; 2308 : 				if(isect2[0] > isect2[1])

  007a9	76 03		 jbe	 SHORT $LN18@SimpleTriI

; 2309 : 				 tmp = isect2[0];

  007ab	0f 28 f0	 movaps	 xmm6, xmm0
$LN18@SimpleTriI:

; 2310 : 				 isect2[0] = isect2[1];
; 2311 : 				 isect2[1] = tmp;

  007ae	0f 2f f9	 comiss	 xmm7, xmm1

; 2312 : 
; 2313 : 				if(isect1[1] < isect2[0] || isect2[1] < isect1[0]) continue;

  007b1	77 05		 ja	 SHORT $LN8@SimpleTriI
  007b3	0f 2f d6	 comiss	 xmm2, xmm6
  007b6	76 79		 jbe	 SHORT $LN19@SimpleTriI
$LN8@SimpleTriI:

; 2204 : 			for( k = 0; k < nMax2; k++ )

  007b8	8b 8d 10 ff ff
	ff		 mov	 ecx, DWORD PTR _pVB2$1$[ebp]
  007be	47		 inc	 edi
  007bf	3b bd 8c fe ff
	ff		 cmp	 edi, DWORD PTR _nMax2$1$[ebp]
  007c5	0f 8c 58 fa ff
	ff		 jl	 $LL10@SimpleTriI
$LN5@SimpleTriI:

; 2180 : 		
; 2181 : 		nMax = pObj->m_nMaxFaceList;
; 2182 : 		pVB	= (NORMALVERTEX*)(pObj->m_pVB);
; 2183 : 		pIB	= pObj->m_pIB;
; 2184 : 		for( j = 0; j < nMax; j++ )

  007cb	8b 85 fc fe ff
	ff		 mov	 eax, DWORD PTR _j$1$[ebp]
  007d1	8b b5 b4 fe ff
	ff		 mov	 esi, DWORD PTR _pIB$1$[ebp]
  007d7	40		 inc	 eax
  007d8	8b bd b0 fe ff
	ff		 mov	 edi, DWORD PTR _pVB$1$[ebp]
  007de	89 85 fc fe ff
	ff		 mov	 DWORD PTR _j$1$[ebp], eax
  007e4	3b 85 b8 fe ff
	ff		 cmp	 eax, DWORD PTR _nMax$1$[ebp]
  007ea	0f 8c f0 f8 ff
	ff		 jl	 $LL7@SimpleTriI
$LN68@SimpleTriI:

; 2170 : 	{
; 2171 : 		pObj = &m_CollObject;
; 2172 : 		nMaxObj = 1;	// 충돌메시는 무조건 1개다.
; 2173 : 	}
; 2174 : 
; 2175 : 	// 스킨 오브젝트는 없을테니까 제끼고 하자...시간상
; 2176 : 	for( i = 0; i < nMaxObj; i++ )

  007f0	8b 85 f4 fe ff
	ff		 mov	 eax, DWORD PTR _i$1$[ebp]

; 2316 : 			}
; 2317 : 		}	
; 2318 : 		pObj++;

  007f6	8b b5 f8 fe ff
	ff		 mov	 esi, DWORD PTR tv1753[ebp]
  007fc	40		 inc	 eax
  007fd	8b 95 f0 fe ff
	ff		 mov	 edx, DWORD PTR tv1734[ebp]
  00803	81 c6 bc 0a 00
	00		 add	 esi, 2748		; 00000abcH
  00809	83 c2 40	 add	 edx, 64			; 00000040H
  0080c	89 b5 f8 fe ff
	ff		 mov	 DWORD PTR tv1753[ebp], esi
  00812	89 85 f4 fe ff
	ff		 mov	 DWORD PTR _i$1$[ebp], eax
  00818	89 95 f0 fe ff
	ff		 mov	 DWORD PTR tv1734[ebp], edx
  0081e	3b 85 ac fe ff
	ff		 cmp	 eax, DWORD PTR _nMaxObj$2$[ebp]
  00824	7d 22		 jge	 SHORT $LN60@SimpleTriI

; 2170 : 	{
; 2171 : 		pObj = &m_CollObject;
; 2172 : 		nMaxObj = 1;	// 충돌메시는 무조건 1개다.
; 2173 : 	}
; 2174 : 
; 2175 : 	// 스킨 오브젝트는 없을테니까 제끼고 하자...시간상
; 2176 : 	for( i = 0; i < nMaxObj; i++ )

  00826	8b 8d 0c ff ff
	ff		 mov	 ecx, DWORD PTR _this$GSCopy$1$[ebp]
  0082c	e9 40 f8 ff ff	 jmp	 $LL4@SimpleTriI
$LN19@SimpleTriI:
  00831	5f		 pop	 edi

; 2314 : 			
; 2315 : 				return TRUE;

  00832	b8 01 00 00 00	 mov	 eax, 1

; 2319 : 	}
; 2320 : 	
; 2321 : 	return FALSE;
; 2322 : }

  00837	5e		 pop	 esi
  00838	8b 4d fc	 mov	 ecx, DWORD PTR __$ArrayPad$[ebp]
  0083b	33 cd		 xor	 ecx, ebp
  0083d	e8 00 00 00 00	 call	 @__security_check_cookie@4
  00842	8b e5		 mov	 esp, ebp
  00844	5d		 pop	 ebp
  00845	c2 84 00	 ret	 132			; 00000084H
$LN60@SimpleTriI:
  00848	8b 4d fc	 mov	 ecx, DWORD PTR __$ArrayPad$[ebp]
  0084b	33 c0		 xor	 eax, eax
  0084d	5f		 pop	 edi
  0084e	33 cd		 xor	 ecx, ebp
  00850	5e		 pop	 esi
  00851	e8 00 00 00 00	 call	 @__security_check_cookie@4
  00856	8b e5		 mov	 esp, ebp
  00858	5d		 pop	 ebp
  00859	c2 84 00	 ret	 132			; 00000084H
?SimpleTriIntersect@CObject3D@@QAEHUD3DXMATRIX@@PAUGMOBJECT@@0@Z ENDP ; CObject3D::SimpleTriIntersect
_TEXT	ENDS
; Function compile flags: /Ogtp
; File C:\IAGOS\server\v18\Source\Source\_Common\object3d.cpp
; File C:\IAGOS\server\v18\Source\Source\DX_SDK\d3dx9math.inl
; File C:\IAGOS\server\v18\Source\Source\_Common\object3d.cpp
; File C:\IAGOS\server\v18\Source\Source\DX_SDK\d3dx9math.inl
; File C:\IAGOS\server\v18\Source\Source\_Common\object3d.cpp
; File C:\IAGOS\server\v18\Source\Source\DX_SDK\d3dx9math.inl
; File C:\IAGOS\server\v18\Source\Source\_Common\object3d.cpp
; File C:\IAGOS\server\v18\Source\Source\DX_SDK\d3dx9math.inl
; File C:\IAGOS\server\v18\Source\Source\_Common\object3d.cpp
; File C:\IAGOS\server\v18\Source\Source\DX_SDK\d3dx9math.inl
; File C:\IAGOS\server\v18\Source\Source\_Common\object3d.cpp
;	COMDAT ?IntersectRayTri@CObject3D@@QAEPAUD3DXVECTOR3@@ABU2@0ABUD3DXMATRIX@@PAU2@PAMH@Z
_TEXT	SEGMENT
_pvIntersect$1$ = -288					; size = 4
_this$GSCopy$1$ = -284					; size = 4
tv762 = -280						; size = 4
_pPhysique$1$ = -276					; size = 4
tv755 = -272						; size = 4
_mWorld$GSCopy$1$ = -268				; size = 4
_pBone$1$ = -264					; size = 4
_pIB$1$ = -260						; size = 4
_pVB$1$ = -260						; size = 4
_vRayOrig$GSCopy$1$ = -256				; size = 4
_vRayDir$GSCopy$1$ = -252				; size = 4
_bFlag$1$ = -248					; size = 4
_nMaxObj$1$ = -244					; size = 4
tv751 = -240						; size = 4
_fDist$ = -236						; size = 4
_pIIB$1$ = -232						; size = 4
_pVB$1$ = -228						; size = 4
_fMinDist$1$ = -224					; size = 4
$T1 = -220						; size = 64
$T2 = -220						; size = 64
_mInv$ = -156						; size = 64
_mTM$ = -92						; size = 64
_vInvRayOrig$ = -28					; size = 12
_vInvRayDir$ = -16					; size = 12
__$ArrayPad$ = -4					; size = 4
_vRayOrig$ = 8						; size = 4
_vRayDir$ = 12						; size = 4
_mWorld$ = 16						; size = 4
_pvIntersect$ = 20					; size = 4
_pfDist$ = 24						; size = 4
_bColl$ = 28						; size = 4
?IntersectRayTri@CObject3D@@QAEPAUD3DXVECTOR3@@ABU2@0ABUD3DXMATRIX@@PAU2@PAMH@Z PROC ; CObject3D::IntersectRayTri, COMDAT
; _this$ = ecx

; 2329 : {

  00000	55		 push	 ebp
  00001	8b ec		 mov	 ebp, esp
  00003	81 ec 20 01 00
	00		 sub	 esp, 288		; 00000120H
  00009	a1 00 00 00 00	 mov	 eax, DWORD PTR ___security_cookie
  0000e	33 c5		 xor	 eax, ebp
  00010	89 45 fc	 mov	 DWORD PTR __$ArrayPad$[ebp], eax
  00013	8b 45 14	 mov	 eax, DWORD PTR _pvIntersect$[ebp]

; 2330 : 	D3DXVECTOR3	*v1, *v2, *v3, *v4;
; 2331 : 	D3DXVECTOR3	vInvRayOrig, vInvRayDir, vw1, vw2;
; 2332 : 	D3DXMATRIX	mTM, mInv, *pBone, *pBoneInv;
; 2333 : 	int		nMax;
; 2334 : 	int		nMaxObj = m_Group[0].m_nMaxObject;
; 2335 : 	GMOBJECT* pObj = &m_Group[0].m_pObject[0];
; 2336 : 	WORD		*pIB, *pIIB;
; 2337 : 	int		i, j, nVIdx;
; 2338 : 	FLOAT	fDist, fMinDist = 65535.0f;

  00016	f3 0f 10 05 00
	00 00 00	 movss	 xmm0, DWORD PTR __real@477fff00
  0001e	89 85 e0 fe ff
	ff		 mov	 DWORD PTR _pvIntersect$1$[ebp], eax
  00024	8b 45 08	 mov	 eax, DWORD PTR _vRayOrig$[ebp]
  00027	89 85 00 ff ff
	ff		 mov	 DWORD PTR _vRayOrig$GSCopy$1$[ebp], eax
  0002d	8b 45 0c	 mov	 eax, DWORD PTR _vRayDir$[ebp]
  00030	53		 push	 ebx
  00031	8b d9		 mov	 ebx, ecx
  00033	89 85 04 ff ff
	ff		 mov	 DWORD PTR _vRayDir$GSCopy$1$[ebp], eax
  00039	8b 45 10	 mov	 eax, DWORD PTR _mWorld$[ebp]
  0003c	89 85 f4 fe ff
	ff		 mov	 DWORD PTR _mWorld$GSCopy$1$[ebp], eax

; 2339 : 	BOOL	bRet, bFlag = FALSE;

  00042	33 c0		 xor	 eax, eax
  00044	89 9d e4 fe ff
	ff		 mov	 DWORD PTR _this$GSCopy$1$[ebp], ebx
  0004a	8b 53 04	 mov	 edx, DWORD PTR [ebx+4]
  0004d	8b 4b 08	 mov	 ecx, DWORD PTR [ebx+8]
  00050	89 95 0c ff ff
	ff		 mov	 DWORD PTR _nMaxObj$1$[ebp], edx
  00056	f3 0f 11 85 20
	ff ff ff	 movss	 DWORD PTR _fMinDist$1$[ebp], xmm0
  0005e	89 85 08 ff ff
	ff		 mov	 DWORD PTR _bFlag$1$[ebp], eax

; 2340 : 
; 2341 : 	if( bColl )		// 충돌메시로 검사하게 하는 옵션

  00064	39 45 1c	 cmp	 DWORD PTR _bColl$[ebp], eax
  00067	74 1b		 je	 SHORT $LN15@IntersectR

; 2342 : 	{
; 2343 : 		if( m_CollObject.m_Type != GMT_ERROR )	// 충돌메시가 없으면 걍 함.

  00069	83 bb 00 01 00
	00 ff		 cmp	 DWORD PTR [ebx+256], -1
  00070	74 12		 je	 SHORT $LN15@IntersectR

; 2344 : 		{
; 2345 : 			pObj = &m_CollObject;

  00072	8d 8b 00 01 00
	00		 lea	 ecx, DWORD PTR [ebx+256]

; 2346 : 			nMaxObj = 1;	// 충돌메시는 무조건 1개다.

  00078	c7 85 0c ff ff
	ff 01 00 00 00	 mov	 DWORD PTR _nMaxObj$1$[ebp], 1
  00082	eb 08		 jmp	 SHORT $LN55@IntersectR
$LN15@IntersectR:

; 2347 : 		}
; 2348 : 	}
; 2349 : 
; 2350 : 	for( i = 0; i < nMaxObj; i++ )

  00084	85 d2		 test	 edx, edx
  00086	0f 8e 0c 04 00
	00		 jle	 $LN25@IntersectR
$LN55@IntersectR:
  0008c	56		 push	 esi
  0008d	57		 push	 edi
  0008e	33 ff		 xor	 edi, edi
  00090	8d b1 a8 0a 00
	00		 lea	 esi, DWORD PTR [ecx+2728]
  00096	89 bd f0 fe ff
	ff		 mov	 DWORD PTR tv755[ebp], edi
  0009c	89 b5 10 ff ff
	ff		 mov	 DWORD PTR tv751[ebp], esi
$LL4@IntersectR:

; 2351 : 	{
; 2352 : 		if( pObj->m_Type == GMT_SKIN )	

  000a2	83 be 58 f5 ff
	ff 01		 cmp	 DWORD PTR [esi-2728], 1
  000a9	0f 85 24 02 00
	00		 jne	 $LN16@IntersectR

; 2353 : 		{
; 2354 : 			SKINVERTEX *pVB;
; 2355 : 			mTM = /*_mUpdate[i] * */mWorld;

  000af	8b 85 f4 fe ff
	ff		 mov	 eax, DWORD PTR _mWorld$GSCopy$1$[ebp]
  000b5	0f 10 00	 movups	 xmm0, XMMWORD PTR [eax]
  000b8	0f 11 45 a4	 movups	 XMMWORD PTR _mTM$[ebp], xmm0
  000bc	0f 10 40 10	 movups	 xmm0, XMMWORD PTR [eax+16]
  000c0	0f 11 45 b4	 movups	 XMMWORD PTR _mTM$[ebp+16], xmm0
  000c4	0f 10 40 20	 movups	 xmm0, XMMWORD PTR [eax+32]
  000c8	0f 11 45 c4	 movups	 XMMWORD PTR _mTM$[ebp+32], xmm0
  000cc	0f 10 40 30	 movups	 xmm0, XMMWORD PTR [eax+48]

; 2356 : 			D3DXMatrixInverse( &mInv, NULL, &mTM );

  000d0	8d 45 a4	 lea	 eax, DWORD PTR _mTM$[ebp]
  000d3	50		 push	 eax
  000d4	6a 00		 push	 0
  000d6	8d 85 64 ff ff
	ff		 lea	 eax, DWORD PTR _mInv$[ebp]
  000dc	50		 push	 eax
  000dd	0f 11 45 d4	 movups	 XMMWORD PTR _mTM$[ebp+48], xmm0
  000e1	e8 00 00 00 00	 call	 _D3DXMatrixInverse@12

; 2357 : 			D3DXVec3TransformCoord( &vInvRayOrig, &vRayOrig, &mInv );

  000e6	8d 85 64 ff ff
	ff		 lea	 eax, DWORD PTR _mInv$[ebp]
  000ec	50		 push	 eax
  000ed	ff b5 00 ff ff
	ff		 push	 DWORD PTR _vRayOrig$GSCopy$1$[ebp]
  000f3	8d 45 e4	 lea	 eax, DWORD PTR _vInvRayOrig$[ebp]
  000f6	50		 push	 eax
  000f7	e8 00 00 00 00	 call	 _D3DXVec3TransformCoord@12

; 2358 : 			
; 2359 : 			mInv._41 = 0;	mInv._42 = 0;	mInv._43 = 0;	// vRayDir은 방향벡터만 있기땀시 위치는 없애준다.
; 2360 : 			D3DXVec3TransformCoord( &vInvRayDir, &vRayDir, &mInv );

  000fc	8d 85 64 ff ff
	ff		 lea	 eax, DWORD PTR _mInv$[ebp]
  00102	c7 45 94 00 00
	00 00		 mov	 DWORD PTR _mInv$[ebp+48], 0
  00109	50		 push	 eax
  0010a	ff b5 04 ff ff
	ff		 push	 DWORD PTR _vRayDir$GSCopy$1$[ebp]
  00110	8d 45 f0	 lea	 eax, DWORD PTR _vInvRayDir$[ebp]
  00113	c7 45 98 00 00
	00 00		 mov	 DWORD PTR _mInv$[ebp+52], 0
  0011a	50		 push	 eax
  0011b	c7 45 9c 00 00
	00 00		 mov	 DWORD PTR _mInv$[ebp+56], 0
  00122	e8 00 00 00 00	 call	 _D3DXVec3TransformCoord@12

; 2361 : 			int *pPhysique = pObj->m_pPhysiqueVertex;

  00127	8b 86 8c f6 ff
	ff		 mov	 eax, DWORD PTR [esi-2420]

; 2362 : 			D3DXVECTOR3	*pVList = pObj->m_pVertexList;
; 2363 : 			pIB	= pObj->m_pIB;
; 2364 : 			pIIB = pObj->m_pIIB;
; 2365 : 			pVB = (SKINVERTEX *)pObj->m_pVB;
; 2366 : 			if( m_pmExternBone )	

  0012d	8b 4b 28	 mov	 ecx, DWORD PTR [ebx+40]
  00130	8b 7e fc	 mov	 edi, DWORD PTR [esi-4]
  00133	8b 16		 mov	 edx, DWORD PTR [esi]
  00135	89 85 ec fe ff
	ff		 mov	 DWORD PTR _pPhysique$1$[ebp], eax
  0013b	8b 46 f8	 mov	 eax, DWORD PTR [esi-8]
  0013e	89 bd fc fe ff
	ff		 mov	 DWORD PTR _pIB$1$[ebp], edi
  00144	89 95 18 ff ff
	ff		 mov	 DWORD PTR _pIIB$1$[ebp], edx
  0014a	89 85 1c ff ff
	ff		 mov	 DWORD PTR _pVB$1$[ebp], eax
  00150	85 c9		 test	 ecx, ecx
  00152	74 08		 je	 SHORT $LN18@IntersectR

; 2367 : 			{
; 2368 : 				pBone = m_pmExternBone;		// 외부지정 뼈대가 있다면 그걸 쓰고

  00154	89 8d f8 fe ff
	ff		 mov	 DWORD PTR _pBone$1$[ebp], ecx

; 2369 : 				pBoneInv = m_pmExternBoneInv;
; 2370 : 			}

  0015a	eb 09		 jmp	 SHORT $LN19@IntersectR
$LN18@IntersectR:

; 2371 : 			else					
; 2372 : 			{
; 2373 : 				pBone = m_pBaseBone;		// 없다면 디폴트를 쓴다.

  0015c	8b 43 34	 mov	 eax, DWORD PTR [ebx+52]
  0015f	89 85 f8 fe ff
	ff		 mov	 DWORD PTR _pBone$1$[ebp], eax
$LN19@IntersectR:

; 2374 : 				pBoneInv = m_pBaseBoneInv;
; 2375 : 			}
; 2376 : 			nMax = pObj->m_nMaxVB;

  00165	8b 76 04	 mov	 esi, DWORD PTR [esi+4]
  00168	85 c9		 test	 ecx, ecx
  0016a	b8 2c 00 00 00	 mov	 eax, 44			; 0000002cH
  0016f	b9 38 00 00 00	 mov	 ecx, 56			; 00000038H
  00174	0f 44 c1	 cmove	 eax, ecx
  00177	8b 04 18	 mov	 eax, DWORD PTR [eax+ebx]
  0017a	89 85 e8 fe ff
	ff		 mov	 DWORD PTR tv762[ebp], eax

; 2377 : 
; 2378 : 			if( nMax > sizeof(_vPool) / sizeof(D3DXVECTOR3) )

  00180	81 fe 58 12 00
	00		 cmp	 esi, 4696		; 00001258H
  00186	76 14		 jbe	 SHORT $LN20@IntersectR

; 2379 : 				Error( "IntersectRayTri : 버텍스버퍼의 개수가 너무 크다 %d", nMax );

  00188	56		 push	 esi
  00189	68 00 00 00 00	 push	 OFFSET ??_C@_0DD@CLBMDIFP@IntersectRayTri?5?3?5?$LJ?v?E?X?$LN?$LK?$LJ?v?F?$NL?$MA?G?5@
  0018e	e8 00 00 00 00	 call	 ?Error@@YAPBDPBDZZ	; Error
  00193	8b 95 18 ff ff
	ff		 mov	 edx, DWORD PTR _pIIB$1$[ebp]
  00199	83 c4 08	 add	 esp, 8
$LN20@IntersectR:

; 2380 : 
; 2381 : 			int	matIdx;
; 2382 : 			v4 = _vPool;

  0019c	bb 00 00 00 00	 mov	 ebx, OFFSET ?_vPool@@3PAUD3DXVECTOR3@@A

; 2383 : 			for( j = 0; j < nMax; j ++ )

  001a1	85 f6		 test	 esi, esi
  001a3	0f 8e 93 00 00
	00		 jle	 $LN6@IntersectR
  001a9	8b bd f8 fe ff
	ff		 mov	 edi, DWORD PTR _pBone$1$[ebp]
  001af	90		 npad	 1
$LL7@IntersectR:

; 2384 : 			{
; 2385 : 				nVIdx = *pIIB++;

  001b0	0f b7 02	 movzx	 eax, WORD PTR [edx]
  001b3	83 c2 02	 add	 edx, 2

; 2388 : 				mTM = pBoneInv[ matIdx ] * pBone[ matIdx ];

  001b6	8b 8d ec fe ff
	ff		 mov	 ecx, DWORD PTR _pPhysique$1$[ebp]
  001bc	89 95 18 ff ff
	ff		 mov	 DWORD PTR _pIIB$1$[ebp], edx
  001c2	8b 0c 81	 mov	 ecx, DWORD PTR [ecx+eax*4]
  001c5	c1 e1 06	 shl	 ecx, 6
  001c8	8d 04 39	 lea	 eax, DWORD PTR [ecx+edi]
; File C:\IAGOS\server\v18\Source\Source\DX_SDK\d3dx9math.inl

; 860  :     D3DXMatrixMultiply(&matT, this, &mat);

  001cb	50		 push	 eax
; File C:\IAGOS\server\v18\Source\Source\_Common\object3d.cpp

; 2388 : 				mTM = pBoneInv[ matIdx ] * pBone[ matIdx ];

  001cc	8b 85 e8 fe ff
	ff		 mov	 eax, DWORD PTR tv762[ebp]
  001d2	03 c1		 add	 eax, ecx
; File C:\IAGOS\server\v18\Source\Source\DX_SDK\d3dx9math.inl

; 860  :     D3DXMatrixMultiply(&matT, this, &mat);

  001d4	50		 push	 eax
  001d5	8d 85 24 ff ff
	ff		 lea	 eax, DWORD PTR $T1[ebp]
  001db	50		 push	 eax
  001dc	e8 00 00 00 00	 call	 _D3DXMatrixMultiply@12
; File C:\IAGOS\server\v18\Source\Source\_Common\object3d.cpp

; 2388 : 				mTM = pBoneInv[ matIdx ] * pBone[ matIdx ];

  001e1	0f 10 85 24 ff
	ff ff		 movups	 xmm0, XMMWORD PTR $T1[ebp]

; 2389 : 				D3DXVec3TransformCoord( v4, &pVB[j].position, &mTM );

  001e8	8d 45 a4	 lea	 eax, DWORD PTR _mTM$[ebp]
  001eb	50		 push	 eax
  001ec	ff b5 1c ff ff
	ff		 push	 DWORD PTR _pVB$1$[ebp]
  001f2	0f 11 45 a4	 movups	 XMMWORD PTR _mTM$[ebp], xmm0
  001f6	53		 push	 ebx
  001f7	0f 10 85 34 ff
	ff ff		 movups	 xmm0, XMMWORD PTR $T1[ebp+16]
  001fe	0f 11 45 b4	 movups	 XMMWORD PTR _mTM$[ebp+16], xmm0
  00202	0f 10 85 44 ff
	ff ff		 movups	 xmm0, XMMWORD PTR $T1[ebp+32]
  00209	0f 11 45 c4	 movups	 XMMWORD PTR _mTM$[ebp+32], xmm0
  0020d	0f 10 85 54 ff
	ff ff		 movups	 xmm0, XMMWORD PTR $T1[ebp+48]
  00214	0f 11 45 d4	 movups	 XMMWORD PTR _mTM$[ebp+48], xmm0
  00218	e8 00 00 00 00	 call	 _D3DXVec3TransformCoord@12
  0021d	83 85 1c ff ff
	ff 2c		 add	 DWORD PTR _pVB$1$[ebp], 44 ; 0000002cH

; 2390 : 				v4 ++;

  00224	83 c3 0c	 add	 ebx, 12			; 0000000cH
  00227	8b 95 18 ff ff
	ff		 mov	 edx, DWORD PTR _pIIB$1$[ebp]
  0022d	83 ee 01	 sub	 esi, 1
  00230	0f 85 7a ff ff
	ff		 jne	 $LL7@IntersectR
  00236	8b bd fc fe ff
	ff		 mov	 edi, DWORD PTR _pIB$1$[ebp]
$LN6@IntersectR:

; 2391 : 			}
; 2392 : 			nMax = pObj->m_nMaxFaceList;

  0023c	8b b5 10 ff ff
	ff		 mov	 esi, DWORD PTR tv751[ebp]
  00242	8b b6 f0 f5 ff
	ff		 mov	 esi, DWORD PTR [esi-2576]

; 2393 : 			v4 = _vPool;	// pVB
; 2394 : 			for( j = 0; j < nMax; j++ )

  00248	85 f6		 test	 esi, esi
  0024a	0f 8e a9 01 00
	00		 jle	 $LN12@IntersectR
$LL10@IntersectR:

; 2395 : 			{
; 2396 : 				v1 = &v4[ *pIB++ ];

  00250	0f b7 07	 movzx	 eax, WORD PTR [edi]

; 2397 : 				v2 = &v4[ *pIB++ ];
; 2398 : 				v3 = &v4[ *pIB++ ];
; 2399 : 
; 2400 : 				bRet = IsTouchRayTri( v1, v2, v3, &vInvRayOrig, &vInvRayDir, &fDist );

  00253	8d 9d 14 ff ff
	ff		 lea	 ebx, DWORD PTR _fDist$[ebp]
  00259	53		 push	 ebx
  0025a	8d 5d f0	 lea	 ebx, DWORD PTR _vInvRayDir$[ebp]
  0025d	53		 push	 ebx
  0025e	8d 04 40	 lea	 eax, DWORD PTR [eax+eax*2]
  00261	8d 14 85 00 00
	00 00		 lea	 edx, DWORD PTR ?_vPool@@3PAUD3DXVECTOR3@@A[eax*4]
  00268	0f b7 47 02	 movzx	 eax, WORD PTR [edi+2]
  0026c	8d 5d e4	 lea	 ebx, DWORD PTR _vInvRayOrig$[ebp]
  0026f	53		 push	 ebx
  00270	8d 7f 06	 lea	 edi, DWORD PTR [edi+6]
  00273	8d 04 40	 lea	 eax, DWORD PTR [eax+eax*2]
  00276	8d 0c 85 00 00
	00 00		 lea	 ecx, DWORD PTR ?_vPool@@3PAUD3DXVECTOR3@@A[eax*4]
  0027d	0f b7 47 fe	 movzx	 eax, WORD PTR [edi-2]
  00281	8d 04 40	 lea	 eax, DWORD PTR [eax+eax*2]
  00284	8d 04 85 00 00
	00 00		 lea	 eax, DWORD PTR ?_vPool@@3PAUD3DXVECTOR3@@A[eax*4]
  0028b	50		 push	 eax
  0028c	51		 push	 ecx
  0028d	52		 push	 edx
  0028e	e8 00 00 00 00	 call	 ?IsTouchRayTri@@YAHPBUD3DXVECTOR3@@0000PAM@Z ; IsTouchRayTri
  00293	83 c4 18	 add	 esp, 24			; 00000018H

; 2401 : 				if( bRet && fDist >= 0.0f )	// 반대방향 면(-)은 검사하지 않음.

  00296	85 c0		 test	 eax, eax
  00298	74 2f		 je	 SHORT $LN8@IntersectR
  0029a	f3 0f 10 85 14
	ff ff ff	 movss	 xmm0, DWORD PTR _fDist$[ebp]
  002a2	0f 57 c9	 xorps	 xmm1, xmm1
  002a5	0f 2f c1	 comiss	 xmm0, xmm1
  002a8	72 1f		 jb	 SHORT $LN8@IntersectR

; 2402 : 				{
; 2403 : 					if( fDist < fMinDist )	// 레이원점으로부터 가장 가까운 거리를 찾음.

  002aa	f3 0f 10 8d 20
	ff ff ff	 movss	 xmm1, DWORD PTR _fMinDist$1$[ebp]
  002b2	0f 2f c8	 comiss	 xmm1, xmm0
  002b5	76 12		 jbe	 SHORT $LN8@IntersectR

; 2404 : 					{
; 2405 : 						fMinDist = fDist;

  002b7	f3 0f 11 85 20
	ff ff ff	 movss	 DWORD PTR _fMinDist$1$[ebp], xmm0

; 2406 : 						bFlag = TRUE;

  002bf	c7 85 08 ff ff
	ff 01 00 00 00	 mov	 DWORD PTR _bFlag$1$[ebp], 1
$LN8@IntersectR:

; 2393 : 			v4 = _vPool;	// pVB
; 2394 : 			for( j = 0; j < nMax; j++ )

  002c9	83 ee 01	 sub	 esi, 1
  002cc	75 82		 jne	 SHORT $LL10@IntersectR

; 2407 : 					#ifdef __CLIENT
; 2408 : 						s_vLastPickTri[0] = *v1;	s_vLastPickTri[1] = *v2;	s_vLastPickTri[2] = *v3;
; 2409 : 					#endif
; 2410 : 					}
; 2411 : 				}
; 2412 : 			}
; 2413 : 		} else

  002ce	e9 26 01 00 00	 jmp	 $LN12@IntersectR
$LN16@IntersectR:
; File C:\IAGOS\server\v18\Source\Source\DX_SDK\d3dx9math.inl

; 860  :     D3DXMatrixMultiply(&matT, this, &mat);

  002d3	ff b5 f4 fe ff
	ff		 push	 DWORD PTR _mWorld$GSCopy$1$[ebp]
; File C:\IAGOS\server\v18\Source\Source\_Common\object3d.cpp

; 2416 : 			mTM = m_Group[0]._mUpdate[i] * mWorld;

  002d9	8b 43 0c	 mov	 eax, DWORD PTR [ebx+12]
  002dc	03 c7		 add	 eax, edi
; File C:\IAGOS\server\v18\Source\Source\DX_SDK\d3dx9math.inl

; 860  :     D3DXMatrixMultiply(&matT, this, &mat);

  002de	50		 push	 eax
  002df	8d 85 24 ff ff
	ff		 lea	 eax, DWORD PTR $T2[ebp]
  002e5	50		 push	 eax
  002e6	e8 00 00 00 00	 call	 _D3DXMatrixMultiply@12
; File C:\IAGOS\server\v18\Source\Source\_Common\object3d.cpp

; 2416 : 			mTM = m_Group[0]._mUpdate[i] * mWorld;

  002eb	0f 10 85 24 ff
	ff ff		 movups	 xmm0, XMMWORD PTR $T2[ebp]

; 2417 : 			D3DXMatrixInverse( &mInv, NULL, &mTM );

  002f2	8d 45 a4	 lea	 eax, DWORD PTR _mTM$[ebp]
  002f5	50		 push	 eax
  002f6	0f 11 45 a4	 movups	 XMMWORD PTR _mTM$[ebp], xmm0
  002fa	6a 00		 push	 0
  002fc	0f 10 85 34 ff
	ff ff		 movups	 xmm0, XMMWORD PTR $T2[ebp+16]
  00303	8d 85 64 ff ff
	ff		 lea	 eax, DWORD PTR _mInv$[ebp]
  00309	50		 push	 eax
  0030a	0f 11 45 b4	 movups	 XMMWORD PTR _mTM$[ebp+16], xmm0
  0030e	0f 10 85 44 ff
	ff ff		 movups	 xmm0, XMMWORD PTR $T2[ebp+32]
  00315	0f 11 45 c4	 movups	 XMMWORD PTR _mTM$[ebp+32], xmm0
  00319	0f 10 85 54 ff
	ff ff		 movups	 xmm0, XMMWORD PTR $T2[ebp+48]
  00320	0f 11 45 d4	 movups	 XMMWORD PTR _mTM$[ebp+48], xmm0
  00324	e8 00 00 00 00	 call	 _D3DXMatrixInverse@12

; 2418 : 			D3DXVec3TransformCoord( &vInvRayOrig, &vRayOrig, &mInv );

  00329	8d 85 64 ff ff
	ff		 lea	 eax, DWORD PTR _mInv$[ebp]
  0032f	50		 push	 eax
  00330	ff b5 00 ff ff
	ff		 push	 DWORD PTR _vRayOrig$GSCopy$1$[ebp]
  00336	8d 45 e4	 lea	 eax, DWORD PTR _vInvRayOrig$[ebp]
  00339	50		 push	 eax
  0033a	e8 00 00 00 00	 call	 _D3DXVec3TransformCoord@12

; 2419 : 			
; 2420 : 			mInv._41 = 0;	mInv._42 = 0;	mInv._43 = 0;	// vRayDir은 방향벡터만 있기땀시 위치는 없애준다.
; 2421 : 			D3DXVec3TransformCoord( &vInvRayDir, &vRayDir, &mInv );

  0033f	8d 85 64 ff ff
	ff		 lea	 eax, DWORD PTR _mInv$[ebp]
  00345	c7 45 94 00 00
	00 00		 mov	 DWORD PTR _mInv$[ebp+48], 0
  0034c	50		 push	 eax
  0034d	ff b5 04 ff ff
	ff		 push	 DWORD PTR _vRayDir$GSCopy$1$[ebp]
  00353	8d 45 f0	 lea	 eax, DWORD PTR _vInvRayDir$[ebp]
  00356	c7 45 98 00 00
	00 00		 mov	 DWORD PTR _mInv$[ebp+52], 0
  0035d	50		 push	 eax
  0035e	c7 45 9c 00 00
	00 00		 mov	 DWORD PTR _mInv$[ebp+56], 0
  00365	e8 00 00 00 00	 call	 _D3DXVec3TransformCoord@12

; 2422 : 			nMax = pObj->m_nMaxFaceList;

  0036a	8b be f0 f5 ff
	ff		 mov	 edi, DWORD PTR [esi-2576]

; 2423 : 			pVB	= (NORMALVERTEX*)(pObj->m_pVB);

  00370	8b 5e f8	 mov	 ebx, DWORD PTR [esi-8]

; 2424 : 			pIB	= pObj->m_pIB;

  00373	8b 76 fc	 mov	 esi, DWORD PTR [esi-4]
  00376	89 9d fc fe ff
	ff		 mov	 DWORD PTR _pVB$1$[ebp], ebx

; 2425 : 			for( j = 0; j < nMax; j++ )

  0037c	85 ff		 test	 edi, edi
  0037e	0f 8e 75 00 00
	00		 jle	 $LN12@IntersectR
$LL13@IntersectR:

; 2426 : 			{
; 2427 : 				v1 = &pVB[ *pIB++ ].position;

  00384	0f b7 16	 movzx	 edx, WORD PTR [esi]

; 2428 : 				v2 = &pVB[ *pIB++ ].position;
; 2429 : 				v3 = &pVB[ *pIB++ ].position;

  00387	8d 76 06	 lea	 esi, DWORD PTR [esi+6]
  0038a	0f b7 4e fc	 movzx	 ecx, WORD PTR [esi-4]
  0038e	0f b7 46 fe	 movzx	 eax, WORD PTR [esi-2]
  00392	c1 e2 05	 shl	 edx, 5
  00395	03 d3		 add	 edx, ebx
  00397	c1 e1 05	 shl	 ecx, 5
  0039a	03 cb		 add	 ecx, ebx
  0039c	c1 e0 05	 shl	 eax, 5
  0039f	03 c3		 add	 eax, ebx

; 2430 : 
; 2431 : 				bRet = IsTouchRayTri( v1, v2, v3, &vInvRayOrig, &vInvRayDir, &fDist );

  003a1	8d 9d 14 ff ff
	ff		 lea	 ebx, DWORD PTR _fDist$[ebp]
  003a7	53		 push	 ebx
  003a8	8d 5d f0	 lea	 ebx, DWORD PTR _vInvRayDir$[ebp]
  003ab	53		 push	 ebx
  003ac	8d 5d e4	 lea	 ebx, DWORD PTR _vInvRayOrig$[ebp]
  003af	53		 push	 ebx
  003b0	50		 push	 eax
  003b1	51		 push	 ecx
  003b2	52		 push	 edx
  003b3	e8 00 00 00 00	 call	 ?IsTouchRayTri@@YAHPBUD3DXVECTOR3@@0000PAM@Z ; IsTouchRayTri

; 2432 : 
; 2433 : 				if( bRet && fDist >= 0.0f )	// 반대방향 면(-)은 검사하지 않음.

  003b8	8b 9d fc fe ff
	ff		 mov	 ebx, DWORD PTR _pVB$1$[ebp]
  003be	83 c4 18	 add	 esp, 24			; 00000018H
  003c1	85 c0		 test	 eax, eax
  003c3	74 2f		 je	 SHORT $LN11@IntersectR
  003c5	f3 0f 10 85 14
	ff ff ff	 movss	 xmm0, DWORD PTR _fDist$[ebp]
  003cd	0f 57 c9	 xorps	 xmm1, xmm1
  003d0	0f 2f c1	 comiss	 xmm0, xmm1
  003d3	72 1f		 jb	 SHORT $LN11@IntersectR

; 2434 : 				{
; 2435 : 					if( fDist < fMinDist )	// 레이원점으로부터 가장 가까운 거리를 찾음.

  003d5	f3 0f 10 8d 20
	ff ff ff	 movss	 xmm1, DWORD PTR _fMinDist$1$[ebp]
  003dd	0f 2f c8	 comiss	 xmm1, xmm0
  003e0	76 12		 jbe	 SHORT $LN11@IntersectR

; 2436 : 					{
; 2437 : 						fMinDist = fDist;

  003e2	f3 0f 11 85 20
	ff ff ff	 movss	 DWORD PTR _fMinDist$1$[ebp], xmm0

; 2438 : 						bFlag = TRUE;

  003ea	c7 85 08 ff ff
	ff 01 00 00 00	 mov	 DWORD PTR _bFlag$1$[ebp], 1
$LN11@IntersectR:

; 2425 : 			for( j = 0; j < nMax; j++ )

  003f4	83 ef 01	 sub	 edi, 1
  003f7	75 8b		 jne	 SHORT $LL13@IntersectR
$LN12@IntersectR:

; 2439 : 					#ifdef __CLIENT
; 2440 : 						D3DXVec3TransformCoord( &s_vLastPickTri[0], v1, &m_Group[0]._mUpdate[i] );
; 2441 : 						D3DXVec3TransformCoord( &s_vLastPickTri[1], v2, &m_Group[0]._mUpdate[i] );
; 2442 : 						D3DXVec3TransformCoord( &s_vLastPickTri[2], v3, &m_Group[0]._mUpdate[i] );
; 2443 : 					#endif	// __CLIENT
; 2444 : 					}
; 2445 : 				}
; 2446 : 			}
; 2447 : 		}
; 2448 : 		pObj++;

  003f9	8b b5 10 ff ff
	ff		 mov	 esi, DWORD PTR tv751[ebp]
  003ff	8b bd f0 fe ff
	ff		 mov	 edi, DWORD PTR tv755[ebp]
  00405	81 c6 bc 0a 00
	00		 add	 esi, 2748		; 00000abcH
  0040b	8b 9d e4 fe ff
	ff		 mov	 ebx, DWORD PTR _this$GSCopy$1$[ebp]
  00411	83 c7 40	 add	 edi, 64			; 00000040H
  00414	83 ad 0c ff ff
	ff 01		 sub	 DWORD PTR _nMaxObj$1$[ebp], 1
  0041b	89 b5 10 ff ff
	ff		 mov	 DWORD PTR tv751[ebp], esi
  00421	89 bd f0 fe ff
	ff		 mov	 DWORD PTR tv755[ebp], edi
  00427	0f 85 75 fc ff
	ff		 jne	 $LL4@IntersectR

; 2449 : 
; 2450 : 	}
; 2451 : 	if( bFlag )	// 한번이라도 교차된 삼각형을 찾았다면.

  0042d	83 bd 08 ff ff
	ff 00		 cmp	 DWORD PTR _bFlag$1$[ebp], 0
  00434	5f		 pop	 edi
  00435	5e		 pop	 esi
  00436	74 60		 je	 SHORT $LN25@IntersectR
; File C:\IAGOS\server\v18\Source\Source\DX_SDK\d3dx9math.inl

; 403  :     return D3DXVECTOR3(f * v.x, f * v.y, f * v.z);

  00438	8b 8d 04 ff ff
	ff		 mov	 ecx, DWORD PTR _vRayDir$GSCopy$1$[ebp]
  0043e	f3 0f 10 95 20
	ff ff ff	 movss	 xmm2, DWORD PTR _fMinDist$1$[ebp]

; 377  :     return D3DXVECTOR3(x + v.x, y + v.y, z + v.z);

  00446	8b 85 00 ff ff
	ff		 mov	 eax, DWORD PTR _vRayOrig$GSCopy$1$[ebp]

; 403  :     return D3DXVECTOR3(f * v.x, f * v.y, f * v.z);

  0044c	0f 28 ca	 movaps	 xmm1, xmm2
  0044f	0f 28 c2	 movaps	 xmm0, xmm2
  00452	f3 0f 59 49 04	 mulss	 xmm1, DWORD PTR [ecx+4]
  00457	5b		 pop	 ebx
  00458	f3 0f 59 41 08	 mulss	 xmm0, DWORD PTR [ecx+8]
  0045d	f3 0f 59 11	 mulss	 xmm2, DWORD PTR [ecx]

; 377  :     return D3DXVECTOR3(x + v.x, y + v.y, z + v.z);

  00461	f3 0f 58 48 04	 addss	 xmm1, DWORD PTR [eax+4]
  00466	f3 0f 58 40 08	 addss	 xmm0, DWORD PTR [eax+8]
  0046b	f3 0f 58 10	 addss	 xmm2, DWORD PTR [eax]
; File C:\IAGOS\server\v18\Source\Source\_Common\object3d.cpp

; 2453 : 		*pvIntersect = vRayOrig + fMinDist * vRayDir;		// 교차했던 가장 가까운거리로 충돌지점 계산.

  0046f	8b 85 e0 fe ff
	ff		 mov	 eax, DWORD PTR _pvIntersect$1$[ebp]
  00475	f3 0f 11 10	 movss	 DWORD PTR [eax], xmm2
  00479	f3 0f 11 48 04	 movss	 DWORD PTR [eax+4], xmm1
  0047e	f3 0f 11 40 08	 movss	 DWORD PTR [eax+8], xmm0

; 2454 : 		return _vPool;		// 그 삼각형 좌표 리턴

  00483	b8 00 00 00 00	 mov	 eax, OFFSET ?_vPool@@3PAUD3DXVECTOR3@@A

; 2455 : 	}
; 2456 : 	
; 2457 : 	return NULL;
; 2458 : }

  00488	8b 4d fc	 mov	 ecx, DWORD PTR __$ArrayPad$[ebp]
  0048b	33 cd		 xor	 ecx, ebp
  0048d	e8 00 00 00 00	 call	 @__security_check_cookie@4
  00492	8b e5		 mov	 esp, ebp
  00494	5d		 pop	 ebp
  00495	c2 18 00	 ret	 24			; 00000018H
$LN25@IntersectR:
  00498	8b 4d fc	 mov	 ecx, DWORD PTR __$ArrayPad$[ebp]
  0049b	33 c0		 xor	 eax, eax
  0049d	33 cd		 xor	 ecx, ebp
  0049f	5b		 pop	 ebx
  004a0	e8 00 00 00 00	 call	 @__security_check_cookie@4
  004a5	8b e5		 mov	 esp, ebp
  004a7	5d		 pop	 ebp
  004a8	c2 18 00	 ret	 24			; 00000018H
?IntersectRayTri@CObject3D@@QAEPAUD3DXVECTOR3@@ABU2@0ABUD3DXMATRIX@@PAU2@PAMH@Z ENDP ; CObject3D::IntersectRayTri
_TEXT	ENDS
; Function compile flags: /Ogtp
; File C:\IAGOS\server\v18\Source\Source\_Common\object3d.cpp
; File C:\IAGOS\server\v18\Source\Source\DX_SDK\d3dx9math.inl
; File C:\IAGOS\server\v18\Source\Source\_Common\object3d.cpp
; File C:\IAGOS\server\v18\Source\Source\DX_SDK\d3dx9math.inl
; File C:\IAGOS\server\v18\Source\Source\_Common\object3d.cpp
; File C:\IAGOS\server\v18\Source\Source\DX_SDK\d3dx9math.inl
; File C:\IAGOS\server\v18\Source\Source\_Common\object3d.cpp
; File C:\IAGOS\server\v18\Source\Source\DX_SDK\d3dx9math.inl
; File C:\IAGOS\server\v18\Source\Source\_Common\object3d.cpp
; File C:\IAGOS\server\v18\Source\Source\DX_SDK\d3dx9math.inl
; File C:\IAGOS\server\v18\Source\Source\_Common\object3d.cpp
;	COMDAT ?FindTouchTriLine@CObject3D@@QAEXPAPAUD3DXVECTOR3@@ABU2@1ABUD3DXMATRIX@@PAMH@Z
_TEXT	SEGMENT
_v3$1$ = -288						; size = 4
_v2$1$ = -284						; size = 4
_pObject$1$ = -280					; size = 4
_nMaxFace$1$ = -276					; size = 4
_pVB$1$ = -272						; size = 4
_vEnd$GSCopy$1$ = -268					; size = 4
_vPos$GSCopy$1$ = -264					; size = 4
_pTriOut$GSCopy$1$ = -260				; size = 4
_this$GSCopy$1$ = -256					; size = 4
_mWorld$GSCopy$1$ = -252				; size = 4
_nMaxObj$1$ = -248					; size = 4
_i$1$ = -244						; size = 4
_pDist$GSCopy$1$ = -240					; size = 4
tv392 = -236						; size = 4
_mInv$ = -232						; size = 64
$T1 = -168						; size = 64
_mTM$ = -104						; size = 64
_vInvDir$ = -40						; size = 12
_vInvEnd$ = -28						; size = 12
_vInvPos$ = -16						; size = 12
__$ArrayPad$ = -4					; size = 4
_pTriOut$ = 8						; size = 4
_vPos$ = 12						; size = 4
_vEnd$ = 16						; size = 4
_mWorld$ = 20						; size = 4
_pDist$ = 24						; size = 4
_bCollObj$ = 28						; size = 4
?FindTouchTriLine@CObject3D@@QAEXPAPAUD3DXVECTOR3@@ABU2@1ABUD3DXMATRIX@@PAMH@Z PROC ; CObject3D::FindTouchTriLine, COMDAT
; _this$ = ecx

; 2037 : {

  00000	55		 push	 ebp
  00001	8b ec		 mov	 ebp, esp
  00003	81 ec 20 01 00
	00		 sub	 esp, 288		; 00000120H
  00009	a1 00 00 00 00	 mov	 eax, DWORD PTR ___security_cookie
  0000e	33 c5		 xor	 eax, ebp
  00010	89 45 fc	 mov	 DWORD PTR __$ArrayPad$[ebp], eax

; 2038 : 	D3DXVECTOR3	*v1, *v2, *v3;
; 2039 : 	D3DXVECTOR3	vInvPos, vInvEnd, vInvDir, vDir;
; 2040 : 	D3DXVECTOR3 vA, vB, vN, vTemp;
; 2041 : 	D3DXMATRIX	mTM, mInv;
; 2042 : 	int		nMaxFace;
; 2043 : 	GMOBJECT* pObject = &m_CollObject;
; 2044 : 	NORMALVERTEX *pVB;
; 2045 : 
; 2046 : 	int i;
; 2047 : 	LOD_GROUP *pGroup = &m_Group[0];
; 2048 : 	int		nMaxObj = 1;
; 2049 : 	if( bCollObj == FALSE )		// 충돌메시로 충돌검사 하지마라.

  00013	83 7d 1c 00	 cmp	 DWORD PTR _bCollObj$[ebp], 0
  00017	8b d1		 mov	 edx, ecx
  00019	8b 45 08	 mov	 eax, DWORD PTR _pTriOut$[ebp]
  0001c	8b 4d 14	 mov	 ecx, DWORD PTR _mWorld$[ebp]
  0001f	89 85 fc fe ff
	ff		 mov	 DWORD PTR _pTriOut$GSCopy$1$[ebp], eax
  00025	8b 45 0c	 mov	 eax, DWORD PTR _vPos$[ebp]
  00028	89 85 f8 fe ff
	ff		 mov	 DWORD PTR _vPos$GSCopy$1$[ebp], eax
  0002e	8b 45 10	 mov	 eax, DWORD PTR _vEnd$[ebp]
  00031	53		 push	 ebx
  00032	89 85 f4 fe ff
	ff		 mov	 DWORD PTR _vEnd$GSCopy$1$[ebp], eax
  00038	bb 01 00 00 00	 mov	 ebx, 1
  0003d	8b 45 18	 mov	 eax, DWORD PTR _pDist$[ebp]
  00040	56		 push	 esi
  00041	89 95 00 ff ff
	ff		 mov	 DWORD PTR _this$GSCopy$1$[ebp], edx
  00047	8d b2 00 01 00
	00		 lea	 esi, DWORD PTR [edx+256]
  0004d	89 8d 04 ff ff
	ff		 mov	 DWORD PTR _mWorld$GSCopy$1$[ebp], ecx
  00053	89 85 10 ff ff
	ff		 mov	 DWORD PTR _pDist$GSCopy$1$[ebp], eax
  00059	89 9d 08 ff ff
	ff		 mov	 DWORD PTR _nMaxObj$1$[ebp], ebx
  0005f	75 16		 jne	 SHORT $LN34@FindTouchT

; 2050 : 	{
; 2051 : 		pObject = pGroup->m_pObject;
; 2052 : 		nMaxObj = pGroup->m_nMaxObject;
; 2053 : 		if( pGroup->_mUpdate == NULL )		

  00061	83 7a 0c 00	 cmp	 DWORD PTR [edx+12], 0
  00065	8b 5a 04	 mov	 ebx, DWORD PTR [edx+4]
  00068	8b 72 08	 mov	 esi, DWORD PTR [edx+8]
  0006b	89 9d 08 ff ff
	ff		 mov	 DWORD PTR _nMaxObj$1$[ebp], ebx
  00071	0f 84 2f 02 00
	00		 je	 $LN1@FindTouchT
$LN34@FindTouchT:

; 2054 : 			return;
; 2055 : 	}
; 2056 : 	
; 2057 : 	if( pObject->m_Type == GMT_ERROR )

  00077	8b 06		 mov	 eax, DWORD PTR [esi]
  00079	57		 push	 edi
  0007a	83 f8 ff	 cmp	 eax, -1
  0007d	0f 84 16 02 00
	00		 je	 $LN28@FindTouchT

; 2058 : 	{
; 2059 : 		*pTriOut = NULL;
; 2060 : 		return;
; 2061 : 	}
; 2062 : 
; 2063 : 	WORD	*pIB;
; 2064 : 	int		j;
; 2065 : 	BOOL	bRet;
; 2066 : 
; 2067 : 	for( i = 0; i < nMaxObj; i++ )

  00083	c7 85 0c ff ff
	ff 00 00 00 00	 mov	 DWORD PTR _i$1$[ebp], 0
  0008d	85 db		 test	 ebx, ebx
  0008f	0f 8e 04 02 00
	00		 jle	 $LN28@FindTouchT
  00095	c7 85 14 ff ff
	ff 00 00 00 00	 mov	 DWORD PTR tv392[ebp], 0
  0009f	90		 npad	 1
$LL4@FindTouchT:

; 2068 : 	{
; 2069 : 		if( pObject->m_Type == GMT_SKIN )	

  000a0	83 f8 01	 cmp	 eax, 1
  000a3	75 20		 jne	 SHORT $LN11@FindTouchT

; 2070 : 			Error( "FindTouchTriLine:스킨오브젝트 발견. 에러%s", m_szFileName );

  000a5	8d 82 c0 00 00
	00		 lea	 eax, DWORD PTR [edx+192]
  000ab	50		 push	 eax
  000ac	68 00 00 00 00	 push	 OFFSET ??_C@_0CL@FLBENPCM@FindTouchTriLine?3?$LN?$LK?E?$LC?$LP?$MA?$LK?j?A?$KH?F?$KO?5?$LJ@
  000b1	e8 00 00 00 00	 call	 ?Error@@YAPBDPBDZZ	; Error
  000b6	8b 8d 04 ff ff
	ff		 mov	 ecx, DWORD PTR _mWorld$GSCopy$1$[ebp]
  000bc	83 c4 08	 add	 esp, 8
  000bf	8b 95 00 ff ff
	ff		 mov	 edx, DWORD PTR _this$GSCopy$1$[ebp]
$LN11@FindTouchT:

; 2071 : 
; 2072 : 		nMaxFace = pObject->m_nMaxFaceList;

  000c5	8b 9e 98 00 00
	00		 mov	 ebx, DWORD PTR [esi+152]

; 2073 : 		pVB = (NORMALVERTEX*)(pObject->m_pVB);

  000cb	8b 86 a0 0a 00
	00		 mov	 eax, DWORD PTR [esi+2720]

; 2074 : 		pIB	= pObject->m_pIB;

  000d1	8b be a4 0a 00
	00		 mov	 edi, DWORD PTR [esi+2724]

; 2075 : 		pObject++;

  000d7	81 c6 bc 0a 00
	00		 add	 esi, 2748		; 00000abcH

; 2076 : 		if( bCollObj == FALSE )

  000dd	83 7d 1c 00	 cmp	 DWORD PTR _bCollObj$[ebp], 0
  000e1	89 9d ec fe ff
	ff		 mov	 DWORD PTR _nMaxFace$1$[ebp], ebx
  000e7	89 85 f0 fe ff
	ff		 mov	 DWORD PTR _pVB$1$[ebp], eax
  000ed	89 b5 e8 fe ff
	ff		 mov	 DWORD PTR _pObject$1$[ebp], esi
  000f3	75 3e		 jne	 SHORT $LN12@FindTouchT

; 2077 : 			mTM = pGroup->_mUpdate[i] * mWorld;

  000f5	8b 42 0c	 mov	 eax, DWORD PTR [edx+12]
  000f8	03 85 14 ff ff
	ff		 add	 eax, DWORD PTR tv392[ebp]
; File C:\IAGOS\server\v18\Source\Source\DX_SDK\d3dx9math.inl

; 860  :     D3DXMatrixMultiply(&matT, this, &mat);

  000fe	51		 push	 ecx
  000ff	50		 push	 eax
  00100	8d 85 58 ff ff
	ff		 lea	 eax, DWORD PTR $T1[ebp]
  00106	50		 push	 eax
  00107	e8 00 00 00 00	 call	 _D3DXMatrixMultiply@12
; File C:\IAGOS\server\v18\Source\Source\_Common\object3d.cpp

; 2077 : 			mTM = pGroup->_mUpdate[i] * mWorld;

  0010c	0f 10 85 58 ff
	ff ff		 movups	 xmm0, XMMWORD PTR $T1[ebp]
  00113	0f 11 45 98	 movups	 XMMWORD PTR _mTM$[ebp], xmm0
  00117	0f 10 85 68 ff
	ff ff		 movups	 xmm0, XMMWORD PTR $T1[ebp+16]
  0011e	0f 11 45 a8	 movups	 XMMWORD PTR _mTM$[ebp+16], xmm0
  00122	0f 10 85 78 ff
	ff ff		 movups	 xmm0, XMMWORD PTR $T1[ebp+32]
  00129	0f 11 45 b8	 movups	 XMMWORD PTR _mTM$[ebp+32], xmm0
  0012d	0f 10 45 88	 movups	 xmm0, XMMWORD PTR $T1[ebp+48]
  00131	eb 1b		 jmp	 SHORT $LN46@FindTouchT
$LN12@FindTouchT:

; 2078 : 		else
; 2079 : 			mTM = mWorld;		// 충돌용 메시에는 LocalTM이 없다.

  00133	0f 10 01	 movups	 xmm0, XMMWORD PTR [ecx]
  00136	0f 11 45 98	 movups	 XMMWORD PTR _mTM$[ebp], xmm0
  0013a	0f 10 41 10	 movups	 xmm0, XMMWORD PTR [ecx+16]
  0013e	0f 11 45 a8	 movups	 XMMWORD PTR _mTM$[ebp+16], xmm0
  00142	0f 10 41 20	 movups	 xmm0, XMMWORD PTR [ecx+32]
  00146	0f 11 45 b8	 movups	 XMMWORD PTR _mTM$[ebp+32], xmm0
  0014a	0f 10 41 30	 movups	 xmm0, XMMWORD PTR [ecx+48]
$LN46@FindTouchT:

; 2080 : 
; 2081 : 		D3DXMatrixInverse( &mInv, NULL, &mTM );

  0014e	8d 45 98	 lea	 eax, DWORD PTR _mTM$[ebp]
  00151	50		 push	 eax
  00152	6a 00		 push	 0
  00154	8d 85 18 ff ff
	ff		 lea	 eax, DWORD PTR _mInv$[ebp]
  0015a	50		 push	 eax
  0015b	0f 11 45 c8	 movups	 XMMWORD PTR _mTM$[ebp+48], xmm0
  0015f	e8 00 00 00 00	 call	 _D3DXMatrixInverse@12

; 2082 : 		D3DXVec3TransformCoord( &vInvPos, &vPos, &mInv );	// Line시작점을 Geometry기준으로 변환

  00164	8d 85 18 ff ff
	ff		 lea	 eax, DWORD PTR _mInv$[ebp]
  0016a	50		 push	 eax
  0016b	ff b5 f8 fe ff
	ff		 push	 DWORD PTR _vPos$GSCopy$1$[ebp]
  00171	8d 45 f0	 lea	 eax, DWORD PTR _vInvPos$[ebp]
  00174	50		 push	 eax
  00175	e8 00 00 00 00	 call	 _D3DXVec3TransformCoord@12

; 2083 : 		D3DXVec3TransformCoord( &vInvEnd, &vEnd, &mInv );	// Line끝점을 역시 변환

  0017a	8d 85 18 ff ff
	ff		 lea	 eax, DWORD PTR _mInv$[ebp]
  00180	50		 push	 eax
  00181	ff b5 f4 fe ff
	ff		 push	 DWORD PTR _vEnd$GSCopy$1$[ebp]
  00187	8d 45 e4	 lea	 eax, DWORD PTR _vInvEnd$[ebp]
  0018a	50		 push	 eax
  0018b	e8 00 00 00 00	 call	 _D3DXVec3TransformCoord@12
; File C:\IAGOS\server\v18\Source\Source\DX_SDK\d3dx9math.inl

; 383  :     return D3DXVECTOR3(x - v.x, y - v.y, z - v.z);

  00190	f3 0f 10 45 e4	 movss	 xmm0, DWORD PTR _vInvEnd$[ebp]
; File C:\IAGOS\server\v18\Source\Source\_Common\object3d.cpp

; 2085 : 		for( j = 0; j < nMaxFace; j++ )

  00195	33 f6		 xor	 esi, esi
; File C:\IAGOS\server\v18\Source\Source\DX_SDK\d3dx9math.inl

; 383  :     return D3DXVECTOR3(x - v.x, y - v.y, z - v.z);

  00197	f3 0f 5c 45 f0	 subss	 xmm0, DWORD PTR _vInvPos$[ebp]
; File C:\IAGOS\server\v18\Source\Source\_Common\object3d.cpp

; 2084 : 		vInvDir = vInvEnd - vInvPos;

  0019c	f3 0f 11 45 d8	 movss	 DWORD PTR _vInvDir$[ebp], xmm0
; File C:\IAGOS\server\v18\Source\Source\DX_SDK\d3dx9math.inl

; 383  :     return D3DXVECTOR3(x - v.x, y - v.y, z - v.z);

  001a1	f3 0f 10 45 e8	 movss	 xmm0, DWORD PTR _vInvEnd$[ebp+4]
  001a6	f3 0f 5c 45 f4	 subss	 xmm0, DWORD PTR _vInvPos$[ebp+4]
; File C:\IAGOS\server\v18\Source\Source\_Common\object3d.cpp

; 2084 : 		vInvDir = vInvEnd - vInvPos;

  001ab	f3 0f 11 45 dc	 movss	 DWORD PTR _vInvDir$[ebp+4], xmm0
; File C:\IAGOS\server\v18\Source\Source\DX_SDK\d3dx9math.inl

; 383  :     return D3DXVECTOR3(x - v.x, y - v.y, z - v.z);

  001b0	f3 0f 10 45 ec	 movss	 xmm0, DWORD PTR _vInvEnd$[ebp+8]
  001b5	f3 0f 5c 45 f8	 subss	 xmm0, DWORD PTR _vInvPos$[ebp+8]
; File C:\IAGOS\server\v18\Source\Source\_Common\object3d.cpp

; 2084 : 		vInvDir = vInvEnd - vInvPos;

  001ba	f3 0f 11 45 e0	 movss	 DWORD PTR _vInvDir$[ebp+8], xmm0

; 2085 : 		for( j = 0; j < nMaxFace; j++ )

  001bf	85 db		 test	 ebx, ebx
  001c1	7e 74		 jle	 SHORT $LN2@FindTouchT
$LL7@FindTouchT:

; 2086 : 		{
; 2087 : 			v1 = &pVB[ *pIB++ ].position;

  001c3	0f b7 1f	 movzx	 ebx, WORD PTR [edi]

; 2088 : 			v2 = &pVB[ *pIB++ ].position;
; 2089 : 			v3 = &pVB[ *pIB++ ].position;

  001c6	8d 7f 06	 lea	 edi, DWORD PTR [edi+6]
  001c9	0f b7 47 fc	 movzx	 eax, WORD PTR [edi-4]
  001cd	0f b7 4f fe	 movzx	 ecx, WORD PTR [edi-2]
  001d1	8b 95 f0 fe ff
	ff		 mov	 edx, DWORD PTR _pVB$1$[ebp]

; 2090 : 
; 2091 : 			bRet = IsTouchRayTri( v1, v2, v3, &vInvPos, &vInvDir, pDist );

  001d7	ff b5 10 ff ff
	ff		 push	 DWORD PTR _pDist$GSCopy$1$[ebp]
  001dd	c1 e0 05	 shl	 eax, 5
  001e0	03 c2		 add	 eax, edx
  001e2	c1 e1 05	 shl	 ecx, 5
  001e5	03 ca		 add	 ecx, edx
  001e7	c1 e3 05	 shl	 ebx, 5
  001ea	03 da		 add	 ebx, edx
  001ec	89 85 e4 fe ff
	ff		 mov	 DWORD PTR _v2$1$[ebp], eax
  001f2	8d 55 d8	 lea	 edx, DWORD PTR _vInvDir$[ebp]
  001f5	89 8d e0 fe ff
	ff		 mov	 DWORD PTR _v3$1$[ebp], ecx
  001fb	52		 push	 edx
  001fc	8d 55 f0	 lea	 edx, DWORD PTR _vInvPos$[ebp]
  001ff	52		 push	 edx
  00200	51		 push	 ecx
  00201	50		 push	 eax
  00202	53		 push	 ebx
  00203	e8 00 00 00 00	 call	 ?IsTouchRayTri@@YAHPBUD3DXVECTOR3@@0000PAM@Z ; IsTouchRayTri
  00208	83 c4 18	 add	 esp, 24			; 00000018H

; 2092 : 
; 2093 : 			if( bRet && *pDist >= 0.0f )	// 반대방향 면은 검사하지 않음.

  0020b	85 c0		 test	 eax, eax
  0020d	74 1f		 je	 SHORT $LN5@FindTouchT
  0020f	8b 85 10 ff ff
	ff		 mov	 eax, DWORD PTR _pDist$GSCopy$1$[ebp]
  00215	0f 57 c9	 xorps	 xmm1, xmm1
  00218	f3 0f 10 00	 movss	 xmm0, DWORD PTR [eax]
  0021c	0f 2f c1	 comiss	 xmm0, xmm1
  0021f	72 0d		 jb	 SHORT $LN5@FindTouchT

; 2094 : 			{
; 2095 : 				// 정확하게 하려면 모든 면을 다 검사해서 가장 가까운것을 골라야 하나
; 2096 : 				// S자 형태로 구부러진 면이 없다는 가정하에 간략화 시킨다.
; 2097 : 				if( *pDist < 1.0f )

  00221	f3 0f 10 0d 00
	00 00 00	 movss	 xmm1, DWORD PTR __real@3f800000
  00229	0f 2f c8	 comiss	 xmm1, xmm0
  0022c	77 3e		 ja	 SHORT $LN25@FindTouchT
$LN5@FindTouchT:

; 2085 : 		for( j = 0; j < nMaxFace; j++ )

  0022e	46		 inc	 esi
  0022f	3b b5 ec fe ff
	ff		 cmp	 esi, DWORD PTR _nMaxFace$1$[ebp]
  00235	7c 8c		 jl	 SHORT $LL7@FindTouchT
$LN2@FindTouchT:

; 2058 : 	{
; 2059 : 		*pTriOut = NULL;
; 2060 : 		return;
; 2061 : 	}
; 2062 : 
; 2063 : 	WORD	*pIB;
; 2064 : 	int		j;
; 2065 : 	BOOL	bRet;
; 2066 : 
; 2067 : 	for( i = 0; i < nMaxObj; i++ )

  00237	8b 8d 0c ff ff
	ff		 mov	 ecx, DWORD PTR _i$1$[ebp]
  0023d	83 85 14 ff ff
	ff 40		 add	 DWORD PTR tv392[ebp], 64 ; 00000040H
  00244	41		 inc	 ecx
  00245	89 8d 0c ff ff
	ff		 mov	 DWORD PTR _i$1$[ebp], ecx
  0024b	3b 8d 08 ff ff
	ff		 cmp	 ecx, DWORD PTR _nMaxObj$1$[ebp]
  00251	7d 46		 jge	 SHORT $LN28@FindTouchT
  00253	8b b5 e8 fe ff
	ff		 mov	 esi, DWORD PTR _pObject$1$[ebp]
  00259	8b 8d 04 ff ff
	ff		 mov	 ecx, DWORD PTR _mWorld$GSCopy$1$[ebp]
  0025f	8b 95 00 ff ff
	ff		 mov	 edx, DWORD PTR _this$GSCopy$1$[ebp]
  00265	8b 06		 mov	 eax, DWORD PTR [esi]
  00267	e9 34 fe ff ff	 jmp	 $LL4@FindTouchT
$LN25@FindTouchT:

; 2098 : 				{
; 2099 : 					// Line과 닿은 삼각형을 찾아냈다.
; 2100 : 					// 이 좌표들 mTM으로 곱해서 넘겨야 하는거 아닌가?.
; 2101 : 					pTriOut[0] = v1;

  0026c	8b 8d fc fe ff
	ff		 mov	 ecx, DWORD PTR _pTriOut$GSCopy$1$[ebp]

; 2102 : 					pTriOut[1] = v2;

  00272	8b 85 e4 fe ff
	ff		 mov	 eax, DWORD PTR _v2$1$[ebp]
  00278	5f		 pop	 edi
  00279	5e		 pop	 esi
  0027a	89 41 04	 mov	 DWORD PTR [ecx+4], eax

; 2103 : 					pTriOut[2] = v3;

  0027d	8b 85 e0 fe ff
	ff		 mov	 eax, DWORD PTR _v3$1$[ebp]
  00283	89 19		 mov	 DWORD PTR [ecx], ebx
  00285	89 41 08	 mov	 DWORD PTR [ecx+8], eax

; 2111 : }

  00288	5b		 pop	 ebx
  00289	8b 4d fc	 mov	 ecx, DWORD PTR __$ArrayPad$[ebp]
  0028c	33 cd		 xor	 ecx, ebp
  0028e	e8 00 00 00 00	 call	 @__security_check_cookie@4
  00293	8b e5		 mov	 esp, ebp
  00295	5d		 pop	 ebp
  00296	c2 18 00	 ret	 24			; 00000018H
$LN28@FindTouchT:

; 2104 : 					return;
; 2105 : 				}
; 2106 : 			}
; 2107 : 		}
; 2108 : 	}
; 2109 : 
; 2110 : 	*pTriOut = NULL;

  00299	8b 85 fc fe ff
	ff		 mov	 eax, DWORD PTR _pTriOut$GSCopy$1$[ebp]
  0029f	5f		 pop	 edi
  002a0	c7 00 00 00 00
	00		 mov	 DWORD PTR [eax], 0
$LN1@FindTouchT:

; 2111 : }

  002a6	8b 4d fc	 mov	 ecx, DWORD PTR __$ArrayPad$[ebp]
  002a9	5e		 pop	 esi
  002aa	33 cd		 xor	 ecx, ebp
  002ac	5b		 pop	 ebx
  002ad	e8 00 00 00 00	 call	 @__security_check_cookie@4
  002b2	8b e5		 mov	 esp, ebp
  002b4	5d		 pop	 ebp
  002b5	c2 18 00	 ret	 24			; 00000018H
?FindTouchTriLine@CObject3D@@QAEXPAPAUD3DXVECTOR3@@ABU2@1ABUD3DXMATRIX@@PAMH@Z ENDP ; CObject3D::FindTouchTriLine
_TEXT	ENDS
; Function compile flags: /Ogtp
; File C:\IAGOS\server\v18\Source\Source\_Common\object3d.cpp
; File C:\IAGOS\server\v18\Source\Source\DX_SDK\d3dx9math.inl
; File C:\IAGOS\server\v18\Source\Source\_Common\object3d.cpp
; File C:\IAGOS\server\v18\Source\Source\DX_SDK\d3dx9math.inl
; File C:\IAGOS\server\v18\Source\Source\_Common\object3d.cpp
; File C:\IAGOS\server\v18\Source\Source\DX_SDK\d3dx9math.inl
; File C:\IAGOS\server\v18\Source\Source\_Common\object3d.cpp
; File C:\IAGOS\server\v18\Source\Source\DX_SDK\d3dx9math.inl
; File C:\IAGOS\server\v18\Source\Source\_Common\object3d.cpp
; File C:\IAGOS\server\v18\Source\Source\DX_SDK\d3dx9math.inl
; File C:\IAGOS\server\v18\Source\Source\_Common\object3d.cpp
; File C:\IAGOS\server\v18\Source\Source\DX_SDK\d3dx9math.inl
; File C:\IAGOS\server\v18\Source\Source\_Common\object3d.cpp
; File C:\IAGOS\server\v18\Source\Source\DX_SDK\d3dx9math.inl
; File C:\IAGOS\server\v18\Source\Source\_Common\object3d.cpp
; File C:\IAGOS\server\v18\Source\Source\DX_SDK\d3dx9math.inl
; File C:\IAGOS\server\v18\Source\Source\_Common\object3d.cpp
; File C:\IAGOS\server\v18\Source\Source\DX_SDK\d3dx9math.inl
; File C:\IAGOS\server\v18\Source\Source\_Common\object3d.cpp
;	COMDAT ?SlideVectorUnder@CObject3D@@QAEHPAUD3DXVECTOR3@@ABU2@1ABUD3DXMATRIX@@0@Z
_TEXT	SEGMENT
_mWorld$GSCopy$1$ = -156				; size = 4
_v3$1$ = -152						; size = 4
_pIntersect$GSCopy$1$ = -148				; size = 4
_vPos$GSCopy$1$ = -144					; size = 4
_this$GSCopy$1$ = -140					; size = 4
_fDist$ = -136						; size = 4
_pVB$1$ = -132						; size = 4
_pOut$1$ = -128						; size = 4
_vEnd$GSCopy$1$ = -124					; size = 4
_j$1$ = -120						; size = 4
_mInv$ = -116						; size = 64
_vInvDir$ = -52						; size = 12
_vInvEnd$ = -40						; size = 12
_vInvPos$ = -28						; size = 12
_vSlide$1 = -16						; size = 12
__$ArrayPad$ = -4					; size = 4
_pOut$ = 8						; size = 4
_vPos$ = 12						; size = 4
_vEnd$ = 16						; size = 4
_mWorld$ = 20						; size = 4
_pIntersect$ = 24					; size = 4
?SlideVectorUnder@CObject3D@@QAEHPAUD3DXVECTOR3@@ABU2@1ABUD3DXMATRIX@@0@Z PROC ; CObject3D::SlideVectorUnder, COMDAT
; _this$ = ecx

; 1891 : {

  00000	55		 push	 ebp
  00001	8b ec		 mov	 ebp, esp
  00003	81 ec 9c 00 00
	00		 sub	 esp, 156		; 0000009cH
  00009	a1 00 00 00 00	 mov	 eax, DWORD PTR ___security_cookie
  0000e	33 c5		 xor	 eax, ebp
  00010	89 45 fc	 mov	 DWORD PTR __$ArrayPad$[ebp], eax
  00013	8b 45 08	 mov	 eax, DWORD PTR _pOut$[ebp]
  00016	53		 push	 ebx
  00017	8b d9		 mov	 ebx, ecx
  00019	89 45 80	 mov	 DWORD PTR _pOut$1$[ebp], eax
  0001c	8b 45 18	 mov	 eax, DWORD PTR _pIntersect$[ebp]
  0001f	8b 4d 14	 mov	 ecx, DWORD PTR _mWorld$[ebp]
  00022	56		 push	 esi

; 1892 : 	D3DXVECTOR3	*v1, *v2, *v3;
; 1893 : 	D3DXVECTOR3	vInvPos, vInvEnd, vInvDir;
; 1894 : 	D3DXMATRIX	mInv;
; 1895 : 	FLOAT	    fDist;
; 1896 : 	BOOL	    bRet;
; 1897 : 	NORMALVERTEX *pVB;
; 1898 : 	WORD		 *pIB;
; 1899 : 
; 1900 : 	GMOBJECT* pObject = &m_CollObject;
; 1901 : 	if( pObject->m_Type != GMT_NORMAL )

  00023	83 bb 00 01 00
	00 00		 cmp	 DWORD PTR [ebx+256], 0
  0002a	57		 push	 edi
  0002b	8b 7d 0c	 mov	 edi, DWORD PTR _vPos$[ebp]
  0002e	89 85 6c ff ff
	ff		 mov	 DWORD PTR _pIntersect$GSCopy$1$[ebp], eax
  00034	8b 45 10	 mov	 eax, DWORD PTR _vEnd$[ebp]
  00037	89 9d 74 ff ff
	ff		 mov	 DWORD PTR _this$GSCopy$1$[ebp], ebx
  0003d	89 bd 70 ff ff
	ff		 mov	 DWORD PTR _vPos$GSCopy$1$[ebp], edi
  00043	89 45 84	 mov	 DWORD PTR _vEnd$GSCopy$1$[ebp], eax
  00046	89 8d 64 ff ff
	ff		 mov	 DWORD PTR _mWorld$GSCopy$1$[ebp], ecx
  0004c	0f 85 f7 00 00
	00		 jne	 $LN35@SlideVecto

; 1902 : 		return 0;
; 1903 : 
; 1904 : 	pIB = pObject->m_pIB;
; 1905 : 	pVB = (NORMALVERTEX*)(pObject->m_pVB);

  00052	8b 83 a0 0b 00
	00		 mov	 eax, DWORD PTR [ebx+2976]
  00058	8b b3 a4 0b 00
	00		 mov	 esi, DWORD PTR [ebx+2980]

; 1906 : 
; 1907 : 	D3DXMatrixInverse( &mInv, NULL, &mWorld );

  0005e	51		 push	 ecx
  0005f	89 85 7c ff ff
	ff		 mov	 DWORD PTR _pVB$1$[ebp], eax
  00065	8d 45 8c	 lea	 eax, DWORD PTR _mInv$[ebp]
  00068	6a 00		 push	 0
  0006a	50		 push	 eax
  0006b	e8 00 00 00 00	 call	 _D3DXMatrixInverse@12

; 1908 : 	D3DXVec3TransformCoord( &vInvPos, &vPos, &mInv );	// Line시작점을 Geometry기준으로 변환

  00070	8d 45 8c	 lea	 eax, DWORD PTR _mInv$[ebp]
  00073	50		 push	 eax
  00074	57		 push	 edi
  00075	8d 45 e4	 lea	 eax, DWORD PTR _vInvPos$[ebp]
  00078	50		 push	 eax
  00079	e8 00 00 00 00	 call	 _D3DXVec3TransformCoord@12

; 1909 : 	D3DXVec3TransformCoord( &vInvEnd, &vEnd, &mInv );	// Line끝점을 역시 변환

  0007e	8d 45 8c	 lea	 eax, DWORD PTR _mInv$[ebp]
  00081	50		 push	 eax
  00082	ff 75 84	 push	 DWORD PTR _vEnd$GSCopy$1$[ebp]
  00085	8d 45 d8	 lea	 eax, DWORD PTR _vInvEnd$[ebp]
  00088	50		 push	 eax
  00089	e8 00 00 00 00	 call	 _D3DXVec3TransformCoord@12

; 1912 : 	for( int j = 0; j < pObject->m_nMaxFaceList; ++j )

  0008e	83 bb 98 01 00
	00 00		 cmp	 DWORD PTR [ebx+408], 0
; File C:\IAGOS\server\v18\Source\Source\DX_SDK\d3dx9math.inl

; 383  :     return D3DXVECTOR3(x - v.x, y - v.y, z - v.z);

  00095	f3 0f 10 45 d8	 movss	 xmm0, DWORD PTR _vInvEnd$[ebp]
  0009a	f3 0f 5c 45 e4	 subss	 xmm0, DWORD PTR _vInvPos$[ebp]
; File C:\IAGOS\server\v18\Source\Source\_Common\object3d.cpp

; 1912 : 	for( int j = 0; j < pObject->m_nMaxFaceList; ++j )

  0009f	c7 45 88 00 00
	00 00		 mov	 DWORD PTR _j$1$[ebp], 0
  000a6	f3 0f 11 45 cc	 movss	 DWORD PTR _vInvDir$[ebp], xmm0
; File C:\IAGOS\server\v18\Source\Source\DX_SDK\d3dx9math.inl

; 383  :     return D3DXVECTOR3(x - v.x, y - v.y, z - v.z);

  000ab	f3 0f 10 45 dc	 movss	 xmm0, DWORD PTR _vInvEnd$[ebp+4]
  000b0	f3 0f 5c 45 e8	 subss	 xmm0, DWORD PTR _vInvPos$[ebp+4]
; File C:\IAGOS\server\v18\Source\Source\_Common\object3d.cpp

; 1910 : 	vInvDir = vInvEnd - vInvPos;

  000b5	f3 0f 11 45 d0	 movss	 DWORD PTR _vInvDir$[ebp+4], xmm0
; File C:\IAGOS\server\v18\Source\Source\DX_SDK\d3dx9math.inl

; 383  :     return D3DXVECTOR3(x - v.x, y - v.y, z - v.z);

  000ba	f3 0f 10 45 e0	 movss	 xmm0, DWORD PTR _vInvEnd$[ebp+8]
  000bf	f3 0f 5c 45 ec	 subss	 xmm0, DWORD PTR _vInvPos$[ebp+8]
; File C:\IAGOS\server\v18\Source\Source\_Common\object3d.cpp

; 1910 : 	vInvDir = vInvEnd - vInvPos;

  000c4	f3 0f 11 45 d4	 movss	 DWORD PTR _vInvDir$[ebp+8], xmm0

; 1912 : 	for( int j = 0; j < pObject->m_nMaxFaceList; ++j )

  000c9	0f 8e 7a 00 00
	00		 jle	 $LN35@SlideVecto
  000cf	90		 npad	 1
$LL4@SlideVecto:

; 1913 : 	{
; 1914 : 		v1 = &pVB[ *pIB++ ].position;

  000d0	0f b7 3e	 movzx	 edi, WORD PTR [esi]

; 1915 : 		v2 = &pVB[ *pIB++ ].position;
; 1916 : 		v3 = &pVB[ *pIB++ ].position;

  000d3	8d 76 06	 lea	 esi, DWORD PTR [esi+6]
  000d6	0f b7 5e fc	 movzx	 ebx, WORD PTR [esi-4]
  000da	0f b7 46 fe	 movzx	 eax, WORD PTR [esi-2]
  000de	8b 8d 7c ff ff
	ff		 mov	 ecx, DWORD PTR _pVB$1$[ebp]
  000e4	c1 e0 05	 shl	 eax, 5
  000e7	03 c1		 add	 eax, ecx
  000e9	c1 e7 05	 shl	 edi, 5
  000ec	03 f9		 add	 edi, ecx
  000ee	c1 e3 05	 shl	 ebx, 5
  000f1	03 d9		 add	 ebx, ecx
  000f3	89 85 68 ff ff
	ff		 mov	 DWORD PTR _v3$1$[ebp], eax

; 1917 : 
; 1918 : 		bRet = IsTouchRayTri( v1, v2, v3, &vInvPos, &vInvDir, &fDist );

  000f9	8d 8d 78 ff ff
	ff		 lea	 ecx, DWORD PTR _fDist$[ebp]
  000ff	51		 push	 ecx
  00100	8d 4d cc	 lea	 ecx, DWORD PTR _vInvDir$[ebp]
  00103	51		 push	 ecx
  00104	8d 4d e4	 lea	 ecx, DWORD PTR _vInvPos$[ebp]
  00107	51		 push	 ecx
  00108	50		 push	 eax
  00109	53		 push	 ebx
  0010a	57		 push	 edi
  0010b	e8 00 00 00 00	 call	 ?IsTouchRayTri@@YAHPBUD3DXVECTOR3@@0000PAM@Z ; IsTouchRayTri
  00110	83 c4 18	 add	 esp, 24			; 00000018H

; 1919 : 		if( bRet && fDist >= 0.0f )	// 반대방향 면은 검사하지 않음.

  00113	85 c0		 test	 eax, eax
  00115	74 1d		 je	 SHORT $LN2@SlideVecto
  00117	f3 0f 10 b5 78
	ff ff ff	 movss	 xmm6, DWORD PTR _fDist$[ebp]
  0011f	0f 57 c0	 xorps	 xmm0, xmm0
  00122	0f 2f f0	 comiss	 xmm6, xmm0
  00125	72 0d		 jb	 SHORT $LN2@SlideVecto

; 1920 : 		{
; 1921 : 			// 정확하게 하려면 모든 면을 다 검사해서 가장 가까운것을 골라야 하나
; 1922 : 			// S자 형태로 구부러진 면이 없다는 가정하에 간략화 시킨다.
; 1923 : 			if( fDist < 1.0f )

  00127	f3 0f 10 05 00
	00 00 00	 movss	 xmm0, DWORD PTR __real@3f800000
  0012f	0f 2f c6	 comiss	 xmm0, xmm6
  00132	77 2a		 ja	 SHORT $LN33@SlideVecto
$LN2@SlideVecto:

; 1912 : 	for( int j = 0; j < pObject->m_nMaxFaceList; ++j )

  00134	8b 45 88	 mov	 eax, DWORD PTR _j$1$[ebp]
  00137	8b 8d 74 ff ff
	ff		 mov	 ecx, DWORD PTR _this$GSCopy$1$[ebp]
  0013d	40		 inc	 eax
  0013e	89 45 88	 mov	 DWORD PTR _j$1$[ebp], eax
  00141	3b 81 98 01 00
	00		 cmp	 eax, DWORD PTR [ecx+408]
  00147	7c 87		 jl	 SHORT $LL4@SlideVecto
$LN35@SlideVecto:
  00149	5f		 pop	 edi

; 1945 : }

  0014a	5e		 pop	 esi
  0014b	33 c0		 xor	 eax, eax
  0014d	5b		 pop	 ebx
  0014e	8b 4d fc	 mov	 ecx, DWORD PTR __$ArrayPad$[ebp]
  00151	33 cd		 xor	 ecx, ebp
  00153	e8 00 00 00 00	 call	 @__security_check_cookie@4
  00158	8b e5		 mov	 esp, ebp
  0015a	5d		 pop	 ebp
  0015b	c2 14 00	 ret	 20			; 00000014H
$LN33@SlideVecto:
; File C:\IAGOS\server\v18\Source\Source\DX_SDK\d3dx9math.inl

; 383  :     return D3DXVECTOR3(x - v.x, y - v.y, z - v.z);

  0015e	8b 4d 84	 mov	 ecx, DWORD PTR _vEnd$GSCopy$1$[ebp]
  00161	8b 85 70 ff ff
	ff		 mov	 eax, DWORD PTR _vPos$GSCopy$1$[ebp]
; File C:\IAGOS\server\v18\Source\Source\_Common\object3d.cpp

; 1927 : 				*pIntersect = vPos + fDist * vDir;	// 교차점을 계산.

  00167	8b b5 6c ff ff
	ff		 mov	 esi, DWORD PTR _pIntersect$GSCopy$1$[ebp]
; File C:\IAGOS\server\v18\Source\Source\DX_SDK\d3dx9math.inl

; 383  :     return D3DXVECTOR3(x - v.x, y - v.y, z - v.z);

  0016d	f3 0f 10 01	 movss	 xmm0, DWORD PTR [ecx]
  00171	f3 0f 5c 00	 subss	 xmm0, DWORD PTR [eax]
  00175	f3 0f 10 58 04	 movss	 xmm3, DWORD PTR [eax+4]
  0017a	f3 0f 10 68 08	 movss	 xmm5, DWORD PTR [eax+8]
  0017f	f3 0f 10 51 04	 movss	 xmm2, DWORD PTR [ecx+4]
  00184	f3 0f 10 61 08	 movss	 xmm4, DWORD PTR [ecx+8]
  00189	f3 0f 5c d3	 subss	 xmm2, xmm3
; File C:\IAGOS\server\v18\Source\Source\_Common\object3d.cpp

; 1927 : 				*pIntersect = vPos + fDist * vDir;	// 교차점을 계산.

  0018d	f3 0f 59 c6	 mulss	 xmm0, xmm6
; File C:\IAGOS\server\v18\Source\Source\DX_SDK\d3dx9math.inl

; 383  :     return D3DXVECTOR3(x - v.x, y - v.y, z - v.z);

  00191	f3 0f 5c e5	 subss	 xmm4, xmm5

; 377  :     return D3DXVECTOR3(x + v.x, y + v.y, z + v.z);

  00195	f3 0f 58 00	 addss	 xmm0, DWORD PTR [eax]

; 301  :     y = fy;

  00199	f3 0f 59 e6	 mulss	 xmm4, xmm6
; File C:\IAGOS\server\v18\Source\Source\_Common\object3d.cpp

; 1931 : 				if( CanSlide( *v1, *v2, *v3, -0.19080f, &vSlide ) == FALSE )	// -0.19080f = cos(101)

  0019d	8d 45 f0	 lea	 eax, DWORD PTR _vSlide$1[ebp]
  001a0	50		 push	 eax
  001a1	51		 push	 ecx
  001a2	f3 0f 11 06	 movss	 DWORD PTR [esi], xmm0
; File C:\IAGOS\server\v18\Source\Source\DX_SDK\d3dx9math.inl

; 377  :     return D3DXVECTOR3(x + v.x, y + v.y, z + v.z);

  001a6	f3 0f 58 e5	 addss	 xmm4, xmm5

; 300  :     x = fx;

  001aa	0f 28 c6	 movaps	 xmm0, xmm6
  001ad	f3 0f 59 c2	 mulss	 xmm0, xmm2

; 377  :     return D3DXVECTOR3(x + v.x, y + v.y, z + v.z);

  001b1	f3 0f 58 c3	 addss	 xmm0, xmm3
; File C:\IAGOS\server\v18\Source\Source\_Common\object3d.cpp

; 1927 : 				*pIntersect = vPos + fDist * vDir;	// 교차점을 계산.

  001b5	f3 0f 11 46 04	 movss	 DWORD PTR [esi+4], xmm0
  001ba	f3 0f 11 66 08	 movss	 DWORD PTR [esi+8], xmm4

; 1931 : 				if( CanSlide( *v1, *v2, *v3, -0.19080f, &vSlide ) == FALSE )	// -0.19080f = cos(101)

  001bf	c7 04 24 13 61
	43 be		 mov	 DWORD PTR [esp], -1102880493 ; be436113H
  001c6	ff b5 68 ff ff
	ff		 push	 DWORD PTR _v3$1$[ebp]
  001cc	53		 push	 ebx
  001cd	57		 push	 edi
  001ce	e8 00 00 00 00	 call	 ?CanSlide@@YAHABUD3DXVECTOR3@@00MPAU1@@Z ; CanSlide
  001d3	83 c4 14	 add	 esp, 20			; 00000014H
  001d6	85 c0		 test	 eax, eax
  001d8	75 2f		 jne	 SHORT $LN8@SlideVecto

; 1932 : 				{
; 1933 : 					*pOut = D3DXVECTOR3( 0.0f, 0.0f, 0.0f );

  001da	8b 45 80	 mov	 eax, DWORD PTR _pOut$1$[ebp]
  001dd	5f		 pop	 edi

; 1945 : }

  001de	5e		 pop	 esi
  001df	5b		 pop	 ebx
  001e0	c7 00 00 00 00
	00		 mov	 DWORD PTR [eax], 0
  001e6	c7 40 04 00 00
	00 00		 mov	 DWORD PTR [eax+4], 0
  001ed	c7 40 08 00 00
	00 00		 mov	 DWORD PTR [eax+8], 0
  001f4	b8 01 00 00 00	 mov	 eax, 1
  001f9	8b 4d fc	 mov	 ecx, DWORD PTR __$ArrayPad$[ebp]
  001fc	33 cd		 xor	 ecx, ebp
  001fe	e8 00 00 00 00	 call	 @__security_check_cookie@4
  00203	8b e5		 mov	 esp, ebp
  00205	5d		 pop	 ebp
  00206	c2 14 00	 ret	 20			; 00000014H
$LN8@SlideVecto:

; 1934 : 					return 1;
; 1935 : 				}
; 1936 : 				
; 1937 : 				// 미끄러진 좌표를 얻는다.
; 1938 : 				D3DXVec3TransformNormal( &vSlide, &vSlide, &mWorld );

  00209	ff b5 64 ff ff
	ff		 push	 DWORD PTR _mWorld$GSCopy$1$[ebp]
  0020f	8d 45 f0	 lea	 eax, DWORD PTR _vSlide$1[ebp]
  00212	50		 push	 eax
  00213	50		 push	 eax
  00214	e8 00 00 00 00	 call	 _D3DXVec3TransformNormal@12
; File C:\IAGOS\server\v18\Source\Source\DX_SDK\d3dx9math.inl

; 377  :     return D3DXVECTOR3(x + v.x, y + v.y, z + v.z);

  00219	f3 0f 10 45 f0	 movss	 xmm0, DWORD PTR _vSlide$1[ebp]
  0021e	f3 0f 10 55 f4	 movss	 xmm2, DWORD PTR _vSlide$1[ebp+4]
  00223	f3 0f 10 4d f8	 movss	 xmm1, DWORD PTR _vSlide$1[ebp+8]
  00228	f3 0f 58 06	 addss	 xmm0, DWORD PTR [esi]
  0022c	f3 0f 58 56 04	 addss	 xmm2, DWORD PTR [esi+4]
; File C:\IAGOS\server\v18\Source\Source\_Common\object3d.cpp

; 1939 : 				*pOut = *pIntersect + vSlide;

  00231	8b 45 80	 mov	 eax, DWORD PTR _pOut$1$[ebp]
; File C:\IAGOS\server\v18\Source\Source\DX_SDK\d3dx9math.inl

; 377  :     return D3DXVECTOR3(x + v.x, y + v.y, z + v.z);

  00234	f3 0f 58 4e 08	 addss	 xmm1, DWORD PTR [esi+8]
; File C:\IAGOS\server\v18\Source\Source\_Common\object3d.cpp

; 1945 : }

  00239	8b 4d fc	 mov	 ecx, DWORD PTR __$ArrayPad$[ebp]
  0023c	5f		 pop	 edi
  0023d	f3 0f 11 00	 movss	 DWORD PTR [eax], xmm0
  00241	33 cd		 xor	 ecx, ebp
  00243	f3 0f 11 50 04	 movss	 DWORD PTR [eax+4], xmm2
  00248	5e		 pop	 esi
  00249	f3 0f 11 48 08	 movss	 DWORD PTR [eax+8], xmm1
  0024e	b8 01 00 00 00	 mov	 eax, 1
  00253	5b		 pop	 ebx
  00254	e8 00 00 00 00	 call	 @__security_check_cookie@4
  00259	8b e5		 mov	 esp, ebp
  0025b	5d		 pop	 ebp
  0025c	c2 14 00	 ret	 20			; 00000014H
?SlideVectorUnder@CObject3D@@QAEHPAUD3DXVECTOR3@@ABU2@1ABUD3DXMATRIX@@0@Z ENDP ; CObject3D::SlideVectorUnder
_TEXT	ENDS
; Function compile flags: /Ogtp
; File C:\IAGOS\server\v18\Source\Source\_Common\object3d.cpp
; File C:\IAGOS\server\v18\Source\Source\DX_SDK\d3dx9math.inl
; File C:\IAGOS\server\v18\Source\Source\_Common\object3d.cpp
; File C:\IAGOS\server\v18\Source\Source\DX_SDK\d3dx9math.inl
; File C:\IAGOS\server\v18\Source\Source\_Common\object3d.cpp
; File C:\IAGOS\server\v18\Source\Source\DX_SDK\d3dx9math.inl
; File C:\IAGOS\server\v18\Source\Source\_Common\object3d.cpp
; File C:\IAGOS\server\v18\Source\Source\DX_SDK\d3dx9math.inl
; File C:\IAGOS\server\v18\Source\Source\_Common\object3d.cpp
; File C:\IAGOS\server\v18\Source\Source\DX_SDK\d3dx9math.inl
; File C:\IAGOS\server\v18\Source\Source\_Common\object3d.cpp
; File C:\IAGOS\server\v18\Source\Source\DX_SDK\d3dx9math.inl
; File C:\IAGOS\server\v18\Source\Source\_Common\object3d.cpp
; File C:\IAGOS\server\v18\Source\Source\DX_SDK\d3dx9math.inl
; File C:\Program Files (x86)\Windows Kits\10\Include\10.0.26100.0\ucrt\corecrt_math.h
; File C:\IAGOS\server\v18\Source\Source\_Common\object3d.cpp
; File C:\IAGOS\server\v18\Source\Source\DX_SDK\d3dx9math.inl
; File C:\IAGOS\server\v18\Source\Source\_Common\object3d.cpp
; File C:\IAGOS\server\v18\Source\Source\DX_SDK\d3dx9math.inl
; File C:\IAGOS\server\v18\Source\Source\_Common\object3d.cpp
; File C:\IAGOS\server\v18\Source\Source\DX_SDK\d3dx9math.inl
; File C:\IAGOS\server\v18\Source\Source\_Common\object3d.cpp
; File C:\IAGOS\server\v18\Source\Source\DX_SDK\d3dx9math.inl
; File C:\IAGOS\server\v18\Source\Source\_Common\object3d.cpp
; File C:\IAGOS\server\v18\Source\Source\DX_SDK\d3dx9math.inl
; File C:\IAGOS\server\v18\Source\Source\_Common\object3d.cpp
; File C:\IAGOS\server\v18\Source\Source\DX_SDK\d3dx9math.inl
; File C:\IAGOS\server\v18\Source\Source\_Common\object3d.cpp
; File C:\IAGOS\server\v18\Source\Source\DX_SDK\d3dx9math.inl
; File C:\IAGOS\server\v18\Source\Source\_Common\object3d.cpp
; File C:\IAGOS\server\v18\Source\Source\DX_SDK\d3dx9math.inl
; File C:\IAGOS\server\v18\Source\Source\_Common\object3d.cpp
; File C:\IAGOS\server\v18\Source\Source\DX_SDK\d3dx9math.inl
; File C:\IAGOS\server\v18\Source\Source\_Common\object3d.cpp
; File C:\IAGOS\server\v18\Source\Source\DX_SDK\d3dx9math.inl
; File C:\IAGOS\server\v18\Source\Source\_Common\object3d.cpp
; File C:\IAGOS\server\v18\Source\Source\DX_SDK\d3dx9math.inl
; File C:\IAGOS\server\v18\Source\Source\_Common\object3d.cpp
; File C:\IAGOS\server\v18\Source\Source\DX_SDK\d3dx9math.inl
; File C:\IAGOS\server\v18\Source\Source\_Common\object3d.cpp
; File C:\IAGOS\server\v18\Source\Source\DX_SDK\d3dx9math.inl
; File C:\IAGOS\server\v18\Source\Source\_Common\object3d.cpp
; File C:\IAGOS\server\v18\Source\Source\DX_SDK\d3dx9math.inl
; File C:\IAGOS\server\v18\Source\Source\_Common\object3d.cpp
; File C:\IAGOS\server\v18\Source\Source\DX_SDK\d3dx9math.inl
; File C:\IAGOS\server\v18\Source\Source\_Common\object3d.cpp
; File C:\IAGOS\server\v18\Source\Source\DX_SDK\d3dx9math.inl
; File C:\IAGOS\server\v18\Source\Source\_Common\object3d.cpp
; File C:\IAGOS\server\v18\Source\Source\DX_SDK\d3dx9math.inl
; File C:\IAGOS\server\v18\Source\Source\_Common\object3d.cpp
; File C:\IAGOS\server\v18\Source\Source\DX_SDK\d3dx9math.inl
; File C:\IAGOS\server\v18\Source\Source\_Common\object3d.cpp
; File C:\IAGOS\server\v18\Source\Source\DX_SDK\d3dx9math.inl
; File C:\IAGOS\server\v18\Source\Source\_Common\object3d.cpp
; File C:\IAGOS\server\v18\Source\Source\DX_SDK\d3dx9math.inl
; File C:\IAGOS\server\v18\Source\Source\_Common\object3d.cpp
; File C:\IAGOS\server\v18\Source\Source\DX_SDK\d3dx9math.inl
; File C:\IAGOS\server\v18\Source\Source\_Common\object3d.cpp
; File C:\IAGOS\server\v18\Source\Source\DX_SDK\d3dx9math.inl
; File C:\IAGOS\server\v18\Source\Source\_Common\object3d.cpp
; File C:\IAGOS\server\v18\Source\Source\DX_SDK\d3dx9math.inl
; File C:\IAGOS\server\v18\Source\Source\_Common\object3d.cpp
; File C:\IAGOS\server\v18\Source\Source\DX_SDK\d3dx9math.inl
; File C:\IAGOS\server\v18\Source\Source\_Common\object3d.cpp
; File C:\IAGOS\server\v18\Source\Source\DX_SDK\d3dx9math.inl
; File C:\IAGOS\server\v18\Source\Source\_Common\object3d.cpp
;	COMDAT ?SlideVectorXZ2@CObject3D@@QAEHPAUD3DXVECTOR3@@0ABU2@1ABUD3DXMATRIX@@H@Z
_TEXT	SEGMENT
_vPos$GSCopy$1$ = -348					; size = 4
tv2035 = -344						; size = 4
tv2039 = -340						; size = 4
tv2076 = -336						; size = 4
_this$GSCopy$1$ = -332					; size = 4
_fDist$2$ = -332					; size = 4
tv2036 = -328						; size = 4
_vEnd$GSCopy$1$ = -324					; size = 4
tv2026 = -320						; size = 4
_pVB$1$ = -320						; size = 4
tv2025 = -316						; size = 4
_pObject$1$ = -316					; size = 4
_fDist$ = -312						; size = 4
_j$1$ = -308						; size = 4
_nMaxFace$1$ = -304					; size = 4
_i$1$ = -300						; size = 4
_nMaxObj$1$ = -296					; size = 4
_mWorld$GSCopy$1$ = -292				; size = 4
_v2$1$ = -288						; size = 4
_v3$1$ = -284						; size = 4
_pIntersect$GSCopy$1$ = -280				; size = 4
_pOut$GSCopy$1$ = -276					; size = 4
_vIntersect$ = -272					; size = 12
_vN$ = -260						; size = 12
_vTemp$ = -248						; size = 12
_vInvPos$ = -236					; size = 12
_vInvEnd$ = -224					; size = 12
_vInvDir$ = -212					; size = 12
_mInv$ = -200						; size = 64
_mTM$ = -136						; size = 64
$T1 = -72						; size = 64
__$ArrayPad$ = -4					; size = 4
_pOut$ = 8						; size = 4
_pIntersect$ = 12					; size = 4
_vPos$ = 16						; size = 4
_vEnd$ = 20						; size = 4
_mWorld$ = 24						; size = 4
_bCollObj$ = 28						; size = 4
?SlideVectorXZ2@CObject3D@@QAEHPAUD3DXVECTOR3@@0ABU2@1ABUD3DXMATRIX@@H@Z PROC ; CObject3D::SlideVectorXZ2, COMDAT
; _this$ = ecx

; 1697 : {

  00000	55		 push	 ebp
  00001	8b ec		 mov	 ebp, esp
  00003	83 e4 f8	 and	 esp, -8			; fffffff8H
  00006	81 ec 60 01 00
	00		 sub	 esp, 352		; 00000160H
  0000c	a1 00 00 00 00	 mov	 eax, DWORD PTR ___security_cookie
  00011	33 c4		 xor	 eax, esp
  00013	89 84 24 5c 01
	00 00		 mov	 DWORD PTR __$ArrayPad$[esp+352], eax

; 1698 : 	D3DXVECTOR3	*v1, *v2, *v3;
; 1699 : 	D3DXVECTOR3	vInvPos, vInvEnd, vInvDir, vDir, vIntersect;
; 1700 : 	D3DXVECTOR3 vA, vB, vN, vTemp;
; 1701 : 	D3DXMATRIX	mTM, mInv;
; 1702 : 	int		nMaxFace;
; 1703 : 	GMOBJECT* pObject = &m_CollObject;		// 충돌메시로 충돌검사.
; 1704 : 	NORMALVERTEX *pVB;
; 1705 : 	WORD		*pIB;
; 1706 : 	int		j;
; 1707 : 	FLOAT	fDist;
; 1708 : 	BOOL	bRet;
; 1709 : 
; 1710 : 	int i;
; 1711 : 	LOD_GROUP *pGroup = &m_Group[0];
; 1712 : 	int		nMaxObj = 1;
; 1713 : 	if( bCollObj == FALSE )		// 충돌메시로 충돌검사 하지마라.

  0001a	83 7d 1c 00	 cmp	 DWORD PTR _bCollObj$[ebp], 0
  0001e	8b d1		 mov	 edx, ecx
  00020	8b 45 0c	 mov	 eax, DWORD PTR _pIntersect$[ebp]
  00023	8b 4d 18	 mov	 ecx, DWORD PTR _mWorld$[ebp]
  00026	89 44 24 48	 mov	 DWORD PTR _pIntersect$GSCopy$1$[esp+352], eax
  0002a	8b 45 08	 mov	 eax, DWORD PTR _pOut$[ebp]
  0002d	89 44 24 4c	 mov	 DWORD PTR _pOut$GSCopy$1$[esp+352], eax
  00031	8b 45 10	 mov	 eax, DWORD PTR _vPos$[ebp]
  00034	56		 push	 esi
  00035	89 44 24 08	 mov	 DWORD PTR _vPos$GSCopy$1$[esp+356], eax
  00039	be 01 00 00 00	 mov	 esi, 1
  0003e	8b 45 14	 mov	 eax, DWORD PTR _vEnd$[ebp]
  00041	57		 push	 edi
  00042	89 54 24 1c	 mov	 DWORD PTR _this$GSCopy$1$[esp+360], edx
  00046	8d ba 00 01 00
	00		 lea	 edi, DWORD PTR [edx+256]
  0004c	89 44 24 24	 mov	 DWORD PTR _vEnd$GSCopy$1$[esp+360], eax
  00050	89 4c 24 44	 mov	 DWORD PTR _mWorld$GSCopy$1$[esp+360], ecx
  00054	89 74 24 40	 mov	 DWORD PTR _nMaxObj$1$[esp+360], esi
  00058	75 29		 jne	 SHORT $LN117@SlideVecto

; 1714 : 	{
; 1715 : 		pObject = pGroup->m_pObject;
; 1716 : 		nMaxObj = pGroup->m_nMaxObject;
; 1717 : 		if( pGroup->_mUpdate == NULL )		return FAIL;

  0005a	83 7a 0c 00	 cmp	 DWORD PTR [edx+12], 0
  0005e	8b 72 04	 mov	 esi, DWORD PTR [edx+4]
  00061	8b 7a 08	 mov	 edi, DWORD PTR [edx+8]
  00064	89 74 24 40	 mov	 DWORD PTR _nMaxObj$1$[esp+360], esi
  00068	75 19		 jne	 SHORT $LN117@SlideVecto
  0006a	83 c8 ff	 or	 eax, -1

; 1825 : 						}
; 1826 : 					}
; 1827 : 				}
; 1828 : 				
; 1829 : 			}
; 1830 : 		}
; 1831 : 	}
; 1832 : 	return 0;
; 1833 : #else
; 1834 : 			if( bRet && fDist >= 0.0f )	// 반대방향 면은 검사하지 않음.
; 1835 : 			{
; 1836 : 				// 정확하게 하려면 모든 면을 다 검사해서 가장 가까운것을 골라야 하나
; 1837 : 				// S자 형태로 구부러진 면이 없다는 가정하에 간략화 시킨다.
; 1838 : 				if( fDist < 1.0f )
; 1839 : 				{
; 1840 : 					// Line과 닿은 삼각형을 찾아냈다.
; 1841 : 					vDir = vEnd - vPos;
; 1842 : //					fDist *= 0.5f;
; 1843 : 					vIntersect = vPos + fDist * vDir;	// 교차점을 계산.
; 1844 : 					vA = *v2 - *v1;
; 1845 : 					vB = *v3 - *v1;
; 1846 : 					D3DXVec3Cross( &vN, &vA, &vB );		// 충돌한 면의 노말 구함. 이건 나중에 미리 계산해두자.
; 1847 : 					mInv = mTM;
; 1848 : 					mInv._41 = mInv._42 = mInv._43 = 0;
; 1849 : 					D3DXVec3TransformCoord( &vN, &vN, &mInv );	// 충돌한면의 노말을 원래대로(mWorld)돌림.
; 1850 : 
; 1851 : 					if( vN.x == 0 && vN.z == 0 )
; 1852 : 						Error( "CActionMover::ProcessCollisionGround : 충돌한 면의 노말이 완전 수직이다" );
; 1853 : 
; 1854 : 					vN.y = 0;	// y성분을 없애서 수직면의 법선인것처럼 변환
; 1855 : 					D3DXVec3Normalize( &vN, &vN );		// 최종 단위벡터로 변환
; 1856 : 					
; 1857 : 					// 자, 이제 vIntersect와 vN은 월드좌표계로 준비가 되었다.
; 1858 : 					vTemp = vEnd - vIntersect;		// 교차점 - 라인끝 vector V라고 칭함
; 1859 : 					*pIntersect = vIntersect;		// 교차점을 받아둠
; 1860 : 					CalcSlideVec( &vTemp, vTemp, vN );
; 1861 : 					
; 1862 : 					*pOut = vTemp;		// 미끄러진 벡터를 결과로 받도록 바꿔보자.
; 1863 : //					*pOut = vTemp;
; 1864 : 					
; 1865 : 					return 1;
; 1866 : 				}
; 1867 : 			}
; 1868 : 		}
; 1869 : 	}
; 1870 : 	return 0;
; 1871 : #endif		
; 1872 : 			
; 1873 : 					
; 1874 : 
; 1875 : 					
; 1876 : }

  0006d	5f		 pop	 edi
  0006e	5e		 pop	 esi
  0006f	8b 8c 24 5c 01
	00 00		 mov	 ecx, DWORD PTR __$ArrayPad$[esp+352]
  00076	33 cc		 xor	 ecx, esp
  00078	e8 00 00 00 00	 call	 @__security_check_cookie@4
  0007d	8b e5		 mov	 esp, ebp
  0007f	5d		 pop	 ebp
  00080	c2 18 00	 ret	 24			; 00000018H
$LN117@SlideVecto:

; 1718 : 	}
; 1719 : 
; 1720 : 	
; 1721 : 	if( pObject->m_Type == GMT_ERROR )		return 0;

  00083	8b 07		 mov	 eax, DWORD PTR [edi]
  00085	83 f8 ff	 cmp	 eax, -1
  00088	0f 84 5c 07 00
	00		 je	 $LN111@SlideVecto

; 1722 : 
; 1723 : 	for( i = 0; i < nMaxObj; i++ )

  0008e	c7 44 24 3c 00
	00 00 00	 mov	 DWORD PTR _i$1$[esp+360], 0
  00096	85 f6		 test	 esi, esi
  00098	0f 8e 4c 07 00
	00		 jle	 $LN111@SlideVecto
  0009e	c7 44 24 20 00
	00 00 00	 mov	 DWORD PTR tv2036[esp+360], 0
$LL4@SlideVecto:

; 1724 : 	{
; 1725 : 		if( pObject->m_Type == GMT_SKIN )	

  000a6	83 f8 01	 cmp	 eax, 1
  000a9	75 1c		 jne	 SHORT $LN11@SlideVecto

; 1726 : 			Error( "SlideVectorXZ:스킨오브젝트 발견. 에러%s", m_szFileName ); 

  000ab	8d 82 c0 00 00
	00		 lea	 eax, DWORD PTR [edx+192]
  000b1	50		 push	 eax
  000b2	68 00 00 00 00	 push	 OFFSET ??_C@_0CI@INGEON@SlideVectorXZ?3?$LN?$LK?E?$LC?$LP?$MA?$LK?j?A?$KH?F?$KO?5?$LJ?$NP?$LA?$NP@
  000b7	e8 00 00 00 00	 call	 ?Error@@YAPBDPBDZZ	; Error
  000bc	8b 4c 24 4c	 mov	 ecx, DWORD PTR _mWorld$GSCopy$1$[esp+368]
  000c0	83 c4 08	 add	 esp, 8
  000c3	8b 54 24 1c	 mov	 edx, DWORD PTR _this$GSCopy$1$[esp+360]
$LN11@SlideVecto:

; 1727 : 
; 1728 : 		nMaxFace = pObject->m_nMaxFaceList;
; 1729 : 		pIB = pObject->m_pIB;
; 1730 : 		pVB = (NORMALVERTEX*)(pObject->m_pVB);
; 1731 : 		if( bCollObj == FALSE )

  000c7	83 7d 1c 00	 cmp	 DWORD PTR _bCollObj$[ebp], 0
  000cb	8b 87 98 00 00
	00		 mov	 eax, DWORD PTR [edi+152]
  000d1	8b b7 a4 0a 00
	00		 mov	 esi, DWORD PTR [edi+2724]
  000d7	89 44 24 38	 mov	 DWORD PTR _nMaxFace$1$[esp+360], eax
  000db	8b 87 a0 0a 00
	00		 mov	 eax, DWORD PTR [edi+2720]
  000e1	89 44 24 28	 mov	 DWORD PTR _pVB$1$[esp+360], eax
  000e5	75 50		 jne	 SHORT $LN12@SlideVecto

; 1732 : 			mTM = pGroup->_mUpdate[i] * mWorld;

  000e7	8b 42 0c	 mov	 eax, DWORD PTR [edx+12]
  000ea	03 44 24 20	 add	 eax, DWORD PTR tv2036[esp+360]
; File C:\IAGOS\server\v18\Source\Source\DX_SDK\d3dx9math.inl

; 860  :     D3DXMatrixMultiply(&matT, this, &mat);

  000ee	51		 push	 ecx
  000ef	50		 push	 eax
  000f0	8d 84 24 28 01
	00 00		 lea	 eax, DWORD PTR $T1[esp+368]
  000f7	50		 push	 eax
  000f8	e8 00 00 00 00	 call	 _D3DXMatrixMultiply@12
; File C:\IAGOS\server\v18\Source\Source\_Common\object3d.cpp

; 1732 : 			mTM = pGroup->_mUpdate[i] * mWorld;

  000fd	0f 10 84 24 20
	01 00 00	 movups	 xmm0, XMMWORD PTR $T1[esp+360]
  00105	0f 11 84 24 e0
	00 00 00	 movups	 XMMWORD PTR _mTM$[esp+360], xmm0
  0010d	0f 10 84 24 30
	01 00 00	 movups	 xmm0, XMMWORD PTR $T1[esp+376]
  00115	0f 11 84 24 f0
	00 00 00	 movups	 XMMWORD PTR _mTM$[esp+376], xmm0
  0011d	0f 10 84 24 40
	01 00 00	 movups	 xmm0, XMMWORD PTR $T1[esp+392]
  00125	0f 11 84 24 00
	01 00 00	 movups	 XMMWORD PTR _mTM$[esp+392], xmm0
  0012d	0f 10 84 24 50
	01 00 00	 movups	 xmm0, XMMWORD PTR $T1[esp+408]
  00135	eb 27		 jmp	 SHORT $LN121@SlideVecto
$LN12@SlideVecto:

; 1733 : 		else
; 1734 : 			mTM = mWorld;

  00137	0f 10 01	 movups	 xmm0, XMMWORD PTR [ecx]
  0013a	0f 11 84 24 e0
	00 00 00	 movups	 XMMWORD PTR _mTM$[esp+360], xmm0
  00142	0f 10 41 10	 movups	 xmm0, XMMWORD PTR [ecx+16]
  00146	0f 11 84 24 f0
	00 00 00	 movups	 XMMWORD PTR _mTM$[esp+376], xmm0
  0014e	0f 10 41 20	 movups	 xmm0, XMMWORD PTR [ecx+32]
  00152	0f 11 84 24 00
	01 00 00	 movups	 XMMWORD PTR _mTM$[esp+392], xmm0
  0015a	0f 10 41 30	 movups	 xmm0, XMMWORD PTR [ecx+48]
$LN121@SlideVecto:

; 1735 : 
; 1736 : 		pObject++;
; 1737 : 		D3DXMatrixInverse( &mInv, NULL, &mTM );

  0015e	8d 84 24 e0 00
	00 00		 lea	 eax, DWORD PTR _mTM$[esp+360]
  00165	81 c7 bc 0a 00
	00		 add	 edi, 2748		; 00000abcH
  0016b	50		 push	 eax
  0016c	6a 00		 push	 0
  0016e	8d 84 24 a8 00
	00 00		 lea	 eax, DWORD PTR _mInv$[esp+368]
  00175	89 7c 24 34	 mov	 DWORD PTR _pObject$1$[esp+368], edi
  00179	50		 push	 eax
  0017a	0f 11 84 24 1c
	01 00 00	 movups	 XMMWORD PTR _mTM$[esp+420], xmm0
  00182	e8 00 00 00 00	 call	 _D3DXMatrixInverse@12

; 1738 : 		D3DXVec3TransformCoord( &vInvPos, &vPos, &mInv );	// Line시작점을 Geometry기준으로 변환

  00187	8d 84 24 a0 00
	00 00		 lea	 eax, DWORD PTR _mInv$[esp+360]
  0018e	50		 push	 eax
  0018f	ff 74 24 10	 push	 DWORD PTR _vPos$GSCopy$1$[esp+364]
  00193	8d 84 24 84 00
	00 00		 lea	 eax, DWORD PTR _vInvPos$[esp+368]
  0019a	50		 push	 eax
  0019b	e8 00 00 00 00	 call	 _D3DXVec3TransformCoord@12

; 1739 : 		D3DXVec3TransformCoord( &vInvEnd, &vEnd, &mInv );	// Line끝점을 역시 변환

  001a0	8d 84 24 a0 00
	00 00		 lea	 eax, DWORD PTR _mInv$[esp+360]
  001a7	50		 push	 eax
  001a8	ff 74 24 28	 push	 DWORD PTR _vEnd$GSCopy$1$[esp+364]
  001ac	8d 84 24 90 00
	00 00		 lea	 eax, DWORD PTR _vInvEnd$[esp+368]
  001b3	50		 push	 eax
  001b4	e8 00 00 00 00	 call	 _D3DXVec3TransformCoord@12

; 1741 : 		for( j = 0; j < nMaxFace; j++ )

  001b9	83 7c 24 38 00	 cmp	 DWORD PTR _nMaxFace$1$[esp+360], 0
; File C:\IAGOS\server\v18\Source\Source\DX_SDK\d3dx9math.inl

; 383  :     return D3DXVECTOR3(x - v.x, y - v.y, z - v.z);

  001be	f3 0f 10 84 24
	88 00 00 00	 movss	 xmm0, DWORD PTR _vInvEnd$[esp+360]
  001c7	f3 0f 5c 44 24
	7c		 subss	 xmm0, DWORD PTR _vInvPos$[esp+360]
; File C:\IAGOS\server\v18\Source\Source\_Common\object3d.cpp

; 1741 : 		for( j = 0; j < nMaxFace; j++ )

  001cd	c7 44 24 34 00
	00 00 00	 mov	 DWORD PTR _j$1$[esp+360], 0
  001d5	f3 0f 11 84 24
	94 00 00 00	 movss	 DWORD PTR _vInvDir$[esp+360], xmm0
; File C:\IAGOS\server\v18\Source\Source\DX_SDK\d3dx9math.inl

; 383  :     return D3DXVECTOR3(x - v.x, y - v.y, z - v.z);

  001de	f3 0f 10 84 24
	8c 00 00 00	 movss	 xmm0, DWORD PTR _vInvEnd$[esp+364]
  001e7	f3 0f 5c 84 24
	80 00 00 00	 subss	 xmm0, DWORD PTR _vInvPos$[esp+364]
; File C:\IAGOS\server\v18\Source\Source\_Common\object3d.cpp

; 1740 : 		vInvDir = vInvEnd - vInvPos;

  001f0	f3 0f 11 84 24
	98 00 00 00	 movss	 DWORD PTR _vInvDir$[esp+364], xmm0
; File C:\IAGOS\server\v18\Source\Source\DX_SDK\d3dx9math.inl

; 383  :     return D3DXVECTOR3(x - v.x, y - v.y, z - v.z);

  001f9	f3 0f 10 84 24
	90 00 00 00	 movss	 xmm0, DWORD PTR _vInvEnd$[esp+368]
  00202	f3 0f 5c 84 24
	84 00 00 00	 subss	 xmm0, DWORD PTR _vInvPos$[esp+368]
; File C:\IAGOS\server\v18\Source\Source\_Common\object3d.cpp

; 1740 : 		vInvDir = vInvEnd - vInvPos;

  0020b	f3 0f 11 84 24
	9c 00 00 00	 movss	 DWORD PTR _vInvDir$[esp+368], xmm0

; 1741 : 		for( j = 0; j < nMaxFace; j++ )

  00214	0f 8e 78 01 00
	00		 jle	 $LN2@SlideVecto
  0021a	66 0f 1f 44 00
	00		 npad	 6
$LL7@SlideVecto:

; 1742 : 		{
; 1743 : 			v1 = &pVB[ *pIB++ ].position;

  00220	0f b7 3e	 movzx	 edi, WORD PTR [esi]

; 1744 : 			v2 = &pVB[ *pIB++ ].position;
; 1745 : 			v3 = &pVB[ *pIB++ ].position;

  00223	8d 76 06	 lea	 esi, DWORD PTR [esi+6]
  00226	0f b7 46 fc	 movzx	 eax, WORD PTR [esi-4]
  0022a	0f b7 4e fe	 movzx	 ecx, WORD PTR [esi-2]
  0022e	8b 54 24 28	 mov	 edx, DWORD PTR _pVB$1$[esp+360]
  00232	c1 e0 05	 shl	 eax, 5
  00235	03 c2		 add	 eax, edx
  00237	c1 e1 05	 shl	 ecx, 5
  0023a	03 ca		 add	 ecx, edx
  0023c	c1 e7 05	 shl	 edi, 5
  0023f	03 fa		 add	 edi, edx
  00241	89 44 24 48	 mov	 DWORD PTR _v2$1$[esp+360], eax

; 1746 : 
; 1747 : 			bRet = IsTouchRayTri( v1, v2, v3, &vInvPos, &vInvDir, &fDist );

  00245	8d 54 24 30	 lea	 edx, DWORD PTR _fDist$[esp+360]
  00249	89 4c 24 4c	 mov	 DWORD PTR _v3$1$[esp+360], ecx
  0024d	52		 push	 edx
  0024e	8d 94 24 98 00
	00 00		 lea	 edx, DWORD PTR _vInvDir$[esp+364]
  00255	52		 push	 edx
  00256	8d 94 24 84 00
	00 00		 lea	 edx, DWORD PTR _vInvPos$[esp+368]
  0025d	52		 push	 edx
  0025e	51		 push	 ecx
  0025f	50		 push	 eax
  00260	57		 push	 edi
  00261	e8 00 00 00 00	 call	 ?IsTouchRayTri@@YAHPBUD3DXVECTOR3@@0000PAM@Z ; IsTouchRayTri
  00266	83 c4 18	 add	 esp, 24			; 00000018H

; 1748 : #if __VER >= 11 //  __FIX_COLLISION
; 1749 : 			if(bRet)

  00269	85 c0		 test	 eax, eax
  0026b	0f 84 0a 01 00
	00		 je	 $LN5@SlideVecto
; File C:\IAGOS\server\v18\Source\Source\DX_SDK\d3dx9math.inl

; 383  :     return D3DXVECTOR3(x - v.x, y - v.y, z - v.z);

  00271	8b 44 24 24	 mov	 eax, DWORD PTR _vEnd$GSCopy$1$[esp+360]
  00275	8b 4c 24 0c	 mov	 ecx, DWORD PTR _vPos$GSCopy$1$[esp+360]
  00279	f3 0f 10 40 04	 movss	 xmm0, DWORD PTR [eax+4]
  0027e	f3 0f 5c 41 04	 subss	 xmm0, DWORD PTR [ecx+4]
  00283	f3 0f 10 10	 movss	 xmm2, DWORD PTR [eax]
  00287	f3 0f 5c 11	 subss	 xmm2, DWORD PTR [ecx]
  0028b	f3 0f 10 58 08	 movss	 xmm3, DWORD PTR [eax+8]
  00290	f3 0f 5c 59 08	 subss	 xmm3, DWORD PTR [ecx+8]
; File C:\IAGOS\server\v18\Source\Source\_Common\object3d.cpp

; 1751 : 				vDir = vEnd - vPos;

  00295	0f 28 c8	 movaps	 xmm1, xmm0
; File C:\IAGOS\server\v18\Source\Source\DX_SDK\d3dx9math.inl

; 383  :     return D3DXVECTOR3(x - v.x, y - v.y, z - v.z);

  00298	f3 0f 11 44 24
	10		 movss	 DWORD PTR tv2035[esp+360], xmm0
; File C:\IAGOS\server\v18\Source\Source\_Common\object3d.cpp

; 1751 : 				vDir = vEnd - vPos;

  0029e	f3 0f 59 c8	 mulss	 xmm1, xmm0
; File C:\IAGOS\server\v18\Source\Source\DX_SDK\d3dx9math.inl

; 1684 :     return sqrtf(pV->x * pV->x + pV->y * pV->y + pV->z * pV->z);

  002a2	0f 28 c2	 movaps	 xmm0, xmm2

; 383  :     return D3DXVECTOR3(x - v.x, y - v.y, z - v.z);

  002a5	f3 0f 11 54 24
	18		 movss	 DWORD PTR tv2076[esp+360], xmm2

; 1684 :     return sqrtf(pV->x * pV->x + pV->y * pV->y + pV->z * pV->z);

  002ab	f3 0f 59 c2	 mulss	 xmm0, xmm2

; 383  :     return D3DXVECTOR3(x - v.x, y - v.y, z - v.z);

  002af	f3 0f 11 5c 24
	14		 movss	 DWORD PTR tv2039[esp+360], xmm3

; 1684 :     return sqrtf(pV->x * pV->x + pV->y * pV->y + pV->z * pV->z);

  002b5	f3 0f 58 c8	 addss	 xmm1, xmm0
  002b9	0f 28 c3	 movaps	 xmm0, xmm3
  002bc	f3 0f 59 c3	 mulss	 xmm0, xmm3
  002c0	f3 0f 58 c8	 addss	 xmm1, xmm0
; File C:\Program Files (x86)\Windows Kits\10\Include\10.0.26100.0\ucrt\corecrt_math.h

; 799  :             return (float)sqrt(_X);

  002c4	0f 5a c1	 cvtps2pd xmm0, xmm1
  002c7	0f 57 c9	 xorps	 xmm1, xmm1
  002ca	66 0f 2e c8	 ucomisd xmm1, xmm0
  002ce	77 06		 ja	 SHORT $LN119@SlideVecto
  002d0	f2 0f 51 c0	 sqrtsd	 xmm0, xmm0
  002d4	eb 05		 jmp	 SHORT $LN120@SlideVecto
$LN119@SlideVecto:
  002d6	e8 00 00 00 00	 call	 __libm_sse2_sqrt_precise
$LN120@SlideVecto:
  002db	f2 0f 5a c0	 cvtsd2ss xmm0, xmm0
; File C:\IAGOS\server\v18\Source\Source\_Common\object3d.cpp

; 1755 : 				if(fDirLength > 3.0f)

  002df	0f 2f 05 00 00
	00 00		 comiss	 xmm0, DWORD PTR __real@40400000
  002e6	76 73		 jbe	 SHORT $LN15@SlideVecto

; 1756 : 				{
; 1757 : 					if( fabs(fDist) < fDirLength)

  002e8	f3 0f 10 54 24
	30		 movss	 xmm2, DWORD PTR _fDist$[esp+360]
  002ee	0f 5a ca	 cvtps2pd xmm1, xmm2
  002f1	f3 0f 5a c0	 cvtss2sd xmm0, xmm0
  002f5	0f 54 0d 00 00
	00 00		 andps	 xmm1, QWORD PTR __xmm@7fffffffffffffff7fffffffffffffff
  002fc	66 0f 2f c1	 comisd	 xmm0, xmm1
  00300	76 79		 jbe	 SHORT $LN5@SlideVecto

; 1758 : 					{
; 1759 : 						// Line과 닿은 삼각형을 찾아냈다.
; 1760 : 						
; 1761 : 	//					fDist *= 0.5f;
; 1762 : 						if(fDist < 0.0f)

  00302	8b 44 24 0c	 mov	 eax, DWORD PTR _vPos$GSCopy$1$[esp+360]
  00306	0f 57 c0	 xorps	 xmm0, xmm0
  00309	0f 2f c2	 comiss	 xmm0, xmm2
  0030c	0f 28 c2	 movaps	 xmm0, xmm2
  0030f	f3 0f 59 44 24
	18		 mulss	 xmm0, DWORD PTR tv2076[esp+360]
  00315	0f 86 9e 00 00
	00		 jbe	 $LN18@SlideVecto
; File C:\IAGOS\server\v18\Source\Source\DX_SDK\d3dx9math.inl

; 302  :     z = fz;

  0031b	f3 0f 10 18	 movss	 xmm3, DWORD PTR [eax]

; 383  :     return D3DXVECTOR3(x - v.x, y - v.y, z - v.z);

  0031f	f3 0f 10 48 08	 movss	 xmm1, DWORD PTR [eax+8]

; 302  :     z = fz;

  00324	f3 0f 5c d8	 subss	 xmm3, xmm0
  00328	0f 28 c2	 movaps	 xmm0, xmm2
  0032b	f3 0f 59 54 24
	14		 mulss	 xmm2, DWORD PTR tv2039[esp+360]
  00331	f3 0f 59 44 24
	10		 mulss	 xmm0, DWORD PTR tv2035[esp+360]
; File C:\IAGOS\server\v18\Source\Source\_Common\object3d.cpp

; 1763 : 							vIntersect = vPos - fDist * vDir;	// 교차점을 계산.

  00337	f3 0f 11 5c 24
	58		 movss	 DWORD PTR _vIntersect$[esp+360], xmm3
; File C:\IAGOS\server\v18\Source\Source\DX_SDK\d3dx9math.inl

; 383  :     return D3DXVECTOR3(x - v.x, y - v.y, z - v.z);

  0033d	f3 0f 5c ca	 subss	 xmm1, xmm2
  00341	f3 0f 10 58 04	 movss	 xmm3, DWORD PTR [eax+4]
  00346	f3 0f 5c d8	 subss	 xmm3, xmm0
; File C:\IAGOS\server\v18\Source\Source\_Common\object3d.cpp

; 1763 : 							vIntersect = vPos - fDist * vDir;	// 교차점을 계산.

  0034a	f3 0f 11 4c 24
	60		 movss	 DWORD PTR _vIntersect$[esp+368], xmm1
  00350	f3 0f 11 5c 24
	5c		 movss	 DWORD PTR _vIntersect$[esp+364], xmm3
  00356	e9 8d 00 00 00	 jmp	 $LN19@SlideVecto
$LN15@SlideVecto:

; 1792 : 					}
; 1793 : 				}
; 1794 : 				else
; 1795 : 				{
; 1796 : 					if(fDist >= 0.0f)

  0035b	f3 0f 10 44 24
	30		 movss	 xmm0, DWORD PTR _fDist$[esp+360]
  00361	0f 2f 05 00 00
	00 00		 comiss	 xmm0, DWORD PTR __real@00000000
  00368	72 11		 jb	 SHORT $LN5@SlideVecto

; 1797 : 					{
; 1798 : 						if( fDist < 1.0f )

  0036a	f3 0f 10 0d 00
	00 00 00	 movss	 xmm1, DWORD PTR __real@3f800000
  00372	0f 2f c8	 comiss	 xmm1, xmm0
  00375	0f 87 68 02 00
	00		 ja	 $LN108@SlideVecto
$LN5@SlideVecto:

; 1741 : 		for( j = 0; j < nMaxFace; j++ )

  0037b	8b 44 24 34	 mov	 eax, DWORD PTR _j$1$[esp+360]
  0037f	40		 inc	 eax
  00380	89 44 24 34	 mov	 DWORD PTR _j$1$[esp+360], eax
  00384	3b 44 24 38	 cmp	 eax, DWORD PTR _nMaxFace$1$[esp+360]
  00388	0f 8c 92 fe ff
	ff		 jl	 $LL7@SlideVecto
  0038e	8b 7c 24 2c	 mov	 edi, DWORD PTR _pObject$1$[esp+360]
$LN2@SlideVecto:

; 1722 : 
; 1723 : 	for( i = 0; i < nMaxObj; i++ )

  00392	8b 54 24 3c	 mov	 edx, DWORD PTR _i$1$[esp+360]
  00396	83 44 24 20 40	 add	 DWORD PTR tv2036[esp+360], 64 ; 00000040H
  0039b	42		 inc	 edx
  0039c	89 54 24 3c	 mov	 DWORD PTR _i$1$[esp+360], edx
  003a0	3b 54 24 40	 cmp	 edx, DWORD PTR _nMaxObj$1$[esp+360]
  003a4	0f 8d 40 04 00
	00		 jge	 $LN111@SlideVecto
  003aa	8b 07		 mov	 eax, DWORD PTR [edi]
  003ac	8b 4c 24 44	 mov	 ecx, DWORD PTR _mWorld$GSCopy$1$[esp+360]
  003b0	8b 54 24 1c	 mov	 edx, DWORD PTR _this$GSCopy$1$[esp+360]
  003b4	e9 ed fc ff ff	 jmp	 $LL4@SlideVecto
$LN18@SlideVecto:
; File C:\IAGOS\server\v18\Source\Source\DX_SDK\d3dx9math.inl

; 302  :     z = fz;

  003b9	f3 0f 58 00	 addss	 xmm0, DWORD PTR [eax]
; File C:\IAGOS\server\v18\Source\Source\_Common\object3d.cpp

; 1765 : 							vIntersect = vPos + fDist * vDir;	// 교차점을 계산.

  003bd	f3 0f 11 44 24
	58		 movss	 DWORD PTR _vIntersect$[esp+360], xmm0
; File C:\IAGOS\server\v18\Source\Source\DX_SDK\d3dx9math.inl

; 300  :     x = fx;

  003c3	0f 28 c2	 movaps	 xmm0, xmm2
  003c6	f3 0f 59 44 24
	10		 mulss	 xmm0, DWORD PTR tv2035[esp+360]

; 301  :     y = fy;

  003cc	f3 0f 59 54 24
	14		 mulss	 xmm2, DWORD PTR tv2039[esp+360]

; 377  :     return D3DXVECTOR3(x + v.x, y + v.y, z + v.z);

  003d2	f3 0f 58 40 04	 addss	 xmm0, DWORD PTR [eax+4]
  003d7	f3 0f 58 50 08	 addss	 xmm2, DWORD PTR [eax+8]
; File C:\IAGOS\server\v18\Source\Source\_Common\object3d.cpp

; 1765 : 							vIntersect = vPos + fDist * vDir;	// 교차점을 계산.

  003dc	f3 0f 11 44 24
	5c		 movss	 DWORD PTR _vIntersect$[esp+364], xmm0
  003e2	f3 0f 11 54 24
	60		 movss	 DWORD PTR _vIntersect$[esp+368], xmm2
$LN19@SlideVecto:
; File C:\IAGOS\server\v18\Source\Source\DX_SDK\d3dx9math.inl

; 383  :     return D3DXVECTOR3(x - v.x, y - v.y, z - v.z);

  003e8	8b 44 24 48	 mov	 eax, DWORD PTR _v2$1$[esp+360]
  003ec	f3 0f 10 38	 movss	 xmm7, DWORD PTR [eax]
  003f0	f3 0f 10 70 04	 movss	 xmm6, DWORD PTR [eax+4]
  003f5	f3 0f 10 58 08	 movss	 xmm3, DWORD PTR [eax+8]
  003fa	f3 0f 5c 77 04	 subss	 xmm6, DWORD PTR [edi+4]
  003ff	f3 0f 5c 5f 08	 subss	 xmm3, DWORD PTR [edi+8]
  00404	8b 44 24 4c	 mov	 eax, DWORD PTR _v3$1$[esp+360]
  00408	f3 0f 5c 3f	 subss	 xmm7, DWORD PTR [edi]
  0040c	f3 0f 10 60 04	 movss	 xmm4, DWORD PTR [eax+4]
  00411	f3 0f 10 50 08	 movss	 xmm2, DWORD PTR [eax+8]
  00416	f3 0f 5c 67 04	 subss	 xmm4, DWORD PTR [edi+4]
  0041b	f3 0f 5c 57 08	 subss	 xmm2, DWORD PTR [edi+8]
  00420	f3 0f 10 28	 movss	 xmm5, DWORD PTR [eax]
; File C:\IAGOS\server\v18\Source\Source\_Common\object3d.cpp

; 1771 : 						D3DXVec3TransformCoord( &vN, &vN, &mInv );	// 충돌한면의 노말을 원래대로(mWorld)돌림.

  00424	8d 84 24 a0 00
	00 00		 lea	 eax, DWORD PTR _mInv$[esp+360]
; File C:\IAGOS\server\v18\Source\Source\DX_SDK\d3dx9math.inl

; 383  :     return D3DXVECTOR3(x - v.x, y - v.y, z - v.z);

  0042b	f3 0f 5c 2f	 subss	 xmm5, DWORD PTR [edi]
; File C:\IAGOS\server\v18\Source\Source\_Common\object3d.cpp

; 1771 : 						D3DXVec3TransformCoord( &vN, &vN, &mInv );	// 충돌한면의 노말을 원래대로(mWorld)돌림.

  0042f	50		 push	 eax
; File C:\IAGOS\server\v18\Source\Source\DX_SDK\d3dx9math.inl

; 1722 :     v.x = pV1->y * pV2->z - pV1->z * pV2->y;

  00430	0f 28 c4	 movaps	 xmm0, xmm4
; File C:\IAGOS\server\v18\Source\Source\_Common\object3d.cpp

; 1771 : 						D3DXVec3TransformCoord( &vN, &vN, &mInv );	// 충돌한면의 노말을 원래대로(mWorld)돌림.

  00433	8d 44 24 68	 lea	 eax, DWORD PTR _vN$[esp+364]
; File C:\IAGOS\server\v18\Source\Source\DX_SDK\d3dx9math.inl

; 1722 :     v.x = pV1->y * pV2->z - pV1->z * pV2->y;

  00437	f3 0f 59 c3	 mulss	 xmm0, xmm3
; File C:\IAGOS\server\v18\Source\Source\_Common\object3d.cpp

; 1767 : 						vB = *v3 - *v1;

  0043b	0f 28 ca	 movaps	 xmm1, xmm2

; 1771 : 						D3DXVec3TransformCoord( &vN, &vN, &mInv );	// 충돌한면의 노말을 원래대로(mWorld)돌림.

  0043e	50		 push	 eax
  0043f	f3 0f 59 ce	 mulss	 xmm1, xmm6
  00443	50		 push	 eax
; File C:\IAGOS\server\v18\Source\Source\DX_SDK\d3dx9math.inl

; 1723 :     v.y = pV1->z * pV2->x - pV1->x * pV2->z;

  00444	f3 0f 59 d7	 mulss	 xmm2, xmm7
  00448	f3 0f 5c c8	 subss	 xmm1, xmm0
  0044c	f3 0f 59 e7	 mulss	 xmm4, xmm7
  00450	0f 28 c5	 movaps	 xmm0, xmm5

; 1724 :     v.z = pV1->x * pV2->y - pV1->y * pV2->x;

  00453	f3 0f 59 ee	 mulss	 xmm5, xmm6
  00457	f3 0f 59 c3	 mulss	 xmm0, xmm3
  0045b	f3 0f 5c e5	 subss	 xmm4, xmm5

; 1725 : 
; 1726 :     *pOut = v;

  0045f	f3 0f 11 4c 24
	70		 movss	 DWORD PTR _vN$[esp+372], xmm1
  00465	f3 0f 5c c2	 subss	 xmm0, xmm2
  00469	f3 0f 11 64 24
	78		 movss	 DWORD PTR _vN$[esp+380], xmm4
  0046f	f3 0f 11 44 24
	74		 movss	 DWORD PTR _vN$[esp+376], xmm0
; File C:\IAGOS\server\v18\Source\Source\_Common\object3d.cpp

; 1769 : 						mInv = mTM;

  00475	0f 10 84 24 ec
	00 00 00	 movups	 xmm0, XMMWORD PTR _mTM$[esp+372]
  0047d	0f 11 84 24 ac
	00 00 00	 movups	 XMMWORD PTR _mInv$[esp+372], xmm0
  00485	0f 10 84 24 fc
	00 00 00	 movups	 xmm0, XMMWORD PTR _mTM$[esp+388]
  0048d	0f 11 84 24 bc
	00 00 00	 movups	 XMMWORD PTR _mInv$[esp+388], xmm0
  00495	0f 10 84 24 0c
	01 00 00	 movups	 xmm0, XMMWORD PTR _mTM$[esp+404]
  0049d	0f 11 84 24 cc
	00 00 00	 movups	 XMMWORD PTR _mInv$[esp+404], xmm0
  004a5	0f 10 84 24 1c
	01 00 00	 movups	 xmm0, XMMWORD PTR _mTM$[esp+420]
  004ad	0f 11 84 24 dc
	00 00 00	 movups	 XMMWORD PTR _mInv$[esp+420], xmm0

; 1770 : 						mInv._41 = mInv._42 = mInv._43 = 0;

  004b5	c7 84 24 e4 00
	00 00 00 00 00
	00		 mov	 DWORD PTR _mInv$[esp+428], 0
  004c0	c7 84 24 e0 00
	00 00 00 00 00
	00		 mov	 DWORD PTR _mInv$[esp+424], 0
  004cb	c7 84 24 dc 00
	00 00 00 00 00
	00		 mov	 DWORD PTR _mInv$[esp+420], 0

; 1771 : 						D3DXVec3TransformCoord( &vN, &vN, &mInv );	// 충돌한면의 노말을 원래대로(mWorld)돌림.

  004d6	e8 00 00 00 00	 call	 _D3DXVec3TransformCoord@12

; 1772 : 
; 1773 : 						if( vN.x == 0 && vN.z == 0 )

  004db	f3 0f 10 44 24
	64		 movss	 xmm0, DWORD PTR _vN$[esp+360]
  004e1	0f 57 c9	 xorps	 xmm1, xmm1
  004e4	0f 2e c1	 ucomiss xmm0, xmm1
  004e7	9f		 lahf
  004e8	f6 c4 44	 test	 ah, 68			; 00000044H
  004eb	7a 1c		 jp	 SHORT $LN20@SlideVecto
  004ed	f3 0f 10 44 24
	6c		 movss	 xmm0, DWORD PTR _vN$[esp+368]
  004f3	0f 2e c1	 ucomiss xmm0, xmm1
  004f6	9f		 lahf
  004f7	f6 c4 44	 test	 ah, 68			; 00000044H
  004fa	7a 0d		 jp	 SHORT $LN20@SlideVecto

; 1774 : 							Error( "CActionMover::ProcessCollisionGround : 충돌한 면의 노말이 완전 수직이다" );

  004fc	68 00 00 00 00	 push	 OFFSET ??_C@_0EI@DEOEDIHF@CActionMover?3?3ProcessCollisionG@
  00501	e8 00 00 00 00	 call	 ?Error@@YAPBDPBDZZ	; Error
  00506	83 c4 04	 add	 esp, 4
$LN20@SlideVecto:

; 1775 : 
; 1776 : 						vN.y = 0;	// y성분을 없애서 수직면의 법선인것처럼 변환
; 1777 : 						D3DXVec3Normalize( &vN, &vN );		// 최종 단위벡터로 변환

  00509	8d 44 24 64	 lea	 eax, DWORD PTR _vN$[esp+360]
  0050d	c7 44 24 68 00
	00 00 00	 mov	 DWORD PTR _vN$[esp+364], 0
  00515	50		 push	 eax
  00516	50		 push	 eax
  00517	e8 00 00 00 00	 call	 _D3DXVec3Normalize@8

; 1778 : 						
; 1779 : 						// 자, 이제 vIntersect와 vN은 월드좌표계로 준비가 되었다.
; 1780 : 						vTemp = vEnd - vIntersect;		// 교차점 - 라인끝 vector V라고 칭함
; 1781 : 						*pIntersect = vIntersect;		// 교차점을 받아둠

  0051c	8b 4c 24 50	 mov	 ecx, DWORD PTR _pIntersect$GSCopy$1$[esp+360]
  00520	f3 0f 7e 44 24
	58		 movq	 xmm0, QWORD PTR _vIntersect$[esp+360]

; 1783 : 						vInvDir.x = -vDir.x;	vInvDir.y = -vDir.y;	vInvDir.z = -vDir.z;	// -D

  00526	f3 0f 10 0d 00
	00 00 00	 movss	 xmm1, DWORD PTR __xmm@80000000800000008000000080000000
  0052e	f3 0f 10 74 24
	10		 movss	 xmm6, DWORD PTR tv2035[esp+360]
  00534	66 0f d6 01	 movq	 QWORD PTR [ecx], xmm0
  00538	0f 57 f1	 xorps	 xmm6, xmm1
  0053b	f3 0f 59 74 24
	68		 mulss	 xmm6, DWORD PTR _vN$[esp+364]
  00541	8b 44 24 60	 mov	 eax, DWORD PTR _vIntersect$[esp+368]
  00545	f3 0f 10 44 24
	18		 movss	 xmm0, DWORD PTR tv2076[esp+360]
  0054b	0f 57 c1	 xorps	 xmm0, xmm1
  0054e	89 41 08	 mov	 DWORD PTR [ecx+8], eax
; File C:\IAGOS\server\v18\Source\Source\DX_SDK\d3dx9math.inl

; 1709 :     return pV1->x * pV2->x + pV1->y * pV2->y + pV1->z * pV2->z;

  00551	f3 0f 59 44 24
	64		 mulss	 xmm0, DWORD PTR _vN$[esp+360]
; File C:\IAGOS\server\v18\Source\Source\_Common\object3d.cpp

; 1789 : 						*pOut = vTemp;		// 미끄러진 벡터를 결과로 받도록 바꿔보자.

  00557	8b 4c 24 54	 mov	 ecx, DWORD PTR _pOut$GSCopy$1$[esp+360]
; File C:\IAGOS\server\v18\Source\Source\DX_SDK\d3dx9math.inl

; 1709 :     return pV1->x * pV2->x + pV1->y * pV2->y + pV1->z * pV2->z;

  0055b	f3 0f 58 f0	 addss	 xmm6, xmm0
; File C:\IAGOS\server\v18\Source\Source\_Common\object3d.cpp

; 1783 : 						vInvDir.x = -vDir.x;	vInvDir.y = -vDir.y;	vInvDir.z = -vDir.z;	// -D

  0055f	f3 0f 10 44 24
	14		 movss	 xmm0, DWORD PTR tv2039[esp+360]
  00565	0f 57 c1	 xorps	 xmm0, xmm1
; File C:\IAGOS\server\v18\Source\Source\DX_SDK\d3dx9math.inl

; 1709 :     return pV1->x * pV2->x + pV1->y * pV2->y + pV1->z * pV2->z;

  00568	f3 0f 59 44 24
	6c		 mulss	 xmm0, DWORD PTR _vN$[esp+368]
  0056e	f3 0f 58 f0	 addss	 xmm6, xmm0
; File C:\IAGOS\server\v18\Source\Source\_Common\object3d.cpp

; 1786 : 						vTemp = vDir + vN;								// 최종 반사벡터.

  00572	f3 0f 10 05 00
	00 00 00	 movss	 xmm0, DWORD PTR __real@3e4ccccd
  0057a	f3 0f 58 f6	 addss	 xmm6, xmm6
; File C:\IAGOS\server\v18\Source\Source\DX_SDK\d3dx9math.inl

; 342  :     x *= f;

  0057e	0f 28 e6	 movaps	 xmm4, xmm6

; 343  :     y *= f;

  00581	0f 28 ce	 movaps	 xmm1, xmm6
  00584	f3 0f 59 64 24
	64		 mulss	 xmm4, DWORD PTR _vN$[esp+360]
  0058a	f3 0f 59 4c 24
	68		 mulss	 xmm1, DWORD PTR _vN$[esp+364]

; 344  :     z *= f;

  00590	f3 0f 59 74 24
	6c		 mulss	 xmm6, DWORD PTR _vN$[esp+368]
  00596	f3 0f 58 64 24
	18		 addss	 xmm4, DWORD PTR tv2076[esp+360]

; 300  :     x = fx;

  0059c	f3 0f 58 4c 24
	10		 addss	 xmm1, DWORD PTR tv2035[esp+360]

; 301  :     y = fy;

  005a2	f3 0f 58 74 24
	14		 addss	 xmm6, DWORD PTR tv2039[esp+360]
; File C:\IAGOS\server\v18\Source\Source\_Common\object3d.cpp

; 1786 : 						vTemp = vDir + vN;								// 최종 반사벡터.

  005a8	f3 0f 59 e0	 mulss	 xmm4, xmm0
; File C:\IAGOS\server\v18\Source\Source\DX_SDK\d3dx9math.inl

; 1794 :     pOut->x = pV->x * s;

  005ac	f3 0f 59 c8	 mulss	 xmm1, xmm0

; 1795 :     pOut->y = pV->y * s;

  005b0	f3 0f 59 f0	 mulss	 xmm6, xmm0
; File C:\IAGOS\server\v18\Source\Source\_Common\object3d.cpp

; 1789 : 						*pOut = vTemp;		// 미끄러진 벡터를 결과로 받도록 바꿔보자.

  005b4	0f 14 e1	 unpcklps xmm4, xmm1
  005b7	66 0f d6 21	 movq	 QWORD PTR [ecx], xmm4
; File C:\IAGOS\server\v18\Source\Source\DX_SDK\d3dx9math.inl

; 1796 :     pOut->z = pV->z * s;

  005bb	f3 0f 11 74 24
	78		 movss	 DWORD PTR _vTemp$[esp+368], xmm6
; File C:\IAGOS\server\v18\Source\Source\_Common\object3d.cpp

; 1789 : 						*pOut = vTemp;		// 미끄러진 벡터를 결과로 받도록 바꿔보자.

  005c1	8b 44 24 78	 mov	 eax, DWORD PTR _vTemp$[esp+368]
  005c5	89 41 08	 mov	 DWORD PTR [ecx+8], eax

; 1790 : 						
; 1791 : 						return 1;

  005c8	b8 01 00 00 00	 mov	 eax, 1

; 1825 : 						}
; 1826 : 					}
; 1827 : 				}
; 1828 : 				
; 1829 : 			}
; 1830 : 		}
; 1831 : 	}
; 1832 : 	return 0;
; 1833 : #else
; 1834 : 			if( bRet && fDist >= 0.0f )	// 반대방향 면은 검사하지 않음.
; 1835 : 			{
; 1836 : 				// 정확하게 하려면 모든 면을 다 검사해서 가장 가까운것을 골라야 하나
; 1837 : 				// S자 형태로 구부러진 면이 없다는 가정하에 간략화 시킨다.
; 1838 : 				if( fDist < 1.0f )
; 1839 : 				{
; 1840 : 					// Line과 닿은 삼각형을 찾아냈다.
; 1841 : 					vDir = vEnd - vPos;
; 1842 : //					fDist *= 0.5f;
; 1843 : 					vIntersect = vPos + fDist * vDir;	// 교차점을 계산.
; 1844 : 					vA = *v2 - *v1;
; 1845 : 					vB = *v3 - *v1;
; 1846 : 					D3DXVec3Cross( &vN, &vA, &vB );		// 충돌한 면의 노말 구함. 이건 나중에 미리 계산해두자.
; 1847 : 					mInv = mTM;
; 1848 : 					mInv._41 = mInv._42 = mInv._43 = 0;
; 1849 : 					D3DXVec3TransformCoord( &vN, &vN, &mInv );	// 충돌한면의 노말을 원래대로(mWorld)돌림.
; 1850 : 
; 1851 : 					if( vN.x == 0 && vN.z == 0 )
; 1852 : 						Error( "CActionMover::ProcessCollisionGround : 충돌한 면의 노말이 완전 수직이다" );
; 1853 : 
; 1854 : 					vN.y = 0;	// y성분을 없애서 수직면의 법선인것처럼 변환
; 1855 : 					D3DXVec3Normalize( &vN, &vN );		// 최종 단위벡터로 변환
; 1856 : 					
; 1857 : 					// 자, 이제 vIntersect와 vN은 월드좌표계로 준비가 되었다.
; 1858 : 					vTemp = vEnd - vIntersect;		// 교차점 - 라인끝 vector V라고 칭함
; 1859 : 					*pIntersect = vIntersect;		// 교차점을 받아둠
; 1860 : 					CalcSlideVec( &vTemp, vTemp, vN );
; 1861 : 					
; 1862 : 					*pOut = vTemp;		// 미끄러진 벡터를 결과로 받도록 바꿔보자.
; 1863 : //					*pOut = vTemp;
; 1864 : 					
; 1865 : 					return 1;
; 1866 : 				}
; 1867 : 			}
; 1868 : 		}
; 1869 : 	}
; 1870 : 	return 0;
; 1871 : #endif		
; 1872 : 			
; 1873 : 					
; 1874 : 
; 1875 : 					
; 1876 : }

  005cd	5f		 pop	 edi
  005ce	5e		 pop	 esi
  005cf	8b 8c 24 5c 01
	00 00		 mov	 ecx, DWORD PTR __$ArrayPad$[esp+352]
  005d6	33 cc		 xor	 ecx, esp
  005d8	e8 00 00 00 00	 call	 @__security_check_cookie@4
  005dd	8b e5		 mov	 esp, ebp
  005df	5d		 pop	 ebp
  005e0	c2 18 00	 ret	 24			; 00000018H
$LN108@SlideVecto:
; File C:\IAGOS\server\v18\Source\Source\DX_SDK\d3dx9math.inl

; 377  :     return D3DXVECTOR3(x + v.x, y + v.y, z + v.z);

  005e3	8b 44 24 0c	 mov	 eax, DWORD PTR _vPos$GSCopy$1$[esp+360]
; File C:\IAGOS\server\v18\Source\Source\_Common\object3d.cpp

; 1802 : 							vIntersect = vPos + fDist * vDir;	// 교차점을 계산.

  005e7	0f 28 c8	 movaps	 xmm1, xmm0
  005ea	f3 0f 59 4c 24
	18		 mulss	 xmm1, DWORD PTR tv2076[esp+360]
; File C:\IAGOS\server\v18\Source\Source\DX_SDK\d3dx9math.inl

; 377  :     return D3DXVECTOR3(x + v.x, y + v.y, z + v.z);

  005f0	f3 0f 58 08	 addss	 xmm1, DWORD PTR [eax]
  005f4	f3 0f 11 4c 24
	2c		 movss	 DWORD PTR tv2025[esp+360], xmm1

; 300  :     x = fx;

  005fa	0f 28 c8	 movaps	 xmm1, xmm0

; 301  :     y = fy;

  005fd	f3 0f 59 44 24
	14		 mulss	 xmm0, DWORD PTR tv2039[esp+360]
  00603	f3 0f 59 4c 24
	10		 mulss	 xmm1, DWORD PTR tv2035[esp+360]

; 377  :     return D3DXVECTOR3(x + v.x, y + v.y, z + v.z);

  00609	f3 0f 58 40 08	 addss	 xmm0, DWORD PTR [eax+8]
  0060e	f3 0f 58 48 04	 addss	 xmm1, DWORD PTR [eax+4]

; 383  :     return D3DXVECTOR3(x - v.x, y - v.y, z - v.z);

  00613	8b 44 24 48	 mov	 eax, DWORD PTR _v2$1$[esp+360]

; 377  :     return D3DXVECTOR3(x + v.x, y + v.y, z + v.z);

  00617	f3 0f 11 44 24
	1c		 movss	 DWORD PTR _fDist$2$[esp+360], xmm0

; 383  :     return D3DXVECTOR3(x - v.x, y - v.y, z - v.z);

  0061d	f3 0f 10 38	 movss	 xmm7, DWORD PTR [eax]
  00621	f3 0f 10 70 04	 movss	 xmm6, DWORD PTR [eax+4]
  00626	f3 0f 10 58 08	 movss	 xmm3, DWORD PTR [eax+8]
  0062b	f3 0f 5c 77 04	 subss	 xmm6, DWORD PTR [edi+4]
  00630	f3 0f 5c 5f 08	 subss	 xmm3, DWORD PTR [edi+8]
  00635	8b 44 24 4c	 mov	 eax, DWORD PTR _v3$1$[esp+360]
  00639	f3 0f 5c 3f	 subss	 xmm7, DWORD PTR [edi]

; 377  :     return D3DXVECTOR3(x + v.x, y + v.y, z + v.z);

  0063d	f3 0f 11 4c 24
	28		 movss	 DWORD PTR tv2026[esp+360], xmm1

; 383  :     return D3DXVECTOR3(x - v.x, y - v.y, z - v.z);

  00643	f3 0f 10 60 04	 movss	 xmm4, DWORD PTR [eax+4]
  00648	f3 0f 10 50 08	 movss	 xmm2, DWORD PTR [eax+8]
  0064d	f3 0f 5c 67 04	 subss	 xmm4, DWORD PTR [edi+4]
  00652	f3 0f 5c 57 08	 subss	 xmm2, DWORD PTR [edi+8]
  00657	f3 0f 10 28	 movss	 xmm5, DWORD PTR [eax]
; File C:\IAGOS\server\v18\Source\Source\_Common\object3d.cpp

; 1809 : 							D3DXVec3TransformCoord( &vN, &vN, &mInv );	// 충돌한면의 노말을 원래대로(mWorld)돌림.

  0065b	8d 84 24 a0 00
	00 00		 lea	 eax, DWORD PTR _mInv$[esp+360]
; File C:\IAGOS\server\v18\Source\Source\DX_SDK\d3dx9math.inl

; 383  :     return D3DXVECTOR3(x - v.x, y - v.y, z - v.z);

  00662	f3 0f 5c 2f	 subss	 xmm5, DWORD PTR [edi]
; File C:\IAGOS\server\v18\Source\Source\_Common\object3d.cpp

; 1809 : 							D3DXVec3TransformCoord( &vN, &vN, &mInv );	// 충돌한면의 노말을 원래대로(mWorld)돌림.

  00666	50		 push	 eax
; File C:\IAGOS\server\v18\Source\Source\DX_SDK\d3dx9math.inl

; 1722 :     v.x = pV1->y * pV2->z - pV1->z * pV2->y;

  00667	0f 28 c4	 movaps	 xmm0, xmm4
; File C:\IAGOS\server\v18\Source\Source\_Common\object3d.cpp

; 1809 : 							D3DXVec3TransformCoord( &vN, &vN, &mInv );	// 충돌한면의 노말을 원래대로(mWorld)돌림.

  0066a	8d 44 24 68	 lea	 eax, DWORD PTR _vN$[esp+364]
; File C:\IAGOS\server\v18\Source\Source\DX_SDK\d3dx9math.inl

; 1722 :     v.x = pV1->y * pV2->z - pV1->z * pV2->y;

  0066e	f3 0f 59 c3	 mulss	 xmm0, xmm3
; File C:\IAGOS\server\v18\Source\Source\_Common\object3d.cpp

; 1805 : 							vB = *v3 - *v1;

  00672	0f 28 ca	 movaps	 xmm1, xmm2

; 1809 : 							D3DXVec3TransformCoord( &vN, &vN, &mInv );	// 충돌한면의 노말을 원래대로(mWorld)돌림.

  00675	50		 push	 eax
  00676	f3 0f 59 ce	 mulss	 xmm1, xmm6
  0067a	50		 push	 eax
; File C:\IAGOS\server\v18\Source\Source\DX_SDK\d3dx9math.inl

; 1723 :     v.y = pV1->z * pV2->x - pV1->x * pV2->z;

  0067b	f3 0f 59 d7	 mulss	 xmm2, xmm7
  0067f	f3 0f 5c c8	 subss	 xmm1, xmm0
  00683	f3 0f 59 e7	 mulss	 xmm4, xmm7
  00687	0f 28 c5	 movaps	 xmm0, xmm5

; 1724 :     v.z = pV1->x * pV2->y - pV1->y * pV2->x;

  0068a	f3 0f 59 ee	 mulss	 xmm5, xmm6
  0068e	f3 0f 59 c3	 mulss	 xmm0, xmm3
  00692	f3 0f 5c e5	 subss	 xmm4, xmm5

; 1725 : 
; 1726 :     *pOut = v;

  00696	f3 0f 11 4c 24
	70		 movss	 DWORD PTR _vN$[esp+372], xmm1
  0069c	f3 0f 5c c2	 subss	 xmm0, xmm2
  006a0	f3 0f 11 64 24
	78		 movss	 DWORD PTR _vN$[esp+380], xmm4
  006a6	f3 0f 11 44 24
	74		 movss	 DWORD PTR _vN$[esp+376], xmm0
; File C:\IAGOS\server\v18\Source\Source\_Common\object3d.cpp

; 1807 : 							mInv = mTM;

  006ac	0f 10 84 24 ec
	00 00 00	 movups	 xmm0, XMMWORD PTR _mTM$[esp+372]
  006b4	0f 11 84 24 ac
	00 00 00	 movups	 XMMWORD PTR _mInv$[esp+372], xmm0
  006bc	0f 10 84 24 fc
	00 00 00	 movups	 xmm0, XMMWORD PTR _mTM$[esp+388]
  006c4	0f 11 84 24 bc
	00 00 00	 movups	 XMMWORD PTR _mInv$[esp+388], xmm0
  006cc	0f 10 84 24 0c
	01 00 00	 movups	 xmm0, XMMWORD PTR _mTM$[esp+404]
  006d4	0f 11 84 24 cc
	00 00 00	 movups	 XMMWORD PTR _mInv$[esp+404], xmm0
  006dc	0f 10 84 24 1c
	01 00 00	 movups	 xmm0, XMMWORD PTR _mTM$[esp+420]
  006e4	0f 11 84 24 dc
	00 00 00	 movups	 XMMWORD PTR _mInv$[esp+420], xmm0

; 1808 : 							mInv._41 = mInv._42 = mInv._43 = 0;

  006ec	c7 84 24 e4 00
	00 00 00 00 00
	00		 mov	 DWORD PTR _mInv$[esp+428], 0
  006f7	c7 84 24 e0 00
	00 00 00 00 00
	00		 mov	 DWORD PTR _mInv$[esp+424], 0
  00702	c7 84 24 dc 00
	00 00 00 00 00
	00		 mov	 DWORD PTR _mInv$[esp+420], 0

; 1809 : 							D3DXVec3TransformCoord( &vN, &vN, &mInv );	// 충돌한면의 노말을 원래대로(mWorld)돌림.

  0070d	e8 00 00 00 00	 call	 _D3DXVec3TransformCoord@12

; 1810 : 
; 1811 : 							if( vN.x == 0 && vN.z == 0 )

  00712	f3 0f 10 44 24
	64		 movss	 xmm0, DWORD PTR _vN$[esp+360]
  00718	0f 57 c9	 xorps	 xmm1, xmm1
  0071b	0f 2e c1	 ucomiss xmm0, xmm1
  0071e	9f		 lahf
  0071f	f6 c4 44	 test	 ah, 68			; 00000044H
  00722	7a 1c		 jp	 SHORT $LN23@SlideVecto
  00724	f3 0f 10 44 24
	6c		 movss	 xmm0, DWORD PTR _vN$[esp+368]
  0072a	0f 2e c1	 ucomiss xmm0, xmm1
  0072d	9f		 lahf
  0072e	f6 c4 44	 test	 ah, 68			; 00000044H
  00731	7a 0d		 jp	 SHORT $LN23@SlideVecto

; 1812 : 								Error( "CActionMover::ProcessCollisionGround : 충돌한 면의 노말이 완전 수직이다" );

  00733	68 00 00 00 00	 push	 OFFSET ??_C@_0EI@DEOEDIHF@CActionMover?3?3ProcessCollisionG@
  00738	e8 00 00 00 00	 call	 ?Error@@YAPBDPBDZZ	; Error
  0073d	83 c4 04	 add	 esp, 4
$LN23@SlideVecto:

; 1813 : 
; 1814 : 							vN.y = 0;	// y성분을 없애서 수직면의 법선인것처럼 변환
; 1815 : 							D3DXVec3Normalize( &vN, &vN );		// 최종 단위벡터로 변환

  00740	8d 44 24 64	 lea	 eax, DWORD PTR _vN$[esp+360]
  00744	c7 44 24 68 00
	00 00 00	 mov	 DWORD PTR _vN$[esp+364], 0
  0074c	50		 push	 eax
  0074d	50		 push	 eax
  0074e	e8 00 00 00 00	 call	 _D3DXVec3Normalize@8
; File C:\IAGOS\server\v18\Source\Source\DX_SDK\d3dx9math.inl

; 383  :     return D3DXVECTOR3(x - v.x, y - v.y, z - v.z);

  00753	8b 44 24 24	 mov	 eax, DWORD PTR _vEnd$GSCopy$1$[esp+360]
  00757	f3 0f 10 54 24
	2c		 movss	 xmm2, DWORD PTR tv2025[esp+360]
  0075d	f3 0f 10 5c 24
	28		 movss	 xmm3, DWORD PTR tv2026[esp+360]
  00763	f3 0f 10 4c 24
	1c		 movss	 xmm1, DWORD PTR _fDist$2$[esp+360]
  00769	f3 0f 10 00	 movss	 xmm0, DWORD PTR [eax]
  0076d	f3 0f 5c c2	 subss	 xmm0, xmm2
; File C:\IAGOS\server\v18\Source\Source\_Common\object3d.cpp

; 1818 : 							vTemp = vEnd - vIntersect;		// 교차점 - 라인끝 vector V라고 칭함

  00771	f3 0f 11 44 24
	70		 movss	 DWORD PTR _vTemp$[esp+360], xmm0
; File C:\IAGOS\server\v18\Source\Source\DX_SDK\d3dx9math.inl

; 383  :     return D3DXVECTOR3(x - v.x, y - v.y, z - v.z);

  00777	f3 0f 10 40 04	 movss	 xmm0, DWORD PTR [eax+4]
  0077c	f3 0f 5c c3	 subss	 xmm0, xmm3
; File C:\IAGOS\server\v18\Source\Source\_Common\object3d.cpp

; 1818 : 							vTemp = vEnd - vIntersect;		// 교차점 - 라인끝 vector V라고 칭함

  00780	f3 0f 11 44 24
	74		 movss	 DWORD PTR _vTemp$[esp+364], xmm0
; File C:\IAGOS\server\v18\Source\Source\DX_SDK\d3dx9math.inl

; 383  :     return D3DXVECTOR3(x - v.x, y - v.y, z - v.z);

  00786	f3 0f 10 40 08	 movss	 xmm0, DWORD PTR [eax+8]
; File C:\IAGOS\server\v18\Source\Source\_Common\object3d.cpp

; 1819 : 							*pIntersect = vIntersect;		// 교차점을 받아둠

  0078b	8b 44 24 50	 mov	 eax, DWORD PTR _pIntersect$GSCopy$1$[esp+360]
; File C:\IAGOS\server\v18\Source\Source\DX_SDK\d3dx9math.inl

; 383  :     return D3DXVECTOR3(x - v.x, y - v.y, z - v.z);

  0078f	f3 0f 5c c1	 subss	 xmm0, xmm1
; File C:\IAGOS\server\v18\Source\Source\_Common\object3d.cpp

; 1818 : 							vTemp = vEnd - vIntersect;		// 교차점 - 라인끝 vector V라고 칭함

  00793	f3 0f 11 44 24
	78		 movss	 DWORD PTR _vTemp$[esp+368], xmm0

; 1819 : 							*pIntersect = vIntersect;		// 교차점을 받아둠

  00799	f3 0f 11 10	 movss	 DWORD PTR [eax], xmm2
  0079d	f3 0f 11 58 04	 movss	 DWORD PTR [eax+4], xmm3
  007a2	f3 0f 11 48 08	 movss	 DWORD PTR [eax+8], xmm1

; 1820 : 							CalcSlideVec( &vTemp, vTemp, vN );

  007a7	8d 44 24 64	 lea	 eax, DWORD PTR _vN$[esp+360]
  007ab	50		 push	 eax
  007ac	8d 44 24 74	 lea	 eax, DWORD PTR _vTemp$[esp+364]
  007b0	50		 push	 eax
  007b1	50		 push	 eax
  007b2	e8 00 00 00 00	 call	 ?CalcSlideVec@@YAXPAUD3DXVECTOR3@@ABU1@1@Z ; CalcSlideVec

; 1821 : 							
; 1822 : 							*pOut = vTemp;		// 미끄러진 벡터를 결과로 받도록 바꿔보자.

  007b7	8b 4c 24 60	 mov	 ecx, DWORD PTR _pOut$GSCopy$1$[esp+372]
  007bb	83 c4 0c	 add	 esp, 12			; 0000000cH
  007be	f3 0f 7e 44 24
	70		 movq	 xmm0, QWORD PTR _vTemp$[esp+360]
  007c4	8b 44 24 78	 mov	 eax, DWORD PTR _vTemp$[esp+368]
  007c8	66 0f d6 01	 movq	 QWORD PTR [ecx], xmm0
  007cc	89 41 08	 mov	 DWORD PTR [ecx+8], eax

; 1823 : 							
; 1824 : 							return 1;

  007cf	b8 01 00 00 00	 mov	 eax, 1

; 1825 : 						}
; 1826 : 					}
; 1827 : 				}
; 1828 : 				
; 1829 : 			}
; 1830 : 		}
; 1831 : 	}
; 1832 : 	return 0;
; 1833 : #else
; 1834 : 			if( bRet && fDist >= 0.0f )	// 반대방향 면은 검사하지 않음.
; 1835 : 			{
; 1836 : 				// 정확하게 하려면 모든 면을 다 검사해서 가장 가까운것을 골라야 하나
; 1837 : 				// S자 형태로 구부러진 면이 없다는 가정하에 간략화 시킨다.
; 1838 : 				if( fDist < 1.0f )
; 1839 : 				{
; 1840 : 					// Line과 닿은 삼각형을 찾아냈다.
; 1841 : 					vDir = vEnd - vPos;
; 1842 : //					fDist *= 0.5f;
; 1843 : 					vIntersect = vPos + fDist * vDir;	// 교차점을 계산.
; 1844 : 					vA = *v2 - *v1;
; 1845 : 					vB = *v3 - *v1;
; 1846 : 					D3DXVec3Cross( &vN, &vA, &vB );		// 충돌한 면의 노말 구함. 이건 나중에 미리 계산해두자.
; 1847 : 					mInv = mTM;
; 1848 : 					mInv._41 = mInv._42 = mInv._43 = 0;
; 1849 : 					D3DXVec3TransformCoord( &vN, &vN, &mInv );	// 충돌한면의 노말을 원래대로(mWorld)돌림.
; 1850 : 
; 1851 : 					if( vN.x == 0 && vN.z == 0 )
; 1852 : 						Error( "CActionMover::ProcessCollisionGround : 충돌한 면의 노말이 완전 수직이다" );
; 1853 : 
; 1854 : 					vN.y = 0;	// y성분을 없애서 수직면의 법선인것처럼 변환
; 1855 : 					D3DXVec3Normalize( &vN, &vN );		// 최종 단위벡터로 변환
; 1856 : 					
; 1857 : 					// 자, 이제 vIntersect와 vN은 월드좌표계로 준비가 되었다.
; 1858 : 					vTemp = vEnd - vIntersect;		// 교차점 - 라인끝 vector V라고 칭함
; 1859 : 					*pIntersect = vIntersect;		// 교차점을 받아둠
; 1860 : 					CalcSlideVec( &vTemp, vTemp, vN );
; 1861 : 					
; 1862 : 					*pOut = vTemp;		// 미끄러진 벡터를 결과로 받도록 바꿔보자.
; 1863 : //					*pOut = vTemp;
; 1864 : 					
; 1865 : 					return 1;
; 1866 : 				}
; 1867 : 			}
; 1868 : 		}
; 1869 : 	}
; 1870 : 	return 0;
; 1871 : #endif		
; 1872 : 			
; 1873 : 					
; 1874 : 
; 1875 : 					
; 1876 : }

  007d4	5f		 pop	 edi
  007d5	5e		 pop	 esi
  007d6	8b 8c 24 5c 01
	00 00		 mov	 ecx, DWORD PTR __$ArrayPad$[esp+352]
  007dd	33 cc		 xor	 ecx, esp
  007df	e8 00 00 00 00	 call	 @__security_check_cookie@4
  007e4	8b e5		 mov	 esp, ebp
  007e6	5d		 pop	 ebp
  007e7	c2 18 00	 ret	 24			; 00000018H
$LN111@SlideVecto:
  007ea	8b 8c 24 64 01
	00 00		 mov	 ecx, DWORD PTR __$ArrayPad$[esp+360]
  007f1	33 c0		 xor	 eax, eax
  007f3	5f		 pop	 edi
  007f4	5e		 pop	 esi
  007f5	33 cc		 xor	 ecx, esp
  007f7	e8 00 00 00 00	 call	 @__security_check_cookie@4
  007fc	8b e5		 mov	 esp, ebp
  007fe	5d		 pop	 ebp
  007ff	c2 18 00	 ret	 24			; 00000018H
?SlideVectorXZ2@CObject3D@@QAEHPAUD3DXVECTOR3@@0ABU2@1ABUD3DXMATRIX@@H@Z ENDP ; CObject3D::SlideVectorXZ2
_TEXT	ENDS
; Function compile flags: /Ogtp
; File C:\IAGOS\server\v18\Source\Source\_Common\object3d.cpp
; File C:\IAGOS\server\v18\Source\Source\DX_SDK\d3dx9math.inl
; File C:\IAGOS\server\v18\Source\Source\_Common\object3d.cpp
; File C:\IAGOS\server\v18\Source\Source\DX_SDK\d3dx9math.inl
; File C:\IAGOS\server\v18\Source\Source\_Common\object3d.cpp
; File C:\IAGOS\server\v18\Source\Source\DX_SDK\d3dx9math.inl
; File C:\IAGOS\server\v18\Source\Source\_Common\object3d.cpp
; File C:\IAGOS\server\v18\Source\Source\DX_SDK\d3dx9math.inl
; File C:\IAGOS\server\v18\Source\Source\_Common\object3d.cpp
; File C:\IAGOS\server\v18\Source\Source\DX_SDK\d3dx9math.inl
; File C:\IAGOS\server\v18\Source\Source\_Common\object3d.cpp
; File C:\IAGOS\server\v18\Source\Source\DX_SDK\d3dx9math.inl
; File C:\IAGOS\server\v18\Source\Source\_Common\object3d.cpp
; File C:\IAGOS\server\v18\Source\Source\DX_SDK\d3dx9math.inl
; File C:\IAGOS\server\v18\Source\Source\_Common\object3d.cpp
; File C:\IAGOS\server\v18\Source\Source\DX_SDK\d3dx9math.inl
; File C:\IAGOS\server\v18\Source\Source\_Common\object3d.cpp
; File C:\IAGOS\server\v18\Source\Source\DX_SDK\d3dx9math.inl
; File C:\IAGOS\server\v18\Source\Source\_Common\object3d.cpp
; File C:\IAGOS\server\v18\Source\Source\DX_SDK\d3dx9math.inl
; File C:\IAGOS\server\v18\Source\Source\_Common\object3d.cpp
; File C:\IAGOS\server\v18\Source\Source\DX_SDK\d3dx9math.inl
; File C:\IAGOS\server\v18\Source\Source\_Common\object3d.cpp
; File C:\IAGOS\server\v18\Source\Source\DX_SDK\d3dx9math.inl
; File C:\IAGOS\server\v18\Source\Source\_Common\object3d.cpp
; File C:\IAGOS\server\v18\Source\Source\DX_SDK\d3dx9math.inl
; File C:\IAGOS\server\v18\Source\Source\_Common\object3d.cpp
; File C:\IAGOS\server\v18\Source\Source\DX_SDK\d3dx9math.inl
; File C:\IAGOS\server\v18\Source\Source\_Common\object3d.cpp
; File C:\IAGOS\server\v18\Source\Source\DX_SDK\d3dx9math.inl
; File C:\IAGOS\server\v18\Source\Source\_Common\object3d.cpp
; File C:\IAGOS\server\v18\Source\Source\DX_SDK\d3dx9math.inl
; File C:\IAGOS\server\v18\Source\Source\_Common\object3d.cpp
; File C:\IAGOS\server\v18\Source\Source\DX_SDK\d3dx9math.inl
; File C:\IAGOS\server\v18\Source\Source\_Common\object3d.cpp
; File C:\IAGOS\server\v18\Source\Source\DX_SDK\d3dx9math.inl
; File C:\IAGOS\server\v18\Source\Source\_Common\object3d.cpp
; File C:\IAGOS\server\v18\Source\Source\DX_SDK\d3dx9math.inl
; File C:\IAGOS\server\v18\Source\Source\_Common\object3d.cpp
; File C:\IAGOS\server\v18\Source\Source\DX_SDK\d3dx9math.inl
; File C:\IAGOS\server\v18\Source\Source\_Common\object3d.cpp
; File C:\IAGOS\server\v18\Source\Source\DX_SDK\d3dx9math.inl
; File C:\IAGOS\server\v18\Source\Source\_Common\object3d.cpp
;	COMDAT ?SlideVectorXZ@CObject3D@@QAEHPAUD3DXVECTOR3@@ABU2@1ABUD3DXMATRIX@@HH@Z
_TEXT	SEGMENT
_pOut$GSCopy$1$ = -312					; size = 4
_v3$1$ = -308						; size = 4
_fDist$ = -304						; size = 4
_vPos$GSCopy$1$ = -300					; size = 4
_nMaxObj$1$ = -296					; size = 4
_i$1$ = -292						; size = 4
_j$1$ = -288						; size = 4
tv1060 = -284						; size = 4
_pObject$1$ = -284					; size = 4
tv1061 = -280						; size = 4
_nMaxFace$1$ = -280					; size = 4
tv1063 = -276						; size = 4
_pVB$1$ = -276						; size = 4
_this$GSCopy$1$ = -272					; size = 4
_mWorld$GSCopy$1$ = -268				; size = 4
_vEnd$GSCopy$1$ = -264					; size = 4
tv1062 = -260						; size = 4
$T1 = -256						; size = 64
_mInv$ = -192						; size = 64
_mTM$ = -128						; size = 64
_vInvDir$ = -64						; size = 12
_vInvEnd$ = -52						; size = 12
_vInvPos$ = -40						; size = 12
_vN$ = -28						; size = 12
_vTemp$ = -16						; size = 12
__$ArrayPad$ = -4					; size = 4
_pOut$ = 8						; size = 4
_vPos$ = 12						; size = 4
_vEnd$ = 16						; size = 4
_mWorld$ = 20						; size = 4
_bCollObj$ = 24						; size = 4
_nSlideCnt$ = 28					; size = 4
?SlideVectorXZ@CObject3D@@QAEHPAUD3DXVECTOR3@@ABU2@1ABUD3DXMATRIX@@HH@Z PROC ; CObject3D::SlideVectorXZ, COMDAT
; _this$ = ecx

; 1592 : {

  00000	55		 push	 ebp
  00001	8b ec		 mov	 ebp, esp
  00003	81 ec 38 01 00
	00		 sub	 esp, 312		; 00000138H
  00009	a1 00 00 00 00	 mov	 eax, DWORD PTR ___security_cookie
  0000e	33 c5		 xor	 eax, ebp
  00010	89 45 fc	 mov	 DWORD PTR __$ArrayPad$[ebp], eax

; 1593 : 	D3DXVECTOR3	*v1, *v2, *v3;
; 1594 : 	D3DXVECTOR3	vInvPos, vInvEnd, vInvDir, vDir, vIntersect;
; 1595 : 	D3DXVECTOR3 vA, vB, vN, vTemp;
; 1596 : 	D3DXMATRIX	mTM, mInv;
; 1597 : 	int		nMaxFace;
; 1598 : 	GMOBJECT* pObject = &m_CollObject;		// 충돌메시로 충돌검사.
; 1599 : //	GMOBJECT* pObject = m_Group[0].m_pObject;
; 1600 : 	NORMALVERTEX *pVB;
; 1601 : 	WORD		*pIB;
; 1602 : 	int		j;
; 1603 : 	FLOAT	fDist;
; 1604 : 	BOOL	bRet;
; 1605 : 
; 1606 : 	int i;
; 1607 : 	LOD_GROUP *pGroup = &m_Group[0];
; 1608 : 	int		nMaxObj = 1;
; 1609 : 	if( bCollObj == FALSE )		// 충돌메시로 충돌검사 하지마라.

  00013	83 7d 18 00	 cmp	 DWORD PTR _bCollObj$[ebp], 0
  00017	8b d1		 mov	 edx, ecx
  00019	8b 45 08	 mov	 eax, DWORD PTR _pOut$[ebp]
  0001c	8b 4d 14	 mov	 ecx, DWORD PTR _mWorld$[ebp]
  0001f	53		 push	 ebx
  00020	89 85 c8 fe ff
	ff		 mov	 DWORD PTR _pOut$GSCopy$1$[ebp], eax
  00026	8d 9a 00 01 00
	00		 lea	 ebx, DWORD PTR [edx+256]
  0002c	8b 45 0c	 mov	 eax, DWORD PTR _vPos$[ebp]
  0002f	56		 push	 esi
  00030	89 85 d4 fe ff
	ff		 mov	 DWORD PTR _vPos$GSCopy$1$[ebp], eax
  00036	be 01 00 00 00	 mov	 esi, 1
  0003b	8b 45 10	 mov	 eax, DWORD PTR _vEnd$[ebp]
  0003e	89 95 f0 fe ff
	ff		 mov	 DWORD PTR _this$GSCopy$1$[ebp], edx
  00044	89 85 f8 fe ff
	ff		 mov	 DWORD PTR _vEnd$GSCopy$1$[ebp], eax
  0004a	89 8d f4 fe ff
	ff		 mov	 DWORD PTR _mWorld$GSCopy$1$[ebp], ecx
  00050	89 b5 d8 fe ff
	ff		 mov	 DWORD PTR _nMaxObj$1$[ebp], esi
  00056	75 27		 jne	 SHORT $LN64@SlideVecto

; 1610 : 	{
; 1611 : 		pObject = pGroup->m_pObject;
; 1612 : 		nMaxObj = pGroup->m_nMaxObject;
; 1613 : 		if( pGroup->_mUpdate == NULL )		

  00058	83 7a 0c 00	 cmp	 DWORD PTR [edx+12], 0
  0005c	8b 72 04	 mov	 esi, DWORD PTR [edx+4]
  0005f	8b 5a 08	 mov	 ebx, DWORD PTR [edx+8]
  00062	89 b5 d8 fe ff
	ff		 mov	 DWORD PTR _nMaxObj$1$[ebp], esi
  00068	75 15		 jne	 SHORT $LN64@SlideVecto

; 1614 : 			return FAIL;

  0006a	5e		 pop	 esi
  0006b	83 c8 ff	 or	 eax, -1

; 1685 : 				}
; 1686 : 			}
; 1687 : 		}
; 1688 : 	}
; 1689 : //	_nSlideCnt = 0;
; 1690 : 	return 0;
; 1691 : }

  0006e	5b		 pop	 ebx
  0006f	8b 4d fc	 mov	 ecx, DWORD PTR __$ArrayPad$[ebp]
  00072	33 cd		 xor	 ecx, ebp
  00074	e8 00 00 00 00	 call	 @__security_check_cookie@4
  00079	8b e5		 mov	 esp, ebp
  0007b	5d		 pop	 ebp
  0007c	c2 18 00	 ret	 24			; 00000018H
$LN64@SlideVecto:

; 1615 : 	}
; 1616 : 	
; 1617 : 	if( pObject->m_Type == GMT_ERROR )		return 0;

  0007f	8b 03		 mov	 eax, DWORD PTR [ebx]
  00081	57		 push	 edi
  00082	83 f8 ff	 cmp	 eax, -1
  00085	0f 84 4c 04 00
	00		 je	 $LN58@SlideVecto

; 1618 : 
; 1619 : 	for( i = 0; i < nMaxObj; i++ )

  0008b	c7 85 dc fe ff
	ff 00 00 00 00	 mov	 DWORD PTR _i$1$[ebp], 0
  00095	85 f6		 test	 esi, esi
  00097	0f 8e 3a 04 00
	00		 jle	 $LN58@SlideVecto
  0009d	c7 85 fc fe ff
	ff 00 00 00 00	 mov	 DWORD PTR tv1062[ebp], 0
$LL4@SlideVecto:

; 1620 : 	{
; 1621 : 		if( pObject->m_Type == GMT_SKIN )	

  000a7	83 f8 01	 cmp	 eax, 1
  000aa	75 20		 jne	 SHORT $LN11@SlideVecto

; 1622 : 			Error( "SlideVectorXZ:스킨오브젝트 발견. 에러%s", m_szFileName ); 

  000ac	8d 82 c0 00 00
	00		 lea	 eax, DWORD PTR [edx+192]
  000b2	50		 push	 eax
  000b3	68 00 00 00 00	 push	 OFFSET ??_C@_0CI@INGEON@SlideVectorXZ?3?$LN?$LK?E?$LC?$LP?$MA?$LK?j?A?$KH?F?$KO?5?$LJ?$NP?$LA?$NP@
  000b8	e8 00 00 00 00	 call	 ?Error@@YAPBDPBDZZ	; Error
  000bd	8b 8d f4 fe ff
	ff		 mov	 ecx, DWORD PTR _mWorld$GSCopy$1$[ebp]
  000c3	83 c4 08	 add	 esp, 8
  000c6	8b 95 f0 fe ff
	ff		 mov	 edx, DWORD PTR _this$GSCopy$1$[ebp]
$LN11@SlideVecto:

; 1623 : 		nMaxFace = pObject->m_nMaxFaceList;
; 1624 : 		pIB = pObject->m_pIB;
; 1625 : 		pVB = (NORMALVERTEX*)(pObject->m_pVB);
; 1626 : 
; 1627 : 		if( bCollObj == FALSE )

  000cc	83 7d 18 00	 cmp	 DWORD PTR _bCollObj$[ebp], 0
  000d0	8b bb 98 00 00
	00		 mov	 edi, DWORD PTR [ebx+152]
  000d6	8b 83 a0 0a 00
	00		 mov	 eax, DWORD PTR [ebx+2720]
  000dc	8b b3 a4 0a 00
	00		 mov	 esi, DWORD PTR [ebx+2724]
  000e2	89 bd e8 fe ff
	ff		 mov	 DWORD PTR _nMaxFace$1$[ebp], edi
  000e8	89 85 ec fe ff
	ff		 mov	 DWORD PTR _pVB$1$[ebp], eax
  000ee	75 41		 jne	 SHORT $LN12@SlideVecto

; 1628 : 			mTM = pGroup->_mUpdate[i] * mWorld;

  000f0	8b 42 0c	 mov	 eax, DWORD PTR [edx+12]
  000f3	03 85 fc fe ff
	ff		 add	 eax, DWORD PTR tv1062[ebp]
; File C:\IAGOS\server\v18\Source\Source\DX_SDK\d3dx9math.inl

; 860  :     D3DXMatrixMultiply(&matT, this, &mat);

  000f9	51		 push	 ecx
  000fa	50		 push	 eax
  000fb	8d 85 00 ff ff
	ff		 lea	 eax, DWORD PTR $T1[ebp]
  00101	50		 push	 eax
  00102	e8 00 00 00 00	 call	 _D3DXMatrixMultiply@12
; File C:\IAGOS\server\v18\Source\Source\_Common\object3d.cpp

; 1628 : 			mTM = pGroup->_mUpdate[i] * mWorld;

  00107	0f 10 85 00 ff
	ff ff		 movups	 xmm0, XMMWORD PTR $T1[ebp]
  0010e	0f 11 45 80	 movups	 XMMWORD PTR _mTM$[ebp], xmm0
  00112	0f 10 85 10 ff
	ff ff		 movups	 xmm0, XMMWORD PTR $T1[ebp+16]
  00119	0f 11 45 90	 movups	 XMMWORD PTR _mTM$[ebp+16], xmm0
  0011d	0f 10 85 20 ff
	ff ff		 movups	 xmm0, XMMWORD PTR $T1[ebp+32]
  00124	0f 11 45 a0	 movups	 XMMWORD PTR _mTM$[ebp+32], xmm0
  00128	0f 10 85 30 ff
	ff ff		 movups	 xmm0, XMMWORD PTR $T1[ebp+48]
  0012f	eb 1b		 jmp	 SHORT $LN81@SlideVecto
$LN12@SlideVecto:

; 1629 : 		else
; 1630 : 			mTM = mWorld;

  00131	0f 10 01	 movups	 xmm0, XMMWORD PTR [ecx]
  00134	0f 11 45 80	 movups	 XMMWORD PTR _mTM$[ebp], xmm0
  00138	0f 10 41 10	 movups	 xmm0, XMMWORD PTR [ecx+16]
  0013c	0f 11 45 90	 movups	 XMMWORD PTR _mTM$[ebp+16], xmm0
  00140	0f 10 41 20	 movups	 xmm0, XMMWORD PTR [ecx+32]
  00144	0f 11 45 a0	 movups	 XMMWORD PTR _mTM$[ebp+32], xmm0
  00148	0f 10 41 30	 movups	 xmm0, XMMWORD PTR [ecx+48]
$LN81@SlideVecto:

; 1631 : 
; 1632 : 		pObject++;
; 1633 : 		D3DXMatrixInverse( &mInv, NULL, &mTM );

  0014c	8d 45 80	 lea	 eax, DWORD PTR _mTM$[ebp]
  0014f	81 c3 bc 0a 00
	00		 add	 ebx, 2748		; 00000abcH
  00155	50		 push	 eax
  00156	6a 00		 push	 0
  00158	8d 85 40 ff ff
	ff		 lea	 eax, DWORD PTR _mInv$[ebp]
  0015e	89 9d e4 fe ff
	ff		 mov	 DWORD PTR _pObject$1$[ebp], ebx
  00164	50		 push	 eax
  00165	0f 11 45 b0	 movups	 XMMWORD PTR _mTM$[ebp+48], xmm0
  00169	e8 00 00 00 00	 call	 _D3DXMatrixInverse@12

; 1634 : 		D3DXVec3TransformCoord( &vInvPos, &vPos, &mInv );	// Line시작점을 Geometry기준으로 변환

  0016e	8d 85 40 ff ff
	ff		 lea	 eax, DWORD PTR _mInv$[ebp]
  00174	50		 push	 eax
  00175	ff b5 d4 fe ff
	ff		 push	 DWORD PTR _vPos$GSCopy$1$[ebp]
  0017b	8d 45 d8	 lea	 eax, DWORD PTR _vInvPos$[ebp]
  0017e	50		 push	 eax
  0017f	e8 00 00 00 00	 call	 _D3DXVec3TransformCoord@12

; 1635 : 		D3DXVec3TransformCoord( &vInvEnd, &vEnd, &mInv );	// Line끝점을 역시 변환

  00184	8d 85 40 ff ff
	ff		 lea	 eax, DWORD PTR _mInv$[ebp]
  0018a	50		 push	 eax
  0018b	ff b5 f8 fe ff
	ff		 push	 DWORD PTR _vEnd$GSCopy$1$[ebp]
  00191	8d 45 cc	 lea	 eax, DWORD PTR _vInvEnd$[ebp]
  00194	50		 push	 eax
  00195	e8 00 00 00 00	 call	 _D3DXVec3TransformCoord@12
; File C:\IAGOS\server\v18\Source\Source\DX_SDK\d3dx9math.inl

; 383  :     return D3DXVECTOR3(x - v.x, y - v.y, z - v.z);

  0019a	f3 0f 10 45 cc	 movss	 xmm0, DWORD PTR _vInvEnd$[ebp]
; File C:\IAGOS\server\v18\Source\Source\_Common\object3d.cpp

; 1637 : 		for( j = 0; j < nMaxFace; j++ )

  0019f	c7 85 e0 fe ff
	ff 00 00 00 00	 mov	 DWORD PTR _j$1$[ebp], 0
; File C:\IAGOS\server\v18\Source\Source\DX_SDK\d3dx9math.inl

; 383  :     return D3DXVECTOR3(x - v.x, y - v.y, z - v.z);

  001a9	f3 0f 5c 45 d8	 subss	 xmm0, DWORD PTR _vInvPos$[ebp]
; File C:\IAGOS\server\v18\Source\Source\_Common\object3d.cpp

; 1636 : 		vInvDir = vInvEnd - vInvPos;

  001ae	f3 0f 11 45 c0	 movss	 DWORD PTR _vInvDir$[ebp], xmm0
; File C:\IAGOS\server\v18\Source\Source\DX_SDK\d3dx9math.inl

; 383  :     return D3DXVECTOR3(x - v.x, y - v.y, z - v.z);

  001b3	f3 0f 10 45 d0	 movss	 xmm0, DWORD PTR _vInvEnd$[ebp+4]
  001b8	f3 0f 5c 45 dc	 subss	 xmm0, DWORD PTR _vInvPos$[ebp+4]
; File C:\IAGOS\server\v18\Source\Source\_Common\object3d.cpp

; 1636 : 		vInvDir = vInvEnd - vInvPos;

  001bd	f3 0f 11 45 c4	 movss	 DWORD PTR _vInvDir$[ebp+4], xmm0
; File C:\IAGOS\server\v18\Source\Source\DX_SDK\d3dx9math.inl

; 383  :     return D3DXVECTOR3(x - v.x, y - v.y, z - v.z);

  001c2	f3 0f 10 45 d4	 movss	 xmm0, DWORD PTR _vInvEnd$[ebp+8]
  001c7	f3 0f 5c 45 e0	 subss	 xmm0, DWORD PTR _vInvPos$[ebp+8]
; File C:\IAGOS\server\v18\Source\Source\_Common\object3d.cpp

; 1636 : 		vInvDir = vInvEnd - vInvPos;

  001cc	f3 0f 11 45 c8	 movss	 DWORD PTR _vInvDir$[ebp+8], xmm0

; 1637 : 		for( j = 0; j < nMaxFace; j++ )

  001d1	85 ff		 test	 edi, edi
  001d3	0f 8e 86 00 00
	00		 jle	 $LN2@SlideVecto
  001d9	0f 1f 80 00 00
	00 00		 npad	 7
$LL7@SlideVecto:

; 1638 : 		{
; 1639 : 			v1 = &pVB[ *pIB++ ].position;

  001e0	0f b7 3e	 movzx	 edi, WORD PTR [esi]

; 1640 : 			v2 = &pVB[ *pIB++ ].position;
; 1641 : 			v3 = &pVB[ *pIB++ ].position;

  001e3	8d 76 06	 lea	 esi, DWORD PTR [esi+6]
  001e6	0f b7 5e fc	 movzx	 ebx, WORD PTR [esi-4]
  001ea	0f b7 46 fe	 movzx	 eax, WORD PTR [esi-2]
  001ee	8b 8d ec fe ff
	ff		 mov	 ecx, DWORD PTR _pVB$1$[ebp]
  001f4	c1 e0 05	 shl	 eax, 5
  001f7	03 c1		 add	 eax, ecx
  001f9	c1 e7 05	 shl	 edi, 5
  001fc	03 f9		 add	 edi, ecx
  001fe	c1 e3 05	 shl	 ebx, 5
  00201	03 d9		 add	 ebx, ecx
  00203	89 85 cc fe ff
	ff		 mov	 DWORD PTR _v3$1$[ebp], eax

; 1642 : 
; 1643 : //			FLOAT fU, fV;
; 1644 : //			bRet = D3DXIntersectTri( v1, v2, v3, &vInvPos, &vInvDir, &fU, &fV, &fDist );
; 1645 : 			bRet = IsTouchRayTri( v1, v2, v3, &vInvPos, &vInvDir, &fDist );

  00209	8d 8d d0 fe ff
	ff		 lea	 ecx, DWORD PTR _fDist$[ebp]
  0020f	51		 push	 ecx
  00210	8d 4d c0	 lea	 ecx, DWORD PTR _vInvDir$[ebp]
  00213	51		 push	 ecx
  00214	8d 4d d8	 lea	 ecx, DWORD PTR _vInvPos$[ebp]
  00217	51		 push	 ecx
  00218	50		 push	 eax
  00219	53		 push	 ebx
  0021a	57		 push	 edi
  0021b	e8 00 00 00 00	 call	 ?IsTouchRayTri@@YAHPBUD3DXVECTOR3@@0000PAM@Z ; IsTouchRayTri
  00220	83 c4 18	 add	 esp, 24			; 00000018H

; 1646 : 
; 1647 : 			if( bRet && fDist >= 0.0f )	// 반대방향 면은 검사하지 않음.

  00223	85 c0		 test	 eax, eax
  00225	74 1d		 je	 SHORT $LN5@SlideVecto
  00227	f3 0f 10 9d d0
	fe ff ff	 movss	 xmm3, DWORD PTR _fDist$[ebp]
  0022f	0f 57 c0	 xorps	 xmm0, xmm0
  00232	0f 2f d8	 comiss	 xmm3, xmm0
  00235	72 0d		 jb	 SHORT $LN5@SlideVecto

; 1648 : 			{
; 1649 : 				// 정확하게 하려면 모든 면을 다 검사해서 가장 가까운것을 골라야 하나
; 1650 : 				// S자 형태로 구부러진 면이 없다는 가정하에 간략화 시킨다.
; 1651 : 				if( fDist < 1.0f )

  00237	f3 0f 10 05 00
	00 00 00	 movss	 xmm0, DWORD PTR __real@3f800000
  0023f	0f 2f c3	 comiss	 xmm0, xmm3
  00242	77 4e		 ja	 SHORT $LN55@SlideVecto
$LN5@SlideVecto:

; 1637 : 		for( j = 0; j < nMaxFace; j++ )

  00244	8b 85 e0 fe ff
	ff		 mov	 eax, DWORD PTR _j$1$[ebp]
  0024a	40		 inc	 eax
  0024b	89 85 e0 fe ff
	ff		 mov	 DWORD PTR _j$1$[ebp], eax
  00251	3b 85 e8 fe ff
	ff		 cmp	 eax, DWORD PTR _nMaxFace$1$[ebp]
  00257	7c 87		 jl	 SHORT $LL7@SlideVecto
  00259	8b 9d e4 fe ff
	ff		 mov	 ebx, DWORD PTR _pObject$1$[ebp]
$LN2@SlideVecto:

; 1618 : 
; 1619 : 	for( i = 0; i < nMaxObj; i++ )

  0025f	8b b5 dc fe ff
	ff		 mov	 esi, DWORD PTR _i$1$[ebp]
  00265	83 85 fc fe ff
	ff 40		 add	 DWORD PTR tv1062[ebp], 64 ; 00000040H
  0026c	46		 inc	 esi
  0026d	89 b5 dc fe ff
	ff		 mov	 DWORD PTR _i$1$[ebp], esi
  00273	3b b5 d8 fe ff
	ff		 cmp	 esi, DWORD PTR _nMaxObj$1$[ebp]
  00279	0f 8d 58 02 00
	00		 jge	 $LN58@SlideVecto
  0027f	8b 03		 mov	 eax, DWORD PTR [ebx]
  00281	8b 8d f4 fe ff
	ff		 mov	 ecx, DWORD PTR _mWorld$GSCopy$1$[ebp]
  00287	8b 95 f0 fe ff
	ff		 mov	 edx, DWORD PTR _this$GSCopy$1$[ebp]
  0028d	e9 15 fe ff ff	 jmp	 $LL4@SlideVecto
$LN55@SlideVecto:
; File C:\IAGOS\server\v18\Source\Source\DX_SDK\d3dx9math.inl

; 383  :     return D3DXVECTOR3(x - v.x, y - v.y, z - v.z);

  00292	8b b5 d4 fe ff
	ff		 mov	 esi, DWORD PTR _vPos$GSCopy$1$[ebp]
  00298	8b 85 f8 fe ff
	ff		 mov	 eax, DWORD PTR _vEnd$GSCopy$1$[ebp]
; File C:\IAGOS\server\v18\Source\Source\_Common\object3d.cpp

; 1655 : 					fDist *= 0.5f;

  0029e	f3 0f 59 1d 00
	00 00 00	 mulss	 xmm3, DWORD PTR __real@3f000000
; File C:\IAGOS\server\v18\Source\Source\DX_SDK\d3dx9math.inl

; 383  :     return D3DXVECTOR3(x - v.x, y - v.y, z - v.z);

  002a6	f3 0f 10 20	 movss	 xmm4, DWORD PTR [eax]
  002aa	f3 0f 10 50 04	 movss	 xmm2, DWORD PTR [eax+4]
  002af	f3 0f 5c 26	 subss	 xmm4, DWORD PTR [esi]
  002b3	f3 0f 5c 56 04	 subss	 xmm2, DWORD PTR [esi+4]
  002b8	f3 0f 10 48 08	 movss	 xmm1, DWORD PTR [eax+8]
  002bd	f3 0f 5c 4e 08	 subss	 xmm1, DWORD PTR [esi+8]
  002c2	8b 85 cc fe ff
	ff		 mov	 eax, DWORD PTR _v3$1$[ebp]
; File C:\IAGOS\server\v18\Source\Source\_Common\object3d.cpp

; 1656 : 					vIntersect = vPos + fDist * vDir;	// 교차점을 계산.

  002c8	f3 0f 59 e3	 mulss	 xmm4, xmm3
; File C:\IAGOS\server\v18\Source\Source\DX_SDK\d3dx9math.inl

; 300  :     x = fx;

  002cc	f3 0f 59 d3	 mulss	 xmm2, xmm3

; 377  :     return D3DXVECTOR3(x + v.x, y + v.y, z + v.z);

  002d0	f3 0f 58 26	 addss	 xmm4, DWORD PTR [esi]
; File C:\IAGOS\server\v18\Source\Source\_Common\object3d.cpp

; 1655 : 					fDist *= 0.5f;

  002d4	f3 0f 11 9d d0
	fe ff ff	 movss	 DWORD PTR _fDist$[ebp], xmm3
; File C:\IAGOS\server\v18\Source\Source\DX_SDK\d3dx9math.inl

; 377  :     return D3DXVECTOR3(x + v.x, y + v.y, z + v.z);

  002dc	f3 0f 58 56 04	 addss	 xmm2, DWORD PTR [esi+4]

; 383  :     return D3DXVECTOR3(x - v.x, y - v.y, z - v.z);

  002e1	f3 0f 10 73 04	 movss	 xmm6, DWORD PTR [ebx+4]
  002e6	f3 0f 5c 77 04	 subss	 xmm6, DWORD PTR [edi+4]
  002eb	f3 0f 10 28	 movss	 xmm5, DWORD PTR [eax]
  002ef	f3 0f 5c 2f	 subss	 xmm5, DWORD PTR [edi]
  002f3	f3 0f 10 3b	 movss	 xmm7, DWORD PTR [ebx]
  002f7	f3 0f 5c 3f	 subss	 xmm7, DWORD PTR [edi]

; 301  :     y = fy;

  002fb	f3 0f 59 cb	 mulss	 xmm1, xmm3

; 383  :     return D3DXVECTOR3(x - v.x, y - v.y, z - v.z);

  002ff	f3 0f 10 5b 08	 movss	 xmm3, DWORD PTR [ebx+8]
  00304	f3 0f 5c 5f 08	 subss	 xmm3, DWORD PTR [edi+8]

; 377  :     return D3DXVECTOR3(x + v.x, y + v.y, z + v.z);

  00309	f3 0f 58 4e 08	 addss	 xmm1, DWORD PTR [esi+8]
  0030e	f3 0f 11 a5 e4
	fe ff ff	 movss	 DWORD PTR tv1060[ebp], xmm4

; 383  :     return D3DXVECTOR3(x - v.x, y - v.y, z - v.z);

  00316	f3 0f 10 60 04	 movss	 xmm4, DWORD PTR [eax+4]
  0031b	f3 0f 5c 67 04	 subss	 xmm4, DWORD PTR [edi+4]

; 377  :     return D3DXVECTOR3(x + v.x, y + v.y, z + v.z);

  00320	f3 0f 11 95 e8
	fe ff ff	 movss	 DWORD PTR tv1061[ebp], xmm2

; 383  :     return D3DXVECTOR3(x - v.x, y - v.y, z - v.z);

  00328	f3 0f 10 50 08	 movss	 xmm2, DWORD PTR [eax+8]
; File C:\IAGOS\server\v18\Source\Source\_Common\object3d.cpp

; 1663 : 					D3DXVec3TransformCoord( &vN, &vN, &mInv );	// 충돌한면의 노말을 원래대로(mWorld)돌림.

  0032d	8d 85 40 ff ff
	ff		 lea	 eax, DWORD PTR _mInv$[ebp]
; File C:\IAGOS\server\v18\Source\Source\DX_SDK\d3dx9math.inl

; 383  :     return D3DXVECTOR3(x - v.x, y - v.y, z - v.z);

  00333	f3 0f 5c 57 08	 subss	 xmm2, DWORD PTR [edi+8]

; 377  :     return D3DXVECTOR3(x + v.x, y + v.y, z + v.z);

  00338	f3 0f 11 8d ec
	fe ff ff	 movss	 DWORD PTR tv1063[ebp], xmm1

; 1722 :     v.x = pV1->y * pV2->z - pV1->z * pV2->y;

  00340	0f 28 c4	 movaps	 xmm0, xmm4

; 1723 :     v.y = pV1->z * pV2->x - pV1->x * pV2->z;

  00343	f3 0f 59 e7	 mulss	 xmm4, xmm7
; File C:\IAGOS\server\v18\Source\Source\_Common\object3d.cpp

; 1663 : 					D3DXVec3TransformCoord( &vN, &vN, &mInv );	// 충돌한면의 노말을 원래대로(mWorld)돌림.

  00347	50		 push	 eax
; File C:\IAGOS\server\v18\Source\Source\DX_SDK\d3dx9math.inl

; 1722 :     v.x = pV1->y * pV2->z - pV1->z * pV2->y;

  00348	f3 0f 59 c3	 mulss	 xmm0, xmm3
; File C:\IAGOS\server\v18\Source\Source\_Common\object3d.cpp

; 1663 : 					D3DXVec3TransformCoord( &vN, &vN, &mInv );	// 충돌한면의 노말을 원래대로(mWorld)돌림.

  0034c	8d 45 e4	 lea	 eax, DWORD PTR _vN$[ebp]
  0034f	50		 push	 eax
  00350	0f 28 ca	 movaps	 xmm1, xmm2
; File C:\IAGOS\server\v18\Source\Source\DX_SDK\d3dx9math.inl

; 1723 :     v.y = pV1->z * pV2->x - pV1->x * pV2->z;

  00353	f3 0f 59 d7	 mulss	 xmm2, xmm7
; File C:\IAGOS\server\v18\Source\Source\_Common\object3d.cpp

; 1663 : 					D3DXVec3TransformCoord( &vN, &vN, &mInv );	// 충돌한면의 노말을 원래대로(mWorld)돌림.

  00357	50		 push	 eax
  00358	f3 0f 59 ce	 mulss	 xmm1, xmm6
; File C:\IAGOS\server\v18\Source\Source\DX_SDK\d3dx9math.inl

; 1722 :     v.x = pV1->y * pV2->z - pV1->z * pV2->y;

  0035c	f3 0f 5c c8	 subss	 xmm1, xmm0
  00360	0f 28 c5	 movaps	 xmm0, xmm5
  00363	f3 0f 59 c3	 mulss	 xmm0, xmm3

; 1724 :     v.z = pV1->x * pV2->y - pV1->y * pV2->x;

  00367	f3 0f 59 ee	 mulss	 xmm5, xmm6
  0036b	f3 0f 5c c2	 subss	 xmm0, xmm2

; 1726 :     *pOut = v;

  0036f	f3 0f 11 4d e4	 movss	 DWORD PTR _vN$[ebp], xmm1
  00374	f3 0f 5c e5	 subss	 xmm4, xmm5
  00378	f3 0f 11 45 e8	 movss	 DWORD PTR _vN$[ebp+4], xmm0
; File C:\IAGOS\server\v18\Source\Source\_Common\object3d.cpp

; 1661 : 					mInv = mTM;

  0037d	0f 10 45 80	 movups	 xmm0, XMMWORD PTR _mTM$[ebp]
; File C:\IAGOS\server\v18\Source\Source\DX_SDK\d3dx9math.inl

; 1726 :     *pOut = v;

  00381	f3 0f 11 65 ec	 movss	 DWORD PTR _vN$[ebp+8], xmm4
; File C:\IAGOS\server\v18\Source\Source\_Common\object3d.cpp

; 1661 : 					mInv = mTM;

  00386	0f 11 85 40 ff
	ff ff		 movups	 XMMWORD PTR _mInv$[ebp], xmm0
  0038d	0f 10 45 90	 movups	 xmm0, XMMWORD PTR _mTM$[ebp+16]
  00391	0f 11 85 50 ff
	ff ff		 movups	 XMMWORD PTR _mInv$[ebp+16], xmm0
  00398	0f 10 45 a0	 movups	 xmm0, XMMWORD PTR _mTM$[ebp+32]
  0039c	0f 11 85 60 ff
	ff ff		 movups	 XMMWORD PTR _mInv$[ebp+32], xmm0
  003a3	0f 10 45 b0	 movups	 xmm0, XMMWORD PTR _mTM$[ebp+48]
  003a7	0f 11 85 70 ff
	ff ff		 movups	 XMMWORD PTR _mInv$[ebp+48], xmm0

; 1662 : 					mInv._41 = mInv._42 = mInv._43 = 0;

  003ae	c7 85 78 ff ff
	ff 00 00 00 00	 mov	 DWORD PTR _mInv$[ebp+56], 0
  003b8	c7 85 74 ff ff
	ff 00 00 00 00	 mov	 DWORD PTR _mInv$[ebp+52], 0
  003c2	c7 85 70 ff ff
	ff 00 00 00 00	 mov	 DWORD PTR _mInv$[ebp+48], 0

; 1663 : 					D3DXVec3TransformCoord( &vN, &vN, &mInv );	// 충돌한면의 노말을 원래대로(mWorld)돌림.

  003cc	e8 00 00 00 00	 call	 _D3DXVec3TransformCoord@12

; 1664 : 
; 1665 : 					if( vN.x == 0 && vN.z == 0 )

  003d1	f3 0f 10 45 e4	 movss	 xmm0, DWORD PTR _vN$[ebp]
  003d6	0f 57 c9	 xorps	 xmm1, xmm1
  003d9	0f 2e c1	 ucomiss xmm0, xmm1
  003dc	9f		 lahf
  003dd	f6 c4 44	 test	 ah, 68			; 00000044H
  003e0	7a 1b		 jp	 SHORT $LN16@SlideVecto
  003e2	f3 0f 10 45 ec	 movss	 xmm0, DWORD PTR _vN$[ebp+8]
  003e7	0f 2e c1	 ucomiss xmm0, xmm1
  003ea	9f		 lahf
  003eb	f6 c4 44	 test	 ah, 68			; 00000044H
  003ee	7a 0d		 jp	 SHORT $LN16@SlideVecto

; 1666 : 						Error( "CActionMover::ProcessCollisionGround : 충돌한 면의 노말이 완전 수직이다" );

  003f0	68 00 00 00 00	 push	 OFFSET ??_C@_0EI@DEOEDIHF@CActionMover?3?3ProcessCollisionG@
  003f5	e8 00 00 00 00	 call	 ?Error@@YAPBDPBDZZ	; Error
  003fa	83 c4 04	 add	 esp, 4
$LN16@SlideVecto:

; 1667 : 
; 1668 : 					vN.y = 0;	// y성분을 없애서 수직면의 법선인것처럼 변환
; 1669 : 					D3DXVec3Normalize( &vN, &vN );		// 최종 단위벡터로 변환

  003fd	8d 45 e4	 lea	 eax, DWORD PTR _vN$[ebp]
  00400	c7 45 e8 00 00
	00 00		 mov	 DWORD PTR _vN$[ebp+4], 0
  00407	50		 push	 eax
  00408	50		 push	 eax
  00409	e8 00 00 00 00	 call	 _D3DXVec3Normalize@8
; File C:\IAGOS\server\v18\Source\Source\DX_SDK\d3dx9math.inl

; 383  :     return D3DXVECTOR3(x - v.x, y - v.y, z - v.z);

  0040e	8b 85 f8 fe ff
	ff		 mov	 eax, DWORD PTR _vEnd$GSCopy$1$[ebp]
  00414	f3 0f 10 00	 movss	 xmm0, DWORD PTR [eax]
  00418	f3 0f 5c 85 e4
	fe ff ff	 subss	 xmm0, DWORD PTR tv1060[ebp]
; File C:\IAGOS\server\v18\Source\Source\_Common\object3d.cpp

; 1672 : 					vTemp = vEnd - vIntersect;		// 교차점 - 라인끝 vector V라고 칭함

  00420	f3 0f 11 45 f0	 movss	 DWORD PTR _vTemp$[ebp], xmm0
; File C:\IAGOS\server\v18\Source\Source\DX_SDK\d3dx9math.inl

; 383  :     return D3DXVECTOR3(x - v.x, y - v.y, z - v.z);

  00425	f3 0f 10 40 04	 movss	 xmm0, DWORD PTR [eax+4]
  0042a	f3 0f 5c 85 e8
	fe ff ff	 subss	 xmm0, DWORD PTR tv1061[ebp]
; File C:\IAGOS\server\v18\Source\Source\_Common\object3d.cpp

; 1672 : 					vTemp = vEnd - vIntersect;		// 교차점 - 라인끝 vector V라고 칭함

  00432	f3 0f 11 45 f4	 movss	 DWORD PTR _vTemp$[ebp+4], xmm0
; File C:\IAGOS\server\v18\Source\Source\DX_SDK\d3dx9math.inl

; 383  :     return D3DXVECTOR3(x - v.x, y - v.y, z - v.z);

  00437	f3 0f 10 40 08	 movss	 xmm0, DWORD PTR [eax+8]
; File C:\IAGOS\server\v18\Source\Source\_Common\object3d.cpp

; 1673 : 					CalcSlideVec( &vTemp, vTemp, vN );

  0043c	8d 45 e4	 lea	 eax, DWORD PTR _vN$[ebp]
; File C:\IAGOS\server\v18\Source\Source\DX_SDK\d3dx9math.inl

; 383  :     return D3DXVECTOR3(x - v.x, y - v.y, z - v.z);

  0043f	f3 0f 5c 85 ec
	fe ff ff	 subss	 xmm0, DWORD PTR tv1063[ebp]
; File C:\IAGOS\server\v18\Source\Source\_Common\object3d.cpp

; 1673 : 					CalcSlideVec( &vTemp, vTemp, vN );

  00447	50		 push	 eax
  00448	8d 45 f0	 lea	 eax, DWORD PTR _vTemp$[ebp]
  0044b	50		 push	 eax
  0044c	50		 push	 eax
  0044d	f3 0f 11 45 f8	 movss	 DWORD PTR _vTemp$[ebp+8], xmm0
  00452	e8 00 00 00 00	 call	 ?CalcSlideVec@@YAXPAUD3DXVECTOR3@@ABU1@1@Z ; CalcSlideVec

; 1676 : 					*pOut = vTemp;

  00457	8b 8d c8 fe ff
	ff		 mov	 ecx, DWORD PTR _pOut$GSCopy$1$[ebp]
  0045d	83 c4 0c	 add	 esp, 12			; 0000000cH
  00460	f3 0f 7e 45 f0	 movq	 xmm0, QWORD PTR _vTemp$[ebp]
  00465	8b 45 f8	 mov	 eax, DWORD PTR _vTemp$[ebp+8]
  00468	66 0f d6 01	 movq	 QWORD PTR [ecx], xmm0
; File C:\IAGOS\server\v18\Source\Source\DX_SDK\d3dx9math.inl

; 324  :     x += v.x;

  0046c	f3 0f 10 45 f0	 movss	 xmm0, DWORD PTR _vTemp$[ebp]
; File C:\IAGOS\server\v18\Source\Source\_Common\object3d.cpp

; 1676 : 					*pOut = vTemp;

  00471	89 41 08	 mov	 DWORD PTR [ecx+8], eax
; File C:\IAGOS\server\v18\Source\Source\DX_SDK\d3dx9math.inl

; 324  :     x += v.x;

  00474	f3 0f 58 06	 addss	 xmm0, DWORD PTR [esi]
; File C:\IAGOS\server\v18\Source\Source\_Common\object3d.cpp

; 1680 : 					if( ++nSlideCnt < 3 )  // 무한 리커전 방지

  00478	8b 45 1c	 mov	 eax, DWORD PTR _nSlideCnt$[ebp]
  0047b	40		 inc	 eax
; File C:\IAGOS\server\v18\Source\Source\DX_SDK\d3dx9math.inl

; 324  :     x += v.x;

  0047c	f3 0f 11 45 f0	 movss	 DWORD PTR _vTemp$[ebp], xmm0

; 325  :     y += v.y;

  00481	f3 0f 10 45 f4	 movss	 xmm0, DWORD PTR _vTemp$[ebp+4]
  00486	f3 0f 58 46 04	 addss	 xmm0, DWORD PTR [esi+4]
  0048b	f3 0f 11 45 f4	 movss	 DWORD PTR _vTemp$[ebp+4], xmm0

; 326  :     z += v.z;

  00490	f3 0f 10 45 f8	 movss	 xmm0, DWORD PTR _vTemp$[ebp+8]
  00495	f3 0f 58 46 08	 addss	 xmm0, DWORD PTR [esi+8]
  0049a	f3 0f 11 45 f8	 movss	 DWORD PTR _vTemp$[ebp+8], xmm0
; File C:\IAGOS\server\v18\Source\Source\_Common\object3d.cpp

; 1680 : 					if( ++nSlideCnt < 3 )  // 무한 리커전 방지

  0049f	83 f8 03	 cmp	 eax, 3
  004a2	7d 1b		 jge	 SHORT $LN17@SlideVecto

; 1681 : 						SlideVectorXZ( pOut, vPos, vTemp, mWorld, bCollObj, nSlideCnt );		// 이거왜 시작점이 vPos일까나 -.-;;;

  004a4	50		 push	 eax
  004a5	ff 75 18	 push	 DWORD PTR _bCollObj$[ebp]
  004a8	8d 45 f0	 lea	 eax, DWORD PTR _vTemp$[ebp]
  004ab	ff b5 f4 fe ff
	ff		 push	 DWORD PTR _mWorld$GSCopy$1$[ebp]
  004b1	50		 push	 eax
  004b2	56		 push	 esi
  004b3	51		 push	 ecx
  004b4	8b 8d f0 fe ff
	ff		 mov	 ecx, DWORD PTR _this$GSCopy$1$[ebp]
  004ba	e8 00 00 00 00	 call	 ?SlideVectorXZ@CObject3D@@QAEHPAUD3DXVECTOR3@@ABU2@1ABUD3DXMATRIX@@HH@Z ; CObject3D::SlideVectorXZ
$LN17@SlideVecto:

; 1682 : 					
; 1683 : //					nSlideCnt = 0;
; 1684 : 					return 1;

  004bf	5f		 pop	 edi
  004c0	5e		 pop	 esi
  004c1	b8 01 00 00 00	 mov	 eax, 1

; 1685 : 				}
; 1686 : 			}
; 1687 : 		}
; 1688 : 	}
; 1689 : //	_nSlideCnt = 0;
; 1690 : 	return 0;
; 1691 : }

  004c6	5b		 pop	 ebx
  004c7	8b 4d fc	 mov	 ecx, DWORD PTR __$ArrayPad$[ebp]
  004ca	33 cd		 xor	 ecx, ebp
  004cc	e8 00 00 00 00	 call	 @__security_check_cookie@4
  004d1	8b e5		 mov	 esp, ebp
  004d3	5d		 pop	 ebp
  004d4	c2 18 00	 ret	 24			; 00000018H
$LN58@SlideVecto:
  004d7	8b 4d fc	 mov	 ecx, DWORD PTR __$ArrayPad$[ebp]
  004da	33 c0		 xor	 eax, eax
  004dc	5f		 pop	 edi
  004dd	5e		 pop	 esi
  004de	33 cd		 xor	 ecx, ebp
  004e0	5b		 pop	 ebx
  004e1	e8 00 00 00 00	 call	 @__security_check_cookie@4
  004e6	8b e5		 mov	 esp, ebp
  004e8	5d		 pop	 ebp
  004e9	c2 18 00	 ret	 24			; 00000018H
?SlideVectorXZ@CObject3D@@QAEHPAUD3DXVECTOR3@@ABU2@1ABUD3DXMATRIX@@HH@Z ENDP ; CObject3D::SlideVectorXZ
_TEXT	ENDS
; Function compile flags: /Ogtp
; File C:\IAGOS\server\v18\Source\Source\_Common\object3d.cpp
;	COMDAT ?ClearNormal@CObject3D@@QAEXXZ
_TEXT	SEGMENT
?ClearNormal@CObject3D@@QAEXXZ PROC			; CObject3D::ClearNormal, COMDAT
; _this$ = ecx

; 2555 : /*	int		i;
; 2556 : 	D3DXVECTOR3		n = D3DXVECTOR3( 0.0f, 1.0f, 0.0f );
; 2557 : 
; 2558 : 	for( int j = 0; j < m_nMaxObject; j++ )
; 2559 : 	{
; 2560 : 		GMOBJECT* pObject = &m_pObject[j];
; 2561 : 		if( pObject->m_Type == GMT_SKIN )
; 2562 : 		{
; 2563 : 			SKINVERTEX *pVB = (SKINVERTEX*)(pObject->m_pVB);
; 2564 : 			for( i = 0; i < pObject->m_nMaxVB; i ++ )		pVB[i].normal = n;
; 2565 : 		}
; 2566 : 		else
; 2567 : 		{
; 2568 : 			NORMALVERTEX *pVB = (NORMALVERTEX*)(pObject->m_pVB);
; 2569 : 			for( i = 0; i < pObject->m_nMaxVB; i ++ )		pVB[i].normal = n;
; 2570 : 		}
; 2571 : 
; 2572 : 		SendVertexBuffer( pObject, NULL );
; 2573 : 	}
; 2574 : 	*/
; 2575 : }

  00000	c2 00 00	 ret	 0
?ClearNormal@CObject3D@@QAEXXZ ENDP			; CObject3D::ClearNormal
_TEXT	ENDS
; Function compile flags: /Ogtp
; File C:\IAGOS\server\v18\Source\Source\_Common\object3d.cpp
;	COMDAT ?SaveObject@CObject3D@@QAEHPBD@Z
_TEXT	SEGMENT
_szFileName$ = 8					; size = 4
?SaveObject@CObject3D@@QAEHPBD@Z PROC			; CObject3D::SaveObject, COMDAT
; _this$ = ecx

; 1195 : /*
; 1196 : 	FILE	*fp = fopen( szFileName, "wb" );
; 1197 : 	int		nTemp;
; 1198 : 	char	reserved[32];
; 1199 : 	int		i;
; 1200 : 
; 1201 : 	if( fp == NULL )
; 1202 : 	{
; 1203 : 		Error( "CObject3D::SaveMesh() : %를 찾을 수 없다.\r\n혹은 파일을 Check Out했는지 확인할 것!.", szFileName );
; 1204 : 		return FAIL;
; 1205 : 	}
; 1206 : 	// common header
; 1207 : 	memset( reserved, 0, 32 );
; 1208 : 	nTemp = VER_MESH;
; 1209 : 	fwrite( &nTemp, 4, 1, fp );		// version
; 1210 : 	fwrite( &m_nID, 4, 1, fp );		// Serial ID
; 1211 : 	fwrite( &m_fScrlU, sizeof(float), 1, fp );
; 1212 : 	fwrite( &m_fScrlV, sizeof(float), 1, fp );
; 1213 : 	fwrite( reserved, 16, 1, fp );			// reserved
; 1214 : 
; 1215 : 	fwrite( &m_vBBMin, sizeof(D3DXVECTOR3), 1, fp );	// bounding box
; 1216 : 	fwrite( &m_vBBMax, sizeof(D3DXVECTOR3), 1, fp );
; 1217 : 	fwrite( &m_fPerSlerp, sizeof(float), 1, fp );	// 
; 1218 : 
; 1219 : 	fwrite( &m_nMaxFrame,	4, 1, fp );					// ani frame 수 애니가 없으면 0
; 1220 : 
; 1221 : 	fwrite( &m_nMaxObject, 4, 1, fp );	// geometry 개수
; 1222 : 
; 1223 : 	GMOBJECT		*pObject;
; 1224 : 	//------  Geometry Object
; 1225 : 	for( i = 0; i < m_nMaxObject; i ++ )
; 1226 : 	{
; 1227 : 		pObject = &m_pObject[i];
; 1228 : 		
; 1229 : 		fwrite( &pObject->m_Type,	 4, 1, fp );	
; 1230 : 		fwrite( &pObject->m_nID, 4, 1, fp );			// Object ID
; 1231 : 		fwrite( &pObject->m_nParentIdx, 4, 1, fp );	// parent Idx
; 1232 : 
; 1233 : 		fwrite( &pObject->m_mLocalTM, sizeof(D3DXMATRIX), 1, fp );	// LocalTM
; 1234 : 
; 1235 : 		// save geometry
; 1236 : 		SaveGMObject( fp, pObject );
; 1237 : 
; 1238 : 		// save TM animation - 일반형메쉬만 TMAni를 저장
; 1239 : 		SaveTMAni( fp, pObject );
; 1240 : 	}
; 1241 : 
; 1242 : 	fclose(fp);
; 1243 : */
; 1244 : 	return SUCCESS;

  00000	b8 01 00 00 00	 mov	 eax, 1

; 1245 : }

  00005	c2 04 00	 ret	 4
?SaveObject@CObject3D@@QAEHPBD@Z ENDP			; CObject3D::SaveObject
_TEXT	ENDS
; Function compile flags: /Ogtp
; File C:\IAGOS\server\v18\Source\Source\_Common\object3d.cpp
; File C:\IAGOS\server\v18\Source\Source\_Common\File.h
; File C:\IAGOS\server\v18\Source\Source\_Common\object3d.cpp
; File C:\IAGOS\server\v18\Source\Source\_Common\File.h
; File C:\IAGOS\server\v18\Source\Source\_Common\object3d.cpp
; File C:\IAGOS\server\v18\Source\Source\_Common\File.h
; File C:\IAGOS\server\v18\Source\Source\_Common\object3d.cpp
; File C:\IAGOS\server\v18\Source\Source\_Common\File.h
; File C:\IAGOS\server\v18\Source\Source\_Common\object3d.cpp
;	COMDAT ?IsAnimateFile@CObject3D@@SAHPBD@Z
_TEXT	SEGMENT
_f0$ = -112						; size = 4
_d0$ = -108						; size = 4
_c0$ = -101						; size = 1
_resFp$ = -100						; size = 8
_v$ = -92						; size = 12
_buff$ = -80						; size = 64
__$ArrayPad$ = -16					; size = 4
__$EHRec$ = -12						; size = 12
_szFileName$ = 8					; size = 4
?IsAnimateFile@CObject3D@@SAHPBD@Z PROC			; CObject3D::IsAnimateFile, COMDAT

; 869  : {

  00000	55		 push	 ebp
  00001	8b ec		 mov	 ebp, esp
  00003	6a ff		 push	 -1
  00005	68 00 00 00 00	 push	 __ehhandler$?IsAnimateFile@CObject3D@@SAHPBD@Z
  0000a	64 a1 00 00 00
	00		 mov	 eax, DWORD PTR fs:0
  00010	50		 push	 eax
  00011	83 ec 64	 sub	 esp, 100		; 00000064H
  00014	a1 00 00 00 00	 mov	 eax, DWORD PTR ___security_cookie
  00019	33 c5		 xor	 eax, ebp
  0001b	89 45 f0	 mov	 DWORD PTR __$ArrayPad$[ebp], eax
  0001e	53		 push	 ebx
  0001f	56		 push	 esi
  00020	50		 push	 eax
  00021	8d 45 f4	 lea	 eax, DWORD PTR __$EHRec$[ebp]
  00024	64 a3 00 00 00
	00		 mov	 DWORD PTR fs:0, eax
  0002a	8b 75 08	 mov	 esi, DWORD PTR _szFileName$[ebp]
; File C:\IAGOS\server\v18\Source\Source\_Common\File.h

; 15   : 	CFileIO() { fp = NULL; } 

  0002d	c7 45 9c 00 00
	00 00		 mov	 DWORD PTR _resFp$[ebp], OFFSET ??_7CFileIO@@6B@
  00034	c7 45 a0 00 00
	00 00		 mov	 DWORD PTR _resFp$[ebp+4], 0
; File C:\IAGOS\server\v18\Source\Source\_Common\object3d.cpp

; 872  : 	BOOL bRet = resFp.Open( szFileName, "rb" );

  0003b	68 00 00 00 00	 push	 OFFSET ??_C@_02JDPG@rb@
  00040	56		 push	 esi
  00041	8d 4d 9c	 lea	 ecx, DWORD PTR _resFp$[ebp]
  00044	c7 45 fc 00 00
	00 00		 mov	 DWORD PTR __$EHRec$[ebp+8], 0
  0004b	e8 00 00 00 00	 call	 ?Open@CFileIO@@UAEHPBDPAD@Z ; CFileIO::Open

; 873  : 	if( bRet == FALSE )	

  00050	85 c0		 test	 eax, eax
  00052	75 16		 jne	 SHORT $LN2@IsAnimateF

; 874  : 	{
; 875  : 		Error( "IsAnimateFile : %s 읽기 실패", szFileName );

  00054	56		 push	 esi
  00055	68 00 00 00 00	 push	 OFFSET ??_C@_0BN@MFAGAFAH@IsAnimateFile?5?3?5?$CFs?5?$MA?P?$LB?b?5?$LN?G?F?P@
  0005a	e8 00 00 00 00	 call	 ?Error@@YAPBDPBDZZ	; Error
  0005f	83 c4 08	 add	 esp, 8
  00062	83 cb ff	 or	 ebx, -1
  00065	e9 e8 00 00 00	 jmp	 $LN7@IsAnimateF
$LN2@IsAnimateF:
; File C:\IAGOS\server\v18\Source\Source\_Common\File.h

; 27   : 	virtual size_t Read( void *ptr, size_t size, size_t n = 1 )	{ return fread( ptr, size, n, fp ); }

  0006a	ff 75 a0	 push	 DWORD PTR _resFp$[ebp+4]
  0006d	8d 45 9b	 lea	 eax, DWORD PTR _c0$[ebp]
  00070	6a 01		 push	 1
  00072	6a 01		 push	 1
  00074	50		 push	 eax
  00075	e8 00 00 00 00	 call	 _fread
  0007a	ff 75 a0	 push	 DWORD PTR _resFp$[ebp+4]
; File C:\IAGOS\server\v18\Source\Source\_Common\object3d.cpp

; 885  : 	resFp.Read( buff, c0, 1 );	// 파일명 읽음.

  0007d	0f be 45 9b	 movsx	 eax, BYTE PTR _c0$[ebp]
; File C:\IAGOS\server\v18\Source\Source\_Common\File.h

; 27   : 	virtual size_t Read( void *ptr, size_t size, size_t n = 1 )	{ return fread( ptr, size, n, fp ); }

  00081	6a 01		 push	 1
  00083	50		 push	 eax
  00084	8d 45 b0	 lea	 eax, DWORD PTR _buff$[ebp]
  00087	50		 push	 eax
  00088	e8 00 00 00 00	 call	 _fread
  0008d	ff 75 a0	 push	 DWORD PTR _resFp$[ebp+4]
  00090	8d 45 94	 lea	 eax, DWORD PTR _d0$[ebp]
  00093	6a 01		 push	 1
  00095	6a 04		 push	 4
  00097	50		 push	 eax
  00098	e8 00 00 00 00	 call	 _fread
  0009d	ff 75 a0	 push	 DWORD PTR _resFp$[ebp+4]
  000a0	8d 45 94	 lea	 eax, DWORD PTR _d0$[ebp]
  000a3	6a 01		 push	 1
  000a5	6a 04		 push	 4
  000a7	50		 push	 eax
  000a8	e8 00 00 00 00	 call	 _fread
  000ad	83 c4 40	 add	 esp, 64			; 00000040H
  000b0	8d 45 a4	 lea	 eax, DWORD PTR _v$[ebp]
  000b3	ff 75 a0	 push	 DWORD PTR _resFp$[ebp+4]
  000b6	6a 01		 push	 1
  000b8	6a 0c		 push	 12			; 0000000cH
  000ba	50		 push	 eax
  000bb	e8 00 00 00 00	 call	 _fread
  000c0	ff 75 a0	 push	 DWORD PTR _resFp$[ebp+4]
  000c3	8d 45 a4	 lea	 eax, DWORD PTR _v$[ebp]
  000c6	6a 01		 push	 1
  000c8	6a 0c		 push	 12			; 0000000cH
  000ca	50		 push	 eax
  000cb	e8 00 00 00 00	 call	 _fread
  000d0	ff 75 a0	 push	 DWORD PTR _resFp$[ebp+4]
  000d3	8d 45 90	 lea	 eax, DWORD PTR _f0$[ebp]
  000d6	6a 01		 push	 1
  000d8	6a 04		 push	 4
  000da	50		 push	 eax
  000db	e8 00 00 00 00	 call	 _fread
  000e0	ff 75 a0	 push	 DWORD PTR _resFp$[ebp+4]
  000e3	8d 45 90	 lea	 eax, DWORD PTR _f0$[ebp]
  000e6	6a 01		 push	 1
  000e8	6a 04		 push	 4
  000ea	50		 push	 eax
  000eb	e8 00 00 00 00	 call	 _fread
  000f0	83 c4 40	 add	 esp, 64			; 00000040H

; 25   : 	virtual int  Seek( long offset, int whence ) { return fseek( fp, offset, whence ); }

  000f3	6a 01		 push	 1
  000f5	6a 10		 push	 16			; 00000010H
  000f7	ff 75 a0	 push	 DWORD PTR _resFp$[ebp+4]
  000fa	e8 00 00 00 00	 call	 _fseek

; 27   : 	virtual size_t Read( void *ptr, size_t size, size_t n = 1 )	{ return fread( ptr, size, n, fp ); }

  000ff	ff 75 a0	 push	 DWORD PTR _resFp$[ebp+4]
  00102	8d 45 a4	 lea	 eax, DWORD PTR _v$[ebp]
  00105	6a 01		 push	 1
  00107	6a 0c		 push	 12			; 0000000cH
  00109	50		 push	 eax
  0010a	e8 00 00 00 00	 call	 _fread
  0010f	ff 75 a0	 push	 DWORD PTR _resFp$[ebp+4]
  00112	8d 45 a4	 lea	 eax, DWORD PTR _v$[ebp]
  00115	6a 01		 push	 1
  00117	6a 0c		 push	 12			; 0000000cH
  00119	50		 push	 eax
  0011a	e8 00 00 00 00	 call	 _fread
  0011f	ff 75 a0	 push	 DWORD PTR _resFp$[ebp+4]
  00122	8d 45 90	 lea	 eax, DWORD PTR _f0$[ebp]
  00125	6a 01		 push	 1
  00127	6a 04		 push	 4
  00129	50		 push	 eax
  0012a	e8 00 00 00 00	 call	 _fread
  0012f	ff 75 a0	 push	 DWORD PTR _resFp$[ebp+4]
  00132	8d 45 94	 lea	 eax, DWORD PTR _d0$[ebp]
  00135	6a 01		 push	 1
  00137	6a 04		 push	 4
  00139	50		 push	 eax
  0013a	e8 00 00 00 00	 call	 _fread
  0013f	83 c4 4c	 add	 esp, 76			; 0000004cH
; File C:\IAGOS\server\v18\Source\Source\_Common\object3d.cpp

; 901  : 	if( d0 > 0 )			// MaxFrame이 있냐?

  00142	33 db		 xor	 ebx, ebx
  00144	39 5d 94	 cmp	 DWORD PTR _d0$[ebp], ebx

; 902  : 		bAnimate = TRUE;
; 903  : 	else
; 904  : 		bAnimate = FALSE;
; 905  : 
; 906  : 	resFp.Close();

  00147	8d 4d 9c	 lea	 ecx, DWORD PTR _resFp$[ebp]
  0014a	0f 9f c3	 setg	 bl
  0014d	e8 00 00 00 00	 call	 ?Close@CFileIO@@UAEHXZ	; CFileIO::Close
$LN7@IsAnimateF:
; File C:\IAGOS\server\v18\Source\Source\_Common\File.h

; 17   : 	virtual ~CFileIO() { Close(); }

  00152	8d 4d 9c	 lea	 ecx, DWORD PTR _resFp$[ebp]
  00155	c7 45 fc 02 00
	00 00		 mov	 DWORD PTR __$EHRec$[ebp+8], 2
  0015c	c7 45 9c 00 00
	00 00		 mov	 DWORD PTR _resFp$[ebp], OFFSET ??_7CFileIO@@6B@
  00163	e8 00 00 00 00	 call	 ?Close@CFileIO@@UAEHXZ	; CFileIO::Close
; File C:\IAGOS\server\v18\Source\Source\_Common\object3d.cpp

; 908  : 	return bAnimate;

  00168	8b c3		 mov	 eax, ebx

; 909  : }

  0016a	8b 4d f4	 mov	 ecx, DWORD PTR __$EHRec$[ebp]
  0016d	64 89 0d 00 00
	00 00		 mov	 DWORD PTR fs:0, ecx
  00174	59		 pop	 ecx
  00175	5e		 pop	 esi
  00176	5b		 pop	 ebx
  00177	8b 4d f0	 mov	 ecx, DWORD PTR __$ArrayPad$[ebp]
  0017a	33 cd		 xor	 ecx, ebp
  0017c	e8 00 00 00 00	 call	 @__security_check_cookie@4
  00181	8b e5		 mov	 esp, ebp
  00183	5d		 pop	 ebp
  00184	c3		 ret	 0
_TEXT	ENDS
;	COMDAT text$x
text$x	SEGMENT
__unwindfunclet$?IsAnimateFile@CObject3D@@SAHPBD@Z$0:
  00000	8d 4d 9c	 lea	 ecx, DWORD PTR _resFp$[ebp]
  00003	e9 00 00 00 00	 jmp	 ??1CFileIO@@UAE@XZ	; CFileIO::~CFileIO
  00008	cc		 int	 3
  00009	cc		 int	 3
  0000a	cc		 int	 3
  0000b	cc		 int	 3
  0000c	cc		 int	 3
__ehhandler$?IsAnimateFile@CObject3D@@SAHPBD@Z:
  0000d	90		 npad	 1
  0000e	90		 npad	 1
  0000f	8b 54 24 08	 mov	 edx, DWORD PTR [esp+8]
  00013	8d 42 0c	 lea	 eax, DWORD PTR [edx+12]
  00016	8b 4a 90	 mov	 ecx, DWORD PTR [edx-112]
  00019	33 c8		 xor	 ecx, eax
  0001b	e8 00 00 00 00	 call	 @__security_check_cookie@4
  00020	8b 4a fc	 mov	 ecx, DWORD PTR [edx-4]
  00023	33 c8		 xor	 ecx, eax
  00025	e8 00 00 00 00	 call	 @__security_check_cookie@4
  0002a	b8 00 00 00 00	 mov	 eax, OFFSET __ehfuncinfo$?IsAnimateFile@CObject3D@@SAHPBD@Z
  0002f	e9 00 00 00 00	 jmp	 ___CxxFrameHandler3
text$x	ENDS
?IsAnimateFile@CObject3D@@SAHPBD@Z ENDP			; CObject3D::IsAnimateFile
; Function compile flags: /Ogtp
; File C:\IAGOS\server\v18\Source\Source\_Common\object3d.cpp
; File C:\IAGOS\server\v18\Source\Source\_Common\File.h
; File C:\IAGOS\server\v18\Source\Source\_Common\object3d.cpp
; File C:\Program Files\Microsoft Visual Studio\2022\Professional\VC\Tools\MSVC\14.44.35207\atlmfc\include\atlsimpstr.h
; File C:\IAGOS\server\v18\Source\Source\_Common\object3d.cpp
; File C:\Program Files\Microsoft Visual Studio\2022\Professional\VC\Tools\MSVC\14.44.35207\atlmfc\include\atlsimpstr.h
; File C:\IAGOS\server\v18\Source\Source\_Common\object3d.cpp
; File C:\Program Files\Microsoft Visual Studio\2022\Professional\VC\Tools\MSVC\14.44.35207\atlmfc\include\atlsimpstr.h
; File C:\IAGOS\server\v18\Source\Source\_Common\object3d.cpp
; File C:\IAGOS\server\v18\Source\Source\_Common\File.h
; File C:\IAGOS\server\v18\Source\Source\_Common\object3d.cpp
; File C:\IAGOS\server\v18\Source\Source\_Common\File.h
; File C:\IAGOS\server\v18\Source\Source\_Common\object3d.cpp
; File C:\IAGOS\server\v18\Source\Source\_Common\File.h
; File C:\IAGOS\server\v18\Source\Source\_Common\object3d.cpp
; File C:\IAGOS\server\v18\Source\Source\_Common\File.h
; File C:\IAGOS\server\v18\Source\Source\_Common\object3d.cpp
; File C:\IAGOS\server\v18\Source\Source\_Common\File.h
; File C:\IAGOS\server\v18\Source\Source\_Common\object3d.cpp
; File C:\IAGOS\server\v18\Source\Source\_Common\File.h
; File C:\IAGOS\server\v18\Source\Source\_Common\object3d.cpp
; File C:\IAGOS\server\v18\Source\Source\_Common\File.h
; File C:\IAGOS\server\v18\Source\Source\_Common\object3d.cpp
; File C:\IAGOS\server\v18\Source\Source\_Common\File.h
; File C:\IAGOS\server\v18\Source\Source\_Common\object3d.cpp
; File C:\IAGOS\server\v18\Source\Source\_Common\File.h
; File C:\IAGOS\server\v18\Source\Source\_Common\object3d.cpp
; File C:\IAGOS\server\v18\Source\Source\_Common\File.h
; File C:\IAGOS\server\v18\Source\Source\_Common\object3d.cpp
; File C:\IAGOS\server\v18\Source\Source\_Common\File.h
; File C:\IAGOS\server\v18\Source\Source\_Common\object3d.cpp
; File C:\IAGOS\server\v18\Source\Source\_Common\File.h
; File C:\IAGOS\server\v18\Source\Source\_Common\object3d.cpp
; File C:\IAGOS\server\v18\Source\Source\_Common\File.h
; File C:\IAGOS\server\v18\Source\Source\_Common\object3d.cpp
; File C:\IAGOS\server\v18\Source\Source\_Common\File.h
; File C:\IAGOS\server\v18\Source\Source\_Common\object3d.cpp
; File C:\IAGOS\server\v18\Source\Source\_Common\File.h
; File C:\IAGOS\server\v18\Source\Source\_Common\object3d.cpp
; File C:\IAGOS\server\v18\Source\Source\_Common\File.h
; File C:\IAGOS\server\v18\Source\Source\_Common\object3d.cpp
; File C:\IAGOS\server\v18\Source\Source\_Common\File.h
; File C:\IAGOS\server\v18\Source\Source\_Common\object3d.cpp
; File C:\IAGOS\server\v18\Source\Source\_Common\File.h
; File C:\IAGOS\server\v18\Source\Source\_Common\object3d.cpp
; File C:\IAGOS\server\v18\Source\Source\_Common\File.h
; File C:\IAGOS\server\v18\Source\Source\_Common\object3d.cpp
; File C:\IAGOS\server\v18\Source\Source\_Common\File.h
; File C:\IAGOS\server\v18\Source\Source\_Common\object3d.cpp
; File C:\IAGOS\server\v18\Source\Source\_Common\File.h
; File C:\IAGOS\server\v18\Source\Source\_Common\object3d.cpp
; File C:\IAGOS\server\v18\Source\Source\_Common\File.h
; File C:\IAGOS\server\v18\Source\Source\_Common\object3d.cpp
; File C:\IAGOS\server\v18\Source\Source\_Common\File.h
; File C:\IAGOS\server\v18\Source\Source\_Common\object3d.cpp
; File C:\IAGOS\server\v18\Source\Source\_Common\File.h
; File C:\IAGOS\server\v18\Source\Source\_Common\object3d.cpp
; File C:\IAGOS\server\v18\Source\Source\_Common\File.h
; File C:\IAGOS\server\v18\Source\Source\_Common\object3d.cpp
; File C:\IAGOS\server\v18\Source\Source\_Common\File.h
; File C:\IAGOS\server\v18\Source\Source\_Common\object3d.cpp
; File C:\IAGOS\server\v18\Source\Source\_Common\File.h
; File C:\IAGOS\server\v18\Source\Source\_Common\object3d.cpp
; File C:\IAGOS\server\v18\Source\Source\_Common\File.h
; File C:\IAGOS\server\v18\Source\Source\_Common\object3d.cpp
; File C:\IAGOS\server\v18\Source\Source\_Common\File.h
; File C:\IAGOS\server\v18\Source\Source\_Common\object3d.cpp
; File C:\IAGOS\server\v18\Source\Source\_Common\File.h
; File C:\IAGOS\server\v18\Source\Source\_Common\object3d.cpp
; File C:\IAGOS\server\v18\Source\Source\_Common\File.h
; File C:\IAGOS\server\v18\Source\Source\_Common\object3d.cpp
; File C:\IAGOS\server\v18\Source\Source\_Common\File.h
; File C:\IAGOS\server\v18\Source\Source\_Common\object3d.cpp
; File C:\IAGOS\server\v18\Source\Source\_Common\File.h
; File C:\IAGOS\server\v18\Source\Source\_Common\object3d.cpp
; File C:\IAGOS\server\v18\Source\Source\_Common\File.h
; File C:\IAGOS\server\v18\Source\Source\_Common\object3d.cpp
; File C:\IAGOS\server\v18\Source\Source\_Common\File.h
; File C:\IAGOS\server\v18\Source\Source\_Common\object3d.cpp
; File C:\IAGOS\server\v18\Source\Source\_Common\File.h
; File C:\IAGOS\server\v18\Source\Source\_Common\object3d.cpp
; File C:\IAGOS\server\v18\Source\Source\_Common\File.h
; File C:\IAGOS\server\v18\Source\Source\_Common\object3d.cpp
; File C:\IAGOS\server\v18\Source\Source\_Common\File.h
; File C:\IAGOS\server\v18\Source\Source\_Common\object3d.cpp
; File C:\IAGOS\server\v18\Source\Source\_Common\File.h
; File C:\IAGOS\server\v18\Source\Source\_Common\object3d.cpp
; File C:\IAGOS\server\v18\Source\Source\_Common\File.h
; File C:\IAGOS\server\v18\Source\Source\_Common\object3d.cpp
; File C:\IAGOS\server\v18\Source\Source\_Common\File.h
; File C:\IAGOS\server\v18\Source\Source\_Common\object3d.cpp
; File C:\IAGOS\server\v18\Source\Source\_Common\File.h
; File C:\IAGOS\server\v18\Source\Source\_Common\object3d.cpp
; File C:\IAGOS\server\v18\Source\Source\_Common\File.h
; File C:\IAGOS\server\v18\Source\Source\_Common\object3d.cpp
; File C:\IAGOS\server\v18\Source\Source\_Common\File.h
; File C:\IAGOS\server\v18\Source\Source\_Common\object3d.cpp
; File C:\IAGOS\server\v18\Source\Source\_Common\File.h
; File C:\IAGOS\server\v18\Source\Source\_Common\object3d.cpp
; File C:\IAGOS\server\v18\Source\Source\_Common\File.h
; File C:\IAGOS\server\v18\Source\Source\_Common\object3d.cpp
; File C:\IAGOS\server\v18\Source\Source\_Common\File.h
; File C:\IAGOS\server\v18\Source\Source\_Common\object3d.cpp
; File C:\IAGOS\server\v18\Source\Source\_Common\File.h
; File C:\IAGOS\server\v18\Source\Source\_Common\object3d.cpp
; File C:\IAGOS\server\v18\Source\Source\_Common\File.h
; File C:\IAGOS\server\v18\Source\Source\_Common\object3d.cpp
; File C:\IAGOS\server\v18\Source\Source\_Common\File.h
; File C:\IAGOS\server\v18\Source\Source\_Common\object3d.cpp
; File C:\IAGOS\server\v18\Source\Source\_Common\File.h
; File C:\IAGOS\server\v18\Source\Source\_Common\object3d.cpp
; File C:\IAGOS\server\v18\Source\Source\_Common\File.h
; File C:\IAGOS\server\v18\Source\Source\_Common\object3d.cpp
; File C:\IAGOS\server\v18\Source\Source\_Common\File.h
; File C:\IAGOS\server\v18\Source\Source\_Common\object3d.cpp
; File C:\IAGOS\server\v18\Source\Source\_Common\File.h
; File C:\IAGOS\server\v18\Source\Source\_Common\object3d.cpp
; File C:\IAGOS\server\v18\Source\Source\_Common\File.h
; File C:\IAGOS\server\v18\Source\Source\_Common\object3d.cpp
; File C:\IAGOS\server\v18\Source\Source\_Common\File.h
; File C:\IAGOS\server\v18\Source\Source\_Common\object3d.cpp
; File C:\IAGOS\server\v18\Source\Source\_Common\File.h
; File C:\IAGOS\server\v18\Source\Source\_Common\object3d.cpp
; File C:\IAGOS\server\v18\Source\Source\_Common\File.h
; File C:\IAGOS\server\v18\Source\Source\_Common\object3d.cpp
; File C:\IAGOS\server\v18\Source\Source\_Common\File.h
; File C:\IAGOS\server\v18\Source\Source\_Common\object3d.cpp
; File C:\IAGOS\server\v18\Source\Source\_Common\File.h
; File C:\IAGOS\server\v18\Source\Source\_Common\object3d.cpp
; File C:\IAGOS\server\v18\Source\Source\_Common\File.h
; File C:\IAGOS\server\v18\Source\Source\_Common\object3d.cpp
; File C:\IAGOS\server\v18\Source\Source\DX_SDK\d3dx9math.inl
; File C:\IAGOS\server\v18\Source\Source\_Common\object3d.cpp
; File C:\IAGOS\server\v18\Source\Source\_Common\File.h
; File C:\IAGOS\server\v18\Source\Source\_Common\object3d.cpp
; File C:\IAGOS\server\v18\Source\Source\_Common\File.h
; File C:\IAGOS\server\v18\Source\Source\_Common\object3d.cpp
; File C:\IAGOS\server\v18\Source\Source\_Common\File.h
; File C:\IAGOS\server\v18\Source\Source\_Common\object3d.cpp
; File C:\IAGOS\server\v18\Source\Source\_Common\File.h
; File C:\IAGOS\server\v18\Source\Source\_Common\object3d.cpp
; File C:\IAGOS\server\v18\Source\Source\_Common\File.h
; File C:\IAGOS\server\v18\Source\Source\_Common\object3d.cpp
; File C:\IAGOS\server\v18\Source\Source\_Common\File.h
; File C:\IAGOS\server\v18\Source\Source\_Common\object3d.cpp
;	COMDAT ?LoadObject@CObject3D@@QAEHPBD@Z
_TEXT	SEGMENT
tv1630 = -612						; size = 4
_nTemp$ = -608						; size = 4
_nType$2 = -604						; size = 4
_nDebugSize$1$ = -600					; size = 4
_nVer$ = -596						; size = 4
_nMaxGroup$1$ = -592					; size = 4
_nParentIdx$3 = -588					; size = 4
$T4 = -584						; size = 4
_bRet$1$ = -580						; size = 4
tv1651 = -580						; size = 4
_j$4$ = -576						; size = 4
_szFileName$GSCopy$1$ = -576				; size = 4
_this$GSCopy$1$ = -572					; size = 4
_nPoolSize$ = -568					; size = 4
$T5 = -564						; size = 4
$T6 = -564						; size = 4
$T7 = -564						; size = 4
tv1660 = -564						; size = 4
$T8 = -560						; size = 4
$T9 = -560						; size = 4
tv1689 = -560						; size = 4
_bNormalObj$1$ = -556					; size = 4
$T10 = -556						; size = 4
_nAttr$11 = -556					; size = 4
tv1650 = -552						; size = 4
tv1658 = -552						; size = 4
_cLen$ = -545						; size = 1
_resFp$ = -544						; size = 8
_szName$ = -536						; size = 260
_buff$ = -276						; size = 260
__$ArrayPad$ = -16					; size = 4
__$EHRec$ = -12						; size = 12
_szFileName$ = 8					; size = 4
?LoadObject@CObject3D@@QAEHPBD@Z PROC			; CObject3D::LoadObject, COMDAT
; _this$ = ecx

; 915  : {

  00000	55		 push	 ebp
  00001	8b ec		 mov	 ebp, esp
  00003	6a ff		 push	 -1
  00005	68 00 00 00 00	 push	 __ehhandler$?LoadObject@CObject3D@@QAEHPBD@Z
  0000a	64 a1 00 00 00
	00		 mov	 eax, DWORD PTR fs:0
  00010	50		 push	 eax
  00011	81 ec 58 02 00
	00		 sub	 esp, 600		; 00000258H
  00017	a1 00 00 00 00	 mov	 eax, DWORD PTR ___security_cookie
  0001c	33 c5		 xor	 eax, ebp
  0001e	89 45 f0	 mov	 DWORD PTR __$ArrayPad$[ebp], eax
  00021	56		 push	 esi
  00022	57		 push	 edi
  00023	50		 push	 eax
  00024	8d 45 f4	 lea	 eax, DWORD PTR __$EHRec$[ebp]
  00027	64 a3 00 00 00
	00		 mov	 DWORD PTR fs:0, eax
  0002d	8b f9		 mov	 edi, ecx
  0002f	89 bd c4 fd ff
	ff		 mov	 DWORD PTR _this$GSCopy$1$[ebp], edi
  00035	8b 75 08	 mov	 esi, DWORD PTR _szFileName$[ebp]

; 916  : 	int		j, nTemp;
; 917  : 	int		nVer;
; 918  : 	D3DXVECTOR3	vTemp;
; 919  : 	BOOL	bNormalObj = FALSE;

  00038	33 c0		 xor	 eax, eax
  0003a	89 b5 c0 fd ff
	ff		 mov	 DWORD PTR _szFileName$GSCopy$1$[ebp], esi
  00040	89 85 d4 fd ff
	ff		 mov	 DWORD PTR _bNormalObj$1$[ebp], eax
; File C:\IAGOS\server\v18\Source\Source\_Common\File.h

; 15   : 	CFileIO() { fp = NULL; } 

  00046	c7 85 e0 fd ff
	ff 00 00 00 00	 mov	 DWORD PTR _resFp$[ebp], OFFSET ??_7CFileIO@@6B@
  00050	89 85 e4 fd ff
	ff		 mov	 DWORD PTR _resFp$[ebp+4], eax
; File C:\IAGOS\server\v18\Source\Source\_Common\object3d.cpp

; 923  : 	BOOL bRet = resFp.Open( MakePath( DIR_MODEL, szFileName ), "rb" );

  00056	56		 push	 esi
  00057	89 45 fc	 mov	 DWORD PTR __$EHRec$[ebp+8], eax
  0005a	8d 85 d0 fd ff
	ff		 lea	 eax, DWORD PTR $T8[ebp]
  00060	68 00 00 00 00	 push	 OFFSET ??_C@_06IJGEHPBH@Model?2@
  00065	50		 push	 eax
  00066	e8 00 00 00 00	 call	 ?MakePath@@YA?AV?$CStringT@DV?$StrTraitMFC@DV?$ChTraitsCRT@D@ATL@@@@@ATL@@PBD0@Z ; MakePath
  0006b	83 c4 0c	 add	 esp, 12			; 0000000cH
  0006e	68 00 00 00 00	 push	 OFFSET ??_C@_02JDPG@rb@
  00073	ff 30		 push	 DWORD PTR [eax]
  00075	8d 8d e0 fd ff
	ff		 lea	 ecx, DWORD PTR _resFp$[ebp]
  0007b	c6 45 fc 01	 mov	 BYTE PTR __$EHRec$[ebp+8], 1
  0007f	e8 00 00 00 00	 call	 ?Open@CFileIO@@UAEHPBDPAD@Z ; CFileIO::Open
; File C:\Program Files\Microsoft Visual Studio\2022\Professional\VC\Tools\MSVC\14.44.35207\atlmfc\include\atlsimpstr.h

; 804  : 		return( reinterpret_cast< CStringData* >( m_pszData )-1 );

  00084	8b 95 d0 fd ff
	ff		 mov	 edx, DWORD PTR $T8[ebp]

; 92   : 		if( _InterlockedDecrement( &nRefs ) <= 0 )

  0008a	83 c9 ff	 or	 ecx, -1
; File C:\IAGOS\server\v18\Source\Source\_Common\object3d.cpp

; 923  : 	BOOL bRet = resFp.Open( MakePath( DIR_MODEL, szFileName ), "rb" );

  0008d	89 85 bc fd ff
	ff		 mov	 DWORD PTR _bRet$1$[ebp], eax
; File C:\Program Files\Microsoft Visual Studio\2022\Professional\VC\Tools\MSVC\14.44.35207\atlmfc\include\atlsimpstr.h

; 804  : 		return( reinterpret_cast< CStringData* >( m_pszData )-1 );

  00093	83 c2 f0	 add	 edx, -16		; fffffff0H
; File C:\IAGOS\server\v18\Source\Source\_Common\object3d.cpp

; 923  : 	BOOL bRet = resFp.Open( MakePath( DIR_MODEL, szFileName ), "rb" );

  00096	c6 45 fc 00	 mov	 BYTE PTR __$EHRec$[ebp+8], 0
; File C:\Program Files\Microsoft Visual Studio\2022\Professional\VC\Tools\MSVC\14.44.35207\atlmfc\include\atlsimpstr.h

; 92   : 		if( _InterlockedDecrement( &nRefs ) <= 0 )

  0009a	f0 0f c1 4a 0c	 lock	  xadd	 DWORD PTR [edx+12], ecx
  0009f	49		 dec	 ecx
  000a0	85 c9		 test	 ecx, ecx
  000a2	7f 0e		 jg	 SHORT $LN106@LoadObject

; 93   : 		{
; 94   : 			pStringMgr->Free( this );

  000a4	8b 0a		 mov	 ecx, DWORD PTR [edx]
  000a6	52		 push	 edx
  000a7	8b 01		 mov	 eax, DWORD PTR [ecx]
  000a9	ff 50 04	 call	 DWORD PTR [eax+4]
  000ac	8b 85 bc fd ff
	ff		 mov	 eax, DWORD PTR _bRet$1$[ebp]
$LN106@LoadObject:
; File C:\IAGOS\server\v18\Source\Source\_Common\object3d.cpp

; 924  : 	if( bRet == FALSE )	

  000b2	85 c0		 test	 eax, eax
  000b4	75 3c		 jne	 SHORT $LN22@LoadObject
; File C:\IAGOS\server\v18\Source\Source\_Common\File.h

; 17   : 	virtual ~CFileIO() { Close(); }

  000b6	c7 45 fc 02 00
	00 00		 mov	 DWORD PTR __$EHRec$[ebp+8], 2
$LN273@LoadObject:
; File C:\IAGOS\server\v18\Source\Source\_Common\object3d.cpp

; 1187 : }

  000bd	8d 8d e0 fd ff
	ff		 lea	 ecx, DWORD PTR _resFp$[ebp]
  000c3	c7 85 e0 fd ff
	ff 00 00 00 00	 mov	 DWORD PTR _resFp$[ebp], OFFSET ??_7CFileIO@@6B@
  000cd	e8 00 00 00 00	 call	 ?Close@CFileIO@@UAEHXZ	; CFileIO::Close
  000d2	83 c8 ff	 or	 eax, -1
$LN1@LoadObject:
  000d5	8b 4d f4	 mov	 ecx, DWORD PTR __$EHRec$[ebp]
  000d8	64 89 0d 00 00
	00 00		 mov	 DWORD PTR fs:0, ecx
  000df	59		 pop	 ecx
  000e0	5f		 pop	 edi
  000e1	5e		 pop	 esi
  000e2	8b 4d f0	 mov	 ecx, DWORD PTR __$ArrayPad$[ebp]
  000e5	33 cd		 xor	 ecx, ebp
  000e7	e8 00 00 00 00	 call	 @__security_check_cookie@4
  000ec	8b e5		 mov	 esp, ebp
  000ee	5d		 pop	 ebp
  000ef	c2 04 00	 ret	 4
$LN22@LoadObject:

; 925  : 	{
; 926  : 		//Error( "LoadObject : %s 읽기 실패", szFileName );
; 927  : 		return FAIL;
; 928  : 	}
; 929  : 	Init();

  000f2	8b cf		 mov	 ecx, edi
  000f4	e8 00 00 00 00	 call	 ?Init@CObject3D@@AAEXXZ	; CObject3D::Init

; 930  : 
; 931  : 	// 파일명 카피
; 932  : 	char szName[MAX_PATH];
; 933  : 	strcpy( m_szFileName, szFileName );

  000f9	8d 97 c0 00 00
	00		 lea	 edx, DWORD PTR [edi+192]
  000ff	8b ce		 mov	 ecx, esi
  00101	2b d6		 sub	 edx, esi
$LL52@LoadObject:
  00103	8a 01		 mov	 al, BYTE PTR [ecx]
  00105	8d 49 01	 lea	 ecx, DWORD PTR [ecx+1]
  00108	88 44 0a ff	 mov	 BYTE PTR [edx+ecx-1], al
  0010c	84 c0		 test	 al, al
  0010e	75 f3		 jne	 SHORT $LL52@LoadObject

; 934  : 	strlwr( m_szFileName );

  00110	8d 87 c0 00 00
	00		 lea	 eax, DWORD PTR [edi+192]
  00116	50		 push	 eax
  00117	e8 00 00 00 00	 call	 _strlwr

; 935  : //	strcpy( szName, GetFileName(szFileName) );
; 936  : 	GetFileName( szFileName, szName );

  0011c	8d 85 e8 fd ff
	ff		 lea	 eax, DWORD PTR _szName$[ebp]
  00122	50		 push	 eax
  00123	56		 push	 esi
  00124	e8 00 00 00 00	 call	 ?GetFileName@@YAXPBDPAD@Z ; GetFileName
; File C:\IAGOS\server\v18\Source\Source\_Common\File.h

; 27   : 	virtual size_t Read( void *ptr, size_t size, size_t n = 1 )	{ return fread( ptr, size, n, fp ); }

  00129	ff b5 e4 fd ff
	ff		 push	 DWORD PTR _resFp$[ebp+4]
  0012f	8d 85 df fd ff
	ff		 lea	 eax, DWORD PTR _cLen$[ebp]
  00135	6a 01		 push	 1
  00137	6a 01		 push	 1
  00139	50		 push	 eax
  0013a	e8 00 00 00 00	 call	 _fread
  0013f	ff b5 e4 fd ff
	ff		 push	 DWORD PTR _resFp$[ebp+4]
; File C:\IAGOS\server\v18\Source\Source\_Common\object3d.cpp

; 941  : 	resFp.Read( buff, cLen, 1 );	// 파일명 읽음.

  00145	0f be 85 df fd
	ff ff		 movsx	 eax, BYTE PTR _cLen$[ebp]
; File C:\IAGOS\server\v18\Source\Source\_Common\File.h

; 27   : 	virtual size_t Read( void *ptr, size_t size, size_t n = 1 )	{ return fread( ptr, size, n, fp ); }

  0014c	6a 01		 push	 1
  0014e	50		 push	 eax
  0014f	8d 85 ec fe ff
	ff		 lea	 eax, DWORD PTR _buff$[ebp]
  00155	50		 push	 eax
  00156	e8 00 00 00 00	 call	 _fread
; File C:\IAGOS\server\v18\Source\Source\_Common\object3d.cpp

; 942  : 	for( j = 0; j < cLen; j ++ )

  0015b	8a 85 df fd ff
	ff		 mov	 al, BYTE PTR _cLen$[ebp]
; File C:\IAGOS\server\v18\Source\Source\_Common\File.h

; 27   : 	virtual size_t Read( void *ptr, size_t size, size_t n = 1 )	{ return fread( ptr, size, n, fp ); }

  00161	83 c4 2c	 add	 esp, 44			; 0000002cH
; File C:\IAGOS\server\v18\Source\Source\_Common\object3d.cpp

; 942  : 	for( j = 0; j < cLen; j ++ )

  00164	0f be d0	 movsx	 edx, al
  00167	33 c9		 xor	 ecx, ecx
  00169	89 95 d0 fd ff
	ff		 mov	 DWORD PTR $T9[ebp], edx
  0016f	84 c0		 test	 al, al
  00171	0f 8e b6 00 00
	00		 jle	 $LN3@LoadObject
  00177	83 fa 40	 cmp	 edx, 64			; 00000040H
  0017a	0f 82 a0 00 00
	00		 jb	 $LL262@LoadObject

; 943  : 		buff[j] = buff[j] ^ (char)0xcd;	// 암호화 해제

  00180	8b c2		 mov	 eax, edx
  00182	25 3f 00 00 80	 and	 eax, -2147483585	; 8000003fH
  00187	79 05		 jns	 SHORT $LN271@LoadObject
  00189	48		 dec	 eax
  0018a	83 c8 c0	 or	 eax, -64		; ffffffc0H
  0018d	40		 inc	 eax
$LN271@LoadObject:
  0018e	0f 28 15 00 00
	00 00		 movaps	 xmm2, XMMWORD PTR __xmm@cdcdcdcdcdcdcdcdcdcdcdcdcdcdcdcd
  00195	8d bd ec fe ff
	ff		 lea	 edi, DWORD PTR _buff$[ebp]
  0019b	89 95 d8 fd ff
	ff		 mov	 DWORD PTR tv1658[ebp], edx
  001a1	8d b5 0c ff ff
	ff		 lea	 esi, DWORD PTR _buff$[ebp+32]
  001a7	29 85 d8 fd ff
	ff		 sub	 DWORD PTR tv1658[ebp], eax
  001ad	8d 95 1c ff ff
	ff		 lea	 edx, DWORD PTR _buff$[ebp+48]
  001b3	8b 85 d8 fd ff
	ff		 mov	 eax, DWORD PTR tv1658[ebp]
  001b9	0f 1f 80 00 00
	00 00		 npad	 7
$LL4@LoadObject:
  001c0	0f 10 04 0f	 movups	 xmm0, XMMWORD PTR [edi+ecx]
  001c4	0f 28 ca	 movaps	 xmm1, xmm2
  001c7	0f 57 c8	 xorps	 xmm1, xmm0
  001ca	0f 11 0c 0f	 movups	 XMMWORD PTR [edi+ecx], xmm1
  001ce	0f 10 84 0d fc
	fe ff ff	 movups	 xmm0, XMMWORD PTR _buff$[ebp+ecx+16]
  001d6	0f 28 ca	 movaps	 xmm1, xmm2
  001d9	0f 57 c8	 xorps	 xmm1, xmm0
  001dc	0f 11 8c 0d fc
	fe ff ff	 movups	 XMMWORD PTR _buff$[ebp+ecx+16], xmm1
  001e4	0f 10 04 0e	 movups	 xmm0, XMMWORD PTR [esi+ecx]
  001e8	0f 28 ca	 movaps	 xmm1, xmm2
  001eb	0f 57 c8	 xorps	 xmm1, xmm0
  001ee	0f 11 0c 0e	 movups	 XMMWORD PTR [esi+ecx], xmm1
  001f2	0f 10 04 0a	 movups	 xmm0, XMMWORD PTR [edx+ecx]
  001f6	0f 28 ca	 movaps	 xmm1, xmm2
  001f9	0f 57 c8	 xorps	 xmm1, xmm0
  001fc	0f 11 0c 0a	 movups	 XMMWORD PTR [edx+ecx], xmm1
  00200	83 c1 40	 add	 ecx, 64			; 00000040H
  00203	3b c8		 cmp	 ecx, eax
  00205	7c b9		 jl	 SHORT $LL4@LoadObject

; 942  : 	for( j = 0; j < cLen; j ++ )

  00207	8b 95 d0 fd ff
	ff		 mov	 edx, DWORD PTR $T9[ebp]
  0020d	8b bd c4 fd ff
	ff		 mov	 edi, DWORD PTR _this$GSCopy$1$[ebp]
  00213	8b b5 c0 fd ff
	ff		 mov	 esi, DWORD PTR _szFileName$GSCopy$1$[ebp]
  00219	3b ca		 cmp	 ecx, edx
  0021b	7d 10		 jge	 SHORT $LN3@LoadObject
  0021d	0f 1f 00	 npad	 3
$LL262@LoadObject:

; 943  : 		buff[j] = buff[j] ^ (char)0xcd;	// 암호화 해제

  00220	80 b4 0d ec fe
	ff ff cd	 xor	 BYTE PTR _buff$[ebp+ecx], -51 ; ffffffcdH
  00228	41		 inc	 ecx
  00229	3b ca		 cmp	 ecx, edx
  0022b	7c f3		 jl	 SHORT $LL262@LoadObject
$LN3@LoadObject:

; 944  : 
; 945  : 	if( cLen >= 64 )

  0022d	80 bd df fd ff
	ff 40		 cmp	 BYTE PTR _cLen$[ebp], 64 ; 00000040H
  00234	7c 32		 jl	 SHORT $LN23@LoadObject

; 946  : 	{
; 947  : 		Error( "LoadObject3D : %s 파일명이 너무 길다 %d", szFileName, (int)cLen );

  00236	52		 push	 edx
  00237	56		 push	 esi
  00238	68 00 00 00 00	 push	 OFFSET ??_C@_0CI@PCDMIADN@LoadObject3D?5?3?5?$CFs?5?F?D?$MA?O?$LI?m?$MA?L?5?$LD?J?$LJ?$KL@
  0023d	e8 00 00 00 00	 call	 ?Error@@YAPBDPBDZZ	; Error
  00242	83 c4 0c	 add	 esp, 12			; 0000000cH
; File C:\IAGOS\server\v18\Source\Source\_Common\File.h

; 17   : 	virtual ~CFileIO() { Close(); }

  00245	c7 45 fc 03 00
	00 00		 mov	 DWORD PTR __$EHRec$[ebp+8], 3
$LN274@LoadObject:
; File C:\IAGOS\server\v18\Source\Source\_Common\object3d.cpp

; 1187 : }

  0024c	8d 8d e0 fd ff
	ff		 lea	 ecx, DWORD PTR _resFp$[ebp]
  00252	c7 85 e0 fd ff
	ff 00 00 00 00	 mov	 DWORD PTR _resFp$[ebp], OFFSET ??_7CFileIO@@6B@
  0025c	e8 00 00 00 00	 call	 ?Close@CFileIO@@UAEHXZ	; CFileIO::Close
  00261	33 c0		 xor	 eax, eax
  00263	e9 6d fe ff ff	 jmp	 $LN1@LoadObject
$LN23@LoadObject:

; 948  : 		return 0;
; 949  : 	}
; 950  : 
; 951  : 	buff[cLen] = 0;	// 끝에 널 붙임.

  00268	81 fa 04 01 00
	00		 cmp	 edx, 260		; 00000104H
  0026e	0f 83 0a 08 00
	00		 jae	 $LN53@LoadObject

; 952  : 	if( strcmpi( szName, buff ) != 0 )	// 헤더의 파일명과 비교해보고 틀리면 에러.

  00274	8d 85 ec fe ff
	ff		 lea	 eax, DWORD PTR _buff$[ebp]
  0027a	c6 84 15 ec fe
	ff ff 00	 mov	 BYTE PTR _buff$[ebp+edx], 0
  00282	50		 push	 eax
  00283	8d 85 e8 fd ff
	ff		 lea	 eax, DWORD PTR _szName$[ebp]
  00289	50		 push	 eax
  0028a	e8 00 00 00 00	 call	 _strcmpi
  0028f	83 c4 08	 add	 esp, 8
  00292	85 c0		 test	 eax, eax
  00294	74 25		 je	 SHORT $LN24@LoadObject

; 953  : 	{
; 954  : 		Error( "잘못된 파일 : %s, %s, %s", szFileName, szName, buff );

  00296	8d 85 ec fe ff
	ff		 lea	 eax, DWORD PTR _buff$[ebp]
  0029c	50		 push	 eax
  0029d	8d 85 e8 fd ff
	ff		 lea	 eax, DWORD PTR _szName$[ebp]
  002a3	50		 push	 eax
  002a4	56		 push	 esi
  002a5	68 00 00 00 00	 push	 OFFSET ??_C@_0BJ@FJAKFGFC@?$MA?$NP?$LI?x?$LF?H?5?F?D?$MA?O?5?3?5?$CFs?0?5?$CFs?0?5?$CFs@
  002aa	e8 00 00 00 00	 call	 ?Error@@YAPBDPBDZZ	; Error
  002af	83 c4 10	 add	 esp, 16			; 00000010H
; File C:\IAGOS\server\v18\Source\Source\_Common\File.h

; 17   : 	virtual ~CFileIO() { Close(); }

  002b2	c7 45 fc 04 00
	00 00		 mov	 DWORD PTR __$EHRec$[ebp+8], 4
; File C:\IAGOS\server\v18\Source\Source\_Common\object3d.cpp

; 955  : 		return 0;

  002b9	eb 91		 jmp	 SHORT $LN274@LoadObject
$LN24@LoadObject:
; File C:\IAGOS\server\v18\Source\Source\_Common\File.h

; 27   : 	virtual size_t Read( void *ptr, size_t size, size_t n = 1 )	{ return fread( ptr, size, n, fp ); }

  002bb	ff b5 e4 fd ff
	ff		 push	 DWORD PTR _resFp$[ebp+4]
  002c1	8d 85 ac fd ff
	ff		 lea	 eax, DWORD PTR _nVer$[ebp]
  002c7	6a 01		 push	 1
  002c9	6a 04		 push	 4
  002cb	50		 push	 eax
  002cc	e8 00 00 00 00	 call	 _fread
; File C:\IAGOS\server\v18\Source\Source\_Common\object3d.cpp

; 960  : 	if( nVer < VER_MESH )

  002d1	8b 85 ac fd ff
	ff		 mov	 eax, DWORD PTR _nVer$[ebp]
; File C:\IAGOS\server\v18\Source\Source\_Common\File.h

; 27   : 	virtual size_t Read( void *ptr, size_t size, size_t n = 1 )	{ return fread( ptr, size, n, fp ); }

  002d7	83 c4 10	 add	 esp, 16			; 00000010H
; File C:\IAGOS\server\v18\Source\Source\_Common\object3d.cpp

; 960  : 	if( nVer < VER_MESH )

  002da	83 f8 14	 cmp	 eax, 20			; 00000014H
  002dd	7d 28		 jge	 SHORT $LN25@LoadObject

; 961  : 	{
; 962  : 		Error( "%s의 버전은 %d.  최신버전은 %d", szFileName, nVer, VER_MESH );

  002df	6a 14		 push	 20			; 00000014H
  002e1	50		 push	 eax
  002e2	56		 push	 esi
  002e3	68 00 00 00 00	 push	 OFFSET ??_C@_0BP@GIAEKCLE@?$CFs?$MA?G?5?$LJ?v?$MA?$PM?$MA?$LK?5?$CFd?4?5?5?C?V?$LN?E?$LJ?v?$MA?$PM?$MA?$LK?5?$CFd@
  002e8	e8 00 00 00 00	 call	 ?Error@@YAPBDPBDZZ	; Error
  002ed	83 c4 10	 add	 esp, 16			; 00000010H

; 963  : 		resFp.Close();

  002f0	8d 8d e0 fd ff
	ff		 lea	 ecx, DWORD PTR _resFp$[ebp]
  002f6	e8 00 00 00 00	 call	 ?Close@CFileIO@@UAEHXZ	; CFileIO::Close
; File C:\IAGOS\server\v18\Source\Source\_Common\File.h

; 17   : 	virtual ~CFileIO() { Close(); }

  002fb	c7 45 fc 05 00
	00 00		 mov	 DWORD PTR __$EHRec$[ebp+8], 5
; File C:\IAGOS\server\v18\Source\Source\_Common\object3d.cpp

; 964  : 		return FAIL;

  00302	e9 b6 fd ff ff	 jmp	 $LN273@LoadObject
$LN25@LoadObject:
; File C:\IAGOS\server\v18\Source\Source\_Common\File.h

; 27   : 	virtual size_t Read( void *ptr, size_t size, size_t n = 1 )	{ return fread( ptr, size, n, fp ); }

  00307	ff b5 e4 fd ff
	ff		 push	 DWORD PTR _resFp$[ebp+4]
; File C:\IAGOS\server\v18\Source\Source\_Common\object3d.cpp

; 967  : 	resFp.Read( &m_nID, 4, 1 );		// Serial ID

  0030d	8d 87 b8 00 00
	00		 lea	 eax, DWORD PTR [edi+184]
; File C:\IAGOS\server\v18\Source\Source\_Common\File.h

; 27   : 	virtual size_t Read( void *ptr, size_t size, size_t n = 1 )	{ return fread( ptr, size, n, fp ); }

  00313	6a 01		 push	 1
  00315	6a 04		 push	 4
  00317	50		 push	 eax
  00318	e8 00 00 00 00	 call	 _fread
  0031d	ff b5 e4 fd ff
	ff		 push	 DWORD PTR _resFp$[ebp+4]
; File C:\IAGOS\server\v18\Source\Source\_Common\object3d.cpp

; 968  : 	resFp.Read( &m_vForce1, sizeof(D3DXVECTOR3), 1 );		// 검광1,2의 좌표인데 일단 이렇게 하자.

  00323	8d 87 d4 0b 00
	00		 lea	 eax, DWORD PTR [edi+3028]
; File C:\IAGOS\server\v18\Source\Source\_Common\File.h

; 27   : 	virtual size_t Read( void *ptr, size_t size, size_t n = 1 )	{ return fread( ptr, size, n, fp ); }

  00329	6a 01		 push	 1
  0032b	6a 0c		 push	 12			; 0000000cH
  0032d	50		 push	 eax
  0032e	e8 00 00 00 00	 call	 _fread
  00333	ff b5 e4 fd ff
	ff		 push	 DWORD PTR _resFp$[ebp+4]
; File C:\IAGOS\server\v18\Source\Source\_Common\object3d.cpp

; 969  : 	resFp.Read( &m_vForce2, sizeof(D3DXVECTOR3), 1 );

  00339	8d 87 e0 0b 00
	00		 lea	 eax, DWORD PTR [edi+3040]
; File C:\IAGOS\server\v18\Source\Source\_Common\File.h

; 27   : 	virtual size_t Read( void *ptr, size_t size, size_t n = 1 )	{ return fread( ptr, size, n, fp ); }

  0033f	6a 01		 push	 1
  00341	6a 0c		 push	 12			; 0000000cH
  00343	50		 push	 eax
  00344	e8 00 00 00 00	 call	 _fread
  00349	83 c4 30	 add	 esp, 48			; 00000030H
; File C:\IAGOS\server\v18\Source\Source\_Common\object3d.cpp

; 971  : 	if(nVer >= 22)

  0034c	83 bd ac fd ff
	ff 16		 cmp	 DWORD PTR _nVer$[ebp], 22 ; 00000016H
  00353	7c 2f		 jl	 SHORT $LN26@LoadObject
; File C:\IAGOS\server\v18\Source\Source\_Common\File.h

; 27   : 	virtual size_t Read( void *ptr, size_t size, size_t n = 1 )	{ return fread( ptr, size, n, fp ); }

  00355	ff b5 e4 fd ff
	ff		 push	 DWORD PTR _resFp$[ebp+4]
; File C:\IAGOS\server\v18\Source\Source\_Common\object3d.cpp

; 973  : 		resFp.Read( &m_vForce3, sizeof(D3DXVECTOR3), 1 );		// 검광3,4의 좌표인데 일단 이렇게 하자.

  0035b	8d 87 ec 0b 00
	00		 lea	 eax, DWORD PTR [edi+3052]
; File C:\IAGOS\server\v18\Source\Source\_Common\File.h

; 27   : 	virtual size_t Read( void *ptr, size_t size, size_t n = 1 )	{ return fread( ptr, size, n, fp ); }

  00361	6a 01		 push	 1
  00363	6a 0c		 push	 12			; 0000000cH
  00365	50		 push	 eax
  00366	e8 00 00 00 00	 call	 _fread
  0036b	ff b5 e4 fd ff
	ff		 push	 DWORD PTR _resFp$[ebp+4]
; File C:\IAGOS\server\v18\Source\Source\_Common\object3d.cpp

; 974  : 		resFp.Read( &m_vForce4, sizeof(D3DXVECTOR3), 1 );

  00371	8d 87 f8 0b 00
	00		 lea	 eax, DWORD PTR [edi+3064]
; File C:\IAGOS\server\v18\Source\Source\_Common\File.h

; 27   : 	virtual size_t Read( void *ptr, size_t size, size_t n = 1 )	{ return fread( ptr, size, n, fp ); }

  00377	6a 01		 push	 1
  00379	6a 0c		 push	 12			; 0000000cH
  0037b	50		 push	 eax
  0037c	e8 00 00 00 00	 call	 _fread
  00381	83 c4 20	 add	 esp, 32			; 00000020H
$LN26@LoadObject:
  00384	ff b5 e4 fd ff
	ff		 push	 DWORD PTR _resFp$[ebp+4]
; File C:\IAGOS\server\v18\Source\Source\_Common\object3d.cpp

; 977  : 	resFp.Read( &m_fScrlU, sizeof(float), 1 );

  0038a	8d 87 04 0c 00
	00		 lea	 eax, DWORD PTR [edi+3076]
; File C:\IAGOS\server\v18\Source\Source\_Common\File.h

; 27   : 	virtual size_t Read( void *ptr, size_t size, size_t n = 1 )	{ return fread( ptr, size, n, fp ); }

  00390	6a 01		 push	 1
  00392	6a 04		 push	 4
  00394	50		 push	 eax
  00395	e8 00 00 00 00	 call	 _fread
  0039a	ff b5 e4 fd ff
	ff		 push	 DWORD PTR _resFp$[ebp+4]
; File C:\IAGOS\server\v18\Source\Source\_Common\object3d.cpp

; 978  : 	resFp.Read( &m_fScrlV, sizeof(float), 1 );

  003a0	8d 87 08 0c 00
	00		 lea	 eax, DWORD PTR [edi+3080]
; File C:\IAGOS\server\v18\Source\Source\_Common\File.h

; 27   : 	virtual size_t Read( void *ptr, size_t size, size_t n = 1 )	{ return fread( ptr, size, n, fp ); }

  003a6	6a 01		 push	 1
  003a8	6a 04		 push	 4
  003aa	50		 push	 eax
  003ab	e8 00 00 00 00	 call	 _fread

; 25   : 	virtual int  Seek( long offset, int whence ) { return fseek( fp, offset, whence ); }

  003b0	6a 01		 push	 1
  003b2	6a 10		 push	 16			; 00000010H
  003b4	ff b5 e4 fd ff
	ff		 push	 DWORD PTR _resFp$[ebp+4]
  003ba	e8 00 00 00 00	 call	 _fseek

; 27   : 	virtual size_t Read( void *ptr, size_t size, size_t n = 1 )	{ return fread( ptr, size, n, fp ); }

  003bf	ff b5 e4 fd ff
	ff		 push	 DWORD PTR _resFp$[ebp+4]
; File C:\IAGOS\server\v18\Source\Source\_Common\object3d.cpp

; 981  : 	resFp.Read( &m_vBBMin, sizeof(D3DXVECTOR3), 1 );		// 대표 바운딩 박스

  003c5	8d 87 bc 0b 00
	00		 lea	 eax, DWORD PTR [edi+3004]
; File C:\IAGOS\server\v18\Source\Source\_Common\File.h

; 27   : 	virtual size_t Read( void *ptr, size_t size, size_t n = 1 )	{ return fread( ptr, size, n, fp ); }

  003cb	6a 01		 push	 1
  003cd	6a 0c		 push	 12			; 0000000cH
  003cf	50		 push	 eax
  003d0	e8 00 00 00 00	 call	 _fread
  003d5	ff b5 e4 fd ff
	ff		 push	 DWORD PTR _resFp$[ebp+4]
; File C:\IAGOS\server\v18\Source\Source\_Common\object3d.cpp

; 982  : 	resFp.Read( &m_vBBMax, sizeof(D3DXVECTOR3), 1 );

  003db	8d 87 c8 0b 00
	00		 lea	 eax, DWORD PTR [edi+3016]
; File C:\IAGOS\server\v18\Source\Source\_Common\File.h

; 27   : 	virtual size_t Read( void *ptr, size_t size, size_t n = 1 )	{ return fread( ptr, size, n, fp ); }

  003e1	6a 01		 push	 1
  003e3	6a 0c		 push	 12			; 0000000cH
  003e5	50		 push	 eax
  003e6	e8 00 00 00 00	 call	 _fread
  003eb	83 c4 4c	 add	 esp, 76			; 0000004cH
; File C:\IAGOS\server\v18\Source\Source\_Common\object3d.cpp

; 983  : 	resFp.Read( &m_fPerSlerp, sizeof(float), 1 );		// per slerp

  003ee	8d 87 18 0c 00
	00		 lea	 eax, DWORD PTR [edi+3096]
; File C:\IAGOS\server\v18\Source\Source\_Common\File.h

; 27   : 	virtual size_t Read( void *ptr, size_t size, size_t n = 1 )	{ return fread( ptr, size, n, fp ); }

  003f4	ff b5 e4 fd ff
	ff		 push	 DWORD PTR _resFp$[ebp+4]
  003fa	6a 01		 push	 1
  003fc	6a 04		 push	 4
  003fe	50		 push	 eax
  003ff	e8 00 00 00 00	 call	 _fread
  00404	ff b5 e4 fd ff
	ff		 push	 DWORD PTR _resFp$[ebp+4]
; File C:\IAGOS\server\v18\Source\Source\_Common\object3d.cpp

; 984  : 	resFp.Read( &m_nMaxFrame, 4, 1 );					// ani frame 수.  애니가 없으면 0이되도록 저장할것.

  0040a	8d 87 1c 0c 00
	00		 lea	 eax, DWORD PTR [edi+3100]
; File C:\IAGOS\server\v18\Source\Source\_Common\File.h

; 27   : 	virtual size_t Read( void *ptr, size_t size, size_t n = 1 )	{ return fread( ptr, size, n, fp ); }

  00410	6a 01		 push	 1
  00412	6a 04		 push	 4
  00414	50		 push	 eax
; File C:\IAGOS\server\v18\Source\Source\_Common\object3d.cpp

; 984  : 	resFp.Read( &m_nMaxFrame, 4, 1 );					// ani frame 수.  애니가 없으면 0이되도록 저장할것.

  00415	89 85 9c fd ff
	ff		 mov	 DWORD PTR tv1630[ebp], eax
; File C:\IAGOS\server\v18\Source\Source\_Common\File.h

; 27   : 	virtual size_t Read( void *ptr, size_t size, size_t n = 1 )	{ return fread( ptr, size, n, fp ); }

  0041b	e8 00 00 00 00	 call	 _fread
  00420	ff b5 e4 fd ff
	ff		 push	 DWORD PTR _resFp$[ebp+4]
; File C:\IAGOS\server\v18\Source\Source\_Common\object3d.cpp

; 986  : 	resFp.Read( &m_nMaxEvent, 4, 1 );	// 이벤트 좌표

  00426	8d 77 40	 lea	 esi, DWORD PTR [edi+64]
; File C:\IAGOS\server\v18\Source\Source\_Common\File.h

; 27   : 	virtual size_t Read( void *ptr, size_t size, size_t n = 1 )	{ return fread( ptr, size, n, fp ); }

  00429	6a 01		 push	 1
  0042b	6a 04		 push	 4
  0042d	56		 push	 esi
  0042e	e8 00 00 00 00	 call	 _fread
; File C:\IAGOS\server\v18\Source\Source\_Common\object3d.cpp

; 987  : 	if( m_nMaxEvent > 0 )

  00433	8b 06		 mov	 eax, DWORD PTR [esi]
; File C:\IAGOS\server\v18\Source\Source\_Common\File.h

; 27   : 	virtual size_t Read( void *ptr, size_t size, size_t n = 1 )	{ return fread( ptr, size, n, fp ); }

  00435	83 c4 30	 add	 esp, 48			; 00000030H
; File C:\IAGOS\server\v18\Source\Source\_Common\object3d.cpp

; 987  : 	if( m_nMaxEvent > 0 )

  00438	85 c0		 test	 eax, eax
  0043a	7e 1b		 jle	 SHORT $LN27@LoadObject
; File C:\IAGOS\server\v18\Source\Source\_Common\File.h

; 27   : 	virtual size_t Read( void *ptr, size_t size, size_t n = 1 )	{ return fread( ptr, size, n, fp ); }

  0043c	ff b5 e4 fd ff
	ff		 push	 DWORD PTR _resFp$[ebp+4]
; File C:\IAGOS\server\v18\Source\Source\_Common\object3d.cpp

; 988  : 		resFp.Read( m_vEvent, sizeof(D3DXVECTOR3) * m_nMaxEvent, 1 );

  00442	8d 04 40	 lea	 eax, DWORD PTR [eax+eax*2]
  00445	c1 e0 02	 shl	 eax, 2
; File C:\IAGOS\server\v18\Source\Source\_Common\File.h

; 27   : 	virtual size_t Read( void *ptr, size_t size, size_t n = 1 )	{ return fread( ptr, size, n, fp ); }

  00448	6a 01		 push	 1
  0044a	50		 push	 eax
; File C:\IAGOS\server\v18\Source\Source\_Common\object3d.cpp

; 988  : 		resFp.Read( m_vEvent, sizeof(D3DXVECTOR3) * m_nMaxEvent, 1 );

  0044b	8d 47 4c	 lea	 eax, DWORD PTR [edi+76]
; File C:\IAGOS\server\v18\Source\Source\_Common\File.h

; 27   : 	virtual size_t Read( void *ptr, size_t size, size_t n = 1 )	{ return fread( ptr, size, n, fp ); }

  0044e	50		 push	 eax
  0044f	e8 00 00 00 00	 call	 _fread
  00454	83 c4 10	 add	 esp, 16			; 00000010H
$LN27@LoadObject:
  00457	ff b5 e4 fd ff
	ff		 push	 DWORD PTR _resFp$[ebp+4]
  0045d	8d 85 a0 fd ff
	ff		 lea	 eax, DWORD PTR _nTemp$[ebp]
  00463	6a 01		 push	 1
  00465	6a 04		 push	 4
  00467	50		 push	 eax
  00468	e8 00 00 00 00	 call	 _fread
  0046d	83 c4 10	 add	 esp, 16			; 00000010H
; File C:\IAGOS\server\v18\Source\Source\_Common\object3d.cpp

; 991  : 	if( nTemp )

  00470	83 bd a0 fd ff
	ff 00		 cmp	 DWORD PTR _nTemp$[ebp], 0
  00477	74 1b		 je	 SHORT $LN28@LoadObject

; 992  : 	{
; 993  : 		m_CollObject.m_Type = GMT_NORMAL;

  00479	8d 87 00 01 00
	00		 lea	 eax, DWORD PTR [edi+256]

; 994  : 		LoadGMObject( &resFp, &m_CollObject );		// 충돌용 메시

  0047f	8b cf		 mov	 ecx, edi
  00481	c7 00 00 00 00
	00		 mov	 DWORD PTR [eax], 0
  00487	50		 push	 eax
  00488	8d 85 e0 fd ff
	ff		 lea	 eax, DWORD PTR _resFp$[ebp]
  0048e	50		 push	 eax
  0048f	e8 00 00 00 00	 call	 ?LoadGMObject@CObject3D@@AAEHPAVCFileIO@@PAUGMOBJECT@@@Z ; CObject3D::LoadGMObject
$LN28@LoadObject:
; File C:\IAGOS\server\v18\Source\Source\_Common\File.h

; 27   : 	virtual size_t Read( void *ptr, size_t size, size_t n = 1 )	{ return fread( ptr, size, n, fp ); }

  00494	ff b5 e4 fd ff
	ff		 push	 DWORD PTR _resFp$[ebp+4]
; File C:\IAGOS\server\v18\Source\Source\_Common\object3d.cpp

; 996  : 	resFp.Read( &m_bLOD, 4, 1 );					// LOD가 있는가?

  0049a	8d 87 b4 00 00
	00		 lea	 eax, DWORD PTR [edi+180]
; File C:\IAGOS\server\v18\Source\Source\_Common\File.h

; 27   : 	virtual size_t Read( void *ptr, size_t size, size_t n = 1 )	{ return fread( ptr, size, n, fp ); }

  004a0	6a 01		 push	 1
  004a2	6a 04		 push	 4
  004a4	50		 push	 eax
  004a5	e8 00 00 00 00	 call	 _fread
  004aa	ff b5 e4 fd ff
	ff		 push	 DWORD PTR _resFp$[ebp+4]
; File C:\IAGOS\server\v18\Source\Source\_Common\object3d.cpp

; 999  : 	resFp.Read( &m_nMaxBone, 4, 1 );

  004b0	8d 77 30	 lea	 esi, DWORD PTR [edi+48]
; File C:\IAGOS\server\v18\Source\Source\_Common\File.h

; 27   : 	virtual size_t Read( void *ptr, size_t size, size_t n = 1 )	{ return fread( ptr, size, n, fp ); }

  004b3	6a 01		 push	 1
  004b5	6a 04		 push	 4
  004b7	56		 push	 esi
  004b8	e8 00 00 00 00	 call	 _fread
; File C:\IAGOS\server\v18\Source\Source\_Common\object3d.cpp

; 1001 : 	if( m_nMaxBone > 0 )

  004bd	8b 06		 mov	 eax, DWORD PTR [esi]
; File C:\IAGOS\server\v18\Source\Source\_Common\File.h

; 27   : 	virtual size_t Read( void *ptr, size_t size, size_t n = 1 )	{ return fread( ptr, size, n, fp ); }

  004bf	83 c4 20	 add	 esp, 32			; 00000020H
; File C:\IAGOS\server\v18\Source\Source\_Common\object3d.cpp

; 1001 : 	if( m_nMaxBone > 0 )

  004c2	b9 40 00 00 00	 mov	 ecx, 64			; 00000040H
  004c7	85 c0		 test	 eax, eax
  004c9	0f 8e b9 00 00
	00		 jle	 $LN29@LoadObject

; 1002 : 	{
; 1003 : 		m_pBaseBone = new D3DXMATRIX[ m_nMaxBone * 2 ];

  004cf	03 c0		 add	 eax, eax
  004d1	89 85 cc fd ff
	ff		 mov	 DWORD PTR $T5[ebp], eax
  004d7	f7 e1		 mul	 ecx
  004d9	b9 ff ff ff ff	 mov	 ecx, -1
  004de	0f 42 c1	 cmovb	 eax, ecx
  004e1	50		 push	 eax
  004e2	e8 00 00 00 00	 call	 ??_U@YAPAXI@Z		; operator new[]
  004e7	89 85 cc fd ff
	ff		 mov	 DWORD PTR $T6[ebp], eax
; File C:\IAGOS\server\v18\Source\Source\_Common\File.h

; 27   : 	virtual size_t Read( void *ptr, size_t size, size_t n = 1 )	{ return fread( ptr, size, n, fp ); }

  004ed	ff b5 e4 fd ff
	ff		 push	 DWORD PTR _resFp$[ebp+4]
; File C:\IAGOS\server\v18\Source\Source\_Common\object3d.cpp

; 1004 : 		m_pBaseBoneInv = m_pBaseBone + m_nMaxBone;		// InverseTM은 뒤쪽에 붙는다.

  004f3	8b 16		 mov	 edx, DWORD PTR [esi]
  004f5	c1 e2 06	 shl	 edx, 6
; File C:\IAGOS\server\v18\Source\Source\_Common\File.h

; 27   : 	virtual size_t Read( void *ptr, size_t size, size_t n = 1 )	{ return fread( ptr, size, n, fp ); }

  004f8	6a 01		 push	 1
  004fa	52		 push	 edx
  004fb	50		 push	 eax
; File C:\IAGOS\server\v18\Source\Source\_Common\object3d.cpp

; 1004 : 		m_pBaseBoneInv = m_pBaseBone + m_nMaxBone;		// InverseTM은 뒤쪽에 붙는다.

  004fc	8d 0c 02	 lea	 ecx, DWORD PTR [edx+eax]
  004ff	89 47 34	 mov	 DWORD PTR [edi+52], eax
  00502	89 4f 38	 mov	 DWORD PTR [edi+56], ecx
; File C:\IAGOS\server\v18\Source\Source\_Common\File.h

; 27   : 	virtual size_t Read( void *ptr, size_t size, size_t n = 1 )	{ return fread( ptr, size, n, fp ); }

  00505	e8 00 00 00 00	 call	 _fread
  0050a	ff b5 e4 fd ff
	ff		 push	 DWORD PTR _resFp$[ebp+4]
; File C:\IAGOS\server\v18\Source\Source\_Common\object3d.cpp

; 1006 : 		resFp.Read( m_pBaseBoneInv, sizeof(D3DXMATRIX) * m_nMaxBone, 1 );		// InverseTM 세트

  00510	8b 06		 mov	 eax, DWORD PTR [esi]
  00512	c1 e0 06	 shl	 eax, 6
; File C:\IAGOS\server\v18\Source\Source\_Common\File.h

; 27   : 	virtual size_t Read( void *ptr, size_t size, size_t n = 1 )	{ return fread( ptr, size, n, fp ); }

  00515	6a 01		 push	 1
  00517	50		 push	 eax
  00518	ff 77 38	 push	 DWORD PTR [edi+56]
  0051b	e8 00 00 00 00	 call	 _fread
  00520	83 c4 24	 add	 esp, 36			; 00000024H
; File C:\IAGOS\server\v18\Source\Source\_Common\object3d.cpp

; 1007 : 		if( m_nMaxFrame > 0 )	// 본이 있고 MaxFrame이 있으면 애니메이션이 있다는걸로 간주.

  00523	83 bf 1c 0c 00
	00 00		 cmp	 DWORD PTR [edi+3100], 0
  0052a	7e 43		 jle	 SHORT $LN30@LoadObject

; 1008 : 		{
; 1009 : 			m_pMotion = new CMotion;

  0052c	68 a4 00 00 00	 push	 164			; 000000a4H
  00531	e8 00 00 00 00	 call	 ??2@YAPAXI@Z		; operator new
  00536	83 c4 04	 add	 esp, 4
  00539	89 85 cc fd ff
	ff		 mov	 DWORD PTR $T7[ebp], eax
  0053f	c6 45 fc 06	 mov	 BYTE PTR __$EHRec$[ebp+8], 6
  00543	85 c0		 test	 eax, eax
  00545	74 09		 je	 SHORT $LN57@LoadObject
  00547	8b c8		 mov	 ecx, eax
  00549	e8 00 00 00 00	 call	 ??0CMotion@@QAE@XZ	; CMotion::CMotion
  0054e	eb 02		 jmp	 SHORT $LN58@LoadObject
$LN57@LoadObject:
  00550	33 c0		 xor	 eax, eax
$LN58@LoadObject:

; 1010 : 			m_pMotion->ReadTM( &resFp, m_nMaxBone, m_nMaxFrame );		// 본 애니메이션 읽음.

  00552	ff b7 1c 0c 00
	00		 push	 DWORD PTR [edi+3100]
  00558	8d 8d e0 fd ff
	ff		 lea	 ecx, DWORD PTR _resFp$[ebp]
  0055e	c6 45 fc 00	 mov	 BYTE PTR __$EHRec$[ebp+8], 0
  00562	ff 36		 push	 DWORD PTR [esi]
  00564	89 47 3c	 mov	 DWORD PTR [edi+60], eax
  00567	51		 push	 ecx
  00568	8b c8		 mov	 ecx, eax
  0056a	e8 00 00 00 00	 call	 ?ReadTM@CMotion@@QAEXPAVCFileIO@@HH@Z ; CMotion::ReadTM
$LN30@LoadObject:
; File C:\IAGOS\server\v18\Source\Source\_Common\File.h

; 27   : 	virtual size_t Read( void *ptr, size_t size, size_t n = 1 )	{ return fread( ptr, size, n, fp ); }

  0056f	ff b5 e4 fd ff
	ff		 push	 DWORD PTR _resFp$[ebp+4]
; File C:\IAGOS\server\v18\Source\Source\_Common\object3d.cpp

; 1012 : 		resFp.Read( &m_bSendVS, 4, 1 );		// 본개수가 MAX_VS_BONE보다 적어 VS로 한번에 전송가능한 것인가?

  00575	8d 87 b0 00 00
	00		 lea	 eax, DWORD PTR [edi+176]
; File C:\IAGOS\server\v18\Source\Source\_Common\File.h

; 27   : 	virtual size_t Read( void *ptr, size_t size, size_t n = 1 )	{ return fread( ptr, size, n, fp ); }

  0057b	6a 01		 push	 1
  0057d	6a 04		 push	 4
  0057f	50		 push	 eax
  00580	e8 00 00 00 00	 call	 _fread
  00585	83 c4 10	 add	 esp, 16			; 00000010H
$LN29@LoadObject:
  00588	ff b5 e4 fd ff
	ff		 push	 DWORD PTR _resFp$[ebp+4]
; File C:\IAGOS\server\v18\Source\Source\_Common\object3d.cpp

; 1015 : 	int nMaxGroup = (m_bLOD) ? MAX_GROUP : 1;	// LOD가 있으면 3개다 읽음. 없으면 1개만 읽음.

  0058e	33 c0		 xor	 eax, eax

; 1016 : 	LOD_GROUP *pGroup;
; 1017 : 	int nPoolSize, nDebugSize = 0;

  00590	c7 85 a8 fd ff
	ff 00 00 00 00	 mov	 DWORD PTR _nDebugSize$1$[ebp], 0
  0059a	39 87 b4 00 00
	00		 cmp	 DWORD PTR [edi+180], eax
; File C:\IAGOS\server\v18\Source\Source\_Common\File.h

; 27   : 	virtual size_t Read( void *ptr, size_t size, size_t n = 1 )	{ return fread( ptr, size, n, fp ); }

  005a0	6a 01		 push	 1
; File C:\IAGOS\server\v18\Source\Source\_Common\object3d.cpp

; 1015 : 	int nMaxGroup = (m_bLOD) ? MAX_GROUP : 1;	// LOD가 있으면 3개다 읽음. 없으면 1개만 읽음.

  005a2	0f 95 c0	 setne	 al
; File C:\IAGOS\server\v18\Source\Source\_Common\File.h

; 27   : 	virtual size_t Read( void *ptr, size_t size, size_t n = 1 )	{ return fread( ptr, size, n, fp ); }

  005a5	6a 04		 push	 4
; File C:\IAGOS\server\v18\Source\Source\_Common\object3d.cpp

; 1015 : 	int nMaxGroup = (m_bLOD) ? MAX_GROUP : 1;	// LOD가 있으면 3개다 읽음. 없으면 1개만 읽음.

  005a7	8d 04 45 01 00
	00 00		 lea	 eax, DWORD PTR [eax*2+1]
  005ae	89 85 b0 fd ff
	ff		 mov	 DWORD PTR _nMaxGroup$1$[ebp], eax
; File C:\IAGOS\server\v18\Source\Source\_Common\File.h

; 27   : 	virtual size_t Read( void *ptr, size_t size, size_t n = 1 )	{ return fread( ptr, size, n, fp ); }

  005b4	8d 85 c8 fd ff
	ff		 lea	 eax, DWORD PTR _nPoolSize$[ebp]
  005ba	50		 push	 eax
  005bb	e8 00 00 00 00	 call	 _fread
; File C:\IAGOS\server\v18\Source\Source\_Common\object3d.cpp

; 1019 : 	GMOBJECT *pPool = new GMOBJECT[ nPoolSize ];	// 메모리 풀.

  005c0	8b 85 c8 fd ff
	ff		 mov	 eax, DWORD PTR _nPoolSize$[ebp]
  005c6	b9 bc 0a 00 00	 mov	 ecx, 2748		; 00000abcH
  005cb	f7 e1		 mul	 ecx
  005cd	b9 ff ff ff ff	 mov	 ecx, -1
  005d2	0f 42 c1	 cmovb	 eax, ecx
  005d5	50		 push	 eax
  005d6	e8 00 00 00 00	 call	 ??_U@YAPAXI@Z		; operator new[]
  005db	83 c4 14	 add	 esp, 20			; 00000014H
  005de	89 85 b8 fd ff
	ff		 mov	 DWORD PTR $T4[ebp], eax
  005e4	85 c0		 test	 eax, eax
  005e6	74 04		 je	 SHORT $LN59@LoadObject
  005e8	8b f0		 mov	 esi, eax
  005ea	eb 24		 jmp	 SHORT $LN31@LoadObject
$LN59@LoadObject:

; 1020 : 	if( pPool == NULL )
; 1021 : 		Error( "메모리 할당 실패:CObject3D::LoadObject( %s ) %d", m_szFileName, nPoolSize );

  005ec	ff b5 c8 fd ff
	ff		 push	 DWORD PTR _nPoolSize$[ebp]
  005f2	33 c0		 xor	 eax, eax
  005f4	33 f6		 xor	 esi, esi
  005f6	89 85 b8 fd ff
	ff		 mov	 DWORD PTR $T4[ebp], eax
  005fc	8d 87 c0 00 00
	00		 lea	 eax, DWORD PTR [edi+192]
  00602	50		 push	 eax
  00603	68 00 00 00 00	 push	 OFFSET ??_C@_0DA@ENKKKOBI@?$LI?$NO?$LI?p?$LI?$KO?5?G?R?$LE?g?5?$LN?G?F?P?3CObject3D?3?3Loa@
  00608	e8 00 00 00 00	 call	 ?Error@@YAPBDPBDZZ	; Error
  0060d	83 c4 0c	 add	 esp, 12			; 0000000cH
$LN31@LoadObject:

; 1022 : 	memset( pPool, 0, sizeof(GMOBJECT) * nPoolSize );

  00610	69 85 c8 fd ff
	ff bc 0a 00 00	 imul	 eax, DWORD PTR _nPoolSize$[ebp], 2748
  0061a	50		 push	 eax
  0061b	6a 00		 push	 0
  0061d	56		 push	 esi
  0061e	e8 00 00 00 00	 call	 _memset
  00623	8d 77 04	 lea	 esi, DWORD PTR [edi+4]
  00626	83 c4 0c	 add	 esp, 12			; 0000000cH
  00629	8b bd b0 fd ff
	ff		 mov	 edi, DWORD PTR _nMaxGroup$1$[ebp]
  0062f	89 b5 cc fd ff
	ff		 mov	 DWORD PTR tv1660[ebp], esi
  00635	89 b5 d8 fd ff
	ff		 mov	 DWORD PTR tv1650[ebp], esi
  0063b	89 bd d0 fd ff
	ff		 mov	 DWORD PTR tv1689[ebp], edi
$LL7@LoadObject:
; File C:\IAGOS\server\v18\Source\Source\_Common\File.h

; 27   : 	virtual size_t Read( void *ptr, size_t size, size_t n = 1 )	{ return fread( ptr, size, n, fp ); }

  00641	ff b5 e4 fd ff
	ff		 push	 DWORD PTR _resFp$[ebp+4]
  00647	6a 01		 push	 1
  00649	6a 04		 push	 4
  0064b	56		 push	 esi
  0064c	e8 00 00 00 00	 call	 _fread
; File C:\IAGOS\server\v18\Source\Source\_Common\object3d.cpp

; 1029 : 		pPool += pGroup->m_nMaxObject;

  00651	69 06 bc 0a 00
	00		 imul	 eax, DWORD PTR [esi], 2748
; File C:\IAGOS\server\v18\Source\Source\_Common\File.h

; 27   : 	virtual size_t Read( void *ptr, size_t size, size_t n = 1 )	{ return fread( ptr, size, n, fp ); }

  00657	83 c4 10	 add	 esp, 16			; 00000010H
; File C:\IAGOS\server\v18\Source\Source\_Common\object3d.cpp

; 1028 : 		pGroup->m_pObject = pPool;		// 메모리 포인터 할당.

  0065a	8b 95 b8 fd ff
	ff		 mov	 edx, DWORD PTR $T4[ebp]
  00660	89 56 04	 mov	 DWORD PTR [esi+4], edx

; 1029 : 		pPool += pGroup->m_nMaxObject;

  00663	03 d0		 add	 edx, eax

; 1030 : 
; 1031 : 		nDebugSize += pGroup->m_nMaxObject;
; 1032 : 		if( nDebugSize > nPoolSize )

  00665	8b 85 c8 fd ff
	ff		 mov	 eax, DWORD PTR _nPoolSize$[ebp]
  0066b	89 95 b8 fd ff
	ff		 mov	 DWORD PTR $T4[ebp], edx
  00671	8b 95 a8 fd ff
	ff		 mov	 edx, DWORD PTR _nDebugSize$1$[ebp]
  00677	03 16		 add	 edx, DWORD PTR [esi]
  00679	89 95 a8 fd ff
	ff		 mov	 DWORD PTR _nDebugSize$1$[ebp], edx
  0067f	3b d0		 cmp	 edx, eax
  00681	7e 0f		 jle	 SHORT $LN32@LoadObject

; 1033 : 			Error( "LoadObject : 메모리 오버플로우 %d, %d", nPoolSize, nDebugSize );

  00683	52		 push	 edx
  00684	50		 push	 eax
  00685	68 00 00 00 00	 push	 OFFSET ??_C@_0CG@LLHAJNGA@LoadObject?5?3?5?$LI?$NO?$LI?p?$LI?$KO?5?$LP?$MA?$LJ?v?G?C?$LH?N?$LP?l?5@
  0068a	e8 00 00 00 00	 call	 ?Error@@YAPBDPBDZZ	; Error
  0068f	83 c4 0c	 add	 esp, 12			; 0000000cH
$LN32@LoadObject:

; 1034 : 
; 1035 : 		memset( pGroup->m_pObject, 0, sizeof(GMOBJECT) * pGroup->m_nMaxObject );

  00692	69 06 bc 0a 00
	00		 imul	 eax, DWORD PTR [esi], 2748
  00698	50		 push	 eax
  00699	6a 00		 push	 0
  0069b	ff 76 04	 push	 DWORD PTR [esi+4]
  0069e	e8 00 00 00 00	 call	 _memset

; 1036 : 		for( j = 0; j < pGroup->m_nMaxObject; j ++ )		pGroup->m_pObject[j].m_nID = -1;

  006a3	8b 06		 mov	 eax, DWORD PTR [esi]
  006a5	83 c4 0c	 add	 esp, 12			; 0000000cH
  006a8	33 d2		 xor	 edx, edx
  006aa	85 c0		 test	 eax, eax
  006ac	7e 1d		 jle	 SHORT $LN9@LoadObject

; 1034 : 
; 1035 : 		memset( pGroup->m_pObject, 0, sizeof(GMOBJECT) * pGroup->m_nMaxObject );

  006ae	33 c9		 xor	 ecx, ecx
$LL10@LoadObject:

; 1036 : 		for( j = 0; j < pGroup->m_nMaxObject; j ++ )		pGroup->m_pObject[j].m_nID = -1;

  006b0	8b 46 04	 mov	 eax, DWORD PTR [esi+4]
  006b3	8d 89 bc 0a 00
	00		 lea	 ecx, DWORD PTR [ecx+2748]
  006b9	42		 inc	 edx
  006ba	c7 84 08 c4 f5
	ff ff ff ff ff
	ff		 mov	 DWORD PTR [eax+ecx-2620], -1
  006c5	8b 06		 mov	 eax, DWORD PTR [esi]
  006c7	3b d0		 cmp	 edx, eax
  006c9	7c e5		 jl	 SHORT $LL10@LoadObject
$LN9@LoadObject:

; 1037 : 		
; 1038 : 		GMOBJECT	*pObject;
; 1039 : 		int		nParentIdx;
; 1040 : 		BOOL	bAnimate = FALSE;
; 1041 : 		int		nType;
; 1042 : 		//------  Geometry Object
; 1043 : 		for( j = 0; j < pGroup->m_nMaxObject; j ++ )

  006cb	c7 85 c0 fd ff
	ff 00 00 00 00	 mov	 DWORD PTR _j$4$[ebp], 0
  006d5	85 c0		 test	 eax, eax
  006d7	0f 8e f7 01 00
	00		 jle	 $LN5@LoadObject
  006dd	33 c9		 xor	 ecx, ecx
  006df	89 8d bc fd ff
	ff		 mov	 DWORD PTR tv1651[ebp], ecx
  006e5	66 66 66 0f 1f
	84 00 00 00 00
	00		 npad	 11
$LL13@LoadObject:
; File C:\IAGOS\server\v18\Source\Source\_Common\File.h

; 27   : 	virtual size_t Read( void *ptr, size_t size, size_t n = 1 )	{ return fread( ptr, size, n, fp ); }

  006f0	ff b5 e4 fd ff
	ff		 push	 DWORD PTR _resFp$[ebp+4]
; File C:\IAGOS\server\v18\Source\Source\_Common\object3d.cpp

; 1045 : 			pObject = &pGroup->m_pObject[j];

  006f6	8b 7e 04	 mov	 edi, DWORD PTR [esi+4]
; File C:\IAGOS\server\v18\Source\Source\_Common\File.h

; 27   : 	virtual size_t Read( void *ptr, size_t size, size_t n = 1 )	{ return fread( ptr, size, n, fp ); }

  006f9	8d 85 a4 fd ff
	ff		 lea	 eax, DWORD PTR _nType$2[ebp]
  006ff	6a 01		 push	 1
  00701	6a 04		 push	 4
  00703	50		 push	 eax
; File C:\IAGOS\server\v18\Source\Source\_Common\object3d.cpp

; 1045 : 			pObject = &pGroup->m_pObject[j];

  00704	03 f9		 add	 edi, ecx
; File C:\IAGOS\server\v18\Source\Source\_Common\File.h

; 27   : 	virtual size_t Read( void *ptr, size_t size, size_t n = 1 )	{ return fread( ptr, size, n, fp ); }

  00706	e8 00 00 00 00	 call	 _fread
; File C:\IAGOS\server\v18\Source\Source\_Common\object3d.cpp

; 1048 : 			pObject->m_Type = (GMTYPE)(nType & 0xffff);

  0070b	0f b7 85 a4 fd
	ff ff		 movzx	 eax, WORD PTR _nType$2[ebp]
; File C:\IAGOS\server\v18\Source\Source\_Common\File.h

; 27   : 	virtual size_t Read( void *ptr, size_t size, size_t n = 1 )	{ return fread( ptr, size, n, fp ); }

  00712	83 c4 10	 add	 esp, 16			; 00000010H
; File C:\IAGOS\server\v18\Source\Source\_Common\object3d.cpp

; 1048 : 			pObject->m_Type = (GMTYPE)(nType & 0xffff);

  00715	89 07		 mov	 DWORD PTR [edi], eax

; 1049 : 			if( nType & 0x80000000 )

  00717	f7 85 a4 fd ff
	ff 00 00 00 80	 test	 DWORD PTR _nType$2[ebp], -2147483648 ; 80000000H
  00721	74 0a		 je	 SHORT $LN33@LoadObject

; 1050 : 				pObject->m_bLight = TRUE;

  00723	c7 87 90 00 00
	00 01 00 00 00	 mov	 DWORD PTR [edi+144], 1
$LN33@LoadObject:
; File C:\IAGOS\server\v18\Source\Source\_Common\File.h

; 27   : 	virtual size_t Read( void *ptr, size_t size, size_t n = 1 )	{ return fread( ptr, size, n, fp ); }

  0072d	ff b5 e4 fd ff
	ff		 push	 DWORD PTR _resFp$[ebp+4]
; File C:\IAGOS\server\v18\Source\Source\_Common\object3d.cpp

; 1052 : 			resFp.Read( &pObject->m_nMaxUseBone, 4, 1 );

  00733	8d 77 0c	 lea	 esi, DWORD PTR [edi+12]
; File C:\IAGOS\server\v18\Source\Source\_Common\File.h

; 27   : 	virtual size_t Read( void *ptr, size_t size, size_t n = 1 )	{ return fread( ptr, size, n, fp ); }

  00736	6a 01		 push	 1
  00738	6a 04		 push	 4
  0073a	56		 push	 esi
  0073b	e8 00 00 00 00	 call	 _fread
; File C:\IAGOS\server\v18\Source\Source\_Common\object3d.cpp

; 1053 : 			if( pObject->m_nMaxUseBone > 0 )

  00740	8b 06		 mov	 eax, DWORD PTR [esi]
; File C:\IAGOS\server\v18\Source\Source\_Common\File.h

; 27   : 	virtual size_t Read( void *ptr, size_t size, size_t n = 1 )	{ return fread( ptr, size, n, fp ); }

  00742	83 c4 10	 add	 esp, 16			; 00000010H
; File C:\IAGOS\server\v18\Source\Source\_Common\object3d.cpp

; 1053 : 			if( pObject->m_nMaxUseBone > 0 )

  00745	85 c0		 test	 eax, eax
  00747	7e 18		 jle	 SHORT $LN34@LoadObject
; File C:\IAGOS\server\v18\Source\Source\_Common\File.h

; 27   : 	virtual size_t Read( void *ptr, size_t size, size_t n = 1 )	{ return fread( ptr, size, n, fp ); }

  00749	ff b5 e4 fd ff
	ff		 push	 DWORD PTR _resFp$[ebp+4]
; File C:\IAGOS\server\v18\Source\Source\_Common\object3d.cpp

; 1054 : 				resFp.Read( pObject->m_UseBone, sizeof(int) * pObject->m_nMaxUseBone, 1 );	// 오브젝트가 사용하는 본리스트

  0074f	c1 e0 02	 shl	 eax, 2
; File C:\IAGOS\server\v18\Source\Source\_Common\File.h

; 27   : 	virtual size_t Read( void *ptr, size_t size, size_t n = 1 )	{ return fread( ptr, size, n, fp ); }

  00752	6a 01		 push	 1
  00754	50		 push	 eax
; File C:\IAGOS\server\v18\Source\Source\_Common\object3d.cpp

; 1054 : 				resFp.Read( pObject->m_UseBone, sizeof(int) * pObject->m_nMaxUseBone, 1 );	// 오브젝트가 사용하는 본리스트

  00755	8d 47 10	 lea	 eax, DWORD PTR [edi+16]
; File C:\IAGOS\server\v18\Source\Source\_Common\File.h

; 27   : 	virtual size_t Read( void *ptr, size_t size, size_t n = 1 )	{ return fread( ptr, size, n, fp ); }

  00758	50		 push	 eax
  00759	e8 00 00 00 00	 call	 _fread
  0075e	83 c4 10	 add	 esp, 16			; 00000010H
$LN34@LoadObject:
  00761	83 3f 01	 cmp	 DWORD PTR [edi], 1
  00764	ba 20 00 00 00	 mov	 edx, 32			; 00000020H
  00769	b8 2c 00 00 00	 mov	 eax, 44			; 0000002cH
  0076e	b9 12 01 00 00	 mov	 ecx, 274		; 00000112H
  00773	0f 45 c2	 cmovne	 eax, edx
  00776	89 47 04	 mov	 DWORD PTR [edi+4], eax
  00779	b8 1a 11 00 00	 mov	 eax, 4378		; 0000111aH
  0077e	0f 45 c1	 cmovne	 eax, ecx
  00781	89 47 08	 mov	 DWORD PTR [edi+8], eax
; File C:\IAGOS\server\v18\Source\Source\_Common\object3d.cpp

; 1068 : 			resFp.Read( &pObject->m_nID, 4, 1 );	// Object ID

  00784	8d 87 80 00 00
	00		 lea	 eax, DWORD PTR [edi+128]
; File C:\IAGOS\server\v18\Source\Source\_Common\File.h

; 27   : 	virtual size_t Read( void *ptr, size_t size, size_t n = 1 )	{ return fread( ptr, size, n, fp ); }

  0078a	ff b5 e4 fd ff
	ff		 push	 DWORD PTR _resFp$[ebp+4]
  00790	6a 01		 push	 1
  00792	6a 04		 push	 4
  00794	50		 push	 eax
  00795	e8 00 00 00 00	 call	 _fread
  0079a	ff b5 e4 fd ff
	ff		 push	 DWORD PTR _resFp$[ebp+4]
  007a0	8d 85 b4 fd ff
	ff		 lea	 eax, DWORD PTR _nParentIdx$3[ebp]
  007a6	6a 01		 push	 1
  007a8	6a 04		 push	 4
  007aa	50		 push	 eax
  007ab	e8 00 00 00 00	 call	 _fread
; File C:\IAGOS\server\v18\Source\Source\_Common\object3d.cpp

; 1070 : 			pObject->m_nParentIdx = nParentIdx;		// save를 위해 백업 받아둠

  007b0	8b 85 b4 fd ff
	ff		 mov	 eax, DWORD PTR _nParentIdx$3[ebp]
; File C:\IAGOS\server\v18\Source\Source\_Common\File.h

; 27   : 	virtual size_t Read( void *ptr, size_t size, size_t n = 1 )	{ return fread( ptr, size, n, fp ); }

  007b6	83 c4 20	 add	 esp, 32			; 00000020H
; File C:\IAGOS\server\v18\Source\Source\_Common\object3d.cpp

; 1070 : 			pObject->m_nParentIdx = nParentIdx;		// save를 위해 백업 받아둠

  007b9	89 87 a8 00 00
	00		 mov	 DWORD PTR [edi+168], eax

; 1071 : 			
; 1072 : 			// 부모가 있다면 부모 포인터 지정
; 1073 : 			if( nParentIdx != -1 )

  007bf	83 bd b4 fd ff
	ff ff		 cmp	 DWORD PTR _nParentIdx$3[ebp], -1
  007c6	74 48		 je	 SHORT $LN269@LoadObject
; File C:\IAGOS\server\v18\Source\Source\_Common\File.h

; 27   : 	virtual size_t Read( void *ptr, size_t size, size_t n = 1 )	{ return fread( ptr, size, n, fp ); }

  007c8	ff b5 e4 fd ff
	ff		 push	 DWORD PTR _resFp$[ebp+4]
; File C:\IAGOS\server\v18\Source\Source\_Common\object3d.cpp

; 1075 : 				resFp.Read( &pObject->m_ParentType, 4, 1 );		// 부모의 타입 읽음.

  007ce	8d b7 a4 00 00
	00		 lea	 esi, DWORD PTR [edi+164]
; File C:\IAGOS\server\v18\Source\Source\_Common\File.h

; 27   : 	virtual size_t Read( void *ptr, size_t size, size_t n = 1 )	{ return fread( ptr, size, n, fp ); }

  007d4	6a 01		 push	 1
  007d6	6a 04		 push	 4
  007d8	56		 push	 esi
  007d9	e8 00 00 00 00	 call	 _fread
; File C:\IAGOS\server\v18\Source\Source\_Common\object3d.cpp

; 1077 : 				switch( pObject->m_ParentType )

  007de	8b 06		 mov	 eax, DWORD PTR [esi]
; File C:\IAGOS\server\v18\Source\Source\_Common\File.h

; 27   : 	virtual size_t Read( void *ptr, size_t size, size_t n = 1 )	{ return fread( ptr, size, n, fp ); }

  007e0	83 c4 10	 add	 esp, 16			; 00000010H
; File C:\IAGOS\server\v18\Source\Source\_Common\object3d.cpp

; 1077 : 				switch( pObject->m_ParentType )

  007e3	8b b5 d8 fd ff
	ff		 mov	 esi, DWORD PTR tv1650[ebp]
  007e9	83 e8 00	 sub	 eax, 0
  007ec	74 0d		 je	 SHORT $LN39@LoadObject
  007ee	83 e8 02	 sub	 eax, 2
  007f1	75 23		 jne	 SHORT $LN14@LoadObject

; 1078 : 				{
; 1079 : 				case GMT_BONE:		pObject->m_pParent = NULL;	break;		// 부모가 본이면 m_pParent를 사용하지 않음.

  007f3	89 87 ac 00 00
	00		 mov	 DWORD PTR [edi+172], eax
  007f9	eb 1b		 jmp	 SHORT $LN14@LoadObject
$LN39@LoadObject:

; 1080 : 				case GMT_NORMAL:	pObject->m_pParent = &pGroup->m_pObject[ nParentIdx ];		break;	// 부모가 일반오브젝이라면 그 포인터 지정.

  007fb	69 85 b4 fd ff
	ff bc 0a 00 00	 imul	 eax, DWORD PTR _nParentIdx$3[ebp], 2748
  00805	03 46 04	 add	 eax, DWORD PTR [esi+4]
  00808	89 87 ac 00 00
	00		 mov	 DWORD PTR [edi+172], eax
  0080e	eb 06		 jmp	 SHORT $LN14@LoadObject
$LN269@LoadObject:

; 1071 : 			
; 1072 : 			// 부모가 있다면 부모 포인터 지정
; 1073 : 			if( nParentIdx != -1 )

  00810	8b b5 d8 fd ff
	ff		 mov	 esi, DWORD PTR tv1650[ebp]
$LN14@LoadObject:
; File C:\IAGOS\server\v18\Source\Source\_Common\File.h

; 27   : 	virtual size_t Read( void *ptr, size_t size, size_t n = 1 )	{ return fread( ptr, size, n, fp ); }

  00816	ff b5 e4 fd ff
	ff		 push	 DWORD PTR _resFp$[ebp+4]
; File C:\IAGOS\server\v18\Source\Source\_Common\object3d.cpp

; 1086 : 			resFp.Read( &pObject->m_mLocalTM, sizeof(D3DXMATRIX), 1 );

  0081c	8d 87 b0 00 00
	00		 lea	 eax, DWORD PTR [edi+176]
; File C:\IAGOS\server\v18\Source\Source\_Common\File.h

; 27   : 	virtual size_t Read( void *ptr, size_t size, size_t n = 1 )	{ return fread( ptr, size, n, fp ); }

  00822	6a 01		 push	 1
  00824	6a 40		 push	 64			; 00000040H
  00826	50		 push	 eax
  00827	e8 00 00 00 00	 call	 _fread
; File C:\IAGOS\server\v18\Source\Source\_Common\object3d.cpp

; 1089 : 			LoadGMObject( &resFp, pObject );			// Mesh부 읽음

  0082c	8b 8d c4 fd ff
	ff		 mov	 ecx, DWORD PTR _this$GSCopy$1$[ebp]
  00832	8d 85 e0 fd ff
	ff		 lea	 eax, DWORD PTR _resFp$[ebp]
; File C:\IAGOS\server\v18\Source\Source\_Common\File.h

; 27   : 	virtual size_t Read( void *ptr, size_t size, size_t n = 1 )	{ return fread( ptr, size, n, fp ); }

  00838	83 c4 10	 add	 esp, 16			; 00000010H
; File C:\IAGOS\server\v18\Source\Source\_Common\object3d.cpp

; 1089 : 			LoadGMObject( &resFp, pObject );			// Mesh부 읽음

  0083b	57		 push	 edi
  0083c	50		 push	 eax
  0083d	e8 00 00 00 00	 call	 ?LoadGMObject@CObject3D@@AAEHPAVCFileIO@@PAUGMOBJECT@@@Z ; CObject3D::LoadGMObject

; 1090 : 
; 1091 : #ifdef __YENV
; 1092 : 			// 버택스 버퍼 타입을 일반으로..
; 1093 : 			// 범프용 버퍼는 ExtractBuffers함수 호출함으로써 사이즈가 바뀐다
; 1094 : 			if( g_Option.m_bSpecBump )
; 1095 : 				pObject->m_VBType = VBT_NORMAL;
; 1096 : #endif //__YENV
; 1097 : 			
; 1098 : 			if( pObject->m_Type == GMT_SKIN )
; 1099 : 			{
; 1100 : #ifdef __YENV
; 1101 : 				if( pObject->m_bBump && g_Option.m_bSpecBump )
; 1102 : 				{
; 1103 : 	#ifdef __YENV_WITHOUT_BUMP
; 1104 : 					pObject->m_nVertexSize = sizeof(SKINVERTEX);
; 1105 : 					pObject->m_dwFVF	   = D3DFVF_SKINVERTEX;
; 1106 : 	#else //__YENV_WITHOUT_BUMP
; 1107 : 					pObject->m_nVertexSize = sizeof(SKINVERTEX_BUMP);
; 1108 : 					pObject->m_dwFVF	   = D3DFVF_SKINVERTEX_BUMP;
; 1109 : 	#endif //__YENV_WITHOUT_BUMP
; 1110 : 				}
; 1111 : 				else
; 1112 : #endif //__YENV
; 1113 : 				{
; 1114 : 					pObject->m_nVertexSize = sizeof(SKINVERTEX);
; 1115 : 					pObject->m_dwFVF	   = D3DFVF_SKINVERTEX;
; 1116 : 				}
; 1117 : 			} else
; 1118 : 			{
; 1119 : #ifdef __YENV
; 1120 : 				if( pObject->m_bBump && g_Option.m_bSpecBump )
; 1121 : 				{
; 1122 : 	#ifdef __YENV_WITHOUT_BUMP
; 1123 : 					pObject->m_nVertexSize = sizeof(NORMALVERTEX);
; 1124 : 					pObject->m_dwFVF	   = D3DFVF_NORMALVERTEX;
; 1125 : 	#else //__YENV_WITHOUT_BUMP
; 1126 : 					pObject->m_nVertexSize = sizeof(NORMALVERTEX_BUMP);
; 1127 : 					pObject->m_dwFVF	   = D3DFVF_NORMALVERTEX_BUMP;
; 1128 : 	#endif //__YENV_WITHOUT_BUMP
; 1129 : 				}
; 1130 : 				else
; 1131 : #endif //__YENV
; 1132 : 				{
; 1133 : 					pObject->m_nVertexSize = sizeof(NORMALVERTEX);
; 1134 : 					pObject->m_dwFVF	   = D3DFVF_NORMALVERTEX;
; 1135 : 				}
; 1136 : 			}
; 1137 : 			
; 1138 : 			if( pObject->m_pPhysiqueVertex == NULL )	bNormalObj = TRUE;	// 일반형오브젝트가 하나라도 있을때.

  00842	83 3f 01	 cmp	 DWORD PTR [edi], 1
  00845	b8 2c 00 00 00	 mov	 eax, 44			; 0000002cH
  0084a	ba 20 00 00 00	 mov	 edx, 32			; 00000020H
  0084f	b9 12 01 00 00	 mov	 ecx, 274		; 00000112H
  00854	0f 45 c2	 cmovne	 eax, edx
  00857	89 47 04	 mov	 DWORD PTR [edi+4], eax
  0085a	b8 1a 11 00 00	 mov	 eax, 4378		; 0000111aH
  0085f	0f 45 c1	 cmovne	 eax, ecx
  00862	89 47 08	 mov	 DWORD PTR [edi+8], eax
  00865	83 bf 34 01 00
	00 00		 cmp	 DWORD PTR [edi+308], 0
  0086c	8b 85 c4 fd ff
	ff		 mov	 eax, DWORD PTR _this$GSCopy$1$[ebp]
  00872	75 0c		 jne	 SHORT $LN42@LoadObject
  00874	c7 85 d4 fd ff
	ff 01 00 00 00	 mov	 DWORD PTR _bNormalObj$1$[ebp], 1
  0087e	eb 0a		 jmp	 SHORT $LN43@LoadObject
$LN42@LoadObject:

; 1139 : 			else										m_nHavePhysique = TRUE;		// 피지크 오브젝트가 하나라도 있으면 TRUE가 된다.

  00880	c7 80 bc 00 00
	00 01 00 00 00	 mov	 DWORD PTR [eax+188], 1
$LN43@LoadObject:

; 1140 : 
; 1141 : 			// load TM animation - 
; 1142 : 			if( pObject->m_Type == GMT_NORMAL )	// 스킨에는 m_pFrame이 아예 없다.

  0088a	83 3f 00	 cmp	 DWORD PTR [edi], 0
  0088d	75 18		 jne	 SHORT $LN11@LoadObject

; 1143 : 			{
; 1144 : 				if( m_nMaxFrame > 0 )	LoadTMAni( &resFp, pObject );			// TM Animation 데이타 부분.  maxframe이0이면 아예 읽지 않음.

  0088f	83 b8 1c 0c 00
	00 00		 cmp	 DWORD PTR [eax+3100], 0
  00896	7e 0f		 jle	 SHORT $LN11@LoadObject
  00898	57		 push	 edi
  00899	8d 8d e0 fd ff
	ff		 lea	 ecx, DWORD PTR _resFp$[ebp]
  0089f	51		 push	 ecx
  008a0	8b c8		 mov	 ecx, eax
  008a2	e8 00 00 00 00	 call	 ?LoadTMAni@CObject3D@@AAEHPAVCFileIO@@PAUGMOBJECT@@@Z ; CObject3D::LoadTMAni
$LN11@LoadObject:

; 1037 : 		
; 1038 : 		GMOBJECT	*pObject;
; 1039 : 		int		nParentIdx;
; 1040 : 		BOOL	bAnimate = FALSE;
; 1041 : 		int		nType;
; 1042 : 		//------  Geometry Object
; 1043 : 		for( j = 0; j < pGroup->m_nMaxObject; j ++ )

  008a7	8b 85 c0 fd ff
	ff		 mov	 eax, DWORD PTR _j$4$[ebp]
  008ad	8b 8d bc fd ff
	ff		 mov	 ecx, DWORD PTR tv1651[ebp]
  008b3	40		 inc	 eax
  008b4	81 c1 bc 0a 00
	00		 add	 ecx, 2748		; 00000abcH
  008ba	89 85 c0 fd ff
	ff		 mov	 DWORD PTR _j$4$[ebp], eax
  008c0	89 8d bc fd ff
	ff		 mov	 DWORD PTR tv1651[ebp], ecx
  008c6	3b 06		 cmp	 eax, DWORD PTR [esi]
  008c8	0f 8c 22 fe ff
	ff		 jl	 $LL13@LoadObject
  008ce	8b bd d0 fd ff
	ff		 mov	 edi, DWORD PTR tv1689[ebp]
$LN5@LoadObject:

; 1023 : 	for( int i = 0; i < nMaxGroup; i ++ )

  008d4	83 c6 0c	 add	 esi, 12			; 0000000cH
  008d7	83 ef 01	 sub	 edi, 1
  008da	89 b5 d8 fd ff
	ff		 mov	 DWORD PTR tv1650[ebp], esi
  008e0	89 bd d0 fd ff
	ff		 mov	 DWORD PTR tv1689[ebp], edi
  008e6	0f 85 55 fd ff
	ff		 jne	 $LL7@LoadObject

; 1145 : 			}
; 1146 : 
; 1147 : 		}
; 1148 : 	} // LOD_GROUP
; 1149 : 	// boudbox vMin, vMax값을 이용해 8개의 벡터로 풀어냄
; 1150 : //	SetBB( m_vBBVList, m_vBBMin, m_vBBMax );
; 1151 : 
; 1152 : 	// 갱신용 매트릭스 리스트 생성. - 일반형오브젝트가 하나라도 잇으면 생성.
; 1153 : 	if( bNormalObj == TRUE )

  008ec	83 bd d4 fd ff
	ff 01		 cmp	 DWORD PTR _bNormalObj$1$[ebp], 1
  008f3	0f 85 d3 00 00
	00		 jne	 $LN17@LoadObject

; 1154 : 	{
; 1155 : 		D3DXMATRIX *pmPool = new D3DXMATRIX[ nPoolSize ];

  008f9	8b 85 c8 fd ff
	ff		 mov	 eax, DWORD PTR _nPoolSize$[ebp]
  008ff	b9 40 00 00 00	 mov	 ecx, 64			; 00000040H
  00904	f7 e1		 mul	 ecx
  00906	b9 ff ff ff ff	 mov	 ecx, -1
  0090b	0f 42 c1	 cmovb	 eax, ecx
  0090e	50		 push	 eax
  0090f	e8 00 00 00 00	 call	 ??_U@YAPAXI@Z		; operator new[]
  00914	8b f8		 mov	 edi, eax
  00916	83 c4 04	 add	 esp, 4
  00919	89 bd d4 fd ff
	ff		 mov	 DWORD PTR $T10[ebp], edi
  0091f	8b b5 cc fd ff
	ff		 mov	 esi, DWORD PTR tv1660[ebp]
$LL18@LoadObject:

; 1159 : 			pmPool += m_Group[i].m_nMaxObject;

  00925	8b 0e		 mov	 ecx, DWORD PTR [esi]

; 1160 : 			for( j = 0; j < m_Group[i].m_nMaxObject; j ++ )

  00927	33 d2		 xor	 edx, edx
  00929	8b c1		 mov	 eax, ecx
  0092b	89 7e 08	 mov	 DWORD PTR [esi+8], edi
  0092e	c1 e0 06	 shl	 eax, 6
  00931	03 f8		 add	 edi, eax
  00933	85 c9		 test	 ecx, ecx
  00935	0f 8e 81 00 00
	00		 jle	 $LN16@LoadObject

; 1157 : 		{
; 1158 : 			m_Group[i]._mUpdate = pmPool;

  0093b	33 c9		 xor	 ecx, ecx
  0093d	0f 1f 00	 npad	 3
$LL21@LoadObject:

; 1161 : 				D3DXMatrixIdentity( &m_Group[i]._mUpdate[j] );

  00940	8b 46 08	 mov	 eax, DWORD PTR [esi+8]
  00943	42		 inc	 edx
  00944	03 c1		 add	 eax, ecx
  00946	83 c1 40	 add	 ecx, 64			; 00000040H
; File C:\IAGOS\server\v18\Source\Source\DX_SDK\d3dx9math.inl

; 1961 :     pOut->m[0][1] = pOut->m[0][2] = pOut->m[0][3] =

  00949	c7 40 38 00 00
	00 00		 mov	 DWORD PTR [eax+56], 0
  00950	c7 40 34 00 00
	00 00		 mov	 DWORD PTR [eax+52], 0
  00957	c7 40 30 00 00
	00 00		 mov	 DWORD PTR [eax+48], 0
  0095e	c7 40 2c 00 00
	00 00		 mov	 DWORD PTR [eax+44], 0
  00965	c7 40 24 00 00
	00 00		 mov	 DWORD PTR [eax+36], 0
  0096c	c7 40 20 00 00
	00 00		 mov	 DWORD PTR [eax+32], 0
  00973	c7 40 1c 00 00
	00 00		 mov	 DWORD PTR [eax+28], 0
  0097a	c7 40 18 00 00
	00 00		 mov	 DWORD PTR [eax+24], 0
  00981	c7 40 10 00 00
	00 00		 mov	 DWORD PTR [eax+16], 0
  00988	c7 40 0c 00 00
	00 00		 mov	 DWORD PTR [eax+12], 0
  0098f	c7 40 08 00 00
	00 00		 mov	 DWORD PTR [eax+8], 0
  00996	c7 40 04 00 00
	00 00		 mov	 DWORD PTR [eax+4], 0

; 1962 :     pOut->m[1][0] = pOut->m[1][2] = pOut->m[1][3] =
; 1963 :     pOut->m[2][0] = pOut->m[2][1] = pOut->m[2][3] =
; 1964 :     pOut->m[3][0] = pOut->m[3][1] = pOut->m[3][2] = 0.0f;
; 1965 : 
; 1966 :     pOut->m[0][0] = pOut->m[1][1] = pOut->m[2][2] = pOut->m[3][3] = 1.0f;

  0099d	c7 40 3c 00 00
	80 3f		 mov	 DWORD PTR [eax+60], 1065353216 ; 3f800000H
  009a4	c7 40 28 00 00
	80 3f		 mov	 DWORD PTR [eax+40], 1065353216 ; 3f800000H
  009ab	c7 40 14 00 00
	80 3f		 mov	 DWORD PTR [eax+20], 1065353216 ; 3f800000H
  009b2	c7 00 00 00 80
	3f		 mov	 DWORD PTR [eax], 1065353216 ; 3f800000H
; File C:\IAGOS\server\v18\Source\Source\_Common\object3d.cpp

; 1160 : 			for( j = 0; j < m_Group[i].m_nMaxObject; j ++ )

  009b8	3b 16		 cmp	 edx, DWORD PTR [esi]
  009ba	7c 84		 jl	 SHORT $LL21@LoadObject
$LN16@LoadObject:

; 1156 : 		for( int i = 0; i < nMaxGroup; i ++ )

  009bc	83 c6 0c	 add	 esi, 12			; 0000000cH
  009bf	83 ad b0 fd ff
	ff 01		 sub	 DWORD PTR _nMaxGroup$1$[ebp], 1
  009c6	0f 85 59 ff ff
	ff		 jne	 $LL18@LoadObject
$LN17@LoadObject:

; 1162 : 		}
; 1163 : 	}
; 1164 : 
; 1165 : 	// version 21이상부터는 프레임속성 저장됨.
; 1166 : 	if( nVer >= 21 )

  009cc	83 bd ac fd ff
	ff 15		 cmp	 DWORD PTR _nVer$[ebp], 21 ; 00000015H
  009d3	7c 78		 jl	 SHORT $LN48@LoadObject
; File C:\IAGOS\server\v18\Source\Source\_Common\File.h

; 27   : 	virtual size_t Read( void *ptr, size_t size, size_t n = 1 )	{ return fread( ptr, size, n, fp ); }

  009d5	ff b5 e4 fd ff
	ff		 push	 DWORD PTR _resFp$[ebp+4]
  009db	8d 85 d4 fd ff
	ff		 lea	 eax, DWORD PTR _nAttr$11[ebp]
; File C:\IAGOS\server\v18\Source\Source\_Common\object3d.cpp

; 1168 : 		int nAttr = 0;

  009e1	c7 85 d4 fd ff
	ff 00 00 00 00	 mov	 DWORD PTR _nAttr$11[ebp], 0
; File C:\IAGOS\server\v18\Source\Source\_Common\File.h

; 27   : 	virtual size_t Read( void *ptr, size_t size, size_t n = 1 )	{ return fread( ptr, size, n, fp ); }

  009eb	6a 01		 push	 1
  009ed	6a 04		 push	 4
  009ef	50		 push	 eax
  009f0	e8 00 00 00 00	 call	 _fread
; File C:\IAGOS\server\v18\Source\Source\_Common\object3d.cpp

; 1171 : 		if( nAttr == m_nMaxFrame )		// 프레임 속성 있는지 검사

  009f5	8b b5 9c fd ff
	ff		 mov	 esi, DWORD PTR tv1630[ebp]
; File C:\IAGOS\server\v18\Source\Source\_Common\File.h

; 27   : 	virtual size_t Read( void *ptr, size_t size, size_t n = 1 )	{ return fread( ptr, size, n, fp ); }

  009fb	83 c4 10	 add	 esp, 16			; 00000010H
; File C:\IAGOS\server\v18\Source\Source\_Common\object3d.cpp

; 1171 : 		if( nAttr == m_nMaxFrame )		// 프레임 속성 있는지 검사

  009fe	8b 06		 mov	 eax, DWORD PTR [esi]
  00a00	39 85 d4 fd ff
	ff		 cmp	 DWORD PTR _nAttr$11[ebp], eax
  00a06	75 45		 jne	 SHORT $LN48@LoadObject

; 1172 : 		{
; 1173 : 			// 프레임 속성 읽음.
; 1174 : 			if(m_nMaxFrame > 0)

  00a08	85 c0		 test	 eax, eax
  00a0a	7e 1c		 jle	 SHORT $LN49@LoadObject

; 1175 : 				m_pAttr	= new MOTION_ATTR[ m_nMaxFrame ];

  00a0c	b9 0c 00 00 00	 mov	 ecx, 12			; 0000000cH
  00a11	f7 e1		 mul	 ecx
  00a13	b9 ff ff ff ff	 mov	 ecx, -1
  00a18	0f 42 c1	 cmovb	 eax, ecx
  00a1b	50		 push	 eax
  00a1c	e8 00 00 00 00	 call	 ??_U@YAPAXI@Z		; operator new[]
  00a21	83 c4 04	 add	 esp, 4
  00a24	8b c8		 mov	 ecx, eax
  00a26	eb 02		 jmp	 SHORT $LN50@LoadObject
$LN49@LoadObject:

; 1176 : 			else
; 1177 : 				m_pAttr = NULL;

  00a28	33 c9		 xor	 ecx, ecx
$LN50@LoadObject:

; 1179 : 			resFp.Read( m_pAttr, sizeof(MOTION_ATTR) * m_nMaxFrame, 1 );

  00a2a	8b 85 c4 fd ff
	ff		 mov	 eax, DWORD PTR _this$GSCopy$1$[ebp]
  00a30	89 48 48	 mov	 DWORD PTR [eax+72], ecx
  00a33	8b 06		 mov	 eax, DWORD PTR [esi]
; File C:\IAGOS\server\v18\Source\Source\_Common\File.h

; 27   : 	virtual size_t Read( void *ptr, size_t size, size_t n = 1 )	{ return fread( ptr, size, n, fp ); }

  00a35	ff b5 e4 fd ff
	ff		 push	 DWORD PTR _resFp$[ebp+4]
  00a3b	6a 01		 push	 1
; File C:\IAGOS\server\v18\Source\Source\_Common\object3d.cpp

; 1179 : 			resFp.Read( m_pAttr, sizeof(MOTION_ATTR) * m_nMaxFrame, 1 );

  00a3d	8d 04 40	 lea	 eax, DWORD PTR [eax+eax*2]
  00a40	c1 e0 02	 shl	 eax, 2
; File C:\IAGOS\server\v18\Source\Source\_Common\File.h

; 27   : 	virtual size_t Read( void *ptr, size_t size, size_t n = 1 )	{ return fread( ptr, size, n, fp ); }

  00a43	50		 push	 eax
  00a44	51		 push	 ecx
  00a45	e8 00 00 00 00	 call	 _fread
  00a4a	83 c4 10	 add	 esp, 16			; 00000010H
$LN48@LoadObject:
; File C:\IAGOS\server\v18\Source\Source\_Common\object3d.cpp

; 1184 : 	resFp.Close();

  00a4d	8d 8d e0 fd ff
	ff		 lea	 ecx, DWORD PTR _resFp$[ebp]
  00a53	e8 00 00 00 00	 call	 ?Close@CFileIO@@UAEHXZ	; CFileIO::Close
; File C:\IAGOS\server\v18\Source\Source\_Common\File.h

; 17   : 	virtual ~CFileIO() { Close(); }

  00a58	8d 8d e0 fd ff
	ff		 lea	 ecx, DWORD PTR _resFp$[ebp]
  00a5e	c7 45 fc 07 00
	00 00		 mov	 DWORD PTR __$EHRec$[ebp+8], 7
  00a65	c7 85 e0 fd ff
	ff 00 00 00 00	 mov	 DWORD PTR _resFp$[ebp], OFFSET ??_7CFileIO@@6B@
  00a6f	e8 00 00 00 00	 call	 ?Close@CFileIO@@UAEHXZ	; CFileIO::Close
; File C:\IAGOS\server\v18\Source\Source\_Common\object3d.cpp

; 1186 : 	return SUCCESS;

  00a74	b8 01 00 00 00	 mov	 eax, 1
  00a79	e9 57 f6 ff ff	 jmp	 $LN1@LoadObject
$LN53@LoadObject:

; 948  : 		return 0;
; 949  : 	}
; 950  : 
; 951  : 	buff[cLen] = 0;	// 끝에 널 붙임.

  00a7e	e8 00 00 00 00	 call	 ___report_rangecheckfailure
$LN272@LoadObject:
  00a83	cc		 int	 3
_TEXT	ENDS
;	COMDAT text$x
text$x	SEGMENT
__unwindfunclet$?LoadObject@CObject3D@@QAEHPBD@Z$0:
  00000	8d 8d e0 fd ff
	ff		 lea	 ecx, DWORD PTR _resFp$[ebp]
  00006	e9 00 00 00 00	 jmp	 ??1CFileIO@@UAE@XZ	; CFileIO::~CFileIO
__unwindfunclet$?LoadObject@CObject3D@@QAEHPBD@Z$1:
  0000b	8d 8d d0 fd ff
	ff		 lea	 ecx, DWORD PTR $T8[ebp]
  00011	e9 00 00 00 00	 jmp	 ??1?$CStringT@DV?$StrTraitMFC@DV?$ChTraitsCRT@D@ATL@@@@@ATL@@QAE@XZ ; ATL::CStringT<char,StrTraitMFC<char,ATL::ChTraitsCRT<char> > >::~CStringT<char,StrTraitMFC<char,ATL::ChTraitsCRT<char> > >
__unwindfunclet$?LoadObject@CObject3D@@QAEHPBD@Z$3:
  00016	68 a4 00 00 00	 push	 164			; 000000a4H
  0001b	8b 85 cc fd ff
	ff		 mov	 eax, DWORD PTR $T7[ebp]
  00021	50		 push	 eax
  00022	e8 00 00 00 00	 call	 ??3@YAXPAXI@Z		; operator delete
  00027	83 c4 08	 add	 esp, 8
  0002a	c3		 ret	 0
  0002b	cc		 int	 3
  0002c	cc		 int	 3
  0002d	cc		 int	 3
  0002e	cc		 int	 3
  0002f	cc		 int	 3
__ehhandler$?LoadObject@CObject3D@@QAEHPBD@Z:
  00030	90		 npad	 1
  00031	90		 npad	 1
  00032	8b 54 24 08	 mov	 edx, DWORD PTR [esp+8]
  00036	8d 42 0c	 lea	 eax, DWORD PTR [edx+12]
  00039	8b 8a 9c fd ff
	ff		 mov	 ecx, DWORD PTR [edx-612]
  0003f	33 c8		 xor	 ecx, eax
  00041	e8 00 00 00 00	 call	 @__security_check_cookie@4
  00046	8b 4a fc	 mov	 ecx, DWORD PTR [edx-4]
  00049	33 c8		 xor	 ecx, eax
  0004b	e8 00 00 00 00	 call	 @__security_check_cookie@4
  00050	b8 00 00 00 00	 mov	 eax, OFFSET __ehfuncinfo$?LoadObject@CObject3D@@QAEHPBD@Z
  00055	e9 00 00 00 00	 jmp	 ___CxxFrameHandler3
text$x	ENDS
?LoadObject@CObject3D@@QAEHPBD@Z ENDP			; CObject3D::LoadObject
; Function compile flags: /Ogtp
; File C:\IAGOS\server\v18\Source\Source\_Common\object3d.cpp
;	COMDAT ?SendIndexBuffer@CObject3D@@QAEJPAUGMOBJECT@@@Z
_TEXT	SEGMENT
_pObj$ = 8						; size = 4
_pVertices$ = 8						; size = 4
?SendIndexBuffer@CObject3D@@QAEJPAUGMOBJECT@@@Z PROC	; CObject3D::SendIndexBuffer, COMDAT
; _this$ = ecx

; 2747 : {

  00000	55		 push	 ebp
  00001	8b ec		 mov	 ebp, esp
  00003	56		 push	 esi

; 2748 : 	LPDIRECT3DDEVICE9 pd3dDevice = m_pd3dDevice;
; 2749 : 	VOID*	pVertices;
; 2750 : 	int		nMax;
; 2751 : 
; 2752 : 	// 인덱스 버퍼 전송
; 2753 : 	nMax = pObj->m_nMaxIB * sizeof(WORD);

  00004	8b 75 08	 mov	 esi, DWORD PTR _pObj$[ebp]

; 2754 : 	if( FAILED(	pObj->m_pd3d_IB->Lock( 0, nMax, (void**)&pVertices, 0 ) ) )	// send index buffer

  00007	8d 55 08	 lea	 edx, DWORD PTR _pVertices$[ebp]
  0000a	57		 push	 edi
  0000b	6a 00		 push	 0
  0000d	52		 push	 edx
  0000e	8b 86 b8 0a 00
	00		 mov	 eax, DWORD PTR [esi+2744]
  00014	8b be b0 0a 00
	00		 mov	 edi, DWORD PTR [esi+2736]
  0001a	03 ff		 add	 edi, edi
  0001c	57		 push	 edi
  0001d	8b 08		 mov	 ecx, DWORD PTR [eax]
  0001f	6a 00		 push	 0
  00021	50		 push	 eax
  00022	ff 51 2c	 call	 DWORD PTR [ecx+44]
  00025	85 c0		 test	 eax, eax
  00027	79 09		 jns	 SHORT $LN2@SendIndexB

; 2755 : 		return FAIL;

  00029	5f		 pop	 edi
  0002a	83 c8 ff	 or	 eax, -1

; 2761 : }

  0002d	5e		 pop	 esi
  0002e	5d		 pop	 ebp
  0002f	c2 04 00	 ret	 4
$LN2@SendIndexB:

; 2756 : 	
; 2757 : 	memcpy( pVertices, pObj->m_pIB, nMax );	

  00032	57		 push	 edi
  00033	ff b6 a4 0a 00
	00		 push	 DWORD PTR [esi+2724]
  00039	ff 75 08	 push	 DWORD PTR _pVertices$[ebp]
  0003c	e8 00 00 00 00	 call	 _memcpy

; 2758 : 	pObj->m_pd3d_IB->Unlock();

  00041	8b 86 b8 0a 00
	00		 mov	 eax, DWORD PTR [esi+2744]
  00047	83 c4 0c	 add	 esp, 12			; 0000000cH
  0004a	8b 08		 mov	 ecx, DWORD PTR [eax]
  0004c	50		 push	 eax
  0004d	ff 51 30	 call	 DWORD PTR [ecx+48]
  00050	5f		 pop	 edi

; 2759 : 
; 2760 : 	return S_OK;

  00051	33 c0		 xor	 eax, eax

; 2761 : }

  00053	5e		 pop	 esi
  00054	5d		 pop	 ebp
  00055	c2 04 00	 ret	 4
?SendIndexBuffer@CObject3D@@QAEJPAUGMOBJECT@@@Z ENDP	; CObject3D::SendIndexBuffer
_TEXT	ENDS
; Function compile flags: /Ogtp
; File C:\IAGOS\server\v18\Source\Source\_Common\object3d.cpp
;	COMDAT ?SendVertexBuffer@CObject3D@@QAEJPAUGMOBJECT@@PAUIDirect3DVertexBuffer9@@@Z
_TEXT	SEGMENT
_pObj$ = 8						; size = 4
_pVertices$ = 8						; size = 4
_pd3d_VB$ = 12						; size = 4
?SendVertexBuffer@CObject3D@@QAEJPAUGMOBJECT@@PAUIDirect3DVertexBuffer9@@@Z PROC ; CObject3D::SendVertexBuffer, COMDAT
; _this$ = ecx

; 2717 : {

  00000	55		 push	 ebp
  00001	8b ec		 mov	 ebp, esp
  00003	53		 push	 ebx

; 2718 : 	LPDIRECT3DDEVICE9 pd3dDevice = m_pd3dDevice;
; 2719 : 	HRESULT	hr;
; 2720 : 	VOID*	pVertices;
; 2721 : 	int		nMax;
; 2722 : 	int		nVertexSize;
; 2723 : 	
; 2724 : 	nVertexSize = pObj->m_nVertexSize;
; 2725 : 	
; 2726 : 	// 버텍스 버퍼 전송
; 2727 : 	nMax = pObj->m_nMaxVB * nVertexSize;

  00004	8b 5d 08	 mov	 ebx, DWORD PTR _pObj$[ebp]

; 2728 : /*
; 2729 : 	char buff[256] = { 0 };
; 2730 : 	sprintf( buff, "%s\t%d,%d : TYPE : %d\n", m_szFileName, pObj->m_nMaxVB, pObj->m_nVertexSize, pObj->m_VBType );
; 2731 : 	OutputDebugString( buff );
; 2732 : */				
; 2733 : 				
; 2734 : 	if( FAILED( hr = pd3d_VB->Lock( 0, nMax, (void**)&pVertices, 0 ) ) )		// send vertex buffer

  00007	8d 4d 08	 lea	 ecx, DWORD PTR _pVertices$[ebp]
  0000a	56		 push	 esi
  0000b	8b 75 0c	 mov	 esi, DWORD PTR _pd3d_VB$[ebp]
  0000e	57		 push	 edi
  0000f	8b bb ac 0a 00
	00		 mov	 edi, DWORD PTR [ebx+2732]
  00015	0f af 7b 04	 imul	 edi, DWORD PTR [ebx+4]
  00019	8b 06		 mov	 eax, DWORD PTR [esi]
  0001b	6a 00		 push	 0
  0001d	51		 push	 ecx
  0001e	57		 push	 edi
  0001f	6a 00		 push	 0
  00021	56		 push	 esi
  00022	ff 50 2c	 call	 DWORD PTR [eax+44]
  00025	85 c0		 test	 eax, eax
  00027	78 1a		 js	 SHORT $LN1@SendVertex

; 2735 : 		return hr;
; 2736 : 	memcpy( pVertices, pObj->m_pVB, nMax );	

  00029	57		 push	 edi
  0002a	ff b3 a0 0a 00
	00		 push	 DWORD PTR [ebx+2720]
  00030	ff 75 08	 push	 DWORD PTR _pVertices$[ebp]
  00033	e8 00 00 00 00	 call	 _memcpy

; 2737 : 	
; 2738 : 	pd3d_VB->Unlock();

  00038	8b 06		 mov	 eax, DWORD PTR [esi]
  0003a	83 c4 0c	 add	 esp, 12			; 0000000cH
  0003d	56		 push	 esi
  0003e	ff 50 30	 call	 DWORD PTR [eax+48]

; 2739 : 	
; 2740 : 	return S_OK;

  00041	33 c0		 xor	 eax, eax
$LN1@SendVertex:

; 2741 : }

  00043	5f		 pop	 edi
  00044	5e		 pop	 esi
  00045	5b		 pop	 ebx
  00046	5d		 pop	 ebp
  00047	c2 08 00	 ret	 8
?SendVertexBuffer@CObject3D@@QAEJPAUGMOBJECT@@PAUIDirect3DVertexBuffer9@@@Z ENDP ; CObject3D::SendVertexBuffer
_TEXT	ENDS
; Function compile flags: /Ogtp
; File C:\IAGOS\server\v18\Source\Source\_Common\object3d.cpp
;	COMDAT ?CreateDeviceBuffer@CObject3D@@QAEJPAUGMOBJECT@@PAPAUIDirect3DVertexBuffer9@@W4_D3DPOOL@@@Z
_TEXT	SEGMENT
_pObject$ = 8						; size = 4
_ppd3d_VB$ = 12						; size = 4
_pool$ = 16						; size = 4
?CreateDeviceBuffer@CObject3D@@QAEJPAUGMOBJECT@@PAPAUIDirect3DVertexBuffer9@@W4_D3DPOOL@@@Z PROC ; CObject3D::CreateDeviceBuffer, COMDAT
; _this$ = ecx

; 755  : #ifdef	__WORLDSERVER
; 756  : 	return S_OK;

  00000	33 c0		 xor	 eax, eax

; 757  : #else
; 758  : //	pool = D3DPOOL_MANAGED;
; 759  : 	
; 760  : 	HRESULT		hr;
; 761  : 	int			nVertexSize;
; 762  : 	DWORD		dwFVF;
; 763  : 	DWORD		dwUsage = D3DUSAGE_WRITEONLY;
; 764  : 
; 765  : 	if( g_bUsableVS == FALSE && pObject->m_pPhysiqueVertex )	// 버텍스쉐이더 지원안되고 스키닝을 해야하는 오브젝트면
; 766  : 		dwUsage |= D3DUSAGE_SOFTWAREPROCESSING;		// 소프트웨어 버텍스버퍼로 생성.
; 767  : 
; 768  : 	nVertexSize = pObject->m_nVertexSize;
; 769  : 	dwFVF		= pObject->m_dwFVF;
; 770  : 
; 771  : 	if( ppd3d_VB == NULL )		// ppd3d_VB가 널이면 내부... this->m_pd3d_VB를 써야 한다.
; 772  : 	{
; 773  : 		// create vertexbuffer
; 774  : 		if( pObject->m_pd3d_VB == NULL )
; 775  : 		{
; 776  : 			// for Indexed Primitive
; 777  : 			g_MaxVB += (pObject->m_nMaxVB * nVertexSize);
; 778  : 
; 779  : 	#ifdef __YENV_WITHOUT_BUMP
; 780  : 			hr = m_pd3dDevice->CreateVertexBuffer(  pObject->m_nMaxVB * nVertexSize,
; 781  : 													dwUsage, dwFVF,
; 782  : 													pool, &pObject->m_pd3d_VB, NULL );
; 783  : 	#else //__YENV_WITHOUT_BUMP
; 784  : 			hr = m_pd3dDevice->CreateVertexBuffer(  pObject->m_nMaxVB * nVertexSize,
; 785  : 				dwUsage, dwFVF,
; 786  : 				pool, &pObject->m_pd3d_VB, NULL );
; 787  : 	#endif //__YENV_WITHOUT_BUMP
; 788  : 
; 789  : 			if( FAILED(hr) )
; 790  : 			{
; 791  : 				LPCTSTR szError = Error( "1 %s Object3D 버텍스 버퍼 생성 실패(%s) : m_nMaxVB=%d, nVertexSize=%d, dwFVF=%d, dwUsage=%d, pool=%d %08x", 
; 792  : 																		  m_szFileName, DXGetErrorString9(hr), pObject->m_nMaxVB, 
; 793  : 																		  nVertexSize, dwFVF, dwUsage, (int)pool, (int)m_pd3dDevice );
; 794  : 				ADDERRORMSG( szError );
; 795  : 				// Object3D관리자를 통해 메쉬를 로딩한 후 그 포인터를 받아온다.
; 796  : 				if( FAILED( hr = m_pd3dDevice->TestCooperativeLevel() ) )		// 디바이스가 허접하면 에러남김.
; 797  : 				{
; 798  : 					LPCTSTR szErr = Error( "%s CObject3D 디바이스실패 %08x", m_szFileName, (int)hr );
; 799  : 					ADDERRORMSG( szErr );
; 800  : 				}
; 801  : 				int *p = NULL;
; 802  : 				*p = 1;
; 803  : 				return E_FAIL;
; 804  : 			}
; 805  : 			SendVertexBuffer( pObject, pObject->m_pd3d_VB );
; 806  : 		}
; 807  : 	} else
; 808  : 	{
; 809  : 		if( *ppd3d_VB == NULL )		// 아직 할당 되지 않았음
; 810  : 		{
; 811  : 			// for Indexed Primitive
; 812  : 			g_MaxVB += (pObject->m_nMaxVB * nVertexSize);
; 813  : 
; 814  : 	#ifdef __YENV_WITHOUT_BUMP
; 815  : 			hr = m_pd3dDevice->CreateVertexBuffer(  pObject->m_nMaxVB * nVertexSize,
; 816  : 													dwUsage, dwFVF,
; 817  : 													pool, ppd3d_VB, NULL );
; 818  : 	#else //__YENV_WITHOUT_BUMP
; 819  : 			hr = m_pd3dDevice->CreateVertexBuffer(  pObject->m_nMaxVB * nVertexSize,
; 820  : 				dwUsage, dwFVF,
; 821  : 				pool, ppd3d_VB, NULL );			
; 822  : 	#endif //__YENV_WITHOUT_BUMP
; 823  : 
; 824  : 			if( FAILED(hr) )
; 825  : 			{
; 826  : 				LPCTSTR szError = Error( "2 %s Object3D 버텍스 버퍼 생성 실패(%s) : m_nMaxVB=%d, nVertexSize=%d, dwFVF=%d, dwUsage=%d, pool=%d %08x", 
; 827  : 																		  m_szFileName, DXGetErrorString9(hr), pObject->m_nMaxVB, 
; 828  : 																		  nVertexSize, dwFVF, dwUsage, (int)pool, (int)m_pd3dDevice );
; 829  : 				ADDERRORMSG( szError );
; 830  : 				if( FAILED( hr = m_pd3dDevice->TestCooperativeLevel() ) )		// 디바이스가 허접하면 에러남김.
; 831  : 				{
; 832  : 					LPCTSTR szErr = Error( "%s CObject3D 디바이스실패 %08x", m_szFileName, (int)hr );
; 833  : 					ADDERRORMSG( szErr );
; 834  : 				}
; 835  : 				int *p = NULL;
; 836  : 				*p = 1;
; 837  : 				return E_FAIL;
; 838  : 			}
; 839  : 			SendVertexBuffer( pObject, *ppd3d_VB );
; 840  : 		}
; 841  : 	}
; 842  : 	
; 843  : 	// create indexbuffer
; 844  : 	if( pObject->m_pd3d_IB == NULL )
; 845  : 	{
; 846  : 		g_MaxVB += (pObject->m_nMaxIB * sizeof(WORD));
; 847  : 
; 848  : 		hr = m_pd3dDevice->CreateIndexBuffer(	pObject->m_nMaxIB * sizeof(WORD),
; 849  : 												dwUsage, D3DFMT_INDEX16,
; 850  : 												D3DPOOL_MANAGED, &pObject->m_pd3d_IB, NULL );
; 851  : 		if( FAILED(hr) )
; 852  : 		{
; 853  : 			Error( "%s Object3D 인덱스 버퍼 생성 실패(%s) : m_nMaxIB=%d", 
; 854  : 													m_szFileName, DXGetErrorString9(hr), pObject->m_nMaxIB );
; 855  : 			int *p = NULL;
; 856  : 			*p = 1;
; 857  : 			return E_FAIL;
; 858  : 		}
; 859  : 		SendIndexBuffer( pObject );
; 860  : 	}
; 861  : 	
; 862  : 	
; 863  : 	return S_OK;
; 864  : #endif // !__WORLDSERVER
; 865  : }

  00002	c2 0c 00	 ret	 12			; 0000000cH
?CreateDeviceBuffer@CObject3D@@QAEJPAUGMOBJECT@@PAPAUIDirect3DVertexBuffer9@@W4_D3DPOOL@@@Z ENDP ; CObject3D::CreateDeviceBuffer
_TEXT	ENDS
; Function compile flags: /Ogtp
; File C:\IAGOS\server\v18\Source\Source\_Common\object3d.cpp
;	COMDAT ?GetMaxMtrlBlk@CObject3D@@QAEHXZ
_TEXT	SEGMENT
tv426 = -12						; size = 4
tv431 = -12						; size = 4
_nMax$1$ = -8						; size = 4
_this$1$ = -4						; size = 4
?GetMaxMtrlBlk@CObject3D@@QAEHXZ PROC			; CObject3D::GetMaxMtrlBlk, COMDAT
; _this$ = ecx

; 645  : {

  00000	55		 push	 ebp
  00001	8b ec		 mov	 ebp, esp
  00003	83 ec 0c	 sub	 esp, 12			; 0000000cH
  00006	8b c1		 mov	 eax, ecx

; 646  : 	int		i, nMax = 0;

  00008	33 d2		 xor	 edx, edx
  0000a	89 45 fc	 mov	 DWORD PTR _this$1$[ebp], eax
  0000d	53		 push	 ebx
  0000e	33 db		 xor	 ebx, ebx

; 647  : 	for( i = 0; i < m_pGroup->m_nMaxObject; i ++ )

  00010	8b 00		 mov	 eax, DWORD PTR [eax]
  00012	56		 push	 esi
  00013	57		 push	 edi
  00014	89 5d f8	 mov	 DWORD PTR _nMax$1$[ebp], ebx
  00017	8b 08		 mov	 ecx, DWORD PTR [eax]
  00019	85 c9		 test	 ecx, ecx
  0001b	0f 8e c7 00 00
	00		 jle	 $LN9@GetMaxMtrl
  00021	83 f9 08	 cmp	 ecx, 8
  00024	0f 82 be 00 00
	00		 jb	 $LN9@GetMaxMtrl

; 648  : 		nMax += m_pGroup->m_pObject[i].m_nMaxMtrlBlk;

  0002a	8b 78 04	 mov	 edi, DWORD PTR [eax+4]
  0002d	8b c1		 mov	 eax, ecx
  0002f	25 07 00 00 80	 and	 eax, -2147483641	; 80000007H
  00034	79 05		 jns	 SHORT $LN27@GetMaxMtrl
  00036	48		 dec	 eax
  00037	83 c8 f8	 or	 eax, -8			; fffffff8H
  0003a	40		 inc	 eax
$LN27@GetMaxMtrl:
  0003b	8b f1		 mov	 esi, ecx
  0003d	0f 57 ed	 xorps	 xmm5, xmm5
  00040	2b f0		 sub	 esi, eax
  00042	0f 57 e4	 xorps	 xmm4, xmm4
  00045	33 c0		 xor	 eax, eax
  00047	66 0f 1f 84 00
	00 00 00 00	 npad	 9
$LL4@GetMaxMtrl:
  00050	66 0f 6e 94 38
	d0 20 00 00	 movd	 xmm2, DWORD PTR [eax+edi+8400]
  00059	8d 80 e0 55 00
	00		 lea	 eax, DWORD PTR [eax+21984]
  0005f	66 0f 6e 84 38
	34 c0 ff ff	 movd	 xmm0, DWORD PTR [eax+edi-16332]
  00068	83 c2 08	 add	 edx, 8
  0006b	66 0f 6e 8c 38
	78 b5 ff ff	 movd	 xmm1, DWORD PTR [eax+edi-19080]
  00074	66 0f 6e 9c 38
	bc aa ff ff	 movd	 xmm3, DWORD PTR [eax+edi-21828]
  0007d	66 0f 62 d8	 punpckldq xmm3, xmm0
  00081	66 0f 6e 84 38
	24 eb ff ff	 movd	 xmm0, DWORD PTR [eax+edi-5340]
  0008a	66 0f 62 ca	 punpckldq xmm1, xmm2
  0008e	66 0f 6e 94 38
	e0 f5 ff ff	 movd	 xmm2, DWORD PTR [eax+edi-2592]
  00097	66 0f 62 d9	 punpckldq xmm3, xmm1
  0009b	66 0f 6e 8c 38
	68 e0 ff ff	 movd	 xmm1, DWORD PTR [eax+edi-8088]
  000a4	66 0f fe eb	 paddd	 xmm5, xmm3
  000a8	66 0f 6e 9c 38
	ac d5 ff ff	 movd	 xmm3, DWORD PTR [eax+edi-10836]
  000b1	66 0f 62 d8	 punpckldq xmm3, xmm0
  000b5	66 0f 62 ca	 punpckldq xmm1, xmm2
  000b9	66 0f 62 d9	 punpckldq xmm3, xmm1
  000bd	66 0f fe e3	 paddd	 xmm4, xmm3
  000c1	3b d6		 cmp	 edx, esi
  000c3	7c 8b		 jl	 SHORT $LL4@GetMaxMtrl

; 646  : 	int		i, nMax = 0;

  000c5	66 0f fe e5	 paddd	 xmm4, xmm5
  000c9	0f 28 c4	 movaps	 xmm0, xmm4
  000cc	66 0f 73 d8 08	 psrldq	 xmm0, 8
  000d1	66 0f fe e0	 paddd	 xmm4, xmm0
  000d5	0f 10 c4	 movups	 xmm0, xmm4
  000d8	66 0f 73 d8 04	 psrldq	 xmm0, 4
  000dd	66 0f fe e0	 paddd	 xmm4, xmm0
  000e1	66 0f 7e e3	 movd	 ebx, xmm4
  000e5	89 5d f8	 mov	 DWORD PTR _nMax$1$[ebp], ebx
$LN9@GetMaxMtrl:

; 647  : 	for( i = 0; i < m_pGroup->m_nMaxObject; i ++ )

  000e8	33 f6		 xor	 esi, esi
  000ea	33 ff		 xor	 edi, edi
  000ec	3b d1		 cmp	 edx, ecx
  000ee	0f 8d 7d 00 00
	00		 jge	 $LN19@GetMaxMtrl
  000f4	8b 45 fc	 mov	 eax, DWORD PTR _this$1$[ebp]
  000f7	8b 00		 mov	 eax, DWORD PTR [eax]
  000f9	83 c0 04	 add	 eax, 4
  000fc	89 45 f4	 mov	 DWORD PTR tv431[ebp], eax
  000ff	8b c1		 mov	 eax, ecx
  00101	2b c2		 sub	 eax, edx
  00103	83 f8 02	 cmp	 eax, 2
  00106	8b 45 f4	 mov	 eax, DWORD PTR tv431[ebp]
  00109	8b 00		 mov	 eax, DWORD PTR [eax]
  0010b	7c 4b		 jl	 SHORT $LN8@GetMaxMtrl

; 648  : 		nMax += m_pGroup->m_pObject[i].m_nMaxMtrlBlk;

  0010d	8b 5d fc	 mov	 ebx, DWORD PTR _this$1$[ebp]
  00110	89 45 f4	 mov	 DWORD PTR tv426[ebp], eax
  00113	69 ca bc 0a 00
	00		 imul	 ecx, edx, 2748
  00119	8b 03		 mov	 eax, DWORD PTR [ebx]
  0011b	8b 5d f4	 mov	 ebx, DWORD PTR tv426[ebp]
  0011e	8b 00		 mov	 eax, DWORD PTR [eax]
  00120	2b c2		 sub	 eax, edx
  00122	83 e8 02	 sub	 eax, 2
  00125	d1 e8		 shr	 eax, 1
  00127	40		 inc	 eax
  00128	8d 14 42	 lea	 edx, DWORD PTR [edx+eax*2]
  0012b	0f 1f 44 00 00	 npad	 5
$LL16@GetMaxMtrl:
  00130	03 b4 19 9c 00
	00 00		 add	 esi, DWORD PTR [ecx+ebx+156]
  00137	8d 89 78 15 00
	00		 lea	 ecx, DWORD PTR [ecx+5496]
  0013d	03 bc 19 e0 f5
	ff ff		 add	 edi, DWORD PTR [ecx+ebx-2592]
  00144	83 e8 01	 sub	 eax, 1
  00147	75 e7		 jne	 SHORT $LL16@GetMaxMtrl

; 647  : 	for( i = 0; i < m_pGroup->m_nMaxObject; i ++ )

  00149	8b 4d fc	 mov	 ecx, DWORD PTR _this$1$[ebp]
  0014c	8b 5d f8	 mov	 ebx, DWORD PTR _nMax$1$[ebp]
  0014f	8b 01		 mov	 eax, DWORD PTR [ecx]
  00151	3b 10		 cmp	 edx, DWORD PTR [eax]
  00153	7d 10		 jge	 SHORT $LN15@GetMaxMtrl
  00155	8b 45 f4	 mov	 eax, DWORD PTR tv426[ebp]
$LN8@GetMaxMtrl:

; 648  : 		nMax += m_pGroup->m_pObject[i].m_nMaxMtrlBlk;

  00158	69 ca bc 0a 00
	00		 imul	 ecx, edx, 2748
  0015e	03 9c 01 9c 00
	00 00		 add	 ebx, DWORD PTR [ecx+eax+156]
$LN15@GetMaxMtrl:

; 649  : 	return nMax;
; 650  : }

  00165	8d 04 37	 lea	 eax, DWORD PTR [edi+esi]
  00168	5f		 pop	 edi
  00169	5e		 pop	 esi
  0016a	03 c3		 add	 eax, ebx
  0016c	5b		 pop	 ebx
  0016d	8b e5		 mov	 esp, ebp
  0016f	5d		 pop	 ebp
  00170	c3		 ret	 0
$LN19@GetMaxMtrl:
  00171	5f		 pop	 edi
  00172	5e		 pop	 esi
  00173	8b c3		 mov	 eax, ebx
  00175	5b		 pop	 ebx
  00176	8b e5		 mov	 esp, ebp
  00178	5d		 pop	 ebp
  00179	c3		 ret	 0
?GetMaxMtrlBlk@CObject3D@@QAEHXZ ENDP			; CObject3D::GetMaxMtrlBlk
_TEXT	ENDS
; Function compile flags: /Ogtp
; File C:\IAGOS\server\v18\Source\Source\_Common\object3d.cpp
;	COMDAT ?GetMaxFace@CObject3D@@QAEHXZ
_TEXT	SEGMENT
tv426 = -12						; size = 4
tv431 = -12						; size = 4
_nMax$1$ = -8						; size = 4
_this$1$ = -4						; size = 4
?GetMaxFace@CObject3D@@QAEHXZ PROC			; CObject3D::GetMaxFace, COMDAT
; _this$ = ecx

; 637  : {

  00000	55		 push	 ebp
  00001	8b ec		 mov	 ebp, esp
  00003	83 ec 0c	 sub	 esp, 12			; 0000000cH
  00006	8b c1		 mov	 eax, ecx

; 638  : 	int		i, nMax = 0;

  00008	33 d2		 xor	 edx, edx
  0000a	89 45 fc	 mov	 DWORD PTR _this$1$[ebp], eax
  0000d	53		 push	 ebx
  0000e	33 db		 xor	 ebx, ebx

; 639  : 	for( i = 0; i < m_pGroup->m_nMaxObject; i ++ )

  00010	8b 00		 mov	 eax, DWORD PTR [eax]
  00012	56		 push	 esi
  00013	57		 push	 edi
  00014	89 5d f8	 mov	 DWORD PTR _nMax$1$[ebp], ebx
  00017	8b 08		 mov	 ecx, DWORD PTR [eax]
  00019	85 c9		 test	 ecx, ecx
  0001b	0f 8e c7 00 00
	00		 jle	 $LN9@GetMaxFace
  00021	83 f9 08	 cmp	 ecx, 8
  00024	0f 82 be 00 00
	00		 jb	 $LN9@GetMaxFace

; 640  : 		nMax += m_pGroup->m_pObject[i].m_nMaxFaceList;

  0002a	8b 78 04	 mov	 edi, DWORD PTR [eax+4]
  0002d	8b c1		 mov	 eax, ecx
  0002f	25 07 00 00 80	 and	 eax, -2147483641	; 80000007H
  00034	79 05		 jns	 SHORT $LN27@GetMaxFace
  00036	48		 dec	 eax
  00037	83 c8 f8	 or	 eax, -8			; fffffff8H
  0003a	40		 inc	 eax
$LN27@GetMaxFace:
  0003b	8b f1		 mov	 esi, ecx
  0003d	0f 57 ed	 xorps	 xmm5, xmm5
  00040	2b f0		 sub	 esi, eax
  00042	0f 57 e4	 xorps	 xmm4, xmm4
  00045	33 c0		 xor	 eax, eax
  00047	66 0f 1f 84 00
	00 00 00 00	 npad	 9
$LL4@GetMaxFace:
  00050	66 0f 6e 94 38
	cc 20 00 00	 movd	 xmm2, DWORD PTR [eax+edi+8396]
  00059	8d 80 e0 55 00
	00		 lea	 eax, DWORD PTR [eax+21984]
  0005f	66 0f 6e 84 38
	30 c0 ff ff	 movd	 xmm0, DWORD PTR [eax+edi-16336]
  00068	83 c2 08	 add	 edx, 8
  0006b	66 0f 6e 8c 38
	74 b5 ff ff	 movd	 xmm1, DWORD PTR [eax+edi-19084]
  00074	66 0f 6e 9c 38
	b8 aa ff ff	 movd	 xmm3, DWORD PTR [eax+edi-21832]
  0007d	66 0f 62 d8	 punpckldq xmm3, xmm0
  00081	66 0f 6e 84 38
	20 eb ff ff	 movd	 xmm0, DWORD PTR [eax+edi-5344]
  0008a	66 0f 62 ca	 punpckldq xmm1, xmm2
  0008e	66 0f 6e 94 38
	dc f5 ff ff	 movd	 xmm2, DWORD PTR [eax+edi-2596]
  00097	66 0f 62 d9	 punpckldq xmm3, xmm1
  0009b	66 0f 6e 8c 38
	64 e0 ff ff	 movd	 xmm1, DWORD PTR [eax+edi-8092]
  000a4	66 0f fe eb	 paddd	 xmm5, xmm3
  000a8	66 0f 6e 9c 38
	a8 d5 ff ff	 movd	 xmm3, DWORD PTR [eax+edi-10840]
  000b1	66 0f 62 d8	 punpckldq xmm3, xmm0
  000b5	66 0f 62 ca	 punpckldq xmm1, xmm2
  000b9	66 0f 62 d9	 punpckldq xmm3, xmm1
  000bd	66 0f fe e3	 paddd	 xmm4, xmm3
  000c1	3b d6		 cmp	 edx, esi
  000c3	7c 8b		 jl	 SHORT $LL4@GetMaxFace

; 638  : 	int		i, nMax = 0;

  000c5	66 0f fe e5	 paddd	 xmm4, xmm5
  000c9	0f 28 c4	 movaps	 xmm0, xmm4
  000cc	66 0f 73 d8 08	 psrldq	 xmm0, 8
  000d1	66 0f fe e0	 paddd	 xmm4, xmm0
  000d5	0f 10 c4	 movups	 xmm0, xmm4
  000d8	66 0f 73 d8 04	 psrldq	 xmm0, 4
  000dd	66 0f fe e0	 paddd	 xmm4, xmm0
  000e1	66 0f 7e e3	 movd	 ebx, xmm4
  000e5	89 5d f8	 mov	 DWORD PTR _nMax$1$[ebp], ebx
$LN9@GetMaxFace:

; 639  : 	for( i = 0; i < m_pGroup->m_nMaxObject; i ++ )

  000e8	33 f6		 xor	 esi, esi
  000ea	33 ff		 xor	 edi, edi
  000ec	3b d1		 cmp	 edx, ecx
  000ee	0f 8d 7d 00 00
	00		 jge	 $LN19@GetMaxFace
  000f4	8b 45 fc	 mov	 eax, DWORD PTR _this$1$[ebp]
  000f7	8b 00		 mov	 eax, DWORD PTR [eax]
  000f9	83 c0 04	 add	 eax, 4
  000fc	89 45 f4	 mov	 DWORD PTR tv431[ebp], eax
  000ff	8b c1		 mov	 eax, ecx
  00101	2b c2		 sub	 eax, edx
  00103	83 f8 02	 cmp	 eax, 2
  00106	8b 45 f4	 mov	 eax, DWORD PTR tv431[ebp]
  00109	8b 00		 mov	 eax, DWORD PTR [eax]
  0010b	7c 4b		 jl	 SHORT $LN8@GetMaxFace

; 640  : 		nMax += m_pGroup->m_pObject[i].m_nMaxFaceList;

  0010d	8b 5d fc	 mov	 ebx, DWORD PTR _this$1$[ebp]
  00110	89 45 f4	 mov	 DWORD PTR tv426[ebp], eax
  00113	69 ca bc 0a 00
	00		 imul	 ecx, edx, 2748
  00119	8b 03		 mov	 eax, DWORD PTR [ebx]
  0011b	8b 5d f4	 mov	 ebx, DWORD PTR tv426[ebp]
  0011e	8b 00		 mov	 eax, DWORD PTR [eax]
  00120	2b c2		 sub	 eax, edx
  00122	83 e8 02	 sub	 eax, 2
  00125	d1 e8		 shr	 eax, 1
  00127	40		 inc	 eax
  00128	8d 14 42	 lea	 edx, DWORD PTR [edx+eax*2]
  0012b	0f 1f 44 00 00	 npad	 5
$LL16@GetMaxFace:
  00130	03 b4 19 98 00
	00 00		 add	 esi, DWORD PTR [ecx+ebx+152]
  00137	8d 89 78 15 00
	00		 lea	 ecx, DWORD PTR [ecx+5496]
  0013d	03 bc 19 dc f5
	ff ff		 add	 edi, DWORD PTR [ecx+ebx-2596]
  00144	83 e8 01	 sub	 eax, 1
  00147	75 e7		 jne	 SHORT $LL16@GetMaxFace

; 639  : 	for( i = 0; i < m_pGroup->m_nMaxObject; i ++ )

  00149	8b 4d fc	 mov	 ecx, DWORD PTR _this$1$[ebp]
  0014c	8b 5d f8	 mov	 ebx, DWORD PTR _nMax$1$[ebp]
  0014f	8b 01		 mov	 eax, DWORD PTR [ecx]
  00151	3b 10		 cmp	 edx, DWORD PTR [eax]
  00153	7d 10		 jge	 SHORT $LN15@GetMaxFace
  00155	8b 45 f4	 mov	 eax, DWORD PTR tv426[ebp]
$LN8@GetMaxFace:

; 640  : 		nMax += m_pGroup->m_pObject[i].m_nMaxFaceList;

  00158	69 ca bc 0a 00
	00		 imul	 ecx, edx, 2748
  0015e	03 9c 01 98 00
	00 00		 add	 ebx, DWORD PTR [ecx+eax+152]
$LN15@GetMaxFace:

; 641  : 	return nMax;
; 642  : }

  00165	8d 04 37	 lea	 eax, DWORD PTR [edi+esi]
  00168	5f		 pop	 edi
  00169	5e		 pop	 esi
  0016a	03 c3		 add	 eax, ebx
  0016c	5b		 pop	 ebx
  0016d	8b e5		 mov	 esp, ebp
  0016f	5d		 pop	 ebp
  00170	c3		 ret	 0
$LN19@GetMaxFace:
  00171	5f		 pop	 edi
  00172	5e		 pop	 esi
  00173	8b c3		 mov	 eax, ebx
  00175	5b		 pop	 ebx
  00176	8b e5		 mov	 esp, ebp
  00178	5d		 pop	 ebp
  00179	c3		 ret	 0
?GetMaxFace@CObject3D@@QAEHXZ ENDP			; CObject3D::GetMaxFace
_TEXT	ENDS
; Function compile flags: /Ogtp
; File C:\IAGOS\server\v18\Source\Source\_Common\object3d.cpp
;	COMDAT ?GetMaxVertex@CObject3D@@QAEHXZ
_TEXT	SEGMENT
tv426 = -12						; size = 4
tv431 = -12						; size = 4
_nMax$1$ = -8						; size = 4
_this$1$ = -4						; size = 4
?GetMaxVertex@CObject3D@@QAEHXZ PROC			; CObject3D::GetMaxVertex, COMDAT
; _this$ = ecx

; 629  : {

  00000	55		 push	 ebp
  00001	8b ec		 mov	 ebp, esp
  00003	83 ec 0c	 sub	 esp, 12			; 0000000cH
  00006	8b c1		 mov	 eax, ecx

; 630  : 	int		i, nMax = 0;

  00008	33 d2		 xor	 edx, edx
  0000a	89 45 fc	 mov	 DWORD PTR _this$1$[ebp], eax
  0000d	53		 push	 ebx
  0000e	33 db		 xor	 ebx, ebx

; 631  : 	for( i = 0; i < m_pGroup->m_nMaxObject; i ++ )

  00010	8b 00		 mov	 eax, DWORD PTR [eax]
  00012	56		 push	 esi
  00013	57		 push	 edi
  00014	89 5d f8	 mov	 DWORD PTR _nMax$1$[ebp], ebx
  00017	8b 08		 mov	 ecx, DWORD PTR [eax]
  00019	85 c9		 test	 ecx, ecx
  0001b	0f 8e c7 00 00
	00		 jle	 $LN9@GetMaxVert
  00021	83 f9 08	 cmp	 ecx, 8
  00024	0f 82 be 00 00
	00		 jb	 $LN9@GetMaxVert

; 632  : 		nMax += m_pGroup->m_pObject[i].m_nMaxVertexList;

  0002a	8b 78 04	 mov	 edi, DWORD PTR [eax+4]
  0002d	8b c1		 mov	 eax, ecx
  0002f	25 07 00 00 80	 and	 eax, -2147483641	; 80000007H
  00034	79 05		 jns	 SHORT $LN27@GetMaxVert
  00036	48		 dec	 eax
  00037	83 c8 f8	 or	 eax, -8			; fffffff8H
  0003a	40		 inc	 eax
$LN27@GetMaxVert:
  0003b	8b f1		 mov	 esi, ecx
  0003d	0f 57 ed	 xorps	 xmm5, xmm5
  00040	2b f0		 sub	 esi, eax
  00042	0f 57 e4	 xorps	 xmm4, xmm4
  00045	33 c0		 xor	 eax, eax
  00047	66 0f 1f 84 00
	00 00 00 00	 npad	 9
$LL4@GetMaxVert:
  00050	66 0f 6e 94 38
	c8 20 00 00	 movd	 xmm2, DWORD PTR [eax+edi+8392]
  00059	8d 80 e0 55 00
	00		 lea	 eax, DWORD PTR [eax+21984]
  0005f	66 0f 6e 84 38
	2c c0 ff ff	 movd	 xmm0, DWORD PTR [eax+edi-16340]
  00068	83 c2 08	 add	 edx, 8
  0006b	66 0f 6e 8c 38
	70 b5 ff ff	 movd	 xmm1, DWORD PTR [eax+edi-19088]
  00074	66 0f 6e 9c 38
	b4 aa ff ff	 movd	 xmm3, DWORD PTR [eax+edi-21836]
  0007d	66 0f 62 d8	 punpckldq xmm3, xmm0
  00081	66 0f 6e 84 38
	1c eb ff ff	 movd	 xmm0, DWORD PTR [eax+edi-5348]
  0008a	66 0f 62 ca	 punpckldq xmm1, xmm2
  0008e	66 0f 6e 94 38
	d8 f5 ff ff	 movd	 xmm2, DWORD PTR [eax+edi-2600]
  00097	66 0f 62 d9	 punpckldq xmm3, xmm1
  0009b	66 0f 6e 8c 38
	60 e0 ff ff	 movd	 xmm1, DWORD PTR [eax+edi-8096]
  000a4	66 0f fe eb	 paddd	 xmm5, xmm3
  000a8	66 0f 6e 9c 38
	a4 d5 ff ff	 movd	 xmm3, DWORD PTR [eax+edi-10844]
  000b1	66 0f 62 d8	 punpckldq xmm3, xmm0
  000b5	66 0f 62 ca	 punpckldq xmm1, xmm2
  000b9	66 0f 62 d9	 punpckldq xmm3, xmm1
  000bd	66 0f fe e3	 paddd	 xmm4, xmm3
  000c1	3b d6		 cmp	 edx, esi
  000c3	7c 8b		 jl	 SHORT $LL4@GetMaxVert

; 630  : 	int		i, nMax = 0;

  000c5	66 0f fe e5	 paddd	 xmm4, xmm5
  000c9	0f 28 c4	 movaps	 xmm0, xmm4
  000cc	66 0f 73 d8 08	 psrldq	 xmm0, 8
  000d1	66 0f fe e0	 paddd	 xmm4, xmm0
  000d5	0f 10 c4	 movups	 xmm0, xmm4
  000d8	66 0f 73 d8 04	 psrldq	 xmm0, 4
  000dd	66 0f fe e0	 paddd	 xmm4, xmm0
  000e1	66 0f 7e e3	 movd	 ebx, xmm4
  000e5	89 5d f8	 mov	 DWORD PTR _nMax$1$[ebp], ebx
$LN9@GetMaxVert:

; 631  : 	for( i = 0; i < m_pGroup->m_nMaxObject; i ++ )

  000e8	33 f6		 xor	 esi, esi
  000ea	33 ff		 xor	 edi, edi
  000ec	3b d1		 cmp	 edx, ecx
  000ee	0f 8d 7d 00 00
	00		 jge	 $LN19@GetMaxVert
  000f4	8b 45 fc	 mov	 eax, DWORD PTR _this$1$[ebp]
  000f7	8b 00		 mov	 eax, DWORD PTR [eax]
  000f9	83 c0 04	 add	 eax, 4
  000fc	89 45 f4	 mov	 DWORD PTR tv431[ebp], eax
  000ff	8b c1		 mov	 eax, ecx
  00101	2b c2		 sub	 eax, edx
  00103	83 f8 02	 cmp	 eax, 2
  00106	8b 45 f4	 mov	 eax, DWORD PTR tv431[ebp]
  00109	8b 00		 mov	 eax, DWORD PTR [eax]
  0010b	7c 4b		 jl	 SHORT $LN8@GetMaxVert

; 632  : 		nMax += m_pGroup->m_pObject[i].m_nMaxVertexList;

  0010d	8b 5d fc	 mov	 ebx, DWORD PTR _this$1$[ebp]
  00110	89 45 f4	 mov	 DWORD PTR tv426[ebp], eax
  00113	69 ca bc 0a 00
	00		 imul	 ecx, edx, 2748
  00119	8b 03		 mov	 eax, DWORD PTR [ebx]
  0011b	8b 5d f4	 mov	 ebx, DWORD PTR tv426[ebp]
  0011e	8b 00		 mov	 eax, DWORD PTR [eax]
  00120	2b c2		 sub	 eax, edx
  00122	83 e8 02	 sub	 eax, 2
  00125	d1 e8		 shr	 eax, 1
  00127	40		 inc	 eax
  00128	8d 14 42	 lea	 edx, DWORD PTR [edx+eax*2]
  0012b	0f 1f 44 00 00	 npad	 5
$LL16@GetMaxVert:
  00130	03 b4 19 94 00
	00 00		 add	 esi, DWORD PTR [ecx+ebx+148]
  00137	8d 89 78 15 00
	00		 lea	 ecx, DWORD PTR [ecx+5496]
  0013d	03 bc 19 d8 f5
	ff ff		 add	 edi, DWORD PTR [ecx+ebx-2600]
  00144	83 e8 01	 sub	 eax, 1
  00147	75 e7		 jne	 SHORT $LL16@GetMaxVert

; 631  : 	for( i = 0; i < m_pGroup->m_nMaxObject; i ++ )

  00149	8b 4d fc	 mov	 ecx, DWORD PTR _this$1$[ebp]
  0014c	8b 5d f8	 mov	 ebx, DWORD PTR _nMax$1$[ebp]
  0014f	8b 01		 mov	 eax, DWORD PTR [ecx]
  00151	3b 10		 cmp	 edx, DWORD PTR [eax]
  00153	7d 10		 jge	 SHORT $LN15@GetMaxVert
  00155	8b 45 f4	 mov	 eax, DWORD PTR tv426[ebp]
$LN8@GetMaxVert:

; 632  : 		nMax += m_pGroup->m_pObject[i].m_nMaxVertexList;

  00158	69 ca bc 0a 00
	00		 imul	 ecx, edx, 2748
  0015e	03 9c 01 94 00
	00 00		 add	 ebx, DWORD PTR [ecx+eax+148]
$LN15@GetMaxVert:

; 633  : 	return nMax;
; 634  : }

  00165	8d 04 37	 lea	 eax, DWORD PTR [edi+esi]
  00168	5f		 pop	 edi
  00169	5e		 pop	 esi
  0016a	03 c3		 add	 eax, ebx
  0016c	5b		 pop	 ebx
  0016d	8b e5		 mov	 esp, ebp
  0016f	5d		 pop	 ebp
  00170	c3		 ret	 0
$LN19@GetMaxVert:
  00171	5f		 pop	 edi
  00172	5e		 pop	 esi
  00173	8b c3		 mov	 eax, ebx
  00175	5b		 pop	 ebx
  00176	8b e5		 mov	 esp, ebp
  00178	5d		 pop	 ebp
  00179	c3		 ret	 0
?GetMaxVertex@CObject3D@@QAEHXZ ENDP			; CObject3D::GetMaxVertex
_TEXT	ENDS
; Function compile flags: /Ogtp
; File C:\IAGOS\server\v18\Source\Source\_Common\object3d.cpp
;	COMDAT ?ChangeTexture@CObject3D@@QAEXPBD0@Z
_TEXT	SEGMENT
_szSrc$ = 8						; size = 4
_szDest$ = 12						; size = 4
?ChangeTexture@CObject3D@@QAEXPBD0@Z PROC		; CObject3D::ChangeTexture, COMDAT
; _this$ = ecx

; 1513 : #ifdef __WORLDSERVER
; 1514 : 	return;
; 1515 : #else
; 1516 : 	int		i, j, k;
; 1517 : 	GMOBJECT	*pObject;
; 1518 : 	char	szBuff[128];
; 1519 : 
; 1520 : 	strcpy( szBuff, szSrc );
; 1521 : 	strlwr( szBuff );
; 1522 : 	TCHAR szBitMapFileName[ 16 ][ 128 ];
; 1523 : 	for( k = 0; k < MAX_GROUP; k++ )
; 1524 : 	{
; 1525 : 		for( i = 0; i < m_Group[k].m_nMaxObject; i ++ )
; 1526 : 		{
; 1527 : 			pObject = &m_Group[k].m_pObject[i];
; 1528 : 
; 1529 : 			// 파일명 비교를 위해서 복사해 놓는다. 교체 처리후 
; 1530 : 			// pObject->m_MaterialAry[ nID ].strBitMapFileName의 내용이 변경되기 때문에 오리지날 스트링을
; 1531 : 			// 비교를 위해 임시 저장해둘 필요가 있다.
; 1532 : 			for( j = 0; j < pObject->m_nMaxMtrlBlk; j ++ )		// 매터리얼 블럭을 돌면서
; 1533 : 			{
; 1534 : 				int nID = pObject->m_pMtrlBlk[j].m_nTextureID;
; 1535 : 				_tcscpy( szBitMapFileName[ j ], pObject->m_MaterialAry[ nID ].strBitMapFileName );
; 1536 : 			}
; 1537 : 			for( j = 0; j < pObject->m_nMaxMtrlBlk; j ++ )		// 매터리얼 블럭을 돌면서
; 1538 : 			{
; 1539 : 				int nID = pObject->m_pMtrlBlk[j].m_nTextureID;
; 1540 : 				if( strcmp( szBitMapFileName[j], szBuff ) == 0 )	// szSrc랑 같은 파일명이 있으면
; 1541 : 				{
; 1542 : 					MATERIAL	*pMtrl;
; 1543 : 					D3DMATERIAL9	mMtrl;
; 1544 : 					pMtrl = g_TextureMng.AddMaterial( m_pd3dDevice, &mMtrl, szDest );		// szDest로 읽어서
; 1545 : 					pObject->m_pMtrlBlkTexture[j] = pMtrl->m_pTexture;	// 그놈으로 대체시키고
; 1546 : 					strcpy( pObject->m_MaterialAry[ nID ].strBitMapFileName, szDest );	// 파일명 바꿔놓는다.
; 1547 : 				}
; 1548 : 			}
; 1549 : 		}
; 1550 : 	} // LOD_GROUP
; 1551 : #endif //!__WORLDSERVER
; 1552 : }

  00000	c2 08 00	 ret	 8
?ChangeTexture@CObject3D@@QAEXPBD0@Z ENDP		; CObject3D::ChangeTexture
_TEXT	ENDS
; Function compile flags: /Ogtp
; File C:\IAGOS\server\v18\Source\Source\_Common\object3d.cpp
;	COMDAT ?LoadTextureEx@CObject3D@@QAEXHPAUGMOBJECT@@QAPAUMATERIAL@@@Z
_TEXT	SEGMENT
_nNumEx$ = 8						; size = 4
_pObj$ = 12						; size = 4
_pmMaterial$ = 16					; size = 4
?LoadTextureEx@CObject3D@@QAEXHPAUGMOBJECT@@QAPAUMATERIAL@@@Z PROC ; CObject3D::LoadTextureEx, COMDAT
; _this$ = ecx

; 2480 : #if !defined(__WORLDSERVER)
; 2481 : 	int		i;
; 2482 : 	char	szTexture[MAX_PATH];
; 2483 : 	char	szFileExt[MAX_PATH];
; 2484 : 	char	szNum[16];
; 2485 : 	D3DMATERIAL9	mMaterial;
; 2486 : 
; 2487 : 	memset( &mMaterial, 0, sizeof(mMaterial) );
; 2488 : 
; 2489 : 	// 사용하는 텍스쳐에 -et를 붙여서 확장 텍스쳐를 읽어들임.
; 2490 : 	for( i = 0; i < pObj->m_nMaxMaterial; i ++ )
; 2491 : 	{
; 2492 : 		if( IsEmpty( pObj->m_MaterialAry[i].strBitMapFileName ) )	continue;
; 2493 : 		strcpy( szTexture, pObj->m_MaterialAry[i].strBitMapFileName );		// mvr_bang.dds
; 2494 : //		strcpy( szTexture, ::GetFileTitle( pObj->m_MaterialAry[i].strBitMapFileName ) );	// mvr_bang
; 2495 : 		GetFileTitle( pObj->m_MaterialAry[i].strBitMapFileName, szTexture );	// mvr_bang
; 2496 : 		strcat( szTexture, "-et" );		// -et. 를 붙임.  mvr_bang-et.
; 2497 : 		sprintf( szNum, "%02d.", nNumEx );	
; 2498 : 		strcat( szTexture, szNum );			// -et01 ~ 07
; 2499 : //		strcat( szTexture, ::GetFileExt( pObj->m_MaterialAry[i].strBitMapFileName ) );		// mvr_bang-et.dds
; 2500 : 		GetFileExt( pObj->m_MaterialAry[i].strBitMapFileName, szFileExt );	// mvr_bang-et.dds
; 2501 : 		lstrcat( szTexture, szFileExt );
; 2502 : 
; 2503 : 		if( IsEmpty(szTexture) == FALSE )
; 2504 : 			pmMaterial[i] = g_TextureMng.AddMaterial( m_pd3dDevice, &mMaterial, szTexture );
; 2505 : 	}
; 2506 : #endif // !__WORLDSERVER
; 2507 : }

  00000	c2 0c 00	 ret	 12			; 0000000cH
?LoadTextureEx@CObject3D@@QAEXHPAUGMOBJECT@@QAPAUMATERIAL@@@Z ENDP ; CObject3D::LoadTextureEx
_TEXT	ENDS
; Function compile flags: /Ogtp
; File C:\IAGOS\server\v18\Source\Source\_Common\object3d.cpp
;	COMDAT ?SetTextureEx@CObject3D@@QAEXPAUGMOBJECT@@H@Z
_TEXT	SEGMENT
_pObj$ = 8						; size = 4
_nNumEx$ = 12						; size = 4
?SetTextureEx@CObject3D@@QAEXPAUGMOBJECT@@H@Z PROC	; CObject3D::SetTextureEx, COMDAT
; _this$ = ecx

; 2514 : #if !defined(__WORLDSERVER)
; 2515 : 	LPDIRECT3DTEXTURE9	*pTextureEx;		// 매터리얼 블럭내 텍스쳐포인터
; 2516 : 	int		i;
; 2517 : 	MATERIAL	*mMaterial[16];
; 2518 : 	int		nID;
; 2519 : 	
; 2520 : 	if( nNumEx >= 8 )
; 2521 : 	{
; 2522 : 		Error( "CObject3D::SetTextureEx : nNumEx = %d", nNumEx );
; 2523 : 		return;
; 2524 : 	}
; 2525 : 	pTextureEx = pObj->m_pMtrlBlkTexture + (pObj->m_nMaxMtrlBlk * nNumEx);		// 확장부분 포인터.
; 2526 : 	
; 2527 : //	if( bUse )
; 2528 : 	if( 1 )
; 2529 : 	{
; 2530 : 		memset( mMaterial, 0, sizeof(mMaterial) );
; 2531 : 		
; 2532 : 		if( pTextureEx[0] == NULL )		// 확장 텍스쳐가 로딩된적이 없다.
; 2533 : 		{
; 2534 : 			LoadTextureEx( nNumEx, pObj, mMaterial );		// 확장텍스쳐를 로딩함.
; 2535 : 			for( i = 0; i < pObj->m_nMaxMtrlBlk; i ++ )
; 2536 : 			{
; 2537 : 				nID = pObj->m_pMtrlBlk[i].m_nTextureID;
; 2538 : 				if( mMaterial[ nID ] )
; 2539 : 					pTextureEx[i] = mMaterial[ nID ]->m_pTexture;		// 확장텍스쳐를 로딩함.
; 2540 : 			}
; 2541 : 		}
; 2542 : 	}
; 2543 : 	else
; 2544 : 	{
; 2545 : 		for( i = 0; i < pObj->m_nMaxMtrlBlk; i ++ )
; 2546 : 			pTextureEx[i] = NULL;
; 2547 : 	}
; 2548 : 	
; 2549 : 	m_nTextureEx = nNumEx;
; 2550 : #endif
; 2551 : }

  00000	c2 08 00	 ret	 8
?SetTextureEx@CObject3D@@QAEXPAUGMOBJECT@@H@Z ENDP	; CObject3D::SetTextureEx
_TEXT	ENDS
; Function compile flags: /Ogtp
; File C:\IAGOS\server\v18\Source\Source\_Common\object3d.cpp
;	COMDAT ?SetTexture@CObject3D@@QAEXPAUIDirect3DTexture9@@@Z
_TEXT	SEGMENT
_pTexture$ = 8						; size = 4
?SetTexture@CObject3D@@QAEXPAUIDirect3DTexture9@@@Z PROC ; CObject3D::SetTexture, COMDAT
; _this$ = ecx

; 2473 : #if !defined(__WORLDSERVER)
; 2474 : 	m_Group[0].m_pObject[0].m_pMtrlBlkTexture[0] = pTexture;
; 2475 : #endif
; 2476 : }

  00000	c2 04 00	 ret	 4
?SetTexture@CObject3D@@QAEXPAUIDirect3DTexture9@@@Z ENDP ; CObject3D::SetTexture
_TEXT	ENDS
; Function compile flags: /Ogtp
; File C:\IAGOS\server\v18\Source\Source\_Common\object3d.cpp
;	COMDAT ?SetTexture@CObject3D@@QAEXPBD@Z
_TEXT	SEGMENT
_szTexture$ = 8						; size = 4
?SetTexture@CObject3D@@QAEXPBD@Z PROC			; CObject3D::SetTexture, COMDAT
; _this$ = ecx

; 2462 : #if !defined(__WORLDSERVER)
; 2463 : 	MATERIAL	*pMtrl;
; 2464 : 	D3DMATERIAL9	mMtrl;
; 2465 : 
; 2466 : 	pMtrl = g_TextureMng.AddMaterial( m_pd3dDevice, &mMtrl, szTexture );
; 2467 : 	m_Group[0].m_pObject[0].m_pMtrlBlkTexture[0] = pMtrl->m_pTexture;
; 2468 : #endif
; 2469 : }

  00000	c2 04 00	 ret	 4
?SetTexture@CObject3D@@QAEXPBD@Z ENDP			; CObject3D::SetTexture
_TEXT	ENDS
; Function compile flags: /Ogtp
; File C:\IAGOS\server\v18\Source\Source\_Common\object3d.cpp
;	COMDAT ??1CObject3D@@QAE@XZ
_TEXT	SEGMENT
__$EHRec$ = -12						; size = 12
??1CObject3D@@QAE@XZ PROC				; CObject3D::~CObject3D, COMDAT
; _this$ = ecx

; 487  : {

  00000	55		 push	 ebp
  00001	8b ec		 mov	 ebp, esp
  00003	6a ff		 push	 -1
  00005	68 00 00 00 00	 push	 __ehhandler$??1CObject3D@@QAE@XZ
  0000a	64 a1 00 00 00
	00		 mov	 eax, DWORD PTR fs:0
  00010	50		 push	 eax
  00011	a1 00 00 00 00	 mov	 eax, DWORD PTR ___security_cookie
  00016	33 c5		 xor	 eax, ebp
  00018	50		 push	 eax
  00019	8d 45 f4	 lea	 eax, DWORD PTR __$EHRec$[ebp]
  0001c	64 a3 00 00 00
	00		 mov	 DWORD PTR fs:0, eax

; 488  : 	Destroy();

  00022	e8 00 00 00 00	 call	 ?Destroy@CObject3D@@AAEXXZ ; CObject3D::Destroy

; 489  : }

  00027	8b 4d f4	 mov	 ecx, DWORD PTR __$EHRec$[ebp]
  0002a	64 89 0d 00 00
	00 00		 mov	 DWORD PTR fs:0, ecx
  00031	59		 pop	 ecx
  00032	8b e5		 mov	 esp, ebp
  00034	5d		 pop	 ebp
  00035	c3		 ret	 0
  00036	cc		 int	 3
  00037	cc		 int	 3
  00038	cc		 int	 3
  00039	cc		 int	 3
  0003a	cc		 int	 3
_TEXT	ENDS
;	COMDAT text$x
text$x	SEGMENT
__ehhandler$??1CObject3D@@QAE@XZ:
  00000	90		 npad	 1
  00001	90		 npad	 1
  00002	8b 54 24 08	 mov	 edx, DWORD PTR [esp+8]
  00006	8d 42 0c	 lea	 eax, DWORD PTR [edx+12]
  00009	8b 4a fc	 mov	 ecx, DWORD PTR [edx-4]
  0000c	33 c8		 xor	 ecx, eax
  0000e	e8 00 00 00 00	 call	 @__security_check_cookie@4
  00013	b8 00 00 00 00	 mov	 eax, OFFSET __ehfuncinfo$??1CObject3D@@QAE@XZ
  00018	e9 00 00 00 00	 jmp	 ___CxxFrameHandler3
text$x	ENDS
??1CObject3D@@QAE@XZ ENDP				; CObject3D::~CObject3D
; Function compile flags: /Ogtp
; File C:\IAGOS\server\v18\Source\Source\_Common\object3d.cpp
;	COMDAT ??0CObject3D@@QAE@XZ
_TEXT	SEGMENT
??0CObject3D@@QAE@XZ PROC				; CObject3D::CObject3D, COMDAT
; _this$ = ecx

; 482  : {

  00000	56		 push	 esi
  00001	8b f1		 mov	 esi, ecx

; 483  : 	Init();

  00003	e8 00 00 00 00	 call	 ?Init@CObject3D@@AAEXXZ	; CObject3D::Init

; 484  : }

  00008	8b c6		 mov	 eax, esi
  0000a	5e		 pop	 esi
  0000b	c3		 ret	 0
??0CObject3D@@QAE@XZ ENDP				; CObject3D::CObject3D
_TEXT	ENDS
; Function compile flags: /Ogtp
; File C:\IAGOS\server\v18\Source\Source\_Common\object3d.cpp
;	COMDAT ?SaveTMAni@CObject3D@@AAEHPAU_iobuf@@PAUGMOBJECT@@@Z
_TEXT	SEGMENT
_fp$ = 8						; size = 4
_pObject$ = 12						; size = 4
_bFrame$ = 12						; size = 4
?SaveTMAni@CObject3D@@AAEHPAU_iobuf@@PAUGMOBJECT@@@Z PROC ; CObject3D::SaveTMAni, COMDAT
; _this$ = ecx

; 1568 : {

  00000	55		 push	 ebp
  00001	8b ec		 mov	 ebp, esp
  00003	53		 push	 ebx
  00004	56		 push	 esi

; 1569 : 	int		bFrame;
; 1570 : 	if( pObject->m_pFrame )	bFrame = 1;

  00005	8b 75 0c	 mov	 esi, DWORD PTR _pObject$[ebp]

; 1571 : 	else					bFrame = 0;
; 1572 : 	fwrite( &bFrame, 4, 1, fp );

  00008	33 c0		 xor	 eax, eax
  0000a	ff 75 08	 push	 DWORD PTR _fp$[ebp]
  0000d	8b d9		 mov	 ebx, ecx
  0000f	6a 01		 push	 1
  00011	39 86 40 01 00
	00		 cmp	 DWORD PTR [esi+320], eax
  00017	6a 04		 push	 4
  00019	0f 95 c0	 setne	 al
  0001c	89 45 0c	 mov	 DWORD PTR _bFrame$[ebp], eax
  0001f	8d 45 0c	 lea	 eax, DWORD PTR _bFrame$[ebp]
  00022	50		 push	 eax
  00023	e8 00 00 00 00	 call	 _fwrite
  00028	83 c4 10	 add	 esp, 16			; 00000010H

; 1573 : 	if( bFrame == 0 )	return FAIL;	// 프레임 없으면 쓰지 않음.

  0002b	83 7d 0c 00	 cmp	 DWORD PTR _bFrame$[ebp], 0
  0002f	75 09		 jne	 SHORT $LN4@SaveTMAni
  00031	5e		 pop	 esi
  00032	83 c8 ff	 or	 eax, -1

; 1581 : }

  00035	5b		 pop	 ebx
  00036	5d		 pop	 ebp
  00037	c2 08 00	 ret	 8
$LN4@SaveTMAni:

; 1574 : 
; 1575 : 	if( m_nMaxFrame > 0 )

  0003a	8b 8b 1c 0c 00
	00		 mov	 ecx, DWORD PTR [ebx+3100]
  00040	85 c9		 test	 ecx, ecx
  00042	7e 20		 jle	 SHORT $LN5@SaveTMAni

; 1576 : 	{
; 1577 : 		fwrite( pObject->m_pFrame, sizeof(TM_ANIMATION) * m_nMaxFrame, 1, fp );

  00044	ff 75 08	 push	 DWORD PTR _fp$[ebp]
  00047	8d 04 cd 00 00
	00 00		 lea	 eax, DWORD PTR [ecx*8]
  0004e	2b c1		 sub	 eax, ecx
  00050	6a 01		 push	 1
  00052	c1 e0 02	 shl	 eax, 2
  00055	50		 push	 eax
  00056	ff b6 40 01 00
	00		 push	 DWORD PTR [esi+320]
  0005c	e8 00 00 00 00	 call	 _fwrite
  00061	83 c4 10	 add	 esp, 16			; 00000010H
$LN5@SaveTMAni:

; 1578 : 	}
; 1579 : 
; 1580 : 	return SUCCESS;

  00064	5e		 pop	 esi
  00065	b8 01 00 00 00	 mov	 eax, 1

; 1581 : }

  0006a	5b		 pop	 ebx
  0006b	5d		 pop	 ebp
  0006c	c2 08 00	 ret	 8
?SaveTMAni@CObject3D@@AAEHPAU_iobuf@@PAUGMOBJECT@@@Z ENDP ; CObject3D::SaveTMAni
_TEXT	ENDS
; Function compile flags: /Ogtp
; File C:\IAGOS\server\v18\Source\Source\_Common\object3d.cpp
;	COMDAT ?SaveGMObject@CObject3D@@AAEHPAU_iobuf@@PAUGMOBJECT@@@Z
_TEXT	SEGMENT
_fp$ = 8						; size = 4
_pObject$ = 12						; size = 4
?SaveGMObject@CObject3D@@AAEHPAU_iobuf@@PAUGMOBJECT@@@Z PROC ; CObject3D::SaveGMObject, COMDAT
; _this$ = ecx

; 1559 : 	return SUCCESS;

  00000	b8 01 00 00 00	 mov	 eax, 1

; 1560 : }

  00005	c2 08 00	 ret	 8
?SaveGMObject@CObject3D@@AAEHPAU_iobuf@@PAUGMOBJECT@@@Z ENDP ; CObject3D::SaveGMObject
_TEXT	ENDS
; Function compile flags: /Ogtp
; File C:\IAGOS\server\v18\Source\Source\_Common\object3d.cpp
;	COMDAT ?LoadTMAni@CObject3D@@AAEHPAVCFileIO@@PAUGMOBJECT@@@Z
_TEXT	SEGMENT
$T1 = -4						; size = 4
$T2 = -4						; size = 4
_file$ = 8						; size = 4
_bFrame$ = 8						; size = 4
_pObject$ = 12						; size = 4
?LoadTMAni@CObject3D@@AAEHPAVCFileIO@@PAUGMOBJECT@@@Z PROC ; CObject3D::LoadTMAni, COMDAT
; _this$ = ecx

; 1496 : {

  00000	55		 push	 ebp
  00001	8b ec		 mov	 ebp, esp
  00003	51		 push	 ecx
  00004	53		 push	 ebx

; 1497 : 	int	bFrame;
; 1498 : 	file->Read( &bFrame, 4, 1 );

  00005	8b 5d 08	 mov	 ebx, DWORD PTR _file$[ebp]
  00008	56		 push	 esi
  00009	6a 01		 push	 1
  0000b	8b f1		 mov	 esi, ecx
  0000d	8d 4d 08	 lea	 ecx, DWORD PTR _bFrame$[ebp]
  00010	8b 03		 mov	 eax, DWORD PTR [ebx]
  00012	6a 04		 push	 4
  00014	51		 push	 ecx
  00015	8b cb		 mov	 ecx, ebx
  00017	ff 50 2c	 call	 DWORD PTR [eax+44]

; 1499 : 	if( bFrame == 0 )	return FAIL;	// 프레임 없으면 읽지 않음.

  0001a	83 7d 08 00	 cmp	 DWORD PTR _bFrame$[ebp], 0
  0001e	75 0b		 jne	 SHORT $LN2@LoadTMAni
  00020	5e		 pop	 esi
  00021	83 c8 ff	 or	 eax, -1

; 1505 : } 

  00024	5b		 pop	 ebx
  00025	8b e5		 mov	 esp, ebp
  00027	5d		 pop	 ebp
  00028	c2 08 00	 ret	 8
$LN2@LoadTMAni:

; 1500 : 
; 1501 : 	pObject->m_pFrame = new TM_ANIMATION[ m_nMaxFrame ];

  0002b	8b 86 1c 0c 00
	00		 mov	 eax, DWORD PTR [esi+3100]
  00031	b9 1c 00 00 00	 mov	 ecx, 28			; 0000001cH
  00036	89 45 fc	 mov	 DWORD PTR $T1[ebp], eax
  00039	f7 e1		 mul	 ecx
  0003b	b9 ff ff ff ff	 mov	 ecx, -1
  00040	57		 push	 edi
  00041	0f 42 c1	 cmovb	 eax, ecx
  00044	50		 push	 eax
  00045	e8 00 00 00 00	 call	 ??_U@YAPAXI@Z		; operator new[]
  0004a	8b 55 0c	 mov	 edx, DWORD PTR _pObject$[ebp]
  0004d	83 c4 04	 add	 esp, 4

; 1502 : 	file->Read( pObject->m_pFrame, sizeof(TM_ANIMATION) * m_nMaxFrame, 1 );

  00050	8b cb		 mov	 ecx, ebx
  00052	89 45 fc	 mov	 DWORD PTR $T2[ebp], eax
  00055	89 82 40 01 00
	00		 mov	 DWORD PTR [edx+320], eax
  0005b	8b 96 1c 0c 00
	00		 mov	 edx, DWORD PTR [esi+3100]
  00061	8b 3b		 mov	 edi, DWORD PTR [ebx]
  00063	6a 01		 push	 1
  00065	8d 34 d5 00 00
	00 00		 lea	 esi, DWORD PTR [edx*8]
  0006c	2b f2		 sub	 esi, edx
  0006e	c1 e6 02	 shl	 esi, 2
  00071	56		 push	 esi
  00072	50		 push	 eax
  00073	ff 57 2c	 call	 DWORD PTR [edi+44]

; 1503 : 
; 1504 : 	return SUCCESS;

  00076	5f		 pop	 edi
  00077	5e		 pop	 esi
  00078	b8 01 00 00 00	 mov	 eax, 1

; 1505 : } 

  0007d	5b		 pop	 ebx
  0007e	8b e5		 mov	 esp, ebp
  00080	5d		 pop	 ebp
  00081	c2 08 00	 ret	 8
?LoadTMAni@CObject3D@@AAEHPAVCFileIO@@PAUGMOBJECT@@@Z ENDP ; CObject3D::LoadTMAni
_TEXT	ENDS
; Function compile flags: /Ogtp
; File C:\IAGOS\server\v18\Source\Source\_Common\object3d.cpp
;	COMDAT ?LoadGMObject@CObject3D@@AAEHPAVCFileIO@@PAUGMOBJECT@@@Z
_TEXT	SEGMENT
_bIsMaterial$ = -356					; size = 4
_dwTemp$ = -352						; size = 4
_nLen$ = -348						; size = 4
tv761 = -344						; size = 4
tv814 = -344						; size = 4
_this$GSCopy$1$ = -340					; size = 4
_pObject$GSCopy$1$ = -336				; size = 4
$T1 = -332						; size = 4
$T2 = -332						; size = 4
$T3 = -332						; size = 4
$T4 = -332						; size = 4
tv793 = -332						; size = 4
_mMaterial$ = -328					; size = 68
_szBitmap$ = -260					; size = 256
__$ArrayPad$ = -4					; size = 4
_file$ = 8						; size = 4
_pObject$ = 12						; size = 4
?LoadGMObject@CObject3D@@AAEHPAVCFileIO@@PAUGMOBJECT@@@Z PROC ; CObject3D::LoadGMObject, COMDAT
; _this$ = ecx

; 1268 : {

  00000	55		 push	 ebp
  00001	8b ec		 mov	 ebp, esp
  00003	81 ec 64 01 00
	00		 sub	 esp, 356		; 00000164H
  00009	a1 00 00 00 00	 mov	 eax, DWORD PTR ___security_cookie
  0000e	33 c5		 xor	 eax, ebp
  00010	89 45 fc	 mov	 DWORD PTR __$ArrayPad$[ebp], eax
  00013	53		 push	 ebx
  00014	8b 5d 0c	 mov	 ebx, DWORD PTR _pObject$[ebp]
  00017	56		 push	 esi
  00018	57		 push	 edi
  00019	8b 7d 08	 mov	 edi, DWORD PTR _file$[ebp]

; 1269 : 	DWORD	dwTemp;
; 1270 : 	int		i;
; 1271 : 	
; 1272 : 	file->Read( &pObject->m_vBBMin, sizeof(D3DXVECTOR3), 1 );

  0001c	6a 01		 push	 1
  0001e	6a 0c		 push	 12			; 0000000cH
  00020	8d 83 44 01 00
	00		 lea	 eax, DWORD PTR [ebx+324]
  00026	89 8d ac fe ff
	ff		 mov	 DWORD PTR _this$GSCopy$1$[ebp], ecx
  0002c	8b 17		 mov	 edx, DWORD PTR [edi]
  0002e	8b cf		 mov	 ecx, edi
  00030	50		 push	 eax
  00031	89 9d b0 fe ff
	ff		 mov	 DWORD PTR _pObject$GSCopy$1$[ebp], ebx
  00037	ff 52 2c	 call	 DWORD PTR [edx+44]

; 1273 : 	file->Read( &pObject->m_vBBMax, sizeof(D3DXVECTOR3), 1 );

  0003a	8b 17		 mov	 edx, DWORD PTR [edi]
  0003c	8d 83 50 01 00
	00		 lea	 eax, DWORD PTR [ebx+336]
  00042	6a 01		 push	 1
  00044	6a 0c		 push	 12			; 0000000cH
  00046	50		 push	 eax
  00047	8b cf		 mov	 ecx, edi
  00049	ff 52 2c	 call	 DWORD PTR [edx+44]

; 1274 : 	
; 1275 : 	file->Read( &pObject->m_bOpacity,    4, 1 );

  0004c	8b 17		 mov	 edx, DWORD PTR [edi]
  0004e	8d 83 84 00 00
	00		 lea	 eax, DWORD PTR [ebx+132]
  00054	6a 01		 push	 1
  00056	6a 04		 push	 4
  00058	50		 push	 eax
  00059	8b cf		 mov	 ecx, edi
  0005b	ff 52 2c	 call	 DWORD PTR [edx+44]

; 1276 : 	file->Read( &pObject->m_bBump, 4, 1 );

  0005e	8b 17		 mov	 edx, DWORD PTR [edi]
  00060	8d 83 88 00 00
	00		 lea	 eax, DWORD PTR [ebx+136]
  00066	6a 01		 push	 1
  00068	6a 04		 push	 4
  0006a	50		 push	 eax
  0006b	8b cf		 mov	 ecx, edi
  0006d	ff 52 2c	 call	 DWORD PTR [edx+44]

; 1277 : 	file->Read( &pObject->m_bRigid,		4, 1 );

  00070	8b 17		 mov	 edx, DWORD PTR [edi]
  00072	8d 83 8c 00 00
	00		 lea	 eax, DWORD PTR [ebx+140]
  00078	6a 01		 push	 1
  0007a	6a 04		 push	 4
  0007c	50		 push	 eax
  0007d	8b cf		 mov	 ecx, edi
  0007f	ff 52 2c	 call	 DWORD PTR [edx+44]

; 1278 : 	file->Seek( 28, SEEK_CUR );		// reserved

  00082	8b 07		 mov	 eax, DWORD PTR [edi]
  00084	8b cf		 mov	 ecx, edi
  00086	6a 01		 push	 1
  00088	6a 1c		 push	 28			; 0000001cH
  0008a	ff 50 20	 call	 DWORD PTR [eax+32]

; 1279 : 	
; 1280 : #ifdef __YENV_WITHOUT_BUMP
; 1281 : 	pObject->m_bBump = TRUE;
; 1282 : #endif //__YENV_WITHOUT_BUMP
; 1283 : 
; 1284 : 	// size of list
; 1285 : 	file->Read( &pObject->m_nMaxVertexList,	4, 1 );		// 버텍스 개수

  0008d	8b 07		 mov	 eax, DWORD PTR [edi]
  0008f	8d 8b 94 00 00
	00		 lea	 ecx, DWORD PTR [ebx+148]
  00095	6a 01		 push	 1
  00097	6a 04		 push	 4
  00099	51		 push	 ecx
  0009a	8b cf		 mov	 ecx, edi
  0009c	ff 50 2c	 call	 DWORD PTR [eax+44]

; 1286 : 	file->Read( &pObject->m_nMaxVB,			4, 1 );		// 버텍스 버퍼 크기

  0009f	8b 07		 mov	 eax, DWORD PTR [edi]
  000a1	8d 8b ac 0a 00
	00		 lea	 ecx, DWORD PTR [ebx+2732]
  000a7	6a 01		 push	 1
  000a9	6a 04		 push	 4
  000ab	51		 push	 ecx
  000ac	8b cf		 mov	 ecx, edi
  000ae	ff 50 2c	 call	 DWORD PTR [eax+44]

; 1287 : 	file->Read( &pObject->m_nMaxFaceList,	4, 1 );		// 페이스 개수

  000b1	8b 07		 mov	 eax, DWORD PTR [edi]
  000b3	8d b3 98 00 00
	00		 lea	 esi, DWORD PTR [ebx+152]
  000b9	6a 01		 push	 1
  000bb	6a 04		 push	 4
  000bd	56		 push	 esi
  000be	8b cf		 mov	 ecx, edi
  000c0	ff 50 2c	 call	 DWORD PTR [eax+44]

; 1288 : 	file->Read( &pObject->m_nMaxIB,		4, 1 );		// indexed 인덱스 버퍼개수

  000c3	8b 07		 mov	 eax, DWORD PTR [edi]
  000c5	8d 8b b0 0a 00
	00		 lea	 ecx, DWORD PTR [ebx+2736]
  000cb	6a 01		 push	 1
  000cd	6a 04		 push	 4
  000cf	51		 push	 ecx
  000d0	8b cf		 mov	 ecx, edi
  000d2	ff 50 2c	 call	 DWORD PTR [eax+44]

; 1289 : 
; 1290 : 	m_nMaxFace += pObject->m_nMaxFaceList;

  000d5	8b 8d ac fe ff
	ff		 mov	 ecx, DWORD PTR _this$GSCopy$1$[ebp]
  000db	8b 06		 mov	 eax, DWORD PTR [esi]
  000dd	01 81 0c 0c 00
	00		 add	 DWORD PTR [ecx+3084], eax

; 1291 : 
; 1292 : 	// 버텍스 리스트를 할당하고 버텍스개수만큼 통째로 읽음
; 1293 : 	// Vertex list
; 1294 : 	if( pObject->m_Type == GMT_SKIN )	// 이런 LoadObject()에서 이미 읽어서 온것이다.

  000e3	b9 0c 00 00 00	 mov	 ecx, 12			; 0000000cH
  000e8	8b 83 94 00 00
	00		 mov	 eax, DWORD PTR [ebx+148]
  000ee	89 85 b4 fe ff
	ff		 mov	 DWORD PTR $T1[ebp], eax
  000f4	83 3b 01	 cmp	 DWORD PTR [ebx], 1
  000f7	8d 71 f3	 lea	 esi, DWORD PTR [ecx-13]
  000fa	75 10		 jne	 SHORT $LN5@LoadGMObje

; 1295 : 	{
; 1296 : 		pObject->m_pVertexList	= new D3DXVECTOR3[ pObject->m_nMaxVertexList ];

  000fc	f7 e1		 mul	 ecx
  000fe	0f 42 c6	 cmovb	 eax, esi
  00101	50		 push	 eax
  00102	e8 00 00 00 00	 call	 ??_U@YAPAXI@Z		; operator new[]

; 1297 : 		SKINVERTEX *pVB			= new SKINVERTEX[ pObject->m_nMaxVB ];	// Indexed Vertex buffer -

  00107	8d 4e 2d	 lea	 ecx, DWORD PTR [esi+45]

; 1298 : 		pObject->m_pVB = pVB;
; 1299 : //		pObject->_pVB			= new SKINVERTEX[ pObject->m_nMaxVB ];
; 1300 : 	} else

  0010a	eb 10		 jmp	 SHORT $LN88@LoadGMObje
$LN5@LoadGMObje:

; 1301 : 	{
; 1302 : 		pObject->m_pVertexList	= new D3DXVECTOR3[ pObject->m_nMaxVertexList ];

  0010c	f7 e1		 mul	 ecx
  0010e	0f 42 c6	 cmovb	 eax, esi
  00111	50		 push	 eax
  00112	e8 00 00 00 00	 call	 ??_U@YAPAXI@Z		; operator new[]

; 1303 : 		NORMALVERTEX *pVB		= new NORMALVERTEX[ pObject->m_nMaxVB ];	// Indexed Vertex buffer

  00117	b9 20 00 00 00	 mov	 ecx, 32			; 00000020H
$LN88@LoadGMObje:

; 1304 : 
; 1305 : 		pObject->m_pVB = pVB;
; 1306 : 	}
; 1307 : 	pObject->m_pIB  = new WORD[ pObject->m_nMaxIB + pObject->m_nMaxVB ];		// m_pIIB도 WORD형을  쓰므로 같이 할당해서 씀.

  0011c	89 85 b4 fe ff
	ff		 mov	 DWORD PTR $T2[ebp], eax
  00122	89 83 30 01 00
	00		 mov	 DWORD PTR [ebx+304], eax
  00128	8b 83 ac 0a 00
	00		 mov	 eax, DWORD PTR [ebx+2732]
  0012e	89 85 b4 fe ff
	ff		 mov	 DWORD PTR $T3[ebp], eax
  00134	f7 e1		 mul	 ecx
  00136	0f 42 c6	 cmovb	 eax, esi
  00139	50		 push	 eax
  0013a	e8 00 00 00 00	 call	 ??_U@YAPAXI@Z		; operator new[]
  0013f	89 85 b4 fe ff
	ff		 mov	 DWORD PTR $T4[ebp], eax
  00145	b9 02 00 00 00	 mov	 ecx, 2
  0014a	89 83 a0 0a 00
	00		 mov	 DWORD PTR [ebx+2720], eax
  00150	83 c4 08	 add	 esp, 8
  00153	8b 83 ac 0a 00
	00		 mov	 eax, DWORD PTR [ebx+2732]
  00159	03 83 b0 0a 00
	00		 add	 eax, DWORD PTR [ebx+2736]
  0015f	f7 e1		 mul	 ecx
  00161	0f 42 c6	 cmovb	 eax, esi
  00164	50		 push	 eax
  00165	e8 00 00 00 00	 call	 ??_U@YAPAXI@Z		; operator new[]

; 1308 : 	pObject->m_pIIB = pObject->m_pIB + pObject->m_nMaxIB;

  0016a	8b 8b b0 0a 00
	00		 mov	 ecx, DWORD PTR [ebx+2736]
  00170	83 c4 04	 add	 esp, 4
  00173	89 83 a4 0a 00
	00		 mov	 DWORD PTR [ebx+2724], eax
  00179	8d 04 48	 lea	 eax, DWORD PTR [eax+ecx*2]

; 1309 : 
; 1310 : 	file->Read( pObject->m_pVertexList, sizeof(D3DXVECTOR3) * pObject->m_nMaxVertexList, 1 );

  0017c	8b cf		 mov	 ecx, edi
  0017e	89 83 a8 0a 00
	00		 mov	 DWORD PTR [ebx+2728], eax
  00184	8b 83 94 00 00
	00		 mov	 eax, DWORD PTR [ebx+148]
  0018a	8b 17		 mov	 edx, DWORD PTR [edi]
  0018c	6a 01		 push	 1
  0018e	8d 04 40	 lea	 eax, DWORD PTR [eax+eax*2]
  00191	c1 e0 02	 shl	 eax, 2
  00194	50		 push	 eax
  00195	ff b3 30 01 00
	00		 push	 DWORD PTR [ebx+304]
  0019b	ff 52 2c	 call	 DWORD PTR [edx+44]

; 1311 : 	if( pObject->m_Type == GMT_SKIN )

  0019e	83 3b 01	 cmp	 DWORD PTR [ebx], 1
  001a1	8b 07		 mov	 eax, DWORD PTR [edi]
  001a3	8b 8b ac 0a 00
	00		 mov	 ecx, DWORD PTR [ebx+2732]
  001a9	8b 93 a0 0a 00
	00		 mov	 edx, DWORD PTR [ebx+2720]
  001af	6a 01		 push	 1
  001b1	8b 40 2c	 mov	 eax, DWORD PTR [eax+44]
  001b4	89 85 a8 fe ff
	ff		 mov	 DWORD PTR tv814[ebp], eax
  001ba	75 0f		 jne	 SHORT $LN7@LoadGMObje

; 1312 : 		file->Read( pObject->m_pVB,  sizeof(SKINVERTEX) * pObject->m_nMaxVB, 1 );		// 버텍스 버퍼 읽음

  001bc	6b c1 2c	 imul	 eax, ecx, 44
  001bf	8b cf		 mov	 ecx, edi
  001c1	50		 push	 eax
  001c2	52		 push	 edx
  001c3	ff 95 a8 fe ff
	ff		 call	 DWORD PTR tv814[ebp]
  001c9	eb 09		 jmp	 SHORT $LN8@LoadGMObje
$LN7@LoadGMObje:

; 1313 : 	else
; 1314 : 		file->Read( pObject->m_pVB,  sizeof(NORMALVERTEX) * pObject->m_nMaxVB, 1 );		// 버텍스 버퍼 읽음

  001cb	c1 e1 05	 shl	 ecx, 5
  001ce	51		 push	 ecx
  001cf	52		 push	 edx
  001d0	8b cf		 mov	 ecx, edi
  001d2	ff d0		 call	 eax
$LN8@LoadGMObje:

; 1315 : 
; 1316 : 
; 1317 : 	file->Read( pObject->m_pIB,  sizeof(WORD) * pObject->m_nMaxIB, 1 );			// 인덱스 버퍼 읽음

  001d4	8b 83 b0 0a 00
	00		 mov	 eax, DWORD PTR [ebx+2736]
  001da	8b cf		 mov	 ecx, edi
  001dc	8b 17		 mov	 edx, DWORD PTR [edi]
  001de	03 c0		 add	 eax, eax
  001e0	6a 01		 push	 1
  001e2	50		 push	 eax
  001e3	ff b3 a4 0a 00
	00		 push	 DWORD PTR [ebx+2724]
  001e9	ff 52 2c	 call	 DWORD PTR [edx+44]

; 1318 : 	file->Read( pObject->m_pIIB, sizeof(WORD) * pObject->m_nMaxVB, 1 );

  001ec	8b 83 ac 0a 00
	00		 mov	 eax, DWORD PTR [ebx+2732]
  001f2	8b cf		 mov	 ecx, edi
  001f4	8b 17		 mov	 edx, DWORD PTR [edi]
  001f6	03 c0		 add	 eax, eax
  001f8	6a 01		 push	 1
  001fa	50		 push	 eax
  001fb	ff b3 a8 0a 00
	00		 push	 DWORD PTR [ebx+2728]
  00201	ff 52 2c	 call	 DWORD PTR [edx+44]

; 1319 : 
; 1320 : 	file->Read( &dwTemp, 4, 1 );			// 피지크가 있는가 없는가

  00204	8b 07		 mov	 eax, DWORD PTR [edi]
  00206	8d 8d a0 fe ff
	ff		 lea	 ecx, DWORD PTR _dwTemp$[ebp]
  0020c	6a 01		 push	 1
  0020e	6a 04		 push	 4
  00210	51		 push	 ecx
  00211	8b cf		 mov	 ecx, edi
  00213	ff 50 2c	 call	 DWORD PTR [eax+44]

; 1321 : 	if( dwTemp )

  00216	83 bd a0 fe ff
	ff 00		 cmp	 DWORD PTR _dwTemp$[ebp], 0
  0021d	b9 04 00 00 00	 mov	 ecx, 4
  00222	74 2e		 je	 SHORT $LN9@LoadGMObje

; 1322 : 	{
; 1323 : 		// Physique
; 1324 : 		pObject->m_pPhysiqueVertex = new int[ pObject->m_nMaxVertexList ];

  00224	8b 83 94 00 00
	00		 mov	 eax, DWORD PTR [ebx+148]
  0022a	f7 e1		 mul	 ecx
  0022c	0f 42 c6	 cmovb	 eax, esi
  0022f	50		 push	 eax
  00230	e8 00 00 00 00	 call	 ??_U@YAPAXI@Z		; operator new[]

; 1325 : 		file->Read( pObject->m_pPhysiqueVertex, sizeof(int) * pObject->m_nMaxVertexList, 1 );	// 버텍스개수와 같은 피지크데이타 읽음

  00235	8b 8b 94 00 00
	00		 mov	 ecx, DWORD PTR [ebx+148]
  0023b	83 c4 04	 add	 esp, 4
  0023e	c1 e1 02	 shl	 ecx, 2
  00241	89 83 34 01 00
	00		 mov	 DWORD PTR [ebx+308], eax
  00247	8b 17		 mov	 edx, DWORD PTR [edi]
  00249	6a 01		 push	 1
  0024b	51		 push	 ecx
  0024c	50		 push	 eax
  0024d	8b cf		 mov	 ecx, edi
  0024f	ff 52 2c	 call	 DWORD PTR [edx+44]
$LN9@LoadGMObje:

; 1326 : 
; 1327 : 		// m_pVB에는 world로 변환된 버텍스들이 들어가있게 되고
; 1328 : 		// _pVB에는 뼈대 기준 로컬로 들어있게 된다.
; 1329 : 		// 스키닝 오브젝트의 intersect등을 처리하려면 m_pVB를 써야 한다.
; 1330 : 	}
; 1331 : 
; 1332 : 
; 1333 : 	// Material
; 1334 : 	D3DMATERIAL9	mMaterial;
; 1335 : 	char			szBitmap[256];
; 1336 : 	int				nLen;
; 1337 : 	MATERIAL		*mMaterialAry[16];
; 1338 : //nt				nIdx = 0;
; 1339 : 	int				bIsMaterial;
; 1340 : 
; 1341 : 	file->Read( &bIsMaterial, 4, 1 );		// ASE의 Main MaxMaterial을 저장했다.  이게 0이면 매터리얼이 없다는 것.

  00252	8b 07		 mov	 eax, DWORD PTR [edi]
  00254	8d 8d 9c fe ff
	ff		 lea	 ecx, DWORD PTR _bIsMaterial$[ebp]
  0025a	6a 01		 push	 1
  0025c	6a 04		 push	 4
  0025e	51		 push	 ecx
  0025f	8b cf		 mov	 ecx, edi
  00261	ff 50 2c	 call	 DWORD PTR [eax+44]

; 1342 : 	pObject->m_bMaterial = bIsMaterial;				// 나중에 저장을 위해서 백업받아둔다.

  00264	8b 85 9c fe ff
	ff		 mov	 eax, DWORD PTR _bIsMaterial$[ebp]
  0026a	89 83 5c 01 00
	00		 mov	 DWORD PTR [ebx+348], eax

; 1343 : 	if( bIsMaterial )

  00270	85 c0		 test	 eax, eax
  00272	0f 84 63 01 00
	00		 je	 $LN3@LoadGMObje

; 1344 : 	{
; 1345 : 		memset( mMaterialAry, 0, sizeof(mMaterialAry) );
; 1346 : //		for( i = 0; i < 16; i ++ )	mMaterialAry[i] = NULL;
; 1347 : 		
; 1348 : 		file->Read( &pObject->m_nMaxMaterial, 4, 1 );				// 사용하는 매트리얼 개수 읽음

  00278	8b 07		 mov	 eax, DWORD PTR [edi]
  0027a	81 c3 a0 00 00
	00		 add	 ebx, 160		; 000000a0H
  00280	6a 01		 push	 1
  00282	6a 04		 push	 4
  00284	53		 push	 ebx
  00285	8b cf		 mov	 ecx, edi
  00287	89 9d b4 fe ff
	ff		 mov	 DWORD PTR tv793[ebp], ebx
  0028d	ff 50 2c	 call	 DWORD PTR [eax+44]

; 1349 : 
; 1350 : 		if( pObject->m_nMaxMaterial == 0 )	pObject->m_nMaxMaterial = 1;	// CASEMesh의 Save부분을 참고할것.

  00290	8b 03		 mov	 eax, DWORD PTR [ebx]
  00292	85 c0		 test	 eax, eax
  00294	75 0a		 jne	 SHORT $LN11@LoadGMObje
  00296	c7 03 01 00 00
	00		 mov	 DWORD PTR [ebx], 1
  0029c	33 db		 xor	 ebx, ebx
  0029e	eb 0a		 jmp	 SHORT $LN73@LoadGMObje
$LN11@LoadGMObje:

; 1351 : 
; 1352 : 		for( i = 0; i < pObject->m_nMaxMaterial; i ++ )

  002a0	33 db		 xor	 ebx, ebx
  002a2	85 c0		 test	 eax, eax
  002a4	0f 8e 2b 01 00
	00		 jle	 $LN75@LoadGMObje
$LN73@LoadGMObje:
  002aa	8b b5 b0 fe ff
	ff		 mov	 esi, DWORD PTR _pObject$GSCopy$1$[ebp]
  002b0	8d 8d fc fe ff
	ff		 lea	 ecx, DWORD PTR _szBitmap$[ebp]
  002b6	b8 48 00 00 00	 mov	 eax, 72			; 00000048H
  002bb	81 c6 60 01 00
	00		 add	 esi, 352		; 00000160H
  002c1	2b c1		 sub	 eax, ecx
  002c3	89 85 a8 fe ff
	ff		 mov	 DWORD PTR tv761[ebp], eax
  002c9	0f 1f 80 00 00
	00 00		 npad	 7
$LL4@LoadGMObje:

; 1353 : 		{
; 1354 : 			file->Read( &mMaterial, sizeof(D3DMATERIAL9), 1 );

  002d0	8b 07		 mov	 eax, DWORD PTR [edi]
  002d2	8d 8d b8 fe ff
	ff		 lea	 ecx, DWORD PTR _mMaterial$[ebp]
  002d8	6a 01		 push	 1
  002da	6a 44		 push	 68			; 00000044H
  002dc	51		 push	 ecx
  002dd	8b cf		 mov	 ecx, edi
  002df	ff 50 2c	 call	 DWORD PTR [eax+44]

; 1355 : 			file->Read( &nLen, 4, 1 );		// bitmap filename length;  null 포함

  002e2	8b 07		 mov	 eax, DWORD PTR [edi]
  002e4	8d 8d a4 fe ff
	ff		 lea	 ecx, DWORD PTR _nLen$[ebp]
  002ea	6a 01		 push	 1
  002ec	6a 04		 push	 4
  002ee	51		 push	 ecx
  002ef	8b cf		 mov	 ecx, edi
  002f1	ff 50 2c	 call	 DWORD PTR [eax+44]

; 1356 : 			if( nLen > sizeof(szBitmap) )		

  002f4	8b 8d a4 fe ff
	ff		 mov	 ecx, DWORD PTR _nLen$[ebp]
  002fa	81 f9 00 01 00
	00		 cmp	 ecx, 256		; 00000100H
  00300	76 20		 jbe	 SHORT $LN12@LoadGMObje

; 1357 : 				Error( "CObject3D::LoadGMObject : %s 텍스쳐 파일명이 너무길다 : 길이 = %d", m_szFileName, nLen );

  00302	8b 85 ac fe ff
	ff		 mov	 eax, DWORD PTR _this$GSCopy$1$[ebp]
  00308	51		 push	 ecx
  00309	05 c0 00 00 00	 add	 eax, 192		; 000000c0H
  0030e	50		 push	 eax
  0030f	68 00 00 00 00	 push	 OFFSET ??_C@_0EC@CMDBPBHJ@CObject3D?3?3LoadGMObject?5?3?5?$CFs?5?E?X@
  00314	e8 00 00 00 00	 call	 ?Error@@YAPBDPBDZZ	; Error
  00319	8b 8d a4 fe ff
	ff		 mov	 ecx, DWORD PTR _nLen$[ebp]
  0031f	83 c4 0c	 add	 esp, 12			; 0000000cH
$LN12@LoadGMObje:

; 1358 : 			file->Read( szBitmap, nLen, 1 );

  00322	8b 07		 mov	 eax, DWORD PTR [edi]
  00324	6a 01		 push	 1
  00326	51		 push	 ecx
  00327	8d 8d fc fe ff
	ff		 lea	 ecx, DWORD PTR _szBitmap$[ebp]
  0032d	51		 push	 ecx
  0032e	8b cf		 mov	 ecx, edi
  00330	ff 50 2c	 call	 DWORD PTR [eax+44]

; 1359 : 			strlwr( szBitmap );		// 소문자로 변환

  00333	8d 85 fc fe ff
	ff		 lea	 eax, DWORD PTR _szBitmap$[ebp]
  00339	50		 push	 eax
  0033a	e8 00 00 00 00	 call	 _strlwr

; 1360 : 			
; 1361 : 			pObject->m_MaterialAry[i].m_Material = mMaterial;

  0033f	0f 10 85 b8 fe
	ff ff		 movups	 xmm0, XMMWORD PTR _mMaterial$[ebp]
  00346	8b 85 f8 fe ff
	ff		 mov	 eax, DWORD PTR _mMaterial$[ebp+64]

; 1362 : 
; 1363 : 			if( strlen(szBitmap)+1 > sizeof(pObject->m_MaterialAry[i].strBitMapFileName) )

  0034c	8d 8d fc fe ff
	ff		 lea	 ecx, DWORD PTR _szBitmap$[ebp]
  00352	83 c4 04	 add	 esp, 4
  00355	8d 51 01	 lea	 edx, DWORD PTR [ecx+1]
  00358	0f 11 06	 movups	 XMMWORD PTR [esi], xmm0
  0035b	0f 10 85 c8 fe
	ff ff		 movups	 xmm0, XMMWORD PTR _mMaterial$[ebp+16]
  00362	0f 11 46 10	 movups	 XMMWORD PTR [esi+16], xmm0
  00366	0f 10 85 d8 fe
	ff ff		 movups	 xmm0, XMMWORD PTR _mMaterial$[ebp+32]
  0036d	0f 11 46 20	 movups	 XMMWORD PTR [esi+32], xmm0
  00371	0f 10 85 e8 fe
	ff ff		 movups	 xmm0, XMMWORD PTR _mMaterial$[ebp+48]
  00378	0f 11 46 30	 movups	 XMMWORD PTR [esi+48], xmm0
  0037c	89 46 40	 mov	 DWORD PTR [esi+64], eax
  0037f	90		 npad	 1
$LL74@LoadGMObje:
  00380	8a 01		 mov	 al, BYTE PTR [ecx]
  00382	41		 inc	 ecx
  00383	84 c0		 test	 al, al
  00385	75 f9		 jne	 SHORT $LL74@LoadGMObje
  00387	2b ca		 sub	 ecx, edx
  00389	8d 41 01	 lea	 eax, DWORD PTR [ecx+1]
  0038c	83 f8 40	 cmp	 eax, 64			; 00000040H
  0038f	76 14		 jbe	 SHORT $LN13@LoadGMObje

; 1364 : 				Error( "CObject3D::LoadGeoMesh() : %s의 길이가 너무 길다", szBitmap );

  00391	8d 85 fc fe ff
	ff		 lea	 eax, DWORD PTR _szBitmap$[ebp]
  00397	50		 push	 eax
  00398	68 00 00 00 00	 push	 OFFSET ??_C@_0DB@PHDAAFJC@CObject3D?3?3LoadGeoMesh?$CI?$CJ?5?3?5?$CFs?$MA?G@
  0039d	e8 00 00 00 00	 call	 ?Error@@YAPBDPBDZZ	; Error
  003a2	83 c4 08	 add	 esp, 8
$LN13@LoadGMObje:

; 1365 : 
; 1366 : 			strcpy( pObject->m_MaterialAry[i].strBitMapFileName, szBitmap );

  003a5	8b 95 a8 fe ff
	ff		 mov	 edx, DWORD PTR tv761[ebp]
  003ab	8d 85 fc fe ff
	ff		 lea	 eax, DWORD PTR _szBitmap$[ebp]
  003b1	03 d6		 add	 edx, esi
$LL25@LoadGMObje:
  003b3	8a 08		 mov	 cl, BYTE PTR [eax]
  003b5	8d 40 01	 lea	 eax, DWORD PTR [eax+1]
  003b8	88 4c 02 ff	 mov	 BYTE PTR [edx+eax-1], cl
  003bc	84 c9		 test	 cl, cl
  003be	75 f3		 jne	 SHORT $LL25@LoadGMObje

; 1351 : 
; 1352 : 		for( i = 0; i < pObject->m_nMaxMaterial; i ++ )

  003c0	8b 85 b4 fe ff
	ff		 mov	 eax, DWORD PTR tv793[ebp]
  003c6	43		 inc	 ebx
  003c7	81 c6 94 00 00
	00		 add	 esi, 148		; 00000094H
  003cd	3b 18		 cmp	 ebx, DWORD PTR [eax]
  003cf	0f 8c fb fe ff
	ff		 jl	 $LL4@LoadGMObje
$LN75@LoadGMObje:

; 1367 : 		#if	!defined(__WORLDSERVER)
; 1368 : 			if( IsEmpty(szBitmap) == FALSE )
; 1369 : 				mMaterialAry[i] = g_TextureMng.AddMaterial( m_pd3dDevice, &mMaterial, szBitmap );
; 1370 : 		#endif
; 1371 : 		}
; 1372 : 	}
; 1373 : 
; 1374 : 	// vertex buffer Material block
; 1375 : 	file->Read( &pObject->m_nMaxMtrlBlk, 4, 1 );

  003d5	8b 9d b0 fe ff
	ff		 mov	 ebx, DWORD PTR _pObject$GSCopy$1$[ebp]
$LN3@LoadGMObje:
  003db	8b 07		 mov	 eax, DWORD PTR [edi]
  003dd	8d b3 9c 00 00
	00		 lea	 esi, DWORD PTR [ebx+156]
  003e3	6a 01		 push	 1
  003e5	6a 04		 push	 4
  003e7	56		 push	 esi
  003e8	8b cf		 mov	 ecx, edi
  003ea	ff 50 2c	 call	 DWORD PTR [eax+44]

; 1376 : 
; 1377 : 	if( pObject->m_nMaxMtrlBlk >= 32 )

  003ed	8b 06		 mov	 eax, DWORD PTR [esi]
  003ef	83 f8 20	 cmp	 eax, 32			; 00000020H
  003f2	7c 30		 jl	 SHORT $LN14@LoadGMObje

; 1378 : 	{
; 1379 : 		Error( "매터리얼 갯수가 32개를 넘었다. %s", m_szFileName );

  003f4	8b 8d ac fe ff
	ff		 mov	 ecx, DWORD PTR _this$GSCopy$1$[ebp]
  003fa	81 c1 c0 00 00
	00		 add	 ecx, 192		; 000000c0H
  00400	51		 push	 ecx
  00401	68 00 00 00 00	 push	 OFFSET ??_C@_0CC@OPJGNFFN@?$LI?E?E?M?$LI?$KO?$LO?s?5?$LA?$LJ?$LM?v?$LA?$KB?532?$LA?$LD?$LI?$KG?5?$LD?Q?$LO?z?$LE?Y?4?5@
  00406	e8 00 00 00 00	 call	 ?Error@@YAPBDPBDZZ	; Error
  0040b	83 c4 08	 add	 esp, 8

; 1380 : 		return FAIL;

  0040e	83 c8 ff	 or	 eax, -1
  00411	5f		 pop	 edi

; 1389 : #ifndef __WORLDSERVER
; 1390 : 
; 1391 : #ifdef __YENV
; 1392 : 		if( g_Option.m_bSpecBump )
; 1393 : 		{
; 1394 : 			// 노말맵	
; 1395 : 			pObject->m_pNormalTexture = new LPDIRECT3DTEXTURE9[ pObject->m_nMaxMtrlBlk ];
; 1396 : 			memset( pObject->m_pNormalTexture, 0, sizeof(LPDIRECT3DTEXTURE9) * (pObject->m_nMaxMtrlBlk) );
; 1397 : 
; 1398 : 			// 노스팩큘러맵	
; 1399 : 			pObject->m_pNoSpecTexture = new LPDIRECT3DTEXTURE9[ pObject->m_nMaxMtrlBlk ];
; 1400 : 			memset( pObject->m_pNoSpecTexture, 0, sizeof(LPDIRECT3DTEXTURE9) * (pObject->m_nMaxMtrlBlk) );
; 1401 : 		}
; 1402 : #endif //__YENV
; 1403 : 		
; 1404 : 		
; 1405 : 		for( i = 0; i < pObject->m_nMaxMtrlBlk; i ++ )
; 1406 : 		{
; 1407 : 			if( bIsMaterial )
; 1408 : 			{
; 1409 : 				if( mMaterialAry[ pObject->m_pMtrlBlk[i].m_nTextureID ] )
; 1410 : 				{
; 1411 : 					pObject->m_pMtrlBlkTexture[i] = mMaterialAry[ pObject->m_pMtrlBlk[i].m_nTextureID ]->m_pTexture;
; 1412 : 						
; 1413 : 			#ifdef __YENV
; 1414 : 				#ifdef __YENV_WITHOUT_BUMP
; 1415 : 					if( g_Option.m_bSpecBump )
; 1416 : 				#else //__YENV_WITHOUT_BUMP
; 1417 : 					if( pObject->m_pMtrlBlk[i].m_dwEffect & XE_BUMP && g_Option.m_bSpecBump )
; 1418 : 				#endif //__YENV_WITHOUT_BUMP
; 1419 : 					{
; 1420 : 						char	szTexture[MAX_PATH], szFileExt[MAX_PATH];
; 1421 : 						char*	strFileName = mMaterialAry[ pObject->m_pMtrlBlk[i].m_nTextureID ]->strBitMapFileName;
; 1422 : 
; 1423 : 						::GetFileTitle( strFileName, szTexture );
; 1424 : 						lstrcat( szTexture, "-n." );
; 1425 : 						::GetFileExt( strFileName, szFileExt );
; 1426 : 						lstrcat( szTexture, szFileExt );
; 1427 : 							
; 1428 : 						if( IsEmpty(szTexture) == FALSE )
; 1429 : 						{
; 1430 : 							 CreateNormalMap( pObject->m_Type, m_pd3dDevice, &(pObject->m_pNormalTexture[i]), szTexture );
; 1431 : 						}
; 1432 : 					}
; 1433 : 
; 1434 : 				#ifdef __YENV_WITHOUT_BUMP
; 1435 : 					if( g_Option.m_bSpecBump )
; 1436 : 				#else //__YENV_WITHOUT_BUMP
; 1437 : 					// 노스팩큘러맵
; 1438 : 					if( pObject->m_pMtrlBlk[i].m_dwEffect & XE_BUMP && g_Option.m_bSpecBump )
; 1439 : 				#endif //__YENV_WITHOUT_BUMP
; 1440 : 					{
; 1441 : 						char	szTexture[MAX_PATH], szFileExt[MAX_PATH];
; 1442 : 						char*	strFileName		= mMaterialAry[ pObject->m_pMtrlBlk[i].m_nTextureID ]->strBitMapFileName;
; 1443 : 						
; 1444 : 						::GetFileTitle( strFileName, szTexture );
; 1445 : 						lstrcat( szTexture, "-s." );
; 1446 : 						::GetFileExt( strFileName, szFileExt );
; 1447 : 						lstrcat( szTexture, szFileExt );
; 1448 : 	
; 1449 : 						if( IsEmpty(szTexture) == FALSE )
; 1450 : 						{
; 1451 : 					#ifdef _DEBUG
; 1452 : 							if( (_access( MakePath( DIR_MODELTEX, szTexture ), 0 )) != -1 )
; 1453 : 								LoadTextureFromRes( m_pd3dDevice, MakePath( DIR_MODELTEX, szTexture ), &(pObject->m_pNoSpecTexture[i] ) );
; 1454 : 					#else //_DEBUG
; 1455 : 							char szSerchPath[MAX_PATH];
; 1456 : 							GetCurrentDirectory( sizeof( szSerchPath ), szSerchPath );
; 1457 : 							TCHAR drive[_MAX_DRIVE], dir[_MAX_DIR], name[ _MAX_FNAME ], ext[_MAX_EXT];
; 1458 : 							_splitpath( szTexture, drive, dir, name, ext );
; 1459 : 							
; 1460 : 							TCHAR szFileName[ _MAX_PATH ];
; 1461 : 							RESOURCE* lpRes;
; 1462 : 							strcpy( szFileName, MakePath( DIR_MODELTEX, szTexture ) );
; 1463 : 							strlwr( szFileName );
; 1464 : 							
; 1465 : 							if( CResFile::m_mapResource.Lookup( szFileName, (void*&) lpRes ) )
; 1466 : 							{								
; 1467 : 								LoadTextureFromRes( m_pd3dDevice, MakePath( DIR_MODELTEX, szTexture ), &(pObject->m_pNoSpecTexture[i] ) );
; 1468 : 							}							
; 1469 : 					#endif //_DEBUG
; 1470 : 						}
; 1471 : 					}
; 1472 : 					
; 1473 : 			#endif //__YENV
; 1474 : 				}
; 1475 : //				if( (pObject->m_pMtrlBlk[i].m_nReflect & 0xfffffffe) == 0 )	// 마지막 1비트를 뺀 나머지에 아무값도 없으면 옛날버전일 가능성이있다.
; 1476 : //				{
; 1477 : //					// 이럴땐 컨버트.
; 1478 : //					if( pObject->m_pMtrlBlk[i].m_n2Side )			pObject->m_pMtrlBlk[i].m_nReflect |= XE_2SIDE;
; 1479 : //					if( pObject->m_pMtrlBlk[i].m_nOpacity )			pObject->m_pMtrlBlk[i].m_nReflect |= XE_OPACITY;
; 1480 : //					// XE_REFLECT는 m_nReflect에 값이 들어있는 상태이므로 따로 넣어줄필요 없다.
; 1481 : //				}
; 1482 : 
; 1483 : 
; 1484 : 			}
; 1485 : 		}
; 1486 : #endif	// __WORLDSERVER
; 1487 : 	}
; 1488 : 
; 1489 : 	return SUCCESS;
; 1490 : }

  00412	5e		 pop	 esi
  00413	5b		 pop	 ebx
  00414	8b 4d fc	 mov	 ecx, DWORD PTR __$ArrayPad$[ebp]
  00417	33 cd		 xor	 ecx, ebp
  00419	e8 00 00 00 00	 call	 @__security_check_cookie@4
  0041e	8b e5		 mov	 esp, ebp
  00420	5d		 pop	 ebp
  00421	c2 08 00	 ret	 8
$LN14@LoadGMObje:

; 1381 : 	}
; 1382 : 	if( pObject->m_nMaxMtrlBlk > 0 )

  00424	85 c0		 test	 eax, eax
  00426	7e 62		 jle	 SHORT $LN15@LoadGMObje

; 1383 : 	{
; 1384 : 		pObject->m_pMtrlBlk = new MATERIAL_BLOCK[ pObject->m_nMaxMtrlBlk ];		// 매터리얼 블럭을 할당하고 읽음

  00428	b9 88 00 00 00	 mov	 ecx, 136		; 00000088H
  0042d	f7 e1		 mul	 ecx
  0042f	b9 ff ff ff ff	 mov	 ecx, -1
  00434	0f 42 c1	 cmovb	 eax, ecx
  00437	50		 push	 eax
  00438	e8 00 00 00 00	 call	 ??_U@YAPAXI@Z		; operator new[]
  0043d	89 83 38 01 00
	00		 mov	 DWORD PTR [ebx+312], eax

; 1385 : 		pObject->m_pMtrlBlkTexture = new LPDIRECT3DTEXTURE9[ pObject->m_nMaxMtrlBlk * 8 ];	// 확장텍스쳐(최대8개)랑 같이 쓴다. 없으면 걍 널이다.

  00443	b9 04 00 00 00	 mov	 ecx, 4
  00448	8b 06		 mov	 eax, DWORD PTR [esi]
  0044a	c1 e0 03	 shl	 eax, 3
  0044d	f7 e1		 mul	 ecx
  0044f	b9 ff ff ff ff	 mov	 ecx, -1
  00454	0f 42 c1	 cmovb	 eax, ecx
  00457	50		 push	 eax
  00458	e8 00 00 00 00	 call	 ??_U@YAPAXI@Z		; operator new[]

; 1386 : 		memset( pObject->m_pMtrlBlkTexture, 0, sizeof(LPDIRECT3DTEXTURE9) * (pObject->m_nMaxMtrlBlk * 8) );

  0045d	8b 0e		 mov	 ecx, DWORD PTR [esi]
  0045f	c1 e1 05	 shl	 ecx, 5
  00462	51		 push	 ecx
  00463	6a 00		 push	 0
  00465	50		 push	 eax
  00466	89 83 3c 01 00
	00		 mov	 DWORD PTR [ebx+316], eax
  0046c	e8 00 00 00 00	 call	 _memset

; 1387 : 
; 1388 : 		file->Read( pObject->m_pMtrlBlk, sizeof(MATERIAL_BLOCK) * pObject->m_nMaxMtrlBlk, 1 );

  00471	69 06 88 00 00
	00		 imul	 eax, DWORD PTR [esi], 136
  00477	83 c4 14	 add	 esp, 20			; 00000014H
  0047a	8b 17		 mov	 edx, DWORD PTR [edi]
  0047c	8b cf		 mov	 ecx, edi
  0047e	6a 01		 push	 1
  00480	50		 push	 eax
  00481	ff b3 38 01 00
	00		 push	 DWORD PTR [ebx+312]
  00487	ff 52 2c	 call	 DWORD PTR [edx+44]
$LN15@LoadGMObje:

; 1389 : #ifndef __WORLDSERVER
; 1390 : 
; 1391 : #ifdef __YENV
; 1392 : 		if( g_Option.m_bSpecBump )
; 1393 : 		{
; 1394 : 			// 노말맵	
; 1395 : 			pObject->m_pNormalTexture = new LPDIRECT3DTEXTURE9[ pObject->m_nMaxMtrlBlk ];
; 1396 : 			memset( pObject->m_pNormalTexture, 0, sizeof(LPDIRECT3DTEXTURE9) * (pObject->m_nMaxMtrlBlk) );
; 1397 : 
; 1398 : 			// 노스팩큘러맵	
; 1399 : 			pObject->m_pNoSpecTexture = new LPDIRECT3DTEXTURE9[ pObject->m_nMaxMtrlBlk ];
; 1400 : 			memset( pObject->m_pNoSpecTexture, 0, sizeof(LPDIRECT3DTEXTURE9) * (pObject->m_nMaxMtrlBlk) );
; 1401 : 		}
; 1402 : #endif //__YENV
; 1403 : 		
; 1404 : 		
; 1405 : 		for( i = 0; i < pObject->m_nMaxMtrlBlk; i ++ )
; 1406 : 		{
; 1407 : 			if( bIsMaterial )
; 1408 : 			{
; 1409 : 				if( mMaterialAry[ pObject->m_pMtrlBlk[i].m_nTextureID ] )
; 1410 : 				{
; 1411 : 					pObject->m_pMtrlBlkTexture[i] = mMaterialAry[ pObject->m_pMtrlBlk[i].m_nTextureID ]->m_pTexture;
; 1412 : 						
; 1413 : 			#ifdef __YENV
; 1414 : 				#ifdef __YENV_WITHOUT_BUMP
; 1415 : 					if( g_Option.m_bSpecBump )
; 1416 : 				#else //__YENV_WITHOUT_BUMP
; 1417 : 					if( pObject->m_pMtrlBlk[i].m_dwEffect & XE_BUMP && g_Option.m_bSpecBump )
; 1418 : 				#endif //__YENV_WITHOUT_BUMP
; 1419 : 					{
; 1420 : 						char	szTexture[MAX_PATH], szFileExt[MAX_PATH];
; 1421 : 						char*	strFileName = mMaterialAry[ pObject->m_pMtrlBlk[i].m_nTextureID ]->strBitMapFileName;
; 1422 : 
; 1423 : 						::GetFileTitle( strFileName, szTexture );
; 1424 : 						lstrcat( szTexture, "-n." );
; 1425 : 						::GetFileExt( strFileName, szFileExt );
; 1426 : 						lstrcat( szTexture, szFileExt );
; 1427 : 							
; 1428 : 						if( IsEmpty(szTexture) == FALSE )
; 1429 : 						{
; 1430 : 							 CreateNormalMap( pObject->m_Type, m_pd3dDevice, &(pObject->m_pNormalTexture[i]), szTexture );
; 1431 : 						}
; 1432 : 					}
; 1433 : 
; 1434 : 				#ifdef __YENV_WITHOUT_BUMP
; 1435 : 					if( g_Option.m_bSpecBump )
; 1436 : 				#else //__YENV_WITHOUT_BUMP
; 1437 : 					// 노스팩큘러맵
; 1438 : 					if( pObject->m_pMtrlBlk[i].m_dwEffect & XE_BUMP && g_Option.m_bSpecBump )
; 1439 : 				#endif //__YENV_WITHOUT_BUMP
; 1440 : 					{
; 1441 : 						char	szTexture[MAX_PATH], szFileExt[MAX_PATH];
; 1442 : 						char*	strFileName		= mMaterialAry[ pObject->m_pMtrlBlk[i].m_nTextureID ]->strBitMapFileName;
; 1443 : 						
; 1444 : 						::GetFileTitle( strFileName, szTexture );
; 1445 : 						lstrcat( szTexture, "-s." );
; 1446 : 						::GetFileExt( strFileName, szFileExt );
; 1447 : 						lstrcat( szTexture, szFileExt );
; 1448 : 	
; 1449 : 						if( IsEmpty(szTexture) == FALSE )
; 1450 : 						{
; 1451 : 					#ifdef _DEBUG
; 1452 : 							if( (_access( MakePath( DIR_MODELTEX, szTexture ), 0 )) != -1 )
; 1453 : 								LoadTextureFromRes( m_pd3dDevice, MakePath( DIR_MODELTEX, szTexture ), &(pObject->m_pNoSpecTexture[i] ) );
; 1454 : 					#else //_DEBUG
; 1455 : 							char szSerchPath[MAX_PATH];
; 1456 : 							GetCurrentDirectory( sizeof( szSerchPath ), szSerchPath );
; 1457 : 							TCHAR drive[_MAX_DRIVE], dir[_MAX_DIR], name[ _MAX_FNAME ], ext[_MAX_EXT];
; 1458 : 							_splitpath( szTexture, drive, dir, name, ext );
; 1459 : 							
; 1460 : 							TCHAR szFileName[ _MAX_PATH ];
; 1461 : 							RESOURCE* lpRes;
; 1462 : 							strcpy( szFileName, MakePath( DIR_MODELTEX, szTexture ) );
; 1463 : 							strlwr( szFileName );
; 1464 : 							
; 1465 : 							if( CResFile::m_mapResource.Lookup( szFileName, (void*&) lpRes ) )
; 1466 : 							{								
; 1467 : 								LoadTextureFromRes( m_pd3dDevice, MakePath( DIR_MODELTEX, szTexture ), &(pObject->m_pNoSpecTexture[i] ) );
; 1468 : 							}							
; 1469 : 					#endif //_DEBUG
; 1470 : 						}
; 1471 : 					}
; 1472 : 					
; 1473 : 			#endif //__YENV
; 1474 : 				}
; 1475 : //				if( (pObject->m_pMtrlBlk[i].m_nReflect & 0xfffffffe) == 0 )	// 마지막 1비트를 뺀 나머지에 아무값도 없으면 옛날버전일 가능성이있다.
; 1476 : //				{
; 1477 : //					// 이럴땐 컨버트.
; 1478 : //					if( pObject->m_pMtrlBlk[i].m_n2Side )			pObject->m_pMtrlBlk[i].m_nReflect |= XE_2SIDE;
; 1479 : //					if( pObject->m_pMtrlBlk[i].m_nOpacity )			pObject->m_pMtrlBlk[i].m_nReflect |= XE_OPACITY;
; 1480 : //					// XE_REFLECT는 m_nReflect에 값이 들어있는 상태이므로 따로 넣어줄필요 없다.
; 1481 : //				}
; 1482 : 
; 1483 : 
; 1484 : 			}
; 1485 : 		}
; 1486 : #endif	// __WORLDSERVER
; 1487 : 	}
; 1488 : 
; 1489 : 	return SUCCESS;
; 1490 : }

  0048a	8b 4d fc	 mov	 ecx, DWORD PTR __$ArrayPad$[ebp]
  0048d	b8 01 00 00 00	 mov	 eax, 1
  00492	5f		 pop	 edi
  00493	5e		 pop	 esi
  00494	33 cd		 xor	 ecx, ebp
  00496	5b		 pop	 ebx
  00497	e8 00 00 00 00	 call	 @__security_check_cookie@4
  0049c	8b e5		 mov	 esp, ebp
  0049e	5d		 pop	 ebp
  0049f	c2 08 00	 ret	 8
?LoadGMObject@CObject3D@@AAEHPAVCFileIO@@PAUGMOBJECT@@@Z ENDP ; CObject3D::LoadGMObject
_TEXT	ENDS
; Function compile flags: /Ogtp
; File C:\IAGOS\server\v18\Source\Source\_Common\object3d.cpp
;	COMDAT ?Destroy@CObject3D@@AAEXXZ
_TEXT	SEGMENT
_this$1$ = -12						; size = 4
tv1119 = -8						; size = 4
tv1049 = -4						; size = 4
?Destroy@CObject3D@@AAEXXZ PROC				; CObject3D::Destroy, COMDAT
; _this$ = ecx

; 548  : {

  00000	55		 push	 ebp
  00001	8b ec		 mov	 ebp, esp
  00003	83 ec 0c	 sub	 esp, 12			; 0000000cH
  00006	53		 push	 ebx
  00007	8b d9		 mov	 ebx, ecx
  00009	56		 push	 esi
  0000a	89 5d f4	 mov	 DWORD PTR _this$1$[ebp], ebx

; 549  : 	int		i, j, k;
; 550  : 
; 551  : 	for( j = 0; j < MAX_GROUP; j ++ )

  0000d	57		 push	 edi
  0000e	8d 43 04	 lea	 eax, DWORD PTR [ebx+4]
  00011	89 45 f8	 mov	 DWORD PTR tv1119[ebp], eax
  00014	b8 03 00 00 00	 mov	 eax, 3
  00019	8b 5d f8	 mov	 ebx, DWORD PTR tv1119[ebp]
  0001c	89 45 fc	 mov	 DWORD PTR tv1049[ebp], eax
  0001f	90		 npad	 1
$LL4@Destroy:

; 552  : 	{
; 553  : 		GMOBJECT *pObject = m_Group[j].m_pObject;

  00020	8b 73 04	 mov	 esi, DWORD PTR [ebx+4]

; 554  : 		for( i = 0; i < m_Group[j].m_nMaxObject; i ++ )

  00023	33 ff		 xor	 edi, edi
  00025	39 3b		 cmp	 DWORD PTR [ebx], edi
  00027	0f 8e cd 00 00
	00		 jle	 $LN2@Destroy

; 552  : 	{
; 553  : 		GMOBJECT *pObject = m_Group[j].m_pObject;

  0002d	81 c6 34 01 00
	00		 add	 esi, 308		; 00000134H
$LL7@Destroy:

; 555  : 		{
; 556  : 			SAFE_DELETE_ARRAY( pObject[i].m_pVertexList );

  00033	8b 46 fc	 mov	 eax, DWORD PTR [esi-4]
  00036	85 c0		 test	 eax, eax
  00038	74 10		 je	 SHORT $LN11@Destroy
  0003a	50		 push	 eax
  0003b	e8 00 00 00 00	 call	 ??_V@YAXPAX@Z		; operator delete[]
  00040	83 c4 04	 add	 esp, 4
  00043	c7 46 fc 00 00
	00 00		 mov	 DWORD PTR [esi-4], 0
$LN11@Destroy:

; 557  : 			SAFE_DELETE_ARRAY( pObject[i].m_pPhysiqueVertex );

  0004a	8b 06		 mov	 eax, DWORD PTR [esi]
  0004c	85 c0		 test	 eax, eax
  0004e	74 0f		 je	 SHORT $LN10@Destroy
  00050	50		 push	 eax
  00051	e8 00 00 00 00	 call	 ??_V@YAXPAX@Z		; operator delete[]
  00056	83 c4 04	 add	 esp, 4
  00059	c7 06 00 00 00
	00		 mov	 DWORD PTR [esi], 0
$LN10@Destroy:

; 558  : 			for( k = 0; k < pObject[i].m_nMaxMtrlBlk; k ++ )
; 559  : 			{
; 560  : 			#if !defined(__WORLDSERVER) 
; 561  : 				g_TextureMng.DeleteMaterial( pObject[i].m_pMtrlBlkTexture[k] );	// 사용하던 텍스쳐는 삭제한다. 공유하는것이면 삭제 안함.
; 562  : 			#endif // !__WORLDSERVER
; 563  : 
; 564  : #ifdef __YENV
; 565  : 				if( g_Option.m_bSpecBump )
; 566  : 				{
; 567  : 					SAFE_RELEASE( pObject[i].m_pNormalTexture[k] );
; 568  : 					SAFE_RELEASE( pObject[i].m_pNoSpecTexture[k] );
; 569  : 				}
; 570  : #endif //__YENV
; 571  : 			}
; 572  : 			SAFE_DELETE_ARRAY( pObject[i].m_pMtrlBlk );

  0005f	8b 46 04	 mov	 eax, DWORD PTR [esi+4]
  00062	85 c0		 test	 eax, eax
  00064	74 10		 je	 SHORT $LN13@Destroy
  00066	50		 push	 eax
  00067	e8 00 00 00 00	 call	 ??_V@YAXPAX@Z		; operator delete[]
  0006c	83 c4 04	 add	 esp, 4
  0006f	c7 46 04 00 00
	00 00		 mov	 DWORD PTR [esi+4], 0
$LN13@Destroy:

; 573  : 			SAFE_DELETE_ARRAY( pObject[i].m_pMtrlBlkTexture );

  00076	8b 46 08	 mov	 eax, DWORD PTR [esi+8]
  00079	85 c0		 test	 eax, eax
  0007b	74 10		 je	 SHORT $LN14@Destroy
  0007d	50		 push	 eax
  0007e	e8 00 00 00 00	 call	 ??_V@YAXPAX@Z		; operator delete[]
  00083	83 c4 04	 add	 esp, 4
  00086	c7 46 08 00 00
	00 00		 mov	 DWORD PTR [esi+8], 0
$LN14@Destroy:

; 574  : 			SAFE_DELETE_ARRAY( pObject[i].m_pFrame );

  0008d	8b 46 0c	 mov	 eax, DWORD PTR [esi+12]
  00090	85 c0		 test	 eax, eax
  00092	74 10		 je	 SHORT $LN15@Destroy
  00094	50		 push	 eax
  00095	e8 00 00 00 00	 call	 ??_V@YAXPAX@Z		; operator delete[]
  0009a	83 c4 04	 add	 esp, 4
  0009d	c7 46 0c 00 00
	00 00		 mov	 DWORD PTR [esi+12], 0
$LN15@Destroy:

; 575  : 
; 576  : #ifdef __YENV
; 577  : 			SAFE_DELETE_ARRAY( pObject[i].m_pNormalTexture );		
; 578  : 			SAFE_DELETE_ARRAY( pObject[i].m_pNoSpecTexture );		
; 579  : #endif //__YENV
; 580  : 
; 581  : 			SAFE_DELETE_ARRAY( pObject[i].m_pVB );

  000a4	8b 86 6c 09 00
	00		 mov	 eax, DWORD PTR [esi+2412]
  000aa	85 c0		 test	 eax, eax
  000ac	74 13		 je	 SHORT $LN16@Destroy
  000ae	50		 push	 eax
  000af	e8 00 00 00 00	 call	 ??_V@YAXPAX@Z		; operator delete[]
  000b4	83 c4 04	 add	 esp, 4
  000b7	c7 86 6c 09 00
	00 00 00 00 00	 mov	 DWORD PTR [esi+2412], 0
$LN16@Destroy:

; 582  : 			SAFE_DELETE_ARRAY( pObject[i].m_pIB );

  000c1	8b 86 70 09 00
	00		 mov	 eax, DWORD PTR [esi+2416]
  000c7	85 c0		 test	 eax, eax
  000c9	74 13		 je	 SHORT $LN17@Destroy
  000cb	50		 push	 eax
  000cc	e8 00 00 00 00	 call	 ??_V@YAXPAX@Z		; operator delete[]
  000d1	83 c4 04	 add	 esp, 4
  000d4	c7 86 70 09 00
	00 00 00 00 00	 mov	 DWORD PTR [esi+2416], 0
$LN17@Destroy:

; 583  : 			pObject[i].m_pIIB = NULL;		// IIB는 IB와 같은 블럭을 사용하므로 delete하면 안된다.

  000de	c7 86 74 09 00
	00 00 00 00 00	 mov	 DWORD PTR [esi+2420], 0
  000e8	47		 inc	 edi
  000e9	81 c6 bc 0a 00
	00		 add	 esi, 2748		; 00000abcH
  000ef	3b 3b		 cmp	 edi, DWORD PTR [ebx]
  000f1	0f 8c 3c ff ff
	ff		 jl	 $LL7@Destroy
  000f7	8b 45 fc	 mov	 eax, DWORD PTR tv1049[ebp]
$LN2@Destroy:

; 549  : 	int		i, j, k;
; 550  : 
; 551  : 	for( j = 0; j < MAX_GROUP; j ++ )

  000fa	83 c3 0c	 add	 ebx, 12			; 0000000cH
  000fd	83 e8 01	 sub	 eax, 1
  00100	89 45 fc	 mov	 DWORD PTR tv1049[ebp], eax
  00103	0f 85 17 ff ff
	ff		 jne	 $LL4@Destroy

; 584  : 		}
; 585  : 	}
; 586  : 	
; 587  : 	SAFE_DELETE_ARRAY( m_CollObject.m_pVertexList );

  00109	8b 5d f4	 mov	 ebx, DWORD PTR _this$1$[ebp]
  0010c	5f		 pop	 edi
  0010d	8b 83 30 02 00
	00		 mov	 eax, DWORD PTR [ebx+560]
  00113	85 c0		 test	 eax, eax
  00115	74 13		 je	 SHORT $LN18@Destroy
  00117	50		 push	 eax
  00118	e8 00 00 00 00	 call	 ??_V@YAXPAX@Z		; operator delete[]
  0011d	83 c4 04	 add	 esp, 4
  00120	c7 83 30 02 00
	00 00 00 00 00	 mov	 DWORD PTR [ebx+560], 0
$LN18@Destroy:

; 588  : 	SAFE_DELETE_ARRAY( m_CollObject.m_pPhysiqueVertex );

  0012a	8b 83 34 02 00
	00		 mov	 eax, DWORD PTR [ebx+564]
  00130	85 c0		 test	 eax, eax
  00132	74 13		 je	 SHORT $LN19@Destroy
  00134	50		 push	 eax
  00135	e8 00 00 00 00	 call	 ??_V@YAXPAX@Z		; operator delete[]
  0013a	83 c4 04	 add	 esp, 4
  0013d	c7 83 34 02 00
	00 00 00 00 00	 mov	 DWORD PTR [ebx+564], 0
$LN19@Destroy:

; 589  : 	SAFE_DELETE_ARRAY( m_CollObject.m_pMtrlBlk );

  00147	8b 83 38 02 00
	00		 mov	 eax, DWORD PTR [ebx+568]
  0014d	85 c0		 test	 eax, eax
  0014f	74 13		 je	 SHORT $LN20@Destroy
  00151	50		 push	 eax
  00152	e8 00 00 00 00	 call	 ??_V@YAXPAX@Z		; operator delete[]
  00157	83 c4 04	 add	 esp, 4
  0015a	c7 83 38 02 00
	00 00 00 00 00	 mov	 DWORD PTR [ebx+568], 0
$LN20@Destroy:

; 590  : 	SAFE_DELETE_ARRAY( m_CollObject.m_pMtrlBlkTexture );

  00164	8b 83 3c 02 00
	00		 mov	 eax, DWORD PTR [ebx+572]
  0016a	85 c0		 test	 eax, eax
  0016c	74 13		 je	 SHORT $LN21@Destroy
  0016e	50		 push	 eax
  0016f	e8 00 00 00 00	 call	 ??_V@YAXPAX@Z		; operator delete[]
  00174	83 c4 04	 add	 esp, 4
  00177	c7 83 3c 02 00
	00 00 00 00 00	 mov	 DWORD PTR [ebx+572], 0
$LN21@Destroy:

; 591  : 	SAFE_DELETE_ARRAY( m_CollObject.m_pFrame );

  00181	8b 83 40 02 00
	00		 mov	 eax, DWORD PTR [ebx+576]
  00187	85 c0		 test	 eax, eax
  00189	74 13		 je	 SHORT $LN22@Destroy
  0018b	50		 push	 eax
  0018c	e8 00 00 00 00	 call	 ??_V@YAXPAX@Z		; operator delete[]
  00191	83 c4 04	 add	 esp, 4
  00194	c7 83 40 02 00
	00 00 00 00 00	 mov	 DWORD PTR [ebx+576], 0
$LN22@Destroy:

; 592  : 
; 593  : 	
; 594  : 	SAFE_DELETE_ARRAY( m_pAttr );

  0019e	8b 43 48	 mov	 eax, DWORD PTR [ebx+72]
  001a1	85 c0		 test	 eax, eax
  001a3	74 10		 je	 SHORT $LN23@Destroy
  001a5	50		 push	 eax
  001a6	e8 00 00 00 00	 call	 ??_V@YAXPAX@Z		; operator delete[]
  001ab	83 c4 04	 add	 esp, 4
  001ae	c7 43 48 00 00
	00 00		 mov	 DWORD PTR [ebx+72], 0
$LN23@Destroy:

; 595  : 	
; 596  : 	SAFE_DELETE_ARRAY( m_CollObject.m_pVB );

  001b5	8b 83 a0 0b 00
	00		 mov	 eax, DWORD PTR [ebx+2976]
  001bb	85 c0		 test	 eax, eax
  001bd	74 13		 je	 SHORT $LN24@Destroy
  001bf	50		 push	 eax
  001c0	e8 00 00 00 00	 call	 ??_V@YAXPAX@Z		; operator delete[]
  001c5	83 c4 04	 add	 esp, 4
  001c8	c7 83 a0 0b 00
	00 00 00 00 00	 mov	 DWORD PTR [ebx+2976], 0
$LN24@Destroy:

; 597  : 	SAFE_DELETE_ARRAY( m_CollObject.m_pIB );

  001d2	8b 83 a4 0b 00
	00		 mov	 eax, DWORD PTR [ebx+2980]
  001d8	85 c0		 test	 eax, eax
  001da	74 13		 je	 SHORT $LN25@Destroy
  001dc	50		 push	 eax
  001dd	e8 00 00 00 00	 call	 ??_V@YAXPAX@Z		; operator delete[]
  001e2	83 c4 04	 add	 esp, 4
  001e5	c7 83 a4 0b 00
	00 00 00 00 00	 mov	 DWORD PTR [ebx+2980], 0
$LN25@Destroy:

; 598  : 	m_CollObject.m_pIIB = NULL;		// IIB는 IB와 같은 블럭을 사용하므로 delete하면 안된다.
; 599  : 
; 600  : 	DeleteDeviceObjects();	// m_pObject[].m_pd3d_VB

  001ef	8b cb		 mov	 ecx, ebx
  001f1	c7 83 a8 0b 00
	00 00 00 00 00	 mov	 DWORD PTR [ebx+2984], 0
  001fb	e8 00 00 00 00	 call	 ?DeleteDeviceObjects@CObject3D@@QAEJXZ ; CObject3D::DeleteDeviceObjects

; 601  : 	// m_pObject를 삭제하려면 DeleteDeviceObjets()를 먼저하고 해야한다.
; 602  : 
; 603  : #ifdef __YENV
; 604  : 	SAFE_DELETE_ARRAY( m_CollObject.m_pNormalTexture );		
; 605  : 	SAFE_DELETE_ARRAY( m_CollObject.m_pNoSpecTexture );		
; 606  : #endif //__YENV
; 607  : 	
; 608  : 	
; 609  : 	SAFE_DELETE_ARRAY( m_Group[0].m_pObject );		// 통짜 메모리 풀이므로 [0]만 지우면 된다.

  00200	8b 43 08	 mov	 eax, DWORD PTR [ebx+8]
  00203	85 c0		 test	 eax, eax
  00205	74 10		 je	 SHORT $LN26@Destroy
  00207	50		 push	 eax
  00208	e8 00 00 00 00	 call	 ??_V@YAXPAX@Z		; operator delete[]
  0020d	83 c4 04	 add	 esp, 4
  00210	c7 43 08 00 00
	00 00		 mov	 DWORD PTR [ebx+8], 0
$LN26@Destroy:

; 610  : 	m_Group[1].m_pObject = NULL;
; 611  : 	m_Group[2].m_pObject = NULL;
; 612  : 	SAFE_DELETE_ARRAY( m_Group[0]._mUpdate );		// 통짜 메모리 풀이므로 [0]만 지우면 된다.

  00217	8b 43 0c	 mov	 eax, DWORD PTR [ebx+12]
  0021a	c7 43 14 00 00
	00 00		 mov	 DWORD PTR [ebx+20], 0
  00221	c7 43 20 00 00
	00 00		 mov	 DWORD PTR [ebx+32], 0
  00228	85 c0		 test	 eax, eax
  0022a	74 10		 je	 SHORT $LN27@Destroy
  0022c	50		 push	 eax
  0022d	e8 00 00 00 00	 call	 ??_V@YAXPAX@Z		; operator delete[]
  00232	83 c4 04	 add	 esp, 4
  00235	c7 43 0c 00 00
	00 00		 mov	 DWORD PTR [ebx+12], 0
$LN27@Destroy:

; 613  : 	m_Group[1]._mUpdate = NULL;

  0023c	c7 43 18 00 00
	00 00		 mov	 DWORD PTR [ebx+24], 0

; 614  : 	m_Group[2]._mUpdate = NULL;

  00243	c7 43 24 00 00
	00 00		 mov	 DWORD PTR [ebx+36], 0

; 615  : 	// 충돌용 메시는 d3d_VB를 생성하지 않기때문에 DeleteDevice를 안해도 된다.
; 616  : 	SAFE_DELETE_ARRAY( m_pBaseBone );

  0024a	8b 43 34	 mov	 eax, DWORD PTR [ebx+52]
  0024d	85 c0		 test	 eax, eax
  0024f	74 10		 je	 SHORT $LN28@Destroy
  00251	50		 push	 eax
  00252	e8 00 00 00 00	 call	 ??_V@YAXPAX@Z		; operator delete[]
  00257	83 c4 04	 add	 esp, 4
  0025a	c7 43 34 00 00
	00 00		 mov	 DWORD PTR [ebx+52], 0
$LN28@Destroy:

; 617  : 	SAFE_DELETE( m_pMotion );

  00261	8b 73 3c	 mov	 esi, DWORD PTR [ebx+60]
  00264	85 f6		 test	 esi, esi
  00266	74 1c		 je	 SHORT $LN29@Destroy
  00268	8b ce		 mov	 ecx, esi
  0026a	e8 00 00 00 00	 call	 ??1CMotion@@QAE@XZ	; CMotion::~CMotion
  0026f	68 a4 00 00 00	 push	 164			; 000000a4H
  00274	56		 push	 esi
  00275	e8 00 00 00 00	 call	 ??3@YAXPAXI@Z		; operator delete
  0027a	83 c4 08	 add	 esp, 8
  0027d	c7 43 3c 00 00
	00 00		 mov	 DWORD PTR [ebx+60], 0
$LN29@Destroy:

; 618  : 
; 619  : #ifdef __BS_EFFECT_LUA
; 620  : 	m_dwEffect_EX = 0;
; 621  : 
; 622  : 	SAFE_DELETE( m_pMteData );
; 623  : #endif;
; 624  : 
; 625  : 	Init();

  00284	8b cb		 mov	 ecx, ebx
  00286	e8 00 00 00 00	 call	 ?Init@CObject3D@@AAEXXZ	; CObject3D::Init
  0028b	5e		 pop	 esi
  0028c	5b		 pop	 ebx

; 626  : }

  0028d	8b e5		 mov	 esp, ebp
  0028f	5d		 pop	 ebp
  00290	c3		 ret	 0
?Destroy@CObject3D@@AAEXXZ ENDP				; CObject3D::Destroy
_TEXT	ENDS
; Function compile flags: /Ogtp
; File C:\IAGOS\server\v18\Source\Source\_Common\object3d.cpp
;	COMDAT ?Init@CObject3D@@AAEXXZ
_TEXT	SEGMENT
?Init@CObject3D@@AAEXXZ PROC				; CObject3D::Init, COMDAT
; _this$ = ecx

; 492  : {

  00000	56		 push	 esi
  00001	8b f1		 mov	 esi, ecx
  00003	0f 57 c0	 xorps	 xmm0, xmm0

; 493  : 	m_pGroup	  = &m_Group[0];

  00006	8d 46 04	 lea	 eax, DWORD PTR [esi+4]

; 494  : 	memset( m_Group, 0, sizeof(LOD_GROUP) * MAX_GROUP );
; 495  : //	m_pObject	  = NULL;
; 496  : //	_mUpdate	  = NULL;
; 497  : 	m_pmExternBone = m_pmExternBoneInv = NULL;
; 498  : 	m_pBaseBone	   = NULL;
; 499  : 	m_pBaseBoneInv = NULL;
; 500  : 	m_pMotion = NULL;
; 501  : 	memset( &m_CollObject, 0, sizeof(GMOBJECT) );

  00009	68 b8 0a 00 00	 push	 2744			; 00000ab8H
  0000e	6a 00		 push	 0
  00010	89 06		 mov	 DWORD PTR [esi], eax
  00012	0f 11 00	 movups	 XMMWORD PTR [eax], xmm0
  00015	0f 11 40 10	 movups	 XMMWORD PTR [eax+16], xmm0
  00019	c7 40 20 00 00
	00 00		 mov	 DWORD PTR [eax+32], 0
  00020	8d 86 04 01 00
	00		 lea	 eax, DWORD PTR [esi+260]
  00026	50		 push	 eax
  00027	c7 46 2c 00 00
	00 00		 mov	 DWORD PTR [esi+44], 0
  0002e	c7 46 28 00 00
	00 00		 mov	 DWORD PTR [esi+40], 0
  00035	c7 46 34 00 00
	00 00		 mov	 DWORD PTR [esi+52], 0
  0003c	c7 46 38 00 00
	00 00		 mov	 DWORD PTR [esi+56], 0
  00043	c7 46 3c 00 00
	00 00		 mov	 DWORD PTR [esi+60], 0
  0004a	e8 00 00 00 00	 call	 _memset

; 502  : 	m_CollObject.m_Type = GMT_ERROR;
; 503  : 	m_nID = 0;
; 504  : 	m_nHavePhysique = FALSE;
; 505  : //	m_nMaxObject = 0;
; 506  : 	m_nMaxBone = 0;
; 507  : 	m_bSendVS = 0;
; 508  : 	m_bLOD = 0;
; 509  : 	memset( m_szFileName, 0, sizeof(m_szFileName) );

  0004f	6a 40		 push	 64			; 00000040H
  00051	8d 86 c0 00 00
	00		 lea	 eax, DWORD PTR [esi+192]
  00057	c7 86 00 01 00
	00 ff ff ff ff	 mov	 DWORD PTR [esi+256], -1
  00061	6a 00		 push	 0
  00063	50		 push	 eax
  00064	c7 86 b8 00 00
	00 00 00 00 00	 mov	 DWORD PTR [esi+184], 0
  0006e	c7 86 bc 00 00
	00 00 00 00 00	 mov	 DWORD PTR [esi+188], 0
  00078	c7 46 30 00 00
	00 00		 mov	 DWORD PTR [esi+48], 0
  0007f	c7 86 b0 00 00
	00 00 00 00 00	 mov	 DWORD PTR [esi+176], 0
  00089	c7 86 b4 00 00
	00 00 00 00 00	 mov	 DWORD PTR [esi+180], 0
  00093	e8 00 00 00 00	 call	 _memset

; 510  : 
; 511  : 	m_vForce1.x = m_vForce1.y = m_vForce1.z = 0;
; 512  : 	m_vForce2.x = m_vForce2.y = m_vForce2.z = 0;
; 513  : #if __VER >= 9 // __CSC_VER9_5
; 514  : 	m_vForce3.x = m_vForce3.y = m_vForce3.z = 0;
; 515  : 	m_vForce4.x = m_vForce4.y = m_vForce4.z = 0;
; 516  : #endif //__CSC_VER9_5
; 517  : 	m_vBBMin.x = m_vBBMin.y = m_vBBMin.z = 65535.0;
; 518  : 	m_vBBMax.x = m_vBBMax.y = m_vBBMax.z = -65535.0;
; 519  : 	m_nMaxFace = 0;
; 520  : 	m_nNoTexture = 0;
; 521  : 	m_nNoEffect = 0;
; 522  : 
; 523  : 	m_nMaxEvent = 0;
; 524  : 	memset( m_vEvent, 0, sizeof(m_vEvent) );

  00098	6a 60		 push	 96			; 00000060H
  0009a	8d 46 4c	 lea	 eax, DWORD PTR [esi+76]
  0009d	c7 86 dc 0b 00
	00 00 00 00 00	 mov	 DWORD PTR [esi+3036], 0
  000a7	6a 00		 push	 0
  000a9	50		 push	 eax
  000aa	c7 86 d8 0b 00
	00 00 00 00 00	 mov	 DWORD PTR [esi+3032], 0
  000b4	c7 86 d4 0b 00
	00 00 00 00 00	 mov	 DWORD PTR [esi+3028], 0
  000be	c7 86 e8 0b 00
	00 00 00 00 00	 mov	 DWORD PTR [esi+3048], 0
  000c8	c7 86 e4 0b 00
	00 00 00 00 00	 mov	 DWORD PTR [esi+3044], 0
  000d2	c7 86 e0 0b 00
	00 00 00 00 00	 mov	 DWORD PTR [esi+3040], 0
  000dc	c7 86 f4 0b 00
	00 00 00 00 00	 mov	 DWORD PTR [esi+3060], 0
  000e6	c7 86 f0 0b 00
	00 00 00 00 00	 mov	 DWORD PTR [esi+3056], 0
  000f0	c7 86 ec 0b 00
	00 00 00 00 00	 mov	 DWORD PTR [esi+3052], 0
  000fa	c7 86 00 0c 00
	00 00 00 00 00	 mov	 DWORD PTR [esi+3072], 0
  00104	c7 86 fc 0b 00
	00 00 00 00 00	 mov	 DWORD PTR [esi+3068], 0
  0010e	c7 86 f8 0b 00
	00 00 00 00 00	 mov	 DWORD PTR [esi+3064], 0
  00118	c7 86 c4 0b 00
	00 00 ff 7f 47	 mov	 DWORD PTR [esi+3012], 1199570688 ; 477fff00H
  00122	c7 86 c0 0b 00
	00 00 ff 7f 47	 mov	 DWORD PTR [esi+3008], 1199570688 ; 477fff00H
  0012c	c7 86 bc 0b 00
	00 00 ff 7f 47	 mov	 DWORD PTR [esi+3004], 1199570688 ; 477fff00H
  00136	c7 86 d0 0b 00
	00 00 ff 7f c7	 mov	 DWORD PTR [esi+3024], -947912960 ; c77fff00H
  00140	c7 86 cc 0b 00
	00 00 ff 7f c7	 mov	 DWORD PTR [esi+3020], -947912960 ; c77fff00H
  0014a	c7 86 c8 0b 00
	00 00 ff 7f c7	 mov	 DWORD PTR [esi+3016], -947912960 ; c77fff00H
  00154	c7 86 0c 0c 00
	00 00 00 00 00	 mov	 DWORD PTR [esi+3084], 0
  0015e	c7 86 10 0c 00
	00 00 00 00 00	 mov	 DWORD PTR [esi+3088], 0
  00168	c7 86 14 0c 00
	00 00 00 00 00	 mov	 DWORD PTR [esi+3092], 0
  00172	c7 46 40 00 00
	00 00		 mov	 DWORD PTR [esi+64], 0
  00179	e8 00 00 00 00	 call	 _memset
  0017e	83 c4 24	 add	 esp, 36			; 00000024H

; 525  : 
; 526  : 	m_fScrlU = m_fScrlV = 0.0f;

  00181	c7 86 08 0c 00
	00 00 00 00 00	 mov	 DWORD PTR [esi+3080], 0
  0018b	c7 86 04 0c 00
	00 00 00 00 00	 mov	 DWORD PTR [esi+3076], 0

; 527  : 
; 528  : 	m_nUseCnt = 0;	// 일단 초기화는 0

  00195	c7 86 20 0c 00
	00 00 00 00 00	 mov	 DWORD PTR [esi+3104], 0

; 529  : 	
; 530  : 	m_fAmbient[0] = 1.0f;

  0019f	c7 86 24 0c 00
	00 00 00 80 3f	 mov	 DWORD PTR [esi+3108], 1065353216 ; 3f800000H

; 531  : 	m_fAmbient[1] = 1.0f;

  001a9	c7 86 28 0c 00
	00 00 00 80 3f	 mov	 DWORD PTR [esi+3112], 1065353216 ; 3f800000H

; 532  : 	m_fAmbient[2] = 1.0f;

  001b3	c7 86 2c 0c 00
	00 00 00 80 3f	 mov	 DWORD PTR [esi+3116], 1065353216 ; 3f800000H

; 533  : 
; 534  : 	m_nTextureEx = 0;

  001bd	c7 46 44 00 00
	00 00		 mov	 DWORD PTR [esi+68], 0

; 535  : 	m_pAttr = NULL;

  001c4	c7 46 48 00 00
	00 00		 mov	 DWORD PTR [esi+72], 0
  001cb	5e		 pop	 esi

; 536  : #ifdef __YENV
; 537  : 	m_pNormalDecl	= NULL;
; 538  : #endif //__YENV	
; 539  : 
; 540  : #ifdef __BS_EFFECT_LUA
; 541  : 	m_dwEffect_EX = 0;
; 542  : 
; 543  : 	m_pMteData = NULL;
; 544  : #endif;
; 545  : }

  001cc	c3		 ret	 0
?Init@CObject3D@@AAEXXZ ENDP				; CObject3D::Init
_TEXT	ENDS
; Function compile flags: /Ogtp
;	COMDAT ??0GMOBJECT@@QAE@XZ
_TEXT	SEGMENT
??0GMOBJECT@@QAE@XZ PROC				; GMOBJECT::GMOBJECT, COMDAT
; _this$ = ecx
  00000	8b c1		 mov	 eax, ecx
  00002	c3		 ret	 0
??0GMOBJECT@@QAE@XZ ENDP				; GMOBJECT::GMOBJECT
_TEXT	ENDS
; Function compile flags: /Ogtp
;	COMDAT ??0NORMALVERTEX@@QAE@XZ
_TEXT	SEGMENT
??0NORMALVERTEX@@QAE@XZ PROC				; NORMALVERTEX::NORMALVERTEX, COMDAT
; _this$ = ecx
  00000	8b c1		 mov	 eax, ecx
  00002	c3		 ret	 0
??0NORMALVERTEX@@QAE@XZ ENDP				; NORMALVERTEX::NORMALVERTEX
_TEXT	ENDS
; Function compile flags: /Ogtp
;	COMDAT ??0SKINVERTEX@@QAE@XZ
_TEXT	SEGMENT
??0SKINVERTEX@@QAE@XZ PROC				; SKINVERTEX::SKINVERTEX, COMDAT
; _this$ = ecx
  00000	8b c1		 mov	 eax, ecx
  00002	c3		 ret	 0
??0SKINVERTEX@@QAE@XZ ENDP				; SKINVERTEX::SKINVERTEX
_TEXT	ENDS
; Function compile flags: /Ogtp
;	COMDAT ??0TM_ANIMATION@@QAE@XZ
_TEXT	SEGMENT
??0TM_ANIMATION@@QAE@XZ PROC				; TM_ANIMATION::TM_ANIMATION, COMDAT
; _this$ = ecx
  00000	8b c1		 mov	 eax, ecx
  00002	c3		 ret	 0
??0TM_ANIMATION@@QAE@XZ ENDP				; TM_ANIMATION::TM_ANIMATION
_TEXT	ENDS
; Function compile flags: /Ogtp
; File C:\IAGOS\server\v18\Source\Source\_Common\File.h
;	COMDAT ??_GCFileIO@@UAEPAXI@Z
_TEXT	SEGMENT
__$EHRec$ = -12						; size = 12
___flags$ = 8						; size = 4
??_GCFileIO@@UAEPAXI@Z PROC				; CFileIO::`scalar deleting destructor', COMDAT
; _this$ = ecx
  00000	55		 push	 ebp
  00001	8b ec		 mov	 ebp, esp
  00003	6a ff		 push	 -1
  00005	68 00 00 00 00	 push	 __ehhandler$??_GCFileIO@@UAEPAXI@Z
  0000a	64 a1 00 00 00
	00		 mov	 eax, DWORD PTR fs:0
  00010	50		 push	 eax
  00011	56		 push	 esi
  00012	a1 00 00 00 00	 mov	 eax, DWORD PTR ___security_cookie
  00017	33 c5		 xor	 eax, ebp
  00019	50		 push	 eax
  0001a	8d 45 f4	 lea	 eax, DWORD PTR __$EHRec$[ebp]
  0001d	64 a3 00 00 00
	00		 mov	 DWORD PTR fs:0, eax
  00023	8b f1		 mov	 esi, ecx

; 17   : 	virtual ~CFileIO() { Close(); }

  00025	c7 45 fc 00 00
	00 00		 mov	 DWORD PTR __$EHRec$[ebp+8], 0
  0002c	c7 06 00 00 00
	00		 mov	 DWORD PTR [esi], OFFSET ??_7CFileIO@@6B@
  00032	e8 00 00 00 00	 call	 ?Close@CFileIO@@UAEHXZ	; CFileIO::Close
  00037	f6 45 08 01	 test	 BYTE PTR ___flags$[ebp], 1
  0003b	74 0b		 je	 SHORT $LN10@scalar
  0003d	6a 08		 push	 8
  0003f	56		 push	 esi
  00040	e8 00 00 00 00	 call	 ??3@YAXPAXI@Z		; operator delete
  00045	83 c4 08	 add	 esp, 8
$LN10@scalar:
  00048	8b c6		 mov	 eax, esi
  0004a	8b 4d f4	 mov	 ecx, DWORD PTR __$EHRec$[ebp]
  0004d	64 89 0d 00 00
	00 00		 mov	 DWORD PTR fs:0, ecx
  00054	59		 pop	 ecx
  00055	5e		 pop	 esi
  00056	8b e5		 mov	 esp, ebp
  00058	5d		 pop	 ebp
  00059	c2 04 00	 ret	 4
  0005c	cc		 int	 3
  0005d	cc		 int	 3
  0005e	cc		 int	 3
  0005f	cc		 int	 3
  00060	cc		 int	 3
_TEXT	ENDS
;	COMDAT text$x
text$x	SEGMENT
__ehhandler$??_GCFileIO@@UAEPAXI@Z:
  00000	90		 npad	 1
  00001	90		 npad	 1
  00002	8b 54 24 08	 mov	 edx, DWORD PTR [esp+8]
  00006	8d 42 0c	 lea	 eax, DWORD PTR [edx+12]
  00009	8b 4a f8	 mov	 ecx, DWORD PTR [edx-8]
  0000c	33 c8		 xor	 ecx, eax
  0000e	e8 00 00 00 00	 call	 @__security_check_cookie@4
  00013	b8 00 00 00 00	 mov	 eax, OFFSET __ehfuncinfo$??_GCFileIO@@UAEPAXI@Z
  00018	e9 00 00 00 00	 jmp	 ___CxxFrameHandler3
text$x	ENDS
??_GCFileIO@@UAEPAXI@Z ENDP				; CFileIO::`scalar deleting destructor'
; Function compile flags: /Ogtp
; File C:\IAGOS\server\v18\Source\Source\_Common\File.h
;	COMDAT ?Read@CFileIO@@UAEIPAXII@Z
_TEXT	SEGMENT
_ptr$ = 8						; size = 4
_size$ = 12						; size = 4
_n$ = 16						; size = 4
?Read@CFileIO@@UAEIPAXII@Z PROC				; CFileIO::Read, COMDAT
; _this$ = ecx

; 27   : 	virtual size_t Read( void *ptr, size_t size, size_t n = 1 )	{ return fread( ptr, size, n, fp ); }

  00000	55		 push	 ebp
  00001	8b ec		 mov	 ebp, esp
  00003	ff 71 04	 push	 DWORD PTR [ecx+4]
  00006	ff 75 10	 push	 DWORD PTR _n$[ebp]
  00009	ff 75 0c	 push	 DWORD PTR _size$[ebp]
  0000c	ff 75 08	 push	 DWORD PTR _ptr$[ebp]
  0000f	e8 00 00 00 00	 call	 _fread
  00014	83 c4 10	 add	 esp, 16			; 00000010H
  00017	5d		 pop	 ebp
  00018	c2 0c 00	 ret	 12			; 0000000cH
?Read@CFileIO@@UAEIPAXII@Z ENDP				; CFileIO::Read
_TEXT	ENDS
; Function compile flags: /Ogtp
; File C:\IAGOS\server\v18\Source\Source\_Common\File.h
;	COMDAT ?GetLength@CFileIO@@UAEJXZ
_TEXT	SEGMENT
?GetLength@CFileIO@@UAEJXZ PROC				; CFileIO::GetLength, COMDAT
; _this$ = ecx

; 30   : 	int  Handle() { return fileno( fp ); }

  00000	ff 71 04	 push	 DWORD PTR [ecx+4]
  00003	e8 00 00 00 00	 call	 _fileno

; 26   : 	virtual long GetLength() { return _filelength( Handle() ); }

  00008	50		 push	 eax
  00009	e8 00 00 00 00	 call	 __filelength
  0000e	83 c4 08	 add	 esp, 8
  00011	c3		 ret	 0
?GetLength@CFileIO@@UAEJXZ ENDP				; CFileIO::GetLength
_TEXT	ENDS
; Function compile flags: /Ogtp
; File C:\IAGOS\server\v18\Source\Source\_Common\File.h
;	COMDAT ?Seek@CFileIO@@UAEHJH@Z
_TEXT	SEGMENT
_offset$ = 8						; size = 4
_whence$ = 12						; size = 4
?Seek@CFileIO@@UAEHJH@Z PROC				; CFileIO::Seek, COMDAT
; _this$ = ecx

; 25   : 	virtual int  Seek( long offset, int whence ) { return fseek( fp, offset, whence ); }

  00000	55		 push	 ebp
  00001	8b ec		 mov	 ebp, esp
  00003	ff 75 0c	 push	 DWORD PTR _whence$[ebp]
  00006	ff 75 08	 push	 DWORD PTR _offset$[ebp]
  00009	ff 71 04	 push	 DWORD PTR [ecx+4]
  0000c	e8 00 00 00 00	 call	 _fseek
  00011	83 c4 0c	 add	 esp, 12			; 0000000cH
  00014	5d		 pop	 ebp
  00015	c2 08 00	 ret	 8
?Seek@CFileIO@@UAEHJH@Z ENDP				; CFileIO::Seek
_TEXT	ENDS
; Function compile flags: /Ogtp
; File C:\IAGOS\server\v18\Source\Source\_Common\File.h
;	COMDAT ?Tell@CFileIO@@UAEJXZ
_TEXT	SEGMENT
?Tell@CFileIO@@UAEJXZ PROC				; CFileIO::Tell, COMDAT
; _this$ = ecx

; 24   : 	virtual long Tell()   { return ftell(fp); }

  00000	ff 71 04	 push	 DWORD PTR [ecx+4]
  00003	e8 00 00 00 00	 call	 _ftell
  00008	83 c4 04	 add	 esp, 4
  0000b	c3		 ret	 0
?Tell@CFileIO@@UAEJXZ ENDP				; CFileIO::Tell
_TEXT	ENDS
; Function compile flags: /Ogtp
; File C:\IAGOS\server\v18\Source\Source\_Common\File.h
;	COMDAT ?GetDW@CFileIO@@UAEKXZ
_TEXT	SEGMENT
_dw$ = -4						; size = 4
?GetDW@CFileIO@@UAEKXZ PROC				; CFileIO::GetDW, COMDAT
; _this$ = ecx

; 23   : 	virtual DWORD GetDW() { DWORD dw; fread( &dw, sizeof( dw ), 1, fp ); return dw; }

  00000	55		 push	 ebp
  00001	8b ec		 mov	 ebp, esp
  00003	51		 push	 ecx
  00004	ff 71 04	 push	 DWORD PTR [ecx+4]
  00007	8d 45 fc	 lea	 eax, DWORD PTR _dw$[ebp]
  0000a	6a 01		 push	 1
  0000c	6a 04		 push	 4
  0000e	50		 push	 eax
  0000f	e8 00 00 00 00	 call	 _fread
  00014	8b 45 fc	 mov	 eax, DWORD PTR _dw$[ebp]
  00017	83 c4 10	 add	 esp, 16			; 00000010H
  0001a	8b e5		 mov	 esp, ebp
  0001c	5d		 pop	 ebp
  0001d	c3		 ret	 0
?GetDW@CFileIO@@UAEKXZ ENDP				; CFileIO::GetDW
_TEXT	ENDS
; Function compile flags: /Ogtp
; File C:\IAGOS\server\v18\Source\Source\_Common\File.h
;	COMDAT ?GetW@CFileIO@@UAEGXZ
_TEXT	SEGMENT
?GetW@CFileIO@@UAEGXZ PROC				; CFileIO::GetW, COMDAT
; _this$ = ecx

; 22   : 	virtual WORD  GetW()  { return getwc( fp ); } 

  00000	ff 71 04	 push	 DWORD PTR [ecx+4]
  00003	e8 00 00 00 00	 call	 _getwc
  00008	83 c4 04	 add	 esp, 4
  0000b	c3		 ret	 0
?GetW@CFileIO@@UAEGXZ ENDP				; CFileIO::GetW
_TEXT	ENDS
; Function compile flags: /Ogtp
; File C:\IAGOS\server\v18\Source\Source\_Common\File.h
;	COMDAT ?GetC@CFileIO@@UAEDXZ
_TEXT	SEGMENT
?GetC@CFileIO@@UAEDXZ PROC				; CFileIO::GetC, COMDAT
; _this$ = ecx

; 21   : 	virtual char  GetC()  { return (char)getc( fp ); }

  00000	ff 71 04	 push	 DWORD PTR [ecx+4]
  00003	e8 00 00 00 00	 call	 _getc
  00008	83 c4 04	 add	 esp, 4
  0000b	c3		 ret	 0
?GetC@CFileIO@@UAEDXZ ENDP				; CFileIO::GetC
_TEXT	ENDS
; Function compile flags: /Ogtp
; File C:\IAGOS\server\v18\Source\Source\_Common\File.h
;	COMDAT ?Flush@CFileIO@@UAEHXZ
_TEXT	SEGMENT
?Flush@CFileIO@@UAEHXZ PROC				; CFileIO::Flush, COMDAT
; _this$ = ecx

; 20   : 	virtual int	 Flush()  { return fflush( fp ); }

  00000	ff 71 04	 push	 DWORD PTR [ecx+4]
  00003	e8 00 00 00 00	 call	 _fflush
  00008	83 c4 04	 add	 esp, 4
  0000b	c3		 ret	 0
?Flush@CFileIO@@UAEHXZ ENDP				; CFileIO::Flush
_TEXT	ENDS
; Function compile flags: /Ogtp
; File C:\IAGOS\server\v18\Source\Source\_Common\File.h
;	COMDAT ??1CFileIO@@UAE@XZ
_TEXT	SEGMENT
__$EHRec$ = -12						; size = 12
??1CFileIO@@UAE@XZ PROC					; CFileIO::~CFileIO, COMDAT
; _this$ = ecx

; 17   : 	virtual ~CFileIO() { Close(); }

  00000	55		 push	 ebp
  00001	8b ec		 mov	 ebp, esp
  00003	6a ff		 push	 -1
  00005	68 00 00 00 00	 push	 __ehhandler$??1CFileIO@@UAE@XZ
  0000a	64 a1 00 00 00
	00		 mov	 eax, DWORD PTR fs:0
  00010	50		 push	 eax
  00011	a1 00 00 00 00	 mov	 eax, DWORD PTR ___security_cookie
  00016	33 c5		 xor	 eax, ebp
  00018	50		 push	 eax
  00019	8d 45 f4	 lea	 eax, DWORD PTR __$EHRec$[ebp]
  0001c	64 a3 00 00 00
	00		 mov	 DWORD PTR fs:0, eax
  00022	c7 01 00 00 00
	00		 mov	 DWORD PTR [ecx], OFFSET ??_7CFileIO@@6B@
  00028	e8 00 00 00 00	 call	 ?Close@CFileIO@@UAEHXZ	; CFileIO::Close
  0002d	8b 4d f4	 mov	 ecx, DWORD PTR __$EHRec$[ebp]
  00030	64 89 0d 00 00
	00 00		 mov	 DWORD PTR fs:0, ecx
  00037	59		 pop	 ecx
  00038	8b e5		 mov	 esp, ebp
  0003a	5d		 pop	 ebp
  0003b	c3		 ret	 0
  0003c	cc		 int	 3
  0003d	cc		 int	 3
  0003e	cc		 int	 3
  0003f	cc		 int	 3
  00040	cc		 int	 3
_TEXT	ENDS
;	COMDAT text$x
text$x	SEGMENT
__ehhandler$??1CFileIO@@UAE@XZ:
  00000	90		 npad	 1
  00001	90		 npad	 1
  00002	8b 54 24 08	 mov	 edx, DWORD PTR [esp+8]
  00006	8d 42 0c	 lea	 eax, DWORD PTR [edx+12]
  00009	8b 4a fc	 mov	 ecx, DWORD PTR [edx-4]
  0000c	33 c8		 xor	 ecx, eax
  0000e	e8 00 00 00 00	 call	 @__security_check_cookie@4
  00013	b8 00 00 00 00	 mov	 eax, OFFSET __ehfuncinfo$??1CFileIO@@UAE@XZ
  00018	e9 00 00 00 00	 jmp	 ___CxxFrameHandler3
text$x	ENDS
??1CFileIO@@UAE@XZ ENDP					; CFileIO::~CFileIO
; Function compile flags: /Ogtp
; File C:\IAGOS\server\v18\Source\Source\DX_SDK\d3dx9math.h
;	COMDAT ??0D3DXMATRIX@@QAE@XZ
_TEXT	SEGMENT
??0D3DXMATRIX@@QAE@XZ PROC				; D3DXMATRIX::D3DXMATRIX, COMDAT
; _this$ = ecx

; 313  :     D3DXMATRIX() {};

  00000	8b c1		 mov	 eax, ecx
  00002	c3		 ret	 0
??0D3DXMATRIX@@QAE@XZ ENDP				; D3DXMATRIX::D3DXMATRIX
_TEXT	ENDS
; Function compile flags: /Ogtp
; File C:\IAGOS\server\v18\Source\Source\DX_SDK\d3dx9math.h
;	COMDAT ??0D3DXVECTOR3@@QAE@XZ
_TEXT	SEGMENT
??0D3DXVECTOR3@@QAE@XZ PROC				; D3DXVECTOR3::D3DXVECTOR3, COMDAT
; _this$ = ecx

; 165  :     D3DXVECTOR3() {};

  00000	8b c1		 mov	 eax, ecx
  00002	c3		 ret	 0
??0D3DXVECTOR3@@QAE@XZ ENDP				; D3DXVECTOR3::D3DXVECTOR3
_TEXT	ENDS
; Function compile flags: /Ogtp
; File C:\Program Files\Microsoft Visual Studio\2022\Professional\VC\Tools\MSVC\14.44.35207\include\xtree
;	COMDAT ?_Throw_tree_length_error@std@@YAXXZ
_TEXT	SEGMENT
?_Throw_tree_length_error@std@@YAXXZ PROC		; std::_Throw_tree_length_error, COMDAT

; 417  :     _Xlength_error("map/set too long");

  00000	68 00 00 00 00	 push	 OFFSET ??_C@_0BB@GCADKGJO@map?1set?5too?5long@
  00005	e8 00 00 00 00	 call	 ?_Xlength_error@std@@YAXPBD@Z ; std::_Xlength_error
$LN3@Throw_tree:
  0000a	cc		 int	 3
?_Throw_tree_length_error@std@@YAXXZ ENDP		; std::_Throw_tree_length_error
_TEXT	ENDS
; Function compile flags: /Ogtp
; File C:\Program Files\Microsoft Visual Studio\2022\Professional\VC\Tools\MSVC\14.44.35207\include\xstring
; File C:\Program Files\Microsoft Visual Studio\2022\Professional\VC\Tools\MSVC\14.44.35207\include\xmemory
; File C:\Program Files\Microsoft Visual Studio\2022\Professional\VC\Tools\MSVC\14.44.35207\include\xstring
; File C:\Program Files\Microsoft Visual Studio\2022\Professional\VC\Tools\MSVC\14.44.35207\include\xmemory
; File C:\Program Files\Microsoft Visual Studio\2022\Professional\VC\Tools\MSVC\14.44.35207\include\xstring
; File C:\Program Files\Microsoft Visual Studio\2022\Professional\VC\Tools\MSVC\14.44.35207\include\xmemory
; File C:\Program Files\Microsoft Visual Studio\2022\Professional\VC\Tools\MSVC\14.44.35207\include\xstring
;	COMDAT ??1?$basic_string@DU?$char_traits@D@std@@V?$allocator@D@2@@std@@QAE@XZ
_TEXT	SEGMENT
??1?$basic_string@DU?$char_traits@D@std@@V?$allocator@D@2@@std@@QAE@XZ PROC ; std::basic_string<char,std::char_traits<char>,std::allocator<char> >::~basic_string<char,std::char_traits<char>,std::allocator<char> >, COMDAT
; _this$ = ecx

; 1382 :     _CONSTEXPR20 ~basic_string() noexcept {

  00000	56		 push	 esi
  00001	8b f1		 mov	 esi, ecx

; 453  :         return _Myres > _Small_string_capacity;

  00003	8b 4e 14	 mov	 ecx, DWORD PTR [esi+20]
  00006	83 f9 0f	 cmp	 ecx, 15			; 0000000fH

; 3083 :         if (_My_data._Large_mode_engaged()) {

  00009	76 27		 jbe	 SHORT $LN19@basic_stri
; File C:\Program Files\Microsoft Visual Studio\2022\Professional\VC\Tools\MSVC\14.44.35207\include\xmemory

; 985  :         _STD _Deallocate<_New_alignof<_Ty>>(_Ptr, sizeof(_Ty) * _Count);

  0000b	8b 06		 mov	 eax, DWORD PTR [esi]
; File C:\Program Files\Microsoft Visual Studio\2022\Professional\VC\Tools\MSVC\14.44.35207\include\xstring

; 852  :         _Al.deallocate(_Old_ptr, _Capacity + 1); // +1 for null terminator

  0000d	41		 inc	 ecx
; File C:\Program Files\Microsoft Visual Studio\2022\Professional\VC\Tools\MSVC\14.44.35207\include\xmemory

; 284  :         if (_Bytes >= _Big_allocation_threshold) {

  0000e	81 f9 00 10 00
	00		 cmp	 ecx, 4096		; 00001000H
  00014	72 12		 jb	 SHORT $LN24@basic_stri

; 205  :     const uintptr_t _Ptr_container   = _Ptr_user[-1];

  00016	8b 50 fc	 mov	 edx, DWORD PTR [eax-4]
  00019	83 c1 23	 add	 ecx, 35			; 00000023H

; 206  : 
; 207  :     // If the following asserts, it likely means that we are performing
; 208  :     // an aligned delete on memory coming from an unaligned allocation.
; 209  :     _STL_ASSERT(_Ptr_user[-2] == _Big_allocation_sentinel, "invalid argument");
; 210  : 
; 211  :     // Extra paranoia on aligned allocation/deallocation; ensure _Ptr_container is
; 212  :     // in range [_Min_back_shift, _Non_user_size]
; 213  : #ifdef _DEBUG
; 214  :     constexpr uintptr_t _Min_back_shift = 2 * sizeof(void*);
; 215  : #else // ^^^ defined(_DEBUG) / !defined(_DEBUG) vvv
; 216  :     constexpr uintptr_t _Min_back_shift = sizeof(void*);
; 217  : #endif // ^^^ !defined(_DEBUG) ^^^
; 218  :     const uintptr_t _Back_shift = reinterpret_cast<uintptr_t>(_Ptr) - _Ptr_container;

  0001c	2b c2		 sub	 eax, edx

; 219  :     _STL_VERIFY(_Back_shift >= _Min_back_shift && _Back_shift <= _Non_user_size, "invalid argument");

  0001e	83 c0 fc	 add	 eax, -4			; fffffffcH
  00021	83 f8 1f	 cmp	 eax, 31			; 0000001fH
  00024	77 1f		 ja	 SHORT $LN23@basic_stri

; 220  :     _Ptr = reinterpret_cast<void*>(_Ptr_container);

  00026	8b c2		 mov	 eax, edx
$LN24@basic_stri:

; 289  :         ::operator delete(_Ptr, _Bytes);

  00028	51		 push	 ecx
  00029	50		 push	 eax
  0002a	e8 00 00 00 00	 call	 ??3@YAXPAXI@Z		; operator delete
  0002f	83 c4 08	 add	 esp, 8
$LN19@basic_stri:
; File C:\Program Files\Microsoft Visual Studio\2022\Professional\VC\Tools\MSVC\14.44.35207\include\xstring

; 3090 :         _My_data._Mysize = 0;

  00032	c7 46 10 00 00
	00 00		 mov	 DWORD PTR [esi+16], 0

; 3091 :         _My_data._Myres  = _Small_string_capacity;

  00039	c7 46 14 0f 00
	00 00		 mov	 DWORD PTR [esi+20], 15	; 0000000fH

; 3092 :         // the _Traits::assign is last so the codegen doesn't think the char write can alias this
; 3093 :         _Traits::assign(_My_data._Bx._Buf[0], _Elem());

  00040	c6 06 00	 mov	 BYTE PTR [esi], 0
  00043	5e		 pop	 esi

; 1390 :     }

  00044	c3		 ret	 0
$LN23@basic_stri:
; File C:\Program Files\Microsoft Visual Studio\2022\Professional\VC\Tools\MSVC\14.44.35207\include\xmemory

; 219  :     _STL_VERIFY(_Back_shift >= _Min_back_shift && _Back_shift <= _Non_user_size, "invalid argument");

  00045	6a 00		 push	 0
  00047	6a 00		 push	 0
  00049	6a 00		 push	 0
  0004b	6a 00		 push	 0
  0004d	6a 00		 push	 0
  0004f	e8 00 00 00 00	 call	 __invoke_watson
$LN33@basic_stri:
  00054	cc		 int	 3
??1?$basic_string@DU?$char_traits@D@std@@V?$allocator@D@2@@std@@QAE@XZ ENDP ; std::basic_string<char,std::char_traits<char>,std::allocator<char> >::~basic_string<char,std::char_traits<char>,std::allocator<char> >
_TEXT	ENDS
; Function compile flags: /Ogtp
; File C:\Program Files\Microsoft Visual Studio\2022\Professional\VC\Tools\MSVC\14.44.35207\include\xstring
; File C:\Program Files\Microsoft Visual Studio\2022\Professional\VC\Tools\MSVC\14.44.35207\include\__msvc_string_view.hpp
; File C:\Program Files\Microsoft Visual Studio\2022\Professional\VC\Tools\MSVC\14.44.35207\include\xstring
; File C:\Program Files\Microsoft Visual Studio\2022\Professional\VC\Tools\MSVC\14.44.35207\include\__msvc_string_view.hpp
; File C:\Program Files\Microsoft Visual Studio\2022\Professional\VC\Tools\MSVC\14.44.35207\include\xstring
; File C:\Program Files\Microsoft Visual Studio\2022\Professional\VC\Tools\MSVC\14.44.35207\include\__msvc_string_view.hpp
; File C:\Program Files\Microsoft Visual Studio\2022\Professional\VC\Tools\MSVC\14.44.35207\include\xstring
; File C:\Program Files\Microsoft Visual Studio\2022\Professional\VC\Tools\MSVC\14.44.35207\include\__msvc_string_view.hpp
; File C:\Program Files\Microsoft Visual Studio\2022\Professional\VC\Tools\MSVC\14.44.35207\include\xstring
; File C:\Program Files\Microsoft Visual Studio\2022\Professional\VC\Tools\MSVC\14.44.35207\include\xmemory
; File C:\Program Files\Microsoft Visual Studio\2022\Professional\VC\Tools\MSVC\14.44.35207\include\xstring
; File C:\Program Files\Microsoft Visual Studio\2022\Professional\VC\Tools\MSVC\14.44.35207\include\xmemory
; File C:\Program Files\Microsoft Visual Studio\2022\Professional\VC\Tools\MSVC\14.44.35207\include\xstring
; File C:\Program Files\Microsoft Visual Studio\2022\Professional\VC\Tools\MSVC\14.44.35207\include\__msvc_string_view.hpp
; File C:\Program Files\Microsoft Visual Studio\2022\Professional\VC\Tools\MSVC\14.44.35207\include\xstring
; File C:\Program Files\Microsoft Visual Studio\2022\Professional\VC\Tools\MSVC\14.44.35207\include\__msvc_string_view.hpp
; File C:\Program Files\Microsoft Visual Studio\2022\Professional\VC\Tools\MSVC\14.44.35207\include\xstring
; File C:\Program Files\Microsoft Visual Studio\2022\Professional\VC\Tools\MSVC\14.44.35207\include\__msvc_string_view.hpp
; File C:\Program Files\Microsoft Visual Studio\2022\Professional\VC\Tools\MSVC\14.44.35207\include\xstring
;	COMDAT ??0?$basic_string@DU?$char_traits@D@std@@V?$allocator@D@2@@std@@QAE@QBD@Z
_TEXT	SEGMENT
$T1 = -4						; size = 4
__Ptr$ = 8						; size = 4
??0?$basic_string@DU?$char_traits@D@std@@V?$allocator@D@2@@std@@QAE@QBD@Z PROC ; std::basic_string<char,std::char_traits<char>,std::allocator<char> >::basic_string<char,std::char_traits<char>,std::allocator<char> >, COMDAT
; _this$ = ecx

; 768  :     _CONSTEXPR20 basic_string(_In_z_ const _Elem* const _Ptr) : _Mypair(_Zero_then_variadic_args_t{}) {

  00000	55		 push	 ebp
  00001	8b ec		 mov	 ebp, esp
  00003	51		 push	 ecx
  00004	53		 push	 ebx
  00005	56		 push	 esi
  00006	8b d9		 mov	 ebx, ecx
  00008	0f 57 c0	 xorps	 xmm0, xmm0
  0000b	57		 push	 edi
; File C:\Program Files\Microsoft Visual Studio\2022\Professional\VC\Tools\MSVC\14.44.35207\include\__msvc_string_view.hpp

; 459  :         return _CSTD strlen(reinterpret_cast<const char*>(_First));

  0000c	8b 7d 08	 mov	 edi, DWORD PTR __Ptr$[ebp]
  0000f	8b f7		 mov	 esi, edi
; File C:\Program Files\Microsoft Visual Studio\2022\Professional\VC\Tools\MSVC\14.44.35207\include\xstring

; 493  :         _CONSTEXPR20 _Bxty() noexcept : _Buf() {} // user-provided, for fancy pointers

  00011	0f 11 03	 movups	 XMMWORD PTR [ebx], xmm0

; 517  :     size_type _Mysize = 0; // current length of string (size)

  00014	c7 43 10 00 00
	00 00		 mov	 DWORD PTR [ebx+16], 0

; 518  :     size_type _Myres  = 0; // current storage reserved for string (capacity)

  0001b	c7 43 14 00 00
	00 00		 mov	 DWORD PTR [ebx+20], 0
; File C:\Program Files\Microsoft Visual Studio\2022\Professional\VC\Tools\MSVC\14.44.35207\include\__msvc_string_view.hpp

; 459  :         return _CSTD strlen(reinterpret_cast<const char*>(_First));

  00022	8d 4e 01	 lea	 ecx, DWORD PTR [esi+1]
$LL51@basic_stri:
  00025	8a 06		 mov	 al, BYTE PTR [esi]
  00027	46		 inc	 esi
  00028	84 c0		 test	 al, al
  0002a	75 f9		 jne	 SHORT $LL51@basic_stri
  0002c	2b f1		 sub	 esi, ecx
; File C:\Program Files\Microsoft Visual Studio\2022\Professional\VC\Tools\MSVC\14.44.35207\include\xstring

; 881  :         if (_Count > max_size()) {

  0002e	81 fe ff ff ff
	7f		 cmp	 esi, 2147483647		; 7fffffffH
  00034	0f 87 9b 00 00
	00		 ja	 $LN62@basic_stri

; 883  :         }
; 884  : 
; 885  :         auto& _Al       = _Getal();
; 886  :         auto&& _Alproxy = _GET_PROXY_ALLOCATOR(_Alty, _Al);
; 887  :         _Container_proxy_ptr<_Alty> _Proxy(_Alproxy, _My_data);
; 888  : 
; 889  :         if (_Count <= _Small_string_capacity) {

  0003a	83 fe 0f	 cmp	 esi, 15			; 0000000fH
  0003d	77 24		 ja	 SHORT $LN21@basic_stri
; File C:\Program Files\Microsoft Visual Studio\2022\Professional\VC\Tools\MSVC\14.44.35207\include\__msvc_string_view.hpp

; 121  :         _CSTD memcpy(_First1, _First2, _Count * sizeof(_Elem));

  0003f	56		 push	 esi
  00040	57		 push	 edi
  00041	53		 push	 ebx
; File C:\Program Files\Microsoft Visual Studio\2022\Professional\VC\Tools\MSVC\14.44.35207\include\xstring

; 890  :             _My_data._Mysize = _Count;

  00042	89 73 10	 mov	 DWORD PTR [ebx+16], esi

; 891  :             _My_data._Myres  = _Small_string_capacity;

  00045	c7 43 14 0f 00
	00 00		 mov	 DWORD PTR [ebx+20], 15	; 0000000fH
; File C:\Program Files\Microsoft Visual Studio\2022\Professional\VC\Tools\MSVC\14.44.35207\include\__msvc_string_view.hpp

; 121  :         _CSTD memcpy(_First1, _First2, _Count * sizeof(_Elem));

  0004c	e8 00 00 00 00	 call	 _memcpy
; File C:\Program Files\Microsoft Visual Studio\2022\Professional\VC\Tools\MSVC\14.44.35207\include\xstring

; 898  :                 _Traits::assign(_My_data._Bx._Buf[_Count], _Elem());

  00051	c6 04 1e 00	 mov	 BYTE PTR [esi+ebx], 0

; 769  :         _Construct<_Construct_strategy::_From_ptr>(_Ptr, _Convert_size<size_type>(_Traits::length(_Ptr)));
; 770  :     }

  00055	83 c4 0c	 add	 esp, 12			; 0000000cH
  00058	8b c3		 mov	 eax, ebx
  0005a	5f		 pop	 edi
  0005b	5e		 pop	 esi
  0005c	5b		 pop	 ebx
  0005d	8b e5		 mov	 esp, ebp
  0005f	5d		 pop	 ebp
  00060	c2 04 00	 ret	 4
$LN21@basic_stri:

; 2978 :         const size_type _Masked = _Requested | _Alloc_mask;

  00063	8b fe		 mov	 edi, esi
  00065	83 cf 0f	 or	 edi, 15			; 0000000fH
  00068	81 ff ff ff ff
	7f		 cmp	 edi, 2147483647		; 7fffffffH

; 2979 :         if (_Masked > _Max) { // the mask overflows, settle for max_size()

  0006e	76 12		 jbe	 SHORT $LN27@basic_stri

; 2980 :             return _Max;

  00070	b8 00 00 00 80	 mov	 eax, -2147483648	; 80000000H
  00075	bf ff ff ff 7f	 mov	 edi, 2147483647		; 7fffffffH
; File C:\Program Files\Microsoft Visual Studio\2022\Professional\VC\Tools\MSVC\14.44.35207\include\xmemory

; 253  :             return _Allocate_manually_vector_aligned<_Traits>(_Bytes);

  0007a	50		 push	 eax
  0007b	e8 00 00 00 00	 call	 ??$_Allocate_manually_vector_aligned@U_Default_allocate_traits@std@@@std@@YAPAXI@Z ; std::_Allocate_manually_vector_aligned<std::_Default_allocate_traits>
  00080	eb 26		 jmp	 SHORT $LN60@basic_stri
$LN27@basic_stri:
; File C:\Program Files\Microsoft Visual Studio\2022\Professional\VC\Tools\MSVC\14.44.35207\include\xstring

; 2987 :         return (_STD max)(_Masked, _Old + _Old / 2);

  00082	b8 16 00 00 00	 mov	 eax, 22			; 00000016H
  00087	3b f8		 cmp	 edi, eax
  00089	0f 42 f8	 cmovb	 edi, eax

; 825  :         ++_Capacity; // Take null terminator into consideration

  0008c	8d 47 01	 lea	 eax, DWORD PTR [edi+1]
; File C:\Program Files\Microsoft Visual Studio\2022\Professional\VC\Tools\MSVC\14.44.35207\include\xmemory

; 227  :     if (_Bytes == 0) {

  0008f	85 c0		 test	 eax, eax
  00091	74 18		 je	 SHORT $LN59@basic_stri
$LN41@basic_stri:

; 228  :         return nullptr;
; 229  :     }
; 230  : 
; 231  : #if _HAS_CXX20 // TRANSITION, GH-1532
; 232  :     if (_STD is_constant_evaluated()) {
; 233  :         return _Traits::_Allocate(_Bytes);
; 234  :     }
; 235  : #endif // _HAS_CXX20
; 236  : 
; 237  : #ifdef __cpp_aligned_new
; 238  :     if constexpr (_Align > __STDCPP_DEFAULT_NEW_ALIGNMENT__) {
; 239  :         size_t _Passed_align = _Align;
; 240  : #if defined(_M_IX86) || defined(_M_X64)
; 241  :         if (_Bytes >= _Big_allocation_threshold) {
; 242  :             // boost the alignment of big allocations to help autovectorization
; 243  :             _Passed_align = (_STD max)(_Align, _Big_allocation_alignment);
; 244  :         }
; 245  : #endif // defined(_M_IX86) || defined(_M_X64)
; 246  :         return _Traits::_Allocate_aligned(_Bytes, _Passed_align);
; 247  :     } else
; 248  : #endif // defined(__cpp_aligned_new)
; 249  :     {
; 250  : #if defined(_M_IX86) || defined(_M_X64)
; 251  :         if (_Bytes >= _Big_allocation_threshold) {

  00093	3d 00 10 00 00	 cmp	 eax, 4096		; 00001000H
  00098	72 08		 jb	 SHORT $LN42@basic_stri

; 253  :             return _Allocate_manually_vector_aligned<_Traits>(_Bytes);

  0009a	50		 push	 eax
  0009b	e8 00 00 00 00	 call	 ??$_Allocate_manually_vector_aligned@U_Default_allocate_traits@std@@@std@@YAPAXI@Z ; std::_Allocate_manually_vector_aligned<std::_Default_allocate_traits>
  000a0	eb 06		 jmp	 SHORT $LN60@basic_stri
$LN42@basic_stri:

; 136  :         return ::operator new(_Bytes);

  000a2	50		 push	 eax
  000a3	e8 00 00 00 00	 call	 ??2@YAPAXI@Z		; operator new
$LN60@basic_stri:
; File C:\Program Files\Microsoft Visual Studio\2022\Professional\VC\Tools\MSVC\14.44.35207\include\xstring

; 913  :         _Construct_in_place(_My_data._Bx._Ptr, _New_ptr);

  000a8	83 c4 04	 add	 esp, 4
$LN59@basic_stri:
; File C:\Program Files\Microsoft Visual Studio\2022\Professional\VC\Tools\MSVC\14.44.35207\include\__msvc_string_view.hpp

; 121  :         _CSTD memcpy(_First1, _First2, _Count * sizeof(_Elem));

  000ab	56		 push	 esi
  000ac	ff 75 08	 push	 DWORD PTR __Ptr$[ebp]
; File C:\Program Files\Microsoft Visual Studio\2022\Professional\VC\Tools\MSVC\14.44.35207\include\xstring

; 913  :         _Construct_in_place(_My_data._Bx._Ptr, _New_ptr);

  000af	89 45 fc	 mov	 DWORD PTR $T1[ebp], eax
; File C:\Program Files\Microsoft Visual Studio\2022\Professional\VC\Tools\MSVC\14.44.35207\include\__msvc_string_view.hpp

; 121  :         _CSTD memcpy(_First1, _First2, _Count * sizeof(_Elem));

  000b2	50		 push	 eax
; File C:\Program Files\Microsoft Visual Studio\2022\Professional\VC\Tools\MSVC\14.44.35207\include\xstring

; 913  :         _Construct_in_place(_My_data._Bx._Ptr, _New_ptr);

  000b3	89 03		 mov	 DWORD PTR [ebx], eax

; 914  : 
; 915  :         _My_data._Mysize = _Count;

  000b5	89 73 10	 mov	 DWORD PTR [ebx+16], esi

; 916  :         _My_data._Myres  = _New_capacity;

  000b8	89 7b 14	 mov	 DWORD PTR [ebx+20], edi
; File C:\Program Files\Microsoft Visual Studio\2022\Professional\VC\Tools\MSVC\14.44.35207\include\__msvc_string_view.hpp

; 121  :         _CSTD memcpy(_First1, _First2, _Count * sizeof(_Elem));

  000bb	e8 00 00 00 00	 call	 _memcpy
; File C:\Program Files\Microsoft Visual Studio\2022\Professional\VC\Tools\MSVC\14.44.35207\include\xstring

; 922  :             _Traits::assign(_Unfancy(_New_ptr)[_Count], _Elem());

  000c0	8b 45 fc	 mov	 eax, DWORD PTR $T1[ebp]

; 769  :         _Construct<_Construct_strategy::_From_ptr>(_Ptr, _Convert_size<size_type>(_Traits::length(_Ptr)));
; 770  :     }

  000c3	83 c4 0c	 add	 esp, 12			; 0000000cH
  000c6	5f		 pop	 edi

; 922  :             _Traits::assign(_Unfancy(_New_ptr)[_Count], _Elem());

  000c7	c6 04 30 00	 mov	 BYTE PTR [eax+esi], 0

; 769  :         _Construct<_Construct_strategy::_From_ptr>(_Ptr, _Convert_size<size_type>(_Traits::length(_Ptr)));
; 770  :     }

  000cb	8b c3		 mov	 eax, ebx
  000cd	5e		 pop	 esi
  000ce	5b		 pop	 ebx
  000cf	8b e5		 mov	 esp, ebp
  000d1	5d		 pop	 ebp
  000d2	c2 04 00	 ret	 4
$LN62@basic_stri:

; 882  :             _Xlen_string(); // result too long

  000d5	e8 00 00 00 00	 call	 ?_Xlen_string@std@@YAXXZ ; std::_Xlen_string
$LN57@basic_stri:
  000da	cc		 int	 3
??0?$basic_string@DU?$char_traits@D@std@@V?$allocator@D@2@@std@@QAE@QBD@Z ENDP ; std::basic_string<char,std::char_traits<char>,std::allocator<char> >::basic_string<char,std::char_traits<char>,std::allocator<char> >
_TEXT	ENDS
; Function compile flags: /Ogtp
; File C:\Program Files\Microsoft Visual Studio\2022\Professional\VC\Tools\MSVC\14.44.35207\include\xstring
;	COMDAT ?_Xlen_string@std@@YAXXZ
_TEXT	SEGMENT
?_Xlen_string@std@@YAXXZ PROC				; std::_Xlen_string, COMDAT

; 531  :     _Xlength_error("string too long");

  00000	68 00 00 00 00	 push	 OFFSET ??_C@_0BA@JFNIOLAK@string?5too?5long@
  00005	e8 00 00 00 00	 call	 ?_Xlength_error@std@@YAXPBD@Z ; std::_Xlength_error
$LN3@Xlen_strin:
  0000a	cc		 int	 3
?_Xlen_string@std@@YAXXZ ENDP				; std::_Xlen_string
_TEXT	ENDS
; Function compile flags: /Ogtp
; File C:\Program Files\Microsoft Visual Studio\2022\Professional\VC\Tools\MSVC\14.44.35207\include\xmemory
;	COMDAT ?_Throw_bad_array_new_length@std@@YAXXZ
_TEXT	SEGMENT
$T1 = -12						; size = 12
?_Throw_bad_array_new_length@std@@YAXXZ PROC		; std::_Throw_bad_array_new_length, COMDAT

; 107  : [[noreturn]] inline void _Throw_bad_array_new_length() {

  00000	55		 push	 ebp
  00001	8b ec		 mov	 ebp, esp
  00003	83 ec 0c	 sub	 esp, 12			; 0000000cH

; 108  :     _THROW(bad_array_new_length{});

  00006	8d 4d f4	 lea	 ecx, DWORD PTR $T1[ebp]
  00009	e8 00 00 00 00	 call	 ??0bad_array_new_length@std@@QAE@XZ ; std::bad_array_new_length::bad_array_new_length
  0000e	68 00 00 00 00	 push	 OFFSET __TI3?AVbad_array_new_length@std@@
  00013	8d 45 f4	 lea	 eax, DWORD PTR $T1[ebp]
  00016	50		 push	 eax
  00017	e8 00 00 00 00	 call	 __CxxThrowException@8
$LN3@Throw_bad_:
  0001c	cc		 int	 3
?_Throw_bad_array_new_length@std@@YAXXZ ENDP		; std::_Throw_bad_array_new_length
_TEXT	ENDS
; Function compile flags: /Ogtp
; File C:\Program Files\Microsoft Visual Studio\2022\Professional\VC\Tools\MSVC\14.44.35207\include\vcruntime_exception.h
;	COMDAT ??_Gbad_array_new_length@std@@UAEPAXI@Z
_TEXT	SEGMENT
___flags$ = 8						; size = 4
??_Gbad_array_new_length@std@@UAEPAXI@Z PROC		; std::bad_array_new_length::`scalar deleting destructor', COMDAT
; _this$ = ecx
  00000	55		 push	 ebp
  00001	8b ec		 mov	 ebp, esp

; 90   :     {

  00003	56		 push	 esi
  00004	8b f1		 mov	 esi, ecx

; 91   :         __std_exception_destroy(&_Data);

  00006	8d 46 04	 lea	 eax, DWORD PTR [esi+4]
  00009	c7 06 00 00 00
	00		 mov	 DWORD PTR [esi], OFFSET ??_7exception@std@@6B@
  0000f	50		 push	 eax
  00010	e8 00 00 00 00	 call	 ___std_exception_destroy
  00015	83 c4 04	 add	 esp, 4
  00018	f6 45 08 01	 test	 BYTE PTR ___flags$[ebp], 1
  0001c	74 0b		 je	 SHORT $LN18@scalar
  0001e	6a 0c		 push	 12			; 0000000cH
  00020	56		 push	 esi
  00021	e8 00 00 00 00	 call	 ??3@YAXPAXI@Z		; operator delete
  00026	83 c4 08	 add	 esp, 8
$LN18@scalar:
  00029	8b c6		 mov	 eax, esi
  0002b	5e		 pop	 esi
  0002c	5d		 pop	 ebp
  0002d	c2 04 00	 ret	 4
??_Gbad_array_new_length@std@@UAEPAXI@Z ENDP		; std::bad_array_new_length::`scalar deleting destructor'
_TEXT	ENDS
; Function compile flags: /Ogtp
; File C:\Program Files\Microsoft Visual Studio\2022\Professional\VC\Tools\MSVC\14.44.35207\include\vcruntime_exception.h
;	COMDAT ??0bad_array_new_length@std@@QAE@ABV01@@Z
_TEXT	SEGMENT
___that$ = 8						; size = 4
??0bad_array_new_length@std@@QAE@ABV01@@Z PROC		; std::bad_array_new_length::bad_array_new_length, COMDAT
; _this$ = ecx
  00000	55		 push	 ebp
  00001	8b ec		 mov	 ebp, esp

; 73   :     {

  00003	56		 push	 esi
  00004	8b f1		 mov	 esi, ecx
  00006	0f 57 c0	 xorps	 xmm0, xmm0

; 72   :         : _Data()

  00009	8d 46 04	 lea	 eax, DWORD PTR [esi+4]

; 74   :         __std_exception_copy(&_Other._Data, &_Data);

  0000c	50		 push	 eax
  0000d	c7 06 00 00 00
	00		 mov	 DWORD PTR [esi], OFFSET ??_7exception@std@@6B@
  00013	66 0f d6 00	 movq	 QWORD PTR [eax], xmm0
  00017	8b 45 08	 mov	 eax, DWORD PTR ___that$[ebp]
  0001a	83 c0 04	 add	 eax, 4
  0001d	50		 push	 eax
  0001e	e8 00 00 00 00	 call	 ___std_exception_copy
  00023	83 c4 08	 add	 esp, 8
  00026	c7 06 00 00 00
	00		 mov	 DWORD PTR [esi], OFFSET ??_7bad_array_new_length@std@@6B@
  0002c	8b c6		 mov	 eax, esi
  0002e	5e		 pop	 esi
  0002f	5d		 pop	 ebp
  00030	c2 04 00	 ret	 4
??0bad_array_new_length@std@@QAE@ABV01@@Z ENDP		; std::bad_array_new_length::bad_array_new_length
_TEXT	ENDS
; Function compile flags: /Ogtp
; File C:\Program Files\Microsoft Visual Studio\2022\Professional\VC\Tools\MSVC\14.44.35207\include\vcruntime_exception.h
;	COMDAT ??1bad_array_new_length@std@@UAE@XZ
_TEXT	SEGMENT
??1bad_array_new_length@std@@UAE@XZ PROC		; std::bad_array_new_length::~bad_array_new_length, COMDAT
; _this$ = ecx

; 91   :         __std_exception_destroy(&_Data);

  00000	8d 41 04	 lea	 eax, DWORD PTR [ecx+4]
  00003	c7 01 00 00 00
	00		 mov	 DWORD PTR [ecx], OFFSET ??_7exception@std@@6B@
  00009	50		 push	 eax
  0000a	e8 00 00 00 00	 call	 ___std_exception_destroy
  0000f	59		 pop	 ecx
  00010	c3		 ret	 0
??1bad_array_new_length@std@@UAE@XZ ENDP		; std::bad_array_new_length::~bad_array_new_length
_TEXT	ENDS
; Function compile flags: /Ogtp
; File C:\Program Files\Microsoft Visual Studio\2022\Professional\VC\Tools\MSVC\14.44.35207\include\vcruntime_exception.h
;	COMDAT ??0bad_array_new_length@std@@QAE@XZ
_TEXT	SEGMENT
??0bad_array_new_length@std@@QAE@XZ PROC		; std::bad_array_new_length::bad_array_new_length, COMDAT
; _this$ = ecx

; 144  :     {

  00000	0f 57 c0	 xorps	 xmm0, xmm0

; 145  :     }

  00003	8b c1		 mov	 eax, ecx

; 66   :         : _Data()

  00005	66 0f d6 41 04	 movq	 QWORD PTR [ecx+4], xmm0

; 67   :     {
; 68   :         _Data._What = _Message;

  0000a	c7 41 04 00 00
	00 00		 mov	 DWORD PTR [ecx+4], OFFSET ??_C@_0BF@KINCDENJ@bad?5array?5new?5length@

; 144  :     {

  00011	c7 01 00 00 00
	00		 mov	 DWORD PTR [ecx], OFFSET ??_7bad_array_new_length@std@@6B@

; 145  :     }

  00017	c3		 ret	 0
??0bad_array_new_length@std@@QAE@XZ ENDP		; std::bad_array_new_length::bad_array_new_length
_TEXT	ENDS
; Function compile flags: /Ogtp
; File C:\Program Files\Microsoft Visual Studio\2022\Professional\VC\Tools\MSVC\14.44.35207\include\vcruntime_exception.h
;	COMDAT ??_Gbad_alloc@std@@UAEPAXI@Z
_TEXT	SEGMENT
___flags$ = 8						; size = 4
??_Gbad_alloc@std@@UAEPAXI@Z PROC			; std::bad_alloc::`scalar deleting destructor', COMDAT
; _this$ = ecx
  00000	55		 push	 ebp
  00001	8b ec		 mov	 ebp, esp

; 90   :     {

  00003	56		 push	 esi
  00004	8b f1		 mov	 esi, ecx

; 91   :         __std_exception_destroy(&_Data);

  00006	8d 46 04	 lea	 eax, DWORD PTR [esi+4]
  00009	c7 06 00 00 00
	00		 mov	 DWORD PTR [esi], OFFSET ??_7exception@std@@6B@
  0000f	50		 push	 eax
  00010	e8 00 00 00 00	 call	 ___std_exception_destroy
  00015	83 c4 04	 add	 esp, 4
  00018	f6 45 08 01	 test	 BYTE PTR ___flags$[ebp], 1
  0001c	74 0b		 je	 SHORT $LN13@scalar
  0001e	6a 0c		 push	 12			; 0000000cH
  00020	56		 push	 esi
  00021	e8 00 00 00 00	 call	 ??3@YAXPAXI@Z		; operator delete
  00026	83 c4 08	 add	 esp, 8
$LN13@scalar:
  00029	8b c6		 mov	 eax, esi
  0002b	5e		 pop	 esi
  0002c	5d		 pop	 ebp
  0002d	c2 04 00	 ret	 4
??_Gbad_alloc@std@@UAEPAXI@Z ENDP			; std::bad_alloc::`scalar deleting destructor'
_TEXT	ENDS
; Function compile flags: /Ogtp
; File C:\Program Files\Microsoft Visual Studio\2022\Professional\VC\Tools\MSVC\14.44.35207\include\vcruntime_exception.h
;	COMDAT ??0bad_alloc@std@@QAE@ABV01@@Z
_TEXT	SEGMENT
___that$ = 8						; size = 4
??0bad_alloc@std@@QAE@ABV01@@Z PROC			; std::bad_alloc::bad_alloc, COMDAT
; _this$ = ecx
  00000	55		 push	 ebp
  00001	8b ec		 mov	 ebp, esp

; 73   :     {

  00003	56		 push	 esi
  00004	8b f1		 mov	 esi, ecx
  00006	0f 57 c0	 xorps	 xmm0, xmm0

; 72   :         : _Data()

  00009	8d 46 04	 lea	 eax, DWORD PTR [esi+4]

; 74   :         __std_exception_copy(&_Other._Data, &_Data);

  0000c	50		 push	 eax
  0000d	c7 06 00 00 00
	00		 mov	 DWORD PTR [esi], OFFSET ??_7exception@std@@6B@
  00013	66 0f d6 00	 movq	 QWORD PTR [eax], xmm0
  00017	8b 45 08	 mov	 eax, DWORD PTR ___that$[ebp]
  0001a	83 c0 04	 add	 eax, 4
  0001d	50		 push	 eax
  0001e	e8 00 00 00 00	 call	 ___std_exception_copy
  00023	83 c4 08	 add	 esp, 8
  00026	c7 06 00 00 00
	00		 mov	 DWORD PTR [esi], OFFSET ??_7bad_alloc@std@@6B@
  0002c	8b c6		 mov	 eax, esi
  0002e	5e		 pop	 esi
  0002f	5d		 pop	 ebp
  00030	c2 04 00	 ret	 4
??0bad_alloc@std@@QAE@ABV01@@Z ENDP			; std::bad_alloc::bad_alloc
_TEXT	ENDS
; Function compile flags: /Ogtp
; File C:\Program Files\Microsoft Visual Studio\2022\Professional\VC\Tools\MSVC\14.44.35207\include\vcruntime_exception.h
;	COMDAT ??_Gexception@std@@UAEPAXI@Z
_TEXT	SEGMENT
___flags$ = 8						; size = 4
??_Gexception@std@@UAEPAXI@Z PROC			; std::exception::`scalar deleting destructor', COMDAT
; _this$ = ecx
  00000	55		 push	 ebp
  00001	8b ec		 mov	 ebp, esp

; 90   :     {

  00003	56		 push	 esi
  00004	8b f1		 mov	 esi, ecx

; 91   :         __std_exception_destroy(&_Data);

  00006	8d 46 04	 lea	 eax, DWORD PTR [esi+4]
  00009	c7 06 00 00 00
	00		 mov	 DWORD PTR [esi], OFFSET ??_7exception@std@@6B@
  0000f	50		 push	 eax
  00010	e8 00 00 00 00	 call	 ___std_exception_destroy
  00015	83 c4 04	 add	 esp, 4
  00018	f6 45 08 01	 test	 BYTE PTR ___flags$[ebp], 1
  0001c	74 0b		 je	 SHORT $LN8@scalar
  0001e	6a 0c		 push	 12			; 0000000cH
  00020	56		 push	 esi
  00021	e8 00 00 00 00	 call	 ??3@YAXPAXI@Z		; operator delete
  00026	83 c4 08	 add	 esp, 8
$LN8@scalar:
  00029	8b c6		 mov	 eax, esi
  0002b	5e		 pop	 esi
  0002c	5d		 pop	 ebp
  0002d	c2 04 00	 ret	 4
??_Gexception@std@@UAEPAXI@Z ENDP			; std::exception::`scalar deleting destructor'
_TEXT	ENDS
; Function compile flags: /Ogtp
; File C:\Program Files\Microsoft Visual Studio\2022\Professional\VC\Tools\MSVC\14.44.35207\include\vcruntime_exception.h
;	COMDAT ?what@exception@std@@UBEPBDXZ
_TEXT	SEGMENT
?what@exception@std@@UBEPBDXZ PROC			; std::exception::what, COMDAT
; _this$ = ecx

; 96   :         return _Data._What ? _Data._What : "Unknown exception";

  00000	8b 49 04	 mov	 ecx, DWORD PTR [ecx+4]
  00003	b8 00 00 00 00	 mov	 eax, OFFSET ??_C@_0BC@EOODALEL@Unknown?5exception@
  00008	85 c9		 test	 ecx, ecx
  0000a	0f 45 c1	 cmovne	 eax, ecx

; 97   :     }

  0000d	c3		 ret	 0
?what@exception@std@@UBEPBDXZ ENDP			; std::exception::what
_TEXT	ENDS
; Function compile flags: /Ogtp
; File C:\Program Files\Microsoft Visual Studio\2022\Professional\VC\Tools\MSVC\14.44.35207\include\vcruntime_exception.h
;	COMDAT ??1exception@std@@UAE@XZ
_TEXT	SEGMENT
??1exception@std@@UAE@XZ PROC				; std::exception::~exception, COMDAT
; _this$ = ecx

; 91   :         __std_exception_destroy(&_Data);

  00000	8d 41 04	 lea	 eax, DWORD PTR [ecx+4]
  00003	c7 01 00 00 00
	00		 mov	 DWORD PTR [ecx], OFFSET ??_7exception@std@@6B@
  00009	50		 push	 eax
  0000a	e8 00 00 00 00	 call	 ___std_exception_destroy
  0000f	59		 pop	 ecx

; 92   :     }

  00010	c3		 ret	 0
??1exception@std@@UAE@XZ ENDP				; std::exception::~exception
_TEXT	ENDS
; Function compile flags: /Ogtp
; File C:\Program Files\Microsoft Visual Studio\2022\Professional\VC\Tools\MSVC\14.44.35207\include\vcruntime_exception.h
;	COMDAT ??0exception@std@@QAE@ABV01@@Z
_TEXT	SEGMENT
__Other$ = 8						; size = 4
??0exception@std@@QAE@ABV01@@Z PROC			; std::exception::exception, COMDAT
; _this$ = ecx

; 73   :     {

  00000	55		 push	 ebp
  00001	8b ec		 mov	 ebp, esp
  00003	56		 push	 esi
  00004	8b f1		 mov	 esi, ecx
  00006	0f 57 c0	 xorps	 xmm0, xmm0
  00009	8d 46 04	 lea	 eax, DWORD PTR [esi+4]

; 74   :         __std_exception_copy(&_Other._Data, &_Data);

  0000c	50		 push	 eax
  0000d	c7 06 00 00 00
	00		 mov	 DWORD PTR [esi], OFFSET ??_7exception@std@@6B@
  00013	66 0f d6 00	 movq	 QWORD PTR [eax], xmm0
  00017	8b 45 08	 mov	 eax, DWORD PTR __Other$[ebp]
  0001a	83 c0 04	 add	 eax, 4
  0001d	50		 push	 eax
  0001e	e8 00 00 00 00	 call	 ___std_exception_copy
  00023	83 c4 08	 add	 esp, 8

; 75   :     }

  00026	8b c6		 mov	 eax, esi
  00028	5e		 pop	 esi
  00029	5d		 pop	 ebp
  0002a	c2 04 00	 ret	 4
??0exception@std@@QAE@ABV01@@Z ENDP			; std::exception::exception
_TEXT	ENDS
; Function compile flags: /Ogtp
; File C:\Program Files\Microsoft Visual Studio\2022\Professional\VC\Tools\MSVC\14.44.35207\atlmfc\include\cstringt.h
; File C:\Program Files\Microsoft Visual Studio\2022\Professional\VC\Tools\MSVC\14.44.35207\atlmfc\include\atlsimpstr.h
; File C:\Program Files\Microsoft Visual Studio\2022\Professional\VC\Tools\MSVC\14.44.35207\atlmfc\include\cstringt.h
;	COMDAT ??1?$CStringT@DV?$StrTraitMFC@DV?$ChTraitsCRT@D@ATL@@@@@ATL@@QAE@XZ
_TEXT	SEGMENT
??1?$CStringT@DV?$StrTraitMFC@DV?$ChTraitsCRT@D@ATL@@@@@ATL@@QAE@XZ PROC ; ATL::CStringT<char,StrTraitMFC<char,ATL::ChTraitsCRT<char> > >::~CStringT<char,StrTraitMFC<char,ATL::ChTraitsCRT<char> > >, COMDAT
; _this$ = ecx
; File C:\Program Files\Microsoft Visual Studio\2022\Professional\VC\Tools\MSVC\14.44.35207\atlmfc\include\atlsimpstr.h

; 804  : 		return( reinterpret_cast< CStringData* >( m_pszData )-1 );

  00000	8b 11		 mov	 edx, DWORD PTR [ecx]

; 92   : 		if( _InterlockedDecrement( &nRefs ) <= 0 )

  00002	83 c8 ff	 or	 eax, -1

; 804  : 		return( reinterpret_cast< CStringData* >( m_pszData )-1 );

  00005	83 ea 10	 sub	 edx, 16			; 00000010H

; 92   : 		if( _InterlockedDecrement( &nRefs ) <= 0 )

  00008	f0 0f c1 42 0c	 lock	  xadd	 DWORD PTR [edx+12], eax
  0000d	48		 dec	 eax
  0000e	85 c0		 test	 eax, eax
  00010	7f 08		 jg	 SHORT $LN8@CStringT

; 93   : 		{
; 94   : 			pStringMgr->Free( this );

  00012	8b 0a		 mov	 ecx, DWORD PTR [edx]
  00014	52		 push	 edx
  00015	8b 01		 mov	 eax, DWORD PTR [ecx]
  00017	ff 50 04	 call	 DWORD PTR [eax+4]
$LN8@CStringT:
; File C:\Program Files\Microsoft Visual Studio\2022\Professional\VC\Tools\MSVC\14.44.35207\atlmfc\include\cstringt.h

; 1303 : 	}

  0001a	c3		 ret	 0
??1?$CStringT@DV?$StrTraitMFC@DV?$ChTraitsCRT@D@ATL@@@@@ATL@@QAE@XZ ENDP ; ATL::CStringT<char,StrTraitMFC<char,ATL::ChTraitsCRT<char> > >::~CStringT<char,StrTraitMFC<char,ATL::ChTraitsCRT<char> > >
_TEXT	ENDS
; Function compile flags: /Ogtp
; File C:\IAGOS\server\v18\Source\Source\_Common\object3d.cpp
;	COMDAT ?__empty_global_delete@@YAXPAXI@Z
_TEXT	SEGMENT
___formal$ = 8						; size = 4
___formal$ = 12						; size = 4
?__empty_global_delete@@YAXPAXI@Z PROC			; __empty_global_delete, COMDAT

  00000	c2 00 00	 ret	 0
?__empty_global_delete@@YAXPAXI@Z ENDP			; __empty_global_delete
_TEXT	ENDS
; Function compile flags: /Ogtp
; File C:\IAGOS\server\v18\Source\Source\_Common\object3d.cpp
;	COMDAT ?__empty_global_delete@@YAXPAX@Z
_TEXT	SEGMENT
___formal$ = 8						; size = 4
?__empty_global_delete@@YAXPAX@Z PROC			; __empty_global_delete, COMDAT

  00000	c2 00 00	 ret	 0
?__empty_global_delete@@YAXPAX@Z ENDP			; __empty_global_delete
_TEXT	ENDS
; Function compile flags: /Ogtp
;	COMDAT ??_H@YGXPAXIIP6EPAX0@Z@Z
_TEXT	SEGMENT
___t$ = 8						; size = 4
___s$ = 12						; size = 4
___n$ = 16						; size = 4
___f$ = 20						; size = 4
??_H@YGXPAXIIP6EPAX0@Z@Z PROC				; `vector constructor iterator', COMDAT
  00000	55		 push	 ebp
  00001	8b ec		 mov	 ebp, esp
  00003	56		 push	 esi
  00004	8b 75 10	 mov	 esi, DWORD PTR ___n$[ebp]
  00007	85 f6		 test	 esi, esi
  00009	74 16		 je	 SHORT $LN6@vector
  0000b	53		 push	 ebx
  0000c	8b 5d 14	 mov	 ebx, DWORD PTR ___f$[ebp]
  0000f	57		 push	 edi
  00010	8b 7d 08	 mov	 edi, DWORD PTR ___t$[ebp]
$LL2@vector:
  00013	8b cf		 mov	 ecx, edi
  00015	ff d3		 call	 ebx
  00017	03 7d 0c	 add	 edi, DWORD PTR ___s$[ebp]
  0001a	83 ee 01	 sub	 esi, 1
  0001d	75 f4		 jne	 SHORT $LL2@vector
  0001f	5f		 pop	 edi
  00020	5b		 pop	 ebx
$LN6@vector:
  00021	5e		 pop	 esi
  00022	5d		 pop	 ebp
  00023	c2 10 00	 ret	 16			; 00000010H
??_H@YGXPAXIIP6EPAX0@Z@Z ENDP				; `vector constructor iterator'
_TEXT	ENDS
END
