; Listing generated by Microsoft (R) Optimizing Compiler Version 19.44.35225.0 

	TITLE	C:\IAGOS\server\v18\Source\Output\WorldServer\Release\ObjSerializeOpt.obj
	.686P
	.XMM
	include listing.inc
	.model	flat

INCLUDELIB LIBCMT
INCLUDELIB OLDNAMES

PUBLIC	?__empty_global_delete@@YAXPAX@Z		; __empty_global_delete
PUBLIC	?__empty_global_delete@@YAXPAXI@Z		; __empty_global_delete
PUBLIC	??0D3DXVECTOR3@@QAE@XZ				; D3DXVECTOR3::D3DXVECTOR3
PUBLIC	?Serialize@CObj@@UAEXAAVCAr@@@Z			; CObj::Serialize
PUBLIC	?GetAt@?$CItemContainer@VCItemElem@@@@QAEPAVCItemElem@@K@Z ; CItemContainer<CItemElem>::GetAt
PUBLIC	?GetEquip@?$CItemContainer@VCItemElem@@@@QAEPAVCItemElem@@K@Z ; CItemContainer<CItemElem>::GetEquip
PUBLIC	?GetAtId@?$CItemContainer@VCItemElem@@@@QAEPAVCItemElem@@K@Z ; CItemContainer<CItemElem>::GetAtId
PUBLIC	?Serialize@?$CItemContainer@VCItemElem@@@@QAEXAAVCAr@@@Z ; CItemContainer<CItemElem>::Serialize
PUBLIC	?Serialize@CMover@@UAEXAAVCAr@@@Z		; CMover::Serialize
PUBLIC	?OnApplySM@CMover@@QAEXXZ			; CMover::OnApplySM
PUBLIC	??$?6E@CAr@@QAEAAV0@ABE@Z			; CAr::operator<<<unsigned char>
PUBLIC	??$?6K@CAr@@QAEAAV0@ABK@Z			; CAr::operator<<<unsigned long>
PUBLIC	??$?6G@CAr@@QAEAAV0@ABG@Z			; CAr::operator<<<unsigned short>
PUBLIC	??$?6UD3DXVECTOR3@@@CAr@@QAEAAV0@ABUD3DXVECTOR3@@@Z ; CAr::operator<<<D3DXVECTOR3>
PUBLIC	??$?6F@CAr@@QAEAAV0@ABF@Z			; CAr::operator<<<short>
PUBLIC	??$?5E@CAr@@QAEAAV0@AAE@Z			; CAr::operator>><unsigned char>
PUBLIC	??$?5K@CAr@@QAEAAV0@AAK@Z			; CAr::operator>><unsigned long>
PUBLIC	??$?5G@CAr@@QAEAAV0@AAG@Z			; CAr::operator>><unsigned short>
PUBLIC	??$?5UD3DXVECTOR3@@@CAr@@QAEAAV0@AAUD3DXVECTOR3@@@Z ; CAr::operator>><D3DXVECTOR3>
PUBLIC	??$?5F@CAr@@QAEAAV0@AAF@Z			; CAr::operator>><short>
PUBLIC	??$?6J@CAr@@QAEAAV0@ABJ@Z			; CAr::operator<<<long>
PUBLIC	??$?6H@CAr@@QAEAAV0@ABH@Z			; CAr::operator<<<int>
PUBLIC	??$?6D@CAr@@QAEAAV0@ABD@Z			; CAr::operator<<<char>
PUBLIC	??$?6_J@CAr@@QAEAAV0@AB_J@Z			; CAr::operator<<<__int64>
PUBLIC	??$?6M@CAr@@QAEAAV0@ABM@Z			; CAr::operator<<<float>
PUBLIC	??$?5J@CAr@@QAEAAV0@AAJ@Z			; CAr::operator>><long>
PUBLIC	??$?5H@CAr@@QAEAAV0@AAH@Z			; CAr::operator>><int>
PUBLIC	??$?5D@CAr@@QAEAAV0@AAD@Z			; CAr::operator>><char>
PUBLIC	??$?5_J@CAr@@QAEAAV0@AA_J@Z			; CAr::operator>><__int64>
PUBLIC	??$?5M@CAr@@QAEAAV0@AAM@Z			; CAr::operator>><float>
PUBLIC	??_C@_00CNPNBAHC@@				; `string'
PUBLIC	??_C@_0BM@HMFGHCP@?$CFs?5min?3?$CFd?0?5max?3?$CFd?0?5index?3?$CFd@ ; `string'
PUBLIC	??_C@_0BI@BEIFNGEL@GetItemProp?5range_error@	; `string'
PUBLIC	??_C@_0BF@OJMCJNHH@GETEQUIP?1?1?$CFd?0?5?$CFd?0?5?$CFd@ ; `string'
PUBLIC	__real@3e4ccccd
PUBLIC	__real@41200000
PUBLIC	__real@42c80000
PUBLIC	__xmm@41f00000000000000000000000000000
EXTRN	__imp__GetTickCount@0:PROC
EXTRN	?WriteError@@YAXPBDZZ:PROC			; WriteError
EXTRN	?Error@@YAPBDPBDZZ:PROC				; Error
EXTRN	?SetAngle@CObj@@QAEXM@Z:PROC			; CObj::SetAngle
EXTRN	?Serialize@CCtrl@@UAEXAAVCAr@@@Z:PROC		; CCtrl::Serialize
EXTRN	?GetIndex@CPet@@QAEKXZ:PROC			; CPet::GetIndex
EXTRN	?Read@CAr@@QAEXPAXI@Z:PROC			; CAr::Read
EXTRN	?Write@CAr@@QAEXPBXI@Z:PROC			; CAr::Write
EXTRN	?CheckBuf@CAr@@QAEXI@Z:PROC			; CAr::CheckBuf
EXTRN	?WriteString@CAr@@QAEXPBD@Z:PROC		; CAr::WriteString
EXTRN	?ReadString@CAr@@QAEPADPADH@Z:PROC		; CAr::ReadString
EXTRN	?GetBuffer@CAr@@QAEPAEPAH@Z:PROC		; CAr::GetBuffer
EXTRN	?Serialize@CPocketController@@QAEXAAVCAr@@@Z:PROC ; CPocketController::Serialize
EXTRN	?Serialize@CBuffMgr@@QAEXAAVCAr@@@Z:PROC	; CBuffMgr::Serialize
EXTRN	?AddStateFlag@CAction@@QAEXK@Z:PROC		; CAction::AddStateFlag
EXTRN	?GetTitle@CVTInfo@@QAEPBDXZ:PROC		; CVTInfo::GetTitle
EXTRN	?SetTitle@CVTInfo@@QAEXPBD@Z:PROC		; CVTInfo::SetTitle
EXTRN	?GetPetItem@CMover@@QAEPAVCItemElem@@XZ:PROC	; CMover::GetPetItem
EXTRN	?ClearEquipInfo@CMover@@QAEXXZ:PROC		; CMover::ClearEquipInfo
EXTRN	?GetCharacter@CMover@@QAEPAUtagCHARACTER@@XZ:PROC ; CMover::GetCharacter
EXTRN	?SetDestParam@CMover@@QAEXHHHH@Z:PROC		; CMover::SetDestParam
EXTRN	?SetHairColor@CMover@@QAEXK@Z:PROC		; CMover::SetHairColor
EXTRN	@__security_check_cookie@4:PROC
EXTRN	_memset:PROC
EXTRN	?m_nMethod@CObj@@2HA:DWORD			; CObj::m_nMethod
EXTRN	?prj@@3VCProject@@A:BYTE			; prj
EXTRN	?g_AddSMMode@@3U_ADDSMMODE@@A:BYTE		; g_AddSMMode
EXTRN	___security_cookie:DWORD
EXTRN	__fltused:DWORD
;	COMDAT __xmm@41f00000000000000000000000000000
CONST	SEGMENT
__xmm@41f00000000000000000000000000000 DB 00H, 00H, 00H, 00H, 00H, 00H, 00H
	DB	00H, 00H, 00H, 00H, 00H, 00H, 00H, 0f0H, 'A'
CONST	ENDS
;	COMDAT __real@42c80000
CONST	SEGMENT
__real@42c80000 DD 042c80000r			; 100
CONST	ENDS
;	COMDAT __real@41200000
CONST	SEGMENT
__real@41200000 DD 041200000r			; 10
CONST	ENDS
;	COMDAT __real@3e4ccccd
CONST	SEGMENT
__real@3e4ccccd DD 03e4ccccdr			; 0.2
CONST	ENDS
;	COMDAT ??_C@_0BF@OJMCJNHH@GETEQUIP?1?1?$CFd?0?5?$CFd?0?5?$CFd@
CONST	SEGMENT
??_C@_0BF@OJMCJNHH@GETEQUIP?1?1?$CFd?0?5?$CFd?0?5?$CFd@ DB 'GETEQUIP//%d,'
	DB	' %d, %d', 00H				; `string'
CONST	ENDS
;	COMDAT ??_C@_0BI@BEIFNGEL@GetItemProp?5range_error@
CONST	SEGMENT
??_C@_0BI@BEIFNGEL@GetItemProp?5range_error@ DB 'GetItemProp range_error', 00H ; `string'
CONST	ENDS
;	COMDAT ??_C@_0BM@HMFGHCP@?$CFs?5min?3?$CFd?0?5max?3?$CFd?0?5index?3?$CFd@
CONST	SEGMENT
??_C@_0BM@HMFGHCP@?$CFs?5min?3?$CFd?0?5max?3?$CFd?0?5index?3?$CFd@ DB '%s'
	DB	' min:%d, max:%d, index:%d', 00H		; `string'
CONST	ENDS
;	COMDAT ??_C@_00CNPNBAHC@@
CONST	SEGMENT
??_C@_00CNPNBAHC@@ DB 00H				; `string'
CONST	ENDS
; Function compile flags: /Ogtp
; File C:\IAGOS\server\v18\Source\Source\_Network\Misc\Include\ar.h
;	COMDAT ??$?5M@CAr@@QAEAAV0@AAM@Z
_TEXT	SEGMENT
_t$ = 8							; size = 4
??$?5M@CAr@@QAEAAV0@AAM@Z PROC				; CAr::operator>><float>, COMDAT
; _this$ = ecx

; 302  : {

  00000	55		 push	 ebp
  00001	8b ec		 mov	 ebp, esp
  00003	8b d1		 mov	 edx, ecx

; 303  : 	if (m_lpBufCur + sizeof(T) <= m_lpBufMax)

  00005	8b 4a 08	 mov	 ecx, DWORD PTR [edx+8]
  00008	8d 41 04	 lea	 eax, DWORD PTR [ecx+4]
  0000b	3b 42 0c	 cmp	 eax, DWORD PTR [edx+12]
  0000e	8b 45 08	 mov	 eax, DWORD PTR _t$[ebp]
  00011	77 0e		 ja	 SHORT $LN2@operator

; 304  : 	{
; 305  : 		t = *(UNALIGNED T*)m_lpBufCur;

  00013	8b 09		 mov	 ecx, DWORD PTR [ecx]
  00015	89 08		 mov	 DWORD PTR [eax], ecx

; 312  : 	}
; 313  : 	return *this;
; 314  : }

  00017	8b c2		 mov	 eax, edx
  00019	83 42 08 04	 add	 DWORD PTR [edx+8], 4
  0001d	5d		 pop	 ebp
  0001e	c2 04 00	 ret	 4
$LN2@operator:

; 306  : 		m_lpBufCur += sizeof(T);
; 307  : 	}
; 308  : 	else
; 309  : 	{
; 310  : 		t = T();

  00021	c7 00 00 00 00
	00		 mov	 DWORD PTR [eax], 0

; 311  : 		m_lpBufCur = m_lpBufMax;

  00027	8b 42 0c	 mov	 eax, DWORD PTR [edx+12]
  0002a	89 42 08	 mov	 DWORD PTR [edx+8], eax

; 312  : 	}
; 313  : 	return *this;
; 314  : }

  0002d	8b c2		 mov	 eax, edx
  0002f	5d		 pop	 ebp
  00030	c2 04 00	 ret	 4
??$?5M@CAr@@QAEAAV0@AAM@Z ENDP				; CAr::operator>><float>
_TEXT	ENDS
; Function compile flags: /Ogtp
; File C:\IAGOS\server\v18\Source\Source\_Network\Misc\Include\ar.h
;	COMDAT ??$?5_J@CAr@@QAEAAV0@AA_J@Z
_TEXT	SEGMENT
_t$ = 8							; size = 4
??$?5_J@CAr@@QAEAAV0@AA_J@Z PROC			; CAr::operator>><__int64>, COMDAT
; _this$ = ecx

; 302  : {

  00000	55		 push	 ebp
  00001	8b ec		 mov	 ebp, esp
  00003	56		 push	 esi
  00004	8b f1		 mov	 esi, ecx

; 303  : 	if (m_lpBufCur + sizeof(T) <= m_lpBufMax)

  00006	8b 56 08	 mov	 edx, DWORD PTR [esi+8]
  00009	8d 42 08	 lea	 eax, DWORD PTR [edx+8]
  0000c	3b 46 0c	 cmp	 eax, DWORD PTR [esi+12]
  0000f	8b 45 08	 mov	 eax, DWORD PTR _t$[ebp]
  00012	77 15		 ja	 SHORT $LN2@operator

; 304  : 	{
; 305  : 		t = *(UNALIGNED T*)m_lpBufCur;

  00014	8b 0a		 mov	 ecx, DWORD PTR [edx]
  00016	8b 52 04	 mov	 edx, DWORD PTR [edx+4]
  00019	89 08		 mov	 DWORD PTR [eax], ecx
  0001b	89 50 04	 mov	 DWORD PTR [eax+4], edx

; 312  : 	}
; 313  : 	return *this;
; 314  : }

  0001e	8b c6		 mov	 eax, esi
  00020	83 46 08 08	 add	 DWORD PTR [esi+8], 8
  00024	5e		 pop	 esi
  00025	5d		 pop	 ebp
  00026	c2 04 00	 ret	 4
$LN2@operator:

; 306  : 		m_lpBufCur += sizeof(T);
; 307  : 	}
; 308  : 	else
; 309  : 	{
; 310  : 		t = T();

  00029	c7 00 00 00 00
	00		 mov	 DWORD PTR [eax], 0
  0002f	c7 40 04 00 00
	00 00		 mov	 DWORD PTR [eax+4], 0

; 311  : 		m_lpBufCur = m_lpBufMax;

  00036	8b 46 0c	 mov	 eax, DWORD PTR [esi+12]
  00039	89 46 08	 mov	 DWORD PTR [esi+8], eax

; 312  : 	}
; 313  : 	return *this;
; 314  : }

  0003c	8b c6		 mov	 eax, esi
  0003e	5e		 pop	 esi
  0003f	5d		 pop	 ebp
  00040	c2 04 00	 ret	 4
??$?5_J@CAr@@QAEAAV0@AA_J@Z ENDP			; CAr::operator>><__int64>
_TEXT	ENDS
; Function compile flags: /Ogtp
; File C:\IAGOS\server\v18\Source\Source\_Network\Misc\Include\ar.h
;	COMDAT ??$?5D@CAr@@QAEAAV0@AAD@Z
_TEXT	SEGMENT
_t$ = 8							; size = 4
??$?5D@CAr@@QAEAAV0@AAD@Z PROC				; CAr::operator>><char>, COMDAT
; _this$ = ecx

; 302  : {

  00000	55		 push	 ebp
  00001	8b ec		 mov	 ebp, esp
  00003	8b d1		 mov	 edx, ecx

; 303  : 	if (m_lpBufCur + sizeof(T) <= m_lpBufMax)

  00005	8b 4a 08	 mov	 ecx, DWORD PTR [edx+8]
  00008	8d 41 01	 lea	 eax, DWORD PTR [ecx+1]
  0000b	3b 42 0c	 cmp	 eax, DWORD PTR [edx+12]
  0000e	8b 45 08	 mov	 eax, DWORD PTR _t$[ebp]
  00011	77 0d		 ja	 SHORT $LN2@operator

; 304  : 	{
; 305  : 		t = *(UNALIGNED T*)m_lpBufCur;

  00013	8a 09		 mov	 cl, BYTE PTR [ecx]
  00015	88 08		 mov	 BYTE PTR [eax], cl

; 312  : 	}
; 313  : 	return *this;
; 314  : }

  00017	8b c2		 mov	 eax, edx
  00019	ff 42 08	 inc	 DWORD PTR [edx+8]
  0001c	5d		 pop	 ebp
  0001d	c2 04 00	 ret	 4
$LN2@operator:

; 306  : 		m_lpBufCur += sizeof(T);
; 307  : 	}
; 308  : 	else
; 309  : 	{
; 310  : 		t = T();

  00020	c6 00 00	 mov	 BYTE PTR [eax], 0

; 311  : 		m_lpBufCur = m_lpBufMax;

  00023	8b 42 0c	 mov	 eax, DWORD PTR [edx+12]
  00026	89 42 08	 mov	 DWORD PTR [edx+8], eax

; 312  : 	}
; 313  : 	return *this;
; 314  : }

  00029	8b c2		 mov	 eax, edx
  0002b	5d		 pop	 ebp
  0002c	c2 04 00	 ret	 4
??$?5D@CAr@@QAEAAV0@AAD@Z ENDP				; CAr::operator>><char>
_TEXT	ENDS
; Function compile flags: /Ogtp
; File C:\IAGOS\server\v18\Source\Source\_Network\Misc\Include\ar.h
;	COMDAT ??$?5H@CAr@@QAEAAV0@AAH@Z
_TEXT	SEGMENT
_t$ = 8							; size = 4
??$?5H@CAr@@QAEAAV0@AAH@Z PROC				; CAr::operator>><int>, COMDAT
; _this$ = ecx

; 302  : {

  00000	55		 push	 ebp
  00001	8b ec		 mov	 ebp, esp
  00003	8b d1		 mov	 edx, ecx

; 303  : 	if (m_lpBufCur + sizeof(T) <= m_lpBufMax)

  00005	8b 4a 08	 mov	 ecx, DWORD PTR [edx+8]
  00008	8d 41 04	 lea	 eax, DWORD PTR [ecx+4]
  0000b	3b 42 0c	 cmp	 eax, DWORD PTR [edx+12]
  0000e	8b 45 08	 mov	 eax, DWORD PTR _t$[ebp]
  00011	77 0e		 ja	 SHORT $LN2@operator

; 304  : 	{
; 305  : 		t = *(UNALIGNED T*)m_lpBufCur;

  00013	8b 09		 mov	 ecx, DWORD PTR [ecx]
  00015	89 08		 mov	 DWORD PTR [eax], ecx

; 312  : 	}
; 313  : 	return *this;
; 314  : }

  00017	8b c2		 mov	 eax, edx
  00019	83 42 08 04	 add	 DWORD PTR [edx+8], 4
  0001d	5d		 pop	 ebp
  0001e	c2 04 00	 ret	 4
$LN2@operator:

; 306  : 		m_lpBufCur += sizeof(T);
; 307  : 	}
; 308  : 	else
; 309  : 	{
; 310  : 		t = T();

  00021	c7 00 00 00 00
	00		 mov	 DWORD PTR [eax], 0

; 311  : 		m_lpBufCur = m_lpBufMax;

  00027	8b 42 0c	 mov	 eax, DWORD PTR [edx+12]
  0002a	89 42 08	 mov	 DWORD PTR [edx+8], eax

; 312  : 	}
; 313  : 	return *this;
; 314  : }

  0002d	8b c2		 mov	 eax, edx
  0002f	5d		 pop	 ebp
  00030	c2 04 00	 ret	 4
??$?5H@CAr@@QAEAAV0@AAH@Z ENDP				; CAr::operator>><int>
_TEXT	ENDS
; Function compile flags: /Ogtp
; File C:\IAGOS\server\v18\Source\Source\_Network\Misc\Include\ar.h
;	COMDAT ??$?5J@CAr@@QAEAAV0@AAJ@Z
_TEXT	SEGMENT
_t$ = 8							; size = 4
??$?5J@CAr@@QAEAAV0@AAJ@Z PROC				; CAr::operator>><long>, COMDAT
; _this$ = ecx

; 302  : {

  00000	55		 push	 ebp
  00001	8b ec		 mov	 ebp, esp
  00003	8b d1		 mov	 edx, ecx

; 303  : 	if (m_lpBufCur + sizeof(T) <= m_lpBufMax)

  00005	8b 4a 08	 mov	 ecx, DWORD PTR [edx+8]
  00008	8d 41 04	 lea	 eax, DWORD PTR [ecx+4]
  0000b	3b 42 0c	 cmp	 eax, DWORD PTR [edx+12]
  0000e	8b 45 08	 mov	 eax, DWORD PTR _t$[ebp]
  00011	77 0e		 ja	 SHORT $LN2@operator

; 304  : 	{
; 305  : 		t = *(UNALIGNED T*)m_lpBufCur;

  00013	8b 09		 mov	 ecx, DWORD PTR [ecx]
  00015	89 08		 mov	 DWORD PTR [eax], ecx

; 312  : 	}
; 313  : 	return *this;
; 314  : }

  00017	8b c2		 mov	 eax, edx
  00019	83 42 08 04	 add	 DWORD PTR [edx+8], 4
  0001d	5d		 pop	 ebp
  0001e	c2 04 00	 ret	 4
$LN2@operator:

; 306  : 		m_lpBufCur += sizeof(T);
; 307  : 	}
; 308  : 	else
; 309  : 	{
; 310  : 		t = T();

  00021	c7 00 00 00 00
	00		 mov	 DWORD PTR [eax], 0

; 311  : 		m_lpBufCur = m_lpBufMax;

  00027	8b 42 0c	 mov	 eax, DWORD PTR [edx+12]
  0002a	89 42 08	 mov	 DWORD PTR [edx+8], eax

; 312  : 	}
; 313  : 	return *this;
; 314  : }

  0002d	8b c2		 mov	 eax, edx
  0002f	5d		 pop	 ebp
  00030	c2 04 00	 ret	 4
??$?5J@CAr@@QAEAAV0@AAJ@Z ENDP				; CAr::operator>><long>
_TEXT	ENDS
; Function compile flags: /Ogtp
; File C:\IAGOS\server\v18\Source\Source\_Network\Misc\Include\ar.h
;	COMDAT ??$?6M@CAr@@QAEAAV0@ABM@Z
_TEXT	SEGMENT
_t$ = 8							; size = 4
??$?6M@CAr@@QAEAAV0@ABM@Z PROC				; CAr::operator<<<float>, COMDAT
; _this$ = ecx

; 255  : {

  00000	55		 push	 ebp
  00001	8b ec		 mov	 ebp, esp
  00003	56		 push	 esi

; 256  : 	CheckBuf(sizeof(T));

  00004	6a 04		 push	 4
  00006	8b f1		 mov	 esi, ecx
  00008	e8 00 00 00 00	 call	 ?CheckBuf@CAr@@QAEXI@Z	; CAr::CheckBuf

; 257  : 	*(UNALIGNED T*)m_lpBufCur = t;

  0000d	8b 56 08	 mov	 edx, DWORD PTR [esi+8]
  00010	8b 45 08	 mov	 eax, DWORD PTR _t$[ebp]
  00013	8b 00		 mov	 eax, DWORD PTR [eax]
  00015	89 02		 mov	 DWORD PTR [edx], eax

; 258  : 	m_lpBufCur += sizeof(T);
; 259  : 	return *this;

  00017	8b c6		 mov	 eax, esi
  00019	83 46 08 04	 add	 DWORD PTR [esi+8], 4
  0001d	5e		 pop	 esi

; 260  : }

  0001e	5d		 pop	 ebp
  0001f	c2 04 00	 ret	 4
??$?6M@CAr@@QAEAAV0@ABM@Z ENDP				; CAr::operator<<<float>
_TEXT	ENDS
; Function compile flags: /Ogtp
; File C:\IAGOS\server\v18\Source\Source\_Network\Misc\Include\ar.h
;	COMDAT ??$?6_J@CAr@@QAEAAV0@AB_J@Z
_TEXT	SEGMENT
_t$ = 8							; size = 4
??$?6_J@CAr@@QAEAAV0@AB_J@Z PROC			; CAr::operator<<<__int64>, COMDAT
; _this$ = ecx

; 255  : {

  00000	55		 push	 ebp
  00001	8b ec		 mov	 ebp, esp
  00003	56		 push	 esi
  00004	57		 push	 edi

; 256  : 	CheckBuf(sizeof(T));

  00005	6a 08		 push	 8
  00007	8b f9		 mov	 edi, ecx
  00009	e8 00 00 00 00	 call	 ?CheckBuf@CAr@@QAEXI@Z	; CAr::CheckBuf

; 257  : 	*(UNALIGNED T*)m_lpBufCur = t;

  0000e	8b 45 08	 mov	 eax, DWORD PTR _t$[ebp]
  00011	8b 70 04	 mov	 esi, DWORD PTR [eax+4]
  00014	8b 10		 mov	 edx, DWORD PTR [eax]
  00016	8b 47 08	 mov	 eax, DWORD PTR [edi+8]
  00019	89 10		 mov	 DWORD PTR [eax], edx
  0001b	89 70 04	 mov	 DWORD PTR [eax+4], esi

; 258  : 	m_lpBufCur += sizeof(T);
; 259  : 	return *this;

  0001e	8b c7		 mov	 eax, edi
  00020	83 47 08 08	 add	 DWORD PTR [edi+8], 8
  00024	5f		 pop	 edi
  00025	5e		 pop	 esi

; 260  : }

  00026	5d		 pop	 ebp
  00027	c2 04 00	 ret	 4
??$?6_J@CAr@@QAEAAV0@AB_J@Z ENDP			; CAr::operator<<<__int64>
_TEXT	ENDS
; Function compile flags: /Ogtp
; File C:\IAGOS\server\v18\Source\Source\_Network\Misc\Include\ar.h
;	COMDAT ??$?6D@CAr@@QAEAAV0@ABD@Z
_TEXT	SEGMENT
_t$ = 8							; size = 4
??$?6D@CAr@@QAEAAV0@ABD@Z PROC				; CAr::operator<<<char>, COMDAT
; _this$ = ecx

; 255  : {

  00000	55		 push	 ebp
  00001	8b ec		 mov	 ebp, esp
  00003	56		 push	 esi

; 256  : 	CheckBuf(sizeof(T));

  00004	6a 01		 push	 1
  00006	8b f1		 mov	 esi, ecx
  00008	e8 00 00 00 00	 call	 ?CheckBuf@CAr@@QAEXI@Z	; CAr::CheckBuf

; 257  : 	*(UNALIGNED T*)m_lpBufCur = t;

  0000d	8b 45 08	 mov	 eax, DWORD PTR _t$[ebp]
  00010	8b 56 08	 mov	 edx, DWORD PTR [esi+8]
  00013	8a 00		 mov	 al, BYTE PTR [eax]
  00015	88 02		 mov	 BYTE PTR [edx], al

; 258  : 	m_lpBufCur += sizeof(T);
; 259  : 	return *this;

  00017	8b c6		 mov	 eax, esi
  00019	ff 46 08	 inc	 DWORD PTR [esi+8]
  0001c	5e		 pop	 esi

; 260  : }

  0001d	5d		 pop	 ebp
  0001e	c2 04 00	 ret	 4
??$?6D@CAr@@QAEAAV0@ABD@Z ENDP				; CAr::operator<<<char>
_TEXT	ENDS
; Function compile flags: /Ogtp
; File C:\IAGOS\server\v18\Source\Source\_Network\Misc\Include\ar.h
;	COMDAT ??$?6H@CAr@@QAEAAV0@ABH@Z
_TEXT	SEGMENT
_t$ = 8							; size = 4
??$?6H@CAr@@QAEAAV0@ABH@Z PROC				; CAr::operator<<<int>, COMDAT
; _this$ = ecx

; 255  : {

  00000	55		 push	 ebp
  00001	8b ec		 mov	 ebp, esp
  00003	56		 push	 esi

; 256  : 	CheckBuf(sizeof(T));

  00004	6a 04		 push	 4
  00006	8b f1		 mov	 esi, ecx
  00008	e8 00 00 00 00	 call	 ?CheckBuf@CAr@@QAEXI@Z	; CAr::CheckBuf

; 257  : 	*(UNALIGNED T*)m_lpBufCur = t;

  0000d	8b 56 08	 mov	 edx, DWORD PTR [esi+8]
  00010	8b 45 08	 mov	 eax, DWORD PTR _t$[ebp]
  00013	8b 00		 mov	 eax, DWORD PTR [eax]
  00015	89 02		 mov	 DWORD PTR [edx], eax

; 258  : 	m_lpBufCur += sizeof(T);
; 259  : 	return *this;

  00017	8b c6		 mov	 eax, esi
  00019	83 46 08 04	 add	 DWORD PTR [esi+8], 4
  0001d	5e		 pop	 esi

; 260  : }

  0001e	5d		 pop	 ebp
  0001f	c2 04 00	 ret	 4
??$?6H@CAr@@QAEAAV0@ABH@Z ENDP				; CAr::operator<<<int>
_TEXT	ENDS
; Function compile flags: /Ogtp
; File C:\IAGOS\server\v18\Source\Source\_Network\Misc\Include\ar.h
;	COMDAT ??$?6J@CAr@@QAEAAV0@ABJ@Z
_TEXT	SEGMENT
_t$ = 8							; size = 4
??$?6J@CAr@@QAEAAV0@ABJ@Z PROC				; CAr::operator<<<long>, COMDAT
; _this$ = ecx

; 255  : {

  00000	55		 push	 ebp
  00001	8b ec		 mov	 ebp, esp
  00003	56		 push	 esi

; 256  : 	CheckBuf(sizeof(T));

  00004	6a 04		 push	 4
  00006	8b f1		 mov	 esi, ecx
  00008	e8 00 00 00 00	 call	 ?CheckBuf@CAr@@QAEXI@Z	; CAr::CheckBuf

; 257  : 	*(UNALIGNED T*)m_lpBufCur = t;

  0000d	8b 56 08	 mov	 edx, DWORD PTR [esi+8]
  00010	8b 45 08	 mov	 eax, DWORD PTR _t$[ebp]
  00013	8b 00		 mov	 eax, DWORD PTR [eax]
  00015	89 02		 mov	 DWORD PTR [edx], eax

; 258  : 	m_lpBufCur += sizeof(T);
; 259  : 	return *this;

  00017	8b c6		 mov	 eax, esi
  00019	83 46 08 04	 add	 DWORD PTR [esi+8], 4
  0001d	5e		 pop	 esi

; 260  : }

  0001e	5d		 pop	 ebp
  0001f	c2 04 00	 ret	 4
??$?6J@CAr@@QAEAAV0@ABJ@Z ENDP				; CAr::operator<<<long>
_TEXT	ENDS
; Function compile flags: /Ogtp
; File C:\IAGOS\server\v18\Source\Source\_Network\Misc\Include\ar.h
;	COMDAT ??$?5F@CAr@@QAEAAV0@AAF@Z
_TEXT	SEGMENT
_t$ = 8							; size = 4
??$?5F@CAr@@QAEAAV0@AAF@Z PROC				; CAr::operator>><short>, COMDAT
; _this$ = ecx

; 302  : {

  00000	55		 push	 ebp
  00001	8b ec		 mov	 ebp, esp
  00003	8b d1		 mov	 edx, ecx

; 303  : 	if (m_lpBufCur + sizeof(T) <= m_lpBufMax)

  00005	8b 4a 08	 mov	 ecx, DWORD PTR [edx+8]
  00008	8d 41 02	 lea	 eax, DWORD PTR [ecx+2]
  0000b	3b 42 0c	 cmp	 eax, DWORD PTR [edx+12]
  0000e	8b 45 08	 mov	 eax, DWORD PTR _t$[ebp]
  00011	77 10		 ja	 SHORT $LN2@operator

; 304  : 	{
; 305  : 		t = *(UNALIGNED T*)m_lpBufCur;

  00013	66 8b 09	 mov	 cx, WORD PTR [ecx]
  00016	66 89 08	 mov	 WORD PTR [eax], cx

; 312  : 	}
; 313  : 	return *this;
; 314  : }

  00019	8b c2		 mov	 eax, edx
  0001b	83 42 08 02	 add	 DWORD PTR [edx+8], 2
  0001f	5d		 pop	 ebp
  00020	c2 04 00	 ret	 4
$LN2@operator:

; 306  : 		m_lpBufCur += sizeof(T);
; 307  : 	}
; 308  : 	else
; 309  : 	{
; 310  : 		t = T();

  00023	33 c9		 xor	 ecx, ecx
  00025	66 89 08	 mov	 WORD PTR [eax], cx

; 311  : 		m_lpBufCur = m_lpBufMax;

  00028	8b 42 0c	 mov	 eax, DWORD PTR [edx+12]
  0002b	89 42 08	 mov	 DWORD PTR [edx+8], eax

; 312  : 	}
; 313  : 	return *this;
; 314  : }

  0002e	8b c2		 mov	 eax, edx
  00030	5d		 pop	 ebp
  00031	c2 04 00	 ret	 4
??$?5F@CAr@@QAEAAV0@AAF@Z ENDP				; CAr::operator>><short>
_TEXT	ENDS
; Function compile flags: /Ogtp
; File C:\IAGOS\server\v18\Source\Source\_Network\Misc\Include\ar.h
;	COMDAT ??$?5UD3DXVECTOR3@@@CAr@@QAEAAV0@AAUD3DXVECTOR3@@@Z
_TEXT	SEGMENT
$T1 = -12						; size = 12
_t$ = 8							; size = 4
??$?5UD3DXVECTOR3@@@CAr@@QAEAAV0@AAUD3DXVECTOR3@@@Z PROC ; CAr::operator>><D3DXVECTOR3>, COMDAT
; _this$ = ecx

; 302  : {

  00000	55		 push	 ebp
  00001	8b ec		 mov	 ebp, esp
  00003	83 ec 0c	 sub	 esp, 12			; 0000000cH
  00006	8b d1		 mov	 edx, ecx

; 303  : 	if (m_lpBufCur + sizeof(T) <= m_lpBufMax)

  00008	8b 4d 08	 mov	 ecx, DWORD PTR _t$[ebp]
  0000b	56		 push	 esi
  0000c	8b 72 08	 mov	 esi, DWORD PTR [edx+8]
  0000f	8d 46 0c	 lea	 eax, DWORD PTR [esi+12]
  00012	3b 42 0c	 cmp	 eax, DWORD PTR [edx+12]
  00015	77 1b		 ja	 SHORT $LN2@operator

; 304  : 	{
; 305  : 		t = *(UNALIGNED T*)m_lpBufCur;

  00017	f3 0f 7e 06	 movq	 xmm0, QWORD PTR [esi]
  0001b	66 0f d6 01	 movq	 QWORD PTR [ecx], xmm0
  0001f	8b 46 08	 mov	 eax, DWORD PTR [esi+8]
  00022	89 41 08	 mov	 DWORD PTR [ecx+8], eax

; 312  : 	}
; 313  : 	return *this;
; 314  : }

  00025	8b c2		 mov	 eax, edx
  00027	83 42 08 0c	 add	 DWORD PTR [edx+8], 12	; 0000000cH
  0002b	5e		 pop	 esi
  0002c	8b e5		 mov	 esp, ebp
  0002e	5d		 pop	 ebp
  0002f	c2 04 00	 ret	 4
$LN2@operator:

; 306  : 		m_lpBufCur += sizeof(T);
; 307  : 	}
; 308  : 	else
; 309  : 	{
; 310  : 		t = T();

  00032	f3 0f 7e 45 f4	 movq	 xmm0, QWORD PTR $T1[ebp]
  00037	8b 45 fc	 mov	 eax, DWORD PTR $T1[ebp+8]
  0003a	66 0f d6 01	 movq	 QWORD PTR [ecx], xmm0
  0003e	89 41 08	 mov	 DWORD PTR [ecx+8], eax

; 311  : 		m_lpBufCur = m_lpBufMax;

  00041	8b 42 0c	 mov	 eax, DWORD PTR [edx+12]
  00044	89 42 08	 mov	 DWORD PTR [edx+8], eax

; 312  : 	}
; 313  : 	return *this;
; 314  : }

  00047	8b c2		 mov	 eax, edx
  00049	5e		 pop	 esi
  0004a	8b e5		 mov	 esp, ebp
  0004c	5d		 pop	 ebp
  0004d	c2 04 00	 ret	 4
??$?5UD3DXVECTOR3@@@CAr@@QAEAAV0@AAUD3DXVECTOR3@@@Z ENDP ; CAr::operator>><D3DXVECTOR3>
_TEXT	ENDS
; Function compile flags: /Ogtp
; File C:\IAGOS\server\v18\Source\Source\_Network\Misc\Include\ar.h
;	COMDAT ??$?5G@CAr@@QAEAAV0@AAG@Z
_TEXT	SEGMENT
_t$ = 8							; size = 4
??$?5G@CAr@@QAEAAV0@AAG@Z PROC				; CAr::operator>><unsigned short>, COMDAT
; _this$ = ecx

; 302  : {

  00000	55		 push	 ebp
  00001	8b ec		 mov	 ebp, esp
  00003	8b d1		 mov	 edx, ecx

; 303  : 	if (m_lpBufCur + sizeof(T) <= m_lpBufMax)

  00005	8b 4a 08	 mov	 ecx, DWORD PTR [edx+8]
  00008	8d 41 02	 lea	 eax, DWORD PTR [ecx+2]
  0000b	3b 42 0c	 cmp	 eax, DWORD PTR [edx+12]
  0000e	8b 45 08	 mov	 eax, DWORD PTR _t$[ebp]
  00011	77 10		 ja	 SHORT $LN2@operator

; 304  : 	{
; 305  : 		t = *(UNALIGNED T*)m_lpBufCur;

  00013	66 8b 09	 mov	 cx, WORD PTR [ecx]
  00016	66 89 08	 mov	 WORD PTR [eax], cx

; 312  : 	}
; 313  : 	return *this;
; 314  : }

  00019	8b c2		 mov	 eax, edx
  0001b	83 42 08 02	 add	 DWORD PTR [edx+8], 2
  0001f	5d		 pop	 ebp
  00020	c2 04 00	 ret	 4
$LN2@operator:

; 306  : 		m_lpBufCur += sizeof(T);
; 307  : 	}
; 308  : 	else
; 309  : 	{
; 310  : 		t = T();

  00023	33 c9		 xor	 ecx, ecx
  00025	66 89 08	 mov	 WORD PTR [eax], cx

; 311  : 		m_lpBufCur = m_lpBufMax;

  00028	8b 42 0c	 mov	 eax, DWORD PTR [edx+12]
  0002b	89 42 08	 mov	 DWORD PTR [edx+8], eax

; 312  : 	}
; 313  : 	return *this;
; 314  : }

  0002e	8b c2		 mov	 eax, edx
  00030	5d		 pop	 ebp
  00031	c2 04 00	 ret	 4
??$?5G@CAr@@QAEAAV0@AAG@Z ENDP				; CAr::operator>><unsigned short>
_TEXT	ENDS
; Function compile flags: /Ogtp
; File C:\IAGOS\server\v18\Source\Source\_Network\Misc\Include\ar.h
;	COMDAT ??$?5K@CAr@@QAEAAV0@AAK@Z
_TEXT	SEGMENT
_t$ = 8							; size = 4
??$?5K@CAr@@QAEAAV0@AAK@Z PROC				; CAr::operator>><unsigned long>, COMDAT
; _this$ = ecx

; 302  : {

  00000	55		 push	 ebp
  00001	8b ec		 mov	 ebp, esp
  00003	8b d1		 mov	 edx, ecx

; 303  : 	if (m_lpBufCur + sizeof(T) <= m_lpBufMax)

  00005	8b 4a 08	 mov	 ecx, DWORD PTR [edx+8]
  00008	8d 41 04	 lea	 eax, DWORD PTR [ecx+4]
  0000b	3b 42 0c	 cmp	 eax, DWORD PTR [edx+12]
  0000e	8b 45 08	 mov	 eax, DWORD PTR _t$[ebp]
  00011	77 0e		 ja	 SHORT $LN2@operator

; 304  : 	{
; 305  : 		t = *(UNALIGNED T*)m_lpBufCur;

  00013	8b 09		 mov	 ecx, DWORD PTR [ecx]
  00015	89 08		 mov	 DWORD PTR [eax], ecx

; 312  : 	}
; 313  : 	return *this;
; 314  : }

  00017	8b c2		 mov	 eax, edx
  00019	83 42 08 04	 add	 DWORD PTR [edx+8], 4
  0001d	5d		 pop	 ebp
  0001e	c2 04 00	 ret	 4
$LN2@operator:

; 306  : 		m_lpBufCur += sizeof(T);
; 307  : 	}
; 308  : 	else
; 309  : 	{
; 310  : 		t = T();

  00021	c7 00 00 00 00
	00		 mov	 DWORD PTR [eax], 0

; 311  : 		m_lpBufCur = m_lpBufMax;

  00027	8b 42 0c	 mov	 eax, DWORD PTR [edx+12]
  0002a	89 42 08	 mov	 DWORD PTR [edx+8], eax

; 312  : 	}
; 313  : 	return *this;
; 314  : }

  0002d	8b c2		 mov	 eax, edx
  0002f	5d		 pop	 ebp
  00030	c2 04 00	 ret	 4
??$?5K@CAr@@QAEAAV0@AAK@Z ENDP				; CAr::operator>><unsigned long>
_TEXT	ENDS
; Function compile flags: /Ogtp
; File C:\IAGOS\server\v18\Source\Source\_Network\Misc\Include\ar.h
;	COMDAT ??$?5E@CAr@@QAEAAV0@AAE@Z
_TEXT	SEGMENT
_t$ = 8							; size = 4
??$?5E@CAr@@QAEAAV0@AAE@Z PROC				; CAr::operator>><unsigned char>, COMDAT
; _this$ = ecx

; 302  : {

  00000	55		 push	 ebp
  00001	8b ec		 mov	 ebp, esp
  00003	8b d1		 mov	 edx, ecx

; 303  : 	if (m_lpBufCur + sizeof(T) <= m_lpBufMax)

  00005	8b 4a 08	 mov	 ecx, DWORD PTR [edx+8]
  00008	8d 41 01	 lea	 eax, DWORD PTR [ecx+1]
  0000b	3b 42 0c	 cmp	 eax, DWORD PTR [edx+12]
  0000e	8b 45 08	 mov	 eax, DWORD PTR _t$[ebp]
  00011	77 0d		 ja	 SHORT $LN2@operator

; 304  : 	{
; 305  : 		t = *(UNALIGNED T*)m_lpBufCur;

  00013	8a 09		 mov	 cl, BYTE PTR [ecx]
  00015	88 08		 mov	 BYTE PTR [eax], cl

; 312  : 	}
; 313  : 	return *this;
; 314  : }

  00017	8b c2		 mov	 eax, edx
  00019	ff 42 08	 inc	 DWORD PTR [edx+8]
  0001c	5d		 pop	 ebp
  0001d	c2 04 00	 ret	 4
$LN2@operator:

; 306  : 		m_lpBufCur += sizeof(T);
; 307  : 	}
; 308  : 	else
; 309  : 	{
; 310  : 		t = T();

  00020	c6 00 00	 mov	 BYTE PTR [eax], 0

; 311  : 		m_lpBufCur = m_lpBufMax;

  00023	8b 42 0c	 mov	 eax, DWORD PTR [edx+12]
  00026	89 42 08	 mov	 DWORD PTR [edx+8], eax

; 312  : 	}
; 313  : 	return *this;
; 314  : }

  00029	8b c2		 mov	 eax, edx
  0002b	5d		 pop	 ebp
  0002c	c2 04 00	 ret	 4
??$?5E@CAr@@QAEAAV0@AAE@Z ENDP				; CAr::operator>><unsigned char>
_TEXT	ENDS
; Function compile flags: /Ogtp
; File C:\IAGOS\server\v18\Source\Source\_Network\Misc\Include\ar.h
;	COMDAT ??$?6F@CAr@@QAEAAV0@ABF@Z
_TEXT	SEGMENT
_t$ = 8							; size = 4
??$?6F@CAr@@QAEAAV0@ABF@Z PROC				; CAr::operator<<<short>, COMDAT
; _this$ = ecx

; 255  : {

  00000	55		 push	 ebp
  00001	8b ec		 mov	 ebp, esp
  00003	56		 push	 esi

; 256  : 	CheckBuf(sizeof(T));

  00004	6a 02		 push	 2
  00006	8b f1		 mov	 esi, ecx
  00008	e8 00 00 00 00	 call	 ?CheckBuf@CAr@@QAEXI@Z	; CAr::CheckBuf

; 257  : 	*(UNALIGNED T*)m_lpBufCur = t;

  0000d	8b 45 08	 mov	 eax, DWORD PTR _t$[ebp]
  00010	8b 56 08	 mov	 edx, DWORD PTR [esi+8]
  00013	66 8b 00	 mov	 ax, WORD PTR [eax]
  00016	66 89 02	 mov	 WORD PTR [edx], ax

; 258  : 	m_lpBufCur += sizeof(T);
; 259  : 	return *this;

  00019	8b c6		 mov	 eax, esi
  0001b	83 46 08 02	 add	 DWORD PTR [esi+8], 2
  0001f	5e		 pop	 esi

; 260  : }

  00020	5d		 pop	 ebp
  00021	c2 04 00	 ret	 4
??$?6F@CAr@@QAEAAV0@ABF@Z ENDP				; CAr::operator<<<short>
_TEXT	ENDS
; Function compile flags: /Ogtp
; File C:\IAGOS\server\v18\Source\Source\_Network\Misc\Include\ar.h
;	COMDAT ??$?6UD3DXVECTOR3@@@CAr@@QAEAAV0@ABUD3DXVECTOR3@@@Z
_TEXT	SEGMENT
_t$ = 8							; size = 4
??$?6UD3DXVECTOR3@@@CAr@@QAEAAV0@ABUD3DXVECTOR3@@@Z PROC ; CAr::operator<<<D3DXVECTOR3>, COMDAT
; _this$ = ecx

; 255  : {

  00000	55		 push	 ebp
  00001	8b ec		 mov	 ebp, esp
  00003	56		 push	 esi

; 256  : 	CheckBuf(sizeof(T));

  00004	6a 0c		 push	 12			; 0000000cH
  00006	8b f1		 mov	 esi, ecx
  00008	e8 00 00 00 00	 call	 ?CheckBuf@CAr@@QAEXI@Z	; CAr::CheckBuf

; 257  : 	*(UNALIGNED T*)m_lpBufCur = t;

  0000d	8b 56 08	 mov	 edx, DWORD PTR [esi+8]
  00010	8b 45 08	 mov	 eax, DWORD PTR _t$[ebp]
  00013	f3 0f 7e 00	 movq	 xmm0, QWORD PTR [eax]
  00017	66 0f d6 02	 movq	 QWORD PTR [edx], xmm0
  0001b	8b 40 08	 mov	 eax, DWORD PTR [eax+8]
  0001e	89 42 08	 mov	 DWORD PTR [edx+8], eax

; 258  : 	m_lpBufCur += sizeof(T);
; 259  : 	return *this;

  00021	8b c6		 mov	 eax, esi
  00023	83 46 08 0c	 add	 DWORD PTR [esi+8], 12	; 0000000cH
  00027	5e		 pop	 esi

; 260  : }

  00028	5d		 pop	 ebp
  00029	c2 04 00	 ret	 4
??$?6UD3DXVECTOR3@@@CAr@@QAEAAV0@ABUD3DXVECTOR3@@@Z ENDP ; CAr::operator<<<D3DXVECTOR3>
_TEXT	ENDS
; Function compile flags: /Ogtp
; File C:\IAGOS\server\v18\Source\Source\_Network\Misc\Include\ar.h
;	COMDAT ??$?6G@CAr@@QAEAAV0@ABG@Z
_TEXT	SEGMENT
_t$ = 8							; size = 4
??$?6G@CAr@@QAEAAV0@ABG@Z PROC				; CAr::operator<<<unsigned short>, COMDAT
; _this$ = ecx

; 255  : {

  00000	55		 push	 ebp
  00001	8b ec		 mov	 ebp, esp
  00003	56		 push	 esi

; 256  : 	CheckBuf(sizeof(T));

  00004	6a 02		 push	 2
  00006	8b f1		 mov	 esi, ecx
  00008	e8 00 00 00 00	 call	 ?CheckBuf@CAr@@QAEXI@Z	; CAr::CheckBuf

; 257  : 	*(UNALIGNED T*)m_lpBufCur = t;

  0000d	8b 45 08	 mov	 eax, DWORD PTR _t$[ebp]
  00010	8b 56 08	 mov	 edx, DWORD PTR [esi+8]
  00013	66 8b 00	 mov	 ax, WORD PTR [eax]
  00016	66 89 02	 mov	 WORD PTR [edx], ax

; 258  : 	m_lpBufCur += sizeof(T);
; 259  : 	return *this;

  00019	8b c6		 mov	 eax, esi
  0001b	83 46 08 02	 add	 DWORD PTR [esi+8], 2
  0001f	5e		 pop	 esi

; 260  : }

  00020	5d		 pop	 ebp
  00021	c2 04 00	 ret	 4
??$?6G@CAr@@QAEAAV0@ABG@Z ENDP				; CAr::operator<<<unsigned short>
_TEXT	ENDS
; Function compile flags: /Ogtp
; File C:\IAGOS\server\v18\Source\Source\_Network\Misc\Include\ar.h
;	COMDAT ??$?6K@CAr@@QAEAAV0@ABK@Z
_TEXT	SEGMENT
_t$ = 8							; size = 4
??$?6K@CAr@@QAEAAV0@ABK@Z PROC				; CAr::operator<<<unsigned long>, COMDAT
; _this$ = ecx

; 255  : {

  00000	55		 push	 ebp
  00001	8b ec		 mov	 ebp, esp
  00003	56		 push	 esi

; 256  : 	CheckBuf(sizeof(T));

  00004	6a 04		 push	 4
  00006	8b f1		 mov	 esi, ecx
  00008	e8 00 00 00 00	 call	 ?CheckBuf@CAr@@QAEXI@Z	; CAr::CheckBuf

; 257  : 	*(UNALIGNED T*)m_lpBufCur = t;

  0000d	8b 56 08	 mov	 edx, DWORD PTR [esi+8]
  00010	8b 45 08	 mov	 eax, DWORD PTR _t$[ebp]
  00013	8b 00		 mov	 eax, DWORD PTR [eax]
  00015	89 02		 mov	 DWORD PTR [edx], eax

; 258  : 	m_lpBufCur += sizeof(T);
; 259  : 	return *this;

  00017	8b c6		 mov	 eax, esi
  00019	83 46 08 04	 add	 DWORD PTR [esi+8], 4
  0001d	5e		 pop	 esi

; 260  : }

  0001e	5d		 pop	 ebp
  0001f	c2 04 00	 ret	 4
??$?6K@CAr@@QAEAAV0@ABK@Z ENDP				; CAr::operator<<<unsigned long>
_TEXT	ENDS
; Function compile flags: /Ogtp
; File C:\IAGOS\server\v18\Source\Source\_Network\Misc\Include\ar.h
;	COMDAT ??$?6E@CAr@@QAEAAV0@ABE@Z
_TEXT	SEGMENT
_t$ = 8							; size = 4
??$?6E@CAr@@QAEAAV0@ABE@Z PROC				; CAr::operator<<<unsigned char>, COMDAT
; _this$ = ecx

; 255  : {

  00000	55		 push	 ebp
  00001	8b ec		 mov	 ebp, esp
  00003	56		 push	 esi

; 256  : 	CheckBuf(sizeof(T));

  00004	6a 01		 push	 1
  00006	8b f1		 mov	 esi, ecx
  00008	e8 00 00 00 00	 call	 ?CheckBuf@CAr@@QAEXI@Z	; CAr::CheckBuf

; 257  : 	*(UNALIGNED T*)m_lpBufCur = t;

  0000d	8b 45 08	 mov	 eax, DWORD PTR _t$[ebp]
  00010	8b 56 08	 mov	 edx, DWORD PTR [esi+8]
  00013	8a 00		 mov	 al, BYTE PTR [eax]
  00015	88 02		 mov	 BYTE PTR [edx], al

; 258  : 	m_lpBufCur += sizeof(T);
; 259  : 	return *this;

  00017	8b c6		 mov	 eax, esi
  00019	ff 46 08	 inc	 DWORD PTR [esi+8]
  0001c	5e		 pop	 esi

; 260  : }

  0001d	5d		 pop	 ebp
  0001e	c2 04 00	 ret	 4
??$?6E@CAr@@QAEAAV0@ABE@Z ENDP				; CAr::operator<<<unsigned char>
_TEXT	ENDS
; Function compile flags: /Ogtp
; File C:\IAGOS\server\v18\Source\Source\_common\ObjSerializeOpt.cpp
; File C:\IAGOS\server\v18\Source\Source\_Common\Project.h
; File C:\IAGOS\server\v18\Source\Source\_Common\data.h
; File C:\IAGOS\server\v18\Source\Source\_common\ObjSerializeOpt.cpp
; File C:\IAGOS\server\v18\Source\Source\_Common\Project.h
; File C:\IAGOS\server\v18\Source\Source\_Common\data.h
; File C:\IAGOS\server\v18\Source\Source\_common\ObjSerializeOpt.cpp
; File C:\IAGOS\server\v18\Source\Source\_Common\Project.h
; File C:\IAGOS\server\v18\Source\Source\_Common\data.h
; File C:\IAGOS\server\v18\Source\Source\_common\ObjSerializeOpt.cpp
; File C:\IAGOS\server\v18\Source\Source\_Common\Project.h
; File C:\IAGOS\server\v18\Source\Source\_common\ObjSerializeOpt.cpp
;	COMDAT ?OnApplySM@CMover@@QAEXXZ
_TEXT	SEGMENT
?OnApplySM@CMover@@QAEXXZ PROC				; CMover::OnApplySM, COMDAT
; _this$ = ecx

; 65   : {

  00000	56		 push	 esi
  00001	8b f1		 mov	 esi, ecx

; 66   : 	ItemProp* aItemprop;
; 67   : 	int nAdjParamVal;
; 68   : 
; 69   : 	if( m_dwSMTime[SM_MAX_HP] > 0 )

  00003	83 be 1c 03 00
	00 00		 cmp	 DWORD PTR [esi+796], 0
  0000a	76 55		 jbe	 SHORT $LN2@OnApplySM
; File C:\IAGOS\server\v18\Source\Source\_Common\Project.h

; 1389 : 	VERIFY_RANGE_ASSERT( nIndex, 0, m_aPropItem.GetSize(), "GetItemProp range_error", NULL );

  0000c	a1 40 02 00 00	 mov	 eax, DWORD PTR ?prj@@3VCProject@@A+576
  00011	3d e1 27 00 00	 cmp	 eax, 10209		; 000027e1H
  00016	7f 1e		 jg	 SHORT $LN10@OnApplySM

; 579  : 	LPCTSTR szErr = Error( _T( "%s min:%d, max:%d, index:%d" ), szMsg, nMin, nMax, nIndex ); 

  00018	68 e1 27 00 00	 push	 10209			; 000027e1H
  0001d	50		 push	 eax
  0001e	6a 00		 push	 0
  00020	68 00 00 00 00	 push	 OFFSET ??_C@_0BI@BEIFNGEL@GetItemProp?5range_error@
  00025	68 00 00 00 00	 push	 OFFSET ??_C@_0BM@HMFGHCP@?$CFs?5min?3?$CFd?0?5max?3?$CFd?0?5index?3?$CFd@
  0002a	e8 00 00 00 00	 call	 ?Error@@YAPBDPBDZZ	; Error
  0002f	83 c4 14	 add	 esp, 20			; 00000014H

; 1389 : 	VERIFY_RANGE_ASSERT( nIndex, 0, m_aPropItem.GetSize(), "GetItemProp range_error", NULL );

  00032	33 c0		 xor	 eax, eax
  00034	eb 11		 jmp	 SHORT $LN18@OnApplySM
$LN10@OnApplySM:
; File C:\IAGOS\server\v18\Source\Source\_Common\data.h

; 270  : 	if( dwIndex >= (DWORD)m_nMaxIndex )

  00036	77 04		 ja	 SHORT $LN19@OnApplySM

; 271  : 		return NULL;

  00038	33 c0		 xor	 eax, eax
  0003a	eb 0b		 jmp	 SHORT $LN18@OnApplySM
$LN19@OnApplySM:

; 272  : 	return (T*) m_apOffset[ dwIndex ];

  0003c	a1 30 02 00 00	 mov	 eax, DWORD PTR ?prj@@3VCProject@@A+560
  00041	8b 80 84 9f 00
	00		 mov	 eax, DWORD PTR [eax+40836]
$LN18@OnApplySM:
; File C:\IAGOS\server\v18\Source\Source\_common\ObjSerializeOpt.cpp

; 73   : 		SetDestParam( aItemprop->dwDestParam1, nAdjParamVal, NULL_CHGPARAM, 1 );	// fixed by jeff

  00047	6a 01		 push	 1
  00049	68 ff ff ff 7f	 push	 2147483647		; 7fffffffH
  0004e	ff b0 50 01 00
	00		 push	 DWORD PTR [eax+336]
  00054	8b ce		 mov	 ecx, esi
  00056	ff b0 40 01 00
	00		 push	 DWORD PTR [eax+320]
  0005c	e8 00 00 00 00	 call	 ?SetDestParam@CMover@@QAEXHHHH@Z ; CMover::SetDestParam
$LN2@OnApplySM:

; 74   : 	}
; 75   : 
; 76   : 	if( m_dwSMTime[SM_MAX_HP50] > 0 )

  00061	83 be 20 03 00
	00 00		 cmp	 DWORD PTR [esi+800], 0
  00068	76 55		 jbe	 SHORT $LN3@OnApplySM
; File C:\IAGOS\server\v18\Source\Source\_Common\Project.h

; 1389 : 	VERIFY_RANGE_ASSERT( nIndex, 0, m_aPropItem.GetSize(), "GetItemProp range_error", NULL );

  0006a	a1 40 02 00 00	 mov	 eax, DWORD PTR ?prj@@3VCProject@@A+576
  0006f	3d e2 27 00 00	 cmp	 eax, 10210		; 000027e2H
  00074	7f 1e		 jg	 SHORT $LN22@OnApplySM

; 579  : 	LPCTSTR szErr = Error( _T( "%s min:%d, max:%d, index:%d" ), szMsg, nMin, nMax, nIndex ); 

  00076	68 e2 27 00 00	 push	 10210			; 000027e2H
  0007b	50		 push	 eax
  0007c	6a 00		 push	 0
  0007e	68 00 00 00 00	 push	 OFFSET ??_C@_0BI@BEIFNGEL@GetItemProp?5range_error@
  00083	68 00 00 00 00	 push	 OFFSET ??_C@_0BM@HMFGHCP@?$CFs?5min?3?$CFd?0?5max?3?$CFd?0?5index?3?$CFd@
  00088	e8 00 00 00 00	 call	 ?Error@@YAPBDPBDZZ	; Error
  0008d	83 c4 14	 add	 esp, 20			; 00000014H

; 1389 : 	VERIFY_RANGE_ASSERT( nIndex, 0, m_aPropItem.GetSize(), "GetItemProp range_error", NULL );

  00090	33 c0		 xor	 eax, eax
  00092	eb 11		 jmp	 SHORT $LN30@OnApplySM
$LN22@OnApplySM:
; File C:\IAGOS\server\v18\Source\Source\_Common\data.h

; 270  : 	if( dwIndex >= (DWORD)m_nMaxIndex )

  00094	77 04		 ja	 SHORT $LN31@OnApplySM

; 271  : 		return NULL;

  00096	33 c0		 xor	 eax, eax
  00098	eb 0b		 jmp	 SHORT $LN30@OnApplySM
$LN31@OnApplySM:

; 272  : 	return (T*) m_apOffset[ dwIndex ];

  0009a	a1 30 02 00 00	 mov	 eax, DWORD PTR ?prj@@3VCProject@@A+560
  0009f	8b 80 88 9f 00
	00		 mov	 eax, DWORD PTR [eax+40840]
$LN30@OnApplySM:
; File C:\IAGOS\server\v18\Source\Source\_common\ObjSerializeOpt.cpp

; 80   : 		SetDestParam( aItemprop->dwDestParam1, nAdjParamVal, NULL_CHGPARAM, 1 );	// fixed by jeff

  000a5	6a 01		 push	 1
  000a7	68 ff ff ff 7f	 push	 2147483647		; 7fffffffH
  000ac	ff b6 b0 06 00
	00		 push	 DWORD PTR [esi+1712]
  000b2	8b ce		 mov	 ecx, esi
  000b4	ff b0 40 01 00
	00		 push	 DWORD PTR [eax+320]
  000ba	e8 00 00 00 00	 call	 ?SetDestParam@CMover@@QAEXHHHH@Z ; CMover::SetDestParam
$LN3@OnApplySM:

; 81   : 	}
; 82   : 
; 83   : 	if( m_dwSMTime[SM_VELOCIJUMP] > 0 )

  000bf	83 be 50 03 00
	00 00		 cmp	 DWORD PTR [esi+848], 0
  000c6	76 67		 jbe	 SHORT $LN7@OnApplySM

; 84   : 	{
; 85   : 		aItemprop = prj.GetItemProp( g_AddSMMode.dwSMItemID[SM_VELOCIJUMP] );

  000c8	8b 0d bc 00 00
	00		 mov	 ecx, DWORD PTR ?g_AddSMMode@@3U_ADDSMMODE@@A+188
; File C:\IAGOS\server\v18\Source\Source\_Common\Project.h

; 1389 : 	VERIFY_RANGE_ASSERT( nIndex, 0, m_aPropItem.GetSize(), "GetItemProp range_error", NULL );

  000ce	a1 40 02 00 00	 mov	 eax, DWORD PTR ?prj@@3VCProject@@A+576
  000d3	85 c9		 test	 ecx, ecx
  000d5	78 5a		 js	 SHORT $LN38@OnApplySM
  000d7	3b c8		 cmp	 ecx, eax
  000d9	7d 56		 jge	 SHORT $LN38@OnApplySM
  000db	57		 push	 edi
; File C:\IAGOS\server\v18\Source\Source\_Common\data.h

; 270  : 	if( dwIndex >= (DWORD)m_nMaxIndex )

  000dc	72 04		 jb	 SHORT $LN43@OnApplySM

; 271  : 		return NULL;

  000de	33 ff		 xor	 edi, edi
  000e0	eb 08		 jmp	 SHORT $LN42@OnApplySM
$LN43@OnApplySM:

; 272  : 	return (T*) m_apOffset[ dwIndex ];

  000e2	a1 30 02 00 00	 mov	 eax, DWORD PTR ?prj@@3VCProject@@A+560
  000e7	8b 3c 88	 mov	 edi, DWORD PTR [eax+ecx*4]
$LN42@OnApplySM:
; File C:\IAGOS\server\v18\Source\Source\_common\ObjSerializeOpt.cpp

; 86   : 		if( aItemprop )

  000ea	85 ff		 test	 edi, edi
  000ec	74 40		 je	 SHORT $LN58@OnApplySM

; 87   : 		{
; 88   : 			if( aItemprop->dwDestParam1 != -1 )

  000ee	8b 87 40 01 00
	00		 mov	 eax, DWORD PTR [edi+320]
  000f4	83 f8 ff	 cmp	 eax, -1
  000f7	74 15		 je	 SHORT $LN6@OnApplySM

; 89   : 				SetDestParam( aItemprop->dwDestParam1, aItemprop->nAdjParamVal1, NULL_CHGPARAM );

  000f9	6a 01		 push	 1
  000fb	68 ff ff ff 7f	 push	 2147483647		; 7fffffffH
  00100	ff b7 4c 01 00
	00		 push	 DWORD PTR [edi+332]
  00106	8b ce		 mov	 ecx, esi
  00108	50		 push	 eax
  00109	e8 00 00 00 00	 call	 ?SetDestParam@CMover@@QAEXHHHH@Z ; CMover::SetDestParam
$LN6@OnApplySM:

; 90   : 			if( aItemprop->dwDestParam2 != -1 )

  0010e	8b 87 44 01 00
	00		 mov	 eax, DWORD PTR [edi+324]
  00114	83 f8 ff	 cmp	 eax, -1
  00117	74 15		 je	 SHORT $LN58@OnApplySM

; 91   : 				SetDestParam( aItemprop->dwDestParam2, aItemprop->nAdjParamVal2, NULL_CHGPARAM );

  00119	6a 01		 push	 1
  0011b	68 ff ff ff 7f	 push	 2147483647		; 7fffffffH
  00120	ff b7 50 01 00
	00		 push	 DWORD PTR [edi+336]
  00126	8b ce		 mov	 ecx, esi
  00128	50		 push	 eax
  00129	e8 00 00 00 00	 call	 ?SetDestParam@CMover@@QAEXHHHH@Z ; CMover::SetDestParam
$LN58@OnApplySM:
  0012e	5f		 pop	 edi
$LN7@OnApplySM:
  0012f	5e		 pop	 esi

; 94   : }

  00130	c3		 ret	 0
$LN38@OnApplySM:
; File C:\IAGOS\server\v18\Source\Source\_Common\Project.h

; 579  : 	LPCTSTR szErr = Error( _T( "%s min:%d, max:%d, index:%d" ), szMsg, nMin, nMax, nIndex ); 

  00131	51		 push	 ecx
  00132	50		 push	 eax
  00133	6a 00		 push	 0
  00135	68 00 00 00 00	 push	 OFFSET ??_C@_0BI@BEIFNGEL@GetItemProp?5range_error@
  0013a	68 00 00 00 00	 push	 OFFSET ??_C@_0BM@HMFGHCP@?$CFs?5min?3?$CFd?0?5max?3?$CFd?0?5index?3?$CFd@
  0013f	e8 00 00 00 00	 call	 ?Error@@YAPBDPBDZZ	; Error
  00144	83 c4 14	 add	 esp, 20			; 00000014H
  00147	5e		 pop	 esi
; File C:\IAGOS\server\v18\Source\Source\_common\ObjSerializeOpt.cpp

; 94   : }

  00148	c3		 ret	 0
?OnApplySM@CMover@@QAEXXZ ENDP				; CMover::OnApplySM
_TEXT	ENDS
; Function compile flags: /Ogtp
; File C:\IAGOS\server\v18\Source\Source\_common\ObjSerializeOpt.cpp
; File C:\IAGOS\server\v18\Source\Source\_Network\Misc\Include\ar.h
; File C:\IAGOS\server\v18\Source\Source\_common\ObjSerializeOpt.cpp
; File C:\IAGOS\server\v18\Source\Source\_Common\Item.h
; File C:\IAGOS\server\v18\Source\Source\_Common\Project.h
; File C:\IAGOS\server\v18\Source\Source\_Common\data.h
; File C:\IAGOS\server\v18\Source\Source\_Common\Project.h
; File C:\IAGOS\server\v18\Source\Source\_common\ObjSerializeOpt.cpp
; File C:\IAGOS\server\v18\Source\Source\_Network\Misc\Include\ar.h
; File C:\IAGOS\server\v18\Source\Source\_common\ObjSerializeOpt.cpp
; File C:\IAGOS\server\v18\Source\Source\_Network\Misc\Include\ar.h
; File C:\IAGOS\server\v18\Source\Source\_common\ObjSerializeOpt.cpp
; File C:\IAGOS\server\v18\Source\Source\_Common\pet.h
; File C:\IAGOS\server\v18\Source\Source\_common\ObjSerializeOpt.cpp
; File C:\IAGOS\server\v18\Source\Source\_Network\Misc\Include\ar.h
; File C:\IAGOS\server\v18\Source\Source\_common\ObjSerializeOpt.cpp
; File C:\IAGOS\server\v18\Source\Source\_Common\Mover.h
; File C:\IAGOS\server\v18\Source\Source\_common\ObjSerializeOpt.cpp
; File C:\IAGOS\server\v18\Source\Source\_AIInterface\Action.h
; File C:\IAGOS\server\v18\Source\Source\_common\ObjSerializeOpt.cpp
; File C:\IAGOS\server\v18\Source\Source\_AIInterface\Action.h
; File C:\IAGOS\server\v18\Source\Source\_common\ObjSerializeOpt.cpp
; File C:\IAGOS\server\v18\Source\Source\_AIInterface\Action.h
; File C:\IAGOS\server\v18\Source\Source\_common\ObjSerializeOpt.cpp
; File C:\IAGOS\server\v18\Source\Source\_AIInterface\Action.h
; File C:\IAGOS\server\v18\Source\Source\_common\ObjSerializeOpt.cpp
; File C:\IAGOS\server\v18\Source\Source\_Common\Mover.h
; File C:\IAGOS\server\v18\Source\Source\_common\ObjSerializeOpt.cpp
; File C:\IAGOS\server\v18\Source\Source\_Common\Mover.h
; File C:\IAGOS\server\v18\Source\Source\_common\ObjSerializeOpt.cpp
; File C:\IAGOS\server\v18\Source\Source\_Common\Mover.h
; File C:\IAGOS\server\v18\Source\Source\_common\ObjSerializeOpt.cpp
; File C:\IAGOS\server\v18\Source\Source\_Common\Mover.h
; File C:\IAGOS\server\v18\Source\Source\_common\ObjSerializeOpt.cpp
; File C:\IAGOS\server\v18\Source\Source\_Common\Mover.h
; File C:\IAGOS\server\v18\Source\Source\_common\ObjSerializeOpt.cpp
; File C:\IAGOS\server\v18\Source\Source\_Common\Mover.h
; File C:\IAGOS\server\v18\Source\Source\_common\ObjSerializeOpt.cpp
; File C:\IAGOS\server\v18\Source\Source\_Common\Mover.h
; File C:\IAGOS\server\v18\Source\Source\_common\ObjSerializeOpt.cpp
; File C:\IAGOS\server\v18\Source\Source\_Common\Project.h
; File C:\IAGOS\server\v18\Source\Source\_Common\data.h
; File C:\IAGOS\server\v18\Source\Source\_common\ObjSerializeOpt.cpp
; File C:\IAGOS\server\v18\Source\Source\_Common\Project.h
; File C:\IAGOS\server\v18\Source\Source\_common\ObjSerializeOpt.cpp
; File C:\IAGOS\server\v18\Source\Source\_Common\Mover.h
; File C:\IAGOS\server\v18\Source\Source\_common\ObjSerializeOpt.cpp
;	COMDAT ?Serialize@CMover@@UAEXAAVCAr@@@Z
_TEXT	SEGMENT
_dwItemTem$1 = -268					; size = 4
_nBlockSize$2 = -268					; size = 4
_nBlockSize$3 = -268					; size = 4
$T4 = -264						; size = 2
_uOffset$1$ = -264					; size = 4
tv2805 = -264						; size = 4
_dw1$5 = -264						; size = 4
$T6 = -260						; size = 4
$T7 = -253						; size = 1
_uParts$8 = -253					; size = 1
_dw2$9 = -252						; size = 4
tv2725 = -252						; size = 4
_dwPetId$10 = -252					; size = 4
_dwPetId$11 = -252					; size = 4
$T12 = -252						; size = 2
_uOffset$1$ = -252					; size = 4
tv2779 = -252						; size = 4
_pItemElem$1$ = -252					; size = 4
_n2$13 = -248						; size = 2
_u2$14 = -248						; size = 2
_u2$15 = -248						; size = 2
$T16 = -247						; size = 1
$T17 = -247						; size = 1
$T18 = -247						; size = 1
_dwGold$ = -244						; size = 4
$T19 = -244						; size = 4
$T20 = -244						; size = 4
$T21 = -244						; size = 4
$T22 = -244						; size = 2
$T23 = -244						; size = 2
$T24 = -244						; size = 2
$T25 = -244						; size = 2
_nTemp$26 = -244					; size = 4
_uSize$1$ = -237					; size = 1
_u1$27 = -237						; size = 1
_uSize$1$ = -237					; size = 1
$T28 = -236						; size = 4
$T29 = -236						; size = 4
_nMotion$30 = -236					; size = 2
$T31 = -236						; size = 4
$T32 = -236						; size = 4
$T33 = -236						; size = 2
$T34 = -236						; size = 2
$T35 = -236						; size = 2
_dwPetId$36 = -236					; size = 4
$T37 = -236						; size = 2
$T38 = -236						; size = 2
_n1$39 = -236						; size = 2
$T40 = -236						; size = 2
$T41 = -233						; size = 1
$T42 = -233						; size = 1
$T43 = -233						; size = 1
$T44 = -233						; size = 1
$T45 = -233						; size = 1
$T46 = -233						; size = 1
$T47 = -233						; size = 1
$T48 = -233						; size = 1
$T49 = -233						; size = 1
_uSize$50 = -233					; size = 1
_uParts$51 = -233					; size = 1
_uParts$52 = -233					; size = 1
_uSize$53 = -233					; size = 1
$T54 = -233						; size = 1
_uSize$55 = -233					; size = 1
_bySex$56 = -233					; size = 1
_uSize$57 = -233					; size = 1
$T58 = -233						; size = 1
_uParts$59 = -233					; size = 1
$T60 = -233						; size = 1
$T61 = -233						; size = 1
$T62 = -233						; size = 1
$T63 = -233						; size = 1
$T64 = -233						; size = 1
$T65 = -233						; size = 1
$T66 = -233						; size = 1
$T67 = -233						; size = 1
_dwJobLv$68 = -232					; size = 160
_dwJobLv$69 = -232					; size = 160
_szPVendor$70 = -72					; size = 48
_szPetName$71 = -24					; size = 17
__$ArrayPad$ = -4					; size = 4
_ar$ = 8						; size = 4
?Serialize@CMover@@UAEXAAVCAr@@@Z PROC			; CMover::Serialize, COMDAT
; _this$ = ecx

; 98   : {

  00000	55		 push	 ebp
  00001	8b ec		 mov	 ebp, esp
  00003	81 ec 0c 01 00
	00		 sub	 esp, 268		; 0000010cH
  00009	a1 00 00 00 00	 mov	 eax, DWORD PTR ___security_cookie
  0000e	33 c5		 xor	 eax, ebp
  00010	89 45 fc	 mov	 DWORD PTR __$ArrayPad$[ebp], eax
  00013	53		 push	 ebx
  00014	8b 5d 08	 mov	 ebx, DWORD PTR _ar$[ebp]
  00017	56		 push	 esi
  00018	57		 push	 edi
  00019	8b f9		 mov	 edi, ecx
  0001b	89 9d 0c ff ff
	ff		 mov	 DWORD PTR $T21[ebp], ebx

; 99   : 	CCtrl::Serialize( ar );	//	25

  00021	53		 push	 ebx
  00022	89 bd fc fe ff
	ff		 mov	 DWORD PTR $T6[ebp], edi
  00028	e8 00 00 00 00	 call	 ?Serialize@CCtrl@@UAEXAAVCAr@@@Z ; CCtrl::Serialize
; File C:\IAGOS\server\v18\Source\Source\_Network\Misc\Include\ar.h

; 146  : 	return (m_nMode & CAr::load) == 0;

  0002d	f6 03 01	 test	 BYTE PTR [ebx], 1
; File C:\IAGOS\server\v18\Source\Source\_common\ObjSerializeOpt.cpp

; 102  : 	if( ar.IsStoring() )	// STORING

  00030	8b cb		 mov	 ecx, ebx
  00032	0f 85 a6 0a 00
	00		 jne	 $LN62@Serialize

; 103  : 	{
; 104  : 		ar << (u_short)m_dwMotion;

  00038	0f b7 87 d8 02
	00 00		 movzx	 eax, WORD PTR [edi+728]
  0003f	89 85 14 ff ff
	ff		 mov	 DWORD PTR $T33[ebp], eax
  00045	8d 85 14 ff ff
	ff		 lea	 eax, DWORD PTR $T33[ebp]
  0004b	50		 push	 eax
  0004c	e8 00 00 00 00	 call	 ??$?6G@CAr@@QAEAAV0@ABG@Z ; CAr::operator<<<unsigned short>

; 105  : 		ar << (u_char)m_bPlayer;

  00051	0f b6 87 30 02
	00 00		 movzx	 eax, BYTE PTR [edi+560]
  00058	8b cb		 mov	 ecx, ebx
  0005a	88 85 17 ff ff
	ff		 mov	 BYTE PTR $T42[ebp], al
  00060	8d 85 17 ff ff
	ff		 lea	 eax, DWORD PTR $T42[ebp]
  00066	50		 push	 eax
  00067	e8 00 00 00 00	 call	 ??$?6E@CAr@@QAEAAV0@ABE@Z ; CAr::operator<<<unsigned char>

; 106  : 		ar << m_nHitPoint;

  0006c	8d 87 f8 05 00
	00		 lea	 eax, DWORD PTR [edi+1528]
  00072	8b cb		 mov	 ecx, ebx
  00074	50		 push	 eax
  00075	e8 00 00 00 00	 call	 ??$?6J@CAr@@QAEAAV0@ABJ@Z ; CAr::operator<<<long>

; 107  : 		ar << m_pActMover->GetState();

  0007a	8b 87 38 02 00
	00		 mov	 eax, DWORD PTR [edi+568]
  00080	8b cb		 mov	 ecx, ebx
  00082	8b 40 04	 mov	 eax, DWORD PTR [eax+4]
  00085	89 85 14 ff ff
	ff		 mov	 DWORD PTR $T31[ebp], eax
  0008b	8d 85 14 ff ff
	ff		 lea	 eax, DWORD PTR $T31[ebp]
  00091	50		 push	 eax
  00092	e8 00 00 00 00	 call	 ??$?6K@CAr@@QAEAAV0@ABK@Z ; CAr::operator<<<unsigned long>

; 108  : 		ar << m_pActMover->GetStateFlag();

  00097	8b 87 38 02 00
	00		 mov	 eax, DWORD PTR [edi+568]
  0009d	8b cb		 mov	 ecx, ebx
  0009f	8b 40 08	 mov	 eax, DWORD PTR [eax+8]
  000a2	89 85 14 ff ff
	ff		 mov	 DWORD PTR $T32[ebp], eax
  000a8	8d 85 14 ff ff
	ff		 lea	 eax, DWORD PTR $T32[ebp]
  000ae	50		 push	 eax
  000af	e8 00 00 00 00	 call	 ??$?6K@CAr@@QAEAAV0@ABK@Z ; CAr::operator<<<unsigned long>

; 109  : 		ar << (u_char)m_dwBelligerence;

  000b4	0f b6 87 64 06
	00 00		 movzx	 eax, BYTE PTR [edi+1636]
  000bb	8b cb		 mov	 ecx, ebx
  000bd	88 85 17 ff ff
	ff		 mov	 BYTE PTR $T43[ebp], al
  000c3	8d 85 17 ff ff
	ff		 lea	 eax, DWORD PTR $T43[ebp]
  000c9	50		 push	 eax
  000ca	e8 00 00 00 00	 call	 ??$?6E@CAr@@QAEAAV0@ABE@Z ; CAr::operator<<<unsigned char>

; 110  : #if __VER >= 15 // __PETVIS
; 111  : 		ar << m_dwMoverSfxId;

  000cf	8d 87 9c 10 00
	00		 lea	 eax, DWORD PTR [edi+4252]
  000d5	8b cb		 mov	 ecx, ebx
  000d7	50		 push	 eax
  000d8	e8 00 00 00 00	 call	 ??$?6K@CAr@@QAEAAV0@ABK@Z ; CAr::operator<<<unsigned long>

; 112  : #endif // __PETVIS
; 113  : 		if( m_bPlayer )	// PLAYER

  000dd	83 bf 30 02 00
	00 00		 cmp	 DWORD PTR [edi+560], 0
  000e4	8b cb		 mov	 ecx, ebx
  000e6	0f 84 44 08 00
	00		 je	 $LN64@Serialize

; 114  : 		{
; 115  : 			ar.WriteString( m_szName );

  000ec	8d 87 ec 14 00
	00		 lea	 eax, DWORD PTR [edi+5356]
  000f2	50		 push	 eax
  000f3	e8 00 00 00 00	 call	 ?WriteString@CAr@@QAEXPBD@Z ; CAr::WriteString

; 116  : 			ar << GetSex();

  000f8	0f b6 87 18 06
	00 00		 movzx	 eax, BYTE PTR [edi+1560]
  000ff	8b cb		 mov	 ecx, ebx
  00101	88 85 17 ff ff
	ff		 mov	 BYTE PTR $T44[ebp], al
  00107	8d 85 17 ff ff
	ff		 lea	 eax, DWORD PTR $T44[ebp]
  0010d	50		 push	 eax
  0010e	e8 00 00 00 00	 call	 ??$?6E@CAr@@QAEAAV0@ABE@Z ; CAr::operator<<<unsigned char>

; 117  : 			ar << (u_char)m_dwSkinSet;

  00113	0f b6 87 1c 06
	00 00		 movzx	 eax, BYTE PTR [edi+1564]
  0011a	8b cb		 mov	 ecx, ebx
  0011c	88 85 17 ff ff
	ff		 mov	 BYTE PTR $T45[ebp], al
  00122	8d 85 17 ff ff
	ff		 lea	 eax, DWORD PTR $T45[ebp]
  00128	50		 push	 eax
  00129	e8 00 00 00 00	 call	 ??$?6E@CAr@@QAEAAV0@ABE@Z ; CAr::operator<<<unsigned char>

; 118  : 			ar << (u_char)m_dwHairMesh;

  0012e	0f b6 87 24 06
	00 00		 movzx	 eax, BYTE PTR [edi+1572]
  00135	8b cb		 mov	 ecx, ebx
  00137	88 85 17 ff ff
	ff		 mov	 BYTE PTR $T62[ebp], al
  0013d	8d 85 17 ff ff
	ff		 lea	 eax, DWORD PTR $T62[ebp]
  00143	50		 push	 eax
  00144	e8 00 00 00 00	 call	 ??$?6E@CAr@@QAEAAV0@ABE@Z ; CAr::operator<<<unsigned char>

; 119  : 			ar << m_dwHairColor;

  00149	8d 87 28 06 00
	00		 lea	 eax, DWORD PTR [edi+1576]
  0014f	8b cb		 mov	 ecx, ebx
  00151	50		 push	 eax
  00152	e8 00 00 00 00	 call	 ??$?6K@CAr@@QAEAAV0@ABK@Z ; CAr::operator<<<unsigned long>

; 120  : 			ar << (u_char)m_dwHeadMesh;

  00157	0f b6 87 2c 06
	00 00		 movzx	 eax, BYTE PTR [edi+1580]
  0015e	8b cb		 mov	 ecx, ebx
  00160	88 85 17 ff ff
	ff		 mov	 BYTE PTR $T46[ebp], al
  00166	8d 85 17 ff ff
	ff		 lea	 eax, DWORD PTR $T46[ebp]
  0016c	50		 push	 eax
  0016d	e8 00 00 00 00	 call	 ??$?6E@CAr@@QAEAAV0@ABE@Z ; CAr::operator<<<unsigned char>

; 121  : 			ar << m_idPlayer;

  00172	8d 87 34 02 00
	00		 lea	 eax, DWORD PTR [edi+564]
  00178	8b cb		 mov	 ecx, ebx
  0017a	50		 push	 eax
  0017b	e8 00 00 00 00	 call	 ??$?6K@CAr@@QAEAAV0@ABK@Z ; CAr::operator<<<unsigned long>

; 122  : 			ar << (u_char)m_nJob;

  00180	0f b6 87 3c 06
	00 00		 movzx	 eax, BYTE PTR [edi+1596]
  00187	8b cb		 mov	 ecx, ebx
  00189	88 85 17 ff ff
	ff		 mov	 BYTE PTR $T60[ebp], al
  0018f	8d 85 17 ff ff
	ff		 lea	 eax, DWORD PTR $T60[ebp]
  00195	50		 push	 eax
  00196	e8 00 00 00 00	 call	 ??$?6E@CAr@@QAEAAV0@ABE@Z ; CAr::operator<<<unsigned char>

; 123  : 			ar << (u_short)m_nStr;

  0019b	0f b7 87 c8 05
	00 00		 movzx	 eax, WORD PTR [edi+1480]
  001a2	8b cb		 mov	 ecx, ebx
  001a4	89 85 14 ff ff
	ff		 mov	 DWORD PTR $T40[ebp], eax
  001aa	8d 85 14 ff ff
	ff		 lea	 eax, DWORD PTR $T40[ebp]
  001b0	50		 push	 eax
  001b1	e8 00 00 00 00	 call	 ??$?6G@CAr@@QAEAAV0@ABG@Z ; CAr::operator<<<unsigned short>

; 124  : 			ar << (u_short)m_nSta;

  001b6	0f b7 87 cc 05
	00 00		 movzx	 eax, WORD PTR [edi+1484]
  001bd	8b cb		 mov	 ecx, ebx
  001bf	89 85 14 ff ff
	ff		 mov	 DWORD PTR $T38[ebp], eax
  001c5	8d 85 14 ff ff
	ff		 lea	 eax, DWORD PTR $T38[ebp]
  001cb	50		 push	 eax
  001cc	e8 00 00 00 00	 call	 ??$?6G@CAr@@QAEAAV0@ABG@Z ; CAr::operator<<<unsigned short>

; 125  : 			ar << (u_short)m_nDex;

  001d1	0f b7 87 d0 05
	00 00		 movzx	 eax, WORD PTR [edi+1488]
  001d8	8b cb		 mov	 ecx, ebx
  001da	89 85 14 ff ff
	ff		 mov	 DWORD PTR $T37[ebp], eax
  001e0	8d 85 14 ff ff
	ff		 lea	 eax, DWORD PTR $T37[ebp]
  001e6	50		 push	 eax
  001e7	e8 00 00 00 00	 call	 ??$?6G@CAr@@QAEAAV0@ABG@Z ; CAr::operator<<<unsigned short>

; 126  : 			ar << (u_short)m_nInt;

  001ec	0f b7 87 d4 05
	00 00		 movzx	 eax, WORD PTR [edi+1492]
  001f3	8b cb		 mov	 ecx, ebx
  001f5	89 85 14 ff ff
	ff		 mov	 DWORD PTR $T35[ebp], eax
  001fb	8d 85 14 ff ff
	ff		 lea	 eax, DWORD PTR $T35[ebp]
  00201	50		 push	 eax
  00202	e8 00 00 00 00	 call	 ??$?6G@CAr@@QAEAAV0@ABG@Z ; CAr::operator<<<unsigned short>

; 127  : 			ar << (u_short)m_nLevel;

  00207	0f b7 87 d8 05
	00 00		 movzx	 eax, WORD PTR [edi+1496]
  0020e	8b cb		 mov	 ecx, ebx
  00210	89 85 14 ff ff
	ff		 mov	 DWORD PTR $T34[ebp], eax
  00216	8d 85 14 ff ff
	ff		 lea	 eax, DWORD PTR $T34[ebp]
  0021c	50		 push	 eax
  0021d	e8 00 00 00 00	 call	 ??$?6G@CAr@@QAEAAV0@ABG@Z ; CAr::operator<<<unsigned short>

; 128  : 			ar << m_nFuel;

  00222	8d 87 78 06 00
	00		 lea	 eax, DWORD PTR [edi+1656]
  00228	8b cb		 mov	 ecx, ebx
  0022a	50		 push	 eax
  0022b	e8 00 00 00 00	 call	 ??$?6H@CAr@@QAEAAV0@ABH@Z ; CAr::operator<<<int>

; 129  : 			ar << m_tmAccFuel;

  00230	8d 87 7c 06 00
	00		 lea	 eax, DWORD PTR [edi+1660]
  00236	8b cb		 mov	 ecx, ebx
  00238	50		 push	 eax
  00239	e8 00 00 00 00	 call	 ??$?6H@CAr@@QAEAAV0@ABH@Z ; CAr::operator<<<int>

; 130  : 			if( m_idGuild > 0 )

  0023e	8d b7 14 07 00
	00		 lea	 esi, DWORD PTR [edi+1812]
  00244	8d 85 17 ff ff
	ff		 lea	 eax, DWORD PTR $T47[ebp]
  0024a	83 3e 00	 cmp	 DWORD PTR [esi], 0
  0024d	8b cb		 mov	 ecx, ebx
  0024f	50		 push	 eax
  00250	76 24		 jbe	 SHORT $LN66@Serialize

; 131  : 			{
; 132  : 				ar << (u_char)1;

  00252	c6 85 17 ff ff
	ff 01		 mov	 BYTE PTR $T47[ebp], 1
  00259	e8 00 00 00 00	 call	 ??$?6E@CAr@@QAEAAV0@ABE@Z ; CAr::operator<<<unsigned char>

; 133  : 				ar << m_idGuild;

  0025e	56		 push	 esi
  0025f	8b cb		 mov	 ecx, ebx
  00261	e8 00 00 00 00	 call	 ??$?6K@CAr@@QAEAAV0@ABK@Z ; CAr::operator<<<unsigned long>

; 134  : 				ar << m_idWar;

  00266	8d 87 20 07 00
	00		 lea	 eax, DWORD PTR [edi+1824]
  0026c	8b cb		 mov	 ecx, ebx
  0026e	50		 push	 eax
  0026f	e8 00 00 00 00	 call	 ??$?6K@CAr@@QAEAAV0@ABK@Z ; CAr::operator<<<unsigned long>

; 135  : 			}

  00274	eb 0c		 jmp	 SHORT $LN67@Serialize
$LN66@Serialize:

; 136  : 			else
; 137  : 			{
; 138  : 				ar << (u_char)0;

  00276	c6 85 17 ff ff
	ff 00		 mov	 BYTE PTR $T48[ebp], 0
  0027d	e8 00 00 00 00	 call	 ??$?6E@CAr@@QAEAAV0@ABE@Z ; CAr::operator<<<unsigned char>
$LN67@Serialize:

; 139  : 			}
; 140  : 			ar << m_idGuildCloak;

  00282	8d 87 1c 07 00
	00		 lea	 eax, DWORD PTR [edi+1820]
  00288	8b cb		 mov	 ecx, ebx
  0028a	50		 push	 eax
  0028b	e8 00 00 00 00	 call	 ??$?6K@CAr@@QAEAAV0@ABK@Z ; CAr::operator<<<unsigned long>

; 141  : 
; 142  : 			if( m_idparty > 0 )

  00290	83 bf 10 07 00
	00 00		 cmp	 DWORD PTR [edi+1808], 0
  00297	8d b7 10 07 00
	00		 lea	 esi, DWORD PTR [edi+1808]
  0029d	8d 85 17 ff ff
	ff		 lea	 eax, DWORD PTR $T49[ebp]
  002a3	8b cb		 mov	 ecx, ebx
  002a5	50		 push	 eax
  002a6	76 24		 jbe	 SHORT $LN68@Serialize

; 143  : 			{
; 144  : 				ar << (u_char)1;

  002a8	c6 85 17 ff ff
	ff 01		 mov	 BYTE PTR $T49[ebp], 1
  002af	e8 00 00 00 00	 call	 ??$?6E@CAr@@QAEAAV0@ABE@Z ; CAr::operator<<<unsigned char>

; 145  : 				ar << m_idparty;

  002b4	56		 push	 esi
  002b5	8b cb		 mov	 ecx, ebx
  002b7	e8 00 00 00 00	 call	 ??$?6K@CAr@@QAEAAV0@ABK@Z ; CAr::operator<<<unsigned long>

; 146  : 				ar << m_idDuelParty;

  002bc	8d 87 44 07 00
	00		 lea	 eax, DWORD PTR [edi+1860]
  002c2	8b cb		 mov	 ecx, ebx
  002c4	50		 push	 eax
  002c5	e8 00 00 00 00	 call	 ??$?6K@CAr@@QAEAAV0@ABK@Z ; CAr::operator<<<unsigned long>

; 147  : 			}

  002ca	eb 0c		 jmp	 SHORT $LN69@Serialize
$LN68@Serialize:

; 148  : 			else
; 149  : 			{
; 150  : 				ar << (u_char)0;

  002cc	c6 85 17 ff ff
	ff 00		 mov	 BYTE PTR $T66[ebp], 0
  002d3	e8 00 00 00 00	 call	 ??$?6E@CAr@@QAEAAV0@ABE@Z ; CAr::operator<<<unsigned char>
$LN69@Serialize:

; 151  : 			}
; 152  : 
; 153  : 			ar << (char)m_dwAuthorization;

  002d8	8a 87 40 06 00
	00		 mov	 al, BYTE PTR [edi+1600]
  002de	8b cb		 mov	 ecx, ebx
  002e0	88 85 17 ff ff
	ff		 mov	 BYTE PTR $T64[ebp], al
  002e6	8d 85 17 ff ff
	ff		 lea	 eax, DWORD PTR $T64[ebp]
  002ec	50		 push	 eax
  002ed	e8 00 00 00 00	 call	 ??$?6D@CAr@@QAEAAV0@ABD@Z ; CAr::operator<<<char>

; 154  : 			ar << m_dwMode;

  002f2	8d 87 40 02 00
	00		 lea	 eax, DWORD PTR [edi+576]
  002f8	8b cb		 mov	 ecx, ebx
  002fa	50		 push	 eax
  002fb	e8 00 00 00 00	 call	 ??$?6K@CAr@@QAEAAV0@ABK@Z ; CAr::operator<<<unsigned long>

; 155  : 			ar << m_dwStateMode;

  00300	8d 87 48 02 00
	00		 lea	 eax, DWORD PTR [edi+584]
  00306	8b cb		 mov	 ecx, ebx
  00308	50		 push	 eax
  00309	e8 00 00 00 00	 call	 ??$?6K@CAr@@QAEAAV0@ABK@Z ; CAr::operator<<<unsigned long>

; 156  :  #ifdef __WORLDSERVER
; 157  : 			CItemElem* pItemElem = m_Inventory.GetAtId( m_dwUseItemId );

  0030e	ff b7 88 06 00
	00		 push	 DWORD PTR [edi+1672]
  00314	8d 87 fc 0a 00
	00		 lea	 eax, DWORD PTR [edi+2812]
  0031a	8b c8		 mov	 ecx, eax
  0031c	89 85 f8 fe ff
	ff		 mov	 DWORD PTR tv2805[ebp], eax
  00322	e8 00 00 00 00	 call	 ?GetAtId@?$CItemContainer@VCItemElem@@@@QAEPAVCItemElem@@K@Z ; CItemContainer<CItemElem>::GetAtId

; 158  : 			if( pItemElem )

  00327	85 c0		 test	 eax, eax
  00329	74 36		 je	 SHORT $LN70@Serialize
; File C:\IAGOS\server\v18\Source\Source\_Common\Item.h

; 230  : 	ItemProp*	GetProp()	{	return prj.GetItemProp( m_dwItemId );	}

  0032b	8b 48 0c	 mov	 ecx, DWORD PTR [eax+12]
; File C:\IAGOS\server\v18\Source\Source\_Common\Project.h

; 1389 : 	VERIFY_RANGE_ASSERT( nIndex, 0, m_aPropItem.GetSize(), "GetItemProp range_error", NULL );

  0032e	a1 40 02 00 00	 mov	 eax, DWORD PTR ?prj@@3VCProject@@A+576
  00333	85 c9		 test	 ecx, ecx
  00335	78 10		 js	 SHORT $LN144@Serialize
  00337	3b c8		 cmp	 ecx, eax
  00339	7d 0c		 jge	 SHORT $LN144@Serialize
; File C:\IAGOS\server\v18\Source\Source\_Common\data.h

; 270  : 	if( dwIndex >= (DWORD)m_nMaxIndex )

  0033b	73 20		 jae	 SHORT $LN287@Serialize

; 272  : 	return (T*) m_apOffset[ dwIndex ];

  0033d	a1 30 02 00 00	 mov	 eax, DWORD PTR ?prj@@3VCProject@@A+560
  00342	8b 04 88	 mov	 eax, DWORD PTR [eax+ecx*4]
; File C:\IAGOS\server\v18\Source\Source\_Common\Project.h

; 1390 : 	return m_aPropItem.GetAt( nIndex ); 

  00345	eb 2a		 jmp	 SHORT $LN139@Serialize
$LN144@Serialize:

; 579  : 	LPCTSTR szErr = Error( _T( "%s min:%d, max:%d, index:%d" ), szMsg, nMin, nMax, nIndex ); 

  00347	51		 push	 ecx
  00348	50		 push	 eax
  00349	6a 00		 push	 0
  0034b	68 00 00 00 00	 push	 OFFSET ??_C@_0BI@BEIFNGEL@GetItemProp?5range_error@
  00350	68 00 00 00 00	 push	 OFFSET ??_C@_0BM@HMFGHCP@?$CFs?5min?3?$CFd?0?5max?3?$CFd?0?5index?3?$CFd@
  00355	e8 00 00 00 00	 call	 ?Error@@YAPBDPBDZZ	; Error
  0035a	83 c4 14	 add	 esp, 20			; 00000014H
$LN287@Serialize:
; File C:\IAGOS\server\v18\Source\Source\_common\ObjSerializeOpt.cpp

; 159  : 				ar << pItemElem->GetProp()->dwID;

  0035d	33 c0		 xor	 eax, eax
  0035f	eb 10		 jmp	 SHORT $LN139@Serialize
$LN70@Serialize:

; 160  : 			else
; 161  : 				ar << (OBJID)0;

  00361	c7 85 14 ff ff
	ff 00 00 00 00	 mov	 DWORD PTR $T29[ebp], 0
  0036b	8d 85 14 ff ff
	ff		 lea	 eax, DWORD PTR $T29[ebp]
$LN139@Serialize:

; 162  :  #else // __WORLDSERVER
; 163  : 			ar << m_dwUseItemId;
; 164  :  #endif // __WORLDSERVER
; 165  : #if __VER >= 8 // __S8_PK
; 166  : 			if( m_dwPKTime > 0 )

  00371	50		 push	 eax
  00372	8b cb		 mov	 ecx, ebx
  00374	e8 00 00 00 00	 call	 ??$?6K@CAr@@QAEAAV0@ABK@Z ; CAr::operator<<<unsigned long>
  00379	83 bf 50 07 00
	00 00		 cmp	 DWORD PTR [edi+1872], 0
  00380	8d 87 50 07 00
	00		 lea	 eax, DWORD PTR [edi+1872]
  00386	76 16		 jbe	 SHORT $LN72@Serialize

; 167  : 	#ifdef __WORLDSERVER
; 168  : 				ar << ( m_dwPKTime - GetTickCount() );

  00388	8b 30		 mov	 esi, DWORD PTR [eax]
  0038a	ff 15 00 00 00
	00		 call	 DWORD PTR __imp__GetTickCount@0
  00390	2b f0		 sub	 esi, eax
  00392	8d 85 14 ff ff
	ff		 lea	 eax, DWORD PTR $T28[ebp]
  00398	89 b5 14 ff ff
	ff		 mov	 DWORD PTR $T28[ebp], esi
$LN72@Serialize:

; 169  : 	#else // __WORLDSERVER
; 170  : 				ar << m_dwPKTime;
; 171  : 	#endif // __WORLDSERVER
; 172  : 			else
; 173  : 				ar << m_dwPKTime;
; 174  : 			ar << m_nPKValue;

  0039e	50		 push	 eax
  0039f	8b cb		 mov	 ecx, ebx
  003a1	e8 00 00 00 00	 call	 ??$?6K@CAr@@QAEAAV0@ABK@Z ; CAr::operator<<<unsigned long>
  003a6	8d 87 54 07 00
	00		 lea	 eax, DWORD PTR [edi+1876]
  003ac	8b cb		 mov	 ecx, ebx
  003ae	50		 push	 eax
  003af	e8 00 00 00 00	 call	 ??$?6H@CAr@@QAEAAV0@ABH@Z ; CAr::operator<<<int>

; 175  : 			ar << m_dwPKPropensity;

  003b4	8d 87 58 07 00
	00		 lea	 eax, DWORD PTR [edi+1880]
  003ba	8b cb		 mov	 ecx, ebx
  003bc	50		 push	 eax
  003bd	e8 00 00 00 00	 call	 ??$?6K@CAr@@QAEAAV0@ABK@Z ; CAr::operator<<<unsigned long>

; 176  : 			ar << m_dwPKExp;

  003c2	8d 87 5c 07 00
	00		 lea	 eax, DWORD PTR [edi+1884]
  003c8	8b cb		 mov	 ecx, ebx
  003ca	50		 push	 eax
  003cb	e8 00 00 00 00	 call	 ??$?6K@CAr@@QAEAAV0@ABK@Z ; CAr::operator<<<unsigned long>

; 177  : #else // __VER >= 8 // __S8_PK
; 178  : 			ar << (u_short)m_nNumKill;
; 179  : 			ar << m_nSlaughter;
; 180  : #endif // __VER >= 8 // __S8_PK
; 181  : 			ar << m_nFame;

  003d0	8d 87 48 07 00
	00		 lea	 eax, DWORD PTR [edi+1864]
  003d6	8b cb		 mov	 ecx, ebx
  003d8	50		 push	 eax
  003d9	e8 00 00 00 00	 call	 ??$?6H@CAr@@QAEAAV0@ABH@Z ; CAr::operator<<<int>

; 182  : 			ar << (u_char)m_nDuel;

  003de	8a 87 3c 07 00
	00		 mov	 al, BYTE PTR [edi+1852]
  003e4	8b cb		 mov	 ecx, ebx
  003e6	88 85 17 ff ff
	ff		 mov	 BYTE PTR $T61[ebp], al
  003ec	8d 85 17 ff ff
	ff		 lea	 eax, DWORD PTR $T61[ebp]
  003f2	50		 push	 eax
  003f3	e8 00 00 00 00	 call	 ??$?6E@CAr@@QAEAAV0@ABE@Z ; CAr::operator<<<unsigned char>

; 183  : #if __VER >= 13 // __HONORABLE_TITLE			// ´ŢŔÎ
; 184  : 			ar << m_nHonor;					// ´ŢŔÎĽ±ĹĂ 

  003f8	8d 87 70 08 00
	00		 lea	 eax, DWORD PTR [edi+2160]
  003fe	8b cb		 mov	 ecx, ebx
  00400	50		 push	 eax
  00401	e8 00 00 00 00	 call	 ??$?6H@CAr@@QAEAAV0@ABH@Z ; CAr::operator<<<int>
  00406	33 f6		 xor	 esi, esi
  00408	0f 1f 84 00 00
	00 00 00	 npad	 8
$LL4@Serialize:

; 185  : #endif	// __HONORABLE_TITLE			// ´ŢŔÎ
; 186  : 			{
; 187  : 				int i;
; 188  : 				for( i = 0; i < MAX_HUMAN_PARTS; i ++ )
; 189  : 				{
; 190  : 					ar << m_aEquipInfo[i].nOption;

  00410	8d 87 28 0b 00
	00		 lea	 eax, DWORD PTR [edi+2856]
  00416	8b cb		 mov	 ecx, ebx
  00418	50		 push	 eax
  00419	e8 00 00 00 00	 call	 ??$?6H@CAr@@QAEAAV0@ABH@Z ; CAr::operator<<<int>
  0041e	83 c6 0c	 add	 esi, 12			; 0000000cH
  00421	8d 7f 0c	 lea	 edi, DWORD PTR [edi+12]
  00424	81 fe 74 01 00
	00		 cmp	 esi, 372		; 00000174H
  0042a	7c e4		 jl	 SHORT $LL4@Serialize

; 191  : 				}
; 192  : 			}
; 193  : 			ar << m_nGuildCombatState;

  0042c	8b bd fc fe ff
	ff		 mov	 edi, DWORD PTR $T6[ebp]
  00432	8b cb		 mov	 ecx, ebx
  00434	8d 87 b0 0d 00
	00		 lea	 eax, DWORD PTR [edi+3504]
  0043a	50		 push	 eax
  0043b	e8 00 00 00 00	 call	 ??$?6H@CAr@@QAEAAV0@ABH@Z ; CAr::operator<<<int>
  00440	33 f6		 xor	 esi, esi
$LL7@Serialize:

; 194  : 			
; 195  : 			for( int j = 0 ; j < SM_MAX ; ++j )
; 196  : 				ar << m_dwSMTime[j];

  00442	8d 87 fc 02 00
	00		 lea	 eax, DWORD PTR [edi+764]
  00448	8b cb		 mov	 ecx, ebx
  0044a	50		 push	 eax
  0044b	e8 00 00 00 00	 call	 ??$?6K@CAr@@QAEAAV0@ABK@Z ; CAr::operator<<<unsigned long>
  00450	83 c6 04	 add	 esi, 4
  00453	8d 7f 04	 lea	 edi, DWORD PTR [edi+4]
  00456	83 fe 68	 cmp	 esi, 104		; 00000068H
  00459	7c e7		 jl	 SHORT $LL7@Serialize

; 197  : 
; 198  : 			if( CObj::GetMethod() == METHOD_NONE )

  0045b	a1 00 00 00 00	 mov	 eax, DWORD PTR ?m_nMethod@CObj@@2HA ; CObj::m_nMethod
  00460	8b bd fc fe ff
	ff		 mov	 edi, DWORD PTR $T6[ebp]
  00466	85 c0		 test	 eax, eax
  00468	0f 85 65 03 00
	00		 jne	 $LN74@Serialize

; 199  : 			{
; 200  : 				ar << (u_short)m_nManaPoint;

  0046e	0f b7 87 fc 05
	00 00		 movzx	 eax, WORD PTR [edi+1532]
  00475	8b cb		 mov	 ecx, ebx
  00477	89 85 0c ff ff
	ff		 mov	 DWORD PTR $T22[ebp], eax
  0047d	8d 85 0c ff ff
	ff		 lea	 eax, DWORD PTR $T22[ebp]
  00483	50		 push	 eax
  00484	e8 00 00 00 00	 call	 ??$?6G@CAr@@QAEAAV0@ABG@Z ; CAr::operator<<<unsigned short>

; 201  : 				ar << (u_short)m_nFatiguePoint;

  00489	0f b7 87 00 06
	00 00		 movzx	 eax, WORD PTR [edi+1536]
  00490	8b cb		 mov	 ecx, ebx
  00492	89 85 0c ff ff
	ff		 mov	 DWORD PTR $T23[ebp], eax
  00498	8d 85 0c ff ff
	ff		 lea	 eax, DWORD PTR $T23[ebp]
  0049e	50		 push	 eax
  0049f	e8 00 00 00 00	 call	 ??$?6G@CAr@@QAEAAV0@ABG@Z ; CAr::operator<<<unsigned short>

; 202  : #if __VER >= 12 // __MOD_TUTORIAL
; 203  : 				ar << m_nTutorialState;

  004a4	8d 87 f0 05 00
	00		 lea	 eax, DWORD PTR [edi+1520]
  004aa	8b cb		 mov	 ecx, ebx
  004ac	50		 push	 eax
  004ad	e8 00 00 00 00	 call	 ??$?6H@CAr@@QAEAAV0@ABH@Z ; CAr::operator<<<int>

; 204  : #else	// __MOD_TUTORIAL
; 205  : 				ar << (u_short)m_nFlightLv;
; 206  : #endif	// __MOD_TUTORIAL
; 207  : 				ar << m_nFxp;

  004b2	8d 87 f4 05 00
	00		 lea	 eax, DWORD PTR [edi+1524]
  004b8	8b cb		 mov	 ecx, ebx
  004ba	50		 push	 eax
  004bb	e8 00 00 00 00	 call	 ??$?6J@CAr@@QAEAAV0@ABJ@Z ; CAr::operator<<<long>

; 208  : 				
; 209  : 				dwGold = GetGold();

  004c0	8b 87 e0 14 00
	00		 mov	 eax, DWORD PTR [edi+5344]

; 210  : 				ar << dwGold;

  004c6	8b cb		 mov	 ecx, ebx
  004c8	89 85 0c ff ff
	ff		 mov	 DWORD PTR _dwGold$[ebp], eax
  004ce	8d 85 0c ff ff
	ff		 lea	 eax, DWORD PTR _dwGold$[ebp]
  004d4	50		 push	 eax
  004d5	e8 00 00 00 00	 call	 ??$?6K@CAr@@QAEAAV0@ABK@Z ; CAr::operator<<<unsigned long>

; 211  : 				ar << m_nExp1;

  004da	8d 87 e0 05 00
	00		 lea	 eax, DWORD PTR [edi+1504]
  004e0	8b cb		 mov	 ecx, ebx
  004e2	50		 push	 eax
  004e3	e8 00 00 00 00	 call	 ??$?6_J@CAr@@QAEAAV0@AB_J@Z ; CAr::operator<<<__int64>

; 212  : 				ar << m_nSkillLevel;

  004e8	8d 87 ac 10 00
	00		 lea	 eax, DWORD PTR [edi+4268]
  004ee	8b cb		 mov	 ecx, ebx
  004f0	50		 push	 eax
  004f1	e8 00 00 00 00	 call	 ??$?6H@CAr@@QAEAAV0@ABH@Z ; CAr::operator<<<int>

; 213  : 				ar << m_nSkillPoint;

  004f6	8d 87 b0 10 00
	00		 lea	 eax, DWORD PTR [edi+4272]
  004fc	8b cb		 mov	 ecx, ebx
  004fe	50		 push	 eax
  004ff	e8 00 00 00 00	 call	 ??$?6H@CAr@@QAEAAV0@ABH@Z ; CAr::operator<<<int>

; 214  : 				ar << m_nDeathExp;

  00504	8d 87 e8 05 00
	00		 lea	 eax, DWORD PTR [edi+1512]
  0050a	8b cb		 mov	 ecx, ebx
  0050c	50		 push	 eax
  0050d	e8 00 00 00 00	 call	 ??$?6_J@CAr@@QAEAAV0@AB_J@Z ; CAr::operator<<<__int64>

; 215  : 				ar << m_nDeathLevel;

  00512	8d 87 dc 05 00
	00		 lea	 eax, DWORD PTR [edi+1500]
  00518	8b cb		 mov	 ecx, ebx
  0051a	50		 push	 eax
  0051b	e8 00 00 00 00	 call	 ??$?6J@CAr@@QAEAAV0@ABJ@Z ; CAr::operator<<<long>

; 216  : 				DWORD dwJobLv[MAX_JOB] = {0, };

  00520	68 a0 00 00 00	 push	 160			; 000000a0H
  00525	8d 85 18 ff ff
	ff		 lea	 eax, DWORD PTR _dwJobLv$69[ebp]
  0052b	6a 00		 push	 0
  0052d	50		 push	 eax
  0052e	e8 00 00 00 00	 call	 _memset
  00533	83 c4 0c	 add	 esp, 12			; 0000000cH

; 217  : 				ar.Write( (void*)dwJobLv, sizeof(DWORD) * MAX_JOB );

  00536	8d 85 18 ff ff
	ff		 lea	 eax, DWORD PTR _dwJobLv$69[ebp]
  0053c	8b cb		 mov	 ecx, ebx
  0053e	68 a0 00 00 00	 push	 160			; 000000a0H
  00543	50		 push	 eax
  00544	e8 00 00 00 00	 call	 ?Write@CAr@@QAEXPBXI@Z	; CAr::Write

; 218  : 				ar << m_idMarkingWorld;

  00549	8d 87 c0 0d 00
	00		 lea	 eax, DWORD PTR [edi+3520]
  0054f	8b cb		 mov	 ecx, ebx
  00551	50		 push	 eax
  00552	e8 00 00 00 00	 call	 ??$?6K@CAr@@QAEAAV0@ABK@Z ; CAr::operator<<<unsigned long>

; 219  : 				ar << m_vMarkingPos;

  00557	8d 87 b4 0d 00
	00		 lea	 eax, DWORD PTR [edi+3508]
  0055d	8b cb		 mov	 ecx, ebx
  0055f	50		 push	 eax
  00560	e8 00 00 00 00	 call	 ??$?6UD3DXVECTOR3@@@CAr@@QAEAAV0@ABUD3DXVECTOR3@@@Z ; CAr::operator<<<D3DXVECTOR3>

; 220  : 				ar << m_nQuestSize;

  00565	8d b7 96 0d 00
	00		 lea	 esi, DWORD PTR [edi+3478]
  0056b	8b cb		 mov	 ecx, ebx
  0056d	56		 push	 esi
  0056e	e8 00 00 00 00	 call	 ??$?6E@CAr@@QAEAAV0@ABE@Z ; CAr::operator<<<unsigned char>

; 221  : 				ar.Write( m_aQuest, sizeof(QUEST) * m_nQuestSize );

  00573	0f b6 06	 movzx	 eax, BYTE PTR [esi]
  00576	8b cb		 mov	 ecx, ebx
  00578	8d 04 40	 lea	 eax, DWORD PTR [eax+eax*2]
  0057b	c1 e0 02	 shl	 eax, 2
  0057e	50		 push	 eax
  0057f	ff b7 98 0d 00
	00		 push	 DWORD PTR [edi+3480]
  00585	e8 00 00 00 00	 call	 ?Write@CAr@@QAEXPBXI@Z	; CAr::Write

; 222  : 				ar << m_nCompleteQuestSize;

  0058a	8d b7 9c 0d 00
	00		 lea	 esi, DWORD PTR [edi+3484]
  00590	8b cb		 mov	 ecx, ebx
  00592	56		 push	 esi
  00593	e8 00 00 00 00	 call	 ??$?6E@CAr@@QAEAAV0@ABE@Z ; CAr::operator<<<unsigned char>

; 223  : 				ar.Write( m_aCompleteQuest, sizeof(WORD) * m_nCompleteQuestSize ); 

  00598	0f b6 06	 movzx	 eax, BYTE PTR [esi]
  0059b	03 c0		 add	 eax, eax
  0059d	8b cb		 mov	 ecx, ebx
  0059f	50		 push	 eax
  005a0	ff b7 a0 0d 00
	00		 push	 DWORD PTR [edi+3488]
  005a6	e8 00 00 00 00	 call	 ?Write@CAr@@QAEXPBXI@Z	; CAr::Write

; 224  : 
; 225  : #if __VER >= 15 // __IMPROVE_QUEST_INTERFACE
; 226  : 				ar << m_nCheckedQuestSize;

  005ab	8d b7 a4 0d 00
	00		 lea	 esi, DWORD PTR [edi+3492]
  005b1	8b cb		 mov	 ecx, ebx
  005b3	56		 push	 esi
  005b4	e8 00 00 00 00	 call	 ??$?6E@CAr@@QAEAAV0@ABE@Z ; CAr::operator<<<unsigned char>

; 227  : 				ar.Write( m_aCheckedQuest, sizeof(WORD) * m_nCheckedQuestSize ); 

  005b9	0f b6 06	 movzx	 eax, BYTE PTR [esi]
  005bc	8b cb		 mov	 ecx, ebx
  005be	03 c0		 add	 eax, eax
  005c0	50		 push	 eax
  005c1	ff b7 a8 0d 00
	00		 push	 DWORD PTR [edi+3496]
  005c7	e8 00 00 00 00	 call	 ?Write@CAr@@QAEXPBXI@Z	; CAr::Write

; 228  : #endif // __IMPROVE_QUEST_INTERFACE
; 229  : 
; 230  : 				ar << m_idMurderer;

  005cc	8d 87 4c 07 00
	00		 lea	 eax, DWORD PTR [edi+1868]
  005d2	8b cb		 mov	 ecx, ebx
  005d4	50		 push	 eax
  005d5	e8 00 00 00 00	 call	 ??$?6K@CAr@@QAEAAV0@ABK@Z ; CAr::operator<<<unsigned long>

; 231  : 				ar << (short)m_nRemainGP;

  005da	0f b7 87 04 06
	00 00		 movzx	 eax, WORD PTR [edi+1540]
  005e1	8b cb		 mov	 ecx, ebx
  005e3	89 85 0c ff ff
	ff		 mov	 DWORD PTR $T24[ebp], eax
  005e9	8d 85 0c ff ff
	ff		 lea	 eax, DWORD PTR $T24[ebp]
  005ef	50		 push	 eax
  005f0	e8 00 00 00 00	 call	 ??$?6F@CAr@@QAEAAV0@ABF@Z ; CAr::operator<<<short>

; 232  : 				ar << (short)0;

  005f5	8d 85 0c ff ff
	ff		 lea	 eax, DWORD PTR $T25[ebp]
  005fb	c7 85 0c ff ff
	ff 00 00 00 00	 mov	 DWORD PTR $T25[ebp], 0
  00605	50		 push	 eax
  00606	8b cb		 mov	 ecx, ebx
  00608	e8 00 00 00 00	 call	 ??$?6F@CAr@@QAEAAV0@ABF@Z ; CAr::operator<<<short>
  0060d	8d b7 24 0b 00
	00		 lea	 esi, DWORD PTR [edi+2852]
  00613	bf 1f 00 00 00	 mov	 edi, 31			; 0000001fH
$LL10@Serialize:

; 233  : 				{
; 234  : 					for( int i = 0; i < MAX_HUMAN_PARTS; i++ )
; 235  : 						ar << m_aEquipInfo[i].dwId;

  00618	56		 push	 esi
  00619	8b cb		 mov	 ecx, ebx
  0061b	e8 00 00 00 00	 call	 ??$?6K@CAr@@QAEAAV0@ABK@Z ; CAr::operator<<<unsigned long>
  00620	83 c6 0c	 add	 esi, 12			; 0000000cH
  00623	83 ef 01	 sub	 edi, 1
  00626	75 f0		 jne	 SHORT $LL10@Serialize

; 236  : 				}
; 237  : 				ar.Write( (void*)m_aJobSkill, sizeof(SKILL) *  ( MAX_SKILL_JOB ) );

  00628	8b bd fc fe ff
	ff		 mov	 edi, DWORD PTR $T6[ebp]
  0062e	8b cb		 mov	 ecx, ebx
  00630	68 98 01 00 00	 push	 408			; 00000198H
  00635	8d 87 64 03 00
	00		 lea	 eax, DWORD PTR [edi+868]
  0063b	50		 push	 eax
  0063c	e8 00 00 00 00	 call	 ?Write@CAr@@QAEXPBXI@Z	; CAr::Write

; 238  : 				
; 239  : 				ar << (BYTE)m_nCheerPoint << m_dwTickCheer - GetTickCount();

  00641	8b b7 28 07 00
	00		 mov	 esi, DWORD PTR [edi+1832]
  00647	ff 15 00 00 00
	00		 call	 DWORD PTR __imp__GetTickCount@0
  0064d	2b f0		 sub	 esi, eax
  0064f	8b cb		 mov	 ecx, ebx
  00651	8a 87 2c 07 00
	00		 mov	 al, BYTE PTR [edi+1836]
  00657	88 85 17 ff ff
	ff		 mov	 BYTE PTR $T58[ebp], al
  0065d	8d 85 0c ff ff
	ff		 lea	 eax, DWORD PTR $T19[ebp]
  00663	50		 push	 eax
  00664	8d 85 17 ff ff
	ff		 lea	 eax, DWORD PTR $T58[ebp]
  0066a	89 b5 0c ff ff
	ff		 mov	 DWORD PTR $T19[ebp], esi
  00670	50		 push	 eax
  00671	e8 00 00 00 00	 call	 ??$?6E@CAr@@QAEAAV0@ABE@Z ; CAr::operator<<<unsigned char>
  00676	8b c8		 mov	 ecx, eax
  00678	e8 00 00 00 00	 call	 ??$?6K@CAr@@QAEAAV0@ABK@Z ; CAr::operator<<<unsigned long>

; 240  : 
; 241  : 				ar << m_nSlot;

  0067d	8d 87 38 0d 00
	00		 lea	 eax, DWORD PTR [edi+3384]
  00683	8b cb		 mov	 ecx, ebx
  00685	50		 push	 eax
  00686	e8 00 00 00 00	 call	 ??$?6E@CAr@@QAEAAV0@ABE@Z ; CAr::operator<<<unsigned char>
  0068b	33 f6		 xor	 esi, esi
  0068d	0f 1f 00	 npad	 3
$LL13@Serialize:

; 242  : 				for( int k = 0 ; k < 3 ; ++k )
; 243  : 					ar << m_dwGoldBank[k];

  00690	8d 87 4c 0d 00
	00		 lea	 eax, DWORD PTR [edi+3404]
  00696	8b cb		 mov	 ecx, ebx
  00698	50		 push	 eax
  00699	e8 00 00 00 00	 call	 ??$?6K@CAr@@QAEAAV0@ABK@Z ; CAr::operator<<<unsigned long>
  0069e	83 c6 04	 add	 esi, 4
  006a1	8d 7f 04	 lea	 edi, DWORD PTR [edi+4]
  006a4	83 fe 0c	 cmp	 esi, 12			; 0000000cH
  006a7	7c e7		 jl	 SHORT $LL13@Serialize

; 244  : 				for( int k = 0 ; k < 3 ; ++k )

  006a9	8b bd fc fe ff
	ff		 mov	 edi, DWORD PTR $T6[ebp]
  006af	33 f6		 xor	 esi, esi
$LL16@Serialize:

; 245  : 					ar << m_idPlayerBank[k];

  006b1	8d 87 40 0d 00
	00		 lea	 eax, DWORD PTR [edi+3392]
  006b7	8b cb		 mov	 ecx, ebx
  006b9	50		 push	 eax
  006ba	e8 00 00 00 00	 call	 ??$?6K@CAr@@QAEAAV0@ABK@Z ; CAr::operator<<<unsigned long>
  006bf	83 c6 04	 add	 esi, 4
  006c2	8d 7f 04	 lea	 edi, DWORD PTR [edi+4]
  006c5	83 fe 0c	 cmp	 esi, 12			; 0000000cH
  006c8	7c e7		 jl	 SHORT $LL16@Serialize

; 246  : 				ar << m_nPlusMaxHitPoint;

  006ca	8b bd fc fe ff
	ff		 mov	 edi, DWORD PTR $T6[ebp]
  006d0	8b cb		 mov	 ecx, ebx
  006d2	8d 87 b0 06 00
	00		 lea	 eax, DWORD PTR [edi+1712]
  006d8	50		 push	 eax
  006d9	e8 00 00 00 00	 call	 ??$?6J@CAr@@QAEAAV0@ABJ@Z ; CAr::operator<<<long>

; 247  : 				ar << m_nAttackResistLeft;

  006de	8d 87 0c 07 00
	00		 lea	 eax, DWORD PTR [edi+1804]
  006e4	8b cb		 mov	 ecx, ebx
  006e6	50		 push	 eax
  006e7	e8 00 00 00 00	 call	 ??$?6E@CAr@@QAEAAV0@ABE@Z ; CAr::operator<<<unsigned char>

; 248  : 				ar << m_nAttackResistRight;

  006ec	8d 87 0d 07 00
	00		 lea	 eax, DWORD PTR [edi+1805]
  006f2	8b cb		 mov	 ecx, ebx
  006f4	50		 push	 eax
  006f5	e8 00 00 00 00	 call	 ??$?6E@CAr@@QAEAAV0@ABE@Z ; CAr::operator<<<unsigned char>

; 249  : 				ar << m_nDefenseResist;

  006fa	8d 87 0e 07 00
	00		 lea	 eax, DWORD PTR [edi+1806]
  00700	8b cb		 mov	 ecx, ebx
  00702	50		 push	 eax
  00703	e8 00 00 00 00	 call	 ??$?6E@CAr@@QAEAAV0@ABE@Z ; CAr::operator<<<unsigned char>

; 250  : #if __VER >= 8 // __CSC_VER8_5
; 251  : 				ar << m_nAngelExp;

  00708	8d 87 60 07 00
	00		 lea	 eax, DWORD PTR [edi+1888]
  0070e	8b cb		 mov	 ecx, ebx
  00710	50		 push	 eax
  00711	e8 00 00 00 00	 call	 ??$?6_J@CAr@@QAEAAV0@AB_J@Z ; CAr::operator<<<__int64>

; 252  : 				ar << m_nAngelLevel;

  00716	8d 87 68 07 00
	00		 lea	 eax, DWORD PTR [edi+1896]
  0071c	8b cb		 mov	 ecx, ebx
  0071e	50		 push	 eax
  0071f	e8 00 00 00 00	 call	 ??$?6J@CAr@@QAEAAV0@ABJ@Z ; CAr::operator<<<long>

; 253  : #endif // __CSC_VER8_5
; 254  : 				m_Inventory.Serialize( ar );

  00724	53		 push	 ebx
  00725	8d 8f fc 0a 00
	00		 lea	 ecx, DWORD PTR [edi+2812]
  0072b	e8 00 00 00 00	 call	 ?Serialize@?$CItemContainer@VCItemElem@@@@QAEXAAVCAr@@@Z ; CItemContainer<CItemElem>::Serialize
  00730	8d b7 58 0d 00
	00		 lea	 esi, DWORD PTR [edi+3416]
  00736	bf 03 00 00 00	 mov	 edi, 3
  0073b	0f 1f 44 00 00	 npad	 5
$LL19@Serialize:

; 255  : 				for( int k = 0 ; k < 3 ; ++k )
; 256  : 					m_Bank[k].Serialize( ar );

  00740	53		 push	 ebx
  00741	8b ce		 mov	 ecx, esi
  00743	e8 00 00 00 00	 call	 ?Serialize@?$CItemContainer@VCItemElem@@@@QAEXAAVCAr@@@Z ; CItemContainer<CItemElem>::Serialize
  00748	83 c6 14	 add	 esi, 20			; 00000014H
  0074b	83 ef 01	 sub	 edi, 1
  0074e	75 f0		 jne	 SHORT $LL19@Serialize

; 257  : #if __VER >= 9	// __PET_0410
; 258  : 				ar << GetPetId();	// ĽŇČŻ ÁßŔÎ Ćę ŔÎşĄĹä¸® Ŕ§Äˇ

  00750	8b bd fc fe ff
	ff		 mov	 edi, DWORD PTR $T6[ebp]
  00756	8b cb		 mov	 ecx, ebx
  00758	8b 87 98 10 00
	00		 mov	 eax, DWORD PTR [edi+4248]
  0075e	89 85 0c ff ff
	ff		 mov	 DWORD PTR $T20[ebp], eax
  00764	8d 85 0c ff ff
	ff		 lea	 eax, DWORD PTR $T20[ebp]
  0076a	50		 push	 eax
  0076b	e8 00 00 00 00	 call	 ??$?6K@CAr@@QAEAAV0@ABK@Z ; CAr::operator<<<unsigned long>

; 259  : #endif	// __PET_0410
; 260  : #if __VER >= 11 // __SYS_POCKET
; 261  : 				m_Pocket.Serialize( ar );

  00770	53		 push	 ebx
  00771	8d 8f 10 0b 00
	00		 lea	 ecx, DWORD PTR [edi+2832]
  00777	e8 00 00 00 00	 call	 ?Serialize@CPocketController@@QAEXAAVCAr@@@Z ; CPocketController::Serialize

; 262  : #endif	// __SYS_POCKET
; 263  : #ifdef __JEFF_9_20
; 264  : 				ar << m_dwMute;

  0077c	8d 87 d4 0a 00
	00		 lea	 eax, DWORD PTR [edi+2772]
  00782	8b cb		 mov	 ecx, ebx
  00784	50		 push	 eax
  00785	e8 00 00 00 00	 call	 ??$?6K@CAr@@QAEAAV0@ABK@Z ; CAr::operator<<<unsigned long>
  0078a	33 f6		 xor	 esi, esi
  0078c	0f 1f 40 00	 npad	 4
$LL22@Serialize:

; 265  : #endif	// __JEFF_9_20
; 266  : #if __VER >= 13 // __HONORABLE_TITLE			// ´ŢŔÎ
; 267  : 				for( int i = 0 ; i < MAX_HONOR_TITLE ; ++i )
; 268  : 				{
; 269  : 					ar << m_aHonorTitle[i];

  00790	8d 87 78 08 00
	00		 lea	 eax, DWORD PTR [edi+2168]
  00796	8b cb		 mov	 ecx, ebx
  00798	50		 push	 eax
  00799	e8 00 00 00 00	 call	 ??$?6H@CAr@@QAEAAV0@ABH@Z ; CAr::operator<<<int>
  0079e	83 c6 04	 add	 esi, 4
  007a1	8d 7f 04	 lea	 edi, DWORD PTR [edi+4]
  007a4	81 fe 58 02 00
	00		 cmp	 esi, 600		; 00000258H
  007aa	7c e4		 jl	 SHORT $LL22@Serialize

; 270  : 
; 271  : 				}
; 272  : #endif	// __HONORABLE_TITLE			// ´ŢŔÎ
; 273  : #if __VER >= 15 // __CAMPUS
; 274  : 				ar << m_idCampus;

  007ac	8b bd fc fe ff
	ff		 mov	 edi, DWORD PTR $T6[ebp]
  007b2	8b cb		 mov	 ecx, ebx
  007b4	8d 87 cc 14 00
	00		 lea	 eax, DWORD PTR [edi+5324]
  007ba	50		 push	 eax
  007bb	e8 00 00 00 00	 call	 ??$?6K@CAr@@QAEAAV0@ABK@Z ; CAr::operator<<<unsigned long>

; 275  : 				ar << m_nCampusPoint;

  007c0	8d 87 d0 14 00
	00		 lea	 eax, DWORD PTR [edi+5328]
  007c6	8b cb		 mov	 ecx, ebx
  007c8	50		 push	 eax
  007c9	e8 00 00 00 00	 call	 ??$?6H@CAr@@QAEAAV0@ABH@Z ; CAr::operator<<<int>

; 276  : #endif // __CAMPUS
; 277  : 			}

  007ce	e9 3d 0d 00 00	 jmp	 $LN82@Serialize
$LN74@Serialize:

; 278  : 			else if( CObj::GetMethod() == METHOD_EXCLUDE_ITEM )

  007d3	83 f8 01	 cmp	 eax, 1
  007d6	0f 85 34 0d 00
	00		 jne	 $LN82@Serialize

; 279  : 			{
; 280  : #	if defined (__WORLDSERVER) || defined(__CLIENT)
; 281  : 				ar.WriteString( m_vtInfo.GetTitle() );

  007dc	8d 8f 98 0c 00
	00		 lea	 ecx, DWORD PTR [edi+3224]
  007e2	e8 00 00 00 00	 call	 ?GetTitle@CVTInfo@@QAEPBDXZ ; CVTInfo::GetTitle
  007e7	50		 push	 eax
  007e8	8b cb		 mov	 ecx, ebx
  007ea	e8 00 00 00 00	 call	 ?WriteString@CAr@@QAEXPBD@Z ; CAr::WriteString
; File C:\IAGOS\server\v18\Source\Source\_Network\Misc\Include\ar.h

; 356  : 	return( m_lpBufCur - m_lpBufStart );

  007ef	8b 43 08	 mov	 eax, DWORD PTR [ebx+8]
; File C:\IAGOS\server\v18\Source\Source\_common\ObjSerializeOpt.cpp

; 283  : 				u_char uSize	= 0;

  007f2	32 c9		 xor	 cl, cl
; File C:\IAGOS\server\v18\Source\Source\_Network\Misc\Include\ar.h

; 356  : 	return( m_lpBufCur - m_lpBufStart );

  007f4	2b 43 10	 sub	 eax, DWORD PTR [ebx+16]
  007f7	89 85 04 ff ff
	ff		 mov	 DWORD PTR _uOffset$1$[ebp], eax
; File C:\IAGOS\server\v18\Source\Source\_common\ObjSerializeOpt.cpp

; 285  : 				ar << uSize;

  007fd	8d 85 17 ff ff
	ff		 lea	 eax, DWORD PTR _uSize$57[ebp]
  00803	88 8d 13 ff ff
	ff		 mov	 BYTE PTR _uSize$1$[ebp], cl
  00809	88 8d 17 ff ff
	ff		 mov	 BYTE PTR _uSize$57[ebp], cl
  0080f	8b cb		 mov	 ecx, ebx
  00811	50		 push	 eax
  00812	e8 00 00 00 00	 call	 ??$?6E@CAr@@QAEAAV0@ABE@Z ; CAr::operator<<<unsigned char>
  00817	8b bd f8 fe ff
	ff		 mov	 edi, DWORD PTR tv2805[ebp]
  0081d	32 c0		 xor	 al, al

; 286  : 				for( u_char uParts = 0; uParts < MAX_HUMAN_PARTS; uParts++ )

  0081f	c6 85 03 ff ff
	ff 00		 mov	 BYTE PTR _uParts$8[ebp], 0
  00826	88 85 09 ff ff
	ff		 mov	 BYTE PTR $T18[ebp], al
  0082c	88 85 17 ff ff
	ff		 mov	 BYTE PTR $T65[ebp], al
$LL25@Serialize:

; 287  : 				{
; 288  : 					CItemElem* pItemElem	= m_Inventory.GetEquip( uParts );

  00832	0f b6 c0	 movzx	 eax, al
  00835	8b cf		 mov	 ecx, edi
  00837	50		 push	 eax
  00838	e8 00 00 00 00	 call	 ?GetEquip@?$CItemContainer@VCItemElem@@@@QAEPAVCItemElem@@K@Z ; CItemContainer<CItemElem>::GetEquip
  0083d	8b f0		 mov	 esi, eax
  0083f	8a 85 09 ff ff
	ff		 mov	 al, BYTE PTR $T18[ebp]

; 289  : 					if( pItemElem )

  00845	85 f6		 test	 esi, esi
  00847	74 3d		 je	 SHORT $LN23@Serialize

; 290  : 					{
; 291  : 						uSize++;

  00849	fe 85 13 ff ff
	ff		 inc	 BYTE PTR _uSize$1$[ebp]

; 292  : 						ar << uParts;

  0084f	8d 85 03 ff ff
	ff		 lea	 eax, DWORD PTR _uParts$8[ebp]
  00855	50		 push	 eax
  00856	8b cb		 mov	 ecx, ebx
  00858	e8 00 00 00 00	 call	 ??$?6E@CAr@@QAEAAV0@ABE@Z ; CAr::operator<<<unsigned char>

; 293  : 						ar << (u_short)pItemElem->m_dwItemId;

  0085d	0f b7 46 0c	 movzx	 eax, WORD PTR [esi+12]
  00861	8b cb		 mov	 ecx, ebx
  00863	89 85 f8 fe ff
	ff		 mov	 DWORD PTR $T4[ebp], eax
  00869	8d 85 f8 fe ff
	ff		 lea	 eax, DWORD PTR $T4[ebp]
  0086f	50		 push	 eax
  00870	e8 00 00 00 00	 call	 ??$?6G@CAr@@QAEAAV0@ABG@Z ; CAr::operator<<<unsigned short>

; 294  : 						ar << pItemElem->m_byFlag;

  00875	8d 46 76	 lea	 eax, DWORD PTR [esi+118]
  00878	8b cb		 mov	 ecx, ebx
  0087a	50		 push	 eax
  0087b	e8 00 00 00 00	 call	 ??$?6E@CAr@@QAEAAV0@ABE@Z ; CAr::operator<<<unsigned char>
  00880	8a 85 17 ff ff
	ff		 mov	 al, BYTE PTR $T65[ebp]
$LN23@Serialize:

; 286  : 				for( u_char uParts = 0; uParts < MAX_HUMAN_PARTS; uParts++ )

  00886	fe c0		 inc	 al
  00888	88 85 03 ff ff
	ff		 mov	 BYTE PTR _uParts$8[ebp], al
  0088e	88 85 09 ff ff
	ff		 mov	 BYTE PTR $T18[ebp], al
  00894	88 85 17 ff ff
	ff		 mov	 BYTE PTR $T65[ebp], al
  0089a	3c 1f		 cmp	 al, 31			; 0000001fH
  0089c	72 94		 jb	 SHORT $LL25@Serialize

; 295  : 					}
; 296  : 				}
; 297  : 				GETBLOCK( ar, pBlock, nBlockSize );

  0089e	8d 85 f4 fe ff
	ff		 lea	 eax, DWORD PTR _nBlockSize$3[ebp]
  008a4	8b cb		 mov	 ecx, ebx
  008a6	50		 push	 eax
  008a7	e8 00 00 00 00	 call	 ?GetBuffer@CAr@@QAEPAEPAH@Z ; CAr::GetBuffer

; 298  : 				*(UNALIGNED u_char*)( pBlock + uOffset )	= uSize;

  008ac	8b 95 04 ff ff
	ff		 mov	 edx, DWORD PTR _uOffset$1$[ebp]

; 299  : #if __VER >= 9	// __PET_0410
; 300  : 				DWORD dwPetId	= NULL_ID;
; 301  : #ifdef __PET_1024
; 302  : 				char* pszPetName	= "";

  008b2	be 00 00 00 00	 mov	 esi, OFFSET ??_C@_00CNPNBAHC@@
  008b7	8a 8d 13 ff ff
	ff		 mov	 cl, BYTE PTR _uSize$1$[ebp]

; 303  : #endif	// __PET_1024
; 304  : 				CItemElem* pItemElem	= GetPetItem();

  008bd	8b bd fc fe ff
	ff		 mov	 edi, DWORD PTR $T6[ebp]
  008c3	c7 85 14 ff ff
	ff ff ff ff ff	 mov	 DWORD PTR _dwPetId$36[ebp], -1
  008cd	88 0c 10	 mov	 BYTE PTR [eax+edx], cl
  008d0	8b cf		 mov	 ecx, edi
  008d2	e8 00 00 00 00	 call	 ?GetPetItem@CMover@@QAEPAVCItemElem@@XZ ; CMover::GetPetItem
  008d7	89 85 04 ff ff
	ff		 mov	 DWORD PTR _pItemElem$1$[ebp], eax

; 305  : 				if( pItemElem )

  008dd	85 c0		 test	 eax, eax
  008df	74 34		 je	 SHORT $LN78@Serialize
; File C:\IAGOS\server\v18\Source\Source\_Common\pet.h

; 128  : 	BYTE	GetLevel( void )	{	return m_nLevel;	}

  008e1	8b 88 a0 00 00
	00		 mov	 ecx, DWORD PTR [eax+160]
  008e7	8a 59 05	 mov	 bl, BYTE PTR [ecx+5]
; File C:\IAGOS\server\v18\Source\Source\_common\ObjSerializeOpt.cpp

; 307  : 					dwPetId		= MAKELONG( (WORD)pItemElem->m_pPet->GetIndex(), (WORD)pItemElem->m_pPet->GetLevel() );

  008ea	e8 00 00 00 00	 call	 ?GetIndex@CPet@@QAEKXZ	; CPet::GetIndex

; 308  : #ifdef __PET_1024
; 309  : 					pszPetName	= const_cast<char*>( pItemElem->m_pPet->GetName() );

  008ef	8b b5 04 ff ff
	ff		 mov	 esi, DWORD PTR _pItemElem$1$[ebp]
  008f5	0f b7 c8	 movzx	 ecx, ax
  008f8	0f b6 c3	 movzx	 eax, bl
  008fb	8b 9d 0c ff ff
	ff		 mov	 ebx, DWORD PTR $T21[ebp]
  00901	8b b6 a0 00 00
	00		 mov	 esi, DWORD PTR [esi+160]
  00907	c1 e0 10	 shl	 eax, 16			; 00000010H
  0090a	0b c8		 or	 ecx, eax
  0090c	83 c6 16	 add	 esi, 22			; 00000016H
  0090f	89 8d 14 ff ff
	ff		 mov	 DWORD PTR _dwPetId$36[ebp], ecx
$LN78@Serialize:

; 310  : #endif	// __PET_1024
; 311  : 				}
; 312  : 				ar << dwPetId;

  00915	8d 85 14 ff ff
	ff		 lea	 eax, DWORD PTR _dwPetId$36[ebp]
  0091b	8b cb		 mov	 ecx, ebx
  0091d	50		 push	 eax
  0091e	e8 00 00 00 00	 call	 ??$?6K@CAr@@QAEAAV0@ABK@Z ; CAr::operator<<<unsigned long>

; 313  : #ifdef __PET_1024
; 314  : 				ar.WriteString( pszPetName );

  00923	56		 push	 esi
  00924	8b cb		 mov	 ecx, ebx
  00926	e8 00 00 00 00	 call	 ?WriteString@CAr@@QAEXPBD@Z ; CAr::WriteString

; 315  : #endif	// __PET_1024
; 316  : #endif	// __PET_0410
; 317  : 			}
; 318  : 		}

  0092b	e9 e0 0b 00 00	 jmp	 $LN82@Serialize
$LN64@Serialize:

; 319  : 		else	// NPC
; 320  : 		{
; 321  : 			ar << (u_char)m_dwHairMesh << m_dwHairColor << (u_char)m_dwHeadMesh;

  00930	0f b6 87 2c 06
	00 00		 movzx	 eax, BYTE PTR [edi+1580]
  00937	88 85 17 ff ff
	ff		 mov	 BYTE PTR $T41[ebp], al
  0093d	0f b6 87 24 06
	00 00		 movzx	 eax, BYTE PTR [edi+1572]
  00944	88 85 09 ff ff
	ff		 mov	 BYTE PTR $T16[ebp], al
  0094a	8d 85 17 ff ff
	ff		 lea	 eax, DWORD PTR $T41[ebp]
  00950	50		 push	 eax
  00951	8d 87 28 06 00
	00		 lea	 eax, DWORD PTR [edi+1576]
  00957	50		 push	 eax
  00958	8d 85 09 ff ff
	ff		 lea	 eax, DWORD PTR $T16[ebp]
  0095e	50		 push	 eax
  0095f	e8 00 00 00 00	 call	 ??$?6E@CAr@@QAEAAV0@ABE@Z ; CAr::operator<<<unsigned char>
  00964	8b c8		 mov	 ecx, eax
  00966	e8 00 00 00 00	 call	 ??$?6K@CAr@@QAEAAV0@ABK@Z ; CAr::operator<<<unsigned long>
  0096b	8b c8		 mov	 ecx, eax
  0096d	e8 00 00 00 00	 call	 ??$?6E@CAr@@QAEAAV0@ABE@Z ; CAr::operator<<<unsigned char>

; 322  : 			ar.WriteString( m_szCharacterKey );

  00972	8d 87 44 06 00
	00		 lea	 eax, DWORD PTR [edi+1604]
  00978	8b cb		 mov	 ecx, ebx
  0097a	50		 push	 eax
  0097b	e8 00 00 00 00	 call	 ?WriteString@CAr@@QAEXPBD@Z ; CAr::WriteString

; 323  : 
; 324  : 			u_char uSize	= 0;

  00980	32 c0		 xor	 al, al

; 326  : 			ar << uSize;

  00982	8b cb		 mov	 ecx, ebx
  00984	88 85 13 ff ff
	ff		 mov	 BYTE PTR _uSize$1$[ebp], al
  0098a	88 85 17 ff ff
	ff		 mov	 BYTE PTR _uSize$55[ebp], al
; File C:\IAGOS\server\v18\Source\Source\_Network\Misc\Include\ar.h

; 356  : 	return( m_lpBufCur - m_lpBufStart );

  00990	8b 43 08	 mov	 eax, DWORD PTR [ebx+8]
  00993	2b 43 10	 sub	 eax, DWORD PTR [ebx+16]
  00996	89 85 f8 fe ff
	ff		 mov	 DWORD PTR _uOffset$1$[ebp], eax
; File C:\IAGOS\server\v18\Source\Source\_common\ObjSerializeOpt.cpp

; 326  : 			ar << uSize;

  0099c	8d 85 17 ff ff
	ff		 lea	 eax, DWORD PTR _uSize$55[ebp]
  009a2	50		 push	 eax
  009a3	e8 00 00 00 00	 call	 ??$?6E@CAr@@QAEAAV0@ABE@Z ; CAr::operator<<<unsigned char>
; File C:\IAGOS\server\v18\Source\Source\_Common\Mover.h

; 1017 : 	BOOL			IsEquipableNPC()	{	return( GetCharacter() && GetCharacter()->m_nEquipNum > 0 );	}

  009a8	8b cf		 mov	 ecx, edi
  009aa	e8 00 00 00 00	 call	 ?GetCharacter@CMover@@QAEPAUtagCHARACTER@@XZ ; CMover::GetCharacter
  009af	85 c0		 test	 eax, eax
  009b1	0f 84 98 00 00
	00		 je	 $LN27@Serialize
  009b7	8b cf		 mov	 ecx, edi
  009b9	e8 00 00 00 00	 call	 ?GetCharacter@CMover@@QAEPAUtagCHARACTER@@XZ ; CMover::GetCharacter
  009be	83 b8 08 01 00
	00 00		 cmp	 DWORD PTR [eax+264], 0
  009c5	0f 8e 84 00 00
	00		 jle	 $LN27@Serialize
; File C:\IAGOS\server\v18\Source\Source\_common\ObjSerializeOpt.cpp

; 330  : 				for( u_char uParts = 0; uParts < MAX_HUMAN_PARTS; uParts++ )

  009cb	32 c0		 xor	 al, al
  009cd	c6 85 17 ff ff
	ff 00		 mov	 BYTE PTR _uParts$59[ebp], 0
  009d4	8d 8f fc 0a 00
	00		 lea	 ecx, DWORD PTR [edi+2812]
  009da	88 85 09 ff ff
	ff		 mov	 BYTE PTR $T17[ebp], al
  009e0	88 85 03 ff ff
	ff		 mov	 BYTE PTR $T7[ebp], al
  009e6	8b f9		 mov	 edi, ecx
$LL28@Serialize:

; 331  : 				{
; 332  : 					pItemElem	= m_Inventory.GetEquip( uParts );

  009e8	0f b6 c0	 movzx	 eax, al
  009eb	8b cf		 mov	 ecx, edi
  009ed	50		 push	 eax
  009ee	e8 00 00 00 00	 call	 ?GetEquip@?$CItemContainer@VCItemElem@@@@QAEPAVCItemElem@@K@Z ; CItemContainer<CItemElem>::GetEquip
  009f3	8b f0		 mov	 esi, eax
  009f5	8a 85 09 ff ff
	ff		 mov	 al, BYTE PTR $T17[ebp]

; 333  : 					if( pItemElem )

  009fb	85 f6		 test	 esi, esi
  009fd	74 32		 je	 SHORT $LN26@Serialize

; 334  : 					{
; 335  : 						uSize++;

  009ff	fe 85 13 ff ff
	ff		 inc	 BYTE PTR _uSize$1$[ebp]

; 336  : 						ar << uParts;

  00a05	8d 85 17 ff ff
	ff		 lea	 eax, DWORD PTR _uParts$59[ebp]
  00a0b	50		 push	 eax
  00a0c	8b cb		 mov	 ecx, ebx
  00a0e	e8 00 00 00 00	 call	 ??$?6E@CAr@@QAEAAV0@ABE@Z ; CAr::operator<<<unsigned char>

; 337  : 						ar << (u_short)pItemElem->m_dwItemId;

  00a13	0f b7 46 0c	 movzx	 eax, WORD PTR [esi+12]
  00a17	8b cb		 mov	 ecx, ebx
  00a19	89 85 04 ff ff
	ff		 mov	 DWORD PTR $T12[ebp], eax
  00a1f	8d 85 04 ff ff
	ff		 lea	 eax, DWORD PTR $T12[ebp]
  00a25	50		 push	 eax
  00a26	e8 00 00 00 00	 call	 ??$?6G@CAr@@QAEAAV0@ABG@Z ; CAr::operator<<<unsigned short>
  00a2b	8a 85 03 ff ff
	ff		 mov	 al, BYTE PTR $T7[ebp]
$LN26@Serialize:

; 330  : 				for( u_char uParts = 0; uParts < MAX_HUMAN_PARTS; uParts++ )

  00a31	fe c0		 inc	 al
  00a33	88 85 17 ff ff
	ff		 mov	 BYTE PTR _uParts$59[ebp], al
  00a39	88 85 09 ff ff
	ff		 mov	 BYTE PTR $T17[ebp], al
  00a3f	88 85 03 ff ff
	ff		 mov	 BYTE PTR $T7[ebp], al
  00a45	3c 1f		 cmp	 al, 31			; 0000001fH
  00a47	72 9f		 jb	 SHORT $LL28@Serialize
  00a49	8b bd fc fe ff
	ff		 mov	 edi, DWORD PTR $T6[ebp]
$LN27@Serialize:

; 338  : 					}
; 339  : 				}
; 340  : 			}
; 341  : 			GETBLOCK( ar, pBlock, nBlockSize );

  00a4f	8d 85 f4 fe ff
	ff		 lea	 eax, DWORD PTR _nBlockSize$2[ebp]
  00a55	8b cb		 mov	 ecx, ebx
  00a57	50		 push	 eax
  00a58	e8 00 00 00 00	 call	 ?GetBuffer@CAr@@QAEPAEPAH@Z ; CAr::GetBuffer

; 342  : 			*(UNALIGNED u_char*)( pBlock + uOffset )	= uSize;

  00a5d	8b 95 f8 fe ff
	ff		 mov	 edx, DWORD PTR _uOffset$1$[ebp]
  00a63	8a 8d 13 ff ff
	ff		 mov	 cl, BYTE PTR _uSize$1$[ebp]
  00a69	88 0c 10	 mov	 BYTE PTR [eax+edx], cl

; 343  : 
; 344  : 
; 345  : 			ar << (u_char)m_bActiveAttack;

  00a6c	8b cb		 mov	 ecx, ebx
  00a6e	0f b6 87 68 06
	00 00		 movzx	 eax, BYTE PTR [edi+1640]
  00a75	88 85 17 ff ff
	ff		 mov	 BYTE PTR $T54[ebp], al
  00a7b	8d 85 17 ff ff
	ff		 lea	 eax, DWORD PTR $T54[ebp]
  00a81	50		 push	 eax
  00a82	e8 00 00 00 00	 call	 ??$?6E@CAr@@QAEAAV0@ABE@Z ; CAr::operator<<<unsigned char>

; 346  : 			ar << (u_char)m_nMovePattern;

  00a87	0f b6 87 c0 14
	00 00		 movzx	 eax, BYTE PTR [edi+5312]
  00a8e	8b cb		 mov	 ecx, ebx
  00a90	88 85 17 ff ff
	ff		 mov	 BYTE PTR $T67[ebp], al
  00a96	8d 85 17 ff ff
	ff		 lea	 eax, DWORD PTR $T67[ebp]
  00a9c	50		 push	 eax
  00a9d	e8 00 00 00 00	 call	 ??$?6E@CAr@@QAEAAV0@ABE@Z ; CAr::operator<<<unsigned char>

; 347  : 			ar << (u_char)m_nMoveEvent;

  00aa2	0f b6 87 c4 14
	00 00		 movzx	 eax, BYTE PTR [edi+5316]
  00aa9	8b cb		 mov	 ecx, ebx
  00aab	88 85 17 ff ff
	ff		 mov	 BYTE PTR $T63[ebp], al
  00ab1	8d 85 17 ff ff
	ff		 lea	 eax, DWORD PTR $T63[ebp]
  00ab7	50		 push	 eax
  00ab8	e8 00 00 00 00	 call	 ??$?6E@CAr@@QAEAAV0@ABE@Z ; CAr::operator<<<unsigned char>

; 348  : 			ar << m_nMoveEventCnt;

  00abd	8d 87 c8 14 00
	00		 lea	 eax, DWORD PTR [edi+5320]
  00ac3	8b cb		 mov	 ecx, ebx
  00ac5	50		 push	 eax
  00ac6	e8 00 00 00 00	 call	 ??$?6H@CAr@@QAEAAV0@ABH@Z ; CAr::operator<<<int>

; 349  : #if __VER >= 9	//__AI_0509
; 350  : 			ar << m_fSpeedFactor;

  00acb	8d 87 08 07 00
	00		 lea	 eax, DWORD PTR [edi+1800]
  00ad1	8b cb		 mov	 ecx, ebx
  00ad3	50		 push	 eax
  00ad4	e8 00 00 00 00	 call	 ??$?6M@CAr@@QAEAAV0@ABM@Z ; CAr::operator<<<float>

; 351  : #endif	// __AI_0509
; 352  : 		}
; 353  : #ifdef __BUFF_1107
; 354  : 		m_buffs.Serialize( ar );
; 355  : #else	// __BUFF_1107
; 356  : 		m_SkillState.Serialize( ar );
; 357  : #endif	// __BUFF_1107
; 358  : 	}

  00ad9	e9 32 0a 00 00	 jmp	 $LN82@Serialize
$LN62@Serialize:

; 359  : 	else	// LOADING
; 360  : 	{
; 361  : 		m_dwMotion = 0;
; 362  : 
; 363  : 		u_short nMotion;
; 364  : 		ar >> nMotion;							// m_dwMotion

  00ade	8d 85 14 ff ff
	ff		 lea	 eax, DWORD PTR _nMotion$30[ebp]
  00ae4	c7 87 d8 02 00
	00 00 00 00 00	 mov	 DWORD PTR [edi+728], 0
  00aee	50		 push	 eax
  00aef	e8 00 00 00 00	 call	 ??$?5G@CAr@@QAEAAV0@AAG@Z ; CAr::operator>><unsigned short>

; 365  : 
; 366  : 		#if defined(__WORLDSERVER) || defined(__CLIENT)
; 367  : 				m_dwMotion = (DWORD)nMotion;	// Ľşş°µµ Á¤ÇŘÁöÁö ľĘ´Â »óĹÂżˇĽ­´Â SetMotionČŁĂâÇĎÁö ľĘ´Â´Ů.

  00af4	0f b7 85 14 ff
	ff ff		 movzx	 eax, WORD PTR _nMotion$30[ebp]

; 368  : 		#else	// defined(__WORLDSERVER) || defined(__CLIENT)
; 369  : 			m_dwMotion = (DWORD)nMotion;
; 370  : 		#endif
; 371  : 
; 372  : 		m_bPlayer	=

  00afb	8d b7 64 06 00
	00		 lea	 esi, DWORD PTR [edi+1636]

; 373  : 		m_dwBelligerence	=
; 374  : 		m_idGuild	=
; 375  : 		m_idWar	=
; 376  : 		m_idparty	=
; 377  : 		m_idDuelParty	=
; 378  : 		m_nDuel		= 
; 379  : 		m_dwRideItemIdx		= 0;
; 380  : 
; 381  : 		ClearEquipInfo();

  00b01	8b cf		 mov	 ecx, edi
  00b03	89 87 d8 02 00
	00		 mov	 DWORD PTR [edi+728], eax
  00b09	c7 87 e4 14 00
	00 00 00 00 00	 mov	 DWORD PTR [edi+5348], 0
  00b13	c7 87 3c 07 00
	00 00 00 00 00	 mov	 DWORD PTR [edi+1852], 0
  00b1d	c7 87 44 07 00
	00 00 00 00 00	 mov	 DWORD PTR [edi+1860], 0
  00b27	c7 87 10 07 00
	00 00 00 00 00	 mov	 DWORD PTR [edi+1808], 0
  00b31	c7 87 20 07 00
	00 00 00 00 00	 mov	 DWORD PTR [edi+1824], 0
  00b3b	c7 87 14 07 00
	00 00 00 00 00	 mov	 DWORD PTR [edi+1812], 0
  00b45	c7 06 00 00 00
	00		 mov	 DWORD PTR [esi], 0
  00b4b	c7 87 30 02 00
	00 00 00 00 00	 mov	 DWORD PTR [edi+560], 0
  00b55	e8 00 00 00 00	 call	 ?ClearEquipInfo@CMover@@QAEXXZ ; CMover::ClearEquipInfo

; 382  : 		
; 383  : 		ar >> (u_char&)m_bPlayer;

  00b5a	8d 87 30 02 00
	00		 lea	 eax, DWORD PTR [edi+560]
  00b60	8b cb		 mov	 ecx, ebx
  00b62	50		 push	 eax
  00b63	e8 00 00 00 00	 call	 ??$?5E@CAr@@QAEAAV0@AAE@Z ; CAr::operator>><unsigned char>

; 384  : 
; 385  : #ifdef __SKILL_0205
; 386  : 		SKILL	aJobSkill[MAX_SKILL_JOB];
; 387  : 		memcpy( aJobSkill, m_aJobSkill, sizeof(aJobSkill) );
; 388  : #endif	// __SKILL_0205
; 389  : 
; 390  : 		InitProp();

  00b68	8b 07		 mov	 eax, DWORD PTR [edi]
  00b6a	8b cf		 mov	 ecx, edi
  00b6c	6a 01		 push	 1
  00b6e	ff 50 10	 call	 DWORD PTR [eax+16]

; 391  : 
; 392  : 		m_nHitPoint	= 0;

  00b71	8d 87 f8 05 00
	00		 lea	 eax, DWORD PTR [edi+1528]

; 393  : 
; 394  : 		ar >> m_nHitPoint;

  00b77	8b cb		 mov	 ecx, ebx
  00b79	c7 00 00 00 00
	00		 mov	 DWORD PTR [eax], 0
  00b7f	50		 push	 eax
  00b80	e8 00 00 00 00	 call	 ??$?5J@CAr@@QAEAAV0@AAJ@Z ; CAr::operator>><long>

; 395  : 		DWORD dw1, dw2;
; 396  : 		ar >> dw1;

  00b85	8d 85 f8 fe ff
	ff		 lea	 eax, DWORD PTR _dw1$5[ebp]
  00b8b	8b cb		 mov	 ecx, ebx
  00b8d	50		 push	 eax
  00b8e	e8 00 00 00 00	 call	 ??$?5K@CAr@@QAEAAV0@AAK@Z ; CAr::operator>><unsigned long>

; 397  : 		ar >> dw2;

  00b93	8d 85 04 ff ff
	ff		 lea	 eax, DWORD PTR _dw2$9[ebp]
  00b99	8b cb		 mov	 ecx, ebx
  00b9b	50		 push	 eax
  00b9c	e8 00 00 00 00	 call	 ??$?5K@CAr@@QAEAAV0@AAK@Z ; CAr::operator>><unsigned long>
; File C:\IAGOS\server\v18\Source\Source\_AIInterface\Action.h

; 283  : 	void			ClearStateFlag() { m_dwStateFlag = 0; }

  00ba1	8b 87 38 02 00
	00		 mov	 eax, DWORD PTR [edi+568]
; File C:\IAGOS\server\v18\Source\Source\_common\ObjSerializeOpt.cpp

; 399  : 		m_pActMover->AddStateFlag( dw2 );

  00ba7	ff b5 04 ff ff
	ff		 push	 DWORD PTR _dw2$9[ebp]
; File C:\IAGOS\server\v18\Source\Source\_AIInterface\Action.h

; 283  : 	void			ClearStateFlag() { m_dwStateFlag = 0; }

  00bad	c7 40 08 00 00
	00 00		 mov	 DWORD PTR [eax+8], 0
; File C:\IAGOS\server\v18\Source\Source\_common\ObjSerializeOpt.cpp

; 399  : 		m_pActMover->AddStateFlag( dw2 );

  00bb4	8b 8f 38 02 00
	00		 mov	 ecx, DWORD PTR [edi+568]
  00bba	e8 00 00 00 00	 call	 ?AddStateFlag@CAction@@QAEXK@Z ; CAction::AddStateFlag
; File C:\IAGOS\server\v18\Source\Source\_AIInterface\Action.h

; 282  : 	void			__ForceSetState( DWORD dwState ) { m_dwState = dwState; }		// dwState°ŞŔ¸·Î °­Á¦·Î ĽĽĆĂ. Ľ­ąöżÍ µż±âČ­¶§ żÜżŁ »çżëÇĎÁö ¸»°Í.

  00bbf	8b 8f 38 02 00
	00		 mov	 ecx, DWORD PTR [edi+568]
  00bc5	8b 85 f8 fe ff
	ff		 mov	 eax, DWORD PTR _dw1$5[ebp]
; File C:\IAGOS\server\v18\Source\Source\_common\ObjSerializeOpt.cpp

; 401  : 		ar >> (u_char&)m_dwBelligerence;

  00bcb	56		 push	 esi
; File C:\IAGOS\server\v18\Source\Source\_AIInterface\Action.h

; 282  : 	void			__ForceSetState( DWORD dwState ) { m_dwState = dwState; }		// dwState°ŞŔ¸·Î °­Á¦·Î ĽĽĆĂ. Ľ­ąöżÍ µż±âČ­¶§ żÜżŁ »çżëÇĎÁö ¸»°Í.

  00bcc	89 41 04	 mov	 DWORD PTR [ecx+4], eax
; File C:\IAGOS\server\v18\Source\Source\_common\ObjSerializeOpt.cpp

; 401  : 		ar >> (u_char&)m_dwBelligerence;

  00bcf	8b cb		 mov	 ecx, ebx
  00bd1	e8 00 00 00 00	 call	 ??$?5E@CAr@@QAEAAV0@AAE@Z ; CAr::operator>><unsigned char>

; 402  : #if __VER >= 15 // __PETVIS
; 403  : 		ar >> m_dwMoverSfxId;

  00bd6	8d 87 9c 10 00
	00		 lea	 eax, DWORD PTR [edi+4252]
  00bdc	8b cb		 mov	 ecx, ebx
  00bde	50		 push	 eax
  00bdf	e8 00 00 00 00	 call	 ??$?5K@CAr@@QAEAAV0@AAK@Z ; CAr::operator>><unsigned long>

; 404  : #endif // __PETVIS
; 405  : 		if( m_bPlayer )	// PLAYER

  00be4	83 bf 30 02 00
	00 00		 cmp	 DWORD PTR [edi+560], 0
  00beb	0f 84 ee 07 00
	00		 je	 $LN81@Serialize

; 406  : 		{
; 407  : 			m_dwSkinSet		=

  00bf1	8b 85 fc fe ff
	ff		 mov	 eax, DWORD PTR $T6[ebp]
  00bf7	8d 9f 2c 06 00
	00		 lea	 ebx, DWORD PTR [edi+1580]

; 408  : 			m_dwHairMesh	=
; 409  : 			m_dwHeadMesh	=
; 410  : 			m_idPlayer	=
; 411  : 			m_nJob	=
; 412  : 			m_nStr	=
; 413  : 			m_nSta	=
; 414  : 			m_nDex	=
; 415  : 			m_nInt	=
; 416  : 			m_nLevel	=
; 417  : 			m_dwAuthorization	=
; 418  : #if __VER < 8 // __S8_PK
; 419  : 			m_nNumKill	=
; 420  : #endif // __VER < 8 // __S8_PK
; 421  : 									0;
; 422  : 
; 423  : 			BYTE bySex;
; 424  : 			ar.ReadString( m_szName, 32 );

  00bfd	8b 8d 0c ff ff
	ff		 mov	 ecx, DWORD PTR $T21[ebp]
  00c03	8d b0 1c 06 00
	00		 lea	 esi, DWORD PTR [eax+1564]
  00c09	c7 87 40 06 00
	00 00 00 00 00	 mov	 DWORD PTR [edi+1600], 0
  00c13	05 ec 14 00 00	 add	 eax, 5356		; 000014ecH
  00c18	c7 87 d8 05 00
	00 00 00 00 00	 mov	 DWORD PTR [edi+1496], 0
  00c22	c7 87 d4 05 00
	00 00 00 00 00	 mov	 DWORD PTR [edi+1492], 0
  00c2c	c7 87 d0 05 00
	00 00 00 00 00	 mov	 DWORD PTR [edi+1488], 0
  00c36	c7 87 cc 05 00
	00 00 00 00 00	 mov	 DWORD PTR [edi+1484], 0
  00c40	c7 87 c8 05 00
	00 00 00 00 00	 mov	 DWORD PTR [edi+1480], 0
  00c4a	c7 87 3c 06 00
	00 00 00 00 00	 mov	 DWORD PTR [edi+1596], 0
  00c54	c7 87 34 02 00
	00 00 00 00 00	 mov	 DWORD PTR [edi+564], 0
  00c5e	81 c7 24 06 00
	00		 add	 edi, 1572		; 00000624H
  00c64	6a 20		 push	 32			; 00000020H
  00c66	50		 push	 eax
  00c67	c7 03 00 00 00
	00		 mov	 DWORD PTR [ebx], 0
  00c6d	c7 07 00 00 00
	00		 mov	 DWORD PTR [edi], 0
  00c73	c7 06 00 00 00
	00		 mov	 DWORD PTR [esi], 0
  00c79	e8 00 00 00 00	 call	 ?ReadString@CAr@@QAEPADPADH@Z ; CAr::ReadString

; 425  : 			ar >> bySex;

  00c7e	8b 8d 0c ff ff
	ff		 mov	 ecx, DWORD PTR $T21[ebp]
  00c84	8d 85 17 ff ff
	ff		 lea	 eax, DWORD PTR _bySex$56[ebp]
  00c8a	50		 push	 eax
  00c8b	e8 00 00 00 00	 call	 ??$?5E@CAr@@QAEAAV0@AAE@Z ; CAr::operator>><unsigned char>
; File C:\IAGOS\server\v18\Source\Source\_Common\Mover.h

; 1119 : 	void			SetSex( BYTE bySex ) { m_bySex = bySex; }

  00c90	8b 8d fc fe ff
	ff		 mov	 ecx, DWORD PTR $T6[ebp]
  00c96	8a 85 17 ff ff
	ff		 mov	 al, BYTE PTR _bySex$56[ebp]
; File C:\IAGOS\server\v18\Source\Source\_common\ObjSerializeOpt.cpp

; 427  : 			ar >> (u_char&)m_dwSkinSet;

  00c9c	56		 push	 esi
; File C:\IAGOS\server\v18\Source\Source\_Common\Mover.h

; 1119 : 	void			SetSex( BYTE bySex ) { m_bySex = bySex; }

  00c9d	88 81 18 06 00
	00		 mov	 BYTE PTR [ecx+1560], al
; File C:\IAGOS\server\v18\Source\Source\_common\ObjSerializeOpt.cpp

; 427  : 			ar >> (u_char&)m_dwSkinSet;

  00ca3	8b 8d 0c ff ff
	ff		 mov	 ecx, DWORD PTR $T21[ebp]
  00ca9	e8 00 00 00 00	 call	 ??$?5E@CAr@@QAEAAV0@AAE@Z ; CAr::operator>><unsigned char>

; 428  : 			ar >> (u_char&)m_dwHairMesh;

  00cae	8b 8d 0c ff ff
	ff		 mov	 ecx, DWORD PTR $T21[ebp]
  00cb4	57		 push	 edi
  00cb5	e8 00 00 00 00	 call	 ??$?5E@CAr@@QAEAAV0@AAE@Z ; CAr::operator>><unsigned char>

; 429  : 			ar >> m_dwHairColor;

  00cba	8b bd fc fe ff
	ff		 mov	 edi, DWORD PTR $T6[ebp]
  00cc0	8b 8d 0c ff ff
	ff		 mov	 ecx, DWORD PTR $T21[ebp]
  00cc6	8d b7 28 06 00
	00		 lea	 esi, DWORD PTR [edi+1576]
  00ccc	56		 push	 esi
  00ccd	e8 00 00 00 00	 call	 ??$?5K@CAr@@QAEAAV0@AAK@Z ; CAr::operator>><unsigned long>

; 430  : 			ar >> (u_char&)m_dwHeadMesh;

  00cd2	53		 push	 ebx
  00cd3	8b 9d 0c ff ff
	ff		 mov	 ebx, DWORD PTR $T21[ebp]
  00cd9	8b cb		 mov	 ecx, ebx
  00cdb	e8 00 00 00 00	 call	 ??$?5E@CAr@@QAEAAV0@AAE@Z ; CAr::operator>><unsigned char>

; 431  : #	if defined (__WORLDSERVER) || defined(__CLIENT)
; 432  : 			SetHairColor( m_dwHairColor );

  00ce0	ff 36		 push	 DWORD PTR [esi]
  00ce2	8b cf		 mov	 ecx, edi
  00ce4	e8 00 00 00 00	 call	 ?SetHairColor@CMover@@QAEXK@Z ; CMover::SetHairColor

; 433  : #	endif	// __WORLDSERVER	//__CLIENT
; 434  : 			ar >> m_idPlayer;

  00ce9	8d 87 34 02 00
	00		 lea	 eax, DWORD PTR [edi+564]
  00cef	8b cb		 mov	 ecx, ebx
  00cf1	50		 push	 eax
  00cf2	e8 00 00 00 00	 call	 ??$?5K@CAr@@QAEAAV0@AAK@Z ; CAr::operator>><unsigned long>

; 435  : 			ar >> (u_char&)m_nJob;

  00cf7	8d 87 3c 06 00
	00		 lea	 eax, DWORD PTR [edi+1596]
  00cfd	8b cb		 mov	 ecx, ebx
  00cff	50		 push	 eax
  00d00	e8 00 00 00 00	 call	 ??$?5E@CAr@@QAEAAV0@AAE@Z ; CAr::operator>><unsigned char>

; 436  : 			ar >> (u_short&)m_nStr;

  00d05	8d 87 c8 05 00
	00		 lea	 eax, DWORD PTR [edi+1480]
  00d0b	8b cb		 mov	 ecx, ebx
  00d0d	50		 push	 eax
  00d0e	e8 00 00 00 00	 call	 ??$?5G@CAr@@QAEAAV0@AAG@Z ; CAr::operator>><unsigned short>

; 437  : 			ar >> (u_short&)m_nSta;

  00d13	8d 87 cc 05 00
	00		 lea	 eax, DWORD PTR [edi+1484]
  00d19	8b cb		 mov	 ecx, ebx
  00d1b	50		 push	 eax
  00d1c	e8 00 00 00 00	 call	 ??$?5G@CAr@@QAEAAV0@AAG@Z ; CAr::operator>><unsigned short>

; 438  : 			ar >> (u_short&)m_nDex;

  00d21	8d 87 d0 05 00
	00		 lea	 eax, DWORD PTR [edi+1488]
  00d27	8b cb		 mov	 ecx, ebx
  00d29	50		 push	 eax
  00d2a	e8 00 00 00 00	 call	 ??$?5G@CAr@@QAEAAV0@AAG@Z ; CAr::operator>><unsigned short>

; 439  : 			ar >> (u_short&)m_nInt;

  00d2f	8d 87 d4 05 00
	00		 lea	 eax, DWORD PTR [edi+1492]
  00d35	8b cb		 mov	 ecx, ebx
  00d37	50		 push	 eax
  00d38	e8 00 00 00 00	 call	 ??$?5G@CAr@@QAEAAV0@AAG@Z ; CAr::operator>><unsigned short>

; 440  : 			ar >> (u_short&)m_nLevel;

  00d3d	8d 87 d8 05 00
	00		 lea	 eax, DWORD PTR [edi+1496]
  00d43	8b cb		 mov	 ecx, ebx
  00d45	50		 push	 eax
  00d46	e8 00 00 00 00	 call	 ??$?5G@CAr@@QAEAAV0@AAG@Z ; CAr::operator>><unsigned short>

; 441  : 			ar >> m_nFuel;

  00d4b	8d 87 78 06 00
	00		 lea	 eax, DWORD PTR [edi+1656]
  00d51	8b cb		 mov	 ecx, ebx
  00d53	50		 push	 eax
  00d54	e8 00 00 00 00	 call	 ??$?5H@CAr@@QAEAAV0@AAH@Z ; CAr::operator>><int>

; 442  : 			ar >> m_tmAccFuel;

  00d59	8d 87 7c 06 00
	00		 lea	 eax, DWORD PTR [edi+1660]
  00d5f	8b cb		 mov	 ecx, ebx
  00d61	50		 push	 eax
  00d62	e8 00 00 00 00	 call	 ??$?5H@CAr@@QAEAAV0@AAH@Z ; CAr::operator>><int>

; 443  : 
; 444  : 			u_char u1;
; 445  : 			ar >> u1;

  00d67	8d 85 13 ff ff
	ff		 lea	 eax, DWORD PTR _u1$27[ebp]
  00d6d	8b cb		 mov	 ecx, ebx
  00d6f	50		 push	 eax
  00d70	e8 00 00 00 00	 call	 ??$?5E@CAr@@QAEAAV0@AAE@Z ; CAr::operator>><unsigned char>

; 446  : 			if( u1 == 1 )

  00d75	80 bd 13 ff ff
	ff 01		 cmp	 BYTE PTR _u1$27[ebp], 1
  00d7c	75 1c		 jne	 SHORT $LN83@Serialize

; 447  : 			{
; 448  : 				ar >> m_idGuild;

  00d7e	8d 87 14 07 00
	00		 lea	 eax, DWORD PTR [edi+1812]
  00d84	8b cb		 mov	 ecx, ebx
  00d86	50		 push	 eax
  00d87	e8 00 00 00 00	 call	 ??$?5K@CAr@@QAEAAV0@AAK@Z ; CAr::operator>><unsigned long>

; 449  : 				ar >> m_idWar;

  00d8c	8d 87 20 07 00
	00		 lea	 eax, DWORD PTR [edi+1824]
  00d92	8b cb		 mov	 ecx, ebx
  00d94	50		 push	 eax
  00d95	e8 00 00 00 00	 call	 ??$?5K@CAr@@QAEAAV0@AAK@Z ; CAr::operator>><unsigned long>
$LN83@Serialize:

; 450  : 			}
; 451  : 			ar >> m_idGuildCloak;

  00d9a	8d 87 1c 07 00
	00		 lea	 eax, DWORD PTR [edi+1820]
  00da0	8b cb		 mov	 ecx, ebx
  00da2	50		 push	 eax
  00da3	e8 00 00 00 00	 call	 ??$?5K@CAr@@QAEAAV0@AAK@Z ; CAr::operator>><unsigned long>

; 452  : 
; 453  : 			ar >> u1;

  00da8	8d 85 13 ff ff
	ff		 lea	 eax, DWORD PTR _u1$27[ebp]
  00dae	8b cb		 mov	 ecx, ebx
  00db0	50		 push	 eax
  00db1	e8 00 00 00 00	 call	 ??$?5E@CAr@@QAEAAV0@AAE@Z ; CAr::operator>><unsigned char>

; 454  : 			if( u1 == 1 )

  00db6	80 bd 13 ff ff
	ff 01		 cmp	 BYTE PTR _u1$27[ebp], 1
  00dbd	75 1c		 jne	 SHORT $LN84@Serialize

; 455  : 			{
; 456  : 				ar >> m_idparty;

  00dbf	8d 87 10 07 00
	00		 lea	 eax, DWORD PTR [edi+1808]
  00dc5	8b cb		 mov	 ecx, ebx
  00dc7	50		 push	 eax
  00dc8	e8 00 00 00 00	 call	 ??$?5K@CAr@@QAEAAV0@AAK@Z ; CAr::operator>><unsigned long>

; 457  : 				ar >> m_idDuelParty;

  00dcd	8d 87 44 07 00
	00		 lea	 eax, DWORD PTR [edi+1860]
  00dd3	8b cb		 mov	 ecx, ebx
  00dd5	50		 push	 eax
  00dd6	e8 00 00 00 00	 call	 ??$?5K@CAr@@QAEAAV0@AAK@Z ; CAr::operator>><unsigned long>
$LN84@Serialize:

; 458  : 			}
; 459  : 
; 460  : 			ar >> (char&)m_dwAuthorization;

  00ddb	8d 87 40 06 00
	00		 lea	 eax, DWORD PTR [edi+1600]
  00de1	8b cb		 mov	 ecx, ebx
  00de3	50		 push	 eax
  00de4	e8 00 00 00 00	 call	 ??$?5D@CAr@@QAEAAV0@AAD@Z ; CAr::operator>><char>

; 461  : 			ar >> m_dwMode;

  00de9	8d 87 40 02 00
	00		 lea	 eax, DWORD PTR [edi+576]
  00def	8b cb		 mov	 ecx, ebx
  00df1	50		 push	 eax
  00df2	e8 00 00 00 00	 call	 ??$?5K@CAr@@QAEAAV0@AAK@Z ; CAr::operator>><unsigned long>

; 462  : 			ar >> m_dwStateMode;

  00df7	8d 87 48 02 00
	00		 lea	 eax, DWORD PTR [edi+584]
  00dfd	8b cb		 mov	 ecx, ebx
  00dff	50		 push	 eax
  00e00	e8 00 00 00 00	 call	 ??$?5K@CAr@@QAEAAV0@AAK@Z ; CAr::operator>><unsigned long>

; 463  : #ifdef __WORLDSERVER
; 464  : 			OBJID dwItemTem;
; 465  : 			ar >> dwItemTem;

  00e05	8d 85 f4 fe ff
	ff		 lea	 eax, DWORD PTR _dwItemTem$1[ebp]
  00e0b	8b cb		 mov	 ecx, ebx
  00e0d	50		 push	 eax
  00e0e	e8 00 00 00 00	 call	 ??$?5K@CAr@@QAEAAV0@AAK@Z ; CAr::operator>><unsigned long>

; 466  : #else // __WORLDSERVER
; 467  : 			ar >> m_dwUseItemId;
; 468  : #endif // __WORLDSERVER
; 469  : #if __VER >= 8 // __S8_PK
; 470  : 			ar >> m_dwPKTime;

  00e13	8d b7 50 07 00
	00		 lea	 esi, DWORD PTR [edi+1872]
  00e19	8b cb		 mov	 ecx, ebx
  00e1b	56		 push	 esi
  00e1c	e8 00 00 00 00	 call	 ??$?5K@CAr@@QAEAAV0@AAK@Z ; CAr::operator>><unsigned long>

; 471  : 	#ifdef __WORLDSERVER
; 472  : 			if( m_dwPKTime > 0 )

  00e21	83 3e 00	 cmp	 DWORD PTR [esi], 0
  00e24	76 10		 jbe	 SHORT $LN85@Serialize

; 473  : 				m_dwPKTime = GetTickCount() + m_dwPKTime;

  00e26	8b 36		 mov	 esi, DWORD PTR [esi]
  00e28	ff 15 00 00 00
	00		 call	 DWORD PTR __imp__GetTickCount@0
  00e2e	03 c6		 add	 eax, esi
  00e30	89 87 50 07 00
	00		 mov	 DWORD PTR [edi+1872], eax
$LN85@Serialize:

; 474  : 	#endif // __WORLDSERVER
; 475  : 			ar >> m_nPKValue;

  00e36	8d 87 54 07 00
	00		 lea	 eax, DWORD PTR [edi+1876]
  00e3c	8b cb		 mov	 ecx, ebx
  00e3e	50		 push	 eax
  00e3f	e8 00 00 00 00	 call	 ??$?5H@CAr@@QAEAAV0@AAH@Z ; CAr::operator>><int>

; 476  : 			ar >> m_dwPKPropensity;

  00e44	8d 87 58 07 00
	00		 lea	 eax, DWORD PTR [edi+1880]
  00e4a	8b cb		 mov	 ecx, ebx
  00e4c	50		 push	 eax
  00e4d	e8 00 00 00 00	 call	 ??$?5K@CAr@@QAEAAV0@AAK@Z ; CAr::operator>><unsigned long>

; 477  : 			ar >> m_dwPKExp;

  00e52	8d 87 5c 07 00
	00		 lea	 eax, DWORD PTR [edi+1884]
  00e58	8b cb		 mov	 ecx, ebx
  00e5a	50		 push	 eax
  00e5b	e8 00 00 00 00	 call	 ??$?5K@CAr@@QAEAAV0@AAK@Z ; CAr::operator>><unsigned long>

; 478  : #else // __VER >= 8 // __S8_PK
; 479  : 			ar >> (u_short&)m_nNumKill;
; 480  : 			ar >> m_nSlaughter;
; 481  : #endif // __VER >= 8 // __S8_PK
; 482  : 			ar >> m_nFame;

  00e60	8d 87 48 07 00
	00		 lea	 eax, DWORD PTR [edi+1864]
  00e66	8b cb		 mov	 ecx, ebx
  00e68	50		 push	 eax
  00e69	e8 00 00 00 00	 call	 ??$?5H@CAr@@QAEAAV0@AAH@Z ; CAr::operator>><int>

; 483  : 			ar >> (u_char&)m_nDuel;

  00e6e	8d 87 3c 07 00
	00		 lea	 eax, DWORD PTR [edi+1852]
  00e74	8b cb		 mov	 ecx, ebx
  00e76	50		 push	 eax
  00e77	e8 00 00 00 00	 call	 ??$?5E@CAr@@QAEAAV0@AAE@Z ; CAr::operator>><unsigned char>

; 484  : #if __VER >= 13 // __HONORABLE_TITLE			// ´ŢŔÎ
; 485  : 			int nTemp = -1;
; 486  : 			ar >> nTemp;

  00e7c	8d 85 0c ff ff
	ff		 lea	 eax, DWORD PTR _nTemp$26[ebp]
  00e82	c7 85 0c ff ff
	ff ff ff ff ff	 mov	 DWORD PTR _nTemp$26[ebp], -1
  00e8c	50		 push	 eax
  00e8d	8b cb		 mov	 ecx, ebx
  00e8f	e8 00 00 00 00	 call	 ??$?5H@CAr@@QAEAAV0@AAH@Z ; CAr::operator>><int>

; 487  : #ifdef __CLIENT
; 488  : 			if(m_nHonor != nTemp)// ´ŢŔÎĽ±ĹĂ 
; 489  : 			{
; 490  : 				m_nHonor = nTemp;
; 491  : 				SetTitle(CTitleManager::Instance()->GetTitle(m_nHonor));
; 492  : 			}
; 493  : #else	// __CLIENT
; 494  : 			m_nHonor = nTemp;

  00e94	8b 85 0c ff ff
	ff		 mov	 eax, DWORD PTR _nTemp$26[ebp]
  00e9a	33 f6		 xor	 esi, esi
  00e9c	89 87 70 08 00
	00		 mov	 DWORD PTR [edi+2160], eax
$LL31@Serialize:

; 495  : #endif	// __CLIENT
; 496  : #endif	// __HONORABLE_TITLE			// ´ŢŔÎ
; 497  : 			{
; 498  : 				for( int i = 0; i < MAX_HUMAN_PARTS; i ++ )
; 499  : 				{
; 500  : 					ar >> m_aEquipInfo[i].nOption;

  00ea2	8d 87 28 0b 00
	00		 lea	 eax, DWORD PTR [edi+2856]
  00ea8	8b cb		 mov	 ecx, ebx
  00eaa	50		 push	 eax
  00eab	e8 00 00 00 00	 call	 ??$?5H@CAr@@QAEAAV0@AAH@Z ; CAr::operator>><int>
  00eb0	83 c6 0c	 add	 esi, 12			; 0000000cH
  00eb3	8d 7f 0c	 lea	 edi, DWORD PTR [edi+12]
  00eb6	81 fe 74 01 00
	00		 cmp	 esi, 372		; 00000174H
  00ebc	7c e4		 jl	 SHORT $LL31@Serialize

; 501  : 				}
; 502  : 			}
; 503  : 			ar >> m_nGuildCombatState;

  00ebe	8b bd fc fe ff
	ff		 mov	 edi, DWORD PTR $T6[ebp]
  00ec4	8b cb		 mov	 ecx, ebx
  00ec6	8d 87 b0 0d 00
	00		 lea	 eax, DWORD PTR [edi+3504]
  00ecc	50		 push	 eax
  00ecd	e8 00 00 00 00	 call	 ??$?5H@CAr@@QAEAAV0@AAH@Z ; CAr::operator>><int>
  00ed2	33 f6		 xor	 esi, esi
$LL34@Serialize:

; 504  : 			
; 505  : 			for( int j = 0 ; j < SM_MAX ; ++j )
; 506  : 				ar >> m_dwSMTime[j];

  00ed4	8d 87 fc 02 00
	00		 lea	 eax, DWORD PTR [edi+764]
  00eda	8b cb		 mov	 ecx, ebx
  00edc	50		 push	 eax
  00edd	e8 00 00 00 00	 call	 ??$?5K@CAr@@QAEAAV0@AAK@Z ; CAr::operator>><unsigned long>
  00ee2	83 c6 04	 add	 esi, 4
  00ee5	8d 7f 04	 lea	 edi, DWORD PTR [edi+4]
  00ee8	83 fe 68	 cmp	 esi, 104		; 00000068H
  00eeb	7c e7		 jl	 SHORT $LL34@Serialize

; 507  : 			// Ŕĺľî±¸ŔĚ, ˝ĹĽÓŔÇ µÎ·ç¸¶¸® µîŔÇ żążÜĂł¸®´Â m_nPlusMaxHitPointµîŔĚ ĽĽĆ®µÇ°í OnApplySM() ˝ÇÇŕÇŃ´Ů.
; 508  : 
; 509  : 			if( CObj::GetMethod() == METHOD_NONE )

  00eed	a1 00 00 00 00	 mov	 eax, DWORD PTR ?m_nMethod@CObj@@2HA ; CObj::m_nMethod
  00ef2	8b bd fc fe ff
	ff		 mov	 edi, DWORD PTR $T6[ebp]
  00ef8	85 c0		 test	 eax, eax
  00efa	0f 85 53 03 00
	00		 jne	 $LN86@Serialize

; 510  : 			{
; 511  : 				m_nManaPoint	= 0;

  00f00	8d 87 fc 05 00
	00		 lea	 eax, DWORD PTR [edi+1532]

; 512  : 				m_nFatiguePoint	= 0;
; 513  : #if __VER < 12 // __MOD_TUTORIAL
; 514  : 				m_nFlightLv		= 0;
; 515  : #endif	// __MOD_TUTORIAL
; 516  : 				m_nRemainGP		= 0;
; 517  : 
; 518  : 				ar >> (u_short&)m_nManaPoint;

  00f06	8b cb		 mov	 ecx, ebx
  00f08	8d b7 00 06 00
	00		 lea	 esi, DWORD PTR [edi+1536]
  00f0e	c7 00 00 00 00
	00		 mov	 DWORD PTR [eax], 0
  00f14	50		 push	 eax
  00f15	c7 06 00 00 00
	00		 mov	 DWORD PTR [esi], 0
  00f1b	c7 87 04 06 00
	00 00 00 00 00	 mov	 DWORD PTR [edi+1540], 0
  00f25	e8 00 00 00 00	 call	 ??$?5G@CAr@@QAEAAV0@AAG@Z ; CAr::operator>><unsigned short>

; 519  : 				ar >> (u_short&)m_nFatiguePoint;

  00f2a	56		 push	 esi
  00f2b	8b cb		 mov	 ecx, ebx
  00f2d	e8 00 00 00 00	 call	 ??$?5G@CAr@@QAEAAV0@AAG@Z ; CAr::operator>><unsigned short>

; 520  : #if __VER >= 12 // __MOD_TUTORIAL
; 521  : 				ar >> m_nTutorialState;

  00f32	8d 87 f0 05 00
	00		 lea	 eax, DWORD PTR [edi+1520]
  00f38	8b cb		 mov	 ecx, ebx
  00f3a	50		 push	 eax
  00f3b	e8 00 00 00 00	 call	 ??$?5H@CAr@@QAEAAV0@AAH@Z ; CAr::operator>><int>

; 522  : #ifdef __CLIENT
; 523  : 				g_Option.m_nTutorialLv	= m_nTutorialState;
; 524  : #endif	// __CLIENT
; 525  : #else	// __MOD_TUTORIAL
; 526  : 				ar >> (u_short&)m_nFlightLv;
; 527  : #endif	// __MOD_TUTORIAL
; 528  : 				ar >> m_nFxp;

  00f40	8d 87 f4 05 00
	00		 lea	 eax, DWORD PTR [edi+1524]
  00f46	8b cb		 mov	 ecx, ebx
  00f48	50		 push	 eax
  00f49	e8 00 00 00 00	 call	 ??$?5J@CAr@@QAEAAV0@AAJ@Z ; CAr::operator>><long>

; 529  : 
; 530  : 				ar >> dwGold;

  00f4e	8d 85 0c ff ff
	ff		 lea	 eax, DWORD PTR _dwGold$[ebp]
  00f54	8b cb		 mov	 ecx, ebx
  00f56	50		 push	 eax
  00f57	e8 00 00 00 00	 call	 ??$?5K@CAr@@QAEAAV0@AAK@Z ; CAr::operator>><unsigned long>
; File C:\IAGOS\server\v18\Source\Source\_Common\Mover.h

; 1803 : 	m_dwGold = (DWORD)nGold;

  00f5c	8b 85 0c ff ff
	ff		 mov	 eax, DWORD PTR _dwGold$[ebp]
; File C:\IAGOS\server\v18\Source\Source\_common\ObjSerializeOpt.cpp

; 533  : 				ar >> m_nExp1;

  00f62	8b cb		 mov	 ecx, ebx
; File C:\IAGOS\server\v18\Source\Source\_Common\Mover.h

; 1803 : 	m_dwGold = (DWORD)nGold;

  00f64	89 87 e0 14 00
	00		 mov	 DWORD PTR [edi+5344], eax
; File C:\IAGOS\server\v18\Source\Source\_common\ObjSerializeOpt.cpp

; 533  : 				ar >> m_nExp1;

  00f6a	8d 87 e0 05 00
	00		 lea	 eax, DWORD PTR [edi+1504]
  00f70	50		 push	 eax
  00f71	e8 00 00 00 00	 call	 ??$?5_J@CAr@@QAEAAV0@AA_J@Z ; CAr::operator>><__int64>

; 534  : 				ar >> m_nSkillLevel;

  00f76	8d 87 ac 10 00
	00		 lea	 eax, DWORD PTR [edi+4268]
  00f7c	8b cb		 mov	 ecx, ebx
  00f7e	50		 push	 eax
  00f7f	e8 00 00 00 00	 call	 ??$?5H@CAr@@QAEAAV0@AAH@Z ; CAr::operator>><int>

; 535  : 				ar >> m_nSkillPoint;

  00f84	8d 87 b0 10 00
	00		 lea	 eax, DWORD PTR [edi+4272]
  00f8a	8b cb		 mov	 ecx, ebx
  00f8c	50		 push	 eax
  00f8d	e8 00 00 00 00	 call	 ??$?5H@CAr@@QAEAAV0@AAH@Z ; CAr::operator>><int>

; 536  : 				ar >> m_nDeathExp;

  00f92	8d 87 e8 05 00
	00		 lea	 eax, DWORD PTR [edi+1512]
  00f98	8b cb		 mov	 ecx, ebx
  00f9a	50		 push	 eax
  00f9b	e8 00 00 00 00	 call	 ??$?5_J@CAr@@QAEAAV0@AA_J@Z ; CAr::operator>><__int64>

; 537  : 				ar >> m_nDeathLevel; 

  00fa0	8d 87 dc 05 00
	00		 lea	 eax, DWORD PTR [edi+1500]
  00fa6	8b cb		 mov	 ecx, ebx
  00fa8	50		 push	 eax
  00fa9	e8 00 00 00 00	 call	 ??$?5J@CAr@@QAEAAV0@AAJ@Z ; CAr::operator>><long>

; 538  : 				DWORD dwJobLv[MAX_JOB];		// »çżëÇĎÁö ľĘŔ˝ 
; 539  : 				ar.Read( (void*)dwJobLv, sizeof(DWORD) * MAX_JOB );

  00fae	68 a0 00 00 00	 push	 160			; 000000a0H
  00fb3	8d 85 18 ff ff
	ff		 lea	 eax, DWORD PTR _dwJobLv$68[ebp]
  00fb9	8b cb		 mov	 ecx, ebx
  00fbb	50		 push	 eax
  00fbc	e8 00 00 00 00	 call	 ?Read@CAr@@QAEXPAXI@Z	; CAr::Read

; 540  : 				ar >> m_idMarkingWorld;

  00fc1	8d 87 c0 0d 00
	00		 lea	 eax, DWORD PTR [edi+3520]
  00fc7	8b cb		 mov	 ecx, ebx
  00fc9	50		 push	 eax
  00fca	e8 00 00 00 00	 call	 ??$?5K@CAr@@QAEAAV0@AAK@Z ; CAr::operator>><unsigned long>

; 541  : 				ar >> m_vMarkingPos;

  00fcf	8d 87 b4 0d 00
	00		 lea	 eax, DWORD PTR [edi+3508]
  00fd5	8b cb		 mov	 ecx, ebx
  00fd7	50		 push	 eax
  00fd8	e8 00 00 00 00	 call	 ??$?5UD3DXVECTOR3@@@CAr@@QAEAAV0@AAUD3DXVECTOR3@@@Z ; CAr::operator>><D3DXVECTOR3>

; 542  : 				ar >> m_nQuestSize;

  00fdd	8d b7 96 0d 00
	00		 lea	 esi, DWORD PTR [edi+3478]
  00fe3	8b cb		 mov	 ecx, ebx
  00fe5	56		 push	 esi
  00fe6	e8 00 00 00 00	 call	 ??$?5E@CAr@@QAEAAV0@AAE@Z ; CAr::operator>><unsigned char>

; 543  : 				ar.Read( m_aQuest, sizeof(QUEST) * m_nQuestSize ); 

  00feb	0f b6 06	 movzx	 eax, BYTE PTR [esi]
  00fee	8b cb		 mov	 ecx, ebx
  00ff0	8d 04 40	 lea	 eax, DWORD PTR [eax+eax*2]
  00ff3	c1 e0 02	 shl	 eax, 2
  00ff6	50		 push	 eax
  00ff7	ff b7 98 0d 00
	00		 push	 DWORD PTR [edi+3480]
  00ffd	e8 00 00 00 00	 call	 ?Read@CAr@@QAEXPAXI@Z	; CAr::Read

; 544  : 				ar >> m_nCompleteQuestSize;

  01002	8d b7 9c 0d 00
	00		 lea	 esi, DWORD PTR [edi+3484]
  01008	8b cb		 mov	 ecx, ebx
  0100a	56		 push	 esi
  0100b	e8 00 00 00 00	 call	 ??$?5E@CAr@@QAEAAV0@AAE@Z ; CAr::operator>><unsigned char>

; 545  : 				ar.Read( m_aCompleteQuest, sizeof(WORD) * m_nCompleteQuestSize ); 

  01010	0f b6 06	 movzx	 eax, BYTE PTR [esi]
  01013	8b cb		 mov	 ecx, ebx
  01015	03 c0		 add	 eax, eax
  01017	50		 push	 eax
  01018	ff b7 a0 0d 00
	00		 push	 DWORD PTR [edi+3488]
  0101e	e8 00 00 00 00	 call	 ?Read@CAr@@QAEXPAXI@Z	; CAr::Read

; 546  : 
; 547  : #if __VER >= 15 // __IMPROVE_QUEST_INTERFACE
; 548  : 				ar >> m_nCheckedQuestSize;

  01023	8d b7 a4 0d 00
	00		 lea	 esi, DWORD PTR [edi+3492]
  01029	56		 push	 esi
  0102a	8b cb		 mov	 ecx, ebx
  0102c	e8 00 00 00 00	 call	 ??$?5E@CAr@@QAEAAV0@AAE@Z ; CAr::operator>><unsigned char>

; 549  : 				ar.Read( m_aCheckedQuest, sizeof(WORD) * m_nCheckedQuestSize );

  01031	0f b6 06	 movzx	 eax, BYTE PTR [esi]
  01034	8b cb		 mov	 ecx, ebx
  01036	03 c0		 add	 eax, eax
  01038	50		 push	 eax
  01039	ff b7 a8 0d 00
	00		 push	 DWORD PTR [edi+3496]
  0103f	e8 00 00 00 00	 call	 ?Read@CAr@@QAEXPAXI@Z	; CAr::Read

; 550  : #endif // __IMPROVE_QUEST_INTERFACE
; 551  : 
; 552  : 				ar >> m_idMurderer;

  01044	8d 87 4c 07 00
	00		 lea	 eax, DWORD PTR [edi+1868]
  0104a	8b cb		 mov	 ecx, ebx
  0104c	50		 push	 eax
  0104d	e8 00 00 00 00	 call	 ??$?5K@CAr@@QAEAAV0@AAK@Z ; CAr::operator>><unsigned long>

; 553  : 				short n1, n2;		// n2´Â »çżëÇĎÁö ľĘ´Â´Ů.
; 554  : 				ar >> n1 >> n2;		

  01052	8d 85 08 ff ff
	ff		 lea	 eax, DWORD PTR _n2$13[ebp]
  01058	8b cb		 mov	 ecx, ebx
  0105a	50		 push	 eax
  0105b	8d 85 14 ff ff
	ff		 lea	 eax, DWORD PTR _n1$39[ebp]
  01061	50		 push	 eax
  01062	e8 00 00 00 00	 call	 ??$?5F@CAr@@QAEAAV0@AAF@Z ; CAr::operator>><short>
  01067	8b c8		 mov	 ecx, eax
  01069	e8 00 00 00 00	 call	 ??$?5F@CAr@@QAEAAV0@AAF@Z ; CAr::operator>><short>

; 555  : 				m_nRemainGP	= n1;

  0106e	0f bf 85 14 ff
	ff ff		 movsx	 eax, WORD PTR _n1$39[ebp]
  01075	8d b7 24 0b 00
	00		 lea	 esi, DWORD PTR [edi+2852]
  0107b	89 87 04 06 00
	00		 mov	 DWORD PTR [edi+1540], eax
  01081	bf 1f 00 00 00	 mov	 edi, 31			; 0000001fH
$LL37@Serialize:

; 556  : 				{
; 557  : 					for( int i = 0; i < MAX_HUMAN_PARTS; i++ )
; 558  : 						ar >> m_aEquipInfo[i].dwId;

  01086	56		 push	 esi
  01087	8b cb		 mov	 ecx, ebx
  01089	e8 00 00 00 00	 call	 ??$?5K@CAr@@QAEAAV0@AAK@Z ; CAr::operator>><unsigned long>
  0108e	83 c6 0c	 add	 esi, 12			; 0000000cH
  01091	83 ef 01	 sub	 edi, 1
  01094	75 f0		 jne	 SHORT $LL37@Serialize

; 559  : 				}
; 560  : #ifdef __SKILL_0205
; 561  : 				ar.Read( (void*)m_aJobSkill, sizeof(SKILL) *  ( MAX_SKILL_JOB ) );
; 562  : 				for( int i = 0 ; i < MAX_SKILL_JOB; i++)
; 563  : 					m_abUpdateSkill[i]	= (BOOL)( memcmp( &m_aJobSkill[i], &aJobSkill[i], sizeof(SKILL) ) != 0 );
; 564  : #else	// __SKILL_0205
; 565  : 				ar.Read( (void*)m_aJobSkill, sizeof(SKILL) *  ( MAX_SKILL_JOB ) );

  01096	8b bd fc fe ff
	ff		 mov	 edi, DWORD PTR $T6[ebp]
  0109c	8b cb		 mov	 ecx, ebx
  0109e	68 98 01 00 00	 push	 408			; 00000198H
  010a3	8d 87 64 03 00
	00		 lea	 eax, DWORD PTR [edi+868]
  010a9	50		 push	 eax
  010aa	e8 00 00 00 00	 call	 ?Read@CAr@@QAEXPAXI@Z	; CAr::Read

; 566  : #endif	// __SKILL_0205
; 567  : 
; 568  : 				m_nCheerPoint	= 0;

  010af	8d 87 2c 07 00
	00		 lea	 eax, DWORD PTR [edi+1836]

; 569  : 				ar >> (BYTE&)m_nCheerPoint >> m_dwTickCheer;

  010b5	81 c7 28 07 00
	00		 add	 edi, 1832		; 00000728H
  010bb	8b cb		 mov	 ecx, ebx
  010bd	c7 00 00 00 00
	00		 mov	 DWORD PTR [eax], 0
  010c3	57		 push	 edi
  010c4	50		 push	 eax
  010c5	e8 00 00 00 00	 call	 ??$?5E@CAr@@QAEAAV0@AAE@Z ; CAr::operator>><unsigned char>
  010ca	8b c8		 mov	 ecx, eax
  010cc	e8 00 00 00 00	 call	 ??$?5K@CAr@@QAEAAV0@AAK@Z ; CAr::operator>><unsigned long>

; 570  : 				m_dwTickCheer	+= GetTickCount();

  010d1	8b 37		 mov	 esi, DWORD PTR [edi]
  010d3	ff 15 00 00 00
	00		 call	 DWORD PTR __imp__GetTickCount@0
  010d9	03 c6		 add	 eax, esi

; 571  : 				ar >> m_nSlot;

  010db	8b cb		 mov	 ecx, ebx
  010dd	89 07		 mov	 DWORD PTR [edi], eax
  010df	8b bd fc fe ff
	ff		 mov	 edi, DWORD PTR $T6[ebp]
  010e5	8d 87 38 0d 00
	00		 lea	 eax, DWORD PTR [edi+3384]
  010eb	50		 push	 eax
  010ec	e8 00 00 00 00	 call	 ??$?5E@CAr@@QAEAAV0@AAE@Z ; CAr::operator>><unsigned char>
  010f1	33 f6		 xor	 esi, esi
$LL40@Serialize:

; 572  : 				for( int k = 0 ; k < 3 ; ++k )
; 573  : 					ar >> m_dwGoldBank[k];

  010f3	8d 87 4c 0d 00
	00		 lea	 eax, DWORD PTR [edi+3404]
  010f9	8b cb		 mov	 ecx, ebx
  010fb	50		 push	 eax
  010fc	e8 00 00 00 00	 call	 ??$?5K@CAr@@QAEAAV0@AAK@Z ; CAr::operator>><unsigned long>
  01101	83 c6 04	 add	 esi, 4
  01104	8d 7f 04	 lea	 edi, DWORD PTR [edi+4]
  01107	83 fe 0c	 cmp	 esi, 12			; 0000000cH
  0110a	7c e7		 jl	 SHORT $LL40@Serialize

; 574  : 				for( int k = 0 ; k < 3 ; ++k )

  0110c	8b bd fc fe ff
	ff		 mov	 edi, DWORD PTR $T6[ebp]
  01112	33 f6		 xor	 esi, esi
$LL43@Serialize:

; 575  : 					ar >> m_idPlayerBank[k];

  01114	8d 87 40 0d 00
	00		 lea	 eax, DWORD PTR [edi+3392]
  0111a	8b cb		 mov	 ecx, ebx
  0111c	50		 push	 eax
  0111d	e8 00 00 00 00	 call	 ??$?5K@CAr@@QAEAAV0@AAK@Z ; CAr::operator>><unsigned long>
  01122	83 c6 04	 add	 esi, 4
  01125	8d 7f 04	 lea	 edi, DWORD PTR [edi+4]
  01128	83 fe 0c	 cmp	 esi, 12			; 0000000cH
  0112b	7c e7		 jl	 SHORT $LL43@Serialize

; 576  : 
; 577  : 				ar >> m_nPlusMaxHitPoint;

  0112d	8b bd fc fe ff
	ff		 mov	 edi, DWORD PTR $T6[ebp]
  01133	8b cb		 mov	 ecx, ebx
  01135	8d 87 b0 06 00
	00		 lea	 eax, DWORD PTR [edi+1712]
  0113b	50		 push	 eax
  0113c	e8 00 00 00 00	 call	 ??$?5J@CAr@@QAEAAV0@AAJ@Z ; CAr::operator>><long>

; 578  : 				ar >> m_nAttackResistLeft;

  01141	8d 87 0c 07 00
	00		 lea	 eax, DWORD PTR [edi+1804]
  01147	8b cb		 mov	 ecx, ebx
  01149	50		 push	 eax
  0114a	e8 00 00 00 00	 call	 ??$?5E@CAr@@QAEAAV0@AAE@Z ; CAr::operator>><unsigned char>

; 579  : 				ar >> m_nAttackResistRight;

  0114f	8d 87 0d 07 00
	00		 lea	 eax, DWORD PTR [edi+1805]
  01155	8b cb		 mov	 ecx, ebx
  01157	50		 push	 eax
  01158	e8 00 00 00 00	 call	 ??$?5E@CAr@@QAEAAV0@AAE@Z ; CAr::operator>><unsigned char>

; 580  : 				ar >> m_nDefenseResist;

  0115d	8d 87 0e 07 00
	00		 lea	 eax, DWORD PTR [edi+1806]
  01163	8b cb		 mov	 ecx, ebx
  01165	50		 push	 eax
  01166	e8 00 00 00 00	 call	 ??$?5E@CAr@@QAEAAV0@AAE@Z ; CAr::operator>><unsigned char>

; 581  : #if __VER >= 8 //__CSC_VER8_5
; 582  : 				ar >> m_nAngelExp;

  0116b	8d 87 60 07 00
	00		 lea	 eax, DWORD PTR [edi+1888]
  01171	8b cb		 mov	 ecx, ebx
  01173	50		 push	 eax
  01174	e8 00 00 00 00	 call	 ??$?5_J@CAr@@QAEAAV0@AA_J@Z ; CAr::operator>><__int64>

; 583  : 				ar >> m_nAngelLevel;

  01179	8d 87 68 07 00
	00		 lea	 eax, DWORD PTR [edi+1896]
  0117f	8b cb		 mov	 ecx, ebx
  01181	50		 push	 eax
  01182	e8 00 00 00 00	 call	 ??$?5J@CAr@@QAEAAV0@AAJ@Z ; CAr::operator>><long>

; 584  : #endif // __CSC_VER8_5
; 585  : 				m_Inventory.Serialize( ar );

  01187	8d 87 fc 0a 00
	00		 lea	 eax, DWORD PTR [edi+2812]
  0118d	53		 push	 ebx
  0118e	8b c8		 mov	 ecx, eax
  01190	89 85 04 ff ff
	ff		 mov	 DWORD PTR tv2725[ebp], eax
  01196	e8 00 00 00 00	 call	 ?Serialize@?$CItemContainer@VCItemElem@@@@QAEXAAVCAr@@@Z ; CItemContainer<CItemElem>::Serialize
  0119b	8d b7 58 0d 00
	00		 lea	 esi, DWORD PTR [edi+3416]
  011a1	bf 03 00 00 00	 mov	 edi, 3
$LL46@Serialize:

; 586  : 				for( int k = 0 ; k < 3 ; ++k )
; 587  : 					m_Bank[k].Serialize( ar );

  011a6	53		 push	 ebx
  011a7	8b ce		 mov	 ecx, esi
  011a9	e8 00 00 00 00	 call	 ?Serialize@?$CItemContainer@VCItemElem@@@@QAEXAAVCAr@@@Z ; CItemContainer<CItemElem>::Serialize
  011ae	83 c6 14	 add	 esi, 20			; 00000014H
  011b1	83 ef 01	 sub	 edi, 1
  011b4	75 f0		 jne	 SHORT $LL46@Serialize

; 588  : 
; 589  : 				CItemElem* pItemElem	= m_Inventory.GetEquip( PARTS_RIDE );

  011b6	8b 8d 04 ff ff
	ff		 mov	 ecx, DWORD PTR tv2725[ebp]
  011bc	6a 0d		 push	 13			; 0000000dH
  011be	e8 00 00 00 00	 call	 ?GetEquip@?$CItemContainer@VCItemElem@@@@QAEPAVCItemElem@@K@Z ; CItemContainer<CItemElem>::GetEquip

; 590  : 				if( pItemElem )

  011c3	8b bd fc fe ff
	ff		 mov	 edi, DWORD PTR $T6[ebp]
  011c9	85 c0		 test	 eax, eax
  011cb	74 09		 je	 SHORT $LN232@Serialize

; 591  : 					m_dwRideItemIdx		= pItemElem->m_dwItemId;

  011cd	8b 40 0c	 mov	 eax, DWORD PTR [eax+12]
  011d0	89 87 e4 14 00
	00		 mov	 DWORD PTR [edi+5348], eax
$LN232@Serialize:

; 592  : 
; 593  : #if __VER >= 9	// __PET_0410
; 594  : 				DWORD dwPetId;
; 595  : 				ar >> dwPetId;

  011d6	8d 85 04 ff ff
	ff		 lea	 eax, DWORD PTR _dwPetId$11[ebp]
  011dc	8b cb		 mov	 ecx, ebx
  011de	50		 push	 eax
  011df	e8 00 00 00 00	 call	 ??$?5K@CAr@@QAEAAV0@AAK@Z ; CAr::operator>><unsigned long>
; File C:\IAGOS\server\v18\Source\Source\_Common\Mover.h

; 811  : 	void	SetPetId( DWORD dwPetId )		{	m_dwPetId	= dwPetId;	}

  011e4	8b 85 04 ff ff
	ff		 mov	 eax, DWORD PTR _dwPetId$11[ebp]
; File C:\IAGOS\server\v18\Source\Source\_common\ObjSerializeOpt.cpp

; 606  : 				m_Pocket.Serialize( ar );

  011ea	8d 8f 10 0b 00
	00		 lea	 ecx, DWORD PTR [edi+2832]
  011f0	53		 push	 ebx
; File C:\IAGOS\server\v18\Source\Source\_Common\Mover.h

; 811  : 	void	SetPetId( DWORD dwPetId )		{	m_dwPetId	= dwPetId;	}

  011f1	89 87 98 10 00
	00		 mov	 DWORD PTR [edi+4248], eax
; File C:\IAGOS\server\v18\Source\Source\_common\ObjSerializeOpt.cpp

; 606  : 				m_Pocket.Serialize( ar );

  011f7	e8 00 00 00 00	 call	 ?Serialize@CPocketController@@QAEXAAVCAr@@@Z ; CPocketController::Serialize

; 607  : #endif	// __SYS_POCKET
; 608  : 
; 609  : #ifdef __JEFF_9_20
; 610  : 				ar >> m_dwMute;

  011fc	8d 87 d4 0a 00
	00		 lea	 eax, DWORD PTR [edi+2772]
  01202	8b cb		 mov	 ecx, ebx
  01204	50		 push	 eax
  01205	e8 00 00 00 00	 call	 ??$?5K@CAr@@QAEAAV0@AAK@Z ; CAr::operator>><unsigned long>
  0120a	33 f6		 xor	 esi, esi
  0120c	0f 1f 40 00	 npad	 4
$LL49@Serialize:

; 611  : #endif	// __JEFF_9_20
; 612  : #if __VER >= 13 // __HONORABLE_TITLE	// ´ŢŔÎ
; 613  : #ifdef __CLIENT
; 614  : 				CTitleManager::Instance()->InitEarned();
; 615  : #endif	// __CLIENT
; 616  : 				for( int l = 0 ; l < MAX_HONOR_TITLE ; ++l )
; 617  : 				{
; 618  : 					ar >> m_aHonorTitle[l];

  01210	8d 87 78 08 00
	00		 lea	 eax, DWORD PTR [edi+2168]
  01216	8b cb		 mov	 ecx, ebx
  01218	50		 push	 eax
  01219	e8 00 00 00 00	 call	 ??$?5H@CAr@@QAEAAV0@AAH@Z ; CAr::operator>><int>
  0121e	83 c6 04	 add	 esi, 4
  01221	8d 7f 04	 lea	 edi, DWORD PTR [edi+4]
  01224	81 fe 58 02 00
	00		 cmp	 esi, 600		; 00000258H
  0122a	7c e4		 jl	 SHORT $LL49@Serialize

; 619  : #ifdef __CLIENT
; 620  : 					int nNeed = CTitleManager::Instance()->GetNeedCount(l, -1);
; 621  : 					if(m_aHonorTitle[l] >= nNeed && nNeed > 0)
; 622  : 					{
; 623  : 						CTitleManager::Instance()->AddEarned(l);	
; 624  : 					}
; 625  : 					else
; 626  : 					{
; 627  : 						// ČąµćµČ Ĺ¸ŔĚĆ˛ŔĚÁö¸¸ żä±¸»çÇ×Ŕ» ĂćÁ·¸řÇĎ°Ô µÉ¶§
; 628  : 						if(CTitleManager::Instance()->IsEarned(l))
; 629  : 						{
; 630  : 							CTitleManager::Instance()->RemoveEarned(l);
; 631  : 						}
; 632  : 					}
; 633  : #endif	// __CLIENT
; 634  : 				}
; 635  : #endif	// __HONORABLE_TITLE			// ´ŢŔÎ
; 636  : #if __VER >= 15 // __CAMPUS
; 637  : 				ar >> m_idCampus;

  0122c	8b bd fc fe ff
	ff		 mov	 edi, DWORD PTR $T6[ebp]
  01232	8b cb		 mov	 ecx, ebx
  01234	8d 87 cc 14 00
	00		 lea	 eax, DWORD PTR [edi+5324]
  0123a	50		 push	 eax
  0123b	e8 00 00 00 00	 call	 ??$?5K@CAr@@QAEAAV0@AAK@Z ; CAr::operator>><unsigned long>

; 638  : 				ar >> m_nCampusPoint;

  01240	8d 87 d0 14 00
	00		 lea	 eax, DWORD PTR [edi+5328]
  01246	8b cb		 mov	 ecx, ebx
  01248	50		 push	 eax
  01249	e8 00 00 00 00	 call	 ??$?5H@CAr@@QAEAAV0@AAH@Z ; CAr::operator>><int>

; 639  : #endif // __CAMPUS
; 640  : 			}

  0124e	e9 fa 00 00 00	 jmp	 $LN89@Serialize
$LN86@Serialize:

; 641  : 			else if( CObj::GetMethod() == METHOD_EXCLUDE_ITEM )

  01253	83 f8 01	 cmp	 eax, 1
  01256	0f 85 f1 00 00
	00		 jne	 $LN89@Serialize

; 642  : 			{
; 643  : 			#if defined (__WORLDSERVER) || defined(__CLIENT)
; 644  : 				char szPVendor[MAX_VENDORNAME] = {0, };

  0125c	6a 30		 push	 48			; 00000030H
  0125e	8d 45 b8	 lea	 eax, DWORD PTR _szPVendor$70[ebp]
  01261	6a 00		 push	 0
  01263	50		 push	 eax
  01264	e8 00 00 00 00	 call	 _memset
  01269	83 c4 0c	 add	 esp, 12			; 0000000cH

; 645  : 				ar.ReadString( szPVendor, MAX_VENDORNAME );

  0126c	8d 45 b8	 lea	 eax, DWORD PTR _szPVendor$70[ebp]
  0126f	8b cb		 mov	 ecx, ebx
  01271	6a 30		 push	 48			; 00000030H
  01273	50		 push	 eax
  01274	e8 00 00 00 00	 call	 ?ReadString@CAr@@QAEPADPADH@Z ; CAr::ReadString

; 646  : 				m_vtInfo.SetTitle( szPVendor );

  01279	8d 45 b8	 lea	 eax, DWORD PTR _szPVendor$70[ebp]
  0127c	50		 push	 eax
  0127d	8d 8f 98 0c 00
	00		 lea	 ecx, DWORD PTR [edi+3224]
  01283	e8 00 00 00 00	 call	 ?SetTitle@CVTInfo@@QAEXPBD@Z ; CVTInfo::SetTitle
  01288	8d 87 24 0b 00
	00		 lea	 eax, DWORD PTR [edi+2852]
  0128e	b9 1f 00 00 00	 mov	 ecx, 31			; 0000001fH
$LL52@Serialize:

; 647  : 			#endif
; 648  : 				for( int i = 0; i < MAX_HUMAN_PARTS; i++ )
; 649  : 					m_aEquipInfo[i].dwId	= NULL_ID;

  01293	c7 00 ff ff ff
	ff		 mov	 DWORD PTR [eax], -1
  01299	8d 40 0c	 lea	 eax, DWORD PTR [eax+12]
  0129c	83 e9 01	 sub	 ecx, 1
  0129f	75 f2		 jne	 SHORT $LL52@Serialize

; 650  : 
; 651  : 				u_char uSize;
; 652  : 				ar >> uSize;

  012a1	8d 85 17 ff ff
	ff		 lea	 eax, DWORD PTR _uSize$53[ebp]
  012a7	8b cb		 mov	 ecx, ebx
  012a9	50		 push	 eax
  012aa	e8 00 00 00 00	 call	 ??$?5E@CAr@@QAEAAV0@AAE@Z ; CAr::operator>><unsigned char>

; 653  : 				u_char uParts;
; 654  : 				u_short	u2;
; 655  : 				for( u_char uCount = 0; uCount < uSize; uCount++ )

  012af	8a 85 17 ff ff
	ff		 mov	 al, BYTE PTR _uSize$53[ebp]
  012b5	84 c0		 test	 al, al
  012b7	74 51		 je	 SHORT $LN54@Serialize

; 650  : 
; 651  : 				u_char uSize;
; 652  : 				ar >> uSize;

  012b9	0f b6 f0	 movzx	 esi, al
  012bc	0f 1f 40 00	 npad	 4
$LL55@Serialize:

; 656  : 				{
; 657  : 					ar >> uParts;

  012c0	8d 85 17 ff ff
	ff		 lea	 eax, DWORD PTR _uParts$52[ebp]
  012c6	8b cb		 mov	 ecx, ebx
  012c8	50		 push	 eax
  012c9	e8 00 00 00 00	 call	 ??$?5E@CAr@@QAEAAV0@AAE@Z ; CAr::operator>><unsigned char>

; 658  : 					ar >> u2;

  012ce	8d 85 08 ff ff
	ff		 lea	 eax, DWORD PTR _u2$14[ebp]
  012d4	8b cb		 mov	 ecx, ebx
  012d6	50		 push	 eax
  012d7	e8 00 00 00 00	 call	 ??$?5G@CAr@@QAEAAV0@AAG@Z ; CAr::operator>><unsigned short>

; 659  : 					m_aEquipInfo[uParts].dwId	= (DWORD)u2;

  012dc	0f b6 85 17 ff
	ff ff		 movzx	 eax, BYTE PTR _uParts$52[ebp]
  012e3	8d 0c 40	 lea	 ecx, DWORD PTR [eax+eax*2]
  012e6	0f b7 85 08 ff
	ff ff		 movzx	 eax, WORD PTR _u2$14[ebp]
  012ed	89 84 8f 24 0b
	00 00		 mov	 DWORD PTR [edi+ecx*4+2852], eax

; 660  : 					ar >> m_aEquipInfo[uParts].byFlag;

  012f4	8d 89 cb 02 00
	00		 lea	 ecx, DWORD PTR [ecx+715]
  012fa	8d 04 8f	 lea	 eax, DWORD PTR [edi+ecx*4]
  012fd	8b cb		 mov	 ecx, ebx
  012ff	50		 push	 eax
  01300	e8 00 00 00 00	 call	 ??$?5E@CAr@@QAEAAV0@AAE@Z ; CAr::operator>><unsigned char>
  01305	83 ee 01	 sub	 esi, 1
  01308	75 b6		 jne	 SHORT $LL55@Serialize
$LN54@Serialize:

; 661  : 				}
; 662  : 				if( m_aEquipInfo[PARTS_RIDE].dwId != NULL_ID )

  0130a	8b 87 c0 0b 00
	00		 mov	 eax, DWORD PTR [edi+3008]
  01310	83 f8 ff	 cmp	 eax, -1
  01313	74 06		 je	 SHORT $LN90@Serialize

; 663  : 					m_dwRideItemIdx		= m_aEquipInfo[PARTS_RIDE].dwId;

  01315	89 87 e4 14 00
	00		 mov	 DWORD PTR [edi+5348], eax
$LN90@Serialize:

; 664  : #if __VER >= 9	// __PET_0410
; 665  : 				DWORD dwPetId;
; 666  : 				ar >> dwPetId;

  0131b	8d 85 04 ff ff
	ff		 lea	 eax, DWORD PTR _dwPetId$10[ebp]
  01321	8b cb		 mov	 ecx, ebx
  01323	50		 push	 eax
  01324	e8 00 00 00 00	 call	 ??$?5K@CAr@@QAEAAV0@AAK@Z ; CAr::operator>><unsigned long>
; File C:\IAGOS\server\v18\Source\Source\_Common\Mover.h

; 811  : 	void	SetPetId( DWORD dwPetId )		{	m_dwPetId	= dwPetId;	}

  01329	8b 85 04 ff ff
	ff		 mov	 eax, DWORD PTR _dwPetId$10[ebp]
  0132f	0f 57 c0	 xorps	 xmm0, xmm0
  01332	89 87 98 10 00
	00		 mov	 DWORD PTR [edi+4248], eax
; File C:\IAGOS\server\v18\Source\Source\_common\ObjSerializeOpt.cpp

; 670  : 				ar.ReadString( szPetName, MAX_PET_NAME );

  01338	8b cb		 mov	 ecx, ebx
  0133a	6a 11		 push	 17			; 00000011H
  0133c	8d 45 e8	 lea	 eax, DWORD PTR _szPetName$71[ebp]
  0133f	c6 45 f8 00	 mov	 BYTE PTR _szPetName$71[ebp+16], 0
  01343	50		 push	 eax
  01344	0f 11 45 e8	 movups	 XMMWORD PTR _szPetName$71[ebp], xmm0
  01348	e8 00 00 00 00	 call	 ?ReadString@CAr@@QAEPADPADH@Z ; CAr::ReadString
$LN89@Serialize:

; 671  : 	#ifdef __CLIENT
; 672  : 				m_pet.SetName( szPetName );
; 673  : 	#endif	// __CLIENT
; 674  : 	#endif	// __PET_1024
; 675  : #endif	// __PET_0410
; 676  : 			}
; 677  : 
; 678  : 		#if defined(__WORLDSERVER) || defined(__CLIENT)
; 679  : 			if( m_dwRideItemIdx )

  0134d	8b 8f e4 14 00
	00		 mov	 ecx, DWORD PTR [edi+5348]
  01353	85 c9		 test	 ecx, ecx
  01355	0f 84 78 00 00
	00		 je	 $LN92@Serialize
; File C:\IAGOS\server\v18\Source\Source\_Common\Project.h

; 1389 : 	VERIFY_RANGE_ASSERT( nIndex, 0, m_aPropItem.GetSize(), "GetItemProp range_error", NULL );

  0135b	a1 40 02 00 00	 mov	 eax, DWORD PTR ?prj@@3VCProject@@A+576
  01360	78 5b		 js	 SHORT $LN100@Serialize
  01362	3b c8		 cmp	 ecx, eax
  01364	7d 57		 jge	 SHORT $LN100@Serialize
; File C:\IAGOS\server\v18\Source\Source\_Common\data.h

; 270  : 	if( dwIndex >= (DWORD)m_nMaxIndex )

  01366	72 04		 jb	 SHORT $LN105@Serialize

; 271  : 		return NULL;

  01368	33 c0		 xor	 eax, eax
  0136a	eb 08		 jmp	 SHORT $LN104@Serialize
$LN105@Serialize:

; 272  : 	return (T*) m_apOffset[ dwIndex ];

  0136c	a1 30 02 00 00	 mov	 eax, DWORD PTR ?prj@@3VCProject@@A+560
  01371	8b 04 88	 mov	 eax, DWORD PTR [eax+ecx*4]
$LN104@Serialize:
; File C:\IAGOS\server\v18\Source\Source\_common\ObjSerializeOpt.cpp

; 682  : 				if( pItemProp && m_nFuel == -1 )

  01374	85 c0		 test	 eax, eax
  01376	74 5b		 je	 SHORT $LN92@Serialize
  01378	83 bf 78 06 00
	00 ff		 cmp	 DWORD PTR [edi+1656], -1
  0137f	75 52		 jne	 SHORT $LN92@Serialize

; 683  : 					m_nFuel		= (int)( pItemProp->dwFFuelReMax * 0.2f );

  01381	8b 80 2c 02 00
	00		 mov	 eax, DWORD PTR [eax+556]

; 685  : 			OnApplySM();

  01387	8b cf		 mov	 ecx, edi
  01389	66 0f 6e c0	 movd	 xmm0, eax
  0138d	f3 0f e6 c0	 cvtdq2pd xmm0, xmm0
  01391	c1 e8 1f	 shr	 eax, 31			; 0000001fH
  01394	f2 0f 58 04 c5
	00 00 00 00	 addsd	 xmm0, QWORD PTR __xmm@41f00000000000000000000000000000[eax*8]
  0139d	66 0f 5a c0	 cvtpd2ps xmm0, xmm0
  013a1	f3 0f 59 05 00
	00 00 00	 mulss	 xmm0, DWORD PTR __real@3e4ccccd
  013a9	f3 0f 2c c0	 cvttss2si eax, xmm0
  013ad	89 87 78 06 00
	00		 mov	 DWORD PTR [edi+1656], eax
  013b3	e8 00 00 00 00	 call	 ?OnApplySM@CMover@@QAEXXZ ; CMover::OnApplySM

; 686  : 		#endif	// __WORLDSERVER	// __CLIENT
; 687  : 
; 688  : 		}

  013b8	e9 53 01 00 00	 jmp	 $LN82@Serialize
$LN100@Serialize:
; File C:\IAGOS\server\v18\Source\Source\_Common\Project.h

; 579  : 	LPCTSTR szErr = Error( _T( "%s min:%d, max:%d, index:%d" ), szMsg, nMin, nMax, nIndex ); 

  013bd	51		 push	 ecx
  013be	50		 push	 eax
  013bf	6a 00		 push	 0
  013c1	68 00 00 00 00	 push	 OFFSET ??_C@_0BI@BEIFNGEL@GetItemProp?5range_error@
  013c6	68 00 00 00 00	 push	 OFFSET ??_C@_0BM@HMFGHCP@?$CFs?5min?3?$CFd?0?5max?3?$CFd?0?5index?3?$CFd@
  013cb	e8 00 00 00 00	 call	 ?Error@@YAPBDPBDZZ	; Error
  013d0	83 c4 14	 add	 esp, 20			; 00000014H
$LN92@Serialize:
; File C:\IAGOS\server\v18\Source\Source\_common\ObjSerializeOpt.cpp

; 685  : 			OnApplySM();

  013d3	8b cf		 mov	 ecx, edi
  013d5	e8 00 00 00 00	 call	 ?OnApplySM@CMover@@QAEXXZ ; CMover::OnApplySM

; 686  : 		#endif	// __WORLDSERVER	// __CLIENT
; 687  : 
; 688  : 		}

  013da	e9 31 01 00 00	 jmp	 $LN82@Serialize
$LN81@Serialize:

; 689  : 		else	// NPC
; 690  : 		{
; 691  : 			ar >> (u_char&)m_dwHairMesh >> m_dwHairColor >> (u_char&)m_dwHeadMesh;

  013df	8d 87 2c 06 00
	00		 lea	 eax, DWORD PTR [edi+1580]
  013e5	8b cb		 mov	 ecx, ebx
  013e7	50		 push	 eax
  013e8	8d b7 28 06 00
	00		 lea	 esi, DWORD PTR [edi+1576]
  013ee	56		 push	 esi
  013ef	8d 87 24 06 00
	00		 lea	 eax, DWORD PTR [edi+1572]
  013f5	50		 push	 eax
  013f6	e8 00 00 00 00	 call	 ??$?5E@CAr@@QAEAAV0@AAE@Z ; CAr::operator>><unsigned char>
  013fb	8b c8		 mov	 ecx, eax
  013fd	e8 00 00 00 00	 call	 ??$?5K@CAr@@QAEAAV0@AAK@Z ; CAr::operator>><unsigned long>
  01402	8b c8		 mov	 ecx, eax
  01404	e8 00 00 00 00	 call	 ??$?5E@CAr@@QAEAAV0@AAE@Z ; CAr::operator>><unsigned char>

; 692  : 			ar.ReadString( m_szCharacterKey, 32 );

  01409	6a 20		 push	 32			; 00000020H
  0140b	8d 87 44 06 00
	00		 lea	 eax, DWORD PTR [edi+1604]
  01411	8b cb		 mov	 ecx, ebx
  01413	50		 push	 eax
  01414	e8 00 00 00 00	 call	 ?ReadString@CAr@@QAEPADPADH@Z ; CAr::ReadString

; 693  : 		#if defined (__WORLDSERVER) || defined(__CLIENT)
; 694  : 			SetHairColor( m_dwHairColor );

  01419	ff 36		 push	 DWORD PTR [esi]
  0141b	8b cf		 mov	 ecx, edi
  0141d	e8 00 00 00 00	 call	 ?SetHairColor@CMover@@QAEXK@Z ; CMover::SetHairColor
  01422	8d 87 24 0b 00
	00		 lea	 eax, DWORD PTR [edi+2852]
  01428	b9 1f 00 00 00	 mov	 ecx, 31			; 0000001fH
  0142d	0f 1f 00	 npad	 3
$LL58@Serialize:

; 695  : 		#endif	// __WORLDSERVER	//__CLIENT
; 696  : 			{
; 697  : 				for( int i = 0; i < MAX_HUMAN_PARTS; i++ )
; 698  : 					m_aEquipInfo[i].dwId	= NULL_ID;

  01430	c7 00 ff ff ff
	ff		 mov	 DWORD PTR [eax], -1
  01436	8d 40 0c	 lea	 eax, DWORD PTR [eax+12]
  01439	83 e9 01	 sub	 ecx, 1
  0143c	75 f2		 jne	 SHORT $LL58@Serialize

; 699  : 			}
; 700  : 			u_char uSize;
; 701  : 			ar >> uSize;

  0143e	8d 85 17 ff ff
	ff		 lea	 eax, DWORD PTR _uSize$50[ebp]
  01444	8b cb		 mov	 ecx, ebx
  01446	50		 push	 eax
  01447	e8 00 00 00 00	 call	 ??$?5E@CAr@@QAEAAV0@AAE@Z ; CAr::operator>><unsigned char>
; File C:\IAGOS\server\v18\Source\Source\_Common\Mover.h

; 1017 : 	BOOL			IsEquipableNPC()	{	return( GetCharacter() && GetCharacter()->m_nEquipNum > 0 );	}

  0144c	8b cf		 mov	 ecx, edi
  0144e	e8 00 00 00 00	 call	 ?GetCharacter@CMover@@QAEPAUtagCHARACTER@@XZ ; CMover::GetCharacter
  01453	85 c0		 test	 eax, eax
  01455	74 56		 je	 SHORT $LN60@Serialize
  01457	8b cf		 mov	 ecx, edi
  01459	e8 00 00 00 00	 call	 ?GetCharacter@CMover@@QAEPAUtagCHARACTER@@XZ ; CMover::GetCharacter
  0145e	83 b8 08 01 00
	00 00		 cmp	 DWORD PTR [eax+264], 0
  01465	7e 46		 jle	 SHORT $LN60@Serialize
; File C:\IAGOS\server\v18\Source\Source\_common\ObjSerializeOpt.cpp

; 706  : 				for( u_char uCount = 0; uCount < uSize; uCount++ )

  01467	8a 85 17 ff ff
	ff		 mov	 al, BYTE PTR _uSize$50[ebp]
  0146d	84 c0		 test	 al, al
  0146f	74 3c		 je	 SHORT $LN60@Serialize
  01471	0f b6 f0	 movzx	 esi, al
$LL61@Serialize:

; 707  : 				{
; 708  : 					ar >> uParts;

  01474	8d 85 17 ff ff
	ff		 lea	 eax, DWORD PTR _uParts$51[ebp]
  0147a	8b cb		 mov	 ecx, ebx
  0147c	50		 push	 eax
  0147d	e8 00 00 00 00	 call	 ??$?5E@CAr@@QAEAAV0@AAE@Z ; CAr::operator>><unsigned char>

; 709  : 					ar >> u2;

  01482	8d 85 08 ff ff
	ff		 lea	 eax, DWORD PTR _u2$15[ebp]
  01488	8b cb		 mov	 ecx, ebx
  0148a	50		 push	 eax
  0148b	e8 00 00 00 00	 call	 ??$?5G@CAr@@QAEAAV0@AAG@Z ; CAr::operator>><unsigned short>

; 710  : 					m_aEquipInfo[uParts].dwId	= (DWORD)u2;

  01490	0f b6 85 17 ff
	ff ff		 movzx	 eax, BYTE PTR _uParts$51[ebp]
  01497	0f b7 8d 08 ff
	ff ff		 movzx	 ecx, WORD PTR _u2$15[ebp]
  0149e	8d 04 40	 lea	 eax, DWORD PTR [eax+eax*2]
  014a1	89 8c 87 24 0b
	00 00		 mov	 DWORD PTR [edi+eax*4+2852], ecx
  014a8	83 ee 01	 sub	 esi, 1
  014ab	75 c7		 jne	 SHORT $LL61@Serialize
$LN60@Serialize:

; 711  : 					/*
; 712  : #ifdef __PERF_0229
; 713  : 					if( GetIndex() == 11 || GetIndex() == 12 )
; 714  : 					{
; 715  : 						int nAttr	= 0; //xRandom( 0,  5 );
; 716  : 						int nAttrLevel	= 0;
; 717  : 						//if( nAttr > 0 )
; 718  : 						//	nAttrLevel= xRandom( 8, 10 );
; 719  : 						int nLevel	= 0;
; 720  : 						//if( nAttr < 3 )
; 721  : 								nLevel	= xRandom( 9, 10 );
; 722  : 						int nOption	= nLevel;
; 723  : 						nOption	|= ( nAttrLevel << 24 );
; 724  : 						nOption	|= (nAttr << 16 );
; 725  : 						m_aEquipInfo[uParts].nOption	= nOption;
; 726  : 					}
; 727  : #endif	// __PERF_0229
; 728  : 					*/
; 729  : 				}
; 730  : 			}
; 731  : 
; 732  : 			m_bActiveAttack	=

  014ad	8b 85 fc fe ff
	ff		 mov	 eax, DWORD PTR $T6[ebp]
  014b3	81 c7 c4 14 00
	00		 add	 edi, 5316		; 000014c4H
  014b9	8d b0 c0 14 00
	00		 lea	 esi, DWORD PTR [eax+5312]
  014bf	05 68 06 00 00	 add	 eax, 1640		; 00000668H

; 733  : 			m_nMovePattern	=
; 734  : 			m_nMoveEvent	=
; 735  : 									0;
; 736  : 
; 737  : 			ar >> (u_char&)m_bActiveAttack;

  014c4	8b cb		 mov	 ecx, ebx
  014c6	c7 06 00 00 00
	00		 mov	 DWORD PTR [esi], 0
  014cc	50		 push	 eax
  014cd	c7 07 00 00 00
	00		 mov	 DWORD PTR [edi], 0
  014d3	c7 00 00 00 00
	00		 mov	 DWORD PTR [eax], 0
  014d9	e8 00 00 00 00	 call	 ??$?5E@CAr@@QAEAAV0@AAE@Z ; CAr::operator>><unsigned char>

; 738  : 			ar >> (u_char&)m_nMovePattern;

  014de	56		 push	 esi
  014df	8b cb		 mov	 ecx, ebx
  014e1	e8 00 00 00 00	 call	 ??$?5E@CAr@@QAEAAV0@AAE@Z ; CAr::operator>><unsigned char>

; 739  : 			ar >> (u_char&)m_nMoveEvent;

  014e6	57		 push	 edi
  014e7	8b cb		 mov	 ecx, ebx
  014e9	e8 00 00 00 00	 call	 ??$?5E@CAr@@QAEAAV0@AAE@Z ; CAr::operator>><unsigned char>

; 740  : 			ar >> m_nMoveEventCnt;

  014ee	8b bd fc fe ff
	ff		 mov	 edi, DWORD PTR $T6[ebp]
  014f4	8b cb		 mov	 ecx, ebx
  014f6	8d 87 c8 14 00
	00		 lea	 eax, DWORD PTR [edi+5320]
  014fc	50		 push	 eax
  014fd	e8 00 00 00 00	 call	 ??$?5H@CAr@@QAEAAV0@AAH@Z ; CAr::operator>><int>

; 741  : 		#ifdef __CLIENT
; 742  : 			if( *m_szCharacterKey )
; 743  : 			{
; 744  : 				LPCHARACTER pCharacter	= prj.GetCharacter( m_szCharacterKey );
; 745  : 				if( pCharacter )
; 746  : 				{
; 747  : 					_tcscpy( m_szName, pCharacter->m_strName );
; 748  : 					AllocShopInventory( pCharacter );
; 749  : 				}
; 750  : 			}
; 751  : 		#endif	// __CLIENT
; 752  : #if __VER >= 9	//__AI_0509
; 753  : 			ar >> m_fSpeedFactor;

  01502	8d 87 08 07 00
	00		 lea	 eax, DWORD PTR [edi+1800]
  01508	8b cb		 mov	 ecx, ebx
  0150a	50		 push	 eax
  0150b	e8 00 00 00 00	 call	 ??$?5M@CAr@@QAEAAV0@AAM@Z ; CAr::operator>><float>
$LN82@Serialize:

; 754  : #endif	// __AI_0509
; 755  : 		}
; 756  : 
; 757  : #ifdef __BUFF_1107
; 758  : 		m_buffs.Serialize( ar );
; 759  : #else	// __BUFF_1107
; 760  : 		m_SkillState.Serialize( ar );
; 761  : #endif	// __BUFF_1107
; 762  : 
; 763  : 	#ifdef __CLIENT
; 764  : 		InitInterpolation();
; 765  : 	#endif	// __CLIENT
; 766  : 
; 767  : 	} // LOADING
; 768  : 
; 769  : #ifdef __CLIENT	
; 770  : 	m_fDestScale = GetScale().x;
; 771  : 	if( m_fDestScale > 10.0f )
; 772  : 	{
; 773  : 		LPCTSTR szErr = Error( "SerializeOpt:%f %s", m_fDestScale, GetName() );
; 774  : 		ADDERRORMSG( szErr );
; 775  : 	}
; 776  : #endif
; 777  : }

  01510	53		 push	 ebx
  01511	8d 8f ec 02 00
	00		 lea	 ecx, DWORD PTR [edi+748]
  01517	e8 00 00 00 00	 call	 ?Serialize@CBuffMgr@@QAEXAAVCAr@@@Z ; CBuffMgr::Serialize
  0151c	8b 4d fc	 mov	 ecx, DWORD PTR __$ArrayPad$[ebp]
  0151f	5f		 pop	 edi
  01520	5e		 pop	 esi
  01521	33 cd		 xor	 ecx, ebp
  01523	5b		 pop	 ebx
  01524	e8 00 00 00 00	 call	 @__security_check_cookie@4
  01529	8b e5		 mov	 esp, ebp
  0152b	5d		 pop	 ebp
  0152c	c2 04 00	 ret	 4
?Serialize@CMover@@UAEXAAVCAr@@@Z ENDP			; CMover::Serialize
_TEXT	ENDS
; Function compile flags: /Ogtp
; File C:\IAGOS\server\v18\Source\Source\_Common\Item.h
; File C:\IAGOS\server\v18\Source\Source\_Network\Misc\Include\ar.h
; File C:\IAGOS\server\v18\Source\Source\_Common\Item.h
; File C:\IAGOS\server\v18\Source\Source\_Network\Misc\Include\ar.h
; File C:\IAGOS\server\v18\Source\Source\_Common\Item.h
; File C:\IAGOS\server\v18\Source\Source\_Network\Misc\Include\ar.h
; File C:\IAGOS\server\v18\Source\Source\_Common\Item.h
;	COMDAT ?Serialize@?$CItemContainer@VCItemElem@@@@QAEXAAVCAr@@@Z
_TEXT	SEGMENT
_nBufSize$1 = -532					; size = 4
tv624 = -528						; size = 4
_uOffset$1$ = -524					; size = 4
_ar$GSCopy$1$ = -524					; size = 4
$T2 = -520						; size = 1
_ch$3 = -519						; size = 1
$T4 = -519						; size = 1
_chSize$1$ = -518					; size = 1
_chSize$ = -517						; size = 1
_ch$5 = -517						; size = 1
_adwObjIndex$ = -516					; size = 512
__$ArrayPad$ = -4					; size = 4
_ar$ = 8						; size = 4
?Serialize@?$CItemContainer@VCItemElem@@@@QAEXAAVCAr@@@Z PROC ; CItemContainer<CItemElem>::Serialize, COMDAT
; _this$ = ecx

; 895  : {

  00000	55		 push	 ebp
  00001	8b ec		 mov	 ebp, esp
  00003	81 ec 14 02 00
	00		 sub	 esp, 532		; 00000214H
  00009	a1 00 00 00 00	 mov	 eax, DWORD PTR ___security_cookie
  0000e	33 c5		 xor	 eax, ebp
  00010	89 45 fc	 mov	 DWORD PTR __$ArrayPad$[ebp], eax
  00013	53		 push	 ebx
  00014	56		 push	 esi
  00015	8b f1		 mov	 esi, ecx

; 896  : 	DWORD	adwObjIndex[128];
; 897  : 
; 898  : 	unsigned char chSize	= 0;

  00017	32 db		 xor	 bl, bl
  00019	57		 push	 edi
  0001a	8b 7d 08	 mov	 edi, DWORD PTR _ar$[ebp]
  0001d	89 bd f4 fd ff
	ff		 mov	 DWORD PTR _ar$GSCopy$1$[ebp], edi
; File C:\IAGOS\server\v18\Source\Source\_Network\Misc\Include\ar.h

; 146  : 	return (m_nMode & CAr::load) == 0;

  00023	8b 46 0c	 mov	 eax, DWORD PTR [esi+12]
  00026	8b 4e 04	 mov	 ecx, DWORD PTR [esi+4]
  00029	c1 e0 02	 shl	 eax, 2
  0002c	f6 07 01	 test	 BYTE PTR [edi], 1
; File C:\IAGOS\server\v18\Source\Source\_Common\Item.h

; 900  : 	if( ar.IsStoring() )

  0002f	50		 push	 eax
  00030	51		 push	 ecx
  00031	88 9d fa fd ff
	ff		 mov	 BYTE PTR _chSize$1$[ebp], bl
  00037	8b cf		 mov	 ecx, edi
  00039	88 9d fb fd ff
	ff		 mov	 BYTE PTR _chSize$[ebp], bl
  0003f	0f 85 08 01 00
	00		 jne	 $LN14@Serialize

; 901  : 	{
; 902  : 		
; 903  : 		ar.Write( m_apIndex, sizeof(DWORD) * m_dwItemMax );

  00045	e8 00 00 00 00	 call	 ?Write@CAr@@QAEXPBXI@Z	; CAr::Write
; File C:\IAGOS\server\v18\Source\Source\_Network\Misc\Include\ar.h

; 356  : 	return( m_lpBufCur - m_lpBufStart );

  0004a	8b 47 08	 mov	 eax, DWORD PTR [edi+8]
; File C:\IAGOS\server\v18\Source\Source\_Common\Item.h

; 906  : 		ar << chSize;

  0004d	8b cf		 mov	 ecx, edi
; File C:\IAGOS\server\v18\Source\Source\_Network\Misc\Include\ar.h

; 356  : 	return( m_lpBufCur - m_lpBufStart );

  0004f	2b 47 10	 sub	 eax, DWORD PTR [edi+16]
  00052	89 85 f4 fd ff
	ff		 mov	 DWORD PTR _uOffset$1$[ebp], eax
; File C:\IAGOS\server\v18\Source\Source\_Common\Item.h

; 906  : 		ar << chSize;

  00058	8d 85 fb fd ff
	ff		 lea	 eax, DWORD PTR _chSize$[ebp]
  0005e	50		 push	 eax
  0005f	e8 00 00 00 00	 call	 ??$?6E@CAr@@QAEAAV0@ABE@Z ; CAr::operator<<<unsigned char>

; 907  : 
; 908  : 		for( u_char ch = 0; ch < m_dwItemMax; ch++ )	// 0-504

  00064	8b 56 0c	 mov	 edx, DWORD PTR [esi+12]
  00067	88 9d fb fd ff
	ff		 mov	 BYTE PTR _ch$5[ebp], bl
  0006d	85 d2		 test	 edx, edx
  0006f	0f 84 98 00 00
	00		 je	 $LN3@Serialize
  00075	32 c9		 xor	 cl, cl
  00077	32 d2		 xor	 dl, dl
  00079	88 8d f8 fd ff
	ff		 mov	 BYTE PTR $T2[ebp], cl
  0007f	eb 06		 jmp	 SHORT $LN4@Serialize
$LL41@Serialize:
  00081	8a 95 f9 fd ff
	ff		 mov	 dl, BYTE PTR $T4[ebp]
$LN4@Serialize:

; 909  : 		{
; 910  : 			if( m_apItem[ch].IsEmpty() == FALSE )

  00087	0f b6 c3	 movzx	 eax, bl

; 50   : 	BOOL			IsEmpty() { return m_dwItemId ? FALSE : TRUE; }

  0008a	69 d8 b0 00 00
	00		 imul	 ebx, eax, 176

; 909  : 		{
; 910  : 			if( m_apItem[ch].IsEmpty() == FALSE )

  00090	89 85 f0 fd ff
	ff		 mov	 DWORD PTR tv624[ebp], eax
  00096	0f b6 c1	 movzx	 eax, cl
  00099	69 c8 b0 00 00
	00		 imul	 ecx, eax, 176

; 50   : 	BOOL			IsEmpty() { return m_dwItemId ? FALSE : TRUE; }

  0009f	8b 46 10	 mov	 eax, DWORD PTR [esi+16]
  000a2	83 7c 01 0c 00	 cmp	 DWORD PTR [ecx+eax+12], 0

; 909  : 		{
; 910  : 			if( m_apItem[ch].IsEmpty() == FALSE )

  000a7	74 25		 je	 SHORT $LN40@Serialize

; 911  : 			{
; 912  : 				ar << ch;

  000a9	8d 85 fb fd ff
	ff		 lea	 eax, DWORD PTR _ch$5[ebp]
  000af	8b cf		 mov	 ecx, edi
  000b1	50		 push	 eax
  000b2	e8 00 00 00 00	 call	 ??$?6E@CAr@@QAEAAV0@ABE@Z ; CAr::operator<<<unsigned char>

; 913  : 				m_apItem[ch].Serialize( ar );

  000b7	8b 4e 10	 mov	 ecx, DWORD PTR [esi+16]
  000ba	03 cb		 add	 ecx, ebx
  000bc	57		 push	 edi
  000bd	8b 01		 mov	 eax, DWORD PTR [ecx]
  000bf	ff 50 08	 call	 DWORD PTR [eax+8]

; 914  : 				chSize++;

  000c2	fe 85 fa fd ff
	ff		 inc	 BYTE PTR _chSize$1$[ebp]
  000c8	8a 95 f8 fd ff
	ff		 mov	 dl, BYTE PTR $T2[ebp]
$LN40@Serialize:

; 915  : 			}
; 916  : 			adwObjIndex[ch]		= m_apItem[ch].m_dwObjIndex;

  000ce	8b 46 10	 mov	 eax, DWORD PTR [esi+16]
  000d1	8b 8d f0 fd ff
	ff		 mov	 ecx, DWORD PTR tv624[ebp]
  000d7	8b 44 18 08	 mov	 eax, DWORD PTR [eax+ebx+8]
  000db	89 84 8d fc fd
	ff ff		 mov	 DWORD PTR _adwObjIndex$[ebp+ecx*4], eax
  000e2	8d 4a 01	 lea	 ecx, DWORD PTR [edx+1]
  000e5	8b 56 0c	 mov	 edx, DWORD PTR [esi+12]
  000e8	8a d9		 mov	 bl, cl
  000ea	0f b6 c1	 movzx	 eax, cl
  000ed	88 8d fb fd ff
	ff		 mov	 BYTE PTR _ch$5[ebp], cl
  000f3	88 8d f9 fd ff
	ff		 mov	 BYTE PTR $T4[ebp], cl
  000f9	88 8d f8 fd ff
	ff		 mov	 BYTE PTR $T2[ebp], cl
  000ff	3b c2		 cmp	 eax, edx
  00101	0f 82 7a ff ff
	ff		 jb	 $LL41@Serialize
  00107	8a 9d fa fd ff
	ff		 mov	 bl, BYTE PTR _chSize$1$[ebp]
$LN3@Serialize:

; 917  : 		}
; 918  : 
; 919  : 		ar.Write( adwObjIndex, sizeof(DWORD) * m_dwItemMax );

  0010d	8d 04 95 00 00
	00 00		 lea	 eax, DWORD PTR [edx*4]
  00114	8b cf		 mov	 ecx, edi
  00116	50		 push	 eax
  00117	8d 85 fc fd ff
	ff		 lea	 eax, DWORD PTR _adwObjIndex$[ebp]
  0011d	50		 push	 eax
  0011e	e8 00 00 00 00	 call	 ?Write@CAr@@QAEXPBXI@Z	; CAr::Write

; 920  : 
; 921  : 		int nBufSize;
; 922  : 		LPBYTE lpBuf	= ar.GetBuffer( &nBufSize );

  00123	8d 85 ec fd ff
	ff		 lea	 eax, DWORD PTR _nBufSize$1[ebp]
  00129	8b cf		 mov	 ecx, edi
  0012b	50		 push	 eax
  0012c	e8 00 00 00 00	 call	 ?GetBuffer@CAr@@QAEPAEPAH@Z ; CAr::GetBuffer

; 923  : 		*( lpBuf + uOffset )	= chSize;

  00131	8b 8d f4 fd ff
	ff		 mov	 ecx, DWORD PTR _uOffset$1$[ebp]
  00137	5f		 pop	 edi

; 945  : 		}
; 946  : 	}
; 947  : }

  00138	5e		 pop	 esi
  00139	88 1c 08	 mov	 BYTE PTR [eax+ecx], bl
  0013c	5b		 pop	 ebx
  0013d	8b 4d fc	 mov	 ecx, DWORD PTR __$ArrayPad$[ebp]
  00140	33 cd		 xor	 ecx, ebp
  00142	e8 00 00 00 00	 call	 @__security_check_cookie@4
  00147	8b e5		 mov	 esp, ebp
  00149	5d		 pop	 ebp
  0014a	c2 04 00	 ret	 4
$LN14@Serialize:

; 924  : 	}
; 925  : 	else
; 926  : 	{
; 927  : 		ar.Read( m_apIndex, sizeof(DWORD) * m_dwItemMax );

  0014d	e8 00 00 00 00	 call	 ?Read@CAr@@QAEXPAXI@Z	; CAr::Read

; 928  : 		// Clear
; 929  : 		for( u_long i = 0; i < m_dwItemMax; i++ )

  00152	83 7e 0c 00	 cmp	 DWORD PTR [esi+12], 0
  00156	76 24		 jbe	 SHORT $LN6@Serialize

; 924  : 	}
; 925  : 	else
; 926  : 	{
; 927  : 		ar.Read( m_apIndex, sizeof(DWORD) * m_dwItemMax );

  00158	33 db		 xor	 ebx, ebx
  0015a	33 ff		 xor	 edi, edi
  0015c	0f 1f 40 00	 npad	 4
$LL7@Serialize:

; 930  : 			m_apItem[i].Empty();

  00160	8b 4e 10	 mov	 ecx, DWORD PTR [esi+16]
  00163	03 cb		 add	 ecx, ebx
  00165	8b 01		 mov	 eax, DWORD PTR [ecx]
  00167	ff 50 0c	 call	 DWORD PTR [eax+12]
  0016a	47		 inc	 edi
  0016b	81 c3 b0 00 00
	00		 add	 ebx, 176		; 000000b0H
  00171	3b 7e 0c	 cmp	 edi, DWORD PTR [esi+12]
  00174	72 ea		 jb	 SHORT $LL7@Serialize
  00176	8b bd f4 fd ff
	ff		 mov	 edi, DWORD PTR _ar$GSCopy$1$[ebp]
$LN6@Serialize:

; 931  : 
; 932  : 		ar >> chSize;

  0017c	8d 85 fb fd ff
	ff		 lea	 eax, DWORD PTR _chSize$[ebp]
  00182	8b cf		 mov	 ecx, edi
  00184	50		 push	 eax
  00185	e8 00 00 00 00	 call	 ??$?5E@CAr@@QAEAAV0@AAE@Z ; CAr::operator>><unsigned char>

; 933  : 
; 934  : 		unsigned char ch;
; 935  : 		for( int i = 0; i < chSize; i++ )

  0018a	0f b6 9d fb fd
	ff ff		 movzx	 ebx, BYTE PTR _chSize$[ebp]
  00191	85 db		 test	 ebx, ebx
  00193	74 29		 je	 SHORT $LN9@Serialize
$LL10@Serialize:

; 936  : 		{
; 937  : 			ar >> ch;

  00195	8d 85 f9 fd ff
	ff		 lea	 eax, DWORD PTR _ch$3[ebp]
  0019b	8b cf		 mov	 ecx, edi
  0019d	50		 push	 eax
  0019e	e8 00 00 00 00	 call	 ??$?5E@CAr@@QAEAAV0@AAE@Z ; CAr::operator>><unsigned char>

; 938  : 			m_apItem[ch].Serialize( ar );

  001a3	0f b6 85 f9 fd
	ff ff		 movzx	 eax, BYTE PTR _ch$3[ebp]
  001aa	69 c8 b0 00 00
	00		 imul	 ecx, eax, 176
  001b0	57		 push	 edi
  001b1	03 4e 10	 add	 ecx, DWORD PTR [esi+16]
  001b4	8b 01		 mov	 eax, DWORD PTR [ecx]
  001b6	ff 50 08	 call	 DWORD PTR [eax+8]
  001b9	83 eb 01	 sub	 ebx, 1
  001bc	75 d7		 jne	 SHORT $LL10@Serialize
$LN9@Serialize:

; 939  : 		}
; 940  : 
; 941  : 		ar.Read( adwObjIndex, sizeof(DWORD) * m_dwItemMax );

  001be	8b 46 0c	 mov	 eax, DWORD PTR [esi+12]
  001c1	8b cf		 mov	 ecx, edi
  001c3	c1 e0 02	 shl	 eax, 2
  001c6	50		 push	 eax
  001c7	8d 85 fc fd ff
	ff		 lea	 eax, DWORD PTR _adwObjIndex$[ebp]
  001cd	50		 push	 eax
  001ce	e8 00 00 00 00	 call	 ?Read@CAr@@QAEXPAXI@Z	; CAr::Read

; 942  : 		for( DWORD i = 0; i < m_dwItemMax; i++ )

  001d3	33 d2		 xor	 edx, edx
  001d5	39 56 0c	 cmp	 DWORD PTR [esi+12], edx
  001d8	76 23		 jbe	 SHORT $LN12@Serialize

; 939  : 		}
; 940  : 
; 941  : 		ar.Read( adwObjIndex, sizeof(DWORD) * m_dwItemMax );

  001da	33 ff		 xor	 edi, edi
  001dc	0f 1f 40 00	 npad	 4
$LL13@Serialize:

; 943  : 		{
; 944  : 			m_apItem[i].m_dwObjIndex	= adwObjIndex[i];

  001e0	8b 4e 10	 mov	 ecx, DWORD PTR [esi+16]
  001e3	8d bf b0 00 00
	00		 lea	 edi, DWORD PTR [edi+176]
  001e9	8b 84 95 fc fd
	ff ff		 mov	 eax, DWORD PTR _adwObjIndex$[ebp+edx*4]
  001f0	42		 inc	 edx
  001f1	89 84 0f 58 ff
	ff ff		 mov	 DWORD PTR [edi+ecx-168], eax
  001f8	3b 56 0c	 cmp	 edx, DWORD PTR [esi+12]
  001fb	72 e3		 jb	 SHORT $LL13@Serialize
$LN12@Serialize:

; 945  : 		}
; 946  : 	}
; 947  : }

  001fd	8b 4d fc	 mov	 ecx, DWORD PTR __$ArrayPad$[ebp]
  00200	5f		 pop	 edi
  00201	5e		 pop	 esi
  00202	33 cd		 xor	 ecx, ebp
  00204	5b		 pop	 ebx
  00205	e8 00 00 00 00	 call	 @__security_check_cookie@4
  0020a	8b e5		 mov	 esp, ebp
  0020c	5d		 pop	 ebp
  0020d	c2 04 00	 ret	 4
?Serialize@?$CItemContainer@VCItemElem@@@@QAEXAAVCAr@@@Z ENDP ; CItemContainer<CItemElem>::Serialize
_TEXT	ENDS
; Function compile flags: /Ogtp
; File C:\IAGOS\server\v18\Source\Source\_Common\Item.h
;	COMDAT ?GetAtId@?$CItemContainer@VCItemElem@@@@QAEPAVCItemElem@@K@Z
_TEXT	SEGMENT
_dwId$ = 8						; size = 4
?GetAtId@?$CItemContainer@VCItemElem@@@@QAEPAVCItemElem@@K@Z PROC ; CItemContainer<CItemElem>::GetAtId, COMDAT
; _this$ = ecx

; 518  : {

  00000	55		 push	 ebp
  00001	8b ec		 mov	 ebp, esp

; 519  : 	if( dwId >= (DWORD)( GetMax() ) ) return NULL;

  00003	8b 45 08	 mov	 eax, DWORD PTR _dwId$[ebp]
  00006	3b 41 0c	 cmp	 eax, DWORD PTR [ecx+12]
  00009	73 15		 jae	 SHORT $LN7@GetAtId

; 520  : 	T* pItemElem = &m_apItem[ dwId ];

  0000b	69 c0 b0 00 00
	00		 imul	 eax, eax, 176
  00011	03 41 10	 add	 eax, DWORD PTR [ecx+16]

; 50   : 	BOOL			IsEmpty() { return m_dwItemId ? FALSE : TRUE; }

  00014	33 c9		 xor	 ecx, ecx
  00016	39 48 0c	 cmp	 DWORD PTR [eax+12], ecx
  00019	0f 44 c1	 cmove	 eax, ecx

; 523  : 	return pItemElem;
; 524  : }

  0001c	5d		 pop	 ebp
  0001d	c2 04 00	 ret	 4
$LN7@GetAtId:

; 521  : 	if( pItemElem->IsEmpty() ) 
; 522  : 		return NULL;

  00020	33 c0		 xor	 eax, eax

; 523  : 	return pItemElem;
; 524  : }

  00022	5d		 pop	 ebp
  00023	c2 04 00	 ret	 4
?GetAtId@?$CItemContainer@VCItemElem@@@@QAEPAVCItemElem@@K@Z ENDP ; CItemContainer<CItemElem>::GetAtId
_TEXT	ENDS
; Function compile flags: /Ogtp
; File C:\IAGOS\server\v18\Source\Source\_Common\Item.h
;	COMDAT ?GetEquip@?$CItemContainer@VCItemElem@@@@QAEPAVCItemElem@@K@Z
_TEXT	SEGMENT
_dwIndex$ = 8						; size = 4
?GetEquip@?$CItemContainer@VCItemElem@@@@QAEPAVCItemElem@@K@Z PROC ; CItemContainer<CItemElem>::GetEquip, COMDAT
; _this$ = ecx

; 618  : {

  00000	55		 push	 ebp
  00001	8b ec		 mov	 ebp, esp

; 619  : 	if( m_dwIndexNum )

  00003	8b 41 08	 mov	 eax, DWORD PTR [ecx+8]
  00006	85 c0		 test	 eax, eax
  00008	74 30		 je	 SHORT $LN2@GetEquip

; 620  : 	{
; 621  : 		if( dwIndex < 0 || dwIndex >= ( m_dwItemMax - m_dwIndexNum ) )

  0000a	8b 51 0c	 mov	 edx, DWORD PTR [ecx+12]
  0000d	56		 push	 esi
  0000e	8b 75 08	 mov	 esi, DWORD PTR _dwIndex$[ebp]
  00011	2b d0		 sub	 edx, eax
  00013	3b f2		 cmp	 esi, edx
  00015	73 0c		 jae	 SHORT $LN6@GetEquip

; 625  : 		}
; 626  : 		return GetAt( m_dwIndexNum + dwIndex );

  00017	03 c6		 add	 eax, esi
  00019	5e		 pop	 esi
  0001a	89 45 08	 mov	 DWORD PTR _dwIndex$[ebp], eax

; 629  : }

  0001d	5d		 pop	 ebp

; 625  : 		}
; 626  : 		return GetAt( m_dwIndexNum + dwIndex );

  0001e	e9 00 00 00 00	 jmp	 ?GetAt@?$CItemContainer@VCItemElem@@@@QAEPAVCItemElem@@K@Z ; CItemContainer<CItemElem>::GetAt
$LN6@GetEquip:

; 622  : 		{
; 623  : 			WriteError( "GETEQUIP//%d, %d, %d", m_dwIndexNum, m_dwItemMax - m_dwIndexNum, dwIndex );

  00023	56		 push	 esi
  00024	52		 push	 edx
  00025	50		 push	 eax
  00026	68 00 00 00 00	 push	 OFFSET ??_C@_0BF@OJMCJNHH@GETEQUIP?1?1?$CFd?0?5?$CFd?0?5?$CFd@
  0002b	e8 00 00 00 00	 call	 ?WriteError@@YAXPBDZZ	; WriteError
  00030	83 c4 10	 add	 esp, 16			; 00000010H

; 624  : 			return NULL;

  00033	33 c0		 xor	 eax, eax
  00035	5e		 pop	 esi

; 629  : }

  00036	5d		 pop	 ebp
  00037	c2 04 00	 ret	 4
$LN2@GetEquip:

; 627  : 	}
; 628  : 	return NULL;

  0003a	33 c0		 xor	 eax, eax

; 629  : }

  0003c	5d		 pop	 ebp
  0003d	c2 04 00	 ret	 4
?GetEquip@?$CItemContainer@VCItemElem@@@@QAEPAVCItemElem@@K@Z ENDP ; CItemContainer<CItemElem>::GetEquip
_TEXT	ENDS
; Function compile flags: /Ogtp
; File C:\IAGOS\server\v18\Source\Source\_Common\Item.h
;	COMDAT ?GetAt@?$CItemContainer@VCItemElem@@@@QAEPAVCItemElem@@K@Z
_TEXT	SEGMENT
_dwIndex$ = 8						; size = 4
?GetAt@?$CItemContainer@VCItemElem@@@@QAEPAVCItemElem@@K@Z PROC ; CItemContainer<CItemElem>::GetAt, COMDAT
; _this$ = ecx

; 821  : {

  00000	55		 push	 ebp
  00001	8b ec		 mov	 ebp, esp

; 822  : 	DWORD dwIdx = m_apIndex[ dwIndex ];

  00003	8b 51 04	 mov	 edx, DWORD PTR [ecx+4]
  00006	8b 45 08	 mov	 eax, DWORD PTR _dwIndex$[ebp]
  00009	8b 04 82	 mov	 eax, DWORD PTR [edx+eax*4]

; 823  : 	if( dwIdx == NULL_ID )

  0000c	83 f8 ff	 cmp	 eax, -1
  0000f	74 15		 je	 SHORT $LN7@GetAt

; 824  : 		return NULL;
; 825  : 	T* pItemElem = &m_apItem[ dwIdx ];

  00011	69 c0 b0 00 00
	00		 imul	 eax, eax, 176
  00017	03 41 10	 add	 eax, DWORD PTR [ecx+16]

; 50   : 	BOOL			IsEmpty() { return m_dwItemId ? FALSE : TRUE; }

  0001a	33 c9		 xor	 ecx, ecx
  0001c	39 48 0c	 cmp	 DWORD PTR [eax+12], ecx
  0001f	0f 44 c1	 cmove	 eax, ecx

; 828  : 	return pItemElem;
; 829  : }

  00022	5d		 pop	 ebp
  00023	c2 04 00	 ret	 4
$LN7@GetAt:

; 826  : 	if( pItemElem->IsEmpty() ) 
; 827  : 		return NULL;

  00026	33 c0		 xor	 eax, eax

; 828  : 	return pItemElem;
; 829  : }

  00028	5d		 pop	 ebp
  00029	c2 04 00	 ret	 4
?GetAt@?$CItemContainer@VCItemElem@@@@QAEPAVCItemElem@@K@Z ENDP ; CItemContainer<CItemElem>::GetAt
_TEXT	ENDS
; Function compile flags: /Ogtp
; File C:\IAGOS\server\v18\Source\Source\_common\ObjSerializeOpt.cpp
; File C:\IAGOS\server\v18\Source\Source\_Network\Misc\Include\ar.h
; File C:\IAGOS\server\v18\Source\Source\_common\ObjSerializeOpt.cpp
; File C:\IAGOS\server\v18\Source\Source\_Network\Misc\Include\ar.h
; File C:\IAGOS\server\v18\Source\Source\_common\ObjSerializeOpt.cpp
;	COMDAT ?Serialize@CObj@@UAEXAAVCAr@@@Z
_TEXT	SEGMENT
_ar$ = 8						; size = 4
_u2$1 = 8						; size = 2
_i2$2 = 8						; size = 2
$T3 = 8							; size = 2
$T4 = 8							; size = 2
$T5 = 11						; size = 1
?Serialize@CObj@@UAEXAAVCAr@@@Z PROC			; CObj::Serialize, COMDAT
; _this$ = ecx

; 19   : {

  00000	55		 push	 ebp
  00001	8b ec		 mov	 ebp, esp
  00003	53		 push	 ebx
  00004	56		 push	 esi
  00005	57		 push	 edi
; File C:\IAGOS\server\v18\Source\Source\_Network\Misc\Include\ar.h

; 146  : 	return (m_nMode & CAr::load) == 0;

  00006	8b 7d 08	 mov	 edi, DWORD PTR _ar$[ebp]
; File C:\IAGOS\server\v18\Source\Source\_common\ObjSerializeOpt.cpp

; 19   : {

  00009	8b f1		 mov	 esi, ecx
; File C:\IAGOS\server\v18\Source\Source\_Network\Misc\Include\ar.h

; 146  : 	return (m_nMode & CAr::load) == 0;

  0000b	f6 07 01	 test	 BYTE PTR [edi], 1
  0000e	8d 9e 60 01 00
	00		 lea	 ebx, DWORD PTR [esi+352]
  00014	8d 8e 70 01 00
	00		 lea	 ecx, DWORD PTR [esi+368]
; File C:\IAGOS\server\v18\Source\Source\_common\ObjSerializeOpt.cpp

; 20   : 	if( ar.IsStoring() )

  0001a	75 71		 jne	 SHORT $LN2@Serialize

; 21   : 	{
; 22   : 		ar << (u_char)m_dwType;

  0001c	8a 01		 mov	 al, BYTE PTR [ecx]
  0001e	8b cf		 mov	 ecx, edi
  00020	88 45 0b	 mov	 BYTE PTR $T5[ebp], al
  00023	8d 45 0b	 lea	 eax, DWORD PTR $T5[ebp]
  00026	50		 push	 eax
  00027	e8 00 00 00 00	 call	 ??$?6E@CAr@@QAEAAV0@ABE@Z ; CAr::operator<<<unsigned char>

; 23   : 
; 24   : 		// mirchang_100513 type cast fix
; 25   : 		//ar << (u_short)m_dwIndex;
; 26   : 		ar << m_dwIndex;

  0002c	8d 86 74 01 00
	00		 lea	 eax, DWORD PTR [esi+372]
  00032	8b cf		 mov	 ecx, edi
  00034	50		 push	 eax
  00035	e8 00 00 00 00	 call	 ??$?6K@CAr@@QAEAAV0@ABK@Z ; CAr::operator<<<unsigned long>

; 27   : 		// mirchang_100513 type cast fix
; 28   : 
; 29   : 		ar << (u_short)( m_vScale.x * 100.0f );

  0003a	f3 0f 10 46 0c	 movss	 xmm0, DWORD PTR [esi+12]
  0003f	8b cf		 mov	 ecx, edi
  00041	f3 0f 59 05 00
	00 00 00	 mulss	 xmm0, DWORD PTR __real@42c80000
  00049	f3 0f 2c c0	 cvttss2si eax, xmm0
  0004d	0f b7 c0	 movzx	 eax, ax
  00050	89 45 08	 mov	 DWORD PTR $T4[ebp], eax
  00053	8d 45 08	 lea	 eax, DWORD PTR $T4[ebp]
  00056	50		 push	 eax
  00057	e8 00 00 00 00	 call	 ??$?6G@CAr@@QAEAAV0@ABG@Z ; CAr::operator<<<unsigned short>

; 30   : 		ar << m_vPos;

  0005c	53		 push	 ebx
  0005d	8b cf		 mov	 ecx, edi
  0005f	e8 00 00 00 00	 call	 ??$?6UD3DXVECTOR3@@@CAr@@QAEAAV0@ABUD3DXVECTOR3@@@Z ; CAr::operator<<<D3DXVECTOR3>

; 31   : 		ar << (short)( m_fAngle * 10.0f );

  00064	f3 0f 10 46 18	 movss	 xmm0, DWORD PTR [esi+24]
  00069	8b cf		 mov	 ecx, edi
  0006b	f3 0f 59 05 00
	00 00 00	 mulss	 xmm0, DWORD PTR __real@41200000
  00073	f3 0f 2c c0	 cvttss2si eax, xmm0
  00077	0f b7 c0	 movzx	 eax, ax
  0007a	89 45 08	 mov	 DWORD PTR $T3[ebp], eax
  0007d	8d 45 08	 lea	 eax, DWORD PTR $T3[ebp]
  00080	50		 push	 eax
  00081	e8 00 00 00 00	 call	 ??$?6F@CAr@@QAEAAV0@ABF@Z ; CAr::operator<<<short>
  00086	5f		 pop	 edi

; 58   : 	#endif	// __WORLDSERVER
; 59   : 	}
; 60   : }

  00087	5e		 pop	 esi
  00088	5b		 pop	 ebx
  00089	5d		 pop	 ebp
  0008a	c2 04 00	 ret	 4
$LN2@Serialize:

; 32   : 	}
; 33   : 	else
; 34   : 	{
; 35   : 		u_short u2;
; 36   : 		short i2;
; 37   : 		m_dwType = m_dwIndex = 0; 

  0008d	c7 01 00 00 00
	00		 mov	 DWORD PTR [ecx], 0

; 38   : 		
; 39   : 		ar >> (u_char&)m_dwType;				// m_dwType

  00093	51		 push	 ecx
  00094	8b cf		 mov	 ecx, edi
  00096	c7 86 74 01 00
	00 00 00 00 00	 mov	 DWORD PTR [esi+372], 0
  000a0	e8 00 00 00 00	 call	 ??$?5E@CAr@@QAEAAV0@AAE@Z ; CAr::operator>><unsigned char>

; 40   : 
; 41   : 		// mirchang_100513 type cast fix
; 42   : 		//ar >> u2;								// m_dwIndex
; 43   : 		//m_dwIndex	= (DWORD)u2;
; 44   : 		ar >> m_dwIndex;

  000a5	8d 86 74 01 00
	00		 lea	 eax, DWORD PTR [esi+372]
  000ab	8b cf		 mov	 ecx, edi
  000ad	50		 push	 eax
  000ae	e8 00 00 00 00	 call	 ??$?5K@CAr@@QAEAAV0@AAK@Z ; CAr::operator>><unsigned long>

; 45   : 		// mirchang_100513 type cast fix
; 46   : 
; 47   : 		ar >> u2;								// m_vScale.x * 100.0f

  000b3	8d 45 08	 lea	 eax, DWORD PTR _u2$1[ebp]
  000b6	8b cf		 mov	 ecx, edi
  000b8	50		 push	 eax
  000b9	e8 00 00 00 00	 call	 ??$?5G@CAr@@QAEAAV0@AAG@Z ; CAr::operator>><unsigned short>

; 48   : 		m_vScale.x	=	m_vScale.y	=	m_vScale.z	= (float)u2 / 100.0f;

  000be	0f b7 45 08	 movzx	 eax, WORD PTR _u2$1[ebp]

; 49   : 		ar >> m_vPos;							// m_vPos

  000c2	8b cf		 mov	 ecx, edi
  000c4	53		 push	 ebx
  000c5	66 0f 6e c0	 movd	 xmm0, eax
  000c9	0f 5b c0	 cvtdq2ps xmm0, xmm0
  000cc	f3 0f 5e 05 00
	00 00 00	 divss	 xmm0, DWORD PTR __real@42c80000
  000d4	f3 0f 11 46 14	 movss	 DWORD PTR [esi+20], xmm0
  000d9	f3 0f 11 46 10	 movss	 DWORD PTR [esi+16], xmm0
  000de	f3 0f 11 46 0c	 movss	 DWORD PTR [esi+12], xmm0
  000e3	e8 00 00 00 00	 call	 ??$?5UD3DXVECTOR3@@@CAr@@QAEAAV0@AAUD3DXVECTOR3@@@Z ; CAr::operator>><D3DXVECTOR3>

; 50   : 		ar >> i2;								// m_fAngle * 10.0f

  000e8	8d 45 08	 lea	 eax, DWORD PTR _i2$2[ebp]
  000eb	8b cf		 mov	 ecx, edi
  000ed	50		 push	 eax
  000ee	e8 00 00 00 00	 call	 ??$?5F@CAr@@QAEAAV0@AAF@Z ; CAr::operator>><short>

; 51   : 		m_fAngle	= (float)i2 / 10.0f;

  000f3	0f bf 45 08	 movsx	 eax, WORD PTR _i2$2[ebp]

; 52   : 	#if defined(__WORLDSERVER) || defined(__CLIENT)
; 53   : 		SetAngle( m_fAngle );

  000f7	51		 push	 ecx
  000f8	8b ce		 mov	 ecx, esi
  000fa	66 0f 6e c0	 movd	 xmm0, eax
  000fe	0f 5b c0	 cvtdq2ps xmm0, xmm0
  00101	f3 0f 5e 05 00
	00 00 00	 divss	 xmm0, DWORD PTR __real@41200000
  00109	f3 0f 11 46 18	 movss	 DWORD PTR [esi+24], xmm0
  0010e	f3 0f 11 04 24	 movss	 DWORD PTR [esp], xmm0
  00113	e8 00 00 00 00	 call	 ?SetAngle@CObj@@QAEXM@Z	; CObj::SetAngle

; 54   : 	#endif
; 55   : 
; 56   : 	#ifdef __WORLDSERVER
; 57   : 		m_vLink		= m_vPos;

  00118	f3 0f 7e 03	 movq	 xmm0, QWORD PTR [ebx]
  0011c	8b 43 08	 mov	 eax, DWORD PTR [ebx+8]
  0011f	66 0f d6 86 ac
	01 00 00	 movq	 QWORD PTR [esi+428], xmm0
  00127	5f		 pop	 edi
  00128	89 86 b4 01 00
	00		 mov	 DWORD PTR [esi+436], eax

; 58   : 	#endif	// __WORLDSERVER
; 59   : 	}
; 60   : }

  0012e	5e		 pop	 esi
  0012f	5b		 pop	 ebx
  00130	5d		 pop	 ebp
  00131	c2 04 00	 ret	 4
?Serialize@CObj@@UAEXAAVCAr@@@Z ENDP			; CObj::Serialize
_TEXT	ENDS
; Function compile flags: /Ogtp
; File C:\IAGOS\server\v18\Source\Source\DX_SDK\d3dx9math.h
;	COMDAT ??0D3DXVECTOR3@@QAE@XZ
_TEXT	SEGMENT
??0D3DXVECTOR3@@QAE@XZ PROC				; D3DXVECTOR3::D3DXVECTOR3, COMDAT
; _this$ = ecx

; 165  :     D3DXVECTOR3() {};

  00000	8b c1		 mov	 eax, ecx
  00002	c3		 ret	 0
??0D3DXVECTOR3@@QAE@XZ ENDP				; D3DXVECTOR3::D3DXVECTOR3
_TEXT	ENDS
; Function compile flags: /Ogtp
; File C:\IAGOS\server\v18\Source\Source\_common\ObjSerializeOpt.cpp
;	COMDAT ?__empty_global_delete@@YAXPAXI@Z
_TEXT	SEGMENT
___formal$ = 8						; size = 4
___formal$ = 12						; size = 4
?__empty_global_delete@@YAXPAXI@Z PROC			; __empty_global_delete, COMDAT

  00000	c2 00 00	 ret	 0
?__empty_global_delete@@YAXPAXI@Z ENDP			; __empty_global_delete
_TEXT	ENDS
; Function compile flags: /Ogtp
; File C:\IAGOS\server\v18\Source\Source\_common\ObjSerializeOpt.cpp
;	COMDAT ?__empty_global_delete@@YAXPAX@Z
_TEXT	SEGMENT
___formal$ = 8						; size = 4
?__empty_global_delete@@YAXPAX@Z PROC			; __empty_global_delete, COMDAT

  00000	c2 00 00	 ret	 0
?__empty_global_delete@@YAXPAX@Z ENDP			; __empty_global_delete
_TEXT	ENDS
END
