; Listing generated by Microsoft (R) Optimizing Compiler Version 19.44.35225.0 

	TITLE	C:\IAGOS\server\v18\Source\Output\WorldServer\Release\ObjSerialize.obj
	.686P
	.XMM
	include listing.inc
	.model	flat

INCLUDELIB LIBCMT
INCLUDELIB OLDNAMES

PUBLIC	?__empty_global_delete@@YAXPAX@Z		; __empty_global_delete
PUBLIC	?__empty_global_delete@@YAXPAXI@Z		; __empty_global_delete
PUBLIC	?Serialize@CCtrl@@UAEXAAVCAr@@@Z		; CCtrl::Serialize
PUBLIC	?Serialize@CItemBase@@UAEXAAVCAr@@@Z		; CItemBase::Serialize
PUBLIC	?Serialize@CItemElem@@UAEXAAVCAr@@@Z		; CItemElem::Serialize
PUBLIC	?Serialize@CItem@@UAEXAAVCAr@@@Z		; CItem::Serialize
PUBLIC	??$?6K@CAr@@QAEAAV0@ABK@Z			; CAr::operator<<<unsigned long>
PUBLIC	??$?5K@CAr@@QAEAAV0@AAK@Z			; CAr::operator>><unsigned long>
PUBLIC	??$?6F@CAr@@QAEAAV0@ABF@Z			; CAr::operator<<<short>
PUBLIC	??$?6E@CAr@@QAEAAV0@ABE@Z			; CAr::operator<<<unsigned char>
PUBLIC	??$?6H@CAr@@QAEAAV0@ABH@Z			; CAr::operator<<<int>
PUBLIC	??$?6_J@CAr@@QAEAAV0@AB_J@Z			; CAr::operator<<<__int64>
PUBLIC	??$?6J@CAr@@QAEAAV0@ABJ@Z			; CAr::operator<<<long>
PUBLIC	??$?5F@CAr@@QAEAAV0@AAF@Z			; CAr::operator>><short>
PUBLIC	??$?5E@CAr@@QAEAAV0@AAE@Z			; CAr::operator>><unsigned char>
PUBLIC	??$?5H@CAr@@QAEAAV0@AAH@Z			; CAr::operator>><int>
PUBLIC	??$?5_J@CAr@@QAEAAV0@AA_J@Z			; CAr::operator>><__int64>
PUBLIC	??$?5J@CAr@@QAEAAV0@AAJ@Z			; CAr::operator>><long>
EXTRN	??2@YAPAXI@Z:PROC				; operator new
EXTRN	??3@YAXPAXI@Z:PROC				; operator delete
EXTRN	?Serialize@CObj@@UAEXAAVCAr@@@Z:PROC		; CObj::Serialize
EXTRN	??0CPet@@QAE@XZ:PROC				; CPet::CPet
EXTRN	?Serialize@CPet@@QAEXAAVCAr@@@Z:PROC		; CPet::Serialize
EXTRN	??0CItemElem@@QAE@XZ:PROC			; CItemElem::CItemElem
EXTRN	?CheckBuf@CAr@@QAEXI@Z:PROC			; CAr::CheckBuf
EXTRN	?WriteString@CAr@@QAEXPBD@Z:PROC		; CAr::WriteString
EXTRN	?ReadString@CAr@@QAEPADPADH@Z:PROC		; CAr::ReadString
EXTRN	@__security_check_cookie@4:PROC
EXTRN	___CxxFrameHandler3:PROC
EXTRN	?g_tCurrent@@3JA:DWORD				; g_tCurrent
EXTRN	___security_cookie:DWORD
;	COMDAT xdata$x
xdata$x	SEGMENT
__unwindtable$?Serialize@CItem@@UAEXAAVCAr@@@Z DD 0ffffffffH
	DD	FLAT:__unwindfunclet$?Serialize@CItem@@UAEXAAVCAr@@@Z$0
__ehfuncinfo$?Serialize@CItem@@UAEXAAVCAr@@@Z DD 019930522H
	DD	01H
	DD	FLAT:__unwindtable$?Serialize@CItem@@UAEXAAVCAr@@@Z
	DD	2 DUP(00H)
	DD	2 DUP(00H)
	DD	00H
	DD	01H
xdata$x	ENDS
;	COMDAT xdata$x
xdata$x	SEGMENT
__unwindtable$?Serialize@CItemElem@@UAEXAAVCAr@@@Z DD 0ffffffffH
	DD	FLAT:__unwindfunclet$?Serialize@CItemElem@@UAEXAAVCAr@@@Z$0
__ehfuncinfo$?Serialize@CItemElem@@UAEXAAVCAr@@@Z DD 019930522H
	DD	01H
	DD	FLAT:__unwindtable$?Serialize@CItemElem@@UAEXAAVCAr@@@Z
	DD	2 DUP(00H)
	DD	2 DUP(00H)
	DD	00H
	DD	01H
xdata$x	ENDS
; Function compile flags: /Ogtp
; File C:\IAGOS\server\v18\Source\Source\_Network\Misc\Include\ar.h
;	COMDAT ??$?5J@CAr@@QAEAAV0@AAJ@Z
_TEXT	SEGMENT
_t$ = 8							; size = 4
??$?5J@CAr@@QAEAAV0@AAJ@Z PROC				; CAr::operator>><long>, COMDAT
; _this$ = ecx

; 302  : {

  00000	55		 push	 ebp
  00001	8b ec		 mov	 ebp, esp
  00003	8b d1		 mov	 edx, ecx

; 303  : 	if (m_lpBufCur + sizeof(T) <= m_lpBufMax)

  00005	8b 4a 08	 mov	 ecx, DWORD PTR [edx+8]
  00008	8d 41 04	 lea	 eax, DWORD PTR [ecx+4]
  0000b	3b 42 0c	 cmp	 eax, DWORD PTR [edx+12]
  0000e	8b 45 08	 mov	 eax, DWORD PTR _t$[ebp]
  00011	77 0e		 ja	 SHORT $LN2@operator

; 304  : 	{
; 305  : 		t = *(UNALIGNED T*)m_lpBufCur;

  00013	8b 09		 mov	 ecx, DWORD PTR [ecx]
  00015	89 08		 mov	 DWORD PTR [eax], ecx

; 312  : 	}
; 313  : 	return *this;
; 314  : }

  00017	8b c2		 mov	 eax, edx
  00019	83 42 08 04	 add	 DWORD PTR [edx+8], 4
  0001d	5d		 pop	 ebp
  0001e	c2 04 00	 ret	 4
$LN2@operator:

; 306  : 		m_lpBufCur += sizeof(T);
; 307  : 	}
; 308  : 	else
; 309  : 	{
; 310  : 		t = T();

  00021	c7 00 00 00 00
	00		 mov	 DWORD PTR [eax], 0

; 311  : 		m_lpBufCur = m_lpBufMax;

  00027	8b 42 0c	 mov	 eax, DWORD PTR [edx+12]
  0002a	89 42 08	 mov	 DWORD PTR [edx+8], eax

; 312  : 	}
; 313  : 	return *this;
; 314  : }

  0002d	8b c2		 mov	 eax, edx
  0002f	5d		 pop	 ebp
  00030	c2 04 00	 ret	 4
??$?5J@CAr@@QAEAAV0@AAJ@Z ENDP				; CAr::operator>><long>
_TEXT	ENDS
; Function compile flags: /Ogtp
; File C:\IAGOS\server\v18\Source\Source\_Network\Misc\Include\ar.h
;	COMDAT ??$?5_J@CAr@@QAEAAV0@AA_J@Z
_TEXT	SEGMENT
_t$ = 8							; size = 4
??$?5_J@CAr@@QAEAAV0@AA_J@Z PROC			; CAr::operator>><__int64>, COMDAT
; _this$ = ecx

; 302  : {

  00000	55		 push	 ebp
  00001	8b ec		 mov	 ebp, esp
  00003	56		 push	 esi
  00004	8b f1		 mov	 esi, ecx

; 303  : 	if (m_lpBufCur + sizeof(T) <= m_lpBufMax)

  00006	8b 56 08	 mov	 edx, DWORD PTR [esi+8]
  00009	8d 42 08	 lea	 eax, DWORD PTR [edx+8]
  0000c	3b 46 0c	 cmp	 eax, DWORD PTR [esi+12]
  0000f	8b 45 08	 mov	 eax, DWORD PTR _t$[ebp]
  00012	77 15		 ja	 SHORT $LN2@operator

; 304  : 	{
; 305  : 		t = *(UNALIGNED T*)m_lpBufCur;

  00014	8b 0a		 mov	 ecx, DWORD PTR [edx]
  00016	8b 52 04	 mov	 edx, DWORD PTR [edx+4]
  00019	89 08		 mov	 DWORD PTR [eax], ecx
  0001b	89 50 04	 mov	 DWORD PTR [eax+4], edx

; 312  : 	}
; 313  : 	return *this;
; 314  : }

  0001e	8b c6		 mov	 eax, esi
  00020	83 46 08 08	 add	 DWORD PTR [esi+8], 8
  00024	5e		 pop	 esi
  00025	5d		 pop	 ebp
  00026	c2 04 00	 ret	 4
$LN2@operator:

; 306  : 		m_lpBufCur += sizeof(T);
; 307  : 	}
; 308  : 	else
; 309  : 	{
; 310  : 		t = T();

  00029	c7 00 00 00 00
	00		 mov	 DWORD PTR [eax], 0
  0002f	c7 40 04 00 00
	00 00		 mov	 DWORD PTR [eax+4], 0

; 311  : 		m_lpBufCur = m_lpBufMax;

  00036	8b 46 0c	 mov	 eax, DWORD PTR [esi+12]
  00039	89 46 08	 mov	 DWORD PTR [esi+8], eax

; 312  : 	}
; 313  : 	return *this;
; 314  : }

  0003c	8b c6		 mov	 eax, esi
  0003e	5e		 pop	 esi
  0003f	5d		 pop	 ebp
  00040	c2 04 00	 ret	 4
??$?5_J@CAr@@QAEAAV0@AA_J@Z ENDP			; CAr::operator>><__int64>
_TEXT	ENDS
; Function compile flags: /Ogtp
; File C:\IAGOS\server\v18\Source\Source\_Network\Misc\Include\ar.h
;	COMDAT ??$?5H@CAr@@QAEAAV0@AAH@Z
_TEXT	SEGMENT
_t$ = 8							; size = 4
??$?5H@CAr@@QAEAAV0@AAH@Z PROC				; CAr::operator>><int>, COMDAT
; _this$ = ecx

; 302  : {

  00000	55		 push	 ebp
  00001	8b ec		 mov	 ebp, esp
  00003	8b d1		 mov	 edx, ecx

; 303  : 	if (m_lpBufCur + sizeof(T) <= m_lpBufMax)

  00005	8b 4a 08	 mov	 ecx, DWORD PTR [edx+8]
  00008	8d 41 04	 lea	 eax, DWORD PTR [ecx+4]
  0000b	3b 42 0c	 cmp	 eax, DWORD PTR [edx+12]
  0000e	8b 45 08	 mov	 eax, DWORD PTR _t$[ebp]
  00011	77 0e		 ja	 SHORT $LN2@operator

; 304  : 	{
; 305  : 		t = *(UNALIGNED T*)m_lpBufCur;

  00013	8b 09		 mov	 ecx, DWORD PTR [ecx]
  00015	89 08		 mov	 DWORD PTR [eax], ecx

; 312  : 	}
; 313  : 	return *this;
; 314  : }

  00017	8b c2		 mov	 eax, edx
  00019	83 42 08 04	 add	 DWORD PTR [edx+8], 4
  0001d	5d		 pop	 ebp
  0001e	c2 04 00	 ret	 4
$LN2@operator:

; 306  : 		m_lpBufCur += sizeof(T);
; 307  : 	}
; 308  : 	else
; 309  : 	{
; 310  : 		t = T();

  00021	c7 00 00 00 00
	00		 mov	 DWORD PTR [eax], 0

; 311  : 		m_lpBufCur = m_lpBufMax;

  00027	8b 42 0c	 mov	 eax, DWORD PTR [edx+12]
  0002a	89 42 08	 mov	 DWORD PTR [edx+8], eax

; 312  : 	}
; 313  : 	return *this;
; 314  : }

  0002d	8b c2		 mov	 eax, edx
  0002f	5d		 pop	 ebp
  00030	c2 04 00	 ret	 4
??$?5H@CAr@@QAEAAV0@AAH@Z ENDP				; CAr::operator>><int>
_TEXT	ENDS
; Function compile flags: /Ogtp
; File C:\IAGOS\server\v18\Source\Source\_Network\Misc\Include\ar.h
;	COMDAT ??$?5E@CAr@@QAEAAV0@AAE@Z
_TEXT	SEGMENT
_t$ = 8							; size = 4
??$?5E@CAr@@QAEAAV0@AAE@Z PROC				; CAr::operator>><unsigned char>, COMDAT
; _this$ = ecx

; 302  : {

  00000	55		 push	 ebp
  00001	8b ec		 mov	 ebp, esp
  00003	8b d1		 mov	 edx, ecx

; 303  : 	if (m_lpBufCur + sizeof(T) <= m_lpBufMax)

  00005	8b 4a 08	 mov	 ecx, DWORD PTR [edx+8]
  00008	8d 41 01	 lea	 eax, DWORD PTR [ecx+1]
  0000b	3b 42 0c	 cmp	 eax, DWORD PTR [edx+12]
  0000e	8b 45 08	 mov	 eax, DWORD PTR _t$[ebp]
  00011	77 0d		 ja	 SHORT $LN2@operator

; 304  : 	{
; 305  : 		t = *(UNALIGNED T*)m_lpBufCur;

  00013	8a 09		 mov	 cl, BYTE PTR [ecx]
  00015	88 08		 mov	 BYTE PTR [eax], cl

; 312  : 	}
; 313  : 	return *this;
; 314  : }

  00017	8b c2		 mov	 eax, edx
  00019	ff 42 08	 inc	 DWORD PTR [edx+8]
  0001c	5d		 pop	 ebp
  0001d	c2 04 00	 ret	 4
$LN2@operator:

; 306  : 		m_lpBufCur += sizeof(T);
; 307  : 	}
; 308  : 	else
; 309  : 	{
; 310  : 		t = T();

  00020	c6 00 00	 mov	 BYTE PTR [eax], 0

; 311  : 		m_lpBufCur = m_lpBufMax;

  00023	8b 42 0c	 mov	 eax, DWORD PTR [edx+12]
  00026	89 42 08	 mov	 DWORD PTR [edx+8], eax

; 312  : 	}
; 313  : 	return *this;
; 314  : }

  00029	8b c2		 mov	 eax, edx
  0002b	5d		 pop	 ebp
  0002c	c2 04 00	 ret	 4
??$?5E@CAr@@QAEAAV0@AAE@Z ENDP				; CAr::operator>><unsigned char>
_TEXT	ENDS
; Function compile flags: /Ogtp
; File C:\IAGOS\server\v18\Source\Source\_Network\Misc\Include\ar.h
;	COMDAT ??$?5F@CAr@@QAEAAV0@AAF@Z
_TEXT	SEGMENT
_t$ = 8							; size = 4
??$?5F@CAr@@QAEAAV0@AAF@Z PROC				; CAr::operator>><short>, COMDAT
; _this$ = ecx

; 302  : {

  00000	55		 push	 ebp
  00001	8b ec		 mov	 ebp, esp
  00003	8b d1		 mov	 edx, ecx

; 303  : 	if (m_lpBufCur + sizeof(T) <= m_lpBufMax)

  00005	8b 4a 08	 mov	 ecx, DWORD PTR [edx+8]
  00008	8d 41 02	 lea	 eax, DWORD PTR [ecx+2]
  0000b	3b 42 0c	 cmp	 eax, DWORD PTR [edx+12]
  0000e	8b 45 08	 mov	 eax, DWORD PTR _t$[ebp]
  00011	77 10		 ja	 SHORT $LN2@operator

; 304  : 	{
; 305  : 		t = *(UNALIGNED T*)m_lpBufCur;

  00013	66 8b 09	 mov	 cx, WORD PTR [ecx]
  00016	66 89 08	 mov	 WORD PTR [eax], cx

; 312  : 	}
; 313  : 	return *this;
; 314  : }

  00019	8b c2		 mov	 eax, edx
  0001b	83 42 08 02	 add	 DWORD PTR [edx+8], 2
  0001f	5d		 pop	 ebp
  00020	c2 04 00	 ret	 4
$LN2@operator:

; 306  : 		m_lpBufCur += sizeof(T);
; 307  : 	}
; 308  : 	else
; 309  : 	{
; 310  : 		t = T();

  00023	33 c9		 xor	 ecx, ecx
  00025	66 89 08	 mov	 WORD PTR [eax], cx

; 311  : 		m_lpBufCur = m_lpBufMax;

  00028	8b 42 0c	 mov	 eax, DWORD PTR [edx+12]
  0002b	89 42 08	 mov	 DWORD PTR [edx+8], eax

; 312  : 	}
; 313  : 	return *this;
; 314  : }

  0002e	8b c2		 mov	 eax, edx
  00030	5d		 pop	 ebp
  00031	c2 04 00	 ret	 4
??$?5F@CAr@@QAEAAV0@AAF@Z ENDP				; CAr::operator>><short>
_TEXT	ENDS
; Function compile flags: /Ogtp
; File C:\IAGOS\server\v18\Source\Source\_Network\Misc\Include\ar.h
;	COMDAT ??$?6J@CAr@@QAEAAV0@ABJ@Z
_TEXT	SEGMENT
_t$ = 8							; size = 4
??$?6J@CAr@@QAEAAV0@ABJ@Z PROC				; CAr::operator<<<long>, COMDAT
; _this$ = ecx

; 255  : {

  00000	55		 push	 ebp
  00001	8b ec		 mov	 ebp, esp
  00003	56		 push	 esi

; 256  : 	CheckBuf(sizeof(T));

  00004	6a 04		 push	 4
  00006	8b f1		 mov	 esi, ecx
  00008	e8 00 00 00 00	 call	 ?CheckBuf@CAr@@QAEXI@Z	; CAr::CheckBuf

; 257  : 	*(UNALIGNED T*)m_lpBufCur = t;

  0000d	8b 56 08	 mov	 edx, DWORD PTR [esi+8]
  00010	8b 45 08	 mov	 eax, DWORD PTR _t$[ebp]
  00013	8b 00		 mov	 eax, DWORD PTR [eax]
  00015	89 02		 mov	 DWORD PTR [edx], eax

; 258  : 	m_lpBufCur += sizeof(T);
; 259  : 	return *this;

  00017	8b c6		 mov	 eax, esi
  00019	83 46 08 04	 add	 DWORD PTR [esi+8], 4
  0001d	5e		 pop	 esi

; 260  : }

  0001e	5d		 pop	 ebp
  0001f	c2 04 00	 ret	 4
??$?6J@CAr@@QAEAAV0@ABJ@Z ENDP				; CAr::operator<<<long>
_TEXT	ENDS
; Function compile flags: /Ogtp
; File C:\IAGOS\server\v18\Source\Source\_Network\Misc\Include\ar.h
;	COMDAT ??$?6_J@CAr@@QAEAAV0@AB_J@Z
_TEXT	SEGMENT
_t$ = 8							; size = 4
??$?6_J@CAr@@QAEAAV0@AB_J@Z PROC			; CAr::operator<<<__int64>, COMDAT
; _this$ = ecx

; 255  : {

  00000	55		 push	 ebp
  00001	8b ec		 mov	 ebp, esp
  00003	56		 push	 esi
  00004	57		 push	 edi

; 256  : 	CheckBuf(sizeof(T));

  00005	6a 08		 push	 8
  00007	8b f9		 mov	 edi, ecx
  00009	e8 00 00 00 00	 call	 ?CheckBuf@CAr@@QAEXI@Z	; CAr::CheckBuf

; 257  : 	*(UNALIGNED T*)m_lpBufCur = t;

  0000e	8b 45 08	 mov	 eax, DWORD PTR _t$[ebp]
  00011	8b 70 04	 mov	 esi, DWORD PTR [eax+4]
  00014	8b 10		 mov	 edx, DWORD PTR [eax]
  00016	8b 47 08	 mov	 eax, DWORD PTR [edi+8]
  00019	89 10		 mov	 DWORD PTR [eax], edx
  0001b	89 70 04	 mov	 DWORD PTR [eax+4], esi

; 258  : 	m_lpBufCur += sizeof(T);
; 259  : 	return *this;

  0001e	8b c7		 mov	 eax, edi
  00020	83 47 08 08	 add	 DWORD PTR [edi+8], 8
  00024	5f		 pop	 edi
  00025	5e		 pop	 esi

; 260  : }

  00026	5d		 pop	 ebp
  00027	c2 04 00	 ret	 4
??$?6_J@CAr@@QAEAAV0@AB_J@Z ENDP			; CAr::operator<<<__int64>
_TEXT	ENDS
; Function compile flags: /Ogtp
; File C:\IAGOS\server\v18\Source\Source\_Network\Misc\Include\ar.h
;	COMDAT ??$?6H@CAr@@QAEAAV0@ABH@Z
_TEXT	SEGMENT
_t$ = 8							; size = 4
??$?6H@CAr@@QAEAAV0@ABH@Z PROC				; CAr::operator<<<int>, COMDAT
; _this$ = ecx

; 255  : {

  00000	55		 push	 ebp
  00001	8b ec		 mov	 ebp, esp
  00003	56		 push	 esi

; 256  : 	CheckBuf(sizeof(T));

  00004	6a 04		 push	 4
  00006	8b f1		 mov	 esi, ecx
  00008	e8 00 00 00 00	 call	 ?CheckBuf@CAr@@QAEXI@Z	; CAr::CheckBuf

; 257  : 	*(UNALIGNED T*)m_lpBufCur = t;

  0000d	8b 56 08	 mov	 edx, DWORD PTR [esi+8]
  00010	8b 45 08	 mov	 eax, DWORD PTR _t$[ebp]
  00013	8b 00		 mov	 eax, DWORD PTR [eax]
  00015	89 02		 mov	 DWORD PTR [edx], eax

; 258  : 	m_lpBufCur += sizeof(T);
; 259  : 	return *this;

  00017	8b c6		 mov	 eax, esi
  00019	83 46 08 04	 add	 DWORD PTR [esi+8], 4
  0001d	5e		 pop	 esi

; 260  : }

  0001e	5d		 pop	 ebp
  0001f	c2 04 00	 ret	 4
??$?6H@CAr@@QAEAAV0@ABH@Z ENDP				; CAr::operator<<<int>
_TEXT	ENDS
; Function compile flags: /Ogtp
; File C:\IAGOS\server\v18\Source\Source\_Network\Misc\Include\ar.h
;	COMDAT ??$?6E@CAr@@QAEAAV0@ABE@Z
_TEXT	SEGMENT
_t$ = 8							; size = 4
??$?6E@CAr@@QAEAAV0@ABE@Z PROC				; CAr::operator<<<unsigned char>, COMDAT
; _this$ = ecx

; 255  : {

  00000	55		 push	 ebp
  00001	8b ec		 mov	 ebp, esp
  00003	56		 push	 esi

; 256  : 	CheckBuf(sizeof(T));

  00004	6a 01		 push	 1
  00006	8b f1		 mov	 esi, ecx
  00008	e8 00 00 00 00	 call	 ?CheckBuf@CAr@@QAEXI@Z	; CAr::CheckBuf

; 257  : 	*(UNALIGNED T*)m_lpBufCur = t;

  0000d	8b 45 08	 mov	 eax, DWORD PTR _t$[ebp]
  00010	8b 56 08	 mov	 edx, DWORD PTR [esi+8]
  00013	8a 00		 mov	 al, BYTE PTR [eax]
  00015	88 02		 mov	 BYTE PTR [edx], al

; 258  : 	m_lpBufCur += sizeof(T);
; 259  : 	return *this;

  00017	8b c6		 mov	 eax, esi
  00019	ff 46 08	 inc	 DWORD PTR [esi+8]
  0001c	5e		 pop	 esi

; 260  : }

  0001d	5d		 pop	 ebp
  0001e	c2 04 00	 ret	 4
??$?6E@CAr@@QAEAAV0@ABE@Z ENDP				; CAr::operator<<<unsigned char>
_TEXT	ENDS
; Function compile flags: /Ogtp
; File C:\IAGOS\server\v18\Source\Source\_Network\Misc\Include\ar.h
;	COMDAT ??$?6F@CAr@@QAEAAV0@ABF@Z
_TEXT	SEGMENT
_t$ = 8							; size = 4
??$?6F@CAr@@QAEAAV0@ABF@Z PROC				; CAr::operator<<<short>, COMDAT
; _this$ = ecx

; 255  : {

  00000	55		 push	 ebp
  00001	8b ec		 mov	 ebp, esp
  00003	56		 push	 esi

; 256  : 	CheckBuf(sizeof(T));

  00004	6a 02		 push	 2
  00006	8b f1		 mov	 esi, ecx
  00008	e8 00 00 00 00	 call	 ?CheckBuf@CAr@@QAEXI@Z	; CAr::CheckBuf

; 257  : 	*(UNALIGNED T*)m_lpBufCur = t;

  0000d	8b 45 08	 mov	 eax, DWORD PTR _t$[ebp]
  00010	8b 56 08	 mov	 edx, DWORD PTR [esi+8]
  00013	66 8b 00	 mov	 ax, WORD PTR [eax]
  00016	66 89 02	 mov	 WORD PTR [edx], ax

; 258  : 	m_lpBufCur += sizeof(T);
; 259  : 	return *this;

  00019	8b c6		 mov	 eax, esi
  0001b	83 46 08 02	 add	 DWORD PTR [esi+8], 2
  0001f	5e		 pop	 esi

; 260  : }

  00020	5d		 pop	 ebp
  00021	c2 04 00	 ret	 4
??$?6F@CAr@@QAEAAV0@ABF@Z ENDP				; CAr::operator<<<short>
_TEXT	ENDS
; Function compile flags: /Ogtp
; File C:\IAGOS\server\v18\Source\Source\_Network\Misc\Include\ar.h
;	COMDAT ??$?5K@CAr@@QAEAAV0@AAK@Z
_TEXT	SEGMENT
_t$ = 8							; size = 4
??$?5K@CAr@@QAEAAV0@AAK@Z PROC				; CAr::operator>><unsigned long>, COMDAT
; _this$ = ecx

; 302  : {

  00000	55		 push	 ebp
  00001	8b ec		 mov	 ebp, esp
  00003	8b d1		 mov	 edx, ecx

; 303  : 	if (m_lpBufCur + sizeof(T) <= m_lpBufMax)

  00005	8b 4a 08	 mov	 ecx, DWORD PTR [edx+8]
  00008	8d 41 04	 lea	 eax, DWORD PTR [ecx+4]
  0000b	3b 42 0c	 cmp	 eax, DWORD PTR [edx+12]
  0000e	8b 45 08	 mov	 eax, DWORD PTR _t$[ebp]
  00011	77 0e		 ja	 SHORT $LN2@operator

; 304  : 	{
; 305  : 		t = *(UNALIGNED T*)m_lpBufCur;

  00013	8b 09		 mov	 ecx, DWORD PTR [ecx]
  00015	89 08		 mov	 DWORD PTR [eax], ecx

; 312  : 	}
; 313  : 	return *this;
; 314  : }

  00017	8b c2		 mov	 eax, edx
  00019	83 42 08 04	 add	 DWORD PTR [edx+8], 4
  0001d	5d		 pop	 ebp
  0001e	c2 04 00	 ret	 4
$LN2@operator:

; 306  : 		m_lpBufCur += sizeof(T);
; 307  : 	}
; 308  : 	else
; 309  : 	{
; 310  : 		t = T();

  00021	c7 00 00 00 00
	00		 mov	 DWORD PTR [eax], 0

; 311  : 		m_lpBufCur = m_lpBufMax;

  00027	8b 42 0c	 mov	 eax, DWORD PTR [edx+12]
  0002a	89 42 08	 mov	 DWORD PTR [edx+8], eax

; 312  : 	}
; 313  : 	return *this;
; 314  : }

  0002d	8b c2		 mov	 eax, edx
  0002f	5d		 pop	 ebp
  00030	c2 04 00	 ret	 4
??$?5K@CAr@@QAEAAV0@AAK@Z ENDP				; CAr::operator>><unsigned long>
_TEXT	ENDS
; Function compile flags: /Ogtp
; File C:\IAGOS\server\v18\Source\Source\_Network\Misc\Include\ar.h
;	COMDAT ??$?6K@CAr@@QAEAAV0@ABK@Z
_TEXT	SEGMENT
_t$ = 8							; size = 4
??$?6K@CAr@@QAEAAV0@ABK@Z PROC				; CAr::operator<<<unsigned long>, COMDAT
; _this$ = ecx

; 255  : {

  00000	55		 push	 ebp
  00001	8b ec		 mov	 ebp, esp
  00003	56		 push	 esi

; 256  : 	CheckBuf(sizeof(T));

  00004	6a 04		 push	 4
  00006	8b f1		 mov	 esi, ecx
  00008	e8 00 00 00 00	 call	 ?CheckBuf@CAr@@QAEXI@Z	; CAr::CheckBuf

; 257  : 	*(UNALIGNED T*)m_lpBufCur = t;

  0000d	8b 56 08	 mov	 edx, DWORD PTR [esi+8]
  00010	8b 45 08	 mov	 eax, DWORD PTR _t$[ebp]
  00013	8b 00		 mov	 eax, DWORD PTR [eax]
  00015	89 02		 mov	 DWORD PTR [edx], eax

; 258  : 	m_lpBufCur += sizeof(T);
; 259  : 	return *this;

  00017	8b c6		 mov	 eax, esi
  00019	83 46 08 04	 add	 DWORD PTR [esi+8], 4
  0001d	5e		 pop	 esi

; 260  : }

  0001e	5d		 pop	 ebp
  0001f	c2 04 00	 ret	 4
??$?6K@CAr@@QAEAAV0@ABK@Z ENDP				; CAr::operator<<<unsigned long>
_TEXT	ENDS
; Function compile flags: /Ogtp
; File C:\IAGOS\server\v18\Source\Source\_Common\ObjSerialize.cpp
; File C:\IAGOS\server\v18\Source\Source\_Network\Misc\Include\ar.h
; File C:\IAGOS\server\v18\Source\Source\_Common\ObjSerialize.cpp
;	COMDAT ?Serialize@CItem@@UAEXAAVCAr@@@Z
_TEXT	SEGMENT
__$EHRec$ = -12						; size = 12
_ar$ = 8						; size = 4
$T2 = 8							; size = 4
?Serialize@CItem@@UAEXAAVCAr@@@Z PROC			; CItem::Serialize, COMDAT
; _this$ = ecx

; 159  : {

  00000	55		 push	 ebp
  00001	8b ec		 mov	 ebp, esp
  00003	6a ff		 push	 -1
  00005	68 00 00 00 00	 push	 __ehhandler$?Serialize@CItem@@UAEXAAVCAr@@@Z
  0000a	64 a1 00 00 00
	00		 mov	 eax, DWORD PTR fs:0
  00010	50		 push	 eax
  00011	56		 push	 esi
  00012	57		 push	 edi
  00013	a1 00 00 00 00	 mov	 eax, DWORD PTR ___security_cookie
  00018	33 c5		 xor	 eax, ebp
  0001a	50		 push	 eax
  0001b	8d 45 f4	 lea	 eax, DWORD PTR __$EHRec$[ebp]
  0001e	64 a3 00 00 00
	00		 mov	 DWORD PTR fs:0, eax
  00024	8b f1		 mov	 esi, ecx

; 160  : 	CCtrl::Serialize( ar );		// 33

  00026	8b 7d 08	 mov	 edi, DWORD PTR _ar$[ebp]
  00029	57		 push	 edi
  0002a	e8 00 00 00 00	 call	 ?Serialize@CCtrl@@UAEXAAVCAr@@@Z ; CCtrl::Serialize
; File C:\IAGOS\server\v18\Source\Source\_Network\Misc\Include\ar.h

; 146  : 	return (m_nMode & CAr::load) == 0;

  0002f	f6 07 01	 test	 BYTE PTR [edi], 1
; File C:\IAGOS\server\v18\Source\Source\_Common\ObjSerialize.cpp

; 162  : 	if( ar.IsStoring() )

  00032	74 4d		 je	 SHORT $LN14@Serialize

; 163  : 	{
; 164  : 	}
; 165  : 	else
; 166  : 	{
; 167  : 		SAFE_DELETE( m_pItemBase );

  00034	8b 8e 30 02 00
	00		 mov	 ecx, DWORD PTR [esi+560]
  0003a	85 c9		 test	 ecx, ecx
  0003c	74 10		 je	 SHORT $LN4@Serialize
  0003e	8b 01		 mov	 eax, DWORD PTR [ecx]
  00040	6a 01		 push	 1
  00042	ff 10		 call	 DWORD PTR [eax]
  00044	c7 86 30 02 00
	00 00 00 00 00	 mov	 DWORD PTR [esi+560], 0
$LN4@Serialize:

; 168  : 		m_pItemBase	= new CItemElem;

  0004e	68 b0 00 00 00	 push	 176			; 000000b0H
  00053	e8 00 00 00 00	 call	 ??2@YAPAXI@Z		; operator new
  00058	83 c4 04	 add	 esp, 4
  0005b	89 45 08	 mov	 DWORD PTR $T2[ebp], eax
  0005e	c7 45 fc 00 00
	00 00		 mov	 DWORD PTR __$EHRec$[ebp+8], 0
  00065	85 c0		 test	 eax, eax
  00067	74 09		 je	 SHORT $LN8@Serialize
  00069	8b c8		 mov	 ecx, eax
  0006b	e8 00 00 00 00	 call	 ??0CItemElem@@QAE@XZ	; CItemElem::CItemElem
  00070	eb 02		 jmp	 SHORT $LN9@Serialize
$LN8@Serialize:
  00072	33 c0		 xor	 eax, eax
$LN9@Serialize:
  00074	c7 45 fc ff ff
	ff ff		 mov	 DWORD PTR __$EHRec$[ebp+8], -1
  0007b	89 86 30 02 00
	00		 mov	 DWORD PTR [esi+560], eax
$LN14@Serialize:

; 169  : 	}
; 170  : 
; 171  : 	m_pItemBase->Serialize( ar );	// 11

  00081	8b 8e 30 02 00
	00		 mov	 ecx, DWORD PTR [esi+560]
  00087	57		 push	 edi
  00088	8b 01		 mov	 eax, DWORD PTR [ecx]
  0008a	ff 50 08	 call	 DWORD PTR [eax+8]

; 172  : }

  0008d	8b 4d f4	 mov	 ecx, DWORD PTR __$EHRec$[ebp]
  00090	64 89 0d 00 00
	00 00		 mov	 DWORD PTR fs:0, ecx
  00097	59		 pop	 ecx
  00098	5f		 pop	 edi
  00099	5e		 pop	 esi
  0009a	8b e5		 mov	 esp, ebp
  0009c	5d		 pop	 ebp
  0009d	c2 04 00	 ret	 4
_TEXT	ENDS
;	COMDAT text$x
text$x	SEGMENT
__unwindfunclet$?Serialize@CItem@@UAEXAAVCAr@@@Z$0:
  00000	68 b0 00 00 00	 push	 176			; 000000b0H
  00005	8b 45 08	 mov	 eax, DWORD PTR $T2[ebp]
  00008	50		 push	 eax
  00009	e8 00 00 00 00	 call	 ??3@YAXPAXI@Z		; operator delete
  0000e	83 c4 08	 add	 esp, 8
  00011	c3		 ret	 0
  00012	cc		 int	 3
  00013	cc		 int	 3
  00014	cc		 int	 3
  00015	cc		 int	 3
  00016	cc		 int	 3
__ehhandler$?Serialize@CItem@@UAEXAAVCAr@@@Z:
  00017	90		 npad	 1
  00018	90		 npad	 1
  00019	8b 54 24 08	 mov	 edx, DWORD PTR [esp+8]
  0001d	8d 42 0c	 lea	 eax, DWORD PTR [edx+12]
  00020	8b 4a f4	 mov	 ecx, DWORD PTR [edx-12]
  00023	33 c8		 xor	 ecx, eax
  00025	e8 00 00 00 00	 call	 @__security_check_cookie@4
  0002a	b8 00 00 00 00	 mov	 eax, OFFSET __ehfuncinfo$?Serialize@CItem@@UAEXAAVCAr@@@Z
  0002f	e9 00 00 00 00	 jmp	 ___CxxFrameHandler3
text$x	ENDS
?Serialize@CItem@@UAEXAAVCAr@@@Z ENDP			; CItem::Serialize
; Function compile flags: /Ogtp
; File C:\IAGOS\server\v18\Source\Source\_Common\ObjSerialize.cpp
; File C:\IAGOS\server\v18\Source\Source\_Network\Misc\Include\ar.h
; File C:\IAGOS\server\v18\Source\Source\_Common\ObjSerialize.cpp
;	COMDAT ?Serialize@CItemElem@@UAEXAAVCAr@@@Z
_TEXT	SEGMENT
__$EHRec$ = -12						; size = 12
_ar$ = 8						; size = 4
_t$2 = 8						; size = 4
_t$3 = 8						; size = 4
$T4 = 8							; size = 4
$T5 = 11						; size = 1
$T6 = 11						; size = 1
_bPet$7 = 11						; size = 1
?Serialize@CItemElem@@UAEXAAVCAr@@@Z PROC		; CItemElem::Serialize, COMDAT
; _this$ = ecx

; 49   : {

  00000	55		 push	 ebp
  00001	8b ec		 mov	 ebp, esp
  00003	6a ff		 push	 -1
  00005	68 00 00 00 00	 push	 __ehhandler$?Serialize@CItemElem@@UAEXAAVCAr@@@Z
  0000a	64 a1 00 00 00
	00		 mov	 eax, DWORD PTR fs:0
  00010	50		 push	 eax
  00011	53		 push	 ebx
  00012	56		 push	 esi
  00013	57		 push	 edi
  00014	a1 00 00 00 00	 mov	 eax, DWORD PTR ___security_cookie
  00019	33 c5		 xor	 eax, ebp
  0001b	50		 push	 eax
  0001c	8d 45 f4	 lea	 eax, DWORD PTR __$EHRec$[ebp]
  0001f	64 a3 00 00 00
	00		 mov	 DWORD PTR fs:0, eax
  00025	8b f1		 mov	 esi, ecx

; 50   : 	CItemBase::Serialize( ar );

  00027	8b 7d 08	 mov	 edi, DWORD PTR _ar$[ebp]
  0002a	57		 push	 edi
  0002b	e8 00 00 00 00	 call	 ?Serialize@CItemBase@@UAEXAAVCAr@@@Z ; CItemBase::Serialize
; File C:\IAGOS\server\v18\Source\Source\_Network\Misc\Include\ar.h

; 146  : 	return (m_nMode & CAr::load) == 0;

  00030	f6 07 01	 test	 BYTE PTR [edi], 1
  00033	8d 4e 74	 lea	 ecx, DWORD PTR [esi+116]
; File C:\IAGOS\server\v18\Source\Source\_Common\ObjSerialize.cpp

; 51   : 	if( ar.IsStoring() )

  00036	51		 push	 ecx
  00037	8b cf		 mov	 ecx, edi
  00039	0f 85 2d 01 00
	00		 jne	 $LN2@Serialize

; 52   : 	{
; 53   : 		ar << m_nItemNum;

  0003f	e8 00 00 00 00	 call	 ??$?6F@CAr@@QAEAAV0@ABF@Z ; CAr::operator<<<short>

; 54   : 		ar << m_nRepairNumber << m_nHitPoint;

  00044	8d 46 70	 lea	 eax, DWORD PTR [esi+112]
  00047	8b cf		 mov	 ecx, edi
  00049	50		 push	 eax
  0004a	8d 46 6c	 lea	 eax, DWORD PTR [esi+108]
  0004d	50		 push	 eax
  0004e	e8 00 00 00 00	 call	 ??$?6E@CAr@@QAEAAV0@ABE@Z ; CAr::operator<<<unsigned char>
  00053	8b c8		 mov	 ecx, eax
  00055	e8 00 00 00 00	 call	 ??$?6H@CAr@@QAEAAV0@ABH@Z ; CAr::operator<<<int>

; 55   : 		ar << m_nRepair;

  0005a	8d 46 68	 lea	 eax, DWORD PTR [esi+104]
  0005d	8b cf		 mov	 ecx, edi
  0005f	50		 push	 eax
  00060	e8 00 00 00 00	 call	 ??$?6H@CAr@@QAEAAV0@ABH@Z ; CAr::operator<<<int>

; 56   : 		ar << m_byFlag;

  00065	8d 46 76	 lea	 eax, DWORD PTR [esi+118]
  00068	8b cf		 mov	 ecx, edi
  0006a	50		 push	 eax
  0006b	e8 00 00 00 00	 call	 ??$?6E@CAr@@QAEAAV0@ABE@Z ; CAr::operator<<<unsigned char>

; 57   : 		ar << m_nAbilityOption;

  00070	8d 46 64	 lea	 eax, DWORD PTR [esi+100]
  00073	8b cf		 mov	 ecx, edi
  00075	50		 push	 eax
  00076	e8 00 00 00 00	 call	 ??$?6H@CAr@@QAEAAV0@ABH@Z ; CAr::operator<<<int>

; 58   : 		ar << m_idGuild;				// ±ćµĺąřČŁµµ ŔúŔĺ.

  0007b	8d 46 78	 lea	 eax, DWORD PTR [esi+120]
  0007e	8b cf		 mov	 ecx, edi
  00080	50		 push	 eax
  00081	e8 00 00 00 00	 call	 ??$?6K@CAr@@QAEAAV0@ABK@Z ; CAr::operator<<<unsigned long>

; 59   : 		ar << m_bItemResist;			// ľî´Ŕ ĽÓĽş ŔÎ°ˇ?

  00086	8d 46 7c	 lea	 eax, DWORD PTR [esi+124]
  00089	8b cf		 mov	 ecx, edi
  0008b	50		 push	 eax
  0008c	e8 00 00 00 00	 call	 ??$?6E@CAr@@QAEAAV0@ABE@Z ; CAr::operator<<<unsigned char>

; 60   : 		ar << m_nResistAbilityOption ;	// ĽÓĽş Ăß°ˇ ´É·ÂÄˇ °ˇşŻ żÉĽÇ

  00091	8d 86 80 00 00
	00		 lea	 eax, DWORD PTR [esi+128]
  00097	8b cf		 mov	 ecx, edi
  00099	50		 push	 eax
  0009a	e8 00 00 00 00	 call	 ??$?6H@CAr@@QAEAAV0@ABH@Z ; CAr::operator<<<int>

; 61   : 		ar << m_nResistSMItemId;

  0009f	8d 86 84 00 00
	00		 lea	 eax, DWORD PTR [esi+132]
  000a5	8b cf		 mov	 ecx, edi
  000a7	50		 push	 eax
  000a8	e8 00 00 00 00	 call	 ??$?6H@CAr@@QAEAAV0@ABH@Z ; CAr::operator<<<int>

; 62   : 		m_piercing.Serialize( ar );

  000ad	8b 46 3c	 mov	 eax, DWORD PTR [esi+60]
  000b0	8d 4e 3c	 lea	 ecx, DWORD PTR [esi+60]
  000b3	57		 push	 edi
  000b4	ff 50 04	 call	 DWORD PTR [eax+4]

; 63   : 		ar << m_bCharged;

  000b7	8d 86 a4 00 00
	00		 lea	 eax, DWORD PTR [esi+164]
  000bd	8b cf		 mov	 ecx, edi
  000bf	50		 push	 eax
  000c0	e8 00 00 00 00	 call	 ??$?6H@CAr@@QAEAAV0@ABH@Z ; CAr::operator<<<int>

; 64   : #if __VER >= 11 // __SYS_IDENTIFY
; 65   : 		ar << m_iRandomOptItemId;

  000c5	8d 86 90 00 00
	00		 lea	 eax, DWORD PTR [esi+144]
  000cb	8b cf		 mov	 ecx, edi
  000cd	50		 push	 eax
  000ce	e8 00 00 00 00	 call	 ??$?6_J@CAr@@QAEAAV0@AB_J@Z ; CAr::operator<<<__int64>

; 66   : #else	// __SYS_IDENTIFY
; 67   : 		ar << m_nRandomOptItemId;
; 68   : #endif	// __SYS_IDENTIFY
; 69   : 		ar << m_dwKeepTime;

  000d3	8d 9e a8 00 00
	00		 lea	 ebx, DWORD PTR [esi+168]
  000d9	8b cf		 mov	 ecx, edi
  000db	53		 push	 ebx
  000dc	e8 00 00 00 00	 call	 ??$?6K@CAr@@QAEAAV0@ABK@Z ; CAr::operator<<<unsigned long>

; 70   : 		if( m_dwKeepTime )

  000e1	8b 03		 mov	 eax, DWORD PTR [ebx]
  000e3	85 c0		 test	 eax, eax
  000e5	74 14		 je	 SHORT $LN4@Serialize

; 71   : 		{
; 72   : 			time_t t	= m_dwKeepTime - time_null();

  000e7	2b 05 00 00 00
	00		 sub	 eax, DWORD PTR ?g_tCurrent@@3JA ; g_tCurrent

; 73   : 			ar << t;

  000ed	8b cf		 mov	 ecx, edi
  000ef	89 45 08	 mov	 DWORD PTR _t$2[ebp], eax
  000f2	8d 45 08	 lea	 eax, DWORD PTR _t$2[ebp]
  000f5	50		 push	 eax
  000f6	e8 00 00 00 00	 call	 ??$?6J@CAr@@QAEAAV0@ABJ@Z ; CAr::operator<<<long>
$LN4@Serialize:

; 74   : 		}
; 75   : #if __VER >= 9	// __PET_0410
; 76   : 		if( m_pPet )

  000fb	83 be a0 00 00
	00 00		 cmp	 DWORD PTR [esi+160], 0
  00102	8d 45 0b	 lea	 eax, DWORD PTR $T5[ebp]
  00105	8b cf		 mov	 ecx, edi
  00107	50		 push	 eax
  00108	74 37		 je	 SHORT $LN5@Serialize

; 77   : 		{
; 78   : 			ar << (BYTE)0x01;

  0010a	c6 45 0b 01	 mov	 BYTE PTR $T5[ebp], 1
  0010e	e8 00 00 00 00	 call	 ??$?6E@CAr@@QAEAAV0@ABE@Z ; CAr::operator<<<unsigned char>

; 79   : 			m_pPet->Serialize( ar );

  00113	8b 8e a0 00 00
	00		 mov	 ecx, DWORD PTR [esi+160]
  00119	57		 push	 edi
  0011a	e8 00 00 00 00	 call	 ?Serialize@CPet@@QAEXAAVCAr@@@Z ; CPet::Serialize

; 84   : 		}
; 85   : #endif	// __PET_0410
; 86   : #if __VER >= 15 // __PETVIS
; 87   : 		ar << m_bTranformVisPet;

  0011f	8d 86 ac 00 00
	00		 lea	 eax, DWORD PTR [esi+172]
  00125	8b cf		 mov	 ecx, edi
  00127	50		 push	 eax
  00128	e8 00 00 00 00	 call	 ??$?6H@CAr@@QAEAAV0@ABH@Z ; CAr::operator<<<int>

; 132  : #endif // __PETVIS
; 133  : 
; 134  : #ifdef __CLIENT
; 135  : 		SetTexture();
; 136  : #endif
; 137  : 	}
; 138  : }

  0012d	8b 4d f4	 mov	 ecx, DWORD PTR __$EHRec$[ebp]
  00130	64 89 0d 00 00
	00 00		 mov	 DWORD PTR fs:0, ecx
  00137	59		 pop	 ecx
  00138	5f		 pop	 edi
  00139	5e		 pop	 esi
  0013a	5b		 pop	 ebx
  0013b	8b e5		 mov	 esp, ebp
  0013d	5d		 pop	 ebp
  0013e	c2 04 00	 ret	 4
$LN5@Serialize:

; 80   : 		}
; 81   : 		else
; 82   : 		{
; 83   : 			ar << (BYTE)0x00;

  00141	c6 45 0b 00	 mov	 BYTE PTR $T6[ebp], 0
  00145	e8 00 00 00 00	 call	 ??$?6E@CAr@@QAEAAV0@ABE@Z ; CAr::operator<<<unsigned char>

; 84   : 		}
; 85   : #endif	// __PET_0410
; 86   : #if __VER >= 15 // __PETVIS
; 87   : 		ar << m_bTranformVisPet;

  0014a	8d 86 ac 00 00
	00		 lea	 eax, DWORD PTR [esi+172]
  00150	8b cf		 mov	 ecx, edi
  00152	50		 push	 eax
  00153	e8 00 00 00 00	 call	 ??$?6H@CAr@@QAEAAV0@ABH@Z ; CAr::operator<<<int>

; 132  : #endif // __PETVIS
; 133  : 
; 134  : #ifdef __CLIENT
; 135  : 		SetTexture();
; 136  : #endif
; 137  : 	}
; 138  : }

  00158	8b 4d f4	 mov	 ecx, DWORD PTR __$EHRec$[ebp]
  0015b	64 89 0d 00 00
	00 00		 mov	 DWORD PTR fs:0, ecx
  00162	59		 pop	 ecx
  00163	5f		 pop	 edi
  00164	5e		 pop	 esi
  00165	5b		 pop	 ebx
  00166	8b e5		 mov	 esp, ebp
  00168	5d		 pop	 ebp
  00169	c2 04 00	 ret	 4
$LN2@Serialize:

; 88   : #endif // __PETVIS
; 89   : 	}
; 90   : 	else
; 91   : 	{
; 92   : 		ar >> m_nItemNum;

  0016c	e8 00 00 00 00	 call	 ??$?5F@CAr@@QAEAAV0@AAF@Z ; CAr::operator>><short>

; 93   : 		ar >> m_nRepairNumber ;

  00171	8d 46 6c	 lea	 eax, DWORD PTR [esi+108]
  00174	8b cf		 mov	 ecx, edi
  00176	50		 push	 eax
  00177	e8 00 00 00 00	 call	 ??$?5E@CAr@@QAEAAV0@AAE@Z ; CAr::operator>><unsigned char>

; 94   : 		ar >> m_nHitPoint;

  0017c	8d 46 70	 lea	 eax, DWORD PTR [esi+112]
  0017f	8b cf		 mov	 ecx, edi
  00181	50		 push	 eax
  00182	e8 00 00 00 00	 call	 ??$?5H@CAr@@QAEAAV0@AAH@Z ; CAr::operator>><int>

; 95   : 		ar >> m_nRepair;

  00187	8d 46 68	 lea	 eax, DWORD PTR [esi+104]
  0018a	8b cf		 mov	 ecx, edi
  0018c	50		 push	 eax
  0018d	e8 00 00 00 00	 call	 ??$?5H@CAr@@QAEAAV0@AAH@Z ; CAr::operator>><int>

; 96   : 		ar >> m_byFlag;

  00192	8d 46 76	 lea	 eax, DWORD PTR [esi+118]
  00195	8b cf		 mov	 ecx, edi
  00197	50		 push	 eax
  00198	e8 00 00 00 00	 call	 ??$?5E@CAr@@QAEAAV0@AAE@Z ; CAr::operator>><unsigned char>

; 97   : 		ar >> m_nAbilityOption;

  0019d	8d 46 64	 lea	 eax, DWORD PTR [esi+100]
  001a0	8b cf		 mov	 ecx, edi
  001a2	50		 push	 eax
  001a3	e8 00 00 00 00	 call	 ??$?5H@CAr@@QAEAAV0@AAH@Z ; CAr::operator>><int>

; 98   : 		ar >> m_idGuild;		

  001a8	8d 46 78	 lea	 eax, DWORD PTR [esi+120]
  001ab	8b cf		 mov	 ecx, edi
  001ad	50		 push	 eax
  001ae	e8 00 00 00 00	 call	 ??$?5K@CAr@@QAEAAV0@AAK@Z ; CAr::operator>><unsigned long>

; 99   : 		ar >> m_bItemResist;	

  001b3	8d 46 7c	 lea	 eax, DWORD PTR [esi+124]
  001b6	8b cf		 mov	 ecx, edi
  001b8	50		 push	 eax
  001b9	e8 00 00 00 00	 call	 ??$?5E@CAr@@QAEAAV0@AAE@Z ; CAr::operator>><unsigned char>

; 100  : 		ar >> m_nResistAbilityOption ;	

  001be	8d 86 80 00 00
	00		 lea	 eax, DWORD PTR [esi+128]
  001c4	8b cf		 mov	 ecx, edi
  001c6	50		 push	 eax
  001c7	e8 00 00 00 00	 call	 ??$?5H@CAr@@QAEAAV0@AAH@Z ; CAr::operator>><int>

; 101  : 		ar >> m_nResistSMItemId;

  001cc	8d 86 84 00 00
	00		 lea	 eax, DWORD PTR [esi+132]
  001d2	8b cf		 mov	 ecx, edi
  001d4	50		 push	 eax
  001d5	e8 00 00 00 00	 call	 ??$?5H@CAr@@QAEAAV0@AAH@Z ; CAr::operator>><int>

; 102  : //		memset( &m_piercingInfo, 0, sizeof(m_piercingInfo) );
; 103  : 		m_piercing.Serialize( ar );

  001da	8b 46 3c	 mov	 eax, DWORD PTR [esi+60]
  001dd	8d 4e 3c	 lea	 ecx, DWORD PTR [esi+60]
  001e0	57		 push	 edi
  001e1	ff 50 04	 call	 DWORD PTR [eax+4]

; 104  : 		ar >> m_bCharged;

  001e4	8d 86 a4 00 00
	00		 lea	 eax, DWORD PTR [esi+164]
  001ea	8b cf		 mov	 ecx, edi
  001ec	50		 push	 eax
  001ed	e8 00 00 00 00	 call	 ??$?5H@CAr@@QAEAAV0@AAH@Z ; CAr::operator>><int>

; 105  : #if __VER >= 11 // __SYS_IDENTIFY
; 106  : 		ar >> m_iRandomOptItemId;

  001f2	8d 86 90 00 00
	00		 lea	 eax, DWORD PTR [esi+144]
  001f8	8b cf		 mov	 ecx, edi
  001fa	50		 push	 eax
  001fb	e8 00 00 00 00	 call	 ??$?5_J@CAr@@QAEAAV0@AA_J@Z ; CAr::operator>><__int64>

; 107  : #else	// __SYS_IDENTIFY
; 108  : 		ar >> m_nRandomOptItemId;
; 109  : #endif	// __SYS_IDENTIFY
; 110  : 		ar >> m_dwKeepTime;

  00200	8d 9e a8 00 00
	00		 lea	 ebx, DWORD PTR [esi+168]
  00206	8b cf		 mov	 ecx, edi
  00208	53		 push	 ebx
  00209	e8 00 00 00 00	 call	 ??$?5K@CAr@@QAEAAV0@AAK@Z ; CAr::operator>><unsigned long>

; 111  : 
; 112  : 		if( m_dwKeepTime ) 

  0020e	83 3b 00	 cmp	 DWORD PTR [ebx], 0
  00211	74 0b		 je	 SHORT $LN7@Serialize

; 113  : 		{
; 114  : 			time_t t;
; 115  : 			ar >> t;

  00213	8d 45 08	 lea	 eax, DWORD PTR _t$3[ebp]
  00216	8b cf		 mov	 ecx, edi
  00218	50		 push	 eax
  00219	e8 00 00 00 00	 call	 ??$?5J@CAr@@QAEAAV0@AAJ@Z ; CAr::operator>><long>
$LN7@Serialize:

; 116  : 		#ifdef __CLIENT
; 117  : 			m_dwKeepTime	= time_null() + t;
; 118  : 		#endif	// __CLIENT
; 119  : 		}
; 120  : #if __VER >= 9	// __PET_0410
; 121  : 		SAFE_DELETE( m_pPet );

  0021e	8b 8e a0 00 00
	00		 mov	 ecx, DWORD PTR [esi+160]
  00224	85 c9		 test	 ecx, ecx
  00226	74 10		 je	 SHORT $LN8@Serialize
  00228	8b 01		 mov	 eax, DWORD PTR [ecx]
  0022a	6a 01		 push	 1
  0022c	ff 10		 call	 DWORD PTR [eax]
  0022e	c7 86 a0 00 00
	00 00 00 00 00	 mov	 DWORD PTR [esi+160], 0
$LN8@Serialize:

; 122  : 		BYTE bPet;
; 123  : 		ar >> bPet;

  00238	8d 45 0b	 lea	 eax, DWORD PTR _bPet$7[ebp]
  0023b	8b cf		 mov	 ecx, edi
  0023d	50		 push	 eax
  0023e	e8 00 00 00 00	 call	 ??$?5E@CAr@@QAEAAV0@AAE@Z ; CAr::operator>><unsigned char>

; 124  : 		if( bPet )

  00243	80 7d 0b 00	 cmp	 BYTE PTR _bPet$7[ebp], 0
  00247	74 38		 je	 SHORT $LN9@Serialize

; 125  : 		{
; 126  : 			m_pPet	= new CPet;

  00249	6a 28		 push	 40			; 00000028H
  0024b	e8 00 00 00 00	 call	 ??2@YAPAXI@Z		; operator new
  00250	83 c4 04	 add	 esp, 4
  00253	89 45 08	 mov	 DWORD PTR $T4[ebp], eax
  00256	c7 45 fc 00 00
	00 00		 mov	 DWORD PTR __$EHRec$[ebp+8], 0
  0025d	85 c0		 test	 eax, eax
  0025f	74 09		 je	 SHORT $LN13@Serialize
  00261	8b c8		 mov	 ecx, eax
  00263	e8 00 00 00 00	 call	 ??0CPet@@QAE@XZ		; CPet::CPet
  00268	eb 02		 jmp	 SHORT $LN14@Serialize
$LN13@Serialize:
  0026a	33 c0		 xor	 eax, eax
$LN14@Serialize:

; 127  : 			m_pPet->Serialize( ar );

  0026c	57		 push	 edi
  0026d	8b c8		 mov	 ecx, eax
  0026f	c7 45 fc ff ff
	ff ff		 mov	 DWORD PTR __$EHRec$[ebp+8], -1
  00276	89 86 a0 00 00
	00		 mov	 DWORD PTR [esi+160], eax
  0027c	e8 00 00 00 00	 call	 ?Serialize@CPet@@QAEXAAVCAr@@@Z ; CPet::Serialize
$LN9@Serialize:

; 128  : 		}
; 129  : #endif	// __PET_0410
; 130  : #if __VER >= 15 // __PETVIS
; 131  : 		ar >> m_bTranformVisPet;

  00281	8d 86 ac 00 00
	00		 lea	 eax, DWORD PTR [esi+172]
  00287	8b cf		 mov	 ecx, edi
  00289	50		 push	 eax
  0028a	e8 00 00 00 00	 call	 ??$?5H@CAr@@QAEAAV0@AAH@Z ; CAr::operator>><int>

; 132  : #endif // __PETVIS
; 133  : 
; 134  : #ifdef __CLIENT
; 135  : 		SetTexture();
; 136  : #endif
; 137  : 	}
; 138  : }

  0028f	8b 4d f4	 mov	 ecx, DWORD PTR __$EHRec$[ebp]
  00292	64 89 0d 00 00
	00 00		 mov	 DWORD PTR fs:0, ecx
  00299	59		 pop	 ecx
  0029a	5f		 pop	 edi
  0029b	5e		 pop	 esi
  0029c	5b		 pop	 ebx
  0029d	8b e5		 mov	 esp, ebp
  0029f	5d		 pop	 ebp
  002a0	c2 04 00	 ret	 4
_TEXT	ENDS
;	COMDAT text$x
text$x	SEGMENT
__unwindfunclet$?Serialize@CItemElem@@UAEXAAVCAr@@@Z$0:
  00000	6a 28		 push	 40			; 00000028H
  00002	8b 45 08	 mov	 eax, DWORD PTR $T4[ebp]
  00005	50		 push	 eax
  00006	e8 00 00 00 00	 call	 ??3@YAXPAXI@Z		; operator delete
  0000b	83 c4 08	 add	 esp, 8
  0000e	c3		 ret	 0
  0000f	cc		 int	 3
  00010	cc		 int	 3
  00011	cc		 int	 3
  00012	cc		 int	 3
  00013	cc		 int	 3
__ehhandler$?Serialize@CItemElem@@UAEXAAVCAr@@@Z:
  00014	90		 npad	 1
  00015	90		 npad	 1
  00016	8b 54 24 08	 mov	 edx, DWORD PTR [esp+8]
  0001a	8d 42 0c	 lea	 eax, DWORD PTR [edx+12]
  0001d	8b 4a f0	 mov	 ecx, DWORD PTR [edx-16]
  00020	33 c8		 xor	 ecx, eax
  00022	e8 00 00 00 00	 call	 @__security_check_cookie@4
  00027	b8 00 00 00 00	 mov	 eax, OFFSET __ehfuncinfo$?Serialize@CItemElem@@UAEXAAVCAr@@@Z
  0002c	e9 00 00 00 00	 jmp	 ___CxxFrameHandler3
text$x	ENDS
?Serialize@CItemElem@@UAEXAAVCAr@@@Z ENDP		; CItemElem::Serialize
; Function compile flags: /Ogtp
; File C:\IAGOS\server\v18\Source\Source\_Common\ObjSerialize.cpp
; File C:\IAGOS\server\v18\Source\Source\_Network\Misc\Include\ar.h
; File C:\IAGOS\server\v18\Source\Source\_Common\ObjSerialize.cpp
; File C:\IAGOS\server\v18\Source\Source\_Network\Misc\Include\ar.h
; File C:\IAGOS\server\v18\Source\Source\_Common\ObjSerialize.cpp
; File C:\IAGOS\server\v18\Source\Source\_Network\Misc\Include\ar.h
; File C:\IAGOS\server\v18\Source\Source\_Common\ObjSerialize.cpp
;	COMDAT ?Serialize@CItemBase@@UAEXAAVCAr@@@Z
_TEXT	SEGMENT
_ar$ = 8						; size = 4
?Serialize@CItemBase@@UAEXAAVCAr@@@Z PROC		; CItemBase::Serialize, COMDAT
; _this$ = ecx

; 32   : {

  00000	55		 push	 ebp
  00001	8b ec		 mov	 ebp, esp
  00003	53		 push	 ebx
  00004	56		 push	 esi
; File C:\IAGOS\server\v18\Source\Source\_Network\Misc\Include\ar.h

; 146  : 	return (m_nMode & CAr::load) == 0;

  00005	8b 75 08	 mov	 esi, DWORD PTR _ar$[ebp]
  00008	8d 41 0c	 lea	 eax, DWORD PTR [ecx+12]
; File C:\IAGOS\server\v18\Source\Source\_Common\ObjSerialize.cpp

; 32   : {

  0000b	57		 push	 edi
; File C:\IAGOS\server\v18\Source\Source\_Network\Misc\Include\ar.h

; 146  : 	return (m_nMode & CAr::load) == 0;

  0000c	8d 51 04	 lea	 edx, DWORD PTR [ecx+4]
; File C:\IAGOS\server\v18\Source\Source\_Common\ObjSerialize.cpp

; 33   : 	if( ar.IsStoring() )

  0000f	50		 push	 eax
; File C:\IAGOS\server\v18\Source\Source\_Network\Misc\Include\ar.h

; 146  : 	return (m_nMode & CAr::load) == 0;

  00010	f6 06 01	 test	 BYTE PTR [esi], 1
  00013	8d 79 38	 lea	 edi, DWORD PTR [ecx+56]
  00016	8d 59 14	 lea	 ebx, DWORD PTR [ecx+20]
; File C:\IAGOS\server\v18\Source\Source\_Common\ObjSerialize.cpp

; 33   : 	if( ar.IsStoring() )

  00019	8b ce		 mov	 ecx, esi
  0001b	52		 push	 edx
  0001c	75 23		 jne	 SHORT $LN2@Serialize

; 34   : 	{
; 35   : 		ar << m_dwObjId << m_dwItemId;

  0001e	e8 00 00 00 00	 call	 ??$?6K@CAr@@QAEAAV0@ABK@Z ; CAr::operator<<<unsigned long>
  00023	8b c8		 mov	 ecx, eax
  00025	e8 00 00 00 00	 call	 ??$?6K@CAr@@QAEAAV0@ABK@Z ; CAr::operator<<<unsigned long>

; 36   : 		ar << m_liSerialNumber;

  0002a	57		 push	 edi
  0002b	8b ce		 mov	 ecx, esi
  0002d	e8 00 00 00 00	 call	 ??$?6K@CAr@@QAEAAV0@ABK@Z ; CAr::operator<<<unsigned long>

; 37   : 		ar.WriteString( m_szItemText );

  00032	53		 push	 ebx
  00033	8b ce		 mov	 ecx, esi
  00035	e8 00 00 00 00	 call	 ?WriteString@CAr@@QAEXPBD@Z ; CAr::WriteString
  0003a	5f		 pop	 edi

; 44   : 	}
; 45   : }

  0003b	5e		 pop	 esi
  0003c	5b		 pop	 ebx
  0003d	5d		 pop	 ebp
  0003e	c2 04 00	 ret	 4
$LN2@Serialize:

; 38   : 	}
; 39   : 	else
; 40   : 	{
; 41   : 		ar >> m_dwObjId >> m_dwItemId;

  00041	e8 00 00 00 00	 call	 ??$?5K@CAr@@QAEAAV0@AAK@Z ; CAr::operator>><unsigned long>
  00046	8b c8		 mov	 ecx, eax
  00048	e8 00 00 00 00	 call	 ??$?5K@CAr@@QAEAAV0@AAK@Z ; CAr::operator>><unsigned long>

; 42   : 		ar >> m_liSerialNumber;

  0004d	57		 push	 edi
  0004e	8b ce		 mov	 ecx, esi
  00050	e8 00 00 00 00	 call	 ??$?5K@CAr@@QAEAAV0@AAK@Z ; CAr::operator>><unsigned long>

; 43   : 		ar.ReadString( m_szItemText, 32 );

  00055	6a 20		 push	 32			; 00000020H
  00057	53		 push	 ebx
  00058	8b ce		 mov	 ecx, esi
  0005a	e8 00 00 00 00	 call	 ?ReadString@CAr@@QAEPADPADH@Z ; CAr::ReadString
  0005f	5f		 pop	 edi

; 44   : 	}
; 45   : }

  00060	5e		 pop	 esi
  00061	5b		 pop	 ebx
  00062	5d		 pop	 ebp
  00063	c2 04 00	 ret	 4
?Serialize@CItemBase@@UAEXAAVCAr@@@Z ENDP		; CItemBase::Serialize
_TEXT	ENDS
; Function compile flags: /Ogtp
; File C:\IAGOS\server\v18\Source\Source\_Common\ObjSerialize.cpp
; File C:\IAGOS\server\v18\Source\Source\_Network\Misc\Include\ar.h
; File C:\IAGOS\server\v18\Source\Source\_Common\ObjSerialize.cpp
; File C:\IAGOS\server\v18\Source\Source\_Network\Misc\Include\ar.h
; File C:\IAGOS\server\v18\Source\Source\_Common\ObjSerialize.cpp
;	COMDAT ?Serialize@CCtrl@@UAEXAAVCAr@@@Z
_TEXT	SEGMENT
_ar$ = 8						; size = 4
?Serialize@CCtrl@@UAEXAAVCAr@@@Z PROC			; CCtrl::Serialize, COMDAT
; _this$ = ecx

; 16   : {

  00000	55		 push	 ebp
  00001	8b ec		 mov	 ebp, esp
  00003	56		 push	 esi
  00004	57		 push	 edi

; 17   : 	CObj::Serialize( ar );

  00005	8b 7d 08	 mov	 edi, DWORD PTR _ar$[ebp]
  00008	8b f1		 mov	 esi, ecx
  0000a	57		 push	 edi
  0000b	e8 00 00 00 00	 call	 ?Serialize@CObj@@UAEXAAVCAr@@@Z ; CObj::Serialize
; File C:\IAGOS\server\v18\Source\Source\_Network\Misc\Include\ar.h

; 146  : 	return (m_nMode & CAr::load) == 0;

  00010	81 c6 bc 01 00
	00		 add	 esi, 444		; 000001bcH
; File C:\IAGOS\server\v18\Source\Source\_Common\ObjSerialize.cpp

; 19   : 	if( ar.IsStoring() )

  00016	8b cf		 mov	 ecx, edi
; File C:\IAGOS\server\v18\Source\Source\_Network\Misc\Include\ar.h

; 146  : 	return (m_nMode & CAr::load) == 0;

  00018	f6 07 01	 test	 BYTE PTR [edi], 1
; File C:\IAGOS\server\v18\Source\Source\_Common\ObjSerialize.cpp

; 19   : 	if( ar.IsStoring() )

  0001b	56		 push	 esi
  0001c	75 0b		 jne	 SHORT $LN2@Serialize

; 20   : 	{
; 21   : 		ar << m_objid;

  0001e	e8 00 00 00 00	 call	 ??$?6K@CAr@@QAEAAV0@ABK@Z ; CAr::operator<<<unsigned long>
  00023	5f		 pop	 edi

; 26   : 	}
; 27   : }

  00024	5e		 pop	 esi
  00025	5d		 pop	 ebp
  00026	c2 04 00	 ret	 4
$LN2@Serialize:

; 22   : 	}
; 23   : 	else
; 24   : 	{
; 25   : 		ar >> m_objid;

  00029	e8 00 00 00 00	 call	 ??$?5K@CAr@@QAEAAV0@AAK@Z ; CAr::operator>><unsigned long>
  0002e	5f		 pop	 edi

; 26   : 	}
; 27   : }

  0002f	5e		 pop	 esi
  00030	5d		 pop	 ebp
  00031	c2 04 00	 ret	 4
?Serialize@CCtrl@@UAEXAAVCAr@@@Z ENDP			; CCtrl::Serialize
_TEXT	ENDS
; Function compile flags: /Ogtp
; File C:\IAGOS\server\v18\Source\Source\_Common\ObjSerialize.cpp
;	COMDAT ?__empty_global_delete@@YAXPAXI@Z
_TEXT	SEGMENT
___formal$ = 8						; size = 4
___formal$ = 12						; size = 4
?__empty_global_delete@@YAXPAXI@Z PROC			; __empty_global_delete, COMDAT

  00000	c2 00 00	 ret	 0
?__empty_global_delete@@YAXPAXI@Z ENDP			; __empty_global_delete
_TEXT	ENDS
; Function compile flags: /Ogtp
; File C:\IAGOS\server\v18\Source\Source\_Common\ObjSerialize.cpp
;	COMDAT ?__empty_global_delete@@YAXPAX@Z
_TEXT	SEGMENT
___formal$ = 8						; size = 4
?__empty_global_delete@@YAXPAX@Z PROC			; __empty_global_delete, COMDAT

  00000	c2 00 00	 ret	 0
?__empty_global_delete@@YAXPAX@Z ENDP			; __empty_global_delete
_TEXT	ENDS
END
