; Listing generated by Microsoft (R) Optimizing Compiler Version 19.44.35225.0 

	TITLE	C:\IAGOS\server\v18\Source\Output\WorldServer\Release\partyquest.obj
	.686P
	.XMM
	include listing.inc
	.model	flat

INCLUDELIB LIBCMT
INCLUDELIB OLDNAMES

CONST	SEGMENT
?piecewise_construct@std@@3Upiecewise_construct_t@1@B	ORG $+1 ; std::piecewise_construct
CONST	ENDS
PUBLIC	??_H@YGXPAXIIP6EPAX0@Z@Z			; `vector constructor iterator'
PUBLIC	?__empty_global_delete@@YAXPAX@Z		; __empty_global_delete
PUBLIC	?__empty_global_delete@@YAXPAXI@Z		; __empty_global_delete
PUBLIC	___local_stdio_printf_options
PUBLIC	?AtlThrowImpl@ATL@@YGXJ@Z			; ATL::AtlThrowImpl
PUBLIC	??1?$CSimpleStringT@D$0A@@ATL@@QAE@XZ		; ATL::CSimpleStringT<char,0>::~CSimpleStringT<char,0>
PUBLIC	?SetString@?$CSimpleStringT@D$0A@@ATL@@QAEXPBDH@Z ; ATL::CSimpleStringT<char,0>::SetString
PUBLIC	?ThrowMemoryException@?$CSimpleStringT@D$0A@@ATL@@KAXXZ ; ATL::CSimpleStringT<char,0>::ThrowMemoryException
PUBLIC	?Fork@?$CSimpleStringT@D$0A@@ATL@@AAEXH@Z	; ATL::CSimpleStringT<char,0>::Fork
PUBLIC	?PrepareWrite2@?$CSimpleStringT@D$0A@@ATL@@AAEXH@Z ; ATL::CSimpleStringT<char,0>::PrepareWrite2
PUBLIC	?Reallocate@?$CSimpleStringT@D$0A@@ATL@@AAEXH@Z	; ATL::CSimpleStringT<char,0>::Reallocate
PUBLIC	??1?$CStringT@DV?$StrTraitMFC@DV?$ChTraitsCRT@D@ATL@@@@@ATL@@QAE@XZ ; ATL::CStringT<char,StrTraitMFC<char,ATL::ChTraitsCRT<char> > >::~CStringT<char,StrTraitMFC<char,ATL::ChTraitsCRT<char> > >
PUBLIC	??Y?$CStringT@DV?$StrTraitMFC@DV?$ChTraitsCRT@D@ATL@@@@@ATL@@QAEAAV01@PBD@Z ; ATL::CStringT<char,StrTraitMFC<char,ATL::ChTraitsCRT<char> > >::operator+=
PUBLIC	?Format@?$CStringT@DV?$StrTraitMFC@DV?$ChTraitsCRT@D@ATL@@@@@ATL@@QAAXPBDZZ ; ATL::CStringT<char,StrTraitMFC<char,ATL::ChTraitsCRT<char> > >::Format
PUBLIC	?FormatV@?$CStringT@DV?$StrTraitMFC@DV?$ChTraitsCRT@D@ATL@@@@@ATL@@QAEXPBDPAD@Z ; ATL::CStringT<char,StrTraitMFC<char,ATL::ChTraitsCRT<char> > >::FormatV
PUBLIC	?LoadStringA@?$CStringT@DV?$StrTraitMFC@DV?$ChTraitsCRT@D@ATL@@@@@ATL@@QAEHI@Z ; ATL::CStringT<char,StrTraitMFC<char,ATL::ChTraitsCRT<char> > >::LoadStringA
PUBLIC	??0D3DXVECTOR3@@QAE@XZ				; D3DXVECTOR3::D3DXVECTOR3
PUBLIC	??0_PARTYQUESTELEM@@QAE@XZ			; _PARTYQUESTELEM::_PARTYQUESTELEM
PUBLIC	??0__PARTYQUESTRECT@@QAE@XZ			; __PARTYQUESTRECT::__PARTYQUESTRECT
PUBLIC	??0CPartyQuestProcessor@@QAE@XZ			; CPartyQuestProcessor::CPartyQuestProcessor
PUBLIC	??1CPartyQuestProcessor@@QAE@XZ			; CPartyQuestProcessor::~CPartyQuestProcessor
PUBLIC	?Process@CPartyQuestProcessor@@QAEXXZ		; CPartyQuestProcessor::Process
PUBLIC	?SetPartyQuest@CPartyQuestProcessor@@QAEXHHHHKK@Z ; CPartyQuestProcessor::SetPartyQuest
PUBLIC	?GetPartyQuest@CPartyQuestProcessor@@QAEPAU_PARTYQUESTELEM@@H@Z ; CPartyQuestProcessor::GetPartyQuest
PUBLIC	?GetPartyQuestRect@CPartyQuestProcessor@@QAEPAU__PARTYQUESTRECT@@H@Z ; CPartyQuestProcessor::GetPartyQuestRect
PUBLIC	?RemovePartyQuest@CPartyQuestProcessor@@QAEXH@Z	; CPartyQuestProcessor::RemovePartyQuest
PUBLIC	?IsQuesting@CPartyQuestProcessor@@QAEHH@Z	; CPartyQuestProcessor::IsQuesting
PUBLIC	?GetInstance@CPartyQuestProcessor@@SAPAV1@XZ	; CPartyQuestProcessor::GetInstance
PUBLIC	?RemoveAllDynamicObj@CPartyQuestProcessor@@QAEXKUD3DXVECTOR3@@H@Z ; CPartyQuestProcessor::RemoveAllDynamicObj
PUBLIC	?SendQuestLimitTime@CPartyQuestProcessor@@QAEXHKK@Z ; CPartyQuestProcessor::SendQuestLimitTime
PUBLIC	?AddQuestRect@CPartyQuestProcessor@@QAEXHKHHHH@Z ; CPartyQuestProcessor::AddQuestRect
PUBLIC	?PtInQuestRect@CPartyQuestProcessor@@QAEHKABUD3DXVECTOR3@@@Z ; CPartyQuestProcessor::PtInQuestRect
PUBLIC	?_OptionsStorage@?1??__local_stdio_printf_options@@9@4_KA ; `__local_stdio_printf_options'::`2'::_OptionsStorage
PUBLIC	??_C@_00CNPNBAHC@@				; `string'
PUBLIC	??_C@_0BI@MGKOPPCK@StartPartyQuestInfo?4txt@	; `string'
PUBLIC	??_C@_0CF@ECCMBMMP@DATE?5?3?5?$CFd?$CF?42d?$CF?42d?6TIME?5?3?5?$CFd?3?3?$CFd@ ; `string'
PUBLIC	??_C@_0CO@DHJCABDL@QUEST?5ID?5?$DN?5?$CFd?0?5PARTY?5ID?5?$DN?5?$CFd?0?5W@ ; `string'
PUBLIC	??_C@_01EEMJAFIK@?6@				; `string'
PUBLIC	??_C@_07CEGMOJAH@?$CFs?$CFs?$CFs?6@		; `string'
PUBLIC	__real@42c80000
EXTRN	_atexit:PROC
EXTRN	__Init_thread_header:PROC
EXTRN	__Init_thread_footer:PROC
EXTRN	__invalid_parameter_noinfo:PROC
EXTRN	__errno:PROC
EXTRN	_strnlen:PROC
EXTRN	__imp__GetTickCount@0:PROC
EXTRN	__imp__LoadResource@8:PROC
EXTRN	__imp__LockResource@4:PROC
EXTRN	__imp__SizeofResource@8:PROC
EXTRN	__imp__FindResourceW@12:PROC
EXTRN	__imp__SetRect@20:PROC
EXTRN	__imp__PtInRect@12:PROC
EXTRN	__imp__WideCharToMultiByte@32:PROC
EXTRN	___stdio_common_vsprintf:PROC
EXTRN	___stdio_common_vsprintf_s:PROC
EXTRN	__localtime64_s:PROC
EXTRN	__time64:PROC
EXTRN	?AfxThrowMemoryException@@YGXXZ:PROC		; AfxThrowMemoryException
EXTRN	?AfxThrowOleException@@YGXJ@Z:PROC		; AfxThrowOleException
EXTRN	?AfxFindStringResourceHandle@@YGPAUHINSTANCE__@@I@Z:PROC ; AfxFindStringResourceHandle
EXTRN	?AfxGetStringManager@@YGPAUIAtlStringMgr@ATL@@XZ:PROC ; AfxGetStringManager
EXTRN	?FILEOUT@@YAXPBD0ZZ:PROC			; FILEOUT
EXTRN	?Error@@YAPBDPBDZZ:PROC				; Error
EXTRN	?Delete@CObj@@QAEXXZ:PROC			; CObj::Delete
EXTRN	?GetPartyQuestProp@CProject@@QAEPAUPARTYQUESTPROP@@H@Z:PROC ; CProject::GetPartyQuestProp
EXTRN	?GetName@CMover@@QAEPBDH@Z:PROC			; CMover::GetName
EXTRN	?Replace@CMover@@QAEHKKAAUD3DXVECTOR3@@W4REPLACE_TYPE@@H@Z:PROC ; CMover::Replace
EXTRN	?GetLinkWidth@CLayeredLinkMap@@QAEHKHH@Z:PROC	; CLayeredLinkMap::GetLinkWidth
EXTRN	?GetObj@CLayeredLinkMap@@QAEPAPAVCObj@@KKH@Z:PROC ; CLayeredLinkMap::GetObj
EXTRN	?GetMaxLinkLevel@CLayeredLinkMap@@QAEHKH@Z:PROC	; CLayeredLinkMap::GetMaxLinkLevel
EXTRN	?GetParty@CPartyMng@@QAEPAVCParty@@K@Z:PROC	; CPartyMng::GetParty
EXTRN	?AddQuestTextTime@CUser@@QAEXHHK@Z:PROC		; CUser::AddQuestTextTime
EXTRN	?GetWorld@CWorldMng@@QAEPAVCWorld@@K@Z:PROC	; CWorldMng::GetWorld
EXTRN	@__security_check_cookie@4:PROC
EXTRN	___CxxFrameHandler3:PROC
EXTRN	_memcpy:PROC
EXTRN	_memmove:PROC
EXTRN	_memset:PROC
EXTRN	__Init_thread_epoch:DWORD
EXTRN	?prj@@3VCProject@@A:BYTE			; prj
EXTRN	?g_uIdofMulti@@3KA:DWORD			; g_uIdofMulti
EXTRN	?g_PartyMng@@3VCPartyMng@@A:BYTE		; g_PartyMng
EXTRN	?g_WorldMng@@3VCWorldMng@@A:BYTE		; g_WorldMng
EXTRN	___security_cookie:DWORD
EXTRN	__fltused:DWORD
EXTRN	__tls_array:DWORD
EXTRN	__tls_index:DWORD
;	COMDAT ?_OptionsStorage@?1??__local_stdio_printf_options@@9@4_KA
_BSS	SEGMENT
?_OptionsStorage@?1??__local_stdio_printf_options@@9@4_KA DQ 01H DUP (?) ; `__local_stdio_printf_options'::`2'::_OptionsStorage
_BSS	ENDS
;	COMDAT ?sPartyQuestProcessor@?1??GetInstance@CPartyQuestProcessor@@SAPAV2@XZ@4V2@A
_BSS	SEGMENT
?sPartyQuestProcessor@?1??GetInstance@CPartyQuestProcessor@@SAPAV2@XZ@4V2@A DB 03404H DUP (?) ; `CPartyQuestProcessor::GetInstance'::`2'::sPartyQuestProcessor
_BSS	ENDS
;	COMDAT ?$TSS0@?1??GetInstance@CPartyQuestProcessor@@SAPAV2@XZ@4HA
_BSS	SEGMENT
?$TSS0@?1??GetInstance@CPartyQuestProcessor@@SAPAV2@XZ@4HA DD 01H DUP (?) ; `CPartyQuestProcessor::GetInstance'::`2'::$TSS0
_BSS	ENDS
;	COMDAT __real@42c80000
CONST	SEGMENT
__real@42c80000 DD 042c80000r			; 100
CONST	ENDS
;	COMDAT ??_C@_07CEGMOJAH@?$CFs?$CFs?$CFs?6@
CONST	SEGMENT
??_C@_07CEGMOJAH@?$CFs?$CFs?$CFs?6@ DB '%s%s%s', 0aH, 00H ; `string'
CONST	ENDS
;	COMDAT ??_C@_01EEMJAFIK@?6@
CONST	SEGMENT
??_C@_01EEMJAFIK@?6@ DB 0aH, 00H			; `string'
CONST	ENDS
;	COMDAT ??_C@_0CO@DHJCABDL@QUEST?5ID?5?$DN?5?$CFd?0?5PARTY?5ID?5?$DN?5?$CFd?0?5W@
CONST	SEGMENT
??_C@_0CO@DHJCABDL@QUEST?5ID?5?$DN?5?$CFd?0?5PARTY?5ID?5?$DN?5?$CFd?0?5W@ DB 'Q'
	DB	'UEST ID = %d, PARTY ID = %d, WORMON ID = %d', 0aH, 00H ; `string'
CONST	ENDS
;	COMDAT ??_C@_0CF@ECCMBMMP@DATE?5?3?5?$CFd?$CF?42d?$CF?42d?6TIME?5?3?5?$CFd?3?3?$CFd@
CONST	SEGMENT
??_C@_0CF@ECCMBMMP@DATE?5?3?5?$CFd?$CF?42d?$CF?42d?6TIME?5?3?5?$CFd?3?3?$CFd@ DB 'D'
	DB	'ATE : %d%.2d%.2d', 0aH, 'TIME : %d::%d::%d', 0aH, 00H ; `string'
CONST	ENDS
;	COMDAT ??_C@_0BI@MGKOPPCK@StartPartyQuestInfo?4txt@
CONST	SEGMENT
??_C@_0BI@MGKOPPCK@StartPartyQuestInfo?4txt@ DB 'StartPartyQuestInfo.txt', 00H ; `string'
CONST	ENDS
;	COMDAT ??_C@_00CNPNBAHC@@
CONST	SEGMENT
??_C@_00CNPNBAHC@@ DB 00H				; `string'
CONST	ENDS
;	COMDAT xdata$x
xdata$x	SEGMENT
__ehfuncinfo$?SetPartyQuest@CPartyQuestProcessor@@QAEXHHHHKK@Z DD 019930522H
	DD	05H
	DD	FLAT:__unwindtable$?SetPartyQuest@CPartyQuestProcessor@@QAEXHHHHKK@Z
	DD	2 DUP(00H)
	DD	2 DUP(00H)
	DD	00H
	DD	01H
__unwindtable$?SetPartyQuest@CPartyQuestProcessor@@QAEXHHHHKK@Z DD 0ffffffffH
	DD	FLAT:__unwindfunclet$?SetPartyQuest@CPartyQuestProcessor@@QAEXHHHHKK@Z$4
	DD	0ffffffffH
	DD	FLAT:__unwindfunclet$?SetPartyQuest@CPartyQuestProcessor@@QAEXHHHHKK@Z$0
	DD	01H
	DD	FLAT:__unwindfunclet$?SetPartyQuest@CPartyQuestProcessor@@QAEXHHHHKK@Z$1
	DD	02H
	DD	FLAT:__unwindfunclet$?SetPartyQuest@CPartyQuestProcessor@@QAEXHHHHKK@Z$2
	DD	03H
	DD	FLAT:__unwindfunclet$?SetPartyQuest@CPartyQuestProcessor@@QAEXHHHHKK@Z$3
xdata$x	ENDS
;	COMDAT xdata$x
xdata$x	SEGMENT
__unwindtable$?FormatV@?$CStringT@DV?$StrTraitMFC@DV?$ChTraitsCRT@D@ATL@@@@@ATL@@QAEXPBDPAD@Z DD 0ffffffffH
	DD	FLAT:__unwindfunclet$?FormatV@?$CStringT@DV?$StrTraitMFC@DV?$ChTraitsCRT@D@ATL@@@@@ATL@@QAEXPBDPAD@Z$1
	DD	0ffffffffH
	DD	FLAT:__unwindfunclet$?FormatV@?$CStringT@DV?$StrTraitMFC@DV?$ChTraitsCRT@D@ATL@@@@@ATL@@QAEXPBDPAD@Z$0
__ehfuncinfo$?FormatV@?$CStringT@DV?$StrTraitMFC@DV?$ChTraitsCRT@D@ATL@@@@@ATL@@QAEXPBDPAD@Z DD 019930522H
	DD	02H
	DD	FLAT:__unwindtable$?FormatV@?$CStringT@DV?$StrTraitMFC@DV?$ChTraitsCRT@D@ATL@@@@@ATL@@QAEXPBDPAD@Z
	DD	2 DUP(00H)
	DD	2 DUP(00H)
	DD	00H
	DD	01H
xdata$x	ENDS
;	COMDAT xdata$x
xdata$x	SEGMENT
__unwindtable$??0?$CStringT@DV?$StrTraitMFC@DV?$ChTraitsCRT@D@ATL@@@@@ATL@@QAE@PBDPAUIAtlStringMgr@1@@Z DD 0ffffffffH
	DD	FLAT:__unwindfunclet$??0?$CStringT@DV?$StrTraitMFC@DV?$ChTraitsCRT@D@ATL@@@@@ATL@@QAE@PBDPAUIAtlStringMgr@1@@Z$0
__ehfuncinfo$??0?$CStringT@DV?$StrTraitMFC@DV?$ChTraitsCRT@D@ATL@@@@@ATL@@QAE@PBDPAUIAtlStringMgr@1@@Z DD 019930522H
	DD	01H
	DD	FLAT:__unwindtable$??0?$CStringT@DV?$StrTraitMFC@DV?$ChTraitsCRT@D@ATL@@@@@ATL@@QAE@PBDPAUIAtlStringMgr@1@@Z
	DD	2 DUP(00H)
	DD	2 DUP(00H)
	DD	00H
	DD	01H
xdata$x	ENDS
;	COMDAT xdata$x
xdata$x	SEGMENT
__unwindtable$??0?$CStringT@DV?$StrTraitMFC@DV?$ChTraitsCRT@D@ATL@@@@@ATL@@QAE@PBD@Z DD 0ffffffffH
	DD	FLAT:__unwindfunclet$??0?$CStringT@DV?$StrTraitMFC@DV?$ChTraitsCRT@D@ATL@@@@@ATL@@QAE@PBD@Z$0
__ehfuncinfo$??0?$CStringT@DV?$StrTraitMFC@DV?$ChTraitsCRT@D@ATL@@@@@ATL@@QAE@PBD@Z DD 019930522H
	DD	01H
	DD	FLAT:__unwindtable$??0?$CStringT@DV?$StrTraitMFC@DV?$ChTraitsCRT@D@ATL@@@@@ATL@@QAE@PBD@Z
	DD	2 DUP(00H)
	DD	2 DUP(00H)
	DD	00H
	DD	01H
xdata$x	ENDS
; Function compile flags: /Ogtp
;	COMDAT ??__FsPartyQuestProcessor@?1??GetInstance@CPartyQuestProcessor@@SAPAV1@XZ@YAXXZ
text$yd	SEGMENT
??__FsPartyQuestProcessor@?1??GetInstance@CPartyQuestProcessor@@SAPAV1@XZ@YAXXZ PROC ; `CPartyQuestProcessor::GetInstance'::`2'::`dynamic atexit destructor for 'sPartyQuestProcessor'', COMDAT
  00000	b9 00 00 00 00	 mov	 ecx, OFFSET ?sPartyQuestProcessor@?1??GetInstance@CPartyQuestProcessor@@SAPAV2@XZ@4V2@A
  00005	e9 00 00 00 00	 jmp	 ??1CPartyQuestProcessor@@QAE@XZ ; CPartyQuestProcessor::~CPartyQuestProcessor
??__FsPartyQuestProcessor@?1??GetInstance@CPartyQuestProcessor@@SAPAV1@XZ@YAXXZ ENDP ; `CPartyQuestProcessor::GetInstance'::`2'::`dynamic atexit destructor for 'sPartyQuestProcessor''
text$yd	ENDS
; Function compile flags: /Ogtp
; File C:\IAGOS\server\v18\Source\Source\_Common\partyquest.cpp
; File C:\Program Files\Microsoft Visual Studio\2022\Professional\VC\Tools\MSVC\14.44.35207\atlmfc\include\atltypes.h
; File C:\IAGOS\server\v18\Source\Source\_Common\partyquest.cpp
;	COMDAT ?PtInQuestRect@CPartyQuestProcessor@@QAEHKABUD3DXVECTOR3@@@Z
_TEXT	SEGMENT
_point$2$ = -4						; size = 4
_dwWorldId$ = 8						; size = 4
_vPos$ = 12						; size = 4
_point$1$ = 12						; size = 4
?PtInQuestRect@CPartyQuestProcessor@@QAEHKABUD3DXVECTOR3@@@Z PROC ; CPartyQuestProcessor::PtInQuestRect, COMDAT
; _this$ = ecx

; 433  : {

  00000	55		 push	 ebp
  00001	8b ec		 mov	 ebp, esp
  00003	51		 push	 ecx

; 434  : 	POINT point	= { (int)vPos.x, (int)vPos.z	};

  00004	8b 45 0c	 mov	 eax, DWORD PTR _vPos$[ebp]
  00007	53		 push	 ebx
  00008	8b d9		 mov	 ebx, ecx
  0000a	56		 push	 esi
  0000b	f3 0f 2c 08	 cvttss2si ecx, DWORD PTR [eax]
  0000f	57		 push	 edi

; 435  : 	for( int i = 0; i < m_nRect; i++ )

  00010	33 ff		 xor	 edi, edi
  00012	f3 0f 2c 50 08	 cvttss2si edx, DWORD PTR [eax+8]
  00017	89 4d 0c	 mov	 DWORD PTR _point$1$[ebp], ecx
  0001a	89 55 fc	 mov	 DWORD PTR _point$2$[ebp], edx
  0001d	39 bb 00 34 00
	00		 cmp	 DWORD PTR [ebx+13312], edi
  00023	7e 32		 jle	 SHORT $LN12@PtInQuestR

; 434  : 	POINT point	= { (int)vPos.x, (int)vPos.z	};

  00025	8b 45 08	 mov	 eax, DWORD PTR _dwWorldId$[ebp]
  00028	8d b3 08 1c 00
	00		 lea	 esi, DWORD PTR [ebx+7176]
  0002e	66 90		 npad	 2
$LL4@PtInQuestR:

; 438  : 		if( m_pRect[i].dwWorldId == dwWorldId && m_pRect[i].rect.PtInRect( point ) )

  00030	39 46 fc	 cmp	 DWORD PTR [esi-4], eax
  00033	75 16		 jne	 SHORT $LN2@PtInQuestR
; File C:\Program Files\Microsoft Visual Studio\2022\Professional\VC\Tools\MSVC\14.44.35207\atlmfc\include\atltypes.h

; 652  : 	return ::PtInRect(this, point);

  00035	52		 push	 edx
  00036	51		 push	 ecx
  00037	56		 push	 esi
  00038	ff 15 00 00 00
	00		 call	 DWORD PTR __imp__PtInRect@12
; File C:\IAGOS\server\v18\Source\Source\_Common\partyquest.cpp

; 438  : 		if( m_pRect[i].dwWorldId == dwWorldId && m_pRect[i].rect.PtInRect( point ) )

  0003e	85 c0		 test	 eax, eax
  00040	75 21		 jne	 SHORT $LN10@PtInQuestR
  00042	8b 45 08	 mov	 eax, DWORD PTR _dwWorldId$[ebp]
  00045	8b 4d 0c	 mov	 ecx, DWORD PTR _point$1$[ebp]
  00048	8b 55 fc	 mov	 edx, DWORD PTR _point$2$[ebp]
$LN2@PtInQuestR:

; 435  : 	for( int i = 0; i < m_nRect; i++ )

  0004b	47		 inc	 edi
  0004c	83 c6 18	 add	 esi, 24			; 00000018H
  0004f	3b bb 00 34 00
	00		 cmp	 edi, DWORD PTR [ebx+13312]
  00055	7c d9		 jl	 SHORT $LL4@PtInQuestR
$LN12@PtInQuestR:
  00057	5f		 pop	 edi

; 440  : 	}
; 441  : 	return -1;
; 442  : }

  00058	5e		 pop	 esi
  00059	83 c8 ff	 or	 eax, -1
  0005c	5b		 pop	 ebx
  0005d	8b e5		 mov	 esp, ebp
  0005f	5d		 pop	 ebp
  00060	c2 08 00	 ret	 8
$LN10@PtInQuestR:

; 439  : 			return m_pRect[i].nId;

  00063	8d 04 7f	 lea	 eax, DWORD PTR [edi+edi*2]
  00066	8b 84 c3 00 1c
	00 00		 mov	 eax, DWORD PTR [ebx+eax*8+7168]
  0006d	5f		 pop	 edi

; 440  : 	}
; 441  : 	return -1;
; 442  : }

  0006e	5e		 pop	 esi
  0006f	5b		 pop	 ebx
  00070	8b e5		 mov	 esp, ebp
  00072	5d		 pop	 ebp
  00073	c2 08 00	 ret	 8
?PtInQuestRect@CPartyQuestProcessor@@QAEHKABUD3DXVECTOR3@@@Z ENDP ; CPartyQuestProcessor::PtInQuestRect
_TEXT	ENDS
; Function compile flags: /Ogtp
; File C:\IAGOS\server\v18\Source\Source\_Common\partyquest.cpp
; File C:\Program Files\Microsoft Visual Studio\2022\Professional\VC\Tools\MSVC\14.44.35207\atlmfc\include\atltypes.h
; File C:\IAGOS\server\v18\Source\Source\_Common\partyquest.cpp
; File C:\Program Files\Microsoft Visual Studio\2022\Professional\VC\Tools\MSVC\14.44.35207\atlmfc\include\atltypes.h
; File C:\IAGOS\server\v18\Source\Source\_Common\partyquest.cpp
; File C:\Program Files\Microsoft Visual Studio\2022\Professional\VC\Tools\MSVC\14.44.35207\atlmfc\include\atltypes.h
; File C:\IAGOS\server\v18\Source\Source\_Common\partyquest.cpp
; File C:\Program Files\Microsoft Visual Studio\2022\Professional\VC\Tools\MSVC\14.44.35207\atlmfc\include\atltypes.h
; File C:\IAGOS\server\v18\Source\Source\_Common\partyquest.cpp
;	COMDAT ?AddQuestRect@CPartyQuestProcessor@@QAEXHKHHHH@Z
_TEXT	SEGMENT
_nId$ = 8						; size = 4
_dwWorldId$ = 12					; size = 4
_x1$ = 16						; size = 4
_y1$ = 20						; size = 4
_x2$ = 24						; size = 4
_y2$ = 28						; size = 4
?AddQuestRect@CPartyQuestProcessor@@QAEXHKHHHH@Z PROC	; CPartyQuestProcessor::AddQuestRect, COMDAT
; _this$ = ecx

; 422  : {

  00000	55		 push	 ebp
  00001	8b ec		 mov	 ebp, esp
  00003	56		 push	 esi
  00004	8b f1		 mov	 esi, ecx

; 423  : 	if( m_nRect >= MAX_PARTY_QUEST )

  00006	8b 86 00 34 00
	00		 mov	 eax, DWORD PTR [esi+13312]
  0000c	3d 00 01 00 00	 cmp	 eax, 256		; 00000100H
  00011	7d 4a		 jge	 SHORT $LN1@AddQuestRe
; File C:\Program Files\Microsoft Visual Studio\2022\Professional\VC\Tools\MSVC\14.44.35207\atlmfc\include\atltypes.h

; 661  : 	::SetRect(this, x1, y1, x2, y2);

  00013	ff 75 14	 push	 DWORD PTR _y1$[ebp]
; File C:\IAGOS\server\v18\Source\Source\_Common\partyquest.cpp

; 426  : 	m_pRect[m_nRect].nId	= nId;

  00016	8d 14 40	 lea	 edx, DWORD PTR [eax+eax*2]
  00019	8b 45 08	 mov	 eax, DWORD PTR _nId$[ebp]
; File C:\Program Files\Microsoft Visual Studio\2022\Professional\VC\Tools\MSVC\14.44.35207\atlmfc\include\atltypes.h

; 661  : 	::SetRect(this, x1, y1, x2, y2);

  0001c	ff 75 18	 push	 DWORD PTR _x2$[ebp]
; File C:\IAGOS\server\v18\Source\Source\_Common\partyquest.cpp

; 426  : 	m_pRect[m_nRect].nId	= nId;

  0001f	89 84 d6 00 1c
	00 00		 mov	 DWORD PTR [esi+edx*8+7168], eax

; 427  : 	m_pRect[m_nRect].dwWorldId	= dwWorldId;

  00026	8b 86 00 34 00
	00		 mov	 eax, DWORD PTR [esi+13312]
; File C:\Program Files\Microsoft Visual Studio\2022\Professional\VC\Tools\MSVC\14.44.35207\atlmfc\include\atltypes.h

; 661  : 	::SetRect(this, x1, y1, x2, y2);

  0002c	ff 75 1c	 push	 DWORD PTR _y2$[ebp]
  0002f	ff 75 10	 push	 DWORD PTR _x1$[ebp]
; File C:\IAGOS\server\v18\Source\Source\_Common\partyquest.cpp

; 427  : 	m_pRect[m_nRect].dwWorldId	= dwWorldId;

  00032	8d 0c 40	 lea	 ecx, DWORD PTR [eax+eax*2]
  00035	8b 45 0c	 mov	 eax, DWORD PTR _dwWorldId$[ebp]
  00038	89 84 ce 04 1c
	00 00		 mov	 DWORD PTR [esi+ecx*8+7172], eax

; 428  : 	m_pRect[m_nRect].rect.SetRect( x1, y2, x2, y1 );

  0003f	8b 86 00 34 00
	00		 mov	 eax, DWORD PTR [esi+13312]
  00045	05 2b 01 00 00	 add	 eax, 299		; 0000012bH
  0004a	8d 04 40	 lea	 eax, DWORD PTR [eax+eax*2]
  0004d	8d 04 c6	 lea	 eax, DWORD PTR [esi+eax*8]
; File C:\Program Files\Microsoft Visual Studio\2022\Professional\VC\Tools\MSVC\14.44.35207\atlmfc\include\atltypes.h

; 661  : 	::SetRect(this, x1, y1, x2, y2);

  00050	50		 push	 eax
  00051	ff 15 00 00 00
	00		 call	 DWORD PTR __imp__SetRect@20
; File C:\IAGOS\server\v18\Source\Source\_Common\partyquest.cpp

; 429  : 	m_nRect++;

  00057	ff 86 00 34 00
	00		 inc	 DWORD PTR [esi+13312]
$LN1@AddQuestRe:
  0005d	5e		 pop	 esi

; 430  : }

  0005e	5d		 pop	 ebp
  0005f	c2 18 00	 ret	 24			; 00000018H
?AddQuestRect@CPartyQuestProcessor@@QAEXHKHHHH@Z ENDP	; CPartyQuestProcessor::AddQuestRect
_TEXT	ENDS
; Function compile flags: /Ogtp
; File C:\IAGOS\server\v18\Source\Source\_Common\partyquest.cpp
; File C:\Program Files\Microsoft Visual Studio\2022\Professional\VC\Tools\MSVC\14.44.35207\include\xtree
; File C:\IAGOS\server\v18\Source\Source\_Common\partyquest.cpp
; File C:\Program Files\Microsoft Visual Studio\2022\Professional\VC\Tools\MSVC\14.44.35207\include\xtree
; File C:\Program Files\Microsoft Visual Studio\2022\Professional\VC\Tools\MSVC\14.44.35207\include\type_traits
; File C:\Program Files\Microsoft Visual Studio\2022\Professional\VC\Tools\MSVC\14.44.35207\include\xtree
; File C:\Program Files\Microsoft Visual Studio\2022\Professional\VC\Tools\MSVC\14.44.35207\include\type_traits
; File C:\Program Files\Microsoft Visual Studio\2022\Professional\VC\Tools\MSVC\14.44.35207\include\xtree
; File C:\IAGOS\server\v18\Source\Source\_Common\Project.h
; File C:\IAGOS\server\v18\Source\Source\_Common\Obj.h
; File C:\IAGOS\server\v18\Source\Source\_Common\partyquest.cpp
;	COMDAT ?SendQuestLimitTime@CPartyQuestProcessor@@QAEXHKK@Z
_TEXT	SEGMENT
_nState$ = 8						; size = 4
_dwTime$ = 12						; size = 4
_idParty$ = 16						; size = 4
_pParty$1$ = 16						; size = 4
?SendQuestLimitTime@CPartyQuestProcessor@@QAEXHKK@Z PROC ; CPartyQuestProcessor::SendQuestLimitTime, COMDAT
; _this$ = ecx

; 338  : {

  00000	55		 push	 ebp
  00001	8b ec		 mov	 ebp, esp

; 339  : 	CParty* pParty	= g_PartyMng.GetParty( idParty );

  00003	ff 75 10	 push	 DWORD PTR _idParty$[ebp]
  00006	b9 00 00 00 00	 mov	 ecx, OFFSET ?g_PartyMng@@3VCPartyMng@@A ; g_PartyMng
  0000b	e8 00 00 00 00	 call	 ?GetParty@CPartyMng@@QAEPAVCParty@@K@Z ; CPartyMng::GetParty
  00010	89 45 10	 mov	 DWORD PTR _pParty$1$[ebp], eax

; 340  : 	if( pParty )

  00013	85 c0		 test	 eax, eax
  00015	0f 84 7c 00 00
	00		 je	 $LN3@SendQuestL

; 341  : 	{
; 342  : 		for( int i = 0 ; i < pParty->GetSizeofMember() ; ++i )

  0001b	57		 push	 edi
  0001c	33 ff		 xor	 edi, edi
  0001e	39 b8 cc 01 00
	00		 cmp	 DWORD PTR [eax+460], edi
  00024	7e 70		 jle	 SHORT $LN93@SendQuestL
  00026	53		 push	 ebx
  00027	56		 push	 esi
  00028	8b 35 28 00 00
	00		 mov	 esi, DWORD PTR ?prj@@3VCProject@@A+40
  0002e	8d 58 28	 lea	 ebx, DWORD PTR [eax+40]
$LL4@SendQuestL:
; File C:\Program Files\Microsoft Visual Studio\2022\Professional\VC\Tools\MSVC\14.44.35207\include\xtree

; 1630 :         _Tree_find_result<_Nodeptr> _Result{{_Scary->_Myhead->_Parent, _Tree_child::_Right}, _Scary->_Myhead};

  00031	8b 46 04	 mov	 eax, DWORD PTR [esi+4]
  00034	8b ce		 mov	 ecx, esi
; File C:\IAGOS\server\v18\Source\Source\_Common\partyquest.cpp

; 344  : 			CUser* pUsertmp = (CUser *)prj.GetUserByID( pParty->GetPlayerId( i ) );

  00036	8b 13		 mov	 edx, DWORD PTR [ebx]
; File C:\Program Files\Microsoft Visual Studio\2022\Professional\VC\Tools\MSVC\14.44.35207\include\xtree

; 1632 :         while (!_Trynode->_Isnil) {

  00038	80 78 0d 00	 cmp	 BYTE PTR [eax+13], 0
  0003c	75 16		 jne	 SHORT $LN20@SendQuestL
  0003e	66 90		 npad	 2
$LL19@SendQuestL:
; File C:\Program Files\Microsoft Visual Studio\2022\Professional\VC\Tools\MSVC\14.44.35207\include\type_traits

; 2380 :         return _Left < _Right;

  00040	39 50 10	 cmp	 DWORD PTR [eax+16], edx
; File C:\Program Files\Microsoft Visual Studio\2022\Professional\VC\Tools\MSVC\14.44.35207\include\xtree

; 1634 :             if (_DEBUG_LT_PRED(_Getcomp(), _Traits::_Kfn(_Trynode->_Myval), _Keyval)) {

  00043	73 05		 jae	 SHORT $LN21@SendQuestL

; 1635 :                 _Result._Location._Child = _Tree_child::_Right;
; 1636 :                 _Trynode                 = _Trynode->_Right;

  00045	8b 40 08	 mov	 eax, DWORD PTR [eax+8]

; 1637 :             } else {

  00048	eb 04		 jmp	 SHORT $LN22@SendQuestL
$LN21@SendQuestL:

; 1638 :                 _Result._Location._Child = _Tree_child::_Left;
; 1639 :                 _Result._Bound           = _Trynode;

  0004a	8b c8		 mov	 ecx, eax

; 1640 :                 _Trynode                 = _Trynode->_Left;

  0004c	8b 00		 mov	 eax, DWORD PTR [eax]
$LN22@SendQuestL:

; 1632 :         while (!_Trynode->_Isnil) {

  0004e	80 78 0d 00	 cmp	 BYTE PTR [eax+13], 0
  00052	74 ec		 je	 SHORT $LL19@SendQuestL
$LN20@SendQuestL:

; 1624 :         return !_Bound->_Isnil && !_DEBUG_LT_PRED(_Getcomp(), _Keyval, _Traits::_Kfn(_Bound->_Myval));

  00054	80 79 0d 00	 cmp	 BYTE PTR [ecx+13], 0
  00058	75 05		 jne	 SHORT $LN16@SendQuestL
; File C:\Program Files\Microsoft Visual Studio\2022\Professional\VC\Tools\MSVC\14.44.35207\include\type_traits

; 2380 :         return _Left < _Right;

  0005a	3b 51 10	 cmp	 edx, DWORD PTR [ecx+16]
; File C:\Program Files\Microsoft Visual Studio\2022\Professional\VC\Tools\MSVC\14.44.35207\include\xtree

; 1624 :         return !_Bound->_Isnil && !_DEBUG_LT_PRED(_Getcomp(), _Keyval, _Traits::_Kfn(_Bound->_Myval));

  0005d	73 02		 jae	 SHORT $LN15@SendQuestL
$LN16@SendQuestL:

; 1389 :         return _Get_scary()->_Myhead;

  0005f	8b ce		 mov	 ecx, esi
$LN15@SendQuestL:

; 37   :     _Tree_unchecked_const_iterator(_Nodeptr _Pnode, const _Mytree* _Plist) noexcept : _Ptr(_Pnode) {

  00061	3b ce		 cmp	 ecx, esi
; File C:\IAGOS\server\v18\Source\Source\_Common\Project.h

; 1436 : 	if( i != m_idPlayerToUserPtr.end() )

  00063	74 20		 je	 SHORT $LN2@SendQuestL

; 1437 : 		return i->second;

  00065	8b 49 14	 mov	 ecx, DWORD PTR [ecx+20]
; File C:\IAGOS\server\v18\Source\Source\_Common\Obj.h

; 327  : 	return pObj && ( pObj->IsDelete() == FALSE ); 

  00068	85 c9		 test	 ecx, ecx
  0006a	74 19		 je	 SHORT $LN2@SendQuestL

; 180  : 	BOOL			IsDelete()	{ return (m_dwFlags & OBJ_FLAG_DELETE);  }

  0006c	f6 41 04 01	 test	 BYTE PTR [ecx+4], 1

; 327  : 	return pObj && ( pObj->IsDelete() == FALSE ); 

  00070	75 13		 jne	 SHORT $LN2@SendQuestL
; File C:\IAGOS\server\v18\Source\Source\_Common\partyquest.cpp

; 347  : 				pUsertmp->AddQuestTextTime( 1, nState, dwTime );

  00072	ff 75 0c	 push	 DWORD PTR _dwTime$[ebp]
  00075	ff 75 08	 push	 DWORD PTR _nState$[ebp]
  00078	6a 01		 push	 1
  0007a	e8 00 00 00 00	 call	 ?AddQuestTextTime@CUser@@QAEXHHK@Z ; CUser::AddQuestTextTime
  0007f	8b 35 28 00 00
	00		 mov	 esi, DWORD PTR ?prj@@3VCProject@@A+40
$LN2@SendQuestL:

; 341  : 	{
; 342  : 		for( int i = 0 ; i < pParty->GetSizeofMember() ; ++i )

  00085	8b 45 10	 mov	 eax, DWORD PTR _pParty$1$[ebp]
  00088	47		 inc	 edi
  00089	83 c3 1c	 add	 ebx, 28			; 0000001cH
  0008c	3b b8 cc 01 00
	00		 cmp	 edi, DWORD PTR [eax+460]
  00092	7c 9d		 jl	 SHORT $LL4@SendQuestL
  00094	5e		 pop	 esi
  00095	5b		 pop	 ebx
$LN93@SendQuestL:
  00096	5f		 pop	 edi
$LN3@SendQuestL:

; 348  : 			}
; 349  : 		}
; 350  : 	}
; 351  : }

  00097	5d		 pop	 ebp
  00098	c2 0c 00	 ret	 12			; 0000000cH
?SendQuestLimitTime@CPartyQuestProcessor@@QAEXHKK@Z ENDP ; CPartyQuestProcessor::SendQuestLimitTime
_TEXT	ENDS
; Function compile flags: /Ogtp
; File C:\IAGOS\server\v18\Source\Source\_Common\partyquest.cpp
; File C:\IAGOS\server\v18\Source\Source\_Common\Mover.h
; File C:\IAGOS\server\v18\Source\Source\_Common\partyquest.cpp
; File C:\IAGOS\server\v18\Source\Source\DX_SDK\d3dx9math.inl
; File C:\IAGOS\server\v18\Source\Source\_Common\partyquest.cpp
;	COMDAT ?RemoveAllDynamicObj@CPartyQuestProcessor@@QAEXKUD3DXVECTOR3@@H@Z
_TEXT	SEGMENT
__pObjs$1$ = -92					; size = 4
__nLinkX$1$ = -88					; size = 4
__pObjs$1$ = -88					; size = 4
__nLinkZ$1$ = -84					; size = 4
tv1013 = -84						; size = 4
tv1008 = -80						; size = 4
tv1015 = -80						; size = 4
tv1017 = -76						; size = 4
__nX$1$ = -76						; size = 4
tv1006 = -72						; size = 4
tv1019 = -72						; size = 4
tv1004 = -68						; size = 4
__nLinkZ$1$ = -68					; size = 4
tv1002 = -64						; size = 4
__nLinkX$1$ = -64					; size = 4
_pWorld$1$ = -60					; size = 4
$T1 = -56						; size = 4
tv994 = -52						; size = 4
__j$1$ = -52						; size = 4
$T2 = -48						; size = 4
__k$1$ = -48						; size = 4
tv1040 = -44						; size = 4
$T3 = -40						; size = 4
__nX$1$ = -40						; size = 4
__k$1$ = -40						; size = 4
tv987 = -36						; size = 4
__j$1$ = -36						; size = 4
tv1021 = -36						; size = 4
tv1010 = -32						; size = 4
tv1037 = -32						; size = 4
tv1036 = -32						; size = 4
__nMaxWidth$1$ = -28					; size = 4
__nMaxWidth$1$ = -28					; size = 4
tv1038 = -24						; size = 4
__nUnit$1$ = -24					; size = 4
__i$1$ = -24						; size = 4
__nUnit$1$ = -20					; size = 4
__i$1$ = -20						; size = 4
tv1035 = -20						; size = 4
_vPos2$ = -16						; size = 12
__$ArrayPad$ = -4					; size = 4
_dwWorldID$ = 8						; size = 4
_vPos$ = 12						; size = 12
_nRange$ = 24						; size = 4
?RemoveAllDynamicObj@CPartyQuestProcessor@@QAEXKUD3DXVECTOR3@@H@Z PROC ; CPartyQuestProcessor::RemoveAllDynamicObj, COMDAT
; _this$ = ecx

; 244  : {

  00000	55		 push	 ebp
  00001	8b ec		 mov	 ebp, esp
  00003	83 ec 5c	 sub	 esp, 92			; 0000005cH
  00006	a1 00 00 00 00	 mov	 eax, DWORD PTR ___security_cookie
  0000b	33 c5		 xor	 eax, ebp
  0000d	89 45 fc	 mov	 DWORD PTR __$ArrayPad$[ebp], eax
  00010	8b 45 08	 mov	 eax, DWORD PTR _dwWorldID$[ebp]

; 245  : 	CWorld* pWorld	= g_WorldMng.GetWorld( dwWorldID );

  00013	b9 00 00 00 00	 mov	 ecx, OFFSET ?g_WorldMng@@3VCWorldMng@@A ; g_WorldMng
  00018	50		 push	 eax
  00019	e8 00 00 00 00	 call	 ?GetWorld@CWorldMng@@QAEPAVCWorld@@K@Z ; CWorldMng::GetWorld
  0001e	8b c8		 mov	 ecx, eax
  00020	89 4d c4	 mov	 DWORD PTR _pWorld$1$[ebp], ecx

; 246  : 
; 247  : 	if( !pWorld )

  00023	85 c9		 test	 ecx, ecx
  00025	0f 84 2f 04 00
	00		 je	 $LN14@RemoveAllD

; 248  : 		return;
; 249  : 
; 250  : 	CObj*		pObj;
; 251  : 	D3DXVECTOR3 vDist;
; 252  : 
; 253  : 	FOR_LINKMAP( pWorld, vPos, pObj, nRange, CObj::linkDynamic, nTempLayer )

  0002b	66 0f 6e 49 14	 movd	 xmm1, DWORD PTR [ecx+20]
  00030	8d 41 24	 lea	 eax, DWORD PTR [ecx+36]
  00033	f3 0f 10 45 0c	 movss	 xmm0, DWORD PTR _vPos$[ebp]
  00038	83 c1 04	 add	 ecx, 4
  0003b	0f 5b c9	 cvtdq2ps xmm1, xmm1
  0003e	53		 push	 ebx
  0003f	56		 push	 esi
  00040	57		 push	 edi
  00041	33 db		 xor	 ebx, ebx
  00043	89 4d c8	 mov	 DWORD PTR $T1[ebp], ecx
  00046	53		 push	 ebx
  00047	f3 0f 5e c1	 divss	 xmm0, xmm1
  0004b	6a 01		 push	 1
  0004d	8b c8		 mov	 ecx, eax
  0004f	89 5d e8	 mov	 DWORD PTR __i$1$[ebp], ebx
  00052	89 45 d4	 mov	 DWORD PTR tv1040[ebp], eax
  00055	f3 0f 2c f0	 cvttss2si esi, xmm0
  00059	f3 0f 10 45 14	 movss	 xmm0, DWORD PTR _vPos$[ebp+8]
  0005e	f3 0f 5e c1	 divss	 xmm0, xmm1
  00062	89 75 c0	 mov	 DWORD PTR __nLinkX$1$[ebp], esi
  00065	f3 0f 2c f8	 cvttss2si edi, xmm0
  00069	89 7d bc	 mov	 DWORD PTR __nLinkZ$1$[ebp], edi
  0006c	e8 00 00 00 00	 call	 ?GetMaxLinkLevel@CLayeredLinkMap@@QAEHKH@Z ; CLayeredLinkMap::GetMaxLinkLevel
  00071	85 c0		 test	 eax, eax
  00073	0f 8e b3 01 00
	00		 jle	 $LN73@RemoveAllD
  00079	8b 45 18	 mov	 eax, DWORD PTR _nRange$[ebp]
  0007c	8b ce		 mov	 ecx, esi
  0007e	2b c8		 sub	 ecx, eax
  00080	89 4d b8	 mov	 DWORD PTR tv1019[ebp], ecx
  00083	8b cf		 mov	 ecx, edi
  00085	2b c8		 sub	 ecx, eax
  00087	89 4d b4	 mov	 DWORD PTR tv1017[ebp], ecx
  0008a	8d 0c 06	 lea	 ecx, DWORD PTR [esi+eax]
  0008d	03 c7		 add	 eax, edi
  0008f	89 4d b0	 mov	 DWORD PTR tv1015[ebp], ecx
  00092	8b 7d d4	 mov	 edi, DWORD PTR tv1040[ebp]
  00095	89 45 ac	 mov	 DWORD PTR tv1013[ebp], eax
$LL4@RemoveAllD:
  00098	6a 00		 push	 0
  0009a	53		 push	 ebx
  0009b	6a 01		 push	 1
  0009d	8b cf		 mov	 ecx, edi
  0009f	e8 00 00 00 00	 call	 ?GetLinkWidth@CLayeredLinkMap@@QAEHKHH@Z ; CLayeredLinkMap::GetLinkWidth
  000a4	6a 00		 push	 0
  000a6	53		 push	 ebx
  000a7	6a 01		 push	 1
  000a9	8b cf		 mov	 ecx, edi
  000ab	8b f0		 mov	 esi, eax
  000ad	e8 00 00 00 00	 call	 ?GetObj@CLayeredLinkMap@@QAEPAPAVCObj@@KKH@Z ; CLayeredLinkMap::GetObj
  000b2	89 45 a8	 mov	 DWORD PTR __pObjs$1$[ebp], eax
  000b5	8b 45 c8	 mov	 eax, DWORD PTR $T1[ebp]
  000b8	8b 7d c4	 mov	 edi, DWORD PTR _pWorld$1$[ebp]
  000bb	8b 00		 mov	 eax, DWORD PTR [eax]
  000bd	8b d8		 mov	 ebx, eax
  000bf	c1 e0 07	 shl	 eax, 7
  000c2	99		 cdq
  000c3	0f af de	 imul	 ebx, esi
  000c6	8b 4f 08	 mov	 ecx, DWORD PTR [edi+8]
  000c9	0f af ce	 imul	 ecx, esi
  000cc	8b 75 c0	 mov	 esi, DWORD PTR __nLinkX$1$[ebp]
  000cf	f7 fb		 idiv	 ebx
  000d1	89 4d dc	 mov	 DWORD PTR tv1021[ebp], ecx
  000d4	8b c8		 mov	 ecx, eax
  000d6	89 5d e4	 mov	 DWORD PTR __nMaxWidth$1$[ebp], ebx
  000d9	8b 5f 14	 mov	 ebx, DWORD PTR [edi+20]
  000dc	8b c3		 mov	 eax, ebx
  000de	0f af c1	 imul	 eax, ecx
  000e1	89 4d ec	 mov	 DWORD PTR __nUnit$1$[ebp], ecx
  000e4	99		 cdq
  000e5	2b c2		 sub	 eax, edx
  000e7	8b f8		 mov	 edi, eax
  000e9	8b c6		 mov	 eax, esi
  000eb	99		 cdq
  000ec	f7 f9		 idiv	 ecx
  000ee	f3 0f 2c 4d 0c	 cvttss2si ecx, DWORD PTR _vPos$[ebp]
  000f3	2b f2		 sub	 esi, edx
  000f5	d1 ff		 sar	 edi, 1
  000f7	33 c0		 xor	 eax, eax
  000f9	0f af f3	 imul	 esi, ebx
  000fc	2b ce		 sub	 ecx, esi
  000fe	8b 75 e4	 mov	 esi, DWORD PTR __nMaxWidth$1$[ebp]
  00101	3b cf		 cmp	 ecx, edi
  00103	8b 4d bc	 mov	 ecx, DWORD PTR __nLinkZ$1$[ebp]
  00106	0f 9f c0	 setg	 al
  00109	89 45 d8	 mov	 DWORD PTR __nX$1$[ebp], eax
  0010c	8b c1		 mov	 eax, ecx
  0010e	99		 cdq
  0010f	f7 7d ec	 idiv	 DWORD PTR __nUnit$1$[ebp]
  00112	f3 0f 2c 45 14	 cvttss2si eax, DWORD PTR _vPos$[ebp+8]
  00117	2b ca		 sub	 ecx, edx
  00119	0f af cb	 imul	 ecx, ebx
  0011c	33 db		 xor	 ebx, ebx
  0011e	2b c1		 sub	 eax, ecx
  00120	3b c7		 cmp	 eax, edi
  00122	8b 45 b8	 mov	 eax, DWORD PTR tv1019[ebp]
  00125	8b 7d ec	 mov	 edi, DWORD PTR __nUnit$1$[ebp]
  00128	99		 cdq
  00129	0f 9f c3	 setg	 bl
  0012c	f7 ff		 idiv	 edi
  0012e	33 c9		 xor	 ecx, ecx
  00130	48		 dec	 eax
  00131	03 45 d8	 add	 eax, DWORD PTR __nX$1$[ebp]
  00134	0f 49 c8	 cmovns	 ecx, eax
  00137	8b 45 b4	 mov	 eax, DWORD PTR tv1017[ebp]
  0013a	99		 cdq
  0013b	f7 ff		 idiv	 edi
  0013d	89 4d d0	 mov	 DWORD PTR __k$1$[ebp], ecx
  00140	8d 48 ff	 lea	 ecx, DWORD PTR [eax-1]
  00143	8b 45 b0	 mov	 eax, DWORD PTR tv1015[ebp]
  00146	99		 cdq
  00147	03 cb		 add	 ecx, ebx
  00149	f7 ff		 idiv	 edi
  0014b	8d 56 ff	 lea	 edx, DWORD PTR [esi-1]
  0014e	03 45 d8	 add	 eax, DWORD PTR __nX$1$[ebp]
  00151	3b c6		 cmp	 eax, esi
  00153	0f 4c d0	 cmovl	 edx, eax
  00156	8b 45 ac	 mov	 eax, DWORD PTR tv1013[ebp]
  00159	89 55 cc	 mov	 DWORD PTR tv994[ebp], edx
  0015c	99		 cdq
  0015d	f7 ff		 idiv	 edi
  0015f	8b 55 dc	 mov	 edx, DWORD PTR tv1021[ebp]
  00162	03 c3		 add	 eax, ebx
  00164	3b c2		 cmp	 eax, edx
  00166	8d 5a ff	 lea	 ebx, DWORD PTR [edx-1]
  00169	0f 4c d8	 cmovl	 ebx, eax
  0016c	33 d2		 xor	 edx, edx
  0016e	85 c9		 test	 ecx, ecx
  00170	89 5d e0	 mov	 DWORD PTR tv1037[ebp], ebx
  00173	0f 49 d1	 cmovns	 edx, ecx
  00176	89 55 dc	 mov	 DWORD PTR __j$1$[ebp], edx
  00179	3b d3		 cmp	 edx, ebx
  0017b	0f 8f 8c 00 00
	00		 jg	 $LN2@RemoveAllD
  00181	8b 4d cc	 mov	 ecx, DWORD PTR tv994[ebp]
  00184	8b c2		 mov	 eax, edx
  00186	8b 5d e4	 mov	 ebx, DWORD PTR __nMaxWidth$1$[ebp]
  00189	8b 7d e0	 mov	 edi, DWORD PTR tv1037[ebp]
  0018c	0f af c6	 imul	 eax, esi
  0018f	8b 75 d0	 mov	 esi, DWORD PTR __k$1$[ebp]
  00192	03 c6		 add	 eax, esi
  00194	89 45 d8	 mov	 DWORD PTR $T3[ebp], eax
$LL7@RemoveAllD:
  00197	3b f1		 cmp	 esi, ecx
  00199	7f 65		 jg	 SHORT $LN5@RemoveAllD
  0019b	8b 55 a8	 mov	 edx, DWORD PTR __pObjs$1$[ebp]
  0019e	2b ce		 sub	 ecx, esi
  001a0	41		 inc	 ecx
  001a1	89 4d ec	 mov	 DWORD PTR tv1035[ebp], ecx
  001a4	8d 1c 82	 lea	 ebx, DWORD PTR [edx+eax*4]
$LL10@RemoveAllD:
  001a7	8b 33		 mov	 esi, DWORD PTR [ebx]
  001a9	bf e8 03 00 00	 mov	 edi, 1000		; 000003e8H
  001ae	85 f6		 test	 esi, esi
  001b0	74 31		 je	 SHORT $LN8@RemoveAllD
$LL11@RemoveAllD:
  001b2	8b c7		 mov	 eax, edi
  001b4	4f		 dec	 edi
  001b5	85 c0		 test	 eax, eax
  001b7	74 27		 je	 SHORT $LN74@RemoveAllD

; 254  : 	{
; 255  : 		if( pObj )

  001b9	85 f6		 test	 esi, esi
  001bb	74 19		 je	 SHORT $LN30@RemoveAllD

; 257  : 			if( pObj->GetType() == OT_MOVER && ((CMover *)pObj)->IsPeaceful() == FALSE )

  001bd	83 be 70 01 00
	00 05		 cmp	 DWORD PTR [esi+368], 5
  001c4	75 10		 jne	 SHORT $LN30@RemoveAllD
; File C:\IAGOS\server\v18\Source\Source\_Common\Mover.h

; 1120 : 	BOOL			IsPeaceful() { return m_dwBelligerence == BELLI_PEACEFUL; }

  001c6	83 be 64 06 00
	00 01		 cmp	 DWORD PTR [esi+1636], 1
; File C:\IAGOS\server\v18\Source\Source\_Common\partyquest.cpp

; 257  : 			if( pObj->GetType() == OT_MOVER && ((CMover *)pObj)->IsPeaceful() == FALSE )

  001cd	74 07		 je	 SHORT $LN30@RemoveAllD

; 258  : 			{
; 259  : 				pObj->Delete();

  001cf	8b ce		 mov	 ecx, esi
  001d1	e8 00 00 00 00	 call	 ?Delete@CObj@@QAEXXZ	; CObj::Delete
$LN30@RemoveAllD:

; 260  : 			}
; 261  : 		}
; 262  : 	}
; 263  : 	END_LINKMAP

  001d6	8b b6 80 01 00
	00		 mov	 esi, DWORD PTR [esi+384]
  001dc	85 f6		 test	 esi, esi
  001de	75 d2		 jne	 SHORT $LL11@RemoveAllD
$LN74@RemoveAllD:
  001e0	8b 4d ec	 mov	 ecx, DWORD PTR tv1035[ebp]
$LN8@RemoveAllD:

; 248  : 		return;
; 249  : 
; 250  : 	CObj*		pObj;
; 251  : 	D3DXVECTOR3 vDist;
; 252  : 
; 253  : 	FOR_LINKMAP( pWorld, vPos, pObj, nRange, CObj::linkDynamic, nTempLayer )

  001e3	83 c3 04	 add	 ebx, 4
  001e6	83 e9 01	 sub	 ecx, 1
  001e9	89 4d ec	 mov	 DWORD PTR tv1035[ebp], ecx
  001ec	75 b9		 jne	 SHORT $LL10@RemoveAllD
  001ee	8b 55 dc	 mov	 edx, DWORD PTR __j$1$[ebp]
  001f1	8b 45 d8	 mov	 eax, DWORD PTR $T3[ebp]
  001f4	8b 75 d0	 mov	 esi, DWORD PTR __k$1$[ebp]
  001f7	8b 4d cc	 mov	 ecx, DWORD PTR tv994[ebp]
  001fa	8b 5d e4	 mov	 ebx, DWORD PTR __nMaxWidth$1$[ebp]
  001fd	8b 7d e0	 mov	 edi, DWORD PTR tv1037[ebp]
$LN5@RemoveAllD:
  00200	42		 inc	 edx
  00201	03 c3		 add	 eax, ebx
  00203	89 55 dc	 mov	 DWORD PTR __j$1$[ebp], edx
  00206	89 45 d8	 mov	 DWORD PTR $T3[ebp], eax
  00209	3b d7		 cmp	 edx, edi
  0020b	7e 8a		 jle	 SHORT $LL7@RemoveAllD
$LN2@RemoveAllD:
  0020d	8b 5d e8	 mov	 ebx, DWORD PTR __i$1$[ebp]
  00210	8b 7d d4	 mov	 edi, DWORD PTR tv1040[ebp]
  00213	43		 inc	 ebx
  00214	6a 00		 push	 0
  00216	6a 01		 push	 1
  00218	8b cf		 mov	 ecx, edi
  0021a	89 5d e8	 mov	 DWORD PTR __i$1$[ebp], ebx
  0021d	e8 00 00 00 00	 call	 ?GetMaxLinkLevel@CLayeredLinkMap@@QAEHKH@Z ; CLayeredLinkMap::GetMaxLinkLevel
  00222	3b d8		 cmp	 ebx, eax
  00224	0f 8c 6e fe ff
	ff		 jl	 $LL4@RemoveAllD
  0022a	eb 06		 jmp	 SHORT $LN3@RemoveAllD
$LN73@RemoveAllD:
  0022c	8b 45 c8	 mov	 eax, DWORD PTR $T1[ebp]
  0022f	89 45 c8	 mov	 DWORD PTR $T1[ebp], eax
$LN3@RemoveAllD:

; 266  : 	FOR_LINKMAP( pWorld, vPos, pObj, nRange, CObj::linkPlayer, nTempLayer )

  00232	8b 45 c4	 mov	 eax, DWORD PTR _pWorld$1$[ebp]
  00235	33 db		 xor	 ebx, ebx
  00237	f3 0f 10 45 0c	 movss	 xmm0, DWORD PTR _vPos$[ebp]
; File C:\IAGOS\server\v18\Source\Source\DX_SDK\d3dx9math.inl

; 300  :     x = fx;

  0023c	c7 45 f0 00 c0
	d9 45		 mov	 DWORD PTR _vPos2$[ebp], 1171898368 ; 45d9c000H

; 301  :     y = fy;

  00243	c7 45 f4 00 00
	00 00		 mov	 DWORD PTR _vPos2$[ebp+4], 0

; 302  :     z = fz;

  0024a	c7 45 f8 cd 0c
	50 45		 mov	 DWORD PTR _vPos2$[ebp+8], 1162874061 ; 45500ccdH
  00251	66 0f 6e 48 14	 movd	 xmm1, DWORD PTR [eax+20]
; File C:\IAGOS\server\v18\Source\Source\_Common\partyquest.cpp

; 266  : 	FOR_LINKMAP( pWorld, vPos, pObj, nRange, CObj::linkPlayer, nTempLayer )

  00256	0f 5b c9	 cvtdq2ps xmm1, xmm1
  00259	8b 4d d4	 mov	 ecx, DWORD PTR tv1040[ebp]
  0025c	53		 push	 ebx
  0025d	6a 02		 push	 2
  0025f	89 5d ec	 mov	 DWORD PTR __i$1$[ebp], ebx
  00262	f3 0f 5e c1	 divss	 xmm0, xmm1
  00266	f3 0f 2c f0	 cvttss2si esi, xmm0
  0026a	f3 0f 10 45 14	 movss	 xmm0, DWORD PTR _vPos$[ebp+8]
  0026f	f3 0f 5e c1	 divss	 xmm0, xmm1
  00273	89 75 a8	 mov	 DWORD PTR __nLinkX$1$[ebp], esi
  00276	f3 0f 2c f8	 cvttss2si edi, xmm0
  0027a	89 7d ac	 mov	 DWORD PTR __nLinkZ$1$[ebp], edi
  0027d	e8 00 00 00 00	 call	 ?GetMaxLinkLevel@CLayeredLinkMap@@QAEHKH@Z ; CLayeredLinkMap::GetMaxLinkLevel
  00282	85 c0		 test	 eax, eax
  00284	0f 8e cd 01 00
	00		 jle	 $LN96@RemoveAllD
  0028a	8b 4d 18	 mov	 ecx, DWORD PTR _nRange$[ebp]
  0028d	8b c6		 mov	 eax, esi
  0028f	2b c1		 sub	 eax, ecx
  00291	89 45 b0	 mov	 DWORD PTR tv1008[ebp], eax
  00294	8b c7		 mov	 eax, edi
  00296	2b c1		 sub	 eax, ecx
  00298	89 45 b8	 mov	 DWORD PTR tv1006[ebp], eax
  0029b	8d 04 0e	 lea	 eax, DWORD PTR [esi+ecx]
  0029e	89 45 bc	 mov	 DWORD PTR tv1004[ebp], eax
  002a1	8d 04 0f	 lea	 eax, DWORD PTR [edi+ecx]
  002a4	8b 7d d4	 mov	 edi, DWORD PTR tv1040[ebp]
  002a7	89 45 c0	 mov	 DWORD PTR tv1002[ebp], eax
  002aa	66 0f 1f 44 00
	00		 npad	 6
$LL15@RemoveAllD:
  002b0	6a 00		 push	 0
  002b2	53		 push	 ebx
  002b3	6a 02		 push	 2
  002b5	8b cf		 mov	 ecx, edi
  002b7	e8 00 00 00 00	 call	 ?GetLinkWidth@CLayeredLinkMap@@QAEHKHH@Z ; CLayeredLinkMap::GetLinkWidth
  002bc	6a 00		 push	 0
  002be	53		 push	 ebx
  002bf	6a 02		 push	 2
  002c1	8b cf		 mov	 ecx, edi
  002c3	8b f0		 mov	 esi, eax
  002c5	e8 00 00 00 00	 call	 ?GetObj@CLayeredLinkMap@@QAEPAPAVCObj@@KKH@Z ; CLayeredLinkMap::GetObj
  002ca	89 45 a4	 mov	 DWORD PTR __pObjs$1$[ebp], eax
  002cd	8b 45 c8	 mov	 eax, DWORD PTR $T1[ebp]
  002d0	8b 7d c4	 mov	 edi, DWORD PTR _pWorld$1$[ebp]
  002d3	8b 00		 mov	 eax, DWORD PTR [eax]
  002d5	8b d8		 mov	 ebx, eax
  002d7	c1 e0 07	 shl	 eax, 7
  002da	99		 cdq
  002db	0f af de	 imul	 ebx, esi
  002de	8b 4f 08	 mov	 ecx, DWORD PTR [edi+8]
  002e1	0f af ce	 imul	 ecx, esi
  002e4	8b 75 a8	 mov	 esi, DWORD PTR __nLinkX$1$[ebp]
  002e7	f7 fb		 idiv	 ebx
  002e9	89 4d e0	 mov	 DWORD PTR tv1010[ebp], ecx
  002ec	8b c8		 mov	 ecx, eax
  002ee	89 5d e4	 mov	 DWORD PTR __nMaxWidth$1$[ebp], ebx
  002f1	8b 5f 14	 mov	 ebx, DWORD PTR [edi+20]
  002f4	8b c3		 mov	 eax, ebx
  002f6	0f af c1	 imul	 eax, ecx
  002f9	89 4d e8	 mov	 DWORD PTR __nUnit$1$[ebp], ecx
  002fc	99		 cdq
  002fd	2b c2		 sub	 eax, edx
  002ff	8b f8		 mov	 edi, eax
  00301	8b c6		 mov	 eax, esi
  00303	99		 cdq
  00304	f7 f9		 idiv	 ecx
  00306	f3 0f 2c 4d 0c	 cvttss2si ecx, DWORD PTR _vPos$[ebp]
  0030b	2b f2		 sub	 esi, edx
  0030d	d1 ff		 sar	 edi, 1
  0030f	33 c0		 xor	 eax, eax
  00311	0f af f3	 imul	 esi, ebx
  00314	2b ce		 sub	 ecx, esi
  00316	8b 75 e4	 mov	 esi, DWORD PTR __nMaxWidth$1$[ebp]
  00319	3b cf		 cmp	 ecx, edi
  0031b	8b 4d ac	 mov	 ecx, DWORD PTR __nLinkZ$1$[ebp]
  0031e	0f 9f c0	 setg	 al
  00321	89 45 b4	 mov	 DWORD PTR __nX$1$[ebp], eax
  00324	8b c1		 mov	 eax, ecx
  00326	99		 cdq
  00327	f7 7d e8	 idiv	 DWORD PTR __nUnit$1$[ebp]
  0032a	f3 0f 2c 45 14	 cvttss2si eax, DWORD PTR _vPos$[ebp+8]
  0032f	2b ca		 sub	 ecx, edx
  00331	0f af cb	 imul	 ecx, ebx
  00334	33 db		 xor	 ebx, ebx
  00336	2b c1		 sub	 eax, ecx
  00338	3b c7		 cmp	 eax, edi
  0033a	8b 45 b0	 mov	 eax, DWORD PTR tv1008[ebp]
  0033d	8b 7d e8	 mov	 edi, DWORD PTR __nUnit$1$[ebp]
  00340	99		 cdq
  00341	0f 9f c3	 setg	 bl
  00344	f7 ff		 idiv	 edi
  00346	33 c9		 xor	 ecx, ecx
  00348	48		 dec	 eax
  00349	03 45 b4	 add	 eax, DWORD PTR __nX$1$[ebp]
  0034c	0f 49 c8	 cmovns	 ecx, eax
  0034f	8b 45 b8	 mov	 eax, DWORD PTR tv1006[ebp]
  00352	99		 cdq
  00353	f7 ff		 idiv	 edi
  00355	89 4d d8	 mov	 DWORD PTR __k$1$[ebp], ecx
  00358	8d 48 ff	 lea	 ecx, DWORD PTR [eax-1]
  0035b	8b 45 bc	 mov	 eax, DWORD PTR tv1004[ebp]
  0035e	99		 cdq
  0035f	03 cb		 add	 ecx, ebx
  00361	f7 ff		 idiv	 edi
  00363	8d 56 ff	 lea	 edx, DWORD PTR [esi-1]
  00366	03 45 b4	 add	 eax, DWORD PTR __nX$1$[ebp]
  00369	3b c6		 cmp	 eax, esi
  0036b	0f 4c d0	 cmovl	 edx, eax
  0036e	8b 45 c0	 mov	 eax, DWORD PTR tv1002[ebp]
  00371	89 55 dc	 mov	 DWORD PTR tv987[ebp], edx
  00374	99		 cdq
  00375	f7 ff		 idiv	 edi
  00377	8b 55 e0	 mov	 edx, DWORD PTR tv1010[ebp]
  0037a	03 c3		 add	 eax, ebx
  0037c	3b c2		 cmp	 eax, edx
  0037e	8d 5a ff	 lea	 ebx, DWORD PTR [edx-1]
  00381	0f 4c d8	 cmovl	 ebx, eax
  00384	33 d2		 xor	 edx, edx
  00386	85 c9		 test	 ecx, ecx
  00388	89 5d e0	 mov	 DWORD PTR tv1036[ebp], ebx
  0038b	0f 49 d1	 cmovns	 edx, ecx
  0038e	89 55 cc	 mov	 DWORD PTR __j$1$[ebp], edx
  00391	3b d3		 cmp	 edx, ebx
  00393	0f 8f a1 00 00
	00		 jg	 $LN13@RemoveAllD
  00399	8b 4d dc	 mov	 ecx, DWORD PTR tv987[ebp]
  0039c	8b c2		 mov	 eax, edx
  0039e	8b 5d e4	 mov	 ebx, DWORD PTR __nMaxWidth$1$[ebp]
  003a1	8b 7d e0	 mov	 edi, DWORD PTR tv1036[ebp]
  003a4	0f af c6	 imul	 eax, esi
  003a7	8b 75 d8	 mov	 esi, DWORD PTR __k$1$[ebp]
  003aa	03 c6		 add	 eax, esi
  003ac	89 45 d0	 mov	 DWORD PTR $T2[ebp], eax
  003af	90		 npad	 1
$LL18@RemoveAllD:
  003b0	3b f1		 cmp	 esi, ecx
  003b2	7f 75		 jg	 SHORT $LN16@RemoveAllD
  003b4	8b 55 a4	 mov	 edx, DWORD PTR __pObjs$1$[ebp]
  003b7	2b ce		 sub	 ecx, esi
  003b9	41		 inc	 ecx
  003ba	89 4d e8	 mov	 DWORD PTR tv1038[ebp], ecx
  003bd	8d 1c 82	 lea	 ebx, DWORD PTR [edx+eax*4]
$LL21@RemoveAllD:
  003c0	8b 33		 mov	 esi, DWORD PTR [ebx]
  003c2	bf e8 03 00 00	 mov	 edi, 1000		; 000003e8H
  003c7	85 f6		 test	 esi, esi
  003c9	74 41		 je	 SHORT $LN19@RemoveAllD
  003cb	0f 1f 44 00 00	 npad	 5
$LL22@RemoveAllD:
  003d0	8b c7		 mov	 eax, edi
  003d2	4f		 dec	 edi
  003d3	85 c0		 test	 eax, eax
  003d5	74 32		 je	 SHORT $LN75@RemoveAllD

; 267  : 	{
; 268  : 		if( pObj )

  003d7	85 f6		 test	 esi, esi
  003d9	74 24		 je	 SHORT $LN35@RemoveAllD

; 269  : 		{
; 270  : 			CUser* pUser = (CUser*)pObj;
; 271  : 			pUser->AddQuestTextTime( 0, 0, 0xffffffff );			

  003db	6a ff		 push	 -1
  003dd	6a 00		 push	 0
  003df	6a 00		 push	 0
  003e1	8b ce		 mov	 ecx, esi
  003e3	e8 00 00 00 00	 call	 ?AddQuestTextTime@CUser@@QAEXHHK@Z ; CUser::AddQuestTextTime

; 272  : 			( (CUser*)pObj )->REPLACE( g_uIdofMulti, WI_WORLD_MADRIGAL, vPos2, REPLACE_NORMAL, nDefaultLayer );

  003e8	6a 00		 push	 0
  003ea	6a 00		 push	 0
  003ec	8d 45 f0	 lea	 eax, DWORD PTR _vPos2$[ebp]
  003ef	8b ce		 mov	 ecx, esi
  003f1	50		 push	 eax
  003f2	6a 01		 push	 1
  003f4	ff 35 00 00 00
	00		 push	 DWORD PTR ?g_uIdofMulti@@3KA ; g_uIdofMulti
  003fa	e8 00 00 00 00	 call	 ?Replace@CMover@@QAEHKKAAUD3DXVECTOR3@@W4REPLACE_TYPE@@H@Z ; CMover::Replace
$LN35@RemoveAllD:

; 273  : 		}
; 274  : 	}
; 275  : 	END_LINKMAP

  003ff	8b b6 80 01 00
	00		 mov	 esi, DWORD PTR [esi+384]
  00405	85 f6		 test	 esi, esi
  00407	75 c7		 jne	 SHORT $LL22@RemoveAllD
$LN75@RemoveAllD:
  00409	8b 4d e8	 mov	 ecx, DWORD PTR tv1038[ebp]
$LN19@RemoveAllD:

; 266  : 	FOR_LINKMAP( pWorld, vPos, pObj, nRange, CObj::linkPlayer, nTempLayer )

  0040c	83 c3 04	 add	 ebx, 4
  0040f	83 e9 01	 sub	 ecx, 1
  00412	89 4d e8	 mov	 DWORD PTR tv1038[ebp], ecx
  00415	75 a9		 jne	 SHORT $LL21@RemoveAllD
  00417	8b 55 cc	 mov	 edx, DWORD PTR __j$1$[ebp]
  0041a	8b 45 d0	 mov	 eax, DWORD PTR $T2[ebp]
  0041d	8b 75 d8	 mov	 esi, DWORD PTR __k$1$[ebp]
  00420	8b 4d dc	 mov	 ecx, DWORD PTR tv987[ebp]
  00423	8b 5d e4	 mov	 ebx, DWORD PTR __nMaxWidth$1$[ebp]
  00426	8b 7d e0	 mov	 edi, DWORD PTR tv1036[ebp]
$LN16@RemoveAllD:
  00429	42		 inc	 edx
  0042a	03 c3		 add	 eax, ebx
  0042c	89 55 cc	 mov	 DWORD PTR __j$1$[ebp], edx
  0042f	89 45 d0	 mov	 DWORD PTR $T2[ebp], eax
  00432	3b d7		 cmp	 edx, edi
  00434	0f 8e 76 ff ff
	ff		 jle	 $LL18@RemoveAllD
$LN13@RemoveAllD:
  0043a	8b 5d ec	 mov	 ebx, DWORD PTR __i$1$[ebp]
  0043d	8b 7d d4	 mov	 edi, DWORD PTR tv1040[ebp]
  00440	43		 inc	 ebx
  00441	6a 00		 push	 0
  00443	6a 02		 push	 2
  00445	8b cf		 mov	 ecx, edi
  00447	89 5d ec	 mov	 DWORD PTR __i$1$[ebp], ebx
  0044a	e8 00 00 00 00	 call	 ?GetMaxLinkLevel@CLayeredLinkMap@@QAEHKH@Z ; CLayeredLinkMap::GetMaxLinkLevel
  0044f	3b d8		 cmp	 ebx, eax
  00451	0f 8c 59 fe ff
	ff		 jl	 $LL15@RemoveAllD
$LN96@RemoveAllD:
  00457	5f		 pop	 edi
  00458	5e		 pop	 esi
  00459	5b		 pop	 ebx
$LN14@RemoveAllD:

; 276  : }

  0045a	8b 4d fc	 mov	 ecx, DWORD PTR __$ArrayPad$[ebp]
  0045d	33 cd		 xor	 ecx, ebp
  0045f	e8 00 00 00 00	 call	 @__security_check_cookie@4
  00464	8b e5		 mov	 esp, ebp
  00466	5d		 pop	 ebp
  00467	c2 14 00	 ret	 20			; 00000014H
?RemoveAllDynamicObj@CPartyQuestProcessor@@QAEXKUD3DXVECTOR3@@H@Z ENDP ; CPartyQuestProcessor::RemoveAllDynamicObj
_TEXT	ENDS
; Function compile flags: /Ogtp
; File C:\IAGOS\server\v18\Source\Source\_Common\partyquest.cpp
;	COMDAT ?GetInstance@CPartyQuestProcessor@@SAPAV1@XZ
_TEXT	SEGMENT
?GetInstance@CPartyQuestProcessor@@SAPAV1@XZ PROC	; CPartyQuestProcessor::GetInstance, COMDAT

; 417  : 	static CPartyQuestProcessor sPartyQuestProcessor;

  00000	64 a1 00 00 00
	00		 mov	 eax, DWORD PTR fs:__tls_array
  00006	8b 0d 00 00 00
	00		 mov	 ecx, DWORD PTR __tls_index
  0000c	8b 0c 88	 mov	 ecx, DWORD PTR [eax+ecx*4]
  0000f	a1 00 00 00 00	 mov	 eax, DWORD PTR ?$TSS0@?1??GetInstance@CPartyQuestProcessor@@SAPAV2@XZ@4HA
  00014	3b 81 00 00 00
	00		 cmp	 eax, DWORD PTR __Init_thread_epoch[ecx]
  0001a	7f 06		 jg	 SHORT $LN8@GetInstanc
$LN5@GetInstanc:

; 418  : 	return &sPartyQuestProcessor;
; 419  : }

  0001c	b8 00 00 00 00	 mov	 eax, OFFSET ?sPartyQuestProcessor@?1??GetInstance@CPartyQuestProcessor@@SAPAV2@XZ@4V2@A
  00021	c3		 ret	 0
$LN8@GetInstanc:

; 417  : 	static CPartyQuestProcessor sPartyQuestProcessor;

  00022	68 00 00 00 00	 push	 OFFSET ?$TSS0@?1??GetInstance@CPartyQuestProcessor@@SAPAV2@XZ@4HA
  00027	e8 00 00 00 00	 call	 __Init_thread_header
  0002c	83 c4 04	 add	 esp, 4
  0002f	83 3d 00 00 00
	00 ff		 cmp	 DWORD PTR ?$TSS0@?1??GetInstance@CPartyQuestProcessor@@SAPAV2@XZ@4HA, -1
  00036	75 e4		 jne	 SHORT $LN5@GetInstanc
  00038	b9 00 00 00 00	 mov	 ecx, OFFSET ?sPartyQuestProcessor@?1??GetInstance@CPartyQuestProcessor@@SAPAV2@XZ@4V2@A
  0003d	e8 00 00 00 00	 call	 ??0CPartyQuestProcessor@@QAE@XZ ; CPartyQuestProcessor::CPartyQuestProcessor
  00042	68 00 00 00 00	 push	 OFFSET ??__FsPartyQuestProcessor@?1??GetInstance@CPartyQuestProcessor@@SAPAV1@XZ@YAXXZ ; `CPartyQuestProcessor::GetInstance'::`2'::`dynamic atexit destructor for 'sPartyQuestProcessor''
  00047	e8 00 00 00 00	 call	 _atexit
  0004c	68 00 00 00 00	 push	 OFFSET ?$TSS0@?1??GetInstance@CPartyQuestProcessor@@SAPAV2@XZ@4HA
  00051	e8 00 00 00 00	 call	 __Init_thread_footer
  00056	83 c4 08	 add	 esp, 8
  00059	eb c1		 jmp	 SHORT $LN5@GetInstanc
?GetInstance@CPartyQuestProcessor@@SAPAV1@XZ ENDP	; CPartyQuestProcessor::GetInstance
_TEXT	ENDS
; Function compile flags: /Ogtp
; File C:\IAGOS\server\v18\Source\Source\_Common\partyquest.cpp
;	COMDAT ?IsQuesting@CPartyQuestProcessor@@QAEHH@Z
_TEXT	SEGMENT
_nQuestId$ = 8						; size = 4
?IsQuesting@CPartyQuestProcessor@@QAEHH@Z PROC		; CPartyQuestProcessor::IsQuesting, COMDAT
; _this$ = ecx

; 403  : {

  00000	55		 push	 ebp
  00001	8b ec		 mov	 ebp, esp

; 404  : 	if( nQuestId >= MAX_PARTY_QUEST )

  00003	8b 45 08	 mov	 eax, DWORD PTR _nQuestId$[ebp]
  00006	8b d1		 mov	 edx, ecx
  00008	3d 00 01 00 00	 cmp	 eax, 256		; 00000100H
  0000d	7c 13		 jl	 SHORT $LN2@IsQuesting

; 405  : 	{
; 406  : 		Error( "" );

  0000f	68 00 00 00 00	 push	 OFFSET ??_C@_00CNPNBAHC@@
  00014	e8 00 00 00 00	 call	 ?Error@@YAPBDPBDZZ	; Error
  00019	83 c4 04	 add	 esp, 4

; 407  : 		return FALSE;

  0001c	33 c0		 xor	 eax, eax

; 411  : 		return TRUE;
; 412  : 	return FALSE;
; 413  : }

  0001e	5d		 pop	 ebp
  0001f	c2 04 00	 ret	 4
$LN2@IsQuesting:

; 408  : 	}
; 409  : 
; 410  : 	if( m_pElem[nQuestId].nId != -1 )

  00022	8d 0c c5 00 00
	00 00		 lea	 ecx, DWORD PTR [eax*8]
  00029	2b c8		 sub	 ecx, eax
  0002b	33 c0		 xor	 eax, eax
  0002d	83 3c 8a ff	 cmp	 DWORD PTR [edx+ecx*4], -1
  00031	0f 95 c0	 setne	 al

; 411  : 		return TRUE;
; 412  : 	return FALSE;
; 413  : }

  00034	5d		 pop	 ebp
  00035	c2 04 00	 ret	 4
?IsQuesting@CPartyQuestProcessor@@QAEHH@Z ENDP		; CPartyQuestProcessor::IsQuesting
_TEXT	ENDS
; Function compile flags: /Ogtp
; File C:\IAGOS\server\v18\Source\Source\_Common\partyquest.cpp
;	COMDAT ?RemovePartyQuest@CPartyQuestProcessor@@QAEXH@Z
_TEXT	SEGMENT
_nQuestId$ = 8						; size = 4
?RemovePartyQuest@CPartyQuestProcessor@@QAEXH@Z PROC	; CPartyQuestProcessor::RemovePartyQuest, COMDAT
; _this$ = ecx

; 384  : {

  00000	55		 push	 ebp
  00001	8b ec		 mov	 ebp, esp

; 385  : 	if( nQuestId >= MAX_PARTY_QUEST )

  00003	8b 55 08	 mov	 edx, DWORD PTR _nQuestId$[ebp]
  00006	81 fa 00 01 00
	00		 cmp	 edx, 256		; 00000100H
  0000c	7c 11		 jl	 SHORT $LN2@RemovePart

; 386  : 	{
; 387  : 		Error( "" );

  0000e	68 00 00 00 00	 push	 OFFSET ??_C@_00CNPNBAHC@@
  00013	e8 00 00 00 00	 call	 ?Error@@YAPBDPBDZZ	; Error
  00018	83 c4 04	 add	 esp, 4

; 400  : }

  0001b	5d		 pop	 ebp
  0001c	c2 04 00	 ret	 4
$LN2@RemovePart:

; 388  : 		return;
; 389  : 	}
; 390  : 
; 391  : 	TRACE( "REMOVE_PARTY_QUEST, %d\n", nQuestId );
; 392  : 
; 393  : 	PPARTYQUESTELEM pElem	= &m_pElem[nQuestId];

  0001f	8d 04 d5 00 00
	00 00		 lea	 eax, DWORD PTR [edx*8]
  00026	2b c2		 sub	 eax, edx

; 394  : 	pElem->nId		= -1;
; 395  : 	pElem->nState	= 0;
; 396  : 	pElem->idParty		= 0;
; 397  : 	pElem->nProcess	= PQP_READY;
; 398  : 	pElem->dwEndTime	= 0;
; 399  : 	pElem->nCount	= 0;

  00028	33 d2		 xor	 edx, edx
  0002a	c7 04 81 ff ff
	ff ff		 mov	 DWORD PTR [ecx+eax*4], -1
  00031	c7 44 81 04 00
	00 00 00	 mov	 DWORD PTR [ecx+eax*4+4], 0
  00039	c7 44 81 08 00
	00 00 00	 mov	 DWORD PTR [ecx+eax*4+8], 0
  00041	c6 44 81 10 00	 mov	 BYTE PTR [ecx+eax*4+16], 0
  00046	c7 44 81 0c 00
	00 00 00	 mov	 DWORD PTR [ecx+eax*4+12], 0
  0004e	66 89 54 81 18	 mov	 WORD PTR [ecx+eax*4+24], dx

; 400  : }

  00053	5d		 pop	 ebp
  00054	c2 04 00	 ret	 4
?RemovePartyQuest@CPartyQuestProcessor@@QAEXH@Z ENDP	; CPartyQuestProcessor::RemovePartyQuest
_TEXT	ENDS
; Function compile flags: /Ogtp
; File C:\IAGOS\server\v18\Source\Source\_Common\partyquest.cpp
;	COMDAT ?GetPartyQuestRect@CPartyQuestProcessor@@QAEPAU__PARTYQUESTRECT@@H@Z
_TEXT	SEGMENT
_nQuestId$ = 8						; size = 4
?GetPartyQuestRect@CPartyQuestProcessor@@QAEPAU__PARTYQUESTRECT@@H@Z PROC ; CPartyQuestProcessor::GetPartyQuestRect, COMDAT
; _this$ = ecx

; 368  : {

  00000	55		 push	 ebp
  00001	8b ec		 mov	 ebp, esp

; 369  : 	if( nQuestId >= MAX_PARTY_QUEST )

  00003	8b 55 08	 mov	 edx, DWORD PTR _nQuestId$[ebp]
  00006	56		 push	 esi
  00007	57		 push	 edi
  00008	8b f9		 mov	 edi, ecx
  0000a	81 fa 00 01 00
	00		 cmp	 edx, 256		; 00000100H
  00010	7d 2d		 jge	 SHORT $LN3@GetPartyQu

; 370  : 		return NULL;
; 371  : 	if( m_pElem[nQuestId].nId == -1 )

  00012	8d 04 d5 00 00
	00 00		 lea	 eax, DWORD PTR [edx*8]
  00019	2b c2		 sub	 eax, edx
  0001b	83 3c 87 ff	 cmp	 DWORD PTR [edi+eax*4], -1
  0001f	74 1e		 je	 SHORT $LN3@GetPartyQu

; 372  : 		return NULL;
; 373  : 	for( int i = 0; i < m_nRect; i++ )

  00021	8b b7 00 34 00
	00		 mov	 esi, DWORD PTR [edi+13312]
  00027	33 c9		 xor	 ecx, ecx
  00029	85 f6		 test	 esi, esi
  0002b	7e 12		 jle	 SHORT $LN3@GetPartyQu
  0002d	8d 87 00 1c 00
	00		 lea	 eax, DWORD PTR [edi+7168]
$LL4@GetPartyQu:

; 374  : 	{
; 375  : 		if( m_pRect[i].nId == nQuestId )

  00033	39 10		 cmp	 DWORD PTR [eax], edx
  00035	74 0a		 je	 SHORT $LN1@GetPartyQu

; 372  : 		return NULL;
; 373  : 	for( int i = 0; i < m_nRect; i++ )

  00037	41		 inc	 ecx
  00038	83 c0 18	 add	 eax, 24			; 00000018H
  0003b	3b ce		 cmp	 ecx, esi
  0003d	7c f4		 jl	 SHORT $LL4@GetPartyQu
$LN3@GetPartyQu:

; 376  : 			return &m_pRect[i];
; 377  : 	}
; 378  : 	return NULL;

  0003f	33 c0		 xor	 eax, eax
$LN1@GetPartyQu:
  00041	5f		 pop	 edi

; 379  : //	return &m_pRect[nQuestId];
; 380  : }

  00042	5e		 pop	 esi
  00043	5d		 pop	 ebp
  00044	c2 04 00	 ret	 4
?GetPartyQuestRect@CPartyQuestProcessor@@QAEPAU__PARTYQUESTRECT@@H@Z ENDP ; CPartyQuestProcessor::GetPartyQuestRect
_TEXT	ENDS
; Function compile flags: /Ogtp
; File C:\IAGOS\server\v18\Source\Source\_Common\partyquest.cpp
;	COMDAT ?GetPartyQuest@CPartyQuestProcessor@@QAEPAU_PARTYQUESTELEM@@H@Z
_TEXT	SEGMENT
_nQuestId$ = 8						; size = 4
?GetPartyQuest@CPartyQuestProcessor@@QAEPAU_PARTYQUESTELEM@@H@Z PROC ; CPartyQuestProcessor::GetPartyQuest, COMDAT
; _this$ = ecx

; 354  : {

  00000	55		 push	 ebp
  00001	8b ec		 mov	 ebp, esp

; 355  : 	if( nQuestId >= MAX_PARTY_QUEST )

  00003	8b 55 08	 mov	 edx, DWORD PTR _nQuestId$[ebp]
  00006	81 fa 00 01 00
	00		 cmp	 edx, 256		; 00000100H
  0000c	7c 13		 jl	 SHORT $LN2@GetPartyQu

; 356  : 	{
; 357  : 		Error( "" );

  0000e	68 00 00 00 00	 push	 OFFSET ??_C@_00CNPNBAHC@@
  00013	e8 00 00 00 00	 call	 ?Error@@YAPBDPBDZZ	; Error
  00018	83 c4 04	 add	 esp, 4

; 358  : 		return NULL;

  0001b	33 c0		 xor	 eax, eax

; 361  : 		return NULL;
; 362  : 
; 363  : 	return &m_pElem[nQuestId];
; 364  : }

  0001d	5d		 pop	 ebp
  0001e	c2 04 00	 ret	 4
$LN2@GetPartyQu:

; 359  : 	}
; 360  : 	if( m_pElem[nQuestId].nId == -1 )

  00021	8d 04 d5 00 00
	00 00		 lea	 eax, DWORD PTR [edx*8]
  00028	2b c2		 sub	 eax, edx
  0002a	8d 04 81	 lea	 eax, DWORD PTR [ecx+eax*4]
  0002d	33 c9		 xor	 ecx, ecx
  0002f	83 38 ff	 cmp	 DWORD PTR [eax], -1
  00032	0f 44 c1	 cmove	 eax, ecx

; 361  : 		return NULL;
; 362  : 
; 363  : 	return &m_pElem[nQuestId];
; 364  : }

  00035	5d		 pop	 ebp
  00036	c2 04 00	 ret	 4
?GetPartyQuest@CPartyQuestProcessor@@QAEPAU_PARTYQUESTELEM@@H@Z ENDP ; CPartyQuestProcessor::GetPartyQuest
_TEXT	ENDS
; Function compile flags: /Ogtp
; File C:\IAGOS\server\v18\Source\Source\_Common\partyquest.cpp
; File C:\Program Files\Microsoft Visual Studio\2022\Professional\VC\Tools\MSVC\14.44.35207\atlmfc\include\afxstr.h
; File C:\Program Files\Microsoft Visual Studio\2022\Professional\VC\Tools\MSVC\14.44.35207\atlmfc\include\atlsimpstr.h
; File C:\Program Files\Microsoft Visual Studio\2022\Professional\VC\Tools\MSVC\14.44.35207\atlmfc\include\cstringt.h
; File C:\Program Files\Microsoft Visual Studio\2022\Professional\VC\Tools\MSVC\14.44.35207\atlmfc\include\atlsimpstr.h
; File C:\IAGOS\server\v18\Source\Source\_Common\partyquest.cpp
; File C:\Program Files\Microsoft Visual Studio\2022\Professional\VC\Tools\MSVC\14.44.35207\atlmfc\include\afxstr.h
; File C:\Program Files\Microsoft Visual Studio\2022\Professional\VC\Tools\MSVC\14.44.35207\atlmfc\include\atlsimpstr.h
; File C:\IAGOS\server\v18\Source\Source\_Common\partyquest.cpp
; File C:\Program Files\Microsoft Visual Studio\2022\Professional\VC\Tools\MSVC\14.44.35207\atlmfc\include\afxstr.h
; File C:\Program Files\Microsoft Visual Studio\2022\Professional\VC\Tools\MSVC\14.44.35207\atlmfc\include\atlsimpstr.h
; File C:\IAGOS\server\v18\Source\Source\_Common\partyquest.cpp
; File C:\Program Files\Microsoft Visual Studio\2022\Professional\VC\Tools\MSVC\14.44.35207\atlmfc\include\afxstr.h
; File C:\Program Files\Microsoft Visual Studio\2022\Professional\VC\Tools\MSVC\14.44.35207\atlmfc\include\atlsimpstr.h
; File C:\Program Files\Microsoft Visual Studio\2022\Professional\VC\Tools\MSVC\14.44.35207\atlmfc\include\atltime.h
; File C:\IAGOS\server\v18\Source\Source\_Common\partyquest.cpp
; File C:\Program Files\Microsoft Visual Studio\2022\Professional\VC\Tools\MSVC\14.44.35207\atlmfc\include\atltime.h
; File C:\IAGOS\server\v18\Source\Source\_Common\partyquest.cpp
; File C:\Program Files\Microsoft Visual Studio\2022\Professional\VC\Tools\MSVC\14.44.35207\include\xtree
; File C:\Program Files\Microsoft Visual Studio\2022\Professional\VC\Tools\MSVC\14.44.35207\include\type_traits
; File C:\Program Files\Microsoft Visual Studio\2022\Professional\VC\Tools\MSVC\14.44.35207\include\xtree
; File C:\Program Files\Microsoft Visual Studio\2022\Professional\VC\Tools\MSVC\14.44.35207\include\type_traits
; File C:\Program Files\Microsoft Visual Studio\2022\Professional\VC\Tools\MSVC\14.44.35207\include\xtree
; File C:\IAGOS\server\v18\Source\Source\_Common\Project.h
; File C:\IAGOS\server\v18\Source\Source\_Common\Obj.h
; File C:\IAGOS\server\v18\Source\Source\_Common\partyquest.cpp
; File C:\Program Files\Microsoft Visual Studio\2022\Professional\VC\Tools\MSVC\14.44.35207\atlmfc\include\atlsimpstr.h
; File C:\IAGOS\server\v18\Source\Source\_Common\partyquest.cpp
; File C:\Program Files\Microsoft Visual Studio\2022\Professional\VC\Tools\MSVC\14.44.35207\atlmfc\include\atlsimpstr.h
; File C:\IAGOS\server\v18\Source\Source\_Common\partyquest.cpp
; File C:\Program Files\Microsoft Visual Studio\2022\Professional\VC\Tools\MSVC\14.44.35207\atlmfc\include\atlsimpstr.h
; File C:\IAGOS\server\v18\Source\Source\_Common\partyquest.cpp
; File C:\Program Files\Microsoft Visual Studio\2022\Professional\VC\Tools\MSVC\14.44.35207\atlmfc\include\atlsimpstr.h
; File C:\IAGOS\server\v18\Source\Source\_Common\partyquest.cpp
; File C:\Program Files\Microsoft Visual Studio\2022\Professional\VC\Tools\MSVC\14.44.35207\atlmfc\include\atlsimpstr.h
; File C:\IAGOS\server\v18\Source\Source\_Common\partyquest.cpp
; File C:\Program Files\Microsoft Visual Studio\2022\Professional\VC\Tools\MSVC\14.44.35207\atlmfc\include\atlsimpstr.h
; File C:\IAGOS\server\v18\Source\Source\_Common\partyquest.cpp
; File C:\Program Files\Microsoft Visual Studio\2022\Professional\VC\Tools\MSVC\14.44.35207\atlmfc\include\atlsimpstr.h
; File C:\IAGOS\server\v18\Source\Source\_Common\partyquest.cpp
;	COMDAT ?SetPartyQuest@CPartyQuestProcessor@@QAEXHHHHKK@Z
_TEXT	SEGMENT
_ttm$3 = -312						; size = 36
_ttm$4 = -276						; size = 36
_ttm$5 = -240						; size = 36
_ttm$6 = -204						; size = 36
_ttm$7 = -168						; size = 36
_ttm$8 = -132						; size = 36
_strQuestInfo$ = -96					; size = 4
$T9 = -92						; size = 4
$T10 = -88						; size = 4
_time$ = -84						; size = 8
_idParty$GSCopy$1$ = -76				; size = 4
_strDateTime$ = -72					; size = 4
_this$GSCopy$1$ = -72					; size = 4
_pParty$1$ = -68					; size = 4
$T11 = -68						; size = 4
_strFileName$ = -64					; size = 4
_strMemberName$ = -60					; size = 4
tv1187 = -56						; size = 4
$T12 = -56						; size = 4
_ptmTemp$13 = -52					; size = 36
_ptmTemp$14 = -52					; size = 36
_ptmTemp$15 = -52					; size = 36
_ptmTemp$16 = -52					; size = 36
_ptmTemp$17 = -52					; size = 36
_ptmTemp$18 = -52					; size = 36
__$ArrayPad$ = -16					; size = 4
__$EHRec$ = -12						; size = 12
_nQuestId$ = 8						; size = 4
_nState$ = 12						; size = 4
_ns$ = 16						; size = 4
_nf$ = 20						; size = 4
_idParty$ = 24						; size = 4
_objidWormon$ = 28					; size = 4
?SetPartyQuest@CPartyQuestProcessor@@QAEXHHHHKK@Z PROC	; CPartyQuestProcessor::SetPartyQuest, COMDAT
; _this$ = ecx

; 280  : {

  00000	55		 push	 ebp
  00001	8b ec		 mov	 ebp, esp
  00003	6a ff		 push	 -1
  00005	68 00 00 00 00	 push	 __ehhandler$?SetPartyQuest@CPartyQuestProcessor@@QAEXHHHHKK@Z
  0000a	64 a1 00 00 00
	00		 mov	 eax, DWORD PTR fs:0
  00010	50		 push	 eax
  00011	81 ec 2c 01 00
	00		 sub	 esp, 300		; 0000012cH
  00017	a1 00 00 00 00	 mov	 eax, DWORD PTR ___security_cookie
  0001c	33 c5		 xor	 eax, ebp
  0001e	89 45 f0	 mov	 DWORD PTR __$ArrayPad$[ebp], eax
  00021	56		 push	 esi
  00022	57		 push	 edi
  00023	50		 push	 eax
  00024	8d 45 f4	 lea	 eax, DWORD PTR __$EHRec$[ebp]
  00027	64 a3 00 00 00
	00		 mov	 DWORD PTR fs:0, eax
  0002d	8b f1		 mov	 esi, ecx
  0002f	89 75 b8	 mov	 DWORD PTR _this$GSCopy$1$[ebp], esi
  00032	8b 7d 08	 mov	 edi, DWORD PTR _nQuestId$[ebp]
  00035	8b 45 18	 mov	 eax, DWORD PTR _idParty$[ebp]
  00038	89 45 b4	 mov	 DWORD PTR _idParty$GSCopy$1$[ebp], eax

; 281  : 	if( nQuestId >= MAX_PARTY_QUEST )

  0003b	81 ff 00 01 00
	00		 cmp	 edi, 256		; 00000100H
  00041	0f 8d 36 04 00
	00		 jge	 $LN306@SetPartyQu

; 282  : 	{
; 283  : 		Error( "" );
; 284  : 		return;
; 285  : 	}
; 286  : 	PARTYQUESTPROP* pProp	= prj.GetPartyQuestProp( nQuestId );

  00047	57		 push	 edi
  00048	b9 00 00 00 00	 mov	 ecx, OFFSET ?prj@@3VCProject@@A ; prj
  0004d	e8 00 00 00 00	 call	 ?GetPartyQuestProp@CProject@@QAEPAUPARTYQUESTPROP@@H@Z ; CProject::GetPartyQuestProp

; 287  : 	if( !pProp )

  00052	85 c0		 test	 eax, eax
  00054	0f 84 23 04 00
	00		 je	 $LN306@SetPartyQu

; 290  : 		return;
; 291  : 	}
; 292  : 
; 293  : 	TRACE( "SET_PARTY_QUEST, %d, %d, %d\n", nQuestId, idParty, objidWormon );
; 294  : 	PPARTYQUESTELEM	pElem	= &m_pElem[nQuestId];

  0005a	8d 04 fd 00 00
	00 00		 lea	 eax, DWORD PTR [edi*8]
  00061	2b c7		 sub	 eax, edi
  00063	8d 34 86	 lea	 esi, DWORD PTR [esi+eax*4]

; 295  : 	pElem->nId	= nQuestId;
; 296  : 	pElem->nState	= nState;

  00066	8b 45 0c	 mov	 eax, DWORD PTR _nState$[ebp]
  00069	89 3e		 mov	 DWORD PTR [esi], edi
  0006b	89 46 04	 mov	 DWORD PTR [esi+4], eax

; 297  : 	pElem->idParty	= idParty;

  0006e	8b 45 b4	 mov	 eax, DWORD PTR _idParty$GSCopy$1$[ebp]
  00071	89 46 08	 mov	 DWORD PTR [esi+8], eax

; 298  : 	pElem->dwEndTime	= GetTickCount() + MIN( 60 );

  00074	ff 15 00 00 00
	00		 call	 DWORD PTR __imp__GetTickCount@0

; 299  : 	
; 300  : 	pElem->nProcess		= PQP_WORMON;
; 301  : 	pElem->ns	= ns;
; 302  : 	pElem->nf	= nf;
; 303  : 	pElem->objidWormon	= objidWormon;
; 304  : 	pElem->nCount	= 0;
; 305  : 
; 306  : 	// ŔŻŔúżˇ°Ô °ř·«˝Ă°ŁŔ» łŃ°ÜÁŘ´Ů...
; 307  : 	SendQuestLimitTime( PQP_WORMON, MIN( 60 ), idParty );

  0007a	ff 75 b4	 push	 DWORD PTR _idParty$GSCopy$1$[ebp]
  0007d	8b 4d b8	 mov	 ecx, DWORD PTR _this$GSCopy$1$[ebp]
  00080	05 80 ee 36 00	 add	 eax, 3600000		; 0036ee80H
  00085	89 46 0c	 mov	 DWORD PTR [esi+12], eax
  00088	8a 45 10	 mov	 al, BYTE PTR _ns$[ebp]
  0008b	88 46 11	 mov	 BYTE PTR [esi+17], al
  0008e	8a 45 14	 mov	 al, BYTE PTR _nf$[ebp]
  00091	88 46 12	 mov	 BYTE PTR [esi+18], al
  00094	8b 45 1c	 mov	 eax, DWORD PTR _objidWormon$[ebp]
  00097	89 46 14	 mov	 DWORD PTR [esi+20], eax
  0009a	33 c0		 xor	 eax, eax
  0009c	68 80 ee 36 00	 push	 3600000			; 0036ee80H
  000a1	6a 01		 push	 1
  000a3	c6 46 10 01	 mov	 BYTE PTR [esi+16], 1
  000a7	66 89 46 18	 mov	 WORD PTR [esi+24], ax
  000ab	e8 00 00 00 00	 call	 ?SendQuestLimitTime@CPartyQuestProcessor@@QAEXHKK@Z ; CPartyQuestProcessor::SendQuestLimitTime
; File C:\Program Files\Microsoft Visual Studio\2022\Professional\VC\Tools\MSVC\14.44.35207\atlmfc\include\afxstr.h

; 56   : 		return( AfxGetStringManager() );

  000b0	e8 00 00 00 00	 call	 ?AfxGetStringManager@@YGPAUIAtlStringMgr@ATL@@XZ ; AfxGetStringManager
  000b5	8b c8		 mov	 ecx, eax
; File C:\Program Files\Microsoft Visual Studio\2022\Professional\VC\Tools\MSVC\14.44.35207\atlmfc\include\atlsimpstr.h

; 209  : 		ATLENSURE( pStringMgr != NULL );

  000b7	85 c9		 test	 ecx, ecx
  000b9	0f 84 e8 03 00
	00		 je	 $LN311@SetPartyQu

; 210  : 		CStringData* pData = pStringMgr->GetNilString();

  000bf	8b 01		 mov	 eax, DWORD PTR [ecx]
  000c1	8b 40 0c	 mov	 eax, DWORD PTR [eax+12]
  000c4	ff d0		 call	 eax

; 211  : 		Attach( pData );

  000c6	83 c0 10	 add	 eax, 16			; 00000010H
  000c9	89 45 c0	 mov	 DWORD PTR _strFileName$[ebp], eax
; File C:\Program Files\Microsoft Visual Studio\2022\Professional\VC\Tools\MSVC\14.44.35207\atlmfc\include\cstringt.h

; 2712 : 		if( (pv != NULL) && IS_INTRESOURCE( pv ) )

  000cc	b8 00 00 00 00	 mov	 eax, OFFSET ??_C@_0BI@MGKOPPCK@StartPartyQuestInfo?4txt@

; 1052 : 		CThisSimpleString( StringTraits::GetDefaultManager() )

  000d1	c7 45 fc 00 00
	00 00		 mov	 DWORD PTR __$EHRec$[ebp+8], 0

; 2712 : 		if( (pv != NULL) && IS_INTRESOURCE( pv ) )

  000d8	8d 4d c0	 lea	 ecx, DWORD PTR _strFileName$[ebp]
  000db	a9 00 00 ff ff	 test	 eax, -65536		; ffff0000H
  000e0	75 0b		 jne	 SHORT $LN297@SetPartyQu

; 2713 : 		{
; 2714 : 			UINT nID = LOWORD( reinterpret_cast< DWORD_PTR >( pv ) );

  000e2	0f b7 c0	 movzx	 eax, ax

; 2715 : 			(nID);
; 2716 : #ifdef _ATL_USE_WINAPI_FAMILY_DESKTOP_APP
; 2717 : 			if( !LoadString( nID ) )

  000e5	50		 push	 eax
  000e6	e8 00 00 00 00	 call	 ?LoadStringA@?$CStringT@DV?$StrTraitMFC@DV?$ChTraitsCRT@D@ATL@@@@@ATL@@QAEHI@Z ; ATL::CStringT<char,StrTraitMFC<char,ATL::ChTraitsCRT<char> > >::LoadStringA

; 1054 : 		if( !CheckImplicitLoad( pszSrc ) )

  000eb	eb 0c		 jmp	 SHORT $LN119@SetPartyQu
$LN297@SetPartyQu:
; File C:\Program Files\Microsoft Visual Studio\2022\Professional\VC\Tools\MSVC\14.44.35207\atlmfc\include\atlsimpstr.h

; 606  : 		SetString( pszSrc, StringLength( pszSrc ) );

  000ed	6a 17		 push	 23			; 00000017H
  000ef	68 00 00 00 00	 push	 OFFSET ??_C@_0BI@MGKOPPCK@StartPartyQuestInfo?4txt@
  000f4	e8 00 00 00 00	 call	 ?SetString@?$CSimpleStringT@D$0A@@ATL@@QAEXPBDH@Z ; ATL::CSimpleStringT<char,0>::SetString
$LN119@SetPartyQu:
; File C:\IAGOS\server\v18\Source\Source\_Common\partyquest.cpp

; 310  : 	CString strFileName = "StartPartyQuestInfo.txt";

  000f9	c7 45 fc 01 00
	00 00		 mov	 DWORD PTR __$EHRec$[ebp+8], 1
; File C:\Program Files\Microsoft Visual Studio\2022\Professional\VC\Tools\MSVC\14.44.35207\atlmfc\include\afxstr.h

; 56   : 		return( AfxGetStringManager() );

  00100	e8 00 00 00 00	 call	 ?AfxGetStringManager@@YGPAUIAtlStringMgr@ATL@@XZ ; AfxGetStringManager
  00105	8b c8		 mov	 ecx, eax
; File C:\Program Files\Microsoft Visual Studio\2022\Professional\VC\Tools\MSVC\14.44.35207\atlmfc\include\atlsimpstr.h

; 209  : 		ATLENSURE( pStringMgr != NULL );

  00107	85 c9		 test	 ecx, ecx
  00109	0f 84 a2 03 00
	00		 je	 $LN312@SetPartyQu

; 210  : 		CStringData* pData = pStringMgr->GetNilString();

  0010f	8b 01		 mov	 eax, DWORD PTR [ecx]
  00111	8b 40 0c	 mov	 eax, DWORD PTR [eax+12]
  00114	ff d0		 call	 eax

; 211  : 		Attach( pData );

  00116	83 c0 10	 add	 eax, 16			; 00000010H
  00119	89 45 a0	 mov	 DWORD PTR _strQuestInfo$[ebp], eax
; File C:\IAGOS\server\v18\Source\Source\_Common\partyquest.cpp

; 311  : 	CString strQuestInfo;

  0011c	c6 45 fc 02	 mov	 BYTE PTR __$EHRec$[ebp+8], 2
; File C:\Program Files\Microsoft Visual Studio\2022\Professional\VC\Tools\MSVC\14.44.35207\atlmfc\include\afxstr.h

; 56   : 		return( AfxGetStringManager() );

  00120	e8 00 00 00 00	 call	 ?AfxGetStringManager@@YGPAUIAtlStringMgr@ATL@@XZ ; AfxGetStringManager
  00125	8b c8		 mov	 ecx, eax
; File C:\Program Files\Microsoft Visual Studio\2022\Professional\VC\Tools\MSVC\14.44.35207\atlmfc\include\atlsimpstr.h

; 209  : 		ATLENSURE( pStringMgr != NULL );

  00127	85 c9		 test	 ecx, ecx
  00129	0f 84 8c 03 00
	00		 je	 $LN313@SetPartyQu

; 210  : 		CStringData* pData = pStringMgr->GetNilString();

  0012f	8b 01		 mov	 eax, DWORD PTR [ecx]
  00131	8b 40 0c	 mov	 eax, DWORD PTR [eax+12]
  00134	ff d0		 call	 eax

; 211  : 		Attach( pData );

  00136	83 c0 10	 add	 eax, 16			; 00000010H
  00139	89 45 c4	 mov	 DWORD PTR _strMemberName$[ebp], eax
; File C:\IAGOS\server\v18\Source\Source\_Common\partyquest.cpp

; 312  : 	CString strMemberName;

  0013c	c6 45 fc 03	 mov	 BYTE PTR __$EHRec$[ebp+8], 3
; File C:\Program Files\Microsoft Visual Studio\2022\Professional\VC\Tools\MSVC\14.44.35207\atlmfc\include\afxstr.h

; 56   : 		return( AfxGetStringManager() );

  00140	e8 00 00 00 00	 call	 ?AfxGetStringManager@@YGPAUIAtlStringMgr@ATL@@XZ ; AfxGetStringManager
  00145	8b c8		 mov	 ecx, eax
; File C:\Program Files\Microsoft Visual Studio\2022\Professional\VC\Tools\MSVC\14.44.35207\atlmfc\include\atlsimpstr.h

; 209  : 		ATLENSURE( pStringMgr != NULL );

  00147	85 c9		 test	 ecx, ecx
  00149	0f 84 76 03 00
	00		 je	 $LN314@SetPartyQu

; 210  : 		CStringData* pData = pStringMgr->GetNilString();

  0014f	8b 01		 mov	 eax, DWORD PTR [ecx]
  00151	8b 40 0c	 mov	 eax, DWORD PTR [eax+12]
  00154	ff d0		 call	 eax

; 211  : 		Attach( pData );

  00156	83 c0 10	 add	 eax, 16			; 00000010H
  00159	89 45 b8	 mov	 DWORD PTR _strDateTime$[ebp], eax
; File C:\Program Files\Microsoft Visual Studio\2022\Professional\VC\Tools\MSVC\14.44.35207\atlmfc\include\atltime.h

; 377  : 	return( CTime( ::_time64( NULL ) ) );

  0015c	6a 00		 push	 0
; File C:\IAGOS\server\v18\Source\Source\_Common\partyquest.cpp

; 313  : 	CString strDateTime;

  0015e	c6 45 fc 04	 mov	 BYTE PTR __$EHRec$[ebp+8], 4
; File C:\Program Files\Microsoft Visual Studio\2022\Professional\VC\Tools\MSVC\14.44.35207\atlmfc\include\atltime.h

; 377  : 	return( CTime( ::_time64( NULL ) ) );

  00162	e8 00 00 00 00	 call	 __time64

; 420  : 	m_time( time )

  00167	89 45 ac	 mov	 DWORD PTR _time$[ebp], eax

; 617  : 		errno_t err = _localtime64_s(&ptmTemp, &m_time);

  0016a	8d 45 ac	 lea	 eax, DWORD PTR _time$[ebp]
  0016d	50		 push	 eax
  0016e	8d 45 cc	 lea	 eax, DWORD PTR _ptmTemp$16[ebp]

; 420  : 	m_time( time )

  00171	89 55 b0	 mov	 DWORD PTR _time$[ebp+4], edx

; 617  : 		errno_t err = _localtime64_s(&ptmTemp, &m_time);

  00174	50		 push	 eax
  00175	e8 00 00 00 00	 call	 __localtime64_s
  0017a	83 c4 0c	 add	 esp, 12			; 0000000cH

; 618  : 
; 619  : 		if (err != 0)

  0017d	85 c0		 test	 eax, eax
  0017f	74 09		 je	 SHORT $LN207@SetPartyQu

; 710  : 	return ptm ? ptm->tm_sec : -1 ;

  00181	c7 45 a8 ff ff
	ff ff		 mov	 DWORD PTR $T10[ebp], -1
  00188	eb 24		 jmp	 SHORT $LN197@SetPartyQu
$LN207@SetPartyQu:

; 624  : 		*ptm = ptmTemp;

  0018a	0f 10 45 cc	 movups	 xmm0, XMMWORD PTR _ptmTemp$16[ebp]
  0018e	8b 45 ec	 mov	 eax, DWORD PTR _ptmTemp$16[ebp+32]
  00191	89 45 9c	 mov	 DWORD PTR _ttm$8[ebp+32], eax

; 625  : 		return ptm;

  00194	8d 85 7c ff ff
	ff		 lea	 eax, DWORD PTR _ttm$8[ebp]
  0019a	0f 11 85 7c ff
	ff ff		 movups	 XMMWORD PTR _ttm$8[ebp], xmm0
  001a1	0f 10 45 dc	 movups	 xmm0, XMMWORD PTR _ptmTemp$16[ebp+16]
  001a5	0f 11 45 8c	 movups	 XMMWORD PTR _ttm$8[ebp+16], xmm0

; 710  : 	return ptm ? ptm->tm_sec : -1 ;

  001a9	8b 00		 mov	 eax, DWORD PTR [eax]
  001ab	89 45 a8	 mov	 DWORD PTR $T10[ebp], eax
$LN197@SetPartyQu:

; 617  : 		errno_t err = _localtime64_s(&ptmTemp, &m_time);

  001ae	8d 45 ac	 lea	 eax, DWORD PTR _time$[ebp]
  001b1	50		 push	 eax
  001b2	8d 45 cc	 lea	 eax, DWORD PTR _ptmTemp$14[ebp]
  001b5	50		 push	 eax
  001b6	e8 00 00 00 00	 call	 __localtime64_s
  001bb	83 c4 08	 add	 esp, 8

; 618  : 
; 619  : 		if (err != 0)

  001be	85 c0		 test	 eax, eax
  001c0	74 09		 je	 SHORT $LN223@SetPartyQu

; 701  : 	return ptm ? ptm->tm_min : -1 ;

  001c2	c7 45 a4 ff ff
	ff ff		 mov	 DWORD PTR $T9[ebp], -1
  001c9	eb 2b		 jmp	 SHORT $LN213@SetPartyQu
$LN223@SetPartyQu:

; 624  : 		*ptm = ptmTemp;

  001cb	0f 10 45 cc	 movups	 xmm0, XMMWORD PTR _ptmTemp$14[ebp]
  001cf	8b 45 ec	 mov	 eax, DWORD PTR _ptmTemp$14[ebp+32]
  001d2	89 85 78 ff ff
	ff		 mov	 DWORD PTR _ttm$7[ebp+32], eax

; 625  : 		return ptm;

  001d8	8d 85 58 ff ff
	ff		 lea	 eax, DWORD PTR _ttm$7[ebp]
  001de	0f 11 85 58 ff
	ff ff		 movups	 XMMWORD PTR _ttm$7[ebp], xmm0
  001e5	0f 10 45 dc	 movups	 xmm0, XMMWORD PTR _ptmTemp$14[ebp+16]
  001e9	0f 11 85 68 ff
	ff ff		 movups	 XMMWORD PTR _ttm$7[ebp+16], xmm0

; 701  : 	return ptm ? ptm->tm_min : -1 ;

  001f0	8b 40 04	 mov	 eax, DWORD PTR [eax+4]
  001f3	89 45 a4	 mov	 DWORD PTR $T9[ebp], eax
$LN213@SetPartyQu:

; 617  : 		errno_t err = _localtime64_s(&ptmTemp, &m_time);

  001f6	8d 45 ac	 lea	 eax, DWORD PTR _time$[ebp]
  001f9	50		 push	 eax
  001fa	8d 45 cc	 lea	 eax, DWORD PTR _ptmTemp$13[ebp]
  001fd	50		 push	 eax
  001fe	e8 00 00 00 00	 call	 __localtime64_s
  00203	83 c4 08	 add	 esp, 8

; 618  : 
; 619  : 		if (err != 0)

  00206	85 c0		 test	 eax, eax
  00208	74 09		 je	 SHORT $LN239@SetPartyQu

; 692  : 	return ptm ? ptm->tm_hour : -1 ;

  0020a	c7 45 bc ff ff
	ff ff		 mov	 DWORD PTR $T11[ebp], -1
  00211	eb 2b		 jmp	 SHORT $LN229@SetPartyQu
$LN239@SetPartyQu:

; 624  : 		*ptm = ptmTemp;

  00213	0f 10 45 cc	 movups	 xmm0, XMMWORD PTR _ptmTemp$13[ebp]
  00217	8b 45 ec	 mov	 eax, DWORD PTR _ptmTemp$13[ebp+32]
  0021a	89 85 54 ff ff
	ff		 mov	 DWORD PTR _ttm$6[ebp+32], eax

; 625  : 		return ptm;

  00220	8d 85 34 ff ff
	ff		 lea	 eax, DWORD PTR _ttm$6[ebp]
  00226	0f 11 85 34 ff
	ff ff		 movups	 XMMWORD PTR _ttm$6[ebp], xmm0
  0022d	0f 10 45 dc	 movups	 xmm0, XMMWORD PTR _ptmTemp$13[ebp+16]
  00231	0f 11 85 44 ff
	ff ff		 movups	 XMMWORD PTR _ttm$6[ebp+16], xmm0

; 692  : 	return ptm ? ptm->tm_hour : -1 ;

  00238	8b 40 08	 mov	 eax, DWORD PTR [eax+8]
  0023b	89 45 bc	 mov	 DWORD PTR $T11[ebp], eax
$LN229@SetPartyQu:

; 617  : 		errno_t err = _localtime64_s(&ptmTemp, &m_time);

  0023e	8d 45 ac	 lea	 eax, DWORD PTR _time$[ebp]
  00241	50		 push	 eax
  00242	8d 45 cc	 lea	 eax, DWORD PTR _ptmTemp$15[ebp]
  00245	50		 push	 eax
  00246	e8 00 00 00 00	 call	 __localtime64_s
  0024b	83 c4 08	 add	 esp, 8

; 618  : 
; 619  : 		if (err != 0)

  0024e	85 c0		 test	 eax, eax
  00250	74 09		 je	 SHORT $LN255@SetPartyQu

; 683  : 	return ptm ? ptm->tm_mday : 0 ;

  00252	c7 45 c8 00 00
	00 00		 mov	 DWORD PTR $T12[ebp], 0
  00259	eb 2b		 jmp	 SHORT $LN245@SetPartyQu
$LN255@SetPartyQu:

; 624  : 		*ptm = ptmTemp;

  0025b	0f 10 45 cc	 movups	 xmm0, XMMWORD PTR _ptmTemp$15[ebp]
  0025f	8b 45 ec	 mov	 eax, DWORD PTR _ptmTemp$15[ebp+32]
  00262	89 85 30 ff ff
	ff		 mov	 DWORD PTR _ttm$5[ebp+32], eax

; 625  : 		return ptm;

  00268	8d 85 10 ff ff
	ff		 lea	 eax, DWORD PTR _ttm$5[ebp]
  0026e	0f 11 85 10 ff
	ff ff		 movups	 XMMWORD PTR _ttm$5[ebp], xmm0
  00275	0f 10 45 dc	 movups	 xmm0, XMMWORD PTR _ptmTemp$15[ebp+16]
  00279	0f 11 85 20 ff
	ff ff		 movups	 XMMWORD PTR _ttm$5[ebp+16], xmm0

; 683  : 	return ptm ? ptm->tm_mday : 0 ;

  00280	8b 40 0c	 mov	 eax, DWORD PTR [eax+12]
  00283	89 45 c8	 mov	 DWORD PTR $T12[ebp], eax
$LN245@SetPartyQu:

; 617  : 		errno_t err = _localtime64_s(&ptmTemp, &m_time);

  00286	8d 45 ac	 lea	 eax, DWORD PTR _time$[ebp]
  00289	50		 push	 eax
  0028a	8d 45 cc	 lea	 eax, DWORD PTR _ptmTemp$17[ebp]
  0028d	50		 push	 eax
  0028e	e8 00 00 00 00	 call	 __localtime64_s
  00293	83 c4 08	 add	 esp, 8

; 618  : 
; 619  : 		if (err != 0)

  00296	85 c0		 test	 eax, eax
  00298	74 04		 je	 SHORT $LN271@SetPartyQu

; 674  : 	return ptm ? ptm->tm_mon + 1 : 0;

  0029a	33 f6		 xor	 esi, esi
  0029c	eb 29		 jmp	 SHORT $LN261@SetPartyQu
$LN271@SetPartyQu:

; 624  : 		*ptm = ptmTemp;

  0029e	0f 10 45 cc	 movups	 xmm0, XMMWORD PTR _ptmTemp$17[ebp]
  002a2	8b 45 ec	 mov	 eax, DWORD PTR _ptmTemp$17[ebp+32]

; 625  : 		return ptm;

  002a5	8d b5 ec fe ff
	ff		 lea	 esi, DWORD PTR _ttm$4[ebp]
  002ab	89 85 0c ff ff
	ff		 mov	 DWORD PTR _ttm$4[ebp+32], eax
  002b1	0f 11 85 ec fe
	ff ff		 movups	 XMMWORD PTR _ttm$4[ebp], xmm0
  002b8	0f 10 45 dc	 movups	 xmm0, XMMWORD PTR _ptmTemp$17[ebp+16]
  002bc	0f 11 85 fc fe
	ff ff		 movups	 XMMWORD PTR _ttm$4[ebp+16], xmm0

; 674  : 	return ptm ? ptm->tm_mon + 1 : 0;

  002c3	8b 76 10	 mov	 esi, DWORD PTR [esi+16]
  002c6	46		 inc	 esi
$LN261@SetPartyQu:

; 617  : 		errno_t err = _localtime64_s(&ptmTemp, &m_time);

  002c7	8d 45 ac	 lea	 eax, DWORD PTR _time$[ebp]
  002ca	50		 push	 eax
  002cb	8d 45 cc	 lea	 eax, DWORD PTR _ptmTemp$18[ebp]
  002ce	50		 push	 eax
  002cf	e8 00 00 00 00	 call	 __localtime64_s
  002d4	83 c4 08	 add	 esp, 8

; 618  : 
; 619  : 		if (err != 0)

  002d7	85 c0		 test	 eax, eax
  002d9	74 04		 je	 SHORT $LN287@SetPartyQu

; 665  : 	return ptm ? (ptm->tm_year) + 1900 : 0 ;

  002db	33 c0		 xor	 eax, eax
  002dd	eb 2d		 jmp	 SHORT $LN277@SetPartyQu
$LN287@SetPartyQu:

; 624  : 		*ptm = ptmTemp;

  002df	0f 10 45 cc	 movups	 xmm0, XMMWORD PTR _ptmTemp$18[ebp]
  002e3	8b 45 ec	 mov	 eax, DWORD PTR _ptmTemp$18[ebp+32]
  002e6	89 85 e8 fe ff
	ff		 mov	 DWORD PTR _ttm$3[ebp+32], eax

; 625  : 		return ptm;

  002ec	8d 85 c8 fe ff
	ff		 lea	 eax, DWORD PTR _ttm$3[ebp]
  002f2	0f 11 85 c8 fe
	ff ff		 movups	 XMMWORD PTR _ttm$3[ebp], xmm0
  002f9	0f 10 45 dc	 movups	 xmm0, XMMWORD PTR _ptmTemp$18[ebp+16]
  002fd	0f 11 85 d8 fe
	ff ff		 movups	 XMMWORD PTR _ttm$3[ebp+16], xmm0

; 665  : 	return ptm ? (ptm->tm_year) + 1900 : 0 ;

  00304	8b 40 14	 mov	 eax, DWORD PTR [eax+20]
  00307	05 6c 07 00 00	 add	 eax, 1900		; 0000076cH
$LN277@SetPartyQu:
; File C:\IAGOS\server\v18\Source\Source\_Common\partyquest.cpp

; 316  : 	strDateTime.Format( "DATE : %d%.2d%.2d\nTIME : %d::%d::%d\n", time.GetYear(), time.GetMonth(), time.GetDay(), time.GetHour(), time.GetMinute(), time.GetSecond() );

  0030c	ff 75 a8	 push	 DWORD PTR $T10[ebp]
  0030f	ff 75 a4	 push	 DWORD PTR $T9[ebp]
  00312	ff 75 bc	 push	 DWORD PTR $T11[ebp]
  00315	ff 75 c8	 push	 DWORD PTR $T12[ebp]
  00318	56		 push	 esi
  00319	50		 push	 eax
  0031a	8d 45 b8	 lea	 eax, DWORD PTR _strDateTime$[ebp]
  0031d	68 00 00 00 00	 push	 OFFSET ??_C@_0CF@ECCMBMMP@DATE?5?3?5?$CFd?$CF?42d?$CF?42d?6TIME?5?3?5?$CFd?3?3?$CFd@
  00322	50		 push	 eax
  00323	e8 00 00 00 00	 call	 ?Format@?$CStringT@DV?$StrTraitMFC@DV?$ChTraitsCRT@D@ATL@@@@@ATL@@QAAXPBDZZ ; ATL::CStringT<char,StrTraitMFC<char,ATL::ChTraitsCRT<char> > >::Format

; 317  : 	strQuestInfo.Format( "QUEST ID = %d, PARTY ID = %d, WORMON ID = %d\n", nQuestId, idParty, objidWormon );

  00328	ff 75 1c	 push	 DWORD PTR _objidWormon$[ebp]
  0032b	8b 75 b4	 mov	 esi, DWORD PTR _idParty$GSCopy$1$[ebp]
  0032e	8d 45 a0	 lea	 eax, DWORD PTR _strQuestInfo$[ebp]
  00331	56		 push	 esi
  00332	57		 push	 edi
  00333	68 00 00 00 00	 push	 OFFSET ??_C@_0CO@DHJCABDL@QUEST?5ID?5?$DN?5?$CFd?0?5PARTY?5ID?5?$DN?5?$CFd?0?5W@
  00338	50		 push	 eax
  00339	e8 00 00 00 00	 call	 ?Format@?$CStringT@DV?$StrTraitMFC@DV?$ChTraitsCRT@D@ATL@@@@@ATL@@QAAXPBDZZ ; ATL::CStringT<char,StrTraitMFC<char,ATL::ChTraitsCRT<char> > >::Format
  0033e	83 c4 34	 add	 esp, 52			; 00000034H

; 318  : 	
; 319  : 	CParty* pParty	= g_PartyMng.GetParty( idParty );

  00341	b9 00 00 00 00	 mov	 ecx, OFFSET ?g_PartyMng@@3VCPartyMng@@A ; g_PartyMng
  00346	56		 push	 esi
  00347	e8 00 00 00 00	 call	 ?GetParty@CPartyMng@@QAEPAVCParty@@K@Z ; CPartyMng::GetParty
  0034c	89 45 bc	 mov	 DWORD PTR _pParty$1$[ebp], eax

; 320  : 	if( pParty )

  0034f	85 c0		 test	 eax, eax
  00351	0f 84 93 00 00
	00		 je	 $LN3@SetPartyQu

; 321  : 	{
; 322  : 		for( int i = 0 ; i < pParty->GetSizeofMember() ; ++i )

  00357	33 ff		 xor	 edi, edi
  00359	39 b8 cc 01 00
	00		 cmp	 DWORD PTR [eax+460], edi
  0035f	0f 8e 85 00 00
	00		 jle	 $LN3@SetPartyQu
  00365	8b 35 28 00 00
	00		 mov	 esi, DWORD PTR ?prj@@3VCProject@@A+40
  0036b	83 c0 28	 add	 eax, 40			; 00000028H
  0036e	89 45 c8	 mov	 DWORD PTR tv1187[ebp], eax
$LL4@SetPartyQu:

; 323  : 		{
; 324  : 			CUser* pUsertmp = (CUser *)prj.GetUserByID( pParty->GetPlayerId( i ) );

  00371	8b 10		 mov	 edx, DWORD PTR [eax]
; File C:\Program Files\Microsoft Visual Studio\2022\Professional\VC\Tools\MSVC\14.44.35207\include\xtree

; 1630 :         _Tree_find_result<_Nodeptr> _Result{{_Scary->_Myhead->_Parent, _Tree_child::_Right}, _Scary->_Myhead};

  00373	8b ce		 mov	 ecx, esi
  00375	8b 46 04	 mov	 eax, DWORD PTR [esi+4]

; 1631 :         _Nodeptr _Trynode = _Result._Location._Parent;
; 1632 :         while (!_Trynode->_Isnil) {

  00378	80 78 0d 00	 cmp	 BYTE PTR [eax+13], 0
  0037c	75 16		 jne	 SHORT $LN62@SetPartyQu
  0037e	66 90		 npad	 2
$LL61@SetPartyQu:
; File C:\Program Files\Microsoft Visual Studio\2022\Professional\VC\Tools\MSVC\14.44.35207\include\type_traits

; 2380 :         return _Left < _Right;

  00380	39 50 10	 cmp	 DWORD PTR [eax+16], edx
; File C:\Program Files\Microsoft Visual Studio\2022\Professional\VC\Tools\MSVC\14.44.35207\include\xtree

; 1634 :             if (_DEBUG_LT_PRED(_Getcomp(), _Traits::_Kfn(_Trynode->_Myval), _Keyval)) {

  00383	73 05		 jae	 SHORT $LN63@SetPartyQu

; 1635 :                 _Result._Location._Child = _Tree_child::_Right;
; 1636 :                 _Trynode                 = _Trynode->_Right;

  00385	8b 40 08	 mov	 eax, DWORD PTR [eax+8]

; 1637 :             } else {

  00388	eb 04		 jmp	 SHORT $LN64@SetPartyQu
$LN63@SetPartyQu:

; 1638 :                 _Result._Location._Child = _Tree_child::_Left;
; 1639 :                 _Result._Bound           = _Trynode;

  0038a	8b c8		 mov	 ecx, eax

; 1640 :                 _Trynode                 = _Trynode->_Left;

  0038c	8b 00		 mov	 eax, DWORD PTR [eax]
$LN64@SetPartyQu:

; 1631 :         _Nodeptr _Trynode = _Result._Location._Parent;
; 1632 :         while (!_Trynode->_Isnil) {

  0038e	80 78 0d 00	 cmp	 BYTE PTR [eax+13], 0
  00392	74 ec		 je	 SHORT $LL61@SetPartyQu
$LN62@SetPartyQu:

; 1624 :         return !_Bound->_Isnil && !_DEBUG_LT_PRED(_Getcomp(), _Keyval, _Traits::_Kfn(_Bound->_Myval));

  00394	80 79 0d 00	 cmp	 BYTE PTR [ecx+13], 0
  00398	75 05		 jne	 SHORT $LN58@SetPartyQu
; File C:\Program Files\Microsoft Visual Studio\2022\Professional\VC\Tools\MSVC\14.44.35207\include\type_traits

; 2380 :         return _Left < _Right;

  0039a	3b 51 10	 cmp	 edx, DWORD PTR [ecx+16]
; File C:\Program Files\Microsoft Visual Studio\2022\Professional\VC\Tools\MSVC\14.44.35207\include\xtree

; 1624 :         return !_Bound->_Isnil && !_DEBUG_LT_PRED(_Getcomp(), _Keyval, _Traits::_Kfn(_Bound->_Myval));

  0039d	73 02		 jae	 SHORT $LN57@SetPartyQu
$LN58@SetPartyQu:

; 1389 :         return _Get_scary()->_Myhead;

  0039f	8b ce		 mov	 ecx, esi
$LN57@SetPartyQu:

; 37   :     _Tree_unchecked_const_iterator(_Nodeptr _Pnode, const _Mytree* _Plist) noexcept : _Ptr(_Pnode) {

  003a1	3b ce		 cmp	 ecx, esi
; File C:\IAGOS\server\v18\Source\Source\_Common\Project.h

; 1436 : 	if( i != m_idPlayerToUserPtr.end() )

  003a3	74 30		 je	 SHORT $LN2@SetPartyQu

; 1437 : 		return i->second;

  003a5	8b 49 14	 mov	 ecx, DWORD PTR [ecx+20]
; File C:\IAGOS\server\v18\Source\Source\_Common\Obj.h

; 327  : 	return pObj && ( pObj->IsDelete() == FALSE ); 

  003a8	85 c9		 test	 ecx, ecx
  003aa	74 29		 je	 SHORT $LN2@SetPartyQu

; 180  : 	BOOL			IsDelete()	{ return (m_dwFlags & OBJ_FLAG_DELETE);  }

  003ac	f6 41 04 01	 test	 BYTE PTR [ecx+4], 1

; 327  : 	return pObj && ( pObj->IsDelete() == FALSE ); 

  003b0	75 23		 jne	 SHORT $LN2@SetPartyQu
; File C:\IAGOS\server\v18\Source\Source\_Common\partyquest.cpp

; 327  : 				strMemberName += pUsertmp->GetName();

  003b2	6a 00		 push	 0
  003b4	e8 00 00 00 00	 call	 ?GetName@CMover@@QAEPBDH@Z ; CMover::GetName
  003b9	50		 push	 eax
  003ba	8d 4d c4	 lea	 ecx, DWORD PTR _strMemberName$[ebp]
  003bd	e8 00 00 00 00	 call	 ??Y?$CStringT@DV?$StrTraitMFC@DV?$ChTraitsCRT@D@ATL@@@@@ATL@@QAEAAV01@PBD@Z ; ATL::CStringT<char,StrTraitMFC<char,ATL::ChTraitsCRT<char> > >::operator+=

; 328  : 				strMemberName += "\n";

  003c2	68 00 00 00 00	 push	 OFFSET ??_C@_01EEMJAFIK@?6@
  003c7	8d 4d c4	 lea	 ecx, DWORD PTR _strMemberName$[ebp]
  003ca	e8 00 00 00 00	 call	 ??Y?$CStringT@DV?$StrTraitMFC@DV?$ChTraitsCRT@D@ATL@@@@@ATL@@QAEAAV01@PBD@Z ; ATL::CStringT<char,StrTraitMFC<char,ATL::ChTraitsCRT<char> > >::operator+=
  003cf	8b 35 28 00 00
	00		 mov	 esi, DWORD PTR ?prj@@3VCProject@@A+40
$LN2@SetPartyQu:

; 321  : 	{
; 322  : 		for( int i = 0 ; i < pParty->GetSizeofMember() ; ++i )

  003d5	8b 4d bc	 mov	 ecx, DWORD PTR _pParty$1$[ebp]
  003d8	47		 inc	 edi
  003d9	8b 45 c8	 mov	 eax, DWORD PTR tv1187[ebp]
  003dc	83 c0 1c	 add	 eax, 28			; 0000001cH
  003df	89 45 c8	 mov	 DWORD PTR tv1187[ebp], eax
  003e2	3b b9 cc 01 00
	00		 cmp	 edi, DWORD PTR [ecx+460]
  003e8	7c 87		 jl	 SHORT $LL4@SetPartyQu
$LN3@SetPartyQu:

; 333  : 	FILEOUT( strFileName, "%s%s%s\n", strDateTime, strQuestInfo, strMemberName );

  003ea	ff 75 c4	 push	 DWORD PTR _strMemberName$[ebp]
  003ed	8b 7d a0	 mov	 edi, DWORD PTR _strQuestInfo$[ebp]
  003f0	8b 75 b8	 mov	 esi, DWORD PTR _strDateTime$[ebp]
  003f3	57		 push	 edi
  003f4	56		 push	 esi
  003f5	68 00 00 00 00	 push	 OFFSET ??_C@_07CEGMOJAH@?$CFs?$CFs?$CFs?6@
  003fa	ff 75 c0	 push	 DWORD PTR _strFileName$[ebp]
  003fd	e8 00 00 00 00	 call	 ?FILEOUT@@YAXPBD0ZZ	; FILEOUT
; File C:\Program Files\Microsoft Visual Studio\2022\Professional\VC\Tools\MSVC\14.44.35207\atlmfc\include\atlsimpstr.h

; 804  : 		return( reinterpret_cast< CStringData* >( m_pszData )-1 );

  00402	8d 56 f0	 lea	 edx, DWORD PTR [esi-16]
; File C:\IAGOS\server\v18\Source\Source\_Common\partyquest.cpp

; 335  : }

  00405	c6 45 fc 03	 mov	 BYTE PTR __$EHRec$[ebp+8], 3
; File C:\Program Files\Microsoft Visual Studio\2022\Professional\VC\Tools\MSVC\14.44.35207\atlmfc\include\atlsimpstr.h

; 92   : 		if( _InterlockedDecrement( &nRefs ) <= 0 )

  00409	83 ce ff	 or	 esi, -1
; File C:\IAGOS\server\v18\Source\Source\_Common\partyquest.cpp

; 333  : 	FILEOUT( strFileName, "%s%s%s\n", strDateTime, strQuestInfo, strMemberName );

  0040c	83 c4 14	 add	 esp, 20			; 00000014H
; File C:\Program Files\Microsoft Visual Studio\2022\Professional\VC\Tools\MSVC\14.44.35207\atlmfc\include\atlsimpstr.h

; 92   : 		if( _InterlockedDecrement( &nRefs ) <= 0 )

  0040f	8b c6		 mov	 eax, esi
  00411	f0 0f c1 42 0c	 lock	  xadd	 DWORD PTR [edx+12], eax
  00416	48		 dec	 eax
  00417	85 c0		 test	 eax, eax
  00419	7f 08		 jg	 SHORT $LN21@SetPartyQu

; 93   : 		{
; 94   : 			pStringMgr->Free( this );

  0041b	8b 0a		 mov	 ecx, DWORD PTR [edx]
  0041d	52		 push	 edx
  0041e	8b 01		 mov	 eax, DWORD PTR [ecx]
  00420	ff 50 04	 call	 DWORD PTR [eax+4]
$LN21@SetPartyQu:

; 804  : 		return( reinterpret_cast< CStringData* >( m_pszData )-1 );

  00423	8b 55 c4	 mov	 edx, DWORD PTR _strMemberName$[ebp]

; 92   : 		if( _InterlockedDecrement( &nRefs ) <= 0 )

  00426	8b c6		 mov	 eax, esi
; File C:\IAGOS\server\v18\Source\Source\_Common\partyquest.cpp

; 335  : }

  00428	c6 45 fc 02	 mov	 BYTE PTR __$EHRec$[ebp+8], 2
; File C:\Program Files\Microsoft Visual Studio\2022\Professional\VC\Tools\MSVC\14.44.35207\atlmfc\include\atlsimpstr.h

; 804  : 		return( reinterpret_cast< CStringData* >( m_pszData )-1 );

  0042c	83 c2 f0	 add	 edx, -16		; fffffff0H

; 92   : 		if( _InterlockedDecrement( &nRefs ) <= 0 )

  0042f	f0 0f c1 42 0c	 lock	  xadd	 DWORD PTR [edx+12], eax
  00434	48		 dec	 eax
  00435	85 c0		 test	 eax, eax
  00437	7f 08		 jg	 SHORT $LN30@SetPartyQu

; 93   : 		{
; 94   : 			pStringMgr->Free( this );

  00439	8b 0a		 mov	 ecx, DWORD PTR [edx]
  0043b	52		 push	 edx
  0043c	8b 01		 mov	 eax, DWORD PTR [ecx]
  0043e	ff 50 04	 call	 DWORD PTR [eax+4]
$LN30@SetPartyQu:
; File C:\IAGOS\server\v18\Source\Source\_Common\partyquest.cpp

; 335  : }

  00441	c6 45 fc 01	 mov	 BYTE PTR __$EHRec$[ebp+8], 1
; File C:\Program Files\Microsoft Visual Studio\2022\Professional\VC\Tools\MSVC\14.44.35207\atlmfc\include\atlsimpstr.h

; 804  : 		return( reinterpret_cast< CStringData* >( m_pszData )-1 );

  00445	83 c7 f0	 add	 edi, -16		; fffffff0H

; 92   : 		if( _InterlockedDecrement( &nRefs ) <= 0 )

  00448	8b c6		 mov	 eax, esi
  0044a	f0 0f c1 47 0c	 lock	  xadd	 DWORD PTR [edi+12], eax
  0044f	48		 dec	 eax
  00450	85 c0		 test	 eax, eax
  00452	7f 08		 jg	 SHORT $LN39@SetPartyQu

; 93   : 		{
; 94   : 			pStringMgr->Free( this );

  00454	8b 0f		 mov	 ecx, DWORD PTR [edi]
  00456	57		 push	 edi
  00457	8b 01		 mov	 eax, DWORD PTR [ecx]
  00459	ff 50 04	 call	 DWORD PTR [eax+4]
$LN39@SetPartyQu:

; 804  : 		return( reinterpret_cast< CStringData* >( m_pszData )-1 );

  0045c	8b 55 c0	 mov	 edx, DWORD PTR _strFileName$[ebp]
; File C:\IAGOS\server\v18\Source\Source\_Common\partyquest.cpp

; 335  : }

  0045f	c7 45 fc ff ff
	ff ff		 mov	 DWORD PTR __$EHRec$[ebp+8], -1
; File C:\Program Files\Microsoft Visual Studio\2022\Professional\VC\Tools\MSVC\14.44.35207\atlmfc\include\atlsimpstr.h

; 804  : 		return( reinterpret_cast< CStringData* >( m_pszData )-1 );

  00466	83 c2 f0	 add	 edx, -16		; fffffff0H

; 92   : 		if( _InterlockedDecrement( &nRefs ) <= 0 )

  00469	f0 0f c1 72 0c	 lock	  xadd	 DWORD PTR [edx+12], esi
  0046e	4e		 dec	 esi
  0046f	85 f6		 test	 esi, esi
  00471	7f 17		 jg	 SHORT $LN48@SetPartyQu

; 93   : 		{
; 94   : 			pStringMgr->Free( this );

  00473	8b 0a		 mov	 ecx, DWORD PTR [edx]
  00475	52		 push	 edx
  00476	8b 01		 mov	 eax, DWORD PTR [ecx]
  00478	ff 50 04	 call	 DWORD PTR [eax+4]
  0047b	eb 0d		 jmp	 SHORT $LN48@SetPartyQu
$LN306@SetPartyQu:
; File C:\IAGOS\server\v18\Source\Source\_Common\partyquest.cpp

; 289  : 		Error( "" );

  0047d	68 00 00 00 00	 push	 OFFSET ??_C@_00CNPNBAHC@@
  00482	e8 00 00 00 00	 call	 ?Error@@YAPBDPBDZZ	; Error
  00487	83 c4 04	 add	 esp, 4
$LN48@SetPartyQu:

; 335  : }

  0048a	8b 4d f4	 mov	 ecx, DWORD PTR __$EHRec$[ebp]
  0048d	64 89 0d 00 00
	00 00		 mov	 DWORD PTR fs:0, ecx
  00494	59		 pop	 ecx
  00495	5f		 pop	 edi
  00496	5e		 pop	 esi
  00497	8b 4d f0	 mov	 ecx, DWORD PTR __$ArrayPad$[ebp]
  0049a	33 cd		 xor	 ecx, ebp
  0049c	e8 00 00 00 00	 call	 @__security_check_cookie@4
  004a1	8b e5		 mov	 esp, ebp
  004a3	5d		 pop	 ebp
  004a4	c2 18 00	 ret	 24			; 00000018H
$LN311@SetPartyQu:
; File C:\Program Files\Microsoft Visual Studio\2022\Professional\VC\Tools\MSVC\14.44.35207\atlmfc\include\atlsimpstr.h

; 209  : 		ATLENSURE( pStringMgr != NULL );

  004a7	68 05 40 00 80	 push	 -2147467259		; 80004005H
  004ac	e8 00 00 00 00	 call	 ?AtlThrowImpl@ATL@@YGXJ@Z ; ATL::AtlThrowImpl
$LN312@SetPartyQu:
  004b1	68 05 40 00 80	 push	 -2147467259		; 80004005H
  004b6	e8 00 00 00 00	 call	 ?AtlThrowImpl@ATL@@YGXJ@Z ; ATL::AtlThrowImpl
$LN313@SetPartyQu:
  004bb	68 05 40 00 80	 push	 -2147467259		; 80004005H
  004c0	e8 00 00 00 00	 call	 ?AtlThrowImpl@ATL@@YGXJ@Z ; ATL::AtlThrowImpl
$LN314@SetPartyQu:
  004c5	68 05 40 00 80	 push	 -2147467259		; 80004005H
  004ca	e8 00 00 00 00	 call	 ?AtlThrowImpl@ATL@@YGXJ@Z ; ATL::AtlThrowImpl
$LN309@SetPartyQu:
  004cf	cc		 int	 3
_TEXT	ENDS
;	COMDAT text$x
text$x	SEGMENT
__unwindfunclet$?SetPartyQuest@CPartyQuestProcessor@@QAEXHHHHKK@Z$4:
  00000	8d 4d c0	 lea	 ecx, DWORD PTR _strFileName$[ebp]
  00003	e9 00 00 00 00	 jmp	 ??1?$CSimpleStringT@D$0A@@ATL@@QAE@XZ ; ATL::CSimpleStringT<char,0>::~CSimpleStringT<char,0>
__unwindfunclet$?SetPartyQuest@CPartyQuestProcessor@@QAEXHHHHKK@Z$0:
  00008	8d 4d c0	 lea	 ecx, DWORD PTR _strFileName$[ebp]
  0000b	e9 00 00 00 00	 jmp	 ??1?$CStringT@DV?$StrTraitMFC@DV?$ChTraitsCRT@D@ATL@@@@@ATL@@QAE@XZ ; ATL::CStringT<char,StrTraitMFC<char,ATL::ChTraitsCRT<char> > >::~CStringT<char,StrTraitMFC<char,ATL::ChTraitsCRT<char> > >
__unwindfunclet$?SetPartyQuest@CPartyQuestProcessor@@QAEXHHHHKK@Z$1:
  00010	8d 4d a0	 lea	 ecx, DWORD PTR _strQuestInfo$[ebp]
  00013	e9 00 00 00 00	 jmp	 ??1?$CStringT@DV?$StrTraitMFC@DV?$ChTraitsCRT@D@ATL@@@@@ATL@@QAE@XZ ; ATL::CStringT<char,StrTraitMFC<char,ATL::ChTraitsCRT<char> > >::~CStringT<char,StrTraitMFC<char,ATL::ChTraitsCRT<char> > >
__unwindfunclet$?SetPartyQuest@CPartyQuestProcessor@@QAEXHHHHKK@Z$2:
  00018	8d 4d c4	 lea	 ecx, DWORD PTR _strMemberName$[ebp]
  0001b	e9 00 00 00 00	 jmp	 ??1?$CStringT@DV?$StrTraitMFC@DV?$ChTraitsCRT@D@ATL@@@@@ATL@@QAE@XZ ; ATL::CStringT<char,StrTraitMFC<char,ATL::ChTraitsCRT<char> > >::~CStringT<char,StrTraitMFC<char,ATL::ChTraitsCRT<char> > >
__unwindfunclet$?SetPartyQuest@CPartyQuestProcessor@@QAEXHHHHKK@Z$3:
  00020	8d 4d b8	 lea	 ecx, DWORD PTR _strDateTime$[ebp]
  00023	e9 00 00 00 00	 jmp	 ??1?$CStringT@DV?$StrTraitMFC@DV?$ChTraitsCRT@D@ATL@@@@@ATL@@QAE@XZ ; ATL::CStringT<char,StrTraitMFC<char,ATL::ChTraitsCRT<char> > >::~CStringT<char,StrTraitMFC<char,ATL::ChTraitsCRT<char> > >
  00028	cc		 int	 3
  00029	cc		 int	 3
  0002a	cc		 int	 3
  0002b	cc		 int	 3
  0002c	cc		 int	 3
__ehhandler$?SetPartyQuest@CPartyQuestProcessor@@QAEXHHHHKK@Z:
  0002d	90		 npad	 1
  0002e	90		 npad	 1
  0002f	8b 54 24 08	 mov	 edx, DWORD PTR [esp+8]
  00033	8d 42 0c	 lea	 eax, DWORD PTR [edx+12]
  00036	8b 8a c8 fe ff
	ff		 mov	 ecx, DWORD PTR [edx-312]
  0003c	33 c8		 xor	 ecx, eax
  0003e	e8 00 00 00 00	 call	 @__security_check_cookie@4
  00043	8b 4a fc	 mov	 ecx, DWORD PTR [edx-4]
  00046	33 c8		 xor	 ecx, eax
  00048	e8 00 00 00 00	 call	 @__security_check_cookie@4
  0004d	b8 00 00 00 00	 mov	 eax, OFFSET __ehfuncinfo$?SetPartyQuest@CPartyQuestProcessor@@QAEXHHHHKK@Z
  00052	e9 00 00 00 00	 jmp	 ___CxxFrameHandler3
text$x	ENDS
?SetPartyQuest@CPartyQuestProcessor@@QAEXHHHHKK@Z ENDP	; CPartyQuestProcessor::SetPartyQuest
; Function compile flags: /Ogtp
; File C:\IAGOS\server\v18\Source\Source\_Common\partyquest.cpp
; File C:\Program Files\Microsoft Visual Studio\2022\Professional\VC\Tools\MSVC\14.44.35207\atlmfc\include\atltypes.h
; File C:\IAGOS\server\v18\Source\Source\_Common\partyquest.cpp
; File C:\Program Files\Microsoft Visual Studio\2022\Professional\VC\Tools\MSVC\14.44.35207\atlmfc\include\atltypes.h
; File C:\IAGOS\server\v18\Source\Source\_Common\partyquest.cpp
; File C:\Program Files\Microsoft Visual Studio\2022\Professional\VC\Tools\MSVC\14.44.35207\atlmfc\include\atltypes.h
; File C:\IAGOS\server\v18\Source\Source\_Common\partyquest.cpp
; File C:\Program Files\Microsoft Visual Studio\2022\Professional\VC\Tools\MSVC\14.44.35207\include\xtree
; File C:\IAGOS\server\v18\Source\Source\_Common\partyquest.cpp
; File C:\Program Files\Microsoft Visual Studio\2022\Professional\VC\Tools\MSVC\14.44.35207\include\xtree
; File C:\Program Files\Microsoft Visual Studio\2022\Professional\VC\Tools\MSVC\14.44.35207\include\type_traits
; File C:\Program Files\Microsoft Visual Studio\2022\Professional\VC\Tools\MSVC\14.44.35207\include\xtree
; File C:\Program Files\Microsoft Visual Studio\2022\Professional\VC\Tools\MSVC\14.44.35207\include\type_traits
; File C:\Program Files\Microsoft Visual Studio\2022\Professional\VC\Tools\MSVC\14.44.35207\include\xtree
; File C:\IAGOS\server\v18\Source\Source\_Common\Project.h
; File C:\IAGOS\server\v18\Source\Source\_Common\Obj.h
; File C:\IAGOS\server\v18\Source\Source\_Common\partyquest.cpp
; File C:\IAGOS\server\v18\Source\Source\_Common\Obj.h
; File C:\IAGOS\server\v18\Source\Source\_Common\partyquest.cpp
; File C:\Program Files\Microsoft Visual Studio\2022\Professional\VC\Tools\MSVC\14.44.35207\atlmfc\include\atltypes.h
; File C:\IAGOS\server\v18\Source\Source\_Common\Obj.h
; File C:\Program Files\Microsoft Visual Studio\2022\Professional\VC\Tools\MSVC\14.44.35207\atlmfc\include\atltypes.h
; File C:\IAGOS\server\v18\Source\Source\_Common\partyquest.cpp
; File C:\Program Files\Microsoft Visual Studio\2022\Professional\VC\Tools\MSVC\14.44.35207\include\xtree
; File C:\IAGOS\server\v18\Source\Source\_Common\partyquest.cpp
; File C:\Program Files\Microsoft Visual Studio\2022\Professional\VC\Tools\MSVC\14.44.35207\include\xtree
; File C:\Program Files\Microsoft Visual Studio\2022\Professional\VC\Tools\MSVC\14.44.35207\include\type_traits
; File C:\Program Files\Microsoft Visual Studio\2022\Professional\VC\Tools\MSVC\14.44.35207\include\xtree
; File C:\Program Files\Microsoft Visual Studio\2022\Professional\VC\Tools\MSVC\14.44.35207\include\type_traits
; File C:\Program Files\Microsoft Visual Studio\2022\Professional\VC\Tools\MSVC\14.44.35207\include\xtree
; File C:\IAGOS\server\v18\Source\Source\_Common\Project.h
; File C:\IAGOS\server\v18\Source\Source\_Common\Obj.h
; File C:\IAGOS\server\v18\Source\Source\_Common\partyquest.cpp
; File C:\IAGOS\server\v18\Source\Source\_Common\Obj.h
; File C:\IAGOS\server\v18\Source\Source\_Common\partyquest.cpp
; File C:\Program Files\Microsoft Visual Studio\2022\Professional\VC\Tools\MSVC\14.44.35207\atlmfc\include\atltypes.h
; File C:\IAGOS\server\v18\Source\Source\_Common\Obj.h
; File C:\Program Files\Microsoft Visual Studio\2022\Professional\VC\Tools\MSVC\14.44.35207\atlmfc\include\atltypes.h
; File C:\IAGOS\server\v18\Source\Source\_Common\partyquest.cpp
; File C:\Program Files\Microsoft Visual Studio\2022\Professional\VC\Tools\MSVC\14.44.35207\atlmfc\include\atltypes.h
; File C:\IAGOS\server\v18\Source\Source\_Common\partyquest.cpp
; File C:\Program Files\Microsoft Visual Studio\2022\Professional\VC\Tools\MSVC\14.44.35207\atlmfc\include\atltypes.h
; File C:\IAGOS\server\v18\Source\Source\_Common\partyquest.cpp
; File C:\Program Files\Microsoft Visual Studio\2022\Professional\VC\Tools\MSVC\14.44.35207\include\xtree
; File C:\IAGOS\server\v18\Source\Source\_Common\partyquest.cpp
; File C:\Program Files\Microsoft Visual Studio\2022\Professional\VC\Tools\MSVC\14.44.35207\include\xtree
; File C:\Program Files\Microsoft Visual Studio\2022\Professional\VC\Tools\MSVC\14.44.35207\include\type_traits
; File C:\Program Files\Microsoft Visual Studio\2022\Professional\VC\Tools\MSVC\14.44.35207\include\xtree
; File C:\Program Files\Microsoft Visual Studio\2022\Professional\VC\Tools\MSVC\14.44.35207\include\type_traits
; File C:\Program Files\Microsoft Visual Studio\2022\Professional\VC\Tools\MSVC\14.44.35207\include\xtree
; File C:\IAGOS\server\v18\Source\Source\_Common\Project.h
; File C:\IAGOS\server\v18\Source\Source\_Common\Obj.h
; File C:\IAGOS\server\v18\Source\Source\_Common\partyquest.cpp
; File C:\IAGOS\server\v18\Source\Source\_Common\Obj.h
; File C:\IAGOS\server\v18\Source\Source\_Common\partyquest.cpp
; File C:\Program Files\Microsoft Visual Studio\2022\Professional\VC\Tools\MSVC\14.44.35207\atlmfc\include\atltypes.h
; File C:\IAGOS\server\v18\Source\Source\_Common\Obj.h
; File C:\Program Files\Microsoft Visual Studio\2022\Professional\VC\Tools\MSVC\14.44.35207\atlmfc\include\atltypes.h
; File C:\IAGOS\server\v18\Source\Source\_Common\partyquest.cpp
; File C:\IAGOS\server\v18\Source\Source\_Common\Mover.h
; File C:\IAGOS\server\v18\Source\Source\_Common\partyquest.cpp
; File C:\Program Files\Microsoft Visual Studio\2022\Professional\VC\Tools\MSVC\14.44.35207\include\xtree
; File C:\IAGOS\server\v18\Source\Source\_Common\partyquest.cpp
; File C:\Program Files\Microsoft Visual Studio\2022\Professional\VC\Tools\MSVC\14.44.35207\include\xtree
; File C:\Program Files\Microsoft Visual Studio\2022\Professional\VC\Tools\MSVC\14.44.35207\include\type_traits
; File C:\Program Files\Microsoft Visual Studio\2022\Professional\VC\Tools\MSVC\14.44.35207\include\xtree
; File C:\Program Files\Microsoft Visual Studio\2022\Professional\VC\Tools\MSVC\14.44.35207\include\type_traits
; File C:\Program Files\Microsoft Visual Studio\2022\Professional\VC\Tools\MSVC\14.44.35207\include\xtree
; File C:\IAGOS\server\v18\Source\Source\_Common\Project.h
; File C:\IAGOS\server\v18\Source\Source\_Common\Obj.h
; File C:\IAGOS\server\v18\Source\Source\_Common\partyquest.cpp
; File C:\IAGOS\server\v18\Source\Source\_Common\Obj.h
; File C:\IAGOS\server\v18\Source\Source\_Common\partyquest.cpp
; File C:\Program Files\Microsoft Visual Studio\2022\Professional\VC\Tools\MSVC\14.44.35207\atlmfc\include\atltypes.h
; File C:\IAGOS\server\v18\Source\Source\_Common\Obj.h
; File C:\Program Files\Microsoft Visual Studio\2022\Professional\VC\Tools\MSVC\14.44.35207\atlmfc\include\atltypes.h
; File C:\IAGOS\server\v18\Source\Source\_Common\partyquest.cpp
; File C:\Program Files\Microsoft Visual Studio\2022\Professional\VC\Tools\MSVC\14.44.35207\atlmfc\include\atltypes.h
; File C:\IAGOS\server\v18\Source\Source\_Common\partyquest.cpp
;	COMDAT ?Process@CPartyQuestProcessor@@QAEXXZ
_TEXT	SEGMENT
_vPos$5 = -192						; size = 12
_vPos$6 = -180						; size = 12
_vPos$7 = -168						; size = 12
_vPos$8 = -156						; size = 12
$T9 = -144						; size = 12
$T10 = -132						; size = 12
$T11 = -120						; size = 12
$T12 = -108						; size = 12
$T13 = -96						; size = 12
$T14 = -84						; size = 12
$T15 = -72						; size = 12
$T16 = -60						; size = 12
_dwTickCount$1$ = -48					; size = 4
tv2423 = -44						; size = 4
_i$1$ = -40						; size = 4
_pProp$1$ = -36						; size = 4
_bsurvivor$1$ = -32					; size = 4
_bexist$1$ = -32					; size = 4
_this$GSCopy$1$ = -28					; size = 4
_pParty$1$ = -24					; size = 4
_rect$17 = -20						; size = 16
_rect$18 = -20						; size = 16
_rect$19 = -20						; size = 16
_rect$20 = -20						; size = 16
__$ArrayPad$ = -4					; size = 4
?Process@CPartyQuestProcessor@@QAEXXZ PROC		; CPartyQuestProcessor::Process, COMDAT
; _this$ = ecx

; 25   : {

  00000	55		 push	 ebp
  00001	8b ec		 mov	 ebp, esp
  00003	81 ec c0 00 00
	00		 sub	 esp, 192		; 000000c0H
  00009	a1 00 00 00 00	 mov	 eax, DWORD PTR ___security_cookie
  0000e	33 c5		 xor	 eax, ebp
  00010	89 45 fc	 mov	 DWORD PTR __$ArrayPad$[ebp], eax
  00013	53		 push	 ebx
  00014	56		 push	 esi
  00015	8b f1		 mov	 esi, ecx
  00017	57		 push	 edi
  00018	89 75 e4	 mov	 DWORD PTR _this$GSCopy$1$[ebp], esi

; 26   : 	DWORD dwTickCount	= GetTickCount();

  0001b	ff 15 00 00 00
	00		 call	 DWORD PTR __imp__GetTickCount@0

; 27   : 	for( int i = 0; i < MAX_GUILD_QUEST; i++ )

  00021	33 ff		 xor	 edi, edi
  00023	89 45 d0	 mov	 DWORD PTR _dwTickCount$1$[ebp], eax
  00026	89 7d d8	 mov	 DWORD PTR _i$1$[ebp], edi
  00029	0f 1f 80 00 00
	00 00		 npad	 7
$LL4@Process:

; 28   : 	{
; 29   : 		PPARTYQUESTELEM pElem = &m_pElem[i];

  00030	8b 45 d8	 mov	 eax, DWORD PTR _i$1$[ebp]
  00033	c1 e7 03	 shl	 edi, 3
  00036	2b f8		 sub	 edi, eax
  00038	89 7d d4	 mov	 DWORD PTR tv2423[ebp], edi

; 30   : 		if( pElem->nId == i )

  0003b	39 04 be	 cmp	 DWORD PTR [esi+edi*4], eax
  0003e	0f 85 59 05 00
	00		 jne	 $LN2@Process

; 31   : 		{
; 32   : 			CParty* pParty	= g_PartyMng.GetParty( pElem->idParty );

  00044	ff 74 be 08	 push	 DWORD PTR [esi+edi*4+8]
  00048	b9 00 00 00 00	 mov	 ecx, OFFSET ?g_PartyMng@@3VCPartyMng@@A ; g_PartyMng
  0004d	e8 00 00 00 00	 call	 ?GetParty@CPartyMng@@QAEPAVCParty@@K@Z ; CPartyMng::GetParty

; 33   : //			if( !pGuild )
; 34   : //				continue;
; 35   : 
; 36   : 			PARTYQUESTPROP* pProp	= prj.GetPartyQuestProp( pElem->nId );

  00052	ff 34 be	 push	 DWORD PTR [esi+edi*4]
  00055	8b d8		 mov	 ebx, eax
  00057	b9 00 00 00 00	 mov	 ecx, OFFSET ?prj@@3VCProject@@A ; prj
  0005c	89 5d e8	 mov	 DWORD PTR _pParty$1$[ebp], ebx
  0005f	e8 00 00 00 00	 call	 ?GetPartyQuestProp@CProject@@QAEPAUPARTYQUESTPROP@@H@Z ; CProject::GetPartyQuestProp
  00064	89 45 dc	 mov	 DWORD PTR _pProp$1$[ebp], eax

; 37   : 			if( !pProp )

  00067	85 c0		 test	 eax, eax
  00069	0f 84 2e 05 00
	00		 je	 $LN2@Process

; 38   : 				continue;
; 39   : 
; 40   : 			// Á¦ÇŃ ˝Ă°Ł Áöłµ´Ů...
; 41   : 			if( pElem->dwEndTime < dwTickCount )

  0006f	8b 55 d0	 mov	 edx, DWORD PTR _dwTickCount$1$[ebp]
  00072	0f b6 4c be 10	 movzx	 ecx, BYTE PTR [esi+edi*4+16]
  00077	39 54 be 0c	 cmp	 DWORD PTR [esi+edi*4+12], edx
  0007b	0f 83 c6 00 00
	00		 jae	 $LN23@Process

; 42   : 			{
; 43   : 				switch( pElem->nProcess )

  00081	83 e9 01	 sub	 ecx, 1
  00084	74 65		 je	 SHORT $LN25@Process
  00086	83 e9 01	 sub	 ecx, 1
  00089	0f 85 0e 05 00
	00		 jne	 $LN2@Process
; File C:\Program Files\Microsoft Visual Studio\2022\Professional\VC\Tools\MSVC\14.44.35207\atlmfc\include\atltypes.h

; 661  : 	::SetRect(this, x1, y1, x2, y2);

  0008f	ff b0 98 10 00
	00		 push	 DWORD PTR [eax+4248]
  00095	0f 57 c0	 xorps	 xmm0, xmm0
  00098	ff b0 9c 10 00
	00		 push	 DWORD PTR [eax+4252]

; 532  : 	left = 0;

  0009e	0f 11 45 ec	 movups	 XMMWORD PTR _rect$18[ebp], xmm0

; 661  : 	::SetRect(this, x1, y1, x2, y2);

  000a2	ff b0 a0 10 00
	00		 push	 DWORD PTR [eax+4256]
  000a8	ff b0 94 10 00
	00		 push	 DWORD PTR [eax+4244]
  000ae	8d 45 ec	 lea	 eax, DWORD PTR _rect$18[ebp]
  000b1	50		 push	 eax
  000b2	ff 15 00 00 00
	00		 call	 DWORD PTR __imp__SetRect@20

; 615  : 	return CPoint((left+right)/2, (top+bottom)/2);

  000b8	8b 45 f4	 mov	 eax, DWORD PTR _rect$18[ebp+8]
  000bb	03 45 ec	 add	 eax, DWORD PTR _rect$18[ebp]
  000be	99		 cdq
  000bf	2b c2		 sub	 eax, edx
  000c1	8b 55 f0	 mov	 edx, DWORD PTR _rect$18[ebp+4]
  000c4	8b f0		 mov	 esi, eax
  000c6	8b 45 f8	 mov	 eax, DWORD PTR _rect$18[ebp+12]
  000c9	8d 04 10	 lea	 eax, DWORD PTR [eax+edx]
  000cc	99		 cdq
  000cd	2b c2		 sub	 eax, edx
  000cf	d1 f8		 sar	 eax, 1
  000d1	66 0f 6e c0	 movd	 xmm0, eax
; File C:\IAGOS\server\v18\Source\Source\_Common\partyquest.cpp

; 86   : 							vPos.x = (float)( point.x );

  000d5	0f 5b c0	 cvtdq2ps xmm0, xmm0

; 87   : 							vPos.z = (float)( point.y );

  000d8	f3 0f 11 85 6c
	ff ff ff	 movss	 DWORD PTR _vPos$8[ebp+8], xmm0

; 88   : 							vPos.y = 100.0f;
; 89   : 							RemoveAllDynamicObj( pProp->dwWorldId, vPos, 500 );

  000e0	8b 85 6c ff ff
	ff		 mov	 eax, DWORD PTR _vPos$8[ebp+8]

; 90   : 
; 91   : 							RemovePartyQuest( pElem->nId );
; 92   : 						}
; 93   : 						break;

  000e6	e9 42 02 00 00	 jmp	 $LN499@Process
$LN25@Process:
; File C:\Program Files\Microsoft Visual Studio\2022\Professional\VC\Tools\MSVC\14.44.35207\atlmfc\include\atltypes.h

; 661  : 	::SetRect(this, x1, y1, x2, y2);

  000eb	ff b0 98 10 00
	00		 push	 DWORD PTR [eax+4248]
  000f1	0f 57 c0	 xorps	 xmm0, xmm0
  000f4	ff b0 9c 10 00
	00		 push	 DWORD PTR [eax+4252]

; 532  : 	left = 0;

  000fa	0f 11 45 ec	 movups	 XMMWORD PTR _rect$17[ebp], xmm0

; 661  : 	::SetRect(this, x1, y1, x2, y2);

  000fe	ff b0 a0 10 00
	00		 push	 DWORD PTR [eax+4256]
  00104	ff b0 94 10 00
	00		 push	 DWORD PTR [eax+4244]
  0010a	8d 45 ec	 lea	 eax, DWORD PTR _rect$17[ebp]
  0010d	50		 push	 eax
  0010e	ff 15 00 00 00
	00		 call	 DWORD PTR __imp__SetRect@20

; 615  : 	return CPoint((left+right)/2, (top+bottom)/2);

  00114	8b 45 f4	 mov	 eax, DWORD PTR _rect$17[ebp+8]
  00117	03 45 ec	 add	 eax, DWORD PTR _rect$17[ebp]
  0011a	99		 cdq
  0011b	2b c2		 sub	 eax, edx
  0011d	8b 55 f0	 mov	 edx, DWORD PTR _rect$17[ebp+4]
  00120	8b f0		 mov	 esi, eax
  00122	8b 45 f8	 mov	 eax, DWORD PTR _rect$17[ebp+12]
  00125	8d 04 10	 lea	 eax, DWORD PTR [eax+edx]
  00128	99		 cdq
  00129	2b c2		 sub	 eax, edx
  0012b	d1 f8		 sar	 eax, 1
  0012d	66 0f 6e c0	 movd	 xmm0, eax
; File C:\IAGOS\server\v18\Source\Source\_Common\partyquest.cpp

; 64   : 							vPos.x = (float)( point.x );

  00131	0f 5b c0	 cvtdq2ps xmm0, xmm0

; 65   : 							vPos.z = (float)( point.y );

  00134	f3 0f 11 85 60
	ff ff ff	 movss	 DWORD PTR _vPos$7[ebp+8], xmm0

; 66   : 							vPos.y = 100.0f;
; 67   : 							RemoveAllDynamicObj( pProp->dwWorldId, vPos, 500 );

  0013c	8b 85 60 ff ff
	ff		 mov	 eax, DWORD PTR _vPos$7[ebp+8]

; 94   : 					default:
; 95   : 						break;
; 96   : 				}
; 97   : 			}

  00142	e9 e6 01 00 00	 jmp	 $LN499@Process
$LN23@Process:

; 98   : 			else
; 99   : 			// ľĆÁ÷ ż­˝ĂąĚ Ŕâ°íŔÖ´ÂÁßŔĚ´Ů~
; 100  : 			{
; 101  : 				switch( pElem->nProcess )

  00147	83 e9 01	 sub	 ecx, 1
  0014a	0f 84 24 02 00
	00		 je	 $LN28@Process
  00150	83 e9 01	 sub	 ecx, 1
  00153	0f 85 44 04 00
	00		 jne	 $LN2@Process
; File C:\Program Files\Microsoft Visual Studio\2022\Professional\VC\Tools\MSVC\14.44.35207\atlmfc\include\atltypes.h

; 661  : 	::SetRect(this, x1, y1, x2, y2);

  00159	ff b0 98 10 00
	00		 push	 DWORD PTR [eax+4248]
  0015f	0f 57 c0	 xorps	 xmm0, xmm0
  00162	ff b0 9c 10 00
	00		 push	 DWORD PTR [eax+4252]

; 532  : 	left = 0;

  00168	0f 11 45 ec	 movups	 XMMWORD PTR _rect$20[ebp], xmm0

; 661  : 	::SetRect(this, x1, y1, x2, y2);

  0016c	ff b0 a0 10 00
	00		 push	 DWORD PTR [eax+4256]
  00172	ff b0 94 10 00
	00		 push	 DWORD PTR [eax+4244]
  00178	8d 45 ec	 lea	 eax, DWORD PTR _rect$20[ebp]
  0017b	50		 push	 eax
  0017c	ff 15 00 00 00
	00		 call	 DWORD PTR __imp__SetRect@20
; File C:\IAGOS\server\v18\Source\Source\_Common\partyquest.cpp

; 181  : 							BOOL bexist	= FALSE;	// is member here?

  00182	c7 45 e0 00 00
	00 00		 mov	 DWORD PTR _bexist$1$[ebp], 0

; 182  : 
; 183  : 							if( pParty )

  00189	85 db		 test	 ebx, ebx
  0018b	0f 84 6e 01 00
	00		 je	 $LN437@Process

; 184  : 							{
; 185  : 								CUser* pUser;
; 186  : 								
; 187  : 								for( int k = 0 ; k < pParty->GetSizeofMember() ; k++ )

  00191	8b 15 28 00 00
	00		 mov	 edx, DWORD PTR ?prj@@3VCProject@@A+40
  00197	33 ff		 xor	 edi, edi
  00199	39 bb cc 01 00
	00		 cmp	 DWORD PTR [ebx+460], edi
  0019f	0f 8e a0 00 00
	00		 jle	 $LN410@Process
  001a5	83 c3 28	 add	 ebx, 40			; 00000028H
$LL17@Process:
; File C:\Program Files\Microsoft Visual Studio\2022\Professional\VC\Tools\MSVC\14.44.35207\include\xtree

; 1630 :         _Tree_find_result<_Nodeptr> _Result{{_Scary->_Myhead->_Parent, _Tree_child::_Right}, _Scary->_Myhead};

  001a8	8b 42 04	 mov	 eax, DWORD PTR [edx+4]
  001ab	8b ca		 mov	 ecx, edx
; File C:\IAGOS\server\v18\Source\Source\_Common\partyquest.cpp

; 190  : 									pUser = (CUser*)prj.GetUserByID( idPlayer );

  001ad	8b 33		 mov	 esi, DWORD PTR [ebx]
; File C:\Program Files\Microsoft Visual Studio\2022\Professional\VC\Tools\MSVC\14.44.35207\include\xtree

; 1632 :         while (!_Trynode->_Isnil) {

  001af	80 78 0d 00	 cmp	 BYTE PTR [eax+13], 0
  001b3	75 14		 jne	 SHORT $LN222@Process
$LL221@Process:
; File C:\Program Files\Microsoft Visual Studio\2022\Professional\VC\Tools\MSVC\14.44.35207\include\type_traits

; 2380 :         return _Left < _Right;

  001b5	39 70 10	 cmp	 DWORD PTR [eax+16], esi
; File C:\Program Files\Microsoft Visual Studio\2022\Professional\VC\Tools\MSVC\14.44.35207\include\xtree

; 1634 :             if (_DEBUG_LT_PRED(_Getcomp(), _Traits::_Kfn(_Trynode->_Myval), _Keyval)) {

  001b8	73 05		 jae	 SHORT $LN223@Process

; 1635 :                 _Result._Location._Child = _Tree_child::_Right;
; 1636 :                 _Trynode                 = _Trynode->_Right;

  001ba	8b 40 08	 mov	 eax, DWORD PTR [eax+8]

; 1637 :             } else {

  001bd	eb 04		 jmp	 SHORT $LN224@Process
$LN223@Process:

; 1638 :                 _Result._Location._Child = _Tree_child::_Left;
; 1639 :                 _Result._Bound           = _Trynode;

  001bf	8b c8		 mov	 ecx, eax

; 1640 :                 _Trynode                 = _Trynode->_Left;

  001c1	8b 00		 mov	 eax, DWORD PTR [eax]
$LN224@Process:

; 1632 :         while (!_Trynode->_Isnil) {

  001c3	80 78 0d 00	 cmp	 BYTE PTR [eax+13], 0
  001c7	74 ec		 je	 SHORT $LL221@Process
$LN222@Process:

; 1624 :         return !_Bound->_Isnil && !_DEBUG_LT_PRED(_Getcomp(), _Keyval, _Traits::_Kfn(_Bound->_Myval));

  001c9	80 79 0d 00	 cmp	 BYTE PTR [ecx+13], 0
  001cd	75 05		 jne	 SHORT $LN218@Process
; File C:\Program Files\Microsoft Visual Studio\2022\Professional\VC\Tools\MSVC\14.44.35207\include\type_traits

; 2380 :         return _Left < _Right;

  001cf	3b 71 10	 cmp	 esi, DWORD PTR [ecx+16]
; File C:\Program Files\Microsoft Visual Studio\2022\Professional\VC\Tools\MSVC\14.44.35207\include\xtree

; 1624 :         return !_Bound->_Isnil && !_DEBUG_LT_PRED(_Getcomp(), _Keyval, _Traits::_Kfn(_Bound->_Myval));

  001d2	73 02		 jae	 SHORT $LN217@Process
$LN218@Process:

; 1389 :         return _Get_scary()->_Myhead;

  001d4	8b ca		 mov	 ecx, edx
$LN217@Process:

; 37   :     _Tree_unchecked_const_iterator(_Nodeptr _Pnode, const _Mytree* _Plist) noexcept : _Ptr(_Pnode) {

  001d6	3b ca		 cmp	 ecx, edx
; File C:\IAGOS\server\v18\Source\Source\_Common\Project.h

; 1436 : 	if( i != m_idPlayerToUserPtr.end() )

  001d8	74 4c		 je	 SHORT $LN15@Process

; 1437 : 		return i->second;

  001da	8b 71 14	 mov	 esi, DWORD PTR [ecx+20]
; File C:\IAGOS\server\v18\Source\Source\_Common\Obj.h

; 327  : 	return pObj && ( pObj->IsDelete() == FALSE ); 

  001dd	85 f6		 test	 esi, esi
  001df	74 45		 je	 SHORT $LN15@Process

; 180  : 	BOOL			IsDelete()	{ return (m_dwFlags & OBJ_FLAG_DELETE);  }

  001e1	f6 46 04 01	 test	 BYTE PTR [esi+4], 1

; 327  : 	return pObj && ( pObj->IsDelete() == FALSE ); 

  001e5	75 3f		 jne	 SHORT $LN15@Process

; 215  : 	D3DXVECTOR3		GetPos()	{ return m_vPos; }

  001e7	8b 86 68 01 00
	00		 mov	 eax, DWORD PTR [esi+360]
  001ed	f3 0f 7e 86 60
	01 00 00	 movq	 xmm0, QWORD PTR [esi+352]
  001f5	89 45 c0	 mov	 DWORD PTR $T15[ebp+8], eax
; File C:\IAGOS\server\v18\Source\Source\_Common\partyquest.cpp

; 193  : 										POINT point = { (int)pUser->GetPos().x, (int)pUser->GetPos().z	};

  001f8	f3 0f 2c 45 c0	 cvttss2si eax, DWORD PTR $T15[ebp+8]
; File C:\IAGOS\server\v18\Source\Source\_Common\Obj.h

; 215  : 	D3DXVECTOR3		GetPos()	{ return m_vPos; }

  001fd	66 0f d6 45 c4	 movq	 QWORD PTR $T16[ebp], xmm0
  00202	f3 0f 7e c0	 movq	 xmm0, xmm0
; File C:\IAGOS\server\v18\Source\Source\_Common\partyquest.cpp

; 193  : 										POINT point = { (int)pUser->GetPos().x, (int)pUser->GetPos().z	};

  00206	f3 0f 2c 4d c4	 cvttss2si ecx, DWORD PTR $T16[ebp]
; File C:\Program Files\Microsoft Visual Studio\2022\Professional\VC\Tools\MSVC\14.44.35207\atlmfc\include\atltypes.h

; 652  : 	return ::PtInRect(this, point);

  0020b	50		 push	 eax
  0020c	8d 45 ec	 lea	 eax, DWORD PTR _rect$20[ebp]
; File C:\IAGOS\server\v18\Source\Source\_Common\Obj.h

; 215  : 	D3DXVECTOR3		GetPos()	{ return m_vPos; }

  0020f	66 0f d6 45 b8	 movq	 QWORD PTR $T15[ebp], xmm0
; File C:\Program Files\Microsoft Visual Studio\2022\Professional\VC\Tools\MSVC\14.44.35207\atlmfc\include\atltypes.h

; 652  : 	return ::PtInRect(this, point);

  00214	51		 push	 ecx
  00215	50		 push	 eax
  00216	ff 15 00 00 00
	00		 call	 DWORD PTR __imp__PtInRect@12
; File C:\IAGOS\server\v18\Source\Source\_Common\partyquest.cpp

; 194  : 										if( rect.PtInRect( point ) )

  0021c	8b 15 28 00 00
	00		 mov	 edx, DWORD PTR ?prj@@3VCProject@@A+40
  00222	85 c0		 test	 eax, eax
  00224	75 15		 jne	 SHORT $LN403@Process
$LN15@Process:

; 184  : 							{
; 185  : 								CUser* pUser;
; 186  : 								
; 187  : 								for( int k = 0 ; k < pParty->GetSizeofMember() ; k++ )

  00226	8b 45 e8	 mov	 eax, DWORD PTR _pParty$1$[ebp]
  00229	47		 inc	 edi
  0022a	83 c3 1c	 add	 ebx, 28			; 0000001cH
  0022d	3b b8 cc 01 00
	00		 cmp	 edi, DWORD PTR [eax+460]
  00233	0f 8c 6f ff ff
	ff		 jl	 $LL17@Process
  00239	eb 07		 jmp	 SHORT $LN445@Process
$LN403@Process:

; 195  : 										{
; 196  : 											bexist	= TRUE;

  0023b	c7 45 e0 01 00
	00 00		 mov	 DWORD PTR _bexist$1$[ebp], 1
$LN445@Process:

; 197  : 											break;
; 198  : 										}
; 199  : 									}
; 200  : 								}
; 201  : 
; 202  : 								for( int k = 0 ; k < pParty->GetSizeofMember() ; k++ )

  00242	8b 5d e8	 mov	 ebx, DWORD PTR _pParty$1$[ebp]
$LN410@Process:
  00245	33 ff		 xor	 edi, edi
  00247	39 bb cc 01 00
	00		 cmp	 DWORD PTR [ebx+460], edi
  0024d	0f 8e 9f 00 00
	00		 jle	 $LN19@Process
  00253	83 c3 28	 add	 ebx, 40			; 00000028H
$LL20@Process:
; File C:\Program Files\Microsoft Visual Studio\2022\Professional\VC\Tools\MSVC\14.44.35207\include\xtree

; 1630 :         _Tree_find_result<_Nodeptr> _Result{{_Scary->_Myhead->_Parent, _Tree_child::_Right}, _Scary->_Myhead};

  00256	8b 42 04	 mov	 eax, DWORD PTR [edx+4]
  00259	8b ca		 mov	 ecx, edx
; File C:\IAGOS\server\v18\Source\Source\_Common\partyquest.cpp

; 205  : 									pUser = (CUser*)prj.GetUserByID( idPlayer );

  0025b	8b 33		 mov	 esi, DWORD PTR [ebx]
; File C:\Program Files\Microsoft Visual Studio\2022\Professional\VC\Tools\MSVC\14.44.35207\include\xtree

; 1632 :         while (!_Trynode->_Isnil) {

  0025d	80 78 0d 00	 cmp	 BYTE PTR [eax+13], 0
  00261	75 14		 jne	 SHORT $LN56@Process
$LL55@Process:
; File C:\Program Files\Microsoft Visual Studio\2022\Professional\VC\Tools\MSVC\14.44.35207\include\type_traits

; 2380 :         return _Left < _Right;

  00263	39 70 10	 cmp	 DWORD PTR [eax+16], esi
; File C:\Program Files\Microsoft Visual Studio\2022\Professional\VC\Tools\MSVC\14.44.35207\include\xtree

; 1634 :             if (_DEBUG_LT_PRED(_Getcomp(), _Traits::_Kfn(_Trynode->_Myval), _Keyval)) {

  00266	73 05		 jae	 SHORT $LN57@Process

; 1635 :                 _Result._Location._Child = _Tree_child::_Right;
; 1636 :                 _Trynode                 = _Trynode->_Right;

  00268	8b 40 08	 mov	 eax, DWORD PTR [eax+8]

; 1637 :             } else {

  0026b	eb 04		 jmp	 SHORT $LN58@Process
$LN57@Process:

; 1638 :                 _Result._Location._Child = _Tree_child::_Left;
; 1639 :                 _Result._Bound           = _Trynode;

  0026d	8b c8		 mov	 ecx, eax

; 1640 :                 _Trynode                 = _Trynode->_Left;

  0026f	8b 00		 mov	 eax, DWORD PTR [eax]
$LN58@Process:

; 1632 :         while (!_Trynode->_Isnil) {

  00271	80 78 0d 00	 cmp	 BYTE PTR [eax+13], 0
  00275	74 ec		 je	 SHORT $LL55@Process
$LN56@Process:

; 1624 :         return !_Bound->_Isnil && !_DEBUG_LT_PRED(_Getcomp(), _Keyval, _Traits::_Kfn(_Bound->_Myval));

  00277	80 79 0d 00	 cmp	 BYTE PTR [ecx+13], 0
  0027b	75 05		 jne	 SHORT $LN52@Process
; File C:\Program Files\Microsoft Visual Studio\2022\Professional\VC\Tools\MSVC\14.44.35207\include\type_traits

; 2380 :         return _Left < _Right;

  0027d	3b 71 10	 cmp	 esi, DWORD PTR [ecx+16]
; File C:\Program Files\Microsoft Visual Studio\2022\Professional\VC\Tools\MSVC\14.44.35207\include\xtree

; 1624 :         return !_Bound->_Isnil && !_DEBUG_LT_PRED(_Getcomp(), _Keyval, _Traits::_Kfn(_Bound->_Myval));

  00280	73 02		 jae	 SHORT $LN51@Process
$LN52@Process:

; 1389 :         return _Get_scary()->_Myhead;

  00282	8b ca		 mov	 ecx, edx
$LN51@Process:

; 37   :     _Tree_unchecked_const_iterator(_Nodeptr _Pnode, const _Mytree* _Plist) noexcept : _Ptr(_Pnode) {

  00284	3b ca		 cmp	 ecx, edx
; File C:\IAGOS\server\v18\Source\Source\_Common\Project.h

; 1436 : 	if( i != m_idPlayerToUserPtr.end() )

  00286	74 57		 je	 SHORT $LN18@Process

; 1437 : 		return i->second;

  00288	8b 71 14	 mov	 esi, DWORD PTR [ecx+20]
; File C:\IAGOS\server\v18\Source\Source\_Common\Obj.h

; 327  : 	return pObj && ( pObj->IsDelete() == FALSE ); 

  0028b	85 f6		 test	 esi, esi
  0028d	74 50		 je	 SHORT $LN18@Process

; 180  : 	BOOL			IsDelete()	{ return (m_dwFlags & OBJ_FLAG_DELETE);  }

  0028f	f6 46 04 01	 test	 BYTE PTR [esi+4], 1

; 327  : 	return pObj && ( pObj->IsDelete() == FALSE ); 

  00293	75 4a		 jne	 SHORT $LN18@Process

; 215  : 	D3DXVECTOR3		GetPos()	{ return m_vPos; }

  00295	8b 86 68 01 00
	00		 mov	 eax, DWORD PTR [esi+360]
  0029b	f3 0f 7e 86 60
	01 00 00	 movq	 xmm0, QWORD PTR [esi+352]
  002a3	89 45 a8	 mov	 DWORD PTR $T13[ebp+8], eax
; File C:\IAGOS\server\v18\Source\Source\_Common\partyquest.cpp

; 208  : 										POINT point = { (int)pUser->GetPos().x, (int)pUser->GetPos().z	};

  002a6	f3 0f 2c 45 a8	 cvttss2si eax, DWORD PTR $T13[ebp+8]
; File C:\IAGOS\server\v18\Source\Source\_Common\Obj.h

; 215  : 	D3DXVECTOR3		GetPos()	{ return m_vPos; }

  002ab	66 0f d6 45 ac	 movq	 QWORD PTR $T14[ebp], xmm0
  002b0	f3 0f 7e c0	 movq	 xmm0, xmm0
; File C:\IAGOS\server\v18\Source\Source\_Common\partyquest.cpp

; 208  : 										POINT point = { (int)pUser->GetPos().x, (int)pUser->GetPos().z	};

  002b4	f3 0f 2c 4d ac	 cvttss2si ecx, DWORD PTR $T14[ebp]
; File C:\Program Files\Microsoft Visual Studio\2022\Professional\VC\Tools\MSVC\14.44.35207\atlmfc\include\atltypes.h

; 652  : 	return ::PtInRect(this, point);

  002b9	50		 push	 eax
  002ba	8d 45 ec	 lea	 eax, DWORD PTR _rect$20[ebp]
; File C:\IAGOS\server\v18\Source\Source\_Common\Obj.h

; 215  : 	D3DXVECTOR3		GetPos()	{ return m_vPos; }

  002bd	66 0f d6 45 a0	 movq	 QWORD PTR $T13[ebp], xmm0
; File C:\Program Files\Microsoft Visual Studio\2022\Professional\VC\Tools\MSVC\14.44.35207\atlmfc\include\atltypes.h

; 652  : 	return ::PtInRect(this, point);

  002c2	51		 push	 ecx
  002c3	50		 push	 eax
  002c4	ff 15 00 00 00
	00		 call	 DWORD PTR __imp__PtInRect@12
; File C:\IAGOS\server\v18\Source\Source\_Common\partyquest.cpp

; 209  : 										if( !rect.PtInRect( point ) )

  002ca	85 c0		 test	 eax, eax
  002cc	75 0b		 jne	 SHORT $LN441@Process

; 210  : 										{
; 211  : 											pUser->AddQuestTextTime( 0, 0, 0xffffffff );											

  002ce	6a ff		 push	 -1
  002d0	50		 push	 eax
  002d1	50		 push	 eax
  002d2	8b ce		 mov	 ecx, esi
  002d4	e8 00 00 00 00	 call	 ?AddQuestTextTime@CUser@@QAEXHHK@Z ; CUser::AddQuestTextTime
$LN441@Process:

; 197  : 											break;
; 198  : 										}
; 199  : 									}
; 200  : 								}
; 201  : 
; 202  : 								for( int k = 0 ; k < pParty->GetSizeofMember() ; k++ )

  002d9	8b 15 28 00 00
	00		 mov	 edx, DWORD PTR ?prj@@3VCProject@@A+40
$LN18@Process:
  002df	8b 45 e8	 mov	 eax, DWORD PTR _pParty$1$[ebp]
  002e2	47		 inc	 edi
  002e3	83 c3 1c	 add	 ebx, 28			; 0000001cH
  002e6	3b b8 cc 01 00
	00		 cmp	 edi, DWORD PTR [eax+460]
  002ec	0f 8c 64 ff ff
	ff		 jl	 $LL20@Process
$LN19@Process:

; 212  : 										}
; 213  : 									}
; 214  : 								}
; 215  : 							}
; 216  : 
; 217  : 							if( !bexist )

  002f2	83 7d e0 00	 cmp	 DWORD PTR _bexist$1$[ebp], 0
  002f6	0f 85 9e 02 00
	00		 jne	 $LN447@Process
  002fc	8b 7d d4	 mov	 edi, DWORD PTR tv2423[ebp]
$LN437@Process:
; File C:\Program Files\Microsoft Visual Studio\2022\Professional\VC\Tools\MSVC\14.44.35207\atlmfc\include\atltypes.h

; 615  : 	return CPoint((left+right)/2, (top+bottom)/2);

  002ff	8b 45 f4	 mov	 eax, DWORD PTR _rect$20[ebp+8]
  00302	03 45 ec	 add	 eax, DWORD PTR _rect$20[ebp]
  00305	99		 cdq
  00306	2b c2		 sub	 eax, edx
  00308	8b 55 f0	 mov	 edx, DWORD PTR _rect$20[ebp+4]
  0030b	8b f0		 mov	 esi, eax
  0030d	8b 45 f8	 mov	 eax, DWORD PTR _rect$20[ebp+12]
  00310	8d 04 10	 lea	 eax, DWORD PTR [eax+edx]
  00313	99		 cdq
  00314	2b c2		 sub	 eax, edx
  00316	d1 f8		 sar	 eax, 1
  00318	66 0f 6e c0	 movd	 xmm0, eax
; File C:\IAGOS\server\v18\Source\Source\_Common\partyquest.cpp

; 226  : 								vPos.x = (float)( point.x );

  0031c	0f 5b c0	 cvtdq2ps xmm0, xmm0

; 227  : 								vPos.z = (float)( point.y );

  0031f	f3 0f 11 85 54
	ff ff ff	 movss	 DWORD PTR _vPos$6[ebp+8], xmm0

; 228  : 								vPos.y = 100.0f;
; 229  : 								RemoveAllDynamicObj( pProp->dwWorldId, vPos, 500 );

  00327	8b 85 54 ff ff
	ff		 mov	 eax, DWORD PTR _vPos$6[ebp+8]
$LN499@Process:

; 27   : 	for( int i = 0; i < MAX_GUILD_QUEST; i++ )

  0032d	f3 0f 10 05 00
	00 00 00	 movss	 xmm0, DWORD PTR __real@42c80000
  00335	d1 fe		 sar	 esi, 1
  00337	68 f4 01 00 00	 push	 500			; 000001f4H
  0033c	83 ec 0c	 sub	 esp, 12			; 0000000cH
  0033f	8b cc		 mov	 ecx, esp
  00341	66 0f 6e ce	 movd	 xmm1, esi
  00345	8b 75 e4	 mov	 esi, DWORD PTR _this$GSCopy$1$[ebp]
  00348	0f 5b c9	 cvtdq2ps xmm1, xmm1
  0034b	0f 14 c8	 unpcklps xmm1, xmm0
  0034e	66 0f d6 09	 movq	 QWORD PTR [ecx], xmm1
  00352	89 41 08	 mov	 DWORD PTR [ecx+8], eax
  00355	8b ce		 mov	 ecx, esi
  00357	8b 45 dc	 mov	 eax, DWORD PTR _pProp$1$[ebp]
  0035a	ff b0 64 10 00
	00		 push	 DWORD PTR [eax+4196]
  00360	e8 00 00 00 00	 call	 ?RemoveAllDynamicObj@CPartyQuestProcessor@@QAEXKUD3DXVECTOR3@@H@Z ; CPartyQuestProcessor::RemoveAllDynamicObj
  00365	ff 34 be	 push	 DWORD PTR [esi+edi*4]
  00368	8b ce		 mov	 ecx, esi
  0036a	e8 00 00 00 00	 call	 ?RemovePartyQuest@CPartyQuestProcessor@@QAEXH@Z ; CPartyQuestProcessor::RemovePartyQuest
  0036f	e9 29 02 00 00	 jmp	 $LN2@Process
$LN28@Process:

; 102  : 				{
; 103  : 					case PQP_WORMON:
; 104  : 						{
; 105  : 							TRACE( "PQP_WORMON - p\n" );
; 106  : 							
; 107  : 							if( ++pElem->nCount < 10 )

  00374	66 ff 44 be 18	 inc	 WORD PTR [esi+edi*4+24]
  00379	66 83 7c be 18
	0a		 cmp	 WORD PTR [esi+edi*4+24], 10 ; 0000000aH
  0037f	0f 8c 18 02 00
	00		 jl	 $LN2@Process
; File C:\Program Files\Microsoft Visual Studio\2022\Professional\VC\Tools\MSVC\14.44.35207\atlmfc\include\atltypes.h

; 661  : 	::SetRect(this, x1, y1, x2, y2);

  00385	ff b0 98 10 00
	00		 push	 DWORD PTR [eax+4248]
  0038b	0f 57 c0	 xorps	 xmm0, xmm0
  0038e	ff b0 9c 10 00
	00		 push	 DWORD PTR [eax+4252]

; 532  : 	left = 0;

  00394	0f 11 45 ec	 movups	 XMMWORD PTR _rect$19[ebp], xmm0

; 661  : 	::SetRect(this, x1, y1, x2, y2);

  00398	ff b0 a0 10 00
	00		 push	 DWORD PTR [eax+4256]
  0039e	ff b0 94 10 00
	00		 push	 DWORD PTR [eax+4244]
  003a4	8d 45 ec	 lea	 eax, DWORD PTR _rect$19[ebp]
  003a7	50		 push	 eax
  003a8	ff 15 00 00 00
	00		 call	 DWORD PTR __imp__SetRect@20
; File C:\IAGOS\server\v18\Source\Source\_Common\partyquest.cpp

; 112  : 							BOOL bsurvivor	= FALSE;	// is survivor exists?

  003ae	c7 45 e0 00 00
	00 00		 mov	 DWORD PTR _bsurvivor$1$[ebp], 0

; 113  : 
; 114  : 							if( pParty )

  003b5	85 db		 test	 ebx, ebx
  003b7	0f 84 aa 01 00
	00		 je	 $LN434@Process

; 115  : 							{
; 116  : 								CUser* pUser;
; 117  : 								
; 118  : 								for( int k = 0 ; k < pParty->GetSizeofMember() ; k++ )

  003bd	8b 15 28 00 00
	00		 mov	 edx, DWORD PTR ?prj@@3VCProject@@A+40
  003c3	33 ff		 xor	 edi, edi
  003c5	39 bb cc 01 00
	00		 cmp	 DWORD PTR [ebx+460], edi
  003cb	0f 8e cf 00 00
	00		 jle	 $LN411@Process
  003d1	83 c3 28	 add	 ebx, 40			; 00000028H
$LL11@Process:
; File C:\Program Files\Microsoft Visual Studio\2022\Professional\VC\Tools\MSVC\14.44.35207\include\xtree

; 1630 :         _Tree_find_result<_Nodeptr> _Result{{_Scary->_Myhead->_Parent, _Tree_child::_Right}, _Scary->_Myhead};

  003d4	8b 42 04	 mov	 eax, DWORD PTR [edx+4]
  003d7	8b f2		 mov	 esi, edx
; File C:\IAGOS\server\v18\Source\Source\_Common\partyquest.cpp

; 121  : 									pUser = (CUser*)prj.GetUserByID( idPlayer );

  003d9	8b 0b		 mov	 ecx, DWORD PTR [ebx]
; File C:\Program Files\Microsoft Visual Studio\2022\Professional\VC\Tools\MSVC\14.44.35207\include\xtree

; 1632 :         while (!_Trynode->_Isnil) {

  003db	80 78 0d 00	 cmp	 BYTE PTR [eax+13], 0
  003df	75 14		 jne	 SHORT $LN294@Process
$LL293@Process:
; File C:\Program Files\Microsoft Visual Studio\2022\Professional\VC\Tools\MSVC\14.44.35207\include\type_traits

; 2380 :         return _Left < _Right;

  003e1	39 48 10	 cmp	 DWORD PTR [eax+16], ecx
; File C:\Program Files\Microsoft Visual Studio\2022\Professional\VC\Tools\MSVC\14.44.35207\include\xtree

; 1634 :             if (_DEBUG_LT_PRED(_Getcomp(), _Traits::_Kfn(_Trynode->_Myval), _Keyval)) {

  003e4	73 05		 jae	 SHORT $LN295@Process

; 1635 :                 _Result._Location._Child = _Tree_child::_Right;
; 1636 :                 _Trynode                 = _Trynode->_Right;

  003e6	8b 40 08	 mov	 eax, DWORD PTR [eax+8]

; 1637 :             } else {

  003e9	eb 04		 jmp	 SHORT $LN296@Process
$LN295@Process:

; 1638 :                 _Result._Location._Child = _Tree_child::_Left;
; 1639 :                 _Result._Bound           = _Trynode;

  003eb	8b f0		 mov	 esi, eax

; 1640 :                 _Trynode                 = _Trynode->_Left;

  003ed	8b 00		 mov	 eax, DWORD PTR [eax]
$LN296@Process:

; 1632 :         while (!_Trynode->_Isnil) {

  003ef	80 78 0d 00	 cmp	 BYTE PTR [eax+13], 0
  003f3	74 ec		 je	 SHORT $LL293@Process
$LN294@Process:

; 1624 :         return !_Bound->_Isnil && !_DEBUG_LT_PRED(_Getcomp(), _Keyval, _Traits::_Kfn(_Bound->_Myval));

  003f5	80 7e 0d 00	 cmp	 BYTE PTR [esi+13], 0
  003f9	75 05		 jne	 SHORT $LN290@Process
; File C:\Program Files\Microsoft Visual Studio\2022\Professional\VC\Tools\MSVC\14.44.35207\include\type_traits

; 2380 :         return _Left < _Right;

  003fb	3b 4e 10	 cmp	 ecx, DWORD PTR [esi+16]
; File C:\Program Files\Microsoft Visual Studio\2022\Professional\VC\Tools\MSVC\14.44.35207\include\xtree

; 1624 :         return !_Bound->_Isnil && !_DEBUG_LT_PRED(_Getcomp(), _Keyval, _Traits::_Kfn(_Bound->_Myval));

  003fe	73 02		 jae	 SHORT $LN289@Process
$LN290@Process:

; 1389 :         return _Get_scary()->_Myhead;

  00400	8b f2		 mov	 esi, edx
$LN289@Process:

; 37   :     _Tree_unchecked_const_iterator(_Nodeptr _Pnode, const _Mytree* _Plist) noexcept : _Ptr(_Pnode) {

  00402	3b f2		 cmp	 esi, edx
; File C:\IAGOS\server\v18\Source\Source\_Common\Project.h

; 1436 : 	if( i != m_idPlayerToUserPtr.end() )

  00404	0f 84 71 00 00
	00		 je	 $LN9@Process

; 1437 : 		return i->second;

  0040a	8b 76 14	 mov	 esi, DWORD PTR [esi+20]
; File C:\IAGOS\server\v18\Source\Source\_Common\Obj.h

; 327  : 	return pObj && ( pObj->IsDelete() == FALSE ); 

  0040d	85 f6		 test	 esi, esi
  0040f	74 6a		 je	 SHORT $LN9@Process

; 180  : 	BOOL			IsDelete()	{ return (m_dwFlags & OBJ_FLAG_DELETE);  }

  00411	f6 46 04 01	 test	 BYTE PTR [esi+4], 1

; 327  : 	return pObj && ( pObj->IsDelete() == FALSE ); 

  00415	75 64		 jne	 SHORT $LN9@Process

; 215  : 	D3DXVECTOR3		GetPos()	{ return m_vPos; }

  00417	8b 86 68 01 00
	00		 mov	 eax, DWORD PTR [esi+360]
  0041d	f3 0f 7e 86 60
	01 00 00	 movq	 xmm0, QWORD PTR [esi+352]
  00425	89 45 90	 mov	 DWORD PTR $T11[ebp+8], eax
; File C:\IAGOS\server\v18\Source\Source\_Common\partyquest.cpp

; 124  : 										POINT point = { (int)pUser->GetPos().x, (int)pUser->GetPos().z	};

  00428	f3 0f 2c 45 90	 cvttss2si eax, DWORD PTR $T11[ebp+8]
; File C:\IAGOS\server\v18\Source\Source\_Common\Obj.h

; 215  : 	D3DXVECTOR3		GetPos()	{ return m_vPos; }

  0042d	66 0f d6 45 94	 movq	 QWORD PTR $T12[ebp], xmm0
  00432	f3 0f 7e c0	 movq	 xmm0, xmm0
; File C:\IAGOS\server\v18\Source\Source\_Common\partyquest.cpp

; 124  : 										POINT point = { (int)pUser->GetPos().x, (int)pUser->GetPos().z	};

  00436	f3 0f 2c 4d 94	 cvttss2si ecx, DWORD PTR $T12[ebp]
; File C:\Program Files\Microsoft Visual Studio\2022\Professional\VC\Tools\MSVC\14.44.35207\atlmfc\include\atltypes.h

; 652  : 	return ::PtInRect(this, point);

  0043b	50		 push	 eax
  0043c	8d 45 ec	 lea	 eax, DWORD PTR _rect$19[ebp]
; File C:\IAGOS\server\v18\Source\Source\_Common\Obj.h

; 215  : 	D3DXVECTOR3		GetPos()	{ return m_vPos; }

  0043f	66 0f d6 45 88	 movq	 QWORD PTR $T11[ebp], xmm0
; File C:\Program Files\Microsoft Visual Studio\2022\Professional\VC\Tools\MSVC\14.44.35207\atlmfc\include\atltypes.h

; 652  : 	return ::PtInRect(this, point);

  00444	51		 push	 ecx
  00445	50		 push	 eax
  00446	ff 15 00 00 00
	00		 call	 DWORD PTR __imp__PtInRect@12
; File C:\IAGOS\server\v18\Source\Source\_Common\partyquest.cpp

; 125  : 										if( rect.PtInRect( point ) && pUser->IsLive() )

  0044c	85 c0		 test	 eax, eax
  0044e	74 18		 je	 SHORT $LN32@Process
; File C:\IAGOS\server\v18\Source\Source\_Common\Mover.h

; 1251 : 	BOOL			IsLive() { return m_pActMover->IsDie() == FALSE || m_nHitPoint > 0; }		// && ¸¦  ||·Î ąŮ˛ĺŔ˝.  !=¸¦ >·Î ąŮ˛Ţ

  00450	8b 86 38 02 00
	00		 mov	 eax, DWORD PTR [esi+568]
  00456	f7 40 04 00 00
	00 08		 test	 DWORD PTR [eax+4], 134217728 ; 08000000H
  0045d	74 31		 je	 SHORT $LN404@Process
  0045f	83 be f8 05 00
	00 00		 cmp	 DWORD PTR [esi+1528], 0
  00466	7f 28		 jg	 SHORT $LN404@Process
$LN32@Process:
; File C:\IAGOS\server\v18\Source\Source\_Common\partyquest.cpp

; 132  : 											pUser->AddQuestTextTime( 0, 0, 0xffffffff );											

  00468	6a ff		 push	 -1
  0046a	6a 00		 push	 0
  0046c	6a 00		 push	 0
  0046e	8b ce		 mov	 ecx, esi
  00470	e8 00 00 00 00	 call	 ?AddQuestTextTime@CUser@@QAEXHHK@Z ; CUser::AddQuestTextTime
  00475	8b 15 28 00 00
	00		 mov	 edx, DWORD PTR ?prj@@3VCProject@@A+40
$LN9@Process:

; 115  : 							{
; 116  : 								CUser* pUser;
; 117  : 								
; 118  : 								for( int k = 0 ; k < pParty->GetSizeofMember() ; k++ )

  0047b	8b 45 e8	 mov	 eax, DWORD PTR _pParty$1$[ebp]
  0047e	47		 inc	 edi
  0047f	83 c3 1c	 add	 ebx, 28			; 0000001cH
  00482	3b b8 cc 01 00
	00		 cmp	 edi, DWORD PTR [eax+460]
  00488	0f 8c 46 ff ff
	ff		 jl	 $LL11@Process
  0048e	eb 0d		 jmp	 SHORT $LN444@Process
$LN404@Process:

; 126  : 										{
; 127  : 											bsurvivor	= TRUE;

  00490	8b 15 28 00 00
	00		 mov	 edx, DWORD PTR ?prj@@3VCProject@@A+40
  00496	c7 45 e0 01 00
	00 00		 mov	 DWORD PTR _bsurvivor$1$[ebp], 1
$LN444@Process:

; 133  : 										}
; 134  : 									}
; 135  : 								}
; 136  : 
; 137  : 								for( int k = 0 ; k < pParty->GetSizeofMember() ; k++ )

  0049d	8b 5d e8	 mov	 ebx, DWORD PTR _pParty$1$[ebp]
$LN411@Process:
  004a0	33 ff		 xor	 edi, edi
  004a2	39 bb cc 01 00
	00		 cmp	 DWORD PTR [ebx+460], edi
  004a8	0f 8e b0 00 00
	00		 jle	 $LN13@Process
  004ae	83 c3 28	 add	 ebx, 40			; 00000028H
$LL14@Process:
; File C:\Program Files\Microsoft Visual Studio\2022\Professional\VC\Tools\MSVC\14.44.35207\include\xtree

; 1630 :         _Tree_find_result<_Nodeptr> _Result{{_Scary->_Myhead->_Parent, _Tree_child::_Right}, _Scary->_Myhead};

  004b1	8b 42 04	 mov	 eax, DWORD PTR [edx+4]
  004b4	8b ca		 mov	 ecx, edx
; File C:\IAGOS\server\v18\Source\Source\_Common\partyquest.cpp

; 140  : 									pUser = (CUser*)prj.GetUserByID( idPlayer );

  004b6	8b 33		 mov	 esi, DWORD PTR [ebx]
; File C:\Program Files\Microsoft Visual Studio\2022\Professional\VC\Tools\MSVC\14.44.35207\include\xtree

; 1632 :         while (!_Trynode->_Isnil) {

  004b8	80 78 0d 00	 cmp	 BYTE PTR [eax+13], 0
  004bc	75 16		 jne	 SHORT $LN140@Process
  004be	66 90		 npad	 2
$LL139@Process:
; File C:\Program Files\Microsoft Visual Studio\2022\Professional\VC\Tools\MSVC\14.44.35207\include\type_traits

; 2380 :         return _Left < _Right;

  004c0	39 70 10	 cmp	 DWORD PTR [eax+16], esi
; File C:\Program Files\Microsoft Visual Studio\2022\Professional\VC\Tools\MSVC\14.44.35207\include\xtree

; 1634 :             if (_DEBUG_LT_PRED(_Getcomp(), _Traits::_Kfn(_Trynode->_Myval), _Keyval)) {

  004c3	73 05		 jae	 SHORT $LN141@Process

; 1635 :                 _Result._Location._Child = _Tree_child::_Right;
; 1636 :                 _Trynode                 = _Trynode->_Right;

  004c5	8b 40 08	 mov	 eax, DWORD PTR [eax+8]

; 1637 :             } else {

  004c8	eb 04		 jmp	 SHORT $LN142@Process
$LN141@Process:

; 1638 :                 _Result._Location._Child = _Tree_child::_Left;
; 1639 :                 _Result._Bound           = _Trynode;

  004ca	8b c8		 mov	 ecx, eax

; 1640 :                 _Trynode                 = _Trynode->_Left;

  004cc	8b 00		 mov	 eax, DWORD PTR [eax]
$LN142@Process:

; 1632 :         while (!_Trynode->_Isnil) {

  004ce	80 78 0d 00	 cmp	 BYTE PTR [eax+13], 0
  004d2	74 ec		 je	 SHORT $LL139@Process
$LN140@Process:

; 1624 :         return !_Bound->_Isnil && !_DEBUG_LT_PRED(_Getcomp(), _Keyval, _Traits::_Kfn(_Bound->_Myval));

  004d4	80 79 0d 00	 cmp	 BYTE PTR [ecx+13], 0
  004d8	75 05		 jne	 SHORT $LN136@Process
; File C:\Program Files\Microsoft Visual Studio\2022\Professional\VC\Tools\MSVC\14.44.35207\include\type_traits

; 2380 :         return _Left < _Right;

  004da	3b 71 10	 cmp	 esi, DWORD PTR [ecx+16]
; File C:\Program Files\Microsoft Visual Studio\2022\Professional\VC\Tools\MSVC\14.44.35207\include\xtree

; 1624 :         return !_Bound->_Isnil && !_DEBUG_LT_PRED(_Getcomp(), _Keyval, _Traits::_Kfn(_Bound->_Myval));

  004dd	73 02		 jae	 SHORT $LN135@Process
$LN136@Process:

; 1389 :         return _Get_scary()->_Myhead;

  004df	8b ca		 mov	 ecx, edx
$LN135@Process:

; 37   :     _Tree_unchecked_const_iterator(_Nodeptr _Pnode, const _Mytree* _Plist) noexcept : _Ptr(_Pnode) {

  004e1	3b ca		 cmp	 ecx, edx
; File C:\IAGOS\server\v18\Source\Source\_Common\Project.h

; 1436 : 	if( i != m_idPlayerToUserPtr.end() )

  004e3	74 66		 je	 SHORT $LN12@Process

; 1437 : 		return i->second;

  004e5	8b 71 14	 mov	 esi, DWORD PTR [ecx+20]
; File C:\IAGOS\server\v18\Source\Source\_Common\Obj.h

; 327  : 	return pObj && ( pObj->IsDelete() == FALSE ); 

  004e8	85 f6		 test	 esi, esi
  004ea	74 5f		 je	 SHORT $LN12@Process

; 180  : 	BOOL			IsDelete()	{ return (m_dwFlags & OBJ_FLAG_DELETE);  }

  004ec	f6 46 04 01	 test	 BYTE PTR [esi+4], 1

; 327  : 	return pObj && ( pObj->IsDelete() == FALSE ); 

  004f0	75 59		 jne	 SHORT $LN12@Process

; 215  : 	D3DXVECTOR3		GetPos()	{ return m_vPos; }

  004f2	8b 86 68 01 00
	00		 mov	 eax, DWORD PTR [esi+360]
  004f8	f3 0f 7e 86 60
	01 00 00	 movq	 xmm0, QWORD PTR [esi+352]
  00500	89 85 78 ff ff
	ff		 mov	 DWORD PTR $T9[ebp+8], eax
; File C:\IAGOS\server\v18\Source\Source\_Common\partyquest.cpp

; 143  : 										POINT point = { (int)pUser->GetPos().x, (int)pUser->GetPos().z	};

  00506	f3 0f 2c 85 78
	ff ff ff	 cvttss2si eax, DWORD PTR $T9[ebp+8]
; File C:\IAGOS\server\v18\Source\Source\_Common\Obj.h

; 215  : 	D3DXVECTOR3		GetPos()	{ return m_vPos; }

  0050e	66 0f d6 85 7c
	ff ff ff	 movq	 QWORD PTR $T10[ebp], xmm0
  00516	f3 0f 7e c0	 movq	 xmm0, xmm0
; File C:\IAGOS\server\v18\Source\Source\_Common\partyquest.cpp

; 143  : 										POINT point = { (int)pUser->GetPos().x, (int)pUser->GetPos().z	};

  0051a	f3 0f 2c 8d 7c
	ff ff ff	 cvttss2si ecx, DWORD PTR $T10[ebp]
; File C:\Program Files\Microsoft Visual Studio\2022\Professional\VC\Tools\MSVC\14.44.35207\atlmfc\include\atltypes.h

; 652  : 	return ::PtInRect(this, point);

  00522	50		 push	 eax
  00523	8d 45 ec	 lea	 eax, DWORD PTR _rect$19[ebp]
; File C:\IAGOS\server\v18\Source\Source\_Common\Obj.h

; 215  : 	D3DXVECTOR3		GetPos()	{ return m_vPos; }

  00526	66 0f d6 85 70
	ff ff ff	 movq	 QWORD PTR $T9[ebp], xmm0
; File C:\Program Files\Microsoft Visual Studio\2022\Professional\VC\Tools\MSVC\14.44.35207\atlmfc\include\atltypes.h

; 652  : 	return ::PtInRect(this, point);

  0052e	51		 push	 ecx
  0052f	50		 push	 eax
  00530	ff 15 00 00 00
	00		 call	 DWORD PTR __imp__PtInRect@12
; File C:\IAGOS\server\v18\Source\Source\_Common\partyquest.cpp

; 144  : 										if( !rect.PtInRect( point ) )

  00536	85 c0		 test	 eax, eax
  00538	75 0b		 jne	 SHORT $LN443@Process

; 145  : 										{
; 146  : 											pUser->AddQuestTextTime( 0, 0, 0xffffffff );											

  0053a	6a ff		 push	 -1
  0053c	50		 push	 eax
  0053d	50		 push	 eax
  0053e	8b ce		 mov	 ecx, esi
  00540	e8 00 00 00 00	 call	 ?AddQuestTextTime@CUser@@QAEXHHK@Z ; CUser::AddQuestTextTime
$LN443@Process:

; 133  : 										}
; 134  : 									}
; 135  : 								}
; 136  : 
; 137  : 								for( int k = 0 ; k < pParty->GetSizeofMember() ; k++ )

  00545	8b 15 28 00 00
	00		 mov	 edx, DWORD PTR ?prj@@3VCProject@@A+40
$LN12@Process:
  0054b	8b 45 e8	 mov	 eax, DWORD PTR _pParty$1$[ebp]
  0054e	47		 inc	 edi
  0054f	83 c3 1c	 add	 ebx, 28			; 0000001cH
  00552	3b b8 cc 01 00
	00		 cmp	 edi, DWORD PTR [eax+460]
  00558	0f 8c 53 ff ff
	ff		 jl	 $LL14@Process
$LN13@Process:

; 147  : 										}
; 148  : 									}
; 149  : 								}
; 150  : 								
; 151  : 							}
; 152  : 
; 153  : 							if( !bsurvivor  )

  0055e	83 7d e0 00	 cmp	 DWORD PTR _bsurvivor$1$[ebp], 0
  00562	75 36		 jne	 SHORT $LN447@Process
  00564	8b 7d d4	 mov	 edi, DWORD PTR tv2423[ebp]
$LN434@Process:
; File C:\Program Files\Microsoft Visual Studio\2022\Professional\VC\Tools\MSVC\14.44.35207\atlmfc\include\atltypes.h

; 615  : 	return CPoint((left+right)/2, (top+bottom)/2);

  00567	8b 45 f4	 mov	 eax, DWORD PTR _rect$19[ebp+8]
  0056a	03 45 ec	 add	 eax, DWORD PTR _rect$19[ebp]
  0056d	99		 cdq
  0056e	2b c2		 sub	 eax, edx
  00570	8b 55 f0	 mov	 edx, DWORD PTR _rect$19[ebp+4]
  00573	8b f0		 mov	 esi, eax
  00575	8b 45 f8	 mov	 eax, DWORD PTR _rect$19[ebp+12]
  00578	8d 04 10	 lea	 eax, DWORD PTR [eax+edx]
  0057b	99		 cdq
  0057c	2b c2		 sub	 eax, edx
  0057e	d1 f8		 sar	 eax, 1
  00580	66 0f 6e c0	 movd	 xmm0, eax
; File C:\IAGOS\server\v18\Source\Source\_Common\partyquest.cpp

; 167  : 								vPos.x = (float)( point.x );

  00584	0f 5b c0	 cvtdq2ps xmm0, xmm0

; 168  : 								vPos.z = (float)( point.y );

  00587	f3 0f 11 85 48
	ff ff ff	 movss	 DWORD PTR _vPos$5[ebp+8], xmm0

; 169  : 								vPos.y = 100.0f;
; 170  : 								RemoveAllDynamicObj( pProp->dwWorldId, vPos, 500 );

  0058f	8b 85 48 ff ff
	ff		 mov	 eax, DWORD PTR _vPos$5[ebp+8]

; 212  : 										}
; 213  : 									}
; 214  : 								}
; 215  : 							}
; 216  : 
; 217  : 							if( !bexist )

  00595	e9 93 fd ff ff	 jmp	 $LN499@Process
$LN447@Process:

; 27   : 	for( int i = 0; i < MAX_GUILD_QUEST; i++ )

  0059a	8b 75 e4	 mov	 esi, DWORD PTR _this$GSCopy$1$[ebp]
$LN2@Process:
  0059d	8b 7d d8	 mov	 edi, DWORD PTR _i$1$[ebp]
  005a0	47		 inc	 edi
  005a1	89 7d d8	 mov	 DWORD PTR _i$1$[ebp], edi
  005a4	81 ff 00 01 00
	00		 cmp	 edi, 256		; 00000100H
  005aa	0f 8c 80 fa ff
	ff		 jl	 $LL4@Process

; 230  : 
; 231  : 								RemovePartyQuest( pElem->nId );
; 232  : 							}
; 233  : 						}
; 234  : 						break;
; 235  : 					default:
; 236  : 						break;
; 237  : 				}
; 238  : 			}
; 239  : 		}
; 240  : 	}
; 241  : }

  005b0	8b 4d fc	 mov	 ecx, DWORD PTR __$ArrayPad$[ebp]
  005b3	5f		 pop	 edi
  005b4	5e		 pop	 esi
  005b5	33 cd		 xor	 ecx, ebp
  005b7	5b		 pop	 ebx
  005b8	e8 00 00 00 00	 call	 @__security_check_cookie@4
  005bd	8b e5		 mov	 esp, ebp
  005bf	5d		 pop	 ebp
  005c0	c3		 ret	 0
?Process@CPartyQuestProcessor@@QAEXXZ ENDP		; CPartyQuestProcessor::Process
_TEXT	ENDS
; Function compile flags: /Ogtp
; File C:\IAGOS\server\v18\Source\Source\_Common\partyquest.cpp
;	COMDAT ??1CPartyQuestProcessor@@QAE@XZ
_TEXT	SEGMENT
??1CPartyQuestProcessor@@QAE@XZ PROC			; CPartyQuestProcessor::~CPartyQuestProcessor, COMDAT
; _this$ = ecx

; 21   : 
; 22   : }

  00000	c2 00 00	 ret	 0
??1CPartyQuestProcessor@@QAE@XZ ENDP			; CPartyQuestProcessor::~CPartyQuestProcessor
_TEXT	ENDS
; Function compile flags: /Ogtp
; File C:\IAGOS\server\v18\Source\Source\_Common\partyquest.cpp
; File C:\IAGOS\server\v18\Source\Source\_Common\partyquest.h
; File C:\IAGOS\server\v18\Source\Source\_Common\partyquest.cpp
; File C:\Program Files\Microsoft Visual Studio\2022\Professional\VC\Tools\MSVC\14.44.35207\atlmfc\include\atltypes.h
; File C:\IAGOS\server\v18\Source\Source\_Common\partyquest.cpp
;	COMDAT ??0CPartyQuestProcessor@@QAE@XZ
_TEXT	SEGMENT
??0CPartyQuestProcessor@@QAE@XZ PROC			; CPartyQuestProcessor::CPartyQuestProcessor, COMDAT
; _this$ = ecx

; 15   : {

  00000	56		 push	 esi
  00001	8b f1		 mov	 esi, ecx
  00003	ba 00 01 00 00	 mov	 edx, 256		; 00000100H
  00008	8d 46 08	 lea	 eax, DWORD PTR [esi+8]
  0000b	0f 1f 44 00 00	 npad	 5
$LL4@CPartyQues:
; File C:\IAGOS\server\v18\Source\Source\_Common\partyquest.h

; 88   : 		nCount	= 0;

  00010	33 c9		 xor	 ecx, ecx

; 61   : 			nId		= -1;

  00012	c7 40 f8 ff ff
	ff ff		 mov	 DWORD PTR [eax-8], -1

; 62   : 			nState	= 0;

  00019	c7 40 fc 00 00
	00 00		 mov	 DWORD PTR [eax-4], 0
  00020	8d 40 1c	 lea	 eax, DWORD PTR [eax+28]

; 63   : 			idParty		= 0;

  00023	c7 40 e4 00 00
	00 00		 mov	 DWORD PTR [eax-28], 0

; 84   : 		dwEndTime	= 0;

  0002a	c7 40 e8 00 00
	00 00		 mov	 DWORD PTR [eax-24], 0

; 85   : 		nProcess	= PQP_READY;

  00031	66 c7 40 ec 00
	00		 mov	 WORD PTR [eax-20], 0

; 86   : 		ns	= nf	= 0;

  00037	c6 40 ee 00	 mov	 BYTE PTR [eax-18], 0

; 87   : 		objidWormon		= NULL_ID;

  0003b	c7 40 f0 ff ff
	ff ff		 mov	 DWORD PTR [eax-16], -1

; 88   : 		nCount	= 0;

  00042	66 89 48 f4	 mov	 WORD PTR [eax-12], cx
  00046	83 ea 01	 sub	 edx, 1
  00049	75 c5		 jne	 SHORT $LL4@CPartyQues
; File C:\IAGOS\server\v18\Source\Source\_Common\partyquest.cpp

; 15   : {

  0004b	b9 00 01 00 00	 mov	 ecx, 256		; 00000100H
  00050	8d 86 10 1c 00
	00		 lea	 eax, DWORD PTR [esi+7184]
$LL12@CPartyQues:
; File C:\Program Files\Microsoft Visual Studio\2022\Professional\VC\Tools\MSVC\14.44.35207\atlmfc\include\atltypes.h

; 532  : 	left = 0;

  00056	c7 40 f8 00 00
	00 00		 mov	 DWORD PTR [eax-8], 0
  0005d	8d 40 18	 lea	 eax, DWORD PTR [eax+24]

; 533  : 	top = 0;

  00060	c7 40 e4 00 00
	00 00		 mov	 DWORD PTR [eax-28], 0

; 534  : 	right = 0;

  00067	c7 40 e8 00 00
	00 00		 mov	 DWORD PTR [eax-24], 0

; 535  : 	bottom = 0;

  0006e	c7 40 ec 00 00
	00 00		 mov	 DWORD PTR [eax-20], 0
  00075	83 e9 01	 sub	 ecx, 1
  00078	75 dc		 jne	 SHORT $LL12@CPartyQues
; File C:\IAGOS\server\v18\Source\Source\_Common\partyquest.cpp

; 16   : 	m_nRect	= 0;

  0007a	89 8e 00 34 00
	00		 mov	 DWORD PTR [esi+13312], ecx

; 17   : }

  00080	8b c6		 mov	 eax, esi
  00082	5e		 pop	 esi
  00083	c3		 ret	 0
??0CPartyQuestProcessor@@QAE@XZ ENDP			; CPartyQuestProcessor::CPartyQuestProcessor
_TEXT	ENDS
; Function compile flags: /Ogtp
; File C:\Program Files\Microsoft Visual Studio\2022\Professional\VC\Tools\MSVC\14.44.35207\atlmfc\include\atltypes.h
;	COMDAT ??0__PARTYQUESTRECT@@QAE@XZ
_TEXT	SEGMENT
??0__PARTYQUESTRECT@@QAE@XZ PROC			; __PARTYQUESTRECT::__PARTYQUESTRECT, COMDAT
; _this$ = ecx

; 532  : 	left = 0;

  00000	c7 41 08 00 00
	00 00		 mov	 DWORD PTR [ecx+8], 0
  00007	8b c1		 mov	 eax, ecx

; 533  : 	top = 0;

  00009	c7 41 0c 00 00
	00 00		 mov	 DWORD PTR [ecx+12], 0

; 534  : 	right = 0;

  00010	c7 41 10 00 00
	00 00		 mov	 DWORD PTR [ecx+16], 0

; 535  : 	bottom = 0;

  00017	c7 41 14 00 00
	00 00		 mov	 DWORD PTR [ecx+20], 0
  0001e	c3		 ret	 0
??0__PARTYQUESTRECT@@QAE@XZ ENDP			; __PARTYQUESTRECT::__PARTYQUESTRECT
_TEXT	ENDS
; Function compile flags: /Ogtp
; File C:\IAGOS\server\v18\Source\Source\_Common\partyquest.h
;	COMDAT ??0_PARTYQUESTELEM@@QAE@XZ
_TEXT	SEGMENT
??0_PARTYQUESTELEM@@QAE@XZ PROC				; _PARTYQUESTELEM::_PARTYQUESTELEM, COMDAT
; _this$ = ecx

; 88   : 		nCount	= 0;

  00000	33 c0		 xor	 eax, eax

; 61   : 			nId		= -1;

  00002	c7 01 ff ff ff
	ff		 mov	 DWORD PTR [ecx], -1

; 88   : 		nCount	= 0;

  00008	66 89 41 18	 mov	 WORD PTR [ecx+24], ax

; 89   : 	};

  0000c	8b c1		 mov	 eax, ecx

; 62   : 			nState	= 0;

  0000e	c7 41 04 00 00
	00 00		 mov	 DWORD PTR [ecx+4], 0

; 63   : 			idParty		= 0;

  00015	c7 41 08 00 00
	00 00		 mov	 DWORD PTR [ecx+8], 0

; 84   : 		dwEndTime	= 0;

  0001c	c7 41 0c 00 00
	00 00		 mov	 DWORD PTR [ecx+12], 0

; 85   : 		nProcess	= PQP_READY;

  00023	66 c7 41 10 00
	00		 mov	 WORD PTR [ecx+16], 0

; 86   : 		ns	= nf	= 0;

  00029	c6 41 12 00	 mov	 BYTE PTR [ecx+18], 0

; 87   : 		objidWormon		= NULL_ID;

  0002d	c7 41 14 ff ff
	ff ff		 mov	 DWORD PTR [ecx+20], -1

; 89   : 	};

  00034	c3		 ret	 0
??0_PARTYQUESTELEM@@QAE@XZ ENDP				; _PARTYQUESTELEM::_PARTYQUESTELEM
_TEXT	ENDS
; Function compile flags: /Ogtp
; File C:\IAGOS\server\v18\Source\Source\DX_SDK\d3dx9math.h
;	COMDAT ??0D3DXVECTOR3@@QAE@XZ
_TEXT	SEGMENT
??0D3DXVECTOR3@@QAE@XZ PROC				; D3DXVECTOR3::D3DXVECTOR3, COMDAT
; _this$ = ecx

; 165  :     D3DXVECTOR3() {};

  00000	8b c1		 mov	 eax, ecx
  00002	c3		 ret	 0
??0D3DXVECTOR3@@QAE@XZ ENDP				; D3DXVECTOR3::D3DXVECTOR3
_TEXT	ENDS
; Function compile flags: /Ogtp
; File C:\Program Files\Microsoft Visual Studio\2022\Professional\VC\Tools\MSVC\14.44.35207\atlmfc\include\cstringt.h
; File C:\Program Files\Microsoft Visual Studio\2022\Professional\VC\Tools\MSVC\14.44.35207\atlmfc\include\afxstr.h
; File C:\Program Files\Microsoft Visual Studio\2022\Professional\VC\Tools\MSVC\14.44.35207\atlmfc\include\cstringt.h
; File C:\Program Files\Microsoft Visual Studio\2022\Professional\VC\Tools\MSVC\14.44.35207\atlmfc\include\afxstr.h
; File C:\Program Files\Microsoft Visual Studio\2022\Professional\VC\Tools\MSVC\14.44.35207\atlmfc\include\cstringt.h
; File C:\Program Files\Microsoft Visual Studio\2022\Professional\VC\Tools\MSVC\14.44.35207\atlmfc\include\atlcore.h
; File C:\Program Files\Microsoft Visual Studio\2022\Professional\VC\Tools\MSVC\14.44.35207\atlmfc\include\cstringt.h
; File C:\Program Files\Microsoft Visual Studio\2022\Professional\VC\Tools\MSVC\14.44.35207\atlmfc\include\atlsimpstr.h
; File C:\Program Files\Microsoft Visual Studio\2022\Professional\VC\Tools\MSVC\14.44.35207\atlmfc\include\cstringt.h
; File C:\Program Files\Microsoft Visual Studio\2022\Professional\VC\Tools\MSVC\14.44.35207\atlmfc\include\atlsimpstr.h
; File C:\Program Files\Microsoft Visual Studio\2022\Professional\VC\Tools\MSVC\14.44.35207\atlmfc\include\cstringt.h
; File C:\Program Files\Microsoft Visual Studio\2022\Professional\VC\Tools\MSVC\14.44.35207\atlmfc\include\atlsimpstr.h
; File C:\Program Files\Microsoft Visual Studio\2022\Professional\VC\Tools\MSVC\14.44.35207\atlmfc\include\cstringt.h
; File C:\Program Files\Microsoft Visual Studio\2022\Professional\VC\Tools\MSVC\14.44.35207\atlmfc\include\atlsimpstr.h
; File C:\Program Files\Microsoft Visual Studio\2022\Professional\VC\Tools\MSVC\14.44.35207\atlmfc\include\cstringt.h
;	COMDAT ?LoadStringA@?$CStringT@DV?$StrTraitMFC@DV?$ChTraitsCRT@D@ATL@@@@@ATL@@QAEHI@Z
_TEXT	SEGMENT
_this$1$ = -4						; size = 4
_nID$ = 8						; size = 4
_hResource$1$ = 8					; size = 4
?LoadStringA@?$CStringT@DV?$StrTraitMFC@DV?$ChTraitsCRT@D@ATL@@@@@ATL@@QAEHI@Z PROC ; ATL::CStringT<char,StrTraitMFC<char,ATL::ChTraitsCRT<char> > >::LoadStringA, COMDAT
; _this$ = ecx

; 2340 : 	{

  00000	55		 push	 ebp
  00001	8b ec		 mov	 ebp, esp
  00003	51		 push	 ecx
  00004	53		 push	 ebx
  00005	57		 push	 edi
; File C:\Program Files\Microsoft Visual Studio\2022\Professional\VC\Tools\MSVC\14.44.35207\atlmfc\include\afxstr.h

; 51   : 		return( AfxFindStringResourceHandle( nID ) );

  00006	8b 7d 08	 mov	 edi, DWORD PTR _nID$[ebp]
  00009	57		 push	 edi
; File C:\Program Files\Microsoft Visual Studio\2022\Professional\VC\Tools\MSVC\14.44.35207\atlmfc\include\cstringt.h

; 2340 : 	{

  0000a	89 4d fc	 mov	 DWORD PTR _this$1$[ebp], ecx
; File C:\Program Files\Microsoft Visual Studio\2022\Professional\VC\Tools\MSVC\14.44.35207\atlmfc\include\afxstr.h

; 51   : 		return( AfxFindStringResourceHandle( nID ) );

  0000d	e8 00 00 00 00	 call	 ?AfxFindStringResourceHandle@@YGPAUHINSTANCE__@@I@Z ; AfxFindStringResourceHandle
; File C:\Program Files\Microsoft Visual Studio\2022\Professional\VC\Tools\MSVC\14.44.35207\atlmfc\include\cstringt.h

; 2341 : 		HINSTANCE hInstance = StringTraits::FindStringResourceInstance( nID );

  00012	8b d8		 mov	 ebx, eax

; 2342 : 		if( hInstance == NULL )

  00014	85 db		 test	 ebx, ebx
  00016	75 08		 jne	 SHORT $LN2@LoadString

; 2348 : 	}

  00018	5f		 pop	 edi
  00019	5b		 pop	 ebx
  0001a	8b e5		 mov	 esp, ebp
  0001c	5d		 pop	 ebp
  0001d	c2 04 00	 ret	 4
$LN2@LoadString:
; File C:\Program Files\Microsoft Visual Studio\2022\Professional\VC\Tools\MSVC\14.44.35207\atlmfc\include\atlcore.h

; 380  : 	hResource = ::FindResourceW(hInstance, MAKEINTRESOURCEW( (((id>>4)+1) & static_cast<WORD>(~0)) ), (LPWSTR) RT_STRING);

  00020	8b c7		 mov	 eax, edi
  00022	c1 e8 04	 shr	 eax, 4
  00025	56		 push	 esi
  00026	40		 inc	 eax
  00027	6a 06		 push	 6
  00029	0f b7 c0	 movzx	 eax, ax
  0002c	50		 push	 eax
  0002d	53		 push	 ebx
  0002e	ff 15 00 00 00
	00		 call	 DWORD PTR __imp__FindResourceW@12
  00034	89 45 08	 mov	 DWORD PTR _hResource$1$[ebp], eax

; 381  : 	if( hResource == NULL )

  00037	85 c0		 test	 eax, eax
  00039	0f 84 cc 00 00
	00		 je	 $LN51@LoadString

; 338  : 	hGlobal = ::LoadResource( hInstance, hResource );

  0003f	50		 push	 eax
  00040	53		 push	 ebx
  00041	ff 15 00 00 00
	00		 call	 DWORD PTR __imp__LoadResource@8

; 339  : 	if( hGlobal == NULL )

  00047	85 c0		 test	 eax, eax
  00049	75 04		 jne	 SHORT $LN15@LoadString

; 340  : 	{
; 341  : 		return( NULL );

  0004b	33 f6		 xor	 esi, esi
  0004d	eb 43		 jmp	 SHORT $LN18@LoadString
$LN15@LoadString:

; 342  : 	}
; 343  : 
; 344  : 	pImage = (const ATLSTRINGRESOURCEIMAGE*)::LockResource( hGlobal );

  0004f	50		 push	 eax
  00050	ff 15 00 00 00
	00		 call	 DWORD PTR __imp__LockResource@4
  00056	8b f0		 mov	 esi, eax

; 345  : 	if( pImage == NULL )

  00058	85 f6		 test	 esi, esi
  0005a	74 36		 je	 SHORT $LN18@LoadString
$LN16@LoadString:

; 346  : 	{
; 347  : 		return( NULL );
; 348  : 	}
; 349  : 
; 350  : 	nResourceSize = ::SizeofResource( hInstance, hResource );

  0005c	ff 75 08	 push	 DWORD PTR _hResource$1$[ebp]
  0005f	53		 push	 ebx
  00060	ff 15 00 00 00
	00		 call	 DWORD PTR __imp__SizeofResource@8

; 351  : 	pImageEnd = (const ATLSTRINGRESOURCEIMAGE*)(LPBYTE( pImage )+nResourceSize);

  00066	8d 0c 06	 lea	 ecx, DWORD PTR [esi+eax]

; 352  : 	iIndex = id&0x000f;

  00069	83 e7 0f	 and	 edi, 15			; 0000000fH

; 353  : 
; 354  : 	while( (iIndex > 0) && (pImage < pImageEnd) )

  0006c	76 14		 jbe	 SHORT $LN14@LoadString
  0006e	66 90		 npad	 2
$LL13@LoadString:
  00070	3b f1		 cmp	 esi, ecx
  00072	73 12		 jae	 SHORT $LN50@LoadString

; 355  : 	{
; 356  : 		pImage = (const ATLSTRINGRESOURCEIMAGE*)(LPBYTE( pImage )+(sizeof( ATLSTRINGRESOURCEIMAGE )+(pImage->nLength*sizeof( WCHAR ))));

  00074	0f b7 06	 movzx	 eax, WORD PTR [esi]
  00077	8d 34 46	 lea	 esi, DWORD PTR [esi+eax*2]
  0007a	83 c6 02	 add	 esi, 2

; 357  : 		iIndex--;

  0007d	83 ef 01	 sub	 edi, 1
  00080	75 ee		 jne	 SHORT $LL13@LoadString
$LN14@LoadString:

; 358  : 	}
; 359  : 	if( pImage >= pImageEnd )

  00082	3b f1		 cmp	 esi, ecx
  00084	72 04		 jb	 SHORT $LN17@LoadString
$LN50@LoadString:

; 360  : 	{
; 361  : 		return( NULL );

  00086	33 f6		 xor	 esi, esi
  00088	eb 08		 jmp	 SHORT $LN18@LoadString
$LN17@LoadString:

; 362  : 	}
; 363  : 	if( pImage->nLength == 0 )

  0008a	33 c0		 xor	 eax, eax
  0008c	66 39 06	 cmp	 WORD PTR [esi], ax
  0008f	0f 44 f0	 cmove	 esi, eax
$LN18@LoadString:
; File C:\Program Files\Microsoft Visual Studio\2022\Professional\VC\Tools\MSVC\14.44.35207\atlmfc\include\cstringt.h

; 2356 : 		if( pImage == NULL )

  00092	85 f6		 test	 esi, esi
  00094	74 75		 je	 SHORT $LN51@LoadString

; 2359 : 		}
; 2360 : 
; 2361 : 		int nLength = StringTraits::GetBaseTypeLength( pImage->achString, pImage->nLength );

  00096	0f b7 06	 movzx	 eax, WORD PTR [esi]
  00099	8d 4e 02	 lea	 ecx, DWORD PTR [esi+2]

; 350  : 		return ::WideCharToMultiByte( _AtlGetConversionACP(), 0, pszSource, nLength, NULL, 0, NULL, NULL );

  0009c	6a 00		 push	 0
  0009e	6a 00		 push	 0
  000a0	6a 00		 push	 0
  000a2	6a 00		 push	 0
  000a4	50		 push	 eax
  000a5	51		 push	 ecx
  000a6	6a 00		 push	 0
  000a8	6a 03		 push	 3
  000aa	ff 15 00 00 00
	00		 call	 DWORD PTR __imp__WideCharToMultiByte@32

; 2361 : 		int nLength = StringTraits::GetBaseTypeLength( pImage->achString, pImage->nLength );

  000b0	8b f8		 mov	 edi, eax
; File C:\Program Files\Microsoft Visual Studio\2022\Professional\VC\Tools\MSVC\14.44.35207\atlmfc\include\atlsimpstr.h

; 808  : 		if (nLength < 0)

  000b2	85 ff		 test	 edi, edi
  000b4	78 60		 js	 SHORT $LN38@LoadString

; 804  : 		return( reinterpret_cast< CStringData* >( m_pszData )-1 );

  000b6	8b 5d fc	 mov	 ebx, DWORD PTR _this$1$[ebp]

; 812  : 		int nShared = 1-pOldData->nRefs;  // nShared < 0 means true, >= 0 means false

  000b9	ba 01 00 00 00	 mov	 edx, 1

; 804  : 		return( reinterpret_cast< CStringData* >( m_pszData )-1 );

  000be	8b 0b		 mov	 ecx, DWORD PTR [ebx]

; 812  : 		int nShared = 1-pOldData->nRefs;  // nShared < 0 means true, >= 0 means false

  000c0	2b 51 fc	 sub	 edx, DWORD PTR [ecx-4]

; 813  : 		int nTooShort = pOldData->nAllocLength-nLength;  // nTooShort < 0 means true, >= 0 means false

  000c3	8b 49 f8	 mov	 ecx, DWORD PTR [ecx-8]
  000c6	2b cf		 sub	 ecx, edi

; 814  : 		if( (nShared|nTooShort) < 0 )  // If either sign bit is set (i.e. either is less than zero), we need to copy data

  000c8	0b d1		 or	 edx, ecx
  000ca	7d 08		 jge	 SHORT $LN26@LoadString

; 815  : 		{
; 816  : 			PrepareWrite2( nLength );

  000cc	57		 push	 edi
  000cd	8b cb		 mov	 ecx, ebx
  000cf	e8 00 00 00 00	 call	 ?PrepareWrite2@?$CSimpleStringT@D$0A@@ATL@@AAEXH@Z ; ATL::CSimpleStringT<char,0>::PrepareWrite2
$LN26@LoadString:
; File C:\Program Files\Microsoft Visual Studio\2022\Professional\VC\Tools\MSVC\14.44.35207\atlmfc\include\cstringt.h

; 2363 : 		StringTraits::ConvertToBaseType( pszBuffer, nLength, pImage->achString, pImage->nLength );

  000d4	0f b7 06	 movzx	 eax, WORD PTR [esi]

; 372  : 		::WideCharToMultiByte( _AtlGetConversionACP(), 0, pszSrc, nSrcLength, pszDest, nDestLength, NULL, NULL );

  000d7	6a 00		 push	 0
  000d9	6a 00		 push	 0
  000db	57		 push	 edi
  000dc	ff 33		 push	 DWORD PTR [ebx]
  000de	50		 push	 eax
  000df	8d 46 02	 lea	 eax, DWORD PTR [esi+2]
  000e2	50		 push	 eax
  000e3	6a 00		 push	 0
  000e5	6a 03		 push	 3
  000e7	ff 15 00 00 00
	00		 call	 DWORD PTR __imp__WideCharToMultiByte@32
; File C:\Program Files\Microsoft Visual Studio\2022\Professional\VC\Tools\MSVC\14.44.35207\atlmfc\include\atlsimpstr.h

; 875  : 		if( nLength < 0 || nLength > GetData()->nAllocLength)

  000ed	8b 03		 mov	 eax, DWORD PTR [ebx]
  000ef	3b 78 f8	 cmp	 edi, DWORD PTR [eax-8]
  000f2	7f 22		 jg	 SHORT $LN38@LoadString

; 877  : 
; 878  : 		GetData()->nDataLength = nLength;

  000f4	89 78 f4	 mov	 DWORD PTR [eax-12], edi

; 879  : 		m_pszData[nLength] = 0;

  000f7	8b 03		 mov	 eax, DWORD PTR [ebx]
; File C:\Program Files\Microsoft Visual Studio\2022\Professional\VC\Tools\MSVC\14.44.35207\atlmfc\include\cstringt.h

; 2347 : 		return( LoadString( hInstance, nID ) );

  000f9	5e		 pop	 esi
; File C:\Program Files\Microsoft Visual Studio\2022\Professional\VC\Tools\MSVC\14.44.35207\atlmfc\include\atlsimpstr.h

; 879  : 		m_pszData[nLength] = 0;

  000fa	c6 04 07 00	 mov	 BYTE PTR [edi+eax], 0
; File C:\Program Files\Microsoft Visual Studio\2022\Professional\VC\Tools\MSVC\14.44.35207\atlmfc\include\cstringt.h

; 2366 : 		return( TRUE );

  000fe	b8 01 00 00 00	 mov	 eax, 1
  00103	5f		 pop	 edi

; 2348 : 	}

  00104	5b		 pop	 ebx
  00105	8b e5		 mov	 esp, ebp
  00107	5d		 pop	 ebp
  00108	c2 04 00	 ret	 4
$LN51@LoadString:

; 2347 : 		return( LoadString( hInstance, nID ) );

  0010b	5e		 pop	 esi
  0010c	5f		 pop	 edi

; 2358 : 			return( FALSE );

  0010d	33 c0		 xor	 eax, eax

; 2348 : 	}

  0010f	5b		 pop	 ebx
  00110	8b e5		 mov	 esp, ebp
  00112	5d		 pop	 ebp
  00113	c2 04 00	 ret	 4
$LN38@LoadString:
; File C:\Program Files\Microsoft Visual Studio\2022\Professional\VC\Tools\MSVC\14.44.35207\atlmfc\include\atlsimpstr.h

; 876  : 			AtlThrow(E_INVALIDARG);

  00116	68 57 00 07 80	 push	 -2147024809		; 80070057H
  0011b	e8 00 00 00 00	 call	 ?AtlThrowImpl@ATL@@YGXJ@Z ; ATL::AtlThrowImpl
$LN63@LoadString:
  00120	cc		 int	 3
?LoadStringA@?$CStringT@DV?$StrTraitMFC@DV?$ChTraitsCRT@D@ATL@@@@@ATL@@QAEHI@Z ENDP ; ATL::CStringT<char,StrTraitMFC<char,ATL::ChTraitsCRT<char> > >::LoadStringA
_TEXT	ENDS
; Function compile flags: /Ogtp
; File C:\Program Files\Microsoft Visual Studio\2022\Professional\VC\Tools\MSVC\14.44.35207\atlmfc\include\cstringt.h
; File C:\Program Files (x86)\Windows Kits\10\Include\10.0.26100.0\ucrt\stdio.h
; File C:\Program Files\Microsoft Visual Studio\2022\Professional\VC\Tools\MSVC\14.44.35207\atlmfc\include\cstringt.h
; File C:\Program Files\Microsoft Visual Studio\2022\Professional\VC\Tools\MSVC\14.44.35207\atlmfc\include\atlsimpstr.h
; File C:\Program Files\Microsoft Visual Studio\2022\Professional\VC\Tools\MSVC\14.44.35207\atlmfc\include\cstringt.h
; File C:\Program Files\Microsoft Visual Studio\2022\Professional\VC\Tools\MSVC\14.44.35207\atlmfc\include\afxstr.h
; File C:\Program Files\Microsoft Visual Studio\2022\Professional\VC\Tools\MSVC\14.44.35207\atlmfc\include\cstringt.h
; File C:\Program Files\Microsoft Visual Studio\2022\Professional\VC\Tools\MSVC\14.44.35207\atlmfc\include\atlsimpstr.h
; File C:\Program Files\Microsoft Visual Studio\2022\Professional\VC\Tools\MSVC\14.44.35207\atlmfc\include\cstringt.h
; File C:\Program Files\Microsoft Visual Studio\2022\Professional\VC\Tools\MSVC\14.44.35207\atlmfc\include\atlsimpstr.h
; File C:\Program Files\Microsoft Visual Studio\2022\Professional\VC\Tools\MSVC\14.44.35207\atlmfc\include\cstringt.h
; File C:\Program Files\Microsoft Visual Studio\2022\Professional\VC\Tools\MSVC\14.44.35207\atlmfc\include\atlsimpstr.h
; File C:\Program Files (x86)\Windows Kits\10\Include\10.0.26100.0\ucrt\stdio.h
; File C:\Program Files\Microsoft Visual Studio\2022\Professional\VC\Tools\MSVC\14.44.35207\atlmfc\include\cstringt.h
; File C:\Program Files (x86)\Windows Kits\10\Include\10.0.26100.0\ucrt\stdio.h
; File C:\Program Files\Microsoft Visual Studio\2022\Professional\VC\Tools\MSVC\14.44.35207\atlmfc\include\atlsimpstr.h
; File C:\Program Files (x86)\Windows Kits\10\Include\10.0.26100.0\ucrt\stdio.h
; File C:\Program Files\Microsoft Visual Studio\2022\Professional\VC\Tools\MSVC\14.44.35207\atlmfc\include\atlsimpstr.h
; File C:\Program Files\Microsoft Visual Studio\2022\Professional\VC\Tools\MSVC\14.44.35207\atlmfc\include\cstringt.h
; File C:\Program Files\Microsoft Visual Studio\2022\Professional\VC\Tools\MSVC\14.44.35207\atlmfc\include\atlsimpstr.h
; File C:\Program Files\Microsoft Visual Studio\2022\Professional\VC\Tools\MSVC\14.44.35207\atlmfc\include\cstringt.h
; File C:\Program Files\Microsoft Visual Studio\2022\Professional\VC\Tools\MSVC\14.44.35207\atlmfc\include\atlsimpstr.h
; File C:\Program Files\Microsoft Visual Studio\2022\Professional\VC\Tools\MSVC\14.44.35207\atlmfc\include\cstringt.h
;	COMDAT ?FormatV@?$CStringT@DV?$StrTraitMFC@DV?$ChTraitsCRT@D@ATL@@@@@ATL@@QAEXPBDPAD@Z
_TEXT	SEGMENT
tv456 = -16						; size = 4
__$EHRec$ = -12						; size = 12
_pszFormat$ = 8						; size = 4
_temp$ = 8						; size = 4
_args$ = 12						; size = 4
?FormatV@?$CStringT@DV?$StrTraitMFC@DV?$ChTraitsCRT@D@ATL@@@@@ATL@@QAEXPBDPAD@Z PROC ; ATL::CStringT<char,StrTraitMFC<char,ATL::ChTraitsCRT<char> > >::FormatV, COMDAT
; _this$ = ecx

; 2225 : 	{

  00000	55		 push	 ebp
  00001	8b ec		 mov	 ebp, esp
  00003	6a ff		 push	 -1
  00005	68 00 00 00 00	 push	 __ehhandler$?FormatV@?$CStringT@DV?$StrTraitMFC@DV?$ChTraitsCRT@D@ATL@@@@@ATL@@QAEXPBDPAD@Z
  0000a	64 a1 00 00 00
	00		 mov	 eax, DWORD PTR fs:0
  00010	50		 push	 eax
  00011	51		 push	 ecx
  00012	53		 push	 ebx
  00013	56		 push	 esi
  00014	57		 push	 edi
  00015	a1 00 00 00 00	 mov	 eax, DWORD PTR ___security_cookie
  0001a	33 c5		 xor	 eax, ebp
  0001c	50		 push	 eax
  0001d	8d 45 f4	 lea	 eax, DWORD PTR __$EHRec$[ebp]
  00020	64 a3 00 00 00
	00		 mov	 DWORD PTR fs:0, eax
  00026	8b d9		 mov	 ebx, ecx

; 2226 : 		ATLASSERT( AtlIsValidString( pszFormat ) );
; 2227 : 		if(pszFormat == NULL)

  00028	8b 75 08	 mov	 esi, DWORD PTR _pszFormat$[ebp]
  0002b	85 f6		 test	 esi, esi
  0002d	0f 84 2e 01 00
	00		 je	 $LN70@FormatV
; File C:\Program Files (x86)\Windows Kits\10\Include\10.0.26100.0\ucrt\stdio.h

; 1652 :         int const _Result = __stdio_common_vsprintf(

  00033	e8 00 00 00 00	 call	 ___local_stdio_printf_options
  00038	ff 75 0c	 push	 DWORD PTR _args$[ebp]
  0003b	89 45 f0	 mov	 DWORD PTR tv456[ebp], eax
  0003e	6a 00		 push	 0
  00040	8b 08		 mov	 ecx, DWORD PTR [eax]
  00042	56		 push	 esi
  00043	6a 00		 push	 0
  00045	6a 00		 push	 0
  00047	ff 70 04	 push	 DWORD PTR [eax+4]
  0004a	83 c9 02	 or	 ecx, 2
  0004d	51		 push	 ecx
  0004e	e8 00 00 00 00	 call	 ___stdio_common_vsprintf
  00053	8b f8		 mov	 edi, eax
  00055	83 c4 1c	 add	 esp, 28			; 0000001cH

; 1653 :             _CRT_INTERNAL_LOCAL_PRINTF_OPTIONS | _CRT_INTERNAL_PRINTF_STANDARD_SNPRINTF_BEHAVIOR,
; 1654 :             NULL, 0, _Format, _Locale, _ArgList);
; 1655 : 
; 1656 :         return _Result < 0 ? -1 : _Result;

  00058	83 c8 ff	 or	 eax, -1
  0005b	85 ff		 test	 edi, edi
  0005d	0f 48 f8	 cmovs	 edi, eax
; File C:\Program Files\Microsoft Visual Studio\2022\Professional\VC\Tools\MSVC\14.44.35207\atlmfc\include\cstringt.h

; 2232 : 		if (nLength < 0)

  00060	85 ff		 test	 edi, edi
  00062	0f 88 ef 00 00
	00		 js	 $LN87@FormatV
; File C:\Program Files\Microsoft Visual Studio\2022\Professional\VC\Tools\MSVC\14.44.35207\atlmfc\include\atlsimpstr.h

; 527  : 		IAtlStringMgr* pStringMgr = GetData()->pStringMgr;

  00068	8b 03		 mov	 eax, DWORD PTR [ebx]
  0006a	8b 48 f0	 mov	 ecx, DWORD PTR [eax-16]

; 528  : 		return pStringMgr ? pStringMgr->Clone() : NULL;

  0006d	85 c9		 test	 ecx, ecx
  0006f	74 0b		 je	 SHORT $LN13@FormatV
  00071	8b 01		 mov	 eax, DWORD PTR [ecx]
  00073	ff 50 10	 call	 DWORD PTR [eax+16]
  00076	8b c8		 mov	 ecx, eax
; File C:\Program Files\Microsoft Visual Studio\2022\Professional\VC\Tools\MSVC\14.44.35207\atlmfc\include\cstringt.h

; 1442 : 		if(pStringMgr) { return pStringMgr; }

  00078	85 c9		 test	 ecx, ecx
  0007a	75 16		 jne	 SHORT $LN28@FormatV
$LN13@FormatV:
; File C:\Program Files\Microsoft Visual Studio\2022\Professional\VC\Tools\MSVC\14.44.35207\atlmfc\include\afxstr.h

; 56   : 		return( AfxGetStringManager() );

  0007c	e8 00 00 00 00	 call	 ?AfxGetStringManager@@YGPAUIAtlStringMgr@ATL@@XZ ; AfxGetStringManager
; File C:\Program Files\Microsoft Visual Studio\2022\Professional\VC\Tools\MSVC\14.44.35207\atlmfc\include\cstringt.h

; 1445 : 		return pStringMgr->Clone();

  00081	8b c8		 mov	 ecx, eax
  00083	8b 10		 mov	 edx, DWORD PTR [eax]
  00085	ff 52 10	 call	 DWORD PTR [edx+16]
  00088	8b c8		 mov	 ecx, eax
; File C:\Program Files\Microsoft Visual Studio\2022\Professional\VC\Tools\MSVC\14.44.35207\atlmfc\include\atlsimpstr.h

; 209  : 		ATLENSURE( pStringMgr != NULL );

  0008a	85 c9		 test	 ecx, ecx
  0008c	0f 84 c5 00 00
	00		 je	 $LN87@FormatV
$LN28@FormatV:

; 210  : 		CStringData* pData = pStringMgr->GetNilString();

  00092	8b 01		 mov	 eax, DWORD PTR [ecx]
  00094	ff 50 0c	 call	 DWORD PTR [eax+12]

; 211  : 		Attach( pData );

  00097	83 c0 10	 add	 eax, 16			; 00000010H
  0009a	89 45 08	 mov	 DWORD PTR _temp$[ebp], eax
; File C:\Program Files\Microsoft Visual Studio\2022\Professional\VC\Tools\MSVC\14.44.35207\atlmfc\include\cstringt.h

; 1063 : 		CThisSimpleString( pStringMgr )

  0009d	c7 45 fc 00 00
	00 00		 mov	 DWORD PTR __$EHRec$[ebp+8], 0

; 2712 : 		if( (pv != NULL) && IS_INTRESOURCE( pv ) )

  000a4	f7 c6 00 00 ff
	ff		 test	 esi, -65536		; ffff0000H
  000aa	75 0e		 jne	 SHORT $LN86@FormatV

; 2713 : 		{
; 2714 : 			UINT nID = LOWORD( reinterpret_cast< DWORD_PTR >( pv ) );

  000ac	0f b7 c6	 movzx	 eax, si

; 2715 : 			(nID);
; 2716 : #ifdef _ATL_USE_WINAPI_FAMILY_DESKTOP_APP
; 2717 : 			if( !LoadString( nID ) )

  000af	8d 4d 08	 lea	 ecx, DWORD PTR _temp$[ebp]
  000b2	50		 push	 eax
  000b3	e8 00 00 00 00	 call	 ?LoadStringA@?$CStringT@DV?$StrTraitMFC@DV?$ChTraitsCRT@D@ATL@@@@@ATL@@QAEHI@Z ; ATL::CStringT<char,StrTraitMFC<char,ATL::ChTraitsCRT<char> > >::LoadStringA

; 1065 : 		if( !CheckImplicitLoad( pszSrc ) )

  000b8	eb 19		 jmp	 SHORT $LN24@FormatV
$LN86@FormatV:
; File C:\Program Files\Microsoft Visual Studio\2022\Professional\VC\Tools\MSVC\14.44.35207\atlmfc\include\atlsimpstr.h

; 730  : 		return( int( strlen( psz ) ) );

  000ba	8b ce		 mov	 ecx, esi
  000bc	8d 51 01	 lea	 edx, DWORD PTR [ecx+1]
  000bf	90		 npad	 1
$LL89@FormatV:
  000c0	8a 01		 mov	 al, BYTE PTR [ecx]
  000c2	41		 inc	 ecx
  000c3	84 c0		 test	 al, al
  000c5	75 f9		 jne	 SHORT $LL89@FormatV
  000c7	2b ca		 sub	 ecx, edx

; 606  : 		SetString( pszSrc, StringLength( pszSrc ) );

  000c9	51		 push	 ecx
  000ca	56		 push	 esi
  000cb	8d 4d 08	 lea	 ecx, DWORD PTR _temp$[ebp]
  000ce	e8 00 00 00 00	 call	 ?SetString@?$CSimpleStringT@D$0A@@ATL@@QAEXPBDH@Z ; ATL::CSimpleStringT<char,0>::SetString
$LN24@FormatV:

; 804  : 		return( reinterpret_cast< CStringData* >( m_pszData )-1 );

  000d3	8b 03		 mov	 eax, DWORD PTR [ebx]

; 812  : 		int nShared = 1-pOldData->nRefs;  // nShared < 0 means true, >= 0 means false

  000d5	b9 01 00 00 00	 mov	 ecx, 1
; File C:\Program Files\Microsoft Visual Studio\2022\Professional\VC\Tools\MSVC\14.44.35207\atlmfc\include\cstringt.h

; 2235 : 		CStringT temp(pszFormat, this->GetManager());

  000da	c7 45 fc 01 00
	00 00		 mov	 DWORD PTR __$EHRec$[ebp+8], 1
; File C:\Program Files\Microsoft Visual Studio\2022\Professional\VC\Tools\MSVC\14.44.35207\atlmfc\include\atlsimpstr.h

; 812  : 		int nShared = 1-pOldData->nRefs;  // nShared < 0 means true, >= 0 means false

  000e1	2b 48 fc	 sub	 ecx, DWORD PTR [eax-4]

; 813  : 		int nTooShort = pOldData->nAllocLength-nLength;  // nTooShort < 0 means true, >= 0 means false

  000e4	8b 40 f8	 mov	 eax, DWORD PTR [eax-8]
  000e7	2b c7		 sub	 eax, edi

; 814  : 		if( (nShared|nTooShort) < 0 )  // If either sign bit is set (i.e. either is less than zero), we need to copy data

  000e9	0b c8		 or	 ecx, eax
  000eb	7d 08		 jge	 SHORT $LN55@FormatV

; 815  : 		{
; 816  : 			PrepareWrite2( nLength );

  000ed	57		 push	 edi
  000ee	8b cb		 mov	 ecx, ebx
  000f0	e8 00 00 00 00	 call	 ?PrepareWrite2@?$CSimpleStringT@D$0A@@ATL@@AAEXH@Z ; ATL::CSimpleStringT<char,0>::PrepareWrite2
$LN55@FormatV:
; File C:\Program Files (x86)\Windows Kits\10\Include\10.0.26100.0\ucrt\stdio.h

; 1491 :         int const _Result = __stdio_common_vsprintf_s(

  000f5	ff 75 0c	 push	 DWORD PTR _args$[ebp]
  000f8	8b 75 08	 mov	 esi, DWORD PTR _temp$[ebp]
; File C:\Program Files\Microsoft Visual Studio\2022\Professional\VC\Tools\MSVC\14.44.35207\atlmfc\include\cstringt.h

; 2237 : 		StringTraits::Format( pszBuffer, nLength+1, temp, args );

  000fb	8d 47 01	 lea	 eax, DWORD PTR [edi+1]
; File C:\Program Files (x86)\Windows Kits\10\Include\10.0.26100.0\ucrt\stdio.h

; 1491 :         int const _Result = __stdio_common_vsprintf_s(

  000fe	6a 00		 push	 0
  00100	56		 push	 esi
  00101	50		 push	 eax
  00102	8b 45 f0	 mov	 eax, DWORD PTR tv456[ebp]
  00105	ff 33		 push	 DWORD PTR [ebx]
  00107	ff 70 04	 push	 DWORD PTR [eax+4]
  0010a	ff 30		 push	 DWORD PTR [eax]
  0010c	e8 00 00 00 00	 call	 ___stdio_common_vsprintf_s
; File C:\Program Files\Microsoft Visual Studio\2022\Professional\VC\Tools\MSVC\14.44.35207\atlmfc\include\atlsimpstr.h

; 875  : 		if( nLength < 0 || nLength > GetData()->nAllocLength)

  00111	8b 03		 mov	 eax, DWORD PTR [ebx]
; File C:\Program Files (x86)\Windows Kits\10\Include\10.0.26100.0\ucrt\stdio.h

; 1491 :         int const _Result = __stdio_common_vsprintf_s(

  00113	83 c4 1c	 add	 esp, 28			; 0000001cH
; File C:\Program Files\Microsoft Visual Studio\2022\Professional\VC\Tools\MSVC\14.44.35207\atlmfc\include\atlsimpstr.h

; 875  : 		if( nLength < 0 || nLength > GetData()->nAllocLength)

  00116	3b 78 f8	 cmp	 edi, DWORD PTR [eax-8]
  00119	7f 46		 jg	 SHORT $LN70@FormatV

; 876  : 			AtlThrow(E_INVALIDARG);
; 877  : 
; 878  : 		GetData()->nDataLength = nLength;

  0011b	89 78 f4	 mov	 DWORD PTR [eax-12], edi

; 804  : 		return( reinterpret_cast< CStringData* >( m_pszData )-1 );

  0011e	83 c6 f0	 add	 esi, -16		; fffffff0H

; 879  : 		m_pszData[nLength] = 0;

  00121	8b 03		 mov	 eax, DWORD PTR [ebx]
; File C:\Program Files\Microsoft Visual Studio\2022\Professional\VC\Tools\MSVC\14.44.35207\atlmfc\include\cstringt.h

; 2239 : 	}

  00123	c7 45 fc ff ff
	ff ff		 mov	 DWORD PTR __$EHRec$[ebp+8], -1
; File C:\Program Files\Microsoft Visual Studio\2022\Professional\VC\Tools\MSVC\14.44.35207\atlmfc\include\atlsimpstr.h

; 879  : 		m_pszData[nLength] = 0;

  0012a	c6 04 07 00	 mov	 BYTE PTR [edi+eax], 0

; 92   : 		if( _InterlockedDecrement( &nRefs ) <= 0 )

  0012e	83 c8 ff	 or	 eax, -1
  00131	f0 0f c1 46 0c	 lock	  xadd	 DWORD PTR [esi+12], eax
  00136	48		 dec	 eax
  00137	85 c0		 test	 eax, eax
  00139	7f 08		 jg	 SHORT $LN84@FormatV

; 93   : 		{
; 94   : 			pStringMgr->Free( this );

  0013b	8b 0e		 mov	 ecx, DWORD PTR [esi]
  0013d	56		 push	 esi
  0013e	8b 01		 mov	 eax, DWORD PTR [ecx]
  00140	ff 50 04	 call	 DWORD PTR [eax+4]
$LN84@FormatV:
; File C:\Program Files\Microsoft Visual Studio\2022\Professional\VC\Tools\MSVC\14.44.35207\atlmfc\include\cstringt.h

; 2239 : 	}

  00143	8b 4d f4	 mov	 ecx, DWORD PTR __$EHRec$[ebp]
  00146	64 89 0d 00 00
	00 00		 mov	 DWORD PTR fs:0, ecx
  0014d	59		 pop	 ecx
  0014e	5f		 pop	 edi
  0014f	5e		 pop	 esi
  00150	5b		 pop	 ebx
  00151	8b e5		 mov	 esp, ebp
  00153	5d		 pop	 ebp
  00154	c2 08 00	 ret	 8
$LN87@FormatV:
; File C:\Program Files\Microsoft Visual Studio\2022\Professional\VC\Tools\MSVC\14.44.35207\atlmfc\include\atlsimpstr.h

; 209  : 		ATLENSURE( pStringMgr != NULL );

  00157	68 05 40 00 80	 push	 -2147467259		; 80004005H
  0015c	e8 00 00 00 00	 call	 ?AtlThrowImpl@ATL@@YGXJ@Z ; ATL::AtlThrowImpl
$LN70@FormatV:
; File C:\Program Files\Microsoft Visual Studio\2022\Professional\VC\Tools\MSVC\14.44.35207\atlmfc\include\cstringt.h

; 2239 : 	}

  00161	68 57 00 07 80	 push	 -2147024809		; 80070057H
  00166	e8 00 00 00 00	 call	 ?AtlThrowImpl@ATL@@YGXJ@Z ; ATL::AtlThrowImpl
$LN91@FormatV:
  0016b	cc		 int	 3
_TEXT	ENDS
;	COMDAT text$x
text$x	SEGMENT
__unwindfunclet$?FormatV@?$CStringT@DV?$StrTraitMFC@DV?$ChTraitsCRT@D@ATL@@@@@ATL@@QAEXPBDPAD@Z$1:
  00000	8d 4d 08	 lea	 ecx, DWORD PTR _temp$[ebp]
  00003	e9 00 00 00 00	 jmp	 ??1?$CSimpleStringT@D$0A@@ATL@@QAE@XZ ; ATL::CSimpleStringT<char,0>::~CSimpleStringT<char,0>
__unwindfunclet$?FormatV@?$CStringT@DV?$StrTraitMFC@DV?$ChTraitsCRT@D@ATL@@@@@ATL@@QAEXPBDPAD@Z$0:
  00008	8d 4d 08	 lea	 ecx, DWORD PTR _temp$[ebp]
  0000b	e9 00 00 00 00	 jmp	 ??1?$CStringT@DV?$StrTraitMFC@DV?$ChTraitsCRT@D@ATL@@@@@ATL@@QAE@XZ ; ATL::CStringT<char,StrTraitMFC<char,ATL::ChTraitsCRT<char> > >::~CStringT<char,StrTraitMFC<char,ATL::ChTraitsCRT<char> > >
  00010	cc		 int	 3
  00011	cc		 int	 3
  00012	cc		 int	 3
  00013	cc		 int	 3
  00014	cc		 int	 3
__ehhandler$?FormatV@?$CStringT@DV?$StrTraitMFC@DV?$ChTraitsCRT@D@ATL@@@@@ATL@@QAEXPBDPAD@Z:
  00015	90		 npad	 1
  00016	90		 npad	 1
  00017	8b 54 24 08	 mov	 edx, DWORD PTR [esp+8]
  0001b	8d 42 0c	 lea	 eax, DWORD PTR [edx+12]
  0001e	8b 4a ec	 mov	 ecx, DWORD PTR [edx-20]
  00021	33 c8		 xor	 ecx, eax
  00023	e8 00 00 00 00	 call	 @__security_check_cookie@4
  00028	b8 00 00 00 00	 mov	 eax, OFFSET __ehfuncinfo$?FormatV@?$CStringT@DV?$StrTraitMFC@DV?$ChTraitsCRT@D@ATL@@@@@ATL@@QAEXPBDPAD@Z
  0002d	e9 00 00 00 00	 jmp	 ___CxxFrameHandler3
text$x	ENDS
?FormatV@?$CStringT@DV?$StrTraitMFC@DV?$ChTraitsCRT@D@ATL@@@@@ATL@@QAEXPBDPAD@Z ENDP ; ATL::CStringT<char,StrTraitMFC<char,ATL::ChTraitsCRT<char> > >::FormatV
; Function compile flags: /Ogtp
; File C:\Program Files\Microsoft Visual Studio\2022\Professional\VC\Tools\MSVC\14.44.35207\atlmfc\include\cstringt.h
;	COMDAT ?Format@?$CStringT@DV?$StrTraitMFC@DV?$ChTraitsCRT@D@ATL@@@@@ATL@@QAAXPBDZZ
_TEXT	SEGMENT
_this$ = 8						; size = 4
_pszFormat$ = 12					; size = 4
?Format@?$CStringT@DV?$StrTraitMFC@DV?$ChTraitsCRT@D@ATL@@@@@ATL@@QAAXPBDZZ PROC ; ATL::CStringT<char,StrTraitMFC<char,ATL::ChTraitsCRT<char> > >::Format, COMDAT

; 2745 : {

  00000	55		 push	 ebp
  00001	8b ec		 mov	 ebp, esp

; 2746 : 	ATLASSERT( AtlIsValidString( pszFormat ) );
; 2747 : 
; 2748 : 	va_list argList;
; 2749 : 	va_start( argList, pszFormat );
; 2750 : 	FormatV( pszFormat, argList );

  00003	8b 4d 08	 mov	 ecx, DWORD PTR _this$[ebp]
  00006	8d 45 10	 lea	 eax, DWORD PTR _pszFormat$[ebp+4]
  00009	50		 push	 eax
  0000a	ff 75 0c	 push	 DWORD PTR _pszFormat$[ebp]
  0000d	e8 00 00 00 00	 call	 ?FormatV@?$CStringT@DV?$StrTraitMFC@DV?$ChTraitsCRT@D@ATL@@@@@ATL@@QAEXPBDPAD@Z ; ATL::CStringT<char,StrTraitMFC<char,ATL::ChTraitsCRT<char> > >::FormatV

; 2751 : 	va_end( argList );
; 2752 : }

  00012	5d		 pop	 ebp
  00013	c3		 ret	 0
?Format@?$CStringT@DV?$StrTraitMFC@DV?$ChTraitsCRT@D@ATL@@@@@ATL@@QAAXPBDZZ ENDP ; ATL::CStringT<char,StrTraitMFC<char,ATL::ChTraitsCRT<char> > >::Format
_TEXT	ENDS
; Function compile flags: /Ogtp
; File C:\Program Files\Microsoft Visual Studio\2022\Professional\VC\Tools\MSVC\14.44.35207\atlmfc\include\cstringt.h
; File C:\Program Files\Microsoft Visual Studio\2022\Professional\VC\Tools\MSVC\14.44.35207\atlmfc\include\atlsimpstr.h
; File C:\Program Files (x86)\Windows Kits\10\Include\10.0.26100.0\ucrt\corecrt_memcpy_s.h
; File C:\Program Files\Microsoft Visual Studio\2022\Professional\VC\Tools\MSVC\14.44.35207\atlmfc\include\atlsimpstr.h
; File C:\Program Files\Microsoft Visual Studio\2022\Professional\VC\Tools\MSVC\14.44.35207\atlmfc\include\cstringt.h
; File C:\Program Files\Microsoft Visual Studio\2022\Professional\VC\Tools\MSVC\14.44.35207\atlmfc\include\atlsimpstr.h
; File C:\Program Files\Microsoft Visual Studio\2022\Professional\VC\Tools\MSVC\14.44.35207\atlmfc\include\cstringt.h
;	COMDAT ??Y?$CStringT@DV?$StrTraitMFC@DV?$ChTraitsCRT@D@ATL@@@@@ATL@@QAEAAV01@PBD@Z
_TEXT	SEGMENT
_nOffset$3$ = -8					; size = 4
tv372 = -4						; size = 4
_pszSrc$ = 8						; size = 4
$T1 = 8							; size = 4
??Y?$CStringT@DV?$StrTraitMFC@DV?$ChTraitsCRT@D@ATL@@@@@ATL@@QAEAAV01@PBD@Z PROC ; ATL::CStringT<char,StrTraitMFC<char,ATL::ChTraitsCRT<char> > >::operator+=, COMDAT
; _this$ = ecx

; 1387 : 	{

  00000	55		 push	 ebp
  00001	8b ec		 mov	 ebp, esp
  00003	83 ec 08	 sub	 esp, 8
  00006	53		 push	 ebx
  00007	56		 push	 esi
  00008	8b 75 08	 mov	 esi, DWORD PTR _pszSrc$[ebp]
  0000b	57		 push	 edi
  0000c	8b f9		 mov	 edi, ecx
; File C:\Program Files\Microsoft Visual Studio\2022\Professional\VC\Tools\MSVC\14.44.35207\atlmfc\include\atlsimpstr.h

; 726  : 		if( psz == NULL )

  0000e	8b ce		 mov	 ecx, esi
  00010	85 f6		 test	 esi, esi
  00012	75 14		 jne	 SHORT $LN8@operator

; 727  : 		{
; 728  : 			return( 0 );

  00014	8b 07		 mov	 eax, DWORD PTR [edi]
  00016	2b c8		 sub	 ecx, eax

; 746  : 			return( 0 );

  00018	33 d2		 xor	 edx, edx

; 728  : 			return( 0 );

  0001a	89 4d f8	 mov	 DWORD PTR _nOffset$3$[ebp], ecx

; 746  : 			return( 0 );

  0001d	89 55 08	 mov	 DWORD PTR $T1[ebp], edx

; 728  : 			return( 0 );

  00020	8b 58 f4	 mov	 ebx, DWORD PTR [eax-12]
  00023	89 5d fc	 mov	 DWORD PTR tv372[ebp], ebx

; 746  : 			return( 0 );

  00026	eb 37		 jmp	 SHORT $LN32@operator
$LN8@operator:

; 730  : 		return( int( strlen( psz ) ) );

  00028	8d 51 01	 lea	 edx, DWORD PTR [ecx+1]
  0002b	0f 1f 44 00 00	 npad	 5
$LL71@operator:
  00030	8a 01		 mov	 al, BYTE PTR [ecx]
  00032	41		 inc	 ecx
  00033	84 c0		 test	 al, al
  00035	75 f9		 jne	 SHORT $LL71@operator

; 393  : 		UINT_PTR nOffset = pszSrc-GetString();

  00037	8b 07		 mov	 eax, DWORD PTR [edi]

; 730  : 		return( int( strlen( psz ) ) );

  00039	2b ca		 sub	 ecx, edx

; 393  : 		UINT_PTR nOffset = pszSrc-GetString();

  0003b	8b d6		 mov	 edx, esi
  0003d	2b d0		 sub	 edx, eax
  0003f	89 55 f8	 mov	 DWORD PTR _nOffset$3$[ebp], edx

; 523  : 		return( GetData()->nDataLength );

  00042	8b 58 f4	 mov	 ebx, DWORD PTR [eax-12]
  00045	89 5d fc	 mov	 DWORD PTR tv372[ebp], ebx

; 403  : 		ATLENSURE_THROW(nLength >=0, E_INVALIDARG);

  00048	85 c9		 test	 ecx, ecx
  0004a	0f 88 9f 00 00
	00		 js	 $LN57@operator

; 748  : 		return( int( strnlen( psz, sizeInXChar ) ) );

  00050	51		 push	 ecx
  00051	56		 push	 esi
  00052	e8 00 00 00 00	 call	 _strnlen
  00057	83 c4 08	 add	 esp, 8
  0005a	89 45 08	 mov	 DWORD PTR $T1[ebp], eax
  0005d	8b d0		 mov	 edx, eax
$LN32@operator:

; 409  : 		ATLENSURE_THROW(INT_MAX - nLength >= static_cast<int>(nOldLength), E_INVALIDARG);

  0005f	b9 ff ff ff 7f	 mov	 ecx, 2147483647		; 7fffffffH
  00064	2b ca		 sub	 ecx, edx
  00066	3b cb		 cmp	 ecx, ebx
  00068	0f 8c 81 00 00
	00		 jl	 $LN57@operator

; 410  : 
; 411  : 		int nNewLength = nOldLength+nLength;

  0006e	03 da		 add	 ebx, edx

; 808  : 		if (nLength < 0)

  00070	78 7d		 js	 SHORT $LN57@operator

; 804  : 		return( reinterpret_cast< CStringData* >( m_pszData )-1 );

  00072	8b 07		 mov	 eax, DWORD PTR [edi]

; 812  : 		int nShared = 1-pOldData->nRefs;  // nShared < 0 means true, >= 0 means false

  00074	b9 01 00 00 00	 mov	 ecx, 1
  00079	2b 48 fc	 sub	 ecx, DWORD PTR [eax-4]

; 813  : 		int nTooShort = pOldData->nAllocLength-nLength;  // nTooShort < 0 means true, >= 0 means false

  0007c	8b 40 f8	 mov	 eax, DWORD PTR [eax-8]
  0007f	2b c3		 sub	 eax, ebx

; 814  : 		if( (nShared|nTooShort) < 0 )  // If either sign bit is set (i.e. either is less than zero), we need to copy data

  00081	0b c8		 or	 ecx, eax
  00083	7d 0b		 jge	 SHORT $LN39@operator

; 815  : 		{
; 816  : 			PrepareWrite2( nLength );

  00085	53		 push	 ebx
  00086	8b cf		 mov	 ecx, edi
  00088	e8 00 00 00 00	 call	 ?PrepareWrite2@?$CSimpleStringT@D$0A@@ATL@@AAEXH@Z ; ATL::CSimpleStringT<char,0>::PrepareWrite2
  0008d	8b 55 08	 mov	 edx, DWORD PTR $T1[ebp]
$LN39@operator:

; 413  : 		if( nOffset <= nOldLength )

  00090	8b 45 fc	 mov	 eax, DWORD PTR tv372[ebp]
  00093	8b 4d f8	 mov	 ecx, DWORD PTR _nOffset$3$[ebp]
  00096	3b c8		 cmp	 ecx, eax
  00098	77 04		 ja	 SHORT $LN26@operator

; 414  : 		{
; 415  : 			pszSrc = pszBuffer+nOffset;

  0009a	8b 37		 mov	 esi, DWORD PTR [edi]
  0009c	03 f1		 add	 esi, ecx
$LN26@operator:

; 416  : 			// No need to call CopyCharsOverlapped, since the destination is
; 417  : 			// beyond the end of the original buffer
; 418  : 		}
; 419  : 		memcpy_s( pszBuffer+nOldLength, nLength * sizeof( XCHAR ), pszSrc, nLength * sizeof( XCHAR ));

  0009e	03 07		 add	 eax, DWORD PTR [edi]
; File C:\Program Files (x86)\Windows Kits\10\Include\10.0.26100.0\ucrt\corecrt_memcpy_s.h

; 47   :         if (_SourceSize == 0)

  000a0	85 d2		 test	 edx, edx
  000a2	74 30		 je	 SHORT $LN50@operator

; 48   :         {
; 49   :             return 0;
; 50   :         }
; 51   : 
; 52   :         _CRT_MEMCPY_S_VALIDATE_RETURN_ERRCODE(_Destination != NULL, EINVAL);

  000a4	85 c0		 test	 eax, eax
  000a6	74 1c		 je	 SHORT $LN84@operator

; 53   :         if (_Source == NULL || _DestinationSize < _SourceSize)

  000a8	52		 push	 edx
  000a9	85 f6		 test	 esi, esi
  000ab	74 0c		 je	 SHORT $LN49@operator

; 56   : 
; 57   :             _CRT_MEMCPY_S_VALIDATE_RETURN_ERRCODE(_Source != NULL,                 EINVAL);
; 58   :             _CRT_MEMCPY_S_VALIDATE_RETURN_ERRCODE(_DestinationSize >= _SourceSize, ERANGE);
; 59   : 
; 60   :             // Unreachable, but required to suppress /analyze warnings:
; 61   :             return EINVAL;
; 62   :         }
; 63   :         memcpy(_Destination, _Source, _SourceSize);

  000ad	56		 push	 esi
  000ae	50		 push	 eax
  000af	e8 00 00 00 00	 call	 _memcpy
  000b4	83 c4 0c	 add	 esp, 12			; 0000000cH
  000b7	eb 1b		 jmp	 SHORT $LN50@operator
$LN49@operator:

; 54   :         {
; 55   :             memset(_Destination, 0, _DestinationSize);

  000b9	6a 00		 push	 0
  000bb	50		 push	 eax
  000bc	e8 00 00 00 00	 call	 _memset
  000c1	83 c4 0c	 add	 esp, 12			; 0000000cH
$LN84@operator:
; File C:\Program Files\Microsoft Visual Studio\2022\Professional\VC\Tools\MSVC\14.44.35207\atlmfc\include\atlsimpstr.h

; 875  : 		if( nLength < 0 || nLength > GetData()->nAllocLength)

  000c4	e8 00 00 00 00	 call	 __errno
  000c9	c7 00 16 00 00
	00		 mov	 DWORD PTR [eax], 22	; 00000016H
  000cf	e8 00 00 00 00	 call	 __invalid_parameter_noinfo
$LN50@operator:
  000d4	8b 07		 mov	 eax, DWORD PTR [edi]
  000d6	3b 58 f8	 cmp	 ebx, DWORD PTR [eax-8]
  000d9	7f 14		 jg	 SHORT $LN57@operator

; 877  : 
; 878  : 		GetData()->nDataLength = nLength;

  000db	89 58 f4	 mov	 DWORD PTR [eax-12], ebx

; 879  : 		m_pszData[nLength] = 0;

  000de	8b 07		 mov	 eax, DWORD PTR [edi]
  000e0	c6 04 03 00	 mov	 BYTE PTR [ebx+eax], 0
; File C:\Program Files\Microsoft Visual Studio\2022\Professional\VC\Tools\MSVC\14.44.35207\atlmfc\include\cstringt.h

; 1390 : 		return( *this );

  000e4	8b c7		 mov	 eax, edi
  000e6	5f		 pop	 edi
  000e7	5e		 pop	 esi
  000e8	5b		 pop	 ebx

; 1391 : 	}

  000e9	8b e5		 mov	 esp, ebp
  000eb	5d		 pop	 ebp
  000ec	c2 04 00	 ret	 4
$LN57@operator:
; File C:\Program Files\Microsoft Visual Studio\2022\Professional\VC\Tools\MSVC\14.44.35207\atlmfc\include\atlsimpstr.h

; 876  : 			AtlThrow(E_INVALIDARG);

  000ef	68 57 00 07 80	 push	 -2147024809		; 80070057H
  000f4	e8 00 00 00 00	 call	 ?AtlThrowImpl@ATL@@YGXJ@Z ; ATL::AtlThrowImpl
$LN83@operator:
  000f9	cc		 int	 3
??Y?$CStringT@DV?$StrTraitMFC@DV?$ChTraitsCRT@D@ATL@@@@@ATL@@QAEAAV01@PBD@Z ENDP ; ATL::CStringT<char,StrTraitMFC<char,ATL::ChTraitsCRT<char> > >::operator+=
_TEXT	ENDS
; Function compile flags: /Ogtp
; File C:\Program Files\Microsoft Visual Studio\2022\Professional\VC\Tools\MSVC\14.44.35207\atlmfc\include\cstringt.h
; File C:\Program Files\Microsoft Visual Studio\2022\Professional\VC\Tools\MSVC\14.44.35207\atlmfc\include\atlsimpstr.h
; File C:\Program Files\Microsoft Visual Studio\2022\Professional\VC\Tools\MSVC\14.44.35207\atlmfc\include\cstringt.h
;	COMDAT ??1?$CStringT@DV?$StrTraitMFC@DV?$ChTraitsCRT@D@ATL@@@@@ATL@@QAE@XZ
_TEXT	SEGMENT
??1?$CStringT@DV?$StrTraitMFC@DV?$ChTraitsCRT@D@ATL@@@@@ATL@@QAE@XZ PROC ; ATL::CStringT<char,StrTraitMFC<char,ATL::ChTraitsCRT<char> > >::~CStringT<char,StrTraitMFC<char,ATL::ChTraitsCRT<char> > >, COMDAT
; _this$ = ecx
; File C:\Program Files\Microsoft Visual Studio\2022\Professional\VC\Tools\MSVC\14.44.35207\atlmfc\include\atlsimpstr.h

; 804  : 		return( reinterpret_cast< CStringData* >( m_pszData )-1 );

  00000	8b 11		 mov	 edx, DWORD PTR [ecx]

; 92   : 		if( _InterlockedDecrement( &nRefs ) <= 0 )

  00002	83 c8 ff	 or	 eax, -1

; 804  : 		return( reinterpret_cast< CStringData* >( m_pszData )-1 );

  00005	83 ea 10	 sub	 edx, 16			; 00000010H

; 92   : 		if( _InterlockedDecrement( &nRefs ) <= 0 )

  00008	f0 0f c1 42 0c	 lock	  xadd	 DWORD PTR [edx+12], eax
  0000d	48		 dec	 eax
  0000e	85 c0		 test	 eax, eax
  00010	7f 08		 jg	 SHORT $LN8@CStringT

; 93   : 		{
; 94   : 			pStringMgr->Free( this );

  00012	8b 0a		 mov	 ecx, DWORD PTR [edx]
  00014	52		 push	 edx
  00015	8b 01		 mov	 eax, DWORD PTR [ecx]
  00017	ff 50 04	 call	 DWORD PTR [eax+4]
$LN8@CStringT:
; File C:\Program Files\Microsoft Visual Studio\2022\Professional\VC\Tools\MSVC\14.44.35207\atlmfc\include\cstringt.h

; 1303 : 	}

  0001a	c3		 ret	 0
??1?$CStringT@DV?$StrTraitMFC@DV?$ChTraitsCRT@D@ATL@@@@@ATL@@QAE@XZ ENDP ; ATL::CStringT<char,StrTraitMFC<char,ATL::ChTraitsCRT<char> > >::~CStringT<char,StrTraitMFC<char,ATL::ChTraitsCRT<char> > >
_TEXT	ENDS
; Function compile flags: /Ogtp
; File C:\Program Files\Microsoft Visual Studio\2022\Professional\VC\Tools\MSVC\14.44.35207\atlmfc\include\atlsimpstr.h
;	COMDAT ?Reallocate@?$CSimpleStringT@D$0A@@ATL@@AAEXH@Z
_TEXT	SEGMENT
_nLength$ = 8						; size = 4
?Reallocate@?$CSimpleStringT@D$0A@@ATL@@AAEXH@Z PROC	; ATL::CSimpleStringT<char,0>::Reallocate, COMDAT
; _this$ = ecx

; 853  : 	{

  00000	55		 push	 ebp
  00001	8b ec		 mov	 ebp, esp
  00003	56		 push	 esi

; 854  : 		CStringData* pOldData = GetData();
; 855  : 		ATLASSERT( pOldData->nAllocLength < nLength );
; 856  : 		IAtlStringMgr* pStringMgr = pOldData->pStringMgr;
; 857  : 		if ( pOldData->nAllocLength >= nLength || nLength <= 0)

  00004	8b 75 08	 mov	 esi, DWORD PTR _nLength$[ebp]
  00007	57		 push	 edi
  00008	8b f9		 mov	 edi, ecx

; 804  : 		return( reinterpret_cast< CStringData* >( m_pszData )-1 );

  0000a	8b 17		 mov	 edx, DWORD PTR [edi]
  0000c	83 ea 10	 sub	 edx, 16			; 00000010H

; 854  : 		CStringData* pOldData = GetData();
; 855  : 		ATLASSERT( pOldData->nAllocLength < nLength );
; 856  : 		IAtlStringMgr* pStringMgr = pOldData->pStringMgr;
; 857  : 		if ( pOldData->nAllocLength >= nLength || nLength <= 0)

  0000f	39 72 08	 cmp	 DWORD PTR [edx+8], esi
  00012	7d 1e		 jge	 SHORT $LN3@Reallocate
  00014	85 f6		 test	 esi, esi
  00016	7e 1a		 jle	 SHORT $LN3@Reallocate

; 860  : 			return;
; 861  : 		}
; 862  : 		CStringData* pNewData = pStringMgr->Reallocate( pOldData, nLength, sizeof( XCHAR ) );

  00018	8b 0a		 mov	 ecx, DWORD PTR [edx]
  0001a	6a 01		 push	 1
  0001c	56		 push	 esi
  0001d	52		 push	 edx
  0001e	8b 01		 mov	 eax, DWORD PTR [ecx]
  00020	ff 50 08	 call	 DWORD PTR [eax+8]

; 863  : 		if( pNewData == NULL )

  00023	85 c0		 test	 eax, eax
  00025	74 0b		 je	 SHORT $LN3@Reallocate

; 864  : 		{
; 865  : 			ThrowMemoryException();
; 866  : 		}
; 867  : 		Attach( pNewData );

  00027	83 c0 10	 add	 eax, 16			; 00000010H
  0002a	89 07		 mov	 DWORD PTR [edi], eax
  0002c	5f		 pop	 edi
  0002d	5e		 pop	 esi

; 868  : 	}

  0002e	5d		 pop	 ebp
  0002f	c2 04 00	 ret	 4
$LN3@Reallocate:

; 858  : 		{
; 859  : 			ThrowMemoryException();

  00032	e8 00 00 00 00	 call	 ?ThrowMemoryException@?$CSimpleStringT@D$0A@@ATL@@KAXXZ ; ATL::CSimpleStringT<char,0>::ThrowMemoryException
$LN12@Reallocate:
  00037	cc		 int	 3
?Reallocate@?$CSimpleStringT@D$0A@@ATL@@AAEXH@Z ENDP	; ATL::CSimpleStringT<char,0>::Reallocate
_TEXT	ENDS
; Function compile flags: /Ogtp
; File C:\Program Files\Microsoft Visual Studio\2022\Professional\VC\Tools\MSVC\14.44.35207\atlmfc\include\atlsimpstr.h
;	COMDAT ?PrepareWrite2@?$CSimpleStringT@D$0A@@ATL@@AAEXH@Z
_TEXT	SEGMENT
_nLength$ = 8						; size = 4
?PrepareWrite2@?$CSimpleStringT@D$0A@@ATL@@AAEXH@Z PROC	; ATL::CSimpleStringT<char,0>::PrepareWrite2, COMDAT
; _this$ = ecx

; 822  : 	{

  00000	55		 push	 ebp
  00001	8b ec		 mov	 ebp, esp
  00003	56		 push	 esi

; 823  : 		CStringData* pOldData = GetData();
; 824  : 		if( pOldData->nDataLength > nLength )

  00004	8b 75 08	 mov	 esi, DWORD PTR _nLength$[ebp]
  00007	57		 push	 edi
  00008	8b f9		 mov	 edi, ecx

; 804  : 		return( reinterpret_cast< CStringData* >( m_pszData )-1 );

  0000a	8b 0f		 mov	 ecx, DWORD PTR [edi]

; 823  : 		CStringData* pOldData = GetData();
; 824  : 		if( pOldData->nDataLength > nLength )

  0000c	39 71 f4	 cmp	 DWORD PTR [ecx-12], esi
  0000f	0f 4f 71 f4	 cmovg	 esi, DWORD PTR [ecx-12]

; 77   : 		return( nRefs > 1 );

  00013	83 79 fc 01	 cmp	 DWORD PTR [ecx-4], 1

; 825  : 		{
; 826  : 			nLength = pOldData->nDataLength;
; 827  : 		}
; 828  : 		if( pOldData->IsShared() )

  00017	7e 0e		 jle	 SHORT $LN3@PrepareWri

; 829  : 		{
; 830  : 			Fork( nLength );

  00019	56		 push	 esi
  0001a	8b cf		 mov	 ecx, edi
  0001c	e8 00 00 00 00	 call	 ?Fork@?$CSimpleStringT@D$0A@@ATL@@AAEXH@Z ; ATL::CSimpleStringT<char,0>::Fork
  00021	5f		 pop	 edi

; 850  : 		}
; 851  : 	}

  00022	5e		 pop	 esi
  00023	5d		 pop	 ebp
  00024	c2 04 00	 ret	 4
$LN3@PrepareWri:

; 831  : 		}
; 832  : 		else if( pOldData->nAllocLength < nLength )

  00027	8b 49 f8	 mov	 ecx, DWORD PTR [ecx-8]
  0002a	3b ce		 cmp	 ecx, esi
  0002c	7d 25		 jge	 SHORT $LN5@PrepareWri

; 833  : 		{
; 834  : 			// Grow exponentially, until we hit 1G, then by 1M thereafter.
; 835  : 			int nNewLength = pOldData->nAllocLength;
; 836  : 			if( nNewLength > 1024 * 1024 * 1024 )

  0002e	81 f9 00 00 00
	40		 cmp	 ecx, 1073741824		; 40000000H
  00034	7e 07		 jle	 SHORT $LN6@PrepareWri

; 837  : 			{
; 838  : 				nNewLength += 1024 * 1024;

  00036	b8 00 00 10 00	 mov	 eax, 1048576		; 00100000H

; 839  : 			}

  0003b	eb 07		 jmp	 SHORT $LN7@PrepareWri
$LN6@PrepareWri:

; 840  : 			else
; 841  : 			{
; 842  : 				// Exponential growth factor is 1.5.
; 843  : 				nNewLength = nNewLength + nNewLength / 2;

  0003d	8b c1		 mov	 eax, ecx
  0003f	99		 cdq
  00040	2b c2		 sub	 eax, edx
  00042	d1 f8		 sar	 eax, 1
$LN7@PrepareWri:

; 844  : 			}
; 845  : 			if( nNewLength < nLength )

  00044	03 c1		 add	 eax, ecx

; 846  : 			{
; 847  : 				nNewLength = nLength;
; 848  : 			}
; 849  : 			Reallocate( nNewLength );

  00046	8b cf		 mov	 ecx, edi
  00048	3b c6		 cmp	 eax, esi
  0004a	0f 4d f0	 cmovge	 esi, eax
  0004d	56		 push	 esi
  0004e	e8 00 00 00 00	 call	 ?Reallocate@?$CSimpleStringT@D$0A@@ATL@@AAEXH@Z ; ATL::CSimpleStringT<char,0>::Reallocate
$LN5@PrepareWri:

; 850  : 		}
; 851  : 	}

  00053	5f		 pop	 edi
  00054	5e		 pop	 esi
  00055	5d		 pop	 ebp
  00056	c2 04 00	 ret	 4
?PrepareWrite2@?$CSimpleStringT@D$0A@@ATL@@AAEXH@Z ENDP	; ATL::CSimpleStringT<char,0>::PrepareWrite2
_TEXT	ENDS
; Function compile flags: /Ogtp
; File C:\Program Files\Microsoft Visual Studio\2022\Professional\VC\Tools\MSVC\14.44.35207\atlmfc\include\atlsimpstr.h
; File C:\Program Files (x86)\Windows Kits\10\Include\10.0.26100.0\ucrt\corecrt_memcpy_s.h
; File C:\Program Files\Microsoft Visual Studio\2022\Professional\VC\Tools\MSVC\14.44.35207\atlmfc\include\atlsimpstr.h
;	COMDAT ?Fork@?$CSimpleStringT@D$0A@@ATL@@AAEXH@Z
_TEXT	SEGMENT
_this$1$ = -12						; size = 4
_nOldLength$1$ = -8					; size = 4
__Source$1$ = -4					; size = 4
_nLength$ = 8						; size = 4
_pNewData$1$ = 8					; size = 4
?Fork@?$CSimpleStringT@D$0A@@ATL@@AAEXH@Z PROC		; ATL::CSimpleStringT<char,0>::Fork, COMDAT
; _this$ = ecx

; 787  : 	{

  00000	55		 push	 ebp
  00001	8b ec		 mov	 ebp, esp
  00003	83 ec 0c	 sub	 esp, 12			; 0000000cH
  00006	8b c1		 mov	 eax, ecx
  00008	89 45 f4	 mov	 DWORD PTR _this$1$[ebp], eax
  0000b	53		 push	 ebx
  0000c	56		 push	 esi

; 804  : 		return( reinterpret_cast< CStringData* >( m_pszData )-1 );

  0000d	8b 00		 mov	 eax, DWORD PTR [eax]

; 790  : 		CStringData* pNewData = pOldData->pStringMgr->Clone()->Allocate( nLength, sizeof( XCHAR ) );

  0000f	8b 48 f0	 mov	 ecx, DWORD PTR [eax-16]

; 804  : 		return( reinterpret_cast< CStringData* >( m_pszData )-1 );

  00012	8d 58 f0	 lea	 ebx, DWORD PTR [eax-16]
  00015	89 45 fc	 mov	 DWORD PTR __Source$1$[ebp], eax

; 787  : 	{

  00018	57		 push	 edi

; 788  : 		CStringData* pOldData = GetData();
; 789  : 		int nOldLength = pOldData->nDataLength;

  00019	8b 7b 04	 mov	 edi, DWORD PTR [ebx+4]

; 790  : 		CStringData* pNewData = pOldData->pStringMgr->Clone()->Allocate( nLength, sizeof( XCHAR ) );

  0001c	8b 01		 mov	 eax, DWORD PTR [ecx]
  0001e	89 7d f8	 mov	 DWORD PTR _nOldLength$1$[ebp], edi
  00021	ff 50 10	 call	 DWORD PTR [eax+16]
  00024	8b 75 08	 mov	 esi, DWORD PTR _nLength$[ebp]
  00027	8b c8		 mov	 ecx, eax
  00029	6a 01		 push	 1
  0002b	56		 push	 esi
  0002c	8b 10		 mov	 edx, DWORD PTR [eax]
  0002e	ff 12		 call	 DWORD PTR [edx]
  00030	89 45 08	 mov	 DWORD PTR _pNewData$1$[ebp], eax

; 791  : 		if( pNewData == NULL )

  00033	85 c0		 test	 eax, eax
  00035	74 6c		 je	 SHORT $LN25@Fork

; 794  : 		}
; 795  : 		int nCharsToCopy = ((nOldLength < nLength) ? nOldLength : nLength)+1;  // Copy '\0'

  00037	3b fe		 cmp	 edi, esi
  00039	0f 4c f7	 cmovl	 esi, edi

; 796  : 		memcpy_s( PXSTR( pNewData->data() ), nCharsToCopy * sizeof( XCHAR ),

  0003c	8d 78 10	 lea	 edi, DWORD PTR [eax+16]
  0003f	83 c6 01	 add	 esi, 1
; File C:\Program Files (x86)\Windows Kits\10\Include\10.0.26100.0\ucrt\corecrt_memcpy_s.h

; 47   :         if (_SourceSize == 0)

  00042	74 33		 je	 SHORT $LN11@Fork

; 48   :         {
; 49   :             return 0;
; 50   :         }
; 51   : 
; 52   :         _CRT_MEMCPY_S_VALIDATE_RETURN_ERRCODE(_Destination != NULL, EINVAL);

  00044	85 ff		 test	 edi, edi
  00046	74 1f		 je	 SHORT $LN23@Fork

; 53   :         if (_Source == NULL || _DestinationSize < _SourceSize)

  00048	8b 45 fc	 mov	 eax, DWORD PTR __Source$1$[ebp]
  0004b	56		 push	 esi
  0004c	85 c0		 test	 eax, eax
  0004e	74 0c		 je	 SHORT $LN10@Fork

; 56   : 
; 57   :             _CRT_MEMCPY_S_VALIDATE_RETURN_ERRCODE(_Source != NULL,                 EINVAL);
; 58   :             _CRT_MEMCPY_S_VALIDATE_RETURN_ERRCODE(_DestinationSize >= _SourceSize, ERANGE);
; 59   : 
; 60   :             // Unreachable, but required to suppress /analyze warnings:
; 61   :             return EINVAL;
; 62   :         }
; 63   :         memcpy(_Destination, _Source, _SourceSize);

  00050	50		 push	 eax
  00051	57		 push	 edi
  00052	e8 00 00 00 00	 call	 _memcpy
  00057	83 c4 0c	 add	 esp, 12			; 0000000cH
  0005a	eb 1b		 jmp	 SHORT $LN11@Fork
$LN10@Fork:

; 54   :         {
; 55   :             memset(_Destination, 0, _DestinationSize);

  0005c	6a 00		 push	 0
  0005e	57		 push	 edi
  0005f	e8 00 00 00 00	 call	 _memset
  00064	83 c4 0c	 add	 esp, 12			; 0000000cH
$LN23@Fork:
; File C:\Program Files\Microsoft Visual Studio\2022\Professional\VC\Tools\MSVC\14.44.35207\atlmfc\include\atlsimpstr.h

; 798  : 		pNewData->nDataLength = nOldLength;

  00067	e8 00 00 00 00	 call	 __errno
  0006c	c7 00 16 00 00
	00		 mov	 DWORD PTR [eax], 22	; 00000016H
  00072	e8 00 00 00 00	 call	 __invalid_parameter_noinfo
$LN11@Fork:
  00077	8b 4d 08	 mov	 ecx, DWORD PTR _pNewData$1$[ebp]
  0007a	8b 45 f8	 mov	 eax, DWORD PTR _nOldLength$1$[ebp]
  0007d	89 41 04	 mov	 DWORD PTR [ecx+4], eax

; 92   : 		if( _InterlockedDecrement( &nRefs ) <= 0 )

  00080	83 c8 ff	 or	 eax, -1
  00083	f0 0f c1 43 0c	 lock	  xadd	 DWORD PTR [ebx+12], eax
  00088	48		 dec	 eax
  00089	85 c0		 test	 eax, eax
  0008b	7f 08		 jg	 SHORT $LN15@Fork

; 93   : 		{
; 94   : 			pStringMgr->Free( this );

  0008d	8b 0b		 mov	 ecx, DWORD PTR [ebx]
  0008f	53		 push	 ebx
  00090	8b 01		 mov	 eax, DWORD PTR [ecx]
  00092	ff 50 04	 call	 DWORD PTR [eax+4]
$LN15@Fork:

; 799  : 		pOldData->Release();
; 800  : 		Attach( pNewData );

  00095	8b 45 f4	 mov	 eax, DWORD PTR _this$1$[ebp]
  00098	89 38		 mov	 DWORD PTR [eax], edi

; 801  : 	}

  0009a	5f		 pop	 edi
  0009b	5e		 pop	 esi
  0009c	5b		 pop	 ebx
  0009d	8b e5		 mov	 esp, ebp
  0009f	5d		 pop	 ebp
  000a0	c2 04 00	 ret	 4
$LN25@Fork:

; 792  : 		{
; 793  : 			ThrowMemoryException();

  000a3	e8 00 00 00 00	 call	 ?ThrowMemoryException@?$CSimpleStringT@D$0A@@ATL@@KAXXZ ; ATL::CSimpleStringT<char,0>::ThrowMemoryException
$LN22@Fork:
  000a8	cc		 int	 3
?Fork@?$CSimpleStringT@D$0A@@ATL@@AAEXH@Z ENDP		; ATL::CSimpleStringT<char,0>::Fork
_TEXT	ENDS
; Function compile flags: /Ogtp
; File C:\Program Files\Microsoft Visual Studio\2022\Professional\VC\Tools\MSVC\14.44.35207\atlmfc\include\atlsimpstr.h
;	COMDAT ?ThrowMemoryException@?$CSimpleStringT@D$0A@@ATL@@KAXXZ
_TEXT	SEGMENT
?ThrowMemoryException@?$CSimpleStringT@D$0A@@ATL@@KAXXZ PROC ; ATL::CSimpleStringT<char,0>::ThrowMemoryException, COMDAT

; 777  : 		AtlThrow( E_OUTOFMEMORY );

  00000	68 0e 00 07 80	 push	 -2147024882		; 8007000eH
  00005	e8 00 00 00 00	 call	 ?AtlThrowImpl@ATL@@YGXJ@Z ; ATL::AtlThrowImpl
$LN3@ThrowMemor:
  0000a	cc		 int	 3
?ThrowMemoryException@?$CSimpleStringT@D$0A@@ATL@@KAXXZ ENDP ; ATL::CSimpleStringT<char,0>::ThrowMemoryException
_TEXT	ENDS
; Function compile flags: /Ogtp
; File C:\Program Files\Microsoft Visual Studio\2022\Professional\VC\Tools\MSVC\14.44.35207\atlmfc\include\atlsimpstr.h
; File C:\Program Files (x86)\Windows Kits\10\Include\10.0.26100.0\ucrt\corecrt_memcpy_s.h
; File C:\Program Files\Microsoft Visual Studio\2022\Professional\VC\Tools\MSVC\14.44.35207\atlmfc\include\atlsimpstr.h
; File C:\Program Files (x86)\Windows Kits\10\Include\10.0.26100.0\ucrt\corecrt_memcpy_s.h
; File C:\Program Files\Microsoft Visual Studio\2022\Professional\VC\Tools\MSVC\14.44.35207\atlmfc\include\atlsimpstr.h
;	COMDAT ?SetString@?$CSimpleStringT@D$0A@@ATL@@QAEXPBDH@Z
_TEXT	SEGMENT
_pszSrc$ = 8						; size = 4
_nOldLength$1$ = 8					; size = 4
_nLength$ = 12						; size = 4
_nOffset$1$ = 12					; size = 4
?SetString@?$CSimpleStringT@D$0A@@ATL@@QAEXPBDH@Z PROC	; ATL::CSimpleStringT<char,0>::SetString, COMDAT
; _this$ = ecx

; 611  : 	{

  00000	55		 push	 ebp
  00001	8b ec		 mov	 ebp, esp
  00003	56		 push	 esi

; 612  : 		if( nLength == 0 )

  00004	8b 75 0c	 mov	 esi, DWORD PTR _nLength$[ebp]
  00007	57		 push	 edi
  00008	8b f9		 mov	 edi, ecx
  0000a	85 f6		 test	 esi, esi
  0000c	75 58		 jne	 SHORT $LN2@SetString

; 804  : 		return( reinterpret_cast< CStringData* >( m_pszData )-1 );

  0000e	8b 07		 mov	 eax, DWORD PTR [edi]

; 443  : 		if( pOldData->nDataLength == 0 )

  00010	83 78 f4 00	 cmp	 DWORD PTR [eax-12], 0

; 804  : 		return( reinterpret_cast< CStringData* >( m_pszData )-1 );

  00014	8d 50 f0	 lea	 edx, DWORD PTR [eax-16]

; 442  : 		IAtlStringMgr* pStringMgr = pOldData->pStringMgr;

  00017	8b 32		 mov	 esi, DWORD PTR [edx]

; 443  : 		if( pOldData->nDataLength == 0 )

  00019	74 1f		 je	 SHORT $LN72@SetString

; 73   : 		return nRefs < 0;

  0001b	83 7a 0c 00	 cmp	 DWORD PTR [edx+12], 0
  0001f	8d 4a 0c	 lea	 ecx, DWORD PTR [edx+12]

; 448  : 		if( pOldData->IsLocked() )

  00022	7d 1c		 jge	 SHORT $LN10@SetString

; 875  : 		if( nLength < 0 || nLength > GetData()->nAllocLength)

  00024	83 78 f8 00	 cmp	 DWORD PTR [eax-8], 0
  00028	0f 8c 0b 01 00
	00		 jl	 $LN71@SetString

; 877  : 
; 878  : 		GetData()->nDataLength = nLength;

  0002e	c7 40 f4 00 00
	00 00		 mov	 DWORD PTR [eax-12], 0

; 879  : 		m_pszData[nLength] = 0;

  00035	8b 07		 mov	 eax, DWORD PTR [edi]
  00037	c6 00 00	 mov	 BYTE PTR [eax], 0
$LN72@SetString:
  0003a	5f		 pop	 edi

; 638  : 			else
; 639  : 			{
; 640  : 				memcpy_s( pszBuffer, GetAllocLength() * sizeof( XCHAR ), pszSrc, nLength * sizeof( XCHAR ));
; 641  : 			}
; 642  : 			ReleaseBufferSetLength( nLength );
; 643  : 		}
; 644  : 	}

  0003b	5e		 pop	 esi
  0003c	5d		 pop	 ebp
  0003d	c2 08 00	 ret	 8
$LN10@SetString:

; 92   : 		if( _InterlockedDecrement( &nRefs ) <= 0 )

  00040	83 c8 ff	 or	 eax, -1
  00043	f0 0f c1 01	 lock	  xadd	 DWORD PTR [ecx], eax
  00047	48		 dec	 eax
  00048	85 c0		 test	 eax, eax
  0004a	7f 08		 jg	 SHORT $LN27@SetString

; 93   : 		{
; 94   : 			pStringMgr->Free( this );

  0004c	8b 0a		 mov	 ecx, DWORD PTR [edx]
  0004e	52		 push	 edx
  0004f	8b 01		 mov	 eax, DWORD PTR [ecx]
  00051	ff 50 04	 call	 DWORD PTR [eax+4]
$LN27@SetString:

; 456  : 			CStringData* pNewData = pStringMgr->GetNilString();

  00054	8b 06		 mov	 eax, DWORD PTR [esi]
  00056	8b ce		 mov	 ecx, esi
  00058	ff 50 0c	 call	 DWORD PTR [eax+12]

; 457  : 			Attach( pNewData );

  0005b	83 c0 10	 add	 eax, 16			; 00000010H
  0005e	89 07		 mov	 DWORD PTR [edi], eax
  00060	5f		 pop	 edi

; 638  : 			else
; 639  : 			{
; 640  : 				memcpy_s( pszBuffer, GetAllocLength() * sizeof( XCHAR ), pszSrc, nLength * sizeof( XCHAR ));
; 641  : 			}
; 642  : 			ReleaseBufferSetLength( nLength );
; 643  : 		}
; 644  : 	}

  00061	5e		 pop	 esi
  00062	5d		 pop	 ebp
  00063	c2 08 00	 ret	 8
$LN2@SetString:
  00066	53		 push	 ebx

; 613  : 		{
; 614  : 			Empty();
; 615  : 		}
; 616  : 		else
; 617  : 		{
; 618  : 			// It is possible that pszSrc points to a location inside of our
; 619  : 			// buffer.  GetBuffer() might change m_pszData if (1) the buffer
; 620  : 			// is shared or (2) the buffer is too small to hold the new
; 621  : 			// string.  We detect this aliasing, and modify pszSrc to point
; 622  : 			// into the newly allocated buffer instead.
; 623  : 
; 624  : 			if(pszSrc == NULL)

  00067	8b 5d 08	 mov	 ebx, DWORD PTR _pszSrc$[ebp]
  0006a	85 db		 test	 ebx, ebx
  0006c	0f 84 c7 00 00
	00		 je	 $LN71@SetString

; 523  : 		return( GetData()->nDataLength );

  00072	8b 07		 mov	 eax, DWORD PTR [edi]

; 625  : 				AtlThrow(E_INVALIDARG);
; 626  : 
; 627  : 			UINT nOldLength = GetLength();
; 628  : 			UINT_PTR nOffset = pszSrc-GetString();

  00074	8b d3		 mov	 edx, ebx
  00076	2b d0		 sub	 edx, eax
  00078	89 55 0c	 mov	 DWORD PTR _nOffset$1$[ebp], edx
  0007b	8b 48 f4	 mov	 ecx, DWORD PTR [eax-12]
  0007e	89 4d 08	 mov	 DWORD PTR _nOldLength$1$[ebp], ecx

; 808  : 		if (nLength < 0)

  00081	85 f6		 test	 esi, esi
  00083	0f 88 b0 00 00
	00		 js	 $LN71@SetString

; 809  : 			AtlThrow(E_INVALIDARG);
; 810  : 
; 811  : 		CStringData* pOldData = GetData();
; 812  : 		int nShared = 1-pOldData->nRefs;  // nShared < 0 means true, >= 0 means false

  00089	b9 01 00 00 00	 mov	 ecx, 1
  0008e	2b 48 fc	 sub	 ecx, DWORD PTR [eax-4]

; 813  : 		int nTooShort = pOldData->nAllocLength-nLength;  // nTooShort < 0 means true, >= 0 means false

  00091	8b 40 f8	 mov	 eax, DWORD PTR [eax-8]
  00094	2b c6		 sub	 eax, esi

; 814  : 		if( (nShared|nTooShort) < 0 )  // If either sign bit is set (i.e. either is less than zero), we need to copy data

  00096	0b c8		 or	 ecx, eax
  00098	7d 0b		 jge	 SHORT $LN38@SetString

; 815  : 		{
; 816  : 			PrepareWrite2( nLength );

  0009a	56		 push	 esi
  0009b	8b cf		 mov	 ecx, edi
  0009d	e8 00 00 00 00	 call	 ?PrepareWrite2@?$CSimpleStringT@D$0A@@ATL@@AAEXH@Z ; ATL::CSimpleStringT<char,0>::PrepareWrite2
  000a2	8b 55 0c	 mov	 edx, DWORD PTR _nOffset$1$[ebp]
$LN38@SetString:

; 629  : 			// If 0 <= nOffset <= nOldLength, then pszSrc points into our
; 630  : 			// buffer
; 631  : 
; 632  : 			PXSTR pszBuffer = GetBuffer( nLength );

  000a5	8b 07		 mov	 eax, DWORD PTR [edi]
  000a7	8b 48 f8	 mov	 ecx, DWORD PTR [eax-8]

; 633  : 			if( nOffset <= nOldLength )

  000aa	3b 55 08	 cmp	 edx, DWORD PTR _nOldLength$1$[ebp]
  000ad	77 35		 ja	 SHORT $LN5@SetString

; 634  : 			{
; 635  : 				CopyCharsOverlapped( pszBuffer, GetAllocLength(),

  000af	03 d0		 add	 edx, eax
; File C:\Program Files (x86)\Windows Kits\10\Include\10.0.26100.0\ucrt\corecrt_memcpy_s.h

; 81   :         _CRT_MEMCPY_S_VALIDATE_RETURN_ERRCODE(_Destination != NULL,            EINVAL);

  000b1	85 c0		 test	 eax, eax
  000b3	75 0d		 jne	 SHORT $LN51@SetString
  000b5	e8 00 00 00 00	 call	 __errno
  000ba	c7 00 16 00 00
	00		 mov	 DWORD PTR [eax], 22	; 00000016H
  000c0	eb 5b		 jmp	 SHORT $LN97@SetString
$LN51@SetString:

; 82   :         _CRT_MEMCPY_S_VALIDATE_RETURN_ERRCODE(_Source != NULL,                 EINVAL);

  000c2	85 d2		 test	 edx, edx
  000c4	75 0d		 jne	 SHORT $LN52@SetString
  000c6	e8 00 00 00 00	 call	 __errno
  000cb	c7 00 16 00 00
	00		 mov	 DWORD PTR [eax], 22	; 00000016H
  000d1	eb 4a		 jmp	 SHORT $LN97@SetString
$LN52@SetString:

; 83   :         _CRT_MEMCPY_S_VALIDATE_RETURN_ERRCODE(_DestinationSize >= _SourceSize, ERANGE);

  000d3	3b ce		 cmp	 ecx, esi
  000d5	72 3b		 jb	 SHORT $LN98@SetString

; 84   : 
; 85   :         memmove(_Destination, _Source, _SourceSize);

  000d7	56		 push	 esi
  000d8	52		 push	 edx
  000d9	50		 push	 eax
  000da	e8 00 00 00 00	 call	 _memmove
  000df	83 c4 0c	 add	 esp, 12			; 0000000cH
; File C:\Program Files\Microsoft Visual Studio\2022\Professional\VC\Tools\MSVC\14.44.35207\atlmfc\include\atlsimpstr.h

; 637  : 			}

  000e2	eb 3e		 jmp	 SHORT $LN65@SetString
$LN5@SetString:
; File C:\Program Files (x86)\Windows Kits\10\Include\10.0.26100.0\ucrt\corecrt_memcpy_s.h

; 52   :         _CRT_MEMCPY_S_VALIDATE_RETURN_ERRCODE(_Destination != NULL, EINVAL);

  000e4	85 c0		 test	 eax, eax
  000e6	75 0d		 jne	 SHORT $LN61@SetString
  000e8	e8 00 00 00 00	 call	 __errno
  000ed	c7 00 16 00 00
	00		 mov	 DWORD PTR [eax], 22	; 00000016H
  000f3	eb 28		 jmp	 SHORT $LN97@SetString
$LN61@SetString:

; 53   :         if (_Source == NULL || _DestinationSize < _SourceSize)

  000f5	3b ce		 cmp	 ecx, esi
  000f7	72 0d		 jb	 SHORT $LN63@SetString

; 56   : 
; 57   :             _CRT_MEMCPY_S_VALIDATE_RETURN_ERRCODE(_Source != NULL,                 EINVAL);
; 58   :             _CRT_MEMCPY_S_VALIDATE_RETURN_ERRCODE(_DestinationSize >= _SourceSize, ERANGE);
; 59   : 
; 60   :             // Unreachable, but required to suppress /analyze warnings:
; 61   :             return EINVAL;
; 62   :         }
; 63   :         memcpy(_Destination, _Source, _SourceSize);

  000f9	56		 push	 esi
  000fa	53		 push	 ebx
  000fb	50		 push	 eax
  000fc	e8 00 00 00 00	 call	 _memcpy
  00101	83 c4 0c	 add	 esp, 12			; 0000000cH
  00104	eb 1c		 jmp	 SHORT $LN65@SetString
$LN63@SetString:

; 54   :         {
; 55   :             memset(_Destination, 0, _DestinationSize);

  00106	51		 push	 ecx
  00107	6a 00		 push	 0
  00109	50		 push	 eax
  0010a	e8 00 00 00 00	 call	 _memset
  0010f	83 c4 0c	 add	 esp, 12			; 0000000cH
$LN98@SetString:
; File C:\Program Files\Microsoft Visual Studio\2022\Professional\VC\Tools\MSVC\14.44.35207\atlmfc\include\atlsimpstr.h

; 875  : 		if( nLength < 0 || nLength > GetData()->nAllocLength)

  00112	e8 00 00 00 00	 call	 __errno
  00117	c7 00 22 00 00
	00		 mov	 DWORD PTR [eax], 34	; 00000022H
$LN97@SetString:
  0011d	e8 00 00 00 00	 call	 __invalid_parameter_noinfo
$LN65@SetString:
  00122	8b 07		 mov	 eax, DWORD PTR [edi]
  00124	5b		 pop	 ebx
  00125	3b 70 f8	 cmp	 esi, DWORD PTR [eax-8]
  00128	7f 0f		 jg	 SHORT $LN71@SetString

; 877  : 
; 878  : 		GetData()->nDataLength = nLength;

  0012a	89 70 f4	 mov	 DWORD PTR [eax-12], esi

; 879  : 		m_pszData[nLength] = 0;

  0012d	8b 07		 mov	 eax, DWORD PTR [edi]
  0012f	5f		 pop	 edi
  00130	c6 04 06 00	 mov	 BYTE PTR [esi+eax], 0

; 638  : 			else
; 639  : 			{
; 640  : 				memcpy_s( pszBuffer, GetAllocLength() * sizeof( XCHAR ), pszSrc, nLength * sizeof( XCHAR ));
; 641  : 			}
; 642  : 			ReleaseBufferSetLength( nLength );
; 643  : 		}
; 644  : 	}

  00134	5e		 pop	 esi
  00135	5d		 pop	 ebp
  00136	c2 08 00	 ret	 8
$LN71@SetString:

; 876  : 			AtlThrow(E_INVALIDARG);

  00139	68 57 00 07 80	 push	 -2147024809		; 80070057H
  0013e	e8 00 00 00 00	 call	 ?AtlThrowImpl@ATL@@YGXJ@Z ; ATL::AtlThrowImpl
$LN96@SetString:
  00143	cc		 int	 3
?SetString@?$CSimpleStringT@D$0A@@ATL@@QAEXPBDH@Z ENDP	; ATL::CSimpleStringT<char,0>::SetString
_TEXT	ENDS
; Function compile flags: /Ogtp
; File C:\Program Files\Microsoft Visual Studio\2022\Professional\VC\Tools\MSVC\14.44.35207\atlmfc\include\atlsimpstr.h
;	COMDAT ??1?$CSimpleStringT@D$0A@@ATL@@QAE@XZ
_TEXT	SEGMENT
??1?$CSimpleStringT@D$0A@@ATL@@QAE@XZ PROC		; ATL::CSimpleStringT<char,0>::~CSimpleStringT<char,0>, COMDAT
; _this$ = ecx

; 804  : 		return( reinterpret_cast< CStringData* >( m_pszData )-1 );

  00000	8b 11		 mov	 edx, DWORD PTR [ecx]

; 92   : 		if( _InterlockedDecrement( &nRefs ) <= 0 )

  00002	83 c8 ff	 or	 eax, -1

; 804  : 		return( reinterpret_cast< CStringData* >( m_pszData )-1 );

  00005	83 ea 10	 sub	 edx, 16			; 00000010H

; 92   : 		if( _InterlockedDecrement( &nRefs ) <= 0 )

  00008	f0 0f c1 42 0c	 lock	  xadd	 DWORD PTR [edx+12], eax
  0000d	48		 dec	 eax
  0000e	85 c0		 test	 eax, eax
  00010	7f 08		 jg	 SHORT $LN6@CSimpleStr

; 93   : 		{
; 94   : 			pStringMgr->Free( this );

  00012	8b 0a		 mov	 ecx, DWORD PTR [edx]
  00014	52		 push	 edx
  00015	8b 01		 mov	 eax, DWORD PTR [ecx]
  00017	ff 50 04	 call	 DWORD PTR [eax+4]
$LN6@CSimpleStr:

; 265  : 		CStringData* pData = GetData();
; 266  : 		pData->Release();
; 267  : 	}

  0001a	c3		 ret	 0
??1?$CSimpleStringT@D$0A@@ATL@@QAE@XZ ENDP		; ATL::CSimpleStringT<char,0>::~CSimpleStringT<char,0>
_TEXT	ENDS
; Function compile flags: /Ogtp
; File C:\Program Files\Microsoft Visual Studio\2022\Professional\VC\Tools\MSVC\14.44.35207\atlmfc\include\atlexcept.h
;	COMDAT ?AtlThrowImpl@ATL@@YGXJ@Z
_TEXT	SEGMENT
_hr$ = 8						; size = 4
?AtlThrowImpl@ATL@@YGXJ@Z PROC				; ATL::AtlThrowImpl, COMDAT

; 69   : {

  00000	55		 push	 ebp
  00001	8b ec		 mov	 ebp, esp

; 70   : 	ATLTRACE(atlTraceException, 0, _T("AtlThrow: hr = 0x%x\n"), hr );
; 71   : #ifdef _AFX
; 72   : 	if( hr == E_OUTOFMEMORY )

  00003	8b 45 08	 mov	 eax, DWORD PTR _hr$[ebp]
  00006	3d 0e 00 07 80	 cmp	 eax, -2147024882	; 8007000eH
  0000b	75 05		 jne	 SHORT $LN2@AtlThrowIm

; 73   : 	{
; 74   : 		AfxThrowMemoryException();

  0000d	e8 00 00 00 00	 call	 ?AfxThrowMemoryException@@YGXXZ ; AfxThrowMemoryException
$LN2@AtlThrowIm:

; 75   : 	}
; 76   : 	else
; 77   : 	{
; 78   : 		AfxThrowOleException( hr );

  00012	50		 push	 eax
  00013	e8 00 00 00 00	 call	 ?AfxThrowOleException@@YGXJ@Z ; AfxThrowOleException
$LN5@AtlThrowIm:
  00018	cc		 int	 3
?AtlThrowImpl@ATL@@YGXJ@Z ENDP				; ATL::AtlThrowImpl
_TEXT	ENDS
; Function compile flags: /Ogtp
; File C:\Program Files (x86)\Windows Kits\10\Include\10.0.26100.0\ucrt\corecrt_stdio_config.h
;	COMDAT ___local_stdio_printf_options
_TEXT	SEGMENT
___local_stdio_printf_options PROC			; COMDAT

; 91   :         static unsigned __int64 _OptionsStorage;
; 92   :         return &_OptionsStorage;

  00000	b8 00 00 00 00	 mov	 eax, OFFSET ?_OptionsStorage@?1??__local_stdio_printf_options@@9@4_KA ; `__local_stdio_printf_options'::`2'::_OptionsStorage

; 93   :     }

  00005	c3		 ret	 0
___local_stdio_printf_options ENDP
_TEXT	ENDS
; Function compile flags: /Ogtp
; File C:\IAGOS\server\v18\Source\Source\_Common\partyquest.cpp
;	COMDAT ?__empty_global_delete@@YAXPAXI@Z
_TEXT	SEGMENT
___formal$ = 8						; size = 4
___formal$ = 12						; size = 4
?__empty_global_delete@@YAXPAXI@Z PROC			; __empty_global_delete, COMDAT

  00000	c2 00 00	 ret	 0
?__empty_global_delete@@YAXPAXI@Z ENDP			; __empty_global_delete
_TEXT	ENDS
; Function compile flags: /Ogtp
; File C:\IAGOS\server\v18\Source\Source\_Common\partyquest.cpp
;	COMDAT ?__empty_global_delete@@YAXPAX@Z
_TEXT	SEGMENT
___formal$ = 8						; size = 4
?__empty_global_delete@@YAXPAX@Z PROC			; __empty_global_delete, COMDAT

  00000	c2 00 00	 ret	 0
?__empty_global_delete@@YAXPAX@Z ENDP			; __empty_global_delete
_TEXT	ENDS
; Function compile flags: /Ogtp
;	COMDAT ??_H@YGXPAXIIP6EPAX0@Z@Z
_TEXT	SEGMENT
___t$ = 8						; size = 4
___s$ = 12						; size = 4
___n$ = 16						; size = 4
___f$ = 20						; size = 4
??_H@YGXPAXIIP6EPAX0@Z@Z PROC				; `vector constructor iterator', COMDAT
  00000	55		 push	 ebp
  00001	8b ec		 mov	 ebp, esp
  00003	56		 push	 esi
  00004	8b 75 10	 mov	 esi, DWORD PTR ___n$[ebp]
  00007	85 f6		 test	 esi, esi
  00009	74 16		 je	 SHORT $LN6@vector
  0000b	53		 push	 ebx
  0000c	8b 5d 14	 mov	 ebx, DWORD PTR ___f$[ebp]
  0000f	57		 push	 edi
  00010	8b 7d 08	 mov	 edi, DWORD PTR ___t$[ebp]
$LL2@vector:
  00013	8b cf		 mov	 ecx, edi
  00015	ff d3		 call	 ebx
  00017	03 7d 0c	 add	 edi, DWORD PTR ___s$[ebp]
  0001a	83 ee 01	 sub	 esi, 1
  0001d	75 f4		 jne	 SHORT $LL2@vector
  0001f	5f		 pop	 edi
  00020	5b		 pop	 ebx
$LN6@vector:
  00021	5e		 pop	 esi
  00022	5d		 pop	 ebp
  00023	c2 10 00	 ret	 16			; 00000010H
??_H@YGXPAXIIP6EPAX0@Z@Z ENDP				; `vector constructor iterator'
_TEXT	ENDS
END
