; Listing generated by Microsoft (R) Optimizing Compiler Version 19.44.35225.0 

	TITLE	C:\IAGOS\server\v18\Source\Output\WorldServer\Release\party.obj
	.686P
	.XMM
	include listing.inc
	.model	flat

INCLUDELIB LIBCMT
INCLUDELIB OLDNAMES

CONST	SEGMENT
?piecewise_construct@std@@3Upiecewise_construct_t@1@B	ORG $+1 ; std::piecewise_construct
CONST	ENDS
PUBLIC	??_H@YGXPAXIIP6EPAX0@Z@Z			; `vector constructor iterator'
PUBLIC	?__empty_global_delete@@YAXPAX@Z		; __empty_global_delete
PUBLIC	?__empty_global_delete@@YAXPAXI@Z		; __empty_global_delete
PUBLIC	??0exception@std@@QAE@ABV01@@Z			; std::exception::exception
PUBLIC	??1exception@std@@UAE@XZ			; std::exception::~exception
PUBLIC	?what@exception@std@@UBEPBDXZ			; std::exception::what
PUBLIC	??_Gexception@std@@UAEPAXI@Z			; std::exception::`scalar deleting destructor'
PUBLIC	??0bad_alloc@std@@QAE@ABV01@@Z			; std::bad_alloc::bad_alloc
PUBLIC	??_Gbad_alloc@std@@UAEPAXI@Z			; std::bad_alloc::`scalar deleting destructor'
PUBLIC	??0bad_array_new_length@std@@QAE@XZ		; std::bad_array_new_length::bad_array_new_length
PUBLIC	??1bad_array_new_length@std@@UAE@XZ		; std::bad_array_new_length::~bad_array_new_length
PUBLIC	??0bad_array_new_length@std@@QAE@ABV01@@Z	; std::bad_array_new_length::bad_array_new_length
PUBLIC	??_Gbad_array_new_length@std@@UAEPAXI@Z		; std::bad_array_new_length::`scalar deleting destructor'
PUBLIC	?_Throw_bad_array_new_length@std@@YAXXZ		; std::_Throw_bad_array_new_length
PUBLIC	??1?$basic_string@DU?$char_traits@D@std@@V?$allocator@D@2@@std@@QAE@XZ ; std::basic_string<char,std::char_traits<char>,std::allocator<char> >::~basic_string<char,std::char_traits<char>,std::allocator<char> >
PUBLIC	?_Throw_tree_length_error@std@@YAXXZ		; std::_Throw_tree_length_error
PUBLIC	??0D3DXVECTOR3@@QAE@XZ				; D3DXVECTOR3::D3DXVECTOR3
PUBLIC	??$_Allocate_manually_vector_aligned@U_Default_allocate_traits@std@@@std@@YAPAXI@Z ; std::_Allocate_manually_vector_aligned<std::_Default_allocate_traits>
PUBLIC	??0_PartyMember@@QAE@XZ				; _PartyMember::_PartyMember
PUBLIC	??0CParty@@QAE@XZ				; CParty::CParty
PUBLIC	??1CParty@@QAE@XZ				; CParty::~CParty
PUBLIC	?InitParty@CParty@@QAEXXZ			; CParty::InitParty
PUBLIC	?GetLeader@CParty@@QAEPAVCMover@@XZ		; CParty::GetLeader
PUBLIC	?NewMember@CParty@@QAEHK@Z			; CParty::NewMember
PUBLIC	?DeleteMember@CParty@@QAEHK@Z			; CParty::DeleteMember
PUBLIC	?ChangeLeader@CParty@@QAEXK@Z			; CParty::ChangeLeader
PUBLIC	?Serialize@CParty@@QAEXAAVCAr@@@Z		; CParty::Serialize
PUBLIC	?SwapPartyMember@CParty@@QAEXHH@Z		; CParty::SwapPartyMember
PUBLIC	?GetPartyModeTime@CParty@@QAEHH@Z		; CParty::GetPartyModeTime
PUBLIC	?SetPartyMode@CParty@@QAEXHKH@Z			; CParty::SetPartyMode
PUBLIC	?DoUsePartySkill@CParty@@QAEXKKH@Z		; CParty::DoUsePartySkill
PUBLIC	?SetPartyLevel@CParty@@QAEXPAVCUser@@KKK@Z	; CParty::SetPartyLevel
PUBLIC	?DoDuelPartyStart@CParty@@QAEXPAV1@@Z		; CParty::DoDuelPartyStart
PUBLIC	?DoDuelResult@CParty@@QAEXPAV1@HHM@Z		; CParty::DoDuelResult
PUBLIC	?DoUsePartyReCall@CParty@@QAEXKKH@Z		; CParty::DoUsePartyReCall
PUBLIC	?Replace@CParty@@QAEXKAAUD3DXVECTOR3@@H@Z	; CParty::Replace
PUBLIC	?Replace@CParty@@QAEXKPBD@Z			; CParty::Replace
PUBLIC	?ReplaceChkLv@CParty@@QAEHH@Z			; CParty::ReplaceChkLv
PUBLIC	?ReplaceLodestar@CParty@@QAEXABVCRect@@@Z	; CParty::ReplaceLodestar
PUBLIC	?DoDuelPartyCancel@CParty@@QAEXPAV1@@Z		; CParty::DoDuelPartyCancel
PUBLIC	?GetPoint@CParty@@QAEXHHH@Z			; CParty::GetPoint
PUBLIC	?FindMember@CParty@@QAEHK@Z			; CParty::FindMember
PUBLIC	??1?$_Tree@V?$_Tmap_traits@KPAVCParty@@U?$less@K@std@@V?$allocator@U?$pair@$$CBKPAVCParty@@@std@@@3@$0A@@std@@@std@@QAE@XZ ; std::_Tree<std::_Tmap_traits<unsigned long,CParty *,std::less<unsigned long>,std::allocator<std::pair<unsigned long const ,CParty *> >,0> >::~_Tree<std::_Tmap_traits<unsigned long,CParty *,std::less<unsigned long>,std::allocator<std::pair<unsigned long const ,CParty *> >,0> >
PUBLIC	?clear@?$_Tree@V?$_Tmap_traits@KPAVCParty@@U?$less@K@std@@V?$allocator@U?$pair@$$CBKPAVCParty@@@std@@@3@$0A@@std@@@std@@QAEXXZ ; std::_Tree<std::_Tmap_traits<unsigned long,CParty *,std::less<unsigned long>,std::allocator<std::pair<unsigned long const ,CParty *> >,0> >::clear
PUBLIC	?_Lrotate@?$_Tree_val@U?$_Tree_simple_types@U?$pair@$$CBKPAVCParty@@@std@@@std@@@std@@QAEXPAU?$_Tree_node@U?$pair@$$CBKPAVCParty@@@std@@PAX@2@@Z ; std::_Tree_val<std::_Tree_simple_types<std::pair<unsigned long const ,CParty *> > >::_Lrotate
PUBLIC	?_Rrotate@?$_Tree_val@U?$_Tree_simple_types@U?$pair@$$CBKPAVCParty@@@std@@@std@@@std@@QAEXPAU?$_Tree_node@U?$pair@$$CBKPAVCParty@@@std@@PAX@2@@Z ; std::_Tree_val<std::_Tree_simple_types<std::pair<unsigned long const ,CParty *> > >::_Rrotate
PUBLIC	?_Extract@?$_Tree_val@U?$_Tree_simple_types@U?$pair@$$CBKPAVCParty@@@std@@@std@@@std@@QAEPAU?$_Tree_node@U?$pair@$$CBKPAVCParty@@@std@@PAX@2@V?$_Tree_unchecked_const_iterator@V?$_Tree_val@U?$_Tree_simple_types@U?$pair@$$CBKPAVCParty@@@std@@@std@@@std@@U_Iterator_base0@2@@2@@Z ; std::_Tree_val<std::_Tree_simple_types<std::pair<unsigned long const ,CParty *> > >::_Extract
PUBLIC	?_Insert_node@?$_Tree_val@U?$_Tree_simple_types@U?$pair@$$CBKPAVCParty@@@std@@@std@@@std@@QAEPAU?$_Tree_node@U?$pair@$$CBKPAVCParty@@@std@@PAX@2@U?$_Tree_id@PAU?$_Tree_node@U?$pair@$$CBKPAVCParty@@@std@@PAX@std@@@2@QAU32@@Z ; std::_Tree_val<std::_Tree_simple_types<std::pair<unsigned long const ,CParty *> > >::_Insert_node
PUBLIC	??1?$map@KPAVCParty@@U?$less@K@std@@V?$allocator@U?$pair@$$CBKPAVCParty@@@std@@@3@@std@@QAE@XZ ; std::map<unsigned long,CParty *,std::less<unsigned long>,std::allocator<std::pair<unsigned long const ,CParty *> > >::~map<unsigned long,CParty *,std::less<unsigned long>,std::allocator<std::pair<unsigned long const ,CParty *> > >
PUBLIC	??1?$map@KV?$basic_string@DU?$char_traits@D@std@@V?$allocator@D@2@@std@@U?$less@K@2@V?$allocator@U?$pair@$$CBKV?$basic_string@DU?$char_traits@D@std@@V?$allocator@D@2@@std@@@std@@@2@@std@@QAE@XZ ; std::map<unsigned long,std::basic_string<char,std::char_traits<char>,std::allocator<char> >,std::less<unsigned long>,std::allocator<std::pair<unsigned long const ,std::basic_string<char,std::char_traits<char>,std::allocator<char> > > > >::~map<unsigned long,std::basic_string<char,std::char_traits<char>,std::allocator<char> >,std::less<unsigned long>,std::allocator<std::pair<unsigned long const ,std::basic_string<char,std::char_traits<char>,std::allocator<char> > > > >
PUBLIC	??0CPartyMng@@QAE@XZ				; CPartyMng::CPartyMng
PUBLIC	??1CPartyMng@@QAE@XZ				; CPartyMng::~CPartyMng
PUBLIC	?Clear@CPartyMng@@QAEXXZ			; CPartyMng::Clear
PUBLIC	?NewParty@CPartyMng@@QAEKKJJEPADKJJE0K@Z	; CPartyMng::NewParty
PUBLIC	?DeleteParty@CPartyMng@@QAEHK@Z			; CPartyMng::DeleteParty
PUBLIC	?GetParty@CPartyMng@@QAEPAVCParty@@K@Z		; CPartyMng::GetParty
PUBLIC	?Serialize@CPartyMng@@QAEXAAVCAr@@@Z		; CPartyMng::Serialize
PUBLIC	?PartyMapInfo@CPartyMng@@QAEXXZ			; CPartyMng::PartyMapInfo
PUBLIC	??$?6H@CAr@@QAEAAV0@ABH@Z			; CAr::operator<<<int>
PUBLIC	??$?5H@CAr@@QAEAAV0@AAH@Z			; CAr::operator>><int>
PUBLIC	??$?6K@CAr@@QAEAAV0@ABK@Z			; CAr::operator<<<unsigned long>
PUBLIC	??$?6J@CAr@@QAEAAV0@ABJ@Z			; CAr::operator<<<long>
PUBLIC	??$?5K@CAr@@QAEAAV0@AAK@Z			; CAr::operator>><unsigned long>
PUBLIC	??$?5J@CAr@@QAEAAV0@AAJ@Z			; CAr::operator>><long>
PUBLIC	??E?$_Tree_unchecked_const_iterator@V?$_Tree_val@U?$_Tree_simple_types@U?$pair@$$CBKPAVCParty@@@std@@@std@@@std@@U_Iterator_base0@2@@std@@QAEAAV01@XZ ; std::_Tree_unchecked_const_iterator<std::_Tree_val<std::_Tree_simple_types<std::pair<unsigned long const ,CParty *> > >,std::_Iterator_base0>::operator++
PUBLIC	??$insert@$0A@$0A@@?$_Tree@V?$_Tmap_traits@KPAVCParty@@U?$less@K@std@@V?$allocator@U?$pair@$$CBKPAVCParty@@@std@@@3@$0A@@std@@@std@@QAE?AU?$pair@V?$_Tree_iterator@V?$_Tree_val@U?$_Tree_simple_types@U?$pair@$$CBKPAVCParty@@@std@@@std@@@std@@@std@@_N@1@$$QAU?$pair@$$CBKPAVCParty@@@1@@Z ; std::_Tree<std::_Tmap_traits<unsigned long,CParty *,std::less<unsigned long>,std::allocator<std::pair<unsigned long const ,CParty *> >,0> >::insert<0,0>
PUBLIC	??$_Erase_tree@V?$allocator@U?$_Tree_node@U?$pair@$$CBKPAVCParty@@@std@@PAX@std@@@std@@@?$_Tree_val@U?$_Tree_simple_types@U?$pair@$$CBKPAVCParty@@@std@@@std@@@std@@QAEXAAV?$allocator@U?$_Tree_node@U?$pair@$$CBKPAVCParty@@@std@@PAX@std@@@1@PAU?$_Tree_node@U?$pair@$$CBKPAVCParty@@@std@@PAX@1@@Z ; std::_Tree_val<std::_Tree_simple_types<std::pair<unsigned long const ,CParty *> > >::_Erase_tree<std::allocator<std::_Tree_node<std::pair<unsigned long const ,CParty *>,void *> > >
PUBLIC	??$_Find_lower_bound@K@?$_Tree@V?$_Tmap_traits@KPAVCParty@@U?$less@K@std@@V?$allocator@U?$pair@$$CBKPAVCParty@@@std@@@3@$0A@@std@@@std@@IBE?AU?$_Tree_find_result@PAU?$_Tree_node@U?$pair@$$CBKPAVCParty@@@std@@PAX@std@@@1@ABK@Z ; std::_Tree<std::_Tmap_traits<unsigned long,CParty *,std::less<unsigned long>,std::allocator<std::pair<unsigned long const ,CParty *> >,0> >::_Find_lower_bound<unsigned long>
PUBLIC	??1?$_Alloc_construct_ptr@V?$allocator@U?$_Tree_node@U?$pair@$$CBKPAVCParty@@@std@@PAX@std@@@std@@@std@@QAE@XZ ; std::_Alloc_construct_ptr<std::allocator<std::_Tree_node<std::pair<unsigned long const ,CParty *>,void *> > >::~_Alloc_construct_ptr<std::allocator<std::_Tree_node<std::pair<unsigned long const ,CParty *>,void *> > >
PUBLIC	??$_Erase_tree@V?$allocator@U?$_Tree_node@U?$pair@$$CBKV?$basic_string@DU?$char_traits@D@std@@V?$allocator@D@2@@std@@@std@@PAX@std@@@std@@@?$_Tree_val@U?$_Tree_simple_types@U?$pair@$$CBKV?$basic_string@DU?$char_traits@D@std@@V?$allocator@D@2@@std@@@std@@@std@@@std@@QAEXAAV?$allocator@U?$_Tree_node@U?$pair@$$CBKV?$basic_string@DU?$char_traits@D@std@@V?$allocator@D@2@@std@@@std@@PAX@std@@@1@PAU?$_Tree_node@U?$pair@$$CBKV?$basic_string@DU?$char_traits@D@std@@V?$allocator@D@2@@std@@@std@@PAX@1@@Z ; std::_Tree_val<std::_Tree_simple_types<std::pair<unsigned long const ,std::basic_string<char,std::char_traits<char>,std::allocator<char> > > > >::_Erase_tree<std::allocator<std::_Tree_node<std::pair<unsigned long const ,std::basic_string<char,std::char_traits<char>,std::allocator<char> > >,void *> > >
PUBLIC	??$_Erase_tree@V?$allocator@U?$_Tree_node@U?$pair@$$CBV?$basic_string@DU?$char_traits@D@std@@V?$allocator@D@2@@std@@K@std@@PAX@std@@@std@@@?$_Tree_val@U?$_Tree_simple_types@U?$pair@$$CBV?$basic_string@DU?$char_traits@D@std@@V?$allocator@D@2@@std@@K@std@@@std@@@std@@QAEXAAV?$allocator@U?$_Tree_node@U?$pair@$$CBV?$basic_string@DU?$char_traits@D@std@@V?$allocator@D@2@@std@@K@std@@PAX@std@@@1@PAU?$_Tree_node@U?$pair@$$CBV?$basic_string@DU?$char_traits@D@std@@V?$allocator@D@2@@std@@K@std@@PAX@1@@Z ; std::_Tree_val<std::_Tree_simple_types<std::pair<std::basic_string<char,std::char_traits<char>,std::allocator<char> > const ,unsigned long> > >::_Erase_tree<std::allocator<std::_Tree_node<std::pair<std::basic_string<char,std::char_traits<char>,std::allocator<char> > const ,unsigned long>,void *> > >
PUBLIC	??_C@_02DPKJAMEF@?$CFd@				; `string'
PUBLIC	??_7exception@std@@6B@				; std::exception::`vftable'
PUBLIC	??_C@_0BC@EOODALEL@Unknown?5exception@		; `string'
PUBLIC	??_7bad_alloc@std@@6B@				; std::bad_alloc::`vftable'
PUBLIC	??_7bad_array_new_length@std@@6B@		; std::bad_array_new_length::`vftable'
PUBLIC	??_C@_0BF@KINCDENJ@bad?5array?5new?5length@	; `string'
PUBLIC	??_R0?AVexception@std@@@8			; std::exception `RTTI Type Descriptor'
PUBLIC	__CT??_R0?AVexception@std@@@8??0exception@std@@QAE@ABV01@@Z12
PUBLIC	__TI3?AVbad_array_new_length@std@@
PUBLIC	__CTA3?AVbad_array_new_length@std@@
PUBLIC	??_R0?AVbad_array_new_length@std@@@8		; std::bad_array_new_length `RTTI Type Descriptor'
PUBLIC	__CT??_R0?AVbad_array_new_length@std@@@8??0bad_array_new_length@std@@QAE@ABV01@@Z12
PUBLIC	??_R0?AVbad_alloc@std@@@8			; std::bad_alloc `RTTI Type Descriptor'
PUBLIC	__CT??_R0?AVbad_alloc@std@@@8??0bad_alloc@std@@QAE@ABV01@@Z12
PUBLIC	??_C@_0BB@GCADKGJO@map?1set?5too?5long@		; `string'
PUBLIC	??_R4exception@std@@6B@				; std::exception::`RTTI Complete Object Locator'
PUBLIC	??_R3exception@std@@8				; std::exception::`RTTI Class Hierarchy Descriptor'
PUBLIC	??_R2exception@std@@8				; std::exception::`RTTI Base Class Array'
PUBLIC	??_R1A@?0A@EA@exception@std@@8			; std::exception::`RTTI Base Class Descriptor at (0,-1,0,64)'
PUBLIC	??_R4bad_array_new_length@std@@6B@		; std::bad_array_new_length::`RTTI Complete Object Locator'
PUBLIC	??_R3bad_array_new_length@std@@8		; std::bad_array_new_length::`RTTI Class Hierarchy Descriptor'
PUBLIC	??_R2bad_array_new_length@std@@8		; std::bad_array_new_length::`RTTI Base Class Array'
PUBLIC	??_R1A@?0A@EA@bad_array_new_length@std@@8	; std::bad_array_new_length::`RTTI Base Class Descriptor at (0,-1,0,64)'
PUBLIC	??_R1A@?0A@EA@bad_alloc@std@@8			; std::bad_alloc::`RTTI Base Class Descriptor at (0,-1,0,64)'
PUBLIC	??_R3bad_alloc@std@@8				; std::bad_alloc::`RTTI Class Hierarchy Descriptor'
PUBLIC	??_R2bad_alloc@std@@8				; std::bad_alloc::`RTTI Base Class Array'
PUBLIC	??_R4bad_alloc@std@@6B@				; std::bad_alloc::`RTTI Complete Object Locator'
PUBLIC	?g_Party@@3VCParty@@A				; g_Party
PUBLIC	??_C@_0BC@IAKEEIFL@Error?5Party?5PVP?51@	; `string'
PUBLIC	??_C@_0DK@NMCIPFLI@CParty?3?3DoDuelPartyCancel?5?3?5?F?D?F@ ; `string'
PUBLIC	??_C@_0DE@IHABOFNN@CPartyMng?3?3DeleteParty?5?3?5?$LL?s?$LE?k?F?D@ ; `string'
PUBLIC	?g_PartyMng@@3VCPartyMng@@A			; g_PartyMng
PUBLIC	__real@42c80000
PUBLIC	__real@44800000
EXTRN	??2@YAPAXI@Z:PROC				; operator new
EXTRN	??3@YAXPAXI@Z:PROC				; operator delete
EXTRN	_atexit:PROC
EXTRN	__invoke_watson:PROC
EXTRN	__imp__PtInRect@12:PROC
EXTRN	__time64:PROC
EXTRN	___std_exception_copy:PROC
EXTRN	___std_exception_destroy:PROC
EXTRN	??_Eexception@std@@UAEPAXI@Z:PROC		; std::exception::`vector deleting destructor'
EXTRN	??_Ebad_alloc@std@@UAEPAXI@Z:PROC		; std::bad_alloc::`vector deleting destructor'
EXTRN	??_Ebad_array_new_length@std@@UAEPAXI@Z:PROC	; std::bad_array_new_length::`vector deleting destructor'
EXTRN	?_Xlength_error@std@@YAXPBD@Z:PROC		; std::_Xlength_error
EXTRN	?Error@@YAPBDPBDZZ:PROC				; Error
EXTRN	?IsNearPC@CCtrl@@QAEHPAVCUser@@@Z:PROC		; CCtrl::IsNearPC
EXTRN	?GetMover@CProject@@QAEPAVCMover@@K@Z:PROC	; CProject::GetMover
EXTRN	?CheckBuf@CAr@@QAEXI@Z:PROC			; CAr::CheckBuf
EXTRN	?WriteString@CAr@@QAEXPBD@Z:PROC		; CAr::WriteString
EXTRN	?ReadString@CAr@@QAEPADPADH@Z:PROC		; CAr::ReadString
EXTRN	?GetBuffer@CAr@@QAEPAEPAH@Z:PROC		; CAr::GetBuffer
EXTRN	?RemoveBuffs@CBuffMgr@@QAEXKK@Z:PROC		; CBuffMgr::RemoveBuffs
EXTRN	?HasBuff@CMover@@QAEHGG@Z:PROC			; CMover::HasBuff
EXTRN	?ClearDuelParty@CMover@@QAEXXZ:PROC		; CMover::ClearDuelParty
EXTRN	?GetName@CMover@@QAEPBDH@Z:PROC			; CMover::GetName
EXTRN	?Replace@CMover@@QAEHKKAAUD3DXVECTOR3@@W4REPLACE_TYPE@@H@Z:PROC ; CMover::Replace
EXTRN	?GetRevivalPos@CWorldMng@@QAEPAUREGIONELEM@@KPBD@Z:PROC ; CWorldMng::GetRevivalPos
EXTRN	?GetNearRevivalPos@CWorldMng@@QAEPAUREGIONELEM@@KAAUD3DXVECTOR3@@@Z:PROC ; CWorldMng::GetNearRevivalPos
EXTRN	?GetInstance@CPlayerDataCenter@@SAPAV1@XZ:PROC	; CPlayerDataCenter::GetInstance
EXTRN	?GetPlayerString@CPlayerDataCenter@@QAEPBDK@Z:PROC ; CPlayerDataCenter::GetPlayerString
EXTRN	?AddHdr@CUser@@QAEXKG@Z:PROC			; CUser::AddHdr
EXTRN	?AddDefinedText@CUser@@QAAXHPBDZZ:PROC		; CUser::AddDefinedText
EXTRN	?AddSendErrorParty@CUser@@QAEXKK@Z:PROC		; CUser::AddSendErrorParty
EXTRN	?AddPartySkillCall@CUser@@QAEXABUD3DXVECTOR3@@@Z:PROC ; CUser::AddPartySkillCall
EXTRN	?AddPartySkillBlitz@CUser@@QAEXK@Z:PROC		; CUser::AddPartySkillBlitz
EXTRN	?AddDuelPartyStart@CUser@@QAEXPBDHPAKKH@Z:PROC	; CUser::AddDuelPartyStart
EXTRN	?AddDuelPartyCancel@CUser@@QAEXPAVCParty@@@Z:PROC ; CUser::AddDuelPartyCancel
EXTRN	?AddDuelPartyResult@CUser@@QAEXPAVCParty@@H@Z:PROC ; CUser::AddDuelPartyResult
EXTRN	?AddPartyMapInfo@CUser@@QAEXHUD3DXVECTOR3@@@Z:PROC ; CUser::AddPartyMapInfo
EXTRN	?GetUserByPlayerID@CUserMng@@QAEPAVCUser@@K@Z:PROC ; CUserMng::GetUserByPlayerID
EXTRN	?AddSetFame@CUserMng@@QAEXPAVCMover@@H@Z:PROC	; CUserMng::AddSetFame
EXTRN	?DestroyAllDungeonByDungeonID@CInstanceDungeonBase@@QAEXK@Z:PROC ; CInstanceDungeonBase::DestroyAllDungeonByDungeonID
EXTRN	?SendUserPartySkill@CDPCoreClient@@QAEXKHKHH@Z:PROC ; CDPCoreClient::SendUserPartySkill
EXTRN	?SendSummonPlayer@CDPCoreClient@@QAEXKKABUD3DXVECTOR3@@KH@Z:PROC ; CDPCoreClient::SendSummonPlayer
EXTRN	?SendPartyLevel@CDPCoreClient@@QAEXPAVCUser@@KKK@Z:PROC ; CDPCoreClient::SendPartyLevel
EXTRN	?SendAddPartyExp@CDPCoreClient@@QAEXKHHH@Z:PROC	; CDPCoreClient::SendAddPartyExp
EXTRN	?SendRemovePartyPoint@CDPCoreClient@@QAEXKH@Z:PROC ; CDPCoreClient::SendRemovePartyPoint
EXTRN	?SendSetPartyDuel@CDPCoreClient@@QAEXKKH@Z:PROC	; CDPCoreClient::SendSetPartyDuel
EXTRN	?SendLogPkPvp@CDPDatabaseClient@@QAEXPAVCMover@@0HD@Z:PROC ; CDPDatabaseClient::SendLogPkPvp
EXTRN	?Instance@CSLord@@SAPAV1@XZ:PROC		; CSLord::Instance
EXTRN	?GetInstance@CColosseumMng@@SAPAV1@XZ:PROC	; CColosseumMng::GetInstance
EXTRN	?DestroyMatch@CColosseumMng@@QAEXK@Z:PROC	; CColosseumMng::DestroyMatch
EXTRN	?GetInstance@CInstanceDungeonParty@@SAPAV1@XZ:PROC ; CInstanceDungeonParty::GetInstance
EXTRN	?SetPartyLeaveTime@CInstanceDungeonParty@@QAEHK@Z:PROC ; CInstanceDungeonParty::SetPartyLeaveTime
EXTRN	@__security_check_cookie@4:PROC
EXTRN	__CxxThrowException@8:PROC
EXTRN	___CxxFrameHandler3:PROC
EXTRN	_memset:PROC
EXTRN	??_7type_info@@6B@:QWORD			; type_info::`vftable'
EXTRN	?prj@@3VCProject@@A:BYTE			; prj
EXTRN	?g_uIdofMulti@@3KA:DWORD			; g_uIdofMulti
EXTRN	?g_UserMng@@3VCUserMng@@A:BYTE			; g_UserMng
EXTRN	?g_WorldMng@@3VCWorldMng@@A:BYTE		; g_WorldMng
EXTRN	?g_DPCoreClient@@3VCDPCoreClient@@A:BYTE	; g_DPCoreClient
EXTRN	?g_dpDBClient@@3VCDPDatabaseClient@@A:BYTE	; g_dpDBClient
EXTRN	___security_cookie:DWORD
EXTRN	__fltused:DWORD
_BSS	SEGMENT
?g_Party@@3VCParty@@A DB 020cH DUP (?)			; g_Party
?g_PartyMng@@3VCPartyMng@@A DB 020H DUP (?)		; g_PartyMng
_BSS	ENDS
CRT$XCU	SEGMENT
?g_Party$initializer$@@3P6AXXZA DD FLAT:??__Eg_Party@@YAXXZ ; g_Party$initializer$
CRT$XCU	ENDS
;	COMDAT __real@44800000
CONST	SEGMENT
__real@44800000 DD 044800000r			; 1024
CONST	ENDS
;	COMDAT __real@42c80000
CONST	SEGMENT
__real@42c80000 DD 042c80000r			; 100
CONST	ENDS
;	COMDAT ??_C@_0DE@IHABOFNN@CPartyMng?3?3DeleteParty?5?3?5?$LL?s?$LE?k?F?D@
CONST	SEGMENT
??_C@_0DE@IHABOFNN@CPartyMng?3?3DeleteParty?5?3?5?$LL?s?$LE?k?F?D@ DB 'CP'
	DB	'artyMng::DeleteParty : ', 0bbH, 0f3H, 0b4H, 0ebH, 0c6H, 0c4H, 0c6H
	DB	0bcH, 0b8H, 0a6H, ' ', 0c3H, 0a3H, 0c0H, 0bbH, ' ', 0bcH, 0f6H
	DB	' ', 0beH, 0f8H, 0c0H, 0bdH, ' %d', 00H	; `string'
CONST	ENDS
;	COMDAT ??_C@_0DK@NMCIPFLI@CParty?3?3DoDuelPartyCancel?5?3?5?F?D?F@
CONST	SEGMENT
??_C@_0DK@NMCIPFLI@CParty?3?3DoDuelPartyCancel?5?3?5?F?D?F@ DB 'CParty::D'
	DB	'oDuelPartyCancel : ', 0c6H, 0c4H, 0c6H, 0bcH, 0b8H, 0e2H, 0b9H
	DB	0f6H, ' %s', 0c0H, 0c7H, ' ', 0c1H, 0a4H, 0baH, 0b8H, 0c0H, 0ccH
	DB	0bbH, 0f3H, '. %d %d', 00H			; `string'
CONST	ENDS
;	COMDAT ??_C@_0BC@IAKEEIFL@Error?5Party?5PVP?51@
CONST	SEGMENT
??_C@_0BC@IAKEEIFL@Error?5Party?5PVP?51@ DB 'Error Party PVP 1', 00H ; `string'
CONST	ENDS
;	COMDAT ??_R4bad_alloc@std@@6B@
rdata$r	SEGMENT
??_R4bad_alloc@std@@6B@ DD 00H				; std::bad_alloc::`RTTI Complete Object Locator'
	DD	00H
	DD	00H
	DD	FLAT:??_R0?AVbad_alloc@std@@@8
	DD	FLAT:??_R3bad_alloc@std@@8
rdata$r	ENDS
;	COMDAT ??_R2bad_alloc@std@@8
rdata$r	SEGMENT
??_R2bad_alloc@std@@8 DD FLAT:??_R1A@?0A@EA@bad_alloc@std@@8 ; std::bad_alloc::`RTTI Base Class Array'
	DD	FLAT:??_R1A@?0A@EA@exception@std@@8
rdata$r	ENDS
;	COMDAT ??_R3bad_alloc@std@@8
rdata$r	SEGMENT
??_R3bad_alloc@std@@8 DD 00H				; std::bad_alloc::`RTTI Class Hierarchy Descriptor'
	DD	00H
	DD	02H
	DD	FLAT:??_R2bad_alloc@std@@8
rdata$r	ENDS
;	COMDAT ??_R1A@?0A@EA@bad_alloc@std@@8
rdata$r	SEGMENT
??_R1A@?0A@EA@bad_alloc@std@@8 DD FLAT:??_R0?AVbad_alloc@std@@@8 ; std::bad_alloc::`RTTI Base Class Descriptor at (0,-1,0,64)'
	DD	01H
	DD	00H
	DD	0ffffffffH
	DD	00H
	DD	040H
	DD	FLAT:??_R3bad_alloc@std@@8
rdata$r	ENDS
;	COMDAT ??_R1A@?0A@EA@bad_array_new_length@std@@8
rdata$r	SEGMENT
??_R1A@?0A@EA@bad_array_new_length@std@@8 DD FLAT:??_R0?AVbad_array_new_length@std@@@8 ; std::bad_array_new_length::`RTTI Base Class Descriptor at (0,-1,0,64)'
	DD	02H
	DD	00H
	DD	0ffffffffH
	DD	00H
	DD	040H
	DD	FLAT:??_R3bad_array_new_length@std@@8
rdata$r	ENDS
;	COMDAT ??_R2bad_array_new_length@std@@8
rdata$r	SEGMENT
??_R2bad_array_new_length@std@@8 DD FLAT:??_R1A@?0A@EA@bad_array_new_length@std@@8 ; std::bad_array_new_length::`RTTI Base Class Array'
	DD	FLAT:??_R1A@?0A@EA@bad_alloc@std@@8
	DD	FLAT:??_R1A@?0A@EA@exception@std@@8
rdata$r	ENDS
;	COMDAT ??_R3bad_array_new_length@std@@8
rdata$r	SEGMENT
??_R3bad_array_new_length@std@@8 DD 00H			; std::bad_array_new_length::`RTTI Class Hierarchy Descriptor'
	DD	00H
	DD	03H
	DD	FLAT:??_R2bad_array_new_length@std@@8
rdata$r	ENDS
;	COMDAT ??_R4bad_array_new_length@std@@6B@
rdata$r	SEGMENT
??_R4bad_array_new_length@std@@6B@ DD 00H		; std::bad_array_new_length::`RTTI Complete Object Locator'
	DD	00H
	DD	00H
	DD	FLAT:??_R0?AVbad_array_new_length@std@@@8
	DD	FLAT:??_R3bad_array_new_length@std@@8
rdata$r	ENDS
;	COMDAT ??_R1A@?0A@EA@exception@std@@8
rdata$r	SEGMENT
??_R1A@?0A@EA@exception@std@@8 DD FLAT:??_R0?AVexception@std@@@8 ; std::exception::`RTTI Base Class Descriptor at (0,-1,0,64)'
	DD	00H
	DD	00H
	DD	0ffffffffH
	DD	00H
	DD	040H
	DD	FLAT:??_R3exception@std@@8
rdata$r	ENDS
;	COMDAT ??_R2exception@std@@8
rdata$r	SEGMENT
??_R2exception@std@@8 DD FLAT:??_R1A@?0A@EA@exception@std@@8 ; std::exception::`RTTI Base Class Array'
rdata$r	ENDS
;	COMDAT ??_R3exception@std@@8
rdata$r	SEGMENT
??_R3exception@std@@8 DD 00H				; std::exception::`RTTI Class Hierarchy Descriptor'
	DD	00H
	DD	01H
	DD	FLAT:??_R2exception@std@@8
rdata$r	ENDS
;	COMDAT ??_R4exception@std@@6B@
rdata$r	SEGMENT
??_R4exception@std@@6B@ DD 00H				; std::exception::`RTTI Complete Object Locator'
	DD	00H
	DD	00H
	DD	FLAT:??_R0?AVexception@std@@@8
	DD	FLAT:??_R3exception@std@@8
rdata$r	ENDS
;	COMDAT ??_C@_0BB@GCADKGJO@map?1set?5too?5long@
CONST	SEGMENT
??_C@_0BB@GCADKGJO@map?1set?5too?5long@ DB 'map/set too long', 00H ; `string'
CONST	ENDS
;	COMDAT __CT??_R0?AVbad_alloc@std@@@8??0bad_alloc@std@@QAE@ABV01@@Z12
xdata$x	SEGMENT
__CT??_R0?AVbad_alloc@std@@@8??0bad_alloc@std@@QAE@ABV01@@Z12 DD 010H
	DD	FLAT:??_R0?AVbad_alloc@std@@@8
	DD	00H
	DD	0ffffffffH
	ORG $+4
	DD	0cH
	DD	FLAT:??0bad_alloc@std@@QAE@ABV01@@Z
xdata$x	ENDS
;	COMDAT ??_R0?AVbad_alloc@std@@@8
data$r	SEGMENT
??_R0?AVbad_alloc@std@@@8 DD FLAT:??_7type_info@@6B@	; std::bad_alloc `RTTI Type Descriptor'
	DD	00H
	DB	'.?AVbad_alloc@std@@', 00H
data$r	ENDS
;	COMDAT __CT??_R0?AVbad_array_new_length@std@@@8??0bad_array_new_length@std@@QAE@ABV01@@Z12
xdata$x	SEGMENT
__CT??_R0?AVbad_array_new_length@std@@@8??0bad_array_new_length@std@@QAE@ABV01@@Z12 DD 00H
	DD	FLAT:??_R0?AVbad_array_new_length@std@@@8
	DD	00H
	DD	0ffffffffH
	ORG $+4
	DD	0cH
	DD	FLAT:??0bad_array_new_length@std@@QAE@ABV01@@Z
xdata$x	ENDS
;	COMDAT ??_R0?AVbad_array_new_length@std@@@8
data$r	SEGMENT
??_R0?AVbad_array_new_length@std@@@8 DD FLAT:??_7type_info@@6B@ ; std::bad_array_new_length `RTTI Type Descriptor'
	DD	00H
	DB	'.?AVbad_array_new_length@std@@', 00H
data$r	ENDS
;	COMDAT __CTA3?AVbad_array_new_length@std@@
xdata$x	SEGMENT
__CTA3?AVbad_array_new_length@std@@ DD 03H
	DD	FLAT:__CT??_R0?AVbad_array_new_length@std@@@8??0bad_array_new_length@std@@QAE@ABV01@@Z12
	DD	FLAT:__CT??_R0?AVbad_alloc@std@@@8??0bad_alloc@std@@QAE@ABV01@@Z12
	DD	FLAT:__CT??_R0?AVexception@std@@@8??0exception@std@@QAE@ABV01@@Z12
xdata$x	ENDS
;	COMDAT __TI3?AVbad_array_new_length@std@@
xdata$x	SEGMENT
__TI3?AVbad_array_new_length@std@@ DD 00H
	DD	FLAT:??1bad_array_new_length@std@@UAE@XZ
	DD	00H
	DD	FLAT:__CTA3?AVbad_array_new_length@std@@
xdata$x	ENDS
;	COMDAT __CT??_R0?AVexception@std@@@8??0exception@std@@QAE@ABV01@@Z12
xdata$x	SEGMENT
__CT??_R0?AVexception@std@@@8??0exception@std@@QAE@ABV01@@Z12 DD 00H
	DD	FLAT:??_R0?AVexception@std@@@8
	DD	00H
	DD	0ffffffffH
	ORG $+4
	DD	0cH
	DD	FLAT:??0exception@std@@QAE@ABV01@@Z
xdata$x	ENDS
;	COMDAT ??_R0?AVexception@std@@@8
data$r	SEGMENT
??_R0?AVexception@std@@@8 DD FLAT:??_7type_info@@6B@	; std::exception `RTTI Type Descriptor'
	DD	00H
	DB	'.?AVexception@std@@', 00H
data$r	ENDS
;	COMDAT ??_C@_0BF@KINCDENJ@bad?5array?5new?5length@
CONST	SEGMENT
??_C@_0BF@KINCDENJ@bad?5array?5new?5length@ DB 'bad array new length', 00H ; `string'
CONST	ENDS
;	COMDAT ??_7bad_array_new_length@std@@6B@
CONST	SEGMENT
??_7bad_array_new_length@std@@6B@ DD FLAT:??_R4bad_array_new_length@std@@6B@ ; std::bad_array_new_length::`vftable'
	DD	FLAT:??_Ebad_array_new_length@std@@UAEPAXI@Z
	DD	FLAT:?what@exception@std@@UBEPBDXZ
CONST	ENDS
;	COMDAT ??_7bad_alloc@std@@6B@
CONST	SEGMENT
??_7bad_alloc@std@@6B@ DD FLAT:??_R4bad_alloc@std@@6B@	; std::bad_alloc::`vftable'
	DD	FLAT:??_Ebad_alloc@std@@UAEPAXI@Z
	DD	FLAT:?what@exception@std@@UBEPBDXZ
CONST	ENDS
;	COMDAT ??_C@_0BC@EOODALEL@Unknown?5exception@
CONST	SEGMENT
??_C@_0BC@EOODALEL@Unknown?5exception@ DB 'Unknown exception', 00H ; `string'
CONST	ENDS
;	COMDAT ??_7exception@std@@6B@
CONST	SEGMENT
??_7exception@std@@6B@ DD FLAT:??_R4exception@std@@6B@	; std::exception::`vftable'
	DD	FLAT:??_Eexception@std@@UAEPAXI@Z
	DD	FLAT:?what@exception@std@@UBEPBDXZ
CONST	ENDS
;	COMDAT ??_C@_02DPKJAMEF@?$CFd@
CONST	SEGMENT
??_C@_02DPKJAMEF@?$CFd@ DB '%d', 00H			; `string'
CONST	ENDS
;	COMDAT xdata$x
xdata$x	SEGMENT
__unwindtable$??$?0U?$pair@$$CBKPAVCParty@@@std@@@?$_Tree_temp_node@V?$allocator@U?$_Tree_node@U?$pair@$$CBKPAVCParty@@@std@@PAX@std@@@std@@@std@@QAE@AAV?$allocator@U?$_Tree_node@U?$pair@$$CBKPAVCParty@@@std@@PAX@std@@@1@PAU?$_Tree_node@U?$pair@$$CBKPAVCParty@@@std@@PAX@1@$$QAU?$pair@$$CBKPAVCParty@@@1@@Z DD 0ffffffffH
	DD	FLAT:__unwindfunclet$??$?0U?$pair@$$CBKPAVCParty@@@std@@@?$_Tree_temp_node@V?$allocator@U?$_Tree_node@U?$pair@$$CBKPAVCParty@@@std@@PAX@std@@@std@@@std@@QAE@AAV?$allocator@U?$_Tree_node@U?$pair@$$CBKPAVCParty@@@std@@PAX@std@@@1@PAU?$_Tree_node@U?$pair@$$CBKPAVCParty@@@std@@PAX@1@$$QAU?$pair@$$CBKPAVCParty@@@1@@Z$1
__ehfuncinfo$??$?0U?$pair@$$CBKPAVCParty@@@std@@@?$_Tree_temp_node@V?$allocator@U?$_Tree_node@U?$pair@$$CBKPAVCParty@@@std@@PAX@std@@@std@@@std@@QAE@AAV?$allocator@U?$_Tree_node@U?$pair@$$CBKPAVCParty@@@std@@PAX@std@@@1@PAU?$_Tree_node@U?$pair@$$CBKPAVCParty@@@std@@PAX@1@$$QAU?$pair@$$CBKPAVCParty@@@1@@Z DD 019930522H
	DD	01H
	DD	FLAT:__unwindtable$??$?0U?$pair@$$CBKPAVCParty@@@std@@@?$_Tree_temp_node@V?$allocator@U?$_Tree_node@U?$pair@$$CBKPAVCParty@@@std@@PAX@std@@@std@@@std@@QAE@AAV?$allocator@U?$_Tree_node@U?$pair@$$CBKPAVCParty@@@std@@PAX@std@@@1@PAU?$_Tree_node@U?$pair@$$CBKPAVCParty@@@std@@PAX@1@$$QAU?$pair@$$CBKPAVCParty@@@1@@Z
	DD	2 DUP(00H)
	DD	2 DUP(00H)
	DD	00H
	DD	01H
xdata$x	ENDS
;	COMDAT xdata$x
xdata$x	SEGMENT
__unwindtable$??0?$_Tree_temp_node_alloc@V?$allocator@U?$_Tree_node@U?$pair@$$CBKPAVCParty@@@std@@PAX@std@@@std@@@std@@QAE@AAV?$allocator@U?$_Tree_node@U?$pair@$$CBKPAVCParty@@@std@@PAX@std@@@1@@Z DD 0ffffffffH
	DD	FLAT:__unwindfunclet$??0?$_Tree_temp_node_alloc@V?$allocator@U?$_Tree_node@U?$pair@$$CBKPAVCParty@@@std@@PAX@std@@@std@@@std@@QAE@AAV?$allocator@U?$_Tree_node@U?$pair@$$CBKPAVCParty@@@std@@PAX@std@@@1@@Z$0
__ehfuncinfo$??0?$_Tree_temp_node_alloc@V?$allocator@U?$_Tree_node@U?$pair@$$CBKPAVCParty@@@std@@PAX@std@@@std@@@std@@QAE@AAV?$allocator@U?$_Tree_node@U?$pair@$$CBKPAVCParty@@@std@@PAX@std@@@1@@Z DD 019930522H
	DD	01H
	DD	FLAT:__unwindtable$??0?$_Tree_temp_node_alloc@V?$allocator@U?$_Tree_node@U?$pair@$$CBKPAVCParty@@@std@@PAX@std@@@std@@@std@@QAE@AAV?$allocator@U?$_Tree_node@U?$pair@$$CBKPAVCParty@@@std@@PAX@std@@@1@@Z
	DD	2 DUP(00H)
	DD	2 DUP(00H)
	DD	00H
	DD	01H
xdata$x	ENDS
;	COMDAT xdata$x
xdata$x	SEGMENT
__unwindtable$??$_Emplace@U?$pair@$$CBKPAVCParty@@@std@@@?$_Tree@V?$_Tmap_traits@KPAVCParty@@U?$less@K@std@@V?$allocator@U?$pair@$$CBKPAVCParty@@@std@@@3@$0A@@std@@@std@@IAE?AU?$pair@PAU?$_Tree_node@U?$pair@$$CBKPAVCParty@@@std@@PAX@std@@_N@1@$$QAU?$pair@$$CBKPAVCParty@@@1@@Z DD 0ffffffffH
	DD	FLAT:__unwindfunclet$??$_Emplace@U?$pair@$$CBKPAVCParty@@@std@@@?$_Tree@V?$_Tmap_traits@KPAVCParty@@U?$less@K@std@@V?$allocator@U?$pair@$$CBKPAVCParty@@@std@@@3@$0A@@std@@@std@@IAE?AU?$pair@PAU?$_Tree_node@U?$pair@$$CBKPAVCParty@@@std@@PAX@std@@_N@1@$$QAU?$pair@$$CBKPAVCParty@@@1@@Z$2
__ehfuncinfo$??$_Emplace@U?$pair@$$CBKPAVCParty@@@std@@@?$_Tree@V?$_Tmap_traits@KPAVCParty@@U?$less@K@std@@V?$allocator@U?$pair@$$CBKPAVCParty@@@std@@@3@$0A@@std@@@std@@IAE?AU?$pair@PAU?$_Tree_node@U?$pair@$$CBKPAVCParty@@@std@@PAX@std@@_N@1@$$QAU?$pair@$$CBKPAVCParty@@@1@@Z DD 019930522H
	DD	01H
	DD	FLAT:__unwindtable$??$_Emplace@U?$pair@$$CBKPAVCParty@@@std@@@?$_Tree@V?$_Tmap_traits@KPAVCParty@@U?$less@K@std@@V?$allocator@U?$pair@$$CBKPAVCParty@@@std@@@3@$0A@@std@@@std@@IAE?AU?$pair@PAU?$_Tree_node@U?$pair@$$CBKPAVCParty@@@std@@PAX@std@@_N@1@$$QAU?$pair@$$CBKPAVCParty@@@1@@Z
	DD	2 DUP(00H)
	DD	2 DUP(00H)
	DD	00H
	DD	01H
xdata$x	ENDS
;	COMDAT xdata$x
xdata$x	SEGMENT
__unwindtable$??$insert@$0A@$0A@@?$_Tree@V?$_Tmap_traits@KPAVCParty@@U?$less@K@std@@V?$allocator@U?$pair@$$CBKPAVCParty@@@std@@@3@$0A@@std@@@std@@QAE?AU?$pair@V?$_Tree_iterator@V?$_Tree_val@U?$_Tree_simple_types@U?$pair@$$CBKPAVCParty@@@std@@@std@@@std@@@std@@_N@1@$$QAU?$pair@$$CBKPAVCParty@@@1@@Z DD 0ffffffffH
	DD	FLAT:__unwindfunclet$??$insert@$0A@$0A@@?$_Tree@V?$_Tmap_traits@KPAVCParty@@U?$less@K@std@@V?$allocator@U?$pair@$$CBKPAVCParty@@@std@@@3@$0A@@std@@@std@@QAE?AU?$pair@V?$_Tree_iterator@V?$_Tree_val@U?$_Tree_simple_types@U?$pair@$$CBKPAVCParty@@@std@@@std@@@std@@@std@@_N@1@$$QAU?$pair@$$CBKPAVCParty@@@1@@Z$2
__ehfuncinfo$??$insert@$0A@$0A@@?$_Tree@V?$_Tmap_traits@KPAVCParty@@U?$less@K@std@@V?$allocator@U?$pair@$$CBKPAVCParty@@@std@@@3@$0A@@std@@@std@@QAE?AU?$pair@V?$_Tree_iterator@V?$_Tree_val@U?$_Tree_simple_types@U?$pair@$$CBKPAVCParty@@@std@@@std@@@std@@@std@@_N@1@$$QAU?$pair@$$CBKPAVCParty@@@1@@Z DD 019930522H
	DD	01H
	DD	FLAT:__unwindtable$??$insert@$0A@$0A@@?$_Tree@V?$_Tmap_traits@KPAVCParty@@U?$less@K@std@@V?$allocator@U?$pair@$$CBKPAVCParty@@@std@@@3@$0A@@std@@@std@@QAE?AU?$pair@V?$_Tree_iterator@V?$_Tree_val@U?$_Tree_simple_types@U?$pair@$$CBKPAVCParty@@@std@@@std@@@std@@@std@@_N@1@$$QAU?$pair@$$CBKPAVCParty@@@1@@Z
	DD	2 DUP(00H)
	DD	2 DUP(00H)
	DD	00H
	DD	01H
xdata$x	ENDS
;	COMDAT xdata$x
xdata$x	SEGMENT
__unwindtable$?Serialize@CPartyMng@@QAEXAAVCAr@@@Z DD 0ffffffffH
	DD	FLAT:__unwindfunclet$?Serialize@CPartyMng@@QAEXAAVCAr@@@Z$3
__ehfuncinfo$?Serialize@CPartyMng@@QAEXAAVCAr@@@Z DD 019930522H
	DD	01H
	DD	FLAT:__unwindtable$?Serialize@CPartyMng@@QAEXAAVCAr@@@Z
	DD	2 DUP(00H)
	DD	2 DUP(00H)
	DD	00H
	DD	01H
xdata$x	ENDS
;	COMDAT xdata$x
xdata$x	SEGMENT
__unwindtable$??0CPartyMng@@QAE@XZ DD 0ffffffffH
	DD	FLAT:__unwindfunclet$??0CPartyMng@@QAE@XZ$0
	DD	00H
	DD	FLAT:__unwindfunclet$??0CPartyMng@@QAE@XZ$1
__ehfuncinfo$??0CPartyMng@@QAE@XZ DD 019930522H
	DD	02H
	DD	FLAT:__unwindtable$??0CPartyMng@@QAE@XZ
	DD	2 DUP(00H)
	DD	2 DUP(00H)
	DD	00H
	DD	01H
xdata$x	ENDS
CRT$XCU	SEGMENT
?g_PartyMng$initializer$@@3P6AXXZA DD FLAT:??__Eg_PartyMng@@YAXXZ ; g_PartyMng$initializer$
CRT$XCU	ENDS
; Function compile flags: /Ogtp
; File C:\Program Files\Microsoft Visual Studio\2022\Professional\VC\Tools\MSVC\14.44.35207\include\xtree
; File C:\Program Files\Microsoft Visual Studio\2022\Professional\VC\Tools\MSVC\14.44.35207\include\utility
; File C:\Program Files\Microsoft Visual Studio\2022\Professional\VC\Tools\MSVC\14.44.35207\include\xtree
; File C:\Program Files\Microsoft Visual Studio\2022\Professional\VC\Tools\MSVC\14.44.35207\include\xmemory
; File C:\Program Files\Microsoft Visual Studio\2022\Professional\VC\Tools\MSVC\14.44.35207\include\xtree
; File C:\Program Files\Microsoft Visual Studio\2022\Professional\VC\Tools\MSVC\14.44.35207\include\xmemory
; File C:\Program Files\Microsoft Visual Studio\2022\Professional\VC\Tools\MSVC\14.44.35207\include\xtree
;	COMDAT ??$_Erase_tree@V?$allocator@U?$_Tree_node@U?$pair@$$CBV?$basic_string@DU?$char_traits@D@std@@V?$allocator@D@2@@std@@K@std@@PAX@std@@@std@@@?$_Tree_val@U?$_Tree_simple_types@U?$pair@$$CBV?$basic_string@DU?$char_traits@D@std@@V?$allocator@D@2@@std@@K@std@@@std@@@std@@QAEXAAV?$allocator@U?$_Tree_node@U?$pair@$$CBV?$basic_string@DU?$char_traits@D@std@@V?$allocator@D@2@@std@@K@std@@PAX@std@@@1@PAU?$_Tree_node@U?$pair@$$CBV?$basic_string@DU?$char_traits@D@std@@V?$allocator@D@2@@std@@K@std@@PAX@1@@Z
_TEXT	SEGMENT
_this$1$ = -4						; size = 4
__Al$ = 8						; size = 4
__Rootnode$ = 12					; size = 4
??$_Erase_tree@V?$allocator@U?$_Tree_node@U?$pair@$$CBV?$basic_string@DU?$char_traits@D@std@@V?$allocator@D@2@@std@@K@std@@PAX@std@@@std@@@?$_Tree_val@U?$_Tree_simple_types@U?$pair@$$CBV?$basic_string@DU?$char_traits@D@std@@V?$allocator@D@2@@std@@K@std@@@std@@@std@@QAEXAAV?$allocator@U?$_Tree_node@U?$pair@$$CBV?$basic_string@DU?$char_traits@D@std@@V?$allocator@D@2@@std@@K@std@@PAX@std@@@1@PAU?$_Tree_node@U?$pair@$$CBV?$basic_string@DU?$char_traits@D@std@@V?$allocator@D@2@@std@@K@std@@PAX@1@@Z PROC ; std::_Tree_val<std::_Tree_simple_types<std::pair<std::basic_string<char,std::char_traits<char>,std::allocator<char> > const ,unsigned long> > >::_Erase_tree<std::allocator<std::_Tree_node<std::pair<std::basic_string<char,std::char_traits<char>,std::allocator<char> > const ,unsigned long>,void *> > >, COMDAT
; _this$ = ecx

; 767  :     void _Erase_tree(_Alnode& _Al, _Nodeptr _Rootnode) noexcept {

  00000	55		 push	 ebp
  00001	8b ec		 mov	 ebp, esp
  00003	51		 push	 ecx
  00004	56		 push	 esi

; 768  :         while (!_Rootnode->_Isnil) { // free subtrees, then node

  00005	8b 75 0c	 mov	 esi, DWORD PTR __Rootnode$[ebp]
  00008	8b c1		 mov	 eax, ecx
  0000a	89 45 fc	 mov	 DWORD PTR _this$1$[ebp], eax
  0000d	80 7e 0d 00	 cmp	 BYTE PTR [esi+13], 0
  00011	75 32		 jne	 SHORT $LN45@Erase_tree
  00013	53		 push	 ebx
  00014	8b 5d 08	 mov	 ebx, DWORD PTR __Al$[ebp]
  00017	57		 push	 edi
$LL2@Erase_tree:

; 769  :             _Erase_tree(_Al, _Rootnode->_Right);

  00018	ff 76 08	 push	 DWORD PTR [esi+8]
  0001b	8b c8		 mov	 ecx, eax
  0001d	53		 push	 ebx
  0001e	e8 00 00 00 00	 call	 ??$_Erase_tree@V?$allocator@U?$_Tree_node@U?$pair@$$CBV?$basic_string@DU?$char_traits@D@std@@V?$allocator@D@2@@std@@K@std@@PAX@std@@@std@@@?$_Tree_val@U?$_Tree_simple_types@U?$pair@$$CBV?$basic_string@DU?$char_traits@D@std@@V?$allocator@D@2@@std@@K@std@@@std@@@std@@QAEXAAV?$allocator@U?$_Tree_node@U?$pair@$$CBV?$basic_string@DU?$char_traits@D@std@@V?$allocator@D@2@@std@@K@std@@PAX@std@@@1@PAU?$_Tree_node@U?$pair@$$CBV?$basic_string@DU?$char_traits@D@std@@V?$allocator@D@2@@std@@K@std@@PAX@1@@Z ; std::_Tree_val<std::_Tree_simple_types<std::pair<std::basic_string<char,std::char_traits<char>,std::allocator<char> > const ,unsigned long> > >::_Erase_tree<std::allocator<std::_Tree_node<std::pair<std::basic_string<char,std::char_traits<char>,std::allocator<char> > const ,unsigned long>,void *> > >
; File C:\Program Files\Microsoft Visual Studio\2022\Professional\VC\Tools\MSVC\14.44.35207\include\utility

; 773  :     _Ty _Old_val = static_cast<_Ty&&>(_Val);

  00023	8b fe		 mov	 edi, esi

; 774  :     _Val         = static_cast<_Other&&>(_New_val);

  00025	8b 36		 mov	 esi, DWORD PTR [esi]
; File C:\Program Files\Microsoft Visual Studio\2022\Professional\VC\Tools\MSVC\14.44.35207\include\xtree

; 381  :         allocator_traits<_Alloc>::destroy(_Al, _STD addressof(_Ptr->_Myval));

  00027	8d 4f 10	 lea	 ecx, DWORD PTR [edi+16]
  0002a	e8 00 00 00 00	 call	 ??1?$basic_string@DU?$char_traits@D@std@@V?$allocator@D@2@@std@@QAE@XZ ; std::basic_string<char,std::char_traits<char>,std::allocator<char> >::~basic_string<char,std::char_traits<char>,std::allocator<char> >
; File C:\Program Files\Microsoft Visual Studio\2022\Professional\VC\Tools\MSVC\14.44.35207\include\xmemory

; 289  :         ::operator delete(_Ptr, _Bytes);

  0002f	6a 2c		 push	 44			; 0000002cH
  00031	57		 push	 edi
  00032	e8 00 00 00 00	 call	 ??3@YAXPAXI@Z		; operator delete
; File C:\Program Files\Microsoft Visual Studio\2022\Professional\VC\Tools\MSVC\14.44.35207\include\xtree

; 768  :         while (!_Rootnode->_Isnil) { // free subtrees, then node

  00037	8b 45 fc	 mov	 eax, DWORD PTR _this$1$[ebp]
; File C:\Program Files\Microsoft Visual Studio\2022\Professional\VC\Tools\MSVC\14.44.35207\include\xmemory

; 289  :         ::operator delete(_Ptr, _Bytes);

  0003a	83 c4 08	 add	 esp, 8
; File C:\Program Files\Microsoft Visual Studio\2022\Professional\VC\Tools\MSVC\14.44.35207\include\xtree

; 768  :         while (!_Rootnode->_Isnil) { // free subtrees, then node

  0003d	80 7e 0d 00	 cmp	 BYTE PTR [esi+13], 0
  00041	74 d5		 je	 SHORT $LL2@Erase_tree
  00043	5f		 pop	 edi
  00044	5b		 pop	 ebx
$LN45@Erase_tree:
  00045	5e		 pop	 esi

; 770  :             _Alnode::value_type::_Freenode(_Al, _STD exchange(_Rootnode, _Rootnode->_Left));
; 771  :         }
; 772  :     }

  00046	8b e5		 mov	 esp, ebp
  00048	5d		 pop	 ebp
  00049	c2 08 00	 ret	 8
??$_Erase_tree@V?$allocator@U?$_Tree_node@U?$pair@$$CBV?$basic_string@DU?$char_traits@D@std@@V?$allocator@D@2@@std@@K@std@@PAX@std@@@std@@@?$_Tree_val@U?$_Tree_simple_types@U?$pair@$$CBV?$basic_string@DU?$char_traits@D@std@@V?$allocator@D@2@@std@@K@std@@@std@@@std@@QAEXAAV?$allocator@U?$_Tree_node@U?$pair@$$CBV?$basic_string@DU?$char_traits@D@std@@V?$allocator@D@2@@std@@K@std@@PAX@std@@@1@PAU?$_Tree_node@U?$pair@$$CBV?$basic_string@DU?$char_traits@D@std@@V?$allocator@D@2@@std@@K@std@@PAX@1@@Z ENDP ; std::_Tree_val<std::_Tree_simple_types<std::pair<std::basic_string<char,std::char_traits<char>,std::allocator<char> > const ,unsigned long> > >::_Erase_tree<std::allocator<std::_Tree_node<std::pair<std::basic_string<char,std::char_traits<char>,std::allocator<char> > const ,unsigned long>,void *> > >
_TEXT	ENDS
; Function compile flags: /Ogtp
; File C:\Program Files\Microsoft Visual Studio\2022\Professional\VC\Tools\MSVC\14.44.35207\include\xtree
; File C:\Program Files\Microsoft Visual Studio\2022\Professional\VC\Tools\MSVC\14.44.35207\include\utility
; File C:\Program Files\Microsoft Visual Studio\2022\Professional\VC\Tools\MSVC\14.44.35207\include\xtree
; File C:\Program Files\Microsoft Visual Studio\2022\Professional\VC\Tools\MSVC\14.44.35207\include\xmemory
; File C:\Program Files\Microsoft Visual Studio\2022\Professional\VC\Tools\MSVC\14.44.35207\include\xtree
; File C:\Program Files\Microsoft Visual Studio\2022\Professional\VC\Tools\MSVC\14.44.35207\include\xmemory
; File C:\Program Files\Microsoft Visual Studio\2022\Professional\VC\Tools\MSVC\14.44.35207\include\xtree
;	COMDAT ??$_Erase_tree@V?$allocator@U?$_Tree_node@U?$pair@$$CBKV?$basic_string@DU?$char_traits@D@std@@V?$allocator@D@2@@std@@@std@@PAX@std@@@std@@@?$_Tree_val@U?$_Tree_simple_types@U?$pair@$$CBKV?$basic_string@DU?$char_traits@D@std@@V?$allocator@D@2@@std@@@std@@@std@@@std@@QAEXAAV?$allocator@U?$_Tree_node@U?$pair@$$CBKV?$basic_string@DU?$char_traits@D@std@@V?$allocator@D@2@@std@@@std@@PAX@std@@@1@PAU?$_Tree_node@U?$pair@$$CBKV?$basic_string@DU?$char_traits@D@std@@V?$allocator@D@2@@std@@@std@@PAX@1@@Z
_TEXT	SEGMENT
_this$1$ = -4						; size = 4
__Al$ = 8						; size = 4
__Rootnode$ = 12					; size = 4
??$_Erase_tree@V?$allocator@U?$_Tree_node@U?$pair@$$CBKV?$basic_string@DU?$char_traits@D@std@@V?$allocator@D@2@@std@@@std@@PAX@std@@@std@@@?$_Tree_val@U?$_Tree_simple_types@U?$pair@$$CBKV?$basic_string@DU?$char_traits@D@std@@V?$allocator@D@2@@std@@@std@@@std@@@std@@QAEXAAV?$allocator@U?$_Tree_node@U?$pair@$$CBKV?$basic_string@DU?$char_traits@D@std@@V?$allocator@D@2@@std@@@std@@PAX@std@@@1@PAU?$_Tree_node@U?$pair@$$CBKV?$basic_string@DU?$char_traits@D@std@@V?$allocator@D@2@@std@@@std@@PAX@1@@Z PROC ; std::_Tree_val<std::_Tree_simple_types<std::pair<unsigned long const ,std::basic_string<char,std::char_traits<char>,std::allocator<char> > > > >::_Erase_tree<std::allocator<std::_Tree_node<std::pair<unsigned long const ,std::basic_string<char,std::char_traits<char>,std::allocator<char> > >,void *> > >, COMDAT
; _this$ = ecx

; 767  :     void _Erase_tree(_Alnode& _Al, _Nodeptr _Rootnode) noexcept {

  00000	55		 push	 ebp
  00001	8b ec		 mov	 ebp, esp
  00003	51		 push	 ecx
  00004	56		 push	 esi

; 768  :         while (!_Rootnode->_Isnil) { // free subtrees, then node

  00005	8b 75 0c	 mov	 esi, DWORD PTR __Rootnode$[ebp]
  00008	8b c1		 mov	 eax, ecx
  0000a	89 45 fc	 mov	 DWORD PTR _this$1$[ebp], eax
  0000d	80 7e 0d 00	 cmp	 BYTE PTR [esi+13], 0
  00011	75 32		 jne	 SHORT $LN45@Erase_tree
  00013	53		 push	 ebx
  00014	8b 5d 08	 mov	 ebx, DWORD PTR __Al$[ebp]
  00017	57		 push	 edi
$LL2@Erase_tree:

; 769  :             _Erase_tree(_Al, _Rootnode->_Right);

  00018	ff 76 08	 push	 DWORD PTR [esi+8]
  0001b	8b c8		 mov	 ecx, eax
  0001d	53		 push	 ebx
  0001e	e8 00 00 00 00	 call	 ??$_Erase_tree@V?$allocator@U?$_Tree_node@U?$pair@$$CBKV?$basic_string@DU?$char_traits@D@std@@V?$allocator@D@2@@std@@@std@@PAX@std@@@std@@@?$_Tree_val@U?$_Tree_simple_types@U?$pair@$$CBKV?$basic_string@DU?$char_traits@D@std@@V?$allocator@D@2@@std@@@std@@@std@@@std@@QAEXAAV?$allocator@U?$_Tree_node@U?$pair@$$CBKV?$basic_string@DU?$char_traits@D@std@@V?$allocator@D@2@@std@@@std@@PAX@std@@@1@PAU?$_Tree_node@U?$pair@$$CBKV?$basic_string@DU?$char_traits@D@std@@V?$allocator@D@2@@std@@@std@@PAX@1@@Z ; std::_Tree_val<std::_Tree_simple_types<std::pair<unsigned long const ,std::basic_string<char,std::char_traits<char>,std::allocator<char> > > > >::_Erase_tree<std::allocator<std::_Tree_node<std::pair<unsigned long const ,std::basic_string<char,std::char_traits<char>,std::allocator<char> > >,void *> > >
; File C:\Program Files\Microsoft Visual Studio\2022\Professional\VC\Tools\MSVC\14.44.35207\include\utility

; 773  :     _Ty _Old_val = static_cast<_Ty&&>(_Val);

  00023	8b fe		 mov	 edi, esi

; 774  :     _Val         = static_cast<_Other&&>(_New_val);

  00025	8b 36		 mov	 esi, DWORD PTR [esi]
; File C:\Program Files\Microsoft Visual Studio\2022\Professional\VC\Tools\MSVC\14.44.35207\include\xtree

; 381  :         allocator_traits<_Alloc>::destroy(_Al, _STD addressof(_Ptr->_Myval));

  00027	8d 4f 14	 lea	 ecx, DWORD PTR [edi+20]
  0002a	e8 00 00 00 00	 call	 ??1?$basic_string@DU?$char_traits@D@std@@V?$allocator@D@2@@std@@QAE@XZ ; std::basic_string<char,std::char_traits<char>,std::allocator<char> >::~basic_string<char,std::char_traits<char>,std::allocator<char> >
; File C:\Program Files\Microsoft Visual Studio\2022\Professional\VC\Tools\MSVC\14.44.35207\include\xmemory

; 289  :         ::operator delete(_Ptr, _Bytes);

  0002f	6a 2c		 push	 44			; 0000002cH
  00031	57		 push	 edi
  00032	e8 00 00 00 00	 call	 ??3@YAXPAXI@Z		; operator delete
; File C:\Program Files\Microsoft Visual Studio\2022\Professional\VC\Tools\MSVC\14.44.35207\include\xtree

; 768  :         while (!_Rootnode->_Isnil) { // free subtrees, then node

  00037	8b 45 fc	 mov	 eax, DWORD PTR _this$1$[ebp]
; File C:\Program Files\Microsoft Visual Studio\2022\Professional\VC\Tools\MSVC\14.44.35207\include\xmemory

; 289  :         ::operator delete(_Ptr, _Bytes);

  0003a	83 c4 08	 add	 esp, 8
; File C:\Program Files\Microsoft Visual Studio\2022\Professional\VC\Tools\MSVC\14.44.35207\include\xtree

; 768  :         while (!_Rootnode->_Isnil) { // free subtrees, then node

  0003d	80 7e 0d 00	 cmp	 BYTE PTR [esi+13], 0
  00041	74 d5		 je	 SHORT $LL2@Erase_tree
  00043	5f		 pop	 edi
  00044	5b		 pop	 ebx
$LN45@Erase_tree:
  00045	5e		 pop	 esi

; 770  :             _Alnode::value_type::_Freenode(_Al, _STD exchange(_Rootnode, _Rootnode->_Left));
; 771  :         }
; 772  :     }

  00046	8b e5		 mov	 esp, ebp
  00048	5d		 pop	 ebp
  00049	c2 08 00	 ret	 8
??$_Erase_tree@V?$allocator@U?$_Tree_node@U?$pair@$$CBKV?$basic_string@DU?$char_traits@D@std@@V?$allocator@D@2@@std@@@std@@PAX@std@@@std@@@?$_Tree_val@U?$_Tree_simple_types@U?$pair@$$CBKV?$basic_string@DU?$char_traits@D@std@@V?$allocator@D@2@@std@@@std@@@std@@@std@@QAEXAAV?$allocator@U?$_Tree_node@U?$pair@$$CBKV?$basic_string@DU?$char_traits@D@std@@V?$allocator@D@2@@std@@@std@@PAX@std@@@1@PAU?$_Tree_node@U?$pair@$$CBKV?$basic_string@DU?$char_traits@D@std@@V?$allocator@D@2@@std@@@std@@PAX@1@@Z ENDP ; std::_Tree_val<std::_Tree_simple_types<std::pair<unsigned long const ,std::basic_string<char,std::char_traits<char>,std::allocator<char> > > > >::_Erase_tree<std::allocator<std::_Tree_node<std::pair<unsigned long const ,std::basic_string<char,std::char_traits<char>,std::allocator<char> > >,void *> > >
_TEXT	ENDS
; Function compile flags: /Ogtp
; File C:\Program Files\Microsoft Visual Studio\2022\Professional\VC\Tools\MSVC\14.44.35207\include\xmemory
;	COMDAT ??1?$_Alloc_construct_ptr@V?$allocator@U?$_Tree_node@U?$pair@$$CBKPAVCParty@@@std@@PAX@std@@@std@@@std@@QAE@XZ
_TEXT	SEGMENT
??1?$_Alloc_construct_ptr@V?$allocator@U?$_Tree_node@U?$pair@$$CBKPAVCParty@@@std@@PAX@std@@@std@@@std@@QAE@XZ PROC ; std::_Alloc_construct_ptr<std::allocator<std::_Tree_node<std::pair<unsigned long const ,CParty *>,void *> > >::~_Alloc_construct_ptr<std::allocator<std::_Tree_node<std::pair<unsigned long const ,CParty *>,void *> > >, COMDAT
; _this$ = ecx

; 1172 :         if (_Ptr) {

  00000	8b 41 04	 mov	 eax, DWORD PTR [ecx+4]
  00003	85 c0		 test	 eax, eax
  00005	74 0b		 je	 SHORT $LN10@Alloc_cons

; 289  :         ::operator delete(_Ptr, _Bytes);

  00007	6a 18		 push	 24			; 00000018H
  00009	50		 push	 eax
  0000a	e8 00 00 00 00	 call	 ??3@YAXPAXI@Z		; operator delete
  0000f	83 c4 08	 add	 esp, 8
$LN10@Alloc_cons:

; 1173 :             _Al.deallocate(_Ptr, 1);
; 1174 :         }
; 1175 :     }

  00012	c3		 ret	 0
??1?$_Alloc_construct_ptr@V?$allocator@U?$_Tree_node@U?$pair@$$CBKPAVCParty@@@std@@PAX@std@@@std@@@std@@QAE@XZ ENDP ; std::_Alloc_construct_ptr<std::allocator<std::_Tree_node<std::pair<unsigned long const ,CParty *>,void *> > >::~_Alloc_construct_ptr<std::allocator<std::_Tree_node<std::pair<unsigned long const ,CParty *>,void *> > >
_TEXT	ENDS
; Function compile flags: /Ogtp
; File C:\Program Files\Microsoft Visual Studio\2022\Professional\VC\Tools\MSVC\14.44.35207\include\xtree
; File C:\Program Files\Microsoft Visual Studio\2022\Professional\VC\Tools\MSVC\14.44.35207\include\type_traits
; File C:\Program Files\Microsoft Visual Studio\2022\Professional\VC\Tools\MSVC\14.44.35207\include\xtree
; File C:\Program Files\Microsoft Visual Studio\2022\Professional\VC\Tools\MSVC\14.44.35207\include\type_traits
; File C:\Program Files\Microsoft Visual Studio\2022\Professional\VC\Tools\MSVC\14.44.35207\include\xtree
;	COMDAT ??$_Find_lower_bound@K@?$_Tree@V?$_Tmap_traits@KPAVCParty@@U?$less@K@std@@V?$allocator@U?$pair@$$CBKPAVCParty@@@std@@@3@$0A@@std@@@std@@IBE?AU?$_Tree_find_result@PAU?$_Tree_node@U?$pair@$$CBKPAVCParty@@@std@@PAX@std@@@1@ABK@Z
_TEXT	SEGMENT
___$ReturnUdt$ = 8					; size = 4
__Keyval$ = 12						; size = 4
??$_Find_lower_bound@K@?$_Tree@V?$_Tmap_traits@KPAVCParty@@U?$less@K@std@@V?$allocator@U?$pair@$$CBKPAVCParty@@@std@@@3@$0A@@std@@@std@@IBE?AU?$_Tree_find_result@PAU?$_Tree_node@U?$pair@$$CBKPAVCParty@@@std@@PAX@std@@@1@ABK@Z PROC ; std::_Tree<std::_Tmap_traits<unsigned long,CParty *,std::less<unsigned long>,std::allocator<std::pair<unsigned long const ,CParty *> >,0> >::_Find_lower_bound<unsigned long>, COMDAT
; _this$ = ecx

; 1628 :     _Tree_find_result<_Nodeptr> _Find_lower_bound(const _Keyty& _Keyval) const {

  00000	55		 push	 ebp
  00001	8b ec		 mov	 ebp, esp

; 1629 :         const auto _Scary = _Get_scary();
; 1630 :         _Tree_find_result<_Nodeptr> _Result{{_Scary->_Myhead->_Parent, _Tree_child::_Right}, _Scary->_Myhead};

  00003	8b 09		 mov	 ecx, DWORD PTR [ecx]
  00005	8b 55 08	 mov	 edx, DWORD PTR ___$ReturnUdt$[ebp]
  00008	8b 41 04	 mov	 eax, DWORD PTR [ecx+4]
  0000b	89 02		 mov	 DWORD PTR [edx], eax
  0000d	c7 42 04 00 00
	00 00		 mov	 DWORD PTR [edx+4], 0
  00014	89 4a 08	 mov	 DWORD PTR [edx+8], ecx

; 1631 :         _Nodeptr _Trynode = _Result._Location._Parent;
; 1632 :         while (!_Trynode->_Isnil) {

  00017	80 78 0d 00	 cmp	 BYTE PTR [eax+13], 0
  0001b	75 28		 jne	 SHORT $LN13@Find_lower
; File C:\Program Files\Microsoft Visual Studio\2022\Professional\VC\Tools\MSVC\14.44.35207\include\type_traits

; 2380 :         return _Left < _Right;

  0001d	8b 4d 0c	 mov	 ecx, DWORD PTR __Keyval$[ebp]
  00020	56		 push	 esi
  00021	8b 31		 mov	 esi, DWORD PTR [ecx]
$LL2@Find_lower:
; File C:\Program Files\Microsoft Visual Studio\2022\Professional\VC\Tools\MSVC\14.44.35207\include\xtree

; 1633 :             _Result._Location._Parent = _Trynode;

  00023	89 02		 mov	 DWORD PTR [edx], eax
; File C:\Program Files\Microsoft Visual Studio\2022\Professional\VC\Tools\MSVC\14.44.35207\include\type_traits

; 2380 :         return _Left < _Right;

  00025	39 70 10	 cmp	 DWORD PTR [eax+16], esi
; File C:\Program Files\Microsoft Visual Studio\2022\Professional\VC\Tools\MSVC\14.44.35207\include\xtree

; 1634 :             if (_DEBUG_LT_PRED(_Getcomp(), _Traits::_Kfn(_Trynode->_Myval), _Keyval)) {

  00028	73 07		 jae	 SHORT $LN4@Find_lower

; 1635 :                 _Result._Location._Child = _Tree_child::_Right;
; 1636 :                 _Trynode                 = _Trynode->_Right;

  0002a	8b 40 08	 mov	 eax, DWORD PTR [eax+8]
  0002d	33 c9		 xor	 ecx, ecx

; 1637 :             } else {

  0002f	eb 0a		 jmp	 SHORT $LN5@Find_lower
$LN4@Find_lower:

; 1638 :                 _Result._Location._Child = _Tree_child::_Left;
; 1639 :                 _Result._Bound           = _Trynode;

  00031	89 42 08	 mov	 DWORD PTR [edx+8], eax

; 1640 :                 _Trynode                 = _Trynode->_Left;

  00034	b9 01 00 00 00	 mov	 ecx, 1
  00039	8b 00		 mov	 eax, DWORD PTR [eax]
$LN5@Find_lower:

; 1631 :         _Nodeptr _Trynode = _Result._Location._Parent;
; 1632 :         while (!_Trynode->_Isnil) {

  0003b	89 4a 04	 mov	 DWORD PTR [edx+4], ecx
  0003e	80 78 0d 00	 cmp	 BYTE PTR [eax+13], 0
  00042	74 df		 je	 SHORT $LL2@Find_lower
  00044	5e		 pop	 esi
$LN13@Find_lower:

; 1641 :             }
; 1642 :         }
; 1643 : 
; 1644 :         return _Result;
; 1645 :     }

  00045	8b c2		 mov	 eax, edx
  00047	5d		 pop	 ebp
  00048	c2 08 00	 ret	 8
??$_Find_lower_bound@K@?$_Tree@V?$_Tmap_traits@KPAVCParty@@U?$less@K@std@@V?$allocator@U?$pair@$$CBKPAVCParty@@@std@@@3@$0A@@std@@@std@@IBE?AU?$_Tree_find_result@PAU?$_Tree_node@U?$pair@$$CBKPAVCParty@@@std@@PAX@std@@@1@ABK@Z ENDP ; std::_Tree<std::_Tmap_traits<unsigned long,CParty *,std::less<unsigned long>,std::allocator<std::pair<unsigned long const ,CParty *> >,0> >::_Find_lower_bound<unsigned long>
_TEXT	ENDS
; Function compile flags: /Ogtp
; File C:\Program Files\Microsoft Visual Studio\2022\Professional\VC\Tools\MSVC\14.44.35207\include\xtree
; File C:\Program Files\Microsoft Visual Studio\2022\Professional\VC\Tools\MSVC\14.44.35207\include\utility
; File C:\Program Files\Microsoft Visual Studio\2022\Professional\VC\Tools\MSVC\14.44.35207\include\xmemory
; File C:\Program Files\Microsoft Visual Studio\2022\Professional\VC\Tools\MSVC\14.44.35207\include\xtree
;	COMDAT ??$_Erase_tree@V?$allocator@U?$_Tree_node@U?$pair@$$CBKPAVCParty@@@std@@PAX@std@@@std@@@?$_Tree_val@U?$_Tree_simple_types@U?$pair@$$CBKPAVCParty@@@std@@@std@@@std@@QAEXAAV?$allocator@U?$_Tree_node@U?$pair@$$CBKPAVCParty@@@std@@PAX@std@@@1@PAU?$_Tree_node@U?$pair@$$CBKPAVCParty@@@std@@PAX@1@@Z
_TEXT	SEGMENT
__Al$ = 8						; size = 4
__Rootnode$ = 12					; size = 4
??$_Erase_tree@V?$allocator@U?$_Tree_node@U?$pair@$$CBKPAVCParty@@@std@@PAX@std@@@std@@@?$_Tree_val@U?$_Tree_simple_types@U?$pair@$$CBKPAVCParty@@@std@@@std@@@std@@QAEXAAV?$allocator@U?$_Tree_node@U?$pair@$$CBKPAVCParty@@@std@@PAX@std@@@1@PAU?$_Tree_node@U?$pair@$$CBKPAVCParty@@@std@@PAX@1@@Z PROC ; std::_Tree_val<std::_Tree_simple_types<std::pair<unsigned long const ,CParty *> > >::_Erase_tree<std::allocator<std::_Tree_node<std::pair<unsigned long const ,CParty *>,void *> > >, COMDAT
; _this$ = ecx

; 767  :     void _Erase_tree(_Alnode& _Al, _Nodeptr _Rootnode) noexcept {

  00000	55		 push	 ebp
  00001	8b ec		 mov	 ebp, esp
  00003	53		 push	 ebx
  00004	56		 push	 esi

; 768  :         while (!_Rootnode->_Isnil) { // free subtrees, then node

  00005	8b 75 0c	 mov	 esi, DWORD PTR __Rootnode$[ebp]
  00008	8b d9		 mov	 ebx, ecx
  0000a	80 7e 0d 00	 cmp	 BYTE PTR [esi+13], 0
  0000e	75 25		 jne	 SHORT $LN34@Erase_tree
  00010	57		 push	 edi
  00011	8b 7d 08	 mov	 edi, DWORD PTR __Al$[ebp]
$LL2@Erase_tree:

; 769  :             _Erase_tree(_Al, _Rootnode->_Right);

  00014	ff 76 08	 push	 DWORD PTR [esi+8]
  00017	8b cb		 mov	 ecx, ebx
  00019	57		 push	 edi
  0001a	e8 00 00 00 00	 call	 ??$_Erase_tree@V?$allocator@U?$_Tree_node@U?$pair@$$CBKPAVCParty@@@std@@PAX@std@@@std@@@?$_Tree_val@U?$_Tree_simple_types@U?$pair@$$CBKPAVCParty@@@std@@@std@@@std@@QAEXAAV?$allocator@U?$_Tree_node@U?$pair@$$CBKPAVCParty@@@std@@PAX@std@@@1@PAU?$_Tree_node@U?$pair@$$CBKPAVCParty@@@std@@PAX@1@@Z ; std::_Tree_val<std::_Tree_simple_types<std::pair<unsigned long const ,CParty *> > >::_Erase_tree<std::allocator<std::_Tree_node<std::pair<unsigned long const ,CParty *>,void *> > >
; File C:\Program Files\Microsoft Visual Studio\2022\Professional\VC\Tools\MSVC\14.44.35207\include\utility

; 773  :     _Ty _Old_val = static_cast<_Ty&&>(_Val);

  0001f	8b c6		 mov	 eax, esi

; 774  :     _Val         = static_cast<_Other&&>(_New_val);

  00021	8b 36		 mov	 esi, DWORD PTR [esi]
; File C:\Program Files\Microsoft Visual Studio\2022\Professional\VC\Tools\MSVC\14.44.35207\include\xmemory

; 289  :         ::operator delete(_Ptr, _Bytes);

  00023	6a 18		 push	 24			; 00000018H
  00025	50		 push	 eax
  00026	e8 00 00 00 00	 call	 ??3@YAXPAXI@Z		; operator delete
  0002b	83 c4 08	 add	 esp, 8
; File C:\Program Files\Microsoft Visual Studio\2022\Professional\VC\Tools\MSVC\14.44.35207\include\xtree

; 768  :         while (!_Rootnode->_Isnil) { // free subtrees, then node

  0002e	80 7e 0d 00	 cmp	 BYTE PTR [esi+13], 0
  00032	74 e0		 je	 SHORT $LL2@Erase_tree
  00034	5f		 pop	 edi
$LN34@Erase_tree:
  00035	5e		 pop	 esi

; 770  :             _Alnode::value_type::_Freenode(_Al, _STD exchange(_Rootnode, _Rootnode->_Left));
; 771  :         }
; 772  :     }

  00036	5b		 pop	 ebx
  00037	5d		 pop	 ebp
  00038	c2 08 00	 ret	 8
??$_Erase_tree@V?$allocator@U?$_Tree_node@U?$pair@$$CBKPAVCParty@@@std@@PAX@std@@@std@@@?$_Tree_val@U?$_Tree_simple_types@U?$pair@$$CBKPAVCParty@@@std@@@std@@@std@@QAEXAAV?$allocator@U?$_Tree_node@U?$pair@$$CBKPAVCParty@@@std@@PAX@std@@@1@PAU?$_Tree_node@U?$pair@$$CBKPAVCParty@@@std@@PAX@1@@Z ENDP ; std::_Tree_val<std::_Tree_simple_types<std::pair<unsigned long const ,CParty *> > >::_Erase_tree<std::allocator<std::_Tree_node<std::pair<unsigned long const ,CParty *>,void *> > >
_TEXT	ENDS
; Function compile flags: /Ogtp
;	COMDAT ??__Fg_PartyMng@@YAXXZ
text$yd	SEGMENT
??__Fg_PartyMng@@YAXXZ PROC				; `dynamic atexit destructor for 'g_PartyMng'', COMDAT
  00000	b9 00 00 00 00	 mov	 ecx, OFFSET ?g_PartyMng@@3VCPartyMng@@A ; g_PartyMng
  00005	e9 00 00 00 00	 jmp	 ??1CPartyMng@@QAE@XZ	; CPartyMng::~CPartyMng
??__Fg_PartyMng@@YAXXZ ENDP				; `dynamic atexit destructor for 'g_PartyMng''
text$yd	ENDS
; Function compile flags: /Ogtp
; File C:\IAGOS\server\v18\Source\Source\_common\party.cpp
;	COMDAT ??__Eg_PartyMng@@YAXXZ
text$di	SEGMENT
??__Eg_PartyMng@@YAXXZ PROC				; `dynamic initializer for 'g_PartyMng'', COMDAT

; 1315 : CPartyMng	g_PartyMng;

  00000	b9 00 00 00 00	 mov	 ecx, OFFSET ?g_PartyMng@@3VCPartyMng@@A ; g_PartyMng
  00005	e8 00 00 00 00	 call	 ??0CPartyMng@@QAE@XZ	; CPartyMng::CPartyMng
  0000a	68 00 00 00 00	 push	 OFFSET ??__Fg_PartyMng@@YAXXZ ; `dynamic atexit destructor for 'g_PartyMng''
  0000f	e8 00 00 00 00	 call	 _atexit
  00014	59		 pop	 ecx
  00015	c3		 ret	 0
??__Eg_PartyMng@@YAXXZ ENDP				; `dynamic initializer for 'g_PartyMng''
text$di	ENDS
; Function compile flags: /Ogtp
; File C:\Program Files\Microsoft Visual Studio\2022\Professional\VC\Tools\MSVC\14.44.35207\include\xtree
; File C:\Program Files\Microsoft Visual Studio\2022\Professional\VC\Tools\MSVC\14.44.35207\include\type_traits
; File C:\Program Files\Microsoft Visual Studio\2022\Professional\VC\Tools\MSVC\14.44.35207\include\xtree
; File C:\Program Files\Microsoft Visual Studio\2022\Professional\VC\Tools\MSVC\14.44.35207\include\utility
; File C:\Program Files\Microsoft Visual Studio\2022\Professional\VC\Tools\MSVC\14.44.35207\include\xtree
; File C:\Program Files\Microsoft Visual Studio\2022\Professional\VC\Tools\MSVC\14.44.35207\include\xmemory
; File C:\Program Files\Microsoft Visual Studio\2022\Professional\VC\Tools\MSVC\14.44.35207\include\xtree
; File C:\Program Files\Microsoft Visual Studio\2022\Professional\VC\Tools\MSVC\14.44.35207\include\xmemory
; File C:\Program Files\Microsoft Visual Studio\2022\Professional\VC\Tools\MSVC\14.44.35207\include\xtree
; File C:\Program Files\Microsoft Visual Studio\2022\Professional\VC\Tools\MSVC\14.44.35207\include\xmemory
; File C:\Program Files\Microsoft Visual Studio\2022\Professional\VC\Tools\MSVC\14.44.35207\include\xtree
; File C:\Program Files\Microsoft Visual Studio\2022\Professional\VC\Tools\MSVC\14.44.35207\include\utility
; File C:\Program Files\Microsoft Visual Studio\2022\Professional\VC\Tools\MSVC\14.44.35207\include\xtree
;	COMDAT ??$insert@$0A@$0A@@?$_Tree@V?$_Tmap_traits@KPAVCParty@@U?$less@K@std@@V?$allocator@U?$pair@$$CBKPAVCParty@@@std@@@3@$0A@@std@@@std@@QAE?AU?$pair@V?$_Tree_iterator@V?$_Tree_val@U?$_Tree_simple_types@U?$pair@$$CBKPAVCParty@@@std@@@std@@@std@@@std@@_N@1@$$QAU?$pair@$$CBKPAVCParty@@@1@@Z
_TEXT	SEGMENT
__Loc$2 = -36						; size = 12
$T3 = -24						; size = 12
$T4 = -20						; size = 8
__$EHRec$ = -12						; size = 12
___$ReturnUdt$ = 8					; size = 4
__Val$ = 12						; size = 4
??$insert@$0A@$0A@@?$_Tree@V?$_Tmap_traits@KPAVCParty@@U?$less@K@std@@V?$allocator@U?$pair@$$CBKPAVCParty@@@std@@@3@$0A@@std@@@std@@QAE?AU?$pair@V?$_Tree_iterator@V?$_Tree_val@U?$_Tree_simple_types@U?$pair@$$CBKPAVCParty@@@std@@@std@@@std@@@std@@_N@1@$$QAU?$pair@$$CBKPAVCParty@@@1@@Z PROC ; std::_Tree<std::_Tmap_traits<unsigned long,CParty *,std::less<unsigned long>,std::allocator<std::pair<unsigned long const ,CParty *> >,0> >::insert<0,0>, COMDAT
; _this$ = ecx

; 1245 :     pair<iterator, bool> insert(value_type&& _Val) {

  00000	55		 push	 ebp
  00001	8b ec		 mov	 ebp, esp
  00003	6a ff		 push	 -1
  00005	68 00 00 00 00	 push	 __ehhandler$??$insert@$0A@$0A@@?$_Tree@V?$_Tmap_traits@KPAVCParty@@U?$less@K@std@@V?$allocator@U?$pair@$$CBKPAVCParty@@@std@@@3@$0A@@std@@@std@@QAE?AU?$pair@V?$_Tree_iterator@V?$_Tree_val@U?$_Tree_simple_types@U?$pair@$$CBKPAVCParty@@@std@@@std@@@std@@@std@@_N@1@$$QAU?$pair@$$CBKPAVCParty@@@1@@Z
  0000a	64 a1 00 00 00
	00		 mov	 eax, DWORD PTR fs:0
  00010	50		 push	 eax
  00011	83 ec 18	 sub	 esp, 24			; 00000018H
  00014	53		 push	 ebx
  00015	56		 push	 esi
  00016	57		 push	 edi
  00017	a1 00 00 00 00	 mov	 eax, DWORD PTR ___security_cookie
  0001c	33 c5		 xor	 eax, ebp
  0001e	50		 push	 eax
  0001f	8d 45 f4	 lea	 eax, DWORD PTR __$EHRec$[ebp]
  00022	64 a3 00 00 00
	00		 mov	 DWORD PTR fs:0, eax
  00028	8b f9		 mov	 edi, ecx

; 1017 :             _Loc                = _Find_lower_bound(_Keyval);

  0002a	8b 5d 0c	 mov	 ebx, DWORD PTR __Val$[ebp]
  0002d	8d 45 e8	 lea	 eax, DWORD PTR $T3[ebp]
  00030	53		 push	 ebx
  00031	50		 push	 eax
  00032	e8 00 00 00 00	 call	 ??$_Find_lower_bound@K@?$_Tree@V?$_Tmap_traits@KPAVCParty@@U?$less@K@std@@V?$allocator@U?$pair@$$CBKPAVCParty@@@std@@@3@$0A@@std@@@std@@IBE?AU?$_Tree_find_result@PAU?$_Tree_node@U?$pair@$$CBKPAVCParty@@@std@@PAX@std@@@1@ABK@Z ; std::_Tree<std::_Tmap_traits<unsigned long,CParty *,std::less<unsigned long>,std::allocator<std::pair<unsigned long const ,CParty *> >,0> >::_Find_lower_bound<unsigned long>
  00037	8b 48 08	 mov	 ecx, DWORD PTR [eax+8]
  0003a	f3 0f 7e 00	 movq	 xmm0, QWORD PTR [eax]
  0003e	66 0f d6 45 dc	 movq	 QWORD PTR __Loc$2[ebp], xmm0

; 1624 :         return !_Bound->_Isnil && !_DEBUG_LT_PRED(_Getcomp(), _Keyval, _Traits::_Kfn(_Bound->_Myval));

  00043	80 79 0d 00	 cmp	 BYTE PTR [ecx+13], 0
  00047	75 0b		 jne	 SHORT $LN4@insert
; File C:\Program Files\Microsoft Visual Studio\2022\Professional\VC\Tools\MSVC\14.44.35207\include\type_traits

; 2380 :         return _Left < _Right;

  00049	8b 03		 mov	 eax, DWORD PTR [ebx]
  0004b	3b 41 10	 cmp	 eax, DWORD PTR [ecx+16]
; File C:\Program Files\Microsoft Visual Studio\2022\Professional\VC\Tools\MSVC\14.44.35207\include\xtree

; 1624 :         return !_Bound->_Isnil && !_DEBUG_LT_PRED(_Getcomp(), _Keyval, _Traits::_Kfn(_Bound->_Myval));

  0004e	72 04		 jb	 SHORT $LN4@insert
; File C:\Program Files\Microsoft Visual Studio\2022\Professional\VC\Tools\MSVC\14.44.35207\include\utility

; 274  :         : first(_STD forward<_Other1>(_Val1)), second(_STD forward<_Other2>(_Val2)) {

  00050	32 d2		 xor	 dl, dl
; File C:\Program Files\Microsoft Visual Studio\2022\Professional\VC\Tools\MSVC\14.44.35207\include\xtree

; 1019 :                 return {_Loc._Bound, false};

  00052	eb 51		 jmp	 SHORT $LN84@insert
$LN4@insert:

; 1648 :         if (max_size() == _Get_scary()->_Mysize) {

  00054	81 7f 04 aa aa
	aa 0a		 cmp	 DWORD PTR [edi+4], 178956970 ; 0aaaaaaaH
  0005b	74 64		 je	 SHORT $LN103@insert

; 1023 :             _Inserted = _Tree_temp_node<_Alnode>(_Getal(), _Scary->_Myhead, _STD forward<_Valtys>(_Vals)...)._Release();

  0005d	8b 37		 mov	 esi, DWORD PTR [edi]
; File C:\Program Files\Microsoft Visual Studio\2022\Professional\VC\Tools\MSVC\14.44.35207\include\xmemory

; 1160 :     _CONSTEXPR20 explicit _Alloc_construct_ptr(_Alloc& _Al_) : _Al(_Al_), _Ptr(nullptr) {}

  0005f	89 7d ec	 mov	 DWORD PTR $T4[ebp], edi

; 136  :         return ::operator new(_Bytes);

  00062	6a 18		 push	 24			; 00000018H
; File C:\Program Files\Microsoft Visual Studio\2022\Professional\VC\Tools\MSVC\14.44.35207\include\xtree

; 808  :     explicit _Tree_temp_node_alloc(_Alnode& _Al_) : _Alloc_construct_ptr<_Alnode>(_Al_) {

  00064	c7 45 fc 00 00
	00 00		 mov	 DWORD PTR __$EHRec$[ebp+8], 0
; File C:\Program Files\Microsoft Visual Studio\2022\Professional\VC\Tools\MSVC\14.44.35207\include\xmemory

; 1167 :         _Ptr = nullptr; // if allocate throws, prevents double-free

  0006b	c7 45 f0 00 00
	00 00		 mov	 DWORD PTR $T4[ebp+4], 0

; 136  :         return ::operator new(_Bytes);

  00072	e8 00 00 00 00	 call	 ??2@YAPAXI@Z		; operator new
; File C:\Program Files\Microsoft Visual Studio\2022\Professional\VC\Tools\MSVC\14.44.35207\include\xtree

; 830  :         _Alnode_traits::construct(this->_Al, _STD addressof(this->_Ptr->_Myval), _STD forward<_Valtys>(_Vals)...);

  00077	8b 0b		 mov	 ecx, DWORD PTR [ebx]
; File C:\Program Files\Microsoft Visual Studio\2022\Professional\VC\Tools\MSVC\14.44.35207\include\xmemory

; 136  :         return ::operator new(_Bytes);

  00079	83 c4 04	 add	 esp, 4
; File C:\Program Files\Microsoft Visual Studio\2022\Professional\VC\Tools\MSVC\14.44.35207\include\xtree

; 830  :         _Alnode_traits::construct(this->_Al, _STD addressof(this->_Ptr->_Myval), _STD forward<_Valtys>(_Vals)...);

  0007c	8b 53 04	 mov	 edx, DWORD PTR [ebx+4]
  0007f	89 48 10	 mov	 DWORD PTR [eax+16], ecx

; 1042 :         return {_Scary->_Insert_node(_Loc._Location, _Inserted), true};

  00082	8b cf		 mov	 ecx, edi
  00084	50		 push	 eax
  00085	ff 75 e0	 push	 DWORD PTR __Loc$2[ebp+4]

; 830  :         _Alnode_traits::construct(this->_Al, _STD addressof(this->_Ptr->_Myval), _STD forward<_Valtys>(_Vals)...);

  00088	89 50 14	 mov	 DWORD PTR [eax+20], edx

; 1042 :         return {_Scary->_Insert_node(_Loc._Location, _Inserted), true};

  0008b	ff 75 dc	 push	 DWORD PTR __Loc$2[ebp]

; 831  :         _Construct_in_place(this->_Ptr->_Left, _Myhead);

  0008e	89 30		 mov	 DWORD PTR [eax], esi

; 832  :         _Construct_in_place(this->_Ptr->_Parent, _Myhead);

  00090	89 70 04	 mov	 DWORD PTR [eax+4], esi

; 833  :         _Construct_in_place(this->_Ptr->_Right, _Myhead);

  00093	89 70 08	 mov	 DWORD PTR [eax+8], esi

; 834  :         this->_Ptr->_Color = _Red;

  00096	66 c7 40 0c 00
	00		 mov	 WORD PTR [eax+12], 0

; 1042 :         return {_Scary->_Insert_node(_Loc._Location, _Inserted), true};

  0009c	e8 00 00 00 00	 call	 ?_Insert_node@?$_Tree_val@U?$_Tree_simple_types@U?$pair@$$CBKPAVCParty@@@std@@@std@@@std@@QAEPAU?$_Tree_node@U?$pair@$$CBKPAVCParty@@@std@@PAX@2@U?$_Tree_id@PAU?$_Tree_node@U?$pair@$$CBKPAVCParty@@@std@@PAX@std@@@2@QAU32@@Z ; std::_Tree_val<std::_Tree_simple_types<std::pair<unsigned long const ,CParty *> > >::_Insert_node
; File C:\Program Files\Microsoft Visual Studio\2022\Professional\VC\Tools\MSVC\14.44.35207\include\utility

; 274  :         : first(_STD forward<_Other1>(_Val1)), second(_STD forward<_Other2>(_Val2)) {

  000a1	8b c8		 mov	 ecx, eax
  000a3	b2 01		 mov	 dl, 1
$LN84@insert:
  000a5	8b 45 08	 mov	 eax, DWORD PTR ___$ReturnUdt$[ebp]
  000a8	89 08		 mov	 DWORD PTR [eax], ecx
  000aa	88 50 04	 mov	 BYTE PTR [eax+4], dl
; File C:\Program Files\Microsoft Visual Studio\2022\Professional\VC\Tools\MSVC\14.44.35207\include\xtree

; 1248 :     }

  000ad	8b 4d f4	 mov	 ecx, DWORD PTR __$EHRec$[ebp]
  000b0	64 89 0d 00 00
	00 00		 mov	 DWORD PTR fs:0, ecx
  000b7	59		 pop	 ecx
  000b8	5f		 pop	 edi
  000b9	5e		 pop	 esi
  000ba	5b		 pop	 ebx
  000bb	8b e5		 mov	 esp, ebp
  000bd	5d		 pop	 ebp
  000be	c2 08 00	 ret	 8
$LN103@insert:

; 1649 :             _Throw_tree_length_error();

  000c1	e8 00 00 00 00	 call	 ?_Throw_tree_length_error@std@@YAXXZ ; std::_Throw_tree_length_error
$LN101@insert:
  000c6	cc		 int	 3
_TEXT	ENDS
;	COMDAT text$x
text$x	SEGMENT
__unwindfunclet$??$insert@$0A@$0A@@?$_Tree@V?$_Tmap_traits@KPAVCParty@@U?$less@K@std@@V?$allocator@U?$pair@$$CBKPAVCParty@@@std@@@3@$0A@@std@@@std@@QAE?AU?$pair@V?$_Tree_iterator@V?$_Tree_val@U?$_Tree_simple_types@U?$pair@$$CBKPAVCParty@@@std@@@std@@@std@@@std@@_N@1@$$QAU?$pair@$$CBKPAVCParty@@@1@@Z$2:
  00000	8d 4d ec	 lea	 ecx, DWORD PTR $T4[ebp]
  00003	e9 00 00 00 00	 jmp	 ??1?$_Alloc_construct_ptr@V?$allocator@U?$_Tree_node@U?$pair@$$CBKPAVCParty@@@std@@PAX@std@@@std@@@std@@QAE@XZ ; std::_Alloc_construct_ptr<std::allocator<std::_Tree_node<std::pair<unsigned long const ,CParty *>,void *> > >::~_Alloc_construct_ptr<std::allocator<std::_Tree_node<std::pair<unsigned long const ,CParty *>,void *> > >
  00008	cc		 int	 3
  00009	cc		 int	 3
  0000a	cc		 int	 3
  0000b	cc		 int	 3
  0000c	cc		 int	 3
__ehhandler$??$insert@$0A@$0A@@?$_Tree@V?$_Tmap_traits@KPAVCParty@@U?$less@K@std@@V?$allocator@U?$pair@$$CBKPAVCParty@@@std@@@3@$0A@@std@@@std@@QAE?AU?$pair@V?$_Tree_iterator@V?$_Tree_val@U?$_Tree_simple_types@U?$pair@$$CBKPAVCParty@@@std@@@std@@@std@@@std@@_N@1@$$QAU?$pair@$$CBKPAVCParty@@@1@@Z:
  0000d	90		 npad	 1
  0000e	90		 npad	 1
  0000f	8b 54 24 08	 mov	 edx, DWORD PTR [esp+8]
  00013	8d 42 0c	 lea	 eax, DWORD PTR [edx+12]
  00016	8b 4a d8	 mov	 ecx, DWORD PTR [edx-40]
  00019	33 c8		 xor	 ecx, eax
  0001b	e8 00 00 00 00	 call	 @__security_check_cookie@4
  00020	b8 00 00 00 00	 mov	 eax, OFFSET __ehfuncinfo$??$insert@$0A@$0A@@?$_Tree@V?$_Tmap_traits@KPAVCParty@@U?$less@K@std@@V?$allocator@U?$pair@$$CBKPAVCParty@@@std@@@3@$0A@@std@@@std@@QAE?AU?$pair@V?$_Tree_iterator@V?$_Tree_val@U?$_Tree_simple_types@U?$pair@$$CBKPAVCParty@@@std@@@std@@@std@@@std@@_N@1@$$QAU?$pair@$$CBKPAVCParty@@@1@@Z
  00025	e9 00 00 00 00	 jmp	 ___CxxFrameHandler3
text$x	ENDS
??$insert@$0A@$0A@@?$_Tree@V?$_Tmap_traits@KPAVCParty@@U?$less@K@std@@V?$allocator@U?$pair@$$CBKPAVCParty@@@std@@@3@$0A@@std@@@std@@QAE?AU?$pair@V?$_Tree_iterator@V?$_Tree_val@U?$_Tree_simple_types@U?$pair@$$CBKPAVCParty@@@std@@@std@@@std@@@std@@_N@1@$$QAU?$pair@$$CBKPAVCParty@@@1@@Z ENDP ; std::_Tree<std::_Tmap_traits<unsigned long,CParty *,std::less<unsigned long>,std::allocator<std::pair<unsigned long const ,CParty *> >,0> >::insert<0,0>
; Function compile flags: /Ogtp
; File C:\Program Files\Microsoft Visual Studio\2022\Professional\VC\Tools\MSVC\14.44.35207\include\xtree
;	COMDAT ??E?$_Tree_unchecked_const_iterator@V?$_Tree_val@U?$_Tree_simple_types@U?$pair@$$CBKPAVCParty@@@std@@@std@@@std@@U_Iterator_base0@2@@std@@QAEAAV01@XZ
_TEXT	SEGMENT
??E?$_Tree_unchecked_const_iterator@V?$_Tree_val@U?$_Tree_simple_types@U?$pair@$$CBKPAVCParty@@@std@@@std@@@std@@U_Iterator_base0@2@@std@@QAEAAV01@XZ PROC ; std::_Tree_unchecked_const_iterator<std::_Tree_val<std::_Tree_simple_types<std::pair<unsigned long const ,CParty *> > >,std::_Iterator_base0>::operator++, COMDAT
; _this$ = ecx

; 49   :     _Tree_unchecked_const_iterator& operator++() noexcept {

  00000	56		 push	 esi
  00001	8b f1		 mov	 esi, ecx
  00003	57		 push	 edi

; 50   :         if (_Ptr->_Right->_Isnil) { // climb looking for right subtree

  00004	8b 16		 mov	 edx, DWORD PTR [esi]
  00006	8b 7a 08	 mov	 edi, DWORD PTR [edx+8]
  00009	80 7f 0d 00	 cmp	 BYTE PTR [edi+13], 0
  0000d	74 22		 je	 SHORT $LN4@operator

; 51   :             _Nodeptr _Pnode;
; 52   :             while (!(_Pnode = _Ptr->_Parent)->_Isnil && _Ptr == _Pnode->_Right) {

  0000f	8b 42 04	 mov	 eax, DWORD PTR [edx+4]
  00012	80 78 0d 00	 cmp	 BYTE PTR [eax+13], 0
  00016	75 12		 jne	 SHORT $LN21@operator
$LL2@operator:
  00018	3b 50 08	 cmp	 edx, DWORD PTR [eax+8]
  0001b	75 0d		 jne	 SHORT $LN21@operator

; 53   :                 _Ptr = _Pnode; // ==> parent while right subtree

  0001d	89 06		 mov	 DWORD PTR [esi], eax
  0001f	8b d0		 mov	 edx, eax
  00021	8b 40 04	 mov	 eax, DWORD PTR [eax+4]
  00024	80 78 0d 00	 cmp	 BYTE PTR [eax+13], 0
  00028	74 ee		 je	 SHORT $LL2@operator
$LN21@operator:

; 54   :             }
; 55   : 
; 56   :             _Ptr = _Pnode; // ==> parent (head if end())
; 57   :         } else {
; 58   :             _Ptr = _Mytree::_Min(_Ptr->_Right); // ==> smallest of right subtree
; 59   :         }
; 60   : 
; 61   :         return *this;

  0002a	89 06		 mov	 DWORD PTR [esi], eax

; 62   :     }

  0002c	8b c6		 mov	 eax, esi
  0002e	5f		 pop	 edi
  0002f	5e		 pop	 esi
  00030	c3		 ret	 0
$LN4@operator:

; 476  :         while (!_Pnode->_Left->_Isnil) {

  00031	8b 0f		 mov	 ecx, DWORD PTR [edi]
  00033	80 79 0d 00	 cmp	 BYTE PTR [ecx+13], 0
  00037	75 13		 jne	 SHORT $LN10@operator
  00039	0f 1f 80 00 00
	00 00		 npad	 7
$LL9@operator:
  00040	8b 01		 mov	 eax, DWORD PTR [ecx]

; 477  :             _Pnode = _Pnode->_Left;

  00042	8b f9		 mov	 edi, ecx
  00044	8b c8		 mov	 ecx, eax
  00046	80 78 0d 00	 cmp	 BYTE PTR [eax+13], 0
  0004a	74 f4		 je	 SHORT $LL9@operator
$LN10@operator:

; 54   :             }
; 55   : 
; 56   :             _Ptr = _Pnode; // ==> parent (head if end())
; 57   :         } else {
; 58   :             _Ptr = _Mytree::_Min(_Ptr->_Right); // ==> smallest of right subtree
; 59   :         }
; 60   : 
; 61   :         return *this;

  0004c	89 3e		 mov	 DWORD PTR [esi], edi

; 62   :     }

  0004e	8b c6		 mov	 eax, esi
  00050	5f		 pop	 edi
  00051	5e		 pop	 esi
  00052	c3		 ret	 0
??E?$_Tree_unchecked_const_iterator@V?$_Tree_val@U?$_Tree_simple_types@U?$pair@$$CBKPAVCParty@@@std@@@std@@@std@@U_Iterator_base0@2@@std@@QAEAAV01@XZ ENDP ; std::_Tree_unchecked_const_iterator<std::_Tree_val<std::_Tree_simple_types<std::pair<unsigned long const ,CParty *> > >,std::_Iterator_base0>::operator++
_TEXT	ENDS
; Function compile flags: /Ogtp
;	COMDAT ??__Fg_Party@@YAXXZ
text$yd	SEGMENT
??__Fg_Party@@YAXXZ PROC				; `dynamic atexit destructor for 'g_Party'', COMDAT
  00000	b9 00 00 00 00	 mov	 ecx, OFFSET ?g_Party@@3VCParty@@A ; g_Party
  00005	e9 00 00 00 00	 jmp	 ??1CParty@@QAE@XZ	; CParty::~CParty
??__Fg_Party@@YAXXZ ENDP				; `dynamic atexit destructor for 'g_Party''
text$yd	ENDS
; Function compile flags: /Ogtp
; File C:\IAGOS\server\v18\Source\Source\_common\party.cpp
;	COMDAT ??__Eg_Party@@YAXXZ
text$di	SEGMENT
??__Eg_Party@@YAXXZ PROC				; `dynamic initializer for 'g_Party'', COMDAT

; 838  : CParty g_Party;

  00000	b9 00 00 00 00	 mov	 ecx, OFFSET ?g_Party@@3VCParty@@A ; g_Party
  00005	e8 00 00 00 00	 call	 ??0CParty@@QAE@XZ	; CParty::CParty
  0000a	68 00 00 00 00	 push	 OFFSET ??__Fg_Party@@YAXXZ ; `dynamic atexit destructor for 'g_Party''
  0000f	e8 00 00 00 00	 call	 _atexit
  00014	59		 pop	 ecx
  00015	c3		 ret	 0
??__Eg_Party@@YAXXZ ENDP				; `dynamic initializer for 'g_Party''
text$di	ENDS
; Function compile flags: /Ogtp
; File C:\IAGOS\server\v18\Source\Source\_Network\Misc\Include\ar.h
;	COMDAT ??$?5J@CAr@@QAEAAV0@AAJ@Z
_TEXT	SEGMENT
_t$ = 8							; size = 4
??$?5J@CAr@@QAEAAV0@AAJ@Z PROC				; CAr::operator>><long>, COMDAT
; _this$ = ecx

; 302  : {

  00000	55		 push	 ebp
  00001	8b ec		 mov	 ebp, esp
  00003	8b d1		 mov	 edx, ecx

; 303  : 	if (m_lpBufCur + sizeof(T) <= m_lpBufMax)

  00005	8b 4a 08	 mov	 ecx, DWORD PTR [edx+8]
  00008	8d 41 04	 lea	 eax, DWORD PTR [ecx+4]
  0000b	3b 42 0c	 cmp	 eax, DWORD PTR [edx+12]
  0000e	8b 45 08	 mov	 eax, DWORD PTR _t$[ebp]
  00011	77 0e		 ja	 SHORT $LN2@operator

; 304  : 	{
; 305  : 		t = *(UNALIGNED T*)m_lpBufCur;

  00013	8b 09		 mov	 ecx, DWORD PTR [ecx]
  00015	89 08		 mov	 DWORD PTR [eax], ecx

; 312  : 	}
; 313  : 	return *this;
; 314  : }

  00017	8b c2		 mov	 eax, edx
  00019	83 42 08 04	 add	 DWORD PTR [edx+8], 4
  0001d	5d		 pop	 ebp
  0001e	c2 04 00	 ret	 4
$LN2@operator:

; 306  : 		m_lpBufCur += sizeof(T);
; 307  : 	}
; 308  : 	else
; 309  : 	{
; 310  : 		t = T();

  00021	c7 00 00 00 00
	00		 mov	 DWORD PTR [eax], 0

; 311  : 		m_lpBufCur = m_lpBufMax;

  00027	8b 42 0c	 mov	 eax, DWORD PTR [edx+12]
  0002a	89 42 08	 mov	 DWORD PTR [edx+8], eax

; 312  : 	}
; 313  : 	return *this;
; 314  : }

  0002d	8b c2		 mov	 eax, edx
  0002f	5d		 pop	 ebp
  00030	c2 04 00	 ret	 4
??$?5J@CAr@@QAEAAV0@AAJ@Z ENDP				; CAr::operator>><long>
_TEXT	ENDS
; Function compile flags: /Ogtp
; File C:\IAGOS\server\v18\Source\Source\_Network\Misc\Include\ar.h
;	COMDAT ??$?5K@CAr@@QAEAAV0@AAK@Z
_TEXT	SEGMENT
_t$ = 8							; size = 4
??$?5K@CAr@@QAEAAV0@AAK@Z PROC				; CAr::operator>><unsigned long>, COMDAT
; _this$ = ecx

; 302  : {

  00000	55		 push	 ebp
  00001	8b ec		 mov	 ebp, esp
  00003	8b d1		 mov	 edx, ecx

; 303  : 	if (m_lpBufCur + sizeof(T) <= m_lpBufMax)

  00005	8b 4a 08	 mov	 ecx, DWORD PTR [edx+8]
  00008	8d 41 04	 lea	 eax, DWORD PTR [ecx+4]
  0000b	3b 42 0c	 cmp	 eax, DWORD PTR [edx+12]
  0000e	8b 45 08	 mov	 eax, DWORD PTR _t$[ebp]
  00011	77 0e		 ja	 SHORT $LN2@operator

; 304  : 	{
; 305  : 		t = *(UNALIGNED T*)m_lpBufCur;

  00013	8b 09		 mov	 ecx, DWORD PTR [ecx]
  00015	89 08		 mov	 DWORD PTR [eax], ecx

; 312  : 	}
; 313  : 	return *this;
; 314  : }

  00017	8b c2		 mov	 eax, edx
  00019	83 42 08 04	 add	 DWORD PTR [edx+8], 4
  0001d	5d		 pop	 ebp
  0001e	c2 04 00	 ret	 4
$LN2@operator:

; 306  : 		m_lpBufCur += sizeof(T);
; 307  : 	}
; 308  : 	else
; 309  : 	{
; 310  : 		t = T();

  00021	c7 00 00 00 00
	00		 mov	 DWORD PTR [eax], 0

; 311  : 		m_lpBufCur = m_lpBufMax;

  00027	8b 42 0c	 mov	 eax, DWORD PTR [edx+12]
  0002a	89 42 08	 mov	 DWORD PTR [edx+8], eax

; 312  : 	}
; 313  : 	return *this;
; 314  : }

  0002d	8b c2		 mov	 eax, edx
  0002f	5d		 pop	 ebp
  00030	c2 04 00	 ret	 4
??$?5K@CAr@@QAEAAV0@AAK@Z ENDP				; CAr::operator>><unsigned long>
_TEXT	ENDS
; Function compile flags: /Ogtp
; File C:\IAGOS\server\v18\Source\Source\_Network\Misc\Include\ar.h
;	COMDAT ??$?6J@CAr@@QAEAAV0@ABJ@Z
_TEXT	SEGMENT
_t$ = 8							; size = 4
??$?6J@CAr@@QAEAAV0@ABJ@Z PROC				; CAr::operator<<<long>, COMDAT
; _this$ = ecx

; 255  : {

  00000	55		 push	 ebp
  00001	8b ec		 mov	 ebp, esp
  00003	56		 push	 esi

; 256  : 	CheckBuf(sizeof(T));

  00004	6a 04		 push	 4
  00006	8b f1		 mov	 esi, ecx
  00008	e8 00 00 00 00	 call	 ?CheckBuf@CAr@@QAEXI@Z	; CAr::CheckBuf

; 257  : 	*(UNALIGNED T*)m_lpBufCur = t;

  0000d	8b 56 08	 mov	 edx, DWORD PTR [esi+8]
  00010	8b 45 08	 mov	 eax, DWORD PTR _t$[ebp]
  00013	8b 00		 mov	 eax, DWORD PTR [eax]
  00015	89 02		 mov	 DWORD PTR [edx], eax

; 258  : 	m_lpBufCur += sizeof(T);
; 259  : 	return *this;

  00017	8b c6		 mov	 eax, esi
  00019	83 46 08 04	 add	 DWORD PTR [esi+8], 4
  0001d	5e		 pop	 esi

; 260  : }

  0001e	5d		 pop	 ebp
  0001f	c2 04 00	 ret	 4
??$?6J@CAr@@QAEAAV0@ABJ@Z ENDP				; CAr::operator<<<long>
_TEXT	ENDS
; Function compile flags: /Ogtp
; File C:\IAGOS\server\v18\Source\Source\_Network\Misc\Include\ar.h
;	COMDAT ??$?6K@CAr@@QAEAAV0@ABK@Z
_TEXT	SEGMENT
_t$ = 8							; size = 4
??$?6K@CAr@@QAEAAV0@ABK@Z PROC				; CAr::operator<<<unsigned long>, COMDAT
; _this$ = ecx

; 255  : {

  00000	55		 push	 ebp
  00001	8b ec		 mov	 ebp, esp
  00003	56		 push	 esi

; 256  : 	CheckBuf(sizeof(T));

  00004	6a 04		 push	 4
  00006	8b f1		 mov	 esi, ecx
  00008	e8 00 00 00 00	 call	 ?CheckBuf@CAr@@QAEXI@Z	; CAr::CheckBuf

; 257  : 	*(UNALIGNED T*)m_lpBufCur = t;

  0000d	8b 56 08	 mov	 edx, DWORD PTR [esi+8]
  00010	8b 45 08	 mov	 eax, DWORD PTR _t$[ebp]
  00013	8b 00		 mov	 eax, DWORD PTR [eax]
  00015	89 02		 mov	 DWORD PTR [edx], eax

; 258  : 	m_lpBufCur += sizeof(T);
; 259  : 	return *this;

  00017	8b c6		 mov	 eax, esi
  00019	83 46 08 04	 add	 DWORD PTR [esi+8], 4
  0001d	5e		 pop	 esi

; 260  : }

  0001e	5d		 pop	 ebp
  0001f	c2 04 00	 ret	 4
??$?6K@CAr@@QAEAAV0@ABK@Z ENDP				; CAr::operator<<<unsigned long>
_TEXT	ENDS
; Function compile flags: /Ogtp
; File C:\IAGOS\server\v18\Source\Source\_Network\Misc\Include\ar.h
;	COMDAT ??$?5H@CAr@@QAEAAV0@AAH@Z
_TEXT	SEGMENT
_t$ = 8							; size = 4
??$?5H@CAr@@QAEAAV0@AAH@Z PROC				; CAr::operator>><int>, COMDAT
; _this$ = ecx

; 302  : {

  00000	55		 push	 ebp
  00001	8b ec		 mov	 ebp, esp
  00003	8b d1		 mov	 edx, ecx

; 303  : 	if (m_lpBufCur + sizeof(T) <= m_lpBufMax)

  00005	8b 4a 08	 mov	 ecx, DWORD PTR [edx+8]
  00008	8d 41 04	 lea	 eax, DWORD PTR [ecx+4]
  0000b	3b 42 0c	 cmp	 eax, DWORD PTR [edx+12]
  0000e	8b 45 08	 mov	 eax, DWORD PTR _t$[ebp]
  00011	77 0e		 ja	 SHORT $LN2@operator

; 304  : 	{
; 305  : 		t = *(UNALIGNED T*)m_lpBufCur;

  00013	8b 09		 mov	 ecx, DWORD PTR [ecx]
  00015	89 08		 mov	 DWORD PTR [eax], ecx

; 312  : 	}
; 313  : 	return *this;
; 314  : }

  00017	8b c2		 mov	 eax, edx
  00019	83 42 08 04	 add	 DWORD PTR [edx+8], 4
  0001d	5d		 pop	 ebp
  0001e	c2 04 00	 ret	 4
$LN2@operator:

; 306  : 		m_lpBufCur += sizeof(T);
; 307  : 	}
; 308  : 	else
; 309  : 	{
; 310  : 		t = T();

  00021	c7 00 00 00 00
	00		 mov	 DWORD PTR [eax], 0

; 311  : 		m_lpBufCur = m_lpBufMax;

  00027	8b 42 0c	 mov	 eax, DWORD PTR [edx+12]
  0002a	89 42 08	 mov	 DWORD PTR [edx+8], eax

; 312  : 	}
; 313  : 	return *this;
; 314  : }

  0002d	8b c2		 mov	 eax, edx
  0002f	5d		 pop	 ebp
  00030	c2 04 00	 ret	 4
??$?5H@CAr@@QAEAAV0@AAH@Z ENDP				; CAr::operator>><int>
_TEXT	ENDS
; Function compile flags: /Ogtp
; File C:\IAGOS\server\v18\Source\Source\_Network\Misc\Include\ar.h
;	COMDAT ??$?6H@CAr@@QAEAAV0@ABH@Z
_TEXT	SEGMENT
_t$ = 8							; size = 4
??$?6H@CAr@@QAEAAV0@ABH@Z PROC				; CAr::operator<<<int>, COMDAT
; _this$ = ecx

; 255  : {

  00000	55		 push	 ebp
  00001	8b ec		 mov	 ebp, esp
  00003	56		 push	 esi

; 256  : 	CheckBuf(sizeof(T));

  00004	6a 04		 push	 4
  00006	8b f1		 mov	 esi, ecx
  00008	e8 00 00 00 00	 call	 ?CheckBuf@CAr@@QAEXI@Z	; CAr::CheckBuf

; 257  : 	*(UNALIGNED T*)m_lpBufCur = t;

  0000d	8b 56 08	 mov	 edx, DWORD PTR [esi+8]
  00010	8b 45 08	 mov	 eax, DWORD PTR _t$[ebp]
  00013	8b 00		 mov	 eax, DWORD PTR [eax]
  00015	89 02		 mov	 DWORD PTR [edx], eax

; 258  : 	m_lpBufCur += sizeof(T);
; 259  : 	return *this;

  00017	8b c6		 mov	 eax, esi
  00019	83 46 08 04	 add	 DWORD PTR [esi+8], 4
  0001d	5e		 pop	 esi

; 260  : }

  0001e	5d		 pop	 ebp
  0001f	c2 04 00	 ret	 4
??$?6H@CAr@@QAEAAV0@ABH@Z ENDP				; CAr::operator<<<int>
_TEXT	ENDS
; Function compile flags: /Ogtp
; File C:\IAGOS\server\v18\Source\Source\_common\party.cpp
; File C:\Program Files\Microsoft Visual Studio\2022\Professional\VC\Tools\MSVC\14.44.35207\include\xtree
; File C:\IAGOS\server\v18\Source\Source\_common\party.cpp
; File C:\Program Files\Microsoft Visual Studio\2022\Professional\VC\Tools\MSVC\14.44.35207\include\xtree
; File C:\IAGOS\server\v18\Source\Source\_common\party.cpp
; File C:\Program Files\Microsoft Visual Studio\2022\Professional\VC\Tools\MSVC\14.44.35207\include\xtree
; File C:\Program Files\Microsoft Visual Studio\2022\Professional\VC\Tools\MSVC\14.44.35207\include\type_traits
; File C:\Program Files\Microsoft Visual Studio\2022\Professional\VC\Tools\MSVC\14.44.35207\include\xtree
; File C:\Program Files\Microsoft Visual Studio\2022\Professional\VC\Tools\MSVC\14.44.35207\include\type_traits
; File C:\Program Files\Microsoft Visual Studio\2022\Professional\VC\Tools\MSVC\14.44.35207\include\xtree
; File C:\IAGOS\server\v18\Source\Source\_Common\Project.h
; File C:\IAGOS\server\v18\Source\Source\_Common\Obj.h
; File C:\IAGOS\server\v18\Source\Source\_common\party.h
; File C:\IAGOS\server\v18\Source\Source\_Common\Obj.h
; File C:\IAGOS\server\v18\Source\Source\DX_SDK\d3dx9math.inl
; File C:\IAGOS\server\v18\Source\Source\_common\party.h
; File C:\IAGOS\server\v18\Source\Source\_Common\Obj.h
; File C:\IAGOS\server\v18\Source\Source\DX_SDK\d3dx9math.inl
; File C:\IAGOS\server\v18\Source\Source\_common\party.cpp
; File C:\IAGOS\server\v18\Source\Source\DX_SDK\d3dx9math.inl
; File C:\IAGOS\server\v18\Source\Source\_common\party.cpp
; File C:\IAGOS\server\v18\Source\Source\_common\party.h
; File C:\IAGOS\server\v18\Source\Source\_common\party.cpp
; File C:\Program Files\Microsoft Visual Studio\2022\Professional\VC\Tools\MSVC\14.44.35207\include\xtree
; File C:\Program Files\Microsoft Visual Studio\2022\Professional\VC\Tools\MSVC\14.44.35207\include\type_traits
; File C:\Program Files\Microsoft Visual Studio\2022\Professional\VC\Tools\MSVC\14.44.35207\include\xtree
; File C:\Program Files\Microsoft Visual Studio\2022\Professional\VC\Tools\MSVC\14.44.35207\include\type_traits
; File C:\Program Files\Microsoft Visual Studio\2022\Professional\VC\Tools\MSVC\14.44.35207\include\xtree
; File C:\IAGOS\server\v18\Source\Source\_Common\Project.h
; File C:\IAGOS\server\v18\Source\Source\_Common\Obj.h
; File C:\IAGOS\server\v18\Source\Source\DX_SDK\d3dx9math.inl
; File C:\IAGOS\server\v18\Source\Source\_Common\Obj.h
; File C:\IAGOS\server\v18\Source\Source\DX_SDK\d3dx9math.inl
; File C:\IAGOS\server\v18\Source\Source\_common\party.cpp
; File C:\IAGOS\server\v18\Source\Source\DX_SDK\d3dx9math.inl
; File C:\IAGOS\server\v18\Source\Source\_common\party.cpp
; File C:\Program Files\Microsoft Visual Studio\2022\Professional\VC\Tools\MSVC\14.44.35207\include\xtree
; File C:\IAGOS\server\v18\Source\Source\_common\party.cpp
;	COMDAT ?PartyMapInfo@CPartyMng@@QAEXXZ
_TEXT	SEGMENT
$T3 = -72						; size = 12
$T4 = -60						; size = 12
$T5 = -48						; size = 12
$T6 = -36						; size = 12
_this$GSCopy$1$ = -24					; size = 4
_i$7 = -20						; size = 4
tv1379 = -16						; size = 4
tv1381 = -12						; size = 4
_pParty$1$ = -8						; size = 4
_j$1$ = -4						; size = 4
?PartyMapInfo@CPartyMng@@QAEXXZ PROC			; CPartyMng::PartyMapInfo, COMDAT
; _this$ = ecx

; 1269 : {

  00000	55		 push	 ebp
  00001	8b ec		 mov	 ebp, esp
  00003	83 ec 48	 sub	 esp, 72			; 00000048H

; 1270 : 	const float PARTY_MAP_AROUND = 32.0f * 32.0f;	// m_nVisibilityRangeżˇ żµÇâŔ» ąŢ´Â´Ů.
; 1271 : 
; 1272 : 	if( ++m_nSecCount < PARTY_MAP_SEC )

  00006	8b 41 0c	 mov	 eax, DWORD PTR [ecx+12]
  00009	53		 push	 ebx
  0000a	40		 inc	 eax
  0000b	89 4d e8	 mov	 DWORD PTR _this$GSCopy$1$[ebp], ecx
  0000e	89 41 0c	 mov	 DWORD PTR [ecx+12], eax
  00011	56		 push	 esi
  00012	57		 push	 edi
  00013	83 f8 0a	 cmp	 eax, 10			; 0000000aH
  00016	0f 8c 69 02 00
	00		 jl	 $LN3@PartyMapIn

; 1273 : 		return;
; 1274 : 
; 1275 : 	m_nSecCount = 0;

  0001c	c7 41 0c 00 00
	00 00		 mov	 DWORD PTR [ecx+12], 0
; File C:\Program Files\Microsoft Visual Studio\2022\Professional\VC\Tools\MSVC\14.44.35207\include\xtree

; 1142 :         return iterator(_Scary->_Myhead->_Left, _Scary);

  00023	8b 49 04	 mov	 ecx, DWORD PTR [ecx+4]

; 37   :     _Tree_unchecked_const_iterator(_Nodeptr _Pnode, const _Mytree* _Plist) noexcept : _Ptr(_Pnode) {

  00026	8b 01		 mov	 eax, DWORD PTR [ecx]
  00028	89 45 ec	 mov	 DWORD PTR _i$7[ebp], eax

; 237  :         return !(*this == _Right);

  0002b	3b c1		 cmp	 eax, ecx
; File C:\IAGOS\server\v18\Source\Source\_common\party.cpp

; 1279 : 	for( C2PartyPtr::iterator i	= m_2PartyPtr.begin(); i != m_2PartyPtr.end(); ++i )

  0002d	0f 84 52 02 00
	00		 je	 $LN3@PartyMapIn
  00033	8b 35 28 00 00
	00		 mov	 esi, DWORD PTR ?prj@@3VCProject@@A+40
  00039	0f 57 db	 xorps	 xmm3, xmm3
  0003c	0f 1f 40 00	 npad	 4
$LL4@PartyMapIn:

; 1280 : 	{
; 1281 : 		CParty* pParty = (CParty*)i->second;

  00040	8b 40 14	 mov	 eax, DWORD PTR [eax+20]
  00043	89 45 f8	 mov	 DWORD PTR _pParty$1$[ebp], eax

; 1282 : 		for( int j = 0 ; j < pParty->GetSizeofMember() ; ++j )

  00046	c7 45 fc 00 00
	00 00		 mov	 DWORD PTR _j$1$[ebp], 0
  0004d	83 b8 cc 01 00
	00 00		 cmp	 DWORD PTR [eax+460], 0
  00054	0f 8e 11 02 00
	00		 jle	 $LN2@PartyMapIn

; 1280 : 	{
; 1281 : 		CParty* pParty = (CParty*)i->second;

  0005a	8d 78 38	 lea	 edi, DWORD PTR [eax+56]
  0005d	89 7d f0	 mov	 DWORD PTR tv1379[ebp], edi
$LL7@PartyMapIn:
; File C:\Program Files\Microsoft Visual Studio\2022\Professional\VC\Tools\MSVC\14.44.35207\include\xtree

; 1630 :         _Tree_find_result<_Nodeptr> _Result{{_Scary->_Myhead->_Parent, _Tree_child::_Right}, _Scary->_Myhead};

  00060	8b 46 04	 mov	 eax, DWORD PTR [esi+4]
  00063	8b ce		 mov	 ecx, esi
; File C:\IAGOS\server\v18\Source\Source\_common\party.cpp

; 1284 : 			CMover* pMover = prj.GetUserByID( pParty->GetPlayerId( j ) );

  00065	8b 57 f0	 mov	 edx, DWORD PTR [edi-16]
; File C:\Program Files\Microsoft Visual Studio\2022\Professional\VC\Tools\MSVC\14.44.35207\include\xtree

; 1632 :         while (!_Trynode->_Isnil) {

  00068	80 78 0d 00	 cmp	 BYTE PTR [eax+13], 0
  0006c	75 16		 jne	 SHORT $LN54@PartyMapIn
  0006e	66 90		 npad	 2
$LL53@PartyMapIn:
; File C:\Program Files\Microsoft Visual Studio\2022\Professional\VC\Tools\MSVC\14.44.35207\include\type_traits

; 2380 :         return _Left < _Right;

  00070	39 50 10	 cmp	 DWORD PTR [eax+16], edx
; File C:\Program Files\Microsoft Visual Studio\2022\Professional\VC\Tools\MSVC\14.44.35207\include\xtree

; 1634 :             if (_DEBUG_LT_PRED(_Getcomp(), _Traits::_Kfn(_Trynode->_Myval), _Keyval)) {

  00073	73 05		 jae	 SHORT $LN55@PartyMapIn

; 1635 :                 _Result._Location._Child = _Tree_child::_Right;
; 1636 :                 _Trynode                 = _Trynode->_Right;

  00075	8b 40 08	 mov	 eax, DWORD PTR [eax+8]

; 1637 :             } else {

  00078	eb 04		 jmp	 SHORT $LN56@PartyMapIn
$LN55@PartyMapIn:

; 1638 :                 _Result._Location._Child = _Tree_child::_Left;
; 1639 :                 _Result._Bound           = _Trynode;

  0007a	8b c8		 mov	 ecx, eax

; 1640 :                 _Trynode                 = _Trynode->_Left;

  0007c	8b 00		 mov	 eax, DWORD PTR [eax]
$LN56@PartyMapIn:

; 1632 :         while (!_Trynode->_Isnil) {

  0007e	80 78 0d 00	 cmp	 BYTE PTR [eax+13], 0
  00082	74 ec		 je	 SHORT $LL53@PartyMapIn
$LN54@PartyMapIn:

; 1624 :         return !_Bound->_Isnil && !_DEBUG_LT_PRED(_Getcomp(), _Keyval, _Traits::_Kfn(_Bound->_Myval));

  00084	80 79 0d 00	 cmp	 BYTE PTR [ecx+13], 0
  00088	75 05		 jne	 SHORT $LN50@PartyMapIn
; File C:\Program Files\Microsoft Visual Studio\2022\Professional\VC\Tools\MSVC\14.44.35207\include\type_traits

; 2380 :         return _Left < _Right;

  0008a	3b 51 10	 cmp	 edx, DWORD PTR [ecx+16]
; File C:\Program Files\Microsoft Visual Studio\2022\Professional\VC\Tools\MSVC\14.44.35207\include\xtree

; 1624 :         return !_Bound->_Isnil && !_DEBUG_LT_PRED(_Getcomp(), _Keyval, _Traits::_Kfn(_Bound->_Myval));

  0008d	73 02		 jae	 SHORT $LN49@PartyMapIn
$LN50@PartyMapIn:

; 1389 :         return _Get_scary()->_Myhead;

  0008f	8b ce		 mov	 ecx, esi
$LN49@PartyMapIn:

; 37   :     _Tree_unchecked_const_iterator(_Nodeptr _Pnode, const _Mytree* _Plist) noexcept : _Ptr(_Pnode) {

  00091	3b ce		 cmp	 ecx, esi
; File C:\IAGOS\server\v18\Source\Source\_Common\Project.h

; 1436 : 	if( i != m_idPlayerToUserPtr.end() )

  00093	0f 84 b6 01 00
	00		 je	 $LN5@PartyMapIn

; 1437 : 		return i->second;

  00099	8b 59 14	 mov	 ebx, DWORD PTR [ecx+20]
; File C:\IAGOS\server\v18\Source\Source\_Common\Obj.h

; 327  : 	return pObj && ( pObj->IsDelete() == FALSE ); 

  0009c	85 db		 test	 ebx, ebx
  0009e	0f 84 ab 01 00
	00		 je	 $LN5@PartyMapIn

; 180  : 	BOOL			IsDelete()	{ return (m_dwFlags & OBJ_FLAG_DELETE);  }

  000a4	f6 43 04 01	 test	 BYTE PTR [ebx+4], 1

; 327  : 	return pObj && ( pObj->IsDelete() == FALSE ); 

  000a8	0f 85 a1 01 00
	00		 jne	 $LN5@PartyMapIn
; File C:\IAGOS\server\v18\Source\Source\_common\party.h

; 113  : 	D3DXVECTOR3	GetPos( int i )		{	return m_aMember[i].m_vPos;			}

  000ae	f3 0f 7e 07	 movq	 xmm0, QWORD PTR [edi]
  000b2	8b 47 08	 mov	 eax, DWORD PTR [edi+8]
  000b5	66 0f d6 45 d0	 movq	 QWORD PTR $T5[ebp], xmm0
; File C:\IAGOS\server\v18\Source\Source\_Common\Obj.h

; 215  : 	D3DXVECTOR3		GetPos()	{ return m_vPos; }

  000ba	f3 0f 7e 83 60
	01 00 00	 movq	 xmm0, QWORD PTR [ebx+352]
  000c2	66 0f d6 45 dc	 movq	 QWORD PTR $T6[ebp], xmm0
; File C:\IAGOS\server\v18\Source\Source\DX_SDK\d3dx9math.inl

; 383  :     return D3DXVECTOR3(x - v.x, y - v.y, z - v.z);

  000c7	f3 0f 10 4d dc	 movss	 xmm1, DWORD PTR $T6[ebp]
  000cc	f3 0f 10 55 e0	 movss	 xmm2, DWORD PTR $T6[ebp+4]
  000d1	f3 0f 5c 55 d4	 subss	 xmm2, DWORD PTR $T5[ebp+4]
  000d6	f3 0f 5c 4d d0	 subss	 xmm1, DWORD PTR $T5[ebp]
; File C:\IAGOS\server\v18\Source\Source\_common\party.h

; 113  : 	D3DXVECTOR3	GetPos( int i )		{	return m_aMember[i].m_vPos;			}

  000db	89 45 d8	 mov	 DWORD PTR $T5[ebp+8], eax
; File C:\IAGOS\server\v18\Source\Source\_Common\Obj.h

; 215  : 	D3DXVECTOR3		GetPos()	{ return m_vPos; }

  000de	8b 83 68 01 00
	00		 mov	 eax, DWORD PTR [ebx+360]
  000e4	89 45 e4	 mov	 DWORD PTR $T6[ebp+8], eax
; File C:\IAGOS\server\v18\Source\Source\DX_SDK\d3dx9math.inl

; 383  :     return D3DXVECTOR3(x - v.x, y - v.y, z - v.z);

  000e7	f3 0f 10 45 e4	 movss	 xmm0, DWORD PTR $T6[ebp+8]
  000ec	f3 0f 5c 45 d8	 subss	 xmm0, DWORD PTR $T5[ebp+8]

; 1698 :     return pV->x * pV->x + pV->y * pV->y + pV->z * pV->z;

  000f1	f3 0f 59 d2	 mulss	 xmm2, xmm2
; File C:\IAGOS\server\v18\Source\Source\_common\party.cpp

; 1288 : 			vPosBuf = pMover->GetPos() - pParty->GetPos( j );

  000f5	f3 0f 59 c9	 mulss	 xmm1, xmm1
; File C:\IAGOS\server\v18\Source\Source\DX_SDK\d3dx9math.inl

; 1698 :     return pV->x * pV->x + pV->y * pV->y + pV->z * pV->z;

  000f9	f3 0f 59 c0	 mulss	 xmm0, xmm0
  000fd	f3 0f 58 d1	 addss	 xmm2, xmm1
  00101	f3 0f 58 d0	 addss	 xmm2, xmm0
; File C:\IAGOS\server\v18\Source\Source\_common\party.cpp

; 1290 : 			if( 0.0f < fDist )

  00105	0f 2f d3	 comiss	 xmm2, xmm3
  00108	0f 86 41 01 00
	00		 jbe	 $LN5@PartyMapIn

; 1291 : 			{
; 1292 : 				pParty->SetPos( j, pMover->GetPos() );

  0010e	f3 0f 7e 83 60
	01 00 00	 movq	 xmm0, QWORD PTR [ebx+352]
; File C:\IAGOS\server\v18\Source\Source\_common\party.h

; 114  : 	void	SetPos( int i, D3DXVECTOR3 vPos )	{ m_aMember[i].m_vPos = vPos; }

  00116	66 0f d6 07	 movq	 QWORD PTR [edi], xmm0
  0011a	89 47 08	 mov	 DWORD PTR [edi+8], eax
; File C:\IAGOS\server\v18\Source\Source\_common\party.cpp

; 1295 : 				for( int k = 0 ; k < pParty->GetSizeofMember() ; ++k )

  0011d	33 ff		 xor	 edi, edi
  0011f	8b 45 f8	 mov	 eax, DWORD PTR _pParty$1$[ebp]
  00122	39 b8 cc 01 00
	00		 cmp	 DWORD PTR [eax+460], edi
  00128	0f 8e 18 01 00
	00		 jle	 $LN247@PartyMapIn

; 1291 : 			{
; 1292 : 				pParty->SetPos( j, pMover->GetPos() );

  0012e	8b 4d fc	 mov	 ecx, DWORD PTR _j$1$[ebp]
  00131	8d 70 28	 lea	 esi, DWORD PTR [eax+40]
  00134	8b 55 f8	 mov	 edx, DWORD PTR _pParty$1$[ebp]
  00137	89 75 f4	 mov	 DWORD PTR tv1381[ebp], esi
  0013a	8b 35 28 00 00
	00		 mov	 esi, DWORD PTR ?prj@@3VCProject@@A+40
  00140	8b 45 f4	 mov	 eax, DWORD PTR tv1381[ebp]
$LL10@PartyMapIn:

; 1296 : 				{
; 1297 : 					if( k == j )

  00143	3b f9		 cmp	 edi, ecx
  00145	0f 84 e3 00 00
	00		 je	 $LN8@PartyMapIn

; 1298 : 						continue;
; 1299 : 					pSendMover = prj.GetUserByID( pParty->GetPlayerId( k ) );

  0014b	8b 10		 mov	 edx, DWORD PTR [eax]
; File C:\Program Files\Microsoft Visual Studio\2022\Professional\VC\Tools\MSVC\14.44.35207\include\xtree

; 1630 :         _Tree_find_result<_Nodeptr> _Result{{_Scary->_Myhead->_Parent, _Tree_child::_Right}, _Scary->_Myhead};

  0014d	8b ce		 mov	 ecx, esi
  0014f	8b 46 04	 mov	 eax, DWORD PTR [esi+4]

; 1632 :         while (!_Trynode->_Isnil) {

  00152	80 78 0d 00	 cmp	 BYTE PTR [eax+13], 0
  00156	75 14		 jne	 SHORT $LN122@PartyMapIn
$LL121@PartyMapIn:
; File C:\Program Files\Microsoft Visual Studio\2022\Professional\VC\Tools\MSVC\14.44.35207\include\type_traits

; 2380 :         return _Left < _Right;

  00158	39 50 10	 cmp	 DWORD PTR [eax+16], edx
; File C:\Program Files\Microsoft Visual Studio\2022\Professional\VC\Tools\MSVC\14.44.35207\include\xtree

; 1634 :             if (_DEBUG_LT_PRED(_Getcomp(), _Traits::_Kfn(_Trynode->_Myval), _Keyval)) {

  0015b	73 05		 jae	 SHORT $LN123@PartyMapIn

; 1635 :                 _Result._Location._Child = _Tree_child::_Right;
; 1636 :                 _Trynode                 = _Trynode->_Right;

  0015d	8b 40 08	 mov	 eax, DWORD PTR [eax+8]

; 1637 :             } else {

  00160	eb 04		 jmp	 SHORT $LN124@PartyMapIn
$LN123@PartyMapIn:

; 1638 :                 _Result._Location._Child = _Tree_child::_Left;
; 1639 :                 _Result._Bound           = _Trynode;

  00162	8b c8		 mov	 ecx, eax

; 1640 :                 _Trynode                 = _Trynode->_Left;

  00164	8b 00		 mov	 eax, DWORD PTR [eax]
$LN124@PartyMapIn:

; 1632 :         while (!_Trynode->_Isnil) {

  00166	80 78 0d 00	 cmp	 BYTE PTR [eax+13], 0
  0016a	74 ec		 je	 SHORT $LL121@PartyMapIn
$LN122@PartyMapIn:

; 1624 :         return !_Bound->_Isnil && !_DEBUG_LT_PRED(_Getcomp(), _Keyval, _Traits::_Kfn(_Bound->_Myval));

  0016c	80 79 0d 00	 cmp	 BYTE PTR [ecx+13], 0
  00170	75 05		 jne	 SHORT $LN118@PartyMapIn
; File C:\Program Files\Microsoft Visual Studio\2022\Professional\VC\Tools\MSVC\14.44.35207\include\type_traits

; 2380 :         return _Left < _Right;

  00172	3b 51 10	 cmp	 edx, DWORD PTR [ecx+16]
; File C:\Program Files\Microsoft Visual Studio\2022\Professional\VC\Tools\MSVC\14.44.35207\include\xtree

; 1624 :         return !_Bound->_Isnil && !_DEBUG_LT_PRED(_Getcomp(), _Keyval, _Traits::_Kfn(_Bound->_Myval));

  00175	73 02		 jae	 SHORT $LN117@PartyMapIn
$LN118@PartyMapIn:

; 1389 :         return _Get_scary()->_Myhead;

  00177	8b ce		 mov	 ecx, esi
$LN117@PartyMapIn:

; 37   :     _Tree_unchecked_const_iterator(_Nodeptr _Pnode, const _Mytree* _Plist) noexcept : _Ptr(_Pnode) {

  00179	3b ce		 cmp	 ecx, esi
; File C:\IAGOS\server\v18\Source\Source\_Common\Project.h

; 1436 : 	if( i != m_idPlayerToUserPtr.end() )

  0017b	0f 84 a4 00 00
	00		 je	 $LN251@PartyMapIn

; 1437 : 		return i->second;

  00181	8b 49 14	 mov	 ecx, DWORD PTR [ecx+20]
; File C:\IAGOS\server\v18\Source\Source\_Common\Obj.h

; 327  : 	return pObj && ( pObj->IsDelete() == FALSE ); 

  00184	85 c9		 test	 ecx, ecx
  00186	0f 84 99 00 00
	00		 je	 $LN251@PartyMapIn

; 180  : 	BOOL			IsDelete()	{ return (m_dwFlags & OBJ_FLAG_DELETE);  }

  0018c	f6 41 04 01	 test	 BYTE PTR [ecx+4], 1

; 327  : 	return pObj && ( pObj->IsDelete() == FALSE ); 

  00190	0f 85 8f 00 00
	00		 jne	 $LN251@PartyMapIn

; 215  : 	D3DXVECTOR3		GetPos()	{ return m_vPos; }

  00196	f3 0f 7e 83 60
	01 00 00	 movq	 xmm0, QWORD PTR [ebx+352]
  0019e	8b 83 68 01 00
	00		 mov	 eax, DWORD PTR [ebx+360]
  001a4	66 0f d6 45 b8	 movq	 QWORD PTR $T3[ebp], xmm0
  001a9	f3 0f 7e 81 60
	01 00 00	 movq	 xmm0, QWORD PTR [ecx+352]
  001b1	66 0f d6 45 c4	 movq	 QWORD PTR $T4[ebp], xmm0
; File C:\IAGOS\server\v18\Source\Source\DX_SDK\d3dx9math.inl

; 383  :     return D3DXVECTOR3(x - v.x, y - v.y, z - v.z);

  001b6	f3 0f 10 4d c4	 movss	 xmm1, DWORD PTR $T4[ebp]
  001bb	f3 0f 10 55 c8	 movss	 xmm2, DWORD PTR $T4[ebp+4]
  001c0	f3 0f 5c 55 bc	 subss	 xmm2, DWORD PTR $T3[ebp+4]
  001c5	f3 0f 5c 4d b8	 subss	 xmm1, DWORD PTR $T3[ebp]
; File C:\IAGOS\server\v18\Source\Source\_Common\Obj.h

; 215  : 	D3DXVECTOR3		GetPos()	{ return m_vPos; }

  001ca	89 45 c0	 mov	 DWORD PTR $T3[ebp+8], eax
  001cd	8b 81 68 01 00
	00		 mov	 eax, DWORD PTR [ecx+360]
  001d3	89 45 cc	 mov	 DWORD PTR $T4[ebp+8], eax
; File C:\IAGOS\server\v18\Source\Source\DX_SDK\d3dx9math.inl

; 383  :     return D3DXVECTOR3(x - v.x, y - v.y, z - v.z);

  001d6	f3 0f 10 45 cc	 movss	 xmm0, DWORD PTR $T4[ebp+8]
  001db	f3 0f 5c 45 c0	 subss	 xmm0, DWORD PTR $T3[ebp+8]

; 1698 :     return pV->x * pV->x + pV->y * pV->y + pV->z * pV->z;

  001e0	f3 0f 59 d2	 mulss	 xmm2, xmm2
; File C:\IAGOS\server\v18\Source\Source\_common\party.cpp

; 1303 : 					vPosBuf = pSendMover->GetPos() - pMover->GetPos();

  001e4	f3 0f 59 c9	 mulss	 xmm1, xmm1
; File C:\IAGOS\server\v18\Source\Source\DX_SDK\d3dx9math.inl

; 1698 :     return pV->x * pV->x + pV->y * pV->y + pV->z * pV->z;

  001e8	f3 0f 59 c0	 mulss	 xmm0, xmm0
  001ec	f3 0f 58 d1	 addss	 xmm2, xmm1
  001f0	f3 0f 58 d0	 addss	 xmm2, xmm0
; File C:\IAGOS\server\v18\Source\Source\_common\party.cpp

; 1305 : 					if( fDist > PARTY_MAP_AROUND )

  001f4	0f 2f 15 00 00
	00 00		 comiss	 xmm2, DWORD PTR __real@44800000
  001fb	76 28		 jbe	 SHORT $LN251@PartyMapIn

; 1306 : 						((CUser*)pSendMover)->AddPartyMapInfo( j, pMover->GetPos() );		

  001fd	f3 0f 7e 83 60
	01 00 00	 movq	 xmm0, QWORD PTR [ebx+352]
  00205	83 ec 0c	 sub	 esp, 12			; 0000000cH
  00208	8b 83 68 01 00
	00		 mov	 eax, DWORD PTR [ebx+360]
  0020e	8b d4		 mov	 edx, esp
  00210	ff 75 fc	 push	 DWORD PTR _j$1$[ebp]
  00213	66 0f d6 02	 movq	 QWORD PTR [edx], xmm0
  00217	89 42 08	 mov	 DWORD PTR [edx+8], eax
  0021a	e8 00 00 00 00	 call	 ?AddPartyMapInfo@CUser@@QAEXHUD3DXVECTOR3@@@Z ; CUser::AddPartyMapInfo
  0021f	8b 35 28 00 00
	00		 mov	 esi, DWORD PTR ?prj@@3VCProject@@A+40
$LN251@PartyMapIn:

; 1295 : 				for( int k = 0 ; k < pParty->GetSizeofMember() ; ++k )

  00225	8b 45 f4	 mov	 eax, DWORD PTR tv1381[ebp]
  00228	8b 4d fc	 mov	 ecx, DWORD PTR _j$1$[ebp]
  0022b	8b 55 f8	 mov	 edx, DWORD PTR _pParty$1$[ebp]
$LN8@PartyMapIn:
  0022e	47		 inc	 edi
  0022f	83 c0 1c	 add	 eax, 28			; 0000001cH
  00232	89 45 f4	 mov	 DWORD PTR tv1381[ebp], eax
  00235	3b ba cc 01 00
	00		 cmp	 edi, DWORD PTR [edx+460]
  0023b	0f 8c 02 ff ff
	ff		 jl	 $LL10@PartyMapIn
  00241	0f 57 db	 xorps	 xmm3, xmm3
  00244	eb 06		 jmp	 SHORT $LN273@PartyMapIn
$LN247@PartyMapIn:
  00246	8b 35 28 00 00
	00		 mov	 esi, DWORD PTR ?prj@@3VCProject@@A+40
$LN273@PartyMapIn:

; 1282 : 		for( int j = 0 ; j < pParty->GetSizeofMember() ; ++j )

  0024c	8b 7d f0	 mov	 edi, DWORD PTR tv1379[ebp]
$LN5@PartyMapIn:
  0024f	8b 45 fc	 mov	 eax, DWORD PTR _j$1$[ebp]
  00252	83 c7 1c	 add	 edi, 28			; 0000001cH
  00255	8b 4d f8	 mov	 ecx, DWORD PTR _pParty$1$[ebp]
  00258	40		 inc	 eax
  00259	89 45 fc	 mov	 DWORD PTR _j$1$[ebp], eax
  0025c	89 7d f0	 mov	 DWORD PTR tv1379[ebp], edi
  0025f	3b 81 cc 01 00
	00		 cmp	 eax, DWORD PTR [ecx+460]
  00265	0f 8c f5 fd ff
	ff		 jl	 $LL7@PartyMapIn
$LN2@PartyMapIn:
; File C:\Program Files\Microsoft Visual Studio\2022\Professional\VC\Tools\MSVC\14.44.35207\include\xtree

; 198  :         _Mybase::operator++();

  0026b	8d 4d ec	 lea	 ecx, DWORD PTR _i$7[ebp]
  0026e	e8 00 00 00 00	 call	 ??E?$_Tree_unchecked_const_iterator@V?$_Tree_val@U?$_Tree_simple_types@U?$pair@$$CBKPAVCParty@@@std@@@std@@@std@@U_Iterator_base0@2@@std@@QAEAAV01@XZ ; std::_Tree_unchecked_const_iterator<std::_Tree_val<std::_Tree_simple_types<std::pair<unsigned long const ,CParty *> > >,std::_Iterator_base0>::operator++

; 237  :         return !(*this == _Right);

  00273	8b 4d e8	 mov	 ecx, DWORD PTR _this$GSCopy$1$[ebp]
  00276	0f 57 db	 xorps	 xmm3, xmm3
  00279	8b 45 ec	 mov	 eax, DWORD PTR _i$7[ebp]
  0027c	3b 41 04	 cmp	 eax, DWORD PTR [ecx+4]
; File C:\IAGOS\server\v18\Source\Source\_common\party.cpp

; 1279 : 	for( C2PartyPtr::iterator i	= m_2PartyPtr.begin(); i != m_2PartyPtr.end(); ++i )

  0027f	0f 85 bb fd ff
	ff		 jne	 $LL4@PartyMapIn
$LN3@PartyMapIn:

; 1307 : 				}
; 1308 : 			}
; 1309 : 		}
; 1310 : 	}
; 1311 : }

  00285	5f		 pop	 edi
  00286	5e		 pop	 esi
  00287	5b		 pop	 ebx
  00288	8b e5		 mov	 esp, ebp
  0028a	5d		 pop	 ebp
  0028b	c3		 ret	 0
?PartyMapInfo@CPartyMng@@QAEXXZ ENDP			; CPartyMng::PartyMapInfo
_TEXT	ENDS
; Function compile flags: /Ogtp
; File C:\IAGOS\server\v18\Source\Source\_common\party.cpp
; File C:\IAGOS\server\v18\Source\Source\_Network\Misc\Include\ar.h
; File C:\IAGOS\server\v18\Source\Source\_common\party.cpp
; File C:\IAGOS\server\v18\Source\Source\_Network\Misc\Include\ar.h
; File C:\IAGOS\server\v18\Source\Source\_common\party.cpp
; File C:\IAGOS\server\v18\Source\Source\_Network\Misc\Include\ar.h
; File C:\IAGOS\server\v18\Source\Source\_common\party.cpp
; File C:\IAGOS\server\v18\Source\Source\_Network\Misc\Include\ar.h
; File C:\IAGOS\server\v18\Source\Source\_common\party.cpp
; File C:\IAGOS\server\v18\Source\Source\_Network\Misc\Include\ar.h
; File C:\IAGOS\server\v18\Source\Source\_common\party.cpp
; File C:\Program Files\Microsoft Visual Studio\2022\Professional\VC\Tools\MSVC\14.44.35207\include\xtree
; File C:\IAGOS\server\v18\Source\Source\_common\party.cpp
; File C:\Program Files\Microsoft Visual Studio\2022\Professional\VC\Tools\MSVC\14.44.35207\include\xtree
; File C:\IAGOS\server\v18\Source\Source\_common\party.cpp
; File C:\Program Files\Microsoft Visual Studio\2022\Professional\VC\Tools\MSVC\14.44.35207\include\xtree
; File C:\IAGOS\server\v18\Source\Source\_common\party.cpp
; File C:\Program Files\Microsoft Visual Studio\2022\Professional\VC\Tools\MSVC\14.44.35207\include\utility
; File C:\Program Files\Microsoft Visual Studio\2022\Professional\VC\Tools\MSVC\14.44.35207\include\xtree
; File C:\Program Files\Microsoft Visual Studio\2022\Professional\VC\Tools\MSVC\14.44.35207\include\utility
; File C:\Program Files\Microsoft Visual Studio\2022\Professional\VC\Tools\MSVC\14.44.35207\include\xtree
; File C:\Program Files\Microsoft Visual Studio\2022\Professional\VC\Tools\MSVC\14.44.35207\include\utility
; File C:\Program Files\Microsoft Visual Studio\2022\Professional\VC\Tools\MSVC\14.44.35207\include\xtree
; File C:\Program Files\Microsoft Visual Studio\2022\Professional\VC\Tools\MSVC\14.44.35207\include\type_traits
; File C:\Program Files\Microsoft Visual Studio\2022\Professional\VC\Tools\MSVC\14.44.35207\include\xtree
; File C:\Program Files\Microsoft Visual Studio\2022\Professional\VC\Tools\MSVC\14.44.35207\include\xmemory
; File C:\Program Files\Microsoft Visual Studio\2022\Professional\VC\Tools\MSVC\14.44.35207\include\xtree
; File C:\Program Files\Microsoft Visual Studio\2022\Professional\VC\Tools\MSVC\14.44.35207\include\xmemory
; File C:\Program Files\Microsoft Visual Studio\2022\Professional\VC\Tools\MSVC\14.44.35207\include\xtree
; File C:\Program Files\Microsoft Visual Studio\2022\Professional\VC\Tools\MSVC\14.44.35207\include\xmemory
; File C:\Program Files\Microsoft Visual Studio\2022\Professional\VC\Tools\MSVC\14.44.35207\include\xtree
; File C:\Program Files\Microsoft Visual Studio\2022\Professional\VC\Tools\MSVC\14.44.35207\include\xmemory
; File C:\Program Files\Microsoft Visual Studio\2022\Professional\VC\Tools\MSVC\14.44.35207\include\xtree
; File C:\Program Files\Microsoft Visual Studio\2022\Professional\VC\Tools\MSVC\14.44.35207\include\utility
; File C:\Program Files\Microsoft Visual Studio\2022\Professional\VC\Tools\MSVC\14.44.35207\include\xtree
; File C:\IAGOS\server\v18\Source\Source\_common\party.cpp
; File C:\Program Files\Microsoft Visual Studio\2022\Professional\VC\Tools\MSVC\14.44.35207\include\xtree
; File C:\IAGOS\server\v18\Source\Source\_common\party.cpp
;	COMDAT ?Serialize@CPartyMng@@QAEXAAVCAr@@@Z
_TEXT	SEGMENT
$T2 = -64						; size = 12
__Loc$3 = -52						; size = 12
$T4 = -40						; size = 8
$T5 = -32						; size = 8
_nCount$6 = -24						; size = 4
_uOffset$1$ = -24					; size = 4
_nBufSize1$7 = -20					; size = 4
_this$1$ = -20						; size = 4
$T8 = -16						; size = 4
$T9 = -16						; size = 4
__$EHRec$ = -12						; size = 12
_ar$ = 8						; size = 4
_nCount$10 = 8						; size = 4
_i$11 = 8						; size = 4
?Serialize@CPartyMng@@QAEXAAVCAr@@@Z PROC		; CPartyMng::Serialize, COMDAT
; _this$ = ecx

; 985  : {

  00000	55		 push	 ebp
  00001	8b ec		 mov	 ebp, esp
  00003	6a ff		 push	 -1
  00005	68 00 00 00 00	 push	 __ehhandler$?Serialize@CPartyMng@@QAEXAAVCAr@@@Z
  0000a	64 a1 00 00 00
	00		 mov	 eax, DWORD PTR fs:0
  00010	50		 push	 eax
  00011	83 ec 34	 sub	 esp, 52			; 00000034H
  00014	53		 push	 ebx
  00015	56		 push	 esi
  00016	57		 push	 edi
  00017	a1 00 00 00 00	 mov	 eax, DWORD PTR ___security_cookie
  0001c	33 c5		 xor	 eax, ebp
  0001e	50		 push	 eax
  0001f	8d 45 f4	 lea	 eax, DWORD PTR __$EHRec$[ebp]
  00022	64 a3 00 00 00
	00		 mov	 DWORD PTR fs:0, eax
  00028	8b f9		 mov	 edi, ecx
  0002a	89 7d ec	 mov	 DWORD PTR _this$1$[ebp], edi
; File C:\IAGOS\server\v18\Source\Source\_Network\Misc\Include\ar.h

; 146  : 	return (m_nMode & CAr::load) == 0;

  0002d	8b 5d 08	 mov	 ebx, DWORD PTR _ar$[ebp]
; File C:\IAGOS\server\v18\Source\Source\_common\party.cpp

; 990  : 	if( ar.IsStoring() )

  00030	8b cb		 mov	 ecx, ebx
  00032	57		 push	 edi
; File C:\IAGOS\server\v18\Source\Source\_Network\Misc\Include\ar.h

; 146  : 	return (m_nMode & CAr::load) == 0;

  00033	f6 03 01	 test	 BYTE PTR [ebx], 1
; File C:\IAGOS\server\v18\Source\Source\_common\party.cpp

; 990  : 	if( ar.IsStoring() )

  00036	75 69		 jne	 SHORT $LN8@Serialize

; 991  : 	{
; 992  : 		ar << m_id;

  00038	e8 00 00 00 00	 call	 ??$?6K@CAr@@QAEAAV0@ABK@Z ; CAr::operator<<<unsigned long>
; File C:\IAGOS\server\v18\Source\Source\_Network\Misc\Include\ar.h

; 356  : 	return( m_lpBufCur - m_lpBufStart );

  0003d	8b 43 08	 mov	 eax, DWORD PTR [ebx+8]
; File C:\IAGOS\server\v18\Source\Source\_common\party.cpp

; 993  : 		int nCount	= 0;

  00040	33 f6		 xor	 esi, esi
; File C:\IAGOS\server\v18\Source\Source\_Network\Misc\Include\ar.h

; 356  : 	return( m_lpBufCur - m_lpBufStart );

  00042	2b 43 10	 sub	 eax, DWORD PTR [ebx+16]
; File C:\IAGOS\server\v18\Source\Source\_common\party.cpp

; 995  : 		ar << nCount;

  00045	8b cb		 mov	 ecx, ebx
; File C:\IAGOS\server\v18\Source\Source\_Network\Misc\Include\ar.h

; 356  : 	return( m_lpBufCur - m_lpBufStart );

  00047	89 45 e8	 mov	 DWORD PTR _uOffset$1$[ebp], eax
; File C:\IAGOS\server\v18\Source\Source\_common\party.cpp

; 995  : 		ar << nCount;

  0004a	8d 45 08	 lea	 eax, DWORD PTR _nCount$10[ebp]
  0004d	50		 push	 eax
  0004e	89 75 08	 mov	 DWORD PTR _nCount$10[ebp], esi
  00051	e8 00 00 00 00	 call	 ??$?6H@CAr@@QAEAAV0@ABH@Z ; CAr::operator<<<int>
; File C:\Program Files\Microsoft Visual Studio\2022\Professional\VC\Tools\MSVC\14.44.35207\include\xtree

; 1142 :         return iterator(_Scary->_Myhead->_Left, _Scary);

  00056	8b 4f 04	 mov	 ecx, DWORD PTR [edi+4]

; 37   :     _Tree_unchecked_const_iterator(_Nodeptr _Pnode, const _Mytree* _Plist) noexcept : _Ptr(_Pnode) {

  00059	8b 01		 mov	 eax, DWORD PTR [ecx]
  0005b	89 45 08	 mov	 DWORD PTR _i$11[ebp], eax

; 237  :         return !(*this == _Right);

  0005e	3b c1		 cmp	 eax, ecx
; File C:\IAGOS\server\v18\Source\Source\_common\party.cpp

; 996  : 		for( C2PartyPtr::iterator i	= m_2PartyPtr.begin(); i != m_2PartyPtr.end(); ++i )

  00060	74 1a		 je	 SHORT $LN3@Serialize
$LL4@Serialize:

; 999  : 			pParty->Serialize( ar );

  00062	8b 48 14	 mov	 ecx, DWORD PTR [eax+20]
  00065	53		 push	 ebx
  00066	e8 00 00 00 00	 call	 ?Serialize@CParty@@QAEXAAVCAr@@@Z ; CParty::Serialize
; File C:\Program Files\Microsoft Visual Studio\2022\Professional\VC\Tools\MSVC\14.44.35207\include\xtree

; 198  :         _Mybase::operator++();

  0006b	8d 4d 08	 lea	 ecx, DWORD PTR _i$11[ebp]
; File C:\IAGOS\server\v18\Source\Source\_common\party.cpp

; 999  : 			pParty->Serialize( ar );

  0006e	46		 inc	 esi
; File C:\Program Files\Microsoft Visual Studio\2022\Professional\VC\Tools\MSVC\14.44.35207\include\xtree

; 198  :         _Mybase::operator++();

  0006f	e8 00 00 00 00	 call	 ??E?$_Tree_unchecked_const_iterator@V?$_Tree_val@U?$_Tree_simple_types@U?$pair@$$CBKPAVCParty@@@std@@@std@@@std@@U_Iterator_base0@2@@std@@QAEAAV01@XZ ; std::_Tree_unchecked_const_iterator<std::_Tree_val<std::_Tree_simple_types<std::pair<unsigned long const ,CParty *> > >,std::_Iterator_base0>::operator++

; 237  :         return !(*this == _Right);

  00074	8b 45 08	 mov	 eax, DWORD PTR _i$11[ebp]
  00077	3b 47 04	 cmp	 eax, DWORD PTR [edi+4]
; File C:\IAGOS\server\v18\Source\Source\_common\party.cpp

; 996  : 		for( C2PartyPtr::iterator i	= m_2PartyPtr.begin(); i != m_2PartyPtr.end(); ++i )

  0007a	75 e6		 jne	 SHORT $LL4@Serialize
$LN3@Serialize:

; 1000 : 			nCount++;
; 1001 : 		}
; 1002 : 		int nBufSize1;
; 1003 : 		LPBYTE lpBuf1	= ar.GetBuffer( &nBufSize1 );

  0007c	8d 45 ec	 lea	 eax, DWORD PTR _nBufSize1$7[ebp]
  0007f	8b cb		 mov	 ecx, ebx
  00081	50		 push	 eax
  00082	e8 00 00 00 00	 call	 ?GetBuffer@CAr@@QAEPAEPAH@Z ; CAr::GetBuffer

; 1004 : 		*(UNALIGNED int*)( lpBuf1 + uOffset )	= nCount;

  00087	8b 4d e8	 mov	 ecx, DWORD PTR _uOffset$1$[ebp]
  0008a	89 34 08	 mov	 DWORD PTR [eax+ecx], esi
$LN6@Serialize:

; 1023 : }

  0008d	8b 4d f4	 mov	 ecx, DWORD PTR __$EHRec$[ebp]
  00090	64 89 0d 00 00
	00 00		 mov	 DWORD PTR fs:0, ecx
  00097	59		 pop	 ecx
  00098	5f		 pop	 edi
  00099	5e		 pop	 esi
  0009a	5b		 pop	 ebx
  0009b	8b e5		 mov	 esp, ebp
  0009d	5d		 pop	 ebp
  0009e	c2 04 00	 ret	 4
$LN8@Serialize:

; 1005 : 	}
; 1006 : 	else
; 1007 : 	{
; 1008 : 		int nCount;
; 1009 : 		ar >> m_id;

  000a1	e8 00 00 00 00	 call	 ??$?5K@CAr@@QAEAAV0@AAK@Z ; CAr::operator>><unsigned long>

; 1010 : 		ar >> nCount;		

  000a6	8d 45 e8	 lea	 eax, DWORD PTR _nCount$6[ebp]
  000a9	8b cb		 mov	 ecx, ebx
  000ab	50		 push	 eax
  000ac	e8 00 00 00 00	 call	 ??$?5H@CAr@@QAEAAV0@AAH@Z ; CAr::operator>><int>

; 1011 : 		for( int i = 0 ; i < nCount ; i++ )

  000b1	33 db		 xor	 ebx, ebx
  000b3	39 5d e8	 cmp	 DWORD PTR _nCount$6[ebp], ebx
  000b6	7e d5		 jle	 SHORT $LN6@Serialize
  000b8	8d 77 04	 lea	 esi, DWORD PTR [edi+4]
  000bb	0f 1f 44 00 00	 npad	 5
$LL7@Serialize:

; 1012 : 		{
; 1013 : 			CParty* pParty	= new CParty;

  000c0	68 0c 02 00 00	 push	 524			; 0000020cH
  000c5	e8 00 00 00 00	 call	 ??2@YAPAXI@Z		; operator new
  000ca	83 c4 04	 add	 esp, 4
  000cd	89 45 f0	 mov	 DWORD PTR $T8[ebp], eax
  000d0	85 c0		 test	 eax, eax
  000d2	74 0b		 je	 SHORT $LN11@Serialize
  000d4	8b c8		 mov	 ecx, eax
  000d6	e8 00 00 00 00	 call	 ??0CParty@@QAE@XZ	; CParty::CParty
  000db	8b f8		 mov	 edi, eax
  000dd	eb 02		 jmp	 SHORT $LN12@Serialize
$LN11@Serialize:
  000df	33 ff		 xor	 edi, edi
$LN12@Serialize:

; 1014 : //			pParty->Lock();
; 1015 : 			pParty->Serialize( ar );

  000e1	ff 75 08	 push	 DWORD PTR _ar$[ebp]
  000e4	8b cf		 mov	 ecx, edi
  000e6	e8 00 00 00 00	 call	 ?Serialize@CParty@@QAEXAAVCAr@@@Z ; CParty::Serialize
; File C:\Program Files\Microsoft Visual Studio\2022\Professional\VC\Tools\MSVC\14.44.35207\include\utility

; 274  :         : first(_STD forward<_Other1>(_Val1)), second(_STD forward<_Other2>(_Val2)) {

  000eb	8b 07		 mov	 eax, DWORD PTR [edi]
; File C:\Program Files\Microsoft Visual Studio\2022\Professional\VC\Tools\MSVC\14.44.35207\include\xtree

; 1017 :             _Loc                = _Find_lower_bound(_Keyval);

  000ed	8b ce		 mov	 ecx, esi
; File C:\Program Files\Microsoft Visual Studio\2022\Professional\VC\Tools\MSVC\14.44.35207\include\utility

; 274  :         : first(_STD forward<_Other1>(_Val1)), second(_STD forward<_Other2>(_Val2)) {

  000ef	89 45 f0	 mov	 DWORD PTR $T9[ebp], eax
  000f2	89 45 e0	 mov	 DWORD PTR $T5[ebp], eax
; File C:\Program Files\Microsoft Visual Studio\2022\Professional\VC\Tools\MSVC\14.44.35207\include\xtree

; 1017 :             _Loc                = _Find_lower_bound(_Keyval);

  000f5	8d 45 e0	 lea	 eax, DWORD PTR $T5[ebp]
  000f8	50		 push	 eax
  000f9	8d 45 c0	 lea	 eax, DWORD PTR $T2[ebp]
; File C:\Program Files\Microsoft Visual Studio\2022\Professional\VC\Tools\MSVC\14.44.35207\include\utility

; 274  :         : first(_STD forward<_Other1>(_Val1)), second(_STD forward<_Other2>(_Val2)) {

  000fc	89 7d e4	 mov	 DWORD PTR $T5[ebp+4], edi
; File C:\Program Files\Microsoft Visual Studio\2022\Professional\VC\Tools\MSVC\14.44.35207\include\xtree

; 1017 :             _Loc                = _Find_lower_bound(_Keyval);

  000ff	50		 push	 eax
  00100	e8 00 00 00 00	 call	 ??$_Find_lower_bound@K@?$_Tree@V?$_Tmap_traits@KPAVCParty@@U?$less@K@std@@V?$allocator@U?$pair@$$CBKPAVCParty@@@std@@@3@$0A@@std@@@std@@IBE?AU?$_Tree_find_result@PAU?$_Tree_node@U?$pair@$$CBKPAVCParty@@@std@@PAX@std@@@1@ABK@Z ; std::_Tree<std::_Tmap_traits<unsigned long,CParty *,std::less<unsigned long>,std::allocator<std::pair<unsigned long const ,CParty *> >,0> >::_Find_lower_bound<unsigned long>
  00105	8b 48 08	 mov	 ecx, DWORD PTR [eax+8]
  00108	f3 0f 7e 00	 movq	 xmm0, QWORD PTR [eax]
  0010c	66 0f d6 45 cc	 movq	 QWORD PTR __Loc$3[ebp], xmm0

; 1624 :         return !_Bound->_Isnil && !_DEBUG_LT_PRED(_Getcomp(), _Keyval, _Traits::_Kfn(_Bound->_Myval));

  00111	80 79 0d 00	 cmp	 BYTE PTR [ecx+13], 0
  00115	75 08		 jne	 SHORT $LN74@Serialize
; File C:\Program Files\Microsoft Visual Studio\2022\Professional\VC\Tools\MSVC\14.44.35207\include\type_traits

; 2380 :         return _Left < _Right;

  00117	8b 45 f0	 mov	 eax, DWORD PTR $T9[ebp]
  0011a	3b 41 10	 cmp	 eax, DWORD PTR [ecx+16]
; File C:\Program Files\Microsoft Visual Studio\2022\Professional\VC\Tools\MSVC\14.44.35207\include\xtree

; 1624 :         return !_Bound->_Isnil && !_DEBUG_LT_PRED(_Getcomp(), _Keyval, _Traits::_Kfn(_Bound->_Myval));

  0011d	73 65		 jae	 SHORT $LN149@Serialize
$LN74@Serialize:

; 1648 :         if (max_size() == _Get_scary()->_Mysize) {

  0011f	81 7e 04 aa aa
	aa 0a		 cmp	 DWORD PTR [esi+4], 178956970 ; 0aaaaaaaH
  00126	74 7a		 je	 SHORT $LN167@Serialize
; File C:\Program Files\Microsoft Visual Studio\2022\Professional\VC\Tools\MSVC\14.44.35207\include\xmemory

; 1160 :     _CONSTEXPR20 explicit _Alloc_construct_ptr(_Alloc& _Al_) : _Al(_Al_), _Ptr(nullptr) {}

  00128	8b 45 ec	 mov	 eax, DWORD PTR _this$1$[ebp]
; File C:\Program Files\Microsoft Visual Studio\2022\Professional\VC\Tools\MSVC\14.44.35207\include\xtree

; 1023 :             _Inserted = _Tree_temp_node<_Alnode>(_Getal(), _Scary->_Myhead, _STD forward<_Valtys>(_Vals)...)._Release();

  0012b	8b 36		 mov	 esi, DWORD PTR [esi]
; File C:\Program Files\Microsoft Visual Studio\2022\Professional\VC\Tools\MSVC\14.44.35207\include\xmemory

; 1160 :     _CONSTEXPR20 explicit _Alloc_construct_ptr(_Alloc& _Al_) : _Al(_Al_), _Ptr(nullptr) {}

  0012d	83 c0 04	 add	 eax, 4
  00130	89 45 d8	 mov	 DWORD PTR $T4[ebp], eax

; 136  :         return ::operator new(_Bytes);

  00133	6a 18		 push	 24			; 00000018H
; File C:\Program Files\Microsoft Visual Studio\2022\Professional\VC\Tools\MSVC\14.44.35207\include\xtree

; 808  :     explicit _Tree_temp_node_alloc(_Alnode& _Al_) : _Alloc_construct_ptr<_Alnode>(_Al_) {

  00135	c7 45 fc 00 00
	00 00		 mov	 DWORD PTR __$EHRec$[ebp+8], 0
; File C:\Program Files\Microsoft Visual Studio\2022\Professional\VC\Tools\MSVC\14.44.35207\include\xmemory

; 1167 :         _Ptr = nullptr; // if allocate throws, prevents double-free

  0013c	c7 45 dc 00 00
	00 00		 mov	 DWORD PTR $T4[ebp+4], 0

; 136  :         return ::operator new(_Bytes);

  00143	e8 00 00 00 00	 call	 ??2@YAPAXI@Z		; operator new
; File C:\Program Files\Microsoft Visual Studio\2022\Professional\VC\Tools\MSVC\14.44.35207\include\xtree

; 830  :         _Alnode_traits::construct(this->_Al, _STD addressof(this->_Ptr->_Myval), _STD forward<_Valtys>(_Vals)...);

  00148	8b 4d f0	 mov	 ecx, DWORD PTR $T9[ebp]
; File C:\Program Files\Microsoft Visual Studio\2022\Professional\VC\Tools\MSVC\14.44.35207\include\xmemory

; 136  :         return ::operator new(_Bytes);

  0014b	83 c4 04	 add	 esp, 4
; File C:\Program Files\Microsoft Visual Studio\2022\Professional\VC\Tools\MSVC\14.44.35207\include\xtree

; 810  :     }

  0014e	c7 45 fc ff ff
	ff ff		 mov	 DWORD PTR __$EHRec$[ebp+8], -1
; File C:\Program Files\Microsoft Visual Studio\2022\Professional\VC\Tools\MSVC\14.44.35207\include\utility

; 774  :     _Val         = static_cast<_Other&&>(_New_val);

  00155	c7 45 dc 00 00
	00 00		 mov	 DWORD PTR $T4[ebp+4], 0
; File C:\Program Files\Microsoft Visual Studio\2022\Professional\VC\Tools\MSVC\14.44.35207\include\xtree

; 830  :         _Alnode_traits::construct(this->_Al, _STD addressof(this->_Ptr->_Myval), _STD forward<_Valtys>(_Vals)...);

  0015c	89 48 10	 mov	 DWORD PTR [eax+16], ecx
  0015f	89 78 14	 mov	 DWORD PTR [eax+20], edi

; 831  :         _Construct_in_place(this->_Ptr->_Left, _Myhead);

  00162	89 30		 mov	 DWORD PTR [eax], esi

; 832  :         _Construct_in_place(this->_Ptr->_Parent, _Myhead);

  00164	89 70 04	 mov	 DWORD PTR [eax+4], esi

; 833  :         _Construct_in_place(this->_Ptr->_Right, _Myhead);

  00167	89 70 08	 mov	 DWORD PTR [eax+8], esi

; 1042 :         return {_Scary->_Insert_node(_Loc._Location, _Inserted), true};

  0016a	8b 75 ec	 mov	 esi, DWORD PTR _this$1$[ebp]
  0016d	50		 push	 eax
  0016e	ff 75 d0	 push	 DWORD PTR __Loc$3[ebp+4]
  00171	83 c6 04	 add	 esi, 4

; 834  :         this->_Ptr->_Color = _Red;

  00174	66 c7 40 0c 00
	00		 mov	 WORD PTR [eax+12], 0

; 1042 :         return {_Scary->_Insert_node(_Loc._Location, _Inserted), true};

  0017a	ff 75 cc	 push	 DWORD PTR __Loc$3[ebp]
  0017d	8b ce		 mov	 ecx, esi
  0017f	e8 00 00 00 00	 call	 ?_Insert_node@?$_Tree_val@U?$_Tree_simple_types@U?$pair@$$CBKPAVCParty@@@std@@@std@@@std@@QAEPAU?$_Tree_node@U?$pair@$$CBKPAVCParty@@@std@@PAX@2@U?$_Tree_id@PAU?$_Tree_node@U?$pair@$$CBKPAVCParty@@@std@@PAX@std@@@2@QAU32@@Z ; std::_Tree_val<std::_Tree_simple_types<std::pair<unsigned long const ,CParty *> > >::_Insert_node
$LN149@Serialize:
; File C:\IAGOS\server\v18\Source\Source\_common\party.cpp

; 1011 : 		for( int i = 0 ; i < nCount ; i++ )

  00184	43		 inc	 ebx
  00185	3b 5d e8	 cmp	 ebx, DWORD PTR _nCount$6[ebp]
  00188	0f 8c 32 ff ff
	ff		 jl	 $LL7@Serialize

; 1023 : }

  0018e	8b 4d f4	 mov	 ecx, DWORD PTR __$EHRec$[ebp]
  00191	64 89 0d 00 00
	00 00		 mov	 DWORD PTR fs:0, ecx
  00198	59		 pop	 ecx
  00199	5f		 pop	 edi
  0019a	5e		 pop	 esi
  0019b	5b		 pop	 ebx
  0019c	8b e5		 mov	 esp, ebp
  0019e	5d		 pop	 ebp
  0019f	c2 04 00	 ret	 4
$LN167@Serialize:
; File C:\Program Files\Microsoft Visual Studio\2022\Professional\VC\Tools\MSVC\14.44.35207\include\xtree

; 1649 :             _Throw_tree_length_error();

  001a2	e8 00 00 00 00	 call	 ?_Throw_tree_length_error@std@@YAXXZ ; std::_Throw_tree_length_error
$LN178@Serialize:
  001a7	cc		 int	 3
_TEXT	ENDS
;	COMDAT text$x
text$x	SEGMENT
__unwindfunclet$?Serialize@CPartyMng@@QAEXAAVCAr@@@Z$3:
  00000	8d 4d d8	 lea	 ecx, DWORD PTR $T4[ebp]
  00003	e9 00 00 00 00	 jmp	 ??1?$_Alloc_construct_ptr@V?$allocator@U?$_Tree_node@U?$pair@$$CBKPAVCParty@@@std@@PAX@std@@@std@@@std@@QAE@XZ ; std::_Alloc_construct_ptr<std::allocator<std::_Tree_node<std::pair<unsigned long const ,CParty *>,void *> > >::~_Alloc_construct_ptr<std::allocator<std::_Tree_node<std::pair<unsigned long const ,CParty *>,void *> > >
  00008	cc		 int	 3
  00009	cc		 int	 3
  0000a	cc		 int	 3
  0000b	cc		 int	 3
  0000c	cc		 int	 3
__ehhandler$?Serialize@CPartyMng@@QAEXAAVCAr@@@Z:
  0000d	90		 npad	 1
  0000e	90		 npad	 1
  0000f	8b 54 24 08	 mov	 edx, DWORD PTR [esp+8]
  00013	8d 42 0c	 lea	 eax, DWORD PTR [edx+12]
  00016	8b 4a bc	 mov	 ecx, DWORD PTR [edx-68]
  00019	33 c8		 xor	 ecx, eax
  0001b	e8 00 00 00 00	 call	 @__security_check_cookie@4
  00020	b8 00 00 00 00	 mov	 eax, OFFSET __ehfuncinfo$?Serialize@CPartyMng@@QAEXAAVCAr@@@Z
  00025	e9 00 00 00 00	 jmp	 ___CxxFrameHandler3
text$x	ENDS
?Serialize@CPartyMng@@QAEXAAVCAr@@@Z ENDP		; CPartyMng::Serialize
; Function compile flags: /Ogtp
; File C:\IAGOS\server\v18\Source\Source\_common\party.cpp
; File C:\Program Files\Microsoft Visual Studio\2022\Professional\VC\Tools\MSVC\14.44.35207\include\xtree
; File C:\IAGOS\server\v18\Source\Source\_common\party.cpp
; File C:\Program Files\Microsoft Visual Studio\2022\Professional\VC\Tools\MSVC\14.44.35207\include\xtree
; File C:\Program Files\Microsoft Visual Studio\2022\Professional\VC\Tools\MSVC\14.44.35207\include\type_traits
; File C:\Program Files\Microsoft Visual Studio\2022\Professional\VC\Tools\MSVC\14.44.35207\include\xtree
; File C:\IAGOS\server\v18\Source\Source\_common\party.cpp
;	COMDAT ?GetParty@CPartyMng@@QAEPAVCParty@@K@Z
_TEXT	SEGMENT
__Loc$1 = -12						; size = 12
_uPartyId$ = 8						; size = 4
?GetParty@CPartyMng@@QAEPAVCParty@@K@Z PROC		; CPartyMng::GetParty, COMDAT
; _this$ = ecx

; 972  : {

  00000	55		 push	 ebp
  00001	8b ec		 mov	 ebp, esp
  00003	83 ec 0c	 sub	 esp, 12			; 0000000cH
  00006	56		 push	 esi
; File C:\Program Files\Microsoft Visual Studio\2022\Professional\VC\Tools\MSVC\14.44.35207\include\xtree

; 1384 :         const _Tree_find_result<_Nodeptr> _Loc = _Find_lower_bound(_Keyval);

  00007	8d 45 08	 lea	 eax, DWORD PTR _uPartyId$[ebp]
  0000a	50		 push	 eax
; File C:\IAGOS\server\v18\Source\Source\_common\party.cpp

; 978  : 	C2PartyPtr::iterator i		= m_2PartyPtr.find( uPartyId );

  0000b	8d 71 04	 lea	 esi, DWORD PTR [ecx+4]
; File C:\Program Files\Microsoft Visual Studio\2022\Professional\VC\Tools\MSVC\14.44.35207\include\xtree

; 1384 :         const _Tree_find_result<_Nodeptr> _Loc = _Find_lower_bound(_Keyval);

  0000e	8d 45 f4	 lea	 eax, DWORD PTR __Loc$1[ebp]
  00011	8b ce		 mov	 ecx, esi
  00013	50		 push	 eax
  00014	e8 00 00 00 00	 call	 ??$_Find_lower_bound@K@?$_Tree@V?$_Tmap_traits@KPAVCParty@@U?$less@K@std@@V?$allocator@U?$pair@$$CBKPAVCParty@@@std@@@3@$0A@@std@@@std@@IBE?AU?$_Tree_find_result@PAU?$_Tree_node@U?$pair@$$CBKPAVCParty@@@std@@PAX@std@@@1@ABK@Z ; std::_Tree<std::_Tmap_traits<unsigned long,CParty *,std::less<unsigned long>,std::allocator<std::pair<unsigned long const ,CParty *> >,0> >::_Find_lower_bound<unsigned long>

; 1624 :         return !_Bound->_Isnil && !_DEBUG_LT_PRED(_Getcomp(), _Keyval, _Traits::_Kfn(_Bound->_Myval));

  00019	8b 45 fc	 mov	 eax, DWORD PTR __Loc$1[ebp+8]
  0001c	80 78 0d 00	 cmp	 BYTE PTR [eax+13], 0
  00020	75 16		 jne	 SHORT $LN2@GetParty
; File C:\Program Files\Microsoft Visual Studio\2022\Professional\VC\Tools\MSVC\14.44.35207\include\type_traits

; 2380 :         return _Left < _Right;

  00022	8b 4d 08	 mov	 ecx, DWORD PTR _uPartyId$[ebp]
  00025	3b 48 10	 cmp	 ecx, DWORD PTR [eax+16]
; File C:\Program Files\Microsoft Visual Studio\2022\Professional\VC\Tools\MSVC\14.44.35207\include\xtree

; 1624 :         return !_Bound->_Isnil && !_DEBUG_LT_PRED(_Getcomp(), _Keyval, _Traits::_Kfn(_Bound->_Myval));

  00028	72 0e		 jb	 SHORT $LN2@GetParty

; 37   :     _Tree_unchecked_const_iterator(_Nodeptr _Pnode, const _Mytree* _Plist) noexcept : _Ptr(_Pnode) {

  0002a	3b 06		 cmp	 eax, DWORD PTR [esi]
; File C:\IAGOS\server\v18\Source\Source\_common\party.cpp

; 979  : 	if( i != m_2PartyPtr.end() )

  0002c	74 0a		 je	 SHORT $LN2@GetParty

; 980  : 		return i->second;

  0002e	8b 40 14	 mov	 eax, DWORD PTR [eax+20]
  00031	5e		 pop	 esi

; 982  : }

  00032	8b e5		 mov	 esp, ebp
  00034	5d		 pop	 ebp
  00035	c2 04 00	 ret	 4
$LN2@GetParty:

; 981  : 	return NULL;

  00038	33 c0		 xor	 eax, eax
  0003a	5e		 pop	 esi

; 982  : }

  0003b	8b e5		 mov	 esp, ebp
  0003d	5d		 pop	 ebp
  0003e	c2 04 00	 ret	 4
?GetParty@CPartyMng@@QAEPAVCParty@@K@Z ENDP		; CPartyMng::GetParty
_TEXT	ENDS
; Function compile flags: /Ogtp
; File C:\IAGOS\server\v18\Source\Source\_common\party.cpp
; File C:\Program Files\Microsoft Visual Studio\2022\Professional\VC\Tools\MSVC\14.44.35207\include\xtree
; File C:\Program Files\Microsoft Visual Studio\2022\Professional\VC\Tools\MSVC\14.44.35207\include\type_traits
; File C:\Program Files\Microsoft Visual Studio\2022\Professional\VC\Tools\MSVC\14.44.35207\include\xtree
; File C:\Program Files\Microsoft Visual Studio\2022\Professional\VC\Tools\MSVC\14.44.35207\include\type_traits
; File C:\Program Files\Microsoft Visual Studio\2022\Professional\VC\Tools\MSVC\14.44.35207\include\xtree
; File C:\Program Files\Microsoft Visual Studio\2022\Professional\VC\Tools\MSVC\14.44.35207\include\type_traits
; File C:\Program Files\Microsoft Visual Studio\2022\Professional\VC\Tools\MSVC\14.44.35207\include\xtree
; File C:\IAGOS\server\v18\Source\Source\_common\party.cpp
; File C:\Program Files\Microsoft Visual Studio\2022\Professional\VC\Tools\MSVC\14.44.35207\include\xtree
; File C:\Program Files\Microsoft Visual Studio\2022\Professional\VC\Tools\MSVC\14.44.35207\include\xmemory
; File C:\Program Files\Microsoft Visual Studio\2022\Professional\VC\Tools\MSVC\14.44.35207\include\xtree
; File C:\Program Files\Microsoft Visual Studio\2022\Professional\VC\Tools\MSVC\14.44.35207\include\xmemory
; File C:\Program Files\Microsoft Visual Studio\2022\Professional\VC\Tools\MSVC\14.44.35207\include\xtree
; File C:\IAGOS\server\v18\Source\Source\_common\party.cpp
;	COMDAT ?DeleteParty@CPartyMng@@QAEHK@Z
_TEXT	SEGMENT
__First$ = -4						; size = 4
_this$1$ = -4						; size = 4
_uPartyId$ = 8						; size = 4
_pDstParty$1$ = 8					; size = 4
_this$1$ = 8						; size = 4
?DeleteParty@CPartyMng@@QAEHK@Z PROC			; CPartyMng::DeleteParty, COMDAT
; _this$ = ecx

; 933  : {

  00000	55		 push	 ebp
  00001	8b ec		 mov	 ebp, esp
  00003	51		 push	 ecx
  00004	53		 push	 ebx

; 934  : 	CParty* pParty = GetParty( uPartyId );

  00005	8b 5d 08	 mov	 ebx, DWORD PTR _uPartyId$[ebp]
  00008	8b c1		 mov	 eax, ecx
  0000a	56		 push	 esi
  0000b	53		 push	 ebx
  0000c	89 45 fc	 mov	 DWORD PTR _this$1$[ebp], eax
  0000f	e8 00 00 00 00	 call	 ?GetParty@CPartyMng@@QAEPAVCParty@@K@Z ; CPartyMng::GetParty
  00014	8b f0		 mov	 esi, eax

; 935  : 	if( pParty )

  00016	85 f6		 test	 esi, esi
  00018	0f 84 33 01 00
	00		 je	 $LN2@DeletePart

; 936  : 	{
; 937  : 		if( pParty->m_idDuelParty )		// ±Ř´ÜµŕľóÁßŔĎ¶§ ±Ř´ÜŔĚ ÇŘĂĽµÇľúŔ¸¸é

  0001e	57		 push	 edi
  0001f	8b be 04 02 00
	00		 mov	 edi, DWORD PTR [esi+516]
  00025	85 ff		 test	 edi, edi
  00027	74 46		 je	 SHORT $LN3@DeletePart

; 938  : 		{
; 939  : 			CParty *pDstParty = GetParty( pParty->m_idDuelParty );		// »ó´ë ĆÄĆĽżřµéżˇ°Ôµµ thisĆÄĆĽ°ˇ ÇŘĂĽµÇľî µŕľóŔĚÇŘÁ¦µĆ´Ů´Â°É ľË¸˛.

  00029	8b 4d fc	 mov	 ecx, DWORD PTR _this$1$[ebp]
  0002c	57		 push	 edi
  0002d	e8 00 00 00 00	 call	 ?GetParty@CPartyMng@@QAEPAVCParty@@K@Z ; CPartyMng::GetParty
  00032	89 45 08	 mov	 DWORD PTR _pDstParty$1$[ebp], eax

; 940  : 			if( pDstParty )

  00035	85 c0		 test	 eax, eax
  00037	74 0a		 je	 SHORT $LN4@DeletePart

; 941  : 			{
; 942  : 				pDstParty->DoDuelPartyCancel( pParty );

  00039	56		 push	 esi
  0003a	8b c8		 mov	 ecx, eax
  0003c	e8 00 00 00 00	 call	 ?DoDuelPartyCancel@CParty@@QAEXPAV1@@Z ; CParty::DoDuelPartyCancel

; 943  : 			} 

  00041	eb 0e		 jmp	 SHORT $LN5@DeletePart
$LN4@DeletePart:

; 944  : 			else
; 945  : 			{
; 946  : 				Error( "CPartyMng::DeleteParty : »ó´ëĆÄĆĽ¸¦ ĂŁŔ» Ľö ľřŔ˝ %d", pParty->m_idDuelParty );

  00043	57		 push	 edi
  00044	68 00 00 00 00	 push	 OFFSET ??_C@_0DE@IHABOFNN@CPartyMng?3?3DeleteParty?5?3?5?$LL?s?$LE?k?F?D@
  00049	e8 00 00 00 00	 call	 ?Error@@YAPBDPBDZZ	; Error
  0004e	83 c4 08	 add	 esp, 8
$LN5@DeletePart:

; 947  : 			}
; 948  : 
; 949  : 	#ifdef __WORLDSERVER
; 950  : 			g_DPCoreClient.SendSetPartyDuel( pParty->m_uPartyId, pParty->m_idDuelParty, FALSE );

  00051	6a 00		 push	 0
  00053	ff b6 04 02 00
	00		 push	 DWORD PTR [esi+516]
  00059	b9 00 00 00 00	 mov	 ecx, OFFSET ?g_DPCoreClient@@3VCDPCoreClient@@A ; g_DPCoreClient
  0005e	ff 36		 push	 DWORD PTR [esi]
  00060	e8 00 00 00 00	 call	 ?SendSetPartyDuel@CDPCoreClient@@QAEXKKH@Z ; CDPCoreClient::SendSetPartyDuel

; 951  : 	#endif // __WORLDSERVER
; 952  : 			pParty->DoDuelPartyCancel( pDstParty );	// thisĆÄĆĽżřµéżˇ°Ôµµ µŕľóÇŘÁ¦µĆ´Ů´Â°É ľË¸˛.

  00065	ff 75 08	 push	 DWORD PTR _pDstParty$1$[ebp]
  00068	8b ce		 mov	 ecx, esi
  0006a	e8 00 00 00 00	 call	 ?DoDuelPartyCancel@CParty@@QAEXPAV1@@Z ; CParty::DoDuelPartyCancel
$LN3@DeletePart:

; 953  : 		}
; 954  : #ifdef __WORLDSERVER
; 955  : #if __VER >= 14 // __INSTANCE_DUNGEON
; 956  : 		CInstanceDungeonParty::GetInstance()->DestroyAllDungeonByDungeonID( uPartyId );

  0006f	53		 push	 ebx
  00070	e8 00 00 00 00	 call	 ?GetInstance@CInstanceDungeonParty@@SAPAV1@XZ ; CInstanceDungeonParty::GetInstance
  00075	8b c8		 mov	 ecx, eax
  00077	e8 00 00 00 00	 call	 ?DestroyAllDungeonByDungeonID@CInstanceDungeonBase@@QAEXK@Z ; CInstanceDungeonBase::DestroyAllDungeonByDungeonID

; 957  : #endif // __INSTANCE_DUNGEON
; 958  : 
; 959  : #ifdef	__COLOSSEUM
; 960  : 		CColosseumMng::GetInstance()->DestroyMatch( uPartyId );

  0007c	53		 push	 ebx
  0007d	e8 00 00 00 00	 call	 ?GetInstance@CColosseumMng@@SAPAV1@XZ ; CColosseumMng::GetInstance
  00082	8b c8		 mov	 ecx, eax
  00084	e8 00 00 00 00	 call	 ?DestroyMatch@CColosseumMng@@QAEXK@Z ; CColosseumMng::DestroyMatch
  00089	68 0c 02 00 00	 push	 524			; 0000020cH
  0008e	56		 push	 esi
  0008f	e8 00 00 00 00	 call	 ??3@YAXPAXI@Z		; operator delete

; 961  : #endif // __COLOSSEUM
; 962  : #endif // __WORLDSERVER
; 963  : 
; 964  : 		safe_delete( pParty );
; 965  : 		m_2PartyPtr.erase( uPartyId );

  00094	8b 55 fc	 mov	 edx, DWORD PTR _this$1$[ebp]
  00097	83 c4 08	 add	 esp, 8
  0009a	83 c2 04	 add	 edx, 4
  0009d	89 55 08	 mov	 DWORD PTR _this$1$[ebp], edx
; File C:\Program Files\Microsoft Visual Studio\2022\Professional\VC\Tools\MSVC\14.44.35207\include\xtree

; 1709 :         _Nodeptr _Pnode   = _Scary->_Myhead->_Parent;

  000a0	8b 3a		 mov	 edi, DWORD PTR [edx]

; 1710 :         _Nodeptr _Lonode  = _Scary->_Myhead; // end() if search fails

  000a2	8b f7		 mov	 esi, edi
  000a4	8b 4f 04	 mov	 ecx, DWORD PTR [edi+4]
  000a7	8b c1		 mov	 eax, ecx

; 1711 :         _Nodeptr _Hinode  = _Scary->_Myhead; // end() if search fails
; 1712 : 
; 1713 :         while (!_Pnode->_Isnil) {

  000a9	80 78 0d 00	 cmp	 BYTE PTR [eax+13], 0
  000ad	75 25		 jne	 SHORT $LN18@DeletePart
  000af	90		 npad	 1
$LL17@DeletePart:
; File C:\Program Files\Microsoft Visual Studio\2022\Professional\VC\Tools\MSVC\14.44.35207\include\type_traits

; 2380 :         return _Left < _Right;

  000b0	8b 50 10	 mov	 edx, DWORD PTR [eax+16]
  000b3	3b d3		 cmp	 edx, ebx
; File C:\Program Files\Microsoft Visual Studio\2022\Professional\VC\Tools\MSVC\14.44.35207\include\xtree

; 1715 :             if (_DEBUG_LT_PRED(_Comp, _Nodekey, _Keyval)) {

  000b5	73 05		 jae	 SHORT $LN21@DeletePart

; 1716 :                 _Pnode = _Pnode->_Right; // descend right subtree

  000b7	8b 40 08	 mov	 eax, DWORD PTR [eax+8]

; 1717 :             } else { // _Pnode not less than _Keyval, remember it

  000ba	eb 0f		 jmp	 SHORT $LN22@DeletePart
$LN21@DeletePart:

; 1718 :                 if (_Hinode->_Isnil && _DEBUG_LT_PRED(_Comp, _Keyval, _Nodekey)) {

  000bc	80 7f 0d 00	 cmp	 BYTE PTR [edi+13], 0
  000c0	74 05		 je	 SHORT $LN23@DeletePart
; File C:\Program Files\Microsoft Visual Studio\2022\Professional\VC\Tools\MSVC\14.44.35207\include\type_traits

; 2380 :         return _Left < _Right;

  000c2	3b da		 cmp	 ebx, edx
; File C:\Program Files\Microsoft Visual Studio\2022\Professional\VC\Tools\MSVC\14.44.35207\include\xtree

; 1718 :                 if (_Hinode->_Isnil && _DEBUG_LT_PRED(_Comp, _Keyval, _Nodekey)) {

  000c4	0f 42 f8	 cmovb	 edi, eax
$LN23@DeletePart:

; 1719 :                     _Hinode = _Pnode; // _Pnode greater, remember it
; 1720 :                 }
; 1721 : 
; 1722 :                 _Lonode = _Pnode;

  000c7	8b f0		 mov	 esi, eax

; 1723 :                 _Pnode  = _Pnode->_Left; // descend left subtree

  000c9	8b 00		 mov	 eax, DWORD PTR [eax]
$LN22@DeletePart:

; 1711 :         _Nodeptr _Hinode  = _Scary->_Myhead; // end() if search fails
; 1712 : 
; 1713 :         while (!_Pnode->_Isnil) {

  000cb	80 78 0d 00	 cmp	 BYTE PTR [eax+13], 0
  000cf	74 df		 je	 SHORT $LL17@DeletePart
  000d1	8b 55 08	 mov	 edx, DWORD PTR _this$1$[ebp]
$LN18@DeletePart:

; 1724 :             }
; 1725 :         }
; 1726 : 
; 1727 :         _Pnode = _Hinode->_Isnil ? _Scary->_Myhead->_Parent : _Hinode->_Left; // continue scan for upper bound

  000d4	80 7f 0d 00	 cmp	 BYTE PTR [edi+13], 0
  000d8	75 02		 jne	 SHORT $LN28@DeletePart
  000da	8b 0f		 mov	 ecx, DWORD PTR [edi]
$LN28@DeletePart:

; 1728 :         while (!_Pnode->_Isnil) {

  000dc	80 79 0d 00	 cmp	 BYTE PTR [ecx+13], 0
  000e0	75 14		 jne	 SHORT $LN20@DeletePart
$LL19@DeletePart:
; File C:\Program Files\Microsoft Visual Studio\2022\Professional\VC\Tools\MSVC\14.44.35207\include\type_traits

; 2380 :         return _Left < _Right;

  000e2	3b 59 10	 cmp	 ebx, DWORD PTR [ecx+16]
; File C:\Program Files\Microsoft Visual Studio\2022\Professional\VC\Tools\MSVC\14.44.35207\include\xtree

; 1729 :             if (_DEBUG_LT_PRED(_Getcomp(), _Keyval, _Traits::_Kfn(_Pnode->_Myval))) {

  000e5	73 06		 jae	 SHORT $LN24@DeletePart

; 1730 :                 // _Pnode greater than _Keyval, remember it
; 1731 :                 _Hinode = _Pnode;

  000e7	8b f9		 mov	 edi, ecx

; 1732 :                 _Pnode  = _Pnode->_Left; // descend left subtree

  000e9	8b 09		 mov	 ecx, DWORD PTR [ecx]

; 1733 :             } else {

  000eb	eb 03		 jmp	 SHORT $LN25@DeletePart
$LN24@DeletePart:

; 1734 :                 _Pnode = _Pnode->_Right; // descend right subtree

  000ed	8b 49 08	 mov	 ecx, DWORD PTR [ecx+8]
$LN25@DeletePart:

; 1728 :         while (!_Pnode->_Isnil) {

  000f0	80 79 0d 00	 cmp	 BYTE PTR [ecx+13], 0
  000f4	74 ec		 je	 SHORT $LL19@DeletePart
$LN20@DeletePart:

; 96   :         return _Ptr == _Right._Ptr;

  000f6	8b 02		 mov	 eax, DWORD PTR [edx]

; 1329 :         _Erase_unchecked(_First, _Last);

  000f8	89 75 fc	 mov	 DWORD PTR __First$[ebp], esi

; 96   :         return _Ptr == _Right._Ptr;

  000fb	3b 30		 cmp	 esi, DWORD PTR [eax]

; 1311 :         if (_First == _Begin && _Last._Ptr->_Isnil) {

  000fd	75 1b		 jne	 SHORT $LN135@DeletePart
  000ff	80 7f 0d 00	 cmp	 BYTE PTR [edi+13], 0
  00103	74 15		 je	 SHORT $LN135@DeletePart

; 1312 :             // erase all
; 1313 :             clear();

  00105	8b ca		 mov	 ecx, edx
  00107	e8 00 00 00 00	 call	 ?clear@?$_Tree@V?$_Tmap_traits@KPAVCParty@@U?$less@K@std@@V?$allocator@U?$pair@$$CBKPAVCParty@@@std@@@3@$0A@@std@@@std@@QAEXXZ ; std::_Tree<std::_Tmap_traits<unsigned long,CParty *,std::less<unsigned long>,std::allocator<std::pair<unsigned long const ,CParty *> >,0> >::clear
; File C:\IAGOS\server\v18\Source\Source\_common\party.cpp

; 966  : 		return TRUE;

  0010c	5f		 pop	 edi
  0010d	5e		 pop	 esi
  0010e	b8 01 00 00 00	 mov	 eax, 1

; 969  : }

  00113	5b		 pop	 ebx
  00114	8b e5		 mov	 esp, ebp
  00116	5d		 pop	 ebp
  00117	c2 04 00	 ret	 4
$LN135@DeletePart:
; File C:\Program Files\Microsoft Visual Studio\2022\Professional\VC\Tools\MSVC\14.44.35207\include\xtree

; 101  :         return !(*this == _Right);

  0011a	3b f7		 cmp	 esi, edi

; 1318 :         while (_First != _Last) {

  0011c	74 25		 je	 SHORT $LN141@DeletePart
  0011e	8b 5d 08	 mov	 ebx, DWORD PTR _this$1$[ebp]
$LL75@DeletePart:

; 66   :         ++*this;

  00121	8d 4d fc	 lea	 ecx, DWORD PTR __First$[ebp]
  00124	e8 00 00 00 00	 call	 ??E?$_Tree_unchecked_const_iterator@V?$_Tree_val@U?$_Tree_simple_types@U?$pair@$$CBKPAVCParty@@@std@@@std@@@std@@U_Iterator_base0@2@@std@@QAEAAV01@XZ ; std::_Tree_unchecked_const_iterator<std::_Tree_val<std::_Tree_simple_types<std::pair<unsigned long const ,CParty *> > >,std::_Iterator_base0>::operator++

; 1303 :         _Nodeptr _Erasednode = _Scary->_Extract(_Where); // node to erase

  00129	56		 push	 esi
  0012a	8b cb		 mov	 ecx, ebx
  0012c	e8 00 00 00 00	 call	 ?_Extract@?$_Tree_val@U?$_Tree_simple_types@U?$pair@$$CBKPAVCParty@@@std@@@std@@@std@@QAEPAU?$_Tree_node@U?$pair@$$CBKPAVCParty@@@std@@PAX@2@V?$_Tree_unchecked_const_iterator@V?$_Tree_val@U?$_Tree_simple_types@U?$pair@$$CBKPAVCParty@@@std@@@std@@@std@@U_Iterator_base0@2@@2@@Z ; std::_Tree_val<std::_Tree_simple_types<std::pair<unsigned long const ,CParty *> > >::_Extract
; File C:\Program Files\Microsoft Visual Studio\2022\Professional\VC\Tools\MSVC\14.44.35207\include\xmemory

; 289  :         ::operator delete(_Ptr, _Bytes);

  00131	6a 18		 push	 24			; 00000018H
  00133	50		 push	 eax
  00134	e8 00 00 00 00	 call	 ??3@YAXPAXI@Z		; operator delete
; File C:\Program Files\Microsoft Visual Studio\2022\Professional\VC\Tools\MSVC\14.44.35207\include\xtree

; 101  :         return !(*this == _Right);

  00139	8b 75 fc	 mov	 esi, DWORD PTR __First$[ebp]
; File C:\Program Files\Microsoft Visual Studio\2022\Professional\VC\Tools\MSVC\14.44.35207\include\xmemory

; 289  :         ::operator delete(_Ptr, _Bytes);

  0013c	83 c4 08	 add	 esp, 8
; File C:\Program Files\Microsoft Visual Studio\2022\Professional\VC\Tools\MSVC\14.44.35207\include\xtree

; 101  :         return !(*this == _Right);

  0013f	3b f7		 cmp	 esi, edi

; 1318 :         while (_First != _Last) {

  00141	75 de		 jne	 SHORT $LL75@DeletePart
$LN141@DeletePart:
; File C:\IAGOS\server\v18\Source\Source\_common\party.cpp

; 966  : 		return TRUE;

  00143	5f		 pop	 edi
  00144	5e		 pop	 esi
  00145	b8 01 00 00 00	 mov	 eax, 1

; 969  : }

  0014a	5b		 pop	 ebx
  0014b	8b e5		 mov	 esp, ebp
  0014d	5d		 pop	 ebp
  0014e	c2 04 00	 ret	 4
$LN2@DeletePart:
  00151	5e		 pop	 esi

; 967  : 	}
; 968  : 	return FALSE;

  00152	33 c0		 xor	 eax, eax

; 969  : }

  00154	5b		 pop	 ebx
  00155	8b e5		 mov	 esp, ebp
  00157	5d		 pop	 ebp
  00158	c2 04 00	 ret	 4
?DeleteParty@CPartyMng@@QAEHK@Z ENDP			; CPartyMng::DeleteParty
_TEXT	ENDS
; Function compile flags: /Ogtp
; File C:\IAGOS\server\v18\Source\Source\_common\party.cpp
; File C:\Program Files\Microsoft Visual Studio\2022\Professional\VC\Tools\MSVC\14.44.35207\include\utility
; File C:\IAGOS\server\v18\Source\Source\_common\party.cpp
; File C:\Program Files\Microsoft Visual Studio\2022\Professional\VC\Tools\MSVC\14.44.35207\include\utility
; File C:\IAGOS\server\v18\Source\Source\_common\party.cpp
; File C:\Program Files\Microsoft Visual Studio\2022\Professional\VC\Tools\MSVC\14.44.35207\include\utility
; File C:\IAGOS\server\v18\Source\Source\_common\party.cpp
;	COMDAT ?NewParty@CPartyMng@@QAEKKJJEPADKJJE0K@Z
_TEXT	SEGMENT
$T1 = -16						; size = 8
$T2 = -8						; size = 8
_uLeaderId$ = 8						; size = 4
_nLeaderLevel$ = 12					; size = 4
_nLeaderJob$ = 16					; size = 4
_nLeaderSex$ = 20					; size = 1
_szLeaderName$ = 24					; size = 4
_uMemberId$ = 28					; size = 4
_nMemberLevel$ = 32					; size = 4
_nMemberJob$ = 36					; size = 4
_nMemberSex$ = 40					; size = 1
_szMembername$ = 44					; size = 4
_uPartyId$ = 48						; size = 4
$T3 = 48						; size = 4
?NewParty@CPartyMng@@QAEKKJJEPADKJJE0K@Z PROC		; CPartyMng::NewParty, COMDAT
; _this$ = ecx

; 890  : {

  00000	55		 push	 ebp
  00001	8b ec		 mov	 ebp, esp

; 891  : //	locked
; 892  : 	if( 0 == uPartyId )

  00003	8b 45 30	 mov	 eax, DWORD PTR _uPartyId$[ebp]
  00006	83 ec 10	 sub	 esp, 16			; 00000010H
  00009	56		 push	 esi
  0000a	8b f1		 mov	 esi, ecx
  0000c	57		 push	 edi
  0000d	85 c0		 test	 eax, eax
  0000f	75 06		 jne	 SHORT $LN2@NewParty

; 893  : 	{
; 894  : 		m_id++;

  00011	ff 06		 inc	 DWORD PTR [esi]
  00013	8b 06		 mov	 eax, DWORD PTR [esi]

; 895  : 	}

  00015	eb 02		 jmp	 SHORT $LN3@NewParty
$LN2@NewParty:

; 896  : 	else
; 897  : 	{
; 898  : 		m_id = uPartyId;

  00017	89 06		 mov	 DWORD PTR [esi], eax
$LN3@NewParty:

; 899  : 	}
; 900  : 
; 901  : 	
; 902  : 	if( NULL == GetParty( m_id ) ) // NULL ŔĚ¸é ±Ř´ÜŔĚ ľřŔ¸ąÇ·Î ¸¸µéľîľß ÇŃ´Ů

  00019	50		 push	 eax
  0001a	e8 00 00 00 00	 call	 ?GetParty@CPartyMng@@QAEPAVCParty@@K@Z ; CPartyMng::GetParty
  0001f	85 c0		 test	 eax, eax
  00021	75 7c		 jne	 SHORT $LN17@NewParty

; 903  : 	{
; 904  : 		CParty* pParty	= new CParty;

  00023	68 0c 02 00 00	 push	 524			; 0000020cH
  00028	e8 00 00 00 00	 call	 ??2@YAPAXI@Z		; operator new
  0002d	83 c4 04	 add	 esp, 4
  00030	89 45 30	 mov	 DWORD PTR $T3[ebp], eax
  00033	85 c0		 test	 eax, eax
  00035	74 0b		 je	 SHORT $LN8@NewParty
  00037	8b c8		 mov	 ecx, eax
  00039	e8 00 00 00 00	 call	 ??0CParty@@QAE@XZ	; CParty::CParty
  0003e	8b f8		 mov	 edi, eax
  00040	eb 02		 jmp	 SHORT $LN9@NewParty
$LN8@NewParty:
  00042	33 ff		 xor	 edi, edi
$LN9@NewParty:

; 905  : 		
; 906  : //		pParty->Lock();
; 907  : 		pParty->SetPartyId( m_id );

  00044	8b 06		 mov	 eax, DWORD PTR [esi]

; 908  : #if __VER >= 11 // __SYS_PLAYER_DATA
; 909  : 		if( TRUE == pParty->NewMember( uLeaderId ) && TRUE == pParty->NewMember( uMemberId ) )

  00046	8b cf		 mov	 ecx, edi
  00048	ff 75 08	 push	 DWORD PTR _uLeaderId$[ebp]
  0004b	89 07		 mov	 DWORD PTR [edi], eax
  0004d	e8 00 00 00 00	 call	 ?NewMember@CParty@@QAEHK@Z ; CParty::NewMember
  00052	83 f8 01	 cmp	 eax, 1
  00055	75 3a		 jne	 SHORT $LN5@NewParty
  00057	ff 75 1c	 push	 DWORD PTR _uMemberId$[ebp]
  0005a	8b cf		 mov	 ecx, edi
  0005c	e8 00 00 00 00	 call	 ?NewMember@CParty@@QAEHK@Z ; CParty::NewMember
  00061	83 f8 01	 cmp	 eax, 1
  00064	75 2b		 jne	 SHORT $LN5@NewParty
; File C:\Program Files\Microsoft Visual Studio\2022\Professional\VC\Tools\MSVC\14.44.35207\include\utility

; 274  :         : first(_STD forward<_Other1>(_Val1)), second(_STD forward<_Other2>(_Val2)) {

  00066	8b 06		 mov	 eax, DWORD PTR [esi]
; File C:\IAGOS\server\v18\Source\Source\_common\party.cpp

; 915  : 			m_2PartyPtr.insert( C2PartyPtr::value_type( m_id, pParty ) );

  00068	8d 4e 04	 lea	 ecx, DWORD PTR [esi+4]
; File C:\Program Files\Microsoft Visual Studio\2022\Professional\VC\Tools\MSVC\14.44.35207\include\utility

; 274  :         : first(_STD forward<_Other1>(_Val1)), second(_STD forward<_Other2>(_Val2)) {

  0006b	89 45 f8	 mov	 DWORD PTR $T2[ebp], eax
; File C:\IAGOS\server\v18\Source\Source\_common\party.cpp

; 915  : 			m_2PartyPtr.insert( C2PartyPtr::value_type( m_id, pParty ) );

  0006e	8d 45 f8	 lea	 eax, DWORD PTR $T2[ebp]
  00071	50		 push	 eax
  00072	8d 45 f0	 lea	 eax, DWORD PTR $T1[ebp]
; File C:\Program Files\Microsoft Visual Studio\2022\Professional\VC\Tools\MSVC\14.44.35207\include\utility

; 274  :         : first(_STD forward<_Other1>(_Val1)), second(_STD forward<_Other2>(_Val2)) {

  00075	89 7d fc	 mov	 DWORD PTR $T2[ebp+4], edi
; File C:\IAGOS\server\v18\Source\Source\_common\party.cpp

; 915  : 			m_2PartyPtr.insert( C2PartyPtr::value_type( m_id, pParty ) );

  00078	50		 push	 eax
  00079	e8 00 00 00 00	 call	 ??$insert@$0A@$0A@@?$_Tree@V?$_Tmap_traits@KPAVCParty@@U?$less@K@std@@V?$allocator@U?$pair@$$CBKPAVCParty@@@std@@@3@$0A@@std@@@std@@QAE?AU?$pair@V?$_Tree_iterator@V?$_Tree_val@U?$_Tree_simple_types@U?$pair@$$CBKPAVCParty@@@std@@@std@@@std@@@std@@_N@1@$$QAU?$pair@$$CBKPAVCParty@@@1@@Z ; std::_Tree<std::_Tmap_traits<unsigned long,CParty *,std::less<unsigned long>,std::allocator<std::pair<unsigned long const ,CParty *> >,0> >::insert<0,0>

; 916  : 			pParty->m_nGetItemPlayerId = pParty->m_aMember[0].m_uPlayerId;

  0007e	8b 47 28	 mov	 eax, DWORD PTR [edi+40]
  00081	89 87 00 02 00
	00		 mov	 DWORD PTR [edi+512], eax

; 917  : //			pParty->Unlock();
; 918  : 			return m_id;

  00087	8b 06		 mov	 eax, DWORD PTR [esi]
  00089	5f		 pop	 edi

; 927  : }

  0008a	5e		 pop	 esi
  0008b	8b e5		 mov	 esp, ebp
  0008d	5d		 pop	 ebp
  0008e	c2 2c 00	 ret	 44			; 0000002cH
$LN5@NewParty:
  00091	68 0c 02 00 00	 push	 524			; 0000020cH
  00096	57		 push	 edi
  00097	e8 00 00 00 00	 call	 ??3@YAXPAXI@Z		; operator delete
  0009c	83 c4 08	 add	 esp, 8
$LN17@NewParty:
  0009f	5f		 pop	 edi

; 919  : 		}
; 920  : 		else // ±Ř´Üżˇ ĽŇĽÓµÇľî ŔÖ´Ů
; 921  : 		{
; 922  : //			pParty->Unlock();
; 923  : 			safe_delete( pParty );
; 924  : 		}
; 925  : 	}
; 926  : 	return 0;

  000a0	33 c0		 xor	 eax, eax

; 927  : }

  000a2	5e		 pop	 esi
  000a3	8b e5		 mov	 esp, ebp
  000a5	5d		 pop	 ebp
  000a6	c2 2c 00	 ret	 44			; 0000002cH
?NewParty@CPartyMng@@QAEKKJJEPADKJJE0K@Z ENDP		; CPartyMng::NewParty
_TEXT	ENDS
; Function compile flags: /Ogtp
; File C:\IAGOS\server\v18\Source\Source\_common\party.cpp
; File C:\Program Files\Microsoft Visual Studio\2022\Professional\VC\Tools\MSVC\14.44.35207\include\xtree
; File C:\IAGOS\server\v18\Source\Source\_common\party.cpp
; File C:\Program Files\Microsoft Visual Studio\2022\Professional\VC\Tools\MSVC\14.44.35207\include\xtree
; File C:\IAGOS\server\v18\Source\Source\_common\party.cpp
;	COMDAT ?Clear@CPartyMng@@QAEXXZ
_TEXT	SEGMENT
_i$1 = -4						; size = 4
?Clear@CPartyMng@@QAEXXZ PROC				; CPartyMng::Clear, COMDAT
; _this$ = ecx

; 867  : {

  00000	55		 push	 ebp
  00001	8b ec		 mov	 ebp, esp
  00003	51		 push	 ecx
  00004	56		 push	 esi
; File C:\Program Files\Microsoft Visual Studio\2022\Professional\VC\Tools\MSVC\14.44.35207\include\xtree

; 1142 :         return iterator(_Scary->_Myhead->_Left, _Scary);

  00005	8d 71 04	 lea	 esi, DWORD PTR [ecx+4]
  00008	8b 0e		 mov	 ecx, DWORD PTR [esi]

; 37   :     _Tree_unchecked_const_iterator(_Nodeptr _Pnode, const _Mytree* _Plist) noexcept : _Ptr(_Pnode) {

  0000a	8b 01		 mov	 eax, DWORD PTR [ecx]
  0000c	89 45 fc	 mov	 DWORD PTR _i$1[ebp], eax

; 237  :         return !(*this == _Right);

  0000f	3b c1		 cmp	 eax, ecx
; File C:\IAGOS\server\v18\Source\Source\_common\party.cpp

; 872  : 	for( C2PartyPtr::iterator i	= m_2PartyPtr.begin(); i != m_2PartyPtr.end(); ++i )

  00011	74 24		 je	 SHORT $LN3@Clear
$LL4@Clear:

; 873  : 		safe_delete( i->second );

  00013	8b 40 14	 mov	 eax, DWORD PTR [eax+20]
  00016	85 c0		 test	 eax, eax
  00018	74 0e		 je	 SHORT $LN2@Clear
  0001a	68 0c 02 00 00	 push	 524			; 0000020cH
  0001f	50		 push	 eax
  00020	e8 00 00 00 00	 call	 ??3@YAXPAXI@Z		; operator delete
  00025	83 c4 08	 add	 esp, 8
$LN2@Clear:
; File C:\Program Files\Microsoft Visual Studio\2022\Professional\VC\Tools\MSVC\14.44.35207\include\xtree

; 198  :         _Mybase::operator++();

  00028	8d 4d fc	 lea	 ecx, DWORD PTR _i$1[ebp]
  0002b	e8 00 00 00 00	 call	 ??E?$_Tree_unchecked_const_iterator@V?$_Tree_val@U?$_Tree_simple_types@U?$pair@$$CBKPAVCParty@@@std@@@std@@@std@@U_Iterator_base0@2@@std@@QAEAAV01@XZ ; std::_Tree_unchecked_const_iterator<std::_Tree_val<std::_Tree_simple_types<std::pair<unsigned long const ,CParty *> > >,std::_Iterator_base0>::operator++

; 237  :         return !(*this == _Right);

  00030	8b 45 fc	 mov	 eax, DWORD PTR _i$1[ebp]
  00033	3b 06		 cmp	 eax, DWORD PTR [esi]
; File C:\IAGOS\server\v18\Source\Source\_common\party.cpp

; 872  : 	for( C2PartyPtr::iterator i	= m_2PartyPtr.begin(); i != m_2PartyPtr.end(); ++i )

  00035	75 dc		 jne	 SHORT $LL4@Clear
$LN3@Clear:

; 874  : 
; 875  : 	m_2PartyPtr.clear();

  00037	8b ce		 mov	 ecx, esi
  00039	e8 00 00 00 00	 call	 ?clear@?$_Tree@V?$_Tmap_traits@KPAVCParty@@U?$less@K@std@@V?$allocator@U?$pair@$$CBKPAVCParty@@@std@@@3@$0A@@std@@@std@@QAEXXZ ; std::_Tree<std::_Tmap_traits<unsigned long,CParty *,std::less<unsigned long>,std::allocator<std::pair<unsigned long const ,CParty *> >,0> >::clear
  0003e	5e		 pop	 esi

; 876  : 	
; 877  : #ifdef __CORESERVER
; 878  : 	CloseWorkers();
; 879  : #endif // __CORESERVER
; 880  : 
; 881  : #ifndef __WORLDSERVER
; 882  : 	m_AddRemoveLock.Leave( theLineFile );	// unlock1
; 883  : #endif	// __WORLDSERVER
; 884  : }

  0003f	8b e5		 mov	 esp, ebp
  00041	5d		 pop	 ebp
  00042	c3		 ret	 0
?Clear@CPartyMng@@QAEXXZ ENDP				; CPartyMng::Clear
_TEXT	ENDS
; Function compile flags: /Ogtp
; File C:\IAGOS\server\v18\Source\Source\_common\party.cpp
; File C:\Program Files\Microsoft Visual Studio\2022\Professional\VC\Tools\MSVC\14.44.35207\include\xtree
; File C:\IAGOS\server\v18\Source\Source\_common\party.cpp
; File C:\Program Files\Microsoft Visual Studio\2022\Professional\VC\Tools\MSVC\14.44.35207\include\xtree
; File C:\Program Files\Microsoft Visual Studio\2022\Professional\VC\Tools\MSVC\14.44.35207\include\xmemory
; File C:\Program Files\Microsoft Visual Studio\2022\Professional\VC\Tools\MSVC\14.44.35207\include\xtree
; File C:\IAGOS\server\v18\Source\Source\_common\party.cpp
; File C:\Program Files\Microsoft Visual Studio\2022\Professional\VC\Tools\MSVC\14.44.35207\include\xmemory
; File C:\Program Files\Microsoft Visual Studio\2022\Professional\VC\Tools\MSVC\14.44.35207\include\xtree
; File C:\Program Files\Microsoft Visual Studio\2022\Professional\VC\Tools\MSVC\14.44.35207\include\xmemory
; File C:\IAGOS\server\v18\Source\Source\_common\party.cpp
;	COMDAT ??1CPartyMng@@QAE@XZ
_TEXT	SEGMENT
??1CPartyMng@@QAE@XZ PROC				; CPartyMng::~CPartyMng, COMDAT
; _this$ = ecx

; 855  : {

  00000	56		 push	 esi
  00001	57		 push	 edi
  00002	8b f9		 mov	 edi, ecx

; 856  : //	CPartyBucket* pBucket	= m_2Party.GetFirstActive();
; 857  : //	while( pBucket )
; 858  : //	{
; 859  : //		delete pBucket->m_value;
; 860  : //		pBucket		= pBucket->pNext;
; 861  : //	}
; 862  : //	m_2Party.RemoveAll();
; 863  : 	Clear();

  00004	e8 00 00 00 00	 call	 ?Clear@CPartyMng@@QAEXXZ ; CPartyMng::Clear
; File C:\Program Files\Microsoft Visual Studio\2022\Professional\VC\Tools\MSVC\14.44.35207\include\xtree

; 777  :         _Erase_tree(_Al, _Myhead->_Parent);

  00009	8b 47 18	 mov	 eax, DWORD PTR [edi+24]
; File C:\IAGOS\server\v18\Source\Source\_common\party.cpp

; 864  : }

  0000c	8d 77 18	 lea	 esi, DWORD PTR [edi+24]
; File C:\Program Files\Microsoft Visual Studio\2022\Professional\VC\Tools\MSVC\14.44.35207\include\xtree

; 777  :         _Erase_tree(_Al, _Myhead->_Parent);

  0000f	8b ce		 mov	 ecx, esi
  00011	ff 70 04	 push	 DWORD PTR [eax+4]
  00014	56		 push	 esi
  00015	e8 00 00 00 00	 call	 ??$_Erase_tree@V?$allocator@U?$_Tree_node@U?$pair@$$CBV?$basic_string@DU?$char_traits@D@std@@V?$allocator@D@2@@std@@K@std@@PAX@std@@@std@@@?$_Tree_val@U?$_Tree_simple_types@U?$pair@$$CBV?$basic_string@DU?$char_traits@D@std@@V?$allocator@D@2@@std@@K@std@@@std@@@std@@QAEXAAV?$allocator@U?$_Tree_node@U?$pair@$$CBV?$basic_string@DU?$char_traits@D@std@@V?$allocator@D@2@@std@@K@std@@PAX@std@@@1@PAU?$_Tree_node@U?$pair@$$CBV?$basic_string@DU?$char_traits@D@std@@V?$allocator@D@2@@std@@K@std@@PAX@1@@Z ; std::_Tree_val<std::_Tree_simple_types<std::pair<std::basic_string<char,std::char_traits<char>,std::allocator<char> > const ,unsigned long> > >::_Erase_tree<std::allocator<std::_Tree_node<std::pair<std::basic_string<char,std::char_traits<char>,std::allocator<char> > const ,unsigned long>,void *> > >
; File C:\Program Files\Microsoft Visual Studio\2022\Professional\VC\Tools\MSVC\14.44.35207\include\xmemory

; 289  :         ::operator delete(_Ptr, _Bytes);

  0001a	6a 2c		 push	 44			; 0000002cH
  0001c	ff 36		 push	 DWORD PTR [esi]
  0001e	e8 00 00 00 00	 call	 ??3@YAXPAXI@Z		; operator delete
; File C:\Program Files\Microsoft Visual Studio\2022\Professional\VC\Tools\MSVC\14.44.35207\include\xtree

; 777  :         _Erase_tree(_Al, _Myhead->_Parent);

  00023	8b 47 10	 mov	 eax, DWORD PTR [edi+16]
; File C:\IAGOS\server\v18\Source\Source\_common\party.cpp

; 864  : }

  00026	8d 77 10	 lea	 esi, DWORD PTR [edi+16]
; File C:\Program Files\Microsoft Visual Studio\2022\Professional\VC\Tools\MSVC\14.44.35207\include\xmemory

; 289  :         ::operator delete(_Ptr, _Bytes);

  00029	83 c4 08	 add	 esp, 8
; File C:\Program Files\Microsoft Visual Studio\2022\Professional\VC\Tools\MSVC\14.44.35207\include\xtree

; 777  :         _Erase_tree(_Al, _Myhead->_Parent);

  0002c	8b ce		 mov	 ecx, esi
  0002e	ff 70 04	 push	 DWORD PTR [eax+4]
  00031	56		 push	 esi
  00032	e8 00 00 00 00	 call	 ??$_Erase_tree@V?$allocator@U?$_Tree_node@U?$pair@$$CBKV?$basic_string@DU?$char_traits@D@std@@V?$allocator@D@2@@std@@@std@@PAX@std@@@std@@@?$_Tree_val@U?$_Tree_simple_types@U?$pair@$$CBKV?$basic_string@DU?$char_traits@D@std@@V?$allocator@D@2@@std@@@std@@@std@@@std@@QAEXAAV?$allocator@U?$_Tree_node@U?$pair@$$CBKV?$basic_string@DU?$char_traits@D@std@@V?$allocator@D@2@@std@@@std@@PAX@std@@@1@PAU?$_Tree_node@U?$pair@$$CBKV?$basic_string@DU?$char_traits@D@std@@V?$allocator@D@2@@std@@@std@@PAX@1@@Z ; std::_Tree_val<std::_Tree_simple_types<std::pair<unsigned long const ,std::basic_string<char,std::char_traits<char>,std::allocator<char> > > > >::_Erase_tree<std::allocator<std::_Tree_node<std::pair<unsigned long const ,std::basic_string<char,std::char_traits<char>,std::allocator<char> > >,void *> > >
; File C:\Program Files\Microsoft Visual Studio\2022\Professional\VC\Tools\MSVC\14.44.35207\include\xmemory

; 289  :         ::operator delete(_Ptr, _Bytes);

  00037	6a 2c		 push	 44			; 0000002cH
  00039	ff 36		 push	 DWORD PTR [esi]
  0003b	e8 00 00 00 00	 call	 ??3@YAXPAXI@Z		; operator delete
  00040	83 c4 08	 add	 esp, 8
; File C:\IAGOS\server\v18\Source\Source\_common\party.cpp

; 864  : }

  00043	8d 4f 04	 lea	 ecx, DWORD PTR [edi+4]
  00046	5f		 pop	 edi
  00047	5e		 pop	 esi
  00048	e9 00 00 00 00	 jmp	 ??1?$_Tree@V?$_Tmap_traits@KPAVCParty@@U?$less@K@std@@V?$allocator@U?$pair@$$CBKPAVCParty@@@std@@@3@$0A@@std@@@std@@QAE@XZ ; std::_Tree<std::_Tmap_traits<unsigned long,CParty *,std::less<unsigned long>,std::allocator<std::pair<unsigned long const ,CParty *> >,0> >::~_Tree<std::_Tmap_traits<unsigned long,CParty *,std::less<unsigned long>,std::allocator<std::pair<unsigned long const ,CParty *> >,0> >
??1CPartyMng@@QAE@XZ ENDP				; CPartyMng::~CPartyMng
_TEXT	ENDS
; Function compile flags: /Ogtp
; File C:\IAGOS\server\v18\Source\Source\_common\party.cpp
; File C:\Program Files\Microsoft Visual Studio\2022\Professional\VC\Tools\MSVC\14.44.35207\include\xtree
; File C:\Program Files\Microsoft Visual Studio\2022\Professional\VC\Tools\MSVC\14.44.35207\include\xmemory
; File C:\IAGOS\server\v18\Source\Source\_common\party.cpp
; File C:\Program Files\Microsoft Visual Studio\2022\Professional\VC\Tools\MSVC\14.44.35207\include\xtree
; File C:\Program Files\Microsoft Visual Studio\2022\Professional\VC\Tools\MSVC\14.44.35207\include\xmemory
; File C:\Program Files\Microsoft Visual Studio\2022\Professional\VC\Tools\MSVC\14.44.35207\include\xtree
; File C:\IAGOS\server\v18\Source\Source\_common\party.cpp
; File C:\Program Files\Microsoft Visual Studio\2022\Professional\VC\Tools\MSVC\14.44.35207\include\xmemory
; File C:\IAGOS\server\v18\Source\Source\_common\party.cpp
; File C:\Program Files\Microsoft Visual Studio\2022\Professional\VC\Tools\MSVC\14.44.35207\include\xtree
; File C:\Program Files\Microsoft Visual Studio\2022\Professional\VC\Tools\MSVC\14.44.35207\include\xmemory
; File C:\Program Files\Microsoft Visual Studio\2022\Professional\VC\Tools\MSVC\14.44.35207\include\xtree
; File C:\IAGOS\server\v18\Source\Source\_common\party.cpp
; File C:\Program Files\Microsoft Visual Studio\2022\Professional\VC\Tools\MSVC\14.44.35207\include\xmemory
; File C:\IAGOS\server\v18\Source\Source\_common\party.cpp
; File C:\Program Files\Microsoft Visual Studio\2022\Professional\VC\Tools\MSVC\14.44.35207\include\xtree
; File C:\Program Files\Microsoft Visual Studio\2022\Professional\VC\Tools\MSVC\14.44.35207\include\xmemory
; File C:\Program Files\Microsoft Visual Studio\2022\Professional\VC\Tools\MSVC\14.44.35207\include\xtree
; File C:\IAGOS\server\v18\Source\Source\_common\party.cpp
;	COMDAT ??0CPartyMng@@QAE@XZ
_TEXT	SEGMENT
_this$ = -20						; size = 4
_this$ = -20						; size = 4
_this$ = -20						; size = 4
_this$ = -16						; size = 4
__$EHRec$ = -12						; size = 12
??0CPartyMng@@QAE@XZ PROC				; CPartyMng::CPartyMng, COMDAT
; _this$ = ecx

; 843  : {

  00000	55		 push	 ebp
  00001	8b ec		 mov	 ebp, esp
  00003	6a ff		 push	 -1
  00005	68 00 00 00 00	 push	 __ehhandler$??0CPartyMng@@QAE@XZ
  0000a	64 a1 00 00 00
	00		 mov	 eax, DWORD PTR fs:0
  00010	50		 push	 eax
  00011	83 ec 08	 sub	 esp, 8
  00014	56		 push	 esi
  00015	57		 push	 edi
  00016	a1 00 00 00 00	 mov	 eax, DWORD PTR ___security_cookie
  0001b	33 c5		 xor	 eax, ebp
  0001d	50		 push	 eax
  0001e	8d 45 f4	 lea	 eax, DWORD PTR __$EHRec$[ebp]
  00021	64 a3 00 00 00
	00		 mov	 DWORD PTR fs:0, eax
  00027	8b f9		 mov	 edi, ecx
  00029	89 7d f0	 mov	 DWORD PTR _this$[ebp], edi
  0002c	8d 77 04	 lea	 esi, DWORD PTR [edi+4]
; File C:\Program Files\Microsoft Visual Studio\2022\Professional\VC\Tools\MSVC\14.44.35207\include\xtree

; 450  :     _Tree_val() noexcept : _Myhead(), _Mysize(0) {}

  0002f	c7 06 00 00 00
	00		 mov	 DWORD PTR [esi], 0
; File C:\Program Files\Microsoft Visual Studio\2022\Professional\VC\Tools\MSVC\14.44.35207\include\xmemory

; 136  :         return ::operator new(_Bytes);

  00035	6a 18		 push	 24			; 00000018H
; File C:\IAGOS\server\v18\Source\Source\_common\party.cpp

; 843  : {

  00037	89 75 ec	 mov	 DWORD PTR _this$[ebp], esi
; File C:\Program Files\Microsoft Visual Studio\2022\Professional\VC\Tools\MSVC\14.44.35207\include\xtree

; 450  :     _Tree_val() noexcept : _Myhead(), _Mysize(0) {}

  0003a	c7 46 04 00 00
	00 00		 mov	 DWORD PTR [esi+4], 0
; File C:\Program Files\Microsoft Visual Studio\2022\Professional\VC\Tools\MSVC\14.44.35207\include\xmemory

; 136  :         return ::operator new(_Bytes);

  00041	e8 00 00 00 00	 call	 ??2@YAPAXI@Z		; operator new
; File C:\Program Files\Microsoft Visual Studio\2022\Professional\VC\Tools\MSVC\14.44.35207\include\xtree

; 346  :         _Construct_in_place(_Pnode->_Left, _Pnode);

  00046	89 00		 mov	 DWORD PTR [eax], eax

; 347  :         _Construct_in_place(_Pnode->_Parent, _Pnode);

  00048	89 40 04	 mov	 DWORD PTR [eax+4], eax

; 348  :         _Construct_in_place(_Pnode->_Right, _Pnode);

  0004b	89 40 08	 mov	 DWORD PTR [eax+8], eax

; 349  :         _Pnode->_Color = _Black;

  0004e	66 c7 40 0c 01
	01		 mov	 WORD PTR [eax+12], 257	; 00000101H

; 1957 :         _Scary->_Myhead = _Node::_Buyheadnode(_Getal());

  00054	89 06		 mov	 DWORD PTR [esi], eax
; File C:\IAGOS\server\v18\Source\Source\_common\party.cpp

; 843  : {

  00056	8d 77 10	 lea	 esi, DWORD PTR [edi+16]
  00059	c7 45 fc 00 00
	00 00		 mov	 DWORD PTR __$EHRec$[ebp+8], 0
; File C:\Program Files\Microsoft Visual Studio\2022\Professional\VC\Tools\MSVC\14.44.35207\include\xmemory

; 136  :         return ::operator new(_Bytes);

  00060	6a 2c		 push	 44			; 0000002cH
; File C:\IAGOS\server\v18\Source\Source\_common\party.cpp

; 843  : {

  00062	89 75 ec	 mov	 DWORD PTR _this$[ebp], esi
; File C:\Program Files\Microsoft Visual Studio\2022\Professional\VC\Tools\MSVC\14.44.35207\include\xtree

; 450  :     _Tree_val() noexcept : _Myhead(), _Mysize(0) {}

  00065	c7 06 00 00 00
	00		 mov	 DWORD PTR [esi], 0
  0006b	c7 46 04 00 00
	00 00		 mov	 DWORD PTR [esi+4], 0
; File C:\Program Files\Microsoft Visual Studio\2022\Professional\VC\Tools\MSVC\14.44.35207\include\xmemory

; 136  :         return ::operator new(_Bytes);

  00072	e8 00 00 00 00	 call	 ??2@YAPAXI@Z		; operator new
; File C:\Program Files\Microsoft Visual Studio\2022\Professional\VC\Tools\MSVC\14.44.35207\include\xtree

; 346  :         _Construct_in_place(_Pnode->_Left, _Pnode);

  00077	89 00		 mov	 DWORD PTR [eax], eax

; 347  :         _Construct_in_place(_Pnode->_Parent, _Pnode);

  00079	89 40 04	 mov	 DWORD PTR [eax+4], eax

; 348  :         _Construct_in_place(_Pnode->_Right, _Pnode);

  0007c	89 40 08	 mov	 DWORD PTR [eax+8], eax

; 349  :         _Pnode->_Color = _Black;

  0007f	66 c7 40 0c 01
	01		 mov	 WORD PTR [eax+12], 257	; 00000101H

; 1957 :         _Scary->_Myhead = _Node::_Buyheadnode(_Getal());

  00085	89 06		 mov	 DWORD PTR [esi], eax
; File C:\IAGOS\server\v18\Source\Source\_common\party.cpp

; 843  : {

  00087	8d 77 18	 lea	 esi, DWORD PTR [edi+24]
  0008a	c6 45 fc 01	 mov	 BYTE PTR __$EHRec$[ebp+8], 1
; File C:\Program Files\Microsoft Visual Studio\2022\Professional\VC\Tools\MSVC\14.44.35207\include\xmemory

; 136  :         return ::operator new(_Bytes);

  0008e	6a 2c		 push	 44			; 0000002cH
; File C:\IAGOS\server\v18\Source\Source\_common\party.cpp

; 843  : {

  00090	89 75 ec	 mov	 DWORD PTR _this$[ebp], esi
; File C:\Program Files\Microsoft Visual Studio\2022\Professional\VC\Tools\MSVC\14.44.35207\include\xtree

; 450  :     _Tree_val() noexcept : _Myhead(), _Mysize(0) {}

  00093	c7 06 00 00 00
	00		 mov	 DWORD PTR [esi], 0
  00099	c7 46 04 00 00
	00 00		 mov	 DWORD PTR [esi+4], 0
; File C:\Program Files\Microsoft Visual Studio\2022\Professional\VC\Tools\MSVC\14.44.35207\include\xmemory

; 136  :         return ::operator new(_Bytes);

  000a0	e8 00 00 00 00	 call	 ??2@YAPAXI@Z		; operator new
  000a5	83 c4 0c	 add	 esp, 12			; 0000000cH
; File C:\Program Files\Microsoft Visual Studio\2022\Professional\VC\Tools\MSVC\14.44.35207\include\xtree

; 346  :         _Construct_in_place(_Pnode->_Left, _Pnode);

  000a8	89 00		 mov	 DWORD PTR [eax], eax

; 347  :         _Construct_in_place(_Pnode->_Parent, _Pnode);

  000aa	89 40 04	 mov	 DWORD PTR [eax+4], eax

; 348  :         _Construct_in_place(_Pnode->_Right, _Pnode);

  000ad	89 40 08	 mov	 DWORD PTR [eax+8], eax

; 349  :         _Pnode->_Color = _Black;

  000b0	66 c7 40 0c 01
	01		 mov	 WORD PTR [eax+12], 257	; 00000101H

; 1957 :         _Scary->_Myhead = _Node::_Buyheadnode(_Getal());

  000b6	89 06		 mov	 DWORD PTR [esi], eax
; File C:\IAGOS\server\v18\Source\Source\_common\party.cpp

; 852  : }

  000b8	8b c7		 mov	 eax, edi
  000ba	c7 07 00 00 00
	00		 mov	 DWORD PTR [edi], 0
  000c0	c7 47 0c 00 00
	00 00		 mov	 DWORD PTR [edi+12], 0
  000c7	8b 4d f4	 mov	 ecx, DWORD PTR __$EHRec$[ebp]
  000ca	64 89 0d 00 00
	00 00		 mov	 DWORD PTR fs:0, ecx
  000d1	59		 pop	 ecx
  000d2	5f		 pop	 edi
  000d3	5e		 pop	 esi
  000d4	8b e5		 mov	 esp, ebp
  000d6	5d		 pop	 ebp
  000d7	c3		 ret	 0
_TEXT	ENDS
;	COMDAT text$x
text$x	SEGMENT
__unwindfunclet$??0CPartyMng@@QAE@XZ$0:
  00000	8b 4d f0	 mov	 ecx, DWORD PTR _this$[ebp]
  00003	83 c1 04	 add	 ecx, 4
  00006	e9 00 00 00 00	 jmp	 ??1?$map@KPAVCParty@@U?$less@K@std@@V?$allocator@U?$pair@$$CBKPAVCParty@@@std@@@3@@std@@QAE@XZ
__unwindfunclet$??0CPartyMng@@QAE@XZ$1:
  0000b	8b 4d f0	 mov	 ecx, DWORD PTR _this$[ebp]
  0000e	83 c1 10	 add	 ecx, 16			; 00000010H
  00011	e9 00 00 00 00	 jmp	 ??1?$map@KV?$basic_string@DU?$char_traits@D@std@@V?$allocator@D@2@@std@@U?$less@K@2@V?$allocator@U?$pair@$$CBKV?$basic_string@DU?$char_traits@D@std@@V?$allocator@D@2@@std@@@std@@@2@@std@@QAE@XZ
  00016	cc		 int	 3
  00017	cc		 int	 3
  00018	cc		 int	 3
  00019	cc		 int	 3
  0001a	cc		 int	 3
__ehhandler$??0CPartyMng@@QAE@XZ:
  0001b	90		 npad	 1
  0001c	90		 npad	 1
  0001d	8b 54 24 08	 mov	 edx, DWORD PTR [esp+8]
  00021	8d 42 0c	 lea	 eax, DWORD PTR [edx+12]
  00024	8b 4a ec	 mov	 ecx, DWORD PTR [edx-20]
  00027	33 c8		 xor	 ecx, eax
  00029	e8 00 00 00 00	 call	 @__security_check_cookie@4
  0002e	b8 00 00 00 00	 mov	 eax, OFFSET __ehfuncinfo$??0CPartyMng@@QAE@XZ
  00033	e9 00 00 00 00	 jmp	 ___CxxFrameHandler3
text$x	ENDS
??0CPartyMng@@QAE@XZ ENDP				; CPartyMng::CPartyMng
; Function compile flags: /Ogtp
; File C:\Program Files\Microsoft Visual Studio\2022\Professional\VC\Tools\MSVC\14.44.35207\include\xtree
; File C:\Program Files\Microsoft Visual Studio\2022\Professional\VC\Tools\MSVC\14.44.35207\include\xmemory
;	COMDAT ??1?$map@KV?$basic_string@DU?$char_traits@D@std@@V?$allocator@D@2@@std@@U?$less@K@2@V?$allocator@U?$pair@$$CBKV?$basic_string@DU?$char_traits@D@std@@V?$allocator@D@2@@std@@@std@@@2@@std@@QAE@XZ
_TEXT	SEGMENT
??1?$map@KV?$basic_string@DU?$char_traits@D@std@@V?$allocator@D@2@@std@@U?$less@K@2@V?$allocator@U?$pair@$$CBKV?$basic_string@DU?$char_traits@D@std@@V?$allocator@D@2@@std@@@std@@@2@@std@@QAE@XZ PROC ; std::map<unsigned long,std::basic_string<char,std::char_traits<char>,std::allocator<char> >,std::less<unsigned long>,std::allocator<std::pair<unsigned long const ,std::basic_string<char,std::char_traits<char>,std::allocator<char> > > > >::~map<unsigned long,std::basic_string<char,std::char_traits<char>,std::allocator<char> >,std::less<unsigned long>,std::allocator<std::pair<unsigned long const ,std::basic_string<char,std::char_traits<char>,std::allocator<char> > > > >, COMDAT
; _this$ = ecx
; File C:\Program Files\Microsoft Visual Studio\2022\Professional\VC\Tools\MSVC\14.44.35207\include\xtree

; 777  :         _Erase_tree(_Al, _Myhead->_Parent);

  00000	56		 push	 esi
  00001	8b f1		 mov	 esi, ecx
  00003	8b 06		 mov	 eax, DWORD PTR [esi]
  00005	ff 70 04	 push	 DWORD PTR [eax+4]
  00008	56		 push	 esi
  00009	e8 00 00 00 00	 call	 ??$_Erase_tree@V?$allocator@U?$_Tree_node@U?$pair@$$CBKV?$basic_string@DU?$char_traits@D@std@@V?$allocator@D@2@@std@@@std@@PAX@std@@@std@@@?$_Tree_val@U?$_Tree_simple_types@U?$pair@$$CBKV?$basic_string@DU?$char_traits@D@std@@V?$allocator@D@2@@std@@@std@@@std@@@std@@QAEXAAV?$allocator@U?$_Tree_node@U?$pair@$$CBKV?$basic_string@DU?$char_traits@D@std@@V?$allocator@D@2@@std@@@std@@PAX@std@@@1@PAU?$_Tree_node@U?$pair@$$CBKV?$basic_string@DU?$char_traits@D@std@@V?$allocator@D@2@@std@@@std@@PAX@1@@Z ; std::_Tree_val<std::_Tree_simple_types<std::pair<unsigned long const ,std::basic_string<char,std::char_traits<char>,std::allocator<char> > > > >::_Erase_tree<std::allocator<std::_Tree_node<std::pair<unsigned long const ,std::basic_string<char,std::char_traits<char>,std::allocator<char> > >,void *> > >
; File C:\Program Files\Microsoft Visual Studio\2022\Professional\VC\Tools\MSVC\14.44.35207\include\xmemory

; 289  :         ::operator delete(_Ptr, _Bytes);

  0000e	6a 2c		 push	 44			; 0000002cH
  00010	ff 36		 push	 DWORD PTR [esi]
  00012	e8 00 00 00 00	 call	 ??3@YAXPAXI@Z		; operator delete
  00017	83 c4 08	 add	 esp, 8
  0001a	5e		 pop	 esi
  0001b	c3		 ret	 0
??1?$map@KV?$basic_string@DU?$char_traits@D@std@@V?$allocator@D@2@@std@@U?$less@K@2@V?$allocator@U?$pair@$$CBKV?$basic_string@DU?$char_traits@D@std@@V?$allocator@D@2@@std@@@std@@@2@@std@@QAE@XZ ENDP ; std::map<unsigned long,std::basic_string<char,std::char_traits<char>,std::allocator<char> >,std::less<unsigned long>,std::allocator<std::pair<unsigned long const ,std::basic_string<char,std::char_traits<char>,std::allocator<char> > > > >::~map<unsigned long,std::basic_string<char,std::char_traits<char>,std::allocator<char> >,std::less<unsigned long>,std::allocator<std::pair<unsigned long const ,std::basic_string<char,std::char_traits<char>,std::allocator<char> > > > >
_TEXT	ENDS
; Function compile flags: /Ogtp
;	COMDAT ??1?$map@KPAVCParty@@U?$less@K@std@@V?$allocator@U?$pair@$$CBKPAVCParty@@@std@@@3@@std@@QAE@XZ
_TEXT	SEGMENT
??1?$map@KPAVCParty@@U?$less@K@std@@V?$allocator@U?$pair@$$CBKPAVCParty@@@std@@@3@@std@@QAE@XZ PROC ; std::map<unsigned long,CParty *,std::less<unsigned long>,std::allocator<std::pair<unsigned long const ,CParty *> > >::~map<unsigned long,CParty *,std::less<unsigned long>,std::allocator<std::pair<unsigned long const ,CParty *> > >, COMDAT
; _this$ = ecx
  00000	e9 00 00 00 00	 jmp	 ??1?$_Tree@V?$_Tmap_traits@KPAVCParty@@U?$less@K@std@@V?$allocator@U?$pair@$$CBKPAVCParty@@@std@@@3@$0A@@std@@@std@@QAE@XZ ; std::_Tree<std::_Tmap_traits<unsigned long,CParty *,std::less<unsigned long>,std::allocator<std::pair<unsigned long const ,CParty *> >,0> >::~_Tree<std::_Tmap_traits<unsigned long,CParty *,std::less<unsigned long>,std::allocator<std::pair<unsigned long const ,CParty *> >,0> >
??1?$map@KPAVCParty@@U?$less@K@std@@V?$allocator@U?$pair@$$CBKPAVCParty@@@std@@@3@@std@@QAE@XZ ENDP ; std::map<unsigned long,CParty *,std::less<unsigned long>,std::allocator<std::pair<unsigned long const ,CParty *> > >::~map<unsigned long,CParty *,std::less<unsigned long>,std::allocator<std::pair<unsigned long const ,CParty *> > >
_TEXT	ENDS
; Function compile flags: /Ogtp
; File C:\Program Files\Microsoft Visual Studio\2022\Professional\VC\Tools\MSVC\14.44.35207\include\xtree
;	COMDAT ?_Insert_node@?$_Tree_val@U?$_Tree_simple_types@U?$pair@$$CBKPAVCParty@@@std@@@std@@@std@@QAEPAU?$_Tree_node@U?$pair@$$CBKPAVCParty@@@std@@PAX@2@U?$_Tree_id@PAU?$_Tree_node@U?$pair@$$CBKPAVCParty@@@std@@PAX@std@@@2@QAU32@@Z
_TEXT	SEGMENT
__Head$1$ = -4						; size = 4
__Loc$ = 8						; size = 8
__Newnode$ = 16						; size = 4
?_Insert_node@?$_Tree_val@U?$_Tree_simple_types@U?$pair@$$CBKPAVCParty@@@std@@@std@@@std@@QAEPAU?$_Tree_node@U?$pair@$$CBKPAVCParty@@@std@@PAX@2@U?$_Tree_id@PAU?$_Tree_node@U?$pair@$$CBKPAVCParty@@@std@@PAX@std@@@2@QAU32@@Z PROC ; std::_Tree_val<std::_Tree_simple_types<std::pair<unsigned long const ,CParty *> > >::_Insert_node, COMDAT
; _this$ = ecx

; 669  :     _Nodeptr _Insert_node(const _Tree_id<_Nodeptr> _Loc, const _Nodeptr _Newnode) noexcept {

  00000	55		 push	 ebp
  00001	8b ec		 mov	 ebp, esp
  00003	51		 push	 ecx

; 670  :         ++_Mysize;
; 671  :         const auto _Head  = _Myhead;
; 672  :         _Newnode->_Parent = _Loc._Parent;

  00004	8b 55 08	 mov	 edx, DWORD PTR __Loc$[ebp]
  00007	53		 push	 ebx
  00008	8b d9		 mov	 ebx, ecx
  0000a	57		 push	 edi
  0000b	8b 7d 10	 mov	 edi, DWORD PTR __Newnode$[ebp]
  0000e	8b 03		 mov	 eax, DWORD PTR [ebx]
  00010	ff 43 04	 inc	 DWORD PTR [ebx+4]
  00013	89 45 fc	 mov	 DWORD PTR __Head$1$[ebp], eax
  00016	89 57 04	 mov	 DWORD PTR [edi+4], edx

; 673  :         if (_Loc._Parent == _Head) { // first node in tree, just set head values

  00019	3b d0		 cmp	 edx, eax
  0001b	75 16		 jne	 SHORT $LN5@Insert_nod

; 674  :             _Head->_Left     = _Newnode;

  0001d	89 38		 mov	 DWORD PTR [eax], edi

; 675  :             _Head->_Parent   = _Newnode;

  0001f	89 78 04	 mov	 DWORD PTR [eax+4], edi

; 676  :             _Head->_Right    = _Newnode;

  00022	89 78 08	 mov	 DWORD PTR [eax+8], edi

; 735  :         return _Newnode;
; 736  :     }

  00025	8b c7		 mov	 eax, edi
  00027	c6 47 0c 01	 mov	 BYTE PTR [edi+12], 1
  0002b	5f		 pop	 edi
  0002c	5b		 pop	 ebx
  0002d	8b e5		 mov	 esp, ebp
  0002f	5d		 pop	 ebp
  00030	c2 0c 00	 ret	 12			; 0000000cH
$LN5@Insert_nod:

; 677  :             _Newnode->_Color = _Black; // the root is black
; 678  :             return _Newnode;
; 679  :         }
; 680  : 
; 681  :         _STL_INTERNAL_CHECK(_Loc._Child != _Tree_child::_Unused);
; 682  :         if (_Loc._Child == _Tree_child::_Right) { // add to right of _Loc._Parent

  00033	83 7d 0c 00	 cmp	 DWORD PTR __Loc$[ebp+4], 0
  00037	75 0d		 jne	 SHORT $LN6@Insert_nod

; 683  :             _STL_INTERNAL_CHECK(_Loc._Parent->_Right->_Isnil);
; 684  :             _Loc._Parent->_Right = _Newnode;

  00039	89 7a 08	 mov	 DWORD PTR [edx+8], edi

; 685  :             if (_Loc._Parent == _Head->_Right) { // remember rightmost node

  0003c	3b 50 08	 cmp	 edx, DWORD PTR [eax+8]
  0003f	75 0d		 jne	 SHORT $LN9@Insert_nod

; 686  :                 _Head->_Right = _Newnode;

  00041	89 78 08	 mov	 DWORD PTR [eax+8], edi

; 687  :             }
; 688  :         } else { // add to left of _Loc._Parent

  00044	eb 08		 jmp	 SHORT $LN9@Insert_nod
$LN6@Insert_nod:

; 689  :             _STL_INTERNAL_CHECK(_Loc._Parent->_Left->_Isnil);
; 690  :             _Loc._Parent->_Left = _Newnode;

  00046	89 3a		 mov	 DWORD PTR [edx], edi

; 691  :             if (_Loc._Parent == _Head->_Left) { // remember leftmost node

  00048	3b 10		 cmp	 edx, DWORD PTR [eax]
  0004a	75 02		 jne	 SHORT $LN9@Insert_nod

; 692  :                 _Head->_Left = _Newnode;

  0004c	89 38		 mov	 DWORD PTR [eax], edi
$LN9@Insert_nod:

; 693  :             }
; 694  :         }
; 695  : 
; 696  :         for (_Nodeptr _Pnode = _Newnode; _Pnode->_Parent->_Color == _Red;) {

  0004e	8b 4f 04	 mov	 ecx, DWORD PTR [edi+4]
  00051	8b c7		 mov	 eax, edi
  00053	80 79 0c 00	 cmp	 BYTE PTR [ecx+12], 0
  00057	0f 85 7d 01 00
	00		 jne	 $LN3@Insert_nod
  0005d	56		 push	 esi
  0005e	66 90		 npad	 2
$LL4@Insert_nod:

; 697  :             if (_Pnode->_Parent == _Pnode->_Parent->_Parent->_Left) { // fixup red-red in left subtree

  00060	8b 50 04	 mov	 edx, DWORD PTR [eax+4]
  00063	8b 72 04	 mov	 esi, DWORD PTR [edx+4]
  00066	8b 0e		 mov	 ecx, DWORD PTR [esi]
  00068	3b d1		 cmp	 edx, ecx
  0006a	0f 85 aa 00 00
	00		 jne	 $LN10@Insert_nod

; 698  :                 const auto _Parent_sibling = _Pnode->_Parent->_Parent->_Right;

  00070	8b 4e 08	 mov	 ecx, DWORD PTR [esi+8]

; 699  :                 if (_Parent_sibling->_Color == _Red) { // parent's sibling has two red children, blacken both

  00073	80 79 0c 00	 cmp	 BYTE PTR [ecx+12], 0
  00077	0f 84 a3 00 00
	00		 je	 $LN82@Insert_nod

; 700  :                     _Pnode->_Parent->_Color          = _Black;
; 701  :                     _Parent_sibling->_Color          = _Black;
; 702  :                     _Pnode->_Parent->_Parent->_Color = _Red;
; 703  :                     _Pnode                           = _Pnode->_Parent->_Parent;
; 704  :                 } else { // parent's sibling has red and black children
; 705  :                     if (_Pnode == _Pnode->_Parent->_Right) { // rotate right child to left

  0007d	8b 72 08	 mov	 esi, DWORD PTR [edx+8]
  00080	3b c6		 cmp	 eax, esi
  00082	75 37		 jne	 SHORT $LN57@Insert_nod

; 485  :         _Wherenode->_Right = _Pnode->_Left;

  00084	8b 0e		 mov	 ecx, DWORD PTR [esi]

; 706  :                         _Pnode = _Pnode->_Parent;

  00086	8b c2		 mov	 eax, edx

; 485  :         _Wherenode->_Right = _Pnode->_Left;

  00088	89 4a 08	 mov	 DWORD PTR [edx+8], ecx

; 486  : 
; 487  :         if (!_Pnode->_Left->_Isnil) {

  0008b	8b 0e		 mov	 ecx, DWORD PTR [esi]
  0008d	80 79 0d 00	 cmp	 BYTE PTR [ecx+13], 0
  00091	75 03		 jne	 SHORT $LN21@Insert_nod

; 488  :             _Pnode->_Left->_Parent = _Wherenode;

  00093	89 41 04	 mov	 DWORD PTR [ecx+4], eax
$LN21@Insert_nod:

; 489  :         }
; 490  : 
; 491  :         _Pnode->_Parent = _Wherenode->_Parent;

  00096	8b 4a 04	 mov	 ecx, DWORD PTR [edx+4]
  00099	89 4e 04	 mov	 DWORD PTR [esi+4], ecx

; 492  : 
; 493  :         if (_Wherenode == _Myhead->_Parent) {

  0009c	8b 0b		 mov	 ecx, DWORD PTR [ebx]
  0009e	3b 41 04	 cmp	 eax, DWORD PTR [ecx+4]
  000a1	75 05		 jne	 SHORT $LN22@Insert_nod

; 494  :             _Myhead->_Parent = _Pnode;

  000a3	89 71 04	 mov	 DWORD PTR [ecx+4], esi
  000a6	eb 0e		 jmp	 SHORT $LN25@Insert_nod
$LN22@Insert_nod:

; 495  :         } else if (_Wherenode == _Wherenode->_Parent->_Left) {

  000a8	8b 4a 04	 mov	 ecx, DWORD PTR [edx+4]
  000ab	3b 01		 cmp	 eax, DWORD PTR [ecx]
  000ad	75 04		 jne	 SHORT $LN24@Insert_nod

; 496  :             _Wherenode->_Parent->_Left = _Pnode;

  000af	89 31		 mov	 DWORD PTR [ecx], esi

; 497  :         } else {

  000b1	eb 03		 jmp	 SHORT $LN25@Insert_nod
$LN24@Insert_nod:

; 498  :             _Wherenode->_Parent->_Right = _Pnode;

  000b3	89 71 08	 mov	 DWORD PTR [ecx+8], esi
$LN25@Insert_nod:

; 499  :         }
; 500  : 
; 501  :         _Pnode->_Left       = _Wherenode;

  000b6	89 06		 mov	 DWORD PTR [esi], eax

; 502  :         _Wherenode->_Parent = _Pnode;

  000b8	89 70 04	 mov	 DWORD PTR [eax+4], esi
$LN57@Insert_nod:

; 707  :                         _Lrotate(_Pnode);
; 708  :                     }
; 709  : 
; 710  :                     _Pnode->_Parent->_Color          = _Black; // propagate red up

  000bb	8b 48 04	 mov	 ecx, DWORD PTR [eax+4]
  000be	c6 41 0c 01	 mov	 BYTE PTR [ecx+12], 1

; 711  :                     _Pnode->_Parent->_Parent->_Color = _Red;

  000c2	8b 48 04	 mov	 ecx, DWORD PTR [eax+4]
  000c5	8b 49 04	 mov	 ecx, DWORD PTR [ecx+4]
  000c8	c6 41 0c 00	 mov	 BYTE PTR [ecx+12], 0

; 712  :                     _Rrotate(_Pnode->_Parent->_Parent);

  000cc	8b 48 04	 mov	 ecx, DWORD PTR [eax+4]
  000cf	8b 51 04	 mov	 edx, DWORD PTR [ecx+4]

; 506  :         _Nodeptr _Pnode   = _Wherenode->_Left;

  000d2	8b 32		 mov	 esi, DWORD PTR [edx]

; 507  :         _Wherenode->_Left = _Pnode->_Right;

  000d4	8b 4e 08	 mov	 ecx, DWORD PTR [esi+8]
  000d7	89 0a		 mov	 DWORD PTR [edx], ecx

; 508  : 
; 509  :         if (!_Pnode->_Right->_Isnil) {

  000d9	8b 4e 08	 mov	 ecx, DWORD PTR [esi+8]
  000dc	80 79 0d 00	 cmp	 BYTE PTR [ecx+13], 0
  000e0	75 03		 jne	 SHORT $LN29@Insert_nod

; 510  :             _Pnode->_Right->_Parent = _Wherenode;

  000e2	89 51 04	 mov	 DWORD PTR [ecx+4], edx
$LN29@Insert_nod:

; 511  :         }
; 512  : 
; 513  :         _Pnode->_Parent = _Wherenode->_Parent;

  000e5	8b 4a 04	 mov	 ecx, DWORD PTR [edx+4]
  000e8	89 4e 04	 mov	 DWORD PTR [esi+4], ecx

; 514  : 
; 515  :         if (_Wherenode == _Myhead->_Parent) {

  000eb	8b 0b		 mov	 ecx, DWORD PTR [ebx]
  000ed	3b 51 04	 cmp	 edx, DWORD PTR [ecx+4]
  000f0	75 0b		 jne	 SHORT $LN30@Insert_nod

; 516  :             _Myhead->_Parent = _Pnode;

  000f2	89 71 04	 mov	 DWORD PTR [ecx+4], esi

; 521  :         }
; 522  : 
; 523  :         _Pnode->_Right      = _Wherenode;

  000f5	89 56 08	 mov	 DWORD PTR [esi+8], edx

; 713  :                 }
; 714  :             } else { // fixup red-red in right subtree

  000f8	e9 cc 00 00 00	 jmp	 $LN81@Insert_nod
$LN30@Insert_nod:

; 517  :         } else if (_Wherenode == _Wherenode->_Parent->_Right) {

  000fd	8b 4a 04	 mov	 ecx, DWORD PTR [edx+4]
  00100	3b 51 08	 cmp	 edx, DWORD PTR [ecx+8]
  00103	75 0b		 jne	 SHORT $LN32@Insert_nod

; 518  :             _Wherenode->_Parent->_Right = _Pnode;

  00105	89 71 08	 mov	 DWORD PTR [ecx+8], esi

; 521  :         }
; 522  : 
; 523  :         _Pnode->_Right      = _Wherenode;

  00108	89 56 08	 mov	 DWORD PTR [esi+8], edx

; 713  :                 }
; 714  :             } else { // fixup red-red in right subtree

  0010b	e9 b9 00 00 00	 jmp	 $LN81@Insert_nod
$LN32@Insert_nod:

; 520  :             _Wherenode->_Parent->_Left = _Pnode;

  00110	89 31		 mov	 DWORD PTR [ecx], esi

; 521  :         }
; 522  : 
; 523  :         _Pnode->_Right      = _Wherenode;

  00112	89 56 08	 mov	 DWORD PTR [esi+8], edx

; 713  :                 }
; 714  :             } else { // fixup red-red in right subtree

  00115	e9 af 00 00 00	 jmp	 $LN81@Insert_nod
$LN10@Insert_nod:

; 715  :                 const auto _Parent_sibling = _Pnode->_Parent->_Parent->_Left;
; 716  :                 if (_Parent_sibling->_Color == _Red) { // parent's sibling has two red children, blacken both

  0011a	80 79 0c 00	 cmp	 BYTE PTR [ecx+12], 0
  0011e	75 1d		 jne	 SHORT $LN15@Insert_nod
$LN82@Insert_nod:

; 693  :             }
; 694  :         }
; 695  : 
; 696  :         for (_Nodeptr _Pnode = _Newnode; _Pnode->_Parent->_Color == _Red;) {

  00120	c6 42 0c 01	 mov	 BYTE PTR [edx+12], 1
  00124	c6 41 0c 01	 mov	 BYTE PTR [ecx+12], 1
  00128	8b 48 04	 mov	 ecx, DWORD PTR [eax+4]
  0012b	8b 49 04	 mov	 ecx, DWORD PTR [ecx+4]
  0012e	c6 41 0c 00	 mov	 BYTE PTR [ecx+12], 0
  00132	8b 48 04	 mov	 ecx, DWORD PTR [eax+4]
  00135	8b 41 04	 mov	 eax, DWORD PTR [ecx+4]
  00138	e9 8f 00 00 00	 jmp	 $LN2@Insert_nod
$LN15@Insert_nod:

; 717  :                     _Pnode->_Parent->_Color          = _Black;
; 718  :                     _Parent_sibling->_Color          = _Black;
; 719  :                     _Pnode->_Parent->_Parent->_Color = _Red;
; 720  :                     _Pnode                           = _Pnode->_Parent->_Parent;
; 721  :                 } else { // parent's sibling has red and black children
; 722  :                     if (_Pnode == _Pnode->_Parent->_Left) { // rotate left child to right

  0013d	8b 32		 mov	 esi, DWORD PTR [edx]
  0013f	3b c6		 cmp	 eax, esi
  00141	75 3a		 jne	 SHORT $LN42@Insert_nod

; 507  :         _Wherenode->_Left = _Pnode->_Right;

  00143	8b 4e 08	 mov	 ecx, DWORD PTR [esi+8]

; 723  :                         _Pnode = _Pnode->_Parent;

  00146	8b c2		 mov	 eax, edx

; 507  :         _Wherenode->_Left = _Pnode->_Right;

  00148	89 08		 mov	 DWORD PTR [eax], ecx

; 508  : 
; 509  :         if (!_Pnode->_Right->_Isnil) {

  0014a	8b 4e 08	 mov	 ecx, DWORD PTR [esi+8]
  0014d	80 79 0d 00	 cmp	 BYTE PTR [ecx+13], 0
  00151	75 03		 jne	 SHORT $LN37@Insert_nod

; 510  :             _Pnode->_Right->_Parent = _Wherenode;

  00153	89 41 04	 mov	 DWORD PTR [ecx+4], eax
$LN37@Insert_nod:

; 511  :         }
; 512  : 
; 513  :         _Pnode->_Parent = _Wherenode->_Parent;

  00156	8b 4a 04	 mov	 ecx, DWORD PTR [edx+4]
  00159	89 4e 04	 mov	 DWORD PTR [esi+4], ecx

; 514  : 
; 515  :         if (_Wherenode == _Myhead->_Parent) {

  0015c	8b 0b		 mov	 ecx, DWORD PTR [ebx]
  0015e	3b 41 04	 cmp	 eax, DWORD PTR [ecx+4]
  00161	75 05		 jne	 SHORT $LN38@Insert_nod

; 516  :             _Myhead->_Parent = _Pnode;

  00163	89 71 04	 mov	 DWORD PTR [ecx+4], esi
  00166	eb 0f		 jmp	 SHORT $LN41@Insert_nod
$LN38@Insert_nod:

; 517  :         } else if (_Wherenode == _Wherenode->_Parent->_Right) {

  00168	8b 4a 04	 mov	 ecx, DWORD PTR [edx+4]
  0016b	3b 41 08	 cmp	 eax, DWORD PTR [ecx+8]
  0016e	75 05		 jne	 SHORT $LN40@Insert_nod

; 518  :             _Wherenode->_Parent->_Right = _Pnode;

  00170	89 71 08	 mov	 DWORD PTR [ecx+8], esi

; 519  :         } else {

  00173	eb 02		 jmp	 SHORT $LN41@Insert_nod
$LN40@Insert_nod:

; 520  :             _Wherenode->_Parent->_Left = _Pnode;

  00175	89 31		 mov	 DWORD PTR [ecx], esi
$LN41@Insert_nod:

; 521  :         }
; 522  : 
; 523  :         _Pnode->_Right      = _Wherenode;

  00177	89 46 08	 mov	 DWORD PTR [esi+8], eax

; 524  :         _Wherenode->_Parent = _Pnode;

  0017a	89 70 04	 mov	 DWORD PTR [eax+4], esi
$LN42@Insert_nod:

; 724  :                         _Rrotate(_Pnode);
; 725  :                     }
; 726  : 
; 727  :                     _Pnode->_Parent->_Color          = _Black; // propagate red up

  0017d	8b 48 04	 mov	 ecx, DWORD PTR [eax+4]
  00180	c6 41 0c 01	 mov	 BYTE PTR [ecx+12], 1

; 728  :                     _Pnode->_Parent->_Parent->_Color = _Red;

  00184	8b 48 04	 mov	 ecx, DWORD PTR [eax+4]
  00187	8b 49 04	 mov	 ecx, DWORD PTR [ecx+4]
  0018a	c6 41 0c 00	 mov	 BYTE PTR [ecx+12], 0

; 729  :                     _Lrotate(_Pnode->_Parent->_Parent);

  0018e	8b 48 04	 mov	 ecx, DWORD PTR [eax+4]
  00191	8b 51 04	 mov	 edx, DWORD PTR [ecx+4]

; 484  :         _Nodeptr _Pnode    = _Wherenode->_Right;

  00194	8b 72 08	 mov	 esi, DWORD PTR [edx+8]

; 485  :         _Wherenode->_Right = _Pnode->_Left;

  00197	8b 0e		 mov	 ecx, DWORD PTR [esi]
  00199	89 4a 08	 mov	 DWORD PTR [edx+8], ecx

; 486  : 
; 487  :         if (!_Pnode->_Left->_Isnil) {

  0019c	8b 0e		 mov	 ecx, DWORD PTR [esi]
  0019e	80 79 0d 00	 cmp	 BYTE PTR [ecx+13], 0
  001a2	75 03		 jne	 SHORT $LN45@Insert_nod

; 488  :             _Pnode->_Left->_Parent = _Wherenode;

  001a4	89 51 04	 mov	 DWORD PTR [ecx+4], edx
$LN45@Insert_nod:

; 489  :         }
; 490  : 
; 491  :         _Pnode->_Parent = _Wherenode->_Parent;

  001a7	8b 4a 04	 mov	 ecx, DWORD PTR [edx+4]
  001aa	89 4e 04	 mov	 DWORD PTR [esi+4], ecx

; 492  : 
; 493  :         if (_Wherenode == _Myhead->_Parent) {

  001ad	8b 0b		 mov	 ecx, DWORD PTR [ebx]
  001af	3b 51 04	 cmp	 edx, DWORD PTR [ecx+4]
  001b2	75 05		 jne	 SHORT $LN46@Insert_nod

; 494  :             _Myhead->_Parent = _Pnode;

  001b4	89 71 04	 mov	 DWORD PTR [ecx+4], esi
  001b7	eb 0e		 jmp	 SHORT $LN49@Insert_nod
$LN46@Insert_nod:

; 495  :         } else if (_Wherenode == _Wherenode->_Parent->_Left) {

  001b9	8b 4a 04	 mov	 ecx, DWORD PTR [edx+4]
  001bc	3b 11		 cmp	 edx, DWORD PTR [ecx]
  001be	75 04		 jne	 SHORT $LN48@Insert_nod

; 496  :             _Wherenode->_Parent->_Left = _Pnode;

  001c0	89 31		 mov	 DWORD PTR [ecx], esi

; 497  :         } else {

  001c2	eb 03		 jmp	 SHORT $LN49@Insert_nod
$LN48@Insert_nod:

; 498  :             _Wherenode->_Parent->_Right = _Pnode;

  001c4	89 71 08	 mov	 DWORD PTR [ecx+8], esi
$LN49@Insert_nod:

; 499  :         }
; 500  : 
; 501  :         _Pnode->_Left       = _Wherenode;

  001c7	89 16		 mov	 DWORD PTR [esi], edx
$LN81@Insert_nod:

; 693  :             }
; 694  :         }
; 695  : 
; 696  :         for (_Nodeptr _Pnode = _Newnode; _Pnode->_Parent->_Color == _Red;) {

  001c9	89 72 04	 mov	 DWORD PTR [edx+4], esi
$LN2@Insert_nod:
  001cc	8b 48 04	 mov	 ecx, DWORD PTR [eax+4]
  001cf	80 79 0c 00	 cmp	 BYTE PTR [ecx+12], 0
  001d3	0f 84 87 fe ff
	ff		 je	 $LL4@Insert_nod
  001d9	5e		 pop	 esi
$LN3@Insert_nod:

; 730  :                 }
; 731  :             }
; 732  :         }
; 733  : 
; 734  :         _Head->_Parent->_Color = _Black; // root is always black

  001da	8b 45 fc	 mov	 eax, DWORD PTR __Head$1$[ebp]
  001dd	8b 40 04	 mov	 eax, DWORD PTR [eax+4]
  001e0	c6 40 0c 01	 mov	 BYTE PTR [eax+12], 1

; 735  :         return _Newnode;
; 736  :     }

  001e4	8b c7		 mov	 eax, edi
  001e6	5f		 pop	 edi
  001e7	5b		 pop	 ebx
  001e8	8b e5		 mov	 esp, ebp
  001ea	5d		 pop	 ebp
  001eb	c2 0c 00	 ret	 12			; 0000000cH
?_Insert_node@?$_Tree_val@U?$_Tree_simple_types@U?$pair@$$CBKPAVCParty@@@std@@@std@@@std@@QAEPAU?$_Tree_node@U?$pair@$$CBKPAVCParty@@@std@@PAX@2@U?$_Tree_id@PAU?$_Tree_node@U?$pair@$$CBKPAVCParty@@@std@@PAX@std@@@2@QAU32@@Z ENDP ; std::_Tree_val<std::_Tree_simple_types<std::pair<unsigned long const ,CParty *> > >::_Insert_node
_TEXT	ENDS
; Function compile flags: /Ogtp
; File C:\Program Files\Microsoft Visual Studio\2022\Professional\VC\Tools\MSVC\14.44.35207\include\xtree
; File C:\Program Files\Microsoft Visual Studio\2022\Professional\VC\Tools\MSVC\14.44.35207\include\utility
; File C:\Program Files\Microsoft Visual Studio\2022\Professional\VC\Tools\MSVC\14.44.35207\include\xtree
;	COMDAT ?_Extract@?$_Tree_val@U?$_Tree_simple_types@U?$pair@$$CBKPAVCParty@@@std@@@std@@@std@@QAEPAU?$_Tree_node@U?$pair@$$CBKPAVCParty@@@std@@PAX@2@V?$_Tree_unchecked_const_iterator@V?$_Tree_val@U?$_Tree_simple_types@U?$pair@$$CBKPAVCParty@@@std@@@std@@@std@@U_Iterator_base0@2@@2@@Z
_TEXT	SEGMENT
tv1039 = -16						; size = 4
tv1073 = -12						; size = 4
tv1093 = -12						; size = 4
$T1 = -12						; size = 4
__Erasednode$1$ = -8					; size = 4
_this$1$ = -4						; size = 4
__Where$ = 8						; size = 4
?_Extract@?$_Tree_val@U?$_Tree_simple_types@U?$pair@$$CBKPAVCParty@@@std@@@std@@@std@@QAEPAU?$_Tree_node@U?$pair@$$CBKPAVCParty@@@std@@PAX@2@V?$_Tree_unchecked_const_iterator@V?$_Tree_val@U?$_Tree_simple_types@U?$pair@$$CBKPAVCParty@@@std@@@std@@@std@@U_Iterator_base0@2@@2@@Z PROC ; std::_Tree_val<std::_Tree_simple_types<std::pair<unsigned long const ,CParty *> > >::_Extract, COMDAT
; _this$ = ecx

; 527  :     _Nodeptr _Extract(_Unchecked_const_iterator _Where) noexcept {

  00000	55		 push	 ebp
  00001	8b ec		 mov	 ebp, esp
  00003	83 ec 10	 sub	 esp, 16			; 00000010H

; 528  :         _Nodeptr _Erasednode = _Where._Ptr; // node to erase

  00006	8b 45 08	 mov	 eax, DWORD PTR __Where$[ebp]
  00009	53		 push	 ebx
  0000a	56		 push	 esi
  0000b	8b d9		 mov	 ebx, ecx
  0000d	89 45 f8	 mov	 DWORD PTR __Erasednode$1$[ebp], eax
  00010	57		 push	 edi

; 529  :         ++_Where; // save successor iterator for return

  00011	8d 4d 08	 lea	 ecx, DWORD PTR __Where$[ebp]
  00014	89 5d fc	 mov	 DWORD PTR _this$1$[ebp], ebx
  00017	e8 00 00 00 00	 call	 ??E?$_Tree_unchecked_const_iterator@V?$_Tree_val@U?$_Tree_simple_types@U?$pair@$$CBKPAVCParty@@@std@@@std@@@std@@U_Iterator_base0@2@@std@@QAEAAV01@XZ ; std::_Tree_unchecked_const_iterator<std::_Tree_val<std::_Tree_simple_types<std::pair<unsigned long const ,CParty *> > >,std::_Iterator_base0>::operator++

; 530  : 
; 531  :         _Nodeptr _Fixnode; // the node to recolor as needed
; 532  :         _Nodeptr _Fixnodeparent; // parent of _Fixnode (which may be nil)
; 533  :         _Nodeptr _Pnode = _Erasednode;
; 534  : 
; 535  :         if (_Pnode->_Left->_Isnil) {

  0001c	8b 4d f8	 mov	 ecx, DWORD PTR __Erasednode$1$[ebp]
  0001f	8b 01		 mov	 eax, DWORD PTR [ecx]
  00021	8b 79 08	 mov	 edi, DWORD PTR [ecx+8]
  00024	80 78 0d 00	 cmp	 BYTE PTR [eax+13], 0
  00028	75 18		 jne	 SHORT $LN94@Extract

; 536  :             _Fixnode = _Pnode->_Right; // stitch up right subtree
; 537  :         } else if (_Pnode->_Right->_Isnil) {

  0002a	80 7f 0d 00	 cmp	 BYTE PTR [edi+13], 0
  0002e	74 04		 je	 SHORT $LN7@Extract

; 538  :             _Fixnode = _Pnode->_Left; // stitch up left subtree

  00030	8b f8		 mov	 edi, eax

; 539  :         } else { // two subtrees, must lift successor node to replace erased

  00032	eb 0e		 jmp	 SHORT $LN94@Extract
$LN7@Extract:

; 540  :             _Pnode   = _Where._Ptr; // _Pnode is successor node

  00034	8b 55 08	 mov	 edx, DWORD PTR __Where$[ebp]

; 541  :             _Fixnode = _Pnode->_Right; // _Fixnode is only subtree

  00037	8b 7a 08	 mov	 edi, DWORD PTR [edx+8]
  0003a	3b d1		 cmp	 edx, ecx

; 542  :         }
; 543  : 
; 544  :         if (_Pnode == _Erasednode) { // at most one subtree, relink it

  0003c	0f 85 91 00 00
	00		 jne	 $LN9@Extract
$LN94@Extract:

; 545  :             _Fixnodeparent = _Erasednode->_Parent;
; 546  :             if (!_Fixnode->_Isnil) {

  00042	80 7f 0d 00	 cmp	 BYTE PTR [edi+13], 0
  00046	8b 71 04	 mov	 esi, DWORD PTR [ecx+4]
  00049	75 03		 jne	 SHORT $LN11@Extract

; 547  :                 _Fixnode->_Parent = _Fixnodeparent; // link up

  0004b	89 77 04	 mov	 DWORD PTR [edi+4], esi
$LN11@Extract:

; 548  :             }
; 549  : 
; 550  :             if (_Myhead->_Parent == _Erasednode) {

  0004e	8b 03		 mov	 eax, DWORD PTR [ebx]
  00050	39 48 04	 cmp	 DWORD PTR [eax+4], ecx
  00053	75 05		 jne	 SHORT $LN12@Extract

; 551  :                 _Myhead->_Parent = _Fixnode; // link down from root

  00055	89 78 04	 mov	 DWORD PTR [eax+4], edi
  00058	eb 0b		 jmp	 SHORT $LN15@Extract
$LN12@Extract:

; 552  :             } else if (_Fixnodeparent->_Left == _Erasednode) {

  0005a	39 0e		 cmp	 DWORD PTR [esi], ecx
  0005c	75 04		 jne	 SHORT $LN14@Extract

; 553  :                 _Fixnodeparent->_Left = _Fixnode; // link down to left

  0005e	89 3e		 mov	 DWORD PTR [esi], edi

; 554  :             } else {

  00060	eb 03		 jmp	 SHORT $LN15@Extract
$LN14@Extract:

; 555  :                 _Fixnodeparent->_Right = _Fixnode; // link down to right

  00062	89 7e 08	 mov	 DWORD PTR [esi+8], edi
$LN15@Extract:

; 556  :             }
; 557  : 
; 558  :             if (_Myhead->_Left == _Erasednode) {

  00065	8b 03		 mov	 eax, DWORD PTR [ebx]
  00067	39 08		 cmp	 DWORD PTR [eax], ecx
  00069	75 28		 jne	 SHORT $LN16@Extract

; 559  :                 _Myhead->_Left = _Fixnode->_Isnil ? _Fixnodeparent // smallest is parent of erased node

  0006b	80 7f 0d 00	 cmp	 BYTE PTR [edi+13], 0
  0006f	74 04		 je	 SHORT $LN42@Extract
  00071	8b d6		 mov	 edx, esi
  00073	eb 1c		 jmp	 SHORT $LN43@Extract
$LN42@Extract:

; 476  :         while (!_Pnode->_Left->_Isnil) {

  00075	8b 0f		 mov	 ecx, DWORD PTR [edi]

; 559  :                 _Myhead->_Left = _Fixnode->_Isnil ? _Fixnodeparent // smallest is parent of erased node

  00077	8b d7		 mov	 edx, edi

; 476  :         while (!_Pnode->_Left->_Isnil) {

  00079	80 79 0d 00	 cmp	 BYTE PTR [ecx+13], 0
  0007d	75 0f		 jne	 SHORT $LN49@Extract
  0007f	90		 npad	 1
$LL48@Extract:
  00080	8b 01		 mov	 eax, DWORD PTR [ecx]

; 477  :             _Pnode = _Pnode->_Left;

  00082	8b d1		 mov	 edx, ecx
  00084	8b c8		 mov	 ecx, eax
  00086	80 78 0d 00	 cmp	 BYTE PTR [eax+13], 0
  0008a	74 f4		 je	 SHORT $LL48@Extract
  0008c	8b 03		 mov	 eax, DWORD PTR [ebx]
$LN49@Extract:
  0008e	8b 4d f8	 mov	 ecx, DWORD PTR __Erasednode$1$[ebp]
$LN43@Extract:

; 559  :                 _Myhead->_Left = _Fixnode->_Isnil ? _Fixnodeparent // smallest is parent of erased node

  00091	89 10		 mov	 DWORD PTR [eax], edx
$LN16@Extract:

; 560  :                                                   : _Min(_Fixnode); // smallest in relinked subtree
; 561  :             }
; 562  : 
; 563  :             if (_Myhead->_Right == _Erasednode) {

  00093	8b 13		 mov	 edx, DWORD PTR [ebx]
  00095	39 4a 08	 cmp	 DWORD PTR [edx+8], ecx
  00098	75 34		 jne	 SHORT $LN17@Extract

; 564  :                 _Myhead->_Right = _Fixnode->_Isnil ? _Fixnodeparent // largest is parent of erased node

  0009a	80 7f 0d 00	 cmp	 BYTE PTR [edi+13], 0
  0009e	74 0d		 je	 SHORT $LN44@Extract

; 565  :                                                    : _Max(_Fixnode); // largest in relinked subtree
; 566  :             }
; 567  :         } else { // erased has two subtrees, _Pnode is successor to erased

  000a0	8b 45 f8	 mov	 eax, DWORD PTR __Erasednode$1$[ebp]
  000a3	8b ce		 mov	 ecx, esi
  000a5	89 4a 08	 mov	 DWORD PTR [edx+8], ecx
  000a8	e9 94 00 00 00	 jmp	 $LN58@Extract
$LN44@Extract:

; 468  :         while (!_Pnode->_Right->_Isnil) {

  000ad	8b 47 08	 mov	 eax, DWORD PTR [edi+8]

; 564  :                 _Myhead->_Right = _Fixnode->_Isnil ? _Fixnodeparent // largest is parent of erased node

  000b0	8b cf		 mov	 ecx, edi

; 468  :         while (!_Pnode->_Right->_Isnil) {

  000b2	80 78 0d 00	 cmp	 BYTE PTR [eax+13], 0
  000b6	75 13		 jne	 SHORT $LN54@Extract
  000b8	0f 1f 84 00 00
	00 00 00	 npad	 8
$LL53@Extract:

; 469  :             _Pnode = _Pnode->_Right;

  000c0	8b c8		 mov	 ecx, eax
  000c2	8b 41 08	 mov	 eax, DWORD PTR [ecx+8]
  000c5	80 78 0d 00	 cmp	 BYTE PTR [eax+13], 0
  000c9	74 f5		 je	 SHORT $LL53@Extract
$LN54@Extract:

; 564  :                 _Myhead->_Right = _Fixnode->_Isnil ? _Fixnodeparent // largest is parent of erased node

  000cb	89 4a 08	 mov	 DWORD PTR [edx+8], ecx
$LN17@Extract:

; 565  :                                                    : _Max(_Fixnode); // largest in relinked subtree
; 566  :             }
; 567  :         } else { // erased has two subtrees, _Pnode is successor to erased

  000ce	8b 45 f8	 mov	 eax, DWORD PTR __Erasednode$1$[ebp]
  000d1	eb 6e		 jmp	 SHORT $LN58@Extract
$LN9@Extract:

; 568  :             _Erasednode->_Left->_Parent = _Pnode; // link left up

  000d3	89 50 04	 mov	 DWORD PTR [eax+4], edx

; 569  :             _Pnode->_Left               = _Erasednode->_Left; // link successor down

  000d6	8b 01		 mov	 eax, DWORD PTR [ecx]
  000d8	89 02		 mov	 DWORD PTR [edx], eax

; 570  : 
; 571  :             if (_Pnode == _Erasednode->_Right) {

  000da	8d 42 04	 lea	 eax, DWORD PTR [edx+4]
  000dd	89 45 f4	 mov	 DWORD PTR $T1[ebp], eax
  000e0	3b 51 08	 cmp	 edx, DWORD PTR [ecx+8]
  000e3	75 04		 jne	 SHORT $LN18@Extract

; 572  :                 _Fixnodeparent = _Pnode; // successor is next to erased

  000e5	8b f2		 mov	 esi, edx

; 573  :             } else { // successor further down, link in place of erased

  000e7	eb 1f		 jmp	 SHORT $LN19@Extract
$LN18@Extract:

; 574  :                 _Fixnodeparent = _Pnode->_Parent; // parent is successor's
; 575  :                 if (!_Fixnode->_Isnil) {

  000e9	80 7f 0d 00	 cmp	 BYTE PTR [edi+13], 0
  000ed	8b 30		 mov	 esi, DWORD PTR [eax]
  000ef	75 03		 jne	 SHORT $LN20@Extract

; 576  :                     _Fixnode->_Parent = _Fixnodeparent; // link fix up

  000f1	89 77 04	 mov	 DWORD PTR [edi+4], esi
$LN20@Extract:

; 577  :                 }
; 578  : 
; 579  :                 _Fixnodeparent->_Left        = _Fixnode; // link fix down

  000f4	89 3e		 mov	 DWORD PTR [esi], edi

; 580  :                 _Pnode->_Right               = _Erasednode->_Right; // link next down

  000f6	8b 41 08	 mov	 eax, DWORD PTR [ecx+8]
  000f9	89 42 08	 mov	 DWORD PTR [edx+8], eax

; 581  :                 _Erasednode->_Right->_Parent = _Pnode; // right up

  000fc	8b 41 08	 mov	 eax, DWORD PTR [ecx+8]
  000ff	89 50 04	 mov	 DWORD PTR [eax+4], edx
  00102	8d 42 04	 lea	 eax, DWORD PTR [edx+4]
  00105	89 45 f4	 mov	 DWORD PTR $T1[ebp], eax
$LN19@Extract:

; 582  :             }
; 583  : 
; 584  :             if (_Myhead->_Parent == _Erasednode) {

  00108	8b 03		 mov	 eax, DWORD PTR [ebx]
  0010a	39 48 04	 cmp	 DWORD PTR [eax+4], ecx
  0010d	75 05		 jne	 SHORT $LN21@Extract

; 585  :                 _Myhead->_Parent = _Pnode; // link down from root

  0010f	89 50 04	 mov	 DWORD PTR [eax+4], edx
  00112	eb 0e		 jmp	 SHORT $LN141@Extract
$LN21@Extract:

; 586  :             } else if (_Erasednode->_Parent->_Left == _Erasednode) {

  00114	8b 41 04	 mov	 eax, DWORD PTR [ecx+4]
  00117	39 08		 cmp	 DWORD PTR [eax], ecx
  00119	75 04		 jne	 SHORT $LN23@Extract

; 587  :                 _Erasednode->_Parent->_Left = _Pnode; // link down to left

  0011b	89 10		 mov	 DWORD PTR [eax], edx

; 588  :             } else {

  0011d	eb 03		 jmp	 SHORT $LN141@Extract
$LN23@Extract:

; 589  :                 _Erasednode->_Parent->_Right = _Pnode; // link down to right

  0011f	89 50 08	 mov	 DWORD PTR [eax+8], edx
$LN141@Extract:

; 590  :             }
; 591  : 
; 592  :             _Pnode->_Parent = _Erasednode->_Parent; // link successor up

  00122	b8 04 00 00 00	 mov	 eax, 4
  00127	8b 04 08	 mov	 eax, DWORD PTR [eax+ecx]
  0012a	8b 4d f4	 mov	 ecx, DWORD PTR $T1[ebp]
  0012d	89 01		 mov	 DWORD PTR [ecx], eax
; File C:\Program Files\Microsoft Visual Studio\2022\Professional\VC\Tools\MSVC\14.44.35207\include\utility

; 140  :     _Left    = _STD move(_Right);

  0012f	8b 45 f8	 mov	 eax, DWORD PTR __Erasednode$1$[ebp]
  00132	8a 4a 0c	 mov	 cl, BYTE PTR [edx+12]
  00135	8a 40 0c	 mov	 al, BYTE PTR [eax+12]
  00138	88 42 0c	 mov	 BYTE PTR [edx+12], al

; 141  :     _Right   = _STD move(_Tmp);

  0013b	8b 45 f8	 mov	 eax, DWORD PTR __Erasednode$1$[ebp]
  0013e	88 48 0c	 mov	 BYTE PTR [eax+12], cl
$LN58@Extract:
; File C:\Program Files\Microsoft Visual Studio\2022\Professional\VC\Tools\MSVC\14.44.35207\include\xtree

; 596  :         if (_Erasednode->_Color == _Black) { // erasing black link, must recolor/rebalance tree

  00141	80 78 0c 01	 cmp	 BYTE PTR [eax+12], 1
  00145	0f 85 ba 01 00
	00		 jne	 $LN25@Extract

; 597  :             for (; _Fixnode != _Myhead->_Parent && _Fixnode->_Color == _Black; _Fixnodeparent = _Fixnode->_Parent) {

  0014b	8b 03		 mov	 eax, DWORD PTR [ebx]
  0014d	3b 78 04	 cmp	 edi, DWORD PTR [eax+4]
  00150	0f 84 a8 01 00
	00		 je	 $LN3@Extract
  00156	80 7f 0c 01	 cmp	 BYTE PTR [edi+12], 1
  0015a	89 75 f4	 mov	 DWORD PTR tv1093[ebp], esi
  0015d	0f 85 9b 01 00
	00		 jne	 $LN3@Extract
$LL4@Extract:

; 598  :                 if (_Fixnode == _Fixnodeparent->_Left) { // fixup left subtree

  00163	8b 0e		 mov	 ecx, DWORD PTR [esi]
  00165	3b f9		 cmp	 edi, ecx
  00167	0f 85 be 00 00
	00		 jne	 $LN26@Extract

; 599  :                     _Pnode = _Fixnodeparent->_Right;

  0016d	8b 4e 08	 mov	 ecx, DWORD PTR [esi+8]

; 600  :                     if (_Pnode->_Color == _Red) { // rotate red up from right subtree

  00170	80 79 0c 00	 cmp	 BYTE PTR [ecx+12], 0
  00174	75 54		 jne	 SHORT $LN95@Extract

; 601  :                         _Pnode->_Color         = _Black;

  00176	c6 41 0c 01	 mov	 BYTE PTR [ecx+12], 1

; 484  :         _Nodeptr _Pnode    = _Wherenode->_Right;

  0017a	8b 4e 08	 mov	 ecx, DWORD PTR [esi+8]

; 602  :                         _Fixnodeparent->_Color = _Red;

  0017d	c6 46 0c 00	 mov	 BYTE PTR [esi+12], 0

; 485  :         _Wherenode->_Right = _Pnode->_Left;

  00181	8b 01		 mov	 eax, DWORD PTR [ecx]
  00183	89 46 08	 mov	 DWORD PTR [esi+8], eax

; 486  : 
; 487  :         if (!_Pnode->_Left->_Isnil) {

  00186	8b 01		 mov	 eax, DWORD PTR [ecx]
  00188	80 78 0d 00	 cmp	 BYTE PTR [eax+13], 0
  0018c	75 03		 jne	 SHORT $LN61@Extract

; 488  :             _Pnode->_Left->_Parent = _Wherenode;

  0018e	89 70 04	 mov	 DWORD PTR [eax+4], esi
$LN61@Extract:

; 489  :         }
; 490  : 
; 491  :         _Pnode->_Parent = _Wherenode->_Parent;

  00191	8b 46 04	 mov	 eax, DWORD PTR [esi+4]
  00194	8d 56 04	 lea	 edx, DWORD PTR [esi+4]
  00197	89 41 04	 mov	 DWORD PTR [ecx+4], eax

; 492  : 
; 493  :         if (_Wherenode == _Myhead->_Parent) {

  0019a	8b 03		 mov	 eax, DWORD PTR [ebx]
  0019c	3b 70 04	 cmp	 esi, DWORD PTR [eax+4]
  0019f	75 0c		 jne	 SHORT $LN62@Extract

; 494  :             _Myhead->_Parent = _Pnode;

  001a1	89 48 04	 mov	 DWORD PTR [eax+4], ecx

; 499  :         }
; 500  : 
; 501  :         _Pnode->_Left       = _Wherenode;

  001a4	89 31		 mov	 DWORD PTR [ecx], esi

; 502  :         _Wherenode->_Parent = _Pnode;

  001a6	89 0a		 mov	 DWORD PTR [edx], ecx

; 603  :                         _Lrotate(_Fixnodeparent);
; 604  :                         _Pnode = _Fixnodeparent->_Right;

  001a8	8b 4e 08	 mov	 ecx, DWORD PTR [esi+8]
  001ab	eb 20		 jmp	 SHORT $LN87@Extract
$LN62@Extract:

; 495  :         } else if (_Wherenode == _Wherenode->_Parent->_Left) {

  001ad	8b 02		 mov	 eax, DWORD PTR [edx]
  001af	3b 30		 cmp	 esi, DWORD PTR [eax]
  001b1	75 0b		 jne	 SHORT $LN64@Extract

; 496  :             _Wherenode->_Parent->_Left = _Pnode;

  001b3	89 08		 mov	 DWORD PTR [eax], ecx

; 499  :         }
; 500  : 
; 501  :         _Pnode->_Left       = _Wherenode;

  001b5	89 31		 mov	 DWORD PTR [ecx], esi

; 502  :         _Wherenode->_Parent = _Pnode;

  001b7	89 0a		 mov	 DWORD PTR [edx], ecx

; 603  :                         _Lrotate(_Fixnodeparent);
; 604  :                         _Pnode = _Fixnodeparent->_Right;

  001b9	8b 4e 08	 mov	 ecx, DWORD PTR [esi+8]
  001bc	eb 0f		 jmp	 SHORT $LN87@Extract
$LN64@Extract:

; 498  :             _Wherenode->_Parent->_Right = _Pnode;

  001be	89 48 08	 mov	 DWORD PTR [eax+8], ecx

; 499  :         }
; 500  : 
; 501  :         _Pnode->_Left       = _Wherenode;

  001c1	89 31		 mov	 DWORD PTR [ecx], esi

; 502  :         _Wherenode->_Parent = _Pnode;

  001c3	89 0a		 mov	 DWORD PTR [edx], ecx

; 603  :                         _Lrotate(_Fixnodeparent);
; 604  :                         _Pnode = _Fixnodeparent->_Right;

  001c5	8b 4e 08	 mov	 ecx, DWORD PTR [esi+8]
  001c8	eb 03		 jmp	 SHORT $LN87@Extract
$LN95@Extract:
  001ca	8d 56 04	 lea	 edx, DWORD PTR [esi+4]
$LN87@Extract:

; 605  :                     }
; 606  : 
; 607  :                     if (_Pnode->_Isnil) {

  001cd	80 79 0d 00	 cmp	 BYTE PTR [ecx+13], 0
  001d1	0f 85 d0 00 00
	00		 jne	 $LN2@Extract

; 608  :                         _Fixnode = _Fixnodeparent; // shouldn't happen
; 609  :                     } else if (_Pnode->_Left->_Color == _Black
; 610  :                                && _Pnode->_Right->_Color == _Black) { // redden right subtree with black children

  001d7	8b 01		 mov	 eax, DWORD PTR [ecx]
  001d9	80 78 0c 01	 cmp	 BYTE PTR [eax+12], 1
  001dd	75 0d		 jne	 SHORT $LN97@Extract
  001df	8b 41 08	 mov	 eax, DWORD PTR [ecx+8]
  001e2	80 78 0c 01	 cmp	 BYTE PTR [eax+12], 1
  001e6	0f 84 b4 00 00
	00		 je	 $LN142@Extract
$LN97@Extract:

; 611  :                         _Pnode->_Color = _Red;
; 612  :                         _Fixnode       = _Fixnodeparent;
; 613  :                     } else { // must rearrange right subtree
; 614  :                         if (_Pnode->_Right->_Color == _Black) { // rotate red up from left sub-subtree

  001ec	8b 41 08	 mov	 eax, DWORD PTR [ecx+8]
  001ef	8b 5d fc	 mov	 ebx, DWORD PTR _this$1$[ebp]
  001f2	80 78 0c 01	 cmp	 BYTE PTR [eax+12], 1
  001f6	75 15		 jne	 SHORT $LN33@Extract

; 615  :                             _Pnode->_Left->_Color = _Black;

  001f8	8b 01		 mov	 eax, DWORD PTR [ecx]

; 616  :                             _Pnode->_Color        = _Red;
; 617  :                             _Rrotate(_Pnode);

  001fa	51		 push	 ecx
  001fb	c6 40 0c 01	 mov	 BYTE PTR [eax+12], 1
  001ff	c6 41 0c 00	 mov	 BYTE PTR [ecx+12], 0
  00203	8b cb		 mov	 ecx, ebx
  00205	e8 00 00 00 00	 call	 ?_Rrotate@?$_Tree_val@U?$_Tree_simple_types@U?$pair@$$CBKPAVCParty@@@std@@@std@@@std@@QAEXPAU?$_Tree_node@U?$pair@$$CBKPAVCParty@@@std@@PAX@2@@Z ; std::_Tree_val<std::_Tree_simple_types<std::pair<unsigned long const ,CParty *> > >::_Rrotate

; 618  :                             _Pnode = _Fixnodeparent->_Right;

  0020a	8b 4e 08	 mov	 ecx, DWORD PTR [esi+8]
$LN33@Extract:

; 619  :                         }
; 620  : 
; 621  :                         _Pnode->_Color         = _Fixnodeparent->_Color;

  0020d	8a 46 0c	 mov	 al, BYTE PTR [esi+12]
  00210	88 41 0c	 mov	 BYTE PTR [ecx+12], al

; 622  :                         _Fixnodeparent->_Color = _Black;

  00213	c6 46 0c 01	 mov	 BYTE PTR [esi+12], 1

; 623  :                         _Pnode->_Right->_Color = _Black;

  00217	8b 41 08	 mov	 eax, DWORD PTR [ecx+8]

; 624  :                         _Lrotate(_Fixnodeparent);

  0021a	8b cb		 mov	 ecx, ebx
  0021c	56		 push	 esi
  0021d	c6 40 0c 01	 mov	 BYTE PTR [eax+12], 1
  00221	e8 00 00 00 00	 call	 ?_Lrotate@?$_Tree_val@U?$_Tree_simple_types@U?$pair@$$CBKPAVCParty@@@std@@@std@@@std@@QAEXPAU?$_Tree_node@U?$pair@$$CBKPAVCParty@@@std@@PAX@2@@Z ; std::_Tree_val<std::_Tree_simple_types<std::pair<unsigned long const ,CParty *> > >::_Lrotate

; 625  :                         break; // tree now recolored/rebalanced

  00226	e9 d3 00 00 00	 jmp	 $LN3@Extract
$LN26@Extract:

; 626  :                     }
; 627  :                 } else { // fixup right subtree
; 628  :                     _Pnode = _Fixnodeparent->_Left;
; 629  :                     if (_Pnode->_Color == _Red) { // rotate red up from left subtree

  0022b	80 79 0c 00	 cmp	 BYTE PTR [ecx+12], 0
  0022f	75 55		 jne	 SHORT $LN96@Extract

; 630  :                         _Pnode->_Color         = _Black;

  00231	c6 41 0c 01	 mov	 BYTE PTR [ecx+12], 1

; 506  :         _Nodeptr _Pnode   = _Wherenode->_Left;

  00235	8b 0e		 mov	 ecx, DWORD PTR [esi]

; 631  :                         _Fixnodeparent->_Color = _Red;

  00237	c6 46 0c 00	 mov	 BYTE PTR [esi+12], 0

; 507  :         _Wherenode->_Left = _Pnode->_Right;

  0023b	8b 41 08	 mov	 eax, DWORD PTR [ecx+8]
  0023e	89 06		 mov	 DWORD PTR [esi], eax

; 508  : 
; 509  :         if (!_Pnode->_Right->_Isnil) {

  00240	8b 41 08	 mov	 eax, DWORD PTR [ecx+8]
  00243	80 78 0d 00	 cmp	 BYTE PTR [eax+13], 0
  00247	75 03		 jne	 SHORT $LN69@Extract

; 510  :             _Pnode->_Right->_Parent = _Wherenode;

  00249	89 70 04	 mov	 DWORD PTR [eax+4], esi
$LN69@Extract:

; 511  :         }
; 512  : 
; 513  :         _Pnode->_Parent = _Wherenode->_Parent;

  0024c	8b 46 04	 mov	 eax, DWORD PTR [esi+4]
  0024f	8d 56 04	 lea	 edx, DWORD PTR [esi+4]
  00252	89 41 04	 mov	 DWORD PTR [ecx+4], eax

; 514  : 
; 515  :         if (_Wherenode == _Myhead->_Parent) {

  00255	8b 03		 mov	 eax, DWORD PTR [ebx]
  00257	3b 70 04	 cmp	 esi, DWORD PTR [eax+4]
  0025a	75 0c		 jne	 SHORT $LN70@Extract

; 516  :             _Myhead->_Parent = _Pnode;

  0025c	89 48 04	 mov	 DWORD PTR [eax+4], ecx

; 521  :         }
; 522  : 
; 523  :         _Pnode->_Right      = _Wherenode;

  0025f	89 71 08	 mov	 DWORD PTR [ecx+8], esi

; 524  :         _Wherenode->_Parent = _Pnode;

  00262	89 0a		 mov	 DWORD PTR [edx], ecx

; 632  :                         _Rrotate(_Fixnodeparent);
; 633  :                         _Pnode = _Fixnodeparent->_Left;

  00264	8b 0e		 mov	 ecx, DWORD PTR [esi]
  00266	eb 21		 jmp	 SHORT $LN86@Extract
$LN70@Extract:

; 517  :         } else if (_Wherenode == _Wherenode->_Parent->_Right) {

  00268	8b 02		 mov	 eax, DWORD PTR [edx]
  0026a	3b 70 08	 cmp	 esi, DWORD PTR [eax+8]
  0026d	75 0c		 jne	 SHORT $LN72@Extract

; 518  :             _Wherenode->_Parent->_Right = _Pnode;

  0026f	89 48 08	 mov	 DWORD PTR [eax+8], ecx

; 521  :         }
; 522  : 
; 523  :         _Pnode->_Right      = _Wherenode;

  00272	89 71 08	 mov	 DWORD PTR [ecx+8], esi

; 524  :         _Wherenode->_Parent = _Pnode;

  00275	89 0a		 mov	 DWORD PTR [edx], ecx

; 632  :                         _Rrotate(_Fixnodeparent);
; 633  :                         _Pnode = _Fixnodeparent->_Left;

  00277	8b 0e		 mov	 ecx, DWORD PTR [esi]
  00279	eb 0e		 jmp	 SHORT $LN86@Extract
$LN72@Extract:

; 520  :             _Wherenode->_Parent->_Left = _Pnode;

  0027b	89 08		 mov	 DWORD PTR [eax], ecx

; 521  :         }
; 522  : 
; 523  :         _Pnode->_Right      = _Wherenode;

  0027d	89 71 08	 mov	 DWORD PTR [ecx+8], esi

; 524  :         _Wherenode->_Parent = _Pnode;

  00280	89 0a		 mov	 DWORD PTR [edx], ecx

; 632  :                         _Rrotate(_Fixnodeparent);
; 633  :                         _Pnode = _Fixnodeparent->_Left;

  00282	8b 0e		 mov	 ecx, DWORD PTR [esi]
  00284	eb 03		 jmp	 SHORT $LN86@Extract
$LN96@Extract:
  00286	8d 56 04	 lea	 edx, DWORD PTR [esi+4]
$LN86@Extract:

; 634  :                     }
; 635  : 
; 636  :                     if (_Pnode->_Isnil) {

  00289	80 79 0d 00	 cmp	 BYTE PTR [ecx+13], 0
  0028d	75 18		 jne	 SHORT $LN2@Extract

; 637  :                         _Fixnode = _Fixnodeparent; // shouldn't happen
; 638  :                     } else if (_Pnode->_Right->_Color == _Black
; 639  :                                && _Pnode->_Left->_Color == _Black) { // redden left subtree with black children

  0028f	8b 59 08	 mov	 ebx, DWORD PTR [ecx+8]
  00292	80 7b 0c 01	 cmp	 BYTE PTR [ebx+12], 1
  00296	75 2c		 jne	 SHORT $LN98@Extract
  00298	8b 01		 mov	 eax, DWORD PTR [ecx]
  0029a	80 78 0c 01	 cmp	 BYTE PTR [eax+12], 1
  0029e	75 24		 jne	 SHORT $LN98@Extract
$LN142@Extract:

; 597  :             for (; _Fixnode != _Myhead->_Parent && _Fixnode->_Color == _Black; _Fixnodeparent = _Fixnode->_Parent) {

  002a0	8b 5d fc	 mov	 ebx, DWORD PTR _this$1$[ebp]
  002a3	c6 41 0c 00	 mov	 BYTE PTR [ecx+12], 0
$LN2@Extract:
  002a7	8b 03		 mov	 eax, DWORD PTR [ebx]
  002a9	8b 4d f4	 mov	 ecx, DWORD PTR tv1093[ebp]
  002ac	8b f9		 mov	 edi, ecx
  002ae	8b 32		 mov	 esi, DWORD PTR [edx]
  002b0	3b 48 04	 cmp	 ecx, DWORD PTR [eax+4]
  002b3	74 49		 je	 SHORT $LN3@Extract
  002b5	80 7f 0c 01	 cmp	 BYTE PTR [edi+12], 1
  002b9	89 75 f4	 mov	 DWORD PTR tv1093[ebp], esi
  002bc	0f 84 a1 fe ff
	ff		 je	 $LL4@Extract
  002c2	eb 3a		 jmp	 SHORT $LN3@Extract
$LN98@Extract:

; 640  :                         _Pnode->_Color = _Red;
; 641  :                         _Fixnode       = _Fixnodeparent;
; 642  :                     } else { // must rearrange left subtree
; 643  :                         if (_Pnode->_Left->_Color == _Black) { // rotate red up from right sub-subtree

  002c4	8b 01		 mov	 eax, DWORD PTR [ecx]
  002c6	80 78 0c 01	 cmp	 BYTE PTR [eax+12], 1
  002ca	75 17		 jne	 SHORT $LN101@Extract

; 644  :                             _Pnode->_Right->_Color = _Black;

  002cc	c6 43 0c 01	 mov	 BYTE PTR [ebx+12], 1

; 645  :                             _Pnode->_Color         = _Red;
; 646  :                             _Lrotate(_Pnode);

  002d0	8b 5d fc	 mov	 ebx, DWORD PTR _this$1$[ebp]
  002d3	c6 41 0c 00	 mov	 BYTE PTR [ecx+12], 0
  002d7	51		 push	 ecx
  002d8	8b cb		 mov	 ecx, ebx
  002da	e8 00 00 00 00	 call	 ?_Lrotate@?$_Tree_val@U?$_Tree_simple_types@U?$pair@$$CBKPAVCParty@@@std@@@std@@@std@@QAEXPAU?$_Tree_node@U?$pair@$$CBKPAVCParty@@@std@@PAX@2@@Z ; std::_Tree_val<std::_Tree_simple_types<std::pair<unsigned long const ,CParty *> > >::_Lrotate

; 647  :                             _Pnode = _Fixnodeparent->_Left;

  002df	8b 0e		 mov	 ecx, DWORD PTR [esi]
  002e1	eb 03		 jmp	 SHORT $LN39@Extract
$LN101@Extract:

; 640  :                         _Pnode->_Color = _Red;
; 641  :                         _Fixnode       = _Fixnodeparent;
; 642  :                     } else { // must rearrange left subtree
; 643  :                         if (_Pnode->_Left->_Color == _Black) { // rotate red up from right sub-subtree

  002e3	8b 5d fc	 mov	 ebx, DWORD PTR _this$1$[ebp]
$LN39@Extract:

; 648  :                         }
; 649  : 
; 650  :                         _Pnode->_Color         = _Fixnodeparent->_Color;

  002e6	8a 46 0c	 mov	 al, BYTE PTR [esi+12]
  002e9	88 41 0c	 mov	 BYTE PTR [ecx+12], al

; 651  :                         _Fixnodeparent->_Color = _Black;

  002ec	c6 46 0c 01	 mov	 BYTE PTR [esi+12], 1

; 652  :                         _Pnode->_Left->_Color  = _Black;

  002f0	8b 01		 mov	 eax, DWORD PTR [ecx]

; 653  :                         _Rrotate(_Fixnodeparent);

  002f2	8b cb		 mov	 ecx, ebx
  002f4	56		 push	 esi
  002f5	c6 40 0c 01	 mov	 BYTE PTR [eax+12], 1
  002f9	e8 00 00 00 00	 call	 ?_Rrotate@?$_Tree_val@U?$_Tree_simple_types@U?$pair@$$CBKPAVCParty@@@std@@@std@@@std@@QAEXPAU?$_Tree_node@U?$pair@$$CBKPAVCParty@@@std@@PAX@2@@Z ; std::_Tree_val<std::_Tree_simple_types<std::pair<unsigned long const ,CParty *> > >::_Rrotate
$LN3@Extract:

; 654  :                         break; // tree now recolored/rebalanced
; 655  :                     }
; 656  :                 }
; 657  :             }
; 658  : 
; 659  :             _Fixnode->_Color = _Black; // stopping node is black

  002fe	8b 45 f8	 mov	 eax, DWORD PTR __Erasednode$1$[ebp]
  00301	c6 47 0c 01	 mov	 BYTE PTR [edi+12], 1
$LN25@Extract:

; 660  :         }
; 661  : 
; 662  :         if (0 < _Mysize) {

  00305	8b 4b 04	 mov	 ecx, DWORD PTR [ebx+4]
  00308	85 c9		 test	 ecx, ecx
  0030a	74 04		 je	 SHORT $LN40@Extract

; 663  :             --_Mysize;

  0030c	49		 dec	 ecx
  0030d	89 4b 04	 mov	 DWORD PTR [ebx+4], ecx
$LN40@Extract:

; 664  :         }
; 665  : 
; 666  :         return _Erasednode;
; 667  :     }

  00310	5f		 pop	 edi
  00311	5e		 pop	 esi
  00312	5b		 pop	 ebx
  00313	8b e5		 mov	 esp, ebp
  00315	5d		 pop	 ebp
  00316	c2 04 00	 ret	 4
?_Extract@?$_Tree_val@U?$_Tree_simple_types@U?$pair@$$CBKPAVCParty@@@std@@@std@@@std@@QAEPAU?$_Tree_node@U?$pair@$$CBKPAVCParty@@@std@@PAX@2@V?$_Tree_unchecked_const_iterator@V?$_Tree_val@U?$_Tree_simple_types@U?$pair@$$CBKPAVCParty@@@std@@@std@@@std@@U_Iterator_base0@2@@2@@Z ENDP ; std::_Tree_val<std::_Tree_simple_types<std::pair<unsigned long const ,CParty *> > >::_Extract
_TEXT	ENDS
; Function compile flags: /Ogtp
; File C:\Program Files\Microsoft Visual Studio\2022\Professional\VC\Tools\MSVC\14.44.35207\include\xtree
;	COMDAT ?_Rrotate@?$_Tree_val@U?$_Tree_simple_types@U?$pair@$$CBKPAVCParty@@@std@@@std@@@std@@QAEXPAU?$_Tree_node@U?$pair@$$CBKPAVCParty@@@std@@PAX@2@@Z
_TEXT	SEGMENT
__Wherenode$ = 8					; size = 4
?_Rrotate@?$_Tree_val@U?$_Tree_simple_types@U?$pair@$$CBKPAVCParty@@@std@@@std@@@std@@QAEXPAU?$_Tree_node@U?$pair@$$CBKPAVCParty@@@std@@PAX@2@@Z PROC ; std::_Tree_val<std::_Tree_simple_types<std::pair<unsigned long const ,CParty *> > >::_Rrotate, COMDAT
; _this$ = ecx

; 505  :     void _Rrotate(_Nodeptr _Wherenode) noexcept { // promote left node to root of subtree

  00000	55		 push	 ebp
  00001	8b ec		 mov	 ebp, esp

; 506  :         _Nodeptr _Pnode   = _Wherenode->_Left;

  00003	8b 55 08	 mov	 edx, DWORD PTR __Wherenode$[ebp]
  00006	56		 push	 esi
  00007	8b 32		 mov	 esi, DWORD PTR [edx]

; 507  :         _Wherenode->_Left = _Pnode->_Right;

  00009	8b 46 08	 mov	 eax, DWORD PTR [esi+8]
  0000c	89 02		 mov	 DWORD PTR [edx], eax

; 508  : 
; 509  :         if (!_Pnode->_Right->_Isnil) {

  0000e	8b 46 08	 mov	 eax, DWORD PTR [esi+8]
  00011	80 78 0d 00	 cmp	 BYTE PTR [eax+13], 0
  00015	75 03		 jne	 SHORT $LN2@Rrotate

; 510  :             _Pnode->_Right->_Parent = _Wherenode;

  00017	89 50 04	 mov	 DWORD PTR [eax+4], edx
$LN2@Rrotate:

; 511  :         }
; 512  : 
; 513  :         _Pnode->_Parent = _Wherenode->_Parent;

  0001a	8b 42 04	 mov	 eax, DWORD PTR [edx+4]
  0001d	89 46 04	 mov	 DWORD PTR [esi+4], eax

; 514  : 
; 515  :         if (_Wherenode == _Myhead->_Parent) {

  00020	8b 01		 mov	 eax, DWORD PTR [ecx]
  00022	3b 50 04	 cmp	 edx, DWORD PTR [eax+4]
  00025	75 0e		 jne	 SHORT $LN3@Rrotate

; 516  :             _Myhead->_Parent = _Pnode;

  00027	89 70 04	 mov	 DWORD PTR [eax+4], esi

; 521  :         }
; 522  : 
; 523  :         _Pnode->_Right      = _Wherenode;
; 524  :         _Wherenode->_Parent = _Pnode;
; 525  :     }

  0002a	89 56 08	 mov	 DWORD PTR [esi+8], edx
  0002d	89 72 04	 mov	 DWORD PTR [edx+4], esi
  00030	5e		 pop	 esi
  00031	5d		 pop	 ebp
  00032	c2 04 00	 ret	 4
$LN3@Rrotate:

; 517  :         } else if (_Wherenode == _Wherenode->_Parent->_Right) {

  00035	8b 42 04	 mov	 eax, DWORD PTR [edx+4]
  00038	3b 50 08	 cmp	 edx, DWORD PTR [eax+8]
  0003b	75 0e		 jne	 SHORT $LN5@Rrotate

; 518  :             _Wherenode->_Parent->_Right = _Pnode;

  0003d	89 70 08	 mov	 DWORD PTR [eax+8], esi

; 521  :         }
; 522  : 
; 523  :         _Pnode->_Right      = _Wherenode;
; 524  :         _Wherenode->_Parent = _Pnode;
; 525  :     }

  00040	89 56 08	 mov	 DWORD PTR [esi+8], edx
  00043	89 72 04	 mov	 DWORD PTR [edx+4], esi
  00046	5e		 pop	 esi
  00047	5d		 pop	 ebp
  00048	c2 04 00	 ret	 4
$LN5@Rrotate:

; 519  :         } else {
; 520  :             _Wherenode->_Parent->_Left = _Pnode;

  0004b	89 30		 mov	 DWORD PTR [eax], esi

; 521  :         }
; 522  : 
; 523  :         _Pnode->_Right      = _Wherenode;
; 524  :         _Wherenode->_Parent = _Pnode;
; 525  :     }

  0004d	89 56 08	 mov	 DWORD PTR [esi+8], edx
  00050	89 72 04	 mov	 DWORD PTR [edx+4], esi
  00053	5e		 pop	 esi
  00054	5d		 pop	 ebp
  00055	c2 04 00	 ret	 4
?_Rrotate@?$_Tree_val@U?$_Tree_simple_types@U?$pair@$$CBKPAVCParty@@@std@@@std@@@std@@QAEXPAU?$_Tree_node@U?$pair@$$CBKPAVCParty@@@std@@PAX@2@@Z ENDP ; std::_Tree_val<std::_Tree_simple_types<std::pair<unsigned long const ,CParty *> > >::_Rrotate
_TEXT	ENDS
; Function compile flags: /Ogtp
; File C:\Program Files\Microsoft Visual Studio\2022\Professional\VC\Tools\MSVC\14.44.35207\include\xtree
;	COMDAT ?_Lrotate@?$_Tree_val@U?$_Tree_simple_types@U?$pair@$$CBKPAVCParty@@@std@@@std@@@std@@QAEXPAU?$_Tree_node@U?$pair@$$CBKPAVCParty@@@std@@PAX@2@@Z
_TEXT	SEGMENT
__Wherenode$ = 8					; size = 4
?_Lrotate@?$_Tree_val@U?$_Tree_simple_types@U?$pair@$$CBKPAVCParty@@@std@@@std@@@std@@QAEXPAU?$_Tree_node@U?$pair@$$CBKPAVCParty@@@std@@PAX@2@@Z PROC ; std::_Tree_val<std::_Tree_simple_types<std::pair<unsigned long const ,CParty *> > >::_Lrotate, COMDAT
; _this$ = ecx

; 483  :     void _Lrotate(_Nodeptr _Wherenode) noexcept { // promote right node to root of subtree

  00000	55		 push	 ebp
  00001	8b ec		 mov	 ebp, esp

; 484  :         _Nodeptr _Pnode    = _Wherenode->_Right;

  00003	8b 55 08	 mov	 edx, DWORD PTR __Wherenode$[ebp]
  00006	56		 push	 esi
  00007	8b 72 08	 mov	 esi, DWORD PTR [edx+8]

; 485  :         _Wherenode->_Right = _Pnode->_Left;

  0000a	8b 06		 mov	 eax, DWORD PTR [esi]
  0000c	89 42 08	 mov	 DWORD PTR [edx+8], eax

; 486  : 
; 487  :         if (!_Pnode->_Left->_Isnil) {

  0000f	8b 06		 mov	 eax, DWORD PTR [esi]
  00011	80 78 0d 00	 cmp	 BYTE PTR [eax+13], 0
  00015	75 03		 jne	 SHORT $LN2@Lrotate

; 488  :             _Pnode->_Left->_Parent = _Wherenode;

  00017	89 50 04	 mov	 DWORD PTR [eax+4], edx
$LN2@Lrotate:

; 489  :         }
; 490  : 
; 491  :         _Pnode->_Parent = _Wherenode->_Parent;

  0001a	8b 42 04	 mov	 eax, DWORD PTR [edx+4]
  0001d	89 46 04	 mov	 DWORD PTR [esi+4], eax

; 492  : 
; 493  :         if (_Wherenode == _Myhead->_Parent) {

  00020	8b 01		 mov	 eax, DWORD PTR [ecx]
  00022	3b 50 04	 cmp	 edx, DWORD PTR [eax+4]
  00025	75 0d		 jne	 SHORT $LN3@Lrotate

; 494  :             _Myhead->_Parent = _Pnode;

  00027	89 70 04	 mov	 DWORD PTR [eax+4], esi

; 499  :         }
; 500  : 
; 501  :         _Pnode->_Left       = _Wherenode;
; 502  :         _Wherenode->_Parent = _Pnode;
; 503  :     }

  0002a	89 16		 mov	 DWORD PTR [esi], edx
  0002c	89 72 04	 mov	 DWORD PTR [edx+4], esi
  0002f	5e		 pop	 esi
  00030	5d		 pop	 ebp
  00031	c2 04 00	 ret	 4
$LN3@Lrotate:

; 495  :         } else if (_Wherenode == _Wherenode->_Parent->_Left) {

  00034	8b 42 04	 mov	 eax, DWORD PTR [edx+4]
  00037	3b 10		 cmp	 edx, DWORD PTR [eax]
  00039	75 0c		 jne	 SHORT $LN5@Lrotate

; 496  :             _Wherenode->_Parent->_Left = _Pnode;

  0003b	89 30		 mov	 DWORD PTR [eax], esi

; 499  :         }
; 500  : 
; 501  :         _Pnode->_Left       = _Wherenode;
; 502  :         _Wherenode->_Parent = _Pnode;
; 503  :     }

  0003d	89 16		 mov	 DWORD PTR [esi], edx
  0003f	89 72 04	 mov	 DWORD PTR [edx+4], esi
  00042	5e		 pop	 esi
  00043	5d		 pop	 ebp
  00044	c2 04 00	 ret	 4
$LN5@Lrotate:

; 497  :         } else {
; 498  :             _Wherenode->_Parent->_Right = _Pnode;

  00047	89 70 08	 mov	 DWORD PTR [eax+8], esi

; 499  :         }
; 500  : 
; 501  :         _Pnode->_Left       = _Wherenode;
; 502  :         _Wherenode->_Parent = _Pnode;
; 503  :     }

  0004a	89 16		 mov	 DWORD PTR [esi], edx
  0004c	89 72 04	 mov	 DWORD PTR [edx+4], esi
  0004f	5e		 pop	 esi
  00050	5d		 pop	 ebp
  00051	c2 04 00	 ret	 4
?_Lrotate@?$_Tree_val@U?$_Tree_simple_types@U?$pair@$$CBKPAVCParty@@@std@@@std@@@std@@QAEXPAU?$_Tree_node@U?$pair@$$CBKPAVCParty@@@std@@PAX@2@@Z ENDP ; std::_Tree_val<std::_Tree_simple_types<std::pair<unsigned long const ,CParty *> > >::_Lrotate
_TEXT	ENDS
; Function compile flags: /Ogtp
; File C:\Program Files\Microsoft Visual Studio\2022\Professional\VC\Tools\MSVC\14.44.35207\include\xtree
; File C:\Program Files\Microsoft Visual Studio\2022\Professional\VC\Tools\MSVC\14.44.35207\include\utility
; File C:\Program Files\Microsoft Visual Studio\2022\Professional\VC\Tools\MSVC\14.44.35207\include\xmemory
; File C:\Program Files\Microsoft Visual Studio\2022\Professional\VC\Tools\MSVC\14.44.35207\include\xtree
;	COMDAT ?clear@?$_Tree@V?$_Tmap_traits@KPAVCParty@@U?$less@K@std@@V?$allocator@U?$pair@$$CBKPAVCParty@@@std@@@3@$0A@@std@@@std@@QAEXXZ
_TEXT	SEGMENT
?clear@?$_Tree@V?$_Tmap_traits@KPAVCParty@@U?$less@K@std@@V?$allocator@U?$pair@$$CBKPAVCParty@@@std@@@3@$0A@@std@@@std@@QAEXXZ PROC ; std::_Tree<std::_Tmap_traits<unsigned long,CParty *,std::less<unsigned long>,std::allocator<std::pair<unsigned long const ,CParty *> >,0> >::clear, COMDAT
; _this$ = ecx

; 1370 :     void clear() noexcept {

  00000	53		 push	 ebx
  00001	8b d9		 mov	 ebx, ecx
  00003	56		 push	 esi
  00004	57		 push	 edi

; 1371 :         const auto _Scary = _Get_scary();
; 1372 :         _Scary->_Orphan_ptr(nullptr);
; 1373 :         auto _Head = _Scary->_Myhead;

  00005	8b 3b		 mov	 edi, DWORD PTR [ebx]

; 1374 :         _Scary->_Erase_tree(_Getal(), _Head->_Parent);

  00007	8b 77 04	 mov	 esi, DWORD PTR [edi+4]

; 768  :         while (!_Rootnode->_Isnil) { // free subtrees, then node

  0000a	80 7e 0d 00	 cmp	 BYTE PTR [esi+13], 0
  0000e	75 20		 jne	 SHORT $LN38@clear
$LL5@clear:

; 769  :             _Erase_tree(_Al, _Rootnode->_Right);

  00010	ff 76 08	 push	 DWORD PTR [esi+8]
  00013	8b cb		 mov	 ecx, ebx
  00015	53		 push	 ebx
  00016	e8 00 00 00 00	 call	 ??$_Erase_tree@V?$allocator@U?$_Tree_node@U?$pair@$$CBKPAVCParty@@@std@@PAX@std@@@std@@@?$_Tree_val@U?$_Tree_simple_types@U?$pair@$$CBKPAVCParty@@@std@@@std@@@std@@QAEXAAV?$allocator@U?$_Tree_node@U?$pair@$$CBKPAVCParty@@@std@@PAX@std@@@1@PAU?$_Tree_node@U?$pair@$$CBKPAVCParty@@@std@@PAX@1@@Z ; std::_Tree_val<std::_Tree_simple_types<std::pair<unsigned long const ,CParty *> > >::_Erase_tree<std::allocator<std::_Tree_node<std::pair<unsigned long const ,CParty *>,void *> > >
; File C:\Program Files\Microsoft Visual Studio\2022\Professional\VC\Tools\MSVC\14.44.35207\include\utility

; 773  :     _Ty _Old_val = static_cast<_Ty&&>(_Val);

  0001b	8b c6		 mov	 eax, esi

; 774  :     _Val         = static_cast<_Other&&>(_New_val);

  0001d	8b 36		 mov	 esi, DWORD PTR [esi]
; File C:\Program Files\Microsoft Visual Studio\2022\Professional\VC\Tools\MSVC\14.44.35207\include\xmemory

; 289  :         ::operator delete(_Ptr, _Bytes);

  0001f	6a 18		 push	 24			; 00000018H
  00021	50		 push	 eax
  00022	e8 00 00 00 00	 call	 ??3@YAXPAXI@Z		; operator delete
  00027	83 c4 08	 add	 esp, 8
; File C:\Program Files\Microsoft Visual Studio\2022\Professional\VC\Tools\MSVC\14.44.35207\include\xtree

; 768  :         while (!_Rootnode->_Isnil) { // free subtrees, then node

  0002a	80 7e 0d 00	 cmp	 BYTE PTR [esi+13], 0
  0002e	74 e0		 je	 SHORT $LL5@clear
$LN38@clear:

; 1375 :         _Head->_Parent  = _Head;

  00030	89 7f 04	 mov	 DWORD PTR [edi+4], edi

; 1376 :         _Head->_Left    = _Head;

  00033	89 3f		 mov	 DWORD PTR [edi], edi

; 1377 :         _Head->_Right   = _Head;

  00035	89 7f 08	 mov	 DWORD PTR [edi+8], edi

; 1378 :         _Scary->_Mysize = 0;

  00038	5f		 pop	 edi
  00039	5e		 pop	 esi
  0003a	c7 43 04 00 00
	00 00		 mov	 DWORD PTR [ebx+4], 0
  00041	5b		 pop	 ebx

; 1379 :     }

  00042	c3		 ret	 0
?clear@?$_Tree@V?$_Tmap_traits@KPAVCParty@@U?$less@K@std@@V?$allocator@U?$pair@$$CBKPAVCParty@@@std@@@3@$0A@@std@@@std@@QAEXXZ ENDP ; std::_Tree<std::_Tmap_traits<unsigned long,CParty *,std::less<unsigned long>,std::allocator<std::pair<unsigned long const ,CParty *> >,0> >::clear
_TEXT	ENDS
; Function compile flags: /Ogtp
; File C:\Program Files\Microsoft Visual Studio\2022\Professional\VC\Tools\MSVC\14.44.35207\include\xtree
; File C:\Program Files\Microsoft Visual Studio\2022\Professional\VC\Tools\MSVC\14.44.35207\include\utility
; File C:\Program Files\Microsoft Visual Studio\2022\Professional\VC\Tools\MSVC\14.44.35207\include\xmemory
; File C:\Program Files\Microsoft Visual Studio\2022\Professional\VC\Tools\MSVC\14.44.35207\include\xtree
; File C:\Program Files\Microsoft Visual Studio\2022\Professional\VC\Tools\MSVC\14.44.35207\include\xmemory
; File C:\Program Files\Microsoft Visual Studio\2022\Professional\VC\Tools\MSVC\14.44.35207\include\xtree
;	COMDAT ??1?$_Tree@V?$_Tmap_traits@KPAVCParty@@U?$less@K@std@@V?$allocator@U?$pair@$$CBKPAVCParty@@@std@@@3@$0A@@std@@@std@@QAE@XZ
_TEXT	SEGMENT
??1?$_Tree@V?$_Tmap_traits@KPAVCParty@@U?$less@K@std@@V?$allocator@U?$pair@$$CBKPAVCParty@@@std@@@3@$0A@@std@@@std@@QAE@XZ PROC ; std::_Tree<std::_Tmap_traits<unsigned long,CParty *,std::less<unsigned long>,std::allocator<std::pair<unsigned long const ,CParty *> >,0> >::~_Tree<std::_Tmap_traits<unsigned long,CParty *,std::less<unsigned long>,std::allocator<std::pair<unsigned long const ,CParty *> >,0> >, COMDAT
; _this$ = ecx

; 1095 :     ~_Tree() noexcept {

  00000	56		 push	 esi
  00001	57		 push	 edi
  00002	8b f9		 mov	 edi, ecx

; 777  :         _Erase_tree(_Al, _Myhead->_Parent);

  00004	8b 37		 mov	 esi, DWORD PTR [edi]
  00006	8b 76 04	 mov	 esi, DWORD PTR [esi+4]

; 768  :         while (!_Rootnode->_Isnil) { // free subtrees, then node

  00009	80 7e 0d 00	 cmp	 BYTE PTR [esi+13], 0
  0000d	75 21		 jne	 SHORT $LN61@Tree
  0000f	90		 npad	 1
$LL8@Tree:

; 769  :             _Erase_tree(_Al, _Rootnode->_Right);

  00010	ff 76 08	 push	 DWORD PTR [esi+8]
  00013	8b cf		 mov	 ecx, edi
  00015	57		 push	 edi
  00016	e8 00 00 00 00	 call	 ??$_Erase_tree@V?$allocator@U?$_Tree_node@U?$pair@$$CBKPAVCParty@@@std@@PAX@std@@@std@@@?$_Tree_val@U?$_Tree_simple_types@U?$pair@$$CBKPAVCParty@@@std@@@std@@@std@@QAEXAAV?$allocator@U?$_Tree_node@U?$pair@$$CBKPAVCParty@@@std@@PAX@std@@@1@PAU?$_Tree_node@U?$pair@$$CBKPAVCParty@@@std@@PAX@1@@Z ; std::_Tree_val<std::_Tree_simple_types<std::pair<unsigned long const ,CParty *> > >::_Erase_tree<std::allocator<std::_Tree_node<std::pair<unsigned long const ,CParty *>,void *> > >
; File C:\Program Files\Microsoft Visual Studio\2022\Professional\VC\Tools\MSVC\14.44.35207\include\utility

; 773  :     _Ty _Old_val = static_cast<_Ty&&>(_Val);

  0001b	8b c6		 mov	 eax, esi

; 774  :     _Val         = static_cast<_Other&&>(_New_val);

  0001d	8b 36		 mov	 esi, DWORD PTR [esi]
; File C:\Program Files\Microsoft Visual Studio\2022\Professional\VC\Tools\MSVC\14.44.35207\include\xmemory

; 289  :         ::operator delete(_Ptr, _Bytes);

  0001f	6a 18		 push	 24			; 00000018H
  00021	50		 push	 eax
  00022	e8 00 00 00 00	 call	 ??3@YAXPAXI@Z		; operator delete
  00027	83 c4 08	 add	 esp, 8
; File C:\Program Files\Microsoft Visual Studio\2022\Professional\VC\Tools\MSVC\14.44.35207\include\xtree

; 768  :         while (!_Rootnode->_Isnil) { // free subtrees, then node

  0002a	80 7e 0d 00	 cmp	 BYTE PTR [esi+13], 0
  0002e	74 e0		 je	 SHORT $LL8@Tree
$LN61@Tree:
; File C:\Program Files\Microsoft Visual Studio\2022\Professional\VC\Tools\MSVC\14.44.35207\include\xmemory

; 289  :         ::operator delete(_Ptr, _Bytes);

  00030	6a 18		 push	 24			; 00000018H
  00032	ff 37		 push	 DWORD PTR [edi]
  00034	e8 00 00 00 00	 call	 ??3@YAXPAXI@Z		; operator delete
  00039	83 c4 08	 add	 esp, 8
  0003c	5f		 pop	 edi
  0003d	5e		 pop	 esi
; File C:\Program Files\Microsoft Visual Studio\2022\Professional\VC\Tools\MSVC\14.44.35207\include\xtree

; 1102 :     }

  0003e	c3		 ret	 0
??1?$_Tree@V?$_Tmap_traits@KPAVCParty@@U?$less@K@std@@V?$allocator@U?$pair@$$CBKPAVCParty@@@std@@@3@$0A@@std@@@std@@QAE@XZ ENDP ; std::_Tree<std::_Tmap_traits<unsigned long,CParty *,std::less<unsigned long>,std::allocator<std::pair<unsigned long const ,CParty *> >,0> >::~_Tree<std::_Tmap_traits<unsigned long,CParty *,std::less<unsigned long>,std::allocator<std::pair<unsigned long const ,CParty *> >,0> >
_TEXT	ENDS
; Function compile flags: /Ogtp
; File C:\IAGOS\server\v18\Source\Source\_common\party.cpp
;	COMDAT ?FindMember@CParty@@QAEHK@Z
_TEXT	SEGMENT
_uPlayerId$ = 8						; size = 4
?FindMember@CParty@@QAEHK@Z PROC			; CParty::FindMember, COMDAT
; _this$ = ecx

; 111  : {

  00000	55		 push	 ebp
  00001	8b ec		 mov	 ebp, esp

; 112  : 	for( int i = 0; i < m_nSizeofMember; i++ )

  00003	8b 91 cc 01 00
	00		 mov	 edx, DWORD PTR [ecx+460]
  00009	33 c0		 xor	 eax, eax
  0000b	56		 push	 esi
  0000c	85 d2		 test	 edx, edx
  0000e	7e 12		 jle	 SHORT $LN3@FindMember
  00010	8b 75 08	 mov	 esi, DWORD PTR _uPlayerId$[ebp]
  00013	83 c1 28	 add	 ecx, 40			; 00000028H
$LL4@FindMember:

; 113  : 		if( m_aMember[i].m_uPlayerId == uPlayerId )

  00016	39 31		 cmp	 DWORD PTR [ecx], esi
  00018	74 0b		 je	 SHORT $LN1@FindMember

; 112  : 	for( int i = 0; i < m_nSizeofMember; i++ )

  0001a	40		 inc	 eax
  0001b	83 c1 1c	 add	 ecx, 28			; 0000001cH
  0001e	3b c2		 cmp	 eax, edx
  00020	7c f4		 jl	 SHORT $LL4@FindMember
$LN3@FindMember:

; 114  : 			return i;
; 115  : 	return -1;

  00022	83 c8 ff	 or	 eax, -1
$LN1@FindMember:
  00025	5e		 pop	 esi

; 116  : }

  00026	5d		 pop	 ebp
  00027	c2 04 00	 ret	 4
?FindMember@CParty@@QAEHK@Z ENDP			; CParty::FindMember
_TEXT	ENDS
; Function compile flags: /Ogtp
; File C:\IAGOS\server\v18\Source\Source\_common\party.cpp
;	COMDAT ?GetPoint@CParty@@QAEXHHH@Z
_TEXT	SEGMENT
_nTotalLevel$ = 8					; size = 4
_pMover$1$ = 8						; size = 4
_nMemberSize$ = 12					; size = 4
_nDeadLeavel$ = 16					; size = 4
?GetPoint@CParty@@QAEXHHH@Z PROC			; CParty::GetPoint, COMDAT
; _this$ = ecx

; 265  : {

  00000	55		 push	 ebp
  00001	8b ec		 mov	 ebp, esp

; 266  : #ifdef __WORLDSERVER
; 267  : #ifndef __PARTYDEBUG
; 268  : 	if( (nTotalLevel / nMemberSize) - nDeadLeavel < 5 )

  00003	8b 45 08	 mov	 eax, DWORD PTR _nTotalLevel$[ebp]
  00006	99		 cdq
  00007	f7 7d 0c	 idiv	 DWORD PTR _nMemberSize$[ebp]
  0000a	53		 push	 ebx
  0000b	2b 45 10	 sub	 eax, DWORD PTR _nDeadLeavel$[ebp]
  0000e	8b d9		 mov	 ebx, ecx
  00010	83 f8 05	 cmp	 eax, 5
  00013	0f 8d 96 00 00
	00		 jge	 $LN7@GetPoint

; 269  : #endif // __PARTYDEBUG
; 270  : 	{
; 271  : 		BOOL bExpResult = TRUE;
; 272  : 		BOOL bSuperLeader = FALSE;

  00019	56		 push	 esi
  0001a	33 f6		 xor	 esi, esi
  0001c	57		 push	 edi
  0001d	bf 01 00 00 00	 mov	 edi, 1

; 273  : #if __VER >= 12 // __JHMA_VER12_1	//12Â÷ ±Ř´ÜŔŻ·áľĆŔĚĹŰ
; 274  : 		BOOL bLeaderSMExpUp = FALSE;
; 275  : #endif // //12Â÷ ±Ř´ÜŔŻ·áľĆŔĚĹŰ
; 276  : 		if( m_nKindTroup == 0 && m_nLevel >= MAX_PARTYLEVEL )

  00022	39 b3 e4 01 00
	00		 cmp	 DWORD PTR [ebx+484], esi
  00028	75 0c		 jne	 SHORT $LN3@GetPoint
  0002a	33 c0		 xor	 eax, eax
  0002c	83 bb d0 01 00
	00 0a		 cmp	 DWORD PTR [ebx+464], 10	; 0000000aH
  00033	0f 4d f8	 cmovge	 edi, eax
$LN3@GetPoint:

; 277  : 			bExpResult = FALSE;
; 278  : 
; 279  : 		CMover* pMover = GetLeader();

  00036	e8 00 00 00 00	 call	 ?GetLeader@CParty@@QAEPAVCMover@@XZ ; CParty::GetLeader
  0003b	89 45 08	 mov	 DWORD PTR _pMover$1$[ebp], eax

; 280  : 		if( pMover && pMover->HasBuff( BUFF_ITEM, II_SYS_SYS_SCR_SUPERLEADERPARTY ) )

  0003e	85 c0		 test	 eax, eax
  00040	74 54		 je	 SHORT $LN10@GetPoint
  00042	68 58 66 00 00	 push	 26200			; 00006658H
  00047	6a 00		 push	 0
  00049	8b c8		 mov	 ecx, eax
  0004b	e8 00 00 00 00	 call	 ?HasBuff@CMover@@QAEHGG@Z ; CMover::HasBuff

; 281  : 		{
; 282  : 			bSuperLeader = TRUE;
; 283  : 		}
; 284  : #if __VER >= 12 // __JHMA_VER12_1	//12Â÷ ±Ř´ÜŔŻ·áľĆŔĚĹŰ
; 285  : 		#define II_SYS_SYS_SCR_PARTYEXPUP01_01 20296
; 286  : 		#define II_SYS_SYS_SCR_PARTYSKILLUP01_01 20297
; 287  : 		if( pMover && ( pMover->HasBuff( BUFF_ITEM2, II_SYS_SYS_SCR_PARTYEXPUP01 ) || pMover->HasBuff( BUFF_ITEM2, II_SYS_SYS_SCR_PARTYEXPUP02 )

  00050	8b 4d 08	 mov	 ecx, DWORD PTR _pMover$1$[ebp]
  00053	f7 d8		 neg	 eax
  00055	68 a9 67 00 00	 push	 26537			; 000067a9H
  0005a	1b f6		 sbb	 esi, esi
  0005c	6a 03		 push	 3
  0005e	f7 de		 neg	 esi
  00060	e8 00 00 00 00	 call	 ?HasBuff@CMover@@QAEHGG@Z ; CMover::HasBuff
  00065	85 c0		 test	 eax, eax
  00067	75 26		 jne	 SHORT $LN6@GetPoint
  00069	8b 4d 08	 mov	 ecx, DWORD PTR _pMover$1$[ebp]
  0006c	68 aa 67 00 00	 push	 26538			; 000067aaH
  00071	6a 03		 push	 3
  00073	e8 00 00 00 00	 call	 ?HasBuff@CMover@@QAEHGG@Z ; CMover::HasBuff
  00078	85 c0		 test	 eax, eax
  0007a	75 13		 jne	 SHORT $LN6@GetPoint
  0007c	8b 4d 08	 mov	 ecx, DWORD PTR _pMover$1$[ebp]
  0007f	68 48 4f 00 00	 push	 20296			; 00004f48H
  00084	6a 03		 push	 3
  00086	e8 00 00 00 00	 call	 ?HasBuff@CMover@@QAEHGG@Z ; CMover::HasBuff
  0008b	85 c0		 test	 eax, eax
  0008d	74 07		 je	 SHORT $LN10@GetPoint
$LN6@GetPoint:

; 288  : 			 || pMover->HasBuff( BUFF_ITEM2, II_SYS_SYS_SCR_PARTYEXPUP01_01 ) ) )
; 289  : 		{
; 290  : 			bLeaderSMExpUp = TRUE;

  0008f	b8 01 00 00 00	 mov	 eax, 1
  00094	eb 02		 jmp	 SHORT $LN5@GetPoint
$LN10@GetPoint:

; 291  : 		}
; 292  : #endif // //12Â÷ ±Ř´ÜŔŻ·áľĆŔĚĹŰ
; 293  : 
; 294  : 		if( bExpResult )

  00096	33 c0		 xor	 eax, eax
$LN5@GetPoint:
  00098	85 ff		 test	 edi, edi
  0009a	74 11		 je	 SHORT $LN17@GetPoint

; 295  : #if __VER >= 12 // __JHMA_VER12_1	//12Â÷ ±Ř´ÜŔŻ·áľĆŔĚĹŰ
; 296  : 			g_DPCoreClient.SendAddPartyExp( m_uPartyId, nDeadLeavel, bSuperLeader , bLeaderSMExpUp );

  0009c	50		 push	 eax
  0009d	56		 push	 esi
  0009e	ff 75 10	 push	 DWORD PTR _nDeadLeavel$[ebp]
  000a1	b9 00 00 00 00	 mov	 ecx, OFFSET ?g_DPCoreClient@@3VCDPCoreClient@@A ; g_DPCoreClient
  000a6	ff 33		 push	 DWORD PTR [ebx]
  000a8	e8 00 00 00 00	 call	 ?SendAddPartyExp@CDPCoreClient@@QAEXKHHH@Z ; CDPCoreClient::SendAddPartyExp
$LN17@GetPoint:
  000ad	5f		 pop	 edi
  000ae	5e		 pop	 esi
$LN7@GetPoint:
  000af	5b		 pop	 ebx

; 297  : #else // //12Â÷ ±Ř´ÜŔŻ·áľĆŔĚĹŰ
; 298  : 			g_DPCoreClient.SendAddPartyExp( m_uPartyId, nDeadLeavel, bSuperLeader );
; 299  : #endif // //12Â÷ ±Ř´ÜŔŻ·áľĆŔĚĹŰ
; 300  : 	}
; 301  : #endif // __WORLDSERVER
; 302  : }

  000b0	5d		 pop	 ebp
  000b1	c2 0c 00	 ret	 12			; 0000000cH
?GetPoint@CParty@@QAEXHHH@Z ENDP			; CParty::GetPoint
_TEXT	ENDS
; Function compile flags: /Ogtp
; File C:\IAGOS\server\v18\Source\Source\_common\party.cpp
; File C:\IAGOS\server\v18\Source\Source\_Common\Obj.h
; File C:\IAGOS\server\v18\Source\Source\_common\party.cpp
;	COMDAT ?DoDuelPartyCancel@CParty@@QAEXPAV1@@Z
_TEXT	SEGMENT
tv279 = -4						; size = 4
_pDuelParty$ = 8					; size = 4
?DoDuelPartyCancel@CParty@@QAEXPAV1@@Z PROC		; CParty::DoDuelPartyCancel, COMDAT
; _this$ = ecx

; 710  : {

  00000	55		 push	 ebp
  00001	8b ec		 mov	 ebp, esp
  00003	51		 push	 ecx
  00004	53		 push	 ebx
  00005	57		 push	 edi
  00006	8b f9		 mov	 edi, ecx

; 711  : #ifndef __CORESERVER
; 712  : 	int		i;
; 713  : 	
; 714  : 	CMover *pMember;
; 715  : 	for( i = 0; i < m_nSizeofMember; i ++ )		// ±Ř´Üżř ¸đµÎżˇ°Ô µŕľó ÇŘÁ¦¸¦ ĽĽĆĂÇĎ°í Ĺ¬¶óżˇµµ ľË¸˛.

  00008	33 db		 xor	 ebx, ebx
  0000a	39 9f cc 01 00
	00		 cmp	 DWORD PTR [edi+460], ebx
  00010	0f 8e 81 00 00
	00		 jle	 $LN21@DoDuelPart
  00016	8d 47 28	 lea	 eax, DWORD PTR [edi+40]
  00019	89 45 fc	 mov	 DWORD PTR tv279[ebp], eax
  0001c	56		 push	 esi
  0001d	0f 1f 00	 npad	 3
$LL4@DoDuelPart:

; 716  : 	{
; 717  : #ifdef __WORLDSERVER
; 718  : 		pMember	= (CMover *)g_UserMng.GetUserByPlayerID( m_aMember[i].m_uPlayerId );

  00020	ff 30		 push	 DWORD PTR [eax]
  00022	b9 00 00 00 00	 mov	 ecx, OFFSET ?g_UserMng@@3VCUserMng@@A ; g_UserMng
  00027	e8 00 00 00 00	 call	 ?GetUserByPlayerID@CUserMng@@QAEPAVCUser@@K@Z ; CUserMng::GetUserByPlayerID
  0002c	8b f0		 mov	 esi, eax
; File C:\IAGOS\server\v18\Source\Source\_Common\Obj.h

; 327  : 	return pObj && ( pObj->IsDelete() == FALSE ); 

  0002e	85 f6		 test	 esi, esi
  00030	74 40		 je	 SHORT $LN2@DoDuelPart

; 180  : 	BOOL			IsDelete()	{ return (m_dwFlags & OBJ_FLAG_DELETE);  }

  00032	f6 46 04 01	 test	 BYTE PTR [esi+4], 1

; 327  : 	return pObj && ( pObj->IsDelete() == FALSE ); 

  00036	75 3a		 jne	 SHORT $LN2@DoDuelPart
; File C:\IAGOS\server\v18\Source\Source\_common\party.cpp

; 731  : 			if( pMember->m_idDuelParty != m_idDuelParty )

  00038	ff 75 08	 push	 DWORD PTR _pDuelParty$[ebp]
  0003b	8b ce		 mov	 ecx, esi
  0003d	e8 00 00 00 00	 call	 ?AddDuelPartyCancel@CUser@@QAEXPAVCParty@@@Z ; CUser::AddDuelPartyCancel
  00042	8b 86 44 07 00
	00		 mov	 eax, DWORD PTR [esi+1860]
  00048	8b 8f 04 02 00
	00		 mov	 ecx, DWORD PTR [edi+516]
  0004e	3b c1		 cmp	 eax, ecx
  00050	74 19		 je	 SHORT $LN8@DoDuelPart

; 732  : 				Error( "CParty::DoDuelPartyCancel : ĆÄĆĽ¸âąö %sŔÇ Á¤ş¸ŔĚ»ó. %d %d", pMember->GetName(), pMember->m_idDuelParty, m_idDuelParty );

  00052	51		 push	 ecx
  00053	50		 push	 eax
  00054	6a 00		 push	 0
  00056	8b ce		 mov	 ecx, esi
  00058	e8 00 00 00 00	 call	 ?GetName@CMover@@QAEPBDH@Z ; CMover::GetName
  0005d	50		 push	 eax
  0005e	68 00 00 00 00	 push	 OFFSET ??_C@_0DK@NMCIPFLI@CParty?3?3DoDuelPartyCancel?5?3?5?F?D?F@
  00063	e8 00 00 00 00	 call	 ?Error@@YAPBDPBDZZ	; Error
  00068	83 c4 10	 add	 esp, 16			; 00000010H
$LN8@DoDuelPart:

; 733  : 			pMember->ClearDuelParty();

  0006b	8b ce		 mov	 ecx, esi
  0006d	e8 00 00 00 00	 call	 ?ClearDuelParty@CMover@@QAEXXZ ; CMover::ClearDuelParty
$LN2@DoDuelPart:

; 711  : #ifndef __CORESERVER
; 712  : 	int		i;
; 713  : 	
; 714  : 	CMover *pMember;
; 715  : 	for( i = 0; i < m_nSizeofMember; i ++ )		// ±Ř´Üżř ¸đµÎżˇ°Ô µŕľó ÇŘÁ¦¸¦ ĽĽĆĂÇĎ°í Ĺ¬¶óżˇµµ ľË¸˛.

  00072	8b 45 fc	 mov	 eax, DWORD PTR tv279[ebp]
  00075	43		 inc	 ebx
  00076	83 c0 1c	 add	 eax, 28			; 0000001cH
  00079	89 45 fc	 mov	 DWORD PTR tv279[ebp], eax
  0007c	3b 9f cc 01 00
	00		 cmp	 ebx, DWORD PTR [edi+460]
  00082	7c 9c		 jl	 SHORT $LL4@DoDuelPart
  00084	5e		 pop	 esi

; 734  : #endif // worldserver
; 735  : 		}
; 736  : 	}
; 737  : 	m_idDuelParty = 0;		// ĆÄĆĽ ÇŘÁ¦

  00085	c7 87 04 02 00
	00 00 00 00 00	 mov	 DWORD PTR [edi+516], 0
  0008f	5f		 pop	 edi

; 738  : #endif	// __CORESERVER
; 739  : }	

  00090	5b		 pop	 ebx
  00091	8b e5		 mov	 esp, ebp
  00093	5d		 pop	 ebp
  00094	c2 04 00	 ret	 4
$LN21@DoDuelPart:

; 734  : #endif // worldserver
; 735  : 		}
; 736  : 	}
; 737  : 	m_idDuelParty = 0;		// ĆÄĆĽ ÇŘÁ¦

  00097	89 9f 04 02 00
	00		 mov	 DWORD PTR [edi+516], ebx
  0009d	5f		 pop	 edi

; 738  : #endif	// __CORESERVER
; 739  : }	

  0009e	5b		 pop	 ebx
  0009f	8b e5		 mov	 esp, ebp
  000a1	5d		 pop	 ebp
  000a2	c2 04 00	 ret	 4
?DoDuelPartyCancel@CParty@@QAEXPAV1@@Z ENDP		; CParty::DoDuelPartyCancel
_TEXT	ENDS
; Function compile flags: /Ogtp
; File C:\IAGOS\server\v18\Source\Source\_common\party.cpp
; File C:\IAGOS\server\v18\Source\Source\_Common\Obj.h
; File C:\IAGOS\server\v18\Source\Source\_common\party.cpp
; File C:\IAGOS\server\v18\Source\Source\_Common\Obj.h
; File C:\IAGOS\server\v18\Source\Source\_common\party.cpp
; File C:\IAGOS\server\v18\Source\Source\_Common\Obj.h
; File C:\IAGOS\server\v18\Source\Source\_common\party.cpp
; File C:\Program Files\Microsoft Visual Studio\2022\Professional\VC\Tools\MSVC\14.44.35207\atlmfc\include\atltypes.h
; File C:\IAGOS\server\v18\Source\Source\_Common\Obj.h
; File C:\Program Files\Microsoft Visual Studio\2022\Professional\VC\Tools\MSVC\14.44.35207\atlmfc\include\atltypes.h
; File C:\IAGOS\server\v18\Source\Source\_common\party.cpp
; File C:\IAGOS\server\v18\Source\Source\_Common\Obj.h
; File C:\IAGOS\server\v18\Source\Source\_common\party.cpp
; File C:\IAGOS\server\v18\Source\Source\_Common\Obj.h
; File C:\IAGOS\server\v18\Source\Source\_common\party.cpp
; File C:\IAGOS\server\v18\Source\Source\_Common\Obj.h
; File C:\IAGOS\server\v18\Source\Source\_common\party.cpp
;	COMDAT ?ReplaceLodestar@CParty@@QAEXABVCRect@@@Z
_TEXT	SEGMENT
$T1 = -52						; size = 12
$T2 = -40						; size = 12
_this$GSCopy$1$ = -28					; size = 4
_rect$GSCopy$1$ = -24					; size = 4
tv285 = -20						; size = 4
$T3 = -16						; size = 12
__$ArrayPad$ = -4					; size = 4
_rect$ = 8						; size = 4
?ReplaceLodestar@CParty@@QAEXABVCRect@@@Z PROC		; CParty::ReplaceLodestar, COMDAT
; _this$ = ecx

; 743  : {

  00000	55		 push	 ebp
  00001	8b ec		 mov	 ebp, esp
  00003	83 ec 34	 sub	 esp, 52			; 00000034H
  00006	a1 00 00 00 00	 mov	 eax, DWORD PTR ___security_cookie
  0000b	33 c5		 xor	 eax, ebp
  0000d	89 45 fc	 mov	 DWORD PTR __$ArrayPad$[ebp], eax
  00010	8b c1		 mov	 eax, ecx
  00012	8b 4d 08	 mov	 ecx, DWORD PTR _rect$[ebp]
  00015	53		 push	 ebx

; 744  : 	// locked
; 745  : 	CUser* pUser;
; 746  : 	for( int i = 0; i < m_nSizeofMember; i ++ )		// ±Ř´Üżř ¸đµÎżˇ°Ô µŕľó ÇŘÁ¦¸¦ ĽĽĆĂÇĎ°í Ĺ¬¶óżˇµµ ľË¸˛.

  00016	33 db		 xor	 ebx, ebx
  00018	89 45 e4	 mov	 DWORD PTR _this$GSCopy$1$[ebp], eax
  0001b	89 4d e8	 mov	 DWORD PTR _rect$GSCopy$1$[ebp], ecx
  0001e	39 98 cc 01 00
	00		 cmp	 DWORD PTR [eax+460], ebx
  00024	0f 8e f6 00 00
	00		 jle	 $LN3@ReplaceLod

; 743  : {

  0002a	83 c0 28	 add	 eax, 40			; 00000028H
  0002d	56		 push	 esi
  0002e	89 45 ec	 mov	 DWORD PTR tv285[ebp], eax
  00031	57		 push	 edi
$LL4@ReplaceLod:

; 747  : 	{
; 748  : 		pUser	= g_UserMng.GetUserByPlayerID( m_aMember[i].m_uPlayerId );

  00032	ff 30		 push	 DWORD PTR [eax]
  00034	b9 00 00 00 00	 mov	 ecx, OFFSET ?g_UserMng@@3VCUserMng@@A ; g_UserMng
  00039	e8 00 00 00 00	 call	 ?GetUserByPlayerID@CUserMng@@QAEPAVCUser@@K@Z ; CUserMng::GetUserByPlayerID
  0003e	8b f0		 mov	 esi, eax
; File C:\IAGOS\server\v18\Source\Source\_Common\Obj.h

; 327  : 	return pObj && ( pObj->IsDelete() == FALSE ); 

  00040	85 f6		 test	 esi, esi
  00042	0f 84 bd 00 00
	00		 je	 $LN2@ReplaceLod

; 180  : 	BOOL			IsDelete()	{ return (m_dwFlags & OBJ_FLAG_DELETE);  }

  00048	f6 46 04 01	 test	 BYTE PTR [esi+4], 1

; 327  : 	return pObj && ( pObj->IsDelete() == FALSE ); 

  0004c	0f 85 b3 00 00
	00		 jne	 $LN2@ReplaceLod
; File C:\IAGOS\server\v18\Source\Source\_common\party.cpp

; 753  : 			if( pWorld )

  00052	8b be 6c 01 00
	00		 mov	 edi, DWORD PTR [esi+364]
  00058	85 ff		 test	 edi, edi
  0005a	0f 84 a5 00 00
	00		 je	 $LN2@ReplaceLod
; File C:\IAGOS\server\v18\Source\Source\_Common\Obj.h

; 215  : 	D3DXVECTOR3		GetPos()	{ return m_vPos; }

  00060	8b 86 68 01 00
	00		 mov	 eax, DWORD PTR [esi+360]
  00066	f3 0f 7e 86 60
	01 00 00	 movq	 xmm0, QWORD PTR [esi+352]
  0006e	89 45 d4	 mov	 DWORD PTR $T1[ebp+8], eax
; File C:\IAGOS\server\v18\Source\Source\_common\party.cpp

; 755  : 				POINT point	= { (int)pUser->GetPos().x, (int)pUser->GetPos().z	};

  00071	f3 0f 2c 45 d4	 cvttss2si eax, DWORD PTR $T1[ebp+8]
; File C:\IAGOS\server\v18\Source\Source\_Common\Obj.h

; 215  : 	D3DXVECTOR3		GetPos()	{ return m_vPos; }

  00076	66 0f d6 45 d8	 movq	 QWORD PTR $T2[ebp], xmm0
  0007b	f3 0f 7e c0	 movq	 xmm0, xmm0
; File C:\IAGOS\server\v18\Source\Source\_common\party.cpp

; 755  : 				POINT point	= { (int)pUser->GetPos().x, (int)pUser->GetPos().z	};

  0007f	f3 0f 2c 4d d8	 cvttss2si ecx, DWORD PTR $T2[ebp]
; File C:\Program Files\Microsoft Visual Studio\2022\Professional\VC\Tools\MSVC\14.44.35207\atlmfc\include\atltypes.h

; 652  : 	return ::PtInRect(this, point);

  00084	50		 push	 eax
; File C:\IAGOS\server\v18\Source\Source\_Common\Obj.h

; 215  : 	D3DXVECTOR3		GetPos()	{ return m_vPos; }

  00085	66 0f d6 45 cc	 movq	 QWORD PTR $T1[ebp], xmm0
; File C:\Program Files\Microsoft Visual Studio\2022\Professional\VC\Tools\MSVC\14.44.35207\atlmfc\include\atltypes.h

; 652  : 	return ::PtInRect(this, point);

  0008a	51		 push	 ecx
  0008b	ff 75 e8	 push	 DWORD PTR _rect$GSCopy$1$[ebp]
  0008e	ff 15 00 00 00
	00		 call	 DWORD PTR __imp__PtInRect@12
; File C:\IAGOS\server\v18\Source\Source\_common\party.cpp

; 756  : 				if( rect.PtInRect( point ) )

  00094	85 c0		 test	 eax, eax
  00096	74 6d		 je	 SHORT $LN2@ReplaceLod

; 757  : 				{
; 758  : 					PRegionElem pRgnElem	= NULL;
; 759  : 					if( pWorld->GetID() != pWorld->m_dwIdWorldRevival && pWorld->m_dwIdWorldRevival != 0 )

  00098	8b 8f 00 93 08
	00		 mov	 ecx, DWORD PTR [edi+561920]
  0009e	39 0f		 cmp	 DWORD PTR [edi], ecx
  000a0	74 1c		 je	 SHORT $LN31@ReplaceLod
  000a2	85 c9		 test	 ecx, ecx
  000a4	74 18		 je	 SHORT $LN31@ReplaceLod

; 760  : 						pRgnElem	= g_WorldMng.GetRevivalPos( pWorld->m_dwIdWorldRevival, pWorld->m_szKeyRevival );

  000a6	8d 87 e0 92 08
	00		 lea	 eax, DWORD PTR [edi+561888]
  000ac	50		 push	 eax
  000ad	51		 push	 ecx
  000ae	b9 00 00 00 00	 mov	 ecx, OFFSET ?g_WorldMng@@3VCWorldMng@@A ; g_WorldMng
  000b3	e8 00 00 00 00	 call	 ?GetRevivalPos@CWorldMng@@QAEPAUREGIONELEM@@KPBD@Z ; CWorldMng::GetRevivalPos
  000b8	8b c8		 mov	 ecx, eax

; 761  : 					if( !pRgnElem )	// Find near revival pos

  000ba	85 c9		 test	 ecx, ecx
  000bc	75 2c		 jne	 SHORT $LN30@ReplaceLod
$LN31@ReplaceLod:
; File C:\IAGOS\server\v18\Source\Source\_Common\Obj.h

; 215  : 	D3DXVECTOR3		GetPos()	{ return m_vPos; }

  000be	8b 86 68 01 00
	00		 mov	 eax, DWORD PTR [esi+360]
; File C:\IAGOS\server\v18\Source\Source\_common\party.cpp

; 762  : 						pRgnElem	= g_WorldMng.GetNearRevivalPos( pWorld->GetID(), pUser->GetPos() );

  000c4	b9 00 00 00 00	 mov	 ecx, OFFSET ?g_WorldMng@@3VCWorldMng@@A ; g_WorldMng
; File C:\IAGOS\server\v18\Source\Source\_Common\Obj.h

; 215  : 	D3DXVECTOR3		GetPos()	{ return m_vPos; }

  000c9	f3 0f 7e 86 60
	01 00 00	 movq	 xmm0, QWORD PTR [esi+352]
  000d1	89 45 f8	 mov	 DWORD PTR $T3[ebp+8], eax
; File C:\IAGOS\server\v18\Source\Source\_common\party.cpp

; 762  : 						pRgnElem	= g_WorldMng.GetNearRevivalPos( pWorld->GetID(), pUser->GetPos() );

  000d4	8d 45 f0	 lea	 eax, DWORD PTR $T3[ebp]
  000d7	50		 push	 eax
  000d8	ff 37		 push	 DWORD PTR [edi]
; File C:\IAGOS\server\v18\Source\Source\_Common\Obj.h

; 215  : 	D3DXVECTOR3		GetPos()	{ return m_vPos; }

  000da	66 0f d6 45 f0	 movq	 QWORD PTR $T3[ebp], xmm0
; File C:\IAGOS\server\v18\Source\Source\_common\party.cpp

; 762  : 						pRgnElem	= g_WorldMng.GetNearRevivalPos( pWorld->GetID(), pUser->GetPos() );

  000df	e8 00 00 00 00	 call	 ?GetNearRevivalPos@CWorldMng@@QAEPAUREGIONELEM@@KAAUD3DXVECTOR3@@@Z ; CWorldMng::GetNearRevivalPos
  000e4	8b c8		 mov	 ecx, eax

; 763  : 					if( pRgnElem )

  000e6	85 c9		 test	 ecx, ecx
  000e8	74 1b		 je	 SHORT $LN2@ReplaceLod
$LN30@ReplaceLod:

; 764  : 						pUser->REPLACE( g_uIdofMulti, pRgnElem->m_dwWorldId, pRgnElem->m_vPos, REPLACE_NORMAL, nRevivalLayer );

  000ea	6a 00		 push	 0
  000ec	6a 00		 push	 0
  000ee	8d 41 10	 lea	 eax, DWORD PTR [ecx+16]
  000f1	50		 push	 eax
  000f2	ff b1 c0 02 00
	00		 push	 DWORD PTR [ecx+704]
  000f8	8b ce		 mov	 ecx, esi
  000fa	ff 35 00 00 00
	00		 push	 DWORD PTR ?g_uIdofMulti@@3KA ; g_uIdofMulti
  00100	e8 00 00 00 00	 call	 ?Replace@CMover@@QAEHKKAAUD3DXVECTOR3@@W4REPLACE_TYPE@@H@Z ; CMover::Replace
$LN2@ReplaceLod:

; 744  : 	// locked
; 745  : 	CUser* pUser;
; 746  : 	for( int i = 0; i < m_nSizeofMember; i ++ )		// ±Ř´Üżř ¸đµÎżˇ°Ô µŕľó ÇŘÁ¦¸¦ ĽĽĆĂÇĎ°í Ĺ¬¶óżˇµµ ľË¸˛.

  00105	8b 4d e4	 mov	 ecx, DWORD PTR _this$GSCopy$1$[ebp]
  00108	43		 inc	 ebx
  00109	8b 45 ec	 mov	 eax, DWORD PTR tv285[ebp]
  0010c	83 c0 1c	 add	 eax, 28			; 0000001cH
  0010f	89 45 ec	 mov	 DWORD PTR tv285[ebp], eax
  00112	3b 99 cc 01 00
	00		 cmp	 ebx, DWORD PTR [ecx+460]
  00118	0f 8c 14 ff ff
	ff		 jl	 $LL4@ReplaceLod
  0011e	5f		 pop	 edi
  0011f	5e		 pop	 esi
$LN3@ReplaceLod:

; 765  : 				}
; 766  : 			}
; 767  : 		}
; 768  : 	}
; 769  : }

  00120	8b 4d fc	 mov	 ecx, DWORD PTR __$ArrayPad$[ebp]
  00123	33 cd		 xor	 ecx, ebp
  00125	5b		 pop	 ebx
  00126	e8 00 00 00 00	 call	 @__security_check_cookie@4
  0012b	8b e5		 mov	 esp, ebp
  0012d	5d		 pop	 ebp
  0012e	c2 04 00	 ret	 4
?ReplaceLodestar@CParty@@QAEXABVCRect@@@Z ENDP		; CParty::ReplaceLodestar
_TEXT	ENDS
; Function compile flags: /Ogtp
; File C:\IAGOS\server\v18\Source\Source\_common\party.cpp
; File C:\IAGOS\server\v18\Source\Source\_Common\Obj.h
; File C:\IAGOS\server\v18\Source\Source\_common\party.cpp
;	COMDAT ?ReplaceChkLv@CParty@@QAEHH@Z
_TEXT	SEGMENT
_Lv$ = 8						; size = 4
?ReplaceChkLv@CParty@@QAEHH@Z PROC			; CParty::ReplaceChkLv, COMDAT
; _this$ = ecx

; 817  : {

  00000	55		 push	 ebp
  00001	8b ec		 mov	 ebp, esp
  00003	53		 push	 ebx
  00004	8b d9		 mov	 ebx, ecx
  00006	56		 push	 esi

; 818  : 	CUser *pMember;
; 819  : 	for( int i = 0; i < m_nSizeofMember; i ++ )		// ±Ř´Üżř ¸đµÎżˇ°Ô µŕľó ÇŘÁ¦¸¦ ĽĽĆĂÇĎ°í Ĺ¬¶óżˇµµ ľË¸˛.

  00007	33 f6		 xor	 esi, esi
  00009	57		 push	 edi
  0000a	39 b3 cc 01 00
	00		 cmp	 DWORD PTR [ebx+460], esi
  00010	7e 3b		 jle	 SHORT $LN17@ReplaceChk
  00012	8d 7b 28	 lea	 edi, DWORD PTR [ebx+40]
  00015	66 66 66 0f 1f
	84 00 00 00 00
	00		 npad	 11
$LL4@ReplaceChk:

; 820  : 	{
; 821  : 		pMember	= g_UserMng.GetUserByPlayerID( m_aMember[i].m_uPlayerId );

  00020	ff 37		 push	 DWORD PTR [edi]
  00022	b9 00 00 00 00	 mov	 ecx, OFFSET ?g_UserMng@@3VCUserMng@@A ; g_UserMng
  00027	e8 00 00 00 00	 call	 ?GetUserByPlayerID@CUserMng@@QAEPAVCUser@@K@Z ; CUserMng::GetUserByPlayerID
; File C:\IAGOS\server\v18\Source\Source\_Common\Obj.h

; 327  : 	return pObj && ( pObj->IsDelete() == FALSE ); 

  0002c	85 c0		 test	 eax, eax
  0002e	74 11		 je	 SHORT $LN2@ReplaceChk

; 180  : 	BOOL			IsDelete()	{ return (m_dwFlags & OBJ_FLAG_DELETE);  }

  00030	f6 40 04 01	 test	 BYTE PTR [eax+4], 1

; 327  : 	return pObj && ( pObj->IsDelete() == FALSE ); 

  00034	75 0b		 jne	 SHORT $LN2@ReplaceChk
; File C:\IAGOS\server\v18\Source\Source\_common\party.cpp

; 825  : 			if( pMember->GetLevel() > Lv )

  00036	8b 4d 08	 mov	 ecx, DWORD PTR _Lv$[ebp]
  00039	39 88 d8 05 00
	00		 cmp	 DWORD PTR [eax+1496], ecx
  0003f	7f 18		 jg	 SHORT $LN15@ReplaceChk
$LN2@ReplaceChk:

; 818  : 	CUser *pMember;
; 819  : 	for( int i = 0; i < m_nSizeofMember; i ++ )		// ±Ř´Üżř ¸đµÎżˇ°Ô µŕľó ÇŘÁ¦¸¦ ĽĽĆĂÇĎ°í Ĺ¬¶óżˇµµ ľË¸˛.

  00041	46		 inc	 esi
  00042	83 c7 1c	 add	 edi, 28			; 0000001cH
  00045	3b b3 cc 01 00
	00		 cmp	 esi, DWORD PTR [ebx+460]
  0004b	7c d3		 jl	 SHORT $LL4@ReplaceChk
$LN17@ReplaceChk:
  0004d	5f		 pop	 edi

; 826  : 			{
; 827  : 				return FALSE;
; 828  : 			}
; 829  : 		}
; 830  : 	}
; 831  : 
; 832  : 	return TRUE;
; 833  : }

  0004e	5e		 pop	 esi
  0004f	b8 01 00 00 00	 mov	 eax, 1
  00054	5b		 pop	 ebx
  00055	5d		 pop	 ebp
  00056	c2 04 00	 ret	 4
$LN15@ReplaceChk:
  00059	5f		 pop	 edi
  0005a	5e		 pop	 esi
  0005b	33 c0		 xor	 eax, eax
  0005d	5b		 pop	 ebx
  0005e	5d		 pop	 ebp
  0005f	c2 04 00	 ret	 4
?ReplaceChkLv@CParty@@QAEHH@Z ENDP			; CParty::ReplaceChkLv
_TEXT	ENDS
; Function compile flags: /Ogtp
; File C:\IAGOS\server\v18\Source\Source\_common\party.cpp
; File C:\IAGOS\server\v18\Source\Source\_Common\Obj.h
; File C:\IAGOS\server\v18\Source\Source\_common\party.cpp
;	COMDAT ?Replace@CParty@@QAEXKPBD@Z
_TEXT	SEGMENT
_this$1$ = -4						; size = 4
_dwWorldId$ = 8						; size = 4
_sKey$ = 12						; size = 4
?Replace@CParty@@QAEXKPBD@Z PROC			; CParty::Replace, COMDAT
; _this$ = ecx

; 801  : {

  00000	55		 push	 ebp
  00001	8b ec		 mov	 ebp, esp
  00003	51		 push	 ecx
  00004	8b c1		 mov	 eax, ecx
  00006	56		 push	 esi

; 802  : 	CUser *pMember;
; 803  : 	for( int i = 0; i < m_nSizeofMember; i ++ )		// ±Ř´Üżř ¸đµÎżˇ°Ô µŕľó ÇŘÁ¦¸¦ ĽĽĆĂÇĎ°í Ĺ¬¶óżˇµµ ľË¸˛.

  00007	33 f6		 xor	 esi, esi
  00009	89 45 fc	 mov	 DWORD PTR _this$1$[ebp], eax
  0000c	39 b0 cc 01 00
	00		 cmp	 DWORD PTR [eax+460], esi
  00012	7e 64		 jle	 SHORT $LN3@Replace
  00014	53		 push	 ebx
  00015	57		 push	 edi
  00016	8d 78 28	 lea	 edi, DWORD PTR [eax+40]
  00019	0f 1f 80 00 00
	00 00		 npad	 7
$LL4@Replace:

; 804  : 	{
; 805  : 		pMember	= g_UserMng.GetUserByPlayerID( m_aMember[i].m_uPlayerId );

  00020	ff 37		 push	 DWORD PTR [edi]
  00022	b9 00 00 00 00	 mov	 ecx, OFFSET ?g_UserMng@@3VCUserMng@@A ; g_UserMng
  00027	e8 00 00 00 00	 call	 ?GetUserByPlayerID@CUserMng@@QAEPAVCUser@@K@Z ; CUserMng::GetUserByPlayerID
  0002c	8b d8		 mov	 ebx, eax
; File C:\IAGOS\server\v18\Source\Source\_Common\Obj.h

; 327  : 	return pObj && ( pObj->IsDelete() == FALSE ); 

  0002e	85 db		 test	 ebx, ebx
  00030	74 35		 je	 SHORT $LN2@Replace

; 180  : 	BOOL			IsDelete()	{ return (m_dwFlags & OBJ_FLAG_DELETE);  }

  00032	f6 43 04 01	 test	 BYTE PTR [ebx+4], 1

; 327  : 	return pObj && ( pObj->IsDelete() == FALSE ); 

  00036	75 2f		 jne	 SHORT $LN2@Replace
; File C:\IAGOS\server\v18\Source\Source\_common\party.cpp

; 809  : 			PRegionElem pRgnElem = g_WorldMng.GetRevivalPos( dwWorldId, sKey );

  00038	ff 75 0c	 push	 DWORD PTR _sKey$[ebp]
  0003b	b9 00 00 00 00	 mov	 ecx, OFFSET ?g_WorldMng@@3VCWorldMng@@A ; g_WorldMng
  00040	ff 75 08	 push	 DWORD PTR _dwWorldId$[ebp]
  00043	e8 00 00 00 00	 call	 ?GetRevivalPos@CWorldMng@@QAEPAUREGIONELEM@@KPBD@Z ; CWorldMng::GetRevivalPos

; 810  : 			if( NULL != pRgnElem )

  00048	85 c0		 test	 eax, eax
  0004a	74 1b		 je	 SHORT $LN2@Replace

; 811  : 				pMember->REPLACE( g_uIdofMulti, pRgnElem->m_dwWorldId, pRgnElem->m_vPos, REPLACE_NORMAL, nRevivalLayer );

  0004c	6a 00		 push	 0
  0004e	6a 00		 push	 0
  00050	8d 48 10	 lea	 ecx, DWORD PTR [eax+16]
  00053	51		 push	 ecx
  00054	ff b0 c0 02 00
	00		 push	 DWORD PTR [eax+704]
  0005a	8b cb		 mov	 ecx, ebx
  0005c	ff 35 00 00 00
	00		 push	 DWORD PTR ?g_uIdofMulti@@3KA ; g_uIdofMulti
  00062	e8 00 00 00 00	 call	 ?Replace@CMover@@QAEHKKAAUD3DXVECTOR3@@W4REPLACE_TYPE@@H@Z ; CMover::Replace
$LN2@Replace:

; 802  : 	CUser *pMember;
; 803  : 	for( int i = 0; i < m_nSizeofMember; i ++ )		// ±Ř´Üżř ¸đµÎżˇ°Ô µŕľó ÇŘÁ¦¸¦ ĽĽĆĂÇĎ°í Ĺ¬¶óżˇµµ ľË¸˛.

  00067	8b 45 fc	 mov	 eax, DWORD PTR _this$1$[ebp]
  0006a	46		 inc	 esi
  0006b	83 c7 1c	 add	 edi, 28			; 0000001cH
  0006e	3b b0 cc 01 00
	00		 cmp	 esi, DWORD PTR [eax+460]
  00074	7c aa		 jl	 SHORT $LL4@Replace
  00076	5f		 pop	 edi
  00077	5b		 pop	 ebx
$LN3@Replace:
  00078	5e		 pop	 esi

; 812  : 		}
; 813  : 	}
; 814  : }

  00079	8b e5		 mov	 esp, ebp
  0007b	5d		 pop	 ebp
  0007c	c2 08 00	 ret	 8
?Replace@CParty@@QAEXKPBD@Z ENDP			; CParty::Replace
_TEXT	ENDS
; Function compile flags: /Ogtp
; File C:\IAGOS\server\v18\Source\Source\_common\party.cpp
; File C:\IAGOS\server\v18\Source\Source\_Common\Obj.h
; File C:\IAGOS\server\v18\Source\Source\_common\party.cpp
;	COMDAT ?Replace@CParty@@QAEXKAAUD3DXVECTOR3@@H@Z
_TEXT	SEGMENT
_this$1$ = -4						; size = 4
_dwWorldId$ = 8						; size = 4
_vPos$ = 12						; size = 4
_bMasterAround$ = 16					; size = 4
?Replace@CParty@@QAEXKAAUD3DXVECTOR3@@H@Z PROC		; CParty::Replace, COMDAT
; _this$ = ecx

; 772  : {

  00000	55		 push	 ebp
  00001	8b ec		 mov	 ebp, esp
  00003	51		 push	 ecx
  00004	8b c1		 mov	 eax, ecx
  00006	57		 push	 edi

; 773  : 	CUser *pMember;
; 774  : 	for( int i = 0; i < m_nSizeofMember; i ++ )		// ±Ř´Üżř ¸đµÎżˇ°Ô µŕľó ÇŘÁ¦¸¦ ĽĽĆĂÇĎ°í Ĺ¬¶óżˇµµ ľË¸˛.

  00007	33 ff		 xor	 edi, edi
  00009	89 45 fc	 mov	 DWORD PTR _this$1$[ebp], eax
  0000c	39 b8 cc 01 00
	00		 cmp	 DWORD PTR [eax+460], edi
  00012	7e 5b		 jle	 SHORT $LN3@Replace
  00014	53		 push	 ebx
  00015	56		 push	 esi
  00016	8d 58 28	 lea	 ebx, DWORD PTR [eax+40]
  00019	0f 1f 80 00 00
	00 00		 npad	 7
$LL4@Replace:

; 775  : 	{
; 776  : 		pMember	= g_UserMng.GetUserByPlayerID( m_aMember[i].m_uPlayerId );

  00020	ff 33		 push	 DWORD PTR [ebx]
  00022	b9 00 00 00 00	 mov	 ecx, OFFSET ?g_UserMng@@3VCUserMng@@A ; g_UserMng
  00027	e8 00 00 00 00	 call	 ?GetUserByPlayerID@CUserMng@@QAEPAVCUser@@K@Z ; CUserMng::GetUserByPlayerID
  0002c	8b f0		 mov	 esi, eax
; File C:\IAGOS\server\v18\Source\Source\_Common\Obj.h

; 327  : 	return pObj && ( pObj->IsDelete() == FALSE ); 

  0002e	85 f6		 test	 esi, esi
  00030	74 2c		 je	 SHORT $LN2@Replace

; 180  : 	BOOL			IsDelete()	{ return (m_dwFlags & OBJ_FLAG_DELETE);  }

  00032	f6 46 04 01	 test	 BYTE PTR [esi+4], 1

; 327  : 	return pObj && ( pObj->IsDelete() == FALSE ); 

  00036	75 26		 jne	 SHORT $LN2@Replace
; File C:\IAGOS\server\v18\Source\Source\_common\party.cpp

; 790  : 			pMember->REPLACE( g_uIdofMulti, dwWorldId, vPos, REPLACE_NORMAL, nTempLayer );

  00038	6a 00		 push	 0
  0003a	6a 00		 push	 0
  0003c	ff 75 0c	 push	 DWORD PTR _vPos$[ebp]
  0003f	8b ce		 mov	 ecx, esi
  00041	ff 75 08	 push	 DWORD PTR _dwWorldId$[ebp]
  00044	ff 35 00 00 00
	00		 push	 DWORD PTR ?g_uIdofMulti@@3KA ; g_uIdofMulti
  0004a	e8 00 00 00 00	 call	 ?Replace@CMover@@QAEHKKAAUD3DXVECTOR3@@W4REPLACE_TYPE@@H@Z ; CMover::Replace

; 791  : #ifdef __BUFF_1107
; 792  : 			pMember->m_buffs.RemoveBuffs( RBF_COMMON, 0 );

  0004f	6a 00		 push	 0
  00051	6a 01		 push	 1
  00053	8d 8e ec 02 00
	00		 lea	 ecx, DWORD PTR [esi+748]
  00059	e8 00 00 00 00	 call	 ?RemoveBuffs@CBuffMgr@@QAEXKK@Z ; CBuffMgr::RemoveBuffs
$LN2@Replace:

; 773  : 	CUser *pMember;
; 774  : 	for( int i = 0; i < m_nSizeofMember; i ++ )		// ±Ř´Üżř ¸đµÎżˇ°Ô µŕľó ÇŘÁ¦¸¦ ĽĽĆĂÇĎ°í Ĺ¬¶óżˇµµ ľË¸˛.

  0005e	8b 45 fc	 mov	 eax, DWORD PTR _this$1$[ebp]
  00061	47		 inc	 edi
  00062	83 c3 1c	 add	 ebx, 28			; 0000001cH
  00065	3b b8 cc 01 00
	00		 cmp	 edi, DWORD PTR [eax+460]
  0006b	7c b3		 jl	 SHORT $LL4@Replace
  0006d	5e		 pop	 esi
  0006e	5b		 pop	 ebx
$LN3@Replace:
  0006f	5f		 pop	 edi

; 793  : #else	// __BUFF_1107
; 794  : 			pMember->m_SkillState.RemoveAllSkillInfluence();
; 795  : #endif	// __BUFF_1107
; 796  : 		}
; 797  : 	}
; 798  : }

  00070	8b e5		 mov	 esp, ebp
  00072	5d		 pop	 ebp
  00073	c2 0c 00	 ret	 12			; 0000000cH
?Replace@CParty@@QAEXKAAUD3DXVECTOR3@@H@Z ENDP		; CParty::Replace
_TEXT	ENDS
; Function compile flags: /Ogtp
; File C:\IAGOS\server\v18\Source\Source\_common\party.cpp
; File C:\IAGOS\server\v18\Source\Source\_Common\Obj.h
; File C:\IAGOS\server\v18\Source\Source\_common\party.cpp
; File C:\IAGOS\server\v18\Source\Source\_Common\Obj.h
; File C:\IAGOS\server\v18\Source\Source\_common\party.cpp
; File C:\IAGOS\server\v18\Source\Source\_Common\Obj.h
; File C:\IAGOS\server\v18\Source\Source\_common\party.cpp
; File C:\IAGOS\server\v18\Source\Source\_Common\Obj.h
; File C:\IAGOS\server\v18\Source\Source\_common\party.cpp
;	COMDAT ?DoUsePartyReCall@CParty@@QAEXKKH@Z
_TEXT	SEGMENT
_this$GSCopy$1$ = -20					; size = 4
$T1 = -16						; size = 12
__$ArrayPad$ = -4					; size = 4
_uPartyId$ = 8						; size = 4
_uLeaderid$ = 12					; size = 4
_nSkill$ = 16						; size = 4
?DoUsePartyReCall@CParty@@QAEXKKH@Z PROC		; CParty::DoUsePartyReCall, COMDAT
; _this$ = ecx

; 680  : {

  00000	55		 push	 ebp
  00001	8b ec		 mov	 ebp, esp
  00003	83 ec 14	 sub	 esp, 20			; 00000014H
  00006	a1 00 00 00 00	 mov	 eax, DWORD PTR ___security_cookie
  0000b	33 c5		 xor	 eax, ebp
  0000d	89 45 fc	 mov	 DWORD PTR __$ArrayPad$[ebp], eax
  00010	8b 45 0c	 mov	 eax, DWORD PTR _uLeaderid$[ebp]
  00013	53		 push	 ebx
  00014	57		 push	 edi
  00015	8b f9		 mov	 edi, ecx

; 681  : 	CUser* pMember	= NULL;
; 682  : 	int		i;
; 683  : 
; 684  : 	CUser* pUser    = NULL;
; 685  : 	pUser = g_UserMng.GetUserByPlayerID( uLeaderid );

  00017	b9 00 00 00 00	 mov	 ecx, OFFSET ?g_UserMng@@3VCUserMng@@A ; g_UserMng
  0001c	50		 push	 eax
  0001d	89 7d ec	 mov	 DWORD PTR _this$GSCopy$1$[ebp], edi
  00020	e8 00 00 00 00	 call	 ?GetUserByPlayerID@CUserMng@@QAEPAVCUser@@K@Z ; CUserMng::GetUserByPlayerID
  00025	8b d8		 mov	 ebx, eax
; File C:\IAGOS\server\v18\Source\Source\_Common\Obj.h

; 327  : 	return pObj && ( pObj->IsDelete() == FALSE ); 

  00027	85 db		 test	 ebx, ebx
  00029	74 7f		 je	 SHORT $LN3@DoUseParty

; 180  : 	BOOL			IsDelete()	{ return (m_dwFlags & OBJ_FLAG_DELETE);  }

  0002b	f6 43 04 01	 test	 BYTE PTR [ebx+4], 1

; 327  : 	return pObj && ( pObj->IsDelete() == FALSE ); 

  0002f	75 79		 jne	 SHORT $LN3@DoUseParty
; File C:\IAGOS\server\v18\Source\Source\_common\party.cpp

; 689  : 	for( i = 0; i < m_nSizeofMember; i ++ )		// ´ÜŔĺ(0)żˇ°Ô´Â ş¸łľÇĘżä ľř´Ů.

  00031	56		 push	 esi
  00032	33 f6		 xor	 esi, esi
  00034	39 b7 cc 01 00
	00		 cmp	 DWORD PTR [edi+460], esi
  0003a	7e 6d		 jle	 SHORT $LN35@DoUseParty
  0003c	83 c7 28	 add	 edi, 40			; 00000028H
  0003f	90		 npad	 1
$LL4@DoUseParty:

; 690  : 	{
; 691  : 		pMember		= g_UserMng.GetUserByPlayerID( m_aMember[i].m_uPlayerId );

  00040	ff 37		 push	 DWORD PTR [edi]
  00042	b9 00 00 00 00	 mov	 ecx, OFFSET ?g_UserMng@@3VCUserMng@@A ; g_UserMng
  00047	e8 00 00 00 00	 call	 ?GetUserByPlayerID@CUserMng@@QAEPAVCUser@@K@Z ; CUserMng::GetUserByPlayerID
; File C:\IAGOS\server\v18\Source\Source\_Common\Obj.h

; 327  : 	return pObj && ( pObj->IsDelete() == FALSE ); 

  0004c	85 c0		 test	 eax, eax
  0004e	74 4a		 je	 SHORT $LN2@DoUseParty

; 180  : 	BOOL			IsDelete()	{ return (m_dwFlags & OBJ_FLAG_DELETE);  }

  00050	f6 40 04 01	 test	 BYTE PTR [eax+4], 1

; 327  : 	return pObj && ( pObj->IsDelete() == FALSE ); 

  00054	75 44		 jne	 SHORT $LN2@DoUseParty
; File C:\IAGOS\server\v18\Source\Source\_common\party.cpp

; 694  : 			if(pMember->m_idPlayer != pUser->m_idPlayer)

  00056	8b 88 34 02 00
	00		 mov	 ecx, DWORD PTR [eax+564]
  0005c	8b 93 34 02 00
	00		 mov	 edx, DWORD PTR [ebx+564]
  00062	3b ca		 cmp	 ecx, edx
  00064	74 34		 je	 SHORT $LN2@DoUseParty

; 696  : 				g_DPCoreClient.SendSummonPlayer( pUser->m_idPlayer, pUser->GetWorld()->GetID(), pUser->GetPos(), pMember->m_idPlayer, pUser->GetLayer() );

  00066	ff b3 b8 01 00
	00		 push	 DWORD PTR [ebx+440]
; File C:\IAGOS\server\v18\Source\Source\_Common\Obj.h

; 215  : 	D3DXVECTOR3		GetPos()	{ return m_vPos; }

  0006c	8b 83 68 01 00
	00		 mov	 eax, DWORD PTR [ebx+360]
  00072	f3 0f 7e 83 60
	01 00 00	 movq	 xmm0, QWORD PTR [ebx+352]
  0007a	89 45 f8	 mov	 DWORD PTR $T1[ebp+8], eax
; File C:\IAGOS\server\v18\Source\Source\_common\party.cpp

; 696  : 				g_DPCoreClient.SendSummonPlayer( pUser->m_idPlayer, pUser->GetWorld()->GetID(), pUser->GetPos(), pMember->m_idPlayer, pUser->GetLayer() );

  0007d	8d 45 f0	 lea	 eax, DWORD PTR $T1[ebp]
  00080	51		 push	 ecx
  00081	50		 push	 eax
  00082	8b 83 6c 01 00
	00		 mov	 eax, DWORD PTR [ebx+364]
  00088	b9 00 00 00 00	 mov	 ecx, OFFSET ?g_DPCoreClient@@3VCDPCoreClient@@A ; g_DPCoreClient
; File C:\IAGOS\server\v18\Source\Source\_Common\Obj.h

; 215  : 	D3DXVECTOR3		GetPos()	{ return m_vPos; }

  0008d	66 0f d6 45 f0	 movq	 QWORD PTR $T1[ebp], xmm0
; File C:\IAGOS\server\v18\Source\Source\_common\party.cpp

; 696  : 				g_DPCoreClient.SendSummonPlayer( pUser->m_idPlayer, pUser->GetWorld()->GetID(), pUser->GetPos(), pMember->m_idPlayer, pUser->GetLayer() );

  00092	ff 30		 push	 DWORD PTR [eax]
  00094	52		 push	 edx
  00095	e8 00 00 00 00	 call	 ?SendSummonPlayer@CDPCoreClient@@QAEXKKABUD3DXVECTOR3@@KH@Z ; CDPCoreClient::SendSummonPlayer
$LN2@DoUseParty:

; 689  : 	for( i = 0; i < m_nSizeofMember; i ++ )		// ´ÜŔĺ(0)żˇ°Ô´Â ş¸łľÇĘżä ľř´Ů.

  0009a	8b 45 ec	 mov	 eax, DWORD PTR _this$GSCopy$1$[ebp]
  0009d	46		 inc	 esi
  0009e	83 c7 1c	 add	 edi, 28			; 0000001cH
  000a1	3b b0 cc 01 00
	00		 cmp	 esi, DWORD PTR [eax+460]
  000a7	7c 97		 jl	 SHORT $LL4@DoUseParty
$LN35@DoUseParty:
  000a9	5e		 pop	 esi
$LN3@DoUseParty:

; 697  : #else	// __LAYER_1015
; 698  : 				g_DPCoreClient.SendSummonPlayer( pUser->m_idPlayer, pUser->GetWorld()->GetID(), pUser->GetPos(), pMember->m_idPlayer );
; 699  : #endif	// __LAYER_1015
; 700  : 		}
; 701  : 	}
; 702  : }

  000aa	8b 4d fc	 mov	 ecx, DWORD PTR __$ArrayPad$[ebp]
  000ad	5f		 pop	 edi
  000ae	33 cd		 xor	 ecx, ebp
  000b0	5b		 pop	 ebx
  000b1	e8 00 00 00 00	 call	 @__security_check_cookie@4
  000b6	8b e5		 mov	 esp, ebp
  000b8	5d		 pop	 ebp
  000b9	c2 0c 00	 ret	 12			; 0000000cH
?DoUsePartyReCall@CParty@@QAEXKKH@Z ENDP		; CParty::DoUsePartyReCall
_TEXT	ENDS
; Function compile flags: /Ogtp
; File C:\IAGOS\server\v18\Source\Source\_common\party.cpp
; File C:\IAGOS\server\v18\Source\Source\_Common\Obj.h
; File C:\IAGOS\server\v18\Source\Source\_common\party.cpp
;	COMDAT ?DoDuelResult@CParty@@QAEXPAV1@HHM@Z
_TEXT	SEGMENT
_this$1$ = -12						; size = 4
$T1 = -8						; size = 4
$T2 = -4						; size = 4
_pDuelOther$ = 8					; size = 4
_bWin$ = 12						; size = 4
_nAddFame$ = 16						; size = 4
_fSubFameRatio$ = 20					; size = 4
?DoDuelResult@CParty@@QAEXPAV1@HHM@Z PROC		; CParty::DoDuelResult, COMDAT
; _this$ = ecx

; 637  : {

  00000	55		 push	 ebp
  00001	8b ec		 mov	 ebp, esp
  00003	83 ec 0c	 sub	 esp, 12			; 0000000cH
  00006	8b c1		 mov	 eax, ecx
  00008	57		 push	 edi

; 638  : 	CUser *pMember;
; 639  : 	int		i;
; 640  : 	
; 641  : 	for( i = 0; i < m_nSizeofMember; i ++ )

  00009	33 ff		 xor	 edi, edi
  0000b	89 45 f4	 mov	 DWORD PTR _this$1$[ebp], eax
  0000e	39 b8 cc 01 00
	00		 cmp	 DWORD PTR [eax+460], edi
  00014	0f 8e 0c 01 00
	00		 jle	 $LN22@DoDuelResu
  0001a	53		 push	 ebx
  0001b	56		 push	 esi
  0001c	8d 58 28	 lea	 ebx, DWORD PTR [eax+40]
  0001f	90		 npad	 1
$LL4@DoDuelResu:

; 642  : 	{
; 643  : 		pMember = g_UserMng.GetUserByPlayerID( m_aMember[i].m_uPlayerId );

  00020	ff 33		 push	 DWORD PTR [ebx]
  00022	b9 00 00 00 00	 mov	 ecx, OFFSET ?g_UserMng@@3VCUserMng@@A ; g_UserMng
  00027	e8 00 00 00 00	 call	 ?GetUserByPlayerID@CUserMng@@QAEPAVCUser@@K@Z ; CUserMng::GetUserByPlayerID
  0002c	8b f0		 mov	 esi, eax
; File C:\IAGOS\server\v18\Source\Source\_Common\Obj.h

; 327  : 	return pObj && ( pObj->IsDelete() == FALSE ); 

  0002e	85 f6		 test	 esi, esi
  00030	0f 84 ca 00 00
	00		 je	 $LN2@DoDuelResu

; 180  : 	BOOL			IsDelete()	{ return (m_dwFlags & OBJ_FLAG_DELETE);  }

  00036	f6 46 04 01	 test	 BYTE PTR [esi+4], 1

; 327  : 	return pObj && ( pObj->IsDelete() == FALSE ); 

  0003a	0f 85 c0 00 00
	00		 jne	 $LN2@DoDuelResu
; File C:\IAGOS\server\v18\Source\Source\_common\party.cpp

; 646  : 			pMember->AddDuelPartyResult( pDuelOther, bWin );		// °˘ ¸âąöµéżˇ°Ô ˝Â/ĆĐ »ç˝ÇŔ» ľË¸˛. / »ó´ëĆÄĆĽżř ¸®˝şĆ®µµ ş¸łż.

  00040	ff 75 0c	 push	 DWORD PTR _bWin$[ebp]
  00043	8b ce		 mov	 ecx, esi
  00045	ff 75 08	 push	 DWORD PTR _pDuelOther$[ebp]
  00048	e8 00 00 00 00	 call	 ?AddDuelPartyResult@CUser@@QAEXPAVCParty@@H@Z ; CUser::AddDuelPartyResult

; 647  : 			pMember->ClearDuelParty();

  0004d	8b ce		 mov	 ecx, esi
  0004f	e8 00 00 00 00	 call	 ?ClearDuelParty@CMover@@QAEXXZ ; CMover::ClearDuelParty

; 648  : 
; 649  : 			if( bWin )

  00054	83 7d 0c 00	 cmp	 DWORD PTR _bWin$[ebp], 0
  00058	8b 86 48 07 00
	00		 mov	 eax, DWORD PTR [esi+1864]
  0005e	74 1c		 je	 SHORT $LN6@DoDuelResu

; 650  : 			{
; 651  : 				pMember->m_nFame += nAddFame;	// ŔĚ±äĂřŔĚ¸é ¸íĽş Áő°ˇ

  00060	8b 4d 10	 mov	 ecx, DWORD PTR _nAddFame$[ebp]
  00063	03 c1		 add	 eax, ecx
  00065	89 86 48 07 00
	00		 mov	 DWORD PTR [esi+1864], eax

; 652  : 				pMember->AddDefinedText( TID_GAME_GETFAMEPOINT, "%d", nAddFame );	// xxx ¸íĽş Ć÷ŔÎĆ®°ˇ Áő°ˇ
; 653  : #ifdef __WORLDSERVER
; 654  : 				g_dpDBClient.SendLogPkPvp( pMember, NULL, nAddFame, 'E' );

  0006b	b8 9c 03 00 00	 mov	 eax, 924		; 0000039cH
  00070	89 75 f8	 mov	 DWORD PTR $T1[ebp], esi
  00073	c7 45 fc 00 00
	00 00		 mov	 DWORD PTR $T2[ebp], 0

; 655  : #endif // __WORLDSERVER
; 656  : 			} 

  0007a	eb 4e		 jmp	 SHORT $LN7@DoDuelResu
$LN6@DoDuelResu:

; 657  : 			else
; 658  : 			{
; 659  : 				int nDecVal;
; 660  : 				fSubFameRatio = fSubFameRatio / 100.0f;	// şńŔ˛·Î ČŻ»ę.

  0007c	f3 0f 10 4d 14	 movss	 xmm1, DWORD PTR _fSubFameRatio$[ebp]

; 661  : 				nDecVal = (int)(pMember->m_nFame * fSubFameRatio);
; 662  : 				if( nDecVal == 0 )	nDecVal = 1;

  00081	ba 01 00 00 00	 mov	 edx, 1
  00086	f3 0f 5e 0d 00
	00 00 00	 divss	 xmm1, DWORD PTR __real@42c80000
  0008e	66 0f 6e c0	 movd	 xmm0, eax
  00092	0f 5b c0	 cvtdq2ps xmm0, xmm0
  00095	f3 0f 11 4d 14	 movss	 DWORD PTR _fSubFameRatio$[ebp], xmm1
  0009a	f3 0f 59 c1	 mulss	 xmm0, xmm1
  0009e	f3 0f 2c c8	 cvttss2si ecx, xmm0
  000a2	85 c9		 test	 ecx, ecx
  000a4	0f 44 ca	 cmove	 ecx, edx

; 663  : 				pMember->m_nFame -= nDecVal;

  000a7	2b c1		 sub	 eax, ecx
  000a9	89 86 48 07 00
	00		 mov	 DWORD PTR [esi+1864], eax

; 664  : 				if( pMember->m_nFame < 0 )	pMember->m_nFame = 0;

  000af	79 0a		 jns	 SHORT $LN9@DoDuelResu
  000b1	c7 86 48 07 00
	00 00 00 00 00	 mov	 DWORD PTR [esi+1864], 0
$LN9@DoDuelResu:

; 665  : 				pMember->AddDefinedText( TID_GAME_DECFAMEPOINT, "%d", nDecVal );	// xxx ¸íĽş Ć÷ŔÎĆ®°ˇ °¨ĽŇ.
; 666  : #ifdef __WORLDSERVER
; 667  : 				g_dpDBClient.SendLogPkPvp( NULL, pMember, nAddFame, 'E' );

  000bb	c7 45 f8 00 00
	00 00		 mov	 DWORD PTR $T1[ebp], 0
  000c2	b8 9d 03 00 00	 mov	 eax, 925		; 0000039dH
  000c7	89 75 fc	 mov	 DWORD PTR $T2[ebp], esi
$LN7@DoDuelResu:

; 668  : #endif // __WORLDSERVER
; 669  : 			}
; 670  : 			
; 671  : 			// ąŮ˛ď ¸íĽşÄˇ¸¦ pMemberŔÇ ÁÖŔ§żˇ łŻ·ÁÁÜ.
; 672  : 			g_UserMng.AddSetFame( pMember, pMember->m_nFame );

  000ca	51		 push	 ecx
  000cb	68 00 00 00 00	 push	 OFFSET ??_C@_02DPKJAMEF@?$CFd@
  000d0	50		 push	 eax
  000d1	56		 push	 esi
  000d2	e8 00 00 00 00	 call	 ?AddDefinedText@CUser@@QAAXHPBDZZ ; CUser::AddDefinedText
  000d7	83 c4 10	 add	 esp, 16			; 00000010H
  000da	b9 00 00 00 00	 mov	 ecx, OFFSET ?g_dpDBClient@@3VCDPDatabaseClient@@A ; g_dpDBClient
  000df	6a 45		 push	 69			; 00000045H
  000e1	ff 75 10	 push	 DWORD PTR _nAddFame$[ebp]
  000e4	ff 75 fc	 push	 DWORD PTR $T2[ebp]
  000e7	ff 75 f8	 push	 DWORD PTR $T1[ebp]
  000ea	e8 00 00 00 00	 call	 ?SendLogPkPvp@CDPDatabaseClient@@QAEXPAVCMover@@0HD@Z ; CDPDatabaseClient::SendLogPkPvp
  000ef	ff b6 48 07 00
	00		 push	 DWORD PTR [esi+1864]
  000f5	b9 00 00 00 00	 mov	 ecx, OFFSET ?g_UserMng@@3VCUserMng@@A ; g_UserMng
  000fa	56		 push	 esi
  000fb	e8 00 00 00 00	 call	 ?AddSetFame@CUserMng@@QAEXPAVCMover@@H@Z ; CUserMng::AddSetFame
$LN2@DoDuelResu:

; 638  : 	CUser *pMember;
; 639  : 	int		i;
; 640  : 	
; 641  : 	for( i = 0; i < m_nSizeofMember; i ++ )

  00100	8b 45 f4	 mov	 eax, DWORD PTR _this$1$[ebp]
  00103	47		 inc	 edi
  00104	83 c3 1c	 add	 ebx, 28			; 0000001cH
  00107	3b b8 cc 01 00
	00		 cmp	 edi, DWORD PTR [eax+460]
  0010d	0f 8c 0d ff ff
	ff		 jl	 $LL4@DoDuelResu
  00113	5e		 pop	 esi
  00114	5b		 pop	 ebx

; 673  : 		}
; 674  : 	}
; 675  : 	m_idDuelParty = 0;

  00115	c7 80 04 02 00
	00 00 00 00 00	 mov	 DWORD PTR [eax+516], 0
  0011f	5f		 pop	 edi

; 676  : }

  00120	8b e5		 mov	 esp, ebp
  00122	5d		 pop	 ebp
  00123	c2 10 00	 ret	 16			; 00000010H
$LN22@DoDuelResu:

; 673  : 		}
; 674  : 	}
; 675  : 	m_idDuelParty = 0;

  00126	89 b8 04 02 00
	00		 mov	 DWORD PTR [eax+516], edi
  0012c	5f		 pop	 edi

; 676  : }

  0012d	8b e5		 mov	 esp, ebp
  0012f	5d		 pop	 ebp
  00130	c2 10 00	 ret	 16			; 00000010H
?DoDuelResult@CParty@@QAEXPAV1@HHM@Z ENDP		; CParty::DoDuelResult
_TEXT	ENDS
; Function compile flags: /Ogtp
; File C:\IAGOS\server\v18\Source\Source\_common\party.cpp
; File C:\IAGOS\server\v18\Source\Source\_Common\Obj.h
; File C:\IAGOS\server\v18\Source\Source\_common\party.cpp
; File C:\IAGOS\server\v18\Source\Source\_Common\Obj.h
; File C:\IAGOS\server\v18\Source\Source\_common\party.cpp
;	COMDAT ?DoDuelPartyStart@CParty@@QAEXPAV1@@Z
_TEXT	SEGMENT
_this$GSCopy$1$ = -84					; size = 4
_pMember$1$ = -80					; size = 4
tv381 = -76						; size = 4
_i$1$ = -72						; size = 4
_pszLeader$1$ = -68					; size = 4
_pDstMember$ = -64					; size = 60
__$ArrayPad$ = -4					; size = 4
_pDst$ = 8						; size = 4
?DoDuelPartyStart@CParty@@QAEXPAV1@@Z PROC		; CParty::DoDuelPartyStart, COMDAT
; _this$ = ecx

; 583  : {

  00000	55		 push	 ebp
  00001	8b ec		 mov	 ebp, esp
  00003	83 ec 54	 sub	 esp, 84			; 00000054H
  00006	a1 00 00 00 00	 mov	 eax, DWORD PTR ___security_cookie
  0000b	33 c5		 xor	 eax, ebp
  0000d	89 45 fc	 mov	 DWORD PTR __$ArrayPad$[ebp], eax
  00010	53		 push	 ebx
  00011	8b 5d 08	 mov	 ebx, DWORD PTR _pDst$[ebp]

; 584  : 	int		i, j;
; 585  : 	OBJID	pDstMember[ MAX_PTMEMBER_SIZE ];
; 586  : 	memset( pDstMember, 0xff, sizeof(pDstMember) );

  00014	8d 45 c0	 lea	 eax, DWORD PTR _pDstMember$[ebp]
  00017	56		 push	 esi
  00018	6a 3c		 push	 60			; 0000003cH
  0001a	8b f1		 mov	 esi, ecx
  0001c	68 ff 00 00 00	 push	 255			; 000000ffH
  00021	50		 push	 eax
  00022	89 75 ac	 mov	 DWORD PTR _this$GSCopy$1$[ebp], esi
  00025	e8 00 00 00 00	 call	 _memset

; 587  : 	
; 588  : 	m_idDuelParty = pDst->m_uPartyId;		// thisĆÄĆĽŔÇ »ó´ë

  0002a	8b 03		 mov	 eax, DWORD PTR [ebx]
  0002c	83 c4 0c	 add	 esp, 12			; 0000000cH
  0002f	89 86 04 02 00
	00		 mov	 DWORD PTR [esi+516], eax

; 589  : 	
; 590  : 	CMover *pMember, *pMember2;
; 591  : 
; 592  : 	LPCSTR pszLeader;
; 593  : 	if( pDst->m_nKindTroup )	// ĽřČ¸±Ř´Ü ±Ř´Ü ŔĚ¸§ ş¸łż

  00035	83 bb e4 01 00
	00 00		 cmp	 DWORD PTR [ebx+484], 0
  0003c	74 05		 je	 SHORT $LN8@DoDuelPart

; 594  : 	{
; 595  : 		pszLeader = pDst->m_sParty;

  0003e	8d 43 04	 lea	 eax, DWORD PTR [ebx+4]

; 596  : 	}

  00041	eb 0f		 jmp	 SHORT $LN48@DoDuelPart
$LN8@DoDuelPart:

; 597  : 	else	// ´Ü¸·±Ř´Ü ŔĎ¶§´Â ¸®´őŔĚ¸§Ŕ» ş¸łż
; 598  : 	{
; 599  : #if __VER >= 11 // __SYS_PLAYER_DATA
; 600  : 		pszLeader	= CPlayerDataCenter::GetInstance()->GetPlayerString( pDst->GetPlayerId( 0 ) );

  00043	ff 73 28	 push	 DWORD PTR [ebx+40]
  00046	e8 00 00 00 00	 call	 ?GetInstance@CPlayerDataCenter@@SAPAV1@XZ ; CPlayerDataCenter::GetInstance
  0004b	8b c8		 mov	 ecx, eax
  0004d	e8 00 00 00 00	 call	 ?GetPlayerString@CPlayerDataCenter@@QAEPBDK@Z ; CPlayerDataCenter::GetPlayerString
$LN48@DoDuelPart:

; 601  : #else	// __SYS_PLAYER_DATA
; 602  : 		pszLeader	= prj.GetPlayerString( pDst->GetPlayerId( 0 ) );
; 603  : #endif	//__SYS_PLAYER_DATA
; 604  : 	}
; 605  : 	
; 606  : 	if( !pszLeader )

  00052	89 45 bc	 mov	 DWORD PTR _pszLeader$1$[ebp], eax
  00055	85 c0		 test	 eax, eax
  00057	75 1f		 jne	 SHORT $LN10@DoDuelPart

; 607  : 	{
; 608  : 		Error( "Error Party PVP 1" );

  00059	68 00 00 00 00	 push	 OFFSET ??_C@_0BC@IAKEEIFL@Error?5Party?5PVP?51@
  0005e	e8 00 00 00 00	 call	 ?Error@@YAPBDPBDZZ	; Error
  00063	83 c4 04	 add	 esp, 4
  00066	5e		 pop	 esi

; 629  : 		}
; 630  : 	}
; 631  : }	

  00067	5b		 pop	 ebx
  00068	8b 4d fc	 mov	 ecx, DWORD PTR __$ArrayPad$[ebp]
  0006b	33 cd		 xor	 ecx, ebp
  0006d	e8 00 00 00 00	 call	 @__security_check_cookie@4
  00072	8b e5		 mov	 esp, ebp
  00074	5d		 pop	 ebp
  00075	c2 04 00	 ret	 4
$LN10@DoDuelPart:
  00078	57		 push	 edi

; 609  : 		return;
; 610  : 	}
; 611  : 
; 612  : 	for( i = 0; i < m_nSizeofMember; i ++ )		// ±Ř´Üżřµé ·çÇÁ.

  00079	33 ff		 xor	 edi, edi
  0007b	89 7d b8	 mov	 DWORD PTR _i$1$[ebp], edi
  0007e	39 be cc 01 00
	00		 cmp	 DWORD PTR [esi+460], edi
  00084	0f 8e b7 00 00
	00		 jle	 $LN47@DoDuelPart
  0008a	8d 46 28	 lea	 eax, DWORD PTR [esi+40]
  0008d	89 45 b4	 mov	 DWORD PTR tv381[ebp], eax
$LL4@DoDuelPart:

; 613  : 	{
; 614  : 		pMember	= (CMover *)g_UserMng.GetUserByPlayerID( m_aMember[i].m_uPlayerId );

  00090	ff 30		 push	 DWORD PTR [eax]
  00092	b9 00 00 00 00	 mov	 ecx, OFFSET ?g_UserMng@@3VCUserMng@@A ; g_UserMng
  00097	e8 00 00 00 00	 call	 ?GetUserByPlayerID@CUserMng@@QAEPAVCUser@@K@Z ; CUserMng::GetUserByPlayerID
  0009c	89 45 b0	 mov	 DWORD PTR _pMember$1$[ebp], eax
; File C:\IAGOS\server\v18\Source\Source\_Common\Obj.h

; 327  : 	return pObj && ( pObj->IsDelete() == FALSE ); 

  0009f	85 c0		 test	 eax, eax
  000a1	0f 84 81 00 00
	00		 je	 $LN2@DoDuelPart

; 180  : 	BOOL			IsDelete()	{ return (m_dwFlags & OBJ_FLAG_DELETE);  }

  000a7	f6 40 04 01	 test	 BYTE PTR [eax+4], 1

; 327  : 	return pObj && ( pObj->IsDelete() == FALSE ); 

  000ab	0f 85 77 00 00
	00		 jne	 $LN2@DoDuelPart
; File C:\IAGOS\server\v18\Source\Source\_common\party.cpp

; 618  : 			pMember->m_idDuelParty = m_idDuelParty;

  000b1	c7 80 3c 07 00
	00 02 00 00 00	 mov	 DWORD PTR [eax+1852], 2
  000bb	8b 8e 04 02 00
	00		 mov	 ecx, DWORD PTR [esi+516]

; 619  : 			pMember->m_nDuelState = 104;
; 620  : 			// »ó´ëąć ĆÄĆĽŔÇ ¸âąöľĆŔĚµđ¸¦ ´Ů ˛¨łż.
; 621  : 			for( j = 0; j < pDst->m_nSizeofMember; j ++ )

  000c1	33 f6		 xor	 esi, esi
  000c3	89 88 44 07 00
	00		 mov	 DWORD PTR [eax+1860], ecx
  000c9	c7 80 38 07 00
	00 68 00 00 00	 mov	 DWORD PTR [eax+1848], 104 ; 00000068H
  000d3	8b 83 cc 01 00
	00		 mov	 eax, DWORD PTR [ebx+460]
  000d9	85 c0		 test	 eax, eax
  000db	7e 34		 jle	 SHORT $LN6@DoDuelPart

; 615  : 		if( IsValidObj( pMember ) )
; 616  : 		{
; 617  : 			pMember->m_nDuel = 2;		// 2´Â ĆÄĆĽµŕľóÁß.

  000dd	8d 7b 28	 lea	 edi, DWORD PTR [ebx+40]
$LL7@DoDuelPart:

; 622  : 			{
; 623  : 				pMember2 = (CMover *)g_UserMng.GetUserByPlayerID( pDst->m_aMember[j].m_uPlayerId );

  000e0	ff 37		 push	 DWORD PTR [edi]
  000e2	b9 00 00 00 00	 mov	 ecx, OFFSET ?g_UserMng@@3VCUserMng@@A ; g_UserMng
  000e7	e8 00 00 00 00	 call	 ?GetUserByPlayerID@CUserMng@@QAEPAVCUser@@K@Z ; CUserMng::GetUserByPlayerID
; File C:\IAGOS\server\v18\Source\Source\_Common\Obj.h

; 327  : 	return pObj && ( pObj->IsDelete() == FALSE ); 

  000ec	85 c0		 test	 eax, eax
  000ee	74 10		 je	 SHORT $LN5@DoDuelPart

; 180  : 	BOOL			IsDelete()	{ return (m_dwFlags & OBJ_FLAG_DELETE);  }

  000f0	f6 40 04 01	 test	 BYTE PTR [eax+4], 1

; 327  : 	return pObj && ( pObj->IsDelete() == FALSE ); 

  000f4	75 0a		 jne	 SHORT $LN5@DoDuelPart
; File C:\IAGOS\server\v18\Source\Source\_common\party.cpp

; 625  : 					pDstMember[j] = pMember2->GetId();

  000f6	8b 80 bc 01 00
	00		 mov	 eax, DWORD PTR [eax+444]
  000fc	89 44 b5 c0	 mov	 DWORD PTR _pDstMember$[ebp+esi*4], eax
$LN5@DoDuelPart:

; 619  : 			pMember->m_nDuelState = 104;
; 620  : 			// »ó´ëąć ĆÄĆĽŔÇ ¸âąöľĆŔĚµđ¸¦ ´Ů ˛¨łż.
; 621  : 			for( j = 0; j < pDst->m_nSizeofMember; j ++ )

  00100	8b 83 cc 01 00
	00		 mov	 eax, DWORD PTR [ebx+460]
  00106	46		 inc	 esi
  00107	83 c7 1c	 add	 edi, 28			; 0000001cH
  0010a	3b f0		 cmp	 esi, eax
  0010c	7c d2		 jl	 SHORT $LL7@DoDuelPart
  0010e	8b 7d b8	 mov	 edi, DWORD PTR _i$1$[ebp]
$LN6@DoDuelPart:

; 626  : 			}
; 627  : 			// »ó´ë ĆÄĆĽżˇ ´ëÇŃ Á¤ş¸¸¦ żě¸®¸âąöµéżˇ°Ô ş¸łż
; 628  : 			((CUser *)pMember)->AddDuelPartyStart( pszLeader , pDst->m_nSizeofMember, pDstMember, pDst->m_uPartyId );		// »ó´ëąć ¸âąöŔÇ ID¸¦ ´Ůş¸ł˝´Ů.

  00111	6a 00		 push	 0
  00113	ff 33		 push	 DWORD PTR [ebx]
  00115	8d 4d c0	 lea	 ecx, DWORD PTR _pDstMember$[ebp]
  00118	51		 push	 ecx
  00119	8b 4d b0	 mov	 ecx, DWORD PTR _pMember$1$[ebp]
  0011c	50		 push	 eax
  0011d	ff 75 bc	 push	 DWORD PTR _pszLeader$1$[ebp]
  00120	e8 00 00 00 00	 call	 ?AddDuelPartyStart@CUser@@QAEXPBDHPAKKH@Z ; CUser::AddDuelPartyStart
  00125	8b 75 ac	 mov	 esi, DWORD PTR _this$GSCopy$1$[ebp]
$LN2@DoDuelPart:

; 609  : 		return;
; 610  : 	}
; 611  : 
; 612  : 	for( i = 0; i < m_nSizeofMember; i ++ )		// ±Ř´Üżřµé ·çÇÁ.

  00128	8b 45 b4	 mov	 eax, DWORD PTR tv381[ebp]
  0012b	47		 inc	 edi
  0012c	83 c0 1c	 add	 eax, 28			; 0000001cH
  0012f	89 7d b8	 mov	 DWORD PTR _i$1$[ebp], edi
  00132	89 45 b4	 mov	 DWORD PTR tv381[ebp], eax
  00135	3b be cc 01 00
	00		 cmp	 edi, DWORD PTR [esi+460]
  0013b	0f 8c 4f ff ff
	ff		 jl	 $LL4@DoDuelPart
$LN47@DoDuelPart:

; 629  : 		}
; 630  : 	}
; 631  : }	

  00141	8b 4d fc	 mov	 ecx, DWORD PTR __$ArrayPad$[ebp]
  00144	5f		 pop	 edi
  00145	5e		 pop	 esi
  00146	33 cd		 xor	 ecx, ebp
  00148	5b		 pop	 ebx
  00149	e8 00 00 00 00	 call	 @__security_check_cookie@4
  0014e	8b e5		 mov	 esp, ebp
  00150	5d		 pop	 ebp
  00151	c2 04 00	 ret	 4
?DoDuelPartyStart@CParty@@QAEXPAV1@@Z ENDP		; CParty::DoDuelPartyStart
_TEXT	ENDS
; Function compile flags: /Ogtp
; File C:\IAGOS\server\v18\Source\Source\_common\party.cpp
;	COMDAT ?SetPartyLevel@CParty@@QAEXPAVCUser@@KKK@Z
_TEXT	SEGMENT
_pUser$ = 8						; size = 4
_dwLevel$ = 12						; size = 4
_dwPoint$ = 16						; size = 4
_dwExp$ = 20						; size = 4
?SetPartyLevel@CParty@@QAEXPAVCUser@@KKK@Z PROC		; CParty::SetPartyLevel, COMDAT
; _this$ = ecx

; 259  : {

  00000	55		 push	 ebp
  00001	8b ec		 mov	 ebp, esp

; 260  : 	g_DPCoreClient.SendPartyLevel( pUser, dwLevel, dwPoint, dwExp );

  00003	b9 00 00 00 00	 mov	 ecx, OFFSET ?g_DPCoreClient@@3VCDPCoreClient@@A ; g_DPCoreClient

; 261  : }

  00008	5d		 pop	 ebp

; 260  : 	g_DPCoreClient.SendPartyLevel( pUser, dwLevel, dwPoint, dwExp );

  00009	e9 00 00 00 00	 jmp	 ?SendPartyLevel@CDPCoreClient@@QAEXPAVCUser@@KKK@Z ; CDPCoreClient::SendPartyLevel
?SetPartyLevel@CParty@@QAEXPAVCUser@@KKK@Z ENDP		; CParty::SetPartyLevel
_TEXT	ENDS
; Function compile flags: /Ogtp
; File C:\IAGOS\server\v18\Source\Source\_common\party.cpp
; File C:\IAGOS\server\v18\Source\Source\_common\party.h
; File C:\IAGOS\server\v18\Source\Source\_common\party.cpp
; File C:\IAGOS\server\v18\Source\Source\_common\party.h
; File C:\IAGOS\server\v18\Source\Source\_common\party.cpp
; File C:\IAGOS\server\v18\Source\Source\_Common\data.h
; File C:\IAGOS\server\v18\Source\Source\_common\party.cpp
; File C:\IAGOS\server\v18\Source\Source\_Common\Obj.h
; File C:\IAGOS\server\v18\Source\Source\_common\party.cpp
; File C:\IAGOS\server\v18\Source\Source\_Common\Obj.h
; File C:\IAGOS\server\v18\Source\Source\_common\party.cpp
; File C:\IAGOS\server\v18\Source\Source\_Common\Obj.h
; File C:\IAGOS\server\v18\Source\Source\_common\party.cpp
; File C:\IAGOS\server\v18\Source\Source\_Common\Obj.h
; File C:\IAGOS\server\v18\Source\Source\_common\party.cpp
; File C:\IAGOS\server\v18\Source\Source\_Common\Obj.h
; File C:\IAGOS\server\v18\Source\Source\_common\party.cpp
; File C:\IAGOS\server\v18\Source\Source\_Common\Obj.h
; File C:\IAGOS\server\v18\Source\Source\_common\party.cpp
; File C:\IAGOS\server\v18\Source\Source\_Common\Obj.h
; File C:\IAGOS\server\v18\Source\Source\_common\party.cpp
; File C:\IAGOS\server\v18\Source\Source\_Common\Obj.h
; File C:\IAGOS\server\v18\Source\Source\_common\party.cpp
; File C:\IAGOS\server\v18\Source\Source\_Common\Obj.h
; File C:\IAGOS\server\v18\Source\Source\_common\party.cpp
; File C:\IAGOS\server\v18\Source\Source\_Common\Obj.h
; File C:\IAGOS\server\v18\Source\Source\_common\party.cpp
; File C:\IAGOS\server\v18\Source\Source\_Common\Obj.h
; File C:\IAGOS\server\v18\Source\Source\_common\party.cpp
; File C:\IAGOS\server\v18\Source\Source\_Common\Obj.h
; File C:\IAGOS\server\v18\Source\Source\_common\party.cpp
;	COMDAT ?DoUsePartySkill@CParty@@QAEXKKH@Z
_TEXT	SEGMENT
_this$GSCopy$1$ = -36					; size = 4
_pLeader$1$ = -32					; size = 4
_pLeader$1$ = -32					; size = 4
_nSkill$GSCopy$1$ = -32					; size = 4
$T1 = -28						; size = 4
_nHasCashSkill$1$ = -24					; size = 4
_i$2$ = -24						; size = 4
_i$4$ = -24						; size = 4
_pLeadertmp$1$ = -20					; size = 4
_nRemovePoint$1$ = -20					; size = 4
_i$3$ = -20						; size = 4
_pLeader$1$ = -20					; size = 4
_pLeader$1$ = -20					; size = 4
$T2 = -16						; size = 12
__$ArrayPad$ = -4					; size = 4
_uPartyId$ = 8						; size = 4
_uLeaderid$ = 12					; size = 4
_nSkill$ = 16						; size = 4
?DoUsePartySkill@CParty@@QAEXKKH@Z PROC			; CParty::DoUsePartySkill, COMDAT
; _this$ = ecx

; 305  : {

  00000	55		 push	 ebp
  00001	8b ec		 mov	 ebp, esp
  00003	83 ec 24	 sub	 esp, 36			; 00000024H
  00006	a1 00 00 00 00	 mov	 eax, DWORD PTR ___security_cookie
  0000b	33 c5		 xor	 eax, ebp
  0000d	89 45 fc	 mov	 DWORD PTR __$ArrayPad$[ebp], eax
  00010	53		 push	 ebx
  00011	56		 push	 esi
  00012	8b f1		 mov	 esi, ecx
; File C:\IAGOS\server\v18\Source\Source\_common\party.h

; 106  : 	int		IsLeader( u_long uPlayerId )		{	return( m_aMember[0].m_uPlayerId == uPlayerId );	}

  00014	8b 56 28	 mov	 edx, DWORD PTR [esi+40]
  00017	8d 5e 28	 lea	 ebx, DWORD PTR [esi+40]
; File C:\IAGOS\server\v18\Source\Source\_common\party.cpp

; 305  : {

  0001a	57		 push	 edi
  0001b	8b 7d 10	 mov	 edi, DWORD PTR _nSkill$[ebp]
  0001e	89 75 dc	 mov	 DWORD PTR _this$GSCopy$1$[ebp], esi
  00021	89 7d e0	 mov	 DWORD PTR _nSkill$GSCopy$1$[ebp], edi
; File C:\IAGOS\server\v18\Source\Source\_common\party.h

; 106  : 	int		IsLeader( u_long uPlayerId )		{	return( m_aMember[0].m_uPlayerId == uPlayerId );	}

  00024	3b 55 0c	 cmp	 edx, DWORD PTR _uLeaderid$[ebp]
; File C:\IAGOS\server\v18\Source\Source\_common\party.cpp

; 310  : 	if( IsLeader( uLeaderid ) && m_nKindTroup == 1 )

  00027	0f 85 51 05 00
	00		 jne	 $LN67@DoUseParty
  0002d	83 be e4 01 00
	00 01		 cmp	 DWORD PTR [esi+484], 1
  00034	0f 85 44 05 00
	00		 jne	 $LN67@DoUseParty
; File C:\IAGOS\server\v18\Source\Source\_Common\data.h

; 270  : 	if( dwIndex >= (DWORD)m_nMaxIndex )

  0003a	3b 3d d4 01 00
	00		 cmp	 edi, DWORD PTR ?prj@@3VCProject@@A+468
  00040	0f 83 38 05 00
	00		 jae	 $LN67@DoUseParty

; 271  : 		return NULL;
; 272  : 	return (T*) m_apOffset[ dwIndex ];

  00046	a1 c4 01 00 00	 mov	 eax, DWORD PTR ?prj@@3VCProject@@A+452
  0004b	8b 0c b8	 mov	 ecx, DWORD PTR [eax+edi*4]
  0004e	89 4d e4	 mov	 DWORD PTR $T1[ebp], ecx
; File C:\IAGOS\server\v18\Source\Source\_common\party.cpp

; 313  : 		if( pItemProp )

  00051	85 c9		 test	 ecx, ecx
  00053	0f 84 25 05 00
	00		 je	 $LN67@DoUseParty

; 314  : 		{
; 315  : #ifndef __PARTYDEBUG
; 316  : 			if( int( GetLevel() - pItemProp->dwReqDisLV ) >= 0 )

  00059	8b 86 d0 01 00
	00		 mov	 eax, DWORD PTR [esi+464]
  0005f	2b 81 80 01 00
	00		 sub	 eax, DWORD PTR [ecx+384]
  00065	b9 00 00 00 00	 mov	 ecx, OFFSET ?g_UserMng@@3VCUserMng@@A ; g_UserMng
  0006a	52		 push	 edx
  0006b	0f 88 f0 04 00
	00		 js	 $LN19@DoUseParty

; 317  : #endif // __PARTYDEBUG
; 318  : 			{
; 319  : #ifndef __PARTYDEBUG
; 320  : 	#if __VER >= 12 // __JHMA_VER12_1	//12Â÷ ±Ř´ÜŔŻ·áľĆŔĚĹŰ
; 321  : 				CUser *pLeadertmp = g_UserMng.GetUserByPlayerID( m_aMember[0].m_uPlayerId );	// ¸®´őŔÇ Ć÷ŔÎĹÍ

  00071	e8 00 00 00 00	 call	 ?GetUserByPlayerID@CUserMng@@QAEPAVCUser@@K@Z ; CUserMng::GetUserByPlayerID
  00076	89 45 ec	 mov	 DWORD PTR _pLeadertmp$1$[ebp], eax
; File C:\IAGOS\server\v18\Source\Source\_Common\Obj.h

; 327  : 	return pObj && ( pObj->IsDelete() == FALSE ); 

  00079	85 c0		 test	 eax, eax
  0007b	0f 84 fd 04 00
	00		 je	 $LN67@DoUseParty

; 180  : 	BOOL			IsDelete()	{ return (m_dwFlags & OBJ_FLAG_DELETE);  }

  00081	f6 40 04 01	 test	 BYTE PTR [eax+4], 1

; 327  : 	return pObj && ( pObj->IsDelete() == FALSE ); 

  00085	0f 85 f3 04 00
	00		 jne	 $LN67@DoUseParty
; File C:\IAGOS\server\v18\Source\Source\_common\party.cpp

; 327  : 					|| pLeadertmp->HasBuff( BUFF_ITEM2, II_SYS_SYS_SCR_PARTYSKILLUP01_01 ) )

  0008b	68 ab 67 00 00	 push	 26539			; 000067abH
  00090	6a 03		 push	 3
  00092	8b c8		 mov	 ecx, eax
  00094	c7 45 e8 00 00
	00 00		 mov	 DWORD PTR _nHasCashSkill$1$[ebp], 0
  0009b	e8 00 00 00 00	 call	 ?HasBuff@CMover@@QAEHGG@Z ; CMover::HasBuff
  000a0	85 c0		 test	 eax, eax
  000a2	75 26		 jne	 SHORT $LN23@DoUseParty
  000a4	8b 4d ec	 mov	 ecx, DWORD PTR _pLeadertmp$1$[ebp]
  000a7	68 ac 67 00 00	 push	 26540			; 000067acH
  000ac	6a 03		 push	 3
  000ae	e8 00 00 00 00	 call	 ?HasBuff@CMover@@QAEHGG@Z ; CMover::HasBuff
  000b3	85 c0		 test	 eax, eax
  000b5	75 13		 jne	 SHORT $LN23@DoUseParty
  000b7	8b 4d ec	 mov	 ecx, DWORD PTR _pLeadertmp$1$[ebp]
  000ba	68 49 4f 00 00	 push	 20297			; 00004f49H
  000bf	6a 03		 push	 3
  000c1	e8 00 00 00 00	 call	 ?HasBuff@CMover@@QAEHGG@Z ; CMover::HasBuff
  000c6	85 c0		 test	 eax, eax
  000c8	74 1b		 je	 SHORT $LN24@DoUseParty
$LN23@DoUseParty:

; 328  : 				{
; 329  : 					if( nSkill == ST_LINKATTACK 
; 330  : 						|| nSkill == ST_FORTUNECIRCLE 
; 331  : 						|| nSkill == ST_STRETCHING
; 332  : 						|| nSkill == ST_GIFTBOX )

  000ca	83 ff 05	 cmp	 edi, 5
  000cd	74 0f		 je	 SHORT $LN25@DoUseParty
  000cf	83 ff 06	 cmp	 edi, 6
  000d2	74 0a		 je	 SHORT $LN25@DoUseParty
  000d4	83 ff 07	 cmp	 edi, 7
  000d7	74 05		 je	 SHORT $LN25@DoUseParty
  000d9	83 ff 08	 cmp	 edi, 8
  000dc	75 07		 jne	 SHORT $LN24@DoUseParty
$LN25@DoUseParty:

; 333  : 						nHasCashSkill = 1;

  000de	c7 45 e8 01 00
	00 00		 mov	 DWORD PTR _nHasCashSkill$1$[ebp], 1
$LN24@DoUseParty:

; 334  : 				}
; 335  : 
; 336  : 				DWORD dwSkillTime	= pItemProp->dwSkillTime;

  000e5	8b 45 e4	 mov	 eax, DWORD PTR $T1[ebp]

; 337  : 				int nRemovePoint	= pItemProp->dwExp;
; 338  : 
; 339  : 				nFPoint	= int( GetPoint() - pItemProp->dwExp);

  000e8	8b b6 d8 01 00
	00		 mov	 esi, DWORD PTR [esi+472]
  000ee	8b b8 c0 01 00
	00		 mov	 edi, DWORD PTR [eax+448]
  000f4	8b 80 14 02 00
	00		 mov	 eax, DWORD PTR [eax+532]
  000fa	2b f0		 sub	 esi, eax
  000fc	89 45 ec	 mov	 DWORD PTR _nRemovePoint$1$[ebp], eax

; 340  : #if __VER >= 12 // __LORD
; 341  : 				// ±şÁÖŔÇ ±Ř´Ü
; 342  : 				// ±şÁÖ°ˇ ±Ř´ÜŔĺ Ŕ¸·Î˝á ±Ř´Ü˝şĹł »çżë ˝Ă,
; 343  : 				// ÁöĽÓ˝Ă°Ł 4ąč Áő°ˇ(ĽŇ¸đ Ć÷ŔÎĆ®´Â µżŔĎ)
; 344  : 				if( CSLord::Instance()->IsLord( uLeaderid ) )

  000ff	e8 00 00 00 00	 call	 ?Instance@CSLord@@SAPAV1@XZ ; CSLord::Instance

; 345  : 					dwSkillTime		*= 4;
; 346  : #endif	// __LORD
; 347  : 
; 348  : 				if( nFPoint >= 0 )

  00104	8b 4d 0c	 mov	 ecx, DWORD PTR _uLeaderid$[ebp]
  00107	8d 14 bd 00 00
	00 00		 lea	 edx, DWORD PTR [edi*4]
  0010e	39 48 04	 cmp	 DWORD PTR [eax+4], ecx
  00111	0f 45 d7	 cmovne	 edx, edi
  00114	85 f6		 test	 esi, esi
  00116	0f 88 26 04 00
	00		 js	 $LN27@DoUseParty

; 349  : 	#else
; 350  : 				if( int( GetPoint() - pItemProp->dwExp) >= 0 )
; 351  : 	#endif // //12Â÷ ±Ř´ÜŔŻ·áľĆŔĚĹŰ
; 352  : #endif // __PARTYDEBUG
; 353  : 				{
; 354  : 					switch( nSkill )

  0011c	8b 45 e0	 mov	 eax, DWORD PTR _nSkill$GSCopy$1$[ebp]
  0011f	48		 dec	 eax
  00120	83 f8 07	 cmp	 eax, 7
  00123	0f 87 55 04 00
	00		 ja	 $LN67@DoUseParty
  00129	ff 24 85 00 00
	00 00		 jmp	 DWORD PTR $LN173@DoUseParty[eax*4]
$LN29@DoUseParty:

; 355  : 					{
; 356  : 					case ST_CALL:
; 357  : 						{
; 358  : 							g_DPCoreClient.SendRemovePartyPoint( uPartyId, pItemProp->dwExp );

  00130	8b 45 e4	 mov	 eax, DWORD PTR $T1[ebp]
  00133	b9 00 00 00 00	 mov	 ecx, OFFSET ?g_DPCoreClient@@3VCDPCoreClient@@A ; g_DPCoreClient
  00138	ff b0 14 02 00
	00		 push	 DWORD PTR [eax+532]
  0013e	ff 75 08	 push	 DWORD PTR _uPartyId$[ebp]
  00141	e8 00 00 00 00	 call	 ?SendRemovePartyPoint@CDPCoreClient@@QAEXKH@Z ; CDPCoreClient::SendRemovePartyPoint

; 359  : 							CUser *pLeader = g_UserMng.GetUserByPlayerID( m_aMember[0].m_uPlayerId );	// ¸®´őŔÇ Ć÷ŔÎĹÍ

  00146	ff 33		 push	 DWORD PTR [ebx]
  00148	b9 00 00 00 00	 mov	 ecx, OFFSET ?g_UserMng@@3VCUserMng@@A ; g_UserMng
  0014d	e8 00 00 00 00	 call	 ?GetUserByPlayerID@CUserMng@@QAEPAVCUser@@K@Z ; CUserMng::GetUserByPlayerID
  00152	89 45 e0	 mov	 DWORD PTR _pLeader$1$[ebp], eax
; File C:\IAGOS\server\v18\Source\Source\_Common\Obj.h

; 327  : 	return pObj && ( pObj->IsDelete() == FALSE ); 

  00155	85 c0		 test	 eax, eax
  00157	0f 84 21 04 00
	00		 je	 $LN67@DoUseParty

; 180  : 	BOOL			IsDelete()	{ return (m_dwFlags & OBJ_FLAG_DELETE);  }

  0015d	f6 40 04 01	 test	 BYTE PTR [eax+4], 1

; 327  : 	return pObj && ( pObj->IsDelete() == FALSE ); 

  00161	0f 85 17 04 00
	00		 jne	 $LN67@DoUseParty
; File C:\IAGOS\server\v18\Source\Source\_common\party.cpp

; 364  : 							for( i = 0; i < m_nSizeofMember; i ++ )		// ´ÜŔĺ(0)żˇ°Ô´Â ş¸łľÇĘżä ľř´Ů.

  00167	8b 75 dc	 mov	 esi, DWORD PTR _this$GSCopy$1$[ebp]
  0016a	33 ff		 xor	 edi, edi
  0016c	39 be cc 01 00
	00		 cmp	 DWORD PTR [esi+460], edi
  00172	0f 8e 06 04 00
	00		 jle	 $LN67@DoUseParty
  00178	0f 1f 84 00 00
	00 00 00	 npad	 8
$LL6@DoUseParty:

; 365  : 							{
; 366  : 								pMember		= g_UserMng.GetUserByPlayerID( m_aMember[i].m_uPlayerId );

  00180	ff 33		 push	 DWORD PTR [ebx]
  00182	b9 00 00 00 00	 mov	 ecx, OFFSET ?g_UserMng@@3VCUserMng@@A ; g_UserMng
  00187	e8 00 00 00 00	 call	 ?GetUserByPlayerID@CUserMng@@QAEPAVCUser@@K@Z ; CUserMng::GetUserByPlayerID
  0018c	8b c8		 mov	 ecx, eax
; File C:\IAGOS\server\v18\Source\Source\_Common\Obj.h

; 327  : 	return pObj && ( pObj->IsDelete() == FALSE ); 

  0018e	85 c9		 test	 ecx, ecx
  00190	74 28		 je	 SHORT $LN4@DoUseParty

; 180  : 	BOOL			IsDelete()	{ return (m_dwFlags & OBJ_FLAG_DELETE);  }

  00192	f6 41 04 01	 test	 BYTE PTR [ecx+4], 1

; 327  : 	return pObj && ( pObj->IsDelete() == FALSE ); 

  00196	75 22		 jne	 SHORT $LN4@DoUseParty

; 215  : 	D3DXVECTOR3		GetPos()	{ return m_vPos; }

  00198	8b 45 e0	 mov	 eax, DWORD PTR _pLeader$1$[ebp]
  0019b	f3 0f 7e 80 60
	01 00 00	 movq	 xmm0, QWORD PTR [eax+352]
  001a3	8b 80 68 01 00
	00		 mov	 eax, DWORD PTR [eax+360]
  001a9	89 45 f8	 mov	 DWORD PTR $T2[ebp+8], eax
; File C:\IAGOS\server\v18\Source\Source\_common\party.cpp

; 369  : 									pMember->AddPartySkillCall( pLeader->GetPos() );		// °˘ ¸âąöµéżˇ°Ô ´ÜŔĺŔĚ ÁÂÇĄ¸¦ ŔüĽŰÇÔ.

  001ac	8d 45 f0	 lea	 eax, DWORD PTR $T2[ebp]
  001af	50		 push	 eax
; File C:\IAGOS\server\v18\Source\Source\_Common\Obj.h

; 215  : 	D3DXVECTOR3		GetPos()	{ return m_vPos; }

  001b0	66 0f d6 45 f0	 movq	 QWORD PTR $T2[ebp], xmm0
; File C:\IAGOS\server\v18\Source\Source\_common\party.cpp

; 369  : 									pMember->AddPartySkillCall( pLeader->GetPos() );		// °˘ ¸âąöµéżˇ°Ô ´ÜŔĺŔĚ ÁÂÇĄ¸¦ ŔüĽŰÇÔ.

  001b5	e8 00 00 00 00	 call	 ?AddPartySkillCall@CUser@@QAEXABUD3DXVECTOR3@@@Z ; CUser::AddPartySkillCall
$LN4@DoUseParty:

; 364  : 							for( i = 0; i < m_nSizeofMember; i ++ )		// ´ÜŔĺ(0)żˇ°Ô´Â ş¸łľÇĘżä ľř´Ů.

  001ba	47		 inc	 edi
  001bb	83 c3 1c	 add	 ebx, 28			; 0000001cH
  001be	3b be cc 01 00
	00		 cmp	 edi, DWORD PTR [esi+460]
  001c4	7c ba		 jl	 SHORT $LL6@DoUseParty

; 565  : 				}
; 566  : 				//ŔĚ ˝şĹłŔş ąčżěÁö¸¦ ¸řÇß˝Ŕ´Ď´Ů.
; 567  : 			}
; 568  : #endif // __PARTYDEBUG
; 569  : 		}
; 570  : 	}
; 571  : 	else
; 572  : 	{
; 573  : 		// ¸®´ő°ˇ ľĆ´Ď°ĹłŞ ĽřČ¸±Ř´ÜŔĚ ľĆ´Ń°ćżě
; 574  : 	}
; 575  : #endif	// __WORLDSERVER
; 576  : }

  001c6	5f		 pop	 edi
  001c7	5e		 pop	 esi
  001c8	5b		 pop	 ebx
  001c9	8b 4d fc	 mov	 ecx, DWORD PTR __$ArrayPad$[ebp]
  001cc	33 cd		 xor	 ecx, ebp
  001ce	e8 00 00 00 00	 call	 @__security_check_cookie@4
  001d3	8b e5		 mov	 esp, ebp
  001d5	5d		 pop	 ebp
  001d6	c2 0c 00	 ret	 12			; 0000000cH
$LN32@DoUseParty:

; 370  : 							}
; 371  : 						}
; 372  : 						break;
; 373  : 					case ST_BLITZ:
; 374  : 						{
; 375  : 							CUser *pLeader = g_UserMng.GetUserByPlayerID( m_aMember[0].m_uPlayerId );	// ¸®´őŔÇ Ć÷ŔÎĹÍ

  001d9	ff 33		 push	 DWORD PTR [ebx]
  001db	b9 00 00 00 00	 mov	 ecx, OFFSET ?g_UserMng@@3VCUserMng@@A ; g_UserMng
  001e0	e8 00 00 00 00	 call	 ?GetUserByPlayerID@CUserMng@@QAEPAVCUser@@K@Z ; CUserMng::GetUserByPlayerID
  001e5	8b f0		 mov	 esi, eax
  001e7	89 75 ec	 mov	 DWORD PTR _pLeader$1$[ebp], esi
; File C:\IAGOS\server\v18\Source\Source\_Common\Obj.h

; 327  : 	return pObj && ( pObj->IsDelete() == FALSE ); 

  001ea	85 f6		 test	 esi, esi
  001ec	0f 84 8c 03 00
	00		 je	 $LN67@DoUseParty

; 180  : 	BOOL			IsDelete()	{ return (m_dwFlags & OBJ_FLAG_DELETE);  }

  001f2	f6 46 04 01	 test	 BYTE PTR [esi+4], 1

; 327  : 	return pObj && ( pObj->IsDelete() == FALSE ); 

  001f6	0f 85 82 03 00
	00		 jne	 $LN67@DoUseParty
; File C:\IAGOS\server\v18\Source\Source\_common\party.cpp

; 379  : 							if( pLeader->m_idSetTarget != NULL_ID )

  001fc	8b 86 40 8e 00
	00		 mov	 eax, DWORD PTR [esi+36416]
  00202	83 f8 ff	 cmp	 eax, -1
  00205	0f 84 c1 00 00
	00		 je	 $LN34@DoUseParty

; 380  : 							{
; 381  : 								CMover *pT = prj.GetMover( pLeader->m_idSetTarget );

  0020b	50		 push	 eax
  0020c	b9 00 00 00 00	 mov	 ecx, OFFSET ?prj@@3VCProject@@A ; prj
  00211	e8 00 00 00 00	 call	 ?GetMover@CProject@@QAEPAVCMover@@K@Z ; CProject::GetMover

; 382  : 								if( pT && !pT->IsPlayer() )

  00216	85 c0		 test	 eax, eax
  00218	0f 84 ae 00 00
	00		 je	 $LN34@DoUseParty
  0021e	83 b8 30 02 00
	00 00		 cmp	 DWORD PTR [eax+560], 0
  00225	0f 85 a1 00 00
	00		 jne	 $LN34@DoUseParty

; 383  : 								{
; 384  : 									g_DPCoreClient.SendRemovePartyPoint( uPartyId, pItemProp->dwExp );

  0022b	8b 45 e4	 mov	 eax, DWORD PTR $T1[ebp]
  0022e	b9 00 00 00 00	 mov	 ecx, OFFSET ?g_DPCoreClient@@3VCDPCoreClient@@A ; g_DPCoreClient
  00233	ff b0 14 02 00
	00		 push	 DWORD PTR [eax+532]
  00239	ff 75 08	 push	 DWORD PTR _uPartyId$[ebp]
  0023c	e8 00 00 00 00	 call	 ?SendRemovePartyPoint@CDPCoreClient@@QAEXKH@Z ; CDPCoreClient::SendRemovePartyPoint

; 385  : 									// ´ÜŔĺŔĚ Ĺ¸°ŮŔ¸·Î ÁýÁß°ř°Ý ÇĄ˝Ă
; 386  : 									for( i = 0; i < m_nSizeofMember; i ++ )

  00241	8b 75 dc	 mov	 esi, DWORD PTR _this$GSCopy$1$[ebp]
  00244	c7 45 e8 00 00
	00 00		 mov	 DWORD PTR _i$2$[ebp], 0
  0024b	83 be cc 01 00
	00 00		 cmp	 DWORD PTR [esi+460], 0
  00252	0f 8e 26 03 00
	00		 jle	 $LN67@DoUseParty
  00258	0f 1f 84 00 00
	00 00 00	 npad	 8
$LL9@DoUseParty:

; 387  : 									{
; 388  : 										pMember		= g_UserMng.GetUserByPlayerID( m_aMember[i].m_uPlayerId );

  00260	ff 33		 push	 DWORD PTR [ebx]
  00262	b9 00 00 00 00	 mov	 ecx, OFFSET ?g_UserMng@@3VCUserMng@@A ; g_UserMng
  00267	e8 00 00 00 00	 call	 ?GetUserByPlayerID@CUserMng@@QAEPAVCUser@@K@Z ; CUserMng::GetUserByPlayerID
  0026c	8b f8		 mov	 edi, eax
; File C:\IAGOS\server\v18\Source\Source\_Common\Obj.h

; 327  : 	return pObj && ( pObj->IsDelete() == FALSE ); 

  0026e	85 ff		 test	 edi, edi
  00270	74 35		 je	 SHORT $LN7@DoUseParty

; 180  : 	BOOL			IsDelete()	{ return (m_dwFlags & OBJ_FLAG_DELETE);  }

  00272	f6 47 04 01	 test	 BYTE PTR [edi+4], 1

; 327  : 	return pObj && ( pObj->IsDelete() == FALSE ); 

  00276	75 2f		 jne	 SHORT $LN7@DoUseParty
; File C:\IAGOS\server\v18\Source\Source\_common\party.cpp

; 391  : 											if( m_nModeTime[PARTY_GIFTBOX_MODE] || m_nModeTime[PARTY_FORTUNECIRCLE_MODE] )

  00278	83 be f8 01 00
	00 00		 cmp	 DWORD PTR [esi+504], 0
  0027f	75 16		 jne	 SHORT $LN41@DoUseParty
  00281	83 be f0 01 00
	00 00		 cmp	 DWORD PTR [esi+496], 0
  00288	75 0d		 jne	 SHORT $LN41@DoUseParty

; 392  : 											{
; 393  : 												pMember->AddPartySkillBlitz( pLeader->m_idSetTarget );		// °˘ ¸âąöµéżˇ°Ô ´ÜŔĺĹ¸°ŮŔ¸·Î ŔâŔş ą«ąöŔÇ ľĆŔĚµđ¸¦ ş¸łż.
; 394  : 											}
; 395  : 											else
; 396  : 											{
; 397  : 												if( pLeader->IsNearPC( pMember ) )

  0028a	8b 4d ec	 mov	 ecx, DWORD PTR _pLeader$1$[ebp]
  0028d	57		 push	 edi
  0028e	e8 00 00 00 00	 call	 ?IsNearPC@CCtrl@@QAEHPAVCUser@@@Z ; CCtrl::IsNearPC
  00293	85 c0		 test	 eax, eax
  00295	74 10		 je	 SHORT $LN7@DoUseParty
$LN41@DoUseParty:

; 385  : 									// ´ÜŔĺŔĚ Ĺ¸°ŮŔ¸·Î ÁýÁß°ř°Ý ÇĄ˝Ă
; 386  : 									for( i = 0; i < m_nSizeofMember; i ++ )

  00297	8b 45 ec	 mov	 eax, DWORD PTR _pLeader$1$[ebp]
  0029a	8b cf		 mov	 ecx, edi
  0029c	ff b0 40 8e 00
	00		 push	 DWORD PTR [eax+36416]
  002a2	e8 00 00 00 00	 call	 ?AddPartySkillBlitz@CUser@@QAEXK@Z ; CUser::AddPartySkillBlitz
$LN7@DoUseParty:
  002a7	8b 45 e8	 mov	 eax, DWORD PTR _i$2$[ebp]
  002aa	83 c3 1c	 add	 ebx, 28			; 0000001cH
  002ad	40		 inc	 eax
  002ae	89 45 e8	 mov	 DWORD PTR _i$2$[ebp], eax
  002b1	3b 86 cc 01 00
	00		 cmp	 eax, DWORD PTR [esi+460]
  002b7	7c a7		 jl	 SHORT $LL9@DoUseParty

; 565  : 				}
; 566  : 				//ŔĚ ˝şĹłŔş ąčżěÁö¸¦ ¸řÇß˝Ŕ´Ď´Ů.
; 567  : 			}
; 568  : #endif // __PARTYDEBUG
; 569  : 		}
; 570  : 	}
; 571  : 	else
; 572  : 	{
; 573  : 		// ¸®´ő°ˇ ľĆ´Ď°ĹłŞ ĽřČ¸±Ř´ÜŔĚ ľĆ´Ń°ćżě
; 574  : 	}
; 575  : #endif	// __WORLDSERVER
; 576  : }

  002b9	5f		 pop	 edi
  002ba	5e		 pop	 esi
  002bb	5b		 pop	 ebx
  002bc	8b 4d fc	 mov	 ecx, DWORD PTR __$ArrayPad$[ebp]
  002bf	33 cd		 xor	 ecx, ebp
  002c1	e8 00 00 00 00	 call	 @__security_check_cookie@4
  002c6	8b e5		 mov	 esp, ebp
  002c8	5d		 pop	 ebp
  002c9	c2 0c 00	 ret	 12			; 0000000cH
$LN34@DoUseParty:

; 398  : 													pMember->AddPartySkillBlitz( pLeader->m_idSetTarget );		// °˘ ¸âąöµéżˇ°Ô ´ÜŔĺĹ¸°ŮŔ¸·Î ŔâŔş ą«ąöŔÇ ľĆŔĚµđ¸¦ ş¸łż.
; 399  : 											}
; 400  : 										}
; 401  : 									}
; 402  : 								}
; 403  : 								else
; 404  : 								{
; 405  : 									pLeader->AddSendErrorParty( ERROR_NOTTARGET, ST_BLITZ );
; 406  : 								}
; 407  : 							}
; 408  : 							else
; 409  : 							{
; 410  : 								pLeader->AddSendErrorParty( ERROR_NOTTARGET, ST_BLITZ );

  002cc	6a 02		 push	 2
  002ce	68 cf 00 00 00	 push	 207			; 000000cfH
  002d3	8b ce		 mov	 ecx, esi

; 411  : 								// Ĺ¸°ŮŔ» ľČŔâľŇ´Ů.
; 412  : 							}
; 413  : 						}
; 414  : 						break;

  002d5	e9 9f 02 00 00	 jmp	 $LN227@DoUseParty
$LN43@DoUseParty:

; 415  : 					case ST_RETREAT:
; 416  : 						{
; 417  : 							g_DPCoreClient.SendRemovePartyPoint( uPartyId, pItemProp->dwExp );

  002da	8b 45 e4	 mov	 eax, DWORD PTR $T1[ebp]
  002dd	b9 00 00 00 00	 mov	 ecx, OFFSET ?g_DPCoreClient@@3VCDPCoreClient@@A ; g_DPCoreClient
  002e2	ff b0 14 02 00
	00		 push	 DWORD PTR [eax+532]
  002e8	ff 75 08	 push	 DWORD PTR _uPartyId$[ebp]
  002eb	e8 00 00 00 00	 call	 ?SendRemovePartyPoint@CDPCoreClient@@QAEXKH@Z ; CDPCoreClient::SendRemovePartyPoint

; 418  : 							// ČÄĹđ ÇĄ˝Ă
; 419  : 							CUser *pLeader = g_UserMng.GetUserByPlayerID( m_aMember[0].m_uPlayerId );	// ¸®´őŔÇ Ć÷ŔÎĹÍ

  002f0	ff 33		 push	 DWORD PTR [ebx]
  002f2	b9 00 00 00 00	 mov	 ecx, OFFSET ?g_UserMng@@3VCUserMng@@A ; g_UserMng
  002f7	e8 00 00 00 00	 call	 ?GetUserByPlayerID@CUserMng@@QAEPAVCUser@@K@Z ; CUserMng::GetUserByPlayerID
  002fc	89 45 e0	 mov	 DWORD PTR _pLeader$1$[ebp], eax
; File C:\IAGOS\server\v18\Source\Source\_Common\Obj.h

; 327  : 	return pObj && ( pObj->IsDelete() == FALSE ); 

  002ff	85 c0		 test	 eax, eax
  00301	0f 84 77 02 00
	00		 je	 $LN67@DoUseParty

; 180  : 	BOOL			IsDelete()	{ return (m_dwFlags & OBJ_FLAG_DELETE);  }

  00307	f6 40 04 01	 test	 BYTE PTR [eax+4], 1

; 327  : 	return pObj && ( pObj->IsDelete() == FALSE ); 

  0030b	0f 85 6d 02 00
	00		 jne	 $LN67@DoUseParty
; File C:\IAGOS\server\v18\Source\Source\_common\party.cpp

; 423  : 							for( i = 0; i < m_nSizeofMember; i ++ )

  00311	8b 75 dc	 mov	 esi, DWORD PTR _this$GSCopy$1$[ebp]
  00314	c7 45 ec 00 00
	00 00		 mov	 DWORD PTR _i$3$[ebp], 0
  0031b	83 be cc 01 00
	00 00		 cmp	 DWORD PTR [esi+460], 0
  00322	0f 8e 56 02 00
	00		 jle	 $LN67@DoUseParty
  00328	0f 1f 84 00 00
	00 00 00	 npad	 8
$LL12@DoUseParty:

; 424  : 							{
; 425  : 								pMember		= g_UserMng.GetUserByPlayerID( m_aMember[i].m_uPlayerId );

  00330	ff 33		 push	 DWORD PTR [ebx]
  00332	b9 00 00 00 00	 mov	 ecx, OFFSET ?g_UserMng@@3VCUserMng@@A ; g_UserMng
  00337	e8 00 00 00 00	 call	 ?GetUserByPlayerID@CUserMng@@QAEPAVCUser@@K@Z ; CUserMng::GetUserByPlayerID
  0033c	8b f8		 mov	 edi, eax
; File C:\IAGOS\server\v18\Source\Source\_Common\Obj.h

; 327  : 	return pObj && ( pObj->IsDelete() == FALSE ); 

  0033e	85 ff		 test	 edi, edi
  00340	74 37		 je	 SHORT $LN10@DoUseParty

; 180  : 	BOOL			IsDelete()	{ return (m_dwFlags & OBJ_FLAG_DELETE);  }

  00342	f6 47 04 01	 test	 BYTE PTR [edi+4], 1

; 327  : 	return pObj && ( pObj->IsDelete() == FALSE ); 

  00346	75 31		 jne	 SHORT $LN10@DoUseParty
; File C:\IAGOS\server\v18\Source\Source\_common\party.cpp

; 428  : 									if( m_nModeTime[PARTY_GIFTBOX_MODE] || m_nModeTime[PARTY_FORTUNECIRCLE_MODE] )

  00348	83 be f8 01 00
	00 00		 cmp	 DWORD PTR [esi+504], 0
  0034f	75 16		 jne	 SHORT $LN48@DoUseParty
  00351	83 be f0 01 00
	00 00		 cmp	 DWORD PTR [esi+496], 0
  00358	75 0d		 jne	 SHORT $LN48@DoUseParty

; 429  : 									{
; 430  : 										pMember->AddHdr( pMember->GetId(), SNAPSHOTTYPE_PARTYSKILL_RETREAT );
; 431  : 									}
; 432  : 									else
; 433  : 									{
; 434  : 										if( pLeader->IsNearPC( pMember ) )

  0035a	8b 4d e0	 mov	 ecx, DWORD PTR _pLeader$1$[ebp]
  0035d	57		 push	 edi
  0035e	e8 00 00 00 00	 call	 ?IsNearPC@CCtrl@@QAEHPAVCUser@@@Z ; CCtrl::IsNearPC
  00363	85 c0		 test	 eax, eax
  00365	74 12		 je	 SHORT $LN10@DoUseParty
$LN48@DoUseParty:

; 423  : 							for( i = 0; i < m_nSizeofMember; i ++ )

  00367	68 8c 00 00 00	 push	 140			; 0000008cH
  0036c	ff b7 bc 01 00
	00		 push	 DWORD PTR [edi+444]
  00372	8b cf		 mov	 ecx, edi
  00374	e8 00 00 00 00	 call	 ?AddHdr@CUser@@QAEXKG@Z	; CUser::AddHdr
$LN10@DoUseParty:
  00379	8b 45 ec	 mov	 eax, DWORD PTR _i$3$[ebp]
  0037c	83 c3 1c	 add	 ebx, 28			; 0000001cH
  0037f	40		 inc	 eax
  00380	89 45 ec	 mov	 DWORD PTR _i$3$[ebp], eax
  00383	3b 86 cc 01 00
	00		 cmp	 eax, DWORD PTR [esi+460]
  00389	7c a5		 jl	 SHORT $LL12@DoUseParty

; 565  : 				}
; 566  : 				//ŔĚ ˝şĹłŔş ąčżěÁö¸¦ ¸řÇß˝Ŕ´Ď´Ů.
; 567  : 			}
; 568  : #endif // __PARTYDEBUG
; 569  : 		}
; 570  : 	}
; 571  : 	else
; 572  : 	{
; 573  : 		// ¸®´ő°ˇ ľĆ´Ď°ĹłŞ ĽřČ¸±Ř´ÜŔĚ ľĆ´Ń°ćżě
; 574  : 	}
; 575  : #endif	// __WORLDSERVER
; 576  : }

  0038b	5f		 pop	 edi
  0038c	5e		 pop	 esi
  0038d	5b		 pop	 ebx
  0038e	8b 4d fc	 mov	 ecx, DWORD PTR __$ArrayPad$[ebp]
  00391	33 cd		 xor	 ecx, ebp
  00393	e8 00 00 00 00	 call	 @__security_check_cookie@4
  00398	8b e5		 mov	 esp, ebp
  0039a	5d		 pop	 ebp
  0039b	c2 0c 00	 ret	 12			; 0000000cH
$LN50@DoUseParty:

; 435  : 											pMember->AddHdr( pMember->GetId(), SNAPSHOTTYPE_PARTYSKILL_RETREAT );
; 436  : 									}
; 437  : 								}
; 438  : 							}
; 439  : 						}
; 440  : 						break;
; 441  : 					case ST_SPHERECIRCLE:
; 442  : 						{
; 443  : 							// Ĺ©¸®ĆĽÄĂ Č®·ü
; 444  : 							CUser *pLeader = g_UserMng.GetUserByPlayerID( m_aMember[0].m_uPlayerId );	// ¸®´őŔÇ Ć÷ŔÎĹÍ

  0039e	ff 33		 push	 DWORD PTR [ebx]
  003a0	b9 00 00 00 00	 mov	 ecx, OFFSET ?g_UserMng@@3VCUserMng@@A ; g_UserMng
  003a5	e8 00 00 00 00	 call	 ?GetUserByPlayerID@CUserMng@@QAEPAVCUser@@K@Z ; CUserMng::GetUserByPlayerID
  003aa	8b f0		 mov	 esi, eax
  003ac	89 75 ec	 mov	 DWORD PTR _pLeader$1$[ebp], esi
; File C:\IAGOS\server\v18\Source\Source\_Common\Obj.h

; 327  : 	return pObj && ( pObj->IsDelete() == FALSE ); 

  003af	85 f6		 test	 esi, esi
  003b1	0f 84 c7 01 00
	00		 je	 $LN67@DoUseParty

; 180  : 	BOOL			IsDelete()	{ return (m_dwFlags & OBJ_FLAG_DELETE);  }

  003b7	f6 46 04 01	 test	 BYTE PTR [esi+4], 1

; 327  : 	return pObj && ( pObj->IsDelete() == FALSE ); 

  003bb	0f 85 bd 01 00
	00		 jne	 $LN67@DoUseParty
; File C:\IAGOS\server\v18\Source\Source\_common\party.cpp

; 448  : 							if( pLeader->m_idSetTarget != NULL_ID )

  003c1	8b 86 40 8e 00
	00		 mov	 eax, DWORD PTR [esi+36416]
  003c7	83 f8 ff	 cmp	 eax, -1
  003ca	0f 84 c8 00 00
	00		 je	 $LN52@DoUseParty

; 449  : 							{
; 450  : 								CMover * pT = prj.GetMover( pLeader->m_idSetTarget );

  003d0	50		 push	 eax
  003d1	b9 00 00 00 00	 mov	 ecx, OFFSET ?prj@@3VCProject@@A ; prj
  003d6	e8 00 00 00 00	 call	 ?GetMover@CProject@@QAEPAVCMover@@K@Z ; CProject::GetMover

; 451  : 								if( pT && !pT->IsPlayer() )

  003db	85 c0		 test	 eax, eax
  003dd	0f 84 b5 00 00
	00		 je	 $LN52@DoUseParty
  003e3	83 b8 30 02 00
	00 00		 cmp	 DWORD PTR [eax+560], 0
  003ea	0f 85 a8 00 00
	00		 jne	 $LN52@DoUseParty

; 452  : 								{
; 453  : 									g_DPCoreClient.SendRemovePartyPoint( uPartyId, pItemProp->dwExp );

  003f0	8b 45 e4	 mov	 eax, DWORD PTR $T1[ebp]
  003f3	b9 00 00 00 00	 mov	 ecx, OFFSET ?g_DPCoreClient@@3VCDPCoreClient@@A ; g_DPCoreClient
  003f8	ff b0 14 02 00
	00		 push	 DWORD PTR [eax+532]
  003fe	ff 75 08	 push	 DWORD PTR _uPartyId$[ebp]
  00401	e8 00 00 00 00	 call	 ?SendRemovePartyPoint@CDPCoreClient@@QAEXKH@Z ; CDPCoreClient::SendRemovePartyPoint

; 454  : 									for( i = 0; i < m_nSizeofMember; i ++ )

  00406	8b 75 dc	 mov	 esi, DWORD PTR _this$GSCopy$1$[ebp]
  00409	c7 45 e8 00 00
	00 00		 mov	 DWORD PTR _i$4$[ebp], 0
  00410	83 be cc 01 00
	00 00		 cmp	 DWORD PTR [esi+460], 0
  00417	0f 8e 61 01 00
	00		 jle	 $LN67@DoUseParty
  0041d	0f 1f 00	 npad	 3
$LL15@DoUseParty:

; 455  : 									{
; 456  : 										pMember		= g_UserMng.GetUserByPlayerID( m_aMember[i].m_uPlayerId );

  00420	ff 33		 push	 DWORD PTR [ebx]
  00422	b9 00 00 00 00	 mov	 ecx, OFFSET ?g_UserMng@@3VCUserMng@@A ; g_UserMng
  00427	e8 00 00 00 00	 call	 ?GetUserByPlayerID@CUserMng@@QAEPAVCUser@@K@Z ; CUserMng::GetUserByPlayerID
  0042c	8b f8		 mov	 edi, eax
; File C:\IAGOS\server\v18\Source\Source\_Common\Obj.h

; 327  : 	return pObj && ( pObj->IsDelete() == FALSE ); 

  0042e	85 ff		 test	 edi, edi
  00430	74 41		 je	 SHORT $LN13@DoUseParty

; 180  : 	BOOL			IsDelete()	{ return (m_dwFlags & OBJ_FLAG_DELETE);  }

  00432	f6 47 04 01	 test	 BYTE PTR [edi+4], 1

; 327  : 	return pObj && ( pObj->IsDelete() == FALSE ); 

  00436	75 3b		 jne	 SHORT $LN13@DoUseParty
; File C:\IAGOS\server\v18\Source\Source\_common\party.cpp

; 459  : 											if( m_nModeTime[PARTY_GIFTBOX_MODE] || m_nModeTime[PARTY_FORTUNECIRCLE_MODE] )

  00438	83 be f8 01 00
	00 00		 cmp	 DWORD PTR [esi+504], 0
  0043f	75 16		 jne	 SHORT $LN59@DoUseParty
  00441	83 be f0 01 00
	00 00		 cmp	 DWORD PTR [esi+496], 0
  00448	75 0d		 jne	 SHORT $LN59@DoUseParty

; 460  : 											{
; 461  : 												pMember->AddHdr( pLeader->m_idSetTarget, SNAPSHOTTYPE_PARTYSKILL_SPHERECIRCLE );
; 462  : 												pMember->m_dwFlag |= MVRF_CRITICAL;
; 463  : 											}
; 464  : 											else
; 465  : 											{
; 466  : 												if( pLeader->IsNearPC( pMember ) )

  0044a	8b 4d ec	 mov	 ecx, DWORD PTR _pLeader$1$[ebp]
  0044d	57		 push	 edi
  0044e	e8 00 00 00 00	 call	 ?IsNearPC@CCtrl@@QAEHPAVCUser@@@Z ; CCtrl::IsNearPC
  00453	85 c0		 test	 eax, eax
  00455	74 1c		 je	 SHORT $LN13@DoUseParty
$LN59@DoUseParty:

; 454  : 									for( i = 0; i < m_nSizeofMember; i ++ )

  00457	8b 45 ec	 mov	 eax, DWORD PTR _pLeader$1$[ebp]
  0045a	8b cf		 mov	 ecx, edi
  0045c	68 8e 00 00 00	 push	 142			; 0000008eH
  00461	ff b0 40 8e 00
	00		 push	 DWORD PTR [eax+36416]
  00467	e8 00 00 00 00	 call	 ?AddHdr@CUser@@QAEXKG@Z	; CUser::AddHdr
  0046c	83 8f 44 02 00
	00 02		 or	 DWORD PTR [edi+580], 2
$LN13@DoUseParty:
  00473	8b 45 e8	 mov	 eax, DWORD PTR _i$4$[ebp]
  00476	83 c3 1c	 add	 ebx, 28			; 0000001cH
  00479	40		 inc	 eax
  0047a	89 45 e8	 mov	 DWORD PTR _i$4$[ebp], eax
  0047d	3b 86 cc 01 00
	00		 cmp	 eax, DWORD PTR [esi+460]
  00483	7c 9b		 jl	 SHORT $LL15@DoUseParty

; 565  : 				}
; 566  : 				//ŔĚ ˝şĹłŔş ąčżěÁö¸¦ ¸řÇß˝Ŕ´Ď´Ů.
; 567  : 			}
; 568  : #endif // __PARTYDEBUG
; 569  : 		}
; 570  : 	}
; 571  : 	else
; 572  : 	{
; 573  : 		// ¸®´ő°ˇ ľĆ´Ď°ĹłŞ ĽřČ¸±Ř´ÜŔĚ ľĆ´Ń°ćżě
; 574  : 	}
; 575  : #endif	// __WORLDSERVER
; 576  : }

  00485	5f		 pop	 edi
  00486	5e		 pop	 esi
  00487	5b		 pop	 ebx
  00488	8b 4d fc	 mov	 ecx, DWORD PTR __$ArrayPad$[ebp]
  0048b	33 cd		 xor	 ecx, ebp
  0048d	e8 00 00 00 00	 call	 @__security_check_cookie@4
  00492	8b e5		 mov	 esp, ebp
  00494	5d		 pop	 ebp
  00495	c2 0c 00	 ret	 12			; 0000000cH
$LN52@DoUseParty:

; 467  : 												{
; 468  : 													pMember->AddHdr( pLeader->m_idSetTarget, SNAPSHOTTYPE_PARTYSKILL_SPHERECIRCLE );
; 469  : 													pMember->m_dwFlag |= MVRF_CRITICAL;
; 470  : 												}
; 471  : 											}
; 472  : 										}
; 473  : 									}
; 474  : 								}
; 475  : 								else
; 476  : 								{
; 477  : 									pLeader->AddSendErrorParty( ERROR_NOTTARGET, ST_SPHERECIRCLE );
; 478  : 									// Ĺ¸°ŮŔĚ ¸ó˝şĹÍ°ˇ ľĆ´Ď´Ů
; 479  : 								}
; 480  : 							}
; 481  : 							else
; 482  : 							{
; 483  : 								pLeader->AddSendErrorParty( ERROR_NOTTARGET, ST_SPHERECIRCLE );

  00498	6a 04		 push	 4
  0049a	68 cf 00 00 00	 push	 207			; 000000cfH
  0049f	8b ce		 mov	 ecx, esi

; 484  : 								// Ĺ¸°ŮŔ» ľČŔâľŇ´Ů.
; 485  : 							}
; 486  : //							g_DPCoreClient.SendSetPartyExp( uLeaderid, m_nPoint );
; 487  : 						}
; 488  : 						break;

  004a1	e9 d3 00 00 00	 jmp	 $LN227@DoUseParty
$LN61@DoUseParty:

; 489  : 
; 490  : #if __VER >= 12 // __JHMA_VER12_1	//12Â÷ ±Ř´ÜŔŻ·áľĆŔĚĹŰ
; 491  : 					case ST_LINKATTACK:
; 492  : 						{
; 493  : 							// µĄąĚÁö Áő°ˇ
; 494  : 							g_DPCoreClient.SendUserPartySkill( uLeaderid, PARTY_LINKATTACK_MODE, dwSkillTime, nRemovePoint, nHasCashSkill );

  004a6	ff 75 e8	 push	 DWORD PTR _nHasCashSkill$1$[ebp]
  004a9	ff 75 ec	 push	 DWORD PTR _nRemovePoint$1$[ebp]
  004ac	52		 push	 edx
  004ad	6a 00		 push	 0
  004af	51		 push	 ecx
  004b0	b9 00 00 00 00	 mov	 ecx, OFFSET ?g_DPCoreClient@@3VCDPCoreClient@@A ; g_DPCoreClient
  004b5	e8 00 00 00 00	 call	 ?SendUserPartySkill@CDPCoreClient@@QAEXKHKHH@Z ; CDPCoreClient::SendUserPartySkill
  004ba	5f		 pop	 edi

; 565  : 				}
; 566  : 				//ŔĚ ˝şĹłŔş ąčżěÁö¸¦ ¸řÇß˝Ŕ´Ď´Ů.
; 567  : 			}
; 568  : #endif // __PARTYDEBUG
; 569  : 		}
; 570  : 	}
; 571  : 	else
; 572  : 	{
; 573  : 		// ¸®´ő°ˇ ľĆ´Ď°ĹłŞ ĽřČ¸±Ř´ÜŔĚ ľĆ´Ń°ćżě
; 574  : 	}
; 575  : #endif	// __WORLDSERVER
; 576  : }

  004bb	5e		 pop	 esi
  004bc	5b		 pop	 ebx
  004bd	8b 4d fc	 mov	 ecx, DWORD PTR __$ArrayPad$[ebp]
  004c0	33 cd		 xor	 ecx, ebp
  004c2	e8 00 00 00 00	 call	 @__security_check_cookie@4
  004c7	8b e5		 mov	 esp, ebp
  004c9	5d		 pop	 ebp
  004ca	c2 0c 00	 ret	 12			; 0000000cH
$LN62@DoUseParty:

; 495  : 						}
; 496  : 						break;
; 497  : 					case ST_FORTUNECIRCLE:
; 498  : 						{
; 499  : 							// ŔŻ´ĎĹ© ľĆŔĚĹŰ ąß»ýČ®·ü Áő°ˇ
; 500  : 								g_DPCoreClient.SendUserPartySkill( uLeaderid, PARTY_FORTUNECIRCLE_MODE, dwSkillTime, nRemovePoint, nHasCashSkill );

  004cd	ff 75 e8	 push	 DWORD PTR _nHasCashSkill$1$[ebp]
  004d0	ff 75 ec	 push	 DWORD PTR _nRemovePoint$1$[ebp]
  004d3	52		 push	 edx
  004d4	6a 01		 push	 1
  004d6	51		 push	 ecx
  004d7	b9 00 00 00 00	 mov	 ecx, OFFSET ?g_DPCoreClient@@3VCDPCoreClient@@A ; g_DPCoreClient
  004dc	e8 00 00 00 00	 call	 ?SendUserPartySkill@CDPCoreClient@@QAEXKHKHH@Z ; CDPCoreClient::SendUserPartySkill
  004e1	5f		 pop	 edi

; 565  : 				}
; 566  : 				//ŔĚ ˝şĹłŔş ąčżěÁö¸¦ ¸řÇß˝Ŕ´Ď´Ů.
; 567  : 			}
; 568  : #endif // __PARTYDEBUG
; 569  : 		}
; 570  : 	}
; 571  : 	else
; 572  : 	{
; 573  : 		// ¸®´ő°ˇ ľĆ´Ď°ĹłŞ ĽřČ¸±Ř´ÜŔĚ ľĆ´Ń°ćżě
; 574  : 	}
; 575  : #endif	// __WORLDSERVER
; 576  : }

  004e2	5e		 pop	 esi
  004e3	5b		 pop	 ebx
  004e4	8b 4d fc	 mov	 ecx, DWORD PTR __$ArrayPad$[ebp]
  004e7	33 cd		 xor	 ecx, ebp
  004e9	e8 00 00 00 00	 call	 @__security_check_cookie@4
  004ee	8b e5		 mov	 esp, ebp
  004f0	5d		 pop	 ebp
  004f1	c2 0c 00	 ret	 12			; 0000000cH
$LN63@DoUseParty:

; 501  : 						}
; 502  : 						break;
; 503  : 					case ST_STRETCHING:
; 504  : 						{
; 505  : 							// ˝¬´Â°ćżě Č¸şąĽÓµµ łôż©ÁÜ
; 506  : 							g_DPCoreClient.SendUserPartySkill( uLeaderid, PARTY_STRETCHING_MODE, dwSkillTime, nRemovePoint, nHasCashSkill );

  004f4	ff 75 e8	 push	 DWORD PTR _nHasCashSkill$1$[ebp]
  004f7	ff 75 ec	 push	 DWORD PTR _nRemovePoint$1$[ebp]
  004fa	52		 push	 edx
  004fb	6a 02		 push	 2
  004fd	51		 push	 ecx
  004fe	b9 00 00 00 00	 mov	 ecx, OFFSET ?g_DPCoreClient@@3VCDPCoreClient@@A ; g_DPCoreClient
  00503	e8 00 00 00 00	 call	 ?SendUserPartySkill@CDPCoreClient@@QAEXKHKHH@Z ; CDPCoreClient::SendUserPartySkill
  00508	5f		 pop	 edi

; 565  : 				}
; 566  : 				//ŔĚ ˝şĹłŔş ąčżěÁö¸¦ ¸řÇß˝Ŕ´Ď´Ů.
; 567  : 			}
; 568  : #endif // __PARTYDEBUG
; 569  : 		}
; 570  : 	}
; 571  : 	else
; 572  : 	{
; 573  : 		// ¸®´ő°ˇ ľĆ´Ď°ĹłŞ ĽřČ¸±Ř´ÜŔĚ ľĆ´Ń°ćżě
; 574  : 	}
; 575  : #endif	// __WORLDSERVER
; 576  : }

  00509	5e		 pop	 esi
  0050a	5b		 pop	 ebx
  0050b	8b 4d fc	 mov	 ecx, DWORD PTR __$ArrayPad$[ebp]
  0050e	33 cd		 xor	 ecx, ebp
  00510	e8 00 00 00 00	 call	 @__security_check_cookie@4
  00515	8b e5		 mov	 esp, ebp
  00517	5d		 pop	 ebp
  00518	c2 0c 00	 ret	 12			; 0000000cH
$LN64@DoUseParty:

; 507  : 						}
; 508  : 						break;
; 509  : 					case ST_GIFTBOX:
; 510  : 						{
; 511  : 							// ľĆŔĚĹŰ ľçŔĚ µÎąč
; 512  : 							g_DPCoreClient.SendUserPartySkill( uLeaderid, PARTY_GIFTBOX_MODE, dwSkillTime, nRemovePoint, nHasCashSkill );

  0051b	ff 75 e8	 push	 DWORD PTR _nHasCashSkill$1$[ebp]
  0051e	ff 75 ec	 push	 DWORD PTR _nRemovePoint$1$[ebp]
  00521	52		 push	 edx
  00522	6a 03		 push	 3
  00524	51		 push	 ecx
  00525	b9 00 00 00 00	 mov	 ecx, OFFSET ?g_DPCoreClient@@3VCDPCoreClient@@A ; g_DPCoreClient
  0052a	e8 00 00 00 00	 call	 ?SendUserPartySkill@CDPCoreClient@@QAEXKHKHH@Z ; CDPCoreClient::SendUserPartySkill
  0052f	5f		 pop	 edi

; 565  : 				}
; 566  : 				//ŔĚ ˝şĹłŔş ąčżěÁö¸¦ ¸řÇß˝Ŕ´Ď´Ů.
; 567  : 			}
; 568  : #endif // __PARTYDEBUG
; 569  : 		}
; 570  : 	}
; 571  : 	else
; 572  : 	{
; 573  : 		// ¸®´ő°ˇ ľĆ´Ď°ĹłŞ ĽřČ¸±Ř´ÜŔĚ ľĆ´Ń°ćżě
; 574  : 	}
; 575  : #endif	// __WORLDSERVER
; 576  : }

  00530	5e		 pop	 esi
  00531	5b		 pop	 ebx
  00532	8b 4d fc	 mov	 ecx, DWORD PTR __$ArrayPad$[ebp]
  00535	33 cd		 xor	 ecx, ebp
  00537	e8 00 00 00 00	 call	 @__security_check_cookie@4
  0053c	8b e5		 mov	 esp, ebp
  0053e	5d		 pop	 ebp
  0053f	c2 0c 00	 ret	 12			; 0000000cH
$LN27@DoUseParty:

; 513  : 						}
; 514  : 						break;
; 515  : #else	//12Â÷ ±Ř´ÜŔŻ·áľĆŔĚĹŰ
; 516  : 					case ST_LINKATTACK:
; 517  : 						{
; 518  : 							// µĄąĚÁö Áő°ˇ
; 519  : 							g_DPCoreClient.SendUserPartySkill( uLeaderid, PARTY_LINKATTACK_MODE, dwSkillTime, nRemovePoint );
; 520  : 						}
; 521  : 						break;
; 522  : 					case ST_FORTUNECIRCLE:
; 523  : 						{
; 524  : 							// ŔŻ´ĎĹ© ľĆŔĚĹŰ ąß»ýČ®·ü Áő°ˇ
; 525  : 								g_DPCoreClient.SendUserPartySkill( uLeaderid, PARTY_FORTUNECIRCLE_MODE, dwSkillTime, nRemovePoint );
; 526  : 						}
; 527  : 						break;
; 528  : 					case ST_STRETCHING:
; 529  : 						{
; 530  : 							// ˝¬´Â°ćżě Č¸şąĽÓµµ łôż©ÁÜ
; 531  : 							g_DPCoreClient.SendUserPartySkill( uLeaderid, PARTY_STRETCHING_MODE, dwSkillTime, nRemovePoint );
; 532  : 						}
; 533  : 						break;
; 534  : 					case ST_GIFTBOX:
; 535  : 						{
; 536  : 							// ľĆŔĚĹŰ ľçŔĚ µÎąč
; 537  : 							g_DPCoreClient.SendUserPartySkill( uLeaderid, PARTY_GIFTBOX_MODE, dwSkillTime, nRemovePoint );
; 538  : 						}
; 539  : 						break;
; 540  : #endif // //12Â÷ ±Ř´ÜŔŻ·áľĆŔĚĹŰ
; 541  : 					default:
; 542  : 						break;
; 543  : 					}
; 544  : 				}
; 545  : #ifndef __PARTYDEBUG
; 546  : 				else
; 547  : 				{
; 548  : 					CUser *pLeader = g_UserMng.GetUserByPlayerID( m_aMember[0].m_uPlayerId );	// ¸®´őŔÇ Ć÷ŔÎĹÍ

  00542	ff 33		 push	 DWORD PTR [ebx]
  00544	b9 00 00 00 00	 mov	 ecx, OFFSET ?g_UserMng@@3VCUserMng@@A ; g_UserMng
  00549	e8 00 00 00 00	 call	 ?GetUserByPlayerID@CUserMng@@QAEPAVCUser@@K@Z ; CUserMng::GetUserByPlayerID
; File C:\IAGOS\server\v18\Source\Source\_Common\Obj.h

; 327  : 	return pObj && ( pObj->IsDelete() == FALSE ); 

  0054e	85 c0		 test	 eax, eax
  00550	74 2c		 je	 SHORT $LN67@DoUseParty

; 180  : 	BOOL			IsDelete()	{ return (m_dwFlags & OBJ_FLAG_DELETE);  }

  00552	f6 40 04 01	 test	 BYTE PTR [eax+4], 1

; 327  : 	return pObj && ( pObj->IsDelete() == FALSE ); 

  00556	75 26		 jne	 SHORT $LN67@DoUseParty
; File C:\IAGOS\server\v18\Source\Source\_common\party.cpp

; 551  : 						pLeader->AddSendErrorParty( ERROR_NOTPARTYPOINT );

  00558	6a 00		 push	 0
  0055a	68 cd 00 00 00	 push	 205			; 000000cdH

; 552  : 					}
; 553  : 					//Ć÷ŔÎĆ®°ˇ ¸đŔÚ¶ó ˝şĹłŔ»»çżëÇŇĽö ľř˝Ŕ´Ď´Ů.
; 554  : 					
; 555  : 				}
; 556  : #endif // __PARTYDEBUG
; 557  : 			}

  0055f	eb 16		 jmp	 SHORT $LN228@DoUseParty
$LN19@DoUseParty:

; 558  : #ifndef __PARTYDEBUG
; 559  : 			else
; 560  : 			{
; 561  : 				CUser *pLeader = g_UserMng.GetUserByPlayerID( m_aMember[0].m_uPlayerId );	// ¸®´őŔÇ Ć÷ŔÎĹÍ

  00561	e8 00 00 00 00	 call	 ?GetUserByPlayerID@CUserMng@@QAEPAVCUser@@K@Z ; CUserMng::GetUserByPlayerID
; File C:\IAGOS\server\v18\Source\Source\_Common\Obj.h

; 327  : 	return pObj && ( pObj->IsDelete() == FALSE ); 

  00566	85 c0		 test	 eax, eax
  00568	74 14		 je	 SHORT $LN67@DoUseParty

; 180  : 	BOOL			IsDelete()	{ return (m_dwFlags & OBJ_FLAG_DELETE);  }

  0056a	f6 40 04 01	 test	 BYTE PTR [eax+4], 1

; 327  : 	return pObj && ( pObj->IsDelete() == FALSE ); 

  0056e	75 0e		 jne	 SHORT $LN67@DoUseParty
; File C:\IAGOS\server\v18\Source\Source\_common\party.cpp

; 564  : 					pLeader->AddSendErrorParty( ERROR_NOTPARTYSKILL );

  00570	6a 00		 push	 0
  00572	68 ce 00 00 00	 push	 206			; 000000ceH
$LN228@DoUseParty:

; 565  : 				}
; 566  : 				//ŔĚ ˝şĹłŔş ąčżěÁö¸¦ ¸řÇß˝Ŕ´Ď´Ů.
; 567  : 			}
; 568  : #endif // __PARTYDEBUG
; 569  : 		}
; 570  : 	}
; 571  : 	else
; 572  : 	{
; 573  : 		// ¸®´ő°ˇ ľĆ´Ď°ĹłŞ ĽřČ¸±Ř´ÜŔĚ ľĆ´Ń°ćżě
; 574  : 	}
; 575  : #endif	// __WORLDSERVER
; 576  : }

  00577	8b c8		 mov	 ecx, eax
$LN227@DoUseParty:
  00579	e8 00 00 00 00	 call	 ?AddSendErrorParty@CUser@@QAEXKK@Z ; CUser::AddSendErrorParty
$LN67@DoUseParty:
  0057e	8b 4d fc	 mov	 ecx, DWORD PTR __$ArrayPad$[ebp]
  00581	5f		 pop	 edi
  00582	5e		 pop	 esi
  00583	33 cd		 xor	 ecx, ebp
  00585	5b		 pop	 ebx
  00586	e8 00 00 00 00	 call	 @__security_check_cookie@4
  0058b	8b e5		 mov	 esp, ebp
  0058d	5d		 pop	 ebp
  0058e	c2 0c 00	 ret	 12			; 0000000cH
  00591	0f 1f 00	 npad	 3
$LN173@DoUseParty:
  00594	00 00 00 00	 DD	 $LN29@DoUseParty
  00598	00 00 00 00	 DD	 $LN32@DoUseParty
  0059c	00 00 00 00	 DD	 $LN43@DoUseParty
  005a0	00 00 00 00	 DD	 $LN50@DoUseParty
  005a4	00 00 00 00	 DD	 $LN61@DoUseParty
  005a8	00 00 00 00	 DD	 $LN62@DoUseParty
  005ac	00 00 00 00	 DD	 $LN63@DoUseParty
  005b0	00 00 00 00	 DD	 $LN64@DoUseParty
?DoUsePartySkill@CParty@@QAEXKKH@Z ENDP			; CParty::DoUsePartySkill
_TEXT	ENDS
; Function compile flags: /Ogtp
; File C:\IAGOS\server\v18\Source\Source\_common\party.cpp
;	COMDAT ?SetPartyMode@CParty@@QAEXHKH@Z
_TEXT	SEGMENT
_nMode$ = 8						; size = 4
_dwSkillTime$ = 12					; size = 4
_nCachMode$ = 16					; size = 4
?SetPartyMode@CParty@@QAEXHKH@Z PROC			; CParty::SetPartyMode, COMDAT
; _this$ = ecx

; 244  : {

  00000	55		 push	 ebp
  00001	8b ec		 mov	 ebp, esp

; 245  : 	if( nCachMode == 1)

  00003	83 7d 10 01	 cmp	 DWORD PTR _nCachMode$[ebp], 1
  00007	8b 45 08	 mov	 eax, DWORD PTR _nMode$[ebp]
  0000a	8d 0c 81	 lea	 ecx, DWORD PTR [ecx+eax*4]
  0000d	75 13		 jne	 SHORT $LN2@SetPartyMo

; 246  :         m_nModeTime[nMode] += (int)dwSkillTime;	

  0000f	8b 81 ec 01 00
	00		 mov	 eax, DWORD PTR [ecx+492]
  00015	03 45 0c	 add	 eax, DWORD PTR _dwSkillTime$[ebp]

; 249  : }

  00018	89 81 ec 01 00
	00		 mov	 DWORD PTR [ecx+492], eax
  0001e	5d		 pop	 ebp
  0001f	c2 0c 00	 ret	 12			; 0000000cH
$LN2@SetPartyMo:

; 247  : 	else
; 248  : 		m_nModeTime[nMode] = (int)dwSkillTime;	

  00022	8b 45 0c	 mov	 eax, DWORD PTR _dwSkillTime$[ebp]

; 249  : }

  00025	89 81 ec 01 00
	00		 mov	 DWORD PTR [ecx+492], eax
  0002b	5d		 pop	 ebp
  0002c	c2 0c 00	 ret	 12			; 0000000cH
?SetPartyMode@CParty@@QAEXHKH@Z ENDP			; CParty::SetPartyMode
_TEXT	ENDS
; Function compile flags: /Ogtp
; File C:\IAGOS\server\v18\Source\Source\_common\party.cpp
;	COMDAT ?GetPartyModeTime@CParty@@QAEHH@Z
_TEXT	SEGMENT
_nMode$ = 8						; size = 4
?GetPartyModeTime@CParty@@QAEHH@Z PROC			; CParty::GetPartyModeTime, COMDAT
; _this$ = ecx

; 240  : {

  00000	55		 push	 ebp
  00001	8b ec		 mov	 ebp, esp

; 241  : 	return m_nModeTime[nMode];	

  00003	8b 45 08	 mov	 eax, DWORD PTR _nMode$[ebp]
  00006	8b 84 81 ec 01
	00 00		 mov	 eax, DWORD PTR [ecx+eax*4+492]

; 242  : }

  0000d	5d		 pop	 ebp
  0000e	c2 04 00	 ret	 4
?GetPartyModeTime@CParty@@QAEHH@Z ENDP			; CParty::GetPartyModeTime
_TEXT	ENDS
; Function compile flags: /Ogtp
; File C:\IAGOS\server\v18\Source\Source\_common\party.cpp
; File C:\Program Files\Microsoft Visual Studio\2022\Professional\VC\Tools\MSVC\14.44.35207\atlmfc\include\atltime.h
; File C:\IAGOS\server\v18\Source\Source\_common\party.cpp
; File C:\Program Files\Microsoft Visual Studio\2022\Professional\VC\Tools\MSVC\14.44.35207\atlmfc\include\atltime.h
; File C:\IAGOS\server\v18\Source\Source\_common\party.cpp
; File C:\Program Files\Microsoft Visual Studio\2022\Professional\VC\Tools\MSVC\14.44.35207\atlmfc\include\atltime.h
; File C:\IAGOS\server\v18\Source\Source\_common\party.cpp
;	COMDAT ?SwapPartyMember@CParty@@QAEXHH@Z
_TEXT	SEGMENT
_first$ = 8						; size = 4
_Second$ = 12						; size = 4
?SwapPartyMember@CParty@@QAEXHH@Z PROC			; CParty::SwapPartyMember, COMDAT
; _this$ = ecx

; 230  : {

  00000	55		 push	 ebp
  00001	8b ec		 mov	 ebp, esp
  00003	56		 push	 esi
  00004	57		 push	 edi
; File C:\Program Files\Microsoft Visual Studio\2022\Professional\VC\Tools\MSVC\14.44.35207\atlmfc\include\atltime.h

; 377  : 	return( CTime( ::_time64( NULL ) ) );

  00005	6a 00		 push	 0
; File C:\IAGOS\server\v18\Source\Source\_common\party.cpp

; 230  : {

  00007	8b f9		 mov	 edi, ecx
; File C:\Program Files\Microsoft Visual Studio\2022\Professional\VC\Tools\MSVC\14.44.35207\atlmfc\include\atltime.h

; 377  : 	return( CTime( ::_time64( NULL ) ) );

  00009	e8 00 00 00 00	 call	 __time64
; File C:\IAGOS\server\v18\Source\Source\_common\party.cpp

; 233  : 	memcpy( &PartyMemberBuf, &m_aMember[first], sizeof(PartyMember) );

  0000e	8b 45 08	 mov	 eax, DWORD PTR _first$[ebp]
; File C:\Program Files\Microsoft Visual Studio\2022\Professional\VC\Tools\MSVC\14.44.35207\atlmfc\include\atltime.h

; 377  : 	return( CTime( ::_time64( NULL ) ) );

  00011	83 c4 04	 add	 esp, 4
; File C:\IAGOS\server\v18\Source\Source\_common\party.cpp

; 233  : 	memcpy( &PartyMemberBuf, &m_aMember[first], sizeof(PartyMember) );

  00014	8d 14 c5 00 00
	00 00		 lea	 edx, DWORD PTR [eax*8]
  0001b	2b d0		 sub	 edx, eax

; 234  : 	memcpy( &m_aMember[first], &m_aMember[Second], sizeof(PartyMember) );

  0001d	8b 45 0c	 mov	 eax, DWORD PTR _Second$[ebp]
  00020	8b 74 97 40	 mov	 esi, DWORD PTR [edi+edx*4+64]
  00024	8d 0c c5 00 00
	00 00		 lea	 ecx, DWORD PTR [eax*8]
  0002b	0f 10 4c 97 28	 movups	 xmm1, XMMWORD PTR [edi+edx*4+40]
  00030	2b c8		 sub	 ecx, eax
  00032	f3 0f 7e 54 97
	38		 movq	 xmm2, QWORD PTR [edi+edx*4+56]
  00038	0f 10 44 8f 28	 movups	 xmm0, XMMWORD PTR [edi+ecx*4+40]
  0003d	0f 11 44 97 28	 movups	 XMMWORD PTR [edi+edx*4+40], xmm0
  00042	f3 0f 7e 44 8f
	38		 movq	 xmm0, QWORD PTR [edi+ecx*4+56]
  00048	66 0f d6 44 97
	38		 movq	 QWORD PTR [edi+edx*4+56], xmm0
  0004e	8b 44 8f 40	 mov	 eax, DWORD PTR [edi+ecx*4+64]
  00052	89 44 97 40	 mov	 DWORD PTR [edi+edx*4+64], eax

; 235  : 	memcpy( &m_aMember[Second], &PartyMemberBuf, sizeof(PartyMember) );

  00056	0f 11 4c 8f 28	 movups	 XMMWORD PTR [edi+ecx*4+40], xmm1
  0005b	66 0f d6 54 8f
	38		 movq	 QWORD PTR [edi+ecx*4+56], xmm2
  00061	89 74 8f 40	 mov	 DWORD PTR [edi+ecx*4+64], esi
  00065	5f		 pop	 edi
  00066	5e		 pop	 esi

; 236  : }

  00067	5d		 pop	 ebp
  00068	c2 08 00	 ret	 8
?SwapPartyMember@CParty@@QAEXHH@Z ENDP			; CParty::SwapPartyMember
_TEXT	ENDS
; Function compile flags: /Ogtp
; File C:\IAGOS\server\v18\Source\Source\_common\party.cpp
; File C:\IAGOS\server\v18\Source\Source\_Network\Misc\Include\ar.h
; File C:\IAGOS\server\v18\Source\Source\_common\party.cpp
; File C:\IAGOS\server\v18\Source\Source\_Network\Misc\Include\ar.h
; File C:\IAGOS\server\v18\Source\Source\_common\party.cpp
; File C:\IAGOS\server\v18\Source\Source\_Network\Misc\Include\ar.h
; File C:\IAGOS\server\v18\Source\Source\_common\party.cpp
; File C:\IAGOS\server\v18\Source\Source\_Network\Misc\Include\ar.h
; File C:\IAGOS\server\v18\Source\Source\_common\party.cpp
;	COMDAT ?Serialize@CParty@@QAEXAAVCAr@@@Z
_TEXT	SEGMENT
tv558 = -12						; size = 4
tv559 = -8						; size = 4
_this$1$ = -4						; size = 4
_ar$ = 8						; size = 4
?Serialize@CParty@@QAEXAAVCAr@@@Z PROC			; CParty::Serialize, COMDAT
; _this$ = ecx

; 174  : {

  00000	55		 push	 ebp
  00001	8b ec		 mov	 ebp, esp
  00003	83 ec 0c	 sub	 esp, 12			; 0000000cH
  00006	53		 push	 ebx
  00007	8b d9		 mov	 ebx, ecx
  00009	56		 push	 esi
; File C:\IAGOS\server\v18\Source\Source\_Network\Misc\Include\ar.h

; 146  : 	return (m_nMode & CAr::load) == 0;

  0000a	8b 75 08	 mov	 esi, DWORD PTR _ar$[ebp]
; File C:\IAGOS\server\v18\Source\Source\_common\party.cpp

; 174  : {

  0000d	57		 push	 edi
; File C:\IAGOS\server\v18\Source\Source\_Network\Misc\Include\ar.h

; 146  : 	return (m_nMode & CAr::load) == 0;

  0000e	8d 83 cc 01 00
	00		 lea	 eax, DWORD PTR [ebx+460]
; File C:\IAGOS\server\v18\Source\Source\_common\party.cpp

; 174  : {

  00014	89 5d fc	 mov	 DWORD PTR _this$1$[ebp], ebx
; File C:\IAGOS\server\v18\Source\Source\_Network\Misc\Include\ar.h

; 146  : 	return (m_nMode & CAr::load) == 0;

  00017	8d 8b e4 01 00
	00		 lea	 ecx, DWORD PTR [ebx+484]
  0001d	89 45 f8	 mov	 DWORD PTR tv559[ebp], eax
  00020	f6 06 01	 test	 BYTE PTR [esi], 1
  00023	8d bb d8 01 00
	00		 lea	 edi, DWORD PTR [ebx+472]
; File C:\IAGOS\server\v18\Source\Source\_common\party.cpp

; 175  : 	if( ar.IsStoring() )

  00029	50		 push	 eax
  0002a	51		 push	 ecx
; File C:\IAGOS\server\v18\Source\Source\_Network\Misc\Include\ar.h

; 146  : 	return (m_nMode & CAr::load) == 0;

  0002b	89 4d f4	 mov	 DWORD PTR tv558[ebp], ecx
; File C:\IAGOS\server\v18\Source\Source\_common\party.cpp

; 175  : 	if( ar.IsStoring() )

  0002e	8b ce		 mov	 ecx, esi
  00030	53		 push	 ebx
  00031	0f 85 d0 00 00
	00		 jne	 $LN14@Serialize

; 176  : 	{
; 177  : 		ar << m_uPartyId << m_nKindTroup << m_nSizeofMember;

  00037	e8 00 00 00 00	 call	 ??$?6K@CAr@@QAEAAV0@ABK@Z ; CAr::operator<<<unsigned long>
  0003c	8b c8		 mov	 ecx, eax
  0003e	e8 00 00 00 00	 call	 ??$?6H@CAr@@QAEAAV0@ABH@Z ; CAr::operator<<<int>
  00043	8b c8		 mov	 ecx, eax
  00045	e8 00 00 00 00	 call	 ??$?6H@CAr@@QAEAAV0@ABH@Z ; CAr::operator<<<int>

; 178  : 		ar << m_nLevel << m_nExp << m_nPoint;

  0004a	57		 push	 edi
  0004b	8d 83 d4 01 00
	00		 lea	 eax, DWORD PTR [ebx+468]
  00051	8b ce		 mov	 ecx, esi
  00053	50		 push	 eax
  00054	8d 83 d0 01 00
	00		 lea	 eax, DWORD PTR [ebx+464]
  0005a	50		 push	 eax
  0005b	e8 00 00 00 00	 call	 ??$?6J@CAr@@QAEAAV0@ABJ@Z ; CAr::operator<<<long>
  00060	8b c8		 mov	 ecx, eax
  00062	e8 00 00 00 00	 call	 ??$?6J@CAr@@QAEAAV0@ABJ@Z ; CAr::operator<<<long>
  00067	8b c8		 mov	 ecx, eax
  00069	e8 00 00 00 00	 call	 ??$?6J@CAr@@QAEAAV0@ABJ@Z ; CAr::operator<<<long>

; 179  : 		ar << m_nTroupsShareExp << m_nTroupeShareItem;

  0006e	8d 83 e0 01 00
	00		 lea	 eax, DWORD PTR [ebx+480]
  00074	8b ce		 mov	 ecx, esi
  00076	50		 push	 eax
  00077	8d 83 dc 01 00
	00		 lea	 eax, DWORD PTR [ebx+476]
  0007d	50		 push	 eax
  0007e	e8 00 00 00 00	 call	 ??$?6H@CAr@@QAEAAV0@ABH@Z ; CAr::operator<<<int>
  00083	8b c8		 mov	 ecx, eax
  00085	e8 00 00 00 00	 call	 ??$?6H@CAr@@QAEAAV0@ABH@Z ; CAr::operator<<<int>

; 180  : 		ar << m_idDuelParty;

  0008a	8d 83 04 02 00
	00		 lea	 eax, DWORD PTR [ebx+516]
  00090	8b ce		 mov	 ecx, esi
  00092	50		 push	 eax
  00093	e8 00 00 00 00	 call	 ??$?6K@CAr@@QAEAAV0@ABK@Z ; CAr::operator<<<unsigned long>
  00098	8d bb ec 01 00
	00		 lea	 edi, DWORD PTR [ebx+492]
  0009e	bb 05 00 00 00	 mov	 ebx, 5
$LL4@Serialize:

; 181  : 		for( int i = 0 ; i < MAX_PARTYMODE  ; i++ )
; 182  : 		{
; 183  : 			ar << m_nModeTime[i];

  000a3	57		 push	 edi
  000a4	8b ce		 mov	 ecx, esi
  000a6	e8 00 00 00 00	 call	 ??$?6H@CAr@@QAEAAV0@ABH@Z ; CAr::operator<<<int>
  000ab	83 c7 04	 add	 edi, 4
  000ae	83 eb 01	 sub	 ebx, 1
  000b1	75 f0		 jne	 SHORT $LL4@Serialize

; 184  : 		}
; 185  : 		if( m_nKindTroup )

  000b3	8b 45 f4	 mov	 eax, DWORD PTR tv558[ebp]
  000b6	39 18		 cmp	 DWORD PTR [eax], ebx
  000b8	8b 5d fc	 mov	 ebx, DWORD PTR _this$1$[ebp]
  000bb	74 0b		 je	 SHORT $LN16@Serialize

; 186  : 			ar.WriteString( m_sParty );

  000bd	8d 43 04	 lea	 eax, DWORD PTR [ebx+4]
  000c0	8b ce		 mov	 ecx, esi
  000c2	50		 push	 eax
  000c3	e8 00 00 00 00	 call	 ?WriteString@CAr@@QAEXPBD@Z ; CAr::WriteString
$LN16@Serialize:

; 187  : 		for( int i = 0 ; i < m_nSizeofMember ; i++ )

  000c8	8b 45 f8	 mov	 eax, DWORD PTR tv559[ebp]
  000cb	33 db		 xor	 ebx, ebx
  000cd	39 18		 cmp	 DWORD PTR [eax], ebx
  000cf	0f 8e f9 00 00
	00		 jle	 $LN12@Serialize
  000d5	8b 7d fc	 mov	 edi, DWORD PTR _this$1$[ebp]
  000d8	83 c7 34	 add	 edi, 52			; 00000034H
  000db	0f 1f 44 00 00	 npad	 5
$LL7@Serialize:

; 188  : 		{
; 189  : 			ar << m_aMember[i].m_uPlayerId;

  000e0	8d 47 f4	 lea	 eax, DWORD PTR [edi-12]
  000e3	8b ce		 mov	 ecx, esi
  000e5	50		 push	 eax
  000e6	e8 00 00 00 00	 call	 ??$?6K@CAr@@QAEAAV0@ABK@Z ; CAr::operator<<<unsigned long>

; 190  : #if __VER < 11 // __SYS_PLAYER_DATA
; 191  : 			ar << m_aMember[i].m_nLevel;
; 192  : 			ar << m_aMember[i].m_nJob;
; 193  : #endif	// __SYS_PLAYER_DATA
; 194  : 			ar << m_aMember[i].m_bRemove;

  000eb	57		 push	 edi
  000ec	8b ce		 mov	 ecx, esi
  000ee	e8 00 00 00 00	 call	 ??$?6H@CAr@@QAEAAV0@ABH@Z ; CAr::operator<<<int>
  000f3	8b 45 f8	 mov	 eax, DWORD PTR tv559[ebp]
  000f6	43		 inc	 ebx
  000f7	83 c7 1c	 add	 edi, 28			; 0000001cH
  000fa	3b 18		 cmp	 ebx, DWORD PTR [eax]
  000fc	7c e2		 jl	 SHORT $LL7@Serialize

; 221  : #if __VER < 11 // __SYS_PLAYER_DATA
; 222  : 			ar >> m_aMember[i].m_nSex;
; 223  : 			ar.ReadString( m_aMember[i].m_szName, 20 );
; 224  : #endif	// __SYS_PLAYER_DATA
; 225  : 		}
; 226  : 	}
; 227  : }

  000fe	5f		 pop	 edi
  000ff	5e		 pop	 esi
  00100	5b		 pop	 ebx
  00101	8b e5		 mov	 esp, ebp
  00103	5d		 pop	 ebp
  00104	c2 04 00	 ret	 4
$LN14@Serialize:

; 195  : #if __VER < 11 // __SYS_PLAYER_DATA
; 196  : 			ar << m_aMember[i].m_nSex;
; 197  : 			ar.WriteString( m_aMember[i].m_szName );
; 198  : #endif	// __SYS_PLAYER_DATA
; 199  : 		}
; 200  : 	}
; 201  : 	else
; 202  : 	{
; 203  : 		ar >> m_uPartyId >> m_nKindTroup >> m_nSizeofMember;

  00107	e8 00 00 00 00	 call	 ??$?5K@CAr@@QAEAAV0@AAK@Z ; CAr::operator>><unsigned long>
  0010c	8b c8		 mov	 ecx, eax
  0010e	e8 00 00 00 00	 call	 ??$?5H@CAr@@QAEAAV0@AAH@Z ; CAr::operator>><int>
  00113	8b c8		 mov	 ecx, eax
  00115	e8 00 00 00 00	 call	 ??$?5H@CAr@@QAEAAV0@AAH@Z ; CAr::operator>><int>

; 204  : 		ar >> m_nLevel >> m_nExp >> m_nPoint;

  0011a	57		 push	 edi
  0011b	8d 83 d4 01 00
	00		 lea	 eax, DWORD PTR [ebx+468]
  00121	8b ce		 mov	 ecx, esi
  00123	50		 push	 eax
  00124	8d 83 d0 01 00
	00		 lea	 eax, DWORD PTR [ebx+464]
  0012a	50		 push	 eax
  0012b	e8 00 00 00 00	 call	 ??$?5J@CAr@@QAEAAV0@AAJ@Z ; CAr::operator>><long>
  00130	8b c8		 mov	 ecx, eax
  00132	e8 00 00 00 00	 call	 ??$?5J@CAr@@QAEAAV0@AAJ@Z ; CAr::operator>><long>
  00137	8b c8		 mov	 ecx, eax
  00139	e8 00 00 00 00	 call	 ??$?5J@CAr@@QAEAAV0@AAJ@Z ; CAr::operator>><long>

; 205  : 		ar >> m_nTroupsShareExp >> m_nTroupeShareItem;

  0013e	8d 83 e0 01 00
	00		 lea	 eax, DWORD PTR [ebx+480]
  00144	8b ce		 mov	 ecx, esi
  00146	50		 push	 eax
  00147	8d 83 dc 01 00
	00		 lea	 eax, DWORD PTR [ebx+476]
  0014d	50		 push	 eax
  0014e	e8 00 00 00 00	 call	 ??$?5H@CAr@@QAEAAV0@AAH@Z ; CAr::operator>><int>
  00153	8b c8		 mov	 ecx, eax
  00155	e8 00 00 00 00	 call	 ??$?5H@CAr@@QAEAAV0@AAH@Z ; CAr::operator>><int>

; 206  : 		ar >> m_idDuelParty;

  0015a	8d 83 04 02 00
	00		 lea	 eax, DWORD PTR [ebx+516]
  00160	8b ce		 mov	 ecx, esi
  00162	50		 push	 eax
  00163	e8 00 00 00 00	 call	 ??$?5K@CAr@@QAEAAV0@AAK@Z ; CAr::operator>><unsigned long>
  00168	8d bb ec 01 00
	00		 lea	 edi, DWORD PTR [ebx+492]
  0016e	bb 05 00 00 00	 mov	 ebx, 5
$LL10@Serialize:

; 207  : 		for( int i = 0 ; i < MAX_PARTYMODE  ; i++ )
; 208  : 		{
; 209  : 			ar >> m_nModeTime[i];

  00173	57		 push	 edi
  00174	8b ce		 mov	 ecx, esi
  00176	e8 00 00 00 00	 call	 ??$?5H@CAr@@QAEAAV0@AAH@Z ; CAr::operator>><int>
  0017b	83 c7 04	 add	 edi, 4
  0017e	83 eb 01	 sub	 ebx, 1
  00181	75 f0		 jne	 SHORT $LL10@Serialize

; 210  : 		}
; 211  : 		if( m_nKindTroup )

  00183	8b 45 f4	 mov	 eax, DWORD PTR tv558[ebp]
  00186	39 18		 cmp	 DWORD PTR [eax], ebx
  00188	8b 5d fc	 mov	 ebx, DWORD PTR _this$1$[ebp]
  0018b	74 0d		 je	 SHORT $LN17@Serialize

; 212  : 			ar.ReadString( m_sParty, 33 );

  0018d	6a 21		 push	 33			; 00000021H
  0018f	8d 43 04	 lea	 eax, DWORD PTR [ebx+4]
  00192	8b ce		 mov	 ecx, esi
  00194	50		 push	 eax
  00195	e8 00 00 00 00	 call	 ?ReadString@CAr@@QAEPADPADH@Z ; CAr::ReadString
$LN17@Serialize:

; 213  : 		for( int i = 0 ; i < m_nSizeofMember ; i++ )

  0019a	8b 45 f8	 mov	 eax, DWORD PTR tv559[ebp]
  0019d	33 db		 xor	 ebx, ebx
  0019f	39 18		 cmp	 DWORD PTR [eax], ebx
  001a1	7e 2b		 jle	 SHORT $LN12@Serialize
  001a3	8b 7d fc	 mov	 edi, DWORD PTR _this$1$[ebp]
  001a6	83 c7 34	 add	 edi, 52			; 00000034H
  001a9	0f 1f 80 00 00
	00 00		 npad	 7
$LL13@Serialize:

; 214  : 		{
; 215  : 			ar >> m_aMember[i].m_uPlayerId;

  001b0	8d 47 f4	 lea	 eax, DWORD PTR [edi-12]
  001b3	8b ce		 mov	 ecx, esi
  001b5	50		 push	 eax
  001b6	e8 00 00 00 00	 call	 ??$?5K@CAr@@QAEAAV0@AAK@Z ; CAr::operator>><unsigned long>

; 216  : #if __VER < 11 // __SYS_PLAYER_DATA
; 217  : 			ar >> m_aMember[i].m_nLevel;
; 218  : 			ar >> m_aMember[i].m_nJob;
; 219  : #endif	// __SYS_PLAYER_DATA
; 220  : 			ar >> m_aMember[i].m_bRemove;

  001bb	57		 push	 edi
  001bc	8b ce		 mov	 ecx, esi
  001be	e8 00 00 00 00	 call	 ??$?5H@CAr@@QAEAAV0@AAH@Z ; CAr::operator>><int>
  001c3	8b 45 f8	 mov	 eax, DWORD PTR tv559[ebp]
  001c6	43		 inc	 ebx
  001c7	83 c7 1c	 add	 edi, 28			; 0000001cH
  001ca	3b 18		 cmp	 ebx, DWORD PTR [eax]
  001cc	7c e2		 jl	 SHORT $LL13@Serialize
$LN12@Serialize:
  001ce	5f		 pop	 edi

; 221  : #if __VER < 11 // __SYS_PLAYER_DATA
; 222  : 			ar >> m_aMember[i].m_nSex;
; 223  : 			ar.ReadString( m_aMember[i].m_szName, 20 );
; 224  : #endif	// __SYS_PLAYER_DATA
; 225  : 		}
; 226  : 	}
; 227  : }

  001cf	5e		 pop	 esi
  001d0	5b		 pop	 ebx
  001d1	8b e5		 mov	 esp, ebp
  001d3	5d		 pop	 ebp
  001d4	c2 04 00	 ret	 4
?Serialize@CParty@@QAEXAAVCAr@@@Z ENDP			; CParty::Serialize
_TEXT	ENDS
; Function compile flags: /Ogtp
; File C:\IAGOS\server\v18\Source\Source\_common\party.cpp
;	COMDAT ?ChangeLeader@CParty@@QAEXK@Z
_TEXT	SEGMENT
_uLeaderId$ = 8						; size = 4
?ChangeLeader@CParty@@QAEXK@Z PROC			; CParty::ChangeLeader, COMDAT
; _this$ = ecx

; 168  : {

  00000	55		 push	 ebp
  00001	8b ec		 mov	 ebp, esp
  00003	56		 push	 esi

; 169  : 	int changeIndex = FindMember( uLeaderId );

  00004	ff 75 08	 push	 DWORD PTR _uLeaderId$[ebp]
  00007	8b f1		 mov	 esi, ecx
  00009	e8 00 00 00 00	 call	 ?FindMember@CParty@@QAEHK@Z ; CParty::FindMember

; 170  : 	SwapPartyMember( 0, changeIndex );

  0000e	50		 push	 eax
  0000f	6a 00		 push	 0
  00011	8b ce		 mov	 ecx, esi
  00013	e8 00 00 00 00	 call	 ?SwapPartyMember@CParty@@QAEXHH@Z ; CParty::SwapPartyMember
  00018	5e		 pop	 esi

; 171  : }

  00019	5d		 pop	 ebp
  0001a	c2 04 00	 ret	 4
?ChangeLeader@CParty@@QAEXK@Z ENDP			; CParty::ChangeLeader
_TEXT	ENDS
; Function compile flags: /Ogtp
; File C:\IAGOS\server\v18\Source\Source\_common\party.cpp
;	COMDAT ?DeleteMember@CParty@@QAEHK@Z
_TEXT	SEGMENT
_uPlayerId$ = 8						; size = 4
?DeleteMember@CParty@@QAEHK@Z PROC			; CParty::DeleteMember, COMDAT
; _this$ = ecx

; 148  : {

  00000	55		 push	 ebp
  00001	8b ec		 mov	 ebp, esp
  00003	57		 push	 edi

; 149  : 	int Findid = FindMember( uPlayerId );

  00004	ff 75 08	 push	 DWORD PTR _uPlayerId$[ebp]
  00007	8b f9		 mov	 edi, ecx
  00009	e8 00 00 00 00	 call	 ?FindMember@CParty@@QAEHK@Z ; CParty::FindMember
  0000e	8b d0		 mov	 edx, eax

; 150  : 	if( Findid >= 0)

  00010	85 d2		 test	 edx, edx
  00012	78 6b		 js	 SHORT $LN5@DeleteMemb

; 151  : 	{
; 152  : 		for( int i = Findid ; i < m_nSizeofMember-1 ; i++ )

  00014	53		 push	 ebx
  00015	8b 9f cc 01 00
	00		 mov	 ebx, DWORD PTR [edi+460]
  0001b	8d 4b ff	 lea	 ecx, DWORD PTR [ebx-1]
  0001e	3b d1		 cmp	 edx, ecx
  00020	7d 3a		 jge	 SHORT $LN3@DeleteMemb
  00022	56		 push	 esi
  00023	8d 34 d5 00 00
	00 00		 lea	 esi, DWORD PTR [edx*8]
  0002a	2b f2		 sub	 esi, edx
  0002c	83 c6 0a	 add	 esi, 10			; 0000000aH
  0002f	8d 34 b7	 lea	 esi, DWORD PTR [edi+esi*4]
$LL4@DeleteMemb:

; 153  : 		{
; 154  : 			memcpy( &m_aMember[i], &m_aMember[i+1], sizeof(PartyMember) );

  00032	0f 10 46 1c	 movups	 xmm0, XMMWORD PTR [esi+28]
  00036	8b 46 34	 mov	 eax, DWORD PTR [esi+52]
  00039	8d 76 1c	 lea	 esi, DWORD PTR [esi+28]
  0003c	42		 inc	 edx
  0003d	0f 11 46 e4	 movups	 XMMWORD PTR [esi-28], xmm0
  00041	f3 0f 7e 46 10	 movq	 xmm0, QWORD PTR [esi+16]
  00046	66 0f d6 46 f4	 movq	 QWORD PTR [esi-12], xmm0
  0004b	89 46 fc	 mov	 DWORD PTR [esi-4], eax
  0004e	8b 9f cc 01 00
	00		 mov	 ebx, DWORD PTR [edi+460]
  00054	8d 43 ff	 lea	 eax, DWORD PTR [ebx-1]
  00057	3b d0		 cmp	 edx, eax
  00059	7c d7		 jl	 SHORT $LL4@DeleteMemb

; 151  : 	{
; 152  : 		for( int i = Findid ; i < m_nSizeofMember-1 ; i++ )

  0005b	5e		 pop	 esi
$LN3@DeleteMemb:

; 155  : 		}
; 156  : 		m_nSizeofMember--;
; 157  : #ifdef __WORLDSERVER
; 158  : #if __VER >= 14 // __INSTANCE_DUNGEON
; 159  : 		CInstanceDungeonParty::GetInstance()->SetPartyLeaveTime( uPlayerId );

  0005c	ff 75 08	 push	 DWORD PTR _uPlayerId$[ebp]
  0005f	8d 43 ff	 lea	 eax, DWORD PTR [ebx-1]
  00062	89 87 cc 01 00
	00		 mov	 DWORD PTR [edi+460], eax
  00068	e8 00 00 00 00	 call	 ?GetInstance@CInstanceDungeonParty@@SAPAV1@XZ ; CInstanceDungeonParty::GetInstance
  0006d	8b c8		 mov	 ecx, eax
  0006f	e8 00 00 00 00	 call	 ?SetPartyLeaveTime@CInstanceDungeonParty@@QAEHK@Z ; CInstanceDungeonParty::SetPartyLeaveTime

; 160  : #endif // __INSTANCE_DUNGEON
; 161  : #endif // __WORLDSERVER
; 162  : 		return TRUE;

  00074	5b		 pop	 ebx
  00075	b8 01 00 00 00	 mov	 eax, 1
  0007a	5f		 pop	 edi

; 165  : }

  0007b	5d		 pop	 ebp
  0007c	c2 04 00	 ret	 4
$LN5@DeleteMemb:

; 163  : 	}
; 164  : 	return FALSE;

  0007f	33 c0		 xor	 eax, eax
  00081	5f		 pop	 edi

; 165  : }

  00082	5d		 pop	 ebp
  00083	c2 04 00	 ret	 4
?DeleteMember@CParty@@QAEHK@Z ENDP			; CParty::DeleteMember
_TEXT	ENDS
; Function compile flags: /Ogtp
; File C:\IAGOS\server\v18\Source\Source\_common\party.cpp
; File C:\IAGOS\server\v18\Source\Source\_common\party.h
; File C:\IAGOS\server\v18\Source\Source\_common\party.cpp
; File C:\IAGOS\server\v18\Source\Source\_common\party.h
; File C:\IAGOS\server\v18\Source\Source\_common\party.cpp
;	COMDAT ?NewMember@CParty@@QAEHK@Z
_TEXT	SEGMENT
_uPlayerId$ = 8						; size = 4
?NewMember@CParty@@QAEHK@Z PROC				; CParty::NewMember, COMDAT
; _this$ = ecx

; 123  : {

  00000	55		 push	 ebp
  00001	8b ec		 mov	 ebp, esp
  00003	56		 push	 esi
  00004	57		 push	 edi
; File C:\IAGOS\server\v18\Source\Source\_common\party.h

; 105  : 	BOOL	IsMember( u_long uPlayerId )		{	return( FindMember( uPlayerId ) >= 0 );	}

  00005	8b 7d 08	 mov	 edi, DWORD PTR _uPlayerId$[ebp]
; File C:\IAGOS\server\v18\Source\Source\_common\party.cpp

; 123  : {

  00008	8b f1		 mov	 esi, ecx
; File C:\IAGOS\server\v18\Source\Source\_common\party.h

; 105  : 	BOOL	IsMember( u_long uPlayerId )		{	return( FindMember( uPlayerId ) >= 0 );	}

  0000a	57		 push	 edi
  0000b	e8 00 00 00 00	 call	 ?FindMember@CParty@@QAEHK@Z ; CParty::FindMember
  00010	85 c0		 test	 eax, eax
; File C:\IAGOS\server\v18\Source\Source\_common\party.cpp

; 129  : 	if( IsMember( uPlayerId ) == FALSE && m_nSizeofMember < MAX_PTMEMBER_SIZE )

  00012	79 40		 jns	 SHORT $LN2@NewMember
  00014	8b 8e cc 01 00
	00		 mov	 ecx, DWORD PTR [esi+460]
  0001a	83 f9 0f	 cmp	 ecx, 15			; 0000000fH
  0001d	7d 35		 jge	 SHORT $LN2@NewMember

; 130  : 	{
; 131  : 		m_aMember[m_nSizeofMember].m_uPlayerId = uPlayerId;

  0001f	8d 04 cd 00 00
	00 00		 lea	 eax, DWORD PTR [ecx*8]
  00026	2b c1		 sub	 eax, ecx
  00028	89 7c 86 28	 mov	 DWORD PTR [esi+eax*4+40], edi

; 132  : #if __VER < 11 // __SYS_PLAYER_DATA
; 133  : 		m_aMember[m_nSizeofMember].m_nLevel = nLevel;
; 134  : 		m_aMember[m_nSizeofMember].m_nJob = nJob;
; 135  : 		m_aMember[m_nSizeofMember].m_nSex = nSex;
; 136  : #endif	// __SYS_PLAYER_DATA
; 137  : 		m_aMember[m_nSizeofMember].m_bRemove	= FALSE;

  0002c	8b 86 cc 01 00
	00		 mov	 eax, DWORD PTR [esi+460]
  00032	5f		 pop	 edi
  00033	8d 0c c5 00 00
	00 00		 lea	 ecx, DWORD PTR [eax*8]
  0003a	2b c8		 sub	 ecx, eax

; 138  : #if __VER < 11 // __SYS_PLAYER_DATA
; 139  : 		strcpy( m_aMember[m_nSizeofMember].m_szName, szName );
; 140  : #endif	// __SYS_PLAYER_DATA
; 141  : 		m_nSizeofMember++;
; 142  : 		return TRUE;

  0003c	b8 01 00 00 00	 mov	 eax, 1
  00041	c7 44 8e 34 00
	00 00 00	 mov	 DWORD PTR [esi+ecx*4+52], 0
  00049	ff 86 cc 01 00
	00		 inc	 DWORD PTR [esi+460]

; 145  : }

  0004f	5e		 pop	 esi
  00050	5d		 pop	 ebp
  00051	c2 04 00	 ret	 4
$LN2@NewMember:
  00054	5f		 pop	 edi

; 143  : 	}
; 144  : 	return FALSE;

  00055	33 c0		 xor	 eax, eax

; 145  : }

  00057	5e		 pop	 esi
  00058	5d		 pop	 ebp
  00059	c2 04 00	 ret	 4
?NewMember@CParty@@QAEHK@Z ENDP				; CParty::NewMember
_TEXT	ENDS
; Function compile flags: /Ogtp
; File C:\IAGOS\server\v18\Source\Source\_common\party.cpp
;	COMDAT ?GetLeader@CParty@@QAEPAVCMover@@XZ
_TEXT	SEGMENT
?GetLeader@CParty@@QAEPAVCMover@@XZ PROC		; CParty::GetLeader, COMDAT
; _this$ = ecx

; 100  : #ifdef __WORLDSERVER
; 101  : 	CMover *pLeader = (CMover *)g_UserMng.GetUserByPlayerID( m_aMember[0].m_uPlayerId );	// ¸®´őŔÇ Ć÷ŔÎĹÍ

  00000	ff 71 28	 push	 DWORD PTR [ecx+40]
  00003	b9 00 00 00 00	 mov	 ecx, OFFSET ?g_UserMng@@3VCUserMng@@A ; g_UserMng
  00008	e8 00 00 00 00	 call	 ?GetUserByPlayerID@CUserMng@@QAEPAVCUser@@K@Z ; CUserMng::GetUserByPlayerID

; 102  : 	return pLeader;
; 103  : #else
; 104  : 	CMover *pLeader = (CMover *)prj.GetUserByID( m_aMember[0].m_uPlayerId );	// ¸®´őŔÇ Ć÷ŔÎĹÍ
; 105  : 	return pLeader;
; 106  : #endif
; 107  : }

  0000d	c3		 ret	 0
?GetLeader@CParty@@QAEPAVCMover@@XZ ENDP		; CParty::GetLeader
_TEXT	ENDS
; Function compile flags: /Ogtp
; File C:\IAGOS\server\v18\Source\Source\_common\party.cpp
; File C:\Program Files\Microsoft Visual Studio\2022\Professional\VC\Tools\MSVC\14.44.35207\atlmfc\include\atltime.h
; File C:\IAGOS\server\v18\Source\Source\_common\party.cpp
; File C:\Program Files\Microsoft Visual Studio\2022\Professional\VC\Tools\MSVC\14.44.35207\atlmfc\include\atltime.h
; File C:\IAGOS\server\v18\Source\Source\_common\party.cpp
;	COMDAT ?InitParty@CParty@@QAEXXZ
_TEXT	SEGMENT
?InitParty@CParty@@QAEXXZ PROC				; CParty::InitParty, COMDAT
; _this$ = ecx

; 77   : 	m_uPartyId	= 0;

  00000	c7 01 00 00 00
	00		 mov	 DWORD PTR [ecx], 0
  00006	0f 57 c0	 xorps	 xmm0, xmm0

; 78   : 	m_nSizeofMember	= 0;

  00009	c7 81 cc 01 00
	00 00 00 00 00	 mov	 DWORD PTR [ecx+460], 0

; 79   : 	memset( m_sParty, 0, sizeof(m_sParty) );

  00013	0f 11 41 04	 movups	 XMMWORD PTR [ecx+4], xmm0
  00017	56		 push	 esi
  00018	0f 11 41 14	 movups	 XMMWORD PTR [ecx+20], xmm0
  0001c	c6 41 24 00	 mov	 BYTE PTR [ecx+36], 0
  00020	8d 71 2c	 lea	 esi, DWORD PTR [ecx+44]
  00023	57		 push	 edi

; 80   : 	m_nLevel = 1;

  00024	c7 81 d0 01 00
	00 01 00 00 00	 mov	 DWORD PTR [ecx+464], 1
  0002e	bf 0f 00 00 00	 mov	 edi, 15			; 0000000fH

; 81   : 	m_nExp = m_nPoint = 0;

  00033	c7 81 d8 01 00
	00 00 00 00 00	 mov	 DWORD PTR [ecx+472], 0
  0003d	c7 81 d4 01 00
	00 00 00 00 00	 mov	 DWORD PTR [ecx+468], 0

; 82   : 	m_nTroupsShareExp = m_nTroupeShareItem = 0;

  00047	c7 81 e0 01 00
	00 00 00 00 00	 mov	 DWORD PTR [ecx+480], 0
  00051	c7 81 dc 01 00
	00 00 00 00 00	 mov	 DWORD PTR [ecx+476], 0

; 83   : 	m_nKindTroup = 0;							// ´Ü¸·±Ř´Ü

  0005b	c7 81 e4 01 00
	00 00 00 00 00	 mov	 DWORD PTR [ecx+484], 0

; 84   : 	m_nReferens = 0;	

  00065	c7 81 e8 01 00
	00 00 00 00 00	 mov	 DWORD PTR [ecx+488], 0
  0006f	90		 npad	 1
$LL4@InitParty:
; File C:\Program Files\Microsoft Visual Studio\2022\Professional\VC\Tools\MSVC\14.44.35207\atlmfc\include\atltime.h

; 377  : 	return( CTime( ::_time64( NULL ) ) );

  00070	6a 00		 push	 0
; File C:\IAGOS\server\v18\Source\Source\_common\party.cpp

; 87   : 		m_aMember[i].m_uPlayerId	= 0;

  00072	c7 46 fc 00 00
	00 00		 mov	 DWORD PTR [esi-4], 0
; File C:\Program Files\Microsoft Visual Studio\2022\Professional\VC\Tools\MSVC\14.44.35207\atlmfc\include\atltime.h

; 377  : 	return( CTime( ::_time64( NULL ) ) );

  00079	e8 00 00 00 00	 call	 __time64
  0007e	83 c4 04	 add	 esp, 4
; File C:\IAGOS\server\v18\Source\Source\_common\party.cpp

; 88   : 		m_aMember[i].m_tTime = CTime::GetCurrentTime();

  00081	89 06		 mov	 DWORD PTR [esi], eax
  00083	89 56 04	 mov	 DWORD PTR [esi+4], edx
  00086	8d 76 1c	 lea	 esi, DWORD PTR [esi+28]

; 89   : 		m_aMember[i].m_bRemove = FALSE;

  00089	c7 46 ec 00 00
	00 00		 mov	 DWORD PTR [esi-20], 0
  00090	83 ef 01	 sub	 edi, 1
  00093	75 db		 jne	 SHORT $LL4@InitParty

; 85   : 	for( int i = 0 ; i < MAX_PTMEMBER_SIZE ; i++ )

  00095	5f		 pop	 edi
  00096	5e		 pop	 esi

; 90   : #if __VER < 11 // __SYS_PLAYER_DATA
; 91   : 		m_aMember[i].m_nLevel = m_aMember[i].m_nJob = 0;
; 92   : 		m_aMember[i].m_szName[0] = '\0';
; 93   : #endif	// __SYS_PLAYER_DATA
; 94   : 	}
; 95   : }

  00097	c3		 ret	 0
?InitParty@CParty@@QAEXXZ ENDP				; CParty::InitParty
_TEXT	ENDS
; Function compile flags: /Ogtp
; File C:\IAGOS\server\v18\Source\Source\_common\party.cpp
;	COMDAT ??1CParty@@QAE@XZ
_TEXT	SEGMENT
??1CParty@@QAE@XZ PROC					; CParty::~CParty, COMDAT
; _this$ = ecx

; 73   : }

  00000	c2 00 00	 ret	 0
??1CParty@@QAE@XZ ENDP					; CParty::~CParty
_TEXT	ENDS
; Function compile flags: /Ogtp
; File C:\IAGOS\server\v18\Source\Source\_common\party.cpp
; File C:\Program Files\Microsoft Visual Studio\2022\Professional\VC\Tools\MSVC\14.44.35207\atlmfc\include\atltime.h
; File C:\IAGOS\server\v18\Source\Source\_common\party.h
; File C:\Program Files\Microsoft Visual Studio\2022\Professional\VC\Tools\MSVC\14.44.35207\atlmfc\include\atltime.h
; File C:\IAGOS\server\v18\Source\Source\_common\party.h
; File C:\Program Files\Microsoft Visual Studio\2022\Professional\VC\Tools\MSVC\14.44.35207\atlmfc\include\atltime.h
; File C:\IAGOS\server\v18\Source\Source\_common\party.h
; File C:\IAGOS\server\v18\Source\Source\_common\party.cpp
;	COMDAT ??0CParty@@QAE@XZ
_TEXT	SEGMENT
??0CParty@@QAE@XZ PROC					; CParty::CParty, COMDAT
; _this$ = ecx

; 51   : {

  00000	53		 push	 ebx
  00001	56		 push	 esi
  00002	57		 push	 edi
  00003	8b f9		 mov	 edi, ecx
  00005	bb 0f 00 00 00	 mov	 ebx, 15			; 0000000fH
  0000a	8d 77 28	 lea	 esi, DWORD PTR [edi+40]
  0000d	0f 1f 00	 npad	 3
$LL7@CParty:
; File C:\Program Files\Microsoft Visual Studio\2022\Professional\VC\Tools\MSVC\14.44.35207\atlmfc\include\atltime.h

; 377  : 	return( CTime( ::_time64( NULL ) ) );

  00010	6a 00		 push	 0

; 415  : 	m_time(0)

  00012	c7 46 04 00 00
	00 00		 mov	 DWORD PTR [esi+4], 0
  00019	c7 46 08 00 00
	00 00		 mov	 DWORD PTR [esi+8], 0
; File C:\IAGOS\server\v18\Source\Source\_common\party.h

; 58   : 		m_uPlayerId	= 0;

  00020	c7 06 00 00 00
	00		 mov	 DWORD PTR [esi], 0
; File C:\Program Files\Microsoft Visual Studio\2022\Professional\VC\Tools\MSVC\14.44.35207\atlmfc\include\atltime.h

; 377  : 	return( CTime( ::_time64( NULL ) ) );

  00026	e8 00 00 00 00	 call	 __time64
; File C:\IAGOS\server\v18\Source\Source\_common\party.h

; 59   : 		m_tTime = CTime::GetCurrentTime();

  0002b	89 46 04	 mov	 DWORD PTR [esi+4], eax
  0002e	8d 76 1c	 lea	 esi, DWORD PTR [esi+28]
  00031	89 56 ec	 mov	 DWORD PTR [esi-20], edx
; File C:\Program Files\Microsoft Visual Studio\2022\Professional\VC\Tools\MSVC\14.44.35207\atlmfc\include\atltime.h

; 377  : 	return( CTime( ::_time64( NULL ) ) );

  00034	83 c4 04	 add	 esp, 4
; File C:\IAGOS\server\v18\Source\Source\_common\party.h

; 60   : 		m_bRemove = FALSE;

  00037	c7 46 f0 00 00
	00 00		 mov	 DWORD PTR [esi-16], 0

; 61   : #if __VER < 11 // __SYS_PLAYER_DATA
; 62   : 		m_nLevel = m_nJob = 0;
; 63   : 		m_szName[0] = '\0';
; 64   : 		m_nSex = 0;
; 65   : #endif	// __SYS_PLAYER_DATA
; 66   : 
; 67   : #if defined( __WORLDSERVER ) || defined( __CLIENT )
; 68   : 		m_vPos = D3DXVECTOR3( 0.0f, 0.0f, 0.0f );

  0003e	c7 46 f4 00 00
	00 00		 mov	 DWORD PTR [esi-12], 0
  00045	c7 46 f8 00 00
	00 00		 mov	 DWORD PTR [esi-8], 0
  0004c	c7 46 fc 00 00
	00 00		 mov	 DWORD PTR [esi-4], 0
  00053	83 eb 01	 sub	 ebx, 1
  00056	75 b8		 jne	 SHORT $LL7@CParty
; File C:\IAGOS\server\v18\Source\Source\_common\party.cpp

; 52   : 	m_uPartyId	= 0;

  00058	89 1f		 mov	 DWORD PTR [edi], ebx
  0005a	0f 57 c0	 xorps	 xmm0, xmm0

; 53   : 	m_nSizeofMember	= 0;

  0005d	89 9f cc 01 00
	00		 mov	 DWORD PTR [edi+460], ebx

; 54   : 	memset( m_sParty, 0, sizeof(m_sParty) );
; 55   : 	m_nLevel = 1;
; 56   : 	m_nExp = m_nPoint = 0;
; 57   : 	m_nTroupsShareExp = m_nTroupeShareItem = 0;
; 58   : 	m_nKindTroup = 0;							// ´Ü¸·±Ř´Ü
; 59   : 	m_nReferens = 0;
; 60   : 	m_nGetItemPlayerId = 0;
; 61   : 	for( int i = 0 ; i < MAX_PARTYMODE ; i++ )
; 62   : 	{
; 63   : 		m_nModeTime[i] = 0;
; 64   : 	}
; 65   : 	m_idDuelParty = 0;
; 66   : #ifdef __WORLDSERVER
; 67   : 	m_dwWorldId = 0;
; 68   : #endif // __WORLDSERVER
; 69   : }

  00063	8b c7		 mov	 eax, edi
  00065	0f 11 47 04	 movups	 XMMWORD PTR [edi+4], xmm0
  00069	0f 11 47 14	 movups	 XMMWORD PTR [edi+20], xmm0
  0006d	88 5f 24	 mov	 BYTE PTR [edi+36], bl
  00070	89 9f d8 01 00
	00		 mov	 DWORD PTR [edi+472], ebx
  00076	89 9f d4 01 00
	00		 mov	 DWORD PTR [edi+468], ebx
  0007c	89 9f e0 01 00
	00		 mov	 DWORD PTR [edi+480], ebx
  00082	89 9f dc 01 00
	00		 mov	 DWORD PTR [edi+476], ebx
  00088	89 9f e4 01 00
	00		 mov	 DWORD PTR [edi+484], ebx
  0008e	89 9f e8 01 00
	00		 mov	 DWORD PTR [edi+488], ebx
  00094	89 9f 00 02 00
	00		 mov	 DWORD PTR [edi+512], ebx
  0009a	c7 87 d0 01 00
	00 01 00 00 00	 mov	 DWORD PTR [edi+464], 1
  000a4	89 9f ec 01 00
	00		 mov	 DWORD PTR [edi+492], ebx
  000aa	89 9f f0 01 00
	00		 mov	 DWORD PTR [edi+496], ebx
  000b0	89 9f f4 01 00
	00		 mov	 DWORD PTR [edi+500], ebx
  000b6	89 9f f8 01 00
	00		 mov	 DWORD PTR [edi+504], ebx
  000bc	89 9f fc 01 00
	00		 mov	 DWORD PTR [edi+508], ebx
  000c2	89 9f 04 02 00
	00		 mov	 DWORD PTR [edi+516], ebx
  000c8	89 9f 08 02 00
	00		 mov	 DWORD PTR [edi+520], ebx
  000ce	5f		 pop	 edi
  000cf	5e		 pop	 esi
  000d0	5b		 pop	 ebx
  000d1	c3		 ret	 0
??0CParty@@QAE@XZ ENDP					; CParty::CParty
_TEXT	ENDS
; Function compile flags: /Ogtp
; File C:\IAGOS\server\v18\Source\Source\_common\party.h
; File C:\Program Files\Microsoft Visual Studio\2022\Professional\VC\Tools\MSVC\14.44.35207\atlmfc\include\atltime.h
; File C:\IAGOS\server\v18\Source\Source\_common\party.h
; File C:\Program Files\Microsoft Visual Studio\2022\Professional\VC\Tools\MSVC\14.44.35207\atlmfc\include\atltime.h
; File C:\IAGOS\server\v18\Source\Source\_common\party.h
; File C:\Program Files\Microsoft Visual Studio\2022\Professional\VC\Tools\MSVC\14.44.35207\atlmfc\include\atltime.h
; File C:\IAGOS\server\v18\Source\Source\_common\party.h
;	COMDAT ??0_PartyMember@@QAE@XZ
_TEXT	SEGMENT
??0_PartyMember@@QAE@XZ PROC				; _PartyMember::_PartyMember, COMDAT
; _this$ = ecx

; 56   : 	_PartyMember()

  00000	56		 push	 esi
  00001	8b f1		 mov	 esi, ecx
; File C:\Program Files\Microsoft Visual Studio\2022\Professional\VC\Tools\MSVC\14.44.35207\atlmfc\include\atltime.h

; 377  : 	return( CTime( ::_time64( NULL ) ) );

  00003	6a 00		 push	 0

; 415  : 	m_time(0)

  00005	c7 46 04 00 00
	00 00		 mov	 DWORD PTR [esi+4], 0
  0000c	c7 46 08 00 00
	00 00		 mov	 DWORD PTR [esi+8], 0
; File C:\IAGOS\server\v18\Source\Source\_common\party.h

; 58   : 		m_uPlayerId	= 0;

  00013	c7 06 00 00 00
	00		 mov	 DWORD PTR [esi], 0
; File C:\Program Files\Microsoft Visual Studio\2022\Professional\VC\Tools\MSVC\14.44.35207\atlmfc\include\atltime.h

; 377  : 	return( CTime( ::_time64( NULL ) ) );

  00019	e8 00 00 00 00	 call	 __time64
; File C:\IAGOS\server\v18\Source\Source\_common\party.h

; 59   : 		m_tTime = CTime::GetCurrentTime();

  0001e	89 46 04	 mov	 DWORD PTR [esi+4], eax
; File C:\Program Files\Microsoft Visual Studio\2022\Professional\VC\Tools\MSVC\14.44.35207\atlmfc\include\atltime.h

; 377  : 	return( CTime( ::_time64( NULL ) ) );

  00021	83 c4 04	 add	 esp, 4
; File C:\IAGOS\server\v18\Source\Source\_common\party.h

; 59   : 		m_tTime = CTime::GetCurrentTime();

  00024	89 56 08	 mov	 DWORD PTR [esi+8], edx

; 60   : 		m_bRemove = FALSE;
; 61   : #if __VER < 11 // __SYS_PLAYER_DATA
; 62   : 		m_nLevel = m_nJob = 0;
; 63   : 		m_szName[0] = '\0';
; 64   : 		m_nSex = 0;
; 65   : #endif	// __SYS_PLAYER_DATA
; 66   : 
; 67   : #if defined( __WORLDSERVER ) || defined( __CLIENT )
; 68   : 		m_vPos = D3DXVECTOR3( 0.0f, 0.0f, 0.0f );
; 69   : #endif // #if defined( __WORLDSERVER ) || defined( __CLIENT )
; 70   : 	}

  00027	8b c6		 mov	 eax, esi
  00029	c7 46 0c 00 00
	00 00		 mov	 DWORD PTR [esi+12], 0
  00030	c7 46 10 00 00
	00 00		 mov	 DWORD PTR [esi+16], 0
  00037	c7 46 14 00 00
	00 00		 mov	 DWORD PTR [esi+20], 0
  0003e	c7 46 18 00 00
	00 00		 mov	 DWORD PTR [esi+24], 0
  00045	5e		 pop	 esi
  00046	c3		 ret	 0
??0_PartyMember@@QAE@XZ ENDP				; _PartyMember::_PartyMember
_TEXT	ENDS
; Function compile flags: /Ogtp
; File C:\Program Files\Microsoft Visual Studio\2022\Professional\VC\Tools\MSVC\14.44.35207\include\xmemory
;	COMDAT ??$_Allocate_manually_vector_aligned@U_Default_allocate_traits@std@@@std@@YAPAXI@Z
_TEXT	SEGMENT
__Bytes$ = 8						; size = 4
??$_Allocate_manually_vector_aligned@U_Default_allocate_traits@std@@@std@@YAPAXI@Z PROC ; std::_Allocate_manually_vector_aligned<std::_Default_allocate_traits>, COMDAT

; 182  : __declspec(allocator) void* _Allocate_manually_vector_aligned(const size_t _Bytes) {

  00000	55		 push	 ebp
  00001	8b ec		 mov	 ebp, esp

; 183  :     // allocate _Bytes manually aligned to at least _Big_allocation_alignment
; 184  :     const size_t _Block_size = _Non_user_size + _Bytes;

  00003	8b 45 08	 mov	 eax, DWORD PTR __Bytes$[ebp]
  00006	8d 48 23	 lea	 ecx, DWORD PTR [eax+35]

; 185  :     if (_Block_size <= _Bytes) {

  00009	3b c8		 cmp	 ecx, eax
  0000b	0f 86 00 00 00
	00		 jbe	 ?_Throw_bad_array_new_length@std@@YAXXZ ; std::_Throw_bad_array_new_length

; 136  :         return ::operator new(_Bytes);

  00011	51		 push	 ecx
  00012	e8 00 00 00 00	 call	 ??2@YAPAXI@Z		; operator new

; 186  :         _Throw_bad_array_new_length(); // add overflow
; 187  :     }
; 188  : 
; 189  :     const uintptr_t _Ptr_container = reinterpret_cast<uintptr_t>(_Traits::_Allocate(_Block_size));

  00017	8b c8		 mov	 ecx, eax

; 136  :         return ::operator new(_Bytes);

  00019	83 c4 04	 add	 esp, 4

; 190  :     _STL_VERIFY(_Ptr_container != 0, "invalid argument"); // validate even in release since we're doing p[-1]

  0001c	85 c9		 test	 ecx, ecx
  0001e	74 0b		 je	 SHORT $LN9@Allocate_m

; 191  :     void* const _Ptr = reinterpret_cast<void*>((_Ptr_container + _Non_user_size) & ~(_Big_allocation_alignment - 1));

  00020	8d 41 23	 lea	 eax, DWORD PTR [ecx+35]
  00023	83 e0 e0	 and	 eax, -32		; ffffffe0H

; 192  :     static_cast<uintptr_t*>(_Ptr)[-1] = _Ptr_container;

  00026	89 48 fc	 mov	 DWORD PTR [eax-4], ecx

; 193  : 
; 194  : #ifdef _DEBUG
; 195  :     static_cast<uintptr_t*>(_Ptr)[-2] = _Big_allocation_sentinel;
; 196  : #endif // defined(_DEBUG)
; 197  :     return _Ptr;
; 198  : }

  00029	5d		 pop	 ebp
  0002a	c3		 ret	 0
$LN9@Allocate_m:

; 190  :     _STL_VERIFY(_Ptr_container != 0, "invalid argument"); // validate even in release since we're doing p[-1]

  0002b	6a 00		 push	 0
  0002d	6a 00		 push	 0
  0002f	6a 00		 push	 0
  00031	6a 00		 push	 0
  00033	6a 00		 push	 0
  00035	e8 00 00 00 00	 call	 __invoke_watson
$LN7@Allocate_m:
  0003a	cc		 int	 3
??$_Allocate_manually_vector_aligned@U_Default_allocate_traits@std@@@std@@YAPAXI@Z ENDP ; std::_Allocate_manually_vector_aligned<std::_Default_allocate_traits>
_TEXT	ENDS
; Function compile flags: /Ogtp
; File C:\IAGOS\server\v18\Source\Source\DX_SDK\d3dx9math.h
;	COMDAT ??0D3DXVECTOR3@@QAE@XZ
_TEXT	SEGMENT
??0D3DXVECTOR3@@QAE@XZ PROC				; D3DXVECTOR3::D3DXVECTOR3, COMDAT
; _this$ = ecx

; 165  :     D3DXVECTOR3() {};

  00000	8b c1		 mov	 eax, ecx
  00002	c3		 ret	 0
??0D3DXVECTOR3@@QAE@XZ ENDP				; D3DXVECTOR3::D3DXVECTOR3
_TEXT	ENDS
; Function compile flags: /Ogtp
; File C:\Program Files\Microsoft Visual Studio\2022\Professional\VC\Tools\MSVC\14.44.35207\include\xtree
;	COMDAT ?_Throw_tree_length_error@std@@YAXXZ
_TEXT	SEGMENT
?_Throw_tree_length_error@std@@YAXXZ PROC		; std::_Throw_tree_length_error, COMDAT

; 417  :     _Xlength_error("map/set too long");

  00000	68 00 00 00 00	 push	 OFFSET ??_C@_0BB@GCADKGJO@map?1set?5too?5long@
  00005	e8 00 00 00 00	 call	 ?_Xlength_error@std@@YAXPBD@Z ; std::_Xlength_error
$LN3@Throw_tree:
  0000a	cc		 int	 3
?_Throw_tree_length_error@std@@YAXXZ ENDP		; std::_Throw_tree_length_error
_TEXT	ENDS
; Function compile flags: /Ogtp
; File C:\Program Files\Microsoft Visual Studio\2022\Professional\VC\Tools\MSVC\14.44.35207\include\xstring
; File C:\Program Files\Microsoft Visual Studio\2022\Professional\VC\Tools\MSVC\14.44.35207\include\xmemory
; File C:\Program Files\Microsoft Visual Studio\2022\Professional\VC\Tools\MSVC\14.44.35207\include\xstring
; File C:\Program Files\Microsoft Visual Studio\2022\Professional\VC\Tools\MSVC\14.44.35207\include\xmemory
; File C:\Program Files\Microsoft Visual Studio\2022\Professional\VC\Tools\MSVC\14.44.35207\include\xstring
; File C:\Program Files\Microsoft Visual Studio\2022\Professional\VC\Tools\MSVC\14.44.35207\include\xmemory
; File C:\Program Files\Microsoft Visual Studio\2022\Professional\VC\Tools\MSVC\14.44.35207\include\xstring
;	COMDAT ??1?$basic_string@DU?$char_traits@D@std@@V?$allocator@D@2@@std@@QAE@XZ
_TEXT	SEGMENT
??1?$basic_string@DU?$char_traits@D@std@@V?$allocator@D@2@@std@@QAE@XZ PROC ; std::basic_string<char,std::char_traits<char>,std::allocator<char> >::~basic_string<char,std::char_traits<char>,std::allocator<char> >, COMDAT
; _this$ = ecx

; 1382 :     _CONSTEXPR20 ~basic_string() noexcept {

  00000	56		 push	 esi
  00001	8b f1		 mov	 esi, ecx

; 453  :         return _Myres > _Small_string_capacity;

  00003	8b 4e 14	 mov	 ecx, DWORD PTR [esi+20]
  00006	83 f9 0f	 cmp	 ecx, 15			; 0000000fH

; 3083 :         if (_My_data._Large_mode_engaged()) {

  00009	76 27		 jbe	 SHORT $LN19@basic_stri
; File C:\Program Files\Microsoft Visual Studio\2022\Professional\VC\Tools\MSVC\14.44.35207\include\xmemory

; 985  :         _STD _Deallocate<_New_alignof<_Ty>>(_Ptr, sizeof(_Ty) * _Count);

  0000b	8b 06		 mov	 eax, DWORD PTR [esi]
; File C:\Program Files\Microsoft Visual Studio\2022\Professional\VC\Tools\MSVC\14.44.35207\include\xstring

; 852  :         _Al.deallocate(_Old_ptr, _Capacity + 1); // +1 for null terminator

  0000d	41		 inc	 ecx
; File C:\Program Files\Microsoft Visual Studio\2022\Professional\VC\Tools\MSVC\14.44.35207\include\xmemory

; 284  :         if (_Bytes >= _Big_allocation_threshold) {

  0000e	81 f9 00 10 00
	00		 cmp	 ecx, 4096		; 00001000H
  00014	72 12		 jb	 SHORT $LN24@basic_stri

; 205  :     const uintptr_t _Ptr_container   = _Ptr_user[-1];

  00016	8b 50 fc	 mov	 edx, DWORD PTR [eax-4]
  00019	83 c1 23	 add	 ecx, 35			; 00000023H

; 206  : 
; 207  :     // If the following asserts, it likely means that we are performing
; 208  :     // an aligned delete on memory coming from an unaligned allocation.
; 209  :     _STL_ASSERT(_Ptr_user[-2] == _Big_allocation_sentinel, "invalid argument");
; 210  : 
; 211  :     // Extra paranoia on aligned allocation/deallocation; ensure _Ptr_container is
; 212  :     // in range [_Min_back_shift, _Non_user_size]
; 213  : #ifdef _DEBUG
; 214  :     constexpr uintptr_t _Min_back_shift = 2 * sizeof(void*);
; 215  : #else // ^^^ defined(_DEBUG) / !defined(_DEBUG) vvv
; 216  :     constexpr uintptr_t _Min_back_shift = sizeof(void*);
; 217  : #endif // ^^^ !defined(_DEBUG) ^^^
; 218  :     const uintptr_t _Back_shift = reinterpret_cast<uintptr_t>(_Ptr) - _Ptr_container;

  0001c	2b c2		 sub	 eax, edx

; 219  :     _STL_VERIFY(_Back_shift >= _Min_back_shift && _Back_shift <= _Non_user_size, "invalid argument");

  0001e	83 c0 fc	 add	 eax, -4			; fffffffcH
  00021	83 f8 1f	 cmp	 eax, 31			; 0000001fH
  00024	77 1f		 ja	 SHORT $LN23@basic_stri

; 220  :     _Ptr = reinterpret_cast<void*>(_Ptr_container);

  00026	8b c2		 mov	 eax, edx
$LN24@basic_stri:

; 289  :         ::operator delete(_Ptr, _Bytes);

  00028	51		 push	 ecx
  00029	50		 push	 eax
  0002a	e8 00 00 00 00	 call	 ??3@YAXPAXI@Z		; operator delete
  0002f	83 c4 08	 add	 esp, 8
$LN19@basic_stri:
; File C:\Program Files\Microsoft Visual Studio\2022\Professional\VC\Tools\MSVC\14.44.35207\include\xstring

; 3090 :         _My_data._Mysize = 0;

  00032	c7 46 10 00 00
	00 00		 mov	 DWORD PTR [esi+16], 0

; 3091 :         _My_data._Myres  = _Small_string_capacity;

  00039	c7 46 14 0f 00
	00 00		 mov	 DWORD PTR [esi+20], 15	; 0000000fH

; 3092 :         // the _Traits::assign is last so the codegen doesn't think the char write can alias this
; 3093 :         _Traits::assign(_My_data._Bx._Buf[0], _Elem());

  00040	c6 06 00	 mov	 BYTE PTR [esi], 0
  00043	5e		 pop	 esi

; 1390 :     }

  00044	c3		 ret	 0
$LN23@basic_stri:
; File C:\Program Files\Microsoft Visual Studio\2022\Professional\VC\Tools\MSVC\14.44.35207\include\xmemory

; 219  :     _STL_VERIFY(_Back_shift >= _Min_back_shift && _Back_shift <= _Non_user_size, "invalid argument");

  00045	6a 00		 push	 0
  00047	6a 00		 push	 0
  00049	6a 00		 push	 0
  0004b	6a 00		 push	 0
  0004d	6a 00		 push	 0
  0004f	e8 00 00 00 00	 call	 __invoke_watson
$LN33@basic_stri:
  00054	cc		 int	 3
??1?$basic_string@DU?$char_traits@D@std@@V?$allocator@D@2@@std@@QAE@XZ ENDP ; std::basic_string<char,std::char_traits<char>,std::allocator<char> >::~basic_string<char,std::char_traits<char>,std::allocator<char> >
_TEXT	ENDS
; Function compile flags: /Ogtp
; File C:\Program Files\Microsoft Visual Studio\2022\Professional\VC\Tools\MSVC\14.44.35207\include\xmemory
;	COMDAT ?_Throw_bad_array_new_length@std@@YAXXZ
_TEXT	SEGMENT
$T1 = -12						; size = 12
?_Throw_bad_array_new_length@std@@YAXXZ PROC		; std::_Throw_bad_array_new_length, COMDAT

; 107  : [[noreturn]] inline void _Throw_bad_array_new_length() {

  00000	55		 push	 ebp
  00001	8b ec		 mov	 ebp, esp
  00003	83 ec 0c	 sub	 esp, 12			; 0000000cH

; 108  :     _THROW(bad_array_new_length{});

  00006	8d 4d f4	 lea	 ecx, DWORD PTR $T1[ebp]
  00009	e8 00 00 00 00	 call	 ??0bad_array_new_length@std@@QAE@XZ ; std::bad_array_new_length::bad_array_new_length
  0000e	68 00 00 00 00	 push	 OFFSET __TI3?AVbad_array_new_length@std@@
  00013	8d 45 f4	 lea	 eax, DWORD PTR $T1[ebp]
  00016	50		 push	 eax
  00017	e8 00 00 00 00	 call	 __CxxThrowException@8
$LN3@Throw_bad_:
  0001c	cc		 int	 3
?_Throw_bad_array_new_length@std@@YAXXZ ENDP		; std::_Throw_bad_array_new_length
_TEXT	ENDS
; Function compile flags: /Ogtp
; File C:\Program Files\Microsoft Visual Studio\2022\Professional\VC\Tools\MSVC\14.44.35207\include\vcruntime_exception.h
;	COMDAT ??_Gbad_array_new_length@std@@UAEPAXI@Z
_TEXT	SEGMENT
___flags$ = 8						; size = 4
??_Gbad_array_new_length@std@@UAEPAXI@Z PROC		; std::bad_array_new_length::`scalar deleting destructor', COMDAT
; _this$ = ecx
  00000	55		 push	 ebp
  00001	8b ec		 mov	 ebp, esp

; 90   :     {

  00003	56		 push	 esi
  00004	8b f1		 mov	 esi, ecx

; 91   :         __std_exception_destroy(&_Data);

  00006	8d 46 04	 lea	 eax, DWORD PTR [esi+4]
  00009	c7 06 00 00 00
	00		 mov	 DWORD PTR [esi], OFFSET ??_7exception@std@@6B@
  0000f	50		 push	 eax
  00010	e8 00 00 00 00	 call	 ___std_exception_destroy
  00015	83 c4 04	 add	 esp, 4
  00018	f6 45 08 01	 test	 BYTE PTR ___flags$[ebp], 1
  0001c	74 0b		 je	 SHORT $LN18@scalar
  0001e	6a 0c		 push	 12			; 0000000cH
  00020	56		 push	 esi
  00021	e8 00 00 00 00	 call	 ??3@YAXPAXI@Z		; operator delete
  00026	83 c4 08	 add	 esp, 8
$LN18@scalar:
  00029	8b c6		 mov	 eax, esi
  0002b	5e		 pop	 esi
  0002c	5d		 pop	 ebp
  0002d	c2 04 00	 ret	 4
??_Gbad_array_new_length@std@@UAEPAXI@Z ENDP		; std::bad_array_new_length::`scalar deleting destructor'
_TEXT	ENDS
; Function compile flags: /Ogtp
; File C:\Program Files\Microsoft Visual Studio\2022\Professional\VC\Tools\MSVC\14.44.35207\include\vcruntime_exception.h
;	COMDAT ??0bad_array_new_length@std@@QAE@ABV01@@Z
_TEXT	SEGMENT
___that$ = 8						; size = 4
??0bad_array_new_length@std@@QAE@ABV01@@Z PROC		; std::bad_array_new_length::bad_array_new_length, COMDAT
; _this$ = ecx
  00000	55		 push	 ebp
  00001	8b ec		 mov	 ebp, esp

; 73   :     {

  00003	56		 push	 esi
  00004	8b f1		 mov	 esi, ecx
  00006	0f 57 c0	 xorps	 xmm0, xmm0

; 72   :         : _Data()

  00009	8d 46 04	 lea	 eax, DWORD PTR [esi+4]

; 74   :         __std_exception_copy(&_Other._Data, &_Data);

  0000c	50		 push	 eax
  0000d	c7 06 00 00 00
	00		 mov	 DWORD PTR [esi], OFFSET ??_7exception@std@@6B@
  00013	66 0f d6 00	 movq	 QWORD PTR [eax], xmm0
  00017	8b 45 08	 mov	 eax, DWORD PTR ___that$[ebp]
  0001a	83 c0 04	 add	 eax, 4
  0001d	50		 push	 eax
  0001e	e8 00 00 00 00	 call	 ___std_exception_copy
  00023	83 c4 08	 add	 esp, 8
  00026	c7 06 00 00 00
	00		 mov	 DWORD PTR [esi], OFFSET ??_7bad_array_new_length@std@@6B@
  0002c	8b c6		 mov	 eax, esi
  0002e	5e		 pop	 esi
  0002f	5d		 pop	 ebp
  00030	c2 04 00	 ret	 4
??0bad_array_new_length@std@@QAE@ABV01@@Z ENDP		; std::bad_array_new_length::bad_array_new_length
_TEXT	ENDS
; Function compile flags: /Ogtp
; File C:\Program Files\Microsoft Visual Studio\2022\Professional\VC\Tools\MSVC\14.44.35207\include\vcruntime_exception.h
;	COMDAT ??1bad_array_new_length@std@@UAE@XZ
_TEXT	SEGMENT
??1bad_array_new_length@std@@UAE@XZ PROC		; std::bad_array_new_length::~bad_array_new_length, COMDAT
; _this$ = ecx

; 91   :         __std_exception_destroy(&_Data);

  00000	8d 41 04	 lea	 eax, DWORD PTR [ecx+4]
  00003	c7 01 00 00 00
	00		 mov	 DWORD PTR [ecx], OFFSET ??_7exception@std@@6B@
  00009	50		 push	 eax
  0000a	e8 00 00 00 00	 call	 ___std_exception_destroy
  0000f	59		 pop	 ecx
  00010	c3		 ret	 0
??1bad_array_new_length@std@@UAE@XZ ENDP		; std::bad_array_new_length::~bad_array_new_length
_TEXT	ENDS
; Function compile flags: /Ogtp
; File C:\Program Files\Microsoft Visual Studio\2022\Professional\VC\Tools\MSVC\14.44.35207\include\vcruntime_exception.h
;	COMDAT ??0bad_array_new_length@std@@QAE@XZ
_TEXT	SEGMENT
??0bad_array_new_length@std@@QAE@XZ PROC		; std::bad_array_new_length::bad_array_new_length, COMDAT
; _this$ = ecx

; 144  :     {

  00000	0f 57 c0	 xorps	 xmm0, xmm0

; 145  :     }

  00003	8b c1		 mov	 eax, ecx

; 66   :         : _Data()

  00005	66 0f d6 41 04	 movq	 QWORD PTR [ecx+4], xmm0

; 67   :     {
; 68   :         _Data._What = _Message;

  0000a	c7 41 04 00 00
	00 00		 mov	 DWORD PTR [ecx+4], OFFSET ??_C@_0BF@KINCDENJ@bad?5array?5new?5length@

; 144  :     {

  00011	c7 01 00 00 00
	00		 mov	 DWORD PTR [ecx], OFFSET ??_7bad_array_new_length@std@@6B@

; 145  :     }

  00017	c3		 ret	 0
??0bad_array_new_length@std@@QAE@XZ ENDP		; std::bad_array_new_length::bad_array_new_length
_TEXT	ENDS
; Function compile flags: /Ogtp
; File C:\Program Files\Microsoft Visual Studio\2022\Professional\VC\Tools\MSVC\14.44.35207\include\vcruntime_exception.h
;	COMDAT ??_Gbad_alloc@std@@UAEPAXI@Z
_TEXT	SEGMENT
___flags$ = 8						; size = 4
??_Gbad_alloc@std@@UAEPAXI@Z PROC			; std::bad_alloc::`scalar deleting destructor', COMDAT
; _this$ = ecx
  00000	55		 push	 ebp
  00001	8b ec		 mov	 ebp, esp

; 90   :     {

  00003	56		 push	 esi
  00004	8b f1		 mov	 esi, ecx

; 91   :         __std_exception_destroy(&_Data);

  00006	8d 46 04	 lea	 eax, DWORD PTR [esi+4]
  00009	c7 06 00 00 00
	00		 mov	 DWORD PTR [esi], OFFSET ??_7exception@std@@6B@
  0000f	50		 push	 eax
  00010	e8 00 00 00 00	 call	 ___std_exception_destroy
  00015	83 c4 04	 add	 esp, 4
  00018	f6 45 08 01	 test	 BYTE PTR ___flags$[ebp], 1
  0001c	74 0b		 je	 SHORT $LN13@scalar
  0001e	6a 0c		 push	 12			; 0000000cH
  00020	56		 push	 esi
  00021	e8 00 00 00 00	 call	 ??3@YAXPAXI@Z		; operator delete
  00026	83 c4 08	 add	 esp, 8
$LN13@scalar:
  00029	8b c6		 mov	 eax, esi
  0002b	5e		 pop	 esi
  0002c	5d		 pop	 ebp
  0002d	c2 04 00	 ret	 4
??_Gbad_alloc@std@@UAEPAXI@Z ENDP			; std::bad_alloc::`scalar deleting destructor'
_TEXT	ENDS
; Function compile flags: /Ogtp
; File C:\Program Files\Microsoft Visual Studio\2022\Professional\VC\Tools\MSVC\14.44.35207\include\vcruntime_exception.h
;	COMDAT ??0bad_alloc@std@@QAE@ABV01@@Z
_TEXT	SEGMENT
___that$ = 8						; size = 4
??0bad_alloc@std@@QAE@ABV01@@Z PROC			; std::bad_alloc::bad_alloc, COMDAT
; _this$ = ecx
  00000	55		 push	 ebp
  00001	8b ec		 mov	 ebp, esp

; 73   :     {

  00003	56		 push	 esi
  00004	8b f1		 mov	 esi, ecx
  00006	0f 57 c0	 xorps	 xmm0, xmm0

; 72   :         : _Data()

  00009	8d 46 04	 lea	 eax, DWORD PTR [esi+4]

; 74   :         __std_exception_copy(&_Other._Data, &_Data);

  0000c	50		 push	 eax
  0000d	c7 06 00 00 00
	00		 mov	 DWORD PTR [esi], OFFSET ??_7exception@std@@6B@
  00013	66 0f d6 00	 movq	 QWORD PTR [eax], xmm0
  00017	8b 45 08	 mov	 eax, DWORD PTR ___that$[ebp]
  0001a	83 c0 04	 add	 eax, 4
  0001d	50		 push	 eax
  0001e	e8 00 00 00 00	 call	 ___std_exception_copy
  00023	83 c4 08	 add	 esp, 8
  00026	c7 06 00 00 00
	00		 mov	 DWORD PTR [esi], OFFSET ??_7bad_alloc@std@@6B@
  0002c	8b c6		 mov	 eax, esi
  0002e	5e		 pop	 esi
  0002f	5d		 pop	 ebp
  00030	c2 04 00	 ret	 4
??0bad_alloc@std@@QAE@ABV01@@Z ENDP			; std::bad_alloc::bad_alloc
_TEXT	ENDS
; Function compile flags: /Ogtp
; File C:\Program Files\Microsoft Visual Studio\2022\Professional\VC\Tools\MSVC\14.44.35207\include\vcruntime_exception.h
;	COMDAT ??_Gexception@std@@UAEPAXI@Z
_TEXT	SEGMENT
___flags$ = 8						; size = 4
??_Gexception@std@@UAEPAXI@Z PROC			; std::exception::`scalar deleting destructor', COMDAT
; _this$ = ecx
  00000	55		 push	 ebp
  00001	8b ec		 mov	 ebp, esp

; 90   :     {

  00003	56		 push	 esi
  00004	8b f1		 mov	 esi, ecx

; 91   :         __std_exception_destroy(&_Data);

  00006	8d 46 04	 lea	 eax, DWORD PTR [esi+4]
  00009	c7 06 00 00 00
	00		 mov	 DWORD PTR [esi], OFFSET ??_7exception@std@@6B@
  0000f	50		 push	 eax
  00010	e8 00 00 00 00	 call	 ___std_exception_destroy
  00015	83 c4 04	 add	 esp, 4
  00018	f6 45 08 01	 test	 BYTE PTR ___flags$[ebp], 1
  0001c	74 0b		 je	 SHORT $LN8@scalar
  0001e	6a 0c		 push	 12			; 0000000cH
  00020	56		 push	 esi
  00021	e8 00 00 00 00	 call	 ??3@YAXPAXI@Z		; operator delete
  00026	83 c4 08	 add	 esp, 8
$LN8@scalar:
  00029	8b c6		 mov	 eax, esi
  0002b	5e		 pop	 esi
  0002c	5d		 pop	 ebp
  0002d	c2 04 00	 ret	 4
??_Gexception@std@@UAEPAXI@Z ENDP			; std::exception::`scalar deleting destructor'
_TEXT	ENDS
; Function compile flags: /Ogtp
; File C:\Program Files\Microsoft Visual Studio\2022\Professional\VC\Tools\MSVC\14.44.35207\include\vcruntime_exception.h
;	COMDAT ?what@exception@std@@UBEPBDXZ
_TEXT	SEGMENT
?what@exception@std@@UBEPBDXZ PROC			; std::exception::what, COMDAT
; _this$ = ecx

; 96   :         return _Data._What ? _Data._What : "Unknown exception";

  00000	8b 49 04	 mov	 ecx, DWORD PTR [ecx+4]
  00003	b8 00 00 00 00	 mov	 eax, OFFSET ??_C@_0BC@EOODALEL@Unknown?5exception@
  00008	85 c9		 test	 ecx, ecx
  0000a	0f 45 c1	 cmovne	 eax, ecx

; 97   :     }

  0000d	c3		 ret	 0
?what@exception@std@@UBEPBDXZ ENDP			; std::exception::what
_TEXT	ENDS
; Function compile flags: /Ogtp
; File C:\Program Files\Microsoft Visual Studio\2022\Professional\VC\Tools\MSVC\14.44.35207\include\vcruntime_exception.h
;	COMDAT ??1exception@std@@UAE@XZ
_TEXT	SEGMENT
??1exception@std@@UAE@XZ PROC				; std::exception::~exception, COMDAT
; _this$ = ecx

; 91   :         __std_exception_destroy(&_Data);

  00000	8d 41 04	 lea	 eax, DWORD PTR [ecx+4]
  00003	c7 01 00 00 00
	00		 mov	 DWORD PTR [ecx], OFFSET ??_7exception@std@@6B@
  00009	50		 push	 eax
  0000a	e8 00 00 00 00	 call	 ___std_exception_destroy
  0000f	59		 pop	 ecx

; 92   :     }

  00010	c3		 ret	 0
??1exception@std@@UAE@XZ ENDP				; std::exception::~exception
_TEXT	ENDS
; Function compile flags: /Ogtp
; File C:\Program Files\Microsoft Visual Studio\2022\Professional\VC\Tools\MSVC\14.44.35207\include\vcruntime_exception.h
;	COMDAT ??0exception@std@@QAE@ABV01@@Z
_TEXT	SEGMENT
__Other$ = 8						; size = 4
??0exception@std@@QAE@ABV01@@Z PROC			; std::exception::exception, COMDAT
; _this$ = ecx

; 73   :     {

  00000	55		 push	 ebp
  00001	8b ec		 mov	 ebp, esp
  00003	56		 push	 esi
  00004	8b f1		 mov	 esi, ecx
  00006	0f 57 c0	 xorps	 xmm0, xmm0
  00009	8d 46 04	 lea	 eax, DWORD PTR [esi+4]

; 74   :         __std_exception_copy(&_Other._Data, &_Data);

  0000c	50		 push	 eax
  0000d	c7 06 00 00 00
	00		 mov	 DWORD PTR [esi], OFFSET ??_7exception@std@@6B@
  00013	66 0f d6 00	 movq	 QWORD PTR [eax], xmm0
  00017	8b 45 08	 mov	 eax, DWORD PTR __Other$[ebp]
  0001a	83 c0 04	 add	 eax, 4
  0001d	50		 push	 eax
  0001e	e8 00 00 00 00	 call	 ___std_exception_copy
  00023	83 c4 08	 add	 esp, 8

; 75   :     }

  00026	8b c6		 mov	 eax, esi
  00028	5e		 pop	 esi
  00029	5d		 pop	 ebp
  0002a	c2 04 00	 ret	 4
??0exception@std@@QAE@ABV01@@Z ENDP			; std::exception::exception
_TEXT	ENDS
; Function compile flags: /Ogtp
; File C:\IAGOS\server\v18\Source\Source\_common\party.cpp
;	COMDAT ?__empty_global_delete@@YAXPAXI@Z
_TEXT	SEGMENT
___formal$ = 8						; size = 4
___formal$ = 12						; size = 4
?__empty_global_delete@@YAXPAXI@Z PROC			; __empty_global_delete, COMDAT

  00000	c2 00 00	 ret	 0
?__empty_global_delete@@YAXPAXI@Z ENDP			; __empty_global_delete
_TEXT	ENDS
; Function compile flags: /Ogtp
; File C:\IAGOS\server\v18\Source\Source\_common\party.cpp
;	COMDAT ?__empty_global_delete@@YAXPAX@Z
_TEXT	SEGMENT
___formal$ = 8						; size = 4
?__empty_global_delete@@YAXPAX@Z PROC			; __empty_global_delete, COMDAT

  00000	c2 00 00	 ret	 0
?__empty_global_delete@@YAXPAX@Z ENDP			; __empty_global_delete
_TEXT	ENDS
; Function compile flags: /Ogtp
;	COMDAT ??_H@YGXPAXIIP6EPAX0@Z@Z
_TEXT	SEGMENT
___t$ = 8						; size = 4
___s$ = 12						; size = 4
___n$ = 16						; size = 4
___f$ = 20						; size = 4
??_H@YGXPAXIIP6EPAX0@Z@Z PROC				; `vector constructor iterator', COMDAT
  00000	55		 push	 ebp
  00001	8b ec		 mov	 ebp, esp
  00003	56		 push	 esi
  00004	8b 75 10	 mov	 esi, DWORD PTR ___n$[ebp]
  00007	85 f6		 test	 esi, esi
  00009	74 16		 je	 SHORT $LN6@vector
  0000b	53		 push	 ebx
  0000c	8b 5d 14	 mov	 ebx, DWORD PTR ___f$[ebp]
  0000f	57		 push	 edi
  00010	8b 7d 08	 mov	 edi, DWORD PTR ___t$[ebp]
$LL2@vector:
  00013	8b cf		 mov	 ecx, edi
  00015	ff d3		 call	 ebx
  00017	03 7d 0c	 add	 edi, DWORD PTR ___s$[ebp]
  0001a	83 ee 01	 sub	 esi, 1
  0001d	75 f4		 jne	 SHORT $LL2@vector
  0001f	5f		 pop	 edi
  00020	5b		 pop	 ebx
$LN6@vector:
  00021	5e		 pop	 esi
  00022	5d		 pop	 ebp
  00023	c2 10 00	 ret	 16			; 00000010H
??_H@YGXPAXIIP6EPAX0@Z@Z ENDP				; `vector constructor iterator'
_TEXT	ENDS
END
