; Listing generated by Microsoft (R) Optimizing Compiler Version 19.44.35225.0 

	TITLE	C:\IAGOS\server\v18\Source\Output\WorldServer\Release\PathObj.obj
	.686P
	.XMM
	include listing.inc
	.model	flat

INCLUDELIB LIBCMT
INCLUDELIB OLDNAMES

PUBLIC	?__empty_global_delete@@YAXPAX@Z		; __empty_global_delete
PUBLIC	?__empty_global_delete@@YAXPAXI@Z		; __empty_global_delete
PUBLIC	??0exception@std@@QAE@ABV01@@Z			; std::exception::exception
PUBLIC	??1exception@std@@UAE@XZ			; std::exception::~exception
PUBLIC	?what@exception@std@@UBEPBDXZ			; std::exception::what
PUBLIC	??_Gexception@std@@UAEPAXI@Z			; std::exception::`scalar deleting destructor'
PUBLIC	??0bad_alloc@std@@QAE@ABV01@@Z			; std::bad_alloc::bad_alloc
PUBLIC	??_Gbad_alloc@std@@UAEPAXI@Z			; std::bad_alloc::`scalar deleting destructor'
PUBLIC	??0bad_array_new_length@std@@QAE@XZ		; std::bad_array_new_length::bad_array_new_length
PUBLIC	??1bad_array_new_length@std@@UAE@XZ		; std::bad_array_new_length::~bad_array_new_length
PUBLIC	??0bad_array_new_length@std@@QAE@ABV01@@Z	; std::bad_array_new_length::bad_array_new_length
PUBLIC	??_Gbad_array_new_length@std@@UAEPAXI@Z		; std::bad_array_new_length::`scalar deleting destructor'
PUBLIC	?_Throw_bad_array_new_length@std@@YAXXZ		; std::_Throw_bad_array_new_length
PUBLIC	?_Throw_tree_length_error@std@@YAXXZ		; std::_Throw_tree_length_error
PUBLIC	??0D3DXVECTOR3@@QAE@XZ				; D3DXVECTOR3::D3DXVECTOR3
PUBLIC	??1CTimer@@UAE@XZ				; CTimer::~CTimer
PUBLIC	??_GCTimer@@UAEPAXI@Z				; CTimer::`scalar deleting destructor'
PUBLIC	??1?$_Tree@V?$_Tmap_traits@KHU?$less@K@std@@V?$allocator@U?$pair@$$CBKH@std@@@2@$0A@@std@@@std@@QAE@XZ ; std::_Tree<std::_Tmap_traits<unsigned long,int,std::less<unsigned long>,std::allocator<std::pair<unsigned long const ,int> >,0> >::~_Tree<std::_Tmap_traits<unsigned long,int,std::less<unsigned long>,std::allocator<std::pair<unsigned long const ,int> >,0> >
PUBLIC	??1?$vector@UD3DXVECTOR3@@V?$allocator@UD3DXVECTOR3@@@std@@@std@@QAE@XZ ; std::vector<D3DXVECTOR3,std::allocator<D3DXVECTOR3> >::~vector<D3DXVECTOR3,std::allocator<D3DXVECTOR3> >
PUBLIC	?_Xlength@?$vector@UD3DXVECTOR3@@V?$allocator@UD3DXVECTOR3@@@std@@@std@@CAXXZ ; std::vector<D3DXVECTOR3,std::allocator<D3DXVECTOR3> >::_Xlength
PUBLIC	??1_VECINFO@@QAE@XZ				; _VECINFO::~_VECINFO
PUBLIC	?_Insert_node@?$_Tree_val@U?$_Tree_simple_types@U?$pair@$$CBKV?$vector@U_VECINFO@@V?$allocator@U_VECINFO@@@std@@@std@@@std@@@std@@@std@@QAEPAU?$_Tree_node@U?$pair@$$CBKV?$vector@U_VECINFO@@V?$allocator@U_VECINFO@@@std@@@std@@@std@@PAX@2@U?$_Tree_id@PAU?$_Tree_node@U?$pair@$$CBKV?$vector@U_VECINFO@@V?$allocator@U_VECINFO@@@std@@@std@@@std@@PAX@std@@@2@QAU32@@Z ; std::_Tree_val<std::_Tree_simple_types<std::pair<unsigned long const ,std::vector<_VECINFO,std::allocator<_VECINFO> > > > >::_Insert_node
PUBLIC	??1?$map@KV?$vector@U_VECINFO@@V?$allocator@U_VECINFO@@@std@@@std@@U?$less@K@2@V?$allocator@U?$pair@$$CBKV?$vector@U_VECINFO@@V?$allocator@U_VECINFO@@@std@@@std@@@std@@@2@@std@@QAE@XZ ; std::map<unsigned long,std::vector<_VECINFO,std::allocator<_VECINFO> >,std::less<unsigned long>,std::allocator<std::pair<unsigned long const ,std::vector<_VECINFO,std::allocator<_VECINFO> > > > >::~map<unsigned long,std::vector<_VECINFO,std::allocator<_VECINFO> >,std::less<unsigned long>,std::allocator<std::pair<unsigned long const ,std::vector<_VECINFO,std::allocator<_VECINFO> > > > >
PUBLIC	??0CPatrolPath@@QAE@XZ				; CPatrolPath::CPatrolPath
PUBLIC	??1CPatrolPath@@QAE@XZ				; CPatrolPath::~CPatrolPath
PUBLIC	?GetInstance@CPatrolPath@@SAPAV1@XZ		; CPatrolPath::GetInstance
PUBLIC	?LoadPatrol@CPatrolPath@@QAEHPBD@Z		; CPatrolPath::LoadPatrol
PUBLIC	?AddPatrolIndex@CPatrolPath@@QAEXK@Z		; CPatrolPath::AddPatrolIndex
PUBLIC	?IsFirstPath@CPatrolPath@@QAEHK@Z		; CPatrolPath::IsFirstPath
PUBLIC	?Clear@CPatrolPath@@QAEXXZ			; CPatrolPath::Clear
PUBLIC	?SetReturn@CPatrolPath@@QAEXKH@Z		; CPatrolPath::SetReturn
PUBLIC	?AddPatrolPath@CPatrolPath@@QAEXKU_VECINFO@@@Z	; CPatrolPath::AddPatrolPath
PUBLIC	?GetNextPosInfo@CPatrolPath@@QAEXPAVCObj@@UD3DXVECTOR3@@AAU3@AAU_VECINFO@@@Z ; CPatrolPath::GetNextPosInfo
PUBLIC	??$_Erase_tree@V?$allocator@U?$_Tree_node@U?$pair@$$CBKH@std@@PAX@std@@@std@@@?$_Tree_val@U?$_Tree_simple_types@U?$pair@$$CBKH@std@@@std@@@std@@QAEXAAV?$allocator@U?$_Tree_node@U?$pair@$$CBKH@std@@PAX@std@@@1@PAU?$_Tree_node@U?$pair@$$CBKH@std@@PAX@1@@Z ; std::_Tree_val<std::_Tree_simple_types<std::pair<unsigned long const ,int> > >::_Erase_tree<std::allocator<std::_Tree_node<std::pair<unsigned long const ,int>,void *> > >
PUBLIC	??$_Allocate_manually_vector_aligned@U_Default_allocate_traits@std@@@std@@YAPAXI@Z ; std::_Allocate_manually_vector_aligned<std::_Default_allocate_traits>
PUBLIC	??0?$vector@U_VECINFO@@V?$allocator@U_VECINFO@@@std@@@std@@QAE@ABV01@@Z ; std::vector<_VECINFO,std::allocator<_VECINFO> >::vector<_VECINFO,std::allocator<_VECINFO> >
PUBLIC	??1?$vector@U_VECINFO@@V?$allocator@U_VECINFO@@@std@@@std@@QAE@XZ ; std::vector<_VECINFO,std::allocator<_VECINFO> >::~vector<_VECINFO,std::allocator<_VECINFO> >
PUBLIC	?push_back@?$vector@U_VECINFO@@V?$allocator@U_VECINFO@@@std@@@std@@QAEXABU_VECINFO@@@Z ; std::vector<_VECINFO,std::allocator<_VECINFO> >::push_back
PUBLIC	?_Tidy@?$vector@U_VECINFO@@V?$allocator@U_VECINFO@@@std@@@std@@AAEXXZ ; std::vector<_VECINFO,std::allocator<_VECINFO> >::_Tidy
PUBLIC	?_Xlength@?$vector@U_VECINFO@@V?$allocator@U_VECINFO@@@std@@@std@@CAXXZ ; std::vector<_VECINFO,std::allocator<_VECINFO> >::_Xlength
PUBLIC	??1?$pair@$$CBKV?$vector@U_VECINFO@@V?$allocator@U_VECINFO@@@std@@@std@@@std@@QAE@XZ ; std::pair<unsigned long const ,std::vector<_VECINFO,std::allocator<_VECINFO> > >::~pair<unsigned long const ,std::vector<_VECINFO,std::allocator<_VECINFO> > >
PUBLIC	??$insert@$0A@$0A@@?$_Tree@V?$_Tmap_traits@KV?$vector@U_VECINFO@@V?$allocator@U_VECINFO@@@std@@@std@@U?$less@K@2@V?$allocator@U?$pair@$$CBKV?$vector@U_VECINFO@@V?$allocator@U_VECINFO@@@std@@@std@@@std@@@2@$0A@@std@@@std@@QAE?AU?$pair@V?$_Tree_iterator@V?$_Tree_val@U?$_Tree_simple_types@U?$pair@$$CBKV?$vector@U_VECINFO@@V?$allocator@U_VECINFO@@@std@@@std@@@std@@@std@@@std@@@std@@_N@1@$$QAU?$pair@$$CBKV?$vector@U_VECINFO@@V?$allocator@U_VECINFO@@@std@@@std@@@1@@Z ; std::_Tree<std::_Tmap_traits<unsigned long,std::vector<_VECINFO,std::allocator<_VECINFO> >,std::less<unsigned long>,std::allocator<std::pair<unsigned long const ,std::vector<_VECINFO,std::allocator<_VECINFO> > > >,0> >::insert<0,0>
PUBLIC	??$_Erase_tree@V?$allocator@U?$_Tree_node@U?$pair@$$CBKV?$vector@U_VECINFO@@V?$allocator@U_VECINFO@@@std@@@std@@@std@@PAX@std@@@std@@@?$_Tree_val@U?$_Tree_simple_types@U?$pair@$$CBKV?$vector@U_VECINFO@@V?$allocator@U_VECINFO@@@std@@@std@@@std@@@std@@@std@@QAEXAAV?$allocator@U?$_Tree_node@U?$pair@$$CBKV?$vector@U_VECINFO@@V?$allocator@U_VECINFO@@@std@@@std@@@std@@PAX@std@@@1@PAU?$_Tree_node@U?$pair@$$CBKV?$vector@U_VECINFO@@V?$allocator@U_VECINFO@@@std@@@std@@@std@@PAX@1@@Z ; std::_Tree_val<std::_Tree_simple_types<std::pair<unsigned long const ,std::vector<_VECINFO,std::allocator<_VECINFO> > > > >::_Erase_tree<std::allocator<std::_Tree_node<std::pair<unsigned long const ,std::vector<_VECINFO,std::allocator<_VECINFO> > >,void *> > >
PUBLIC	??$_Find_lower_bound@K@?$_Tree@V?$_Tmap_traits@KV?$vector@U_VECINFO@@V?$allocator@U_VECINFO@@@std@@@std@@U?$less@K@2@V?$allocator@U?$pair@$$CBKV?$vector@U_VECINFO@@V?$allocator@U_VECINFO@@@std@@@std@@@std@@@2@$0A@@std@@@std@@IBE?AU?$_Tree_find_result@PAU?$_Tree_node@U?$pair@$$CBKV?$vector@U_VECINFO@@V?$allocator@U_VECINFO@@@std@@@std@@@std@@PAX@std@@@1@ABK@Z ; std::_Tree<std::_Tmap_traits<unsigned long,std::vector<_VECINFO,std::allocator<_VECINFO> >,std::less<unsigned long>,std::allocator<std::pair<unsigned long const ,std::vector<_VECINFO,std::allocator<_VECINFO> > > >,0> >::_Find_lower_bound<unsigned long>
PUBLIC	??1?$_Alloc_construct_ptr@V?$allocator@U?$_Tree_node@U?$pair@$$CBKV?$vector@U_VECINFO@@V?$allocator@U_VECINFO@@@std@@@std@@@std@@PAX@std@@@std@@@std@@QAE@XZ ; std::_Alloc_construct_ptr<std::allocator<std::_Tree_node<std::pair<unsigned long const ,std::vector<_VECINFO,std::allocator<_VECINFO> > >,void *> > >::~_Alloc_construct_ptr<std::allocator<std::_Tree_node<std::pair<unsigned long const ,std::vector<_VECINFO,std::allocator<_VECINFO> > >,void *> > >
PUBLIC	??$_Emplace_reallocate@ABU_VECINFO@@@?$vector@U_VECINFO@@V?$allocator@U_VECINFO@@@std@@@std@@AAEPAU_VECINFO@@QAU2@ABU2@@Z ; std::vector<_VECINFO,std::allocator<_VECINFO> >::_Emplace_reallocate<_VECINFO const &>
PUBLIC	??$_Emplace_reallocate@ABUD3DXVECTOR3@@@?$vector@UD3DXVECTOR3@@V?$allocator@UD3DXVECTOR3@@@std@@@std@@AAEPAUD3DXVECTOR3@@QAU2@ABU2@@Z ; std::vector<D3DXVECTOR3,std::allocator<D3DXVECTOR3> >::_Emplace_reallocate<D3DXVECTOR3 const &>
PUBLIC	??$_Uninitialized_move@PAU_VECINFO@@V?$allocator@U_VECINFO@@@std@@@std@@YAPAU_VECINFO@@QAU1@0PAU1@AAV?$allocator@U_VECINFO@@@0@@Z ; std::_Uninitialized_move<_VECINFO *,std::allocator<_VECINFO> >
PUBLIC	??$_Copy_memmove@PAUD3DXVECTOR3@@PAU1@@std@@YAPAUD3DXVECTOR3@@PAU1@00@Z ; std::_Copy_memmove<D3DXVECTOR3 *,D3DXVECTOR3 *>
PUBLIC	??$_Copy_memmove_tail@PAUD3DXVECTOR3@@@std@@YAPAUD3DXVECTOR3@@QBDQAU1@II@Z ; std::_Copy_memmove_tail<D3DXVECTOR3 *>
PUBLIC	??_7exception@std@@6B@				; std::exception::`vftable'
PUBLIC	??_C@_0BC@EOODALEL@Unknown?5exception@		; `string'
PUBLIC	??_7bad_alloc@std@@6B@				; std::bad_alloc::`vftable'
PUBLIC	??_7bad_array_new_length@std@@6B@		; std::bad_array_new_length::`vftable'
PUBLIC	??_C@_0BF@KINCDENJ@bad?5array?5new?5length@	; `string'
PUBLIC	??_R0?AVexception@std@@@8			; std::exception `RTTI Type Descriptor'
PUBLIC	__CT??_R0?AVexception@std@@@8??0exception@std@@QAE@ABV01@@Z12
PUBLIC	__TI3?AVbad_array_new_length@std@@
PUBLIC	__CTA3?AVbad_array_new_length@std@@
PUBLIC	??_R0?AVbad_array_new_length@std@@@8		; std::bad_array_new_length `RTTI Type Descriptor'
PUBLIC	__CT??_R0?AVbad_array_new_length@std@@@8??0bad_array_new_length@std@@QAE@ABV01@@Z12
PUBLIC	??_R0?AVbad_alloc@std@@@8			; std::bad_alloc `RTTI Type Descriptor'
PUBLIC	__CT??_R0?AVbad_alloc@std@@@8??0bad_alloc@std@@QAE@ABV01@@Z12
PUBLIC	??_C@_0BB@GCADKGJO@map?1set?5too?5long@		; `string'
PUBLIC	??_7CTimer@@6B@					; CTimer::`vftable'
PUBLIC	??_C@_0BA@FOIKENOD@vector?5too?5long@		; `string'
PUBLIC	??_R4exception@std@@6B@				; std::exception::`RTTI Complete Object Locator'
PUBLIC	??_R3exception@std@@8				; std::exception::`RTTI Class Hierarchy Descriptor'
PUBLIC	??_R2exception@std@@8				; std::exception::`RTTI Base Class Array'
PUBLIC	??_R1A@?0A@EA@exception@std@@8			; std::exception::`RTTI Base Class Descriptor at (0,-1,0,64)'
PUBLIC	??_R4bad_array_new_length@std@@6B@		; std::bad_array_new_length::`RTTI Complete Object Locator'
PUBLIC	??_R3bad_array_new_length@std@@8		; std::bad_array_new_length::`RTTI Class Hierarchy Descriptor'
PUBLIC	??_R2bad_array_new_length@std@@8		; std::bad_array_new_length::`RTTI Base Class Array'
PUBLIC	??_R1A@?0A@EA@bad_array_new_length@std@@8	; std::bad_array_new_length::`RTTI Base Class Descriptor at (0,-1,0,64)'
PUBLIC	??_R1A@?0A@EA@bad_alloc@std@@8			; std::bad_alloc::`RTTI Base Class Descriptor at (0,-1,0,64)'
PUBLIC	??_R3bad_alloc@std@@8				; std::bad_alloc::`RTTI Class Hierarchy Descriptor'
PUBLIC	??_R2bad_alloc@std@@8				; std::bad_alloc::`RTTI Base Class Array'
PUBLIC	??_R4bad_alloc@std@@6B@				; std::bad_alloc::`RTTI Complete Object Locator'
PUBLIC	??_R4CTimer@@6B@				; CTimer::`RTTI Complete Object Locator'
PUBLIC	??_R0?AVCTimer@@@8				; CTimer `RTTI Type Descriptor'
PUBLIC	??_R3CTimer@@8					; CTimer::`RTTI Class Hierarchy Descriptor'
PUBLIC	??_R2CTimer@@8					; CTimer::`RTTI Base Class Array'
PUBLIC	??_R1A@?0A@EA@CTimer@@8				; CTimer::`RTTI Base Class Descriptor at (0,-1,0,64)'
PUBLIC	??_C@_05JBOMLEMN@INDEX@				; `string'
PUBLIC	??_C@_01CELHOKLL@?$HN@				; `string'
PUBLIC	__xmm@80000000800000008000000080000000
EXTRN	??2@YAPAXI@Z:PROC				; operator new
EXTRN	??3@YAXPAXI@Z:PROC				; operator delete
EXTRN	_atexit:PROC
EXTRN	__Init_thread_header:PROC
EXTRN	__Init_thread_abort:PROC
EXTRN	__Init_thread_footer:PROC
EXTRN	__invoke_watson:PROC
EXTRN	__mbscmp:PROC
EXTRN	?AfxThrowMemoryException@@YGXXZ:PROC		; AfxThrowMemoryException
EXTRN	?AfxThrowOleException@@YGXJ@Z:PROC		; AfxThrowOleException
EXTRN	___std_exception_copy:PROC
EXTRN	___std_exception_destroy:PROC
EXTRN	??_Eexception@std@@UAEPAXI@Z:PROC		; std::exception::`vector deleting destructor'
EXTRN	??_Ebad_alloc@std@@UAEPAXI@Z:PROC		; std::bad_alloc::`vector deleting destructor'
EXTRN	??_Ebad_array_new_length@std@@UAEPAXI@Z:PROC	; std::bad_array_new_length::`vector deleting destructor'
EXTRN	?_Xlength_error@std@@YAXPBD@Z:PROC		; std::_Xlength_error
EXTRN	_D3DXVec3Normalize@8:PROC
EXTRN	??0CTimer@@QAE@XZ:PROC				; CTimer::CTimer
EXTRN	?Reset@CTimer@@UAEXXZ:PROC			; CTimer::Reset
EXTRN	?Over@CTimer@@UAEHXZ:PROC			; CTimer::Over
EXTRN	??_ECTimer@@UAEPAXI@Z:PROC			; CTimer::`vector deleting destructor'
EXTRN	?GetNumber@CScanner@@QAEHH@Z:PROC		; CScanner::GetNumber
EXTRN	?GetFloat@CScanner@@QAEMH@Z:PROC		; CScanner::GetFloat
EXTRN	??0CScript@@QAE@H@Z:PROC			; CScript::CScript
EXTRN	??1CScript@@UAE@XZ:PROC				; CScript::~CScript
EXTRN	?Load@CScript@@QAEHPBDHH@Z:PROC			; CScript::Load
EXTRN	?GetToken@CScript@@UAEHH@Z:PROC			; CScript::GetToken
EXTRN	@__security_check_cookie@4:PROC
EXTRN	__CxxThrowException@8:PROC
EXTRN	___CxxFrameHandler3:PROC
EXTRN	__libm_sse2_sqrt_precise:PROC
EXTRN	_memmove:PROC
EXTRN	__Init_thread_epoch:DWORD
EXTRN	??_7type_info@@6B@:QWORD			; type_info::`vftable'
EXTRN	___security_cookie:DWORD
EXTRN	__fltused:DWORD
EXTRN	__tls_array:DWORD
EXTRN	__tls_index:DWORD
;	COMDAT ?sMailBox@?1??GetInstance@CPatrolPath@@SAPAV2@XZ@4V2@A
_BSS	SEGMENT
?sMailBox@?1??GetInstance@CPatrolPath@@SAPAV2@XZ@4V2@A DB 010H DUP (?) ; `CPatrolPath::GetInstance'::`2'::sMailBox
_BSS	ENDS
;	COMDAT ?$TSS0@?1??GetInstance@CPatrolPath@@SAPAV2@XZ@4HA
_BSS	SEGMENT
?$TSS0@?1??GetInstance@CPatrolPath@@SAPAV2@XZ@4HA DD 01H DUP (?) ; `CPatrolPath::GetInstance'::`2'::$TSS0
_BSS	ENDS
;	COMDAT __xmm@80000000800000008000000080000000
CONST	SEGMENT
__xmm@80000000800000008000000080000000 DB 00H, 00H, 00H, 080H, 00H, 00H, 00H
	DB	080H, 00H, 00H, 00H, 080H, 00H, 00H, 00H, 080H
CONST	ENDS
;	COMDAT ??_C@_01CELHOKLL@?$HN@
CONST	SEGMENT
??_C@_01CELHOKLL@?$HN@ DB '}', 00H			; `string'
CONST	ENDS
;	COMDAT ??_C@_05JBOMLEMN@INDEX@
CONST	SEGMENT
??_C@_05JBOMLEMN@INDEX@ DB 'INDEX', 00H			; `string'
CONST	ENDS
;	COMDAT ??_R1A@?0A@EA@CTimer@@8
rdata$r	SEGMENT
??_R1A@?0A@EA@CTimer@@8 DD FLAT:??_R0?AVCTimer@@@8	; CTimer::`RTTI Base Class Descriptor at (0,-1,0,64)'
	DD	00H
	DD	00H
	DD	0ffffffffH
	DD	00H
	DD	040H
	DD	FLAT:??_R3CTimer@@8
rdata$r	ENDS
;	COMDAT ??_R2CTimer@@8
rdata$r	SEGMENT
??_R2CTimer@@8 DD FLAT:??_R1A@?0A@EA@CTimer@@8		; CTimer::`RTTI Base Class Array'
rdata$r	ENDS
;	COMDAT ??_R3CTimer@@8
rdata$r	SEGMENT
??_R3CTimer@@8 DD 00H					; CTimer::`RTTI Class Hierarchy Descriptor'
	DD	00H
	DD	01H
	DD	FLAT:??_R2CTimer@@8
rdata$r	ENDS
;	COMDAT ??_R0?AVCTimer@@@8
data$rs	SEGMENT
??_R0?AVCTimer@@@8 DD FLAT:??_7type_info@@6B@		; CTimer `RTTI Type Descriptor'
	DD	00H
	DB	'.?AVCTimer@@', 00H
data$rs	ENDS
;	COMDAT ??_R4CTimer@@6B@
rdata$r	SEGMENT
??_R4CTimer@@6B@ DD 00H					; CTimer::`RTTI Complete Object Locator'
	DD	00H
	DD	00H
	DD	FLAT:??_R0?AVCTimer@@@8
	DD	FLAT:??_R3CTimer@@8
rdata$r	ENDS
;	COMDAT ??_R4bad_alloc@std@@6B@
rdata$r	SEGMENT
??_R4bad_alloc@std@@6B@ DD 00H				; std::bad_alloc::`RTTI Complete Object Locator'
	DD	00H
	DD	00H
	DD	FLAT:??_R0?AVbad_alloc@std@@@8
	DD	FLAT:??_R3bad_alloc@std@@8
rdata$r	ENDS
;	COMDAT ??_R2bad_alloc@std@@8
rdata$r	SEGMENT
??_R2bad_alloc@std@@8 DD FLAT:??_R1A@?0A@EA@bad_alloc@std@@8 ; std::bad_alloc::`RTTI Base Class Array'
	DD	FLAT:??_R1A@?0A@EA@exception@std@@8
rdata$r	ENDS
;	COMDAT ??_R3bad_alloc@std@@8
rdata$r	SEGMENT
??_R3bad_alloc@std@@8 DD 00H				; std::bad_alloc::`RTTI Class Hierarchy Descriptor'
	DD	00H
	DD	02H
	DD	FLAT:??_R2bad_alloc@std@@8
rdata$r	ENDS
;	COMDAT ??_R1A@?0A@EA@bad_alloc@std@@8
rdata$r	SEGMENT
??_R1A@?0A@EA@bad_alloc@std@@8 DD FLAT:??_R0?AVbad_alloc@std@@@8 ; std::bad_alloc::`RTTI Base Class Descriptor at (0,-1,0,64)'
	DD	01H
	DD	00H
	DD	0ffffffffH
	DD	00H
	DD	040H
	DD	FLAT:??_R3bad_alloc@std@@8
rdata$r	ENDS
;	COMDAT ??_R1A@?0A@EA@bad_array_new_length@std@@8
rdata$r	SEGMENT
??_R1A@?0A@EA@bad_array_new_length@std@@8 DD FLAT:??_R0?AVbad_array_new_length@std@@@8 ; std::bad_array_new_length::`RTTI Base Class Descriptor at (0,-1,0,64)'
	DD	02H
	DD	00H
	DD	0ffffffffH
	DD	00H
	DD	040H
	DD	FLAT:??_R3bad_array_new_length@std@@8
rdata$r	ENDS
;	COMDAT ??_R2bad_array_new_length@std@@8
rdata$r	SEGMENT
??_R2bad_array_new_length@std@@8 DD FLAT:??_R1A@?0A@EA@bad_array_new_length@std@@8 ; std::bad_array_new_length::`RTTI Base Class Array'
	DD	FLAT:??_R1A@?0A@EA@bad_alloc@std@@8
	DD	FLAT:??_R1A@?0A@EA@exception@std@@8
rdata$r	ENDS
;	COMDAT ??_R3bad_array_new_length@std@@8
rdata$r	SEGMENT
??_R3bad_array_new_length@std@@8 DD 00H			; std::bad_array_new_length::`RTTI Class Hierarchy Descriptor'
	DD	00H
	DD	03H
	DD	FLAT:??_R2bad_array_new_length@std@@8
rdata$r	ENDS
;	COMDAT ??_R4bad_array_new_length@std@@6B@
rdata$r	SEGMENT
??_R4bad_array_new_length@std@@6B@ DD 00H		; std::bad_array_new_length::`RTTI Complete Object Locator'
	DD	00H
	DD	00H
	DD	FLAT:??_R0?AVbad_array_new_length@std@@@8
	DD	FLAT:??_R3bad_array_new_length@std@@8
rdata$r	ENDS
;	COMDAT ??_R1A@?0A@EA@exception@std@@8
rdata$r	SEGMENT
??_R1A@?0A@EA@exception@std@@8 DD FLAT:??_R0?AVexception@std@@@8 ; std::exception::`RTTI Base Class Descriptor at (0,-1,0,64)'
	DD	00H
	DD	00H
	DD	0ffffffffH
	DD	00H
	DD	040H
	DD	FLAT:??_R3exception@std@@8
rdata$r	ENDS
;	COMDAT ??_R2exception@std@@8
rdata$r	SEGMENT
??_R2exception@std@@8 DD FLAT:??_R1A@?0A@EA@exception@std@@8 ; std::exception::`RTTI Base Class Array'
rdata$r	ENDS
;	COMDAT ??_R3exception@std@@8
rdata$r	SEGMENT
??_R3exception@std@@8 DD 00H				; std::exception::`RTTI Class Hierarchy Descriptor'
	DD	00H
	DD	01H
	DD	FLAT:??_R2exception@std@@8
rdata$r	ENDS
;	COMDAT ??_R4exception@std@@6B@
rdata$r	SEGMENT
??_R4exception@std@@6B@ DD 00H				; std::exception::`RTTI Complete Object Locator'
	DD	00H
	DD	00H
	DD	FLAT:??_R0?AVexception@std@@@8
	DD	FLAT:??_R3exception@std@@8
rdata$r	ENDS
;	COMDAT ??_C@_0BA@FOIKENOD@vector?5too?5long@
CONST	SEGMENT
??_C@_0BA@FOIKENOD@vector?5too?5long@ DB 'vector too long', 00H ; `string'
CONST	ENDS
;	COMDAT ??_7CTimer@@6B@
CONST	SEGMENT
??_7CTimer@@6B@ DD FLAT:??_R4CTimer@@6B@		; CTimer::`vftable'
	DD	FLAT:??_ECTimer@@UAEPAXI@Z
	DD	FLAT:?Reset@CTimer@@UAEXXZ
	DD	FLAT:?Over@CTimer@@UAEHXZ
CONST	ENDS
;	COMDAT ??_C@_0BB@GCADKGJO@map?1set?5too?5long@
CONST	SEGMENT
??_C@_0BB@GCADKGJO@map?1set?5too?5long@ DB 'map/set too long', 00H ; `string'
CONST	ENDS
;	COMDAT __CT??_R0?AVbad_alloc@std@@@8??0bad_alloc@std@@QAE@ABV01@@Z12
xdata$x	SEGMENT
__CT??_R0?AVbad_alloc@std@@@8??0bad_alloc@std@@QAE@ABV01@@Z12 DD 010H
	DD	FLAT:??_R0?AVbad_alloc@std@@@8
	DD	00H
	DD	0ffffffffH
	ORG $+4
	DD	0cH
	DD	FLAT:??0bad_alloc@std@@QAE@ABV01@@Z
xdata$x	ENDS
;	COMDAT ??_R0?AVbad_alloc@std@@@8
data$r	SEGMENT
??_R0?AVbad_alloc@std@@@8 DD FLAT:??_7type_info@@6B@	; std::bad_alloc `RTTI Type Descriptor'
	DD	00H
	DB	'.?AVbad_alloc@std@@', 00H
data$r	ENDS
;	COMDAT __CT??_R0?AVbad_array_new_length@std@@@8??0bad_array_new_length@std@@QAE@ABV01@@Z12
xdata$x	SEGMENT
__CT??_R0?AVbad_array_new_length@std@@@8??0bad_array_new_length@std@@QAE@ABV01@@Z12 DD 00H
	DD	FLAT:??_R0?AVbad_array_new_length@std@@@8
	DD	00H
	DD	0ffffffffH
	ORG $+4
	DD	0cH
	DD	FLAT:??0bad_array_new_length@std@@QAE@ABV01@@Z
xdata$x	ENDS
;	COMDAT ??_R0?AVbad_array_new_length@std@@@8
data$r	SEGMENT
??_R0?AVbad_array_new_length@std@@@8 DD FLAT:??_7type_info@@6B@ ; std::bad_array_new_length `RTTI Type Descriptor'
	DD	00H
	DB	'.?AVbad_array_new_length@std@@', 00H
data$r	ENDS
;	COMDAT __CTA3?AVbad_array_new_length@std@@
xdata$x	SEGMENT
__CTA3?AVbad_array_new_length@std@@ DD 03H
	DD	FLAT:__CT??_R0?AVbad_array_new_length@std@@@8??0bad_array_new_length@std@@QAE@ABV01@@Z12
	DD	FLAT:__CT??_R0?AVbad_alloc@std@@@8??0bad_alloc@std@@QAE@ABV01@@Z12
	DD	FLAT:__CT??_R0?AVexception@std@@@8??0exception@std@@QAE@ABV01@@Z12
xdata$x	ENDS
;	COMDAT __TI3?AVbad_array_new_length@std@@
xdata$x	SEGMENT
__TI3?AVbad_array_new_length@std@@ DD 00H
	DD	FLAT:??1bad_array_new_length@std@@UAE@XZ
	DD	00H
	DD	FLAT:__CTA3?AVbad_array_new_length@std@@
xdata$x	ENDS
;	COMDAT __CT??_R0?AVexception@std@@@8??0exception@std@@QAE@ABV01@@Z12
xdata$x	SEGMENT
__CT??_R0?AVexception@std@@@8??0exception@std@@QAE@ABV01@@Z12 DD 00H
	DD	FLAT:??_R0?AVexception@std@@@8
	DD	00H
	DD	0ffffffffH
	ORG $+4
	DD	0cH
	DD	FLAT:??0exception@std@@QAE@ABV01@@Z
xdata$x	ENDS
;	COMDAT ??_R0?AVexception@std@@@8
data$r	SEGMENT
??_R0?AVexception@std@@@8 DD FLAT:??_7type_info@@6B@	; std::exception `RTTI Type Descriptor'
	DD	00H
	DB	'.?AVexception@std@@', 00H
data$r	ENDS
;	COMDAT ??_C@_0BF@KINCDENJ@bad?5array?5new?5length@
CONST	SEGMENT
??_C@_0BF@KINCDENJ@bad?5array?5new?5length@ DB 'bad array new length', 00H ; `string'
CONST	ENDS
;	COMDAT ??_7bad_array_new_length@std@@6B@
CONST	SEGMENT
??_7bad_array_new_length@std@@6B@ DD FLAT:??_R4bad_array_new_length@std@@6B@ ; std::bad_array_new_length::`vftable'
	DD	FLAT:??_Ebad_array_new_length@std@@UAEPAXI@Z
	DD	FLAT:?what@exception@std@@UBEPBDXZ
CONST	ENDS
;	COMDAT ??_7bad_alloc@std@@6B@
CONST	SEGMENT
??_7bad_alloc@std@@6B@ DD FLAT:??_R4bad_alloc@std@@6B@	; std::bad_alloc::`vftable'
	DD	FLAT:??_Ebad_alloc@std@@UAEPAXI@Z
	DD	FLAT:?what@exception@std@@UBEPBDXZ
CONST	ENDS
;	COMDAT ??_C@_0BC@EOODALEL@Unknown?5exception@
CONST	SEGMENT
??_C@_0BC@EOODALEL@Unknown?5exception@ DB 'Unknown exception', 00H ; `string'
CONST	ENDS
;	COMDAT ??_7exception@std@@6B@
CONST	SEGMENT
??_7exception@std@@6B@ DD FLAT:??_R4exception@std@@6B@	; std::exception::`vftable'
	DD	FLAT:??_Eexception@std@@UAEPAXI@Z
	DD	FLAT:?what@exception@std@@UBEPBDXZ
CONST	ENDS
;	COMDAT xdata$x
xdata$x	SEGMENT
__unwindtable$??$?0U?$pair@$$CBKV?$vector@U_VECINFO@@V?$allocator@U_VECINFO@@@std@@@std@@@std@@@?$_Tree_temp_node@V?$allocator@U?$_Tree_node@U?$pair@$$CBKV?$vector@U_VECINFO@@V?$allocator@U_VECINFO@@@std@@@std@@@std@@PAX@std@@@std@@@std@@QAE@AAV?$allocator@U?$_Tree_node@U?$pair@$$CBKV?$vector@U_VECINFO@@V?$allocator@U_VECINFO@@@std@@@std@@@std@@PAX@std@@@1@PAU?$_Tree_node@U?$pair@$$CBKV?$vector@U_VECINFO@@V?$allocator@U_VECINFO@@@std@@@std@@@std@@PAX@1@$$QAU?$pair@$$CBKV?$vector@U_VECINFO@@V?$allocator@U_VECINFO@@@std@@@std@@@1@@Z DD 0ffffffffH
	DD	FLAT:__unwindfunclet$??$?0U?$pair@$$CBKV?$vector@U_VECINFO@@V?$allocator@U_VECINFO@@@std@@@std@@@std@@@?$_Tree_temp_node@V?$allocator@U?$_Tree_node@U?$pair@$$CBKV?$vector@U_VECINFO@@V?$allocator@U_VECINFO@@@std@@@std@@@std@@PAX@std@@@std@@@std@@QAE@AAV?$allocator@U?$_Tree_node@U?$pair@$$CBKV?$vector@U_VECINFO@@V?$allocator@U_VECINFO@@@std@@@std@@@std@@PAX@std@@@1@PAU?$_Tree_node@U?$pair@$$CBKV?$vector@U_VECINFO@@V?$allocator@U_VECINFO@@@std@@@std@@@std@@PAX@1@$$QAU?$pair@$$CBKV?$vector@U_VECINFO@@V?$allocator@U_VECINFO@@@std@@@std@@@1@@Z$1
__ehfuncinfo$??$?0U?$pair@$$CBKV?$vector@U_VECINFO@@V?$allocator@U_VECINFO@@@std@@@std@@@std@@@?$_Tree_temp_node@V?$allocator@U?$_Tree_node@U?$pair@$$CBKV?$vector@U_VECINFO@@V?$allocator@U_VECINFO@@@std@@@std@@@std@@PAX@std@@@std@@@std@@QAE@AAV?$allocator@U?$_Tree_node@U?$pair@$$CBKV?$vector@U_VECINFO@@V?$allocator@U_VECINFO@@@std@@@std@@@std@@PAX@std@@@1@PAU?$_Tree_node@U?$pair@$$CBKV?$vector@U_VECINFO@@V?$allocator@U_VECINFO@@@std@@@std@@@std@@PAX@1@$$QAU?$pair@$$CBKV?$vector@U_VECINFO@@V?$allocator@U_VECINFO@@@std@@@std@@@1@@Z DD 019930522H
	DD	01H
	DD	FLAT:__unwindtable$??$?0U?$pair@$$CBKV?$vector@U_VECINFO@@V?$allocator@U_VECINFO@@@std@@@std@@@std@@@?$_Tree_temp_node@V?$allocator@U?$_Tree_node@U?$pair@$$CBKV?$vector@U_VECINFO@@V?$allocator@U_VECINFO@@@std@@@std@@@std@@PAX@std@@@std@@@std@@QAE@AAV?$allocator@U?$_Tree_node@U?$pair@$$CBKV?$vector@U_VECINFO@@V?$allocator@U_VECINFO@@@std@@@std@@@std@@PAX@std@@@1@PAU?$_Tree_node@U?$pair@$$CBKV?$vector@U_VECINFO@@V?$allocator@U_VECINFO@@@std@@@std@@@std@@PAX@1@$$QAU?$pair@$$CBKV?$vector@U_VECINFO@@V?$allocator@U_VECINFO@@@std@@@std@@@1@@Z
	DD	2 DUP(00H)
	DD	2 DUP(00H)
	DD	00H
	DD	01H
xdata$x	ENDS
;	COMDAT xdata$x
xdata$x	SEGMENT
__unwindtable$??0?$_Tree_temp_node_alloc@V?$allocator@U?$_Tree_node@U?$pair@$$CBKV?$vector@U_VECINFO@@V?$allocator@U_VECINFO@@@std@@@std@@@std@@PAX@std@@@std@@@std@@QAE@AAV?$allocator@U?$_Tree_node@U?$pair@$$CBKV?$vector@U_VECINFO@@V?$allocator@U_VECINFO@@@std@@@std@@@std@@PAX@std@@@1@@Z DD 0ffffffffH
	DD	FLAT:__unwindfunclet$??0?$_Tree_temp_node_alloc@V?$allocator@U?$_Tree_node@U?$pair@$$CBKV?$vector@U_VECINFO@@V?$allocator@U_VECINFO@@@std@@@std@@@std@@PAX@std@@@std@@@std@@QAE@AAV?$allocator@U?$_Tree_node@U?$pair@$$CBKV?$vector@U_VECINFO@@V?$allocator@U_VECINFO@@@std@@@std@@@std@@PAX@std@@@1@@Z$0
__ehfuncinfo$??0?$_Tree_temp_node_alloc@V?$allocator@U?$_Tree_node@U?$pair@$$CBKV?$vector@U_VECINFO@@V?$allocator@U_VECINFO@@@std@@@std@@@std@@PAX@std@@@std@@@std@@QAE@AAV?$allocator@U?$_Tree_node@U?$pair@$$CBKV?$vector@U_VECINFO@@V?$allocator@U_VECINFO@@@std@@@std@@@std@@PAX@std@@@1@@Z DD 019930522H
	DD	01H
	DD	FLAT:__unwindtable$??0?$_Tree_temp_node_alloc@V?$allocator@U?$_Tree_node@U?$pair@$$CBKV?$vector@U_VECINFO@@V?$allocator@U_VECINFO@@@std@@@std@@@std@@PAX@std@@@std@@@std@@QAE@AAV?$allocator@U?$_Tree_node@U?$pair@$$CBKV?$vector@U_VECINFO@@V?$allocator@U_VECINFO@@@std@@@std@@@std@@PAX@std@@@1@@Z
	DD	2 DUP(00H)
	DD	2 DUP(00H)
	DD	00H
	DD	01H
xdata$x	ENDS
;	COMDAT xdata$x
xdata$x	SEGMENT
__unwindtable$??$_Emplace@U?$pair@$$CBKV?$vector@U_VECINFO@@V?$allocator@U_VECINFO@@@std@@@std@@@std@@@?$_Tree@V?$_Tmap_traits@KV?$vector@U_VECINFO@@V?$allocator@U_VECINFO@@@std@@@std@@U?$less@K@2@V?$allocator@U?$pair@$$CBKV?$vector@U_VECINFO@@V?$allocator@U_VECINFO@@@std@@@std@@@std@@@2@$0A@@std@@@std@@IAE?AU?$pair@PAU?$_Tree_node@U?$pair@$$CBKV?$vector@U_VECINFO@@V?$allocator@U_VECINFO@@@std@@@std@@@std@@PAX@std@@_N@1@$$QAU?$pair@$$CBKV?$vector@U_VECINFO@@V?$allocator@U_VECINFO@@@std@@@std@@@1@@Z DD 0ffffffffH
	DD	FLAT:__unwindfunclet$??$_Emplace@U?$pair@$$CBKV?$vector@U_VECINFO@@V?$allocator@U_VECINFO@@@std@@@std@@@std@@@?$_Tree@V?$_Tmap_traits@KV?$vector@U_VECINFO@@V?$allocator@U_VECINFO@@@std@@@std@@U?$less@K@2@V?$allocator@U?$pair@$$CBKV?$vector@U_VECINFO@@V?$allocator@U_VECINFO@@@std@@@std@@@std@@@2@$0A@@std@@@std@@IAE?AU?$pair@PAU?$_Tree_node@U?$pair@$$CBKV?$vector@U_VECINFO@@V?$allocator@U_VECINFO@@@std@@@std@@@std@@PAX@std@@_N@1@$$QAU?$pair@$$CBKV?$vector@U_VECINFO@@V?$allocator@U_VECINFO@@@std@@@std@@@1@@Z$2
__ehfuncinfo$??$_Emplace@U?$pair@$$CBKV?$vector@U_VECINFO@@V?$allocator@U_VECINFO@@@std@@@std@@@std@@@?$_Tree@V?$_Tmap_traits@KV?$vector@U_VECINFO@@V?$allocator@U_VECINFO@@@std@@@std@@U?$less@K@2@V?$allocator@U?$pair@$$CBKV?$vector@U_VECINFO@@V?$allocator@U_VECINFO@@@std@@@std@@@std@@@2@$0A@@std@@@std@@IAE?AU?$pair@PAU?$_Tree_node@U?$pair@$$CBKV?$vector@U_VECINFO@@V?$allocator@U_VECINFO@@@std@@@std@@@std@@PAX@std@@_N@1@$$QAU?$pair@$$CBKV?$vector@U_VECINFO@@V?$allocator@U_VECINFO@@@std@@@std@@@1@@Z DD 019930522H
	DD	01H
	DD	FLAT:__unwindtable$??$_Emplace@U?$pair@$$CBKV?$vector@U_VECINFO@@V?$allocator@U_VECINFO@@@std@@@std@@@std@@@?$_Tree@V?$_Tmap_traits@KV?$vector@U_VECINFO@@V?$allocator@U_VECINFO@@@std@@@std@@U?$less@K@2@V?$allocator@U?$pair@$$CBKV?$vector@U_VECINFO@@V?$allocator@U_VECINFO@@@std@@@std@@@std@@@2@$0A@@std@@@std@@IAE?AU?$pair@PAU?$_Tree_node@U?$pair@$$CBKV?$vector@U_VECINFO@@V?$allocator@U_VECINFO@@@std@@@std@@@std@@PAX@std@@_N@1@$$QAU?$pair@$$CBKV?$vector@U_VECINFO@@V?$allocator@U_VECINFO@@@std@@@std@@@1@@Z
	DD	2 DUP(00H)
	DD	2 DUP(00H)
	DD	00H
	DD	01H
xdata$x	ENDS
;	COMDAT xdata$x
xdata$x	SEGMENT
__unwindtable$??$insert@$0A@$0A@@?$_Tree@V?$_Tmap_traits@KV?$vector@U_VECINFO@@V?$allocator@U_VECINFO@@@std@@@std@@U?$less@K@2@V?$allocator@U?$pair@$$CBKV?$vector@U_VECINFO@@V?$allocator@U_VECINFO@@@std@@@std@@@std@@@2@$0A@@std@@@std@@QAE?AU?$pair@V?$_Tree_iterator@V?$_Tree_val@U?$_Tree_simple_types@U?$pair@$$CBKV?$vector@U_VECINFO@@V?$allocator@U_VECINFO@@@std@@@std@@@std@@@std@@@std@@@std@@_N@1@$$QAU?$pair@$$CBKV?$vector@U_VECINFO@@V?$allocator@U_VECINFO@@@std@@@std@@@1@@Z DD 0ffffffffH
	DD	FLAT:__unwindfunclet$??$insert@$0A@$0A@@?$_Tree@V?$_Tmap_traits@KV?$vector@U_VECINFO@@V?$allocator@U_VECINFO@@@std@@@std@@U?$less@K@2@V?$allocator@U?$pair@$$CBKV?$vector@U_VECINFO@@V?$allocator@U_VECINFO@@@std@@@std@@@std@@@2@$0A@@std@@@std@@QAE?AU?$pair@V?$_Tree_iterator@V?$_Tree_val@U?$_Tree_simple_types@U?$pair@$$CBKV?$vector@U_VECINFO@@V?$allocator@U_VECINFO@@@std@@@std@@@std@@@std@@@std@@@std@@_N@1@$$QAU?$pair@$$CBKV?$vector@U_VECINFO@@V?$allocator@U_VECINFO@@@std@@@std@@@1@@Z$2
__ehfuncinfo$??$insert@$0A@$0A@@?$_Tree@V?$_Tmap_traits@KV?$vector@U_VECINFO@@V?$allocator@U_VECINFO@@@std@@@std@@U?$less@K@2@V?$allocator@U?$pair@$$CBKV?$vector@U_VECINFO@@V?$allocator@U_VECINFO@@@std@@@std@@@std@@@2@$0A@@std@@@std@@QAE?AU?$pair@V?$_Tree_iterator@V?$_Tree_val@U?$_Tree_simple_types@U?$pair@$$CBKV?$vector@U_VECINFO@@V?$allocator@U_VECINFO@@@std@@@std@@@std@@@std@@@std@@@std@@_N@1@$$QAU?$pair@$$CBKV?$vector@U_VECINFO@@V?$allocator@U_VECINFO@@@std@@@std@@@1@@Z DD 019930522H
	DD	01H
	DD	FLAT:__unwindtable$??$insert@$0A@$0A@@?$_Tree@V?$_Tmap_traits@KV?$vector@U_VECINFO@@V?$allocator@U_VECINFO@@@std@@@std@@U?$less@K@2@V?$allocator@U?$pair@$$CBKV?$vector@U_VECINFO@@V?$allocator@U_VECINFO@@@std@@@std@@@std@@@2@$0A@@std@@@std@@QAE?AU?$pair@V?$_Tree_iterator@V?$_Tree_val@U?$_Tree_simple_types@U?$pair@$$CBKV?$vector@U_VECINFO@@V?$allocator@U_VECINFO@@@std@@@std@@@std@@@std@@@std@@@std@@_N@1@$$QAU?$pair@$$CBKV?$vector@U_VECINFO@@V?$allocator@U_VECINFO@@@std@@@std@@@1@@Z
	DD	2 DUP(00H)
	DD	2 DUP(00H)
	DD	00H
	DD	01H
xdata$x	ENDS
;	COMDAT xdata$x
xdata$x	SEGMENT
__unwindtable$?AddPatrolPath@CPatrolPath@@QAEXKU_VECINFO@@@Z DD 0ffffffffH
	DD	FLAT:__unwindfunclet$?AddPatrolPath@CPatrolPath@@QAEXKU_VECINFO@@@Z$0
	DD	00H
	DD	FLAT:__unwindfunclet$?AddPatrolPath@CPatrolPath@@QAEXKU_VECINFO@@@Z$1
	DD	01H
	DD	FLAT:__unwindfunclet$?AddPatrolPath@CPatrolPath@@QAEXKU_VECINFO@@@Z$2
__ehfuncinfo$?AddPatrolPath@CPatrolPath@@QAEXKU_VECINFO@@@Z DD 019930522H
	DD	03H
	DD	FLAT:__unwindtable$?AddPatrolPath@CPatrolPath@@QAEXKU_VECINFO@@@Z
	DD	2 DUP(00H)
	DD	2 DUP(00H)
	DD	00H
	DD	01H
xdata$x	ENDS
;	COMDAT xdata$x
xdata$x	SEGMENT
__unwindtable$?AddPatrolIndex@CPatrolPath@@QAEXK@Z DD 0ffffffffH
	DD	FLAT:__unwindfunclet$?AddPatrolIndex@CPatrolPath@@QAEXK@Z$0
	DD	00H
	DD	FLAT:__unwindfunclet$?AddPatrolIndex@CPatrolPath@@QAEXK@Z$1
__ehfuncinfo$?AddPatrolIndex@CPatrolPath@@QAEXK@Z DD 019930522H
	DD	02H
	DD	FLAT:__unwindtable$?AddPatrolIndex@CPatrolPath@@QAEXK@Z
	DD	2 DUP(00H)
	DD	2 DUP(00H)
	DD	00H
	DD	01H
xdata$x	ENDS
;	COMDAT xdata$x
xdata$x	SEGMENT
__unwindtable$?LoadPatrol@CPatrolPath@@QAEHPBD@Z DD 0ffffffffH
	DD	FLAT:__unwindfunclet$?LoadPatrol@CPatrolPath@@QAEHPBD@Z$0
	DD	00H
	DD	FLAT:__unwindfunclet$?LoadPatrol@CPatrolPath@@QAEHPBD@Z$1
	DD	01H
	DD	FLAT:__unwindfunclet$?LoadPatrol@CPatrolPath@@QAEHPBD@Z$2
	DD	02H
	DD	FLAT:__unwindfunclet$?LoadPatrol@CPatrolPath@@QAEHPBD@Z$3
__ehfuncinfo$?LoadPatrol@CPatrolPath@@QAEHPBD@Z DD 019930522H
	DD	04H
	DD	FLAT:__unwindtable$?LoadPatrol@CPatrolPath@@QAEHPBD@Z
	DD	2 DUP(00H)
	DD	2 DUP(00H)
	DD	00H
	DD	01H
xdata$x	ENDS
;	COMDAT xdata$x
xdata$x	SEGMENT
__unwindtable$?GetInstance@CPatrolPath@@SAPAV1@XZ DD 0ffffffffH
	DD	FLAT:__unwindfunclet$?GetInstance@CPatrolPath@@SAPAV1@XZ$0
__ehfuncinfo$?GetInstance@CPatrolPath@@SAPAV1@XZ DD 019930522H
	DD	01H
	DD	FLAT:__unwindtable$?GetInstance@CPatrolPath@@SAPAV1@XZ
	DD	2 DUP(00H)
	DD	2 DUP(00H)
	DD	00H
	DD	01H
xdata$x	ENDS
;	COMDAT xdata$x
xdata$x	SEGMENT
__unwindtable$??0CPatrolPath@@QAE@XZ DD 0ffffffffH
	DD	FLAT:__unwindfunclet$??0CPatrolPath@@QAE@XZ$0
__ehfuncinfo$??0CPatrolPath@@QAE@XZ DD 019930522H
	DD	01H
	DD	FLAT:__unwindtable$??0CPatrolPath@@QAE@XZ
	DD	2 DUP(00H)
	DD	2 DUP(00H)
	DD	00H
	DD	01H
xdata$x	ENDS
; Function compile flags: /Ogtp
; File C:\Program Files\Microsoft Visual Studio\2022\Professional\VC\Tools\MSVC\14.44.35207\include\xutility
;	COMDAT ??$_Copy_memmove_tail@PAUD3DXVECTOR3@@@std@@YAPAUD3DXVECTOR3@@QBDQAU1@II@Z
_TEXT	SEGMENT
__First_ch$ = 8						; size = 4
__Dest$ = 12						; size = 4
__Byte_count$ = 16					; size = 4
__Object_count$ = 20					; size = 4
??$_Copy_memmove_tail@PAUD3DXVECTOR3@@@std@@YAPAUD3DXVECTOR3@@QBDQAU1@II@Z PROC ; std::_Copy_memmove_tail<D3DXVECTOR3 *>, COMDAT

; 4747 :     const char* const _First_ch, const _OutCtgIt _Dest, const size_t _Byte_count, const size_t _Object_count) {

  00000	55		 push	 ebp
  00001	8b ec		 mov	 ebp, esp
  00003	56		 push	 esi

; 4748 :     _STL_INTERNAL_CHECK(_Byte_count == _Object_count * sizeof(*_Dest));
; 4749 :     const auto _Dest_ptr = _STD _To_address(_Dest);
; 4750 :     const auto _Dest_ch  = const_cast<char*>(reinterpret_cast<const volatile char*>(_Dest_ptr));
; 4751 :     _CSTD memmove(_Dest_ch, _First_ch, _Byte_count);

  00004	8b 75 0c	 mov	 esi, DWORD PTR __Dest$[ebp]
  00007	57		 push	 edi
  00008	8b 7d 10	 mov	 edi, DWORD PTR __Byte_count$[ebp]
  0000b	57		 push	 edi
  0000c	ff 75 08	 push	 DWORD PTR __First_ch$[ebp]
  0000f	56		 push	 esi
  00010	e8 00 00 00 00	 call	 _memmove
  00015	83 c4 0c	 add	 esp, 12			; 0000000cH

; 4752 :     if constexpr (is_pointer_v<_OutCtgIt>) {
; 4753 :         (void) _Object_count;
; 4754 :         // CodeQL [SM02986] This cast is correct: we're bypassing pointer arithmetic for performance.
; 4755 :         return reinterpret_cast<_OutCtgIt>(_Dest_ch + _Byte_count);

  00018	8d 04 3e	 lea	 eax, DWORD PTR [esi+edi]
  0001b	5f		 pop	 edi
  0001c	5e		 pop	 esi

; 4756 :     } else {
; 4757 :         return _Dest + static_cast<_Iter_diff_t<_OutCtgIt>>(_Object_count);
; 4758 :     }
; 4759 : }

  0001d	5d		 pop	 ebp
  0001e	c3		 ret	 0
??$_Copy_memmove_tail@PAUD3DXVECTOR3@@@std@@YAPAUD3DXVECTOR3@@QBDQAU1@II@Z ENDP ; std::_Copy_memmove_tail<D3DXVECTOR3 *>
_TEXT	ENDS
; Function compile flags: /Ogtp
; File C:\Program Files\Microsoft Visual Studio\2022\Professional\VC\Tools\MSVC\14.44.35207\include\xutility
;	COMDAT ??$_Copy_memmove@PAUD3DXVECTOR3@@PAU1@@std@@YAPAUD3DXVECTOR3@@PAU1@00@Z
_TEXT	SEGMENT
__First$ = 8						; size = 4
__Last$ = 12						; size = 4
__Dest$ = 16						; size = 4
??$_Copy_memmove@PAUD3DXVECTOR3@@PAU1@@std@@YAPAUD3DXVECTOR3@@PAU1@00@Z PROC ; std::_Copy_memmove<D3DXVECTOR3 *,D3DXVECTOR3 *>, COMDAT

; 4762 : _OutCtgIt _Copy_memmove(_CtgIt _First, _CtgIt _Last, _OutCtgIt _Dest) {

  00000	55		 push	 ebp
  00001	8b ec		 mov	 ebp, esp

; 4763 :     _STL_INTERNAL_CHECK(_First <= _Last);
; 4764 :     const auto _First_ptr    = _STD _To_address(_First);
; 4765 :     const auto _Last_ptr     = _STD _To_address(_Last);
; 4766 :     const auto _Object_count = static_cast<size_t>(_Last_ptr - _First_ptr);

  00003	8b 4d 0c	 mov	 ecx, DWORD PTR __Last$[ebp]
  00006	b8 ab aa aa 2a	 mov	 eax, 715827883		; 2aaaaaabH
  0000b	2b 4d 08	 sub	 ecx, DWORD PTR __First$[ebp]
  0000e	f7 e9		 imul	 ecx
  00010	d1 fa		 sar	 edx, 1
  00012	8b c2		 mov	 eax, edx
  00014	c1 e8 1f	 shr	 eax, 31			; 0000001fH
  00017	03 c2		 add	 eax, edx

; 4767 :     const auto _First_ch     = const_cast<const char*>(reinterpret_cast<const volatile char*>(_First_ptr));
; 4768 :     const auto _Last_ch      = const_cast<const char*>(reinterpret_cast<const volatile char*>(_Last_ptr));
; 4769 :     const auto _Byte_count   = static_cast<size_t>(_Last_ch - _First_ch);
; 4770 :     return _STD _Copy_memmove_tail(_First_ch, _STD move(_Dest), _Byte_count, _Object_count);

  00019	50		 push	 eax
  0001a	51		 push	 ecx
  0001b	ff 75 10	 push	 DWORD PTR __Dest$[ebp]
  0001e	ff 75 08	 push	 DWORD PTR __First$[ebp]
  00021	e8 00 00 00 00	 call	 ??$_Copy_memmove_tail@PAUD3DXVECTOR3@@@std@@YAPAUD3DXVECTOR3@@QBDQAU1@II@Z ; std::_Copy_memmove_tail<D3DXVECTOR3 *>
  00026	83 c4 10	 add	 esp, 16			; 00000010H

; 4771 : }

  00029	5d		 pop	 ebp
  0002a	c3		 ret	 0
??$_Copy_memmove@PAUD3DXVECTOR3@@PAU1@@std@@YAPAUD3DXVECTOR3@@PAU1@00@Z ENDP ; std::_Copy_memmove<D3DXVECTOR3 *,D3DXVECTOR3 *>
_TEXT	ENDS
; Function compile flags: /Ogtp
; File C:\Program Files\Microsoft Visual Studio\2022\Professional\VC\Tools\MSVC\14.44.35207\include\xmemory
;	COMDAT ??$_Uninitialized_move@PAU_VECINFO@@V?$allocator@U_VECINFO@@@std@@@std@@YAPAU_VECINFO@@QAU1@0PAU1@AAV?$allocator@U_VECINFO@@@0@@Z
_TEXT	SEGMENT
__First$ = 8						; size = 4
__Last$ = 12						; size = 4
__Dest$ = 16						; size = 4
__Al$ = 20						; size = 4
??$_Uninitialized_move@PAU_VECINFO@@V?$allocator@U_VECINFO@@@std@@@std@@YAPAU_VECINFO@@QAU1@0PAU1@AAV?$allocator@U_VECINFO@@@0@@Z PROC ; std::_Uninitialized_move<_VECINFO *,std::allocator<_VECINFO> >, COMDAT

; 1977 :     const _InIt _First, const _InIt _Last, _Alloc_ptr_t<_Alloc> _Dest, _Alloc& _Al) {

  00000	55		 push	 ebp
  00001	8b ec		 mov	 ebp, esp

; 1978 :     // move [_First, _Last) to raw _Dest, using _Al
; 1979 :     // note: only called internally from elsewhere in the STL
; 1980 : #ifdef _ENABLE_STL_INTERNAL_CHECK
; 1981 :     _STD _Adl_verify_range(_First, _Last);
; 1982 : #endif // ^^^ defined(_ENABLE_STL_INTERNAL_CHECK) ^^^
; 1983 :     using _Ptrval     = typename _Alloc::value_type*;
; 1984 :     auto _UFirst      = _STD _Get_unwrapped(_First);
; 1985 :     const auto _ULast = _STD _Get_unwrapped(_Last);
; 1986 :     if constexpr (conjunction_v<bool_constant<_Iter_move_cat<decltype(_UFirst), _Ptrval>::_Bitcopy_constructible>,
; 1987 :                       _Uses_default_construct<_Alloc, _Ptrval, decltype(_STD move(*_UFirst))>>) {
; 1988 : #if _HAS_CXX20
; 1989 :         if (!_STD is_constant_evaluated())
; 1990 : #endif // _HAS_CXX20
; 1991 :         {
; 1992 :             _STD _Copy_memmove(_UFirst, _ULast, _STD _Unfancy(_Dest));
; 1993 :             return _Dest + (_ULast - _UFirst);
; 1994 :         }
; 1995 :     }
; 1996 : 
; 1997 :     _Uninitialized_backout_al<_Alloc> _Backout{_Dest, _Al};
; 1998 :     for (; _UFirst != _ULast; ++_UFirst) {

  00003	8b 45 08	 mov	 eax, DWORD PTR __First$[ebp]
  00006	56		 push	 esi

; 1833 :     _CONSTEXPR20 _Uninitialized_backout_al(pointer _Dest, _Alloc& _Al_) : _First(_Dest), _Last(_Dest), _Al(_Al_) {}

  00007	8b 75 10	 mov	 esi, DWORD PTR __Dest$[ebp]

; 1978 :     // move [_First, _Last) to raw _Dest, using _Al
; 1979 :     // note: only called internally from elsewhere in the STL
; 1980 : #ifdef _ENABLE_STL_INTERNAL_CHECK
; 1981 :     _STD _Adl_verify_range(_First, _Last);
; 1982 : #endif // ^^^ defined(_ENABLE_STL_INTERNAL_CHECK) ^^^
; 1983 :     using _Ptrval     = typename _Alloc::value_type*;
; 1984 :     auto _UFirst      = _STD _Get_unwrapped(_First);
; 1985 :     const auto _ULast = _STD _Get_unwrapped(_Last);
; 1986 :     if constexpr (conjunction_v<bool_constant<_Iter_move_cat<decltype(_UFirst), _Ptrval>::_Bitcopy_constructible>,
; 1987 :                       _Uses_default_construct<_Alloc, _Ptrval, decltype(_STD move(*_UFirst))>>) {
; 1988 : #if _HAS_CXX20
; 1989 :         if (!_STD is_constant_evaluated())
; 1990 : #endif // _HAS_CXX20
; 1991 :         {
; 1992 :             _STD _Copy_memmove(_UFirst, _ULast, _STD _Unfancy(_Dest));
; 1993 :             return _Dest + (_ULast - _UFirst);
; 1994 :         }
; 1995 :     }
; 1996 : 
; 1997 :     _Uninitialized_backout_al<_Alloc> _Backout{_Dest, _Al};
; 1998 :     for (; _UFirst != _ULast; ++_UFirst) {

  0000a	3b 45 0c	 cmp	 eax, DWORD PTR __Last$[ebp]
  0000d	74 67		 je	 SHORT $LN40@Uninitiali
  0000f	53		 push	 ebx

; 1833 :     _CONSTEXPR20 _Uninitialized_backout_al(pointer _Dest, _Alloc& _Al_) : _First(_Dest), _Last(_Dest), _Al(_Al_) {}

  00010	8b de		 mov	 ebx, esi
  00012	8d 50 10	 lea	 edx, DWORD PTR [eax+16]
  00015	57		 push	 edi
  00016	8d 7e 28	 lea	 edi, DWORD PTR [esi+40]
  00019	2b d8		 sub	 ebx, eax
  0001b	0f 1f 44 00 00	 npad	 5
$LL4@Uninitiali:
  00020	f3 0f 7e 42 f0	 movq	 xmm0, QWORD PTR [edx-16]

; 1845 :         ++_Last;

  00025	8d 52 38	 lea	 edx, DWORD PTR [edx+56]
  00028	66 0f d6 06	 movq	 QWORD PTR [esi], xmm0
  0002c	8d 7f 38	 lea	 edi, DWORD PTR [edi+56]
  0002f	8b 42 c0	 mov	 eax, DWORD PTR [edx-64]
  00032	89 46 08	 mov	 DWORD PTR [esi+8], eax
  00035	83 c6 38	 add	 esi, 56			; 00000038H
  00038	8b 42 c4	 mov	 eax, DWORD PTR [edx-60]
  0003b	89 47 ac	 mov	 DWORD PTR [edi-84], eax
  0003e	8b 42 c8	 mov	 eax, DWORD PTR [edx-56]
  00041	89 44 1a c8	 mov	 DWORD PTR [edx+ebx-56], eax
  00045	8b 42 cc	 mov	 eax, DWORD PTR [edx-52]
  00048	89 47 b4	 mov	 DWORD PTR [edi-76], eax
  0004b	c7 47 b8 00 00
	00 00		 mov	 DWORD PTR [edi-72], OFFSET ??_7CTimer@@6B@
  00052	f2 0f 10 42 d8	 movsd	 xmm0, QWORD PTR [edx-40]
  00057	f2 0f 11 47 c0	 movsd	 QWORD PTR [edi-64], xmm0
  0005c	f2 0f 10 42 e0	 movsd	 xmm0, QWORD PTR [edx-32]
  00061	f2 0f 11 47 c8	 movsd	 QWORD PTR [edi-56], xmm0
  00066	8b 4a e8	 mov	 ecx, DWORD PTR [edx-24]
  00069	89 4f d0	 mov	 DWORD PTR [edi-48], ecx

; 1978 :     // move [_First, _Last) to raw _Dest, using _Al
; 1979 :     // note: only called internally from elsewhere in the STL
; 1980 : #ifdef _ENABLE_STL_INTERNAL_CHECK
; 1981 :     _STD _Adl_verify_range(_First, _Last);
; 1982 : #endif // ^^^ defined(_ENABLE_STL_INTERNAL_CHECK) ^^^
; 1983 :     using _Ptrval     = typename _Alloc::value_type*;
; 1984 :     auto _UFirst      = _STD _Get_unwrapped(_First);
; 1985 :     const auto _ULast = _STD _Get_unwrapped(_Last);
; 1986 :     if constexpr (conjunction_v<bool_constant<_Iter_move_cat<decltype(_UFirst), _Ptrval>::_Bitcopy_constructible>,
; 1987 :                       _Uses_default_construct<_Alloc, _Ptrval, decltype(_STD move(*_UFirst))>>) {
; 1988 : #if _HAS_CXX20
; 1989 :         if (!_STD is_constant_evaluated())
; 1990 : #endif // _HAS_CXX20
; 1991 :         {
; 1992 :             _STD _Copy_memmove(_UFirst, _ULast, _STD _Unfancy(_Dest));
; 1993 :             return _Dest + (_ULast - _UFirst);
; 1994 :         }
; 1995 :     }
; 1996 : 
; 1997 :     _Uninitialized_backout_al<_Alloc> _Backout{_Dest, _Al};
; 1998 :     for (; _UFirst != _ULast; ++_UFirst) {

  0006c	8d 4a f0	 lea	 ecx, DWORD PTR [edx-16]
  0006f	3b 4d 0c	 cmp	 ecx, DWORD PTR __Last$[ebp]
  00072	75 ac		 jne	 SHORT $LL4@Uninitiali
  00074	5f		 pop	 edi
  00075	5b		 pop	 ebx
$LN40@Uninitiali:

; 1999 :         _Backout._Emplace_back(_STD move(*_UFirst));
; 2000 :     }
; 2001 : 
; 2002 :     return _Backout._Release();
; 2003 : }

  00076	8b c6		 mov	 eax, esi
  00078	5e		 pop	 esi
  00079	5d		 pop	 ebp
  0007a	c3		 ret	 0
??$_Uninitialized_move@PAU_VECINFO@@V?$allocator@U_VECINFO@@@std@@@std@@YAPAU_VECINFO@@QAU1@0PAU1@AAV?$allocator@U_VECINFO@@@0@@Z ENDP ; std::_Uninitialized_move<_VECINFO *,std::allocator<_VECINFO> >
_TEXT	ENDS
; Function compile flags: /Ogtp
; File C:\Program Files\Microsoft Visual Studio\2022\Professional\VC\Tools\MSVC\14.44.35207\include\vector
; File C:\Program Files\Microsoft Visual Studio\2022\Professional\VC\Tools\MSVC\14.44.35207\include\xmemory
; File C:\Program Files\Microsoft Visual Studio\2022\Professional\VC\Tools\MSVC\14.44.35207\include\vector
; File C:\Program Files\Microsoft Visual Studio\2022\Professional\VC\Tools\MSVC\14.44.35207\include\xmemory
; File C:\Program Files\Microsoft Visual Studio\2022\Professional\VC\Tools\MSVC\14.44.35207\include\vector
; File C:\Program Files\Microsoft Visual Studio\2022\Professional\VC\Tools\MSVC\14.44.35207\include\xmemory
; File C:\Program Files\Microsoft Visual Studio\2022\Professional\VC\Tools\MSVC\14.44.35207\include\vector
; File C:\Program Files\Microsoft Visual Studio\2022\Professional\VC\Tools\MSVC\14.44.35207\include\xmemory
; File C:\Program Files\Microsoft Visual Studio\2022\Professional\VC\Tools\MSVC\14.44.35207\include\vector
; File C:\Program Files\Microsoft Visual Studio\2022\Professional\VC\Tools\MSVC\14.44.35207\include\xmemory
; File C:\Program Files\Microsoft Visual Studio\2022\Professional\VC\Tools\MSVC\14.44.35207\include\vector
; File C:\Program Files\Microsoft Visual Studio\2022\Professional\VC\Tools\MSVC\14.44.35207\include\xmemory
; File C:\Program Files\Microsoft Visual Studio\2022\Professional\VC\Tools\MSVC\14.44.35207\include\vector
; File C:\Program Files\Microsoft Visual Studio\2022\Professional\VC\Tools\MSVC\14.44.35207\include\xmemory
; File C:\Program Files\Microsoft Visual Studio\2022\Professional\VC\Tools\MSVC\14.44.35207\include\vector
; File C:\Program Files\Microsoft Visual Studio\2022\Professional\VC\Tools\MSVC\14.44.35207\include\xmemory
; File C:\Program Files\Microsoft Visual Studio\2022\Professional\VC\Tools\MSVC\14.44.35207\include\vector
; File C:\Program Files\Microsoft Visual Studio\2022\Professional\VC\Tools\MSVC\14.44.35207\include\xmemory
; File C:\Program Files\Microsoft Visual Studio\2022\Professional\VC\Tools\MSVC\14.44.35207\include\vector
;	COMDAT ??$_Emplace_reallocate@ABUD3DXVECTOR3@@@?$vector@UD3DXVECTOR3@@V?$allocator@UD3DXVECTOR3@@@std@@@std@@AAEPAUD3DXVECTOR3@@QAU2@ABU2@@Z
_TEXT	SEGMENT
__Oldsize$1$ = -12					; size = 4
__Whereoff$1$ = -8					; size = 4
tv650 = -8						; size = 4
tv652 = -4						; size = 4
__Whereptr$ = 8						; size = 4
_<_Val_0>$ = 12						; size = 4
??$_Emplace_reallocate@ABUD3DXVECTOR3@@@?$vector@UD3DXVECTOR3@@V?$allocator@UD3DXVECTOR3@@@std@@@std@@AAEPAUD3DXVECTOR3@@QAU2@ABU2@@Z PROC ; std::vector<D3DXVECTOR3,std::allocator<D3DXVECTOR3> >::_Emplace_reallocate<D3DXVECTOR3 const &>, COMDAT
; _this$ = ecx

; 875  :     _CONSTEXPR20 pointer _Emplace_reallocate(const pointer _Whereptr, _Valty&&... _Val) {

  00000	55		 push	 ebp
  00001	8b ec		 mov	 ebp, esp
  00003	83 ec 0c	 sub	 esp, 12			; 0000000cH

; 876  :         // reallocate and insert by perfectly forwarding _Val at _Whereptr
; 877  :         _Alty& _Al        = _Getal();
; 878  :         auto& _My_data    = _Mypair._Myval2;
; 879  :         pointer& _Myfirst = _My_data._Myfirst;
; 880  :         pointer& _Mylast  = _My_data._Mylast;
; 881  : 
; 882  :         _STL_INTERNAL_CHECK(_Mylast == _My_data._Myend); // check that we have no unused capacity
; 883  : 
; 884  :         const auto _Whereoff = static_cast<size_type>(_Whereptr - _Myfirst);

  00006	8b 55 08	 mov	 edx, DWORD PTR __Whereptr$[ebp]
  00009	b8 ab aa aa 2a	 mov	 eax, 715827883		; 2aaaaaabH
  0000e	53		 push	 ebx
  0000f	8b d9		 mov	 ebx, ecx
  00011	57		 push	 edi
  00012	8b 3b		 mov	 edi, DWORD PTR [ebx]
  00014	2b d7		 sub	 edx, edi

; 885  :         const auto _Oldsize  = static_cast<size_type>(_Mylast - _Myfirst);

  00016	8b 4b 04	 mov	 ecx, DWORD PTR [ebx+4]
  00019	f7 ea		 imul	 edx
  0001b	2b cf		 sub	 ecx, edi
  0001d	d1 fa		 sar	 edx, 1
  0001f	8b c2		 mov	 eax, edx
  00021	c1 e8 1f	 shr	 eax, 31			; 0000001fH
  00024	03 c2		 add	 eax, edx
  00026	89 45 f8	 mov	 DWORD PTR __Whereoff$1$[ebp], eax
  00029	b8 ab aa aa 2a	 mov	 eax, 715827883		; 2aaaaaabH
  0002e	f7 e9		 imul	 ecx
  00030	d1 fa		 sar	 edx, 1
  00032	8b c2		 mov	 eax, edx
  00034	c1 e8 1f	 shr	 eax, 31			; 0000001fH
  00037	03 c2		 add	 eax, edx
  00039	89 45 f4	 mov	 DWORD PTR __Oldsize$1$[ebp], eax

; 886  : 
; 887  :         if (_Oldsize == max_size()) {

  0003c	3d 55 55 55 15	 cmp	 eax, 357913941		; 15555555H
  00041	0f 84 42 01 00
	00		 je	 $LN119@Emplace_re

; 1924 :         return static_cast<size_type>(_My_data._Myend - _My_data._Myfirst);

  00047	8b 4b 08	 mov	 ecx, DWORD PTR [ebx+8]
  0004a	2b cf		 sub	 ecx, edi
  0004c	56		 push	 esi

; 889  :         }
; 890  : 
; 891  :         const size_type _Newsize = _Oldsize + 1;

  0004d	8d 70 01	 lea	 esi, DWORD PTR [eax+1]

; 1924 :         return static_cast<size_type>(_My_data._Myend - _My_data._Myfirst);

  00050	b8 ab aa aa 2a	 mov	 eax, 715827883		; 2aaaaaabH
  00055	f7 e9		 imul	 ecx

; 2011 :         if (_Oldcapacity > _Max - _Oldcapacity / 2) {

  00057	b8 55 55 55 15	 mov	 eax, 357913941		; 15555555H

; 1924 :         return static_cast<size_type>(_My_data._Myend - _My_data._Myfirst);

  0005c	d1 fa		 sar	 edx, 1
  0005e	8b ca		 mov	 ecx, edx
  00060	c1 e9 1f	 shr	 ecx, 31			; 0000001fH
  00063	03 ca		 add	 ecx, edx

; 2011 :         if (_Oldcapacity > _Max - _Oldcapacity / 2) {

  00065	8b d1		 mov	 edx, ecx
  00067	d1 ea		 shr	 edx, 1
  00069	2b c2		 sub	 eax, edx
  0006b	3b c8		 cmp	 ecx, eax
  0006d	76 14		 jbe	 SHORT $LN8@Emplace_re

; 2012 :             return _Max; // geometric growth would overflow

  0006f	b8 fc ff ff ff	 mov	 eax, -4			; fffffffcH
  00074	c7 45 fc fc ff
	ff ff		 mov	 DWORD PTR tv652[ebp], -4 ; fffffffcH
; File C:\Program Files\Microsoft Visual Studio\2022\Professional\VC\Tools\MSVC\14.44.35207\include\xmemory

; 253  :             return _Allocate_manually_vector_aligned<_Traits>(_Bytes);

  0007b	50		 push	 eax
  0007c	e8 00 00 00 00	 call	 ??$_Allocate_manually_vector_aligned@U_Default_allocate_traits@std@@@std@@YAPAXI@Z ; std::_Allocate_manually_vector_aligned<std::_Default_allocate_traits>
  00081	eb 3e		 jmp	 SHORT $LN117@Emplace_re
$LN8@Emplace_re:
; File C:\Program Files\Microsoft Visual Studio\2022\Professional\VC\Tools\MSVC\14.44.35207\include\vector

; 2015 :         const size_type _Geometric = _Oldcapacity + _Oldcapacity / 2;

  00083	8d 04 0a	 lea	 eax, DWORD PTR [edx+ecx]
; File C:\Program Files\Microsoft Visual Studio\2022\Professional\VC\Tools\MSVC\14.44.35207\include\xmemory

; 117  :         if (_Count > _Max_possible) {

  00086	8b ce		 mov	 ecx, esi
  00088	3b c6		 cmp	 eax, esi
  0008a	0f 43 c8	 cmovae	 ecx, eax
  0008d	81 f9 55 55 55
	15		 cmp	 ecx, 357913941		; 15555555H
  00093	0f 87 f5 00 00
	00		 ja	 $LN120@Emplace_re

; 119  :         }
; 120  :     }
; 121  : 
; 122  :     return _Count * _Ty_size;

  00099	8d 34 49	 lea	 esi, DWORD PTR [ecx+ecx*2]
  0009c	c1 e6 02	 shl	 esi, 2

; 990  :         return static_cast<_Ty*>(_STD _Allocate<_New_alignof<_Ty>>(_Get_size_of_n<sizeof(_Ty)>(_Count)));

  0009f	8b c6		 mov	 eax, esi

; 122  :     return _Count * _Ty_size;

  000a1	89 75 fc	 mov	 DWORD PTR tv652[ebp], esi

; 227  :     if (_Bytes == 0) {

  000a4	85 c0		 test	 eax, eax
  000a6	75 04		 jne	 SHORT $LN23@Emplace_re

; 228  :         return nullptr;

  000a8	33 ff		 xor	 edi, edi
  000aa	eb 1a		 jmp	 SHORT $LN22@Emplace_re
$LN23@Emplace_re:

; 229  :     }
; 230  : 
; 231  : #if _HAS_CXX20 // TRANSITION, GH-1532
; 232  :     if (_STD is_constant_evaluated()) {
; 233  :         return _Traits::_Allocate(_Bytes);
; 234  :     }
; 235  : #endif // _HAS_CXX20
; 236  : 
; 237  : #ifdef __cpp_aligned_new
; 238  :     if constexpr (_Align > __STDCPP_DEFAULT_NEW_ALIGNMENT__) {
; 239  :         size_t _Passed_align = _Align;
; 240  : #if defined(_M_IX86) || defined(_M_X64)
; 241  :         if (_Bytes >= _Big_allocation_threshold) {
; 242  :             // boost the alignment of big allocations to help autovectorization
; 243  :             _Passed_align = (_STD max)(_Align, _Big_allocation_alignment);
; 244  :         }
; 245  : #endif // defined(_M_IX86) || defined(_M_X64)
; 246  :         return _Traits::_Allocate_aligned(_Bytes, _Passed_align);
; 247  :     } else
; 248  : #endif // defined(__cpp_aligned_new)
; 249  :     {
; 250  : #if defined(_M_IX86) || defined(_M_X64)
; 251  :         if (_Bytes >= _Big_allocation_threshold) {

  000ac	3d 00 10 00 00	 cmp	 eax, 4096		; 00001000H
  000b1	72 08		 jb	 SHORT $LN24@Emplace_re

; 253  :             return _Allocate_manually_vector_aligned<_Traits>(_Bytes);

  000b3	50		 push	 eax
  000b4	e8 00 00 00 00	 call	 ??$_Allocate_manually_vector_aligned@U_Default_allocate_traits@std@@@std@@YAPAXI@Z ; std::_Allocate_manually_vector_aligned<std::_Default_allocate_traits>
  000b9	eb 06		 jmp	 SHORT $LN117@Emplace_re
$LN24@Emplace_re:

; 136  :         return ::operator new(_Bytes);

  000bb	50		 push	 eax
  000bc	e8 00 00 00 00	 call	 ??2@YAPAXI@Z		; operator new
$LN117@Emplace_re:
; File C:\Program Files\Microsoft Visual Studio\2022\Professional\VC\Tools\MSVC\14.44.35207\include\vector

; 900  :         _Alty_traits::construct(_Al, _STD _Unfancy(_Newvec + _Whereoff), _STD forward<_Valty>(_Val)...);

  000c1	8b f8		 mov	 edi, eax
  000c3	83 c4 04	 add	 esp, 4
$LN22@Emplace_re:
  000c6	8b 45 f8	 mov	 eax, DWORD PTR __Whereoff$1$[ebp]

; 903  :         if (_Whereptr == _Mylast) { // at back, provide strong guarantee

  000c9	8b 55 08	 mov	 edx, DWORD PTR __Whereptr$[ebp]
  000cc	8d 04 40	 lea	 eax, DWORD PTR [eax+eax*2]
  000cf	8d 34 87	 lea	 esi, DWORD PTR [edi+eax*4]
; File C:\Program Files\Microsoft Visual Studio\2022\Professional\VC\Tools\MSVC\14.44.35207\include\xmemory

; 732  :         ::new (const_cast<void*>(static_cast<const volatile void*>(_Ptr))) _Objty(_STD forward<_Types>(_Args)...);

  000d2	8b 45 0c	 mov	 eax, DWORD PTR _<_Val_0>$[ebp]
; File C:\Program Files\Microsoft Visual Studio\2022\Professional\VC\Tools\MSVC\14.44.35207\include\vector

; 900  :         _Alty_traits::construct(_Al, _STD _Unfancy(_Newvec + _Whereoff), _STD forward<_Valty>(_Val)...);

  000d5	89 75 f8	 mov	 DWORD PTR tv650[ebp], esi
; File C:\Program Files\Microsoft Visual Studio\2022\Professional\VC\Tools\MSVC\14.44.35207\include\xmemory

; 732  :         ::new (const_cast<void*>(static_cast<const volatile void*>(_Ptr))) _Objty(_STD forward<_Types>(_Args)...);

  000d8	f3 0f 7e 00	 movq	 xmm0, QWORD PTR [eax]
  000dc	66 0f d6 06	 movq	 QWORD PTR [esi], xmm0
  000e0	8b 40 08	 mov	 eax, DWORD PTR [eax+8]
  000e3	89 46 08	 mov	 DWORD PTR [esi+8], eax
; File C:\Program Files\Microsoft Visual Studio\2022\Professional\VC\Tools\MSVC\14.44.35207\include\vector

; 903  :         if (_Whereptr == _Mylast) { // at back, provide strong guarantee

  000e6	8b 4b 04	 mov	 ecx, DWORD PTR [ebx+4]
  000e9	8b 03		 mov	 eax, DWORD PTR [ebx]
  000eb	3b d1		 cmp	 edx, ecx
  000ed	75 04		 jne	 SHORT $LN3@Emplace_re
; File C:\Program Files\Microsoft Visual Studio\2022\Professional\VC\Tools\MSVC\14.44.35207\include\xmemory

; 1992 :             _STD _Copy_memmove(_UFirst, _ULast, _STD _Unfancy(_Dest));

  000ef	8b f7		 mov	 esi, edi
; File C:\Program Files\Microsoft Visual Studio\2022\Professional\VC\Tools\MSVC\14.44.35207\include\vector

; 909  :         } else { // provide basic guarantee

  000f1	eb 14		 jmp	 SHORT $LN58@Emplace_re
$LN3@Emplace_re:
; File C:\Program Files\Microsoft Visual Studio\2022\Professional\VC\Tools\MSVC\14.44.35207\include\xmemory

; 1992 :             _STD _Copy_memmove(_UFirst, _ULast, _STD _Unfancy(_Dest));

  000f3	57		 push	 edi
  000f4	52		 push	 edx
  000f5	50		 push	 eax
  000f6	e8 00 00 00 00	 call	 ??$_Copy_memmove@PAUD3DXVECTOR3@@PAU1@@std@@YAPAUD3DXVECTOR3@@PAU1@00@Z ; std::_Copy_memmove<D3DXVECTOR3 *,D3DXVECTOR3 *>
  000fb	8b 45 08	 mov	 eax, DWORD PTR __Whereptr$[ebp]
  000fe	83 c4 0c	 add	 esp, 12			; 0000000cH
  00101	8b 4b 04	 mov	 ecx, DWORD PTR [ebx+4]
; File C:\Program Files\Microsoft Visual Studio\2022\Professional\VC\Tools\MSVC\14.44.35207\include\vector

; 912  :             _STD _Uninitialized_move(_Whereptr, _Mylast, _Newvec + _Whereoff + 1, _Al);

  00104	83 c6 0c	 add	 esi, 12			; 0000000cH
$LN58@Emplace_re:

; 913  :         }
; 914  : 
; 915  :         _Guard._New_begin = nullptr;

  00107	56		 push	 esi
  00108	51		 push	 ecx
  00109	50		 push	 eax
  0010a	e8 00 00 00 00	 call	 ??$_Copy_memmove@PAUD3DXVECTOR3@@PAU1@@std@@YAPAUD3DXVECTOR3@@PAU1@00@Z ; std::_Copy_memmove<D3DXVECTOR3 *,D3DXVECTOR3 *>

; 2069 :         if (_Myfirst) { // destroy and deallocate old array

  0010f	8b 33		 mov	 esi, DWORD PTR [ebx]

; 913  :         }
; 914  : 
; 915  :         _Guard._New_begin = nullptr;

  00111	83 c4 0c	 add	 esp, 12			; 0000000cH

; 2069 :         if (_Myfirst) { // destroy and deallocate old array

  00114	85 f6		 test	 esi, esi
  00116	74 3f		 je	 SHORT $LN80@Emplace_re

; 2070 :             _STD _Destroy_range(_Myfirst, _Mylast, _Al);
; 2071 :             _ASAN_VECTOR_REMOVE;
; 2072 :             _Al.deallocate(_Myfirst, static_cast<size_type>(_Myend - _Myfirst));

  00118	8b 4b 08	 mov	 ecx, DWORD PTR [ebx+8]
  0011b	b8 ab aa aa 2a	 mov	 eax, 715827883		; 2aaaaaabH
  00120	2b ce		 sub	 ecx, esi
  00122	f7 e9		 imul	 ecx
  00124	d1 fa		 sar	 edx, 1
  00126	8b c2		 mov	 eax, edx
  00128	c1 e8 1f	 shr	 eax, 31			; 0000001fH
  0012b	03 c2		 add	 eax, edx
; File C:\Program Files\Microsoft Visual Studio\2022\Professional\VC\Tools\MSVC\14.44.35207\include\xmemory

; 985  :         _STD _Deallocate<_New_alignof<_Ty>>(_Ptr, sizeof(_Ty) * _Count);

  0012d	8d 0c 40	 lea	 ecx, DWORD PTR [eax+eax*2]
  00130	c1 e1 02	 shl	 ecx, 2

; 284  :         if (_Bytes >= _Big_allocation_threshold) {

  00133	81 f9 00 10 00
	00		 cmp	 ecx, 4096		; 00001000H
  00139	72 12		 jb	 SHORT $LN85@Emplace_re

; 205  :     const uintptr_t _Ptr_container   = _Ptr_user[-1];

  0013b	8b 56 fc	 mov	 edx, DWORD PTR [esi-4]
  0013e	83 c1 23	 add	 ecx, 35			; 00000023H

; 206  : 
; 207  :     // If the following asserts, it likely means that we are performing
; 208  :     // an aligned delete on memory coming from an unaligned allocation.
; 209  :     _STL_ASSERT(_Ptr_user[-2] == _Big_allocation_sentinel, "invalid argument");
; 210  : 
; 211  :     // Extra paranoia on aligned allocation/deallocation; ensure _Ptr_container is
; 212  :     // in range [_Min_back_shift, _Non_user_size]
; 213  : #ifdef _DEBUG
; 214  :     constexpr uintptr_t _Min_back_shift = 2 * sizeof(void*);
; 215  : #else // ^^^ defined(_DEBUG) / !defined(_DEBUG) vvv
; 216  :     constexpr uintptr_t _Min_back_shift = sizeof(void*);
; 217  : #endif // ^^^ !defined(_DEBUG) ^^^
; 218  :     const uintptr_t _Back_shift = reinterpret_cast<uintptr_t>(_Ptr) - _Ptr_container;

  00141	2b f2		 sub	 esi, edx

; 219  :     _STL_VERIFY(_Back_shift >= _Min_back_shift && _Back_shift <= _Non_user_size, "invalid argument");

  00143	8d 46 fc	 lea	 eax, DWORD PTR [esi-4]
  00146	83 f8 1f	 cmp	 eax, 31			; 0000001fH
  00149	77 2f		 ja	 SHORT $LN84@Emplace_re

; 220  :     _Ptr = reinterpret_cast<void*>(_Ptr_container);

  0014b	8b f2		 mov	 esi, edx
$LN85@Emplace_re:

; 289  :         ::operator delete(_Ptr, _Bytes);

  0014d	51		 push	 ecx
  0014e	56		 push	 esi
  0014f	e8 00 00 00 00	 call	 ??3@YAXPAXI@Z		; operator delete
  00154	83 c4 08	 add	 esp, 8
$LN80@Emplace_re:
; File C:\Program Files\Microsoft Visual Studio\2022\Professional\VC\Tools\MSVC\14.44.35207\include\vector

; 2076 :         _Mylast  = _Newvec + _Newsize;

  00157	8b 45 f4	 mov	 eax, DWORD PTR __Oldsize$1$[ebp]
  0015a	40		 inc	 eax
  0015b	89 3b		 mov	 DWORD PTR [ebx], edi

; 916  :         _Change_array(_Newvec, _Newsize, _Newcapacity);
; 917  :         return _Newvec + _Whereoff;

  0015d	5e		 pop	 esi

; 2076 :         _Mylast  = _Newvec + _Newsize;

  0015e	8d 0c 40	 lea	 ecx, DWORD PTR [eax+eax*2]

; 916  :         _Change_array(_Newvec, _Newsize, _Newcapacity);
; 917  :         return _Newvec + _Whereoff;

  00161	8b 45 f8	 mov	 eax, DWORD PTR tv650[ebp]

; 2076 :         _Mylast  = _Newvec + _Newsize;

  00164	8d 0c 8f	 lea	 ecx, DWORD PTR [edi+ecx*4]
  00167	89 4b 04	 mov	 DWORD PTR [ebx+4], ecx

; 2077 :         _Myend   = _Newvec + _Newcapacity;

  0016a	8b 4d fc	 mov	 ecx, DWORD PTR tv652[ebp]
  0016d	03 cf		 add	 ecx, edi

; 918  :     }

  0016f	5f		 pop	 edi

; 2077 :         _Myend   = _Newvec + _Newcapacity;

  00170	89 4b 08	 mov	 DWORD PTR [ebx+8], ecx

; 918  :     }

  00173	5b		 pop	 ebx
  00174	8b e5		 mov	 esp, ebp
  00176	5d		 pop	 ebp
  00177	c2 08 00	 ret	 8
$LN84@Emplace_re:
; File C:\Program Files\Microsoft Visual Studio\2022\Professional\VC\Tools\MSVC\14.44.35207\include\xmemory

; 219  :     _STL_VERIFY(_Back_shift >= _Min_back_shift && _Back_shift <= _Non_user_size, "invalid argument");

  0017a	6a 00		 push	 0
  0017c	6a 00		 push	 0
  0017e	6a 00		 push	 0
  00180	6a 00		 push	 0
  00182	6a 00		 push	 0
  00184	e8 00 00 00 00	 call	 __invoke_watson
$LN119@Emplace_re:
; File C:\Program Files\Microsoft Visual Studio\2022\Professional\VC\Tools\MSVC\14.44.35207\include\vector

; 888  :             _Xlength();

  00189	e8 00 00 00 00	 call	 ?_Xlength@?$vector@UD3DXVECTOR3@@V?$allocator@UD3DXVECTOR3@@@std@@@std@@CAXXZ ; std::vector<D3DXVECTOR3,std::allocator<D3DXVECTOR3> >::_Xlength
$LN120@Emplace_re:
; File C:\Program Files\Microsoft Visual Studio\2022\Professional\VC\Tools\MSVC\14.44.35207\include\xmemory

; 118  :             _Throw_bad_array_new_length(); // multiply overflow

  0018e	e8 00 00 00 00	 call	 ?_Throw_bad_array_new_length@std@@YAXXZ ; std::_Throw_bad_array_new_length
$LN116@Emplace_re:
  00193	cc		 int	 3
??$_Emplace_reallocate@ABUD3DXVECTOR3@@@?$vector@UD3DXVECTOR3@@V?$allocator@UD3DXVECTOR3@@@std@@@std@@AAEPAUD3DXVECTOR3@@QAU2@ABU2@@Z ENDP ; std::vector<D3DXVECTOR3,std::allocator<D3DXVECTOR3> >::_Emplace_reallocate<D3DXVECTOR3 const &>
_TEXT	ENDS
; Function compile flags: /Ogtp
; File C:\Program Files\Microsoft Visual Studio\2022\Professional\VC\Tools\MSVC\14.44.35207\include\vector
; File C:\Program Files\Microsoft Visual Studio\2022\Professional\VC\Tools\MSVC\14.44.35207\include\xmemory
; File C:\Program Files\Microsoft Visual Studio\2022\Professional\VC\Tools\MSVC\14.44.35207\include\vector
; File C:\Program Files\Microsoft Visual Studio\2022\Professional\VC\Tools\MSVC\14.44.35207\include\xmemory
; File C:\Program Files\Microsoft Visual Studio\2022\Professional\VC\Tools\MSVC\14.44.35207\include\vector
; File C:\Program Files\Microsoft Visual Studio\2022\Professional\VC\Tools\MSVC\14.44.35207\include\xmemory
; File C:\Program Files\Microsoft Visual Studio\2022\Professional\VC\Tools\MSVC\14.44.35207\include\vector
; File C:\Program Files\Microsoft Visual Studio\2022\Professional\VC\Tools\MSVC\14.44.35207\include\xmemory
; File C:\Program Files\Microsoft Visual Studio\2022\Professional\VC\Tools\MSVC\14.44.35207\include\vector
; File C:\Program Files\Microsoft Visual Studio\2022\Professional\VC\Tools\MSVC\14.44.35207\include\xmemory
; File C:\Program Files\Microsoft Visual Studio\2022\Professional\VC\Tools\MSVC\14.44.35207\include\vector
; File C:\Program Files\Microsoft Visual Studio\2022\Professional\VC\Tools\MSVC\14.44.35207\include\xmemory
; File C:\Program Files\Microsoft Visual Studio\2022\Professional\VC\Tools\MSVC\14.44.35207\include\vector
;	COMDAT ??$_Emplace_reallocate@ABU_VECINFO@@@?$vector@U_VECINFO@@V?$allocator@U_VECINFO@@@std@@@std@@AAEPAU_VECINFO@@QAU2@ABU2@@Z
_TEXT	SEGMENT
tv704 = -16						; size = 4
__Newsize$1$ = -12					; size = 4
__Whereoff$1$ = -8					; size = 4
$T1 = -8						; size = 4
tv691 = -4						; size = 4
__Whereptr$ = 8						; size = 4
_<_Val_0>$ = 12						; size = 4
??$_Emplace_reallocate@ABU_VECINFO@@@?$vector@U_VECINFO@@V?$allocator@U_VECINFO@@@std@@@std@@AAEPAU_VECINFO@@QAU2@ABU2@@Z PROC ; std::vector<_VECINFO,std::allocator<_VECINFO> >::_Emplace_reallocate<_VECINFO const &>, COMDAT
; _this$ = ecx

; 875  :     _CONSTEXPR20 pointer _Emplace_reallocate(const pointer _Whereptr, _Valty&&... _Val) {

  00000	55		 push	 ebp
  00001	8b ec		 mov	 ebp, esp
  00003	83 ec 10	 sub	 esp, 16			; 00000010H
  00006	53		 push	 ebx
  00007	56		 push	 esi

; 876  :         // reallocate and insert by perfectly forwarding _Val at _Whereptr
; 877  :         _Alty& _Al        = _Getal();
; 878  :         auto& _My_data    = _Mypair._Myval2;
; 879  :         pointer& _Myfirst = _My_data._Myfirst;
; 880  :         pointer& _Mylast  = _My_data._Mylast;
; 881  : 
; 882  :         _STL_INTERNAL_CHECK(_Mylast == _My_data._Myend); // check that we have no unused capacity
; 883  : 
; 884  :         const auto _Whereoff = static_cast<size_type>(_Whereptr - _Myfirst);

  00008	8b 75 08	 mov	 esi, DWORD PTR __Whereptr$[ebp]
  0000b	b8 93 24 49 92	 mov	 eax, -1840700269	; 92492493H
  00010	57		 push	 edi
  00011	8b f9		 mov	 edi, ecx
  00013	2b 37		 sub	 esi, DWORD PTR [edi]

; 885  :         const auto _Oldsize  = static_cast<size_type>(_Mylast - _Myfirst);

  00015	8b 4f 04	 mov	 ecx, DWORD PTR [edi+4]
  00018	2b 0f		 sub	 ecx, DWORD PTR [edi]
  0001a	f7 ee		 imul	 esi
  0001c	03 d6		 add	 edx, esi
  0001e	c1 fa 05	 sar	 edx, 5
  00021	8b c2		 mov	 eax, edx
  00023	c1 e8 1f	 shr	 eax, 31			; 0000001fH
  00026	03 c2		 add	 eax, edx
  00028	89 45 f8	 mov	 DWORD PTR __Whereoff$1$[ebp], eax
  0002b	b8 93 24 49 92	 mov	 eax, -1840700269	; 92492493H
  00030	f7 e9		 imul	 ecx
  00032	03 d1		 add	 edx, ecx
  00034	c1 fa 05	 sar	 edx, 5
  00037	8b c2		 mov	 eax, edx
  00039	c1 e8 1f	 shr	 eax, 31			; 0000001fH
  0003c	03 c2		 add	 eax, edx

; 886  : 
; 887  :         if (_Oldsize == max_size()) {

  0003e	3d 24 49 92 04	 cmp	 eax, 76695844		; 04924924H
  00043	0f 84 b6 01 00
	00		 je	 $LN109@Emplace_re

; 1924 :         return static_cast<size_type>(_My_data._Myend - _My_data._Myfirst);

  00049	8b 4f 08	 mov	 ecx, DWORD PTR [edi+8]

; 889  :         }
; 890  : 
; 891  :         const size_type _Newsize = _Oldsize + 1;

  0004c	8d 58 01	 lea	 ebx, DWORD PTR [eax+1]

; 1924 :         return static_cast<size_type>(_My_data._Myend - _My_data._Myfirst);

  0004f	2b 0f		 sub	 ecx, DWORD PTR [edi]
  00051	b8 93 24 49 92	 mov	 eax, -1840700269	; 92492493H
  00056	f7 e9		 imul	 ecx

; 2011 :         if (_Oldcapacity > _Max - _Oldcapacity / 2) {

  00058	b8 24 49 92 04	 mov	 eax, 76695844		; 04924924H

; 889  :         }
; 890  : 
; 891  :         const size_type _Newsize = _Oldsize + 1;

  0005d	89 5d f4	 mov	 DWORD PTR __Newsize$1$[ebp], ebx

; 1924 :         return static_cast<size_type>(_My_data._Myend - _My_data._Myfirst);

  00060	03 d1		 add	 edx, ecx
  00062	c1 fa 05	 sar	 edx, 5
  00065	8b ca		 mov	 ecx, edx
  00067	c1 e9 1f	 shr	 ecx, 31			; 0000001fH
  0006a	03 ca		 add	 ecx, edx

; 2011 :         if (_Oldcapacity > _Max - _Oldcapacity / 2) {

  0006c	8b d1		 mov	 edx, ecx
  0006e	d1 ea		 shr	 edx, 1
  00070	2b c2		 sub	 eax, edx
  00072	3b c8		 cmp	 ecx, eax
  00074	76 14		 jbe	 SHORT $LN8@Emplace_re

; 2012 :             return _Max; // geometric growth would overflow

  00076	be e0 ff ff ff	 mov	 esi, -32		; ffffffe0H
  0007b	c7 45 fc e0 ff
	ff ff		 mov	 DWORD PTR tv691[ebp], -32 ; ffffffe0H
; File C:\Program Files\Microsoft Visual Studio\2022\Professional\VC\Tools\MSVC\14.44.35207\include\xmemory

; 253  :             return _Allocate_manually_vector_aligned<_Traits>(_Bytes);

  00082	56		 push	 esi
  00083	e8 00 00 00 00	 call	 ??$_Allocate_manually_vector_aligned@U_Default_allocate_traits@std@@@std@@YAPAXI@Z ; std::_Allocate_manually_vector_aligned<std::_Default_allocate_traits>
  00088	eb 43		 jmp	 SHORT $LN107@Emplace_re
$LN8@Emplace_re:
; File C:\Program Files\Microsoft Visual Studio\2022\Professional\VC\Tools\MSVC\14.44.35207\include\vector

; 2015 :         const size_type _Geometric = _Oldcapacity + _Oldcapacity / 2;

  0008a	8d 04 0a	 lea	 eax, DWORD PTR [edx+ecx]
; File C:\Program Files\Microsoft Visual Studio\2022\Professional\VC\Tools\MSVC\14.44.35207\include\xmemory

; 117  :         if (_Count > _Max_possible) {

  0008d	8b cb		 mov	 ecx, ebx
  0008f	3b c3		 cmp	 eax, ebx
  00091	0f 43 c8	 cmovae	 ecx, eax
  00094	81 f9 24 49 92
	04		 cmp	 ecx, 76695844		; 04924924H
  0009a	0f 87 64 01 00
	00		 ja	 $LN110@Emplace_re

; 119  :         }
; 120  :     }
; 121  : 
; 122  :     return _Count * _Ty_size;

  000a0	8d 34 cd 00 00
	00 00		 lea	 esi, DWORD PTR [ecx*8]
  000a7	2b f1		 sub	 esi, ecx
  000a9	c1 e6 03	 shl	 esi, 3
  000ac	89 75 fc	 mov	 DWORD PTR tv691[ebp], esi

; 227  :     if (_Bytes == 0) {

  000af	85 f6		 test	 esi, esi
  000b1	75 04		 jne	 SHORT $LN23@Emplace_re

; 228  :         return nullptr;

  000b3	33 db		 xor	 ebx, ebx
  000b5	eb 1b		 jmp	 SHORT $LN22@Emplace_re
$LN23@Emplace_re:

; 229  :     }
; 230  : 
; 231  : #if _HAS_CXX20 // TRANSITION, GH-1532
; 232  :     if (_STD is_constant_evaluated()) {
; 233  :         return _Traits::_Allocate(_Bytes);
; 234  :     }
; 235  : #endif // _HAS_CXX20
; 236  : 
; 237  : #ifdef __cpp_aligned_new
; 238  :     if constexpr (_Align > __STDCPP_DEFAULT_NEW_ALIGNMENT__) {
; 239  :         size_t _Passed_align = _Align;
; 240  : #if defined(_M_IX86) || defined(_M_X64)
; 241  :         if (_Bytes >= _Big_allocation_threshold) {
; 242  :             // boost the alignment of big allocations to help autovectorization
; 243  :             _Passed_align = (_STD max)(_Align, _Big_allocation_alignment);
; 244  :         }
; 245  : #endif // defined(_M_IX86) || defined(_M_X64)
; 246  :         return _Traits::_Allocate_aligned(_Bytes, _Passed_align);
; 247  :     } else
; 248  : #endif // defined(__cpp_aligned_new)
; 249  :     {
; 250  : #if defined(_M_IX86) || defined(_M_X64)
; 251  :         if (_Bytes >= _Big_allocation_threshold) {

  000b7	81 fe 00 10 00
	00		 cmp	 esi, 4096		; 00001000H
  000bd	72 08		 jb	 SHORT $LN24@Emplace_re

; 253  :             return _Allocate_manually_vector_aligned<_Traits>(_Bytes);

  000bf	56		 push	 esi
  000c0	e8 00 00 00 00	 call	 ??$_Allocate_manually_vector_aligned@U_Default_allocate_traits@std@@@std@@YAPAXI@Z ; std::_Allocate_manually_vector_aligned<std::_Default_allocate_traits>
  000c5	eb 06		 jmp	 SHORT $LN107@Emplace_re
$LN24@Emplace_re:

; 136  :         return ::operator new(_Bytes);

  000c7	56		 push	 esi
  000c8	e8 00 00 00 00	 call	 ??2@YAPAXI@Z		; operator new
$LN107@Emplace_re:
; File C:\Program Files\Microsoft Visual Studio\2022\Professional\VC\Tools\MSVC\14.44.35207\include\vector

; 895  :         const pointer _Constructed_last = _Newvec + _Whereoff + 1;

  000cd	8b d8		 mov	 ebx, eax
  000cf	83 c4 04	 add	 esp, 4
$LN22@Emplace_re:
  000d2	8b 4d f8	 mov	 ecx, DWORD PTR __Whereoff$1$[ebp]

; 896  : 
; 897  :         _Reallocation_guard _Guard{_Al, _Newvec, _Newcapacity, _Constructed_last, _Constructed_last};
; 898  :         auto& _Constructed_first = _Guard._Constructed_first;
; 899  : 
; 900  :         _Alty_traits::construct(_Al, _STD _Unfancy(_Newvec + _Whereoff), _STD forward<_Valty>(_Val)...);
; 901  :         _Constructed_first = _Newvec + _Whereoff;
; 902  : 
; 903  :         if (_Whereptr == _Mylast) { // at back, provide strong guarantee

  000d5	8b 75 08	 mov	 esi, DWORD PTR __Whereptr$[ebp]
  000d8	8d 04 cd 00 00
	00 00		 lea	 eax, DWORD PTR [ecx*8]
  000df	2b c1		 sub	 eax, ecx
  000e1	8b 4d 0c	 mov	 ecx, DWORD PTR _<_Val_0>$[ebp]
  000e4	8d 14 c3	 lea	 edx, DWORD PTR [ebx+eax*8]
  000e7	8d 42 38	 lea	 eax, DWORD PTR [edx+56]
  000ea	89 55 f0	 mov	 DWORD PTR tv704[ebp], edx
  000ed	89 45 f8	 mov	 DWORD PTR $T1[ebp], eax
  000f0	f3 0f 7e 01	 movq	 xmm0, QWORD PTR [ecx]
  000f4	66 0f d6 02	 movq	 QWORD PTR [edx], xmm0
  000f8	8b 41 08	 mov	 eax, DWORD PTR [ecx+8]
  000fb	89 42 08	 mov	 DWORD PTR [edx+8], eax
  000fe	8b 41 0c	 mov	 eax, DWORD PTR [ecx+12]
  00101	89 42 0c	 mov	 DWORD PTR [edx+12], eax
  00104	8b 41 10	 mov	 eax, DWORD PTR [ecx+16]
  00107	89 42 10	 mov	 DWORD PTR [edx+16], eax
  0010a	8b 41 14	 mov	 eax, DWORD PTR [ecx+20]
  0010d	89 42 14	 mov	 DWORD PTR [edx+20], eax
  00110	c7 42 18 00 00
	00 00		 mov	 DWORD PTR [edx+24], OFFSET ??_7CTimer@@6B@
  00117	f2 0f 10 41 20	 movsd	 xmm0, QWORD PTR [ecx+32]
  0011c	f2 0f 11 42 20	 movsd	 QWORD PTR [edx+32], xmm0
  00121	f2 0f 10 41 28	 movsd	 xmm0, QWORD PTR [ecx+40]
  00126	f2 0f 11 42 28	 movsd	 QWORD PTR [edx+40], xmm0
  0012b	8b 41 30	 mov	 eax, DWORD PTR [ecx+48]
  0012e	89 42 30	 mov	 DWORD PTR [edx+48], eax
  00131	8b 4f 04	 mov	 ecx, DWORD PTR [edi+4]
  00134	8b 07		 mov	 eax, DWORD PTR [edi]
  00136	3b f1		 cmp	 esi, ecx
  00138	75 04		 jne	 SHORT $LN3@Emplace_re

; 904  :             if constexpr (is_nothrow_move_constructible_v<_Ty> || !is_copy_constructible_v<_Ty>) {
; 905  :                 _STD _Uninitialized_move(_Myfirst, _Mylast, _Newvec, _Al);

  0013a	8b d3		 mov	 edx, ebx

; 906  :             } else {
; 907  :                 _STD _Uninitialized_copy(_Myfirst, _Mylast, _Newvec, _Al);
; 908  :             }
; 909  :         } else { // provide basic guarantee

  0013c	eb 14		 jmp	 SHORT $LN4@Emplace_re
$LN3@Emplace_re:

; 910  :             _STD _Uninitialized_move(_Myfirst, _Whereptr, _Newvec, _Al);

  0013e	57		 push	 edi
  0013f	53		 push	 ebx
  00140	56		 push	 esi
  00141	50		 push	 eax
  00142	e8 00 00 00 00	 call	 ??$_Uninitialized_move@PAU_VECINFO@@V?$allocator@U_VECINFO@@@std@@@std@@YAPAU_VECINFO@@QAU1@0PAU1@AAV?$allocator@U_VECINFO@@@0@@Z ; std::_Uninitialized_move<_VECINFO *,std::allocator<_VECINFO> >

; 911  :             _Constructed_first = _Newvec;
; 912  :             _STD _Uninitialized_move(_Whereptr, _Mylast, _Newvec + _Whereoff + 1, _Al);

  00147	8b 4f 04	 mov	 ecx, DWORD PTR [edi+4]
  0014a	83 c4 10	 add	 esp, 16			; 00000010H
  0014d	8b 55 f8	 mov	 edx, DWORD PTR $T1[ebp]
  00150	8b c6		 mov	 eax, esi
$LN4@Emplace_re:

; 913  :         }
; 914  : 
; 915  :         _Guard._New_begin = nullptr;

  00152	57		 push	 edi
  00153	52		 push	 edx
  00154	51		 push	 ecx
  00155	50		 push	 eax
  00156	e8 00 00 00 00	 call	 ??$_Uninitialized_move@PAU_VECINFO@@V?$allocator@U_VECINFO@@@std@@@std@@YAPAU_VECINFO@@QAU1@0PAU1@AAV?$allocator@U_VECINFO@@@0@@Z ; std::_Uninitialized_move<_VECINFO *,std::allocator<_VECINFO> >

; 2069 :         if (_Myfirst) { // destroy and deallocate old array

  0015b	8b 0f		 mov	 ecx, DWORD PTR [edi]

; 913  :         }
; 914  : 
; 915  :         _Guard._New_begin = nullptr;

  0015d	83 c4 10	 add	 esp, 16			; 00000010H

; 2069 :         if (_Myfirst) { // destroy and deallocate old array

  00160	85 c9		 test	 ecx, ecx
  00162	74 64		 je	 SHORT $LN55@Emplace_re

; 2070 :             _STD _Destroy_range(_Myfirst, _Mylast, _Al);

  00164	8b 57 04	 mov	 edx, DWORD PTR [edi+4]
; File C:\Program Files\Microsoft Visual Studio\2022\Professional\VC\Tools\MSVC\14.44.35207\include\xmemory

; 1102 :         for (; _First != _Last; ++_First) {

  00167	3b ca		 cmp	 ecx, edx
  00169	74 13		 je	 SHORT $LN46@Emplace_re
  0016b	0f 1f 44 00 00	 npad	 5
$LL47@Emplace_re:

; 1103 :             allocator_traits<_Alloc>::destroy(_Al, _STD _Unfancy(_First));

  00170	c7 41 18 00 00
	00 00		 mov	 DWORD PTR [ecx+24], OFFSET ??_7CTimer@@6B@
  00177	83 c1 38	 add	 ecx, 56			; 00000038H
  0017a	3b ca		 cmp	 ecx, edx
  0017c	75 f2		 jne	 SHORT $LL47@Emplace_re
$LN46@Emplace_re:
; File C:\Program Files\Microsoft Visual Studio\2022\Professional\VC\Tools\MSVC\14.44.35207\include\vector

; 2072 :             _Al.deallocate(_Myfirst, static_cast<size_type>(_Myend - _Myfirst));

  0017e	8b 4f 08	 mov	 ecx, DWORD PTR [edi+8]
  00181	b8 93 24 49 92	 mov	 eax, -1840700269	; 92492493H
  00186	8b 37		 mov	 esi, DWORD PTR [edi]
  00188	2b ce		 sub	 ecx, esi
  0018a	f7 e9		 imul	 ecx
  0018c	03 d1		 add	 edx, ecx
  0018e	c1 fa 05	 sar	 edx, 5
  00191	8b c2		 mov	 eax, edx
  00193	c1 e8 1f	 shr	 eax, 31			; 0000001fH
  00196	03 c2		 add	 eax, edx
; File C:\Program Files\Microsoft Visual Studio\2022\Professional\VC\Tools\MSVC\14.44.35207\include\xmemory

; 985  :         _STD _Deallocate<_New_alignof<_Ty>>(_Ptr, sizeof(_Ty) * _Count);

  00198	8d 0c c5 00 00
	00 00		 lea	 ecx, DWORD PTR [eax*8]
  0019f	2b c8		 sub	 ecx, eax
  001a1	c1 e1 03	 shl	 ecx, 3

; 284  :         if (_Bytes >= _Big_allocation_threshold) {

  001a4	81 f9 00 10 00
	00		 cmp	 ecx, 4096		; 00001000H
  001aa	72 12		 jb	 SHORT $LN60@Emplace_re

; 205  :     const uintptr_t _Ptr_container   = _Ptr_user[-1];

  001ac	8b 56 fc	 mov	 edx, DWORD PTR [esi-4]
  001af	83 c1 23	 add	 ecx, 35			; 00000023H

; 206  : 
; 207  :     // If the following asserts, it likely means that we are performing
; 208  :     // an aligned delete on memory coming from an unaligned allocation.
; 209  :     _STL_ASSERT(_Ptr_user[-2] == _Big_allocation_sentinel, "invalid argument");
; 210  : 
; 211  :     // Extra paranoia on aligned allocation/deallocation; ensure _Ptr_container is
; 212  :     // in range [_Min_back_shift, _Non_user_size]
; 213  : #ifdef _DEBUG
; 214  :     constexpr uintptr_t _Min_back_shift = 2 * sizeof(void*);
; 215  : #else // ^^^ defined(_DEBUG) / !defined(_DEBUG) vvv
; 216  :     constexpr uintptr_t _Min_back_shift = sizeof(void*);
; 217  : #endif // ^^^ !defined(_DEBUG) ^^^
; 218  :     const uintptr_t _Back_shift = reinterpret_cast<uintptr_t>(_Ptr) - _Ptr_container;

  001b2	2b f2		 sub	 esi, edx

; 219  :     _STL_VERIFY(_Back_shift >= _Min_back_shift && _Back_shift <= _Non_user_size, "invalid argument");

  001b4	8d 46 fc	 lea	 eax, DWORD PTR [esi-4]
  001b7	83 f8 1f	 cmp	 eax, 31			; 0000001fH
  001ba	77 34		 ja	 SHORT $LN59@Emplace_re

; 220  :     _Ptr = reinterpret_cast<void*>(_Ptr_container);

  001bc	8b f2		 mov	 esi, edx
$LN60@Emplace_re:

; 289  :         ::operator delete(_Ptr, _Bytes);

  001be	51		 push	 ecx
  001bf	56		 push	 esi
  001c0	e8 00 00 00 00	 call	 ??3@YAXPAXI@Z		; operator delete
  001c5	83 c4 08	 add	 esp, 8
$LN55@Emplace_re:
; File C:\Program Files\Microsoft Visual Studio\2022\Professional\VC\Tools\MSVC\14.44.35207\include\vector

; 2076 :         _Mylast  = _Newvec + _Newsize;

  001c8	8b 55 f4	 mov	 edx, DWORD PTR __Newsize$1$[ebp]

; 916  :         _Change_array(_Newvec, _Newsize, _Newcapacity);
; 917  :         return _Newvec + _Whereoff;

  001cb	8b 45 f0	 mov	 eax, DWORD PTR tv704[ebp]

; 2075 :         _Myfirst = _Newvec;

  001ce	89 1f		 mov	 DWORD PTR [edi], ebx

; 2076 :         _Mylast  = _Newvec + _Newsize;

  001d0	8d 0c d5 00 00
	00 00		 lea	 ecx, DWORD PTR [edx*8]
  001d7	2b ca		 sub	 ecx, edx
  001d9	8d 0c cb	 lea	 ecx, DWORD PTR [ebx+ecx*8]
  001dc	89 4f 04	 mov	 DWORD PTR [edi+4], ecx

; 2077 :         _Myend   = _Newvec + _Newcapacity;

  001df	8b 4d fc	 mov	 ecx, DWORD PTR tv691[ebp]
  001e2	03 cb		 add	 ecx, ebx
  001e4	89 4f 08	 mov	 DWORD PTR [edi+8], ecx

; 918  :     }

  001e7	5f		 pop	 edi
  001e8	5e		 pop	 esi
  001e9	5b		 pop	 ebx
  001ea	8b e5		 mov	 esp, ebp
  001ec	5d		 pop	 ebp
  001ed	c2 08 00	 ret	 8
$LN59@Emplace_re:
; File C:\Program Files\Microsoft Visual Studio\2022\Professional\VC\Tools\MSVC\14.44.35207\include\xmemory

; 219  :     _STL_VERIFY(_Back_shift >= _Min_back_shift && _Back_shift <= _Non_user_size, "invalid argument");

  001f0	6a 00		 push	 0
  001f2	6a 00		 push	 0
  001f4	6a 00		 push	 0
  001f6	6a 00		 push	 0
  001f8	6a 00		 push	 0
  001fa	e8 00 00 00 00	 call	 __invoke_watson
$LN109@Emplace_re:
; File C:\Program Files\Microsoft Visual Studio\2022\Professional\VC\Tools\MSVC\14.44.35207\include\vector

; 888  :             _Xlength();

  001ff	e8 00 00 00 00	 call	 ?_Xlength@?$vector@U_VECINFO@@V?$allocator@U_VECINFO@@@std@@@std@@CAXXZ ; std::vector<_VECINFO,std::allocator<_VECINFO> >::_Xlength
$LN110@Emplace_re:
; File C:\Program Files\Microsoft Visual Studio\2022\Professional\VC\Tools\MSVC\14.44.35207\include\xmemory

; 118  :             _Throw_bad_array_new_length(); // multiply overflow

  00204	e8 00 00 00 00	 call	 ?_Throw_bad_array_new_length@std@@YAXXZ ; std::_Throw_bad_array_new_length
$LN106@Emplace_re:
  00209	cc		 int	 3
??$_Emplace_reallocate@ABU_VECINFO@@@?$vector@U_VECINFO@@V?$allocator@U_VECINFO@@@std@@@std@@AAEPAU_VECINFO@@QAU2@ABU2@@Z ENDP ; std::vector<_VECINFO,std::allocator<_VECINFO> >::_Emplace_reallocate<_VECINFO const &>
_TEXT	ENDS
; Function compile flags: /Ogtp
; File C:\Program Files\Microsoft Visual Studio\2022\Professional\VC\Tools\MSVC\14.44.35207\include\xmemory
;	COMDAT ??1?$_Alloc_construct_ptr@V?$allocator@U?$_Tree_node@U?$pair@$$CBKV?$vector@U_VECINFO@@V?$allocator@U_VECINFO@@@std@@@std@@@std@@PAX@std@@@std@@@std@@QAE@XZ
_TEXT	SEGMENT
??1?$_Alloc_construct_ptr@V?$allocator@U?$_Tree_node@U?$pair@$$CBKV?$vector@U_VECINFO@@V?$allocator@U_VECINFO@@@std@@@std@@@std@@PAX@std@@@std@@@std@@QAE@XZ PROC ; std::_Alloc_construct_ptr<std::allocator<std::_Tree_node<std::pair<unsigned long const ,std::vector<_VECINFO,std::allocator<_VECINFO> > >,void *> > >::~_Alloc_construct_ptr<std::allocator<std::_Tree_node<std::pair<unsigned long const ,std::vector<_VECINFO,std::allocator<_VECINFO> > >,void *> > >, COMDAT
; _this$ = ecx

; 1172 :         if (_Ptr) {

  00000	8b 41 04	 mov	 eax, DWORD PTR [ecx+4]
  00003	85 c0		 test	 eax, eax
  00005	74 0b		 je	 SHORT $LN10@Alloc_cons

; 289  :         ::operator delete(_Ptr, _Bytes);

  00007	6a 20		 push	 32			; 00000020H
  00009	50		 push	 eax
  0000a	e8 00 00 00 00	 call	 ??3@YAXPAXI@Z		; operator delete
  0000f	83 c4 08	 add	 esp, 8
$LN10@Alloc_cons:

; 1173 :             _Al.deallocate(_Ptr, 1);
; 1174 :         }
; 1175 :     }

  00012	c3		 ret	 0
??1?$_Alloc_construct_ptr@V?$allocator@U?$_Tree_node@U?$pair@$$CBKV?$vector@U_VECINFO@@V?$allocator@U_VECINFO@@@std@@@std@@@std@@PAX@std@@@std@@@std@@QAE@XZ ENDP ; std::_Alloc_construct_ptr<std::allocator<std::_Tree_node<std::pair<unsigned long const ,std::vector<_VECINFO,std::allocator<_VECINFO> > >,void *> > >::~_Alloc_construct_ptr<std::allocator<std::_Tree_node<std::pair<unsigned long const ,std::vector<_VECINFO,std::allocator<_VECINFO> > >,void *> > >
_TEXT	ENDS
; Function compile flags: /Ogtp
; File C:\Program Files\Microsoft Visual Studio\2022\Professional\VC\Tools\MSVC\14.44.35207\include\xtree
; File C:\Program Files\Microsoft Visual Studio\2022\Professional\VC\Tools\MSVC\14.44.35207\include\type_traits
; File C:\Program Files\Microsoft Visual Studio\2022\Professional\VC\Tools\MSVC\14.44.35207\include\xtree
; File C:\Program Files\Microsoft Visual Studio\2022\Professional\VC\Tools\MSVC\14.44.35207\include\type_traits
; File C:\Program Files\Microsoft Visual Studio\2022\Professional\VC\Tools\MSVC\14.44.35207\include\xtree
;	COMDAT ??$_Find_lower_bound@K@?$_Tree@V?$_Tmap_traits@KV?$vector@U_VECINFO@@V?$allocator@U_VECINFO@@@std@@@std@@U?$less@K@2@V?$allocator@U?$pair@$$CBKV?$vector@U_VECINFO@@V?$allocator@U_VECINFO@@@std@@@std@@@std@@@2@$0A@@std@@@std@@IBE?AU?$_Tree_find_result@PAU?$_Tree_node@U?$pair@$$CBKV?$vector@U_VECINFO@@V?$allocator@U_VECINFO@@@std@@@std@@@std@@PAX@std@@@1@ABK@Z
_TEXT	SEGMENT
___$ReturnUdt$ = 8					; size = 4
__Keyval$ = 12						; size = 4
??$_Find_lower_bound@K@?$_Tree@V?$_Tmap_traits@KV?$vector@U_VECINFO@@V?$allocator@U_VECINFO@@@std@@@std@@U?$less@K@2@V?$allocator@U?$pair@$$CBKV?$vector@U_VECINFO@@V?$allocator@U_VECINFO@@@std@@@std@@@std@@@2@$0A@@std@@@std@@IBE?AU?$_Tree_find_result@PAU?$_Tree_node@U?$pair@$$CBKV?$vector@U_VECINFO@@V?$allocator@U_VECINFO@@@std@@@std@@@std@@PAX@std@@@1@ABK@Z PROC ; std::_Tree<std::_Tmap_traits<unsigned long,std::vector<_VECINFO,std::allocator<_VECINFO> >,std::less<unsigned long>,std::allocator<std::pair<unsigned long const ,std::vector<_VECINFO,std::allocator<_VECINFO> > > >,0> >::_Find_lower_bound<unsigned long>, COMDAT
; _this$ = ecx

; 1628 :     _Tree_find_result<_Nodeptr> _Find_lower_bound(const _Keyty& _Keyval) const {

  00000	55		 push	 ebp
  00001	8b ec		 mov	 ebp, esp

; 1629 :         const auto _Scary = _Get_scary();
; 1630 :         _Tree_find_result<_Nodeptr> _Result{{_Scary->_Myhead->_Parent, _Tree_child::_Right}, _Scary->_Myhead};

  00003	8b 09		 mov	 ecx, DWORD PTR [ecx]
  00005	8b 55 08	 mov	 edx, DWORD PTR ___$ReturnUdt$[ebp]
  00008	8b 41 04	 mov	 eax, DWORD PTR [ecx+4]
  0000b	89 02		 mov	 DWORD PTR [edx], eax
  0000d	c7 42 04 00 00
	00 00		 mov	 DWORD PTR [edx+4], 0
  00014	89 4a 08	 mov	 DWORD PTR [edx+8], ecx

; 1631 :         _Nodeptr _Trynode = _Result._Location._Parent;
; 1632 :         while (!_Trynode->_Isnil) {

  00017	80 78 0d 00	 cmp	 BYTE PTR [eax+13], 0
  0001b	75 28		 jne	 SHORT $LN13@Find_lower
; File C:\Program Files\Microsoft Visual Studio\2022\Professional\VC\Tools\MSVC\14.44.35207\include\type_traits

; 2380 :         return _Left < _Right;

  0001d	8b 4d 0c	 mov	 ecx, DWORD PTR __Keyval$[ebp]
  00020	56		 push	 esi
  00021	8b 31		 mov	 esi, DWORD PTR [ecx]
$LL2@Find_lower:
; File C:\Program Files\Microsoft Visual Studio\2022\Professional\VC\Tools\MSVC\14.44.35207\include\xtree

; 1633 :             _Result._Location._Parent = _Trynode;

  00023	89 02		 mov	 DWORD PTR [edx], eax
; File C:\Program Files\Microsoft Visual Studio\2022\Professional\VC\Tools\MSVC\14.44.35207\include\type_traits

; 2380 :         return _Left < _Right;

  00025	39 70 10	 cmp	 DWORD PTR [eax+16], esi
; File C:\Program Files\Microsoft Visual Studio\2022\Professional\VC\Tools\MSVC\14.44.35207\include\xtree

; 1634 :             if (_DEBUG_LT_PRED(_Getcomp(), _Traits::_Kfn(_Trynode->_Myval), _Keyval)) {

  00028	73 07		 jae	 SHORT $LN4@Find_lower

; 1635 :                 _Result._Location._Child = _Tree_child::_Right;
; 1636 :                 _Trynode                 = _Trynode->_Right;

  0002a	8b 40 08	 mov	 eax, DWORD PTR [eax+8]
  0002d	33 c9		 xor	 ecx, ecx

; 1637 :             } else {

  0002f	eb 0a		 jmp	 SHORT $LN5@Find_lower
$LN4@Find_lower:

; 1638 :                 _Result._Location._Child = _Tree_child::_Left;
; 1639 :                 _Result._Bound           = _Trynode;

  00031	89 42 08	 mov	 DWORD PTR [edx+8], eax

; 1640 :                 _Trynode                 = _Trynode->_Left;

  00034	b9 01 00 00 00	 mov	 ecx, 1
  00039	8b 00		 mov	 eax, DWORD PTR [eax]
$LN5@Find_lower:

; 1631 :         _Nodeptr _Trynode = _Result._Location._Parent;
; 1632 :         while (!_Trynode->_Isnil) {

  0003b	89 4a 04	 mov	 DWORD PTR [edx+4], ecx
  0003e	80 78 0d 00	 cmp	 BYTE PTR [eax+13], 0
  00042	74 df		 je	 SHORT $LL2@Find_lower
  00044	5e		 pop	 esi
$LN13@Find_lower:

; 1641 :             }
; 1642 :         }
; 1643 : 
; 1644 :         return _Result;
; 1645 :     }

  00045	8b c2		 mov	 eax, edx
  00047	5d		 pop	 ebp
  00048	c2 08 00	 ret	 8
??$_Find_lower_bound@K@?$_Tree@V?$_Tmap_traits@KV?$vector@U_VECINFO@@V?$allocator@U_VECINFO@@@std@@@std@@U?$less@K@2@V?$allocator@U?$pair@$$CBKV?$vector@U_VECINFO@@V?$allocator@U_VECINFO@@@std@@@std@@@std@@@2@$0A@@std@@@std@@IBE?AU?$_Tree_find_result@PAU?$_Tree_node@U?$pair@$$CBKV?$vector@U_VECINFO@@V?$allocator@U_VECINFO@@@std@@@std@@@std@@PAX@std@@@1@ABK@Z ENDP ; std::_Tree<std::_Tmap_traits<unsigned long,std::vector<_VECINFO,std::allocator<_VECINFO> >,std::less<unsigned long>,std::allocator<std::pair<unsigned long const ,std::vector<_VECINFO,std::allocator<_VECINFO> > > >,0> >::_Find_lower_bound<unsigned long>
_TEXT	ENDS
; Function compile flags: /Ogtp
; File C:\Program Files\Microsoft Visual Studio\2022\Professional\VC\Tools\MSVC\14.44.35207\include\xtree
; File C:\Program Files\Microsoft Visual Studio\2022\Professional\VC\Tools\MSVC\14.44.35207\include\utility
; File C:\Program Files\Microsoft Visual Studio\2022\Professional\VC\Tools\MSVC\14.44.35207\include\xtree
; File C:\Program Files\Microsoft Visual Studio\2022\Professional\VC\Tools\MSVC\14.44.35207\include\vector
; File C:\Program Files\Microsoft Visual Studio\2022\Professional\VC\Tools\MSVC\14.44.35207\include\xmemory
; File C:\Program Files\Microsoft Visual Studio\2022\Professional\VC\Tools\MSVC\14.44.35207\include\xtree
; File C:\Program Files\Microsoft Visual Studio\2022\Professional\VC\Tools\MSVC\14.44.35207\include\xmemory
; File C:\Program Files\Microsoft Visual Studio\2022\Professional\VC\Tools\MSVC\14.44.35207\include\xtree
;	COMDAT ??$_Erase_tree@V?$allocator@U?$_Tree_node@U?$pair@$$CBKV?$vector@U_VECINFO@@V?$allocator@U_VECINFO@@@std@@@std@@@std@@PAX@std@@@std@@@?$_Tree_val@U?$_Tree_simple_types@U?$pair@$$CBKV?$vector@U_VECINFO@@V?$allocator@U_VECINFO@@@std@@@std@@@std@@@std@@@std@@QAEXAAV?$allocator@U?$_Tree_node@U?$pair@$$CBKV?$vector@U_VECINFO@@V?$allocator@U_VECINFO@@@std@@@std@@@std@@PAX@std@@@1@PAU?$_Tree_node@U?$pair@$$CBKV?$vector@U_VECINFO@@V?$allocator@U_VECINFO@@@std@@@std@@@std@@PAX@1@@Z
_TEXT	SEGMENT
_this$1$ = -4						; size = 4
__Al$ = 8						; size = 4
__Rootnode$ = 12					; size = 4
??$_Erase_tree@V?$allocator@U?$_Tree_node@U?$pair@$$CBKV?$vector@U_VECINFO@@V?$allocator@U_VECINFO@@@std@@@std@@@std@@PAX@std@@@std@@@?$_Tree_val@U?$_Tree_simple_types@U?$pair@$$CBKV?$vector@U_VECINFO@@V?$allocator@U_VECINFO@@@std@@@std@@@std@@@std@@@std@@QAEXAAV?$allocator@U?$_Tree_node@U?$pair@$$CBKV?$vector@U_VECINFO@@V?$allocator@U_VECINFO@@@std@@@std@@@std@@PAX@std@@@1@PAU?$_Tree_node@U?$pair@$$CBKV?$vector@U_VECINFO@@V?$allocator@U_VECINFO@@@std@@@std@@@std@@PAX@1@@Z PROC ; std::_Tree_val<std::_Tree_simple_types<std::pair<unsigned long const ,std::vector<_VECINFO,std::allocator<_VECINFO> > > > >::_Erase_tree<std::allocator<std::_Tree_node<std::pair<unsigned long const ,std::vector<_VECINFO,std::allocator<_VECINFO> > >,void *> > >, COMDAT
; _this$ = ecx

; 767  :     void _Erase_tree(_Alnode& _Al, _Nodeptr _Rootnode) noexcept {

  00000	55		 push	 ebp
  00001	8b ec		 mov	 ebp, esp
  00003	51		 push	 ecx
  00004	56		 push	 esi

; 768  :         while (!_Rootnode->_Isnil) { // free subtrees, then node

  00005	8b 75 0c	 mov	 esi, DWORD PTR __Rootnode$[ebp]
  00008	8b c1		 mov	 eax, ecx
  0000a	89 45 fc	 mov	 DWORD PTR _this$1$[ebp], eax
  0000d	80 7e 0d 00	 cmp	 BYTE PTR [esi+13], 0
  00011	75 32		 jne	 SHORT $LN48@Erase_tree
  00013	53		 push	 ebx
  00014	8b 5d 08	 mov	 ebx, DWORD PTR __Al$[ebp]
  00017	57		 push	 edi
$LL2@Erase_tree:

; 769  :             _Erase_tree(_Al, _Rootnode->_Right);

  00018	ff 76 08	 push	 DWORD PTR [esi+8]
  0001b	8b c8		 mov	 ecx, eax
  0001d	53		 push	 ebx
  0001e	e8 00 00 00 00	 call	 ??$_Erase_tree@V?$allocator@U?$_Tree_node@U?$pair@$$CBKV?$vector@U_VECINFO@@V?$allocator@U_VECINFO@@@std@@@std@@@std@@PAX@std@@@std@@@?$_Tree_val@U?$_Tree_simple_types@U?$pair@$$CBKV?$vector@U_VECINFO@@V?$allocator@U_VECINFO@@@std@@@std@@@std@@@std@@@std@@QAEXAAV?$allocator@U?$_Tree_node@U?$pair@$$CBKV?$vector@U_VECINFO@@V?$allocator@U_VECINFO@@@std@@@std@@@std@@PAX@std@@@1@PAU?$_Tree_node@U?$pair@$$CBKV?$vector@U_VECINFO@@V?$allocator@U_VECINFO@@@std@@@std@@@std@@PAX@1@@Z ; std::_Tree_val<std::_Tree_simple_types<std::pair<unsigned long const ,std::vector<_VECINFO,std::allocator<_VECINFO> > > > >::_Erase_tree<std::allocator<std::_Tree_node<std::pair<unsigned long const ,std::vector<_VECINFO,std::allocator<_VECINFO> > >,void *> > >
; File C:\Program Files\Microsoft Visual Studio\2022\Professional\VC\Tools\MSVC\14.44.35207\include\utility

; 773  :     _Ty _Old_val = static_cast<_Ty&&>(_Val);

  00023	8b fe		 mov	 edi, esi

; 774  :     _Val         = static_cast<_Other&&>(_New_val);

  00025	8b 36		 mov	 esi, DWORD PTR [esi]
; File C:\Program Files\Microsoft Visual Studio\2022\Professional\VC\Tools\MSVC\14.44.35207\include\xtree

; 381  :         allocator_traits<_Alloc>::destroy(_Al, _STD addressof(_Ptr->_Myval));

  00027	8d 4f 14	 lea	 ecx, DWORD PTR [edi+20]
; File C:\Program Files\Microsoft Visual Studio\2022\Professional\VC\Tools\MSVC\14.44.35207\include\vector

; 830  :         _Tidy();

  0002a	e8 00 00 00 00	 call	 ?_Tidy@?$vector@U_VECINFO@@V?$allocator@U_VECINFO@@@std@@@std@@AAEXXZ ; std::vector<_VECINFO,std::allocator<_VECINFO> >::_Tidy
; File C:\Program Files\Microsoft Visual Studio\2022\Professional\VC\Tools\MSVC\14.44.35207\include\xmemory

; 289  :         ::operator delete(_Ptr, _Bytes);

  0002f	6a 20		 push	 32			; 00000020H
  00031	57		 push	 edi
  00032	e8 00 00 00 00	 call	 ??3@YAXPAXI@Z		; operator delete
; File C:\Program Files\Microsoft Visual Studio\2022\Professional\VC\Tools\MSVC\14.44.35207\include\xtree

; 768  :         while (!_Rootnode->_Isnil) { // free subtrees, then node

  00037	8b 45 fc	 mov	 eax, DWORD PTR _this$1$[ebp]
; File C:\Program Files\Microsoft Visual Studio\2022\Professional\VC\Tools\MSVC\14.44.35207\include\xmemory

; 289  :         ::operator delete(_Ptr, _Bytes);

  0003a	83 c4 08	 add	 esp, 8
; File C:\Program Files\Microsoft Visual Studio\2022\Professional\VC\Tools\MSVC\14.44.35207\include\xtree

; 768  :         while (!_Rootnode->_Isnil) { // free subtrees, then node

  0003d	80 7e 0d 00	 cmp	 BYTE PTR [esi+13], 0
  00041	74 d5		 je	 SHORT $LL2@Erase_tree
  00043	5f		 pop	 edi
  00044	5b		 pop	 ebx
$LN48@Erase_tree:
  00045	5e		 pop	 esi

; 770  :             _Alnode::value_type::_Freenode(_Al, _STD exchange(_Rootnode, _Rootnode->_Left));
; 771  :         }
; 772  :     }

  00046	8b e5		 mov	 esp, ebp
  00048	5d		 pop	 ebp
  00049	c2 08 00	 ret	 8
??$_Erase_tree@V?$allocator@U?$_Tree_node@U?$pair@$$CBKV?$vector@U_VECINFO@@V?$allocator@U_VECINFO@@@std@@@std@@@std@@PAX@std@@@std@@@?$_Tree_val@U?$_Tree_simple_types@U?$pair@$$CBKV?$vector@U_VECINFO@@V?$allocator@U_VECINFO@@@std@@@std@@@std@@@std@@@std@@QAEXAAV?$allocator@U?$_Tree_node@U?$pair@$$CBKV?$vector@U_VECINFO@@V?$allocator@U_VECINFO@@@std@@@std@@@std@@PAX@std@@@1@PAU?$_Tree_node@U?$pair@$$CBKV?$vector@U_VECINFO@@V?$allocator@U_VECINFO@@@std@@@std@@@std@@PAX@1@@Z ENDP ; std::_Tree_val<std::_Tree_simple_types<std::pair<unsigned long const ,std::vector<_VECINFO,std::allocator<_VECINFO> > > > >::_Erase_tree<std::allocator<std::_Tree_node<std::pair<unsigned long const ,std::vector<_VECINFO,std::allocator<_VECINFO> > >,void *> > >
_TEXT	ENDS
; Function compile flags: /Ogtp
; File C:\Program Files\Microsoft Visual Studio\2022\Professional\VC\Tools\MSVC\14.44.35207\include\xtree
; File C:\Program Files\Microsoft Visual Studio\2022\Professional\VC\Tools\MSVC\14.44.35207\include\type_traits
; File C:\Program Files\Microsoft Visual Studio\2022\Professional\VC\Tools\MSVC\14.44.35207\include\xtree
; File C:\Program Files\Microsoft Visual Studio\2022\Professional\VC\Tools\MSVC\14.44.35207\include\utility
; File C:\Program Files\Microsoft Visual Studio\2022\Professional\VC\Tools\MSVC\14.44.35207\include\xtree
; File C:\Program Files\Microsoft Visual Studio\2022\Professional\VC\Tools\MSVC\14.44.35207\include\xmemory
; File C:\Program Files\Microsoft Visual Studio\2022\Professional\VC\Tools\MSVC\14.44.35207\include\xtree
; File C:\Program Files\Microsoft Visual Studio\2022\Professional\VC\Tools\MSVC\14.44.35207\include\xmemory
; File C:\Program Files\Microsoft Visual Studio\2022\Professional\VC\Tools\MSVC\14.44.35207\include\utility
; File C:\Program Files\Microsoft Visual Studio\2022\Professional\VC\Tools\MSVC\14.44.35207\include\xmemory
; File C:\Program Files\Microsoft Visual Studio\2022\Professional\VC\Tools\MSVC\14.44.35207\include\utility
; File C:\Program Files\Microsoft Visual Studio\2022\Professional\VC\Tools\MSVC\14.44.35207\include\vector
; File C:\Program Files\Microsoft Visual Studio\2022\Professional\VC\Tools\MSVC\14.44.35207\include\xtree
; File C:\Program Files\Microsoft Visual Studio\2022\Professional\VC\Tools\MSVC\14.44.35207\include\vector
; File C:\Program Files\Microsoft Visual Studio\2022\Professional\VC\Tools\MSVC\14.44.35207\include\xtree
; File C:\Program Files\Microsoft Visual Studio\2022\Professional\VC\Tools\MSVC\14.44.35207\include\vector
; File C:\Program Files\Microsoft Visual Studio\2022\Professional\VC\Tools\MSVC\14.44.35207\include\xtree
; File C:\Program Files\Microsoft Visual Studio\2022\Professional\VC\Tools\MSVC\14.44.35207\include\utility
; File C:\Program Files\Microsoft Visual Studio\2022\Professional\VC\Tools\MSVC\14.44.35207\include\xtree
;	COMDAT ??$insert@$0A@$0A@@?$_Tree@V?$_Tmap_traits@KV?$vector@U_VECINFO@@V?$allocator@U_VECINFO@@@std@@@std@@U?$less@K@2@V?$allocator@U?$pair@$$CBKV?$vector@U_VECINFO@@V?$allocator@U_VECINFO@@@std@@@std@@@std@@@2@$0A@@std@@@std@@QAE?AU?$pair@V?$_Tree_iterator@V?$_Tree_val@U?$_Tree_simple_types@U?$pair@$$CBKV?$vector@U_VECINFO@@V?$allocator@U_VECINFO@@@std@@@std@@@std@@@std@@@std@@@std@@_N@1@$$QAU?$pair@$$CBKV?$vector@U_VECINFO@@V?$allocator@U_VECINFO@@@std@@@std@@@1@@Z
_TEXT	SEGMENT
__Loc$2 = -40						; size = 12
$T3 = -28						; size = 12
$T4 = -24						; size = 8
_this$1$ = -16						; size = 4
__$EHRec$ = -12						; size = 12
___$ReturnUdt$ = 8					; size = 4
__Val$ = 12						; size = 4
??$insert@$0A@$0A@@?$_Tree@V?$_Tmap_traits@KV?$vector@U_VECINFO@@V?$allocator@U_VECINFO@@@std@@@std@@U?$less@K@2@V?$allocator@U?$pair@$$CBKV?$vector@U_VECINFO@@V?$allocator@U_VECINFO@@@std@@@std@@@std@@@2@$0A@@std@@@std@@QAE?AU?$pair@V?$_Tree_iterator@V?$_Tree_val@U?$_Tree_simple_types@U?$pair@$$CBKV?$vector@U_VECINFO@@V?$allocator@U_VECINFO@@@std@@@std@@@std@@@std@@@std@@@std@@_N@1@$$QAU?$pair@$$CBKV?$vector@U_VECINFO@@V?$allocator@U_VECINFO@@@std@@@std@@@1@@Z PROC ; std::_Tree<std::_Tmap_traits<unsigned long,std::vector<_VECINFO,std::allocator<_VECINFO> >,std::less<unsigned long>,std::allocator<std::pair<unsigned long const ,std::vector<_VECINFO,std::allocator<_VECINFO> > > >,0> >::insert<0,0>, COMDAT
; _this$ = ecx

; 1245 :     pair<iterator, bool> insert(value_type&& _Val) {

  00000	55		 push	 ebp
  00001	8b ec		 mov	 ebp, esp
  00003	6a ff		 push	 -1
  00005	68 00 00 00 00	 push	 __ehhandler$??$insert@$0A@$0A@@?$_Tree@V?$_Tmap_traits@KV?$vector@U_VECINFO@@V?$allocator@U_VECINFO@@@std@@@std@@U?$less@K@2@V?$allocator@U?$pair@$$CBKV?$vector@U_VECINFO@@V?$allocator@U_VECINFO@@@std@@@std@@@std@@@2@$0A@@std@@@std@@QAE?AU?$pair@V?$_Tree_iterator@V?$_Tree_val@U?$_Tree_simple_types@U?$pair@$$CBKV?$vector@U_VECINFO@@V?$allocator@U_VECINFO@@@std@@@std@@@std@@@std@@@std@@@std@@_N@1@$$QAU?$pair@$$CBKV?$vector@U_VECINFO@@V?$allocator@U_VECINFO@@@std@@@std@@@1@@Z
  0000a	64 a1 00 00 00
	00		 mov	 eax, DWORD PTR fs:0
  00010	50		 push	 eax
  00011	83 ec 1c	 sub	 esp, 28			; 0000001cH
  00014	53		 push	 ebx
  00015	56		 push	 esi
  00016	57		 push	 edi
  00017	a1 00 00 00 00	 mov	 eax, DWORD PTR ___security_cookie
  0001c	33 c5		 xor	 eax, ebp
  0001e	50		 push	 eax
  0001f	8d 45 f4	 lea	 eax, DWORD PTR __$EHRec$[ebp]
  00022	64 a3 00 00 00
	00		 mov	 DWORD PTR fs:0, eax
  00028	8b f1		 mov	 esi, ecx
  0002a	89 75 f0	 mov	 DWORD PTR _this$1$[ebp], esi

; 1017 :             _Loc                = _Find_lower_bound(_Keyval);

  0002d	8b 5d 0c	 mov	 ebx, DWORD PTR __Val$[ebp]
  00030	8d 45 e4	 lea	 eax, DWORD PTR $T3[ebp]
  00033	53		 push	 ebx
  00034	50		 push	 eax
  00035	e8 00 00 00 00	 call	 ??$_Find_lower_bound@K@?$_Tree@V?$_Tmap_traits@KV?$vector@U_VECINFO@@V?$allocator@U_VECINFO@@@std@@@std@@U?$less@K@2@V?$allocator@U?$pair@$$CBKV?$vector@U_VECINFO@@V?$allocator@U_VECINFO@@@std@@@std@@@std@@@2@$0A@@std@@@std@@IBE?AU?$_Tree_find_result@PAU?$_Tree_node@U?$pair@$$CBKV?$vector@U_VECINFO@@V?$allocator@U_VECINFO@@@std@@@std@@@std@@PAX@std@@@1@ABK@Z ; std::_Tree<std::_Tmap_traits<unsigned long,std::vector<_VECINFO,std::allocator<_VECINFO> >,std::less<unsigned long>,std::allocator<std::pair<unsigned long const ,std::vector<_VECINFO,std::allocator<_VECINFO> > > >,0> >::_Find_lower_bound<unsigned long>
  0003a	8b 48 08	 mov	 ecx, DWORD PTR [eax+8]
  0003d	f3 0f 7e 00	 movq	 xmm0, QWORD PTR [eax]
  00041	66 0f d6 45 d8	 movq	 QWORD PTR __Loc$2[ebp], xmm0

; 1624 :         return !_Bound->_Isnil && !_DEBUG_LT_PRED(_Getcomp(), _Keyval, _Traits::_Kfn(_Bound->_Myval));

  00046	80 79 0d 00	 cmp	 BYTE PTR [ecx+13], 0
  0004a	75 0b		 jne	 SHORT $LN4@insert
; File C:\Program Files\Microsoft Visual Studio\2022\Professional\VC\Tools\MSVC\14.44.35207\include\type_traits

; 2380 :         return _Left < _Right;

  0004c	8b 03		 mov	 eax, DWORD PTR [ebx]
  0004e	3b 41 10	 cmp	 eax, DWORD PTR [ecx+16]
; File C:\Program Files\Microsoft Visual Studio\2022\Professional\VC\Tools\MSVC\14.44.35207\include\xtree

; 1624 :         return !_Bound->_Isnil && !_DEBUG_LT_PRED(_Getcomp(), _Keyval, _Traits::_Kfn(_Bound->_Myval));

  00051	72 04		 jb	 SHORT $LN4@insert
; File C:\Program Files\Microsoft Visual Studio\2022\Professional\VC\Tools\MSVC\14.44.35207\include\utility

; 274  :         : first(_STD forward<_Other1>(_Val1)), second(_STD forward<_Other2>(_Val2)) {

  00053	32 d2		 xor	 dl, dl
; File C:\Program Files\Microsoft Visual Studio\2022\Professional\VC\Tools\MSVC\14.44.35207\include\xtree

; 1019 :                 return {_Loc._Bound, false};

  00055	eb 79		 jmp	 SHORT $LN123@insert
$LN4@insert:

; 1648 :         if (max_size() == _Get_scary()->_Mysize) {

  00057	81 7e 04 ff ff
	ff 07		 cmp	 DWORD PTR [esi+4], 134217727 ; 07ffffffH
  0005e	0f 84 88 00 00
	00		 je	 $LN144@insert

; 1023 :             _Inserted = _Tree_temp_node<_Alnode>(_Getal(), _Scary->_Myhead, _STD forward<_Valtys>(_Vals)...)._Release();

  00064	8b 3e		 mov	 edi, DWORD PTR [esi]
; File C:\Program Files\Microsoft Visual Studio\2022\Professional\VC\Tools\MSVC\14.44.35207\include\xmemory

; 1160 :     _CONSTEXPR20 explicit _Alloc_construct_ptr(_Alloc& _Al_) : _Al(_Al_), _Ptr(nullptr) {}

  00066	89 75 e8	 mov	 DWORD PTR $T4[ebp], esi

; 136  :         return ::operator new(_Bytes);

  00069	6a 20		 push	 32			; 00000020H
; File C:\Program Files\Microsoft Visual Studio\2022\Professional\VC\Tools\MSVC\14.44.35207\include\xtree

; 808  :     explicit _Tree_temp_node_alloc(_Alnode& _Al_) : _Alloc_construct_ptr<_Alnode>(_Al_) {

  0006b	c7 45 fc 00 00
	00 00		 mov	 DWORD PTR __$EHRec$[ebp+8], 0
; File C:\Program Files\Microsoft Visual Studio\2022\Professional\VC\Tools\MSVC\14.44.35207\include\xmemory

; 1167 :         _Ptr = nullptr; // if allocate throws, prevents double-free

  00072	c7 45 ec 00 00
	00 00		 mov	 DWORD PTR $T4[ebp+4], 0

; 136  :         return ::operator new(_Bytes);

  00079	e8 00 00 00 00	 call	 ??2@YAPAXI@Z		; operator new
; File C:\Program Files\Microsoft Visual Studio\2022\Professional\VC\Tools\MSVC\14.44.35207\include\utility

; 278  :     pair(pair&&)      = default;

  0007e	8b 0b		 mov	 ecx, DWORD PTR [ebx]
; File C:\Program Files\Microsoft Visual Studio\2022\Professional\VC\Tools\MSVC\14.44.35207\include\xmemory

; 256  :         return _Traits::_Allocate(_Bytes);

  00080	8b f0		 mov	 esi, eax

; 136  :         return ::operator new(_Bytes);

  00082	83 c4 04	 add	 esp, 4
; File C:\Program Files\Microsoft Visual Studio\2022\Professional\VC\Tools\MSVC\14.44.35207\include\utility

; 278  :     pair(pair&&)      = default;

  00085	89 4e 10	 mov	 DWORD PTR [esi+16], ecx

; 773  :     _Ty _Old_val = static_cast<_Ty&&>(_Val);

  00088	8b 4b 08	 mov	 ecx, DWORD PTR [ebx+8]
  0008b	8b 53 0c	 mov	 edx, DWORD PTR [ebx+12]
  0008e	8b 43 04	 mov	 eax, DWORD PTR [ebx+4]

; 774  :     _Val         = static_cast<_Other&&>(_New_val);

  00091	c7 43 0c 00 00
	00 00		 mov	 DWORD PTR [ebx+12], 0
  00098	c7 43 08 00 00
	00 00		 mov	 DWORD PTR [ebx+8], 0
  0009f	c7 43 04 00 00
	00 00		 mov	 DWORD PTR [ebx+4], 0
; File C:\Program Files\Microsoft Visual Studio\2022\Professional\VC\Tools\MSVC\14.44.35207\include\vector

; 403  :         : _Myfirst(_First), _Mylast(_Last), _Myend(_End) {}

  000a6	89 4e 18	 mov	 DWORD PTR [esi+24], ecx
; File C:\Program Files\Microsoft Visual Studio\2022\Professional\VC\Tools\MSVC\14.44.35207\include\xtree

; 1042 :         return {_Scary->_Insert_node(_Loc._Location, _Inserted), true};

  000a9	8b 4d f0	 mov	 ecx, DWORD PTR _this$1$[ebp]
  000ac	56		 push	 esi
  000ad	ff 75 dc	 push	 DWORD PTR __Loc$2[ebp+4]
; File C:\Program Files\Microsoft Visual Studio\2022\Professional\VC\Tools\MSVC\14.44.35207\include\vector

; 403  :         : _Myfirst(_First), _Mylast(_Last), _Myend(_End) {}

  000b0	89 46 14	 mov	 DWORD PTR [esi+20], eax
; File C:\Program Files\Microsoft Visual Studio\2022\Professional\VC\Tools\MSVC\14.44.35207\include\xtree

; 1042 :         return {_Scary->_Insert_node(_Loc._Location, _Inserted), true};

  000b3	ff 75 d8	 push	 DWORD PTR __Loc$2[ebp]
; File C:\Program Files\Microsoft Visual Studio\2022\Professional\VC\Tools\MSVC\14.44.35207\include\vector

; 403  :         : _Myfirst(_First), _Mylast(_Last), _Myend(_End) {}

  000b6	89 56 1c	 mov	 DWORD PTR [esi+28], edx
; File C:\Program Files\Microsoft Visual Studio\2022\Professional\VC\Tools\MSVC\14.44.35207\include\xtree

; 831  :         _Construct_in_place(this->_Ptr->_Left, _Myhead);

  000b9	89 3e		 mov	 DWORD PTR [esi], edi

; 832  :         _Construct_in_place(this->_Ptr->_Parent, _Myhead);

  000bb	89 7e 04	 mov	 DWORD PTR [esi+4], edi

; 833  :         _Construct_in_place(this->_Ptr->_Right, _Myhead);

  000be	89 7e 08	 mov	 DWORD PTR [esi+8], edi

; 834  :         this->_Ptr->_Color = _Red;

  000c1	66 c7 46 0c 00
	00		 mov	 WORD PTR [esi+12], 0

; 1042 :         return {_Scary->_Insert_node(_Loc._Location, _Inserted), true};

  000c7	e8 00 00 00 00	 call	 ?_Insert_node@?$_Tree_val@U?$_Tree_simple_types@U?$pair@$$CBKV?$vector@U_VECINFO@@V?$allocator@U_VECINFO@@@std@@@std@@@std@@@std@@@std@@QAEPAU?$_Tree_node@U?$pair@$$CBKV?$vector@U_VECINFO@@V?$allocator@U_VECINFO@@@std@@@std@@@std@@PAX@2@U?$_Tree_id@PAU?$_Tree_node@U?$pair@$$CBKV?$vector@U_VECINFO@@V?$allocator@U_VECINFO@@@std@@@std@@@std@@PAX@std@@@2@QAU32@@Z ; std::_Tree_val<std::_Tree_simple_types<std::pair<unsigned long const ,std::vector<_VECINFO,std::allocator<_VECINFO> > > > >::_Insert_node
; File C:\Program Files\Microsoft Visual Studio\2022\Professional\VC\Tools\MSVC\14.44.35207\include\utility

; 274  :         : first(_STD forward<_Other1>(_Val1)), second(_STD forward<_Other2>(_Val2)) {

  000cc	8b c8		 mov	 ecx, eax
  000ce	b2 01		 mov	 dl, 1
$LN123@insert:
  000d0	8b 45 08	 mov	 eax, DWORD PTR ___$ReturnUdt$[ebp]
  000d3	89 08		 mov	 DWORD PTR [eax], ecx
  000d5	88 50 04	 mov	 BYTE PTR [eax+4], dl
; File C:\Program Files\Microsoft Visual Studio\2022\Professional\VC\Tools\MSVC\14.44.35207\include\xtree

; 1248 :     }

  000d8	8b 4d f4	 mov	 ecx, DWORD PTR __$EHRec$[ebp]
  000db	64 89 0d 00 00
	00 00		 mov	 DWORD PTR fs:0, ecx
  000e2	59		 pop	 ecx
  000e3	5f		 pop	 edi
  000e4	5e		 pop	 esi
  000e5	5b		 pop	 ebx
  000e6	8b e5		 mov	 esp, ebp
  000e8	5d		 pop	 ebp
  000e9	c2 08 00	 ret	 8
$LN144@insert:

; 1649 :             _Throw_tree_length_error();

  000ec	e8 00 00 00 00	 call	 ?_Throw_tree_length_error@std@@YAXXZ ; std::_Throw_tree_length_error
$LN142@insert:
  000f1	cc		 int	 3
_TEXT	ENDS
;	COMDAT text$x
text$x	SEGMENT
__unwindfunclet$??$insert@$0A@$0A@@?$_Tree@V?$_Tmap_traits@KV?$vector@U_VECINFO@@V?$allocator@U_VECINFO@@@std@@@std@@U?$less@K@2@V?$allocator@U?$pair@$$CBKV?$vector@U_VECINFO@@V?$allocator@U_VECINFO@@@std@@@std@@@std@@@2@$0A@@std@@@std@@QAE?AU?$pair@V?$_Tree_iterator@V?$_Tree_val@U?$_Tree_simple_types@U?$pair@$$CBKV?$vector@U_VECINFO@@V?$allocator@U_VECINFO@@@std@@@std@@@std@@@std@@@std@@@std@@_N@1@$$QAU?$pair@$$CBKV?$vector@U_VECINFO@@V?$allocator@U_VECINFO@@@std@@@std@@@1@@Z$2:
  00000	8d 4d e8	 lea	 ecx, DWORD PTR $T4[ebp]
  00003	e9 00 00 00 00	 jmp	 ??1?$_Alloc_construct_ptr@V?$allocator@U?$_Tree_node@U?$pair@$$CBKV?$vector@U_VECINFO@@V?$allocator@U_VECINFO@@@std@@@std@@@std@@PAX@std@@@std@@@std@@QAE@XZ ; std::_Alloc_construct_ptr<std::allocator<std::_Tree_node<std::pair<unsigned long const ,std::vector<_VECINFO,std::allocator<_VECINFO> > >,void *> > >::~_Alloc_construct_ptr<std::allocator<std::_Tree_node<std::pair<unsigned long const ,std::vector<_VECINFO,std::allocator<_VECINFO> > >,void *> > >
  00008	cc		 int	 3
  00009	cc		 int	 3
  0000a	cc		 int	 3
  0000b	cc		 int	 3
  0000c	cc		 int	 3
__ehhandler$??$insert@$0A@$0A@@?$_Tree@V?$_Tmap_traits@KV?$vector@U_VECINFO@@V?$allocator@U_VECINFO@@@std@@@std@@U?$less@K@2@V?$allocator@U?$pair@$$CBKV?$vector@U_VECINFO@@V?$allocator@U_VECINFO@@@std@@@std@@@std@@@2@$0A@@std@@@std@@QAE?AU?$pair@V?$_Tree_iterator@V?$_Tree_val@U?$_Tree_simple_types@U?$pair@$$CBKV?$vector@U_VECINFO@@V?$allocator@U_VECINFO@@@std@@@std@@@std@@@std@@@std@@@std@@_N@1@$$QAU?$pair@$$CBKV?$vector@U_VECINFO@@V?$allocator@U_VECINFO@@@std@@@std@@@1@@Z:
  0000d	90		 npad	 1
  0000e	90		 npad	 1
  0000f	8b 54 24 08	 mov	 edx, DWORD PTR [esp+8]
  00013	8d 42 0c	 lea	 eax, DWORD PTR [edx+12]
  00016	8b 4a d4	 mov	 ecx, DWORD PTR [edx-44]
  00019	33 c8		 xor	 ecx, eax
  0001b	e8 00 00 00 00	 call	 @__security_check_cookie@4
  00020	b8 00 00 00 00	 mov	 eax, OFFSET __ehfuncinfo$??$insert@$0A@$0A@@?$_Tree@V?$_Tmap_traits@KV?$vector@U_VECINFO@@V?$allocator@U_VECINFO@@@std@@@std@@U?$less@K@2@V?$allocator@U?$pair@$$CBKV?$vector@U_VECINFO@@V?$allocator@U_VECINFO@@@std@@@std@@@std@@@2@$0A@@std@@@std@@QAE?AU?$pair@V?$_Tree_iterator@V?$_Tree_val@U?$_Tree_simple_types@U?$pair@$$CBKV?$vector@U_VECINFO@@V?$allocator@U_VECINFO@@@std@@@std@@@std@@@std@@@std@@@std@@_N@1@$$QAU?$pair@$$CBKV?$vector@U_VECINFO@@V?$allocator@U_VECINFO@@@std@@@std@@@1@@Z
  00025	e9 00 00 00 00	 jmp	 ___CxxFrameHandler3
text$x	ENDS
??$insert@$0A@$0A@@?$_Tree@V?$_Tmap_traits@KV?$vector@U_VECINFO@@V?$allocator@U_VECINFO@@@std@@@std@@U?$less@K@2@V?$allocator@U?$pair@$$CBKV?$vector@U_VECINFO@@V?$allocator@U_VECINFO@@@std@@@std@@@std@@@2@$0A@@std@@@std@@QAE?AU?$pair@V?$_Tree_iterator@V?$_Tree_val@U?$_Tree_simple_types@U?$pair@$$CBKV?$vector@U_VECINFO@@V?$allocator@U_VECINFO@@@std@@@std@@@std@@@std@@@std@@@std@@_N@1@$$QAU?$pair@$$CBKV?$vector@U_VECINFO@@V?$allocator@U_VECINFO@@@std@@@std@@@1@@Z ENDP ; std::_Tree<std::_Tmap_traits<unsigned long,std::vector<_VECINFO,std::allocator<_VECINFO> >,std::less<unsigned long>,std::allocator<std::pair<unsigned long const ,std::vector<_VECINFO,std::allocator<_VECINFO> > > >,0> >::insert<0,0>
; Function compile flags: /Ogtp
; File C:\Program Files\Microsoft Visual Studio\2022\Professional\VC\Tools\MSVC\14.44.35207\include\vector
;	COMDAT ??1?$pair@$$CBKV?$vector@U_VECINFO@@V?$allocator@U_VECINFO@@@std@@@std@@@std@@QAE@XZ
_TEXT	SEGMENT
??1?$pair@$$CBKV?$vector@U_VECINFO@@V?$allocator@U_VECINFO@@@std@@@std@@@std@@QAE@XZ PROC ; std::pair<unsigned long const ,std::vector<_VECINFO,std::allocator<_VECINFO> > >::~pair<unsigned long const ,std::vector<_VECINFO,std::allocator<_VECINFO> > >, COMDAT
; _this$ = ecx
  00000	83 c1 04	 add	 ecx, 4

; 830  :         _Tidy();

  00003	e9 00 00 00 00	 jmp	 ?_Tidy@?$vector@U_VECINFO@@V?$allocator@U_VECINFO@@@std@@@std@@AAEXXZ ; std::vector<_VECINFO,std::allocator<_VECINFO> >::_Tidy
??1?$pair@$$CBKV?$vector@U_VECINFO@@V?$allocator@U_VECINFO@@@std@@@std@@@std@@QAE@XZ ENDP ; std::pair<unsigned long const ,std::vector<_VECINFO,std::allocator<_VECINFO> > >::~pair<unsigned long const ,std::vector<_VECINFO,std::allocator<_VECINFO> > >
_TEXT	ENDS
; Function compile flags: /Ogtp
; File C:\Program Files\Microsoft Visual Studio\2022\Professional\VC\Tools\MSVC\14.44.35207\include\vector
;	COMDAT ?_Xlength@?$vector@U_VECINFO@@V?$allocator@U_VECINFO@@@std@@@std@@CAXXZ
_TEXT	SEGMENT
?_Xlength@?$vector@U_VECINFO@@V?$allocator@U_VECINFO@@@std@@@std@@CAXXZ PROC ; std::vector<_VECINFO,std::allocator<_VECINFO> >::_Xlength, COMDAT

; 2184 :         _Xlength_error("vector too long");

  00000	68 00 00 00 00	 push	 OFFSET ??_C@_0BA@FOIKENOD@vector?5too?5long@
  00005	e8 00 00 00 00	 call	 ?_Xlength_error@std@@YAXPBD@Z ; std::_Xlength_error
$LN3@Xlength:
  0000a	cc		 int	 3
?_Xlength@?$vector@U_VECINFO@@V?$allocator@U_VECINFO@@@std@@@std@@CAXXZ ENDP ; std::vector<_VECINFO,std::allocator<_VECINFO> >::_Xlength
_TEXT	ENDS
; Function compile flags: /Ogtp
; File C:\Program Files\Microsoft Visual Studio\2022\Professional\VC\Tools\MSVC\14.44.35207\include\vector
; File C:\Program Files\Microsoft Visual Studio\2022\Professional\VC\Tools\MSVC\14.44.35207\include\xmemory
; File C:\Program Files\Microsoft Visual Studio\2022\Professional\VC\Tools\MSVC\14.44.35207\include\vector
; File C:\Program Files\Microsoft Visual Studio\2022\Professional\VC\Tools\MSVC\14.44.35207\include\xmemory
; File C:\Program Files\Microsoft Visual Studio\2022\Professional\VC\Tools\MSVC\14.44.35207\include\vector
; File C:\Program Files\Microsoft Visual Studio\2022\Professional\VC\Tools\MSVC\14.44.35207\include\xmemory
; File C:\Program Files\Microsoft Visual Studio\2022\Professional\VC\Tools\MSVC\14.44.35207\include\vector
;	COMDAT ?_Tidy@?$vector@U_VECINFO@@V?$allocator@U_VECINFO@@@std@@@std@@AAEXXZ
_TEXT	SEGMENT
?_Tidy@?$vector@U_VECINFO@@V?$allocator@U_VECINFO@@@std@@@std@@AAEXXZ PROC ; std::vector<_VECINFO,std::allocator<_VECINFO> >::_Tidy, COMDAT
; _this$ = ecx

; 2081 :     _CONSTEXPR20 void _Tidy() noexcept { // free all storage

  00000	56		 push	 esi
  00001	8b f1		 mov	 esi, ecx

; 2082 :         auto& _Al         = _Getal();
; 2083 :         auto& _My_data    = _Mypair._Myval2;
; 2084 :         pointer& _Myfirst = _My_data._Myfirst;
; 2085 :         pointer& _Mylast  = _My_data._Mylast;
; 2086 :         pointer& _Myend   = _My_data._Myend;
; 2087 : 
; 2088 :         _My_data._Orphan_all();
; 2089 : 
; 2090 :         if (_Myfirst) { // destroy and deallocate old array

  00003	8b 06		 mov	 eax, DWORD PTR [esi]
  00005	85 c0		 test	 eax, eax
  00007	74 75		 je	 SHORT $LN2@Tidy

; 2091 :             _STD _Destroy_range(_Myfirst, _Mylast, _Al);

  00009	8b 4e 04	 mov	 ecx, DWORD PTR [esi+4]
; File C:\Program Files\Microsoft Visual Studio\2022\Professional\VC\Tools\MSVC\14.44.35207\include\xmemory

; 1102 :         for (; _First != _Last; ++_First) {

  0000c	3b c1		 cmp	 eax, ecx
  0000e	74 0e		 je	 SHORT $LN7@Tidy
$LL8@Tidy:

; 1103 :             allocator_traits<_Alloc>::destroy(_Al, _STD _Unfancy(_First));

  00010	c7 40 18 00 00
	00 00		 mov	 DWORD PTR [eax+24], OFFSET ??_7CTimer@@6B@
  00017	83 c0 38	 add	 eax, 56			; 00000038H
  0001a	3b c1		 cmp	 eax, ecx
  0001c	75 f2		 jne	 SHORT $LL8@Tidy
$LN7@Tidy:
; File C:\Program Files\Microsoft Visual Studio\2022\Professional\VC\Tools\MSVC\14.44.35207\include\vector

; 2093 :             _Al.deallocate(_Myfirst, static_cast<size_type>(_Myend - _Myfirst));

  0001e	8b 4e 08	 mov	 ecx, DWORD PTR [esi+8]
  00021	b8 93 24 49 92	 mov	 eax, -1840700269	; 92492493H
  00026	57		 push	 edi
  00027	8b 3e		 mov	 edi, DWORD PTR [esi]
  00029	2b cf		 sub	 ecx, edi
  0002b	f7 e9		 imul	 ecx
  0002d	03 d1		 add	 edx, ecx
  0002f	c1 fa 05	 sar	 edx, 5
  00032	8b c2		 mov	 eax, edx
  00034	c1 e8 1f	 shr	 eax, 31			; 0000001fH
  00037	03 c2		 add	 eax, edx
; File C:\Program Files\Microsoft Visual Studio\2022\Professional\VC\Tools\MSVC\14.44.35207\include\xmemory

; 985  :         _STD _Deallocate<_New_alignof<_Ty>>(_Ptr, sizeof(_Ty) * _Count);

  00039	8d 0c c5 00 00
	00 00		 lea	 ecx, DWORD PTR [eax*8]
  00040	2b c8		 sub	 ecx, eax
  00042	c1 e1 03	 shl	 ecx, 3

; 284  :         if (_Bytes >= _Big_allocation_threshold) {

  00045	81 f9 00 10 00
	00		 cmp	 ecx, 4096		; 00001000H
  0004b	72 12		 jb	 SHORT $LN21@Tidy

; 205  :     const uintptr_t _Ptr_container   = _Ptr_user[-1];

  0004d	8b 57 fc	 mov	 edx, DWORD PTR [edi-4]
  00050	83 c1 23	 add	 ecx, 35			; 00000023H

; 206  : 
; 207  :     // If the following asserts, it likely means that we are performing
; 208  :     // an aligned delete on memory coming from an unaligned allocation.
; 209  :     _STL_ASSERT(_Ptr_user[-2] == _Big_allocation_sentinel, "invalid argument");
; 210  : 
; 211  :     // Extra paranoia on aligned allocation/deallocation; ensure _Ptr_container is
; 212  :     // in range [_Min_back_shift, _Non_user_size]
; 213  : #ifdef _DEBUG
; 214  :     constexpr uintptr_t _Min_back_shift = 2 * sizeof(void*);
; 215  : #else // ^^^ defined(_DEBUG) / !defined(_DEBUG) vvv
; 216  :     constexpr uintptr_t _Min_back_shift = sizeof(void*);
; 217  : #endif // ^^^ !defined(_DEBUG) ^^^
; 218  :     const uintptr_t _Back_shift = reinterpret_cast<uintptr_t>(_Ptr) - _Ptr_container;

  00053	2b fa		 sub	 edi, edx

; 219  :     _STL_VERIFY(_Back_shift >= _Min_back_shift && _Back_shift <= _Non_user_size, "invalid argument");

  00055	8d 47 fc	 lea	 eax, DWORD PTR [edi-4]
  00058	83 f8 1f	 cmp	 eax, 31			; 0000001fH
  0005b	77 23		 ja	 SHORT $LN20@Tidy

; 220  :     _Ptr = reinterpret_cast<void*>(_Ptr_container);

  0005d	8b fa		 mov	 edi, edx
$LN21@Tidy:

; 289  :         ::operator delete(_Ptr, _Bytes);

  0005f	51		 push	 ecx
  00060	57		 push	 edi
  00061	e8 00 00 00 00	 call	 ??3@YAXPAXI@Z		; operator delete
  00066	83 c4 08	 add	 esp, 8
; File C:\Program Files\Microsoft Visual Studio\2022\Professional\VC\Tools\MSVC\14.44.35207\include\vector

; 2095 :             _Myfirst = nullptr;

  00069	c7 06 00 00 00
	00		 mov	 DWORD PTR [esi], 0

; 2096 :             _Mylast  = nullptr;

  0006f	c7 46 04 00 00
	00 00		 mov	 DWORD PTR [esi+4], 0

; 2097 :             _Myend   = nullptr;

  00076	c7 46 08 00 00
	00 00		 mov	 DWORD PTR [esi+8], 0
  0007d	5f		 pop	 edi
$LN2@Tidy:

; 2099 :     }

  0007e	5e		 pop	 esi
  0007f	c3		 ret	 0
$LN20@Tidy:
; File C:\Program Files\Microsoft Visual Studio\2022\Professional\VC\Tools\MSVC\14.44.35207\include\xmemory

; 219  :     _STL_VERIFY(_Back_shift >= _Min_back_shift && _Back_shift <= _Non_user_size, "invalid argument");

  00080	6a 00		 push	 0
  00082	6a 00		 push	 0
  00084	6a 00		 push	 0
  00086	6a 00		 push	 0
  00088	6a 00		 push	 0
  0008a	e8 00 00 00 00	 call	 __invoke_watson
$LN33@Tidy:
  0008f	cc		 int	 3
?_Tidy@?$vector@U_VECINFO@@V?$allocator@U_VECINFO@@@std@@@std@@AAEXXZ ENDP ; std::vector<_VECINFO,std::allocator<_VECINFO> >::_Tidy
_TEXT	ENDS
; Function compile flags: /Ogtp
; File C:\Program Files\Microsoft Visual Studio\2022\Professional\VC\Tools\MSVC\14.44.35207\include\vector
; File C:\Program Files\Microsoft Visual Studio\2022\Professional\VC\Tools\MSVC\14.44.35207\include\xutility
; File C:\Program Files\Microsoft Visual Studio\2022\Professional\VC\Tools\MSVC\14.44.35207\include\vector
;	COMDAT ?push_back@?$vector@U_VECINFO@@V?$allocator@U_VECINFO@@@std@@@std@@QAEXABU_VECINFO@@@Z
_TEXT	SEGMENT
__Val$ = 8						; size = 4
?push_back@?$vector@U_VECINFO@@V?$allocator@U_VECINFO@@@std@@@std@@QAEXABU_VECINFO@@@Z PROC ; std::vector<_VECINFO,std::allocator<_VECINFO> >::push_back, COMDAT
; _this$ = ecx

; 932  :     _CONSTEXPR20 void push_back(const _Ty& _Val) { // insert element at end, provide strong guarantee

  00000	55		 push	 ebp
  00001	8b ec		 mov	 ebp, esp
  00003	56		 push	 esi
  00004	8b f1		 mov	 esi, ecx

; 844  :         if (_Mylast != _My_data._Myend) {

  00006	8b 56 04	 mov	 edx, DWORD PTR [esi+4]
  00009	3b 56 08	 cmp	 edx, DWORD PTR [esi+8]
  0000c	74 4d		 je	 SHORT $LN4@push_back
; File C:\Program Files\Microsoft Visual Studio\2022\Professional\VC\Tools\MSVC\14.44.35207\include\xutility

; 476  :         ::new (static_cast<void*>(_STD addressof(_Obj))) _Ty(_STD forward<_Types>(_Args)...);

  0000e	8b 4d 08	 mov	 ecx, DWORD PTR __Val$[ebp]
  00011	f3 0f 7e 01	 movq	 xmm0, QWORD PTR [ecx]
  00015	66 0f d6 02	 movq	 QWORD PTR [edx], xmm0
  00019	8b 41 08	 mov	 eax, DWORD PTR [ecx+8]
  0001c	89 42 08	 mov	 DWORD PTR [edx+8], eax
  0001f	8b 41 0c	 mov	 eax, DWORD PTR [ecx+12]
  00022	89 42 0c	 mov	 DWORD PTR [edx+12], eax
  00025	8b 41 10	 mov	 eax, DWORD PTR [ecx+16]
  00028	89 42 10	 mov	 DWORD PTR [edx+16], eax
  0002b	8b 41 14	 mov	 eax, DWORD PTR [ecx+20]
  0002e	89 42 14	 mov	 DWORD PTR [edx+20], eax
  00031	c7 42 18 00 00
	00 00		 mov	 DWORD PTR [edx+24], OFFSET ??_7CTimer@@6B@
  00038	f2 0f 10 41 20	 movsd	 xmm0, QWORD PTR [ecx+32]
  0003d	f2 0f 11 42 20	 movsd	 QWORD PTR [edx+32], xmm0
  00042	f2 0f 10 41 28	 movsd	 xmm0, QWORD PTR [ecx+40]
  00047	f2 0f 11 42 28	 movsd	 QWORD PTR [edx+40], xmm0
  0004c	8b 41 30	 mov	 eax, DWORD PTR [ecx+48]
  0004f	89 42 30	 mov	 DWORD PTR [edx+48], eax
; File C:\Program Files\Microsoft Visual Studio\2022\Professional\VC\Tools\MSVC\14.44.35207\include\vector

; 869  :         ++_Mylast;

  00052	83 46 04 38	 add	 DWORD PTR [esi+4], 56	; 00000038H
  00056	5e		 pop	 esi

; 933  :         _Emplace_one_at_back(_Val);
; 934  :     }

  00057	5d		 pop	 ebp
  00058	c2 04 00	 ret	 4
$LN4@push_back:

; 848  :         return *_Emplace_reallocate(_Mylast, _STD forward<_Valty>(_Val)...);

  0005b	ff 75 08	 push	 DWORD PTR __Val$[ebp]
  0005e	52		 push	 edx
  0005f	e8 00 00 00 00	 call	 ??$_Emplace_reallocate@ABU_VECINFO@@@?$vector@U_VECINFO@@V?$allocator@U_VECINFO@@@std@@@std@@AAEPAU_VECINFO@@QAU2@ABU2@@Z ; std::vector<_VECINFO,std::allocator<_VECINFO> >::_Emplace_reallocate<_VECINFO const &>
  00064	5e		 pop	 esi

; 933  :         _Emplace_one_at_back(_Val);
; 934  :     }

  00065	5d		 pop	 ebp
  00066	c2 04 00	 ret	 4
?push_back@?$vector@U_VECINFO@@V?$allocator@U_VECINFO@@@std@@@std@@QAEXABU_VECINFO@@@Z ENDP ; std::vector<_VECINFO,std::allocator<_VECINFO> >::push_back
_TEXT	ENDS
; Function compile flags: /Ogtp
; File C:\Program Files\Microsoft Visual Studio\2022\Professional\VC\Tools\MSVC\14.44.35207\include\vector
;	COMDAT ??1?$vector@U_VECINFO@@V?$allocator@U_VECINFO@@@std@@@std@@QAE@XZ
_TEXT	SEGMENT
??1?$vector@U_VECINFO@@V?$allocator@U_VECINFO@@@std@@@std@@QAE@XZ PROC ; std::vector<_VECINFO,std::allocator<_VECINFO> >::~vector<_VECINFO,std::allocator<_VECINFO> >, COMDAT
; _this$ = ecx

; 830  :         _Tidy();

  00000	e9 00 00 00 00	 jmp	 ?_Tidy@?$vector@U_VECINFO@@V?$allocator@U_VECINFO@@@std@@@std@@AAEXXZ ; std::vector<_VECINFO,std::allocator<_VECINFO> >::_Tidy
??1?$vector@U_VECINFO@@V?$allocator@U_VECINFO@@@std@@@std@@QAE@XZ ENDP ; std::vector<_VECINFO,std::allocator<_VECINFO> >::~vector<_VECINFO,std::allocator<_VECINFO> >
_TEXT	ENDS
; Function compile flags: /Ogtp
; File C:\Program Files\Microsoft Visual Studio\2022\Professional\VC\Tools\MSVC\14.44.35207\include\vector
; File C:\Program Files\Microsoft Visual Studio\2022\Professional\VC\Tools\MSVC\14.44.35207\include\xmemory
; File C:\Program Files\Microsoft Visual Studio\2022\Professional\VC\Tools\MSVC\14.44.35207\include\vector
; File C:\Program Files\Microsoft Visual Studio\2022\Professional\VC\Tools\MSVC\14.44.35207\include\xmemory
; File C:\Program Files\Microsoft Visual Studio\2022\Professional\VC\Tools\MSVC\14.44.35207\include\vector
; File C:\Program Files\Microsoft Visual Studio\2022\Professional\VC\Tools\MSVC\14.44.35207\include\xmemory
; File C:\Program Files\Microsoft Visual Studio\2022\Professional\VC\Tools\MSVC\14.44.35207\include\vector
; File C:\Program Files\Microsoft Visual Studio\2022\Professional\VC\Tools\MSVC\14.44.35207\include\xmemory
; File C:\Program Files\Microsoft Visual Studio\2022\Professional\VC\Tools\MSVC\14.44.35207\include\vector
;	COMDAT ??0?$vector@U_VECINFO@@V?$allocator@U_VECINFO@@@std@@@std@@QAE@ABV01@@Z
_TEXT	SEGMENT
__Right$ = 8						; size = 4
??0?$vector@U_VECINFO@@V?$allocator@U_VECINFO@@@std@@@std@@QAE@ABV01@@Z PROC ; std::vector<_VECINFO,std::allocator<_VECINFO> >::vector<_VECINFO,std::allocator<_VECINFO> >, COMDAT
; _this$ = ecx

; 746  :         : _Mypair(_One_then_variadic_args_t{}, _Alty_traits::select_on_container_copy_construction(_Right._Getal())) {

  00000	55		 push	 ebp
  00001	8b ec		 mov	 ebp, esp

; 747  :         const auto& _Right_data = _Right._Mypair._Myval2;
; 748  :         const auto _Count       = static_cast<size_type>(_Right_data._Mylast - _Right_data._Myfirst);

  00003	8b 45 08	 mov	 eax, DWORD PTR __Right$[ebp]
  00006	53		 push	 ebx
  00007	8b d9		 mov	 ebx, ecx

; 400  :     _CONSTEXPR20 _Vector_val() noexcept : _Myfirst(), _Mylast(), _Myend() {}

  00009	c7 03 00 00 00
	00		 mov	 DWORD PTR [ebx], 0
  0000f	c7 43 04 00 00
	00 00		 mov	 DWORD PTR [ebx+4], 0
  00016	c7 43 08 00 00
	00 00		 mov	 DWORD PTR [ebx+8], 0

; 747  :         const auto& _Right_data = _Right._Mypair._Myval2;
; 748  :         const auto _Count       = static_cast<size_type>(_Right_data._Mylast - _Right_data._Myfirst);

  0001d	8b 48 04	 mov	 ecx, DWORD PTR [eax+4]
  00020	2b 08		 sub	 ecx, DWORD PTR [eax]
  00022	b8 93 24 49 92	 mov	 eax, -1840700269	; 92492493H
  00027	f7 e9		 imul	 ecx
  00029	03 d1		 add	 edx, ecx
  0002b	c1 fa 05	 sar	 edx, 5
  0002e	8b c2		 mov	 eax, edx
  00030	c1 e8 1f	 shr	 eax, 31			; 0000001fH
  00033	03 c2		 add	 eax, edx

; 2111 :         if (_Count != 0) {

  00035	0f 84 a8 00 00
	00		 je	 $LN67@vector

; 2051 :         if (_Newcapacity > max_size()) {

  0003b	3d 24 49 92 04	 cmp	 eax, 76695844		; 04924924H
  00040	0f 87 a4 00 00
	00		 ja	 $LN87@vector
  00046	56		 push	 esi
  00047	57		 push	 edi
; File C:\Program Files\Microsoft Visual Studio\2022\Professional\VC\Tools\MSVC\14.44.35207\include\xmemory

; 122  :     return _Count * _Ty_size;

  00048	8d 3c c5 00 00
	00 00		 lea	 edi, DWORD PTR [eax*8]
  0004f	2b f8		 sub	 edi, eax
  00051	c1 e7 03	 shl	 edi, 3

; 227  :     if (_Bytes == 0) {

  00054	85 ff		 test	 edi, edi
  00056	75 04		 jne	 SHORT $LN27@vector

; 228  :         return nullptr;

  00058	33 f6		 xor	 esi, esi
  0005a	eb 1a		 jmp	 SHORT $LN26@vector
$LN27@vector:

; 229  :     }
; 230  : 
; 231  : #if _HAS_CXX20 // TRANSITION, GH-1532
; 232  :     if (_STD is_constant_evaluated()) {
; 233  :         return _Traits::_Allocate(_Bytes);
; 234  :     }
; 235  : #endif // _HAS_CXX20
; 236  : 
; 237  : #ifdef __cpp_aligned_new
; 238  :     if constexpr (_Align > __STDCPP_DEFAULT_NEW_ALIGNMENT__) {
; 239  :         size_t _Passed_align = _Align;
; 240  : #if defined(_M_IX86) || defined(_M_X64)
; 241  :         if (_Bytes >= _Big_allocation_threshold) {
; 242  :             // boost the alignment of big allocations to help autovectorization
; 243  :             _Passed_align = (_STD max)(_Align, _Big_allocation_alignment);
; 244  :         }
; 245  : #endif // defined(_M_IX86) || defined(_M_X64)
; 246  :         return _Traits::_Allocate_aligned(_Bytes, _Passed_align);
; 247  :     } else
; 248  : #endif // defined(__cpp_aligned_new)
; 249  :     {
; 250  : #if defined(_M_IX86) || defined(_M_X64)
; 251  :         if (_Bytes >= _Big_allocation_threshold) {

  0005c	57		 push	 edi
  0005d	81 ff 00 10 00
	00		 cmp	 edi, 4096		; 00001000H
  00063	72 07		 jb	 SHORT $LN28@vector

; 252  :             // boost the alignment of big allocations to help autovectorization
; 253  :             return _Allocate_manually_vector_aligned<_Traits>(_Bytes);

  00065	e8 00 00 00 00	 call	 ??$_Allocate_manually_vector_aligned@U_Default_allocate_traits@std@@@std@@YAPAXI@Z ; std::_Allocate_manually_vector_aligned<std::_Default_allocate_traits>
  0006a	eb 05		 jmp	 SHORT $LN85@vector
$LN28@vector:

; 136  :         return ::operator new(_Bytes);

  0006c	e8 00 00 00 00	 call	 ??2@YAPAXI@Z		; operator new
$LN85@vector:
; File C:\Program Files\Microsoft Visual Studio\2022\Professional\VC\Tools\MSVC\14.44.35207\include\vector

; 2035 :         _Myfirst              = _Newvec;

  00071	8b f0		 mov	 esi, eax
  00073	83 c4 04	 add	 esp, 4
$LN26@vector:
  00076	89 33		 mov	 DWORD PTR [ebx], esi

; 2036 :         _Mylast               = _Newvec;
; 2037 :         _Myend                = _Newvec + _Newcapacity;

  00078	8d 04 37	 lea	 eax, DWORD PTR [edi+esi]
  0007b	89 73 04	 mov	 DWORD PTR [ebx+4], esi
  0007e	89 43 08	 mov	 DWORD PTR [ebx+8], eax
; File C:\Program Files\Microsoft Visual Studio\2022\Professional\VC\Tools\MSVC\14.44.35207\include\xmemory

; 1877 :     auto _ULast  = _STD _Get_unwrapped(_STD move(_Last));

  00081	8b 45 08	 mov	 eax, DWORD PTR __Right$[ebp]
  00084	8b 78 04	 mov	 edi, DWORD PTR [eax+4]
; File C:\Program Files\Microsoft Visual Studio\2022\Professional\VC\Tools\MSVC\14.44.35207\include\vector

; 2034 :         const pointer _Newvec = _STD _Allocate_at_least_helper(_Getal(), _Newcapacity);

  00087	8b 08		 mov	 ecx, DWORD PTR [eax]
; File C:\Program Files\Microsoft Visual Studio\2022\Professional\VC\Tools\MSVC\14.44.35207\include\xmemory

; 1901 :     for (; _UFirst != _ULast; ++_UFirst) {

  00089	3b cf		 cmp	 ecx, edi
  0008b	74 51		 je	 SHORT $LN38@vector
; File C:\Program Files\Microsoft Visual Studio\2022\Professional\VC\Tools\MSVC\14.44.35207\include\vector

; 2035 :         _Myfirst              = _Newvec;

  0008d	8d 56 28	 lea	 edx, DWORD PTR [esi+40]
$LL39@vector:
  00090	f3 0f 7e 01	 movq	 xmm0, QWORD PTR [ecx]
; File C:\Program Files\Microsoft Visual Studio\2022\Professional\VC\Tools\MSVC\14.44.35207\include\xmemory

; 1845 :         ++_Last;

  00094	8d 52 38	 lea	 edx, DWORD PTR [edx+56]
  00097	66 0f d6 06	 movq	 QWORD PTR [esi], xmm0
  0009b	8b 41 08	 mov	 eax, DWORD PTR [ecx+8]
  0009e	89 46 08	 mov	 DWORD PTR [esi+8], eax
  000a1	83 c6 38	 add	 esi, 56			; 00000038H
  000a4	8b 41 0c	 mov	 eax, DWORD PTR [ecx+12]
  000a7	89 42 ac	 mov	 DWORD PTR [edx-84], eax
  000aa	8b 41 10	 mov	 eax, DWORD PTR [ecx+16]
  000ad	89 42 b0	 mov	 DWORD PTR [edx-80], eax
  000b0	8b 41 14	 mov	 eax, DWORD PTR [ecx+20]
  000b3	89 42 b4	 mov	 DWORD PTR [edx-76], eax
  000b6	c7 42 b8 00 00
	00 00		 mov	 DWORD PTR [edx-72], OFFSET ??_7CTimer@@6B@
  000bd	f2 0f 10 41 20	 movsd	 xmm0, QWORD PTR [ecx+32]
  000c2	f2 0f 11 42 c0	 movsd	 QWORD PTR [edx-64], xmm0
  000c7	f2 0f 10 41 28	 movsd	 xmm0, QWORD PTR [ecx+40]
  000cc	f2 0f 11 42 c8	 movsd	 QWORD PTR [edx-56], xmm0
  000d1	8b 41 30	 mov	 eax, DWORD PTR [ecx+48]

; 1901 :     for (; _UFirst != _ULast; ++_UFirst) {

  000d4	83 c1 38	 add	 ecx, 56			; 00000038H
  000d7	89 42 d0	 mov	 DWORD PTR [edx-48], eax
  000da	3b cf		 cmp	 ecx, edi
  000dc	75 b2		 jne	 SHORT $LL39@vector
$LN38@vector:
; File C:\Program Files\Microsoft Visual Studio\2022\Professional\VC\Tools\MSVC\14.44.35207\include\vector

; 2120 :                 _My_data._Mylast = _STD _Uninitialized_copy(_STD forward<_Valty>(_Val)..., _My_data._Myfirst, _Al);

  000de	5f		 pop	 edi
  000df	89 73 04	 mov	 DWORD PTR [ebx+4], esi
  000e2	5e		 pop	 esi
$LN67@vector:

; 749  :         _Construct_n(_Count, _Right_data._Myfirst, _Right_data._Mylast);
; 750  :     }

  000e3	8b c3		 mov	 eax, ebx
  000e5	5b		 pop	 ebx
  000e6	5d		 pop	 ebp
  000e7	c2 04 00	 ret	 4
$LN87@vector:

; 2052 :             _Xlength();

  000ea	e8 00 00 00 00	 call	 ?_Xlength@?$vector@U_VECINFO@@V?$allocator@U_VECINFO@@@std@@@std@@CAXXZ ; std::vector<_VECINFO,std::allocator<_VECINFO> >::_Xlength
$LN84@vector:
  000ef	cc		 int	 3
??0?$vector@U_VECINFO@@V?$allocator@U_VECINFO@@@std@@@std@@QAE@ABV01@@Z ENDP ; std::vector<_VECINFO,std::allocator<_VECINFO> >::vector<_VECINFO,std::allocator<_VECINFO> >
_TEXT	ENDS
; Function compile flags: /Ogtp
;	COMDAT ??__FsMailBox@?1??GetInstance@CPatrolPath@@SAPAV1@XZ@YAXXZ
text$yd	SEGMENT
??__FsMailBox@?1??GetInstance@CPatrolPath@@SAPAV1@XZ@YAXXZ PROC ; `CPatrolPath::GetInstance'::`2'::`dynamic atexit destructor for 'sMailBox'', COMDAT
  00000	b9 00 00 00 00	 mov	 ecx, OFFSET ?sMailBox@?1??GetInstance@CPatrolPath@@SAPAV2@XZ@4V2@A
  00005	e9 00 00 00 00	 jmp	 ??1CPatrolPath@@QAE@XZ	; CPatrolPath::~CPatrolPath
??__FsMailBox@?1??GetInstance@CPatrolPath@@SAPAV1@XZ@YAXXZ ENDP ; `CPatrolPath::GetInstance'::`2'::`dynamic atexit destructor for 'sMailBox''
text$yd	ENDS
; Function compile flags: /Ogtp
; File C:\Program Files\Microsoft Visual Studio\2022\Professional\VC\Tools\MSVC\14.44.35207\include\xmemory
;	COMDAT ??$_Allocate_manually_vector_aligned@U_Default_allocate_traits@std@@@std@@YAPAXI@Z
_TEXT	SEGMENT
__Bytes$ = 8						; size = 4
??$_Allocate_manually_vector_aligned@U_Default_allocate_traits@std@@@std@@YAPAXI@Z PROC ; std::_Allocate_manually_vector_aligned<std::_Default_allocate_traits>, COMDAT

; 182  : __declspec(allocator) void* _Allocate_manually_vector_aligned(const size_t _Bytes) {

  00000	55		 push	 ebp
  00001	8b ec		 mov	 ebp, esp

; 183  :     // allocate _Bytes manually aligned to at least _Big_allocation_alignment
; 184  :     const size_t _Block_size = _Non_user_size + _Bytes;

  00003	8b 45 08	 mov	 eax, DWORD PTR __Bytes$[ebp]
  00006	8d 48 23	 lea	 ecx, DWORD PTR [eax+35]

; 185  :     if (_Block_size <= _Bytes) {

  00009	3b c8		 cmp	 ecx, eax
  0000b	0f 86 00 00 00
	00		 jbe	 ?_Throw_bad_array_new_length@std@@YAXXZ ; std::_Throw_bad_array_new_length

; 136  :         return ::operator new(_Bytes);

  00011	51		 push	 ecx
  00012	e8 00 00 00 00	 call	 ??2@YAPAXI@Z		; operator new

; 186  :         _Throw_bad_array_new_length(); // add overflow
; 187  :     }
; 188  : 
; 189  :     const uintptr_t _Ptr_container = reinterpret_cast<uintptr_t>(_Traits::_Allocate(_Block_size));

  00017	8b c8		 mov	 ecx, eax

; 136  :         return ::operator new(_Bytes);

  00019	83 c4 04	 add	 esp, 4

; 190  :     _STL_VERIFY(_Ptr_container != 0, "invalid argument"); // validate even in release since we're doing p[-1]

  0001c	85 c9		 test	 ecx, ecx
  0001e	74 0b		 je	 SHORT $LN9@Allocate_m

; 191  :     void* const _Ptr = reinterpret_cast<void*>((_Ptr_container + _Non_user_size) & ~(_Big_allocation_alignment - 1));

  00020	8d 41 23	 lea	 eax, DWORD PTR [ecx+35]
  00023	83 e0 e0	 and	 eax, -32		; ffffffe0H

; 192  :     static_cast<uintptr_t*>(_Ptr)[-1] = _Ptr_container;

  00026	89 48 fc	 mov	 DWORD PTR [eax-4], ecx

; 193  : 
; 194  : #ifdef _DEBUG
; 195  :     static_cast<uintptr_t*>(_Ptr)[-2] = _Big_allocation_sentinel;
; 196  : #endif // defined(_DEBUG)
; 197  :     return _Ptr;
; 198  : }

  00029	5d		 pop	 ebp
  0002a	c3		 ret	 0
$LN9@Allocate_m:

; 190  :     _STL_VERIFY(_Ptr_container != 0, "invalid argument"); // validate even in release since we're doing p[-1]

  0002b	6a 00		 push	 0
  0002d	6a 00		 push	 0
  0002f	6a 00		 push	 0
  00031	6a 00		 push	 0
  00033	6a 00		 push	 0
  00035	e8 00 00 00 00	 call	 __invoke_watson
$LN7@Allocate_m:
  0003a	cc		 int	 3
??$_Allocate_manually_vector_aligned@U_Default_allocate_traits@std@@@std@@YAPAXI@Z ENDP ; std::_Allocate_manually_vector_aligned<std::_Default_allocate_traits>
_TEXT	ENDS
; Function compile flags: /Ogtp
; File C:\Program Files\Microsoft Visual Studio\2022\Professional\VC\Tools\MSVC\14.44.35207\include\xtree
; File C:\Program Files\Microsoft Visual Studio\2022\Professional\VC\Tools\MSVC\14.44.35207\include\utility
; File C:\Program Files\Microsoft Visual Studio\2022\Professional\VC\Tools\MSVC\14.44.35207\include\xmemory
; File C:\Program Files\Microsoft Visual Studio\2022\Professional\VC\Tools\MSVC\14.44.35207\include\xtree
;	COMDAT ??$_Erase_tree@V?$allocator@U?$_Tree_node@U?$pair@$$CBKH@std@@PAX@std@@@std@@@?$_Tree_val@U?$_Tree_simple_types@U?$pair@$$CBKH@std@@@std@@@std@@QAEXAAV?$allocator@U?$_Tree_node@U?$pair@$$CBKH@std@@PAX@std@@@1@PAU?$_Tree_node@U?$pair@$$CBKH@std@@PAX@1@@Z
_TEXT	SEGMENT
__Al$ = 8						; size = 4
__Rootnode$ = 12					; size = 4
??$_Erase_tree@V?$allocator@U?$_Tree_node@U?$pair@$$CBKH@std@@PAX@std@@@std@@@?$_Tree_val@U?$_Tree_simple_types@U?$pair@$$CBKH@std@@@std@@@std@@QAEXAAV?$allocator@U?$_Tree_node@U?$pair@$$CBKH@std@@PAX@std@@@1@PAU?$_Tree_node@U?$pair@$$CBKH@std@@PAX@1@@Z PROC ; std::_Tree_val<std::_Tree_simple_types<std::pair<unsigned long const ,int> > >::_Erase_tree<std::allocator<std::_Tree_node<std::pair<unsigned long const ,int>,void *> > >, COMDAT
; _this$ = ecx

; 767  :     void _Erase_tree(_Alnode& _Al, _Nodeptr _Rootnode) noexcept {

  00000	55		 push	 ebp
  00001	8b ec		 mov	 ebp, esp
  00003	53		 push	 ebx
  00004	56		 push	 esi

; 768  :         while (!_Rootnode->_Isnil) { // free subtrees, then node

  00005	8b 75 0c	 mov	 esi, DWORD PTR __Rootnode$[ebp]
  00008	8b d9		 mov	 ebx, ecx
  0000a	80 7e 0d 00	 cmp	 BYTE PTR [esi+13], 0
  0000e	75 25		 jne	 SHORT $LN34@Erase_tree
  00010	57		 push	 edi
  00011	8b 7d 08	 mov	 edi, DWORD PTR __Al$[ebp]
$LL2@Erase_tree:

; 769  :             _Erase_tree(_Al, _Rootnode->_Right);

  00014	ff 76 08	 push	 DWORD PTR [esi+8]
  00017	8b cb		 mov	 ecx, ebx
  00019	57		 push	 edi
  0001a	e8 00 00 00 00	 call	 ??$_Erase_tree@V?$allocator@U?$_Tree_node@U?$pair@$$CBKH@std@@PAX@std@@@std@@@?$_Tree_val@U?$_Tree_simple_types@U?$pair@$$CBKH@std@@@std@@@std@@QAEXAAV?$allocator@U?$_Tree_node@U?$pair@$$CBKH@std@@PAX@std@@@1@PAU?$_Tree_node@U?$pair@$$CBKH@std@@PAX@1@@Z ; std::_Tree_val<std::_Tree_simple_types<std::pair<unsigned long const ,int> > >::_Erase_tree<std::allocator<std::_Tree_node<std::pair<unsigned long const ,int>,void *> > >
; File C:\Program Files\Microsoft Visual Studio\2022\Professional\VC\Tools\MSVC\14.44.35207\include\utility

; 773  :     _Ty _Old_val = static_cast<_Ty&&>(_Val);

  0001f	8b c6		 mov	 eax, esi

; 774  :     _Val         = static_cast<_Other&&>(_New_val);

  00021	8b 36		 mov	 esi, DWORD PTR [esi]
; File C:\Program Files\Microsoft Visual Studio\2022\Professional\VC\Tools\MSVC\14.44.35207\include\xmemory

; 289  :         ::operator delete(_Ptr, _Bytes);

  00023	6a 18		 push	 24			; 00000018H
  00025	50		 push	 eax
  00026	e8 00 00 00 00	 call	 ??3@YAXPAXI@Z		; operator delete
  0002b	83 c4 08	 add	 esp, 8
; File C:\Program Files\Microsoft Visual Studio\2022\Professional\VC\Tools\MSVC\14.44.35207\include\xtree

; 768  :         while (!_Rootnode->_Isnil) { // free subtrees, then node

  0002e	80 7e 0d 00	 cmp	 BYTE PTR [esi+13], 0
  00032	74 e0		 je	 SHORT $LL2@Erase_tree
  00034	5f		 pop	 edi
$LN34@Erase_tree:
  00035	5e		 pop	 esi

; 770  :             _Alnode::value_type::_Freenode(_Al, _STD exchange(_Rootnode, _Rootnode->_Left));
; 771  :         }
; 772  :     }

  00036	5b		 pop	 ebx
  00037	5d		 pop	 ebp
  00038	c2 08 00	 ret	 8
??$_Erase_tree@V?$allocator@U?$_Tree_node@U?$pair@$$CBKH@std@@PAX@std@@@std@@@?$_Tree_val@U?$_Tree_simple_types@U?$pair@$$CBKH@std@@@std@@@std@@QAEXAAV?$allocator@U?$_Tree_node@U?$pair@$$CBKH@std@@PAX@std@@@1@PAU?$_Tree_node@U?$pair@$$CBKH@std@@PAX@1@@Z ENDP ; std::_Tree_val<std::_Tree_simple_types<std::pair<unsigned long const ,int> > >::_Erase_tree<std::allocator<std::_Tree_node<std::pair<unsigned long const ,int>,void *> > >
_TEXT	ENDS
; Function compile flags: /Ogtp
; File C:\IAGOS\server\v18\Source\Source\_Common\PathObj.cpp
; File C:\Program Files\Microsoft Visual Studio\2022\Professional\VC\Tools\MSVC\14.44.35207\include\xtree
; File C:\IAGOS\server\v18\Source\Source\_Common\PathObj.cpp
; File C:\Program Files\Microsoft Visual Studio\2022\Professional\VC\Tools\MSVC\14.44.35207\include\xtree
; File C:\Program Files\Microsoft Visual Studio\2022\Professional\VC\Tools\MSVC\14.44.35207\include\type_traits
; File C:\Program Files\Microsoft Visual Studio\2022\Professional\VC\Tools\MSVC\14.44.35207\include\xtree
; File C:\IAGOS\server\v18\Source\Source\_Common\PathObj.cpp
; File C:\Program Files\Microsoft Visual Studio\2022\Professional\VC\Tools\MSVC\14.44.35207\include\vector
; File C:\IAGOS\server\v18\Source\Source\_Common\PathObj.cpp
; File C:\Program Files\Microsoft Visual Studio\2022\Professional\VC\Tools\MSVC\14.44.35207\include\vector
; File C:\IAGOS\server\v18\Source\Source\_Common\PathObj.cpp
; File C:\IAGOS\server\v18\Source\Source\DX_SDK\d3dx9math.inl
; File C:\IAGOS\server\v18\Source\Source\_Common\PathObj.cpp
; File C:\IAGOS\server\v18\Source\Source\DX_SDK\d3dx9math.inl
; File C:\IAGOS\server\v18\Source\Source\_Common\PathObj.cpp
; File C:\Program Files\Microsoft Visual Studio\2022\Professional\VC\Tools\MSVC\14.44.35207\include\vector
; File C:\IAGOS\server\v18\Source\Source\_Common\PathObj.cpp
; File C:\Program Files\Microsoft Visual Studio\2022\Professional\VC\Tools\MSVC\14.44.35207\include\vector
; File C:\IAGOS\server\v18\Source\Source\_Common\PathObj.cpp
; File C:\Program Files\Microsoft Visual Studio\2022\Professional\VC\Tools\MSVC\14.44.35207\include\vector
; File C:\IAGOS\server\v18\Source\Source\_Common\PathObj.cpp
; File C:\Program Files\Microsoft Visual Studio\2022\Professional\VC\Tools\MSVC\14.44.35207\include\vector
; File C:\IAGOS\server\v18\Source\Source\_Common\PathObj.cpp
; File C:\Program Files\Microsoft Visual Studio\2022\Professional\VC\Tools\MSVC\14.44.35207\include\vector
; File C:\IAGOS\server\v18\Source\Source\_Common\PathObj.cpp
; File C:\Program Files\Microsoft Visual Studio\2022\Professional\VC\Tools\MSVC\14.44.35207\include\vector
; File C:\IAGOS\server\v18\Source\Source\_Common\PathObj.cpp
; File C:\Program Files\Microsoft Visual Studio\2022\Professional\VC\Tools\MSVC\14.44.35207\include\vector
; File C:\IAGOS\server\v18\Source\Source\_Common\PathObj.cpp
; File C:\Program Files\Microsoft Visual Studio\2022\Professional\VC\Tools\MSVC\14.44.35207\include\vector
; File C:\IAGOS\server\v18\Source\Source\_Common\PathObj.cpp
; File C:\Program Files\Microsoft Visual Studio\2022\Professional\VC\Tools\MSVC\14.44.35207\include\vector
; File C:\IAGOS\server\v18\Source\Source\_Common\PathObj.cpp
;	COMDAT ?GetNextPosInfo@CPatrolPath@@QAEXPAVCObj@@UD3DXVECTOR3@@AAU3@AAU_VECINFO@@@Z
_TEXT	SEGMENT
__vecinfoTemp$ = -28					; size = 12
__Loc$1 = -28						; size = 12
_v3Dir$ = -16						; size = 12
_this$1$ = -4						; size = 4
_pObj$ = 8						; size = 4
_vPos$ = 12						; size = 12
_vDest$ = 24						; size = 4
tv919 = 27						; size = 1
__vecInfo$ = 28						; size = 4
__vecinfoTemp$1$ = 28					; size = 4
?GetNextPosInfo@CPatrolPath@@QAEXPAVCObj@@UD3DXVECTOR3@@AAU3@AAU_VECINFO@@@Z PROC ; CPatrolPath::GetNextPosInfo, COMDAT
; _this$ = ecx

; 56   : {

  00000	55		 push	 ebp
  00001	8b ec		 mov	 ebp, esp
  00003	83 ec 1c	 sub	 esp, 28			; 0000001cH
  00006	56		 push	 esi
  00007	8b 75 1c	 mov	 esi, DWORD PTR __vecInfo$[ebp]
  0000a	8b c1		 mov	 eax, ecx
  0000c	57		 push	 edi

; 57   : 	map< DWORD, vector<_VECINFO> >::iterator it1 = m_mapPatrolPath.find( pObj->m_dwPatrolIndex );

  0000d	8b 7d 08	 mov	 edi, DWORD PTR _pObj$[ebp]
; File C:\Program Files\Microsoft Visual Studio\2022\Professional\VC\Tools\MSVC\14.44.35207\include\xtree

; 1384 :         const _Tree_find_result<_Nodeptr> _Loc = _Find_lower_bound(_Keyval);

  00010	8d 4d e4	 lea	 ecx, DWORD PTR __Loc$1[ebp]
; File C:\IAGOS\server\v18\Source\Source\_Common\PathObj.cpp

; 57   : 	map< DWORD, vector<_VECINFO> >::iterator it1 = m_mapPatrolPath.find( pObj->m_dwPatrolIndex );

  00013	81 c7 94 01 00
	00		 add	 edi, 404		; 00000194H
  00019	89 45 fc	 mov	 DWORD PTR _this$1$[ebp], eax
; File C:\Program Files\Microsoft Visual Studio\2022\Professional\VC\Tools\MSVC\14.44.35207\include\xtree

; 1384 :         const _Tree_find_result<_Nodeptr> _Loc = _Find_lower_bound(_Keyval);

  0001c	57		 push	 edi
  0001d	51		 push	 ecx
  0001e	8b c8		 mov	 ecx, eax
  00020	e8 00 00 00 00	 call	 ??$_Find_lower_bound@K@?$_Tree@V?$_Tmap_traits@KV?$vector@U_VECINFO@@V?$allocator@U_VECINFO@@@std@@@std@@U?$less@K@2@V?$allocator@U?$pair@$$CBKV?$vector@U_VECINFO@@V?$allocator@U_VECINFO@@@std@@@std@@@std@@@2@$0A@@std@@@std@@IBE?AU?$_Tree_find_result@PAU?$_Tree_node@U?$pair@$$CBKV?$vector@U_VECINFO@@V?$allocator@U_VECINFO@@@std@@@std@@@std@@PAX@std@@@1@ABK@Z ; std::_Tree<std::_Tmap_traits<unsigned long,std::vector<_VECINFO,std::allocator<_VECINFO> >,std::less<unsigned long>,std::allocator<std::pair<unsigned long const ,std::vector<_VECINFO,std::allocator<_VECINFO> > > >,0> >::_Find_lower_bound<unsigned long>

; 1624 :         return !_Bound->_Isnil && !_DEBUG_LT_PRED(_Getcomp(), _Keyval, _Traits::_Kfn(_Bound->_Myval));

  00025	8b 4d ec	 mov	 ecx, DWORD PTR __Loc$1[ebp+8]
  00028	80 79 0d 00	 cmp	 BYTE PTR [ecx+13], 0
  0002c	0f 85 b9 01 00
	00		 jne	 $LN20@GetNextPos
; File C:\Program Files\Microsoft Visual Studio\2022\Professional\VC\Tools\MSVC\14.44.35207\include\type_traits

; 2380 :         return _Left < _Right;

  00032	8b 07		 mov	 eax, DWORD PTR [edi]
  00034	3b 41 10	 cmp	 eax, DWORD PTR [ecx+16]
; File C:\Program Files\Microsoft Visual Studio\2022\Professional\VC\Tools\MSVC\14.44.35207\include\xtree

; 1624 :         return !_Bound->_Isnil && !_DEBUG_LT_PRED(_Getcomp(), _Keyval, _Traits::_Kfn(_Bound->_Myval));

  00037	0f 82 ae 01 00
	00		 jb	 $LN20@GetNextPos

; 37   :     _Tree_unchecked_const_iterator(_Nodeptr _Pnode, const _Mytree* _Plist) noexcept : _Ptr(_Pnode) {

  0003d	8b 45 fc	 mov	 eax, DWORD PTR _this$1$[ebp]
  00040	3b 08		 cmp	 ecx, DWORD PTR [eax]
; File C:\IAGOS\server\v18\Source\Source\_Common\PathObj.cpp

; 59   : 	if( it1 == m_mapPatrolPath.end() )

  00042	0f 84 a3 01 00
	00		 je	 $LN20@GetNextPos

; 66   : 
; 67   : 		return;
; 68   : 	}
; 69   : 
; 70   : 	vector<_VECINFO> _vecinfoTemp = it1->second;

  00048	8d 41 14	 lea	 eax, DWORD PTR [ecx+20]
  0004b	50		 push	 eax
  0004c	8d 4d e4	 lea	 ecx, DWORD PTR __vecinfoTemp$[ebp]
  0004f	e8 00 00 00 00	 call	 ??0?$vector@U_VECINFO@@V?$allocator@U_VECINFO@@@std@@@std@@QAE@ABV01@@Z ; std::vector<_VECINFO,std::allocator<_VECINFO> >::vector<_VECINFO,std::allocator<_VECINFO> >

; 72   : 	D3DXVECTOR3	v3Dir = _vecinfoTemp[pObj->m_nPatrolIndexCount].m_vDir;

  00054	8b 55 08	 mov	 edx, DWORD PTR _pObj$[ebp]
; File C:\Program Files\Microsoft Visual Studio\2022\Professional\VC\Tools\MSVC\14.44.35207\include\vector

; 1934 :         return _My_data._Myfirst[_Pos];

  00057	8b 82 98 01 00
	00		 mov	 eax, DWORD PTR [edx+408]
; File C:\IAGOS\server\v18\Source\Source\_Common\PathObj.cpp

; 72   : 	D3DXVECTOR3	v3Dir = _vecinfoTemp[pObj->m_nPatrolIndexCount].m_vDir;

  0005d	8d ba 98 01 00
	00		 lea	 edi, DWORD PTR [edx+408]
; File C:\Program Files\Microsoft Visual Studio\2022\Professional\VC\Tools\MSVC\14.44.35207\include\vector

; 1934 :         return _My_data._Myfirst[_Pos];

  00063	8d 0c c5 00 00
	00 00		 lea	 ecx, DWORD PTR [eax*8]
  0006a	2b c8		 sub	 ecx, eax
; File C:\IAGOS\server\v18\Source\Source\_Common\PathObj.cpp

; 72   : 	D3DXVECTOR3	v3Dir = _vecinfoTemp[pObj->m_nPatrolIndexCount].m_vDir;

  0006c	8b 45 e4	 mov	 eax, DWORD PTR __vecinfoTemp$[ebp]
  0006f	89 45 1c	 mov	 DWORD PTR __vecinfoTemp$1$[ebp], eax
  00072	f3 0f 7e 04 c8	 movq	 xmm0, QWORD PTR [eax+ecx*8]
  00077	8b 44 c8 08	 mov	 eax, DWORD PTR [eax+ecx*8+8]
  0007b	89 45 f8	 mov	 DWORD PTR _v3Dir$[ebp+8], eax

; 73   : 	FLOAT fLength = _vecinfoTemp[pObj->m_nPatrolIndexCount].m_fLength;

  0007e	8b 45 1c	 mov	 eax, DWORD PTR __vecinfoTemp$1$[ebp]
  00081	66 0f d6 45 f0	 movq	 QWORD PTR _v3Dir$[ebp], xmm0

; 74   : 				
; 75   : 	_vecInfo = _vecinfoTemp[pObj->m_nPatrolIndexCount];
; 76   : 
; 77   : 	if( pObj->m_bPatrolReverse == 0 )

  00086	f3 0f 10 4d f0	 movss	 xmm1, DWORD PTR _v3Dir$[ebp]
  0008b	f3 0f 10 55 f4	 movss	 xmm2, DWORD PTR _v3Dir$[ebp+4]
  00090	f3 0f 7e 04 c8	 movq	 xmm0, QWORD PTR [eax+ecx*8]
  00095	f3 0f 10 64 c8
	0c		 movss	 xmm4, DWORD PTR [eax+ecx*8+12]
  0009b	66 0f d6 06	 movq	 QWORD PTR [esi], xmm0
  0009f	8b 44 c8 08	 mov	 eax, DWORD PTR [eax+ecx*8+8]
  000a3	89 46 08	 mov	 DWORD PTR [esi+8], eax
  000a6	8b 45 1c	 mov	 eax, DWORD PTR __vecinfoTemp$1$[ebp]
  000a9	f3 0f 10 5d f8	 movss	 xmm3, DWORD PTR _v3Dir$[ebp+8]
  000ae	8b 44 c8 0c	 mov	 eax, DWORD PTR [eax+ecx*8+12]
  000b2	89 46 0c	 mov	 DWORD PTR [esi+12], eax
  000b5	8b 45 1c	 mov	 eax, DWORD PTR __vecinfoTemp$1$[ebp]
  000b8	8b 44 c8 10	 mov	 eax, DWORD PTR [eax+ecx*8+16]
  000bc	89 46 10	 mov	 DWORD PTR [esi+16], eax
  000bf	8b 45 1c	 mov	 eax, DWORD PTR __vecinfoTemp$1$[ebp]
  000c2	8b 44 c8 14	 mov	 eax, DWORD PTR [eax+ecx*8+20]
  000c6	89 46 14	 mov	 DWORD PTR [esi+20], eax
  000c9	8b 45 1c	 mov	 eax, DWORD PTR __vecinfoTemp$1$[ebp]
  000cc	f2 0f 10 44 c8
	20		 movsd	 xmm0, QWORD PTR [eax+ecx*8+32]
  000d2	f2 0f 11 46 20	 movsd	 QWORD PTR [esi+32], xmm0
  000d7	f2 0f 10 44 c8
	28		 movsd	 xmm0, QWORD PTR [eax+ecx*8+40]
  000dd	f2 0f 11 46 28	 movsd	 QWORD PTR [esi+40], xmm0
  000e2	8b 44 c8 30	 mov	 eax, DWORD PTR [eax+ecx*8+48]
  000e6	89 46 30	 mov	 DWORD PTR [esi+48], eax
  000e9	f6 82 9c 01 00
	00 02		 test	 BYTE PTR [edx+412], 2
  000f0	74 11		 je	 SHORT $LN4@GetNextPos
; File C:\IAGOS\server\v18\Source\Source\DX_SDK\d3dx9math.inl

; 369  :     return D3DXVECTOR3(-x, -y, -z);

  000f2	f3 0f 10 05 00
	00 00 00	 movss	 xmm0, DWORD PTR __xmm@80000000800000008000000080000000
  000fa	0f 57 c8	 xorps	 xmm1, xmm0
  000fd	0f 57 d0	 xorps	 xmm2, xmm0
  00100	0f 57 d8	 xorps	 xmm3, xmm0
$LN4@GetNextPos:
; File C:\IAGOS\server\v18\Source\Source\_Common\PathObj.cpp

; 82   : 	vDest    = vPos + (v3Dir * fLength );

  00103	8b 45 18	 mov	 eax, DWORD PTR _vDest$[ebp]
; File C:\IAGOS\server\v18\Source\Source\DX_SDK\d3dx9math.inl

; 389  :     return D3DXVECTOR3(x * f, y * f, z * f);

  00106	f3 0f 59 cc	 mulss	 xmm1, xmm4
  0010a	f3 0f 59 d4	 mulss	 xmm2, xmm4

; 302  :     z = fz;

  0010e	f3 0f 58 4d 0c	 addss	 xmm1, DWORD PTR _vPos$[ebp]

; 389  :     return D3DXVECTOR3(x * f, y * f, z * f);

  00113	f3 0f 59 dc	 mulss	 xmm3, xmm4

; 300  :     x = fx;

  00117	f3 0f 58 55 10	 addss	 xmm2, DWORD PTR _vPos$[ebp+4]

; 301  :     y = fy;

  0011c	f3 0f 58 5d 14	 addss	 xmm3, DWORD PTR _vPos$[ebp+8]
; File C:\IAGOS\server\v18\Source\Source\_Common\PathObj.cpp

; 82   : 	vDest    = vPos + (v3Dir * fLength );

  00121	f3 0f 11 08	 movss	 DWORD PTR [eax], xmm1
  00125	f3 0f 11 50 04	 movss	 DWORD PTR [eax+4], xmm2
  0012a	f3 0f 11 58 08	 movss	 DWORD PTR [eax+8], xmm3

; 83   : 
; 84   : 	// ŔüĂĽĽřČŻŔĚłÄ
; 85   : 	if( pObj->m_bPatrolCycle == 1 )

  0012f	8a 82 9c 01 00
	00		 mov	 al, BYTE PTR [edx+412]
  00135	8b 37		 mov	 esi, DWORD PTR [edi]
  00137	88 45 1b	 mov	 BYTE PTR tv919[ebp], al
  0013a	a8 01		 test	 al, 1
  0013c	74 36		 je	 SHORT $LN5@GetNextPos
; File C:\Program Files\Microsoft Visual Studio\2022\Professional\VC\Tools\MSVC\14.44.35207\include\vector

; 1915 :         return static_cast<size_type>(_My_data._Mylast - _My_data._Myfirst);

  0013e	8b 4d e8	 mov	 ecx, DWORD PTR __vecinfoTemp$[ebp+4]
  00141	b8 93 24 49 92	 mov	 eax, -1840700269	; 92492493H
  00146	2b 4d 1c	 sub	 ecx, DWORD PTR __vecinfoTemp$1$[ebp]
; File C:\IAGOS\server\v18\Source\Source\_Common\PathObj.cpp

; 86   : 		pObj->m_nPatrolIndexCount++;

  00149	46		 inc	 esi
; File C:\Program Files\Microsoft Visual Studio\2022\Professional\VC\Tools\MSVC\14.44.35207\include\vector

; 1915 :         return static_cast<size_type>(_My_data._Mylast - _My_data._Myfirst);

  0014a	f7 e9		 imul	 ecx
; File C:\IAGOS\server\v18\Source\Source\_Common\PathObj.cpp

; 86   : 		pObj->m_nPatrolIndexCount++;

  0014c	89 37		 mov	 DWORD PTR [edi], esi
; File C:\Program Files\Microsoft Visual Studio\2022\Professional\VC\Tools\MSVC\14.44.35207\include\vector

; 1915 :         return static_cast<size_type>(_My_data._Mylast - _My_data._Myfirst);

  0014e	03 d1		 add	 edx, ecx
  00150	c1 fa 05	 sar	 edx, 5
  00153	8b c2		 mov	 eax, edx
  00155	c1 e8 1f	 shr	 eax, 31			; 0000001fH
  00158	03 c2		 add	 eax, edx
; File C:\IAGOS\server\v18\Source\Source\_Common\PathObj.cpp

; 98   : 		if( pObj->m_nPatrolIndexCount >= (int)( _vecinfoTemp.size() ) )

  0015a	3b f0		 cmp	 esi, eax
  0015c	7c 7d		 jl	 SHORT $LN14@GetNextPos
; File C:\Program Files\Microsoft Visual Studio\2022\Professional\VC\Tools\MSVC\14.44.35207\include\vector

; 830  :         _Tidy();

  0015e	8d 4d e4	 lea	 ecx, DWORD PTR __vecinfoTemp$[ebp]
  00161	c7 07 00 00 00
	00		 mov	 DWORD PTR [edi], 0
  00167	e8 00 00 00 00	 call	 ?_Tidy@?$vector@U_VECINFO@@V?$allocator@U_VECINFO@@@std@@@std@@AAEXXZ ; std::vector<_VECINFO,std::allocator<_VECINFO> >::_Tidy
  0016c	5f		 pop	 edi
; File C:\IAGOS\server\v18\Source\Source\_Common\PathObj.cpp

; 117  : }

  0016d	5e		 pop	 esi
  0016e	8b e5		 mov	 esp, ebp
  00170	5d		 pop	 ebp
  00171	c2 18 00	 ret	 24			; 00000018H
$LN5@GetNextPos:

; 87   : 	else
; 88   : 	{
; 89   : 		if( pObj->m_bPatrolReverse == 0 )

  00174	8b cf		 mov	 ecx, edi
  00176	a8 02		 test	 al, 2
  00178	75 03		 jne	 SHORT $LN7@GetNextPos

; 90   : 			pObj->m_nPatrolIndexCount++;

  0017a	46		 inc	 esi
  0017b	eb 01		 jmp	 SHORT $LN116@GetNextPos
$LN7@GetNextPos:

; 91   : 		else
; 92   : 			pObj->m_nPatrolIndexCount--;		

  0017d	4e		 dec	 esi
$LN116@GetNextPos:
; File C:\Program Files\Microsoft Visual Studio\2022\Professional\VC\Tools\MSVC\14.44.35207\include\vector

; 1915 :         return static_cast<size_type>(_My_data._Mylast - _My_data._Myfirst);

  0017e	8b c6		 mov	 eax, esi
  00180	89 01		 mov	 DWORD PTR [ecx], eax
  00182	b8 93 24 49 92	 mov	 eax, -1840700269	; 92492493H
  00187	8b 4d e8	 mov	 ecx, DWORD PTR __vecinfoTemp$[ebp+4]
  0018a	2b 4d 1c	 sub	 ecx, DWORD PTR __vecinfoTemp$1$[ebp]
  0018d	f7 e9		 imul	 ecx
  0018f	03 d1		 add	 edx, ecx
  00191	c1 fa 05	 sar	 edx, 5
  00194	8b c2		 mov	 eax, edx
  00196	c1 e8 1f	 shr	 eax, 31			; 0000001fH
; File C:\IAGOS\server\v18\Source\Source\_Common\PathObj.cpp

; 105  : 		if( pObj->m_nPatrolIndexCount >= (int)_vecinfoTemp.size()-1 )

  00199	48		 dec	 eax
  0019a	03 c2		 add	 eax, edx
  0019c	3b f0		 cmp	 esi, eax
  0019e	7c 23		 jl	 SHORT $LN12@GetNextPos

; 108  : 			pObj->m_bPatrolReverse = 1; // °Ĺ˛Ů·Î..

  001a0	8b 55 08	 mov	 edx, DWORD PTR _pObj$[ebp]
  001a3	8d 46 ff	 lea	 eax, DWORD PTR [esi-1]
  001a6	89 07		 mov	 DWORD PTR [edi], eax
; File C:\Program Files\Microsoft Visual Studio\2022\Professional\VC\Tools\MSVC\14.44.35207\include\vector

; 830  :         _Tidy();

  001a8	8d 4d e4	 lea	 ecx, DWORD PTR __vecinfoTemp$[ebp]
; File C:\IAGOS\server\v18\Source\Source\_Common\PathObj.cpp

; 108  : 			pObj->m_bPatrolReverse = 1; // °Ĺ˛Ů·Î..

  001ab	8a 45 1b	 mov	 al, BYTE PTR tv919[ebp]
  001ae	0c 02		 or	 al, 2
  001b0	88 82 9c 01 00
	00		 mov	 BYTE PTR [edx+412], al
; File C:\Program Files\Microsoft Visual Studio\2022\Professional\VC\Tools\MSVC\14.44.35207\include\vector

; 830  :         _Tidy();

  001b6	e8 00 00 00 00	 call	 ?_Tidy@?$vector@U_VECINFO@@V?$allocator@U_VECINFO@@@std@@@std@@AAEXXZ ; std::vector<_VECINFO,std::allocator<_VECINFO> >::_Tidy
  001bb	5f		 pop	 edi
; File C:\IAGOS\server\v18\Source\Source\_Common\PathObj.cpp

; 117  : }

  001bc	5e		 pop	 esi
  001bd	8b e5		 mov	 esp, ebp
  001bf	5d		 pop	 ebp
  001c0	c2 18 00	 ret	 24			; 00000018H
$LN12@GetNextPos:

; 109  : 		}
; 110  : 		else
; 111  : 		if( pObj->m_nPatrolIndexCount < 0 )

  001c3	85 f6		 test	 esi, esi
  001c5	79 14		 jns	 SHORT $LN14@GetNextPos

; 114  : 			pObj->m_bPatrolReverse = 0; // °Ĺ˛Ů·Î..

  001c7	8b 55 08	 mov	 edx, DWORD PTR _pObj$[ebp]
  001ca	8a 45 1b	 mov	 al, BYTE PTR tv919[ebp]
  001cd	24 fd		 and	 al, 253			; 000000fdH
; File C:\Program Files\Microsoft Visual Studio\2022\Professional\VC\Tools\MSVC\14.44.35207\include\vector

; 830  :         _Tidy();

  001cf	c7 07 00 00 00
	00		 mov	 DWORD PTR [edi], 0
; File C:\IAGOS\server\v18\Source\Source\_Common\PathObj.cpp

; 114  : 			pObj->m_bPatrolReverse = 0; // °Ĺ˛Ů·Î..

  001d5	88 82 9c 01 00
	00		 mov	 BYTE PTR [edx+412], al
$LN14@GetNextPos:
; File C:\Program Files\Microsoft Visual Studio\2022\Professional\VC\Tools\MSVC\14.44.35207\include\vector

; 830  :         _Tidy();

  001db	8d 4d e4	 lea	 ecx, DWORD PTR __vecinfoTemp$[ebp]
  001de	e8 00 00 00 00	 call	 ?_Tidy@?$vector@U_VECINFO@@V?$allocator@U_VECINFO@@@std@@@std@@AAEXXZ ; std::vector<_VECINFO,std::allocator<_VECINFO> >::_Tidy
  001e3	5f		 pop	 edi
; File C:\IAGOS\server\v18\Source\Source\_Common\PathObj.cpp

; 117  : }

  001e4	5e		 pop	 esi
  001e5	8b e5		 mov	 esp, ebp
  001e7	5d		 pop	 ebp
  001e8	c2 18 00	 ret	 24			; 00000018H
$LN20@GetNextPos:

; 60   : 	{
; 61   : 		_vecInfo.m_vDir    = D3DXVECTOR3( 0.0f, 0.0f, 0.0f );
; 62   : 		_vecInfo.m_fLength = 0.0f;
; 63   : 		_vecInfo.m_dwDelay = 0;
; 64   : 		
; 65   : 		vDest = vPos;

  001eb	8b 4d 18	 mov	 ecx, DWORD PTR _vDest$[ebp]
  001ee	c7 06 00 00 00
	00		 mov	 DWORD PTR [esi], 0
  001f4	c7 46 04 00 00
	00 00		 mov	 DWORD PTR [esi+4], 0
  001fb	c7 46 08 00 00
	00 00		 mov	 DWORD PTR [esi+8], 0
  00202	f3 0f 7e 45 0c	 movq	 xmm0, QWORD PTR _vPos$[ebp]
  00207	8b 45 14	 mov	 eax, DWORD PTR _vPos$[ebp+8]
  0020a	c7 46 0c 00 00
	00 00		 mov	 DWORD PTR [esi+12], 0
  00211	c7 46 14 00 00
	00 00		 mov	 DWORD PTR [esi+20], 0
  00218	5f		 pop	 edi
  00219	66 0f d6 01	 movq	 QWORD PTR [ecx], xmm0
  0021d	89 41 08	 mov	 DWORD PTR [ecx+8], eax

; 117  : }

  00220	5e		 pop	 esi
  00221	8b e5		 mov	 esp, ebp
  00223	5d		 pop	 ebp
  00224	c2 18 00	 ret	 24			; 00000018H
?GetNextPosInfo@CPatrolPath@@QAEXPAVCObj@@UD3DXVECTOR3@@AAU3@AAU_VECINFO@@@Z ENDP ; CPatrolPath::GetNextPosInfo
_TEXT	ENDS
; Function compile flags: /Ogtp
; File C:\IAGOS\server\v18\Source\Source\_Common\PathObj.cpp
; File C:\Program Files\Microsoft Visual Studio\2022\Professional\VC\Tools\MSVC\14.44.35207\include\xtree
; File C:\IAGOS\server\v18\Source\Source\_Common\PathObj.cpp
; File C:\Program Files\Microsoft Visual Studio\2022\Professional\VC\Tools\MSVC\14.44.35207\include\xtree
; File C:\Program Files\Microsoft Visual Studio\2022\Professional\VC\Tools\MSVC\14.44.35207\include\type_traits
; File C:\Program Files\Microsoft Visual Studio\2022\Professional\VC\Tools\MSVC\14.44.35207\include\xtree
; File C:\Program Files\Microsoft Visual Studio\2022\Professional\VC\Tools\MSVC\14.44.35207\include\vector
; File C:\IAGOS\server\v18\Source\Source\_Common\PathObj.cpp
; File C:\Program Files\Microsoft Visual Studio\2022\Professional\VC\Tools\MSVC\14.44.35207\include\xtree
; File C:\IAGOS\server\v18\Source\Source\_Common\PathObj.cpp
; File C:\Program Files\Microsoft Visual Studio\2022\Professional\VC\Tools\MSVC\14.44.35207\include\vector
; File C:\Program Files\Microsoft Visual Studio\2022\Professional\VC\Tools\MSVC\14.44.35207\include\utility
; File C:\IAGOS\server\v18\Source\Source\_Common\PathObj.cpp
; File C:\Program Files\Microsoft Visual Studio\2022\Professional\VC\Tools\MSVC\14.44.35207\include\vector
; File C:\Program Files\Microsoft Visual Studio\2022\Professional\VC\Tools\MSVC\14.44.35207\include\xmemory
; File C:\Program Files\Microsoft Visual Studio\2022\Professional\VC\Tools\MSVC\14.44.35207\include\vector
; File C:\Program Files\Microsoft Visual Studio\2022\Professional\VC\Tools\MSVC\14.44.35207\include\xmemory
; File C:\IAGOS\server\v18\Source\Source\_Common\PathObj.cpp
; File C:\Program Files\Microsoft Visual Studio\2022\Professional\VC\Tools\MSVC\14.44.35207\include\xmemory
; File C:\IAGOS\server\v18\Source\Source\_Common\PathObj.cpp
;	COMDAT ?AddPatrolPath@CPatrolPath@@QAEXKU_VECINFO@@@Z
_TEXT	SEGMENT
$T2 = -52						; size = 16
__Loc$3 = -36						; size = 12
$T4 = -32						; size = 8
_pTemp$ = -24						; size = 12
__$EHRec$ = -12						; size = 12
_dwIndex$ = 8						; size = 4
_vecInfo$ = 12						; size = 56
?AddPatrolPath@CPatrolPath@@QAEXKU_VECINFO@@@Z PROC	; CPatrolPath::AddPatrolPath, COMDAT
; _this$ = ecx

; 34   : {

  00000	55		 push	 ebp
  00001	8b ec		 mov	 ebp, esp
  00003	6a ff		 push	 -1
  00005	68 00 00 00 00	 push	 __ehhandler$?AddPatrolPath@CPatrolPath@@QAEXKU_VECINFO@@@Z
  0000a	64 a1 00 00 00
	00		 mov	 eax, DWORD PTR fs:0
  00010	50		 push	 eax
  00011	83 ec 28	 sub	 esp, 40			; 00000028H
  00014	56		 push	 esi
  00015	57		 push	 edi
  00016	a1 00 00 00 00	 mov	 eax, DWORD PTR ___security_cookie
  0001b	33 c5		 xor	 eax, ebp
  0001d	50		 push	 eax
  0001e	8d 45 f4	 lea	 eax, DWORD PTR __$EHRec$[ebp]
  00021	64 a3 00 00 00
	00		 mov	 DWORD PTR fs:0, eax
  00027	8b f1		 mov	 esi, ecx
; File C:\Program Files\Microsoft Visual Studio\2022\Professional\VC\Tools\MSVC\14.44.35207\include\xtree

; 1384 :         const _Tree_find_result<_Nodeptr> _Loc = _Find_lower_bound(_Keyval);

  00029	8d 45 08	 lea	 eax, DWORD PTR _dwIndex$[ebp]
; File C:\IAGOS\server\v18\Source\Source\_Common\PathObj.cpp

; 33   : void CPatrolPath::AddPatrolPath( DWORD dwIndex, _VECINFO vecInfo )

  0002c	c7 45 fc 00 00
	00 00		 mov	 DWORD PTR __$EHRec$[ebp+8], 0
; File C:\Program Files\Microsoft Visual Studio\2022\Professional\VC\Tools\MSVC\14.44.35207\include\xtree

; 1384 :         const _Tree_find_result<_Nodeptr> _Loc = _Find_lower_bound(_Keyval);

  00033	50		 push	 eax
  00034	8d 45 dc	 lea	 eax, DWORD PTR __Loc$3[ebp]
  00037	50		 push	 eax
  00038	e8 00 00 00 00	 call	 ??$_Find_lower_bound@K@?$_Tree@V?$_Tmap_traits@KV?$vector@U_VECINFO@@V?$allocator@U_VECINFO@@@std@@@std@@U?$less@K@2@V?$allocator@U?$pair@$$CBKV?$vector@U_VECINFO@@V?$allocator@U_VECINFO@@@std@@@std@@@std@@@2@$0A@@std@@@std@@IBE?AU?$_Tree_find_result@PAU?$_Tree_node@U?$pair@$$CBKV?$vector@U_VECINFO@@V?$allocator@U_VECINFO@@@std@@@std@@@std@@PAX@std@@@1@ABK@Z ; std::_Tree<std::_Tmap_traits<unsigned long,std::vector<_VECINFO,std::allocator<_VECINFO> >,std::less<unsigned long>,std::allocator<std::pair<unsigned long const ,std::vector<_VECINFO,std::allocator<_VECINFO> > > >,0> >::_Find_lower_bound<unsigned long>

; 1624 :         return !_Bound->_Isnil && !_DEBUG_LT_PRED(_Getcomp(), _Keyval, _Traits::_Kfn(_Bound->_Myval));

  0003d	8b 4d e4	 mov	 ecx, DWORD PTR __Loc$3[ebp+8]
  00040	8b 7d 08	 mov	 edi, DWORD PTR _dwIndex$[ebp]
  00043	80 79 0d 00	 cmp	 BYTE PTR [ecx+13], 0
  00047	75 05		 jne	 SHORT $LN11@AddPatrolP
; File C:\Program Files\Microsoft Visual Studio\2022\Professional\VC\Tools\MSVC\14.44.35207\include\type_traits

; 2380 :         return _Left < _Right;

  00049	3b 79 10	 cmp	 edi, DWORD PTR [ecx+16]
; File C:\Program Files\Microsoft Visual Studio\2022\Professional\VC\Tools\MSVC\14.44.35207\include\xtree

; 1624 :         return !_Bound->_Isnil && !_DEBUG_LT_PRED(_Getcomp(), _Keyval, _Traits::_Kfn(_Bound->_Myval));

  0004c	73 02		 jae	 SHORT $LN10@AddPatrolP
$LN11@AddPatrolP:

; 1389 :         return _Get_scary()->_Myhead;

  0004e	8b 0e		 mov	 ecx, DWORD PTR [esi]
$LN10@AddPatrolP:
; File C:\Program Files\Microsoft Visual Studio\2022\Professional\VC\Tools\MSVC\14.44.35207\include\vector

; 400  :     _CONSTEXPR20 _Vector_val() noexcept : _Myfirst(), _Mylast(), _Myend() {}

  00050	c7 45 e8 00 00
	00 00		 mov	 DWORD PTR _pTemp$[ebp], 0
  00057	c7 45 ec 00 00
	00 00		 mov	 DWORD PTR _pTemp$[ebp+4], 0
  0005e	c7 45 f0 00 00
	00 00		 mov	 DWORD PTR _pTemp$[ebp+8], 0
; File C:\IAGOS\server\v18\Source\Source\_Common\PathObj.cpp

; 40   : 	if( it != m_mapPatrolPath.end() )

  00065	8d 45 0c	 lea	 eax, DWORD PTR _vecInfo$[ebp]
  00068	c6 45 fc 01	 mov	 BYTE PTR __$EHRec$[ebp+8], 1
  0006c	50		 push	 eax
; File C:\Program Files\Microsoft Visual Studio\2022\Professional\VC\Tools\MSVC\14.44.35207\include\xtree

; 37   :     _Tree_unchecked_const_iterator(_Nodeptr _Pnode, const _Mytree* _Plist) noexcept : _Ptr(_Pnode) {

  0006d	3b 0e		 cmp	 ecx, DWORD PTR [esi]
; File C:\IAGOS\server\v18\Source\Source\_Common\PathObj.cpp

; 40   : 	if( it != m_mapPatrolPath.end() )

  0006f	74 0a		 je	 SHORT $LN2@AddPatrolP

; 41   : 	{
; 42   : 		// ĂłŔ˝żŁ ˝ĂŔŰÁÂÇĄ łÖ´Â´Ů...
; 43   : 		it->second.push_back( vecInfo );

  00071	83 c1 14	 add	 ecx, 20			; 00000014H
  00074	e8 00 00 00 00	 call	 ?push_back@?$vector@U_VECINFO@@V?$allocator@U_VECINFO@@@std@@@std@@QAEXABU_VECINFO@@@Z ; std::vector<_VECINFO,std::allocator<_VECINFO> >::push_back

; 44   : 	}

  00079	eb 34		 jmp	 SHORT $LN92@AddPatrolP
$LN2@AddPatrolP:
; File C:\Program Files\Microsoft Visual Studio\2022\Professional\VC\Tools\MSVC\14.44.35207\include\vector

; 848  :         return *_Emplace_reallocate(_Mylast, _STD forward<_Valty>(_Val)...);

  0007b	6a 00		 push	 0
  0007d	8d 4d e8	 lea	 ecx, DWORD PTR _pTemp$[ebp]
  00080	e8 00 00 00 00	 call	 ??$_Emplace_reallocate@ABU_VECINFO@@@?$vector@U_VECINFO@@V?$allocator@U_VECINFO@@@std@@@std@@AAEPAU_VECINFO@@QAU2@ABU2@@Z ; std::vector<_VECINFO,std::allocator<_VECINFO> >::_Emplace_reallocate<_VECINFO const &>
; File C:\Program Files\Microsoft Visual Studio\2022\Professional\VC\Tools\MSVC\14.44.35207\include\utility

; 274  :         : first(_STD forward<_Other1>(_Val1)), second(_STD forward<_Other2>(_Val2)) {

  00085	8d 45 e8	 lea	 eax, DWORD PTR _pTemp$[ebp]
  00088	89 7d cc	 mov	 DWORD PTR $T2[ebp], edi
  0008b	50		 push	 eax
  0008c	8d 4d d0	 lea	 ecx, DWORD PTR $T2[ebp+4]
  0008f	e8 00 00 00 00	 call	 ??0?$vector@U_VECINFO@@V?$allocator@U_VECINFO@@@std@@@std@@QAE@ABV01@@Z ; std::vector<_VECINFO,std::allocator<_VECINFO> >::vector<_VECINFO,std::allocator<_VECINFO> >
; File C:\IAGOS\server\v18\Source\Source\_Common\PathObj.cpp

; 49   : 		m_mapPatrolPath.insert( map< DWORD, vector<_VECINFO> >::value_type(dwIndex, pTemp) );

  00094	8d 45 cc	 lea	 eax, DWORD PTR $T2[ebp]
  00097	c6 45 fc 02	 mov	 BYTE PTR __$EHRec$[ebp+8], 2
  0009b	50		 push	 eax
  0009c	8d 45 e0	 lea	 eax, DWORD PTR $T4[ebp]
  0009f	8b ce		 mov	 ecx, esi
  000a1	50		 push	 eax
  000a2	e8 00 00 00 00	 call	 ??$insert@$0A@$0A@@?$_Tree@V?$_Tmap_traits@KV?$vector@U_VECINFO@@V?$allocator@U_VECINFO@@@std@@@std@@U?$less@K@2@V?$allocator@U?$pair@$$CBKV?$vector@U_VECINFO@@V?$allocator@U_VECINFO@@@std@@@std@@@std@@@2@$0A@@std@@@std@@QAE?AU?$pair@V?$_Tree_iterator@V?$_Tree_val@U?$_Tree_simple_types@U?$pair@$$CBKV?$vector@U_VECINFO@@V?$allocator@U_VECINFO@@@std@@@std@@@std@@@std@@@std@@@std@@_N@1@$$QAU?$pair@$$CBKV?$vector@U_VECINFO@@V?$allocator@U_VECINFO@@@std@@@std@@@1@@Z ; std::_Tree<std::_Tmap_traits<unsigned long,std::vector<_VECINFO,std::allocator<_VECINFO> >,std::less<unsigned long>,std::allocator<std::pair<unsigned long const ,std::vector<_VECINFO,std::allocator<_VECINFO> > > >,0> >::insert<0,0>
; File C:\Program Files\Microsoft Visual Studio\2022\Professional\VC\Tools\MSVC\14.44.35207\include\vector

; 830  :         _Tidy();

  000a7	8d 4d d0	 lea	 ecx, DWORD PTR $T2[ebp+4]
  000aa	e8 00 00 00 00	 call	 ?_Tidy@?$vector@U_VECINFO@@V?$allocator@U_VECINFO@@@std@@@std@@AAEXXZ ; std::vector<_VECINFO,std::allocator<_VECINFO> >::_Tidy
$LN92@AddPatrolP:

; 2090 :         if (_Myfirst) { // destroy and deallocate old array

  000af	8b 75 e8	 mov	 esi, DWORD PTR _pTemp$[ebp]
  000b2	85 f6		 test	 esi, esi
  000b4	74 63		 je	 SHORT $LN98@AddPatrolP

; 2091 :             _STD _Destroy_range(_Myfirst, _Mylast, _Al);

  000b6	8b 45 ec	 mov	 eax, DWORD PTR _pTemp$[ebp+4]
  000b9	3b f0		 cmp	 esi, eax
; File C:\Program Files\Microsoft Visual Studio\2022\Professional\VC\Tools\MSVC\14.44.35207\include\xmemory

; 1102 :         for (; _First != _Last; ++_First) {

  000bb	74 14		 je	 SHORT $LN103@AddPatrolP
  000bd	0f 1f 00	 npad	 3
$LL104@AddPatrolP:

; 1103 :             allocator_traits<_Alloc>::destroy(_Al, _STD _Unfancy(_First));

  000c0	c7 46 18 00 00
	00 00		 mov	 DWORD PTR [esi+24], OFFSET ??_7CTimer@@6B@
  000c7	83 c6 38	 add	 esi, 56			; 00000038H
  000ca	3b f0		 cmp	 esi, eax
  000cc	75 f2		 jne	 SHORT $LL104@AddPatrolP
  000ce	8b 75 e8	 mov	 esi, DWORD PTR _pTemp$[ebp]
$LN103@AddPatrolP:
; File C:\Program Files\Microsoft Visual Studio\2022\Professional\VC\Tools\MSVC\14.44.35207\include\vector

; 2093 :             _Al.deallocate(_Myfirst, static_cast<size_type>(_Myend - _Myfirst));

  000d1	8b 4d f0	 mov	 ecx, DWORD PTR _pTemp$[ebp+8]
  000d4	b8 93 24 49 92	 mov	 eax, -1840700269	; 92492493H
  000d9	2b ce		 sub	 ecx, esi
  000db	f7 e9		 imul	 ecx
  000dd	03 d1		 add	 edx, ecx
  000df	c1 fa 05	 sar	 edx, 5
  000e2	8b c2		 mov	 eax, edx
  000e4	c1 e8 1f	 shr	 eax, 31			; 0000001fH
  000e7	03 c2		 add	 eax, edx
; File C:\Program Files\Microsoft Visual Studio\2022\Professional\VC\Tools\MSVC\14.44.35207\include\xmemory

; 985  :         _STD _Deallocate<_New_alignof<_Ty>>(_Ptr, sizeof(_Ty) * _Count);

  000e9	8d 0c c5 00 00
	00 00		 lea	 ecx, DWORD PTR [eax*8]
  000f0	2b c8		 sub	 ecx, eax
  000f2	8b c6		 mov	 eax, esi
  000f4	c1 e1 03	 shl	 ecx, 3

; 284  :         if (_Bytes >= _Big_allocation_threshold) {

  000f7	81 f9 00 10 00
	00		 cmp	 ecx, 4096		; 00001000H
  000fd	72 10		 jb	 SHORT $LN117@AddPatrolP

; 205  :     const uintptr_t _Ptr_container   = _Ptr_user[-1];

  000ff	8b 70 fc	 mov	 esi, DWORD PTR [eax-4]
  00102	83 c1 23	 add	 ecx, 35			; 00000023H
  00105	2b c6		 sub	 eax, esi

; 219  :     _STL_VERIFY(_Back_shift >= _Min_back_shift && _Back_shift <= _Non_user_size, "invalid argument");

  00107	83 c0 fc	 add	 eax, -4			; fffffffcH
  0010a	83 f8 1f	 cmp	 eax, 31			; 0000001fH
  0010d	77 1d		 ja	 SHORT $LN131@AddPatrolP
$LN117@AddPatrolP:

; 289  :         ::operator delete(_Ptr, _Bytes);

  0010f	51		 push	 ecx
  00110	56		 push	 esi
  00111	e8 00 00 00 00	 call	 ??3@YAXPAXI@Z		; operator delete
  00116	83 c4 08	 add	 esp, 8
$LN98@AddPatrolP:
; File C:\IAGOS\server\v18\Source\Source\_Common\PathObj.cpp

; 51   : }

  00119	8b 4d f4	 mov	 ecx, DWORD PTR __$EHRec$[ebp]
  0011c	64 89 0d 00 00
	00 00		 mov	 DWORD PTR fs:0, ecx
  00123	59		 pop	 ecx
  00124	5f		 pop	 edi
  00125	5e		 pop	 esi
  00126	8b e5		 mov	 esp, ebp
  00128	5d		 pop	 ebp
  00129	c2 3c 00	 ret	 60			; 0000003cH
$LN131@AddPatrolP:
; File C:\Program Files\Microsoft Visual Studio\2022\Professional\VC\Tools\MSVC\14.44.35207\include\xmemory

; 219  :     _STL_VERIFY(_Back_shift >= _Min_back_shift && _Back_shift <= _Non_user_size, "invalid argument");

  0012c	6a 00		 push	 0
  0012e	6a 00		 push	 0
  00130	6a 00		 push	 0
  00132	6a 00		 push	 0
  00134	6a 00		 push	 0
  00136	e8 00 00 00 00	 call	 __invoke_watson
$LN129@AddPatrolP:
  0013b	cc		 int	 3
_TEXT	ENDS
;	COMDAT text$x
text$x	SEGMENT
__unwindfunclet$?AddPatrolPath@CPatrolPath@@QAEXKU_VECINFO@@@Z$0:
  00000	8d 4d 0c	 lea	 ecx, DWORD PTR _vecInfo$[ebp]
  00003	e9 00 00 00 00	 jmp	 ??1_VECINFO@@QAE@XZ
__unwindfunclet$?AddPatrolPath@CPatrolPath@@QAEXKU_VECINFO@@@Z$1:
  00008	8d 4d e8	 lea	 ecx, DWORD PTR _pTemp$[ebp]
  0000b	e9 00 00 00 00	 jmp	 ??1?$vector@U_VECINFO@@V?$allocator@U_VECINFO@@@std@@@std@@QAE@XZ ; std::vector<_VECINFO,std::allocator<_VECINFO> >::~vector<_VECINFO,std::allocator<_VECINFO> >
__unwindfunclet$?AddPatrolPath@CPatrolPath@@QAEXKU_VECINFO@@@Z$2:
  00010	8d 4d cc	 lea	 ecx, DWORD PTR $T2[ebp]
  00013	e9 00 00 00 00	 jmp	 ??1?$pair@$$CBKV?$vector@U_VECINFO@@V?$allocator@U_VECINFO@@@std@@@std@@@std@@QAE@XZ
  00018	cc		 int	 3
  00019	cc		 int	 3
  0001a	cc		 int	 3
  0001b	cc		 int	 3
  0001c	cc		 int	 3
__ehhandler$?AddPatrolPath@CPatrolPath@@QAEXKU_VECINFO@@@Z:
  0001d	90		 npad	 1
  0001e	90		 npad	 1
  0001f	8b 54 24 08	 mov	 edx, DWORD PTR [esp+8]
  00023	8d 42 0c	 lea	 eax, DWORD PTR [edx+12]
  00026	8b 4a cc	 mov	 ecx, DWORD PTR [edx-52]
  00029	33 c8		 xor	 ecx, eax
  0002b	e8 00 00 00 00	 call	 @__security_check_cookie@4
  00030	b8 00 00 00 00	 mov	 eax, OFFSET __ehfuncinfo$?AddPatrolPath@CPatrolPath@@QAEXKU_VECINFO@@@Z
  00035	e9 00 00 00 00	 jmp	 ___CxxFrameHandler3
text$x	ENDS
?AddPatrolPath@CPatrolPath@@QAEXKU_VECINFO@@@Z ENDP	; CPatrolPath::AddPatrolPath
; Function compile flags: /Ogtp
; File C:\IAGOS\server\v18\Source\Source\_Common\PathObj.cpp
;	COMDAT ?SetReturn@CPatrolPath@@QAEXKH@Z
_TEXT	SEGMENT
_dwIndex$ = 8						; size = 4
_bReturn$ = 12						; size = 4
?SetReturn@CPatrolPath@@QAEXKH@Z PROC			; CPatrolPath::SetReturn, COMDAT
; _this$ = ecx

; 30   : }

  00000	c2 08 00	 ret	 8
?SetReturn@CPatrolPath@@QAEXKH@Z ENDP			; CPatrolPath::SetReturn
_TEXT	ENDS
; Function compile flags: /Ogtp
; File C:\IAGOS\server\v18\Source\Source\_Common\PathObj.cpp
; File C:\Program Files\Microsoft Visual Studio\2022\Professional\VC\Tools\MSVC\14.44.35207\include\xtree
; File C:\IAGOS\server\v18\Source\Source\_Common\PathObj.cpp
; File C:\Program Files\Microsoft Visual Studio\2022\Professional\VC\Tools\MSVC\14.44.35207\include\xtree
; File C:\Program Files\Microsoft Visual Studio\2022\Professional\VC\Tools\MSVC\14.44.35207\include\utility
; File C:\Program Files\Microsoft Visual Studio\2022\Professional\VC\Tools\MSVC\14.44.35207\include\xmemory
; File C:\Program Files\Microsoft Visual Studio\2022\Professional\VC\Tools\MSVC\14.44.35207\include\xtree
; File C:\IAGOS\server\v18\Source\Source\_Common\PathObj.cpp
;	COMDAT ?Clear@CPatrolPath@@QAEXXZ
_TEXT	SEGMENT
?Clear@CPatrolPath@@QAEXXZ PROC				; CPatrolPath::Clear, COMDAT
; _this$ = ecx

; 17   : {

  00000	53		 push	 ebx
  00001	56		 push	 esi
  00002	57		 push	 edi
  00003	8b f9		 mov	 edi, ecx
; File C:\Program Files\Microsoft Visual Studio\2022\Professional\VC\Tools\MSVC\14.44.35207\include\xtree

; 1373 :         auto _Head = _Scary->_Myhead;

  00005	8b 37		 mov	 esi, DWORD PTR [edi]

; 1374 :         _Scary->_Erase_tree(_Getal(), _Head->_Parent);

  00007	ff 76 04	 push	 DWORD PTR [esi+4]
  0000a	57		 push	 edi
  0000b	e8 00 00 00 00	 call	 ??$_Erase_tree@V?$allocator@U?$_Tree_node@U?$pair@$$CBKV?$vector@U_VECINFO@@V?$allocator@U_VECINFO@@@std@@@std@@@std@@PAX@std@@@std@@@?$_Tree_val@U?$_Tree_simple_types@U?$pair@$$CBKV?$vector@U_VECINFO@@V?$allocator@U_VECINFO@@@std@@@std@@@std@@@std@@@std@@QAEXAAV?$allocator@U?$_Tree_node@U?$pair@$$CBKV?$vector@U_VECINFO@@V?$allocator@U_VECINFO@@@std@@@std@@@std@@PAX@std@@@1@PAU?$_Tree_node@U?$pair@$$CBKV?$vector@U_VECINFO@@V?$allocator@U_VECINFO@@@std@@@std@@@std@@PAX@1@@Z ; std::_Tree_val<std::_Tree_simple_types<std::pair<unsigned long const ,std::vector<_VECINFO,std::allocator<_VECINFO> > > > >::_Erase_tree<std::allocator<std::_Tree_node<std::pair<unsigned long const ,std::vector<_VECINFO,std::allocator<_VECINFO> > >,void *> > >

; 1375 :         _Head->_Parent  = _Head;

  00010	89 76 04	 mov	 DWORD PTR [esi+4], esi

; 1376 :         _Head->_Left    = _Head;

  00013	89 36		 mov	 DWORD PTR [esi], esi

; 1377 :         _Head->_Right   = _Head;

  00015	89 76 08	 mov	 DWORD PTR [esi+8], esi

; 1378 :         _Scary->_Mysize = 0;

  00018	c7 47 04 00 00
	00 00		 mov	 DWORD PTR [edi+4], 0
; File C:\IAGOS\server\v18\Source\Source\_Common\PathObj.cpp

; 19   : 	m_bReturn.clear();

  0001f	83 c7 08	 add	 edi, 8
; File C:\Program Files\Microsoft Visual Studio\2022\Professional\VC\Tools\MSVC\14.44.35207\include\xtree

; 1373 :         auto _Head = _Scary->_Myhead;

  00022	8b 1f		 mov	 ebx, DWORD PTR [edi]

; 1374 :         _Scary->_Erase_tree(_Getal(), _Head->_Parent);

  00024	8b 73 04	 mov	 esi, DWORD PTR [ebx+4]

; 768  :         while (!_Rootnode->_Isnil) { // free subtrees, then node

  00027	80 7e 0d 00	 cmp	 BYTE PTR [esi+13], 0
  0002b	75 23		 jne	 SHORT $LN44@Clear
  0002d	0f 1f 00	 npad	 3
$LL10@Clear:

; 769  :             _Erase_tree(_Al, _Rootnode->_Right);

  00030	ff 76 08	 push	 DWORD PTR [esi+8]
  00033	8b cf		 mov	 ecx, edi
  00035	57		 push	 edi
  00036	e8 00 00 00 00	 call	 ??$_Erase_tree@V?$allocator@U?$_Tree_node@U?$pair@$$CBKH@std@@PAX@std@@@std@@@?$_Tree_val@U?$_Tree_simple_types@U?$pair@$$CBKH@std@@@std@@@std@@QAEXAAV?$allocator@U?$_Tree_node@U?$pair@$$CBKH@std@@PAX@std@@@1@PAU?$_Tree_node@U?$pair@$$CBKH@std@@PAX@1@@Z ; std::_Tree_val<std::_Tree_simple_types<std::pair<unsigned long const ,int> > >::_Erase_tree<std::allocator<std::_Tree_node<std::pair<unsigned long const ,int>,void *> > >
; File C:\Program Files\Microsoft Visual Studio\2022\Professional\VC\Tools\MSVC\14.44.35207\include\utility

; 773  :     _Ty _Old_val = static_cast<_Ty&&>(_Val);

  0003b	8b c6		 mov	 eax, esi

; 774  :     _Val         = static_cast<_Other&&>(_New_val);

  0003d	8b 36		 mov	 esi, DWORD PTR [esi]
; File C:\Program Files\Microsoft Visual Studio\2022\Professional\VC\Tools\MSVC\14.44.35207\include\xmemory

; 289  :         ::operator delete(_Ptr, _Bytes);

  0003f	6a 18		 push	 24			; 00000018H
  00041	50		 push	 eax
  00042	e8 00 00 00 00	 call	 ??3@YAXPAXI@Z		; operator delete
  00047	83 c4 08	 add	 esp, 8
; File C:\Program Files\Microsoft Visual Studio\2022\Professional\VC\Tools\MSVC\14.44.35207\include\xtree

; 768  :         while (!_Rootnode->_Isnil) { // free subtrees, then node

  0004a	80 7e 0d 00	 cmp	 BYTE PTR [esi+13], 0
  0004e	74 e0		 je	 SHORT $LL10@Clear
$LN44@Clear:

; 1375 :         _Head->_Parent  = _Head;

  00050	89 5b 04	 mov	 DWORD PTR [ebx+4], ebx

; 1376 :         _Head->_Left    = _Head;

  00053	89 1b		 mov	 DWORD PTR [ebx], ebx

; 1377 :         _Head->_Right   = _Head;

  00055	89 5b 08	 mov	 DWORD PTR [ebx+8], ebx

; 1378 :         _Scary->_Mysize = 0;

  00058	c7 47 04 00 00
	00 00		 mov	 DWORD PTR [edi+4], 0
  0005f	5f		 pop	 edi
  00060	5e		 pop	 esi
  00061	5b		 pop	 ebx
; File C:\IAGOS\server\v18\Source\Source\_Common\PathObj.cpp

; 20   : }

  00062	c3		 ret	 0
?Clear@CPatrolPath@@QAEXXZ ENDP				; CPatrolPath::Clear
_TEXT	ENDS
; Function compile flags: /Ogtp
; File C:\IAGOS\server\v18\Source\Source\_Common\PathObj.cpp
; File C:\Program Files\Microsoft Visual Studio\2022\Professional\VC\Tools\MSVC\14.44.35207\include\xtree
; File C:\IAGOS\server\v18\Source\Source\_Common\PathObj.cpp
; File C:\Program Files\Microsoft Visual Studio\2022\Professional\VC\Tools\MSVC\14.44.35207\include\xtree
; File C:\Program Files\Microsoft Visual Studio\2022\Professional\VC\Tools\MSVC\14.44.35207\include\type_traits
; File C:\Program Files\Microsoft Visual Studio\2022\Professional\VC\Tools\MSVC\14.44.35207\include\xtree
; File C:\IAGOS\server\v18\Source\Source\_Common\PathObj.cpp
; File C:\Program Files\Microsoft Visual Studio\2022\Professional\VC\Tools\MSVC\14.44.35207\include\vector
; File C:\IAGOS\server\v18\Source\Source\_Common\PathObj.cpp
;	COMDAT ?IsFirstPath@CPatrolPath@@QAEHK@Z
_TEXT	SEGMENT
__Loc$1 = -12						; size = 12
_dwIndex$ = 8						; size = 4
?IsFirstPath@CPatrolPath@@QAEHK@Z PROC			; CPatrolPath::IsFirstPath, COMDAT
; _this$ = ecx

; 138  : {

  00000	55		 push	 ebp
  00001	8b ec		 mov	 ebp, esp
  00003	83 ec 0c	 sub	 esp, 12			; 0000000cH
  00006	56		 push	 esi
; File C:\Program Files\Microsoft Visual Studio\2022\Professional\VC\Tools\MSVC\14.44.35207\include\xtree

; 1384 :         const _Tree_find_result<_Nodeptr> _Loc = _Find_lower_bound(_Keyval);

  00007	8d 45 08	 lea	 eax, DWORD PTR _dwIndex$[ebp]
; File C:\IAGOS\server\v18\Source\Source\_Common\PathObj.cpp

; 138  : {

  0000a	8b f1		 mov	 esi, ecx
; File C:\Program Files\Microsoft Visual Studio\2022\Professional\VC\Tools\MSVC\14.44.35207\include\xtree

; 1384 :         const _Tree_find_result<_Nodeptr> _Loc = _Find_lower_bound(_Keyval);

  0000c	50		 push	 eax
  0000d	8d 45 f4	 lea	 eax, DWORD PTR __Loc$1[ebp]
  00010	50		 push	 eax
  00011	e8 00 00 00 00	 call	 ??$_Find_lower_bound@K@?$_Tree@V?$_Tmap_traits@KV?$vector@U_VECINFO@@V?$allocator@U_VECINFO@@@std@@@std@@U?$less@K@2@V?$allocator@U?$pair@$$CBKV?$vector@U_VECINFO@@V?$allocator@U_VECINFO@@@std@@@std@@@std@@@2@$0A@@std@@@std@@IBE?AU?$_Tree_find_result@PAU?$_Tree_node@U?$pair@$$CBKV?$vector@U_VECINFO@@V?$allocator@U_VECINFO@@@std@@@std@@@std@@PAX@std@@@1@ABK@Z ; std::_Tree<std::_Tmap_traits<unsigned long,std::vector<_VECINFO,std::allocator<_VECINFO> >,std::less<unsigned long>,std::allocator<std::pair<unsigned long const ,std::vector<_VECINFO,std::allocator<_VECINFO> > > >,0> >::_Find_lower_bound<unsigned long>

; 1624 :         return !_Bound->_Isnil && !_DEBUG_LT_PRED(_Getcomp(), _Keyval, _Traits::_Kfn(_Bound->_Myval));

  00016	8b 55 fc	 mov	 edx, DWORD PTR __Loc$1[ebp+8]
  00019	80 7a 0d 00	 cmp	 BYTE PTR [edx+13], 0
  0001d	75 31		 jne	 SHORT $LN3@IsFirstPat
; File C:\Program Files\Microsoft Visual Studio\2022\Professional\VC\Tools\MSVC\14.44.35207\include\type_traits

; 2380 :         return _Left < _Right;

  0001f	8b 45 08	 mov	 eax, DWORD PTR _dwIndex$[ebp]
  00022	3b 42 10	 cmp	 eax, DWORD PTR [edx+16]
; File C:\Program Files\Microsoft Visual Studio\2022\Professional\VC\Tools\MSVC\14.44.35207\include\xtree

; 1624 :         return !_Bound->_Isnil && !_DEBUG_LT_PRED(_Getcomp(), _Keyval, _Traits::_Kfn(_Bound->_Myval));

  00025	72 29		 jb	 SHORT $LN3@IsFirstPat

; 37   :     _Tree_unchecked_const_iterator(_Nodeptr _Pnode, const _Mytree* _Plist) noexcept : _Ptr(_Pnode) {

  00027	3b 16		 cmp	 edx, DWORD PTR [esi]
; File C:\IAGOS\server\v18\Source\Source\_Common\PathObj.cpp

; 142  : 	if( it != m_mapPatrolPath.end() )

  00029	74 25		 je	 SHORT $LN3@IsFirstPat
; File C:\Program Files\Microsoft Visual Studio\2022\Professional\VC\Tools\MSVC\14.44.35207\include\vector

; 1915 :         return static_cast<size_type>(_My_data._Mylast - _My_data._Myfirst);

  0002b	8b 4a 18	 mov	 ecx, DWORD PTR [edx+24]
  0002e	b8 93 24 49 92	 mov	 eax, -1840700269	; 92492493H
  00033	2b 4a 14	 sub	 ecx, DWORD PTR [edx+20]
  00036	f7 e9		 imul	 ecx
  00038	5e		 pop	 esi
  00039	03 d1		 add	 edx, ecx
  0003b	c1 fa 05	 sar	 edx, 5
  0003e	8b c2		 mov	 eax, edx
  00040	c1 e8 1f	 shr	 eax, 31			; 0000001fH
  00043	03 c2		 add	 eax, edx
; File C:\IAGOS\server\v18\Source\Source\_Common\PathObj.cpp

; 144  : 		if( it->second.size() == 0 )

  00045	f7 d8		 neg	 eax
  00047	1b c0		 sbb	 eax, eax
  00049	40		 inc	 eax

; 149  : }

  0004a	8b e5		 mov	 esp, ebp
  0004c	5d		 pop	 ebp
  0004d	c2 04 00	 ret	 4
$LN3@IsFirstPat:

; 145  : 			return TRUE;
; 146  : 	}
; 147  : 
; 148  : 	return FALSE;

  00050	33 c0		 xor	 eax, eax
  00052	5e		 pop	 esi

; 149  : }

  00053	8b e5		 mov	 esp, ebp
  00055	5d		 pop	 ebp
  00056	c2 04 00	 ret	 4
?IsFirstPath@CPatrolPath@@QAEHK@Z ENDP			; CPatrolPath::IsFirstPath
_TEXT	ENDS
; Function compile flags: /Ogtp
; File C:\IAGOS\server\v18\Source\Source\_Common\PathObj.cpp
; File C:\Program Files\Microsoft Visual Studio\2022\Professional\VC\Tools\MSVC\14.44.35207\include\xtree
; File C:\Program Files\Microsoft Visual Studio\2022\Professional\VC\Tools\MSVC\14.44.35207\include\type_traits
; File C:\Program Files\Microsoft Visual Studio\2022\Professional\VC\Tools\MSVC\14.44.35207\include\xtree
; File C:\IAGOS\server\v18\Source\Source\_Common\PathObj.cpp
; File C:\Program Files\Microsoft Visual Studio\2022\Professional\VC\Tools\MSVC\14.44.35207\include\vector
; File C:\Program Files\Microsoft Visual Studio\2022\Professional\VC\Tools\MSVC\14.44.35207\include\utility
; File C:\IAGOS\server\v18\Source\Source\_Common\PathObj.cpp
; File C:\Program Files\Microsoft Visual Studio\2022\Professional\VC\Tools\MSVC\14.44.35207\include\utility
; File C:\IAGOS\server\v18\Source\Source\_Common\PathObj.cpp
; File C:\Program Files\Microsoft Visual Studio\2022\Professional\VC\Tools\MSVC\14.44.35207\include\vector
; File C:\Program Files\Microsoft Visual Studio\2022\Professional\VC\Tools\MSVC\14.44.35207\include\xmemory
; File C:\Program Files\Microsoft Visual Studio\2022\Professional\VC\Tools\MSVC\14.44.35207\include\vector
; File C:\Program Files\Microsoft Visual Studio\2022\Professional\VC\Tools\MSVC\14.44.35207\include\xmemory
; File C:\IAGOS\server\v18\Source\Source\_Common\PathObj.cpp
; File C:\Program Files\Microsoft Visual Studio\2022\Professional\VC\Tools\MSVC\14.44.35207\include\xmemory
; File C:\IAGOS\server\v18\Source\Source\_Common\PathObj.cpp
;	COMDAT ?AddPatrolIndex@CPatrolPath@@QAEXK@Z
_TEXT	SEGMENT
$T2 = -48						; size = 16
_pTemp$3 = -32						; size = 12
__Loc$4 = -32						; size = 12
$T5 = -20						; size = 8
__$EHRec$ = -12						; size = 12
_dwIndex$ = 8						; size = 4
?AddPatrolIndex@CPatrolPath@@QAEXK@Z PROC		; CPatrolPath::AddPatrolIndex, COMDAT
; _this$ = ecx

; 120  : {

  00000	55		 push	 ebp
  00001	8b ec		 mov	 ebp, esp
  00003	6a ff		 push	 -1
  00005	68 00 00 00 00	 push	 __ehhandler$?AddPatrolIndex@CPatrolPath@@QAEXK@Z
  0000a	64 a1 00 00 00
	00		 mov	 eax, DWORD PTR fs:0
  00010	50		 push	 eax
  00011	83 ec 24	 sub	 esp, 36			; 00000024H
  00014	56		 push	 esi
  00015	a1 00 00 00 00	 mov	 eax, DWORD PTR ___security_cookie
  0001a	33 c5		 xor	 eax, ebp
  0001c	50		 push	 eax
  0001d	8d 45 f4	 lea	 eax, DWORD PTR __$EHRec$[ebp]
  00020	64 a3 00 00 00
	00		 mov	 DWORD PTR fs:0, eax
  00026	8b f1		 mov	 esi, ecx
; File C:\Program Files\Microsoft Visual Studio\2022\Professional\VC\Tools\MSVC\14.44.35207\include\xtree

; 1384 :         const _Tree_find_result<_Nodeptr> _Loc = _Find_lower_bound(_Keyval);

  00028	8d 45 08	 lea	 eax, DWORD PTR _dwIndex$[ebp]
  0002b	50		 push	 eax
  0002c	8d 45 e0	 lea	 eax, DWORD PTR __Loc$4[ebp]
  0002f	50		 push	 eax
  00030	e8 00 00 00 00	 call	 ??$_Find_lower_bound@K@?$_Tree@V?$_Tmap_traits@KV?$vector@U_VECINFO@@V?$allocator@U_VECINFO@@@std@@@std@@U?$less@K@2@V?$allocator@U?$pair@$$CBKV?$vector@U_VECINFO@@V?$allocator@U_VECINFO@@@std@@@std@@@std@@@2@$0A@@std@@@std@@IBE?AU?$_Tree_find_result@PAU?$_Tree_node@U?$pair@$$CBKV?$vector@U_VECINFO@@V?$allocator@U_VECINFO@@@std@@@std@@@std@@PAX@std@@@1@ABK@Z ; std::_Tree<std::_Tmap_traits<unsigned long,std::vector<_VECINFO,std::allocator<_VECINFO> >,std::less<unsigned long>,std::allocator<std::pair<unsigned long const ,std::vector<_VECINFO,std::allocator<_VECINFO> > > >,0> >::_Find_lower_bound<unsigned long>

; 1624 :         return !_Bound->_Isnil && !_DEBUG_LT_PRED(_Getcomp(), _Keyval, _Traits::_Kfn(_Bound->_Myval));

  00035	8b 45 e8	 mov	 eax, DWORD PTR __Loc$4[ebp+8]
  00038	8b 4d 08	 mov	 ecx, DWORD PTR _dwIndex$[ebp]
  0003b	80 78 0d 00	 cmp	 BYTE PTR [eax+13], 0
  0003f	75 0d		 jne	 SHORT $LN114@AddPatrolI
; File C:\Program Files\Microsoft Visual Studio\2022\Professional\VC\Tools\MSVC\14.44.35207\include\type_traits

; 2380 :         return _Left < _Right;

  00041	3b 48 10	 cmp	 ecx, DWORD PTR [eax+16]
; File C:\Program Files\Microsoft Visual Studio\2022\Professional\VC\Tools\MSVC\14.44.35207\include\xtree

; 1624 :         return !_Bound->_Isnil && !_DEBUG_LT_PRED(_Getcomp(), _Keyval, _Traits::_Kfn(_Bound->_Myval));

  00044	72 08		 jb	 SHORT $LN114@AddPatrolI

; 37   :     _Tree_unchecked_const_iterator(_Nodeptr _Pnode, const _Mytree* _Plist) noexcept : _Ptr(_Pnode) {

  00046	3b 06		 cmp	 eax, DWORD PTR [esi]
; File C:\IAGOS\server\v18\Source\Source\_Common\PathObj.cpp

; 124  : 	if( it != m_mapPatrolPath.end() )

  00048	0f 85 ac 00 00
	00		 jne	 $LN80@AddPatrolI
$LN114@AddPatrolI:
; File C:\Program Files\Microsoft Visual Studio\2022\Professional\VC\Tools\MSVC\14.44.35207\include\vector

; 400  :     _CONSTEXPR20 _Vector_val() noexcept : _Myfirst(), _Mylast(), _Myend() {}

  0004e	c7 45 e0 00 00
	00 00		 mov	 DWORD PTR _pTemp$3[ebp], 0
  00055	c7 45 e4 00 00
	00 00		 mov	 DWORD PTR _pTemp$3[ebp+4], 0
  0005c	c7 45 e8 00 00
	00 00		 mov	 DWORD PTR _pTemp$3[ebp+8], 0
; File C:\Program Files\Microsoft Visual Studio\2022\Professional\VC\Tools\MSVC\14.44.35207\include\utility

; 274  :         : first(_STD forward<_Other1>(_Val1)), second(_STD forward<_Other2>(_Val2)) {

  00063	8d 45 e0	 lea	 eax, DWORD PTR _pTemp$3[ebp]
  00066	89 4d d0	 mov	 DWORD PTR $T2[ebp], ecx
  00069	50		 push	 eax
  0006a	8d 4d d4	 lea	 ecx, DWORD PTR $T2[ebp+4]
; File C:\IAGOS\server\v18\Source\Source\_Common\PathObj.cpp

; 131  : 		vector<_VECINFO> pTemp;

  0006d	c7 45 fc 00 00
	00 00		 mov	 DWORD PTR __$EHRec$[ebp+8], 0
; File C:\Program Files\Microsoft Visual Studio\2022\Professional\VC\Tools\MSVC\14.44.35207\include\utility

; 274  :         : first(_STD forward<_Other1>(_Val1)), second(_STD forward<_Other2>(_Val2)) {

  00074	e8 00 00 00 00	 call	 ??0?$vector@U_VECINFO@@V?$allocator@U_VECINFO@@@std@@@std@@QAE@ABV01@@Z ; std::vector<_VECINFO,std::allocator<_VECINFO> >::vector<_VECINFO,std::allocator<_VECINFO> >
; File C:\IAGOS\server\v18\Source\Source\_Common\PathObj.cpp

; 133  : 		m_mapPatrolPath.insert( map< DWORD, vector<_VECINFO> >::value_type(dwIndex, pTemp) );

  00079	8d 45 d0	 lea	 eax, DWORD PTR $T2[ebp]
  0007c	c6 45 fc 01	 mov	 BYTE PTR __$EHRec$[ebp+8], 1
  00080	50		 push	 eax
  00081	8d 45 ec	 lea	 eax, DWORD PTR $T5[ebp]
  00084	8b ce		 mov	 ecx, esi
  00086	50		 push	 eax
  00087	e8 00 00 00 00	 call	 ??$insert@$0A@$0A@@?$_Tree@V?$_Tmap_traits@KV?$vector@U_VECINFO@@V?$allocator@U_VECINFO@@@std@@@std@@U?$less@K@2@V?$allocator@U?$pair@$$CBKV?$vector@U_VECINFO@@V?$allocator@U_VECINFO@@@std@@@std@@@std@@@2@$0A@@std@@@std@@QAE?AU?$pair@V?$_Tree_iterator@V?$_Tree_val@U?$_Tree_simple_types@U?$pair@$$CBKV?$vector@U_VECINFO@@V?$allocator@U_VECINFO@@@std@@@std@@@std@@@std@@@std@@@std@@_N@1@$$QAU?$pair@$$CBKV?$vector@U_VECINFO@@V?$allocator@U_VECINFO@@@std@@@std@@@1@@Z ; std::_Tree<std::_Tmap_traits<unsigned long,std::vector<_VECINFO,std::allocator<_VECINFO> >,std::less<unsigned long>,std::allocator<std::pair<unsigned long const ,std::vector<_VECINFO,std::allocator<_VECINFO> > > >,0> >::insert<0,0>
; File C:\Program Files\Microsoft Visual Studio\2022\Professional\VC\Tools\MSVC\14.44.35207\include\vector

; 830  :         _Tidy();

  0008c	8d 4d d4	 lea	 ecx, DWORD PTR $T2[ebp+4]
  0008f	e8 00 00 00 00	 call	 ?_Tidy@?$vector@U_VECINFO@@V?$allocator@U_VECINFO@@@std@@@std@@AAEXXZ ; std::vector<_VECINFO,std::allocator<_VECINFO> >::_Tidy

; 2090 :         if (_Myfirst) { // destroy and deallocate old array

  00094	8b 75 e0	 mov	 esi, DWORD PTR _pTemp$3[ebp]
  00097	85 f6		 test	 esi, esi
  00099	74 5f		 je	 SHORT $LN80@AddPatrolI

; 2091 :             _STD _Destroy_range(_Myfirst, _Mylast, _Al);

  0009b	8b 4d e4	 mov	 ecx, DWORD PTR _pTemp$3[ebp+4]
  0009e	8b c6		 mov	 eax, esi
  000a0	3b c1		 cmp	 eax, ecx
; File C:\Program Files\Microsoft Visual Studio\2022\Professional\VC\Tools\MSVC\14.44.35207\include\xmemory

; 1102 :         for (; _First != _Last; ++_First) {

  000a2	74 0e		 je	 SHORT $LN85@AddPatrolI
$LL86@AddPatrolI:

; 1103 :             allocator_traits<_Alloc>::destroy(_Al, _STD _Unfancy(_First));

  000a4	c7 40 18 00 00
	00 00		 mov	 DWORD PTR [eax+24], OFFSET ??_7CTimer@@6B@
  000ab	83 c0 38	 add	 eax, 56			; 00000038H
  000ae	3b c1		 cmp	 eax, ecx
  000b0	75 f2		 jne	 SHORT $LL86@AddPatrolI
$LN85@AddPatrolI:
; File C:\Program Files\Microsoft Visual Studio\2022\Professional\VC\Tools\MSVC\14.44.35207\include\vector

; 2093 :             _Al.deallocate(_Myfirst, static_cast<size_type>(_Myend - _Myfirst));

  000b2	8b 4d e8	 mov	 ecx, DWORD PTR _pTemp$3[ebp+8]
  000b5	b8 93 24 49 92	 mov	 eax, -1840700269	; 92492493H
  000ba	2b ce		 sub	 ecx, esi
  000bc	f7 e9		 imul	 ecx
  000be	03 d1		 add	 edx, ecx
  000c0	c1 fa 05	 sar	 edx, 5
  000c3	8b c2		 mov	 eax, edx
  000c5	c1 e8 1f	 shr	 eax, 31			; 0000001fH
  000c8	03 c2		 add	 eax, edx
; File C:\Program Files\Microsoft Visual Studio\2022\Professional\VC\Tools\MSVC\14.44.35207\include\xmemory

; 985  :         _STD _Deallocate<_New_alignof<_Ty>>(_Ptr, sizeof(_Ty) * _Count);

  000ca	8d 0c c5 00 00
	00 00		 lea	 ecx, DWORD PTR [eax*8]
  000d1	2b c8		 sub	 ecx, eax
  000d3	8b c6		 mov	 eax, esi
  000d5	c1 e1 03	 shl	 ecx, 3

; 284  :         if (_Bytes >= _Big_allocation_threshold) {

  000d8	81 f9 00 10 00
	00		 cmp	 ecx, 4096		; 00001000H
  000de	72 10		 jb	 SHORT $LN99@AddPatrolI

; 205  :     const uintptr_t _Ptr_container   = _Ptr_user[-1];

  000e0	8b 70 fc	 mov	 esi, DWORD PTR [eax-4]
  000e3	83 c1 23	 add	 ecx, 35			; 00000023H
  000e6	2b c6		 sub	 eax, esi

; 219  :     _STL_VERIFY(_Back_shift >= _Min_back_shift && _Back_shift <= _Non_user_size, "invalid argument");

  000e8	83 c0 fc	 add	 eax, -4			; fffffffcH
  000eb	83 f8 1f	 cmp	 eax, 31			; 0000001fH
  000ee	77 1c		 ja	 SHORT $LN118@AddPatrolI
$LN99@AddPatrolI:

; 289  :         ::operator delete(_Ptr, _Bytes);

  000f0	51		 push	 ecx
  000f1	56		 push	 esi
  000f2	e8 00 00 00 00	 call	 ??3@YAXPAXI@Z		; operator delete
  000f7	83 c4 08	 add	 esp, 8
$LN80@AddPatrolI:
; File C:\IAGOS\server\v18\Source\Source\_Common\PathObj.cpp

; 135  : }

  000fa	8b 4d f4	 mov	 ecx, DWORD PTR __$EHRec$[ebp]
  000fd	64 89 0d 00 00
	00 00		 mov	 DWORD PTR fs:0, ecx
  00104	59		 pop	 ecx
  00105	5e		 pop	 esi
  00106	8b e5		 mov	 esp, ebp
  00108	5d		 pop	 ebp
  00109	c2 04 00	 ret	 4
$LN118@AddPatrolI:
; File C:\Program Files\Microsoft Visual Studio\2022\Professional\VC\Tools\MSVC\14.44.35207\include\xmemory

; 219  :     _STL_VERIFY(_Back_shift >= _Min_back_shift && _Back_shift <= _Non_user_size, "invalid argument");

  0010c	6a 00		 push	 0
  0010e	6a 00		 push	 0
  00110	6a 00		 push	 0
  00112	6a 00		 push	 0
  00114	6a 00		 push	 0
  00116	e8 00 00 00 00	 call	 __invoke_watson
$LN116@AddPatrolI:
  0011b	cc		 int	 3
_TEXT	ENDS
;	COMDAT text$x
text$x	SEGMENT
__unwindfunclet$?AddPatrolIndex@CPatrolPath@@QAEXK@Z$0:
  00000	8d 4d e0	 lea	 ecx, DWORD PTR _pTemp$3[ebp]
  00003	e9 00 00 00 00	 jmp	 ??1?$vector@U_VECINFO@@V?$allocator@U_VECINFO@@@std@@@std@@QAE@XZ ; std::vector<_VECINFO,std::allocator<_VECINFO> >::~vector<_VECINFO,std::allocator<_VECINFO> >
__unwindfunclet$?AddPatrolIndex@CPatrolPath@@QAEXK@Z$1:
  00008	8d 4d d0	 lea	 ecx, DWORD PTR $T2[ebp]
  0000b	e9 00 00 00 00	 jmp	 ??1?$pair@$$CBKV?$vector@U_VECINFO@@V?$allocator@U_VECINFO@@@std@@@std@@@std@@QAE@XZ
  00010	cc		 int	 3
  00011	cc		 int	 3
  00012	cc		 int	 3
  00013	cc		 int	 3
  00014	cc		 int	 3
__ehhandler$?AddPatrolIndex@CPatrolPath@@QAEXK@Z:
  00015	90		 npad	 1
  00016	90		 npad	 1
  00017	8b 54 24 08	 mov	 edx, DWORD PTR [esp+8]
  0001b	8d 42 0c	 lea	 eax, DWORD PTR [edx+12]
  0001e	8b 4a d4	 mov	 ecx, DWORD PTR [edx-44]
  00021	33 c8		 xor	 ecx, eax
  00023	e8 00 00 00 00	 call	 @__security_check_cookie@4
  00028	b8 00 00 00 00	 mov	 eax, OFFSET __ehfuncinfo$?AddPatrolIndex@CPatrolPath@@QAEXK@Z
  0002d	e9 00 00 00 00	 jmp	 ___CxxFrameHandler3
text$x	ENDS
?AddPatrolIndex@CPatrolPath@@QAEXK@Z ENDP		; CPatrolPath::AddPatrolIndex
; Function compile flags: /Ogtp
; File C:\IAGOS\server\v18\Source\Source\_Common\PathObj.cpp
; File C:\Program Files\Microsoft Visual Studio\2022\Professional\VC\Tools\MSVC\14.44.35207\include\vector
; File C:\IAGOS\server\v18\Source\Source\_Common\PathObj.cpp
; File C:\Program Files\Microsoft Visual Studio\2022\Professional\VC\Tools\MSVC\14.44.35207\atlmfc\include\cstringt.h
; File C:\IAGOS\server\v18\Source\Source\_Common\PathObj.cpp
; File C:\Program Files\Microsoft Visual Studio\2022\Professional\VC\Tools\MSVC\14.44.35207\include\vector
; File C:\IAGOS\server\v18\Source\Source\_Common\PathObj.cpp
; File C:\Program Files\Microsoft Visual Studio\2022\Professional\VC\Tools\MSVC\14.44.35207\atlmfc\include\cstringt.h
; File C:\IAGOS\server\v18\Source\Source\_Common\PathObj.cpp
; File C:\Program Files\Microsoft Visual Studio\2022\Professional\VC\Tools\MSVC\14.44.35207\include\vector
; File C:\IAGOS\server\v18\Source\Source\_Common\PathObj.cpp
; File C:\Program Files\Microsoft Visual Studio\2022\Professional\VC\Tools\MSVC\14.44.35207\include\vector
; File C:\Program Files\Microsoft Visual Studio\2022\Professional\VC\Tools\MSVC\14.44.35207\include\xutility
; File C:\Program Files\Microsoft Visual Studio\2022\Professional\VC\Tools\MSVC\14.44.35207\include\vector
; File C:\IAGOS\server\v18\Source\Source\_Common\PathObj.cpp
; File C:\Program Files\Microsoft Visual Studio\2022\Professional\VC\Tools\MSVC\14.44.35207\include\vector
; File C:\IAGOS\server\v18\Source\Source\_Common\PathObj.cpp
; File C:\Program Files\Microsoft Visual Studio\2022\Professional\VC\Tools\MSVC\14.44.35207\include\vector
; File C:\IAGOS\server\v18\Source\Source\_Common\PathObj.cpp
; File C:\Program Files\Microsoft Visual Studio\2022\Professional\VC\Tools\MSVC\14.44.35207\include\vector
; File C:\IAGOS\server\v18\Source\Source\_Common\PathObj.cpp
; File C:\IAGOS\server\v18\Source\Source\DX_SDK\d3dx9math.inl
; File C:\IAGOS\server\v18\Source\Source\_Common\PathObj.cpp
; File C:\IAGOS\server\v18\Source\Source\DX_SDK\d3dx9math.inl
; File C:\IAGOS\server\v18\Source\Source\_Common\PathObj.cpp
; File C:\IAGOS\server\v18\Source\Source\DX_SDK\d3dx9math.inl
; File C:\Program Files (x86)\Windows Kits\10\Include\10.0.26100.0\ucrt\corecrt_math.h
; File C:\IAGOS\server\v18\Source\Source\_Common\PathObj.cpp
; File C:\Program Files\Microsoft Visual Studio\2022\Professional\VC\Tools\MSVC\14.44.35207\include\vector
; File C:\IAGOS\server\v18\Source\Source\_Common\PathObj.cpp
; File C:\Program Files\Microsoft Visual Studio\2022\Professional\VC\Tools\MSVC\14.44.35207\include\vector
; File C:\Program Files\Microsoft Visual Studio\2022\Professional\VC\Tools\MSVC\14.44.35207\include\xmemory
; File C:\IAGOS\server\v18\Source\Source\_Common\PathObj.cpp
; File C:\Program Files\Microsoft Visual Studio\2022\Professional\VC\Tools\MSVC\14.44.35207\include\xmemory
; File C:\IAGOS\server\v18\Source\Source\_Common\PathObj.cpp
;	COMDAT ?LoadPatrol@CPatrolPath@@QAEHPBD@Z
_TEXT	SEGMENT
_v3Pos$2 = -3760					; size = 12
_v3Pos2$3 = -3748					; size = 12
_v3Pos1$4 = -3736					; size = 12
tv186 = -3724						; size = 4
tv174 = -3720						; size = 4
tv198 = -3716						; size = 4
_v3PosList$5 = -3712					; size = 12
_s$ = -3700						; size = 3560
_vecInfoBackup$6 = -140					; size = 56
_vecInfo$7 = -84					; size = 56
_v3Dir$8 = -28						; size = 12
__$ArrayPad$ = -16					; size = 4
__$EHRec$ = -12						; size = 12
_szFileName$ = 8					; size = 4
?LoadPatrol@CPatrolPath@@QAEHPBD@Z PROC			; CPatrolPath::LoadPatrol, COMDAT
; _this$ = ecx

; 152  : {

  00000	55		 push	 ebp
  00001	8b ec		 mov	 ebp, esp
  00003	6a ff		 push	 -1
  00005	68 00 00 00 00	 push	 __ehhandler$?LoadPatrol@CPatrolPath@@QAEHPBD@Z
  0000a	64 a1 00 00 00
	00		 mov	 eax, DWORD PTR fs:0
  00010	50		 push	 eax
  00011	81 ec a4 0e 00
	00		 sub	 esp, 3748		; 00000ea4H
  00017	a1 00 00 00 00	 mov	 eax, DWORD PTR ___security_cookie
  0001c	33 c5		 xor	 eax, ebp
  0001e	89 45 f0	 mov	 DWORD PTR __$ArrayPad$[ebp], eax
  00021	53		 push	 ebx
  00022	56		 push	 esi
  00023	57		 push	 edi
  00024	50		 push	 eax
  00025	8d 45 f4	 lea	 eax, DWORD PTR __$EHRec$[ebp]
  00028	64 a3 00 00 00
	00		 mov	 DWORD PTR fs:0, eax
  0002e	8b d9		 mov	 ebx, ecx
  00030	8b 75 08	 mov	 esi, DWORD PTR _szFileName$[ebp]

; 153  : 	CScript s;

  00033	8d 8d 8c f1 ff
	ff		 lea	 ecx, DWORD PTR _s$[ebp]
  00039	6a 00		 push	 0
  0003b	e8 00 00 00 00	 call	 ??0CScript@@QAE@H@Z	; CScript::CScript

; 154  : 	if( s.Load( szFileName, FALSE ) )

  00040	6a 00		 push	 0
  00042	6a 00		 push	 0
  00044	56		 push	 esi
  00045	8d 8d 8c f1 ff
	ff		 lea	 ecx, DWORD PTR _s$[ebp]
  0004b	c7 45 fc 00 00
	00 00		 mov	 DWORD PTR __$EHRec$[ebp+8], 0
  00052	e8 00 00 00 00	 call	 ?Load@CScript@@QAEHPBDHH@Z ; CScript::Load
  00057	85 c0		 test	 eax, eax
  00059	0f 84 3e 04 00
	00		 je	 $LN6@LoadPatrol

; 155  : 	{
; 156  : 		Clear();

  0005f	8b cb		 mov	 ecx, ebx
  00061	e8 00 00 00 00	 call	 ?Clear@CPatrolPath@@QAEXXZ ; CPatrolPath::Clear

; 157  : 		
; 158  : 		DWORD nIndex = 0;

  00066	33 ff		 xor	 edi, edi
; File C:\Program Files\Microsoft Visual Studio\2022\Professional\VC\Tools\MSVC\14.44.35207\include\vector

; 400  :     _CONSTEXPR20 _Vector_val() noexcept : _Myfirst(), _Mylast(), _Myend() {}

  00068	89 bd 80 f1 ff
	ff		 mov	 DWORD PTR _v3PosList$5[ebp], edi
  0006e	89 bd 84 f1 ff
	ff		 mov	 DWORD PTR _v3PosList$5[ebp+4], edi
  00074	89 bd 88 f1 ff
	ff		 mov	 DWORD PTR _v3PosList$5[ebp+8], edi
; File C:\IAGOS\server\v18\Source\Source\_Common\PathObj.cpp

; 160  : 		vector<D3DXVECTOR3> v3PosList;

  0007a	8d 4d c4	 lea	 ecx, DWORD PTR _vecInfo$7[ebp+24]
  0007d	c6 45 fc 01	 mov	 BYTE PTR __$EHRec$[ebp+8], 1
  00081	e8 00 00 00 00	 call	 ??0CTimer@@QAE@XZ	; CTimer::CTimer

; 161  : 		_VECINFO vecInfo;

  00086	8d 4d 8c	 lea	 ecx, DWORD PTR _vecInfoBackup$6[ebp+24]
  00089	c6 45 fc 02	 mov	 BYTE PTR __$EHRec$[ebp+8], 2
  0008d	e8 00 00 00 00	 call	 ??0CTimer@@QAE@XZ	; CTimer::CTimer

; 162  : 		_VECINFO vecInfoBackup;
; 163  : 		
; 164  : 		s.GetToken();

  00092	57		 push	 edi
  00093	8d 8d 8c f1 ff
	ff		 lea	 ecx, DWORD PTR _s$[ebp]
  00099	c6 45 fc 03	 mov	 BYTE PTR __$EHRec$[ebp+8], 3
  0009d	e8 00 00 00 00	 call	 ?GetToken@CScript@@UAEHH@Z ; CScript::GetToken

; 165  : 		
; 166  : 		while( s.tok != FINISHED )

  000a2	83 bd d0 f9 ff
	ff 15		 cmp	 DWORD PTR _s$[ebp+2116], 21 ; 00000015H
  000a9	0f 84 8d 03 00
	00		 je	 $LN3@LoadPatrol
  000af	90		 npad	 1
$LL2@LoadPatrol:
; File C:\Program Files\Microsoft Visual Studio\2022\Professional\VC\Tools\MSVC\14.44.35207\atlmfc\include\cstringt.h

; 184  : 		return _mbscmp( reinterpret_cast< const unsigned char* >( pszA ), reinterpret_cast< const unsigned char* >( pszB ) );

  000b0	68 00 00 00 00	 push	 OFFSET ??_C@_05JBOMLEMN@INDEX@
  000b5	ff b5 ac f1 ff
	ff		 push	 DWORD PTR _s$[ebp+32]
  000bb	e8 00 00 00 00	 call	 __mbscmp
  000c0	83 c4 08	 add	 esp, 8

; 2490 : 		return(str1.Compare(psz2) == 0);

  000c3	85 c0		 test	 eax, eax
; File C:\IAGOS\server\v18\Source\Source\_Common\PathObj.cpp

; 168  : 			if( s.Token == _T( "INDEX" ) )

  000c5	75 2b		 jne	 SHORT $LN8@LoadPatrol
; File C:\Program Files\Microsoft Visual Studio\2022\Professional\VC\Tools\MSVC\14.44.35207\include\vector

; 1812 :         if (_Myfirst == _Mylast) { // already empty, nothing to do

  000c7	8b 85 80 f1 ff
	ff		 mov	 eax, DWORD PTR _v3PosList$5[ebp]
  000cd	3b 85 84 f1 ff
	ff		 cmp	 eax, DWORD PTR _v3PosList$5[ebp+4]
  000d3	74 06		 je	 SHORT $LN103@LoadPatrol

; 1813 :             // This is an optimization for debug mode: we can avoid taking the debug lock to invalidate iterators.
; 1814 :             // Note that when clearing an empty vector, this will preserve past-the-end iterators, which is allowed by
; 1815 :             // N4950 [sequence.reqmts]/54 "a.clear() [...] may invalidate the past-the-end iterator".
; 1816 :             return;
; 1817 :         }
; 1818 : 
; 1819 :         _My_data._Orphan_all();
; 1820 :         _Destroy_range(_Myfirst, _Mylast, _Getal());
; 1821 :         _ASAN_VECTOR_MODIFY(static_cast<difference_type>(_Myfirst - _Mylast)); // negative when destroying elements
; 1822 :         _Mylast = _Myfirst;

  000d5	89 85 84 f1 ff
	ff		 mov	 DWORD PTR _v3PosList$5[ebp+4], eax
$LN103@LoadPatrol:
; File C:\IAGOS\server\v18\Source\Source\_Common\PathObj.cpp

; 171  : 				nIndex = s.GetNumber();

  000db	6a 00		 push	 0
  000dd	8d 8d 8c f1 ff
	ff		 lea	 ecx, DWORD PTR _s$[ebp]
  000e3	e8 00 00 00 00	 call	 ?GetNumber@CScanner@@QAEHH@Z ; CScanner::GetNumber
  000e8	8b f8		 mov	 edi, eax

; 172  : 				AddPatrolIndex( nIndex );

  000ea	8b cb		 mov	 ecx, ebx
  000ec	57		 push	 edi
  000ed	e8 00 00 00 00	 call	 ?AddPatrolIndex@CPatrolPath@@QAEXK@Z ; CPatrolPath::AddPatrolIndex
$LN8@LoadPatrol:

; 173  : 			}
; 174  : 			
; 175  : 			s.GetToken();

  000f2	6a 00		 push	 0
  000f4	8d 8d 8c f1 ff
	ff		 lea	 ecx, DWORD PTR _s$[ebp]
  000fa	e8 00 00 00 00	 call	 ?GetToken@CScript@@UAEHH@Z ; CScript::GetToken
$LN58@LoadPatrol:
; File C:\Program Files\Microsoft Visual Studio\2022\Professional\VC\Tools\MSVC\14.44.35207\atlmfc\include\cstringt.h

; 184  : 		return _mbscmp( reinterpret_cast< const unsigned char* >( pszA ), reinterpret_cast< const unsigned char* >( pszB ) );

  000ff	6a 00		 push	 0
  00101	8d 8d 8c f1 ff
	ff		 lea	 ecx, DWORD PTR _s$[ebp]
  00107	e8 00 00 00 00	 call	 ?GetNumber@CScanner@@QAEHH@Z ; CScanner::GetNumber
  0010c	68 00 00 00 00	 push	 OFFSET ??_C@_01CELHOKLL@?$HN@
  00111	ff b5 ac f1 ff
	ff		 push	 DWORD PTR _s$[ebp+32]
  00117	8b f0		 mov	 esi, eax
  00119	e8 00 00 00 00	 call	 __mbscmp
  0011e	83 c4 08	 add	 esp, 8

; 2571 : 		return( str1.Compare( psz2 ) != 0 );

  00121	85 c0		 test	 eax, eax
; File C:\IAGOS\server\v18\Source\Source\_Common\PathObj.cpp

; 179  : 			while( s.Token != _T( "}" ) )

  00123	0f 84 bc 01 00
	00		 je	 $LN5@LoadPatrol

; 180  : 			{
; 181  : 				v3Pos.x = s.GetFloat();

  00129	6a 00		 push	 0
  0012b	8d 8d 8c f1 ff
	ff		 lea	 ecx, DWORD PTR _s$[ebp]
  00131	e8 00 00 00 00	 call	 ?GetFloat@CScanner@@QAEMH@Z ; CScanner::GetFloat
  00136	d9 9d 78 f1 ff
	ff		 fstp	 DWORD PTR tv174[ebp]
  0013c	f3 0f 10 85 78
	f1 ff ff	 movss	 xmm0, DWORD PTR tv174[ebp]

; 182  : 				v3Pos.y = s.GetFloat();

  00144	8d 8d 8c f1 ff
	ff		 lea	 ecx, DWORD PTR _s$[ebp]
  0014a	6a 00		 push	 0
  0014c	f3 0f 11 85 50
	f1 ff ff	 movss	 DWORD PTR _v3Pos$2[ebp], xmm0
  00154	e8 00 00 00 00	 call	 ?GetFloat@CScanner@@QAEMH@Z ; CScanner::GetFloat
  00159	d9 9d 74 f1 ff
	ff		 fstp	 DWORD PTR tv186[ebp]
  0015f	f3 0f 10 85 74
	f1 ff ff	 movss	 xmm0, DWORD PTR tv186[ebp]

; 183  : 				v3Pos.z = s.GetFloat();

  00167	8d 8d 8c f1 ff
	ff		 lea	 ecx, DWORD PTR _s$[ebp]
  0016d	6a 00		 push	 0
  0016f	f3 0f 11 85 54
	f1 ff ff	 movss	 DWORD PTR _v3Pos$2[ebp+4], xmm0
  00177	e8 00 00 00 00	 call	 ?GetFloat@CScanner@@QAEMH@Z ; CScanner::GetFloat
; File C:\Program Files\Microsoft Visual Studio\2022\Professional\VC\Tools\MSVC\14.44.35207\include\vector

; 844  :         if (_Mylast != _My_data._Myend) {

  0017c	8b 85 84 f1 ff
	ff		 mov	 eax, DWORD PTR _v3PosList$5[ebp+4]
; File C:\IAGOS\server\v18\Source\Source\_Common\PathObj.cpp

; 183  : 				v3Pos.z = s.GetFloat();

  00182	d9 9d 7c f1 ff
	ff		 fstp	 DWORD PTR tv198[ebp]
  00188	f3 0f 10 8d 7c
	f1 ff ff	 movss	 xmm1, DWORD PTR tv198[ebp]
  00190	f3 0f 11 8d 58
	f1 ff ff	 movss	 DWORD PTR _v3Pos$2[ebp+8], xmm1
; File C:\Program Files\Microsoft Visual Studio\2022\Professional\VC\Tools\MSVC\14.44.35207\include\vector

; 844  :         if (_Mylast != _My_data._Myend) {

  00198	3b 85 88 f1 ff
	ff		 cmp	 eax, DWORD PTR _v3PosList$5[ebp+8]
  0019e	74 27		 je	 SHORT $LN39@LoadPatrol
; File C:\Program Files\Microsoft Visual Studio\2022\Professional\VC\Tools\MSVC\14.44.35207\include\xutility

; 476  :         ::new (static_cast<void*>(_STD addressof(_Obj))) _Ty(_STD forward<_Types>(_Args)...);

  001a0	f3 0f 10 85 78
	f1 ff ff	 movss	 xmm0, DWORD PTR tv174[ebp]
  001a8	f3 0f 11 00	 movss	 DWORD PTR [eax], xmm0
  001ac	f3 0f 10 85 74
	f1 ff ff	 movss	 xmm0, DWORD PTR tv186[ebp]
  001b4	f3 0f 11 40 04	 movss	 DWORD PTR [eax+4], xmm0
  001b9	f3 0f 11 48 08	 movss	 DWORD PTR [eax+8], xmm1
; File C:\Program Files\Microsoft Visual Studio\2022\Professional\VC\Tools\MSVC\14.44.35207\include\vector

; 869  :         ++_Mylast;

  001be	83 85 84 f1 ff
	ff 0c		 add	 DWORD PTR _v3PosList$5[ebp+4], 12 ; 0000000cH

; 845  :             return _Emplace_back_with_unused_capacity(_STD forward<_Valty>(_Val)...);

  001c5	eb 13		 jmp	 SHORT $LN38@LoadPatrol
$LN39@LoadPatrol:

; 846  :         }
; 847  : 
; 848  :         return *_Emplace_reallocate(_Mylast, _STD forward<_Valty>(_Val)...);

  001c7	8d 8d 50 f1 ff
	ff		 lea	 ecx, DWORD PTR _v3Pos$2[ebp]
  001cd	51		 push	 ecx
  001ce	50		 push	 eax
  001cf	8d 8d 80 f1 ff
	ff		 lea	 ecx, DWORD PTR _v3PosList$5[ebp]
  001d5	e8 00 00 00 00	 call	 ??$_Emplace_reallocate@ABUD3DXVECTOR3@@@?$vector@UD3DXVECTOR3@@V?$allocator@UD3DXVECTOR3@@@std@@@std@@AAEPAUD3DXVECTOR3@@QAU2@ABU2@@Z ; std::vector<D3DXVECTOR3,std::allocator<D3DXVECTOR3> >::_Emplace_reallocate<D3DXVECTOR3 const &>
$LN38@LoadPatrol:
; File C:\IAGOS\server\v18\Source\Source\_Common\PathObj.cpp

; 187  : 				if( nCount != 0 )

  001da	85 f6		 test	 esi, esi
  001dc	0f 84 1d ff ff
	ff		 je	 $LN58@LoadPatrol

; 188  : 				{
; 189  : 					vecInfo.m_vDir.x = s.GetFloat();

  001e2	6a 00		 push	 0
  001e4	8d 8d 8c f1 ff
	ff		 lea	 ecx, DWORD PTR _s$[ebp]
  001ea	e8 00 00 00 00	 call	 ?GetFloat@CScanner@@QAEMH@Z ; CScanner::GetFloat
  001ef	d9 5d ac	 fstp	 DWORD PTR _vecInfo$7[ebp]

; 190  : 					vecInfo.m_vDir.y = s.GetFloat();

  001f2	6a 00		 push	 0
  001f4	8d 8d 8c f1 ff
	ff		 lea	 ecx, DWORD PTR _s$[ebp]
  001fa	e8 00 00 00 00	 call	 ?GetFloat@CScanner@@QAEMH@Z ; CScanner::GetFloat
  001ff	d9 5d b0	 fstp	 DWORD PTR _vecInfo$7[ebp+4]

; 191  : 					vecInfo.m_vDir.z = s.GetFloat();

  00202	6a 00		 push	 0
  00204	8d 8d 8c f1 ff
	ff		 lea	 ecx, DWORD PTR _s$[ebp]
  0020a	e8 00 00 00 00	 call	 ?GetFloat@CScanner@@QAEMH@Z ; CScanner::GetFloat

; 192  : 					vecInfo.m_dwState = s.GetNumber();

  0020f	6a 00		 push	 0
  00211	8d 8d 8c f1 ff
	ff		 lea	 ecx, DWORD PTR _s$[ebp]
  00217	d9 5d b4	 fstp	 DWORD PTR _vecInfo$7[ebp+8]
  0021a	e8 00 00 00 00	 call	 ?GetNumber@CScanner@@QAEHH@Z ; CScanner::GetNumber

; 193  : 					vecInfo.m_dwDelay = s.GetNumber();

  0021f	6a 00		 push	 0
  00221	8d 8d 8c f1 ff
	ff		 lea	 ecx, DWORD PTR _s$[ebp]
  00227	89 45 bc	 mov	 DWORD PTR _vecInfo$7[ebp+16], eax
  0022a	e8 00 00 00 00	 call	 ?GetNumber@CScanner@@QAEHH@Z ; CScanner::GetNumber

; 194  : 					vecInfo.m_fLength = s.GetFloat();	

  0022f	6a 00		 push	 0
  00231	8d 8d 8c f1 ff
	ff		 lea	 ecx, DWORD PTR _s$[ebp]
  00237	89 45 c0	 mov	 DWORD PTR _vecInfo$7[ebp+20], eax
  0023a	e8 00 00 00 00	 call	 ?GetFloat@CScanner@@QAEMH@Z ; CScanner::GetFloat
  0023f	f3 0f 7e 45 ac	 movq	 xmm0, QWORD PTR _vecInfo$7[ebp]

; 195  : 					
; 196  : 					AddPatrolPath( nIndex, vecInfo );

  00244	83 ec 38	 sub	 esp, 56			; 00000038H
  00247	8b cc		 mov	 ecx, esp
  00249	d9 5d b8	 fstp	 DWORD PTR _vecInfo$7[ebp+12]
  0024c	57		 push	 edi
  0024d	66 0f d6 01	 movq	 QWORD PTR [ecx], xmm0
  00251	8b 45 b4	 mov	 eax, DWORD PTR _vecInfo$7[ebp+8]
  00254	89 41 08	 mov	 DWORD PTR [ecx+8], eax
  00257	f3 0f 10 45 b8	 movss	 xmm0, DWORD PTR _vecInfo$7[ebp+12]
  0025c	f3 0f 11 41 0c	 movss	 DWORD PTR [ecx+12], xmm0
  00261	8b 45 bc	 mov	 eax, DWORD PTR _vecInfo$7[ebp+16]
  00264	89 41 10	 mov	 DWORD PTR [ecx+16], eax
  00267	8b 45 c0	 mov	 eax, DWORD PTR _vecInfo$7[ebp+20]
  0026a	89 41 14	 mov	 DWORD PTR [ecx+20], eax
  0026d	c7 41 18 00 00
	00 00		 mov	 DWORD PTR [ecx+24], OFFSET ??_7CTimer@@6B@
  00274	f2 0f 10 45 cc	 movsd	 xmm0, QWORD PTR _vecInfo$7[ebp+32]
  00279	f2 0f 11 41 20	 movsd	 QWORD PTR [ecx+32], xmm0
  0027e	f2 0f 10 45 d4	 movsd	 xmm0, QWORD PTR _vecInfo$7[ebp+40]
  00283	f2 0f 11 41 28	 movsd	 QWORD PTR [ecx+40], xmm0
  00288	f3 0f 10 45 dc	 movss	 xmm0, DWORD PTR _vecInfo$7[ebp+48]
  0028d	f3 0f 11 41 30	 movss	 DWORD PTR [ecx+48], xmm0
  00292	8b cb		 mov	 ecx, ebx
  00294	e8 00 00 00 00	 call	 ?AddPatrolPath@CPatrolPath@@QAEXKU_VECINFO@@@Z ; CPatrolPath::AddPatrolPath

; 197  : 				}	
; 198  : 				
; 199  : 				if( nCount == 1 )

  00299	83 fe 01	 cmp	 esi, 1
  0029c	0f 85 5d fe ff
	ff		 jne	 $LN58@LoadPatrol

; 200  : 				{
; 201  : 					vecInfoBackup = vecInfo;
; 202  : 				}
; 203  : 				
; 204  : 				nCount = s.GetNumber();
; 205  : 			}

  002a2	f3 0f 7e 45 ac	 movq	 xmm0, QWORD PTR _vecInfo$7[ebp]
  002a7	8b 45 b4	 mov	 eax, DWORD PTR _vecInfo$7[ebp+8]
  002aa	66 0f d6 85 74
	ff ff ff	 movq	 QWORD PTR _vecInfoBackup$6[ebp], xmm0
  002b2	f3 0f 10 45 b8	 movss	 xmm0, DWORD PTR _vecInfo$7[ebp+12]
  002b7	f3 0f 11 45 80	 movss	 DWORD PTR _vecInfoBackup$6[ebp+12], xmm0
  002bc	0f 10 45 cc	 movups	 xmm0, XMMWORD PTR _vecInfo$7[ebp+32]
  002c0	89 85 7c ff ff
	ff		 mov	 DWORD PTR _vecInfoBackup$6[ebp+8], eax
  002c6	8b 45 bc	 mov	 eax, DWORD PTR _vecInfo$7[ebp+16]
  002c9	0f 11 45 94	 movups	 XMMWORD PTR _vecInfoBackup$6[ebp+32], xmm0
  002cd	89 45 84	 mov	 DWORD PTR _vecInfoBackup$6[ebp+16], eax
  002d0	f3 0f 10 45 dc	 movss	 xmm0, DWORD PTR _vecInfo$7[ebp+48]
  002d5	8b 45 c0	 mov	 eax, DWORD PTR _vecInfo$7[ebp+20]
  002d8	89 45 88	 mov	 DWORD PTR _vecInfoBackup$6[ebp+20], eax
  002db	f3 0f 11 45 a4	 movss	 DWORD PTR _vecInfoBackup$6[ebp+48], xmm0
  002e0	e9 1a fe ff ff	 jmp	 $LN58@LoadPatrol
$LN5@LoadPatrol:

; 207  : 			D3DXVECTOR3	v3Pos1 = v3PosList[0];

  002e5	8b b5 80 f1 ff
	ff		 mov	 esi, DWORD PTR _v3PosList$5[ebp]
; File C:\Program Files\Microsoft Visual Studio\2022\Professional\VC\Tools\MSVC\14.44.35207\include\vector

; 1915 :         return static_cast<size_type>(_My_data._Mylast - _My_data._Myfirst);

  002eb	8b 8d 84 f1 ff
	ff		 mov	 ecx, DWORD PTR _v3PosList$5[ebp+4]
  002f1	2b ce		 sub	 ecx, esi
; File C:\IAGOS\server\v18\Source\Source\_Common\PathObj.cpp

; 207  : 			D3DXVECTOR3	v3Pos1 = v3PosList[0];

  002f3	8b 46 08	 mov	 eax, DWORD PTR [esi+8]
  002f6	f3 0f 7e 06	 movq	 xmm0, QWORD PTR [esi]
  002fa	89 85 70 f1 ff
	ff		 mov	 DWORD PTR _v3Pos1$4[ebp+8], eax
; File C:\Program Files\Microsoft Visual Studio\2022\Professional\VC\Tools\MSVC\14.44.35207\include\vector

; 1915 :         return static_cast<size_type>(_My_data._Mylast - _My_data._Myfirst);

  00300	b8 ab aa aa 2a	 mov	 eax, 715827883		; 2aaaaaabH
  00305	f7 e9		 imul	 ecx
; File C:\IAGOS\server\v18\Source\Source\_Common\PathObj.cpp

; 207  : 			D3DXVECTOR3	v3Pos1 = v3PosList[0];

  00307	66 0f d6 85 68
	f1 ff ff	 movq	 QWORD PTR _v3Pos1$4[ebp], xmm0
; File C:\Program Files\Microsoft Visual Studio\2022\Professional\VC\Tools\MSVC\14.44.35207\include\vector

; 1915 :         return static_cast<size_type>(_My_data._Mylast - _My_data._Myfirst);

  0030f	d1 fa		 sar	 edx, 1
  00311	8b c2		 mov	 eax, edx
  00313	c1 e8 1f	 shr	 eax, 31			; 0000001fH
  00316	03 c2		 add	 eax, edx
  00318	8d 04 40	 lea	 eax, DWORD PTR [eax+eax*2]
; File C:\IAGOS\server\v18\Source\Source\_Common\PathObj.cpp

; 208  : 			D3DXVECTOR3	v3Pos2 = v3PosList[v3PosList.size()-1];

  0031b	f3 0f 7e 44 86
	f4		 movq	 xmm0, QWORD PTR [esi+eax*4-12]
  00321	8b 44 86 fc	 mov	 eax, DWORD PTR [esi+eax*4-4]
  00325	66 0f d6 85 5c
	f1 ff ff	 movq	 QWORD PTR _v3Pos2$3[ebp], xmm0
; File C:\IAGOS\server\v18\Source\Source\DX_SDK\d3dx9math.inl

; 1752 :     pOut->x = pV1->x - pV2->x;

  0032d	f3 0f 10 85 68
	f1 ff ff	 movss	 xmm0, DWORD PTR _v3Pos1$4[ebp]
  00335	f3 0f 5c 85 5c
	f1 ff ff	 subss	 xmm0, DWORD PTR _v3Pos2$3[ebp]
; File C:\IAGOS\server\v18\Source\Source\_Common\PathObj.cpp

; 208  : 			D3DXVECTOR3	v3Pos2 = v3PosList[v3PosList.size()-1];

  0033d	89 85 64 f1 ff
	ff		 mov	 DWORD PTR _v3Pos2$3[ebp+8], eax

; 212  : 			D3DXVec3Normalize( &vecInfoBackup.m_vDir, &v3Dir );		

  00343	8d 45 e4	 lea	 eax, DWORD PTR _v3Dir$8[ebp]
  00346	50		 push	 eax
  00347	8d 85 74 ff ff
	ff		 lea	 eax, DWORD PTR _vecInfoBackup$6[ebp]
  0034d	50		 push	 eax
; File C:\IAGOS\server\v18\Source\Source\DX_SDK\d3dx9math.inl

; 1752 :     pOut->x = pV1->x - pV2->x;

  0034e	f3 0f 11 45 e4	 movss	 DWORD PTR _v3Dir$8[ebp], xmm0

; 1753 :     pOut->y = pV1->y - pV2->y;

  00353	f3 0f 10 85 6c
	f1 ff ff	 movss	 xmm0, DWORD PTR _v3Pos1$4[ebp+4]
  0035b	f3 0f 5c 85 60
	f1 ff ff	 subss	 xmm0, DWORD PTR _v3Pos2$3[ebp+4]
  00363	f3 0f 11 45 e8	 movss	 DWORD PTR _v3Dir$8[ebp+4], xmm0

; 1754 :     pOut->z = pV1->z - pV2->z;

  00368	f3 0f 10 85 70
	f1 ff ff	 movss	 xmm0, DWORD PTR _v3Pos1$4[ebp+8]
  00370	f3 0f 5c 85 64
	f1 ff ff	 subss	 xmm0, DWORD PTR _v3Pos2$3[ebp+8]
  00378	f3 0f 11 45 ec	 movss	 DWORD PTR _v3Dir$8[ebp+8], xmm0
; File C:\IAGOS\server\v18\Source\Source\_Common\PathObj.cpp

; 212  : 			D3DXVec3Normalize( &vecInfoBackup.m_vDir, &v3Dir );		

  0037d	e8 00 00 00 00	 call	 _D3DXVec3Normalize@8
; File C:\IAGOS\server\v18\Source\Source\DX_SDK\d3dx9math.inl

; 1684 :     return sqrtf(pV->x * pV->x + pV->y * pV->y + pV->z * pV->z);

  00382	f3 0f 10 4d e4	 movss	 xmm1, DWORD PTR _v3Dir$8[ebp]
  00387	f3 0f 10 45 e8	 movss	 xmm0, DWORD PTR _v3Dir$8[ebp+4]
  0038c	f3 0f 59 c0	 mulss	 xmm0, xmm0
  00390	f3 0f 59 c9	 mulss	 xmm1, xmm1
  00394	f3 0f 58 c8	 addss	 xmm1, xmm0
  00398	f3 0f 10 45 ec	 movss	 xmm0, DWORD PTR _v3Dir$8[ebp+8]
  0039d	f3 0f 59 c0	 mulss	 xmm0, xmm0
  003a1	f3 0f 58 c8	 addss	 xmm1, xmm0
; File C:\Program Files (x86)\Windows Kits\10\Include\10.0.26100.0\ucrt\corecrt_math.h

; 799  :             return (float)sqrt(_X);

  003a5	0f 5a c1	 cvtps2pd xmm0, xmm1
  003a8	0f 57 c9	 xorps	 xmm1, xmm1
  003ab	66 0f 2e c8	 ucomisd xmm1, xmm0
  003af	77 06		 ja	 SHORT $LN154@LoadPatrol
  003b1	f2 0f 51 c0	 sqrtsd	 xmm0, xmm0
  003b5	eb 05		 jmp	 SHORT $LN155@LoadPatrol
$LN154@LoadPatrol:
  003b7	e8 00 00 00 00	 call	 __libm_sse2_sqrt_precise
$LN155@LoadPatrol:
  003bc	f2 0f 5a c0	 cvtsd2ss xmm0, xmm0
; File C:\IAGOS\server\v18\Source\Source\_Common\PathObj.cpp

; 215  : 			AddPatrolPath( nIndex, vecInfoBackup );

  003c0	83 ec 38	 sub	 esp, 56			; 00000038H
  003c3	8b cc		 mov	 ecx, esp
  003c5	57		 push	 edi
  003c6	f3 0f 11 45 80	 movss	 DWORD PTR _vecInfoBackup$6[ebp+12], xmm0
  003cb	f3 0f 7e 85 74
	ff ff ff	 movq	 xmm0, QWORD PTR _vecInfoBackup$6[ebp]
  003d3	66 0f d6 01	 movq	 QWORD PTR [ecx], xmm0
  003d7	8b 85 7c ff ff
	ff		 mov	 eax, DWORD PTR _vecInfoBackup$6[ebp+8]
  003dd	89 41 08	 mov	 DWORD PTR [ecx+8], eax
  003e0	f3 0f 10 45 80	 movss	 xmm0, DWORD PTR _vecInfoBackup$6[ebp+12]
  003e5	f3 0f 11 41 0c	 movss	 DWORD PTR [ecx+12], xmm0
  003ea	8b 45 84	 mov	 eax, DWORD PTR _vecInfoBackup$6[ebp+16]
  003ed	89 41 10	 mov	 DWORD PTR [ecx+16], eax
  003f0	8b 45 88	 mov	 eax, DWORD PTR _vecInfoBackup$6[ebp+20]
  003f3	89 41 14	 mov	 DWORD PTR [ecx+20], eax
  003f6	c7 41 18 00 00
	00 00		 mov	 DWORD PTR [ecx+24], OFFSET ??_7CTimer@@6B@
  003fd	f2 0f 10 45 94	 movsd	 xmm0, QWORD PTR _vecInfoBackup$6[ebp+32]
  00402	f2 0f 11 41 20	 movsd	 QWORD PTR [ecx+32], xmm0
  00407	f2 0f 10 45 9c	 movsd	 xmm0, QWORD PTR _vecInfoBackup$6[ebp+40]
  0040c	f2 0f 11 41 28	 movsd	 QWORD PTR [ecx+40], xmm0
  00411	f3 0f 10 45 a4	 movss	 xmm0, DWORD PTR _vecInfoBackup$6[ebp+48]
  00416	f3 0f 11 41 30	 movss	 DWORD PTR [ecx+48], xmm0
  0041b	8b cb		 mov	 ecx, ebx
  0041d	e8 00 00 00 00	 call	 ?AddPatrolPath@CPatrolPath@@QAEXKU_VECINFO@@@Z ; CPatrolPath::AddPatrolPath

; 216  : 			
; 217  : 			
; 218  : 			s.GetToken();			

  00422	6a 00		 push	 0
  00424	8d 8d 8c f1 ff
	ff		 lea	 ecx, DWORD PTR _s$[ebp]
  0042a	e8 00 00 00 00	 call	 ?GetToken@CScript@@UAEHH@Z ; CScript::GetToken
  0042f	83 bd d0 f9 ff
	ff 15		 cmp	 DWORD PTR _s$[ebp+2116], 21 ; 00000015H
  00436	0f 85 74 fc ff
	ff		 jne	 $LL2@LoadPatrol
$LN3@LoadPatrol:
; File C:\Program Files\Microsoft Visual Studio\2022\Professional\VC\Tools\MSVC\14.44.35207\include\vector

; 2090 :         if (_Myfirst) { // destroy and deallocate old array

  0043c	8b b5 80 f1 ff
	ff		 mov	 esi, DWORD PTR _v3PosList$5[ebp]
; File C:\IAGOS\server\v18\Source\Source\_Common\PathObj.cpp

; 220  : 	}	

  00442	c7 45 8c 00 00
	00 00		 mov	 DWORD PTR _vecInfoBackup$6[ebp+24], OFFSET ??_7CTimer@@6B@
  00449	c7 45 c4 00 00
	00 00		 mov	 DWORD PTR _vecInfo$7[ebp+24], OFFSET ??_7CTimer@@6B@
; File C:\Program Files\Microsoft Visual Studio\2022\Professional\VC\Tools\MSVC\14.44.35207\include\vector

; 2090 :         if (_Myfirst) { // destroy and deallocate old array

  00450	85 f6		 test	 esi, esi
  00452	74 42		 je	 SHORT $LN126@LoadPatrol

; 2091 :             _STD _Destroy_range(_Myfirst, _Mylast, _Al);
; 2092 :             _ASAN_VECTOR_REMOVE;
; 2093 :             _Al.deallocate(_Myfirst, static_cast<size_type>(_Myend - _Myfirst));

  00454	8b 8d 88 f1 ff
	ff		 mov	 ecx, DWORD PTR _v3PosList$5[ebp+8]
  0045a	b8 ab aa aa 2a	 mov	 eax, 715827883		; 2aaaaaabH
  0045f	2b ce		 sub	 ecx, esi
  00461	f7 e9		 imul	 ecx
  00463	d1 fa		 sar	 edx, 1
  00465	8b c2		 mov	 eax, edx
  00467	c1 e8 1f	 shr	 eax, 31			; 0000001fH
  0046a	03 c2		 add	 eax, edx
; File C:\Program Files\Microsoft Visual Studio\2022\Professional\VC\Tools\MSVC\14.44.35207\include\xmemory

; 985  :         _STD _Deallocate<_New_alignof<_Ty>>(_Ptr, sizeof(_Ty) * _Count);

  0046c	8d 0c 40	 lea	 ecx, DWORD PTR [eax+eax*2]
  0046f	8b c6		 mov	 eax, esi
  00471	c1 e1 02	 shl	 ecx, 2

; 284  :         if (_Bytes >= _Big_allocation_threshold) {

  00474	81 f9 00 10 00
	00		 cmp	 ecx, 4096		; 00001000H
  0047a	72 10		 jb	 SHORT $LN139@LoadPatrol

; 205  :     const uintptr_t _Ptr_container   = _Ptr_user[-1];

  0047c	8b 70 fc	 mov	 esi, DWORD PTR [eax-4]
  0047f	83 c1 23	 add	 ecx, 35			; 00000023H
  00482	2b c6		 sub	 eax, esi

; 219  :     _STL_VERIFY(_Back_shift >= _Min_back_shift && _Back_shift <= _Non_user_size, "invalid argument");

  00484	83 c0 fc	 add	 eax, -4			; fffffffcH
  00487	83 f8 1f	 cmp	 eax, 31			; 0000001fH
  0048a	77 3e		 ja	 SHORT $LN158@LoadPatrol
$LN139@LoadPatrol:

; 289  :         ::operator delete(_Ptr, _Bytes);

  0048c	51		 push	 ecx
  0048d	56		 push	 esi
  0048e	e8 00 00 00 00	 call	 ??3@YAXPAXI@Z		; operator delete
  00493	83 c4 08	 add	 esp, 8
$LN126@LoadPatrol:
; File C:\IAGOS\server\v18\Source\Source\_Common\PathObj.cpp

; 226  : 	return TRUE;	

  00496	be 01 00 00 00	 mov	 esi, 1
  0049b	eb 02		 jmp	 SHORT $LN18@LoadPatrol
$LN6@LoadPatrol:
  0049d	33 f6		 xor	 esi, esi
$LN18@LoadPatrol:
  0049f	8d 8d 8c f1 ff
	ff		 lea	 ecx, DWORD PTR _s$[ebp]
  004a5	e8 00 00 00 00	 call	 ??1CScript@@UAE@XZ	; CScript::~CScript
  004aa	8b c6		 mov	 eax, esi

; 227  : }

  004ac	8b 4d f4	 mov	 ecx, DWORD PTR __$EHRec$[ebp]
  004af	64 89 0d 00 00
	00 00		 mov	 DWORD PTR fs:0, ecx
  004b6	59		 pop	 ecx
  004b7	5f		 pop	 edi
  004b8	5e		 pop	 esi
  004b9	5b		 pop	 ebx
  004ba	8b 4d f0	 mov	 ecx, DWORD PTR __$ArrayPad$[ebp]
  004bd	33 cd		 xor	 ecx, ebp
  004bf	e8 00 00 00 00	 call	 @__security_check_cookie@4
  004c4	8b e5		 mov	 esp, ebp
  004c6	5d		 pop	 ebp
  004c7	c2 04 00	 ret	 4
$LN158@LoadPatrol:
; File C:\Program Files\Microsoft Visual Studio\2022\Professional\VC\Tools\MSVC\14.44.35207\include\xmemory

; 219  :     _STL_VERIFY(_Back_shift >= _Min_back_shift && _Back_shift <= _Non_user_size, "invalid argument");

  004ca	6a 00		 push	 0
  004cc	6a 00		 push	 0
  004ce	6a 00		 push	 0
  004d0	6a 00		 push	 0
  004d2	6a 00		 push	 0
  004d4	e8 00 00 00 00	 call	 __invoke_watson
$LN156@LoadPatrol:
  004d9	cc		 int	 3
_TEXT	ENDS
;	COMDAT text$x
text$x	SEGMENT
__unwindfunclet$?LoadPatrol@CPatrolPath@@QAEHPBD@Z$0:
  00000	8d 8d 8c f1 ff
	ff		 lea	 ecx, DWORD PTR _s$[ebp]
  00006	e9 00 00 00 00	 jmp	 ??1CScript@@UAE@XZ	; CScript::~CScript
__unwindfunclet$?LoadPatrol@CPatrolPath@@QAEHPBD@Z$1:
  0000b	8d 8d 80 f1 ff
	ff		 lea	 ecx, DWORD PTR _v3PosList$5[ebp]
  00011	e9 00 00 00 00	 jmp	 ??1?$vector@UD3DXVECTOR3@@V?$allocator@UD3DXVECTOR3@@@std@@@std@@QAE@XZ ; std::vector<D3DXVECTOR3,std::allocator<D3DXVECTOR3> >::~vector<D3DXVECTOR3,std::allocator<D3DXVECTOR3> >
__unwindfunclet$?LoadPatrol@CPatrolPath@@QAEHPBD@Z$2:
  00016	8d 4d ac	 lea	 ecx, DWORD PTR _vecInfo$7[ebp]
  00019	e9 00 00 00 00	 jmp	 ??1_VECINFO@@QAE@XZ
__unwindfunclet$?LoadPatrol@CPatrolPath@@QAEHPBD@Z$3:
  0001e	8d 8d 74 ff ff
	ff		 lea	 ecx, DWORD PTR _vecInfoBackup$6[ebp]
  00024	e9 00 00 00 00	 jmp	 ??1_VECINFO@@QAE@XZ
  00029	cc		 int	 3
  0002a	cc		 int	 3
  0002b	cc		 int	 3
  0002c	cc		 int	 3
  0002d	cc		 int	 3
__ehhandler$?LoadPatrol@CPatrolPath@@QAEHPBD@Z:
  0002e	90		 npad	 1
  0002f	90		 npad	 1
  00030	8b 54 24 08	 mov	 edx, DWORD PTR [esp+8]
  00034	8d 42 0c	 lea	 eax, DWORD PTR [edx+12]
  00037	8b 8a 4c f1 ff
	ff		 mov	 ecx, DWORD PTR [edx-3764]
  0003d	33 c8		 xor	 ecx, eax
  0003f	e8 00 00 00 00	 call	 @__security_check_cookie@4
  00044	8b 4a fc	 mov	 ecx, DWORD PTR [edx-4]
  00047	33 c8		 xor	 ecx, eax
  00049	e8 00 00 00 00	 call	 @__security_check_cookie@4
  0004e	b8 00 00 00 00	 mov	 eax, OFFSET __ehfuncinfo$?LoadPatrol@CPatrolPath@@QAEHPBD@Z
  00053	e9 00 00 00 00	 jmp	 ___CxxFrameHandler3
text$x	ENDS
?LoadPatrol@CPatrolPath@@QAEHPBD@Z ENDP			; CPatrolPath::LoadPatrol
; Function compile flags: /Ogtp
; File C:\IAGOS\server\v18\Source\Source\_Common\PathObj.cpp
;	COMDAT ?GetInstance@CPatrolPath@@SAPAV1@XZ
_TEXT	SEGMENT
__$EHRec$ = -12						; size = 12
?GetInstance@CPatrolPath@@SAPAV1@XZ PROC		; CPatrolPath::GetInstance, COMDAT

; 23   : {

  00000	55		 push	 ebp
  00001	8b ec		 mov	 ebp, esp
  00003	6a ff		 push	 -1
  00005	68 00 00 00 00	 push	 __ehhandler$?GetInstance@CPatrolPath@@SAPAV1@XZ
  0000a	64 a1 00 00 00
	00		 mov	 eax, DWORD PTR fs:0
  00010	50		 push	 eax
  00011	a1 00 00 00 00	 mov	 eax, DWORD PTR ___security_cookie
  00016	33 c5		 xor	 eax, ebp
  00018	50		 push	 eax
  00019	8d 45 f4	 lea	 eax, DWORD PTR __$EHRec$[ebp]
  0001c	64 a3 00 00 00
	00		 mov	 DWORD PTR fs:0, eax

; 24   : 	static CPatrolPath	sMailBox;

  00022	64 a1 00 00 00
	00		 mov	 eax, DWORD PTR fs:__tls_array
  00028	8b 0d 00 00 00
	00		 mov	 ecx, DWORD PTR __tls_index
  0002e	8b 0c 88	 mov	 ecx, DWORD PTR [eax+ecx*4]
  00031	a1 00 00 00 00	 mov	 eax, DWORD PTR ?$TSS0@?1??GetInstance@CPatrolPath@@SAPAV2@XZ@4HA
  00036	3b 81 00 00 00
	00		 cmp	 eax, DWORD PTR __Init_thread_epoch[ecx]
  0003c	7f 14		 jg	 SHORT $LN9@GetInstanc
$LN5@GetInstanc:

; 25   : 	return &sMailBox;
; 26   : }

  0003e	b8 00 00 00 00	 mov	 eax, OFFSET ?sMailBox@?1??GetInstance@CPatrolPath@@SAPAV2@XZ@4V2@A
  00043	8b 4d f4	 mov	 ecx, DWORD PTR __$EHRec$[ebp]
  00046	64 89 0d 00 00
	00 00		 mov	 DWORD PTR fs:0, ecx
  0004d	59		 pop	 ecx
  0004e	8b e5		 mov	 esp, ebp
  00050	5d		 pop	 ebp
  00051	c3		 ret	 0
$LN9@GetInstanc:

; 24   : 	static CPatrolPath	sMailBox;

  00052	68 00 00 00 00	 push	 OFFSET ?$TSS0@?1??GetInstance@CPatrolPath@@SAPAV2@XZ@4HA
  00057	e8 00 00 00 00	 call	 __Init_thread_header
  0005c	83 c4 04	 add	 esp, 4
  0005f	83 3d 00 00 00
	00 ff		 cmp	 DWORD PTR ?$TSS0@?1??GetInstance@CPatrolPath@@SAPAV2@XZ@4HA, -1
  00066	75 d6		 jne	 SHORT $LN5@GetInstanc
  00068	b9 00 00 00 00	 mov	 ecx, OFFSET ?sMailBox@?1??GetInstance@CPatrolPath@@SAPAV2@XZ@4V2@A
  0006d	c7 45 fc 00 00
	00 00		 mov	 DWORD PTR __$EHRec$[ebp+8], 0
  00074	e8 00 00 00 00	 call	 ??0CPatrolPath@@QAE@XZ	; CPatrolPath::CPatrolPath
  00079	68 00 00 00 00	 push	 OFFSET ??__FsMailBox@?1??GetInstance@CPatrolPath@@SAPAV1@XZ@YAXXZ ; `CPatrolPath::GetInstance'::`2'::`dynamic atexit destructor for 'sMailBox''
  0007e	e8 00 00 00 00	 call	 _atexit
  00083	68 00 00 00 00	 push	 OFFSET ?$TSS0@?1??GetInstance@CPatrolPath@@SAPAV2@XZ@4HA
  00088	e8 00 00 00 00	 call	 __Init_thread_footer
  0008d	83 c4 08	 add	 esp, 8
  00090	eb ac		 jmp	 SHORT $LN5@GetInstanc
_TEXT	ENDS
;	COMDAT text$x
text$x	SEGMENT
__unwindfunclet$?GetInstance@CPatrolPath@@SAPAV1@XZ$0:
  00000	68 00 00 00 00	 push	 OFFSET ?$TSS0@?1??GetInstance@CPatrolPath@@SAPAV2@XZ@4HA
  00005	e8 00 00 00 00	 call	 __Init_thread_abort
  0000a	59		 pop	 ecx
  0000b	c3		 ret	 0
  0000c	cc		 int	 3
  0000d	cc		 int	 3
  0000e	cc		 int	 3
  0000f	cc		 int	 3
  00010	cc		 int	 3
__ehhandler$?GetInstance@CPatrolPath@@SAPAV1@XZ:
  00011	90		 npad	 1
  00012	90		 npad	 1
  00013	8b 54 24 08	 mov	 edx, DWORD PTR [esp+8]
  00017	8d 42 0c	 lea	 eax, DWORD PTR [edx+12]
  0001a	8b 4a fc	 mov	 ecx, DWORD PTR [edx-4]
  0001d	33 c8		 xor	 ecx, eax
  0001f	e8 00 00 00 00	 call	 @__security_check_cookie@4
  00024	b8 00 00 00 00	 mov	 eax, OFFSET __ehfuncinfo$?GetInstance@CPatrolPath@@SAPAV1@XZ
  00029	e9 00 00 00 00	 jmp	 ___CxxFrameHandler3
text$x	ENDS
?GetInstance@CPatrolPath@@SAPAV1@XZ ENDP		; CPatrolPath::GetInstance
; Function compile flags: /Ogtp
; File C:\IAGOS\server\v18\Source\Source\_Common\PathObj.cpp
; File C:\Program Files\Microsoft Visual Studio\2022\Professional\VC\Tools\MSVC\14.44.35207\include\xtree
; File C:\Program Files\Microsoft Visual Studio\2022\Professional\VC\Tools\MSVC\14.44.35207\include\xmemory
; File C:\IAGOS\server\v18\Source\Source\_Common\PathObj.cpp
;	COMDAT ??1CPatrolPath@@QAE@XZ
_TEXT	SEGMENT
??1CPatrolPath@@QAE@XZ PROC				; CPatrolPath::~CPatrolPath, COMDAT
; _this$ = ecx

; 13   : {

  00000	56		 push	 esi
  00001	8b f1		 mov	 esi, ecx

; 14   : }

  00003	8d 4e 08	 lea	 ecx, DWORD PTR [esi+8]
  00006	e8 00 00 00 00	 call	 ??1?$_Tree@V?$_Tmap_traits@KHU?$less@K@std@@V?$allocator@U?$pair@$$CBKH@std@@@2@$0A@@std@@@std@@QAE@XZ ; std::_Tree<std::_Tmap_traits<unsigned long,int,std::less<unsigned long>,std::allocator<std::pair<unsigned long const ,int> >,0> >::~_Tree<std::_Tmap_traits<unsigned long,int,std::less<unsigned long>,std::allocator<std::pair<unsigned long const ,int> >,0> >
; File C:\Program Files\Microsoft Visual Studio\2022\Professional\VC\Tools\MSVC\14.44.35207\include\xtree

; 777  :         _Erase_tree(_Al, _Myhead->_Parent);

  0000b	8b 06		 mov	 eax, DWORD PTR [esi]
  0000d	8b ce		 mov	 ecx, esi
  0000f	ff 70 04	 push	 DWORD PTR [eax+4]
  00012	56		 push	 esi
  00013	e8 00 00 00 00	 call	 ??$_Erase_tree@V?$allocator@U?$_Tree_node@U?$pair@$$CBKV?$vector@U_VECINFO@@V?$allocator@U_VECINFO@@@std@@@std@@@std@@PAX@std@@@std@@@?$_Tree_val@U?$_Tree_simple_types@U?$pair@$$CBKV?$vector@U_VECINFO@@V?$allocator@U_VECINFO@@@std@@@std@@@std@@@std@@@std@@QAEXAAV?$allocator@U?$_Tree_node@U?$pair@$$CBKV?$vector@U_VECINFO@@V?$allocator@U_VECINFO@@@std@@@std@@@std@@PAX@std@@@1@PAU?$_Tree_node@U?$pair@$$CBKV?$vector@U_VECINFO@@V?$allocator@U_VECINFO@@@std@@@std@@@std@@PAX@1@@Z ; std::_Tree_val<std::_Tree_simple_types<std::pair<unsigned long const ,std::vector<_VECINFO,std::allocator<_VECINFO> > > > >::_Erase_tree<std::allocator<std::_Tree_node<std::pair<unsigned long const ,std::vector<_VECINFO,std::allocator<_VECINFO> > >,void *> > >
; File C:\Program Files\Microsoft Visual Studio\2022\Professional\VC\Tools\MSVC\14.44.35207\include\xmemory

; 289  :         ::operator delete(_Ptr, _Bytes);

  00018	6a 20		 push	 32			; 00000020H
  0001a	ff 36		 push	 DWORD PTR [esi]
  0001c	e8 00 00 00 00	 call	 ??3@YAXPAXI@Z		; operator delete
  00021	83 c4 08	 add	 esp, 8
  00024	5e		 pop	 esi
; File C:\IAGOS\server\v18\Source\Source\_Common\PathObj.cpp

; 14   : }

  00025	c3		 ret	 0
??1CPatrolPath@@QAE@XZ ENDP				; CPatrolPath::~CPatrolPath
_TEXT	ENDS
; Function compile flags: /Ogtp
; File C:\IAGOS\server\v18\Source\Source\_Common\PathObj.cpp
; File C:\Program Files\Microsoft Visual Studio\2022\Professional\VC\Tools\MSVC\14.44.35207\include\xmemory
; File C:\Program Files\Microsoft Visual Studio\2022\Professional\VC\Tools\MSVC\14.44.35207\include\xtree
; File C:\Program Files\Microsoft Visual Studio\2022\Professional\VC\Tools\MSVC\14.44.35207\include\xmemory
; File C:\Program Files\Microsoft Visual Studio\2022\Professional\VC\Tools\MSVC\14.44.35207\include\xtree
; File C:\IAGOS\server\v18\Source\Source\_Common\PathObj.cpp
; File C:\Program Files\Microsoft Visual Studio\2022\Professional\VC\Tools\MSVC\14.44.35207\include\xmemory
; File C:\IAGOS\server\v18\Source\Source\_Common\PathObj.cpp
; File C:\Program Files\Microsoft Visual Studio\2022\Professional\VC\Tools\MSVC\14.44.35207\include\xtree
; File C:\Program Files\Microsoft Visual Studio\2022\Professional\VC\Tools\MSVC\14.44.35207\include\xmemory
; File C:\IAGOS\server\v18\Source\Source\_Common\PathObj.cpp
; File C:\Program Files\Microsoft Visual Studio\2022\Professional\VC\Tools\MSVC\14.44.35207\include\xtree
; File C:\IAGOS\server\v18\Source\Source\_Common\PathObj.cpp
;	COMDAT ??0CPatrolPath@@QAE@XZ
_TEXT	SEGMENT
_this$ = -20						; size = 4
_this$ = -16						; size = 4
__$EHRec$ = -12						; size = 12
??0CPatrolPath@@QAE@XZ PROC				; CPatrolPath::CPatrolPath, COMDAT
; _this$ = ecx

; 8    : {

  00000	55		 push	 ebp
  00001	8b ec		 mov	 ebp, esp
  00003	6a ff		 push	 -1
  00005	68 00 00 00 00	 push	 __ehhandler$??0CPatrolPath@@QAE@XZ
  0000a	64 a1 00 00 00
	00		 mov	 eax, DWORD PTR fs:0
  00010	50		 push	 eax
  00011	83 ec 08	 sub	 esp, 8
  00014	56		 push	 esi
  00015	57		 push	 edi
  00016	a1 00 00 00 00	 mov	 eax, DWORD PTR ___security_cookie
  0001b	33 c5		 xor	 eax, ebp
  0001d	50		 push	 eax
  0001e	8d 45 f4	 lea	 eax, DWORD PTR __$EHRec$[ebp]
  00021	64 a3 00 00 00
	00		 mov	 DWORD PTR fs:0, eax
  00027	8b f9		 mov	 edi, ecx
  00029	89 7d f0	 mov	 DWORD PTR _this$[ebp], edi
; File C:\Program Files\Microsoft Visual Studio\2022\Professional\VC\Tools\MSVC\14.44.35207\include\xmemory

; 136  :         return ::operator new(_Bytes);

  0002c	6a 20		 push	 32			; 00000020H
; File C:\Program Files\Microsoft Visual Studio\2022\Professional\VC\Tools\MSVC\14.44.35207\include\xtree

; 450  :     _Tree_val() noexcept : _Myhead(), _Mysize(0) {}

  0002e	c7 07 00 00 00
	00		 mov	 DWORD PTR [edi], 0
  00034	c7 47 04 00 00
	00 00		 mov	 DWORD PTR [edi+4], 0
; File C:\Program Files\Microsoft Visual Studio\2022\Professional\VC\Tools\MSVC\14.44.35207\include\xmemory

; 136  :         return ::operator new(_Bytes);

  0003b	e8 00 00 00 00	 call	 ??2@YAPAXI@Z		; operator new
; File C:\Program Files\Microsoft Visual Studio\2022\Professional\VC\Tools\MSVC\14.44.35207\include\xtree

; 346  :         _Construct_in_place(_Pnode->_Left, _Pnode);

  00040	89 00		 mov	 DWORD PTR [eax], eax

; 347  :         _Construct_in_place(_Pnode->_Parent, _Pnode);

  00042	89 40 04	 mov	 DWORD PTR [eax+4], eax

; 348  :         _Construct_in_place(_Pnode->_Right, _Pnode);

  00045	89 40 08	 mov	 DWORD PTR [eax+8], eax

; 349  :         _Pnode->_Color = _Black;

  00048	66 c7 40 0c 01
	01		 mov	 WORD PTR [eax+12], 257	; 00000101H

; 1957 :         _Scary->_Myhead = _Node::_Buyheadnode(_Getal());

  0004e	89 07		 mov	 DWORD PTR [edi], eax
; File C:\IAGOS\server\v18\Source\Source\_Common\PathObj.cpp

; 8    : {

  00050	8d 77 08	 lea	 esi, DWORD PTR [edi+8]
  00053	c7 45 fc 00 00
	00 00		 mov	 DWORD PTR __$EHRec$[ebp+8], 0
; File C:\Program Files\Microsoft Visual Studio\2022\Professional\VC\Tools\MSVC\14.44.35207\include\xmemory

; 136  :         return ::operator new(_Bytes);

  0005a	6a 18		 push	 24			; 00000018H
; File C:\IAGOS\server\v18\Source\Source\_Common\PathObj.cpp

; 8    : {

  0005c	89 75 ec	 mov	 DWORD PTR _this$[ebp], esi
; File C:\Program Files\Microsoft Visual Studio\2022\Professional\VC\Tools\MSVC\14.44.35207\include\xtree

; 450  :     _Tree_val() noexcept : _Myhead(), _Mysize(0) {}

  0005f	c7 06 00 00 00
	00		 mov	 DWORD PTR [esi], 0
  00065	c7 46 04 00 00
	00 00		 mov	 DWORD PTR [esi+4], 0
; File C:\Program Files\Microsoft Visual Studio\2022\Professional\VC\Tools\MSVC\14.44.35207\include\xmemory

; 136  :         return ::operator new(_Bytes);

  0006c	e8 00 00 00 00	 call	 ??2@YAPAXI@Z		; operator new
  00071	83 c4 08	 add	 esp, 8
; File C:\IAGOS\server\v18\Source\Source\_Common\PathObj.cpp

; 9    : 	Clear();

  00074	8b cf		 mov	 ecx, edi
; File C:\Program Files\Microsoft Visual Studio\2022\Professional\VC\Tools\MSVC\14.44.35207\include\xtree

; 346  :         _Construct_in_place(_Pnode->_Left, _Pnode);

  00076	89 00		 mov	 DWORD PTR [eax], eax

; 347  :         _Construct_in_place(_Pnode->_Parent, _Pnode);

  00078	89 40 04	 mov	 DWORD PTR [eax+4], eax

; 348  :         _Construct_in_place(_Pnode->_Right, _Pnode);

  0007b	89 40 08	 mov	 DWORD PTR [eax+8], eax

; 349  :         _Pnode->_Color = _Black;

  0007e	66 c7 40 0c 01
	01		 mov	 WORD PTR [eax+12], 257	; 00000101H

; 1957 :         _Scary->_Myhead = _Node::_Buyheadnode(_Getal());

  00084	89 06		 mov	 DWORD PTR [esi], eax
; File C:\IAGOS\server\v18\Source\Source\_Common\PathObj.cpp

; 9    : 	Clear();

  00086	e8 00 00 00 00	 call	 ?Clear@CPatrolPath@@QAEXXZ ; CPatrolPath::Clear

; 10   : }

  0008b	8b c7		 mov	 eax, edi
  0008d	8b 4d f4	 mov	 ecx, DWORD PTR __$EHRec$[ebp]
  00090	64 89 0d 00 00
	00 00		 mov	 DWORD PTR fs:0, ecx
  00097	59		 pop	 ecx
  00098	5f		 pop	 edi
  00099	5e		 pop	 esi
  0009a	8b e5		 mov	 esp, ebp
  0009c	5d		 pop	 ebp
  0009d	c3		 ret	 0
_TEXT	ENDS
;	COMDAT text$x
text$x	SEGMENT
__unwindfunclet$??0CPatrolPath@@QAE@XZ$0:
  00000	8b 4d f0	 mov	 ecx, DWORD PTR _this$[ebp]
  00003	e9 00 00 00 00	 jmp	 ??1?$map@KV?$vector@U_VECINFO@@V?$allocator@U_VECINFO@@@std@@@std@@U?$less@K@2@V?$allocator@U?$pair@$$CBKV?$vector@U_VECINFO@@V?$allocator@U_VECINFO@@@std@@@std@@@std@@@2@@std@@QAE@XZ
  00008	cc		 int	 3
  00009	cc		 int	 3
  0000a	cc		 int	 3
  0000b	cc		 int	 3
  0000c	cc		 int	 3
__ehhandler$??0CPatrolPath@@QAE@XZ:
  0000d	90		 npad	 1
  0000e	90		 npad	 1
  0000f	8b 54 24 08	 mov	 edx, DWORD PTR [esp+8]
  00013	8d 42 0c	 lea	 eax, DWORD PTR [edx+12]
  00016	8b 4a ec	 mov	 ecx, DWORD PTR [edx-20]
  00019	33 c8		 xor	 ecx, eax
  0001b	e8 00 00 00 00	 call	 @__security_check_cookie@4
  00020	b8 00 00 00 00	 mov	 eax, OFFSET __ehfuncinfo$??0CPatrolPath@@QAE@XZ
  00025	e9 00 00 00 00	 jmp	 ___CxxFrameHandler3
text$x	ENDS
??0CPatrolPath@@QAE@XZ ENDP				; CPatrolPath::CPatrolPath
; Function compile flags: /Ogtp
; File C:\Program Files\Microsoft Visual Studio\2022\Professional\VC\Tools\MSVC\14.44.35207\include\xtree
; File C:\Program Files\Microsoft Visual Studio\2022\Professional\VC\Tools\MSVC\14.44.35207\include\xmemory
;	COMDAT ??1?$map@KV?$vector@U_VECINFO@@V?$allocator@U_VECINFO@@@std@@@std@@U?$less@K@2@V?$allocator@U?$pair@$$CBKV?$vector@U_VECINFO@@V?$allocator@U_VECINFO@@@std@@@std@@@std@@@2@@std@@QAE@XZ
_TEXT	SEGMENT
??1?$map@KV?$vector@U_VECINFO@@V?$allocator@U_VECINFO@@@std@@@std@@U?$less@K@2@V?$allocator@U?$pair@$$CBKV?$vector@U_VECINFO@@V?$allocator@U_VECINFO@@@std@@@std@@@std@@@2@@std@@QAE@XZ PROC ; std::map<unsigned long,std::vector<_VECINFO,std::allocator<_VECINFO> >,std::less<unsigned long>,std::allocator<std::pair<unsigned long const ,std::vector<_VECINFO,std::allocator<_VECINFO> > > > >::~map<unsigned long,std::vector<_VECINFO,std::allocator<_VECINFO> >,std::less<unsigned long>,std::allocator<std::pair<unsigned long const ,std::vector<_VECINFO,std::allocator<_VECINFO> > > > >, COMDAT
; _this$ = ecx
; File C:\Program Files\Microsoft Visual Studio\2022\Professional\VC\Tools\MSVC\14.44.35207\include\xtree

; 777  :         _Erase_tree(_Al, _Myhead->_Parent);

  00000	56		 push	 esi
  00001	8b f1		 mov	 esi, ecx
  00003	8b 06		 mov	 eax, DWORD PTR [esi]
  00005	ff 70 04	 push	 DWORD PTR [eax+4]
  00008	56		 push	 esi
  00009	e8 00 00 00 00	 call	 ??$_Erase_tree@V?$allocator@U?$_Tree_node@U?$pair@$$CBKV?$vector@U_VECINFO@@V?$allocator@U_VECINFO@@@std@@@std@@@std@@PAX@std@@@std@@@?$_Tree_val@U?$_Tree_simple_types@U?$pair@$$CBKV?$vector@U_VECINFO@@V?$allocator@U_VECINFO@@@std@@@std@@@std@@@std@@@std@@QAEXAAV?$allocator@U?$_Tree_node@U?$pair@$$CBKV?$vector@U_VECINFO@@V?$allocator@U_VECINFO@@@std@@@std@@@std@@PAX@std@@@1@PAU?$_Tree_node@U?$pair@$$CBKV?$vector@U_VECINFO@@V?$allocator@U_VECINFO@@@std@@@std@@@std@@PAX@1@@Z ; std::_Tree_val<std::_Tree_simple_types<std::pair<unsigned long const ,std::vector<_VECINFO,std::allocator<_VECINFO> > > > >::_Erase_tree<std::allocator<std::_Tree_node<std::pair<unsigned long const ,std::vector<_VECINFO,std::allocator<_VECINFO> > >,void *> > >
; File C:\Program Files\Microsoft Visual Studio\2022\Professional\VC\Tools\MSVC\14.44.35207\include\xmemory

; 289  :         ::operator delete(_Ptr, _Bytes);

  0000e	6a 20		 push	 32			; 00000020H
  00010	ff 36		 push	 DWORD PTR [esi]
  00012	e8 00 00 00 00	 call	 ??3@YAXPAXI@Z		; operator delete
  00017	83 c4 08	 add	 esp, 8
  0001a	5e		 pop	 esi
  0001b	c3		 ret	 0
??1?$map@KV?$vector@U_VECINFO@@V?$allocator@U_VECINFO@@@std@@@std@@U?$less@K@2@V?$allocator@U?$pair@$$CBKV?$vector@U_VECINFO@@V?$allocator@U_VECINFO@@@std@@@std@@@std@@@2@@std@@QAE@XZ ENDP ; std::map<unsigned long,std::vector<_VECINFO,std::allocator<_VECINFO> >,std::less<unsigned long>,std::allocator<std::pair<unsigned long const ,std::vector<_VECINFO,std::allocator<_VECINFO> > > > >::~map<unsigned long,std::vector<_VECINFO,std::allocator<_VECINFO> >,std::less<unsigned long>,std::allocator<std::pair<unsigned long const ,std::vector<_VECINFO,std::allocator<_VECINFO> > > > >
_TEXT	ENDS
; Function compile flags: /Ogtp
; File C:\Program Files\Microsoft Visual Studio\2022\Professional\VC\Tools\MSVC\14.44.35207\include\xtree
;	COMDAT ?_Insert_node@?$_Tree_val@U?$_Tree_simple_types@U?$pair@$$CBKV?$vector@U_VECINFO@@V?$allocator@U_VECINFO@@@std@@@std@@@std@@@std@@@std@@QAEPAU?$_Tree_node@U?$pair@$$CBKV?$vector@U_VECINFO@@V?$allocator@U_VECINFO@@@std@@@std@@@std@@PAX@2@U?$_Tree_id@PAU?$_Tree_node@U?$pair@$$CBKV?$vector@U_VECINFO@@V?$allocator@U_VECINFO@@@std@@@std@@@std@@PAX@std@@@2@QAU32@@Z
_TEXT	SEGMENT
__Head$1$ = -4						; size = 4
__Loc$ = 8						; size = 8
__Newnode$ = 16						; size = 4
?_Insert_node@?$_Tree_val@U?$_Tree_simple_types@U?$pair@$$CBKV?$vector@U_VECINFO@@V?$allocator@U_VECINFO@@@std@@@std@@@std@@@std@@@std@@QAEPAU?$_Tree_node@U?$pair@$$CBKV?$vector@U_VECINFO@@V?$allocator@U_VECINFO@@@std@@@std@@@std@@PAX@2@U?$_Tree_id@PAU?$_Tree_node@U?$pair@$$CBKV?$vector@U_VECINFO@@V?$allocator@U_VECINFO@@@std@@@std@@@std@@PAX@std@@@2@QAU32@@Z PROC ; std::_Tree_val<std::_Tree_simple_types<std::pair<unsigned long const ,std::vector<_VECINFO,std::allocator<_VECINFO> > > > >::_Insert_node, COMDAT
; _this$ = ecx

; 669  :     _Nodeptr _Insert_node(const _Tree_id<_Nodeptr> _Loc, const _Nodeptr _Newnode) noexcept {

  00000	55		 push	 ebp
  00001	8b ec		 mov	 ebp, esp
  00003	51		 push	 ecx

; 670  :         ++_Mysize;
; 671  :         const auto _Head  = _Myhead;
; 672  :         _Newnode->_Parent = _Loc._Parent;

  00004	8b 55 08	 mov	 edx, DWORD PTR __Loc$[ebp]
  00007	53		 push	 ebx
  00008	8b d9		 mov	 ebx, ecx
  0000a	57		 push	 edi
  0000b	8b 7d 10	 mov	 edi, DWORD PTR __Newnode$[ebp]
  0000e	8b 03		 mov	 eax, DWORD PTR [ebx]
  00010	ff 43 04	 inc	 DWORD PTR [ebx+4]
  00013	89 45 fc	 mov	 DWORD PTR __Head$1$[ebp], eax
  00016	89 57 04	 mov	 DWORD PTR [edi+4], edx

; 673  :         if (_Loc._Parent == _Head) { // first node in tree, just set head values

  00019	3b d0		 cmp	 edx, eax
  0001b	75 16		 jne	 SHORT $LN5@Insert_nod

; 674  :             _Head->_Left     = _Newnode;

  0001d	89 38		 mov	 DWORD PTR [eax], edi

; 675  :             _Head->_Parent   = _Newnode;

  0001f	89 78 04	 mov	 DWORD PTR [eax+4], edi

; 676  :             _Head->_Right    = _Newnode;

  00022	89 78 08	 mov	 DWORD PTR [eax+8], edi

; 735  :         return _Newnode;
; 736  :     }

  00025	8b c7		 mov	 eax, edi
  00027	c6 47 0c 01	 mov	 BYTE PTR [edi+12], 1
  0002b	5f		 pop	 edi
  0002c	5b		 pop	 ebx
  0002d	8b e5		 mov	 esp, ebp
  0002f	5d		 pop	 ebp
  00030	c2 0c 00	 ret	 12			; 0000000cH
$LN5@Insert_nod:

; 677  :             _Newnode->_Color = _Black; // the root is black
; 678  :             return _Newnode;
; 679  :         }
; 680  : 
; 681  :         _STL_INTERNAL_CHECK(_Loc._Child != _Tree_child::_Unused);
; 682  :         if (_Loc._Child == _Tree_child::_Right) { // add to right of _Loc._Parent

  00033	83 7d 0c 00	 cmp	 DWORD PTR __Loc$[ebp+4], 0
  00037	75 0d		 jne	 SHORT $LN6@Insert_nod

; 683  :             _STL_INTERNAL_CHECK(_Loc._Parent->_Right->_Isnil);
; 684  :             _Loc._Parent->_Right = _Newnode;

  00039	89 7a 08	 mov	 DWORD PTR [edx+8], edi

; 685  :             if (_Loc._Parent == _Head->_Right) { // remember rightmost node

  0003c	3b 50 08	 cmp	 edx, DWORD PTR [eax+8]
  0003f	75 0d		 jne	 SHORT $LN9@Insert_nod

; 686  :                 _Head->_Right = _Newnode;

  00041	89 78 08	 mov	 DWORD PTR [eax+8], edi

; 687  :             }
; 688  :         } else { // add to left of _Loc._Parent

  00044	eb 08		 jmp	 SHORT $LN9@Insert_nod
$LN6@Insert_nod:

; 689  :             _STL_INTERNAL_CHECK(_Loc._Parent->_Left->_Isnil);
; 690  :             _Loc._Parent->_Left = _Newnode;

  00046	89 3a		 mov	 DWORD PTR [edx], edi

; 691  :             if (_Loc._Parent == _Head->_Left) { // remember leftmost node

  00048	3b 10		 cmp	 edx, DWORD PTR [eax]
  0004a	75 02		 jne	 SHORT $LN9@Insert_nod

; 692  :                 _Head->_Left = _Newnode;

  0004c	89 38		 mov	 DWORD PTR [eax], edi
$LN9@Insert_nod:

; 693  :             }
; 694  :         }
; 695  : 
; 696  :         for (_Nodeptr _Pnode = _Newnode; _Pnode->_Parent->_Color == _Red;) {

  0004e	8b 4f 04	 mov	 ecx, DWORD PTR [edi+4]
  00051	8b c7		 mov	 eax, edi
  00053	80 79 0c 00	 cmp	 BYTE PTR [ecx+12], 0
  00057	0f 85 7d 01 00
	00		 jne	 $LN3@Insert_nod
  0005d	56		 push	 esi
  0005e	66 90		 npad	 2
$LL4@Insert_nod:

; 697  :             if (_Pnode->_Parent == _Pnode->_Parent->_Parent->_Left) { // fixup red-red in left subtree

  00060	8b 50 04	 mov	 edx, DWORD PTR [eax+4]
  00063	8b 72 04	 mov	 esi, DWORD PTR [edx+4]
  00066	8b 0e		 mov	 ecx, DWORD PTR [esi]
  00068	3b d1		 cmp	 edx, ecx
  0006a	0f 85 aa 00 00
	00		 jne	 $LN10@Insert_nod

; 698  :                 const auto _Parent_sibling = _Pnode->_Parent->_Parent->_Right;

  00070	8b 4e 08	 mov	 ecx, DWORD PTR [esi+8]

; 699  :                 if (_Parent_sibling->_Color == _Red) { // parent's sibling has two red children, blacken both

  00073	80 79 0c 00	 cmp	 BYTE PTR [ecx+12], 0
  00077	0f 84 a3 00 00
	00		 je	 $LN82@Insert_nod

; 700  :                     _Pnode->_Parent->_Color          = _Black;
; 701  :                     _Parent_sibling->_Color          = _Black;
; 702  :                     _Pnode->_Parent->_Parent->_Color = _Red;
; 703  :                     _Pnode                           = _Pnode->_Parent->_Parent;
; 704  :                 } else { // parent's sibling has red and black children
; 705  :                     if (_Pnode == _Pnode->_Parent->_Right) { // rotate right child to left

  0007d	8b 72 08	 mov	 esi, DWORD PTR [edx+8]
  00080	3b c6		 cmp	 eax, esi
  00082	75 37		 jne	 SHORT $LN57@Insert_nod

; 485  :         _Wherenode->_Right = _Pnode->_Left;

  00084	8b 0e		 mov	 ecx, DWORD PTR [esi]

; 706  :                         _Pnode = _Pnode->_Parent;

  00086	8b c2		 mov	 eax, edx

; 485  :         _Wherenode->_Right = _Pnode->_Left;

  00088	89 4a 08	 mov	 DWORD PTR [edx+8], ecx

; 486  : 
; 487  :         if (!_Pnode->_Left->_Isnil) {

  0008b	8b 0e		 mov	 ecx, DWORD PTR [esi]
  0008d	80 79 0d 00	 cmp	 BYTE PTR [ecx+13], 0
  00091	75 03		 jne	 SHORT $LN21@Insert_nod

; 488  :             _Pnode->_Left->_Parent = _Wherenode;

  00093	89 41 04	 mov	 DWORD PTR [ecx+4], eax
$LN21@Insert_nod:

; 489  :         }
; 490  : 
; 491  :         _Pnode->_Parent = _Wherenode->_Parent;

  00096	8b 4a 04	 mov	 ecx, DWORD PTR [edx+4]
  00099	89 4e 04	 mov	 DWORD PTR [esi+4], ecx

; 492  : 
; 493  :         if (_Wherenode == _Myhead->_Parent) {

  0009c	8b 0b		 mov	 ecx, DWORD PTR [ebx]
  0009e	3b 41 04	 cmp	 eax, DWORD PTR [ecx+4]
  000a1	75 05		 jne	 SHORT $LN22@Insert_nod

; 494  :             _Myhead->_Parent = _Pnode;

  000a3	89 71 04	 mov	 DWORD PTR [ecx+4], esi
  000a6	eb 0e		 jmp	 SHORT $LN25@Insert_nod
$LN22@Insert_nod:

; 495  :         } else if (_Wherenode == _Wherenode->_Parent->_Left) {

  000a8	8b 4a 04	 mov	 ecx, DWORD PTR [edx+4]
  000ab	3b 01		 cmp	 eax, DWORD PTR [ecx]
  000ad	75 04		 jne	 SHORT $LN24@Insert_nod

; 496  :             _Wherenode->_Parent->_Left = _Pnode;

  000af	89 31		 mov	 DWORD PTR [ecx], esi

; 497  :         } else {

  000b1	eb 03		 jmp	 SHORT $LN25@Insert_nod
$LN24@Insert_nod:

; 498  :             _Wherenode->_Parent->_Right = _Pnode;

  000b3	89 71 08	 mov	 DWORD PTR [ecx+8], esi
$LN25@Insert_nod:

; 499  :         }
; 500  : 
; 501  :         _Pnode->_Left       = _Wherenode;

  000b6	89 06		 mov	 DWORD PTR [esi], eax

; 502  :         _Wherenode->_Parent = _Pnode;

  000b8	89 70 04	 mov	 DWORD PTR [eax+4], esi
$LN57@Insert_nod:

; 707  :                         _Lrotate(_Pnode);
; 708  :                     }
; 709  : 
; 710  :                     _Pnode->_Parent->_Color          = _Black; // propagate red up

  000bb	8b 48 04	 mov	 ecx, DWORD PTR [eax+4]
  000be	c6 41 0c 01	 mov	 BYTE PTR [ecx+12], 1

; 711  :                     _Pnode->_Parent->_Parent->_Color = _Red;

  000c2	8b 48 04	 mov	 ecx, DWORD PTR [eax+4]
  000c5	8b 49 04	 mov	 ecx, DWORD PTR [ecx+4]
  000c8	c6 41 0c 00	 mov	 BYTE PTR [ecx+12], 0

; 712  :                     _Rrotate(_Pnode->_Parent->_Parent);

  000cc	8b 48 04	 mov	 ecx, DWORD PTR [eax+4]
  000cf	8b 51 04	 mov	 edx, DWORD PTR [ecx+4]

; 506  :         _Nodeptr _Pnode   = _Wherenode->_Left;

  000d2	8b 32		 mov	 esi, DWORD PTR [edx]

; 507  :         _Wherenode->_Left = _Pnode->_Right;

  000d4	8b 4e 08	 mov	 ecx, DWORD PTR [esi+8]
  000d7	89 0a		 mov	 DWORD PTR [edx], ecx

; 508  : 
; 509  :         if (!_Pnode->_Right->_Isnil) {

  000d9	8b 4e 08	 mov	 ecx, DWORD PTR [esi+8]
  000dc	80 79 0d 00	 cmp	 BYTE PTR [ecx+13], 0
  000e0	75 03		 jne	 SHORT $LN29@Insert_nod

; 510  :             _Pnode->_Right->_Parent = _Wherenode;

  000e2	89 51 04	 mov	 DWORD PTR [ecx+4], edx
$LN29@Insert_nod:

; 511  :         }
; 512  : 
; 513  :         _Pnode->_Parent = _Wherenode->_Parent;

  000e5	8b 4a 04	 mov	 ecx, DWORD PTR [edx+4]
  000e8	89 4e 04	 mov	 DWORD PTR [esi+4], ecx

; 514  : 
; 515  :         if (_Wherenode == _Myhead->_Parent) {

  000eb	8b 0b		 mov	 ecx, DWORD PTR [ebx]
  000ed	3b 51 04	 cmp	 edx, DWORD PTR [ecx+4]
  000f0	75 0b		 jne	 SHORT $LN30@Insert_nod

; 516  :             _Myhead->_Parent = _Pnode;

  000f2	89 71 04	 mov	 DWORD PTR [ecx+4], esi

; 521  :         }
; 522  : 
; 523  :         _Pnode->_Right      = _Wherenode;

  000f5	89 56 08	 mov	 DWORD PTR [esi+8], edx

; 713  :                 }
; 714  :             } else { // fixup red-red in right subtree

  000f8	e9 cc 00 00 00	 jmp	 $LN81@Insert_nod
$LN30@Insert_nod:

; 517  :         } else if (_Wherenode == _Wherenode->_Parent->_Right) {

  000fd	8b 4a 04	 mov	 ecx, DWORD PTR [edx+4]
  00100	3b 51 08	 cmp	 edx, DWORD PTR [ecx+8]
  00103	75 0b		 jne	 SHORT $LN32@Insert_nod

; 518  :             _Wherenode->_Parent->_Right = _Pnode;

  00105	89 71 08	 mov	 DWORD PTR [ecx+8], esi

; 521  :         }
; 522  : 
; 523  :         _Pnode->_Right      = _Wherenode;

  00108	89 56 08	 mov	 DWORD PTR [esi+8], edx

; 713  :                 }
; 714  :             } else { // fixup red-red in right subtree

  0010b	e9 b9 00 00 00	 jmp	 $LN81@Insert_nod
$LN32@Insert_nod:

; 520  :             _Wherenode->_Parent->_Left = _Pnode;

  00110	89 31		 mov	 DWORD PTR [ecx], esi

; 521  :         }
; 522  : 
; 523  :         _Pnode->_Right      = _Wherenode;

  00112	89 56 08	 mov	 DWORD PTR [esi+8], edx

; 713  :                 }
; 714  :             } else { // fixup red-red in right subtree

  00115	e9 af 00 00 00	 jmp	 $LN81@Insert_nod
$LN10@Insert_nod:

; 715  :                 const auto _Parent_sibling = _Pnode->_Parent->_Parent->_Left;
; 716  :                 if (_Parent_sibling->_Color == _Red) { // parent's sibling has two red children, blacken both

  0011a	80 79 0c 00	 cmp	 BYTE PTR [ecx+12], 0
  0011e	75 1d		 jne	 SHORT $LN15@Insert_nod
$LN82@Insert_nod:

; 693  :             }
; 694  :         }
; 695  : 
; 696  :         for (_Nodeptr _Pnode = _Newnode; _Pnode->_Parent->_Color == _Red;) {

  00120	c6 42 0c 01	 mov	 BYTE PTR [edx+12], 1
  00124	c6 41 0c 01	 mov	 BYTE PTR [ecx+12], 1
  00128	8b 48 04	 mov	 ecx, DWORD PTR [eax+4]
  0012b	8b 49 04	 mov	 ecx, DWORD PTR [ecx+4]
  0012e	c6 41 0c 00	 mov	 BYTE PTR [ecx+12], 0
  00132	8b 48 04	 mov	 ecx, DWORD PTR [eax+4]
  00135	8b 41 04	 mov	 eax, DWORD PTR [ecx+4]
  00138	e9 8f 00 00 00	 jmp	 $LN2@Insert_nod
$LN15@Insert_nod:

; 717  :                     _Pnode->_Parent->_Color          = _Black;
; 718  :                     _Parent_sibling->_Color          = _Black;
; 719  :                     _Pnode->_Parent->_Parent->_Color = _Red;
; 720  :                     _Pnode                           = _Pnode->_Parent->_Parent;
; 721  :                 } else { // parent's sibling has red and black children
; 722  :                     if (_Pnode == _Pnode->_Parent->_Left) { // rotate left child to right

  0013d	8b 32		 mov	 esi, DWORD PTR [edx]
  0013f	3b c6		 cmp	 eax, esi
  00141	75 3a		 jne	 SHORT $LN42@Insert_nod

; 507  :         _Wherenode->_Left = _Pnode->_Right;

  00143	8b 4e 08	 mov	 ecx, DWORD PTR [esi+8]

; 723  :                         _Pnode = _Pnode->_Parent;

  00146	8b c2		 mov	 eax, edx

; 507  :         _Wherenode->_Left = _Pnode->_Right;

  00148	89 08		 mov	 DWORD PTR [eax], ecx

; 508  : 
; 509  :         if (!_Pnode->_Right->_Isnil) {

  0014a	8b 4e 08	 mov	 ecx, DWORD PTR [esi+8]
  0014d	80 79 0d 00	 cmp	 BYTE PTR [ecx+13], 0
  00151	75 03		 jne	 SHORT $LN37@Insert_nod

; 510  :             _Pnode->_Right->_Parent = _Wherenode;

  00153	89 41 04	 mov	 DWORD PTR [ecx+4], eax
$LN37@Insert_nod:

; 511  :         }
; 512  : 
; 513  :         _Pnode->_Parent = _Wherenode->_Parent;

  00156	8b 4a 04	 mov	 ecx, DWORD PTR [edx+4]
  00159	89 4e 04	 mov	 DWORD PTR [esi+4], ecx

; 514  : 
; 515  :         if (_Wherenode == _Myhead->_Parent) {

  0015c	8b 0b		 mov	 ecx, DWORD PTR [ebx]
  0015e	3b 41 04	 cmp	 eax, DWORD PTR [ecx+4]
  00161	75 05		 jne	 SHORT $LN38@Insert_nod

; 516  :             _Myhead->_Parent = _Pnode;

  00163	89 71 04	 mov	 DWORD PTR [ecx+4], esi
  00166	eb 0f		 jmp	 SHORT $LN41@Insert_nod
$LN38@Insert_nod:

; 517  :         } else if (_Wherenode == _Wherenode->_Parent->_Right) {

  00168	8b 4a 04	 mov	 ecx, DWORD PTR [edx+4]
  0016b	3b 41 08	 cmp	 eax, DWORD PTR [ecx+8]
  0016e	75 05		 jne	 SHORT $LN40@Insert_nod

; 518  :             _Wherenode->_Parent->_Right = _Pnode;

  00170	89 71 08	 mov	 DWORD PTR [ecx+8], esi

; 519  :         } else {

  00173	eb 02		 jmp	 SHORT $LN41@Insert_nod
$LN40@Insert_nod:

; 520  :             _Wherenode->_Parent->_Left = _Pnode;

  00175	89 31		 mov	 DWORD PTR [ecx], esi
$LN41@Insert_nod:

; 521  :         }
; 522  : 
; 523  :         _Pnode->_Right      = _Wherenode;

  00177	89 46 08	 mov	 DWORD PTR [esi+8], eax

; 524  :         _Wherenode->_Parent = _Pnode;

  0017a	89 70 04	 mov	 DWORD PTR [eax+4], esi
$LN42@Insert_nod:

; 724  :                         _Rrotate(_Pnode);
; 725  :                     }
; 726  : 
; 727  :                     _Pnode->_Parent->_Color          = _Black; // propagate red up

  0017d	8b 48 04	 mov	 ecx, DWORD PTR [eax+4]
  00180	c6 41 0c 01	 mov	 BYTE PTR [ecx+12], 1

; 728  :                     _Pnode->_Parent->_Parent->_Color = _Red;

  00184	8b 48 04	 mov	 ecx, DWORD PTR [eax+4]
  00187	8b 49 04	 mov	 ecx, DWORD PTR [ecx+4]
  0018a	c6 41 0c 00	 mov	 BYTE PTR [ecx+12], 0

; 729  :                     _Lrotate(_Pnode->_Parent->_Parent);

  0018e	8b 48 04	 mov	 ecx, DWORD PTR [eax+4]
  00191	8b 51 04	 mov	 edx, DWORD PTR [ecx+4]

; 484  :         _Nodeptr _Pnode    = _Wherenode->_Right;

  00194	8b 72 08	 mov	 esi, DWORD PTR [edx+8]

; 485  :         _Wherenode->_Right = _Pnode->_Left;

  00197	8b 0e		 mov	 ecx, DWORD PTR [esi]
  00199	89 4a 08	 mov	 DWORD PTR [edx+8], ecx

; 486  : 
; 487  :         if (!_Pnode->_Left->_Isnil) {

  0019c	8b 0e		 mov	 ecx, DWORD PTR [esi]
  0019e	80 79 0d 00	 cmp	 BYTE PTR [ecx+13], 0
  001a2	75 03		 jne	 SHORT $LN45@Insert_nod

; 488  :             _Pnode->_Left->_Parent = _Wherenode;

  001a4	89 51 04	 mov	 DWORD PTR [ecx+4], edx
$LN45@Insert_nod:

; 489  :         }
; 490  : 
