; Listing generated by Microsoft (R) Optimizing Compiler Version 19.44.35225.0 

	TITLE	C:\IAGOS\server\v18\Source\Output\WorldServer\Release\pet.obj
	.686P
	.XMM
	include listing.inc
	.model	flat

INCLUDELIB LIBCMT
INCLUDELIB OLDNAMES

CONST	SEGMENT
?piecewise_construct@std@@3Upiecewise_construct_t@1@B	ORG $+1 ; std::piecewise_construct
CONST	ENDS
PUBLIC	??_H@YGXPAXIIP6EPAX0@Z@Z			; `vector constructor iterator'
PUBLIC	?__empty_global_delete@@YAXPAX@Z		; __empty_global_delete
PUBLIC	?__empty_global_delete@@YAXPAXI@Z		; __empty_global_delete
PUBLIC	?AtlThrowImpl@ATL@@YGXJ@Z			; ATL::AtlThrowImpl
PUBLIC	??0exception@std@@QAE@ABV01@@Z			; std::exception::exception
PUBLIC	??1exception@std@@UAE@XZ			; std::exception::~exception
PUBLIC	?what@exception@std@@UBEPBDXZ			; std::exception::what
PUBLIC	??_Gexception@std@@UAEPAXI@Z			; std::exception::`scalar deleting destructor'
PUBLIC	??0bad_alloc@std@@QAE@ABV01@@Z			; std::bad_alloc::bad_alloc
PUBLIC	??_Gbad_alloc@std@@UAEPAXI@Z			; std::bad_alloc::`scalar deleting destructor'
PUBLIC	??0bad_array_new_length@std@@QAE@XZ		; std::bad_array_new_length::bad_array_new_length
PUBLIC	??1bad_array_new_length@std@@UAE@XZ		; std::bad_array_new_length::~bad_array_new_length
PUBLIC	??0bad_array_new_length@std@@QAE@ABV01@@Z	; std::bad_array_new_length::bad_array_new_length
PUBLIC	??_Gbad_array_new_length@std@@UAEPAXI@Z		; std::bad_array_new_length::`scalar deleting destructor'
PUBLIC	?_Throw_bad_array_new_length@std@@YAXXZ		; std::_Throw_bad_array_new_length
PUBLIC	?_Throw_tree_length_error@std@@YAXXZ		; std::_Throw_tree_length_error
PUBLIC	??0_PETPENALTY@@QAE@XZ				; _PETPENALTY::_PETPENALTY
PUBLIC	??0CPetProperty@@QAE@XZ				; CPetProperty::CPetProperty
PUBLIC	??1CPetProperty@@UAE@XZ				; CPetProperty::~CPetProperty
PUBLIC	?GetAvailParam@CPetProperty@@QAEPAU_PETAVAILPARAM@@E@Z ; CPetProperty::GetAvailParam
PUBLIC	?GetLevelupAvailLevel@CPetProperty@@QAEEE@Z	; CPetProperty::GetLevelupAvailLevel
PUBLIC	?GetFeedEnergy@CPetProperty@@QAEGKH@Z		; CPetProperty::GetFeedEnergy
PUBLIC	?GetIncrementExp@CPetProperty@@QAEKE@Z		; CPetProperty::GetIncrementExp
PUBLIC	?GetMaxEnergy@CPetProperty@@QAEGE@Z		; CPetProperty::GetMaxEnergy
PUBLIC	?GetAddLife@CPetProperty@@QAEGXZ		; CPetProperty::GetAddLife
PUBLIC	?GetInstance@CPetProperty@@SAPAV1@XZ		; CPetProperty::GetInstance
PUBLIC	?LoadScript@CPetProperty@@QAEHPBD@Z		; CPetProperty::LoadScript
PUBLIC	?Hatch@CPetProperty@@QAEEXZ			; CPetProperty::Hatch
PUBLIC	?GetPenalty@CPetProperty@@QAEPAU_PETPENALTY@@E@Z ; CPetProperty::GetPenalty
PUBLIC	??0?$vector@U_FEEDENERGY@@V?$allocator@U_FEEDENERGY@@@std@@@std@@QAE@XZ ; std::vector<_FEEDENERGY,std::allocator<_FEEDENERGY> >::vector<_FEEDENERGY,std::allocator<_FEEDENERGY> >
PUBLIC	??1?$vector@U_FEEDENERGY@@V?$allocator@U_FEEDENERGY@@@std@@@std@@QAE@XZ ; std::vector<_FEEDENERGY,std::allocator<_FEEDENERGY> >::~vector<_FEEDENERGY,std::allocator<_FEEDENERGY> >
PUBLIC	?_Xlength@?$vector@U_FEEDENERGY@@V?$allocator@U_FEEDENERGY@@@std@@@std@@CAXXZ ; std::vector<_FEEDENERGY,std::allocator<_FEEDENERGY> >::_Xlength
PUBLIC	??1?$vector@GV?$allocator@G@std@@@std@@QAE@XZ	; std::vector<unsigned short,std::allocator<unsigned short> >::~vector<unsigned short,std::allocator<unsigned short> >
PUBLIC	?_Xlength@?$vector@GV?$allocator@G@std@@@std@@CAXXZ ; std::vector<unsigned short,std::allocator<unsigned short> >::_Xlength
PUBLIC	??_GCPetProperty@@UAEPAXI@Z			; CPetProperty::`scalar deleting destructor'
PUBLIC	??0CPet@@QAE@XZ					; CPet::CPet
PUBLIC	??1CPet@@UAE@XZ					; CPet::~CPet
PUBLIC	?Serialize@CPet@@QAEXAAVCAr@@@Z			; CPet::Serialize
PUBLIC	?SetAvailLevel@CPet@@QAEXEE@Z			; CPet::SetAvailLevel
PUBLIC	?GetIndex@CPet@@QAEKXZ				; CPet::GetIndex
PUBLIC	?GetAvailLevel@CPet@@QAEEE@Z			; CPet::GetAvailLevel
PUBLIC	?GetAvailDestParam@CPet@@QAEXAAKAAH@Z		; CPet::GetAvailDestParam
PUBLIC	?SetExp@CPet@@QAEXK@Z				; CPet::SetExp
PUBLIC	?GetLife@CPet@@QAEGXZ				; CPet::GetLife
PUBLIC	?SetEnergy@CPet@@QAEXG@Z			; CPet::SetEnergy
PUBLIC	?SetName@CPet@@QAEXPBD@Z			; CPet::SetName
PUBLIC	?InitEgg@CPet@@QAEXXZ				; CPet::InitEgg
PUBLIC	??4CPet@@QAEAAV0@AAV0@@Z			; CPet::operator=
PUBLIC	??_GCPet@@UAEPAXI@Z				; CPet::`scalar deleting destructor'
PUBLIC	??0CTransformStuff@@QAE@XZ			; CTransformStuff::CTransformStuff
PUBLIC	??0CTransformStuff@@QAE@H@Z			; CTransformStuff::CTransformStuff
PUBLIC	??1CTransformStuff@@UAE@XZ			; CTransformStuff::~CTransformStuff
PUBLIC	?AddComponent@CTransformStuff@@QAEXHF@Z		; CTransformStuff::AddComponent
PUBLIC	?Serialize@CTransformStuff@@UAEXAAVCAr@@@Z	; CTransformStuff::Serialize
PUBLIC	??1?$vector@U_TransformStuffComponent@@V?$allocator@U_TransformStuffComponent@@@std@@@std@@QAE@XZ ; std::vector<_TransformStuffComponent,std::allocator<_TransformStuffComponent> >::~vector<_TransformStuffComponent,std::allocator<_TransformStuffComponent> >
PUBLIC	?_Xlength@?$vector@U_TransformStuffComponent@@V?$allocator@U_TransformStuffComponent@@@std@@@std@@CAXXZ ; std::vector<_TransformStuffComponent,std::allocator<_TransformStuffComponent> >::_Xlength
PUBLIC	??_GCTransformStuff@@UAEPAXI@Z			; CTransformStuff::`scalar deleting destructor'
PUBLIC	??1ITransformer@@UAE@XZ				; ITransformer::~ITransformer
PUBLIC	?Transformer@ITransformer@@SAPAV1@H@Z		; ITransformer::Transformer
PUBLIC	?IsValidStuff@ITransformer@@UAEHPAVCUser@@AAVCTransformStuff@@@Z ; ITransformer::IsValidStuff
PUBLIC	?Transform@ITransformer@@QAEXPAVCUser@@AAVCTransformStuff@@@Z ; ITransformer::Transform
PUBLIC	?RemoveItem@ITransformer@@QAEXPAVCUser@@AAVCTransformStuff@@@Z ; ITransformer::RemoveItem
PUBLIC	?CreateItem@ITransformer@@QAEXPAVCUser@@AAVCTransformStuff@@@Z ; ITransformer::CreateItem
PUBLIC	??0CTransformerEgg@@QAE@XZ			; CTransformerEgg::CTransformerEgg
PUBLIC	??1CTransformerEgg@@UAE@XZ			; CTransformerEgg::~CTransformerEgg
PUBLIC	?IsValidStuff@CTransformerEgg@@UAEHPAVCUser@@AAVCTransformStuff@@@Z ; CTransformerEgg::IsValidStuff
PUBLIC	?Instance@CTransformerEgg@@SAPAV1@XZ		; CTransformerEgg::Instance
PUBLIC	??_GCTransformerEgg@@UAEPAXI@Z			; CTransformerEgg::`scalar deleting destructor'
PUBLIC	??0CTransformItemComponent@@QAE@H@Z		; CTransformItemComponent::CTransformItemComponent
PUBLIC	??1CTransformItemComponent@@UAE@XZ		; CTransformItemComponent::~CTransformItemComponent
PUBLIC	?Clear@CTransformItemComponent@@QAEXXZ		; CTransformItemComponent::Clear
PUBLIC	?AddElement@CTransformItemComponent@@QAEXU_TransformItemElement@@@Z ; CTransformItemComponent::AddElement
PUBLIC	?AdjustmentProbability@CTransformItemComponent@@QAEXAAU_TransformItemElement@@@Z ; CTransformItemComponent::AdjustmentProbability
PUBLIC	?GetItem@CTransformItemComponent@@QAEPAVCItemElem@@XZ ; CTransformItemComponent::GetItem
PUBLIC	??1?$vector@U_TransformItemElement@@V?$allocator@U_TransformItemElement@@@std@@@std@@QAE@XZ ; std::vector<_TransformItemElement,std::allocator<_TransformItemElement> >::~vector<_TransformItemElement,std::allocator<_TransformItemElement> >
PUBLIC	?_Xlength@?$vector@U_TransformItemElement@@V?$allocator@U_TransformItemElement@@@std@@@std@@CAXXZ ; std::vector<_TransformItemElement,std::allocator<_TransformItemElement> >::_Xlength
PUBLIC	??_GCTransformItemComponent@@UAEPAXI@Z		; CTransformItemComponent::`scalar deleting destructor'
PUBLIC	??0CTransformItemProperty@@QAE@XZ		; CTransformItemProperty::CTransformItemProperty
PUBLIC	??1CTransformItemProperty@@UAE@XZ		; CTransformItemProperty::~CTransformItemProperty
PUBLIC	?Instance@CTransformItemProperty@@SAPAV1@XZ	; CTransformItemProperty::Instance
PUBLIC	?AddComponent@CTransformItemProperty@@QAEXPAVCTransformItemComponent@@@Z ; CTransformItemProperty::AddComponent
PUBLIC	?GetStuffSize@CTransformItemProperty@@QAEIH@Z	; CTransformItemProperty::GetStuffSize
PUBLIC	?GetItem@CTransformItemProperty@@QAEPAVCItemElem@@H@Z ; CTransformItemProperty::GetItem
PUBLIC	?LoadScript@CTransformItemProperty@@QAEHPBD@Z	; CTransformItemProperty::LoadScript
PUBLIC	?CreateItemGeneric@CTransformItemProperty@@QAEPAVCItemElem@@AAVCScript@@@Z ; CTransformItemProperty::CreateItemGeneric
PUBLIC	?CreateItemPet@CTransformItemProperty@@QAEPAVCItemElem@@AAVCScript@@@Z ; CTransformItemProperty::CreateItemPet
PUBLIC	?GetComponent@CTransformItemProperty@@AAEPAVCTransformItemComponent@@H@Z ; CTransformItemProperty::GetComponent
PUBLIC	??1?$_Tree@V?$_Tmap_traits@HPAVCTransformItemComponent@@U?$less@H@std@@V?$allocator@U?$pair@$$CBHPAVCTransformItemComponent@@@std@@@3@$0A@@std@@@std@@QAE@XZ ; std::_Tree<std::_Tmap_traits<int,CTransformItemComponent *,std::less<int>,std::allocator<std::pair<int const ,CTransformItemComponent *> >,0> >::~_Tree<std::_Tmap_traits<int,CTransformItemComponent *,std::less<int>,std::allocator<std::pair<int const ,CTransformItemComponent *> >,0> >
PUBLIC	?_Insert_node@?$_Tree_val@U?$_Tree_simple_types@U?$pair@$$CBHPAVCTransformItemComponent@@@std@@@std@@@std@@QAEPAU?$_Tree_node@U?$pair@$$CBHPAVCTransformItemComponent@@@std@@PAX@2@U?$_Tree_id@PAU?$_Tree_node@U?$pair@$$CBHPAVCTransformItemComponent@@@std@@PAX@std@@@2@QAU32@@Z ; std::_Tree_val<std::_Tree_simple_types<std::pair<int const ,CTransformItemComponent *> > >::_Insert_node
PUBLIC	??_GCTransformItemProperty@@UAEPAXI@Z		; CTransformItemProperty::`scalar deleting destructor'
PUBLIC	??$_Allocate_manually_vector_aligned@U_Default_allocate_traits@std@@@std@@YAPAXI@Z ; std::_Allocate_manually_vector_aligned<std::_Default_allocate_traits>
PUBLIC	??$?6G@CAr@@QAEAAV0@ABG@Z			; CAr::operator<<<unsigned short>
PUBLIC	??$?6H@CAr@@QAEAAV0@ABH@Z			; CAr::operator<<<int>
PUBLIC	??$?5G@CAr@@QAEAAV0@AAG@Z			; CAr::operator>><unsigned short>
PUBLIC	??$?5H@CAr@@QAEAAV0@AAH@Z			; CAr::operator>><int>
PUBLIC	??$?6I@CAr@@QAEAAV0@ABI@Z			; CAr::operator<<<unsigned int>
PUBLIC	??$?6K@CAr@@QAEAAV0@ABK@Z			; CAr::operator<<<unsigned long>
PUBLIC	??$?5K@CAr@@QAEAAV0@AAK@Z			; CAr::operator>><unsigned long>
PUBLIC	??$?6E@CAr@@QAEAAV0@ABE@Z			; CAr::operator<<<unsigned char>
PUBLIC	??$?5E@CAr@@QAEAAV0@AAE@Z			; CAr::operator>><unsigned char>
PUBLIC	??$?5I@CAr@@QAEAAV0@AAI@Z			; CAr::operator>><unsigned int>
PUBLIC	??1?$_Tree@V?$_Tset_traits@HU?$less@H@std@@V?$allocator@H@2@$0A@@std@@@std@@QAE@XZ ; std::_Tree<std::_Tset_traits<int,std::less<int>,std::allocator<int>,0> >::~_Tree<std::_Tset_traits<int,std::less<int>,std::allocator<int>,0> >
PUBLIC	?_Insert_node@?$_Tree_val@U?$_Tree_simple_types@H@std@@@std@@QAEPAU?$_Tree_node@HPAX@2@U?$_Tree_id@PAU?$_Tree_node@HPAX@std@@@2@QAU32@@Z ; std::_Tree_val<std::_Tree_simple_types<int> >::_Insert_node
PUBLIC	??1?$set@HU?$less@H@std@@V?$allocator@H@2@@std@@QAE@XZ ; std::set<int,std::less<int>,std::allocator<int> >::~set<int,std::less<int>,std::allocator<int> >
PUBLIC	??$_Erase_tree@V?$allocator@U?$_Tree_node@U?$pair@$$CBHPAVCTransformItemComponent@@@std@@PAX@std@@@std@@@?$_Tree_val@U?$_Tree_simple_types@U?$pair@$$CBHPAVCTransformItemComponent@@@std@@@std@@@std@@QAEXAAV?$allocator@U?$_Tree_node@U?$pair@$$CBHPAVCTransformItemComponent@@@std@@PAX@std@@@1@PAU?$_Tree_node@U?$pair@$$CBHPAVCTransformItemComponent@@@std@@PAX@1@@Z ; std::_Tree_val<std::_Tree_simple_types<std::pair<int const ,CTransformItemComponent *> > >::_Erase_tree<std::allocator<std::_Tree_node<std::pair<int const ,CTransformItemComponent *>,void *> > >
PUBLIC	??1?$_Alloc_construct_ptr@V?$allocator@U?$_Tree_node@HPAX@std@@@std@@@std@@QAE@XZ ; std::_Alloc_construct_ptr<std::allocator<std::_Tree_node<int,void *> > >::~_Alloc_construct_ptr<std::allocator<std::_Tree_node<int,void *> > >
PUBLIC	??$_Find_lower_bound@H@?$_Tree@V?$_Tmap_traits@HPAVCTransformItemComponent@@U?$less@H@std@@V?$allocator@U?$pair@$$CBHPAVCTransformItemComponent@@@std@@@3@$0A@@std@@@std@@IBE?AU?$_Tree_find_result@PAU?$_Tree_node@U?$pair@$$CBHPAVCTransformItemComponent@@@std@@PAX@std@@@1@ABH@Z ; std::_Tree<std::_Tmap_traits<int,CTransformItemComponent *,std::less<int>,std::allocator<std::pair<int const ,CTransformItemComponent *> >,0> >::_Find_lower_bound<int>
PUBLIC	??1?$_Alloc_construct_ptr@V?$allocator@U?$_Tree_node@U?$pair@$$CBHPAVCTransformItemComponent@@@std@@PAX@std@@@std@@@std@@QAE@XZ ; std::_Alloc_construct_ptr<std::allocator<std::_Tree_node<std::pair<int const ,CTransformItemComponent *>,void *> > >::~_Alloc_construct_ptr<std::allocator<std::_Tree_node<std::pair<int const ,CTransformItemComponent *>,void *> > >
PUBLIC	??$_Erase_tree@V?$allocator@U?$_Tree_node@HPAX@std@@@std@@@?$_Tree_val@U?$_Tree_simple_types@H@std@@@std@@QAEXAAV?$allocator@U?$_Tree_node@HPAX@std@@@1@PAU?$_Tree_node@HPAX@1@@Z ; std::_Tree_val<std::_Tree_simple_types<int> >::_Erase_tree<std::allocator<std::_Tree_node<int,void *> > >
PUBLIC	??$_Emplace_reallocate@ABU_TransformItemElement@@@?$vector@U_TransformItemElement@@V?$allocator@U_TransformItemElement@@@std@@@std@@AAEPAU_TransformItemElement@@QAU2@ABU2@@Z ; std::vector<_TransformItemElement,std::allocator<_TransformItemElement> >::_Emplace_reallocate<_TransformItemElement const &>
PUBLIC	??$_Emplace_reallocate@ABU_TransformStuffComponent@@@?$vector@U_TransformStuffComponent@@V?$allocator@U_TransformStuffComponent@@@std@@@std@@AAEPAU_TransformStuffComponent@@QAU2@ABU2@@Z ; std::vector<_TransformStuffComponent,std::allocator<_TransformStuffComponent> >::_Emplace_reallocate<_TransformStuffComponent const &>
PUBLIC	??$_Emplace_reallocate@ABU_FEEDENERGY@@@?$vector@U_FEEDENERGY@@V?$allocator@U_FEEDENERGY@@@std@@@std@@AAEPAU_FEEDENERGY@@QAU2@ABU2@@Z ; std::vector<_FEEDENERGY,std::allocator<_FEEDENERGY> >::_Emplace_reallocate<_FEEDENERGY const &>
PUBLIC	??$_Emplace_reallocate@ABG@?$vector@GV?$allocator@G@std@@@std@@AAEPAGQAGABG@Z ; std::vector<unsigned short,std::allocator<unsigned short> >::_Emplace_reallocate<unsigned short const &>
PUBLIC	??$_Copy_memmove@PAU_TransformItemElement@@PAU1@@std@@YAPAU_TransformItemElement@@PAU1@00@Z ; std::_Copy_memmove<_TransformItemElement *,_TransformItemElement *>
PUBLIC	??$_Copy_memmove@PAU_TransformStuffComponent@@PAU1@@std@@YAPAU_TransformStuffComponent@@PAU1@00@Z ; std::_Copy_memmove<_TransformStuffComponent *,_TransformStuffComponent *>
PUBLIC	??$_Copy_memmove@PAU_FEEDENERGY@@PAU1@@std@@YAPAU_FEEDENERGY@@PAU1@00@Z ; std::_Copy_memmove<_FEEDENERGY *,_FEEDENERGY *>
PUBLIC	??$_Copy_memmove@PAGPAG@std@@YAPAGPAG00@Z	; std::_Copy_memmove<unsigned short *,unsigned short *>
PUBLIC	??$_Copy_memmove_tail@PAU_TransformItemElement@@@std@@YAPAU_TransformItemElement@@QBDQAU1@II@Z ; std::_Copy_memmove_tail<_TransformItemElement *>
PUBLIC	??$_Copy_memmove_tail@PAU_TransformStuffComponent@@@std@@YAPAU_TransformStuffComponent@@QBDQAU1@II@Z ; std::_Copy_memmove_tail<_TransformStuffComponent *>
PUBLIC	??$_Copy_memmove_tail@PAU_FEEDENERGY@@@std@@YAPAU_FEEDENERGY@@QBDQAU1@II@Z ; std::_Copy_memmove_tail<_FEEDENERGY *>
PUBLIC	??$_Copy_memmove_tail@PAG@std@@YAPAGQBDQAGII@Z	; std::_Copy_memmove_tail<unsigned short *>
PUBLIC	??_7exception@std@@6B@				; std::exception::`vftable'
PUBLIC	??_C@_0BC@EOODALEL@Unknown?5exception@		; `string'
PUBLIC	??_7bad_alloc@std@@6B@				; std::bad_alloc::`vftable'
PUBLIC	??_7bad_array_new_length@std@@6B@		; std::bad_array_new_length::`vftable'
PUBLIC	??_C@_0BF@KINCDENJ@bad?5array?5new?5length@	; `string'
PUBLIC	??_R0?AVexception@std@@@8			; std::exception `RTTI Type Descriptor'
PUBLIC	__CT??_R0?AVexception@std@@@8??0exception@std@@QAE@ABV01@@Z12
PUBLIC	__TI3?AVbad_array_new_length@std@@
PUBLIC	__CTA3?AVbad_array_new_length@std@@
PUBLIC	??_R0?AVbad_array_new_length@std@@@8		; std::bad_array_new_length `RTTI Type Descriptor'
PUBLIC	__CT??_R0?AVbad_array_new_length@std@@@8??0bad_array_new_length@std@@QAE@ABV01@@Z12
PUBLIC	??_R0?AVbad_alloc@std@@@8			; std::bad_alloc `RTTI Type Descriptor'
PUBLIC	__CT??_R0?AVbad_alloc@std@@@8??0bad_alloc@std@@QAE@ABV01@@Z12
PUBLIC	??_C@_0BB@GCADKGJO@map?1set?5too?5long@		; `string'
PUBLIC	??_C@_0BM@HMFGHCP@?$CFs?5min?3?$CFd?0?5max?3?$CFd?0?5index?3?$CFd@ ; `string'
PUBLIC	??_C@_0BI@BEIFNGEL@GetItemProp?5range_error@	; `string'
PUBLIC	??_7CPetProperty@@6B@				; CPetProperty::`vftable'
PUBLIC	??_7CPet@@6B@					; CPet::`vftable'
PUBLIC	??_7CTransformStuff@@6B@			; CTransformStuff::`vftable'
PUBLIC	??_7ITransformer@@6B@				; ITransformer::`vftable'
PUBLIC	??_7CTransformerEgg@@6B@			; CTransformerEgg::`vftable'
PUBLIC	??_7CTransformItemComponent@@6B@		; CTransformItemComponent::`vftable'
PUBLIC	??_7CTransformItemProperty@@6B@			; CTransformItemProperty::`vftable'
PUBLIC	??_C@_0BA@FOIKENOD@vector?5too?5long@		; `string'
PUBLIC	??_R4exception@std@@6B@				; std::exception::`RTTI Complete Object Locator'
PUBLIC	??_R3exception@std@@8				; std::exception::`RTTI Class Hierarchy Descriptor'
PUBLIC	??_R2exception@std@@8				; std::exception::`RTTI Base Class Array'
PUBLIC	??_R1A@?0A@EA@exception@std@@8			; std::exception::`RTTI Base Class Descriptor at (0,-1,0,64)'
PUBLIC	??_R4bad_array_new_length@std@@6B@		; std::bad_array_new_length::`RTTI Complete Object Locator'
PUBLIC	??_R3bad_array_new_length@std@@8		; std::bad_array_new_length::`RTTI Class Hierarchy Descriptor'
PUBLIC	??_R2bad_array_new_length@std@@8		; std::bad_array_new_length::`RTTI Base Class Array'
PUBLIC	??_R1A@?0A@EA@bad_array_new_length@std@@8	; std::bad_array_new_length::`RTTI Base Class Descriptor at (0,-1,0,64)'
PUBLIC	??_R1A@?0A@EA@bad_alloc@std@@8			; std::bad_alloc::`RTTI Base Class Descriptor at (0,-1,0,64)'
PUBLIC	??_R3bad_alloc@std@@8				; std::bad_alloc::`RTTI Class Hierarchy Descriptor'
PUBLIC	??_R2bad_alloc@std@@8				; std::bad_alloc::`RTTI Base Class Array'
PUBLIC	??_R4bad_alloc@std@@6B@				; std::bad_alloc::`RTTI Complete Object Locator'
PUBLIC	??_R4ITransformer@@6B@				; ITransformer::`RTTI Complete Object Locator'
PUBLIC	??_R0?AVITransformer@@@8			; ITransformer `RTTI Type Descriptor'
PUBLIC	??_R3ITransformer@@8				; ITransformer::`RTTI Class Hierarchy Descriptor'
PUBLIC	??_R2ITransformer@@8				; ITransformer::`RTTI Base Class Array'
PUBLIC	??_R1A@?0A@EA@ITransformer@@8			; ITransformer::`RTTI Base Class Descriptor at (0,-1,0,64)'
PUBLIC	??_C@_0P@DOCAHOFJ@AvailDestParam@		; `string'
PUBLIC	??_C@_0N@ELNJGIBK@LevelupAvail@			; `string'
PUBLIC	??_C@_0L@NIFCIDOF@FeedEnergy@			; `string'
PUBLIC	??_C@_0N@FDFFOKED@IncrementExp@			; `string'
PUBLIC	??_C@_09EENALPJP@MaxEnergy@			; `string'
PUBLIC	??_C@_0BD@NJHGCLHH@AddLifeProbability@		; `string'
PUBLIC	??_C@_07FMCMMKEN@Penalty@			; `string'
PUBLIC	??_C@_0BG@OHIJOLMK@transform?9removestuff@	; `string'
PUBLIC	??_C@_01MMEEDKFM@X@				; `string'
PUBLIC	??_C@_09IFONHNKG@transform@			; `string'
PUBLIC	??_C@_05OMMFEMCB@stuff@				; `string'
PUBLIC	??_C@_04NHONDGDE@item@				; `string'
PUBLIC	??_R4CPetProperty@@6B@				; CPetProperty::`RTTI Complete Object Locator'
PUBLIC	??_R0?AVCPetProperty@@@8			; CPetProperty `RTTI Type Descriptor'
PUBLIC	??_R3CPetProperty@@8				; CPetProperty::`RTTI Class Hierarchy Descriptor'
PUBLIC	??_R2CPetProperty@@8				; CPetProperty::`RTTI Base Class Array'
PUBLIC	??_R1A@?0A@EA@CPetProperty@@8			; CPetProperty::`RTTI Base Class Descriptor at (0,-1,0,64)'
PUBLIC	??_R4CPet@@6B@					; CPet::`RTTI Complete Object Locator'
PUBLIC	??_R0?AVCPet@@@8				; CPet `RTTI Type Descriptor'
PUBLIC	??_R3CPet@@8					; CPet::`RTTI Class Hierarchy Descriptor'
PUBLIC	??_R2CPet@@8					; CPet::`RTTI Base Class Array'
PUBLIC	??_R1A@?0A@EA@CPet@@8				; CPet::`RTTI Base Class Descriptor at (0,-1,0,64)'
PUBLIC	??_R4CTransformStuff@@6B@			; CTransformStuff::`RTTI Complete Object Locator'
PUBLIC	??_R0?AVCTransformStuff@@@8			; CTransformStuff `RTTI Type Descriptor'
PUBLIC	??_R3CTransformStuff@@8				; CTransformStuff::`RTTI Class Hierarchy Descriptor'
PUBLIC	??_R2CTransformStuff@@8				; CTransformStuff::`RTTI Base Class Array'
PUBLIC	??_R1A@?0A@EA@CTransformStuff@@8		; CTransformStuff::`RTTI Base Class Descriptor at (0,-1,0,64)'
PUBLIC	??_R4CTransformerEgg@@6B@			; CTransformerEgg::`RTTI Complete Object Locator'
PUBLIC	??_R0?AVCTransformerEgg@@@8			; CTransformerEgg `RTTI Type Descriptor'
PUBLIC	??_R3CTransformerEgg@@8				; CTransformerEgg::`RTTI Class Hierarchy Descriptor'
PUBLIC	??_R2CTransformerEgg@@8				; CTransformerEgg::`RTTI Base Class Array'
PUBLIC	??_R1A@?0A@EA@CTransformerEgg@@8		; CTransformerEgg::`RTTI Base Class Descriptor at (0,-1,0,64)'
PUBLIC	??_R4CTransformItemComponent@@6B@		; CTransformItemComponent::`RTTI Complete Object Locator'
PUBLIC	??_R0?AVCTransformItemComponent@@@8		; CTransformItemComponent `RTTI Type Descriptor'
PUBLIC	??_R3CTransformItemComponent@@8			; CTransformItemComponent::`RTTI Class Hierarchy Descriptor'
PUBLIC	??_R2CTransformItemComponent@@8			; CTransformItemComponent::`RTTI Base Class Array'
PUBLIC	??_R1A@?0A@EA@CTransformItemComponent@@8	; CTransformItemComponent::`RTTI Base Class Descriptor at (0,-1,0,64)'
PUBLIC	??_R4CTransformItemProperty@@6B@		; CTransformItemProperty::`RTTI Complete Object Locator'
PUBLIC	??_R0?AVCTransformItemProperty@@@8		; CTransformItemProperty `RTTI Type Descriptor'
PUBLIC	??_R3CTransformItemProperty@@8			; CTransformItemProperty::`RTTI Class Hierarchy Descriptor'
PUBLIC	??_R2CTransformItemProperty@@8			; CTransformItemProperty::`RTTI Base Class Array'
PUBLIC	??_R1A@?0A@EA@CTransformItemProperty@@8		; CTransformItemProperty::`RTTI Base Class Descriptor at (0,-1,0,64)'
PUBLIC	__real@42c80000
EXTRN	??_L@YGXPAXIIP6EX0@Z1@Z:PROC			; `eh vector constructor iterator'
EXTRN	??_M@YGXPAXIIP6EX0@Z@Z:PROC			; `eh vector destructor iterator'
EXTRN	__purecall:PROC
EXTRN	??2@YAPAXI@Z:PROC				; operator new
EXTRN	??3@YAXPAXI@Z:PROC				; operator delete
EXTRN	_atexit:PROC
EXTRN	__Init_thread_header:PROC
EXTRN	__Init_thread_abort:PROC
EXTRN	__Init_thread_footer:PROC
EXTRN	__invoke_watson:PROC
EXTRN	_strncpy:PROC
EXTRN	__mbscmp:PROC
EXTRN	_atoi:PROC
EXTRN	?AfxThrowMemoryException@@YGXXZ:PROC		; AfxThrowMemoryException
EXTRN	?AfxThrowOleException@@YGXJ@Z:PROC		; AfxThrowOleException
EXTRN	___std_exception_copy:PROC
EXTRN	___std_exception_destroy:PROC
EXTRN	??_Eexception@std@@UAEPAXI@Z:PROC		; std::exception::`vector deleting destructor'
EXTRN	??_Ebad_alloc@std@@UAEPAXI@Z:PROC		; std::bad_alloc::`vector deleting destructor'
EXTRN	??_Ebad_array_new_length@std@@UAEPAXI@Z:PROC	; std::bad_array_new_length::`vector deleting destructor'
EXTRN	?_Xlength_error@std@@YAXPBD@Z:PROC		; std::_Xlength_error
EXTRN	?GetNumber@CScanner@@QAEHH@Z:PROC		; CScanner::GetNumber
EXTRN	?GetFloat@CScanner@@QAEMH@Z:PROC		; CScanner::GetFloat
EXTRN	??0CScript@@QAE@H@Z:PROC			; CScript::CScript
EXTRN	??1CScript@@UAE@XZ:PROC				; CScript::~CScript
EXTRN	?Load@CScript@@QAEHPBDHH@Z:PROC			; CScript::Load
EXTRN	?GetToken@CScript@@UAEHH@Z:PROC			; CScript::GetToken
EXTRN	?xRandom@@YAKKK@Z:PROC				; xRandom
EXTRN	?Error@@YAPBDPBDZZ:PROC				; Error
EXTRN	??_ECPetProperty@@UAEPAXI@Z:PROC		; CPetProperty::`vector deleting destructor'
EXTRN	??_ECPet@@UAEPAXI@Z:PROC			; CPet::`vector deleting destructor'
EXTRN	??_ECTransformStuff@@UAEPAXI@Z:PROC		; CTransformStuff::`vector deleting destructor'
EXTRN	??_ECTransformerEgg@@UAEPAXI@Z:PROC		; CTransformerEgg::`vector deleting destructor'
EXTRN	??_ECTransformItemComponent@@UAEPAXI@Z:PROC	; CTransformItemComponent::`vector deleting destructor'
EXTRN	??_ECTransformItemProperty@@UAEPAXI@Z:PROC	; CTransformItemProperty::`vector deleting destructor'
EXTRN	?IsEgg@CItemElem@@QAEHXZ:PROC			; CItemElem::IsEgg
EXTRN	??0CItemElem@@QAE@XZ:PROC			; CItemElem::CItemElem
EXTRN	?Read@CAr@@QAEXPAXI@Z:PROC			; CAr::Read
EXTRN	?Write@CAr@@QAEXPBXI@Z:PROC			; CAr::Write
EXTRN	?CheckBuf@CAr@@QAEXI@Z:PROC			; CAr::CheckBuf
EXTRN	?WriteString@CAr@@QAEXPBD@Z:PROC		; CAr::WriteString
EXTRN	?ReadString@CAr@@QAEPADPADH@Z:PROC		; CAr::ReadString
EXTRN	?GetItemId@CMover@@QAEPAVCItemBase@@K@Z:PROC	; CMover::GetItemId
EXTRN	?CreateItem@CMover@@QAEHPAVCItemBase@@PAEPAFE@Z:PROC ; CMover::CreateItem
EXTRN	?RemoveItem@CMover@@QAEXEF@Z:PROC		; CMover::RemoveItem
EXTRN	?IsUsing@CMover@@QAEHPAVCItemElem@@@Z:PROC	; CMover::IsUsing
EXTRN	?AddDefinedText@CUser@@QAEXH@Z:PROC		; CUser::AddDefinedText
EXTRN	?PutCreateItemLog@CDPSrvr@@QAEXPAVCUser@@PAVCItemElem@@PBD2@Z:PROC ; CDPSrvr::PutCreateItemLog
EXTRN	?PutItemLog@CDPSrvr@@QAEXPAVCUser@@PBD1PAVCItemElem@@H@Z:PROC ; CDPSrvr::PutItemLog
EXTRN	@__security_check_cookie@4:PROC
EXTRN	__CxxThrowException@8:PROC
EXTRN	___CxxFrameHandler3:PROC
EXTRN	__ftol3:PROC
EXTRN	_memmove:PROC
EXTRN	_memset:PROC
EXTRN	__Init_thread_epoch:DWORD
EXTRN	??_7type_info@@6B@:QWORD			; type_info::`vftable'
EXTRN	?g_next@@3KA:DWORD				; g_next
EXTRN	?prj@@3VCProject@@A:BYTE			; prj
EXTRN	?g_DPSrvr@@3VCDPSrvr@@A:BYTE			; g_DPSrvr
EXTRN	___security_cookie:DWORD
EXTRN	__fltused:DWORD
EXTRN	__tls_array:DWORD
EXTRN	__tls_index:DWORD
;	COMDAT ?sPetProperty@?1??GetInstance@CPetProperty@@SAPAV2@XZ@4V2@A
_BSS	SEGMENT
?sPetProperty@?1??GetInstance@CPetProperty@@SAPAV2@XZ@4V2@A DB 0300H DUP (?) ; `CPetProperty::GetInstance'::`2'::sPetProperty
_BSS	ENDS
;	COMDAT ?$TSS0@?1??GetInstance@CPetProperty@@SAPAV2@XZ@4HA
_BSS	SEGMENT
?$TSS0@?1??GetInstance@CPetProperty@@SAPAV2@XZ@4HA DD 01H DUP (?) ; `CPetProperty::GetInstance'::`2'::$TSS0
_BSS	ENDS
;	COMDAT ?sTransformerEgg@?1??Instance@CTransformerEgg@@SAPAV2@XZ@4V2@A
_BSS	SEGMENT
?sTransformerEgg@?1??Instance@CTransformerEgg@@SAPAV2@XZ@4V2@A DD 01H DUP (?) ; `CTransformerEgg::Instance'::`2'::sTransformerEgg
_BSS	ENDS
;	COMDAT ?$TSS0@?1??Instance@CTransformerEgg@@SAPAV2@XZ@4HA
_BSS	SEGMENT
?$TSS0@?1??Instance@CTransformerEgg@@SAPAV2@XZ@4HA DD 01H DUP (?) ; `CTransformerEgg::Instance'::`2'::$TSS0
_BSS	ENDS
;	COMDAT ?sTransformItemProperty@?1??Instance@CTransformItemProperty@@SAPAV2@XZ@4V2@A
_BSS	SEGMENT
?sTransformItemProperty@?1??Instance@CTransformItemProperty@@SAPAV2@XZ@4V2@A DB 0cH DUP (?) ; `CTransformItemProperty::Instance'::`2'::sTransformItemProperty
_BSS	ENDS
;	COMDAT ?$TSS0@?1??Instance@CTransformItemProperty@@SAPAV2@XZ@4HA
_BSS	SEGMENT
?$TSS0@?1??Instance@CTransformItemProperty@@SAPAV2@XZ@4HA DD 01H DUP (?) ; `CTransformItemProperty::Instance'::`2'::$TSS0
_BSS	ENDS
;	COMDAT __real@42c80000
CONST	SEGMENT
__real@42c80000 DD 042c80000r			; 100
CONST	ENDS
;	COMDAT ??_R1A@?0A@EA@CTransformItemProperty@@8
rdata$r	SEGMENT
??_R1A@?0A@EA@CTransformItemProperty@@8 DD FLAT:??_R0?AVCTransformItemProperty@@@8 ; CTransformItemProperty::`RTTI Base Class Descriptor at (0,-1,0,64)'
	DD	00H
	DD	00H
	DD	0ffffffffH
	DD	00H
	DD	040H
	DD	FLAT:??_R3CTransformItemProperty@@8
rdata$r	ENDS
;	COMDAT ??_R2CTransformItemProperty@@8
rdata$r	SEGMENT
??_R2CTransformItemProperty@@8 DD FLAT:??_R1A@?0A@EA@CTransformItemProperty@@8 ; CTransformItemProperty::`RTTI Base Class Array'
rdata$r	ENDS
;	COMDAT ??_R3CTransformItemProperty@@8
rdata$r	SEGMENT
??_R3CTransformItemProperty@@8 DD 00H			; CTransformItemProperty::`RTTI Class Hierarchy Descriptor'
	DD	00H
	DD	01H
	DD	FLAT:??_R2CTransformItemProperty@@8
rdata$r	ENDS
;	COMDAT ??_R0?AVCTransformItemProperty@@@8
data$rs	SEGMENT
??_R0?AVCTransformItemProperty@@@8 DD FLAT:??_7type_info@@6B@ ; CTransformItemProperty `RTTI Type Descriptor'
	DD	00H
	DB	'.?AVCTransformItemProperty@@', 00H
data$rs	ENDS
;	COMDAT ??_R4CTransformItemProperty@@6B@
rdata$r	SEGMENT
??_R4CTransformItemProperty@@6B@ DD 00H			; CTransformItemProperty::`RTTI Complete Object Locator'
	DD	00H
	DD	00H
	DD	FLAT:??_R0?AVCTransformItemProperty@@@8
	DD	FLAT:??_R3CTransformItemProperty@@8
rdata$r	ENDS
;	COMDAT ??_R1A@?0A@EA@CTransformItemComponent@@8
rdata$r	SEGMENT
??_R1A@?0A@EA@CTransformItemComponent@@8 DD FLAT:??_R0?AVCTransformItemComponent@@@8 ; CTransformItemComponent::`RTTI Base Class Descriptor at (0,-1,0,64)'
	DD	00H
	DD	00H
	DD	0ffffffffH
	DD	00H
	DD	040H
	DD	FLAT:??_R3CTransformItemComponent@@8
rdata$r	ENDS
;	COMDAT ??_R2CTransformItemComponent@@8
rdata$r	SEGMENT
??_R2CTransformItemComponent@@8 DD FLAT:??_R1A@?0A@EA@CTransformItemComponent@@8 ; CTransformItemComponent::`RTTI Base Class Array'
rdata$r	ENDS
;	COMDAT ??_R3CTransformItemComponent@@8
rdata$r	SEGMENT
??_R3CTransformItemComponent@@8 DD 00H			; CTransformItemComponent::`RTTI Class Hierarchy Descriptor'
	DD	00H
	DD	01H
	DD	FLAT:??_R2CTransformItemComponent@@8
rdata$r	ENDS
;	COMDAT ??_R0?AVCTransformItemComponent@@@8
data$rs	SEGMENT
??_R0?AVCTransformItemComponent@@@8 DD FLAT:??_7type_info@@6B@ ; CTransformItemComponent `RTTI Type Descriptor'
	DD	00H
	DB	'.?AVCTransformItemComponent@@', 00H
data$rs	ENDS
;	COMDAT ??_R4CTransformItemComponent@@6B@
rdata$r	SEGMENT
??_R4CTransformItemComponent@@6B@ DD 00H		; CTransformItemComponent::`RTTI Complete Object Locator'
	DD	00H
	DD	00H
	DD	FLAT:??_R0?AVCTransformItemComponent@@@8
	DD	FLAT:??_R3CTransformItemComponent@@8
rdata$r	ENDS
;	COMDAT ??_R1A@?0A@EA@CTransformerEgg@@8
rdata$r	SEGMENT
??_R1A@?0A@EA@CTransformerEgg@@8 DD FLAT:??_R0?AVCTransformerEgg@@@8 ; CTransformerEgg::`RTTI Base Class Descriptor at (0,-1,0,64)'
	DD	01H
	DD	00H
	DD	0ffffffffH
	DD	00H
	DD	040H
	DD	FLAT:??_R3CTransformerEgg@@8
rdata$r	ENDS
;	COMDAT ??_R2CTransformerEgg@@8
rdata$r	SEGMENT
??_R2CTransformerEgg@@8 DD FLAT:??_R1A@?0A@EA@CTransformerEgg@@8 ; CTransformerEgg::`RTTI Base Class Array'
	DD	FLAT:??_R1A@?0A@EA@ITransformer@@8
rdata$r	ENDS
;	COMDAT ??_R3CTransformerEgg@@8
rdata$r	SEGMENT
??_R3CTransformerEgg@@8 DD 00H				; CTransformerEgg::`RTTI Class Hierarchy Descriptor'
	DD	00H
	DD	02H
	DD	FLAT:??_R2CTransformerEgg@@8
rdata$r	ENDS
;	COMDAT ??_R0?AVCTransformerEgg@@@8
data$rs	SEGMENT
??_R0?AVCTransformerEgg@@@8 DD FLAT:??_7type_info@@6B@	; CTransformerEgg `RTTI Type Descriptor'
	DD	00H
	DB	'.?AVCTransformerEgg@@', 00H
data$rs	ENDS
;	COMDAT ??_R4CTransformerEgg@@6B@
rdata$r	SEGMENT
??_R4CTransformerEgg@@6B@ DD 00H			; CTransformerEgg::`RTTI Complete Object Locator'
	DD	00H
	DD	00H
	DD	FLAT:??_R0?AVCTransformerEgg@@@8
	DD	FLAT:??_R3CTransformerEgg@@8
rdata$r	ENDS
;	COMDAT ??_R1A@?0A@EA@CTransformStuff@@8
rdata$r	SEGMENT
??_R1A@?0A@EA@CTransformStuff@@8 DD FLAT:??_R0?AVCTransformStuff@@@8 ; CTransformStuff::`RTTI Base Class Descriptor at (0,-1,0,64)'
	DD	00H
	DD	00H
	DD	0ffffffffH
	DD	00H
	DD	040H
	DD	FLAT:??_R3CTransformStuff@@8
rdata$r	ENDS
;	COMDAT ??_R2CTransformStuff@@8
rdata$r	SEGMENT
??_R2CTransformStuff@@8 DD FLAT:??_R1A@?0A@EA@CTransformStuff@@8 ; CTransformStuff::`RTTI Base Class Array'
rdata$r	ENDS
;	COMDAT ??_R3CTransformStuff@@8
rdata$r	SEGMENT
??_R3CTransformStuff@@8 DD 00H				; CTransformStuff::`RTTI Class Hierarchy Descriptor'
	DD	00H
	DD	01H
	DD	FLAT:??_R2CTransformStuff@@8
rdata$r	ENDS
;	COMDAT ??_R0?AVCTransformStuff@@@8
data$rs	SEGMENT
??_R0?AVCTransformStuff@@@8 DD FLAT:??_7type_info@@6B@	; CTransformStuff `RTTI Type Descriptor'
	DD	00H
	DB	'.?AVCTransformStuff@@', 00H
data$rs	ENDS
;	COMDAT ??_R4CTransformStuff@@6B@
rdata$r	SEGMENT
??_R4CTransformStuff@@6B@ DD 00H			; CTransformStuff::`RTTI Complete Object Locator'
	DD	00H
	DD	00H
	DD	FLAT:??_R0?AVCTransformStuff@@@8
	DD	FLAT:??_R3CTransformStuff@@8
rdata$r	ENDS
;	COMDAT ??_R1A@?0A@EA@CPet@@8
rdata$r	SEGMENT
??_R1A@?0A@EA@CPet@@8 DD FLAT:??_R0?AVCPet@@@8		; CPet::`RTTI Base Class Descriptor at (0,-1,0,64)'
	DD	00H
	DD	00H
	DD	0ffffffffH
	DD	00H
	DD	040H
	DD	FLAT:??_R3CPet@@8
rdata$r	ENDS
;	COMDAT ??_R2CPet@@8
rdata$r	SEGMENT
??_R2CPet@@8 DD	FLAT:??_R1A@?0A@EA@CPet@@8		; CPet::`RTTI Base Class Array'
rdata$r	ENDS
;	COMDAT ??_R3CPet@@8
rdata$r	SEGMENT
??_R3CPet@@8 DD	00H					; CPet::`RTTI Class Hierarchy Descriptor'
	DD	00H
	DD	01H
	DD	FLAT:??_R2CPet@@8
rdata$r	ENDS
;	COMDAT ??_R0?AVCPet@@@8
data$rs	SEGMENT
??_R0?AVCPet@@@8 DD FLAT:??_7type_info@@6B@		; CPet `RTTI Type Descriptor'
	DD	00H
	DB	'.?AVCPet@@', 00H
data$rs	ENDS
;	COMDAT ??_R4CPet@@6B@
rdata$r	SEGMENT
??_R4CPet@@6B@ DD 00H					; CPet::`RTTI Complete Object Locator'
	DD	00H
	DD	00H
	DD	FLAT:??_R0?AVCPet@@@8
	DD	FLAT:??_R3CPet@@8
rdata$r	ENDS
;	COMDAT ??_R1A@?0A@EA@CPetProperty@@8
rdata$r	SEGMENT
??_R1A@?0A@EA@CPetProperty@@8 DD FLAT:??_R0?AVCPetProperty@@@8 ; CPetProperty::`RTTI Base Class Descriptor at (0,-1,0,64)'
	DD	00H
	DD	00H
	DD	0ffffffffH
	DD	00H
	DD	040H
	DD	FLAT:??_R3CPetProperty@@8
rdata$r	ENDS
;	COMDAT ??_R2CPetProperty@@8
rdata$r	SEGMENT
??_R2CPetProperty@@8 DD FLAT:??_R1A@?0A@EA@CPetProperty@@8 ; CPetProperty::`RTTI Base Class Array'
rdata$r	ENDS
;	COMDAT ??_R3CPetProperty@@8
rdata$r	SEGMENT
??_R3CPetProperty@@8 DD 00H				; CPetProperty::`RTTI Class Hierarchy Descriptor'
	DD	00H
	DD	01H
	DD	FLAT:??_R2CPetProperty@@8
rdata$r	ENDS
;	COMDAT ??_R0?AVCPetProperty@@@8
data$rs	SEGMENT
??_R0?AVCPetProperty@@@8 DD FLAT:??_7type_info@@6B@	; CPetProperty `RTTI Type Descriptor'
	DD	00H
	DB	'.?AVCPetProperty@@', 00H
data$rs	ENDS
;	COMDAT ??_R4CPetProperty@@6B@
rdata$r	SEGMENT
??_R4CPetProperty@@6B@ DD 00H				; CPetProperty::`RTTI Complete Object Locator'
	DD	00H
	DD	00H
	DD	FLAT:??_R0?AVCPetProperty@@@8
	DD	FLAT:??_R3CPetProperty@@8
rdata$r	ENDS
;	COMDAT ??_C@_04NHONDGDE@item@
CONST	SEGMENT
??_C@_04NHONDGDE@item@ DB 'item', 00H			; `string'
CONST	ENDS
;	COMDAT ??_C@_05OMMFEMCB@stuff@
CONST	SEGMENT
??_C@_05OMMFEMCB@stuff@ DB 'stuff', 00H			; `string'
CONST	ENDS
;	COMDAT ??_C@_09IFONHNKG@transform@
CONST	SEGMENT
??_C@_09IFONHNKG@transform@ DB 'transform', 00H		; `string'
CONST	ENDS
;	COMDAT ??_C@_01MMEEDKFM@X@
CONST	SEGMENT
??_C@_01MMEEDKFM@X@ DB 'X', 00H				; `string'
CONST	ENDS
;	COMDAT ??_C@_0BG@OHIJOLMK@transform?9removestuff@
CONST	SEGMENT
??_C@_0BG@OHIJOLMK@transform?9removestuff@ DB 'transform-removestuff', 00H ; `string'
CONST	ENDS
;	COMDAT ??_C@_07FMCMMKEN@Penalty@
CONST	SEGMENT
??_C@_07FMCMMKEN@Penalty@ DB 'Penalty', 00H		; `string'
CONST	ENDS
;	COMDAT ??_C@_0BD@NJHGCLHH@AddLifeProbability@
CONST	SEGMENT
??_C@_0BD@NJHGCLHH@AddLifeProbability@ DB 'AddLifeProbability', 00H ; `string'
CONST	ENDS
;	COMDAT ??_C@_09EENALPJP@MaxEnergy@
CONST	SEGMENT
??_C@_09EENALPJP@MaxEnergy@ DB 'MaxEnergy', 00H		; `string'
CONST	ENDS
;	COMDAT ??_C@_0N@FDFFOKED@IncrementExp@
CONST	SEGMENT
??_C@_0N@FDFFOKED@IncrementExp@ DB 'IncrementExp', 00H	; `string'
CONST	ENDS
;	COMDAT ??_C@_0L@NIFCIDOF@FeedEnergy@
CONST	SEGMENT
??_C@_0L@NIFCIDOF@FeedEnergy@ DB 'FeedEnergy', 00H	; `string'
CONST	ENDS
;	COMDAT ??_C@_0N@ELNJGIBK@LevelupAvail@
CONST	SEGMENT
??_C@_0N@ELNJGIBK@LevelupAvail@ DB 'LevelupAvail', 00H	; `string'
CONST	ENDS
;	COMDAT ??_C@_0P@DOCAHOFJ@AvailDestParam@
CONST	SEGMENT
??_C@_0P@DOCAHOFJ@AvailDestParam@ DB 'AvailDestParam', 00H ; `string'
CONST	ENDS
;	COMDAT ??_R1A@?0A@EA@ITransformer@@8
rdata$r	SEGMENT
??_R1A@?0A@EA@ITransformer@@8 DD FLAT:??_R0?AVITransformer@@@8 ; ITransformer::`RTTI Base Class Descriptor at (0,-1,0,64)'
	DD	00H
	DD	00H
	DD	0ffffffffH
	DD	00H
	DD	040H
	DD	FLAT:??_R3ITransformer@@8
rdata$r	ENDS
;	COMDAT ??_R2ITransformer@@8
rdata$r	SEGMENT
??_R2ITransformer@@8 DD FLAT:??_R1A@?0A@EA@ITransformer@@8 ; ITransformer::`RTTI Base Class Array'
rdata$r	ENDS
;	COMDAT ??_R3ITransformer@@8
rdata$r	SEGMENT
??_R3ITransformer@@8 DD 00H				; ITransformer::`RTTI Class Hierarchy Descriptor'
	DD	00H
	DD	01H
	DD	FLAT:??_R2ITransformer@@8
rdata$r	ENDS
;	COMDAT ??_R0?AVITransformer@@@8
data$rs	SEGMENT
??_R0?AVITransformer@@@8 DD FLAT:??_7type_info@@6B@	; ITransformer `RTTI Type Descriptor'
	DD	00H
	DB	'.?AVITransformer@@', 00H
data$rs	ENDS
;	COMDAT ??_R4ITransformer@@6B@
rdata$r	SEGMENT
??_R4ITransformer@@6B@ DD 00H				; ITransformer::`RTTI Complete Object Locator'
	DD	00H
	DD	00H
	DD	FLAT:??_R0?AVITransformer@@@8
	DD	FLAT:??_R3ITransformer@@8
rdata$r	ENDS
;	COMDAT ??_R4bad_alloc@std@@6B@
rdata$r	SEGMENT
??_R4bad_alloc@std@@6B@ DD 00H				; std::bad_alloc::`RTTI Complete Object Locator'
	DD	00H
	DD	00H
	DD	FLAT:??_R0?AVbad_alloc@std@@@8
	DD	FLAT:??_R3bad_alloc@std@@8
rdata$r	ENDS
;	COMDAT ??_R2bad_alloc@std@@8
rdata$r	SEGMENT
??_R2bad_alloc@std@@8 DD FLAT:??_R1A@?0A@EA@bad_alloc@std@@8 ; std::bad_alloc::`RTTI Base Class Array'
	DD	FLAT:??_R1A@?0A@EA@exception@std@@8
rdata$r	ENDS
;	COMDAT ??_R3bad_alloc@std@@8
rdata$r	SEGMENT
??_R3bad_alloc@std@@8 DD 00H				; std::bad_alloc::`RTTI Class Hierarchy Descriptor'
	DD	00H
	DD	02H
	DD	FLAT:??_R2bad_alloc@std@@8
rdata$r	ENDS
;	COMDAT ??_R1A@?0A@EA@bad_alloc@std@@8
rdata$r	SEGMENT
??_R1A@?0A@EA@bad_alloc@std@@8 DD FLAT:??_R0?AVbad_alloc@std@@@8 ; std::bad_alloc::`RTTI Base Class Descriptor at (0,-1,0,64)'
	DD	01H
	DD	00H
	DD	0ffffffffH
	DD	00H
	DD	040H
	DD	FLAT:??_R3bad_alloc@std@@8
rdata$r	ENDS
;	COMDAT ??_R1A@?0A@EA@bad_array_new_length@std@@8
rdata$r	SEGMENT
??_R1A@?0A@EA@bad_array_new_length@std@@8 DD FLAT:??_R0?AVbad_array_new_length@std@@@8 ; std::bad_array_new_length::`RTTI Base Class Descriptor at (0,-1,0,64)'
	DD	02H
	DD	00H
	DD	0ffffffffH
	DD	00H
	DD	040H
	DD	FLAT:??_R3bad_array_new_length@std@@8
rdata$r	ENDS
;	COMDAT ??_R2bad_array_new_length@std@@8
rdata$r	SEGMENT
??_R2bad_array_new_length@std@@8 DD FLAT:??_R1A@?0A@EA@bad_array_new_length@std@@8 ; std::bad_array_new_length::`RTTI Base Class Array'
	DD	FLAT:??_R1A@?0A@EA@bad_alloc@std@@8
	DD	FLAT:??_R1A@?0A@EA@exception@std@@8
rdata$r	ENDS
;	COMDAT ??_R3bad_array_new_length@std@@8
rdata$r	SEGMENT
??_R3bad_array_new_length@std@@8 DD 00H			; std::bad_array_new_length::`RTTI Class Hierarchy Descriptor'
	DD	00H
	DD	03H
	DD	FLAT:??_R2bad_array_new_length@std@@8
rdata$r	ENDS
;	COMDAT ??_R4bad_array_new_length@std@@6B@
rdata$r	SEGMENT
??_R4bad_array_new_length@std@@6B@ DD 00H		; std::bad_array_new_length::`RTTI Complete Object Locator'
	DD	00H
	DD	00H
	DD	FLAT:??_R0?AVbad_array_new_length@std@@@8
	DD	FLAT:??_R3bad_array_new_length@std@@8
rdata$r	ENDS
;	COMDAT ??_R1A@?0A@EA@exception@std@@8
rdata$r	SEGMENT
??_R1A@?0A@EA@exception@std@@8 DD FLAT:??_R0?AVexception@std@@@8 ; std::exception::`RTTI Base Class Descriptor at (0,-1,0,64)'
	DD	00H
	DD	00H
	DD	0ffffffffH
	DD	00H
	DD	040H
	DD	FLAT:??_R3exception@std@@8
rdata$r	ENDS
;	COMDAT ??_R2exception@std@@8
rdata$r	SEGMENT
??_R2exception@std@@8 DD FLAT:??_R1A@?0A@EA@exception@std@@8 ; std::exception::`RTTI Base Class Array'
rdata$r	ENDS
;	COMDAT ??_R3exception@std@@8
rdata$r	SEGMENT
??_R3exception@std@@8 DD 00H				; std::exception::`RTTI Class Hierarchy Descriptor'
	DD	00H
	DD	01H
	DD	FLAT:??_R2exception@std@@8
rdata$r	ENDS
;	COMDAT ??_R4exception@std@@6B@
rdata$r	SEGMENT
??_R4exception@std@@6B@ DD 00H				; std::exception::`RTTI Complete Object Locator'
	DD	00H
	DD	00H
	DD	FLAT:??_R0?AVexception@std@@@8
	DD	FLAT:??_R3exception@std@@8
rdata$r	ENDS
;	COMDAT ??_C@_0BA@FOIKENOD@vector?5too?5long@
CONST	SEGMENT
??_C@_0BA@FOIKENOD@vector?5too?5long@ DB 'vector too long', 00H ; `string'
CONST	ENDS
;	COMDAT ??_7CTransformItemProperty@@6B@
CONST	SEGMENT
??_7CTransformItemProperty@@6B@ DD FLAT:??_R4CTransformItemProperty@@6B@ ; CTransformItemProperty::`vftable'
	DD	FLAT:??_ECTransformItemProperty@@UAEPAXI@Z
CONST	ENDS
;	COMDAT ??_7CTransformItemComponent@@6B@
CONST	SEGMENT
??_7CTransformItemComponent@@6B@ DD FLAT:??_R4CTransformItemComponent@@6B@ ; CTransformItemComponent::`vftable'
	DD	FLAT:??_ECTransformItemComponent@@UAEPAXI@Z
CONST	ENDS
;	COMDAT ??_7CTransformerEgg@@6B@
CONST	SEGMENT
??_7CTransformerEgg@@6B@ DD FLAT:??_R4CTransformerEgg@@6B@ ; CTransformerEgg::`vftable'
	DD	FLAT:??_ECTransformerEgg@@UAEPAXI@Z
	DD	FLAT:?IsValidStuff@CTransformerEgg@@UAEHPAVCUser@@AAVCTransformStuff@@@Z
CONST	ENDS
;	COMDAT ??_7ITransformer@@6B@
CONST	SEGMENT
??_7ITransformer@@6B@ DD FLAT:??_R4ITransformer@@6B@	; ITransformer::`vftable'
	DD	FLAT:__purecall
	DD	FLAT:?IsValidStuff@ITransformer@@UAEHPAVCUser@@AAVCTransformStuff@@@Z
CONST	ENDS
;	COMDAT ??_7CTransformStuff@@6B@
CONST	SEGMENT
??_7CTransformStuff@@6B@ DD FLAT:??_R4CTransformStuff@@6B@ ; CTransformStuff::`vftable'
	DD	FLAT:??_ECTransformStuff@@UAEPAXI@Z
	DD	FLAT:?Serialize@CTransformStuff@@UAEXAAVCAr@@@Z
CONST	ENDS
;	COMDAT ??_7CPet@@6B@
CONST	SEGMENT
??_7CPet@@6B@ DD FLAT:??_R4CPet@@6B@			; CPet::`vftable'
	DD	FLAT:??_ECPet@@UAEPAXI@Z
CONST	ENDS
;	COMDAT ??_7CPetProperty@@6B@
CONST	SEGMENT
??_7CPetProperty@@6B@ DD FLAT:??_R4CPetProperty@@6B@	; CPetProperty::`vftable'
	DD	FLAT:??_ECPetProperty@@UAEPAXI@Z
CONST	ENDS
;	COMDAT ??_C@_0BI@BEIFNGEL@GetItemProp?5range_error@
CONST	SEGMENT
??_C@_0BI@BEIFNGEL@GetItemProp?5range_error@ DB 'GetItemProp range_error', 00H ; `string'
CONST	ENDS
;	COMDAT ??_C@_0BM@HMFGHCP@?$CFs?5min?3?$CFd?0?5max?3?$CFd?0?5index?3?$CFd@
CONST	SEGMENT
??_C@_0BM@HMFGHCP@?$CFs?5min?3?$CFd?0?5max?3?$CFd?0?5index?3?$CFd@ DB '%s'
	DB	' min:%d, max:%d, index:%d', 00H		; `string'
CONST	ENDS
;	COMDAT ??_C@_0BB@GCADKGJO@map?1set?5too?5long@
CONST	SEGMENT
??_C@_0BB@GCADKGJO@map?1set?5too?5long@ DB 'map/set too long', 00H ; `string'
CONST	ENDS
;	COMDAT __CT??_R0?AVbad_alloc@std@@@8??0bad_alloc@std@@QAE@ABV01@@Z12
xdata$x	SEGMENT
__CT??_R0?AVbad_alloc@std@@@8??0bad_alloc@std@@QAE@ABV01@@Z12 DD 010H
	DD	FLAT:??_R0?AVbad_alloc@std@@@8
	DD	00H
	DD	0ffffffffH
	ORG $+4
	DD	0cH
	DD	FLAT:??0bad_alloc@std@@QAE@ABV01@@Z
xdata$x	ENDS
;	COMDAT ??_R0?AVbad_alloc@std@@@8
data$r	SEGMENT
??_R0?AVbad_alloc@std@@@8 DD FLAT:??_7type_info@@6B@	; std::bad_alloc `RTTI Type Descriptor'
	DD	00H
	DB	'.?AVbad_alloc@std@@', 00H
data$r	ENDS
;	COMDAT __CT??_R0?AVbad_array_new_length@std@@@8??0bad_array_new_length@std@@QAE@ABV01@@Z12
xdata$x	SEGMENT
__CT??_R0?AVbad_array_new_length@std@@@8??0bad_array_new_length@std@@QAE@ABV01@@Z12 DD 00H
	DD	FLAT:??_R0?AVbad_array_new_length@std@@@8
	DD	00H
	DD	0ffffffffH
	ORG $+4
	DD	0cH
	DD	FLAT:??0bad_array_new_length@std@@QAE@ABV01@@Z
xdata$x	ENDS
;	COMDAT ??_R0?AVbad_array_new_length@std@@@8
data$r	SEGMENT
??_R0?AVbad_array_new_length@std@@@8 DD FLAT:??_7type_info@@6B@ ; std::bad_array_new_length `RTTI Type Descriptor'
	DD	00H
	DB	'.?AVbad_array_new_length@std@@', 00H
data$r	ENDS
;	COMDAT __CTA3?AVbad_array_new_length@std@@
xdata$x	SEGMENT
__CTA3?AVbad_array_new_length@std@@ DD 03H
	DD	FLAT:__CT??_R0?AVbad_array_new_length@std@@@8??0bad_array_new_length@std@@QAE@ABV01@@Z12
	DD	FLAT:__CT??_R0?AVbad_alloc@std@@@8??0bad_alloc@std@@QAE@ABV01@@Z12
	DD	FLAT:__CT??_R0?AVexception@std@@@8??0exception@std@@QAE@ABV01@@Z12
xdata$x	ENDS
;	COMDAT __TI3?AVbad_array_new_length@std@@
xdata$x	SEGMENT
__TI3?AVbad_array_new_length@std@@ DD 00H
	DD	FLAT:??1bad_array_new_length@std@@UAE@XZ
	DD	00H
	DD	FLAT:__CTA3?AVbad_array_new_length@std@@
xdata$x	ENDS
;	COMDAT __CT??_R0?AVexception@std@@@8??0exception@std@@QAE@ABV01@@Z12
xdata$x	SEGMENT
__CT??_R0?AVexception@std@@@8??0exception@std@@QAE@ABV01@@Z12 DD 00H
	DD	FLAT:??_R0?AVexception@std@@@8
	DD	00H
	DD	0ffffffffH
	ORG $+4
	DD	0cH
	DD	FLAT:??0exception@std@@QAE@ABV01@@Z
xdata$x	ENDS
;	COMDAT ??_R0?AVexception@std@@@8
data$r	SEGMENT
??_R0?AVexception@std@@@8 DD FLAT:??_7type_info@@6B@	; std::exception `RTTI Type Descriptor'
	DD	00H
	DB	'.?AVexception@std@@', 00H
data$r	ENDS
;	COMDAT ??_C@_0BF@KINCDENJ@bad?5array?5new?5length@
CONST	SEGMENT
??_C@_0BF@KINCDENJ@bad?5array?5new?5length@ DB 'bad array new length', 00H ; `string'
CONST	ENDS
;	COMDAT ??_7bad_array_new_length@std@@6B@
CONST	SEGMENT
??_7bad_array_new_length@std@@6B@ DD FLAT:??_R4bad_array_new_length@std@@6B@ ; std::bad_array_new_length::`vftable'
	DD	FLAT:??_Ebad_array_new_length@std@@UAEPAXI@Z
	DD	FLAT:?what@exception@std@@UBEPBDXZ
CONST	ENDS
;	COMDAT ??_7bad_alloc@std@@6B@
CONST	SEGMENT
??_7bad_alloc@std@@6B@ DD FLAT:??_R4bad_alloc@std@@6B@	; std::bad_alloc::`vftable'
	DD	FLAT:??_Ebad_alloc@std@@UAEPAXI@Z
	DD	FLAT:?what@exception@std@@UBEPBDXZ
CONST	ENDS
;	COMDAT ??_C@_0BC@EOODALEL@Unknown?5exception@
CONST	SEGMENT
??_C@_0BC@EOODALEL@Unknown?5exception@ DB 'Unknown exception', 00H ; `string'
CONST	ENDS
;	COMDAT ??_7exception@std@@6B@
CONST	SEGMENT
??_7exception@std@@6B@ DD FLAT:??_R4exception@std@@6B@	; std::exception::`vftable'
	DD	FLAT:??_Eexception@std@@UAEPAXI@Z
	DD	FLAT:?what@exception@std@@UBEPBDXZ
CONST	ENDS
;	COMDAT xdata$x
xdata$x	SEGMENT
__unwindtable$??$?0U?$pair@$$CBHPAVCTransformItemComponent@@@std@@@?$_Tree_temp_node@V?$allocator@U?$_Tree_node@U?$pair@$$CBHPAVCTransformItemComponent@@@std@@PAX@std@@@std@@@std@@QAE@AAV?$allocator@U?$_Tree_node@U?$pair@$$CBHPAVCTransformItemComponent@@@std@@PAX@std@@@1@PAU?$_Tree_node@U?$pair@$$CBHPAVCTransformItemComponent@@@std@@PAX@1@$$QAU?$pair@$$CBHPAVCTransformItemComponent@@@1@@Z DD 0ffffffffH
	DD	FLAT:__unwindfunclet$??$?0U?$pair@$$CBHPAVCTransformItemComponent@@@std@@@?$_Tree_temp_node@V?$allocator@U?$_Tree_node@U?$pair@$$CBHPAVCTransformItemComponent@@@std@@PAX@std@@@std@@@std@@QAE@AAV?$allocator@U?$_Tree_node@U?$pair@$$CBHPAVCTransformItemComponent@@@std@@PAX@std@@@1@PAU?$_Tree_node@U?$pair@$$CBHPAVCTransformItemComponent@@@std@@PAX@1@$$QAU?$pair@$$CBHPAVCTransformItemComponent@@@1@@Z$1
__ehfuncinfo$??$?0U?$pair@$$CBHPAVCTransformItemComponent@@@std@@@?$_Tree_temp_node@V?$allocator@U?$_Tree_node@U?$pair@$$CBHPAVCTransformItemComponent@@@std@@PAX@std@@@std@@@std@@QAE@AAV?$allocator@U?$_Tree_node@U?$pair@$$CBHPAVCTransformItemComponent@@@std@@PAX@std@@@1@PAU?$_Tree_node@U?$pair@$$CBHPAVCTransformItemComponent@@@std@@PAX@1@$$QAU?$pair@$$CBHPAVCTransformItemComponent@@@1@@Z DD 019930522H
	DD	01H
	DD	FLAT:__unwindtable$??$?0U?$pair@$$CBHPAVCTransformItemComponent@@@std@@@?$_Tree_temp_node@V?$allocator@U?$_Tree_node@U?$pair@$$CBHPAVCTransformItemComponent@@@std@@PAX@std@@@std@@@std@@QAE@AAV?$allocator@U?$_Tree_node@U?$pair@$$CBHPAVCTransformItemComponent@@@std@@PAX@std@@@1@PAU?$_Tree_node@U?$pair@$$CBHPAVCTransformItemComponent@@@std@@PAX@1@$$QAU?$pair@$$CBHPAVCTransformItemComponent@@@1@@Z
	DD	2 DUP(00H)
	DD	2 DUP(00H)
	DD	00H
	DD	01H
xdata$x	ENDS
;	COMDAT xdata$x
xdata$x	SEGMENT
__unwindtable$??0?$_Tree_temp_node_alloc@V?$allocator@U?$_Tree_node@U?$pair@$$CBHPAVCTransformItemComponent@@@std@@PAX@std@@@std@@@std@@QAE@AAV?$allocator@U?$_Tree_node@U?$pair@$$CBHPAVCTransformItemComponent@@@std@@PAX@std@@@1@@Z DD 0ffffffffH
	DD	FLAT:__unwindfunclet$??0?$_Tree_temp_node_alloc@V?$allocator@U?$_Tree_node@U?$pair@$$CBHPAVCTransformItemComponent@@@std@@PAX@std@@@std@@@std@@QAE@AAV?$allocator@U?$_Tree_node@U?$pair@$$CBHPAVCTransformItemComponent@@@std@@PAX@std@@@1@@Z$0
__ehfuncinfo$??0?$_Tree_temp_node_alloc@V?$allocator@U?$_Tree_node@U?$pair@$$CBHPAVCTransformItemComponent@@@std@@PAX@std@@@std@@@std@@QAE@AAV?$allocator@U?$_Tree_node@U?$pair@$$CBHPAVCTransformItemComponent@@@std@@PAX@std@@@1@@Z DD 019930522H
	DD	01H
	DD	FLAT:__unwindtable$??0?$_Tree_temp_node_alloc@V?$allocator@U?$_Tree_node@U?$pair@$$CBHPAVCTransformItemComponent@@@std@@PAX@std@@@std@@@std@@QAE@AAV?$allocator@U?$_Tree_node@U?$pair@$$CBHPAVCTransformItemComponent@@@std@@PAX@std@@@1@@Z
	DD	2 DUP(00H)
	DD	2 DUP(00H)
	DD	00H
	DD	01H
xdata$x	ENDS
;	COMDAT xdata$x
xdata$x	SEGMENT
__unwindtable$??$?0ABH@?$_Tree_temp_node@V?$allocator@U?$_Tree_node@HPAX@std@@@std@@@std@@QAE@AAV?$allocator@U?$_Tree_node@HPAX@std@@@1@PAU?$_Tree_node@HPAX@1@ABH@Z DD 0ffffffffH
	DD	FLAT:__unwindfunclet$??$?0ABH@?$_Tree_temp_node@V?$allocator@U?$_Tree_node@HPAX@std@@@std@@@std@@QAE@AAV?$allocator@U?$_Tree_node@HPAX@std@@@1@PAU?$_Tree_node@HPAX@1@ABH@Z$1
__ehfuncinfo$??$?0ABH@?$_Tree_temp_node@V?$allocator@U?$_Tree_node@HPAX@std@@@std@@@std@@QAE@AAV?$allocator@U?$_Tree_node@HPAX@std@@@1@PAU?$_Tree_node@HPAX@1@ABH@Z DD 019930522H
	DD	01H
	DD	FLAT:__unwindtable$??$?0ABH@?$_Tree_temp_node@V?$allocator@U?$_Tree_node@HPAX@std@@@std@@@std@@QAE@AAV?$allocator@U?$_Tree_node@HPAX@std@@@1@PAU?$_Tree_node@HPAX@1@ABH@Z
	DD	2 DUP(00H)
	DD	2 DUP(00H)
	DD	00H
	DD	01H
xdata$x	ENDS
;	COMDAT xdata$x
xdata$x	SEGMENT
__unwindtable$??0?$_Tree_temp_node_alloc@V?$allocator@U?$_Tree_node@HPAX@std@@@std@@@std@@QAE@AAV?$allocator@U?$_Tree_node@HPAX@std@@@1@@Z DD 0ffffffffH
	DD	FLAT:__unwindfunclet$??0?$_Tree_temp_node_alloc@V?$allocator@U?$_Tree_node@HPAX@std@@@std@@@std@@QAE@AAV?$allocator@U?$_Tree_node@HPAX@std@@@1@@Z$0
__ehfuncinfo$??0?$_Tree_temp_node_alloc@V?$allocator@U?$_Tree_node@HPAX@std@@@std@@@std@@QAE@AAV?$allocator@U?$_Tree_node@HPAX@std@@@1@@Z DD 019930522H
	DD	01H
	DD	FLAT:__unwindtable$??0?$_Tree_temp_node_alloc@V?$allocator@U?$_Tree_node@HPAX@std@@@std@@@std@@QAE@AAV?$allocator@U?$_Tree_node@HPAX@std@@@1@@Z
	DD	2 DUP(00H)
	DD	2 DUP(00H)
	DD	00H
	DD	01H
xdata$x	ENDS
;	COMDAT xdata$x
xdata$x	SEGMENT
__unwindtable$??$_Emplace@U?$pair@$$CBHPAVCTransformItemComponent@@@std@@@?$_Tree@V?$_Tmap_traits@HPAVCTransformItemComponent@@U?$less@H@std@@V?$allocator@U?$pair@$$CBHPAVCTransformItemComponent@@@std@@@3@$0A@@std@@@std@@IAE?AU?$pair@PAU?$_Tree_node@U?$pair@$$CBHPAVCTransformItemComponent@@@std@@PAX@std@@_N@1@$$QAU?$pair@$$CBHPAVCTransformItemComponent@@@1@@Z DD 0ffffffffH
	DD	FLAT:__unwindfunclet$??$_Emplace@U?$pair@$$CBHPAVCTransformItemComponent@@@std@@@?$_Tree@V?$_Tmap_traits@HPAVCTransformItemComponent@@U?$less@H@std@@V?$allocator@U?$pair@$$CBHPAVCTransformItemComponent@@@std@@@3@$0A@@std@@@std@@IAE?AU?$pair@PAU?$_Tree_node@U?$pair@$$CBHPAVCTransformItemComponent@@@std@@PAX@std@@_N@1@$$QAU?$pair@$$CBHPAVCTransformItemComponent@@@1@@Z$2
__ehfuncinfo$??$_Emplace@U?$pair@$$CBHPAVCTransformItemComponent@@@std@@@?$_Tree@V?$_Tmap_traits@HPAVCTransformItemComponent@@U?$less@H@std@@V?$allocator@U?$pair@$$CBHPAVCTransformItemComponent@@@std@@@3@$0A@@std@@@std@@IAE?AU?$pair@PAU?$_Tree_node@U?$pair@$$CBHPAVCTransformItemComponent@@@std@@PAX@std@@_N@1@$$QAU?$pair@$$CBHPAVCTransformItemComponent@@@1@@Z DD 019930522H
	DD	01H
	DD	FLAT:__unwindtable$??$_Emplace@U?$pair@$$CBHPAVCTransformItemComponent@@@std@@@?$_Tree@V?$_Tmap_traits@HPAVCTransformItemComponent@@U?$less@H@std@@V?$allocator@U?$pair@$$CBHPAVCTransformItemComponent@@@std@@@3@$0A@@std@@@std@@IAE?AU?$pair@PAU?$_Tree_node@U?$pair@$$CBHPAVCTransformItemComponent@@@std@@PAX@std@@_N@1@$$QAU?$pair@$$CBHPAVCTransformItemComponent@@@1@@Z
	DD	2 DUP(00H)
	DD	2 DUP(00H)
	DD	00H
	DD	01H
xdata$x	ENDS
;	COMDAT xdata$x
xdata$x	SEGMENT
__unwindtable$??$_Emplace@ABH@?$_Tree@V?$_Tset_traits@HU?$less@H@std@@V?$allocator@H@2@$0A@@std@@@std@@IAE?AU?$pair@PAU?$_Tree_node@HPAX@std@@_N@1@ABH@Z DD 0ffffffffH
	DD	FLAT:__unwindfunclet$??$_Emplace@ABH@?$_Tree@V?$_Tset_traits@HU?$less@H@std@@V?$allocator@H@2@$0A@@std@@@std@@IAE?AU?$pair@PAU?$_Tree_node@HPAX@std@@_N@1@ABH@Z$2
__ehfuncinfo$??$_Emplace@ABH@?$_Tree@V?$_Tset_traits@HU?$less@H@std@@V?$allocator@H@2@$0A@@std@@@std@@IAE?AU?$pair@PAU?$_Tree_node@HPAX@std@@_N@1@ABH@Z DD 019930522H
	DD	01H
	DD	FLAT:__unwindtable$??$_Emplace@ABH@?$_Tree@V?$_Tset_traits@HU?$less@H@std@@V?$allocator@H@2@$0A@@std@@@std@@IAE?AU?$pair@PAU?$_Tree_node@HPAX@std@@_N@1@ABH@Z
	DD	2 DUP(00H)
	DD	2 DUP(00H)
	DD	00H
	DD	01H
xdata$x	ENDS
;	COMDAT xdata$x
xdata$x	SEGMENT
__unwindtable$??$insert@$0A@$0A@@?$_Tree@V?$_Tmap_traits@HPAVCTransformItemComponent@@U?$less@H@std@@V?$allocator@U?$pair@$$CBHPAVCTransformItemComponent@@@std@@@3@$0A@@std@@@std@@QAE?AU?$pair@V?$_Tree_iterator@V?$_Tree_val@U?$_Tree_simple_types@U?$pair@$$CBHPAVCTransformItemComponent@@@std@@@std@@@std@@@std@@_N@1@$$QAU?$pair@$$CBHPAVCTransformItemComponent@@@1@@Z DD 0ffffffffH
	DD	FLAT:__unwindfunclet$??$insert@$0A@$0A@@?$_Tree@V?$_Tmap_traits@HPAVCTransformItemComponent@@U?$less@H@std@@V?$allocator@U?$pair@$$CBHPAVCTransformItemComponent@@@std@@@3@$0A@@std@@@std@@QAE?AU?$pair@V?$_Tree_iterator@V?$_Tree_val@U?$_Tree_simple_types@U?$pair@$$CBHPAVCTransformItemComponent@@@std@@@std@@@std@@@std@@_N@1@$$QAU?$pair@$$CBHPAVCTransformItemComponent@@@1@@Z$2
__ehfuncinfo$??$insert@$0A@$0A@@?$_Tree@V?$_Tmap_traits@HPAVCTransformItemComponent@@U?$less@H@std@@V?$allocator@U?$pair@$$CBHPAVCTransformItemComponent@@@std@@@3@$0A@@std@@@std@@QAE?AU?$pair@V?$_Tree_iterator@V?$_Tree_val@U?$_Tree_simple_types@U?$pair@$$CBHPAVCTransformItemComponent@@@std@@@std@@@std@@@std@@_N@1@$$QAU?$pair@$$CBHPAVCTransformItemComponent@@@1@@Z DD 019930522H
	DD	01H
	DD	FLAT:__unwindtable$??$insert@$0A@$0A@@?$_Tree@V?$_Tmap_traits@HPAVCTransformItemComponent@@U?$less@H@std@@V?$allocator@U?$pair@$$CBHPAVCTransformItemComponent@@@std@@@3@$0A@@std@@@std@@QAE?AU?$pair@V?$_Tree_iterator@V?$_Tree_val@U?$_Tree_simple_types@U?$pair@$$CBHPAVCTransformItemComponent@@@std@@@std@@@std@@@std@@_N@1@$$QAU?$pair@$$CBHPAVCTransformItemComponent@@@1@@Z
	DD	2 DUP(00H)
	DD	2 DUP(00H)
	DD	00H
	DD	01H
xdata$x	ENDS
;	COMDAT xdata$x
xdata$x	SEGMENT
__unwindtable$??$insert@$0A@$0A@@?$_Tree@V?$_Tset_traits@HU?$less@H@std@@V?$allocator@H@2@$0A@@std@@@std@@QAE?AU?$pair@V?$_Tree_const_iterator@V?$_Tree_val@U?$_Tree_simple_types@H@std@@@std@@@std@@_N@1@ABH@Z DD 0ffffffffH
	DD	FLAT:__unwindfunclet$??$insert@$0A@$0A@@?$_Tree@V?$_Tset_traits@HU?$less@H@std@@V?$allocator@H@2@$0A@@std@@@std@@QAE?AU?$pair@V?$_Tree_const_iterator@V?$_Tree_val@U?$_Tree_simple_types@H@std@@@std@@@std@@_N@1@ABH@Z$2
__ehfuncinfo$??$insert@$0A@$0A@@?$_Tree@V?$_Tset_traits@HU?$less@H@std@@V?$allocator@H@2@$0A@@std@@@std@@QAE?AU?$pair@V?$_Tree_const_iterator@V?$_Tree_val@U?$_Tree_simple_types@H@std@@@std@@@std@@_N@1@ABH@Z DD 019930522H
	DD	01H
	DD	FLAT:__unwindtable$??$insert@$0A@$0A@@?$_Tree@V?$_Tset_traits@HU?$less@H@std@@V?$allocator@H@2@$0A@@std@@@std@@QAE?AU?$pair@V?$_Tree_const_iterator@V?$_Tree_val@U?$_Tree_simple_types@H@std@@@std@@@std@@_N@1@ABH@Z
	DD	2 DUP(00H)
	DD	2 DUP(00H)
	DD	00H
	DD	01H
xdata$x	ENDS
;	COMDAT xdata$x
xdata$x	SEGMENT
__unwindtable$?CreateItemPet@CTransformItemProperty@@QAEPAVCItemElem@@AAVCScript@@@Z DD 0ffffffffH
	DD	FLAT:__unwindfunclet$?CreateItemPet@CTransformItemProperty@@QAEPAVCItemElem@@AAVCScript@@@Z$0
__ehfuncinfo$?CreateItemPet@CTransformItemProperty@@QAEPAVCItemElem@@AAVCScript@@@Z DD 019930522H
	DD	01H
	DD	FLAT:__unwindtable$?CreateItemPet@CTransformItemProperty@@QAEPAVCItemElem@@AAVCScript@@@Z
	DD	2 DUP(00H)
	DD	2 DUP(00H)
	DD	00H
	DD	01H
xdata$x	ENDS
;	COMDAT xdata$x
xdata$x	SEGMENT
__unwindtable$?CreateItemGeneric@CTransformItemProperty@@QAEPAVCItemElem@@AAVCScript@@@Z DD 0ffffffffH
	DD	FLAT:__unwindfunclet$?CreateItemGeneric@CTransformItemProperty@@QAEPAVCItemElem@@AAVCScript@@@Z$0
__ehfuncinfo$?CreateItemGeneric@CTransformItemProperty@@QAEPAVCItemElem@@AAVCScript@@@Z DD 019930522H
	DD	01H
	DD	FLAT:__unwindtable$?CreateItemGeneric@CTransformItemProperty@@QAEPAVCItemElem@@AAVCScript@@@Z
	DD	2 DUP(00H)
	DD	2 DUP(00H)
	DD	00H
	DD	01H
xdata$x	ENDS
;	COMDAT xdata$x
xdata$x	SEGMENT
__unwindtable$?LoadScript@CTransformItemProperty@@QAEHPBD@Z DD 0ffffffffH
	DD	FLAT:__unwindfunclet$?LoadScript@CTransformItemProperty@@QAEHPBD@Z$0
__ehfuncinfo$?LoadScript@CTransformItemProperty@@QAEHPBD@Z DD 019930522H
	DD	01H
	DD	FLAT:__unwindtable$?LoadScript@CTransformItemProperty@@QAEHPBD@Z
	DD	2 DUP(00H)
	DD	2 DUP(00H)
	DD	00H
	DD	01H
xdata$x	ENDS
;	COMDAT xdata$x
xdata$x	SEGMENT
__unwindtable$?AddComponent@CTransformItemProperty@@QAEXPAVCTransformItemComponent@@@Z DD 0ffffffffH
	DD	FLAT:__unwindfunclet$?AddComponent@CTransformItemProperty@@QAEXPAVCTransformItemComponent@@@Z$2
__ehfuncinfo$?AddComponent@CTransformItemProperty@@QAEXPAVCTransformItemComponent@@@Z DD 019930522H
	DD	01H
	DD	FLAT:__unwindtable$?AddComponent@CTransformItemProperty@@QAEXPAVCTransformItemComponent@@@Z
	DD	2 DUP(00H)
	DD	2 DUP(00H)
	DD	00H
	DD	01H
xdata$x	ENDS
;	COMDAT xdata$x
xdata$x	SEGMENT
__unwindtable$?Instance@CTransformItemProperty@@SAPAV1@XZ DD 0ffffffffH
	DD	FLAT:__unwindfunclet$?Instance@CTransformItemProperty@@SAPAV1@XZ$0
__ehfuncinfo$?Instance@CTransformItemProperty@@SAPAV1@XZ DD 019930522H
	DD	01H
	DD	FLAT:__unwindtable$?Instance@CTransformItemProperty@@SAPAV1@XZ
	DD	2 DUP(00H)
	DD	2 DUP(00H)
	DD	00H
	DD	01H
xdata$x	ENDS
;	COMDAT xdata$x
xdata$x	SEGMENT
__unwindtable$?IsValidStuff@CTransformerEgg@@UAEHPAVCUser@@AAVCTransformStuff@@@Z DD 0ffffffffH
	DD	FLAT:__unwindfunclet$?IsValidStuff@CTransformerEgg@@UAEHPAVCUser@@AAVCTransformStuff@@@Z$0
	DD	00H
	DD	FLAT:__unwindfunclet$?IsValidStuff@CTransformerEgg@@UAEHPAVCUser@@AAVCTransformStuff@@@Z$4
__ehfuncinfo$?IsValidStuff@CTransformerEgg@@UAEHPAVCUser@@AAVCTransformStuff@@@Z DD 019930522H
	DD	02H
	DD	FLAT:__unwindtable$?IsValidStuff@CTransformerEgg@@UAEHPAVCUser@@AAVCTransformStuff@@@Z
	DD	2 DUP(00H)
	DD	2 DUP(00H)
	DD	00H
	DD	01H
xdata$x	ENDS
;	COMDAT xdata$x
xdata$x	SEGMENT
__unwindtable$?LoadScript@CPetProperty@@QAEHPBD@Z DD 0ffffffffH
	DD	FLAT:__unwindfunclet$?LoadScript@CPetProperty@@QAEHPBD@Z$0
__ehfuncinfo$?LoadScript@CPetProperty@@QAEHPBD@Z DD 019930522H
	DD	01H
	DD	FLAT:__unwindtable$?LoadScript@CPetProperty@@QAEHPBD@Z
	DD	2 DUP(00H)
	DD	2 DUP(00H)
	DD	00H
	DD	01H
xdata$x	ENDS
;	COMDAT xdata$x
xdata$x	SEGMENT
__unwindtable$?GetInstance@CPetProperty@@SAPAV1@XZ DD 0ffffffffH
	DD	FLAT:__unwindfunclet$?GetInstance@CPetProperty@@SAPAV1@XZ$0
__ehfuncinfo$?GetInstance@CPetProperty@@SAPAV1@XZ DD 019930522H
	DD	01H
	DD	FLAT:__unwindtable$?GetInstance@CPetProperty@@SAPAV1@XZ
	DD	2 DUP(00H)
	DD	2 DUP(00H)
	DD	00H
	DD	01H
xdata$x	ENDS
;	COMDAT xdata$x
xdata$x	SEGMENT
__ehfuncinfo$??1CPetProperty@@UAE@XZ DD 019930522H
	DD	00H
	DD	00H
	DD	2 DUP(00H)
	DD	2 DUP(00H)
	DD	00H
	DD	05H
xdata$x	ENDS
; Function compile flags: /Ogtp
; File C:\Program Files\Microsoft Visual Studio\2022\Professional\VC\Tools\MSVC\14.44.35207\include\xutility
;	COMDAT ??$_Copy_memmove_tail@PAG@std@@YAPAGQBDQAGII@Z
_TEXT	SEGMENT
__First_ch$ = 8						; size = 4
__Dest$ = 12						; size = 4
__Byte_count$ = 16					; size = 4
__Object_count$ = 20					; size = 4
??$_Copy_memmove_tail@PAG@std@@YAPAGQBDQAGII@Z PROC	; std::_Copy_memmove_tail<unsigned short *>, COMDAT

; 4747 :     const char* const _First_ch, const _OutCtgIt _Dest, const size_t _Byte_count, const size_t _Object_count) {

  00000	55		 push	 ebp
  00001	8b ec		 mov	 ebp, esp
  00003	56		 push	 esi

; 4748 :     _STL_INTERNAL_CHECK(_Byte_count == _Object_count * sizeof(*_Dest));
; 4749 :     const auto _Dest_ptr = _STD _To_address(_Dest);
; 4750 :     const auto _Dest_ch  = const_cast<char*>(reinterpret_cast<const volatile char*>(_Dest_ptr));
; 4751 :     _CSTD memmove(_Dest_ch, _First_ch, _Byte_count);

  00004	8b 75 0c	 mov	 esi, DWORD PTR __Dest$[ebp]
  00007	57		 push	 edi
  00008	8b 7d 10	 mov	 edi, DWORD PTR __Byte_count$[ebp]
  0000b	57		 push	 edi
  0000c	ff 75 08	 push	 DWORD PTR __First_ch$[ebp]
  0000f	56		 push	 esi
  00010	e8 00 00 00 00	 call	 _memmove
  00015	83 c4 0c	 add	 esp, 12			; 0000000cH

; 4752 :     if constexpr (is_pointer_v<_OutCtgIt>) {
; 4753 :         (void) _Object_count;
; 4754 :         // CodeQL [SM02986] This cast is correct: we're bypassing pointer arithmetic for performance.
; 4755 :         return reinterpret_cast<_OutCtgIt>(_Dest_ch + _Byte_count);

  00018	8d 04 3e	 lea	 eax, DWORD PTR [esi+edi]
  0001b	5f		 pop	 edi
  0001c	5e		 pop	 esi

; 4756 :     } else {
; 4757 :         return _Dest + static_cast<_Iter_diff_t<_OutCtgIt>>(_Object_count);
; 4758 :     }
; 4759 : }

  0001d	5d		 pop	 ebp
  0001e	c3		 ret	 0
??$_Copy_memmove_tail@PAG@std@@YAPAGQBDQAGII@Z ENDP	; std::_Copy_memmove_tail<unsigned short *>
_TEXT	ENDS
; Function compile flags: /Ogtp
; File C:\Program Files\Microsoft Visual Studio\2022\Professional\VC\Tools\MSVC\14.44.35207\include\xutility
;	COMDAT ??$_Copy_memmove_tail@PAU_FEEDENERGY@@@std@@YAPAU_FEEDENERGY@@QBDQAU1@II@Z
_TEXT	SEGMENT
__First_ch$ = 8						; size = 4
__Dest$ = 12						; size = 4
__Byte_count$ = 16					; size = 4
__Object_count$ = 20					; size = 4
??$_Copy_memmove_tail@PAU_FEEDENERGY@@@std@@YAPAU_FEEDENERGY@@QBDQAU1@II@Z PROC ; std::_Copy_memmove_tail<_FEEDENERGY *>, COMDAT

; 4747 :     const char* const _First_ch, const _OutCtgIt _Dest, const size_t _Byte_count, const size_t _Object_count) {

  00000	55		 push	 ebp
  00001	8b ec		 mov	 ebp, esp
  00003	56		 push	 esi

; 4748 :     _STL_INTERNAL_CHECK(_Byte_count == _Object_count * sizeof(*_Dest));
; 4749 :     const auto _Dest_ptr = _STD _To_address(_Dest);
; 4750 :     const auto _Dest_ch  = const_cast<char*>(reinterpret_cast<const volatile char*>(_Dest_ptr));
; 4751 :     _CSTD memmove(_Dest_ch, _First_ch, _Byte_count);

  00004	8b 75 0c	 mov	 esi, DWORD PTR __Dest$[ebp]
  00007	57		 push	 edi
  00008	8b 7d 10	 mov	 edi, DWORD PTR __Byte_count$[ebp]
  0000b	57		 push	 edi
  0000c	ff 75 08	 push	 DWORD PTR __First_ch$[ebp]
  0000f	56		 push	 esi
  00010	e8 00 00 00 00	 call	 _memmove
  00015	83 c4 0c	 add	 esp, 12			; 0000000cH

; 4752 :     if constexpr (is_pointer_v<_OutCtgIt>) {
; 4753 :         (void) _Object_count;
; 4754 :         // CodeQL [SM02986] This cast is correct: we're bypassing pointer arithmetic for performance.
; 4755 :         return reinterpret_cast<_OutCtgIt>(_Dest_ch + _Byte_count);

  00018	8d 04 3e	 lea	 eax, DWORD PTR [esi+edi]
  0001b	5f		 pop	 edi
  0001c	5e		 pop	 esi

; 4756 :     } else {
; 4757 :         return _Dest + static_cast<_Iter_diff_t<_OutCtgIt>>(_Object_count);
; 4758 :     }
; 4759 : }

  0001d	5d		 pop	 ebp
  0001e	c3		 ret	 0
??$_Copy_memmove_tail@PAU_FEEDENERGY@@@std@@YAPAU_FEEDENERGY@@QBDQAU1@II@Z ENDP ; std::_Copy_memmove_tail<_FEEDENERGY *>
_TEXT	ENDS
; Function compile flags: /Ogtp
; File C:\Program Files\Microsoft Visual Studio\2022\Professional\VC\Tools\MSVC\14.44.35207\include\xutility
;	COMDAT ??$_Copy_memmove_tail@PAU_TransformStuffComponent@@@std@@YAPAU_TransformStuffComponent@@QBDQAU1@II@Z
_TEXT	SEGMENT
__First_ch$ = 8						; size = 4
__Dest$ = 12						; size = 4
__Byte_count$ = 16					; size = 4
__Object_count$ = 20					; size = 4
??$_Copy_memmove_tail@PAU_TransformStuffComponent@@@std@@YAPAU_TransformStuffComponent@@QBDQAU1@II@Z PROC ; std::_Copy_memmove_tail<_TransformStuffComponent *>, COMDAT

; 4747 :     const char* const _First_ch, const _OutCtgIt _Dest, const size_t _Byte_count, const size_t _Object_count) {

  00000	55		 push	 ebp
  00001	8b ec		 mov	 ebp, esp
  00003	56		 push	 esi

; 4748 :     _STL_INTERNAL_CHECK(_Byte_count == _Object_count * sizeof(*_Dest));
; 4749 :     const auto _Dest_ptr = _STD _To_address(_Dest);
; 4750 :     const auto _Dest_ch  = const_cast<char*>(reinterpret_cast<const volatile char*>(_Dest_ptr));
; 4751 :     _CSTD memmove(_Dest_ch, _First_ch, _Byte_count);

  00004	8b 75 0c	 mov	 esi, DWORD PTR __Dest$[ebp]
  00007	57		 push	 edi
  00008	8b 7d 10	 mov	 edi, DWORD PTR __Byte_count$[ebp]
  0000b	57		 push	 edi
  0000c	ff 75 08	 push	 DWORD PTR __First_ch$[ebp]
  0000f	56		 push	 esi
  00010	e8 00 00 00 00	 call	 _memmove
  00015	83 c4 0c	 add	 esp, 12			; 0000000cH

; 4752 :     if constexpr (is_pointer_v<_OutCtgIt>) {
; 4753 :         (void) _Object_count;
; 4754 :         // CodeQL [SM02986] This cast is correct: we're bypassing pointer arithmetic for performance.
; 4755 :         return reinterpret_cast<_OutCtgIt>(_Dest_ch + _Byte_count);

  00018	8d 04 3e	 lea	 eax, DWORD PTR [esi+edi]
  0001b	5f		 pop	 edi
  0001c	5e		 pop	 esi

; 4756 :     } else {
; 4757 :         return _Dest + static_cast<_Iter_diff_t<_OutCtgIt>>(_Object_count);
; 4758 :     }
; 4759 : }

  0001d	5d		 pop	 ebp
  0001e	c3		 ret	 0
??$_Copy_memmove_tail@PAU_TransformStuffComponent@@@std@@YAPAU_TransformStuffComponent@@QBDQAU1@II@Z ENDP ; std::_Copy_memmove_tail<_TransformStuffComponent *>
_TEXT	ENDS
; Function compile flags: /Ogtp
; File C:\Program Files\Microsoft Visual Studio\2022\Professional\VC\Tools\MSVC\14.44.35207\include\xutility
;	COMDAT ??$_Copy_memmove_tail@PAU_TransformItemElement@@@std@@YAPAU_TransformItemElement@@QBDQAU1@II@Z
_TEXT	SEGMENT
__First_ch$ = 8						; size = 4
__Dest$ = 12						; size = 4
__Byte_count$ = 16					; size = 4
__Object_count$ = 20					; size = 4
??$_Copy_memmove_tail@PAU_TransformItemElement@@@std@@YAPAU_TransformItemElement@@QBDQAU1@II@Z PROC ; std::_Copy_memmove_tail<_TransformItemElement *>, COMDAT

; 4747 :     const char* const _First_ch, const _OutCtgIt _Dest, const size_t _Byte_count, const size_t _Object_count) {

  00000	55		 push	 ebp
  00001	8b ec		 mov	 ebp, esp
  00003	56		 push	 esi

; 4748 :     _STL_INTERNAL_CHECK(_Byte_count == _Object_count * sizeof(*_Dest));
; 4749 :     const auto _Dest_ptr = _STD _To_address(_Dest);
; 4750 :     const auto _Dest_ch  = const_cast<char*>(reinterpret_cast<const volatile char*>(_Dest_ptr));
; 4751 :     _CSTD memmove(_Dest_ch, _First_ch, _Byte_count);

  00004	8b 75 0c	 mov	 esi, DWORD PTR __Dest$[ebp]
  00007	57		 push	 edi
  00008	8b 7d 10	 mov	 edi, DWORD PTR __Byte_count$[ebp]
  0000b	57		 push	 edi
  0000c	ff 75 08	 push	 DWORD PTR __First_ch$[ebp]
  0000f	56		 push	 esi
  00010	e8 00 00 00 00	 call	 _memmove
  00015	83 c4 0c	 add	 esp, 12			; 0000000cH

; 4752 :     if constexpr (is_pointer_v<_OutCtgIt>) {
; 4753 :         (void) _Object_count;
; 4754 :         // CodeQL [SM02986] This cast is correct: we're bypassing pointer arithmetic for performance.
; 4755 :         return reinterpret_cast<_OutCtgIt>(_Dest_ch + _Byte_count);

  00018	8d 04 3e	 lea	 eax, DWORD PTR [esi+edi]
  0001b	5f		 pop	 edi
  0001c	5e		 pop	 esi

; 4756 :     } else {
; 4757 :         return _Dest + static_cast<_Iter_diff_t<_OutCtgIt>>(_Object_count);
; 4758 :     }
; 4759 : }

  0001d	5d		 pop	 ebp
  0001e	c3		 ret	 0
??$_Copy_memmove_tail@PAU_TransformItemElement@@@std@@YAPAU_TransformItemElement@@QBDQAU1@II@Z ENDP ; std::_Copy_memmove_tail<_TransformItemElement *>
_TEXT	ENDS
; Function compile flags: /Ogtp
; File C:\Program Files\Microsoft Visual Studio\2022\Professional\VC\Tools\MSVC\14.44.35207\include\xutility
;	COMDAT ??$_Copy_memmove@PAGPAG@std@@YAPAGPAG00@Z
_TEXT	SEGMENT
__First$ = 8						; size = 4
__Last$ = 12						; size = 4
__Dest$ = 16						; size = 4
??$_Copy_memmove@PAGPAG@std@@YAPAGPAG00@Z PROC		; std::_Copy_memmove<unsigned short *,unsigned short *>, COMDAT

; 4762 : _OutCtgIt _Copy_memmove(_CtgIt _First, _CtgIt _Last, _OutCtgIt _Dest) {

  00000	55		 push	 ebp
  00001	8b ec		 mov	 ebp, esp

; 4763 :     _STL_INTERNAL_CHECK(_First <= _Last);
; 4764 :     const auto _First_ptr    = _STD _To_address(_First);
; 4765 :     const auto _Last_ptr     = _STD _To_address(_Last);
; 4766 :     const auto _Object_count = static_cast<size_t>(_Last_ptr - _First_ptr);

  00003	8b 55 08	 mov	 edx, DWORD PTR __First$[ebp]
  00006	8b 4d 0c	 mov	 ecx, DWORD PTR __Last$[ebp]
  00009	2b ca		 sub	 ecx, edx
  0000b	8b c1		 mov	 eax, ecx
  0000d	d1 f8		 sar	 eax, 1

; 4767 :     const auto _First_ch     = const_cast<const char*>(reinterpret_cast<const volatile char*>(_First_ptr));
; 4768 :     const auto _Last_ch      = const_cast<const char*>(reinterpret_cast<const volatile char*>(_Last_ptr));
; 4769 :     const auto _Byte_count   = static_cast<size_t>(_Last_ch - _First_ch);
; 4770 :     return _STD _Copy_memmove_tail(_First_ch, _STD move(_Dest), _Byte_count, _Object_count);

  0000f	50		 push	 eax
  00010	51		 push	 ecx
  00011	ff 75 10	 push	 DWORD PTR __Dest$[ebp]
  00014	52		 push	 edx
  00015	e8 00 00 00 00	 call	 ??$_Copy_memmove_tail@PAG@std@@YAPAGQBDQAGII@Z ; std::_Copy_memmove_tail<unsigned short *>
  0001a	83 c4 10	 add	 esp, 16			; 00000010H

; 4771 : }

  0001d	5d		 pop	 ebp
  0001e	c3		 ret	 0
??$_Copy_memmove@PAGPAG@std@@YAPAGPAG00@Z ENDP		; std::_Copy_memmove<unsigned short *,unsigned short *>
_TEXT	ENDS
; Function compile flags: /Ogtp
; File C:\Program Files\Microsoft Visual Studio\2022\Professional\VC\Tools\MSVC\14.44.35207\include\xutility
;	COMDAT ??$_Copy_memmove@PAU_FEEDENERGY@@PAU1@@std@@YAPAU_FEEDENERGY@@PAU1@00@Z
_TEXT	SEGMENT
__First$ = 8						; size = 4
__Last$ = 12						; size = 4
__Dest$ = 16						; size = 4
??$_Copy_memmove@PAU_FEEDENERGY@@PAU1@@std@@YAPAU_FEEDENERGY@@PAU1@00@Z PROC ; std::_Copy_memmove<_FEEDENERGY *,_FEEDENERGY *>, COMDAT

; 4762 : _OutCtgIt _Copy_memmove(_CtgIt _First, _CtgIt _Last, _OutCtgIt _Dest) {

  00000	55		 push	 ebp
  00001	8b ec		 mov	 ebp, esp

; 4763 :     _STL_INTERNAL_CHECK(_First <= _Last);
; 4764 :     const auto _First_ptr    = _STD _To_address(_First);
; 4765 :     const auto _Last_ptr     = _STD _To_address(_Last);
; 4766 :     const auto _Object_count = static_cast<size_t>(_Last_ptr - _First_ptr);

  00003	8b 4d 0c	 mov	 ecx, DWORD PTR __Last$[ebp]
  00006	b8 ab aa aa 2a	 mov	 eax, 715827883		; 2aaaaaabH
  0000b	2b 4d 08	 sub	 ecx, DWORD PTR __First$[ebp]
  0000e	f7 e9		 imul	 ecx
  00010	d1 fa		 sar	 edx, 1
  00012	8b c2		 mov	 eax, edx
  00014	c1 e8 1f	 shr	 eax, 31			; 0000001fH
  00017	03 c2		 add	 eax, edx

; 4767 :     const auto _First_ch     = const_cast<const char*>(reinterpret_cast<const volatile char*>(_First_ptr));
; 4768 :     const auto _Last_ch      = const_cast<const char*>(reinterpret_cast<const volatile char*>(_Last_ptr));
; 4769 :     const auto _Byte_count   = static_cast<size_t>(_Last_ch - _First_ch);
; 4770 :     return _STD _Copy_memmove_tail(_First_ch, _STD move(_Dest), _Byte_count, _Object_count);

  00019	50		 push	 eax
  0001a	51		 push	 ecx
  0001b	ff 75 10	 push	 DWORD PTR __Dest$[ebp]
  0001e	ff 75 08	 push	 DWORD PTR __First$[ebp]
  00021	e8 00 00 00 00	 call	 ??$_Copy_memmove_tail@PAU_FEEDENERGY@@@std@@YAPAU_FEEDENERGY@@QBDQAU1@II@Z ; std::_Copy_memmove_tail<_FEEDENERGY *>
  00026	83 c4 10	 add	 esp, 16			; 00000010H

; 4771 : }

  00029	5d		 pop	 ebp
  0002a	c3		 ret	 0
??$_Copy_memmove@PAU_FEEDENERGY@@PAU1@@std@@YAPAU_FEEDENERGY@@PAU1@00@Z ENDP ; std::_Copy_memmove<_FEEDENERGY *,_FEEDENERGY *>
_TEXT	ENDS
; Function compile flags: /Ogtp
; File C:\Program Files\Microsoft Visual Studio\2022\Professional\VC\Tools\MSVC\14.44.35207\include\xutility
;	COMDAT ??$_Copy_memmove@PAU_TransformStuffComponent@@PAU1@@std@@YAPAU_TransformStuffComponent@@PAU1@00@Z
_TEXT	SEGMENT
__First$ = 8						; size = 4
__Last$ = 12						; size = 4
__Dest$ = 16						; size = 4
??$_Copy_memmove@PAU_TransformStuffComponent@@PAU1@@std@@YAPAU_TransformStuffComponent@@PAU1@00@Z PROC ; std::_Copy_memmove<_TransformStuffComponent *,_TransformStuffComponent *>, COMDAT

; 4762 : _OutCtgIt _Copy_memmove(_CtgIt _First, _CtgIt _Last, _OutCtgIt _Dest) {

  00000	55		 push	 ebp
  00001	8b ec		 mov	 ebp, esp

; 4763 :     _STL_INTERNAL_CHECK(_First <= _Last);
; 4764 :     const auto _First_ptr    = _STD _To_address(_First);
; 4765 :     const auto _Last_ptr     = _STD _To_address(_Last);
; 4766 :     const auto _Object_count = static_cast<size_t>(_Last_ptr - _First_ptr);

  00003	8b 55 08	 mov	 edx, DWORD PTR __First$[ebp]
  00006	8b 4d 0c	 mov	 ecx, DWORD PTR __Last$[ebp]
  00009	2b ca		 sub	 ecx, edx
  0000b	8b c1		 mov	 eax, ecx
  0000d	c1 f8 03	 sar	 eax, 3

; 4767 :     const auto _First_ch     = const_cast<const char*>(reinterpret_cast<const volatile char*>(_First_ptr));
; 4768 :     const auto _Last_ch      = const_cast<const char*>(reinterpret_cast<const volatile char*>(_Last_ptr));
; 4769 :     const auto _Byte_count   = static_cast<size_t>(_Last_ch - _First_ch);
; 4770 :     return _STD _Copy_memmove_tail(_First_ch, _STD move(_Dest), _Byte_count, _Object_count);

  00010	50		 push	 eax
  00011	51		 push	 ecx
  00012	ff 75 10	 push	 DWORD PTR __Dest$[ebp]
  00015	52		 push	 edx
  00016	e8 00 00 00 00	 call	 ??$_Copy_memmove_tail@PAU_TransformStuffComponent@@@std@@YAPAU_TransformStuffComponent@@QBDQAU1@II@Z ; std::_Copy_memmove_tail<_TransformStuffComponent *>
  0001b	83 c4 10	 add	 esp, 16			; 00000010H

; 4771 : }

  0001e	5d		 pop	 ebp
  0001f	c3		 ret	 0
??$_Copy_memmove@PAU_TransformStuffComponent@@PAU1@@std@@YAPAU_TransformStuffComponent@@PAU1@00@Z ENDP ; std::_Copy_memmove<_TransformStuffComponent *,_TransformStuffComponent *>
_TEXT	ENDS
; Function compile flags: /Ogtp
; File C:\Program Files\Microsoft Visual Studio\2022\Professional\VC\Tools\MSVC\14.44.35207\include\xutility
;	COMDAT ??$_Copy_memmove@PAU_TransformItemElement@@PAU1@@std@@YAPAU_TransformItemElement@@PAU1@00@Z
_TEXT	SEGMENT
__First$ = 8						; size = 4
__Last$ = 12						; size = 4
__Dest$ = 16						; size = 4
??$_Copy_memmove@PAU_TransformItemElement@@PAU1@@std@@YAPAU_TransformItemElement@@PAU1@00@Z PROC ; std::_Copy_memmove<_TransformItemElement *,_TransformItemElement *>, COMDAT

; 4762 : _OutCtgIt _Copy_memmove(_CtgIt _First, _CtgIt _Last, _OutCtgIt _Dest) {

  00000	55		 push	 ebp
  00001	8b ec		 mov	 ebp, esp

; 4763 :     _STL_INTERNAL_CHECK(_First <= _Last);
; 4764 :     const auto _First_ptr    = _STD _To_address(_First);
; 4765 :     const auto _Last_ptr     = _STD _To_address(_Last);
; 4766 :     const auto _Object_count = static_cast<size_t>(_Last_ptr - _First_ptr);

  00003	8b 55 08	 mov	 edx, DWORD PTR __First$[ebp]
  00006	8b 4d 0c	 mov	 ecx, DWORD PTR __Last$[ebp]
  00009	2b ca		 sub	 ecx, edx
  0000b	8b c1		 mov	 eax, ecx
  0000d	c1 f8 03	 sar	 eax, 3

; 4767 :     const auto _First_ch     = const_cast<const char*>(reinterpret_cast<const volatile char*>(_First_ptr));
; 4768 :     const auto _Last_ch      = const_cast<const char*>(reinterpret_cast<const volatile char*>(_Last_ptr));
; 4769 :     const auto _Byte_count   = static_cast<size_t>(_Last_ch - _First_ch);
; 4770 :     return _STD _Copy_memmove_tail(_First_ch, _STD move(_Dest), _Byte_count, _Object_count);

  00010	50		 push	 eax
  00011	51		 push	 ecx
  00012	ff 75 10	 push	 DWORD PTR __Dest$[ebp]
  00015	52		 push	 edx
  00016	e8 00 00 00 00	 call	 ??$_Copy_memmove_tail@PAU_TransformItemElement@@@std@@YAPAU_TransformItemElement@@QBDQAU1@II@Z ; std::_Copy_memmove_tail<_TransformItemElement *>
  0001b	83 c4 10	 add	 esp, 16			; 00000010H

; 4771 : }

  0001e	5d		 pop	 ebp
  0001f	c3		 ret	 0
??$_Copy_memmove@PAU_TransformItemElement@@PAU1@@std@@YAPAU_TransformItemElement@@PAU1@00@Z ENDP ; std::_Copy_memmove<_TransformItemElement *,_TransformItemElement *>
_TEXT	ENDS
; Function compile flags: /Ogtp
; File C:\Program Files\Microsoft Visual Studio\2022\Professional\VC\Tools\MSVC\14.44.35207\include\vector
; File C:\Program Files\Microsoft Visual Studio\2022\Professional\VC\Tools\MSVC\14.44.35207\include\xmemory
; File C:\Program Files\Microsoft Visual Studio\2022\Professional\VC\Tools\MSVC\14.44.35207\include\vector
; File C:\Program Files\Microsoft Visual Studio\2022\Professional\VC\Tools\MSVC\14.44.35207\include\xmemory
; File C:\Program Files\Microsoft Visual Studio\2022\Professional\VC\Tools\MSVC\14.44.35207\include\vector
; File C:\Program Files\Microsoft Visual Studio\2022\Professional\VC\Tools\MSVC\14.44.35207\include\xmemory
; File C:\Program Files\Microsoft Visual Studio\2022\Professional\VC\Tools\MSVC\14.44.35207\include\vector
; File C:\Program Files\Microsoft Visual Studio\2022\Professional\VC\Tools\MSVC\14.44.35207\include\xmemory
; File C:\Program Files\Microsoft Visual Studio\2022\Professional\VC\Tools\MSVC\14.44.35207\include\vector
; File C:\Program Files\Microsoft Visual Studio\2022\Professional\VC\Tools\MSVC\14.44.35207\include\xmemory
; File C:\Program Files\Microsoft Visual Studio\2022\Professional\VC\Tools\MSVC\14.44.35207\include\vector
; File C:\Program Files\Microsoft Visual Studio\2022\Professional\VC\Tools\MSVC\14.44.35207\include\xmemory
; File C:\Program Files\Microsoft Visual Studio\2022\Professional\VC\Tools\MSVC\14.44.35207\include\vector
; File C:\Program Files\Microsoft Visual Studio\2022\Professional\VC\Tools\MSVC\14.44.35207\include\xmemory
; File C:\Program Files\Microsoft Visual Studio\2022\Professional\VC\Tools\MSVC\14.44.35207\include\vector
; File C:\Program Files\Microsoft Visual Studio\2022\Professional\VC\Tools\MSVC\14.44.35207\include\xmemory
; File C:\Program Files\Microsoft Visual Studio\2022\Professional\VC\Tools\MSVC\14.44.35207\include\vector
;	COMDAT ??$_Emplace_reallocate@ABG@?$vector@GV?$allocator@G@std@@@std@@AAEPAGQAGABG@Z
_TEXT	SEGMENT
__Newsize$1$ = -12					; size = 4
tv652 = -8						; size = 4
tv650 = -4						; size = 4
__Whereptr$ = 8						; size = 4
_<_Val_0>$ = 12						; size = 4
??$_Emplace_reallocate@ABG@?$vector@GV?$allocator@G@std@@@std@@AAEPAGQAGABG@Z PROC ; std::vector<unsigned short,std::allocator<unsigned short> >::_Emplace_reallocate<unsigned short const &>, COMDAT
; _this$ = ecx

; 875  :     _CONSTEXPR20 pointer _Emplace_reallocate(const pointer _Whereptr, _Valty&&... _Val) {

  00000	55		 push	 ebp
  00001	8b ec		 mov	 ebp, esp
  00003	83 ec 0c	 sub	 esp, 12			; 0000000cH
  00006	53		 push	 ebx

; 876  :         // reallocate and insert by perfectly forwarding _Val at _Whereptr
; 877  :         _Alty& _Al        = _Getal();
; 878  :         auto& _My_data    = _Mypair._Myval2;
; 879  :         pointer& _Myfirst = _My_data._Myfirst;
; 880  :         pointer& _Mylast  = _My_data._Mylast;
; 881  : 
; 882  :         _STL_INTERNAL_CHECK(_Mylast == _My_data._Myend); // check that we have no unused capacity
; 883  : 
; 884  :         const auto _Whereoff = static_cast<size_type>(_Whereptr - _Myfirst);

  00007	8b 5d 08	 mov	 ebx, DWORD PTR __Whereptr$[ebp]
  0000a	56		 push	 esi
  0000b	8b f1		 mov	 esi, ecx
  0000d	57		 push	 edi
  0000e	8b 0e		 mov	 ecx, DWORD PTR [esi]
  00010	2b d9		 sub	 ebx, ecx

; 885  :         const auto _Oldsize  = static_cast<size_type>(_Mylast - _Myfirst);

  00012	8b 46 04	 mov	 eax, DWORD PTR [esi+4]
  00015	2b c1		 sub	 eax, ecx
  00017	d1 fb		 sar	 ebx, 1
  00019	d1 f8		 sar	 eax, 1

; 886  : 
; 887  :         if (_Oldsize == max_size()) {

  0001b	3d ff ff ff 7f	 cmp	 eax, 2147483647		; 7fffffffH
  00020	0f 84 10 01 00
	00		 je	 $LN111@Emplace_re

; 1924 :         return static_cast<size_type>(_My_data._Myend - _My_data._Myfirst);

  00026	8b 56 08	 mov	 edx, DWORD PTR [esi+8]

; 889  :         }
; 890  : 
; 891  :         const size_type _Newsize = _Oldsize + 1;

  00029	8d 78 01	 lea	 edi, DWORD PTR [eax+1]

; 1924 :         return static_cast<size_type>(_My_data._Myend - _My_data._Myfirst);

  0002c	2b d1		 sub	 edx, ecx

; 889  :         }
; 890  : 
; 891  :         const size_type _Newsize = _Oldsize + 1;

  0002e	89 7d f4	 mov	 DWORD PTR __Newsize$1$[ebp], edi

; 1924 :         return static_cast<size_type>(_My_data._Myend - _My_data._Myfirst);

  00031	d1 fa		 sar	 edx, 1

; 2011 :         if (_Oldcapacity > _Max - _Oldcapacity / 2) {

  00033	b8 ff ff ff 7f	 mov	 eax, 2147483647		; 7fffffffH
  00038	8b ca		 mov	 ecx, edx
  0003a	d1 e9		 shr	 ecx, 1
  0003c	2b c1		 sub	 eax, ecx
  0003e	3b d0		 cmp	 edx, eax
  00040	76 14		 jbe	 SHORT $LN8@Emplace_re

; 2012 :             return _Max; // geometric growth would overflow

  00042	b8 fe ff ff ff	 mov	 eax, -2			; fffffffeH
  00047	c7 45 f8 fe ff
	ff ff		 mov	 DWORD PTR tv652[ebp], -2 ; fffffffeH
; File C:\Program Files\Microsoft Visual Studio\2022\Professional\VC\Tools\MSVC\14.44.35207\include\xmemory

; 253  :             return _Allocate_manually_vector_aligned<_Traits>(_Bytes);

  0004e	50		 push	 eax
  0004f	e8 00 00 00 00	 call	 ??$_Allocate_manually_vector_aligned@U_Default_allocate_traits@std@@@std@@YAPAXI@Z ; std::_Allocate_manually_vector_aligned<std::_Default_allocate_traits>
  00054	eb 39		 jmp	 SHORT $LN109@Emplace_re
$LN8@Emplace_re:
; File C:\Program Files\Microsoft Visual Studio\2022\Professional\VC\Tools\MSVC\14.44.35207\include\vector

; 2015 :         const size_type _Geometric = _Oldcapacity + _Oldcapacity / 2;

  00056	8d 04 11	 lea	 eax, DWORD PTR [ecx+edx]
; File C:\Program Files\Microsoft Visual Studio\2022\Professional\VC\Tools\MSVC\14.44.35207\include\xmemory

; 117  :         if (_Count > _Max_possible) {

  00059	8b cf		 mov	 ecx, edi
  0005b	3b c7		 cmp	 eax, edi
  0005d	0f 43 c8	 cmovae	 ecx, eax
  00060	81 f9 ff ff ff
	7f		 cmp	 ecx, 2147483647		; 7fffffffH
  00066	0f 87 cf 00 00
	00		 ja	 $LN112@Emplace_re

; 119  :         }
; 120  :     }
; 121  : 
; 122  :     return _Count * _Ty_size;

  0006c	8d 04 09	 lea	 eax, DWORD PTR [ecx+ecx]
  0006f	89 45 f8	 mov	 DWORD PTR tv652[ebp], eax

; 227  :     if (_Bytes == 0) {

  00072	85 c0		 test	 eax, eax
  00074	75 04		 jne	 SHORT $LN23@Emplace_re

; 228  :         return nullptr;

  00076	33 ff		 xor	 edi, edi
  00078	eb 1a		 jmp	 SHORT $LN22@Emplace_re
$LN23@Emplace_re:

; 229  :     }
; 230  : 
; 231  : #if _HAS_CXX20 // TRANSITION, GH-1532
; 232  :     if (_STD is_constant_evaluated()) {
; 233  :         return _Traits::_Allocate(_Bytes);
; 234  :     }
; 235  : #endif // _HAS_CXX20
; 236  : 
; 237  : #ifdef __cpp_aligned_new
; 238  :     if constexpr (_Align > __STDCPP_DEFAULT_NEW_ALIGNMENT__) {
; 239  :         size_t _Passed_align = _Align;
; 240  : #if defined(_M_IX86) || defined(_M_X64)
; 241  :         if (_Bytes >= _Big_allocation_threshold) {
; 242  :             // boost the alignment of big allocations to help autovectorization
; 243  :             _Passed_align = (_STD max)(_Align, _Big_allocation_alignment);
; 244  :         }
; 245  : #endif // defined(_M_IX86) || defined(_M_X64)
; 246  :         return _Traits::_Allocate_aligned(_Bytes, _Passed_align);
; 247  :     } else
; 248  : #endif // defined(__cpp_aligned_new)
; 249  :     {
; 250  : #if defined(_M_IX86) || defined(_M_X64)
; 251  :         if (_Bytes >= _Big_allocation_threshold) {

  0007a	3d 00 10 00 00	 cmp	 eax, 4096		; 00001000H
  0007f	72 08		 jb	 SHORT $LN24@Emplace_re

; 253  :             return _Allocate_manually_vector_aligned<_Traits>(_Bytes);

  00081	50		 push	 eax
  00082	e8 00 00 00 00	 call	 ??$_Allocate_manually_vector_aligned@U_Default_allocate_traits@std@@@std@@YAPAXI@Z ; std::_Allocate_manually_vector_aligned<std::_Default_allocate_traits>
  00087	eb 06		 jmp	 SHORT $LN109@Emplace_re
$LN24@Emplace_re:

; 136  :         return ::operator new(_Bytes);

  00089	50		 push	 eax
  0008a	e8 00 00 00 00	 call	 ??2@YAPAXI@Z		; operator new
$LN109@Emplace_re:
; File C:\Program Files\Microsoft Visual Studio\2022\Professional\VC\Tools\MSVC\14.44.35207\include\vector

; 900  :         _Alty_traits::construct(_Al, _STD _Unfancy(_Newvec + _Whereoff), _STD forward<_Valty>(_Val)...);

  0008f	8b f8		 mov	 edi, eax
  00091	83 c4 04	 add	 esp, 4
$LN22@Emplace_re:
  00094	8b 45 0c	 mov	 eax, DWORD PTR _<_Val_0>$[ebp]
  00097	8d 0c 5f	 lea	 ecx, DWORD PTR [edi+ebx*2]

; 901  :         _Constructed_first = _Newvec + _Whereoff;
; 902  : 
; 903  :         if (_Whereptr == _Mylast) { // at back, provide strong guarantee

  0009a	8b 5d 08	 mov	 ebx, DWORD PTR __Whereptr$[ebp]
  0009d	89 4d fc	 mov	 DWORD PTR tv650[ebp], ecx
  000a0	66 8b 00	 mov	 ax, WORD PTR [eax]
  000a3	66 89 01	 mov	 WORD PTR [ecx], ax
  000a6	8b 46 04	 mov	 eax, DWORD PTR [esi+4]
  000a9	8b 0e		 mov	 ecx, DWORD PTR [esi]
  000ab	3b d8		 cmp	 ebx, eax
  000ad	75 07		 jne	 SHORT $LN3@Emplace_re

; 909  :         } else { // provide basic guarantee

  000af	8b 5d fc	 mov	 ebx, DWORD PTR tv650[ebp]
; File C:\Program Files\Microsoft Visual Studio\2022\Professional\VC\Tools\MSVC\14.44.35207\include\xmemory

; 1992 :             _STD _Copy_memmove(_UFirst, _ULast, _STD _Unfancy(_Dest));

  000b2	8b d7		 mov	 edx, edi
; File C:\Program Files\Microsoft Visual Studio\2022\Professional\VC\Tools\MSVC\14.44.35207\include\vector

; 909  :         } else { // provide basic guarantee

  000b4	eb 16		 jmp	 SHORT $LN52@Emplace_re
$LN3@Emplace_re:
; File C:\Program Files\Microsoft Visual Studio\2022\Professional\VC\Tools\MSVC\14.44.35207\include\xmemory

; 1992 :             _STD _Copy_memmove(_UFirst, _ULast, _STD _Unfancy(_Dest));

  000b6	57		 push	 edi
  000b7	53		 push	 ebx
  000b8	51		 push	 ecx
  000b9	e8 00 00 00 00	 call	 ??$_Copy_memmove@PAGPAG@std@@YAPAGPAG00@Z ; std::_Copy_memmove<unsigned short *,unsigned short *>
  000be	8b 46 04	 mov	 eax, DWORD PTR [esi+4]
  000c1	8b cb		 mov	 ecx, ebx
; File C:\Program Files\Microsoft Visual Studio\2022\Professional\VC\Tools\MSVC\14.44.35207\include\vector

; 912  :             _STD _Uninitialized_move(_Whereptr, _Mylast, _Newvec + _Whereoff + 1, _Al);

  000c3	8b 5d fc	 mov	 ebx, DWORD PTR tv650[ebp]
; File C:\Program Files\Microsoft Visual Studio\2022\Professional\VC\Tools\MSVC\14.44.35207\include\xmemory

; 1992 :             _STD _Copy_memmove(_UFirst, _ULast, _STD _Unfancy(_Dest));

  000c6	83 c4 0c	 add	 esp, 12			; 0000000cH
; File C:\Program Files\Microsoft Visual Studio\2022\Professional\VC\Tools\MSVC\14.44.35207\include\vector

; 912  :             _STD _Uninitialized_move(_Whereptr, _Mylast, _Newvec + _Whereoff + 1, _Al);

  000c9	8d 53 02	 lea	 edx, DWORD PTR [ebx+2]
$LN52@Emplace_re:

; 913  :         }
; 914  : 
; 915  :         _Guard._New_begin = nullptr;

  000cc	52		 push	 edx
  000cd	50		 push	 eax
  000ce	51		 push	 ecx
  000cf	e8 00 00 00 00	 call	 ??$_Copy_memmove@PAGPAG@std@@YAPAGPAG00@Z ; std::_Copy_memmove<unsigned short *,unsigned short *>

; 2069 :         if (_Myfirst) { // destroy and deallocate old array

  000d4	8b 06		 mov	 eax, DWORD PTR [esi]

; 913  :         }
; 914  : 
; 915  :         _Guard._New_begin = nullptr;

  000d6	83 c4 0c	 add	 esp, 12			; 0000000cH

; 2069 :         if (_Myfirst) { // destroy and deallocate old array

  000d9	85 c0		 test	 eax, eax
  000db	74 2c		 je	 SHORT $LN72@Emplace_re

; 2070 :             _STD _Destroy_range(_Myfirst, _Mylast, _Al);
; 2071 :             _ASAN_VECTOR_REMOVE;
; 2072 :             _Al.deallocate(_Myfirst, static_cast<size_type>(_Myend - _Myfirst));

  000dd	8b 4e 08	 mov	 ecx, DWORD PTR [esi+8]
  000e0	2b c8		 sub	 ecx, eax
; File C:\Program Files\Microsoft Visual Studio\2022\Professional\VC\Tools\MSVC\14.44.35207\include\xmemory

; 985  :         _STD _Deallocate<_New_alignof<_Ty>>(_Ptr, sizeof(_Ty) * _Count);

  000e2	83 e1 fe	 and	 ecx, -2			; fffffffeH

; 284  :         if (_Bytes >= _Big_allocation_threshold) {

  000e5	81 f9 00 10 00
	00		 cmp	 ecx, 4096		; 00001000H
  000eb	72 12		 jb	 SHORT $LN77@Emplace_re

; 205  :     const uintptr_t _Ptr_container   = _Ptr_user[-1];

  000ed	8b 50 fc	 mov	 edx, DWORD PTR [eax-4]
  000f0	83 c1 23	 add	 ecx, 35			; 00000023H

; 206  : 
; 207  :     // If the following asserts, it likely means that we are performing
; 208  :     // an aligned delete on memory coming from an unaligned allocation.
; 209  :     _STL_ASSERT(_Ptr_user[-2] == _Big_allocation_sentinel, "invalid argument");
; 210  : 
; 211  :     // Extra paranoia on aligned allocation/deallocation; ensure _Ptr_container is
; 212  :     // in range [_Min_back_shift, _Non_user_size]
; 213  : #ifdef _DEBUG
; 214  :     constexpr uintptr_t _Min_back_shift = 2 * sizeof(void*);
; 215  : #else // ^^^ defined(_DEBUG) / !defined(_DEBUG) vvv
; 216  :     constexpr uintptr_t _Min_back_shift = sizeof(void*);
; 217  : #endif // ^^^ !defined(_DEBUG) ^^^
; 218  :     const uintptr_t _Back_shift = reinterpret_cast<uintptr_t>(_Ptr) - _Ptr_container;

  000f3	2b c2		 sub	 eax, edx

; 219  :     _STL_VERIFY(_Back_shift >= _Min_back_shift && _Back_shift <= _Non_user_size, "invalid argument");

  000f5	83 c0 fc	 add	 eax, -4			; fffffffcH
  000f8	83 f8 1f	 cmp	 eax, 31			; 0000001fH
  000fb	77 2a		 ja	 SHORT $LN76@Emplace_re

; 220  :     _Ptr = reinterpret_cast<void*>(_Ptr_container);

  000fd	8b c2		 mov	 eax, edx
$LN77@Emplace_re:

; 289  :         ::operator delete(_Ptr, _Bytes);

  000ff	51		 push	 ecx
  00100	50		 push	 eax
  00101	e8 00 00 00 00	 call	 ??3@YAXPAXI@Z		; operator delete
  00106	83 c4 08	 add	 esp, 8
$LN72@Emplace_re:
; File C:\Program Files\Microsoft Visual Studio\2022\Professional\VC\Tools\MSVC\14.44.35207\include\vector

; 2076 :         _Mylast  = _Newvec + _Newsize;

  00109	8b 45 f4	 mov	 eax, DWORD PTR __Newsize$1$[ebp]
  0010c	89 3e		 mov	 DWORD PTR [esi], edi
  0010e	8d 0c 47	 lea	 ecx, DWORD PTR [edi+eax*2]

; 916  :         _Change_array(_Newvec, _Newsize, _Newcapacity);
; 917  :         return _Newvec + _Whereoff;

  00111	8b c3		 mov	 eax, ebx

; 2076 :         _Mylast  = _Newvec + _Newsize;

  00113	89 4e 04	 mov	 DWORD PTR [esi+4], ecx

; 2077 :         _Myend   = _Newvec + _Newcapacity;

  00116	8b 4d f8	 mov	 ecx, DWORD PTR tv652[ebp]
  00119	03 cf		 add	 ecx, edi

; 918  :     }

  0011b	5f		 pop	 edi

; 2077 :         _Myend   = _Newvec + _Newcapacity;

  0011c	89 4e 08	 mov	 DWORD PTR [esi+8], ecx

; 918  :     }

  0011f	5e		 pop	 esi
  00120	5b		 pop	 ebx
  00121	8b e5		 mov	 esp, ebp
  00123	5d		 pop	 ebp
  00124	c2 08 00	 ret	 8
$LN76@Emplace_re:
; File C:\Program Files\Microsoft Visual Studio\2022\Professional\VC\Tools\MSVC\14.44.35207\include\xmemory

; 219  :     _STL_VERIFY(_Back_shift >= _Min_back_shift && _Back_shift <= _Non_user_size, "invalid argument");

  00127	6a 00		 push	 0
  00129	6a 00		 push	 0
  0012b	6a 00		 push	 0
  0012d	6a 00		 push	 0
  0012f	6a 00		 push	 0
  00131	e8 00 00 00 00	 call	 __invoke_watson
$LN111@Emplace_re:
; File C:\Program Files\Microsoft Visual Studio\2022\Professional\VC\Tools\MSVC\14.44.35207\include\vector

; 888  :             _Xlength();

  00136	e8 00 00 00 00	 call	 ?_Xlength@?$vector@GV?$allocator@G@std@@@std@@CAXXZ ; std::vector<unsigned short,std::allocator<unsigned short> >::_Xlength
$LN112@Emplace_re:
; File C:\Program Files\Microsoft Visual Studio\2022\Professional\VC\Tools\MSVC\14.44.35207\include\xmemory

; 118  :             _Throw_bad_array_new_length(); // multiply overflow

  0013b	e8 00 00 00 00	 call	 ?_Throw_bad_array_new_length@std@@YAXXZ ; std::_Throw_bad_array_new_length
$LN108@Emplace_re:
  00140	cc		 int	 3
??$_Emplace_reallocate@ABG@?$vector@GV?$allocator@G@std@@@std@@AAEPAGQAGABG@Z ENDP ; std::vector<unsigned short,std::allocator<unsigned short> >::_Emplace_reallocate<unsigned short const &>
_TEXT	ENDS
; Function compile flags: /Ogtp
; File C:\Program Files\Microsoft Visual Studio\2022\Professional\VC\Tools\MSVC\14.44.35207\include\vector
; File C:\Program Files\Microsoft Visual Studio\2022\Professional\VC\Tools\MSVC\14.44.35207\include\xmemory
; File C:\Program Files\Microsoft Visual Studio\2022\Professional\VC\Tools\MSVC\14.44.35207\include\vector
; File C:\Program Files\Microsoft Visual Studio\2022\Professional\VC\Tools\MSVC\14.44.35207\include\xmemory
; File C:\Program Files\Microsoft Visual Studio\2022\Professional\VC\Tools\MSVC\14.44.35207\include\vector
; File C:\Program Files\Microsoft Visual Studio\2022\Professional\VC\Tools\MSVC\14.44.35207\include\xmemory
; File C:\Program Files\Microsoft Visual Studio\2022\Professional\VC\Tools\MSVC\14.44.35207\include\vector
; File C:\Program Files\Microsoft Visual Studio\2022\Professional\VC\Tools\MSVC\14.44.35207\include\xmemory
; File C:\Program Files\Microsoft Visual Studio\2022\Professional\VC\Tools\MSVC\14.44.35207\include\vector
; File C:\Program Files\Microsoft Visual Studio\2022\Professional\VC\Tools\MSVC\14.44.35207\include\xmemory
; File C:\Program Files\Microsoft Visual Studio\2022\Professional\VC\Tools\MSVC\14.44.35207\include\vector
; File C:\Program Files\Microsoft Visual Studio\2022\Professional\VC\Tools\MSVC\14.44.35207\include\xmemory
; File C:\Program Files\Microsoft Visual Studio\2022\Professional\VC\Tools\MSVC\14.44.35207\include\vector
; File C:\Program Files\Microsoft Visual Studio\2022\Professional\VC\Tools\MSVC\14.44.35207\include\xmemory
; File C:\Program Files\Microsoft Visual Studio\2022\Professional\VC\Tools\MSVC\14.44.35207\include\vector
; File C:\Program Files\Microsoft Visual Studio\2022\Professional\VC\Tools\MSVC\14.44.35207\include\xmemory
; File C:\Program Files\Microsoft Visual Studio\2022\Professional\VC\Tools\MSVC\14.44.35207\include\vector
; File C:\Program Files\Microsoft Visual Studio\2022\Professional\VC\Tools\MSVC\14.44.35207\include\xmemory
; File C:\Program Files\Microsoft Visual Studio\2022\Professional\VC\Tools\MSVC\14.44.35207\include\vector
;	COMDAT ??$_Emplace_reallocate@ABU_FEEDENERGY@@@?$vector@U_FEEDENERGY@@V?$allocator@U_FEEDENERGY@@@std@@@std@@AAEPAU_FEEDENERGY@@QAU2@ABU2@@Z
_TEXT	SEGMENT
__Oldsize$1$ = -12					; size = 4
__Whereoff$1$ = -8					; size = 4
tv650 = -8						; size = 4
tv652 = -4						; size = 4
__Whereptr$ = 8						; size = 4
_<_Val_0>$ = 12						; size = 4
??$_Emplace_reallocate@ABU_FEEDENERGY@@@?$vector@U_FEEDENERGY@@V?$allocator@U_FEEDENERGY@@@std@@@std@@AAEPAU_FEEDENERGY@@QAU2@ABU2@@Z PROC ; std::vector<_FEEDENERGY,std::allocator<_FEEDENERGY> >::_Emplace_reallocate<_FEEDENERGY const &>, COMDAT
; _this$ = ecx

; 875  :     _CONSTEXPR20 pointer _Emplace_reallocate(const pointer _Whereptr, _Valty&&... _Val) {

  00000	55		 push	 ebp
  00001	8b ec		 mov	 ebp, esp
  00003	83 ec 0c	 sub	 esp, 12			; 0000000cH

; 876  :         // reallocate and insert by perfectly forwarding _Val at _Whereptr
; 877  :         _Alty& _Al        = _Getal();
; 878  :         auto& _My_data    = _Mypair._Myval2;
; 879  :         pointer& _Myfirst = _My_data._Myfirst;
; 880  :         pointer& _Mylast  = _My_data._Mylast;
; 881  : 
; 882  :         _STL_INTERNAL_CHECK(_Mylast == _My_data._Myend); // check that we have no unused capacity
; 883  : 
; 884  :         const auto _Whereoff = static_cast<size_type>(_Whereptr - _Myfirst);

  00006	8b 55 08	 mov	 edx, DWORD PTR __Whereptr$[ebp]
  00009	b8 ab aa aa 2a	 mov	 eax, 715827883		; 2aaaaaabH
  0000e	53		 push	 ebx
  0000f	8b d9		 mov	 ebx, ecx
  00011	57		 push	 edi
  00012	8b 3b		 mov	 edi, DWORD PTR [ebx]
  00014	2b d7		 sub	 edx, edi

; 885  :         const auto _Oldsize  = static_cast<size_type>(_Mylast - _Myfirst);

  00016	8b 4b 04	 mov	 ecx, DWORD PTR [ebx+4]
  00019	f7 ea		 imul	 edx
  0001b	2b cf		 sub	 ecx, edi
  0001d	d1 fa		 sar	 edx, 1
  0001f	8b c2		 mov	 eax, edx
  00021	c1 e8 1f	 shr	 eax, 31			; 0000001fH
  00024	03 c2		 add	 eax, edx
  00026	89 45 f8	 mov	 DWORD PTR __Whereoff$1$[ebp], eax
  00029	b8 ab aa aa 2a	 mov	 eax, 715827883		; 2aaaaaabH
  0002e	f7 e9		 imul	 ecx
  00030	d1 fa		 sar	 edx, 1
  00032	8b c2		 mov	 eax, edx
  00034	c1 e8 1f	 shr	 eax, 31			; 0000001fH
  00037	03 c2		 add	 eax, edx
  00039	89 45 f4	 mov	 DWORD PTR __Oldsize$1$[ebp], eax

; 886  : 
; 887  :         if (_Oldsize == max_size()) {

  0003c	3d 55 55 55 15	 cmp	 eax, 357913941		; 15555555H
  00041	0f 84 42 01 00
	00		 je	 $LN119@Emplace_re

; 1924 :         return static_cast<size_type>(_My_data._Myend - _My_data._Myfirst);

  00047	8b 4b 08	 mov	 ecx, DWORD PTR [ebx+8]
  0004a	2b cf		 sub	 ecx, edi
  0004c	56		 push	 esi

; 889  :         }
; 890  : 
; 891  :         const size_type _Newsize = _Oldsize + 1;

  0004d	8d 70 01	 lea	 esi, DWORD PTR [eax+1]

; 1924 :         return static_cast<size_type>(_My_data._Myend - _My_data._Myfirst);

  00050	b8 ab aa aa 2a	 mov	 eax, 715827883		; 2aaaaaabH
  00055	f7 e9		 imul	 ecx

; 2011 :         if (_Oldcapacity > _Max - _Oldcapacity / 2) {

  00057	b8 55 55 55 15	 mov	 eax, 357913941		; 15555555H

; 1924 :         return static_cast<size_type>(_My_data._Myend - _My_data._Myfirst);

  0005c	d1 fa		 sar	 edx, 1
  0005e	8b ca		 mov	 ecx, edx
  00060	c1 e9 1f	 shr	 ecx, 31			; 0000001fH
  00063	03 ca		 add	 ecx, edx

; 2011 :         if (_Oldcapacity > _Max - _Oldcapacity / 2) {

  00065	8b d1		 mov	 edx, ecx
  00067	d1 ea		 shr	 edx, 1
  00069	2b c2		 sub	 eax, edx
  0006b	3b c8		 cmp	 ecx, eax
  0006d	76 14		 jbe	 SHORT $LN8@Emplace_re

; 2012 :             return _Max; // geometric growth would overflow

  0006f	b8 fc ff ff ff	 mov	 eax, -4			; fffffffcH
  00074	c7 45 fc fc ff
	ff ff		 mov	 DWORD PTR tv652[ebp], -4 ; fffffffcH
; File C:\Program Files\Microsoft Visual Studio\2022\Professional\VC\Tools\MSVC\14.44.35207\include\xmemory

; 253  :             return _Allocate_manually_vector_aligned<_Traits>(_Bytes);

  0007b	50		 push	 eax
  0007c	e8 00 00 00 00	 call	 ??$_Allocate_manually_vector_aligned@U_Default_allocate_traits@std@@@std@@YAPAXI@Z ; std::_Allocate_manually_vector_aligned<std::_Default_allocate_traits>
  00081	eb 3e		 jmp	 SHORT $LN117@Emplace_re
$LN8@Emplace_re:
; File C:\Program Files\Microsoft Visual Studio\2022\Professional\VC\Tools\MSVC\14.44.35207\include\vector

; 2015 :         const size_type _Geometric = _Oldcapacity + _Oldcapacity / 2;

  00083	8d 04 0a	 lea	 eax, DWORD PTR [edx+ecx]
; File C:\Program Files\Microsoft Visual Studio\2022\Professional\VC\Tools\MSVC\14.44.35207\include\xmemory

; 117  :         if (_Count > _Max_possible) {

  00086	8b ce		 mov	 ecx, esi
  00088	3b c6		 cmp	 eax, esi
  0008a	0f 43 c8	 cmovae	 ecx, eax
  0008d	81 f9 55 55 55
	15		 cmp	 ecx, 357913941		; 15555555H
  00093	0f 87 f5 00 00
	00		 ja	 $LN120@Emplace_re

; 119  :         }
; 120  :     }
; 121  : 
; 122  :     return _Count * _Ty_size;

  00099	8d 34 49	 lea	 esi, DWORD PTR [ecx+ecx*2]
  0009c	c1 e6 02	 shl	 esi, 2

; 990  :         return static_cast<_Ty*>(_STD _Allocate<_New_alignof<_Ty>>(_Get_size_of_n<sizeof(_Ty)>(_Count)));

  0009f	8b c6		 mov	 eax, esi

; 122  :     return _Count * _Ty_size;

  000a1	89 75 fc	 mov	 DWORD PTR tv652[ebp], esi

; 227  :     if (_Bytes == 0) {

  000a4	85 c0		 test	 eax, eax
  000a6	75 04		 jne	 SHORT $LN23@Emplace_re

; 228  :         return nullptr;

  000a8	33 ff		 xor	 edi, edi
  000aa	eb 1a		 jmp	 SHORT $LN22@Emplace_re
$LN23@Emplace_re:

; 229  :     }
; 230  : 
; 231  : #if _HAS_CXX20 // TRANSITION, GH-1532
; 232  :     if (_STD is_constant_evaluated()) {
; 233  :         return _Traits::_Allocate(_Bytes);
; 234  :     }
; 235  : #endif // _HAS_CXX20
; 236  : 
; 237  : #ifdef __cpp_aligned_new
; 238  :     if constexpr (_Align > __STDCPP_DEFAULT_NEW_ALIGNMENT__) {
; 239  :         size_t _Passed_align = _Align;
; 240  : #if defined(_M_IX86) || defined(_M_X64)
; 241  :         if (_Bytes >= _Big_allocation_threshold) {
; 242  :             // boost the alignment of big allocations to help autovectorization
; 243  :             _Passed_align = (_STD max)(_Align, _Big_allocation_alignment);
; 244  :         }
; 245  : #endif // defined(_M_IX86) || defined(_M_X64)
; 246  :         return _Traits::_Allocate_aligned(_Bytes, _Passed_align);
; 247  :     } else
; 248  : #endif // defined(__cpp_aligned_new)
; 249  :     {
; 250  : #if defined(_M_IX86) || defined(_M_X64)
; 251  :         if (_Bytes >= _Big_allocation_threshold) {

  000ac	3d 00 10 00 00	 cmp	 eax, 4096		; 00001000H
  000b1	72 08		 jb	 SHORT $LN24@Emplace_re

; 253  :             return _Allocate_manually_vector_aligned<_Traits>(_Bytes);

  000b3	50		 push	 eax
  000b4	e8 00 00 00 00	 call	 ??$_Allocate_manually_vector_aligned@U_Default_allocate_traits@std@@@std@@YAPAXI@Z ; std::_Allocate_manually_vector_aligned<std::_Default_allocate_traits>
  000b9	eb 06		 jmp	 SHORT $LN117@Emplace_re
$LN24@Emplace_re:

; 136  :         return ::operator new(_Bytes);

  000bb	50		 push	 eax
  000bc	e8 00 00 00 00	 call	 ??2@YAPAXI@Z		; operator new
$LN117@Emplace_re:
; File C:\Program Files\Microsoft Visual Studio\2022\Professional\VC\Tools\MSVC\14.44.35207\include\vector

; 900  :         _Alty_traits::construct(_Al, _STD _Unfancy(_Newvec + _Whereoff), _STD forward<_Valty>(_Val)...);

  000c1	8b f8		 mov	 edi, eax
  000c3	83 c4 04	 add	 esp, 4
$LN22@Emplace_re:
  000c6	8b 45 f8	 mov	 eax, DWORD PTR __Whereoff$1$[ebp]

; 903  :         if (_Whereptr == _Mylast) { // at back, provide strong guarantee

  000c9	8b 55 08	 mov	 edx, DWORD PTR __Whereptr$[ebp]
  000cc	8d 04 40	 lea	 eax, DWORD PTR [eax+eax*2]
  000cf	8d 34 87	 lea	 esi, DWORD PTR [edi+eax*4]
; File C:\Program Files\Microsoft Visual Studio\2022\Professional\VC\Tools\MSVC\14.44.35207\include\xmemory

; 732  :         ::new (const_cast<void*>(static_cast<const volatile void*>(_Ptr))) _Objty(_STD forward<_Types>(_Args)...);

  000d2	8b 45 0c	 mov	 eax, DWORD PTR _<_Val_0>$[ebp]
; File C:\Program Files\Microsoft Visual Studio\2022\Professional\VC\Tools\MSVC\14.44.35207\include\vector

; 900  :         _Alty_traits::construct(_Al, _STD _Unfancy(_Newvec + _Whereoff), _STD forward<_Valty>(_Val)...);

  000d5	89 75 f8	 mov	 DWORD PTR tv650[ebp], esi
; File C:\Program Files\Microsoft Visual Studio\2022\Professional\VC\Tools\MSVC\14.44.35207\include\xmemory

; 732  :         ::new (const_cast<void*>(static_cast<const volatile void*>(_Ptr))) _Objty(_STD forward<_Types>(_Args)...);

  000d8	f3 0f 7e 00	 movq	 xmm0, QWORD PTR [eax]
  000dc	66 0f d6 06	 movq	 QWORD PTR [esi], xmm0
  000e0	8b 40 08	 mov	 eax, DWORD PTR [eax+8]
  000e3	89 46 08	 mov	 DWORD PTR [esi+8], eax
; File C:\Program Files\Microsoft Visual Studio\2022\Professional\VC\Tools\MSVC\14.44.35207\include\vector

; 903  :         if (_Whereptr == _Mylast) { // at back, provide strong guarantee

  000e6	8b 4b 04	 mov	 ecx, DWORD PTR [ebx+4]
  000e9	8b 03		 mov	 eax, DWORD PTR [ebx]
  000eb	3b d1		 cmp	 edx, ecx
  000ed	75 04		 jne	 SHORT $LN3@Emplace_re
; File C:\Program Files\Microsoft Visual Studio\2022\Professional\VC\Tools\MSVC\14.44.35207\include\xmemory

; 1992 :             _STD _Copy_memmove(_UFirst, _ULast, _STD _Unfancy(_Dest));

  000ef	8b f7		 mov	 esi, edi
; File C:\Program Files\Microsoft Visual Studio\2022\Professional\VC\Tools\MSVC\14.44.35207\include\vector

; 909  :         } else { // provide basic guarantee

  000f1	eb 14		 jmp	 SHORT $LN58@Emplace_re
$LN3@Emplace_re:
; File C:\Program Files\Microsoft Visual Studio\2022\Professional\VC\Tools\MSVC\14.44.35207\include\xmemory

; 1992 :             _STD _Copy_memmove(_UFirst, _ULast, _STD _Unfancy(_Dest));

  000f3	57		 push	 edi
  000f4	52		 push	 edx
  000f5	50		 push	 eax
  000f6	e8 00 00 00 00	 call	 ??$_Copy_memmove@PAU_FEEDENERGY@@PAU1@@std@@YAPAU_FEEDENERGY@@PAU1@00@Z ; std::_Copy_memmove<_FEEDENERGY *,_FEEDENERGY *>
  000fb	8b 45 08	 mov	 eax, DWORD PTR __Whereptr$[ebp]
  000fe	83 c4 0c	 add	 esp, 12			; 0000000cH
  00101	8b 4b 04	 mov	 ecx, DWORD PTR [ebx+4]
; File C:\Program Files\Microsoft Visual Studio\2022\Professional\VC\Tools\MSVC\14.44.35207\include\vector

; 912  :             _STD _Uninitialized_move(_Whereptr, _Mylast, _Newvec + _Whereoff + 1, _Al);

  00104	83 c6 0c	 add	 esi, 12			; 0000000cH
$LN58@Emplace_re:

; 913  :         }
; 914  : 
; 915  :         _Guard._New_begin = nullptr;

  00107	56		 push	 esi
  00108	51		 push	 ecx
  00109	50		 push	 eax
  0010a	e8 00 00 00 00	 call	 ??$_Copy_memmove@PAU_FEEDENERGY@@PAU1@@std@@YAPAU_FEEDENERGY@@PAU1@00@Z ; std::_Copy_memmove<_FEEDENERGY *,_FEEDENERGY *>

; 2069 :         if (_Myfirst) { // destroy and deallocate old array

  0010f	8b 33		 mov	 esi, DWORD PTR [ebx]

; 913  :         }
; 914  : 
; 915  :         _Guard._New_begin = nullptr;

  00111	83 c4 0c	 add	 esp, 12			; 0000000cH

; 2069 :         if (_Myfirst) { // destroy and deallocate old array

  00114	85 f6		 test	 esi, esi
  00116	74 3f		 je	 SHORT $LN80@Emplace_re

; 2070 :             _STD _Destroy_range(_Myfirst, _Mylast, _Al);
; 2071 :             _ASAN_VECTOR_REMOVE;
; 2072 :             _Al.deallocate(_Myfirst, static_cast<size_type>(_Myend - _Myfirst));

  00118	8b 4b 08	 mov	 ecx, DWORD PTR [ebx+8]
  0011b	b8 ab aa aa 2a	 mov	 eax, 715827883		; 2aaaaaabH
  00120	2b ce		 sub	 ecx, esi
  00122	f7 e9		 imul	 ecx
  00124	d1 fa		 sar	 edx, 1
  00126	8b c2		 mov	 eax, edx
  00128	c1 e8 1f	 shr	 eax, 31			; 0000001fH
  0012b	03 c2		 add	 eax, edx
; File C:\Program Files\Microsoft Visual Studio\2022\Professional\VC\Tools\MSVC\14.44.35207\include\xmemory

; 985  :         _STD _Deallocate<_New_alignof<_Ty>>(_Ptr, sizeof(_Ty) * _Count);

  0012d	8d 0c 40	 lea	 ecx, DWORD PTR [eax+eax*2]
  00130	c1 e1 02	 shl	 ecx, 2

; 284  :         if (_Bytes >= _Big_allocation_threshold) {

  00133	81 f9 00 10 00
	00		 cmp	 ecx, 4096		; 00001000H
  00139	72 12		 jb	 SHORT $LN85@Emplace_re

; 205  :     const uintptr_t _Ptr_container   = _Ptr_user[-1];

  0013b	8b 56 fc	 mov	 edx, DWORD PTR [esi-4]
  0013e	83 c1 23	 add	 ecx, 35			; 00000023H

; 206  : 
; 207  :     // If the following asserts, it likely means that we are performing
; 208  :     // an aligned delete on memory coming from an unaligned allocation.
; 209  :     _STL_ASSERT(_Ptr_user[-2] == _Big_allocation_sentinel, "invalid argument");
; 210  : 
; 211  :     // Extra paranoia on aligned allocation/deallocation; ensure _Ptr_container is
; 212  :     // in range [_Min_back_shift, _Non_user_size]
; 213  : #ifdef _DEBUG
; 214  :     constexpr uintptr_t _Min_back_shift = 2 * sizeof(void*);
; 215  : #else // ^^^ defined(_DEBUG) / !defined(_DEBUG) vvv
; 216  :     constexpr uintptr_t _Min_back_shift = sizeof(void*);
; 217  : #endif // ^^^ !defined(_DEBUG) ^^^
; 218  :     const uintptr_t _Back_shift = reinterpret_cast<uintptr_t>(_Ptr) - _Ptr_container;

  00141	2b f2		 sub	 esi, edx

; 219  :     _STL_VERIFY(_Back_shift >= _Min_back_shift && _Back_shift <= _Non_user_size, "invalid argument");

  00143	8d 46 fc	 lea	 eax, DWORD PTR [esi-4]
  00146	83 f8 1f	 cmp	 eax, 31			; 0000001fH
  00149	77 2f		 ja	 SHORT $LN84@Emplace_re

; 220  :     _Ptr = reinterpret_cast<void*>(_Ptr_container);

  0014b	8b f2		 mov	 esi, edx
$LN85@Emplace_re:

; 289  :         ::operator delete(_Ptr, _Bytes);

  0014d	51		 push	 ecx
  0014e	56		 push	 esi
  0014f	e8 00 00 00 00	 call	 ??3@YAXPAXI@Z		; operator delete
  00154	83 c4 08	 add	 esp, 8
$LN80@Emplace_re:
; File C:\Program Files\Microsoft Visual Studio\2022\Professional\VC\Tools\MSVC\14.44.35207\include\vector

; 2076 :         _Mylast  = _Newvec + _Newsize;

  00157	8b 45 f4	 mov	 eax, DWORD PTR __Oldsize$1$[ebp]
  0015a	40		 inc	 eax
  0015b	89 3b		 mov	 DWORD PTR [ebx], edi

; 916  :         _Change_array(_Newvec, _Newsize, _Newcapacity);
; 917  :         return _Newvec + _Whereoff;

  0015d	5e		 pop	 esi

; 2076 :         _Mylast  = _Newvec + _Newsize;

  0015e	8d 0c 40	 lea	 ecx, DWORD PTR [eax+eax*2]

; 916  :         _Change_array(_Newvec, _Newsize, _Newcapacity);
; 917  :         return _Newvec + _Whereoff;

  00161	8b 45 f8	 mov	 eax, DWORD PTR tv650[ebp]

; 2076 :         _Mylast  = _Newvec + _Newsize;

  00164	8d 0c 8f	 lea	 ecx, DWORD PTR [edi+ecx*4]
  00167	89 4b 04	 mov	 DWORD PTR [ebx+4], ecx

; 2077 :         _Myend   = _Newvec + _Newcapacity;

  0016a	8b 4d fc	 mov	 ecx, DWORD PTR tv652[ebp]
  0016d	03 cf		 add	 ecx, edi

; 918  :     }

  0016f	5f		 pop	 edi

; 2077 :         _Myend   = _Newvec + _Newcapacity;

  00170	89 4b 08	 mov	 DWORD PTR [ebx+8], ecx

; 918  :     }

  00173	5b		 pop	 ebx
  00174	8b e5		 mov	 esp, ebp
  00176	5d		 pop	 ebp
  00177	c2 08 00	 ret	 8
$LN84@Emplace_re:
; File C:\Program Files\Microsoft Visual Studio\2022\Professional\VC\Tools\MSVC\14.44.35207\include\xmemory

; 219  :     _STL_VERIFY(_Back_shift >= _Min_back_shift && _Back_shift <= _Non_user_size, "invalid argument");

  0017a	6a 00		 push	 0
  0017c	6a 00		 push	 0
  0017e	6a 00		 push	 0
  00180	6a 00		 push	 0
  00182	6a 00		 push	 0
  00184	e8 00 00 00 00	 call	 __invoke_watson
$LN119@Emplace_re:
; File C:\Program Files\Microsoft Visual Studio\2022\Professional\VC\Tools\MSVC\14.44.35207\include\vector

; 888  :             _Xlength();

  00189	e8 00 00 00 00	 call	 ?_Xlength@?$vector@U_FEEDENERGY@@V?$allocator@U_FEEDENERGY@@@std@@@std@@CAXXZ ; std::vector<_FEEDENERGY,std::allocator<_FEEDENERGY> >::_Xlength
$LN120@Emplace_re:
; File C:\Program Files\Microsoft Visual Studio\2022\Professional\VC\Tools\MSVC\14.44.35207\include\xmemory

; 118  :             _Throw_bad_array_new_length(); // multiply overflow

  0018e	e8 00 00 00 00	 call	 ?_Throw_bad_array_new_length@std@@YAXXZ ; std::_Throw_bad_array_new_length
$LN116@Emplace_re:
  00193	cc		 int	 3
??$_Emplace_reallocate@ABU_FEEDENERGY@@@?$vector@U_FEEDENERGY@@V?$allocator@U_FEEDENERGY@@@std@@@std@@AAEPAU_FEEDENERGY@@QAU2@ABU2@@Z ENDP ; std::vector<_FEEDENERGY,std::allocator<_FEEDENERGY> >::_Emplace_reallocate<_FEEDENERGY const &>
_TEXT	ENDS
; Function compile flags: /Ogtp
; File C:\Program Files\Microsoft Visual Studio\2022\Professional\VC\Tools\MSVC\14.44.35207\include\vector
; File C:\Program Files\Microsoft Visual Studio\2022\Professional\VC\Tools\MSVC\14.44.35207\include\xmemory
; File C:\Program Files\Microsoft Visual Studio\2022\Professional\VC\Tools\MSVC\14.44.35207\include\vector
; File C:\Program Files\Microsoft Visual Studio\2022\Professional\VC\Tools\MSVC\14.44.35207\include\xmemory
; File C:\Program Files\Microsoft Visual Studio\2022\Professional\VC\Tools\MSVC\14.44.35207\include\vector
; File C:\Program Files\Microsoft Visual Studio\2022\Professional\VC\Tools\MSVC\14.44.35207\include\xmemory
; File C:\Program Files\Microsoft Visual Studio\2022\Professional\VC\Tools\MSVC\14.44.35207\include\vector
; File C:\Program Files\Microsoft Visual Studio\2022\Professional\VC\Tools\MSVC\14.44.35207\include\xmemory
; File C:\Program Files\Microsoft Visual Studio\2022\Professional\VC\Tools\MSVC\14.44.35207\include\vector
; File C:\Program Files\Microsoft Visual Studio\2022\Professional\VC\Tools\MSVC\14.44.35207\include\xmemory
; File C:\Program Files\Microsoft Visual Studio\2022\Professional\VC\Tools\MSVC\14.44.35207\include\vector
; File C:\Program Files\Microsoft Visual Studio\2022\Professional\VC\Tools\MSVC\14.44.35207\include\xmemory
; File C:\Program Files\Microsoft Visual Studio\2022\Professional\VC\Tools\MSVC\14.44.35207\include\vector
; File C:\Program Files\Microsoft Visual Studio\2022\Professional\VC\Tools\MSVC\14.44.35207\include\xmemory
; File C:\Program Files\Microsoft Visual Studio\2022\Professional\VC\Tools\MSVC\14.44.35207\include\vector
; File C:\Program Files\Microsoft Visual Studio\2022\Professional\VC\Tools\MSVC\14.44.35207\include\xmemory
; File C:\Program Files\Microsoft Visual Studio\2022\Professional\VC\Tools\MSVC\14.44.35207\include\vector
;	COMDAT ??$_Emplace_reallocate@ABU_TransformStuffComponent@@@?$vector@U_TransformStuffComponent@@V?$allocator@U_TransformStuffComponent@@@std@@@std@@AAEPAU_TransformStuffComponent@@QAU2@ABU2@@Z
_TEXT	SEGMENT
__Newsize$1$ = -8					; size = 4
tv650 = -4						; size = 4
__Whereptr$ = 8						; size = 4
_<_Val_0>$ = 12						; size = 4
??$_Emplace_reallocate@ABU_TransformStuffComponent@@@?$vector@U_TransformStuffComponent@@V?$allocator@U_TransformStuffComponent@@@std@@@std@@AAEPAU_TransformStuffComponent@@QAU2@ABU2@@Z PROC ; std::vector<_TransformStuffComponent,std::allocator<_TransformStuffComponent> >::_Emplace_reallocate<_TransformStuffComponent const &>, COMDAT
; _this$ = ecx

; 875  :     _CONSTEXPR20 pointer _Emplace_reallocate(const pointer _Whereptr, _Valty&&... _Val) {

  00000	55		 push	 ebp
  00001	8b ec		 mov	 ebp, esp
  00003	83 ec 08	 sub	 esp, 8
  00006	53		 push	 ebx

; 876  :         // reallocate and insert by perfectly forwarding _Val at _Whereptr
; 877  :         _Alty& _Al        = _Getal();
; 878  :         auto& _My_data    = _Mypair._Myval2;
; 879  :         pointer& _Myfirst = _My_data._Myfirst;
; 880  :         pointer& _Mylast  = _My_data._Mylast;
; 881  : 
; 882  :         _STL_INTERNAL_CHECK(_Mylast == _My_data._Myend); // check that we have no unused capacity
; 883  : 
; 884  :         const auto _Whereoff = static_cast<size_type>(_Whereptr - _Myfirst);

  00007	8b 5d 08	 mov	 ebx, DWORD PTR __Whereptr$[ebp]
  0000a	56		 push	 esi
  0000b	8b f1		 mov	 esi, ecx
  0000d	57		 push	 edi
  0000e	8b 0e		 mov	 ecx, DWORD PTR [esi]
  00010	2b d9		 sub	 ebx, ecx

; 885  :         const auto _Oldsize  = static_cast<size_type>(_Mylast - _Myfirst);

  00012	8b 46 04	 mov	 eax, DWORD PTR [esi+4]
  00015	2b c1		 sub	 eax, ecx
  00017	c1 fb 03	 sar	 ebx, 3
  0001a	c1 f8 03	 sar	 eax, 3

; 886  : 
; 887  :         if (_Oldsize == max_size()) {

  0001d	3d ff ff ff 1f	 cmp	 eax, 536870911		; 1fffffffH
  00022	0f 84 11 01 00
	00		 je	 $LN111@Emplace_re

; 1924 :         return static_cast<size_type>(_My_data._Myend - _My_data._Myfirst);

  00028	8b 56 08	 mov	 edx, DWORD PTR [esi+8]

; 889  :         }
; 890  : 
; 891  :         const size_type _Newsize = _Oldsize + 1;

  0002b	8d 78 01	 lea	 edi, DWORD PTR [eax+1]

; 1924 :         return static_cast<size_type>(_My_data._Myend - _My_data._Myfirst);

  0002e	2b d1		 sub	 edx, ecx

; 889  :         }
; 890  : 
; 891  :         const size_type _Newsize = _Oldsize + 1;

  00030	89 7d f8	 mov	 DWORD PTR __Newsize$1$[ebp], edi

; 1924 :         return static_cast<size_type>(_My_data._Myend - _My_data._Myfirst);

  00033	c1 fa 03	 sar	 edx, 3

; 2011 :         if (_Oldcapacity > _Max - _Oldcapacity / 2) {

  00036	b8 ff ff ff 1f	 mov	 eax, 536870911		; 1fffffffH
  0003b	8b ca		 mov	 ecx, edx
  0003d	d1 e9		 shr	 ecx, 1
  0003f	2b c1		 sub	 eax, ecx
  00041	3b d0		 cmp	 edx, eax
  00043	76 14		 jbe	 SHORT $LN8@Emplace_re

; 2012 :             return _Max; // geometric growth would overflow

  00045	b8 f8 ff ff ff	 mov	 eax, -8			; fffffff8H
  0004a	c7 45 fc f8 ff
	ff ff		 mov	 DWORD PTR tv650[ebp], -8 ; fffffff8H
; File C:\Program Files\Microsoft Visual Studio\2022\Professional\VC\Tools\MSVC\14.44.35207\include\xmemory

; 253  :             return _Allocate_manually_vector_aligned<_Traits>(_Bytes);

  00051	50		 push	 eax
  00052	e8 00 00 00 00	 call	 ??$_Allocate_manually_vector_aligned@U_Default_allocate_traits@std@@@std@@YAPAXI@Z ; std::_Allocate_manually_vector_aligned<std::_Default_allocate_traits>
  00057	eb 3d		 jmp	 SHORT $LN109@Emplace_re
$LN8@Emplace_re:
; File C:\Program Files\Microsoft Visual Studio\2022\Professional\VC\Tools\MSVC\14.44.35207\include\vector

; 2015 :         const size_type _Geometric = _Oldcapacity + _Oldcapacity / 2;

  00059	8d 04 11	 lea	 eax, DWORD PTR [ecx+edx]
; File C:\Program Files\Microsoft Visual Studio\2022\Professional\VC\Tools\MSVC\14.44.35207\include\xmemory

; 117  :         if (_Count > _Max_possible) {

  0005c	8b cf		 mov	 ecx, edi
  0005e	3b c7		 cmp	 eax, edi
  00060	0f 43 c8	 cmovae	 ecx, eax
  00063	81 f9 ff ff ff
	1f		 cmp	 ecx, 536870911		; 1fffffffH
  00069	0f 87 cf 00 00
	00		 ja	 $LN112@Emplace_re

; 119  :         }
; 120  :     }
; 121  : 
; 122  :     return _Count * _Ty_size;

  0006f	8d 04 cd 00 00
	00 00		 lea	 eax, DWORD PTR [ecx*8]
  00076	89 45 fc	 mov	 DWORD PTR tv650[ebp], eax

; 227  :     if (_Bytes == 0) {

  00079	85 c0		 test	 eax, eax
  0007b	75 04		 jne	 SHORT $LN23@Emplace_re

; 228  :         return nullptr;

  0007d	33 ff		 xor	 edi, edi
  0007f	eb 1a		 jmp	 SHORT $LN22@Emplace_re
$LN23@Emplace_re:

; 229  :     }
; 230  : 
; 231  : #if _HAS_CXX20 // TRANSITION, GH-1532
; 232  :     if (_STD is_constant_evaluated()) {
; 233  :         return _Traits::_Allocate(_Bytes);
; 234  :     }
; 235  : #endif // _HAS_CXX20
; 236  : 
; 237  : #ifdef __cpp_aligned_new
; 238  :     if constexpr (_Align > __STDCPP_DEFAULT_NEW_ALIGNMENT__) {
; 239  :         size_t _Passed_align = _Align;
; 240  : #if defined(_M_IX86) || defined(_M_X64)
; 241  :         if (_Bytes >= _Big_allocation_threshold) {
; 242  :             // boost the alignment of big allocations to help autovectorization
; 243  :             _Passed_align = (_STD max)(_Align, _Big_allocation_alignment);
; 244  :         }
; 245  : #endif // defined(_M_IX86) || defined(_M_X64)
; 246  :         return _Traits::_Allocate_aligned(_Bytes, _Passed_align);
; 247  :     } else
; 248  : #endif // defined(__cpp_aligned_new)
; 249  :     {
; 250  : #if defined(_M_IX86) || defined(_M_X64)
; 251  :         if (_Bytes >= _Big_allocation_threshold) {

  00081	3d 00 10 00 00	 cmp	 eax, 4096		; 00001000H
  00086	72 08		 jb	 SHORT $LN24@Emplace_re

; 253  :             return _Allocate_manually_vector_aligned<_Traits>(_Bytes);

  00088	50		 push	 eax
  00089	e8 00 00 00 00	 call	 ??$_Allocate_manually_vector_aligned@U_Default_allocate_traits@std@@@std@@YAPAXI@Z ; std::_Allocate_manually_vector_aligned<std::_Default_allocate_traits>
  0008e	eb 06		 jmp	 SHORT $LN109@Emplace_re
$LN24@Emplace_re:

; 136  :         return ::operator new(_Bytes);

  00090	50		 push	 eax
  00091	e8 00 00 00 00	 call	 ??2@YAPAXI@Z		; operator new
$LN109@Emplace_re:
; File C:\Program Files\Microsoft Visual Studio\2022\Professional\VC\Tools\MSVC\14.44.35207\include\vector

; 900  :         _Alty_traits::construct(_Al, _STD _Unfancy(_Newvec + _Whereoff), _STD forward<_Valty>(_Val)...);

  00096	8b f8		 mov	 edi, eax
  00098	83 c4 04	 add	 esp, 4
$LN22@Emplace_re:
  0009b	8b 45 0c	 mov	 eax, DWORD PTR _<_Val_0>$[ebp]
  0009e	8d 1c df	 lea	 ebx, DWORD PTR [edi+ebx*8]
  000a1	8b 08		 mov	 ecx, DWORD PTR [eax]
  000a3	8b 40 04	 mov	 eax, DWORD PTR [eax+4]
  000a6	89 43 04	 mov	 DWORD PTR [ebx+4], eax

; 901  :         _Constructed_first = _Newvec + _Whereoff;
; 902  : 
; 903  :         if (_Whereptr == _Mylast) { // at back, provide strong guarantee

  000a9	8b 45 08	 mov	 eax, DWORD PTR __Whereptr$[ebp]
  000ac	89 0b		 mov	 DWORD PTR [ebx], ecx
  000ae	8b 56 04	 mov	 edx, DWORD PTR [esi+4]
  000b1	8b 0e		 mov	 ecx, DWORD PTR [esi]
  000b3	3b c2		 cmp	 eax, edx
  000b5	75 04		 jne	 SHORT $LN3@Emplace_re
; File C:\Program Files\Microsoft Visual Studio\2022\Professional\VC\Tools\MSVC\14.44.35207\include\xmemory

; 1992 :             _STD _Copy_memmove(_UFirst, _ULast, _STD _Unfancy(_Dest));

  000b7	8b c7		 mov	 eax, edi
; File C:\Program Files\Microsoft Visual Studio\2022\Professional\VC\Tools\MSVC\14.44.35207\include\vector

; 909  :         } else { // provide basic guarantee

  000b9	eb 14		 jmp	 SHORT $LN52@Emplace_re
$LN3@Emplace_re:
; File C:\Program Files\Microsoft Visual Studio\2022\Professional\VC\Tools\MSVC\14.44.35207\include\xmemory

; 1992 :             _STD _Copy_memmove(_UFirst, _ULast, _STD _Unfancy(_Dest));

  000bb	57		 push	 edi
  000bc	50		 push	 eax
  000bd	51		 push	 ecx
  000be	e8 00 00 00 00	 call	 ??$_Copy_memmove@PAU_TransformStuffComponent@@PAU1@@std@@YAPAU_TransformStuffComponent@@PAU1@00@Z ; std::_Copy_memmove<_TransformStuffComponent *,_TransformStuffComponent *>
  000c3	8b 4d 08	 mov	 ecx, DWORD PTR __Whereptr$[ebp]
; File C:\Program Files\Microsoft Visual Studio\2022\Professional\VC\Tools\MSVC\14.44.35207\include\vector

; 912  :             _STD _Uninitialized_move(_Whereptr, _Mylast, _Newvec + _Whereoff + 1, _Al);

  000c6	8d 43 08	 lea	 eax, DWORD PTR [ebx+8]
; File C:\Program Files\Microsoft Visual Studio\2022\Professional\VC\Tools\MSVC\14.44.35207\include\xmemory

; 1992 :             _STD _Copy_memmove(_UFirst, _ULast, _STD _Unfancy(_Dest));

  000c9	8b 56 04	 mov	 edx, DWORD PTR [esi+4]
  000cc	83 c4 0c	 add	 esp, 12			; 0000000cH
$LN52@Emplace_re:
; File C:\Program Files\Microsoft Visual Studio\2022\Professional\VC\Tools\MSVC\14.44.35207\include\vector

; 915  :         _Guard._New_begin = nullptr;

  000cf	50		 push	 eax
  000d0	52		 push	 edx
  000d1	51		 push	 ecx
  000d2	e8 00 00 00 00	 call	 ??$_Copy_memmove@PAU_TransformStuffComponent@@PAU1@@std@@YAPAU_TransformStuffComponent@@PAU1@00@Z ; std::_Copy_memmove<_TransformStuffComponent *,_TransformStuffComponent *>

; 2069 :         if (_Myfirst) { // destroy and deallocate old array

  000d7	8b 06		 mov	 eax, DWORD PTR [esi]

; 915  :         _Guard._New_begin = nullptr;

  000d9	83 c4 0c	 add	 esp, 12			; 0000000cH

; 2069 :         if (_Myfirst) { // destroy and deallocate old array

  000dc	85 c0		 test	 eax, eax
  000de	74 2c		 je	 SHORT $LN72@Emplace_re

; 2070 :             _STD _Destroy_range(_Myfirst, _Mylast, _Al);
; 2071 :             _ASAN_VECTOR_REMOVE;
; 2072 :             _Al.deallocate(_Myfirst, static_cast<size_type>(_Myend - _Myfirst));

  000e0	8b 4e 08	 mov	 ecx, DWORD PTR [esi+8]
  000e3	2b c8		 sub	 ecx, eax
; File C:\Program Files\Microsoft Visual Studio\2022\Professional\VC\Tools\MSVC\14.44.35207\include\xmemory

; 985  :         _STD _Deallocate<_New_alignof<_Ty>>(_Ptr, sizeof(_Ty) * _Count);

  000e5	83 e1 f8	 and	 ecx, -8			; fffffff8H

; 284  :         if (_Bytes >= _Big_allocation_threshold) {

  000e8	81 f9 00 10 00
	00		 cmp	 ecx, 4096		; 00001000H
  000ee	72 12		 jb	 SHORT $LN77@Emplace_re

; 205  :     const uintptr_t _Ptr_container   = _Ptr_user[-1];

  000f0	8b 50 fc	 mov	 edx, DWORD PTR [eax-4]
  000f3	83 c1 23	 add	 ecx, 35			; 00000023H

; 206  : 
; 207  :     // If the following asserts, it likely means that we are performing
; 208  :     // an aligned delete on memory coming from an unaligned allocation.
; 209  :     _STL_ASSERT(_Ptr_user[-2] == _Big_allocation_sentinel, "invalid argument");
; 210  : 
; 211  :     // Extra paranoia on aligned allocation/deallocation; ensure _Ptr_container is
; 212  :     // in range [_Min_back_shift, _Non_user_size]
; 213  : #ifdef _DEBUG
; 214  :     constexpr uintptr_t _Min_back_shift = 2 * sizeof(void*);
; 215  : #else // ^^^ defined(_DEBUG) / !defined(_DEBUG) vvv
; 216  :     constexpr uintptr_t _Min_back_shift = sizeof(void*);
; 217  : #endif // ^^^ !defined(_DEBUG) ^^^
; 218  :     const uintptr_t _Back_shift = reinterpret_cast<uintptr_t>(_Ptr) - _Ptr_container;

  000f6	2b c2		 sub	 eax, edx

; 219  :     _STL_VERIFY(_Back_shift >= _Min_back_shift && _Back_shift <= _Non_user_size, "invalid argument");

  000f8	83 c0 fc	 add	 eax, -4			; fffffffcH
  000fb	83 f8 1f	 cmp	 eax, 31			; 0000001fH
  000fe	77 2a		 ja	 SHORT $LN76@Emplace_re

; 220  :     _Ptr = reinterpret_cast<void*>(_Ptr_container);

  00100	8b c2		 mov	 eax, edx
$LN77@Emplace_re:

; 289  :         ::operator delete(_Ptr, _Bytes);

  00102	51		 push	 ecx
  00103	50		 push	 eax
  00104	e8 00 00 00 00	 call	 ??3@YAXPAXI@Z		; operator delete
  00109	83 c4 08	 add	 esp, 8
$LN72@Emplace_re:
; File C:\Program Files\Microsoft Visual Studio\2022\Professional\VC\Tools\MSVC\14.44.35207\include\vector

; 2076 :         _Mylast  = _Newvec + _Newsize;

  0010c	8b 45 f8	 mov	 eax, DWORD PTR __Newsize$1$[ebp]
  0010f	89 3e		 mov	 DWORD PTR [esi], edi
  00111	8d 0c c7	 lea	 ecx, DWORD PTR [edi+eax*8]

; 916  :         _Change_array(_Newvec, _Newsize, _Newcapacity);
; 917  :         return _Newvec + _Whereoff;

  00114	8b c3		 mov	 eax, ebx

; 2076 :         _Mylast  = _Newvec + _Newsize;

  00116	89 4e 04	 mov	 DWORD PTR [esi+4], ecx

; 2077 :         _Myend   = _Newvec + _Newcapacity;

  00119	8b 4d fc	 mov	 ecx, DWORD PTR tv650[ebp]
  0011c	03 cf		 add	 ecx, edi

; 918  :     }

  0011e	5f		 pop	 edi

; 2077 :         _Myend   = _Newvec + _Newcapacity;

  0011f	89 4e 08	 mov	 DWORD PTR [esi+8], ecx

; 918  :     }

  00122	5e		 pop	 esi
  00123	5b		 pop	 ebx
  00124	8b e5		 mov	 esp, ebp
  00126	5d		 pop	 ebp
  00127	c2 08 00	 ret	 8
$LN76@Emplace_re:
; File C:\Program Files\Microsoft Visual Studio\2022\Professional\VC\Tools\MSVC\14.44.35207\include\xmemory

; 219  :     _STL_VERIFY(_Back_shift >= _Min_back_shift && _Back_shift <= _Non_user_size, "invalid argument");

  0012a	6a 00		 push	 0
  0012c	6a 00		 push	 0
  0012e	6a 00		 push	 0
  00130	6a 00		 push	 0
  00132	6a 00		 push	 0
  00134	e8 00 00 00 00	 call	 __invoke_watson
$LN111@Emplace_re:
; File C:\Program Files\Microsoft Visual Studio\2022\Professional\VC\Tools\MSVC\14.44.35207\include\vector

; 888  :             _Xlength();

  00139	e8 00 00 00 00	 call	 ?_Xlength@?$vector@U_TransformStuffComponent@@V?$allocator@U_TransformStuffComponent@@@std@@@std@@CAXXZ ; std::vector<_TransformStuffComponent,std::allocator<_TransformStuffComponent> >::_Xlength
$LN112@Emplace_re:
; File C:\Program Files\Microsoft Visual Studio\2022\Professional\VC\Tools\MSVC\14.44.35207\include\xmemory

; 118  :             _Throw_bad_array_new_length(); // multiply overflow

  0013e	e8 00 00 00 00	 call	 ?_Throw_bad_array_new_length@std@@YAXXZ ; std::_Throw_bad_array_new_length
$LN108@Emplace_re:
  00143	cc		 int	 3
??$_Emplace_reallocate@ABU_TransformStuffComponent@@@?$vector@U_TransformStuffComponent@@V?$allocator@U_TransformStuffComponent@@@std@@@std@@AAEPAU_TransformStuffComponent@@QAU2@ABU2@@Z ENDP ; std::vector<_TransformStuffComponent,std::allocator<_TransformStuffComponent> >::_Emplace_reallocate<_TransformStuffComponent const &>
_TEXT	ENDS
; Function compile flags: /Ogtp
; File C:\Program Files\Microsoft Visual Studio\2022\Professional\VC\Tools\MSVC\14.44.35207\include\vector
; File C:\Program Files\Microsoft Visual Studio\2022\Professional\VC\Tools\MSVC\14.44.35207\include\xmemory
; File C:\Program Files\Microsoft Visual Studio\2022\Professional\VC\Tools\MSVC\14.44.35207\include\vector
; File C:\Program Files\Microsoft Visual Studio\2022\Professional\VC\Tools\MSVC\14.44.35207\include\xmemory
; File C:\Program Files\Microsoft Visual Studio\2022\Professional\VC\Tools\MSVC\14.44.35207\include\vector
; File C:\Program Files\Microsoft Visual Studio\2022\Professional\VC\Tools\MSVC\14.44.35207\include\xmemory
; File C:\Program Files\Microsoft Visual Studio\2022\Professional\VC\Tools\MSVC\14.44.35207\include\vector
; File C:\Program Files\Microsoft Visual Studio\2022\Professional\VC\Tools\MSVC\14.44.35207\include\xmemory
; File C:\Program Files\Microsoft Visual Studio\2022\Professional\VC\Tools\MSVC\14.44.35207\include\vector
; File C:\Program Files\Microsoft Visual Studio\2022\Professional\VC\Tools\MSVC\14.44.35207\include\xmemory
; File C:\Program Files\Microsoft Visual Studio\2022\Professional\VC\Tools\MSVC\14.44.35207\include\vector
; File C:\Program Files\Microsoft Visual Studio\2022\Professional\VC\Tools\MSVC\14.44.35207\include\xmemory
; File C:\Program Files\Microsoft Visual Studio\2022\Professional\VC\Tools\MSVC\14.44.35207\include\vector
; File C:\Program Files\Microsoft Visual Studio\2022\Professional\VC\Tools\MSVC\14.44.35207\include\xmemory
; File C:\Program Files\Microsoft Visual Studio\2022\Professional\VC\Tools\MSVC\14.44.35207\include\vector
; File C:\Program Files\Microsoft Visual Studio\2022\Professional\VC\Tools\MSVC\14.44.35207\include\xmemory
; File C:\Program Files\Microsoft Visual Studio\2022\Professional\VC\Tools\MSVC\14.44.35207\include\vector
;	COMDAT ??$_Emplace_reallocate@ABU_TransformItemElement@@@?$vector@U_TransformItemElement@@V?$allocator@U_TransformItemElement@@@std@@@std@@AAEPAU_TransformItemElement@@QAU2@ABU2@@Z
_TEXT	SEGMENT
__Newsize$1$ = -8					; size = 4
tv650 = -4						; size = 4
__Whereptr$ = 8						; size = 4
_<_Val_0>$ = 12						; size = 4
??$_Emplace_reallocate@ABU_TransformItemElement@@@?$vector@U_TransformItemElement@@V?$allocator@U_TransformItemElement@@@std@@@std@@AAEPAU_TransformItemElement@@QAU2@ABU2@@Z PROC ; std::vector<_TransformItemElement,std::allocator<_TransformItemElement> >::_Emplace_reallocate<_TransformItemElement const &>, COMDAT
; _this$ = ecx

; 875  :     _CONSTEXPR20 pointer _Emplace_reallocate(const pointer _Whereptr, _Valty&&... _Val) {

  00000	55		 push	 ebp
  00001	8b ec		 mov	 ebp, esp
  00003	83 ec 08	 sub	 esp, 8
  00006	53		 push	 ebx

; 876  :         // reallocate and insert by perfectly forwarding _Val at _Whereptr
; 877  :         _Alty& _Al        = _Getal();
; 878  :         auto& _My_data    = _Mypair._Myval2;
; 879  :         pointer& _Myfirst = _My_data._Myfirst;
; 880  :         pointer& _Mylast  = _My_data._Mylast;
; 881  : 
; 882  :         _STL_INTERNAL_CHECK(_Mylast == _My_data._Myend); // check that we have no unused capacity
; 883  : 
; 884  :         const auto _Whereoff = static_cast<size_type>(_Whereptr - _Myfirst);

  00007	8b 5d 08	 mov	 ebx, DWORD PTR __Whereptr$[ebp]
  0000a	56		 push	 esi
  0000b	8b f1		 mov	 esi, ecx
  0000d	57		 push	 edi
  0000e	8b 0e		 mov	 ecx, DWORD PTR [esi]
  00010	2b d9		 sub	 ebx, ecx

; 885  :         const auto _Oldsize  = static_cast<size_type>(_Mylast - _Myfirst);

  00012	8b 46 04	 mov	 eax, DWORD PTR [esi+4]
  00015	2b c1		 sub	 eax, ecx
  00017	c1 fb 03	 sar	 ebx, 3
  0001a	c1 f8 03	 sar	 eax, 3

; 886  : 
; 887  :         if (_Oldsize == max_size()) {

  0001d	3d ff ff ff 1f	 cmp	 eax, 536870911		; 1fffffffH
  00022	0f 84 11 01 00
	00		 je	 $LN111@Emplace_re

; 1924 :         return static_cast<size_type>(_My_data._Myend - _My_data._Myfirst);

  00028	8b 56 08	 mov	 edx, DWORD PTR [esi+8]

; 889  :         }
; 890  : 
; 891  :         const size_type _Newsize = _Oldsize + 1;

  0002b	8d 78 01	 lea	 edi, DWORD PTR [eax+1]

; 1924 :         return static_cast<size_type>(_My_data._Myend - _My_data._Myfirst);

  0002e	2b d1		 sub	 edx, ecx

; 889  :         }
; 890  : 
; 891  :         const size_type _Newsize = _Oldsize + 1;

  00030	89 7d f8	 mov	 DWORD PTR __Newsize$1$[ebp], edi

; 1924 :         return static_cast<size_type>(_My_data._Myend - _My_data._Myfirst);

  00033	c1 fa 03	 sar	 edx, 3

; 2011 :         if (_Oldcapacity > _Max - _Oldcapacity / 2) {

  00036	b8 ff ff ff 1f	 mov	 eax, 536870911		; 1fffffffH
  0003b	8b ca		 mov	 ecx, edx
  0003d	d1 e9		 shr	 ecx, 1
  0003f	2b c1		 sub	 eax, ecx
  00041	3b d0		 cmp	 edx, eax
  00043	76 14		 jbe	 SHORT $LN8@Emplace_re

; 2012 :             return _Max; // geometric growth would overflow

  00045	b8 f8 ff ff ff	 mov	 eax, -8			; fffffff8H
  0004a	c7 45 fc f8 ff
	ff ff		 mov	 DWORD PTR tv650[ebp], -8 ; fffffff8H
; File C:\Program Files\Microsoft Visual Studio\2022\Professional\VC\Tools\MSVC\14.44.35207\include\xmemory

; 253  :             return _Allocate_manually_vector_aligned<_Traits>(_Bytes);

  00051	50		 push	 eax
  00052	e8 00 00 00 00	 call	 ??$_Allocate_manually_vector_aligned@U_Default_allocate_traits@std@@@std@@YAPAXI@Z ; std::_Allocate_manually_vector_aligned<std::_Default_allocate_traits>
  00057	eb 3d		 jmp	 SHORT $LN109@Emplace_re
$LN8@Emplace_re:
; File C:\Program Files\Microsoft Visual Studio\2022\Professional\VC\Tools\MSVC\14.44.35207\include\vector

; 2015 :         const size_type _Geometric = _Oldcapacity + _Oldcapacity / 2;

  00059	8d 04 11	 lea	 eax, DWORD PTR [ecx+edx]
; File C:\Program Files\Microsoft Visual Studio\2022\Professional\VC\Tools\MSVC\14.44.35207\include\xmemory

; 117  :         if (_Count > _Max_possible) {

  0005c	8b cf		 mov	 ecx, edi
  0005e	3b c7		 cmp	 eax, edi
  00060	0f 43 c8	 cmovae	 ecx, eax
  00063	81 f9 ff ff ff
	1f		 cmp	 ecx, 536870911		; 1fffffffH
  00069	0f 87 cf 00 00
	00		 ja	 $LN112@Emplace_re

; 119  :         }
; 120  :     }
; 121  : 
; 122  :     return _Count * _Ty_size;

  0006f	8d 04 cd 00 00
	00 00		 lea	 eax, DWORD PTR [ecx*8]
  00076	89 45 fc	 mov	 DWORD PTR tv650[ebp], eax

; 227  :     if (_Bytes == 0) {

  00079	85 c0		 test	 eax, eax
  0007b	75 04		 jne	 SHORT $LN23@Emplace_re

; 228  :         return nullptr;

  0007d	33 ff		 xor	 edi, edi
  0007f	eb 1a		 jmp	 SHORT $LN22@Emplace_re
$LN23@Emplace_re:

; 229  :     }
; 230  : 
; 231  : #if _HAS_CXX20 // TRANSITION, GH-1532
; 232  :     if (_STD is_constant_evaluated()) {
; 233  :         return _Traits::_Allocate(_Bytes);
; 234  :     }
; 235  : #endif // _HAS_CXX20
; 236  : 
; 237  : #ifdef __cpp_aligned_new
; 238  :     if constexpr (_Align > __STDCPP_DEFAULT_NEW_ALIGNMENT__) {
; 239  :         size_t _Passed_align = _Align;
; 240  : #if defined(_M_IX86) || defined(_M_X64)
; 241  :         if (_Bytes >= _Big_allocation_threshold) {
; 242  :             // boost the alignment of big allocations to help autovectorization
; 243  :             _Passed_align = (_STD max)(_Align, _Big_allocation_alignment);
; 244  :         }
; 245  : #endif // defined(_M_IX86) || defined(_M_X64)
; 246  :         return _Traits::_Allocate_aligned(_Bytes, _Passed_align);
; 247  :     } else
; 248  : #endif // defined(__cpp_aligned_new)
; 249  :     {
; 250  : #if defined(_M_IX86) || defined(_M_X64)
; 251  :         if (_Bytes >= _Big_allocation_threshold) {

  00081	3d 00 10 00 00	 cmp	 eax, 4096		; 00001000H
  00086	72 08		 jb	 SHORT $LN24@Emplace_re

; 253  :             return _Allocate_manually_vector_aligned<_Traits>(_Bytes);

  00088	50		 push	 eax
  00089	e8 00 00 00 00	 call	 ??$_Allocate_manually_vector_aligned@U_Default_allocate_traits@std@@@std@@YAPAXI@Z ; std::_Allocate_manually_vector_aligned<std::_Default_allocate_traits>
  0008e	eb 06		 jmp	 SHORT $LN109@Emplace_re
$LN24@Emplace_re:

; 136  :         return ::operator new(_Bytes);

  00090	50		 push	 eax
  00091	e8 00 00 00 00	 call	 ??2@YAPAXI@Z		; operator new
$LN109@Emplace_re:
; File C:\Program Files\Microsoft Visual Studio\2022\Professional\VC\Tools\MSVC\14.44.35207\include\vector

; 900  :         _Alty_traits::construct(_Al, _STD _Unfancy(_Newvec + _Whereoff), _STD forward<_Valty>(_Val)...);

  00096	8b f8		 mov	 edi, eax
  00098	83 c4 04	 add	 esp, 4
$LN22@Emplace_re:
  0009b	8b 45 0c	 mov	 eax, DWORD PTR _<_Val_0>$[ebp]
  0009e	8d 1c df	 lea	 ebx, DWORD PTR [edi+ebx*8]
  000a1	8b 08		 mov	 ecx, DWORD PTR [eax]
  000a3	8b 40 04	 mov	 eax, DWORD PTR [eax+4]
  000a6	89 43 04	 mov	 DWORD PTR [ebx+4], eax

; 901  :         _Constructed_first = _Newvec + _Whereoff;
; 902  : 
; 903  :         if (_Whereptr == _Mylast) { // at back, provide strong guarantee

  000a9	8b 45 08	 mov	 eax, DWORD PTR __Whereptr$[ebp]
  000ac	89 0b		 mov	 DWORD PTR [ebx], ecx
  000ae	8b 56 04	 mov	 edx, DWORD PTR [esi+4]
  000b1	8b 0e		 mov	 ecx, DWORD PTR [esi]
  000b3	3b c2		 cmp	 eax, edx
  000b5	75 04		 jne	 SHORT $LN3@Emplace_re
; File C:\Program Files\Microsoft Visual Studio\2022\Professional\VC\Tools\MSVC\14.44.35207\include\xmemory

; 1992 :             _STD _Copy_memmove(_UFirst, _ULast, _STD _Unfancy(_Dest));

  000b7	8b c7		 mov	 eax, edi
; File C:\Program Files\Microsoft Visual Studio\2022\Professional\VC\Tools\MSVC\14.44.35207\include\vector

; 909  :         } else { // provide basic guarantee

  000b9	eb 14		 jmp	 SHORT $LN52@Emplace_re
$LN3@Emplace_re:
; File C:\Program Files\Microsoft Visual Studio\2022\Professional\VC\Tools\MSVC\14.44.35207\include\xmemory

; 1992 :             _STD _Copy_memmove(_UFirst, _ULast, _STD _Unfancy(_Dest));

  000bb	57		 push	 edi
  000bc	50		 push	 eax
  000bd	51		 push	 ecx
  000be	e8 00 00 00 00	 call	 ??$_Copy_memmove@PAU_TransformItemElement@@PAU1@@std@@YAPAU_TransformItemElement@@PAU1@00@Z ; std::_Copy_memmove<_TransformItemElement *,_TransformItemElement *>
  000c3	8b 4d 08	 mov	 ecx, DWORD PTR __Whereptr$[ebp]
; File C:\Program Files\Microsoft Visual Studio\2022\Professional\VC\Tools\MSVC\14.44.35207\include\vector

; 912  :             _STD _Uninitialized_move(_Whereptr, _Mylast, _Newvec + _Whereoff + 1, _Al);

  000c6	8d 43 08	 lea	 eax, DWORD PTR [ebx+8]
; File C:\Program Files\Microsoft Visual Studio\2022\Professional\VC\Tools\MSVC\14.44.35207\include\xmemory

; 1992 :             _STD _Copy_memmove(_UFirst, _ULast, _STD _Unfancy(_Dest));

  000c9	8b 56 04	 mov	 edx, DWORD PTR [esi+4]
  000cc	83 c4 0c	 add	 esp, 12			; 0000000cH
$LN52@Emplace_re:
; File C:\Program Files\Microsoft Visual Studio\2022\Professional\VC\Tools\MSVC\14.44.35207\include\vector

; 915  :         _Guard._New_begin = nullptr;

  000cf	50		 push	 eax
  000d0	52		 push	 edx
  000d1	51		 push	 ecx
  000d2	e8 00 00 00 00	 call	 ??$_Copy_memmove@PAU_TransformItemElement@@PAU1@@std@@YAPAU_TransformItemElement@@PAU1@00@Z ; std::_Copy_memmove<_TransformItemElement *,_TransformItemElement *>

; 2069 :         if (_Myfirst) { // destroy and deallocate old array

  000d7	8b 06		 mov	 eax, DWORD PTR [esi]

; 915  :         _Guard._New_begin = nullptr;

  000d9	83 c4 0c	 add	 esp, 12			; 0000000cH

; 2069 :         if (_Myfirst) { // destroy and deallocate old array

  000dc	85 c0		 test	 eax, eax
  000de	74 2c		 je	 SHORT $LN72@Emplace_re

; 2070 :             _STD _Destroy_range(_Myfirst, _Mylast, _Al);
; 2071 :             _ASAN_VECTOR_REMOVE;
; 2072 :             _Al.deallocate(_Myfirst, static_cast<size_type>(_Myend - _Myfirst));

  000e0	8b 4e 08	 mov	 ecx, DWORD PTR [esi+8]
  000e3	2b c8		 sub	 ecx, eax
; File C:\Program Files\Microsoft Visual Studio\2022\Professional\VC\Tools\MSVC\14.44.35207\include\xmemory

; 985  :         _STD _Deallocate<_New_alignof<_Ty>>(_Ptr, sizeof(_Ty) * _Count);

  000e5	83 e1 f8	 and	 ecx, -8			; fffffff8H

; 284  :         if (_Bytes >= _Big_allocation_threshold) {

  000e8	81 f9 00 10 00
	00		 cmp	 ecx, 4096		; 00001000H
  000ee	72 12		 jb	 SHORT $LN77@Emplace_re

; 205  :     const uintptr_t _Ptr_container   = _Ptr_user[-1];

  000f0	8b 50 fc	 mov	 edx, DWORD PTR [eax-4]
  000f3	83 c1 23	 add	 ecx, 35			; 00000023H

; 206  : 
; 207  :     // If the following asserts, it likely means that we are performing
; 208  :     // an aligned delete on memory coming from an unaligned allocation.
; 209  :     _STL_ASSERT(_Ptr_user[-2] == _Big_allocation_sentinel, "invalid argument");
; 210  : 
; 211  :     // Extra paranoia on aligned allocation/deallocation; ensure _Ptr_container is
; 212  :     // in range [_Min_back_shift, _Non_user_size]
; 213  : #ifdef _DEBUG
; 214  :     constexpr uintptr_t _Min_back_shift = 2 * sizeof(void*);
; 215  : #else // ^^^ defined(_DEBUG) / !defined(_DEBUG) vvv
; 216  :     constexpr uintptr_t _Min_back_shift = sizeof(void*);
; 217  : #endif // ^^^ !defined(_DEBUG) ^^^
; 218  :     const uintptr_t _Back_shift = reinterpret_cast<uintptr_t>(_Ptr) - _Ptr_container;

  000f6	2b c2		 sub	 eax, edx

; 219  :     _STL_VERIFY(_Back_shift >= _Min_back_shift && _Back_shift <= _Non_user_size, "invalid argument");

  000f8	83 c0 fc	 add	 eax, -4			; fffffffcH
  000fb	83 f8 1f	 cmp	 eax, 31			; 0000001fH
  000fe	77 2a		 ja	 SHORT $LN76@Emplace_re

; 220  :     _Ptr = reinterpret_cast<void*>(_Ptr_container);

  00100	8b c2		 mov	 eax, edx
$LN77@Emplace_re:

; 289  :         ::operator delete(_Ptr, _Bytes);

  00102	51		 push	 ecx
  00103	50		 push	 eax
  00104	e8 00 00 00 00	 call	 ??3@YAXPAXI@Z		; operator delete
  00109	83 c4 08	 add	 esp, 8
$LN72@Emplace_re:
; File C:\Program Files\Microsoft Visual Studio\2022\Professional\VC\Tools\MSVC\14.44.35207\include\vector

; 2076 :         _Mylast  = _Newvec + _Newsize;

  0010c	8b 45 f8	 mov	 eax, DWORD PTR __Newsize$1$[ebp]
  0010f	89 3e		 mov	 DWORD PTR [esi], edi
  00111	8d 0c c7	 lea	 ecx, DWORD PTR [edi+eax*8]

; 916  :         _Change_array(_Newvec, _Newsize, _Newcapacity);
; 917  :         return _Newvec + _Whereoff;

  00114	8b c3		 mov	 eax, ebx

; 2076 :         _Mylast  = _Newvec + _Newsize;

  00116	89 4e 04	 mov	 DWORD PTR [esi+4], ecx

; 2077 :         _Myend   = _Newvec + _Newcapacity;

  00119	8b 4d fc	 mov	 ecx, DWORD PTR tv650[ebp]
  0011c	03 cf		 add	 ecx, edi

; 918  :     }

  0011e	5f		 pop	 edi

; 2077 :         _Myend   = _Newvec + _Newcapacity;

  0011f	89 4e 08	 mov	 DWORD PTR [esi+8], ecx

; 918  :     }

  00122	5e		 pop	 esi
  00123	5b		 pop	 ebx
  00124	8b e5		 mov	 esp, ebp
  00126	5d		 pop	 ebp
  00127	c2 08 00	 ret	 8
$LN76@Emplace_re:
; File C:\Program Files\Microsoft Visual Studio\2022\Professional\VC\Tools\MSVC\14.44.35207\include\xmemory

; 219  :     _STL_VERIFY(_Back_shift >= _Min_back_shift && _Back_shift <= _Non_user_size, "invalid argument");

  0012a	6a 00		 push	 0
  0012c	6a 00		 push	 0
  0012e	6a 00		 push	 0
  00130	6a 00		 push	 0
  00132	6a 00		 push	 0
  00134	e8 00 00 00 00	 call	 __invoke_watson
$LN111@Emplace_re:
; File C:\Program Files\Microsoft Visual Studio\2022\Professional\VC\Tools\MSVC\14.44.35207\include\vector

; 888  :             _Xlength();

  00139	e8 00 00 00 00	 call	 ?_Xlength@?$vector@U_TransformItemElement@@V?$allocator@U_TransformItemElement@@@std@@@std@@CAXXZ ; std::vector<_TransformItemElement,std::allocator<_TransformItemElement> >::_Xlength
$LN112@Emplace_re:
; File C:\Program Files\Microsoft Visual Studio\2022\Professional\VC\Tools\MSVC\14.44.35207\include\xmemory

; 118  :             _Throw_bad_array_new_length(); // multiply overflow

  0013e	e8 00 00 00 00	 call	 ?_Throw_bad_array_new_length@std@@YAXXZ ; std::_Throw_bad_array_new_length
$LN108@Emplace_re:
  00143	cc		 int	 3
??$_Emplace_reallocate@ABU_TransformItemElement@@@?$vector@U_TransformItemElement@@V?$allocator@U_TransformItemElement@@@std@@@std@@AAEPAU_TransformItemElement@@QAU2@ABU2@@Z ENDP ; std::vector<_TransformItemElement,std::allocator<_TransformItemElement> >::_Emplace_reallocate<_TransformItemElement const &>
_TEXT	ENDS
; Function compile flags: /Ogtp
; File C:\Program Files\Microsoft Visual Studio\2022\Professional\VC\Tools\MSVC\14.44.35207\include\xtree
; File C:\Program Files\Microsoft Visual Studio\2022\Professional\VC\Tools\MSVC\14.44.35207\include\utility
; File C:\Program Files\Microsoft Visual Studio\2022\Professional\VC\Tools\MSVC\14.44.35207\include\xmemory
; File C:\Program Files\Microsoft Visual Studio\2022\Professional\VC\Tools\MSVC\14.44.35207\include\xtree
;	COMDAT ??$_Erase_tree@V?$allocator@U?$_Tree_node@HPAX@std@@@std@@@?$_Tree_val@U?$_Tree_simple_types@H@std@@@std@@QAEXAAV?$allocator@U?$_Tree_node@HPAX@std@@@1@PAU?$_Tree_node@HPAX@1@@Z
_TEXT	SEGMENT
__Al$ = 8						; size = 4
__Rootnode$ = 12					; size = 4
??$_Erase_tree@V?$allocator@U?$_Tree_node@HPAX@std@@@std@@@?$_Tree_val@U?$_Tree_simple_types@H@std@@@std@@QAEXAAV?$allocator@U?$_Tree_node@HPAX@std@@@1@PAU?$_Tree_node@HPAX@1@@Z PROC ; std::_Tree_val<std::_Tree_simple_types<int> >::_Erase_tree<std::allocator<std::_Tree_node<int,void *> > >, COMDAT
; _this$ = ecx

; 767  :     void _Erase_tree(_Alnode& _Al, _Nodeptr _Rootnode) noexcept {

  00000	55		 push	 ebp
  00001	8b ec		 mov	 ebp, esp
  00003	53		 push	 ebx
  00004	56		 push	 esi

; 768  :         while (!_Rootnode->_Isnil) { // free subtrees, then node

  00005	8b 75 0c	 mov	 esi, DWORD PTR __Rootnode$[ebp]
  00008	8b d9		 mov	 ebx, ecx
  0000a	80 7e 0d 00	 cmp	 BYTE PTR [esi+13], 0
  0000e	75 25		 jne	 SHORT $LN34@Erase_tree
  00010	57		 push	 edi
  00011	8b 7d 08	 mov	 edi, DWORD PTR __Al$[ebp]
$LL2@Erase_tree:

; 769  :             _Erase_tree(_Al, _Rootnode->_Right);

  00014	ff 76 08	 push	 DWORD PTR [esi+8]
  00017	8b cb		 mov	 ecx, ebx
  00019	57		 push	 edi
  0001a	e8 00 00 00 00	 call	 ??$_Erase_tree@V?$allocator@U?$_Tree_node@HPAX@std@@@std@@@?$_Tree_val@U?$_Tree_simple_types@H@std@@@std@@QAEXAAV?$allocator@U?$_Tree_node@HPAX@std@@@1@PAU?$_Tree_node@HPAX@1@@Z ; std::_Tree_val<std::_Tree_simple_types<int> >::_Erase_tree<std::allocator<std::_Tree_node<int,void *> > >
; File C:\Program Files\Microsoft Visual Studio\2022\Professional\VC\Tools\MSVC\14.44.35207\include\utility

; 773  :     _Ty _Old_val = static_cast<_Ty&&>(_Val);

  0001f	8b c6		 mov	 eax, esi

; 774  :     _Val         = static_cast<_Other&&>(_New_val);

  00021	8b 36		 mov	 esi, DWORD PTR [esi]
; File C:\Program Files\Microsoft Visual Studio\2022\Professional\VC\Tools\MSVC\14.44.35207\include\xmemory

; 289  :         ::operator delete(_Ptr, _Bytes);

  00023	6a 14		 push	 20			; 00000014H
  00025	50		 push	 eax
  00026	e8 00 00 00 00	 call	 ??3@YAXPAXI@Z		; operator delete
  0002b	83 c4 08	 add	 esp, 8
; File C:\Program Files\Microsoft Visual Studio\2022\Professional\VC\Tools\MSVC\14.44.35207\include\xtree

; 768  :         while (!_Rootnode->_Isnil) { // free subtrees, then node

  0002e	80 7e 0d 00	 cmp	 BYTE PTR [esi+13], 0
  00032	74 e0		 je	 SHORT $LL2@Erase_tree
  00034	5f		 pop	 edi
$LN34@Erase_tree:
  00035	5e		 pop	 esi

; 770  :             _Alnode::value_type::_Freenode(_Al, _STD exchange(_Rootnode, _Rootnode->_Left));
; 771  :         }
; 772  :     }

  00036	5b		 pop	 ebx
  00037	5d		 pop	 ebp
  00038	c2 08 00	 ret	 8
??$_Erase_tree@V?$allocator@U?$_Tree_node@HPAX@std@@@std@@@?$_Tree_val@U?$_Tree_simple_types@H@std@@@std@@QAEXAAV?$allocator@U?$_Tree_node@HPAX@std@@@1@PAU?$_Tree_node@HPAX@1@@Z ENDP ; std::_Tree_val<std::_Tree_simple_types<int> >::_Erase_tree<std::allocator<std::_Tree_node<int,void *> > >
_TEXT	ENDS
; Function compile flags: /Ogtp
; File C:\Program Files\Microsoft Visual Studio\2022\Professional\VC\Tools\MSVC\14.44.35207\include\xmemory
;	COMDAT ??1?$_Alloc_construct_ptr@V?$allocator@U?$_Tree_node@U?$pair@$$CBHPAVCTransformItemComponent@@@std@@PAX@std@@@std@@@std@@QAE@XZ
_TEXT	SEGMENT
??1?$_Alloc_construct_ptr@V?$allocator@U?$_Tree_node@U?$pair@$$CBHPAVCTransformItemComponent@@@std@@PAX@std@@@std@@@std@@QAE@XZ PROC ; std::_Alloc_construct_ptr<std::allocator<std::_Tree_node<std::pair<int const ,CTransformItemComponent *>,void *> > >::~_Alloc_construct_ptr<std::allocator<std::_Tree_node<std::pair<int const ,CTransformItemComponent *>,void *> > >, COMDAT
; _this$ = ecx

; 1172 :         if (_Ptr) {

  00000	8b 41 04	 mov	 eax, DWORD PTR [ecx+4]
  00003	85 c0		 test	 eax, eax
  00005	74 0b		 je	 SHORT $LN10@Alloc_cons

; 289  :         ::operator delete(_Ptr, _Bytes);

  00007	6a 18		 push	 24			; 00000018H
  00009	50		 push	 eax
  0000a	e8 00 00 00 00	 call	 ??3@YAXPAXI@Z		; operator delete
  0000f	83 c4 08	 add	 esp, 8
$LN10@Alloc_cons:

; 1173 :             _Al.deallocate(_Ptr, 1);
; 1174 :         }
; 1175 :     }

  00012	c3		 ret	 0
??1?$_Alloc_construct_ptr@V?$allocator@U?$_Tree_node@U?$pair@$$CBHPAVCTransformItemComponent@@@std@@PAX@std@@@std@@@std@@QAE@XZ ENDP ; std::_Alloc_construct_ptr<std::allocator<std::_Tree_node<std::pair<int const ,CTransformItemComponent *>,void *> > >::~_Alloc_construct_ptr<std::allocator<std::_Tree_node<std::pair<int const ,CTransformItemComponent *>,void *> > >
_TEXT	ENDS
; Function compile flags: /Ogtp
; File C:\Program Files\Microsoft Visual Studio\2022\Professional\VC\Tools\MSVC\14.44.35207\include\xtree
; File C:\Program Files\Microsoft Visual Studio\2022\Professional\VC\Tools\MSVC\14.44.35207\include\type_traits
; File C:\Program Files\Microsoft Visual Studio\2022\Professional\VC\Tools\MSVC\14.44.35207\include\xtree
; File C:\Program Files\Microsoft Visual Studio\2022\Professional\VC\Tools\MSVC\14.44.35207\include\type_traits
; File C:\Program Files\Microsoft Visual Studio\2022\Professional\VC\Tools\MSVC\14.44.35207\include\xtree
;	COMDAT ??$_Find_lower_bound@H@?$_Tree@V?$_Tmap_traits@HPAVCTransformItemComponent@@U?$less@H@std@@V?$allocator@U?$pair@$$CBHPAVCTransformItemComponent@@@std@@@3@$0A@@std@@@std@@IBE?AU?$_Tree_find_result@PAU?$_Tree_node@U?$pair@$$CBHPAVCTransformItemComponent@@@std@@PAX@std@@@1@ABH@Z
_TEXT	SEGMENT
___$ReturnUdt$ = 8					; size = 4
__Keyval$ = 12						; size = 4
??$_Find_lower_bound@H@?$_Tree@V?$_Tmap_traits@HPAVCTransformItemComponent@@U?$less@H@std@@V?$allocator@U?$pair@$$CBHPAVCTransformItemComponent@@@std@@@3@$0A@@std@@@std@@IBE?AU?$_Tree_find_result@PAU?$_Tree_node@U?$pair@$$CBHPAVCTransformItemComponent@@@std@@PAX@std@@@1@ABH@Z PROC ; std::_Tree<std::_Tmap_traits<int,CTransformItemComponent *,std::less<int>,std::allocator<std::pair<int const ,CTransformItemComponent *> >,0> >::_Find_lower_bound<int>, COMDAT
; _this$ = ecx

; 1628 :     _Tree_find_result<_Nodeptr> _Find_lower_bound(const _Keyty& _Keyval) const {

  00000	55		 push	 ebp
  00001	8b ec		 mov	 ebp, esp

; 1629 :         const auto _Scary = _Get_scary();
; 1630 :         _Tree_find_result<_Nodeptr> _Result{{_Scary->_Myhead->_Parent, _Tree_child::_Right}, _Scary->_Myhead};

  00003	8b 09		 mov	 ecx, DWORD PTR [ecx]
  00005	8b 55 08	 mov	 edx, DWORD PTR ___$ReturnUdt$[ebp]
  00008	8b 41 04	 mov	 eax, DWORD PTR [ecx+4]
  0000b	89 02		 mov	 DWORD PTR [edx], eax
  0000d	c7 42 04 00 00
	00 00		 mov	 DWORD PTR [edx+4], 0
  00014	89 4a 08	 mov	 DWORD PTR [edx+8], ecx

; 1631 :         _Nodeptr _Trynode = _Result._Location._Parent;
; 1632 :         while (!_Trynode->_Isnil) {

  00017	80 78 0d 00	 cmp	 BYTE PTR [eax+13], 0
  0001b	75 28		 jne	 SHORT $LN13@Find_lower
; File C:\Program Files\Microsoft Visual Studio\2022\Professional\VC\Tools\MSVC\14.44.35207\include\type_traits

; 2380 :         return _Left < _Right;

  0001d	8b 4d 0c	 mov	 ecx, DWORD PTR __Keyval$[ebp]
  00020	56		 push	 esi
  00021	8b 31		 mov	 esi, DWORD PTR [ecx]
$LL2@Find_lower:
; File C:\Program Files\Microsoft Visual Studio\2022\Professional\VC\Tools\MSVC\14.44.35207\include\xtree

; 1633 :             _Result._Location._Parent = _Trynode;

  00023	89 02		 mov	 DWORD PTR [edx], eax
; File C:\Program Files\Microsoft Visual Studio\2022\Professional\VC\Tools\MSVC\14.44.35207\include\type_traits

; 2380 :         return _Left < _Right;

  00025	39 70 10	 cmp	 DWORD PTR [eax+16], esi
; File C:\Program Files\Microsoft Visual Studio\2022\Professional\VC\Tools\MSVC\14.44.35207\include\xtree

; 1634 :             if (_DEBUG_LT_PRED(_Getcomp(), _Traits::_Kfn(_Trynode->_Myval), _Keyval)) {

  00028	7d 07		 jge	 SHORT $LN4@Find_lower

; 1635 :                 _Result._Location._Child = _Tree_child::_Right;
; 1636 :                 _Trynode                 = _Trynode->_Right;

  0002a	8b 40 08	 mov	 eax, DWORD PTR [eax+8]
  0002d	33 c9		 xor	 ecx, ecx

; 1637 :             } else {

  0002f	eb 0a		 jmp	 SHORT $LN5@Find_lower
$LN4@Find_lower:

; 1638 :                 _Result._Location._Child = _Tree_child::_Left;
; 1639 :                 _Result._Bound           = _Trynode;

  00031	89 42 08	 mov	 DWORD PTR [edx+8], eax

; 1640 :                 _Trynode                 = _Trynode->_Left;

  00034	b9 01 00 00 00	 mov	 ecx, 1
  00039	8b 00		 mov	 eax, DWORD PTR [eax]
$LN5@Find_lower:

; 1631 :         _Nodeptr _Trynode = _Result._Location._Parent;
; 1632 :         while (!_Trynode->_Isnil) {

  0003b	89 4a 04	 mov	 DWORD PTR [edx+4], ecx
  0003e	80 78 0d 00	 cmp	 BYTE PTR [eax+13], 0
  00042	74 df		 je	 SHORT $LL2@Find_lower
  00044	5e		 pop	 esi
$LN13@Find_lower:

; 1641 :             }
; 1642 :         }
; 1643 : 
; 1644 :         return _Result;
; 1645 :     }

  00045	8b c2		 mov	 eax, edx
  00047	5d		 pop	 ebp
  00048	c2 08 00	 ret	 8
??$_Find_lower_bound@H@?$_Tree@V?$_Tmap_traits@HPAVCTransformItemComponent@@U?$less@H@std@@V?$allocator@U?$pair@$$CBHPAVCTransformItemComponent@@@std@@@3@$0A@@std@@@std@@IBE?AU?$_Tree_find_result@PAU?$_Tree_node@U?$pair@$$CBHPAVCTransformItemComponent@@@std@@PAX@std@@@1@ABH@Z ENDP ; std::_Tree<std::_Tmap_traits<int,CTransformItemComponent *,std::less<int>,std::allocator<std::pair<int const ,CTransformItemComponent *> >,0> >::_Find_lower_bound<int>
_TEXT	ENDS
; Function compile flags: /Ogtp
; File C:\Program Files\Microsoft Visual Studio\2022\Professional\VC\Tools\MSVC\14.44.35207\include\xmemory
;	COMDAT ??1?$_Alloc_construct_ptr@V?$allocator@U?$_Tree_node@HPAX@std@@@std@@@std@@QAE@XZ
_TEXT	SEGMENT
??1?$_Alloc_construct_ptr@V?$allocator@U?$_Tree_node@HPAX@std@@@std@@@std@@QAE@XZ PROC ; std::_Alloc_construct_ptr<std::allocator<std::_Tree_node<int,void *> > >::~_Alloc_construct_ptr<std::allocator<std::_Tree_node<int,void *> > >, COMDAT
; _this$ = ecx

; 1172 :         if (_Ptr) {

  00000	8b 41 04	 mov	 eax, DWORD PTR [ecx+4]
  00003	85 c0		 test	 eax, eax
  00005	74 0b		 je	 SHORT $LN10@Alloc_cons

; 289  :         ::operator delete(_Ptr, _Bytes);

  00007	6a 14		 push	 20			; 00000014H
  00009	50		 push	 eax
  0000a	e8 00 00 00 00	 call	 ??3@YAXPAXI@Z		; operator delete
  0000f	83 c4 08	 add	 esp, 8
$LN10@Alloc_cons:

; 1173 :             _Al.deallocate(_Ptr, 1);
; 1174 :         }
; 1175 :     }

  00012	c3		 ret	 0
??1?$_Alloc_construct_ptr@V?$allocator@U?$_Tree_node@HPAX@std@@@std@@@std@@QAE@XZ ENDP ; std::_Alloc_construct_ptr<std::allocator<std::_Tree_node<int,void *> > >::~_Alloc_construct_ptr<std::allocator<std::_Tree_node<int,void *> > >
_TEXT	ENDS
; Function compile flags: /Ogtp
; File C:\Program Files\Microsoft Visual Studio\2022\Professional\VC\Tools\MSVC\14.44.35207\include\xtree
; File C:\Program Files\Microsoft Visual Studio\2022\Professional\VC\Tools\MSVC\14.44.35207\include\utility
; File C:\Program Files\Microsoft Visual Studio\2022\Professional\VC\Tools\MSVC\14.44.35207\include\xmemory
; File C:\Program Files\Microsoft Visual Studio\2022\Professional\VC\Tools\MSVC\14.44.35207\include\xtree
;	COMDAT ??$_Erase_tree@V?$allocator@U?$_Tree_node@U?$pair@$$CBHPAVCTransformItemComponent@@@std@@PAX@std@@@std@@@?$_Tree_val@U?$_Tree_simple_types@U?$pair@$$CBHPAVCTransformItemComponent@@@std@@@std@@@std@@QAEXAAV?$allocator@U?$_Tree_node@U?$pair@$$CBHPAVCTransformItemComponent@@@std@@PAX@std@@@1@PAU?$_Tree_node@U?$pair@$$CBHPAVCTransformItemComponent@@@std@@PAX@1@@Z
_TEXT	SEGMENT
__Al$ = 8						; size = 4
__Rootnode$ = 12					; size = 4
??$_Erase_tree@V?$allocator@U?$_Tree_node@U?$pair@$$CBHPAVCTransformItemComponent@@@std@@PAX@std@@@std@@@?$_Tree_val@U?$_Tree_simple_types@U?$pair@$$CBHPAVCTransformItemComponent@@@std@@@std@@@std@@QAEXAAV?$allocator@U?$_Tree_node@U?$pair@$$CBHPAVCTransformItemComponent@@@std@@PAX@std@@@1@PAU?$_Tree_node@U?$pair@$$CBHPAVCTransformItemComponent@@@std@@PAX@1@@Z PROC ; std::_Tree_val<std::_Tree_simple_types<std::pair<int const ,CTransformItemComponent *> > >::_Erase_tree<std::allocator<std::_Tree_node<std::pair<int const ,CTransformItemComponent *>,void *> > >, COMDAT
; _this$ = ecx

; 767  :     void _Erase_tree(_Alnode& _Al, _Nodeptr _Rootnode) noexcept {

  00000	55		 push	 ebp
  00001	8b ec		 mov	 ebp, esp
  00003	53		 push	 ebx
  00004	56		 push	 esi

; 768  :         while (!_Rootnode->_Isnil) { // free subtrees, then node

  00005	8b 75 0c	 mov	 esi, DWORD PTR __Rootnode$[ebp]
  00008	8b d9		 mov	 ebx, ecx
  0000a	80 7e 0d 00	 cmp	 BYTE PTR [esi+13], 0
  0000e	75 25		 jne	 SHORT $LN34@Erase_tree
  00010	57		 push	 edi
  00011	8b 7d 08	 mov	 edi, DWORD PTR __Al$[ebp]
$LL2@Erase_tree:

; 769  :             _Erase_tree(_Al, _Rootnode->_Right);

  00014	ff 76 08	 push	 DWORD PTR [esi+8]
  00017	8b cb		 mov	 ecx, ebx
  00019	57		 push	 edi
  0001a	e8 00 00 00 00	 call	 ??$_Erase_tree@V?$allocator@U?$_Tree_node@U?$pair@$$CBHPAVCTransformItemComponent@@@std@@PAX@std@@@std@@@?$_Tree_val@U?$_Tree_simple_types@U?$pair@$$CBHPAVCTransformItemComponent@@@std@@@std@@@std@@QAEXAAV?$allocator@U?$_Tree_node@U?$pair@$$CBHPAVCTransformItemComponent@@@std@@PAX@std@@@1@PAU?$_Tree_node@U?$pair@$$CBHPAVCTransformItemComponent@@@std@@PAX@1@@Z ; std::_Tree_val<std::_Tree_simple_types<std::pair<int const ,CTransformItemComponent *> > >::_Erase_tree<std::allocator<std::_Tree_node<std::pair<int const ,CTransformItemComponent *>,void *> > >
; File C:\Program Files\Microsoft Visual Studio\2022\Professional\VC\Tools\MSVC\14.44.35207\include\utility

; 773  :     _Ty _Old_val = static_cast<_Ty&&>(_Val);

  0001f	8b c6		 mov	 eax, esi

; 774  :     _Val         = static_cast<_Other&&>(_New_val);

  00021	8b 36		 mov	 esi, DWORD PTR [esi]
; File C:\Program Files\Microsoft Visual Studio\2022\Professional\VC\Tools\MSVC\14.44.35207\include\xmemory

; 289  :         ::operator delete(_Ptr, _Bytes);

  00023	6a 18		 push	 24			; 00000018H
  00025	50		 push	 eax
  00026	e8 00 00 00 00	 call	 ??3@YAXPAXI@Z		; operator delete
  0002b	83 c4 08	 add	 esp, 8
; File C:\Program Files\Microsoft Visual Studio\2022\Professional\VC\Tools\MSVC\14.44.35207\include\xtree

; 768  :         while (!_Rootnode->_Isnil) { // free subtrees, then node

  0002e	80 7e 0d 00	 cmp	 BYTE PTR [esi+13], 0
  00032	74 e0		 je	 SHORT $LL2@Erase_tree
  00034	5f		 pop	 edi
$LN34@Erase_tree:
  00035	5e		 pop	 esi

; 770  :             _Alnode::value_type::_Freenode(_Al, _STD exchange(_Rootnode, _Rootnode->_Left));
; 771  :         }
; 772  :     }

  00036	5b		 pop	 ebx
  00037	5d		 pop	 ebp
  00038	c2 08 00	 ret	 8
??$_Erase_tree@V?$allocator@U?$_Tree_node@U?$pair@$$CBHPAVCTransformItemComponent@@@std@@PAX@std@@@std@@@?$_Tree_val@U?$_Tree_simple_types@U?$pair@$$CBHPAVCTransformItemComponent@@@std@@@std@@@std@@QAEXAAV?$allocator@U?$_Tree_node@U?$pair@$$CBHPAVCTransformItemComponent@@@std@@PAX@std@@@1@PAU?$_Tree_node@U?$pair@$$CBHPAVCTransformItemComponent@@@std@@PAX@1@@Z ENDP ; std::_Tree_val<std::_Tree_simple_types<std::pair<int const ,CTransformItemComponent *> > >::_Erase_tree<std::allocator<std::_Tree_node<std::pair<int const ,CTransformItemComponent *>,void *> > >
_TEXT	ENDS
; Function compile flags: /Ogtp
;	COMDAT ??__FsTransformItemProperty@?1??Instance@CTransformItemProperty@@SAPAV1@XZ@YAXXZ
text$yd	SEGMENT
??__FsTransformItemProperty@?1??Instance@CTransformItemProperty@@SAPAV1@XZ@YAXXZ PROC ; `CTransformItemProperty::Instance'::`2'::`dynamic atexit destructor for 'sTransformItemProperty'', COMDAT
  00000	b9 00 00 00 00	 mov	 ecx, OFFSET ?sTransformItemProperty@?1??Instance@CTransformItemProperty@@SAPAV2@XZ@4V2@A
  00005	e9 00 00 00 00	 jmp	 ??1CTransformItemProperty@@UAE@XZ ; CTransformItemProperty::~CTransformItemProperty
??__FsTransformItemProperty@?1??Instance@CTransformItemProperty@@SAPAV1@XZ@YAXXZ ENDP ; `CTransformItemProperty::Instance'::`2'::`dynamic atexit destructor for 'sTransformItemProperty''
text$yd	ENDS
; Function compile flags: /Ogtp
;	COMDAT ??1?$set@HU?$less@H@std@@V?$allocator@H@2@@std@@QAE@XZ
_TEXT	SEGMENT
??1?$set@HU?$less@H@std@@V?$allocator@H@2@@std@@QAE@XZ PROC ; std::set<int,std::less<int>,std::allocator<int> >::~set<int,std::less<int>,std::allocator<int> >, COMDAT
; _this$ = ecx
  00000	e9 00 00 00 00	 jmp	 ??1?$_Tree@V?$_Tset_traits@HU?$less@H@std@@V?$allocator@H@2@$0A@@std@@@std@@QAE@XZ ; std::_Tree<std::_Tset_traits<int,std::less<int>,std::allocator<int>,0> >::~_Tree<std::_Tset_traits<int,std::less<int>,std::allocator<int>,0> >
??1?$set@HU?$less@H@std@@V?$allocator@H@2@@std@@QAE@XZ ENDP ; std::set<int,std::less<int>,std::allocator<int> >::~set<int,std::less<int>,std::allocator<int> >
_TEXT	ENDS
; Function compile flags: /Ogtp
; File C:\Program Files\Microsoft Visual Studio\2022\Professional\VC\Tools\MSVC\14.44.35207\include\xtree
;	COMDAT ?_Insert_node@?$_Tree_val@U?$_Tree_simple_types@H@std@@@std@@QAEPAU?$_Tree_node@HPAX@2@U?$_Tree_id@PAU?$_Tree_node@HPAX@std@@@2@QAU32@@Z
_TEXT	SEGMENT
__Head$1$ = -4						; size = 4
__Loc$ = 8						; size = 8
__Newnode$ = 16						; size = 4
?_Insert_node@?$_Tree_val@U?$_Tree_simple_types@H@std@@@std@@QAEPAU?$_Tree_node@HPAX@2@U?$_Tree_id@PAU?$_Tree_node@HPAX@std@@@2@QAU32@@Z PROC ; std::_Tree_val<std::_Tree_simple_types<int> >::_Insert_node, COMDAT
; _this$ = ecx

; 669  :     _Nodeptr _Insert_node(const _Tree_id<_Nodeptr> _Loc, const _Nodeptr _Newnode) noexcept {

  00000	55		 push	 ebp
  00001	8b ec		 mov	 ebp, esp
  00003	51		 push	 ecx

; 670  :         ++_Mysize;
; 671  :         const auto _Head  = _Myhead;
; 672  :         _Newnode->_Parent = _Loc._Parent;

  00004	8b 55 08	 mov	 edx, DWORD PTR __Loc$[ebp]
  00007	53		 push	 ebx
  00008	8b d9		 mov	 ebx, ecx
  0000a	57		 push	 edi
  0000b	8b 7d 10	 mov	 edi, DWORD PTR __Newnode$[ebp]
  0000e	8b 03		 mov	 eax, DWORD PTR [ebx]
  00010	ff 43 04	 inc	 DWORD PTR [ebx+4]
  00013	89 45 fc	 mov	 DWORD PTR __Head$1$[ebp], eax
  00016	89 57 04	 mov	 DWORD PTR [edi+4], edx

; 673  :         if (_Loc._Parent == _Head) { // first node in tree, just set head values

  00019	3b d0		 cmp	 edx, eax
  0001b	75 16		 jne	 SHORT $LN5@Insert_nod

; 674  :             _Head->_Left     = _Newnode;

  0001d	89 38		 mov	 DWORD PTR [eax], edi

; 675  :             _Head->_Parent   = _Newnode;

  0001f	89 78 04	 mov	 DWORD PTR [eax+4], edi

; 676  :             _Head->_Right    = _Newnode;

  00022	89 78 08	 mov	 DWORD PTR [eax+8], edi

; 735  :         return _Newnode;
; 736  :     }

  00025	8b c7		 mov	 eax, edi
  00027	c6 47 0c 01	 mov	 BYTE PTR [edi+12], 1
  0002b	5f		 pop	 edi
  0002c	5b		 pop	 ebx
  0002d	8b e5		 mov	 esp, ebp
  0002f	5d		 pop	 ebp
  00030	c2 0c 00	 ret	 12			; 0000000cH
$LN5@Insert_nod:

; 677  :             _Newnode->_Color = _Black; // the root is black
; 678  :             return _Newnode;
; 679  :         }
; 680  : 
; 681  :         _STL_INTERNAL_CHECK(_Loc._Child != _Tree_child::_Unused);
; 682  :         if (_Loc._Child == _Tree_child::_Right) { // add to right of _Loc._Parent

  00033	83 7d 0c 00	 cmp	 DWORD PTR __Loc$[ebp+4], 0
  00037	75 0d		 jne	 SHORT $LN6@Insert_nod

; 683  :             _STL_INTERNAL_CHECK(_Loc._Parent->_Right->_Isnil);
; 684  :             _Loc._Parent->_Right = _Newnode;

  00039	89 7a 08	 mov	 DWORD PTR [edx+8], edi

; 685  :             if (_Loc._Parent == _Head->_Right) { // remember rightmost node

  0003c	3b 50 08	 cmp	 edx, DWORD PTR [eax+8]
  0003f	75 0d		 jne	 SHORT $LN9@Insert_nod

; 686  :                 _Head->_Right = _Newnode;

  00041	89 78 08	 mov	 DWORD PTR [eax+8], edi

; 687  :             }
; 688  :         } else { // add to left of _Loc._Parent

  00044	eb 08		 jmp	 SHORT $LN9@Insert_nod
$LN6@Insert_nod:

; 689  :             _STL_INTERNAL_CHECK(_Loc._Parent->_Left->_Isnil);
; 690  :             _Loc._Parent->_Left = _Newnode;

  00046	89 3a		 mov	 DWORD PTR [edx], edi

; 691  :             if (_Loc._Parent == _Head->_Left) { // remember leftmost node

  00048	3b 10		 cmp	 edx, DWORD PTR [eax]
  0004a	75 02		 jne	 SHORT $LN9@Insert_nod

; 692  :                 _Head->_Left = _Newnode;

  0004c	89 38		 mov	 DWORD PTR [eax], edi
$LN9@Insert_nod:

; 693  :             }
; 694  :         }
; 695  : 
; 696  :         for (_Nodeptr _Pnode = _Newnode; _Pnode->_Parent->_Color == _Red;) {

  0004e	8b 4f 04	 mov	 ecx, DWORD PTR [edi+4]
  00051	8b c7		 mov	 eax, edi
  00053	80 79 0c 00	 cmp	 BYTE PTR [ecx+12], 0
  00057	0f 85 7d 01 00
	00		 jne	 $LN3@Insert_nod
  0005d	56		 push	 esi
  0005e	66 90		 npad	 2
$LL4@Insert_nod:

; 697  :             if (_Pnode->_Parent == _Pnode->_Parent->_Parent->_Left) { // fixup red-red in left subtree

  00060	8b 50 04	 mov	 edx, DWORD PTR [eax+4]
  00063	8b 72 04	 mov	 esi, DWORD PTR [edx+4]
  00066	8b 0e		 mov	 ecx, DWORD PTR [esi]
  00068	3b d1		 cmp	 edx, ecx
  0006a	0f 85 aa 00 00
	00		 jne	 $LN10@Insert_nod

; 698  :                 const auto _Parent_sibling = _Pnode->_Parent->_Parent->_Right;

  00070	8b 4e 08	 mov	 ecx, DWORD PTR [esi+8]

; 699  :                 if (_Parent_sibling->_Color == _Red) { // parent's sibling has two red children, blacken both

  00073	80 79 0c 00	 cmp	 BYTE PTR [ecx+12], 0
  00077	0f 84 a3 00 00
	00		 je	 $LN82@Insert_nod

; 700  :                     _Pnode->_Parent->_Color          = _Black;
; 701  :                     _Parent_sibling->_Color          = _Black;
; 702  :                     _Pnode->_Parent->_Parent->_Color = _Red;
; 703  :                     _Pnode                           = _Pnode->_Parent->_Parent;
; 704  :                 } else { // parent's sibling has red and black children
; 705  :                     if (_Pnode == _Pnode->_Parent->_Right) { // rotate right child to left

  0007d	8b 72 08	 mov	 esi, DWORD PTR [edx+8]
  00080	3b c6		 cmp	 eax, esi
  00082	75 37		 jne	 SHORT $LN57@Insert_nod

; 485  :         _Wherenode->_Right = _Pnode->_Left;

  00084	8b 0e		 mov	 ecx, DWORD PTR [esi]

; 706  :                         _Pnode = _Pnode->_Parent;

  00086	8b c2		 mov	 eax, edx

; 485  :         _Wherenode->_Right = _Pnode->_Left;

  00088	89 4a 08	 mov	 DWORD PTR [edx+8], ecx

; 486  : 
; 487  :         if (!_Pnode->_Left->_Isnil) {

  0008b	8b 0e		 mov	 ecx, DWORD PTR [esi]
  0008d	80 79 0d 00	 cmp	 BYTE PTR [ecx+13], 0
  00091	75 03		 jne	 SHORT $LN21@Insert_nod

; 488  :             _Pnode->_Left->_Parent = _Wherenode;

  00093	89 41 04	 mov	 DWORD PTR [ecx+4], eax
$LN21@Insert_nod:

; 489  :         }
; 490  : 
; 491  :         _Pnode->_Parent = _Wherenode->_Parent;

  00096	8b 4a 04	 mov	 ecx, DWORD PTR [edx+4]
  00099	89 4e 04	 mov	 DWORD PTR [esi+4], ecx

; 492  : 
; 493  :         if (_Wherenode == _Myhead->_Parent) {

  0009c	8b 0b		 mov	 ecx, DWORD PTR [ebx]
  0009e	3b 41 04	 cmp	 eax, DWORD PTR [ecx+4]
  000a1	75 05		 jne	 SHORT $LN22@Insert_nod

; 494  :             _Myhead->_Parent = _Pnode;

  000a3	89 71 04	 mov	 DWORD PTR [ecx+4], esi
  000a6	eb 0e		 jmp	 SHORT $LN25@Insert_nod
$LN22@Insert_nod:

; 495  :         } else if (_Wherenode == _Wherenode->_Parent->_Left) {

  000a8	8b 4a 04	 mov	 ecx, DWORD PTR [edx+4]
  000ab	3b 01		 cmp	 eax, DWORD PTR [ecx]
  000ad	75 04		 jne	 SHORT $LN24@Insert_nod

; 496  :             _Wherenode->_Parent->_Left = _Pnode;

  000af	89 31		 mov	 DWORD PTR [ecx], esi

; 497  :         } else {

  000b1	eb 03		 jmp	 SHORT $LN25@Insert_nod
$LN24@Insert_nod:

; 498  :             _Wherenode->_Parent->_Right = _Pnode;

  000b3	89 71 08	 mov	 DWORD PTR [ecx+8], esi
$LN25@Insert_nod:

; 499  :         }
; 500  : 
; 501  :         _Pnode->_Left       = _Wherenode;

  000b6	89 06		 mov	 DWORD PTR [esi], eax

; 502  :         _Wherenode->_Parent = _Pnode;

  000b8	89 70 04	 mov	 DWORD PTR [eax+4], esi
$LN57@Insert_nod:

; 707  :                         _Lrotate(_Pnode);
; 708  :                     }
; 709  : 
; 710  :                     _Pnode->_Parent->_Color          = _Black; // propagate red up

  000bb	8b 48 04	 mov	 ecx, DWORD PTR [eax+4]
  000be	c6 41 0c 01	 mov	 BYTE PTR [ecx+12], 1

; 711  :                     _Pnode->_Parent->_Parent->_Color = _Red;

  000c2	8b 48 04	 mov	 ecx, DWORD PTR [eax+4]
  000c5	8b 49 04	 mov	 ecx, DWORD PTR [ecx+4]
  000c8	c6 41 0c 00	 mov	 BYTE PTR [ecx+12], 0

; 712  :                     _Rrotate(_Pnode->_Parent->_Parent);

  000cc	8b 48 04	 mov	 ecx, DWORD PTR [eax+4]
  000cf	8b 51 04	 mov	 edx, DWORD PTR [ecx+4]

; 506  :         _Nodeptr _Pnode   = _Wherenode->_Left;

  000d2	8b 32		 mov	 esi, DWORD PTR [edx]

; 507  :         _Wherenode->_Left = _Pnode->_Right;

  000d4	8b 4e 08	 mov	 ecx, DWORD PTR [esi+8]
  000d7	89 0a		 mov	 DWORD PTR [edx], ecx

; 508  : 
; 509  :         if (!_Pnode->_Right->_Isnil) {

  000d9	8b 4e 08	 mov	 ecx, DWORD PTR [esi+8]
  000dc	80 79 0d 00	 cmp	 BYTE PTR [ecx+13], 0
  000e0	75 03		 jne	 SHORT $LN29@Insert_nod

; 510  :             _Pnode->_Right->_Parent = _Wherenode;

  000e2	89 51 04	 mov	 DWORD PTR [ecx+4], edx
$LN29@Insert_nod:

; 511  :         }
; 512  : 
; 513  :         _Pnode->_Parent = _Wherenode->_Parent;

  000e5	8b 4a 04	 mov	 ecx, DWORD PTR [edx+4]
  000e8	89 4e 04	 mov	 DWORD PTR [esi+4], ecx

; 514  : 
; 515  :         if (_Wherenode == _Myhead->_Parent) {

  000eb	8b 0b		 mov	 ecx, DWORD PTR [ebx]
  000ed	3b 51 04	 cmp	 edx, DWORD PTR [ecx+4]
  000f0	75 0b		 jne	 SHORT $LN30@Insert_nod

; 516  :             _Myhead->_Parent = _Pnode;

  000f2	89 71 04	 mov	 DWORD PTR [ecx+4], esi

; 521  :         }
; 522  : 
; 523  :         _Pnode->_Right      = _Wherenode;

  000f5	89 56 08	 mov	 DWORD PTR [esi+8], edx

; 713  :                 }
; 714  :             } else { // fixup red-red in right subtree

  000f8	e9 cc 00 00 00	 jmp	 $LN81@Insert_nod
$LN30@Insert_nod:

; 517  :         } else if (_Wherenode == _Wherenode->_Parent->_Right) {

  000fd	8b 4a 04	 mov	 ecx, DWORD PTR [edx+4]
  00100	3b 51 08	 cmp	 edx, DWORD PTR [ecx+8]
  00103	75 0b		 jne	 SHORT $LN32@Insert_nod

; 518  :             _Wherenode->_Parent->_Right = _Pnode;

  00105	89 71 08	 mov	 DWORD PTR [ecx+8], esi

; 521  :         }
; 522  : 
; 523  :         _Pnode->_Right      = _Wherenode;

  00108	89 56 08	 mov	 DWORD PTR [esi+8], edx

; 713  :                 }
; 714  :             } else { // fixup red-red in right subtree

  0010b	e9 b9 00 00 00	 jmp	 $LN81@Insert_nod
$LN32@Insert_nod:

; 520  :             _Wherenode->_Parent->_Left = _Pnode;

  00110	89 31		 mov	 DWORD PTR [ecx], esi

; 521  :         }
; 522  : 
; 523  :         _Pnode->_Right      = _Wherenode;

  00112	89 56 08	 mov	 DWORD PTR [esi+8], edx

; 713  :                 }
; 714  :             } else { // fixup red-red in right subtree

  00115	e9 af 00 00 00	 jmp	 $LN81@Insert_nod
$LN10@Insert_nod:

; 715  :                 const auto _Parent_sibling = _Pnode->_Parent->_Parent->_Left;
; 716  :                 if (_Parent_sibling->_Color == _Red) { // parent's sibling has two red children, blacken both

  0011a	80 79 0c 00	 cmp	 BYTE PTR [ecx+12], 0
  0011e	75 1d		 jne	 SHORT $LN15@Insert_nod
$LN82@Insert_nod:

; 693  :             }
; 694  :         }
; 695  : 
; 696  :         for (_Nodeptr _Pnode = _Newnode; _Pnode->_Parent->_Color == _Red;) {

  00120	c6 42 0c 01	 mov	 BYTE PTR [edx+12], 1
  00124	c6 41 0c 01	 mov	 BYTE PTR [ecx+12], 1
  00128	8b 48 04	 mov	 ecx, DWORD PTR [eax+4]
  0012b	8b 49 04	 mov	 ecx, DWORD PTR [ecx+4]
  0012e	c6 41 0c 00	 mov	 BYTE PTR [ecx+12], 0
  00132	8b 48 04	 mov	 ecx, DWORD PTR [eax+4]
  00135	8b 41 04	 mov	 eax, DWORD PTR [ecx+4]
  00138	e9 8f 00 00 00	 jmp	 $LN2@Insert_nod
$LN15@Insert_nod:

; 717  :                     _Pnode->_Parent->_Color          = _Black;
; 718  :                     _Parent_sibling->_Color          = _Black;
; 719  :                     _Pnode->_Parent->_Parent->_Color = _Red;
; 720  :                     _Pnode                           = _Pnode->_Parent->_Parent;
; 721  :                 } else { // parent's sibling has red and black children
; 722  :                     if (_Pnode == _Pnode->_Parent->_Left) { // rotate left child to right

  0013d	8b 32		 mov	 esi, DWORD PTR [edx]
  0013f	3b c6		 cmp	 eax, esi
  00141	75 3a		 jne	 SHORT $LN42@Insert_nod

; 507  :         _Wherenode->_Left = _Pnode->_Right;

  00143	8b 4e 08	 mov	 ecx, DWORD PTR [esi+8]

; 723  :                         _Pnode = _Pnode->_Parent;

  00146	8b c2		 mov	 eax, edx

; 507  :         _Wherenode->_Left = _Pnode->_Right;

  00148	89 08		 mov	 DWORD PTR [eax], ecx

; 508  : 
; 509  :         if (!_Pnode->_Right->_Isnil) {

  0014a	8b 4e 08	 mov	 ecx, DWORD PTR [esi+8]
  0014d	80 79 0d 00	 cmp	 BYTE PTR [ecx+13], 0
  00151	75 03		 jne	 SHORT $LN37@Insert_nod

; 510  :             _Pnode->_Right->_Parent = _Wherenode;

  00153	89 41 04	 mov	 DWORD PTR [ecx+4], eax
$LN37@Insert_nod:

; 511  :         }
; 512  : 
; 513  :         _Pnode->_Parent = _Wherenode->_Parent;

  00156	8b 4a 04	 mov	 ecx, DWORD PTR [edx+4]
  00159	89 4e 04	 mov	 DWORD PTR [esi+4], ecx

; 514  : 
; 515  :         if (_Wherenode == _Myhead->_Parent) {

  0015c	8b 0b		 mov	 ecx, DWORD PTR [ebx]
  0015e	3b 41 04	 cmp	 eax, DWORD PTR [ecx+4]
  00161	75 05		 jne	 SHORT $LN38@Insert_nod

; 516  :             _Myhead->_Parent = _Pnode;

  00163	89 71 04	 mov	 DWORD PTR [ecx+4], esi
  00166	eb 0f		 jmp	 SHORT $LN41@Insert_nod
$LN38@Insert_nod:

; 517  :         } else if (_Wherenode == _Wherenode->_Parent->_Right) {

  00168	8b 4a 04	 mov	 ecx, DWORD PTR [edx+4]
  0016b	3b 41 08	 cmp	 eax, DWORD PTR [ecx+8]
  0016e	75 05		 jne	 SHORT $LN40@Insert_nod

; 518  :             _Wherenode->_Parent->_Right = _Pnode;

  00170	89 71 08	 mov	 DWORD PTR [ecx+8], esi

; 519  :         } else {

  00173	eb 02		 jmp	 SHORT $LN41@Insert_nod
$LN40@Insert_nod:

; 520  :             _Wherenode->_Parent->_Left = _Pnode;

  00175	89 31		 mov	 DWORD PTR [ecx], esi
$LN41@Insert_nod:

; 521  :         }
; 522  : 
; 523  :         _Pnode->_Right      = _Wherenode;

  00177	89 46 08	 mov	 DWORD PTR [esi+8], eax

; 524  :         _Wherenode->_Parent = _Pnode;

  0017a	89 70 04	 mov	 DWORD PTR [eax+4], esi
$LN42@Insert_nod:

; 724  :                         _Rrotate(_Pnode);
; 725  :                     }
; 726  : 
; 727  :                     _Pnode->_Parent->_Color          = _Black; // propagate red up

  0017d	8b 48 04	 mov	 ecx, DWORD PTR [eax+4]
  00180	c6 41 0c 01	 mov	 BYTE PTR [ecx+12], 1

; 728  :                     _Pnode->_Parent->_Parent->_Color = _Red;

  00184	8b 48 04	 mov	 ecx, DWORD PTR [eax+4]
  00187	8b 49 04	 mov	 ecx, DWORD PTR [ecx+4]
  0018a	c6 41 0c 00	 mov	 BYTE PTR [ecx+12], 0

; 729  :                     _Lrotate(_Pnode->_Parent->_Parent);

  0018e	8b 48 04	 mov	 ecx, DWORD PTR [eax+4]
  00191	8b 51 04	 mov	 edx, DWORD PTR [ecx+4]

; 484  :         _Nodeptr _Pnode    = _Wherenode->_Right;

  00194	8b 72 08	 mov	 esi, DWORD PTR [edx+8]

; 485  :         _Wherenode->_Right = _Pnode->_Left;

  00197	8b 0e		 mov	 ecx, DWORD PTR [esi]
  00199	89 4a 08	 mov	 DWORD PTR [edx+8], ecx

; 486  : 
; 487  :         if (!_Pnode->_Left->_Isnil) {

  0019c	8b 0e		 mov	 ecx, DWORD PTR [esi]
  0019e	80 79 0d 00	 cmp	 BYTE PTR [ecx+13], 0
  001a2	75 03		 jne	 SHORT $LN45@Insert_nod

; 488  :             _Pnode->_Left->_Parent = _Wherenode;

  001a4	89 51 04	 mov	 DWORD PTR [ecx+4], edx
$LN45@Insert_nod:

; 489  :         }
; 490  : 
; 491  :         _Pnode->_Parent = _Wherenode->_Parent;

  001a7	8b 4a 04	 mov	 ecx, DWORD PTR [edx+4]
  001aa	89 4e 04	 mov	 DWORD PTR [esi+4], ecx

; 492  : 
; 493  :         if (_Wherenode == _Myhead->_Parent) {

  001ad	8b 0b		 mov	 ecx, DWORD PTR [ebx]
  001af	3b 51 04	 cmp	 edx, DWORD PTR [ecx+4]
  001b2	75 05		 jne	 SHORT $LN46@Insert_nod

; 494  :             _Myhead->_Parent = _Pnode;

  001b4	89 71 04	 mov	 DWORD PTR [ecx+4], esi
  001b7	eb 0e		 jmp	 SHORT $LN49@Insert_nod
$LN46@Insert_nod:

; 495  :         } else if (_Wherenode == _Wherenode->_Parent->_Left) {

  001b9	8b 4a 04	 mov	 ecx, DWORD PTR [edx+4]
  001bc	3b 11		 cmp	 edx, DWORD PTR [ecx]
  001be	75 04		 jne	 SHORT $LN48@Insert_nod

; 496  :             _Wherenode->_Parent->_Left = _Pnode;

  001c0	89 31		 mov	 DWORD PTR [ecx], esi

; 497  :         } else {

  001c2	eb 03		 jmp	 SHORT $LN49@Insert_nod
$LN48@Insert_nod:

; 498  :             _Wherenode->_Parent->_Right = _Pnode;

  001c4	89 71 08	 mov	 DWORD PTR [ecx+8], esi
$LN49@Insert_nod:

; 499  :         }
; 500  : 
; 501  :         _Pnode->_Left       = _Wherenode;

  001c7	89 16		 mov	 DWORD PTR [esi], edx
$LN81@Insert_nod:

; 693  :             }
; 694  :         }
; 695  : 
; 696  :         for (_Nodeptr _Pnode = _Newnode; _Pnode->_Parent->_Color == _Red;) {

  001c9	89 72 04	 mov	 DWORD PTR [edx+4], esi
$LN2@Insert_nod:
  001cc	8b 48 04	 mov	 ecx, DWORD PTR [eax+4]
  001cf	80 79 0c 00	 cmp	 BYTE PTR [ecx+12], 0
  001d3	0f 84 87 fe ff
	ff		 je	 $LL4@Insert_nod
  001d9	5e		 pop	 esi
$LN3@Insert_nod:

; 730  :                 }
; 731  :             }
; 732  :         }
; 733  : 
; 734  :         _Head->_Parent->_Color = _Black; // root is always black

  001da	8b 45 fc	 mov	 eax, DWORD PTR __Head$1$[ebp]
  001dd	8b 40 04	 mov	 eax, DWORD PTR [eax+4]
  001e0	c6 40 0c 01	 mov	 BYTE PTR [eax+12], 1

; 735  :         return _Newnode;
; 736  :     }

  001e4	8b c7		 mov	 eax, edi
  001e6	5f		 pop	 edi
  001e7	5b		 pop	 ebx
  001e8	8b e5		 mov	 esp, ebp
  001ea	5d		 pop	 ebp
  001eb	c2 0c 00	 ret	 12			; 0000000cH
?_Insert_node@?$_Tree_val@U?$_Tree_simple_types@H@std@@@std@@QAEPAU?$_Tree_node@HPAX@2@U?$_Tree_id@PAU?$_Tree_node@HPAX@std@@@2@QAU32@@Z ENDP ; std::_Tree_val<std::_Tree_simple_types<int> >::_Insert_node
_TEXT	ENDS
; Function compile flags: /Ogtp
; File C:\Program Files\Microsoft Visual Studio\2022\Professional\VC\Tools\MSVC\14.44.35207\include\xtree
; File C:\Program Files\Microsoft Visual Studio\2022\Professional\VC\Tools\MSVC\14.44.35207\include\utility
; File C:\Program Files\Microsoft Visual Studio\2022\Professional\VC\Tools\MSVC\14.44.35207\include\xmemory
; File C:\Program Files\Microsoft Visual Studio\2022\Professional\VC\Tools\MSVC\14.44.35207\include\xtree
; File C:\Program Files\Microsoft Visual Studio\2022\Professional\VC\Tools\MSVC\14.44.35207\include\xmemory
; File C:\Program Files\Microsoft Visual Studio\2022\Professional\VC\Tools\MSVC\14.44.35207\include\xtree
;	COMDAT ??1?$_Tree@V?$_Tset_traits@HU?$less@H@std@@V?$allocator@H@2@$0A@@std@@@std@@QAE@XZ
_TEXT	SEGMENT
??1?$_Tree@V?$_Tset_traits@HU?$less@H@std@@V?$allocator@H@2@$0A@@std@@@std@@QAE@XZ PROC ; std::_Tree<std::_Tset_traits<int,std::less<int>,std::allocator<int>,0> >::~_Tree<std::_Tset_traits<int,std::less<int>,std::allocator<int>,0> >, COMDAT
; _this$ = ecx

; 1095 :     ~_Tree() noexcept {

  00000	56		 push	 esi
  00001	57		 push	 edi
  00002	8b f9		 mov	 edi, ecx

; 777  :         _Erase_tree(_Al, _Myhead->_Parent);

  00004	8b 37		 mov	 esi, DWORD PTR [edi]
  00006	8b 76 04	 mov	 esi, DWORD PTR [esi+4]

; 768  :         while (!_Rootnode->_Isnil) { // free subtrees, then node

  00009	80 7e 0d 00	 cmp	 BYTE PTR [esi+13], 0
  0000d	75 21		 jne	 SHORT $LN61@Tree
  0000f	90		 npad	 1
$LL8@Tree:

; 769  :             _Erase_tree(_Al, _Rootnode->_Right);

  00010	ff 76 08	 push	 DWORD PTR [esi+8]
  00013	8b cf		 mov	 ecx, edi
  00015	57		 push	 edi
  00016	e8 00 00 00 00	 call	 ??$_Erase_tree@V?$allocator@U?$_Tree_node@HPAX@std@@@std@@@?$_Tree_val@U?$_Tree_simple_types@H@std@@@std@@QAEXAAV?$allocator@U?$_Tree_node@HPAX@std@@@1@PAU?$_Tree_node@HPAX@1@@Z ; std::_Tree_val<std::_Tree_simple_types<int> >::_Erase_tree<std::allocator<std::_Tree_node<int,void *> > >
; File C:\Program Files\Microsoft Visual Studio\2022\Professional\VC\Tools\MSVC\14.44.35207\include\utility

; 773  :     _Ty _Old_val = static_cast<_Ty&&>(_Val);

  0001b	8b c6		 mov	 eax, esi

; 774  :     _Val         = static_cast<_Other&&>(_New_val);

  0001d	8b 36		 mov	 esi, DWORD PTR [esi]
; File C:\Program Files\Microsoft Visual Studio\2022\Professional\VC\Tools\MSVC\14.44.35207\include\xmemory

; 289  :         ::operator delete(_Ptr, _Bytes);

  0001f	6a 14		 push	 20			; 00000014H
  00021	50		 push	 eax
  00022	e8 00 00 00 00	 call	 ??3@YAXPAXI@Z		; operator delete
  00027	83 c4 08	 add	 esp, 8
; File C:\Program Files\Microsoft Visual Studio\2022\Professional\VC\Tools\MSVC\14.44.35207\include\xtree

; 768  :         while (!_Rootnode->_Isnil) { // free subtrees, then node

  0002a	80 7e 0d 00	 cmp	 BYTE PTR [esi+13], 0
  0002e	74 e0		 je	 SHORT $LL8@Tree
$LN61@Tree:
; File C:\Program Files\Microsoft Visual Studio\2022\Professional\VC\Tools\MSVC\14.44.35207\include\xmemory

; 289  :         ::operator delete(_Ptr, _Bytes);

  00030	6a 14		 push	 20			; 00000014H
  00032	ff 37		 push	 DWORD PTR [edi]
  00034	e8 00 00 00 00	 call	 ??3@YAXPAXI@Z		; operator delete
  00039	83 c4 08	 add	 esp, 8
  0003c	5f		 pop	 edi
  0003d	5e		 pop	 esi
; File C:\Program Files\Microsoft Visual Studio\2022\Professional\VC\Tools\MSVC\14.44.35207\include\xtree

; 1102 :     }

  0003e	c3		 ret	 0
??1?$_Tree@V?$_Tset_traits@HU?$less@H@std@@V?$allocator@H@2@$0A@@std@@@std@@QAE@XZ ENDP ; std::_Tree<std::_Tset_traits<int,std::less<int>,std::allocator<int>,0> >::~_Tree<std::_Tset_traits<int,std::less<int>,std::allocator<int>,0> >
_TEXT	ENDS
; Function compile flags: /Ogtp
;	COMDAT ??__FsTransformerEgg@?1??Instance@CTransformerEgg@@SAPAV1@XZ@YAXXZ
text$yd	SEGMENT
??__FsTransformerEgg@?1??Instance@CTransformerEgg@@SAPAV1@XZ@YAXXZ PROC ; `CTransformerEgg::Instance'::`2'::`dynamic atexit destructor for 'sTransformerEgg'', COMDAT
  00000	b9 00 00 00 00	 mov	 ecx, OFFSET ?sTransformerEgg@?1??Instance@CTransformerEgg@@SAPAV2@XZ@4V2@A
  00005	e9 00 00 00 00	 jmp	 ??1CTransformerEgg@@UAE@XZ ; CTransformerEgg::~CTransformerEgg
??__FsTransformerEgg@?1??Instance@CTransformerEgg@@SAPAV1@XZ@YAXXZ ENDP ; `CTransformerEgg::Instance'::`2'::`dynamic atexit destructor for 'sTransformerEgg''
text$yd	ENDS
; Function compile flags: /Ogtp
; File C:\IAGOS\server\v18\Source\Source\_Network\Misc\Include\ar.h
;	COMDAT ??$?5I@CAr@@QAEAAV0@AAI@Z
_TEXT	SEGMENT
_t$ = 8							; size = 4
??$?5I@CAr@@QAEAAV0@AAI@Z PROC				; CAr::operator>><unsigned int>, COMDAT
; _this$ = ecx

; 302  : {

  00000	55		 push	 ebp
  00001	8b ec		 mov	 ebp, esp
  00003	8b d1		 mov	 edx, ecx

; 303  : 	if (m_lpBufCur + sizeof(T) <= m_lpBufMax)

  00005	8b 4a 08	 mov	 ecx, DWORD PTR [edx+8]
  00008	8d 41 04	 lea	 eax, DWORD PTR [ecx+4]
  0000b	3b 42 0c	 cmp	 eax, DWORD PTR [edx+12]
  0000e	8b 45 08	 mov	 eax, DWORD PTR _t$[ebp]
  00011	77 0e		 ja	 SHORT $LN2@operator

; 304  : 	{
; 305  : 		t = *(UNALIGNED T*)m_lpBufCur;

  00013	8b 09		 mov	 ecx, DWORD PTR [ecx]
  00015	89 08		 mov	 DWORD PTR [eax], ecx

; 312  : 	}
; 313  : 	return *this;
; 314  : }

  00017	8b c2		 mov	 eax, edx
  00019	83 42 08 04	 add	 DWORD PTR [edx+8], 4
  0001d	5d		 pop	 ebp
  0001e	c2 04 00	 ret	 4
$LN2@operator:

; 306  : 		m_lpBufCur += sizeof(T);
; 307  : 	}
; 308  : 	else
; 309  : 	{
; 310  : 		t = T();

  00021	c7 00 00 00 00
	00		 mov	 DWORD PTR [eax], 0

; 311  : 		m_lpBufCur = m_lpBufMax;

  00027	8b 42 0c	 mov	 eax, DWORD PTR [edx+12]
  0002a	89 42 08	 mov	 DWORD PTR [edx+8], eax

; 312  : 	}
; 313  : 	return *this;
; 314  : }

  0002d	8b c2		 mov	 eax, edx
  0002f	5d		 pop	 ebp
  00030	c2 04 00	 ret	 4
??$?5I@CAr@@QAEAAV0@AAI@Z ENDP				; CAr::operator>><unsigned int>
_TEXT	ENDS
; Function compile flags: /Ogtp
; File C:\IAGOS\server\v18\Source\Source\_Network\Misc\Include\ar.h
;	COMDAT ??$?5E@CAr@@QAEAAV0@AAE@Z
_TEXT	SEGMENT
_t$ = 8							; size = 4
??$?5E@CAr@@QAEAAV0@AAE@Z PROC				; CAr::operator>><unsigned char>, COMDAT
; _this$ = ecx

; 302  : {

  00000	55		 push	 ebp
  00001	8b ec		 mov	 ebp, esp
  00003	8b d1		 mov	 edx, ecx

; 303  : 	if (m_lpBufCur + sizeof(T) <= m_lpBufMax)

  00005	8b 4a 08	 mov	 ecx, DWORD PTR [edx+8]
  00008	8d 41 01	 lea	 eax, DWORD PTR [ecx+1]
  0000b	3b 42 0c	 cmp	 eax, DWORD PTR [edx+12]
  0000e	8b 45 08	 mov	 eax, DWORD PTR _t$[ebp]
  00011	77 0d		 ja	 SHORT $LN2@operator

; 304  : 	{
; 305  : 		t = *(UNALIGNED T*)m_lpBufCur;

  00013	8a 09		 mov	 cl, BYTE PTR [ecx]
  00015	88 08		 mov	 BYTE PTR [eax], cl

; 312  : 	}
; 313  : 	return *this;
; 314  : }

  00017	8b c2		 mov	 eax, edx
  00019	ff 42 08	 inc	 DWORD PTR [edx+8]
  0001c	5d		 pop	 ebp
  0001d	c2 04 00	 ret	 4
$LN2@operator:

; 306  : 		m_lpBufCur += sizeof(T);
; 307  : 	}
; 308  : 	else
; 309  : 	{
; 310  : 		t = T();

  00020	c6 00 00	 mov	 BYTE PTR [eax], 0

; 311  : 		m_lpBufCur = m_lpBufMax;

  00023	8b 42 0c	 mov	 eax, DWORD PTR [edx+12]
  00026	89 42 08	 mov	 DWORD PTR [edx+8], eax

; 312  : 	}
; 313  : 	return *this;
; 314  : }

  00029	8b c2		 mov	 eax, edx
  0002b	5d		 pop	 ebp
  0002c	c2 04 00	 ret	 4
??$?5E@CAr@@QAEAAV0@AAE@Z ENDP				; CAr::operator>><unsigned char>
_TEXT	ENDS
; Function compile flags: /Ogtp
; File C:\IAGOS\server\v18\Source\Source\_Network\Misc\Include\ar.h
;	COMDAT ??$?6E@CAr@@QAEAAV0@ABE@Z
_TEXT	SEGMENT
_t$ = 8							; size = 4
??$?6E@CAr@@QAEAAV0@ABE@Z PROC				; CAr::operator<<<unsigned char>, COMDAT
; _this$ = ecx

; 255  : {

  00000	55		 push	 ebp
  00001	8b ec		 mov	 ebp, esp
  00003	56		 push	 esi

; 256  : 	CheckBuf(sizeof(T));

  00004	6a 01		 push	 1
  00006	8b f1		 mov	 esi, ecx
  00008	e8 00 00 00 00	 call	 ?CheckBuf@CAr@@QAEXI@Z	; CAr::CheckBuf

; 257  : 	*(UNALIGNED T*)m_lpBufCur = t;

  0000d	8b 45 08	 mov	 eax, DWORD PTR _t$[ebp]
  00010	8b 56 08	 mov	 edx, DWORD PTR [esi+8]
  00013	8a 00		 mov	 al, BYTE PTR [eax]
  00015	88 02		 mov	 BYTE PTR [edx], al

; 258  : 	m_lpBufCur += sizeof(T);
; 259  : 	return *this;

  00017	8b c6		 mov	 eax, esi
  00019	ff 46 08	 inc	 DWORD PTR [esi+8]
  0001c	5e		 pop	 esi

; 260  : }

  0001d	5d		 pop	 ebp
  0001e	c2 04 00	 ret	 4
??$?6E@CAr@@QAEAAV0@ABE@Z ENDP				; CAr::operator<<<unsigned char>
_TEXT	ENDS
; Function compile flags: /Ogtp
;	COMDAT ??__FsPetProperty@?1??GetInstance@CPetProperty@@SAPAV1@XZ@YAXXZ
text$yd	SEGMENT
??__FsPetProperty@?1??GetInstance@CPetProperty@@SAPAV1@XZ@YAXXZ PROC ; `CPetProperty::GetInstance'::`2'::`dynamic atexit destructor for 'sPetProperty'', COMDAT
  00000	b9 00 00 00 00	 mov	 ecx, OFFSET ?sPetProperty@?1??GetInstance@CPetProperty@@SAPAV2@XZ@4V2@A
  00005	e9 00 00 00 00	 jmp	 ??1CPetProperty@@UAE@XZ	; CPetProperty::~CPetProperty
??__FsPetProperty@?1??GetInstance@CPetProperty@@SAPAV1@XZ@YAXXZ ENDP ; `CPetProperty::GetInstance'::`2'::`dynamic atexit destructor for 'sPetProperty''
text$yd	ENDS
; Function compile flags: /Ogtp
; File C:\IAGOS\server\v18\Source\Source\_Network\Misc\Include\ar.h
;	COMDAT ??$?5K@CAr@@QAEAAV0@AAK@Z
_TEXT	SEGMENT
_t$ = 8							; size = 4
??$?5K@CAr@@QAEAAV0@AAK@Z PROC				; CAr::operator>><unsigned long>, COMDAT
; _this$ = ecx

; 302  : {

  00000	55		 push	 ebp
  00001	8b ec		 mov	 ebp, esp
  00003	8b d1		 mov	 edx, ecx

; 303  : 	if (m_lpBufCur + sizeof(T) <= m_lpBufMax)

  00005	8b 4a 08	 mov	 ecx, DWORD PTR [edx+8]
  00008	8d 41 04	 lea	 eax, DWORD PTR [ecx+4]
  0000b	3b 42 0c	 cmp	 eax, DWORD PTR [edx+12]
  0000e	8b 45 08	 mov	 eax, DWORD PTR _t$[ebp]
  00011	77 0e		 ja	 SHORT $LN2@operator

; 304  : 	{
; 305  : 		t = *(UNALIGNED T*)m_lpBufCur;

  00013	8b 09		 mov	 ecx, DWORD PTR [ecx]
  00015	89 08		 mov	 DWORD PTR [eax], ecx

; 312  : 	}
; 313  : 	return *this;
; 314  : }

  00017	8b c2		 mov	 eax, edx
  00019	83 42 08 04	 add	 DWORD PTR [edx+8], 4
  0001d	5d		 pop	 ebp
  0001e	c2 04 00	 ret	 4
$LN2@operator:

; 306  : 		m_lpBufCur += sizeof(T);
; 307  : 	}
; 308  : 	else
; 309  : 	{
; 310  : 		t = T();

  00021	c7 00 00 00 00
	00		 mov	 DWORD PTR [eax], 0

; 311  : 		m_lpBufCur = m_lpBufMax;

  00027	8b 42 0c	 mov	 eax, DWORD PTR [edx+12]
  0002a	89 42 08	 mov	 DWORD PTR [edx+8], eax

; 312  : 	}
; 313  : 	return *this;
; 314  : }

  0002d	8b c2		 mov	 eax, edx
  0002f	5d		 pop	 ebp
  00030	c2 04 00	 ret	 4
??$?5K@CAr@@QAEAAV0@AAK@Z ENDP				; CAr::operator>><unsigned long>
_TEXT	ENDS
; Function compile flags: /Ogtp
; File C:\IAGOS\server\v18\Source\Source\_Network\Misc\Include\ar.h
;	COMDAT ??$?6K@CAr@@QAEAAV0@ABK@Z
_TEXT	SEGMENT
_t$ = 8							; size = 4
??$?6K@CAr@@QAEAAV0@ABK@Z PROC				; CAr::operator<<<unsigned long>, COMDAT
; _this$ = ecx

; 255  : {

  00000	55		 push	 ebp
  00001	8b ec		 mov	 ebp, esp
  00003	56		 push	 esi

; 256  : 	CheckBuf(sizeof(T));

  00004	6a 04		 push	 4
  00006	8b f1		 mov	 esi, ecx
  00008	e8 00 00 00 00	 call	 ?CheckBuf@CAr@@QAEXI@Z	; CAr::CheckBuf

; 257  : 	*(UNALIGNED T*)m_lpBufCur = t;

  0000d	8b 56 08	 mov	 edx, DWORD PTR [esi+8]
  00010	8b 45 08	 mov	 eax, DWORD PTR _t$[ebp]
  00013	8b 00		 mov	 eax, DWORD PTR [eax]
  00015	89 02		 mov	 DWORD PTR [edx], eax

; 258  : 	m_lpBufCur += sizeof(T);
; 259  : 	return *this;

  00017	8b c6		 mov	 eax, esi
  00019	83 46 08 04	 add	 DWORD PTR [esi+8], 4
  0001d	5e		 pop	 esi

; 260  : }

  0001e	5d		 pop	 ebp
  0001f	c2 04 00	 ret	 4
??$?6K@CAr@@QAEAAV0@ABK@Z ENDP				; CAr::operator<<<unsigned long>
_TEXT	ENDS
; Function compile flags: /Ogtp
; File C:\IAGOS\server\v18\Source\Source\_Network\Misc\Include\ar.h
;	COMDAT ??$?6I@CAr@@QAEAAV0@ABI@Z
_TEXT	SEGMENT
_t$ = 8							; size = 4
??$?6I@CAr@@QAEAAV0@ABI@Z PROC				; CAr::operator<<<unsigned int>, COMDAT
; _this$ = ecx

; 255  : {

  00000	55		 push	 ebp
  00001	8b ec		 mov	 ebp, esp
  00003	56		 push	 esi

; 256  : 	CheckBuf(sizeof(T));

  00004	6a 04		 push	 4
  00006	8b f1		 mov	 esi, ecx
  00008	e8 00 00 00 00	 call	 ?CheckBuf@CAr@@QAEXI@Z	; CAr::CheckBuf

; 257  : 	*(UNALIGNED T*)m_lpBufCur = t;

  0000d	8b 56 08	 mov	 edx, DWORD PTR [esi+8]
  00010	8b 45 08	 mov	 eax, DWORD PTR _t$[ebp]
  00013	8b 00		 mov	 eax, DWORD PTR [eax]
  00015	89 02		 mov	 DWORD PTR [edx], eax

; 258  : 	m_lpBufCur += sizeof(T);
; 259  : 	return *this;

  00017	8b c6		 mov	 eax, esi
  00019	83 46 08 04	 add	 DWORD PTR [esi+8], 4
  0001d	5e		 pop	 esi

; 260  : }

  0001e	5d		 pop	 ebp
  0001f	c2 04 00	 ret	 4
??$?6I@CAr@@QAEAAV0@ABI@Z ENDP				; CAr::operator<<<unsigned int>
_TEXT	ENDS
; Function compile flags: /Ogtp
; File C:\IAGOS\server\v18\Source\Source\_Network\Misc\Include\ar.h
;	COMDAT ??$?5H@CAr@@QAEAAV0@AAH@Z
_TEXT	SEGMENT
_t$ = 8							; size = 4
??$?5H@CAr@@QAEAAV0@AAH@Z PROC				; CAr::operator>><int>, COMDAT
; _this$ = ecx

; 302  : {

  00000	55		 push	 ebp
  00001	8b ec		 mov	 ebp, esp
  00003	8b d1		 mov	 edx, ecx

; 303  : 	if (m_lpBufCur + sizeof(T) <= m_lpBufMax)

  00005	8b 4a 08	 mov	 ecx, DWORD PTR [edx+8]
  00008	8d 41 04	 lea	 eax, DWORD PTR [ecx+4]
  0000b	3b 42 0c	 cmp	 eax, DWORD PTR [edx+12]
  0000e	8b 45 08	 mov	 eax, DWORD PTR _t$[ebp]
  00011	77 0e		 ja	 SHORT $LN2@operator

; 304  : 	{
; 305  : 		t = *(UNALIGNED T*)m_lpBufCur;

  00013	8b 09		 mov	 ecx, DWORD PTR [ecx]
  00015	89 08		 mov	 DWORD PTR [eax], ecx

; 312  : 	}
; 313  : 	return *this;
; 314  : }

  00017	8b c2		 mov	 eax, edx
  00019	83 42 08 04	 add	 DWORD PTR [edx+8], 4
  0001d	5d		 pop	 ebp
  0001e	c2 04 00	 ret	 4
$LN2@operator:

; 306  : 		m_lpBufCur += sizeof(T);
; 307  : 	}
; 308  : 	else
; 309  : 	{
; 310  : 		t = T();

  00021	c7 00 00 00 00
	00		 mov	 DWORD PTR [eax], 0

; 311  : 		m_lpBufCur = m_lpBufMax;

  00027	8b 42 0c	 mov	 eax, DWORD PTR [edx+12]
  0002a	89 42 08	 mov	 DWORD PTR [edx+8], eax

; 312  : 	}
; 313  : 	return *this;
; 314  : }

  0002d	8b c2		 mov	 eax, edx
  0002f	5d		 pop	 ebp
  00030	c2 04 00	 ret	 4
??$?5H@CAr@@QAEAAV0@AAH@Z ENDP				; CAr::operator>><int>
_TEXT	ENDS
; Function compile flags: /Ogtp
; File C:\IAGOS\server\v18\Source\Source\_Network\Misc\Include\ar.h
;	COMDAT ??$?5G@CAr@@QAEAAV0@AAG@Z
_TEXT	SEGMENT
_t$ = 8							; size = 4
??$?5G@CAr@@QAEAAV0@AAG@Z PROC				; CAr::operator>><unsigned short>, COMDAT
; _this$ = ecx

; 302  : {

  00000	55		 push	 ebp
  00001	8b ec		 mov	 ebp, esp
  00003	8b d1		 mov	 edx, ecx

; 303  : 	if (m_lpBufCur + sizeof(T) <= m_lpBufMax)

  00005	8b 4a 08	 mov	 ecx, DWORD PTR [edx+8]
  00008	8d 41 02	 lea	 eax, DWORD PTR [ecx+2]
  0000b	3b 42 0c	 cmp	 eax, DWORD PTR [edx+12]
  0000e	8b 45 08	 mov	 eax, DWORD PTR _t$[ebp]
  00011	77 10		 ja	 SHORT $LN2@operator

; 304  : 	{
; 305  : 		t = *(UNALIGNED T*)m_lpBufCur;

  00013	66 8b 09	 mov	 cx, WORD PTR [ecx]
  00016	66 89 08	 mov	 WORD PTR [eax], cx

; 312  : 	}
; 313  : 	return *this;
; 314  : }

  00019	8b c2		 mov	 eax, edx
  0001b	83 42 08 02	 add	 DWORD PTR [edx+8], 2
  0001f	5d		 pop	 ebp
  00020	c2 04 00	 ret	 4
$LN2@operator:

; 306  : 		m_lpBufCur += sizeof(T);
; 307  : 	}
; 308  : 	else
; 309  : 	{
; 310  : 		t = T();

  00023	33 c9		 xor	 ecx, ecx
  00025	66 89 08	 mov	 WORD PTR [eax], cx

; 311  : 		m_lpBufCur = m_lpBufMax;

  00028	8b 42 0c	 mov	 eax, DWORD PTR [edx+12]
  0002b	89 42 08	 mov	 DWORD PTR [edx+8], eax

; 312  : 	}
; 313  : 	return *this;
; 314  : }

  0002e	8b c2		 mov	 eax, edx
  00030	5d		 pop	 ebp
  00031	c2 04 00	 ret	 4
??$?5G@CAr@@QAEAAV0@AAG@Z ENDP				; CAr::operator>><unsigned short>
_TEXT	ENDS
; Function compile flags: /Ogtp
; File C:\IAGOS\server\v18\Source\Source\_Network\Misc\Include\ar.h
;	COMDAT ??$?6H@CAr@@QAEAAV0@ABH@Z
_TEXT	SEGMENT
_t$ = 8							; size = 4
??$?6H@CAr@@QAEAAV0@ABH@Z PROC				; CAr::operator<<<int>, COMDAT
; _this$ = ecx

; 255  : {

  00000	55		 push	 ebp
  00001	8b ec		 mov	 ebp, esp
  00003	56		 push	 esi

; 256  : 	CheckBuf(sizeof(T));

  00004	6a 04		 push	 4
  00006	8b f1		 mov	 esi, ecx
  00008	e8 00 00 00 00	 call	 ?CheckBuf@CAr@@QAEXI@Z	; CAr::CheckBuf

; 257  : 	*(UNALIGNED T*)m_lpBufCur = t;

  0000d	8b 56 08	 mov	 edx, DWORD PTR [esi+8]
  00010	8b 45 08	 mov	 eax, DWORD PTR _t$[ebp]
  00013	8b 00		 mov	 eax, DWORD PTR [eax]
  00015	89 02		 mov	 DWORD PTR [edx], eax

; 258  : 	m_lpBufCur += sizeof(T);
; 259  : 	return *this;

  00017	8b c6		 mov	 eax, esi
  00019	83 46 08 04	 add	 DWORD PTR [esi+8], 4
  0001d	5e		 pop	 esi

; 260  : }

  0001e	5d		 pop	 ebp
  0001f	c2 04 00	 ret	 4
??$?6H@CAr@@QAEAAV0@ABH@Z ENDP				; CAr::operator<<<int>
_TEXT	ENDS
; Function compile flags: /Ogtp
; File C:\IAGOS\server\v18\Source\Source\_Network\Misc\Include\ar.h
;	COMDAT ??$?6G@CAr@@QAEAAV0@ABG@Z
_TEXT	SEGMENT
_t$ = 8							; size = 4
??$?6G@CAr@@QAEAAV0@ABG@Z PROC				; CAr::operator<<<unsigned short>, COMDAT
; _this$ = ecx

; 255  : {

  00000	55		 push	 ebp
  00001	8b ec		 mov	 ebp, esp
  00003	56		 push	 esi

; 256  : 	CheckBuf(sizeof(T));

  00004	6a 02		 push	 2
  00006	8b f1		 mov	 esi, ecx
  00008	e8 00 00 00 00	 call	 ?CheckBuf@CAr@@QAEXI@Z	; CAr::CheckBuf

; 257  : 	*(UNALIGNED T*)m_lpBufCur = t;

  0000d	8b 45 08	 mov	 eax, DWORD PTR _t$[ebp]
  00010	8b 56 08	 mov	 edx, DWORD PTR [esi+8]
  00013	66 8b 00	 mov	 ax, WORD PTR [eax]
  00016	66 89 02	 mov	 WORD PTR [edx], ax

; 258  : 	m_lpBufCur += sizeof(T);
; 259  : 	return *this;

  00019	8b c6		 mov	 eax, esi
  0001b	83 46 08 02	 add	 DWORD PTR [esi+8], 2
  0001f	5e		 pop	 esi

; 260  : }

  00020	5d		 pop	 ebp
  00021	c2 04 00	 ret	 4
??$?6G@CAr@@QAEAAV0@ABG@Z ENDP				; CAr::operator<<<unsigned short>
_TEXT	ENDS
; Function compile flags: /Ogtp
; File C:\Program Files\Microsoft Visual Studio\2022\Professional\VC\Tools\MSVC\14.44.35207\include\xmemory
;	COMDAT ??$_Allocate_manually_vector_aligned@U_Default_allocate_traits@std@@@std@@YAPAXI@Z
_TEXT	SEGMENT
__Bytes$ = 8						; size = 4
??$_Allocate_manually_vector_aligned@U_Default_allocate_traits@std@@@std@@YAPAXI@Z PROC ; std::_Allocate_manually_vector_aligned<std::_Default_allocate_traits>, COMDAT

; 182  : __declspec(allocator) void* _Allocate_manually_vector_aligned(const size_t _Bytes) {

  00000	55		 push	 ebp
  00001	8b ec		 mov	 ebp, esp

; 183  :     // allocate _Bytes manually aligned to at least _Big_allocation_alignment
; 184  :     const size_t _Block_size = _Non_user_size + _Bytes;

  00003	8b 45 08	 mov	 eax, DWORD PTR __Bytes$[ebp]
  00006	8d 48 23	 lea	 ecx, DWORD PTR [eax+35]

; 185  :     if (_Block_size <= _Bytes) {

  00009	3b c8		 cmp	 ecx, eax
  0000b	0f 86 00 00 00
	00		 jbe	 ?_Throw_bad_array_new_length@std@@YAXXZ ; std::_Throw_bad_array_new_length

; 136  :         return ::operator new(_Bytes);

  00011	51		 push	 ecx
  00012	e8 00 00 00 00	 call	 ??2@YAPAXI@Z		; operator new

; 186  :         _Throw_bad_array_new_length(); // add overflow
; 187  :     }
; 188  : 
; 189  :     const uintptr_t _Ptr_container = reinterpret_cast<uintptr_t>(_Traits::_Allocate(_Block_size));

  00017	8b c8		 mov	 ecx, eax

; 136  :         return ::operator new(_Bytes);

  00019	83 c4 04	 add	 esp, 4

; 190  :     _STL_VERIFY(_Ptr_container != 0, "invalid argument"); // validate even in release since we're doing p[-1]

  0001c	85 c9		 test	 ecx, ecx
  0001e	74 0b		 je	 SHORT $LN9@Allocate_m

; 191  :     void* const _Ptr = reinterpret_cast<void*>((_Ptr_container + _Non_user_size) & ~(_Big_allocation_alignment - 1));

  00020	8d 41 23	 lea	 eax, DWORD PTR [ecx+35]
  00023	83 e0 e0	 and	 eax, -32		; ffffffe0H

; 192  :     static_cast<uintptr_t*>(_Ptr)[-1] = _Ptr_container;

  00026	89 48 fc	 mov	 DWORD PTR [eax-4], ecx

; 193  : 
; 194  : #ifdef _DEBUG
; 195  :     static_cast<uintptr_t*>(_Ptr)[-2] = _Big_allocation_sentinel;
; 196  : #endif // defined(_DEBUG)
; 197  :     return _Ptr;
; 198  : }

  00029	5d		 pop	 ebp
  0002a	c3		 ret	 0
$LN9@Allocate_m:

; 190  :     _STL_VERIFY(_Ptr_container != 0, "invalid argument"); // validate even in release since we're doing p[-1]

  0002b	6a 00		 push	 0
  0002d	6a 00		 push	 0
  0002f	6a 00		 push	 0
  00031	6a 00		 push	 0
  00033	6a 00		 push	 0
  00035	e8 00 00 00 00	 call	 __invoke_watson
$LN7@Allocate_m:
  0003a	cc		 int	 3
??$_Allocate_manually_vector_aligned@U_Default_allocate_traits@std@@@std@@YAPAXI@Z ENDP ; std::_Allocate_manually_vector_aligned<std::_Default_allocate_traits>
_TEXT	ENDS
; Function compile flags: /Ogtp
;	COMDAT ??_GCTransformItemProperty@@UAEPAXI@Z
_TEXT	SEGMENT
___flags$ = 8						; size = 4
??_GCTransformItemProperty@@UAEPAXI@Z PROC		; CTransformItemProperty::`scalar deleting destructor', COMDAT
; _this$ = ecx
  00000	55		 push	 ebp
  00001	8b ec		 mov	 ebp, esp
  00003	56		 push	 esi
  00004	8b f1		 mov	 esi, ecx
  00006	e8 00 00 00 00	 call	 ??1CTransformItemProperty@@UAE@XZ ; CTransformItemProperty::~CTransformItemProperty
  0000b	f6 45 08 01	 test	 BYTE PTR ___flags$[ebp], 1
  0000f	74 0b		 je	 SHORT $LN5@scalar
  00011	6a 0c		 push	 12			; 0000000cH
  00013	56		 push	 esi
  00014	e8 00 00 00 00	 call	 ??3@YAXPAXI@Z		; operator delete
  00019	83 c4 08	 add	 esp, 8
$LN5@scalar:
  0001c	8b c6		 mov	 eax, esi
  0001e	5e		 pop	 esi
  0001f	5d		 pop	 ebp
  00020	c2 04 00	 ret	 4
??_GCTransformItemProperty@@UAEPAXI@Z ENDP		; CTransformItemProperty::`scalar deleting destructor'
_TEXT	ENDS
; Function compile flags: /Ogtp
; File C:\Program Files\Microsoft Visual Studio\2022\Professional\VC\Tools\MSVC\14.44.35207\include\xtree
;	COMDAT ?_Insert_node@?$_Tree_val@U?$_Tree_simple_types@U?$pair@$$CBHPAVCTransformItemComponent@@@std@@@std@@@std@@QAEPAU?$_Tree_node@U?$pair@$$CBHPAVCTransformItemComponent@@@std@@PAX@2@U?$_Tree_id@PAU?$_Tree_node@U?$pair@$$CBHPAVCTransformItemComponent@@@std@@PAX@std@@@2@QAU32@@Z
_TEXT	SEGMENT
__Head$1$ = -4						; size = 4
__Loc$ = 8						; size = 8
__Newnode$ = 16						; size = 4
?_Insert_node@?$_Tree_val@U?$_Tree_simple_types@U?$pair@$$CBHPAVCTransformItemComponent@@@std@@@std@@@std@@QAEPAU?$_Tree_node@U?$pair@$$CBHPAVCTransformItemComponent@@@std@@PAX@2@U?$_Tree_id@PAU?$_Tree_node@U?$pair@$$CBHPAVCTransformItemComponent@@@std@@PAX@std@@@2@QAU32@@Z PROC ; std::_Tree_val<std::_Tree_simple_types<std::pair<int const ,CTransformItemComponent *> > >::_Insert_node, COMDAT
; _this$ = ecx

; 669  :     _Nodeptr _Insert_node(const _Tree_id<_Nodeptr> _Loc, const _Nodeptr _Newnode) noexcept {

  00000	55		 push	 ebp
  00001	8b ec		 mov	 ebp, esp
  00003	51		 push	 ecx

; 670  :         ++_Mysize;
; 671  :         const auto _Head  = _Myhead;
; 672  :         _Newnode->_Parent = _Loc._Parent;

  00004	8b 55 08	 mov	 edx, DWORD PTR __Loc$[ebp]
  00007	53		 push	 ebx
  00008	8b d9		 mov	 ebx, ecx
  0000a	57		 push	 edi
  0000b	8b 7d 10	 mov	 edi, DWORD PTR __Newnode$[ebp]
  0000e	8b 03		 mov	 eax, DWORD PTR [ebx]
  00010	ff 43 04	 inc	 DWORD PTR [ebx+4]
  00013	89 45 fc	 mov	 DWORD PTR __Head$1$[ebp], eax
  00016	89 57 04	 mov	 DWORD PTR [edi+4], edx

; 673  :         if (_Loc._Parent == _Head) { // first node in tree, just set head values

  00019	3b d0		 cmp	 edx, eax
  0001b	75 16		 jne	 SHORT $LN5@Insert_nod

; 674  :             _Head->_Left     = _Newnode;

  0001d	89 38		 mov	 DWORD PTR [eax], edi

; 675  :             _Head->_Parent   = _Newnode;

  0001f	89 78 04	 mov	 DWORD PTR [eax+4], edi

; 676  :             _Head->_Right    = _Newnode;

  00022	89 78 08	 mov	 DWORD PTR [eax+8], edi

; 735  :         return _Newnode;
; 736  :     }

  00025	8b c7		 mov	 eax, edi
  00027	c6 47 0c 01	 mov	 BYTE PTR [edi+12], 1
  0002b	5f		 pop	 edi
  0002c	5b		 pop	 ebx
  0002d	8b e5		 mov	 esp, ebp
  0002f	5d		 pop	 ebp
  00030	c2 0c 00	 ret	 12			; 0000000cH
$LN5@Insert_nod:

; 677  :             _Newnode->_Color = _Black; // the root is black
; 678  :             return _Newnode;
; 679  :         }
; 680  : 
; 681  :         _STL_INTERNAL_CHECK(_Loc._Child != _Tree_child::_Unused);
; 682  :         if (_Loc._Child == _Tree_child::_Right) { // add to right of _Loc._Parent

  00033	83 7d 0c 00	 cmp	 DWORD PTR __Loc$[ebp+4], 0
  00037	75 0d		 jne	 SHORT $LN6@Insert_nod

; 683  :             _STL_INTERNAL_CHECK(_Loc._Parent->_Right->_Isnil);
; 684  :             _Loc._Parent->_Right = _Newnode;

  00039	89 7a 08	 mov	 DWORD PTR [edx+8], edi

; 685  :             if (_Loc._Parent == _Head->_Right) { // remember rightmost node

  0003c	3b 50 08	 cmp	 edx, DWORD PTR [eax+8]
  0003f	75 0d		 jne	 SHORT $LN9@Insert_nod

; 686  :                 _Head->_Right = _Newnode;

  00041	89 78 08	 mov	 DWORD PTR [eax+8], edi

; 687  :             }
; 688  :         } else { // add to left of _Loc._Parent

  00044	eb 08		 jmp	 SHORT $LN9@Insert_nod
$LN6@Insert_nod:

; 689  :             _STL_INTERNAL_CHECK(_Loc._Parent->_Left->_Isnil);
; 690  :             _Loc._Parent->_Left = _Newnode;

  00046	89 3a		 mov	 DWORD PTR [edx], edi

; 691  :             if (_Loc._Parent == _Head->_Left) { // remember leftmost node

  00048	3b 10		 cmp	 edx, DWORD PTR [eax]
  0004a	75 02		 jne	 SHORT $LN9@Insert_nod

; 692  :                 _Head->_Left = _Newnode;

  0004c	89 38		 mov	 DWORD PTR [eax], edi
$LN9@Insert_nod:

; 693  :             }
; 694  :         }
; 695  : 
; 696  :         for (_Nodeptr _Pnode = _Newnode; _Pnode->_Parent->_Color == _Red;) {

  0004e	8b 4f 04	 mov	 ecx, DWORD PTR [edi+4]
  00051	8b c7		 mov	 eax, edi
  00053	80 79 0c 00	 cmp	 BYTE PTR [ecx+12], 0
  00057	0f 85 7d 01 00
	00		 jne	 $LN3@Insert_nod
  0005d	56		 push	 esi
  0005e	66 90		 npad	 2
$LL4@Insert_nod:

; 697  :             if (_Pnode->_Parent == _Pnode->_Parent->_Parent->_Left) { // fixup red-red in left subtree

  00060	8b 50 04	 mov	 edx, DWORD PTR [eax+4]
  00063	8b 72 04	 mov	 esi, DWORD PTR [edx+4]
  00066	8b 0e		 mov	 ecx, DWORD PTR [esi]
  00068	3b d1		 cmp	 edx, ecx
  0006a	0f 85 aa 00 00
	00		 jne	 $LN10@Insert_nod

; 698  :                 const auto _Parent_sibling = _Pnode->_Parent->_Parent->_Right;

  00070	8b 4e 08	 mov	 ecx, DWORD PTR [esi+8]

; 699  :                 if (_Parent_sibling->_Color == _Red) { // parent's sibling has two red children, blacken both

  00073	80 79 0c 00	 cmp	 BYTE PTR [ecx+12], 0
  00077	0f 84 a3 00 00
	00		 je	 $LN82@Insert_nod

; 700  :                     _Pnode->_Parent->_Color          = _Black;
; 701  :                     _Parent_sibling->_Color          = _Black;
; 702  :                     _Pnode->_Parent->_Parent->_Color = _Red;
; 703  :                     _Pnode                           = _Pnode->_Parent->_Parent;
; 704  :                 } else { // parent's sibling has red and black children
; 705  :                     if (_Pnode == _Pnode->_Parent->_Right) { // rotate right child to left

  0007d	8b 72 08	 mov	 esi, DWORD PTR [edx+8]
  00080	3b c6		 cmp	 eax, esi
  00082	75 37		 jne	 SHORT $LN57@Insert_nod

; 485  :         _Wherenode->_Right = _Pnode->_Left;

  00084	8b 0e		 mov	 ecx, DWORD PTR [esi]

; 706  :                         _Pnode = _Pnode->_Parent;

  00086	8b c2		 mov	 eax, edx

; 485  :         _Wherenode->_Right = _Pnode->_Left;

  00088	89 4a 08	 mov	 DWORD PTR [edx+8], ecx

; 486  : 
; 487  :         if (!_Pnode->_Left->_Isnil) {

  0008b	8b 0e		 mov	 ecx, DWORD PTR [esi]
  0008d	80 79 0d 00	 cmp	 BYTE PTR [ecx+13], 0
  00091	75 03		 jne	 SHORT $LN21@Insert_nod

; 488  :             _Pnode->_Left->_Parent = _Wherenode;

  00093	89 41 04	 mov	 DWORD PTR [ecx+4], eax
$LN21@Insert_nod:

; 489  :         }
; 490  : 
; 491  :         _Pnode->_Parent = _Wherenode->_Parent;

  00096	8b 4a 04	 mov	 ecx, DWORD PTR [edx+4]
  00099	89 4e 04	 mov	 DWORD PTR [esi+4], ecx

; 492  : 
; 493  :         if (_Wherenode == _Myhead->_Parent) {

  0009c	8b 0b		 mov	 ecx, DWORD PTR [ebx]
  0009e	3b 41 04	 cmp	 eax, DWORD PTR [ecx+4]
  000a1	75 05		 jne	 SHORT $LN22@Insert_nod

; 494  :             _Myhead->_Parent = _Pnode;

  000a3	89 71 04	 mov	 DWORD PTR [ecx+4], esi
  000a6	eb 0e		 jmp	 SHORT $LN25@Insert_nod
$LN22@Insert_nod:

; 495  :         } else if (_Wherenode == _Wherenode->_Parent->_Left) {

  000a8	8b 4a 04	 mov	 ecx, DWORD PTR [edx+4]
  000ab	3b 01		 cmp	 eax, DWORD PTR [ecx]
  000ad	75 04		 jne	 SHORT $LN24@Insert_nod

; 496  :             _Wherenode->_Parent->_Left = _Pnode;

  000af	89 31		 mov	 DWORD PTR [ecx], esi

; 497  :         } else {

  000b1	eb 03		 jmp	 SHORT $LN25@Insert_nod
$LN24@Insert_nod:

; 498  :             _Wherenode->_Parent->_Right = _Pnode;

  000b3	89 71 08	 mov	 DWORD PTR [ecx+8], esi
$LN25@Insert_nod:

; 499  :         }
; 500  : 
; 501  :         _Pnode->_Left       = _Wherenode;

  000b6	89 06		 mov	 DWORD PTR [esi], eax

; 502  :         _Wherenode->_Parent = _Pnode;

  000b8	89 70 04	 mov	 DWORD PTR [eax+4], esi
$LN57@Insert_nod:

; 707  :                         _Lrotate(_Pnode);
; 708  :                     }
; 709  : 
; 710  :                     _Pnode->_Parent->_Color          = _Black; // propagate red up

  000bb	8b 48 04	 mov	 ecx, DWORD PTR [eax+4]
  000be	c6 41 0c 01	 mov	 BYTE PTR [ecx+12], 1

; 711  :                     _Pnode->_Parent->_Parent->_Color = _Red;

  000c2	8b 48 04	 mov	 ecx, DWORD PTR [eax+4]
  000c5	8b 49 04	 mov	 ecx, DWORD PTR [ecx+4]
  000c8	c6 41 0c 00	 mov	 BYTE PTR [ecx+12], 0

; 712  :                     _Rrotate(_Pnode->_Parent->_Parent);

  000cc	8b 48 04	 mov	 ecx, DWORD PTR [eax+4]
  000cf	8b 51 04	 mov	 edx, DWORD PTR [ecx+4]

; 506  :         _Nodeptr _Pnode   = _Wherenode->_Left;

  000d2	8b 32		 mov	 esi, DWORD PTR [edx]

; 507  :         _Wherenode->_Left = _Pnode->_Right;

  000d4	8b 4e 08	 mov	 ecx, DWORD PTR [esi+8]
  000d7	89 0a		 mov	 DWORD PTR [edx], ecx

; 508  : 
; 509  :         if (!_Pnode->_Right->_Isnil) {

  000d9	8b 4e 08	 mov	 ecx, DWORD PTR [esi+8]
  000dc	80 79 0d 00	 cmp	 BYTE PTR [ecx+13], 0
  000e0	75 03		 jne	 SHORT $LN29@Insert_nod

; 510  :             _Pnode->_Right->_Parent = _Wherenode;

  000e2	89 51 04	 mov	 DWORD PTR [ecx+4], edx
$LN29@Insert_nod:

; 511  :         }
; 512  : 
; 513  :         _Pnode->_Parent = _Wherenode->_Parent;

  000e5	8b 4a 04	 mov	 ecx, DWORD PTR [edx+4]
  000e8	89 4e 04	 mov	 DWORD PTR [esi+4], ecx

; 514  : 
; 515  :         if (_Wherenode == _Myhead->_Parent) {

  000eb	8b 0b		 mov	 ecx, DWORD PTR [ebx]
  000ed	3b 51 04	 cmp	 edx, DWORD PTR [ecx+4]
  000f0	75 0b		 jne	 SHORT $LN30@Insert_nod

; 516  :             _Myhead->_Parent = _Pnode;

  000f2	89 71 04	 mov	 DWORD PTR [ecx+4], esi

; 521  :         }
; 522  : 
; 523  :         _Pnode->_Right      = _Wherenode;

  000f5	89 56 08	 mov	 DWORD PTR [esi+8], edx

; 713  :                 }
; 714  :             } else { // fixup red-red in right subtree

  000f8	e9 cc 00 00 00	 jmp	 $LN81@Insert_nod
$LN30@Insert_nod:

; 517  :         } else if (_Wherenode == _Wherenode->_Parent->_Right) {

  000fd	8b 4a 04	 mov	 ecx, DWORD PTR [edx+4]
  00100	3b 51 08	 cmp	 edx, DWORD PTR [ecx+8]
  00103	75 0b		 jne	 SHORT $LN32@Insert_nod

; 518  :             _Wherenode->_Parent->_Right = _Pnode;

  00105	89 71 08	 mov	 DWORD PTR [ecx+8], esi

; 521  :         }
; 522  : 
; 523  :         _Pnode->_Right      = _Wherenode;

  00108	89 56 08	 mov	 DWORD PTR [esi+8], edx

; 713  :                 }
; 714  :             } else { // fixup red-red in right subtree

  0010b	e9 b9 00 00 00	 jmp	 $LN81@Insert_nod
$LN32@Insert_nod:

; 520  :             _Wherenode->_Parent->_Left = _Pnode;

  00110	89 31		 mov	 DWORD PTR [ecx], esi

; 521  :         }
; 522  : 
; 523  :         _Pnode->_Right      = _Wherenode;

  00112	89 56 08	 mov	 DWORD PTR [esi+8], edx

; 713  :                 }
; 714  :             } else { // fixup red-red in right subtree

  00115	e9 af 00 00 00	 jmp	 $LN81@Insert_nod
$LN10@Insert_nod:

; 715  :                 const auto _Parent_sibling = _Pnode->_Parent->_Parent->_Left;
; 716  :                 if (_Parent_sibling->_Color == _Red) { // parent's sibling has two red children, blacken both

  0011a	80 79 0c 00	 cmp	 BYTE PTR [ecx+12], 0
  0011e	75 1d		 jne	 SHORT $LN15@Insert_nod
$LN82@Insert_nod:

; 693  :             }
; 694  :         }
; 695  : 
; 696  :         for (_Nodeptr _Pnode = _Newnode; _Pnode->_Parent->_Color == _Red;) {

  00120	c6 42 0c 01	 mov	 BYTE PTR [edx+12], 1
  00124	c6 41 0c 01	 mov	 BYTE PTR [ecx+12], 1
  00128	8b 48 04	 mov	 ecx, DWORD PTR [eax+4]
  0012b	8b 49 04	 mov	 ecx, DWORD PTR [ecx+4]
  0012e	c6 41 0c 00	 mov	 BYTE PTR [ecx+12], 0
  00132	8b 48 04	 mov	 ecx, DWORD PTR [eax+4]
  00135	8b 41 04	 mov	 eax, DWORD PTR [ecx+4]
  00138	e9 8f 00 00 00	 jmp	 $LN2@Insert_nod
$LN15@Insert_nod:

; 717  :                     _Pnode->_Parent->_Color          = _Black;
; 718  :                     _Parent_sibling->_Color          = _Black;
; 719  :                     _Pnode->_Parent->_Parent->_Color = _Red;
; 720  :                     _Pnode                           = _Pnode->_Parent->_Parent;
; 721  :                 } else { // parent's sibling has red and black children
; 722  :                     if (_Pnode == _Pnode->_Parent->_Left) { // rotate left child to right

  0013d	8b 32		 mov	 esi, DWORD PTR [edx]
  0013f	3b c6		 cmp	 eax, esi
  00141	75 3a		 jne	 SHORT $LN42@Insert_nod

; 507  :         _Wherenode->_Left = _Pnode->_Right;

  00143	8b 4e 08	 mov	 ecx, DWORD PTR [esi+8]

; 723  :                         _Pnode = _Pnode->_Parent;

  00146	8b c2		 mov	 eax, edx

; 507  :         _Wherenode->_Left = _Pnode->_Right;

  00148	89 08		 mov	 DWORD PTR [eax], ecx

; 508  : 
; 509  :         if (!_Pnode->_Right->_Isnil) {

  0014a	8b 4e 08	 mov	 ecx, DWORD PTR [esi+8]
  0014d	80 79 0d 00	 cmp	 BYTE PTR [ecx+13], 0
  00151	75 03		 jne	 SHORT $LN37@Insert_nod

; 510  :             _Pnode->_Right->_Parent = _Wherenode;

  00153	89 41 04	 mov	 DWORD PTR [ecx+4], eax
$LN37@Insert_nod:

; 511  :         }
; 512  : 
; 513  :         _Pnode->_Parent = _Wherenode->_Parent;

  00156	8b 4a 04	 mov	 ecx, DWORD PTR [edx+4]
  00159	89 4e 04	 mov	 DWORD PTR [esi+4], ecx

; 514  : 
; 515  :         if (_Wherenode == _Myhead->_Parent) {

  0015c	8b 0b		 mov	 ecx, DWORD PTR [ebx]
  0015e	3b 41 04	 cmp	 eax, DWORD PTR [ecx+4]
  00161	75 05		 jne	 SHORT $LN38@Insert_nod

; 516  :             _Myhead->_Parent = _Pnode;

  00163	89 71 04	 mov	 DWORD PTR [ecx+4], esi
  00166	eb 0f		 jmp	 SHORT $LN41@Insert_nod
$LN38@Insert_nod:

; 517  :         } else if (_Wherenode == _Wherenode->_Parent->_Right) {

  00168	8b 4a 04	 mov	 ecx, DWORD PTR [edx+4]
  0016b	3b 41 08	 cmp	 eax, DWORD PTR [ecx+8]
  0016e	75 05		 jne	 SHORT $LN40@Insert_nod

; 518  :             _Wherenode->_Parent->_Right = _Pnode;

  00170	89 71 08	 mov	 DWORD PTR [ecx+8], esi

; 519  :         } else {

  00173	eb 02		 jmp	 SHORT $LN41@Insert_nod
$LN40@Insert_nod:

; 520  :             _Wherenode->_Parent->_Left = _Pnode;

  00175	89 31		 mov	 DWORD PTR [ecx], esi
$LN41@Insert_nod:

; 521  :         }
; 522  : 
; 523  :         _Pnode->_Right      = _Wherenode;

  00177	89 46 08	 mov	 DWORD PTR [esi+8], eax

; 524  :         _Wherenode->_Parent = _Pnode;

  0017a	89 70 04	 mov	 DWORD PTR [eax+4], esi
$LN42@Insert_nod:

; 724  :                         _Rrotate(_Pnode);
; 725  :                     }
; 726  : 
; 727  :                     _Pnode->_Parent->_Color          = _Black; // propagate red up

  0017d	8b 48 04	 mov	 ecx, DWORD PTR [eax+4]
  00180	c6 41 0c 01	 mov	 BYTE PTR [ecx+12], 1

; 728  :                     _Pnode->_Parent->_Parent->_Color = _Red;

  00184	8b 48 04	 mov	 ecx, DWORD PTR [eax+4]
  00187	8b 49 04	 mov	 ecx, DWORD PTR [ecx+4]
  0018a	c6 41 0c 00	 mov	 BYTE PTR [ecx+12], 0

; 729  :                     _Lrotate(_Pnode->_Parent->_Parent);

  0018e	8b 48 04	 mov	 ecx, DWORD PTR [eax+4]
  00191	8b 51 04	 mov	 edx, DWORD PTR [ecx+4]

; 484  :         _Nodeptr _Pnode    = _Wherenode->_Right;

  00194	8b 72 08	 mov	 esi, DWORD PTR [edx+8]

; 485  :         _Wherenode->_Right = _Pnode->_Left;

  00197	8b 0e		 mov	 ecx, DWORD PTR [esi]
  00199	89 4a 08	 mov	 DWORD PTR [edx+8], ecx

; 486  : 
; 487  :         if (!_Pnode->_Left->_Isnil) {

  0019c	8b 0e		 mov	 ecx, DWORD PTR [esi]
  0019e	80 79 0d 00	 cmp	 BYTE PTR [ecx+13], 0
  001a2	75 03		 jne	 SHORT $LN45@Insert_nod

; 488  :             _Pnode->_Left->_Parent = _Wherenode;

  001a4	89 51 04	 mov	 DWORD PTR [ecx+4], edx
$LN45@Insert_nod:

; 489  :         }
; 490  : 
; 491  :         _Pnode->_Parent = _Wherenode->_Parent;

  001a7	8b 4a 04	 mov	 ecx, DWORD PTR [edx+4]
  001aa	89 4e 04	 mov	 DWORD PTR [esi+4], ecx

; 492  : 
; 493  :         if (_Wherenode == _Myhead->_Parent) {

  001ad	8b 0b		 mov	 ecx, DWORD PTR [ebx]
  001af	3b 51 04	 cmp	 edx, DWORD PTR [ecx+4]
  001b2	75 05		 jne	 SHORT $LN46@Insert_nod

; 494  :             _Myhead->_Parent = _Pnode;

  001b4	89 71 04	 mov	 DWORD PTR [ecx+4], esi
  001b7	eb 0e		 jmp	 SHORT $LN49@Insert_nod
$LN46@Insert_nod:

; 495  :         } else if (_Wherenode == _Wherenode->_Parent->_Left) {

  001b9	8b 4a 04	 mov	 ecx, DWORD PTR [edx+4]
  001bc	3b 11		 cmp	 edx, DWORD PTR [ecx]
  001be	75 04		 jne	 SHORT $LN48@Insert_nod

; 496  :             _Wherenode->_Parent->_Left = _Pnode;

  001c0	89 31		 mov	 DWORD PTR [ecx], esi

; 497  :         } else {

  001c2	eb 03		 jmp	 SHORT $LN49@Insert_nod
$LN48@Insert_nod:

; 498  :             _Wherenode->_Parent->_Right = _Pnode;

  001c4	89 71 08	 mov	 DWORD PTR [ecx+8], esi
$LN49@Insert_nod:

; 499  :         }
; 500  : 
; 501  :         _Pnode->_Left       = _Wherenode;

  001c7	89 16		 mov	 DWORD PTR [esi], edx
$LN81@Insert_nod:

; 693  :             }
; 694  :         }
; 695  : 
; 696  :         for (_Nodeptr _Pnode = _Newnode; _Pnode->_Parent->_Color == _Red;) {

  001c9	89 72 04	 mov	 DWORD PTR [edx+4], esi
$LN2@Insert_nod:
  001cc	8b 48 04	 mov	 ecx, DWORD PTR [eax+4]
  001cf	80 79 0c 00	 cmp	 BYTE PTR [ecx+12], 0
  001d3	0f 84 87 fe ff
	ff		 je	 $LL4@Insert_nod
  001d9	5e		 pop	 esi
$LN3@Insert_nod:

; 730  :                 }
; 731  :             }
; 732  :         }
; 733  : 
; 734  :         _Head->_Parent->_Color = _Black; // root is always black

  001da	8b 45 fc	 mov	 eax, DWORD PTR __Head$1$[ebp]
  001dd	8b 40 04	 mov	 eax, DWORD PTR [eax+4]
  001e0	c6 40 0c 01	 mov	 BYTE PTR [eax+12], 1

; 735  :         return _Newnode;
; 736  :     }

  001e4	8b c7		 mov	 eax, edi
  001e6	5f		 pop	 edi
  001e7	5b		 pop	 ebx
  001e8	8b e5		 mov	 esp, ebp
  001ea	5d		 pop	 ebp
  001eb	c2 0c 00	 ret	 12			; 0000000cH
?_Insert_node@?$_Tree_val@U?$_Tree_simple_types@U?$pair@$$CBHPAVCTransformItemComponent@@@std@@@std@@@std@@QAEPAU?$_Tree_node@U?$pair@$$CBHPAVCTransformItemComponent@@@std@@PAX@2@U?$_Tree_id@PAU?$_Tree_node@U?$pair@$$CBHPAVCTransformItemComponent@@@std@@PAX@std@@@2@QAU32@@Z ENDP ; std::_Tree_val<std::_Tree_simple_types<std::pair<int const ,CTransformItemComponent *> > >::_Insert_node
_TEXT	ENDS
; Function compile flags: /Ogtp
; File C:\Program Files\Microsoft Visual Studio\2022\Professional\VC\Tools\MSVC\14.44.35207\include\xtree
; File C:\Program Files\Microsoft Visual Studio\2022\Professional\VC\Tools\MSVC\14.44.35207\include\utility
; File C:\Program Files\Microsoft Visual Studio\2022\Professional\VC\Tools\MSVC\14.44.35207\include\xmemory
; File C:\Program Files\Microsoft Visual Studio\2022\Professional\VC\Tools\MSVC\14.44.35207\include\xtree
; File C:\Program Files\Microsoft Visual Studio\2022\Professional\VC\Tools\MSVC\14.44.35207\include\xmemory
; File C:\Program Files\Microsoft Visual Studio\2022\Professional\VC\Tools\MSVC\14.44.35207\include\xtree
;	COMDAT ??1?$_Tree@V?$_Tmap_traits@HPAVCTransformItemComponent@@U?$less@H@std@@V?$allocator@U?$pair@$$CBHPAVCTransformItemComponent@@@std@@@3@$0A@@std@@@std@@QAE@XZ
_TEXT	SEGMENT
??1?$_Tree@V?$_Tmap_traits@HPAVCTransformItemComponent@@U?$less@H@std@@V?$allocator@U?$pair@$$CBHPAVCTransformItemComponent@@@std@@@3@$0A@@std@@@std@@QAE@XZ PROC ; std::_Tree<std::_Tmap_traits<int,CTransformItemComponent *,std::less<int>,std::allocator<std::pair<int const ,CTransformItemComponent *> >,0> >::~_Tree<std::_Tmap_traits<int,CTransformItemComponent *,std::less<int>,std::allocator<std::pair<int const ,CTransformItemComponent *> >,0> >, COMDAT
; _this$ = ecx

; 1095 :     ~_Tree() noexcept {

  00000	56		 push	 esi
  00001	57		 push	 edi
  00002	8b f9		 mov	 edi, ecx

; 777  :         _Erase_tree(_Al, _Myhead->_Parent);

  00004	8b 37		 mov	 esi, DWORD PTR [edi]
  00006	8b 76 04	 mov	 esi, DWORD PTR [esi+4]

; 768  :         while (!_Rootnode->_Isnil) { // free subtrees, then node

  00009	80 7e 0d 00	 cmp	 BYTE PTR [esi+13], 0
  0000d	75 21		 jne	 SHORT $LN61@Tree
  0000f	90		 npad	 1
$LL8@Tree:

; 769  :             _Erase_tree(_Al, _Rootnode->_Right);

  00010	ff 76 08	 push	 DWORD PTR [esi+8]
  00013	8b cf		 mov	 ecx, edi
  00015	57		 push	 edi
  00016	e8 00 00 00 00	 call	 ??$_Erase_tree@V?$allocator@U?$_Tree_node@U?$pair@$$CBHPAVCTransformItemComponent@@@std@@PAX@std@@@std@@@?$_Tree_val@U?$_Tree_simple_types@U?$pair@$$CBHPAVCTransformItemComponent@@@std@@@std@@@std@@QAEXAAV?$allocator@U?$_Tree_node@U?$pair@$$CBHPAVCTransformItemComponent@@@std@@PAX@std@@@1@PAU?$_Tree_node@U?$pair@$$CBHPAVCTransformItemComponent@@@std@@PAX@1@@Z ; std::_Tree_val<std::_Tree_simple_types<std::pair<int const ,CTransformItemComponent *> > >::_Erase_tree<std::allocator<std::_Tree_node<std::pair<int const ,CTransformItemComponent *>,void *> > >
; File C:\Program Files\Microsoft Visual Studio\2022\Professional\VC\Tools\MSVC\14.44.35207\include\utility

; 773  :     _Ty _Old_val = static_cast<_Ty&&>(_Val);

  0001b	8b c6		 mov	 eax, esi

; 774  :     _Val         = static_cast<_Other&&>(_New_val);

  0001d	8b 36		 mov	 esi, DWORD PTR [esi]
; File C:\Program Files\Microsoft Visual Studio\2022\Professional\VC\Tools\MSVC\14.44.35207\include\xmemory

; 289  :         ::operator delete(_Ptr, _Bytes);

  0001f	6a 18		 push	 24			; 00000018H
  00021	50		 push	 eax
  00022	e8 00 00 00 00	 call	 ??3@YAXPAXI@Z		; operator delete
  00027	83 c4 08	 add	 esp, 8
; File C:\Program Files\Microsoft Visual Studio\2022\Professional\VC\Tools\MSVC\14.44.35207\include\xtree

; 768  :         while (!_Rootnode->_Isnil) { // free subtrees, then node

  0002a	80 7e 0d 00	 cmp	 BYTE PTR [esi+13], 0
  0002e	74 e0		 je	 SHORT $LL8@Tree
$LN61@Tree:
; File C:\Program Files\Microsoft Visual Studio\2022\Professional\VC\Tools\MSVC\14.44.35207\include\xmemory

; 289  :         ::operator delete(_Ptr, _Bytes);

  00030	6a 18		 push	 24			; 00000018H
  00032	ff 37		 push	 DWORD PTR [edi]
  00034	e8 00 00 00 00	 call	 ??3@YAXPAXI@Z		; operator delete
  00039	83 c4 08	 add	 esp, 8
  0003c	5f		 pop	 edi
  0003d	5e		 pop	 esi
; File C:\Program Files\Microsoft Visual Studio\2022\Professional\VC\Tools\MSVC\14.44.35207\include\xtree

; 1102 :     }

  0003e	c3		 ret	 0
??1?$_Tree@V?$_Tmap_traits@HPAVCTransformItemComponent@@U?$less@H@std@@V?$allocator@U?$pair@$$CBHPAVCTransformItemComponent@@@std@@@3@$0A@@std@@@std@@QAE@XZ ENDP ; std::_Tree<std::_Tmap_traits<int,CTransformItemComponent *,std::less<int>,std::allocator<std::pair<int const ,CTransformItemComponent *> >,0> >::~_Tree<std::_Tmap_traits<int,CTransformItemComponent *,std::less<int>,std::allocator<std::pair<int const ,CTransformItemComponent *> >,0> >
_TEXT	ENDS
; Function compile flags: /Ogtp
; File C:\IAGOS\server\v18\Source\Source\_Common\pet.cpp
; File C:\Program Files\Microsoft Visual Studio\2022\Professional\VC\Tools\MSVC\14.44.35207\include\xtree
; File C:\IAGOS\server\v18\Source\Source\_Common\pet.cpp
; File C:\Program Files\Microsoft Visual Studio\2022\Professional\VC\Tools\MSVC\14.44.35207\include\xtree
; File C:\Program Files\Microsoft Visual Studio\2022\Professional\VC\Tools\MSVC\14.44.35207\include\type_traits
; File C:\Program Files\Microsoft Visual Studio\2022\Professional\VC\Tools\MSVC\14.44.35207\include\xtree
; File C:\IAGOS\server\v18\Source\Source\_Common\pet.cpp
;	COMDAT ?GetComponent@CTransformItemProperty@@AAEPAVCTransformItemComponent@@H@Z
_TEXT	SEGMENT
__Loc$1 = -12						; size = 12
_nTransform$ = 8					; size = 4
?GetComponent@CTransformItemProperty@@AAEPAVCTransformItemComponent@@H@Z PROC ; CTransformItemProperty::GetComponent, COMDAT
; _this$ = ecx

; 981  : {

  00000	55		 push	 ebp
  00001	8b ec		 mov	 ebp, esp
  00003	83 ec 0c	 sub	 esp, 12			; 0000000cH
  00006	56		 push	 esi
; File C:\Program Files\Microsoft Visual Studio\2022\Professional\VC\Tools\MSVC\14.44.35207\include\xtree

; 1384 :         const _Tree_find_result<_Nodeptr> _Loc = _Find_lower_bound(_Keyval);

  00007	8d 45 08	 lea	 eax, DWORD PTR _nTransform$[ebp]
  0000a	50		 push	 eax
; File C:\IAGOS\server\v18\Source\Source\_Common\pet.cpp

; 982  : 	MPTIC::iterator i	= m_mapComponents.find( nTransform );

  0000b	8d 71 04	 lea	 esi, DWORD PTR [ecx+4]
; File C:\Program Files\Microsoft Visual Studio\2022\Professional\VC\Tools\MSVC\14.44.35207\include\xtree

; 1384 :         const _Tree_find_result<_Nodeptr> _Loc = _Find_lower_bound(_Keyval);

  0000e	8d 45 f4	 lea	 eax, DWORD PTR __Loc$1[ebp]
  00011	8b ce		 mov	 ecx, esi
  00013	50		 push	 eax
  00014	e8 00 00 00 00	 call	 ??$_Find_lower_bound@H@?$_Tree@V?$_Tmap_traits@HPAVCTransformItemComponent@@U?$less@H@std@@V?$allocator@U?$pair@$$CBHPAVCTransformItemComponent@@@std@@@3@$0A@@std@@@std@@IBE?AU?$_Tree_find_result@PAU?$_Tree_node@U?$pair@$$CBHPAVCTransformItemComponent@@@std@@PAX@std@@@1@ABH@Z ; std::_Tree<std::_Tmap_traits<int,CTransformItemComponent *,std::less<int>,std::allocator<std::pair<int const ,CTransformItemComponent *> >,0> >::_Find_lower_bound<int>

; 1624 :         return !_Bound->_Isnil && !_DEBUG_LT_PRED(_Getcomp(), _Keyval, _Traits::_Kfn(_Bound->_Myval));

  00019	8b 45 fc	 mov	 eax, DWORD PTR __Loc$1[ebp+8]
  0001c	80 78 0d 00	 cmp	 BYTE PTR [eax+13], 0
  00020	75 16		 jne	 SHORT $LN2@GetCompone
; File C:\Program Files\Microsoft Visual Studio\2022\Professional\VC\Tools\MSVC\14.44.35207\include\type_traits

; 2380 :         return _Left < _Right;

  00022	8b 4d 08	 mov	 ecx, DWORD PTR _nTransform$[ebp]
  00025	3b 48 10	 cmp	 ecx, DWORD PTR [eax+16]
; File C:\Program Files\Microsoft Visual Studio\2022\Professional\VC\Tools\MSVC\14.44.35207\include\xtree

; 1624 :         return !_Bound->_Isnil && !_DEBUG_LT_PRED(_Getcomp(), _Keyval, _Traits::_Kfn(_Bound->_Myval));

  00028	7c 0e		 jl	 SHORT $LN2@GetCompone

; 37   :     _Tree_unchecked_const_iterator(_Nodeptr _Pnode, const _Mytree* _Plist) noexcept : _Ptr(_Pnode) {

  0002a	3b 06		 cmp	 eax, DWORD PTR [esi]
; File C:\IAGOS\server\v18\Source\Source\_Common\pet.cpp

; 983  : 	if( i != m_mapComponents.end() )

  0002c	74 0a		 je	 SHORT $LN2@GetCompone

; 984  : 		return i->second;

  0002e	8b 40 14	 mov	 eax, DWORD PTR [eax+20]
  00031	5e		 pop	 esi

; 986  : }

  00032	8b e5		 mov	 esp, ebp
  00034	5d		 pop	 ebp
  00035	c2 04 00	 ret	 4
$LN2@GetCompone:

; 985  : 	return NULL;

  00038	33 c0		 xor	 eax, eax
  0003a	5e		 pop	 esi

; 986  : }

  0003b	8b e5		 mov	 esp, ebp
  0003d	5d		 pop	 ebp
  0003e	c2 04 00	 ret	 4
?GetComponent@CTransformItemProperty@@AAEPAVCTransformItemComponent@@H@Z ENDP ; CTransformItemProperty::GetComponent
_TEXT	ENDS
; Function compile flags: /Ogtp
; File C:\IAGOS\server\v18\Source\Source\_Common\pet.cpp
; File C:\IAGOS\server\v18\Source\Source\_Common\pet.h
; File C:\IAGOS\server\v18\Source\Source\_Common\pet.cpp
; File C:\IAGOS\server\v18\Source\Source\_Common\pet.h
; File C:\IAGOS\server\v18\Source\Source\_Common\pet.cpp
; File C:\Program Files\Microsoft Visual Studio\2022\Professional\VC\Tools\MSVC\14.44.35207\atlmfc\include\atlsimpstr.h
; File C:\IAGOS\server\v18\Source\Source\_Common\pet.cpp
; File C:\IAGOS\server\v18\Source\Source\_Common\pet.h
; File C:\IAGOS\server\v18\Source\Source\_Common\pet.cpp
; File C:\IAGOS\server\v18\Source\Source\_Common\pet.h
; File C:\IAGOS\server\v18\Source\Source\_Common\pet.cpp
; File C:\IAGOS\server\v18\Source\Source\_Common\pet.h
; File C:\IAGOS\server\v18\Source\Source\_Common\pet.cpp
; File C:\IAGOS\server\v18\Source\Source\_Common\pet.h
; File C:\IAGOS\server\v18\Source\Source\_Common\pet.cpp
; File C:\Program Files\Microsoft Visual Studio\2022\Professional\VC\Tools\MSVC\14.44.35207\atlmfc\include\atlsimpstr.h
; File C:\IAGOS\server\v18\Source\Source\_Common\pet.cpp
;	COMDAT ?CreateItemPet@CTransformItemProperty@@QAEPAVCItemElem@@AAVCScript@@@Z
_TEXT	SEGMENT
$T2 = -36						; size = 4
$T3 = -36						; size = 4
_s$GSCopy$1$ = -32					; size = 4
tv621 = -32						; size = 4
tv623 = -32						; size = 4
_sAvail$ = -28						; size = 2
$T4 = -24						; size = 4
_anAvail$ = -24						; size = 5
__$ArrayPad$ = -16					; size = 4
__$EHRec$ = -12						; size = 12
_s$ = 8							; size = 4
?CreateItemPet@CTransformItemProperty@@QAEPAVCItemElem@@AAVCScript@@@Z PROC ; CTransformItemProperty::CreateItemPet, COMDAT
; _this$ = ecx

; 943  : {

  00000	55		 push	 ebp
  00001	8b ec		 mov	 ebp, esp
  00003	6a ff		 push	 -1
  00005	68 00 00 00 00	 push	 __ehhandler$?CreateItemPet@CTransformItemProperty@@QAEPAVCItemElem@@AAVCScript@@@Z
  0000a	64 a1 00 00 00
	00		 mov	 eax, DWORD PTR fs:0
  00010	50		 push	 eax
  00011	83 ec 18	 sub	 esp, 24			; 00000018H
  00014	a1 00 00 00 00	 mov	 eax, DWORD PTR ___security_cookie
  00019	33 c5		 xor	 eax, ebp
  0001b	89 45 f0	 mov	 DWORD PTR __$ArrayPad$[ebp], eax
  0001e	53		 push	 ebx
  0001f	56		 push	 esi
  00020	57		 push	 edi
  00021	50		 push	 eax
  00022	8d 45 f4	 lea	 eax, DWORD PTR __$EHRec$[ebp]
  00025	64 a3 00 00 00
	00		 mov	 DWORD PTR fs:0, eax
  0002b	8b 5d 08	 mov	 ebx, DWORD PTR _s$[ebp]

; 944  : 	CItemElem* pItem	= new CItemElem;

  0002e	68 b0 00 00 00	 push	 176			; 000000b0H
  00033	89 5d e0	 mov	 DWORD PTR _s$GSCopy$1$[ebp], ebx
  00036	e8 00 00 00 00	 call	 ??2@YAPAXI@Z		; operator new
  0003b	83 c4 04	 add	 esp, 4
  0003e	89 45 dc	 mov	 DWORD PTR $T2[ebp], eax
  00041	c7 45 fc 00 00
	00 00		 mov	 DWORD PTR __$EHRec$[ebp+8], 0
  00048	85 c0		 test	 eax, eax
  0004a	74 0e		 je	 SHORT $LN14@CreateItem
  0004c	8b c8		 mov	 ecx, eax
  0004e	e8 00 00 00 00	 call	 ??0CItemElem@@QAE@XZ	; CItemElem::CItemElem
  00053	8b f0		 mov	 esi, eax
  00055	89 45 dc	 mov	 DWORD PTR $T3[ebp], eax
  00058	eb 05		 jmp	 SHORT $LN15@CreateItem
$LN14@CreateItem:
  0005a	33 f6		 xor	 esi, esi
  0005c	89 75 dc	 mov	 DWORD PTR $T3[ebp], esi
$LN15@CreateItem:

; 945  : 	pItem->m_nItemNum	= 1;

  0005f	b8 01 00 00 00	 mov	 eax, 1
  00064	c7 45 fc ff ff
	ff ff		 mov	 DWORD PTR __$EHRec$[ebp+8], -1

; 946  : 	CPet* pPet	= pItem->m_pPet	= new CPet;

  0006b	6a 28		 push	 40			; 00000028H
  0006d	66 89 46 74	 mov	 WORD PTR [esi+116], ax
  00071	e8 00 00 00 00	 call	 ??2@YAPAXI@Z		; operator new
  00076	83 c4 04	 add	 esp, 4
  00079	89 45 e8	 mov	 DWORD PTR $T4[ebp], eax
  0007c	85 c0		 test	 eax, eax
  0007e	74 0b		 je	 SHORT $LN16@CreateItem
  00080	8b c8		 mov	 ecx, eax
  00082	e8 00 00 00 00	 call	 ??0CPet@@QAE@XZ		; CPet::CPet
  00087	8b f8		 mov	 edi, eax
  00089	eb 02		 jmp	 SHORT $LN17@CreateItem
$LN16@CreateItem:
  0008b	33 ff		 xor	 edi, edi
$LN17@CreateItem:

; 947  : 	pPet->SetKind( s.GetNumber() );

  0008d	6a 00		 push	 0
  0008f	8b cb		 mov	 ecx, ebx
  00091	89 be a0 00 00
	00		 mov	 DWORD PTR [esi+160], edi
  00097	e8 00 00 00 00	 call	 ?GetNumber@CScanner@@QAEHH@Z ; CScanner::GetNumber
; File C:\IAGOS\server\v18\Source\Source\_Common\pet.h

; 127  : 	void	SetKind( BYTE nKind )	{	m_nKind	= nKind;	}

  0009c	88 47 04	 mov	 BYTE PTR [edi+4], al
; File C:\IAGOS\server\v18\Source\Source\_Common\pet.cpp

; 948  : 	s.GetToken();

  0009f	8b cb		 mov	 ecx, ebx
  000a1	8b 03		 mov	 eax, DWORD PTR [ebx]
  000a3	6a 00		 push	 0
  000a5	ff 50 14	 call	 DWORD PTR [eax+20]

; 949  : 	pPet->SetLevel( s.Token.GetLength() );

  000a8	8b 43 20	 mov	 eax, DWORD PTR [ebx+32]
  000ab	8a 40 f4	 mov	 al, BYTE PTR [eax-12]
  000ae	88 47 05	 mov	 BYTE PTR [edi+5], al
; File C:\IAGOS\server\v18\Source\Source\_Common\pet.h

; 149  : 			if( m_nLevel == PL_EGG )

  000b1	84 c0		 test	 al, al
  000b3	75 07		 jne	 SHORT $LN31@CreateItem

; 150  : 				return II_PET_EGG;

  000b5	b8 25 52 00 00	 mov	 eax, 21029		; 00005225H
  000ba	eb 13		 jmp	 SHORT $LN30@CreateItem
$LN31@CreateItem:

; 151  : 			return( CPetProperty::GetInstance()->GetAvailParam( m_nKind )->m_dwItemId );

  000bc	8a 47 04	 mov	 al, BYTE PTR [edi+4]
  000bf	50		 push	 eax
  000c0	e8 00 00 00 00	 call	 ?GetInstance@CPetProperty@@SAPAV1@XZ ; CPetProperty::GetInstance
  000c5	8b c8		 mov	 ecx, eax
  000c7	e8 00 00 00 00	 call	 ?GetAvailParam@CPetProperty@@QAEPAU_PETAVAILPARAM@@E@Z ; CPetProperty::GetAvailParam
  000cc	8b 40 28	 mov	 eax, DWORD PTR [eax+40]
$LN30@CreateItem:
; File C:\IAGOS\server\v18\Source\Source\_Common\pet.cpp

; 950  : 	pItem->m_dwItemId	= pPet->GetItemId();

  000cf	89 46 0c	 mov	 DWORD PTR [esi+12], eax

; 951  : 	BYTE anAvail[PL_MAX - 1]	= { 0,};
; 952  : 	char sAvail[2]	= { 0,};

  000d2	33 c0		 xor	 eax, eax
  000d4	66 89 45 e4	 mov	 WORD PTR _sAvail$[ebp], ax

; 953  : 	for( int i = 0; i < pPet->GetLevel(); i++ )

  000d8	33 f6		 xor	 esi, esi
  000da	8a 4f 05	 mov	 cl, BYTE PTR [edi+5]
  000dd	c7 45 e8 00 00
	00 00		 mov	 DWORD PTR _anAvail$[ebp], 0
  000e4	c6 45 ec 00	 mov	 BYTE PTR _anAvail$[ebp+4], 0
  000e8	84 c9		 test	 cl, cl
  000ea	74 47		 je	 SHORT $LN3@CreateItem
  000ec	0f 1f 40 00	 npad	 4
$LL4@CreateItem:
; File C:\Program Files\Microsoft Visual Studio\2022\Professional\VC\Tools\MSVC\14.44.35207\atlmfc\include\atlsimpstr.h

; 495  : 		if( (iChar < 0) || (iChar > GetLength()) )

  000f0	85 f6		 test	 esi, esi
  000f2	0f 88 16 01 00
	00		 js	 $LN51@CreateItem

; 523  : 		return( GetData()->nDataLength );

  000f8	8b 43 20	 mov	 eax, DWORD PTR [ebx+32]

; 495  : 		if( (iChar < 0) || (iChar > GetLength()) )

  000fb	3b 70 f4	 cmp	 esi, DWORD PTR [eax-12]
  000fe	0f 8f 0a 01 00
	00		 jg	 $LN51@CreateItem
; File C:\IAGOS\server\v18\Source\Source\_Common\pet.cpp

; 955  : 		sAvail[0]	= s.Token.GetAt( i );

  00104	8a 04 30	 mov	 al, BYTE PTR [eax+esi]
  00107	88 45 e4	 mov	 BYTE PTR _sAvail$[ebp], al

; 956  : 		sAvail[1]	= '\0';
; 957  : 		anAvail[i]	= atoi( sAvail );

  0010a	8d 45 e4	 lea	 eax, DWORD PTR _sAvail$[ebp]
  0010d	50		 push	 eax
  0010e	c6 45 e5 00	 mov	 BYTE PTR _sAvail$[ebp+1], 0
  00112	e8 00 00 00 00	 call	 _atoi
  00117	88 44 35 e8	 mov	 BYTE PTR _anAvail$[ebp+esi], al
  0011b	83 c4 04	 add	 esp, 4

; 958  : 		if( anAvail[i] < 1 || anAvail[i] > 9 )

  0011e	fe c8		 dec	 al
  00120	3c 08		 cmp	 al, 8
  00122	0f 87 d9 00 00
	00		 ja	 $LN52@CreateItem

; 953  : 	for( int i = 0; i < pPet->GetLevel(); i++ )

  00128	8a 4f 05	 mov	 cl, BYTE PTR [edi+5]
  0012b	46		 inc	 esi
  0012c	0f b6 c1	 movzx	 eax, cl
  0012f	3b f0		 cmp	 esi, eax
  00131	7c bd		 jl	 SHORT $LL4@CreateItem
$LN3@CreateItem:

; 962  : 		}
; 963  : 	}
; 964  : 	for( int i = PL_D; i <= pPet->GetLevel(); i++ )

  00133	be 01 00 00 00	 mov	 esi, 1
  00138	80 f9 01	 cmp	 cl, 1
  0013b	72 1c		 jb	 SHORT $LN6@CreateItem
  0013d	0f 1f 00	 npad	 3
$LL7@CreateItem:

; 965  : 		pPet->SetAvailLevel( i, anAvail[i-1] );

  00140	0f b6 44 35 e7	 movzx	 eax, BYTE PTR _anAvail$[ebp+esi-1]
  00145	8b cf		 mov	 ecx, edi
  00147	50		 push	 eax
  00148	56		 push	 esi
  00149	e8 00 00 00 00	 call	 ?SetAvailLevel@CPet@@QAEXEE@Z ; CPet::SetAvailLevel
  0014e	8a 4f 05	 mov	 cl, BYTE PTR [edi+5]
  00151	46		 inc	 esi
  00152	0f b6 c1	 movzx	 eax, cl
  00155	3b f0		 cmp	 esi, eax
  00157	7e e7		 jle	 SHORT $LL7@CreateItem
$LN6@CreateItem:

; 966  : 	for( int i = pPet->GetLevel() + 1; i <= PL_S; i++ )

  00159	0f b6 f1	 movzx	 esi, cl
  0015c	46		 inc	 esi
  0015d	83 fe 05	 cmp	 esi, 5
  00160	77 10		 ja	 SHORT $LN9@CreateItem
$LL10@CreateItem:

; 967  : 		pPet->SetAvailLevel( i, 0 );

  00162	6a 00		 push	 0
  00164	56		 push	 esi
  00165	8b cf		 mov	 ecx, edi
  00167	e8 00 00 00 00	 call	 ?SetAvailLevel@CPet@@QAEXEE@Z ; CPet::SetAvailLevel
  0016c	46		 inc	 esi
  0016d	83 fe 05	 cmp	 esi, 5
  00170	7e f0		 jle	 SHORT $LL10@CreateItem
$LN9@CreateItem:

; 968  : 	pPet->SetLife( s.GetNumber() );

  00172	6a 00		 push	 0
  00174	8b cb		 mov	 ecx, ebx
  00176	e8 00 00 00 00	 call	 ?GetNumber@CScanner@@QAEHH@Z ; CScanner::GetNumber

; 969  : 	DWORD dwExp		= (DWORD)( pPet->GetMaxExp() * s.GetFloat() / 100 );

  0017b	8b 4d e0	 mov	 ecx, DWORD PTR _s$GSCopy$1$[ebp]
; File C:\IAGOS\server\v18\Source\Source\_Common\pet.h

; 140  : 	int		GetMaxExp( void )	{	return ( m_nLevel == PL_EGG? MAX_PET_EGG_EXP: MAX_PET_EXP );	}

  0017e	8a 5f 05	 mov	 bl, BYTE PTR [edi+5]
; File C:\IAGOS\server\v18\Source\Source\_Common\pet.cpp

; 969  : 	DWORD dwExp		= (DWORD)( pPet->GetMaxExp() * s.GetFloat() / 100 );

  00181	6a 00		 push	 0
; File C:\IAGOS\server\v18\Source\Source\_Common\pet.h

; 134  : 	void	SetLife( WORD wLife )	{	m_wLife	= wLife;	}

  00183	66 89 47 0e	 mov	 WORD PTR [edi+14], ax
; File C:\IAGOS\server\v18\Source\Source\_Common\pet.cpp

; 969  : 	DWORD dwExp		= (DWORD)( pPet->GetMaxExp() * s.GetFloat() / 100 );

  00187	e8 00 00 00 00	 call	 ?GetFloat@CScanner@@QAEMH@Z ; CScanner::GetFloat
; File C:\IAGOS\server\v18\Source\Source\_Common\pet.h

; 140  : 	int		GetMaxExp( void )	{	return ( m_nLevel == PL_EGG? MAX_PET_EGG_EXP: MAX_PET_EXP );	}

  0018c	b9 50 c3 00 00	 mov	 ecx, 50000		; 0000c350H
  00191	84 db		 test	 bl, bl
  00193	b8 a0 86 01 00	 mov	 eax, 100000		; 000186a0H
  00198	0f 44 c1	 cmove	 eax, ecx
  0019b	66 0f 6e c0	 movd	 xmm0, eax
; File C:\IAGOS\server\v18\Source\Source\_Common\pet.cpp

; 969  : 	DWORD dwExp		= (DWORD)( pPet->GetMaxExp() * s.GetFloat() / 100 );

  0019f	0f 5b c0	 cvtdq2ps xmm0, xmm0
  001a2	f3 0f 11 45 e0	 movss	 DWORD PTR tv623[ebp], xmm0
  001a7	d8 4d e0	 fmul	 DWORD PTR tv623[ebp]
  001aa	d8 35 00 00 00
	00		 fdiv	 DWORD PTR __real@42c80000
  001b0	d9 5d e0	 fstp	 DWORD PTR tv621[ebp]
  001b3	f3 0f 10 45 e0	 movss	 xmm0, DWORD PTR tv621[ebp]
  001b8	e8 00 00 00 00	 call	 __ftol3

; 970  : 	pPet->SetExp( dwExp );

  001bd	50		 push	 eax
  001be	8b cf		 mov	 ecx, edi
  001c0	e8 00 00 00 00	 call	 ?SetExp@CPet@@QAEXK@Z	; CPet::SetExp
; File C:\IAGOS\server\v18\Source\Source\_Common\pet.h

; 137  : 	WORD	GetMaxEnergy( void )	{	return CPetProperty::GetInstance()->GetMaxEnergy( m_nLevel );	}

  001c5	8a 47 05	 mov	 al, BYTE PTR [edi+5]
  001c8	50		 push	 eax
  001c9	e8 00 00 00 00	 call	 ?GetInstance@CPetProperty@@SAPAV1@XZ ; CPetProperty::GetInstance
  001ce	8b c8		 mov	 ecx, eax
  001d0	e8 00 00 00 00	 call	 ?GetMaxEnergy@CPetProperty@@QAEGE@Z ; CPetProperty::GetMaxEnergy
  001d5	0f b7 c0	 movzx	 eax, ax
; File C:\IAGOS\server\v18\Source\Source\_Common\pet.cpp

; 971  : 	pPet->SetEnergy( pPet->GetMaxEnergy() );

  001d8	8b cf		 mov	 ecx, edi
  001da	50		 push	 eax
  001db	e8 00 00 00 00	 call	 ?SetEnergy@CPet@@QAEXG@Z ; CPet::SetEnergy

; 972  : 	return pItem;

  001e0	8b 45 dc	 mov	 eax, DWORD PTR $T3[ebp]
$LN1@CreateItem:

; 973  : }

  001e3	8b 4d f4	 mov	 ecx, DWORD PTR __$EHRec$[ebp]
  001e6	64 89 0d 00 00
	00 00		 mov	 DWORD PTR fs:0, ecx
  001ed	59		 pop	 ecx
  001ee	5f		 pop	 edi
  001ef	5e		 pop	 esi
  001f0	5b		 pop	 ebx
  001f1	8b 4d f0	 mov	 ecx, DWORD PTR __$ArrayPad$[ebp]
  001f4	33 cd		 xor	 ecx, ebp
  001f6	e8 00 00 00 00	 call	 @__security_check_cookie@4
  001fb	8b e5		 mov	 esp, ebp
  001fd	5d		 pop	 ebp
  001fe	c2 04 00	 ret	 4
$LN52@CreateItem:

; 959  : 		{
; 960  : 			safe_delete( pItem );

  00201	8b 4d dc	 mov	 ecx, DWORD PTR $T3[ebp]
  00204	6a 01		 push	 1
  00206	8b 01		 mov	 eax, DWORD PTR [ecx]
  00208	ff 10		 call	 DWORD PTR [eax]

; 961  : 			return NULL;

  0020a	33 c0		 xor	 eax, eax
  0020c	eb d5		 jmp	 SHORT $LN1@CreateItem
$LN51@CreateItem:
; File C:\Program Files\Microsoft Visual Studio\2022\Professional\VC\Tools\MSVC\14.44.35207\atlmfc\include\atlsimpstr.h

; 496  : 			AtlThrow(E_INVALIDARG);

  0020e	68 57 00 07 80	 push	 -2147024809		; 80070057H
  00213	e8 00 00 00 00	 call	 ?AtlThrowImpl@ATL@@YGXJ@Z ; ATL::AtlThrowImpl
$LN63@CreateItem:
  00218	cc		 int	 3
_TEXT	ENDS
;	COMDAT text$x
text$x	SEGMENT
__unwindfunclet$?CreateItemPet@CTransformItemProperty@@QAEPAVCItemElem@@AAVCScript@@@Z$0:
  00000	68 b0 00 00 00	 push	 176			; 000000b0H
  00005	8b 45 dc	 mov	 eax, DWORD PTR $T2[ebp]
  00008	50		 push	 eax
  00009	e8 00 00 00 00	 call	 ??3@YAXPAXI@Z		; operator delete
  0000e	83 c4 08	 add	 esp, 8
  00011	c3		 ret	 0
  00012	cc		 int	 3
  00013	cc		 int	 3
  00014	cc		 int	 3
  00015	cc		 int	 3
  00016	cc		 int	 3
__ehhandler$?CreateItemPet@CTransformItemProperty@@QAEPAVCItemElem@@AAVCScript@@@Z:
  00017	90		 npad	 1
  00018	90		 npad	 1
  00019	8b 54 24 08	 mov	 edx, DWORD PTR [esp+8]
  0001d	8d 42 0c	 lea	 eax, DWORD PTR [edx+12]
  00020	8b 4a d8	 mov	 ecx, DWORD PTR [edx-40]
  00023	33 c8		 xor	 ecx, eax
  00025	e8 00 00 00 00	 call	 @__security_check_cookie@4
  0002a	8b 4a fc	 mov	 ecx, DWORD PTR [edx-4]
  0002d	33 c8		 xor	 ecx, eax
  0002f	e8 00 00 00 00	 call	 @__security_check_cookie@4
  00034	b8 00 00 00 00	 mov	 eax, OFFSET __ehfuncinfo$?CreateItemPet@CTransformItemProperty@@QAEPAVCItemElem@@AAVCScript@@@Z
  00039	e9 00 00 00 00	 jmp	 ___CxxFrameHandler3
text$x	ENDS
?CreateItemPet@CTransformItemProperty@@QAEPAVCItemElem@@AAVCScript@@@Z ENDP ; CTransformItemProperty::CreateItemPet
; Function compile flags: /Ogtp
; File C:\IAGOS\server\v18\Source\Source\_Common\pet.cpp
; File C:\IAGOS\server\v18\Source\Source\_Common\Project.h
; File C:\IAGOS\server\v18\Source\Source\_Common\data.h
; File C:\IAGOS\server\v18\Source\Source\_Common\pet.cpp
; File C:\IAGOS\server\v18\Source\Source\_Common\Project.h
; File C:\IAGOS\server\v18\Source\Source\_Common\pet.cpp
;	COMDAT ?CreateItemGeneric@CTransformItemProperty@@QAEPAVCItemElem@@AAVCScript@@@Z
_TEXT	SEGMENT
$T2 = -16						; size = 4
__$EHRec$ = -12						; size = 12
_s$ = 8							; size = 4
?CreateItemGeneric@CTransformItemProperty@@QAEPAVCItemElem@@AAVCScript@@@Z PROC ; CTransformItemProperty::CreateItemGeneric, COMDAT
; _this$ = ecx

; 930  : {

  00000	55		 push	 ebp
  00001	8b ec		 mov	 ebp, esp
  00003	6a ff		 push	 -1
  00005	68 00 00 00 00	 push	 __ehhandler$?CreateItemGeneric@CTransformItemProperty@@QAEPAVCItemElem@@AAVCScript@@@Z
  0000a	64 a1 00 00 00
	00		 mov	 eax, DWORD PTR fs:0
  00010	50		 push	 eax
  00011	51		 push	 ecx
  00012	56		 push	 esi
  00013	a1 00 00 00 00	 mov	 eax, DWORD PTR ___security_cookie
  00018	33 c5		 xor	 eax, ebp
  0001a	50		 push	 eax
  0001b	8d 45 f4	 lea	 eax, DWORD PTR __$EHRec$[ebp]
  0001e	64 a3 00 00 00
	00		 mov	 DWORD PTR fs:0, eax

; 931  : 	CItemElem* pItem	= new CItemElem;

  00024	68 b0 00 00 00	 push	 176			; 000000b0H
  00029	e8 00 00 00 00	 call	 ??2@YAPAXI@Z		; operator new
  0002e	83 c4 04	 add	 esp, 4
  00031	89 45 f0	 mov	 DWORD PTR $T2[ebp], eax
  00034	c7 45 fc 00 00
	00 00		 mov	 DWORD PTR __$EHRec$[ebp+8], 0
  0003b	85 c0		 test	 eax, eax
  0003d	74 0b		 je	 SHORT $LN4@CreateItem
  0003f	8b c8		 mov	 ecx, eax
  00041	e8 00 00 00 00	 call	 ??0CItemElem@@QAE@XZ	; CItemElem::CItemElem
  00046	8b f0		 mov	 esi, eax
  00048	eb 02		 jmp	 SHORT $LN5@CreateItem
$LN4@CreateItem:
  0004a	33 f6		 xor	 esi, esi
$LN5@CreateItem:

; 932  : 	pItem->m_dwItemId	= s.GetNumber();

  0004c	8b 4d 08	 mov	 ecx, DWORD PTR _s$[ebp]
  0004f	6a 00		 push	 0
  00051	c7 45 fc ff ff
	ff ff		 mov	 DWORD PTR __$EHRec$[ebp+8], -1
  00058	e8 00 00 00 00	 call	 ?GetNumber@CScanner@@QAEHH@Z ; CScanner::GetNumber
  0005d	8b c8		 mov	 ecx, eax
  0005f	89 4e 0c	 mov	 DWORD PTR [esi+12], ecx
; File C:\IAGOS\server\v18\Source\Source\_Common\Project.h

; 1389 : 	VERIFY_RANGE_ASSERT( nIndex, 0, m_aPropItem.GetSize(), "GetItemProp range_error", NULL );

  00062	a1 40 02 00 00	 mov	 eax, DWORD PTR ?prj@@3VCProject@@A+576
  00067	85 c9		 test	 ecx, ecx
  00069	78 38		 js	 SHORT $LN16@CreateItem
  0006b	3b c8		 cmp	 ecx, eax
  0006d	7d 34		 jge	 SHORT $LN16@CreateItem
; File C:\IAGOS\server\v18\Source\Source\_Common\data.h

; 270  : 	if( dwIndex >= (DWORD)m_nMaxIndex )

  0006f	72 04		 jb	 SHORT $LN21@CreateItem

; 271  : 		return NULL;

  00071	33 c0		 xor	 eax, eax
  00073	eb 08		 jmp	 SHORT $LN11@CreateItem
$LN21@CreateItem:

; 272  : 	return (T*) m_apOffset[ dwIndex ];

  00075	a1 30 02 00 00	 mov	 eax, DWORD PTR ?prj@@3VCProject@@A+560
  0007a	8b 04 88	 mov	 eax, DWORD PTR [eax+ecx*4]
$LN11@CreateItem:
; File C:\IAGOS\server\v18\Source\Source\_Common\pet.cpp

; 933  : 	if( !pItem->GetProp() )

  0007d	85 c0		 test	 eax, eax
  0007f	74 38		 je	 SHORT $LN23@CreateItem

; 937  : 	}
; 938  : 	pItem->m_nItemNum	= s.GetNumber();

  00081	8b 4d 08	 mov	 ecx, DWORD PTR _s$[ebp]
  00084	6a 00		 push	 0
  00086	e8 00 00 00 00	 call	 ?GetNumber@CScanner@@QAEHH@Z ; CScanner::GetNumber
  0008b	66 89 46 74	 mov	 WORD PTR [esi+116], ax

; 939  : 	return pItem;

  0008f	8b c6		 mov	 eax, esi

; 940  : }

  00091	8b 4d f4	 mov	 ecx, DWORD PTR __$EHRec$[ebp]
  00094	64 89 0d 00 00
	00 00		 mov	 DWORD PTR fs:0, ecx
  0009b	59		 pop	 ecx
  0009c	5e		 pop	 esi
  0009d	8b e5		 mov	 esp, ebp
  0009f	5d		 pop	 ebp
  000a0	c2 04 00	 ret	 4
$LN16@CreateItem:
; File C:\IAGOS\server\v18\Source\Source\_Common\Project.h

; 579  : 	LPCTSTR szErr = Error( _T( "%s min:%d, max:%d, index:%d" ), szMsg, nMin, nMax, nIndex ); 

  000a3	51		 push	 ecx
  000a4	50		 push	 eax
  000a5	6a 00		 push	 0
  000a7	68 00 00 00 00	 push	 OFFSET ??_C@_0BI@BEIFNGEL@GetItemProp?5range_error@
  000ac	68 00 00 00 00	 push	 OFFSET ??_C@_0BM@HMFGHCP@?$CFs?5min?3?$CFd?0?5max?3?$CFd?0?5index?3?$CFd@
  000b1	e8 00 00 00 00	 call	 ?Error@@YAPBDPBDZZ	; Error
  000b6	83 c4 14	 add	 esp, 20			; 00000014H
$LN23@CreateItem:
; File C:\IAGOS\server\v18\Source\Source\_Common\pet.cpp

; 935  : 		safe_delete( pItem );

  000b9	8b 06		 mov	 eax, DWORD PTR [esi]
  000bb	8b ce		 mov	 ecx, esi
  000bd	6a 01		 push	 1
  000bf	ff 10		 call	 DWORD PTR [eax]

; 936  : 		return NULL;

  000c1	33 c0		 xor	 eax, eax

; 940  : }

  000c3	8b 4d f4	 mov	 ecx, DWORD PTR __$EHRec$[ebp]
  000c6	64 89 0d 00 00
	00 00		 mov	 DWORD PTR fs:0, ecx
  000cd	59		 pop	 ecx
  000ce	5e		 pop	 esi
  000cf	8b e5		 mov	 esp, ebp
  000d1	5d		 pop	 ebp
  000d2	c2 04 00	 ret	 4
_TEXT	ENDS
;	COMDAT text$x
text$x	SEGMENT
__unwindfunclet$?CreateItemGeneric@CTransformItemProperty@@QAEPAVCItemElem@@AAVCScript@@@Z$0:
  00000	68 b0 00 00 00	 push	 176			; 000000b0H
  00005	8b 45 f0	 mov	 eax, DWORD PTR $T2[ebp]
  00008	50		 push	 eax
  00009	e8 00 00 00 00	 call	 ??3@YAXPAXI@Z		; operator delete
  0000e	83 c4 08	 add	 esp, 8
  00011	c3		 ret	 0
  00012	cc		 int	 3
  00013	cc		 int	 3
  00014	cc		 int	 3
  00015	cc		 int	 3
  00016	cc		 int	 3
__ehhandler$?CreateItemGeneric@CTransformItemProperty@@QAEPAVCItemElem@@AAVCScript@@@Z:
  00017	90		 npad	 1
  00018	90		 npad	 1
  00019	8b 54 24 08	 mov	 edx, DWORD PTR [esp+8]
  0001d	8d 42 0c	 lea	 eax, DWORD PTR [edx+12]
  00020	8b 4a f4	 mov	 ecx, DWORD PTR [edx-12]
  00023	33 c8		 xor	 ecx, eax
  00025	e8 00 00 00 00	 call	 @__security_check_cookie@4
  0002a	b8 00 00 00 00	 mov	 eax, OFFSET __ehfuncinfo$?CreateItemGeneric@CTransformItemProperty@@QAEPAVCItemElem@@AAVCScript@@@Z
  0002f	e9 00 00 00 00	 jmp	 ___CxxFrameHandler3
text$x	ENDS
?CreateItemGeneric@CTransformItemProperty@@QAEPAVCItemElem@@AAVCScript@@@Z ENDP ; CTransformItemProperty::CreateItemGeneric
; Function compile flags: /Ogtp
; File C:\IAGOS\server\v18\Source\Source\_Common\pet.cpp
; File C:\Program Files\Microsoft Visual Studio\2022\Professional\VC\Tools\MSVC\14.44.35207\atlmfc\include\cstringt.h
; File C:\IAGOS\server\v18\Source\Source\_Common\pet.cpp
; File C:\IAGOS\server\v18\Source\Source\_Common\pet.h
; File C:\IAGOS\server\v18\Source\Source\_Common\pet.cpp
; File C:\Program Files\Microsoft Visual Studio\2022\Professional\VC\Tools\MSVC\14.44.35207\atlmfc\include\cstringt.h
; File C:\IAGOS\server\v18\Source\Source\_Common\pet.cpp
;	COMDAT ?LoadScript@CTransformItemProperty@@QAEHPBD@Z
_TEXT	SEGMENT
$T2 = -3580						; size = 4
_pItem$3 = -3580					; size = 4
$T4 = -3580						; size = 4
_s$ = -3576						; size = 3560
__$ArrayPad$ = -16					; size = 4
__$EHRec$ = -12						; size = 12
_szFile$ = 8						; size = 4
?LoadScript@CTransformItemProperty@@QAEHPBD@Z PROC	; CTransformItemProperty::LoadScript, COMDAT
; _this$ = ecx

; 886  : {

  00000	55		 push	 ebp
  00001	8b ec		 mov	 ebp, esp
  00003	6a ff		 push	 -1
  00005	68 00 00 00 00	 push	 __ehhandler$?LoadScript@CTransformItemProperty@@QAEHPBD@Z
  0000a	64 a1 00 00 00
	00		 mov	 eax, DWORD PTR fs:0
  00010	50		 push	 eax
  00011	81 ec f0 0d 00
	00		 sub	 esp, 3568		; 00000df0H
  00017	a1 00 00 00 00	 mov	 eax, DWORD PTR ___security_cookie
  0001c	33 c5		 xor	 eax, ebp
  0001e	89 45 f0	 mov	 DWORD PTR __$ArrayPad$[ebp], eax
  00021	53		 push	 ebx
  00022	56		 push	 esi
  00023	57		 push	 edi
  00024	50		 push	 eax
  00025	8d 45 f4	 lea	 eax, DWORD PTR __$EHRec$[ebp]
  00028	64 a3 00 00 00
	00		 mov	 DWORD PTR fs:0, eax
  0002e	8b f9		 mov	 edi, ecx
  00030	8b 75 08	 mov	 esi, DWORD PTR _szFile$[ebp]

; 887  : 	CScript s;

  00033	8d 8d 08 f2 ff
	ff		 lea	 ecx, DWORD PTR _s$[ebp]
  00039	6a 00		 push	 0
  0003b	e8 00 00 00 00	 call	 ??0CScript@@QAE@H@Z	; CScript::CScript

; 888  : 	if( s.Load( szFile ) == FALSE )

  00040	6a 00		 push	 0
  00042	6a 01		 push	 1
  00044	56		 push	 esi
  00045	8d 8d 08 f2 ff
	ff		 lea	 ecx, DWORD PTR _s$[ebp]
  0004b	c7 45 fc 00 00
	00 00		 mov	 DWORD PTR __$EHRec$[ebp+8], 0
  00052	e8 00 00 00 00	 call	 ?Load@CScript@@QAEHPBDHH@Z ; CScript::Load
  00057	85 c0		 test	 eax, eax
  00059	75 07		 jne	 SHORT $LN8@LoadScript
  0005b	33 f6		 xor	 esi, esi
  0005d	e9 95 01 00 00	 jmp	 $LN20@LoadScript
$LN8@LoadScript:

; 889  : 		return FALSE;
; 890  : 
; 891  : 	int nTransform	= s.GetNumber();		// subject or FINISHED

  00062	6a 00		 push	 0
  00064	8d 8d 08 f2 ff
	ff		 lea	 ecx, DWORD PTR _s$[ebp]
  0006a	e8 00 00 00 00	 call	 ?GetNumber@CScanner@@QAEHH@Z ; CScanner::GetNumber

; 892  : 	while( s.tok != FINISHED )

  0006f	83 bd 4c fa ff
	ff 15		 cmp	 DWORD PTR _s$[ebp+2116], 21 ; 00000015H
  00076	8b d8		 mov	 ebx, eax
  00078	0f 84 74 01 00
	00		 je	 $LN66@LoadScript
  0007e	8b b5 04 f2 ff
	ff		 mov	 esi, DWORD PTR _pItem$3[ebp]
$LL2@LoadScript:

; 893  : 	{
; 894  : 		CTransformItemComponent* pComponent		= new CTransformItemComponent( nTransform );

  00084	6a 1c		 push	 28			; 0000001cH
  00086	e8 00 00 00 00	 call	 ??2@YAPAXI@Z		; operator new
  0008b	83 c4 04	 add	 esp, 4
  0008e	89 85 04 f2 ff
	ff		 mov	 DWORD PTR $T2[ebp], eax
  00094	85 c0		 test	 eax, eax
  00096	74 0c		 je	 SHORT $LN16@LoadScript
  00098	53		 push	 ebx
  00099	8b c8		 mov	 ecx, eax
  0009b	e8 00 00 00 00	 call	 ??0CTransformItemComponent@@QAE@H@Z ; CTransformItemComponent::CTransformItemComponent
  000a0	8b d8		 mov	 ebx, eax
  000a2	eb 02		 jmp	 SHORT $LN17@LoadScript
$LN16@LoadScript:
  000a4	33 db		 xor	 ebx, ebx
$LN17@LoadScript:

; 895  : 		AddComponent( pComponent );

  000a6	53		 push	 ebx
  000a7	8b cf		 mov	 ecx, edi
  000a9	e8 00 00 00 00	 call	 ?AddComponent@CTransformItemProperty@@QAEXPAVCTransformItemComponent@@@Z ; CTransformItemProperty::AddComponent

; 896  : 		s.GetToken();	// {

  000ae	6a 00		 push	 0
  000b0	8d 8d 08 f2 ff
	ff		 lea	 ecx, DWORD PTR _s$[ebp]
  000b6	e8 00 00 00 00	 call	 ?GetToken@CScript@@UAEHH@Z ; CScript::GetToken

; 897  : 		s.GetToken();	// subject or '}'

  000bb	6a 00		 push	 0
  000bd	8d 8d 08 f2 ff
	ff		 lea	 ecx, DWORD PTR _s$[ebp]
  000c3	e8 00 00 00 00	 call	 ?GetToken@CScript@@UAEHH@Z ; CScript::GetToken

; 898  : 		while( *s.token != '}' )

  000c8	8b 85 44 f2 ff
	ff		 mov	 eax, DWORD PTR _s$[ebp+60]
  000ce	80 38 7d	 cmp	 BYTE PTR [eax], 125	; 0000007dH
  000d1	0f 84 ff 00 00
	00		 je	 $LN5@LoadScript
  000d7	66 0f 1f 84 00
	00 00 00 00	 npad	 9
$LL4@LoadScript:
; File C:\Program Files\Microsoft Visual Studio\2022\Professional\VC\Tools\MSVC\14.44.35207\atlmfc\include\cstringt.h

; 184  : 		return _mbscmp( reinterpret_cast< const unsigned char* >( pszA ), reinterpret_cast< const unsigned char* >( pszB ) );

  000e0	68 00 00 00 00	 push	 OFFSET ??_C@_05OMMFEMCB@stuff@
  000e5	ff b5 28 f2 ff
	ff		 push	 DWORD PTR _s$[ebp+32]
  000eb	e8 00 00 00 00	 call	 __mbscmp
  000f0	83 c4 08	 add	 esp, 8

; 2490 : 		return(str1.Compare(psz2) == 0);

  000f3	85 c0		 test	 eax, eax
; File C:\IAGOS\server\v18\Source\Source\_Common\pet.cpp

; 900  : 			if( s.Token == _T( "stuff" ) )

  000f5	75 14		 jne	 SHORT $LN45@LoadScript

; 901  : 			{
; 902  : 				pComponent->SetStuffSize( s.GetNumber() );

  000f7	50		 push	 eax
  000f8	8d 8d 08 f2 ff
	ff		 lea	 ecx, DWORD PTR _s$[ebp]
  000fe	e8 00 00 00 00	 call	 ?GetNumber@CScanner@@QAEHH@Z ; CScanner::GetNumber
; File C:\IAGOS\server\v18\Source\Source\_Common\pet.h

; 289  : 	void	SetStuffSize( u_int nStuffSize )	{	m_nStuffSize	= nStuffSize;	}

  00103	89 43 08	 mov	 DWORD PTR [ebx+8], eax
; File C:\IAGOS\server\v18\Source\Source\_Common\pet.cpp

; 903  : 			}

  00106	e9 af 00 00 00	 jmp	 $LN11@LoadScript
$LN45@LoadScript:
; File C:\Program Files\Microsoft Visual Studio\2022\Professional\VC\Tools\MSVC\14.44.35207\atlmfc\include\cstringt.h

; 184  : 		return _mbscmp( reinterpret_cast< const unsigned char* >( pszA ), reinterpret_cast< const unsigned char* >( pszB ) );

  0010b	68 00 00 00 00	 push	 OFFSET ??_C@_04NHONDGDE@item@
  00110	ff b5 28 f2 ff
	ff		 push	 DWORD PTR _s$[ebp+32]
  00116	e8 00 00 00 00	 call	 __mbscmp
  0011b	83 c4 08	 add	 esp, 8

; 2490 : 		return(str1.Compare(psz2) == 0);

  0011e	85 c0		 test	 eax, eax
; File C:\IAGOS\server\v18\Source\Source\_Common\pet.cpp

; 904  : 			else if( s.Token == _T( "item" ) )

  00120	0f 85 94 00 00
	00		 jne	 $LN11@LoadScript

; 905  : 			{
; 906  : 				s.GetToken();	// {

  00126	50		 push	 eax
  00127	8d 8d 08 f2 ff
	ff		 lea	 ecx, DWORD PTR _s$[ebp]
  0012d	e8 00 00 00 00	 call	 ?GetToken@CScript@@UAEHH@Z ; CScript::GetToken

; 907  : 				int nProb	= s.GetNumber();

  00132	6a 00		 push	 0
  00134	8d 8d 08 f2 ff
	ff		 lea	 ecx, DWORD PTR _s$[ebp]
  0013a	e8 00 00 00 00	 call	 ?GetNumber@CScanner@@QAEHH@Z ; CScanner::GetNumber
  0013f	89 85 04 f2 ff
	ff		 mov	 DWORD PTR $T4[ebp], eax

; 908  : 				while( *s.token != '}' )

  00145	8b 85 44 f2 ff
	ff		 mov	 eax, DWORD PTR _s$[ebp+60]
  0014b	80 38 7d	 cmp	 BYTE PTR [eax], 125	; 0000007dH
  0014e	74 62		 je	 SHORT $LN7@LoadScript
$LL6@LoadScript:

; 909  : 				{
; 910  : 					int nType	= s.GetNumber();

  00150	6a 00		 push	 0
  00152	8d 8d 08 f2 ff
	ff		 lea	 ecx, DWORD PTR _s$[ebp]
  00158	e8 00 00 00 00	 call	 ?GetNumber@CScanner@@QAEHH@Z ; CScanner::GetNumber

; 911  : 					CItemElem* pItem;
; 912  : 					if( nType == TI_GENERIC )

  0015d	85 c0		 test	 eax, eax
  0015f	75 10		 jne	 SHORT $LN12@LoadScript

; 913  : 						pItem	= CreateItemGeneric( s );

  00161	8d 85 08 f2 ff
	ff		 lea	 eax, DWORD PTR _s$[ebp]
  00167	8b cf		 mov	 ecx, edi
  00169	50		 push	 eax
  0016a	e8 00 00 00 00	 call	 ?CreateItemGeneric@CTransformItemProperty@@QAEPAVCItemElem@@AAVCScript@@@Z ; CTransformItemProperty::CreateItemGeneric
  0016f	eb 13		 jmp	 SHORT $LN74@LoadScript
$LN12@LoadScript:

; 914  : 					else if( nType == TI_PET )

  00171	83 f8 01	 cmp	 eax, 1
  00174	75 10		 jne	 SHORT $LN14@LoadScript

; 915  : 						pItem	= CreateItemPet( s );

  00176	8d 85 08 f2 ff
	ff		 lea	 eax, DWORD PTR _s$[ebp]
  0017c	8b cf		 mov	 ecx, edi
  0017e	50		 push	 eax
  0017f	e8 00 00 00 00	 call	 ?CreateItemPet@CTransformItemProperty@@QAEPAVCItemElem@@AAVCScript@@@Z ; CTransformItemProperty::CreateItemPet
$LN74@LoadScript:

; 916  : 					assert( pItem );
; 917  : 					pComponent->AddElement( TransformItemElement( pItem, nProb ) );

  00184	8b f0		 mov	 esi, eax
$LN14@LoadScript:
  00186	ff b5 04 f2 ff
	ff		 push	 DWORD PTR $T4[ebp]
  0018c	8b cb		 mov	 ecx, ebx
  0018e	56		 push	 esi
  0018f	e8 00 00 00 00	 call	 ?AddElement@CTransformItemComponent@@QAEXU_TransformItemElement@@@Z ; CTransformItemComponent::AddElement

; 918  : 					nProb	= s.GetNumber();

  00194	6a 00		 push	 0
  00196	8d 8d 08 f2 ff
	ff		 lea	 ecx, DWORD PTR _s$[ebp]
  0019c	e8 00 00 00 00	 call	 ?GetNumber@CScanner@@QAEHH@Z ; CScanner::GetNumber
  001a1	89 85 04 f2 ff
	ff		 mov	 DWORD PTR $T4[ebp], eax
  001a7	8b 85 44 f2 ff
	ff		 mov	 eax, DWORD PTR _s$[ebp+60]
  001ad	80 38 7d	 cmp	 BYTE PTR [eax], 125	; 0000007dH
  001b0	75 9e		 jne	 SHORT $LL6@LoadScript
$LN7@LoadScript:

; 919  : 				}
; 920  : 				AddComponent( pComponent );

  001b2	53		 push	 ebx
  001b3	8b cf		 mov	 ecx, edi
  001b5	e8 00 00 00 00	 call	 ?AddComponent@CTransformItemProperty@@QAEXPAVCTransformItemComponent@@@Z ; CTransformItemProperty::AddComponent
$LN11@LoadScript:

; 921  : 			}
; 922  : 			s.GetToken();

  001ba	6a 00		 push	 0
  001bc	8d 8d 08 f2 ff
	ff		 lea	 ecx, DWORD PTR _s$[ebp]
  001c2	e8 00 00 00 00	 call	 ?GetToken@CScript@@UAEHH@Z ; CScript::GetToken
  001c7	8b 85 44 f2 ff
	ff		 mov	 eax, DWORD PTR _s$[ebp+60]
  001cd	80 38 7d	 cmp	 BYTE PTR [eax], 125	; 0000007dH
  001d0	0f 85 0a ff ff
	ff		 jne	 $LL4@LoadScript
$LN5@LoadScript:

; 923  : 		}
; 924  : 		nTransform	= s.GetNumber();

  001d6	6a 00		 push	 0
  001d8	8d 8d 08 f2 ff
	ff		 lea	 ecx, DWORD PTR _s$[ebp]
  001de	e8 00 00 00 00	 call	 ?GetNumber@CScanner@@QAEHH@Z ; CScanner::GetNumber
  001e3	83 bd 4c fa ff
	ff 15		 cmp	 DWORD PTR _s$[ebp+2116], 21 ; 00000015H
  001ea	8b d8		 mov	 ebx, eax
  001ec	0f 85 92 fe ff
	ff		 jne	 $LL2@LoadScript
$LN66@LoadScript:

; 925  : 	}
; 926  : 	return TRUE;

  001f2	be 01 00 00 00	 mov	 esi, 1
$LN20@LoadScript:
  001f7	8d 8d 08 f2 ff
	ff		 lea	 ecx, DWORD PTR _s$[ebp]
  001fd	e8 00 00 00 00	 call	 ??1CScript@@UAE@XZ	; CScript::~CScript
  00202	8b c6		 mov	 eax, esi

; 927  : }

  00204	8b 4d f4	 mov	 ecx, DWORD PTR __$EHRec$[ebp]
  00207	64 89 0d 00 00
	00 00		 mov	 DWORD PTR fs:0, ecx
  0020e	59		 pop	 ecx
  0020f	5f		 pop	 edi
  00210	5e		 pop	 esi
  00211	5b		 pop	 ebx
  00212	8b 4d f0	 mov	 ecx, DWORD PTR __$ArrayPad$[ebp]
  00215	33 cd		 xor	 ecx, ebp
  00217	e8 00 00 00 00	 call	 @__security_check_cookie@4
  0021c	8b e5		 mov	 esp, ebp
  0021e	5d		 pop	 ebp
  0021f	c2 04 00	 ret	 4
_TEXT	ENDS
;	COMDAT text$x
text$x	SEGMENT
__unwindfunclet$?LoadScript@CTransformItemProperty@@QAEHPBD@Z$0:
  00000	8d 8d 08 f2 ff
	ff		 lea	 ecx, DWORD PTR _s$[ebp]
  00006	e9 00 00 00 00	 jmp	 ??1CScript@@UAE@XZ	; CScript::~CScript
  0000b	cc		 int	 3
  0000c	cc		 int	 3
  0000d	cc		 int	 3
  0000e	cc		 int	 3
  0000f	cc		 int	 3
__ehhandler$?LoadScript@CTransformItemProperty@@QAEHPBD@Z:
  00010	90		 npad	 1
  00011	90		 npad	 1
  00012	8b 54 24 08	 mov	 edx, DWORD PTR [esp+8]
  00016	8d 42 0c	 lea	 eax, DWORD PTR [edx+12]
  00019	8b 8a 00 f2 ff
	ff		 mov	 ecx, DWORD PTR [edx-3584]
  0001f	33 c8		 xor	 ecx, eax
  00021	e8 00 00 00 00	 call	 @__security_check_cookie@4
  00026	8b 4a fc	 mov	 ecx, DWORD PTR [edx-4]
  00029	33 c8		 xor	 ecx, eax
  0002b	e8 00 00 00 00	 call	 @__security_check_cookie@4
  00030	b8 00 00 00 00	 mov	 eax, OFFSET __ehfuncinfo$?LoadScript@CTransformItemProperty@@QAEHPBD@Z
  00035	e9 00 00 00 00	 jmp	 ___CxxFrameHandler3
text$x	ENDS
?LoadScript@CTransformItemProperty@@QAEHPBD@Z ENDP	; CTransformItemProperty::LoadScript
; Function compile flags: /Ogtp
; File C:\IAGOS\server\v18\Source\Source\_Common\pet.cpp
;	COMDAT ?GetItem@CTransformItemProperty@@QAEPAVCItemElem@@H@Z
_TEXT	SEGMENT
_nTransform$ = 8					; size = 4
?GetItem@CTransformItemProperty@@QAEPAVCItemElem@@H@Z PROC ; CTransformItemProperty::GetItem, COMDAT
; _this$ = ecx

; 997  : {

  00000	55		 push	 ebp
  00001	8b ec		 mov	 ebp, esp

; 998  : 	CTransformItemComponent* pComponent	= GetComponent( nTransform );

  00003	ff 75 08	 push	 DWORD PTR _nTransform$[ebp]
  00006	e8 00 00 00 00	 call	 ?GetComponent@CTransformItemProperty@@AAEPAVCTransformItemComponent@@H@Z ; CTransformItemProperty::GetComponent

; 999  : 	if( pComponent )

  0000b	85 c0		 test	 eax, eax
  0000d	74 0b		 je	 SHORT $LN2@GetItem

; 1000 : 		return pComponent->GetItem();

  0000f	8b c8		 mov	 ecx, eax
  00011	e8 00 00 00 00	 call	 ?GetItem@CTransformItemComponent@@QAEPAVCItemElem@@XZ ; CTransformItemComponent::GetItem

; 1002 : }

  00016	5d		 pop	 ebp
  00017	c2 04 00	 ret	 4
$LN2@GetItem:

; 1001 : 	return NULL;

  0001a	33 c0		 xor	 eax, eax

; 1002 : }

  0001c	5d		 pop	 ebp
  0001d	c2 04 00	 ret	 4
?GetItem@CTransformItemProperty@@QAEPAVCItemElem@@H@Z ENDP ; CTransformItemProperty::GetItem
_TEXT	ENDS
; Function compile flags: /Ogtp
; File C:\IAGOS\server\v18\Source\Source\_Common\pet.cpp
;	COMDAT ?GetStuffSize@CTransformItemProperty@@QAEIH@Z
_TEXT	SEGMENT
_nTransform$ = 8					; size = 4
?GetStuffSize@CTransformItemProperty@@QAEIH@Z PROC	; CTransformItemProperty::GetStuffSize, COMDAT
; _this$ = ecx

; 989  : {

  00000	55		 push	 ebp
  00001	8b ec		 mov	 ebp, esp

; 990  : 	CTransformItemComponent* pComponent	= GetComponent( nTransform );

  00003	ff 75 08	 push	 DWORD PTR _nTransform$[ebp]
  00006	e8 00 00 00 00	 call	 ?GetComponent@CTransformItemProperty@@AAEPAVCTransformItemComponent@@H@Z ; CTransformItemProperty::GetComponent

; 991  : 	if( pComponent )

  0000b	85 c0		 test	 eax, eax
  0000d	74 07		 je	 SHORT $LN2@GetStuffSi

; 992  : 		return pComponent->GetStuffSize();

  0000f	8b 40 08	 mov	 eax, DWORD PTR [eax+8]

; 994  : }

  00012	5d		 pop	 ebp
  00013	c2 04 00	 ret	 4
$LN2@GetStuffSi:

; 993  : 	return 0;

  00016	33 c0		 xor	 eax, eax

; 994  : }

  00018	5d		 pop	 ebp
  00019	c2 04 00	 ret	 4
?GetStuffSize@CTransformItemProperty@@QAEIH@Z ENDP	; CTransformItemProperty::GetStuffSize
_TEXT	ENDS
; Function compile flags: /Ogtp
; File C:\IAGOS\server\v18\Source\Source\_Common\pet.cpp
; File C:\Program Files\Microsoft Visual Studio\2022\Professional\VC\Tools\MSVC\14.44.35207\include\utility
; File C:\IAGOS\server\v18\Source\Source\_Common\pet.cpp
; File C:\Program Files\Microsoft Visual Studio\2022\Professional\VC\Tools\MSVC\14.44.35207\include\utility
; File C:\Program Files\Microsoft Visual Studio\2022\Professional\VC\Tools\MSVC\14.44.35207\include\xtree
; File C:\Program Files\Microsoft Visual Studio\2022\Professional\VC\Tools\MSVC\14.44.35207\include\utility
; File C:\Program Files\Microsoft Visual Studio\2022\Professional\VC\Tools\MSVC\14.44.35207\include\xtree
; File C:\Program Files\Microsoft Visual Studio\2022\Professional\VC\Tools\MSVC\14.44.35207\include\utility
; File C:\Program Files\Microsoft Visual Studio\2022\Professional\VC\Tools\MSVC\14.44.35207\include\xtree
; File C:\Program Files\Microsoft Visual Studio\2022\Professional\VC\Tools\MSVC\14.44.35207\include\type_traits
; File C:\Program Files\Microsoft Visual Studio\2022\Professional\VC\Tools\MSVC\14.44.35207\include\xtree
; File C:\Program Files\Microsoft Visual Studio\2022\Professional\VC\Tools\MSVC\14.44.35207\include\xmemory
; File C:\Program Files\Microsoft Visual Studio\2022\Professional\VC\Tools\MSVC\14.44.35207\include\xtree
; File C:\Program Files\Microsoft Visual Studio\2022\Professional\VC\Tools\MSVC\14.44.35207\include\xmemory
; File C:\Program Files\Microsoft Visual Studio\2022\Professional\VC\Tools\MSVC\14.44.35207\include\xtree
; File C:\Program Files\Microsoft Visual Studio\2022\Professional\VC\Tools\MSVC\14.44.35207\include\xmemory
; File C:\Program Files\Microsoft Visual Studio\2022\Professional\VC\Tools\MSVC\14.44.35207\include\xtree
; File C:\IAGOS\server\v18\Source\Source\_Common\pet.cpp
; File C:\Program Files\Microsoft Visual Studio\2022\Professional\VC\Tools\MSVC\14.44.35207\include\xtree
; File C:\IAGOS\server\v18\Source\Source\_Common\pet.cpp
;	COMDAT ?AddComponent@CTransformItemProperty@@QAEXPAVCTransformItemComponent@@@Z
_TEXT	SEGMENT
$T2 = -44						; size = 12
__Loc$3 = -32						; size = 12
$T4 = -20						; size = 8
$T5 = -20						; size = 8
__$EHRec$ = -12						; size = 12
_pComponent$ = 8					; size = 4
?AddComponent@CTransformItemProperty@@QAEXPAVCTransformItemComponent@@@Z PROC ; CTransformItemProperty::AddComponent, COMDAT
; _this$ = ecx

; 976  : {

  00000	55		 push	 ebp
  00001	8b ec		 mov	 ebp, esp
  00003	6a ff		 push	 -1
  00005	68 00 00 00 00	 push	 __ehhandler$?AddComponent@CTransformItemProperty@@QAEXPAVCTransformItemComponent@@@Z
  0000a	64 a1 00 00 00
	00		 mov	 eax, DWORD PTR fs:0
  00010	50		 push	 eax
  00011	83 ec 20	 sub	 esp, 32			; 00000020H
  00014	53		 push	 ebx
  00015	56		 push	 esi
  00016	57		 push	 edi
  00017	a1 00 00 00 00	 mov	 eax, DWORD PTR ___security_cookie
  0001c	33 c5		 xor	 eax, ebp
  0001e	50		 push	 eax
  0001f	8d 45 f4	 lea	 eax, DWORD PTR __$EHRec$[ebp]
  00022	64 a3 00 00 00
	00		 mov	 DWORD PTR fs:0, eax
; File C:\Program Files\Microsoft Visual Studio\2022\Professional\VC\Tools\MSVC\14.44.35207\include\utility

; 274  :         : first(_STD forward<_Other1>(_Val1)), second(_STD forward<_Other2>(_Val2)) {

  00028	8b 45 08	 mov	 eax, DWORD PTR _pComponent$[ebp]
; File C:\IAGOS\server\v18\Source\Source\_Common\pet.cpp

; 977  : 	bool bResult	= m_mapComponents.insert( MPTIC::value_type( pComponent->GetTransform(), pComponent ) ).second;

  0002b	8d 79 04	 lea	 edi, DWORD PTR [ecx+4]
; File C:\Program Files\Microsoft Visual Studio\2022\Professional\VC\Tools\MSVC\14.44.35207\include\utility

; 274  :         : first(_STD forward<_Other1>(_Val1)), second(_STD forward<_Other2>(_Val2)) {

  0002e	89 45 f0	 mov	 DWORD PTR $T4[ebp+4], eax
; File C:\Program Files\Microsoft Visual Studio\2022\Professional\VC\Tools\MSVC\14.44.35207\include\xtree

; 1017 :             _Loc                = _Find_lower_bound(_Keyval);

  00031	8b cf		 mov	 ecx, edi
; File C:\Program Files\Microsoft Visual Studio\2022\Professional\VC\Tools\MSVC\14.44.35207\include\utility

; 274  :         : first(_STD forward<_Other1>(_Val1)), second(_STD forward<_Other2>(_Val2)) {

  00033	8b 58 04	 mov	 ebx, DWORD PTR [eax+4]
; File C:\Program Files\Microsoft Visual Studio\2022\Professional\VC\Tools\MSVC\14.44.35207\include\xtree

; 1017 :             _Loc                = _Find_lower_bound(_Keyval);

  00036	8d 45 ec	 lea	 eax, DWORD PTR $T4[ebp]
  00039	50		 push	 eax
  0003a	8d 45 d4	 lea	 eax, DWORD PTR $T2[ebp]
; File C:\Program Files\Microsoft Visual Studio\2022\Professional\VC\Tools\MSVC\14.44.35207\include\utility

; 274  :         : first(_STD forward<_Other1>(_Val1)), second(_STD forward<_Other2>(_Val2)) {

  0003d	89 5d ec	 mov	 DWORD PTR $T4[ebp], ebx
; File C:\Program Files\Microsoft Visual Studio\2022\Professional\VC\Tools\MSVC\14.44.35207\include\xtree

; 1017 :             _Loc                = _Find_lower_bound(_Keyval);

  00040	50		 push	 eax
  00041	e8 00 00 00 00	 call	 ??$_Find_lower_bound@H@?$_Tree@V?$_Tmap_traits@HPAVCTransformItemComponent@@U?$less@H@std@@V?$allocator@U?$pair@$$CBHPAVCTransformItemComponent@@@std@@@3@$0A@@std@@@std@@IBE?AU?$_Tree_find_result@PAU?$_Tree_node@U?$pair@$$CBHPAVCTransformItemComponent@@@std@@PAX@std@@@1@ABH@Z ; std::_Tree<std::_Tmap_traits<int,CTransformItemComponent *,std::less<int>,std::allocator<std::pair<int const ,CTransformItemComponent *> >,0> >::_Find_lower_bound<int>
  00046	f3 0f 7e 00	 movq	 xmm0, QWORD PTR [eax]
  0004a	8b 40 08	 mov	 eax, DWORD PTR [eax+8]
  0004d	66 0f d6 45 e0	 movq	 QWORD PTR __Loc$3[ebp], xmm0

; 1624 :         return !_Bound->_Isnil && !_DEBUG_LT_PRED(_Getcomp(), _Keyval, _Traits::_Kfn(_Bound->_Myval));

  00052	80 78 0d 00	 cmp	 BYTE PTR [eax+13], 0
  00056	75 05		 jne	 SHORT $LN14@AddCompone
; File C:\Program Files\Microsoft Visual Studio\2022\Professional\VC\Tools\MSVC\14.44.35207\include\type_traits

; 2380 :         return _Left < _Right;

  00058	3b 58 10	 cmp	 ebx, DWORD PTR [eax+16]
; File C:\Program Files\Microsoft Visual Studio\2022\Professional\VC\Tools\MSVC\14.44.35207\include\xtree

; 1624 :         return !_Bound->_Isnil && !_DEBUG_LT_PRED(_Getcomp(), _Keyval, _Traits::_Kfn(_Bound->_Myval));

  0005b	7d 4b		 jge	 SHORT $LN89@AddCompone
$LN14@AddCompone:

; 1648 :         if (max_size() == _Get_scary()->_Mysize) {

  0005d	81 7f 04 aa aa
	aa 0a		 cmp	 DWORD PTR [edi+4], 178956970 ; 0aaaaaaaH
  00064	74 56		 je	 SHORT $LN109@AddCompone

; 1023 :             _Inserted = _Tree_temp_node<_Alnode>(_Getal(), _Scary->_Myhead, _STD forward<_Valtys>(_Vals)...)._Release();

  00066	8b 37		 mov	 esi, DWORD PTR [edi]
; File C:\Program Files\Microsoft Visual Studio\2022\Professional\VC\Tools\MSVC\14.44.35207\include\xmemory

; 1160 :     _CONSTEXPR20 explicit _Alloc_construct_ptr(_Alloc& _Al_) : _Al(_Al_), _Ptr(nullptr) {}

  00068	89 7d ec	 mov	 DWORD PTR $T5[ebp], edi

; 136  :         return ::operator new(_Bytes);

  0006b	6a 18		 push	 24			; 00000018H
; File C:\Program Files\Microsoft Visual Studio\2022\Professional\VC\Tools\MSVC\14.44.35207\include\xtree

; 808  :     explicit _Tree_temp_node_alloc(_Alnode& _Al_) : _Alloc_construct_ptr<_Alnode>(_Al_) {

  0006d	c7 45 fc 00 00
	00 00		 mov	 DWORD PTR __$EHRec$[ebp+8], 0
; File C:\Program Files\Microsoft Visual Studio\2022\Professional\VC\Tools\MSVC\14.44.35207\include\xmemory

; 1167 :         _Ptr = nullptr; // if allocate throws, prevents double-free

  00074	c7 45 f0 00 00
	00 00		 mov	 DWORD PTR $T5[ebp+4], 0

; 136  :         return ::operator new(_Bytes);

  0007b	e8 00 00 00 00	 call	 ??2@YAPAXI@Z		; operator new
; File C:\Program Files\Microsoft Visual Studio\2022\Professional\VC\Tools\MSVC\14.44.35207\include\xtree

; 830  :         _Alnode_traits::construct(this->_Al, _STD addressof(this->_Ptr->_Myval), _STD forward<_Valtys>(_Vals)...);

  00080	8b 4d 08	 mov	 ecx, DWORD PTR _pComponent$[ebp]
; File C:\Program Files\Microsoft Visual Studio\2022\Professional\VC\Tools\MSVC\14.44.35207\include\xmemory

; 136  :         return ::operator new(_Bytes);

  00083	83 c4 04	 add	 esp, 4
; File C:\Program Files\Microsoft Visual Studio\2022\Professional\VC\Tools\MSVC\14.44.35207\include\xtree

; 830  :         _Alnode_traits::construct(this->_Al, _STD addressof(this->_Ptr->_Myval), _STD forward<_Valtys>(_Vals)...);

  00086	89 58 10	 mov	 DWORD PTR [eax+16], ebx
  00089	89 48 14	 mov	 DWORD PTR [eax+20], ecx

; 1042 :         return {_Scary->_Insert_node(_Loc._Location, _Inserted), true};

  0008c	8b cf		 mov	 ecx, edi
  0008e	50		 push	 eax
  0008f	ff 75 e4	 push	 DWORD PTR __Loc$3[ebp+4]

; 831  :         _Construct_in_place(this->_Ptr->_Left, _Myhead);

  00092	89 30		 mov	 DWORD PTR [eax], esi

; 1042 :         return {_Scary->_Insert_node(_Loc._Location, _Inserted), true};

  00094	ff 75 e0	 push	 DWORD PTR __Loc$3[ebp]

; 832  :         _Construct_in_place(this->_Ptr->_Parent, _Myhead);

  00097	89 70 04	 mov	 DWORD PTR [eax+4], esi

; 833  :         _Construct_in_place(this->_Ptr->_Right, _Myhead);

  0009a	89 70 08	 mov	 DWORD PTR [eax+8], esi

; 834  :         this->_Ptr->_Color = _Red;

  0009d	66 c7 40 0c 00
	00		 mov	 WORD PTR [eax+12], 0

; 1042 :         return {_Scary->_Insert_node(_Loc._Location, _Inserted), true};

  000a3	e8 00 00 00 00	 call	 ?_Insert_node@?$_Tree_val@U?$_Tree_simple_types@U?$pair@$$CBHPAVCTransformItemComponent@@@std@@@std@@@std@@QAEPAU?$_Tree_node@U?$pair@$$CBHPAVCTransformItemComponent@@@std@@PAX@2@U?$_Tree_id@PAU?$_Tree_node@U?$pair@$$CBHPAVCTransformItemComponent@@@std@@PAX@std@@@2@QAU32@@Z ; std::_Tree_val<std::_Tree_simple_types<std::pair<int const ,CTransformItemComponent *> > >::_Insert_node
$LN89@AddCompone:
; File C:\IAGOS\server\v18\Source\Source\_Common\pet.cpp

; 978  : }

  000a8	8b 4d f4	 mov	 ecx, DWORD PTR __$EHRec$[ebp]
  000ab	64 89 0d 00 00
	00 00		 mov	 DWORD PTR fs:0, ecx
  000b2	59		 pop	 ecx
  000b3	5f		 pop	 edi
  000b4	5e		 pop	 esi
  000b5	5b		 pop	 ebx
  000b6	8b e5		 mov	 esp, ebp
  000b8	5d		 pop	 ebp
  000b9	c2 04 00	 ret	 4
$LN109@AddCompone:
; File C:\Program Files\Microsoft Visual Studio\2022\Professional\VC\Tools\MSVC\14.44.35207\include\xtree

; 1649 :             _Throw_tree_length_error();

  000bc	e8 00 00 00 00	 call	 ?_Throw_tree_length_error@std@@YAXXZ ; std::_Throw_tree_length_error
$LN107@AddCompone:
  000c1	cc		 int	 3
_TEXT	ENDS
;	COMDAT text$x
text$x	SEGMENT
__unwindfunclet$?AddComponent@CTransformItemProperty@@QAEXPAVCTransformItemComponent@@@Z$2:
  00000	8d 4d ec	 lea	 ecx, DWORD PTR $T5[ebp]
  00003	e9 00 00 00 00	 jmp	 ??1?$_Alloc_construct_ptr@V?$allocator@U?$_Tree_node@U?$pair@$$CBHPAVCTransformItemComponent@@@std@@PAX@std@@@std@@@std@@QAE@XZ ; std::_Alloc_construct_ptr<std::allocator<std::_Tree_node<std::pair<int const ,CTransformItemComponent *>,void *> > >::~_Alloc_construct_ptr<std::allocator<std::_Tree_node<std::pair<int const ,CTransformItemComponent *>,void *> > >
  00008	cc		 int	 3
  00009	cc		 int	 3
  0000a	cc		 int	 3
  0000b	cc		 int	 3
  0000c	cc		 int	 3
__ehhandler$?AddComponent@CTransformItemProperty@@QAEXPAVCTransformItemComponent@@@Z:
  0000d	90		 npad	 1
  0000e	90		 npad	 1
  0000f	8b 54 24 08	 mov	 edx, DWORD PTR [esp+8]
  00013	8d 42 0c	 lea	 eax, DWORD PTR [edx+12]
  00016	8b 4a d0	 mov	 ecx, DWORD PTR [edx-48]
  00019	33 c8		 xor	 ecx, eax
  0001b	e8 00 00 00 00	 call	 @__security_check_cookie@4
  00020	b8 00 00 00 00	 mov	 eax, OFFSET __ehfuncinfo$?AddComponent@CTransformItemProperty@@QAEXPAVCTransformItemComponent@@@Z
  00025	e9 00 00 00 00	 jmp	 ___CxxFrameHandler3
text$x	ENDS
?AddComponent@CTransformItemProperty@@QAEXPAVCTransformItemComponent@@@Z ENDP ; CTransformItemProperty::AddComponent
; Function compile flags: /Ogtp
; File C:\IAGOS\server\v18\Source\Source\_Common\pet.cpp
;	COMDAT ?Instance@CTransformItemProperty@@SAPAV1@XZ
_TEXT	SEGMENT
__$EHRec$ = -12						; size = 12
?Instance@CTransformItemProperty@@SAPAV1@XZ PROC	; CTransformItemProperty::Instance, COMDAT

; 880  : {

  00000	55		 push	 ebp
  00001	8b ec		 mov	 ebp, esp
  00003	6a ff		 push	 -1
  00005	68 00 00 00 00	 push	 __ehhandler$?Instance@CTransformItemProperty@@SAPAV1@XZ
  0000a	64 a1 00 00 00
	00		 mov	 eax, DWORD PTR fs:0
  00010	50		 push	 eax
  00011	a1 00 00 00 00	 mov	 eax, DWORD PTR ___security_cookie
  00016	33 c5		 xor	 eax, ebp
  00018	50		 push	 eax
  00019	8d 45 f4	 lea	 eax, DWORD PTR __$EHRec$[ebp]
  0001c	64 a3 00 00 00
	00		 mov	 DWORD PTR fs:0, eax

; 881  : 	static	CTransformItemProperty	sTransformItemProperty;

  00022	64 a1 00 00 00
	00		 mov	 eax, DWORD PTR fs:__tls_array
  00028	8b 0d 00 00 00
	00		 mov	 ecx, DWORD PTR __tls_index
  0002e	8b 0c 88	 mov	 ecx, DWORD PTR [eax+ecx*4]
  00031	a1 00 00 00 00	 mov	 eax, DWORD PTR ?$TSS0@?1??Instance@CTransformItemProperty@@SAPAV2@XZ@4HA
  00036	3b 81 00 00 00
	00		 cmp	 eax, DWORD PTR __Init_thread_epoch[ecx]
  0003c	7f 14		 jg	 SHORT $LN9@Instance
$LN5@Instance:

; 882  : 	return &sTransformItemProperty;
; 883  : }

  0003e	b8 00 00 00 00	 mov	 eax, OFFSET ?sTransformItemProperty@?1??Instance@CTransformItemProperty@@SAPAV2@XZ@4V2@A
  00043	8b 4d f4	 mov	 ecx, DWORD PTR __$EHRec$[ebp]
  00046	64 89 0d 00 00
	00 00		 mov	 DWORD PTR fs:0, ecx
  0004d	59		 pop	 ecx
  0004e	8b e5		 mov	 esp, ebp
  00050	5d		 pop	 ebp
  00051	c3		 ret	 0
$LN9@Instance:

; 881  : 	static	CTransformItemProperty	sTransformItemProperty;

  00052	68 00 00 00 00	 push	 OFFSET ?$TSS0@?1??Instance@CTransformItemProperty@@SAPAV2@XZ@4HA
  00057	e8 00 00 00 00	 call	 __Init_thread_header
  0005c	83 c4 04	 add	 esp, 4
  0005f	83 3d 00 00 00
	00 ff		 cmp	 DWORD PTR ?$TSS0@?1??Instance@CTransformItemProperty@@SAPAV2@XZ@4HA, -1
  00066	75 d6		 jne	 SHORT $LN5@Instance
  00068	b9 00 00 00 00	 mov	 ecx, OFFSET ?sTransformItemProperty@?1??Instance@CTransformItemProperty@@SAPAV2@XZ@4V2@A
  0006d	c7 45 fc 00 00
	00 00		 mov	 DWORD PTR __$EHRec$[ebp+8], 0
  00074	e8 00 00 00 00	 call	 ??0CTransformItemProperty@@QAE@XZ ; CTransformItemProperty::CTransformItemProperty
  00079	68 00 00 00 00	 push	 OFFSET ??__FsTransformItemProperty@?1??Instance@CTransformItemProperty@@SAPAV1@XZ@YAXXZ ; `CTransformItemProperty::Instance'::`2'::`dynamic atexit destructor for 'sTransformItemProperty''
  0007e	e8 00 00 00 00	 call	 _atexit
  00083	68 00 00 00 00	 push	 OFFSET ?$TSS0@?1??Instance@CTransformItemProperty@@SAPAV2@XZ@4HA
  00088	e8 00 00 00 00	 call	 __Init_thread_footer
  0008d	83 c4 08	 add	 esp, 8
  00090	eb ac		 jmp	 SHORT $LN5@Instance
_TEXT	ENDS
;	COMDAT text$x
text$x	SEGMENT
__unwindfunclet$?Instance@CTransformItemProperty@@SAPAV1@XZ$0:
  00000	68 00 00 00 00	 push	 OFFSET ?$TSS0@?1??Instance@CTransformItemProperty@@SAPAV2@XZ@4HA
  00005	e8 00 00 00 00	 call	 __Init_thread_abort
  0000a	59		 pop	 ecx
  0000b	c3		 ret	 0
  0000c	cc		 int	 3
  0000d	cc		 int	 3
  0000e	cc		 int	 3
  0000f	cc		 int	 3
  00010	cc		 int	 3
__ehhandler$?Instance@CTransformItemProperty@@SAPAV1@XZ:
  00011	90		 npad	 1
  00012	90		 npad	 1
  00013	8b 54 24 08	 mov	 edx, DWORD PTR [esp+8]
  00017	8d 42 0c	 lea	 eax, DWORD PTR [edx+12]
  0001a	8b 4a fc	 mov	 ecx, DWORD PTR [edx-4]
  0001d	33 c8		 xor	 ecx, eax
  0001f	e8 00 00 00 00	 call	 @__security_check_cookie@4
  00024	b8 00 00 00 00	 mov	 eax, OFFSET __ehfuncinfo$?Instance@CTransformItemProperty@@SAPAV1@XZ
  00029	e9 00 00 00 00	 jmp	 ___CxxFrameHandler3
text$x	ENDS
?Instance@CTransformItemProperty@@SAPAV1@XZ ENDP	; CTransformItemProperty::Instance
; Function compile flags: /Ogtp
; File C:\IAGOS\server\v18\Source\Source\_Common\pet.cpp
; File C:\Program Files\Microsoft Visual Studio\2022\Professional\VC\Tools\MSVC\14.44.35207\include\xtree
; File C:\IAGOS\server\v18\Source\Source\_Common\pet.cpp
; File C:\Program Files\Microsoft Visual Studio\2022\Professional\VC\Tools\MSVC\14.44.35207\include\xtree
; File C:\IAGOS\server\v18\Source\Source\_Common\pet.cpp
; File C:\Program Files\Microsoft Visual Studio\2022\Professional\VC\Tools\MSVC\14.44.35207\include\xtree
; File C:\IAGOS\server\v18\Source\Source\_Common\pet.cpp
; File C:\Program Files\Microsoft Visual Studio\2022\Professional\VC\Tools\MSVC\14.44.35207\include\xtree
; File C:\Program Files\Microsoft Visual Studio\2022\Professional\VC\Tools\MSVC\14.44.35207\include\utility
; File C:\Program Files\Microsoft Visual Studio\2022\Professional\VC\Tools\MSVC\14.44.35207\include\xmemory
; File C:\Program Files\Microsoft Visual Studio\2022\Professional\VC\Tools\MSVC\14.44.35207\include\xtree
; File C:\IAGOS\server\v18\Source\Source\_Common\pet.cpp
;	COMDAT ??1CTransformItemProperty@@UAE@XZ
_TEXT	SEGMENT
??1CTransformItemProperty@@UAE@XZ PROC			; CTransformItemProperty::~CTransformItemProperty, COMDAT
; _this$ = ecx

; 873  : {

  00000	53		 push	 ebx
  00001	56		 push	 esi
  00002	c7 01 00 00 00
	00		 mov	 DWORD PTR [ecx], OFFSET ??_7CTransformItemProperty@@6B@
; File C:\Program Files\Microsoft Visual Studio\2022\Professional\VC\Tools\MSVC\14.44.35207\include\xtree

; 1142 :         return iterator(_Scary->_Myhead->_Left, _Scary);

  00008	8d 59 04	 lea	 ebx, DWORD PTR [ecx+4]
; File C:\IAGOS\server\v18\Source\Source\_Common\pet.cpp

; 873  : {

  0000b	57		 push	 edi
; File C:\Program Files\Microsoft Visual Studio\2022\Professional\VC\Tools\MSVC\14.44.35207\include\xtree

; 1142 :         return iterator(_Scary->_Myhead->_Left, _Scary);

  0000c	8b 3b		 mov	 edi, DWORD PTR [ebx]

; 37   :     _Tree_unchecked_const_iterator(_Nodeptr _Pnode, const _Mytree* _Plist) noexcept : _Ptr(_Pnode) {

  0000e	8b 37		 mov	 esi, DWORD PTR [edi]

; 237  :         return !(*this == _Right);

  00010	3b f7		 cmp	 esi, edi
; File C:\IAGOS\server\v18\Source\Source\_Common\pet.cpp

; 874  : 	for( MPTIC::iterator i = m_mapComponents.begin(); i != m_mapComponents.end(); ++i )

  00012	74 4f		 je	 SHORT $LN3@CTransform
$LL4@CTransform:

; 875  : 		safe_delete( i->second );

  00014	8b 4e 14	 mov	 ecx, DWORD PTR [esi+20]
  00017	85 c9		 test	 ecx, ecx
  00019	74 06		 je	 SHORT $LN2@CTransform
  0001b	8b 01		 mov	 eax, DWORD PTR [ecx]
  0001d	6a 01		 push	 1
  0001f	ff 10		 call	 DWORD PTR [eax]
$LN2@CTransform:
; File C:\Program Files\Microsoft Visual Studio\2022\Professional\VC\Tools\MSVC\14.44.35207\include\xtree

; 50   :         if (_Ptr->_Right->_Isnil) { // climb looking for right subtree

  00021	8b 46 08	 mov	 eax, DWORD PTR [esi+8]
  00024	80 78 0d 00	 cmp	 BYTE PTR [eax+13], 0
  00028	74 1d		 je	 SHORT $LN30@CTransform

; 51   :             _Nodeptr _Pnode;
; 52   :             while (!(_Pnode = _Ptr->_Parent)->_Isnil && _Ptr == _Pnode->_Right) {

  0002a	8b 46 04	 mov	 eax, DWORD PTR [esi+4]
  0002d	80 78 0d 00	 cmp	 BYTE PTR [eax+13], 0
  00031	75 10		 jne	 SHORT $LN124@CTransform
$LL28@CTransform:
  00033	3b 70 08	 cmp	 esi, DWORD PTR [eax+8]
  00036	75 0b		 jne	 SHORT $LN124@CTransform

; 53   :                 _Ptr = _Pnode; // ==> parent while right subtree

  00038	8b f0		 mov	 esi, eax
  0003a	8b 40 04	 mov	 eax, DWORD PTR [eax+4]
  0003d	80 78 0d 00	 cmp	 BYTE PTR [eax+13], 0
  00041	74 f0		 je	 SHORT $LL28@CTransform
$LN124@CTransform:

; 54   :             }
; 55   : 
; 56   :             _Ptr = _Pnode; // ==> parent (head if end())

  00043	8b f0		 mov	 esi, eax

; 57   :         } else {

  00045	eb 16		 jmp	 SHORT $LN36@CTransform
$LN30@CTransform:

; 58   :             _Ptr = _Mytree::_Min(_Ptr->_Right); // ==> smallest of right subtree

  00047	8b f0		 mov	 esi, eax

; 476  :         while (!_Pnode->_Left->_Isnil) {

  00049	8b 0e		 mov	 ecx, DWORD PTR [esi]
  0004b	80 79 0d 00	 cmp	 BYTE PTR [ecx+13], 0
  0004f	75 0c		 jne	 SHORT $LN36@CTransform
$LL35@CTransform:
  00051	8b 01		 mov	 eax, DWORD PTR [ecx]

; 477  :             _Pnode = _Pnode->_Left;

  00053	8b f1		 mov	 esi, ecx
  00055	8b c8		 mov	 ecx, eax
  00057	80 78 0d 00	 cmp	 BYTE PTR [eax+13], 0
  0005b	74 f4		 je	 SHORT $LL35@CTransform
$LN36@CTransform:

; 37   :     _Tree_unchecked_const_iterator(_Nodeptr _Pnode, const _Mytree* _Plist) noexcept : _Ptr(_Pnode) {

  0005d	8b 3b		 mov	 edi, DWORD PTR [ebx]

; 237  :         return !(*this == _Right);

  0005f	3b f7		 cmp	 esi, edi
; File C:\IAGOS\server\v18\Source\Source\_Common\pet.cpp

; 874  : 	for( MPTIC::iterator i = m_mapComponents.begin(); i != m_mapComponents.end(); ++i )

  00061	75 b1		 jne	 SHORT $LL4@CTransform
$LN3@CTransform:
; File C:\Program Files\Microsoft Visual Studio\2022\Professional\VC\Tools\MSVC\14.44.35207\include\xtree

; 1374 :         _Scary->_Erase_tree(_Getal(), _Head->_Parent);

  00063	8b 77 04	 mov	 esi, DWORD PTR [edi+4]

; 768  :         while (!_Rootnode->_Isnil) { // free subtrees, then node

  00066	80 7e 0d 00	 cmp	 BYTE PTR [esi+13], 0
  0006a	75 24		 jne	 SHORT $LN115@CTransform
  0006c	0f 1f 40 00	 npad	 4
$LL70@CTransform:

; 769  :             _Erase_tree(_Al, _Rootnode->_Right);

  00070	ff 76 08	 push	 DWORD PTR [esi+8]
  00073	8b cb		 mov	 ecx, ebx
  00075	53		 push	 ebx
  00076	e8 00 00 00 00	 call	 ??$_Erase_tree@V?$allocator@U?$_Tree_node@U?$pair@$$CBHPAVCTransformItemComponent@@@std@@PAX@std@@@std@@@?$_Tree_val@U?$_Tree_simple_types@U?$pair@$$CBHPAVCTransformItemComponent@@@std@@@std@@@std@@QAEXAAV?$allocator@U?$_Tree_node@U?$pair@$$CBHPAVCTransformItemComponent@@@std@@PAX@std@@@1@PAU?$_Tree_node@U?$pair@$$CBHPAVCTransformItemComponent@@@std@@PAX@1@@Z ; std::_Tree_val<std::_Tree_simple_types<std::pair<int const ,CTransformItemComponent *> > >::_Erase_tree<std::allocator<std::_Tree_node<std::pair<int const ,CTransformItemComponent *>,void *> > >
; File C:\Program Files\Microsoft Visual Studio\2022\Professional\VC\Tools\MSVC\14.44.35207\include\utility

; 773  :     _Ty _Old_val = static_cast<_Ty&&>(_Val);

  0007b	8b c6		 mov	 eax, esi

; 774  :     _Val         = static_cast<_Other&&>(_New_val);

  0007d	8b 36		 mov	 esi, DWORD PTR [esi]
; File C:\Program Files\Microsoft Visual Studio\2022\Professional\VC\Tools\MSVC\14.44.35207\include\xmemory

; 289  :         ::operator delete(_Ptr, _Bytes);

  0007f	6a 18		 push	 24			; 00000018H
  00081	50		 push	 eax
  00082	e8 00 00 00 00	 call	 ??3@YAXPAXI@Z		; operator delete
  00087	83 c4 08	 add	 esp, 8
; File C:\Program Files\Microsoft Visual Studio\2022\Professional\VC\Tools\MSVC\14.44.35207\include\xtree

; 768  :         while (!_Rootnode->_Isnil) { // free subtrees, then node

  0008a	80 7e 0d 00	 cmp	 BYTE PTR [esi+13], 0
  0008e	74 e0		 je	 SHORT $LL70@CTransform
$LN115@CTransform:

; 1375 :         _Head->_Parent  = _Head;

  00090	89 7f 04	 mov	 DWORD PTR [edi+4], edi
  00093	8b cb		 mov	 ecx, ebx

; 1376 :         _Head->_Left    = _Head;

  00095	89 3f		 mov	 DWORD PTR [edi], edi

; 1377 :         _Head->_Right   = _Head;

  00097	89 7f 08	 mov	 DWORD PTR [edi+8], edi

; 1378 :         _Scary->_Mysize = 0;

  0009a	5f		 pop	 edi
  0009b	5e		 pop	 esi
  0009c	c7 43 04 00 00
	00 00		 mov	 DWORD PTR [ebx+4], 0
  000a3	5b		 pop	 ebx
  000a4	e9 00 00 00 00	 jmp	 ??1?$_Tree@V?$_Tmap_traits@HPAVCTransformItemComponent@@U?$less@H@std@@V?$allocator@U?$pair@$$CBHPAVCTransformItemComponent@@@std@@@3@$0A@@std@@@std@@QAE@XZ ; std::_Tree<std::_Tmap_traits<int,CTransformItemComponent *,std::less<int>,std::allocator<std::pair<int const ,CTransformItemComponent *> >,0> >::~_Tree<std::_Tmap_traits<int,CTransformItemComponent *,std::less<int>,std::allocator<std::pair<int const ,CTransformItemComponent *> >,0> >
??1CTransformItemProperty@@UAE@XZ ENDP			; CTransformItemProperty::~CTransformItemProperty
_TEXT	ENDS
; Function compile flags: /Ogtp
; File C:\IAGOS\server\v18\Source\Source\_Common\pet.cpp
; File C:\Program Files\Microsoft Visual Studio\2022\Professional\VC\Tools\MSVC\14.44.35207\include\xmemory
; File C:\IAGOS\server\v18\Source\Source\_Common\pet.cpp
; File C:\Program Files\Microsoft Visual Studio\2022\Professional\VC\Tools\MSVC\14.44.35207\include\xtree
; File C:\Program Files\Microsoft Visual Studio\2022\Professional\VC\Tools\MSVC\14.44.35207\include\xmemory
; File C:\Program Files\Microsoft Visual Studio\2022\Professional\VC\Tools\MSVC\14.44.35207\include\xtree
; File C:\IAGOS\server\v18\Source\Source\_Common\pet.cpp
;	COMDAT ??0CTransformItemProperty@@QAE@XZ
_TEXT	SEGMENT
_this$ = -4						; size = 4
_this$ = -4						; size = 4
??0CTransformItemProperty@@QAE@XZ PROC			; CTransformItemProperty::CTransformItemProperty, COMDAT
; _this$ = ecx

; 869  : {

  00000	55		 push	 ebp
  00001	8b ec		 mov	 ebp, esp
  00003	51		 push	 ecx
  00004	56		 push	 esi
  00005	57		 push	 edi
  00006	8b f9		 mov	 edi, ecx
  00008	8d 77 04	 lea	 esi, DWORD PTR [edi+4]
  0000b	89 7d fc	 mov	 DWORD PTR _this$[ebp], edi
; File C:\Program Files\Microsoft Visual Studio\2022\Professional\VC\Tools\MSVC\14.44.35207\include\xmemory

; 136  :         return ::operator new(_Bytes);

  0000e	6a 18		 push	 24			; 00000018H
; File C:\IAGOS\server\v18\Source\Source\_Common\pet.cpp

; 869  : {

  00010	89 75 fc	 mov	 DWORD PTR _this$[ebp], esi
  00013	c7 07 00 00 00
	00		 mov	 DWORD PTR [edi], OFFSET ??_7CTransformItemProperty@@6B@
; File C:\Program Files\Microsoft Visual Studio\2022\Professional\VC\Tools\MSVC\14.44.35207\include\xtree

; 450  :     _Tree_val() noexcept : _Myhead(), _Mysize(0) {}

  00019	c7 06 00 00 00
	00		 mov	 DWORD PTR [esi], 0
  0001f	c7 46 04 00 00
	00 00		 mov	 DWORD PTR [esi+4], 0
; File C:\Program Files\Microsoft Visual Studio\2022\Professional\VC\Tools\MSVC\14.44.35207\include\xmemory

; 136  :         return ::operator new(_Bytes);

  00026	e8 00 00 00 00	 call	 ??2@YAPAXI@Z		; operator new
  0002b	83 c4 04	 add	 esp, 4
; File C:\Program Files\Microsoft Visual Studio\2022\Professional\VC\Tools\MSVC\14.44.35207\include\xtree

; 346  :         _Construct_in_place(_Pnode->_Left, _Pnode);

  0002e	89 00		 mov	 DWORD PTR [eax], eax

; 347  :         _Construct_in_place(_Pnode->_Parent, _Pnode);

  00030	89 40 04	 mov	 DWORD PTR [eax+4], eax

; 348  :         _Construct_in_place(_Pnode->_Right, _Pnode);

  00033	89 40 08	 mov	 DWORD PTR [eax+8], eax

; 349  :         _Pnode->_Color = _Black;

  00036	66 c7 40 0c 01
	01		 mov	 WORD PTR [eax+12], 257	; 00000101H

; 1957 :         _Scary->_Myhead = _Node::_Buyheadnode(_Getal());

  0003c	89 06		 mov	 DWORD PTR [esi], eax
; File C:\IAGOS\server\v18\Source\Source\_Common\pet.cpp

; 870  : }

  0003e	8b c7		 mov	 eax, edi
  00040	5f		 pop	 edi
  00041	5e		 pop	 esi
  00042	8b e5		 mov	 esp, ebp
  00044	5d		 pop	 ebp
  00045	c3		 ret	 0
??0CTransformItemProperty@@QAE@XZ ENDP			; CTransformItemProperty::CTransformItemProperty
_TEXT	ENDS
; Function compile flags: /Ogtp
;	COMDAT ??_GCTransformItemComponent@@UAEPAXI@Z
_TEXT	SEGMENT
___flags$ = 8						; size = 4
??_GCTransformItemComponent@@UAEPAXI@Z PROC		; CTransformItemComponent::`scalar deleting destructor', COMDAT
; _this$ = ecx
  00000	55		 push	 ebp
  00001	8b ec		 mov	 ebp, esp
  00003	56		 push	 esi
  00004	8b f1		 mov	 esi, ecx
  00006	e8 00 00 00 00	 call	 ??1CTransformItemComponent@@UAE@XZ ; CTransformItemComponent::~CTransformItemComponent
  0000b	f6 45 08 01	 test	 BYTE PTR ___flags$[ebp], 1
  0000f	74 0b		 je	 SHORT $LN5@scalar
  00011	6a 1c		 push	 28			; 0000001cH
  00013	56		 push	 esi
  00014	e8 00 00 00 00	 call	 ??3@YAXPAXI@Z		; operator delete
  00019	83 c4 08	 add	 esp, 8
$LN5@scalar:
  0001c	8b c6		 mov	 eax, esi
  0001e	5e		 pop	 esi
  0001f	5d		 pop	 ebp
  00020	c2 04 00	 ret	 4
??_GCTransformItemComponent@@UAEPAXI@Z ENDP		; CTransformItemComponent::`scalar deleting destructor'
_TEXT	ENDS
; Function compile flags: /Ogtp
; File C:\Program Files\Microsoft Visual Studio\2022\Professional\VC\Tools\MSVC\14.44.35207\include\vector
;	COMDAT ?_Xlength@?$vector@U_TransformItemElement@@V?$allocator@U_TransformItemElement@@@std@@@std@@CAXXZ
_TEXT	SEGMENT
?_Xlength@?$vector@U_TransformItemElement@@V?$allocator@U_TransformItemElement@@@std@@@std@@CAXXZ PROC ; std::vector<_TransformItemElement,std::allocator<_TransformItemElement> >::_Xlength, COMDAT

; 2184 :         _Xlength_error("vector too long");

  00000	68 00 00 00 00	 push	 OFFSET ??_C@_0BA@FOIKENOD@vector?5too?5long@
  00005	e8 00 00 00 00	 call	 ?_Xlength_error@std@@YAXPBD@Z ; std::_Xlength_error
$LN3@Xlength:
  0000a	cc		 int	 3
?_Xlength@?$vector@U_TransformItemElement@@V?$allocator@U_TransformItemElement@@@std@@@std@@CAXXZ ENDP ; std::vector<_TransformItemElement,std::allocator<_TransformItemElement> >::_Xlength
_TEXT	ENDS
; Function compile flags: /Ogtp
; File C:\Program Files\Microsoft Visual Studio\2022\Professional\VC\Tools\MSVC\14.44.35207\include\vector
; File C:\Program Files\Microsoft Visual Studio\2022\Professional\VC\Tools\MSVC\14.44.35207\include\xmemory
; File C:\Program Files\Microsoft Visual Studio\2022\Professional\VC\Tools\MSVC\14.44.35207\include\vector
; File C:\Program Files\Microsoft Visual Studio\2022\Professional\VC\Tools\MSVC\14.44.35207\include\xmemory
; File C:\Program Files\Microsoft Visual Studio\2022\Professional\VC\Tools\MSVC\14.44.35207\include\vector
; File C:\Program Files\Microsoft Visual Studio\2022\Professional\VC\Tools\MSVC\14.44.35207\include\xmemory
; File C:\Program Files\Microsoft Visual Studio\2022\Professional\VC\Tools\MSVC\14.44.35207\include\vector
;	COMDAT ??1?$vector@U_TransformItemElement@@V?$allocator@U_TransformItemElement@@@std@@@std@@QAE@XZ
_TEXT	SEGMENT
??1?$vector@U_TransformItemElement@@V?$allocator@U_TransformItemElement@@@std@@@std@@QAE@XZ PROC ; std::vector<_TransformItemElement,std::allocator<_TransformItemElement> >::~vector<_TransformItemElement,std::allocator<_TransformItemElement> >, COMDAT
; _this$ = ecx

; 829  :     _CONSTEXPR20 ~vector() noexcept {

  00000	56		 push	 esi
  00001	8b f1		 mov	 esi, ecx

; 2090 :         if (_Myfirst) { // destroy and deallocate old array

  00003	8b 06		 mov	 eax, DWORD PTR [esi]
  00005	85 c0		 test	 eax, eax
  00007	74 40		 je	 SHORT $LN5@vector

; 2091 :             _STD _Destroy_range(_Myfirst, _Mylast, _Al);
; 2092 :             _ASAN_VECTOR_REMOVE;
; 2093 :             _Al.deallocate(_Myfirst, static_cast<size_type>(_Myend - _Myfirst));

  00009	8b 4e 08	 mov	 ecx, DWORD PTR [esi+8]
  0000c	2b c8		 sub	 ecx, eax
; File C:\Program Files\Microsoft Visual Studio\2022\Professional\VC\Tools\MSVC\14.44.35207\include\xmemory

; 985  :         _STD _Deallocate<_New_alignof<_Ty>>(_Ptr, sizeof(_Ty) * _Count);

  0000e	83 e1 f8	 and	 ecx, -8			; fffffff8H

; 284  :         if (_Bytes >= _Big_allocation_threshold) {

  00011	81 f9 00 10 00
	00		 cmp	 ecx, 4096		; 00001000H
  00017	72 12		 jb	 SHORT $LN18@vector

; 205  :     const uintptr_t _Ptr_container   = _Ptr_user[-1];

  00019	8b 50 fc	 mov	 edx, DWORD PTR [eax-4]
  0001c	83 c1 23	 add	 ecx, 35			; 00000023H

; 206  : 
; 207  :     // If the following asserts, it likely means that we are performing
; 208  :     // an aligned delete on memory coming from an unaligned allocation.
; 209  :     _STL_ASSERT(_Ptr_user[-2] == _Big_allocation_sentinel, "invalid argument");
; 210  : 
; 211  :     // Extra paranoia on aligned allocation/deallocation; ensure _Ptr_container is
; 212  :     // in range [_Min_back_shift, _Non_user_size]
; 213  : #ifdef _DEBUG
; 214  :     constexpr uintptr_t _Min_back_shift = 2 * sizeof(void*);
; 215  : #else // ^^^ defined(_DEBUG) / !defined(_DEBUG) vvv
; 216  :     constexpr uintptr_t _Min_back_shift = sizeof(void*);
; 217  : #endif // ^^^ !defined(_DEBUG) ^^^
; 218  :     const uintptr_t _Back_shift = reinterpret_cast<uintptr_t>(_Ptr) - _Ptr_container;

  0001f	2b c2		 sub	 eax, edx

; 219  :     _STL_VERIFY(_Back_shift >= _Min_back_shift && _Back_shift <= _Non_user_size, "invalid argument");

  00021	83 c0 fc	 add	 eax, -4			; fffffffcH
  00024	83 f8 1f	 cmp	 eax, 31			; 0000001fH
  00027	77 22		 ja	 SHORT $LN17@vector

; 220  :     _Ptr = reinterpret_cast<void*>(_Ptr_container);

  00029	8b c2		 mov	 eax, edx
$LN18@vector:

; 289  :         ::operator delete(_Ptr, _Bytes);

  0002b	51		 push	 ecx
  0002c	50		 push	 eax
  0002d	e8 00 00 00 00	 call	 ??3@YAXPAXI@Z		; operator delete
; File C:\Program Files\Microsoft Visual Studio\2022\Professional\VC\Tools\MSVC\14.44.35207\include\vector

; 2095 :             _Myfirst = nullptr;

  00032	c7 06 00 00 00
	00		 mov	 DWORD PTR [esi], 0
; File C:\Program Files\Microsoft Visual Studio\2022\Professional\VC\Tools\MSVC\14.44.35207\include\xmemory

; 289  :         ::operator delete(_Ptr, _Bytes);

  00038	83 c4 08	 add	 esp, 8
; File C:\Program Files\Microsoft Visual Studio\2022\Professional\VC\Tools\MSVC\14.44.35207\include\vector

; 2096 :             _Mylast  = nullptr;

  0003b	c7 46 04 00 00
	00 00		 mov	 DWORD PTR [esi+4], 0

; 2097 :             _Myend   = nullptr;

  00042	c7 46 08 00 00
	00 00		 mov	 DWORD PTR [esi+8], 0
$LN5@vector:
  00049	5e		 pop	 esi

; 835  :     }

  0004a	c3		 ret	 0
$LN17@vector:
; File C:\Program Files\Microsoft Visual Studio\2022\Professional\VC\Tools\MSVC\14.44.35207\include\xmemory

; 219  :     _STL_VERIFY(_Back_shift >= _Min_back_shift && _Back_shift <= _Non_user_size, "invalid argument");

  0004b	6a 00		 push	 0
  0004d	6a 00		 push	 0
  0004f	6a 00		 push	 0
  00051	6a 00		 push	 0
  00053	6a 00		 push	 0
  00055	e8 00 00 00 00	 call	 __invoke_watson
$LN26@vector:
  0005a	cc		 int	 3
??1?$vector@U_TransformItemElement@@V?$allocator@U_TransformItemElement@@@std@@@std@@QAE@XZ ENDP ; std::vector<_TransformItemElement,std::allocator<_TransformItemElement> >::~vector<_TransformItemElement,std::allocator<_TransformItemElement> >
_TEXT	ENDS
; Function compile flags: /Ogtp
; File C:\IAGOS\server\v18\Source\Source\_Common\pet.cpp
; File C:\Program Files\Microsoft Visual Studio\2022\Professional\VC\Tools\MSVC\14.44.35207\include\vector
; File C:\IAGOS\server\v18\Source\Source\_Common\pet.cpp
; File C:\Program Files\Microsoft Visual Studio\2022\Professional\VC\Tools\MSVC\14.44.35207\include\vector
; File C:\IAGOS\server\v18\Source\Source\_Common\pet.cpp
; File C:\Program Files\Microsoft Visual Studio\2022\Professional\VC\Tools\MSVC\14.44.35207\include\vector
; File C:\IAGOS\server\v18\Source\Source\_Common\pet.cpp
; File C:\IAGOS\server\v18\Source\Source\_Common\xUtil.h
; File C:\IAGOS\server\v18\Source\Source\_Common\pet.cpp
;	COMDAT ?GetItem@CTransformItemComponent@@QAEPAVCItemElem@@XZ
_TEXT	SEGMENT
?GetItem@CTransformItemComponent@@QAEPAVCItemElem@@XZ PROC ; CTransformItemComponent::GetItem, COMDAT
; _this$ = ecx

; 854  : {

  00000	56		 push	 esi

; 855  : 	int nProb	= xRandom( 0, eMaxProb );

  00001	68 40 42 0f 00	 push	 1000000			; 000f4240H
  00006	6a 00		 push	 0
  00008	8b f1		 mov	 esi, ecx
  0000a	e8 00 00 00 00	 call	 ?xRandom@@YAKKK@Z	; xRandom
; File C:\Program Files\Microsoft Visual Studio\2022\Professional\VC\Tools\MSVC\14.44.35207\include\vector

; 46   :     _CONSTEXPR20 _Vector_const_iterator(_Tptr _Parg, const _Container_base* _Pvector) noexcept : _Ptr(_Parg) {

  0000f	8b 4e 14	 mov	 ecx, DWORD PTR [esi+20]
; File C:\IAGOS\server\v18\Source\Source\_Common\pet.cpp

; 855  : 	int nProb	= xRandom( 0, eMaxProb );

  00012	83 c4 08	 add	 esp, 8
  00015	8b d0		 mov	 edx, eax
; File C:\Program Files\Microsoft Visual Studio\2022\Professional\VC\Tools\MSVC\14.44.35207\include\vector

; 46   :     _CONSTEXPR20 _Vector_const_iterator(_Tptr _Parg, const _Container_base* _Pvector) noexcept : _Ptr(_Parg) {

  00017	8b 46 10	 mov	 eax, DWORD PTR [esi+16]
  0001a	5e		 pop	 esi

; 176  :         return !(*this == _Right);

  0001b	3b c1		 cmp	 eax, ecx
; File C:\IAGOS\server\v18\Source\Source\_Common\pet.cpp

; 856  : 	for( VTIE::iterator i  = m_vTransformItemElements.begin(); i != m_vTransformItemElements.end(); ++i )

  0001d	74 0d		 je	 SHORT $LN3@GetItem
  0001f	90		 npad	 1
$LL4@GetItem:

; 857  : 	{
; 858  : 		if( nProb < ( *i ).nProb )

  00020	3b 50 04	 cmp	 edx, DWORD PTR [eax+4]
  00023	7c 0a		 jl	 SHORT $LN40@GetItem
; File C:\Program Files\Microsoft Visual Studio\2022\Professional\VC\Tools\MSVC\14.44.35207\include\vector

; 82   :         ++_Ptr;

  00025	83 c0 08	 add	 eax, 8

; 176  :         return !(*this == _Right);

  00028	3b c1		 cmp	 eax, ecx
; File C:\IAGOS\server\v18\Source\Source\_Common\pet.cpp

; 856  : 	for( VTIE::iterator i  = m_vTransformItemElements.begin(); i != m_vTransformItemElements.end(); ++i )

  0002a	75 f4		 jne	 SHORT $LL4@GetItem
$LN3@GetItem:

; 862  : 		}
; 863  : 	}
; 864  : 	return NULL;

  0002c	33 c0		 xor	 eax, eax

; 865  : }

  0002e	c3		 ret	 0
$LN40@GetItem:
; File C:\IAGOS\server\v18\Source\Source\_Common\xUtil.h

; 16   : 	g_next = g_next * 1103515245 + 12345;// + nRandomSeed[ i++ ];

  0002f	69 15 00 00 00
	00 6d 4e c6 41	 imul	 edx, DWORD PTR ?g_next@@3KA, 1103515245 ; g_next
  00039	81 c2 39 30 00
	00		 add	 edx, 12345		; 00003039H
  0003f	89 15 00 00 00
	00		 mov	 DWORD PTR ?g_next@@3KA, edx ; g_next
; File C:\IAGOS\server\v18\Source\Source\_Common\pet.cpp

; 860  : 			( *i ).pItem->SetSerialNumber( xRand() );

  00045	8b 08		 mov	 ecx, DWORD PTR [eax]
  00047	89 51 38	 mov	 DWORD PTR [ecx+56], edx

; 861  : 			return ( *i ).pItem;

  0004a	8b 00		 mov	 eax, DWORD PTR [eax]

; 865  : }

  0004c	c3		 ret	 0
?GetItem@CTransformItemComponent@@QAEPAVCItemElem@@XZ ENDP ; CTransformItemComponent::GetItem
_TEXT	ENDS
; Function compile flags: /Ogtp
; File C:\IAGOS\server\v18\Source\Source\_Common\pet.cpp
;	COMDAT ?AdjustmentProbability@CTransformItemComponent@@QAEXAAU_TransformItemElement@@@Z
_TEXT	SEGMENT
_element$ = 8						; size = 4
?AdjustmentProbability@CTransformItemComponent@@QAEXAAU_TransformItemElement@@@Z PROC ; CTransformItemComponent::AdjustmentProbability, COMDAT
; _this$ = ecx

; 848  : {

  00000	55		 push	 ebp
  00001	8b ec		 mov	 ebp, esp

; 849  : 	m_nTotalProb	+= element.nProb;

  00003	8b 55 08	 mov	 edx, DWORD PTR _element$[ebp]
  00006	8b 42 04	 mov	 eax, DWORD PTR [edx+4]
  00009	01 41 0c	 add	 DWORD PTR [ecx+12], eax
  0000c	8b 41 0c	 mov	 eax, DWORD PTR [ecx+12]

; 850  : 	element.nProb	= m_nTotalProb;

  0000f	89 42 04	 mov	 DWORD PTR [edx+4], eax

; 851  : }

  00012	5d		 pop	 ebp
  00013	c2 04 00	 ret	 4
?AdjustmentProbability@CTransformItemComponent@@QAEXAAU_TransformItemElement@@@Z ENDP ; CTransformItemComponent::AdjustmentProbability
_TEXT	ENDS
; Function compile flags: /Ogtp
; File C:\IAGOS\server\v18\Source\Source\_Common\pet.cpp
; File C:\Program Files\Microsoft Visual Studio\2022\Professional\VC\Tools\MSVC\14.44.35207\include\vector
; File C:\IAGOS\server\v18\Source\Source\_Common\pet.cpp
; File C:\Program Files\Microsoft Visual Studio\2022\Professional\VC\Tools\MSVC\14.44.35207\include\vector
; File C:\IAGOS\server\v18\Source\Source\_Common\pet.cpp
;	COMDAT ?AddElement@CTransformItemComponent@@QAEXU_TransformItemElement@@@Z
_TEXT	SEGMENT
_element$ = 8						; size = 8
?AddElement@CTransformItemComponent@@QAEXU_TransformItemElement@@@Z PROC ; CTransformItemComponent::AddElement, COMDAT
; _this$ = ecx

; 842  : {

  00000	55		 push	 ebp
  00001	8b ec		 mov	 ebp, esp
  00003	56		 push	 esi

; 843  : 	AdjustmentProbability( element );

  00004	8d 45 08	 lea	 eax, DWORD PTR _element$[ebp]
  00007	8b f1		 mov	 esi, ecx
  00009	50		 push	 eax
  0000a	e8 00 00 00 00	 call	 ?AdjustmentProbability@CTransformItemComponent@@QAEXAAU_TransformItemElement@@@Z ; CTransformItemComponent::AdjustmentProbability
; File C:\Program Files\Microsoft Visual Studio\2022\Professional\VC\Tools\MSVC\14.44.35207\include\vector

; 844  :         if (_Mylast != _My_data._Myend) {

  0000f	8b 56 14	 mov	 edx, DWORD PTR [esi+20]
  00012	3b 56 18	 cmp	 edx, DWORD PTR [esi+24]
  00015	74 14		 je	 SHORT $LN6@AddElement

; 860  :             _STD _Construct_in_place(*_Mylast, _STD forward<_Valty>(_Val)...);

  00017	8b 45 08	 mov	 eax, DWORD PTR _element$[ebp]
  0001a	8b 4d 0c	 mov	 ecx, DWORD PTR _element$[ebp+4]
  0001d	89 02		 mov	 DWORD PTR [edx], eax
  0001f	89 4a 04	 mov	 DWORD PTR [edx+4], ecx

; 861  :         } else {
; 862  :             _ASAN_VECTOR_EXTEND_GUARD(static_cast<size_type>(_Mylast - _My_data._Myfirst) + 1);
; 863  :             _Alty_traits::construct(_Getal(), _Unfancy(_Mylast), _STD forward<_Valty>(_Val)...);
; 864  :             _ASAN_VECTOR_RELEASE_GUARD;
; 865  :         }
; 866  : 
; 867  :         _Orphan_range(_Mylast, _Mylast);
; 868  :         _Ty& _Result = *_Mylast;
; 869  :         ++_Mylast;

  00022	83 46 14 08	 add	 DWORD PTR [esi+20], 8
  00026	5e		 pop	 esi
; File C:\IAGOS\server\v18\Source\Source\_Common\pet.cpp

; 845  : }

  00027	5d		 pop	 ebp
  00028	c2 08 00	 ret	 8
$LN6@AddElement:
; File C:\Program Files\Microsoft Visual Studio\2022\Professional\VC\Tools\MSVC\14.44.35207\include\vector

; 848  :         return *_Emplace_reallocate(_Mylast, _STD forward<_Valty>(_Val)...);

  0002b	8d 45 08	 lea	 eax, DWORD PTR _element$[ebp]
  0002e	50		 push	 eax
  0002f	52		 push	 edx
  00030	8d 4e 10	 lea	 ecx, DWORD PTR [esi+16]
  00033	e8 00 00 00 00	 call	 ??$_Emplace_reallocate@ABU_TransformItemElement@@@?$vector@U_TransformItemElement@@V?$allocator@U_TransformItemElement@@@std@@@std@@AAEPAU_TransformItemElement@@QAU2@ABU2@@Z ; std::vector<_TransformItemElement,std::allocator<_TransformItemElement> >::_Emplace_reallocate<_TransformItemElement const &>
  00038	5e		 pop	 esi
; File C:\IAGOS\server\v18\Source\Source\_Common\pet.cpp

; 845  : }

  00039	5d		 pop	 ebp
  0003a	c2 08 00	 ret	 8
?AddElement@CTransformItemComponent@@QAEXU_TransformItemElement@@@Z ENDP ; CTransformItemComponent::AddElement
_TEXT	ENDS
; Function compile flags: /Ogtp
; File C:\IAGOS\server\v18\Source\Source\_Common\pet.cpp
; File C:\Program Files\Microsoft Visual Studio\2022\Professional\VC\Tools\MSVC\14.44.35207\include\vector
; File C:\IAGOS\server\v18\Source\Source\_Common\pet.cpp
; File C:\Program Files\Microsoft Visual Studio\2022\Professional\VC\Tools\MSVC\14.44.35207\include\vector
; File C:\IAGOS\server\v18\Source\Source\_Common\pet.cpp
; File C:\Program Files\Microsoft Visual Studio\2022\Professional\VC\Tools\MSVC\14.44.35207\include\vector
; File C:\IAGOS\server\v18\Source\Source\_Common\pet.cpp
;	COMDAT ?Clear@CTransformItemComponent@@QAEXXZ
_TEXT	SEGMENT
?Clear@CTransformItemComponent@@QAEXXZ PROC		; CTransformItemComponent::Clear, COMDAT
; _this$ = ecx

; 835  : {

  00000	56		 push	 esi
  00001	57		 push	 edi
  00002	8b f9		 mov	 edi, ecx
; File C:\Program Files\Microsoft Visual Studio\2022\Professional\VC\Tools\MSVC\14.44.35207\include\vector

; 46   :     _CONSTEXPR20 _Vector_const_iterator(_Tptr _Parg, const _Container_base* _Pvector) noexcept : _Ptr(_Parg) {

  00004	8b 77 10	 mov	 esi, DWORD PTR [edi+16]

; 176  :         return !(*this == _Right);

  00007	3b 77 14	 cmp	 esi, DWORD PTR [edi+20]
; File C:\IAGOS\server\v18\Source\Source\_Common\pet.cpp

; 836  : 	for( VTIE::iterator i  = m_vTransformItemElements.begin(); i != m_vTransformItemElements.end(); ++i )

  0000a	74 18		 je	 SHORT $LN3@Clear
  0000c	0f 1f 40 00	 npad	 4
$LL4@Clear:

; 837  : 		safe_delete( ( *i ).pItem );

  00010	8b 0e		 mov	 ecx, DWORD PTR [esi]
  00012	85 c9		 test	 ecx, ecx
  00014	74 06		 je	 SHORT $LN2@Clear
  00016	8b 01		 mov	 eax, DWORD PTR [ecx]
  00018	6a 01		 push	 1
  0001a	ff 10		 call	 DWORD PTR [eax]
$LN2@Clear:
; File C:\Program Files\Microsoft Visual Studio\2022\Professional\VC\Tools\MSVC\14.44.35207\include\vector

; 82   :         ++_Ptr;

  0001c	83 c6 08	 add	 esi, 8

; 176  :         return !(*this == _Right);

  0001f	3b 77 14	 cmp	 esi, DWORD PTR [edi+20]
; File C:\IAGOS\server\v18\Source\Source\_Common\pet.cpp

; 836  : 	for( VTIE::iterator i  = m_vTransformItemElements.begin(); i != m_vTransformItemElements.end(); ++i )

  00022	75 ec		 jne	 SHORT $LL4@Clear
$LN3@Clear:
; File C:\Program Files\Microsoft Visual Studio\2022\Professional\VC\Tools\MSVC\14.44.35207\include\vector

; 1812 :         if (_Myfirst == _Mylast) { // already empty, nothing to do

  00024	8b 47 10	 mov	 eax, DWORD PTR [edi+16]
  00027	3b 47 14	 cmp	 eax, DWORD PTR [edi+20]
  0002a	74 03		 je	 SHORT $LN38@Clear

; 1813 :             // This is an optimization for debug mode: we can avoid taking the debug lock to invalidate iterators.
; 1814 :             // Note that when clearing an empty vector, this will preserve past-the-end iterators, which is allowed by
; 1815 :             // N4950 [sequence.reqmts]/54 "a.clear() [...] may invalidate the past-the-end iterator".
; 1816 :             return;
; 1817 :         }
; 1818 : 
; 1819 :         _My_data._Orphan_all();
; 1820 :         _Destroy_range(_Myfirst, _Mylast, _Getal());
; 1821 :         _ASAN_VECTOR_MODIFY(static_cast<difference_type>(_Myfirst - _Mylast)); // negative when destroying elements
; 1822 :         _Mylast = _Myfirst;

  0002c	89 47 14	 mov	 DWORD PTR [edi+20], eax
$LN38@Clear:
  0002f	5f		 pop	 edi
; File C:\IAGOS\server\v18\Source\Source\_Common\pet.cpp

; 839  : }

  00030	5e		 pop	 esi
  00031	c3		 ret	 0
?Clear@CTransformItemComponent@@QAEXXZ ENDP		; CTransformItemComponent::Clear
_TEXT	ENDS
; Function compile flags: /Ogtp
; File C:\IAGOS\server\v18\Source\Source\_Common\pet.cpp
;	COMDAT ??1CTransformItemComponent@@UAE@XZ
_TEXT	SEGMENT
??1CTransformItemComponent@@UAE@XZ PROC			; CTransformItemComponent::~CTransformItemComponent, COMDAT
; _this$ = ecx

; 830  : {

  00000	56		 push	 esi
  00001	8b f1		 mov	 esi, ecx
  00003	c7 06 00 00 00
	00		 mov	 DWORD PTR [esi], OFFSET ??_7CTransformItemComponent@@6B@

; 831  : 	Clear();

  00009	e8 00 00 00 00	 call	 ?Clear@CTransformItemComponent@@QAEXXZ ; CTransformItemComponent::Clear

; 832  : }

  0000e	8d 4e 10	 lea	 ecx, DWORD PTR [esi+16]
  00011	5e		 pop	 esi
  00012	e9 00 00 00 00	 jmp	 ??1?$vector@U_TransformItemElement@@V?$allocator@U_TransformItemElement@@@std@@@std@@QAE@XZ ; std::vector<_TransformItemElement,std::allocator<_TransformItemElement> >::~vector<_TransformItemElement,std::allocator<_TransformItemElement> >
??1CTransformItemComponent@@UAE@XZ ENDP			; CTransformItemComponent::~CTransformItemComponent
_TEXT	ENDS
; Function compile flags: /Ogtp
; File C:\IAGOS\server\v18\Source\Source\_Common\pet.cpp
; File C:\Program Files\Microsoft Visual Studio\2022\Professional\VC\Tools\MSVC\14.44.35207\include\vector
; File C:\IAGOS\server\v18\Source\Source\_Common\pet.cpp
;	COMDAT ??0CTransformItemComponent@@QAE@H@Z
_TEXT	SEGMENT
_this$ = -4						; size = 4
_nTransform$ = 8					; size = 4
??0CTransformItemComponent@@QAE@H@Z PROC		; CTransformItemComponent::CTransformItemComponent, COMDAT
; _this$ = ecx

; 826  : {

  00000	55		 push	 ebp
  00001	8b ec		 mov	 ebp, esp
  00003	51		 push	 ecx

; 824  : m_nTransform( nTransform ),

  00004	8b 45 08	 mov	 eax, DWORD PTR _nTransform$[ebp]
  00007	89 41 04	 mov	 DWORD PTR [ecx+4], eax

; 827  : }

  0000a	8b c1		 mov	 eax, ecx
  0000c	c7 01 00 00 00
	00		 mov	 DWORD PTR [ecx], OFFSET ??_7CTransformItemComponent@@6B@
  00012	c7 41 0c 00 00
	00 00		 mov	 DWORD PTR [ecx+12], 0
  00019	89 4d fc	 mov	 DWORD PTR _this$[ebp], ecx
; File C:\Program Files\Microsoft Visual Studio\2022\Professional\VC\Tools\MSVC\14.44.35207\include\vector

; 400  :     _CONSTEXPR20 _Vector_val() noexcept : _Myfirst(), _Mylast(), _Myend() {}

  0001c	c7 41 10 00 00
	00 00		 mov	 DWORD PTR [ecx+16], 0
  00023	c7 41 14 00 00
	00 00		 mov	 DWORD PTR [ecx+20], 0
  0002a	c7 41 18 00 00
	00 00		 mov	 DWORD PTR [ecx+24], 0
; File C:\IAGOS\server\v18\Source\Source\_Common\pet.cpp

; 827  : }

  00031	8b e5		 mov	 esp, ebp
  00033	5d		 pop	 ebp
  00034	c2 04 00	 ret	 4
??0CTransformItemComponent@@QAE@H@Z ENDP		; CTransformItemComponent::CTransformItemComponent
_TEXT	ENDS
; Function compile flags: /Ogtp
;	COMDAT ??_GCTransformerEgg@@UAEPAXI@Z
_TEXT	SEGMENT
___flags$ = 8						; size = 4
??_GCTransformerEgg@@UAEPAXI@Z PROC			; CTransformerEgg::`scalar deleting destructor', COMDAT
; _this$ = ecx
  00000	55		 push	 ebp
  00001	8b ec		 mov	 ebp, esp
  00003	56		 push	 esi
  00004	8b f1		 mov	 esi, ecx
  00006	e8 00 00 00 00	 call	 ??1CTransformerEgg@@UAE@XZ ; CTransformerEgg::~CTransformerEgg
  0000b	f6 45 08 01	 test	 BYTE PTR ___flags$[ebp], 1
  0000f	74 0b		 je	 SHORT $LN5@scalar
  00011	6a 04		 push	 4
  00013	56		 push	 esi
  00014	e8 00 00 00 00	 call	 ??3@YAXPAXI@Z		; operator delete
  00019	83 c4 08	 add	 esp, 8
$LN5@scalar:
  0001c	8b c6		 mov	 eax, esi
  0001e	5e		 pop	 esi
  0001f	5d		 pop	 ebp
  00020	c2 04 00	 ret	 4
??_GCTransformerEgg@@UAEPAXI@Z ENDP			; CTransformerEgg::`scalar deleting destructor'
_TEXT	ENDS
; Function compile flags: /Ogtp
; File C:\IAGOS\server\v18\Source\Source\_Common\pet.cpp
;	COMDAT ?Instance@CTransformerEgg@@SAPAV1@XZ
_TEXT	SEGMENT
?Instance@CTransformerEgg@@SAPAV1@XZ PROC		; CTransformerEgg::Instance, COMDAT

; 795  : 	static CTransformerEgg sTransformerEgg;

  00000	64 a1 00 00 00
	00		 mov	 eax, DWORD PTR fs:__tls_array
  00006	8b 0d 00 00 00
	00		 mov	 ecx, DWORD PTR __tls_index
  0000c	8b 0c 88	 mov	 ecx, DWORD PTR [eax+ecx*4]
  0000f	a1 00 00 00 00	 mov	 eax, DWORD PTR ?$TSS0@?1??Instance@CTransformerEgg@@SAPAV2@XZ@4HA
  00014	3b 81 00 00 00
	00		 cmp	 eax, DWORD PTR __Init_thread_epoch[ecx]
  0001a	7f 06		 jg	 SHORT $LN8@Instance
$LN5@Instance:

; 796  : 	return &sTransformerEgg;
; 797  : }

  0001c	b8 00 00 00 00	 mov	 eax, OFFSET ?sTransformerEgg@?1??Instance@CTransformerEgg@@SAPAV2@XZ@4V2@A
  00021	c3		 ret	 0
$LN8@Instance:

; 795  : 	static CTransformerEgg sTransformerEgg;

  00022	68 00 00 00 00	 push	 OFFSET ?$TSS0@?1??Instance@CTransformerEgg@@SAPAV2@XZ@4HA
  00027	e8 00 00 00 00	 call	 __Init_thread_header
  0002c	83 c4 04	 add	 esp, 4
  0002f	83 3d 00 00 00
	00 ff		 cmp	 DWORD PTR ?$TSS0@?1??Instance@CTransformerEgg@@SAPAV2@XZ@4HA, -1
  00036	75 e4		 jne	 SHORT $LN5@Instance
  00038	b9 00 00 00 00	 mov	 ecx, OFFSET ?sTransformerEgg@?1??Instance@CTransformerEgg@@SAPAV2@XZ@4V2@A
  0003d	e8 00 00 00 00	 call	 ??0CTransformerEgg@@QAE@XZ ; CTransformerEgg::CTransformerEgg
  00042	68 00 00 00 00	 push	 OFFSET ??__FsTransformerEgg@?1??Instance@CTransformerEgg@@SAPAV1@XZ@YAXXZ ; `CTransformerEgg::Instance'::`2'::`dynamic atexit destructor for 'sTransformerEgg''
  00047	e8 00 00 00 00	 call	 _atexit
  0004c	68 00 00 00 00	 push	 OFFSET ?$TSS0@?1??Instance@CTransformerEgg@@SAPAV2@XZ@4HA
  00051	e8 00 00 00 00	 call	 __Init_thread_footer
  00056	83 c4 08	 add	 esp, 8
  00059	eb c1		 jmp	 SHORT $LN5@Instance
?Instance@CTransformerEgg@@SAPAV1@XZ ENDP		; CTransformerEgg::Instance
_TEXT	ENDS
; Function compile flags: /Ogtp
; File C:\IAGOS\server\v18\Source\Source\_Common\pet.cpp
; File C:\Program Files\Microsoft Visual Studio\2022\Professional\VC\Tools\MSVC\14.44.35207\include\xmemory
; File C:\Program Files\Microsoft Visual Studio\2022\Professional\VC\Tools\MSVC\14.44.35207\include\xtree
; File C:\Program Files\Microsoft Visual Studio\2022\Professional\VC\Tools\MSVC\14.44.35207\include\xmemory
; File C:\Program Files\Microsoft Visual Studio\2022\Professional\VC\Tools\MSVC\14.44.35207\include\xtree
; File C:\Program Files\Microsoft Visual Studio\2022\Professional\VC\Tools\MSVC\14.44.35207\include\vector
; File C:\IAGOS\server\v18\Source\Source\_Common\pet.cpp
; File C:\Program Files\Microsoft Visual Studio\2022\Professional\VC\Tools\MSVC\14.44.35207\include\vector
; File C:\IAGOS\server\v18\Source\Source\_Common\pet.cpp
; File C:\Program Files\Microsoft Visual Studio\2022\Professional\VC\Tools\MSVC\14.44.35207\include\xtree
; File C:\Program Files\Microsoft Visual Studio\2022\Professional\VC\Tools\MSVC\14.44.35207\include\vector
; File C:\Program Files\Microsoft Visual Studio\2022\Professional\VC\Tools\MSVC\14.44.35207\include\xtree
; File C:\Program Files\Microsoft Visual Studio\2022\Professional\VC\Tools\MSVC\14.44.35207\include\vector
; File C:\Program Files\Microsoft Visual Studio\2022\Professional\VC\Tools\MSVC\14.44.35207\include\xtree
; File C:\Program Files\Microsoft Visual Studio\2022\Professional\VC\Tools\MSVC\14.44.35207\include\type_traits
; File C:\Program Files\Microsoft Visual Studio\2022\Professional\VC\Tools\MSVC\14.44.35207\include\xtree
; File C:\Program Files\Microsoft Visual Studio\2022\Professional\VC\Tools\MSVC\14.44.35207\include\type_traits
; File C:\Program Files\Microsoft Visual Studio\2022\Professional\VC\Tools\MSVC\14.44.35207\include\xtree
; File C:\Program Files\Microsoft Visual Studio\2022\Professional\VC\Tools\MSVC\14.44.35207\include\type_traits
; File C:\Program Files\Microsoft Visual Studio\2022\Professional\VC\Tools\MSVC\14.44.35207\include\xtree
; File C:\Program Files\Microsoft Visual Studio\2022\Professional\VC\Tools\MSVC\14.44.35207\include\xmemory
; File C:\Program Files\Microsoft Visual Studio\2022\Professional\VC\Tools\MSVC\14.44.35207\include\xtree
; File C:\Program Files\Microsoft Visual Studio\2022\Professional\VC\Tools\MSVC\14.44.35207\include\xmemory
; File C:\Program Files\Microsoft Visual Studio\2022\Professional\VC\Tools\MSVC\14.44.35207\include\xtree
; File C:\Program Files\Microsoft Visual Studio\2022\Professional\VC\Tools\MSVC\14.44.35207\include\xmemory
; File C:\Program Files\Microsoft Visual Studio\2022\Professional\VC\Tools\MSVC\14.44.35207\include\xtree
; File C:\Program Files\Microsoft Visual Studio\2022\Professional\VC\Tools\MSVC\14.44.35207\include\utility
; File C:\Program Files\Microsoft Visual Studio\2022\Professional\VC\Tools\MSVC\14.44.35207\include\xtree
; File C:\IAGOS\server\v18\Source\Source\_Common\pet.cpp
; File C:\Program Files\Microsoft Visual Studio\2022\Professional\VC\Tools\MSVC\14.44.35207\include\vector
; File C:\IAGOS\server\v18\Source\Source\_Common\pet.cpp
; File C:\Program Files\Microsoft Visual Studio\2022\Professional\VC\Tools\MSVC\14.44.35207\include\vector
; File C:\IAGOS\server\v18\Source\Source\_Common\pet.cpp
; File C:\Program Files\Microsoft Visual Studio\2022\Professional\VC\Tools\MSVC\14.44.35207\include\xtree
; File C:\IAGOS\server\v18\Source\Source\_Common\pet.cpp
;	COMDAT ?IsValidStuff@CTransformerEgg@@UAEHPAVCUser@@AAVCTransformStuff@@@Z
_TEXT	SEGMENT
$T5 = -36						; size = 8
_setItems$ = -28					; size = 8
_i$1$ = -20						; size = 4
_pComponent$1$ = -16					; size = 4
__$EHRec$ = -12						; size = 12
_pUser$ = 8						; size = 4
_stuff$ = 12						; size = 4
?IsValidStuff@CTransformerEgg@@UAEHPAVCUser@@AAVCTransformStuff@@@Z PROC ; CTransformerEgg::IsValidStuff, COMDAT
; _this$ = ecx

; 800  : {

  00000	55		 push	 ebp
  00001	8b ec		 mov	 ebp, esp
  00003	6a ff		 push	 -1
  00005	68 00 00 00 00	 push	 __ehhandler$?IsValidStuff@CTransformerEgg@@UAEHPAVCUser@@AAVCTransformStuff@@@Z
  0000a	64 a1 00 00 00
	00		 mov	 eax, DWORD PTR fs:0
  00010	50		 push	 eax
  00011	83 ec 18	 sub	 esp, 24			; 00000018H
  00014	53		 push	 ebx
  00015	56		 push	 esi
  00016	57		 push	 edi
  00017	a1 00 00 00 00	 mov	 eax, DWORD PTR ___security_cookie
  0001c	33 c5		 xor	 eax, ebp
  0001e	50		 push	 eax
  0001f	8d 45 f4	 lea	 eax, DWORD PTR __$EHRec$[ebp]
  00022	64 a3 00 00 00
	00		 mov	 DWORD PTR fs:0, eax

; 801  : 	// ±âş» Ŕç·á Á¶°ÇŔ» ¸¸Á·ÇĎÁö ľĘŔ¸¸é şÎŔűÇŐ Ŕç·á
; 802  : 	if( !ITransformer::IsValidStuff( pUser, stuff ) )

  00028	8b 75 0c	 mov	 esi, DWORD PTR _stuff$[ebp]
  0002b	56		 push	 esi
  0002c	ff 75 08	 push	 DWORD PTR _pUser$[ebp]
  0002f	e8 00 00 00 00	 call	 ?IsValidStuff@ITransformer@@UAEHPAVCUser@@AAVCTransformStuff@@@Z ; ITransformer::IsValidStuff
  00034	85 c0		 test	 eax, eax
  00036	75 14		 jne	 SHORT $LN5@IsValidStu

; 819  : }

  00038	8b 4d f4	 mov	 ecx, DWORD PTR __$EHRec$[ebp]
  0003b	64 89 0d 00 00
	00 00		 mov	 DWORD PTR fs:0, ecx
  00042	59		 pop	 ecx
  00043	5f		 pop	 edi
  00044	5e		 pop	 esi
  00045	5b		 pop	 ebx
  00046	8b e5		 mov	 esp, ebp
  00048	5d		 pop	 ebp
  00049	c2 08 00	 ret	 8
$LN5@IsValidStu:
; File C:\Program Files\Microsoft Visual Studio\2022\Professional\VC\Tools\MSVC\14.44.35207\include\xmemory

; 136  :         return ::operator new(_Bytes);

  0004c	6a 14		 push	 20			; 00000014H
; File C:\Program Files\Microsoft Visual Studio\2022\Professional\VC\Tools\MSVC\14.44.35207\include\xtree

; 450  :     _Tree_val() noexcept : _Myhead(), _Mysize(0) {}

  0004e	c7 45 e4 00 00
	00 00		 mov	 DWORD PTR _setItems$[ebp], 0
  00055	c7 45 e8 00 00
	00 00		 mov	 DWORD PTR _setItems$[ebp+4], 0
; File C:\Program Files\Microsoft Visual Studio\2022\Professional\VC\Tools\MSVC\14.44.35207\include\xmemory

; 136  :         return ::operator new(_Bytes);

  0005c	e8 00 00 00 00	 call	 ??2@YAPAXI@Z		; operator new

; 256  :         return _Traits::_Allocate(_Bytes);

  00061	8b d8		 mov	 ebx, eax

; 136  :         return ::operator new(_Bytes);

  00063	83 c4 04	 add	 esp, 4
; File C:\Program Files\Microsoft Visual Studio\2022\Professional\VC\Tools\MSVC\14.44.35207\include\xtree

; 346  :         _Construct_in_place(_Pnode->_Left, _Pnode);

  00066	89 1b		 mov	 DWORD PTR [ebx], ebx

; 347  :         _Construct_in_place(_Pnode->_Parent, _Pnode);

  00068	89 5b 04	 mov	 DWORD PTR [ebx+4], ebx

; 348  :         _Construct_in_place(_Pnode->_Right, _Pnode);

  0006b	89 5b 08	 mov	 DWORD PTR [ebx+8], ebx

; 349  :         _Pnode->_Color = _Black;

  0006e	66 c7 43 0c 01
	01		 mov	 WORD PTR [ebx+12], 257	; 00000101H

; 1957 :         _Scary->_Myhead = _Node::_Buyheadnode(_Getal());

  00074	89 5d e4	 mov	 DWORD PTR _setItems$[ebp], ebx
; File C:\Program Files\Microsoft Visual Studio\2022\Professional\VC\Tools\MSVC\14.44.35207\include\vector

; 1915 :         return static_cast<size_type>(_My_data._Mylast - _My_data._Myfirst);

  00077	8b 46 0c	 mov	 eax, DWORD PTR [esi+12]
; File C:\IAGOS\server\v18\Source\Source\_Common\pet.cpp

; 806  : 	for( DWORD i = 0; i < stuff.GetSize(); i++ )

  0007a	33 d2		 xor	 edx, edx
; File C:\Program Files\Microsoft Visual Studio\2022\Professional\VC\Tools\MSVC\14.44.35207\include\vector

; 1915 :         return static_cast<size_type>(_My_data._Mylast - _My_data._Myfirst);

  0007c	8b 4e 08	 mov	 ecx, DWORD PTR [esi+8]
  0007f	2b c1		 sub	 eax, ecx
  00081	c1 f8 03	 sar	 eax, 3
; File C:\IAGOS\server\v18\Source\Source\_Common\pet.cpp

; 805  : 	set<int> setItems;

  00084	c7 45 fc 00 00
	00 00		 mov	 DWORD PTR __$EHRec$[ebp+8], 0

; 806  : 	for( DWORD i = 0; i < stuff.GetSize(); i++ )

  0008b	89 55 ec	 mov	 DWORD PTR _i$1$[ebp], edx
  0008e	85 c0		 test	 eax, eax
  00090	0f 84 dc 00 00
	00		 je	 $LN3@IsValidStu
$LL4@IsValidStu:
; File C:\Program Files\Microsoft Visual Studio\2022\Professional\VC\Tools\MSVC\14.44.35207\include\xtree

; 1630 :         _Tree_find_result<_Nodeptr> _Result{{_Scary->_Myhead->_Parent, _Tree_child::_Right}, _Scary->_Myhead};

  00096	8b 7b 04	 mov	 edi, DWORD PTR [ebx+4]
; File C:\Program Files\Microsoft Visual Studio\2022\Professional\VC\Tools\MSVC\14.44.35207\include\vector

; 1934 :         return _My_data._Myfirst[_Pos];

  00099	8d 04 d1	 lea	 eax, DWORD PTR [ecx+edx*8]
; File C:\Program Files\Microsoft Visual Studio\2022\Professional\VC\Tools\MSVC\14.44.35207\include\xtree

; 1630 :         _Tree_find_result<_Nodeptr> _Result{{_Scary->_Myhead->_Parent, _Tree_child::_Right}, _Scary->_Myhead};

  0009c	33 f6		 xor	 esi, esi
; File C:\Program Files\Microsoft Visual Studio\2022\Professional\VC\Tools\MSVC\14.44.35207\include\vector

; 1934 :         return _My_data._Myfirst[_Pos];

  0009e	89 45 f0	 mov	 DWORD PTR _pComponent$1$[ebp], eax
; File C:\Program Files\Microsoft Visual Studio\2022\Professional\VC\Tools\MSVC\14.44.35207\include\xtree

; 1630 :         _Tree_find_result<_Nodeptr> _Result{{_Scary->_Myhead->_Parent, _Tree_child::_Right}, _Scary->_Myhead};

  000a1	8b cb		 mov	 ecx, ebx

; 1631 :         _Nodeptr _Trynode = _Result._Location._Parent;
; 1632 :         while (!_Trynode->_Isnil) {

  000a3	80 7f 0d 00	 cmp	 BYTE PTR [edi+13], 0
  000a7	75 27		 jne	 SHORT $LN65@IsValidStu
; File C:\Program Files\Microsoft Visual Studio\2022\Professional\VC\Tools\MSVC\14.44.35207\include\type_traits

; 2380 :         return _Left < _Right;

  000a9	8b 10		 mov	 edx, DWORD PTR [eax]
  000ab	8b c7		 mov	 eax, edi
  000ad	0f 1f 00	 npad	 3
$LL64@IsValidStu:
; File C:\Program Files\Microsoft Visual Studio\2022\Professional\VC\Tools\MSVC\14.44.35207\include\xtree

; 1633 :             _Result._Location._Parent = _Trynode;

  000b0	8b f8		 mov	 edi, eax
; File C:\Program Files\Microsoft Visual Studio\2022\Professional\VC\Tools\MSVC\14.44.35207\include\type_traits

; 2380 :         return _Left < _Right;

  000b2	39 50 10	 cmp	 DWORD PTR [eax+16], edx
; File C:\Program Files\Microsoft Visual Studio\2022\Professional\VC\Tools\MSVC\14.44.35207\include\xtree

; 1634 :             if (_DEBUG_LT_PRED(_Getcomp(), _Traits::_Kfn(_Trynode->_Myval), _Keyval)) {

  000b5	7d 07		 jge	 SHORT $LN66@IsValidStu

; 1635 :                 _Result._Location._Child = _Tree_child::_Right;
; 1636 :                 _Trynode                 = _Trynode->_Right;

  000b7	8b 40 08	 mov	 eax, DWORD PTR [eax+8]
  000ba	33 f6		 xor	 esi, esi

; 1637 :             } else {

  000bc	eb 09		 jmp	 SHORT $LN67@IsValidStu
$LN66@IsValidStu:

; 1638 :                 _Result._Location._Child = _Tree_child::_Left;
; 1639 :                 _Result._Bound           = _Trynode;

  000be	8b c8		 mov	 ecx, eax
  000c0	be 01 00 00 00	 mov	 esi, 1

; 1640 :                 _Trynode                 = _Trynode->_Left;

  000c5	8b 00		 mov	 eax, DWORD PTR [eax]
$LN67@IsValidStu:

; 1631 :         _Nodeptr _Trynode = _Result._Location._Parent;
; 1632 :         while (!_Trynode->_Isnil) {

  000c7	80 78 0d 00	 cmp	 BYTE PTR [eax+13], 0
  000cb	74 e3		 je	 SHORT $LL64@IsValidStu
  000cd	8b 45 f0	 mov	 eax, DWORD PTR _pComponent$1$[ebp]
$LN65@IsValidStu:

; 1624 :         return !_Bound->_Isnil && !_DEBUG_LT_PRED(_Getcomp(), _Keyval, _Traits::_Kfn(_Bound->_Myval));

  000d0	80 79 0d 00	 cmp	 BYTE PTR [ecx+13], 0
  000d4	75 0b		 jne	 SHORT $LN60@IsValidStu
; File C:\Program Files\Microsoft Visual Studio\2022\Professional\VC\Tools\MSVC\14.44.35207\include\type_traits

; 2380 :         return _Left < _Right;

  000d6	8b 00		 mov	 eax, DWORD PTR [eax]
  000d8	3b 41 10	 cmp	 eax, DWORD PTR [ecx+16]
; File C:\Program Files\Microsoft Visual Studio\2022\Professional\VC\Tools\MSVC\14.44.35207\include\xtree

; 1624 :         return !_Bound->_Isnil && !_DEBUG_LT_PRED(_Getcomp(), _Keyval, _Traits::_Kfn(_Bound->_Myval));

  000db	0f 8d 8d 00 00
	00		 jge	 $LN181@IsValidStu
$LN60@IsValidStu:

; 1648 :         if (max_size() == _Get_scary()->_Mysize) {

  000e1	81 7d e8 cc cc
	cc 0c		 cmp	 DWORD PTR _setItems$[ebp+4], 214748364 ; 0cccccccH
  000e8	0f 84 a7 00 00
	00		 je	 $LN178@IsValidStu
; File C:\Program Files\Microsoft Visual Studio\2022\Professional\VC\Tools\MSVC\14.44.35207\include\xmemory

; 1160 :     _CONSTEXPR20 explicit _Alloc_construct_ptr(_Alloc& _Al_) : _Al(_Al_), _Ptr(nullptr) {}

  000ee	8d 45 e4	 lea	 eax, DWORD PTR _setItems$[ebp]
  000f1	89 45 dc	 mov	 DWORD PTR $T5[ebp], eax

; 136  :         return ::operator new(_Bytes);

  000f4	6a 14		 push	 20			; 00000014H
; File C:\Program Files\Microsoft Visual Studio\2022\Professional\VC\Tools\MSVC\14.44.35207\include\xtree

; 808  :     explicit _Tree_temp_node_alloc(_Alnode& _Al_) : _Alloc_construct_ptr<_Alnode>(_Al_) {

  000f6	c6 45 fc 01	 mov	 BYTE PTR __$EHRec$[ebp+8], 1
; File C:\Program Files\Microsoft Visual Studio\2022\Professional\VC\Tools\MSVC\14.44.35207\include\xmemory

; 1167 :         _Ptr = nullptr; // if allocate throws, prevents double-free

  000fa	c7 45 e0 00 00
	00 00		 mov	 DWORD PTR $T5[ebp+4], 0

; 136  :         return ::operator new(_Bytes);

  00101	e8 00 00 00 00	 call	 ??2@YAPAXI@Z		; operator new
; File C:\Program Files\Microsoft Visual Studio\2022\Professional\VC\Tools\MSVC\14.44.35207\include\xtree

; 830  :         _Alnode_traits::construct(this->_Al, _STD addressof(this->_Ptr->_Myval), _STD forward<_Valtys>(_Vals)...);

  00106	8b 4d f0	 mov	 ecx, DWORD PTR _pComponent$1$[ebp]
; File C:\Program Files\Microsoft Visual Studio\2022\Professional\VC\Tools\MSVC\14.44.35207\include\xmemory

; 136  :         return ::operator new(_Bytes);

  00109	83 c4 04	 add	 esp, 4
; File C:\Program Files\Microsoft Visual Studio\2022\Professional\VC\Tools\MSVC\14.44.35207\include\xtree

; 810  :     }

  0010c	c6 45 fc 00	 mov	 BYTE PTR __$EHRec$[ebp+8], 0
; File C:\Program Files\Microsoft Visual Studio\2022\Professional\VC\Tools\MSVC\14.44.35207\include\utility

; 774  :     _Val         = static_cast<_Other&&>(_New_val);

  00110	c7 45 e0 00 00
	00 00		 mov	 DWORD PTR $T5[ebp+4], 0
; File C:\Program Files\Microsoft Visual Studio\2022\Professional\VC\Tools\MSVC\14.44.35207\include\xtree

; 830  :         _Alnode_traits::construct(this->_Al, _STD addressof(this->_Ptr->_Myval), _STD forward<_Valtys>(_Vals)...);

  00117	8b 09		 mov	 ecx, DWORD PTR [ecx]
  00119	89 48 10	 mov	 DWORD PTR [eax+16], ecx

; 1042 :         return {_Scary->_Insert_node(_Loc._Location, _Inserted), true};

  0011c	8d 4d e4	 lea	 ecx, DWORD PTR _setItems$[ebp]
  0011f	50		 push	 eax

; 831  :         _Construct_in_place(this->_Ptr->_Left, _Myhead);

  00120	89 18		 mov	 DWORD PTR [eax], ebx

; 832  :         _Construct_in_place(this->_Ptr->_Parent, _Myhead);

  00122	89 58 04	 mov	 DWORD PTR [eax+4], ebx

; 1042 :         return {_Scary->_Insert_node(_Loc._Location, _Inserted), true};

  00125	56		 push	 esi

; 833  :         _Construct_in_place(this->_Ptr->_Right, _Myhead);

  00126	89 58 08	 mov	 DWORD PTR [eax+8], ebx

; 1042 :         return {_Scary->_Insert_node(_Loc._Location, _Inserted), true};

  00129	57		 push	 edi

; 834  :         this->_Ptr->_Color = _Red;

  0012a	66 c7 40 0c 00
	00		 mov	 WORD PTR [eax+12], 0

; 1042 :         return {_Scary->_Insert_node(_Loc._Location, _Inserted), true};

  00130	e8 00 00 00 00	 call	 ?_Insert_node@?$_Tree_val@U?$_Tree_simple_types@H@std@@@std@@QAEPAU?$_Tree_node@HPAX@2@U?$_Tree_id@PAU?$_Tree_node@HPAX@std@@@2@QAU32@@Z ; std::_Tree_val<std::_Tree_simple_types<int> >::_Insert_node
; File C:\IAGOS\server\v18\Source\Source\_Common\pet.cpp

; 812  : 		CItemElem* pItem	= static_cast<CItemElem*>( pUser->GetItemId( pComponent->nItem ) );

  00135	8b 45 f0	 mov	 eax, DWORD PTR _pComponent$1$[ebp]
  00138	8b 4d 08	 mov	 ecx, DWORD PTR _pUser$[ebp]
  0013b	ff 30		 push	 DWORD PTR [eax]
  0013d	e8 00 00 00 00	 call	 ?GetItemId@CMover@@QAEPAVCItemBase@@K@Z ; CMover::GetItemId

; 813  : 		ASSERT( pItem );
; 814  : 		// ľËŔĚ ľĆ´Ď¸é şÎŔűÇŐ Ŕç·á
; 815  : 		if( !pItem->IsEgg() )

  00142	8b c8		 mov	 ecx, eax
  00144	e8 00 00 00 00	 call	 ?IsEgg@CItemElem@@QAEHXZ ; CItemElem::IsEgg
  00149	85 c0		 test	 eax, eax
  0014b	74 21		 je	 SHORT $LN181@IsValidStu
; File C:\Program Files\Microsoft Visual Studio\2022\Professional\VC\Tools\MSVC\14.44.35207\include\vector

; 1915 :         return static_cast<size_type>(_My_data._Mylast - _My_data._Myfirst);

  0014d	8b 45 0c	 mov	 eax, DWORD PTR _stuff$[ebp]
; File C:\IAGOS\server\v18\Source\Source\_Common\pet.cpp

; 806  : 	for( DWORD i = 0; i < stuff.GetSize(); i++ )

  00150	8b 55 ec	 mov	 edx, DWORD PTR _i$1$[ebp]
  00153	42		 inc	 edx
  00154	89 55 ec	 mov	 DWORD PTR _i$1$[ebp], edx
; File C:\Program Files\Microsoft Visual Studio\2022\Professional\VC\Tools\MSVC\14.44.35207\include\vector

; 1915 :         return static_cast<size_type>(_My_data._Mylast - _My_data._Myfirst);

  00157	8b 48 08	 mov	 ecx, DWORD PTR [eax+8]
  0015a	8b 40 0c	 mov	 eax, DWORD PTR [eax+12]
  0015d	2b c1		 sub	 eax, ecx
  0015f	c1 f8 03	 sar	 eax, 3
; File C:\IAGOS\server\v18\Source\Source\_Common\pet.cpp

; 806  : 	for( DWORD i = 0; i < stuff.GetSize(); i++ )

  00162	3b d0		 cmp	 edx, eax
  00164	73 0c		 jae	 SHORT $LN3@IsValidStu
  00166	8b 5d e4	 mov	 ebx, DWORD PTR _setItems$[ebp]
  00169	e9 28 ff ff ff	 jmp	 $LL4@IsValidStu
$LN181@IsValidStu:
  0016e	33 f6		 xor	 esi, esi
  00170	eb 05		 jmp	 SHORT $LN11@IsValidStu
$LN3@IsValidStu:

; 816  : 			return FALSE;
; 817  : 	}
; 818  : 	return TRUE;

  00172	be 01 00 00 00	 mov	 esi, 1
$LN11@IsValidStu:
  00177	8d 4d e4	 lea	 ecx, DWORD PTR _setItems$[ebp]
  0017a	e8 00 00 00 00	 call	 ??1?$_Tree@V?$_Tset_traits@HU?$less@H@std@@V?$allocator@H@2@$0A@@std@@@std@@QAE@XZ ; std::_Tree<std::_Tset_traits<int,std::less<int>,std::allocator<int>,0> >::~_Tree<std::_Tset_traits<int,std::less<int>,std::allocator<int>,0> >
  0017f	8b c6		 mov	 eax, esi

; 819  : }

  00181	8b 4d f4	 mov	 ecx, DWORD PTR __$EHRec$[ebp]
  00184	64 89 0d 00 00
	00 00		 mov	 DWORD PTR fs:0, ecx
  0018b	59		 pop	 ecx
  0018c	5f		 pop	 edi
  0018d	5e		 pop	 esi
  0018e	5b		 pop	 ebx
  0018f	8b e5		 mov	 esp, ebp
  00191	5d		 pop	 ebp
  00192	c2 08 00	 ret	 8
$LN178@IsValidStu:
; File C:\Program Files\Microsoft Visual Studio\2022\Professional\VC\Tools\MSVC\14.44.35207\include\xtree

; 1649 :             _Throw_tree_length_error();

  00195	e8 00 00 00 00	 call	 ?_Throw_tree_length_error@std@@YAXXZ ; std::_Throw_tree_length_error
$LN193@IsValidStu:
  0019a	cc		 int	 3
_TEXT	ENDS
;	COMDAT text$x
text$x	SEGMENT
__unwindfunclet$?IsValidStuff@CTransformerEgg@@UAEHPAVCUser@@AAVCTransformStuff@@@Z$0:
  00000	8d 4d e4	 lea	 ecx, DWORD PTR _setItems$[ebp]
  00003	e9 00 00 00 00	 jmp	 ??1?$set@HU?$less@H@std@@V?$allocator@H@2@@std@@QAE@XZ
__unwindfunclet$?IsValidStuff@CTransformerEgg@@UAEHPAVCUser@@AAVCTransformStuff@@@Z$4:
  00008	8d 4d dc	 lea	 ecx, DWORD PTR $T5[ebp]
  0000b	e9 00 00 00 00	 jmp	 ??1?$_Alloc_construct_ptr@V?$allocator@U?$_Tree_node@HPAX@std@@@std@@@std@@QAE@XZ ; std::_Alloc_construct_ptr<std::allocator<std::_Tree_node<int,void *> > >::~_Alloc_construct_ptr<std::allocator<std::_Tree_node<int,void *> > >
  00010	cc		 int	 3
  00011	cc		 int	 3
  00012	cc		 int	 3
  00013	cc		 int	 3
  00014	cc		 int	 3
__ehhandler$?IsValidStuff@CTransformerEgg@@UAEHPAVCUser@@AAVCTransformStuff@@@Z:
  00015	90		 npad	 1
  00016	90		 npad	 1
  00017	8b 54 24 08	 mov	 edx, DWORD PTR [esp+8]
  0001b	8d 42 0c	 lea	 eax, DWORD PTR [edx+12]
  0001e	8b 4a d8	 mov	 ecx, DWORD PTR [edx-40]
  00021	33 c8		 xor	 ecx, eax
  00023	e8 00 00 00 00	 call	 @__security_check_cookie@4
  00028	b8 00 00 00 00	 mov	 eax, OFFSET __ehfuncinfo$?IsValidStuff@CTransformerEgg@@UAEHPAVCUser@@AAVCTransformStuff@@@Z
  0002d	e9 00 00 00 00	 jmp	 ___CxxFrameHandler3
text$x	ENDS
?IsValidStuff@CTransformerEgg@@UAEHPAVCUser@@AAVCTransformStuff@@@Z ENDP ; CTransformerEgg::IsValidStuff
; Function compile flags: /Ogtp
; File C:\IAGOS\server\v18\Source\Source\_Common\pet.cpp
;	COMDAT ??1CTransformerEgg@@UAE@XZ
_TEXT	SEGMENT
??1CTransformerEgg@@UAE@XZ PROC				; CTransformerEgg::~CTransformerEgg, COMDAT
; _this$ = ecx

; 790  : {

  00000	c7 01 00 00 00
	00		 mov	 DWORD PTR [ecx], OFFSET ??_7CTransformerEgg@@6B@

; 791  : }

  00006	e9 00 00 00 00	 jmp	 ??1ITransformer@@UAE@XZ	; ITransformer::~ITransformer
??1CTransformerEgg@@UAE@XZ ENDP				; CTransformerEgg::~CTransformerEgg
_TEXT	ENDS
; Function compile flags: /Ogtp
; File C:\IAGOS\server\v18\Source\Source\_Common\pet.cpp
;	COMDAT ??0CTransformerEgg@@QAE@XZ
_TEXT	SEGMENT
_this$ = -4						; size = 4
??0CTransformerEgg@@QAE@XZ PROC				; CTransformerEgg::CTransformerEgg, COMDAT
; _this$ = ecx

; 786  : {

  00000	55		 push	 ebp
  00001	8b ec		 mov	 ebp, esp
  00003	51		 push	 ecx
  00004	89 4d fc	 mov	 DWORD PTR _this$[ebp], ecx

; 787  : }

  00007	8b c1		 mov	 eax, ecx
  00009	c7 01 00 00 00
	00		 mov	 DWORD PTR [ecx], OFFSET ??_7CTransformerEgg@@6B@
  0000f	8b e5		 mov	 esp, ebp
  00011	5d		 pop	 ebp
  00012	c3		 ret	 0
??0CTransformerEgg@@QAE@XZ ENDP				; CTransformerEgg::CTransformerEgg
_TEXT	ENDS
; Function compile flags: /Ogtp
; File C:\IAGOS\server\v18\Source\Source\_Common\pet.cpp
;	COMDAT ?CreateItem@ITransformer@@QAEXPAVCUser@@AAVCTransformStuff@@@Z
_TEXT	SEGMENT
_pUser$ = 8						; size = 4
_stuff$ = 12						; size = 4
?CreateItem@ITransformer@@QAEXPAVCUser@@AAVCTransformStuff@@@Z PROC ; ITransformer::CreateItem, COMDAT
; _this$ = ecx

; 756  : {

  00000	55		 push	 ebp
  00001	8b ec		 mov	 ebp, esp

; 757  : 	CItemElem* pItem	= CTransformItemProperty::Instance()->GetItem( stuff.GetTransform() );

  00003	8b 45 0c	 mov	 eax, DWORD PTR _stuff$[ebp]
  00006	56		 push	 esi
  00007	57		 push	 edi
  00008	ff 70 04	 push	 DWORD PTR [eax+4]
  0000b	e8 00 00 00 00	 call	 ?Instance@CTransformItemProperty@@SAPAV1@XZ ; CTransformItemProperty::Instance
  00010	8b c8		 mov	 ecx, eax
  00012	e8 00 00 00 00	 call	 ?GetItem@CTransformItemProperty@@QAEPAVCItemElem@@H@Z ; CTransformItemProperty::GetItem

; 758  : 	if( pItem && pUser->CreateItem( pItem ) )

  00017	8b 75 08	 mov	 esi, DWORD PTR _pUser$[ebp]
  0001a	8b f8		 mov	 edi, eax
  0001c	85 ff		 test	 edi, edi
  0001e	74 3a		 je	 SHORT $LN2@CreateItem
  00020	6a 00		 push	 0
  00022	6a 00		 push	 0
  00024	6a 00		 push	 0
  00026	57		 push	 edi
  00027	8b ce		 mov	 ecx, esi
  00029	e8 00 00 00 00	 call	 ?CreateItem@CMover@@QAEHPAVCItemBase@@PAEPAFE@Z ; CMover::CreateItem
  0002e	85 c0		 test	 eax, eax
  00030	74 28		 je	 SHORT $LN2@CreateItem

; 759  : 	{
; 760  : 		pUser->AddDefinedText( TID_GAME_TRANSFORM_S00 );

  00032	68 f7 0e 00 00	 push	 3831			; 00000ef7H
  00037	8b ce		 mov	 ecx, esi
  00039	e8 00 00 00 00	 call	 ?AddDefinedText@CUser@@QAEXH@Z ; CUser::AddDefinedText

; 761  : 		g_DPSrvr.PutCreateItemLog( pUser, pItem, "X", "transform" );

  0003e	68 00 00 00 00	 push	 OFFSET ??_C@_09IFONHNKG@transform@
  00043	68 00 00 00 00	 push	 OFFSET ??_C@_01MMEEDKFM@X@
  00048	57		 push	 edi
  00049	56		 push	 esi
  0004a	b9 00 00 00 00	 mov	 ecx, OFFSET ?g_DPSrvr@@3VCDPSrvr@@A ; g_DPSrvr
  0004f	e8 00 00 00 00	 call	 ?PutCreateItemLog@CDPSrvr@@QAEXPAVCUser@@PAVCItemElem@@PBD2@Z ; CDPSrvr::PutCreateItemLog
  00054	5f		 pop	 edi

; 765  : }

  00055	5e		 pop	 esi
  00056	5d		 pop	 ebp
  00057	c2 08 00	 ret	 8
$LN2@CreateItem:

; 762  : 	}
; 763  : 	else
; 764  : 		pUser->AddDefinedText( TID_GAME_TRANSFORM_S01 );

  0005a	68 f8 0e 00 00	 push	 3832			; 00000ef8H
  0005f	8b ce		 mov	 ecx, esi
  00061	e8 00 00 00 00	 call	 ?AddDefinedText@CUser@@QAEXH@Z ; CUser::AddDefinedText
  00066	5f		 pop	 edi

; 765  : }

  00067	5e		 pop	 esi
  00068	5d		 pop	 ebp
  00069	c2 08 00	 ret	 8
?CreateItem@ITransformer@@QAEXPAVCUser@@AAVCTransformStuff@@@Z ENDP ; ITransformer::CreateItem
_TEXT	ENDS
; Function compile flags: /Ogtp
; File C:\IAGOS\server\v18\Source\Source\_Common\pet.cpp
; File C:\Program Files\Microsoft Visual Studio\2022\Professional\VC\Tools\MSVC\14.44.35207\include\vector
; File C:\IAGOS\server\v18\Source\Source\_Common\pet.cpp
; File C:\Program Files\Microsoft Visual Studio\2022\Professional\VC\Tools\MSVC\14.44.35207\include\vector
; File C:\IAGOS\server\v18\Source\Source\_Common\pet.cpp
; File C:\Program Files\Microsoft Visual Studio\2022\Professional\VC\Tools\MSVC\14.44.35207\include\vector
; File C:\IAGOS\server\v18\Source\Source\_Common\pet.cpp
; File C:\Program Files\Microsoft Visual Studio\2022\Professional\VC\Tools\MSVC\14.44.35207\include\vector
; File C:\IAGOS\server\v18\Source\Source\_Common\pet.cpp
; File C:\Program Files\Microsoft Visual Studio\2022\Professional\VC\Tools\MSVC\14.44.35207\include\vector
; File C:\IAGOS\server\v18\Source\Source\_Common\pet.cpp
;	COMDAT ?RemoveItem@ITransformer@@QAEXPAVCUser@@AAVCTransformStuff@@@Z
_TEXT	SEGMENT
_pUser$ = 8						; size = 4
_stuff$ = 12						; size = 4
?RemoveItem@ITransformer@@QAEXPAVCUser@@AAVCTransformStuff@@@Z PROC ; ITransformer::RemoveItem, COMDAT
; _this$ = ecx

; 742  : {

  00000	55		 push	 ebp
  00001	8b ec		 mov	 ebp, esp
  00003	53		 push	 ebx
; File C:\Program Files\Microsoft Visual Studio\2022\Professional\VC\Tools\MSVC\14.44.35207\include\vector

; 1914 :         auto& _My_data = _Mypair._Myval2;

  00004	8b 5d 0c	 mov	 ebx, DWORD PTR _stuff$[ebp]
; File C:\IAGOS\server\v18\Source\Source\_Common\pet.cpp

; 742  : {

  00007	56		 push	 esi

; 743  : 	for( DWORD i = 0; i < stuff.GetSize(); i++ )

  00008	33 f6		 xor	 esi, esi
; File C:\Program Files\Microsoft Visual Studio\2022\Professional\VC\Tools\MSVC\14.44.35207\include\vector

; 1915 :         return static_cast<size_type>(_My_data._Mylast - _My_data._Myfirst);

  0000a	8b 43 0c	 mov	 eax, DWORD PTR [ebx+12]
  0000d	8b 4b 08	 mov	 ecx, DWORD PTR [ebx+8]
  00010	2b c1		 sub	 eax, ecx
  00012	c1 f8 03	 sar	 eax, 3
; File C:\IAGOS\server\v18\Source\Source\_Common\pet.cpp

; 743  : 	for( DWORD i = 0; i < stuff.GetSize(); i++ )

  00015	85 c0		 test	 eax, eax
  00017	74 58		 je	 SHORT $LN3@RemoveItem
  00019	57		 push	 edi
  0001a	66 0f 1f 44 00
	00		 npad	 6
$LL4@RemoveItem:

; 746  : 		CItemElem* pItem	= static_cast<CItemElem*>( pUser->GetItemId( pComponent->nItem ) );

  00020	ff 34 f1	 push	 DWORD PTR [ecx+esi*8]
; File C:\Program Files\Microsoft Visual Studio\2022\Professional\VC\Tools\MSVC\14.44.35207\include\vector

; 1934 :         return _My_data._Myfirst[_Pos];

  00023	8d 3c f1	 lea	 edi, DWORD PTR [ecx+esi*8]
; File C:\IAGOS\server\v18\Source\Source\_Common\pet.cpp

; 746  : 		CItemElem* pItem	= static_cast<CItemElem*>( pUser->GetItemId( pComponent->nItem ) );

  00026	8b 4d 08	 mov	 ecx, DWORD PTR _pUser$[ebp]
  00029	e8 00 00 00 00	 call	 ?GetItemId@CMover@@QAEPAVCItemBase@@K@Z ; CMover::GetItemId

; 747  : 		if( pItem )

  0002e	85 c0		 test	 eax, eax
  00030	74 2e		 je	 SHORT $LN2@RemoveItem

; 748  : 		{
; 749  : 			g_DPSrvr.PutItemLog( pUser, "X", "transform-removestuff", pItem, pComponent->nNum );

  00032	0f bf 4f 04	 movsx	 ecx, WORD PTR [edi+4]
  00036	51		 push	 ecx
  00037	50		 push	 eax
  00038	68 00 00 00 00	 push	 OFFSET ??_C@_0BG@OHIJOLMK@transform?9removestuff@
  0003d	68 00 00 00 00	 push	 OFFSET ??_C@_01MMEEDKFM@X@
  00042	ff 75 08	 push	 DWORD PTR _pUser$[ebp]
  00045	b9 00 00 00 00	 mov	 ecx, OFFSET ?g_DPSrvr@@3VCDPSrvr@@A ; g_DPSrvr
  0004a	e8 00 00 00 00	 call	 ?PutItemLog@CDPSrvr@@QAEXPAVCUser@@PBD1PAVCItemElem@@H@Z ; CDPSrvr::PutItemLog

; 750  : 			pUser->RemoveItem( pComponent->nItem, pComponent->nNum );

  0004f	0f b7 47 04	 movzx	 eax, WORD PTR [edi+4]
  00053	8b 4d 08	 mov	 ecx, DWORD PTR _pUser$[ebp]
  00056	50		 push	 eax
  00057	0f b6 07	 movzx	 eax, BYTE PTR [edi]
  0005a	50		 push	 eax
  0005b	e8 00 00 00 00	 call	 ?RemoveItem@CMover@@QAEXEF@Z ; CMover::RemoveItem
$LN2@RemoveItem:
; File C:\Program Files\Microsoft Visual Studio\2022\Professional\VC\Tools\MSVC\14.44.35207\include\vector

; 1915 :         return static_cast<size_type>(_My_data._Mylast - _My_data._Myfirst);

  00060	8b 43 0c	 mov	 eax, DWORD PTR [ebx+12]
; File C:\IAGOS\server\v18\Source\Source\_Common\pet.cpp

; 743  : 	for( DWORD i = 0; i < stuff.GetSize(); i++ )

  00063	46		 inc	 esi
; File C:\Program Files\Microsoft Visual Studio\2022\Professional\VC\Tools\MSVC\14.44.35207\include\vector

; 1915 :         return static_cast<size_type>(_My_data._Mylast - _My_data._Myfirst);

  00064	8b 4b 08	 mov	 ecx, DWORD PTR [ebx+8]
  00067	2b c1		 sub	 eax, ecx
  00069	c1 f8 03	 sar	 eax, 3
; File C:\IAGOS\server\v18\Source\Source\_Common\pet.cpp

; 743  : 	for( DWORD i = 0; i < stuff.GetSize(); i++ )

  0006c	3b f0		 cmp	 esi, eax
  0006e	72 b0		 jb	 SHORT $LL4@RemoveItem
  00070	5f		 pop	 edi
$LN3@RemoveItem:
  00071	5e		 pop	 esi

; 751  : 		}
; 752  : 	}
; 753  : }

  00072	5b		 pop	 ebx
  00073	5d		 pop	 ebp
  00074	c2 08 00	 ret	 8
?RemoveItem@ITransformer@@QAEXPAVCUser@@AAVCTransformStuff@@@Z ENDP ; ITransformer::RemoveItem
_TEXT	ENDS
; Function compile flags: /Ogtp
; File C:\IAGOS\server\v18\Source\Source\_Common\pet.cpp
;	COMDAT ?Transform@ITransformer@@QAEXPAVCUser@@AAVCTransformStuff@@@Z
_TEXT	SEGMENT
_pUser$ = 8						; size = 4
_stuff$ = 12						; size = 4
?Transform@ITransformer@@QAEXPAVCUser@@AAVCTransformStuff@@@Z PROC ; ITransformer::Transform, COMDAT
; _this$ = ecx

; 734  : {

  00000	55		 push	 ebp
  00001	8b ec		 mov	 ebp, esp
  00003	53		 push	 ebx

; 735  : 	if( !IsValidStuff( pUser, stuff ) )

  00004	8b 5d 08	 mov	 ebx, DWORD PTR _pUser$[ebp]
  00007	56		 push	 esi
  00008	8b f1		 mov	 esi, ecx
  0000a	57		 push	 edi
  0000b	8b 7d 0c	 mov	 edi, DWORD PTR _stuff$[ebp]
  0000e	57		 push	 edi
  0000f	8b 06		 mov	 eax, DWORD PTR [esi]
  00011	53		 push	 ebx
  00012	ff 50 04	 call	 DWORD PTR [eax+4]
  00015	85 c0		 test	 eax, eax
  00017	74 12		 je	 SHORT $LN1@Transform

; 736  : 		return;
; 737  : 	RemoveItem( pUser, stuff );

  00019	57		 push	 edi
  0001a	53		 push	 ebx
  0001b	8b ce		 mov	 ecx, esi
  0001d	e8 00 00 00 00	 call	 ?RemoveItem@ITransformer@@QAEXPAVCUser@@AAVCTransformStuff@@@Z ; ITransformer::RemoveItem

; 738  : 	CreateItem( pUser, stuff );

  00022	57		 push	 edi
  00023	53		 push	 ebx
  00024	8b ce		 mov	 ecx, esi
  00026	e8 00 00 00 00	 call	 ?CreateItem@ITransformer@@QAEXPAVCUser@@AAVCTransformStuff@@@Z ; ITransformer::CreateItem
$LN1@Transform:

; 739  : }

  0002b	5f		 pop	 edi
  0002c	5e		 pop	 esi
  0002d	5b		 pop	 ebx
  0002e	5d		 pop	 ebp
  0002f	c2 08 00	 ret	 8
?Transform@ITransformer@@QAEXPAVCUser@@AAVCTransformStuff@@@Z ENDP ; ITransformer::Transform
_TEXT	ENDS
; Function compile flags: /Ogtp
; File C:\IAGOS\server\v18\Source\Source\_Common\pet.cpp
; File C:\Program Files\Microsoft Visual Studio\2022\Professional\VC\Tools\MSVC\14.44.35207\include\vector
; File C:\IAGOS\server\v18\Source\Source\_Common\pet.cpp
; File C:\Program Files\Microsoft Visual Studio\2022\Professional\VC\Tools\MSVC\14.44.35207\include\vector
; File C:\IAGOS\server\v18\Source\Source\_Common\pet.cpp
; File C:\Program Files\Microsoft Visual Studio\2022\Professional\VC\Tools\MSVC\14.44.35207\include\vector
; File C:\IAGOS\server\v18\Source\Source\_Common\pet.cpp
; File C:\Program Files\Microsoft Visual Studio\2022\Professional\VC\Tools\MSVC\14.44.35207\include\vector
; File C:\IAGOS\server\v18\Source\Source\_Common\pet.cpp
; File C:\Program Files\Microsoft Visual Studio\2022\Professional\VC\Tools\MSVC\14.44.35207\include\vector
; File C:\IAGOS\server\v18\Source\Source\_Common\pet.cpp
; File C:\Program Files\Microsoft Visual Studio\2022\Professional\VC\Tools\MSVC\14.44.35207\include\vector
; File C:\IAGOS\server\v18\Source\Source\_Common\pet.cpp
; File C:\Program Files\Microsoft Visual Studio\2022\Professional\VC\Tools\MSVC\14.44.35207\include\vector
; File C:\IAGOS\server\v18\Source\Source\_Common\pet.cpp
;	COMDAT ?IsValidStuff@ITransformer@@UAEHPAVCUser@@AAVCTransformStuff@@@Z
_TEXT	SEGMENT
_pUser$ = 8						; size = 4
_stuff$ = 12						; size = 4
?IsValidStuff@ITransformer@@UAEHPAVCUser@@AAVCTransformStuff@@@Z PROC ; ITransformer::IsValidStuff, COMDAT
; _this$ = ecx

; 768  : {

  00000	55		 push	 ebp
  00001	8b ec		 mov	 ebp, esp
  00003	53		 push	 ebx
  00004	56		 push	 esi
  00005	57		 push	 edi
; File C:\Program Files\Microsoft Visual Studio\2022\Professional\VC\Tools\MSVC\14.44.35207\include\vector

; 1914 :         auto& _My_data = _Mypair._Myval2;

  00006	8b 7d 0c	 mov	 edi, DWORD PTR _stuff$[ebp]

; 1915 :         return static_cast<size_type>(_My_data._Mylast - _My_data._Myfirst);

  00009	8b 77 0c	 mov	 esi, DWORD PTR [edi+12]
  0000c	2b 77 08	 sub	 esi, DWORD PTR [edi+8]
; File C:\IAGOS\server\v18\Source\Source\_Common\pet.cpp

; 770  : 	if( stuff.GetSize() != CTransformItemProperty::Instance()->GetStuffSize( stuff.GetTransform() ) )

  0000f	ff 77 04	 push	 DWORD PTR [edi+4]
; File C:\Program Files\Microsoft Visual Studio\2022\Professional\VC\Tools\MSVC\14.44.35207\include\vector

; 1915 :         return static_cast<size_type>(_My_data._Mylast - _My_data._Myfirst);

  00012	c1 fe 03	 sar	 esi, 3
; File C:\IAGOS\server\v18\Source\Source\_Common\pet.cpp

; 770  : 	if( stuff.GetSize() != CTransformItemProperty::Instance()->GetStuffSize( stuff.GetTransform() ) )

  00015	e8 00 00 00 00	 call	 ?Instance@CTransformItemProperty@@SAPAV1@XZ ; CTransformItemProperty::Instance
  0001a	8b c8		 mov	 ecx, eax
  0001c	e8 00 00 00 00	 call	 ?GetStuffSize@CTransformItemProperty@@QAEIH@Z ; CTransformItemProperty::GetStuffSize
  00021	3b f0		 cmp	 esi, eax
  00023	75 51		 jne	 SHORT $LN25@IsValidStu
; File C:\Program Files\Microsoft Visual Studio\2022\Professional\VC\Tools\MSVC\14.44.35207\include\vector

; 1915 :         return static_cast<size_type>(_My_data._Mylast - _My_data._Myfirst);

  00025	8b 47 0c	 mov	 eax, DWORD PTR [edi+12]
; File C:\IAGOS\server\v18\Source\Source\_Common\pet.cpp

; 775  : 	for( DWORD i = 0; i < stuff.GetSize(); i++ )

  00028	33 f6		 xor	 esi, esi
; File C:\Program Files\Microsoft Visual Studio\2022\Professional\VC\Tools\MSVC\14.44.35207\include\vector

; 1915 :         return static_cast<size_type>(_My_data._Mylast - _My_data._Myfirst);

  0002a	8b 4f 08	 mov	 ecx, DWORD PTR [edi+8]
  0002d	2b c1		 sub	 eax, ecx
  0002f	c1 f8 03	 sar	 eax, 3
; File C:\IAGOS\server\v18\Source\Source\_Common\pet.cpp

; 775  : 	for( DWORD i = 0; i < stuff.GetSize(); i++ )

  00032	85 c0		 test	 eax, eax
  00034	74 34		 je	 SHORT $LN3@IsValidStu
; File C:\Program Files\Microsoft Visual Studio\2022\Professional\VC\Tools\MSVC\14.44.35207\include\vector

; 1914 :         auto& _My_data = _Mypair._Myval2;

  00036	8b 5d 08	 mov	 ebx, DWORD PTR _pUser$[ebp]
  00039	0f 1f 80 00 00
	00 00		 npad	 7
$LL4@IsValidStu:
; File C:\IAGOS\server\v18\Source\Source\_Common\pet.cpp

; 778  : 		CItemElem* pItem	= static_cast<CItemElem*>( pUser->GetItemId( pComponent->nItem ) );

  00040	ff 34 f1	 push	 DWORD PTR [ecx+esi*8]
  00043	8b cb		 mov	 ecx, ebx
  00045	e8 00 00 00 00	 call	 ?GetItemId@CMover@@QAEPAVCItemBase@@K@Z ; CMover::GetItemId

; 779  : 		if( !pItem || pUser->IsUsing( pItem ) )

  0004a	85 c0		 test	 eax, eax
  0004c	74 28		 je	 SHORT $LN25@IsValidStu
  0004e	50		 push	 eax
  0004f	8b cb		 mov	 ecx, ebx
  00051	e8 00 00 00 00	 call	 ?IsUsing@CMover@@QAEHPAVCItemElem@@@Z ; CMover::IsUsing
  00056	85 c0		 test	 eax, eax
  00058	75 1c		 jne	 SHORT $LN25@IsValidStu
; File C:\Program Files\Microsoft Visual Studio\2022\Professional\VC\Tools\MSVC\14.44.35207\include\vector

; 1915 :         return static_cast<size_type>(_My_data._Mylast - _My_data._Myfirst);

  0005a	8b 47 0c	 mov	 eax, DWORD PTR [edi+12]
; File C:\IAGOS\server\v18\Source\Source\_Common\pet.cpp

; 775  : 	for( DWORD i = 0; i < stuff.GetSize(); i++ )

  0005d	46		 inc	 esi
; File C:\Program Files\Microsoft Visual Studio\2022\Professional\VC\Tools\MSVC\14.44.35207\include\vector

; 1915 :         return static_cast<size_type>(_My_data._Mylast - _My_data._Myfirst);

  0005e	8b 4f 08	 mov	 ecx, DWORD PTR [edi+8]
  00061	2b c1		 sub	 eax, ecx
  00063	c1 f8 03	 sar	 eax, 3
; File C:\IAGOS\server\v18\Source\Source\_Common\pet.cpp

; 775  : 	for( DWORD i = 0; i < stuff.GetSize(); i++ )

  00066	3b f0		 cmp	 esi, eax
  00068	72 d6		 jb	 SHORT $LL4@IsValidStu
$LN3@IsValidStu:
  0006a	5f		 pop	 edi

; 780  : 			return FALSE;
; 781  : 	}
; 782  : 	return TRUE;
; 783  : }

  0006b	5e		 pop	 esi
  0006c	b8 01 00 00 00	 mov	 eax, 1
  00071	5b		 pop	 ebx
  00072	5d		 pop	 ebp
  00073	c2 08 00	 ret	 8
$LN25@IsValidStu:
  00076	5f		 pop	 edi
  00077	5e		 pop	 esi
  00078	33 c0		 xor	 eax, eax
  0007a	5b		 pop	 ebx
  0007b	5d		 pop	 ebp
  0007c	c2 08 00	 ret	 8
?IsValidStuff@ITransformer@@UAEHPAVCUser@@AAVCTransformStuff@@@Z ENDP ; ITransformer::IsValidStuff
_TEXT	ENDS
; Function compile flags: /Ogtp
; File C:\IAGOS\server\v18\Source\Source\_Common\pet.cpp
;	COMDAT ?Transformer@ITransformer@@SAPAV1@H@Z
_TEXT	SEGMENT
_nTransformer$ = 8					; size = 4
?Transformer@ITransformer@@SAPAV1@H@Z PROC		; ITransformer::Transformer, COMDAT

; 726  : {

  00000	55		 push	 ebp
  00001	8b ec		 mov	 ebp, esp

; 727  : 	if( nTransformer == 0 )

  00003	83 7d 08 00	 cmp	 DWORD PTR _nTransformer$[ebp], 0
  00007	75 06		 jne	 SHORT $LN2@Transforme

; 731  : }

  00009	5d		 pop	 ebp

; 728  : 		return CTransformerEgg::Instance();

  0000a	e9 00 00 00 00	 jmp	 ?Instance@CTransformerEgg@@SAPAV1@XZ ; CTransformerEgg::Instance
$LN2@Transforme:

; 729  : 	assert( 0 );
; 730  : 	return NULL;

  0000f	33 c0		 xor	 eax, eax

; 731  : }

  00011	5d		 pop	 ebp
  00012	c3		 ret	 0
?Transformer@ITransformer@@SAPAV1@H@Z ENDP		; ITransformer::Transformer
_TEXT	ENDS
; Function compile flags: /Ogtp
; File C:\IAGOS\server\v18\Source\Source\_Common\pet.cpp
;	COMDAT ??1ITransformer@@UAE@XZ
_TEXT	SEGMENT
??1ITransformer@@UAE@XZ PROC				; ITransformer::~ITransformer, COMDAT
; _this$ = ecx

; 722  : {

  00000	c7 01 00 00 00
	00		 mov	 DWORD PTR [ecx], OFFSET ??_7ITransformer@@6B@

; 723  : }

  00006	c3		 ret	 0
??1ITransformer@@UAE@XZ ENDP				; ITransformer::~ITransformer
_TEXT	ENDS
; Function compile flags: /Ogtp
;	COMDAT ??_GCTransformStuff@@UAEPAXI@Z
_TEXT	SEGMENT
___flags$ = 8						; size = 4
??_GCTransformStuff@@UAEPAXI@Z PROC			; CTransformStuff::`scalar deleting destructor', COMDAT
; _this$ = ecx
  00000	55		 push	 ebp
  00001	8b ec		 mov	 ebp, esp
  00003	56		 push	 esi
  00004	8b f1		 mov	 esi, ecx
  00006	e8 00 00 00 00	 call	 ??1CTransformStuff@@UAE@XZ ; CTransformStuff::~CTransformStuff
  0000b	f6 45 08 01	 test	 BYTE PTR ___flags$[ebp], 1
  0000f	74 0b		 je	 SHORT $LN5@scalar
  00011	6a 14		 push	 20			; 00000014H
  00013	56		 push	 esi
  00014	e8 00 00 00 00	 call	 ??3@YAXPAXI@Z		; operator delete
  00019	83 c4 08	 add	 esp, 8
$LN5@scalar:
  0001c	8b c6		 mov	 eax, esi
  0001e	5e		 pop	 esi
  0001f	5d		 pop	 ebp
  00020	c2 04 00	 ret	 4
??_GCTransformStuff@@UAEPAXI@Z ENDP			; CTransformStuff::`scalar deleting destructor'
_TEXT	ENDS
; Function compile flags: /Ogtp
; File C:\Program Files\Microsoft Visual Studio\2022\Professional\VC\Tools\MSVC\14.44.35207\include\vector
;	COMDAT ?_Xlength@?$vector@U_TransformStuffComponent@@V?$allocator@U_TransformStuffComponent@@@std@@@std@@CAXXZ
_TEXT	SEGMENT
?_Xlength@?$vector@U_TransformStuffComponent@@V?$allocator@U_TransformStuffComponent@@@std@@@std@@CAXXZ PROC ; std::vector<_TransformStuffComponent,std::allocator<_TransformStuffComponent> >::_Xlength, COMDAT

; 2184 :         _Xlength_error("vector too long");

  00000	68 00 00 00 00	 push	 OFFSET ??_C@_0BA@FOIKENOD@vector?5too?5long@
  00005	e8 00 00 00 00	 call	 ?_Xlength_error@std@@YAXPBD@Z ; std::_Xlength_error
$LN3@Xlength:
  0000a	cc		 int	 3
?_Xlength@?$vector@U_TransformStuffComponent@@V?$allocator@U_TransformStuffComponent@@@std@@@std@@CAXXZ ENDP ; std::vector<_TransformStuffComponent,std::allocator<_TransformStuffComponent> >::_Xlength
_TEXT	ENDS
; Function compile flags: /Ogtp
; File C:\Program Files\Microsoft Visual Studio\2022\Professional\VC\Tools\MSVC\14.44.35207\include\vector
; File C:\Program Files\Microsoft Visual Studio\2022\Professional\VC\Tools\MSVC\14.44.35207\include\xmemory
; File C:\Program Files\Microsoft Visual Studio\2022\Professional\VC\Tools\MSVC\14.44.35207\include\vector
; File C:\Program Files\Microsoft Visual Studio\2022\Professional\VC\Tools\MSVC\14.44.35207\include\xmemory
; File C:\Program Files\Microsoft Visual Studio\2022\Professional\VC\Tools\MSVC\14.44.35207\include\vector
; File C:\Program Files\Microsoft Visual Studio\2022\Professional\VC\Tools\MSVC\14.44.35207\include\xmemory
; File C:\Program Files\Microsoft Visual Studio\2022\Professional\VC\Tools\MSVC\14.44.35207\include\vector
;	COMDAT ??1?$vector@U_TransformStuffComponent@@V?$allocator@U_TransformStuffComponent@@@std@@@std@@QAE@XZ
_TEXT	SEGMENT
??1?$vector@U_TransformStuffComponent@@V?$allocator@U_TransformStuffComponent@@@std@@@std@@QAE@XZ PROC ; std::vector<_TransformStuffComponent,std::allocator<_TransformStuffComponent> >::~vector<_TransformStuffComponent,std::allocator<_TransformStuffComponent> >, COMDAT
; _this$ = ecx

; 829  :     _CONSTEXPR20 ~vector() noexcept {

  00000	56		 push	 esi
  00001	8b f1		 mov	 esi, ecx

; 2090 :         if (_Myfirst) { // destroy and deallocate old array

  00003	8b 06		 mov	 eax, DWORD PTR [esi]
  00005	85 c0		 test	 eax, eax
  00007	74 40		 je	 SHORT $LN5@vector

; 2091 :             _STD _Destroy_range(_Myfirst, _Mylast, _Al);
; 2092 :             _ASAN_VECTOR_REMOVE;
; 2093 :             _Al.deallocate(_Myfirst, static_cast<size_type>(_Myend - _Myfirst));

  00009	8b 4e 08	 mov	 ecx, DWORD PTR [esi+8]
  0000c	2b c8		 sub	 ecx, eax
; File C:\Program Files\Microsoft Visual Studio\2022\Professional\VC\Tools\MSVC\14.44.35207\include\xmemory

; 985  :         _STD _Deallocate<_New_alignof<_Ty>>(_Ptr, sizeof(_Ty) * _Count);

  0000e	83 e1 f8	 and	 ecx, -8			; fffffff8H

; 284  :         if (_Bytes >= _Big_allocation_threshold) {

  00011	81 f9 00 10 00
	00		 cmp	 ecx, 4096		; 00001000H
  00017	72 12		 jb	 SHORT $LN18@vector

; 205  :     const uintptr_t _Ptr_container   = _Ptr_user[-1];

  00019	8b 50 fc	 mov	 edx, DWORD PTR [eax-4]
  0001c	83 c1 23	 add	 ecx, 35			; 00000023H

; 206  : 
; 207  :     // If the following asserts, it likely means that we are performing
; 208  :     // an aligned delete on memory coming from an unaligned allocation.
; 209  :     _STL_ASSERT(_Ptr_user[-2] == _Big_allocation_sentinel, "invalid argument");
; 210  : 
; 211  :     // Extra paranoia on aligned allocation/deallocation; ensure _Ptr_container is
; 212  :     // in range [_Min_back_shift, _Non_user_size]
; 213  : #ifdef _DEBUG
; 214  :     constexpr uintptr_t _Min_back_shift = 2 * sizeof(void*);
; 215  : #else // ^^^ defined(_DEBUG) / !defined(_DEBUG) vvv
; 216  :     constexpr uintptr_t _Min_back_shift = sizeof(void*);
; 217  : #endif // ^^^ !defined(_DEBUG) ^^^
; 218  :     const uintptr_t _Back_shift = reinterpret_cast<uintptr_t>(_Ptr) - _Ptr_container;

  0001f	2b c2		 sub	 eax, edx

; 219  :     _STL_VERIFY(_Back_shift >= _Min_back_shift && _Back_shift <= _Non_user_size, "invalid argument");

  00021	83 c0 fc	 add	 eax, -4			; fffffffcH
  00024	83 f8 1f	 cmp	 eax, 31			; 0000001fH
  00027	77 22		 ja	 SHORT $LN17@vector

; 220  :     _Ptr = reinterpret_cast<void*>(_Ptr_container);

  00029	8b c2		 mov	 eax, edx
$LN18@vector:

; 289  :         ::operator delete(_Ptr, _Bytes);

  0002b	51		 push	 ecx
  0002c	50		 push	 eax
  0002d	e8 00 00 00 00	 call	 ??3@YAXPAXI@Z		; operator delete
; File C:\Program Files\Microsoft Visual Studio\2022\Professional\VC\Tools\MSVC\14.44.35207\include\vector

; 2095 :             _Myfirst = nullptr;

  00032	c7 06 00 00 00
	00		 mov	 DWORD PTR [esi], 0
; File C:\Program Files\Microsoft Visual Studio\2022\Professional\VC\Tools\MSVC\14.44.35207\include\xmemory

; 289  :         ::operator delete(_Ptr, _Bytes);

  00038	83 c4 08	 add	 esp, 8
; File C:\Program Files\Microsoft Visual Studio\2022\Professional\VC\Tools\MSVC\14.44.35207\include\vector

; 2096 :             _Mylast  = nullptr;

  0003b	c7 46 04 00 00
	00 00		 mov	 DWORD PTR [esi+4], 0

; 2097 :             _Myend   = nullptr;

  00042	c7 46 08 00 00
	00 00		 mov	 DWORD PTR [esi+8], 0
$LN5@vector:
  00049	5e		 pop	 esi

; 835  :     }

  0004a	c3		 ret	 0
$LN17@vector:
; File C:\Program Files\Microsoft Visual Studio\2022\Professional\VC\Tools\MSVC\14.44.35207\include\xmemory

; 219  :     _STL_VERIFY(_Back_shift >= _Min_back_shift && _Back_shift <= _Non_user_size, "invalid argument");

  0004b	6a 00		 push	 0
  0004d	6a 00		 push	 0
  0004f	6a 00		 push	 0
  00051	6a 00		 push	 0
  00053	6a 00		 push	 0
  00055	e8 00 00 00 00	 call	 __invoke_watson
$LN26@vector:
  0005a	cc		 int	 3
??1?$vector@U_TransformStuffComponent@@V?$allocator@U_TransformStuffComponent@@@std@@@std@@QAE@XZ ENDP ; std::vector<_TransformStuffComponent,std::allocator<_TransformStuffComponent> >::~vector<_TransformStuffComponent,std::allocator<_TransformStuffComponent> >
_TEXT	ENDS
; Function compile flags: /Ogtp
; File C:\IAGOS\server\v18\Source\Source\_Common\pet.cpp
; File C:\IAGOS\server\v18\Source\Source\_Network\Misc\Include\ar.h
; File C:\IAGOS\server\v18\Source\Source\_Common\pet.cpp
; File C:\IAGOS\server\v18\Source\Source\_Network\Misc\Include\ar.h
; File C:\IAGOS\server\v18\Source\Source\_Common\pet.cpp
; File C:\Program Files\Microsoft Visual Studio\2022\Professional\VC\Tools\MSVC\14.44.35207\include\vector
; File C:\IAGOS\server\v18\Source\Source\_Common\pet.cpp
; File C:\Program Files\Microsoft Visual Studio\2022\Professional\VC\Tools\MSVC\14.44.35207\include\vector
; File C:\IAGOS\server\v18\Source\Source\_Common\pet.cpp
; File C:\Program Files\Microsoft Visual Studio\2022\Professional\VC\Tools\MSVC\14.44.35207\include\vector
; File C:\IAGOS\server\v18\Source\Source\_Common\pet.cpp
; File C:\Program Files\Microsoft Visual Studio\2022\Professional\VC\Tools\MSVC\14.44.35207\include\vector
; File C:\IAGOS\server\v18\Source\Source\_Common\pet.cpp
; File C:\IAGOS\server\v18\Source\Source\_Common\pet.h
; File C:\IAGOS\server\v18\Source\Source\_Common\pet.cpp
;	COMDAT ?Serialize@CTransformStuff@@UAEXAAVCAr@@@Z
_TEXT	SEGMENT
_component$1 = -8					; size = 8
_ar$ = 8						; size = 4
$T2 = 8							; size = 4
_nSize$3 = 8						; size = 4
?Serialize@CTransformStuff@@UAEXAAVCAr@@@Z PROC		; CTransformStuff::Serialize, COMDAT
; _this$ = ecx

; 693  : {

  00000	55		 push	 ebp
  00001	8b ec		 mov	 ebp, esp
  00003	83 ec 08	 sub	 esp, 8
  00006	53		 push	 ebx
  00007	56		 push	 esi
  00008	57		 push	 edi
; File C:\IAGOS\server\v18\Source\Source\_Network\Misc\Include\ar.h

; 146  : 	return (m_nMode & CAr::load) == 0;

  00009	8b 7d 08	 mov	 edi, DWORD PTR _ar$[ebp]
; File C:\IAGOS\server\v18\Source\Source\_Common\pet.cpp

; 693  : {

  0000c	8b d9		 mov	 ebx, ecx

; 694  : 	if( ar.IsStoring() )

  0000e	8b cf		 mov	 ecx, edi
; File C:\IAGOS\server\v18\Source\Source\_Network\Misc\Include\ar.h

; 146  : 	return (m_nMode & CAr::load) == 0;

  00010	f6 07 01	 test	 BYTE PTR [edi], 1
  00013	8d 73 04	 lea	 esi, DWORD PTR [ebx+4]
; File C:\IAGOS\server\v18\Source\Source\_Common\pet.cpp

; 694  : 	if( ar.IsStoring() )

  00016	56		 push	 esi
  00017	75 42		 jne	 SHORT $LN8@Serialize

; 695  : 	{
; 696  : 		ar << m_nTransform;

  00019	e8 00 00 00 00	 call	 ??$?6H@CAr@@QAEAAV0@ABH@Z ; CAr::operator<<<int>
; File C:\Program Files\Microsoft Visual Studio\2022\Professional\VC\Tools\MSVC\14.44.35207\include\vector

; 1915 :         return static_cast<size_type>(_My_data._Mylast - _My_data._Myfirst);

  0001e	8b 43 0c	 mov	 eax, DWORD PTR [ebx+12]
; File C:\IAGOS\server\v18\Source\Source\_Common\pet.cpp

; 697  : 		ar << m_vComponents.size();

  00021	8b cf		 mov	 ecx, edi
; File C:\Program Files\Microsoft Visual Studio\2022\Professional\VC\Tools\MSVC\14.44.35207\include\vector

; 1915 :         return static_cast<size_type>(_My_data._Mylast - _My_data._Myfirst);

  00023	2b 43 08	 sub	 eax, DWORD PTR [ebx+8]
  00026	c1 f8 03	 sar	 eax, 3
; File C:\IAGOS\server\v18\Source\Source\_Common\pet.cpp

; 697  : 		ar << m_vComponents.size();

  00029	89 45 08	 mov	 DWORD PTR $T2[ebp], eax
  0002c	8d 45 08	 lea	 eax, DWORD PTR $T2[ebp]
  0002f	50		 push	 eax
  00030	e8 00 00 00 00	 call	 ??$?6I@CAr@@QAEAAV0@ABI@Z ; CAr::operator<<<unsigned int>
; File C:\Program Files\Microsoft Visual Studio\2022\Professional\VC\Tools\MSVC\14.44.35207\include\vector

; 46   :     _CONSTEXPR20 _Vector_const_iterator(_Tptr _Parg, const _Container_base* _Pvector) noexcept : _Ptr(_Parg) {

  00035	8b 73 08	 mov	 esi, DWORD PTR [ebx+8]

; 176  :         return !(*this == _Right);

  00038	3b 73 0c	 cmp	 esi, DWORD PTR [ebx+12]
; File C:\IAGOS\server\v18\Source\Source\_Common\pet.cpp

; 698  : 		for( VTSC::iterator i = m_vComponents.begin(); i != m_vComponents.end(); ++i )

  0003b	74 7f		 je	 SHORT $LN6@Serialize
  0003d	0f 1f 00	 npad	 3
$LL4@Serialize:

; 699  : 			ar.Write( &( *i ), sizeof(TransformStuffComponent) );

  00040	6a 08		 push	 8
  00042	56		 push	 esi
  00043	8b cf		 mov	 ecx, edi
  00045	e8 00 00 00 00	 call	 ?Write@CAr@@QAEXPBXI@Z	; CAr::Write
; File C:\Program Files\Microsoft Visual Studio\2022\Professional\VC\Tools\MSVC\14.44.35207\include\vector

; 82   :         ++_Ptr;

  0004a	83 c6 08	 add	 esi, 8

; 176  :         return !(*this == _Right);

  0004d	3b 73 0c	 cmp	 esi, DWORD PTR [ebx+12]
; File C:\IAGOS\server\v18\Source\Source\_Common\pet.cpp

; 698  : 		for( VTSC::iterator i = m_vComponents.begin(); i != m_vComponents.end(); ++i )

  00050	75 ee		 jne	 SHORT $LL4@Serialize

; 715  : 		}
; 716  : 	}
; 717  : }

  00052	5f		 pop	 edi
  00053	5e		 pop	 esi
  00054	5b		 pop	 ebx
  00055	8b e5		 mov	 esp, ebp
  00057	5d		 pop	 ebp
  00058	c2 04 00	 ret	 4
$LN8@Serialize:

; 700  : 	}
; 701  : 	else
; 702  : 	{
; 703  : 		ar >> m_nTransform;

  0005b	e8 00 00 00 00	 call	 ??$?5H@CAr@@QAEAAV0@AAH@Z ; CAr::operator>><int>

; 704  : 		size_t nSize;
; 705  : 		ar >> nSize;

  00060	8d 45 08	 lea	 eax, DWORD PTR _nSize$3[ebp]
  00063	8b cf		 mov	 ecx, edi
  00065	50		 push	 eax
  00066	e8 00 00 00 00	 call	 ??$?5I@CAr@@QAEAAV0@AAI@Z ; CAr::operator>><unsigned int>

; 706  : #ifdef __WORLDSERVER
; 707  : 		if( nSize != CTransformItemProperty::Instance()->GetStuffSize( m_nTransform ) )

  0006b	ff 36		 push	 DWORD PTR [esi]
  0006d	e8 00 00 00 00	 call	 ?Instance@CTransformItemProperty@@SAPAV1@XZ ; CTransformItemProperty::Instance
  00072	8b c8		 mov	 ecx, eax
  00074	e8 00 00 00 00	 call	 ?GetStuffSize@CTransformItemProperty@@QAEIH@Z ; CTransformItemProperty::GetStuffSize
  00079	8b 75 08	 mov	 esi, DWORD PTR _nSize$3[ebp]
  0007c	3b f0		 cmp	 esi, eax
  0007e	75 3c		 jne	 SHORT $LN6@Serialize

; 708  : 			return;
; 709  : #endif	// __WORLDSERVER
; 710  : 		for( size_t i = 0; i < nSize; i++ )

  00080	85 f6		 test	 esi, esi
  00082	74 38		 je	 SHORT $LN6@Serialize
  00084	0f 1f 40 00 0f
	1f 84 00 00 00
	00 00		 npad	 12
$LL7@Serialize:
; File C:\IAGOS\server\v18\Source\Source\_Common\pet.h

; 207  : 		nNum	= 0;

  00090	33 c0		 xor	 eax, eax
  00092	c7 45 f8 00 00
	00 00		 mov	 DWORD PTR _component$1[ebp], 0
  00099	66 89 45 fc	 mov	 WORD PTR _component$1[ebp+4], ax
; File C:\IAGOS\server\v18\Source\Source\_Common\pet.cpp

; 713  : 			ar.Read( &component, sizeof(TransformStuffComponent ) );

  0009d	8b cf		 mov	 ecx, edi
  0009f	6a 08		 push	 8
  000a1	8d 45 f8	 lea	 eax, DWORD PTR _component$1[ebp]
  000a4	50		 push	 eax
  000a5	e8 00 00 00 00	 call	 ?Read@CAr@@QAEXPAXI@Z	; CAr::Read

; 714  : 			AddComponent( component.nItem, component.nNum );

  000aa	ff 75 fc	 push	 DWORD PTR _component$1[ebp+4]
  000ad	8b cb		 mov	 ecx, ebx
  000af	ff 75 f8	 push	 DWORD PTR _component$1[ebp]
  000b2	e8 00 00 00 00	 call	 ?AddComponent@CTransformStuff@@QAEXHF@Z ; CTransformStuff::AddComponent
  000b7	83 ee 01	 sub	 esi, 1
  000ba	75 d4		 jne	 SHORT $LL7@Serialize
$LN6@Serialize:
  000bc	5f		 pop	 edi

; 715  : 		}
; 716  : 	}
; 717  : }

  000bd	5e		 pop	 esi
  000be	5b		 pop	 ebx
  000bf	8b e5		 mov	 esp, ebp
  000c1	5d		 pop	 ebp
  000c2	c2 04 00	 ret	 4
?Serialize@CTransformStuff@@UAEXAAVCAr@@@Z ENDP		; CTransformStuff::Serialize
_TEXT	ENDS
; Function compile flags: /Ogtp
; File C:\IAGOS\server\v18\Source\Source\_Common\pet.cpp
; File C:\IAGOS\server\v18\Source\Source\_Common\pet.h
; File C:\IAGOS\server\v18\Source\Source\_Common\pet.cpp
; File C:\IAGOS\server\v18\Source\Source\_Common\pet.h
; File C:\Program Files\Microsoft Visual Studio\2022\Professional\VC\Tools\MSVC\14.44.35207\include\vector
; File C:\IAGOS\server\v18\Source\Source\_Common\pet.h
; File C:\Program Files\Microsoft Visual Studio\2022\Professional\VC\Tools\MSVC\14.44.35207\include\vector
; File C:\IAGOS\server\v18\Source\Source\_Common\pet.cpp
; File C:\Program Files\Microsoft Visual Studio\2022\Professional\VC\Tools\MSVC\14.44.35207\include\vector
; File C:\IAGOS\server\v18\Source\Source\_Common\pet.cpp
;	COMDAT ?AddComponent@CTransformStuff@@QAEXHF@Z
_TEXT	SEGMENT
_component$ = -8					; size = 8
_nItem$ = 8						; size = 4
_nNum$ = 12						; size = 2
?AddComponent@CTransformStuff@@QAEXHF@Z PROC		; CTransformStuff::AddComponent, COMDAT
; _this$ = ecx

; 687  : {

  00000	55		 push	 ebp
  00001	8b ec		 mov	 ebp, esp
  00003	83 ec 08	 sub	 esp, 8
; File C:\IAGOS\server\v18\Source\Source\_Common\pet.h

; 212  : 		this->nNum	= nNum;

  00006	66 8b 45 0c	 mov	 ax, WORD PTR _nNum$[ebp]
; File C:\IAGOS\server\v18\Source\Source\_Common\pet.cpp

; 689  : 	m_vComponents.push_back( component );

  0000a	83 c1 08	 add	 ecx, 8
  0000d	56		 push	 esi
; File C:\IAGOS\server\v18\Source\Source\_Common\pet.h

; 211  : 		this->nItem	= nItem;

  0000e	8b 75 08	 mov	 esi, DWORD PTR _nItem$[ebp]
  00011	89 75 f8	 mov	 DWORD PTR _component$[ebp], esi
; File C:\Program Files\Microsoft Visual Studio\2022\Professional\VC\Tools\MSVC\14.44.35207\include\vector

; 844  :         if (_Mylast != _My_data._Myend) {

  00014	8b 51 04	 mov	 edx, DWORD PTR [ecx+4]
; File C:\IAGOS\server\v18\Source\Source\_Common\pet.h

; 212  : 		this->nNum	= nNum;

  00017	66 89 45 fc	 mov	 WORD PTR _component$[ebp+4], ax
; File C:\Program Files\Microsoft Visual Studio\2022\Professional\VC\Tools\MSVC\14.44.35207\include\vector

; 844  :         if (_Mylast != _My_data._Myend) {

  0001b	3b 51 08	 cmp	 edx, DWORD PTR [ecx+8]
  0001e	74 13		 je	 SHORT $LN8@AddCompone

; 860  :             _STD _Construct_in_place(*_Mylast, _STD forward<_Valty>(_Val)...);

  00020	8b 45 fc	 mov	 eax, DWORD PTR _component$[ebp+4]
  00023	89 32		 mov	 DWORD PTR [edx], esi
  00025	89 42 04	 mov	 DWORD PTR [edx+4], eax

; 861  :         } else {
; 862  :             _ASAN_VECTOR_EXTEND_GUARD(static_cast<size_type>(_Mylast - _My_data._Myfirst) + 1);
; 863  :             _Alty_traits::construct(_Getal(), _Unfancy(_Mylast), _STD forward<_Valty>(_Val)...);
; 864  :             _ASAN_VECTOR_RELEASE_GUARD;
; 865  :         }
; 866  : 
; 867  :         _Orphan_range(_Mylast, _Mylast);
; 868  :         _Ty& _Result = *_Mylast;
; 869  :         ++_Mylast;

  00028	83 41 04 08	 add	 DWORD PTR [ecx+4], 8
  0002c	5e		 pop	 esi
; File C:\IAGOS\server\v18\Source\Source\_Common\pet.cpp

; 690  : }

  0002d	8b e5		 mov	 esp, ebp
  0002f	5d		 pop	 ebp
  00030	c2 08 00	 ret	 8
$LN8@AddCompone:
; File C:\Program Files\Microsoft Visual Studio\2022\Professional\VC\Tools\MSVC\14.44.35207\include\vector

; 848  :         return *_Emplace_reallocate(_Mylast, _STD forward<_Valty>(_Val)...);

  00033	8d 45 f8	 lea	 eax, DWORD PTR _component$[ebp]
  00036	50		 push	 eax
  00037	52		 push	 edx
  00038	e8 00 00 00 00	 call	 ??$_Emplace_reallocate@ABU_TransformStuffComponent@@@?$vector@U_TransformStuffComponent@@V?$allocator@U_TransformStuffComponent@@@std@@@std@@AAEPAU_TransformStuffComponent@@QAU2@ABU2@@Z ; std::vector<_TransformStuffComponent,std::allocator<_TransformStuffComponent> >::_Emplace_reallocate<_TransformStuffComponent const &>
  0003d	5e		 pop	 esi
; File C:\IAGOS\server\v18\Source\Source\_Common\pet.cpp

; 690  : }

  0003e	8b e5		 mov	 esp, ebp
  00040	5d		 pop	 ebp
  00041	c2 08 00	 ret	 8
?AddComponent@CTransformStuff@@QAEXHF@Z ENDP		; CTransformStuff::AddComponent
_TEXT	ENDS
; Function compile flags: /Ogtp
; File C:\IAGOS\server\v18\Source\Source\_Common\pet.cpp
;	COMDAT ??1CTransformStuff@@UAE@XZ
_TEXT	SEGMENT
??1CTransformStuff@@UAE@XZ PROC				; CTransformStuff::~CTransformStuff, COMDAT
; _this$ = ecx

; 683  : {

  00000	c7 01 00 00 00
	00		 mov	 DWORD PTR [ecx], OFFSET ??_7CTransformStuff@@6B@

; 684  : }

  00006	83 c1 08	 add	 ecx, 8
  00009	e9 00 00 00 00	 jmp	 ??1?$vector@U_TransformStuffComponent@@V?$allocator@U_TransformStuffComponent@@@std@@@std@@QAE@XZ ; std::vector<_TransformStuffComponent,std::allocator<_TransformStuffComponent> >::~vector<_TransformStuffComponent,std::allocator<_TransformStuffComponent> >
??1CTransformStuff@@UAE@XZ ENDP				; CTransformStuff::~CTransformStuff
_TEXT	ENDS
; Function compile flags: /Ogtp
; File C:\IAGOS\server\v18\Source\Source\_Common\pet.cpp
; File C:\Program Files\Microsoft Visual Studio\2022\Professional\VC\Tools\MSVC\14.44.35207\include\vector
; File C:\IAGOS\server\v18\Source\Source\_Common\pet.cpp
;	COMDAT ??0CTransformStuff@@QAE@H@Z
_TEXT	SEGMENT
_this$ = -4						; size = 4
_nTransform$ = 8					; size = 4
??0CTransformStuff@@QAE@H@Z PROC			; CTransformStuff::CTransformStuff, COMDAT
; _this$ = ecx

; 679  : {

  00000	55		 push	 ebp
  00001	8b ec		 mov	 ebp, esp
  00003	51		 push	 ecx

; 678  : m_nTransform( nTransform )

  00004	8b 45 08	 mov	 eax, DWORD PTR _nTransform$[ebp]
  00007	89 41 04	 mov	 DWORD PTR [ecx+4], eax

; 680  : }

  0000a	8b c1		 mov	 eax, ecx
  0000c	c7 01 00 00 00
	00		 mov	 DWORD PTR [ecx], OFFSET ??_7CTransformStuff@@6B@
  00012	89 4d fc	 mov	 DWORD PTR _this$[ebp], ecx
; File C:\Program Files\Microsoft Visual Studio\2022\Professional\VC\Tools\MSVC\14.44.35207\include\vector

; 400  :     _CONSTEXPR20 _Vector_val() noexcept : _Myfirst(), _Mylast(), _Myend() {}

  00015	c7 41 08 00 00
	00 00		 mov	 DWORD PTR [ecx+8], 0
  0001c	c7 41 0c 00 00
	00 00		 mov	 DWORD PTR [ecx+12], 0
  00023	c7 41 10 00 00
	00 00		 mov	 DWORD PTR [ecx+16], 0
; File C:\IAGOS\server\v18\Source\Source\_Common\pet.cpp

; 680  : }

  0002a	8b e5		 mov	 esp, ebp
  0002c	5d		 pop	 ebp
  0002d	c2 04 00	 ret	 4
??0CTransformStuff@@QAE@H@Z ENDP			; CTransformStuff::CTransformStuff
_TEXT	ENDS
; Function compile flags: /Ogtp
; File C:\IAGOS\server\v18\Source\Source\_Common\pet.cpp
; File C:\Program Files\Microsoft Visual Studio\2022\Professional\VC\Tools\MSVC\14.44.35207\include\vector
; File C:\IAGOS\server\v18\Source\Source\_Common\pet.cpp
;	COMDAT ??0CTransformStuff@@QAE@XZ
_TEXT	SEGMENT
_this$ = -4						; size = 4
??0CTransformStuff@@QAE@XZ PROC				; CTransformStuff::CTransformStuff, COMDAT
; _this$ = ecx

; 673  : {

  00000	55		 push	 ebp
  00001	8b ec		 mov	 ebp, esp
  00003	51		 push	 ecx
  00004	c7 01 00 00 00
	00		 mov	 DWORD PTR [ecx], OFFSET ??_7CTransformStuff@@6B@

; 674  : }

  0000a	8b c1		 mov	 eax, ecx
  0000c	c7 41 04 00 00
	00 00		 mov	 DWORD PTR [ecx+4], 0
  00013	89 4d fc	 mov	 DWORD PTR _this$[ebp], ecx
; File C:\Program Files\Microsoft Visual Studio\2022\Professional\VC\Tools\MSVC\14.44.35207\include\vector

; 400  :     _CONSTEXPR20 _Vector_val() noexcept : _Myfirst(), _Mylast(), _Myend() {}

  00016	c7 41 08 00 00
	00 00		 mov	 DWORD PTR [ecx+8], 0
  0001d	c7 41 0c 00 00
	00 00		 mov	 DWORD PTR [ecx+12], 0
  00024	c7 41 10 00 00
	00 00		 mov	 DWORD PTR [ecx+16], 0
; File C:\IAGOS\server\v18\Source\Source\_Common\pet.cpp

; 674  : }

  0002b	8b e5		 mov	 esp, ebp
  0002d	5d		 pop	 ebp
  0002e	c3		 ret	 0
??0CTransformStuff@@QAE@XZ ENDP				; CTransformStuff::CTransformStuff
_TEXT	ENDS
; Function compile flags: /Ogtp
;	COMDAT ??_GCPet@@UAEPAXI@Z
_TEXT	SEGMENT
___flags$ = 8						; size = 4
??_GCPet@@UAEPAXI@Z PROC				; CPet::`scalar deleting destructor', COMDAT
; _this$ = ecx
  00000	55		 push	 ebp
  00001	8b ec		 mov	 ebp, esp
  00003	56		 push	 esi
  00004	8b f1		 mov	 esi, ecx
  00006	e8 00 00 00 00	 call	 ??1CPet@@UAE@XZ		; CPet::~CPet
  0000b	f6 45 08 01	 test	 BYTE PTR ___flags$[ebp], 1
  0000f	74 0b		 je	 SHORT $LN5@scalar
  00011	6a 28		 push	 40			; 00000028H
  00013	56		 push	 esi
  00014	e8 00 00 00 00	 call	 ??3@YAXPAXI@Z		; operator delete
  00019	83 c4 08	 add	 esp, 8
$LN5@scalar:
  0001c	8b c6		 mov	 eax, esi
  0001e	5e		 pop	 esi
  0001f	5d		 pop	 ebp
  00020	c2 04 00	 ret	 4
??_GCPet@@UAEPAXI@Z ENDP				; CPet::`scalar deleting destructor'
_TEXT	ENDS
; Function compile flags: /Ogtp
; File C:\IAGOS\server\v18\Source\Source\_Common\pet.cpp
;	COMDAT ??4CPet@@QAEAAV0@AAV0@@Z
_TEXT	SEGMENT
_pet$ = 8						; size = 4
??4CPet@@QAEAAV0@AAV0@@Z PROC				; CPet::operator=, COMDAT
; _this$ = ecx

; 410  : {

  00000	55		 push	 ebp
  00001	8b ec		 mov	 ebp, esp
  00003	56		 push	 esi

; 411  : 	m_nKind		= pet.GetKind();

  00004	8b 75 08	 mov	 esi, DWORD PTR _pet$[ebp]
  00007	57		 push	 edi
  00008	8b f9		 mov	 edi, ecx

; 412  : 	m_nLevel	= pet.GetLevel();
; 413  : 	m_dwExp		= pet.GetExp();
; 414  : 	m_wEnergy	= pet.GetEnergy();
; 415  : 	m_wLife		= pet.GetLife();

  0000a	8b ce		 mov	 ecx, esi
  0000c	0f b6 46 04	 movzx	 eax, BYTE PTR [esi+4]
  00010	88 47 04	 mov	 BYTE PTR [edi+4], al
  00013	0f b6 46 05	 movzx	 eax, BYTE PTR [esi+5]
  00017	88 47 05	 mov	 BYTE PTR [edi+5], al
  0001a	8b 46 08	 mov	 eax, DWORD PTR [esi+8]
  0001d	89 47 08	 mov	 DWORD PTR [edi+8], eax
  00020	0f b7 46 0c	 movzx	 eax, WORD PTR [esi+12]
  00024	66 89 47 0c	 mov	 WORD PTR [edi+12], ax
  00028	e8 00 00 00 00	 call	 ?GetLife@CPet@@QAEGXZ	; CPet::GetLife
  0002d	66 89 47 0e	 mov	 WORD PTR [edi+14], ax

; 416  : 	memcpy( m_anAvailLevel, pet.m_anAvailLevel, sizeof(BYTE) * PL_MAX );
; 417  : #ifdef __PET_1024
; 418  : 	strcpy( m_szName, pet.GetName() );

  00031	8b d7		 mov	 edx, edi
  00033	8b 46 10	 mov	 eax, DWORD PTR [esi+16]
  00036	89 47 10	 mov	 DWORD PTR [edi+16], eax
  00039	0f b7 46 14	 movzx	 eax, WORD PTR [esi+20]
  0003d	66 89 47 14	 mov	 WORD PTR [edi+20], ax
  00041	8d 46 16	 lea	 eax, DWORD PTR [esi+22]
  00044	2b d0		 sub	 edx, eax
$LL3@operator:
  00046	8a 08		 mov	 cl, BYTE PTR [eax]
  00048	8d 40 01	 lea	 eax, DWORD PTR [eax+1]
  0004b	88 4c 10 15	 mov	 BYTE PTR [eax+edx+21], cl
  0004f	84 c9		 test	 cl, cl
  00051	75 f3		 jne	 SHORT $LL3@operator

; 419  : #endif	// __PET_1024
; 420  : 	return *this;

  00053	8b c7		 mov	 eax, edi
  00055	5f		 pop	 edi
  00056	5e		 pop	 esi

; 421  : }

  00057	5d		 pop	 ebp
  00058	c2 04 00	 ret	 4
??4CPet@@QAEAAV0@AAV0@@Z ENDP				; CPet::operator=
_TEXT	ENDS
; Function compile flags: /Ogtp
; File C:\IAGOS\server\v18\Source\Source\_Common\pet.cpp
; File C:\IAGOS\server\v18\Source\Source\_Common\pet.h
; File C:\IAGOS\server\v18\Source\Source\_Common\pet.cpp
;	COMDAT ?InitEgg@CPet@@QAEXXZ
_TEXT	SEGMENT
?InitEgg@CPet@@QAEXXZ PROC				; CPet::InitEgg, COMDAT
; _this$ = ecx

; 404  : {

  00000	56		 push	 esi
  00001	8b f1		 mov	 esi, ecx

; 405  : 	SetLife( nDefaultLife );

  00003	b8 01 00 00 00	 mov	 eax, 1
  00008	66 89 46 0e	 mov	 WORD PTR [esi+14], ax
; File C:\IAGOS\server\v18\Source\Source\_Common\pet.h

; 137  : 	WORD	GetMaxEnergy( void )	{	return CPetProperty::GetInstance()->GetMaxEnergy( m_nLevel );	}

  0000c	8a 46 05	 mov	 al, BYTE PTR [esi+5]
  0000f	50		 push	 eax
  00010	e8 00 00 00 00	 call	 ?GetInstance@CPetProperty@@SAPAV1@XZ ; CPetProperty::GetInstance
  00015	8b c8		 mov	 ecx, eax
  00017	e8 00 00 00 00	 call	 ?GetMaxEnergy@CPetProperty@@QAEGE@Z ; CPetProperty::GetMaxEnergy
  0001c	0f b7 c0	 movzx	 eax, ax
; File C:\IAGOS\server\v18\Source\Source\_Common\pet.cpp

; 406  : 	SetEnergy( GetMaxEnergy() );

  0001f	8b ce		 mov	 ecx, esi
  00021	50		 push	 eax
  00022	e8 00 00 00 00	 call	 ?SetEnergy@CPet@@QAEXG@Z ; CPet::SetEnergy
  00027	5e		 pop	 esi

; 407  : }

  00028	c3		 ret	 0
?InitEgg@CPet@@QAEXXZ ENDP				; CPet::InitEgg
_TEXT	ENDS
; Function compile flags: /Ogtp
; File C:\IAGOS\server\v18\Source\Source\_Common\pet.cpp
;	COMDAT ?SetName@CPet@@QAEXPBD@Z
_TEXT	SEGMENT
_szName$ = 8						; size = 4
?SetName@CPet@@QAEXPBD@Z PROC				; CPet::SetName, COMDAT
; _this$ = ecx

; 1010 : {

  00000	55		 push	 ebp
  00001	8b ec		 mov	 ebp, esp
  00003	56		 push	 esi
  00004	8b f1		 mov	 esi, ecx

; 1011 : 	strncpy( m_szName, szName, MAX_PET_NAME - 1 );

  00006	6a 10		 push	 16			; 00000010H
  00008	ff 75 08	 push	 DWORD PTR _szName$[ebp]
  0000b	8d 46 16	 lea	 eax, DWORD PTR [esi+22]
  0000e	50		 push	 eax
  0000f	e8 00 00 00 00	 call	 _strncpy
  00014	83 c4 0c	 add	 esp, 12			; 0000000cH

; 1012 : 	m_szName[MAX_PET_NAME-1]	= '\0';

  00017	c6 46 26 00	 mov	 BYTE PTR [esi+38], 0
  0001b	5e		 pop	 esi

; 1013 : }

  0001c	5d		 pop	 ebp
  0001d	c2 04 00	 ret	 4
?SetName@CPet@@QAEXPBD@Z ENDP				; CPet::SetName
_TEXT	ENDS
; Function compile flags: /Ogtp
; File C:\IAGOS\server\v18\Source\Source\_Common\pet.cpp
; File C:\IAGOS\server\v18\Source\Source\_Common\pet.h
; File C:\IAGOS\server\v18\Source\Source\_Common\pet.cpp
;	COMDAT ?SetEnergy@CPet@@QAEXG@Z
_TEXT	SEGMENT
_wEnergy$ = 8						; size = 2
?SetEnergy@CPet@@QAEXG@Z PROC				; CPet::SetEnergy, COMDAT
; _this$ = ecx

; 342  : {

  00000	55		 push	 ebp
  00001	8b ec		 mov	 ebp, esp
  00003	53		 push	 ebx
  00004	8b d9		 mov	 ebx, ecx
  00006	56		 push	 esi
  00007	57		 push	 edi
; File C:\IAGOS\server\v18\Source\Source\_Common\pet.h

; 137  : 	WORD	GetMaxEnergy( void )	{	return CPetProperty::GetInstance()->GetMaxEnergy( m_nLevel );	}

  00008	8a 43 05	 mov	 al, BYTE PTR [ebx+5]
  0000b	50		 push	 eax
  0000c	e8 00 00 00 00	 call	 ?GetInstance@CPetProperty@@SAPAV1@XZ ; CPetProperty::GetInstance
  00011	8b c8		 mov	 ecx, eax
  00013	e8 00 00 00 00	 call	 ?GetMaxEnergy@CPetProperty@@QAEGE@Z ; CPetProperty::GetMaxEnergy
; File C:\IAGOS\server\v18\Source\Source\_Common\pet.cpp

; 347  : 	m_wEnergy	= wEnergy > wMaxEnergy? wMaxEnergy: wEnergy;

  00018	0f b7 7d 08	 movzx	 edi, WORD PTR _wEnergy$[ebp]
  0001c	0f b7 f0	 movzx	 esi, ax
  0001f	66 39 75 08	 cmp	 WORD PTR _wEnergy$[ebp], si
  00023	8b c6		 mov	 eax, esi
  00025	0f 47 f8	 cmova	 edi, eax
  00028	66 89 7b 0c	 mov	 WORD PTR [ebx+12], di
  0002c	5f		 pop	 edi
  0002d	5e		 pop	 esi
  0002e	5b		 pop	 ebx

; 348  : #endif	// __DBSERVER
; 349  : }

  0002f	5d		 pop	 ebp
  00030	c2 04 00	 ret	 4
?SetEnergy@CPet@@QAEXG@Z ENDP				; CPet::SetEnergy
_TEXT	ENDS
; Function compile flags: /Ogtp
; File C:\IAGOS\server\v18\Source\Source\_Common\pet.cpp
;	COMDAT ?GetLife@CPet@@QAEGXZ
_TEXT	SEGMENT
?GetLife@CPet@@QAEGXZ PROC				; CPet::GetLife, COMDAT
; _this$ = ecx

; 358  : 	return ( m_nLevel == PL_EGG )? 0: m_wLife;

  00000	80 79 05 00	 cmp	 BYTE PTR [ecx+5], 0
  00004	75 03		 jne	 SHORT $LN3@GetLife
  00006	33 c0		 xor	 eax, eax

; 359  : }

  00008	c3		 ret	 0
$LN3@GetLife:

; 358  : 	return ( m_nLevel == PL_EGG )? 0: m_wLife;

  00009	0f b7 41 0e	 movzx	 eax, WORD PTR [ecx+14]

; 359  : }

  0000d	c3		 ret	 0
?GetLife@CPet@@QAEGXZ ENDP				; CPet::GetLife
_TEXT	ENDS
; Function compile flags: /Ogtp
; File C:\IAGOS\server\v18\Source\Source\_Common\pet.cpp
; File C:\IAGOS\server\v18\Source\Source\_Common\pet.h
; File C:\IAGOS\server\v18\Source\Source\_Common\pet.cpp
;	COMDAT ?SetExp@CPet@@QAEXK@Z
_TEXT	SEGMENT
_dwExp$ = 8						; size = 4
?SetExp@CPet@@QAEXK@Z PROC				; CPet::SetExp, COMDAT
; _this$ = ecx

; 352  : {

  00000	55		 push	 ebp
  00001	8b ec		 mov	 ebp, esp
; File C:\IAGOS\server\v18\Source\Source\_Common\pet.h

; 140  : 	int		GetMaxExp( void )	{	return ( m_nLevel == PL_EGG? MAX_PET_EGG_EXP: MAX_PET_EXP );	}

  00003	80 79 05 00	 cmp	 BYTE PTR [ecx+5], 0
  00007	b8 50 c3 00 00	 mov	 eax, 50000		; 0000c350H
  0000c	ba a0 86 01 00	 mov	 edx, 100000		; 000186a0H
  00011	0f 44 d0	 cmove	 edx, eax
; File C:\IAGOS\server\v18\Source\Source\_Common\pet.cpp

; 353  : 	m_dwExp		= dwExp > (DWORD)( GetMaxExp() ) ? GetMaxExp(): dwExp;

  00014	8b 45 08	 mov	 eax, DWORD PTR _dwExp$[ebp]
  00017	3b c2		 cmp	 eax, edx
  00019	0f 47 c2	 cmova	 eax, edx
  0001c	89 41 08	 mov	 DWORD PTR [ecx+8], eax

; 354  : }

  0001f	5d		 pop	 ebp
  00020	c2 04 00	 ret	 4
?SetExp@CPet@@QAEXK@Z ENDP				; CPet::SetExp
_TEXT	ENDS
; Function compile flags: /Ogtp
; File C:\IAGOS\server\v18\Source\Source\_Common\pet.cpp
;	COMDAT ?GetAvailDestParam@CPet@@QAEXAAKAAH@Z
_TEXT	SEGMENT
_dwDestParam$ = 8					; size = 4
_nParam$ = 12						; size = 4
?GetAvailDestParam@CPet@@QAEXAAKAAH@Z PROC		; CPet::GetAvailDestParam, COMDAT
; _this$ = ecx

; 379  : {

  00000	55		 push	 ebp
  00001	8b ec		 mov	 ebp, esp

; 380  : 	dwDestParam	= nParam	= 0;

  00003	8b 45 08	 mov	 eax, DWORD PTR _dwDestParam$[ebp]
  00006	53		 push	 ebx
  00007	56		 push	 esi
  00008	57		 push	 edi
  00009	8b 7d 0c	 mov	 edi, DWORD PTR _nParam$[ebp]
  0000c	8b f1		 mov	 esi, ecx
  0000e	c7 07 00 00 00
	00		 mov	 DWORD PTR [edi], 0
  00014	c7 00 00 00 00
	00		 mov	 DWORD PTR [eax], 0

; 381  : 	PPETAVAILPARAM pAvailParam	= CPetProperty::GetInstance()->GetAvailParam( m_nKind );

  0001a	8a 46 04	 mov	 al, BYTE PTR [esi+4]
  0001d	50		 push	 eax
  0001e	e8 00 00 00 00	 call	 ?GetInstance@CPetProperty@@SAPAV1@XZ ; CPetProperty::GetInstance
  00023	8b c8		 mov	 ecx, eax
  00025	e8 00 00 00 00	 call	 ?GetAvailParam@CPetProperty@@QAEPAU_PETAVAILPARAM@@E@Z ; CPetProperty::GetAvailParam
  0002a	8b d8		 mov	 ebx, eax

; 382  : 	if( pAvailParam )

  0002c	85 db		 test	 ebx, ebx
  0002e	74 26		 je	 SHORT $LN3@GetAvailDe

; 383  : 	{
; 384  : 		dwDestParam	= pAvailParam->dwDstParam;

  00030	8b 45 08	 mov	 eax, DWORD PTR _dwDestParam$[ebp]
  00033	8b 0b		 mov	 ecx, DWORD PTR [ebx]
  00035	89 08		 mov	 DWORD PTR [eax], ecx

; 385  : 		for( int i = PL_D; i <= m_nLevel; i++ )

  00037	b9 01 00 00 00	 mov	 ecx, 1
  0003c	38 4e 05	 cmp	 BYTE PTR [esi+5], cl
  0003f	72 15		 jb	 SHORT $LN3@GetAvailDe

; 383  : 	{
; 384  : 		dwDestParam	= pAvailParam->dwDstParam;

  00041	8b 17		 mov	 edx, DWORD PTR [edi]
$LL4@GetAvailDe:

; 386  : 			nParam += pAvailParam->m_anParam[m_anAvailLevel[i-1] - 1];

  00043	0f b6 44 0e 0f	 movzx	 eax, BYTE PTR [esi+ecx+15]
  00048	41		 inc	 ecx
  00049	03 14 83	 add	 edx, DWORD PTR [ebx+eax*4]
  0004c	89 17		 mov	 DWORD PTR [edi], edx
  0004e	0f b6 46 05	 movzx	 eax, BYTE PTR [esi+5]
  00052	3b c8		 cmp	 ecx, eax
  00054	7e ed		 jle	 SHORT $LL4@GetAvailDe
$LN3@GetAvailDe:
  00056	5f		 pop	 edi

; 387  : 	}
; 388  : }

  00057	5e		 pop	 esi
  00058	5b		 pop	 ebx
  00059	5d		 pop	 ebp
  0005a	c2 08 00	 ret	 8
?GetAvailDestParam@CPet@@QAEXAAKAAH@Z ENDP		; CPet::GetAvailDestParam
_TEXT	ENDS
; Function compile flags: /Ogtp
; File C:\IAGOS\server\v18\Source\Source\_Common\pet.cpp
;	COMDAT ?GetAvailLevel@CPet@@QAEEE@Z
_TEXT	SEGMENT
_nLevel$ = 8						; size = 1
?GetAvailLevel@CPet@@QAEEE@Z PROC			; CPet::GetAvailLevel, COMDAT
; _this$ = ecx

; 368  : {

  00000	55		 push	 ebp
  00001	8b ec		 mov	 ebp, esp

; 369  : 	if( nLevel >= PL_D && nLevel <= PL_S )

  00003	8a 55 08	 mov	 dl, BYTE PTR _nLevel$[ebp]
  00006	8d 42 ff	 lea	 eax, DWORD PTR [edx-1]
  00009	3c 04		 cmp	 al, 4
  0000b	77 0b		 ja	 SHORT $LN2@GetAvailLe

; 370  : 		return m_anAvailLevel[nLevel-1];

  0000d	0f b6 c2	 movzx	 eax, dl
  00010	8a 44 08 0f	 mov	 al, BYTE PTR [eax+ecx+15]

; 372  : }

  00014	5d		 pop	 ebp
  00015	c2 04 00	 ret	 4
$LN2@GetAvailLe:

; 371  : 	return 0;

  00018	32 c0		 xor	 al, al

; 372  : }

  0001a	5d		 pop	 ebp
  0001b	c2 04 00	 ret	 4
?GetAvailLevel@CPet@@QAEEE@Z ENDP			; CPet::GetAvailLevel
_TEXT	ENDS
; Function compile flags: /Ogtp
; File C:\IAGOS\server\v18\Source\Source\_Common\pet.cpp
;	COMDAT ?GetIndex@CPet@@QAEKXZ
_TEXT	SEGMENT
?GetIndex@CPet@@QAEKXZ PROC				; CPet::GetIndex, COMDAT
; _this$ = ecx

; 391  : {

  00000	56		 push	 esi
  00001	8b f1		 mov	 esi, ecx

; 392  : 	PPETAVAILPARAM pPetAvailParam	= CPetProperty::GetInstance()->GetAvailParam( m_nKind );

  00003	8a 46 04	 mov	 al, BYTE PTR [esi+4]
  00006	50		 push	 eax
  00007	e8 00 00 00 00	 call	 ?GetInstance@CPetProperty@@SAPAV1@XZ ; CPetProperty::GetInstance
  0000c	8b c8		 mov	 ecx, eax
  0000e	e8 00 00 00 00	 call	 ?GetAvailParam@CPetProperty@@QAEPAU_PETAVAILPARAM@@E@Z ; CPetProperty::GetAvailParam

; 393  : 	if( m_nLevel == PL_EGG )

  00013	8a 4e 05	 mov	 cl, BYTE PTR [esi+5]
  00016	5e		 pop	 esi
  00017	84 c9		 test	 cl, cl
  00019	75 06		 jne	 SHORT $LN2@GetIndex

; 394  : 		return MI_PET_EGG;

  0001b	b8 db 02 00 00	 mov	 eax, 731		; 000002dbH

; 401  : }

  00020	c3		 ret	 0
$LN2@GetIndex:

; 395  : 	else if( m_nLevel > PL_EGG && m_nLevel < PL_B )

  00021	80 f9 03	 cmp	 cl, 3
  00024	73 04		 jae	 SHORT $LN4@GetIndex

; 396  : 		return pPetAvailParam->m_adwIndex[0];

  00026	8b 40 2c	 mov	 eax, DWORD PTR [eax+44]

; 401  : }

  00029	c3		 ret	 0
$LN4@GetIndex:

; 397  : 	else if( m_nLevel < PL_S )

  0002a	80 f9 05	 cmp	 cl, 5
  0002d	73 04		 jae	 SHORT $LN6@GetIndex

; 398  : 		return pPetAvailParam->m_adwIndex[1];

  0002f	8b 40 30	 mov	 eax, DWORD PTR [eax+48]

; 401  : }

  00032	c3		 ret	 0
$LN6@GetIndex:

; 399  : 	else
; 400  : 		return pPetAvailParam->m_adwIndex[2];

  00033	8b 40 34	 mov	 eax, DWORD PTR [eax+52]

; 401  : }

  00036	c3		 ret	 0
?GetIndex@CPet@@QAEKXZ ENDP				; CPet::GetIndex
_TEXT	ENDS
; Function compile flags: /Ogtp
; File C:\IAGOS\server\v18\Source\Source\_Common\pet.cpp
;	COMDAT ?SetAvailLevel@CPet@@QAEXEE@Z
_TEXT	SEGMENT
_nLevel$ = 8						; size = 1
_nAvailLevel$ = 12					; size = 1
?SetAvailLevel@CPet@@QAEXEE@Z PROC			; CPet::SetAvailLevel, COMDAT
; _this$ = ecx

; 362  : {

  00000	55		 push	 ebp
  00001	8b ec		 mov	 ebp, esp

; 363  : 	if( nLevel >= PL_D && nLevel <= PL_S )

  00003	8a 55 08	 mov	 dl, BYTE PTR _nLevel$[ebp]
  00006	8d 42 ff	 lea	 eax, DWORD PTR [edx-1]
  00009	3c 04		 cmp	 al, 4
  0000b	77 0a		 ja	 SHORT $LN2@SetAvailLe

; 364  : 		m_anAvailLevel[nLevel-1]	= nAvailLevel;

  0000d	8a 45 0c	 mov	 al, BYTE PTR _nAvailLevel$[ebp]
  00010	0f b6 d2	 movzx	 edx, dl
  00013	88 44 0a 0f	 mov	 BYTE PTR [edx+ecx+15], al
$LN2@SetAvailLe:

; 365  : }

  00017	5d		 pop	 ebp
  00018	c2 08 00	 ret	 8
?SetAvailLevel@CPet@@QAEXEE@Z ENDP			; CPet::SetAvailLevel
_TEXT	ENDS
; Function compile flags: /Ogtp
; File C:\IAGOS\server\v18\Source\Source\_Common\pet.cpp
; File C:\IAGOS\server\v18\Source\Source\_Network\Misc\Include\ar.h
; File C:\IAGOS\server\v18\Source\Source\_Common\pet.cpp
; File C:\IAGOS\server\v18\Source\Source\_Network\Misc\Include\ar.h
; File C:\IAGOS\server\v18\Source\Source\_Common\pet.cpp
; File C:\IAGOS\server\v18\Source\Source\_Network\Misc\Include\ar.h
; File C:\IAGOS\server\v18\Source\Source\_Common\pet.cpp
; File C:\IAGOS\server\v18\Source\Source\_Network\Misc\Include\ar.h
; File C:\IAGOS\server\v18\Source\Source\_Common\pet.cpp
;	COMDAT ?Serialize@CPet@@QAEXAAVCAr@@@Z
_TEXT	SEGMENT
tv240 = -16						; size = 4
tv241 = -12						; size = 4
tv243 = -8						; size = 4
tv244 = -4						; size = 4
_ar$ = 8						; size = 4
?Serialize@CPet@@QAEXAAVCAr@@@Z PROC			; CPet::Serialize, COMDAT
; _this$ = ecx

; 312  : {

  00000	55		 push	 ebp
  00001	8b ec		 mov	 ebp, esp
  00003	83 ec 10	 sub	 esp, 16			; 00000010H
; File C:\IAGOS\server\v18\Source\Source\_Network\Misc\Include\ar.h

; 146  : 	return (m_nMode & CAr::load) == 0;

  00006	8d 51 0c	 lea	 edx, DWORD PTR [ecx+12]
; File C:\IAGOS\server\v18\Source\Source\_Common\pet.cpp

; 312  : {

  00009	53		 push	 ebx
  0000a	56		 push	 esi
; File C:\IAGOS\server\v18\Source\Source\_Network\Misc\Include\ar.h

; 146  : 	return (m_nMode & CAr::load) == 0;

  0000b	8b 75 08	 mov	 esi, DWORD PTR _ar$[ebp]
  0000e	8d 41 04	 lea	 eax, DWORD PTR [ecx+4]
  00011	89 55 fc	 mov	 DWORD PTR tv244[ebp], edx
  00014	8d 59 08	 lea	 ebx, DWORD PTR [ecx+8]
  00017	8d 51 0e	 lea	 edx, DWORD PTR [ecx+14]
; File C:\IAGOS\server\v18\Source\Source\_Common\pet.cpp

; 312  : {

  0001a	57		 push	 edi
; File C:\IAGOS\server\v18\Source\Source\_Network\Misc\Include\ar.h

; 146  : 	return (m_nMode & CAr::load) == 0;

  0001b	8d 79 05	 lea	 edi, DWORD PTR [ecx+5]
  0001e	89 55 f8	 mov	 DWORD PTR tv243[ebp], edx
  00021	8d 51 10	 lea	 edx, DWORD PTR [ecx+16]
  00024	83 c1 16	 add	 ecx, 22			; 00000016H
  00027	f6 06 01	 test	 BYTE PTR [esi], 1
  0002a	89 4d f0	 mov	 DWORD PTR tv240[ebp], ecx
; File C:\IAGOS\server\v18\Source\Source\_Common\pet.cpp

; 313  : 	if( ar.IsStoring() )

  0002d	8b ce		 mov	 ecx, esi
; File C:\IAGOS\server\v18\Source\Source\_Network\Misc\Include\ar.h

; 146  : 	return (m_nMode & CAr::load) == 0;

  0002f	89 55 f4	 mov	 DWORD PTR tv241[ebp], edx
; File C:\IAGOS\server\v18\Source\Source\_Common\pet.cpp

; 313  : 	if( ar.IsStoring() )

  00032	50		 push	 eax
  00033	75 48		 jne	 SHORT $LN2@Serialize

; 314  : 	{
; 315  : 		ar << m_nKind;

  00035	e8 00 00 00 00	 call	 ??$?6E@CAr@@QAEAAV0@ABE@Z ; CAr::operator<<<unsigned char>

; 316  : 		ar << (BYTE)m_nLevel;

  0003a	57		 push	 edi
  0003b	8b ce		 mov	 ecx, esi
  0003d	e8 00 00 00 00	 call	 ??$?6E@CAr@@QAEAAV0@ABE@Z ; CAr::operator<<<unsigned char>

; 317  : 		ar << m_dwExp;

  00042	53		 push	 ebx
  00043	8b ce		 mov	 ecx, esi
  00045	e8 00 00 00 00	 call	 ??$?6K@CAr@@QAEAAV0@ABK@Z ; CAr::operator<<<unsigned long>

; 318  : 		ar << m_wEnergy;

  0004a	ff 75 fc	 push	 DWORD PTR tv244[ebp]
  0004d	8b ce		 mov	 ecx, esi
  0004f	e8 00 00 00 00	 call	 ??$?6G@CAr@@QAEAAV0@ABG@Z ; CAr::operator<<<unsigned short>

; 319  : 		ar << m_wLife;

  00054	ff 75 f8	 push	 DWORD PTR tv243[ebp]
  00057	8b ce		 mov	 ecx, esi
  00059	e8 00 00 00 00	 call	 ??$?6G@CAr@@QAEAAV0@ABG@Z ; CAr::operator<<<unsigned short>

; 320  : 		ar.Write( (const void*)m_anAvailLevel, sizeof(BYTE) * PL_MAX );

  0005e	6a 06		 push	 6
  00060	ff 75 f4	 push	 DWORD PTR tv241[ebp]
  00063	8b ce		 mov	 ecx, esi
  00065	e8 00 00 00 00	 call	 ?Write@CAr@@QAEXPBXI@Z	; CAr::Write

; 321  : #ifdef __PET_1024
; 322  : 		ar.WriteString( m_szName );

  0006a	ff 75 f0	 push	 DWORD PTR tv240[ebp]
  0006d	8b ce		 mov	 ecx, esi
  0006f	e8 00 00 00 00	 call	 ?WriteString@CAr@@QAEXPBD@Z ; CAr::WriteString
  00074	5f		 pop	 edi

; 337  : #endif	// __PET_1024
; 338  : 	}
; 339  : }

  00075	5e		 pop	 esi
  00076	5b		 pop	 ebx
  00077	8b e5		 mov	 esp, ebp
  00079	5d		 pop	 ebp
  0007a	c2 04 00	 ret	 4
$LN2@Serialize:

; 323  : #endif	// __PET_1024
; 324  : 	}
; 325  : 	else
; 326  : 	{
; 327  : 		m_nKind	= PK_TIGER;

  0007d	c6 00 00	 mov	 BYTE PTR [eax], 0

; 328  : 		m_nLevel	= PL_EGG;

  00080	c6 07 00	 mov	 BYTE PTR [edi], 0

; 329  : 		ar >> m_nKind;

  00083	e8 00 00 00 00	 call	 ??$?5E@CAr@@QAEAAV0@AAE@Z ; CAr::operator>><unsigned char>

; 330  : 		ar >> (BYTE &)m_nLevel;

  00088	57		 push	 edi
  00089	8b ce		 mov	 ecx, esi
  0008b	e8 00 00 00 00	 call	 ??$?5E@CAr@@QAEAAV0@AAE@Z ; CAr::operator>><unsigned char>

; 331  : 		ar >> m_dwExp;

  00090	53		 push	 ebx
  00091	8b ce		 mov	 ecx, esi
  00093	e8 00 00 00 00	 call	 ??$?5K@CAr@@QAEAAV0@AAK@Z ; CAr::operator>><unsigned long>

; 332  : 		ar >> m_wEnergy;

  00098	ff 75 fc	 push	 DWORD PTR tv244[ebp]
  0009b	8b ce		 mov	 ecx, esi
  0009d	e8 00 00 00 00	 call	 ??$?5G@CAr@@QAEAAV0@AAG@Z ; CAr::operator>><unsigned short>

; 333  : 		ar >> m_wLife;

  000a2	ff 75 f8	 push	 DWORD PTR tv243[ebp]
  000a5	8b ce		 mov	 ecx, esi
  000a7	e8 00 00 00 00	 call	 ??$?5G@CAr@@QAEAAV0@AAG@Z ; CAr::operator>><unsigned short>

; 334  : 		ar.Read( (void *)m_anAvailLevel, sizeof(BYTE) * PL_MAX );

  000ac	6a 06		 push	 6
  000ae	ff 75 f4	 push	 DWORD PTR tv241[ebp]
  000b1	8b ce		 mov	 ecx, esi
  000b3	e8 00 00 00 00	 call	 ?Read@CAr@@QAEXPAXI@Z	; CAr::Read

; 335  : #ifdef __PET_1024
; 336  : 		ar.ReadString( m_szName, MAX_PET_NAME );

  000b8	6a 11		 push	 17			; 00000011H
  000ba	ff 75 f0	 push	 DWORD PTR tv240[ebp]
  000bd	8b ce		 mov	 ecx, esi
  000bf	e8 00 00 00 00	 call	 ?ReadString@CAr@@QAEPADPADH@Z ; CAr::ReadString
  000c4	5f		 pop	 edi

; 337  : #endif	// __PET_1024
; 338  : 	}
; 339  : }

  000c5	5e		 pop	 esi
  000c6	5b		 pop	 ebx
  000c7	8b e5		 mov	 esp, ebp
  000c9	5d		 pop	 ebp
  000ca	c2 04 00	 ret	 4
?Serialize@CPet@@QAEXAAVCAr@@@Z ENDP			; CPet::Serialize
_TEXT	ENDS
; Function compile flags: /Ogtp
; File C:\IAGOS\server\v18\Source\Source\_Common\pet.cpp
;	COMDAT ??1CPet@@UAE@XZ
_TEXT	SEGMENT
??1CPet@@UAE@XZ PROC					; CPet::~CPet, COMDAT
; _this$ = ecx

; 308  : {

  00000	c7 01 00 00 00
	00		 mov	 DWORD PTR [ecx], OFFSET ??_7CPet@@6B@

; 309  : }

  00006	c3		 ret	 0
??1CPet@@UAE@XZ ENDP					; CPet::~CPet
_TEXT	ENDS
; Function compile flags: /Ogtp
; File C:\IAGOS\server\v18\Source\Source\_Common\pet.cpp
;	COMDAT ??0CPet@@QAE@XZ
_TEXT	SEGMENT
??0CPet@@QAE@XZ PROC					; CPet::CPet, COMDAT
; _this$ = ecx

; 296  : 	m_nKind	= 0;
; 297  : 	m_nLevel	= PL_EGG;
; 298  : 	m_dwExp	= 0;
; 299  : 	m_wEnergy	= 0;

  00000	33 c0		 xor	 eax, eax
  00002	c7 01 00 00 00
	00		 mov	 DWORD PTR [ecx], OFFSET ??_7CPet@@6B@
  00008	89 41 0c	 mov	 DWORD PTR [ecx+12], eax
  0000b	66 c7 41 04 00
	00		 mov	 WORD PTR [ecx+4], 0
  00011	c7 41 08 00 00
	00 00		 mov	 DWORD PTR [ecx+8], 0

; 300  : 	m_wLife	= 0;
; 301  : 	memset( (void*)m_anAvailLevel, 0, sizeof(BYTE) * PL_MAX );

  00018	89 41 10	 mov	 DWORD PTR [ecx+16], eax
  0001b	66 89 41 14	 mov	 WORD PTR [ecx+20], ax

; 302  : #ifdef __PET_1024
; 303  : 	m_szName[0]	= '\0';

  0001f	88 41 16	 mov	 BYTE PTR [ecx+22], al

; 304  : #endif	// __PET_1024
; 305  : }

  00022	8b c1		 mov	 eax, ecx
  00024	c3		 ret	 0
??0CPet@@QAE@XZ ENDP					; CPet::CPet
_TEXT	ENDS
; Function compile flags: /Ogtp
;	COMDAT ??_GCPetProperty@@UAEPAXI@Z
_TEXT	SEGMENT
___flags$ = 8						; size = 4
??_GCPetProperty@@UAEPAXI@Z PROC			; CPetProperty::`scalar deleting destructor', COMDAT
; _this$ = ecx
  00000	55		 push	 ebp
  00001	8b ec		 mov	 ebp, esp
  00003	56		 push	 esi
  00004	8b f1		 mov	 esi, ecx
  00006	e8 00 00 00 00	 call	 ??1CPetProperty@@UAE@XZ	; CPetProperty::~CPetProperty
  0000b	f6 45 08 01	 test	 BYTE PTR ___flags$[ebp], 1
  0000f	74 0e		 je	 SHORT $LN5@scalar
  00011	68 00 03 00 00	 push	 768			; 00000300H
  00016	56		 push	 esi
  00017	e8 00 00 00 00	 call	 ??3@YAXPAXI@Z		; operator delete
  0001c	83 c4 08	 add	 esp, 8
$LN5@scalar:
  0001f	8b c6		 mov	 eax, esi
  00021	5e		 pop	 esi
  00022	5d		 pop	 ebp
  00023	c2 04 00	 ret	 4
??_GCPetProperty@@UAEPAXI@Z ENDP			; CPetProperty::`scalar deleting destructor'
_TEXT	ENDS
; Function compile flags: /Ogtp
; File C:\Program Files\Microsoft Visual Studio\2022\Professional\VC\Tools\MSVC\14.44.35207\include\vector
;	COMDAT ?_Xlength@?$vector@GV?$allocator@G@std@@@std@@CAXXZ
_TEXT	SEGMENT
?_Xlength@?$vector@GV?$allocator@G@std@@@std@@CAXXZ PROC ; std::vector<unsigned short,std::allocator<unsigned short> >::_Xlength, COMDAT

; 2184 :         _Xlength_error("vector too long");

  00000	68 00 00 00 00	 push	 OFFSET ??_C@_0BA@FOIKENOD@vector?5too?5long@
  00005	e8 00 00 00 00	 call	 ?_Xlength_error@std@@YAXPBD@Z ; std::_Xlength_error
$LN3@Xlength:
  0000a	cc		 int	 3
?_Xlength@?$vector@GV?$allocator@G@std@@@std@@CAXXZ ENDP ; std::vector<unsigned short,std::allocator<unsigned short> >::_Xlength
_TEXT	ENDS
; Function compile flags: /Ogtp
; File C:\Program Files\Microsoft Visual Studio\2022\Professional\VC\Tools\MSVC\14.44.35207\include\vector
; File C:\Program Files\Microsoft Visual Studio\2022\Professional\VC\Tools\MSVC\14.44.35207\include\xmemory
; File C:\Program Files\Microsoft Visual Studio\2022\Professional\VC\Tools\MSVC\14.44.35207\include\vector
; File C:\Program Files\Microsoft Visual Studio\2022\Professional\VC\Tools\MSVC\14.44.35207\include\xmemory
; File C:\Program Files\Microsoft Visual Studio\2022\Professional\VC\Tools\MSVC\14.44.35207\include\vector
; File C:\Program Files\Microsoft Visual Studio\2022\Professional\VC\Tools\MSVC\14.44.35207\include\xmemory
; File C:\Program Files\Microsoft Visual Studio\2022\Professional\VC\Tools\MSVC\14.44.35207\include\vector
;	COMDAT ??1?$vector@GV?$allocator@G@std@@@std@@QAE@XZ
_TEXT	SEGMENT
??1?$vector@GV?$allocator@G@std@@@std@@QAE@XZ PROC	; std::vector<unsigned short,std::allocator<unsigned short> >::~vector<unsigned short,std::allocator<unsigned short> >, COMDAT
; _this$ = ecx

; 829  :     _CONSTEXPR20 ~vector() noexcept {

  00000	56		 push	 esi
  00001	8b f1		 mov	 esi, ecx

; 2090 :         if (_Myfirst) { // destroy and deallocate old array

  00003	8b 06		 mov	 eax, DWORD PTR [esi]
  00005	85 c0		 test	 eax, eax
  00007	74 40		 je	 SHORT $LN5@vector

; 2091 :             _STD _Destroy_range(_Myfirst, _Mylast, _Al);
; 2092 :             _ASAN_VECTOR_REMOVE;
; 2093 :             _Al.deallocate(_Myfirst, static_cast<size_type>(_Myend - _Myfirst));

  00009	8b 4e 08	 mov	 ecx, DWORD PTR [esi+8]
  0000c	2b c8		 sub	 ecx, eax
; File C:\Program Files\Microsoft Visual Studio\2022\Professional\VC\Tools\MSVC\14.44.35207\include\xmemory

; 985  :         _STD _Deallocate<_New_alignof<_Ty>>(_Ptr, sizeof(_Ty) * _Count);

  0000e	83 e1 fe	 and	 ecx, -2			; fffffffeH

; 284  :         if (_Bytes >= _Big_allocation_threshold) {

  00011	81 f9 00 10 00
	00		 cmp	 ecx, 4096		; 00001000H
  00017	72 12		 jb	 SHORT $LN18@vector

; 205  :     const uintptr_t _Ptr_container   = _Ptr_user[-1];

  00019	8b 50 fc	 mov	 edx, DWORD PTR [eax-4]
  0001c	83 c1 23	 add	 ecx, 35			; 00000023H

; 206  : 
; 207  :     // If the following asserts, it likely means that we are performing
; 208  :     // an aligned delete on memory coming from an unaligned allocation.
; 209  :     _STL_ASSERT(_Ptr_user[-2] == _Big_allocation_sentinel, "invalid argument");
; 210  : 
; 211  :     // Extra paranoia on aligned allocation/deallocation; ensure _Ptr_container is
; 212  :     // in range [_Min_back_shift, _Non_user_size]
; 213  : #ifdef _DEBUG
; 214  :     constexpr uintptr_t _Min_back_shift = 2 * sizeof(void*);
; 215  : #else // ^^^ defined(_DEBUG) / !defined(_DEBUG) vvv
; 216  :     constexpr uintptr_t _Min_back_shift = sizeof(void*);
; 217  : #endif // ^^^ !defined(_DEBUG) ^^^
; 218  :     const uintptr_t _Back_shift = reinterpret_cast<uintptr_t>(_Ptr) - _Ptr_container;

  0001f	2b c2		 sub	 eax, edx

; 219  :     _STL_VERIFY(_Back_shift >= _Min_back_shift && _Back_shift <= _Non_user_size, "invalid argument");

  00021	83 c0 fc	 add	 eax, -4			; fffffffcH
  00024	83 f8 1f	 cmp	 eax, 31			; 0000001fH
  00027	77 22		 ja	 SHORT $LN17@vector

; 220  :     _Ptr = reinterpret_cast<void*>(_Ptr_container);

  00029	8b c2		 mov	 eax, edx
$LN18@vector:

; 289  :         ::operator delete(_Ptr, _Bytes);

  0002b	51		 push	 ecx
  0002c	50		 push	 eax
  0002d	e8 00 00 00 00	 call	 ??3@YAXPAXI@Z		; operator delete
; File C:\Program Files\Microsoft Visual Studio\2022\Professional\VC\Tools\MSVC\14.44.35207\include\vector

; 2095 :             _Myfirst = nullptr;

  00032	c7 06 00 00 00
	00		 mov	 DWORD PTR [esi], 0
; File C:\Program Files\Microsoft Visual Studio\2022\Professional\VC\Tools\MSVC\14.44.35207\include\xmemory

; 289  :         ::operator delete(_Ptr, _Bytes);

  00038	83 c4 08	 add	 esp, 8
; File C:\Program Files\Microsoft Visual Studio\2022\Professional\VC\Tools\MSVC\14.44.35207\include\vector

; 2096 :             _Mylast  = nullptr;

  0003b	c7 46 04 00 00
	00 00		 mov	 DWORD PTR [esi+4], 0

; 2097 :             _Myend   = nullptr;

  00042	c7 46 08 00 00
	00 00		 mov	 DWORD PTR [esi+8], 0
$LN5@vector:
  00049	5e		 pop	 esi

; 835  :     }

  0004a	c3		 ret	 0
$LN17@vector:
; File C:\Program Files\Microsoft Visual Studio\2022\Professional\VC\Tools\MSVC\14.44.35207\include\xmemory

; 219  :     _STL_VERIFY(_Back_shift >= _Min_back_shift && _Back_shift <= _Non_user_size, "invalid argument");

  0004b	6a 00		 push	 0
  0004d	6a 00		 push	 0
  0004f	6a 00		 push	 0
  00051	6a 00		 push	 0
  00053	6a 00		 push	 0
  00055	e8 00 00 00 00	 call	 __invoke_watson
$LN26@vector:
  0005a	cc		 int	 3
??1?$vector@GV?$allocator@G@std@@@std@@QAE@XZ ENDP	; std::vector<unsigned short,std::allocator<unsigned short> >::~vector<unsigned short,std::allocator<unsigned short> >
_TEXT	ENDS
; Function compile flags: /Ogtp
; File C:\Program Files\Microsoft Visual Studio\2022\Professional\VC\Tools\MSVC\14.44.35207\include\vector
;	COMDAT ?_Xlength@?$vector@U_FEEDENERGY@@V?$allocator@U_FEEDENERGY@@@std@@@std@@CAXXZ
_TEXT	SEGMENT
?_Xlength@?$vector@U_FEEDENERGY@@V?$allocator@U_FEEDENERGY@@@std@@@std@@CAXXZ PROC ; std::vector<_FEEDENERGY,std::allocator<_FEEDENERGY> >::_Xlength, COMDAT

; 2184 :         _Xlength_error("vector too long");

  00000	68 00 00 00 00	 push	 OFFSET ??_C@_0BA@FOIKENOD@vector?5too?5long@
  00005	e8 00 00 00 00	 call	 ?_Xlength_error@std@@YAXPBD@Z ; std::_Xlength_error
$LN3@Xlength:
  0000a	cc		 int	 3
?_Xlength@?$vector@U_FEEDENERGY@@V?$allocator@U_FEEDENERGY@@@std@@@std@@CAXXZ ENDP ; std::vector<_FEEDENERGY,std::allocator<_FEEDENERGY> >::_Xlength
_TEXT	ENDS
; Function compile flags: /Ogtp
; File C:\Program Files\Microsoft Visual Studio\2022\Professional\VC\Tools\MSVC\14.44.35207\include\vector
; File C:\Program Files\Microsoft Visual Studio\2022\Professional\VC\Tools\MSVC\14.44.35207\include\xmemory
; File C:\Program Files\Microsoft Visual Studio\2022\Professional\VC\Tools\MSVC\14.44.35207\include\vector
; File C:\Program Files\Microsoft Visual Studio\2022\Professional\VC\Tools\MSVC\14.44.35207\include\xmemory
; File C:\Program Files\Microsoft Visual Studio\2022\Professional\VC\Tools\MSVC\14.44.35207\include\vector
; File C:\Program Files\Microsoft Visual Studio\2022\Professional\VC\Tools\MSVC\14.44.35207\include\xmemory
; File C:\Program Files\Microsoft Visual Studio\2022\Professional\VC\Tools\MSVC\14.44.35207\include\vector
;	COMDAT ??1?$vector@U_FEEDENERGY@@V?$allocator@U_FEEDENERGY@@@std@@@std@@QAE@XZ
_TEXT	SEGMENT
??1?$vector@U_FEEDENERGY@@V?$allocator@U_FEEDENERGY@@@std@@@std@@QAE@XZ PROC ; std::vector<_FEEDENERGY,std::allocator<_FEEDENERGY> >::~vector<_FEEDENERGY,std::allocator<_FEEDENERGY> >, COMDAT
; _this$ = ecx

; 829  :     _CONSTEXPR20 ~vector() noexcept {

  00000	56		 push	 esi
  00001	57		 push	 edi
  00002	8b f9		 mov	 edi, ecx

; 2090 :         if (_Myfirst) { // destroy and deallocate old array

  00004	8b 37		 mov	 esi, DWORD PTR [edi]
  00006	85 f6		 test	 esi, esi
  00008	74 53		 je	 SHORT $LN5@vector

; 2091 :             _STD _Destroy_range(_Myfirst, _Mylast, _Al);
; 2092 :             _ASAN_VECTOR_REMOVE;
; 2093 :             _Al.deallocate(_Myfirst, static_cast<size_type>(_Myend - _Myfirst));

  0000a	8b 4f 08	 mov	 ecx, DWORD PTR [edi+8]
  0000d	b8 ab aa aa 2a	 mov	 eax, 715827883		; 2aaaaaabH
  00012	2b ce		 sub	 ecx, esi
  00014	f7 e9		 imul	 ecx
  00016	d1 fa		 sar	 edx, 1
  00018	8b c2		 mov	 eax, edx
  0001a	c1 e8 1f	 shr	 eax, 31			; 0000001fH
  0001d	03 c2		 add	 eax, edx
; File C:\Program Files\Microsoft Visual Studio\2022\Professional\VC\Tools\MSVC\14.44.35207\include\xmemory

; 985  :         _STD _Deallocate<_New_alignof<_Ty>>(_Ptr, sizeof(_Ty) * _Count);

  0001f	8d 0c 40	 lea	 ecx, DWORD PTR [eax+eax*2]
  00022	c1 e1 02	 shl	 ecx, 2

; 284  :         if (_Bytes >= _Big_allocation_threshold) {

  00025	81 f9 00 10 00
	00		 cmp	 ecx, 4096		; 00001000H
  0002b	72 12		 jb	 SHORT $LN18@vector

; 205  :     const uintptr_t _Ptr_container   = _Ptr_user[-1];

  0002d	8b 56 fc	 mov	 edx, DWORD PTR [esi-4]
  00030	83 c1 23	 add	 ecx, 35			; 00000023H

; 206  : 
; 207  :     // If the following asserts, it likely means that we are performing
; 208  :     // an aligned delete on memory coming from an unaligned allocation.
; 209  :     _STL_ASSERT(_Ptr_user[-2] == _Big_allocation_sentinel, "invalid argument");
; 210  : 
; 211  :     // Extra paranoia on aligned allocation/deallocation; ensure _Ptr_container is
; 212  :     // in range [_Min_back_shift, _Non_user_size]
; 213  : #ifdef _DEBUG
; 214  :     constexpr uintptr_t _Min_back_shift = 2 * sizeof(void*);
; 215  : #else // ^^^ defined(_DEBUG) / !defined(_DEBUG) vvv
; 216  :     constexpr uintptr_t _Min_back_shift = sizeof(void*);
; 217  : #endif // ^^^ !defined(_DEBUG) ^^^
; 218  :     const uintptr_t _Back_shift = reinterpret_cast<uintptr_t>(_Ptr) - _Ptr_container;

  00033	2b f2		 sub	 esi, edx

; 219  :     _STL_VERIFY(_Back_shift >= _Min_back_shift && _Back_shift <= _Non_user_size, "invalid argument");

  00035	8d 46 fc	 lea	 eax, DWORD PTR [esi-4]
  00038	83 f8 1f	 cmp	 eax, 31			; 0000001fH
  0003b	77 23		 ja	 SHORT $LN17@vector

; 220  :     _Ptr = reinterpret_cast<void*>(_Ptr_container);

  0003d	8b f2		 mov	 esi, edx
$LN18@vector:

; 289  :         ::operator delete(_Ptr, _Bytes);

  0003f	51		 push	 ecx
  00040	56		 push	 esi
  00041	e8 00 00 00 00	 call	 ??3@YAXPAXI@Z		; operator delete
; File C:\Program Files\Microsoft Visual Studio\2022\Professional\VC\Tools\MSVC\14.44.35207\include\vector

; 2095 :             _Myfirst = nullptr;

  00046	c7 07 00 00 00
	00		 mov	 DWORD PTR [edi], 0
; File C:\Program Files\Microsoft Visual Studio\2022\Professional\VC\Tools\MSVC\14.44.35207\include\xmemory

; 289  :         ::operator delete(_Ptr, _Bytes);

  0004c	83 c4 08	 add	 esp, 8
; File C:\Program Files\Microsoft Visual Studio\2022\Professional\VC\Tools\MSVC\14.44.35207\include\vector

; 2096 :             _Mylast  = nullptr;

  0004f	c7 47 04 00 00
	00 00		 mov	 DWORD PTR [edi+4], 0

; 2097 :             _Myend   = nullptr;

  00056	c7 47 08 00 00
	00 00		 mov	 DWORD PTR [edi+8], 0
$LN5@vector:
  0005d	5f		 pop	 edi

; 835  :     }

  0005e	5e		 pop	 esi
  0005f	c3		 ret	 0
$LN17@vector:
; File C:\Program Files\Microsoft Visual Studio\2022\Professional\VC\Tools\MSVC\14.44.35207\include\xmemory

; 219  :     _STL_VERIFY(_Back_shift >= _Min_back_shift && _Back_shift <= _Non_user_size, "invalid argument");

  00060	6a 00		 push	 0
  00062	6a 00		 push	 0
  00064	6a 00		 push	 0
  00066	6a 00		 push	 0
  00068	6a 00		 push	 0
  0006a	e8 00 00 00 00	 call	 __invoke_watson
$LN26@vector:
  0006f	cc		 int	 3
??1?$vector@U_FEEDENERGY@@V?$allocator@U_FEEDENERGY@@@std@@@std@@QAE@XZ ENDP ; std::vector<_FEEDENERGY,std::allocator<_FEEDENERGY> >::~vector<_FEEDENERGY,std::allocator<_FEEDENERGY> >
_TEXT	ENDS
; Function compile flags: /Ogtp
; File C:\Program Files\Microsoft Visual Studio\2022\Professional\VC\Tools\MSVC\14.44.35207\include\vector
;	COMDAT ??0?$vector@U_FEEDENERGY@@V?$allocator@U_FEEDENERGY@@@std@@@std@@QAE@XZ
_TEXT	SEGMENT
??0?$vector@U_FEEDENERGY@@V?$allocator@U_FEEDENERGY@@@std@@@std@@QAE@XZ PROC ; std::vector<_FEEDENERGY,std::allocator<_FEEDENERGY> >::vector<_FEEDENERGY,std::allocator<_FEEDENERGY> >, COMDAT
; _this$ = ecx

; 400  :     _CONSTEXPR20 _Vector_val() noexcept : _Myfirst(), _Mylast(), _Myend() {}

  00000	c7 01 00 00 00
	00		 mov	 DWORD PTR [ecx], 0

; 671  :         _Mypair._Myval2._Alloc_proxy(_GET_PROXY_ALLOCATOR(_Alty, _Getal()));
; 672  :     }

  00006	8b c1		 mov	 eax, ecx

; 400  :     _CONSTEXPR20 _Vector_val() noexcept : _Myfirst(), _Mylast(), _Myend() {}

  00008	c7 41 04 00 00
	00 00		 mov	 DWORD PTR [ecx+4], 0
  0000f	c7 41 08 00 00
	00 00		 mov	 DWORD PTR [ecx+8], 0

; 671  :         _Mypair._Myval2._Alloc_proxy(_GET_PROXY_ALLOCATOR(_Alty, _Getal()));
; 672  :     }

  00016	c3		 ret	 0
??0?$vector@U_FEEDENERGY@@V?$allocator@U_FEEDENERGY@@@std@@@std@@QAE@XZ ENDP ; std::vector<_FEEDENERGY,std::allocator<_FEEDENERGY> >::vector<_FEEDENERGY,std::allocator<_FEEDENERGY> >
_TEXT	ENDS
; Function compile flags: /Ogtp
; File C:\IAGOS\server\v18\Source\Source\_Common\pet.cpp
;	COMDAT ?GetPenalty@CPetProperty@@QAEPAU_PETPENALTY@@E@Z
_TEXT	SEGMENT
_nLevel$ = 8						; size = 1
?GetPenalty@CPetProperty@@QAEPAU_PETPENALTY@@E@Z PROC	; CPetProperty::GetPenalty, COMDAT
; _this$ = ecx

; 38   : {

  00000	55		 push	 ebp
  00001	8b ec		 mov	 ebp, esp

; 39   : 	if( nLevel >= PL_MAX )

  00003	8a 45 08	 mov	 al, BYTE PTR _nLevel$[ebp]
  00006	3c 06		 cmp	 al, 6
  00008	72 06		 jb	 SHORT $LN2@GetPenalty

; 40   : 		return NULL;

  0000a	33 c0		 xor	 eax, eax

; 42   : }

  0000c	5d		 pop	 ebp
  0000d	c2 04 00	 ret	 4
$LN2@GetPenalty:

; 41   : 	return &m_aPenalty[nLevel];

  00010	0f b6 c0	 movzx	 eax, al
  00013	83 c0 5a	 add	 eax, 90			; 0000005aH
  00016	8d 04 c1	 lea	 eax, DWORD PTR [ecx+eax*8]

; 42   : }

  00019	5d		 pop	 ebp
  0001a	c2 04 00	 ret	 4
?GetPenalty@CPetProperty@@QAEPAU_PETPENALTY@@E@Z ENDP	; CPetProperty::GetPenalty
_TEXT	ENDS
; Function compile flags: /Ogtp
; File C:\IAGOS\server\v18\Source\Source\_Common\pet.cpp
;	COMDAT ?Hatch@CPetProperty@@QAEEXZ
_TEXT	SEGMENT
?Hatch@CPetProperty@@QAEEXZ PROC			; CPetProperty::Hatch, COMDAT
; _this$ = ecx

; 79   : {

  00000	56		 push	 esi
  00001	57		 push	 edi

; 80   : 	DWORD dwTotal	= 0;
; 81   : 	DWORD dwRandom	= xRandom( 1, 10001 );	// 1 - 10000

  00002	68 11 27 00 00	 push	 10001			; 00002711H
  00007	6a 01		 push	 1
  00009	8b f1		 mov	 esi, ecx
  0000b	33 ff		 xor	 edi, edi
  0000d	e8 00 00 00 00	 call	 ?xRandom@@YAKKK@Z	; xRandom
  00012	8b c8		 mov	 ecx, eax
  00014	83 c4 08	 add	 esp, 8

; 82   : 	for( int i = 0; i < PK_MAX; i++ )

  00017	33 c0		 xor	 eax, eax
  00019	83 c6 3c	 add	 esi, 60			; 0000003cH
  0001c	0f 1f 40 00	 npad	 4
$LL4@Hatch:

; 83   : 	{
; 84   : 		dwTotal	+= m_aPetAvailParam[i].m_dwProbability;

  00020	03 3e		 add	 edi, DWORD PTR [esi]

; 85   : 		if( dwTotal >= dwRandom )

  00022	3b f9		 cmp	 edi, ecx
  00024	73 0b		 jae	 SHORT $LN1@Hatch

; 82   : 	for( int i = 0; i < PK_MAX; i++ )

  00026	40		 inc	 eax
  00027	83 c6 3c	 add	 esi, 60			; 0000003cH
  0002a	83 f8 07	 cmp	 eax, 7
  0002d	7c f1		 jl	 SHORT $LL4@Hatch

; 86   : 			return i;
; 87   : 	}
; 88   : 	return 0;	// error

  0002f	32 c0		 xor	 al, al
$LN1@Hatch:
  00031	5f		 pop	 edi

; 89   : }

  00032	5e		 pop	 esi
  00033	c3		 ret	 0
?Hatch@CPetProperty@@QAEEXZ ENDP			; CPetProperty::Hatch
_TEXT	ENDS
; Function compile flags: /Ogtp
; File C:\IAGOS\server\v18\Source\Source\_Common\pet.cpp
; File C:\Program Files\Microsoft Visual Studio\2022\Professional\VC\Tools\MSVC\14.44.35207\atlmfc\include\cstringt.h
; File C:\IAGOS\server\v18\Source\Source\_Common\pet.cpp
; File C:\Program Files\Microsoft Visual Studio\2022\Professional\VC\Tools\MSVC\14.44.35207\atlmfc\include\cstringt.h
; File C:\IAGOS\server\v18\Source\Source\_Common\pet.cpp
; File C:\Program Files\Microsoft Visual Studio\2022\Professional\VC\Tools\MSVC\14.44.35207\atlmfc\include\cstringt.h
; File C:\IAGOS\server\v18\Source\Source\_Common\pet.cpp
; File C:\Program Files\Microsoft Visual Studio\2022\Professional\VC\Tools\MSVC\14.44.35207\include\vector
; File C:\IAGOS\server\v18\Source\Source\_Common\pet.cpp
; File C:\Program Files\Microsoft Visual Studio\2022\Professional\VC\Tools\MSVC\14.44.35207\include\vector
; File C:\Program Files\Microsoft Visual Studio\2022\Professional\VC\Tools\MSVC\14.44.35207\include\xutility
; File C:\Program Files\Microsoft Visual Studio\2022\Professional\VC\Tools\MSVC\14.44.35207\include\vector
; File C:\IAGOS\server\v18\Source\Source\_Common\pet.cpp
; File C:\Program Files\Microsoft Visual Studio\2022\Professional\VC\Tools\MSVC\14.44.35207\atlmfc\include\cstringt.h
; File C:\IAGOS\server\v18\Source\Source\_Common\pet.cpp
; File C:\Program Files\Microsoft Visual Studio\2022\Professional\VC\Tools\MSVC\14.44.35207\atlmfc\include\cstringt.h
; File C:\IAGOS\server\v18\Source\Source\_Common\pet.cpp
; File C:\Program Files\Microsoft Visual Studio\2022\Professional\VC\Tools\MSVC\14.44.35207\atlmfc\include\cstringt.h
; File C:\IAGOS\server\v18\Source\Source\_Common\pet.cpp
; File C:\Program Files\Microsoft Visual Studio\2022\Professional\VC\Tools\MSVC\14.44.35207\include\vector
; File C:\IAGOS\server\v18\Source\Source\_Common\pet.cpp
; File C:\Program Files\Microsoft Visual Studio\2022\Professional\VC\Tools\MSVC\14.44.35207\atlmfc\include\cstringt.h
; File C:\IAGOS\server\v18\Source\Source\_Common\pet.cpp
;	COMDAT ?LoadScript@CPetProperty@@QAEHPBD@Z
_TEXT	SEGMENT
_fe$2 = -3596						; size = 12
_this$GSCopy$1$ = -3584					; size = 4
_fExp$3 = -3580						; size = 4
tv1330 = -3580						; size = 4
tv1336 = -3580						; size = 4
_wProbability$4 = -3580					; size = 2
_s$ = -3576						; size = 3560
__$ArrayPad$ = -16					; size = 4
__$EHRec$ = -12						; size = 12
_szFile$ = 8						; size = 4
?LoadScript@CPetProperty@@QAEHPBD@Z PROC		; CPetProperty::LoadScript, COMDAT
; _this$ = ecx

; 125  : {

  00000	55		 push	 ebp
  00001	8b ec		 mov	 ebp, esp
  00003	6a ff		 push	 -1
  00005	68 00 00 00 00	 push	 __ehhandler$?LoadScript@CPetProperty@@QAEHPBD@Z
  0000a	64 a1 00 00 00
	00		 mov	 eax, DWORD PTR fs:0
  00010	50		 push	 eax
  00011	81 ec 00 0e 00
	00		 sub	 esp, 3584		; 00000e00H
  00017	a1 00 00 00 00	 mov	 eax, DWORD PTR ___security_cookie
  0001c	33 c5		 xor	 eax, ebp
  0001e	89 45 f0	 mov	 DWORD PTR __$ArrayPad$[ebp], eax
  00021	53		 push	 ebx
  00022	56		 push	 esi
  00023	57		 push	 edi
  00024	50		 push	 eax
  00025	8d 45 f4	 lea	 eax, DWORD PTR __$EHRec$[ebp]
  00028	64 a3 00 00 00
	00		 mov	 DWORD PTR fs:0, eax
  0002e	8b d9		 mov	 ebx, ecx
  00030	89 9d 00 f2 ff
	ff		 mov	 DWORD PTR _this$GSCopy$1$[ebp], ebx
  00036	8b 75 08	 mov	 esi, DWORD PTR _szFile$[ebp]

; 126  : 	CScript s;

  00039	8d 8d 08 f2 ff
	ff		 lea	 ecx, DWORD PTR _s$[ebp]
  0003f	6a 00		 push	 0
  00041	e8 00 00 00 00	 call	 ??0CScript@@QAE@H@Z	; CScript::CScript

; 127  : 	if( s.Load( szFile ) == FALSE )

  00046	6a 00		 push	 0
  00048	6a 01		 push	 1
  0004a	56		 push	 esi
  0004b	8d 8d 08 f2 ff
	ff		 lea	 ecx, DWORD PTR _s$[ebp]
  00051	c7 45 fc 00 00
	00 00		 mov	 DWORD PTR __$EHRec$[ebp+8], 0
  00058	e8 00 00 00 00	 call	 ?Load@CScript@@QAEHPBDHH@Z ; CScript::Load
  0005d	85 c0		 test	 eax, eax
  0005f	75 07		 jne	 SHORT $LN24@LoadScript
  00061	33 f6		 xor	 esi, esi
  00063	e9 05 05 00 00	 jmp	 $LN41@LoadScript
$LN24@LoadScript:

; 128  : 		return FALSE;
; 129  : 
; 130  : 	s.GetToken();	// subject or FINISHED

  00068	6a 00		 push	 0
  0006a	8d 8d 08 f2 ff
	ff		 lea	 ecx, DWORD PTR _s$[ebp]
  00070	e8 00 00 00 00	 call	 ?GetToken@CScript@@UAEHH@Z ; CScript::GetToken

; 131  : 	while( s.tok != FINISHED )

  00075	83 bd 4c fa ff
	ff 15		 cmp	 DWORD PTR _s$[ebp+2116], 21 ; 00000015H
  0007c	0f 84 e6 04 00
	00		 je	 $LN3@LoadScript
  00082	0f 1f 40 00 66
	66 0f 1f 84 00
	00 00 00 00	 npad	 14
$LL2@LoadScript:
; File C:\Program Files\Microsoft Visual Studio\2022\Professional\VC\Tools\MSVC\14.44.35207\atlmfc\include\cstringt.h

; 184  : 		return _mbscmp( reinterpret_cast< const unsigned char* >( pszA ), reinterpret_cast< const unsigned char* >( pszB ) );

  00090	68 00 00 00 00	 push	 OFFSET ??_C@_0P@DOCAHOFJ@AvailDestParam@
  00095	ff b5 28 f2 ff
	ff		 push	 DWORD PTR _s$[ebp+32]
  0009b	e8 00 00 00 00	 call	 __mbscmp
  000a0	83 c4 08	 add	 esp, 8

; 2490 : 		return(str1.Compare(psz2) == 0);

  000a3	85 c0		 test	 eax, eax
; File C:\IAGOS\server\v18\Source\Source\_Common\pet.cpp

; 133  : 		if( s.Token == _T( "AvailDestParam" ) )

  000a5	0f 85 d2 00 00
	00		 jne	 $LN64@LoadScript

; 134  : 		{
; 135  : 			// 	DST_STR
; 136  : 			int	nKind	= 0;
; 137  : 			s.GetToken();	// {

  000ab	50		 push	 eax
  000ac	8d 8d 08 f2 ff
	ff		 lea	 ecx, DWORD PTR _s$[ebp]
  000b2	e8 00 00 00 00	 call	 ?GetToken@CScript@@UAEHH@Z ; CScript::GetToken

; 138  : 			DWORD dwDstParam	= s.GetNumber();

  000b7	6a 00		 push	 0
  000b9	8d 8d 08 f2 ff
	ff		 lea	 ecx, DWORD PTR _s$[ebp]
  000bf	e8 00 00 00 00	 call	 ?GetNumber@CScanner@@QAEHH@Z ; CScanner::GetNumber
  000c4	8b c8		 mov	 ecx, eax

; 139  : 			while( *s.token != '}' )

  000c6	8b 85 44 f2 ff
	ff		 mov	 eax, DWORD PTR _s$[ebp+60]
  000cc	80 38 7d	 cmp	 BYTE PTR [eax], 125	; 0000007dH
  000cf	0f 84 79 04 00
	00		 je	 $LN23@LoadScript

; 134  : 		{
; 135  : 			// 	DST_STR
; 136  : 			int	nKind	= 0;
; 137  : 			s.GetToken();	// {

  000d5	83 c3 08	 add	 ebx, 8
  000d8	0f 1f 84 00 00
	00 00 00	 npad	 8
$LL4@LoadScript:

; 140  : 			{
; 141  : 				ASSERT( nKind < PK_MAX );
; 142  : 				m_aPetAvailParam[nKind].dwDstParam	= dwDstParam;

  000e0	89 4b fc	 mov	 DWORD PTR [ebx-4], ecx
  000e3	8b f3		 mov	 esi, ebx
  000e5	bf 09 00 00 00	 mov	 edi, 9
  000ea	66 0f 1f 44 00
	00		 npad	 6
$LL8@LoadScript:

; 143  : 				for( int i = 0; i < MAX_PET_AVAIL_LEVEL; i++ )
; 144  : 					m_aPetAvailParam[nKind].m_anParam[i]	= s.GetNumber();

  000f0	6a 00		 push	 0
  000f2	8d 8d 08 f2 ff
	ff		 lea	 ecx, DWORD PTR _s$[ebp]
  000f8	e8 00 00 00 00	 call	 ?GetNumber@CScanner@@QAEHH@Z ; CScanner::GetNumber
  000fd	89 06		 mov	 DWORD PTR [esi], eax
  000ff	8d 76 04	 lea	 esi, DWORD PTR [esi+4]
  00102	83 ef 01	 sub	 edi, 1
  00105	75 e9		 jne	 SHORT $LL8@LoadScript

; 145  : 				m_aPetAvailParam[nKind].m_dwItemId	= s.GetNumber();

  00107	57		 push	 edi
  00108	8d 8d 08 f2 ff
	ff		 lea	 ecx, DWORD PTR _s$[ebp]
  0010e	e8 00 00 00 00	 call	 ?GetNumber@CScanner@@QAEHH@Z ; CScanner::GetNumber

; 146  : 				m_aPetAvailParam[nKind].m_adwIndex[0]	= s.GetNumber();

  00113	57		 push	 edi
  00114	8d 8d 08 f2 ff
	ff		 lea	 ecx, DWORD PTR _s$[ebp]
  0011a	89 43 24	 mov	 DWORD PTR [ebx+36], eax
  0011d	e8 00 00 00 00	 call	 ?GetNumber@CScanner@@QAEHH@Z ; CScanner::GetNumber

; 147  : 				m_aPetAvailParam[nKind].m_adwIndex[1]	= s.GetNumber();

  00122	57		 push	 edi
  00123	8d 8d 08 f2 ff
	ff		 lea	 ecx, DWORD PTR _s$[ebp]
  00129	89 43 28	 mov	 DWORD PTR [ebx+40], eax
  0012c	e8 00 00 00 00	 call	 ?GetNumber@CScanner@@QAEHH@Z ; CScanner::GetNumber

; 148  : 				m_aPetAvailParam[nKind].m_adwIndex[2]	= s.GetNumber();

  00131	57		 push	 edi
  00132	8d 8d 08 f2 ff
	ff		 lea	 ecx, DWORD PTR _s$[ebp]
  00138	89 43 2c	 mov	 DWORD PTR [ebx+44], eax
  0013b	e8 00 00 00 00	 call	 ?GetNumber@CScanner@@QAEHH@Z ; CScanner::GetNumber

; 149  : 				m_aPetAvailParam[nKind++].m_dwProbability	= s.GetNumber();

  00140	57		 push	 edi
  00141	8d 8d 08 f2 ff
	ff		 lea	 ecx, DWORD PTR _s$[ebp]
  00147	89 43 30	 mov	 DWORD PTR [ebx+48], eax
  0014a	e8 00 00 00 00	 call	 ?GetNumber@CScanner@@QAEHH@Z ; CScanner::GetNumber
  0014f	89 43 34	 mov	 DWORD PTR [ebx+52], eax

; 150  : 				dwDstParam	= s.GetNumber();

  00152	8d 8d 08 f2 ff
	ff		 lea	 ecx, DWORD PTR _s$[ebp]
  00158	57		 push	 edi
  00159	83 c3 3c	 add	 ebx, 60			; 0000003cH
  0015c	e8 00 00 00 00	 call	 ?GetNumber@CScanner@@QAEHH@Z ; CScanner::GetNumber
  00161	8b c8		 mov	 ecx, eax
  00163	8b 85 44 f2 ff
	ff		 mov	 eax, DWORD PTR _s$[ebp+60]
  00169	80 38 7d	 cmp	 BYTE PTR [eax], 125	; 0000007dH
  0016c	0f 85 6e ff ff
	ff		 jne	 $LL4@LoadScript
  00172	8b 9d 00 f2 ff
	ff		 mov	 ebx, DWORD PTR _this$GSCopy$1$[ebp]
  00178	e9 d1 03 00 00	 jmp	 $LN23@LoadScript
$LN64@LoadScript:
; File C:\Program Files\Microsoft Visual Studio\2022\Professional\VC\Tools\MSVC\14.44.35207\atlmfc\include\cstringt.h

; 184  : 		return _mbscmp( reinterpret_cast< const unsigned char* >( pszA ), reinterpret_cast< const unsigned char* >( pszB ) );

  0017d	68 00 00 00 00	 push	 OFFSET ??_C@_0N@ELNJGIBK@LevelupAvail@
  00182	ff b5 28 f2 ff
	ff		 push	 DWORD PTR _s$[ebp+32]
  00188	e8 00 00 00 00	 call	 __mbscmp
  0018d	83 c4 08	 add	 esp, 8

; 2490 : 		return(str1.Compare(psz2) == 0);

  00190	85 c0		 test	 eax, eax
; File C:\IAGOS\server\v18\Source\Source\_Common\pet.cpp

; 153  : 		else if( s.Token == _T( "LevelupAvail" ) )

  00192	0f 85 9b 00 00
	00		 jne	 $LN80@LoadScript

; 154  : 		{
; 155  : 			// 	10000	0	0	0	0	0	0	0	0
; 156  : 			int	nLevel	= (int)PL_D;
; 157  : 			s.GetToken();	// {{

  00198	50		 push	 eax
  00199	8d 8d 08 f2 ff
	ff		 lea	 ecx, DWORD PTR _s$[ebp]
  0019f	e8 00 00 00 00	 call	 ?GetToken@CScript@@UAEHH@Z ; CScript::GetToken

; 158  : 			DWORD	dwProbability	= s.GetNumber();

  001a4	6a 00		 push	 0
  001a6	8d 8d 08 f2 ff
	ff		 lea	 ecx, DWORD PTR _s$[ebp]
  001ac	e8 00 00 00 00	 call	 ?GetNumber@CScanner@@QAEHH@Z ; CScanner::GetNumber
  001b1	8b c8		 mov	 ecx, eax

; 159  : 			while( *s.token != '}' )

  001b3	8b 85 44 f2 ff
	ff		 mov	 eax, DWORD PTR _s$[ebp+60]
  001b9	80 38 7d	 cmp	 BYTE PTR [eax], 125	; 0000007dH
  001bc	0f 84 8c 03 00
	00		 je	 $LN23@LoadScript

; 154  : 		{
; 155  : 			// 	10000	0	0	0	0	0	0	0	0
; 156  : 			int	nLevel	= (int)PL_D;
; 157  : 			s.GetToken();	// {{

  001c2	8d b3 d8 01 00
	00		 lea	 esi, DWORD PTR [ebx+472]
  001c8	8d bb a9 01 00
	00		 lea	 edi, DWORD PTR [ebx+425]
  001ce	89 b5 04 f2 ff
	ff		 mov	 DWORD PTR tv1336[ebp], esi
$LL9@LoadScript:

; 160  : 			{
; 161  : 				m_adwLevelupAvailLevelProbability[nLevel][0]	= dwProbability;

  001d4	89 4e fc	 mov	 DWORD PTR [esi-4], ecx
  001d7	bb 01 00 00 00	 mov	 ebx, 1
  001dc	0f 1f 40 00	 npad	 4
$LL13@LoadScript:

; 163  : 				{
; 164  : 					m_adwLevelupAvailLevelProbability[nLevel][i]	= s.GetNumber();

  001e0	6a 00		 push	 0
  001e2	8d 8d 08 f2 ff
	ff		 lea	 ecx, DWORD PTR _s$[ebp]
  001e8	e8 00 00 00 00	 call	 ?GetNumber@CScanner@@QAEHH@Z ; CScanner::GetNumber
  001ed	89 06		 mov	 DWORD PTR [esi], eax

; 165  : 					if( m_adwLevelupAvailLevelProbability[nLevel][i] > 0 )

  001ef	85 c0		 test	 eax, eax
  001f1	74 02		 je	 SHORT $LN11@LoadScript

; 166  : 						m_anLevelupAvailLevelMax[nLevel]	= i;

  001f3	88 1f		 mov	 BYTE PTR [edi], bl
$LN11@LoadScript:

; 162  : 				for( int i = 1; i < MAX_PET_AVAIL_LEVEL; i++ )

  001f5	43		 inc	 ebx
  001f6	83 c6 04	 add	 esi, 4
  001f9	83 fb 09	 cmp	 ebx, 9
  001fc	7c e2		 jl	 SHORT $LL13@LoadScript

; 167  : 				}
; 168  : 				nLevel++;

  001fe	8b b5 04 f2 ff
	ff		 mov	 esi, DWORD PTR tv1336[ebp]

; 169  : 				dwProbability	= s.GetNumber();

  00204	8d 8d 08 f2 ff
	ff		 lea	 ecx, DWORD PTR _s$[ebp]
  0020a	83 c6 24	 add	 esi, 36			; 00000024H
  0020d	47		 inc	 edi
  0020e	6a 00		 push	 0
  00210	89 b5 04 f2 ff
	ff		 mov	 DWORD PTR tv1336[ebp], esi
  00216	e8 00 00 00 00	 call	 ?GetNumber@CScanner@@QAEHH@Z ; CScanner::GetNumber
  0021b	8b c8		 mov	 ecx, eax
  0021d	8b 85 44 f2 ff
	ff		 mov	 eax, DWORD PTR _s$[ebp+60]
  00223	80 38 7d	 cmp	 BYTE PTR [eax], 125	; 0000007dH
  00226	75 ac		 jne	 SHORT $LL9@LoadScript
  00228	8b 9d 00 f2 ff
	ff		 mov	 ebx, DWORD PTR _this$GSCopy$1$[ebp]
  0022e	e9 1b 03 00 00	 jmp	 $LN23@LoadScript
$LN80@LoadScript:
; File C:\Program Files\Microsoft Visual Studio\2022\Professional\VC\Tools\MSVC\14.44.35207\atlmfc\include\cstringt.h

; 184  : 		return _mbscmp( reinterpret_cast< const unsigned char* >( pszA ), reinterpret_cast< const unsigned char* >( pszB ) );

  00233	68 00 00 00 00	 push	 OFFSET ??_C@_0L@NIFCIDOF@FeedEnergy@
  00238	ff b5 28 f2 ff
	ff		 push	 DWORD PTR _s$[ebp+32]
  0023e	e8 00 00 00 00	 call	 __mbscmp
  00243	83 c4 08	 add	 esp, 8

; 2490 : 		return(str1.Compare(psz2) == 0);

  00246	85 c0		 test	 eax, eax
; File C:\IAGOS\server\v18\Source\Source\_Common\pet.cpp

; 172  : 		else if( s.Token == _T( "FeedEnergy" ) )

  00248	0f 85 fa 00 00
	00		 jne	 $LN106@LoadScript

; 173  : 		{
; 174  : 			int nIndex	= s.GetNumber();

  0024e	50		 push	 eax
  0024f	8d 8d 08 f2 ff
	ff		 lea	 ecx, DWORD PTR _s$[ebp]
  00255	e8 00 00 00 00	 call	 ?GetNumber@CScanner@@QAEHH@Z ; CScanner::GetNumber

; 175  : 			ASSERT( nIndex >= 0 && nIndex <= 1 );
; 176  : 
; 177  : 			vector<FEEDENERGY>* pArr	= &m_aFeedEnergy[nIndex];

  0025a	83 c0 36	 add	 eax, 54			; 00000036H

; 178  : 			// 	1	575	7	14
; 179  : 			FEEDENERGY	fe;
; 180  : 			s.GetToken();	// {

  0025d	8d 8d 08 f2 ff
	ff		 lea	 ecx, DWORD PTR _s$[ebp]
  00263	6a 00		 push	 0
  00265	8d 04 40	 lea	 eax, DWORD PTR [eax+eax*2]
  00268	8d 34 83	 lea	 esi, DWORD PTR [ebx+eax*4]
  0026b	e8 00 00 00 00	 call	 ?GetToken@CScript@@UAEHH@Z ; CScript::GetToken

; 181  : 			fe.dwCostMin	= s.GetNumber();

  00270	6a 00		 push	 0
  00272	8d 8d 08 f2 ff
	ff		 lea	 ecx, DWORD PTR _s$[ebp]
  00278	e8 00 00 00 00	 call	 ?GetNumber@CScanner@@QAEHH@Z ; CScanner::GetNumber
  0027d	8b f8		 mov	 edi, eax

; 182  : 			while( *s.token != '}' )

  0027f	8b 85 44 f2 ff
	ff		 mov	 eax, DWORD PTR _s$[ebp+60]
  00285	89 bd f4 f1 ff
	ff		 mov	 DWORD PTR _fe$2[ebp], edi
  0028b	80 38 7d	 cmp	 BYTE PTR [eax], 125	; 0000007dH
  0028e	0f 84 ba 02 00
	00		 je	 $LN23@LoadScript
  00294	0f 1f 40 00 0f
	1f 84 00 00 00
	00 00		 npad	 12
$LL14@LoadScript:

; 183  : 			{
; 184  : 				fe.dwCostMax	= s.GetNumber();

  002a0	6a 00		 push	 0
  002a2	8d 8d 08 f2 ff
	ff		 lea	 ecx, DWORD PTR _s$[ebp]
  002a8	e8 00 00 00 00	 call	 ?GetNumber@CScanner@@QAEHH@Z ; CScanner::GetNumber
  002ad	8b d8		 mov	 ebx, eax

; 185  : 				fe.wEnergyMin	= s.GetNumber();

  002af	8d 8d 08 f2 ff
	ff		 lea	 ecx, DWORD PTR _s$[ebp]
  002b5	6a 00		 push	 0
  002b7	89 9d f8 f1 ff
	ff		 mov	 DWORD PTR _fe$2[ebp+4], ebx
  002bd	e8 00 00 00 00	 call	 ?GetNumber@CScanner@@QAEHH@Z ; CScanner::GetNumber
  002c2	0f b7 c0	 movzx	 eax, ax

; 186  : 				fe.wEnergyMax	= s.GetNumber();

  002c5	8d 8d 08 f2 ff
	ff		 lea	 ecx, DWORD PTR _s$[ebp]
  002cb	6a 00		 push	 0
  002cd	89 85 04 f2 ff
	ff		 mov	 DWORD PTR tv1330[ebp], eax
  002d3	66 89 85 fc f1
	ff ff		 mov	 WORD PTR _fe$2[ebp+8], ax
  002da	e8 00 00 00 00	 call	 ?GetNumber@CScanner@@QAEHH@Z ; CScanner::GetNumber
  002df	0f b7 d0	 movzx	 edx, ax
; File C:\Program Files\Microsoft Visual Studio\2022\Professional\VC\Tools\MSVC\14.44.35207\include\vector

; 844  :         if (_Mylast != _My_data._Myend) {

  002e2	8b 46 04	 mov	 eax, DWORD PTR [esi+4]
; File C:\IAGOS\server\v18\Source\Source\_Common\pet.cpp

; 186  : 				fe.wEnergyMax	= s.GetNumber();

  002e5	66 89 95 fe f1
	ff ff		 mov	 WORD PTR _fe$2[ebp+10], dx
; File C:\Program Files\Microsoft Visual Studio\2022\Professional\VC\Tools\MSVC\14.44.35207\include\vector

; 844  :         if (_Mylast != _My_data._Myend) {

  002ec	3b 46 08	 cmp	 eax, DWORD PTR [esi+8]
  002ef	74 19		 je	 SHORT $LN94@LoadScript
; File C:\Program Files\Microsoft Visual Studio\2022\Professional\VC\Tools\MSVC\14.44.35207\include\xutility

; 476  :         ::new (static_cast<void*>(_STD addressof(_Obj))) _Ty(_STD forward<_Types>(_Args)...);

  002f1	89 38		 mov	 DWORD PTR [eax], edi
  002f3	89 58 04	 mov	 DWORD PTR [eax+4], ebx
  002f6	8b 8d 04 f2 ff
	ff		 mov	 ecx, DWORD PTR tv1330[ebp]
  002fc	66 89 48 08	 mov	 WORD PTR [eax+8], cx
  00300	66 89 50 0a	 mov	 WORD PTR [eax+10], dx
; File C:\Program Files\Microsoft Visual Studio\2022\Professional\VC\Tools\MSVC\14.44.35207\include\vector

; 869  :         ++_Mylast;

  00304	83 46 04 0c	 add	 DWORD PTR [esi+4], 12	; 0000000cH

; 845  :             return _Emplace_back_with_unused_capacity(_STD forward<_Valty>(_Val)...);

  00308	eb 0f		 jmp	 SHORT $LN93@LoadScript
$LN94@LoadScript:

; 846  :         }
; 847  : 
; 848  :         return *_Emplace_reallocate(_Mylast, _STD forward<_Valty>(_Val)...);

  0030a	8d 8d f4 f1 ff
	ff		 lea	 ecx, DWORD PTR _fe$2[ebp]
  00310	51		 push	 ecx
  00311	50		 push	 eax
  00312	8b ce		 mov	 ecx, esi
  00314	e8 00 00 00 00	 call	 ??$_Emplace_reallocate@ABU_FEEDENERGY@@@?$vector@U_FEEDENERGY@@V?$allocator@U_FEEDENERGY@@@std@@@std@@AAEPAU_FEEDENERGY@@QAU2@ABU2@@Z ; std::vector<_FEEDENERGY,std::allocator<_FEEDENERGY> >::_Emplace_reallocate<_FEEDENERGY const &>
$LN93@LoadScript:
; File C:\IAGOS\server\v18\Source\Source\_Common\pet.cpp

; 188  : 				fe.dwCostMin	= s.GetNumber();

  00319	6a 00		 push	 0
  0031b	8d 8d 08 f2 ff
	ff		 lea	 ecx, DWORD PTR _s$[ebp]
  00321	e8 00 00 00 00	 call	 ?GetNumber@CScanner@@QAEHH@Z ; CScanner::GetNumber
  00326	8b f8		 mov	 edi, eax
  00328	8b 85 44 f2 ff
	ff		 mov	 eax, DWORD PTR _s$[ebp+60]
  0032e	89 bd f4 f1 ff
	ff		 mov	 DWORD PTR _fe$2[ebp], edi
  00334	80 38 7d	 cmp	 BYTE PTR [eax], 125	; 0000007dH
  00337	0f 85 63 ff ff
	ff		 jne	 $LL14@LoadScript

; 189  : 			}
; 190  : 		}

  0033d	8b 9d 00 f2 ff
	ff		 mov	 ebx, DWORD PTR _this$GSCopy$1$[ebp]
  00343	e9 06 02 00 00	 jmp	 $LN23@LoadScript
$LN106@LoadScript:
; File C:\Program Files\Microsoft Visual Studio\2022\Professional\VC\Tools\MSVC\14.44.35207\atlmfc\include\cstringt.h

; 184  : 		return _mbscmp( reinterpret_cast< const unsigned char* >( pszA ), reinterpret_cast< const unsigned char* >( pszB ) );

  00348	68 00 00 00 00	 push	 OFFSET ??_C@_0N@FDFFOKED@IncrementExp@
  0034d	ff b5 28 f2 ff
	ff		 push	 DWORD PTR _s$[ebp+32]
  00353	e8 00 00 00 00	 call	 __mbscmp
  00358	83 c4 08	 add	 esp, 8

; 2490 : 		return(str1.Compare(psz2) == 0);

  0035b	85 c0		 test	 eax, eax
; File C:\IAGOS\server\v18\Source\Source\_Common\pet.cpp

; 191  : 		else if( s.Token == _T( "IncrementExp" ) )

  0035d	75 55		 jne	 SHORT $LN122@LoadScript

; 192  : 		{
; 193  : 			//	100	// 0.1%	// 100000şĐŔÇ 1 ±âÁŘ
; 194  : 			int	nLevel	= 0;
; 195  : 			s.GetToken();	// {

  0035f	50		 push	 eax
  00360	8d 8d 08 f2 ff
	ff		 lea	 ecx, DWORD PTR _s$[ebp]
  00366	e8 00 00 00 00	 call	 ?GetToken@CScript@@UAEHH@Z ; CScript::GetToken

; 196  : 			DWORD	dwIncrementExp	= s.GetNumber();

  0036b	6a 00		 push	 0
  0036d	8d 8d 08 f2 ff
	ff		 lea	 ecx, DWORD PTR _s$[ebp]
  00373	e8 00 00 00 00	 call	 ?GetNumber@CScanner@@QAEHH@Z ; CScanner::GetNumber
  00378	8b c8		 mov	 ecx, eax

; 197  : 			while( *s.token != '}' )

  0037a	8b 85 44 f2 ff
	ff		 mov	 eax, DWORD PTR _s$[ebp+60]
  00380	80 38 7d	 cmp	 BYTE PTR [eax], 125	; 0000007dH
  00383	0f 84 c5 01 00
	00		 je	 $LN23@LoadScript

; 192  : 		{
; 193  : 			//	100	// 0.1%	// 100000şĐŔÇ 1 ±âÁŘ
; 194  : 			int	nLevel	= 0;
; 195  : 			s.GetToken();	// {

  00389	8d b3 a0 02 00
	00		 lea	 esi, DWORD PTR [ebx+672]
  0038f	90		 npad	 1
$LL16@LoadScript:

; 198  : 			{
; 199  : 				ASSERT( nLevel < PL_S );
; 200  : 				m_adwIncrementExp[nLevel++]	= dwIncrementExp;

  00390	89 0e		 mov	 DWORD PTR [esi], ecx
  00392	8d 76 04	 lea	 esi, DWORD PTR [esi+4]

; 201  : 				dwIncrementExp	= s.GetNumber();

  00395	6a 00		 push	 0
  00397	8d 8d 08 f2 ff
	ff		 lea	 ecx, DWORD PTR _s$[ebp]
  0039d	e8 00 00 00 00	 call	 ?GetNumber@CScanner@@QAEHH@Z ; CScanner::GetNumber
  003a2	8b c8		 mov	 ecx, eax
  003a4	8b 85 44 f2 ff
	ff		 mov	 eax, DWORD PTR _s$[ebp+60]
  003aa	80 38 7d	 cmp	 BYTE PTR [eax], 125	; 0000007dH
  003ad	75 e1		 jne	 SHORT $LL16@LoadScript

; 202  : 			}
; 203  : 		}

  003af	e9 9a 01 00 00	 jmp	 $LN23@LoadScript
$LN122@LoadScript:
; File C:\Program Files\Microsoft Visual Studio\2022\Professional\VC\Tools\MSVC\14.44.35207\atlmfc\include\cstringt.h

; 184  : 		return _mbscmp( reinterpret_cast< const unsigned char* >( pszA ), reinterpret_cast< const unsigned char* >( pszB ) );

  003b4	68 00 00 00 00	 push	 OFFSET ??_C@_09EENALPJP@MaxEnergy@
  003b9	ff b5 28 f2 ff
	ff		 push	 DWORD PTR _s$[ebp+32]
  003bf	e8 00 00 00 00	 call	 __mbscmp
  003c4	83 c4 08	 add	 esp, 8

; 2490 : 		return(str1.Compare(psz2) == 0);

  003c7	85 c0		 test	 eax, eax
; File C:\IAGOS\server\v18\Source\Source\_Common\pet.cpp

; 204  : 		else if( s.Token == _T( "MaxEnergy" ) )

  003c9	75 5a		 jne	 SHORT $LN138@LoadScript

; 205  : 		{
; 206  : 			//	250	// D	// ĂÖ´ë ±â·Â
; 207  : 			int	nLevel	= 0;
; 208  : 			s.GetToken();	// {

  003cb	50		 push	 eax
  003cc	8d 8d 08 f2 ff
	ff		 lea	 ecx, DWORD PTR _s$[ebp]
  003d2	e8 00 00 00 00	 call	 ?GetToken@CScript@@UAEHH@Z ; CScript::GetToken

; 209  : 			DWORD	dwMaxEnergy	= s.GetNumber();

  003d7	6a 00		 push	 0
  003d9	8d 8d 08 f2 ff
	ff		 lea	 ecx, DWORD PTR _s$[ebp]
  003df	e8 00 00 00 00	 call	 ?GetNumber@CScanner@@QAEHH@Z ; CScanner::GetNumber
  003e4	8b c8		 mov	 ecx, eax

; 210  : 			while( *s.token != '}' )

  003e6	8b 85 44 f2 ff
	ff		 mov	 eax, DWORD PTR _s$[ebp+60]
  003ec	80 38 7d	 cmp	 BYTE PTR [eax], 125	; 0000007dH
  003ef	0f 84 59 01 00
	00		 je	 $LN23@LoadScript

; 205  : 		{
; 206  : 			//	250	// D	// ĂÖ´ë ±â·Â
; 207  : 			int	nLevel	= 0;
; 208  : 			s.GetToken();	// {

  003f5	8d b3 b8 02 00
	00		 lea	 esi, DWORD PTR [ebx+696]
  003fb	0f 1f 44 00 00	 npad	 5
$LL18@LoadScript:

; 211  : 			{
; 212  : 				ASSERT( nLevel <= PL_S );
; 213  : 				m_awMaxEnergy[nLevel++]	= (WORD)( dwMaxEnergy );

  00400	66 89 0e	 mov	 WORD PTR [esi], cx
  00403	8d 76 02	 lea	 esi, DWORD PTR [esi+2]

; 214  : 				dwMaxEnergy		= s.GetNumber();

  00406	6a 00		 push	 0
  00408	8d 8d 08 f2 ff
	ff		 lea	 ecx, DWORD PTR _s$[ebp]
  0040e	e8 00 00 00 00	 call	 ?GetNumber@CScanner@@QAEHH@Z ; CScanner::GetNumber
  00413	8b c8		 mov	 ecx, eax
  00415	8b 85 44 f2 ff
	ff		 mov	 eax, DWORD PTR _s$[ebp+60]
  0041b	80 38 7d	 cmp	 BYTE PTR [eax], 125	; 0000007dH
  0041e	75 e0		 jne	 SHORT $LL18@LoadScript

; 215  : 			}
; 216  : 		}

  00420	e9 29 01 00 00	 jmp	 $LN23@LoadScript
$LN138@LoadScript:
; File C:\Program Files\Microsoft Visual Studio\2022\Professional\VC\Tools\MSVC\14.44.35207\atlmfc\include\cstringt.h

; 184  : 		return _mbscmp( reinterpret_cast< const unsigned char* >( pszA ), reinterpret_cast< const unsigned char* >( pszB ) );

  00425	68 00 00 00 00	 push	 OFFSET ??_C@_0BD@NJHGCLHH@AddLifeProbability@
  0042a	ff b5 28 f2 ff
	ff		 push	 DWORD PTR _s$[ebp+32]
  00430	e8 00 00 00 00	 call	 __mbscmp
  00435	83 c4 08	 add	 esp, 8

; 2490 : 		return(str1.Compare(psz2) == 0);

  00438	85 c0		 test	 eax, eax
; File C:\IAGOS\server\v18\Source\Source\_Common\pet.cpp

; 217  : 		else if( s.Token == _T( "AddLifeProbability" ) )

  0043a	0f 85 84 00 00
	00		 jne	 $LN161@LoadScript

; 218  : 		{
; 219  : 			// Ľö¸í Č¸şąľ× Č®·ü	// Ăß°ˇ µÉ °ćżě ÇŐŔĚ 100ŔĚ µÇµµ·Ď Č®Ŕĺ
; 220  : 			// 	50	// +1
; 221  : 			s.GetToken();	// {

  00440	50		 push	 eax
  00441	8d 8d 08 f2 ff
	ff		 lea	 ecx, DWORD PTR _s$[ebp]
  00447	e8 00 00 00 00	 call	 ?GetToken@CScript@@UAEHH@Z ; CScript::GetToken

; 222  : 			WORD wProbability	= s.GetNumber();

  0044c	6a 00		 push	 0
  0044e	8d 8d 08 f2 ff
	ff		 lea	 ecx, DWORD PTR _s$[ebp]
  00454	e8 00 00 00 00	 call	 ?GetNumber@CScanner@@QAEHH@Z ; CScanner::GetNumber
  00459	0f b7 c8	 movzx	 ecx, ax

; 223  : 			while( *s.token != '}' )

  0045c	8b 85 44 f2 ff
	ff		 mov	 eax, DWORD PTR _s$[ebp+60]
  00462	89 8d 04 f2 ff
	ff		 mov	 DWORD PTR _wProbability$4[ebp], ecx
  00468	80 38 7d	 cmp	 BYTE PTR [eax], 125	; 0000007dH
  0046b	0f 84 dd 00 00
	00		 je	 $LN23@LoadScript
$LL20@LoadScript:
; File C:\Program Files\Microsoft Visual Studio\2022\Professional\VC\Tools\MSVC\14.44.35207\include\vector

; 844  :         if (_Mylast != _My_data._Myend) {

  00471	8b 83 c8 02 00
	00		 mov	 eax, DWORD PTR [ebx+712]
  00477	3b 83 cc 02 00
	00		 cmp	 eax, DWORD PTR [ebx+716]
  0047d	74 0c		 je	 SHORT $LN152@LoadScript

; 860  :             _STD _Construct_in_place(*_Mylast, _STD forward<_Valty>(_Val)...);

  0047f	66 89 08	 mov	 WORD PTR [eax], cx

; 869  :         ++_Mylast;

  00482	83 83 c8 02 00
	00 02		 add	 DWORD PTR [ebx+712], 2

; 845  :             return _Emplace_back_with_unused_capacity(_STD forward<_Valty>(_Val)...);

  00489	eb 13		 jmp	 SHORT $LN151@LoadScript
$LN152@LoadScript:

; 846  :         }
; 847  : 
; 848  :         return *_Emplace_reallocate(_Mylast, _STD forward<_Valty>(_Val)...);

  0048b	8d 8d 04 f2 ff
	ff		 lea	 ecx, DWORD PTR _wProbability$4[ebp]
  00491	51		 push	 ecx
  00492	50		 push	 eax
  00493	8d 8b c4 02 00
	00		 lea	 ecx, DWORD PTR [ebx+708]
  00499	e8 00 00 00 00	 call	 ??$_Emplace_reallocate@ABG@?$vector@GV?$allocator@G@std@@@std@@AAEPAGQAGABG@Z ; std::vector<unsigned short,std::allocator<unsigned short> >::_Emplace_reallocate<unsigned short const &>
$LN151@LoadScript:
; File C:\IAGOS\server\v18\Source\Source\_Common\pet.cpp

; 226  : 				wProbability	= s.GetNumber();

  0049e	6a 00		 push	 0
  004a0	8d 8d 08 f2 ff
	ff		 lea	 ecx, DWORD PTR _s$[ebp]
  004a6	e8 00 00 00 00	 call	 ?GetNumber@CScanner@@QAEHH@Z ; CScanner::GetNumber
  004ab	0f b7 c8	 movzx	 ecx, ax
  004ae	8b 85 44 f2 ff
	ff		 mov	 eax, DWORD PTR _s$[ebp+60]
  004b4	89 8d 04 f2 ff
	ff		 mov	 DWORD PTR _wProbability$4[ebp], ecx
  004ba	80 38 7d	 cmp	 BYTE PTR [eax], 125	; 0000007dH
  004bd	75 b2		 jne	 SHORT $LL20@LoadScript

; 227  : 			}
; 228  : 		}

  004bf	e9 8a 00 00 00	 jmp	 $LN23@LoadScript
$LN161@LoadScript:
; File C:\Program Files\Microsoft Visual Studio\2022\Professional\VC\Tools\MSVC\14.44.35207\atlmfc\include\cstringt.h

; 184  : 		return _mbscmp( reinterpret_cast< const unsigned char* >( pszA ), reinterpret_cast< const unsigned char* >( pszB ) );

  004c4	68 00 00 00 00	 push	 OFFSET ??_C@_07FMCMMKEN@Penalty@
  004c9	ff b5 28 f2 ff
	ff		 push	 DWORD PTR _s$[ebp+32]
  004cf	e8 00 00 00 00	 call	 __mbscmp
  004d4	83 c4 08	 add	 esp, 8

; 2490 : 		return(str1.Compare(psz2) == 0);

  004d7	85 c0		 test	 eax, eax
; File C:\IAGOS\server\v18\Source\Source\_Common\pet.cpp

; 229  : 		else if( s.Token == _T( "Penalty" ) )

  004d9	75 73		 jne	 SHORT $LN23@LoadScript

; 230  : 		{
; 231  : 			// Pet ĽŇČŻ ČÄ ÇŘÁ¦ ˝Ă D~A·ąş§żˇĽ± °ćÇčÄˇ¸¦ ŔŇ°Ô µÇ¸ç,
; 232  : 			// ĂÖĽŇ 0%żˇĽ­´Â ´ő ŔĚ»ó °¨ĽŇÇĎÁö ľĘ´Â´Ů. 
; 233  : 			// S·ąş§żˇĽ± HP°ˇ °¨ĽŇÇĎ¸ç, ĂÖĽŇ 5P ŔĚÇĎ·Î´Â ´ő ŔĚ»ó °¨ĽŇÇĎÁö ľĘ´Â´Ů. 
; 234  : 			s.GetToken();	// {

  004db	50		 push	 eax
  004dc	8d 8d 08 f2 ff
	ff		 lea	 ecx, DWORD PTR _s$[ebp]
  004e2	e8 00 00 00 00	 call	 ?GetToken@CScript@@UAEHH@Z ; CScript::GetToken

; 235  : 			FLOAT fExp	= s.GetFloat();

  004e7	6a 00		 push	 0
  004e9	8d 8d 08 f2 ff
	ff		 lea	 ecx, DWORD PTR _s$[ebp]
  004ef	e8 00 00 00 00	 call	 ?GetFloat@CScanner@@QAEMH@Z ; CScanner::GetFloat

; 236  : 			int nLevel	= PL_D;
; 237  : 			while( *s.token != '}' )

  004f4	8b 85 44 f2 ff
	ff		 mov	 eax, DWORD PTR _s$[ebp+60]
  004fa	d9 9d 04 f2 ff
	ff		 fstp	 DWORD PTR _fExp$3[ebp]
  00500	80 38 7d	 cmp	 BYTE PTR [eax], 125	; 0000007dH
  00503	74 49		 je	 SHORT $LN23@LoadScript

; 230  : 		{
; 231  : 			// Pet ĽŇČŻ ČÄ ÇŘÁ¦ ˝Ă D~A·ąş§żˇĽ± °ćÇčÄˇ¸¦ ŔŇ°Ô µÇ¸ç,
; 232  : 			// ĂÖĽŇ 0%żˇĽ­´Â ´ő ŔĚ»ó °¨ĽŇÇĎÁö ľĘ´Â´Ů. 
; 233  : 			// S·ąş§żˇĽ± HP°ˇ °¨ĽŇÇĎ¸ç, ĂÖĽŇ 5P ŔĚÇĎ·Î´Â ´ő ŔĚ»ó °¨ĽŇÇĎÁö ľĘ´Â´Ů. 
; 234  : 			s.GetToken();	// {

  00505	8d b3 dc 02 00
	00		 lea	 esi, DWORD PTR [ebx+732]
  0050b	0f 1f 44 00 00	 npad	 5
$LL22@LoadScript:

; 238  : 			{
; 239  : 				m_aPenalty[nLevel].fExp		= fExp;

  00510	f3 0f 10 85 04
	f2 ff ff	 movss	 xmm0, DWORD PTR _fExp$3[ebp]

; 240  : 				m_aPenalty[nLevel].wEnergy	= (WORD)s.GetNumber();

  00518	8d 8d 08 f2 ff
	ff		 lea	 ecx, DWORD PTR _s$[ebp]
  0051e	6a 00		 push	 0
  00520	f3 0f 11 46 fc	 movss	 DWORD PTR [esi-4], xmm0
  00525	e8 00 00 00 00	 call	 ?GetNumber@CScanner@@QAEHH@Z ; CScanner::GetNumber
  0052a	66 89 06	 mov	 WORD PTR [esi], ax

; 241  : 				nLevel++;
; 242  : 				fExp	= s.GetFloat();

  0052d	8d 8d 08 f2 ff
	ff		 lea	 ecx, DWORD PTR _s$[ebp]
  00533	6a 00		 push	 0
  00535	8d 76 08	 lea	 esi, DWORD PTR [esi+8]
  00538	e8 00 00 00 00	 call	 ?GetFloat@CScanner@@QAEMH@Z ; CScanner::GetFloat
  0053d	8b 85 44 f2 ff
	ff		 mov	 eax, DWORD PTR _s$[ebp+60]
  00543	d9 9d 04 f2 ff
	ff		 fstp	 DWORD PTR _fExp$3[ebp]
  00549	80 38 7d	 cmp	 BYTE PTR [eax], 125	; 0000007dH
  0054c	75 c2		 jne	 SHORT $LL22@LoadScript
$LN23@LoadScript:

; 243  : 			}
; 244  : 		}
; 245  : 		s.GetToken();

  0054e	6a 00		 push	 0
  00550	8d 8d 08 f2 ff
	ff		 lea	 ecx, DWORD PTR _s$[ebp]
  00556	e8 00 00 00 00	 call	 ?GetToken@CScript@@UAEHH@Z ; CScript::GetToken
  0055b	83 bd 4c fa ff
	ff 15		 cmp	 DWORD PTR _s$[ebp+2116], 21 ; 00000015H
  00562	0f 85 28 fb ff
	ff		 jne	 $LL2@LoadScript
$LN3@LoadScript:

; 246  : 	}
; 247  : 
; 248  : /*
; 249  : #ifdef _DEBUG
; 250  : 	TRACE( "GetAvailParam\n" );
; 251  : 	for( int i = 0; i < PK_MAX; i++ )
; 252  : 	{
; 253  : 		PPETAVAILPARAM pPetAvailParam	= GetAvailParam( i );
; 254  : 		TRACE( "dwDstParam=%d, nBase=%d, nParam=%d\n", pPetAvailParam->dwDstParam, pPetAvailParam->nBase, pPetAvailParam->nParam );
; 255  : 	}
; 256  : 	TRACE( "GetLevelupAvailLevel\n" );
; 257  : 	// 0Ŕş ¸đµÎ 0ŔĚľîľß ÇŃ´Ů.
; 258  : 	for( i = PL_EGG; i < PL_MAX; i++ )
; 259  : 	{
; 260  : 		for( int j = 0; j < 100; j++ )
; 261  : 		{
; 262  : 			BYTE nAvailLevel	= GetLevelupAvailLevel( i );
; 263  : 			TRACE( "PetLevel=%d, AvailLevel=%d\n", i, nAvailLevel );
; 264  : 		}
; 265  : 	}
; 266  : 
; 267  : 	TRACE( "\nGetFeedEnergy\n" );
; 268  : 	for( i = 1; i <= 100; i++ )
; 269  : 	{
; 270  : 		DWORD dwCost	= i * 120;
; 271  : 		WORD wEnergy	= GetFeedEnergy( dwCost );
; 272  : 		TRACE( "dwCost=%d, wEnergy=%d\n", dwCost, wEnergy );
; 273  : 	}
; 274  : 	TRACE( "\nGetIncrementExp\n" );
; 275  : 	for( i = PL_D; i < PL_MAX; i++ )
; 276  : 		TRACE( "nLevel=%d, IncrementExp=%d\n", i, GetIncrementExp( (PETLEVEL)i ) );
; 277  : 
; 278  : 	TRACE( "\nGetMaxEnergy\n" );
; 279  : 	for( i = PL_D; i < PL_MAX; i++ )
; 280  : 		TRACE( "nLevel=%d, MaxEnergy=%d\n", i, GetMaxEnergy( (PETLEVEL)i ) );
; 281  : 
; 282  : 	TRACE( "\nGetAddLife\n" );
; 283  : 	for( i = 0; i < 100; i++ )
; 284  : 	{
; 285  : 		TRACE( "AddLife=%d\n", GetAddLife() );
; 286  : 	}
; 287  : #endif	// _DEBUG
; 288  : */
; 289  : 	return TRUE;

  00568	be 01 00 00 00	 mov	 esi, 1
$LN41@LoadScript:
  0056d	8d 8d 08 f2 ff
	ff		 lea	 ecx, DWORD PTR _s$[ebp]
  00573	e8 00 00 00 00	 call	 ??1CScript@@UAE@XZ	; CScript::~CScript
  00578	8b c6		 mov	 eax, esi

; 290  : }

  0057a	8b 4d f4	 mov	 ecx, DWORD PTR __$EHRec$[ebp]
  0057d	64 89 0d 00 00
	00 00		 mov	 DWORD PTR fs:0, ecx
  00584	59		 pop	 ecx
  00585	5f		 pop	 edi
  00586	5e		 pop	 esi
  00587	5b		 pop	 ebx
  00588	8b 4d f0	 mov	 ecx, DWORD PTR __$ArrayPad$[ebp]
  0058b	33 cd		 xor	 ecx, ebp
  0058d	e8 00 00 00 00	 call	 @__security_check_cookie@4
  00592	8b e5		 mov	 esp, ebp
  00594	5d		 pop	 ebp
  00595	c2 04 00	 ret	 4
_TEXT	ENDS
;	COMDAT text$x
text$x	SEGMENT
__unwindfunclet$?LoadScript@CPetProperty@@QAEHPBD@Z$0:
  00000	8d 8d 08 f2 ff
	ff		 lea	 ecx, DWORD PTR _s$[ebp]
  00006	e9 00 00 00 00	 jmp	 ??1CScript@@UAE@XZ	; CScript::~CScript
  0000b	cc		 int	 3
  0000c	cc		 int	 3
  0000d	cc		 int	 3
  0000e	cc		 int	 3
  0000f	cc		 int	 3
__ehhandler$?LoadScript@CPetProperty@@QAEHPBD@Z:
  00010	90		 npad	 1
  00011	90		 npad	 1
  00012	8b 54 24 08	 mov	 edx, DWORD PTR [esp+8]
  00016	8d 42 0c	 lea	 eax, DWORD PTR [edx+12]
  00019	8b 8a f0 f1 ff
	ff		 mov	 ecx, DWORD PTR [edx-3600]
  0001f	33 c8		 xor	 ecx, eax
  00021	e8 00 00 00 00	 call	 @__security_check_cookie@4
  00026	8b 4a fc	 mov	 ecx, DWORD PTR [edx-4]
  00029	33 c8		 xor	 ecx, eax
  0002b	e8 00 00 00 00	 call	 @__security_check_cookie@4
  00030	b8 00 00 00 00	 mov	 eax, OFFSET __ehfuncinfo$?LoadScript@CPetProperty@@QAEHPBD@Z
  00035	e9 00 00 00 00	 jmp	 ___CxxFrameHandler3
text$x	ENDS
?LoadScript@CPetProperty@@QAEHPBD@Z ENDP		; CPetProperty::LoadScript
; Function compile flags: /Ogtp
; File C:\IAGOS\server\v18\Source\Source\_Common\pet.cpp
;	COMDAT ?GetInstance@CPetProperty@@SAPAV1@XZ
_TEXT	SEGMENT
__$EHRec$ = -12						; size = 12
?GetInstance@CPetProperty@@SAPAV1@XZ PROC		; CPetProperty::GetInstance, COMDAT

; 119  : {

  00000	55		 push	 ebp
  00001	8b ec		 mov	 ebp, esp
  00003	6a ff		 push	 -1
  00005	68 00 00 00 00	 push	 __ehhandler$?GetInstance@CPetProperty@@SAPAV1@XZ
  0000a	64 a1 00 00 00
	00		 mov	 eax, DWORD PTR fs:0
  00010	50		 push	 eax
  00011	a1 00 00 00 00	 mov	 eax, DWORD PTR ___security_cookie
  00016	33 c5		 xor	 eax, ebp
  00018	50		 push	 eax
  00019	8d 45 f4	 lea	 eax, DWORD PTR __$EHRec$[ebp]
  0001c	64 a3 00 00 00
	00		 mov	 DWORD PTR fs:0, eax

; 120  : 	static	CPetProperty	sPetProperty;

  00022	64 a1 00 00 00
	00		 mov	 eax, DWORD PTR fs:__tls_array
  00028	8b 0d 00 00 00
	00		 mov	 ecx, DWORD PTR __tls_index
  0002e	8b 0c 88	 mov	 ecx, DWORD PTR [eax+ecx*4]
  00031	a1 00 00 00 00	 mov	 eax, DWORD PTR ?$TSS0@?1??GetInstance@CPetProperty@@SAPAV2@XZ@4HA
  00036	3b 81 00 00 00
	00		 cmp	 eax, DWORD PTR __Init_thread_epoch[ecx]
  0003c	7f 14		 jg	 SHORT $LN9@GetInstanc
$LN5@GetInstanc:

; 121  : 	return &sPetProperty;
; 122  : }

  0003e	b8 00 00 00 00	 mov	 eax, OFFSET ?sPetProperty@?1??GetInstance@CPetProperty@@SAPAV2@XZ@4V2@A
  00043	8b 4d f4	 mov	 ecx, DWORD PTR __$EHRec$[ebp]
  00046	64 89 0d 00 00
	00 00		 mov	 DWORD PTR fs:0, ecx
  0004d	59		 pop	 ecx
  0004e	8b e5		 mov	 esp, ebp
  00050	5d		 pop	 ebp
  00051	c3		 ret	 0
$LN9@GetInstanc:

; 120  : 	static	CPetProperty	sPetProperty;

  00052	68 00 00 00 00	 push	 OFFSET ?$TSS0@?1??GetInstance@CPetProperty@@SAPAV2@XZ@4HA
  00057	e8 00 00 00 00	 call	 __Init_thread_header
  0005c	83 c4 04	 add	 esp, 4
  0005f	83 3d 00 00 00
	00 ff		 cmp	 DWORD PTR ?$TSS0@?1??GetInstance@CPetProperty@@SAPAV2@XZ@4HA, -1
  00066	75 d6		 jne	 SHORT $LN5@GetInstanc
  00068	b9 00 00 00 00	 mov	 ecx, OFFSET ?sPetProperty@?1??GetInstance@CPetProperty@@SAPAV2@XZ@4V2@A
  0006d	c7 45 fc 00 00
	00 00		 mov	 DWORD PTR __$EHRec$[ebp+8], 0
  00074	e8 00 00 00 00	 call	 ??0CPetProperty@@QAE@XZ	; CPetProperty::CPetProperty
  00079	68 00 00 00 00	 push	 OFFSET ??__FsPetProperty@?1??GetInstance@CPetProperty@@SAPAV1@XZ@YAXXZ ; `CPetProperty::GetInstance'::`2'::`dynamic atexit destructor for 'sPetProperty''
  0007e	e8 00 00 00 00	 call	 _atexit
  00083	68 00 00 00 00	 push	 OFFSET ?$TSS0@?1??GetInstance@CPetProperty@@SAPAV2@XZ@4HA
  00088	e8 00 00 00 00	 call	 __Init_thread_footer
  0008d	83 c4 08	 add	 esp, 8
  00090	eb ac		 jmp	 SHORT $LN5@GetInstanc
_TEXT	ENDS
;	COMDAT text$x
text$x	SEGMENT
__unwindfunclet$?GetInstance@CPetProperty@@SAPAV1@XZ$0:
  00000	68 00 00 00 00	 push	 OFFSET ?$TSS0@?1??GetInstance@CPetProperty@@SAPAV2@XZ@4HA
  00005	e8 00 00 00 00	 call	 __Init_thread_abort
  0000a	59		 pop	 ecx
  0000b	c3		 ret	 0
  0000c	cc		 int	 3
  0000d	cc		 int	 3
  0000e	cc		 int	 3
  0000f	cc		 int	 3
  00010	cc		 int	 3
__ehhandler$?GetInstance@CPetProperty@@SAPAV1@XZ:
  00011	90		 npad	 1
  00012	90		 npad	 1
  00013	8b 54 24 08	 mov	 edx, DWORD PTR [esp+8]
  00017	8d 42 0c	 lea	 eax, DWORD PTR [edx+12]
  0001a	8b 4a fc	 mov	 ecx, DWORD PTR [edx-4]
  0001d	33 c8		 xor	 ecx, eax
  0001f	e8 00 00 00 00	 call	 @__security_check_cookie@4
  00024	b8 00 00 00 00	 mov	 eax, OFFSET __ehfuncinfo$?GetInstance@CPetProperty@@SAPAV1@XZ
  00029	e9 00 00 00 00	 jmp	 ___CxxFrameHandler3
text$x	ENDS
?GetInstance@CPetProperty@@SAPAV1@XZ ENDP		; CPetProperty::GetInstance
; Function compile flags: /Ogtp
; File C:\IAGOS\server\v18\Source\Source\_Common\pet.cpp
; File C:\Program Files\Microsoft Visual Studio\2022\Professional\VC\Tools\MSVC\14.44.35207\include\vector
; File C:\IAGOS\server\v18\Source\Source\_Common\pet.cpp
; File C:\Program Files\Microsoft Visual Studio\2022\Professional\VC\Tools\MSVC\14.44.35207\include\vector
; File C:\IAGOS\server\v18\Source\Source\_Common\pet.cpp
; File C:\Program Files\Microsoft Visual Studio\2022\Professional\VC\Tools\MSVC\14.44.35207\include\vector
; File C:\IAGOS\server\v18\Source\Source\_Common\pet.cpp
; File C:\Program Files\Microsoft Visual Studio\2022\Professional\VC\Tools\MSVC\14.44.35207\include\vector
; File C:\IAGOS\server\v18\Source\Source\_Common\pet.cpp
;	COMDAT ?GetAddLife@CPetProperty@@QAEGXZ
_TEXT	SEGMENT
?GetAddLife@CPetProperty@@QAEGXZ PROC			; CPetProperty::GetAddLife, COMDAT
; _this$ = ecx

; 106  : {

  00000	53		 push	 ebx
  00001	56		 push	 esi
  00002	57		 push	 edi

; 108  : 	DWORD dwRandom	= xRandom( 1, 101 );	// 1 ~ 100

  00003	6a 65		 push	 101			; 00000065H
  00005	6a 01		 push	 1
  00007	8b f1		 mov	 esi, ecx
  00009	33 ff		 xor	 edi, edi
  0000b	e8 00 00 00 00	 call	 ?xRandom@@YAKKK@Z	; xRandom
; File C:\Program Files\Microsoft Visual Studio\2022\Professional\VC\Tools\MSVC\14.44.35207\include\vector

; 1915 :         return static_cast<size_type>(_My_data._Mylast - _My_data._Myfirst);

  00010	8b 8e c4 02 00
	00		 mov	 ecx, DWORD PTR [esi+708]
; File C:\IAGOS\server\v18\Source\Source\_Common\pet.cpp

; 108  : 	DWORD dwRandom	= xRandom( 1, 101 );	// 1 ~ 100

  00016	83 c4 08	 add	 esp, 8
; File C:\Program Files\Microsoft Visual Studio\2022\Professional\VC\Tools\MSVC\14.44.35207\include\vector

; 1915 :         return static_cast<size_type>(_My_data._Mylast - _My_data._Myfirst);

  00019	8b b6 c8 02 00
	00		 mov	 esi, DWORD PTR [esi+712]
; File C:\IAGOS\server\v18\Source\Source\_Common\pet.cpp

; 109  : 	for( DWORD i = 0; i < m_awAddLifeProbability.size(); i++ )

  0001f	33 d2		 xor	 edx, edx
; File C:\Program Files\Microsoft Visual Studio\2022\Professional\VC\Tools\MSVC\14.44.35207\include\vector

; 1915 :         return static_cast<size_type>(_My_data._Mylast - _My_data._Myfirst);

  00021	2b f1		 sub	 esi, ecx
; File C:\IAGOS\server\v18\Source\Source\_Common\pet.cpp

; 108  : 	DWORD dwRandom	= xRandom( 1, 101 );	// 1 ~ 100

  00023	8b d8		 mov	 ebx, eax
; File C:\Program Files\Microsoft Visual Studio\2022\Professional\VC\Tools\MSVC\14.44.35207\include\vector

; 1915 :         return static_cast<size_type>(_My_data._Mylast - _My_data._Myfirst);

  00025	d1 fe		 sar	 esi, 1
; File C:\IAGOS\server\v18\Source\Source\_Common\pet.cpp

; 109  : 	for( DWORD i = 0; i < m_awAddLifeProbability.size(); i++ )

  00027	74 18		 je	 SHORT $LN3@GetAddLife
  00029	0f 1f 80 00 00
	00 00		 npad	 7
$LL4@GetAddLife:

; 110  : 	{
; 111  : 		dwTotal	+= m_awAddLifeProbability[i];

  00030	0f b7 01	 movzx	 eax, WORD PTR [ecx]
  00033	03 f8		 add	 edi, eax

; 112  : 		if( dwTotal >= dwRandom )

  00035	3b fb		 cmp	 edi, ebx
  00037	73 11		 jae	 SHORT $LN14@GetAddLife

; 109  : 	for( DWORD i = 0; i < m_awAddLifeProbability.size(); i++ )

  00039	42		 inc	 edx
  0003a	83 c1 02	 add	 ecx, 2
  0003d	3b d6		 cmp	 edx, esi
  0003f	72 ef		 jb	 SHORT $LL4@GetAddLife
$LN3@GetAddLife:
  00041	5f		 pop	 edi

; 113  : 			return	( (WORD)( i + 1 ) );
; 114  : 	}
; 115  : 	return 1;
; 116  : }

  00042	5e		 pop	 esi
  00043	b8 01 00 00 00	 mov	 eax, 1
  00048	5b		 pop	 ebx
  00049	c3		 ret	 0
$LN14@GetAddLife:
  0004a	5f		 pop	 edi
  0004b	5e		 pop	 esi
  0004c	8d 42 01	 lea	 eax, DWORD PTR [edx+1]
  0004f	5b		 pop	 ebx
  00050	c3		 ret	 0
?GetAddLife@CPetProperty@@QAEGXZ ENDP			; CPetProperty::GetAddLife
_TEXT	ENDS
; Function compile flags: /Ogtp
; File C:\IAGOS\server\v18\Source\Source\_Common\pet.cpp
;	COMDAT ?GetMaxEnergy@CPetProperty@@QAEGE@Z
_TEXT	SEGMENT
_nLevel$ = 8						; size = 1
?GetMaxEnergy@CPetProperty@@QAEGE@Z PROC		; CPetProperty::GetMaxEnergy, COMDAT
; _this$ = ecx

; 99   : {

  00000	55		 push	 ebp
  00001	8b ec		 mov	 ebp, esp

; 100  : 	if( nLevel >= PL_D && nLevel <= PL_S )

  00003	8a 55 08	 mov	 dl, BYTE PTR _nLevel$[ebp]
  00006	8d 42 ff	 lea	 eax, DWORD PTR [edx-1]
  00009	3c 04		 cmp	 al, 4
  0000b	77 0f		 ja	 SHORT $LN2@GetMaxEner

; 101  : 		return m_awMaxEnergy[nLevel-1];

  0000d	0f b6 c2	 movzx	 eax, dl
  00010	66 8b 84 41 b6
	02 00 00	 mov	 ax, WORD PTR [ecx+eax*2+694]

; 103  : }

  00018	5d		 pop	 ebp
  00019	c2 04 00	 ret	 4
$LN2@GetMaxEner:

; 102  : 	return 1;	// 0 łŞ´©±â ąćÁö

  0001c	b8 01 00 00 00	 mov	 eax, 1

; 103  : }

  00021	5d		 pop	 ebp
  00022	c2 04 00	 ret	 4
?GetMaxEnergy@CPetProperty@@QAEGE@Z ENDP		; CPetProperty::GetMaxEnergy
_TEXT	ENDS
; Function compile flags: /Ogtp
; File C:\IAGOS\server\v18\Source\Source\_Common\pet.cpp
;	COMDAT ?GetIncrementExp@CPetProperty@@QAEKE@Z
_TEXT	SEGMENT
_nLevel$ = 8						; size = 1
?GetIncrementExp@CPetProperty@@QAEKE@Z PROC		; CPetProperty::GetIncrementExp, COMDAT
; _this$ = ecx

; 92   : {

  00000	55		 push	 ebp
  00001	8b ec		 mov	 ebp, esp

; 93   : 	if( nLevel >= PL_D && nLevel <= PL_A )

  00003	8a 55 08	 mov	 dl, BYTE PTR _nLevel$[ebp]
  00006	8d 42 ff	 lea	 eax, DWORD PTR [edx-1]
  00009	3c 03		 cmp	 al, 3
  0000b	77 0e		 ja	 SHORT $LN2@GetIncreme

; 94   : 		return m_adwIncrementExp[nLevel-1];

  0000d	0f b6 c2	 movzx	 eax, dl
  00010	8b 84 81 9c 02
	00 00		 mov	 eax, DWORD PTR [ecx+eax*4+668]

; 96   : }

  00017	5d		 pop	 ebp
  00018	c2 04 00	 ret	 4
$LN2@GetIncreme:

; 95   : 	return 0;

  0001b	33 c0		 xor	 eax, eax

; 96   : }

  0001d	5d		 pop	 ebp
  0001e	c2 04 00	 ret	 4
?GetIncrementExp@CPetProperty@@QAEKE@Z ENDP		; CPetProperty::GetIncrementExp
_TEXT	ENDS
; Function compile flags: /Ogtp
; File C:\IAGOS\server\v18\Source\Source\_Common\pet.cpp
; File C:\Program Files\Microsoft Visual Studio\2022\Professional\VC\Tools\MSVC\14.44.35207\include\vector
; File C:\IAGOS\server\v18\Source\Source\_Common\pet.cpp
; File C:\Program Files\Microsoft Visual Studio\2022\Professional\VC\Tools\MSVC\14.44.35207\include\vector
; File C:\IAGOS\server\v18\Source\Source\_Common\pet.cpp
; File C:\Program Files\Microsoft Visual Studio\2022\Professional\VC\Tools\MSVC\14.44.35207\include\vector
; File C:\IAGOS\server\v18\Source\Source\_Common\pet.cpp
;	COMDAT ?GetFeedEnergy@CPetProperty@@QAEGKH@Z
_TEXT	SEGMENT
_dwCost$ = 8						; size = 4
_nIndex$ = 12						; size = 4
?GetFeedEnergy@CPetProperty@@QAEGKH@Z PROC		; CPetProperty::GetFeedEnergy, COMDAT
; _this$ = ecx

; 65   : {

  00000	55		 push	 ebp
  00001	8b ec		 mov	 ebp, esp

; 66   : 	if( nIndex < 0 || nIndex > 1 )

  00003	8b 45 0c	 mov	 eax, DWORD PTR _nIndex$[ebp]
  00006	83 f8 01	 cmp	 eax, 1
  00009	77 29		 ja	 SHORT $LN6@GetFeedEne

; 69   : 	vector<FEEDENERGY>* pArr	= &m_aFeedEnergy[nIndex];

  0000b	8d 04 40	 lea	 eax, DWORD PTR [eax+eax*2]
  0000e	8d 80 a2 00 00
	00		 lea	 eax, DWORD PTR [eax+162]
; File C:\Program Files\Microsoft Visual Studio\2022\Professional\VC\Tools\MSVC\14.44.35207\include\vector

; 46   :     _CONSTEXPR20 _Vector_const_iterator(_Tptr _Parg, const _Container_base* _Pvector) noexcept : _Ptr(_Parg) {

  00014	8b 54 81 04	 mov	 edx, DWORD PTR [ecx+eax*4+4]
; File C:\IAGOS\server\v18\Source\Source\_Common\pet.cpp

; 69   : 	vector<FEEDENERGY>* pArr	= &m_aFeedEnergy[nIndex];

  00018	8d 0c 81	 lea	 ecx, DWORD PTR [ecx+eax*4]
; File C:\Program Files\Microsoft Visual Studio\2022\Professional\VC\Tools\MSVC\14.44.35207\include\vector

; 46   :     _CONSTEXPR20 _Vector_const_iterator(_Tptr _Parg, const _Container_base* _Pvector) noexcept : _Ptr(_Parg) {

  0001b	8b 01		 mov	 eax, DWORD PTR [ecx]

; 176  :         return !(*this == _Right);

  0001d	3b c2		 cmp	 eax, edx
; File C:\IAGOS\server\v18\Source\Source\_Common\pet.cpp

; 70   : 	for( vector<FEEDENERGY>::iterator i = pArr->begin(); i != pArr->end(); ++i )

  0001f	74 13		 je	 SHORT $LN6@GetFeedEne
  00021	8b 4d 08	 mov	 ecx, DWORD PTR _dwCost$[ebp]
$LL4@GetFeedEne:

; 71   : 	{
; 72   : 		if( dwCost >= i->dwCostMin && dwCost <= i->dwCostMax )

  00024	3b 08		 cmp	 ecx, DWORD PTR [eax]
  00026	72 05		 jb	 SHORT $LN2@GetFeedEne
  00028	3b 48 04	 cmp	 ecx, DWORD PTR [eax+4]
  0002b	76 0d		 jbe	 SHORT $LN40@GetFeedEne
$LN2@GetFeedEne:
; File C:\Program Files\Microsoft Visual Studio\2022\Professional\VC\Tools\MSVC\14.44.35207\include\vector

; 82   :         ++_Ptr;

  0002d	83 c0 0c	 add	 eax, 12			; 0000000cH

; 176  :         return !(*this == _Right);

  00030	3b c2		 cmp	 eax, edx
; File C:\IAGOS\server\v18\Source\Source\_Common\pet.cpp

; 70   : 	for( vector<FEEDENERGY>::iterator i = pArr->begin(); i != pArr->end(); ++i )

  00032	75 f0		 jne	 SHORT $LL4@GetFeedEne
$LN6@GetFeedEne:

; 67   : 		return 0;

  00034	33 c0		 xor	 eax, eax

; 74   : 	}
; 75   : 	return 0;
; 76   : }

  00036	5d		 pop	 ebp
  00037	c2 08 00	 ret	 8
$LN40@GetFeedEne:

; 73   : 			return (WORD)xRandom( i->wEnergyMin, i->wEnergyMax + 1 );	// wEnergyMin ~ wEnergyMax

  0003a	0f b7 48 0a	 movzx	 ecx, WORD PTR [eax+10]
  0003e	0f b7 40 08	 movzx	 eax, WORD PTR [eax+8]
  00042	41		 inc	 ecx
  00043	51		 push	 ecx
  00044	50		 push	 eax
  00045	e8 00 00 00 00	 call	 ?xRandom@@YAKKK@Z	; xRandom
  0004a	83 c4 08	 add	 esp, 8

; 74   : 	}
; 75   : 	return 0;
; 76   : }

  0004d	5d		 pop	 ebp
  0004e	c2 08 00	 ret	 8
?GetFeedEnergy@CPetProperty@@QAEGKH@Z ENDP		; CPetProperty::GetFeedEnergy
_TEXT	ENDS
; Function compile flags: /Ogtp
; File C:\IAGOS\server\v18\Source\Source\_Common\pet.cpp
;	COMDAT ?GetLevelupAvailLevel@CPetProperty@@QAEEE@Z
_TEXT	SEGMENT
_wLevel$ = 8						; size = 1
$T1 = 8							; size = 4
?GetLevelupAvailLevel@CPetProperty@@QAEEE@Z PROC	; CPetProperty::GetLevelupAvailLevel, COMDAT
; _this$ = ecx

; 52   : {

  00000	55		 push	 ebp
  00001	8b ec		 mov	 ebp, esp
  00003	53		 push	 ebx
  00004	56		 push	 esi
  00005	57		 push	 edi

; 53   : 	DWORD dwTotal	= 0;
; 54   : 	DWORD dwRandom	= xRandom( 1, 10001 );	// 1 ~ 10000

  00006	68 11 27 00 00	 push	 10001			; 00002711H
  0000b	6a 01		 push	 1
  0000d	8b f1		 mov	 esi, ecx
  0000f	33 ff		 xor	 edi, edi
  00011	e8 00 00 00 00	 call	 ?xRandom@@YAKKK@Z	; xRandom

; 55   : 	for( int i = 0; i <= m_anLevelupAvailLevelMax[wLevel]; i++ )

  00016	0f b6 55 08	 movzx	 edx, BYTE PTR _wLevel$[ebp]
  0001a	8b d8		 mov	 ebx, eax
  0001c	83 c4 08	 add	 esp, 8
  0001f	33 c0		 xor	 eax, eax
  00021	0f b6 8c 32 a8
	01 00 00	 movzx	 ecx, BYTE PTR [edx+esi+424]
  00029	83 c2 0c	 add	 edx, 12			; 0000000cH
  0002c	89 4d 08	 mov	 DWORD PTR $T1[ebp], ecx
  0002f	8d 0c d2	 lea	 ecx, DWORD PTR [edx+edx*8]
  00032	8b 55 08	 mov	 edx, DWORD PTR $T1[ebp]
  00035	8d 0c 8e	 lea	 ecx, DWORD PTR [esi+ecx*4]
$LL4@GetLevelup:

; 56   : 	{
; 57   : 		dwTotal		+= m_adwLevelupAvailLevelProbability[wLevel][i];

  00038	03 39		 add	 edi, DWORD PTR [ecx]

; 58   : 		if(  dwTotal >= dwRandom )

  0003a	3b fb		 cmp	 edi, ebx
  0003c	73 11		 jae	 SHORT $LN8@GetLevelup

; 55   : 	for( int i = 0; i <= m_anLevelupAvailLevelMax[wLevel]; i++ )

  0003e	40		 inc	 eax
  0003f	83 c1 04	 add	 ecx, 4
  00042	3b c2		 cmp	 eax, edx
  00044	7e f2		 jle	 SHORT $LL4@GetLevelup

; 59   : 			return i + 1;
; 60   : 	}
; 61   : 	return 0;
; 62   : }

  00046	5f		 pop	 edi
  00047	5e		 pop	 esi
  00048	32 c0		 xor	 al, al
  0004a	5b		 pop	 ebx
  0004b	5d		 pop	 ebp
  0004c	c2 04 00	 ret	 4
$LN8@GetLevelup:
  0004f	5f		 pop	 edi
  00050	5e		 pop	 esi
  00051	fe c0		 inc	 al
  00053	5b		 pop	 ebx
  00054	5d		 pop	 ebp
  00055	c2 04 00	 ret	 4
?GetLevelupAvailLevel@CPetProperty@@QAEEE@Z ENDP	; CPetProperty::GetLevelupAvailLevel
_TEXT	ENDS
; Function compile flags: /Ogtp
; File C:\IAGOS\server\v18\Source\Source\_Common\pet.cpp
;	COMDAT ?GetAvailParam@CPetProperty@@QAEPAU_PETAVAILPARAM@@E@Z
_TEXT	SEGMENT
_nKind$ = 8						; size = 1
?GetAvailParam@CPetProperty@@QAEPAU_PETAVAILPARAM@@E@Z PROC ; CPetProperty::GetAvailParam, COMDAT
; _this$ = ecx

; 45   : {

  00000	55		 push	 ebp
  00001	8b ec		 mov	 ebp, esp

; 46   : 	if( nKind >= PK_TIGER && nKind < PK_MAX )

  00003	8a 45 08	 mov	 al, BYTE PTR _nKind$[ebp]
  00006	3c 07		 cmp	 al, 7
  00008	73 12		 jae	 SHORT $LN2@GetAvailPa

; 47   : 		return &m_aPetAvailParam[nKind];

  0000a	0f b6 d0	 movzx	 edx, al
  0000d	8b c2		 mov	 eax, edx
  0000f	c1 e0 04	 shl	 eax, 4
  00012	2b c2		 sub	 eax, edx
  00014	40		 inc	 eax
  00015	8d 04 81	 lea	 eax, DWORD PTR [ecx+eax*4]

; 49   : }

  00018	5d		 pop	 ebp
  00019	c2 04 00	 ret	 4
$LN2@GetAvailPa:

; 48   : 	return NULL;

  0001c	33 c0		 xor	 eax, eax

; 49   : }

  0001e	5d		 pop	 ebp
  0001f	c2 04 00	 ret	 4
?GetAvailParam@CPetProperty@@QAEPAU_PETAVAILPARAM@@E@Z ENDP ; CPetProperty::GetAvailParam
_TEXT	ENDS
; Function compile flags: /Ogtp
; File C:\IAGOS\server\v18\Source\Source\_Common\pet.cpp
; File C:\Program Files\Microsoft Visual Studio\2022\Professional\VC\Tools\MSVC\14.44.35207\include\vector
; File C:\IAGOS\server\v18\Source\Source\_Common\pet.cpp
; File C:\Program Files\Microsoft Visual Studio\2022\Professional\VC\Tools\MSVC\14.44.35207\include\vector
; File C:\IAGOS\server\v18\Source\Source\_Common\pet.cpp
;	COMDAT ??1CPetProperty@@UAE@XZ
_TEXT	SEGMENT
__$EHRec$ = -12						; size = 12
??1CPetProperty@@UAE@XZ PROC				; CPetProperty::~CPetProperty, COMDAT
; _this$ = ecx

; 31   : {

  00000	55		 push	 ebp
  00001	8b ec		 mov	 ebp, esp
  00003	6a ff		 push	 -1
  00005	68 00 00 00 00	 push	 __ehhandler$??1CPetProperty@@UAE@XZ
  0000a	64 a1 00 00 00
	00		 mov	 eax, DWORD PTR fs:0
  00010	50		 push	 eax
  00011	56		 push	 esi
  00012	a1 00 00 00 00	 mov	 eax, DWORD PTR ___security_cookie
  00017	33 c5		 xor	 eax, ebp
  00019	50		 push	 eax
  0001a	8d 45 f4	 lea	 eax, DWORD PTR __$EHRec$[ebp]
  0001d	64 a3 00 00 00
	00		 mov	 DWORD PTR fs:0, eax
; File C:\Program Files\Microsoft Visual Studio\2022\Professional\VC\Tools\MSVC\14.44.35207\include\vector

; 1808 :         auto& _My_data    = _Mypair._Myval2;

  00023	8d b1 88 02 00
	00		 lea	 esi, DWORD PTR [ecx+648]
; File C:\IAGOS\server\v18\Source\Source\_Common\pet.cpp

; 31   : {

  00029	c7 01 00 00 00
	00		 mov	 DWORD PTR [ecx], OFFSET ??_7CPetProperty@@6B@
; File C:\Program Files\Microsoft Visual Studio\2022\Professional\VC\Tools\MSVC\14.44.35207\include\vector

; 1812 :         if (_Myfirst == _Mylast) { // already empty, nothing to do

  0002f	8b 06		 mov	 eax, DWORD PTR [esi]
  00031	3b 46 04	 cmp	 eax, DWORD PTR [esi+4]
  00034	74 03		 je	 SHORT $LN4@CPetProper

; 1813 :             // This is an optimization for debug mode: we can avoid taking the debug lock to invalidate iterators.
; 1814 :             // Note that when clearing an empty vector, this will preserve past-the-end iterators, which is allowed by
; 1815 :             // N4950 [sequence.reqmts]/54 "a.clear() [...] may invalidate the past-the-end iterator".
; 1816 :             return;
; 1817 :         }
; 1818 : 
; 1819 :         _My_data._Orphan_all();
; 1820 :         _Destroy_range(_Myfirst, _Mylast, _Getal());
; 1821 :         _ASAN_VECTOR_MODIFY(static_cast<difference_type>(_Myfirst - _Mylast)); // negative when destroying elements
; 1822 :         _Mylast = _Myfirst;

  00036	89 46 04	 mov	 DWORD PTR [esi+4], eax
$LN4@CPetProper:

; 1812 :         if (_Myfirst == _Mylast) { // already empty, nothing to do

  00039	8b 81 94 02 00
	00		 mov	 eax, DWORD PTR [ecx+660]
  0003f	3b 81 98 02 00
	00		 cmp	 eax, DWORD PTR [ecx+664]
  00045	74 06		 je	 SHORT $LN8@CPetProper

; 1813 :             // This is an optimization for debug mode: we can avoid taking the debug lock to invalidate iterators.
; 1814 :             // Note that when clearing an empty vector, this will preserve past-the-end iterators, which is allowed by
; 1815 :             // N4950 [sequence.reqmts]/54 "a.clear() [...] may invalidate the past-the-end iterator".
; 1816 :             return;
; 1817 :         }
; 1818 : 
; 1819 :         _My_data._Orphan_all();
; 1820 :         _Destroy_range(_Myfirst, _Mylast, _Getal());
; 1821 :         _ASAN_VECTOR_MODIFY(static_cast<difference_type>(_Myfirst - _Mylast)); // negative when destroying elements
; 1822 :         _Mylast = _Myfirst;

  00047	89 81 98 02 00
	00		 mov	 DWORD PTR [ecx+664], eax
$LN8@CPetProper:

; 1812 :         if (_Myfirst == _Mylast) { // already empty, nothing to do

  0004d	8b 81 c4 02 00
	00		 mov	 eax, DWORD PTR [ecx+708]
  00053	81 c1 c4 02 00
	00		 add	 ecx, 708		; 000002c4H
  00059	3b 41 04	 cmp	 eax, DWORD PTR [ecx+4]
  0005c	74 03		 je	 SHORT $LN12@CPetProper

; 1813 :             // This is an optimization for debug mode: we can avoid taking the debug lock to invalidate iterators.
; 1814 :             // Note that when clearing an empty vector, this will preserve past-the-end iterators, which is allowed by
; 1815 :             // N4950 [sequence.reqmts]/54 "a.clear() [...] may invalidate the past-the-end iterator".
; 1816 :             return;
; 1817 :         }
; 1818 : 
; 1819 :         _My_data._Orphan_all();
; 1820 :         _Destroy_range(_Myfirst, _Mylast, _Getal());
; 1821 :         _ASAN_VECTOR_MODIFY(static_cast<difference_type>(_Myfirst - _Mylast)); // negative when destroying elements
; 1822 :         _Mylast = _Myfirst;

  0005e	89 41 04	 mov	 DWORD PTR [ecx+4], eax
$LN12@CPetProper:
; File C:\IAGOS\server\v18\Source\Source\_Common\pet.cpp

; 35   : }

  00061	e8 00 00 00 00	 call	 ??1?$vector@GV?$allocator@G@std@@@std@@QAE@XZ ; std::vector<unsigned short,std::allocator<unsigned short> >::~vector<unsigned short,std::allocator<unsigned short> >
  00066	68 00 00 00 00	 push	 OFFSET ??1?$vector@U_FEEDENERGY@@V?$allocator@U_FEEDENERGY@@@std@@@std@@QAE@XZ ; std::vector<_FEEDENERGY,std::allocator<_FEEDENERGY> >::~vector<_FEEDENERGY,std::allocator<_FEEDENERGY> >
  0006b	6a 02		 push	 2
  0006d	6a 0c		 push	 12			; 0000000cH
  0006f	56		 push	 esi
  00070	e8 00 00 00 00	 call	 ??_M@YGXPAXIIP6EX0@Z@Z
  00075	8b 4d f4	 mov	 ecx, DWORD PTR __$EHRec$[ebp]
  00078	64 89 0d 00 00
	00 00		 mov	 DWORD PTR fs:0, ecx
  0007f	59		 pop	 ecx
  00080	5e		 pop	 esi
  00081	8b e5		 mov	 esp, ebp
  00083	5d		 pop	 ebp
  00084	c3		 ret	 0
  00085	cc		 int	 3
  00086	cc		 int	 3
  00087	cc		 int	 3
  00088	cc		 int	 3
  00089	cc		 int	 3
_TEXT	ENDS
;	COMDAT text$x
text$x	SEGMENT
__ehhandler$??1CPetProperty@@UAE@XZ:
  00000	90		 npad	 1
  00001	90		 npad	 1
  00002	8b 54 24 08	 mov	 edx, DWORD PTR [esp+8]
  00006	8d 42 0c	 lea	 eax, DWORD PTR [edx+12]
  00009	8b 4a f8	 mov	 ecx, DWORD PTR [edx-8]
  0000c	33 c8		 xor	 ecx, eax
  0000e	e8 00 00 00 00	 call	 @__security_check_cookie@4
  00013	b8 00 00 00 00	 mov	 eax, OFFSET __ehfuncinfo$??1CPetProperty@@UAE@XZ
  00018	e9 00 00 00 00	 jmp	 ___CxxFrameHandler3
text$x	ENDS
??1CPetProperty@@UAE@XZ ENDP				; CPetProperty::~CPetProperty
; Function compile flags: /Ogtp
; File C:\IAGOS\server\v18\Source\Source\_Common\pet.cpp
; File C:\Program Files\Microsoft Visual Studio\2022\Professional\VC\Tools\MSVC\14.44.35207\include\vector
; File C:\IAGOS\server\v18\Source\Source\_Common\pet.cpp
; File C:\Program Files\Microsoft Visual Studio\2022\Professional\VC\Tools\MSVC\14.44.35207\include\vector
; File C:\IAGOS\server\v18\Source\Source\_Common\pet.cpp
;	COMDAT ??0CPetProperty@@QAE@XZ
_TEXT	SEGMENT
_this$ = -4						; size = 4
??0CPetProperty@@QAE@XZ PROC				; CPetProperty::CPetProperty, COMDAT
; _this$ = ecx

; 21   : {

  00000	55		 push	 ebp
  00001	8b ec		 mov	 ebp, esp
  00003	51		 push	 ecx
  00004	56		 push	 esi
  00005	68 00 00 00 00	 push	 OFFSET ??1?$vector@U_FEEDENERGY@@V?$allocator@U_FEEDENERGY@@@std@@@std@@QAE@XZ ; std::vector<_FEEDENERGY,std::allocator<_FEEDENERGY> >::~vector<_FEEDENERGY,std::allocator<_FEEDENERGY> >
  0000a	8b f1		 mov	 esi, ecx
  0000c	68 00 00 00 00	 push	 OFFSET ??0?$vector@U_FEEDENERGY@@V?$allocator@U_FEEDENERGY@@@std@@@std@@QAE@XZ ; std::vector<_FEEDENERGY,std::allocator<_FEEDENERGY> >::vector<_FEEDENERGY,std::allocator<_FEEDENERGY> >
  00011	6a 02		 push	 2
  00013	6a 0c		 push	 12			; 0000000cH
  00015	8d 86 88 02 00
	00		 lea	 eax, DWORD PTR [esi+648]
  0001b	89 75 fc	 mov	 DWORD PTR _this$[ebp], esi
  0001e	50		 push	 eax
  0001f	c7 06 00 00 00
	00		 mov	 DWORD PTR [esi], OFFSET ??_7CPetProperty@@6B@
  00025	e8 00 00 00 00	 call	 ??_L@YGXPAXIIP6EX0@Z1@Z

; 22   : 	memset( (void*)m_aPetAvailParam, 0, sizeof(PETAVAILPARAM) * PK_MAX );

  0002a	68 a4 01 00 00	 push	 420			; 000001a4H
  0002f	8d 46 04	 lea	 eax, DWORD PTR [esi+4]
; File C:\Program Files\Microsoft Visual Studio\2022\Professional\VC\Tools\MSVC\14.44.35207\include\vector

; 400  :     _CONSTEXPR20 _Vector_val() noexcept : _Myfirst(), _Mylast(), _Myend() {}

  00032	c7 86 c4 02 00
	00 00 00 00 00	 mov	 DWORD PTR [esi+708], 0
; File C:\IAGOS\server\v18\Source\Source\_Common\pet.cpp

; 22   : 	memset( (void*)m_aPetAvailParam, 0, sizeof(PETAVAILPARAM) * PK_MAX );

  0003c	6a 00		 push	 0
  0003e	50		 push	 eax
; File C:\Program Files\Microsoft Visual Studio\2022\Professional\VC\Tools\MSVC\14.44.35207\include\vector

; 400  :     _CONSTEXPR20 _Vector_val() noexcept : _Myfirst(), _Mylast(), _Myend() {}

  0003f	c7 86 c8 02 00
	00 00 00 00 00	 mov	 DWORD PTR [esi+712], 0
  00049	c7 86 cc 02 00
	00 00 00 00 00	 mov	 DWORD PTR [esi+716], 0
; File C:\IAGOS\server\v18\Source\Source\_Common\pet.cpp

; 22   : 	memset( (void*)m_aPetAvailParam, 0, sizeof(PETAVAILPARAM) * PK_MAX );

  00053	e8 00 00 00 00	 call	 _memset

; 23   : 	memset( (void*)m_anLevelupAvailLevelMax, 0, sizeof(BYTE) * PL_MAX );

  00058	33 c0		 xor	 eax, eax
  0005a	89 86 a8 01 00
	00		 mov	 DWORD PTR [esi+424], eax

; 24   : 	memset( (void*)m_adwLevelupAvailLevelProbability, 0, sizeof(DWORD) * PL_MAX * MAX_PET_AVAIL_LEVEL );

  00060	68 d8 00 00 00	 push	 216			; 000000d8H
  00065	50		 push	 eax
  00066	66 89 86 ac 01
	00 00		 mov	 WORD PTR [esi+428], ax
  0006d	8d 86 b0 01 00
	00		 lea	 eax, DWORD PTR [esi+432]
  00073	50		 push	 eax
  00074	e8 00 00 00 00	 call	 _memset
  00079	0f 57 c0	 xorps	 xmm0, xmm0
  0007c	8d 86 d0 02 00
	00		 lea	 eax, DWORD PTR [esi+720]

; 25   : 	memset( (void*)m_adwIncrementExp, 0, sizeof(DWORD) * PL_MAX );
; 26   : 	memset( (void*)m_awMaxEnergy, 0, sizeof(WORD) * PL_MAX );
; 27   : 	memset( (void*)m_aPenalty, 0, sizeof(PETPENALTY) * PL_MAX );

  00082	6a 30		 push	 48			; 00000030H
  00084	0f 11 86 a0 02
	00 00		 movups	 XMMWORD PTR [esi+672], xmm0
  0008b	6a 00		 push	 0
  0008d	0f 11 86 b0 02
	00 00		 movups	 XMMWORD PTR [esi+688], xmm0
  00094	50		 push	 eax
  00095	c7 86 c0 02 00
	00 00 00 00 00	 mov	 DWORD PTR [esi+704], 0
  0009f	e8 00 00 00 00	 call	 _memset
  000a4	83 c4 24	 add	 esp, 36			; 00000024H

; 28   : }

  000a7	8b c6		 mov	 eax, esi
  000a9	5e		 pop	 esi
  000aa	8b e5		 mov	 esp, ebp
  000ac	5d		 pop	 ebp
  000ad	c3		 ret	 0
??0CPetProperty@@QAE@XZ ENDP				; CPetProperty::CPetProperty
_TEXT	ENDS
; Function compile flags: /Ogtp
; File C:\IAGOS\server\v18\Source\Source\_Common\pet.h
;	COMDAT ??0_PETPENALTY@@QAE@XZ
_TEXT	SEGMENT
??0_PETPENALTY@@QAE@XZ PROC				; _PETPENALTY::_PETPENALTY, COMDAT
; _this$ = ecx

; 34   : 	{
; 35   : 		fExp	= 0.0f;
; 36   : 		wEnergy	= 0;

  00000	33 c0		 xor	 eax, eax
  00002	c7 01 00 00 00
	00		 mov	 DWORD PTR [ecx], 0
  00008	66 89 41 04	 mov	 WORD PTR [ecx+4], ax

; 37   : 	}

  0000c	8b c1		 mov	 eax, ecx
  0000e	c3		 ret	 0
??0_PETPENALTY@@QAE@XZ ENDP				; _PETPENALTY::_PETPENALTY
_TEXT	ENDS
; Function compile flags: /Ogtp
; File C:\Program Files\Microsoft Visual Studio\2022\Professional\VC\Tools\MSVC\14.44.35207\include\xtree
;	COMDAT ?_Throw_tree_length_error@std@@YAXXZ
_TEXT	SEGMENT
?_Throw_tree_length_error@std@@YAXXZ PROC		; std::_Throw_tree_length_error, COMDAT

; 417  :     _Xlength_error("map/set too long");

  00000	68 00 00 00 00	 push	 OFFSET ??_C@_0BB@GCADKGJO@map?1set?5too?5long@
  00005	e8 00 00 00 00	 call	 ?_Xlength_error@std@@YAXPBD@Z ; std::_Xlength_error
$LN3@Throw_tree:
  0000a	cc		 int	 3
?_Throw_tree_length_error@std@@YAXXZ ENDP		; std::_Throw_tree_length_error
_TEXT	ENDS
; Function compile flags: /Ogtp
; File C:\Program Files\Microsoft Visual Studio\2022\Professional\VC\Tools\MSVC\14.44.35207\include\xmemory
;	COMDAT ?_Throw_bad_array_new_length@std@@YAXXZ
_TEXT	SEGMENT
$T1 = -12						; size = 12
?_Throw_bad_array_new_length@std@@YAXXZ PROC		; std::_Throw_bad_array_new_length, COMDAT

; 107  : [[noreturn]] inline void _Throw_bad_array_new_length() {

  00000	55		 push	 ebp
  00001	8b ec		 mov	 ebp, esp
  00003	83 ec 0c	 sub	 esp, 12			; 0000000cH

; 108  :     _THROW(bad_array_new_length{});

  00006	8d 4d f4	 lea	 ecx, DWORD PTR $T1[ebp]
  00009	e8 00 00 00 00	 call	 ??0bad_array_new_length@std@@QAE@XZ ; std::bad_array_new_length::bad_array_new_length
  0000e	68 00 00 00 00	 push	 OFFSET __TI3?AVbad_array_new_length@std@@
  00013	8d 45 f4	 lea	 eax, DWORD PTR $T1[ebp]
  00016	50		 push	 eax
  00017	e8 00 00 00 00	 call	 __CxxThrowException@8
$LN3@Throw_bad_:
  0001c	cc		 int	 3
?_Throw_bad_array_new_length@std@@YAXXZ ENDP		; std::_Throw_bad_array_new_length
_TEXT	ENDS
; Function compile flags: /Ogtp
; File C:\Program Files\Microsoft Visual Studio\2022\Professional\VC\Tools\MSVC\14.44.35207\include\vcruntime_exception.h
;	COMDAT ??_Gbad_array_new_length@std@@UAEPAXI@Z
_TEXT	SEGMENT
___flags$ = 8						; size = 4
??_Gbad_array_new_length@std@@UAEPAXI@Z PROC		; std::bad_array_new_length::`scalar deleting destructor', COMDAT
; _this$ = ecx
  00000	55		 push	 ebp
  00001	8b ec		 mov	 ebp, esp

; 90   :     {

  00003	56		 push	 esi
  00004	8b f1		 mov	 esi, ecx

; 91   :         __std_exception_destroy(&_Data);

  00006	8d 46 04	 lea	 eax, DWORD PTR [esi+4]
  00009	c7 06 00 00 00
	00		 mov	 DWORD PTR [esi], OFFSET ??_7exception@std@@6B@
  0000f	50		 push	 eax
  00010	e8 00 00 00 00	 call	 ___std_exception_destroy
  00015	83 c4 04	 add	 esp, 4
  00018	f6 45 08 01	 test	 BYTE PTR ___flags$[ebp], 1
  0001c	74 0b		 je	 SHORT $LN18@scalar
  0001e	6a 0c		 push	 12			; 0000000cH
  00020	56		 push	 esi
  00021	e8 00 00 00 00	 call	 ??3@YAXPAXI@Z		; operator delete
  00026	83 c4 08	 add	 esp, 8
$LN18@scalar:
  00029	8b c6		 mov	 eax, esi
  0002b	5e		 pop	 esi
  0002c	5d		 pop	 ebp
  0002d	c2 04 00	 ret	 4
??_Gbad_array_new_length@std@@UAEPAXI@Z ENDP		; std::bad_array_new_length::`scalar deleting destructor'
_TEXT	ENDS
; Function compile flags: /Ogtp
; File C:\Program Files\Microsoft Visual Studio\2022\Professional\VC\Tools\MSVC\14.44.35207\include\vcruntime_exception.h
;	COMDAT ??0bad_array_new_length@std@@QAE@ABV01@@Z
_TEXT	SEGMENT
___that$ = 8						; size = 4
??0bad_array_new_length@std@@QAE@ABV01@@Z PROC		; std::bad_array_new_length::bad_array_new_length, COMDAT
; _this$ = ecx
  00000	55		 push	 ebp
  00001	8b ec		 mov	 ebp, esp

; 73   :     {

  00003	56		 push	 esi
  00004	8b f1		 mov	 esi, ecx
  00006	0f 57 c0	 xorps	 xmm0, xmm0

; 72   :         : _Data()

  00009	8d 46 04	 lea	 eax, DWORD PTR [esi+4]

; 74   :         __std_exception_copy(&_Other._Data, &_Data);

  0000c	50		 push	 eax
  0000d	c7 06 00 00 00
	00		 mov	 DWORD PTR [esi], OFFSET ??_7exception@std@@6B@
  00013	66 0f d6 00	 movq	 QWORD PTR [eax], xmm0
  00017	8b 45 08	 mov	 eax, DWORD PTR ___that$[ebp]
  0001a	83 c0 04	 add	 eax, 4
  0001d	50		 push	 eax
  0001e	e8 00 00 00 00	 call	 ___std_exception_copy
  00023	83 c4 08	 add	 esp, 8
  00026	c7 06 00 00 00
	00		 mov	 DWORD PTR [esi], OFFSET ??_7bad_array_new_length@std@@6B@
  0002c	8b c6		 mov	 eax, esi
  0002e	5e		 pop	 esi
  0002f	5d		 pop	 ebp
  00030	c2 04 00	 ret	 4
??0bad_array_new_length@std@@QAE@ABV01@@Z ENDP		; std::bad_array_new_length::bad_array_new_length
_TEXT	ENDS
; Function compile flags: /Ogtp
; File C:\Program Files\Microsoft Visual Studio\2022\Professional\VC\Tools\MSVC\14.44.35207\include\vcruntime_exception.h
;	COMDAT ??1bad_array_new_length@std@@UAE@XZ
_TEXT	SEGMENT
??1bad_array_new_length@std@@UAE@XZ PROC		; std::bad_array_new_length::~bad_array_new_length, COMDAT
; _this$ = ecx

; 91   :         __std_exception_destroy(&_Data);

  00000	8d 41 04	 lea	 eax, DWORD PTR [ecx+4]
  00003	c7 01 00 00 00
	00		 mov	 DWORD PTR [ecx], OFFSET ??_7exception@std@@6B@
  00009	50		 push	 eax
  0000a	e8 00 00 00 00	 call	 ___std_exception_destroy
  0000f	59		 pop	 ecx
  00010	c3		 ret	 0
??1bad_array_new_length@std@@UAE@XZ ENDP		; std::bad_array_new_length::~bad_array_new_length
_TEXT	ENDS
; Function compile flags: /Ogtp
; File C:\Program Files\Microsoft Visual Studio\2022\Professional\VC\Tools\MSVC\14.44.35207\include\vcruntime_exception.h
;	COMDAT ??0bad_array_new_length@std@@QAE@XZ
_TEXT	SEGMENT
??0bad_array_new_length@std@@QAE@XZ PROC		; std::bad_array_new_length::bad_array_new_length, COMDAT
; _this$ = ecx

; 144  :     {

  00000	0f 57 c0	 xorps	 xmm0, xmm0

; 145  :     }

  00003	8b c1		 mov	 eax, ecx

; 66   :         : _Data()

  00005	66 0f d6 41 04	 movq	 QWORD PTR [ecx+4], xmm0

; 67   :     {
; 68   :         _Data._What = _Message;

  0000a	c7 41 04 00 00
	00 00		 mov	 DWORD PTR [ecx+4], OFFSET ??_C@_0BF@KINCDENJ@bad?5array?5new?5length@

; 144  :     {

  00011	c7 01 00 00 00
	00		 mov	 DWORD PTR [ecx], OFFSET ??_7bad_array_new_length@std@@6B@

; 145  :     }

  00017	c3		 ret	 0
??0bad_array_new_length@std@@QAE@XZ ENDP		; std::bad_array_new_length::bad_array_new_length
_TEXT	ENDS
; Function compile flags: /Ogtp
; File C:\Program Files\Microsoft Visual Studio\2022\Professional\VC\Tools\MSVC\14.44.35207\include\vcruntime_exception.h
;	COMDAT ??_Gbad_alloc@std@@UAEPAXI@Z
_TEXT	SEGMENT
___flags$ = 8						; size = 4
??_Gbad_alloc@std@@UAEPAXI@Z PROC			; std::bad_alloc::`scalar deleting destructor', COMDAT
; _this$ = ecx
  00000	55		 push	 ebp
  00001	8b ec		 mov	 ebp, esp

; 90   :     {

  00003	56		 push	 esi
  00004	8b f1		 mov	 esi, ecx

; 91   :         __std_exception_destroy(&_Data);

  00006	8d 46 04	 lea	 eax, DWORD PTR [esi+4]
  00009	c7 06 00 00 00
	00		 mov	 DWORD PTR [esi], OFFSET ??_7exception@std@@6B@
  0000f	50		 push	 eax
  00010	e8 00 00 00 00	 call	 ___std_exception_destroy
  00015	83 c4 04	 add	 esp, 4
  00018	f6 45 08 01	 test	 BYTE PTR ___flags$[ebp], 1
  0001c	74 0b		 je	 SHORT $LN13@scalar
  0001e	6a 0c		 push	 12			; 0000000cH
  00020	56		 push	 esi
  00021	e8 00 00 00 00	 call	 ??3@YAXPAXI@Z		; operator delete
  00026	83 c4 08	 add	 esp, 8
$LN13@scalar:
  00029	8b c6		 mov	 eax, esi
  0002b	5e		 pop	 esi
  0002c	5d		 pop	 ebp
  0002d	c2 04 00	 ret	 4
??_Gbad_alloc@std@@UAEPAXI@Z ENDP			; std::bad_alloc::`scalar deleting destructor'
_TEXT	ENDS
; Function compile flags: /Ogtp
; File C:\Program Files\Microsoft Visual Studio\2022\Professional\VC\Tools\MSVC\14.44.35207\include\vcruntime_exception.h
;	COMDAT ??0bad_alloc@std@@QAE@ABV01@@Z
_TEXT	SEGMENT
___that$ = 8						; size = 4
??0bad_alloc@std@@QAE@ABV01@@Z PROC			; std::bad_alloc::bad_alloc, COMDAT
; _this$ = ecx
  00000	55		 push	 ebp
  00001	8b ec		 mov	 ebp, esp

; 73   :     {

  00003	56		 push	 esi
  00004	8b f1		 mov	 esi, ecx
  00006	0f 57 c0	 xorps	 xmm0, xmm0

; 72   :         : _Data()

  00009	8d 46 04	 lea	 eax, DWORD PTR [esi+4]

; 74   :         __std_exception_copy(&_Other._Data, &_Data);

  0000c	50		 push	 eax
  0000d	c7 06 00 00 00
	00		 mov	 DWORD PTR [esi], OFFSET ??_7exception@std@@6B@
  00013	66 0f d6 00	 movq	 QWORD PTR [eax], xmm0
  00017	8b 45 08	 mov	 eax, DWORD PTR ___that$[ebp]
  0001a	83 c0 04	 add	 eax, 4
  0001d	50		 push	 eax
  0001e	e8 00 00 00 00	 call	 ___std_exception_copy
  00023	83 c4 08	 add	 esp, 8
  00026	c7 06 00 00 00
	00		 mov	 DWORD PTR [esi], OFFSET ??_7bad_alloc@std@@6B@
  0002c	8b c6		 mov	 eax, esi
  0002e	5e		 pop	 esi
  0002f	5d		 pop	 ebp
  00030	c2 04 00	 ret	 4
??0bad_alloc@std@@QAE@ABV01@@Z ENDP			; std::bad_alloc::bad_alloc
_TEXT	ENDS
; Function compile flags: /Ogtp
; File C:\Program Files\Microsoft Visual Studio\2022\Professional\VC\Tools\MSVC\14.44.35207\include\vcruntime_exception.h
;	COMDAT ??_Gexception@std@@UAEPAXI@Z
_TEXT	SEGMENT
___flags$ = 8						; size = 4
??_Gexception@std@@UAEPAXI@Z PROC			; std::exception::`scalar deleting destructor', COMDAT
; _this$ = ecx
  00000	55		 push	 ebp
  00001	8b ec		 mov	 ebp, esp

; 90   :     {

  00003	56		 push	 esi
  00004	8b f1		 mov	 esi, ecx

; 91   :         __std_exception_destroy(&_Data);

  00006	8d 46 04	 lea	 eax, DWORD PTR [esi+4]
  00009	c7 06 00 00 00
	00		 mov	 DWORD PTR [esi], OFFSET ??_7exception@std@@6B@
  0000f	50		 push	 eax
  00010	e8 00 00 00 00	 call	 ___std_exception_destroy
  00015	83 c4 04	 add	 esp, 4
  00018	f6 45 08 01	 test	 BYTE PTR ___flags$[ebp], 1
  0001c	74 0b		 je	 SHORT $LN8@scalar
  0001e	6a 0c		 push	 12			; 0000000cH
  00020	56		 push	 esi
  00021	e8 00 00 00 00	 call	 ??3@YAXPAXI@Z		; operator delete
  00026	83 c4 08	 add	 esp, 8
$LN8@scalar:
  00029	8b c6		 mov	 eax, esi
  0002b	5e		 pop	 esi
  0002c	5d		 pop	 ebp
  0002d	c2 04 00	 ret	 4
??_Gexception@std@@UAEPAXI@Z ENDP			; std::exception::`scalar deleting destructor'
_TEXT	ENDS
; Function compile flags: /Ogtp
; File C:\Program Files\Microsoft Visual Studio\2022\Professional\VC\Tools\MSVC\14.44.35207\include\vcruntime_exception.h
;	COMDAT ?what@exception@std@@UBEPBDXZ
_TEXT	SEGMENT
?what@exception@std@@UBEPBDXZ PROC			; std::exception::what, COMDAT
; _this$ = ecx

; 96   :         return _Data._What ? _Data._What : "Unknown exception";

  00000	8b 49 04	 mov	 ecx, DWORD PTR [ecx+4]
  00003	b8 00 00 00 00	 mov	 eax, OFFSET ??_C@_0BC@EOODALEL@Unknown?5exception@
  00008	85 c9		 test	 ecx, ecx
  0000a	0f 45 c1	 cmovne	 eax, ecx

; 97   :     }

  0000d	c3		 ret	 0
?what@exception@std@@UBEPBDXZ ENDP			; std::exception::what
_TEXT	ENDS
; Function compile flags: /Ogtp
; File C:\Program Files\Microsoft Visual Studio\2022\Professional\VC\Tools\MSVC\14.44.35207\include\vcruntime_exception.h
;	COMDAT ??1exception@std@@UAE@XZ
_TEXT	SEGMENT
??1exception@std@@UAE@XZ PROC				; std::exception::~exception, COMDAT
; _this$ = ecx

; 91   :         __std_exception_destroy(&_Data);

  00000	8d 41 04	 lea	 eax, DWORD PTR [ecx+4]
  00003	c7 01 00 00 00
	00		 mov	 DWORD PTR [ecx], OFFSET ??_7exception@std@@6B@
  00009	50		 push	 eax
  0000a	e8 00 00 00 00	 call	 ___std_exception_destroy
  0000f	59		 pop	 ecx

; 92   :     }

  00010	c3		 ret	 0
??1exception@std@@UAE@XZ ENDP				; std::exception::~exception
_TEXT	ENDS
; Function compile flags: /Ogtp
; File C:\Program Files\Microsoft Visual Studio\2022\Professional\VC\Tools\MSVC\14.44.35207\include\vcruntime_exception.h
;	COMDAT ??0exception@std@@QAE@ABV01@@Z
_TEXT	SEGMENT
__Other$ = 8						; size = 4
??0exception@std@@QAE@ABV01@@Z PROC			; std::exception::exception, COMDAT
; _this$ = ecx

; 73   :     {

  00000	55		 push	 ebp
  00001	8b ec		 mov	 ebp, esp
  00003	56		 push	 esi
  00004	8b f1		 mov	 esi, ecx
  00006	0f 57 c0	 xorps	 xmm0, xmm0
  00009	8d 46 04	 lea	 eax, DWORD PTR [esi+4]

; 74   :         __std_exception_copy(&_Other._Data, &_Data);

  0000c	50		 push	 eax
  0000d	c7 06 00 00 00
	00		 mov	 DWORD PTR [esi], OFFSET ??_7exception@std@@6B@
  00013	66 0f d6 00	 movq	 QWORD PTR [eax], xmm0
  00017	8b 45 08	 mov	 eax, DWORD PTR __Other$[ebp]
  0001a	83 c0 04	 add	 eax, 4
  0001d	50		 push	 eax
  0001e	e8 00 00 00 00	 call	 ___std_exception_copy
  00023	83 c4 08	 add	 esp, 8

; 75   :     }

  00026	8b c6		 mov	 eax, esi
  00028	5e		 pop	 esi
  00029	5d		 pop	 ebp
  0002a	c2 04 00	 ret	 4
??0exception@std@@QAE@ABV01@@Z ENDP			; std::exception::exception
_TEXT	ENDS
; Function compile flags: /Ogtp
; File C:\Program Files\Microsoft Visual Studio\2022\Professional\VC\Tools\MSVC\14.44.35207\atlmfc\include\atlexcept.h
;	COMDAT ?AtlThrowImpl@ATL@@YGXJ@Z
_TEXT	SEGMENT
_hr$ = 8						; size = 4
?AtlThrowImpl@ATL@@YGXJ@Z PROC				; ATL::AtlThrowImpl, COMDAT

; 69   : {

  00000	55		 push	 ebp
  00001	8b ec		 mov	 ebp, esp

; 70   : 	ATLTRACE(atlTraceException, 0, _T("AtlThrow: hr = 0x%x\n"), hr );
; 71   : #ifdef _AFX
; 72   : 	if( hr == E_OUTOFMEMORY )

  00003	8b 45 08	 mov	 eax, DWORD PTR _hr$[ebp]
  00006	3d 0e 00 07 80	 cmp	 eax, -2147024882	; 8007000eH
  0000b	75 05		 jne	 SHORT $LN2@AtlThrowIm

; 73   : 	{
; 74   : 		AfxThrowMemoryException();

  0000d	e8 00 00 00 00	 call	 ?AfxThrowMemoryException@@YGXXZ ; AfxThrowMemoryException
$LN2@AtlThrowIm:

; 75   : 	}
; 76   : 	else
; 77   : 	{
; 78   : 		AfxThrowOleException( hr );

  00012	50		 push	 eax
  00013	e8 00 00 00 00	 call	 ?AfxThrowOleException@@YGXJ@Z ; AfxThrowOleException
$LN5@AtlThrowIm:
  00018	cc		 int	 3
?AtlThrowImpl@ATL@@YGXJ@Z ENDP				; ATL::AtlThrowImpl
_TEXT	ENDS
; Function compile flags: /Ogtp
; File C:\IAGOS\server\v18\Source\Source\_Common\pet.cpp
;	COMDAT ?__empty_global_delete@@YAXPAXI@Z
_TEXT	SEGMENT
___formal$ = 8						; size = 4
___formal$ = 12						; size = 4
?__empty_global_delete@@YAXPAXI@Z PROC			; __empty_global_delete, COMDAT

  00000	c2 00 00	 ret	 0
?__empty_global_delete@@YAXPAXI@Z ENDP			; __empty_global_delete
_TEXT	ENDS
; Function compile flags: /Ogtp
; File C:\IAGOS\server\v18\Source\Source\_Common\pet.cpp
;	COMDAT ?__empty_global_delete@@YAXPAX@Z
_TEXT	SEGMENT
___formal$ = 8						; size = 4
?__empty_global_delete@@YAXPAX@Z PROC			; __empty_global_delete, COMDAT

  00000	c2 00 00	 ret	 0
?__empty_global_delete@@YAXPAX@Z ENDP			; __empty_global_delete
_TEXT	ENDS
; Function compile flags: /Ogtp
;	COMDAT ??_H@YGXPAXIIP6EPAX0@Z@Z
_TEXT	SEGMENT
___t$ = 8						; size = 4
___s$ = 12						; size = 4
___n$ = 16						; size = 4
___f$ = 20						; size = 4
??_H@YGXPAXIIP6EPAX0@Z@Z PROC				; `vector constructor iterator', COMDAT
  00000	55		 push	 ebp
  00001	8b ec		 mov	 ebp, esp
  00003	56		 push	 esi
  00004	8b 75 10	 mov	 esi, DWORD PTR ___n$[ebp]
  00007	85 f6		 test	 esi, esi
  00009	74 16		 je	 SHORT $LN6@vector
  0000b	53		 push	 ebx
  0000c	8b 5d 14	 mov	 ebx, DWORD PTR ___f$[ebp]
  0000f	57		 push	 edi
  00010	8b 7d 08	 mov	 edi, DWORD PTR ___t$[ebp]
$LL2@vector:
  00013	8b cf		 mov	 ecx, edi
  00015	ff d3		 call	 ebx
  00017	03 7d 0c	 add	 edi, DWORD PTR ___s$[ebp]
  0001a	83 ee 01	 sub	 esi, 1
  0001d	75 f4		 jne	 SHORT $LL2@vector
  0001f	5f		 pop	 edi
  00020	5b		 pop	 ebx
$LN6@vector:
  00021	5e		 pop	 esi
  00022	5d		 pop	 ebp
  00023	c2 10 00	 ret	 16			; 00000010H
??_H@YGXPAXIIP6EPAX0@Z@Z ENDP				; `vector constructor iterator'
_TEXT	ENDS
END
