; Listing generated by Microsoft (R) Optimizing Compiler Version 19.44.35225.0 

	TITLE	C:\IAGOS\server\v18\Source\Output\WorldServer\Release\pocket.obj
	.686P
	.XMM
	include listing.inc
	.model	flat

INCLUDELIB LIBCMT
INCLUDELIB OLDNAMES

CONST	SEGMENT
?piecewise_construct@std@@3Upiecewise_construct_t@1@B	ORG $+1 ; std::piecewise_construct
CONST	ENDS
PUBLIC	?__empty_global_delete@@YAXPAX@Z		; __empty_global_delete
PUBLIC	?__empty_global_delete@@YAXPAXI@Z		; __empty_global_delete
PUBLIC	??0exception@std@@QAE@ABV01@@Z			; std::exception::exception
PUBLIC	??1exception@std@@UAE@XZ			; std::exception::~exception
PUBLIC	?what@exception@std@@UBEPBDXZ			; std::exception::what
PUBLIC	??_Gexception@std@@UAEPAXI@Z			; std::exception::`scalar deleting destructor'
PUBLIC	??0bad_alloc@std@@QAE@ABV01@@Z			; std::bad_alloc::bad_alloc
PUBLIC	??_Gbad_alloc@std@@UAEPAXI@Z			; std::bad_alloc::`scalar deleting destructor'
PUBLIC	??0bad_array_new_length@std@@QAE@XZ		; std::bad_array_new_length::bad_array_new_length
PUBLIC	??1bad_array_new_length@std@@UAE@XZ		; std::bad_array_new_length::~bad_array_new_length
PUBLIC	??0bad_array_new_length@std@@QAE@ABV01@@Z	; std::bad_array_new_length::bad_array_new_length
PUBLIC	??_Gbad_array_new_length@std@@UAEPAXI@Z		; std::bad_array_new_length::`scalar deleting destructor'
PUBLIC	?_Throw_bad_array_new_length@std@@YAXXZ		; std::_Throw_bad_array_new_length
PUBLIC	??_ECItemElem@@UAEPAXI@Z			; CItemElem::`vector deleting destructor'
PUBLIC	?SetItemContainer@?$CItemContainer@VCItemElem@@@@QAEXKKK@Z ; CItemContainer<CItemElem>::SetItemContainer
PUBLIC	??0?$CItemContainer@VCItemElem@@@@QAE@XZ	; CItemContainer<CItemElem>::CItemContainer<CItemElem>
PUBLIC	??1?$CItemContainer@VCItemElem@@@@UAE@XZ	; CItemContainer<CItemElem>::~CItemContainer<CItemElem>
PUBLIC	?Clear@?$CItemContainer@VCItemElem@@@@QAEXXZ	; CItemContainer<CItemElem>::Clear
PUBLIC	?Add@?$CItemContainer@VCItemElem@@@@QAEHPAVCItemElem@@PAEPAF1@Z ; CItemContainer<CItemElem>::Add
PUBLIC	?IsFull@?$CItemContainer@VCItemElem@@@@QAEHPAVCItemElem@@PAUItemProp@@F@Z ; CItemContainer<CItemElem>::IsFull
PUBLIC	?GetAtId@?$CItemContainer@VCItemElem@@@@QAEPAVCItemElem@@K@Z ; CItemContainer<CItemElem>::GetAtId
PUBLIC	?RemoveAtId@?$CItemContainer@VCItemElem@@@@QAEXK@Z ; CItemContainer<CItemElem>::RemoveAtId
PUBLIC	?Copy@?$CItemContainer@VCItemElem@@@@QAEXAAV1@@Z ; CItemContainer<CItemElem>::Copy
PUBLIC	?Serialize@?$CItemContainer@VCItemElem@@@@QAEXAAVCAr@@@Z ; CItemContainer<CItemElem>::Serialize
PUBLIC	??_G?$CItemContainer@VCItemElem@@@@UAEPAXI@Z	; CItemContainer<CItemElem>::`scalar deleting destructor'
PUBLIC	??0CPocket@@QAE@XZ				; CPocket::CPocket
PUBLIC	??1CPocket@@UAE@XZ				; CPocket::~CPocket
PUBLIC	?Copy@CPocket@@QAEXAAV1@@Z			; CPocket::Copy
PUBLIC	?Serialize@CPocket@@QAEXAAVCAr@@@Z		; CPocket::Serialize
PUBLIC	??_GCPocket@@UAEPAXI@Z				; CPocket::`scalar deleting destructor'
PUBLIC	??0CPocketController@@QAE@XZ			; CPocketController::CPocketController
PUBLIC	??1CPocketController@@UAE@XZ			; CPocketController::~CPocketController
PUBLIC	?Clear@CPocketController@@QAEXXZ		; CPocketController::Clear
PUBLIC	?GetAtId@CPocketController@@QAEPAVCItemElem@@HHH@Z ; CPocketController::GetAtId
PUBLIC	?Add@CPocketController@@QAEHHPAVCItemElem@@PAV?$vector@U_PocketController_Result@@V?$allocator@U_PocketController_Result@@@std@@@std@@@Z ; CPocketController::Add
PUBLIC	?RemoveAtId@CPocketController@@QAEHHHH@Z	; CPocketController::RemoveAtId
PUBLIC	?RemoveItem@CPocketController@@QAEHKH@Z		; CPocketController::RemoveItem
PUBLIC	?GetEmptyCount@CPocketController@@QAEHXZ	; CPocketController::GetEmptyCount
PUBLIC	?IsAllClean@CPocketController@@QAEHXZ		; CPocketController::IsAllClean
PUBLIC	?GetCount@CPocketController@@QAEHK@Z		; CPocketController::GetCount
PUBLIC	?Avail@CPocketController@@QAEXHJ@Z		; CPocketController::Avail
PUBLIC	?SetAttribute@CPocketController@@QAEXHHH@Z	; CPocketController::SetAttribute
PUBLIC	?GetAvailable@CPocketController@@QAEJH@Z	; CPocketController::GetAvailable
PUBLIC	?Copy@CPocketController@@QAEXAAV1@@Z		; CPocketController::Copy
PUBLIC	?Serialize@CPocketController@@QAEXAAVCAr@@@Z	; CPocketController::Serialize
PUBLIC	?ProcessExpiring@CPocketController@@QAEXXZ	; CPocketController::ProcessExpiring
PUBLIC	?GetPocket@CPocketController@@QAEPAVCPocket@@H@Z ; CPocketController::GetPocket
PUBLIC	??_GCPocketController@@UAEPAXI@Z		; CPocketController::`scalar deleting destructor'
PUBLIC	??$_Allocate_manually_vector_aligned@U_Default_allocate_traits@std@@@std@@YAPAXI@Z ; std::_Allocate_manually_vector_aligned<std::_Default_allocate_traits>
PUBLIC	??$?6H@CAr@@QAEAAV0@ABH@Z			; CAr::operator<<<int>
PUBLIC	??$?5H@CAr@@QAEAAV0@AAH@Z			; CAr::operator>><int>
PUBLIC	??$?6J@CAr@@QAEAAV0@ABJ@Z			; CAr::operator<<<long>
PUBLIC	??$?5J@CAr@@QAEAAV0@AAJ@Z			; CAr::operator>><long>
PUBLIC	?_Xlength@?$vector@U_PocketController_Result@@V?$allocator@U_PocketController_Result@@@std@@@std@@CAXXZ ; std::vector<_PocketController_Result,std::allocator<_PocketController_Result> >::_Xlength
PUBLIC	??$?6E@CAr@@QAEAAV0@ABE@Z			; CAr::operator<<<unsigned char>
PUBLIC	??$?5E@CAr@@QAEAAV0@AAE@Z			; CAr::operator>><unsigned char>
PUBLIC	??$_Emplace_reallocate@ABU_PocketController_Result@@@?$vector@U_PocketController_Result@@V?$allocator@U_PocketController_Result@@@std@@@std@@AAEPAU_PocketController_Result@@QAU2@ABU2@@Z ; std::vector<_PocketController_Result,std::allocator<_PocketController_Result> >::_Emplace_reallocate<_PocketController_Result const &>
PUBLIC	??$_Copy_memmove@PAU_PocketController_Result@@PAU1@@std@@YAPAU_PocketController_Result@@PAU1@00@Z ; std::_Copy_memmove<_PocketController_Result *,_PocketController_Result *>
PUBLIC	??$_Copy_memmove_tail@PAU_PocketController_Result@@@std@@YAPAU_PocketController_Result@@QBDQAU1@II@Z ; std::_Copy_memmove_tail<_PocketController_Result *>
PUBLIC	??_7exception@std@@6B@				; std::exception::`vftable'
PUBLIC	??_C@_0BC@EOODALEL@Unknown?5exception@		; `string'
PUBLIC	??_7bad_alloc@std@@6B@				; std::bad_alloc::`vftable'
PUBLIC	??_7bad_array_new_length@std@@6B@		; std::bad_array_new_length::`vftable'
PUBLIC	??_C@_0BF@KINCDENJ@bad?5array?5new?5length@	; `string'
PUBLIC	??_R0?AVexception@std@@@8			; std::exception `RTTI Type Descriptor'
PUBLIC	__CT??_R0?AVexception@std@@@8??0exception@std@@QAE@ABV01@@Z12
PUBLIC	__TI3?AVbad_array_new_length@std@@
PUBLIC	__CTA3?AVbad_array_new_length@std@@
PUBLIC	??_R0?AVbad_array_new_length@std@@@8		; std::bad_array_new_length `RTTI Type Descriptor'
PUBLIC	__CT??_R0?AVbad_array_new_length@std@@@8??0bad_array_new_length@std@@QAE@ABV01@@Z12
PUBLIC	??_R0?AVbad_alloc@std@@@8			; std::bad_alloc `RTTI Type Descriptor'
PUBLIC	__CT??_R0?AVbad_alloc@std@@@8??0bad_alloc@std@@QAE@ABV01@@Z12
PUBLIC	??_C@_0BM@HMFGHCP@?$CFs?5min?3?$CFd?0?5max?3?$CFd?0?5index?3?$CFd@ ; `string'
PUBLIC	??_C@_0BI@BEIFNGEL@GetItemProp?5range_error@	; `string'
PUBLIC	??_7?$CItemContainer@VCItemElem@@@@6B@		; CItemContainer<CItemElem>::`vftable'
PUBLIC	??_7CPocket@@6B@				; CPocket::`vftable'
PUBLIC	??_7CPocketController@@6B@			; CPocketController::`vftable'
PUBLIC	??_C@_0BA@FOIKENOD@vector?5too?5long@		; `string'
PUBLIC	??_R4exception@std@@6B@				; std::exception::`RTTI Complete Object Locator'
PUBLIC	??_R3exception@std@@8				; std::exception::`RTTI Class Hierarchy Descriptor'
PUBLIC	??_R2exception@std@@8				; std::exception::`RTTI Base Class Array'
PUBLIC	??_R1A@?0A@EA@exception@std@@8			; std::exception::`RTTI Base Class Descriptor at (0,-1,0,64)'
PUBLIC	??_R4bad_array_new_length@std@@6B@		; std::bad_array_new_length::`RTTI Complete Object Locator'
PUBLIC	??_R3bad_array_new_length@std@@8		; std::bad_array_new_length::`RTTI Class Hierarchy Descriptor'
PUBLIC	??_R2bad_array_new_length@std@@8		; std::bad_array_new_length::`RTTI Base Class Array'
PUBLIC	??_R1A@?0A@EA@bad_array_new_length@std@@8	; std::bad_array_new_length::`RTTI Base Class Descriptor at (0,-1,0,64)'
PUBLIC	??_R1A@?0A@EA@bad_alloc@std@@8			; std::bad_alloc::`RTTI Base Class Descriptor at (0,-1,0,64)'
PUBLIC	??_R3bad_alloc@std@@8				; std::bad_alloc::`RTTI Class Hierarchy Descriptor'
PUBLIC	??_R2bad_alloc@std@@8				; std::bad_alloc::`RTTI Base Class Array'
PUBLIC	??_R4bad_alloc@std@@6B@				; std::bad_alloc::`RTTI Complete Object Locator'
PUBLIC	??_R4?$CItemContainer@VCItemElem@@@@6B@		; CItemContainer<CItemElem>::`RTTI Complete Object Locator'
PUBLIC	??_R0?AV?$CItemContainer@VCItemElem@@@@@8	; CItemContainer<CItemElem> `RTTI Type Descriptor'
PUBLIC	??_R3?$CItemContainer@VCItemElem@@@@8		; CItemContainer<CItemElem>::`RTTI Class Hierarchy Descriptor'
PUBLIC	??_R2?$CItemContainer@VCItemElem@@@@8		; CItemContainer<CItemElem>::`RTTI Base Class Array'
PUBLIC	??_R1A@?0A@EA@?$CItemContainer@VCItemElem@@@@8	; CItemContainer<CItemElem>::`RTTI Base Class Descriptor at (0,-1,0,64)'
PUBLIC	??_C@_0EK@GINEPMCL@template?5?$DMclass?5T?$DO?5BOOL?5CItemCo@ ; `string'
PUBLIC	??_R4CPocket@@6B@				; CPocket::`RTTI Complete Object Locator'
PUBLIC	??_R0?AVCPocket@@@8				; CPocket `RTTI Type Descriptor'
PUBLIC	??_R3CPocket@@8					; CPocket::`RTTI Class Hierarchy Descriptor'
PUBLIC	??_R2CPocket@@8					; CPocket::`RTTI Base Class Array'
PUBLIC	??_R1A@?0A@EA@CPocket@@8			; CPocket::`RTTI Base Class Descriptor at (0,-1,0,64)'
PUBLIC	??_R4CPocketController@@6B@			; CPocketController::`RTTI Complete Object Locator'
PUBLIC	??_R0?AVCPocketController@@@8			; CPocketController `RTTI Type Descriptor'
PUBLIC	??_R3CPocketController@@8			; CPocketController::`RTTI Class Hierarchy Descriptor'
PUBLIC	??_R2CPocketController@@8			; CPocketController::`RTTI Base Class Array'
PUBLIC	??_R1A@?0A@EA@CPocketController@@8		; CPocketController::`RTTI Base Class Descriptor at (0,-1,0,64)'
EXTRN	??_L@YGXPAXIIP6EX0@Z1@Z:PROC			; `eh vector constructor iterator'
EXTRN	??_M@YGXPAXIIP6EX0@Z@Z:PROC			; `eh vector destructor iterator'
EXTRN	??2@YAPAXI@Z:PROC				; operator new
EXTRN	??3@YAXPAXI@Z:PROC				; operator delete
EXTRN	??_U@YAPAXI@Z:PROC				; operator new[]
EXTRN	??_V@YAXPAX@Z:PROC				; operator delete[]
EXTRN	??_V@YAXPAXI@Z:PROC				; operator delete[]
EXTRN	__invoke_watson:PROC
EXTRN	___std_exception_copy:PROC
EXTRN	___std_exception_destroy:PROC
EXTRN	??_Eexception@std@@UAEPAXI@Z:PROC		; std::exception::`vector deleting destructor'
EXTRN	??_Ebad_alloc@std@@UAEPAXI@Z:PROC		; std::bad_alloc::`vector deleting destructor'
EXTRN	??_Ebad_array_new_length@std@@UAEPAXI@Z:PROC	; std::bad_array_new_length::`vector deleting destructor'
EXTRN	?_Xlength_error@std@@YAXPBD@Z:PROC		; std::_Xlength_error
EXTRN	?Error@@YAPBDPBDZZ:PROC				; Error
EXTRN	?SetTexture@CItemBase@@QAEXXZ:PROC		; CItemBase::SetTexture
EXTRN	??0CItemElem@@QAE@XZ:PROC			; CItemElem::CItemElem
EXTRN	??1CItemElem@@UAE@XZ:PROC			; CItemElem::~CItemElem
EXTRN	?Read@CAr@@QAEXPAXI@Z:PROC			; CAr::Read
EXTRN	?Write@CAr@@QAEXPBXI@Z:PROC			; CAr::Write
EXTRN	?CheckBuf@CAr@@QAEXI@Z:PROC			; CAr::CheckBuf
EXTRN	?GetBuffer@CAr@@QAEPAEPAH@Z:PROC		; CAr::GetBuffer
EXTRN	??_E?$CItemContainer@VCItemElem@@@@UAEPAXI@Z:PROC ; CItemContainer<CItemElem>::`vector deleting destructor'
EXTRN	??_ECPocket@@UAEPAXI@Z:PROC			; CPocket::`vector deleting destructor'
EXTRN	??_ECPocketController@@UAEPAXI@Z:PROC		; CPocketController::`vector deleting destructor'
EXTRN	?AddPocketAttribute@CUser@@QAEXHHH@Z:PROC	; CUser::AddPocketAttribute
EXTRN	?AddPocketAddItem@CUser@@QAEXHPAVCItemElem@@@Z:PROC ; CUser::AddPocketAddItem
EXTRN	?AddPocketRemoveItem@CUser@@QAEXHHF@Z:PROC	; CUser::AddPocketRemoveItem
EXTRN	@__security_check_cookie@4:PROC
EXTRN	__CxxThrowException@8:PROC
EXTRN	___CxxFrameHandler3:PROC
EXTRN	_memcpy:PROC
EXTRN	_memmove:PROC
EXTRN	??_7type_info@@6B@:QWORD			; type_info::`vftable'
EXTRN	?g_tCurrent@@3JA:DWORD				; g_tCurrent
EXTRN	?prj@@3VCProject@@A:BYTE			; prj
EXTRN	___security_cookie:DWORD
;	COMDAT ??_R1A@?0A@EA@CPocketController@@8
rdata$r	SEGMENT
??_R1A@?0A@EA@CPocketController@@8 DD FLAT:??_R0?AVCPocketController@@@8 ; CPocketController::`RTTI Base Class Descriptor at (0,-1,0,64)'
	DD	00H
	DD	00H
	DD	0ffffffffH
	DD	00H
	DD	040H
	DD	FLAT:??_R3CPocketController@@8
rdata$r	ENDS
;	COMDAT ??_R2CPocketController@@8
rdata$r	SEGMENT
??_R2CPocketController@@8 DD FLAT:??_R1A@?0A@EA@CPocketController@@8 ; CPocketController::`RTTI Base Class Array'
rdata$r	ENDS
;	COMDAT ??_R3CPocketController@@8
rdata$r	SEGMENT
??_R3CPocketController@@8 DD 00H			; CPocketController::`RTTI Class Hierarchy Descriptor'
	DD	00H
	DD	01H
	DD	FLAT:??_R2CPocketController@@8
rdata$r	ENDS
;	COMDAT ??_R0?AVCPocketController@@@8
data$rs	SEGMENT
??_R0?AVCPocketController@@@8 DD FLAT:??_7type_info@@6B@ ; CPocketController `RTTI Type Descriptor'
	DD	00H
	DB	'.?AVCPocketController@@', 00H
data$rs	ENDS
;	COMDAT ??_R4CPocketController@@6B@
rdata$r	SEGMENT
??_R4CPocketController@@6B@ DD 00H			; CPocketController::`RTTI Complete Object Locator'
	DD	00H
	DD	00H
	DD	FLAT:??_R0?AVCPocketController@@@8
	DD	FLAT:??_R3CPocketController@@8
rdata$r	ENDS
;	COMDAT ??_R1A@?0A@EA@CPocket@@8
rdata$r	SEGMENT
??_R1A@?0A@EA@CPocket@@8 DD FLAT:??_R0?AVCPocket@@@8	; CPocket::`RTTI Base Class Descriptor at (0,-1,0,64)'
	DD	01H
	DD	00H
	DD	0ffffffffH
	DD	00H
	DD	040H
	DD	FLAT:??_R3CPocket@@8
rdata$r	ENDS
;	COMDAT ??_R2CPocket@@8
rdata$r	SEGMENT
??_R2CPocket@@8 DD FLAT:??_R1A@?0A@EA@CPocket@@8	; CPocket::`RTTI Base Class Array'
	DD	FLAT:??_R1A@?0A@EA@?$CItemContainer@VCItemElem@@@@8
rdata$r	ENDS
;	COMDAT ??_R3CPocket@@8
rdata$r	SEGMENT
??_R3CPocket@@8 DD 00H					; CPocket::`RTTI Class Hierarchy Descriptor'
	DD	00H
	DD	02H
	DD	FLAT:??_R2CPocket@@8
rdata$r	ENDS
;	COMDAT ??_R0?AVCPocket@@@8
data$rs	SEGMENT
??_R0?AVCPocket@@@8 DD FLAT:??_7type_info@@6B@		; CPocket `RTTI Type Descriptor'
	DD	00H
	DB	'.?AVCPocket@@', 00H
data$rs	ENDS
;	COMDAT ??_R4CPocket@@6B@
rdata$r	SEGMENT
??_R4CPocket@@6B@ DD 00H				; CPocket::`RTTI Complete Object Locator'
	DD	00H
	DD	00H
	DD	FLAT:??_R0?AVCPocket@@@8
	DD	FLAT:??_R3CPocket@@8
rdata$r	ENDS
;	COMDAT ??_C@_0EK@GINEPMCL@template?5?$DMclass?5T?$DO?5BOOL?5CItemCo@
CONST	SEGMENT
??_C@_0EK@GINEPMCL@template?5?$DMclass?5T?$DO?5BOOL?5CItemCo@ DB 'templat'
	DB	'e <class T> BOOL CItemContainer<T>::Add( T* pElem... : nNumtm'
	DB	'p > 0', 00H					; `string'
CONST	ENDS
;	COMDAT ??_R1A@?0A@EA@?$CItemContainer@VCItemElem@@@@8
rdata$r	SEGMENT
??_R1A@?0A@EA@?$CItemContainer@VCItemElem@@@@8 DD FLAT:??_R0?AV?$CItemContainer@VCItemElem@@@@@8 ; CItemContainer<CItemElem>::`RTTI Base Class Descriptor at (0,-1,0,64)'
	DD	00H
	DD	00H
	DD	0ffffffffH
	DD	00H
	DD	040H
	DD	FLAT:??_R3?$CItemContainer@VCItemElem@@@@8
rdata$r	ENDS
;	COMDAT ??_R2?$CItemContainer@VCItemElem@@@@8
rdata$r	SEGMENT
??_R2?$CItemContainer@VCItemElem@@@@8 DD FLAT:??_R1A@?0A@EA@?$CItemContainer@VCItemElem@@@@8 ; CItemContainer<CItemElem>::`RTTI Base Class Array'
rdata$r	ENDS
;	COMDAT ??_R3?$CItemContainer@VCItemElem@@@@8
rdata$r	SEGMENT
??_R3?$CItemContainer@VCItemElem@@@@8 DD 00H		; CItemContainer<CItemElem>::`RTTI Class Hierarchy Descriptor'
	DD	00H
	DD	01H
	DD	FLAT:??_R2?$CItemContainer@VCItemElem@@@@8
rdata$r	ENDS
;	COMDAT ??_R0?AV?$CItemContainer@VCItemElem@@@@@8
data$rs	SEGMENT
??_R0?AV?$CItemContainer@VCItemElem@@@@@8 DD FLAT:??_7type_info@@6B@ ; CItemContainer<CItemElem> `RTTI Type Descriptor'
	DD	00H
	DB	'.?AV?$CItemContainer@VCItemElem@@@@', 00H
data$rs	ENDS
;	COMDAT ??_R4?$CItemContainer@VCItemElem@@@@6B@
rdata$r	SEGMENT
??_R4?$CItemContainer@VCItemElem@@@@6B@ DD 00H		; CItemContainer<CItemElem>::`RTTI Complete Object Locator'
	DD	00H
	DD	00H
	DD	FLAT:??_R0?AV?$CItemContainer@VCItemElem@@@@@8
	DD	FLAT:??_R3?$CItemContainer@VCItemElem@@@@8
rdata$r	ENDS
;	COMDAT ??_R4bad_alloc@std@@6B@
rdata$r	SEGMENT
??_R4bad_alloc@std@@6B@ DD 00H				; std::bad_alloc::`RTTI Complete Object Locator'
	DD	00H
	DD	00H
	DD	FLAT:??_R0?AVbad_alloc@std@@@8
	DD	FLAT:??_R3bad_alloc@std@@8
rdata$r	ENDS
;	COMDAT ??_R2bad_alloc@std@@8
rdata$r	SEGMENT
??_R2bad_alloc@std@@8 DD FLAT:??_R1A@?0A@EA@bad_alloc@std@@8 ; std::bad_alloc::`RTTI Base Class Array'
	DD	FLAT:??_R1A@?0A@EA@exception@std@@8
rdata$r	ENDS
;	COMDAT ??_R3bad_alloc@std@@8
rdata$r	SEGMENT
??_R3bad_alloc@std@@8 DD 00H				; std::bad_alloc::`RTTI Class Hierarchy Descriptor'
	DD	00H
	DD	02H
	DD	FLAT:??_R2bad_alloc@std@@8
rdata$r	ENDS
;	COMDAT ??_R1A@?0A@EA@bad_alloc@std@@8
rdata$r	SEGMENT
??_R1A@?0A@EA@bad_alloc@std@@8 DD FLAT:??_R0?AVbad_alloc@std@@@8 ; std::bad_alloc::`RTTI Base Class Descriptor at (0,-1,0,64)'
	DD	01H
	DD	00H
	DD	0ffffffffH
	DD	00H
	DD	040H
	DD	FLAT:??_R3bad_alloc@std@@8
rdata$r	ENDS
;	COMDAT ??_R1A@?0A@EA@bad_array_new_length@std@@8
rdata$r	SEGMENT
??_R1A@?0A@EA@bad_array_new_length@std@@8 DD FLAT:??_R0?AVbad_array_new_length@std@@@8 ; std::bad_array_new_length::`RTTI Base Class Descriptor at (0,-1,0,64)'
	DD	02H
	DD	00H
	DD	0ffffffffH
	DD	00H
	DD	040H
	DD	FLAT:??_R3bad_array_new_length@std@@8
rdata$r	ENDS
;	COMDAT ??_R2bad_array_new_length@std@@8
rdata$r	SEGMENT
??_R2bad_array_new_length@std@@8 DD FLAT:??_R1A@?0A@EA@bad_array_new_length@std@@8 ; std::bad_array_new_length::`RTTI Base Class Array'
	DD	FLAT:??_R1A@?0A@EA@bad_alloc@std@@8
	DD	FLAT:??_R1A@?0A@EA@exception@std@@8
rdata$r	ENDS
;	COMDAT ??_R3bad_array_new_length@std@@8
rdata$r	SEGMENT
??_R3bad_array_new_length@std@@8 DD 00H			; std::bad_array_new_length::`RTTI Class Hierarchy Descriptor'
	DD	00H
	DD	03H
	DD	FLAT:??_R2bad_array_new_length@std@@8
rdata$r	ENDS
;	COMDAT ??_R4bad_array_new_length@std@@6B@
rdata$r	SEGMENT
??_R4bad_array_new_length@std@@6B@ DD 00H		; std::bad_array_new_length::`RTTI Complete Object Locator'
	DD	00H
	DD	00H
	DD	FLAT:??_R0?AVbad_array_new_length@std@@@8
	DD	FLAT:??_R3bad_array_new_length@std@@8
rdata$r	ENDS
;	COMDAT ??_R1A@?0A@EA@exception@std@@8
rdata$r	SEGMENT
??_R1A@?0A@EA@exception@std@@8 DD FLAT:??_R0?AVexception@std@@@8 ; std::exception::`RTTI Base Class Descriptor at (0,-1,0,64)'
	DD	00H
	DD	00H
	DD	0ffffffffH
	DD	00H
	DD	040H
	DD	FLAT:??_R3exception@std@@8
rdata$r	ENDS
;	COMDAT ??_R2exception@std@@8
rdata$r	SEGMENT
??_R2exception@std@@8 DD FLAT:??_R1A@?0A@EA@exception@std@@8 ; std::exception::`RTTI Base Class Array'
rdata$r	ENDS
;	COMDAT ??_R3exception@std@@8
rdata$r	SEGMENT
??_R3exception@std@@8 DD 00H				; std::exception::`RTTI Class Hierarchy Descriptor'
	DD	00H
	DD	01H
	DD	FLAT:??_R2exception@std@@8
rdata$r	ENDS
;	COMDAT ??_R4exception@std@@6B@
rdata$r	SEGMENT
??_R4exception@std@@6B@ DD 00H				; std::exception::`RTTI Complete Object Locator'
	DD	00H
	DD	00H
	DD	FLAT:??_R0?AVexception@std@@@8
	DD	FLAT:??_R3exception@std@@8
rdata$r	ENDS
;	COMDAT ??_C@_0BA@FOIKENOD@vector?5too?5long@
CONST	SEGMENT
??_C@_0BA@FOIKENOD@vector?5too?5long@ DB 'vector too long', 00H ; `string'
CONST	ENDS
;	COMDAT ??_7CPocketController@@6B@
CONST	SEGMENT
??_7CPocketController@@6B@ DD FLAT:??_R4CPocketController@@6B@ ; CPocketController::`vftable'
	DD	FLAT:??_ECPocketController@@UAEPAXI@Z
CONST	ENDS
;	COMDAT ??_7CPocket@@6B@
CONST	SEGMENT
??_7CPocket@@6B@ DD FLAT:??_R4CPocket@@6B@		; CPocket::`vftable'
	DD	FLAT:??_ECPocket@@UAEPAXI@Z
CONST	ENDS
;	COMDAT ??_7?$CItemContainer@VCItemElem@@@@6B@
CONST	SEGMENT
??_7?$CItemContainer@VCItemElem@@@@6B@ DD FLAT:??_R4?$CItemContainer@VCItemElem@@@@6B@ ; CItemContainer<CItemElem>::`vftable'
	DD	FLAT:??_E?$CItemContainer@VCItemElem@@@@UAEPAXI@Z
CONST	ENDS
;	COMDAT ??_C@_0BI@BEIFNGEL@GetItemProp?5range_error@
CONST	SEGMENT
??_C@_0BI@BEIFNGEL@GetItemProp?5range_error@ DB 'GetItemProp range_error', 00H ; `string'
CONST	ENDS
;	COMDAT ??_C@_0BM@HMFGHCP@?$CFs?5min?3?$CFd?0?5max?3?$CFd?0?5index?3?$CFd@
CONST	SEGMENT
??_C@_0BM@HMFGHCP@?$CFs?5min?3?$CFd?0?5max?3?$CFd?0?5index?3?$CFd@ DB '%s'
	DB	' min:%d, max:%d, index:%d', 00H		; `string'
CONST	ENDS
;	COMDAT __CT??_R0?AVbad_alloc@std@@@8??0bad_alloc@std@@QAE@ABV01@@Z12
xdata$x	SEGMENT
__CT??_R0?AVbad_alloc@std@@@8??0bad_alloc@std@@QAE@ABV01@@Z12 DD 010H
	DD	FLAT:??_R0?AVbad_alloc@std@@@8
	DD	00H
	DD	0ffffffffH
	ORG $+4
	DD	0cH
	DD	FLAT:??0bad_alloc@std@@QAE@ABV01@@Z
xdata$x	ENDS
;	COMDAT ??_R0?AVbad_alloc@std@@@8
data$r	SEGMENT
??_R0?AVbad_alloc@std@@@8 DD FLAT:??_7type_info@@6B@	; std::bad_alloc `RTTI Type Descriptor'
	DD	00H
	DB	'.?AVbad_alloc@std@@', 00H
data$r	ENDS
;	COMDAT __CT??_R0?AVbad_array_new_length@std@@@8??0bad_array_new_length@std@@QAE@ABV01@@Z12
xdata$x	SEGMENT
__CT??_R0?AVbad_array_new_length@std@@@8??0bad_array_new_length@std@@QAE@ABV01@@Z12 DD 00H
	DD	FLAT:??_R0?AVbad_array_new_length@std@@@8
	DD	00H
	DD	0ffffffffH
	ORG $+4
	DD	0cH
	DD	FLAT:??0bad_array_new_length@std@@QAE@ABV01@@Z
xdata$x	ENDS
;	COMDAT ??_R0?AVbad_array_new_length@std@@@8
data$r	SEGMENT
??_R0?AVbad_array_new_length@std@@@8 DD FLAT:??_7type_info@@6B@ ; std::bad_array_new_length `RTTI Type Descriptor'
	DD	00H
	DB	'.?AVbad_array_new_length@std@@', 00H
data$r	ENDS
;	COMDAT __CTA3?AVbad_array_new_length@std@@
xdata$x	SEGMENT
__CTA3?AVbad_array_new_length@std@@ DD 03H
	DD	FLAT:__CT??_R0?AVbad_array_new_length@std@@@8??0bad_array_new_length@std@@QAE@ABV01@@Z12
	DD	FLAT:__CT??_R0?AVbad_alloc@std@@@8??0bad_alloc@std@@QAE@ABV01@@Z12
	DD	FLAT:__CT??_R0?AVexception@std@@@8??0exception@std@@QAE@ABV01@@Z12
xdata$x	ENDS
;	COMDAT __TI3?AVbad_array_new_length@std@@
xdata$x	SEGMENT
__TI3?AVbad_array_new_length@std@@ DD 00H
	DD	FLAT:??1bad_array_new_length@std@@UAE@XZ
	DD	00H
	DD	FLAT:__CTA3?AVbad_array_new_length@std@@
xdata$x	ENDS
;	COMDAT __CT??_R0?AVexception@std@@@8??0exception@std@@QAE@ABV01@@Z12
xdata$x	SEGMENT
__CT??_R0?AVexception@std@@@8??0exception@std@@QAE@ABV01@@Z12 DD 00H
	DD	FLAT:??_R0?AVexception@std@@@8
	DD	00H
	DD	0ffffffffH
	ORG $+4
	DD	0cH
	DD	FLAT:??0exception@std@@QAE@ABV01@@Z
xdata$x	ENDS
;	COMDAT ??_R0?AVexception@std@@@8
data$r	SEGMENT
??_R0?AVexception@std@@@8 DD FLAT:??_7type_info@@6B@	; std::exception `RTTI Type Descriptor'
	DD	00H
	DB	'.?AVexception@std@@', 00H
data$r	ENDS
;	COMDAT ??_C@_0BF@KINCDENJ@bad?5array?5new?5length@
CONST	SEGMENT
??_C@_0BF@KINCDENJ@bad?5array?5new?5length@ DB 'bad array new length', 00H ; `string'
CONST	ENDS
;	COMDAT ??_7bad_array_new_length@std@@6B@
CONST	SEGMENT
??_7bad_array_new_length@std@@6B@ DD FLAT:??_R4bad_array_new_length@std@@6B@ ; std::bad_array_new_length::`vftable'
	DD	FLAT:??_Ebad_array_new_length@std@@UAEPAXI@Z
	DD	FLAT:?what@exception@std@@UBEPBDXZ
CONST	ENDS
;	COMDAT ??_7bad_alloc@std@@6B@
CONST	SEGMENT
??_7bad_alloc@std@@6B@ DD FLAT:??_R4bad_alloc@std@@6B@	; std::bad_alloc::`vftable'
	DD	FLAT:??_Ebad_alloc@std@@UAEPAXI@Z
	DD	FLAT:?what@exception@std@@UBEPBDXZ
CONST	ENDS
;	COMDAT ??_C@_0BC@EOODALEL@Unknown?5exception@
CONST	SEGMENT
??_C@_0BC@EOODALEL@Unknown?5exception@ DB 'Unknown exception', 00H ; `string'
CONST	ENDS
;	COMDAT ??_7exception@std@@6B@
CONST	SEGMENT
??_7exception@std@@6B@ DD FLAT:??_R4exception@std@@6B@	; std::exception::`vftable'
	DD	FLAT:??_Eexception@std@@UAEPAXI@Z
	DD	FLAT:?what@exception@std@@UBEPBDXZ
CONST	ENDS
;	COMDAT xdata$x
xdata$x	SEGMENT
__unwindtable$?SetItemContainer@?$CItemContainer@VCItemElem@@@@QAEXKKK@Z DD 0ffffffffH
	DD	FLAT:__unwindfunclet$?SetItemContainer@?$CItemContainer@VCItemElem@@@@QAEXKKK@Z$0
__ehfuncinfo$?SetItemContainer@?$CItemContainer@VCItemElem@@@@QAEXKKK@Z DD 019930522H
	DD	01H
	DD	FLAT:__unwindtable$?SetItemContainer@?$CItemContainer@VCItemElem@@@@QAEXKKK@Z
	DD	2 DUP(00H)
	DD	2 DUP(00H)
	DD	00H
	DD	01H
xdata$x	ENDS
;	COMDAT xdata$x
xdata$x	SEGMENT
__ehfuncinfo$??_ECItemElem@@UAEPAXI@Z DD 019930522H
	DD	00H
	DD	00H
	DD	2 DUP(00H)
	DD	2 DUP(00H)
	DD	00H
	DD	05H
xdata$x	ENDS
; Function compile flags: /Ogtp
; File C:\Program Files\Microsoft Visual Studio\2022\Professional\VC\Tools\MSVC\14.44.35207\include\xutility
;	COMDAT ??$_Copy_memmove_tail@PAU_PocketController_Result@@@std@@YAPAU_PocketController_Result@@QBDQAU1@II@Z
_TEXT	SEGMENT
__First_ch$ = 8						; size = 4
__Dest$ = 12						; size = 4
__Byte_count$ = 16					; size = 4
__Object_count$ = 20					; size = 4
??$_Copy_memmove_tail@PAU_PocketController_Result@@@std@@YAPAU_PocketController_Result@@QBDQAU1@II@Z PROC ; std::_Copy_memmove_tail<_PocketController_Result *>, COMDAT

; 4747 :     const char* const _First_ch, const _OutCtgIt _Dest, const size_t _Byte_count, const size_t _Object_count) {

  00000	55		 push	 ebp
  00001	8b ec		 mov	 ebp, esp
  00003	56		 push	 esi

; 4748 :     _STL_INTERNAL_CHECK(_Byte_count == _Object_count * sizeof(*_Dest));
; 4749 :     const auto _Dest_ptr = _STD _To_address(_Dest);
; 4750 :     const auto _Dest_ch  = const_cast<char*>(reinterpret_cast<const volatile char*>(_Dest_ptr));
; 4751 :     _CSTD memmove(_Dest_ch, _First_ch, _Byte_count);

  00004	8b 75 0c	 mov	 esi, DWORD PTR __Dest$[ebp]
  00007	57		 push	 edi
  00008	8b 7d 10	 mov	 edi, DWORD PTR __Byte_count$[ebp]
  0000b	57		 push	 edi
  0000c	ff 75 08	 push	 DWORD PTR __First_ch$[ebp]
  0000f	56		 push	 esi
  00010	e8 00 00 00 00	 call	 _memmove
  00015	83 c4 0c	 add	 esp, 12			; 0000000cH

; 4752 :     if constexpr (is_pointer_v<_OutCtgIt>) {
; 4753 :         (void) _Object_count;
; 4754 :         // CodeQL [SM02986] This cast is correct: we're bypassing pointer arithmetic for performance.
; 4755 :         return reinterpret_cast<_OutCtgIt>(_Dest_ch + _Byte_count);

  00018	8d 04 3e	 lea	 eax, DWORD PTR [esi+edi]
  0001b	5f		 pop	 edi
  0001c	5e		 pop	 esi

; 4756 :     } else {
; 4757 :         return _Dest + static_cast<_Iter_diff_t<_OutCtgIt>>(_Object_count);
; 4758 :     }
; 4759 : }

  0001d	5d		 pop	 ebp
  0001e	c3		 ret	 0
??$_Copy_memmove_tail@PAU_PocketController_Result@@@std@@YAPAU_PocketController_Result@@QBDQAU1@II@Z ENDP ; std::_Copy_memmove_tail<_PocketController_Result *>
_TEXT	ENDS
; Function compile flags: /Ogtp
; File C:\Program Files\Microsoft Visual Studio\2022\Professional\VC\Tools\MSVC\14.44.35207\include\xutility
;	COMDAT ??$_Copy_memmove@PAU_PocketController_Result@@PAU1@@std@@YAPAU_PocketController_Result@@PAU1@00@Z
_TEXT	SEGMENT
__First$ = 8						; size = 4
__Last$ = 12						; size = 4
__Dest$ = 16						; size = 4
??$_Copy_memmove@PAU_PocketController_Result@@PAU1@@std@@YAPAU_PocketController_Result@@PAU1@00@Z PROC ; std::_Copy_memmove<_PocketController_Result *,_PocketController_Result *>, COMDAT

; 4762 : _OutCtgIt _Copy_memmove(_CtgIt _First, _CtgIt _Last, _OutCtgIt _Dest) {

  00000	55		 push	 ebp
  00001	8b ec		 mov	 ebp, esp

; 4763 :     _STL_INTERNAL_CHECK(_First <= _Last);
; 4764 :     const auto _First_ptr    = _STD _To_address(_First);
; 4765 :     const auto _Last_ptr     = _STD _To_address(_Last);
; 4766 :     const auto _Object_count = static_cast<size_t>(_Last_ptr - _First_ptr);

  00003	8b 4d 0c	 mov	 ecx, DWORD PTR __Last$[ebp]
  00006	b8 ab aa aa 2a	 mov	 eax, 715827883		; 2aaaaaabH
  0000b	2b 4d 08	 sub	 ecx, DWORD PTR __First$[ebp]
  0000e	f7 e9		 imul	 ecx
  00010	d1 fa		 sar	 edx, 1
  00012	8b c2		 mov	 eax, edx
  00014	c1 e8 1f	 shr	 eax, 31			; 0000001fH
  00017	03 c2		 add	 eax, edx

; 4767 :     const auto _First_ch     = const_cast<const char*>(reinterpret_cast<const volatile char*>(_First_ptr));
; 4768 :     const auto _Last_ch      = const_cast<const char*>(reinterpret_cast<const volatile char*>(_Last_ptr));
; 4769 :     const auto _Byte_count   = static_cast<size_t>(_Last_ch - _First_ch);
; 4770 :     return _STD _Copy_memmove_tail(_First_ch, _STD move(_Dest), _Byte_count, _Object_count);

  00019	50		 push	 eax
  0001a	51		 push	 ecx
  0001b	ff 75 10	 push	 DWORD PTR __Dest$[ebp]
  0001e	ff 75 08	 push	 DWORD PTR __First$[ebp]
  00021	e8 00 00 00 00	 call	 ??$_Copy_memmove_tail@PAU_PocketController_Result@@@std@@YAPAU_PocketController_Result@@QBDQAU1@II@Z ; std::_Copy_memmove_tail<_PocketController_Result *>
  00026	83 c4 10	 add	 esp, 16			; 00000010H

; 4771 : }

  00029	5d		 pop	 ebp
  0002a	c3		 ret	 0
??$_Copy_memmove@PAU_PocketController_Result@@PAU1@@std@@YAPAU_PocketController_Result@@PAU1@00@Z ENDP ; std::_Copy_memmove<_PocketController_Result *,_PocketController_Result *>
_TEXT	ENDS
; Function compile flags: /Ogtp
; File C:\Program Files\Microsoft Visual Studio\2022\Professional\VC\Tools\MSVC\14.44.35207\include\vector
; File C:\Program Files\Microsoft Visual Studio\2022\Professional\VC\Tools\MSVC\14.44.35207\include\xmemory
; File C:\Program Files\Microsoft Visual Studio\2022\Professional\VC\Tools\MSVC\14.44.35207\include\vector
; File C:\Program Files\Microsoft Visual Studio\2022\Professional\VC\Tools\MSVC\14.44.35207\include\xmemory
; File C:\Program Files\Microsoft Visual Studio\2022\Professional\VC\Tools\MSVC\14.44.35207\include\vector
; File C:\Program Files\Microsoft Visual Studio\2022\Professional\VC\Tools\MSVC\14.44.35207\include\xmemory
; File C:\Program Files\Microsoft Visual Studio\2022\Professional\VC\Tools\MSVC\14.44.35207\include\vector
; File C:\Program Files\Microsoft Visual Studio\2022\Professional\VC\Tools\MSVC\14.44.35207\include\xmemory
; File C:\Program Files\Microsoft Visual Studio\2022\Professional\VC\Tools\MSVC\14.44.35207\include\vector
; File C:\Program Files\Microsoft Visual Studio\2022\Professional\VC\Tools\MSVC\14.44.35207\include\xmemory
; File C:\Program Files\Microsoft Visual Studio\2022\Professional\VC\Tools\MSVC\14.44.35207\include\vector
; File C:\Program Files\Microsoft Visual Studio\2022\Professional\VC\Tools\MSVC\14.44.35207\include\xmemory
; File C:\Program Files\Microsoft Visual Studio\2022\Professional\VC\Tools\MSVC\14.44.35207\include\vector
; File C:\Program Files\Microsoft Visual Studio\2022\Professional\VC\Tools\MSVC\14.44.35207\include\xmemory
; File C:\Program Files\Microsoft Visual Studio\2022\Professional\VC\Tools\MSVC\14.44.35207\include\vector
; File C:\Program Files\Microsoft Visual Studio\2022\Professional\VC\Tools\MSVC\14.44.35207\include\xmemory
; File C:\Program Files\Microsoft Visual Studio\2022\Professional\VC\Tools\MSVC\14.44.35207\include\vector
; File C:\Program Files\Microsoft Visual Studio\2022\Professional\VC\Tools\MSVC\14.44.35207\include\xmemory
; File C:\Program Files\Microsoft Visual Studio\2022\Professional\VC\Tools\MSVC\14.44.35207\include\vector
;	COMDAT ??$_Emplace_reallocate@ABU_PocketController_Result@@@?$vector@U_PocketController_Result@@V?$allocator@U_PocketController_Result@@@std@@@std@@AAEPAU_PocketController_Result@@QAU2@ABU2@@Z
_TEXT	SEGMENT
__Oldsize$1$ = -12					; size = 4
__Whereoff$1$ = -8					; size = 4
tv650 = -8						; size = 4
tv652 = -4						; size = 4
__Whereptr$ = 8						; size = 4
_<_Val_0>$ = 12						; size = 4
??$_Emplace_reallocate@ABU_PocketController_Result@@@?$vector@U_PocketController_Result@@V?$allocator@U_PocketController_Result@@@std@@@std@@AAEPAU_PocketController_Result@@QAU2@ABU2@@Z PROC ; std::vector<_PocketController_Result,std::allocator<_PocketController_Result> >::_Emplace_reallocate<_PocketController_Result const &>, COMDAT
; _this$ = ecx

; 875  :     _CONSTEXPR20 pointer _Emplace_reallocate(const pointer _Whereptr, _Valty&&... _Val) {

  00000	55		 push	 ebp
  00001	8b ec		 mov	 ebp, esp
  00003	83 ec 0c	 sub	 esp, 12			; 0000000cH

; 876  :         // reallocate and insert by perfectly forwarding _Val at _Whereptr
; 877  :         _Alty& _Al        = _Getal();
; 878  :         auto& _My_data    = _Mypair._Myval2;
; 879  :         pointer& _Myfirst = _My_data._Myfirst;
; 880  :         pointer& _Mylast  = _My_data._Mylast;
; 881  : 
; 882  :         _STL_INTERNAL_CHECK(_Mylast == _My_data._Myend); // check that we have no unused capacity
; 883  : 
; 884  :         const auto _Whereoff = static_cast<size_type>(_Whereptr - _Myfirst);

  00006	8b 55 08	 mov	 edx, DWORD PTR __Whereptr$[ebp]
  00009	b8 ab aa aa 2a	 mov	 eax, 715827883		; 2aaaaaabH
  0000e	53		 push	 ebx
  0000f	8b d9		 mov	 ebx, ecx
  00011	57		 push	 edi
  00012	8b 3b		 mov	 edi, DWORD PTR [ebx]
  00014	2b d7		 sub	 edx, edi

; 885  :         const auto _Oldsize  = static_cast<size_type>(_Mylast - _Myfirst);

  00016	8b 4b 04	 mov	 ecx, DWORD PTR [ebx+4]
  00019	f7 ea		 imul	 edx
  0001b	2b cf		 sub	 ecx, edi
  0001d	d1 fa		 sar	 edx, 1
  0001f	8b c2		 mov	 eax, edx
  00021	c1 e8 1f	 shr	 eax, 31			; 0000001fH
  00024	03 c2		 add	 eax, edx
  00026	89 45 f8	 mov	 DWORD PTR __Whereoff$1$[ebp], eax
  00029	b8 ab aa aa 2a	 mov	 eax, 715827883		; 2aaaaaabH
  0002e	f7 e9		 imul	 ecx
  00030	d1 fa		 sar	 edx, 1
  00032	8b c2		 mov	 eax, edx
  00034	c1 e8 1f	 shr	 eax, 31			; 0000001fH
  00037	03 c2		 add	 eax, edx
  00039	89 45 f4	 mov	 DWORD PTR __Oldsize$1$[ebp], eax

; 886  : 
; 887  :         if (_Oldsize == max_size()) {

  0003c	3d 55 55 55 15	 cmp	 eax, 357913941		; 15555555H
  00041	0f 84 42 01 00
	00		 je	 $LN119@Emplace_re

; 1924 :         return static_cast<size_type>(_My_data._Myend - _My_data._Myfirst);

  00047	8b 4b 08	 mov	 ecx, DWORD PTR [ebx+8]
  0004a	2b cf		 sub	 ecx, edi
  0004c	56		 push	 esi

; 889  :         }
; 890  : 
; 891  :         const size_type _Newsize = _Oldsize + 1;

  0004d	8d 70 01	 lea	 esi, DWORD PTR [eax+1]

; 1924 :         return static_cast<size_type>(_My_data._Myend - _My_data._Myfirst);

  00050	b8 ab aa aa 2a	 mov	 eax, 715827883		; 2aaaaaabH
  00055	f7 e9		 imul	 ecx

; 2011 :         if (_Oldcapacity > _Max - _Oldcapacity / 2) {

  00057	b8 55 55 55 15	 mov	 eax, 357913941		; 15555555H

; 1924 :         return static_cast<size_type>(_My_data._Myend - _My_data._Myfirst);

  0005c	d1 fa		 sar	 edx, 1
  0005e	8b ca		 mov	 ecx, edx
  00060	c1 e9 1f	 shr	 ecx, 31			; 0000001fH
  00063	03 ca		 add	 ecx, edx

; 2011 :         if (_Oldcapacity > _Max - _Oldcapacity / 2) {

  00065	8b d1		 mov	 edx, ecx
  00067	d1 ea		 shr	 edx, 1
  00069	2b c2		 sub	 eax, edx
  0006b	3b c8		 cmp	 ecx, eax
  0006d	76 14		 jbe	 SHORT $LN8@Emplace_re

; 2012 :             return _Max; // geometric growth would overflow

  0006f	b8 fc ff ff ff	 mov	 eax, -4			; fffffffcH
  00074	c7 45 fc fc ff
	ff ff		 mov	 DWORD PTR tv652[ebp], -4 ; fffffffcH
; File C:\Program Files\Microsoft Visual Studio\2022\Professional\VC\Tools\MSVC\14.44.35207\include\xmemory

; 253  :             return _Allocate_manually_vector_aligned<_Traits>(_Bytes);

  0007b	50		 push	 eax
  0007c	e8 00 00 00 00	 call	 ??$_Allocate_manually_vector_aligned@U_Default_allocate_traits@std@@@std@@YAPAXI@Z ; std::_Allocate_manually_vector_aligned<std::_Default_allocate_traits>
  00081	eb 3e		 jmp	 SHORT $LN117@Emplace_re
$LN8@Emplace_re:
; File C:\Program Files\Microsoft Visual Studio\2022\Professional\VC\Tools\MSVC\14.44.35207\include\vector

; 2015 :         const size_type _Geometric = _Oldcapacity + _Oldcapacity / 2;

  00083	8d 04 0a	 lea	 eax, DWORD PTR [edx+ecx]
; File C:\Program Files\Microsoft Visual Studio\2022\Professional\VC\Tools\MSVC\14.44.35207\include\xmemory

; 117  :         if (_Count > _Max_possible) {

  00086	8b ce		 mov	 ecx, esi
  00088	3b c6		 cmp	 eax, esi
  0008a	0f 43 c8	 cmovae	 ecx, eax
  0008d	81 f9 55 55 55
	15		 cmp	 ecx, 357913941		; 15555555H
  00093	0f 87 f5 00 00
	00		 ja	 $LN120@Emplace_re

; 119  :         }
; 120  :     }
; 121  : 
; 122  :     return _Count * _Ty_size;

  00099	8d 34 49	 lea	 esi, DWORD PTR [ecx+ecx*2]
  0009c	c1 e6 02	 shl	 esi, 2

; 990  :         return static_cast<_Ty*>(_STD _Allocate<_New_alignof<_Ty>>(_Get_size_of_n<sizeof(_Ty)>(_Count)));

  0009f	8b c6		 mov	 eax, esi

; 122  :     return _Count * _Ty_size;

  000a1	89 75 fc	 mov	 DWORD PTR tv652[ebp], esi

; 227  :     if (_Bytes == 0) {

  000a4	85 c0		 test	 eax, eax
  000a6	75 04		 jne	 SHORT $LN23@Emplace_re

; 228  :         return nullptr;

  000a8	33 ff		 xor	 edi, edi
  000aa	eb 1a		 jmp	 SHORT $LN22@Emplace_re
$LN23@Emplace_re:

; 229  :     }
; 230  : 
; 231  : #if _HAS_CXX20 // TRANSITION, GH-1532
; 232  :     if (_STD is_constant_evaluated()) {
; 233  :         return _Traits::_Allocate(_Bytes);
; 234  :     }
; 235  : #endif // _HAS_CXX20
; 236  : 
; 237  : #ifdef __cpp_aligned_new
; 238  :     if constexpr (_Align > __STDCPP_DEFAULT_NEW_ALIGNMENT__) {
; 239  :         size_t _Passed_align = _Align;
; 240  : #if defined(_M_IX86) || defined(_M_X64)
; 241  :         if (_Bytes >= _Big_allocation_threshold) {
; 242  :             // boost the alignment of big allocations to help autovectorization
; 243  :             _Passed_align = (_STD max)(_Align, _Big_allocation_alignment);
; 244  :         }
; 245  : #endif // defined(_M_IX86) || defined(_M_X64)
; 246  :         return _Traits::_Allocate_aligned(_Bytes, _Passed_align);
; 247  :     } else
; 248  : #endif // defined(__cpp_aligned_new)
; 249  :     {
; 250  : #if defined(_M_IX86) || defined(_M_X64)
; 251  :         if (_Bytes >= _Big_allocation_threshold) {

  000ac	3d 00 10 00 00	 cmp	 eax, 4096		; 00001000H
  000b1	72 08		 jb	 SHORT $LN24@Emplace_re

; 253  :             return _Allocate_manually_vector_aligned<_Traits>(_Bytes);

  000b3	50		 push	 eax
  000b4	e8 00 00 00 00	 call	 ??$_Allocate_manually_vector_aligned@U_Default_allocate_traits@std@@@std@@YAPAXI@Z ; std::_Allocate_manually_vector_aligned<std::_Default_allocate_traits>
  000b9	eb 06		 jmp	 SHORT $LN117@Emplace_re
$LN24@Emplace_re:

; 136  :         return ::operator new(_Bytes);

  000bb	50		 push	 eax
  000bc	e8 00 00 00 00	 call	 ??2@YAPAXI@Z		; operator new
$LN117@Emplace_re:
; File C:\Program Files\Microsoft Visual Studio\2022\Professional\VC\Tools\MSVC\14.44.35207\include\vector

; 900  :         _Alty_traits::construct(_Al, _STD _Unfancy(_Newvec + _Whereoff), _STD forward<_Valty>(_Val)...);

  000c1	8b f8		 mov	 edi, eax
  000c3	83 c4 04	 add	 esp, 4
$LN22@Emplace_re:
  000c6	8b 45 f8	 mov	 eax, DWORD PTR __Whereoff$1$[ebp]

; 903  :         if (_Whereptr == _Mylast) { // at back, provide strong guarantee

  000c9	8b 55 08	 mov	 edx, DWORD PTR __Whereptr$[ebp]
  000cc	8d 04 40	 lea	 eax, DWORD PTR [eax+eax*2]
  000cf	8d 34 87	 lea	 esi, DWORD PTR [edi+eax*4]
; File C:\Program Files\Microsoft Visual Studio\2022\Professional\VC\Tools\MSVC\14.44.35207\include\xmemory

; 732  :         ::new (const_cast<void*>(static_cast<const volatile void*>(_Ptr))) _Objty(_STD forward<_Types>(_Args)...);

  000d2	8b 45 0c	 mov	 eax, DWORD PTR _<_Val_0>$[ebp]
; File C:\Program Files\Microsoft Visual Studio\2022\Professional\VC\Tools\MSVC\14.44.35207\include\vector

; 900  :         _Alty_traits::construct(_Al, _STD _Unfancy(_Newvec + _Whereoff), _STD forward<_Valty>(_Val)...);

  000d5	89 75 f8	 mov	 DWORD PTR tv650[ebp], esi
; File C:\Program Files\Microsoft Visual Studio\2022\Professional\VC\Tools\MSVC\14.44.35207\include\xmemory

; 732  :         ::new (const_cast<void*>(static_cast<const volatile void*>(_Ptr))) _Objty(_STD forward<_Types>(_Args)...);

  000d8	f3 0f 7e 00	 movq	 xmm0, QWORD PTR [eax]
  000dc	66 0f d6 06	 movq	 QWORD PTR [esi], xmm0
  000e0	8b 40 08	 mov	 eax, DWORD PTR [eax+8]
  000e3	89 46 08	 mov	 DWORD PTR [esi+8], eax
; File C:\Program Files\Microsoft Visual Studio\2022\Professional\VC\Tools\MSVC\14.44.35207\include\vector

; 903  :         if (_Whereptr == _Mylast) { // at back, provide strong guarantee

  000e6	8b 4b 04	 mov	 ecx, DWORD PTR [ebx+4]
  000e9	8b 03		 mov	 eax, DWORD PTR [ebx]
  000eb	3b d1		 cmp	 edx, ecx
  000ed	75 04		 jne	 SHORT $LN3@Emplace_re
; File C:\Program Files\Microsoft Visual Studio\2022\Professional\VC\Tools\MSVC\14.44.35207\include\xmemory

; 1992 :             _STD _Copy_memmove(_UFirst, _ULast, _STD _Unfancy(_Dest));

  000ef	8b f7		 mov	 esi, edi
; File C:\Program Files\Microsoft Visual Studio\2022\Professional\VC\Tools\MSVC\14.44.35207\include\vector

; 909  :         } else { // provide basic guarantee

  000f1	eb 14		 jmp	 SHORT $LN58@Emplace_re
$LN3@Emplace_re:
; File C:\Program Files\Microsoft Visual Studio\2022\Professional\VC\Tools\MSVC\14.44.35207\include\xmemory

; 1992 :             _STD _Copy_memmove(_UFirst, _ULast, _STD _Unfancy(_Dest));

  000f3	57		 push	 edi
  000f4	52		 push	 edx
  000f5	50		 push	 eax
  000f6	e8 00 00 00 00	 call	 ??$_Copy_memmove@PAU_PocketController_Result@@PAU1@@std@@YAPAU_PocketController_Result@@PAU1@00@Z ; std::_Copy_memmove<_PocketController_Result *,_PocketController_Result *>
  000fb	8b 45 08	 mov	 eax, DWORD PTR __Whereptr$[ebp]
  000fe	83 c4 0c	 add	 esp, 12			; 0000000cH
  00101	8b 4b 04	 mov	 ecx, DWORD PTR [ebx+4]
; File C:\Program Files\Microsoft Visual Studio\2022\Professional\VC\Tools\MSVC\14.44.35207\include\vector

; 912  :             _STD _Uninitialized_move(_Whereptr, _Mylast, _Newvec + _Whereoff + 1, _Al);

  00104	83 c6 0c	 add	 esi, 12			; 0000000cH
$LN58@Emplace_re:

; 913  :         }
; 914  : 
; 915  :         _Guard._New_begin = nullptr;

  00107	56		 push	 esi
  00108	51		 push	 ecx
  00109	50		 push	 eax
  0010a	e8 00 00 00 00	 call	 ??$_Copy_memmove@PAU_PocketController_Result@@PAU1@@std@@YAPAU_PocketController_Result@@PAU1@00@Z ; std::_Copy_memmove<_PocketController_Result *,_PocketController_Result *>

; 2069 :         if (_Myfirst) { // destroy and deallocate old array

  0010f	8b 33		 mov	 esi, DWORD PTR [ebx]

; 913  :         }
; 914  : 
; 915  :         _Guard._New_begin = nullptr;

  00111	83 c4 0c	 add	 esp, 12			; 0000000cH

; 2069 :         if (_Myfirst) { // destroy and deallocate old array

  00114	85 f6		 test	 esi, esi
  00116	74 3f		 je	 SHORT $LN80@Emplace_re

; 2070 :             _STD _Destroy_range(_Myfirst, _Mylast, _Al);
; 2071 :             _ASAN_VECTOR_REMOVE;
; 2072 :             _Al.deallocate(_Myfirst, static_cast<size_type>(_Myend - _Myfirst));

  00118	8b 4b 08	 mov	 ecx, DWORD PTR [ebx+8]
  0011b	b8 ab aa aa 2a	 mov	 eax, 715827883		; 2aaaaaabH
  00120	2b ce		 sub	 ecx, esi
  00122	f7 e9		 imul	 ecx
  00124	d1 fa		 sar	 edx, 1
  00126	8b c2		 mov	 eax, edx
  00128	c1 e8 1f	 shr	 eax, 31			; 0000001fH
  0012b	03 c2		 add	 eax, edx
; File C:\Program Files\Microsoft Visual Studio\2022\Professional\VC\Tools\MSVC\14.44.35207\include\xmemory

; 985  :         _STD _Deallocate<_New_alignof<_Ty>>(_Ptr, sizeof(_Ty) * _Count);

  0012d	8d 0c 40	 lea	 ecx, DWORD PTR [eax+eax*2]
  00130	c1 e1 02	 shl	 ecx, 2

; 284  :         if (_Bytes >= _Big_allocation_threshold) {

  00133	81 f9 00 10 00
	00		 cmp	 ecx, 4096		; 00001000H
  00139	72 12		 jb	 SHORT $LN85@Emplace_re

; 205  :     const uintptr_t _Ptr_container   = _Ptr_user[-1];

  0013b	8b 56 fc	 mov	 edx, DWORD PTR [esi-4]
  0013e	83 c1 23	 add	 ecx, 35			; 00000023H

; 206  : 
; 207  :     // If the following asserts, it likely means that we are performing
; 208  :     // an aligned delete on memory coming from an unaligned allocation.
; 209  :     _STL_ASSERT(_Ptr_user[-2] == _Big_allocation_sentinel, "invalid argument");
; 210  : 
; 211  :     // Extra paranoia on aligned allocation/deallocation; ensure _Ptr_container is
; 212  :     // in range [_Min_back_shift, _Non_user_size]
; 213  : #ifdef _DEBUG
; 214  :     constexpr uintptr_t _Min_back_shift = 2 * sizeof(void*);
; 215  : #else // ^^^ defined(_DEBUG) / !defined(_DEBUG) vvv
; 216  :     constexpr uintptr_t _Min_back_shift = sizeof(void*);
; 217  : #endif // ^^^ !defined(_DEBUG) ^^^
; 218  :     const uintptr_t _Back_shift = reinterpret_cast<uintptr_t>(_Ptr) - _Ptr_container;

  00141	2b f2		 sub	 esi, edx

; 219  :     _STL_VERIFY(_Back_shift >= _Min_back_shift && _Back_shift <= _Non_user_size, "invalid argument");

  00143	8d 46 fc	 lea	 eax, DWORD PTR [esi-4]
  00146	83 f8 1f	 cmp	 eax, 31			; 0000001fH
  00149	77 2f		 ja	 SHORT $LN84@Emplace_re

; 220  :     _Ptr = reinterpret_cast<void*>(_Ptr_container);

  0014b	8b f2		 mov	 esi, edx
$LN85@Emplace_re:

; 289  :         ::operator delete(_Ptr, _Bytes);

  0014d	51		 push	 ecx
  0014e	56		 push	 esi
  0014f	e8 00 00 00 00	 call	 ??3@YAXPAXI@Z		; operator delete
  00154	83 c4 08	 add	 esp, 8
$LN80@Emplace_re:
; File C:\Program Files\Microsoft Visual Studio\2022\Professional\VC\Tools\MSVC\14.44.35207\include\vector

; 2076 :         _Mylast  = _Newvec + _Newsize;

  00157	8b 45 f4	 mov	 eax, DWORD PTR __Oldsize$1$[ebp]
  0015a	40		 inc	 eax
  0015b	89 3b		 mov	 DWORD PTR [ebx], edi

; 916  :         _Change_array(_Newvec, _Newsize, _Newcapacity);
; 917  :         return _Newvec + _Whereoff;

  0015d	5e		 pop	 esi

; 2076 :         _Mylast  = _Newvec + _Newsize;

  0015e	8d 0c 40	 lea	 ecx, DWORD PTR [eax+eax*2]

; 916  :         _Change_array(_Newvec, _Newsize, _Newcapacity);
; 917  :         return _Newvec + _Whereoff;

  00161	8b 45 f8	 mov	 eax, DWORD PTR tv650[ebp]

; 2076 :         _Mylast  = _Newvec + _Newsize;

  00164	8d 0c 8f	 lea	 ecx, DWORD PTR [edi+ecx*4]
  00167	89 4b 04	 mov	 DWORD PTR [ebx+4], ecx

; 2077 :         _Myend   = _Newvec + _Newcapacity;

  0016a	8b 4d fc	 mov	 ecx, DWORD PTR tv652[ebp]
  0016d	03 cf		 add	 ecx, edi

; 918  :     }

  0016f	5f		 pop	 edi

; 2077 :         _Myend   = _Newvec + _Newcapacity;

  00170	89 4b 08	 mov	 DWORD PTR [ebx+8], ecx

; 918  :     }

  00173	5b		 pop	 ebx
  00174	8b e5		 mov	 esp, ebp
  00176	5d		 pop	 ebp
  00177	c2 08 00	 ret	 8
$LN84@Emplace_re:
; File C:\Program Files\Microsoft Visual Studio\2022\Professional\VC\Tools\MSVC\14.44.35207\include\xmemory

; 219  :     _STL_VERIFY(_Back_shift >= _Min_back_shift && _Back_shift <= _Non_user_size, "invalid argument");

  0017a	6a 00		 push	 0
  0017c	6a 00		 push	 0
  0017e	6a 00		 push	 0
  00180	6a 00		 push	 0
  00182	6a 00		 push	 0
  00184	e8 00 00 00 00	 call	 __invoke_watson
$LN119@Emplace_re:
; File C:\Program Files\Microsoft Visual Studio\2022\Professional\VC\Tools\MSVC\14.44.35207\include\vector

; 888  :             _Xlength();

  00189	e8 00 00 00 00	 call	 ?_Xlength@?$vector@U_PocketController_Result@@V?$allocator@U_PocketController_Result@@@std@@@std@@CAXXZ ; std::vector<_PocketController_Result,std::allocator<_PocketController_Result> >::_Xlength
$LN120@Emplace_re:
; File C:\Program Files\Microsoft Visual Studio\2022\Professional\VC\Tools\MSVC\14.44.35207\include\xmemory

; 118  :             _Throw_bad_array_new_length(); // multiply overflow

  0018e	e8 00 00 00 00	 call	 ?_Throw_bad_array_new_length@std@@YAXXZ ; std::_Throw_bad_array_new_length
$LN116@Emplace_re:
  00193	cc		 int	 3
??$_Emplace_reallocate@ABU_PocketController_Result@@@?$vector@U_PocketController_Result@@V?$allocator@U_PocketController_Result@@@std@@@std@@AAEPAU_PocketController_Result@@QAU2@ABU2@@Z ENDP ; std::vector<_PocketController_Result,std::allocator<_PocketController_Result> >::_Emplace_reallocate<_PocketController_Result const &>
_TEXT	ENDS
; Function compile flags: /Ogtp
; File C:\IAGOS\server\v18\Source\Source\_Network\Misc\Include\ar.h
;	COMDAT ??$?5E@CAr@@QAEAAV0@AAE@Z
_TEXT	SEGMENT
_t$ = 8							; size = 4
??$?5E@CAr@@QAEAAV0@AAE@Z PROC				; CAr::operator>><unsigned char>, COMDAT
; _this$ = ecx

; 302  : {

  00000	55		 push	 ebp
  00001	8b ec		 mov	 ebp, esp
  00003	8b d1		 mov	 edx, ecx

; 303  : 	if (m_lpBufCur + sizeof(T) <= m_lpBufMax)

  00005	8b 4a 08	 mov	 ecx, DWORD PTR [edx+8]
  00008	8d 41 01	 lea	 eax, DWORD PTR [ecx+1]
  0000b	3b 42 0c	 cmp	 eax, DWORD PTR [edx+12]
  0000e	8b 45 08	 mov	 eax, DWORD PTR _t$[ebp]
  00011	77 0d		 ja	 SHORT $LN2@operator

; 304  : 	{
; 305  : 		t = *(UNALIGNED T*)m_lpBufCur;

  00013	8a 09		 mov	 cl, BYTE PTR [ecx]
  00015	88 08		 mov	 BYTE PTR [eax], cl

; 312  : 	}
; 313  : 	return *this;
; 314  : }

  00017	8b c2		 mov	 eax, edx
  00019	ff 42 08	 inc	 DWORD PTR [edx+8]
  0001c	5d		 pop	 ebp
  0001d	c2 04 00	 ret	 4
$LN2@operator:

; 306  : 		m_lpBufCur += sizeof(T);
; 307  : 	}
; 308  : 	else
; 309  : 	{
; 310  : 		t = T();

  00020	c6 00 00	 mov	 BYTE PTR [eax], 0

; 311  : 		m_lpBufCur = m_lpBufMax;

  00023	8b 42 0c	 mov	 eax, DWORD PTR [edx+12]
  00026	89 42 08	 mov	 DWORD PTR [edx+8], eax

; 312  : 	}
; 313  : 	return *this;
; 314  : }

  00029	8b c2		 mov	 eax, edx
  0002b	5d		 pop	 ebp
  0002c	c2 04 00	 ret	 4
??$?5E@CAr@@QAEAAV0@AAE@Z ENDP				; CAr::operator>><unsigned char>
_TEXT	ENDS
; Function compile flags: /Ogtp
; File C:\IAGOS\server\v18\Source\Source\_Network\Misc\Include\ar.h
;	COMDAT ??$?6E@CAr@@QAEAAV0@ABE@Z
_TEXT	SEGMENT
_t$ = 8							; size = 4
??$?6E@CAr@@QAEAAV0@ABE@Z PROC				; CAr::operator<<<unsigned char>, COMDAT
; _this$ = ecx

; 255  : {

  00000	55		 push	 ebp
  00001	8b ec		 mov	 ebp, esp
  00003	56		 push	 esi

; 256  : 	CheckBuf(sizeof(T));

  00004	6a 01		 push	 1
  00006	8b f1		 mov	 esi, ecx
  00008	e8 00 00 00 00	 call	 ?CheckBuf@CAr@@QAEXI@Z	; CAr::CheckBuf

; 257  : 	*(UNALIGNED T*)m_lpBufCur = t;

  0000d	8b 45 08	 mov	 eax, DWORD PTR _t$[ebp]
  00010	8b 56 08	 mov	 edx, DWORD PTR [esi+8]
  00013	8a 00		 mov	 al, BYTE PTR [eax]
  00015	88 02		 mov	 BYTE PTR [edx], al

; 258  : 	m_lpBufCur += sizeof(T);
; 259  : 	return *this;

  00017	8b c6		 mov	 eax, esi
  00019	ff 46 08	 inc	 DWORD PTR [esi+8]
  0001c	5e		 pop	 esi

; 260  : }

  0001d	5d		 pop	 ebp
  0001e	c2 04 00	 ret	 4
??$?6E@CAr@@QAEAAV0@ABE@Z ENDP				; CAr::operator<<<unsigned char>
_TEXT	ENDS
; Function compile flags: /Ogtp
; File C:\Program Files\Microsoft Visual Studio\2022\Professional\VC\Tools\MSVC\14.44.35207\include\vector
;	COMDAT ?_Xlength@?$vector@U_PocketController_Result@@V?$allocator@U_PocketController_Result@@@std@@@std@@CAXXZ
_TEXT	SEGMENT
?_Xlength@?$vector@U_PocketController_Result@@V?$allocator@U_PocketController_Result@@@std@@@std@@CAXXZ PROC ; std::vector<_PocketController_Result,std::allocator<_PocketController_Result> >::_Xlength, COMDAT

; 2184 :         _Xlength_error("vector too long");

  00000	68 00 00 00 00	 push	 OFFSET ??_C@_0BA@FOIKENOD@vector?5too?5long@
  00005	e8 00 00 00 00	 call	 ?_Xlength_error@std@@YAXPBD@Z ; std::_Xlength_error
$LN3@Xlength:
  0000a	cc		 int	 3
?_Xlength@?$vector@U_PocketController_Result@@V?$allocator@U_PocketController_Result@@@std@@@std@@CAXXZ ENDP ; std::vector<_PocketController_Result,std::allocator<_PocketController_Result> >::_Xlength
_TEXT	ENDS
; Function compile flags: /Ogtp
; File C:\IAGOS\server\v18\Source\Source\_Network\Misc\Include\ar.h
;	COMDAT ??$?5J@CAr@@QAEAAV0@AAJ@Z
_TEXT	SEGMENT
_t$ = 8							; size = 4
??$?5J@CAr@@QAEAAV0@AAJ@Z PROC				; CAr::operator>><long>, COMDAT
; _this$ = ecx

; 302  : {

  00000	55		 push	 ebp
  00001	8b ec		 mov	 ebp, esp
  00003	8b d1		 mov	 edx, ecx

; 303  : 	if (m_lpBufCur + sizeof(T) <= m_lpBufMax)

  00005	8b 4a 08	 mov	 ecx, DWORD PTR [edx+8]
  00008	8d 41 04	 lea	 eax, DWORD PTR [ecx+4]
  0000b	3b 42 0c	 cmp	 eax, DWORD PTR [edx+12]
  0000e	8b 45 08	 mov	 eax, DWORD PTR _t$[ebp]
  00011	77 0e		 ja	 SHORT $LN2@operator

; 304  : 	{
; 305  : 		t = *(UNALIGNED T*)m_lpBufCur;

  00013	8b 09		 mov	 ecx, DWORD PTR [ecx]
  00015	89 08		 mov	 DWORD PTR [eax], ecx

; 312  : 	}
; 313  : 	return *this;
; 314  : }

  00017	8b c2		 mov	 eax, edx
  00019	83 42 08 04	 add	 DWORD PTR [edx+8], 4
  0001d	5d		 pop	 ebp
  0001e	c2 04 00	 ret	 4
$LN2@operator:

; 306  : 		m_lpBufCur += sizeof(T);
; 307  : 	}
; 308  : 	else
; 309  : 	{
; 310  : 		t = T();

  00021	c7 00 00 00 00
	00		 mov	 DWORD PTR [eax], 0

; 311  : 		m_lpBufCur = m_lpBufMax;

  00027	8b 42 0c	 mov	 eax, DWORD PTR [edx+12]
  0002a	89 42 08	 mov	 DWORD PTR [edx+8], eax

; 312  : 	}
; 313  : 	return *this;
; 314  : }

  0002d	8b c2		 mov	 eax, edx
  0002f	5d		 pop	 ebp
  00030	c2 04 00	 ret	 4
??$?5J@CAr@@QAEAAV0@AAJ@Z ENDP				; CAr::operator>><long>
_TEXT	ENDS
; Function compile flags: /Ogtp
; File C:\IAGOS\server\v18\Source\Source\_Network\Misc\Include\ar.h
;	COMDAT ??$?6J@CAr@@QAEAAV0@ABJ@Z
_TEXT	SEGMENT
_t$ = 8							; size = 4
??$?6J@CAr@@QAEAAV0@ABJ@Z PROC				; CAr::operator<<<long>, COMDAT
; _this$ = ecx

; 255  : {

  00000	55		 push	 ebp
  00001	8b ec		 mov	 ebp, esp
  00003	56		 push	 esi

; 256  : 	CheckBuf(sizeof(T));

  00004	6a 04		 push	 4
  00006	8b f1		 mov	 esi, ecx
  00008	e8 00 00 00 00	 call	 ?CheckBuf@CAr@@QAEXI@Z	; CAr::CheckBuf

; 257  : 	*(UNALIGNED T*)m_lpBufCur = t;

  0000d	8b 56 08	 mov	 edx, DWORD PTR [esi+8]
  00010	8b 45 08	 mov	 eax, DWORD PTR _t$[ebp]
  00013	8b 00		 mov	 eax, DWORD PTR [eax]
  00015	89 02		 mov	 DWORD PTR [edx], eax

; 258  : 	m_lpBufCur += sizeof(T);
; 259  : 	return *this;

  00017	8b c6		 mov	 eax, esi
  00019	83 46 08 04	 add	 DWORD PTR [esi+8], 4
  0001d	5e		 pop	 esi

; 260  : }

  0001e	5d		 pop	 ebp
  0001f	c2 04 00	 ret	 4
??$?6J@CAr@@QAEAAV0@ABJ@Z ENDP				; CAr::operator<<<long>
_TEXT	ENDS
; Function compile flags: /Ogtp
; File C:\IAGOS\server\v18\Source\Source\_Network\Misc\Include\ar.h
;	COMDAT ??$?5H@CAr@@QAEAAV0@AAH@Z
_TEXT	SEGMENT
_t$ = 8							; size = 4
??$?5H@CAr@@QAEAAV0@AAH@Z PROC				; CAr::operator>><int>, COMDAT
; _this$ = ecx

; 302  : {

  00000	55		 push	 ebp
  00001	8b ec		 mov	 ebp, esp
  00003	8b d1		 mov	 edx, ecx

; 303  : 	if (m_lpBufCur + sizeof(T) <= m_lpBufMax)

  00005	8b 4a 08	 mov	 ecx, DWORD PTR [edx+8]
  00008	8d 41 04	 lea	 eax, DWORD PTR [ecx+4]
  0000b	3b 42 0c	 cmp	 eax, DWORD PTR [edx+12]
  0000e	8b 45 08	 mov	 eax, DWORD PTR _t$[ebp]
  00011	77 0e		 ja	 SHORT $LN2@operator

; 304  : 	{
; 305  : 		t = *(UNALIGNED T*)m_lpBufCur;

  00013	8b 09		 mov	 ecx, DWORD PTR [ecx]
  00015	89 08		 mov	 DWORD PTR [eax], ecx

; 312  : 	}
; 313  : 	return *this;
; 314  : }

  00017	8b c2		 mov	 eax, edx
  00019	83 42 08 04	 add	 DWORD PTR [edx+8], 4
  0001d	5d		 pop	 ebp
  0001e	c2 04 00	 ret	 4
$LN2@operator:

; 306  : 		m_lpBufCur += sizeof(T);
; 307  : 	}
; 308  : 	else
; 309  : 	{
; 310  : 		t = T();

  00021	c7 00 00 00 00
	00		 mov	 DWORD PTR [eax], 0

; 311  : 		m_lpBufCur = m_lpBufMax;

  00027	8b 42 0c	 mov	 eax, DWORD PTR [edx+12]
  0002a	89 42 08	 mov	 DWORD PTR [edx+8], eax

; 312  : 	}
; 313  : 	return *this;
; 314  : }

  0002d	8b c2		 mov	 eax, edx
  0002f	5d		 pop	 ebp
  00030	c2 04 00	 ret	 4
??$?5H@CAr@@QAEAAV0@AAH@Z ENDP				; CAr::operator>><int>
_TEXT	ENDS
; Function compile flags: /Ogtp
; File C:\IAGOS\server\v18\Source\Source\_Network\Misc\Include\ar.h
;	COMDAT ??$?6H@CAr@@QAEAAV0@ABH@Z
_TEXT	SEGMENT
_t$ = 8							; size = 4
??$?6H@CAr@@QAEAAV0@ABH@Z PROC				; CAr::operator<<<int>, COMDAT
; _this$ = ecx

; 255  : {

  00000	55		 push	 ebp
  00001	8b ec		 mov	 ebp, esp
  00003	56		 push	 esi

; 256  : 	CheckBuf(sizeof(T));

  00004	6a 04		 push	 4
  00006	8b f1		 mov	 esi, ecx
  00008	e8 00 00 00 00	 call	 ?CheckBuf@CAr@@QAEXI@Z	; CAr::CheckBuf

; 257  : 	*(UNALIGNED T*)m_lpBufCur = t;

  0000d	8b 56 08	 mov	 edx, DWORD PTR [esi+8]
  00010	8b 45 08	 mov	 eax, DWORD PTR _t$[ebp]
  00013	8b 00		 mov	 eax, DWORD PTR [eax]
  00015	89 02		 mov	 DWORD PTR [edx], eax

; 258  : 	m_lpBufCur += sizeof(T);
; 259  : 	return *this;

  00017	8b c6		 mov	 eax, esi
  00019	83 46 08 04	 add	 DWORD PTR [esi+8], 4
  0001d	5e		 pop	 esi

; 260  : }

  0001e	5d		 pop	 ebp
  0001f	c2 04 00	 ret	 4
??$?6H@CAr@@QAEAAV0@ABH@Z ENDP				; CAr::operator<<<int>
_TEXT	ENDS
; Function compile flags: /Ogtp
; File C:\Program Files\Microsoft Visual Studio\2022\Professional\VC\Tools\MSVC\14.44.35207\include\xmemory
;	COMDAT ??$_Allocate_manually_vector_aligned@U_Default_allocate_traits@std@@@std@@YAPAXI@Z
_TEXT	SEGMENT
__Bytes$ = 8						; size = 4
??$_Allocate_manually_vector_aligned@U_Default_allocate_traits@std@@@std@@YAPAXI@Z PROC ; std::_Allocate_manually_vector_aligned<std::_Default_allocate_traits>, COMDAT

; 182  : __declspec(allocator) void* _Allocate_manually_vector_aligned(const size_t _Bytes) {

  00000	55		 push	 ebp
  00001	8b ec		 mov	 ebp, esp

; 183  :     // allocate _Bytes manually aligned to at least _Big_allocation_alignment
; 184  :     const size_t _Block_size = _Non_user_size + _Bytes;

  00003	8b 45 08	 mov	 eax, DWORD PTR __Bytes$[ebp]
  00006	8d 48 23	 lea	 ecx, DWORD PTR [eax+35]

; 185  :     if (_Block_size <= _Bytes) {

  00009	3b c8		 cmp	 ecx, eax
  0000b	0f 86 00 00 00
	00		 jbe	 ?_Throw_bad_array_new_length@std@@YAXXZ ; std::_Throw_bad_array_new_length

; 136  :         return ::operator new(_Bytes);

  00011	51		 push	 ecx
  00012	e8 00 00 00 00	 call	 ??2@YAPAXI@Z		; operator new

; 186  :         _Throw_bad_array_new_length(); // add overflow
; 187  :     }
; 188  : 
; 189  :     const uintptr_t _Ptr_container = reinterpret_cast<uintptr_t>(_Traits::_Allocate(_Block_size));

  00017	8b c8		 mov	 ecx, eax

; 136  :         return ::operator new(_Bytes);

  00019	83 c4 04	 add	 esp, 4

; 190  :     _STL_VERIFY(_Ptr_container != 0, "invalid argument"); // validate even in release since we're doing p[-1]

  0001c	85 c9		 test	 ecx, ecx
  0001e	74 0b		 je	 SHORT $LN9@Allocate_m

; 191  :     void* const _Ptr = reinterpret_cast<void*>((_Ptr_container + _Non_user_size) & ~(_Big_allocation_alignment - 1));

  00020	8d 41 23	 lea	 eax, DWORD PTR [ecx+35]
  00023	83 e0 e0	 and	 eax, -32		; ffffffe0H

; 192  :     static_cast<uintptr_t*>(_Ptr)[-1] = _Ptr_container;

  00026	89 48 fc	 mov	 DWORD PTR [eax-4], ecx

; 193  : 
; 194  : #ifdef _DEBUG
; 195  :     static_cast<uintptr_t*>(_Ptr)[-2] = _Big_allocation_sentinel;
; 196  : #endif // defined(_DEBUG)
; 197  :     return _Ptr;
; 198  : }

  00029	5d		 pop	 ebp
  0002a	c3		 ret	 0
$LN9@Allocate_m:

; 190  :     _STL_VERIFY(_Ptr_container != 0, "invalid argument"); // validate even in release since we're doing p[-1]

  0002b	6a 00		 push	 0
  0002d	6a 00		 push	 0
  0002f	6a 00		 push	 0
  00031	6a 00		 push	 0
  00033	6a 00		 push	 0
  00035	e8 00 00 00 00	 call	 __invoke_watson
$LN7@Allocate_m:
  0003a	cc		 int	 3
??$_Allocate_manually_vector_aligned@U_Default_allocate_traits@std@@@std@@YAPAXI@Z ENDP ; std::_Allocate_manually_vector_aligned<std::_Default_allocate_traits>
_TEXT	ENDS
; Function compile flags: /Ogtp
;	COMDAT ??_GCPocketController@@UAEPAXI@Z
_TEXT	SEGMENT
___flags$ = 8						; size = 4
??_GCPocketController@@UAEPAXI@Z PROC			; CPocketController::`scalar deleting destructor', COMDAT
; _this$ = ecx
  00000	55		 push	 ebp
  00001	8b ec		 mov	 ebp, esp
  00003	56		 push	 esi
  00004	8b f1		 mov	 esi, ecx
  00006	e8 00 00 00 00	 call	 ??1CPocketController@@UAE@XZ ; CPocketController::~CPocketController
  0000b	f6 45 08 01	 test	 BYTE PTR ___flags$[ebp], 1
  0000f	74 0b		 je	 SHORT $LN5@scalar
  00011	6a 14		 push	 20			; 00000014H
  00013	56		 push	 esi
  00014	e8 00 00 00 00	 call	 ??3@YAXPAXI@Z		; operator delete
  00019	83 c4 08	 add	 esp, 8
$LN5@scalar:
  0001c	8b c6		 mov	 eax, esi
  0001e	5e		 pop	 esi
  0001f	5d		 pop	 ebp
  00020	c2 04 00	 ret	 4
??_GCPocketController@@UAEPAXI@Z ENDP			; CPocketController::`scalar deleting destructor'
_TEXT	ENDS
; Function compile flags: /Ogtp
; File C:\IAGOS\server\v18\Source\Source\_Common\pocket.cpp
; File C:\IAGOS\server\v18\Source\Source\_Common\pocket.h
; File C:\IAGOS\server\v18\Source\Source\_Common\pocket.cpp
;	COMDAT ?GetPocket@CPocketController@@QAEPAVCPocket@@H@Z
_TEXT	SEGMENT
_nPocket$ = 8						; size = 4
?GetPocket@CPocketController@@QAEPAVCPocket@@H@Z PROC	; CPocketController::GetPocket, COMDAT
; _this$ = ecx

; 341  : {

  00000	55		 push	 ebp
  00001	8b ec		 mov	 ebp, esp
; File C:\IAGOS\server\v18\Source\Source\_Common\pocket.h

; 70   : 		{	return( m_apPocket[nPocket] && ( !bExpiration || !m_apPocket[nPocket]->IsExpired() ) );		}

  00003	8b 45 08	 mov	 eax, DWORD PTR _nPocket$[ebp]
  00006	8b 44 81 08	 mov	 eax, DWORD PTR [ecx+eax*4+8]
; File C:\IAGOS\server\v18\Source\Source\_Common\pocket.cpp

; 345  : }

  0000a	5d		 pop	 ebp
  0000b	c2 04 00	 ret	 4
?GetPocket@CPocketController@@QAEPAVCPocket@@H@Z ENDP	; CPocketController::GetPocket
_TEXT	ENDS
; Function compile flags: /Ogtp
; File C:\IAGOS\server\v18\Source\Source\_Common\pocket.cpp
; File C:\IAGOS\server\v18\Source\Source\_Common\Mover.h
; File C:\IAGOS\server\v18\Source\Source\_Common\pocket.cpp
; File C:\IAGOS\server\v18\Source\Source\_Common\pocket.h
; File C:\IAGOS\server\v18\Source\Source\_Common\pocket.cpp
;	COMDAT ?ProcessExpiring@CPocketController@@QAEXXZ
_TEXT	SEGMENT
?ProcessExpiring@CPocketController@@QAEXXZ PROC		; CPocketController::ProcessExpiring, COMDAT
; _this$ = ecx

; 349  : {

  00000	53		 push	 ebx
  00001	8b d9		 mov	 ebx, ecx
; File C:\IAGOS\server\v18\Source\Source\_Common\Mover.h

; 1015 : 	BOOL			IsNPC()				{ return !m_bPlayer; }

  00003	8b 43 04	 mov	 eax, DWORD PTR [ebx+4]
  00006	83 b8 30 02 00
	00 00		 cmp	 DWORD PTR [eax+560], 0
; File C:\IAGOS\server\v18\Source\Source\_Common\pocket.cpp

; 350  : 	if( m_pMover->IsNPC() )

  0000d	74 3e		 je	 SHORT $LN3@ProcessExp

; 351  : 		return;
; 352  : 	CUser* pUser	= (CUser*)m_pMover;
; 353  : 
; 354  : 	for( int i = 1; i < MAX_POCKET; i++ )

  0000f	56		 push	 esi
  00010	57		 push	 edi
  00011	be 01 00 00 00	 mov	 esi, 1
  00016	8d 7b 0c	 lea	 edi, DWORD PTR [ebx+12]
  00019	0f 1f 80 00 00
	00 00		 npad	 7
$LL4@ProcessExp:
; File C:\IAGOS\server\v18\Source\Source\_Common\pocket.h

; 70   : 		{	return( m_apPocket[nPocket] && ( !bExpiration || !m_apPocket[nPocket]->IsExpired() ) );		}

  00020	8b 0f		 mov	 ecx, DWORD PTR [edi]
  00022	85 c9		 test	 ecx, ecx
  00024	74 1c		 je	 SHORT $LN2@ProcessExp
  00026	83 79 14 00	 cmp	 DWORD PTR [ecx+20], 0
  0002a	75 16		 jne	 SHORT $LN2@ProcessExp
; File C:\IAGOS\server\v18\Source\Source\_Common\pocket.cpp

; 358  : 			if( time_null() > m_apPocket[i]->GetExpirationDate() )

  0002c	a1 00 00 00 00	 mov	 eax, DWORD PTR ?g_tCurrent@@3JA ; g_tCurrent
  00031	3b 41 18	 cmp	 eax, DWORD PTR [ecx+24]
  00034	7e 0c		 jle	 SHORT $LN2@ProcessExp

; 359  : 			{
; 360  : 				SetAttribute( expired, i, TRUE );

  00036	6a 01		 push	 1
  00038	56		 push	 esi
  00039	6a 00		 push	 0
  0003b	8b cb		 mov	 ecx, ebx
  0003d	e8 00 00 00 00	 call	 ?SetAttribute@CPocketController@@QAEXHHH@Z ; CPocketController::SetAttribute
$LN2@ProcessExp:

; 351  : 		return;
; 352  : 	CUser* pUser	= (CUser*)m_pMover;
; 353  : 
; 354  : 	for( int i = 1; i < MAX_POCKET; i++ )

  00042	46		 inc	 esi
  00043	83 c7 04	 add	 edi, 4
  00046	83 fe 03	 cmp	 esi, 3
  00049	7c d5		 jl	 SHORT $LL4@ProcessExp
  0004b	5f		 pop	 edi
  0004c	5e		 pop	 esi
$LN3@ProcessExp:

; 361  : #ifdef __INTERNALSERVER
; 362  : 				pUser->AddPocketView();
; 363  : #endif	// __INTERNAL_SERVER
; 364  : 			}
; 365  : 		}
; 366  : 	}
; 367  : }

  0004d	5b		 pop	 ebx
  0004e	c3		 ret	 0
?ProcessExpiring@CPocketController@@QAEXXZ ENDP		; CPocketController::ProcessExpiring
_TEXT	ENDS
; Function compile flags: /Ogtp
; File C:\IAGOS\server\v18\Source\Source\_Common\pocket.cpp
; File C:\IAGOS\server\v18\Source\Source\_Network\Misc\Include\ar.h
; File C:\IAGOS\server\v18\Source\Source\_Common\pocket.cpp
; File C:\IAGOS\server\v18\Source\Source\_Network\Misc\Include\ar.h
; File C:\IAGOS\server\v18\Source\Source\_Common\pocket.cpp
; File C:\IAGOS\server\v18\Source\Source\_Common\pocket.h
; File C:\IAGOS\server\v18\Source\Source\_Common\pocket.cpp
;	COMDAT ?Serialize@CPocketController@@QAEXAAVCAr@@@Z
_TEXT	SEGMENT
_this$1$ = -4						; size = 4
_ar$ = 8						; size = 4
$T1 = 11						; size = 1
$T2 = 11						; size = 1
_bExists$3 = 11						; size = 1
?Serialize@CPocketController@@QAEXAAVCAr@@@Z PROC	; CPocketController::Serialize, COMDAT
; _this$ = ecx

; 311  : {

  00000	55		 push	 ebp
  00001	8b ec		 mov	 ebp, esp
  00003	51		 push	 ecx
  00004	53		 push	 ebx
; File C:\IAGOS\server\v18\Source\Source\_Network\Misc\Include\ar.h

; 146  : 	return (m_nMode & CAr::load) == 0;

  00005	8b 5d 08	 mov	 ebx, DWORD PTR _ar$[ebp]
; File C:\IAGOS\server\v18\Source\Source\_Common\pocket.cpp

; 311  : {

  00008	8b c1		 mov	 eax, ecx
  0000a	56		 push	 esi
  0000b	57		 push	 edi
  0000c	89 45 fc	 mov	 DWORD PTR _this$1$[ebp], eax
; File C:\IAGOS\server\v18\Source\Source\_Network\Misc\Include\ar.h

; 146  : 	return (m_nMode & CAr::load) == 0;

  0000f	f6 03 01	 test	 BYTE PTR [ebx], 1
  00012	8d 70 08	 lea	 esi, DWORD PTR [eax+8]
; File C:\IAGOS\server\v18\Source\Source\_Common\pocket.cpp

; 312  : 	if( ar.IsStoring() )

  00015	75 41		 jne	 SHORT $LN8@Serialize

; 313  : 	{
; 314  : 		for( int i = 0; i < MAX_POCKET; i++ )

  00017	bf 03 00 00 00	 mov	 edi, 3
  0001c	0f 1f 40 00	 npad	 4
$LL4@Serialize:
; File C:\IAGOS\server\v18\Source\Source\_Common\pocket.h

; 70   : 		{	return( m_apPocket[nPocket] && ( !bExpiration || !m_apPocket[nPocket]->IsExpired() ) );		}

  00020	83 3e 00	 cmp	 DWORD PTR [esi], 0
  00023	8d 45 0b	 lea	 eax, DWORD PTR $T1[ebp]
  00026	8b cb		 mov	 ecx, ebx
  00028	50		 push	 eax
  00029	74 13		 je	 SHORT $LN10@Serialize
; File C:\IAGOS\server\v18\Source\Source\_Common\pocket.cpp

; 318  : 				ar << (BYTE)1;

  0002b	c6 45 0b 01	 mov	 BYTE PTR $T1[ebp], 1
  0002f	e8 00 00 00 00	 call	 ??$?6E@CAr@@QAEAAV0@ABE@Z ; CAr::operator<<<unsigned char>

; 319  : 				m_apPocket[i]->Serialize( ar );

  00034	8b 0e		 mov	 ecx, DWORD PTR [esi]
  00036	53		 push	 ebx
  00037	e8 00 00 00 00	 call	 ?Serialize@CPocket@@QAEXAAVCAr@@@Z ; CPocket::Serialize

; 320  : 			}

  0003c	eb 09		 jmp	 SHORT $LN2@Serialize
$LN10@Serialize:

; 321  : 			else
; 322  : 				ar << (BYTE)0;

  0003e	c6 45 0b 00	 mov	 BYTE PTR $T2[ebp], 0
  00042	e8 00 00 00 00	 call	 ??$?6E@CAr@@QAEAAV0@ABE@Z ; CAr::operator<<<unsigned char>
$LN2@Serialize:

; 313  : 	{
; 314  : 		for( int i = 0; i < MAX_POCKET; i++ )

  00047	83 c6 04	 add	 esi, 4
  0004a	83 ef 01	 sub	 edi, 1
  0004d	75 d1		 jne	 SHORT $LL4@Serialize

; 336  : 		}
; 337  : 	}
; 338  : }

  0004f	5f		 pop	 edi
  00050	5e		 pop	 esi
  00051	5b		 pop	 ebx
  00052	8b e5		 mov	 esp, ebp
  00054	5d		 pop	 ebp
  00055	c2 04 00	 ret	 4
$LN8@Serialize:

; 323  : 		}
; 324  : 	}
; 325  : 	else
; 326  : 	{
; 327  : 		Clear();

  00058	e8 00 00 00 00	 call	 ?Clear@CPocketController@@QAEXXZ ; CPocketController::Clear
  0005d	33 ff		 xor	 edi, edi
  0005f	90		 npad	 1
$LL7@Serialize:

; 329  : 		{
; 330  : 			BYTE bExists;
; 331  : 			ar >> bExists;

  00060	8d 45 0b	 lea	 eax, DWORD PTR _bExists$3[ebp]
  00063	8b cb		 mov	 ecx, ebx
  00065	50		 push	 eax
  00066	e8 00 00 00 00	 call	 ??$?5E@CAr@@QAEAAV0@AAE@Z ; CAr::operator>><unsigned char>

; 332  : 			if( !bExists )

  0006b	80 7d 0b 00	 cmp	 BYTE PTR _bExists$3[ebp], 0
  0006f	74 13		 je	 SHORT $LN5@Serialize

; 333  : 				continue;
; 334  : 			Avail( i );

  00071	8b 4d fc	 mov	 ecx, DWORD PTR _this$1$[ebp]
  00074	6a 00		 push	 0
  00076	57		 push	 edi
  00077	e8 00 00 00 00	 call	 ?Avail@CPocketController@@QAEXHJ@Z ; CPocketController::Avail

; 335  : 			m_apPocket[i]->Serialize( ar );

  0007c	8b 0e		 mov	 ecx, DWORD PTR [esi]
  0007e	53		 push	 ebx
  0007f	e8 00 00 00 00	 call	 ?Serialize@CPocket@@QAEXAAVCAr@@@Z ; CPocket::Serialize
$LN5@Serialize:

; 328  : 		for( int i = 0; i < MAX_POCKET; i++ )

  00084	47		 inc	 edi
  00085	83 c6 04	 add	 esi, 4
  00088	83 ff 03	 cmp	 edi, 3
  0008b	7c d3		 jl	 SHORT $LL7@Serialize

; 336  : 		}
; 337  : 	}
; 338  : }

  0008d	5f		 pop	 edi
  0008e	5e		 pop	 esi
  0008f	5b		 pop	 ebx
  00090	8b e5		 mov	 esp, ebp
  00092	5d		 pop	 ebp
  00093	c2 04 00	 ret	 4
?Serialize@CPocketController@@QAEXAAVCAr@@@Z ENDP	; CPocketController::Serialize
_TEXT	ENDS
; Function compile flags: /Ogtp
; File C:\IAGOS\server\v18\Source\Source\_Common\pocket.cpp
; File C:\IAGOS\server\v18\Source\Source\_Common\pocket.h
; File C:\IAGOS\server\v18\Source\Source\_Common\pocket.cpp
;	COMDAT ?Copy@CPocketController@@QAEXAAV1@@Z
_TEXT	SEGMENT
_rPocketController$ = 8					; size = 4
tv239 = 8						; size = 4
?Copy@CPocketController@@QAEXAAV1@@Z PROC		; CPocketController::Copy, COMDAT
; _this$ = ecx

; 298  : {

  00000	55		 push	 ebp
  00001	8b ec		 mov	 ebp, esp
  00003	53		 push	 ebx
  00004	56		 push	 esi
  00005	57		 push	 edi
  00006	8b d9		 mov	 ebx, ecx

; 299  : 	Clear();

  00008	e8 00 00 00 00	 call	 ?Clear@CPocketController@@QAEXXZ ; CPocketController::Clear
  0000d	8b 45 08	 mov	 eax, DWORD PTR _rPocketController$[ebp]
  00010	8b cb		 mov	 ecx, ebx
  00012	33 ff		 xor	 edi, edi
  00014	2b c8		 sub	 ecx, eax
  00016	89 4d 08	 mov	 DWORD PTR tv239[ebp], ecx
  00019	8d 70 08	 lea	 esi, DWORD PTR [eax+8]
  0001c	0f 1f 40 00	 npad	 4
$LL4@Copy:
; File C:\IAGOS\server\v18\Source\Source\_Common\pocket.h

; 70   : 		{	return( m_apPocket[nPocket] && ( !bExpiration || !m_apPocket[nPocket]->IsExpired() ) );		}

  00020	83 3e 00	 cmp	 DWORD PTR [esi], 0
  00023	74 17		 je	 SHORT $LN2@Copy
; File C:\IAGOS\server\v18\Source\Source\_Common\pocket.cpp

; 304  : 			Avail( i );

  00025	6a 00		 push	 0
  00027	57		 push	 edi
  00028	8b cb		 mov	 ecx, ebx
  0002a	e8 00 00 00 00	 call	 ?Avail@CPocketController@@QAEXHJ@Z ; CPocketController::Avail

; 305  : 			m_apPocket[i]->Copy( *rPocketController.m_apPocket[i] );

  0002f	8b 45 08	 mov	 eax, DWORD PTR tv239[ebp]
  00032	ff 36		 push	 DWORD PTR [esi]
  00034	8b 0c 30	 mov	 ecx, DWORD PTR [eax+esi]
  00037	e8 00 00 00 00	 call	 ?Copy@CPocket@@QAEXAAV1@@Z ; CPocket::Copy
$LN2@Copy:

; 300  : 	for( int i = 0; i < MAX_POCKET; i++ )

  0003c	47		 inc	 edi
  0003d	83 c6 04	 add	 esi, 4
  00040	83 ff 03	 cmp	 edi, 3
  00043	7c db		 jl	 SHORT $LL4@Copy
  00045	5f		 pop	 edi
  00046	5e		 pop	 esi
  00047	5b		 pop	 ebx

; 306  : 		}
; 307  : 	}
; 308  : }

  00048	5d		 pop	 ebp
  00049	c2 04 00	 ret	 4
?Copy@CPocketController@@QAEXAAV1@@Z ENDP		; CPocketController::Copy
_TEXT	ENDS
; Function compile flags: /Ogtp
; File C:\IAGOS\server\v18\Source\Source\_Common\pocket.cpp
; File C:\IAGOS\server\v18\Source\Source\_Common\pocket.h
; File C:\IAGOS\server\v18\Source\Source\_Common\pocket.cpp
;	COMDAT ?GetAvailable@CPocketController@@QAEJH@Z
_TEXT	SEGMENT
_nPocket$ = 8						; size = 4
?GetAvailable@CPocketController@@QAEJH@Z PROC		; CPocketController::GetAvailable, COMDAT
; _this$ = ecx

; 264  : {

  00000	55		 push	 ebp
  00001	8b ec		 mov	 ebp, esp
; File C:\IAGOS\server\v18\Source\Source\_Common\pocket.h

; 70   : 		{	return( m_apPocket[nPocket] && ( !bExpiration || !m_apPocket[nPocket]->IsExpired() ) );		}

  00003	8b 45 08	 mov	 eax, DWORD PTR _nPocket$[ebp]
  00006	8b 44 81 08	 mov	 eax, DWORD PTR [ecx+eax*4+8]
  0000a	85 c0		 test	 eax, eax
  0000c	74 1e		 je	 SHORT $LN3@GetAvailab
  0000e	83 78 14 00	 cmp	 DWORD PTR [eax+20], 0
  00012	75 18		 jne	 SHORT $LN3@GetAvailab
; File C:\IAGOS\server\v18\Source\Source\_Common\pocket.cpp

; 267  : 		if( m_apPocket[nPocket]->GetExpirationDate() )

  00014	8b 40 18	 mov	 eax, DWORD PTR [eax+24]
  00017	85 c0		 test	 eax, eax
  00019	74 11		 je	 SHORT $LN3@GetAvailab

; 268  : 			return max( m_apPocket[nPocket]->GetExpirationDate() - time_null(), 0 );

  0001b	2b 05 00 00 00
	00		 sub	 eax, DWORD PTR ?g_tCurrent@@3JA ; g_tCurrent
  00021	33 c9		 xor	 ecx, ecx
  00023	85 c0		 test	 eax, eax
  00025	0f 4e c1	 cmovle	 eax, ecx

; 271  : }

  00028	5d		 pop	 ebp
  00029	c2 04 00	 ret	 4
$LN3@GetAvailab:

; 269  : 	}
; 270  : 	return 0;

  0002c	33 c0		 xor	 eax, eax

; 271  : }

  0002e	5d		 pop	 ebp
  0002f	c2 04 00	 ret	 4
?GetAvailable@CPocketController@@QAEJH@Z ENDP		; CPocketController::GetAvailable
_TEXT	ENDS
; Function compile flags: /Ogtp
; File C:\IAGOS\server\v18\Source\Source\_Common\pocket.cpp
; File C:\IAGOS\server\v18\Source\Source\_Common\pocket.h
; File C:\IAGOS\server\v18\Source\Source\_Common\pocket.cpp
;	COMDAT ?SetAttribute@CPocketController@@QAEXHHH@Z
_TEXT	SEGMENT
_nAttribute$ = 8					; size = 4
_nPocket$ = 12						; size = 4
_nData$ = 16						; size = 4
?SetAttribute@CPocketController@@QAEXHHH@Z PROC		; CPocketController::SetAttribute, COMDAT
; _this$ = ecx

; 274  : {

  00000	55		 push	 ebp
  00001	8b ec		 mov	 ebp, esp

; 275  : 	switch( nAttribute )

  00003	8b 45 08	 mov	 eax, DWORD PTR _nAttribute$[ebp]
  00006	53		 push	 ebx
  00007	8b 5d 0c	 mov	 ebx, DWORD PTR _nPocket$[ebp]
  0000a	56		 push	 esi
  0000b	8b f1		 mov	 esi, ecx
  0000d	57		 push	 edi
  0000e	8b 7d 10	 mov	 edi, DWORD PTR _nData$[ebp]
  00011	83 e8 00	 sub	 eax, 0
  00014	74 20		 je	 SHORT $LN4@SetAttribu
  00016	83 e8 01	 sub	 eax, 1
  00019	75 26		 jne	 SHORT $LN5@SetAttribu

; 281  : 				break;
; 282  : 			}
; 283  : 		case avail:
; 284  : 			{
; 285  : 				Avail( nPocket, (time_t)nData );

  0001b	57		 push	 edi
  0001c	53		 push	 ebx
  0001d	e8 00 00 00 00	 call	 ?Avail@CPocketController@@QAEXHJ@Z ; CPocketController::Avail

; 286  : 				break;
; 287  : 			}
; 288  : 		default:
; 289  : 			break;
; 290  : 	}
; 291  : #ifdef __WORLDSERVER
; 292  : 	( (CUser*)m_pMover )->AddPocketAttribute( nAttribute, nPocket, nData );

  00022	8b 4e 04	 mov	 ecx, DWORD PTR [esi+4]
  00025	57		 push	 edi
  00026	53		 push	 ebx
  00027	ff 75 08	 push	 DWORD PTR _nAttribute$[ebp]
  0002a	e8 00 00 00 00	 call	 ?AddPocketAttribute@CUser@@QAEXHHH@Z ; CUser::AddPocketAttribute
  0002f	5f		 pop	 edi
  00030	5e		 pop	 esi
  00031	5b		 pop	 ebx

; 293  : #endif	// __WORLDSERVER
; 294  : }

  00032	5d		 pop	 ebp
  00033	c2 0c 00	 ret	 12			; 0000000cH
$LN4@SetAttribu:
; File C:\IAGOS\server\v18\Source\Source\_Common\pocket.h

; 70   : 		{	return( m_apPocket[nPocket] && ( !bExpiration || !m_apPocket[nPocket]->IsExpired() ) );		}

  00036	8b 44 9e 08	 mov	 eax, DWORD PTR [esi+ebx*4+8]
  0003a	85 c0		 test	 eax, eax
  0003c	74 03		 je	 SHORT $LN5@SetAttribu
; File C:\IAGOS\server\v18\Source\Source\_Common\pocket.cpp

; 280  : 					m_apPocket[nPocket]->SetExpired( (BOOL)nData );

  0003e	89 78 14	 mov	 DWORD PTR [eax+20], edi
$LN5@SetAttribu:

; 286  : 				break;
; 287  : 			}
; 288  : 		default:
; 289  : 			break;
; 290  : 	}
; 291  : #ifdef __WORLDSERVER
; 292  : 	( (CUser*)m_pMover )->AddPocketAttribute( nAttribute, nPocket, nData );

  00041	8b 4e 04	 mov	 ecx, DWORD PTR [esi+4]
  00044	57		 push	 edi
  00045	53		 push	 ebx
  00046	ff 75 08	 push	 DWORD PTR _nAttribute$[ebp]
  00049	e8 00 00 00 00	 call	 ?AddPocketAttribute@CUser@@QAEXHHH@Z ; CUser::AddPocketAttribute
  0004e	5f		 pop	 edi
  0004f	5e		 pop	 esi
  00050	5b		 pop	 ebx

; 293  : #endif	// __WORLDSERVER
; 294  : }

  00051	5d		 pop	 ebp
  00052	c2 0c 00	 ret	 12			; 0000000cH
?SetAttribute@CPocketController@@QAEXHHH@Z ENDP		; CPocketController::SetAttribute
_TEXT	ENDS
; Function compile flags: /Ogtp
; File C:\IAGOS\server\v18\Source\Source\_Common\pocket.cpp
; File C:\IAGOS\server\v18\Source\Source\_Common\pocket.h
; File C:\IAGOS\server\v18\Source\Source\_Common\pocket.cpp
; File C:\IAGOS\server\v18\Source\Source\_Common\pocket.h
; File C:\IAGOS\server\v18\Source\Source\_Common\pocket.cpp
;	COMDAT ?Avail@CPocketController@@QAEXHJ@Z
_TEXT	SEGMENT
_nPocket$ = 8						; size = 4
$T1 = 8							; size = 4
_t$ = 12						; size = 4
?Avail@CPocketController@@QAEXHJ@Z PROC			; CPocketController::Avail, COMDAT
; _this$ = ecx

; 77   : {

  00000	55		 push	 ebp
  00001	8b ec		 mov	 ebp, esp
  00003	53		 push	 ebx

; 78   : 	time_t tCurrent		= time_null();
; 79   : 	if( m_apPocket[nPocket] )

  00004	8b 5d 08	 mov	 ebx, DWORD PTR _nPocket$[ebp]
  00007	56		 push	 esi
  00008	57		 push	 edi
  00009	8b 3d 00 00 00
	00		 mov	 edi, DWORD PTR ?g_tCurrent@@3JA ; g_tCurrent
  0000f	8d 34 99	 lea	 esi, DWORD PTR [ecx+ebx*4]
  00012	8b 4e 08	 mov	 ecx, DWORD PTR [esi+8]
  00015	85 c9		 test	 ecx, ecx
  00017	74 16		 je	 SHORT $LN2@Avail

; 80   : 	{
; 81   : 		if( m_apPocket[nPocket]->IsExpired() )

  00019	83 79 14 00	 cmp	 DWORD PTR [ecx+20], 0
  0001d	8b 55 0c	 mov	 edx, DWORD PTR _t$[ebp]
  00020	74 08		 je	 SHORT $LN4@Avail

; 82   : 			m_apPocket[nPocket]->SetExpirationDate( tCurrent + t );

  00022	8d 04 17	 lea	 eax, DWORD PTR [edi+edx]
  00025	89 41 18	 mov	 DWORD PTR [ecx+24], eax
  00028	eb 4b		 jmp	 SHORT $LN3@Avail
$LN4@Avail:

; 83   : 		else
; 84   : 			m_apPocket[nPocket]->SetExpirationDate( m_apPocket[nPocket]->GetExpirationDate() + t );

  0002a	01 51 18	 add	 DWORD PTR [ecx+24], edx

; 85   : 	}

  0002d	eb 46		 jmp	 SHORT $LN3@Avail
$LN2@Avail:

; 86   : 	else
; 87   : 	{
; 88   : 		m_apPocket[nPocket]		= new CPocket;

  0002f	6a 1c		 push	 28			; 0000001cH
  00031	e8 00 00 00 00	 call	 ??2@YAPAXI@Z		; operator new
  00036	83 c4 04	 add	 esp, 4
  00039	89 45 08	 mov	 DWORD PTR $T1[ebp], eax
  0003c	85 c0		 test	 eax, eax
  0003e	74 0b		 je	 SHORT $LN8@Avail
  00040	8b c8		 mov	 ecx, eax
  00042	e8 00 00 00 00	 call	 ??0CPocket@@QAE@XZ	; CPocket::CPocket
  00047	8b c8		 mov	 ecx, eax
  00049	eb 02		 jmp	 SHORT $LN9@Avail
$LN8@Avail:
  0004b	33 c9		 xor	 ecx, ecx
$LN9@Avail:

; 89   : 		m_apPocket[nPocket]->SetItemContainer( 0, nPocket == 0? POCKET_SLOT_SIZE_0: POCKET_SLOT_SIZE_1_2 );

  0004d	85 db		 test	 ebx, ebx
  0004f	89 4e 08	 mov	 DWORD PTR [esi+8], ecx
  00052	ba 06 00 00 00	 mov	 edx, 6
  00057	b8 18 00 00 00	 mov	 eax, 24			; 00000018H
  0005c	6a ff		 push	 -1
  0005e	0f 44 c2	 cmove	 eax, edx
  00061	50		 push	 eax
  00062	6a 00		 push	 0
  00064	e8 00 00 00 00	 call	 ?SetItemContainer@?$CItemContainer@VCItemElem@@@@QAEXKKK@Z ; CItemContainer<CItemElem>::SetItemContainer

; 90   : 		m_apPocket[nPocket]->SetExpirationDate( tCurrent + t );

  00069	8b 55 0c	 mov	 edx, DWORD PTR _t$[ebp]
; File C:\IAGOS\server\v18\Source\Source\_Common\pocket.h

; 20   : 	void	SetExpirationDate( time_t tExpirationDate )	{	m_tExpirationDate	= tExpirationDate;		}

  0006c	8b 46 08	 mov	 eax, DWORD PTR [esi+8]
; File C:\IAGOS\server\v18\Source\Source\_Common\pocket.cpp

; 90   : 		m_apPocket[nPocket]->SetExpirationDate( tCurrent + t );

  0006f	8d 0c 17	 lea	 ecx, DWORD PTR [edi+edx]
; File C:\IAGOS\server\v18\Source\Source\_Common\pocket.h

; 20   : 	void	SetExpirationDate( time_t tExpirationDate )	{	m_tExpirationDate	= tExpirationDate;		}

  00072	89 48 18	 mov	 DWORD PTR [eax+24], ecx
$LN3@Avail:
; File C:\IAGOS\server\v18\Source\Source\_Common\pocket.cpp

; 92   : 	m_apPocket[nPocket]->SetExpired( FALSE );

  00075	8b 46 08	 mov	 eax, DWORD PTR [esi+8]
  00078	c7 40 14 00 00
	00 00		 mov	 DWORD PTR [eax+20], 0

; 93   : 
; 94   : 	if( t == 0 )

  0007f	85 d2		 test	 edx, edx
  00081	75 06		 jne	 SHORT $LN6@Avail

; 95   : 		m_apPocket[nPocket]->SetExpirationDate( 0 );

  00083	8b 46 08	 mov	 eax, DWORD PTR [esi+8]
  00086	89 50 18	 mov	 DWORD PTR [eax+24], edx
$LN6@Avail:

; 96   : }

  00089	5f		 pop	 edi
  0008a	5e		 pop	 esi
  0008b	5b		 pop	 ebx
  0008c	5d		 pop	 ebp
  0008d	c2 08 00	 ret	 8
?Avail@CPocketController@@QAEXHJ@Z ENDP			; CPocketController::Avail
_TEXT	ENDS
; Function compile flags: /Ogtp
; File C:\IAGOS\server\v18\Source\Source\_Common\pocket.cpp
; File C:\IAGOS\server\v18\Source\Source\_Common\pocket.h
; File C:\IAGOS\server\v18\Source\Source\_Common\Item.h
; File C:\IAGOS\server\v18\Source\Source\_Common\pocket.cpp
;	COMDAT ?GetCount@CPocketController@@QAEHK@Z
_TEXT	SEGMENT
tv394 = -8						; size = 4
_nCount$1$ = -4						; size = 4
_dwItemId$ = 8						; size = 4
?GetCount@CPocketController@@QAEHK@Z PROC		; CPocketController::GetCount, COMDAT
; _this$ = ecx

; 253  : {

  00000	55		 push	 ebp
  00001	8b ec		 mov	 ebp, esp
  00003	83 ec 08	 sub	 esp, 8
  00006	53		 push	 ebx

; 254  : 	int nCount	= 0;

  00007	8b 5d 08	 mov	 ebx, DWORD PTR _dwItemId$[ebp]
  0000a	56		 push	 esi
  0000b	57		 push	 edi
  0000c	8d 79 08	 lea	 edi, DWORD PTR [ecx+8]
  0000f	33 f6		 xor	 esi, esi
  00011	b9 03 00 00 00	 mov	 ecx, 3
  00016	89 75 fc	 mov	 DWORD PTR _nCount$1$[ebp], esi
  00019	89 4d f8	 mov	 DWORD PTR tv394[ebp], ecx
  0001c	0f 1f 40 00	 npad	 4
$LL4@GetCount:
; File C:\IAGOS\server\v18\Source\Source\_Common\pocket.h

; 70   : 		{	return( m_apPocket[nPocket] && ( !bExpiration || !m_apPocket[nPocket]->IsExpired() ) );		}

  00020	8b 07		 mov	 eax, DWORD PTR [edi]
  00022	85 c0		 test	 eax, eax
  00024	74 3a		 je	 SHORT $LN2@GetCount
  00026	83 78 14 00	 cmp	 DWORD PTR [eax+20], 0
  0002a	75 34		 jne	 SHORT $LN2@GetCount
; File C:\IAGOS\server\v18\Source\Source\_Common\Item.h

; 450  : 			for( DWORD i = 0; i < m_dwItemMax; i++ )

  0002c	8b 70 0c	 mov	 esi, DWORD PTR [eax+12]
  0002f	33 d2		 xor	 edx, edx
  00031	85 f6		 test	 esi, esi
  00033	74 23		 je	 SHORT $LN14@GetCount

; 451  : 			{
; 452  : 				if( m_apItem[i].IsEmpty() == FALSE && m_apItem[i].m_dwItemId == dwItemId )

  00035	8b 40 10	 mov	 eax, DWORD PTR [eax+16]
  00038	83 c0 0c	 add	 eax, 12			; 0000000cH
  0003b	0f 1f 44 00 00	 npad	 5
$LL15@GetCount:

; 50   : 	BOOL			IsEmpty() { return m_dwItemId ? FALSE : TRUE; }

  00040	8b 08		 mov	 ecx, DWORD PTR [eax]
  00042	85 c9		 test	 ecx, ecx

; 452  : 				if( m_apItem[i].IsEmpty() == FALSE && m_apItem[i].m_dwItemId == dwItemId )

  00044	74 05		 je	 SHORT $LN13@GetCount
  00046	3b cb		 cmp	 ecx, ebx
  00048	75 01		 jne	 SHORT $LN13@GetCount

; 453  : 					nCount++;

  0004a	42		 inc	 edx
$LN13@GetCount:

; 450  : 			for( DWORD i = 0; i < m_dwItemMax; i++ )

  0004b	05 b0 00 00 00	 add	 eax, 176		; 000000b0H
  00050	83 ee 01	 sub	 esi, 1
  00053	75 eb		 jne	 SHORT $LL15@GetCount
  00055	8b 4d f8	 mov	 ecx, DWORD PTR tv394[ebp]
$LN14@GetCount:
; File C:\IAGOS\server\v18\Source\Source\_Common\pocket.cpp

; 258  : 			nCount	+= m_apPocket[i]->GetCount( dwItemId );

  00058	8b 75 fc	 mov	 esi, DWORD PTR _nCount$1$[ebp]
  0005b	03 f2		 add	 esi, edx
  0005d	89 75 fc	 mov	 DWORD PTR _nCount$1$[ebp], esi
$LN2@GetCount:

; 255  : 	for( int i = 0; i < MAX_POCKET; i++ )

  00060	83 c7 04	 add	 edi, 4
  00063	83 e9 01	 sub	 ecx, 1
  00066	89 4d f8	 mov	 DWORD PTR tv394[ebp], ecx
  00069	75 b5		 jne	 SHORT $LL4@GetCount

; 259  : 	}
; 260  : 	return nCount;

  0006b	5f		 pop	 edi
  0006c	8b c6		 mov	 eax, esi
  0006e	5e		 pop	 esi
  0006f	5b		 pop	 ebx

; 261  : }

  00070	8b e5		 mov	 esp, ebp
  00072	5d		 pop	 ebp
  00073	c2 04 00	 ret	 4
?GetCount@CPocketController@@QAEHK@Z ENDP		; CPocketController::GetCount
_TEXT	ENDS
; Function compile flags: /Ogtp
; File C:\IAGOS\server\v18\Source\Source\_Common\pocket.cpp
; File C:\IAGOS\server\v18\Source\Source\_Common\Item.h
; File C:\IAGOS\server\v18\Source\Source\_Common\pocket.cpp
;	COMDAT ?IsAllClean@CPocketController@@QAEHXZ
_TEXT	SEGMENT
$T1 = -16						; size = 4
tv384 = -12						; size = 4
_nCountMax$1$ = -8					; size = 4
_nCount$1$ = -4						; size = 4
?IsAllClean@CPocketController@@QAEHXZ PROC		; CPocketController::IsAllClean, COMDAT
; _this$ = ecx

; 236  : {

  00000	55		 push	 ebp
  00001	8b ec		 mov	 ebp, esp
  00003	83 ec 10	 sub	 esp, 16			; 00000010H
  00006	53		 push	 ebx
  00007	56		 push	 esi

; 237  : 	int nCount	= 0,nCountMax = 0;

  00008	33 f6		 xor	 esi, esi
  0000a	8d 59 08	 lea	 ebx, DWORD PTR [ecx+8]
  0000d	33 d2		 xor	 edx, edx
  0000f	89 75 fc	 mov	 DWORD PTR _nCount$1$[ebp], esi
  00012	b8 03 00 00 00	 mov	 eax, 3
  00017	89 55 f8	 mov	 DWORD PTR _nCountMax$1$[ebp], edx
  0001a	57		 push	 edi
  0001b	89 45 f4	 mov	 DWORD PTR tv384[ebp], eax
  0001e	66 90		 npad	 2
$LL4@IsAllClean:

; 239  : 	{
; 240  : 		if( m_apPocket[i] != NULL )

  00020	8b 3b		 mov	 edi, DWORD PTR [ebx]
  00022	85 ff		 test	 edi, edi
  00024	74 48		 je	 SHORT $LN2@IsAllClean
; File C:\IAGOS\server\v18\Source\Source\_Common\Item.h

; 420  : 			for( DWORD i = 0; i < m_dwItemMax; i++ )

  00026	8b 4f 0c	 mov	 ecx, DWORD PTR [edi+12]
  00029	33 d2		 xor	 edx, edx
  0002b	89 4d f0	 mov	 DWORD PTR $T1[ebp], ecx
  0002e	85 c9		 test	 ecx, ecx
  00030	74 2f		 je	 SHORT $LN11@IsAllClean

; 421  : 			{
; 422  : 				if( m_apItem[i].IsEmpty() && m_apItem[i].m_dwObjIndex < m_dwIndexNum )

  00032	8b 47 10	 mov	 eax, DWORD PTR [edi+16]
  00035	8b f1		 mov	 esi, ecx
  00037	83 c0 08	 add	 eax, 8
  0003a	66 0f 1f 44 00
	00		 npad	 6
$LL12@IsAllClean:

; 50   : 	BOOL			IsEmpty() { return m_dwItemId ? FALSE : TRUE; }

  00040	83 78 04 00	 cmp	 DWORD PTR [eax+4], 0

; 422  : 				if( m_apItem[i].IsEmpty() && m_apItem[i].m_dwObjIndex < m_dwIndexNum )

  00044	75 08		 jne	 SHORT $LN10@IsAllClean
  00046	8b 08		 mov	 ecx, DWORD PTR [eax]
  00048	3b 4f 08	 cmp	 ecx, DWORD PTR [edi+8]
  0004b	73 01		 jae	 SHORT $LN10@IsAllClean

; 423  : 					nCount++;

  0004d	42		 inc	 edx
$LN10@IsAllClean:

; 420  : 			for( DWORD i = 0; i < m_dwItemMax; i++ )

  0004e	05 b0 00 00 00	 add	 eax, 176		; 000000b0H
  00053	83 ee 01	 sub	 esi, 1
  00056	75 e8		 jne	 SHORT $LL12@IsAllClean
  00058	8b 4d f0	 mov	 ecx, DWORD PTR $T1[ebp]
  0005b	8b 75 fc	 mov	 esi, DWORD PTR _nCount$1$[ebp]
  0005e	8b 45 f4	 mov	 eax, DWORD PTR tv384[ebp]
$LN11@IsAllClean:
; File C:\IAGOS\server\v18\Source\Source\_Common\pocket.cpp

; 242  : 			nCount	+= m_apPocket[i]->GetEmptyCount();

  00061	03 f2		 add	 esi, edx

; 243  : 			nCountMax	+= m_apPocket[i]->GetMax();

  00063	8b 55 f8	 mov	 edx, DWORD PTR _nCountMax$1$[ebp]
  00066	03 d1		 add	 edx, ecx
  00068	89 75 fc	 mov	 DWORD PTR _nCount$1$[ebp], esi
  0006b	89 55 f8	 mov	 DWORD PTR _nCountMax$1$[ebp], edx
$LN2@IsAllClean:

; 238  : 	for( int i = 0; i < MAX_POCKET; i++ )

  0006e	83 c3 04	 add	 ebx, 4
  00071	83 e8 01	 sub	 eax, 1
  00074	89 45 f4	 mov	 DWORD PTR tv384[ebp], eax
  00077	75 a7		 jne	 SHORT $LL4@IsAllClean

; 244  : 		}
; 245  : 	}
; 246  : 	if( nCount == nCountMax)

  00079	33 c0		 xor	 eax, eax
  0007b	3b f2		 cmp	 esi, edx

; 247  : 		return TRUE;

  0007d	5f		 pop	 edi
  0007e	5e		 pop	 esi
  0007f	0f 94 c0	 sete	 al
  00082	5b		 pop	 ebx

; 248  : 	else
; 249  : 		return FALSE;
; 250  : }

  00083	8b e5		 mov	 esp, ebp
  00085	5d		 pop	 ebp
  00086	c3		 ret	 0
?IsAllClean@CPocketController@@QAEHXZ ENDP		; CPocketController::IsAllClean
_TEXT	ENDS
; Function compile flags: /Ogtp
; File C:\IAGOS\server\v18\Source\Source\_Common\pocket.cpp
; File C:\IAGOS\server\v18\Source\Source\_Common\pocket.h
; File C:\IAGOS\server\v18\Source\Source\_Common\Item.h
; File C:\IAGOS\server\v18\Source\Source\_Common\pocket.cpp
;	COMDAT ?GetEmptyCount@CPocketController@@QAEHXZ
_TEXT	SEGMENT
tv421 = -8						; size = 4
_nCount$1$ = -4						; size = 4
?GetEmptyCount@CPocketController@@QAEHXZ PROC		; CPocketController::GetEmptyCount, COMDAT
; _this$ = ecx

; 224  : {

  00000	55		 push	 ebp
  00001	8b ec		 mov	 ebp, esp
  00003	83 ec 08	 sub	 esp, 8
  00006	53		 push	 ebx

; 225  : 	int nCount	= 0;

  00007	8d 59 08	 lea	 ebx, DWORD PTR [ecx+8]
  0000a	33 c0		 xor	 eax, eax
  0000c	56		 push	 esi
  0000d	b9 03 00 00 00	 mov	 ecx, 3
  00012	89 45 fc	 mov	 DWORD PTR _nCount$1$[ebp], eax
  00015	57		 push	 edi
  00016	89 4d f8	 mov	 DWORD PTR tv421[ebp], ecx
  00019	0f 1f 80 00 00
	00 00		 npad	 7
$LL4@GetEmptyCo:
; File C:\IAGOS\server\v18\Source\Source\_Common\pocket.h

; 70   : 		{	return( m_apPocket[nPocket] && ( !bExpiration || !m_apPocket[nPocket]->IsExpired() ) );		}

  00020	8b 3b		 mov	 edi, DWORD PTR [ebx]
  00022	85 ff		 test	 edi, edi
  00024	74 3d		 je	 SHORT $LN2@GetEmptyCo
  00026	83 7f 14 00	 cmp	 DWORD PTR [edi+20], 0
  0002a	75 37		 jne	 SHORT $LN2@GetEmptyCo
; File C:\IAGOS\server\v18\Source\Source\_Common\Item.h

; 420  : 			for( DWORD i = 0; i < m_dwItemMax; i++ )

  0002c	8b 77 0c	 mov	 esi, DWORD PTR [edi+12]
  0002f	33 d2		 xor	 edx, edx
  00031	85 f6		 test	 esi, esi
  00033	74 29		 je	 SHORT $LN14@GetEmptyCo

; 421  : 			{
; 422  : 				if( m_apItem[i].IsEmpty() && m_apItem[i].m_dwObjIndex < m_dwIndexNum )

  00035	8b 47 10	 mov	 eax, DWORD PTR [edi+16]
  00038	83 c0 08	 add	 eax, 8
  0003b	0f 1f 44 00 00	 npad	 5
$LL15@GetEmptyCo:

; 50   : 	BOOL			IsEmpty() { return m_dwItemId ? FALSE : TRUE; }

  00040	83 78 04 00	 cmp	 DWORD PTR [eax+4], 0

; 422  : 				if( m_apItem[i].IsEmpty() && m_apItem[i].m_dwObjIndex < m_dwIndexNum )

  00044	75 08		 jne	 SHORT $LN13@GetEmptyCo
  00046	8b 08		 mov	 ecx, DWORD PTR [eax]
  00048	3b 4f 08	 cmp	 ecx, DWORD PTR [edi+8]
  0004b	73 01		 jae	 SHORT $LN13@GetEmptyCo

; 423  : 					nCount++;

  0004d	42		 inc	 edx
$LN13@GetEmptyCo:

; 420  : 			for( DWORD i = 0; i < m_dwItemMax; i++ )

  0004e	05 b0 00 00 00	 add	 eax, 176		; 000000b0H
  00053	83 ee 01	 sub	 esi, 1
  00056	75 e8		 jne	 SHORT $LL15@GetEmptyCo
  00058	8b 45 fc	 mov	 eax, DWORD PTR _nCount$1$[ebp]
  0005b	8b 4d f8	 mov	 ecx, DWORD PTR tv421[ebp]
$LN14@GetEmptyCo:
; File C:\IAGOS\server\v18\Source\Source\_Common\pocket.cpp

; 229  : 			nCount	+= m_apPocket[i]->GetEmptyCount();

  0005e	03 c2		 add	 eax, edx
  00060	89 45 fc	 mov	 DWORD PTR _nCount$1$[ebp], eax
$LN2@GetEmptyCo:

; 226  : 	for( int i = 0; i < MAX_POCKET; i++ )

  00063	83 c3 04	 add	 ebx, 4
  00066	83 e9 01	 sub	 ecx, 1
  00069	89 4d f8	 mov	 DWORD PTR tv421[ebp], ecx
  0006c	75 b2		 jne	 SHORT $LL4@GetEmptyCo
  0006e	5f		 pop	 edi
  0006f	5e		 pop	 esi
  00070	5b		 pop	 ebx

; 230  : 	}
; 231  : 	return nCount;
; 232  : }

  00071	8b e5		 mov	 esp, ebp
  00073	5d		 pop	 ebp
  00074	c3		 ret	 0
?GetEmptyCount@CPocketController@@QAEHXZ ENDP		; CPocketController::GetEmptyCount
_TEXT	ENDS
; Function compile flags: /Ogtp
; File C:\IAGOS\server\v18\Source\Source\_Common\pocket.cpp
; File C:\IAGOS\server\v18\Source\Source\_Common\pocket.h
; File C:\IAGOS\server\v18\Source\Source\_Common\pocket.cpp
;	COMDAT ?RemoveItem@CPocketController@@QAEHKH@Z
_TEXT	SEGMENT
_nMax$1$ = -12						; size = 4
tv349 = -8						; size = 4
_i$1$ = -4						; size = 4
_dwItemId$ = 8						; size = 4
_nNum$ = 12						; size = 4
?RemoveItem@CPocketController@@QAEHKH@Z PROC		; CPocketController::RemoveItem, COMDAT
; _this$ = ecx

; 191  : {

  00000	55		 push	 ebp
  00001	8b ec		 mov	 ebp, esp
  00003	83 ec 0c	 sub	 esp, 12			; 0000000cH

; 192  : 	short nRemnant	= nNum;

  00006	8b 45 0c	 mov	 eax, DWORD PTR _nNum$[ebp]

; 193  : 	CItemElem* pItemElem	= NULL;
; 194  : 
; 195  : 	for( int i = 0; i < MAX_POCKET; i++ )

  00009	33 d2		 xor	 edx, edx
  0000b	53		 push	 ebx
  0000c	56		 push	 esi
  0000d	83 c1 08	 add	 ecx, 8
  00010	89 55 fc	 mov	 DWORD PTR _i$1$[ebp], edx
  00013	57		 push	 edi
  00014	0f b7 f8	 movzx	 edi, ax
  00017	89 4d f8	 mov	 DWORD PTR tv349[ebp], ecx
  0001a	66 0f 1f 44 00
	00		 npad	 6
$LL4@RemoveItem:
; File C:\IAGOS\server\v18\Source\Source\_Common\pocket.h

; 70   : 		{	return( m_apPocket[nPocket] && ( !bExpiration || !m_apPocket[nPocket]->IsExpired() ) );		}

  00020	8b 01		 mov	 eax, DWORD PTR [ecx]
  00022	85 c0		 test	 eax, eax
  00024	74 4c		 je	 SHORT $LN2@RemoveItem
  00026	83 78 14 00	 cmp	 DWORD PTR [eax+20], 0
  0002a	75 46		 jne	 SHORT $LN2@RemoveItem
; File C:\IAGOS\server\v18\Source\Source\_Common\pocket.cpp

; 200  : 			for( int j = 0; j < nMax && nRemnant > 0; j++ )

  0002c	8b 40 0c	 mov	 eax, DWORD PTR [eax+12]
  0002f	33 f6		 xor	 esi, esi
  00031	89 45 f4	 mov	 DWORD PTR _nMax$1$[ebp], eax
  00034	85 c0		 test	 eax, eax
  00036	7e 3a		 jle	 SHORT $LN2@RemoveItem
$LL7@RemoveItem:
  00038	66 85 ff	 test	 di, di
  0003b	7e 32		 jle	 SHORT $LN29@RemoveItem

; 201  : 			{
; 202  : 				pItemElem	= m_apPocket[i]->GetAtId( j ) ;

  0003d	8b 19		 mov	 ebx, DWORD PTR [ecx]
  0003f	8b cb		 mov	 ecx, ebx
  00041	56		 push	 esi
  00042	e8 00 00 00 00	 call	 ?GetAtId@?$CItemContainer@VCItemElem@@@@QAEPAVCItemElem@@K@Z ; CItemContainer<CItemElem>::GetAtId

; 203  : 				if( pItemElem && pItemElem->m_dwItemId == dwItemId )

  00047	85 c0		 test	 eax, eax
  00049	74 1b		 je	 SHORT $LN5@RemoveItem
  0004b	8b 4d 08	 mov	 ecx, DWORD PTR _dwItemId$[ebp]
  0004e	39 48 0c	 cmp	 DWORD PTR [eax+12], ecx
  00051	75 13		 jne	 SHORT $LN5@RemoveItem

; 204  : 				{
; 205  : 					if( nRemnant > pItemElem->m_nItemNum )

  00053	0f b7 50 74	 movzx	 edx, WORD PTR [eax+116]
  00057	66 3b fa	 cmp	 di, dx
  0005a	7e 38		 jle	 SHORT $LN10@RemoveItem

; 206  : 					{
; 207  : 						nRemnant	-= pItemElem->m_nItemNum;
; 208  : 						m_apPocket[i]->RemoveAtId( j );

  0005c	56		 push	 esi
  0005d	8b cb		 mov	 ecx, ebx
  0005f	2b fa		 sub	 edi, edx
  00061	e8 00 00 00 00	 call	 ?RemoveAtId@?$CItemContainer@VCItemElem@@@@QAEXK@Z ; CItemContainer<CItemElem>::RemoveAtId
$LN5@RemoveItem:

; 200  : 			for( int j = 0; j < nMax && nRemnant > 0; j++ )

  00066	8b 4d f8	 mov	 ecx, DWORD PTR tv349[ebp]
  00069	46		 inc	 esi
  0006a	3b 75 f4	 cmp	 esi, DWORD PTR _nMax$1$[ebp]
  0006d	7c c9		 jl	 SHORT $LL7@RemoveItem
$LN29@RemoveItem:

; 193  : 	CItemElem* pItemElem	= NULL;
; 194  : 
; 195  : 	for( int i = 0; i < MAX_POCKET; i++ )

  0006f	8b 55 fc	 mov	 edx, DWORD PTR _i$1$[ebp]
$LN2@RemoveItem:
  00072	42		 inc	 edx
  00073	83 c1 04	 add	 ecx, 4
  00076	89 55 fc	 mov	 DWORD PTR _i$1$[ebp], edx
  00079	89 4d f8	 mov	 DWORD PTR tv349[ebp], ecx
  0007c	83 fa 03	 cmp	 edx, 3
  0007f	7c 9f		 jl	 SHORT $LL4@RemoveItem

; 213  : 						nRemnant	= 0;
; 214  : 						return nNum;
; 215  : 					}
; 216  : 				}
; 217  : 			}
; 218  : 		}
; 219  : 	}
; 220  : 	return( nNum - nRemnant );

  00081	8b 4d 0c	 mov	 ecx, DWORD PTR _nNum$[ebp]
  00084	0f bf c7	 movsx	 eax, di
  00087	5f		 pop	 edi
  00088	2b c8		 sub	 ecx, eax

; 221  : }

  0008a	5e		 pop	 esi
  0008b	8b c1		 mov	 eax, ecx
  0008d	5b		 pop	 ebx
  0008e	8b e5		 mov	 esp, ebp
  00090	5d		 pop	 ebp
  00091	c2 08 00	 ret	 8
$LN10@RemoveItem:

; 209  : 					}
; 210  : 					else
; 211  : 					{
; 212  : 						pItemElem->m_nItemNum	-= nRemnant;

  00094	2b d7		 sub	 edx, edi
  00096	5f		 pop	 edi

; 221  : }

  00097	5e		 pop	 esi
  00098	66 89 50 74	 mov	 WORD PTR [eax+116], dx
  0009c	8b 45 0c	 mov	 eax, DWORD PTR _nNum$[ebp]
  0009f	5b		 pop	 ebx
  000a0	8b e5		 mov	 esp, ebp
  000a2	5d		 pop	 ebp
  000a3	c2 08 00	 ret	 8
?RemoveItem@CPocketController@@QAEHKH@Z ENDP		; CPocketController::RemoveItem
_TEXT	ENDS
; Function compile flags: /Ogtp
; File C:\IAGOS\server\v18\Source\Source\_Common\pocket.cpp
; File C:\IAGOS\server\v18\Source\Source\_Common\pocket.h
; File C:\IAGOS\server\v18\Source\Source\_Common\pocket.cpp
; File C:\IAGOS\server\v18\Source\Source\_Common\pocket.h
; File C:\IAGOS\server\v18\Source\Source\_Common\pocket.cpp
;	COMDAT ?RemoveAtId@CPocketController@@QAEHHHH@Z
_TEXT	SEGMENT
_nPocket$ = 8						; size = 4
_nItem$ = 12						; size = 4
tv257 = 12						; size = 4
_nNum$ = 16						; size = 4
?RemoveAtId@CPocketController@@QAEHHHH@Z PROC		; CPocketController::RemoveAtId, COMDAT
; _this$ = ecx

; 170  : {

  00000	55		 push	 ebp
  00001	8b ec		 mov	 ebp, esp
  00003	53		 push	 ebx
  00004	56		 push	 esi
; File C:\IAGOS\server\v18\Source\Source\_Common\pocket.h

; 70   : 		{	return( m_apPocket[nPocket] && ( !bExpiration || !m_apPocket[nPocket]->IsExpired() ) );		}

  00005	8b 75 08	 mov	 esi, DWORD PTR _nPocket$[ebp]
; File C:\IAGOS\server\v18\Source\Source\_Common\pocket.cpp

; 170  : {

  00008	8b d9		 mov	 ebx, ecx
  0000a	57		 push	 edi
; File C:\IAGOS\server\v18\Source\Source\_Common\pocket.h

; 70   : 		{	return( m_apPocket[nPocket] && ( !bExpiration || !m_apPocket[nPocket]->IsExpired() ) );		}

  0000b	8b 74 b3 08	 mov	 esi, DWORD PTR [ebx+esi*4+8]
  0000f	85 f6		 test	 esi, esi
  00011	74 59		 je	 SHORT $LN13@RemoveAtId
  00013	83 7e 14 00	 cmp	 DWORD PTR [esi+20], 0
  00017	75 53		 jne	 SHORT $LN13@RemoveAtId
; File C:\IAGOS\server\v18\Source\Source\_Common\pocket.cpp

; 173  : 	CItemElem* pItemElem	= m_apPocket[nPocket]->GetAtId( nItem );

  00019	8b 7d 0c	 mov	 edi, DWORD PTR _nItem$[ebp]
  0001c	8b ce		 mov	 ecx, esi
  0001e	57		 push	 edi
  0001f	e8 00 00 00 00	 call	 ?GetAtId@?$CItemContainer@VCItemElem@@@@QAEPAVCItemElem@@K@Z ; CItemContainer<CItemElem>::GetAtId

; 174  : 	if( !pItemElem )

  00024	85 c0		 test	 eax, eax
  00026	74 44		 je	 SHORT $LN13@RemoveAtId

; 175  : 		return FALSE;
; 176  : 
; 177  : 	if( pItemElem->m_nItemNum > nNum )

  00028	8b 4d 10	 mov	 ecx, DWORD PTR _nNum$[ebp]
  0002b	0f b7 50 74	 movzx	 edx, WORD PTR [eax+116]
  0002f	0f b7 c9	 movzx	 ecx, cx
  00032	89 4d 0c	 mov	 DWORD PTR tv257[ebp], ecx
  00035	0f bf ca	 movsx	 ecx, dx
  00038	3b 4d 10	 cmp	 ecx, DWORD PTR _nNum$[ebp]
  0003b	7e 0b		 jle	 SHORT $LN4@RemoveAtId

; 178  : 		pItemElem->m_nItemNum	-= nNum;

  0003d	8b 4d 0c	 mov	 ecx, DWORD PTR tv257[ebp]
  00040	2b d1		 sub	 edx, ecx
  00042	66 89 50 74	 mov	 WORD PTR [eax+116], dx
  00046	eb 0b		 jmp	 SHORT $LN5@RemoveAtId
$LN4@RemoveAtId:

; 179  : 	else
; 180  : 		m_apPocket[nPocket]->RemoveAtId( nItem );

  00048	57		 push	 edi
  00049	8b ce		 mov	 ecx, esi
  0004b	e8 00 00 00 00	 call	 ?RemoveAtId@?$CItemContainer@VCItemElem@@@@QAEXK@Z ; CItemContainer<CItemElem>::RemoveAtId
  00050	8b 4d 0c	 mov	 ecx, DWORD PTR tv257[ebp]
$LN5@RemoveAtId:

; 181  : 
; 182  : #ifdef __WORLDSERVER
; 183  : //	if( m_pMover->IsPlayer() )
; 184  : 		( (CUser*)m_pMover )->AddPocketRemoveItem( nPocket, nItem, nNum );

  00053	51		 push	 ecx
  00054	8b 4b 04	 mov	 ecx, DWORD PTR [ebx+4]
  00057	57		 push	 edi
  00058	ff 75 08	 push	 DWORD PTR _nPocket$[ebp]
  0005b	e8 00 00 00 00	 call	 ?AddPocketRemoveItem@CUser@@QAEXHHF@Z ; CUser::AddPocketRemoveItem
  00060	5f		 pop	 edi

; 185  : #endif	// __WORLDSERVER
; 186  : 
; 187  : 	return TRUE;
; 188  : }

  00061	5e		 pop	 esi
  00062	b8 01 00 00 00	 mov	 eax, 1
  00067	5b		 pop	 ebx
  00068	5d		 pop	 ebp
  00069	c2 0c 00	 ret	 12			; 0000000cH
$LN13@RemoveAtId:
  0006c	5f		 pop	 edi
  0006d	5e		 pop	 esi
  0006e	33 c0		 xor	 eax, eax
  00070	5b		 pop	 ebx
  00071	5d		 pop	 ebp
  00072	c2 0c 00	 ret	 12			; 0000000cH
?RemoveAtId@CPocketController@@QAEHHHH@Z ENDP		; CPocketController::RemoveAtId
_TEXT	ENDS
; Function compile flags: /Ogtp
; File C:\IAGOS\server\v18\Source\Source\_Common\pocket.cpp
; File C:\IAGOS\server\v18\Source\Source\_Common\pocket.h
; File C:\IAGOS\server\v18\Source\Source\_Common\pocket.cpp
; File C:\Program Files\Microsoft Visual Studio\2022\Professional\VC\Tools\MSVC\14.44.35207\include\vector
; File C:\IAGOS\server\v18\Source\Source\_Common\pocket.h
; File C:\Program Files\Microsoft Visual Studio\2022\Professional\VC\Tools\MSVC\14.44.35207\include\vector
; File C:\Program Files\Microsoft Visual Studio\2022\Professional\VC\Tools\MSVC\14.44.35207\include\xutility
; File C:\Program Files\Microsoft Visual Studio\2022\Professional\VC\Tools\MSVC\14.44.35207\include\vector
; File C:\IAGOS\server\v18\Source\Source\_Common\pocket.cpp
;	COMDAT ?Add@CPocketController@@QAEHHPAVCItemElem@@PAV?$vector@U_PocketController_Result@@V?$allocator@U_PocketController_Result@@@std@@@std@@@Z
_TEXT	SEGMENT
_result$1 = -104					; size = 12
_this$GSCopy$1$ = -92					; size = 4
_pItemElem$GSCopy$1$ = -88				; size = 4
$T2 = -84						; size = 4
_nCount$ = -77						; size = 1
_anNum$ = -76						; size = 48
_anId$ = -28						; size = 24
__$ArrayPad$ = -4					; size = 4
_nPocket$ = 8						; size = 4
_pItemElem$ = 12					; size = 4
_apResult$ = 16						; size = 4
?Add@CPocketController@@QAEHHPAVCItemElem@@PAV?$vector@U_PocketController_Result@@V?$allocator@U_PocketController_Result@@@std@@@std@@@Z PROC ; CPocketController::Add, COMDAT
; _this$ = ecx

; 138  : {

  00000	55		 push	 ebp
  00001	8b ec		 mov	 ebp, esp
  00003	83 ec 68	 sub	 esp, 104		; 00000068H
  00006	a1 00 00 00 00	 mov	 eax, DWORD PTR ___security_cookie
  0000b	33 c5		 xor	 eax, ebp
  0000d	89 45 fc	 mov	 DWORD PTR __$ArrayPad$[ebp], eax
  00010	8b 55 0c	 mov	 edx, DWORD PTR _pItemElem$[ebp]
  00013	8b c1		 mov	 eax, ecx
  00015	53		 push	 ebx
  00016	8b 5d 08	 mov	 ebx, DWORD PTR _nPocket$[ebp]
  00019	89 45 a4	 mov	 DWORD PTR _this$GSCopy$1$[ebp], eax
  0001c	89 55 a8	 mov	 DWORD PTR _pItemElem$GSCopy$1$[ebp], edx

; 139  : 	BYTE anId[POCKET_SLOT_SIZE_1_2];
; 140  : 	short	anNum[POCKET_SLOT_SIZE_1_2];
; 141  : 	BYTE nCount	= 0;

  0001f	c6 45 b3 00	 mov	 BYTE PTR _nCount$[ebp], 0
  00023	57		 push	 edi
  00024	8b 7d 10	 mov	 edi, DWORD PTR _apResult$[ebp]

; 142  : 
; 143  : #ifdef __SECURITY_FIXES
; 144  : 	if (nPocket < 0)

  00027	85 db		 test	 ebx, ebx
  00029	0f 88 a3 00 00
	00		 js	 $LN6@Add
; File C:\IAGOS\server\v18\Source\Source\_Common\pocket.h

; 70   : 		{	return( m_apPocket[nPocket] && ( !bExpiration || !m_apPocket[nPocket]->IsExpired() ) );		}

  0002f	8b 4c 98 08	 mov	 ecx, DWORD PTR [eax+ebx*4+8]
  00033	85 c9		 test	 ecx, ecx
  00035	0f 84 97 00 00
	00		 je	 $LN6@Add
  0003b	83 79 14 00	 cmp	 DWORD PTR [ecx+20], 0
  0003f	0f 85 8d 00 00
	00		 jne	 $LN6@Add
; File C:\IAGOS\server\v18\Source\Source\_Common\pocket.cpp

; 150  : 	if( IsAvailable( nPocket ) && m_apPocket[nPocket]->Add( pItemElem, anId, anNum, &nCount ) )

  00045	8d 45 b3	 lea	 eax, DWORD PTR _nCount$[ebp]
  00048	50		 push	 eax
  00049	8d 45 b4	 lea	 eax, DWORD PTR _anNum$[ebp]
  0004c	50		 push	 eax
  0004d	8d 45 e4	 lea	 eax, DWORD PTR _anId$[ebp]
  00050	50		 push	 eax
  00051	52		 push	 edx
  00052	e8 00 00 00 00	 call	 ?Add@?$CItemContainer@VCItemElem@@@@QAEHPAVCItemElem@@PAEPAF1@Z ; CItemContainer<CItemElem>::Add
  00057	85 c0		 test	 eax, eax
  00059	74 77		 je	 SHORT $LN6@Add

; 151  : 	{
; 152  : 		if( apResult )

  0005b	85 ff		 test	 edi, edi
  0005d	74 4d		 je	 SHORT $LN3@Add

; 154  : 			for( int i = 0; i < nCount; i++ )

  0005f	0f b6 45 b3	 movzx	 eax, BYTE PTR _nCount$[ebp]
  00063	56		 push	 esi
  00064	33 f6		 xor	 esi, esi
  00066	89 45 ac	 mov	 DWORD PTR $T2[ebp], eax
  00069	85 c0		 test	 eax, eax
  0006b	74 3e		 je	 SHORT $LN39@Add
  0006d	0f 1f 00	 npad	 3
$LL4@Add:

; 155  : 			{
; 156  : 				PocketController_Result	result( nPocket, anId[i], anNum[i] ); 

  00070	0f b6 4c 35 e4	 movzx	 ecx, BYTE PTR _anId$[ebp+esi]
  00075	0f bf 54 75 b4	 movsx	 edx, WORD PTR _anNum$[ebp+esi*2]
; File C:\Program Files\Microsoft Visual Studio\2022\Professional\VC\Tools\MSVC\14.44.35207\include\vector

; 844  :         if (_Mylast != _My_data._Myend) {

  0007a	8b 47 04	 mov	 eax, DWORD PTR [edi+4]
; File C:\IAGOS\server\v18\Source\Source\_Common\pocket.h

; 42   : 		nPocket		= p;

  0007d	89 5d 98	 mov	 DWORD PTR _result$1[ebp], ebx

; 43   : 		nItem	= i;

  00080	89 4d 9c	 mov	 DWORD PTR _result$1[ebp+4], ecx

; 44   : 		nNum	= n;

  00083	89 55 a0	 mov	 DWORD PTR _result$1[ebp+8], edx
; File C:\Program Files\Microsoft Visual Studio\2022\Professional\VC\Tools\MSVC\14.44.35207\include\vector

; 844  :         if (_Mylast != _My_data._Myend) {

  00086	3b 47 08	 cmp	 eax, DWORD PTR [edi+8]
  00089	74 0e		 je	 SHORT $LN19@Add
; File C:\Program Files\Microsoft Visual Studio\2022\Professional\VC\Tools\MSVC\14.44.35207\include\xutility

; 476  :         ::new (static_cast<void*>(_STD addressof(_Obj))) _Ty(_STD forward<_Types>(_Args)...);

  0008b	89 18		 mov	 DWORD PTR [eax], ebx
  0008d	89 48 04	 mov	 DWORD PTR [eax+4], ecx
  00090	89 50 08	 mov	 DWORD PTR [eax+8], edx
; File C:\Program Files\Microsoft Visual Studio\2022\Professional\VC\Tools\MSVC\14.44.35207\include\vector

; 869  :         ++_Mylast;

  00093	83 47 04 0c	 add	 DWORD PTR [edi+4], 12	; 0000000cH

; 845  :             return _Emplace_back_with_unused_capacity(_STD forward<_Valty>(_Val)...);

  00097	eb 0c		 jmp	 SHORT $LN2@Add
$LN19@Add:

; 846  :         }
; 847  : 
; 848  :         return *_Emplace_reallocate(_Mylast, _STD forward<_Valty>(_Val)...);

  00099	8d 4d 98	 lea	 ecx, DWORD PTR _result$1[ebp]
  0009c	51		 push	 ecx
  0009d	50		 push	 eax
  0009e	8b cf		 mov	 ecx, edi
  000a0	e8 00 00 00 00	 call	 ??$_Emplace_reallocate@ABU_PocketController_Result@@@?$vector@U_PocketController_Result@@V?$allocator@U_PocketController_Result@@@std@@@std@@AAEPAU_PocketController_Result@@QAU2@ABU2@@Z ; std::vector<_PocketController_Result,std::allocator<_PocketController_Result> >::_Emplace_reallocate<_PocketController_Result const &>
$LN2@Add:
; File C:\IAGOS\server\v18\Source\Source\_Common\pocket.cpp

; 154  : 			for( int i = 0; i < nCount; i++ )

  000a5	46		 inc	 esi
  000a6	3b 75 ac	 cmp	 esi, DWORD PTR $T2[ebp]
  000a9	7c c5		 jl	 SHORT $LL4@Add
$LN39@Add:
  000ab	5e		 pop	 esi
$LN3@Add:

; 157  : 				apResult->push_back( result );
; 158  : 			}
; 159  : 		}
; 160  : #ifdef __WORLDSERVER
; 161  : //		if( m_pMover->IsPlayer() )
; 162  : 			( (CUser*)m_pMover )->AddPocketAddItem( nPocket, pItemElem );

  000ac	8b 4d a4	 mov	 ecx, DWORD PTR _this$GSCopy$1$[ebp]
  000af	ff 75 a8	 push	 DWORD PTR _pItemElem$GSCopy$1$[ebp]
  000b2	53		 push	 ebx
  000b3	8b 49 04	 mov	 ecx, DWORD PTR [ecx+4]
  000b6	e8 00 00 00 00	 call	 ?AddPocketAddItem@CUser@@QAEXHPAVCItemElem@@@Z ; CUser::AddPocketAddItem
  000bb	5f		 pop	 edi

; 163  : #endif	// __WORLDSERVER
; 164  : 		return TRUE;

  000bc	b8 01 00 00 00	 mov	 eax, 1

; 165  : 	}
; 166  : 	return FALSE;
; 167  : }

  000c1	5b		 pop	 ebx
  000c2	8b 4d fc	 mov	 ecx, DWORD PTR __$ArrayPad$[ebp]
  000c5	33 cd		 xor	 ecx, ebp
  000c7	e8 00 00 00 00	 call	 @__security_check_cookie@4
  000cc	8b e5		 mov	 esp, ebp
  000ce	5d		 pop	 ebp
  000cf	c2 0c 00	 ret	 12			; 0000000cH
$LN6@Add:
  000d2	8b 4d fc	 mov	 ecx, DWORD PTR __$ArrayPad$[ebp]
  000d5	33 c0		 xor	 eax, eax
  000d7	5f		 pop	 edi
  000d8	33 cd		 xor	 ecx, ebp
  000da	5b		 pop	 ebx
  000db	e8 00 00 00 00	 call	 @__security_check_cookie@4
  000e0	8b e5		 mov	 esp, ebp
  000e2	5d		 pop	 ebp
  000e3	c2 0c 00	 ret	 12			; 0000000cH
?Add@CPocketController@@QAEHHPAVCItemElem@@PAV?$vector@U_PocketController_Result@@V?$allocator@U_PocketController_Result@@@std@@@std@@@Z ENDP ; CPocketController::Add
_TEXT	ENDS
; Function compile flags: /Ogtp
; File C:\IAGOS\server\v18\Source\Source\_Common\pocket.cpp
; File C:\IAGOS\server\v18\Source\Source\_Common\pocket.h
; File C:\IAGOS\server\v18\Source\Source\_Common\pocket.cpp
;	COMDAT ?GetAtId@CPocketController@@QAEPAVCItemElem@@HHH@Z
_TEXT	SEGMENT
_nPocket$ = 8						; size = 4
_nItem$ = 12						; size = 4
_bExpiration$ = 16					; size = 4
?GetAtId@CPocketController@@QAEPAVCItemElem@@HHH@Z PROC	; CPocketController::GetAtId, COMDAT
; _this$ = ecx

; 100  : {

  00000	55		 push	 ebp
  00001	8b ec		 mov	 ebp, esp
; File C:\IAGOS\server\v18\Source\Source\_Common\pocket.h

; 70   : 		{	return( m_apPocket[nPocket] && ( !bExpiration || !m_apPocket[nPocket]->IsExpired() ) );		}

  00003	8b 45 08	 mov	 eax, DWORD PTR _nPocket$[ebp]
  00006	8b 4c 81 08	 mov	 ecx, DWORD PTR [ecx+eax*4+8]
  0000a	85 c9		 test	 ecx, ecx
  0000c	74 18		 je	 SHORT $LN9@GetAtId
  0000e	83 7d 10 00	 cmp	 DWORD PTR _bExpiration$[ebp], 0
  00012	74 06		 je	 SHORT $LN2@GetAtId
  00014	83 79 14 00	 cmp	 DWORD PTR [ecx+20], 0
  00018	75 0c		 jne	 SHORT $LN9@GetAtId
$LN2@GetAtId:
; File C:\IAGOS\server\v18\Source\Source\_Common\pocket.cpp

; 103  : 	return m_apPocket[nPocket]->GetAtId( nItem );

  0001a	ff 75 0c	 push	 DWORD PTR _nItem$[ebp]
  0001d	e8 00 00 00 00	 call	 ?GetAtId@?$CItemContainer@VCItemElem@@@@QAEPAVCItemElem@@K@Z ; CItemContainer<CItemElem>::GetAtId

; 104  : }

  00022	5d		 pop	 ebp
  00023	c2 0c 00	 ret	 12			; 0000000cH
$LN9@GetAtId:

; 101  : 	if( !IsAvailable( nPocket, bExpiration ) )
; 102  : 		return NULL;

  00026	33 c0		 xor	 eax, eax

; 104  : }

  00028	5d		 pop	 ebp
  00029	c2 0c 00	 ret	 12			; 0000000cH
?GetAtId@CPocketController@@QAEPAVCItemElem@@HHH@Z ENDP	; CPocketController::GetAtId
_TEXT	ENDS
; Function compile flags: /Ogtp
; File C:\IAGOS\server\v18\Source\Source\_Common\pocket.cpp
;	COMDAT ?Clear@CPocketController@@QAEXXZ
_TEXT	SEGMENT
?Clear@CPocketController@@QAEXXZ PROC			; CPocketController::Clear, COMDAT
; _this$ = ecx

; 71   : {

  00000	56		 push	 esi
  00001	57		 push	 edi

; 72   : 	for( int i = 0; i < MAX_POCKET; i++ )

  00002	8d 71 08	 lea	 esi, DWORD PTR [ecx+8]
  00005	bf 03 00 00 00	 mov	 edi, 3
  0000a	66 0f 1f 44 00
	00		 npad	 6
$LL4@Clear:

; 73   : 		SAFE_DELETE( m_apPocket[i] );

  00010	8b 0e		 mov	 ecx, DWORD PTR [esi]
  00012	85 c9		 test	 ecx, ecx
  00014	74 0c		 je	 SHORT $LN2@Clear
  00016	8b 01		 mov	 eax, DWORD PTR [ecx]
  00018	6a 01		 push	 1
  0001a	ff 10		 call	 DWORD PTR [eax]
  0001c	c7 06 00 00 00
	00		 mov	 DWORD PTR [esi], 0
$LN2@Clear:

; 72   : 	for( int i = 0; i < MAX_POCKET; i++ )

  00022	83 c6 04	 add	 esi, 4
  00025	83 ef 01	 sub	 edi, 1
  00028	75 e6		 jne	 SHORT $LL4@Clear
  0002a	5f		 pop	 edi
  0002b	5e		 pop	 esi

; 74   : }

  0002c	c3		 ret	 0
?Clear@CPocketController@@QAEXXZ ENDP			; CPocketController::Clear
_TEXT	ENDS
; Function compile flags: /Ogtp
; File C:\IAGOS\server\v18\Source\Source\_Common\pocket.cpp
;	COMDAT ??1CPocketController@@UAE@XZ
_TEXT	SEGMENT
??1CPocketController@@UAE@XZ PROC			; CPocketController::~CPocketController, COMDAT
; _this$ = ecx

; 66   : {

  00000	c7 01 00 00 00
	00		 mov	 DWORD PTR [ecx], OFFSET ??_7CPocketController@@6B@

; 67   : 	Clear();

  00006	e9 00 00 00 00	 jmp	 ?Clear@CPocketController@@QAEXXZ ; CPocketController::Clear
??1CPocketController@@UAE@XZ ENDP			; CPocketController::~CPocketController
_TEXT	ENDS
; Function compile flags: /Ogtp
; File C:\IAGOS\server\v18\Source\Source\_Common\pocket.cpp
;	COMDAT ??0CPocketController@@QAE@XZ
_TEXT	SEGMENT
??0CPocketController@@QAE@XZ PROC			; CPocketController::CPocketController, COMDAT
; _this$ = ecx

; 55   : {

  00000	c7 01 00 00 00
	00		 mov	 DWORD PTR [ecx], OFFSET ??_7CPocketController@@6B@
  00006	0f 57 c0	 xorps	 xmm0, xmm0

; 56   : #ifdef __WORLDSERVER
; 57   : 	m_pMover	= NULL;

  00009	c7 41 04 00 00
	00 00		 mov	 DWORD PTR [ecx+4], 0

; 58   : #endif	// __WORLDSERVER
; 59   : 	memset( m_apPocket, 0, sizeof(m_apPocket) );
; 60   : #ifndef __OPT_MEM_0811
; 61   : 	Avail( 0 );
; 62   : #endif	// __OPT_MEM_0811
; 63   : }

  00010	8b c1		 mov	 eax, ecx
  00012	66 0f d6 41 08	 movq	 QWORD PTR [ecx+8], xmm0
  00017	c7 41 10 00 00
	00 00		 mov	 DWORD PTR [ecx+16], 0
  0001e	c3		 ret	 0
??0CPocketController@@QAE@XZ ENDP			; CPocketController::CPocketController
_TEXT	ENDS
; Function compile flags: /Ogtp
;	COMDAT ??_GCPocket@@UAEPAXI@Z
_TEXT	SEGMENT
___flags$ = 8						; size = 4
??_GCPocket@@UAEPAXI@Z PROC				; CPocket::`scalar deleting destructor', COMDAT
; _this$ = ecx
  00000	55		 push	 ebp
  00001	8b ec		 mov	 ebp, esp
  00003	56		 push	 esi
  00004	8b f1		 mov	 esi, ecx
  00006	e8 00 00 00 00	 call	 ??1CPocket@@UAE@XZ	; CPocket::~CPocket
  0000b	f6 45 08 01	 test	 BYTE PTR ___flags$[ebp], 1
  0000f	74 0b		 je	 SHORT $LN5@scalar
  00011	6a 1c		 push	 28			; 0000001cH
  00013	56		 push	 esi
  00014	e8 00 00 00 00	 call	 ??3@YAXPAXI@Z		; operator delete
  00019	83 c4 08	 add	 esp, 8
$LN5@scalar:
  0001c	8b c6		 mov	 eax, esi
  0001e	5e		 pop	 esi
  0001f	5d		 pop	 ebp
  00020	c2 04 00	 ret	 4
??_GCPocket@@UAEPAXI@Z ENDP				; CPocket::`scalar deleting destructor'
_TEXT	ENDS
; Function compile flags: /Ogtp
; File C:\IAGOS\server\v18\Source\Source\_Common\pocket.cpp
; File C:\IAGOS\server\v18\Source\Source\_Network\Misc\Include\ar.h
; File C:\IAGOS\server\v18\Source\Source\_Common\pocket.cpp
; File C:\IAGOS\server\v18\Source\Source\_Network\Misc\Include\ar.h
; File C:\IAGOS\server\v18\Source\Source\_Common\pocket.cpp
;	COMDAT ?Serialize@CPocket@@QAEXAAVCAr@@@Z
_TEXT	SEGMENT
_ar$ = 8						; size = 4
_t$1 = 8						; size = 4
_t$2 = 8						; size = 4
?Serialize@CPocket@@QAEXAAVCAr@@@Z PROC			; CPocket::Serialize, COMDAT
; _this$ = ecx

; 29   : {

  00000	55		 push	 ebp
  00001	8b ec		 mov	 ebp, esp
  00003	53		 push	 ebx
  00004	56		 push	 esi
  00005	57		 push	 edi

; 30   : 	CItemContainer<CItemElem>::Serialize( ar );

  00006	8b 7d 08	 mov	 edi, DWORD PTR _ar$[ebp]
  00009	8b f1		 mov	 esi, ecx
  0000b	57		 push	 edi
  0000c	e8 00 00 00 00	 call	 ?Serialize@?$CItemContainer@VCItemElem@@@@QAEXAAVCAr@@@Z ; CItemContainer<CItemElem>::Serialize
; File C:\IAGOS\server\v18\Source\Source\_Network\Misc\Include\ar.h

; 146  : 	return (m_nMode & CAr::load) == 0;

  00011	8d 5e 18	 lea	 ebx, DWORD PTR [esi+24]
; File C:\IAGOS\server\v18\Source\Source\_Common\pocket.cpp

; 31   : 	if( ar.IsStoring() )

  00014	8b cf		 mov	 ecx, edi
; File C:\IAGOS\server\v18\Source\Source\_Network\Misc\Include\ar.h

; 146  : 	return (m_nMode & CAr::load) == 0;

  00016	83 c6 14	 add	 esi, 20			; 00000014H
  00019	f6 07 01	 test	 BYTE PTR [edi], 1
; File C:\IAGOS\server\v18\Source\Source\_Common\pocket.cpp

; 31   : 	if( ar.IsStoring() )

  0001c	53		 push	 ebx
  0001d	56		 push	 esi
  0001e	75 2d		 jne	 SHORT $LN2@Serialize

; 32   : 	{
; 33   : 		ar << m_bExpired << m_tExpirationDate;

  00020	e8 00 00 00 00	 call	 ??$?6H@CAr@@QAEAAV0@ABH@Z ; CAr::operator<<<int>
  00025	8b c8		 mov	 ecx, eax
  00027	e8 00 00 00 00	 call	 ??$?6J@CAr@@QAEAAV0@ABJ@Z ; CAr::operator<<<long>

; 34   : 		if( m_tExpirationDate )

  0002c	8b 03		 mov	 eax, DWORD PTR [ebx]
  0002e	85 c0		 test	 eax, eax
  00030	74 37		 je	 SHORT $LN5@Serialize

; 35   : 		{
; 36   : 			time_t	t	= m_tExpirationDate - time_null();

  00032	2b 05 00 00 00
	00		 sub	 eax, DWORD PTR ?g_tCurrent@@3JA ; g_tCurrent

; 37   : 			ar << t;

  00038	8b cf		 mov	 ecx, edi
  0003a	89 45 08	 mov	 DWORD PTR _t$1[ebp], eax
  0003d	8d 45 08	 lea	 eax, DWORD PTR _t$1[ebp]
  00040	50		 push	 eax
  00041	e8 00 00 00 00	 call	 ??$?6J@CAr@@QAEAAV0@ABJ@Z ; CAr::operator<<<long>
  00046	5f		 pop	 edi

; 47   : #ifdef __CLIENT
; 48   : 			m_tExpirationDate	= time_null() + t;
; 49   : #endif	// __CLIENT
; 50   : 		}
; 51   : 	}
; 52   : }

  00047	5e		 pop	 esi
  00048	5b		 pop	 ebx
  00049	5d		 pop	 ebp
  0004a	c2 04 00	 ret	 4
$LN2@Serialize:

; 38   : 		}
; 39   : 	}
; 40   : 	else
; 41   : 	{
; 42   : 		ar >> m_bExpired >> m_tExpirationDate;

  0004d	e8 00 00 00 00	 call	 ??$?5H@CAr@@QAEAAV0@AAH@Z ; CAr::operator>><int>
  00052	8b c8		 mov	 ecx, eax
  00054	e8 00 00 00 00	 call	 ??$?5J@CAr@@QAEAAV0@AAJ@Z ; CAr::operator>><long>

; 43   : 		if( m_tExpirationDate )

  00059	83 3b 00	 cmp	 DWORD PTR [ebx], 0
  0005c	74 0b		 je	 SHORT $LN5@Serialize

; 44   : 		{
; 45   : 			time_t	t;
; 46   : 			ar >> t;

  0005e	8d 45 08	 lea	 eax, DWORD PTR _t$2[ebp]
  00061	8b cf		 mov	 ecx, edi
  00063	50		 push	 eax
  00064	e8 00 00 00 00	 call	 ??$?5J@CAr@@QAEAAV0@AAJ@Z ; CAr::operator>><long>
$LN5@Serialize:

; 47   : #ifdef __CLIENT
; 48   : 			m_tExpirationDate	= time_null() + t;
; 49   : #endif	// __CLIENT
; 50   : 		}
; 51   : 	}
; 52   : }

  00069	5f		 pop	 edi
  0006a	5e		 pop	 esi
  0006b	5b		 pop	 ebx
  0006c	5d		 pop	 ebp
  0006d	c2 04 00	 ret	 4
?Serialize@CPocket@@QAEXAAVCAr@@@Z ENDP			; CPocket::Serialize
_TEXT	ENDS
; Function compile flags: /Ogtp
; File C:\IAGOS\server\v18\Source\Source\_Common\pocket.cpp
;	COMDAT ?Copy@CPocket@@QAEXAAV1@@Z
_TEXT	SEGMENT
_rPocket$ = 8						; size = 4
?Copy@CPocket@@QAEXAAV1@@Z PROC				; CPocket::Copy, COMDAT
; _this$ = ecx

; 22   : {

  00000	55		 push	 ebp
  00001	8b ec		 mov	 ebp, esp
  00003	56		 push	 esi

; 23   : 	CItemContainer<CItemElem>::Copy( rPocket );

  00004	8b 75 08	 mov	 esi, DWORD PTR _rPocket$[ebp]
  00007	57		 push	 edi
  00008	56		 push	 esi
  00009	8b f9		 mov	 edi, ecx
  0000b	e8 00 00 00 00	 call	 ?Copy@?$CItemContainer@VCItemElem@@@@QAEXAAV1@@Z ; CItemContainer<CItemElem>::Copy

; 24   : 	m_bExpired	= rPocket.IsExpired();

  00010	8b 46 14	 mov	 eax, DWORD PTR [esi+20]
  00013	89 47 14	 mov	 DWORD PTR [edi+20], eax

; 25   : 	m_tExpirationDate	= rPocket.GetExpirationDate();

  00016	8b 46 18	 mov	 eax, DWORD PTR [esi+24]
  00019	89 47 18	 mov	 DWORD PTR [edi+24], eax
  0001c	5f		 pop	 edi
  0001d	5e		 pop	 esi

; 26   : }

  0001e	5d		 pop	 ebp
  0001f	c2 04 00	 ret	 4
?Copy@CPocket@@QAEXAAV1@@Z ENDP				; CPocket::Copy
_TEXT	ENDS
; Function compile flags: /Ogtp
; File C:\IAGOS\server\v18\Source\Source\_Common\pocket.cpp
;	COMDAT ??1CPocket@@UAE@XZ
_TEXT	SEGMENT
??1CPocket@@UAE@XZ PROC					; CPocket::~CPocket, COMDAT
; _this$ = ecx

; 18   : {

  00000	c7 01 00 00 00
	00		 mov	 DWORD PTR [ecx], OFFSET ??_7CPocket@@6B@

; 19   : }

  00006	e9 00 00 00 00	 jmp	 ??1?$CItemContainer@VCItemElem@@@@UAE@XZ ; CItemContainer<CItemElem>::~CItemContainer<CItemElem>
??1CPocket@@UAE@XZ ENDP					; CPocket::~CPocket
_TEXT	ENDS
; Function compile flags: /Ogtp
; File C:\IAGOS\server\v18\Source\Source\_Common\pocket.cpp
;	COMDAT ??0CPocket@@QAE@XZ
_TEXT	SEGMENT
_this$ = -4						; size = 4
??0CPocket@@QAE@XZ PROC					; CPocket::CPocket, COMDAT
; _this$ = ecx

; 12   : {

  00000	55		 push	 ebp
  00001	8b ec		 mov	 ebp, esp
  00003	51		 push	 ecx
  00004	56		 push	 esi
  00005	8b f1		 mov	 esi, ecx
  00007	89 75 fc	 mov	 DWORD PTR _this$[ebp], esi
  0000a	e8 00 00 00 00	 call	 ??0?$CItemContainer@VCItemElem@@@@QAE@XZ ; CItemContainer<CItemElem>::CItemContainer<CItemElem>
  0000f	c7 06 00 00 00
	00		 mov	 DWORD PTR [esi], OFFSET ??_7CPocket@@6B@

; 13   : 	m_bExpired	= TRUE;
; 14   : 	m_tExpirationDate	= 0;
; 15   : }

  00015	8b c6		 mov	 eax, esi
  00017	c7 46 14 01 00
	00 00		 mov	 DWORD PTR [esi+20], 1
  0001e	c7 46 18 00 00
	00 00		 mov	 DWORD PTR [esi+24], 0
  00025	5e		 pop	 esi
  00026	8b e5		 mov	 esp, ebp
  00028	5d		 pop	 ebp
  00029	c3		 ret	 0
??0CPocket@@QAE@XZ ENDP					; CPocket::CPocket
_TEXT	ENDS
; Function compile flags: /Ogtp
;	COMDAT ??_G?$CItemContainer@VCItemElem@@@@UAEPAXI@Z
_TEXT	SEGMENT
___flags$ = 8						; size = 4
??_G?$CItemContainer@VCItemElem@@@@UAEPAXI@Z PROC	; CItemContainer<CItemElem>::`scalar deleting destructor', COMDAT
; _this$ = ecx
  00000	55		 push	 ebp
  00001	8b ec		 mov	 ebp, esp
  00003	56		 push	 esi
  00004	8b f1		 mov	 esi, ecx
  00006	e8 00 00 00 00	 call	 ??1?$CItemContainer@VCItemElem@@@@UAE@XZ ; CItemContainer<CItemElem>::~CItemContainer<CItemElem>
  0000b	f6 45 08 01	 test	 BYTE PTR ___flags$[ebp], 1
  0000f	74 0b		 je	 SHORT $LN5@scalar
  00011	6a 14		 push	 20			; 00000014H
  00013	56		 push	 esi
  00014	e8 00 00 00 00	 call	 ??3@YAXPAXI@Z		; operator delete
  00019	83 c4 08	 add	 esp, 8
$LN5@scalar:
  0001c	8b c6		 mov	 eax, esi
  0001e	5e		 pop	 esi
  0001f	5d		 pop	 ebp
  00020	c2 04 00	 ret	 4
??_G?$CItemContainer@VCItemElem@@@@UAEPAXI@Z ENDP	; CItemContainer<CItemElem>::`scalar deleting destructor'
_TEXT	ENDS
; Function compile flags: /Ogtp
; File C:\IAGOS\server\v18\Source\Source\_Common\Item.h
; File C:\IAGOS\server\v18\Source\Source\_Network\Misc\Include\ar.h
; File C:\IAGOS\server\v18\Source\Source\_Common\Item.h
; File C:\IAGOS\server\v18\Source\Source\_Network\Misc\Include\ar.h
; File C:\IAGOS\server\v18\Source\Source\_Common\Item.h
; File C:\IAGOS\server\v18\Source\Source\_Network\Misc\Include\ar.h
; File C:\IAGOS\server\v18\Source\Source\_Common\Item.h
;	COMDAT ?Serialize@?$CItemContainer@VCItemElem@@@@QAEXAAVCAr@@@Z
_TEXT	SEGMENT
_nBufSize$1 = -532					; size = 4
tv624 = -528						; size = 4
_uOffset$1$ = -524					; size = 4
_ar$GSCopy$1$ = -524					; size = 4
$T2 = -520						; size = 1
_ch$3 = -519						; size = 1
$T4 = -519						; size = 1
_chSize$1$ = -518					; size = 1
_chSize$ = -517						; size = 1
_ch$5 = -517						; size = 1
_adwObjIndex$ = -516					; size = 512
__$ArrayPad$ = -4					; size = 4
_ar$ = 8						; size = 4
?Serialize@?$CItemContainer@VCItemElem@@@@QAEXAAVCAr@@@Z PROC ; CItemContainer<CItemElem>::Serialize, COMDAT
; _this$ = ecx

; 895  : {

  00000	55		 push	 ebp
  00001	8b ec		 mov	 ebp, esp
  00003	81 ec 14 02 00
	00		 sub	 esp, 532		; 00000214H
  00009	a1 00 00 00 00	 mov	 eax, DWORD PTR ___security_cookie
  0000e	33 c5		 xor	 eax, ebp
  00010	89 45 fc	 mov	 DWORD PTR __$ArrayPad$[ebp], eax
  00013	53		 push	 ebx
  00014	56		 push	 esi
  00015	8b f1		 mov	 esi, ecx

; 896  : 	DWORD	adwObjIndex[128];
; 897  : 
; 898  : 	unsigned char chSize	= 0;

  00017	32 db		 xor	 bl, bl
  00019	57		 push	 edi
  0001a	8b 7d 08	 mov	 edi, DWORD PTR _ar$[ebp]
  0001d	89 bd f4 fd ff
	ff		 mov	 DWORD PTR _ar$GSCopy$1$[ebp], edi
; File C:\IAGOS\server\v18\Source\Source\_Network\Misc\Include\ar.h

; 146  : 	return (m_nMode & CAr::load) == 0;

  00023	8b 46 0c	 mov	 eax, DWORD PTR [esi+12]
  00026	8b 4e 04	 mov	 ecx, DWORD PTR [esi+4]
  00029	c1 e0 02	 shl	 eax, 2
  0002c	f6 07 01	 test	 BYTE PTR [edi], 1
; File C:\IAGOS\server\v18\Source\Source\_Common\Item.h

; 900  : 	if( ar.IsStoring() )

  0002f	50		 push	 eax
  00030	51		 push	 ecx
  00031	88 9d fa fd ff
	ff		 mov	 BYTE PTR _chSize$1$[ebp], bl
  00037	8b cf		 mov	 ecx, edi
  00039	88 9d fb fd ff
	ff		 mov	 BYTE PTR _chSize$[ebp], bl
  0003f	0f 85 08 01 00
	00		 jne	 $LN14@Serialize

; 901  : 	{
; 902  : 		
; 903  : 		ar.Write( m_apIndex, sizeof(DWORD) * m_dwItemMax );

  00045	e8 00 00 00 00	 call	 ?Write@CAr@@QAEXPBXI@Z	; CAr::Write
; File C:\IAGOS\server\v18\Source\Source\_Network\Misc\Include\ar.h

; 356  : 	return( m_lpBufCur - m_lpBufStart );

  0004a	8b 47 08	 mov	 eax, DWORD PTR [edi+8]
; File C:\IAGOS\server\v18\Source\Source\_Common\Item.h

; 906  : 		ar << chSize;

  0004d	8b cf		 mov	 ecx, edi
; File C:\IAGOS\server\v18\Source\Source\_Network\Misc\Include\ar.h

; 356  : 	return( m_lpBufCur - m_lpBufStart );

  0004f	2b 47 10	 sub	 eax, DWORD PTR [edi+16]
  00052	89 85 f4 fd ff
	ff		 mov	 DWORD PTR _uOffset$1$[ebp], eax
; File C:\IAGOS\server\v18\Source\Source\_Common\Item.h

; 906  : 		ar << chSize;

  00058	8d 85 fb fd ff
	ff		 lea	 eax, DWORD PTR _chSize$[ebp]
  0005e	50		 push	 eax
  0005f	e8 00 00 00 00	 call	 ??$?6E@CAr@@QAEAAV0@ABE@Z ; CAr::operator<<<unsigned char>

; 907  : 
; 908  : 		for( u_char ch = 0; ch < m_dwItemMax; ch++ )	// 0-504

  00064	8b 56 0c	 mov	 edx, DWORD PTR [esi+12]
  00067	88 9d fb fd ff
	ff		 mov	 BYTE PTR _ch$5[ebp], bl
  0006d	85 d2		 test	 edx, edx
  0006f	0f 84 98 00 00
	00		 je	 $LN3@Serialize
  00075	32 c9		 xor	 cl, cl
  00077	32 d2		 xor	 dl, dl
  00079	88 8d f8 fd ff
	ff		 mov	 BYTE PTR $T2[ebp], cl
  0007f	eb 06		 jmp	 SHORT $LN4@Serialize
$LL41@Serialize:
  00081	8a 95 f9 fd ff
	ff		 mov	 dl, BYTE PTR $T4[ebp]
$LN4@Serialize:

; 909  : 		{
; 910  : 			if( m_apItem[ch].IsEmpty() == FALSE )

  00087	0f b6 c3	 movzx	 eax, bl

; 50   : 	BOOL			IsEmpty() { return m_dwItemId ? FALSE : TRUE; }

  0008a	69 d8 b0 00 00
	00		 imul	 ebx, eax, 176

; 909  : 		{
; 910  : 			if( m_apItem[ch].IsEmpty() == FALSE )

  00090	89 85 f0 fd ff
	ff		 mov	 DWORD PTR tv624[ebp], eax
  00096	0f b6 c1	 movzx	 eax, cl
  00099	69 c8 b0 00 00
	00		 imul	 ecx, eax, 176

; 50   : 	BOOL			IsEmpty() { return m_dwItemId ? FALSE : TRUE; }

  0009f	8b 46 10	 mov	 eax, DWORD PTR [esi+16]
  000a2	83 7c 01 0c 00	 cmp	 DWORD PTR [ecx+eax+12], 0

; 909  : 		{
; 910  : 			if( m_apItem[ch].IsEmpty() == FALSE )

  000a7	74 25		 je	 SHORT $LN40@Serialize

; 911  : 			{
; 912  : 				ar << ch;

  000a9	8d 85 fb fd ff
	ff		 lea	 eax, DWORD PTR _ch$5[ebp]
  000af	8b cf		 mov	 ecx, edi
  000b1	50		 push	 eax
  000b2	e8 00 00 00 00	 call	 ??$?6E@CAr@@QAEAAV0@ABE@Z ; CAr::operator<<<unsigned char>

; 913  : 				m_apItem[ch].Serialize( ar );

  000b7	8b 4e 10	 mov	 ecx, DWORD PTR [esi+16]
  000ba	03 cb		 add	 ecx, ebx
  000bc	57		 push	 edi
  000bd	8b 01		 mov	 eax, DWORD PTR [ecx]
  000bf	ff 50 08	 call	 DWORD PTR [eax+8]

; 914  : 				chSize++;

  000c2	fe 85 fa fd ff
	ff		 inc	 BYTE PTR _chSize$1$[ebp]
  000c8	8a 95 f8 fd ff
	ff		 mov	 dl, BYTE PTR $T2[ebp]
$LN40@Serialize:

; 915  : 			}
; 916  : 			adwObjIndex[ch]		= m_apItem[ch].m_dwObjIndex;

  000ce	8b 46 10	 mov	 eax, DWORD PTR [esi+16]
  000d1	8b 8d f0 fd ff
	ff		 mov	 ecx, DWORD PTR tv624[ebp]
  000d7	8b 44 18 08	 mov	 eax, DWORD PTR [eax+ebx+8]
  000db	89 84 8d fc fd
	ff ff		 mov	 DWORD PTR _adwObjIndex$[ebp+ecx*4], eax
  000e2	8d 4a 01	 lea	 ecx, DWORD PTR [edx+1]
  000e5	8b 56 0c	 mov	 edx, DWORD PTR [esi+12]
  000e8	8a d9		 mov	 bl, cl
  000ea	0f b6 c1	 movzx	 eax, cl
  000ed	88 8d fb fd ff
	ff		 mov	 BYTE PTR _ch$5[ebp], cl
  000f3	88 8d f9 fd ff
	ff		 mov	 BYTE PTR $T4[ebp], cl
  000f9	88 8d f8 fd ff
	ff		 mov	 BYTE PTR $T2[ebp], cl
  000ff	3b c2		 cmp	 eax, edx
  00101	0f 82 7a ff ff
	ff		 jb	 $LL41@Serialize
  00107	8a 9d fa fd ff
	ff		 mov	 bl, BYTE PTR _chSize$1$[ebp]
$LN3@Serialize:

; 917  : 		}
; 918  : 
; 919  : 		ar.Write( adwObjIndex, sizeof(DWORD) * m_dwItemMax );

  0010d	8d 04 95 00 00
	00 00		 lea	 eax, DWORD PTR [edx*4]
  00114	8b cf		 mov	 ecx, edi
  00116	50		 push	 eax
  00117	8d 85 fc fd ff
	ff		 lea	 eax, DWORD PTR _adwObjIndex$[ebp]
  0011d	50		 push	 eax
  0011e	e8 00 00 00 00	 call	 ?Write@CAr@@QAEXPBXI@Z	; CAr::Write

; 920  : 
; 921  : 		int nBufSize;
; 922  : 		LPBYTE lpBuf	= ar.GetBuffer( &nBufSize );

  00123	8d 85 ec fd ff
	ff		 lea	 eax, DWORD PTR _nBufSize$1[ebp]
  00129	8b cf		 mov	 ecx, edi
  0012b	50		 push	 eax
  0012c	e8 00 00 00 00	 call	 ?GetBuffer@CAr@@QAEPAEPAH@Z ; CAr::GetBuffer

; 923  : 		*( lpBuf + uOffset )	= chSize;

  00131	8b 8d f4 fd ff
	ff		 mov	 ecx, DWORD PTR _uOffset$1$[ebp]
  00137	5f		 pop	 edi

; 945  : 		}
; 946  : 	}
; 947  : }

  00138	5e		 pop	 esi
  00139	88 1c 08	 mov	 BYTE PTR [eax+ecx], bl
  0013c	5b		 pop	 ebx
  0013d	8b 4d fc	 mov	 ecx, DWORD PTR __$ArrayPad$[ebp]
  00140	33 cd		 xor	 ecx, ebp
  00142	e8 00 00 00 00	 call	 @__security_check_cookie@4
  00147	8b e5		 mov	 esp, ebp
  00149	5d		 pop	 ebp
  0014a	c2 04 00	 ret	 4
$LN14@Serialize:

; 924  : 	}
; 925  : 	else
; 926  : 	{
; 927  : 		ar.Read( m_apIndex, sizeof(DWORD) * m_dwItemMax );

  0014d	e8 00 00 00 00	 call	 ?Read@CAr@@QAEXPAXI@Z	; CAr::Read

; 928  : 		// Clear
; 929  : 		for( u_long i = 0; i < m_dwItemMax; i++ )

  00152	83 7e 0c 00	 cmp	 DWORD PTR [esi+12], 0
  00156	76 24		 jbe	 SHORT $LN6@Serialize

; 924  : 	}
; 925  : 	else
; 926  : 	{
; 927  : 		ar.Read( m_apIndex, sizeof(DWORD) * m_dwItemMax );

  00158	33 db		 xor	 ebx, ebx
  0015a	33 ff		 xor	 edi, edi
  0015c	0f 1f 40 00	 npad	 4
$LL7@Serialize:

; 930  : 			m_apItem[i].Empty();

  00160	8b 4e 10	 mov	 ecx, DWORD PTR [esi+16]
  00163	03 cb		 add	 ecx, ebx
  00165	8b 01		 mov	 eax, DWORD PTR [ecx]
  00167	ff 50 0c	 call	 DWORD PTR [eax+12]
  0016a	47		 inc	 edi
  0016b	81 c3 b0 00 00
	00		 add	 ebx, 176		; 000000b0H
  00171	3b 7e 0c	 cmp	 edi, DWORD PTR [esi+12]
  00174	72 ea		 jb	 SHORT $LL7@Serialize
  00176	8b bd f4 fd ff
	ff		 mov	 edi, DWORD PTR _ar$GSCopy$1$[ebp]
$LN6@Serialize:

; 931  : 
; 932  : 		ar >> chSize;

  0017c	8d 85 fb fd ff
	ff		 lea	 eax, DWORD PTR _chSize$[ebp]
  00182	8b cf		 mov	 ecx, edi
  00184	50		 push	 eax
  00185	e8 00 00 00 00	 call	 ??$?5E@CAr@@QAEAAV0@AAE@Z ; CAr::operator>><unsigned char>

; 933  : 
; 934  : 		unsigned char ch;
; 935  : 		for( int i = 0; i < chSize; i++ )

  0018a	0f b6 9d fb fd
	ff ff		 movzx	 ebx, BYTE PTR _chSize$[ebp]
  00191	85 db		 test	 ebx, ebx
  00193	74 29		 je	 SHORT $LN9@Serialize
$LL10@Serialize:

; 936  : 		{
; 937  : 			ar >> ch;

  00195	8d 85 f9 fd ff
	ff		 lea	 eax, DWORD PTR _ch$3[ebp]
  0019b	8b cf		 mov	 ecx, edi
  0019d	50		 push	 eax
  0019e	e8 00 00 00 00	 call	 ??$?5E@CAr@@QAEAAV0@AAE@Z ; CAr::operator>><unsigned char>

; 938  : 			m_apItem[ch].Serialize( ar );

  001a3	0f b6 85 f9 fd
	ff ff		 movzx	 eax, BYTE PTR _ch$3[ebp]
  001aa	69 c8 b0 00 00
	00		 imul	 ecx, eax, 176
  001b0	57		 push	 edi
  001b1	03 4e 10	 add	 ecx, DWORD PTR [esi+16]
  001b4	8b 01		 mov	 eax, DWORD PTR [ecx]
  001b6	ff 50 08	 call	 DWORD PTR [eax+8]
  001b9	83 eb 01	 sub	 ebx, 1
  001bc	75 d7		 jne	 SHORT $LL10@Serialize
$LN9@Serialize:

; 939  : 		}
; 940  : 
; 941  : 		ar.Read( adwObjIndex, sizeof(DWORD) * m_dwItemMax );

  001be	8b 46 0c	 mov	 eax, DWORD PTR [esi+12]
  001c1	8b cf		 mov	 ecx, edi
  001c3	c1 e0 02	 shl	 eax, 2
  001c6	50		 push	 eax
  001c7	8d 85 fc fd ff
	ff		 lea	 eax, DWORD PTR _adwObjIndex$[ebp]
  001cd	50		 push	 eax
  001ce	e8 00 00 00 00	 call	 ?Read@CAr@@QAEXPAXI@Z	; CAr::Read

; 942  : 		for( DWORD i = 0; i < m_dwItemMax; i++ )

  001d3	33 d2		 xor	 edx, edx
  001d5	39 56 0c	 cmp	 DWORD PTR [esi+12], edx
  001d8	76 23		 jbe	 SHORT $LN12@Serialize

; 939  : 		}
; 940  : 
; 941  : 		ar.Read( adwObjIndex, sizeof(DWORD) * m_dwItemMax );

  001da	33 ff		 xor	 edi, edi
  001dc	0f 1f 40 00	 npad	 4
$LL13@Serialize:

; 943  : 		{
; 944  : 			m_apItem[i].m_dwObjIndex	= adwObjIndex[i];

  001e0	8b 4e 10	 mov	 ecx, DWORD PTR [esi+16]
  001e3	8d bf b0 00 00
	00		 lea	 edi, DWORD PTR [edi+176]
  001e9	8b 84 95 fc fd
	ff ff		 mov	 eax, DWORD PTR _adwObjIndex$[ebp+edx*4]
  001f0	42		 inc	 edx
  001f1	89 84 0f 58 ff
	ff ff		 mov	 DWORD PTR [edi+ecx-168], eax
  001f8	3b 56 0c	 cmp	 edx, DWORD PTR [esi+12]
  001fb	72 e3		 jb	 SHORT $LL13@Serialize
$LN12@Serialize:

; 945  : 		}
; 946  : 	}
; 947  : }

  001fd	8b 4d fc	 mov	 ecx, DWORD PTR __$ArrayPad$[ebp]
  00200	5f		 pop	 edi
  00201	5e		 pop	 esi
  00202	33 cd		 xor	 ecx, ebp
  00204	5b		 pop	 ebx
  00205	e8 00 00 00 00	 call	 @__security_check_cookie@4
  0020a	8b e5		 mov	 esp, ebp
  0020c	5d		 pop	 ebp
  0020d	c2 04 00	 ret	 4
?Serialize@?$CItemContainer@VCItemElem@@@@QAEXAAVCAr@@@Z ENDP ; CItemContainer<CItemElem>::Serialize
_TEXT	ENDS
; Function compile flags: /Ogtp
; File C:\IAGOS\server\v18\Source\Source\_Common\Item.h
;	COMDAT ?Copy@?$CItemContainer@VCItemElem@@@@QAEXAAV1@@Z
_TEXT	SEGMENT
_rItemContainer$ = 8					; size = 4
?Copy@?$CItemContainer@VCItemElem@@@@QAEXAAV1@@Z PROC	; CItemContainer<CItemElem>::Copy, COMDAT
; _this$ = ecx

; 880  : {

  00000	55		 push	 ebp
  00001	8b ec		 mov	 ebp, esp
  00003	53		 push	 ebx
  00004	8b d9		 mov	 ebx, ecx

; 881  : 	m_dwIndexNum	= rItemContainer.m_dwIndexNum;

  00006	8b 4d 08	 mov	 ecx, DWORD PTR _rItemContainer$[ebp]
  00009	57		 push	 edi
  0000a	8b 41 08	 mov	 eax, DWORD PTR [ecx+8]
  0000d	89 43 08	 mov	 DWORD PTR [ebx+8], eax

; 882  : 	memcpy( (void*)m_apIndex, (void*)rItemContainer.m_apIndex, sizeof(DWORD) * m_dwItemMax );

  00010	8b 43 0c	 mov	 eax, DWORD PTR [ebx+12]
  00013	c1 e0 02	 shl	 eax, 2
  00016	50		 push	 eax
  00017	ff 71 04	 push	 DWORD PTR [ecx+4]
  0001a	ff 73 04	 push	 DWORD PTR [ebx+4]
  0001d	e8 00 00 00 00	 call	 _memcpy

; 883  : 	for( u_long i = 0; i < m_dwItemMax; i++ )

  00022	33 ff		 xor	 edi, edi
  00024	83 c4 0c	 add	 esp, 12			; 0000000cH
  00027	39 7b 0c	 cmp	 DWORD PTR [ebx+12], edi
  0002a	76 4c		 jbe	 SHORT $LN3@Copy

; 881  : 	m_dwIndexNum	= rItemContainer.m_dwIndexNum;

  0002c	56		 push	 esi
  0002d	33 f6		 xor	 esi, esi
  0002f	90		 npad	 1
$LL4@Copy:

; 884  : 	{
; 885  : 		m_apItem[i].m_dwObjId	= rItemContainer.m_apItem[i].m_dwObjId;

  00030	8b 55 08	 mov	 edx, DWORD PTR _rItemContainer$[ebp]
  00033	8b 4b 10	 mov	 ecx, DWORD PTR [ebx+16]
  00036	8b 42 10	 mov	 eax, DWORD PTR [edx+16]
  00039	8b 44 30 04	 mov	 eax, DWORD PTR [eax+esi+4]
  0003d	89 44 31 04	 mov	 DWORD PTR [ecx+esi+4], eax

; 886  : 		m_apItem[i].m_dwObjIndex	= rItemContainer.m_apItem[i].m_dwObjIndex;

  00041	8b 42 10	 mov	 eax, DWORD PTR [edx+16]
  00044	8b 4b 10	 mov	 ecx, DWORD PTR [ebx+16]
  00047	8b 44 30 08	 mov	 eax, DWORD PTR [eax+esi+8]
  0004b	89 44 31 08	 mov	 DWORD PTR [ecx+esi+8], eax

; 50   : 	BOOL			IsEmpty() { return m_dwItemId ? FALSE : TRUE; }

  0004f	8b 52 10	 mov	 edx, DWORD PTR [edx+16]
  00052	8b 43 10	 mov	 eax, DWORD PTR [ebx+16]
  00055	03 d6		 add	 edx, esi
  00057	83 7a 0c 00	 cmp	 DWORD PTR [edx+12], 0

; 887  : 		if( rItemContainer.m_apItem[i].IsEmpty() == FALSE )

  0005b	8d 0c 06	 lea	 ecx, DWORD PTR [esi+eax]
  0005e	8b 01		 mov	 eax, DWORD PTR [ecx]
  00060	74 06		 je	 SHORT $LN5@Copy

; 888  : 			m_apItem[i]		= rItemContainer.m_apItem[i];

  00062	52		 push	 edx
  00063	ff 50 10	 call	 DWORD PTR [eax+16]
  00066	eb 03		 jmp	 SHORT $LN2@Copy
$LN5@Copy:

; 889  : 		else
; 890  : 			m_apItem[i].Empty();

  00068	ff 50 0c	 call	 DWORD PTR [eax+12]
$LN2@Copy:

; 883  : 	for( u_long i = 0; i < m_dwItemMax; i++ )

  0006b	47		 inc	 edi
  0006c	81 c6 b0 00 00
	00		 add	 esi, 176		; 000000b0H
  00072	3b 7b 0c	 cmp	 edi, DWORD PTR [ebx+12]
  00075	72 b9		 jb	 SHORT $LL4@Copy
  00077	5e		 pop	 esi
$LN3@Copy:
  00078	5f		 pop	 edi

; 891  : 	}
; 892  : }

  00079	5b		 pop	 ebx
  0007a	5d		 pop	 ebp
  0007b	c2 04 00	 ret	 4
?Copy@?$CItemContainer@VCItemElem@@@@QAEXAAV1@@Z ENDP	; CItemContainer<CItemElem>::Copy
_TEXT	ENDS
; Function compile flags: /Ogtp
; File C:\IAGOS\server\v18\Source\Source\_Common\Item.h
;	COMDAT ?RemoveAtId@?$CItemContainer@VCItemElem@@@@QAEXK@Z
_TEXT	SEGMENT
_dwObjId$ = 8						; size = 4
?RemoveAtId@?$CItemContainer@VCItemElem@@@@QAEXK@Z PROC	; CItemContainer<CItemElem>::RemoveAtId, COMDAT
; _this$ = ecx

; 764  : {

  00000	55		 push	 ebp
  00001	8b ec		 mov	 ebp, esp

; 765  : 	if( dwObjId >= m_dwItemMax )

  00003	8b 45 08	 mov	 eax, DWORD PTR _dwObjId$[ebp]
  00006	56		 push	 esi
  00007	8b f1		 mov	 esi, ecx
  00009	8b 56 0c	 mov	 edx, DWORD PTR [esi+12]
  0000c	3b c2		 cmp	 eax, edx
  0000e	73 38		 jae	 SHORT $LN4@RemoveAtId

; 766  : 		return;
; 767  : 	if( m_apItem[ dwObjId ].m_dwObjIndex >= m_dwItemMax )

  00010	8b 4e 10	 mov	 ecx, DWORD PTR [esi+16]
  00013	57		 push	 edi
  00014	69 f8 b0 00 00
	00		 imul	 edi, eax, 176
  0001a	03 cf		 add	 ecx, edi
  0001c	39 51 08	 cmp	 DWORD PTR [ecx+8], edx
  0001f	73 26		 jae	 SHORT $LN9@RemoveAtId

; 768  : 		return;
; 769  : 	m_apItem[ dwObjId ].Empty();

  00021	8b 01		 mov	 eax, DWORD PTR [ecx]
  00023	ff 50 0c	 call	 DWORD PTR [eax+12]

; 770  : 	if( m_apItem[ dwObjId ].m_dwObjIndex >= m_dwIndexNum )

  00026	8b 46 10	 mov	 eax, DWORD PTR [esi+16]
  00029	8b 4c 07 08	 mov	 ecx, DWORD PTR [edi+eax+8]
  0002d	3b 4e 08	 cmp	 ecx, DWORD PTR [esi+8]
  00030	72 15		 jb	 SHORT $LN9@RemoveAtId

; 771  : 	{
; 772  : 		m_apIndex[ m_apItem[ dwObjId ].m_dwObjIndex ] = NULL_ID;

  00032	8b 46 04	 mov	 eax, DWORD PTR [esi+4]
  00035	c7 04 88 ff ff
	ff ff		 mov	 DWORD PTR [eax+ecx*4], -1

; 773  : 		m_apItem[ dwObjId ].m_dwObjIndex = NULL_ID;

  0003c	8b 46 10	 mov	 eax, DWORD PTR [esi+16]
  0003f	c7 44 07 08 ff
	ff ff ff	 mov	 DWORD PTR [edi+eax+8], -1
$LN9@RemoveAtId:
  00047	5f		 pop	 edi
$LN4@RemoveAtId:
  00048	5e		 pop	 esi

; 774  : 	}
; 775  : }

  00049	5d		 pop	 ebp
  0004a	c2 04 00	 ret	 4
?RemoveAtId@?$CItemContainer@VCItemElem@@@@QAEXK@Z ENDP	; CItemContainer<CItemElem>::RemoveAtId
_TEXT	ENDS
; Function compile flags: /Ogtp
; File C:\IAGOS\server\v18\Source\Source\_Common\Item.h
;	COMDAT ?GetAtId@?$CItemContainer@VCItemElem@@@@QAEPAVCItemElem@@K@Z
_TEXT	SEGMENT
_dwId$ = 8						; size = 4
?GetAtId@?$CItemContainer@VCItemElem@@@@QAEPAVCItemElem@@K@Z PROC ; CItemContainer<CItemElem>::GetAtId, COMDAT
; _this$ = ecx

; 518  : {

  00000	55		 push	 ebp
  00001	8b ec		 mov	 ebp, esp

; 519  : 	if( dwId >= (DWORD)( GetMax() ) ) return NULL;

  00003	8b 45 08	 mov	 eax, DWORD PTR _dwId$[ebp]
  00006	3b 41 0c	 cmp	 eax, DWORD PTR [ecx+12]
  00009	73 15		 jae	 SHORT $LN7@GetAtId

; 520  : 	T* pItemElem = &m_apItem[ dwId ];

  0000b	69 c0 b0 00 00
	00		 imul	 eax, eax, 176
  00011	03 41 10	 add	 eax, DWORD PTR [ecx+16]

; 50   : 	BOOL			IsEmpty() { return m_dwItemId ? FALSE : TRUE; }

  00014	33 c9		 xor	 ecx, ecx
  00016	39 48 0c	 cmp	 DWORD PTR [eax+12], ecx
  00019	0f 44 c1	 cmove	 eax, ecx

; 523  : 	return pItemElem;
; 524  : }

  0001c	5d		 pop	 ebp
  0001d	c2 04 00	 ret	 4
$LN7@GetAtId:

; 521  : 	if( pItemElem->IsEmpty() ) 
; 522  : 		return NULL;

  00020	33 c0		 xor	 eax, eax

; 523  : 	return pItemElem;
; 524  : }

  00022	5d		 pop	 ebp
  00023	c2 04 00	 ret	 4
?GetAtId@?$CItemContainer@VCItemElem@@@@QAEPAVCItemElem@@K@Z ENDP ; CItemContainer<CItemElem>::GetAtId
_TEXT	ENDS
; Function compile flags: /Ogtp
; File C:\IAGOS\server\v18\Source\Source\_Common\Item.h
;	COMDAT ?IsFull@?$CItemContainer@VCItemElem@@@@QAEHPAVCItemElem@@PAUItemProp@@F@Z
_TEXT	SEGMENT
_this$1$ = -4						; size = 4
_pElem$ = 8						; size = 4
_pItemProp$ = 12					; size = 4
_nNum$ = 16						; size = 2
tv344 = 16						; size = 4
?IsFull@?$CItemContainer@VCItemElem@@@@QAEHPAVCItemElem@@PAUItemProp@@F@Z PROC ; CItemContainer<CItemElem>::IsFull, COMDAT
; _this$ = ecx

; 632  : {

  00000	55		 push	 ebp
  00001	8b ec		 mov	 ebp, esp
  00003	51		 push	 ecx

; 633  : 	int nId;
; 634  : 	short nNumtmp	= nNum;

  00004	0f b7 55 10	 movzx	 edx, WORD PTR _nNum$[ebp]
  00008	53		 push	 ebx
  00009	56		 push	 esi
  0000a	8b f1		 mov	 esi, ecx
  0000c	57		 push	 edi

; 635  : 	CItemElem* pElemtmp;
; 636  : 	for( DWORD i = 0; i < m_dwIndexNum; i++ )

  0000d	33 ff		 xor	 edi, edi
  0000f	89 75 fc	 mov	 DWORD PTR _this$1$[ebp], esi
  00012	39 7e 08	 cmp	 DWORD PTR [esi+8], edi
  00015	0f 86 7e 00 00
	00		 jbe	 $LN19@IsFull

; 637  : 	{
; 638  : 		nId	= m_apIndex[i];

  0001b	8b 5e 04	 mov	 ebx, DWORD PTR [esi+4]
  0001e	66 90		 npad	 2
$LL4@IsFull:
  00020	8b 03		 mov	 eax, DWORD PTR [ebx]

; 639  : 		if( nId < 0 || nId >= (int)( m_dwItemMax ) )

  00022	85 c0		 test	 eax, eax
  00024	78 6a		 js	 SHORT $LN2@IsFull
  00026	3b 46 0c	 cmp	 eax, DWORD PTR [esi+12]
  00029	7d 65		 jge	 SHORT $LN2@IsFull

; 640  : 			continue;
; 641  : 		pElemtmp	= (CItemElem*)&m_apItem[nId];

  0002b	69 c8 b0 00 00
	00		 imul	 ecx, eax, 176
  00031	03 4e 10	 add	 ecx, DWORD PTR [esi+16]

; 50   : 	BOOL			IsEmpty() { return m_dwItemId ? FALSE : TRUE; }

  00034	8b 41 0c	 mov	 eax, DWORD PTR [ecx+12]
  00037	85 c0		 test	 eax, eax

; 642  : 		if( pElemtmp->IsEmpty() )

  00039	75 10		 jne	 SHORT $LN7@IsFull

; 643  : 		{
; 644  : 			if( nNumtmp > (short)pItemProp->dwPackMax )

  0003b	8b 45 0c	 mov	 eax, DWORD PTR _pItemProp$[ebp]
  0003e	0f b7 40 6c	 movzx	 eax, WORD PTR [eax+108]
  00042	66 3b d0	 cmp	 dx, ax
  00045	7e 60		 jle	 SHORT $LN12@IsFull

; 645  : 				nNumtmp		-= (short)pItemProp->dwPackMax;

  00047	2b d0		 sub	 edx, eax

; 646  : 			else
; 647  : 				return FALSE;
; 648  : 		}

  00049	eb 45		 jmp	 SHORT $LN2@IsFull
$LN7@IsFull:

; 649  : 		else if( pElem->m_dwItemId == pElemtmp->m_dwItemId
; 650  : 				&& pElem->m_byFlag == pElemtmp->m_byFlag && pElem->m_bCharged == pElemtmp->m_bCharged )

  0004b	8b 75 08	 mov	 esi, DWORD PTR _pElem$[ebp]
  0004e	39 46 0c	 cmp	 DWORD PTR [esi+12], eax
  00051	75 3a		 jne	 SHORT $LN24@IsFull
  00053	8a 46 76	 mov	 al, BYTE PTR [esi+118]
  00056	3a 41 76	 cmp	 al, BYTE PTR [ecx+118]
  00059	75 32		 jne	 SHORT $LN24@IsFull
  0005b	8b 86 a4 00 00
	00		 mov	 eax, DWORD PTR [esi+164]
  00061	3b 81 a4 00 00
	00		 cmp	 eax, DWORD PTR [ecx+164]
  00067	75 24		 jne	 SHORT $LN24@IsFull

; 651  : 		{
; 652  : 			if( pElemtmp->m_nItemNum + nNumtmp > (short)pItemProp->dwPackMax )

  00069	0f b7 71 74	 movzx	 esi, WORD PTR [ecx+116]
  0006d	0f bf c2	 movsx	 eax, dx
  00070	0f bf ce	 movsx	 ecx, si
  00073	03 c8		 add	 ecx, eax
  00075	89 4d 10	 mov	 DWORD PTR tv344[ebp], ecx
  00078	8b 4d 0c	 mov	 ecx, DWORD PTR _pItemProp$[ebp]
  0007b	0f b7 41 6c	 movzx	 eax, WORD PTR [ecx+108]
  0007f	98		 cwde
  00080	39 45 10	 cmp	 DWORD PTR tv344[ebp], eax
  00083	7e 22		 jle	 SHORT $LN12@IsFull

; 653  : 				nNumtmp	-= ( (short)pItemProp->dwPackMax - pElemtmp->m_nItemNum );

  00085	0f b7 41 6c	 movzx	 eax, WORD PTR [ecx+108]
  00089	2b f0		 sub	 esi, eax
  0008b	03 d6		 add	 edx, esi
$LN24@IsFull:

; 635  : 	CItemElem* pElemtmp;
; 636  : 	for( DWORD i = 0; i < m_dwIndexNum; i++ )

  0008d	8b 75 fc	 mov	 esi, DWORD PTR _this$1$[ebp]
$LN2@IsFull:
  00090	47		 inc	 edi
  00091	83 c3 04	 add	 ebx, 4
  00094	3b 7e 08	 cmp	 edi, DWORD PTR [esi+8]
  00097	72 87		 jb	 SHORT $LL4@IsFull
$LN19@IsFull:
  00099	5f		 pop	 edi

; 654  : 			else
; 655  : 				return FALSE;
; 656  : 		}
; 657  : 	}
; 658  : 
; 659  : 	return TRUE;
; 660  : }

  0009a	5e		 pop	 esi
  0009b	b8 01 00 00 00	 mov	 eax, 1
  000a0	5b		 pop	 ebx
  000a1	8b e5		 mov	 esp, ebp
  000a3	5d		 pop	 ebp
  000a4	c2 0c 00	 ret	 12			; 0000000cH
$LN12@IsFull:
  000a7	5f		 pop	 edi
  000a8	5e		 pop	 esi
  000a9	33 c0		 xor	 eax, eax
  000ab	5b		 pop	 ebx
  000ac	8b e5		 mov	 esp, ebp
  000ae	5d		 pop	 ebp
  000af	c2 0c 00	 ret	 12			; 0000000cH
?IsFull@?$CItemContainer@VCItemElem@@@@QAEHPAVCItemElem@@PAUItemProp@@F@Z ENDP ; CItemContainer<CItemElem>::IsFull
_TEXT	ENDS
; Function compile flags: /Ogtp
; File C:\IAGOS\server\v18\Source\Source\_Common\Item.h
; File C:\IAGOS\server\v18\Source\Source\_Common\Project.h
; File C:\IAGOS\server\v18\Source\Source\_Common\Item.h
; File C:\IAGOS\server\v18\Source\Source\_Common\Project.h
; File C:\IAGOS\server\v18\Source\Source\_Common\data.h
; File C:\IAGOS\server\v18\Source\Source\_Common\Item.h
; File C:\IAGOS\server\v18\Source\Source\_Common\Project.h
; File C:\IAGOS\server\v18\Source\Source\_Common\Item.h
;	COMDAT ?Add@?$CItemContainer@VCItemElem@@@@QAEHPAVCItemElem@@PAEPAF1@Z
_TEXT	SEGMENT
_nId$1$ = -16						; size = 4
tv606 = -12						; size = 4
_nId$2$ = -12						; size = 4
_i$1$ = -8						; size = 4
_i$1$ = -8						; size = 4
$T1 = -4						; size = 4
_pElem$ = 8						; size = 4
_pnId$ = 12						; size = 4
_pnNum$ = 16						; size = 4
_pnCount$ = 20						; size = 4
_nNumtmp$ = 20						; size = 2
_nNumtmp$1$ = 22					; size = 2
?Add@?$CItemContainer@VCItemElem@@@@QAEHPAVCItemElem@@PAEPAF1@Z PROC ; CItemContainer<CItemElem>::Add, COMDAT
; _this$ = ecx

; 663  : {

  00000	55		 push	 ebp
  00001	8b ec		 mov	 ebp, esp
  00003	83 ec 10	 sub	 esp, 16			; 00000010H

; 664  : 	if( pnId )

  00006	83 7d 0c 00	 cmp	 DWORD PTR _pnId$[ebp], 0
  0000a	53		 push	 ebx
  0000b	8b 5d 14	 mov	 ebx, DWORD PTR _pnCount$[ebp]
  0000e	56		 push	 esi
  0000f	57		 push	 edi
  00010	8b f9		 mov	 edi, ecx
  00012	74 03		 je	 SHORT $LN8@Add

; 665  : 		*pnCount	= 0;

  00014	c6 03 00	 mov	 BYTE PTR [ebx], 0
$LN8@Add:

; 230  : 	ItemProp*	GetProp()	{	return prj.GetItemProp( m_dwItemId );	}

  00017	8b 75 08	 mov	 esi, DWORD PTR _pElem$[ebp]
; File C:\IAGOS\server\v18\Source\Source\_Common\Project.h

; 1389 : 	VERIFY_RANGE_ASSERT( nIndex, 0, m_aPropItem.GetSize(), "GetItemProp range_error", NULL );

  0001a	a1 40 02 00 00	 mov	 eax, DWORD PTR ?prj@@3VCProject@@A+576
; File C:\IAGOS\server\v18\Source\Source\_Common\Item.h

; 230  : 	ItemProp*	GetProp()	{	return prj.GetItemProp( m_dwItemId );	}

  0001f	8b 4e 0c	 mov	 ecx, DWORD PTR [esi+12]
; File C:\IAGOS\server\v18\Source\Source\_Common\Project.h

; 1389 : 	VERIFY_RANGE_ASSERT( nIndex, 0, m_aPropItem.GetSize(), "GetItemProp range_error", NULL );

  00022	85 c9		 test	 ecx, ecx
  00024	0f 88 45 02 00
	00		 js	 $LN37@Add
  0002a	3b c8		 cmp	 ecx, eax
  0002c	0f 8d 3d 02 00
	00		 jge	 $LN37@Add
; File C:\IAGOS\server\v18\Source\Source\_Common\data.h

; 270  : 	if( dwIndex >= (DWORD)m_nMaxIndex )

  00032	72 04		 jb	 SHORT $LN42@Add

; 271  : 		return NULL;

  00034	33 c9		 xor	 ecx, ecx
  00036	eb 08		 jmp	 SHORT $LN93@Add
$LN42@Add:

; 272  : 	return (T*) m_apOffset[ dwIndex ];

  00038	a1 30 02 00 00	 mov	 eax, DWORD PTR ?prj@@3VCProject@@A+560
  0003d	8b 0c 88	 mov	 ecx, DWORD PTR [eax+ecx*4]
$LN93@Add:
; File C:\IAGOS\server\v18\Source\Source\_Common\Item.h

; 667  : 	if( !pItemProp )

  00040	89 4d fc	 mov	 DWORD PTR $T1[ebp], ecx
  00043	85 c9		 test	 ecx, ecx
  00045	0f 84 3a 02 00
	00		 je	 $LN61@Add

; 668  : 		return FALSE;
; 669  : 	BOOL bPackItem = TRUE;
; 670  : 	int nId;
; 671  : 
; 672  : 	short nNumtmp	= ( (CItemElem*)pElem )->m_nItemNum;

  0004b	0f b7 46 74	 movzx	 eax, WORD PTR [esi+116]

; 673  : 	if( IsFull( pElem, pItemProp, nNumtmp ) )	// ľĆŔĚĹŰŔ» łÖŔ»Ľö ŔÖ´ÂÁö °Ë»ç

  0004f	50		 push	 eax
  00050	51		 push	 ecx
  00051	56		 push	 esi
  00052	8b cf		 mov	 ecx, edi
  00054	89 45 14	 mov	 DWORD PTR _nNumtmp$[ebp], eax
  00057	e8 00 00 00 00	 call	 ?IsFull@?$CItemContainer@VCItemElem@@@@QAEHPAVCItemElem@@PAUItemProp@@F@Z ; CItemContainer<CItemElem>::IsFull
  0005c	85 c0		 test	 eax, eax
  0005e	0f 85 21 02 00
	00		 jne	 $LN61@Add

; 674  : 		return FALSE;
; 675  : 
; 676  : 	if( pItemProp->dwPackMax == 1 )

  00064	8b 45 fc	 mov	 eax, DWORD PTR $T1[ebp]
  00067	83 78 6c 01	 cmp	 DWORD PTR [eax+108], 1
  0006b	0f 84 c1 00 00
	00		 je	 $LN52@Add

; 677  : 		bPackItem = FALSE;
; 678  : 
; 679  : 	CItemElem* pElemtmp;
; 680  : 	if( bPackItem )
; 681  : 	{
; 682  : 		for( DWORD i = 0; i < m_dwIndexNum; i++ )

  00071	33 c9		 xor	 ecx, ecx
  00073	89 4d f8	 mov	 DWORD PTR _i$1$[ebp], ecx
  00076	39 4f 08	 cmp	 DWORD PTR [edi+8], ecx
  00079	0f 86 b3 00 00
	00		 jbe	 $LN52@Add
  0007f	90		 npad	 1
$LL4@Add:

; 683  : 		{
; 684  : 			nId	= m_apIndex[i];

  00080	8b 47 04	 mov	 eax, DWORD PTR [edi+4]
  00083	8b 04 88	 mov	 eax, DWORD PTR [eax+ecx*4]
  00086	89 45 f0	 mov	 DWORD PTR _nId$1$[ebp], eax

; 685  : 			if( nId < 0 || nId >= (int)( m_dwItemMax ) )

  00089	85 c0		 test	 eax, eax
  0008b	0f 88 94 00 00
	00		 js	 $LN2@Add
  00091	3b 47 0c	 cmp	 eax, DWORD PTR [edi+12]
  00094	0f 8d 8b 00 00
	00		 jge	 $LN2@Add

; 686  : 				continue;
; 687  : 			pElemtmp	= (CItemElem*)&m_apItem[nId];

  0009a	69 d0 b0 00 00
	00		 imul	 edx, eax, 176
  000a0	03 57 10	 add	 edx, DWORD PTR [edi+16]

; 50   : 	BOOL			IsEmpty() { return m_dwItemId ? FALSE : TRUE; }

  000a3	8b 42 0c	 mov	 eax, DWORD PTR [edx+12]
  000a6	85 c0		 test	 eax, eax

; 688  : 			
; 689  : 			if( pElemtmp->IsEmpty() == FALSE && pElemtmp->m_dwItemId == pElem->m_dwItemId && pElemtmp->m_nItemNum < (short)pItemProp->dwPackMax 
; 690  : 				&& pElem->m_byFlag == pElemtmp->m_byFlag && pElem->m_bCharged == pElemtmp->m_bCharged )

  000a8	74 7b		 je	 SHORT $LN2@Add
  000aa	3b 46 0c	 cmp	 eax, DWORD PTR [esi+12]
  000ad	75 76		 jne	 SHORT $LN2@Add
  000af	8b 45 fc	 mov	 eax, DWORD PTR $T1[ebp]
  000b2	0f b7 72 74	 movzx	 esi, WORD PTR [edx+116]
  000b6	0f b7 40 6c	 movzx	 eax, WORD PTR [eax+108]
  000ba	89 45 f4	 mov	 DWORD PTR tv606[ebp], eax
  000bd	66 3b f0	 cmp	 si, ax
  000c0	7d 60		 jge	 SHORT $LN66@Add
  000c2	8b 45 08	 mov	 eax, DWORD PTR _pElem$[ebp]
  000c5	8a 40 76	 mov	 al, BYTE PTR [eax+118]
  000c8	3a 42 76	 cmp	 al, BYTE PTR [edx+118]
  000cb	75 55		 jne	 SHORT $LN66@Add
  000cd	8b 45 08	 mov	 eax, DWORD PTR _pElem$[ebp]
  000d0	8b 80 a4 00 00
	00		 mov	 eax, DWORD PTR [eax+164]
  000d6	3b 82 a4 00 00
	00		 cmp	 eax, DWORD PTR [edx+164]
  000dc	75 44		 jne	 SHORT $LN66@Add

; 691  : 			{
; 692  : 				if( pElemtmp->m_nItemNum + nNumtmp > (short)pItemProp->dwPackMax )

  000de	0f bf 45 14	 movsx	 eax, WORD PTR _nNumtmp$[ebp]
  000e2	0f bf ce	 movsx	 ecx, si
  000e5	03 c8		 add	 ecx, eax
  000e7	8b 45 f4	 mov	 eax, DWORD PTR tv606[ebp]
  000ea	98		 cwde
  000eb	3b c8		 cmp	 ecx, eax
  000ed	0f 8e 13 01 00
	00		 jle	 $LN16@Add

; 693  : 				{
; 694  : 					nNumtmp	-= ( (short)pItemProp->dwPackMax - pElemtmp->m_nItemNum );

  000f3	8b 45 f4	 mov	 eax, DWORD PTR tv606[ebp]
  000f6	2b f0		 sub	 esi, eax
  000f8	01 75 14	 add	 DWORD PTR _nNumtmp$[ebp], esi

; 695  : 					pElemtmp->m_nItemNum	= (short)pItemProp->dwPackMax;
; 696  : 					if( pnId )

  000fb	8b 75 0c	 mov	 esi, DWORD PTR _pnId$[ebp]
  000fe	66 89 42 74	 mov	 WORD PTR [edx+116], ax
  00102	85 f6		 test	 esi, esi
  00104	74 19		 je	 SHORT $LN63@Add

; 697  : 					{
; 698  : 						pnId[*pnCount]	= nId;

  00106	0f b6 03	 movzx	 eax, BYTE PTR [ebx]
  00109	8b 4d f0	 mov	 ecx, DWORD PTR _nId$1$[ebp]
  0010c	88 0c 30	 mov	 BYTE PTR [eax+esi], cl

; 699  : 						pnNum[*pnCount]	= pElemtmp->m_nItemNum;

  0010f	66 8b 42 74	 mov	 ax, WORD PTR [edx+116]
  00113	0f b6 0b	 movzx	 ecx, BYTE PTR [ebx]
  00116	8b 55 10	 mov	 edx, DWORD PTR _pnNum$[ebp]
  00119	66 89 04 4a	 mov	 WORD PTR [edx+ecx*2], ax

; 700  : 						( *pnCount )++;

  0011d	fe 03		 inc	 BYTE PTR [ebx]
$LN63@Add:

; 677  : 		bPackItem = FALSE;
; 678  : 
; 679  : 	CItemElem* pElemtmp;
; 680  : 	if( bPackItem )
; 681  : 	{
; 682  : 		for( DWORD i = 0; i < m_dwIndexNum; i++ )

  0011f	8b 4d f8	 mov	 ecx, DWORD PTR _i$1$[ebp]
$LN66@Add:
  00122	8b 75 08	 mov	 esi, DWORD PTR _pElem$[ebp]
$LN2@Add:
  00125	41		 inc	 ecx
  00126	89 4d f8	 mov	 DWORD PTR _i$1$[ebp], ecx
  00129	3b 4f 08	 cmp	 ecx, DWORD PTR [edi+8]
  0012c	0f 82 4e ff ff
	ff		 jb	 $LL4@Add
$LN52@Add:

; 708  : 						( *pnCount )++;
; 709  : 					}
; 710  : 					nNumtmp = 0;
; 711  : 					break;
; 712  : 				}
; 713  : 			}
; 714  : 			
; 715  : 		}
; 716  : 	}
; 717  : 
; 718  : 	if( nNumtmp > 0 )

  00132	66 8b 55 14	 mov	 dx, WORD PTR _nNumtmp$[ebp]
  00136	66 89 55 16	 mov	 WORD PTR _nNumtmp$1$[ebp], dx
  0013a	66 85 d2	 test	 dx, dx
  0013d	0f 8e b5 00 00
	00		 jle	 $LN28@Add

; 719  : 	{
; 720  : 		for( DWORD i = 0 ; i < m_dwIndexNum ; i++ )

  00143	33 c9		 xor	 ecx, ecx
  00145	89 4d f8	 mov	 DWORD PTR _i$1$[ebp], ecx
  00148	39 4f 08	 cmp	 DWORD PTR [edi+8], ecx
  0014b	0f 86 9a 00 00
	00		 jbe	 $LN58@Add
$LL7@Add:

; 721  : 		{
; 722  : 			nId	= m_apIndex[i];

  00151	8b 47 04	 mov	 eax, DWORD PTR [edi+4]
  00154	8b 04 88	 mov	 eax, DWORD PTR [eax+ecx*4]
  00157	89 45 f4	 mov	 DWORD PTR _nId$2$[ebp], eax

; 723  : 			if( nId < 0 || nId >= (int)( m_dwItemMax ) )

  0015a	85 c0		 test	 eax, eax
  0015c	78 78		 js	 SHORT $LN5@Add
  0015e	3b 47 0c	 cmp	 eax, DWORD PTR [edi+12]
  00161	7d 73		 jge	 SHORT $LN5@Add

; 724  : 				continue;
; 725  : 			pElemtmp	= (CItemElem*)&m_apItem[nId];

  00163	69 f0 b0 00 00
	00		 imul	 esi, eax, 176
  00169	03 77 10	 add	 esi, DWORD PTR [edi+16]

; 50   : 	BOOL			IsEmpty() { return m_dwItemId ? FALSE : TRUE; }

  0016c	83 7e 0c 00	 cmp	 DWORD PTR [esi+12], 0

; 726  : 			if( pElemtmp->IsEmpty() )	// şó°ř°ŁŔÎÁö °Ë»ç

  00170	75 64		 jne	 SHORT $LN5@Add

; 727  : 			{
; 728  : 				*pElemtmp	= *( (CItemElem*)pElem );

  00172	8b 06		 mov	 eax, DWORD PTR [esi]
  00174	8b ce		 mov	 ecx, esi
  00176	ff 75 08	 push	 DWORD PTR _pElem$[ebp]
  00179	ff 50 10	 call	 DWORD PTR [eax+16]

; 729  : 				pElemtmp->m_dwObjId	= nId;

  0017c	8b 45 f4	 mov	 eax, DWORD PTR _nId$2$[ebp]

; 730  : 				pElemtmp->m_dwObjIndex		= i;
; 731  : 				pElemtmp->SetTexture();

  0017f	8b ce		 mov	 ecx, esi
  00181	89 46 04	 mov	 DWORD PTR [esi+4], eax
  00184	8b 45 f8	 mov	 eax, DWORD PTR _i$1$[ebp]
  00187	89 46 08	 mov	 DWORD PTR [esi+8], eax
  0018a	e8 00 00 00 00	 call	 ?SetTexture@CItemBase@@QAEXXZ ; CItemBase::SetTexture

; 732  : 				
; 733  : 				if( nNumtmp > (short)pItemProp->dwPackMax )

  0018f	8b 55 fc	 mov	 edx, DWORD PTR $T1[ebp]
  00192	66 8b 4d 16	 mov	 cx, WORD PTR _nNumtmp$1$[ebp]
  00196	0f b7 42 6c	 movzx	 eax, WORD PTR [edx+108]
  0019a	66 3b c8	 cmp	 cx, ax
  0019d	0f 8e 9a 00 00
	00		 jle	 $LN24@Add

; 734  : 				{
; 735  : 					pElemtmp->m_nItemNum	= (short)pItemProp->dwPackMax;

  001a3	66 89 46 74	 mov	 WORD PTR [esi+116], ax

; 736  : 					nNumtmp		-= (short)pItemProp->dwPackMax;

  001a7	66 2b 4a 6c	 sub	 cx, WORD PTR [edx+108]

; 737  : 					if( pnId ) {

  001ab	8b 55 0c	 mov	 edx, DWORD PTR _pnId$[ebp]
  001ae	66 89 4d 16	 mov	 WORD PTR _nNumtmp$1$[ebp], cx
  001b2	85 d2		 test	 edx, edx
  001b4	74 19		 je	 SHORT $LN62@Add

; 738  : 						pnId[*pnCount]	= nId;

  001b6	0f b6 03	 movzx	 eax, BYTE PTR [ebx]
  001b9	8b 4d f4	 mov	 ecx, DWORD PTR _nId$2$[ebp]
  001bc	88 0c 10	 mov	 BYTE PTR [eax+edx], cl

; 739  : 						pnNum[*pnCount]	= pElemtmp->m_nItemNum;

  001bf	0f b6 0b	 movzx	 ecx, BYTE PTR [ebx]
  001c2	8b 55 10	 mov	 edx, DWORD PTR _pnNum$[ebp]
  001c5	66 8b 46 74	 mov	 ax, WORD PTR [esi+116]
  001c9	66 89 04 4a	 mov	 WORD PTR [edx+ecx*2], ax

; 740  : 						( *pnCount )++;

  001cd	fe 03		 inc	 BYTE PTR [ebx]
$LN62@Add:

; 719  : 	{
; 720  : 		for( DWORD i = 0 ; i < m_dwIndexNum ; i++ )

  001cf	66 8b 55 16	 mov	 dx, WORD PTR _nNumtmp$1$[ebp]
  001d3	8b 4d f8	 mov	 ecx, DWORD PTR _i$1$[ebp]
$LN5@Add:
  001d6	41		 inc	 ecx
  001d7	0f b7 c2	 movzx	 eax, dx
  001da	89 4d f8	 mov	 DWORD PTR _i$1$[ebp], ecx
  001dd	3b 4f 08	 cmp	 ecx, DWORD PTR [edi+8]
  001e0	0f 82 6b ff ff
	ff		 jb	 $LL7@Add

; 751  : 						( *pnCount )++;
; 752  : 					}
; 753  : 					break;
; 754  : 				}
; 755  : 			}
; 756  : 		}
; 757  : 	}
; 758  : 	if( nNumtmp > 0 )

  001e6	66 85 c0	 test	 ax, ax
  001e9	7e 0d		 jle	 SHORT $LN28@Add
$LN58@Add:

; 759  : 		Error( "template <class T> BOOL CItemContainer<T>::Add( T* pElem... : nNumtmp > 0" );

  001eb	68 00 00 00 00	 push	 OFFSET ??_C@_0EK@GINEPMCL@template?5?$DMclass?5T?$DO?5BOOL?5CItemCo@
  001f0	e8 00 00 00 00	 call	 ?Error@@YAPBDPBDZZ	; Error
  001f5	83 c4 04	 add	 esp, 4
$LN28@Add:

; 761  : }

  001f8	5f		 pop	 edi
  001f9	5e		 pop	 esi
  001fa	b8 01 00 00 00	 mov	 eax, 1
  001ff	5b		 pop	 ebx
  00200	8b e5		 mov	 esp, ebp
  00202	5d		 pop	 ebp
  00203	c2 10 00	 ret	 16			; 00000010H
$LN16@Add:

; 701  : 					}
; 702  : 				}
; 703  : 				else {
; 704  : 					pElemtmp->m_nItemNum	+= nNumtmp;

  00206	8b 45 14	 mov	 eax, DWORD PTR _nNumtmp$[ebp]
  00209	03 c6		 add	 eax, esi

; 705  : 					if( pnId ) {

  0020b	8b 75 0c	 mov	 esi, DWORD PTR _pnId$[ebp]
  0020e	66 89 42 74	 mov	 WORD PTR [edx+116], ax
  00212	85 f6		 test	 esi, esi
  00214	74 e2		 je	 SHORT $LN28@Add

; 706  : 						pnId[*pnCount]	= nId;

  00216	0f b6 03	 movzx	 eax, BYTE PTR [ebx]
  00219	8b 4d f0	 mov	 ecx, DWORD PTR _nId$1$[ebp]
  0021c	5f		 pop	 edi
  0021d	88 0c 30	 mov	 BYTE PTR [eax+esi], cl

; 707  : 						pnNum[*pnCount]		= pElemtmp->m_nItemNum;	

  00220	66 8b 42 74	 mov	 ax, WORD PTR [edx+116]
  00224	0f b6 0b	 movzx	 ecx, BYTE PTR [ebx]
  00227	8b 55 10	 mov	 edx, DWORD PTR _pnNum$[ebp]

; 761  : }

  0022a	5e		 pop	 esi
  0022b	66 89 04 4a	 mov	 WORD PTR [edx+ecx*2], ax
  0022f	b8 01 00 00 00	 mov	 eax, 1
  00234	fe 03		 inc	 BYTE PTR [ebx]
  00236	5b		 pop	 ebx
  00237	8b e5		 mov	 esp, ebp
  00239	5d		 pop	 ebp
  0023a	c2 10 00	 ret	 16			; 00000010H
$LN24@Add:

; 741  : 					}
; 742  : 				}
; 743  : 				else
; 744  : 				{
; 745  : 					pElemtmp->m_nItemNum	= nNumtmp;
; 746  : 					nNumtmp	= 0;
; 747  : 					if( pnId )

  0023d	8b 55 0c	 mov	 edx, DWORD PTR _pnId$[ebp]
  00240	66 89 4e 74	 mov	 WORD PTR [esi+116], cx
  00244	85 d2		 test	 edx, edx
  00246	74 b0		 je	 SHORT $LN28@Add

; 748  : 					{
; 749  : 						pnId[*pnCount]	= nId;

  00248	0f b6 03	 movzx	 eax, BYTE PTR [ebx]
  0024b	8b 4d f4	 mov	 ecx, DWORD PTR _nId$2$[ebp]
  0024e	5f		 pop	 edi
  0024f	88 0c 10	 mov	 BYTE PTR [eax+edx], cl

; 750  : 						pnNum[*pnCount]		= pElemtmp->m_nItemNum;

  00252	0f b6 0b	 movzx	 ecx, BYTE PTR [ebx]
  00255	66 8b 46 74	 mov	 ax, WORD PTR [esi+116]
  00259	8b 55 10	 mov	 edx, DWORD PTR _pnNum$[ebp]

; 761  : }

  0025c	5e		 pop	 esi
  0025d	66 89 04 4a	 mov	 WORD PTR [edx+ecx*2], ax
  00261	b8 01 00 00 00	 mov	 eax, 1
  00266	fe 03		 inc	 BYTE PTR [ebx]
  00268	5b		 pop	 ebx
  00269	8b e5		 mov	 esp, ebp
  0026b	5d		 pop	 ebp
  0026c	c2 10 00	 ret	 16			; 00000010H
$LN37@Add:
; File C:\IAGOS\server\v18\Source\Source\_Common\Project.h

; 579  : 	LPCTSTR szErr = Error( _T( "%s min:%d, max:%d, index:%d" ), szMsg, nMin, nMax, nIndex ); 

  0026f	51		 push	 ecx
  00270	50		 push	 eax
  00271	6a 00		 push	 0
  00273	68 00 00 00 00	 push	 OFFSET ??_C@_0BI@BEIFNGEL@GetItemProp?5range_error@
  00278	68 00 00 00 00	 push	 OFFSET ??_C@_0BM@HMFGHCP@?$CFs?5min?3?$CFd?0?5max?3?$CFd?0?5index?3?$CFd@
  0027d	e8 00 00 00 00	 call	 ?Error@@YAPBDPBDZZ	; Error
  00282	83 c4 14	 add	 esp, 20			; 00000014H
$LN61@Add:
  00285	5f		 pop	 edi
; File C:\IAGOS\server\v18\Source\Source\_Common\Item.h

; 761  : }

  00286	5e		 pop	 esi
  00287	33 c0		 xor	 eax, eax
  00289	5b		 pop	 ebx
  0028a	8b e5		 mov	 esp, ebp
  0028c	5d		 pop	 ebp
  0028d	c2 10 00	 ret	 16			; 00000010H
?Add@?$CItemContainer@VCItemElem@@@@QAEHPAVCItemElem@@PAEPAF1@Z ENDP ; CItemContainer<CItemElem>::Add
_TEXT	ENDS
; Function compile flags: /Ogtp
; File C:\IAGOS\server\v18\Source\Source\_Common\Item.h
;	COMDAT ?Clear@?$CItemContainer@VCItemElem@@@@QAEXXZ
_TEXT	SEGMENT
?Clear@?$CItemContainer@VCItemElem@@@@QAEXXZ PROC	; CItemContainer<CItemElem>::Clear, COMDAT
; _this$ = ecx

; 483  : {

  00000	56		 push	 esi
  00001	57		 push	 edi
  00002	8b f9		 mov	 edi, ecx

; 484  : 	for( DWORD i = 0; i < m_dwItemMax; i++ )

  00004	33 f6		 xor	 esi, esi
  00006	39 77 0c	 cmp	 DWORD PTR [edi+12], esi
  00009	76 41		 jbe	 SHORT $LN3@Clear
  0000b	53		 push	 ebx
  0000c	33 db		 xor	 ebx, ebx
  0000e	66 90		 npad	 2
$LL4@Clear:

; 485  : 	{
; 486  : 		m_apItem[ i ].Empty();

  00010	8b 4f 10	 mov	 ecx, DWORD PTR [edi+16]
  00013	03 cb		 add	 ecx, ebx
  00015	8b 01		 mov	 eax, DWORD PTR [ecx]
  00017	ff 50 0c	 call	 DWORD PTR [eax+12]

; 487  : 		m_apItem[ i ].m_dwObjId = i;

  0001a	8b 47 10	 mov	 eax, DWORD PTR [edi+16]
  0001d	89 74 18 04	 mov	 DWORD PTR [eax+ebx+4], esi

; 488  : 		if( i < m_dwIndexNum )

  00021	3b 77 08	 cmp	 esi, DWORD PTR [edi+8]
  00024	73 0f		 jae	 SHORT $LN5@Clear

; 489  : 		{
; 490  : 			m_apItem[ i ].m_dwObjIndex = i;

  00026	8b 47 10	 mov	 eax, DWORD PTR [edi+16]
  00029	89 74 18 08	 mov	 DWORD PTR [eax+ebx+8], esi

; 491  : 			m_apIndex[ i ] = i;

  0002d	8b 47 04	 mov	 eax, DWORD PTR [edi+4]
  00030	89 34 b0	 mov	 DWORD PTR [eax+esi*4], esi

; 492  : 		}

  00033	eb 0a		 jmp	 SHORT $LN2@Clear
$LN5@Clear:

; 493  : 		else 
; 494  : 		{
; 495  : 			m_apIndex[ i ] = NULL_ID;

  00035	8b 47 04	 mov	 eax, DWORD PTR [edi+4]
  00038	c7 04 b0 ff ff
	ff ff		 mov	 DWORD PTR [eax+esi*4], -1
$LN2@Clear:

; 484  : 	for( DWORD i = 0; i < m_dwItemMax; i++ )

  0003f	46		 inc	 esi
  00040	81 c3 b0 00 00
	00		 add	 ebx, 176		; 000000b0H
  00046	3b 77 0c	 cmp	 esi, DWORD PTR [edi+12]
  00049	72 c5		 jb	 SHORT $LL4@Clear
  0004b	5b		 pop	 ebx
$LN3@Clear:
  0004c	5f		 pop	 edi

; 496  : 		}
; 497  : 	}
; 498  : }

  0004d	5e		 pop	 esi
  0004e	c3		 ret	 0
?Clear@?$CItemContainer@VCItemElem@@@@QAEXXZ ENDP	; CItemContainer<CItemElem>::Clear
_TEXT	ENDS
; Function compile flags: /Ogtp
; File C:\IAGOS\server\v18\Source\Source\_Common\Item.h
;	COMDAT ??1?$CItemContainer@VCItemElem@@@@UAE@XZ
_TEXT	SEGMENT
??1?$CItemContainer@VCItemElem@@@@UAE@XZ PROC		; CItemContainer<CItemElem>::~CItemContainer<CItemElem>, COMDAT
; _this$ = ecx

; 477  : {

  00000	56		 push	 esi
  00001	8b f1		 mov	 esi, ecx

; 478  : 	SAFE_DELETE_ARRAY( m_apItem );

  00003	8b 4e 10	 mov	 ecx, DWORD PTR [esi+16]
  00006	c7 06 00 00 00
	00		 mov	 DWORD PTR [esi], OFFSET ??_7?$CItemContainer@VCItemElem@@@@6B@
  0000c	85 c9		 test	 ecx, ecx
  0000e	74 23		 je	 SHORT $LN2@CItemConta
  00010	83 79 fc 00	 cmp	 DWORD PTR [ecx-4], 0
  00014	8d 41 fc	 lea	 eax, DWORD PTR [ecx-4]
  00017	74 08		 je	 SHORT $LN5@CItemConta
  00019	8b 01		 mov	 eax, DWORD PTR [ecx]
  0001b	6a 03		 push	 3
  0001d	ff 10		 call	 DWORD PTR [eax]
  0001f	eb 0b		 jmp	 SHORT $LN6@CItemConta
$LN5@CItemConta:
  00021	6a 04		 push	 4
  00023	50		 push	 eax
  00024	e8 00 00 00 00	 call	 ??_V@YAXPAXI@Z		; operator delete[]
  00029	83 c4 08	 add	 esp, 8
$LN6@CItemConta:
  0002c	c7 46 10 00 00
	00 00		 mov	 DWORD PTR [esi+16], 0
$LN2@CItemConta:

; 479  : 	SAFE_DELETE_ARRAY( m_apIndex );

  00033	8b 46 04	 mov	 eax, DWORD PTR [esi+4]
  00036	85 c0		 test	 eax, eax
  00038	74 10		 je	 SHORT $LN3@CItemConta
  0003a	50		 push	 eax
  0003b	e8 00 00 00 00	 call	 ??_V@YAXPAX@Z		; operator delete[]
  00040	83 c4 04	 add	 esp, 4
  00043	c7 46 04 00 00
	00 00		 mov	 DWORD PTR [esi+4], 0
$LN3@CItemConta:

; 480  : }

  0004a	5e		 pop	 esi
  0004b	c3		 ret	 0
??1?$CItemContainer@VCItemElem@@@@UAE@XZ ENDP		; CItemContainer<CItemElem>::~CItemContainer<CItemElem>
_TEXT	ENDS
; Function compile flags: /Ogtp
; File C:\IAGOS\server\v18\Source\Source\_Common\Item.h
;	COMDAT ??0?$CItemContainer@VCItemElem@@@@QAE@XZ
_TEXT	SEGMENT
??0?$CItemContainer@VCItemElem@@@@QAE@XZ PROC		; CItemContainer<CItemElem>::CItemContainer<CItemElem>, COMDAT
; _this$ = ecx

; 462  : {

  00000	c7 01 00 00 00
	00		 mov	 DWORD PTR [ecx], OFFSET ??_7?$CItemContainer@VCItemElem@@@@6B@

; 463  : 	m_dwIndexNum = 0;
; 464  : 	m_dwItemMax = 0;
; 465  : 
; 466  : 	m_apItem = NULL;
; 467  : 	m_apIndex = NULL;
; 468  : }

  00006	8b c1		 mov	 eax, ecx
  00008	c7 41 08 00 00
	00 00		 mov	 DWORD PTR [ecx+8], 0
  0000f	c7 41 0c 00 00
	00 00		 mov	 DWORD PTR [ecx+12], 0
  00016	c7 41 10 00 00
	00 00		 mov	 DWORD PTR [ecx+16], 0
  0001d	c7 41 04 00 00
	00 00		 mov	 DWORD PTR [ecx+4], 0
  00024	c3		 ret	 0
??0?$CItemContainer@VCItemElem@@@@QAE@XZ ENDP		; CItemContainer<CItemElem>::CItemContainer<CItemElem>
_TEXT	ENDS
; Function compile flags: /Ogtp
; File C:\IAGOS\server\v18\Source\Source\_Common\Item.h
;	COMDAT ?SetItemContainer@?$CItemContainer@VCItemElem@@@@QAEXKKK@Z
_TEXT	SEGMENT
__$EHRec$ = -12						; size = 12
_dwItemType$ = 8					; size = 4
_dwItemMax$ = 12					; size = 4
$T2 = 12						; size = 4
_dwExtra$ = 16						; size = 4
$T3 = 16						; size = 4
?SetItemContainer@?$CItemContainer@VCItemElem@@@@QAEXKKK@Z PROC ; CItemContainer<CItemElem>::SetItemContainer, COMDAT
; _this$ = ecx

; 501  : {

  00000	55		 push	 ebp
  00001	8b ec		 mov	 ebp, esp
  00003	6a ff		 push	 -1
  00005	68 00 00 00 00	 push	 __ehhandler$?SetItemContainer@?$CItemContainer@VCItemElem@@@@QAEXKKK@Z
  0000a	64 a1 00 00 00
	00		 mov	 eax, DWORD PTR fs:0
  00010	50		 push	 eax
  00011	53		 push	 ebx
  00012	56		 push	 esi
  00013	57		 push	 edi
  00014	a1 00 00 00 00	 mov	 eax, DWORD PTR ___security_cookie
  00019	33 c5		 xor	 eax, ebp
  0001b	50		 push	 eax
  0001c	8d 45 f4	 lea	 eax, DWORD PTR __$EHRec$[ebp]
  0001f	64 a3 00 00 00
	00		 mov	 DWORD PTR fs:0, eax
  00025	8b f1		 mov	 esi, ecx

; 502  : 	m_dwIndexNum = dwItemMax;

  00027	8b 45 0c	 mov	 eax, DWORD PTR _dwItemMax$[ebp]

; 503  : 	m_dwItemMax = dwItemMax;
; 504  : 	if( dwExtra != NULL_ID )

  0002a	8b 4d 10	 mov	 ecx, DWORD PTR _dwExtra$[ebp]
  0002d	89 46 08	 mov	 DWORD PTR [esi+8], eax
  00030	89 46 0c	 mov	 DWORD PTR [esi+12], eax
  00033	83 f9 ff	 cmp	 ecx, -1
  00036	74 05		 je	 SHORT $LN2@SetItemCon

; 505  : 		m_dwItemMax += dwExtra;

  00038	03 c1		 add	 eax, ecx
  0003a	89 46 0c	 mov	 DWORD PTR [esi+12], eax
$LN2@SetItemCon:

; 506  : 	
; 507  : 	SAFE_DELETE_ARRAY( m_apItem );

  0003d	8b 4e 10	 mov	 ecx, DWORD PTR [esi+16]
  00040	85 c9		 test	 ecx, ecx
  00042	74 23		 je	 SHORT $LN3@SetItemCon
  00044	83 79 fc 00	 cmp	 DWORD PTR [ecx-4], 0
  00048	8d 41 fc	 lea	 eax, DWORD PTR [ecx-4]
  0004b	74 08		 je	 SHORT $LN6@SetItemCon
  0004d	8b 01		 mov	 eax, DWORD PTR [ecx]
  0004f	6a 03		 push	 3
  00051	ff 10		 call	 DWORD PTR [eax]
  00053	eb 0b		 jmp	 SHORT $LN7@SetItemCon
$LN6@SetItemCon:
  00055	6a 04		 push	 4
  00057	50		 push	 eax
  00058	e8 00 00 00 00	 call	 ??_V@YAXPAXI@Z		; operator delete[]
  0005d	83 c4 08	 add	 esp, 8
$LN7@SetItemCon:
  00060	c7 46 10 00 00
	00 00		 mov	 DWORD PTR [esi+16], 0
$LN3@SetItemCon:

; 508  : 	SAFE_DELETE_ARRAY( m_apIndex );

  00067	8b 46 04	 mov	 eax, DWORD PTR [esi+4]
  0006a	85 c0		 test	 eax, eax
  0006c	74 10		 je	 SHORT $LN4@SetItemCon
  0006e	50		 push	 eax
  0006f	e8 00 00 00 00	 call	 ??_V@YAXPAX@Z		; operator delete[]
  00074	83 c4 04	 add	 esp, 4
  00077	c7 46 04 00 00
	00 00		 mov	 DWORD PTR [esi+4], 0
$LN4@SetItemCon:

; 509  : 
; 510  : 	m_apItem = new T[ m_dwItemMax ];

  0007e	8b 5e 0c	 mov	 ebx, DWORD PTR [esi+12]
  00081	b9 b0 00 00 00	 mov	 ecx, 176		; 000000b0H
  00086	8b c3		 mov	 eax, ebx
  00088	89 5d 0c	 mov	 DWORD PTR $T2[ebp], ebx
  0008b	f7 e1		 mul	 ecx
  0008d	b9 ff ff ff ff	 mov	 ecx, -1
  00092	0f 42 c1	 cmovb	 eax, ecx
  00095	83 c0 04	 add	 eax, 4
  00098	0f 42 c1	 cmovb	 eax, ecx
  0009b	50		 push	 eax
  0009c	e8 00 00 00 00	 call	 ??_U@YAPAXI@Z		; operator new[]
  000a1	83 c4 04	 add	 esp, 4
  000a4	89 45 10	 mov	 DWORD PTR $T3[ebp], eax
  000a7	c7 45 fc 00 00
	00 00		 mov	 DWORD PTR __$EHRec$[ebp+8], 0
  000ae	85 c0		 test	 eax, eax
  000b0	74 1d		 je	 SHORT $LN10@SetItemCon
  000b2	68 00 00 00 00	 push	 OFFSET ??1CItemElem@@UAE@XZ ; CItemElem::~CItemElem
  000b7	68 00 00 00 00	 push	 OFFSET ??0CItemElem@@QAE@XZ ; CItemElem::CItemElem
  000bc	53		 push	 ebx
  000bd	8d 78 04	 lea	 edi, DWORD PTR [eax+4]
  000c0	89 18		 mov	 DWORD PTR [eax], ebx
  000c2	68 b0 00 00 00	 push	 176			; 000000b0H
  000c7	57		 push	 edi
  000c8	e8 00 00 00 00	 call	 ??_L@YGXPAXIIP6EX0@Z1@Z
  000cd	eb 02		 jmp	 SHORT $LN11@SetItemCon
$LN10@SetItemCon:
  000cf	33 ff		 xor	 edi, edi
$LN11@SetItemCon:

; 511  : 	m_apIndex = new DWORD[ m_dwItemMax ];

  000d1	8b 46 0c	 mov	 eax, DWORD PTR [esi+12]
  000d4	b9 04 00 00 00	 mov	 ecx, 4
  000d9	f7 e1		 mul	 ecx
  000db	b9 ff ff ff ff	 mov	 ecx, -1
  000e0	c7 45 fc ff ff
	ff ff		 mov	 DWORD PTR __$EHRec$[ebp+8], -1
  000e7	89 7e 10	 mov	 DWORD PTR [esi+16], edi
  000ea	0f 42 c1	 cmovb	 eax, ecx
  000ed	50		 push	 eax
  000ee	e8 00 00 00 00	 call	 ??_U@YAPAXI@Z		; operator new[]
  000f3	83 c4 04	 add	 esp, 4
  000f6	89 46 04	 mov	 DWORD PTR [esi+4], eax

; 512  : 	Clear();

  000f9	8b ce		 mov	 ecx, esi
  000fb	e8 00 00 00 00	 call	 ?Clear@?$CItemContainer@VCItemElem@@@@QAEXXZ ; CItemContainer<CItemElem>::Clear

; 513  : }

  00100	8b 4d f4	 mov	 ecx, DWORD PTR __$EHRec$[ebp]
  00103	64 89 0d 00 00
	00 00		 mov	 DWORD PTR fs:0, ecx
  0010a	59		 pop	 ecx
  0010b	5f		 pop	 edi
  0010c	5e		 pop	 esi
  0010d	5b		 pop	 ebx
  0010e	8b e5		 mov	 esp, ebp
  00110	5d		 pop	 ebp
  00111	c2 0c 00	 ret	 12			; 0000000cH
_TEXT	ENDS
;	COMDAT text$x
text$x	SEGMENT
__unwindfunclet$?SetItemContainer@?$CItemContainer@VCItemElem@@@@QAEXKKK@Z$0:
  00000	8b 45 0c	 mov	 eax, DWORD PTR $T2[ebp]
  00003	b9 b0 00 00 00	 mov	 ecx, 176		; 000000b0H
  00008	f7 e1		 mul	 ecx
  0000a	8b c8		 mov	 ecx, eax
  0000c	b8 ff ff ff ff	 mov	 eax, -1
  00011	0f 42 c8	 cmovb	 ecx, eax
  00014	83 c1 04	 add	 ecx, 4
  00017	b8 ff ff ff ff	 mov	 eax, -1
  0001c	0f 42 c8	 cmovb	 ecx, eax
  0001f	51		 push	 ecx
  00020	8b 45 10	 mov	 eax, DWORD PTR $T3[ebp]
  00023	50		 push	 eax
  00024	e8 00 00 00 00	 call	 ??_V@YAXPAXI@Z		; operator delete[]
  00029	83 c4 08	 add	 esp, 8
  0002c	c3		 ret	 0
  0002d	cc		 int	 3
  0002e	cc		 int	 3
  0002f	cc		 int	 3
  00030	cc		 int	 3
  00031	cc		 int	 3
__ehhandler$?SetItemContainer@?$CItemContainer@VCItemElem@@@@QAEXKKK@Z:
  00032	90		 npad	 1
  00033	90		 npad	 1
  00034	8b 54 24 08	 mov	 edx, DWORD PTR [esp+8]
  00038	8d 42 0c	 lea	 eax, DWORD PTR [edx+12]
  0003b	8b 4a f0	 mov	 ecx, DWORD PTR [edx-16]
  0003e	33 c8		 xor	 ecx, eax
  00040	e8 00 00 00 00	 call	 @__security_check_cookie@4
  00045	b8 00 00 00 00	 mov	 eax, OFFSET __ehfuncinfo$?SetItemContainer@?$CItemContainer@VCItemElem@@@@QAEXKKK@Z
  0004a	e9 00 00 00 00	 jmp	 ___CxxFrameHandler3
text$x	ENDS
?SetItemContainer@?$CItemContainer@VCItemElem@@@@QAEXKKK@Z ENDP ; CItemContainer<CItemElem>::SetItemContainer
; Function compile flags: /Ogtp
;	COMDAT ??_ECItemElem@@UAEPAXI@Z
_TEXT	SEGMENT
__$EHRec$ = -12						; size = 12
___flags$ = 8						; size = 4
??_ECItemElem@@UAEPAXI@Z PROC				; CItemElem::`vector deleting destructor', COMDAT
; _this$ = ecx
  00000	55		 push	 ebp
  00001	8b ec		 mov	 ebp, esp
  00003	6a ff		 push	 -1
  00005	68 00 00 00 00	 push	 __ehhandler$??_ECItemElem@@UAEPAXI@Z
  0000a	64 a1 00 00 00
	00		 mov	 eax, DWORD PTR fs:0
  00010	50		 push	 eax
  00011	53		 push	 ebx
  00012	56		 push	 esi
  00013	57		 push	 edi
  00014	a1 00 00 00 00	 mov	 eax, DWORD PTR ___security_cookie
  00019	33 c5		 xor	 eax, ebp
  0001b	50		 push	 eax
  0001c	8d 45 f4	 lea	 eax, DWORD PTR __$EHRec$[ebp]
  0001f	64 a3 00 00 00
	00		 mov	 DWORD PTR fs:0, eax
  00025	8b f1		 mov	 esi, ecx
  00027	8b 45 08	 mov	 eax, DWORD PTR ___flags$[ebp]
  0002a	8b f8		 mov	 edi, eax
  0002c	83 e7 01	 and	 edi, 1
  0002f	a8 02		 test	 al, 2
  00031	74 43		 je	 SHORT $LN2@vector
  00033	68 00 00 00 00	 push	 OFFSET ??1CItemElem@@UAE@XZ ; CItemElem::~CItemElem
  00038	ff 76 fc	 push	 DWORD PTR [esi-4]
  0003b	8d 5e fc	 lea	 ebx, DWORD PTR [esi-4]
  0003e	68 b0 00 00 00	 push	 176			; 000000b0H
  00043	56		 push	 esi
  00044	e8 00 00 00 00	 call	 ??_M@YGXPAXIIP6EX0@Z@Z
  00049	85 ff		 test	 edi, edi
  0004b	74 13		 je	 SHORT $LN3@vector
  0004d	69 0b b0 00 00
	00		 imul	 ecx, DWORD PTR [ebx], 176
  00053	83 c1 04	 add	 ecx, 4
  00056	51		 push	 ecx
  00057	53		 push	 ebx
  00058	e8 00 00 00 00	 call	 ??_V@YAXPAXI@Z		; operator delete[]
  0005d	83 c4 08	 add	 esp, 8
$LN3@vector:
  00060	8b c3		 mov	 eax, ebx
  00062	8b 4d f4	 mov	 ecx, DWORD PTR __$EHRec$[ebp]
  00065	64 89 0d 00 00
	00 00		 mov	 DWORD PTR fs:0, ecx
  0006c	59		 pop	 ecx
  0006d	5f		 pop	 edi
  0006e	5e		 pop	 esi
  0006f	5b		 pop	 ebx
  00070	8b e5		 mov	 esp, ebp
  00072	5d		 pop	 ebp
  00073	c2 04 00	 ret	 4
$LN2@vector:
  00076	e8 00 00 00 00	 call	 ??1CItemElem@@UAE@XZ	; CItemElem::~CItemElem
  0007b	85 ff		 test	 edi, edi
  0007d	74 0e		 je	 SHORT $LN4@vector
  0007f	68 b0 00 00 00	 push	 176			; 000000b0H
  00084	56		 push	 esi
  00085	e8 00 00 00 00	 call	 ??3@YAXPAXI@Z		; operator delete
  0008a	83 c4 08	 add	 esp, 8
$LN4@vector:
  0008d	8b c6		 mov	 eax, esi
  0008f	8b 4d f4	 mov	 ecx, DWORD PTR __$EHRec$[ebp]
  00092	64 89 0d 00 00
	00 00		 mov	 DWORD PTR fs:0, ecx
  00099	59		 pop	 ecx
  0009a	5f		 pop	 edi
  0009b	5e		 pop	 esi
  0009c	5b		 pop	 ebx
  0009d	8b e5		 mov	 esp, ebp
  0009f	5d		 pop	 ebp
  000a0	c2 04 00	 ret	 4
  000a3	cc		 int	 3
  000a4	cc		 int	 3
  000a5	cc		 int	 3
  000a6	cc		 int	 3
  000a7	cc		 int	 3
_TEXT	ENDS
;	COMDAT text$x
text$x	SEGMENT
__ehhandler$??_ECItemElem@@UAEPAXI@Z:
  00000	90		 npad	 1
  00001	90		 npad	 1
  00002	8b 54 24 08	 mov	 edx, DWORD PTR [esp+8]
  00006	8d 42 0c	 lea	 eax, DWORD PTR [edx+12]
  00009	8b 4a f0	 mov	 ecx, DWORD PTR [edx-16]
  0000c	33 c8		 xor	 ecx, eax
  0000e	e8 00 00 00 00	 call	 @__security_check_cookie@4
  00013	b8 00 00 00 00	 mov	 eax, OFFSET __ehfuncinfo$??_ECItemElem@@UAEPAXI@Z
  00018	e9 00 00 00 00	 jmp	 ___CxxFrameHandler3
text$x	ENDS
??_ECItemElem@@UAEPAXI@Z ENDP				; CItemElem::`vector deleting destructor'
; Function compile flags: /Ogtp
; File C:\Program Files\Microsoft Visual Studio\2022\Professional\VC\Tools\MSVC\14.44.35207\include\xmemory
;	COMDAT ?_Throw_bad_array_new_length@std@@YAXXZ
_TEXT	SEGMENT
$T1 = -12						; size = 12
?_Throw_bad_array_new_length@std@@YAXXZ PROC		; std::_Throw_bad_array_new_length, COMDAT

; 107  : [[noreturn]] inline void _Throw_bad_array_new_length() {

  00000	55		 push	 ebp
  00001	8b ec		 mov	 ebp, esp
  00003	83 ec 0c	 sub	 esp, 12			; 0000000cH

; 108  :     _THROW(bad_array_new_length{});

  00006	8d 4d f4	 lea	 ecx, DWORD PTR $T1[ebp]
  00009	e8 00 00 00 00	 call	 ??0bad_array_new_length@std@@QAE@XZ ; std::bad_array_new_length::bad_array_new_length
  0000e	68 00 00 00 00	 push	 OFFSET __TI3?AVbad_array_new_length@std@@
  00013	8d 45 f4	 lea	 eax, DWORD PTR $T1[ebp]
  00016	50		 push	 eax
  00017	e8 00 00 00 00	 call	 __CxxThrowException@8
$LN3@Throw_bad_:
  0001c	cc		 int	 3
?_Throw_bad_array_new_length@std@@YAXXZ ENDP		; std::_Throw_bad_array_new_length
_TEXT	ENDS
; Function compile flags: /Ogtp
; File C:\Program Files\Microsoft Visual Studio\2022\Professional\VC\Tools\MSVC\14.44.35207\include\vcruntime_exception.h
;	COMDAT ??_Gbad_array_new_length@std@@UAEPAXI@Z
_TEXT	SEGMENT
___flags$ = 8						; size = 4
??_Gbad_array_new_length@std@@UAEPAXI@Z PROC		; std::bad_array_new_length::`scalar deleting destructor', COMDAT
; _this$ = ecx
  00000	55		 push	 ebp
  00001	8b ec		 mov	 ebp, esp

; 90   :     {

  00003	56		 push	 esi
  00004	8b f1		 mov	 esi, ecx

; 91   :         __std_exception_destroy(&_Data);

  00006	8d 46 04	 lea	 eax, DWORD PTR [esi+4]
  00009	c7 06 00 00 00
	00		 mov	 DWORD PTR [esi], OFFSET ??_7exception@std@@6B@
  0000f	50		 push	 eax
  00010	e8 00 00 00 00	 call	 ___std_exception_destroy
  00015	83 c4 04	 add	 esp, 4
  00018	f6 45 08 01	 test	 BYTE PTR ___flags$[ebp], 1
  0001c	74 0b		 je	 SHORT $LN18@scalar
  0001e	6a 0c		 push	 12			; 0000000cH
  00020	56		 push	 esi
  00021	e8 00 00 00 00	 call	 ??3@YAXPAXI@Z		; operator delete
  00026	83 c4 08	 add	 esp, 8
$LN18@scalar:
  00029	8b c6		 mov	 eax, esi
  0002b	5e		 pop	 esi
  0002c	5d		 pop	 ebp
  0002d	c2 04 00	 ret	 4
??_Gbad_array_new_length@std@@UAEPAXI@Z ENDP		; std::bad_array_new_length::`scalar deleting destructor'
_TEXT	ENDS
; Function compile flags: /Ogtp
; File C:\Program Files\Microsoft Visual Studio\2022\Professional\VC\Tools\MSVC\14.44.35207\include\vcruntime_exception.h
;	COMDAT ??0bad_array_new_length@std@@QAE@ABV01@@Z
_TEXT	SEGMENT
___that$ = 8						; size = 4
??0bad_array_new_length@std@@QAE@ABV01@@Z PROC		; std::bad_array_new_length::bad_array_new_length, COMDAT
; _this$ = ecx
  00000	55		 push	 ebp
  00001	8b ec		 mov	 ebp, esp

; 73   :     {

  00003	56		 push	 esi
  00004	8b f1		 mov	 esi, ecx
  00006	0f 57 c0	 xorps	 xmm0, xmm0

; 72   :         : _Data()

  00009	8d 46 04	 lea	 eax, DWORD PTR [esi+4]

; 74   :         __std_exception_copy(&_Other._Data, &_Data);

  0000c	50		 push	 eax
  0000d	c7 06 00 00 00
	00		 mov	 DWORD PTR [esi], OFFSET ??_7exception@std@@6B@
  00013	66 0f d6 00	 movq	 QWORD PTR [eax], xmm0
  00017	8b 45 08	 mov	 eax, DWORD PTR ___that$[ebp]
  0001a	83 c0 04	 add	 eax, 4
  0001d	50		 push	 eax
  0001e	e8 00 00 00 00	 call	 ___std_exception_copy
  00023	83 c4 08	 add	 esp, 8
  00026	c7 06 00 00 00
	00		 mov	 DWORD PTR [esi], OFFSET ??_7bad_array_new_length@std@@6B@
  0002c	8b c6		 mov	 eax, esi
  0002e	5e		 pop	 esi
  0002f	5d		 pop	 ebp
  00030	c2 04 00	 ret	 4
??0bad_array_new_length@std@@QAE@ABV01@@Z ENDP		; std::bad_array_new_length::bad_array_new_length
_TEXT	ENDS
; Function compile flags: /Ogtp
; File C:\Program Files\Microsoft Visual Studio\2022\Professional\VC\Tools\MSVC\14.44.35207\include\vcruntime_exception.h
;	COMDAT ??1bad_array_new_length@std@@UAE@XZ
_TEXT	SEGMENT
??1bad_array_new_length@std@@UAE@XZ PROC		; std::bad_array_new_length::~bad_array_new_length, COMDAT
; _this$ = ecx

; 91   :         __std_exception_destroy(&_Data);

  00000	8d 41 04	 lea	 eax, DWORD PTR [ecx+4]
  00003	c7 01 00 00 00
	00		 mov	 DWORD PTR [ecx], OFFSET ??_7exception@std@@6B@
  00009	50		 push	 eax
  0000a	e8 00 00 00 00	 call	 ___std_exception_destroy
  0000f	59		 pop	 ecx
  00010	c3		 ret	 0
??1bad_array_new_length@std@@UAE@XZ ENDP		; std::bad_array_new_length::~bad_array_new_length
_TEXT	ENDS
; Function compile flags: /Ogtp
; File C:\Program Files\Microsoft Visual Studio\2022\Professional\VC\Tools\MSVC\14.44.35207\include\vcruntime_exception.h
;	COMDAT ??0bad_array_new_length@std@@QAE@XZ
_TEXT	SEGMENT
??0bad_array_new_length@std@@QAE@XZ PROC		; std::bad_array_new_length::bad_array_new_length, COMDAT
; _this$ = ecx

; 144  :     {

  00000	0f 57 c0	 xorps	 xmm0, xmm0

; 145  :     }

  00003	8b c1		 mov	 eax, ecx

; 66   :         : _Data()

  00005	66 0f d6 41 04	 movq	 QWORD PTR [ecx+4], xmm0

; 67   :     {
; 68   :         _Data._What = _Message;

  0000a	c7 41 04 00 00
	00 00		 mov	 DWORD PTR [ecx+4], OFFSET ??_C@_0BF@KINCDENJ@bad?5array?5new?5length@

; 144  :     {

  00011	c7 01 00 00 00
	00		 mov	 DWORD PTR [ecx], OFFSET ??_7bad_array_new_length@std@@6B@

; 145  :     }

  00017	c3		 ret	 0
??0bad_array_new_length@std@@QAE@XZ ENDP		; std::bad_array_new_length::bad_array_new_length
_TEXT	ENDS
; Function compile flags: /Ogtp
; File C:\Program Files\Microsoft Visual Studio\2022\Professional\VC\Tools\MSVC\14.44.35207\include\vcruntime_exception.h
;	COMDAT ??_Gbad_alloc@std@@UAEPAXI@Z
_TEXT	SEGMENT
___flags$ = 8						; size = 4
??_Gbad_alloc@std@@UAEPAXI@Z PROC			; std::bad_alloc::`scalar deleting destructor', COMDAT
; _this$ = ecx
  00000	55		 push	 ebp
  00001	8b ec		 mov	 ebp, esp

; 90   :     {

  00003	56		 push	 esi
  00004	8b f1		 mov	 esi, ecx

; 91   :         __std_exception_destroy(&_Data);

  00006	8d 46 04	 lea	 eax, DWORD PTR [esi+4]
  00009	c7 06 00 00 00
	00		 mov	 DWORD PTR [esi], OFFSET ??_7exception@std@@6B@
  0000f	50		 push	 eax
  00010	e8 00 00 00 00	 call	 ___std_exception_destroy
  00015	83 c4 04	 add	 esp, 4
  00018	f6 45 08 01	 test	 BYTE PTR ___flags$[ebp], 1
  0001c	74 0b		 je	 SHORT $LN13@scalar
  0001e	6a 0c		 push	 12			; 0000000cH
  00020	56		 push	 esi
  00021	e8 00 00 00 00	 call	 ??3@YAXPAXI@Z		; operator delete
  00026	83 c4 08	 add	 esp, 8
$LN13@scalar:
  00029	8b c6		 mov	 eax, esi
  0002b	5e		 pop	 esi
  0002c	5d		 pop	 ebp
  0002d	c2 04 00	 ret	 4
??_Gbad_alloc@std@@UAEPAXI@Z ENDP			; std::bad_alloc::`scalar deleting destructor'
_TEXT	ENDS
; Function compile flags: /Ogtp
; File C:\Program Files\Microsoft Visual Studio\2022\Professional\VC\Tools\MSVC\14.44.35207\include\vcruntime_exception.h
;	COMDAT ??0bad_alloc@std@@QAE@ABV01@@Z
_TEXT	SEGMENT
___that$ = 8						; size = 4
??0bad_alloc@std@@QAE@ABV01@@Z PROC			; std::bad_alloc::bad_alloc, COMDAT
; _this$ = ecx
  00000	55		 push	 ebp
  00001	8b ec		 mov	 ebp, esp

; 73   :     {

  00003	56		 push	 esi
  00004	8b f1		 mov	 esi, ecx
  00006	0f 57 c0	 xorps	 xmm0, xmm0

; 72   :         : _Data()

  00009	8d 46 04	 lea	 eax, DWORD PTR [esi+4]

; 74   :         __std_exception_copy(&_Other._Data, &_Data);

  0000c	50		 push	 eax
  0000d	c7 06 00 00 00
	00		 mov	 DWORD PTR [esi], OFFSET ??_7exception@std@@6B@
  00013	66 0f d6 00	 movq	 QWORD PTR [eax], xmm0
  00017	8b 45 08	 mov	 eax, DWORD PTR ___that$[ebp]
  0001a	83 c0 04	 add	 eax, 4
  0001d	50		 push	 eax
  0001e	e8 00 00 00 00	 call	 ___std_exception_copy
  00023	83 c4 08	 add	 esp, 8
  00026	c7 06 00 00 00
	00		 mov	 DWORD PTR [esi], OFFSET ??_7bad_alloc@std@@6B@
  0002c	8b c6		 mov	 eax, esi
  0002e	5e		 pop	 esi
  0002f	5d		 pop	 ebp
  00030	c2 04 00	 ret	 4
??0bad_alloc@std@@QAE@ABV01@@Z ENDP			; std::bad_alloc::bad_alloc
_TEXT	ENDS
; Function compile flags: /Ogtp
; File C:\Program Files\Microsoft Visual Studio\2022\Professional\VC\Tools\MSVC\14.44.35207\include\vcruntime_exception.h
;	COMDAT ??_Gexception@std@@UAEPAXI@Z
_TEXT	SEGMENT
___flags$ = 8						; size = 4
??_Gexception@std@@UAEPAXI@Z PROC			; std::exception::`scalar deleting destructor', COMDAT
; _this$ = ecx
  00000	55		 push	 ebp
  00001	8b ec		 mov	 ebp, esp

; 90   :     {

  00003	56		 push	 esi
  00004	8b f1		 mov	 esi, ecx

; 91   :         __std_exception_destroy(&_Data);

  00006	8d 46 04	 lea	 eax, DWORD PTR [esi+4]
  00009	c7 06 00 00 00
	00		 mov	 DWORD PTR [esi], OFFSET ??_7exception@std@@6B@
  0000f	50		 push	 eax
  00010	e8 00 00 00 00	 call	 ___std_exception_destroy
  00015	83 c4 04	 add	 esp, 4
  00018	f6 45 08 01	 test	 BYTE PTR ___flags$[ebp], 1
  0001c	74 0b		 je	 SHORT $LN8@scalar
  0001e	6a 0c		 push	 12			; 0000000cH
  00020	56		 push	 esi
  00021	e8 00 00 00 00	 call	 ??3@YAXPAXI@Z		; operator delete
  00026	83 c4 08	 add	 esp, 8
$LN8@scalar:
  00029	8b c6		 mov	 eax, esi
  0002b	5e		 pop	 esi
  0002c	5d		 pop	 ebp
  0002d	c2 04 00	 ret	 4
??_Gexception@std@@UAEPAXI@Z ENDP			; std::exception::`scalar deleting destructor'
_TEXT	ENDS
; Function compile flags: /Ogtp
; File C:\Program Files\Microsoft Visual Studio\2022\Professional\VC\Tools\MSVC\14.44.35207\include\vcruntime_exception.h
;	COMDAT ?what@exception@std@@UBEPBDXZ
_TEXT	SEGMENT
?what@exception@std@@UBEPBDXZ PROC			; std::exception::what, COMDAT
; _this$ = ecx

; 96   :         return _Data._What ? _Data._What : "Unknown exception";

  00000	8b 49 04	 mov	 ecx, DWORD PTR [ecx+4]
  00003	b8 00 00 00 00	 mov	 eax, OFFSET ??_C@_0BC@EOODALEL@Unknown?5exception@
  00008	85 c9		 test	 ecx, ecx
  0000a	0f 45 c1	 cmovne	 eax, ecx

; 97   :     }

  0000d	c3		 ret	 0
?what@exception@std@@UBEPBDXZ ENDP			; std::exception::what
_TEXT	ENDS
; Function compile flags: /Ogtp
; File C:\Program Files\Microsoft Visual Studio\2022\Professional\VC\Tools\MSVC\14.44.35207\include\vcruntime_exception.h
;	COMDAT ??1exception@std@@UAE@XZ
_TEXT	SEGMENT
??1exception@std@@UAE@XZ PROC				; std::exception::~exception, COMDAT
; _this$ = ecx

; 91   :         __std_exception_destroy(&_Data);

  00000	8d 41 04	 lea	 eax, DWORD PTR [ecx+4]
  00003	c7 01 00 00 00
	00		 mov	 DWORD PTR [ecx], OFFSET ??_7exception@std@@6B@
  00009	50		 push	 eax
  0000a	e8 00 00 00 00	 call	 ___std_exception_destroy
  0000f	59		 pop	 ecx

; 92   :     }

  00010	c3		 ret	 0
??1exception@std@@UAE@XZ ENDP				; std::exception::~exception
_TEXT	ENDS
; Function compile flags: /Ogtp
; File C:\Program Files\Microsoft Visual Studio\2022\Professional\VC\Tools\MSVC\14.44.35207\include\vcruntime_exception.h
;	COMDAT ??0exception@std@@QAE@ABV01@@Z
_TEXT	SEGMENT
__Other$ = 8						; size = 4
??0exception@std@@QAE@ABV01@@Z PROC			; std::exception::exception, COMDAT
; _this$ = ecx

; 73   :     {

  00000	55		 push	 ebp
  00001	8b ec		 mov	 ebp, esp
  00003	56		 push	 esi
  00004	8b f1		 mov	 esi, ecx
  00006	0f 57 c0	 xorps	 xmm0, xmm0
  00009	8d 46 04	 lea	 eax, DWORD PTR [esi+4]

; 74   :         __std_exception_copy(&_Other._Data, &_Data);

  0000c	50		 push	 eax
  0000d	c7 06 00 00 00
	00		 mov	 DWORD PTR [esi], OFFSET ??_7exception@std@@6B@
  00013	66 0f d6 00	 movq	 QWORD PTR [eax], xmm0
  00017	8b 45 08	 mov	 eax, DWORD PTR __Other$[ebp]
  0001a	83 c0 04	 add	 eax, 4
  0001d	50		 push	 eax
  0001e	e8 00 00 00 00	 call	 ___std_exception_copy
  00023	83 c4 08	 add	 esp, 8

; 75   :     }

  00026	8b c6		 mov	 eax, esi
  00028	5e		 pop	 esi
  00029	5d		 pop	 ebp
  0002a	c2 04 00	 ret	 4
??0exception@std@@QAE@ABV01@@Z ENDP			; std::exception::exception
_TEXT	ENDS
; Function compile flags: /Ogtp
; File C:\IAGOS\server\v18\Source\Source\_Common\pocket.cpp
;	COMDAT ?__empty_global_delete@@YAXPAXI@Z
_TEXT	SEGMENT
___formal$ = 8						; size = 4
___formal$ = 12						; size = 4
?__empty_global_delete@@YAXPAXI@Z PROC			; __empty_global_delete, COMDAT

  00000	c2 00 00	 ret	 0
?__empty_global_delete@@YAXPAXI@Z ENDP			; __empty_global_delete
_TEXT	ENDS
; Function compile flags: /Ogtp
; File C:\IAGOS\server\v18\Source\Source\_Common\pocket.cpp
;	COMDAT ?__empty_global_delete@@YAXPAX@Z
_TEXT	SEGMENT
___formal$ = 8						; size = 4
?__empty_global_delete@@YAXPAX@Z PROC			; __empty_global_delete, COMDAT

  00000	c2 00 00	 ret	 0
?__empty_global_delete@@YAXPAX@Z ENDP			; __empty_global_delete
_TEXT	ENDS
END
