; Listing generated by Microsoft (R) Optimizing Compiler Version 19.44.35225.0 

	TITLE	C:\IAGOS\server\v18\Source\Output\WorldServer\Release\post.obj
	.686P
	.XMM
	include listing.inc
	.model	flat

INCLUDELIB LIBCMT
INCLUDELIB OLDNAMES

PUBLIC	?s_nMail@CMail@@2KA				; CMail::s_nMail
_BSS	SEGMENT
?s_nMail@CMail@@2KA DD 01H DUP (?)			; CMail::s_nMail
_BSS	ENDS
PUBLIC	?__empty_global_delete@@YAXPAX@Z		; __empty_global_delete
PUBLIC	?__empty_global_delete@@YAXPAXI@Z		; __empty_global_delete
PUBLIC	?AtlThrowImpl@ATL@@YGXJ@Z			; ATL::AtlThrowImpl
PUBLIC	??0exception@std@@QAE@ABV01@@Z			; std::exception::exception
PUBLIC	??1exception@std@@UAE@XZ			; std::exception::~exception
PUBLIC	?what@exception@std@@UBEPBDXZ			; std::exception::what
PUBLIC	??_Gexception@std@@UAEPAXI@Z			; std::exception::`scalar deleting destructor'
PUBLIC	??0bad_alloc@std@@QAE@ABV01@@Z			; std::bad_alloc::bad_alloc
PUBLIC	??_Gbad_alloc@std@@UAEPAXI@Z			; std::bad_alloc::`scalar deleting destructor'
PUBLIC	??0bad_array_new_length@std@@QAE@XZ		; std::bad_array_new_length::bad_array_new_length
PUBLIC	??1bad_array_new_length@std@@UAE@XZ		; std::bad_array_new_length::~bad_array_new_length
PUBLIC	??0bad_array_new_length@std@@QAE@ABV01@@Z	; std::bad_array_new_length::bad_array_new_length
PUBLIC	??_Gbad_array_new_length@std@@UAEPAXI@Z		; std::bad_array_new_length::`scalar deleting destructor'
PUBLIC	?_Throw_bad_array_new_length@std@@YAXXZ		; std::_Throw_bad_array_new_length
PUBLIC	?_Throw_tree_length_error@std@@YAXXZ		; std::_Throw_tree_length_error
PUBLIC	?SetDateTime@COleDateTime@ATL@@QAEHHHHHHH@Z	; ATL::COleDateTime::SetDateTime
PUBLIC	??$_Allocate_manually_vector_aligned@U_Default_allocate_traits@std@@@std@@YAPAXI@Z ; std::_Allocate_manually_vector_aligned<std::_Default_allocate_traits>
PUBLIC	??0CMail@@QAE@XZ				; CMail::CMail
PUBLIC	??0CMail@@QAE@KPAVCItemElem@@HPAD1@Z		; CMail::CMail
PUBLIC	??1CMail@@UAE@XZ				; CMail::~CMail
PUBLIC	?Clear@CMail@@QAEXXZ				; CMail::Clear
PUBLIC	?GetCost@CMail@@QAEKXZ				; CMail::GetCost
PUBLIC	?Serialize@CMail@@QAEXAAVCAr@@H@Z		; CMail::Serialize
PUBLIC	?GetMailInfo@CMail@@QAEXPAHPAK@Z		; CMail::GetMailInfo
PUBLIC	??_GCMail@@UAEPAXI@Z				; CMail::`scalar deleting destructor'
PUBLIC	??1?$vector@PAVCMail@@V?$allocator@PAVCMail@@@std@@@std@@QAE@XZ ; std::vector<CMail *,std::allocator<CMail *> >::~vector<CMail *,std::allocator<CMail *> >
PUBLIC	?_Xlength@?$vector@PAVCMail@@V?$allocator@PAVCMail@@@std@@@std@@CAXXZ ; std::vector<CMail *,std::allocator<CMail *> >::_Xlength
PUBLIC	??0CMailBox@@QAE@XZ				; CMailBox::CMailBox
PUBLIC	??0CMailBox@@QAE@K@Z				; CMailBox::CMailBox
PUBLIC	??1CMailBox@@UAE@XZ				; CMailBox::~CMailBox
PUBLIC	?AddMail@CMailBox@@QAEKPAVCMail@@@Z		; CMailBox::AddMail
PUBLIC	?Serialize@CMailBox@@QAEXAAVCAr@@H@Z		; CMailBox::Serialize
PUBLIC	?Read@CMailBox@@QAEXAAVCAr@@@Z			; CMailBox::Read
PUBLIC	?ReadReq@CMailBox@@QAEXAAVCAr@@@Z		; CMailBox::ReadReq
PUBLIC	?GetMail@CMailBox@@QAEPAVCMail@@K@Z		; CMailBox::GetMail
PUBLIC	?RemoveMail@CMailBox@@QAEHK@Z			; CMailBox::RemoveMail
PUBLIC	?RemoveMailItem@CMailBox@@QAEHK@Z		; CMailBox::RemoveMailItem
PUBLIC	?RemoveMailGold@CMailBox@@QAEHK@Z		; CMailBox::RemoveMailGold
PUBLIC	?ReadMail@CMailBox@@QAEHK@Z			; CMailBox::ReadMail
PUBLIC	?IsStampedMailExists@CMailBox@@QAEHXZ		; CMailBox::IsStampedMailExists
PUBLIC	?Clear@CMailBox@@QAEXXZ				; CMailBox::Clear
PUBLIC	?GetInstance@CMailBox@@SAPAV1@XZ		; CMailBox::GetInstance
PUBLIC	?Find@CMailBox@@AAE?AV?$_Vector_iterator@V?$_Vector_val@U?$_Simple_types@PAVCMail@@@std@@@std@@@std@@K@Z ; CMailBox::Find
PUBLIC	??_GCMailBox@@UAEPAXI@Z				; CMailBox::`scalar deleting destructor'
PUBLIC	??0CPost@@QAE@XZ				; CPost::CPost
PUBLIC	??1CPost@@UAE@XZ				; CPost::~CPost
PUBLIC	?Clear@CPost@@QAEXXZ				; CPost::Clear
PUBLIC	?AddMail@CPost@@QAEKKPAVCMail@@@Z		; CPost::AddMail
PUBLIC	?GetMailBox@CPost@@QAEPAVCMailBox@@K@Z		; CPost::GetMailBox
PUBLIC	?AddMailBox@CPost@@QAEHPAVCMailBox@@@Z		; CPost::AddMailBox
PUBLIC	?Serialize@CPost@@QAEXAAVCAr@@H@Z		; CPost::Serialize
PUBLIC	?GetInstance@CPost@@SAPAV1@XZ			; CPost::GetInstance
PUBLIC	??1?$_Tree@V?$_Tmap_traits@KPAVCMailBox@@U?$less@K@std@@V?$allocator@U?$pair@$$CBKPAVCMailBox@@@std@@@3@$0A@@std@@@std@@QAE@XZ ; std::_Tree<std::_Tmap_traits<unsigned long,CMailBox *,std::less<unsigned long>,std::allocator<std::pair<unsigned long const ,CMailBox *> >,0> >::~_Tree<std::_Tmap_traits<unsigned long,CMailBox *,std::less<unsigned long>,std::allocator<std::pair<unsigned long const ,CMailBox *> >,0> >
PUBLIC	?_Insert_node@?$_Tree_val@U?$_Tree_simple_types@U?$pair@$$CBKPAVCMailBox@@@std@@@std@@@std@@QAEPAU?$_Tree_node@U?$pair@$$CBKPAVCMailBox@@@std@@PAX@2@U?$_Tree_id@PAU?$_Tree_node@U?$pair@$$CBKPAVCMailBox@@@std@@PAX@std@@@2@QAU32@@Z ; std::_Tree_val<std::_Tree_simple_types<std::pair<unsigned long const ,CMailBox *> > >::_Insert_node
PUBLIC	??_GCPost@@UAEPAXI@Z				; CPost::`scalar deleting destructor'
PUBLIC	??$?6K@CAr@@QAEAAV0@ABK@Z			; CAr::operator<<<unsigned long>
PUBLIC	??$?6E@CAr@@QAEAAV0@ABE@Z			; CAr::operator<<<unsigned char>
PUBLIC	??$?6J@CAr@@QAEAAV0@ABJ@Z			; CAr::operator<<<long>
PUBLIC	??$?5K@CAr@@QAEAAV0@AAK@Z			; CAr::operator>><unsigned long>
PUBLIC	??$?5E@CAr@@QAEAAV0@AAE@Z			; CAr::operator>><unsigned char>
PUBLIC	??$?5J@CAr@@QAEAAV0@AAJ@Z			; CAr::operator>><long>
PUBLIC	??$?5H@CAr@@QAEAAV0@AAH@Z			; CAr::operator>><int>
PUBLIC	??$?6H@CAr@@QAEAAV0@ABH@Z			; CAr::operator<<<int>
PUBLIC	??$?6I@CAr@@QAEAAV0@ABI@Z			; CAr::operator<<<unsigned int>
PUBLIC	??$_Erase_tree@V?$allocator@U?$_Tree_node@U?$pair@$$CBKPAVCMailBox@@@std@@PAX@std@@@std@@@?$_Tree_val@U?$_Tree_simple_types@U?$pair@$$CBKPAVCMailBox@@@std@@@std@@@std@@QAEXAAV?$allocator@U?$_Tree_node@U?$pair@$$CBKPAVCMailBox@@@std@@PAX@std@@@1@PAU?$_Tree_node@U?$pair@$$CBKPAVCMailBox@@@std@@PAX@1@@Z ; std::_Tree_val<std::_Tree_simple_types<std::pair<unsigned long const ,CMailBox *> > >::_Erase_tree<std::allocator<std::_Tree_node<std::pair<unsigned long const ,CMailBox *>,void *> > >
PUBLIC	??$_Find_lower_bound@K@?$_Tree@V?$_Tmap_traits@KPAVCMailBox@@U?$less@K@std@@V?$allocator@U?$pair@$$CBKPAVCMailBox@@@std@@@3@$0A@@std@@@std@@IBE?AU?$_Tree_find_result@PAU?$_Tree_node@U?$pair@$$CBKPAVCMailBox@@@std@@PAX@std@@@1@ABK@Z ; std::_Tree<std::_Tmap_traits<unsigned long,CMailBox *,std::less<unsigned long>,std::allocator<std::pair<unsigned long const ,CMailBox *> >,0> >::_Find_lower_bound<unsigned long>
PUBLIC	??1?$_Alloc_construct_ptr@V?$allocator@U?$_Tree_node@U?$pair@$$CBKPAVCMailBox@@@std@@PAX@std@@@std@@@std@@QAE@XZ ; std::_Alloc_construct_ptr<std::allocator<std::_Tree_node<std::pair<unsigned long const ,CMailBox *>,void *> > >::~_Alloc_construct_ptr<std::allocator<std::_Tree_node<std::pair<unsigned long const ,CMailBox *>,void *> > >
PUBLIC	??$_Copy_memmove@PAPAVCMail@@PAPAV1@@std@@YAPAPAVCMail@@PAPAV1@00@Z ; std::_Copy_memmove<CMail * *,CMail * *>
PUBLIC	??$_Emplace_reallocate@ABQAVCMail@@@?$vector@PAVCMail@@V?$allocator@PAVCMail@@@std@@@std@@AAEPAPAVCMail@@QAPAV2@ABQAV2@@Z ; std::vector<CMail *,std::allocator<CMail *> >::_Emplace_reallocate<CMail * const &>
PUBLIC	??$_Copy_memmove_tail@PAPAVCMail@@@std@@YAPAPAVCMail@@QBDQAPAV1@II@Z ; std::_Copy_memmove_tail<CMail * *>
PUBLIC	??_7exception@std@@6B@				; std::exception::`vftable'
PUBLIC	??_C@_0BC@EOODALEL@Unknown?5exception@		; `string'
PUBLIC	??_7bad_alloc@std@@6B@				; std::bad_alloc::`vftable'
PUBLIC	??_7bad_array_new_length@std@@6B@		; std::bad_array_new_length::`vftable'
PUBLIC	??_C@_0BF@KINCDENJ@bad?5array?5new?5length@	; `string'
PUBLIC	??_R0?AVexception@std@@@8			; std::exception `RTTI Type Descriptor'
PUBLIC	__CT??_R0?AVexception@std@@@8??0exception@std@@QAE@ABV01@@Z12
PUBLIC	__TI3?AVbad_array_new_length@std@@
PUBLIC	__CTA3?AVbad_array_new_length@std@@
PUBLIC	??_R0?AVbad_array_new_length@std@@@8		; std::bad_array_new_length `RTTI Type Descriptor'
PUBLIC	__CT??_R0?AVbad_array_new_length@std@@@8??0bad_array_new_length@std@@QAE@ABV01@@Z12
PUBLIC	??_R0?AVbad_alloc@std@@@8			; std::bad_alloc `RTTI Type Descriptor'
PUBLIC	__CT??_R0?AVbad_alloc@std@@@8??0bad_alloc@std@@QAE@ABV01@@Z12
PUBLIC	??_C@_0BB@GCADKGJO@map?1set?5too?5long@		; `string'
PUBLIC	??_C@_0BA@FOIKENOD@vector?5too?5long@		; `string'
PUBLIC	??_R4exception@std@@6B@				; std::exception::`RTTI Complete Object Locator'
PUBLIC	??_R3exception@std@@8				; std::exception::`RTTI Class Hierarchy Descriptor'
PUBLIC	??_R2exception@std@@8				; std::exception::`RTTI Base Class Array'
PUBLIC	??_R1A@?0A@EA@exception@std@@8			; std::exception::`RTTI Base Class Descriptor at (0,-1,0,64)'
PUBLIC	??_R4bad_array_new_length@std@@6B@		; std::bad_array_new_length::`RTTI Complete Object Locator'
PUBLIC	??_R3bad_array_new_length@std@@8		; std::bad_array_new_length::`RTTI Class Hierarchy Descriptor'
PUBLIC	??_R2bad_array_new_length@std@@8		; std::bad_array_new_length::`RTTI Base Class Array'
PUBLIC	??_R1A@?0A@EA@bad_array_new_length@std@@8	; std::bad_array_new_length::`RTTI Base Class Descriptor at (0,-1,0,64)'
PUBLIC	??_R1A@?0A@EA@bad_alloc@std@@8			; std::bad_alloc::`RTTI Base Class Descriptor at (0,-1,0,64)'
PUBLIC	??_R3bad_alloc@std@@8				; std::bad_alloc::`RTTI Class Hierarchy Descriptor'
PUBLIC	??_R2bad_alloc@std@@8				; std::bad_alloc::`RTTI Base Class Array'
PUBLIC	??_R4bad_alloc@std@@6B@				; std::bad_alloc::`RTTI Complete Object Locator'
PUBLIC	??_7CMail@@6B@					; CMail::`vftable'
PUBLIC	??_7CMailBox@@6B@				; CMailBox::`vftable'
PUBLIC	??_7CPost@@6B@					; CPost::`vftable'
PUBLIC	??_C@_0DB@MPAFHBHH@CMailBox?3?3Read?5?9?5GetMail?5return@ ; `string'
PUBLIC	??_C@_0DD@KNAHADMB@CMailBox?3?3Read?5?9?5Create?5NewMail@ ; `string'
PUBLIC	??_C@_0CL@NLKIBIJJ@CMailBox?3?3ReadReq?5?9?5New?5Failed?4@ ; `string'
PUBLIC	??_C@_0CE@ONJNFFPI@AddMailBox?5Failed?5?9?5idReceiver?5@ ; `string'
PUBLIC	??_R4CMail@@6B@					; CMail::`RTTI Complete Object Locator'
PUBLIC	??_R0?AVCMail@@@8				; CMail `RTTI Type Descriptor'
PUBLIC	??_R3CMail@@8					; CMail::`RTTI Class Hierarchy Descriptor'
PUBLIC	??_R2CMail@@8					; CMail::`RTTI Base Class Array'
PUBLIC	??_R1A@?0A@EA@CMail@@8				; CMail::`RTTI Base Class Descriptor at (0,-1,0,64)'
PUBLIC	??_R4CMailBox@@6B@				; CMailBox::`RTTI Complete Object Locator'
PUBLIC	??_R0?AVCMailBox@@@8				; CMailBox `RTTI Type Descriptor'
PUBLIC	??_R3CMailBox@@8				; CMailBox::`RTTI Class Hierarchy Descriptor'
PUBLIC	??_R2CMailBox@@8				; CMailBox::`RTTI Base Class Array'
PUBLIC	??_R1A@?0A@EA@CMailBox@@8			; CMailBox::`RTTI Base Class Descriptor at (0,-1,0,64)'
PUBLIC	??_R13?0A@EA@?$vector@PAVCMail@@V?$allocator@PAVCMail@@@std@@@std@@8 ; std::vector<CMail *,std::allocator<CMail *> >::`RTTI Base Class Descriptor at (4,-1,0,64)'
PUBLIC	??_R0?AV?$vector@PAVCMail@@V?$allocator@PAVCMail@@@std@@@std@@@8 ; std::vector<CMail *,std::allocator<CMail *> > `RTTI Type Descriptor'
PUBLIC	??_R3?$vector@PAVCMail@@V?$allocator@PAVCMail@@@std@@@std@@8 ; std::vector<CMail *,std::allocator<CMail *> >::`RTTI Class Hierarchy Descriptor'
PUBLIC	??_R2?$vector@PAVCMail@@V?$allocator@PAVCMail@@@std@@@std@@8 ; std::vector<CMail *,std::allocator<CMail *> >::`RTTI Base Class Array'
PUBLIC	??_R1A@?0A@EA@?$vector@PAVCMail@@V?$allocator@PAVCMail@@@std@@@std@@8 ; std::vector<CMail *,std::allocator<CMail *> >::`RTTI Base Class Descriptor at (0,-1,0,64)'
PUBLIC	??_R4CPost@@6B@					; CPost::`RTTI Complete Object Locator'
PUBLIC	??_R0?AVCPost@@@8				; CPost `RTTI Type Descriptor'
PUBLIC	??_R3CPost@@8					; CPost::`RTTI Class Hierarchy Descriptor'
PUBLIC	??_R2CPost@@8					; CPost::`RTTI Base Class Array'
PUBLIC	??_R1A@?0A@EA@CPost@@8				; CPost::`RTTI Base Class Descriptor at (0,-1,0,64)'
PUBLIC	__real@3ed845c8a0ce5129
PUBLIC	__real@4030000000000000
PUBLIC	__real@4038000000000000
PUBLIC	__real@4076800000000000
PUBLIC	__real@4096800000000000
PUBLIC	__real@40f5180000000000
PUBLIC	__real@414b964c80000000
PUBLIC	__real@bed845c8a0ce5129
PUBLIC	__real@c14b964c80000000
EXTRN	??2@YAPAXI@Z:PROC				; operator new
EXTRN	??3@YAXPAXI@Z:PROC				; operator delete
EXTRN	_atexit:PROC
EXTRN	__Init_thread_header:PROC
EXTRN	__Init_thread_abort:PROC
EXTRN	__Init_thread_footer:PROC
EXTRN	__invoke_watson:PROC
EXTRN	__imp__lstrcpyA@8:PROC
EXTRN	__localtime64_s:PROC
EXTRN	__time64:PROC
EXTRN	?AfxThrowMemoryException@@YGXXZ:PROC		; AfxThrowMemoryException
EXTRN	?AfxThrowOleException@@YGXJ@Z:PROC		; AfxThrowOleException
EXTRN	__imp__SystemTimeToVariantTime@8:PROC
EXTRN	__imp__VariantTimeToSystemTime@12:PROC
EXTRN	___std_exception_copy:PROC
EXTRN	___std_exception_destroy:PROC
EXTRN	??_Eexception@std@@UAEPAXI@Z:PROC		; std::exception::`vector deleting destructor'
EXTRN	??_Ebad_alloc@std@@UAEPAXI@Z:PROC		; std::bad_alloc::`vector deleting destructor'
EXTRN	??_Ebad_array_new_length@std@@UAEPAXI@Z:PROC	; std::bad_array_new_length::`vector deleting destructor'
EXTRN	?_Xlength_error@std@@YAXPBD@Z:PROC		; std::_Xlength_error
EXTRN	?Error@@YAPBDPBDZZ:PROC				; Error
EXTRN	??0CItemElem@@QAE@XZ:PROC			; CItemElem::CItemElem
EXTRN	?CheckBuf@CAr@@QAEXI@Z:PROC			; CAr::CheckBuf
EXTRN	?WriteString@CAr@@QAEXPBD@Z:PROC		; CAr::WriteString
EXTRN	?ReadString@CAr@@QAEPADPADH@Z:PROC		; CAr::ReadString
EXTRN	??_ECMail@@UAEPAXI@Z:PROC			; CMail::`vector deleting destructor'
EXTRN	??_ECMailBox@@UAEPAXI@Z:PROC			; CMailBox::`vector deleting destructor'
EXTRN	??_ECPost@@UAEPAXI@Z:PROC			; CPost::`vector deleting destructor'
EXTRN	@__security_check_cookie@4:PROC
EXTRN	__CxxThrowException@8:PROC
EXTRN	___CxxFrameHandler3:PROC
EXTRN	__dtol3:PROC
EXTRN	__ltod3:PROC
EXTRN	_memmove:PROC
EXTRN	__Init_thread_epoch:DWORD
EXTRN	??_7type_info@@6B@:QWORD			; type_info::`vftable'
EXTRN	?g_tCurrent@@3JA:DWORD				; g_tCurrent
EXTRN	___security_cookie:DWORD
EXTRN	__fltused:DWORD
EXTRN	__tls_array:DWORD
EXTRN	__tls_index:DWORD
;	COMDAT ?sMailBox@?1??GetInstance@CMailBox@@SAPAV2@XZ@4V2@A
_BSS	SEGMENT
?sMailBox@?1??GetInstance@CMailBox@@SAPAV2@XZ@4V2@A DB 018H DUP (?) ; `CMailBox::GetInstance'::`2'::sMailBox
_BSS	ENDS
;	COMDAT ?$TSS0@?1??GetInstance@CMailBox@@SAPAV2@XZ@4HA
_BSS	SEGMENT
?$TSS0@?1??GetInstance@CMailBox@@SAPAV2@XZ@4HA DD 01H DUP (?) ; `CMailBox::GetInstance'::`2'::$TSS0
_BSS	ENDS
;	COMDAT ?sPost@?1??GetInstance@CPost@@SAPAV2@XZ@4V2@A
_BSS	SEGMENT
?sPost@?1??GetInstance@CPost@@SAPAV2@XZ@4V2@A DB 0cH DUP (?) ; `CPost::GetInstance'::`2'::sPost
_BSS	ENDS
;	COMDAT ?$TSS0@?1??GetInstance@CPost@@SAPAV2@XZ@4HA
_BSS	SEGMENT
?$TSS0@?1??GetInstance@CPost@@SAPAV2@XZ@4HA DD 01H DUP (?) ; `CPost::GetInstance'::`2'::$TSS0
_BSS	ENDS
;	COMDAT __real@c14b964c80000000
CONST	SEGMENT
__real@c14b964c80000000 DQ 0c14b964c80000000r	; -3.6159e+06
CONST	ENDS
;	COMDAT __real@bed845c8a0ce5129
CONST	SEGMENT
__real@bed845c8a0ce5129 DQ 0bed845c8a0ce5129r	; -5.78704e-06
CONST	ENDS
;	COMDAT __real@414b964c80000000
CONST	SEGMENT
__real@414b964c80000000 DQ 0414b964c80000000r	; 3.6159e+06
CONST	ENDS
;	COMDAT __real@40f5180000000000
CONST	SEGMENT
__real@40f5180000000000 DQ 040f5180000000000r	; 86400
CONST	ENDS
;	COMDAT __real@4096800000000000
CONST	SEGMENT
__real@4096800000000000 DQ 04096800000000000r	; 1440
CONST	ENDS
;	COMDAT __real@4076800000000000
CONST	SEGMENT
__real@4076800000000000 DQ 04076800000000000r	; 360
CONST	ENDS
;	COMDAT __real@4038000000000000
CONST	SEGMENT
__real@4038000000000000 DQ 04038000000000000r	; 24
CONST	ENDS
;	COMDAT __real@4030000000000000
CONST	SEGMENT
__real@4030000000000000 DQ 04030000000000000r	; 16
CONST	ENDS
;	COMDAT __real@3ed845c8a0ce5129
CONST	SEGMENT
__real@3ed845c8a0ce5129 DQ 03ed845c8a0ce5129r	; 5.78704e-06
CONST	ENDS
;	COMDAT ??_R1A@?0A@EA@CPost@@8
rdata$r	SEGMENT
??_R1A@?0A@EA@CPost@@8 DD FLAT:??_R0?AVCPost@@@8	; CPost::`RTTI Base Class Descriptor at (0,-1,0,64)'
	DD	00H
	DD	00H
	DD	0ffffffffH
	DD	00H
	DD	040H
	DD	FLAT:??_R3CPost@@8
rdata$r	ENDS
;	COMDAT ??_R2CPost@@8
rdata$r	SEGMENT
??_R2CPost@@8 DD FLAT:??_R1A@?0A@EA@CPost@@8		; CPost::`RTTI Base Class Array'
rdata$r	ENDS
;	COMDAT ??_R3CPost@@8
rdata$r	SEGMENT
??_R3CPost@@8 DD 00H					; CPost::`RTTI Class Hierarchy Descriptor'
	DD	00H
	DD	01H
	DD	FLAT:??_R2CPost@@8
rdata$r	ENDS
;	COMDAT ??_R0?AVCPost@@@8
data$rs	SEGMENT
??_R0?AVCPost@@@8 DD FLAT:??_7type_info@@6B@		; CPost `RTTI Type Descriptor'
	DD	00H
	DB	'.?AVCPost@@', 00H
data$rs	ENDS
;	COMDAT ??_R4CPost@@6B@
rdata$r	SEGMENT
??_R4CPost@@6B@ DD 00H					; CPost::`RTTI Complete Object Locator'
	DD	00H
	DD	00H
	DD	FLAT:??_R0?AVCPost@@@8
	DD	FLAT:??_R3CPost@@8
rdata$r	ENDS
;	COMDAT ??_R1A@?0A@EA@?$vector@PAVCMail@@V?$allocator@PAVCMail@@@std@@@std@@8
rdata$r	SEGMENT
??_R1A@?0A@EA@?$vector@PAVCMail@@V?$allocator@PAVCMail@@@std@@@std@@8 DD FLAT:??_R0?AV?$vector@PAVCMail@@V?$allocator@PAVCMail@@@std@@@std@@@8 ; std::vector<CMail *,std::allocator<CMail *> >::`RTTI Base Class Descriptor at (0,-1,0,64)'
	DD	00H
	DD	00H
	DD	0ffffffffH
	DD	00H
	DD	040H
	DD	FLAT:??_R3?$vector@PAVCMail@@V?$allocator@PAVCMail@@@std@@@std@@8
rdata$r	ENDS
;	COMDAT ??_R2?$vector@PAVCMail@@V?$allocator@PAVCMail@@@std@@@std@@8
rdata$r	SEGMENT
??_R2?$vector@PAVCMail@@V?$allocator@PAVCMail@@@std@@@std@@8 DD FLAT:??_R1A@?0A@EA@?$vector@PAVCMail@@V?$allocator@PAVCMail@@@std@@@std@@8 ; std::vector<CMail *,std::allocator<CMail *> >::`RTTI Base Class Array'
rdata$r	ENDS
;	COMDAT ??_R3?$vector@PAVCMail@@V?$allocator@PAVCMail@@@std@@@std@@8
rdata$r	SEGMENT
??_R3?$vector@PAVCMail@@V?$allocator@PAVCMail@@@std@@@std@@8 DD 00H ; std::vector<CMail *,std::allocator<CMail *> >::`RTTI Class Hierarchy Descriptor'
	DD	00H
	DD	01H
	DD	FLAT:??_R2?$vector@PAVCMail@@V?$allocator@PAVCMail@@@std@@@std@@8
rdata$r	ENDS
;	COMDAT ??_R0?AV?$vector@PAVCMail@@V?$allocator@PAVCMail@@@std@@@std@@@8
data$rs	SEGMENT
??_R0?AV?$vector@PAVCMail@@V?$allocator@PAVCMail@@@std@@@std@@@8 DD FLAT:??_7type_info@@6B@ ; std::vector<CMail *,std::allocator<CMail *> > `RTTI Type Descriptor'
	DD	00H
	DB	'.?AV?$vector@PAVCMail@@V?$allocator@PAVCMail@@@std@@@std'
	DB	'@@', 00H
data$rs	ENDS
;	COMDAT ??_R13?0A@EA@?$vector@PAVCMail@@V?$allocator@PAVCMail@@@std@@@std@@8
rdata$r	SEGMENT
??_R13?0A@EA@?$vector@PAVCMail@@V?$allocator@PAVCMail@@@std@@@std@@8 DD FLAT:??_R0?AV?$vector@PAVCMail@@V?$allocator@PAVCMail@@@std@@@std@@@8 ; std::vector<CMail *,std::allocator<CMail *> >::`RTTI Base Class Descriptor at (4,-1,0,64)'
	DD	00H
	DD	04H
	DD	0ffffffffH
	DD	00H
	DD	040H
	DD	FLAT:??_R3?$vector@PAVCMail@@V?$allocator@PAVCMail@@@std@@@std@@8
rdata$r	ENDS
;	COMDAT ??_R1A@?0A@EA@CMailBox@@8
rdata$r	SEGMENT
??_R1A@?0A@EA@CMailBox@@8 DD FLAT:??_R0?AVCMailBox@@@8	; CMailBox::`RTTI Base Class Descriptor at (0,-1,0,64)'
	DD	01H
	DD	00H
	DD	0ffffffffH
	DD	00H
	DD	040H
	DD	FLAT:??_R3CMailBox@@8
rdata$r	ENDS
;	COMDAT ??_R2CMailBox@@8
rdata$r	SEGMENT
??_R2CMailBox@@8 DD FLAT:??_R1A@?0A@EA@CMailBox@@8	; CMailBox::`RTTI Base Class Array'
	DD	FLAT:??_R13?0A@EA@?$vector@PAVCMail@@V?$allocator@PAVCMail@@@std@@@std@@8
rdata$r	ENDS
;	COMDAT ??_R3CMailBox@@8
rdata$r	SEGMENT
??_R3CMailBox@@8 DD 00H					; CMailBox::`RTTI Class Hierarchy Descriptor'
	DD	00H
	DD	02H
	DD	FLAT:??_R2CMailBox@@8
rdata$r	ENDS
;	COMDAT ??_R0?AVCMailBox@@@8
data$rs	SEGMENT
??_R0?AVCMailBox@@@8 DD FLAT:??_7type_info@@6B@		; CMailBox `RTTI Type Descriptor'
	DD	00H
	DB	'.?AVCMailBox@@', 00H
data$rs	ENDS
;	COMDAT ??_R4CMailBox@@6B@
rdata$r	SEGMENT
??_R4CMailBox@@6B@ DD 00H				; CMailBox::`RTTI Complete Object Locator'
	DD	00H
	DD	00H
	DD	FLAT:??_R0?AVCMailBox@@@8
	DD	FLAT:??_R3CMailBox@@8
rdata$r	ENDS
;	COMDAT ??_R1A@?0A@EA@CMail@@8
rdata$r	SEGMENT
??_R1A@?0A@EA@CMail@@8 DD FLAT:??_R0?AVCMail@@@8	; CMail::`RTTI Base Class Descriptor at (0,-1,0,64)'
	DD	00H
	DD	00H
	DD	0ffffffffH
	DD	00H
	DD	040H
	DD	FLAT:??_R3CMail@@8
rdata$r	ENDS
;	COMDAT ??_R2CMail@@8
rdata$r	SEGMENT
??_R2CMail@@8 DD FLAT:??_R1A@?0A@EA@CMail@@8		; CMail::`RTTI Base Class Array'
rdata$r	ENDS
;	COMDAT ??_R3CMail@@8
rdata$r	SEGMENT
??_R3CMail@@8 DD 00H					; CMail::`RTTI Class Hierarchy Descriptor'
	DD	00H
	DD	01H
	DD	FLAT:??_R2CMail@@8
rdata$r	ENDS
;	COMDAT ??_R0?AVCMail@@@8
data$rs	SEGMENT
??_R0?AVCMail@@@8 DD FLAT:??_7type_info@@6B@		; CMail `RTTI Type Descriptor'
	DD	00H
	DB	'.?AVCMail@@', 00H
data$rs	ENDS
;	COMDAT ??_R4CMail@@6B@
rdata$r	SEGMENT
??_R4CMail@@6B@ DD 00H					; CMail::`RTTI Complete Object Locator'
	DD	00H
	DD	00H
	DD	FLAT:??_R0?AVCMail@@@8
	DD	FLAT:??_R3CMail@@8
rdata$r	ENDS
;	COMDAT ??_C@_0CE@ONJNFFPI@AddMailBox?5Failed?5?9?5idReceiver?5@
CONST	SEGMENT
??_C@_0CE@ONJNFFPI@AddMailBox?5Failed?5?9?5idReceiver?5@ DB 'AddMailBox F'
	DB	'ailed - idReceiver : %d', 00H		; `string'
CONST	ENDS
;	COMDAT ??_C@_0CL@NLKIBIJJ@CMailBox?3?3ReadReq?5?9?5New?5Failed?4@
CONST	SEGMENT
??_C@_0CL@NLKIBIJJ@CMailBox?3?3ReadReq?5?9?5New?5Failed?4@ DB 'CMailBox::'
	DB	'ReadReq - New Failed. nMail : %d', 00H	; `string'
CONST	ENDS
;	COMDAT ??_C@_0DD@KNAHADMB@CMailBox?3?3Read?5?9?5Create?5NewMail@
CONST	SEGMENT
??_C@_0DD@KNAHADMB@CMailBox?3?3Read?5?9?5Create?5NewMail@ DB 'CMailBox::R'
	DB	'ead - Create NewMail Failed. nMail : %d', 00H ; `string'
CONST	ENDS
;	COMDAT ??_C@_0DB@MPAFHBHH@CMailBox?3?3Read?5?9?5GetMail?5return@
CONST	SEGMENT
??_C@_0DB@MPAFHBHH@CMailBox?3?3Read?5?9?5GetMail?5return@ DB 'CMailBox::R'
	DB	'ead - GetMail return NULL. nMail : %d', 00H	; `string'
CONST	ENDS
;	COMDAT ??_7CPost@@6B@
CONST	SEGMENT
??_7CPost@@6B@ DD FLAT:??_R4CPost@@6B@			; CPost::`vftable'
	DD	FLAT:??_ECPost@@UAEPAXI@Z
CONST	ENDS
;	COMDAT ??_7CMailBox@@6B@
CONST	SEGMENT
??_7CMailBox@@6B@ DD FLAT:??_R4CMailBox@@6B@		; CMailBox::`vftable'
	DD	FLAT:??_ECMailBox@@UAEPAXI@Z
CONST	ENDS
;	COMDAT ??_7CMail@@6B@
CONST	SEGMENT
??_7CMail@@6B@ DD FLAT:??_R4CMail@@6B@			; CMail::`vftable'
	DD	FLAT:??_ECMail@@UAEPAXI@Z
CONST	ENDS
;	COMDAT ??_R4bad_alloc@std@@6B@
rdata$r	SEGMENT
??_R4bad_alloc@std@@6B@ DD 00H				; std::bad_alloc::`RTTI Complete Object Locator'
	DD	00H
	DD	00H
	DD	FLAT:??_R0?AVbad_alloc@std@@@8
	DD	FLAT:??_R3bad_alloc@std@@8
rdata$r	ENDS
;	COMDAT ??_R2bad_alloc@std@@8
rdata$r	SEGMENT
??_R2bad_alloc@std@@8 DD FLAT:??_R1A@?0A@EA@bad_alloc@std@@8 ; std::bad_alloc::`RTTI Base Class Array'
	DD	FLAT:??_R1A@?0A@EA@exception@std@@8
rdata$r	ENDS
;	COMDAT ??_R3bad_alloc@std@@8
rdata$r	SEGMENT
??_R3bad_alloc@std@@8 DD 00H				; std::bad_alloc::`RTTI Class Hierarchy Descriptor'
	DD	00H
	DD	02H
	DD	FLAT:??_R2bad_alloc@std@@8
rdata$r	ENDS
;	COMDAT ??_R1A@?0A@EA@bad_alloc@std@@8
rdata$r	SEGMENT
??_R1A@?0A@EA@bad_alloc@std@@8 DD FLAT:??_R0?AVbad_alloc@std@@@8 ; std::bad_alloc::`RTTI Base Class Descriptor at (0,-1,0,64)'
	DD	01H
	DD	00H
	DD	0ffffffffH
	DD	00H
	DD	040H
	DD	FLAT:??_R3bad_alloc@std@@8
rdata$r	ENDS
;	COMDAT ??_R1A@?0A@EA@bad_array_new_length@std@@8
rdata$r	SEGMENT
??_R1A@?0A@EA@bad_array_new_length@std@@8 DD FLAT:??_R0?AVbad_array_new_length@std@@@8 ; std::bad_array_new_length::`RTTI Base Class Descriptor at (0,-1,0,64)'
	DD	02H
	DD	00H
	DD	0ffffffffH
	DD	00H
	DD	040H
	DD	FLAT:??_R3bad_array_new_length@std@@8
rdata$r	ENDS
;	COMDAT ??_R2bad_array_new_length@std@@8
rdata$r	SEGMENT
??_R2bad_array_new_length@std@@8 DD FLAT:??_R1A@?0A@EA@bad_array_new_length@std@@8 ; std::bad_array_new_length::`RTTI Base Class Array'
	DD	FLAT:??_R1A@?0A@EA@bad_alloc@std@@8
	DD	FLAT:??_R1A@?0A@EA@exception@std@@8
rdata$r	ENDS
;	COMDAT ??_R3bad_array_new_length@std@@8
rdata$r	SEGMENT
??_R3bad_array_new_length@std@@8 DD 00H			; std::bad_array_new_length::`RTTI Class Hierarchy Descriptor'
	DD	00H
	DD	03H
	DD	FLAT:??_R2bad_array_new_length@std@@8
rdata$r	ENDS
;	COMDAT ??_R4bad_array_new_length@std@@6B@
rdata$r	SEGMENT
??_R4bad_array_new_length@std@@6B@ DD 00H		; std::bad_array_new_length::`RTTI Complete Object Locator'
	DD	00H
	DD	00H
	DD	FLAT:??_R0?AVbad_array_new_length@std@@@8
	DD	FLAT:??_R3bad_array_new_length@std@@8
rdata$r	ENDS
;	COMDAT ??_R1A@?0A@EA@exception@std@@8
rdata$r	SEGMENT
??_R1A@?0A@EA@exception@std@@8 DD FLAT:??_R0?AVexception@std@@@8 ; std::exception::`RTTI Base Class Descriptor at (0,-1,0,64)'
	DD	00H
	DD	00H
	DD	0ffffffffH
	DD	00H
	DD	040H
	DD	FLAT:??_R3exception@std@@8
rdata$r	ENDS
;	COMDAT ??_R2exception@std@@8
rdata$r	SEGMENT
??_R2exception@std@@8 DD FLAT:??_R1A@?0A@EA@exception@std@@8 ; std::exception::`RTTI Base Class Array'
rdata$r	ENDS
;	COMDAT ??_R3exception@std@@8
rdata$r	SEGMENT
??_R3exception@std@@8 DD 00H				; std::exception::`RTTI Class Hierarchy Descriptor'
	DD	00H
	DD	01H
	DD	FLAT:??_R2exception@std@@8
rdata$r	ENDS
;	COMDAT ??_R4exception@std@@6B@
rdata$r	SEGMENT
??_R4exception@std@@6B@ DD 00H				; std::exception::`RTTI Complete Object Locator'
	DD	00H
	DD	00H
	DD	FLAT:??_R0?AVexception@std@@@8
	DD	FLAT:??_R3exception@std@@8
rdata$r	ENDS
;	COMDAT ??_C@_0BA@FOIKENOD@vector?5too?5long@
CONST	SEGMENT
??_C@_0BA@FOIKENOD@vector?5too?5long@ DB 'vector too long', 00H ; `string'
CONST	ENDS
;	COMDAT ??_C@_0BB@GCADKGJO@map?1set?5too?5long@
CONST	SEGMENT
??_C@_0BB@GCADKGJO@map?1set?5too?5long@ DB 'map/set too long', 00H ; `string'
CONST	ENDS
;	COMDAT __CT??_R0?AVbad_alloc@std@@@8??0bad_alloc@std@@QAE@ABV01@@Z12
xdata$x	SEGMENT
__CT??_R0?AVbad_alloc@std@@@8??0bad_alloc@std@@QAE@ABV01@@Z12 DD 010H
	DD	FLAT:??_R0?AVbad_alloc@std@@@8
	DD	00H
	DD	0ffffffffH
	ORG $+4
	DD	0cH
	DD	FLAT:??0bad_alloc@std@@QAE@ABV01@@Z
xdata$x	ENDS
;	COMDAT ??_R0?AVbad_alloc@std@@@8
data$r	SEGMENT
??_R0?AVbad_alloc@std@@@8 DD FLAT:??_7type_info@@6B@	; std::bad_alloc `RTTI Type Descriptor'
	DD	00H
	DB	'.?AVbad_alloc@std@@', 00H
data$r	ENDS
;	COMDAT __CT??_R0?AVbad_array_new_length@std@@@8??0bad_array_new_length@std@@QAE@ABV01@@Z12
xdata$x	SEGMENT
__CT??_R0?AVbad_array_new_length@std@@@8??0bad_array_new_length@std@@QAE@ABV01@@Z12 DD 00H
	DD	FLAT:??_R0?AVbad_array_new_length@std@@@8
	DD	00H
	DD	0ffffffffH
	ORG $+4
	DD	0cH
	DD	FLAT:??0bad_array_new_length@std@@QAE@ABV01@@Z
xdata$x	ENDS
;	COMDAT ??_R0?AVbad_array_new_length@std@@@8
data$r	SEGMENT
??_R0?AVbad_array_new_length@std@@@8 DD FLAT:??_7type_info@@6B@ ; std::bad_array_new_length `RTTI Type Descriptor'
	DD	00H
	DB	'.?AVbad_array_new_length@std@@', 00H
data$r	ENDS
;	COMDAT __CTA3?AVbad_array_new_length@std@@
xdata$x	SEGMENT
__CTA3?AVbad_array_new_length@std@@ DD 03H
	DD	FLAT:__CT??_R0?AVbad_array_new_length@std@@@8??0bad_array_new_length@std@@QAE@ABV01@@Z12
	DD	FLAT:__CT??_R0?AVbad_alloc@std@@@8??0bad_alloc@std@@QAE@ABV01@@Z12
	DD	FLAT:__CT??_R0?AVexception@std@@@8??0exception@std@@QAE@ABV01@@Z12
xdata$x	ENDS
;	COMDAT __TI3?AVbad_array_new_length@std@@
xdata$x	SEGMENT
__TI3?AVbad_array_new_length@std@@ DD 00H
	DD	FLAT:??1bad_array_new_length@std@@UAE@XZ
	DD	00H
	DD	FLAT:__CTA3?AVbad_array_new_length@std@@
xdata$x	ENDS
;	COMDAT __CT??_R0?AVexception@std@@@8??0exception@std@@QAE@ABV01@@Z12
xdata$x	SEGMENT
__CT??_R0?AVexception@std@@@8??0exception@std@@QAE@ABV01@@Z12 DD 00H
	DD	FLAT:??_R0?AVexception@std@@@8
	DD	00H
	DD	0ffffffffH
	ORG $+4
	DD	0cH
	DD	FLAT:??0exception@std@@QAE@ABV01@@Z
xdata$x	ENDS
;	COMDAT ??_R0?AVexception@std@@@8
data$r	SEGMENT
??_R0?AVexception@std@@@8 DD FLAT:??_7type_info@@6B@	; std::exception `RTTI Type Descriptor'
	DD	00H
	DB	'.?AVexception@std@@', 00H
data$r	ENDS
;	COMDAT ??_C@_0BF@KINCDENJ@bad?5array?5new?5length@
CONST	SEGMENT
??_C@_0BF@KINCDENJ@bad?5array?5new?5length@ DB 'bad array new length', 00H ; `string'
CONST	ENDS
;	COMDAT ??_7bad_array_new_length@std@@6B@
CONST	SEGMENT
??_7bad_array_new_length@std@@6B@ DD FLAT:??_R4bad_array_new_length@std@@6B@ ; std::bad_array_new_length::`vftable'
	DD	FLAT:??_Ebad_array_new_length@std@@UAEPAXI@Z
	DD	FLAT:?what@exception@std@@UBEPBDXZ
CONST	ENDS
;	COMDAT ??_7bad_alloc@std@@6B@
CONST	SEGMENT
??_7bad_alloc@std@@6B@ DD FLAT:??_R4bad_alloc@std@@6B@	; std::bad_alloc::`vftable'
	DD	FLAT:??_Ebad_alloc@std@@UAEPAXI@Z
	DD	FLAT:?what@exception@std@@UBEPBDXZ
CONST	ENDS
;	COMDAT ??_C@_0BC@EOODALEL@Unknown?5exception@
CONST	SEGMENT
??_C@_0BC@EOODALEL@Unknown?5exception@ DB 'Unknown exception', 00H ; `string'
CONST	ENDS
;	COMDAT ??_7exception@std@@6B@
CONST	SEGMENT
??_7exception@std@@6B@ DD FLAT:??_R4exception@std@@6B@	; std::exception::`vftable'
	DD	FLAT:??_Eexception@std@@UAEPAXI@Z
	DD	FLAT:?what@exception@std@@UBEPBDXZ
CONST	ENDS
;	COMDAT xdata$x
xdata$x	SEGMENT
__unwindtable$??$?0U?$pair@$$CBKPAVCMailBox@@@std@@@?$_Tree_temp_node@V?$allocator@U?$_Tree_node@U?$pair@$$CBKPAVCMailBox@@@std@@PAX@std@@@std@@@std@@QAE@AAV?$allocator@U?$_Tree_node@U?$pair@$$CBKPAVCMailBox@@@std@@PAX@std@@@1@PAU?$_Tree_node@U?$pair@$$CBKPAVCMailBox@@@std@@PAX@1@$$QAU?$pair@$$CBKPAVCMailBox@@@1@@Z DD 0ffffffffH
	DD	FLAT:__unwindfunclet$??$?0U?$pair@$$CBKPAVCMailBox@@@std@@@?$_Tree_temp_node@V?$allocator@U?$_Tree_node@U?$pair@$$CBKPAVCMailBox@@@std@@PAX@std@@@std@@@std@@QAE@AAV?$allocator@U?$_Tree_node@U?$pair@$$CBKPAVCMailBox@@@std@@PAX@std@@@1@PAU?$_Tree_node@U?$pair@$$CBKPAVCMailBox@@@std@@PAX@1@$$QAU?$pair@$$CBKPAVCMailBox@@@1@@Z$1
__ehfuncinfo$??$?0U?$pair@$$CBKPAVCMailBox@@@std@@@?$_Tree_temp_node@V?$allocator@U?$_Tree_node@U?$pair@$$CBKPAVCMailBox@@@std@@PAX@std@@@std@@@std@@QAE@AAV?$allocator@U?$_Tree_node@U?$pair@$$CBKPAVCMailBox@@@std@@PAX@std@@@1@PAU?$_Tree_node@U?$pair@$$CBKPAVCMailBox@@@std@@PAX@1@$$QAU?$pair@$$CBKPAVCMailBox@@@1@@Z DD 019930522H
	DD	01H
	DD	FLAT:__unwindtable$??$?0U?$pair@$$CBKPAVCMailBox@@@std@@@?$_Tree_temp_node@V?$allocator@U?$_Tree_node@U?$pair@$$CBKPAVCMailBox@@@std@@PAX@std@@@std@@@std@@QAE@AAV?$allocator@U?$_Tree_node@U?$pair@$$CBKPAVCMailBox@@@std@@PAX@std@@@1@PAU?$_Tree_node@U?$pair@$$CBKPAVCMailBox@@@std@@PAX@1@$$QAU?$pair@$$CBKPAVCMailBox@@@1@@Z
	DD	2 DUP(00H)
	DD	2 DUP(00H)
	DD	00H
	DD	01H
xdata$x	ENDS
;	COMDAT xdata$x
xdata$x	SEGMENT
__unwindtable$??0?$_Tree_temp_node_alloc@V?$allocator@U?$_Tree_node@U?$pair@$$CBKPAVCMailBox@@@std@@PAX@std@@@std@@@std@@QAE@AAV?$allocator@U?$_Tree_node@U?$pair@$$CBKPAVCMailBox@@@std@@PAX@std@@@1@@Z DD 0ffffffffH
	DD	FLAT:__unwindfunclet$??0?$_Tree_temp_node_alloc@V?$allocator@U?$_Tree_node@U?$pair@$$CBKPAVCMailBox@@@std@@PAX@std@@@std@@@std@@QAE@AAV?$allocator@U?$_Tree_node@U?$pair@$$CBKPAVCMailBox@@@std@@PAX@std@@@1@@Z$0
__ehfuncinfo$??0?$_Tree_temp_node_alloc@V?$allocator@U?$_Tree_node@U?$pair@$$CBKPAVCMailBox@@@std@@PAX@std@@@std@@@std@@QAE@AAV?$allocator@U?$_Tree_node@U?$pair@$$CBKPAVCMailBox@@@std@@PAX@std@@@1@@Z DD 019930522H
	DD	01H
	DD	FLAT:__unwindtable$??0?$_Tree_temp_node_alloc@V?$allocator@U?$_Tree_node@U?$pair@$$CBKPAVCMailBox@@@std@@PAX@std@@@std@@@std@@QAE@AAV?$allocator@U?$_Tree_node@U?$pair@$$CBKPAVCMailBox@@@std@@PAX@std@@@1@@Z
	DD	2 DUP(00H)
	DD	2 DUP(00H)
	DD	00H
	DD	01H
xdata$x	ENDS
;	COMDAT xdata$x
xdata$x	SEGMENT
__unwindtable$??$_Emplace@U?$pair@$$CBKPAVCMailBox@@@std@@@?$_Tree@V?$_Tmap_traits@KPAVCMailBox@@U?$less@K@std@@V?$allocator@U?$pair@$$CBKPAVCMailBox@@@std@@@3@$0A@@std@@@std@@IAE?AU?$pair@PAU?$_Tree_node@U?$pair@$$CBKPAVCMailBox@@@std@@PAX@std@@_N@1@$$QAU?$pair@$$CBKPAVCMailBox@@@1@@Z DD 0ffffffffH
	DD	FLAT:__unwindfunclet$??$_Emplace@U?$pair@$$CBKPAVCMailBox@@@std@@@?$_Tree@V?$_Tmap_traits@KPAVCMailBox@@U?$less@K@std@@V?$allocator@U?$pair@$$CBKPAVCMailBox@@@std@@@3@$0A@@std@@@std@@IAE?AU?$pair@PAU?$_Tree_node@U?$pair@$$CBKPAVCMailBox@@@std@@PAX@std@@_N@1@$$QAU?$pair@$$CBKPAVCMailBox@@@1@@Z$2
__ehfuncinfo$??$_Emplace@U?$pair@$$CBKPAVCMailBox@@@std@@@?$_Tree@V?$_Tmap_traits@KPAVCMailBox@@U?$less@K@std@@V?$allocator@U?$pair@$$CBKPAVCMailBox@@@std@@@3@$0A@@std@@@std@@IAE?AU?$pair@PAU?$_Tree_node@U?$pair@$$CBKPAVCMailBox@@@std@@PAX@std@@_N@1@$$QAU?$pair@$$CBKPAVCMailBox@@@1@@Z DD 019930522H
	DD	01H
	DD	FLAT:__unwindtable$??$_Emplace@U?$pair@$$CBKPAVCMailBox@@@std@@@?$_Tree@V?$_Tmap_traits@KPAVCMailBox@@U?$less@K@std@@V?$allocator@U?$pair@$$CBKPAVCMailBox@@@std@@@3@$0A@@std@@@std@@IAE?AU?$pair@PAU?$_Tree_node@U?$pair@$$CBKPAVCMailBox@@@std@@PAX@std@@_N@1@$$QAU?$pair@$$CBKPAVCMailBox@@@1@@Z
	DD	2 DUP(00H)
	DD	2 DUP(00H)
	DD	00H
	DD	01H
xdata$x	ENDS
;	COMDAT xdata$x
xdata$x	SEGMENT
__unwindtable$??$insert@$0A@$0A@@?$_Tree@V?$_Tmap_traits@KPAVCMailBox@@U?$less@K@std@@V?$allocator@U?$pair@$$CBKPAVCMailBox@@@std@@@3@$0A@@std@@@std@@QAE?AU?$pair@V?$_Tree_iterator@V?$_Tree_val@U?$_Tree_simple_types@U?$pair@$$CBKPAVCMailBox@@@std@@@std@@@std@@@std@@_N@1@$$QAU?$pair@$$CBKPAVCMailBox@@@1@@Z DD 0ffffffffH
	DD	FLAT:__unwindfunclet$??$insert@$0A@$0A@@?$_Tree@V?$_Tmap_traits@KPAVCMailBox@@U?$less@K@std@@V?$allocator@U?$pair@$$CBKPAVCMailBox@@@std@@@3@$0A@@std@@@std@@QAE?AU?$pair@V?$_Tree_iterator@V?$_Tree_val@U?$_Tree_simple_types@U?$pair@$$CBKPAVCMailBox@@@std@@@std@@@std@@@std@@_N@1@$$QAU?$pair@$$CBKPAVCMailBox@@@1@@Z$2
__ehfuncinfo$??$insert@$0A@$0A@@?$_Tree@V?$_Tmap_traits@KPAVCMailBox@@U?$less@K@std@@V?$allocator@U?$pair@$$CBKPAVCMailBox@@@std@@@3@$0A@@std@@@std@@QAE?AU?$pair@V?$_Tree_iterator@V?$_Tree_val@U?$_Tree_simple_types@U?$pair@$$CBKPAVCMailBox@@@std@@@std@@@std@@@std@@_N@1@$$QAU?$pair@$$CBKPAVCMailBox@@@1@@Z DD 019930522H
	DD	01H
	DD	FLAT:__unwindtable$??$insert@$0A@$0A@@?$_Tree@V?$_Tmap_traits@KPAVCMailBox@@U?$less@K@std@@V?$allocator@U?$pair@$$CBKPAVCMailBox@@@std@@@3@$0A@@std@@@std@@QAE?AU?$pair@V?$_Tree_iterator@V?$_Tree_val@U?$_Tree_simple_types@U?$pair@$$CBKPAVCMailBox@@@std@@@std@@@std@@@std@@_N@1@$$QAU?$pair@$$CBKPAVCMailBox@@@1@@Z
	DD	2 DUP(00H)
	DD	2 DUP(00H)
	DD	00H
	DD	01H
xdata$x	ENDS
;	COMDAT xdata$x
xdata$x	SEGMENT
__unwindtable$?GetInstance@CPost@@SAPAV1@XZ DD 0ffffffffH
	DD	FLAT:__unwindfunclet$?GetInstance@CPost@@SAPAV1@XZ$0
__ehfuncinfo$?GetInstance@CPost@@SAPAV1@XZ DD 019930522H
	DD	01H
	DD	FLAT:__unwindtable$?GetInstance@CPost@@SAPAV1@XZ
	DD	2 DUP(00H)
	DD	2 DUP(00H)
	DD	00H
	DD	01H
xdata$x	ENDS
;	COMDAT xdata$x
xdata$x	SEGMENT
__unwindtable$?AddMailBox@CPost@@QAEHPAVCMailBox@@@Z DD 0ffffffffH
	DD	FLAT:__unwindfunclet$?AddMailBox@CPost@@QAEHPAVCMailBox@@@Z$2
__ehfuncinfo$?AddMailBox@CPost@@QAEHPAVCMailBox@@@Z DD 019930522H
	DD	01H
	DD	FLAT:__unwindtable$?AddMailBox@CPost@@QAEHPAVCMailBox@@@Z
	DD	2 DUP(00H)
	DD	2 DUP(00H)
	DD	00H
	DD	01H
xdata$x	ENDS
;	COMDAT xdata$x
xdata$x	SEGMENT
__unwindtable$?ReadReq@CMailBox@@QAEXAAVCAr@@@Z DD 0ffffffffH
	DD	FLAT:__unwindfunclet$?ReadReq@CMailBox@@QAEXAAVCAr@@@Z$1
__ehfuncinfo$?ReadReq@CMailBox@@QAEXAAVCAr@@@Z DD 019930522H
	DD	01H
	DD	FLAT:__unwindtable$?ReadReq@CMailBox@@QAEXAAVCAr@@@Z
	DD	2 DUP(00H)
	DD	2 DUP(00H)
	DD	00H
	DD	01H
xdata$x	ENDS
;	COMDAT xdata$x
xdata$x	SEGMENT
__unwindtable$?Read@CMailBox@@QAEXAAVCAr@@@Z DD 0ffffffffH
	DD	FLAT:__unwindfunclet$?Read@CMailBox@@QAEXAAVCAr@@@Z$0
__ehfuncinfo$?Read@CMailBox@@QAEXAAVCAr@@@Z DD 019930522H
	DD	01H
	DD	FLAT:__unwindtable$?Read@CMailBox@@QAEXAAVCAr@@@Z
	DD	2 DUP(00H)
	DD	2 DUP(00H)
	DD	00H
	DD	01H
xdata$x	ENDS
;	COMDAT xdata$x
xdata$x	SEGMENT
__unwindtable$?Serialize@CMail@@QAEXAAVCAr@@H@Z DD 0ffffffffH
	DD	FLAT:__unwindfunclet$?Serialize@CMail@@QAEXAAVCAr@@H@Z$0
__ehfuncinfo$?Serialize@CMail@@QAEXAAVCAr@@H@Z DD 019930522H
	DD	01H
	DD	FLAT:__unwindtable$?Serialize@CMail@@QAEXAAVCAr@@H@Z
	DD	2 DUP(00H)
	DD	2 DUP(00H)
	DD	00H
	DD	01H
xdata$x	ENDS
; Function compile flags: /Ogtp
; File C:\Program Files\Microsoft Visual Studio\2022\Professional\VC\Tools\MSVC\14.44.35207\include\xutility
;	COMDAT ??$_Copy_memmove_tail@PAPAVCMail@@@std@@YAPAPAVCMail@@QBDQAPAV1@II@Z
_TEXT	SEGMENT
__First_ch$ = 8						; size = 4
__Dest$ = 12						; size = 4
__Byte_count$ = 16					; size = 4
__Object_count$ = 20					; size = 4
??$_Copy_memmove_tail@PAPAVCMail@@@std@@YAPAPAVCMail@@QBDQAPAV1@II@Z PROC ; std::_Copy_memmove_tail<CMail * *>, COMDAT

; 4747 :     const char* const _First_ch, const _OutCtgIt _Dest, const size_t _Byte_count, const size_t _Object_count) {

  00000	55		 push	 ebp
  00001	8b ec		 mov	 ebp, esp
  00003	56		 push	 esi

; 4748 :     _STL_INTERNAL_CHECK(_Byte_count == _Object_count * sizeof(*_Dest));
; 4749 :     const auto _Dest_ptr = _STD _To_address(_Dest);
; 4750 :     const auto _Dest_ch  = const_cast<char*>(reinterpret_cast<const volatile char*>(_Dest_ptr));
; 4751 :     _CSTD memmove(_Dest_ch, _First_ch, _Byte_count);

  00004	8b 75 0c	 mov	 esi, DWORD PTR __Dest$[ebp]
  00007	57		 push	 edi
  00008	8b 7d 10	 mov	 edi, DWORD PTR __Byte_count$[ebp]
  0000b	57		 push	 edi
  0000c	ff 75 08	 push	 DWORD PTR __First_ch$[ebp]
  0000f	56		 push	 esi
  00010	e8 00 00 00 00	 call	 _memmove
  00015	83 c4 0c	 add	 esp, 12			; 0000000cH

; 4752 :     if constexpr (is_pointer_v<_OutCtgIt>) {
; 4753 :         (void) _Object_count;
; 4754 :         // CodeQL [SM02986] This cast is correct: we're bypassing pointer arithmetic for performance.
; 4755 :         return reinterpret_cast<_OutCtgIt>(_Dest_ch + _Byte_count);

  00018	8d 04 3e	 lea	 eax, DWORD PTR [esi+edi]
  0001b	5f		 pop	 edi
  0001c	5e		 pop	 esi

; 4756 :     } else {
; 4757 :         return _Dest + static_cast<_Iter_diff_t<_OutCtgIt>>(_Object_count);
; 4758 :     }
; 4759 : }

  0001d	5d		 pop	 ebp
  0001e	c3		 ret	 0
??$_Copy_memmove_tail@PAPAVCMail@@@std@@YAPAPAVCMail@@QBDQAPAV1@II@Z ENDP ; std::_Copy_memmove_tail<CMail * *>
_TEXT	ENDS
; Function compile flags: /Ogtp
; File C:\Program Files\Microsoft Visual Studio\2022\Professional\VC\Tools\MSVC\14.44.35207\include\vector
; File C:\Program Files\Microsoft Visual Studio\2022\Professional\VC\Tools\MSVC\14.44.35207\include\xmemory
; File C:\Program Files\Microsoft Visual Studio\2022\Professional\VC\Tools\MSVC\14.44.35207\include\vector
; File C:\Program Files\Microsoft Visual Studio\2022\Professional\VC\Tools\MSVC\14.44.35207\include\xmemory
; File C:\Program Files\Microsoft Visual Studio\2022\Professional\VC\Tools\MSVC\14.44.35207\include\vector
; File C:\Program Files\Microsoft Visual Studio\2022\Professional\VC\Tools\MSVC\14.44.35207\include\xmemory
; File C:\Program Files\Microsoft Visual Studio\2022\Professional\VC\Tools\MSVC\14.44.35207\include\vector
; File C:\Program Files\Microsoft Visual Studio\2022\Professional\VC\Tools\MSVC\14.44.35207\include\xmemory
; File C:\Program Files\Microsoft Visual Studio\2022\Professional\VC\Tools\MSVC\14.44.35207\include\vector
; File C:\Program Files\Microsoft Visual Studio\2022\Professional\VC\Tools\MSVC\14.44.35207\include\xmemory
; File C:\Program Files\Microsoft Visual Studio\2022\Professional\VC\Tools\MSVC\14.44.35207\include\vector
; File C:\Program Files\Microsoft Visual Studio\2022\Professional\VC\Tools\MSVC\14.44.35207\include\xmemory
; File C:\Program Files\Microsoft Visual Studio\2022\Professional\VC\Tools\MSVC\14.44.35207\include\vector
; File C:\Program Files\Microsoft Visual Studio\2022\Professional\VC\Tools\MSVC\14.44.35207\include\xmemory
; File C:\Program Files\Microsoft Visual Studio\2022\Professional\VC\Tools\MSVC\14.44.35207\include\vector
; File C:\Program Files\Microsoft Visual Studio\2022\Professional\VC\Tools\MSVC\14.44.35207\include\xmemory
; File C:\Program Files\Microsoft Visual Studio\2022\Professional\VC\Tools\MSVC\14.44.35207\include\vector
;	COMDAT ??$_Emplace_reallocate@ABQAVCMail@@@?$vector@PAVCMail@@V?$allocator@PAVCMail@@@std@@@std@@AAEPAPAVCMail@@QAPAV2@ABQAV2@@Z
_TEXT	SEGMENT
__Newsize$1$ = -12					; size = 4
tv652 = -8						; size = 4
tv650 = -4						; size = 4
__Whereptr$ = 8						; size = 4
_<_Val_0>$ = 12						; size = 4
??$_Emplace_reallocate@ABQAVCMail@@@?$vector@PAVCMail@@V?$allocator@PAVCMail@@@std@@@std@@AAEPAPAVCMail@@QAPAV2@ABQAV2@@Z PROC ; std::vector<CMail *,std::allocator<CMail *> >::_Emplace_reallocate<CMail * const &>, COMDAT
; _this$ = ecx

; 875  :     _CONSTEXPR20 pointer _Emplace_reallocate(const pointer _Whereptr, _Valty&&... _Val) {

  00000	55		 push	 ebp
  00001	8b ec		 mov	 ebp, esp
  00003	83 ec 0c	 sub	 esp, 12			; 0000000cH
  00006	53		 push	 ebx

; 876  :         // reallocate and insert by perfectly forwarding _Val at _Whereptr
; 877  :         _Alty& _Al        = _Getal();
; 878  :         auto& _My_data    = _Mypair._Myval2;
; 879  :         pointer& _Myfirst = _My_data._Myfirst;
; 880  :         pointer& _Mylast  = _My_data._Mylast;
; 881  : 
; 882  :         _STL_INTERNAL_CHECK(_Mylast == _My_data._Myend); // check that we have no unused capacity
; 883  : 
; 884  :         const auto _Whereoff = static_cast<size_type>(_Whereptr - _Myfirst);

  00007	8b 5d 08	 mov	 ebx, DWORD PTR __Whereptr$[ebp]
  0000a	56		 push	 esi
  0000b	8b f1		 mov	 esi, ecx
  0000d	57		 push	 edi
  0000e	8b 0e		 mov	 ecx, DWORD PTR [esi]
  00010	2b d9		 sub	 ebx, ecx

; 885  :         const auto _Oldsize  = static_cast<size_type>(_Mylast - _Myfirst);

  00012	8b 46 04	 mov	 eax, DWORD PTR [esi+4]
  00015	2b c1		 sub	 eax, ecx
  00017	c1 fb 02	 sar	 ebx, 2
  0001a	c1 f8 02	 sar	 eax, 2

; 886  : 
; 887  :         if (_Oldsize == max_size()) {

  0001d	3d ff ff ff 3f	 cmp	 eax, 1073741823		; 3fffffffH
  00022	0f 84 13 01 00
	00		 je	 $LN111@Emplace_re

; 1924 :         return static_cast<size_type>(_My_data._Myend - _My_data._Myfirst);

  00028	8b 56 08	 mov	 edx, DWORD PTR [esi+8]

; 889  :         }
; 890  : 
; 891  :         const size_type _Newsize = _Oldsize + 1;

  0002b	8d 78 01	 lea	 edi, DWORD PTR [eax+1]

; 1924 :         return static_cast<size_type>(_My_data._Myend - _My_data._Myfirst);

  0002e	2b d1		 sub	 edx, ecx

; 889  :         }
; 890  : 
; 891  :         const size_type _Newsize = _Oldsize + 1;

  00030	89 7d f4	 mov	 DWORD PTR __Newsize$1$[ebp], edi

; 1924 :         return static_cast<size_type>(_My_data._Myend - _My_data._Myfirst);

  00033	c1 fa 02	 sar	 edx, 2

; 2011 :         if (_Oldcapacity > _Max - _Oldcapacity / 2) {

  00036	b8 ff ff ff 3f	 mov	 eax, 1073741823		; 3fffffffH
  0003b	8b ca		 mov	 ecx, edx
  0003d	d1 e9		 shr	 ecx, 1
  0003f	2b c1		 sub	 eax, ecx
  00041	3b d0		 cmp	 edx, eax
  00043	76 14		 jbe	 SHORT $LN8@Emplace_re

; 2012 :             return _Max; // geometric growth would overflow

  00045	b8 fc ff ff ff	 mov	 eax, -4			; fffffffcH
  0004a	c7 45 f8 fc ff
	ff ff		 mov	 DWORD PTR tv652[ebp], -4 ; fffffffcH
; File C:\Program Files\Microsoft Visual Studio\2022\Professional\VC\Tools\MSVC\14.44.35207\include\xmemory

; 253  :             return _Allocate_manually_vector_aligned<_Traits>(_Bytes);

  00051	50		 push	 eax
  00052	e8 00 00 00 00	 call	 ??$_Allocate_manually_vector_aligned@U_Default_allocate_traits@std@@@std@@YAPAXI@Z ; std::_Allocate_manually_vector_aligned<std::_Default_allocate_traits>
  00057	eb 3d		 jmp	 SHORT $LN109@Emplace_re
$LN8@Emplace_re:
; File C:\Program Files\Microsoft Visual Studio\2022\Professional\VC\Tools\MSVC\14.44.35207\include\vector

; 2015 :         const size_type _Geometric = _Oldcapacity + _Oldcapacity / 2;

  00059	8d 04 11	 lea	 eax, DWORD PTR [ecx+edx]
; File C:\Program Files\Microsoft Visual Studio\2022\Professional\VC\Tools\MSVC\14.44.35207\include\xmemory

; 117  :         if (_Count > _Max_possible) {

  0005c	8b cf		 mov	 ecx, edi
  0005e	3b c7		 cmp	 eax, edi
  00060	0f 43 c8	 cmovae	 ecx, eax
  00063	81 f9 ff ff ff
	3f		 cmp	 ecx, 1073741823		; 3fffffffH
  00069	0f 87 d1 00 00
	00		 ja	 $LN112@Emplace_re

; 119  :         }
; 120  :     }
; 121  : 
; 122  :     return _Count * _Ty_size;

  0006f	8d 04 8d 00 00
	00 00		 lea	 eax, DWORD PTR [ecx*4]
  00076	89 45 f8	 mov	 DWORD PTR tv652[ebp], eax

; 227  :     if (_Bytes == 0) {

  00079	85 c0		 test	 eax, eax
  0007b	75 04		 jne	 SHORT $LN23@Emplace_re

; 228  :         return nullptr;

  0007d	33 ff		 xor	 edi, edi
  0007f	eb 1a		 jmp	 SHORT $LN22@Emplace_re
$LN23@Emplace_re:

; 229  :     }
; 230  : 
; 231  : #if _HAS_CXX20 // TRANSITION, GH-1532
; 232  :     if (_STD is_constant_evaluated()) {
; 233  :         return _Traits::_Allocate(_Bytes);
; 234  :     }
; 235  : #endif // _HAS_CXX20
; 236  : 
; 237  : #ifdef __cpp_aligned_new
; 238  :     if constexpr (_Align > __STDCPP_DEFAULT_NEW_ALIGNMENT__) {
; 239  :         size_t _Passed_align = _Align;
; 240  : #if defined(_M_IX86) || defined(_M_X64)
; 241  :         if (_Bytes >= _Big_allocation_threshold) {
; 242  :             // boost the alignment of big allocations to help autovectorization
; 243  :             _Passed_align = (_STD max)(_Align, _Big_allocation_alignment);
; 244  :         }
; 245  : #endif // defined(_M_IX86) || defined(_M_X64)
; 246  :         return _Traits::_Allocate_aligned(_Bytes, _Passed_align);
; 247  :     } else
; 248  : #endif // defined(__cpp_aligned_new)
; 249  :     {
; 250  : #if defined(_M_IX86) || defined(_M_X64)
; 251  :         if (_Bytes >= _Big_allocation_threshold) {

  00081	3d 00 10 00 00	 cmp	 eax, 4096		; 00001000H
  00086	72 08		 jb	 SHORT $LN24@Emplace_re

; 253  :             return _Allocate_manually_vector_aligned<_Traits>(_Bytes);

  00088	50		 push	 eax
  00089	e8 00 00 00 00	 call	 ??$_Allocate_manually_vector_aligned@U_Default_allocate_traits@std@@@std@@YAPAXI@Z ; std::_Allocate_manually_vector_aligned<std::_Default_allocate_traits>
  0008e	eb 06		 jmp	 SHORT $LN109@Emplace_re
$LN24@Emplace_re:

; 136  :         return ::operator new(_Bytes);

  00090	50		 push	 eax
  00091	e8 00 00 00 00	 call	 ??2@YAPAXI@Z		; operator new
$LN109@Emplace_re:
; File C:\Program Files\Microsoft Visual Studio\2022\Professional\VC\Tools\MSVC\14.44.35207\include\vector

; 900  :         _Alty_traits::construct(_Al, _STD _Unfancy(_Newvec + _Whereoff), _STD forward<_Valty>(_Val)...);

  00096	8b f8		 mov	 edi, eax
  00098	83 c4 04	 add	 esp, 4
$LN22@Emplace_re:
  0009b	8b 45 0c	 mov	 eax, DWORD PTR _<_Val_0>$[ebp]
  0009e	8d 0c 9f	 lea	 ecx, DWORD PTR [edi+ebx*4]

; 901  :         _Constructed_first = _Newvec + _Whereoff;
; 902  : 
; 903  :         if (_Whereptr == _Mylast) { // at back, provide strong guarantee

  000a1	8b 5d 08	 mov	 ebx, DWORD PTR __Whereptr$[ebp]
  000a4	89 4d fc	 mov	 DWORD PTR tv650[ebp], ecx
  000a7	8b 00		 mov	 eax, DWORD PTR [eax]
  000a9	89 01		 mov	 DWORD PTR [ecx], eax
  000ab	8b 46 04	 mov	 eax, DWORD PTR [esi+4]
  000ae	8b 0e		 mov	 ecx, DWORD PTR [esi]
  000b0	3b d8		 cmp	 ebx, eax
  000b2	75 07		 jne	 SHORT $LN3@Emplace_re

; 909  :         } else { // provide basic guarantee

  000b4	8b 5d fc	 mov	 ebx, DWORD PTR tv650[ebp]
; File C:\Program Files\Microsoft Visual Studio\2022\Professional\VC\Tools\MSVC\14.44.35207\include\xmemory

; 1992 :             _STD _Copy_memmove(_UFirst, _ULast, _STD _Unfancy(_Dest));

  000b7	8b d7		 mov	 edx, edi
; File C:\Program Files\Microsoft Visual Studio\2022\Professional\VC\Tools\MSVC\14.44.35207\include\vector

; 909  :         } else { // provide basic guarantee

  000b9	eb 16		 jmp	 SHORT $LN52@Emplace_re
$LN3@Emplace_re:
; File C:\Program Files\Microsoft Visual Studio\2022\Professional\VC\Tools\MSVC\14.44.35207\include\xmemory

; 1992 :             _STD _Copy_memmove(_UFirst, _ULast, _STD _Unfancy(_Dest));

  000bb	57		 push	 edi
  000bc	53		 push	 ebx
  000bd	51		 push	 ecx
  000be	e8 00 00 00 00	 call	 ??$_Copy_memmove@PAPAVCMail@@PAPAV1@@std@@YAPAPAVCMail@@PAPAV1@00@Z ; std::_Copy_memmove<CMail * *,CMail * *>
  000c3	8b 46 04	 mov	 eax, DWORD PTR [esi+4]
  000c6	8b cb		 mov	 ecx, ebx
; File C:\Program Files\Microsoft Visual Studio\2022\Professional\VC\Tools\MSVC\14.44.35207\include\vector

; 912  :             _STD _Uninitialized_move(_Whereptr, _Mylast, _Newvec + _Whereoff + 1, _Al);

  000c8	8b 5d fc	 mov	 ebx, DWORD PTR tv650[ebp]
; File C:\Program Files\Microsoft Visual Studio\2022\Professional\VC\Tools\MSVC\14.44.35207\include\xmemory

; 1992 :             _STD _Copy_memmove(_UFirst, _ULast, _STD _Unfancy(_Dest));

  000cb	83 c4 0c	 add	 esp, 12			; 0000000cH
; File C:\Program Files\Microsoft Visual Studio\2022\Professional\VC\Tools\MSVC\14.44.35207\include\vector

; 912  :             _STD _Uninitialized_move(_Whereptr, _Mylast, _Newvec + _Whereoff + 1, _Al);

  000ce	8d 53 04	 lea	 edx, DWORD PTR [ebx+4]
$LN52@Emplace_re:

; 913  :         }
; 914  : 
; 915  :         _Guard._New_begin = nullptr;

  000d1	52		 push	 edx
  000d2	50		 push	 eax
  000d3	51		 push	 ecx
  000d4	e8 00 00 00 00	 call	 ??$_Copy_memmove@PAPAVCMail@@PAPAV1@@std@@YAPAPAVCMail@@PAPAV1@00@Z ; std::_Copy_memmove<CMail * *,CMail * *>

; 2069 :         if (_Myfirst) { // destroy and deallocate old array

  000d9	8b 06		 mov	 eax, DWORD PTR [esi]

; 913  :         }
; 914  : 
; 915  :         _Guard._New_begin = nullptr;

  000db	83 c4 0c	 add	 esp, 12			; 0000000cH

; 2069 :         if (_Myfirst) { // destroy and deallocate old array

  000de	85 c0		 test	 eax, eax
  000e0	74 2c		 je	 SHORT $LN72@Emplace_re

; 2070 :             _STD _Destroy_range(_Myfirst, _Mylast, _Al);
; 2071 :             _ASAN_VECTOR_REMOVE;
; 2072 :             _Al.deallocate(_Myfirst, static_cast<size_type>(_Myend - _Myfirst));

  000e2	8b 4e 08	 mov	 ecx, DWORD PTR [esi+8]
  000e5	2b c8		 sub	 ecx, eax
; File C:\Program Files\Microsoft Visual Studio\2022\Professional\VC\Tools\MSVC\14.44.35207\include\xmemory

; 985  :         _STD _Deallocate<_New_alignof<_Ty>>(_Ptr, sizeof(_Ty) * _Count);

  000e7	83 e1 fc	 and	 ecx, -4			; fffffffcH

; 284  :         if (_Bytes >= _Big_allocation_threshold) {

  000ea	81 f9 00 10 00
	00		 cmp	 ecx, 4096		; 00001000H
  000f0	72 12		 jb	 SHORT $LN77@Emplace_re

; 205  :     const uintptr_t _Ptr_container   = _Ptr_user[-1];

  000f2	8b 50 fc	 mov	 edx, DWORD PTR [eax-4]
  000f5	83 c1 23	 add	 ecx, 35			; 00000023H

; 206  : 
; 207  :     // If the following asserts, it likely means that we are performing
; 208  :     // an aligned delete on memory coming from an unaligned allocation.
; 209  :     _STL_ASSERT(_Ptr_user[-2] == _Big_allocation_sentinel, "invalid argument");
; 210  : 
; 211  :     // Extra paranoia on aligned allocation/deallocation; ensure _Ptr_container is
; 212  :     // in range [_Min_back_shift, _Non_user_size]
; 213  : #ifdef _DEBUG
; 214  :     constexpr uintptr_t _Min_back_shift = 2 * sizeof(void*);
; 215  : #else // ^^^ defined(_DEBUG) / !defined(_DEBUG) vvv
; 216  :     constexpr uintptr_t _Min_back_shift = sizeof(void*);
; 217  : #endif // ^^^ !defined(_DEBUG) ^^^
; 218  :     const uintptr_t _Back_shift = reinterpret_cast<uintptr_t>(_Ptr) - _Ptr_container;

  000f8	2b c2		 sub	 eax, edx

; 219  :     _STL_VERIFY(_Back_shift >= _Min_back_shift && _Back_shift <= _Non_user_size, "invalid argument");

  000fa	83 c0 fc	 add	 eax, -4			; fffffffcH
  000fd	83 f8 1f	 cmp	 eax, 31			; 0000001fH
  00100	77 2a		 ja	 SHORT $LN76@Emplace_re

; 220  :     _Ptr = reinterpret_cast<void*>(_Ptr_container);

  00102	8b c2		 mov	 eax, edx
$LN77@Emplace_re:

; 289  :         ::operator delete(_Ptr, _Bytes);

  00104	51		 push	 ecx
  00105	50		 push	 eax
  00106	e8 00 00 00 00	 call	 ??3@YAXPAXI@Z		; operator delete
  0010b	83 c4 08	 add	 esp, 8
$LN72@Emplace_re:
; File C:\Program Files\Microsoft Visual Studio\2022\Professional\VC\Tools\MSVC\14.44.35207\include\vector

; 2076 :         _Mylast  = _Newvec + _Newsize;

  0010e	8b 45 f4	 mov	 eax, DWORD PTR __Newsize$1$[ebp]
  00111	89 3e		 mov	 DWORD PTR [esi], edi
  00113	8d 0c 87	 lea	 ecx, DWORD PTR [edi+eax*4]

; 916  :         _Change_array(_Newvec, _Newsize, _Newcapacity);
; 917  :         return _Newvec + _Whereoff;

  00116	8b c3		 mov	 eax, ebx

; 2076 :         _Mylast  = _Newvec + _Newsize;

  00118	89 4e 04	 mov	 DWORD PTR [esi+4], ecx

; 2077 :         _Myend   = _Newvec + _Newcapacity;

  0011b	8b 4d f8	 mov	 ecx, DWORD PTR tv652[ebp]
  0011e	03 cf		 add	 ecx, edi

; 918  :     }

  00120	5f		 pop	 edi

; 2077 :         _Myend   = _Newvec + _Newcapacity;

  00121	89 4e 08	 mov	 DWORD PTR [esi+8], ecx

; 918  :     }

  00124	5e		 pop	 esi
  00125	5b		 pop	 ebx
  00126	8b e5		 mov	 esp, ebp
  00128	5d		 pop	 ebp
  00129	c2 08 00	 ret	 8
$LN76@Emplace_re:
; File C:\Program Files\Microsoft Visual Studio\2022\Professional\VC\Tools\MSVC\14.44.35207\include\xmemory

; 219  :     _STL_VERIFY(_Back_shift >= _Min_back_shift && _Back_shift <= _Non_user_size, "invalid argument");

  0012c	6a 00		 push	 0
  0012e	6a 00		 push	 0
  00130	6a 00		 push	 0
  00132	6a 00		 push	 0
  00134	6a 00		 push	 0
  00136	e8 00 00 00 00	 call	 __invoke_watson
$LN111@Emplace_re:
; File C:\Program Files\Microsoft Visual Studio\2022\Professional\VC\Tools\MSVC\14.44.35207\include\vector

; 888  :             _Xlength();

  0013b	e8 00 00 00 00	 call	 ?_Xlength@?$vector@PAVCMail@@V?$allocator@PAVCMail@@@std@@@std@@CAXXZ ; std::vector<CMail *,std::allocator<CMail *> >::_Xlength
$LN112@Emplace_re:
; File C:\Program Files\Microsoft Visual Studio\2022\Professional\VC\Tools\MSVC\14.44.35207\include\xmemory

; 118  :             _Throw_bad_array_new_length(); // multiply overflow

  00140	e8 00 00 00 00	 call	 ?_Throw_bad_array_new_length@std@@YAXXZ ; std::_Throw_bad_array_new_length
$LN108@Emplace_re:
  00145	cc		 int	 3
??$_Emplace_reallocate@ABQAVCMail@@@?$vector@PAVCMail@@V?$allocator@PAVCMail@@@std@@@std@@AAEPAPAVCMail@@QAPAV2@ABQAV2@@Z ENDP ; std::vector<CMail *,std::allocator<CMail *> >::_Emplace_reallocate<CMail * const &>
_TEXT	ENDS
; Function compile flags: /Ogtp
; File C:\Program Files\Microsoft Visual Studio\2022\Professional\VC\Tools\MSVC\14.44.35207\include\xutility
;	COMDAT ??$_Copy_memmove@PAPAVCMail@@PAPAV1@@std@@YAPAPAVCMail@@PAPAV1@00@Z
_TEXT	SEGMENT
__First$ = 8						; size = 4
__Last$ = 12						; size = 4
__Dest$ = 16						; size = 4
??$_Copy_memmove@PAPAVCMail@@PAPAV1@@std@@YAPAPAVCMail@@PAPAV1@00@Z PROC ; std::_Copy_memmove<CMail * *,CMail * *>, COMDAT

; 4762 : _OutCtgIt _Copy_memmove(_CtgIt _First, _CtgIt _Last, _OutCtgIt _Dest) {

  00000	55		 push	 ebp
  00001	8b ec		 mov	 ebp, esp

; 4763 :     _STL_INTERNAL_CHECK(_First <= _Last);
; 4764 :     const auto _First_ptr    = _STD _To_address(_First);
; 4765 :     const auto _Last_ptr     = _STD _To_address(_Last);
; 4766 :     const auto _Object_count = static_cast<size_t>(_Last_ptr - _First_ptr);

  00003	8b 55 08	 mov	 edx, DWORD PTR __First$[ebp]
  00006	8b 4d 0c	 mov	 ecx, DWORD PTR __Last$[ebp]
  00009	2b ca		 sub	 ecx, edx
  0000b	8b c1		 mov	 eax, ecx
  0000d	c1 f8 02	 sar	 eax, 2

; 4767 :     const auto _First_ch     = const_cast<const char*>(reinterpret_cast<const volatile char*>(_First_ptr));
; 4768 :     const auto _Last_ch      = const_cast<const char*>(reinterpret_cast<const volatile char*>(_Last_ptr));
; 4769 :     const auto _Byte_count   = static_cast<size_t>(_Last_ch - _First_ch);
; 4770 :     return _STD _Copy_memmove_tail(_First_ch, _STD move(_Dest), _Byte_count, _Object_count);

  00010	50		 push	 eax
  00011	51		 push	 ecx
  00012	ff 75 10	 push	 DWORD PTR __Dest$[ebp]
  00015	52		 push	 edx
  00016	e8 00 00 00 00	 call	 ??$_Copy_memmove_tail@PAPAVCMail@@@std@@YAPAPAVCMail@@QBDQAPAV1@II@Z ; std::_Copy_memmove_tail<CMail * *>
  0001b	83 c4 10	 add	 esp, 16			; 00000010H

; 4771 : }

  0001e	5d		 pop	 ebp
  0001f	c3		 ret	 0
??$_Copy_memmove@PAPAVCMail@@PAPAV1@@std@@YAPAPAVCMail@@PAPAV1@00@Z ENDP ; std::_Copy_memmove<CMail * *,CMail * *>
_TEXT	ENDS
; Function compile flags: /Ogtp
; File C:\Program Files\Microsoft Visual Studio\2022\Professional\VC\Tools\MSVC\14.44.35207\include\xmemory
;	COMDAT ??1?$_Alloc_construct_ptr@V?$allocator@U?$_Tree_node@U?$pair@$$CBKPAVCMailBox@@@std@@PAX@std@@@std@@@std@@QAE@XZ
_TEXT	SEGMENT
??1?$_Alloc_construct_ptr@V?$allocator@U?$_Tree_node@U?$pair@$$CBKPAVCMailBox@@@std@@PAX@std@@@std@@@std@@QAE@XZ PROC ; std::_Alloc_construct_ptr<std::allocator<std::_Tree_node<std::pair<unsigned long const ,CMailBox *>,void *> > >::~_Alloc_construct_ptr<std::allocator<std::_Tree_node<std::pair<unsigned long const ,CMailBox *>,void *> > >, COMDAT
; _this$ = ecx

; 1172 :         if (_Ptr) {

  00000	8b 41 04	 mov	 eax, DWORD PTR [ecx+4]
  00003	85 c0		 test	 eax, eax
  00005	74 0b		 je	 SHORT $LN10@Alloc_cons

; 289  :         ::operator delete(_Ptr, _Bytes);

  00007	6a 18		 push	 24			; 00000018H
  00009	50		 push	 eax
  0000a	e8 00 00 00 00	 call	 ??3@YAXPAXI@Z		; operator delete
  0000f	83 c4 08	 add	 esp, 8
$LN10@Alloc_cons:

; 1173 :             _Al.deallocate(_Ptr, 1);
; 1174 :         }
; 1175 :     }

  00012	c3		 ret	 0
??1?$_Alloc_construct_ptr@V?$allocator@U?$_Tree_node@U?$pair@$$CBKPAVCMailBox@@@std@@PAX@std@@@std@@@std@@QAE@XZ ENDP ; std::_Alloc_construct_ptr<std::allocator<std::_Tree_node<std::pair<unsigned long const ,CMailBox *>,void *> > >::~_Alloc_construct_ptr<std::allocator<std::_Tree_node<std::pair<unsigned long const ,CMailBox *>,void *> > >
_TEXT	ENDS
; Function compile flags: /Ogtp
; File C:\Program Files\Microsoft Visual Studio\2022\Professional\VC\Tools\MSVC\14.44.35207\include\xtree
; File C:\Program Files\Microsoft Visual Studio\2022\Professional\VC\Tools\MSVC\14.44.35207\include\type_traits
; File C:\Program Files\Microsoft Visual Studio\2022\Professional\VC\Tools\MSVC\14.44.35207\include\xtree
; File C:\Program Files\Microsoft Visual Studio\2022\Professional\VC\Tools\MSVC\14.44.35207\include\type_traits
; File C:\Program Files\Microsoft Visual Studio\2022\Professional\VC\Tools\MSVC\14.44.35207\include\xtree
;	COMDAT ??$_Find_lower_bound@K@?$_Tree@V?$_Tmap_traits@KPAVCMailBox@@U?$less@K@std@@V?$allocator@U?$pair@$$CBKPAVCMailBox@@@std@@@3@$0A@@std@@@std@@IBE?AU?$_Tree_find_result@PAU?$_Tree_node@U?$pair@$$CBKPAVCMailBox@@@std@@PAX@std@@@1@ABK@Z
_TEXT	SEGMENT
___$ReturnUdt$ = 8					; size = 4
__Keyval$ = 12						; size = 4
??$_Find_lower_bound@K@?$_Tree@V?$_Tmap_traits@KPAVCMailBox@@U?$less@K@std@@V?$allocator@U?$pair@$$CBKPAVCMailBox@@@std@@@3@$0A@@std@@@std@@IBE?AU?$_Tree_find_result@PAU?$_Tree_node@U?$pair@$$CBKPAVCMailBox@@@std@@PAX@std@@@1@ABK@Z PROC ; std::_Tree<std::_Tmap_traits<unsigned long,CMailBox *,std::less<unsigned long>,std::allocator<std::pair<unsigned long const ,CMailBox *> >,0> >::_Find_lower_bound<unsigned long>, COMDAT
; _this$ = ecx

; 1628 :     _Tree_find_result<_Nodeptr> _Find_lower_bound(const _Keyty& _Keyval) const {

  00000	55		 push	 ebp
  00001	8b ec		 mov	 ebp, esp

; 1629 :         const auto _Scary = _Get_scary();
; 1630 :         _Tree_find_result<_Nodeptr> _Result{{_Scary->_Myhead->_Parent, _Tree_child::_Right}, _Scary->_Myhead};

  00003	8b 09		 mov	 ecx, DWORD PTR [ecx]
  00005	8b 55 08	 mov	 edx, DWORD PTR ___$ReturnUdt$[ebp]
  00008	8b 41 04	 mov	 eax, DWORD PTR [ecx+4]
  0000b	89 02		 mov	 DWORD PTR [edx], eax
  0000d	c7 42 04 00 00
	00 00		 mov	 DWORD PTR [edx+4], 0
  00014	89 4a 08	 mov	 DWORD PTR [edx+8], ecx

; 1631 :         _Nodeptr _Trynode = _Result._Location._Parent;
; 1632 :         while (!_Trynode->_Isnil) {

  00017	80 78 0d 00	 cmp	 BYTE PTR [eax+13], 0
  0001b	75 28		 jne	 SHORT $LN13@Find_lower
; File C:\Program Files\Microsoft Visual Studio\2022\Professional\VC\Tools\MSVC\14.44.35207\include\type_traits

; 2380 :         return _Left < _Right;

  0001d	8b 4d 0c	 mov	 ecx, DWORD PTR __Keyval$[ebp]
  00020	56		 push	 esi
  00021	8b 31		 mov	 esi, DWORD PTR [ecx]
$LL2@Find_lower:
; File C:\Program Files\Microsoft Visual Studio\2022\Professional\VC\Tools\MSVC\14.44.35207\include\xtree

; 1633 :             _Result._Location._Parent = _Trynode;

  00023	89 02		 mov	 DWORD PTR [edx], eax
; File C:\Program Files\Microsoft Visual Studio\2022\Professional\VC\Tools\MSVC\14.44.35207\include\type_traits

; 2380 :         return _Left < _Right;

  00025	39 70 10	 cmp	 DWORD PTR [eax+16], esi
; File C:\Program Files\Microsoft Visual Studio\2022\Professional\VC\Tools\MSVC\14.44.35207\include\xtree

; 1634 :             if (_DEBUG_LT_PRED(_Getcomp(), _Traits::_Kfn(_Trynode->_Myval), _Keyval)) {

  00028	73 07		 jae	 SHORT $LN4@Find_lower

; 1635 :                 _Result._Location._Child = _Tree_child::_Right;
; 1636 :                 _Trynode                 = _Trynode->_Right;

  0002a	8b 40 08	 mov	 eax, DWORD PTR [eax+8]
  0002d	33 c9		 xor	 ecx, ecx

; 1637 :             } else {

  0002f	eb 0a		 jmp	 SHORT $LN5@Find_lower
$LN4@Find_lower:

; 1638 :                 _Result._Location._Child = _Tree_child::_Left;
; 1639 :                 _Result._Bound           = _Trynode;

  00031	89 42 08	 mov	 DWORD PTR [edx+8], eax

; 1640 :                 _Trynode                 = _Trynode->_Left;

  00034	b9 01 00 00 00	 mov	 ecx, 1
  00039	8b 00		 mov	 eax, DWORD PTR [eax]
$LN5@Find_lower:

; 1631 :         _Nodeptr _Trynode = _Result._Location._Parent;
; 1632 :         while (!_Trynode->_Isnil) {

  0003b	89 4a 04	 mov	 DWORD PTR [edx+4], ecx
  0003e	80 78 0d 00	 cmp	 BYTE PTR [eax+13], 0
  00042	74 df		 je	 SHORT $LL2@Find_lower
  00044	5e		 pop	 esi
$LN13@Find_lower:

; 1641 :             }
; 1642 :         }
; 1643 : 
; 1644 :         return _Result;
; 1645 :     }

  00045	8b c2		 mov	 eax, edx
  00047	5d		 pop	 ebp
  00048	c2 08 00	 ret	 8
??$_Find_lower_bound@K@?$_Tree@V?$_Tmap_traits@KPAVCMailBox@@U?$less@K@std@@V?$allocator@U?$pair@$$CBKPAVCMailBox@@@std@@@3@$0A@@std@@@std@@IBE?AU?$_Tree_find_result@PAU?$_Tree_node@U?$pair@$$CBKPAVCMailBox@@@std@@PAX@std@@@1@ABK@Z ENDP ; std::_Tree<std::_Tmap_traits<unsigned long,CMailBox *,std::less<unsigned long>,std::allocator<std::pair<unsigned long const ,CMailBox *> >,0> >::_Find_lower_bound<unsigned long>
_TEXT	ENDS
; Function compile flags: /Ogtp
; File C:\Program Files\Microsoft Visual Studio\2022\Professional\VC\Tools\MSVC\14.44.35207\include\xtree
; File C:\Program Files\Microsoft Visual Studio\2022\Professional\VC\Tools\MSVC\14.44.35207\include\utility
; File C:\Program Files\Microsoft Visual Studio\2022\Professional\VC\Tools\MSVC\14.44.35207\include\xmemory
; File C:\Program Files\Microsoft Visual Studio\2022\Professional\VC\Tools\MSVC\14.44.35207\include\xtree
;	COMDAT ??$_Erase_tree@V?$allocator@U?$_Tree_node@U?$pair@$$CBKPAVCMailBox@@@std@@PAX@std@@@std@@@?$_Tree_val@U?$_Tree_simple_types@U?$pair@$$CBKPAVCMailBox@@@std@@@std@@@std@@QAEXAAV?$allocator@U?$_Tree_node@U?$pair@$$CBKPAVCMailBox@@@std@@PAX@std@@@1@PAU?$_Tree_node@U?$pair@$$CBKPAVCMailBox@@@std@@PAX@1@@Z
_TEXT	SEGMENT
__Al$ = 8						; size = 4
__Rootnode$ = 12					; size = 4
??$_Erase_tree@V?$allocator@U?$_Tree_node@U?$pair@$$CBKPAVCMailBox@@@std@@PAX@std@@@std@@@?$_Tree_val@U?$_Tree_simple_types@U?$pair@$$CBKPAVCMailBox@@@std@@@std@@@std@@QAEXAAV?$allocator@U?$_Tree_node@U?$pair@$$CBKPAVCMailBox@@@std@@PAX@std@@@1@PAU?$_Tree_node@U?$pair@$$CBKPAVCMailBox@@@std@@PAX@1@@Z PROC ; std::_Tree_val<std::_Tree_simple_types<std::pair<unsigned long const ,CMailBox *> > >::_Erase_tree<std::allocator<std::_Tree_node<std::pair<unsigned long const ,CMailBox *>,void *> > >, COMDAT
; _this$ = ecx

; 767  :     void _Erase_tree(_Alnode& _Al, _Nodeptr _Rootnode) noexcept {

  00000	55		 push	 ebp
  00001	8b ec		 mov	 ebp, esp
  00003	53		 push	 ebx
  00004	56		 push	 esi

; 768  :         while (!_Rootnode->_Isnil) { // free subtrees, then node

  00005	8b 75 0c	 mov	 esi, DWORD PTR __Rootnode$[ebp]
  00008	8b d9		 mov	 ebx, ecx
  0000a	80 7e 0d 00	 cmp	 BYTE PTR [esi+13], 0
  0000e	75 25		 jne	 SHORT $LN34@Erase_tree
  00010	57		 push	 edi
  00011	8b 7d 08	 mov	 edi, DWORD PTR __Al$[ebp]
$LL2@Erase_tree:

; 769  :             _Erase_tree(_Al, _Rootnode->_Right);

  00014	ff 76 08	 push	 DWORD PTR [esi+8]
  00017	8b cb		 mov	 ecx, ebx
  00019	57		 push	 edi
  0001a	e8 00 00 00 00	 call	 ??$_Erase_tree@V?$allocator@U?$_Tree_node@U?$pair@$$CBKPAVCMailBox@@@std@@PAX@std@@@std@@@?$_Tree_val@U?$_Tree_simple_types@U?$pair@$$CBKPAVCMailBox@@@std@@@std@@@std@@QAEXAAV?$allocator@U?$_Tree_node@U?$pair@$$CBKPAVCMailBox@@@std@@PAX@std@@@1@PAU?$_Tree_node@U?$pair@$$CBKPAVCMailBox@@@std@@PAX@1@@Z ; std::_Tree_val<std::_Tree_simple_types<std::pair<unsigned long const ,CMailBox *> > >::_Erase_tree<std::allocator<std::_Tree_node<std::pair<unsigned long const ,CMailBox *>,void *> > >
; File C:\Program Files\Microsoft Visual Studio\2022\Professional\VC\Tools\MSVC\14.44.35207\include\utility

; 773  :     _Ty _Old_val = static_cast<_Ty&&>(_Val);

  0001f	8b c6		 mov	 eax, esi

; 774  :     _Val         = static_cast<_Other&&>(_New_val);

  00021	8b 36		 mov	 esi, DWORD PTR [esi]
; File C:\Program Files\Microsoft Visual Studio\2022\Professional\VC\Tools\MSVC\14.44.35207\include\xmemory

; 289  :         ::operator delete(_Ptr, _Bytes);

  00023	6a 18		 push	 24			; 00000018H
  00025	50		 push	 eax
  00026	e8 00 00 00 00	 call	 ??3@YAXPAXI@Z		; operator delete
  0002b	83 c4 08	 add	 esp, 8
; File C:\Program Files\Microsoft Visual Studio\2022\Professional\VC\Tools\MSVC\14.44.35207\include\xtree

; 768  :         while (!_Rootnode->_Isnil) { // free subtrees, then node

  0002e	80 7e 0d 00	 cmp	 BYTE PTR [esi+13], 0
  00032	74 e0		 je	 SHORT $LL2@Erase_tree
  00034	5f		 pop	 edi
$LN34@Erase_tree:
  00035	5e		 pop	 esi

; 770  :             _Alnode::value_type::_Freenode(_Al, _STD exchange(_Rootnode, _Rootnode->_Left));
; 771  :         }
; 772  :     }

  00036	5b		 pop	 ebx
  00037	5d		 pop	 ebp
  00038	c2 08 00	 ret	 8
??$_Erase_tree@V?$allocator@U?$_Tree_node@U?$pair@$$CBKPAVCMailBox@@@std@@PAX@std@@@std@@@?$_Tree_val@U?$_Tree_simple_types@U?$pair@$$CBKPAVCMailBox@@@std@@@std@@@std@@QAEXAAV?$allocator@U?$_Tree_node@U?$pair@$$CBKPAVCMailBox@@@std@@PAX@std@@@1@PAU?$_Tree_node@U?$pair@$$CBKPAVCMailBox@@@std@@PAX@1@@Z ENDP ; std::_Tree_val<std::_Tree_simple_types<std::pair<unsigned long const ,CMailBox *> > >::_Erase_tree<std::allocator<std::_Tree_node<std::pair<unsigned long const ,CMailBox *>,void *> > >
_TEXT	ENDS
; Function compile flags: /Ogtp
;	COMDAT ??__FsPost@?1??GetInstance@CPost@@SAPAV1@XZ@YAXXZ
text$yd	SEGMENT
??__FsPost@?1??GetInstance@CPost@@SAPAV1@XZ@YAXXZ PROC	; `CPost::GetInstance'::`2'::`dynamic atexit destructor for 'sPost'', COMDAT
  00000	b9 00 00 00 00	 mov	 ecx, OFFSET ?sPost@?1??GetInstance@CPost@@SAPAV2@XZ@4V2@A
  00005	e9 00 00 00 00	 jmp	 ??1CPost@@UAE@XZ	; CPost::~CPost
??__FsPost@?1??GetInstance@CPost@@SAPAV1@XZ@YAXXZ ENDP	; `CPost::GetInstance'::`2'::`dynamic atexit destructor for 'sPost''
text$yd	ENDS
; Function compile flags: /Ogtp
; File C:\IAGOS\server\v18\Source\Source\_Network\Misc\Include\ar.h
;	COMDAT ??$?6I@CAr@@QAEAAV0@ABI@Z
_TEXT	SEGMENT
_t$ = 8							; size = 4
??$?6I@CAr@@QAEAAV0@ABI@Z PROC				; CAr::operator<<<unsigned int>, COMDAT
; _this$ = ecx

; 255  : {

  00000	55		 push	 ebp
  00001	8b ec		 mov	 ebp, esp
  00003	56		 push	 esi

; 256  : 	CheckBuf(sizeof(T));

  00004	6a 04		 push	 4
  00006	8b f1		 mov	 esi, ecx
  00008	e8 00 00 00 00	 call	 ?CheckBuf@CAr@@QAEXI@Z	; CAr::CheckBuf

; 257  : 	*(UNALIGNED T*)m_lpBufCur = t;

  0000d	8b 56 08	 mov	 edx, DWORD PTR [esi+8]
  00010	8b 45 08	 mov	 eax, DWORD PTR _t$[ebp]
  00013	8b 00		 mov	 eax, DWORD PTR [eax]
  00015	89 02		 mov	 DWORD PTR [edx], eax

; 258  : 	m_lpBufCur += sizeof(T);
; 259  : 	return *this;

  00017	8b c6		 mov	 eax, esi
  00019	83 46 08 04	 add	 DWORD PTR [esi+8], 4
  0001d	5e		 pop	 esi

; 260  : }

  0001e	5d		 pop	 ebp
  0001f	c2 04 00	 ret	 4
??$?6I@CAr@@QAEAAV0@ABI@Z ENDP				; CAr::operator<<<unsigned int>
_TEXT	ENDS
; Function compile flags: /Ogtp
; File C:\IAGOS\server\v18\Source\Source\_Network\Misc\Include\ar.h
;	COMDAT ??$?6H@CAr@@QAEAAV0@ABH@Z
_TEXT	SEGMENT
_t$ = 8							; size = 4
??$?6H@CAr@@QAEAAV0@ABH@Z PROC				; CAr::operator<<<int>, COMDAT
; _this$ = ecx

; 255  : {

  00000	55		 push	 ebp
  00001	8b ec		 mov	 ebp, esp
  00003	56		 push	 esi

; 256  : 	CheckBuf(sizeof(T));

  00004	6a 04		 push	 4
  00006	8b f1		 mov	 esi, ecx
  00008	e8 00 00 00 00	 call	 ?CheckBuf@CAr@@QAEXI@Z	; CAr::CheckBuf

; 257  : 	*(UNALIGNED T*)m_lpBufCur = t;

  0000d	8b 56 08	 mov	 edx, DWORD PTR [esi+8]
  00010	8b 45 08	 mov	 eax, DWORD PTR _t$[ebp]
  00013	8b 00		 mov	 eax, DWORD PTR [eax]
  00015	89 02		 mov	 DWORD PTR [edx], eax

; 258  : 	m_lpBufCur += sizeof(T);
; 259  : 	return *this;

  00017	8b c6		 mov	 eax, esi
  00019	83 46 08 04	 add	 DWORD PTR [esi+8], 4
  0001d	5e		 pop	 esi

; 260  : }

  0001e	5d		 pop	 ebp
  0001f	c2 04 00	 ret	 4
??$?6H@CAr@@QAEAAV0@ABH@Z ENDP				; CAr::operator<<<int>
_TEXT	ENDS
; Function compile flags: /Ogtp
; File C:\IAGOS\server\v18\Source\Source\_Network\Misc\Include\ar.h
;	COMDAT ??$?5H@CAr@@QAEAAV0@AAH@Z
_TEXT	SEGMENT
_t$ = 8							; size = 4
??$?5H@CAr@@QAEAAV0@AAH@Z PROC				; CAr::operator>><int>, COMDAT
; _this$ = ecx

; 302  : {

  00000	55		 push	 ebp
  00001	8b ec		 mov	 ebp, esp
  00003	8b d1		 mov	 edx, ecx

; 303  : 	if (m_lpBufCur + sizeof(T) <= m_lpBufMax)

  00005	8b 4a 08	 mov	 ecx, DWORD PTR [edx+8]
  00008	8d 41 04	 lea	 eax, DWORD PTR [ecx+4]
  0000b	3b 42 0c	 cmp	 eax, DWORD PTR [edx+12]
  0000e	8b 45 08	 mov	 eax, DWORD PTR _t$[ebp]
  00011	77 0e		 ja	 SHORT $LN2@operator

; 304  : 	{
; 305  : 		t = *(UNALIGNED T*)m_lpBufCur;

  00013	8b 09		 mov	 ecx, DWORD PTR [ecx]
  00015	89 08		 mov	 DWORD PTR [eax], ecx

; 312  : 	}
; 313  : 	return *this;
; 314  : }

  00017	8b c2		 mov	 eax, edx
  00019	83 42 08 04	 add	 DWORD PTR [edx+8], 4
  0001d	5d		 pop	 ebp
  0001e	c2 04 00	 ret	 4
$LN2@operator:

; 306  : 		m_lpBufCur += sizeof(T);
; 307  : 	}
; 308  : 	else
; 309  : 	{
; 310  : 		t = T();

  00021	c7 00 00 00 00
	00		 mov	 DWORD PTR [eax], 0

; 311  : 		m_lpBufCur = m_lpBufMax;

  00027	8b 42 0c	 mov	 eax, DWORD PTR [edx+12]
  0002a	89 42 08	 mov	 DWORD PTR [edx+8], eax

; 312  : 	}
; 313  : 	return *this;
; 314  : }

  0002d	8b c2		 mov	 eax, edx
  0002f	5d		 pop	 ebp
  00030	c2 04 00	 ret	 4
??$?5H@CAr@@QAEAAV0@AAH@Z ENDP				; CAr::operator>><int>
_TEXT	ENDS
; Function compile flags: /Ogtp
;	COMDAT ??__FsMailBox@?1??GetInstance@CMailBox@@SAPAV1@XZ@YAXXZ
text$yd	SEGMENT
??__FsMailBox@?1??GetInstance@CMailBox@@SAPAV1@XZ@YAXXZ PROC ; `CMailBox::GetInstance'::`2'::`dynamic atexit destructor for 'sMailBox'', COMDAT
  00000	b9 00 00 00 00	 mov	 ecx, OFFSET ?sMailBox@?1??GetInstance@CMailBox@@SAPAV2@XZ@4V2@A
  00005	e9 00 00 00 00	 jmp	 ??1CMailBox@@UAE@XZ	; CMailBox::~CMailBox
??__FsMailBox@?1??GetInstance@CMailBox@@SAPAV1@XZ@YAXXZ ENDP ; `CMailBox::GetInstance'::`2'::`dynamic atexit destructor for 'sMailBox''
text$yd	ENDS
; Function compile flags: /Ogtp
; File C:\IAGOS\server\v18\Source\Source\_Network\Misc\Include\ar.h
;	COMDAT ??$?5J@CAr@@QAEAAV0@AAJ@Z
_TEXT	SEGMENT
_t$ = 8							; size = 4
??$?5J@CAr@@QAEAAV0@AAJ@Z PROC				; CAr::operator>><long>, COMDAT
; _this$ = ecx

; 302  : {

  00000	55		 push	 ebp
  00001	8b ec		 mov	 ebp, esp
  00003	8b d1		 mov	 edx, ecx

; 303  : 	if (m_lpBufCur + sizeof(T) <= m_lpBufMax)

  00005	8b 4a 08	 mov	 ecx, DWORD PTR [edx+8]
  00008	8d 41 04	 lea	 eax, DWORD PTR [ecx+4]
  0000b	3b 42 0c	 cmp	 eax, DWORD PTR [edx+12]
  0000e	8b 45 08	 mov	 eax, DWORD PTR _t$[ebp]
  00011	77 0e		 ja	 SHORT $LN2@operator

; 304  : 	{
; 305  : 		t = *(UNALIGNED T*)m_lpBufCur;

  00013	8b 09		 mov	 ecx, DWORD PTR [ecx]
  00015	89 08		 mov	 DWORD PTR [eax], ecx

; 312  : 	}
; 313  : 	return *this;
; 314  : }

  00017	8b c2		 mov	 eax, edx
  00019	83 42 08 04	 add	 DWORD PTR [edx+8], 4
  0001d	5d		 pop	 ebp
  0001e	c2 04 00	 ret	 4
$LN2@operator:

; 306  : 		m_lpBufCur += sizeof(T);
; 307  : 	}
; 308  : 	else
; 309  : 	{
; 310  : 		t = T();

  00021	c7 00 00 00 00
	00		 mov	 DWORD PTR [eax], 0

; 311  : 		m_lpBufCur = m_lpBufMax;

  00027	8b 42 0c	 mov	 eax, DWORD PTR [edx+12]
  0002a	89 42 08	 mov	 DWORD PTR [edx+8], eax

; 312  : 	}
; 313  : 	return *this;
; 314  : }

  0002d	8b c2		 mov	 eax, edx
  0002f	5d		 pop	 ebp
  00030	c2 04 00	 ret	 4
??$?5J@CAr@@QAEAAV0@AAJ@Z ENDP				; CAr::operator>><long>
_TEXT	ENDS
; Function compile flags: /Ogtp
; File C:\IAGOS\server\v18\Source\Source\_Network\Misc\Include\ar.h
;	COMDAT ??$?5E@CAr@@QAEAAV0@AAE@Z
_TEXT	SEGMENT
_t$ = 8							; size = 4
??$?5E@CAr@@QAEAAV0@AAE@Z PROC				; CAr::operator>><unsigned char>, COMDAT
; _this$ = ecx

; 302  : {

  00000	55		 push	 ebp
  00001	8b ec		 mov	 ebp, esp
  00003	8b d1		 mov	 edx, ecx

; 303  : 	if (m_lpBufCur + sizeof(T) <= m_lpBufMax)

  00005	8b 4a 08	 mov	 ecx, DWORD PTR [edx+8]
  00008	8d 41 01	 lea	 eax, DWORD PTR [ecx+1]
  0000b	3b 42 0c	 cmp	 eax, DWORD PTR [edx+12]
  0000e	8b 45 08	 mov	 eax, DWORD PTR _t$[ebp]
  00011	77 0d		 ja	 SHORT $LN2@operator

; 304  : 	{
; 305  : 		t = *(UNALIGNED T*)m_lpBufCur;

  00013	8a 09		 mov	 cl, BYTE PTR [ecx]
  00015	88 08		 mov	 BYTE PTR [eax], cl

; 312  : 	}
; 313  : 	return *this;
; 314  : }

  00017	8b c2		 mov	 eax, edx
  00019	ff 42 08	 inc	 DWORD PTR [edx+8]
  0001c	5d		 pop	 ebp
  0001d	c2 04 00	 ret	 4
$LN2@operator:

; 306  : 		m_lpBufCur += sizeof(T);
; 307  : 	}
; 308  : 	else
; 309  : 	{
; 310  : 		t = T();

  00020	c6 00 00	 mov	 BYTE PTR [eax], 0

; 311  : 		m_lpBufCur = m_lpBufMax;

  00023	8b 42 0c	 mov	 eax, DWORD PTR [edx+12]
  00026	89 42 08	 mov	 DWORD PTR [edx+8], eax

; 312  : 	}
; 313  : 	return *this;
; 314  : }

  00029	8b c2		 mov	 eax, edx
  0002b	5d		 pop	 ebp
  0002c	c2 04 00	 ret	 4
??$?5E@CAr@@QAEAAV0@AAE@Z ENDP				; CAr::operator>><unsigned char>
_TEXT	ENDS
; Function compile flags: /Ogtp
; File C:\IAGOS\server\v18\Source\Source\_Network\Misc\Include\ar.h
;	COMDAT ??$?5K@CAr@@QAEAAV0@AAK@Z
_TEXT	SEGMENT
_t$ = 8							; size = 4
??$?5K@CAr@@QAEAAV0@AAK@Z PROC				; CAr::operator>><unsigned long>, COMDAT
; _this$ = ecx

; 302  : {

  00000	55		 push	 ebp
  00001	8b ec		 mov	 ebp, esp
  00003	8b d1		 mov	 edx, ecx

; 303  : 	if (m_lpBufCur + sizeof(T) <= m_lpBufMax)

  00005	8b 4a 08	 mov	 ecx, DWORD PTR [edx+8]
  00008	8d 41 04	 lea	 eax, DWORD PTR [ecx+4]
  0000b	3b 42 0c	 cmp	 eax, DWORD PTR [edx+12]
  0000e	8b 45 08	 mov	 eax, DWORD PTR _t$[ebp]
  00011	77 0e		 ja	 SHORT $LN2@operator

; 304  : 	{
; 305  : 		t = *(UNALIGNED T*)m_lpBufCur;

  00013	8b 09		 mov	 ecx, DWORD PTR [ecx]
  00015	89 08		 mov	 DWORD PTR [eax], ecx

; 312  : 	}
; 313  : 	return *this;
; 314  : }

  00017	8b c2		 mov	 eax, edx
  00019	83 42 08 04	 add	 DWORD PTR [edx+8], 4
  0001d	5d		 pop	 ebp
  0001e	c2 04 00	 ret	 4
$LN2@operator:

; 306  : 		m_lpBufCur += sizeof(T);
; 307  : 	}
; 308  : 	else
; 309  : 	{
; 310  : 		t = T();

  00021	c7 00 00 00 00
	00		 mov	 DWORD PTR [eax], 0

; 311  : 		m_lpBufCur = m_lpBufMax;

  00027	8b 42 0c	 mov	 eax, DWORD PTR [edx+12]
  0002a	89 42 08	 mov	 DWORD PTR [edx+8], eax

; 312  : 	}
; 313  : 	return *this;
; 314  : }

  0002d	8b c2		 mov	 eax, edx
  0002f	5d		 pop	 ebp
  00030	c2 04 00	 ret	 4
??$?5K@CAr@@QAEAAV0@AAK@Z ENDP				; CAr::operator>><unsigned long>
_TEXT	ENDS
; Function compile flags: /Ogtp
; File C:\IAGOS\server\v18\Source\Source\_Network\Misc\Include\ar.h
;	COMDAT ??$?6J@CAr@@QAEAAV0@ABJ@Z
_TEXT	SEGMENT
_t$ = 8							; size = 4
??$?6J@CAr@@QAEAAV0@ABJ@Z PROC				; CAr::operator<<<long>, COMDAT
; _this$ = ecx

; 255  : {

  00000	55		 push	 ebp
  00001	8b ec		 mov	 ebp, esp
  00003	56		 push	 esi

; 256  : 	CheckBuf(sizeof(T));

  00004	6a 04		 push	 4
  00006	8b f1		 mov	 esi, ecx
  00008	e8 00 00 00 00	 call	 ?CheckBuf@CAr@@QAEXI@Z	; CAr::CheckBuf

; 257  : 	*(UNALIGNED T*)m_lpBufCur = t;

  0000d	8b 56 08	 mov	 edx, DWORD PTR [esi+8]
  00010	8b 45 08	 mov	 eax, DWORD PTR _t$[ebp]
  00013	8b 00		 mov	 eax, DWORD PTR [eax]
  00015	89 02		 mov	 DWORD PTR [edx], eax

; 258  : 	m_lpBufCur += sizeof(T);
; 259  : 	return *this;

  00017	8b c6		 mov	 eax, esi
  00019	83 46 08 04	 add	 DWORD PTR [esi+8], 4
  0001d	5e		 pop	 esi

; 260  : }

  0001e	5d		 pop	 ebp
  0001f	c2 04 00	 ret	 4
??$?6J@CAr@@QAEAAV0@ABJ@Z ENDP				; CAr::operator<<<long>
_TEXT	ENDS
; Function compile flags: /Ogtp
; File C:\IAGOS\server\v18\Source\Source\_Network\Misc\Include\ar.h
;	COMDAT ??$?6E@CAr@@QAEAAV0@ABE@Z
_TEXT	SEGMENT
_t$ = 8							; size = 4
??$?6E@CAr@@QAEAAV0@ABE@Z PROC				; CAr::operator<<<unsigned char>, COMDAT
; _this$ = ecx

; 255  : {

  00000	55		 push	 ebp
  00001	8b ec		 mov	 ebp, esp
  00003	56		 push	 esi

; 256  : 	CheckBuf(sizeof(T));

  00004	6a 01		 push	 1
  00006	8b f1		 mov	 esi, ecx
  00008	e8 00 00 00 00	 call	 ?CheckBuf@CAr@@QAEXI@Z	; CAr::CheckBuf

; 257  : 	*(UNALIGNED T*)m_lpBufCur = t;

  0000d	8b 45 08	 mov	 eax, DWORD PTR _t$[ebp]
  00010	8b 56 08	 mov	 edx, DWORD PTR [esi+8]
  00013	8a 00		 mov	 al, BYTE PTR [eax]
  00015	88 02		 mov	 BYTE PTR [edx], al

; 258  : 	m_lpBufCur += sizeof(T);
; 259  : 	return *this;

  00017	8b c6		 mov	 eax, esi
  00019	ff 46 08	 inc	 DWORD PTR [esi+8]
  0001c	5e		 pop	 esi

; 260  : }

  0001d	5d		 pop	 ebp
  0001e	c2 04 00	 ret	 4
??$?6E@CAr@@QAEAAV0@ABE@Z ENDP				; CAr::operator<<<unsigned char>
_TEXT	ENDS
; Function compile flags: /Ogtp
; File C:\IAGOS\server\v18\Source\Source\_Network\Misc\Include\ar.h
;	COMDAT ??$?6K@CAr@@QAEAAV0@ABK@Z
_TEXT	SEGMENT
_t$ = 8							; size = 4
??$?6K@CAr@@QAEAAV0@ABK@Z PROC				; CAr::operator<<<unsigned long>, COMDAT
; _this$ = ecx

; 255  : {

  00000	55		 push	 ebp
  00001	8b ec		 mov	 ebp, esp
  00003	56		 push	 esi

; 256  : 	CheckBuf(sizeof(T));

  00004	6a 04		 push	 4
  00006	8b f1		 mov	 esi, ecx
  00008	e8 00 00 00 00	 call	 ?CheckBuf@CAr@@QAEXI@Z	; CAr::CheckBuf

; 257  : 	*(UNALIGNED T*)m_lpBufCur = t;

  0000d	8b 56 08	 mov	 edx, DWORD PTR [esi+8]
  00010	8b 45 08	 mov	 eax, DWORD PTR _t$[ebp]
  00013	8b 00		 mov	 eax, DWORD PTR [eax]
  00015	89 02		 mov	 DWORD PTR [edx], eax

; 258  : 	m_lpBufCur += sizeof(T);
; 259  : 	return *this;

  00017	8b c6		 mov	 eax, esi
  00019	83 46 08 04	 add	 DWORD PTR [esi+8], 4
  0001d	5e		 pop	 esi

; 260  : }

  0001e	5d		 pop	 ebp
  0001f	c2 04 00	 ret	 4
??$?6K@CAr@@QAEAAV0@ABK@Z ENDP				; CAr::operator<<<unsigned long>
_TEXT	ENDS
; Function compile flags: /Ogtp
;	COMDAT ??_GCPost@@UAEPAXI@Z
_TEXT	SEGMENT
___flags$ = 8						; size = 4
??_GCPost@@UAEPAXI@Z PROC				; CPost::`scalar deleting destructor', COMDAT
; _this$ = ecx
  00000	55		 push	 ebp
  00001	8b ec		 mov	 ebp, esp
  00003	56		 push	 esi
  00004	8b f1		 mov	 esi, ecx
  00006	e8 00 00 00 00	 call	 ??1CPost@@UAE@XZ	; CPost::~CPost
  0000b	f6 45 08 01	 test	 BYTE PTR ___flags$[ebp], 1
  0000f	74 0b		 je	 SHORT $LN5@scalar
  00011	6a 0c		 push	 12			; 0000000cH
  00013	56		 push	 esi
  00014	e8 00 00 00 00	 call	 ??3@YAXPAXI@Z		; operator delete
  00019	83 c4 08	 add	 esp, 8
$LN5@scalar:
  0001c	8b c6		 mov	 eax, esi
  0001e	5e		 pop	 esi
  0001f	5d		 pop	 ebp
  00020	c2 04 00	 ret	 4
??_GCPost@@UAEPAXI@Z ENDP				; CPost::`scalar deleting destructor'
_TEXT	ENDS
; Function compile flags: /Ogtp
; File C:\Program Files\Microsoft Visual Studio\2022\Professional\VC\Tools\MSVC\14.44.35207\include\xtree
;	COMDAT ?_Insert_node@?$_Tree_val@U?$_Tree_simple_types@U?$pair@$$CBKPAVCMailBox@@@std@@@std@@@std@@QAEPAU?$_Tree_node@U?$pair@$$CBKPAVCMailBox@@@std@@PAX@2@U?$_Tree_id@PAU?$_Tree_node@U?$pair@$$CBKPAVCMailBox@@@std@@PAX@std@@@2@QAU32@@Z
_TEXT	SEGMENT
__Head$1$ = -4						; size = 4
__Loc$ = 8						; size = 8
__Newnode$ = 16						; size = 4
?_Insert_node@?$_Tree_val@U?$_Tree_simple_types@U?$pair@$$CBKPAVCMailBox@@@std@@@std@@@std@@QAEPAU?$_Tree_node@U?$pair@$$CBKPAVCMailBox@@@std@@PAX@2@U?$_Tree_id@PAU?$_Tree_node@U?$pair@$$CBKPAVCMailBox@@@std@@PAX@std@@@2@QAU32@@Z PROC ; std::_Tree_val<std::_Tree_simple_types<std::pair<unsigned long const ,CMailBox *> > >::_Insert_node, COMDAT
; _this$ = ecx

; 669  :     _Nodeptr _Insert_node(const _Tree_id<_Nodeptr> _Loc, const _Nodeptr _Newnode) noexcept {

  00000	55		 push	 ebp
  00001	8b ec		 mov	 ebp, esp
  00003	51		 push	 ecx

; 670  :         ++_Mysize;
; 671  :         const auto _Head  = _Myhead;
; 672  :         _Newnode->_Parent = _Loc._Parent;

  00004	8b 55 08	 mov	 edx, DWORD PTR __Loc$[ebp]
  00007	53		 push	 ebx
  00008	8b d9		 mov	 ebx, ecx
  0000a	57		 push	 edi
  0000b	8b 7d 10	 mov	 edi, DWORD PTR __Newnode$[ebp]
  0000e	8b 03		 mov	 eax, DWORD PTR [ebx]
  00010	ff 43 04	 inc	 DWORD PTR [ebx+4]
  00013	89 45 fc	 mov	 DWORD PTR __Head$1$[ebp], eax
  00016	89 57 04	 mov	 DWORD PTR [edi+4], edx

; 673  :         if (_Loc._Parent == _Head) { // first node in tree, just set head values

  00019	3b d0		 cmp	 edx, eax
  0001b	75 16		 jne	 SHORT $LN5@Insert_nod

; 674  :             _Head->_Left     = _Newnode;

  0001d	89 38		 mov	 DWORD PTR [eax], edi

; 675  :             _Head->_Parent   = _Newnode;

  0001f	89 78 04	 mov	 DWORD PTR [eax+4], edi

; 676  :             _Head->_Right    = _Newnode;

  00022	89 78 08	 mov	 DWORD PTR [eax+8], edi

; 735  :         return _Newnode;
; 736  :     }

  00025	8b c7		 mov	 eax, edi
  00027	c6 47 0c 01	 mov	 BYTE PTR [edi+12], 1
  0002b	5f		 pop	 edi
  0002c	5b		 pop	 ebx
  0002d	8b e5		 mov	 esp, ebp
  0002f	5d		 pop	 ebp
  00030	c2 0c 00	 ret	 12			; 0000000cH
$LN5@Insert_nod:

; 677  :             _Newnode->_Color = _Black; // the root is black
; 678  :             return _Newnode;
; 679  :         }
; 680  : 
; 681  :         _STL_INTERNAL_CHECK(_Loc._Child != _Tree_child::_Unused);
; 682  :         if (_Loc._Child == _Tree_child::_Right) { // add to right of _Loc._Parent

  00033	83 7d 0c 00	 cmp	 DWORD PTR __Loc$[ebp+4], 0
  00037	75 0d		 jne	 SHORT $LN6@Insert_nod

; 683  :             _STL_INTERNAL_CHECK(_Loc._Parent->_Right->_Isnil);
; 684  :             _Loc._Parent->_Right = _Newnode;

  00039	89 7a 08	 mov	 DWORD PTR [edx+8], edi

; 685  :             if (_Loc._Parent == _Head->_Right) { // remember rightmost node

  0003c	3b 50 08	 cmp	 edx, DWORD PTR [eax+8]
  0003f	75 0d		 jne	 SHORT $LN9@Insert_nod

; 686  :                 _Head->_Right = _Newnode;

  00041	89 78 08	 mov	 DWORD PTR [eax+8], edi

; 687  :             }
; 688  :         } else { // add to left of _Loc._Parent

  00044	eb 08		 jmp	 SHORT $LN9@Insert_nod
$LN6@Insert_nod:

; 689  :             _STL_INTERNAL_CHECK(_Loc._Parent->_Left->_Isnil);
; 690  :             _Loc._Parent->_Left = _Newnode;

  00046	89 3a		 mov	 DWORD PTR [edx], edi

; 691  :             if (_Loc._Parent == _Head->_Left) { // remember leftmost node

  00048	3b 10		 cmp	 edx, DWORD PTR [eax]
  0004a	75 02		 jne	 SHORT $LN9@Insert_nod

; 692  :                 _Head->_Left = _Newnode;

  0004c	89 38		 mov	 DWORD PTR [eax], edi
$LN9@Insert_nod:

; 693  :             }
; 694  :         }
; 695  : 
; 696  :         for (_Nodeptr _Pnode = _Newnode; _Pnode->_Parent->_Color == _Red;) {

  0004e	8b 4f 04	 mov	 ecx, DWORD PTR [edi+4]
  00051	8b c7		 mov	 eax, edi
  00053	80 79 0c 00	 cmp	 BYTE PTR [ecx+12], 0
  00057	0f 85 7d 01 00
	00		 jne	 $LN3@Insert_nod
  0005d	56		 push	 esi
  0005e	66 90		 npad	 2
$LL4@Insert_nod:

; 697  :             if (_Pnode->_Parent == _Pnode->_Parent->_Parent->_Left) { // fixup red-red in left subtree

  00060	8b 50 04	 mov	 edx, DWORD PTR [eax+4]
  00063	8b 72 04	 mov	 esi, DWORD PTR [edx+4]
  00066	8b 0e		 mov	 ecx, DWORD PTR [esi]
  00068	3b d1		 cmp	 edx, ecx
  0006a	0f 85 aa 00 00
	00		 jne	 $LN10@Insert_nod

; 698  :                 const auto _Parent_sibling = _Pnode->_Parent->_Parent->_Right;

  00070	8b 4e 08	 mov	 ecx, DWORD PTR [esi+8]

; 699  :                 if (_Parent_sibling->_Color == _Red) { // parent's sibling has two red children, blacken both

  00073	80 79 0c 00	 cmp	 BYTE PTR [ecx+12], 0
  00077	0f 84 a3 00 00
	00		 je	 $LN82@Insert_nod

; 700  :                     _Pnode->_Parent->_Color          = _Black;
; 701  :                     _Parent_sibling->_Color          = _Black;
; 702  :                     _Pnode->_Parent->_Parent->_Color = _Red;
; 703  :                     _Pnode                           = _Pnode->_Parent->_Parent;
; 704  :                 } else { // parent's sibling has red and black children
; 705  :                     if (_Pnode == _Pnode->_Parent->_Right) { // rotate right child to left

  0007d	8b 72 08	 mov	 esi, DWORD PTR [edx+8]
  00080	3b c6		 cmp	 eax, esi
  00082	75 37		 jne	 SHORT $LN57@Insert_nod

; 485  :         _Wherenode->_Right = _Pnode->_Left;

  00084	8b 0e		 mov	 ecx, DWORD PTR [esi]

; 706  :                         _Pnode = _Pnode->_Parent;

  00086	8b c2		 mov	 eax, edx

; 485  :         _Wherenode->_Right = _Pnode->_Left;

  00088	89 4a 08	 mov	 DWORD PTR [edx+8], ecx

; 486  : 
; 487  :         if (!_Pnode->_Left->_Isnil) {

  0008b	8b 0e		 mov	 ecx, DWORD PTR [esi]
  0008d	80 79 0d 00	 cmp	 BYTE PTR [ecx+13], 0
  00091	75 03		 jne	 SHORT $LN21@Insert_nod

; 488  :             _Pnode->_Left->_Parent = _Wherenode;

  00093	89 41 04	 mov	 DWORD PTR [ecx+4], eax
$LN21@Insert_nod:

; 489  :         }
; 490  : 
; 491  :         _Pnode->_Parent = _Wherenode->_Parent;

  00096	8b 4a 04	 mov	 ecx, DWORD PTR [edx+4]
  00099	89 4e 04	 mov	 DWORD PTR [esi+4], ecx

; 492  : 
; 493  :         if (_Wherenode == _Myhead->_Parent) {

  0009c	8b 0b		 mov	 ecx, DWORD PTR [ebx]
  0009e	3b 41 04	 cmp	 eax, DWORD PTR [ecx+4]
  000a1	75 05		 jne	 SHORT $LN22@Insert_nod

; 494  :             _Myhead->_Parent = _Pnode;

  000a3	89 71 04	 mov	 DWORD PTR [ecx+4], esi
  000a6	eb 0e		 jmp	 SHORT $LN25@Insert_nod
$LN22@Insert_nod:

; 495  :         } else if (_Wherenode == _Wherenode->_Parent->_Left) {

  000a8	8b 4a 04	 mov	 ecx, DWORD PTR [edx+4]
  000ab	3b 01		 cmp	 eax, DWORD PTR [ecx]
  000ad	75 04		 jne	 SHORT $LN24@Insert_nod

; 496  :             _Wherenode->_Parent->_Left = _Pnode;

  000af	89 31		 mov	 DWORD PTR [ecx], esi

; 497  :         } else {

  000b1	eb 03		 jmp	 SHORT $LN25@Insert_nod
$LN24@Insert_nod:

; 498  :             _Wherenode->_Parent->_Right = _Pnode;

  000b3	89 71 08	 mov	 DWORD PTR [ecx+8], esi
$LN25@Insert_nod:

; 499  :         }
; 500  : 
; 501  :         _Pnode->_Left       = _Wherenode;

  000b6	89 06		 mov	 DWORD PTR [esi], eax

; 502  :         _Wherenode->_Parent = _Pnode;

  000b8	89 70 04	 mov	 DWORD PTR [eax+4], esi
$LN57@Insert_nod:

; 707  :                         _Lrotate(_Pnode);
; 708  :                     }
; 709  : 
; 710  :                     _Pnode->_Parent->_Color          = _Black; // propagate red up

  000bb	8b 48 04	 mov	 ecx, DWORD PTR [eax+4]
  000be	c6 41 0c 01	 mov	 BYTE PTR [ecx+12], 1

; 711  :                     _Pnode->_Parent->_Parent->_Color = _Red;

  000c2	8b 48 04	 mov	 ecx, DWORD PTR [eax+4]
  000c5	8b 49 04	 mov	 ecx, DWORD PTR [ecx+4]
  000c8	c6 41 0c 00	 mov	 BYTE PTR [ecx+12], 0

; 712  :                     _Rrotate(_Pnode->_Parent->_Parent);

  000cc	8b 48 04	 mov	 ecx, DWORD PTR [eax+4]
  000cf	8b 51 04	 mov	 edx, DWORD PTR [ecx+4]

; 506  :         _Nodeptr _Pnode   = _Wherenode->_Left;

  000d2	8b 32		 mov	 esi, DWORD PTR [edx]

; 507  :         _Wherenode->_Left = _Pnode->_Right;

  000d4	8b 4e 08	 mov	 ecx, DWORD PTR [esi+8]
  000d7	89 0a		 mov	 DWORD PTR [edx], ecx

; 508  : 
; 509  :         if (!_Pnode->_Right->_Isnil) {

  000d9	8b 4e 08	 mov	 ecx, DWORD PTR [esi+8]
  000dc	80 79 0d 00	 cmp	 BYTE PTR [ecx+13], 0
  000e0	75 03		 jne	 SHORT $LN29@Insert_nod

; 510  :             _Pnode->_Right->_Parent = _Wherenode;

  000e2	89 51 04	 mov	 DWORD PTR [ecx+4], edx
$LN29@Insert_nod:

; 511  :         }
; 512  : 
; 513  :         _Pnode->_Parent = _Wherenode->_Parent;

  000e5	8b 4a 04	 mov	 ecx, DWORD PTR [edx+4]
  000e8	89 4e 04	 mov	 DWORD PTR [esi+4], ecx

; 514  : 
; 515  :         if (_Wherenode == _Myhead->_Parent) {

  000eb	8b 0b		 mov	 ecx, DWORD PTR [ebx]
  000ed	3b 51 04	 cmp	 edx, DWORD PTR [ecx+4]
  000f0	75 0b		 jne	 SHORT $LN30@Insert_nod

; 516  :             _Myhead->_Parent = _Pnode;

  000f2	89 71 04	 mov	 DWORD PTR [ecx+4], esi

; 521  :         }
; 522  : 
; 523  :         _Pnode->_Right      = _Wherenode;

  000f5	89 56 08	 mov	 DWORD PTR [esi+8], edx

; 713  :                 }
; 714  :             } else { // fixup red-red in right subtree

  000f8	e9 cc 00 00 00	 jmp	 $LN81@Insert_nod
$LN30@Insert_nod:

; 517  :         } else if (_Wherenode == _Wherenode->_Parent->_Right) {

  000fd	8b 4a 04	 mov	 ecx, DWORD PTR [edx+4]
  00100	3b 51 08	 cmp	 edx, DWORD PTR [ecx+8]
  00103	75 0b		 jne	 SHORT $LN32@Insert_nod

; 518  :             _Wherenode->_Parent->_Right = _Pnode;

  00105	89 71 08	 mov	 DWORD PTR [ecx+8], esi

; 521  :         }
; 522  : 
; 523  :         _Pnode->_Right      = _Wherenode;

  00108	89 56 08	 mov	 DWORD PTR [esi+8], edx

; 713  :                 }
; 714  :             } else { // fixup red-red in right subtree

  0010b	e9 b9 00 00 00	 jmp	 $LN81@Insert_nod
$LN32@Insert_nod:

; 520  :             _Wherenode->_Parent->_Left = _Pnode;

  00110	89 31		 mov	 DWORD PTR [ecx], esi

; 521  :         }
; 522  : 
; 523  :         _Pnode->_Right      = _Wherenode;

  00112	89 56 08	 mov	 DWORD PTR [esi+8], edx

; 713  :                 }
; 714  :             } else { // fixup red-red in right subtree

  00115	e9 af 00 00 00	 jmp	 $LN81@Insert_nod
$LN10@Insert_nod:

; 715  :                 const auto _Parent_sibling = _Pnode->_Parent->_Parent->_Left;
; 716  :                 if (_Parent_sibling->_Color == _Red) { // parent's sibling has two red children, blacken both

  0011a	80 79 0c 00	 cmp	 BYTE PTR [ecx+12], 0
  0011e	75 1d		 jne	 SHORT $LN15@Insert_nod
$LN82@Insert_nod:

; 693  :             }
; 694  :         }
; 695  : 
; 696  :         for (_Nodeptr _Pnode = _Newnode; _Pnode->_Parent->_Color == _Red;) {

  00120	c6 42 0c 01	 mov	 BYTE PTR [edx+12], 1
  00124	c6 41 0c 01	 mov	 BYTE PTR [ecx+12], 1
  00128	8b 48 04	 mov	 ecx, DWORD PTR [eax+4]
  0012b	8b 49 04	 mov	 ecx, DWORD PTR [ecx+4]
  0012e	c6 41 0c 00	 mov	 BYTE PTR [ecx+12], 0
  00132	8b 48 04	 mov	 ecx, DWORD PTR [eax+4]
  00135	8b 41 04	 mov	 eax, DWORD PTR [ecx+4]
  00138	e9 8f 00 00 00	 jmp	 $LN2@Insert_nod
$LN15@Insert_nod:

; 717  :                     _Pnode->_Parent->_Color          = _Black;
; 718  :                     _Parent_sibling->_Color          = _Black;
; 719  :                     _Pnode->_Parent->_Parent->_Color = _Red;
; 720  :                     _Pnode                           = _Pnode->_Parent->_Parent;
; 721  :                 } else { // parent's sibling has red and black children
; 722  :                     if (_Pnode == _Pnode->_Parent->_Left) { // rotate left child to right

  0013d	8b 32		 mov	 esi, DWORD PTR [edx]
  0013f	3b c6		 cmp	 eax, esi
  00141	75 3a		 jne	 SHORT $LN42@Insert_nod

; 507  :         _Wherenode->_Left = _Pnode->_Right;

  00143	8b 4e 08	 mov	 ecx, DWORD PTR [esi+8]

; 723  :                         _Pnode = _Pnode->_Parent;

  00146	8b c2		 mov	 eax, edx

; 507  :         _Wherenode->_Left = _Pnode->_Right;

  00148	89 08		 mov	 DWORD PTR [eax], ecx

; 508  : 
; 509  :         if (!_Pnode->_Right->_Isnil) {

  0014a	8b 4e 08	 mov	 ecx, DWORD PTR [esi+8]
  0014d	80 79 0d 00	 cmp	 BYTE PTR [ecx+13], 0
  00151	75 03		 jne	 SHORT $LN37@Insert_nod

; 510  :             _Pnode->_Right->_Parent = _Wherenode;

  00153	89 41 04	 mov	 DWORD PTR [ecx+4], eax
$LN37@Insert_nod:

; 511  :         }
; 512  : 
; 513  :         _Pnode->_Parent = _Wherenode->_Parent;

  00156	8b 4a 04	 mov	 ecx, DWORD PTR [edx+4]
  00159	89 4e 04	 mov	 DWORD PTR [esi+4], ecx

; 514  : 
; 515  :         if (_Wherenode == _Myhead->_Parent) {

  0015c	8b 0b		 mov	 ecx, DWORD PTR [ebx]
  0015e	3b 41 04	 cmp	 eax, DWORD PTR [ecx+4]
  00161	75 05		 jne	 SHORT $LN38@Insert_nod

; 516  :             _Myhead->_Parent = _Pnode;

  00163	89 71 04	 mov	 DWORD PTR [ecx+4], esi
  00166	eb 0f		 jmp	 SHORT $LN41@Insert_nod
$LN38@Insert_nod:

; 517  :         } else if (_Wherenode == _Wherenode->_Parent->_Right) {

  00168	8b 4a 04	 mov	 ecx, DWORD PTR [edx+4]
  0016b	3b 41 08	 cmp	 eax, DWORD PTR [ecx+8]
  0016e	75 05		 jne	 SHORT $LN40@Insert_nod

; 518  :             _Wherenode->_Parent->_Right = _Pnode;

  00170	89 71 08	 mov	 DWORD PTR [ecx+8], esi

; 519  :         } else {

  00173	eb 02		 jmp	 SHORT $LN41@Insert_nod
$LN40@Insert_nod:

; 520  :             _Wherenode->_Parent->_Left = _Pnode;

  00175	89 31		 mov	 DWORD PTR [ecx], esi
$LN41@Insert_nod:

; 521  :         }
; 522  : 
; 523  :         _Pnode->_Right      = _Wherenode;

  00177	89 46 08	 mov	 DWORD PTR [esi+8], eax

; 524  :         _Wherenode->_Parent = _Pnode;

  0017a	89 70 04	 mov	 DWORD PTR [eax+4], esi
$LN42@Insert_nod:

; 724  :                         _Rrotate(_Pnode);
; 725  :                     }
; 726  : 
; 727  :                     _Pnode->_Parent->_Color          = _Black; // propagate red up

  0017d	8b 48 04	 mov	 ecx, DWORD PTR [eax+4]
  00180	c6 41 0c 01	 mov	 BYTE PTR [ecx+12], 1

; 728  :                     _Pnode->_Parent->_Parent->_Color = _Red;

  00184	8b 48 04	 mov	 ecx, DWORD PTR [eax+4]
  00187	8b 49 04	 mov	 ecx, DWORD PTR [ecx+4]
  0018a	c6 41 0c 00	 mov	 BYTE PTR [ecx+12], 0

; 729  :                     _Lrotate(_Pnode->_Parent->_Parent);

  0018e	8b 48 04	 mov	 ecx, DWORD PTR [eax+4]
  00191	8b 51 04	 mov	 edx, DWORD PTR [ecx+4]

; 484  :         _Nodeptr _Pnode    = _Wherenode->_Right;

  00194	8b 72 08	 mov	 esi, DWORD PTR [edx+8]

; 485  :         _Wherenode->_Right = _Pnode->_Left;

  00197	8b 0e		 mov	 ecx, DWORD PTR [esi]
  00199	89 4a 08	 mov	 DWORD PTR [edx+8], ecx

; 486  : 
; 487  :         if (!_Pnode->_Left->_Isnil) {

  0019c	8b 0e		 mov	 ecx, DWORD PTR [esi]
  0019e	80 79 0d 00	 cmp	 BYTE PTR [ecx+13], 0
  001a2	75 03		 jne	 SHORT $LN45@Insert_nod

; 488  :             _Pnode->_Left->_Parent = _Wherenode;

  001a4	89 51 04	 mov	 DWORD PTR [ecx+4], edx
$LN45@Insert_nod:

; 489  :         }
; 490  : 
; 491  :         _Pnode->_Parent = _Wherenode->_Parent;

  001a7	8b 4a 04	 mov	 ecx, DWORD PTR [edx+4]
  001aa	89 4e 04	 mov	 DWORD PTR [esi+4], ecx

; 492  : 
; 493  :         if (_Wherenode == _Myhead->_Parent) {

  001ad	8b 0b		 mov	 ecx, DWORD PTR [ebx]
  001af	3b 51 04	 cmp	 edx, DWORD PTR [ecx+4]
  001b2	75 05		 jne	 SHORT $LN46@Insert_nod

; 494  :             _Myhead->_Parent = _Pnode;

  001b4	89 71 04	 mov	 DWORD PTR [ecx+4], esi
  001b7	eb 0e		 jmp	 SHORT $LN49@Insert_nod
$LN46@Insert_nod:

; 495  :         } else if (_Wherenode == _Wherenode->_Parent->_Left) {

  001b9	8b 4a 04	 mov	 ecx, DWORD PTR [edx+4]
  001bc	3b 11		 cmp	 edx, DWORD PTR [ecx]
  001be	75 04		 jne	 SHORT $LN48@Insert_nod

; 496  :             _Wherenode->_Parent->_Left = _Pnode;

  001c0	89 31		 mov	 DWORD PTR [ecx], esi

; 497  :         } else {

  001c2	eb 03		 jmp	 SHORT $LN49@Insert_nod
$LN48@Insert_nod:

; 498  :             _Wherenode->_Parent->_Right = _Pnode;

  001c4	89 71 08	 mov	 DWORD PTR [ecx+8], esi
$LN49@Insert_nod:

; 499  :         }
; 500  : 
; 501  :         _Pnode->_Left       = _Wherenode;

  001c7	89 16		 mov	 DWORD PTR [esi], edx
$LN81@Insert_nod:

; 693  :             }
; 694  :         }
; 695  : 
; 696  :         for (_Nodeptr _Pnode = _Newnode; _Pnode->_Parent->_Color == _Red;) {

  001c9	89 72 04	 mov	 DWORD PTR [edx+4], esi
$LN2@Insert_nod:
  001cc	8b 48 04	 mov	 ecx, DWORD PTR [eax+4]
  001cf	80 79 0c 00	 cmp	 BYTE PTR [ecx+12], 0
  001d3	0f 84 87 fe ff
	ff		 je	 $LL4@Insert_nod
  001d9	5e		 pop	 esi
$LN3@Insert_nod:

; 730  :                 }
; 731  :             }
; 732  :         }
; 733  : 
; 734  :         _Head->_Parent->_Color = _Black; // root is always black

  001da	8b 45 fc	 mov	 eax, DWORD PTR __Head$1$[ebp]
  001dd	8b 40 04	 mov	 eax, DWORD PTR [eax+4]
  001e0	c6 40 0c 01	 mov	 BYTE PTR [eax+12], 1

; 735  :         return _Newnode;
; 736  :     }

  001e4	8b c7		 mov	 eax, edi
  001e6	5f		 pop	 edi
  001e7	5b		 pop	 ebx
  001e8	8b e5		 mov	 esp, ebp
  001ea	5d		 pop	 ebp
  001eb	c2 0c 00	 ret	 12			; 0000000cH
?_Insert_node@?$_Tree_val@U?$_Tree_simple_types@U?$pair@$$CBKPAVCMailBox@@@std@@@std@@@std@@QAEPAU?$_Tree_node@U?$pair@$$CBKPAVCMailBox@@@std@@PAX@2@U?$_Tree_id@PAU?$_Tree_node@U?$pair@$$CBKPAVCMailBox@@@std@@PAX@std@@@2@QAU32@@Z ENDP ; std::_Tree_val<std::_Tree_simple_types<std::pair<unsigned long const ,CMailBox *> > >::_Insert_node
_TEXT	ENDS
; Function compile flags: /Ogtp
; File C:\Program Files\Microsoft Visual Studio\2022\Professional\VC\Tools\MSVC\14.44.35207\include\xtree
; File C:\Program Files\Microsoft Visual Studio\2022\Professional\VC\Tools\MSVC\14.44.35207\include\utility
; File C:\Program Files\Microsoft Visual Studio\2022\Professional\VC\Tools\MSVC\14.44.35207\include\xmemory
; File C:\Program Files\Microsoft Visual Studio\2022\Professional\VC\Tools\MSVC\14.44.35207\include\xtree
; File C:\Program Files\Microsoft Visual Studio\2022\Professional\VC\Tools\MSVC\14.44.35207\include\xmemory
; File C:\Program Files\Microsoft Visual Studio\2022\Professional\VC\Tools\MSVC\14.44.35207\include\xtree
;	COMDAT ??1?$_Tree@V?$_Tmap_traits@KPAVCMailBox@@U?$less@K@std@@V?$allocator@U?$pair@$$CBKPAVCMailBox@@@std@@@3@$0A@@std@@@std@@QAE@XZ
_TEXT	SEGMENT
??1?$_Tree@V?$_Tmap_traits@KPAVCMailBox@@U?$less@K@std@@V?$allocator@U?$pair@$$CBKPAVCMailBox@@@std@@@3@$0A@@std@@@std@@QAE@XZ PROC ; std::_Tree<std::_Tmap_traits<unsigned long,CMailBox *,std::less<unsigned long>,std::allocator<std::pair<unsigned long const ,CMailBox *> >,0> >::~_Tree<std::_Tmap_traits<unsigned long,CMailBox *,std::less<unsigned long>,std::allocator<std::pair<unsigned long const ,CMailBox *> >,0> >, COMDAT
; _this$ = ecx

; 1095 :     ~_Tree() noexcept {

  00000	56		 push	 esi
  00001	57		 push	 edi
  00002	8b f9		 mov	 edi, ecx

; 777  :         _Erase_tree(_Al, _Myhead->_Parent);

  00004	8b 37		 mov	 esi, DWORD PTR [edi]
  00006	8b 76 04	 mov	 esi, DWORD PTR [esi+4]

; 768  :         while (!_Rootnode->_Isnil) { // free subtrees, then node

  00009	80 7e 0d 00	 cmp	 BYTE PTR [esi+13], 0
  0000d	75 21		 jne	 SHORT $LN61@Tree
  0000f	90		 npad	 1
$LL8@Tree:

; 769  :             _Erase_tree(_Al, _Rootnode->_Right);

  00010	ff 76 08	 push	 DWORD PTR [esi+8]
  00013	8b cf		 mov	 ecx, edi
  00015	57		 push	 edi
  00016	e8 00 00 00 00	 call	 ??$_Erase_tree@V?$allocator@U?$_Tree_node@U?$pair@$$CBKPAVCMailBox@@@std@@PAX@std@@@std@@@?$_Tree_val@U?$_Tree_simple_types@U?$pair@$$CBKPAVCMailBox@@@std@@@std@@@std@@QAEXAAV?$allocator@U?$_Tree_node@U?$pair@$$CBKPAVCMailBox@@@std@@PAX@std@@@1@PAU?$_Tree_node@U?$pair@$$CBKPAVCMailBox@@@std@@PAX@1@@Z ; std::_Tree_val<std::_Tree_simple_types<std::pair<unsigned long const ,CMailBox *> > >::_Erase_tree<std::allocator<std::_Tree_node<std::pair<unsigned long const ,CMailBox *>,void *> > >
; File C:\Program Files\Microsoft Visual Studio\2022\Professional\VC\Tools\MSVC\14.44.35207\include\utility

; 773  :     _Ty _Old_val = static_cast<_Ty&&>(_Val);

  0001b	8b c6		 mov	 eax, esi

; 774  :     _Val         = static_cast<_Other&&>(_New_val);

  0001d	8b 36		 mov	 esi, DWORD PTR [esi]
; File C:\Program Files\Microsoft Visual Studio\2022\Professional\VC\Tools\MSVC\14.44.35207\include\xmemory

; 289  :         ::operator delete(_Ptr, _Bytes);

  0001f	6a 18		 push	 24			; 00000018H
  00021	50		 push	 eax
  00022	e8 00 00 00 00	 call	 ??3@YAXPAXI@Z		; operator delete
  00027	83 c4 08	 add	 esp, 8
; File C:\Program Files\Microsoft Visual Studio\2022\Professional\VC\Tools\MSVC\14.44.35207\include\xtree

; 768  :         while (!_Rootnode->_Isnil) { // free subtrees, then node

  0002a	80 7e 0d 00	 cmp	 BYTE PTR [esi+13], 0
  0002e	74 e0		 je	 SHORT $LL8@Tree
$LN61@Tree:
; File C:\Program Files\Microsoft Visual Studio\2022\Professional\VC\Tools\MSVC\14.44.35207\include\xmemory

; 289  :         ::operator delete(_Ptr, _Bytes);

  00030	6a 18		 push	 24			; 00000018H
  00032	ff 37		 push	 DWORD PTR [edi]
  00034	e8 00 00 00 00	 call	 ??3@YAXPAXI@Z		; operator delete
  00039	83 c4 08	 add	 esp, 8
  0003c	5f		 pop	 edi
  0003d	5e		 pop	 esi
; File C:\Program Files\Microsoft Visual Studio\2022\Professional\VC\Tools\MSVC\14.44.35207\include\xtree

; 1102 :     }

  0003e	c3		 ret	 0
??1?$_Tree@V?$_Tmap_traits@KPAVCMailBox@@U?$less@K@std@@V?$allocator@U?$pair@$$CBKPAVCMailBox@@@std@@@3@$0A@@std@@@std@@QAE@XZ ENDP ; std::_Tree<std::_Tmap_traits<unsigned long,CMailBox *,std::less<unsigned long>,std::allocator<std::pair<unsigned long const ,CMailBox *> >,0> >::~_Tree<std::_Tmap_traits<unsigned long,CMailBox *,std::less<unsigned long>,std::allocator<std::pair<unsigned long const ,CMailBox *> >,0> >
_TEXT	ENDS
; Function compile flags: /Ogtp
; File C:\IAGOS\server\v18\Source\Source\_Common\post.cpp
;	COMDAT ?GetInstance@CPost@@SAPAV1@XZ
_TEXT	SEGMENT
__$EHRec$ = -12						; size = 12
?GetInstance@CPost@@SAPAV1@XZ PROC			; CPost::GetInstance, COMDAT

; 544  : {

  00000	55		 push	 ebp
  00001	8b ec		 mov	 ebp, esp
  00003	6a ff		 push	 -1
  00005	68 00 00 00 00	 push	 __ehhandler$?GetInstance@CPost@@SAPAV1@XZ
  0000a	64 a1 00 00 00
	00		 mov	 eax, DWORD PTR fs:0
  00010	50		 push	 eax
  00011	a1 00 00 00 00	 mov	 eax, DWORD PTR ___security_cookie
  00016	33 c5		 xor	 eax, ebp
  00018	50		 push	 eax
  00019	8d 45 f4	 lea	 eax, DWORD PTR __$EHRec$[ebp]
  0001c	64 a3 00 00 00
	00		 mov	 DWORD PTR fs:0, eax

; 545  : 	static CPost	sPost;

  00022	64 a1 00 00 00
	00		 mov	 eax, DWORD PTR fs:__tls_array
  00028	8b 0d 00 00 00
	00		 mov	 ecx, DWORD PTR __tls_index
  0002e	8b 0c 88	 mov	 ecx, DWORD PTR [eax+ecx*4]
  00031	a1 00 00 00 00	 mov	 eax, DWORD PTR ?$TSS0@?1??GetInstance@CPost@@SAPAV2@XZ@4HA
  00036	3b 81 00 00 00
	00		 cmp	 eax, DWORD PTR __Init_thread_epoch[ecx]
  0003c	7f 14		 jg	 SHORT $LN9@GetInstanc
$LN5@GetInstanc:

; 546  : 	return &sPost;
; 547  : }

  0003e	b8 00 00 00 00	 mov	 eax, OFFSET ?sPost@?1??GetInstance@CPost@@SAPAV2@XZ@4V2@A
  00043	8b 4d f4	 mov	 ecx, DWORD PTR __$EHRec$[ebp]
  00046	64 89 0d 00 00
	00 00		 mov	 DWORD PTR fs:0, ecx
  0004d	59		 pop	 ecx
  0004e	8b e5		 mov	 esp, ebp
  00050	5d		 pop	 ebp
  00051	c3		 ret	 0
$LN9@GetInstanc:

; 545  : 	static CPost	sPost;

  00052	68 00 00 00 00	 push	 OFFSET ?$TSS0@?1??GetInstance@CPost@@SAPAV2@XZ@4HA
  00057	e8 00 00 00 00	 call	 __Init_thread_header
  0005c	83 c4 04	 add	 esp, 4
  0005f	83 3d 00 00 00
	00 ff		 cmp	 DWORD PTR ?$TSS0@?1??GetInstance@CPost@@SAPAV2@XZ@4HA, -1
  00066	75 d6		 jne	 SHORT $LN5@GetInstanc
  00068	b9 00 00 00 00	 mov	 ecx, OFFSET ?sPost@?1??GetInstance@CPost@@SAPAV2@XZ@4V2@A
  0006d	c7 45 fc 00 00
	00 00		 mov	 DWORD PTR __$EHRec$[ebp+8], 0
  00074	e8 00 00 00 00	 call	 ??0CPost@@QAE@XZ	; CPost::CPost
  00079	68 00 00 00 00	 push	 OFFSET ??__FsPost@?1??GetInstance@CPost@@SAPAV1@XZ@YAXXZ ; `CPost::GetInstance'::`2'::`dynamic atexit destructor for 'sPost''
  0007e	e8 00 00 00 00	 call	 _atexit
  00083	68 00 00 00 00	 push	 OFFSET ?$TSS0@?1??GetInstance@CPost@@SAPAV2@XZ@4HA
  00088	e8 00 00 00 00	 call	 __Init_thread_footer
  0008d	83 c4 08	 add	 esp, 8
  00090	eb ac		 jmp	 SHORT $LN5@GetInstanc
_TEXT	ENDS
;	COMDAT text$x
text$x	SEGMENT
__unwindfunclet$?GetInstance@CPost@@SAPAV1@XZ$0:
  00000	68 00 00 00 00	 push	 OFFSET ?$TSS0@?1??GetInstance@CPost@@SAPAV2@XZ@4HA
  00005	e8 00 00 00 00	 call	 __Init_thread_abort
  0000a	59		 pop	 ecx
  0000b	c3		 ret	 0
  0000c	cc		 int	 3
  0000d	cc		 int	 3
  0000e	cc		 int	 3
  0000f	cc		 int	 3
  00010	cc		 int	 3
__ehhandler$?GetInstance@CPost@@SAPAV1@XZ:
  00011	90		 npad	 1
  00012	90		 npad	 1
  00013	8b 54 24 08	 mov	 edx, DWORD PTR [esp+8]
  00017	8d 42 0c	 lea	 eax, DWORD PTR [edx+12]
  0001a	8b 4a fc	 mov	 ecx, DWORD PTR [edx-4]
  0001d	33 c8		 xor	 ecx, eax
  0001f	e8 00 00 00 00	 call	 @__security_check_cookie@4
  00024	b8 00 00 00 00	 mov	 eax, OFFSET __ehfuncinfo$?GetInstance@CPost@@SAPAV1@XZ
  00029	e9 00 00 00 00	 jmp	 ___CxxFrameHandler3
text$x	ENDS
?GetInstance@CPost@@SAPAV1@XZ ENDP			; CPost::GetInstance
; Function compile flags: /Ogtp
; File C:\IAGOS\server\v18\Source\Source\_Common\post.cpp
; File C:\IAGOS\server\v18\Source\Source\_Network\Misc\Include\ar.h
; File C:\IAGOS\server\v18\Source\Source\_Common\post.cpp
; File C:\IAGOS\server\v18\Source\Source\_Network\Misc\Include\ar.h
; File C:\IAGOS\server\v18\Source\Source\_Common\post.cpp
; File C:\Program Files\Microsoft Visual Studio\2022\Professional\VC\Tools\MSVC\14.44.35207\include\xtree
; File C:\IAGOS\server\v18\Source\Source\_Common\post.cpp
; File C:\Program Files\Microsoft Visual Studio\2022\Professional\VC\Tools\MSVC\14.44.35207\include\xtree
; File C:\IAGOS\server\v18\Source\Source\_Common\post.cpp
;	COMDAT ?Serialize@CPost@@QAEXAAVCAr@@H@Z
_TEXT	SEGMENT
_this$1$ = -8						; size = 4
_nSize$1 = -4						; size = 4
_ar$ = 8						; size = 4
$T2 = 8							; size = 4
_bData$ = 12						; size = 4
$T3 = 12						; size = 4
?Serialize@CPost@@QAEXAAVCAr@@H@Z PROC			; CPost::Serialize, COMDAT
; _this$ = ecx

; 520  : {

  00000	55		 push	 ebp
  00001	8b ec		 mov	 ebp, esp
  00003	83 ec 08	 sub	 esp, 8
  00006	53		 push	 ebx
; File C:\IAGOS\server\v18\Source\Source\_Network\Misc\Include\ar.h

; 146  : 	return (m_nMode & CAr::load) == 0;

  00007	8b 5d 08	 mov	 ebx, DWORD PTR _ar$[ebp]
; File C:\IAGOS\server\v18\Source\Source\_Common\post.cpp

; 520  : {

  0000a	56		 push	 esi
  0000b	57		 push	 edi
  0000c	8b f9		 mov	 edi, ecx

; 521  : 	if( ar.IsStoring() )

  0000e	8b cb		 mov	 ecx, ebx
; File C:\IAGOS\server\v18\Source\Source\_Network\Misc\Include\ar.h

; 146  : 	return (m_nMode & CAr::load) == 0;

  00010	f6 03 01	 test	 BYTE PTR [ebx], 1
; File C:\IAGOS\server\v18\Source\Source\_Common\post.cpp

; 520  : {

  00013	89 7d f8	 mov	 DWORD PTR _this$1$[ebp], edi

; 521  : 	if( ar.IsStoring() )

  00016	75 72		 jne	 SHORT $LN8@Serialize

; 522  : 	{
; 523  : 		ar << m_mapMailBox.size();

  00018	8b 47 08	 mov	 eax, DWORD PTR [edi+8]
  0001b	89 45 08	 mov	 DWORD PTR $T2[ebp], eax
  0001e	8d 45 08	 lea	 eax, DWORD PTR $T2[ebp]
  00021	50		 push	 eax
  00022	e8 00 00 00 00	 call	 ??$?6I@CAr@@QAEAAV0@ABI@Z ; CAr::operator<<<unsigned int>
; File C:\Program Files\Microsoft Visual Studio\2022\Professional\VC\Tools\MSVC\14.44.35207\include\xtree

; 1142 :         return iterator(_Scary->_Myhead->_Left, _Scary);

  00027	8b 47 04	 mov	 eax, DWORD PTR [edi+4]

; 37   :     _Tree_unchecked_const_iterator(_Nodeptr _Pnode, const _Mytree* _Plist) noexcept : _Ptr(_Pnode) {

  0002a	8b 30		 mov	 esi, DWORD PTR [eax]

; 237  :         return !(*this == _Right);

  0002c	3b f0		 cmp	 esi, eax
; File C:\IAGOS\server\v18\Source\Source\_Common\post.cpp

; 524  : 		for( map<u_long, CMailBox*>::iterator i = m_mapMailBox.begin(); i != m_mapMailBox.end(); ++i )

  0002e	0f 84 a3 00 00
	00		 je	 $LN6@Serialize
$LL4@Serialize:

; 525  : 		{
; 526  : 			CMailBox* pMailBox	= i->second;
; 527  : 			pMailBox->Serialize( ar, bData );

  00034	ff 75 0c	 push	 DWORD PTR _bData$[ebp]
  00037	8b 4e 14	 mov	 ecx, DWORD PTR [esi+20]
  0003a	53		 push	 ebx
  0003b	e8 00 00 00 00	 call	 ?Serialize@CMailBox@@QAEXAAVCAr@@H@Z ; CMailBox::Serialize
; File C:\Program Files\Microsoft Visual Studio\2022\Professional\VC\Tools\MSVC\14.44.35207\include\xtree

; 50   :         if (_Ptr->_Right->_Isnil) { // climb looking for right subtree

  00040	8b 46 08	 mov	 eax, DWORD PTR [esi+8]
  00043	80 78 0d 00	 cmp	 BYTE PTR [eax+13], 0
  00047	74 1d		 je	 SHORT $LN37@Serialize

; 51   :             _Nodeptr _Pnode;
; 52   :             while (!(_Pnode = _Ptr->_Parent)->_Isnil && _Ptr == _Pnode->_Right) {

  00049	8b 46 04	 mov	 eax, DWORD PTR [esi+4]
  0004c	80 78 0d 00	 cmp	 BYTE PTR [eax+13], 0
  00050	75 10		 jne	 SHORT $LN89@Serialize
$LL35@Serialize:
  00052	3b 70 08	 cmp	 esi, DWORD PTR [eax+8]
  00055	75 0b		 jne	 SHORT $LN89@Serialize

; 53   :                 _Ptr = _Pnode; // ==> parent while right subtree

  00057	8b f0		 mov	 esi, eax
  00059	8b 40 04	 mov	 eax, DWORD PTR [eax+4]
  0005c	80 78 0d 00	 cmp	 BYTE PTR [eax+13], 0
  00060	74 f0		 je	 SHORT $LL35@Serialize
$LN89@Serialize:

; 54   :             }
; 55   : 
; 56   :             _Ptr = _Pnode; // ==> parent (head if end())

  00062	8b f0		 mov	 esi, eax

; 57   :         } else {

  00064	eb 16		 jmp	 SHORT $LN43@Serialize
$LN37@Serialize:

; 58   :             _Ptr = _Mytree::_Min(_Ptr->_Right); // ==> smallest of right subtree

  00066	8b f0		 mov	 esi, eax

; 476  :         while (!_Pnode->_Left->_Isnil) {

  00068	8b 0e		 mov	 ecx, DWORD PTR [esi]
  0006a	80 79 0d 00	 cmp	 BYTE PTR [ecx+13], 0
  0006e	75 0c		 jne	 SHORT $LN43@Serialize
$LL42@Serialize:
  00070	8b 01		 mov	 eax, DWORD PTR [ecx]

; 477  :             _Pnode = _Pnode->_Left;

  00072	8b f1		 mov	 esi, ecx
  00074	8b c8		 mov	 ecx, eax
  00076	80 78 0d 00	 cmp	 BYTE PTR [eax+13], 0
  0007a	74 f4		 je	 SHORT $LL42@Serialize
$LN43@Serialize:

; 237  :         return !(*this == _Right);

  0007c	3b 77 04	 cmp	 esi, DWORD PTR [edi+4]
; File C:\IAGOS\server\v18\Source\Source\_Common\post.cpp

; 524  : 		for( map<u_long, CMailBox*>::iterator i = m_mapMailBox.begin(); i != m_mapMailBox.end(); ++i )

  0007f	75 b3		 jne	 SHORT $LL4@Serialize

; 539  : 		}
; 540  : 	}
; 541  : }

  00081	5f		 pop	 edi
  00082	5e		 pop	 esi
  00083	5b		 pop	 ebx
  00084	8b e5		 mov	 esp, ebp
  00086	5d		 pop	 ebp
  00087	c2 08 00	 ret	 8
$LN8@Serialize:

; 528  : 		}
; 529  : 	}
; 530  : 	else
; 531  : 	{
; 532  : 		int nSize;
; 533  : 		ar >> nSize;

  0008a	8d 45 fc	 lea	 eax, DWORD PTR _nSize$1[ebp]
  0008d	50		 push	 eax
  0008e	e8 00 00 00 00	 call	 ??$?5H@CAr@@QAEAAV0@AAH@Z ; CAr::operator>><int>

; 534  : 		for( int i = 0; i < nSize; i++ )

  00093	8b 7d fc	 mov	 edi, DWORD PTR _nSize$1[ebp]
  00096	85 ff		 test	 edi, edi
  00098	7e 3d		 jle	 SHORT $LN6@Serialize

; 528  : 		}
; 529  : 	}
; 530  : 	else
; 531  : 	{
; 532  : 		int nSize;
; 533  : 		ar >> nSize;

  0009a	8b 5d 0c	 mov	 ebx, DWORD PTR _bData$[ebp]
  0009d	0f 1f 00	 npad	 3
$LL7@Serialize:

; 535  : 		{
; 536  : 			CMailBox* pMailBox	= new CMailBox;

  000a0	6a 18		 push	 24			; 00000018H
  000a2	e8 00 00 00 00	 call	 ??2@YAPAXI@Z		; operator new
  000a7	83 c4 04	 add	 esp, 4
  000aa	89 45 0c	 mov	 DWORD PTR $T3[ebp], eax
  000ad	85 c0		 test	 eax, eax
  000af	74 0b		 je	 SHORT $LN11@Serialize
  000b1	8b c8		 mov	 ecx, eax
  000b3	e8 00 00 00 00	 call	 ??0CMailBox@@QAE@XZ	; CMailBox::CMailBox
  000b8	8b f0		 mov	 esi, eax
  000ba	eb 02		 jmp	 SHORT $LN12@Serialize
$LN11@Serialize:
  000bc	33 f6		 xor	 esi, esi
$LN12@Serialize:

; 537  : 			pMailBox->Serialize( ar, bData );

  000be	53		 push	 ebx
  000bf	ff 75 08	 push	 DWORD PTR _ar$[ebp]
  000c2	8b ce		 mov	 ecx, esi
  000c4	e8 00 00 00 00	 call	 ?Serialize@CMailBox@@QAEXAAVCAr@@H@Z ; CMailBox::Serialize

; 538  : 			AddMailBox( pMailBox );

  000c9	8b 4d f8	 mov	 ecx, DWORD PTR _this$1$[ebp]
  000cc	56		 push	 esi
  000cd	e8 00 00 00 00	 call	 ?AddMailBox@CPost@@QAEHPAVCMailBox@@@Z ; CPost::AddMailBox
  000d2	83 ef 01	 sub	 edi, 1
  000d5	75 c9		 jne	 SHORT $LL7@Serialize
$LN6@Serialize:
  000d7	5f		 pop	 edi

; 539  : 		}
; 540  : 	}
; 541  : }

  000d8	5e		 pop	 esi
  000d9	5b		 pop	 ebx
  000da	8b e5		 mov	 esp, ebp
  000dc	5d		 pop	 ebp
  000dd	c2 08 00	 ret	 8
?Serialize@CPost@@QAEXAAVCAr@@H@Z ENDP			; CPost::Serialize
_TEXT	ENDS
; Function compile flags: /Ogtp
; File C:\IAGOS\server\v18\Source\Source\_Common\post.cpp
; File C:\Program Files\Microsoft Visual Studio\2022\Professional\VC\Tools\MSVC\14.44.35207\include\utility
; File C:\IAGOS\server\v18\Source\Source\_Common\post.cpp
; File C:\Program Files\Microsoft Visual Studio\2022\Professional\VC\Tools\MSVC\14.44.35207\include\utility
; File C:\Program Files\Microsoft Visual Studio\2022\Professional\VC\Tools\MSVC\14.44.35207\include\xtree
; File C:\Program Files\Microsoft Visual Studio\2022\Professional\VC\Tools\MSVC\14.44.35207\include\utility
; File C:\Program Files\Microsoft Visual Studio\2022\Professional\VC\Tools\MSVC\14.44.35207\include\xtree
; File C:\Program Files\Microsoft Visual Studio\2022\Professional\VC\Tools\MSVC\14.44.35207\include\utility
; File C:\Program Files\Microsoft Visual Studio\2022\Professional\VC\Tools\MSVC\14.44.35207\include\xtree
; File C:\Program Files\Microsoft Visual Studio\2022\Professional\VC\Tools\MSVC\14.44.35207\include\type_traits
; File C:\Program Files\Microsoft Visual Studio\2022\Professional\VC\Tools\MSVC\14.44.35207\include\xtree
; File C:\Program Files\Microsoft Visual Studio\2022\Professional\VC\Tools\MSVC\14.44.35207\include\utility
; File C:\IAGOS\server\v18\Source\Source\_Common\post.cpp
; File C:\Program Files\Microsoft Visual Studio\2022\Professional\VC\Tools\MSVC\14.44.35207\include\xtree
; File C:\Program Files\Microsoft Visual Studio\2022\Professional\VC\Tools\MSVC\14.44.35207\include\xmemory
; File C:\Program Files\Microsoft Visual Studio\2022\Professional\VC\Tools\MSVC\14.44.35207\include\xtree
; File C:\Program Files\Microsoft Visual Studio\2022\Professional\VC\Tools\MSVC\14.44.35207\include\xmemory
; File C:\Program Files\Microsoft Visual Studio\2022\Professional\VC\Tools\MSVC\14.44.35207\include\xtree
; File C:\Program Files\Microsoft Visual Studio\2022\Professional\VC\Tools\MSVC\14.44.35207\include\xmemory
; File C:\Program Files\Microsoft Visual Studio\2022\Professional\VC\Tools\MSVC\14.44.35207\include\xtree
; File C:\Program Files\Microsoft Visual Studio\2022\Professional\VC\Tools\MSVC\14.44.35207\include\utility
; File C:\IAGOS\server\v18\Source\Source\_Common\post.cpp
; File C:\Program Files\Microsoft Visual Studio\2022\Professional\VC\Tools\MSVC\14.44.35207\include\xtree
; File C:\IAGOS\server\v18\Source\Source\_Common\post.cpp
;	COMDAT ?AddMailBox@CPost@@QAEHPAVCMailBox@@@Z
_TEXT	SEGMENT
$T3 = -44						; size = 12
__Loc$4 = -32						; size = 12
$T5 = -20						; size = 8
$T6 = -20						; size = 8
__$EHRec$ = -12						; size = 12
_pMailBox$ = 8						; size = 4
?AddMailBox@CPost@@QAEHPAVCMailBox@@@Z PROC		; CPost::AddMailBox, COMDAT
; _this$ = ecx

; 512  : {

  00000	55		 push	 ebp
  00001	8b ec		 mov	 ebp, esp
  00003	6a ff		 push	 -1
  00005	68 00 00 00 00	 push	 __ehhandler$?AddMailBox@CPost@@QAEHPAVCMailBox@@@Z
  0000a	64 a1 00 00 00
	00		 mov	 eax, DWORD PTR fs:0
  00010	50		 push	 eax
  00011	83 ec 20	 sub	 esp, 32			; 00000020H
  00014	53		 push	 ebx
  00015	56		 push	 esi
  00016	57		 push	 edi
  00017	a1 00 00 00 00	 mov	 eax, DWORD PTR ___security_cookie
  0001c	33 c5		 xor	 eax, ebp
  0001e	50		 push	 eax
  0001f	8d 45 f4	 lea	 eax, DWORD PTR __$EHRec$[ebp]
  00022	64 a3 00 00 00
	00		 mov	 DWORD PTR fs:0, eax
; File C:\Program Files\Microsoft Visual Studio\2022\Professional\VC\Tools\MSVC\14.44.35207\include\utility

; 274  :         : first(_STD forward<_Other1>(_Val1)), second(_STD forward<_Other2>(_Val2)) {

  00028	8b 45 08	 mov	 eax, DWORD PTR _pMailBox$[ebp]
; File C:\IAGOS\server\v18\Source\Source\_Common\post.cpp

; 516  : 	return m_mapMailBox.insert( map<u_long, CMailBox*>::value_type( pMailBox->m_idReceiver, pMailBox ) ).second;

  0002b	8d 79 04	 lea	 edi, DWORD PTR [ecx+4]
; File C:\Program Files\Microsoft Visual Studio\2022\Professional\VC\Tools\MSVC\14.44.35207\include\utility

; 274  :         : first(_STD forward<_Other1>(_Val1)), second(_STD forward<_Other2>(_Val2)) {

  0002e	89 45 f0	 mov	 DWORD PTR $T5[ebp+4], eax
; File C:\Program Files\Microsoft Visual Studio\2022\Professional\VC\Tools\MSVC\14.44.35207\include\xtree

; 1017 :             _Loc                = _Find_lower_bound(_Keyval);

  00031	8b cf		 mov	 ecx, edi
; File C:\Program Files\Microsoft Visual Studio\2022\Professional\VC\Tools\MSVC\14.44.35207\include\utility

; 274  :         : first(_STD forward<_Other1>(_Val1)), second(_STD forward<_Other2>(_Val2)) {

  00033	8b 58 10	 mov	 ebx, DWORD PTR [eax+16]
; File C:\Program Files\Microsoft Visual Studio\2022\Professional\VC\Tools\MSVC\14.44.35207\include\xtree

; 1017 :             _Loc                = _Find_lower_bound(_Keyval);

  00036	8d 45 ec	 lea	 eax, DWORD PTR $T5[ebp]
  00039	50		 push	 eax
  0003a	8d 45 d4	 lea	 eax, DWORD PTR $T3[ebp]
; File C:\Program Files\Microsoft Visual Studio\2022\Professional\VC\Tools\MSVC\14.44.35207\include\utility

; 274  :         : first(_STD forward<_Other1>(_Val1)), second(_STD forward<_Other2>(_Val2)) {

  0003d	89 5d ec	 mov	 DWORD PTR $T5[ebp], ebx
; File C:\Program Files\Microsoft Visual Studio\2022\Professional\VC\Tools\MSVC\14.44.35207\include\xtree

; 1017 :             _Loc                = _Find_lower_bound(_Keyval);

  00040	50		 push	 eax
  00041	e8 00 00 00 00	 call	 ??$_Find_lower_bound@K@?$_Tree@V?$_Tmap_traits@KPAVCMailBox@@U?$less@K@std@@V?$allocator@U?$pair@$$CBKPAVCMailBox@@@std@@@3@$0A@@std@@@std@@IBE?AU?$_Tree_find_result@PAU?$_Tree_node@U?$pair@$$CBKPAVCMailBox@@@std@@PAX@std@@@1@ABK@Z ; std::_Tree<std::_Tmap_traits<unsigned long,CMailBox *,std::less<unsigned long>,std::allocator<std::pair<unsigned long const ,CMailBox *> >,0> >::_Find_lower_bound<unsigned long>
  00046	f3 0f 7e 00	 movq	 xmm0, QWORD PTR [eax]
  0004a	8b 40 08	 mov	 eax, DWORD PTR [eax+8]
  0004d	66 0f d6 45 e0	 movq	 QWORD PTR __Loc$4[ebp], xmm0

; 1624 :         return !_Bound->_Isnil && !_DEBUG_LT_PRED(_Getcomp(), _Keyval, _Traits::_Kfn(_Bound->_Myval));

  00052	80 78 0d 00	 cmp	 BYTE PTR [eax+13], 0
  00056	75 1b		 jne	 SHORT $LN9@AddMailBox
; File C:\Program Files\Microsoft Visual Studio\2022\Professional\VC\Tools\MSVC\14.44.35207\include\type_traits

; 2380 :         return _Left < _Right;

  00058	3b 58 10	 cmp	 ebx, DWORD PTR [eax+16]
; File C:\Program Files\Microsoft Visual Studio\2022\Professional\VC\Tools\MSVC\14.44.35207\include\xtree

; 1624 :         return !_Bound->_Isnil && !_DEBUG_LT_PRED(_Getcomp(), _Keyval, _Traits::_Kfn(_Bound->_Myval));

  0005b	72 16		 jb	 SHORT $LN9@AddMailBox
; File C:\Program Files\Microsoft Visual Studio\2022\Professional\VC\Tools\MSVC\14.44.35207\include\utility

; 274  :         : first(_STD forward<_Other1>(_Val1)), second(_STD forward<_Other2>(_Val2)) {

  0005d	33 c0		 xor	 eax, eax
; File C:\IAGOS\server\v18\Source\Source\_Common\post.cpp

; 517  : }

  0005f	8b 4d f4	 mov	 ecx, DWORD PTR __$EHRec$[ebp]
  00062	64 89 0d 00 00
	00 00		 mov	 DWORD PTR fs:0, ecx
  00069	59		 pop	 ecx
  0006a	5f		 pop	 edi
  0006b	5e		 pop	 esi
  0006c	5b		 pop	 ebx
  0006d	8b e5		 mov	 esp, ebp
  0006f	5d		 pop	 ebp
  00070	c2 04 00	 ret	 4
$LN9@AddMailBox:
; File C:\Program Files\Microsoft Visual Studio\2022\Professional\VC\Tools\MSVC\14.44.35207\include\xtree

; 1648 :         if (max_size() == _Get_scary()->_Mysize) {

  00073	81 7f 04 aa aa
	aa 0a		 cmp	 DWORD PTR [edi+4], 178956970 ; 0aaaaaaaH
  0007a	74 5b		 je	 SHORT $LN109@AddMailBox

; 1023 :             _Inserted = _Tree_temp_node<_Alnode>(_Getal(), _Scary->_Myhead, _STD forward<_Valtys>(_Vals)...)._Release();

  0007c	8b 37		 mov	 esi, DWORD PTR [edi]
; File C:\Program Files\Microsoft Visual Studio\2022\Professional\VC\Tools\MSVC\14.44.35207\include\xmemory

; 1160 :     _CONSTEXPR20 explicit _Alloc_construct_ptr(_Alloc& _Al_) : _Al(_Al_), _Ptr(nullptr) {}

  0007e	89 7d ec	 mov	 DWORD PTR $T6[ebp], edi

; 136  :         return ::operator new(_Bytes);

  00081	6a 18		 push	 24			; 00000018H
; File C:\Program Files\Microsoft Visual Studio\2022\Professional\VC\Tools\MSVC\14.44.35207\include\xtree

; 808  :     explicit _Tree_temp_node_alloc(_Alnode& _Al_) : _Alloc_construct_ptr<_Alnode>(_Al_) {

  00083	c7 45 fc 00 00
	00 00		 mov	 DWORD PTR __$EHRec$[ebp+8], 0
; File C:\Program Files\Microsoft Visual Studio\2022\Professional\VC\Tools\MSVC\14.44.35207\include\xmemory

; 1167 :         _Ptr = nullptr; // if allocate throws, prevents double-free

  0008a	c7 45 f0 00 00
	00 00		 mov	 DWORD PTR $T6[ebp+4], 0

; 136  :         return ::operator new(_Bytes);

  00091	e8 00 00 00 00	 call	 ??2@YAPAXI@Z		; operator new
; File C:\Program Files\Microsoft Visual Studio\2022\Professional\VC\Tools\MSVC\14.44.35207\include\xtree

; 830  :         _Alnode_traits::construct(this->_Al, _STD addressof(this->_Ptr->_Myval), _STD forward<_Valtys>(_Vals)...);

  00096	8b 4d 08	 mov	 ecx, DWORD PTR _pMailBox$[ebp]
; File C:\Program Files\Microsoft Visual Studio\2022\Professional\VC\Tools\MSVC\14.44.35207\include\xmemory

; 136  :         return ::operator new(_Bytes);

  00099	83 c4 04	 add	 esp, 4
; File C:\Program Files\Microsoft Visual Studio\2022\Professional\VC\Tools\MSVC\14.44.35207\include\xtree

; 830  :         _Alnode_traits::construct(this->_Al, _STD addressof(this->_Ptr->_Myval), _STD forward<_Valtys>(_Vals)...);

  0009c	89 58 10	 mov	 DWORD PTR [eax+16], ebx
  0009f	89 48 14	 mov	 DWORD PTR [eax+20], ecx

; 1042 :         return {_Scary->_Insert_node(_Loc._Location, _Inserted), true};

  000a2	8b cf		 mov	 ecx, edi
  000a4	50		 push	 eax
  000a5	ff 75 e4	 push	 DWORD PTR __Loc$4[ebp+4]

; 831  :         _Construct_in_place(this->_Ptr->_Left, _Myhead);

  000a8	89 30		 mov	 DWORD PTR [eax], esi

; 1042 :         return {_Scary->_Insert_node(_Loc._Location, _Inserted), true};

  000aa	ff 75 e0	 push	 DWORD PTR __Loc$4[ebp]

; 832  :         _Construct_in_place(this->_Ptr->_Parent, _Myhead);

  000ad	89 70 04	 mov	 DWORD PTR [eax+4], esi

; 833  :         _Construct_in_place(this->_Ptr->_Right, _Myhead);

  000b0	89 70 08	 mov	 DWORD PTR [eax+8], esi

; 834  :         this->_Ptr->_Color = _Red;

  000b3	66 c7 40 0c 00
	00		 mov	 WORD PTR [eax+12], 0

; 1042 :         return {_Scary->_Insert_node(_Loc._Location, _Inserted), true};

  000b9	e8 00 00 00 00	 call	 ?_Insert_node@?$_Tree_val@U?$_Tree_simple_types@U?$pair@$$CBKPAVCMailBox@@@std@@@std@@@std@@QAEPAU?$_Tree_node@U?$pair@$$CBKPAVCMailBox@@@std@@PAX@2@U?$_Tree_id@PAU?$_Tree_node@U?$pair@$$CBKPAVCMailBox@@@std@@PAX@std@@@2@QAU32@@Z ; std::_Tree_val<std::_Tree_simple_types<std::pair<unsigned long const ,CMailBox *> > >::_Insert_node
; File C:\Program Files\Microsoft Visual Studio\2022\Professional\VC\Tools\MSVC\14.44.35207\include\utility

; 274  :         : first(_STD forward<_Other1>(_Val1)), second(_STD forward<_Other2>(_Val2)) {

  000be	b8 01 00 00 00	 mov	 eax, 1
; File C:\IAGOS\server\v18\Source\Source\_Common\post.cpp

; 517  : }

  000c3	8b 4d f4	 mov	 ecx, DWORD PTR __$EHRec$[ebp]
  000c6	64 89 0d 00 00
	00 00		 mov	 DWORD PTR fs:0, ecx
  000cd	59		 pop	 ecx
  000ce	5f		 pop	 edi
  000cf	5e		 pop	 esi
  000d0	5b		 pop	 ebx
  000d1	8b e5		 mov	 esp, ebp
  000d3	5d		 pop	 ebp
  000d4	c2 04 00	 ret	 4
$LN109@AddMailBox:
; File C:\Program Files\Microsoft Visual Studio\2022\Professional\VC\Tools\MSVC\14.44.35207\include\xtree

; 1649 :             _Throw_tree_length_error();

  000d7	e8 00 00 00 00	 call	 ?_Throw_tree_length_error@std@@YAXXZ ; std::_Throw_tree_length_error
$LN107@AddMailBox:
  000dc	cc		 int	 3
_TEXT	ENDS
;	COMDAT text$x
text$x	SEGMENT
__unwindfunclet$?AddMailBox@CPost@@QAEHPAVCMailBox@@@Z$2:
  00000	8d 4d ec	 lea	 ecx, DWORD PTR $T6[ebp]
  00003	e9 00 00 00 00	 jmp	 ??1?$_Alloc_construct_ptr@V?$allocator@U?$_Tree_node@U?$pair@$$CBKPAVCMailBox@@@std@@PAX@std@@@std@@@std@@QAE@XZ ; std::_Alloc_construct_ptr<std::allocator<std::_Tree_node<std::pair<unsigned long const ,CMailBox *>,void *> > >::~_Alloc_construct_ptr<std::allocator<std::_Tree_node<std::pair<unsigned long const ,CMailBox *>,void *> > >
  00008	cc		 int	 3
  00009	cc		 int	 3
  0000a	cc		 int	 3
  0000b	cc		 int	 3
  0000c	cc		 int	 3
__ehhandler$?AddMailBox@CPost@@QAEHPAVCMailBox@@@Z:
  0000d	90		 npad	 1
  0000e	90		 npad	 1
  0000f	8b 54 24 08	 mov	 edx, DWORD PTR [esp+8]
  00013	8d 42 0c	 lea	 eax, DWORD PTR [edx+12]
  00016	8b 4a d0	 mov	 ecx, DWORD PTR [edx-48]
  00019	33 c8		 xor	 ecx, eax
  0001b	e8 00 00 00 00	 call	 @__security_check_cookie@4
  00020	b8 00 00 00 00	 mov	 eax, OFFSET __ehfuncinfo$?AddMailBox@CPost@@QAEHPAVCMailBox@@@Z
  00025	e9 00 00 00 00	 jmp	 ___CxxFrameHandler3
text$x	ENDS
?AddMailBox@CPost@@QAEHPAVCMailBox@@@Z ENDP		; CPost::AddMailBox
; Function compile flags: /Ogtp
; File C:\IAGOS\server\v18\Source\Source\_Common\post.cpp
; File C:\Program Files\Microsoft Visual Studio\2022\Professional\VC\Tools\MSVC\14.44.35207\include\xtree
; File C:\IAGOS\server\v18\Source\Source\_Common\post.cpp
; File C:\Program Files\Microsoft Visual Studio\2022\Professional\VC\Tools\MSVC\14.44.35207\include\xtree
; File C:\Program Files\Microsoft Visual Studio\2022\Professional\VC\Tools\MSVC\14.44.35207\include\type_traits
; File C:\Program Files\Microsoft Visual Studio\2022\Professional\VC\Tools\MSVC\14.44.35207\include\xtree
; File C:\IAGOS\server\v18\Source\Source\_Common\post.cpp
;	COMDAT ?GetMailBox@CPost@@QAEPAVCMailBox@@K@Z
_TEXT	SEGMENT
__Loc$1 = -12						; size = 12
_idReceiver$ = 8					; size = 4
?GetMailBox@CPost@@QAEPAVCMailBox@@K@Z PROC		; CPost::GetMailBox, COMDAT
; _this$ = ecx

; 504  : {

  00000	55		 push	 ebp
  00001	8b ec		 mov	 ebp, esp
  00003	83 ec 0c	 sub	 esp, 12			; 0000000cH
  00006	56		 push	 esi
; File C:\Program Files\Microsoft Visual Studio\2022\Professional\VC\Tools\MSVC\14.44.35207\include\xtree

; 1384 :         const _Tree_find_result<_Nodeptr> _Loc = _Find_lower_bound(_Keyval);

  00007	8d 45 08	 lea	 eax, DWORD PTR _idReceiver$[ebp]
  0000a	50		 push	 eax
; File C:\IAGOS\server\v18\Source\Source\_Common\post.cpp

; 505  : 	map<u_long, CMailBox*>::iterator i = m_mapMailBox.find( idReceiver );

  0000b	8d 71 04	 lea	 esi, DWORD PTR [ecx+4]
; File C:\Program Files\Microsoft Visual Studio\2022\Professional\VC\Tools\MSVC\14.44.35207\include\xtree

; 1384 :         const _Tree_find_result<_Nodeptr> _Loc = _Find_lower_bound(_Keyval);

  0000e	8d 45 f4	 lea	 eax, DWORD PTR __Loc$1[ebp]
  00011	8b ce		 mov	 ecx, esi
  00013	50		 push	 eax
  00014	e8 00 00 00 00	 call	 ??$_Find_lower_bound@K@?$_Tree@V?$_Tmap_traits@KPAVCMailBox@@U?$less@K@std@@V?$allocator@U?$pair@$$CBKPAVCMailBox@@@std@@@3@$0A@@std@@@std@@IBE?AU?$_Tree_find_result@PAU?$_Tree_node@U?$pair@$$CBKPAVCMailBox@@@std@@PAX@std@@@1@ABK@Z ; std::_Tree<std::_Tmap_traits<unsigned long,CMailBox *,std::less<unsigned long>,std::allocator<std::pair<unsigned long const ,CMailBox *> >,0> >::_Find_lower_bound<unsigned long>

; 1624 :         return !_Bound->_Isnil && !_DEBUG_LT_PRED(_Getcomp(), _Keyval, _Traits::_Kfn(_Bound->_Myval));

  00019	8b 45 fc	 mov	 eax, DWORD PTR __Loc$1[ebp+8]
  0001c	80 78 0d 00	 cmp	 BYTE PTR [eax+13], 0
  00020	75 16		 jne	 SHORT $LN2@GetMailBox
; File C:\Program Files\Microsoft Visual Studio\2022\Professional\VC\Tools\MSVC\14.44.35207\include\type_traits

; 2380 :         return _Left < _Right;

  00022	8b 4d 08	 mov	 ecx, DWORD PTR _idReceiver$[ebp]
  00025	3b 48 10	 cmp	 ecx, DWORD PTR [eax+16]
; File C:\Program Files\Microsoft Visual Studio\2022\Professional\VC\Tools\MSVC\14.44.35207\include\xtree

; 1624 :         return !_Bound->_Isnil && !_DEBUG_LT_PRED(_Getcomp(), _Keyval, _Traits::_Kfn(_Bound->_Myval));

  00028	72 0e		 jb	 SHORT $LN2@GetMailBox

; 37   :     _Tree_unchecked_const_iterator(_Nodeptr _Pnode, const _Mytree* _Plist) noexcept : _Ptr(_Pnode) {

  0002a	3b 06		 cmp	 eax, DWORD PTR [esi]
; File C:\IAGOS\server\v18\Source\Source\_Common\post.cpp

; 506  : 	if( i != m_mapMailBox.end() )

  0002c	74 0a		 je	 SHORT $LN2@GetMailBox

; 507  : 		return i->second;

  0002e	8b 40 14	 mov	 eax, DWORD PTR [eax+20]
  00031	5e		 pop	 esi

; 509  : }

  00032	8b e5		 mov	 esp, ebp
  00034	5d		 pop	 ebp
  00035	c2 04 00	 ret	 4
$LN2@GetMailBox:

; 508  : 	return NULL;

  00038	33 c0		 xor	 eax, eax
  0003a	5e		 pop	 esi

; 509  : }

  0003b	8b e5		 mov	 esp, ebp
  0003d	5d		 pop	 ebp
  0003e	c2 04 00	 ret	 4
?GetMailBox@CPost@@QAEPAVCMailBox@@K@Z ENDP		; CPost::GetMailBox
_TEXT	ENDS
; Function compile flags: /Ogtp
; File C:\IAGOS\server\v18\Source\Source\_Common\post.cpp
;	COMDAT ?AddMail@CPost@@QAEKKPAVCMail@@@Z
_TEXT	SEGMENT
_idReceiver$ = 8					; size = 4
$T1 = 8							; size = 4
_pMail$ = 12						; size = 4
?AddMail@CPost@@QAEKKPAVCMail@@@Z PROC			; CPost::AddMail, COMDAT
; _this$ = ecx

; 485  : {

  00000	55		 push	 ebp
  00001	8b ec		 mov	 ebp, esp
  00003	53		 push	 ebx
  00004	56		 push	 esi
  00005	57		 push	 edi

; 486  : 	CMailBox* pMailBox	= GetMailBox( idReceiver );

  00006	8b 7d 08	 mov	 edi, DWORD PTR _idReceiver$[ebp]
  00009	8b d9		 mov	 ebx, ecx
  0000b	57		 push	 edi
  0000c	e8 00 00 00 00	 call	 ?GetMailBox@CPost@@QAEPAVCMailBox@@K@Z ; CPost::GetMailBox
  00011	8b f0		 mov	 esi, eax

; 487  : 	if( !pMailBox )

  00013	85 f6		 test	 esi, esi
  00015	75 39		 jne	 SHORT $LN3@AddMail

; 488  : 	{
; 489  : 		pMailBox	= new CMailBox( idReceiver );

  00017	6a 18		 push	 24			; 00000018H
  00019	e8 00 00 00 00	 call	 ??2@YAPAXI@Z		; operator new
  0001e	83 c4 04	 add	 esp, 4
  00021	89 45 08	 mov	 DWORD PTR $T1[ebp], eax
  00024	85 c0		 test	 eax, eax
  00026	74 0c		 je	 SHORT $LN6@AddMail
  00028	57		 push	 edi
  00029	8b c8		 mov	 ecx, eax
  0002b	e8 00 00 00 00	 call	 ??0CMailBox@@QAE@K@Z	; CMailBox::CMailBox
  00030	8b f0		 mov	 esi, eax
  00032	eb 02		 jmp	 SHORT $LN7@AddMail
$LN6@AddMail:
  00034	33 f6		 xor	 esi, esi
$LN7@AddMail:

; 490  : 		if( AddMailBox( pMailBox ) == FALSE )

  00036	56		 push	 esi
  00037	8b cb		 mov	 ecx, ebx
  00039	e8 00 00 00 00	 call	 ?AddMailBox@CPost@@QAEHPAVCMailBox@@@Z ; CPost::AddMailBox
  0003e	85 c0		 test	 eax, eax
  00040	75 0e		 jne	 SHORT $LN3@AddMail

; 491  : 		{
; 492  : 			Error( "AddMailBox Failed - idReceiver : %d", idReceiver );

  00042	57		 push	 edi
  00043	68 00 00 00 00	 push	 OFFSET ??_C@_0CE@ONJNFFPI@AddMailBox?5Failed?5?9?5idReceiver?5@
  00048	e8 00 00 00 00	 call	 ?Error@@YAPBDPBDZZ	; Error
  0004d	83 c4 08	 add	 esp, 8
$LN3@AddMail:

; 493  : 		}
; 494  : 		else
; 495  : 		{
; 496  : // 			//	BEGINTEST
; 497  : // 			Error( "CPost::AddMail [%d]", idReceiver );
; 498  : 		}
; 499  : 	}
; 500  : 	return pMailBox->AddMail( pMail );

  00050	ff 75 0c	 push	 DWORD PTR _pMail$[ebp]
  00053	8b ce		 mov	 ecx, esi
  00055	e8 00 00 00 00	 call	 ?AddMail@CMailBox@@QAEKPAVCMail@@@Z ; CMailBox::AddMail
  0005a	5f		 pop	 edi
  0005b	5e		 pop	 esi
  0005c	5b		 pop	 ebx

; 501  : }

  0005d	5d		 pop	 ebp
  0005e	c2 08 00	 ret	 8
?AddMail@CPost@@QAEKKPAVCMail@@@Z ENDP			; CPost::AddMail
_TEXT	ENDS
; Function compile flags: /Ogtp
; File C:\IAGOS\server\v18\Source\Source\_Common\post.cpp
; File C:\Program Files\Microsoft Visual Studio\2022\Professional\VC\Tools\MSVC\14.44.35207\include\xtree
; File C:\IAGOS\server\v18\Source\Source\_Common\post.cpp
; File C:\Program Files\Microsoft Visual Studio\2022\Professional\VC\Tools\MSVC\14.44.35207\include\xtree
; File C:\IAGOS\server\v18\Source\Source\_Common\post.cpp
; File C:\Program Files\Microsoft Visual Studio\2022\Professional\VC\Tools\MSVC\14.44.35207\include\xtree
; File C:\IAGOS\server\v18\Source\Source\_Common\post.cpp
; File C:\Program Files\Microsoft Visual Studio\2022\Professional\VC\Tools\MSVC\14.44.35207\include\xtree
; File C:\Program Files\Microsoft Visual Studio\2022\Professional\VC\Tools\MSVC\14.44.35207\include\utility
; File C:\Program Files\Microsoft Visual Studio\2022\Professional\VC\Tools\MSVC\14.44.35207\include\xmemory
; File C:\Program Files\Microsoft Visual Studio\2022\Professional\VC\Tools\MSVC\14.44.35207\include\xtree
; File C:\IAGOS\server\v18\Source\Source\_Common\post.cpp
;	COMDAT ?Clear@CPost@@QAEXXZ
_TEXT	SEGMENT
?Clear@CPost@@QAEXXZ PROC				; CPost::Clear, COMDAT
; _this$ = ecx

; 469  : {

  00000	53		 push	 ebx
  00001	56		 push	 esi
; File C:\Program Files\Microsoft Visual Studio\2022\Professional\VC\Tools\MSVC\14.44.35207\include\xtree

; 1142 :         return iterator(_Scary->_Myhead->_Left, _Scary);

  00002	8d 59 04	 lea	 ebx, DWORD PTR [ecx+4]
; File C:\IAGOS\server\v18\Source\Source\_Common\post.cpp

; 469  : {

  00005	57		 push	 edi
; File C:\Program Files\Microsoft Visual Studio\2022\Professional\VC\Tools\MSVC\14.44.35207\include\xtree

; 1142 :         return iterator(_Scary->_Myhead->_Left, _Scary);

  00006	8b 3b		 mov	 edi, DWORD PTR [ebx]

; 37   :     _Tree_unchecked_const_iterator(_Nodeptr _Pnode, const _Mytree* _Plist) noexcept : _Ptr(_Pnode) {

  00008	8b 37		 mov	 esi, DWORD PTR [edi]

; 237  :         return !(*this == _Right);

  0000a	3b f7		 cmp	 esi, edi
; File C:\IAGOS\server\v18\Source\Source\_Common\post.cpp

; 470  : 	for( map<u_long, CMailBox*>::iterator i = m_mapMailBox.begin(); i != m_mapMailBox.end(); ++i )

  0000c	74 54		 je	 SHORT $LN3@Clear
  0000e	66 90		 npad	 2
$LL4@Clear:

; 471  : 	{
; 472  : 		CMailBox* pMailBox	= i->second;

  00010	8b 4e 14	 mov	 ecx, DWORD PTR [esi+20]

; 473  : 		SAFE_DELETE( pMailBox );

  00013	85 c9		 test	 ecx, ecx
  00015	74 06		 je	 SHORT $LN2@Clear
  00017	8b 01		 mov	 eax, DWORD PTR [ecx]
  00019	6a 01		 push	 1
  0001b	ff 10		 call	 DWORD PTR [eax]
$LN2@Clear:
; File C:\Program Files\Microsoft Visual Studio\2022\Professional\VC\Tools\MSVC\14.44.35207\include\xtree

; 50   :         if (_Ptr->_Right->_Isnil) { // climb looking for right subtree

  0001d	8b 46 08	 mov	 eax, DWORD PTR [esi+8]
  00020	80 78 0d 00	 cmp	 BYTE PTR [eax+13], 0
  00024	74 1e		 je	 SHORT $LN30@Clear

; 51   :             _Nodeptr _Pnode;
; 52   :             while (!(_Pnode = _Ptr->_Parent)->_Isnil && _Ptr == _Pnode->_Right) {

  00026	8b 46 04	 mov	 eax, DWORD PTR [esi+4]
  00029	80 78 0d 00	 cmp	 BYTE PTR [eax+13], 0
  0002d	75 11		 jne	 SHORT $LN119@Clear
  0002f	90		 npad	 1
$LL28@Clear:
  00030	3b 70 08	 cmp	 esi, DWORD PTR [eax+8]
  00033	75 0b		 jne	 SHORT $LN119@Clear

; 53   :                 _Ptr = _Pnode; // ==> parent while right subtree

  00035	8b f0		 mov	 esi, eax
  00037	8b 40 04	 mov	 eax, DWORD PTR [eax+4]
  0003a	80 78 0d 00	 cmp	 BYTE PTR [eax+13], 0
  0003e	74 f0		 je	 SHORT $LL28@Clear
$LN119@Clear:

; 54   :             }
; 55   : 
; 56   :             _Ptr = _Pnode; // ==> parent (head if end())

  00040	8b f0		 mov	 esi, eax

; 57   :         } else {

  00042	eb 18		 jmp	 SHORT $LN36@Clear
$LN30@Clear:

; 58   :             _Ptr = _Mytree::_Min(_Ptr->_Right); // ==> smallest of right subtree

  00044	8b f0		 mov	 esi, eax

; 476  :         while (!_Pnode->_Left->_Isnil) {

  00046	8b 0e		 mov	 ecx, DWORD PTR [esi]
  00048	80 79 0d 00	 cmp	 BYTE PTR [ecx+13], 0
  0004c	75 0e		 jne	 SHORT $LN36@Clear
  0004e	66 90		 npad	 2
$LL35@Clear:
  00050	8b 01		 mov	 eax, DWORD PTR [ecx]

; 477  :             _Pnode = _Pnode->_Left;

  00052	8b f1		 mov	 esi, ecx
  00054	8b c8		 mov	 ecx, eax
  00056	80 78 0d 00	 cmp	 BYTE PTR [eax+13], 0
  0005a	74 f4		 je	 SHORT $LL35@Clear
$LN36@Clear:

; 37   :     _Tree_unchecked_const_iterator(_Nodeptr _Pnode, const _Mytree* _Plist) noexcept : _Ptr(_Pnode) {

  0005c	8b 3b		 mov	 edi, DWORD PTR [ebx]

; 237  :         return !(*this == _Right);

  0005e	3b f7		 cmp	 esi, edi
; File C:\IAGOS\server\v18\Source\Source\_Common\post.cpp

; 470  : 	for( map<u_long, CMailBox*>::iterator i = m_mapMailBox.begin(); i != m_mapMailBox.end(); ++i )

  00060	75 ae		 jne	 SHORT $LL4@Clear
$LN3@Clear:
; File C:\Program Files\Microsoft Visual Studio\2022\Professional\VC\Tools\MSVC\14.44.35207\include\xtree

; 1374 :         _Scary->_Erase_tree(_Getal(), _Head->_Parent);

  00062	8b 77 04	 mov	 esi, DWORD PTR [edi+4]

; 768  :         while (!_Rootnode->_Isnil) { // free subtrees, then node

  00065	80 7e 0d 00	 cmp	 BYTE PTR [esi+13], 0
  00069	75 25		 jne	 SHORT $LN110@Clear
  0006b	0f 1f 44 00 00	 npad	 5
$LL70@Clear:

; 769  :             _Erase_tree(_Al, _Rootnode->_Right);

  00070	ff 76 08	 push	 DWORD PTR [esi+8]
  00073	8b cb		 mov	 ecx, ebx
  00075	53		 push	 ebx
  00076	e8 00 00 00 00	 call	 ??$_Erase_tree@V?$allocator@U?$_Tree_node@U?$pair@$$CBKPAVCMailBox@@@std@@PAX@std@@@std@@@?$_Tree_val@U?$_Tree_simple_types@U?$pair@$$CBKPAVCMailBox@@@std@@@std@@@std@@QAEXAAV?$allocator@U?$_Tree_node@U?$pair@$$CBKPAVCMailBox@@@std@@PAX@std@@@1@PAU?$_Tree_node@U?$pair@$$CBKPAVCMailBox@@@std@@PAX@1@@Z ; std::_Tree_val<std::_Tree_simple_types<std::pair<unsigned long const ,CMailBox *> > >::_Erase_tree<std::allocator<std::_Tree_node<std::pair<unsigned long const ,CMailBox *>,void *> > >
; File C:\Program Files\Microsoft Visual Studio\2022\Professional\VC\Tools\MSVC\14.44.35207\include\utility

; 773  :     _Ty _Old_val = static_cast<_Ty&&>(_Val);

  0007b	8b c6		 mov	 eax, esi

; 774  :     _Val         = static_cast<_Other&&>(_New_val);

  0007d	8b 36		 mov	 esi, DWORD PTR [esi]
; File C:\Program Files\Microsoft Visual Studio\2022\Professional\VC\Tools\MSVC\14.44.35207\include\xmemory

; 289  :         ::operator delete(_Ptr, _Bytes);

  0007f	6a 18		 push	 24			; 00000018H
  00081	50		 push	 eax
  00082	e8 00 00 00 00	 call	 ??3@YAXPAXI@Z		; operator delete
  00087	83 c4 08	 add	 esp, 8
; File C:\Program Files\Microsoft Visual Studio\2022\Professional\VC\Tools\MSVC\14.44.35207\include\xtree

; 768  :         while (!_Rootnode->_Isnil) { // free subtrees, then node

  0008a	80 7e 0d 00	 cmp	 BYTE PTR [esi+13], 0
  0008e	74 e0		 je	 SHORT $LL70@Clear
$LN110@Clear:

; 1375 :         _Head->_Parent  = _Head;

  00090	89 7f 04	 mov	 DWORD PTR [edi+4], edi

; 1376 :         _Head->_Left    = _Head;

  00093	89 3f		 mov	 DWORD PTR [edi], edi

; 1377 :         _Head->_Right   = _Head;

  00095	89 7f 08	 mov	 DWORD PTR [edi+8], edi

; 1378 :         _Scary->_Mysize = 0;

  00098	5f		 pop	 edi
  00099	5e		 pop	 esi
  0009a	c7 43 04 00 00
	00 00		 mov	 DWORD PTR [ebx+4], 0
  000a1	5b		 pop	 ebx
; File C:\IAGOS\server\v18\Source\Source\_Common\post.cpp

; 482  : }

  000a2	c3		 ret	 0
?Clear@CPost@@QAEXXZ ENDP				; CPost::Clear
_TEXT	ENDS
; Function compile flags: /Ogtp
; File C:\IAGOS\server\v18\Source\Source\_Common\post.cpp
;	COMDAT ??1CPost@@UAE@XZ
_TEXT	SEGMENT
??1CPost@@UAE@XZ PROC					; CPost::~CPost, COMDAT
; _this$ = ecx

; 464  : {

  00000	56		 push	 esi
  00001	8b f1		 mov	 esi, ecx
  00003	c7 06 00 00 00
	00		 mov	 DWORD PTR [esi], OFFSET ??_7CPost@@6B@

; 465  : 	Clear();

  00009	e8 00 00 00 00	 call	 ?Clear@CPost@@QAEXXZ	; CPost::Clear

; 466  : }

  0000e	8d 4e 04	 lea	 ecx, DWORD PTR [esi+4]
  00011	5e		 pop	 esi
  00012	e9 00 00 00 00	 jmp	 ??1?$_Tree@V?$_Tmap_traits@KPAVCMailBox@@U?$less@K@std@@V?$allocator@U?$pair@$$CBKPAVCMailBox@@@std@@@3@$0A@@std@@@std@@QAE@XZ ; std::_Tree<std::_Tmap_traits<unsigned long,CMailBox *,std::less<unsigned long>,std::allocator<std::pair<unsigned long const ,CMailBox *> >,0> >::~_Tree<std::_Tmap_traits<unsigned long,CMailBox *,std::less<unsigned long>,std::allocator<std::pair<unsigned long const ,CMailBox *> >,0> >
??1CPost@@UAE@XZ ENDP					; CPost::~CPost
_TEXT	ENDS
; Function compile flags: /Ogtp
; File C:\IAGOS\server\v18\Source\Source\_Common\post.cpp
; File C:\Program Files\Microsoft Visual Studio\2022\Professional\VC\Tools\MSVC\14.44.35207\include\xmemory
; File C:\IAGOS\server\v18\Source\Source\_Common\post.cpp
; File C:\Program Files\Microsoft Visual Studio\2022\Professional\VC\Tools\MSVC\14.44.35207\include\xtree
; File C:\Program Files\Microsoft Visual Studio\2022\Professional\VC\Tools\MSVC\14.44.35207\include\xmemory
; File C:\Program Files\Microsoft Visual Studio\2022\Professional\VC\Tools\MSVC\14.44.35207\include\xtree
; File C:\IAGOS\server\v18\Source\Source\_Common\post.cpp
;	COMDAT ??0CPost@@QAE@XZ
_TEXT	SEGMENT
_this$ = -4						; size = 4
_this$ = -4						; size = 4
??0CPost@@QAE@XZ PROC					; CPost::CPost, COMDAT
; _this$ = ecx

; 460  : {

  00000	55		 push	 ebp
  00001	8b ec		 mov	 ebp, esp
  00003	51		 push	 ecx
  00004	56		 push	 esi
  00005	57		 push	 edi
  00006	8b f9		 mov	 edi, ecx
  00008	8d 77 04	 lea	 esi, DWORD PTR [edi+4]
  0000b	89 7d fc	 mov	 DWORD PTR _this$[ebp], edi
; File C:\Program Files\Microsoft Visual Studio\2022\Professional\VC\Tools\MSVC\14.44.35207\include\xmemory

; 136  :         return ::operator new(_Bytes);

  0000e	6a 18		 push	 24			; 00000018H
; File C:\IAGOS\server\v18\Source\Source\_Common\post.cpp

; 460  : {

  00010	89 75 fc	 mov	 DWORD PTR _this$[ebp], esi
  00013	c7 07 00 00 00
	00		 mov	 DWORD PTR [edi], OFFSET ??_7CPost@@6B@
; File C:\Program Files\Microsoft Visual Studio\2022\Professional\VC\Tools\MSVC\14.44.35207\include\xtree

; 450  :     _Tree_val() noexcept : _Myhead(), _Mysize(0) {}

  00019	c7 06 00 00 00
	00		 mov	 DWORD PTR [esi], 0
  0001f	c7 46 04 00 00
	00 00		 mov	 DWORD PTR [esi+4], 0
; File C:\Program Files\Microsoft Visual Studio\2022\Professional\VC\Tools\MSVC\14.44.35207\include\xmemory

; 136  :         return ::operator new(_Bytes);

  00026	e8 00 00 00 00	 call	 ??2@YAPAXI@Z		; operator new
  0002b	83 c4 04	 add	 esp, 4
; File C:\Program Files\Microsoft Visual Studio\2022\Professional\VC\Tools\MSVC\14.44.35207\include\xtree

; 346  :         _Construct_in_place(_Pnode->_Left, _Pnode);

  0002e	89 00		 mov	 DWORD PTR [eax], eax

; 347  :         _Construct_in_place(_Pnode->_Parent, _Pnode);

  00030	89 40 04	 mov	 DWORD PTR [eax+4], eax

; 348  :         _Construct_in_place(_Pnode->_Right, _Pnode);

  00033	89 40 08	 mov	 DWORD PTR [eax+8], eax

; 349  :         _Pnode->_Color = _Black;

  00036	66 c7 40 0c 01
	01		 mov	 WORD PTR [eax+12], 257	; 00000101H

; 1957 :         _Scary->_Myhead = _Node::_Buyheadnode(_Getal());

  0003c	89 06		 mov	 DWORD PTR [esi], eax
; File C:\IAGOS\server\v18\Source\Source\_Common\post.cpp

; 461  : }

  0003e	8b c7		 mov	 eax, edi
  00040	5f		 pop	 edi
  00041	5e		 pop	 esi
  00042	8b e5		 mov	 esp, ebp
  00044	5d		 pop	 ebp
  00045	c3		 ret	 0
??0CPost@@QAE@XZ ENDP					; CPost::CPost
_TEXT	ENDS
; Function compile flags: /Ogtp
;	COMDAT ??_GCMailBox@@UAEPAXI@Z
_TEXT	SEGMENT
___flags$ = 8						; size = 4
??_GCMailBox@@UAEPAXI@Z PROC				; CMailBox::`scalar deleting destructor', COMDAT
; _this$ = ecx
  00000	55		 push	 ebp
  00001	8b ec		 mov	 ebp, esp
  00003	56		 push	 esi
  00004	8b f1		 mov	 esi, ecx
  00006	e8 00 00 00 00	 call	 ??1CMailBox@@UAE@XZ	; CMailBox::~CMailBox
  0000b	f6 45 08 01	 test	 BYTE PTR ___flags$[ebp], 1
  0000f	74 0b		 je	 SHORT $LN5@scalar
  00011	6a 18		 push	 24			; 00000018H
  00013	56		 push	 esi
  00014	e8 00 00 00 00	 call	 ??3@YAXPAXI@Z		; operator delete
  00019	83 c4 08	 add	 esp, 8
$LN5@scalar:
  0001c	8b c6		 mov	 eax, esi
  0001e	5e		 pop	 esi
  0001f	5d		 pop	 ebp
  00020	c2 04 00	 ret	 4
??_GCMailBox@@UAEPAXI@Z ENDP				; CMailBox::`scalar deleting destructor'
_TEXT	ENDS
; Function compile flags: /Ogtp
; File C:\IAGOS\server\v18\Source\Source\_Common\post.cpp
; File C:\Program Files\Microsoft Visual Studio\2022\Professional\VC\Tools\MSVC\14.44.35207\include\vector
; File C:\IAGOS\server\v18\Source\Source\_Common\post.cpp
; File C:\Program Files\Microsoft Visual Studio\2022\Professional\VC\Tools\MSVC\14.44.35207\include\vector
; File C:\IAGOS\server\v18\Source\Source\_Common\post.cpp
; File C:\Program Files\Microsoft Visual Studio\2022\Professional\VC\Tools\MSVC\14.44.35207\include\vector
; File C:\IAGOS\server\v18\Source\Source\_Common\post.cpp
; File C:\Program Files\Microsoft Visual Studio\2022\Professional\VC\Tools\MSVC\14.44.35207\include\vector
; File C:\IAGOS\server\v18\Source\Source\_Common\post.cpp
;	COMDAT ?Find@CMailBox@@AAE?AV?$_Vector_iterator@V?$_Vector_val@U?$_Simple_types@PAVCMail@@@std@@@std@@@std@@K@Z
_TEXT	SEGMENT
___$ReturnUdt$ = 8					; size = 4
_nMail$ = 12						; size = 4
?Find@CMailBox@@AAE?AV?$_Vector_iterator@V?$_Vector_val@U?$_Simple_types@PAVCMail@@@std@@@std@@@std@@K@Z PROC ; CMailBox::Find, COMDAT
; _this$ = ecx

; 369  : {

  00000	55		 push	 ebp
  00001	8b ec		 mov	 ebp, esp
; File C:\Program Files\Microsoft Visual Studio\2022\Professional\VC\Tools\MSVC\14.44.35207\include\vector

; 46   :     _CONSTEXPR20 _Vector_const_iterator(_Tptr _Parg, const _Container_base* _Pvector) noexcept : _Ptr(_Parg) {

  00003	8b 45 08	 mov	 eax, DWORD PTR ___$ReturnUdt$[ebp]
  00006	8b 51 04	 mov	 edx, DWORD PTR [ecx+4]
; File C:\IAGOS\server\v18\Source\Source\_Common\post.cpp

; 369  : {

  00009	57		 push	 edi
; File C:\Program Files\Microsoft Visual Studio\2022\Professional\VC\Tools\MSVC\14.44.35207\include\vector

; 46   :     _CONSTEXPR20 _Vector_const_iterator(_Tptr _Parg, const _Container_base* _Pvector) noexcept : _Ptr(_Parg) {

  0000a	8b 79 08	 mov	 edi, DWORD PTR [ecx+8]
  0000d	89 10		 mov	 DWORD PTR [eax], edx

; 176  :         return !(*this == _Right);

  0000f	3b d7		 cmp	 edx, edi
; File C:\IAGOS\server\v18\Source\Source\_Common\post.cpp

; 371  : 	for( ; i != end(); ++i )

  00011	74 15		 je	 SHORT $LN38@Find
  00013	56		 push	 esi
; File C:\Program Files\Microsoft Visual Studio\2022\Professional\VC\Tools\MSVC\14.44.35207\include\vector

; 1852 :         return iterator(_My_data._Mylast, _STD addressof(_My_data));

  00014	8b 75 0c	 mov	 esi, DWORD PTR _nMail$[ebp]
$LL4@Find:
; File C:\IAGOS\server\v18\Source\Source\_Common\post.cpp

; 374  : 		if( pMail->m_nMail == nMail )

  00017	8b 0a		 mov	 ecx, DWORD PTR [edx]
  00019	39 71 04	 cmp	 DWORD PTR [ecx+4], esi
  0001c	74 09		 je	 SHORT $LN47@Find
; File C:\Program Files\Microsoft Visual Studio\2022\Professional\VC\Tools\MSVC\14.44.35207\include\vector

; 82   :         ++_Ptr;

  0001e	83 c2 04	 add	 edx, 4
  00021	89 10		 mov	 DWORD PTR [eax], edx

; 176  :         return !(*this == _Right);

  00023	3b d7		 cmp	 edx, edi
; File C:\IAGOS\server\v18\Source\Source\_Common\post.cpp

; 371  : 	for( ; i != end(); ++i )

  00025	75 f0		 jne	 SHORT $LL4@Find
$LN47@Find:
  00027	5e		 pop	 esi
$LN38@Find:
  00028	5f		 pop	 edi

; 375  : 			break;
; 376  : 	}
; 377  : 	return i;
; 378  : }

  00029	5d		 pop	 ebp
  0002a	c2 08 00	 ret	 8
?Find@CMailBox@@AAE?AV?$_Vector_iterator@V?$_Vector_val@U?$_Simple_types@PAVCMail@@@std@@@std@@@std@@K@Z ENDP ; CMailBox::Find
_TEXT	ENDS
; Function compile flags: /Ogtp
; File C:\IAGOS\server\v18\Source\Source\_Common\post.cpp
;	COMDAT ?GetInstance@CMailBox@@SAPAV1@XZ
_TEXT	SEGMENT
?GetInstance@CMailBox@@SAPAV1@XZ PROC			; CMailBox::GetInstance, COMDAT

; 181  : 	static CMailBox	sMailBox;

  00000	64 a1 00 00 00
	00		 mov	 eax, DWORD PTR fs:__tls_array
  00006	8b 0d 00 00 00
	00		 mov	 ecx, DWORD PTR __tls_index
  0000c	8b 0c 88	 mov	 ecx, DWORD PTR [eax+ecx*4]
  0000f	a1 00 00 00 00	 mov	 eax, DWORD PTR ?$TSS0@?1??GetInstance@CMailBox@@SAPAV2@XZ@4HA
  00014	3b 81 00 00 00
	00		 cmp	 eax, DWORD PTR __Init_thread_epoch[ecx]
  0001a	7f 06		 jg	 SHORT $LN8@GetInstanc
$LN5@GetInstanc:

; 182  : 	return &sMailBox;
; 183  : }

  0001c	b8 00 00 00 00	 mov	 eax, OFFSET ?sMailBox@?1??GetInstance@CMailBox@@SAPAV2@XZ@4V2@A
  00021	c3		 ret	 0
$LN8@GetInstanc:

; 181  : 	static CMailBox	sMailBox;

  00022	68 00 00 00 00	 push	 OFFSET ?$TSS0@?1??GetInstance@CMailBox@@SAPAV2@XZ@4HA
  00027	e8 00 00 00 00	 call	 __Init_thread_header
  0002c	83 c4 04	 add	 esp, 4
  0002f	83 3d 00 00 00
	00 ff		 cmp	 DWORD PTR ?$TSS0@?1??GetInstance@CMailBox@@SAPAV2@XZ@4HA, -1
  00036	75 e4		 jne	 SHORT $LN5@GetInstanc
  00038	b9 00 00 00 00	 mov	 ecx, OFFSET ?sMailBox@?1??GetInstance@CMailBox@@SAPAV2@XZ@4V2@A
  0003d	e8 00 00 00 00	 call	 ??0CMailBox@@QAE@XZ	; CMailBox::CMailBox
  00042	68 00 00 00 00	 push	 OFFSET ??__FsMailBox@?1??GetInstance@CMailBox@@SAPAV1@XZ@YAXXZ ; `CMailBox::GetInstance'::`2'::`dynamic atexit destructor for 'sMailBox''
  00047	e8 00 00 00 00	 call	 _atexit
  0004c	68 00 00 00 00	 push	 OFFSET ?$TSS0@?1??GetInstance@CMailBox@@SAPAV2@XZ@4HA
  00051	e8 00 00 00 00	 call	 __Init_thread_footer
  00056	83 c4 08	 add	 esp, 8
  00059	eb c1		 jmp	 SHORT $LN5@GetInstanc
?GetInstance@CMailBox@@SAPAV1@XZ ENDP			; CMailBox::GetInstance
_TEXT	ENDS
; Function compile flags: /Ogtp
; File C:\IAGOS\server\v18\Source\Source\_Common\post.cpp
; File C:\Program Files\Microsoft Visual Studio\2022\Professional\VC\Tools\MSVC\14.44.35207\include\vector
; File C:\IAGOS\server\v18\Source\Source\_Common\post.cpp
; File C:\Program Files\Microsoft Visual Studio\2022\Professional\VC\Tools\MSVC\14.44.35207\include\vector
; File C:\IAGOS\server\v18\Source\Source\_Common\post.cpp
; File C:\Program Files\Microsoft Visual Studio\2022\Professional\VC\Tools\MSVC\14.44.35207\include\vector
; File C:\IAGOS\server\v18\Source\Source\_Common\post.cpp
;	COMDAT ?Clear@CMailBox@@QAEXXZ
_TEXT	SEGMENT
?Clear@CMailBox@@QAEXXZ PROC				; CMailBox::Clear, COMDAT
; _this$ = ecx

; 186  : {

  00000	56		 push	 esi
  00001	57		 push	 edi
  00002	8b f9		 mov	 edi, ecx
; File C:\Program Files\Microsoft Visual Studio\2022\Professional\VC\Tools\MSVC\14.44.35207\include\vector

; 46   :     _CONSTEXPR20 _Vector_const_iterator(_Tptr _Parg, const _Container_base* _Pvector) noexcept : _Ptr(_Parg) {

  00004	8b 77 04	 mov	 esi, DWORD PTR [edi+4]

; 176  :         return !(*this == _Right);

  00007	3b 77 08	 cmp	 esi, DWORD PTR [edi+8]
; File C:\IAGOS\server\v18\Source\Source\_Common\post.cpp

; 187  : 	for( MailVectorItr i = begin(); i != end(); ++i )

  0000a	74 1e		 je	 SHORT $LN3@Clear
  0000c	0f 1f 40 00	 npad	 4
$LL4@Clear:

; 188  : 	{
; 189  : #ifdef __DBSERVER
; 190  : 		if( m_pPost )
; 191  : 			m_pPost->m_mapMail4Proc.erase( (*i)->m_nMail );
; 192  : #endif	// __DBSERVER
; 193  : 		SAFE_DELETE( *i );

  00010	8b 0e		 mov	 ecx, DWORD PTR [esi]
  00012	85 c9		 test	 ecx, ecx
  00014	74 0c		 je	 SHORT $LN2@Clear
  00016	8b 01		 mov	 eax, DWORD PTR [ecx]
  00018	6a 01		 push	 1
  0001a	ff 10		 call	 DWORD PTR [eax]
  0001c	c7 06 00 00 00
	00		 mov	 DWORD PTR [esi], 0
$LN2@Clear:
; File C:\Program Files\Microsoft Visual Studio\2022\Professional\VC\Tools\MSVC\14.44.35207\include\vector

; 82   :         ++_Ptr;

  00022	83 c6 04	 add	 esi, 4

; 176  :         return !(*this == _Right);

  00025	3b 77 08	 cmp	 esi, DWORD PTR [edi+8]
; File C:\IAGOS\server\v18\Source\Source\_Common\post.cpp

; 187  : 	for( MailVectorItr i = begin(); i != end(); ++i )

  00028	75 e6		 jne	 SHORT $LL4@Clear
$LN3@Clear:
; File C:\Program Files\Microsoft Visual Studio\2022\Professional\VC\Tools\MSVC\14.44.35207\include\vector

; 1812 :         if (_Myfirst == _Mylast) { // already empty, nothing to do

  0002a	8b 47 04	 mov	 eax, DWORD PTR [edi+4]
  0002d	3b 47 08	 cmp	 eax, DWORD PTR [edi+8]
  00030	74 03		 je	 SHORT $LN39@Clear

; 1813 :             // This is an optimization for debug mode: we can avoid taking the debug lock to invalidate iterators.
; 1814 :             // Note that when clearing an empty vector, this will preserve past-the-end iterators, which is allowed by
; 1815 :             // N4950 [sequence.reqmts]/54 "a.clear() [...] may invalidate the past-the-end iterator".
; 1816 :             return;
; 1817 :         }
; 1818 : 
; 1819 :         _My_data._Orphan_all();
; 1820 :         _Destroy_range(_Myfirst, _Mylast, _Getal());
; 1821 :         _ASAN_VECTOR_MODIFY(static_cast<difference_type>(_Myfirst - _Mylast)); // negative when destroying elements
; 1822 :         _Mylast = _Myfirst;

  00032	89 47 08	 mov	 DWORD PTR [edi+8], eax
$LN39@Clear:
  00035	5f		 pop	 edi
; File C:\IAGOS\server\v18\Source\Source\_Common\post.cpp

; 197  : }

  00036	5e		 pop	 esi
  00037	c3		 ret	 0
?Clear@CMailBox@@QAEXXZ ENDP				; CMailBox::Clear
_TEXT	ENDS
; Function compile flags: /Ogtp
; File C:\IAGOS\server\v18\Source\Source\_Common\post.cpp
; File C:\Program Files\Microsoft Visual Studio\2022\Professional\VC\Tools\MSVC\14.44.35207\include\vector
; File C:\IAGOS\server\v18\Source\Source\_Common\post.cpp
; File C:\Program Files\Microsoft Visual Studio\2022\Professional\VC\Tools\MSVC\14.44.35207\include\vector
; File C:\IAGOS\server\v18\Source\Source\_Common\post.cpp
;	COMDAT ?IsStampedMailExists@CMailBox@@QAEHXZ
_TEXT	SEGMENT
?IsStampedMailExists@CMailBox@@QAEHXZ PROC		; CMailBox::IsStampedMailExists, COMDAT
; _this$ = ecx
; File C:\Program Files\Microsoft Visual Studio\2022\Professional\VC\Tools\MSVC\14.44.35207\include\vector

; 46   :     _CONSTEXPR20 _Vector_const_iterator(_Tptr _Parg, const _Container_base* _Pvector) noexcept : _Ptr(_Parg) {

  00000	8b 41 04	 mov	 eax, DWORD PTR [ecx+4]
  00003	8b 51 08	 mov	 edx, DWORD PTR [ecx+8]

; 176  :         return !(*this == _Right);

  00006	3b c2		 cmp	 eax, edx
; File C:\IAGOS\server\v18\Source\Source\_Common\post.cpp

; 447  : 	for( ; i != end(); ++i )

  00008	74 15		 je	 SHORT $LN3@IsStampedM
  0000a	66 0f 1f 44 00
	00		 npad	 6
$LL4@IsStampedM:

; 448  : 	{
; 449  : 		CMail* pMail	= *i;
; 450  : 		if( pMail->m_byRead == FALSE )

  00010	8b 08		 mov	 ecx, DWORD PTR [eax]
  00012	80 79 18 00	 cmp	 BYTE PTR [ecx+24], 0
  00016	74 0a		 je	 SHORT $LN38@IsStampedM
; File C:\Program Files\Microsoft Visual Studio\2022\Professional\VC\Tools\MSVC\14.44.35207\include\vector

; 82   :         ++_Ptr;

  00018	83 c0 04	 add	 eax, 4

; 176  :         return !(*this == _Right);

  0001b	3b c2		 cmp	 eax, edx
; File C:\IAGOS\server\v18\Source\Source\_Common\post.cpp

; 447  : 	for( ; i != end(); ++i )

  0001d	75 f1		 jne	 SHORT $LL4@IsStampedM
$LN3@IsStampedM:

; 453  : 		}
; 454  : 	}
; 455  : 
; 456  : 	return FALSE;

  0001f	33 c0		 xor	 eax, eax

; 457  : }

  00021	c3		 ret	 0
$LN38@IsStampedM:

; 451  : 		{
; 452  : 			return TRUE;

  00022	b8 01 00 00 00	 mov	 eax, 1

; 457  : }

  00027	c3		 ret	 0
?IsStampedMailExists@CMailBox@@QAEHXZ ENDP		; CMailBox::IsStampedMailExists
_TEXT	ENDS
; Function compile flags: /Ogtp
; File C:\IAGOS\server\v18\Source\Source\_Common\post.cpp
;	COMDAT ?ReadMail@CMailBox@@QAEHK@Z
_TEXT	SEGMENT
_nMail$ = 8						; size = 4
?ReadMail@CMailBox@@QAEHK@Z PROC			; CMailBox::ReadMail, COMDAT
; _this$ = ecx

; 432  : {

  00000	55		 push	 ebp
  00001	8b ec		 mov	 ebp, esp

; 433  : 	CMail* pMail	= GetMail( nMail );

  00003	ff 75 08	 push	 DWORD PTR _nMail$[ebp]
  00006	e8 00 00 00 00	 call	 ?GetMail@CMailBox@@QAEPAVCMail@@K@Z ; CMailBox::GetMail

; 434  : 	if( pMail )

  0000b	85 c0		 test	 eax, eax
  0000d	74 0d		 je	 SHORT $LN2@ReadMail

; 435  : 	{
; 436  : 		pMail->m_byRead	= TRUE;

  0000f	c6 40 18 01	 mov	 BYTE PTR [eax+24], 1

; 437  : 
; 438  : 		return TRUE;

  00013	b8 01 00 00 00	 mov	 eax, 1

; 442  : }

  00018	5d		 pop	 ebp
  00019	c2 04 00	 ret	 4
$LN2@ReadMail:

; 439  : 	}
; 440  : 
; 441  : 	return FALSE;

  0001c	33 c0		 xor	 eax, eax

; 442  : }

  0001e	5d		 pop	 ebp
  0001f	c2 04 00	 ret	 4
?ReadMail@CMailBox@@QAEHK@Z ENDP			; CMailBox::ReadMail
_TEXT	ENDS
; Function compile flags: /Ogtp
; File C:\IAGOS\server\v18\Source\Source\_Common\post.cpp
;	COMDAT ?RemoveMailGold@CMailBox@@QAEHK@Z
_TEXT	SEGMENT
_nMail$ = 8						; size = 4
?RemoveMailGold@CMailBox@@QAEHK@Z PROC			; CMailBox::RemoveMailGold, COMDAT
; _this$ = ecx

; 421  : {

  00000	55		 push	 ebp
  00001	8b ec		 mov	 ebp, esp

; 422  : 	CMail* pMail	= GetMail( nMail );

  00003	ff 75 08	 push	 DWORD PTR _nMail$[ebp]
  00006	e8 00 00 00 00	 call	 ?GetMail@CMailBox@@QAEPAVCMail@@K@Z ; CMailBox::GetMail

; 423  : 	if( pMail && pMail->m_nGold > 0 )

  0000b	85 c0		 test	 eax, eax
  0000d	74 16		 je	 SHORT $LN2@RemoveMail
  0000f	83 78 10 00	 cmp	 DWORD PTR [eax+16], 0
  00013	76 10		 jbe	 SHORT $LN2@RemoveMail

; 424  : 	{
; 425  : 		pMail->m_nGold	= 0;

  00015	c7 40 10 00 00
	00 00		 mov	 DWORD PTR [eax+16], 0

; 426  : 		return TRUE;

  0001c	b8 01 00 00 00	 mov	 eax, 1

; 429  : }

  00021	5d		 pop	 ebp
  00022	c2 04 00	 ret	 4
$LN2@RemoveMail:

; 427  : 	}
; 428  : 	return FALSE;

  00025	33 c0		 xor	 eax, eax

; 429  : }

  00027	5d		 pop	 ebp
  00028	c2 04 00	 ret	 4
?RemoveMailGold@CMailBox@@QAEHK@Z ENDP			; CMailBox::RemoveMailGold
_TEXT	ENDS
; Function compile flags: /Ogtp
; File C:\IAGOS\server\v18\Source\Source\_Common\post.cpp
;	COMDAT ?RemoveMailItem@CMailBox@@QAEHK@Z
_TEXT	SEGMENT
_nMail$ = 8						; size = 4
?RemoveMailItem@CMailBox@@QAEHK@Z PROC			; CMailBox::RemoveMailItem, COMDAT
; _this$ = ecx

; 408  : {

  00000	55		 push	 ebp
  00001	8b ec		 mov	 ebp, esp
  00003	56		 push	 esi

; 409  : 	CMail* pMail	= GetMail( nMail );

  00004	ff 75 08	 push	 DWORD PTR _nMail$[ebp]
  00007	e8 00 00 00 00	 call	 ?GetMail@CMailBox@@QAEPAVCMail@@K@Z ; CMailBox::GetMail
  0000c	8b f0		 mov	 esi, eax

; 410  : 	if( pMail && pMail->m_pItemElem )

  0000e	85 f6		 test	 esi, esi
  00010	74 1e		 je	 SHORT $LN2@RemoveMail
  00012	8b 4e 0c	 mov	 ecx, DWORD PTR [esi+12]
  00015	85 c9		 test	 ecx, ecx
  00017	74 17		 je	 SHORT $LN2@RemoveMail

; 411  : 	{
; 412  : 		SAFE_DELETE( pMail->m_pItemElem );

  00019	8b 01		 mov	 eax, DWORD PTR [ecx]
  0001b	6a 01		 push	 1
  0001d	ff 10		 call	 DWORD PTR [eax]
  0001f	c7 46 0c 00 00
	00 00		 mov	 DWORD PTR [esi+12], 0

; 413  : 
; 414  : 		return TRUE;

  00026	b8 01 00 00 00	 mov	 eax, 1
  0002b	5e		 pop	 esi

; 418  : }

  0002c	5d		 pop	 ebp
  0002d	c2 04 00	 ret	 4
$LN2@RemoveMail:

; 415  : 	}
; 416  : 
; 417  : 	return FALSE;

  00030	33 c0		 xor	 eax, eax
  00032	5e		 pop	 esi

; 418  : }

  00033	5d		 pop	 ebp
  00034	c2 04 00	 ret	 4
?RemoveMailItem@CMailBox@@QAEHK@Z ENDP			; CMailBox::RemoveMailItem
_TEXT	ENDS
; Function compile flags: /Ogtp
; File C:\IAGOS\server\v18\Source\Source\_Common\post.cpp
; File C:\Program Files\Microsoft Visual Studio\2022\Professional\VC\Tools\MSVC\14.44.35207\include\vector
; File C:\IAGOS\server\v18\Source\Source\_Common\post.cpp
; File C:\Program Files\Microsoft Visual Studio\2022\Professional\VC\Tools\MSVC\14.44.35207\include\xutility
; File C:\Program Files\Microsoft Visual Studio\2022\Professional\VC\Tools\MSVC\14.44.35207\include\vector
; File C:\Program Files\Microsoft Visual Studio\2022\Professional\VC\Tools\MSVC\14.44.35207\include\xutility
; File C:\IAGOS\server\v18\Source\Source\_Common\post.cpp
; File C:\Program Files\Microsoft Visual Studio\2022\Professional\VC\Tools\MSVC\14.44.35207\include\vector
; File C:\IAGOS\server\v18\Source\Source\_Common\post.cpp
;	COMDAT ?RemoveMail@CMailBox@@QAEHK@Z
_TEXT	SEGMENT
_nMail$ = 8						; size = 4
_i$ = 8							; size = 4
?RemoveMail@CMailBox@@QAEHK@Z PROC			; CMailBox::RemoveMail, COMDAT
; _this$ = ecx

; 390  : {

  00000	55		 push	 ebp
  00001	8b ec		 mov	 ebp, esp
  00003	56		 push	 esi
  00004	57		 push	 edi

; 391  : 	MailVectorItr i = Find( nMail );

  00005	ff 75 08	 push	 DWORD PTR _nMail$[ebp]
  00008	8d 45 08	 lea	 eax, DWORD PTR _i$[ebp]
  0000b	8b f9		 mov	 edi, ecx
  0000d	50		 push	 eax
  0000e	e8 00 00 00 00	 call	 ?Find@CMailBox@@AAE?AV?$_Vector_iterator@V?$_Vector_val@U?$_Simple_types@PAVCMail@@@std@@@std@@@std@@K@Z ; CMailBox::Find
; File C:\Program Files\Microsoft Visual Studio\2022\Professional\VC\Tools\MSVC\14.44.35207\include\vector

; 46   :     _CONSTEXPR20 _Vector_const_iterator(_Tptr _Parg, const _Container_base* _Pvector) noexcept : _Ptr(_Parg) {

  00013	8b 75 08	 mov	 esi, DWORD PTR _i$[ebp]
  00016	3b 77 08	 cmp	 esi, DWORD PTR [edi+8]
; File C:\IAGOS\server\v18\Source\Source\_Common\post.cpp

; 392  : 	if( i != end() )

  00019	74 31		 je	 SHORT $LN2@RemoveMail

; 393  : 	{
; 394  : #ifdef __DBSERVER
; 395  : 		if( m_pPost )
; 396  : 			m_pPost->m_mapMail4Proc.erase( (*i)->m_nMail );
; 397  : #endif	// __DBSERVER
; 398  : 		SAFE_DELETE( *i );

  0001b	8b 0e		 mov	 ecx, DWORD PTR [esi]
  0001d	85 c9		 test	 ecx, ecx
  0001f	74 0c		 je	 SHORT $LN3@RemoveMail
  00021	8b 01		 mov	 eax, DWORD PTR [ecx]
  00023	6a 01		 push	 1
  00025	ff 10		 call	 DWORD PTR [eax]
  00027	c7 06 00 00 00
	00		 mov	 DWORD PTR [esi], 0
$LN3@RemoveMail:
; File C:\Program Files\Microsoft Visual Studio\2022\Professional\VC\Tools\MSVC\14.44.35207\include\xutility

; 5147 :                 return _STD _Copy_memmove(_First, _Last, _Dest);

  0002d	56		 push	 esi
  0002e	ff 77 08	 push	 DWORD PTR [edi+8]
; File C:\Program Files\Microsoft Visual Studio\2022\Professional\VC\Tools\MSVC\14.44.35207\include\vector

; 1775 :         _STD _Move_unchecked(_Whereptr + 1, _Mylast, _Whereptr);

  00031	83 c6 04	 add	 esi, 4
; File C:\Program Files\Microsoft Visual Studio\2022\Professional\VC\Tools\MSVC\14.44.35207\include\xutility

; 5147 :                 return _STD _Copy_memmove(_First, _Last, _Dest);

  00034	56		 push	 esi
  00035	e8 00 00 00 00	 call	 ??$_Copy_memmove@PAPAVCMail@@PAPAV1@@std@@YAPAPAVCMail@@PAPAV1@00@Z ; std::_Copy_memmove<CMail * *,CMail * *>
  0003a	83 c4 0c	 add	 esp, 12			; 0000000cH
; File C:\IAGOS\server\v18\Source\Source\_Common\post.cpp

; 401  : 		return TRUE;

  0003d	b8 01 00 00 00	 mov	 eax, 1
; File C:\Program Files\Microsoft Visual Studio\2022\Professional\VC\Tools\MSVC\14.44.35207\include\vector

; 1778 :         --_Mylast;

  00042	83 47 08 fc	 add	 DWORD PTR [edi+8], -4	; fffffffcH
  00046	5f		 pop	 edi
; File C:\IAGOS\server\v18\Source\Source\_Common\post.cpp

; 405  : }

  00047	5e		 pop	 esi
  00048	5d		 pop	 ebp
  00049	c2 04 00	 ret	 4
$LN2@RemoveMail:
  0004c	5f		 pop	 edi

; 402  : 	}
; 403  : 
; 404  : 	return FALSE;

  0004d	33 c0		 xor	 eax, eax

; 405  : }

  0004f	5e		 pop	 esi
  00050	5d		 pop	 ebp
  00051	c2 04 00	 ret	 4
?RemoveMail@CMailBox@@QAEHK@Z ENDP			; CMailBox::RemoveMail
_TEXT	ENDS
; Function compile flags: /Ogtp
; File C:\IAGOS\server\v18\Source\Source\_Common\post.cpp
; File C:\Program Files\Microsoft Visual Studio\2022\Professional\VC\Tools\MSVC\14.44.35207\include\vector
; File C:\IAGOS\server\v18\Source\Source\_Common\post.cpp
;	COMDAT ?GetMail@CMailBox@@QAEPAVCMail@@K@Z
_TEXT	SEGMENT
_nMail$ = 8						; size = 4
_i$ = 8							; size = 4
?GetMail@CMailBox@@QAEPAVCMail@@K@Z PROC		; CMailBox::GetMail, COMDAT
; _this$ = ecx

; 381  : {

  00000	55		 push	 ebp
  00001	8b ec		 mov	 ebp, esp
  00003	56		 push	 esi

; 382  : 	MailVectorItr i = Find( nMail );

  00004	ff 75 08	 push	 DWORD PTR _nMail$[ebp]
  00007	8d 45 08	 lea	 eax, DWORD PTR _i$[ebp]
  0000a	8b f1		 mov	 esi, ecx
  0000c	50		 push	 eax
  0000d	e8 00 00 00 00	 call	 ?Find@CMailBox@@AAE?AV?$_Vector_iterator@V?$_Vector_val@U?$_Simple_types@PAVCMail@@@std@@@std@@@std@@K@Z ; CMailBox::Find
; File C:\Program Files\Microsoft Visual Studio\2022\Professional\VC\Tools\MSVC\14.44.35207\include\vector

; 46   :     _CONSTEXPR20 _Vector_const_iterator(_Tptr _Parg, const _Container_base* _Pvector) noexcept : _Ptr(_Parg) {

  00012	8b 45 08	 mov	 eax, DWORD PTR _i$[ebp]
  00015	3b 46 08	 cmp	 eax, DWORD PTR [esi+8]
  00018	5e		 pop	 esi
; File C:\IAGOS\server\v18\Source\Source\_Common\post.cpp

; 383  : 	if( i != end() )

  00019	74 06		 je	 SHORT $LN2@GetMail

; 384  : 		return *i;

  0001b	8b 00		 mov	 eax, DWORD PTR [eax]

; 387  : }

  0001d	5d		 pop	 ebp
  0001e	c2 04 00	 ret	 4
$LN2@GetMail:

; 385  : 
; 386  : 	return NULL;

  00021	33 c0		 xor	 eax, eax

; 387  : }

  00023	5d		 pop	 ebp
  00024	c2 04 00	 ret	 4
?GetMail@CMailBox@@QAEPAVCMail@@K@Z ENDP		; CMailBox::GetMail
_TEXT	ENDS
; Function compile flags: /Ogtp
; File C:\IAGOS\server\v18\Source\Source\_Common\post.cpp
; File C:\Program Files\Microsoft Visual Studio\2022\Professional\VC\Tools\MSVC\14.44.35207\include\vector
; File C:\IAGOS\server\v18\Source\Source\_Common\post.cpp
; File C:\Program Files\Microsoft Visual Studio\2022\Professional\VC\Tools\MSVC\14.44.35207\include\vector
; File C:\IAGOS\server\v18\Source\Source\_Common\post.cpp
;	COMDAT ?ReadReq@CMailBox@@QAEXAAVCAr@@@Z
_TEXT	SEGMENT
_pNewMail$2 = -344					; size = 4
$T3 = -344						; size = 4
_nSize$ = -340						; size = 4
_nMail$4 = -340						; size = 4
_this$GSCopy$1$ = -336					; size = 4
_temp$5 = -332						; size = 316
__$ArrayPad$ = -16					; size = 4
__$EHRec$ = -12						; size = 12
_ar$ = 8						; size = 4
?ReadReq@CMailBox@@QAEXAAVCAr@@@Z PROC			; CMailBox::ReadReq, COMDAT
; _this$ = ecx

; 296  : {

  00000	55		 push	 ebp
  00001	8b ec		 mov	 ebp, esp
  00003	6a ff		 push	 -1
  00005	68 00 00 00 00	 push	 __ehhandler$?ReadReq@CMailBox@@QAEXAAVCAr@@@Z
  0000a	64 a1 00 00 00
	00		 mov	 eax, DWORD PTR fs:0
  00010	50		 push	 eax
  00011	81 ec 4c 01 00
	00		 sub	 esp, 332		; 0000014cH
  00017	a1 00 00 00 00	 mov	 eax, DWORD PTR ___security_cookie
  0001c	33 c5		 xor	 eax, ebp
  0001e	89 45 f0	 mov	 DWORD PTR __$ArrayPad$[ebp], eax
  00021	53		 push	 ebx
  00022	56		 push	 esi
  00023	57		 push	 edi
  00024	50		 push	 eax
  00025	8d 45 f4	 lea	 eax, DWORD PTR __$EHRec$[ebp]
  00028	64 a3 00 00 00
	00		 mov	 DWORD PTR fs:0, eax
  0002e	8b f1		 mov	 esi, ecx
  00030	89 b5 b0 fe ff
	ff		 mov	 DWORD PTR _this$GSCopy$1$[ebp], esi
  00036	8b 7d 08	 mov	 edi, DWORD PTR _ar$[ebp]

; 297  : 	int nSize;
; 298  : 	ar >> nSize;

  00039	8d 85 ac fe ff
	ff		 lea	 eax, DWORD PTR _nSize$[ebp]
  0003f	50		 push	 eax
  00040	8b cf		 mov	 ecx, edi
  00042	e8 00 00 00 00	 call	 ??$?5H@CAr@@QAEAAV0@AAH@Z ; CAr::operator>><int>

; 299  : 
; 300  : 	for( int i = 0; i < nSize; i++ )

  00047	8b 9d ac fe ff
	ff		 mov	 ebx, DWORD PTR _nSize$[ebp]
  0004d	85 db		 test	 ebx, ebx
  0004f	7f 35		 jg	 SHORT $LN4@ReadReq

; 329  : 		}
; 330  : 	}
; 331  : 	m_nStatus	= CMailBox::data;

  00051	c7 46 14 02 00
	00 00		 mov	 DWORD PTR [esi+20], 2
$LN3@ReadReq:

; 332  : }

  00058	8b 4d f4	 mov	 ecx, DWORD PTR __$EHRec$[ebp]
  0005b	64 89 0d 00 00
	00 00		 mov	 DWORD PTR fs:0, ecx
  00062	59		 pop	 ecx
  00063	5f		 pop	 edi
  00064	5e		 pop	 esi
  00065	5b		 pop	 ebx
  00066	8b 4d f0	 mov	 ecx, DWORD PTR __$ArrayPad$[ebp]
  00069	33 cd		 xor	 ecx, ebp
  0006b	e8 00 00 00 00	 call	 @__security_check_cookie@4
  00070	8b e5		 mov	 esp, ebp
  00072	5d		 pop	 ebp
  00073	c2 04 00	 ret	 4
  00076	66 66 0f 1f 84
	00 00 00 00 00	 npad	 10
$LL26@ReadReq:

; 299  : 
; 300  : 	for( int i = 0; i < nSize; i++ )

  00080	8b b5 b0 fe ff
	ff		 mov	 esi, DWORD PTR _this$GSCopy$1$[ebp]
$LN4@ReadReq:

; 301  : 	{
; 302  : 		u_long nMail;
; 303  : 		ar >> nMail;

  00086	8d 85 ac fe ff
	ff		 lea	 eax, DWORD PTR _nMail$4[ebp]
  0008c	8b cf		 mov	 ecx, edi
  0008e	50		 push	 eax
  0008f	e8 00 00 00 00	 call	 ??$?5K@CAr@@QAEAAV0@AAK@Z ; CAr::operator>><unsigned long>

; 304  : 
; 305  : 		CMail* pMail	= GetMail( nMail );

  00094	ff b5 ac fe ff
	ff		 push	 DWORD PTR _nMail$4[ebp]
  0009a	8b ce		 mov	 ecx, esi
  0009c	e8 00 00 00 00	 call	 ?GetMail@CMailBox@@QAEPAVCMail@@K@Z ; CMailBox::GetMail
  000a1	8b f0		 mov	 esi, eax

; 306  : 
; 307  : 		if( pMail != NULL )

  000a3	85 f6		 test	 esi, esi
  000a5	74 16		 je	 SHORT $LN5@ReadReq

; 308  : 		{
; 309  : 			//Error( "CMailBox::ReadReq - Mail Exist. nMail : %d", nMail );
; 310  : 			pMail->Clear();

  000a7	8b ce		 mov	 ecx, esi
  000a9	e8 00 00 00 00	 call	 ?Clear@CMail@@QAEXXZ	; CMail::Clear

; 311  : 			pMail->Serialize( ar, TRUE );

  000ae	6a 01		 push	 1
  000b0	57		 push	 edi
  000b1	8b ce		 mov	 ecx, esi
  000b3	e8 00 00 00 00	 call	 ?Serialize@CMail@@QAEXAAVCAr@@H@Z ; CMail::Serialize

; 312  : 		}

  000b8	e9 bd 00 00 00	 jmp	 $LN28@ReadReq
$LN5@ReadReq:

; 313  : 		else
; 314  : 		{
; 315  : 			CMail* pNewMail = new CMail;

  000bd	68 3c 01 00 00	 push	 316			; 0000013cH
  000c2	e8 00 00 00 00	 call	 ??2@YAPAXI@Z		; operator new
  000c7	83 c4 04	 add	 esp, 4
  000ca	89 85 a8 fe ff
	ff		 mov	 DWORD PTR $T3[ebp], eax
  000d0	85 c0		 test	 eax, eax
  000d2	74 4c		 je	 SHORT $LN10@ReadReq
  000d4	8b c8		 mov	 ecx, eax
  000d6	e8 00 00 00 00	 call	 ??0CMail@@QAE@XZ	; CMail::CMail
  000db	8b f0		 mov	 esi, eax
  000dd	89 b5 a8 fe ff
	ff		 mov	 DWORD PTR _pNewMail$2[ebp], esi
  000e3	85 f6		 test	 esi, esi

; 316  : 			if( pNewMail != NULL )

  000e5	74 43		 je	 SHORT $LN7@ReadReq

; 317  : 			{
; 318  : 				pNewMail->Clear();

  000e7	8b ce		 mov	 ecx, esi
  000e9	e8 00 00 00 00	 call	 ?Clear@CMail@@QAEXXZ	; CMail::Clear

; 319  : 				pNewMail->Serialize( ar, TRUE );

  000ee	6a 01		 push	 1
  000f0	57		 push	 edi
  000f1	8b ce		 mov	 ecx, esi
  000f3	e8 00 00 00 00	 call	 ?Serialize@CMail@@QAEXAAVCAr@@H@Z ; CMail::Serialize

; 320  : 				push_back( pNewMail );

  000f8	8b 95 b0 fe ff
	ff		 mov	 edx, DWORD PTR _this$GSCopy$1$[ebp]
; File C:\Program Files\Microsoft Visual Studio\2022\Professional\VC\Tools\MSVC\14.44.35207\include\vector

; 844  :         if (_Mylast != _My_data._Myend) {

  000fe	8b 42 08	 mov	 eax, DWORD PTR [edx+8]
; File C:\IAGOS\server\v18\Source\Source\_Common\post.cpp

; 320  : 				push_back( pNewMail );

  00101	8d 4a 04	 lea	 ecx, DWORD PTR [edx+4]
; File C:\Program Files\Microsoft Visual Studio\2022\Professional\VC\Tools\MSVC\14.44.35207\include\vector

; 844  :         if (_Mylast != _My_data._Myend) {

  00104	3b 41 08	 cmp	 eax, DWORD PTR [ecx+8]
  00107	74 08		 je	 SHORT $LN17@ReadReq

; 860  :             _STD _Construct_in_place(*_Mylast, _STD forward<_Valty>(_Val)...);

  00109	89 30		 mov	 DWORD PTR [eax], esi

; 861  :         } else {
; 862  :             _ASAN_VECTOR_EXTEND_GUARD(static_cast<size_type>(_Mylast - _My_data._Myfirst) + 1);
; 863  :             _Alty_traits::construct(_Getal(), _Unfancy(_Mylast), _STD forward<_Valty>(_Val)...);
; 864  :             _ASAN_VECTOR_RELEASE_GUARD;
; 865  :         }
; 866  : 
; 867  :         _Orphan_range(_Mylast, _Mylast);
; 868  :         _Ty& _Result = *_Mylast;
; 869  :         ++_Mylast;

  0010b	83 41 04 04	 add	 DWORD PTR [ecx+4], 4

; 845  :             return _Emplace_back_with_unused_capacity(_STD forward<_Valty>(_Val)...);

  0010f	eb 6f		 jmp	 SHORT $LN2@ReadReq
$LN17@ReadReq:

; 846  :         }
; 847  : 
; 848  :         return *_Emplace_reallocate(_Mylast, _STD forward<_Valty>(_Val)...);

  00111	8d 95 a8 fe ff
	ff		 lea	 edx, DWORD PTR _pNewMail$2[ebp]
  00117	52		 push	 edx
  00118	50		 push	 eax
  00119	e8 00 00 00 00	 call	 ??$_Emplace_reallocate@ABQAVCMail@@@?$vector@PAVCMail@@V?$allocator@PAVCMail@@@std@@@std@@AAEPAPAVCMail@@QAPAV2@ABQAV2@@Z ; std::vector<CMail *,std::allocator<CMail *> >::_Emplace_reallocate<CMail * const &>
; File C:\IAGOS\server\v18\Source\Source\_Common\post.cpp

; 321  : 			}

  0011e	eb 5a		 jmp	 SHORT $LN28@ReadReq
$LN10@ReadReq:

; 313  : 		else
; 314  : 		{
; 315  : 			CMail* pNewMail = new CMail;

  00120	c7 85 a8 fe ff
	ff 00 00 00 00	 mov	 DWORD PTR _pNewMail$2[ebp], 0
$LN7@ReadReq:

; 322  : 			else
; 323  : 			{
; 324  : 				Error( "CMailBox::ReadReq - New Failed. nMail : %d", nMail );

  0012a	ff b5 ac fe ff
	ff		 push	 DWORD PTR _nMail$4[ebp]
  00130	68 00 00 00 00	 push	 OFFSET ??_C@_0CL@NLKIBIJJ@CMailBox?3?3ReadReq?5?9?5New?5Failed?4@
  00135	e8 00 00 00 00	 call	 ?Error@@YAPBDPBDZZ	; Error
  0013a	83 c4 08	 add	 esp, 8

; 325  : 				CMail temp;

  0013d	8d 8d b4 fe ff
	ff		 lea	 ecx, DWORD PTR _temp$5[ebp]
  00143	e8 00 00 00 00	 call	 ??0CMail@@QAE@XZ	; CMail::CMail

; 326  : 				temp.Clear();

  00148	8d 8d b4 fe ff
	ff		 lea	 ecx, DWORD PTR _temp$5[ebp]
  0014e	c7 45 fc 00 00
	00 00		 mov	 DWORD PTR __$EHRec$[ebp+8], 0
  00155	e8 00 00 00 00	 call	 ?Clear@CMail@@QAEXXZ	; CMail::Clear

; 327  : 				temp.Serialize( ar, TRUE );

  0015a	6a 01		 push	 1
  0015c	57		 push	 edi
  0015d	8d 8d b4 fe ff
	ff		 lea	 ecx, DWORD PTR _temp$5[ebp]
  00163	e8 00 00 00 00	 call	 ?Serialize@CMail@@QAEXAAVCAr@@H@Z ; CMail::Serialize

; 328  : 			}

  00168	8d 8d b4 fe ff
	ff		 lea	 ecx, DWORD PTR _temp$5[ebp]
  0016e	c7 45 fc ff ff
	ff ff		 mov	 DWORD PTR __$EHRec$[ebp+8], -1
  00175	e8 00 00 00 00	 call	 ??1CMail@@UAE@XZ	; CMail::~CMail
$LN28@ReadReq:

; 299  : 
; 300  : 	for( int i = 0; i < nSize; i++ )

  0017a	8b 95 b0 fe ff
	ff		 mov	 edx, DWORD PTR _this$GSCopy$1$[ebp]
$LN2@ReadReq:
  00180	83 eb 01	 sub	 ebx, 1
  00183	0f 85 f7 fe ff
	ff		 jne	 $LL26@ReadReq

; 329  : 		}
; 330  : 	}
; 331  : 	m_nStatus	= CMailBox::data;

  00189	c7 42 14 02 00
	00 00		 mov	 DWORD PTR [edx+20], 2
  00190	e9 c3 fe ff ff	 jmp	 $LN3@ReadReq
_TEXT	ENDS
;	COMDAT text$x
text$x	SEGMENT
__unwindfunclet$?ReadReq@CMailBox@@QAEXAAVCAr@@@Z$1:
  00000	8d 8d b4 fe ff
	ff		 lea	 ecx, DWORD PTR _temp$5[ebp]
  00006	e9 00 00 00 00	 jmp	 ??1CMail@@UAE@XZ	; CMail::~CMail
  0000b	cc		 int	 3
  0000c	cc		 int	 3
  0000d	cc		 int	 3
  0000e	cc		 int	 3
  0000f	cc		 int	 3
__ehhandler$?ReadReq@CMailBox@@QAEXAAVCAr@@@Z:
  00010	90		 npad	 1
  00011	90		 npad	 1
  00012	8b 54 24 08	 mov	 edx, DWORD PTR [esp+8]
  00016	8d 42 0c	 lea	 eax, DWORD PTR [edx+12]
  00019	8b 8a a4 fe ff
	ff		 mov	 ecx, DWORD PTR [edx-348]
  0001f	33 c8		 xor	 ecx, eax
  00021	e8 00 00 00 00	 call	 @__security_check_cookie@4
  00026	8b 4a fc	 mov	 ecx, DWORD PTR [edx-4]
  00029	33 c8		 xor	 ecx, eax
  0002b	e8 00 00 00 00	 call	 @__security_check_cookie@4
  00030	b8 00 00 00 00	 mov	 eax, OFFSET __ehfuncinfo$?ReadReq@CMailBox@@QAEXAAVCAr@@@Z
  00035	e9 00 00 00 00	 jmp	 ___CxxFrameHandler3
text$x	ENDS
?ReadReq@CMailBox@@QAEXAAVCAr@@@Z ENDP			; CMailBox::ReadReq
; Function compile flags: /Ogtp
; File C:\IAGOS\server\v18\Source\Source\_Common\post.cpp
; File C:\Program Files\Microsoft Visual Studio\2022\Professional\VC\Tools\MSVC\14.44.35207\include\vector
; File C:\IAGOS\server\v18\Source\Source\_Common\post.cpp
;	COMDAT ?Read@CMailBox@@QAEXAAVCAr@@@Z
_TEXT	SEGMENT
_nMail$2 = -348						; size = 4
_pNewMail$3 = -344					; size = 4
$T4 = -344						; size = 4
_this$GSCopy$1$ = -340					; size = 4
_nSize$ = -336						; size = 4
_nSize$1$ = -336					; size = 4
_temp$ = -332						; size = 316
__$ArrayPad$ = -16					; size = 4
__$EHRec$ = -12						; size = 12
_ar$ = 8						; size = 4
?Read@CMailBox@@QAEXAAVCAr@@@Z PROC			; CMailBox::Read, COMDAT
; _this$ = ecx

; 249  : {

  00000	55		 push	 ebp
  00001	8b ec		 mov	 ebp, esp
  00003	6a ff		 push	 -1
  00005	68 00 00 00 00	 push	 __ehhandler$?Read@CMailBox@@QAEXAAVCAr@@@Z
  0000a	64 a1 00 00 00
	00		 mov	 eax, DWORD PTR fs:0
  00010	50		 push	 eax
  00011	81 ec 50 01 00
	00		 sub	 esp, 336		; 00000150H
  00017	a1 00 00 00 00	 mov	 eax, DWORD PTR ___security_cookie
  0001c	33 c5		 xor	 eax, ebp
  0001e	89 45 f0	 mov	 DWORD PTR __$ArrayPad$[ebp], eax
  00021	53		 push	 ebx
  00022	56		 push	 esi
  00023	57		 push	 edi
  00024	50		 push	 eax
  00025	8d 45 f4	 lea	 eax, DWORD PTR __$EHRec$[ebp]
  00028	64 a3 00 00 00
	00		 mov	 DWORD PTR fs:0, eax
  0002e	8b f1		 mov	 esi, ecx
  00030	89 b5 ac fe ff
	ff		 mov	 DWORD PTR _this$GSCopy$1$[ebp], esi
  00036	8b 5d 08	 mov	 ebx, DWORD PTR _ar$[ebp]

; 250  : 	int nSize;
; 251  : 	ar >> nSize;

  00039	8d 85 b0 fe ff
	ff		 lea	 eax, DWORD PTR _nSize$[ebp]
  0003f	50		 push	 eax
  00040	8b cb		 mov	 ecx, ebx
  00042	e8 00 00 00 00	 call	 ??$?5H@CAr@@QAEAAV0@AAH@Z ; CAr::operator>><int>

; 252  : 	CMail temp;

  00047	8d 8d b4 fe ff
	ff		 lea	 ecx, DWORD PTR _temp$[ebp]
  0004d	e8 00 00 00 00	 call	 ??0CMail@@QAE@XZ	; CMail::CMail

; 253  : 	for( int i = 0; i < nSize; i++ )

  00052	8b 85 b0 fe ff
	ff		 mov	 eax, DWORD PTR _nSize$[ebp]
  00058	c7 45 fc 00 00
	00 00		 mov	 DWORD PTR __$EHRec$[ebp+8], 0
  0005f	89 85 b0 fe ff
	ff		 mov	 DWORD PTR _nSize$1$[ebp], eax
  00065	85 c0		 test	 eax, eax
  00067	0f 8e e5 00 00
	00		 jle	 $LN3@Read
  0006d	0f 1f 00	 npad	 3
$LL4@Read:

; 254  : 	{
; 255  : 		u_long nMail;
; 256  : 		ar >> nMail;

  00070	8d 85 a4 fe ff
	ff		 lea	 eax, DWORD PTR _nMail$2[ebp]
  00076	8b cb		 mov	 ecx, ebx
  00078	50		 push	 eax
  00079	e8 00 00 00 00	 call	 ??$?5K@CAr@@QAEAAV0@AAK@Z ; CAr::operator>><unsigned long>

; 257  : 		CMail* pMail	= GetMail( nMail );

  0007e	8b bd a4 fe ff
	ff		 mov	 edi, DWORD PTR _nMail$2[ebp]
  00084	8b ce		 mov	 ecx, esi
  00086	57		 push	 edi
  00087	e8 00 00 00 00	 call	 ?GetMail@CMailBox@@QAEPAVCMail@@K@Z ; CMailBox::GetMail
  0008c	8b f0		 mov	 esi, eax

; 258  : 		if( pMail )

  0008e	85 f6		 test	 esi, esi
  00090	74 0e		 je	 SHORT $LN5@Read

; 259  : 		{
; 260  : // 			//	BEGINTEST
; 261  : // 			Error( "CMailBox::Read " );
; 262  : 
; 263  : 			pMail->Clear();

  00092	8b ce		 mov	 ecx, esi
  00094	e8 00 00 00 00	 call	 ?Clear@CMail@@QAEXXZ	; CMail::Clear

; 264  : 			pMail->Serialize( ar, TRUE );

  00099	8b ce		 mov	 ecx, esi

; 265  : 		}

  0009b	e9 97 00 00 00	 jmp	 $LN26@Read
$LN5@Read:

; 266  : 		else
; 267  : 		{
; 268  : 
; 269  : // 			//	BEGINTEST
; 270  : // 			Error( "CMailBox::Read pMail == NULL" );
; 271  : 
; 272  : 			// mail not found
; 273  : 			Error( "CMailBox::Read - GetMail return NULL. nMail : %d", nMail );

  000a0	57		 push	 edi
  000a1	68 00 00 00 00	 push	 OFFSET ??_C@_0DB@MPAFHBHH@CMailBox?3?3Read?5?9?5GetMail?5return@
  000a6	e8 00 00 00 00	 call	 ?Error@@YAPBDPBDZZ	; Error

; 274  : 			//temp.Clear();
; 275  : 			//temp.Serialize( ar, TRUE );
; 276  : 			CMail* pNewMail = new CMail;

  000ab	68 3c 01 00 00	 push	 316			; 0000013cH
  000b0	e8 00 00 00 00	 call	 ??2@YAPAXI@Z		; operator new
  000b5	83 c4 0c	 add	 esp, 12			; 0000000cH
  000b8	89 85 a8 fe ff
	ff		 mov	 DWORD PTR $T4[ebp], eax
  000be	85 c0		 test	 eax, eax
  000c0	74 4c		 je	 SHORT $LN10@Read
  000c2	8b c8		 mov	 ecx, eax
  000c4	e8 00 00 00 00	 call	 ??0CMail@@QAE@XZ	; CMail::CMail
  000c9	8b f0		 mov	 esi, eax
  000cb	89 b5 a8 fe ff
	ff		 mov	 DWORD PTR _pNewMail$3[ebp], esi
  000d1	85 f6		 test	 esi, esi

; 277  : 			if( pNewMail != NULL )

  000d3	74 43		 je	 SHORT $LN7@Read

; 278  : 			{
; 279  : 				pNewMail->Clear();

  000d5	8b ce		 mov	 ecx, esi
  000d7	e8 00 00 00 00	 call	 ?Clear@CMail@@QAEXXZ	; CMail::Clear

; 280  : 				pNewMail->Serialize( ar, TRUE );

  000dc	6a 01		 push	 1
  000de	53		 push	 ebx
  000df	8b ce		 mov	 ecx, esi
  000e1	e8 00 00 00 00	 call	 ?Serialize@CMail@@QAEXAAVCAr@@H@Z ; CMail::Serialize

; 281  : 				push_back( pNewMail );

  000e6	8b 8d ac fe ff
	ff		 mov	 ecx, DWORD PTR _this$GSCopy$1$[ebp]
  000ec	83 c1 04	 add	 ecx, 4
; File C:\Program Files\Microsoft Visual Studio\2022\Professional\VC\Tools\MSVC\14.44.35207\include\vector

; 844  :         if (_Mylast != _My_data._Myend) {

  000ef	8b 41 04	 mov	 eax, DWORD PTR [ecx+4]
  000f2	3b 41 08	 cmp	 eax, DWORD PTR [ecx+8]
  000f5	74 08		 je	 SHORT $LN17@Read

; 860  :             _STD _Construct_in_place(*_Mylast, _STD forward<_Valty>(_Val)...);

  000f7	89 30		 mov	 DWORD PTR [eax], esi

; 861  :         } else {
; 862  :             _ASAN_VECTOR_EXTEND_GUARD(static_cast<size_type>(_Mylast - _My_data._Myfirst) + 1);
; 863  :             _Alty_traits::construct(_Getal(), _Unfancy(_Mylast), _STD forward<_Valty>(_Val)...);
; 864  :             _ASAN_VECTOR_RELEASE_GUARD;
; 865  :         }
; 866  : 
; 867  :         _Orphan_range(_Mylast, _Mylast);
; 868  :         _Ty& _Result = *_Mylast;
; 869  :         ++_Mylast;

  000f9	83 41 04 04	 add	 DWORD PTR [ecx+4], 4

; 845  :             return _Emplace_back_with_unused_capacity(_STD forward<_Valty>(_Val)...);

  000fd	eb 40		 jmp	 SHORT $LN2@Read
$LN17@Read:

; 846  :         }
; 847  : 
; 848  :         return *_Emplace_reallocate(_Mylast, _STD forward<_Valty>(_Val)...);

  000ff	8d 95 a8 fe ff
	ff		 lea	 edx, DWORD PTR _pNewMail$3[ebp]
  00105	52		 push	 edx
  00106	50		 push	 eax
  00107	e8 00 00 00 00	 call	 ??$_Emplace_reallocate@ABQAVCMail@@@?$vector@PAVCMail@@V?$allocator@PAVCMail@@@std@@@std@@AAEPAPAVCMail@@QAPAV2@ABQAV2@@Z ; std::vector<CMail *,std::allocator<CMail *> >::_Emplace_reallocate<CMail * const &>
; File C:\IAGOS\server\v18\Source\Source\_Common\post.cpp

; 283  : 			}

  0010c	eb 31		 jmp	 SHORT $LN2@Read
$LN10@Read:

; 274  : 			//temp.Clear();
; 275  : 			//temp.Serialize( ar, TRUE );
; 276  : 			CMail* pNewMail = new CMail;

  0010e	c7 85 a8 fe ff
	ff 00 00 00 00	 mov	 DWORD PTR _pNewMail$3[ebp], 0
$LN7@Read:

; 284  : 			else
; 285  : 			{
; 286  : 				Error( "CMailBox::Read - Create NewMail Failed. nMail : %d", nMail );

  00118	57		 push	 edi
  00119	68 00 00 00 00	 push	 OFFSET ??_C@_0DD@KNAHADMB@CMailBox?3?3Read?5?9?5Create?5NewMail@
  0011e	e8 00 00 00 00	 call	 ?Error@@YAPBDPBDZZ	; Error
  00123	83 c4 08	 add	 esp, 8

; 287  : 				temp.Clear();

  00126	8d 8d b4 fe ff
	ff		 lea	 ecx, DWORD PTR _temp$[ebp]
  0012c	e8 00 00 00 00	 call	 ?Clear@CMail@@QAEXXZ	; CMail::Clear

; 288  : 				temp.Serialize( ar, TRUE );

  00131	8d 8d b4 fe ff
	ff		 lea	 ecx, DWORD PTR _temp$[ebp]
$LN26@Read:

; 253  : 	for( int i = 0; i < nSize; i++ )

  00137	6a 01		 push	 1
  00139	53		 push	 ebx
  0013a	e8 00 00 00 00	 call	 ?Serialize@CMail@@QAEXAAVCAr@@H@Z ; CMail::Serialize
$LN2@Read:
  0013f	83 ad b0 fe ff
	ff 01		 sub	 DWORD PTR _nSize$1$[ebp], 1
  00146	8b b5 ac fe ff
	ff		 mov	 esi, DWORD PTR _this$GSCopy$1$[ebp]
  0014c	0f 85 1e ff ff
	ff		 jne	 $LL4@Read
$LN3@Read:

; 289  : 			}
; 290  : 		}
; 291  : 	}
; 292  : 	m_nStatus	= CMailBox::data;
; 293  : }

  00152	8d 8d b4 fe ff
	ff		 lea	 ecx, DWORD PTR _temp$[ebp]
  00158	c7 46 14 02 00
	00 00		 mov	 DWORD PTR [esi+20], 2
  0015f	e8 00 00 00 00	 call	 ??1CMail@@UAE@XZ	; CMail::~CMail
  00164	8b 4d f4	 mov	 ecx, DWORD PTR __$EHRec$[ebp]
  00167	64 89 0d 00 00
	00 00		 mov	 DWORD PTR fs:0, ecx
  0016e	59		 pop	 ecx
  0016f	5f		 pop	 edi
  00170	5e		 pop	 esi
  00171	5b		 pop	 ebx
  00172	8b 4d f0	 mov	 ecx, DWORD PTR __$ArrayPad$[ebp]
  00175	33 cd		 xor	 ecx, ebp
  00177	e8 00 00 00 00	 call	 @__security_check_cookie@4
  0017c	8b e5		 mov	 esp, ebp
  0017e	5d		 pop	 ebp
  0017f	c2 04 00	 ret	 4
_TEXT	ENDS
;	COMDAT text$x
text$x	SEGMENT
__unwindfunclet$?Read@CMailBox@@QAEXAAVCAr@@@Z$0:
  00000	8d 8d b4 fe ff
	ff		 lea	 ecx, DWORD PTR _temp$[ebp]
  00006	e9 00 00 00 00	 jmp	 ??1CMail@@UAE@XZ	; CMail::~CMail
  0000b	cc		 int	 3
  0000c	cc		 int	 3
  0000d	cc		 int	 3
  0000e	cc		 int	 3
  0000f	cc		 int	 3
__ehhandler$?Read@CMailBox@@QAEXAAVCAr@@@Z:
  00010	90		 npad	 1
  00011	90		 npad	 1
  00012	8b 54 24 08	 mov	 edx, DWORD PTR [esp+8]
  00016	8d 42 0c	 lea	 eax, DWORD PTR [edx+12]
  00019	8b 8a a0 fe ff
	ff		 mov	 ecx, DWORD PTR [edx-352]
  0001f	33 c8		 xor	 ecx, eax
  00021	e8 00 00 00 00	 call	 @__security_check_cookie@4
  00026	8b 4a fc	 mov	 ecx, DWORD PTR [edx-4]
  00029	33 c8		 xor	 ecx, eax
  0002b	e8 00 00 00 00	 call	 @__security_check_cookie@4
  00030	b8 00 00 00 00	 mov	 eax, OFFSET __ehfuncinfo$?Read@CMailBox@@QAEXAAVCAr@@@Z
  00035	e9 00 00 00 00	 jmp	 ___CxxFrameHandler3
text$x	ENDS
?Read@CMailBox@@QAEXAAVCAr@@@Z ENDP			; CMailBox::Read
; Function compile flags: /Ogtp
; File C:\IAGOS\server\v18\Source\Source\_Common\post.cpp
; File C:\IAGOS\server\v18\Source\Source\_Network\Misc\Include\ar.h
; File C:\IAGOS\server\v18\Source\Source\_Common\post.cpp
; File C:\IAGOS\server\v18\Source\Source\_Network\Misc\Include\ar.h
; File C:\IAGOS\server\v18\Source\Source\_Common\post.cpp
; File C:\Program Files\Microsoft Visual Studio\2022\Professional\VC\Tools\MSVC\14.44.35207\include\vector
; File C:\IAGOS\server\v18\Source\Source\_Common\post.cpp
; File C:\Program Files\Microsoft Visual Studio\2022\Professional\VC\Tools\MSVC\14.44.35207\include\vector
; File C:\IAGOS\server\v18\Source\Source\_Common\post.cpp
; File C:\Program Files\Microsoft Visual Studio\2022\Professional\VC\Tools\MSVC\14.44.35207\include\vector
; File C:\IAGOS\server\v18\Source\Source\_Common\post.cpp
; File C:\Program Files\Microsoft Visual Studio\2022\Professional\VC\Tools\MSVC\14.44.35207\include\vector
; File C:\IAGOS\server\v18\Source\Source\_Common\post.cpp
;	COMDAT ?Serialize@CMailBox@@QAEXAAVCAr@@H@Z
_TEXT	SEGMENT
$T1 = -4						; size = 4
_ar$ = 8						; size = 4
$T2 = 8							; size = 4
_nSize$3 = 8						; size = 4
_nSize$1$ = 8						; size = 4
_bData$ = 12						; size = 4
?Serialize@CMailBox@@QAEXAAVCAr@@H@Z PROC		; CMailBox::Serialize, COMDAT
; _this$ = ecx

; 336  : {

  00000	55		 push	 ebp
  00001	8b ec		 mov	 ebp, esp
  00003	51		 push	 ecx
  00004	53		 push	 ebx
  00005	56		 push	 esi
  00006	57		 push	 edi
; File C:\IAGOS\server\v18\Source\Source\_Network\Misc\Include\ar.h

; 146  : 	return (m_nMode & CAr::load) == 0;

  00007	8b 7d 08	 mov	 edi, DWORD PTR _ar$[ebp]
; File C:\IAGOS\server\v18\Source\Source\_Common\post.cpp

; 336  : {

  0000a	8b d9		 mov	 ebx, ecx
; File C:\IAGOS\server\v18\Source\Source\_Network\Misc\Include\ar.h

; 146  : 	return (m_nMode & CAr::load) == 0;

  0000c	f6 07 01	 test	 BYTE PTR [edi], 1
  0000f	8d 73 10	 lea	 esi, DWORD PTR [ebx+16]
; File C:\IAGOS\server\v18\Source\Source\_Common\post.cpp

; 337  : 	if( ar.IsStoring() )

  00012	75 48		 jne	 SHORT $LN8@Serialize

; 338  : 	{
; 339  : 		ar << m_idReceiver;

  00014	56		 push	 esi
  00015	8b cf		 mov	 ecx, edi
  00017	e8 00 00 00 00	 call	 ??$?6K@CAr@@QAEAAV0@ABK@Z ; CAr::operator<<<unsigned long>
; File C:\Program Files\Microsoft Visual Studio\2022\Professional\VC\Tools\MSVC\14.44.35207\include\vector

; 1915 :         return static_cast<size_type>(_My_data._Mylast - _My_data._Myfirst);

  0001c	8b 43 08	 mov	 eax, DWORD PTR [ebx+8]
; File C:\IAGOS\server\v18\Source\Source\_Common\post.cpp

; 340  : 		ar << (int)size();

  0001f	8b cf		 mov	 ecx, edi
; File C:\Program Files\Microsoft Visual Studio\2022\Professional\VC\Tools\MSVC\14.44.35207\include\vector

; 1915 :         return static_cast<size_type>(_My_data._Mylast - _My_data._Myfirst);

  00021	2b 43 04	 sub	 eax, DWORD PTR [ebx+4]
  00024	c1 f8 02	 sar	 eax, 2
; File C:\IAGOS\server\v18\Source\Source\_Common\post.cpp

; 340  : 		ar << (int)size();

  00027	89 45 08	 mov	 DWORD PTR $T2[ebp], eax
  0002a	8d 45 08	 lea	 eax, DWORD PTR $T2[ebp]
  0002d	50		 push	 eax
  0002e	e8 00 00 00 00	 call	 ??$?6H@CAr@@QAEAAV0@ABH@Z ; CAr::operator<<<int>
; File C:\Program Files\Microsoft Visual Studio\2022\Professional\VC\Tools\MSVC\14.44.35207\include\vector

; 46   :     _CONSTEXPR20 _Vector_const_iterator(_Tptr _Parg, const _Container_base* _Pvector) noexcept : _Ptr(_Parg) {

  00033	8b 73 04	 mov	 esi, DWORD PTR [ebx+4]

; 176  :         return !(*this == _Right);

  00036	3b 73 08	 cmp	 esi, DWORD PTR [ebx+8]
; File C:\IAGOS\server\v18\Source\Source\_Common\post.cpp

; 341  : 		for( MailVectorItr i = begin(); i != end(); ++i )

  00039	74 7f		 je	 SHORT $LN6@Serialize
  0003b	0f 1f 44 00 00	 npad	 5
$LL4@Serialize:

; 342  : 		{
; 343  : 			CMail* pMail	= *i;
; 344  : 			pMail->Serialize( ar, bData );

  00040	ff 75 0c	 push	 DWORD PTR _bData$[ebp]
  00043	8b 0e		 mov	 ecx, DWORD PTR [esi]
  00045	57		 push	 edi
  00046	e8 00 00 00 00	 call	 ?Serialize@CMail@@QAEXAAVCAr@@H@Z ; CMail::Serialize
; File C:\Program Files\Microsoft Visual Studio\2022\Professional\VC\Tools\MSVC\14.44.35207\include\vector

; 82   :         ++_Ptr;

  0004b	83 c6 04	 add	 esi, 4

; 176  :         return !(*this == _Right);

  0004e	3b 73 08	 cmp	 esi, DWORD PTR [ebx+8]
; File C:\IAGOS\server\v18\Source\Source\_Common\post.cpp

; 341  : 		for( MailVectorItr i = begin(); i != end(); ++i )

  00051	75 ed		 jne	 SHORT $LL4@Serialize

; 364  : 		}
; 365  : 	}
; 366  : }

  00053	5f		 pop	 edi
  00054	5e		 pop	 esi
  00055	5b		 pop	 ebx
  00056	8b e5		 mov	 esp, ebp
  00058	5d		 pop	 ebp
  00059	c2 08 00	 ret	 8
$LN8@Serialize:

; 345  : 		}
; 346  : 	}
; 347  : 	else
; 348  : 	{
; 349  : 		Clear();

  0005c	e8 00 00 00 00	 call	 ?Clear@CMailBox@@QAEXXZ	; CMailBox::Clear

; 350  : 		ar >> m_idReceiver;

  00061	56		 push	 esi
  00062	8b cf		 mov	 ecx, edi
  00064	e8 00 00 00 00	 call	 ??$?5K@CAr@@QAEAAV0@AAK@Z ; CAr::operator>><unsigned long>

; 351  : 		int nSize;
; 352  : 		ar >> nSize;

  00069	8d 45 08	 lea	 eax, DWORD PTR _nSize$3[ebp]
  0006c	8b cf		 mov	 ecx, edi
  0006e	50		 push	 eax
  0006f	e8 00 00 00 00	 call	 ??$?5H@CAr@@QAEAAV0@AAH@Z ; CAr::operator>><int>

; 353  : 
; 354  : #ifdef __MAIL_REQUESTING_BOX
; 355  : 		if( g_WndMng.m_bWaitRequestMail && nSize <= 0 )
; 356  : 			g_DPlay.SendQueryMailBox();
; 357  : #endif //__MAIL_REQUESTING_BOX
; 358  : 
; 359  : 		for( int i = 0; i < nSize; i++ )

  00074	8b 45 08	 mov	 eax, DWORD PTR _nSize$3[ebp]
  00077	89 45 08	 mov	 DWORD PTR _nSize$1$[ebp], eax
  0007a	85 c0		 test	 eax, eax
  0007c	7e 3c		 jle	 SHORT $LN6@Serialize
  0007e	66 90		 npad	 2
$LL7@Serialize:

; 360  : 		{
; 361  : 			CMail* pMail	= new CMail;

  00080	68 3c 01 00 00	 push	 316			; 0000013cH
  00085	e8 00 00 00 00	 call	 ??2@YAPAXI@Z		; operator new
  0008a	83 c4 04	 add	 esp, 4
  0008d	89 45 fc	 mov	 DWORD PTR $T1[ebp], eax
  00090	85 c0		 test	 eax, eax
  00092	74 0b		 je	 SHORT $LN11@Serialize
  00094	8b c8		 mov	 ecx, eax
  00096	e8 00 00 00 00	 call	 ??0CMail@@QAE@XZ	; CMail::CMail
  0009b	8b f0		 mov	 esi, eax
  0009d	eb 02		 jmp	 SHORT $LN12@Serialize
$LN11@Serialize:
  0009f	33 f6		 xor	 esi, esi
$LN12@Serialize:

; 362  : 			pMail->Serialize( ar, bData );

  000a1	ff 75 0c	 push	 DWORD PTR _bData$[ebp]
  000a4	8b ce		 mov	 ecx, esi
  000a6	57		 push	 edi
  000a7	e8 00 00 00 00	 call	 ?Serialize@CMail@@QAEXAAVCAr@@H@Z ; CMail::Serialize

; 363  : 			AddMail( pMail );

  000ac	56		 push	 esi
  000ad	8b cb		 mov	 ecx, ebx
  000af	e8 00 00 00 00	 call	 ?AddMail@CMailBox@@QAEKPAVCMail@@@Z ; CMailBox::AddMail
  000b4	83 6d 08 01	 sub	 DWORD PTR _nSize$1$[ebp], 1
  000b8	75 c6		 jne	 SHORT $LL7@Serialize
$LN6@Serialize:
  000ba	5f		 pop	 edi

; 364  : 		}
; 365  : 	}
; 366  : }

  000bb	5e		 pop	 esi
  000bc	5b		 pop	 ebx
  000bd	8b e5		 mov	 esp, ebp
  000bf	5d		 pop	 ebp
  000c0	c2 08 00	 ret	 8
?Serialize@CMailBox@@QAEXAAVCAr@@H@Z ENDP		; CMailBox::Serialize
_TEXT	ENDS
; Function compile flags: /Ogtp
; File C:\IAGOS\server\v18\Source\Source\_Common\post.cpp
; File C:\Program Files\Microsoft Visual Studio\2022\Professional\VC\Tools\MSVC\14.44.35207\include\vector
; File C:\IAGOS\server\v18\Source\Source\_Common\post.cpp
; File C:\Program Files\Microsoft Visual Studio\2022\Professional\VC\Tools\MSVC\14.44.35207\include\vector
; File C:\IAGOS\server\v18\Source\Source\_Common\post.cpp
; File C:\Program Files\Microsoft Visual Studio\2022\Professional\VC\Tools\MSVC\14.44.35207\include\vector
; File C:\IAGOS\server\v18\Source\Source\_Common\post.cpp
;	COMDAT ?AddMail@CMailBox@@QAEKPAVCMail@@@Z
_TEXT	SEGMENT
_pMail$ = 8						; size = 4
?AddMail@CMailBox@@QAEKPAVCMail@@@Z PROC		; CMailBox::AddMail, COMDAT
; _this$ = ecx

; 200  : {

  00000	55		 push	 ebp
  00001	8b ec		 mov	 ebp, esp
  00003	56		 push	 esi

; 201  : 	if( 0 == pMail->m_nMail )

  00004	8b 75 08	 mov	 esi, DWORD PTR _pMail$[ebp]
  00007	8b 46 04	 mov	 eax, DWORD PTR [esi+4]
  0000a	85 c0		 test	 eax, eax
  0000c	75 10		 jne	 SHORT $LN2@AddMail

; 202  : 		pMail->m_nMail	= ++CMail::s_nMail;

  0000e	a1 00 00 00 00	 mov	 eax, DWORD PTR ?s_nMail@CMail@@2KA ; CMail::s_nMail
  00013	40		 inc	 eax
  00014	a3 00 00 00 00	 mov	 DWORD PTR ?s_nMail@CMail@@2KA, eax ; CMail::s_nMail
  00019	89 46 04	 mov	 DWORD PTR [esi+4], eax
  0001c	eb 05		 jmp	 SHORT $LN3@AddMail
$LN2@AddMail:

; 203  : 	else
; 204  : 		CMail::s_nMail	= pMail->m_nMail;

  0001e	a3 00 00 00 00	 mov	 DWORD PTR ?s_nMail@CMail@@2KA, eax ; CMail::s_nMail
$LN3@AddMail:
; File C:\Program Files\Microsoft Visual Studio\2022\Professional\VC\Tools\MSVC\14.44.35207\include\vector

; 844  :         if (_Mylast != _My_data._Myend) {

  00023	8b 41 08	 mov	 eax, DWORD PTR [ecx+8]
; File C:\IAGOS\server\v18\Source\Source\_Common\post.cpp

; 210  : 	push_back( pMail );

  00026	83 c1 04	 add	 ecx, 4
; File C:\Program Files\Microsoft Visual Studio\2022\Professional\VC\Tools\MSVC\14.44.35207\include\vector

; 844  :         if (_Mylast != _My_data._Myend) {

  00029	3b 41 08	 cmp	 eax, DWORD PTR [ecx+8]
  0002c	74 0e		 je	 SHORT $LN8@AddMail

; 860  :             _STD _Construct_in_place(*_Mylast, _STD forward<_Valty>(_Val)...);

  0002e	89 30		 mov	 DWORD PTR [eax], esi

; 861  :         } else {
; 862  :             _ASAN_VECTOR_EXTEND_GUARD(static_cast<size_type>(_Mylast - _My_data._Myfirst) + 1);
; 863  :             _Alty_traits::construct(_Getal(), _Unfancy(_Mylast), _STD forward<_Valty>(_Val)...);
; 864  :             _ASAN_VECTOR_RELEASE_GUARD;
; 865  :         }
; 866  : 
; 867  :         _Orphan_range(_Mylast, _Mylast);
; 868  :         _Ty& _Result = *_Mylast;
; 869  :         ++_Mylast;

  00030	83 41 04 04	 add	 DWORD PTR [ecx+4], 4
; File C:\IAGOS\server\v18\Source\Source\_Common\post.cpp

; 228  : }

  00034	8b 46 04	 mov	 eax, DWORD PTR [esi+4]
  00037	5e		 pop	 esi
  00038	5d		 pop	 ebp
  00039	c2 04 00	 ret	 4
$LN8@AddMail:
; File C:\Program Files\Microsoft Visual Studio\2022\Professional\VC\Tools\MSVC\14.44.35207\include\vector

; 848  :         return *_Emplace_reallocate(_Mylast, _STD forward<_Valty>(_Val)...);

  0003c	8d 55 08	 lea	 edx, DWORD PTR _pMail$[ebp]
  0003f	52		 push	 edx
  00040	50		 push	 eax
  00041	e8 00 00 00 00	 call	 ??$_Emplace_reallocate@ABQAVCMail@@@?$vector@PAVCMail@@V?$allocator@PAVCMail@@@std@@@std@@AAEPAPAVCMail@@QAPAV2@ABQAV2@@Z ; std::vector<CMail *,std::allocator<CMail *> >::_Emplace_reallocate<CMail * const &>
; File C:\IAGOS\server\v18\Source\Source\_Common\post.cpp

; 228  : }

  00046	8b 46 04	 mov	 eax, DWORD PTR [esi+4]
  00049	5e		 pop	 esi
  0004a	5d		 pop	 ebp
  0004b	c2 04 00	 ret	 4
?AddMail@CMailBox@@QAEKPAVCMail@@@Z ENDP		; CMailBox::AddMail
_TEXT	ENDS
; Function compile flags: /Ogtp
; File C:\IAGOS\server\v18\Source\Source\_Common\post.cpp
;	COMDAT ??1CMailBox@@UAE@XZ
_TEXT	SEGMENT
??1CMailBox@@UAE@XZ PROC				; CMailBox::~CMailBox, COMDAT
; _this$ = ecx

; 175  : {

  00000	56		 push	 esi
  00001	8b f1		 mov	 esi, ecx
  00003	c7 06 00 00 00
	00		 mov	 DWORD PTR [esi], OFFSET ??_7CMailBox@@6B@

; 176  : 	Clear();

  00009	e8 00 00 00 00	 call	 ?Clear@CMailBox@@QAEXXZ	; CMailBox::Clear

; 177  : }

  0000e	8d 4e 04	 lea	 ecx, DWORD PTR [esi+4]
  00011	5e		 pop	 esi
  00012	e9 00 00 00 00	 jmp	 ??1?$vector@PAVCMail@@V?$allocator@PAVCMail@@@std@@@std@@QAE@XZ ; std::vector<CMail *,std::allocator<CMail *> >::~vector<CMail *,std::allocator<CMail *> >
??1CMailBox@@UAE@XZ ENDP				; CMailBox::~CMailBox
_TEXT	ENDS
; Function compile flags: /Ogtp
; File C:\IAGOS\server\v18\Source\Source\_Common\post.cpp
; File C:\Program Files\Microsoft Visual Studio\2022\Professional\VC\Tools\MSVC\14.44.35207\include\vector
; File C:\IAGOS\server\v18\Source\Source\_Common\post.cpp
;	COMDAT ??0CMailBox@@QAE@K@Z
_TEXT	SEGMENT
_this$ = -4						; size = 4
_idReceiver$ = 8					; size = 4
??0CMailBox@@QAE@K@Z PROC				; CMailBox::CMailBox, COMDAT
; _this$ = ecx

; 166  : {

  00000	55		 push	 ebp
  00001	8b ec		 mov	 ebp, esp
  00003	51		 push	 ecx

; 167  : 	m_idReceiver	= idReceiver;

  00004	8b 45 08	 mov	 eax, DWORD PTR _idReceiver$[ebp]
; File C:\Program Files\Microsoft Visual Studio\2022\Professional\VC\Tools\MSVC\14.44.35207\include\vector

; 400  :     _CONSTEXPR20 _Vector_val() noexcept : _Myfirst(), _Mylast(), _Myend() {}

  00007	c7 41 04 00 00
	00 00		 mov	 DWORD PTR [ecx+4], 0
  0000e	c7 41 08 00 00
	00 00		 mov	 DWORD PTR [ecx+8], 0
  00015	c7 41 0c 00 00
	00 00		 mov	 DWORD PTR [ecx+12], 0
; File C:\IAGOS\server\v18\Source\Source\_Common\post.cpp

; 167  : 	m_idReceiver	= idReceiver;

  0001c	89 41 10	 mov	 DWORD PTR [ecx+16], eax

; 168  : #ifdef __WORLDSERVER
; 169  : 	m_nStatus	= CMailBox::nodata;
; 170  : #endif	// __WORLDSERVER
; 171  : 
; 172  : }

  0001f	8b c1		 mov	 eax, ecx
  00021	89 4d fc	 mov	 DWORD PTR _this$[ebp], ecx
  00024	c7 01 00 00 00
	00		 mov	 DWORD PTR [ecx], OFFSET ??_7CMailBox@@6B@
  0002a	c7 41 14 00 00
	00 00		 mov	 DWORD PTR [ecx+20], 0
  00031	8b e5		 mov	 esp, ebp
  00033	5d		 pop	 ebp
  00034	c2 04 00	 ret	 4
??0CMailBox@@QAE@K@Z ENDP				; CMailBox::CMailBox
_TEXT	ENDS
; Function compile flags: /Ogtp
; File C:\IAGOS\server\v18\Source\Source\_Common\post.cpp
; File C:\Program Files\Microsoft Visual Studio\2022\Professional\VC\Tools\MSVC\14.44.35207\include\vector
; File C:\IAGOS\server\v18\Source\Source\_Common\post.cpp
; File C:\Program Files\Microsoft Visual Studio\2022\Professional\VC\Tools\MSVC\14.44.35207\include\vector
; File C:\IAGOS\server\v18\Source\Source\_Common\post.cpp
;	COMDAT ??0CMailBox@@QAE@XZ
_TEXT	SEGMENT
_this$ = -4						; size = 4
??0CMailBox@@QAE@XZ PROC				; CMailBox::CMailBox, COMDAT
; _this$ = ecx

; 158  : {

  00000	55		 push	 ebp
  00001	8b ec		 mov	 ebp, esp
  00003	51		 push	 ecx
; File C:\Program Files\Microsoft Visual Studio\2022\Professional\VC\Tools\MSVC\14.44.35207\include\vector

; 400  :     _CONSTEXPR20 _Vector_val() noexcept : _Myfirst(), _Mylast(), _Myend() {}

  00004	c7 41 04 00 00
	00 00		 mov	 DWORD PTR [ecx+4], 0
; File C:\IAGOS\server\v18\Source\Source\_Common\post.cpp

; 163  : }

  0000b	8b c1		 mov	 eax, ecx
; File C:\Program Files\Microsoft Visual Studio\2022\Professional\VC\Tools\MSVC\14.44.35207\include\vector

; 400  :     _CONSTEXPR20 _Vector_val() noexcept : _Myfirst(), _Mylast(), _Myend() {}

  0000d	c7 41 08 00 00
	00 00		 mov	 DWORD PTR [ecx+8], 0
  00014	c7 41 0c 00 00
	00 00		 mov	 DWORD PTR [ecx+12], 0
; File C:\IAGOS\server\v18\Source\Source\_Common\post.cpp

; 158  : {

  0001b	89 4d fc	 mov	 DWORD PTR _this$[ebp], ecx
  0001e	c7 01 00 00 00
	00		 mov	 DWORD PTR [ecx], OFFSET ??_7CMailBox@@6B@

; 159  : 	m_idReceiver	= 0;

  00024	c7 41 10 00 00
	00 00		 mov	 DWORD PTR [ecx+16], 0

; 160  : #ifdef __WORLDSERVER
; 161  : 	m_nStatus	= CMailBox::nodata;

  0002b	c7 41 14 00 00
	00 00		 mov	 DWORD PTR [ecx+20], 0

; 163  : }

  00032	8b e5		 mov	 esp, ebp
  00034	5d		 pop	 ebp
  00035	c3		 ret	 0
??0CMailBox@@QAE@XZ ENDP				; CMailBox::CMailBox
_TEXT	ENDS
; Function compile flags: /Ogtp
; File C:\Program Files\Microsoft Visual Studio\2022\Professional\VC\Tools\MSVC\14.44.35207\include\vector
;	COMDAT ?_Xlength@?$vector@PAVCMail@@V?$allocator@PAVCMail@@@std@@@std@@CAXXZ
_TEXT	SEGMENT
?_Xlength@?$vector@PAVCMail@@V?$allocator@PAVCMail@@@std@@@std@@CAXXZ PROC ; std::vector<CMail *,std::allocator<CMail *> >::_Xlength, COMDAT

; 2184 :         _Xlength_error("vector too long");

  00000	68 00 00 00 00	 push	 OFFSET ??_C@_0BA@FOIKENOD@vector?5too?5long@
  00005	e8 00 00 00 00	 call	 ?_Xlength_error@std@@YAXPBD@Z ; std::_Xlength_error
$LN3@Xlength:
  0000a	cc		 int	 3
?_Xlength@?$vector@PAVCMail@@V?$allocator@PAVCMail@@@std@@@std@@CAXXZ ENDP ; std::vector<CMail *,std::allocator<CMail *> >::_Xlength
_TEXT	ENDS
; Function compile flags: /Ogtp
; File C:\Program Files\Microsoft Visual Studio\2022\Professional\VC\Tools\MSVC\14.44.35207\include\vector
; File C:\Program Files\Microsoft Visual Studio\2022\Professional\VC\Tools\MSVC\14.44.35207\include\xmemory
; File C:\Program Files\Microsoft Visual Studio\2022\Professional\VC\Tools\MSVC\14.44.35207\include\vector
; File C:\Program Files\Microsoft Visual Studio\2022\Professional\VC\Tools\MSVC\14.44.35207\include\xmemory
; File C:\Program Files\Microsoft Visual Studio\2022\Professional\VC\Tools\MSVC\14.44.35207\include\vector
; File C:\Program Files\Microsoft Visual Studio\2022\Professional\VC\Tools\MSVC\14.44.35207\include\xmemory
; File C:\Program Files\Microsoft Visual Studio\2022\Professional\VC\Tools\MSVC\14.44.35207\include\vector
;	COMDAT ??1?$vector@PAVCMail@@V?$allocator@PAVCMail@@@std@@@std@@QAE@XZ
_TEXT	SEGMENT
??1?$vector@PAVCMail@@V?$allocator@PAVCMail@@@std@@@std@@QAE@XZ PROC ; std::vector<CMail *,std::allocator<CMail *> >::~vector<CMail *,std::allocator<CMail *> >, COMDAT
; _this$ = ecx

; 829  :     _CONSTEXPR20 ~vector() noexcept {

  00000	56		 push	 esi
  00001	8b f1		 mov	 esi, ecx

; 2090 :         if (_Myfirst) { // destroy and deallocate old array

  00003	8b 06		 mov	 eax, DWORD PTR [esi]
  00005	85 c0		 test	 eax, eax
  00007	74 40		 je	 SHORT $LN5@vector

; 2091 :             _STD _Destroy_range(_Myfirst, _Mylast, _Al);
; 2092 :             _ASAN_VECTOR_REMOVE;
; 2093 :             _Al.deallocate(_Myfirst, static_cast<size_type>(_Myend - _Myfirst));

  00009	8b 4e 08	 mov	 ecx, DWORD PTR [esi+8]
  0000c	2b c8		 sub	 ecx, eax
; File C:\Program Files\Microsoft Visual Studio\2022\Professional\VC\Tools\MSVC\14.44.35207\include\xmemory

; 985  :         _STD _Deallocate<_New_alignof<_Ty>>(_Ptr, sizeof(_Ty) * _Count);

  0000e	83 e1 fc	 and	 ecx, -4			; fffffffcH

; 284  :         if (_Bytes >= _Big_allocation_threshold) {

  00011	81 f9 00 10 00
	00		 cmp	 ecx, 4096		; 00001000H
  00017	72 12		 jb	 SHORT $LN18@vector

; 205  :     const uintptr_t _Ptr_container   = _Ptr_user[-1];

  00019	8b 50 fc	 mov	 edx, DWORD PTR [eax-4]
  0001c	83 c1 23	 add	 ecx, 35			; 00000023H

; 206  : 
; 207  :     // If the following asserts, it likely means that we are performing
; 208  :     // an aligned delete on memory coming from an unaligned allocation.
; 209  :     _STL_ASSERT(_Ptr_user[-2] == _Big_allocation_sentinel, "invalid argument");
; 210  : 
; 211  :     // Extra paranoia on aligned allocation/deallocation; ensure _Ptr_container is
; 212  :     // in range [_Min_back_shift, _Non_user_size]
; 213  : #ifdef _DEBUG
; 214  :     constexpr uintptr_t _Min_back_shift = 2 * sizeof(void*);
; 215  : #else // ^^^ defined(_DEBUG) / !defined(_DEBUG) vvv
; 216  :     constexpr uintptr_t _Min_back_shift = sizeof(void*);
; 217  : #endif // ^^^ !defined(_DEBUG) ^^^
; 218  :     const uintptr_t _Back_shift = reinterpret_cast<uintptr_t>(_Ptr) - _Ptr_container;

  0001f	2b c2		 sub	 eax, edx

; 219  :     _STL_VERIFY(_Back_shift >= _Min_back_shift && _Back_shift <= _Non_user_size, "invalid argument");

  00021	83 c0 fc	 add	 eax, -4			; fffffffcH
  00024	83 f8 1f	 cmp	 eax, 31			; 0000001fH
  00027	77 22		 ja	 SHORT $LN17@vector

; 220  :     _Ptr = reinterpret_cast<void*>(_Ptr_container);

  00029	8b c2		 mov	 eax, edx
$LN18@vector:

; 289  :         ::operator delete(_Ptr, _Bytes);

  0002b	51		 push	 ecx
  0002c	50		 push	 eax
  0002d	e8 00 00 00 00	 call	 ??3@YAXPAXI@Z		; operator delete
; File C:\Program Files\Microsoft Visual Studio\2022\Professional\VC\Tools\MSVC\14.44.35207\include\vector

; 2095 :             _Myfirst = nullptr;

  00032	c7 06 00 00 00
	00		 mov	 DWORD PTR [esi], 0
; File C:\Program Files\Microsoft Visual Studio\2022\Professional\VC\Tools\MSVC\14.44.35207\include\xmemory

; 289  :         ::operator delete(_Ptr, _Bytes);

  00038	83 c4 08	 add	 esp, 8
; File C:\Program Files\Microsoft Visual Studio\2022\Professional\VC\Tools\MSVC\14.44.35207\include\vector

; 2096 :             _Mylast  = nullptr;

  0003b	c7 46 04 00 00
	00 00		 mov	 DWORD PTR [esi+4], 0

; 2097 :             _Myend   = nullptr;

  00042	c7 46 08 00 00
	00 00		 mov	 DWORD PTR [esi+8], 0
$LN5@vector:
  00049	5e		 pop	 esi

; 835  :     }

  0004a	c3		 ret	 0
$LN17@vector:
; File C:\Program Files\Microsoft Visual Studio\2022\Professional\VC\Tools\MSVC\14.44.35207\include\xmemory

; 219  :     _STL_VERIFY(_Back_shift >= _Min_back_shift && _Back_shift <= _Non_user_size, "invalid argument");

  0004b	6a 00		 push	 0
  0004d	6a 00		 push	 0
  0004f	6a 00		 push	 0
  00051	6a 00		 push	 0
  00053	6a 00		 push	 0
  00055	e8 00 00 00 00	 call	 __invoke_watson
$LN26@vector:
  0005a	cc		 int	 3
??1?$vector@PAVCMail@@V?$allocator@PAVCMail@@@std@@@std@@QAE@XZ ENDP ; std::vector<CMail *,std::allocator<CMail *> >::~vector<CMail *,std::allocator<CMail *> >
_TEXT	ENDS
; Function compile flags: /Ogtp
;	COMDAT ??_GCMail@@UAEPAXI@Z
_TEXT	SEGMENT
___flags$ = 8						; size = 4
??_GCMail@@UAEPAXI@Z PROC				; CMail::`scalar deleting destructor', COMDAT
; _this$ = ecx
  00000	55		 push	 ebp
  00001	8b ec		 mov	 ebp, esp
  00003	56		 push	 esi
  00004	8b f1		 mov	 esi, ecx
  00006	e8 00 00 00 00	 call	 ??1CMail@@UAE@XZ	; CMail::~CMail
  0000b	f6 45 08 01	 test	 BYTE PTR ___flags$[ebp], 1
  0000f	74 0e		 je	 SHORT $LN5@scalar
  00011	68 3c 01 00 00	 push	 316			; 0000013cH
  00016	56		 push	 esi
  00017	e8 00 00 00 00	 call	 ??3@YAXPAXI@Z		; operator delete
  0001c	83 c4 08	 add	 esp, 8
$LN5@scalar:
  0001f	8b c6		 mov	 eax, esi
  00021	5e		 pop	 esi
  00022	5d		 pop	 ebp
  00023	c2 04 00	 ret	 4
??_GCMail@@UAEPAXI@Z ENDP				; CMail::`scalar deleting destructor'
_TEXT	ENDS
; Function compile flags: /Ogtp
; File C:\IAGOS\server\v18\Source\Source\_Common\post.cpp
; File C:\Program Files\Microsoft Visual Studio\2022\Professional\VC\Tools\MSVC\14.44.35207\atlmfc\include\atltime.h
; File C:\Program Files\Microsoft Visual Studio\2022\Professional\VC\Tools\MSVC\14.44.35207\atlmfc\include\ATLComTime.h
; File C:\Program Files\Microsoft Visual Studio\2022\Professional\VC\Tools\MSVC\14.44.35207\atlmfc\include\atltime.h
; File C:\IAGOS\server\v18\Source\Source\_Common\post.cpp
; File C:\Program Files\Microsoft Visual Studio\2022\Professional\VC\Tools\MSVC\14.44.35207\atlmfc\include\atltime.h
; File C:\IAGOS\server\v18\Source\Source\_Common\post.cpp
; File C:\Program Files\Microsoft Visual Studio\2022\Professional\VC\Tools\MSVC\14.44.35207\atlmfc\include\ATLComTime.h
; File C:\IAGOS\server\v18\Source\Source\_Common\post.cpp
; File C:\Program Files\Microsoft Visual Studio\2022\Professional\VC\Tools\MSVC\14.44.35207\atlmfc\include\ATLComTime.h
; File C:\IAGOS\server\v18\Source\Source\_Common\post.cpp
;	COMDAT ?GetMailInfo@CMail@@QAEXPAHPAK@Z
_TEXT	SEGMENT
_ttm$1 = -560						; size = 36
_ttm$2 = -524						; size = 36
_ttm$3 = -488						; size = 36
_ttm$4 = -452						; size = 36
_ttm$5 = -416						; size = 36
_ttm$6 = -380						; size = 36
_ttm$7 = -344						; size = 36
_ttm$8 = -308						; size = 36
_ttm$9 = -272						; size = 36
_ttm$10 = -236						; size = 36
_ttm$11 = -200						; size = 36
_ttm$12 = -164						; size = 36
_dwKeepingTime$GSCopy$1$ = -128				; size = 4
_nKeepingDay$GSCopy$1$ = -124				; size = 4
_CurrentTime$ = -120					; size = 12
_BaseTime$ = -108					; size = 12
_cBase$ = -96						; size = 8
_cCurrent$ = -88					; size = 8
_ts$$sroa$66$1$ = -88					; size = 8
$T13 = -80						; size = 4
_temp$$sroa$142$1$ = -80				; size = 4
$T14 = -80						; size = 4
$T15 = -76						; size = 4
$T16 = -76						; size = 4
$T17 = -76						; size = 4
$T18 = -76						; size = 4
_st$19 = -72						; size = 16
_st$20 = -72						; size = 16
_st$21 = -72						; size = 16
_st$22 = -72						; size = 16
_st$23 = -56						; size = 16
_st$24 = -56						; size = 16
_st$25 = -56						; size = 16
_st$26 = -56						; size = 16
tv940 = -48						; size = 8
_ptmTemp$27 = -40					; size = 36
_ptmTemp$28 = -40					; size = 36
_ptmTemp$29 = -40					; size = 36
_ptmTemp$30 = -40					; size = 36
_ptmTemp$31 = -40					; size = 36
_ptmTemp$32 = -40					; size = 36
_ptmTemp$33 = -40					; size = 36
_ptmTemp$34 = -40					; size = 36
_ptmTemp$35 = -40					; size = 36
_ptmTemp$36 = -40					; size = 36
_ptmTemp$37 = -40					; size = 36
_ptmTemp$38 = -40					; size = 36
__$ArrayPad$ = -4					; size = 4
_nKeepingDay$ = 8					; size = 4
_dwKeepingTime$ = 12					; size = 4
?GetMailInfo@CMail@@QAEXPAHPAK@Z PROC			; CMail::GetMailInfo, COMDAT
; _this$ = ecx

; 62   : {

  00000	55		 push	 ebp
  00001	8b ec		 mov	 ebp, esp
  00003	81 ec 30 02 00
	00		 sub	 esp, 560		; 00000230H
  00009	a1 00 00 00 00	 mov	 eax, DWORD PTR ___security_cookie
  0000e	33 c5		 xor	 eax, ebp
  00010	89 45 fc	 mov	 DWORD PTR __$ArrayPad$[ebp], eax
  00013	8b 45 08	 mov	 eax, DWORD PTR _nKeepingDay$[ebp]
  00016	0f 57 c0	 xorps	 xmm0, xmm0
  00019	89 45 84	 mov	 DWORD PTR _nKeepingDay$GSCopy$1$[ebp], eax
  0001c	8b 45 0c	 mov	 eax, DWORD PTR _dwKeepingTime$[ebp]
  0001f	53		 push	 ebx
  00020	89 45 80	 mov	 DWORD PTR _dwKeepingTime$GSCopy$1$[ebp], eax

; 63   : 	COleDateTime BaseTime;
; 64   : 	COleDateTime CurrentTime;
; 65   : 	
; 66   : 	CTime cBase    = m_tmCreate;

  00023	8b 41 14	 mov	 eax, DWORD PTR [ecx+20]
  00026	56		 push	 esi
  00027	99		 cdq
  00028	57		 push	 edi
; File C:\Program Files\Microsoft Visual Studio\2022\Professional\VC\Tools\MSVC\14.44.35207\atlmfc\include\atltime.h

; 377  : 	return( CTime( ::_time64( NULL ) ) );

  00029	6a 00		 push	 0
; File C:\Program Files\Microsoft Visual Studio\2022\Professional\VC\Tools\MSVC\14.44.35207\atlmfc\include\ATLComTime.h

; 530  : 	m_dt( 0 ), m_status(valid)

  0002b	f2 0f 11 45 94	 movsd	 QWORD PTR _BaseTime$[ebp], xmm0
  00030	c7 45 9c 00 00
	00 00		 mov	 DWORD PTR _BaseTime$[ebp+8], 0
  00037	f2 0f 11 45 88	 movsd	 QWORD PTR _CurrentTime$[ebp], xmm0
  0003c	c7 45 90 00 00
	00 00		 mov	 DWORD PTR _CurrentTime$[ebp+8], 0
; File C:\Program Files\Microsoft Visual Studio\2022\Professional\VC\Tools\MSVC\14.44.35207\atlmfc\include\atltime.h

; 420  : 	m_time( time )

  00043	89 45 a0	 mov	 DWORD PTR _cBase$[ebp], eax
  00046	89 55 a4	 mov	 DWORD PTR _cBase$[ebp+4], edx

; 377  : 	return( CTime( ::_time64( NULL ) ) );

  00049	e8 00 00 00 00	 call	 __time64

; 420  : 	m_time( time )

  0004e	89 45 a8	 mov	 DWORD PTR _cCurrent$[ebp], eax

; 617  : 		errno_t err = _localtime64_s(&ptmTemp, &m_time);

  00051	8d 45 a0	 lea	 eax, DWORD PTR _cBase$[ebp]
  00054	50		 push	 eax
  00055	8d 45 d8	 lea	 eax, DWORD PTR _ptmTemp$28[ebp]

; 420  : 	m_time( time )

  00058	89 55 ac	 mov	 DWORD PTR _cCurrent$[ebp+4], edx

; 617  : 		errno_t err = _localtime64_s(&ptmTemp, &m_time);

  0005b	50		 push	 eax
  0005c	e8 00 00 00 00	 call	 __localtime64_s
  00061	83 c4 0c	 add	 esp, 12			; 0000000cH

; 618  : 
; 619  : 		if (err != 0)

  00064	85 c0		 test	 eax, eax
  00066	75 2c		 jne	 SHORT $LN16@GetMailInf

; 620  : 		{
; 621  : 			return NULL;    // indicates that m_time was not initialized!
; 622  : 		}
; 623  : 
; 624  : 		*ptm = ptmTemp;

  00068	0f 10 45 d8	 movups	 xmm0, XMMWORD PTR _ptmTemp$28[ebp]
  0006c	8b 45 f8	 mov	 eax, DWORD PTR _ptmTemp$28[ebp+32]

; 625  : 		return ptm;

  0006f	8d 9d 5c ff ff
	ff		 lea	 ebx, DWORD PTR _ttm$12[ebp]
  00075	89 85 7c ff ff
	ff		 mov	 DWORD PTR _ttm$12[ebp+32], eax
  0007b	0f 11 85 5c ff
	ff ff		 movups	 XMMWORD PTR _ttm$12[ebp], xmm0
  00082	0f 10 45 e8	 movups	 xmm0, XMMWORD PTR _ptmTemp$28[ebp+16]
  00086	0f 11 85 6c ff
	ff ff		 movups	 XMMWORD PTR _ttm$12[ebp+16], xmm0

; 710  : 	return ptm ? ptm->tm_sec : -1 ;

  0008d	8b 1b		 mov	 ebx, DWORD PTR [ebx]
  0008f	89 5d b0	 mov	 DWORD PTR $T14[ebp], ebx
  00092	eb 07		 jmp	 SHORT $LN17@GetMailInf
$LN16@GetMailInf:
  00094	c7 45 b0 ff ff
	ff ff		 mov	 DWORD PTR $T14[ebp], -1
$LN17@GetMailInf:

; 617  : 		errno_t err = _localtime64_s(&ptmTemp, &m_time);

  0009b	8d 45 a0	 lea	 eax, DWORD PTR _cBase$[ebp]
  0009e	50		 push	 eax
  0009f	8d 45 d8	 lea	 eax, DWORD PTR _ptmTemp$38[ebp]
  000a2	50		 push	 eax
  000a3	e8 00 00 00 00	 call	 __localtime64_s
  000a8	83 c4 08	 add	 esp, 8

; 618  : 
; 619  : 		if (err != 0)

  000ab	85 c0		 test	 eax, eax
  000ad	75 2d		 jne	 SHORT $LN33@GetMailInf

; 620  : 		{
; 621  : 			return NULL;    // indicates that m_time was not initialized!
; 622  : 		}
; 623  : 
; 624  : 		*ptm = ptmTemp;

  000af	0f 10 45 d8	 movups	 xmm0, XMMWORD PTR _ptmTemp$38[ebp]
  000b3	8b 45 f8	 mov	 eax, DWORD PTR _ptmTemp$38[ebp+32]

; 625  : 		return ptm;

  000b6	8d 9d 38 ff ff
	ff		 lea	 ebx, DWORD PTR _ttm$11[ebp]
  000bc	89 85 58 ff ff
	ff		 mov	 DWORD PTR _ttm$11[ebp+32], eax
  000c2	0f 11 85 38 ff
	ff ff		 movups	 XMMWORD PTR _ttm$11[ebp], xmm0
  000c9	0f 10 45 e8	 movups	 xmm0, XMMWORD PTR _ptmTemp$38[ebp+16]
  000cd	0f 11 85 48 ff
	ff ff		 movups	 XMMWORD PTR _ttm$11[ebp+16], xmm0

; 701  : 	return ptm ? ptm->tm_min : -1 ;

  000d4	8b 5b 04	 mov	 ebx, DWORD PTR [ebx+4]
  000d7	89 5d b4	 mov	 DWORD PTR $T15[ebp], ebx
  000da	eb 07		 jmp	 SHORT $LN34@GetMailInf
$LN33@GetMailInf:
  000dc	c7 45 b4 ff ff
	ff ff		 mov	 DWORD PTR $T15[ebp], -1
$LN34@GetMailInf:

; 617  : 		errno_t err = _localtime64_s(&ptmTemp, &m_time);

  000e3	8d 45 a0	 lea	 eax, DWORD PTR _cBase$[ebp]
  000e6	50		 push	 eax
  000e7	8d 45 d8	 lea	 eax, DWORD PTR _ptmTemp$27[ebp]
  000ea	50		 push	 eax
  000eb	e8 00 00 00 00	 call	 __localtime64_s
  000f0	83 c4 08	 add	 esp, 8

; 618  : 
; 619  : 		if (err != 0)

  000f3	85 c0		 test	 eax, eax
  000f5	75 2a		 jne	 SHORT $LN49@GetMailInf

; 620  : 		{
; 621  : 			return NULL;    // indicates that m_time was not initialized!
; 622  : 		}
; 623  : 
; 624  : 		*ptm = ptmTemp;

  000f7	0f 10 45 d8	 movups	 xmm0, XMMWORD PTR _ptmTemp$27[ebp]
  000fb	8b 45 f8	 mov	 eax, DWORD PTR _ptmTemp$27[ebp+32]

; 625  : 		return ptm;

  000fe	8d 9d 14 ff ff
	ff		 lea	 ebx, DWORD PTR _ttm$10[ebp]
  00104	89 85 34 ff ff
	ff		 mov	 DWORD PTR _ttm$10[ebp+32], eax
  0010a	0f 11 85 14 ff
	ff ff		 movups	 XMMWORD PTR _ttm$10[ebp], xmm0
  00111	0f 10 45 e8	 movups	 xmm0, XMMWORD PTR _ptmTemp$27[ebp+16]
  00115	0f 11 85 24 ff
	ff ff		 movups	 XMMWORD PTR _ttm$10[ebp+16], xmm0

; 692  : 	return ptm ? ptm->tm_hour : -1 ;

  0011c	8b 5b 08	 mov	 ebx, DWORD PTR [ebx+8]
  0011f	eb 03		 jmp	 SHORT $LN50@GetMailInf
$LN49@GetMailInf:
  00121	83 cb ff	 or	 ebx, -1
$LN50@GetMailInf:

; 617  : 		errno_t err = _localtime64_s(&ptmTemp, &m_time);

  00124	8d 45 a0	 lea	 eax, DWORD PTR _cBase$[ebp]
  00127	50		 push	 eax
  00128	8d 45 d8	 lea	 eax, DWORD PTR _ptmTemp$35[ebp]
  0012b	50		 push	 eax
  0012c	e8 00 00 00 00	 call	 __localtime64_s
  00131	83 c4 08	 add	 esp, 8

; 618  : 
; 619  : 		if (err != 0)

  00134	85 c0		 test	 eax, eax
  00136	75 2a		 jne	 SHORT $LN65@GetMailInf

; 620  : 		{
; 621  : 			return NULL;    // indicates that m_time was not initialized!
; 622  : 		}
; 623  : 
; 624  : 		*ptm = ptmTemp;

  00138	0f 10 45 d8	 movups	 xmm0, XMMWORD PTR _ptmTemp$35[ebp]
  0013c	8b 45 f8	 mov	 eax, DWORD PTR _ptmTemp$35[ebp+32]

; 625  : 		return ptm;

  0013f	8d bd f0 fe ff
	ff		 lea	 edi, DWORD PTR _ttm$9[ebp]
  00145	89 85 10 ff ff
	ff		 mov	 DWORD PTR _ttm$9[ebp+32], eax
  0014b	0f 11 85 f0 fe
	ff ff		 movups	 XMMWORD PTR _ttm$9[ebp], xmm0
  00152	0f 10 45 e8	 movups	 xmm0, XMMWORD PTR _ptmTemp$35[ebp+16]
  00156	0f 11 85 00 ff
	ff ff		 movups	 XMMWORD PTR _ttm$9[ebp+16], xmm0

; 683  : 	return ptm ? ptm->tm_mday : 0 ;

  0015d	8b 7f 0c	 mov	 edi, DWORD PTR [edi+12]
  00160	eb 02		 jmp	 SHORT $LN66@GetMailInf
$LN65@GetMailInf:
  00162	33 ff		 xor	 edi, edi
$LN66@GetMailInf:

; 617  : 		errno_t err = _localtime64_s(&ptmTemp, &m_time);

  00164	8d 45 a0	 lea	 eax, DWORD PTR _cBase$[ebp]
  00167	50		 push	 eax
  00168	8d 45 d8	 lea	 eax, DWORD PTR _ptmTemp$34[ebp]
  0016b	50		 push	 eax
  0016c	e8 00 00 00 00	 call	 __localtime64_s
  00171	83 c4 08	 add	 esp, 8

; 618  : 
; 619  : 		if (err != 0)

  00174	85 c0		 test	 eax, eax
  00176	75 2b		 jne	 SHORT $LN81@GetMailInf

; 620  : 		{
; 621  : 			return NULL;    // indicates that m_time was not initialized!
; 622  : 		}
; 623  : 
; 624  : 		*ptm = ptmTemp;

  00178	0f 10 45 d8	 movups	 xmm0, XMMWORD PTR _ptmTemp$34[ebp]
  0017c	8b 45 f8	 mov	 eax, DWORD PTR _ptmTemp$34[ebp+32]

; 625  : 		return ptm;

  0017f	8d b5 cc fe ff
	ff		 lea	 esi, DWORD PTR _ttm$8[ebp]
  00185	89 85 ec fe ff
	ff		 mov	 DWORD PTR _ttm$8[ebp+32], eax
  0018b	0f 11 85 cc fe
	ff ff		 movups	 XMMWORD PTR _ttm$8[ebp], xmm0
  00192	0f 10 45 e8	 movups	 xmm0, XMMWORD PTR _ptmTemp$34[ebp+16]
  00196	0f 11 85 dc fe
	ff ff		 movups	 XMMWORD PTR _ttm$8[ebp+16], xmm0

; 674  : 	return ptm ? ptm->tm_mon + 1 : 0;

  0019d	8b 76 10	 mov	 esi, DWORD PTR [esi+16]
  001a0	46		 inc	 esi
  001a1	eb 02		 jmp	 SHORT $LN82@GetMailInf
$LN81@GetMailInf:
  001a3	33 f6		 xor	 esi, esi
$LN82@GetMailInf:

; 617  : 		errno_t err = _localtime64_s(&ptmTemp, &m_time);

  001a5	8d 45 a0	 lea	 eax, DWORD PTR _cBase$[ebp]
  001a8	50		 push	 eax
  001a9	8d 45 d8	 lea	 eax, DWORD PTR _ptmTemp$32[ebp]
  001ac	50		 push	 eax
  001ad	e8 00 00 00 00	 call	 __localtime64_s
  001b2	83 c4 08	 add	 esp, 8

; 618  : 
; 619  : 		if (err != 0)

  001b5	85 c0		 test	 eax, eax
  001b7	75 2f		 jne	 SHORT $LN97@GetMailInf

; 620  : 		{
; 621  : 			return NULL;    // indicates that m_time was not initialized!
; 622  : 		}
; 623  : 
; 624  : 		*ptm = ptmTemp;

  001b9	0f 10 45 d8	 movups	 xmm0, XMMWORD PTR _ptmTemp$32[ebp]
  001bd	8b 45 f8	 mov	 eax, DWORD PTR _ptmTemp$32[ebp+32]
  001c0	89 85 c8 fe ff
	ff		 mov	 DWORD PTR _ttm$7[ebp+32], eax

; 625  : 		return ptm;

  001c6	8d 85 a8 fe ff
	ff		 lea	 eax, DWORD PTR _ttm$7[ebp]
  001cc	0f 11 85 a8 fe
	ff ff		 movups	 XMMWORD PTR _ttm$7[ebp], xmm0
  001d3	0f 10 45 e8	 movups	 xmm0, XMMWORD PTR _ptmTemp$32[ebp+16]
  001d7	0f 11 85 b8 fe
	ff ff		 movups	 XMMWORD PTR _ttm$7[ebp+16], xmm0

; 665  : 	return ptm ? (ptm->tm_year) + 1900 : 0 ;

  001de	8b 40 14	 mov	 eax, DWORD PTR [eax+20]
  001e1	05 6c 07 00 00	 add	 eax, 1900		; 0000076cH
  001e6	eb 02		 jmp	 SHORT $LN98@GetMailInf
$LN97@GetMailInf:
  001e8	33 c0		 xor	 eax, eax
$LN98@GetMailInf:
; File C:\IAGOS\server\v18\Source\Source\_Common\post.cpp

; 69   : 	BaseTime.SetDateTime( cBase.GetYear(), cBase.GetMonth(), cBase.GetDay(), cBase.GetHour(), cBase.GetMinute(), cBase.GetSecond() );		

  001ea	ff 75 b0	 push	 DWORD PTR $T14[ebp]
  001ed	8d 4d 94	 lea	 ecx, DWORD PTR _BaseTime$[ebp]
  001f0	ff 75 b4	 push	 DWORD PTR $T15[ebp]
  001f3	53		 push	 ebx
  001f4	57		 push	 edi
  001f5	56		 push	 esi
  001f6	50		 push	 eax
  001f7	e8 00 00 00 00	 call	 ?SetDateTime@COleDateTime@ATL@@QAEHHHHHHH@Z ; ATL::COleDateTime::SetDateTime
; File C:\Program Files\Microsoft Visual Studio\2022\Professional\VC\Tools\MSVC\14.44.35207\atlmfc\include\atltime.h

; 617  : 		errno_t err = _localtime64_s(&ptmTemp, &m_time);

  001fc	8d 45 a8	 lea	 eax, DWORD PTR _cCurrent$[ebp]
  001ff	50		 push	 eax
  00200	8d 45 d8	 lea	 eax, DWORD PTR _ptmTemp$31[ebp]
  00203	50		 push	 eax
  00204	e8 00 00 00 00	 call	 __localtime64_s
  00209	83 c4 08	 add	 esp, 8

; 618  : 
; 619  : 		if (err != 0)

  0020c	85 c0		 test	 eax, eax
  0020e	75 2c		 jne	 SHORT $LN113@GetMailInf

; 620  : 		{
; 621  : 			return NULL;    // indicates that m_time was not initialized!
; 622  : 		}
; 623  : 
; 624  : 		*ptm = ptmTemp;

  00210	0f 10 45 d8	 movups	 xmm0, XMMWORD PTR _ptmTemp$31[ebp]
  00214	8b 45 f8	 mov	 eax, DWORD PTR _ptmTemp$31[ebp+32]

; 625  : 		return ptm;

  00217	8d 9d 84 fe ff
	ff		 lea	 ebx, DWORD PTR _ttm$6[ebp]
  0021d	89 85 a4 fe ff
	ff		 mov	 DWORD PTR _ttm$6[ebp+32], eax
  00223	0f 11 85 84 fe
	ff ff		 movups	 XMMWORD PTR _ttm$6[ebp], xmm0
  0022a	0f 10 45 e8	 movups	 xmm0, XMMWORD PTR _ptmTemp$31[ebp+16]
  0022e	0f 11 85 94 fe
	ff ff		 movups	 XMMWORD PTR _ttm$6[ebp+16], xmm0

; 710  : 	return ptm ? ptm->tm_sec : -1 ;

  00235	8b 1b		 mov	 ebx, DWORD PTR [ebx]
  00237	89 5d b4	 mov	 DWORD PTR $T18[ebp], ebx
  0023a	eb 07		 jmp	 SHORT $LN114@GetMailInf
$LN113@GetMailInf:
  0023c	c7 45 b4 ff ff
	ff ff		 mov	 DWORD PTR $T18[ebp], -1
$LN114@GetMailInf:

; 617  : 		errno_t err = _localtime64_s(&ptmTemp, &m_time);

  00243	8d 45 a8	 lea	 eax, DWORD PTR _cCurrent$[ebp]
  00246	50		 push	 eax
  00247	8d 45 d8	 lea	 eax, DWORD PTR _ptmTemp$29[ebp]
  0024a	50		 push	 eax
  0024b	e8 00 00 00 00	 call	 __localtime64_s
  00250	83 c4 08	 add	 esp, 8

; 618  : 
; 619  : 		if (err != 0)

  00253	85 c0		 test	 eax, eax
  00255	75 2d		 jne	 SHORT $LN129@GetMailInf

; 620  : 		{
; 621  : 			return NULL;    // indicates that m_time was not initialized!
; 622  : 		}
; 623  : 
; 624  : 		*ptm = ptmTemp;

  00257	0f 10 45 d8	 movups	 xmm0, XMMWORD PTR _ptmTemp$29[ebp]
  0025b	8b 45 f8	 mov	 eax, DWORD PTR _ptmTemp$29[ebp+32]

; 625  : 		return ptm;

  0025e	8d 9d 60 fe ff
	ff		 lea	 ebx, DWORD PTR _ttm$5[ebp]
  00264	89 85 80 fe ff
	ff		 mov	 DWORD PTR _ttm$5[ebp+32], eax
  0026a	0f 11 85 60 fe
	ff ff		 movups	 XMMWORD PTR _ttm$5[ebp], xmm0
  00271	0f 10 45 e8	 movups	 xmm0, XMMWORD PTR _ptmTemp$29[ebp+16]
  00275	0f 11 85 70 fe
	ff ff		 movups	 XMMWORD PTR _ttm$5[ebp+16], xmm0

; 701  : 	return ptm ? ptm->tm_min : -1 ;

  0027c	8b 5b 04	 mov	 ebx, DWORD PTR [ebx+4]
  0027f	89 5d b0	 mov	 DWORD PTR $T13[ebp], ebx
  00282	eb 07		 jmp	 SHORT $LN130@GetMailInf
$LN129@GetMailInf:
  00284	c7 45 b0 ff ff
	ff ff		 mov	 DWORD PTR $T13[ebp], -1
$LN130@GetMailInf:

; 617  : 		errno_t err = _localtime64_s(&ptmTemp, &m_time);

  0028b	8d 45 a8	 lea	 eax, DWORD PTR _cCurrent$[ebp]
  0028e	50		 push	 eax
  0028f	8d 45 d8	 lea	 eax, DWORD PTR _ptmTemp$36[ebp]
  00292	50		 push	 eax
  00293	e8 00 00 00 00	 call	 __localtime64_s
  00298	83 c4 08	 add	 esp, 8

; 618  : 
; 619  : 		if (err != 0)

  0029b	85 c0		 test	 eax, eax
  0029d	75 2a		 jne	 SHORT $LN145@GetMailInf

; 620  : 		{
; 621  : 			return NULL;    // indicates that m_time was not initialized!
; 622  : 		}
; 623  : 
; 624  : 		*ptm = ptmTemp;

  0029f	0f 10 45 d8	 movups	 xmm0, XMMWORD PTR _ptmTemp$36[ebp]
  002a3	8b 45 f8	 mov	 eax, DWORD PTR _ptmTemp$36[ebp+32]

; 625  : 		return ptm;

  002a6	8d 9d 3c fe ff
	ff		 lea	 ebx, DWORD PTR _ttm$4[ebp]
  002ac	89 85 5c fe ff
	ff		 mov	 DWORD PTR _ttm$4[ebp+32], eax
  002b2	0f 11 85 3c fe
	ff ff		 movups	 XMMWORD PTR _ttm$4[ebp], xmm0
  002b9	0f 10 45 e8	 movups	 xmm0, XMMWORD PTR _ptmTemp$36[ebp+16]
  002bd	0f 11 85 4c fe
	ff ff		 movups	 XMMWORD PTR _ttm$4[ebp+16], xmm0

; 692  : 	return ptm ? ptm->tm_hour : -1 ;

  002c4	8b 5b 08	 mov	 ebx, DWORD PTR [ebx+8]
  002c7	eb 03		 jmp	 SHORT $LN146@GetMailInf
$LN145@GetMailInf:
  002c9	83 cb ff	 or	 ebx, -1
$LN146@GetMailInf:

; 617  : 		errno_t err = _localtime64_s(&ptmTemp, &m_time);

  002cc	8d 45 a8	 lea	 eax, DWORD PTR _cCurrent$[ebp]
  002cf	50		 push	 eax
  002d0	8d 45 d8	 lea	 eax, DWORD PTR _ptmTemp$33[ebp]
  002d3	50		 push	 eax
  002d4	e8 00 00 00 00	 call	 __localtime64_s
  002d9	83 c4 08	 add	 esp, 8

; 618  : 
; 619  : 		if (err != 0)

  002dc	85 c0		 test	 eax, eax
  002de	75 2a		 jne	 SHORT $LN161@GetMailInf

; 620  : 		{
; 621  : 			return NULL;    // indicates that m_time was not initialized!
; 622  : 		}
; 623  : 
; 624  : 		*ptm = ptmTemp;

  002e0	0f 10 45 d8	 movups	 xmm0, XMMWORD PTR _ptmTemp$33[ebp]
  002e4	8b 45 f8	 mov	 eax, DWORD PTR _ptmTemp$33[ebp+32]

; 625  : 		return ptm;

  002e7	8d bd 18 fe ff
	ff		 lea	 edi, DWORD PTR _ttm$3[ebp]
  002ed	89 85 38 fe ff
	ff		 mov	 DWORD PTR _ttm$3[ebp+32], eax
  002f3	0f 11 85 18 fe
	ff ff		 movups	 XMMWORD PTR _ttm$3[ebp], xmm0
  002fa	0f 10 45 e8	 movups	 xmm0, XMMWORD PTR _ptmTemp$33[ebp+16]
  002fe	0f 11 85 28 fe
	ff ff		 movups	 XMMWORD PTR _ttm$3[ebp+16], xmm0

; 683  : 	return ptm ? ptm->tm_mday : 0 ;

  00305	8b 7f 0c	 mov	 edi, DWORD PTR [edi+12]
  00308	eb 02		 jmp	 SHORT $LN162@GetMailInf
$LN161@GetMailInf:
  0030a	33 ff		 xor	 edi, edi
$LN162@GetMailInf:

; 617  : 		errno_t err = _localtime64_s(&ptmTemp, &m_time);

  0030c	8d 45 a8	 lea	 eax, DWORD PTR _cCurrent$[ebp]
  0030f	50		 push	 eax
  00310	8d 45 d8	 lea	 eax, DWORD PTR _ptmTemp$37[ebp]
  00313	50		 push	 eax
  00314	e8 00 00 00 00	 call	 __localtime64_s
  00319	83 c4 08	 add	 esp, 8

; 618  : 
; 619  : 		if (err != 0)

  0031c	85 c0		 test	 eax, eax
  0031e	75 2b		 jne	 SHORT $LN177@GetMailInf

; 620  : 		{
; 621  : 			return NULL;    // indicates that m_time was not initialized!
; 622  : 		}
; 623  : 
; 624  : 		*ptm = ptmTemp;

  00320	0f 10 45 d8	 movups	 xmm0, XMMWORD PTR _ptmTemp$37[ebp]
  00324	8b 45 f8	 mov	 eax, DWORD PTR _ptmTemp$37[ebp+32]

; 625  : 		return ptm;

  00327	8d b5 f4 fd ff
	ff		 lea	 esi, DWORD PTR _ttm$2[ebp]
  0032d	89 85 14 fe ff
	ff		 mov	 DWORD PTR _ttm$2[ebp+32], eax
  00333	0f 11 85 f4 fd
	ff ff		 movups	 XMMWORD PTR _ttm$2[ebp], xmm0
  0033a	0f 10 45 e8	 movups	 xmm0, XMMWORD PTR _ptmTemp$37[ebp+16]
  0033e	0f 11 85 04 fe
	ff ff		 movups	 XMMWORD PTR _ttm$2[ebp+16], xmm0

; 674  : 	return ptm ? ptm->tm_mon + 1 : 0;

  00345	8b 76 10	 mov	 esi, DWORD PTR [esi+16]
  00348	46		 inc	 esi
  00349	eb 02		 jmp	 SHORT $LN178@GetMailInf
$LN177@GetMailInf:
  0034b	33 f6		 xor	 esi, esi
$LN178@GetMailInf:

; 617  : 		errno_t err = _localtime64_s(&ptmTemp, &m_time);

  0034d	8d 45 a8	 lea	 eax, DWORD PTR _cCurrent$[ebp]
  00350	50		 push	 eax
  00351	8d 45 d8	 lea	 eax, DWORD PTR _ptmTemp$30[ebp]
  00354	50		 push	 eax
  00355	e8 00 00 00 00	 call	 __localtime64_s
  0035a	83 c4 08	 add	 esp, 8

; 618  : 
; 619  : 		if (err != 0)

  0035d	85 c0		 test	 eax, eax
  0035f	75 2f		 jne	 SHORT $LN193@GetMailInf

; 620  : 		{
; 621  : 			return NULL;    // indicates that m_time was not initialized!
; 622  : 		}
; 623  : 
; 624  : 		*ptm = ptmTemp;

  00361	0f 10 45 d8	 movups	 xmm0, XMMWORD PTR _ptmTemp$30[ebp]
  00365	8b 45 f8	 mov	 eax, DWORD PTR _ptmTemp$30[ebp+32]
  00368	89 85 f0 fd ff
	ff		 mov	 DWORD PTR _ttm$1[ebp+32], eax

; 625  : 		return ptm;

  0036e	8d 85 d0 fd ff
	ff		 lea	 eax, DWORD PTR _ttm$1[ebp]
  00374	0f 11 85 d0 fd
	ff ff		 movups	 XMMWORD PTR _ttm$1[ebp], xmm0
  0037b	0f 10 45 e8	 movups	 xmm0, XMMWORD PTR _ptmTemp$30[ebp+16]
  0037f	0f 11 85 e0 fd
	ff ff		 movups	 XMMWORD PTR _ttm$1[ebp+16], xmm0

; 665  : 	return ptm ? (ptm->tm_year) + 1900 : 0 ;

  00386	8b 40 14	 mov	 eax, DWORD PTR [eax+20]
  00389	05 6c 07 00 00	 add	 eax, 1900		; 0000076cH
  0038e	eb 02		 jmp	 SHORT $LN194@GetMailInf
$LN193@GetMailInf:
  00390	33 c0		 xor	 eax, eax
$LN194@GetMailInf:
; File C:\IAGOS\server\v18\Source\Source\_Common\post.cpp

; 70   : 	CurrentTime.SetDateTime( cCurrent.GetYear(), cCurrent.GetMonth(), cCurrent.GetDay(), cCurrent.GetHour(), cCurrent.GetMinute(), cCurrent.GetSecond() );

  00392	ff 75 b4	 push	 DWORD PTR $T18[ebp]
  00395	8d 4d 88	 lea	 ecx, DWORD PTR _CurrentTime$[ebp]
  00398	ff 75 b0	 push	 DWORD PTR $T13[ebp]
  0039b	53		 push	 ebx
  0039c	57		 push	 edi
  0039d	56		 push	 esi
  0039e	50		 push	 eax
  0039f	e8 00 00 00 00	 call	 ?SetDateTime@COleDateTime@ATL@@QAEHHHHHHH@Z ; ATL::COleDateTime::SetDateTime
; File C:\Program Files\Microsoft Visual Studio\2022\Professional\VC\Tools\MSVC\14.44.35207\atlmfc\include\ATLComTime.h

; 602  : 	return GetStatus() == valid && ::VariantTimeToSystemTime(m_dt, &sysTime) == TRUE;

  003a4	83 7d 9c 00	 cmp	 DWORD PTR _BaseTime$[ebp+8], 0
  003a8	0f 57 c0	 xorps	 xmm0, xmm0
  003ab	8b 35 00 00 00
	00		 mov	 esi, DWORD PTR __imp__VariantTimeToSystemTime@12

; 643  : 	SYSTEMTIME st = {0};

  003b1	0f 11 45 c8	 movups	 XMMWORD PTR _st$23[ebp], xmm0

; 602  : 	return GetStatus() == valid && ::VariantTimeToSystemTime(m_dt, &sysTime) == TRUE;

  003b5	75 21		 jne	 SHORT $LN329@GetMailInf
  003b7	f2 0f 10 45 94	 movsd	 xmm0, QWORD PTR _BaseTime$[ebp]
  003bc	8d 45 c8	 lea	 eax, DWORD PTR _st$23[ebp]
  003bf	50		 push	 eax
  003c0	83 ec 08	 sub	 esp, 8
  003c3	f2 0f 11 04 24	 movsd	 QWORD PTR [esp], xmm0
  003c8	ff d6		 call	 esi
  003ca	83 f8 01	 cmp	 eax, 1
  003cd	75 09		 jne	 SHORT $LN329@GetMailInf

; 644  : 	return GetAsSystemTime(st) ? st.wSecond : error;

  003cf	0f b7 45 d4	 movzx	 eax, WORD PTR _st$23[ebp+12]
  003d3	89 45 b4	 mov	 DWORD PTR $T16[ebp], eax
  003d6	eb 07		 jmp	 SHORT $LN210@GetMailInf
$LN329@GetMailInf:
  003d8	c7 45 b4 ff ff
	ff ff		 mov	 DWORD PTR $T16[ebp], -1
$LN210@GetMailInf:

; 602  : 	return GetStatus() == valid && ::VariantTimeToSystemTime(m_dt, &sysTime) == TRUE;

  003df	83 7d 9c 00	 cmp	 DWORD PTR _BaseTime$[ebp+8], 0
  003e3	0f 57 c0	 xorps	 xmm0, xmm0

; 637  : 	SYSTEMTIME st = {0};

  003e6	0f 11 45 c8	 movups	 XMMWORD PTR _st$24[ebp], xmm0

; 602  : 	return GetStatus() == valid && ::VariantTimeToSystemTime(m_dt, &sysTime) == TRUE;

  003ea	75 1e		 jne	 SHORT $LN330@GetMailInf
  003ec	f2 0f 10 45 94	 movsd	 xmm0, QWORD PTR _BaseTime$[ebp]
  003f1	8d 45 c8	 lea	 eax, DWORD PTR _st$24[ebp]
  003f4	50		 push	 eax
  003f5	83 ec 08	 sub	 esp, 8
  003f8	f2 0f 11 04 24	 movsd	 QWORD PTR [esp], xmm0
  003fd	ff d6		 call	 esi
  003ff	83 f8 01	 cmp	 eax, 1
  00402	75 06		 jne	 SHORT $LN330@GetMailInf

; 638  : 	return GetAsSystemTime(st) ? st.wMinute : error;

  00404	0f b7 5d d2	 movzx	 ebx, WORD PTR _st$24[ebp+10]
  00408	eb 03		 jmp	 SHORT $LN218@GetMailInf
$LN330@GetMailInf:
  0040a	83 cb ff	 or	 ebx, -1
$LN218@GetMailInf:

; 602  : 	return GetStatus() == valid && ::VariantTimeToSystemTime(m_dt, &sysTime) == TRUE;

  0040d	83 7d 9c 00	 cmp	 DWORD PTR _BaseTime$[ebp+8], 0
  00411	0f 57 c0	 xorps	 xmm0, xmm0

; 631  : 	SYSTEMTIME st = {0};

  00414	0f 11 45 c8	 movups	 XMMWORD PTR _st$25[ebp], xmm0

; 602  : 	return GetStatus() == valid && ::VariantTimeToSystemTime(m_dt, &sysTime) == TRUE;

  00418	75 1e		 jne	 SHORT $LN331@GetMailInf
  0041a	f2 0f 10 45 94	 movsd	 xmm0, QWORD PTR _BaseTime$[ebp]
  0041f	8d 45 c8	 lea	 eax, DWORD PTR _st$25[ebp]
  00422	50		 push	 eax
  00423	83 ec 08	 sub	 esp, 8
  00426	f2 0f 11 04 24	 movsd	 QWORD PTR [esp], xmm0
  0042b	ff d6		 call	 esi
  0042d	83 f8 01	 cmp	 eax, 1
  00430	75 06		 jne	 SHORT $LN331@GetMailInf

; 632  : 	return GetAsSystemTime(st) ? st.wHour : error;

  00432	0f b7 7d d0	 movzx	 edi, WORD PTR _st$25[ebp+8]
  00436	eb 03		 jmp	 SHORT $LN226@GetMailInf
$LN331@GetMailInf:
  00438	83 cf ff	 or	 edi, -1
$LN226@GetMailInf:

; 602  : 	return GetStatus() == valid && ::VariantTimeToSystemTime(m_dt, &sysTime) == TRUE;

  0043b	83 7d 9c 00	 cmp	 DWORD PTR _BaseTime$[ebp+8], 0
  0043f	0f 57 c0	 xorps	 xmm0, xmm0

; 625  : 	SYSTEMTIME st = {0};

  00442	0f 11 45 c8	 movups	 XMMWORD PTR _st$26[ebp], xmm0

; 602  : 	return GetStatus() == valid && ::VariantTimeToSystemTime(m_dt, &sysTime) == TRUE;

  00446	75 1e		 jne	 SHORT $LN233@GetMailInf
  00448	f2 0f 10 45 94	 movsd	 xmm0, QWORD PTR _BaseTime$[ebp]
  0044d	8d 45 c8	 lea	 eax, DWORD PTR _st$26[ebp]
  00450	50		 push	 eax
  00451	83 ec 08	 sub	 esp, 8
  00454	f2 0f 11 04 24	 movsd	 QWORD PTR [esp], xmm0
  00459	ff d6		 call	 esi
  0045b	83 f8 01	 cmp	 eax, 1
  0045e	75 06		 jne	 SHORT $LN233@GetMailInf

; 626  : 	return GetAsSystemTime(st) ? st.wDay : error;

  00460	0f b7 45 ce	 movzx	 eax, WORD PTR _st$26[ebp+6]
  00464	eb 03		 jmp	 SHORT $LN234@GetMailInf
$LN233@GetMailInf:
  00466	83 c8 ff	 or	 eax, -1
$LN234@GetMailInf:
  00469	0f 57 c9	 xorps	 xmm1, xmm1

; 508  : 	m_status = valid;

  0046c	c7 45 b0 00 00
	00 00		 mov	 DWORD PTR _temp$$sroa$142$1$[ebp], 0
  00473	f2 0f 2a cf	 cvtsi2sd xmm1, edi
  00477	0f 57 c0	 xorps	 xmm0, xmm0

; 464  : 	dateSpanTemp.CheckRange();
; 465  : 
; 466  : 	return dateSpanTemp;
; 467  : }
; 468  : 
; 469  : inline COleDateTimeSpan& COleDateTimeSpan::operator+=(
; 470  : 	_In_ const COleDateTimeSpan dateSpan) throw()
; 471  : {
; 472  : 	ATLASSERT(GetStatus() == valid);
; 473  : 	ATLASSERT(dateSpan.GetStatus() == valid);
; 474  : 	*this = *this + dateSpan;
; 475  : 	CheckRange();
; 476  : 	return *this;
; 477  : }
; 478  : 
; 479  : inline COleDateTimeSpan& COleDateTimeSpan::operator-=(
; 480  : 	_In_ const COleDateTimeSpan dateSpan) throw()
; 481  : {
; 482  : 	ATLASSERT(GetStatus() == valid);
; 483  : 	ATLASSERT(dateSpan.GetStatus() == valid);
; 484  : 	*this = *this - dateSpan;
; 485  : 	CheckRange();
; 486  : 	return *this;
; 487  : }
; 488  : 
; 489  : inline COleDateTimeSpan COleDateTimeSpan::operator-() const throw()
; 490  : {
; 491  : 	return -this->m_span;
; 492  : }
; 493  : 
; 494  : inline COleDateTimeSpan::operator double() const throw()
; 495  : {
; 496  : 	return m_span;
; 497  : }
; 498  : 
; 499  : inline void COleDateTimeSpan::SetDateTimeSpan(
; 500  : 	_In_ LONG lDays,
; 501  : 	_In_ int nHours,
; 502  : 	_In_ int nMins,
; 503  : 	_In_ int nSecs) throw()
; 504  : {
; 505  : 	// Set date span by breaking into fractional days (all input ranges valid)
; 506  : 	m_span = lDays + ((double)nHours)/24 + ((double)nMins)/(24*60) +

  0047a	f2 0f 2a c0	 cvtsi2sd xmm0, eax
  0047e	f2 0f 5e 0d 00
	00 00 00	 divsd	 xmm1, QWORD PTR __real@4038000000000000
  00486	f2 0f 58 c8	 addsd	 xmm1, xmm0
  0048a	0f 57 c0	 xorps	 xmm0, xmm0
  0048d	f2 0f 2a c3	 cvtsi2sd xmm0, ebx
  00491	f2 0f 5e 05 00
	00 00 00	 divsd	 xmm0, QWORD PTR __real@4096800000000000
  00499	f2 0f 58 c8	 addsd	 xmm1, xmm0
  0049d	0f 57 c0	 xorps	 xmm0, xmm0
  004a0	f2 0f 2a 45 b4	 cvtsi2sd xmm0, DWORD PTR $T16[ebp]
  004a5	f2 0f 5e 05 00
	00 00 00	 divsd	 xmm0, QWORD PTR __real@40f5180000000000
  004ad	f2 0f 58 c8	 addsd	 xmm1, xmm0

; 507  : 		((double)nSecs)/(24*60*60);
; 508  : 	m_status = valid;

  004b1	f2 0f 10 05 00
	00 00 00	 movsd	 xmm0, QWORD PTR __real@c14b964c80000000
  004b9	66 0f 2f c1	 comisd	 xmm0, xmm1
  004bd	f2 0f 11 4d d0	 movsd	 QWORD PTR tv940[ebp], xmm1

; 514  : 	if(m_span < -maxDaysInSpan || m_span > maxDaysInSpan)

  004c2	77 0a		 ja	 SHORT $LN245@GetMailInf
  004c4	66 0f 2f 0d 00
	00 00 00	 comisd	 xmm1, QWORD PTR __real@414b964c80000000
  004cc	76 07		 jbe	 SHORT $LN244@GetMailInf
$LN245@GetMailInf:

; 515  : 	{
; 516  : 		m_status = invalid;

  004ce	c7 45 b0 01 00
	00 00		 mov	 DWORD PTR _temp$$sroa$142$1$[ebp], 1
$LN244@GetMailInf:

; 602  : 	return GetStatus() == valid && ::VariantTimeToSystemTime(m_dt, &sysTime) == TRUE;

  004d5	83 7d 90 00	 cmp	 DWORD PTR _CurrentTime$[ebp+8], 0
  004d9	0f 57 c0	 xorps	 xmm0, xmm0

; 643  : 	SYSTEMTIME st = {0};

  004dc	0f 11 45 b8	 movups	 XMMWORD PTR _st$19[ebp], xmm0

; 602  : 	return GetStatus() == valid && ::VariantTimeToSystemTime(m_dt, &sysTime) == TRUE;

  004e0	75 21		 jne	 SHORT $LN332@GetMailInf
  004e2	f2 0f 10 45 88	 movsd	 xmm0, QWORD PTR _CurrentTime$[ebp]
  004e7	8d 45 b8	 lea	 eax, DWORD PTR _st$19[ebp]
  004ea	50		 push	 eax
  004eb	83 ec 08	 sub	 esp, 8
  004ee	f2 0f 11 04 24	 movsd	 QWORD PTR [esp], xmm0
  004f3	ff d6		 call	 esi
  004f5	83 f8 01	 cmp	 eax, 1
  004f8	75 09		 jne	 SHORT $LN332@GetMailInf

; 644  : 	return GetAsSystemTime(st) ? st.wSecond : error;

  004fa	0f b7 45 c4	 movzx	 eax, WORD PTR _st$19[ebp+12]
  004fe	89 45 b4	 mov	 DWORD PTR $T17[ebp], eax
  00501	eb 07		 jmp	 SHORT $LN250@GetMailInf
$LN332@GetMailInf:
  00503	c7 45 b4 ff ff
	ff ff		 mov	 DWORD PTR $T17[ebp], -1
$LN250@GetMailInf:

; 602  : 	return GetStatus() == valid && ::VariantTimeToSystemTime(m_dt, &sysTime) == TRUE;

  0050a	83 7d 90 00	 cmp	 DWORD PTR _CurrentTime$[ebp+8], 0
  0050e	0f 57 c0	 xorps	 xmm0, xmm0

; 637  : 	SYSTEMTIME st = {0};

  00511	0f 11 45 b8	 movups	 XMMWORD PTR _st$20[ebp], xmm0

; 602  : 	return GetStatus() == valid && ::VariantTimeToSystemTime(m_dt, &sysTime) == TRUE;

  00515	75 1e		 jne	 SHORT $LN333@GetMailInf
  00517	f2 0f 10 45 88	 movsd	 xmm0, QWORD PTR _CurrentTime$[ebp]
  0051c	8d 45 b8	 lea	 eax, DWORD PTR _st$20[ebp]
  0051f	50		 push	 eax
  00520	83 ec 08	 sub	 esp, 8
  00523	f2 0f 11 04 24	 movsd	 QWORD PTR [esp], xmm0
  00528	ff d6		 call	 esi
  0052a	83 f8 01	 cmp	 eax, 1
  0052d	75 06		 jne	 SHORT $LN333@GetMailInf

; 638  : 	return GetAsSystemTime(st) ? st.wMinute : error;

  0052f	0f b7 5d c2	 movzx	 ebx, WORD PTR _st$20[ebp+10]
  00533	eb 03		 jmp	 SHORT $LN258@GetMailInf
$LN333@GetMailInf:
  00535	83 cb ff	 or	 ebx, -1
$LN258@GetMailInf:

; 602  : 	return GetStatus() == valid && ::VariantTimeToSystemTime(m_dt, &sysTime) == TRUE;

  00538	83 7d 90 00	 cmp	 DWORD PTR _CurrentTime$[ebp+8], 0
  0053c	0f 57 c0	 xorps	 xmm0, xmm0

; 631  : 	SYSTEMTIME st = {0};

  0053f	0f 11 45 b8	 movups	 XMMWORD PTR _st$22[ebp], xmm0

; 602  : 	return GetStatus() == valid && ::VariantTimeToSystemTime(m_dt, &sysTime) == TRUE;

  00543	75 1e		 jne	 SHORT $LN334@GetMailInf
  00545	f2 0f 10 45 88	 movsd	 xmm0, QWORD PTR _CurrentTime$[ebp]
  0054a	8d 45 b8	 lea	 eax, DWORD PTR _st$22[ebp]
  0054d	50		 push	 eax
  0054e	83 ec 08	 sub	 esp, 8
  00551	f2 0f 11 04 24	 movsd	 QWORD PTR [esp], xmm0
  00556	ff d6		 call	 esi
  00558	83 f8 01	 cmp	 eax, 1
  0055b	75 06		 jne	 SHORT $LN334@GetMailInf

; 632  : 	return GetAsSystemTime(st) ? st.wHour : error;

  0055d	0f b7 7d c0	 movzx	 edi, WORD PTR _st$22[ebp+8]
  00561	eb 03		 jmp	 SHORT $LN266@GetMailInf
$LN334@GetMailInf:
  00563	83 cf ff	 or	 edi, -1
$LN266@GetMailInf:

; 602  : 	return GetStatus() == valid && ::VariantTimeToSystemTime(m_dt, &sysTime) == TRUE;

  00566	83 7d 90 00	 cmp	 DWORD PTR _CurrentTime$[ebp+8], 0
  0056a	0f 57 c0	 xorps	 xmm0, xmm0

; 625  : 	SYSTEMTIME st = {0};

  0056d	0f 11 45 b8	 movups	 XMMWORD PTR _st$21[ebp], xmm0

; 602  : 	return GetStatus() == valid && ::VariantTimeToSystemTime(m_dt, &sysTime) == TRUE;

  00571	75 1e		 jne	 SHORT $LN273@GetMailInf
  00573	f2 0f 10 45 88	 movsd	 xmm0, QWORD PTR _CurrentTime$[ebp]
  00578	8d 45 b8	 lea	 eax, DWORD PTR _st$21[ebp]
  0057b	50		 push	 eax
  0057c	83 ec 08	 sub	 esp, 8
  0057f	f2 0f 11 04 24	 movsd	 QWORD PTR [esp], xmm0
  00584	ff d6		 call	 esi
  00586	83 f8 01	 cmp	 eax, 1
  00589	75 06		 jne	 SHORT $LN273@GetMailInf

; 626  : 	return GetAsSystemTime(st) ? st.wDay : error;

  0058b	0f b7 45 be	 movzx	 eax, WORD PTR _st$21[ebp+6]
  0058f	eb 03		 jmp	 SHORT $LN274@GetMailInf
$LN273@GetMailInf:
  00591	83 c8 ff	 or	 eax, -1
$LN274@GetMailInf:
  00594	0f 57 c9	 xorps	 xmm1, xmm1
  00597	0f 57 c0	 xorps	 xmm0, xmm0

; 506  : 	m_span = lDays + ((double)nHours)/24 + ((double)nMins)/(24*60) +

  0059a	f2 0f 2a cf	 cvtsi2sd xmm1, edi
  0059e	f2 0f 2a c0	 cvtsi2sd xmm0, eax
  005a2	f2 0f 5e 0d 00
	00 00 00	 divsd	 xmm1, QWORD PTR __real@4038000000000000
  005aa	f2 0f 58 c8	 addsd	 xmm1, xmm0
  005ae	0f 57 c0	 xorps	 xmm0, xmm0
  005b1	f2 0f 2a c3	 cvtsi2sd xmm0, ebx
  005b5	f2 0f 5e 05 00
	00 00 00	 divsd	 xmm0, QWORD PTR __real@4096800000000000
  005bd	f2 0f 58 c8	 addsd	 xmm1, xmm0
  005c1	0f 57 c0	 xorps	 xmm0, xmm0
  005c4	f2 0f 2a 45 b4	 cvtsi2sd xmm0, DWORD PTR $T17[ebp]
  005c9	f2 0f 5e 05 00
	00 00 00	 divsd	 xmm0, QWORD PTR __real@40f5180000000000
  005d1	f2 0f 58 c8	 addsd	 xmm1, xmm0

; 507  : 		((double)nSecs)/(24*60*60);
; 508  : 	m_status = valid;

  005d5	f2 0f 10 05 00
	00 00 00	 movsd	 xmm0, QWORD PTR __real@c14b964c80000000
  005dd	66 0f 2f c1	 comisd	 xmm0, xmm1

; 514  : 	if(m_span < -maxDaysInSpan || m_span > maxDaysInSpan)

  005e1	77 0e		 ja	 SHORT $LN285@GetMailInf
  005e3	66 0f 2f 0d 00
	00 00 00	 comisd	 xmm1, QWORD PTR __real@414b964c80000000
  005eb	77 04		 ja	 SHORT $LN285@GetMailInf

; 259  : inline COleDateTimeSpan::COleDateTimeSpan() throw() : m_span(0), m_status(valid)

  005ed	33 c0		 xor	 eax, eax
  005ef	eb 05		 jmp	 SHORT $LN371@GetMailInf
$LN285@GetMailInf:

; 516  : 		m_status = invalid;

  005f1	b8 01 00 00 00	 mov	 eax, 1
$LN371@GetMailInf:

; 456  : 	if (GetStatus() == invalid || dateSpan.GetStatus() == invalid)

  005f6	0f 57 c0	 xorps	 xmm0, xmm0
  005f9	0f 57 d2	 xorps	 xmm2, xmm2
  005fc	f2 0f 11 45 a8	 movsd	 QWORD PTR _ts$$sroa$66$1$[ebp], xmm0
  00601	83 f8 01	 cmp	 eax, 1
  00604	74 23		 je	 SHORT $LN301@GetMailInf
  00606	83 7d b0 01	 cmp	 DWORD PTR _temp$$sroa$142$1$[ebp], 1
  0060a	74 1d		 je	 SHORT $LN301@GetMailInf

; 457  : 	{
; 458  : 		dateSpanTemp.SetStatus(invalid);
; 459  : 		return dateSpanTemp;
; 460  : 	}
; 461  : 
; 462  : 	// Subtract spans and validate within legal range
; 463  : 	dateSpanTemp.m_span = m_span - dateSpan.m_span;

  0060c	0f 28 c1	 movaps	 xmm0, xmm1
  0060f	f2 0f 5c 45 d0	 subsd	 xmm0, QWORD PTR tv940[ebp]

; 295  : 	return (double)LONGLONG(m_span + (m_span < 0 ?

  00614	66 0f 2f d0	 comisd	 xmm2, xmm0

; 463  : 	dateSpanTemp.m_span = m_span - dateSpan.m_span;

  00618	f2 0f 11 45 a8	 movsd	 QWORD PTR _ts$$sroa$66$1$[ebp], xmm0

; 295  : 	return (double)LONGLONG(m_span + (m_span < 0 ?

  0061d	76 0a		 jbe	 SHORT $LN301@GetMailInf
  0061f	f2 0f 10 0d 00
	00 00 00	 movsd	 xmm1, QWORD PTR __real@bed845c8a0ce5129
  00627	eb 08		 jmp	 SHORT $LN302@GetMailInf
$LN301@GetMailInf:
  00629	f2 0f 10 0d 00
	00 00 00	 movsd	 xmm1, QWORD PTR __real@3ed845c8a0ce5129
$LN302@GetMailInf:
  00631	f2 0f 58 c1	 addsd	 xmm0, xmm1
  00635	e8 00 00 00 00	 call	 __dtol3
  0063a	8b c8		 mov	 ecx, eax
  0063c	e8 00 00 00 00	 call	 __ltod3
; File C:\IAGOS\server\v18\Source\Source\_Common\post.cpp

; 79   : 	nGap = (int)( (MAX_KEEP_MAX_DAY+1) - ts.GetTotalDays() );

  00641	f2 0f 10 0d 00
	00 00 00	 movsd	 xmm1, QWORD PTR __real@4030000000000000

; 80   : 
; 81   : 	if( dwKeepingTime )

  00649	8b 7d 80	 mov	 edi, DWORD PTR _dwKeepingTime$GSCopy$1$[ebp]
  0064c	f2 0f 5c c8	 subsd	 xmm1, xmm0
  00650	f2 0f 2c f1	 cvttsd2si esi, xmm1
  00654	85 ff		 test	 edi, edi
  00656	74 4e		 je	 SHORT $LN328@GetMailInf
; File C:\Program Files\Microsoft Visual Studio\2022\Professional\VC\Tools\MSVC\14.44.35207\atlmfc\include\ATLComTime.h

; 302  : 	return (double)LONGLONG((m_span + (m_span < 0 ?

  00658	f2 0f 10 45 a8	 movsd	 xmm0, QWORD PTR _ts$$sroa$66$1$[ebp]
  0065d	0f 57 c9	 xorps	 xmm1, xmm1
  00660	66 0f 2f c8	 comisd	 xmm1, xmm0
  00664	76 0a		 jbe	 SHORT $LN305@GetMailInf
  00666	f2 0f 10 0d 00
	00 00 00	 movsd	 xmm1, QWORD PTR __real@bed845c8a0ce5129
  0066e	eb 08		 jmp	 SHORT $LN306@GetMailInf
$LN305@GetMailInf:
  00670	f2 0f 10 0d 00
	00 00 00	 movsd	 xmm1, QWORD PTR __real@3ed845c8a0ce5129
$LN306@GetMailInf:
  00678	f2 0f 58 c1	 addsd	 xmm0, xmm1
  0067c	f2 0f 59 05 00
	00 00 00	 mulsd	 xmm0, QWORD PTR __real@4038000000000000
  00684	e8 00 00 00 00	 call	 __dtol3
  00689	8b c8		 mov	 ecx, eax
  0068b	e8 00 00 00 00	 call	 __ltod3
; File C:\IAGOS\server\v18\Source\Source\_Common\post.cpp

; 83   : 		*dwKeepingTime = (DWORD)( (MAX_KEEP_MAX_DAY*24) - ts.GetTotalHours() );

  00690	f2 0f 10 0d 00
	00 00 00	 movsd	 xmm1, QWORD PTR __real@4076800000000000
  00698	f2 0f 5c c8	 subsd	 xmm1, xmm0
  0069c	0f 28 c1	 movaps	 xmm0, xmm1
  0069f	e8 00 00 00 00	 call	 __dtol3
  006a4	89 07		 mov	 DWORD PTR [edi], eax
$LN328@GetMailInf:

; 84   : 	}
; 85   : 
; 86   : 	*nKeepingDay = nGap;
; 87   : }

  006a6	8b 45 84	 mov	 eax, DWORD PTR _nKeepingDay$GSCopy$1$[ebp]
  006a9	8b 4d fc	 mov	 ecx, DWORD PTR __$ArrayPad$[ebp]
  006ac	5f		 pop	 edi
  006ad	33 cd		 xor	 ecx, ebp
  006af	89 30		 mov	 DWORD PTR [eax], esi
  006b1	5e		 pop	 esi
  006b2	5b		 pop	 ebx
  006b3	e8 00 00 00 00	 call	 @__security_check_cookie@4
  006b8	8b e5		 mov	 esp, ebp
  006ba	5d		 pop	 ebp
  006bb	c2 08 00	 ret	 8
?GetMailInfo@CMail@@QAEXPAHPAK@Z ENDP			; CMail::GetMailInfo
_TEXT	ENDS
; Function compile flags: /Ogtp
; File C:\IAGOS\server\v18\Source\Source\_Common\post.cpp
; File C:\IAGOS\server\v18\Source\Source\_Network\Misc\Include\ar.h
; File C:\IAGOS\server\v18\Source\Source\_Common\post.cpp
; File C:\IAGOS\server\v18\Source\Source\_Network\Misc\Include\ar.h
; File C:\IAGOS\server\v18\Source\Source\_Common\post.cpp
; File C:\IAGOS\server\v18\Source\Source\_Network\Misc\Include\ar.h
; File C:\IAGOS\server\v18\Source\Source\_Common\post.cpp
; File C:\IAGOS\server\v18\Source\Source\_Network\Misc\Include\ar.h
; File C:\IAGOS\server\v18\Source\Source\_Common\post.cpp
;	COMDAT ?Serialize@CMail@@QAEXAAVCAr@@H@Z
_TEXT	SEGMENT
__$EHRec$ = -12						; size = 12
_ar$ = 8						; size = 4
$T2 = 8							; size = 4
$T3 = 8							; size = 4
_tm$4 = 8						; size = 4
$T5 = 8							; size = 4
_tm$6 = 8						; size = 4
$T7 = 11						; size = 1
$T8 = 11						; size = 1
_byItemElem$9 = 11					; size = 1
_bData$ = 12						; size = 4
?Serialize@CMail@@QAEXAAVCAr@@H@Z PROC			; CMail::Serialize, COMDAT
; _this$ = ecx

; 90   : {

  00000	55		 push	 ebp
  00001	8b ec		 mov	 ebp, esp
  00003	6a ff		 push	 -1
  00005	68 00 00 00 00	 push	 __ehhandler$?Serialize@CMail@@QAEXAAVCAr@@H@Z
  0000a	64 a1 00 00 00
	00		 mov	 eax, DWORD PTR fs:0
  00010	50		 push	 eax
  00011	53		 push	 ebx
  00012	56		 push	 esi
  00013	57		 push	 edi
  00014	a1 00 00 00 00	 mov	 eax, DWORD PTR ___security_cookie
  00019	33 c5		 xor	 eax, ebp
  0001b	50		 push	 eax
  0001c	8d 45 f4	 lea	 eax, DWORD PTR __$EHRec$[ebp]
  0001f	64 a3 00 00 00
	00		 mov	 DWORD PTR fs:0, eax
  00025	8b f9		 mov	 edi, ecx
  00027	8b 75 08	 mov	 esi, DWORD PTR _ar$[ebp]
  0002a	8d 4f 04	 lea	 ecx, DWORD PTR [edi+4]
  0002d	8a 06		 mov	 al, BYTE PTR [esi]
  0002f	24 01		 and	 al, 1

; 91   : 	if( bData )

  00031	83 7d 0c 00	 cmp	 DWORD PTR _bData$[ebp], 0
  00035	0f 84 4c 01 00
	00		 je	 $LN2@Serialize
; File C:\IAGOS\server\v18\Source\Source\_Network\Misc\Include\ar.h

; 146  : 	return (m_nMode & CAr::load) == 0;

  0003b	8d 57 08	 lea	 edx, DWORD PTR [edi+8]
; File C:\IAGOS\server\v18\Source\Source\_Common\post.cpp

; 93   : 		if( ar.IsStoring() )

  0003e	52		 push	 edx
  0003f	51		 push	 ecx
  00040	8b ce		 mov	 ecx, esi
; File C:\IAGOS\server\v18\Source\Source\_Network\Misc\Include\ar.h

; 146  : 	return (m_nMode & CAr::load) == 0;

  00042	84 c0		 test	 al, al
; File C:\IAGOS\server\v18\Source\Source\_Common\post.cpp

; 93   : 		if( ar.IsStoring() )

  00044	0f 85 8b 00 00
	00		 jne	 $LN4@Serialize

; 94   : 		{
; 95   : 			ar << m_nMail << m_idSender;

  0004a	e8 00 00 00 00	 call	 ??$?6K@CAr@@QAEAAV0@ABK@Z ; CAr::operator<<<unsigned long>
  0004f	8b c8		 mov	 ecx, eax
  00051	e8 00 00 00 00	 call	 ??$?6K@CAr@@QAEAAV0@ABK@Z ; CAr::operator<<<unsigned long>

; 96   : 			if( m_pItemElem )

  00056	83 7f 0c 00	 cmp	 DWORD PTR [edi+12], 0
  0005a	8d 45 0b	 lea	 eax, DWORD PTR $T7[ebp]
  0005d	8b ce		 mov	 ecx, esi
  0005f	50		 push	 eax
  00060	74 14		 je	 SHORT $LN6@Serialize

; 97   : 			{
; 98   : 				ar << (BYTE)1;

  00062	c6 45 0b 01	 mov	 BYTE PTR $T7[ebp], 1
  00066	e8 00 00 00 00	 call	 ??$?6E@CAr@@QAEAAV0@ABE@Z ; CAr::operator<<<unsigned char>

; 99   : 				m_pItemElem->Serialize( ar );

  0006b	8b 4f 0c	 mov	 ecx, DWORD PTR [edi+12]
  0006e	56		 push	 esi
  0006f	8b 01		 mov	 eax, DWORD PTR [ecx]
  00071	ff 50 08	 call	 DWORD PTR [eax+8]

; 100  : 			}

  00074	eb 09		 jmp	 SHORT $LN7@Serialize
$LN6@Serialize:

; 101  : 			else
; 102  : 			{
; 103  : 				ar << (BYTE)0;

  00076	c6 45 0b 00	 mov	 BYTE PTR $T8[ebp], 0
  0007a	e8 00 00 00 00	 call	 ??$?6E@CAr@@QAEAAV0@ABE@Z ; CAr::operator<<<unsigned char>
$LN7@Serialize:

; 104  : 			}
; 105  : 			ar << m_nGold;

  0007f	8d 47 10	 lea	 eax, DWORD PTR [edi+16]
  00082	8b ce		 mov	 ecx, esi
  00084	50		 push	 eax
  00085	e8 00 00 00 00	 call	 ??$?6K@CAr@@QAEAAV0@ABK@Z ; CAr::operator<<<unsigned long>

; 106  : 	//		ar << m_tmCreate;
; 107  : 			ar << time_null() - m_tmCreate;

  0008a	a1 00 00 00 00	 mov	 eax, DWORD PTR ?g_tCurrent@@3JA ; g_tCurrent
  0008f	8b ce		 mov	 ecx, esi
  00091	2b 47 14	 sub	 eax, DWORD PTR [edi+20]
  00094	89 45 08	 mov	 DWORD PTR $T2[ebp], eax
  00097	8d 45 08	 lea	 eax, DWORD PTR $T2[ebp]
  0009a	50		 push	 eax
  0009b	e8 00 00 00 00	 call	 ??$?6J@CAr@@QAEAAV0@ABJ@Z ; CAr::operator<<<long>

; 108  : 
; 109  : 			ar << m_byRead;

  000a0	8d 47 18	 lea	 eax, DWORD PTR [edi+24]
  000a3	8b ce		 mov	 ecx, esi
  000a5	50		 push	 eax
  000a6	e8 00 00 00 00	 call	 ??$?6E@CAr@@QAEAAV0@ABE@Z ; CAr::operator<<<unsigned char>

; 110  : 			ar.WriteString( m_szTitle );

  000ab	8d 47 19	 lea	 eax, DWORD PTR [edi+25]
  000ae	8b ce		 mov	 ecx, esi
  000b0	50		 push	 eax
  000b1	e8 00 00 00 00	 call	 ?WriteString@CAr@@QAEXPBD@Z ; CAr::WriteString

; 111  : 			ar.WriteString( m_szText );

  000b6	8d 47 39	 lea	 eax, DWORD PTR [edi+57]
  000b9	8b ce		 mov	 ecx, esi
  000bb	50		 push	 eax
  000bc	e8 00 00 00 00	 call	 ?WriteString@CAr@@QAEXPBD@Z ; CAr::WriteString

; 153  : 		}
; 154  : 	}
; 155  : }

  000c1	8b 4d f4	 mov	 ecx, DWORD PTR __$EHRec$[ebp]
  000c4	64 89 0d 00 00
	00 00		 mov	 DWORD PTR fs:0, ecx
  000cb	59		 pop	 ecx
  000cc	5f		 pop	 edi
  000cd	5e		 pop	 esi
  000ce	5b		 pop	 ebx
  000cf	8b e5		 mov	 esp, ebp
  000d1	5d		 pop	 ebp
  000d2	c2 08 00	 ret	 8
$LN4@Serialize:

; 112  : 		}
; 113  : 		else
; 114  : 		{
; 115  : 			ar >> m_nMail >> m_idSender;

  000d5	e8 00 00 00 00	 call	 ??$?5K@CAr@@QAEAAV0@AAK@Z ; CAr::operator>><unsigned long>
  000da	8b c8		 mov	 ecx, eax
  000dc	e8 00 00 00 00	 call	 ??$?5K@CAr@@QAEAAV0@AAK@Z ; CAr::operator>><unsigned long>

; 116  : 
; 117  : 			// ¸ŢŔĎ ·Î±×
; 118  : //			//	BEGINTEST
; 119  : // 			Error( _T( "m_nMail:%d, m_idSender:%d" ), m_nMail, m_idSender );
; 120  : 
; 121  : 			BYTE byItemElem;
; 122  : 			ar >> byItemElem;

  000e1	8d 45 0b	 lea	 eax, DWORD PTR _byItemElem$9[ebp]
  000e4	8b ce		 mov	 ecx, esi
  000e6	50		 push	 eax
  000e7	e8 00 00 00 00	 call	 ??$?5E@CAr@@QAEAAV0@AAE@Z ; CAr::operator>><unsigned char>

; 123  : 			if( byItemElem )

  000ec	80 7d 0b 00	 cmp	 BYTE PTR _byItemElem$9[ebp], 0
  000f0	74 38		 je	 SHORT $LN8@Serialize

; 124  : 			{
; 125  : 				m_pItemElem	= new CItemElem;

  000f2	68 b0 00 00 00	 push	 176			; 000000b0H
  000f7	e8 00 00 00 00	 call	 ??2@YAPAXI@Z		; operator new
  000fc	83 c4 04	 add	 esp, 4
  000ff	89 45 08	 mov	 DWORD PTR $T3[ebp], eax
  00102	c7 45 fc 00 00
	00 00		 mov	 DWORD PTR __$EHRec$[ebp+8], 0
  00109	85 c0		 test	 eax, eax
  0010b	74 0b		 je	 SHORT $LN12@Serialize
  0010d	8b c8		 mov	 ecx, eax
  0010f	e8 00 00 00 00	 call	 ??0CItemElem@@QAE@XZ	; CItemElem::CItemElem
  00114	8b c8		 mov	 ecx, eax
  00116	eb 02		 jmp	 SHORT $LN13@Serialize
$LN12@Serialize:
  00118	33 c9		 xor	 ecx, ecx
$LN13@Serialize:
  0011a	89 4f 0c	 mov	 DWORD PTR [edi+12], ecx

; 126  : 				m_pItemElem->Serialize( ar );

  0011d	8b 01		 mov	 eax, DWORD PTR [ecx]
  0011f	56		 push	 esi
  00120	c7 45 fc ff ff
	ff ff		 mov	 DWORD PTR __$EHRec$[ebp+8], -1
  00127	ff 50 08	 call	 DWORD PTR [eax+8]
$LN8@Serialize:

; 127  : 			}
; 128  : 			ar >> m_nGold;

  0012a	8d 47 10	 lea	 eax, DWORD PTR [edi+16]
  0012d	8b ce		 mov	 ecx, esi
  0012f	50		 push	 eax
  00130	e8 00 00 00 00	 call	 ??$?5K@CAr@@QAEAAV0@AAK@Z ; CAr::operator>><unsigned long>

; 129  : 			time_t tm;
; 130  : 			ar >> tm;

  00135	8d 45 08	 lea	 eax, DWORD PTR _tm$4[ebp]
  00138	8b ce		 mov	 ecx, esi
  0013a	50		 push	 eax
  0013b	e8 00 00 00 00	 call	 ??$?5J@CAr@@QAEAAV0@AAJ@Z ; CAr::operator>><long>

; 131  : 			m_tmCreate	= time_null() - tm; 

  00140	a1 00 00 00 00	 mov	 eax, DWORD PTR ?g_tCurrent@@3JA ; g_tCurrent

; 132  : 	//		ar >> m_tmCreate;
; 133  : 			ar >> m_byRead;

  00145	8b ce		 mov	 ecx, esi
  00147	2b 45 08	 sub	 eax, DWORD PTR _tm$4[ebp]
  0014a	89 47 14	 mov	 DWORD PTR [edi+20], eax
  0014d	8d 47 18	 lea	 eax, DWORD PTR [edi+24]
  00150	50		 push	 eax
  00151	e8 00 00 00 00	 call	 ??$?5E@CAr@@QAEAAV0@AAE@Z ; CAr::operator>><unsigned char>

; 134  : 			ar.ReadString( m_szTitle, MAX_MAILTITLE );

  00156	6a 20		 push	 32			; 00000020H
  00158	8d 47 19	 lea	 eax, DWORD PTR [edi+25]
  0015b	8b ce		 mov	 ecx, esi
  0015d	50		 push	 eax
  0015e	e8 00 00 00 00	 call	 ?ReadString@CAr@@QAEPADPADH@Z ; CAr::ReadString

; 135  : 			ar.ReadString( m_szText, MAX_MAILTEXT );

  00163	68 00 01 00 00	 push	 256			; 00000100H
  00168	8d 47 39	 lea	 eax, DWORD PTR [edi+57]
  0016b	8b ce		 mov	 ecx, esi
  0016d	50		 push	 eax
  0016e	e8 00 00 00 00	 call	 ?ReadString@CAr@@QAEPADPADH@Z ; CAr::ReadString

; 153  : 		}
; 154  : 	}
; 155  : }

  00173	8b 4d f4	 mov	 ecx, DWORD PTR __$EHRec$[ebp]
  00176	64 89 0d 00 00
	00 00		 mov	 DWORD PTR fs:0, ecx
  0017d	59		 pop	 ecx
  0017e	5f		 pop	 edi
  0017f	5e		 pop	 esi
  00180	5b		 pop	 ebx
  00181	8b e5		 mov	 esp, ebp
  00183	5d		 pop	 ebp
  00184	c2 08 00	 ret	 8
$LN2@Serialize:
; File C:\IAGOS\server\v18\Source\Source\_Network\Misc\Include\ar.h

; 146  : 	return (m_nMode & CAr::load) == 0;

  00187	8d 5f 18	 lea	 ebx, DWORD PTR [edi+24]
; File C:\IAGOS\server\v18\Source\Source\_Common\post.cpp

; 140  : 		if( ar.IsStoring() )

  0018a	51		 push	 ecx
  0018b	8b ce		 mov	 ecx, esi
; File C:\IAGOS\server\v18\Source\Source\_Network\Misc\Include\ar.h

; 146  : 	return (m_nMode & CAr::load) == 0;

  0018d	84 c0		 test	 al, al
; File C:\IAGOS\server\v18\Source\Source\_Common\post.cpp

; 140  : 		if( ar.IsStoring() )

  0018f	75 37		 jne	 SHORT $LN9@Serialize

; 141  : 		{
; 142  : 			ar << m_nMail;

  00191	e8 00 00 00 00	 call	 ??$?6K@CAr@@QAEAAV0@ABK@Z ; CAr::operator<<<unsigned long>

; 143  : 			ar << time_null() - m_tmCreate;

  00196	a1 00 00 00 00	 mov	 eax, DWORD PTR ?g_tCurrent@@3JA ; g_tCurrent
  0019b	8b ce		 mov	 ecx, esi
  0019d	2b 47 14	 sub	 eax, DWORD PTR [edi+20]
  001a0	89 45 08	 mov	 DWORD PTR $T5[ebp], eax
  001a3	8d 45 08	 lea	 eax, DWORD PTR $T5[ebp]
  001a6	50		 push	 eax
  001a7	e8 00 00 00 00	 call	 ??$?6J@CAr@@QAEAAV0@ABJ@Z ; CAr::operator<<<long>

; 144  : 			ar << m_byRead;

  001ac	53		 push	 ebx
  001ad	8b ce		 mov	 ecx, esi
  001af	e8 00 00 00 00	 call	 ??$?6E@CAr@@QAEAAV0@ABE@Z ; CAr::operator<<<unsigned char>

; 153  : 		}
; 154  : 	}
; 155  : }

  001b4	8b 4d f4	 mov	 ecx, DWORD PTR __$EHRec$[ebp]
  001b7	64 89 0d 00 00
	00 00		 mov	 DWORD PTR fs:0, ecx
  001be	59		 pop	 ecx
  001bf	5f		 pop	 edi
  001c0	5e		 pop	 esi
  001c1	5b		 pop	 ebx
  001c2	8b e5		 mov	 esp, ebp
  001c4	5d		 pop	 ebp
  001c5	c2 08 00	 ret	 8
$LN9@Serialize:

; 145  : 		}
; 146  : 		else	// load
; 147  : 		{
; 148  : 			ar >> m_nMail;

  001c8	e8 00 00 00 00	 call	 ??$?5K@CAr@@QAEAAV0@AAK@Z ; CAr::operator>><unsigned long>

; 149  : 			time_t tm;
; 150  : 			ar >> tm;

  001cd	8d 45 08	 lea	 eax, DWORD PTR _tm$6[ebp]
  001d0	8b ce		 mov	 ecx, esi
  001d2	50		 push	 eax
  001d3	e8 00 00 00 00	 call	 ??$?5J@CAr@@QAEAAV0@AAJ@Z ; CAr::operator>><long>

; 151  : 			m_tmCreate	= time_null() - tm; 

  001d8	a1 00 00 00 00	 mov	 eax, DWORD PTR ?g_tCurrent@@3JA ; g_tCurrent

; 152  : 			ar >> m_byRead;

  001dd	8b ce		 mov	 ecx, esi
  001df	2b 45 08	 sub	 eax, DWORD PTR _tm$6[ebp]
  001e2	53		 push	 ebx
  001e3	89 47 14	 mov	 DWORD PTR [edi+20], eax
  001e6	e8 00 00 00 00	 call	 ??$?5E@CAr@@QAEAAV0@AAE@Z ; CAr::operator>><unsigned char>

; 153  : 		}
; 154  : 	}
; 155  : }

  001eb	8b 4d f4	 mov	 ecx, DWORD PTR __$EHRec$[ebp]
  001ee	64 89 0d 00 00
	00 00		 mov	 DWORD PTR fs:0, ecx
  001f5	59		 pop	 ecx
  001f6	5f		 pop	 edi
  001f7	5e		 pop	 esi
  001f8	5b		 pop	 ebx
  001f9	8b e5		 mov	 esp, ebp
  001fb	5d		 pop	 ebp
  001fc	c2 08 00	 ret	 8
_TEXT	ENDS
;	COMDAT text$x
text$x	SEGMENT
__unwindfunclet$?Serialize@CMail@@QAEXAAVCAr@@H@Z$0:
  00000	68 b0 00 00 00	 push	 176			; 000000b0H
  00005	8b 45 08	 mov	 eax, DWORD PTR $T3[ebp]
  00008	50		 push	 eax
  00009	e8 00 00 00 00	 call	 ??3@YAXPAXI@Z		; operator delete
  0000e	83 c4 08	 add	 esp, 8
  00011	c3		 ret	 0
  00012	cc		 int	 3
  00013	cc		 int	 3
  00014	cc		 int	 3
  00015	cc		 int	 3
  00016	cc		 int	 3
__ehhandler$?Serialize@CMail@@QAEXAAVCAr@@H@Z:
  00017	90		 npad	 1
  00018	90		 npad	 1
  00019	8b 54 24 08	 mov	 edx, DWORD PTR [esp+8]
  0001d	8d 42 0c	 lea	 eax, DWORD PTR [edx+12]
  00020	8b 4a f0	 mov	 ecx, DWORD PTR [edx-16]
  00023	33 c8		 xor	 ecx, eax
  00025	e8 00 00 00 00	 call	 @__security_check_cookie@4
  0002a	b8 00 00 00 00	 mov	 eax, OFFSET __ehfuncinfo$?Serialize@CMail@@QAEXAAVCAr@@H@Z
  0002f	e9 00 00 00 00	 jmp	 ___CxxFrameHandler3
text$x	ENDS
?Serialize@CMail@@QAEXAAVCAr@@H@Z ENDP			; CMail::Serialize
; Function compile flags: /Ogtp
; File C:\IAGOS\server\v18\Source\Source\_Common\post.cpp
;	COMDAT ?GetCost@CMail@@QAEKXZ
_TEXT	SEGMENT
?GetCost@CMail@@QAEKXZ PROC				; CMail::GetCost, COMDAT
; _this$ = ecx

; 58   : 	return 0;

  00000	33 c0		 xor	 eax, eax

; 59   : }

  00002	c3		 ret	 0
?GetCost@CMail@@QAEKXZ ENDP				; CMail::GetCost
_TEXT	ENDS
; Function compile flags: /Ogtp
; File C:\IAGOS\server\v18\Source\Source\_Common\post.cpp
;	COMDAT ?Clear@CMail@@QAEXXZ
_TEXT	SEGMENT
?Clear@CMail@@QAEXXZ PROC				; CMail::Clear, COMDAT
; _this$ = ecx

; 52   : {

  00000	56		 push	 esi
  00001	8b f1		 mov	 esi, ecx

; 53   : 	SAFE_DELETE( m_pItemElem );

  00003	8b 4e 0c	 mov	 ecx, DWORD PTR [esi+12]
  00006	85 c9		 test	 ecx, ecx
  00008	74 0d		 je	 SHORT $LN2@Clear
  0000a	8b 01		 mov	 eax, DWORD PTR [ecx]
  0000c	6a 01		 push	 1
  0000e	ff 10		 call	 DWORD PTR [eax]
  00010	c7 46 0c 00 00
	00 00		 mov	 DWORD PTR [esi+12], 0
$LN2@Clear:

; 54   : }

  00017	5e		 pop	 esi
  00018	c3		 ret	 0
?Clear@CMail@@QAEXXZ ENDP				; CMail::Clear
_TEXT	ENDS
; Function compile flags: /Ogtp
; File C:\IAGOS\server\v18\Source\Source\_Common\post.cpp
;	COMDAT ??1CMail@@UAE@XZ
_TEXT	SEGMENT
??1CMail@@UAE@XZ PROC					; CMail::~CMail, COMDAT
; _this$ = ecx

; 47   : {

  00000	c7 01 00 00 00
	00		 mov	 DWORD PTR [ecx], OFFSET ??_7CMail@@6B@

; 48   : 	Clear();

  00006	e9 00 00 00 00	 jmp	 ?Clear@CMail@@QAEXXZ	; CMail::Clear
??1CMail@@UAE@XZ ENDP					; CMail::~CMail
_TEXT	ENDS
; Function compile flags: /Ogtp
; File C:\IAGOS\server\v18\Source\Source\_Common\post.cpp
;	COMDAT ??0CMail@@QAE@KPAVCItemElem@@HPAD1@Z
_TEXT	SEGMENT
_idSender$ = 8						; size = 4
_pItemElem$ = 12					; size = 4
_nGold$ = 16						; size = 4
_szTitle$ = 20						; size = 4
_szText$ = 24						; size = 4
??0CMail@@QAE@KPAVCItemElem@@HPAD1@Z PROC		; CMail::CMail, COMDAT
; _this$ = ecx

; 32   : {

  00000	55		 push	 ebp
  00001	8b ec		 mov	 ebp, esp

; 33   : 	m_nMail	= 0;
; 34   : 	m_idSender	= idSender;

  00003	8b 45 08	 mov	 eax, DWORD PTR _idSender$[ebp]
  00006	57		 push	 edi

; 35   : 	m_pItemElem	= pItemElem;
; 36   : 	m_tmCreate	= time_null();
; 37   : 	m_byRead	= FALSE;
; 38   : 	lstrcpy( m_szTitle, szTitle );

  00007	ff 75 14	 push	 DWORD PTR _szTitle$[ebp]
  0000a	8b f9		 mov	 edi, ecx
  0000c	89 47 08	 mov	 DWORD PTR [edi+8], eax
  0000f	8b 45 0c	 mov	 eax, DWORD PTR _pItemElem$[ebp]
  00012	89 47 0c	 mov	 DWORD PTR [edi+12], eax
  00015	c7 07 00 00 00
	00		 mov	 DWORD PTR [edi], OFFSET ??_7CMail@@6B@
  0001b	c7 47 04 00 00
	00 00		 mov	 DWORD PTR [edi+4], 0
  00022	a1 00 00 00 00	 mov	 eax, DWORD PTR ?g_tCurrent@@3JA ; g_tCurrent
  00027	89 47 14	 mov	 DWORD PTR [edi+20], eax
  0002a	8d 47 19	 lea	 eax, DWORD PTR [edi+25]
  0002d	50		 push	 eax
  0002e	c6 47 18 00	 mov	 BYTE PTR [edi+24], 0
  00032	ff 15 00 00 00
	00		 call	 DWORD PTR __imp__lstrcpyA@8

; 39   : 	lstrcpy( m_szText, szText );

  00038	ff 75 18	 push	 DWORD PTR _szText$[ebp]
  0003b	8d 47 39	 lea	 eax, DWORD PTR [edi+57]
  0003e	50		 push	 eax
  0003f	ff 15 00 00 00
	00		 call	 DWORD PTR __imp__lstrcpyA@8

; 40   : #ifdef __DBSERVER
; 41   : 	m_pMailBox	= NULL;
; 42   : #endif	// __DBSERVER
; 43   : 	m_nGold		= 0;

  00045	c7 47 10 00 00
	00 00		 mov	 DWORD PTR [edi+16], 0

; 44   : }

  0004c	8b c7		 mov	 eax, edi
  0004e	5f		 pop	 edi
  0004f	5d		 pop	 ebp
  00050	c2 14 00	 ret	 20			; 00000014H
??0CMail@@QAE@KPAVCItemElem@@HPAD1@Z ENDP		; CMail::CMail
_TEXT	ENDS
; Function compile flags: /Ogtp
; File C:\IAGOS\server\v18\Source\Source\_Common\post.cpp
;	COMDAT ??0CMail@@QAE@XZ
_TEXT	SEGMENT
??0CMail@@QAE@XZ PROC					; CMail::CMail, COMDAT
; _this$ = ecx

; 17   : {

  00000	c7 01 00 00 00
	00		 mov	 DWORD PTR [ecx], OFFSET ??_7CMail@@6B@

; 18   : 	m_nMail	= 0;
; 19   : 	m_idSender	= 0;
; 20   : 	m_pItemElem	= NULL;
; 21   : 	m_tmCreate	= 0;
; 22   : 	m_byRead	= FALSE;
; 23   : 	*m_szTitle	= '\0';
; 24   : 	*m_szText	= '\0';
; 25   : #ifdef __DBSERVER
; 26   : 	m_pMailBox	= NULL;
; 27   : #endif	// __DBSERVER
; 28   : 	m_nGold		= 0;
; 29   : }

  00006	8b c1		 mov	 eax, ecx
  00008	c7 41 04 00 00
	00 00		 mov	 DWORD PTR [ecx+4], 0
  0000f	c7 41 08 00 00
	00 00		 mov	 DWORD PTR [ecx+8], 0
  00016	c7 41 0c 00 00
	00 00		 mov	 DWORD PTR [ecx+12], 0
  0001d	c7 41 14 00 00
	00 00		 mov	 DWORD PTR [ecx+20], 0
  00024	66 c7 41 18 00
	00		 mov	 WORD PTR [ecx+24], 0
  0002a	c6 41 39 00	 mov	 BYTE PTR [ecx+57], 0
  0002e	c7 41 10 00 00
	00 00		 mov	 DWORD PTR [ecx+16], 0
  00035	c3		 ret	 0
??0CMail@@QAE@XZ ENDP					; CMail::CMail
_TEXT	ENDS
; Function compile flags: /Ogtp
; File C:\Program Files\Microsoft Visual Studio\2022\Professional\VC\Tools\MSVC\14.44.35207\include\xmemory
;	COMDAT ??$_Allocate_manually_vector_aligned@U_Default_allocate_traits@std@@@std@@YAPAXI@Z
_TEXT	SEGMENT
__Bytes$ = 8						; size = 4
??$_Allocate_manually_vector_aligned@U_Default_allocate_traits@std@@@std@@YAPAXI@Z PROC ; std::_Allocate_manually_vector_aligned<std::_Default_allocate_traits>, COMDAT

; 182  : __declspec(allocator) void* _Allocate_manually_vector_aligned(const size_t _Bytes) {

  00000	55		 push	 ebp
  00001	8b ec		 mov	 ebp, esp

; 183  :     // allocate _Bytes manually aligned to at least _Big_allocation_alignment
; 184  :     const size_t _Block_size = _Non_user_size + _Bytes;

  00003	8b 45 08	 mov	 eax, DWORD PTR __Bytes$[ebp]
  00006	8d 48 23	 lea	 ecx, DWORD PTR [eax+35]

; 185  :     if (_Block_size <= _Bytes) {

  00009	3b c8		 cmp	 ecx, eax
  0000b	0f 86 00 00 00
	00		 jbe	 ?_Throw_bad_array_new_length@std@@YAXXZ ; std::_Throw_bad_array_new_length

; 136  :         return ::operator new(_Bytes);

  00011	51		 push	 ecx
  00012	e8 00 00 00 00	 call	 ??2@YAPAXI@Z		; operator new

; 186  :         _Throw_bad_array_new_length(); // add overflow
; 187  :     }
; 188  : 
; 189  :     const uintptr_t _Ptr_container = reinterpret_cast<uintptr_t>(_Traits::_Allocate(_Block_size));

  00017	8b c8		 mov	 ecx, eax

; 136  :         return ::operator new(_Bytes);

  00019	83 c4 04	 add	 esp, 4

; 190  :     _STL_VERIFY(_Ptr_container != 0, "invalid argument"); // validate even in release since we're doing p[-1]

  0001c	85 c9		 test	 ecx, ecx
  0001e	74 0b		 je	 SHORT $LN9@Allocate_m

; 191  :     void* const _Ptr = reinterpret_cast<void*>((_Ptr_container + _Non_user_size) & ~(_Big_allocation_alignment - 1));

  00020	8d 41 23	 lea	 eax, DWORD PTR [ecx+35]
  00023	83 e0 e0	 and	 eax, -32		; ffffffe0H

; 192  :     static_cast<uintptr_t*>(_Ptr)[-1] = _Ptr_container;

  00026	89 48 fc	 mov	 DWORD PTR [eax-4], ecx

; 193  : 
; 194  : #ifdef _DEBUG
; 195  :     static_cast<uintptr_t*>(_Ptr)[-2] = _Big_allocation_sentinel;
; 196  : #endif // defined(_DEBUG)
; 197  :     return _Ptr;
; 198  : }

  00029	5d		 pop	 ebp
  0002a	c3		 ret	 0
$LN9@Allocate_m:

; 190  :     _STL_VERIFY(_Ptr_container != 0, "invalid argument"); // validate even in release since we're doing p[-1]

  0002b	6a 00		 push	 0
  0002d	6a 00		 push	 0
  0002f	6a 00		 push	 0
  00031	6a 00		 push	 0
  00033	6a 00		 push	 0
  00035	e8 00 00 00 00	 call	 __invoke_watson
$LN7@Allocate_m:
  0003a	cc		 int	 3
??$_Allocate_manually_vector_aligned@U_Default_allocate_traits@std@@@std@@YAPAXI@Z ENDP ; std::_Allocate_manually_vector_aligned<std::_Default_allocate_traits>
_TEXT	ENDS
; Function compile flags: /Ogtp
; File C:\Program Files\Microsoft Visual Studio\2022\Professional\VC\Tools\MSVC\14.44.35207\atlmfc\include\ATLComTime.h
; File C:\Program Files\Microsoft Visual Studio\2022\Professional\VC\Tools\MSVC\14.44.35207\atlmfc\include\atlcore.h
; File C:\Program Files\Microsoft Visual Studio\2022\Professional\VC\Tools\MSVC\14.44.35207\atlmfc\include\ATLComTime.h
; File C:\Program Files\Microsoft Visual Studio\2022\Professional\VC\Tools\MSVC\14.44.35207\atlmfc\include\atlcore.h
; File C:\Program Files\Microsoft Visual Studio\2022\Professional\VC\Tools\MSVC\14.44.35207\atlmfc\include\ATLComTime.h
; File C:\Program Files\Microsoft Visual Studio\2022\Professional\VC\Tools\MSVC\14.44.35207\atlmfc\include\atlcore.h
; File C:\Program Files\Microsoft Visual Studio\2022\Professional\VC\Tools\MSVC\14.44.35207\atlmfc\include\ATLComTime.h
;	COMDAT ?SetDateTime@COleDateTime@ATL@@QAEHHHHHHH@Z
_TEXT	SEGMENT
_sysTime$1 = -36					; size = 16
_st$ = -20						; size = 16
__$ArrayPad$ = -4					; size = 4
_nYear$ = 8						; size = 4
_nMonth$ = 12						; size = 4
_nDay$ = 16						; size = 4
_nHour$ = 20						; size = 4
_nMin$ = 24						; size = 4
_nSec$ = 28						; size = 4
?SetDateTime@COleDateTime@ATL@@QAEHHHHHHH@Z PROC	; ATL::COleDateTime::SetDateTime, COMDAT
; _this$ = ecx

; 876  : {

  00000	55		 push	 ebp
  00001	8b ec		 mov	 ebp, esp
  00003	83 ec 24	 sub	 esp, 36			; 00000024H
  00006	a1 00 00 00 00	 mov	 eax, DWORD PTR ___security_cookie
  0000b	33 c5		 xor	 eax, ebp
  0000d	89 45 fc	 mov	 DWORD PTR __$ArrayPad$[ebp], eax

; 877  : 	SYSTEMTIME st;
; 878  : 	::ZeroMemory(&st, sizeof(SYSTEMTIME));
; 879  : 
; 880  : 	st.wYear = WORD(nYear);

  00010	66 8b 45 08	 mov	 ax, WORD PTR _nYear$[ebp]
  00014	0f 57 c0	 xorps	 xmm0, xmm0
  00017	0f 11 45 ec	 movups	 XMMWORD PTR _st$[ebp], xmm0
  0001b	66 89 45 ec	 mov	 WORD PTR _st$[ebp], ax

; 881  : 	st.wMonth = WORD(nMonth);

  0001f	66 8b 45 0c	 mov	 ax, WORD PTR _nMonth$[ebp]
  00023	66 89 45 ee	 mov	 WORD PTR _st$[ebp+2], ax

; 882  : 	st.wDay = WORD(nDay);

  00027	66 8b 45 10	 mov	 ax, WORD PTR _nDay$[ebp]
  0002b	66 89 45 f2	 mov	 WORD PTR _st$[ebp+6], ax

; 883  : 	st.wHour = WORD(nHour);

  0002f	66 8b 45 14	 mov	 ax, WORD PTR _nHour$[ebp]
  00033	66 89 45 f4	 mov	 WORD PTR _st$[ebp+8], ax

; 884  : 	st.wMinute = WORD(nMin);

  00037	66 8b 45 18	 mov	 ax, WORD PTR _nMin$[ebp]
  0003b	56		 push	 esi
  0003c	8b f1		 mov	 esi, ecx
  0003e	66 89 45 f6	 mov	 WORD PTR _st$[ebp+10], ax

; 885  : 	st.wSecond = WORD(nSec);

  00042	66 8b 45 1c	 mov	 ax, WORD PTR _nSec$[ebp]
  00046	66 89 45 f8	 mov	 WORD PTR _st$[ebp+12], ax
; File C:\Program Files\Microsoft Visual Studio\2022\Professional\VC\Tools\MSVC\14.44.35207\atlmfc\include\atlcore.h

; 632  : 	ATLENSURE(pVarDtTm!=NULL);

  0004a	85 f6		 test	 esi, esi
  0004c	0f 84 9b 00 00
	00		 je	 $LN32@SetDateTim

; 633  : 	//Convert using ::SystemTimeToVariantTime and store the result in pVarDtTm then
; 634  : 	//convert variant time back to system time and compare to original system time.
; 635  : 	BOOL ok = ::SystemTimeToVariantTime(const_cast<SYSTEMTIME*>(&systimeSrc), pVarDtTm);

  00052	56		 push	 esi
  00053	8d 45 ec	 lea	 eax, DWORD PTR _st$[ebp]
  00056	50		 push	 eax
  00057	ff 15 00 00 00
	00		 call	 DWORD PTR __imp__SystemTimeToVariantTime@8
  0005d	0f 57 c0	 xorps	 xmm0, xmm0

; 636  : 	SYSTEMTIME sysTime;
; 637  : 	::ZeroMemory(&sysTime, sizeof(SYSTEMTIME));

  00060	0f 11 45 dc	 movups	 XMMWORD PTR _sysTime$1[ebp], xmm0

; 638  : 
; 639  : 	ok = ok && ::VariantTimeToSystemTime(*pVarDtTm, &sysTime);

  00064	85 c0		 test	 eax, eax
  00066	74 6c		 je	 SHORT $LN16@SetDateTim
  00068	f2 0f 10 06	 movsd	 xmm0, QWORD PTR [esi]
  0006c	8d 45 dc	 lea	 eax, DWORD PTR _sysTime$1[ebp]
  0006f	50		 push	 eax
  00070	83 ec 08	 sub	 esp, 8
  00073	f2 0f 11 04 24	 movsd	 QWORD PTR [esp], xmm0
  00078	ff 15 00 00 00
	00		 call	 DWORD PTR __imp__VariantTimeToSystemTime@12
  0007e	85 c0		 test	 eax, eax
  00080	74 52		 je	 SHORT $LN16@SetDateTim

; 640  : 	ok = ok && (systimeSrc.wYear == sysTime.wYear &&

  00082	66 8b 45 ec	 mov	 ax, WORD PTR _st$[ebp]
  00086	66 3b 45 dc	 cmp	 ax, WORD PTR _sysTime$1[ebp]
  0008a	75 48		 jne	 SHORT $LN16@SetDateTim
  0008c	66 8b 45 ee	 mov	 ax, WORD PTR _st$[ebp+2]
  00090	66 3b 45 de	 cmp	 ax, WORD PTR _sysTime$1[ebp+2]
  00094	75 3e		 jne	 SHORT $LN16@SetDateTim
  00096	66 8b 45 f2	 mov	 ax, WORD PTR _st$[ebp+6]
  0009a	66 3b 45 e2	 cmp	 ax, WORD PTR _sysTime$1[ebp+6]
  0009e	75 34		 jne	 SHORT $LN16@SetDateTim
  000a0	66 8b 45 f4	 mov	 ax, WORD PTR _st$[ebp+8]
  000a4	66 3b 45 e4	 cmp	 ax, WORD PTR _sysTime$1[ebp+8]
  000a8	75 2a		 jne	 SHORT $LN16@SetDateTim
  000aa	66 8b 45 f6	 mov	 ax, WORD PTR _st$[ebp+10]
  000ae	66 3b 45 e6	 cmp	 ax, WORD PTR _sysTime$1[ebp+10]
  000b2	75 20		 jne	 SHORT $LN16@SetDateTim
  000b4	66 8b 45 f8	 mov	 ax, WORD PTR _st$[ebp+12]
  000b8	66 3b 45 e8	 cmp	 ax, WORD PTR _sysTime$1[ebp+12]
  000bc	75 16		 jne	 SHORT $LN16@SetDateTim
  000be	33 c0		 xor	 eax, eax
; File C:\Program Files\Microsoft Visual Studio\2022\Professional\VC\Tools\MSVC\14.44.35207\atlmfc\include\ATLComTime.h

; 887  : 	m_status = ConvertSystemTimeToVariantTime(st) ? valid : invalid;

  000c0	89 46 08	 mov	 DWORD PTR [esi+8], eax

; 889  : }

  000c3	5e		 pop	 esi
  000c4	8b 4d fc	 mov	 ecx, DWORD PTR __$ArrayPad$[ebp]
  000c7	33 cd		 xor	 ecx, ebp
  000c9	e8 00 00 00 00	 call	 @__security_check_cookie@4
  000ce	8b e5		 mov	 esp, ebp
  000d0	5d		 pop	 ebp
  000d1	c2 18 00	 ret	 24			; 00000018H
$LN16@SetDateTim:
  000d4	8b 4d fc	 mov	 ecx, DWORD PTR __$ArrayPad$[ebp]
; File C:\Program Files\Microsoft Visual Studio\2022\Professional\VC\Tools\MSVC\14.44.35207\atlmfc\include\atlcore.h

; 640  : 	ok = ok && (systimeSrc.wYear == sysTime.wYear &&

  000d7	b8 01 00 00 00	 mov	 eax, 1
; File C:\Program Files\Microsoft Visual Studio\2022\Professional\VC\Tools\MSVC\14.44.35207\atlmfc\include\ATLComTime.h

; 887  : 	m_status = ConvertSystemTimeToVariantTime(st) ? valid : invalid;

  000dc	89 46 08	 mov	 DWORD PTR [esi+8], eax

; 889  : }

  000df	33 cd		 xor	 ecx, ebp
  000e1	5e		 pop	 esi
  000e2	e8 00 00 00 00	 call	 @__security_check_cookie@4
  000e7	8b e5		 mov	 esp, ebp
  000e9	5d		 pop	 ebp
  000ea	c2 18 00	 ret	 24			; 00000018H
$LN32@SetDateTim:
; File C:\Program Files\Microsoft Visual Studio\2022\Professional\VC\Tools\MSVC\14.44.35207\atlmfc\include\atlcore.h

; 632  : 	ATLENSURE(pVarDtTm!=NULL);

  000ed	68 05 40 00 80	 push	 -2147467259		; 80004005H
  000f2	e8 00 00 00 00	 call	 ?AtlThrowImpl@ATL@@YGXJ@Z ; ATL::AtlThrowImpl
$LN30@SetDateTim:
  000f7	cc		 int	 3
?SetDateTime@COleDateTime@ATL@@QAEHHHHHHH@Z ENDP	; ATL::COleDateTime::SetDateTime
_TEXT	ENDS
; Function compile flags: /Ogtp
; File C:\Program Files\Microsoft Visual Studio\2022\Professional\VC\Tools\MSVC\14.44.35207\include\xtree
;	COMDAT ?_Throw_tree_length_error@std@@YAXXZ
_TEXT	SEGMENT
?_Throw_tree_length_error@std@@YAXXZ PROC		; std::_Throw_tree_length_error, COMDAT

; 417  :     _Xlength_error("map/set too long");

  00000	68 00 00 00 00	 push	 OFFSET ??_C@_0BB@GCADKGJO@map?1set?5too?5long@
  00005	e8 00 00 00 00	 call	 ?_Xlength_error@std@@YAXPBD@Z ; std::_Xlength_error
$LN3@Throw_tree:
  0000a	cc		 int	 3
?_Throw_tree_length_error@std@@YAXXZ ENDP		; std::_Throw_tree_length_error
_TEXT	ENDS
; Function compile flags: /Ogtp
; File C:\Program Files\Microsoft Visual Studio\2022\Professional\VC\Tools\MSVC\14.44.35207\include\xmemory
;	COMDAT ?_Throw_bad_array_new_length@std@@YAXXZ
_TEXT	SEGMENT
$T1 = -12						; size = 12
?_Throw_bad_array_new_length@std@@YAXXZ PROC		; std::_Throw_bad_array_new_length, COMDAT

; 107  : [[noreturn]] inline void _Throw_bad_array_new_length() {

  00000	55		 push	 ebp
  00001	8b ec		 mov	 ebp, esp
  00003	83 ec 0c	 sub	 esp, 12			; 0000000cH

; 108  :     _THROW(bad_array_new_length{});

  00006	8d 4d f4	 lea	 ecx, DWORD PTR $T1[ebp]
  00009	e8 00 00 00 00	 call	 ??0bad_array_new_length@std@@QAE@XZ ; std::bad_array_new_length::bad_array_new_length
  0000e	68 00 00 00 00	 push	 OFFSET __TI3?AVbad_array_new_length@std@@
  00013	8d 45 f4	 lea	 eax, DWORD PTR $T1[ebp]
  00016	50		 push	 eax
  00017	e8 00 00 00 00	 call	 __CxxThrowException@8
$LN3@Throw_bad_:
  0001c	cc		 int	 3
?_Throw_bad_array_new_length@std@@YAXXZ ENDP		; std::_Throw_bad_array_new_length
_TEXT	ENDS
; Function compile flags: /Ogtp
; File C:\Program Files\Microsoft Visual Studio\2022\Professional\VC\Tools\MSVC\14.44.35207\include\vcruntime_exception.h
;	COMDAT ??_Gbad_array_new_length@std@@UAEPAXI@Z
_TEXT	SEGMENT
___flags$ = 8						; size = 4
??_Gbad_array_new_length@std@@UAEPAXI@Z PROC		; std::bad_array_new_length::`scalar deleting destructor', COMDAT
; _this$ = ecx
  00000	55		 push	 ebp
  00001	8b ec		 mov	 ebp, esp

; 90   :     {

  00003	56		 push	 esi
  00004	8b f1		 mov	 esi, ecx

; 91   :         __std_exception_destroy(&_Data);

  00006	8d 46 04	 lea	 eax, DWORD PTR [esi+4]
  00009	c7 06 00 00 00
	00		 mov	 DWORD PTR [esi], OFFSET ??_7exception@std@@6B@
  0000f	50		 push	 eax
  00010	e8 00 00 00 00	 call	 ___std_exception_destroy
  00015	83 c4 04	 add	 esp, 4
  00018	f6 45 08 01	 test	 BYTE PTR ___flags$[ebp], 1
  0001c	74 0b		 je	 SHORT $LN18@scalar
  0001e	6a 0c		 push	 12			; 0000000cH
  00020	56		 push	 esi
  00021	e8 00 00 00 00	 call	 ??3@YAXPAXI@Z		; operator delete
  00026	83 c4 08	 add	 esp, 8
$LN18@scalar:
  00029	8b c6		 mov	 eax, esi
  0002b	5e		 pop	 esi
  0002c	5d		 pop	 ebp
  0002d	c2 04 00	 ret	 4
??_Gbad_array_new_length@std@@UAEPAXI@Z ENDP		; std::bad_array_new_length::`scalar deleting destructor'
_TEXT	ENDS
; Function compile flags: /Ogtp
; File C:\Program Files\Microsoft Visual Studio\2022\Professional\VC\Tools\MSVC\14.44.35207\include\vcruntime_exception.h
;	COMDAT ??0bad_array_new_length@std@@QAE@ABV01@@Z
_TEXT	SEGMENT
___that$ = 8						; size = 4
??0bad_array_new_length@std@@QAE@ABV01@@Z PROC		; std::bad_array_new_length::bad_array_new_length, COMDAT
; _this$ = ecx
  00000	55		 push	 ebp
  00001	8b ec		 mov	 ebp, esp

; 73   :     {

  00003	56		 push	 esi
  00004	8b f1		 mov	 esi, ecx
  00006	0f 57 c0	 xorps	 xmm0, xmm0

; 72   :         : _Data()

  00009	8d 46 04	 lea	 eax, DWORD PTR [esi+4]

; 74   :         __std_exception_copy(&_Other._Data, &_Data);

  0000c	50		 push	 eax
  0000d	c7 06 00 00 00
	00		 mov	 DWORD PTR [esi], OFFSET ??_7exception@std@@6B@
  00013	66 0f d6 00	 movq	 QWORD PTR [eax], xmm0
  00017	8b 45 08	 mov	 eax, DWORD PTR ___that$[ebp]
  0001a	83 c0 04	 add	 eax, 4
  0001d	50		 push	 eax
  0001e	e8 00 00 00 00	 call	 ___std_exception_copy
  00023	83 c4 08	 add	 esp, 8
  00026	c7 06 00 00 00
	00		 mov	 DWORD PTR [esi], OFFSET ??_7bad_array_new_length@std@@6B@
  0002c	8b c6		 mov	 eax, esi
  0002e	5e		 pop	 esi
  0002f	5d		 pop	 ebp
  00030	c2 04 00	 ret	 4
??0bad_array_new_length@std@@QAE@ABV01@@Z ENDP		; std::bad_array_new_length::bad_array_new_length
_TEXT	ENDS
; Function compile flags: /Ogtp
; File C:\Program Files\Microsoft Visual Studio\2022\Professional\VC\Tools\MSVC\14.44.35207\include\vcruntime_exception.h
;	COMDAT ??1bad_array_new_length@std@@UAE@XZ
_TEXT	SEGMENT
??1bad_array_new_length@std@@UAE@XZ PROC		; std::bad_array_new_length::~bad_array_new_length, COMDAT
; _this$ = ecx

; 91   :         __std_exception_destroy(&_Data);

  00000	8d 41 04	 lea	 eax, DWORD PTR [ecx+4]
  00003	c7 01 00 00 00
	00		 mov	 DWORD PTR [ecx], OFFSET ??_7exception@std@@6B@
  00009	50		 push	 eax
  0000a	e8 00 00 00 00	 call	 ___std_exception_destroy
  0000f	59		 pop	 ecx
  00010	c3		 ret	 0
??1bad_array_new_length@std@@UAE@XZ ENDP		; std::bad_array_new_length::~bad_array_new_length
_TEXT	ENDS
; Function compile flags: /Ogtp
; File C:\Program Files\Microsoft Visual Studio\2022\Professional\VC\Tools\MSVC\14.44.35207\include\vcruntime_exception.h
;	COMDAT ??0bad_array_new_length@std@@QAE@XZ
_TEXT	SEGMENT
??0bad_array_new_length@std@@QAE@XZ PROC		; std::bad_array_new_length::bad_array_new_length, COMDAT
; _this$ = ecx

; 144  :     {

  00000	0f 57 c0	 xorps	 xmm0, xmm0

; 145  :     }

  00003	8b c1		 mov	 eax, ecx

; 66   :         : _Data()

  00005	66 0f d6 41 04	 movq	 QWORD PTR [ecx+4], xmm0

; 67   :     {
; 68   :         _Data._What = _Message;

  0000a	c7 41 04 00 00
	00 00		 mov	 DWORD PTR [ecx+4], OFFSET ??_C@_0BF@KINCDENJ@bad?5array?5new?5length@

; 144  :     {

  00011	c7 01 00 00 00
	00		 mov	 DWORD PTR [ecx], OFFSET ??_7bad_array_new_length@std@@6B@

; 145  :     }

  00017	c3		 ret	 0
??0bad_array_new_length@std@@QAE@XZ ENDP		; std::bad_array_new_length::bad_array_new_length
_TEXT	ENDS
; Function compile flags: /Ogtp
; File C:\Program Files\Microsoft Visual Studio\2022\Professional\VC\Tools\MSVC\14.44.35207\include\vcruntime_exception.h
;	COMDAT ??_Gbad_alloc@std@@UAEPAXI@Z
_TEXT	SEGMENT
___flags$ = 8						; size = 4
??_Gbad_alloc@std@@UAEPAXI@Z PROC			; std::bad_alloc::`scalar deleting destructor', COMDAT
; _this$ = ecx
  00000	55		 push	 ebp
  00001	8b ec		 mov	 ebp, esp

; 90   :     {

  00003	56		 push	 esi
  00004	8b f1		 mov	 esi, ecx

; 91   :         __std_exception_destroy(&_Data);

  00006	8d 46 04	 lea	 eax, DWORD PTR [esi+4]
  00009	c7 06 00 00 00
	00		 mov	 DWORD PTR [esi], OFFSET ??_7exception@std@@6B@
  0000f	50		 push	 eax
  00010	e8 00 00 00 00	 call	 ___std_exception_destroy
  00015	83 c4 04	 add	 esp, 4
  00018	f6 45 08 01	 test	 BYTE PTR ___flags$[ebp], 1
  0001c	74 0b		 je	 SHORT $LN13@scalar
  0001e	6a 0c		 push	 12			; 0000000cH
  00020	56		 push	 esi
  00021	e8 00 00 00 00	 call	 ??3@YAXPAXI@Z		; operator delete
  00026	83 c4 08	 add	 esp, 8
$LN13@scalar:
  00029	8b c6		 mov	 eax, esi
  0002b	5e		 pop	 esi
  0002c	5d		 pop	 ebp
  0002d	c2 04 00	 ret	 4
??_Gbad_alloc@std@@UAEPAXI@Z ENDP			; std::bad_alloc::`scalar deleting destructor'
_TEXT	ENDS
; Function compile flags: /Ogtp
; File C:\Program Files\Microsoft Visual Studio\2022\Professional\VC\Tools\MSVC\14.44.35207\include\vcruntime_exception.h
;	COMDAT ??0bad_alloc@std@@QAE@ABV01@@Z
_TEXT	SEGMENT
___that$ = 8						; size = 4
??0bad_alloc@std@@QAE@ABV01@@Z PROC			; std::bad_alloc::bad_alloc, COMDAT
; _this$ = ecx
  00000	55		 push	 ebp
  00001	8b ec		 mov	 ebp, esp

; 73   :     {

  00003	56		 push	 esi
  00004	8b f1		 mov	 esi, ecx
  00006	0f 57 c0	 xorps	 xmm0, xmm0

; 72   :         : _Data()

  00009	8d 46 04	 lea	 eax, DWORD PTR [esi+4]

; 74   :         __std_exception_copy(&_Other._Data, &_Data);

  0000c	50		 push	 eax
  0000d	c7 06 00 00 00
	00		 mov	 DWORD PTR [esi], OFFSET ??_7exception@std@@6B@
  00013	66 0f d6 00	 movq	 QWORD PTR [eax], xmm0
  00017	8b 45 08	 mov	 eax, DWORD PTR ___that$[ebp]
  0001a	83 c0 04	 add	 eax, 4
  0001d	50		 push	 eax
  0001e	e8 00 00 00 00	 call	 ___std_exception_copy
  00023	83 c4 08	 add	 esp, 8
  00026	c7 06 00 00 00
	00		 mov	 DWORD PTR [esi], OFFSET ??_7bad_alloc@std@@6B@
  0002c	8b c6		 mov	 eax, esi
  0002e	5e		 pop	 esi
  0002f	5d		 pop	 ebp
  00030	c2 04 00	 ret	 4
??0bad_alloc@std@@QAE@ABV01@@Z ENDP			; std::bad_alloc::bad_alloc
_TEXT	ENDS
; Function compile flags: /Ogtp
; File C:\Program Files\Microsoft Visual Studio\2022\Professional\VC\Tools\MSVC\14.44.35207\include\vcruntime_exception.h
;	COMDAT ??_Gexception@std@@UAEPAXI@Z
_TEXT	SEGMENT
___flags$ = 8						; size = 4
??_Gexception@std@@UAEPAXI@Z PROC			; std::exception::`scalar deleting destructor', COMDAT
; _this$ = ecx
  00000	55		 push	 ebp
  00001	8b ec		 mov	 ebp, esp

; 90   :     {

  00003	56		 push	 esi
  00004	8b f1		 mov	 esi, ecx

; 91   :         __std_exception_destroy(&_Data);

  00006	8d 46 04	 lea	 eax, DWORD PTR [esi+4]
  00009	c7 06 00 00 00
	00		 mov	 DWORD PTR [esi], OFFSET ??_7exception@std@@6B@
  0000f	50		 push	 eax
  00010	e8 00 00 00 00	 call	 ___std_exception_destroy
  00015	83 c4 04	 add	 esp, 4
  00018	f6 45 08 01	 test	 BYTE PTR ___flags$[ebp], 1
  0001c	74 0b		 je	 SHORT $LN8@scalar
  0001e	6a 0c		 push	 12			; 0000000cH
  00020	56		 push	 esi
  00021	e8 00 00 00 00	 call	 ??3@YAXPAXI@Z		; operator delete
  00026	83 c4 08	 add	 esp, 8
$LN8@scalar:
  00029	8b c6		 mov	 eax, esi
  0002b	5e		 pop	 esi
  0002c	5d		 pop	 ebp
  0002d	c2 04 00	 ret	 4
??_Gexception@std@@UAEPAXI@Z ENDP			; std::exception::`scalar deleting destructor'
_TEXT	ENDS
; Function compile flags: /Ogtp
; File C:\Program Files\Microsoft Visual Studio\2022\Professional\VC\Tools\MSVC\14.44.35207\include\vcruntime_exception.h
;	COMDAT ?what@exception@std@@UBEPBDXZ
_TEXT	SEGMENT
?what@exception@std@@UBEPBDXZ PROC			; std::exception::what, COMDAT
; _this$ = ecx

; 96   :         return _Data._What ? _Data._What : "Unknown exception";

  00000	8b 49 04	 mov	 ecx, DWORD PTR [ecx+4]
  00003	b8 00 00 00 00	 mov	 eax, OFFSET ??_C@_0BC@EOODALEL@Unknown?5exception@
  00008	85 c9		 test	 ecx, ecx
  0000a	0f 45 c1	 cmovne	 eax, ecx

; 97   :     }

  0000d	c3		 ret	 0
?what@exception@std@@UBEPBDXZ ENDP			; std::exception::what
_TEXT	ENDS
; Function compile flags: /Ogtp
; File C:\Program Files\Microsoft Visual Studio\2022\Professional\VC\Tools\MSVC\14.44.35207\include\vcruntime_exception.h
;	COMDAT ??1exception@std@@UAE@XZ
_TEXT	SEGMENT
??1exception@std@@UAE@XZ PROC				; std::exception::~exception, COMDAT
; _this$ = ecx

; 91   :         __std_exception_destroy(&_Data);

  00000	8d 41 04	 lea	 eax, DWORD PTR [ecx+4]
  00003	c7 01 00 00 00
	00		 mov	 DWORD PTR [ecx], OFFSET ??_7exception@std@@6B@
  00009	50		 push	 eax
  0000a	e8 00 00 00 00	 call	 ___std_exception_destroy
  0000f	59		 pop	 ecx

; 92   :     }

  00010	c3		 ret	 0
??1exception@std@@UAE@XZ ENDP				; std::exception::~exception
_TEXT	ENDS
; Function compile flags: /Ogtp
; File C:\Program Files\Microsoft Visual Studio\2022\Professional\VC\Tools\MSVC\14.44.35207\include\vcruntime_exception.h
;	COMDAT ??0exception@std@@QAE@ABV01@@Z
_TEXT	SEGMENT
__Other$ = 8						; size = 4
??0exception@std@@QAE@ABV01@@Z PROC			; std::exception::exception, COMDAT
; _this$ = ecx

; 73   :     {

  00000	55		 push	 ebp
  00001	8b ec		 mov	 ebp, esp
  00003	56		 push	 esi
  00004	8b f1		 mov	 esi, ecx
  00006	0f 57 c0	 xorps	 xmm0, xmm0
  00009	8d 46 04	 lea	 eax, DWORD PTR [esi+4]

; 74   :         __std_exception_copy(&_Other._Data, &_Data);

  0000c	50		 push	 eax
  0000d	c7 06 00 00 00
	00		 mov	 DWORD PTR [esi], OFFSET ??_7exception@std@@6B@
  00013	66 0f d6 00	 movq	 QWORD PTR [eax], xmm0
  00017	8b 45 08	 mov	 eax, DWORD PTR __Other$[ebp]
  0001a	83 c0 04	 add	 eax, 4
  0001d	50		 push	 eax
  0001e	e8 00 00 00 00	 call	 ___std_exception_copy
  00023	83 c4 08	 add	 esp, 8

; 75   :     }

  00026	8b c6		 mov	 eax, esi
  00028	5e		 pop	 esi
  00029	5d		 pop	 ebp
  0002a	c2 04 00	 ret	 4
??0exception@std@@QAE@ABV01@@Z ENDP			; std::exception::exception
_TEXT	ENDS
; Function compile flags: /Ogtp
; File C:\Program Files\Microsoft Visual Studio\2022\Professional\VC\Tools\MSVC\14.44.35207\atlmfc\include\atlexcept.h
;	COMDAT ?AtlThrowImpl@ATL@@YGXJ@Z
_TEXT	SEGMENT
_hr$ = 8						; size = 4
?AtlThrowImpl@ATL@@YGXJ@Z PROC				; ATL::AtlThrowImpl, COMDAT

; 69   : {

  00000	55		 push	 ebp
  00001	8b ec		 mov	 ebp, esp

; 70   : 	ATLTRACE(atlTraceException, 0, _T("AtlThrow: hr = 0x%x\n"), hr );
; 71   : #ifdef _AFX
; 72   : 	if( hr == E_OUTOFMEMORY )

  00003	8b 45 08	 mov	 eax, DWORD PTR _hr$[ebp]
  00006	3d 0e 00 07 80	 cmp	 eax, -2147024882	; 8007000eH
  0000b	75 05		 jne	 SHORT $LN2@AtlThrowIm

; 73   : 	{
; 74   : 		AfxThrowMemoryException();

  0000d	e8 00 00 00 00	 call	 ?AfxThrowMemoryException@@YGXXZ ; AfxThrowMemoryException
$LN2@AtlThrowIm:

; 75   : 	}
; 76   : 	else
; 77   : 	{
; 78   : 		AfxThrowOleException( hr );

  00012	50		 push	 eax
  00013	e8 00 00 00 00	 call	 ?AfxThrowOleException@@YGXJ@Z ; AfxThrowOleException
$LN5@AtlThrowIm:
  00018	cc		 int	 3
?AtlThrowImpl@ATL@@YGXJ@Z ENDP				; ATL::AtlThrowImpl
_TEXT	ENDS
; Function compile flags: /Ogtp
; File C:\IAGOS\server\v18\Source\Source\_Common\post.cpp
;	COMDAT ?__empty_global_delete@@YAXPAXI@Z
_TEXT	SEGMENT
___formal$ = 8						; size = 4
___formal$ = 12						; size = 4
?__empty_global_delete@@YAXPAXI@Z PROC			; __empty_global_delete, COMDAT

  00000	c2 00 00	 ret	 0
?__empty_global_delete@@YAXPAXI@Z ENDP			; __empty_global_delete
_TEXT	ENDS
; Function compile flags: /Ogtp
; File C:\IAGOS\server\v18\Source\Source\_Common\post.cpp
;	COMDAT ?__empty_global_delete@@YAXPAX@Z
_TEXT	SEGMENT
___formal$ = 8						; size = 4
?__empty_global_delete@@YAXPAX@Z PROC			; __empty_global_delete, COMDAT

  00000	c2 00 00	 ret	 0
?__empty_global_delete@@YAXPAX@Z ENDP			; __empty_global_delete
_TEXT	ENDS
END
