; Listing generated by Microsoft (R) Optimizing Compiler Version 19.44.35225.0 

	TITLE	C:\IAGOS\server\v18\Source\Output\WorldServer\Release\profile.obj
	.686P
	.XMM
	include listing.inc
	.model	flat

INCLUDELIB LIBCMT
INCLUDELIB OLDNAMES

PUBLIC	??_C@_04BAJDEDPD@Root@				; `string'
PUBLIC	?CurrentNode@CProfileManager@@0PAVCProfileNode@@A ; CProfileManager::CurrentNode
PUBLIC	?FrameCounter@CProfileManager@@0HA		; CProfileManager::FrameCounter
PUBLIC	?ResetTime@CProfileManager@@0_JA		; CProfileManager::ResetTime
_BSS	SEGMENT
?FrameCounter@CProfileManager@@0HA DD 01H DUP (?)	; CProfileManager::FrameCounter
	ALIGN	8

?ResetTime@CProfileManager@@0_JA DQ 01H DUP (?)		; CProfileManager::ResetTime
_BSS	ENDS
_DATA	SEGMENT
?CurrentNode@CProfileManager@@0PAVCProfileNode@@A DD FLAT:?Root@CProfileManager@@0VCProfileNode@@A ; CProfileManager::CurrentNode
_DATA	ENDS
;	COMDAT ??_C@_04BAJDEDPD@Root@
CONST	SEGMENT
??_C@_04BAJDEDPD@Root@ DB 'Root', 00H			; `string'
CONST	ENDS
PUBLIC	?__empty_global_delete@@YAXPAX@Z		; __empty_global_delete
PUBLIC	?__empty_global_delete@@YAXPAXI@Z		; __empty_global_delete
PUBLIC	??0CProfileNode@@QAE@PBDPAV0@@Z			; CProfileNode::CProfileNode
PUBLIC	??1CProfileNode@@QAE@XZ				; CProfileNode::~CProfileNode
PUBLIC	?Get_Sub_Node@CProfileNode@@QAEPAV1@PBD@Z	; CProfileNode::Get_Sub_Node
PUBLIC	?Reset@CProfileNode@@QAEXXZ			; CProfileNode::Reset
PUBLIC	?Call@CProfileNode@@QAEXXZ			; CProfileNode::Call
PUBLIC	?Return@CProfileNode@@QAE_NXZ			; CProfileNode::Return
PUBLIC	?First@CProfileIterator@@QAEXXZ			; CProfileIterator::First
PUBLIC	?Next@CProfileIterator@@QAEXXZ			; CProfileIterator::Next
PUBLIC	?Is_Done@CProfileIterator@@QAE_NXZ		; CProfileIterator::Is_Done
PUBLIC	?NextPreOrder@CProfileIterator@@QAEXXZ		; CProfileIterator::NextPreOrder
PUBLIC	?Enter_Child@CProfileIterator@@QAEXH@Z		; CProfileIterator::Enter_Child
PUBLIC	?Enter_Parent@CProfileIterator@@QAEXXZ		; CProfileIterator::Enter_Parent
PUBLIC	??0CProfileIterator@@IAE@PAVCProfileNode@@@Z	; CProfileIterator::CProfileIterator
PUBLIC	?Start_Profile@CProfileManager@@SAXPBD@Z	; CProfileManager::Start_Profile
PUBLIC	?Stop_Profile@CProfileManager@@SAXXZ		; CProfileManager::Stop_Profile
PUBLIC	?Reset@CProfileManager@@SAXXZ			; CProfileManager::Reset
PUBLIC	?Increment_Frame_Counter@CProfileManager@@SAXXZ	; CProfileManager::Increment_Frame_Counter
PUBLIC	?Get_Time_Since_Reset@CProfileManager@@SAMXZ	; CProfileManager::Get_Time_Since_Reset
PUBLIC	?Root@CProfileManager@@0VCProfileNode@@A	; CProfileManager::Root
PUBLIC	?_CPUFrequency@?1??Profile_Get_Tick_Rate@@YAMXZ@4MA ; `Profile_Get_Tick_Rate'::`2'::_CPUFrequency
PUBLIC	__real@bf800000
EXTRN	??2@YAPAXI@Z:PROC				; operator new
EXTRN	??3@YAXPAXI@Z:PROC				; operator delete
EXTRN	_atexit:PROC
EXTRN	__imp__QueryPerformanceFrequency@4:PROC
EXTRN	@__security_check_cookie@4:PROC
EXTRN	___CxxFrameHandler3:PROC
EXTRN	__ltof3:PROC
EXTRN	___security_cookie:DWORD
EXTRN	__fltused:DWORD
_BSS	SEGMENT
?Root@CProfileManager@@0VCProfileNode@@A DB 028H DUP (?) ; CProfileManager::Root
_BSS	ENDS
CRT$XCU	SEGMENT
??Root$initializer$@CProfileManager@@0P6AXXZA@@3P6AXXZA DD FLAT:??__E?Root@CProfileManager@@0VCProfileNode@@A@@YAXXZ ; CProfileManager::oot$initializer$::operator()
CRT$XCU	ENDS
;	COMDAT __real@bf800000
CONST	SEGMENT
__real@bf800000 DD 0bf800000r			; -1
CONST	ENDS
;	COMDAT ?_CPUFrequency@?1??Profile_Get_Tick_Rate@@YAMXZ@4MA
_DATA	SEGMENT
?_CPUFrequency@?1??Profile_Get_Tick_Rate@@YAMXZ@4MA DD 0bf800000r ; -1 ; `Profile_Get_Tick_Rate'::`2'::_CPUFrequency
_DATA	ENDS
;	COMDAT xdata$x
xdata$x	SEGMENT
__unwindtable$?Get_Sub_Node@CProfileNode@@QAEPAV1@PBD@Z DD 0ffffffffH
	DD	FLAT:__unwindfunclet$?Get_Sub_Node@CProfileNode@@QAEPAV1@PBD@Z$0
__ehfuncinfo$?Get_Sub_Node@CProfileNode@@QAEPAV1@PBD@Z DD 019930522H
	DD	01H
	DD	FLAT:__unwindtable$?Get_Sub_Node@CProfileNode@@QAEPAV1@PBD@Z
	DD	2 DUP(00H)
	DD	2 DUP(00H)
	DD	00H
	DD	01H
xdata$x	ENDS
; Function compile flags: /Ogtp
;	COMDAT ??__F?Root@CProfileManager@@0VCProfileNode@@A@@YAXXZ
text$yd	SEGMENT
??__F?Root@CProfileManager@@0VCProfileNode@@A@@YAXXZ PROC ; `dynamic atexit destructor for 'CProfileManager::Root'', COMDAT
  00000	b9 00 00 00 00	 mov	 ecx, OFFSET ?Root@CProfileManager@@0VCProfileNode@@A ; CProfileManager::Root
  00005	e9 00 00 00 00	 jmp	 ??1CProfileNode@@QAE@XZ	; CProfileNode::~CProfileNode
??__F?Root@CProfileManager@@0VCProfileNode@@A@@YAXXZ ENDP ; `dynamic atexit destructor for 'CProfileManager::Root''
text$yd	ENDS
; Function compile flags: /Ogtp
; File C:\IAGOS\server\v18\Source\Source\_Common\profile.cpp
;	COMDAT ??__E?Root@CProfileManager@@0VCProfileNode@@A@@YAXXZ
text$di	SEGMENT
??__E?Root@CProfileManager@@0VCProfileNode@@A@@YAXXZ PROC ; `dynamic initializer for 'CProfileManager::Root'', COMDAT

; 228  : CProfileNode	CProfileManager::Root( "Root", NULL );

  00000	6a 00		 push	 0
  00002	68 00 00 00 00	 push	 OFFSET ??_C@_04BAJDEDPD@Root@
  00007	b9 00 00 00 00	 mov	 ecx, OFFSET ?Root@CProfileManager@@0VCProfileNode@@A ; CProfileManager::Root
  0000c	e8 00 00 00 00	 call	 ??0CProfileNode@@QAE@PBDPAV0@@Z ; CProfileNode::CProfileNode
  00011	68 00 00 00 00	 push	 OFFSET ??__F?Root@CProfileManager@@0VCProfileNode@@A@@YAXXZ ; `dynamic atexit destructor for 'CProfileManager::Root''
  00016	e8 00 00 00 00	 call	 _atexit
  0001b	59		 pop	 ecx
  0001c	c3		 ret	 0
??__E?Root@CProfileManager@@0VCProfileNode@@A@@YAXXZ ENDP ; `dynamic initializer for 'CProfileManager::Root''
text$di	ENDS
; Function compile flags: /Ogtp
; File C:\IAGOS\server\v18\Source\Source\_Common\profile.cpp
;	COMDAT ?Get_Time_Since_Reset@CProfileManager@@SAMXZ
_TEXT	SEGMENT
_time$ = -16						; size = 8
_curr_rate$1 = -8					; size = 8
_ticks$ = -4						; size = 4
tv79 = -4						; size = 4
?Get_Time_Since_Reset@CProfileManager@@SAMXZ PROC	; CProfileManager::Get_Time_Since_Reset, COMDAT

; 295  : {

  00000	55		 push	 ebp
  00001	8b ec		 mov	 ebp, esp
  00003	83 ec 10	 sub	 esp, 16			; 00000010H
  00006	53		 push	 ebx
  00007	56		 push	 esi

; 296  : 	__int64 time;
; 297  : 	Profile_Get_Ticks(&time);

  00008	8d 45 f0	 lea	 eax, DWORD PTR _time$[ebp]
  0000b	57		 push	 edi
  0000c	89 45 fc	 mov	 DWORD PTR _ticks$[ebp], eax
  0000f	52		 push	 edx
  00010	51		 push	 ecx
  00011	8b 4d fc	 mov	 ecx, DWORD PTR _ticks$[ebp]
  00014	0f		 DB	 15			; 0000000fH
  00015	31		 DB	 49			; 00000031H
  00016	89 01		 mov	 DWORD PTR [ecx], eax
  00018	89 51 04	 mov	 DWORD PTR [ecx+4], edx
  0001b	59		 pop	 ecx
  0001c	5a		 pop	 edx

; 298  : 	time -= ResetTime;

  0001d	8b 4d f0	 mov	 ecx, DWORD PTR _time$[ebp]
  00020	2b 0d 00 00 00
	00		 sub	 ecx, DWORD PTR ?ResetTime@CProfileManager@@0_JA
  00026	8b 55 f4	 mov	 edx, DWORD PTR _time$[ebp+4]
  00029	1b 15 04 00 00
	00		 sbb	 edx, DWORD PTR ?ResetTime@CProfileManager@@0_JA+4

; 34   : 	if (_CPUFrequency == -1.0f) {

  0002f	f3 0f 10 05 00
	00 00 00	 movss	 xmm0, DWORD PTR ?_CPUFrequency@?1??Profile_Get_Tick_Rate@@YAMXZ@4MA
  00037	0f 2e 05 00 00
	00 00		 ucomiss xmm0, DWORD PTR __real@bf800000

; 298  : 	time -= ResetTime;

  0003e	89 4d f0	 mov	 DWORD PTR _time$[ebp], ecx
  00041	89 55 f4	 mov	 DWORD PTR _time$[ebp+4], edx

; 34   : 	if (_CPUFrequency == -1.0f) {

  00044	9f		 lahf
  00045	f6 c4 44	 test	 ah, 68			; 00000044H
  00048	7a 2b		 jp	 SHORT $LN6@Get_Time_S

; 35   : 		__int64 curr_rate = 0;
; 36   : 		::QueryPerformanceFrequency ((LARGE_INTEGER *)&curr_rate);

  0004a	8d 45 f8	 lea	 eax, DWORD PTR _curr_rate$1[ebp]
  0004d	0f 57 c0	 xorps	 xmm0, xmm0
  00050	50		 push	 eax
  00051	66 0f 13 45 f8	 movlpd	 QWORD PTR _curr_rate$1[ebp], xmm0
  00056	ff 15 00 00 00
	00		 call	 DWORD PTR __imp__QueryPerformanceFrequency@4

; 37   : 		_CPUFrequency = (float)curr_rate;

  0005c	8b 55 fc	 mov	 edx, DWORD PTR _curr_rate$1[ebp+4]
  0005f	8b 4d f8	 mov	 ecx, DWORD PTR _curr_rate$1[ebp]
  00062	e8 00 00 00 00	 call	 __ltof3
  00067	8b 55 f4	 mov	 edx, DWORD PTR _time$[ebp+4]
  0006a	8b 4d f0	 mov	 ecx, DWORD PTR _time$[ebp]
  0006d	f3 0f 11 05 00
	00 00 00	 movss	 DWORD PTR ?_CPUFrequency@?1??Profile_Get_Tick_Rate@@YAMXZ@4MA, xmm0
$LN6@Get_Time_S:

; 299  : 	return (float)time / Profile_Get_Tick_Rate();

  00075	e8 00 00 00 00	 call	 __ltof3
  0007a	f3 0f 5e 05 00
	00 00 00	 divss	 xmm0, DWORD PTR ?_CPUFrequency@?1??Profile_Get_Tick_Rate@@YAMXZ@4MA

; 300  : }

  00082	5f		 pop	 edi
  00083	5e		 pop	 esi
  00084	5b		 pop	 ebx
  00085	f3 0f 11 45 fc	 movss	 DWORD PTR tv79[ebp], xmm0
  0008a	d9 45 fc	 fld	 DWORD PTR tv79[ebp]
  0008d	8b e5		 mov	 esp, ebp
  0008f	5d		 pop	 ebp
  00090	c3		 ret	 0
?Get_Time_Since_Reset@CProfileManager@@SAMXZ ENDP	; CProfileManager::Get_Time_Since_Reset
_TEXT	ENDS
; Function compile flags: /Ogtp
; File C:\IAGOS\server\v18\Source\Source\_Common\profile.cpp
;	COMDAT ?Increment_Frame_Counter@CProfileManager@@SAXXZ
_TEXT	SEGMENT
?Increment_Frame_Counter@CProfileManager@@SAXXZ PROC	; CProfileManager::Increment_Frame_Counter, COMDAT

; 287  : 	FrameCounter++;

  00000	ff 05 00 00 00
	00		 inc	 DWORD PTR ?FrameCounter@CProfileManager@@0HA ; CProfileManager::FrameCounter

; 288  : }

  00006	c3		 ret	 0
?Increment_Frame_Counter@CProfileManager@@SAXXZ ENDP	; CProfileManager::Increment_Frame_Counter
_TEXT	ENDS
; Function compile flags: /Ogtp
; File C:\IAGOS\server\v18\Source\Source\_Common\profile.cpp
;	COMDAT ?Reset@CProfileManager@@SAXXZ
_TEXT	SEGMENT
?Reset@CProfileManager@@SAXXZ PROC			; CProfileManager::Reset, COMDAT

; 275  : { 

  00000	53		 push	 ebx
  00001	56		 push	 esi
  00002	57		 push	 edi

; 276  : 	Root.Reset(); 

  00003	b9 00 00 00 00	 mov	 ecx, OFFSET ?Root@CProfileManager@@0VCProfileNode@@A ; CProfileManager::Root
  00008	e8 00 00 00 00	 call	 ?Reset@CProfileNode@@QAEXXZ ; CProfileNode::Reset

; 277  : 	FrameCounter = 0;

  0000d	c7 05 00 00 00
	00 00 00 00 00	 mov	 DWORD PTR ?FrameCounter@CProfileManager@@0HA, 0 ; CProfileManager::FrameCounter

; 278  : 	Profile_Get_Ticks(&ResetTime);

  00017	52		 push	 edx
  00018	51		 push	 ecx
  00019	b9 00 00 00 00	 mov	 ecx, OFFSET ?ResetTime@CProfileManager@@0_JA ; CProfileManager::ResetTime
  0001e	0f		 DB	 15			; 0000000fH
  0001f	31		 DB	 49			; 00000031H
  00020	89 01		 mov	 DWORD PTR [ecx], eax
  00022	89 51 04	 mov	 DWORD PTR [ecx+4], edx
  00025	59		 pop	 ecx
  00026	5a		 pop	 edx

; 279  : }

  00027	5f		 pop	 edi
  00028	5e		 pop	 esi
  00029	5b		 pop	 ebx
  0002a	c3		 ret	 0
?Reset@CProfileManager@@SAXXZ ENDP			; CProfileManager::Reset
_TEXT	ENDS
; Function compile flags: /Ogtp
; File C:\IAGOS\server\v18\Source\Source\_Common\profile.cpp
;	COMDAT ?Stop_Profile@CProfileManager@@SAXXZ
_TEXT	SEGMENT
?Stop_Profile@CProfileManager@@SAXXZ PROC		; CProfileManager::Stop_Profile, COMDAT

; 261  : 	// Return will indicate whether we should back up to our parent (we may
; 262  : 	// be profiling a recursive function)
; 263  : 	if (CurrentNode->Return()) {

  00000	8b 0d 00 00 00
	00		 mov	 ecx, DWORD PTR ?CurrentNode@CProfileManager@@0PAVCProfileNode@@A ; CProfileManager::CurrentNode
  00006	e8 00 00 00 00	 call	 ?Return@CProfileNode@@QAE_NXZ ; CProfileNode::Return
  0000b	84 c0		 test	 al, al
  0000d	74 0d		 je	 SHORT $LN2@Stop_Profi

; 264  : 		CurrentNode = CurrentNode->Get_Parent();

  0000f	a1 00 00 00 00	 mov	 eax, DWORD PTR ?CurrentNode@CProfileManager@@0PAVCProfileNode@@A ; CProfileManager::CurrentNode
  00014	8b 40 1c	 mov	 eax, DWORD PTR [eax+28]
  00017	a3 00 00 00 00	 mov	 DWORD PTR ?CurrentNode@CProfileManager@@0PAVCProfileNode@@A, eax ; CProfileManager::CurrentNode
$LN2@Stop_Profi:

; 265  : 	}
; 266  : }

  0001c	c3		 ret	 0
?Stop_Profile@CProfileManager@@SAXXZ ENDP		; CProfileManager::Stop_Profile
_TEXT	ENDS
; Function compile flags: /Ogtp
; File C:\IAGOS\server\v18\Source\Source\_Common\profile.cpp
;	COMDAT ?Start_Profile@CProfileManager@@SAXPBD@Z
_TEXT	SEGMENT
_name$ = 8						; size = 4
?Start_Profile@CProfileManager@@SAXPBD@Z PROC		; CProfileManager::Start_Profile, COMDAT

; 247  : {

  00000	55		 push	 ebp
  00001	8b ec		 mov	 ebp, esp

; 248  : 	if (name != CurrentNode->Get_Name()) {

  00003	a1 00 00 00 00	 mov	 eax, DWORD PTR ?CurrentNode@CProfileManager@@0PAVCProfileNode@@A ; CProfileManager::CurrentNode
  00008	8b 4d 08	 mov	 ecx, DWORD PTR _name$[ebp]
  0000b	3b 08		 cmp	 ecx, DWORD PTR [eax]
  0000d	74 0d		 je	 SHORT $LN2@Start_Prof

; 249  : 		CurrentNode = CurrentNode->Get_Sub_Node( name );

  0000f	51		 push	 ecx
  00010	8b c8		 mov	 ecx, eax
  00012	e8 00 00 00 00	 call	 ?Get_Sub_Node@CProfileNode@@QAEPAV1@PBD@Z ; CProfileNode::Get_Sub_Node
  00017	a3 00 00 00 00	 mov	 DWORD PTR ?CurrentNode@CProfileManager@@0PAVCProfileNode@@A, eax ; CProfileManager::CurrentNode
$LN2@Start_Prof:

; 250  : 	} 
; 251  : 	
; 252  : 	CurrentNode->Call();

  0001c	8b c8		 mov	 ecx, eax

; 253  : }

  0001e	5d		 pop	 ebp

; 250  : 	} 
; 251  : 	
; 252  : 	CurrentNode->Call();

  0001f	e9 00 00 00 00	 jmp	 ?Call@CProfileNode@@QAEXXZ ; CProfileNode::Call
?Start_Profile@CProfileManager@@SAXPBD@Z ENDP		; CProfileManager::Start_Profile
_TEXT	ENDS
; Function compile flags: /Ogtp
; File C:\IAGOS\server\v18\Source\Source\_Common\profile.cpp
;	COMDAT ??0CProfileIterator@@IAE@PAVCProfileNode@@@Z
_TEXT	SEGMENT
_start$ = 8						; size = 4
??0CProfileIterator@@IAE@PAVCProfileNode@@@Z PROC	; CProfileIterator::CProfileIterator, COMDAT
; _this$ = ecx

; 148  : {

  00000	55		 push	 ebp
  00001	8b ec		 mov	 ebp, esp

; 149  : 	CurrentParent = start;

  00003	8b 45 08	 mov	 eax, DWORD PTR _start$[ebp]
  00006	89 41 04	 mov	 DWORD PTR [ecx+4], eax
  00009	c7 01 00 00 00
	00		 mov	 DWORD PTR [ecx], 0

; 150  : 	CurrentChild = CurrentParent->Get_Child();

  0000f	8b 40 20	 mov	 eax, DWORD PTR [eax+32]
  00012	89 41 08	 mov	 DWORD PTR [ecx+8], eax

; 151  : }

  00015	8b c1		 mov	 eax, ecx
  00017	5d		 pop	 ebp
  00018	c2 04 00	 ret	 4
??0CProfileIterator@@IAE@PAVCProfileNode@@@Z ENDP	; CProfileIterator::CProfileIterator
_TEXT	ENDS
; Function compile flags: /Ogtp
; File C:\IAGOS\server\v18\Source\Source\_Common\profile.cpp
;	COMDAT ?Enter_Parent@CProfileIterator@@QAEXXZ
_TEXT	SEGMENT
?Enter_Parent@CProfileIterator@@QAEXXZ PROC		; CProfileIterator::Enter_Parent, COMDAT
; _this$ = ecx

; 215  : 	if ( CurrentParent->Get_Parent() != NULL ) {

  00000	8b 51 04	 mov	 edx, DWORD PTR [ecx+4]
  00003	8b 42 1c	 mov	 eax, DWORD PTR [edx+28]
  00006	85 c0		 test	 eax, eax
  00008	74 0a		 je	 SHORT $LN4@Enter_Pare

; 216  : 		CurrentParent = CurrentParent->Get_Parent();

  0000a	89 41 04	 mov	 DWORD PTR [ecx+4], eax

; 217  : 	}
; 218  : 	CurrentChild = CurrentParent->Get_Child();

  0000d	8b 40 20	 mov	 eax, DWORD PTR [eax+32]

; 219  : }

  00010	89 41 08	 mov	 DWORD PTR [ecx+8], eax
  00013	c3		 ret	 0
$LN4@Enter_Pare:

; 217  : 	}
; 218  : 	CurrentChild = CurrentParent->Get_Child();

  00014	8b 42 20	 mov	 eax, DWORD PTR [edx+32]

; 219  : }

  00017	89 41 08	 mov	 DWORD PTR [ecx+8], eax
  0001a	c3		 ret	 0
?Enter_Parent@CProfileIterator@@QAEXXZ ENDP		; CProfileIterator::Enter_Parent
_TEXT	ENDS
; Function compile flags: /Ogtp
; File C:\IAGOS\server\v18\Source\Source\_Common\profile.cpp
;	COMDAT ?Enter_Child@CProfileIterator@@QAEXH@Z
_TEXT	SEGMENT
_index$ = 8						; size = 4
?Enter_Child@CProfileIterator@@QAEXH@Z PROC		; CProfileIterator::Enter_Child, COMDAT
; _this$ = ecx

; 199  : {

  00000	55		 push	 ebp
  00001	8b ec		 mov	 ebp, esp
  00003	56		 push	 esi
  00004	8b f1		 mov	 esi, ecx

; 200  : 	CurrentChild = CurrentParent->Get_Child();

  00006	8b 46 04	 mov	 eax, DWORD PTR [esi+4]
  00009	8b 40 20	 mov	 eax, DWORD PTR [eax+32]
  0000c	89 46 08	 mov	 DWORD PTR [esi+8], eax

; 201  : 	while ( (CurrentChild != NULL) && (index != 0) ) {

  0000f	85 c0		 test	 eax, eax
  00011	74 22		 je	 SHORT $LN4@Enter_Chil
  00013	8b 55 08	 mov	 edx, DWORD PTR _index$[ebp]
$LL2@Enter_Chil:
  00016	85 d2		 test	 edx, edx
  00018	74 12		 je	 SHORT $LN10@Enter_Chil

; 202  : 		index--;
; 203  : 		CurrentChild = CurrentChild->Get_Sibling();

  0001a	8b 48 24	 mov	 ecx, DWORD PTR [eax+36]
  0001d	4a		 dec	 edx
  0001e	8b c1		 mov	 eax, ecx
  00020	89 4e 08	 mov	 DWORD PTR [esi+8], ecx
  00023	85 c0		 test	 eax, eax
  00025	75 ef		 jne	 SHORT $LL2@Enter_Chil
  00027	5e		 pop	 esi

; 209  : 	}
; 210  : }

  00028	5d		 pop	 ebp
  00029	c2 04 00	 ret	 4
$LN10@Enter_Chil:

; 204  : 	}
; 205  : 
; 206  : 	if ( CurrentChild != NULL ) {
; 207  : 		CurrentParent = CurrentChild;

  0002c	89 46 04	 mov	 DWORD PTR [esi+4], eax

; 208  : 		CurrentChild = CurrentParent->Get_Child();

  0002f	8b 40 20	 mov	 eax, DWORD PTR [eax+32]
  00032	89 46 08	 mov	 DWORD PTR [esi+8], eax
$LN4@Enter_Chil:
  00035	5e		 pop	 esi

; 209  : 	}
; 210  : }

  00036	5d		 pop	 ebp
  00037	c2 04 00	 ret	 4
?Enter_Child@CProfileIterator@@QAEXH@Z ENDP		; CProfileIterator::Enter_Child
_TEXT	ENDS
; Function compile flags: /Ogtp
; File C:\IAGOS\server\v18\Source\Source\_Common\profile.cpp
;	COMDAT ?NextPreOrder@CProfileIterator@@QAEXXZ
_TEXT	SEGMENT
?NextPreOrder@CProfileIterator@@QAEXXZ PROC		; CProfileIterator::NextPreOrder, COMDAT
; _this$ = ecx

; 166  : 	CProfileNode* pNode = GetCurrentNode();

  00000	8b 51 08	 mov	 edx, DWORD PTR [ecx+8]

; 167  : 	if( pNode->Get_Child() )

  00003	83 7a 20 00	 cmp	 DWORD PTR [edx+32], 0
  00007	74 0c		 je	 SHORT $LN4@NextPreOrd

; 168  : 	{
; 169  : 		CurrentParent = pNode;

  00009	89 51 04	 mov	 DWORD PTR [ecx+4], edx

; 170  : 		pNode = pNode->Get_Child();

  0000c	8b 42 20	 mov	 eax, DWORD PTR [edx+32]

; 171  : 		m_nPrefixDepth++;

  0000f	ff 01		 inc	 DWORD PTR [ecx]

; 190  : 
; 191  : }

  00011	89 41 08	 mov	 DWORD PTR [ecx+8], eax
  00014	c3		 ret	 0
$LN4@NextPreOrd:

; 172  : 	}
; 173  : 	else if( pNode->Get_Sibling() )

  00015	8b 42 24	 mov	 eax, DWORD PTR [edx+36]
  00018	85 c0		 test	 eax, eax
  0001a	75 28		 jne	 SHORT $LN19@NextPreOrd

; 174  : 		pNode = pNode->Get_Sibling();
; 175  : 	else
; 176  : 	{
; 177  : 		while( m_nPrefixDepth>0 )

  0001c	56		 push	 esi
  0001d	8b 31		 mov	 esi, DWORD PTR [ecx]
  0001f	85 f6		 test	 esi, esi
  00021	74 17		 je	 SHORT $LN14@NextPreOrd
$LL2@NextPreOrd:

; 178  : 		{
; 179  : 			CurrentChild = pNode;

  00023	89 51 08	 mov	 DWORD PTR [ecx+8], edx

; 180  : 			pNode = pNode->Get_Parent();
; 181  : 			m_nPrefixDepth--;

  00026	8d 46 ff	 lea	 eax, DWORD PTR [esi-1]
  00029	8b 52 1c	 mov	 edx, DWORD PTR [edx+28]
  0002c	8b f0		 mov	 esi, eax
  0002e	89 01		 mov	 DWORD PTR [ecx], eax

; 182  : 			if( pNode->Get_Sibling() )

  00030	83 7a 24 00	 cmp	 DWORD PTR [edx+36], 0
  00034	75 04		 jne	 SHORT $LN14@NextPreOrd

; 174  : 		pNode = pNode->Get_Sibling();
; 175  : 	else
; 176  : 	{
; 177  : 		while( m_nPrefixDepth>0 )

  00036	85 c0		 test	 eax, eax
  00038	75 e9		 jne	 SHORT $LL2@NextPreOrd
$LN14@NextPreOrd:

; 183  : 				break;
; 184  : 		}
; 185  : 		CurrentParent = pNode->Get_Parent();

  0003a	8b 42 1c	 mov	 eax, DWORD PTR [edx+28]
  0003d	89 41 04	 mov	 DWORD PTR [ecx+4], eax

; 186  : 		pNode = pNode->Get_Sibling();

  00040	8b 42 24	 mov	 eax, DWORD PTR [edx+36]

; 187  : 	}
; 188  : 	
; 189  : 	CurrentChild = pNode;

  00043	5e		 pop	 esi
$LN19@NextPreOrd:

; 190  : 
; 191  : }

  00044	89 41 08	 mov	 DWORD PTR [ecx+8], eax
  00047	c3		 ret	 0
?NextPreOrder@CProfileIterator@@QAEXXZ ENDP		; CProfileIterator::NextPreOrder
_TEXT	ENDS
; Function compile flags: /Ogtp
; File C:\IAGOS\server\v18\Source\Source\_Common\profile.cpp
;	COMDAT ?Is_Done@CProfileIterator@@QAE_NXZ
_TEXT	SEGMENT
?Is_Done@CProfileIterator@@QAE_NXZ PROC			; CProfileIterator::Is_Done, COMDAT
; _this$ = ecx

; 195  : 	return CurrentChild == NULL;

  00000	83 79 08 00	 cmp	 DWORD PTR [ecx+8], 0
  00004	0f 94 c0	 sete	 al

; 196  : }

  00007	c3		 ret	 0
?Is_Done@CProfileIterator@@QAE_NXZ ENDP			; CProfileIterator::Is_Done
_TEXT	ENDS
; Function compile flags: /Ogtp
; File C:\IAGOS\server\v18\Source\Source\_Common\profile.cpp
;	COMDAT ?Next@CProfileIterator@@QAEXXZ
_TEXT	SEGMENT
?Next@CProfileIterator@@QAEXXZ PROC			; CProfileIterator::Next, COMDAT
; _this$ = ecx

; 161  : 	CurrentChild = CurrentChild->Get_Sibling();

  00000	8b 41 08	 mov	 eax, DWORD PTR [ecx+8]
  00003	8b 40 24	 mov	 eax, DWORD PTR [eax+36]
  00006	89 41 08	 mov	 DWORD PTR [ecx+8], eax

; 162  : }

  00009	c3		 ret	 0
?Next@CProfileIterator@@QAEXXZ ENDP			; CProfileIterator::Next
_TEXT	ENDS
; Function compile flags: /Ogtp
; File C:\IAGOS\server\v18\Source\Source\_Common\profile.cpp
;	COMDAT ?First@CProfileIterator@@QAEXXZ
_TEXT	SEGMENT
?First@CProfileIterator@@QAEXXZ PROC			; CProfileIterator::First, COMDAT
; _this$ = ecx

; 155  : 	CurrentChild = CurrentParent->Get_Child();

  00000	8b 41 04	 mov	 eax, DWORD PTR [ecx+4]
  00003	8b 40 20	 mov	 eax, DWORD PTR [eax+32]
  00006	89 41 08	 mov	 DWORD PTR [ecx+8], eax

; 156  : }

  00009	c3		 ret	 0
?First@CProfileIterator@@QAEXXZ ENDP			; CProfileIterator::First
_TEXT	ENDS
; Function compile flags: /Ogtp
; File C:\IAGOS\server\v18\Source\Source\_Common\profile.cpp
;	COMDAT ?Return@CProfileNode@@QAE_NXZ
_TEXT	SEGMENT
_time$1 = -20						; size = 8
_curr_rate$2 = -12					; size = 8
_this$1$ = -8						; size = 4
_ticks$ = -4						; size = 4
?Return@CProfileNode@@QAE_NXZ PROC			; CProfileNode::Return, COMDAT
; _this$ = ecx

; 130  : {

  00000	55		 push	 ebp
  00001	8b ec		 mov	 ebp, esp
  00003	83 ec 14	 sub	 esp, 20			; 00000014H
  00006	53		 push	 ebx
  00007	8b d9		 mov	 ebx, ecx
  00009	56		 push	 esi
  0000a	57		 push	 edi
  0000b	89 5d f8	 mov	 DWORD PTR _this$1$[ebp], ebx

; 131  : 	if ( --RecursionCounter == 0 && TotalCalls != 0 ) { 

  0000e	83 43 18 ff	 add	 DWORD PTR [ebx+24], -1
  00012	0f 85 8a 00 00
	00		 jne	 $LN2@Return
  00018	83 7b 04 00	 cmp	 DWORD PTR [ebx+4], 0
  0001c	0f 84 80 00 00
	00		 je	 $LN2@Return

; 132  : 		__int64 time;
; 133  : 		Profile_Get_Ticks(&time);

  00022	8d 45 ec	 lea	 eax, DWORD PTR _time$1[ebp]
  00025	89 45 fc	 mov	 DWORD PTR _ticks$[ebp], eax
  00028	52		 push	 edx
  00029	51		 push	 ecx
  0002a	8b 4d fc	 mov	 ecx, DWORD PTR _ticks$[ebp]
  0002d	0f		 DB	 15			; 0000000fH
  0002e	31		 DB	 49			; 00000031H
  0002f	89 01		 mov	 DWORD PTR [ecx], eax
  00031	89 51 04	 mov	 DWORD PTR [ecx+4], edx
  00034	59		 pop	 ecx
  00035	5a		 pop	 edx

; 134  : 		time-=StartTime;

  00036	8b 5d f8	 mov	 ebx, DWORD PTR _this$1$[ebp]
  00039	8b 4d ec	 mov	 ecx, DWORD PTR _time$1[ebp]
  0003c	8b 55 f0	 mov	 edx, DWORD PTR _time$1[ebp+4]

; 34   : 	if (_CPUFrequency == -1.0f) {

  0003f	f3 0f 10 05 00
	00 00 00	 movss	 xmm0, DWORD PTR ?_CPUFrequency@?1??Profile_Get_Tick_Rate@@YAMXZ@4MA

; 134  : 		time-=StartTime;

  00047	2b 4b 10	 sub	 ecx, DWORD PTR [ebx+16]
  0004a	89 4d ec	 mov	 DWORD PTR _time$1[ebp], ecx
  0004d	1b 53 14	 sbb	 edx, DWORD PTR [ebx+20]

; 34   : 	if (_CPUFrequency == -1.0f) {

  00050	0f 2e 05 00 00
	00 00		 ucomiss xmm0, DWORD PTR __real@bf800000

; 134  : 		time-=StartTime;

  00057	89 55 f0	 mov	 DWORD PTR _time$1[ebp+4], edx

; 34   : 	if (_CPUFrequency == -1.0f) {

  0005a	9f		 lahf
  0005b	f6 c4 44	 test	 ah, 68			; 00000044H
  0005e	7a 2b		 jp	 SHORT $LN7@Return

; 35   : 		__int64 curr_rate = 0;
; 36   : 		::QueryPerformanceFrequency ((LARGE_INTEGER *)&curr_rate);

  00060	8d 45 f4	 lea	 eax, DWORD PTR _curr_rate$2[ebp]
  00063	0f 57 c0	 xorps	 xmm0, xmm0
  00066	50		 push	 eax
  00067	66 0f 13 45 f4	 movlpd	 QWORD PTR _curr_rate$2[ebp], xmm0
  0006c	ff 15 00 00 00
	00		 call	 DWORD PTR __imp__QueryPerformanceFrequency@4

; 37   : 		_CPUFrequency = (float)curr_rate;

  00072	8b 55 f8	 mov	 edx, DWORD PTR _curr_rate$2[ebp+4]
  00075	8b 4d f4	 mov	 ecx, DWORD PTR _curr_rate$2[ebp]
  00078	e8 00 00 00 00	 call	 __ltof3
  0007d	8b 55 f0	 mov	 edx, DWORD PTR _time$1[ebp+4]
  00080	8b 4d ec	 mov	 ecx, DWORD PTR _time$1[ebp]
  00083	f3 0f 11 05 00
	00 00 00	 movss	 DWORD PTR ?_CPUFrequency@?1??Profile_Get_Tick_Rate@@YAMXZ@4MA, xmm0
$LN7@Return:

; 135  : 		TotalTime += (float)time / Profile_Get_Tick_Rate();

  0008b	e8 00 00 00 00	 call	 __ltof3
  00090	f3 0f 5e 05 00
	00 00 00	 divss	 xmm0, DWORD PTR ?_CPUFrequency@?1??Profile_Get_Tick_Rate@@YAMXZ@4MA
  00098	f3 0f 58 43 08	 addss	 xmm0, DWORD PTR [ebx+8]
  0009d	f3 0f 11 43 08	 movss	 DWORD PTR [ebx+8], xmm0
$LN2@Return:

; 136  : 	}
; 137  : 	return ( RecursionCounter == 0 );

  000a2	83 7b 18 00	 cmp	 DWORD PTR [ebx+24], 0

; 138  : }

  000a6	5f		 pop	 edi
  000a7	5e		 pop	 esi
  000a8	0f 94 c0	 sete	 al
  000ab	5b		 pop	 ebx
  000ac	8b e5		 mov	 esp, ebp
  000ae	5d		 pop	 ebp
  000af	c3		 ret	 0
?Return@CProfileNode@@QAE_NXZ ENDP			; CProfileNode::Return
_TEXT	ENDS
; Function compile flags: /Ogtp
; File C:\IAGOS\server\v18\Source\Source\_Common\profile.cpp
;	COMDAT ?Call@CProfileNode@@QAEXXZ
_TEXT	SEGMENT
_ticks$ = -4						; size = 4
?Call@CProfileNode@@QAEXXZ PROC				; CProfileNode::Call, COMDAT
; _this$ = ecx

; 121  : {

  00000	55		 push	 ebp
  00001	8b ec		 mov	 ebp, esp
  00003	51		 push	 ecx

; 122  : 	TotalCalls++;
; 123  : 	if (RecursionCounter++ == 0) {

  00004	8b 51 18	 mov	 edx, DWORD PTR [ecx+24]
  00007	ff 41 04	 inc	 DWORD PTR [ecx+4]
  0000a	53		 push	 ebx
  0000b	56		 push	 esi
  0000c	8d 42 01	 lea	 eax, DWORD PTR [edx+1]
  0000f	89 41 18	 mov	 DWORD PTR [ecx+24], eax
  00012	57		 push	 edi
  00013	85 d2		 test	 edx, edx
  00015	75 14		 jne	 SHORT $LN2@Call

; 124  : 		Profile_Get_Ticks(&StartTime);

  00017	8d 41 10	 lea	 eax, DWORD PTR [ecx+16]
  0001a	89 45 fc	 mov	 DWORD PTR _ticks$[ebp], eax
  0001d	52		 push	 edx
  0001e	51		 push	 ecx
  0001f	8b 4d fc	 mov	 ecx, DWORD PTR _ticks$[ebp]
  00022	0f		 DB	 15			; 0000000fH
  00023	31		 DB	 49			; 00000031H
  00024	89 01		 mov	 DWORD PTR [ecx], eax
  00026	89 51 04	 mov	 DWORD PTR [ecx+4], edx
  00029	59		 pop	 ecx
  0002a	5a		 pop	 edx
$LN2@Call:

; 125  : 	}
; 126  : }

  0002b	5f		 pop	 edi
  0002c	5e		 pop	 esi
  0002d	5b		 pop	 ebx
  0002e	8b e5		 mov	 esp, ebp
  00030	5d		 pop	 ebp
  00031	c3		 ret	 0
?Call@CProfileNode@@QAEXXZ ENDP				; CProfileNode::Call
_TEXT	ENDS
; Function compile flags: /Ogtp
; File C:\IAGOS\server\v18\Source\Source\_Common\profile.cpp
;	COMDAT ?Reset@CProfileNode@@QAEXXZ
_TEXT	SEGMENT
?Reset@CProfileNode@@QAEXXZ PROC			; CProfileNode::Reset, COMDAT
; _this$ = ecx

; 107  : {

  00000	56		 push	 esi
  00001	8b f1		 mov	 esi, ecx
$LL5@Reset:

; 108  : 	TotalCalls = 0;
; 109  : 	TotalTime = 0.0f;
; 110  : 
; 111  : 	if ( Child ) {

  00003	8b 4e 20	 mov	 ecx, DWORD PTR [esi+32]
  00006	c7 46 04 00 00
	00 00		 mov	 DWORD PTR [esi+4], 0
  0000d	c7 46 08 00 00
	00 00		 mov	 DWORD PTR [esi+8], 0
  00014	85 c9		 test	 ecx, ecx
  00016	74 05		 je	 SHORT $LN2@Reset

; 112  : 		Child->Reset();

  00018	e8 00 00 00 00	 call	 ?Reset@CProfileNode@@QAEXXZ ; CProfileNode::Reset
$LN2@Reset:

; 113  : 	}
; 114  : 	if ( Sibling ) {

  0001d	8b 76 24	 mov	 esi, DWORD PTR [esi+36]
  00020	85 f6		 test	 esi, esi
  00022	75 df		 jne	 SHORT $LL5@Reset
  00024	5e		 pop	 esi

; 115  : 		Sibling->Reset();
; 116  : 	}
; 117  : }

  00025	c3		 ret	 0
?Reset@CProfileNode@@QAEXXZ ENDP			; CProfileNode::Reset
_TEXT	ENDS
; Function compile flags: /Ogtp
; File C:\IAGOS\server\v18\Source\Source\_Common\profile.cpp
;	COMDAT ?Get_Sub_Node@CProfileNode@@QAEPAV1@PBD@Z
_TEXT	SEGMENT
__$EHRec$ = -12						; size = 12
_name$ = 8						; size = 4
$T2 = 8							; size = 4
?Get_Sub_Node@CProfileNode@@QAEPAV1@PBD@Z PROC		; CProfileNode::Get_Sub_Node, COMDAT
; _this$ = ecx

; 88   : {

  00000	55		 push	 ebp
  00001	8b ec		 mov	 ebp, esp
  00003	6a ff		 push	 -1
  00005	68 00 00 00 00	 push	 __ehhandler$?Get_Sub_Node@CProfileNode@@QAEPAV1@PBD@Z
  0000a	64 a1 00 00 00
	00		 mov	 eax, DWORD PTR fs:0
  00010	50		 push	 eax
  00011	56		 push	 esi
  00012	57		 push	 edi
  00013	a1 00 00 00 00	 mov	 eax, DWORD PTR ___security_cookie
  00018	33 c5		 xor	 eax, ebp
  0001a	50		 push	 eax
  0001b	8d 45 f4	 lea	 eax, DWORD PTR __$EHRec$[ebp]
  0001e	64 a3 00 00 00
	00		 mov	 DWORD PTR fs:0, eax
  00024	8b f9		 mov	 edi, ecx

; 89   : 	// Try to find this sub node
; 90   : 	CProfileNode * child = Child;

  00026	8b 47 20	 mov	 eax, DWORD PTR [edi+32]

; 91   : 	while ( child ) {

  00029	8b 75 08	 mov	 esi, DWORD PTR _name$[ebp]
  0002c	85 c0		 test	 eax, eax
  0002e	74 0b		 je	 SHORT $LN3@Get_Sub_No
$LL2@Get_Sub_No:

; 92   : 		if ( child->Name == name ) {

  00030	39 30		 cmp	 DWORD PTR [eax], esi
  00032	74 39		 je	 SHORT $LN1@Get_Sub_No

; 93   : 			return child;
; 94   : 		}
; 95   : 		child = child->Sibling;

  00034	8b 40 24	 mov	 eax, DWORD PTR [eax+36]
  00037	85 c0		 test	 eax, eax
  00039	75 f5		 jne	 SHORT $LL2@Get_Sub_No
$LN3@Get_Sub_No:

; 96   : 	}
; 97   : 
; 98   : 	// We didn't find it, so add it
; 99   : 	CProfileNode * node = new CProfileNode( name, this );

  0003b	6a 28		 push	 40			; 00000028H
  0003d	e8 00 00 00 00	 call	 ??2@YAPAXI@Z		; operator new
  00042	83 c4 04	 add	 esp, 4
  00045	89 45 08	 mov	 DWORD PTR $T2[ebp], eax
  00048	c7 45 fc 00 00
	00 00		 mov	 DWORD PTR __$EHRec$[ebp+8], 0
  0004f	85 c0		 test	 eax, eax
  00051	74 0d		 je	 SHORT $LN6@Get_Sub_No
  00053	57		 push	 edi
  00054	56		 push	 esi
  00055	8b c8		 mov	 ecx, eax
  00057	e8 00 00 00 00	 call	 ??0CProfileNode@@QAE@PBDPAV0@@Z ; CProfileNode::CProfileNode
  0005c	8b c8		 mov	 ecx, eax
  0005e	eb 02		 jmp	 SHORT $LN7@Get_Sub_No
$LN6@Get_Sub_No:
  00060	33 c9		 xor	 ecx, ecx
$LN7@Get_Sub_No:

; 100  : 	node->Sibling = Child;

  00062	8b 47 20	 mov	 eax, DWORD PTR [edi+32]
  00065	89 41 24	 mov	 DWORD PTR [ecx+36], eax

; 101  : 	Child = node;
; 102  : 	return node;

  00068	8b c1		 mov	 eax, ecx
  0006a	89 4f 20	 mov	 DWORD PTR [edi+32], ecx
$LN1@Get_Sub_No:

; 103  : }

  0006d	8b 4d f4	 mov	 ecx, DWORD PTR __$EHRec$[ebp]
  00070	64 89 0d 00 00
	00 00		 mov	 DWORD PTR fs:0, ecx
  00077	59		 pop	 ecx
  00078	5f		 pop	 edi
  00079	5e		 pop	 esi
  0007a	8b e5		 mov	 esp, ebp
  0007c	5d		 pop	 ebp
  0007d	c2 04 00	 ret	 4
_TEXT	ENDS
;	COMDAT text$x
text$x	SEGMENT
__unwindfunclet$?Get_Sub_Node@CProfileNode@@QAEPAV1@PBD@Z$0:
  00000	6a 28		 push	 40			; 00000028H
  00002	8b 45 08	 mov	 eax, DWORD PTR $T2[ebp]
  00005	50		 push	 eax
  00006	e8 00 00 00 00	 call	 ??3@YAXPAXI@Z		; operator delete
  0000b	83 c4 08	 add	 esp, 8
  0000e	c3		 ret	 0
  0000f	cc		 int	 3
  00010	cc		 int	 3
  00011	cc		 int	 3
  00012	cc		 int	 3
  00013	cc		 int	 3
__ehhandler$?Get_Sub_Node@CProfileNode@@QAEPAV1@PBD@Z:
  00014	90		 npad	 1
  00015	90		 npad	 1
  00016	8b 54 24 08	 mov	 edx, DWORD PTR [esp+8]
  0001a	8d 42 0c	 lea	 eax, DWORD PTR [edx+12]
  0001d	8b 4a f4	 mov	 ecx, DWORD PTR [edx-12]
  00020	33 c8		 xor	 ecx, eax
  00022	e8 00 00 00 00	 call	 @__security_check_cookie@4
  00027	b8 00 00 00 00	 mov	 eax, OFFSET __ehfuncinfo$?Get_Sub_Node@CProfileNode@@QAEPAV1@PBD@Z
  0002c	e9 00 00 00 00	 jmp	 ___CxxFrameHandler3
text$x	ENDS
?Get_Sub_Node@CProfileNode@@QAEPAV1@PBD@Z ENDP		; CProfileNode::Get_Sub_Node
; Function compile flags: /Ogtp
; File C:\IAGOS\server\v18\Source\Source\_Common\profile.cpp
;	COMDAT ??1CProfileNode@@QAE@XZ
_TEXT	SEGMENT
??1CProfileNode@@QAE@XZ PROC				; CProfileNode::~CProfileNode, COMDAT
; _this$ = ecx

; 73   : {

  00000	56		 push	 esi
  00001	57		 push	 edi
  00002	8b f9		 mov	 edi, ecx

; 74   : 	delete Child;

  00004	8b 77 20	 mov	 esi, DWORD PTR [edi+32]
  00007	85 f6		 test	 esi, esi
  00009	74 12		 je	 SHORT $LN9@CProfileNo
  0000b	8b ce		 mov	 ecx, esi
  0000d	e8 00 00 00 00	 call	 ??1CProfileNode@@QAE@XZ	; CProfileNode::~CProfileNode
  00012	6a 28		 push	 40			; 00000028H
  00014	56		 push	 esi
  00015	e8 00 00 00 00	 call	 ??3@YAXPAXI@Z		; operator delete
  0001a	83 c4 08	 add	 esp, 8
$LN9@CProfileNo:

; 75   : 	delete Sibling;

  0001d	8b 77 24	 mov	 esi, DWORD PTR [edi+36]
  00020	85 f6		 test	 esi, esi
  00022	74 12		 je	 SHORT $LN13@CProfileNo
  00024	8b ce		 mov	 ecx, esi
  00026	e8 00 00 00 00	 call	 ??1CProfileNode@@QAE@XZ	; CProfileNode::~CProfileNode
  0002b	6a 28		 push	 40			; 00000028H
  0002d	56		 push	 esi
  0002e	e8 00 00 00 00	 call	 ??3@YAXPAXI@Z		; operator delete
  00033	83 c4 08	 add	 esp, 8
$LN13@CProfileNo:
  00036	5f		 pop	 edi

; 76   : }

  00037	5e		 pop	 esi
  00038	c3		 ret	 0
??1CProfileNode@@QAE@XZ ENDP				; CProfileNode::~CProfileNode
_TEXT	ENDS
; Function compile flags: /Ogtp
; File C:\IAGOS\server\v18\Source\Source\_Common\profile.cpp
;	COMDAT ??0CProfileNode@@QAE@PBDPAV0@@Z
_TEXT	SEGMENT
_name$ = 8						; size = 4
_parent$ = 12						; size = 4
??0CProfileNode@@QAE@PBDPAV0@@Z PROC			; CProfileNode::CProfileNode, COMDAT
; _this$ = ecx

; 67   : {

  00000	55		 push	 ebp
  00001	8b ec		 mov	 ebp, esp

; 59   : 	Name( name ),

  00003	8b 45 08	 mov	 eax, DWORD PTR _name$[ebp]
  00006	56		 push	 esi
  00007	8b f1		 mov	 esi, ecx
  00009	89 06		 mov	 DWORD PTR [esi], eax

; 60   : 	TotalCalls( 0 ),
; 61   : 	TotalTime( 0 ),
; 62   : 	StartTime( 0 ),
; 63   : 	RecursionCounter( 0 ),
; 64   : 	Parent( parent ),

  0000b	8b 45 0c	 mov	 eax, DWORD PTR _parent$[ebp]
  0000e	c7 46 04 00 00
	00 00		 mov	 DWORD PTR [esi+4], 0
  00015	c7 46 08 00 00
	00 00		 mov	 DWORD PTR [esi+8], 0
  0001c	c7 46 10 00 00
	00 00		 mov	 DWORD PTR [esi+16], 0
  00023	c7 46 14 00 00
	00 00		 mov	 DWORD PTR [esi+20], 0
  0002a	c7 46 18 00 00
	00 00		 mov	 DWORD PTR [esi+24], 0
  00031	89 46 1c	 mov	 DWORD PTR [esi+28], eax

; 65   : 	Child( NULL ),

  00034	c7 46 20 00 00
	00 00		 mov	 DWORD PTR [esi+32], 0

; 66   : 	Sibling( NULL )

  0003b	c7 46 24 00 00
	00 00		 mov	 DWORD PTR [esi+36], 0

; 68   : 	Reset();

  00042	e8 00 00 00 00	 call	 ?Reset@CProfileNode@@QAEXXZ ; CProfileNode::Reset

; 69   : }

  00047	8b c6		 mov	 eax, esi
  00049	5e		 pop	 esi
  0004a	5d		 pop	 ebp
  0004b	c2 08 00	 ret	 8
??0CProfileNode@@QAE@PBDPAV0@@Z ENDP			; CProfileNode::CProfileNode
_TEXT	ENDS
; Function compile flags: /Ogtp
; File C:\IAGOS\server\v18\Source\Source\_Common\profile.cpp
;	COMDAT ?__empty_global_delete@@YAXPAXI@Z
_TEXT	SEGMENT
___formal$ = 8						; size = 4
___formal$ = 12						; size = 4
?__empty_global_delete@@YAXPAXI@Z PROC			; __empty_global_delete, COMDAT

  00000	c2 00 00	 ret	 0
?__empty_global_delete@@YAXPAXI@Z ENDP			; __empty_global_delete
_TEXT	ENDS
; Function compile flags: /Ogtp
; File C:\IAGOS\server\v18\Source\Source\_Common\profile.cpp
;	COMDAT ?__empty_global_delete@@YAXPAX@Z
_TEXT	SEGMENT
___formal$ = 8						; size = 4
?__empty_global_delete@@YAXPAX@Z PROC			; __empty_global_delete, COMDAT

  00000	c2 00 00	 ret	 0
?__empty_global_delete@@YAXPAX@Z ENDP			; __empty_global_delete
_TEXT	ENDS
END
