; Listing generated by Microsoft (R) Optimizing Compiler Version 19.44.35225.0 

	TITLE	C:\IAGOS\server\v18\Source\Output\WorldServer\Release\ProjectLux.obj
	.686P
	.XMM
	include listing.inc
	.model	flat

INCLUDELIB LIBCMT
INCLUDELIB OLDNAMES

PUBLIC	?__empty_global_delete@@YAXPAX@Z		; __empty_global_delete
PUBLIC	?__empty_global_delete@@YAXPAXI@Z		; __empty_global_delete
PUBLIC	___local_stdio_printf_options
PUBLIC	?AtlThrowImpl@ATL@@YGXJ@Z			; ATL::AtlThrowImpl
PUBLIC	??1?$CSimpleStringT@D$0A@@ATL@@QAE@XZ		; ATL::CSimpleStringT<char,0>::~CSimpleStringT<char,0>
PUBLIC	?SetString@?$CSimpleStringT@D$0A@@ATL@@QAEXPBDH@Z ; ATL::CSimpleStringT<char,0>::SetString
PUBLIC	?ThrowMemoryException@?$CSimpleStringT@D$0A@@ATL@@KAXXZ ; ATL::CSimpleStringT<char,0>::ThrowMemoryException
PUBLIC	?Fork@?$CSimpleStringT@D$0A@@ATL@@AAEXH@Z	; ATL::CSimpleStringT<char,0>::Fork
PUBLIC	?PrepareWrite2@?$CSimpleStringT@D$0A@@ATL@@AAEXH@Z ; ATL::CSimpleStringT<char,0>::PrepareWrite2
PUBLIC	?Reallocate@?$CSimpleStringT@D$0A@@ATL@@AAEXH@Z	; ATL::CSimpleStringT<char,0>::Reallocate
PUBLIC	??1?$CStringT@DV?$StrTraitMFC@DV?$ChTraitsCRT@D@ATL@@@@@ATL@@QAE@XZ ; ATL::CStringT<char,StrTraitMFC<char,ATL::ChTraitsCRT<char> > >::~CStringT<char,StrTraitMFC<char,ATL::ChTraitsCRT<char> > >
PUBLIC	?Format@?$CStringT@DV?$StrTraitMFC@DV?$ChTraitsCRT@D@ATL@@@@@ATL@@QAAXPBDZZ ; ATL::CStringT<char,StrTraitMFC<char,ATL::ChTraitsCRT<char> > >::Format
PUBLIC	?FormatV@?$CStringT@DV?$StrTraitMFC@DV?$ChTraitsCRT@D@ATL@@@@@ATL@@QAEXPBDPAD@Z ; ATL::CStringT<char,StrTraitMFC<char,ATL::ChTraitsCRT<char> > >::FormatV
PUBLIC	?LoadStringA@?$CStringT@DV?$StrTraitMFC@DV?$ChTraitsCRT@D@ATL@@@@@ATL@@QAEHI@Z ; ATL::CStringT<char,StrTraitMFC<char,ATL::ChTraitsCRT<char> > >::LoadStringA
PUBLIC	?LoadPropMoverEx_AI_SCAN@CProject@@QAEHPBDAAVCScript@@H@Z ; CProject::LoadPropMoverEx_AI_SCAN
PUBLIC	?LoadPropMoverEx_AI_BATTLE@CProject@@QAEHPBDAAVCScript@@H@Z ; CProject::LoadPropMoverEx_AI_BATTLE
PUBLIC	?LoadPropMoverEx_AI_MOVE@CProject@@QAEHPBDAAVCScript@@H@Z ; CProject::LoadPropMoverEx_AI_MOVE
PUBLIC	?LoadPropMoverEx_AI@CProject@@QAEHPBDAAVCScript@@H@Z ; CProject::LoadPropMoverEx_AI
PUBLIC	?_OptionsStorage@?1??__local_stdio_printf_options@@9@4_KA ; `__local_stdio_printf_options'::`2'::_OptionsStorage
PUBLIC	??_C@_01MCMALHOG@a@				; `string'
PUBLIC	??_C@_0BM@HMFGHCP@?$CFs?5min?3?$CFd?0?5max?3?$CFd?0?5index?3?$CFd@ ; `string'
PUBLIC	??_C@_0BJ@GKPOBPPI@GetMoverProp?5range_error@	; `string'
PUBLIC	??_C@_0CM@NNPGAIKO@?$CFs?$CI?$CFd?$CJ?5?3?5MoverID?$DN?$CFd?5SCAN?5?$LM?$LN?E?M?$LK?m@ ; `string'
PUBLIC	??_C@_03JOGALCLM@job@				; `string'
PUBLIC	??_C@_05CCGOGOBM@range@				; `string'
PUBLIC	??_C@_05KOGNICEN@quest@				; `string'
PUBLIC	??_C@_04NHONDGDE@item@				; `string'
PUBLIC	??_C@_04LCKNAMOM@chao@				; `string'
PUBLIC	??_C@_0CE@DOIGNPAP@?$CFs?$CI?$CFd?$CJ?5?3?5MoverID?$DN?$CFd?5syntax?5erro@ ; `string'
PUBLIC	??_C@_04BMFHCNCO@scan@				; `string'
PUBLIC	??_C@_0CO@POCBHHIE@?$CFs?$CI?$CFd?$CJ?5?3?5MoverID?$DN?$CFd?5BATTLE?5?$LM?$LN?E?M@ ; `string'
PUBLIC	??_C@_06FDAMAAOH@Attack@			; `string'
PUBLIC	??_C@_07EAMOHMIH@cunning@			; `string'
PUBLIC	??_C@_03IMLOALHE@low@				; `string'
PUBLIC	??_C@_03JOEFDEFC@Sam@				; `string'
PUBLIC	??_C@_02MKAICKHL@Hi@				; `string'
PUBLIC	??_C@_08ENEHKLFG@Recovery@			; `string'
PUBLIC	??_C@_01OMGOGALD@u@				; `string'
PUBLIC	??_C@_01GOHFPIOK@m@				; `string'
PUBLIC	??_C@_0M@JLIIOCOM@RangeAttack@			; `string'
PUBLIC	??_C@_0BA@LLHANEDJ@KeepRangeAttack@		; `string'
PUBLIC	??_C@_06DLFKBJMP@Summon@			; `string'
PUBLIC	??_C@_05LDPELMJE@Evade@				; `string'
PUBLIC	??_C@_06CJKGKNBJ@Helper@			; `string'
PUBLIC	??_C@_03NFKEKGGK@all@				; `string'
PUBLIC	??_C@_03DOHHJLGM@sam@				; `string'
PUBLIC	??_C@_07NPHLJPC@Berserk@			; `string'
PUBLIC	??_C@_0N@MDBDBIOA@Randomtarget@			; `string'
PUBLIC	??_C@_0BP@IMGBJKKL@?$LM?R?H?$KP?G?R?$LM?v?5?$MA?V?$LE?B?5?$LA?$LD?$LM?v?$LA?$KB?5?$LD?J?$LJ?$KL?5?$LI?$LJ?$LE?Y@ ; `string'
PUBLIC	??_C@_0BK@IFOEIIPC@?$CFs?$CI?$CFd?$CJ?5?3?5MoverID?$DN?$CFd?5?$CFs?5?$CFs@ ; `string'
PUBLIC	??_C@_0DC@EACAAEFB@?$CFs?$CI?$CFd?$CJ?5?3?5MoverID?$DN?$CFd?5?A?v?A?$KE?$LF?G?A?v?5?$LO?J@ ; `string'
PUBLIC	??_C@_0CH@ICOKIFCB@?A?v?A?$KE?$LF?H?5?$LI?s?$LN?$LK?E?M?5?$LO?F?$MA?L?$LF?p?$LA?$KB?5?G?A?$LH?N?F?$NL?F?$LM@ ; `string'
PUBLIC	??_C@_0DG@EGDLGKJJ@Berserk?$LI?m?$LH?I?$MA?G?5?$LF?$KF?$LJ?L?A?v?$LJ?h?$LM?v?$MA?G?5?$LJ?$PM?$MA?$KH@ ; `string'
PUBLIC	??_C@_0CM@FCIKAEFM@?$CFs?$CI?$CFd?$CJ?5?3?5MoverID?$DN?$CFd?5MOVE?5?$LM?$LN?E?M?$LK?m@ ; `string'
PUBLIC	??_C@_04MPEDGKBA@Loot@				; `string'
PUBLIC	??_C@_01LPLHEDKD@d@				; `string'
PUBLIC	??_C@_0CG@JGKNAMHK@?$CFs?$CI?$CFd?$CJ?5?3?5MoverID?$DN?$CFd?5AI?5?$LE?Y?$MA?$LN?$LP?$KB?5?$HL@ ; `string'
PUBLIC	??_C@_05CGLFOOHA@?$CDSCAN@			; `string'
PUBLIC	??_C@_07IHMGMGKA@?$CDBATTLE@			; `string'
PUBLIC	??_C@_05EJCOBEBF@?$CDMOVE@			; `string'
PUBLIC	??_C@_0CP@OOJHDEOA@?$CFs?$CI?$CFd?$CJ?5?3?5MoverID?$DN?$CFd?5?$LM?$LN?E?M?$LK?m?$LH?$LA?$MA?L?$LI@ ; `string'
PUBLIC	??_C@_0CI@FPILLNG@?$CFs?$CI?$CFd?$CJ?5?3?5MoverID?$DN?$CFd?5?$LM?$LN?E?M?$LK?m?$LH?$LA?$CI?$DM?$CJ@ ; `string'
PUBLIC	__real@41a00000
EXTRN	__invalid_parameter_noinfo:PROC
EXTRN	__errno:PROC
EXTRN	_strcmpi:PROC
EXTRN	__imp__LoadResource@8:PROC
EXTRN	__imp__LockResource@4:PROC
EXTRN	__imp__SizeofResource@8:PROC
EXTRN	__imp__FindResourceW@12:PROC
EXTRN	__imp__WideCharToMultiByte@32:PROC
EXTRN	___stdio_common_vsprintf:PROC
EXTRN	___stdio_common_vsprintf_s:PROC
EXTRN	_atoi:PROC
EXTRN	?AfxThrowMemoryException@@YGXXZ:PROC		; AfxThrowMemoryException
EXTRN	?AfxThrowOleException@@YGXJ@Z:PROC		; AfxThrowOleException
EXTRN	?AfxFindStringResourceHandle@@YGPAUHINSTANCE__@@I@Z:PROC ; AfxFindStringResourceHandle
EXTRN	?AfxGetStringManager@@YGPAUIAtlStringMgr@ATL@@XZ:PROC ; AfxGetStringManager
EXTRN	?GetNumber@CScanner@@QAEHH@Z:PROC		; CScanner::GetNumber
EXTRN	?GetFloat@CScanner@@QAEMH@Z:PROC		; CScanner::GetFloat
EXTRN	?Error@@YAPBDPBDZZ:PROC				; Error
EXTRN	@__security_check_cookie@4:PROC
EXTRN	___CxxFrameHandler3:PROC
EXTRN	_memcpy:PROC
EXTRN	_memmove:PROC
EXTRN	_memset:PROC
EXTRN	___security_cookie:DWORD
EXTRN	__fltused:DWORD
;	COMDAT ?_OptionsStorage@?1??__local_stdio_printf_options@@9@4_KA
_BSS	SEGMENT
?_OptionsStorage@?1??__local_stdio_printf_options@@9@4_KA DQ 01H DUP (?) ; `__local_stdio_printf_options'::`2'::_OptionsStorage
_BSS	ENDS
;	COMDAT __real@41a00000
CONST	SEGMENT
__real@41a00000 DD 041a00000r			; 20
CONST	ENDS
;	COMDAT ??_C@_0CI@FPILLNG@?$CFs?$CI?$CFd?$CJ?5?3?5MoverID?$DN?$CFd?5?$LM?$LN?E?M?$LK?m?$LH?$LA?$CI?$DM?$CJ@
CONST	SEGMENT
??_C@_0CI@FPILLNG@?$CFs?$CI?$CFd?$CJ?5?3?5MoverID?$DN?$CFd?5?$LM?$LN?E?M?$LK?m?$LH?$LA?$CI?$DM?$CJ@ DB '%'
	DB	's(%d) : MoverID=%d ', 0bcH, 0bdH, 0c5H, 0cdH, 0baH, 0edH, 0b7H
	DB	0b0H, '(<)', 0c0H, 0ccH, ' ', 0beH, 0f8H, 0c0H, 0bdH, '.', 00H ; `string'
CONST	ENDS
;	COMDAT ??_C@_0CP@OOJHDEOA@?$CFs?$CI?$CFd?$CJ?5?3?5MoverID?$DN?$CFd?5?$LM?$LN?E?M?$LK?m?$LH?$LA?$MA?L?$LI@
CONST	SEGMENT
??_C@_0CP@OOJHDEOA@?$CFs?$CI?$CFd?$CJ?5?3?5MoverID?$DN?$CFd?5?$LM?$LN?E?M?$LK?m?$LH?$LA?$MA?L?$LI@ DB '%'
	DB	's(%d) : MoverID=%d ', 0bcH, 0bdH, 0c5H, 0cdH, 0baH, 0edH, 0b7H
	DB	0b0H, 0c0H, 0ccH, 0b8H, 0a7H, 0c0H, 0ccH, ' ', 0c0H, 0ccH, 0bbH
	DB	0f3H, 0c7H, 0d4H, '(%s) ', 00H		; `string'
CONST	ENDS
;	COMDAT ??_C@_05EJCOBEBF@?$CDMOVE@
CONST	SEGMENT
??_C@_05EJCOBEBF@?$CDMOVE@ DB '#MOVE', 00H		; `string'
CONST	ENDS
;	COMDAT ??_C@_07IHMGMGKA@?$CDBATTLE@
CONST	SEGMENT
??_C@_07IHMGMGKA@?$CDBATTLE@ DB '#BATTLE', 00H		; `string'
CONST	ENDS
;	COMDAT ??_C@_05CGLFOOHA@?$CDSCAN@
CONST	SEGMENT
??_C@_05CGLFOOHA@?$CDSCAN@ DB '#SCAN', 00H		; `string'
CONST	ENDS
;	COMDAT ??_C@_0CG@JGKNAMHK@?$CFs?$CI?$CFd?$CJ?5?3?5MoverID?$DN?$CFd?5AI?5?$LE?Y?$MA?$LN?$LP?$KB?5?$HL@
CONST	SEGMENT
??_C@_0CG@JGKNAMHK@?$CFs?$CI?$CFd?$CJ?5?3?5MoverID?$DN?$CFd?5AI?5?$LE?Y?$MA?$LN?$LP?$KB?5?$HL@ DB '%'
	DB	's(%d) : MoverID=%d AI ', 0b4H, 0d9H, 0c0H, 0bdH, 0bfH, 0a1H, ' '
	DB	'{ ', 0beH, 0f8H, 0c0H, 0bdH, '.', 00H	; `string'
CONST	ENDS
;	COMDAT ??_C@_01LPLHEDKD@d@
CONST	SEGMENT
??_C@_01LPLHEDKD@d@ DB 'd', 00H				; `string'
CONST	ENDS
;	COMDAT ??_C@_04MPEDGKBA@Loot@
CONST	SEGMENT
??_C@_04MPEDGKBA@Loot@ DB 'Loot', 00H			; `string'
CONST	ENDS
;	COMDAT ??_C@_0CM@FCIKAEFM@?$CFs?$CI?$CFd?$CJ?5?3?5MoverID?$DN?$CFd?5MOVE?5?$LM?$LN?E?M?$LK?m@
CONST	SEGMENT
??_C@_0CM@FCIKAEFM@?$CFs?$CI?$CFd?$CJ?5?3?5MoverID?$DN?$CFd?5MOVE?5?$LM?$LN?E?M?$LK?m@ DB '%'
	DB	's(%d) : MoverID=%d MOVE ', 0bcH, 0bdH, 0c5H, 0cdH, 0baH, 0edH
	DB	0b7H, 0b0H, ' { ', 0baH, 0fcH, 0c1H, 0b3H, 0c0H, 0bdH, '.', 00H ; `string'
CONST	ENDS
;	COMDAT ??_C@_0DG@EGDLGKJJ@Berserk?$LI?m?$LH?I?$MA?G?5?$LF?$KF?$LJ?L?A?v?$LJ?h?$LM?v?$MA?G?5?$LJ?$PM?$MA?$KH@
CONST	SEGMENT
??_C@_0DG@EGDLGKJJ@Berserk?$LI?m?$LH?I?$MA?G?5?$LF?$KF?$LJ?L?A?v?$LJ?h?$LM?v?$MA?G?5?$LJ?$PM?$MA?$KH@ DB 'B'
	DB	'erserk', 0b8H, 0edH, 0b7H, 0c9H, 0c0H, 0c7H, ' ', 0b5H, 0a5H, 0b9H
	DB	0ccH, 0c1H, 0f6H, 0b9H, 0e8H, 0bcH, 0f6H, 0c0H, 0c7H, ' ', 0b9H
	DB	0fcH, 0c0H, 0a7H, 0b0H, 0a1H, ' ', 0c0H, 0ccH, 0bbH, 0f3H, 0c7H
	DB	0d1H, 0b0H, 0c5H, ' ', 0b0H, 0b0H, 0c0H, 0baH, 0b5H, 0f0H, '? '
	DB	'%f', 00H					; `string'
CONST	ENDS
;	COMDAT ??_C@_0CH@ICOKIFCB@?A?v?A?$KE?$LF?H?5?$LI?s?$LN?$LK?E?M?5?$LO?F?$MA?L?$LF?p?$LA?$KB?5?G?A?$LH?N?F?$NL?F?$LM@
CONST	SEGMENT
??_C@_0CH@ICOKIFCB@?A?v?A?$KE?$LF?H?5?$LI?s?$LN?$LK?E?M?5?$LO?F?$MA?L?$LF?p?$LA?$KB?5?G?A?$LH?N?F?$NL?F?$LM@ DB 0c1H
	DB	0f6H, 0c1H, 0a4H, 0b5H, 0c8H, ' ', 0b8H, 0f3H, 0bdH, 0baH, 0c5H
	DB	0cdH, ' ', 0beH, 0c6H, 0c0H, 0ccH, 0b5H, 0f0H, 0b0H, 0a1H, ' ', 0c7H
	DB	0c1H, 0b7H, 0ceH, 0c6H, 0dbH, 0c6H, 0bcH, 0bfH, 0a1H, ' ', 0beH
	DB	0f8H, 0c0H, 0bdH, 00H			; `string'
CONST	ENDS
;	COMDAT ??_C@_0DC@EACAAEFB@?$CFs?$CI?$CFd?$CJ?5?3?5MoverID?$DN?$CFd?5?A?v?A?$KE?$LF?G?A?v?5?$LO?J@
CONST	SEGMENT
??_C@_0DC@EACAAEFB@?$CFs?$CI?$CFd?$CJ?5?3?5MoverID?$DN?$CFd?5?A?v?A?$KE?$LF?G?A?v?5?$LO?J@ DB '%'
	DB	's(%d) : MoverID=%d ', 0c1H, 0f6H, 0c1H, 0a4H, 0b5H, 0c7H, 0c1H
	DB	0f6H, ' ', 0beH, 0caH, 0c0H, 0baH, ' ', 0b5H, 0f0H, 0c6H, 0c4H
	DB	0c0H, 0ceH, ' error %s', 00H			; `string'
CONST	ENDS
;	COMDAT ??_C@_0BK@IFOEIIPC@?$CFs?$CI?$CFd?$CJ?5?3?5MoverID?$DN?$CFd?5?$CFs?5?$CFs@
CONST	SEGMENT
??_C@_0BK@IFOEIIPC@?$CFs?$CI?$CFd?$CJ?5?3?5MoverID?$DN?$CFd?5?$CFs?5?$CFs@ DB '%'
	DB	's(%d) : MoverID=%d %s %s', 00H		; `string'
CONST	ENDS
;	COMDAT ??_C@_0BP@IMGBJKKL@?$LM?R?H?$KP?G?R?$LM?v?5?$MA?V?$LE?B?5?$LA?$LD?$LM?v?$LA?$KB?5?$LD?J?$LJ?$KL?5?$LI?$LJ?$LE?Y@
CONST	SEGMENT
??_C@_0BP@IMGBJKKL@?$LM?R?H?$KP?G?R?$LM?v?5?$MA?V?$LE?B?5?$LA?$LD?$LM?v?$LA?$KB?5?$LD?J?$LJ?$KL?5?$LI?$LJ?$LE?Y@ DB 0bcH
	DB	0d2H, 0c8H, 0afH, 0c7H, 0d2H, 0bcH, 0f6H, ' ', 0c0H, 0d6H, 0b4H
	DB	0c2H, ' ', 0b0H, 0b3H, 0bcH, 0f6H, 0b0H, 0a1H, ' ', 0b3H, 0caH
	DB	0b9H, 0abH, ' ', 0b8H, 0b9H, 0b4H, 0d9H, 00H	; `string'
CONST	ENDS
;	COMDAT ??_C@_0N@MDBDBIOA@Randomtarget@
CONST	SEGMENT
??_C@_0N@MDBDBIOA@Randomtarget@ DB 'Randomtarget', 00H	; `string'
CONST	ENDS
;	COMDAT ??_C@_07NPHLJPC@Berserk@
CONST	SEGMENT
??_C@_07NPHLJPC@Berserk@ DB 'Berserk', 00H		; `string'
CONST	ENDS
;	COMDAT ??_C@_03DOHHJLGM@sam@
CONST	SEGMENT
??_C@_03DOHHJLGM@sam@ DB 'sam', 00H			; `string'
CONST	ENDS
;	COMDAT ??_C@_03NFKEKGGK@all@
CONST	SEGMENT
??_C@_03NFKEKGGK@all@ DB 'all', 00H			; `string'
CONST	ENDS
;	COMDAT ??_C@_06CJKGKNBJ@Helper@
CONST	SEGMENT
??_C@_06CJKGKNBJ@Helper@ DB 'Helper', 00H		; `string'
CONST	ENDS
;	COMDAT ??_C@_05LDPELMJE@Evade@
CONST	SEGMENT
??_C@_05LDPELMJE@Evade@ DB 'Evade', 00H			; `string'
CONST	ENDS
;	COMDAT ??_C@_06DLFKBJMP@Summon@
CONST	SEGMENT
??_C@_06DLFKBJMP@Summon@ DB 'Summon', 00H		; `string'
CONST	ENDS
;	COMDAT ??_C@_0BA@LLHANEDJ@KeepRangeAttack@
CONST	SEGMENT
??_C@_0BA@LLHANEDJ@KeepRangeAttack@ DB 'KeepRangeAttack', 00H ; `string'
CONST	ENDS
;	COMDAT ??_C@_0M@JLIIOCOM@RangeAttack@
CONST	SEGMENT
??_C@_0M@JLIIOCOM@RangeAttack@ DB 'RangeAttack', 00H	; `string'
CONST	ENDS
;	COMDAT ??_C@_01GOHFPIOK@m@
CONST	SEGMENT
??_C@_01GOHFPIOK@m@ DB 'm', 00H				; `string'
CONST	ENDS
;	COMDAT ??_C@_01OMGOGALD@u@
CONST	SEGMENT
??_C@_01OMGOGALD@u@ DB 'u', 00H				; `string'
CONST	ENDS
;	COMDAT ??_C@_08ENEHKLFG@Recovery@
CONST	SEGMENT
??_C@_08ENEHKLFG@Recovery@ DB 'Recovery', 00H		; `string'
CONST	ENDS
;	COMDAT ??_C@_02MKAICKHL@Hi@
CONST	SEGMENT
??_C@_02MKAICKHL@Hi@ DB 'Hi', 00H			; `string'
CONST	ENDS
;	COMDAT ??_C@_03JOEFDEFC@Sam@
CONST	SEGMENT
??_C@_03JOEFDEFC@Sam@ DB 'Sam', 00H			; `string'
CONST	ENDS
;	COMDAT ??_C@_03IMLOALHE@low@
CONST	SEGMENT
??_C@_03IMLOALHE@low@ DB 'low', 00H			; `string'
CONST	ENDS
;	COMDAT ??_C@_07EAMOHMIH@cunning@
CONST	SEGMENT
??_C@_07EAMOHMIH@cunning@ DB 'cunning', 00H		; `string'
CONST	ENDS
;	COMDAT ??_C@_06FDAMAAOH@Attack@
CONST	SEGMENT
??_C@_06FDAMAAOH@Attack@ DB 'Attack', 00H		; `string'
CONST	ENDS
;	COMDAT ??_C@_0CO@POCBHHIE@?$CFs?$CI?$CFd?$CJ?5?3?5MoverID?$DN?$CFd?5BATTLE?5?$LM?$LN?E?M@
CONST	SEGMENT
??_C@_0CO@POCBHHIE@?$CFs?$CI?$CFd?$CJ?5?3?5MoverID?$DN?$CFd?5BATTLE?5?$LM?$LN?E?M@ DB '%'
	DB	's(%d) : MoverID=%d BATTLE ', 0bcH, 0bdH, 0c5H, 0cdH, 0baH, 0edH
	DB	0b7H, 0b0H, ' { ', 0baH, 0fcH, 0c1H, 0b3H, 0c0H, 0bdH, '.', 00H ; `string'
CONST	ENDS
;	COMDAT ??_C@_04BMFHCNCO@scan@
CONST	SEGMENT
??_C@_04BMFHCNCO@scan@ DB 'scan', 00H			; `string'
CONST	ENDS
;	COMDAT ??_C@_0CE@DOIGNPAP@?$CFs?$CI?$CFd?$CJ?5?3?5MoverID?$DN?$CFd?5syntax?5erro@
CONST	SEGMENT
??_C@_0CE@DOIGNPAP@?$CFs?$CI?$CFd?$CJ?5?3?5MoverID?$DN?$CFd?5syntax?5erro@ DB '%'
	DB	's(%d) : MoverID=%d syntax error %s', 00H	; `string'
CONST	ENDS
;	COMDAT ??_C@_04LCKNAMOM@chao@
CONST	SEGMENT
??_C@_04LCKNAMOM@chao@ DB 'chao', 00H			; `string'
CONST	ENDS
;	COMDAT ??_C@_04NHONDGDE@item@
CONST	SEGMENT
??_C@_04NHONDGDE@item@ DB 'item', 00H			; `string'
CONST	ENDS
;	COMDAT ??_C@_05KOGNICEN@quest@
CONST	SEGMENT
??_C@_05KOGNICEN@quest@ DB 'quest', 00H			; `string'
CONST	ENDS
;	COMDAT ??_C@_05CCGOGOBM@range@
CONST	SEGMENT
??_C@_05CCGOGOBM@range@ DB 'range', 00H			; `string'
CONST	ENDS
;	COMDAT ??_C@_03JOGALCLM@job@
CONST	SEGMENT
??_C@_03JOGALCLM@job@ DB 'job', 00H			; `string'
CONST	ENDS
;	COMDAT ??_C@_0CM@NNPGAIKO@?$CFs?$CI?$CFd?$CJ?5?3?5MoverID?$DN?$CFd?5SCAN?5?$LM?$LN?E?M?$LK?m@
CONST	SEGMENT
??_C@_0CM@NNPGAIKO@?$CFs?$CI?$CFd?$CJ?5?3?5MoverID?$DN?$CFd?5SCAN?5?$LM?$LN?E?M?$LK?m@ DB '%'
	DB	's(%d) : MoverID=%d SCAN ', 0bcH, 0bdH, 0c5H, 0cdH, 0baH, 0edH
	DB	0b7H, 0b0H, ' { ', 0baH, 0fcH, 0c1H, 0b3H, 0c0H, 0bdH, '.', 00H ; `string'
CONST	ENDS
;	COMDAT ??_C@_0BJ@GKPOBPPI@GetMoverProp?5range_error@
CONST	SEGMENT
??_C@_0BJ@GKPOBPPI@GetMoverProp?5range_error@ DB 'GetMoverProp range_erro'
	DB	'r', 00H					; `string'
CONST	ENDS
;	COMDAT ??_C@_0BM@HMFGHCP@?$CFs?5min?3?$CFd?0?5max?3?$CFd?0?5index?3?$CFd@
CONST	SEGMENT
??_C@_0BM@HMFGHCP@?$CFs?5min?3?$CFd?0?5max?3?$CFd?0?5index?3?$CFd@ DB '%s'
	DB	' min:%d, max:%d, index:%d', 00H		; `string'
CONST	ENDS
;	COMDAT ??_C@_01MCMALHOG@a@
CONST	SEGMENT
??_C@_01MCMALHOG@a@ DB 'a', 00H				; `string'
CONST	ENDS
;	COMDAT xdata$x
xdata$x	SEGMENT
__unwindtable$?LoadPropMoverEx_AI_BATTLE@CProject@@QAEHPBDAAVCScript@@H@Z DD 0ffffffffH
	DD	FLAT:__unwindfunclet$?LoadPropMoverEx_AI_BATTLE@CProject@@QAEHPBDAAVCScript@@H@Z$0
__ehfuncinfo$?LoadPropMoverEx_AI_BATTLE@CProject@@QAEHPBDAAVCScript@@H@Z DD 019930522H
	DD	01H
	DD	FLAT:__unwindtable$?LoadPropMoverEx_AI_BATTLE@CProject@@QAEHPBDAAVCScript@@H@Z
	DD	2 DUP(00H)
	DD	2 DUP(00H)
	DD	00H
	DD	01H
xdata$x	ENDS
;	COMDAT xdata$x
xdata$x	SEGMENT
__unwindtable$?FormatV@?$CStringT@DV?$StrTraitMFC@DV?$ChTraitsCRT@D@ATL@@@@@ATL@@QAEXPBDPAD@Z DD 0ffffffffH
	DD	FLAT:__unwindfunclet$?FormatV@?$CStringT@DV?$StrTraitMFC@DV?$ChTraitsCRT@D@ATL@@@@@ATL@@QAEXPBDPAD@Z$1
	DD	0ffffffffH
	DD	FLAT:__unwindfunclet$?FormatV@?$CStringT@DV?$StrTraitMFC@DV?$ChTraitsCRT@D@ATL@@@@@ATL@@QAEXPBDPAD@Z$0
__ehfuncinfo$?FormatV@?$CStringT@DV?$StrTraitMFC@DV?$ChTraitsCRT@D@ATL@@@@@ATL@@QAEXPBDPAD@Z DD 019930522H
	DD	02H
	DD	FLAT:__unwindtable$?FormatV@?$CStringT@DV?$StrTraitMFC@DV?$ChTraitsCRT@D@ATL@@@@@ATL@@QAEXPBDPAD@Z
	DD	2 DUP(00H)
	DD	2 DUP(00H)
	DD	00H
	DD	01H
xdata$x	ENDS
;	COMDAT xdata$x
xdata$x	SEGMENT
__unwindtable$??0?$CStringT@DV?$StrTraitMFC@DV?$ChTraitsCRT@D@ATL@@@@@ATL@@QAE@PBDPAUIAtlStringMgr@1@@Z DD 0ffffffffH
	DD	FLAT:__unwindfunclet$??0?$CStringT@DV?$StrTraitMFC@DV?$ChTraitsCRT@D@ATL@@@@@ATL@@QAE@PBDPAUIAtlStringMgr@1@@Z$0
__ehfuncinfo$??0?$CStringT@DV?$StrTraitMFC@DV?$ChTraitsCRT@D@ATL@@@@@ATL@@QAE@PBDPAUIAtlStringMgr@1@@Z DD 019930522H
	DD	01H
	DD	FLAT:__unwindtable$??0?$CStringT@DV?$StrTraitMFC@DV?$ChTraitsCRT@D@ATL@@@@@ATL@@QAE@PBDPAUIAtlStringMgr@1@@Z
	DD	2 DUP(00H)
	DD	2 DUP(00H)
	DD	00H
	DD	01H
xdata$x	ENDS
; Function compile flags: /Ogtp
; File C:\IAGOS\server\v18\Source\Source\_Common\ProjectLux.cpp
;	COMDAT ?LoadPropMoverEx_AI@CProject@@QAEHPBDAAVCScript@@H@Z
_TEXT	SEGMENT
_this$1$ = -4						; size = 4
_szFileName$ = 8					; size = 4
_script$ = 12						; size = 4
_nVal$ = 16						; size = 4
?LoadPropMoverEx_AI@CProject@@QAEHPBDAAVCScript@@H@Z PROC ; CProject::LoadPropMoverEx_AI, COMDAT
; _this$ = ecx

; 417  : {

  00000	55		 push	 ebp
  00001	8b ec		 mov	 ebp, esp
  00003	51		 push	 ecx
  00004	56		 push	 esi

; 418  : 	script.GetToken();		// {

  00005	8b 75 0c	 mov	 esi, DWORD PTR _script$[ebp]
  00008	89 4d fc	 mov	 DWORD PTR _this$1$[ebp], ecx
  0000b	8b ce		 mov	 ecx, esi
  0000d	6a 00		 push	 0
  0000f	8b 06		 mov	 eax, DWORD PTR [esi]
  00011	ff 50 14	 call	 DWORD PTR [eax+20]

; 419  : 
; 420  : 	if( script.token[0] != '{' )

  00014	8b 46 3c	 mov	 eax, DWORD PTR [esi+60]
  00017	8b ce		 mov	 ecx, esi
  00019	8b 16		 mov	 edx, DWORD PTR [esi]
  0001b	80 38 7b	 cmp	 BYTE PTR [eax], 123	; 0000007bH
  0001e	74 22		 je	 SHORT $LN18@LoadPropMo

; 421  : 	{
; 422  : 		Error( "%s(%d) : MoverID=%d AI 다음에 { 없음.", szFileName, script.GetLineNum(), nVal );

  00020	ff 75 10	 push	 DWORD PTR _nVal$[ebp]
  00023	6a 00		 push	 0
  00025	ff 52 1c	 call	 DWORD PTR [edx+28]
  00028	50		 push	 eax
  00029	ff 75 08	 push	 DWORD PTR _szFileName$[ebp]
  0002c	68 00 00 00 00	 push	 OFFSET ??_C@_0CG@JGKNAMHK@?$CFs?$CI?$CFd?$CJ?5?3?5MoverID?$DN?$CFd?5AI?5?$LE?Y?$MA?$LN?$LP?$KB?5?$HL@
  00031	e8 00 00 00 00	 call	 ?Error@@YAPBDPBDZZ	; Error
  00036	83 c4 10	 add	 esp, 16			; 00000010H

; 423  : 		return FALSE;

  00039	33 c0		 xor	 eax, eax
  0003b	5e		 pop	 esi

; 465  : }

  0003c	8b e5		 mov	 esp, ebp
  0003e	5d		 pop	 ebp
  0003f	c2 0c 00	 ret	 12			; 0000000cH
$LN18@LoadPropMo:
  00042	53		 push	 ebx
  00043	57		 push	 edi

; 424  : 	}
; 425  : 
; 426  : 	while(1)
; 427  : 	{
; 428  : 		script.GetToken();

  00044	6a 00		 push	 0
  00046	ff 52 14	 call	 DWORD PTR [edx+20]

; 429  : 
; 430  : 		if( script.token[0] == '}' )		// 블럭 끝날때까지 읽음.

  00049	8b 46 3c	 mov	 eax, DWORD PTR [esi+60]
  0004c	8a 00		 mov	 al, BYTE PTR [eax]
  0004e	3c 7d		 cmp	 al, 125			; 0000007dH
  00050	0f 84 d0 00 00
	00		 je	 $LN19@LoadPropMo

; 431  : 			break;
; 432  : 
; 433  : 		// 섹터 블럭 시작.
; 434  : 		if( script.token[0] == '#' )		// #???? 블럭 나와야 함.  #SCAN으로 한꺼번에 읽힌다.

  00056	8b 7d 10	 mov	 edi, DWORD PTR _nVal$[ebp]
  00059	8b 5d 08	 mov	 ebx, DWORD PTR _szFileName$[ebp]
  0005c	3c 23		 cmp	 al, 35			; 00000023H
  0005e	75 7b		 jne	 SHORT $LN6@LoadPropMo
$LL2@LoadPropMo:

; 435  : 		{
; 436  : //			script.GetToken();	// SCAN/BATTLE/MOVING
; 437  : 			if( strcmpi( script.Token, "#SCAN" ) == 0 )	// 

  00060	68 00 00 00 00	 push	 OFFSET ??_C@_05CGLFOOHA@?$CDSCAN@
  00065	ff 76 20	 push	 DWORD PTR [esi+32]
  00068	e8 00 00 00 00	 call	 _strcmpi
  0006d	83 c4 08	 add	 esp, 8
  00070	85 c0		 test	 eax, eax
  00072	75 0d		 jne	 SHORT $LN8@LoadPropMo

; 438  : 			{
; 439  : 				if( LoadPropMoverEx_AI_SCAN( szFileName, script, nVal ) == FALSE )

  00074	8b 4d fc	 mov	 ecx, DWORD PTR _this$1$[ebp]
  00077	57		 push	 edi
  00078	56		 push	 esi
  00079	53		 push	 ebx
  0007a	e8 00 00 00 00	 call	 ?LoadPropMoverEx_AI_SCAN@CProject@@QAEHPBDAAVCScript@@H@Z ; CProject::LoadPropMoverEx_AI_SCAN

; 440  : 					return FALSE;
; 441  : 			} else

  0007f	eb 40		 jmp	 SHORT $LN37@LoadPropMo
$LN8@LoadPropMo:

; 442  : 			if( strcmpi( script.Token, "#BATTLE" ) == 0 )	

  00081	68 00 00 00 00	 push	 OFFSET ??_C@_07IHMGMGKA@?$CDBATTLE@
  00086	ff 76 20	 push	 DWORD PTR [esi+32]
  00089	e8 00 00 00 00	 call	 _strcmpi
  0008e	83 c4 08	 add	 esp, 8
  00091	85 c0		 test	 eax, eax
  00093	75 0d		 jne	 SHORT $LN11@LoadPropMo

; 443  : 			{
; 444  : 				if( LoadPropMoverEx_AI_BATTLE( szFileName, script, nVal ) == FALSE )

  00095	8b 4d fc	 mov	 ecx, DWORD PTR _this$1$[ebp]
  00098	57		 push	 edi
  00099	56		 push	 esi
  0009a	53		 push	 ebx
  0009b	e8 00 00 00 00	 call	 ?LoadPropMoverEx_AI_BATTLE@CProject@@QAEHPBDAAVCScript@@H@Z ; CProject::LoadPropMoverEx_AI_BATTLE

; 445  : 					return FALSE;
; 446  : 			} else

  000a0	eb 1f		 jmp	 SHORT $LN37@LoadPropMo
$LN11@LoadPropMo:

; 447  : 			if( strcmpi( script.Token, "#MOVE" ) == 0 )	

  000a2	68 00 00 00 00	 push	 OFFSET ??_C@_05EJCOBEBF@?$CDMOVE@
  000a7	ff 76 20	 push	 DWORD PTR [esi+32]
  000aa	e8 00 00 00 00	 call	 _strcmpi
  000af	83 c4 08	 add	 esp, 8
  000b2	85 c0		 test	 eax, eax
  000b4	75 49		 jne	 SHORT $LN14@LoadPropMo

; 448  : 			{
; 449  : 				if( LoadPropMoverEx_AI_MOVE( szFileName, script, nVal ) == FALSE )

  000b6	8b 4d fc	 mov	 ecx, DWORD PTR _this$1$[ebp]
  000b9	57		 push	 edi
  000ba	56		 push	 esi
  000bb	53		 push	 ebx
  000bc	e8 00 00 00 00	 call	 ?LoadPropMoverEx_AI_MOVE@CProject@@QAEHPBDAAVCScript@@H@Z ; CProject::LoadPropMoverEx_AI_MOVE
$LN37@LoadPropMo:

; 424  : 	}
; 425  : 
; 426  : 	while(1)
; 427  : 	{
; 428  : 		script.GetToken();

  000c1	85 c0		 test	 eax, eax
  000c3	74 2f		 je	 SHORT $LN22@LoadPropMo
  000c5	8b 06		 mov	 eax, DWORD PTR [esi]
  000c7	8b ce		 mov	 ecx, esi
  000c9	6a 00		 push	 0
  000cb	ff 50 14	 call	 DWORD PTR [eax+20]

; 429  : 
; 430  : 		if( script.token[0] == '}' )		// 블럭 끝날때까지 읽음.

  000ce	8b 46 3c	 mov	 eax, DWORD PTR [esi+60]
  000d1	8a 00		 mov	 al, BYTE PTR [eax]
  000d3	3c 7d		 cmp	 al, 125			; 0000007dH
  000d5	74 4f		 je	 SHORT $LN19@LoadPropMo

; 431  : 			break;
; 432  : 
; 433  : 		// 섹터 블럭 시작.
; 434  : 		if( script.token[0] == '#' )		// #???? 블럭 나와야 함.  #SCAN으로 한꺼번에 읽힌다.

  000d7	3c 23		 cmp	 al, 35			; 00000023H
  000d9	74 85		 je	 SHORT $LL2@LoadPropMo
$LN6@LoadPropMo:

; 455  : 			}
; 456  : 		} else
; 457  : 		{
; 458  : 			// 섹터블럭이 없음.
; 459  : 			Error( "%s(%d) : MoverID=%d 섹터블럭(<)이 없음.", szFileName, script.GetLineNum(), nVal );

  000db	8b 06		 mov	 eax, DWORD PTR [esi]
  000dd	8b ce		 mov	 ecx, esi
  000df	57		 push	 edi
  000e0	6a 00		 push	 0
  000e2	ff 50 1c	 call	 DWORD PTR [eax+28]
  000e5	50		 push	 eax
  000e6	53		 push	 ebx
  000e7	68 00 00 00 00	 push	 OFFSET ??_C@_0CI@FPILLNG@?$CFs?$CI?$CFd?$CJ?5?3?5MoverID?$DN?$CFd?5?$LM?$LN?E?M?$LK?m?$LH?$LA?$CI?$DM?$CJ@
  000ec	e8 00 00 00 00	 call	 ?Error@@YAPBDPBDZZ	; Error
  000f1	83 c4 10	 add	 esp, 16			; 00000010H
$LN22@LoadPropMo:

; 460  : 			return FALSE;

  000f4	5f		 pop	 edi
  000f5	5b		 pop	 ebx
  000f6	33 c0		 xor	 eax, eax
  000f8	5e		 pop	 esi

; 465  : }

  000f9	8b e5		 mov	 esp, ebp
  000fb	5d		 pop	 ebp
  000fc	c2 0c 00	 ret	 12			; 0000000cH
$LN14@LoadPropMo:

; 450  : 					return FALSE;
; 451  : 			} else
; 452  : 			{
; 453  : 				Error( "%s(%d) : MoverID=%d 섹터블럭이름이 이상함(%s) ", szFileName, script.GetLineNum(), nVal, script.Token );

  000ff	ff 76 20	 push	 DWORD PTR [esi+32]
  00102	8b 06		 mov	 eax, DWORD PTR [esi]
  00104	8b ce		 mov	 ecx, esi
  00106	57		 push	 edi
  00107	6a 00		 push	 0
  00109	ff 50 1c	 call	 DWORD PTR [eax+28]
  0010c	50		 push	 eax
  0010d	53		 push	 ebx
  0010e	68 00 00 00 00	 push	 OFFSET ??_C@_0CP@OOJHDEOA@?$CFs?$CI?$CFd?$CJ?5?3?5MoverID?$DN?$CFd?5?$LM?$LN?E?M?$LK?m?$LH?$LA?$MA?L?$LI@
  00113	e8 00 00 00 00	 call	 ?Error@@YAPBDPBDZZ	; Error
  00118	83 c4 14	 add	 esp, 20			; 00000014H

; 454  : 				return FALSE;

  0011b	33 c0		 xor	 eax, eax
  0011d	5f		 pop	 edi
  0011e	5b		 pop	 ebx
  0011f	5e		 pop	 esi

; 465  : }

  00120	8b e5		 mov	 esp, ebp
  00122	5d		 pop	 ebp
  00123	c2 0c 00	 ret	 12			; 0000000cH
$LN19@LoadPropMo:
  00126	5f		 pop	 edi
  00127	5b		 pop	 ebx

; 461  : 		}
; 462  : 	}
; 463  : 
; 464  : 	return TRUE;

  00128	b8 01 00 00 00	 mov	 eax, 1
  0012d	5e		 pop	 esi

; 465  : }

  0012e	8b e5		 mov	 esp, ebp
  00130	5d		 pop	 ebp
  00131	c2 0c 00	 ret	 12			; 0000000cH
?LoadPropMoverEx_AI@CProject@@QAEHPBDAAVCScript@@H@Z ENDP ; CProject::LoadPropMoverEx_AI
_TEXT	ENDS
; Function compile flags: /Ogtp
; File C:\IAGOS\server\v18\Source\Source\_Common\ProjectLux.cpp
; File C:\IAGOS\server\v18\Source\Source\_Common\Project.h
; File C:\IAGOS\server\v18\Source\Source\_Common\ProjectLux.cpp
;	COMDAT ?LoadPropMoverEx_AI_MOVE@CProject@@QAEHPBDAAVCScript@@H@Z
_TEXT	SEGMENT
_this$1$ = -4						; size = 4
_szFileName$ = 8					; size = 4
_script$ = 12						; size = 4
_nVal$ = 16						; size = 4
?LoadPropMoverEx_AI_MOVE@CProject@@QAEHPBDAAVCScript@@H@Z PROC ; CProject::LoadPropMoverEx_AI_MOVE, COMDAT
; _this$ = ecx

; 358  : {

  00000	55		 push	 ebp
  00001	8b ec		 mov	 ebp, esp
  00003	51		 push	 ecx
  00004	53		 push	 ebx
  00005	56		 push	 esi

; 359  : 	AICMD nCommand = AICMD_NONE;
; 360  : 	
; 361  : 	script.GetToken();	// {

  00006	8b 75 0c	 mov	 esi, DWORD PTR _script$[ebp]
  00009	8b d9		 mov	 ebx, ecx
  0000b	57		 push	 edi
  0000c	33 ff		 xor	 edi, edi
  0000e	89 5d fc	 mov	 DWORD PTR _this$1$[ebp], ebx
  00011	57		 push	 edi
  00012	8b 06		 mov	 eax, DWORD PTR [esi]
  00014	8b ce		 mov	 ecx, esi
  00016	ff 50 14	 call	 DWORD PTR [eax+20]

; 362  : 	if( script.token[0] != '{' )	// #MOVE 후에 {가 빠졌는가.

  00019	8b 46 3c	 mov	 eax, DWORD PTR [esi+60]
  0001c	80 38 7b	 cmp	 BYTE PTR [eax], 123	; 0000007bH
  0001f	74 27		 je	 SHORT $LN21@LoadPropMo

; 363  : 	{
; 364  : 		Error( "%s(%d) : MoverID=%d MOVE 섹터블럭 { 빠졌음.", szFileName, script.GetLineNum(), nVal );

  00021	ff 75 10	 push	 DWORD PTR _nVal$[ebp]
  00024	8b 06		 mov	 eax, DWORD PTR [esi]
  00026	8b ce		 mov	 ecx, esi
  00028	57		 push	 edi
  00029	ff 50 1c	 call	 DWORD PTR [eax+28]
  0002c	50		 push	 eax
  0002d	ff 75 08	 push	 DWORD PTR _szFileName$[ebp]
  00030	68 00 00 00 00	 push	 OFFSET ??_C@_0CM@FCIKAEFM@?$CFs?$CI?$CFd?$CJ?5?3?5MoverID?$DN?$CFd?5MOVE?5?$LM?$LN?E?M?$LK?m@
  00035	e8 00 00 00 00	 call	 ?Error@@YAPBDPBDZZ	; Error
  0003a	83 c4 10	 add	 esp, 16			; 00000010H

; 365  : 		return FALSE;

  0003d	33 c0		 xor	 eax, eax
  0003f	5f		 pop	 edi

; 407  : 			}
; 408  : 		}
; 409  : 	}
; 410  : 	
; 411  : 	return TRUE;
; 412  : }

  00040	5e		 pop	 esi
  00041	5b		 pop	 ebx
  00042	8b e5		 mov	 esp, ebp
  00044	5d		 pop	 ebp
  00045	c2 0c 00	 ret	 12			; 0000000cH
$LN21@LoadPropMo:
; File C:\IAGOS\server\v18\Source\Source\_Common\Project.h

; 1406 : 	VERIFY_RANGE( nIndex, 0, m_nMoverPropSize, "GetMoverProp range_error", NULL );

  00048	8b 4d 10	 mov	 ecx, DWORD PTR _nVal$[ebp]
  0004b	85 c9		 test	 ecx, ecx
  0004d	78 19		 js	 SHORT $LN34@LoadPropMo
  0004f	3b 8b b4 01 00
	00		 cmp	 ecx, DWORD PTR [ebx+436]
  00055	7d 11		 jge	 SHORT $LN34@LoadPropMo

; 1407 : 	return m_pPropMover + nIndex;

  00057	8b 45 fc	 mov	 eax, DWORD PTR _this$1$[ebp]
  0005a	69 d9 90 06 00
	00		 imul	 ebx, ecx, 1680
  00060	03 98 b8 01 00
	00		 add	 ebx, DWORD PTR [eax+440]
  00066	eb 1d		 jmp	 SHORT $LN18@LoadPropMo
$LN34@LoadPropMo:

; 579  : 	LPCTSTR szErr = Error( _T( "%s min:%d, max:%d, index:%d" ), szMsg, nMin, nMax, nIndex ); 

  00068	51		 push	 ecx
  00069	ff b3 b4 01 00
	00		 push	 DWORD PTR [ebx+436]
  0006f	6a 00		 push	 0
  00071	68 00 00 00 00	 push	 OFFSET ??_C@_0BJ@GKPOBPPI@GetMoverProp?5range_error@
  00076	68 00 00 00 00	 push	 OFFSET ??_C@_0BM@HMFGHCP@?$CFs?5min?3?$CFd?0?5max?3?$CFd?0?5index?3?$CFd@
  0007b	e8 00 00 00 00	 call	 ?Error@@YAPBDPBDZZ	; Error
  00080	83 c4 14	 add	 esp, 20			; 00000014H

; 1406 : 	VERIFY_RANGE( nIndex, 0, m_nMoverPropSize, "GetMoverProp range_error", NULL );

  00083	33 db		 xor	 ebx, ebx
$LN18@LoadPropMo:
; File C:\IAGOS\server\v18\Source\Source\_Common\ProjectLux.cpp

; 372  : 		script.GetToken();		// 토큰 하나 읽음,.

  00085	8b 06		 mov	 eax, DWORD PTR [esi]
  00087	8b ce		 mov	 ecx, esi
  00089	6a 00		 push	 0
  0008b	ff 50 14	 call	 DWORD PTR [eax+20]

; 373  : 		if( script.token[0] == '}' )	// MOVE블럭 끝.

  0008e	8b 46 3c	 mov	 eax, DWORD PTR [esi+60]
  00091	80 38 7d	 cmp	 BYTE PTR [eax], 125	; 0000007dH
  00094	74 7e		 je	 SHORT $LN29@LoadPropMo
  00096	8b d0		 mov	 edx, eax
  00098	0f 1f 84 00 00
	00 00 00	 npad	 8
$LL2@LoadPropMo:

; 374  : 			break;
; 375  : 
; 376  : 		if( script.tokenType == IDENTIFIER )		// 토큰이 식별자.

  000a0	8b 8e 40 08 00
	00		 mov	 ecx, DWORD PTR [esi+2112]
  000a6	83 f9 02	 cmp	 ecx, 2
  000a9	75 39		 jne	 SHORT $LN6@LoadPropMo

; 377  : 		{
; 378  : 			if( strcmpi( script.token, "Loot" ) == 0 )		// 루팅. 아이템 줏어먹기.

  000ab	68 00 00 00 00	 push	 OFFSET ??_C@_04MPEDGKBA@Loot@
  000b0	50		 push	 eax
  000b1	e8 00 00 00 00	 call	 _strcmpi
  000b6	83 c4 08	 add	 esp, 8
  000b9	85 c0		 test	 eax, eax
  000bb	75 0b		 jne	 SHORT $LN8@LoadPropMo

; 379  : 			{
; 380  : 				nCommand = AICMD_LOOT;

  000bd	8d 78 0d	 lea	 edi, DWORD PTR [eax+13]

; 391  : 				return FALSE;
; 392  : 			}
; 393  : 		} else

  000c0	89 83 3c 02 00
	00		 mov	 DWORD PTR [ebx+572], eax
  000c6	eb 39		 jmp	 SHORT $LN15@LoadPropMo
$LN8@LoadPropMo:

; 381  : //				pProp->m_nLoot = 1;		// 康: 임시로 막음
; 382  : 				pProp->m_nLoot	= 0;
; 383  : 			} else
; 384  : 			if( strcmpi( script.token, "d" ) == 0 )		// Loot명령 옵션

  000c8	68 00 00 00 00	 push	 OFFSET ??_C@_01LPLHEDKD@d@
  000cd	ff 76 3c	 push	 DWORD PTR [esi+60]
  000d0	e8 00 00 00 00	 call	 _strcmpi
  000d5	83 c4 08	 add	 esp, 8
  000d8	85 c0		 test	 eax, eax
  000da	75 46		 jne	 SHORT $LN10@LoadPropMo

; 391  : 				return FALSE;
; 392  : 			}
; 393  : 		} else

  000dc	89 83 3c 02 00
	00		 mov	 DWORD PTR [ebx+572], eax
  000e2	eb 1d		 jmp	 SHORT $LN15@LoadPropMo
$LN6@LoadPropMo:

; 394  : 		/////////// 토큰이 숫자.
; 395  : 		if( script.tokenType == NUMBER )

  000e4	83 f9 03	 cmp	 ecx, 3
  000e7	75 18		 jne	 SHORT $LN15@LoadPropMo

; 396  : 		{
; 397  : 			if( nCommand == 0 )		// 아무 명령없이 숫자가 나왔다.

  000e9	85 ff		 test	 edi, edi
  000eb	74 60		 je	 SHORT $LN30@LoadPropMo

; 401  : 			}
; 402  : 			else if( nCommand == AICMD_LOOT )

  000ed	83 ff 0d	 cmp	 edi, 13			; 0000000dH
  000f0	75 0f		 jne	 SHORT $LN15@LoadPropMo

; 403  : 			{
; 404  : 				if( script.tokenType != NUMBER )
; 405  : 					UNIDENTIFY_ERROR;
; 406  : 				pProp->m_nLootProb = atoi( script.token );

  000f2	52		 push	 edx
  000f3	e8 00 00 00 00	 call	 _atoi
  000f8	83 c4 04	 add	 esp, 4
  000fb	89 83 40 02 00
	00		 mov	 DWORD PTR [ebx+576], eax
$LN15@LoadPropMo:

; 372  : 		script.GetToken();		// 토큰 하나 읽음,.

  00101	8b 06		 mov	 eax, DWORD PTR [esi]
  00103	8b ce		 mov	 ecx, esi
  00105	6a 00		 push	 0
  00107	ff 50 14	 call	 DWORD PTR [eax+20]

; 373  : 		if( script.token[0] == '}' )	// MOVE블럭 끝.

  0010a	8b 46 3c	 mov	 eax, DWORD PTR [esi+60]
  0010d	8b d0		 mov	 edx, eax
  0010f	80 38 7d	 cmp	 BYTE PTR [eax], 125	; 0000007dH
  00112	75 8c		 jne	 SHORT $LL2@LoadPropMo
$LN29@LoadPropMo:
  00114	5f		 pop	 edi

; 407  : 			}
; 408  : 		}
; 409  : 	}
; 410  : 	
; 411  : 	return TRUE;
; 412  : }

  00115	5e		 pop	 esi
  00116	b8 01 00 00 00	 mov	 eax, 1
  0011b	5b		 pop	 ebx
  0011c	8b e5		 mov	 esp, ebp
  0011e	5d		 pop	 ebp
  0011f	c2 0c 00	 ret	 12			; 0000000cH
$LN10@LoadPropMo:

; 385  : 			{
; 386  : //				pProp->m_nLoot = 2;		// 2는 d옵션.
; 387  : 				pProp->m_nLoot	= 0;	// 康: 임시로 막음
; 388  : 			} else
; 389  : 			{
; 390  : 				SYNTAX_ERROR;	// 이상한 명령이 들어왔음.

  00122	ff 76 3c	 push	 DWORD PTR [esi+60]
$LN44@LoadPropMo:

; 407  : 			}
; 408  : 		}
; 409  : 	}
; 410  : 	
; 411  : 	return TRUE;
; 412  : }

  00125	ff 75 10	 push	 DWORD PTR _nVal$[ebp]
  00128	8b 06		 mov	 eax, DWORD PTR [esi]
  0012a	8b ce		 mov	 ecx, esi
  0012c	6a 00		 push	 0
  0012e	ff 50 1c	 call	 DWORD PTR [eax+28]
  00131	50		 push	 eax
  00132	ff 75 08	 push	 DWORD PTR _szFileName$[ebp]
  00135	68 00 00 00 00	 push	 OFFSET ??_C@_0CE@DOIGNPAP@?$CFs?$CI?$CFd?$CJ?5?3?5MoverID?$DN?$CFd?5syntax?5erro@
  0013a	e8 00 00 00 00	 call	 ?Error@@YAPBDPBDZZ	; Error
  0013f	83 c4 14	 add	 esp, 20			; 00000014H
  00142	33 c0		 xor	 eax, eax
  00144	5f		 pop	 edi
  00145	5e		 pop	 esi
  00146	5b		 pop	 ebx
  00147	8b e5		 mov	 esp, ebp
  00149	5d		 pop	 ebp
  0014a	c2 0c 00	 ret	 12			; 0000000cH
$LN30@LoadPropMo:

; 398  : 			{
; 399  : 				SYNTAX_ERROR;

  0014d	50		 push	 eax

; 400  : 				return FALSE;

  0014e	eb d5		 jmp	 SHORT $LN44@LoadPropMo
?LoadPropMoverEx_AI_MOVE@CProject@@QAEHPBDAAVCScript@@H@Z ENDP ; CProject::LoadPropMoverEx_AI_MOVE
_TEXT	ENDS
; Function compile flags: /Ogtp
; File C:\IAGOS\server\v18\Source\Source\_Common\ProjectLux.cpp
; File C:\IAGOS\server\v18\Source\Source\_Common\Project.h
; File C:\IAGOS\server\v18\Source\Source\_Common\ProjectLux.cpp
; File C:\IAGOS\server\v18\Source\Source\_Common\Project.h
; File C:\IAGOS\server\v18\Source\Source\_Common\ProjectLux.cpp
; File C:\IAGOS\server\v18\Source\Source\_Common\Project.h
; File C:\IAGOS\server\v18\Source\Source\_Common\ProjectLux.cpp
; File C:\Program Files\Microsoft Visual Studio\2022\Professional\VC\Tools\MSVC\14.44.35207\atlmfc\include\afxstr.h
; File C:\Program Files\Microsoft Visual Studio\2022\Professional\VC\Tools\MSVC\14.44.35207\atlmfc\include\atlsimpstr.h
; File C:\IAGOS\server\v18\Source\Source\_Common\ProjectLux.cpp
; File C:\Program Files\Microsoft Visual Studio\2022\Professional\VC\Tools\MSVC\14.44.35207\atlmfc\include\atlsimpstr.h
; File C:\IAGOS\server\v18\Source\Source\_Common\ProjectLux.cpp
; File C:\Program Files\Microsoft Visual Studio\2022\Professional\VC\Tools\MSVC\14.44.35207\atlmfc\include\atlsimpstr.h
; File C:\IAGOS\server\v18\Source\Source\_Common\ProjectLux.cpp
;	COMDAT ?LoadPropMoverEx_AI_BATTLE@CProject@@QAEHPBDAAVCScript@@H@Z
_TEXT	SEGMENT
_str$2 = -24						; size = 4
tv705 = -24						; size = 4
_this$1$ = -20						; size = 4
_nCommand$1$ = -16					; size = 4
__$EHRec$ = -12						; size = 12
_szFileName$ = 8					; size = 4
_script$ = 12						; size = 4
$T3 = 12						; size = 4
_nVal$ = 16						; size = 4
?LoadPropMoverEx_AI_BATTLE@CProject@@QAEHPBDAAVCScript@@H@Z PROC ; CProject::LoadPropMoverEx_AI_BATTLE, COMDAT
; _this$ = ecx

; 105  : {

  00000	55		 push	 ebp
  00001	8b ec		 mov	 ebp, esp
  00003	6a ff		 push	 -1
  00005	68 00 00 00 00	 push	 __ehhandler$?LoadPropMoverEx_AI_BATTLE@CProject@@QAEHPBDAAVCScript@@H@Z
  0000a	64 a1 00 00 00
	00		 mov	 eax, DWORD PTR fs:0
  00010	50		 push	 eax
  00011	83 ec 0c	 sub	 esp, 12			; 0000000cH
  00014	53		 push	 ebx
  00015	56		 push	 esi
  00016	57		 push	 edi
  00017	a1 00 00 00 00	 mov	 eax, DWORD PTR ___security_cookie
  0001c	33 c5		 xor	 eax, ebp
  0001e	50		 push	 eax
  0001f	8d 45 f4	 lea	 eax, DWORD PTR __$EHRec$[ebp]
  00022	64 a3 00 00 00
	00		 mov	 DWORD PTR fs:0, eax
  00028	8b f9		 mov	 edi, ecx
  0002a	89 7d ec	 mov	 DWORD PTR _this$1$[ebp], edi

; 106  : 	AICMD nCommand = AICMD_NONE;
; 107  : 
; 108  : 	script.GetToken();	// {

  0002d	8b 5d 0c	 mov	 ebx, DWORD PTR _script$[ebp]
  00030	33 f6		 xor	 esi, esi
  00032	56		 push	 esi
  00033	8b cb		 mov	 ecx, ebx
  00035	89 75 f0	 mov	 DWORD PTR _nCommand$1$[ebp], esi
  00038	8b 03		 mov	 eax, DWORD PTR [ebx]
  0003a	ff 50 14	 call	 DWORD PTR [eax+20]

; 109  : 	if( script.token[0] != '{' )	// #BATTLE 후에 {가 빠졌는가.

  0003d	8b 43 3c	 mov	 eax, DWORD PTR [ebx+60]
  00040	80 38 7b	 cmp	 BYTE PTR [eax], 123	; 0000007bH
  00043	74 32		 je	 SHORT $LN104@LoadPropMo

; 110  : 	{
; 111  : 		Error( "%s(%d) : MoverID=%d BATTLE 섹터블럭 { 빠졌음.", szFileName, script.GetLineNum(), nVal );

  00045	ff 75 10	 push	 DWORD PTR _nVal$[ebp]
  00048	8b 03		 mov	 eax, DWORD PTR [ebx]
  0004a	8b cb		 mov	 ecx, ebx
  0004c	56		 push	 esi
  0004d	ff 50 1c	 call	 DWORD PTR [eax+28]
  00050	50		 push	 eax
  00051	ff 75 08	 push	 DWORD PTR _szFileName$[ebp]
  00054	68 00 00 00 00	 push	 OFFSET ??_C@_0CO@POCBHHIE@?$CFs?$CI?$CFd?$CJ?5?3?5MoverID?$DN?$CFd?5BATTLE?5?$LM?$LN?E?M@
  00059	e8 00 00 00 00	 call	 ?Error@@YAPBDPBDZZ	; Error
  0005e	83 c4 10	 add	 esp, 16			; 00000010H

; 112  : 		return FALSE;

  00061	33 c0		 xor	 eax, eax

; 354  : }

  00063	8b 4d f4	 mov	 ecx, DWORD PTR __$EHRec$[ebp]
  00066	64 89 0d 00 00
	00 00		 mov	 DWORD PTR fs:0, ecx
  0006d	59		 pop	 ecx
  0006e	5f		 pop	 edi
  0006f	5e		 pop	 esi
  00070	5b		 pop	 ebx
  00071	8b e5		 mov	 esp, ebp
  00073	5d		 pop	 ebp
  00074	c2 0c 00	 ret	 12			; 0000000cH
$LN104@LoadPropMo:
; File C:\IAGOS\server\v18\Source\Source\_Common\Project.h

; 1406 : 	VERIFY_RANGE( nIndex, 0, m_nMoverPropSize, "GetMoverProp range_error", NULL );

  00077	8b 45 10	 mov	 eax, DWORD PTR _nVal$[ebp]
  0007a	8d 8f b4 01 00
	00		 lea	 ecx, DWORD PTR [edi+436]
  00080	89 4d 0c	 mov	 DWORD PTR $T3[ebp], ecx
  00083	85 c0		 test	 eax, eax
  00085	78 15		 js	 SHORT $LN158@LoadPropMo
  00087	3b 01		 cmp	 eax, DWORD PTR [ecx]
  00089	7d 11		 jge	 SHORT $LN158@LoadPropMo

; 1407 : 	return m_pPropMover + nIndex;

  0008b	69 f8 90 06 00
	00		 imul	 edi, eax, 1680
  00091	8b 45 ec	 mov	 eax, DWORD PTR _this$1$[ebp]
  00094	03 b8 b8 01 00
	00		 add	 edi, DWORD PTR [eax+440]
  0009a	eb 1c		 jmp	 SHORT $LN101@LoadPropMo
$LN158@LoadPropMo:

; 579  : 	LPCTSTR szErr = Error( _T( "%s min:%d, max:%d, index:%d" ), szMsg, nMin, nMax, nIndex ); 

  0009c	50		 push	 eax
  0009d	ff 31		 push	 DWORD PTR [ecx]

; 1406 : 	VERIFY_RANGE( nIndex, 0, m_nMoverPropSize, "GetMoverProp range_error", NULL );

  0009f	89 4d 0c	 mov	 DWORD PTR $T3[ebp], ecx

; 579  : 	LPCTSTR szErr = Error( _T( "%s min:%d, max:%d, index:%d" ), szMsg, nMin, nMax, nIndex ); 

  000a2	6a 00		 push	 0
  000a4	68 00 00 00 00	 push	 OFFSET ??_C@_0BJ@GKPOBPPI@GetMoverProp?5range_error@
  000a9	68 00 00 00 00	 push	 OFFSET ??_C@_0BM@HMFGHCP@?$CFs?5min?3?$CFd?0?5max?3?$CFd?0?5index?3?$CFd@
  000ae	e8 00 00 00 00	 call	 ?Error@@YAPBDPBDZZ	; Error
  000b3	83 c4 14	 add	 esp, 20			; 00000014H

; 1406 : 	VERIFY_RANGE( nIndex, 0, m_nMoverPropSize, "GetMoverProp range_error", NULL );

  000b6	33 ff		 xor	 edi, edi
$LN101@LoadPropMo:
; File C:\IAGOS\server\v18\Source\Source\_Common\ProjectLux.cpp

; 119  : 		script.GetToken();		// 토큰 하나 읽음,.

  000b8	8b 03		 mov	 eax, DWORD PTR [ebx]
  000ba	8b cb		 mov	 ecx, ebx
  000bc	6a 00		 push	 0
  000be	ff 50 14	 call	 DWORD PTR [eax+20]

; 120  : 		if( script.token[0] == '}' )	// BATTLE블럭 끝.

  000c1	8b 43 3c	 mov	 eax, DWORD PTR [ebx+60]
  000c4	80 38 7d	 cmp	 BYTE PTR [eax], 125	; 0000007dH
  000c7	0f 84 5a 06 00
	00		 je	 $LN147@LoadPropMo
  000cd	0f 1f 00	 npad	 3
$LL2@LoadPropMo:

; 121  : 			break;
; 122  : 
; 123  : 		if( script.tokenType == IDENTIFIER )		// 토큰이 식별자.

  000d0	8b 8b 40 08 00
	00		 mov	 ecx, DWORD PTR [ebx+2112]
  000d6	83 f9 02	 cmp	 ecx, 2
  000d9	0f 85 85 03 00
	00		 jne	 $LN6@LoadPropMo

; 124  : 		{
; 125  : 			//---- Attack
; 126  : 			if( strcmpi( script.token, "Attack" ) == 0 )	// 일반 공격명령.

  000df	68 00 00 00 00	 push	 OFFSET ??_C@_06FDAMAAOH@Attack@
  000e4	50		 push	 eax
  000e5	e8 00 00 00 00	 call	 _strcmpi
  000ea	83 c4 08	 add	 esp, 8
  000ed	85 c0		 test	 eax, eax
  000ef	75 14		 jne	 SHORT $LN8@LoadPropMo

; 127  : 			{
; 128  : 				nCommand =	AICMD_ATTACK;	//	명령 "공격" 시작.

  000f1	be 02 00 00 00	 mov	 esi, 2

; 129  : 				pProp->m_bMeleeAttack = 1;	// 근접공격 AI도 있다는것.

  000f6	c6 87 f4 01 00
	00 01		 mov	 BYTE PTR [edi+500], 1
  000fd	89 75 f0	 mov	 DWORD PTR _nCommand$1$[ebp], esi

; 130  : 			} else

  00100	e9 0d 06 00 00	 jmp	 $LN82@LoadPropMo
$LN8@LoadPropMo:

; 131  : 			//--- cunning
; 132  : 			if( strcmpi( script.token, "cunning" ) == 0 )	// 공격명령시 레벨 비교

  00105	68 00 00 00 00	 push	 OFFSET ??_C@_07EAMOHMIH@cunning@
  0010a	ff 73 3c	 push	 DWORD PTR [ebx+60]
  0010d	e8 00 00 00 00	 call	 _strcmpi
  00112	83 c4 08	 add	 esp, 8
  00115	85 c0		 test	 eax, eax
  00117	0f 85 87 00 00
	00		 jne	 $LN10@LoadPropMo

; 133  : 			{
; 134  : 				if( nCommand == 0 )		// cunning명령앞에는 어떤명령이든 먼저 와야한다.

  0011d	85 f6		 test	 esi, esi
  0011f	0f 84 32 02 00
	00		 je	 $LN148@LoadPropMo

; 135  : 				{
; 136  : 					SYNTAX_ERROR;
; 137  : 					return FALSE;
; 138  : 				} else
; 139  : 				if( nCommand == AICMD_ATTACK )		// Attack <xxx> cunning 형태로 왔다.

  00125	83 fe 02	 cmp	 esi, 2
  00128	0f 85 e4 05 00
	00		 jne	 $LN82@LoadPropMo

; 140  : 				{
; 141  : 					script.GetToken();

  0012e	8b 03		 mov	 eax, DWORD PTR [ebx]
  00130	8b cb		 mov	 ecx, ebx
  00132	6a 00		 push	 0
  00134	ff 50 14	 call	 DWORD PTR [eax+20]

; 142  : 					if( strcmpi( script.token, "low" ) == 0 )		// 타겟이 레벨이 낮은경우 공격

  00137	68 00 00 00 00	 push	 OFFSET ??_C@_03IMLOALHE@low@
  0013c	ff 73 3c	 push	 DWORD PTR [ebx+60]
  0013f	e8 00 00 00 00	 call	 _strcmpi
  00144	83 c4 08	 add	 esp, 8
  00147	85 c0		 test	 eax, eax
  00149	75 0f		 jne	 SHORT $LN15@LoadPropMo

; 143  : 						pProp->m_nLvCond = 1;

  0014b	c7 87 e4 01 00
	00 01 00 00 00	 mov	 DWORD PTR [edi+484], 1
  00155	e9 b8 05 00 00	 jmp	 $LN82@LoadPropMo
$LN15@LoadPropMo:

; 144  : 					else if( strcmpi( script.token, "Sam" ) == 0 )	// 타겟이 레벨이 같은경우.

  0015a	68 00 00 00 00	 push	 OFFSET ??_C@_03JOEFDEFC@Sam@
  0015f	ff 73 3c	 push	 DWORD PTR [ebx+60]
  00162	e8 00 00 00 00	 call	 _strcmpi
  00167	83 c4 08	 add	 esp, 8
  0016a	85 c0		 test	 eax, eax
  0016c	75 0f		 jne	 SHORT $LN17@LoadPropMo

; 145  : 						pProp->m_nLvCond = 2;

  0016e	c7 87 e4 01 00
	00 02 00 00 00	 mov	 DWORD PTR [edi+484], 2
  00178	e9 95 05 00 00	 jmp	 $LN82@LoadPropMo
$LN17@LoadPropMo:

; 146  : 					else if( strcmpi( script.token, "Hi" ) == 0 )	// 타겟이 레벨이 높은경우.

  0017d	68 00 00 00 00	 push	 OFFSET ??_C@_02MKAICKHL@Hi@
  00182	ff 73 3c	 push	 DWORD PTR [ebx+60]
  00185	e8 00 00 00 00	 call	 _strcmpi
  0018a	83 c4 08	 add	 esp, 8
  0018d	85 c0		 test	 eax, eax
  0018f	0f 85 c2 01 00
	00		 jne	 $LN148@LoadPropMo

; 147  : 						pProp->m_nLvCond = 3;

  00195	c7 87 e4 01 00
	00 03 00 00 00	 mov	 DWORD PTR [edi+484], 3

; 148  : 					else
; 149  : 					{
; 150  : 						SYNTAX_ERROR;
; 151  : 						return FALSE;
; 152  : 					}
; 153  : 				}
; 154  : 			} else

  0019f	e9 6e 05 00 00	 jmp	 $LN82@LoadPropMo
$LN10@LoadPropMo:

; 155  : 			//--- Recovery
; 156  : 			if( strcmpi( script.token, "Recovery" ) == 0 )	// 회복 명령.

  001a4	68 00 00 00 00	 push	 OFFSET ??_C@_08ENEHKLFG@Recovery@
  001a9	ff 73 3c	 push	 DWORD PTR [ebx+60]
  001ac	e8 00 00 00 00	 call	 _strcmpi
  001b1	83 c4 08	 add	 esp, 8
  001b4	85 c0		 test	 eax, eax
  001b6	75 2a		 jne	 SHORT $LN21@LoadPropMo

; 157  : 			{
; 158  : 				nCommand = AICMD_RECOVERY;		// 명령 "회복" 시작.

  001b8	be 05 00 00 00	 mov	 esi, 5

; 159  : 				pProp->m_bRecvCond = 1;			//일단은 디폴트로 1(전투중 치료)

  001bd	c6 87 f6 01 00
	00 01		 mov	 BYTE PTR [edi+502], 1
  001c4	89 75 f0	 mov	 DWORD PTR _nCommand$1$[ebp], esi

; 160  : 				pProp->m_nRecvCondMe = 0;

  001c7	89 87 e8 01 00
	00		 mov	 DWORD PTR [edi+488], eax

; 161  : 				pProp->m_nRecvCondHow = 100;

  001cd	c7 87 ec 01 00
	00 64 00 00 00	 mov	 DWORD PTR [edi+492], 100 ; 00000064H

; 162  : 				pProp->m_nRecvCondMP = 0;

  001d7	89 87 f0 01 00
	00		 mov	 DWORD PTR [edi+496], eax

; 163  : 			} else

  001dd	e9 30 05 00 00	 jmp	 $LN82@LoadPropMo
$LN21@LoadPropMo:

; 164  : 			//--- 대상지정. u=다른이 m=나만, a=다른이/나
; 165  : 			if( strcmpi( script.token, "u" ) == 0 || 
; 166  : 				strcmpi( script.token, "m" ) == 0 || 

  001e2	68 00 00 00 00	 push	 OFFSET ??_C@_01OMGOGALD@u@
  001e7	ff 73 3c	 push	 DWORD PTR [ebx+60]
  001ea	e8 00 00 00 00	 call	 _strcmpi
  001ef	83 c4 08	 add	 esp, 8
  001f2	85 c0		 test	 eax, eax
  001f4	0f 84 e4 01 00
	00		 je	 $LN25@LoadPropMo
  001fa	68 00 00 00 00	 push	 OFFSET ??_C@_01GOHFPIOK@m@
  001ff	ff 73 3c	 push	 DWORD PTR [ebx+60]
  00202	e8 00 00 00 00	 call	 _strcmpi
  00207	83 c4 08	 add	 esp, 8
  0020a	85 c0		 test	 eax, eax
  0020c	0f 84 cc 01 00
	00		 je	 $LN25@LoadPropMo
  00212	68 00 00 00 00	 push	 OFFSET ??_C@_01MCMALHOG@a@
  00217	ff 73 3c	 push	 DWORD PTR [ebx+60]
  0021a	e8 00 00 00 00	 call	 _strcmpi
  0021f	83 c4 08	 add	 esp, 8
  00222	85 c0		 test	 eax, eax
  00224	0f 84 b4 01 00
	00		 je	 $LN25@LoadPropMo

; 185  : 				}
; 186  : 			} else
; 187  : 			if( strcmpi( script.token, "RangeAttack" ) == 0 )	// 원거리 공격

  0022a	68 00 00 00 00	 push	 OFFSET ??_C@_0M@JLIIOCOM@RangeAttack@
  0022f	ff 73 3c	 push	 DWORD PTR [ebx+60]
  00232	e8 00 00 00 00	 call	 _strcmpi
  00237	83 c4 08	 add	 esp, 8
  0023a	85 c0		 test	 eax, eax
  0023c	75 0d		 jne	 SHORT $LN34@LoadPropMo

; 188  : 			{
; 189  : 				nCommand = AICMD_RANGEATTACK;

  0023e	be 06 00 00 00	 mov	 esi, 6
  00243	89 75 f0	 mov	 DWORD PTR _nCommand$1$[ebp], esi

; 190  : 			} else

  00246	e9 c7 04 00 00	 jmp	 $LN82@LoadPropMo
$LN34@LoadPropMo:

; 191  : 			if( strcmpi( script.token, "KeepRangeAttack" ) == 0 )	// 거리유지 원거리 공격

  0024b	68 00 00 00 00	 push	 OFFSET ??_C@_0BA@LLHANEDJ@KeepRangeAttack@
  00250	ff 73 3c	 push	 DWORD PTR [ebx+60]
  00253	e8 00 00 00 00	 call	 _strcmpi
  00258	83 c4 08	 add	 esp, 8
  0025b	85 c0		 test	 eax, eax
  0025d	75 0d		 jne	 SHORT $LN36@LoadPropMo

; 192  : 			{
; 193  : 				nCommand = AICMD_KEEP_RANGEATTACK;

  0025f	be 07 00 00 00	 mov	 esi, 7
  00264	89 75 f0	 mov	 DWORD PTR _nCommand$1$[ebp], esi

; 194  : 			} else

  00267	e9 a6 04 00 00	 jmp	 $LN82@LoadPropMo
$LN36@LoadPropMo:

; 195  : 			if( strcmpi( script.token, "Summon" ) == 0 )		// 소환 명령

  0026c	68 00 00 00 00	 push	 OFFSET ??_C@_06DLFKBJMP@Summon@
  00271	ff 73 3c	 push	 DWORD PTR [ebx+60]
  00274	e8 00 00 00 00	 call	 _strcmpi
  00279	83 c4 08	 add	 esp, 8
  0027c	85 c0		 test	 eax, eax
  0027e	75 0d		 jne	 SHORT $LN38@LoadPropMo

; 196  : 			{
; 197  : 				nCommand = AICMD_SUMMON;

  00280	be 08 00 00 00	 mov	 esi, 8
  00285	89 75 f0	 mov	 DWORD PTR _nCommand$1$[ebp], esi

; 198  : 			} else

  00288	e9 85 04 00 00	 jmp	 $LN82@LoadPropMo
$LN38@LoadPropMo:

; 199  : 			if( strcmpi( script.token, "Evade" ) == 0 )			// 도망

  0028d	68 00 00 00 00	 push	 OFFSET ??_C@_05LDPELMJE@Evade@
  00292	ff 73 3c	 push	 DWORD PTR [ebx+60]
  00295	e8 00 00 00 00	 call	 _strcmpi
  0029a	83 c4 08	 add	 esp, 8
  0029d	85 c0		 test	 eax, eax
  0029f	75 0d		 jne	 SHORT $LN40@LoadPropMo

; 200  : 			{
; 201  : 				nCommand = AICMD_EVADE;

  002a1	be 09 00 00 00	 mov	 esi, 9
  002a6	89 75 f0	 mov	 DWORD PTR _nCommand$1$[ebp], esi

; 202  : 			} else

  002a9	e9 64 04 00 00	 jmp	 $LN82@LoadPropMo
$LN40@LoadPropMo:

; 203  : 			if( strcmpi( script.token, "Helper" ) == 0 )		// 도움요청.

  002ae	68 00 00 00 00	 push	 OFFSET ??_C@_06CJKGKNBJ@Helper@
  002b3	ff 73 3c	 push	 DWORD PTR [ebx+60]
  002b6	e8 00 00 00 00	 call	 _strcmpi
  002bb	83 c4 08	 add	 esp, 8
  002be	85 c0		 test	 eax, eax
  002c0	75 30		 jne	 SHORT $LN42@LoadPropMo

; 204  : 			{
; 205  : 				nCommand = AICMD_HELPER;
; 206  : 				pProp->m_tmUnitHelp = 0;			// 몇초마다 한번씩 헬퍼를 부를꺼냐. 0이면 최초한번만.

  002c2	89 87 30 02 00
	00		 mov	 DWORD PTR [edi+560], eax
  002c8	be 0a 00 00 00	 mov	 esi, 10			; 0000000aH

; 207  : 				pProp->m_nHelpRangeMul = 2;			// 디폴트는 시야반경 2배내.
; 208  : 				pProp->m_bHelpWho = 1;
; 209  : 				pProp->m_nCallHelperMax = 5;

  002cd	b8 05 00 00 00	 mov	 eax, 5
  002d2	89 75 f0	 mov	 DWORD PTR _nCommand$1$[ebp], esi
  002d5	c7 87 2c 02 00
	00 02 00 00 00	 mov	 DWORD PTR [edi+556], 2
  002df	c6 87 f7 01 00
	00 01		 mov	 BYTE PTR [edi+503], 1
  002e6	66 89 87 b2 01
	00 00		 mov	 WORD PTR [edi+434], ax

; 210  : 			} else

  002ed	e9 20 04 00 00	 jmp	 $LN82@LoadPropMo
$LN42@LoadPropMo:

; 211  : 			// helper에서 쓰이는..
; 212  : 			if( strcmpi( script.token, "all" ) == 0 ||

  002f2	68 00 00 00 00	 push	 OFFSET ??_C@_03NFKEKGGK@all@
  002f7	ff 73 3c	 push	 DWORD PTR [ebx+60]
  002fa	e8 00 00 00 00	 call	 _strcmpi
  002ff	83 c4 08	 add	 esp, 8
  00302	85 c0		 test	 eax, eax
  00304	0f 84 83 00 00
	00		 je	 $LN46@LoadPropMo
  0030a	68 00 00 00 00	 push	 OFFSET ??_C@_03DOHHJLGM@sam@
  0030f	ff 73 3c	 push	 DWORD PTR [ebx+60]
  00312	e8 00 00 00 00	 call	 _strcmpi
  00317	83 c4 08	 add	 esp, 8
  0031a	85 c0		 test	 eax, eax
  0031c	74 6f		 je	 SHORT $LN46@LoadPropMo

; 228  : 			if( strcmpi( script.token, "Berserk" ) == 0 )		// 광포화.

  0031e	68 00 00 00 00	 push	 OFFSET ??_C@_07NPHLJPC@Berserk@
  00323	ff 73 3c	 push	 DWORD PTR [ebx+60]
  00326	e8 00 00 00 00	 call	 _strcmpi
  0032b	83 c4 08	 add	 esp, 8
  0032e	85 c0		 test	 eax, eax
  00330	75 0d		 jne	 SHORT $LN53@LoadPropMo

; 229  : 			{
; 230  : 				nCommand = AICMD_BERSERK;

  00332	be 0b 00 00 00	 mov	 esi, 11			; 0000000bH
  00337	89 75 f0	 mov	 DWORD PTR _nCommand$1$[ebp], esi

; 231  : 			} else

  0033a	e9 d3 03 00 00	 jmp	 $LN82@LoadPropMo
$LN53@LoadPropMo:

; 232  : 			if( strcmpi( script.token, "Randomtarget" ) == 0 )	

  0033f	68 00 00 00 00	 push	 OFFSET ??_C@_0N@MDBDBIOA@Randomtarget@
  00344	ff 73 3c	 push	 DWORD PTR [ebx+60]
  00347	e8 00 00 00 00	 call	 _strcmpi
  0034c	83 c4 08	 add	 esp, 8
  0034f	85 c0		 test	 eax, eax
  00351	0f 84 bb 03 00
	00		 je	 $LN82@LoadPropMo
$LN148@LoadPropMo:

; 354  : }

  00357	ff 73 3c	 push	 DWORD PTR [ebx+60]
$LN163@LoadPropMo:
  0035a	ff 75 10	 push	 DWORD PTR _nVal$[ebp]
  0035d	8b 03		 mov	 eax, DWORD PTR [ebx]
  0035f	8b cb		 mov	 ecx, ebx
  00361	6a 00		 push	 0
  00363	ff 50 1c	 call	 DWORD PTR [eax+28]
  00366	50		 push	 eax
  00367	ff 75 08	 push	 DWORD PTR _szFileName$[ebp]
  0036a	68 00 00 00 00	 push	 OFFSET ??_C@_0CE@DOIGNPAP@?$CFs?$CI?$CFd?$CJ?5?3?5MoverID?$DN?$CFd?5syntax?5erro@
  0036f	e8 00 00 00 00	 call	 ?Error@@YAPBDPBDZZ	; Error
  00374	83 c4 14	 add	 esp, 20			; 00000014H
  00377	33 c0		 xor	 eax, eax
  00379	8b 4d f4	 mov	 ecx, DWORD PTR __$EHRec$[ebp]
  0037c	64 89 0d 00 00
	00 00		 mov	 DWORD PTR fs:0, ecx
  00383	59		 pop	 ecx
  00384	5f		 pop	 edi
  00385	5e		 pop	 esi
  00386	5b		 pop	 ebx
  00387	8b e5		 mov	 esp, ebp
  00389	5d		 pop	 ebp
  0038a	c2 0c 00	 ret	 12			; 0000000cH
$LN46@LoadPropMo:

; 213  : 				strcmpi( script.token, "sam" ) == 0 )
; 214  : 			{
; 215  : 				if( nCommand == 0 ) // all/sam 명령앞에는 어떤명령이든 먼저 와야 한다.

  0038d	85 f6		 test	 esi, esi
  0038f	74 c6		 je	 SHORT $LN148@LoadPropMo

; 216  : 				{
; 217  : 					SYNTAX_ERROR;
; 218  : 					return FALSE;
; 219  : 				} else
; 220  : 				if( nCommand == AICMD_HELPER )

  00391	83 fe 0a	 cmp	 esi, 10			; 0000000aH
  00394	0f 85 78 03 00
	00		 jne	 $LN82@LoadPropMo

; 221  : 				{
; 222  : 					if( strcmpi( script.token, "all" ) == 0 )			// 아무나.

  0039a	68 00 00 00 00	 push	 OFFSET ??_C@_03NFKEKGGK@all@
  0039f	ff 73 3c	 push	 DWORD PTR [ebx+60]
  003a2	e8 00 00 00 00	 call	 _strcmpi
  003a7	83 c4 08	 add	 esp, 8
  003aa	85 c0		 test	 eax, eax
  003ac	75 0c		 jne	 SHORT $LN50@LoadPropMo

; 223  : 						pProp->m_bHelpWho = 1;	

  003ae	c6 87 f7 01 00
	00 01		 mov	 BYTE PTR [edi+503], 1
  003b5	e9 58 03 00 00	 jmp	 $LN82@LoadPropMo
$LN50@LoadPropMo:

; 224  : 					else if( strcmpi( script.token, "sam" ) == 0 )		// 같은 종만

  003ba	68 00 00 00 00	 push	 OFFSET ??_C@_03DOHHJLGM@sam@
  003bf	ff 73 3c	 push	 DWORD PTR [ebx+60]
  003c2	e8 00 00 00 00	 call	 _strcmpi
  003c7	83 c4 08	 add	 esp, 8
  003ca	85 c0		 test	 eax, eax
  003cc	0f 85 40 03 00
	00		 jne	 $LN82@LoadPropMo

; 225  : 						pProp->m_bHelpWho = 2;

  003d2	c6 87 f7 01 00
	00 02		 mov	 BYTE PTR [edi+503], 2

; 226  : 				}
; 227  : 			} else

  003d9	e9 34 03 00 00	 jmp	 $LN82@LoadPropMo
$LN25@LoadPropMo:

; 167  : 				strcmpi( script.token, "a" ) == 0 )	// 대상설정
; 168  : 			{
; 169  : 				if( nCommand == 0 )		// u,m,a명령앞에는 어떤명령이든 먼저 와야한다.

  003de	85 f6		 test	 esi, esi
  003e0	0f 84 71 ff ff
	ff		 je	 $LN148@LoadPropMo

; 170  : 				{
; 171  : 					SYNTAX_ERROR;
; 172  : 					return FALSE;
; 173  : 				} else
; 174  : 				if( nCommand == AICMD_RECOVERY )		// recovery xx xx xx (u,m,a) 형태로 왔다.

  003e6	83 fe 05	 cmp	 esi, 5
  003e9	0f 85 23 03 00
	00		 jne	 $LN82@LoadPropMo

; 175  : 				{
; 176  : //					script.GetToken();
; 177  : 					if( strcmpi( script.token, "u" ) == 0 )		// 대상은 다른이.

  003ef	68 00 00 00 00	 push	 OFFSET ??_C@_01OMGOGALD@u@
  003f4	ff 73 3c	 push	 DWORD PTR [ebx+60]
  003f7	e8 00 00 00 00	 call	 _strcmpi
  003fc	83 c4 08	 add	 esp, 8
  003ff	85 c0		 test	 eax, eax
  00401	75 13		 jne	 SHORT $LN29@LoadPropMo

; 178  : 						pProp->m_bRecvCondWho = 1;

  00403	c6 87 f5 01 00
	00 01		 mov	 BYTE PTR [edi+501], 1

; 183  : 
; 184  : 					pProp->m_bRecvCond = 2;			// 일단 옵션이 붙었으므로 전투/비전투 모두 힐링.

  0040a	c6 87 f6 01 00
	00 02		 mov	 BYTE PTR [edi+502], 2

; 233  : 			{
; 234  : 			} else
; 235  : //			if( strcmpi( script.token, "Loot" ) == 0 )		// 루팅. 아이템 줏어먹기.
; 236  : //			{
; 237  : //				nCommand = AICMD_LOOT;
; 238  : //				pProp->m_nLoot = 1;
; 239  : //			} else
; 240  : 			{
; 241  : 				SYNTAX_ERROR;	// 이상한 명령이 들어왔음.
; 242  : 				return FALSE;
; 243  : 			}
; 244  : 		} else

  00411	e9 fc 02 00 00	 jmp	 $LN82@LoadPropMo
$LN29@LoadPropMo:

; 179  : 					else if( strcmpi( script.token, "m" ) == 0 )	// 대상은 나

  00416	68 00 00 00 00	 push	 OFFSET ??_C@_01GOHFPIOK@m@
  0041b	ff 73 3c	 push	 DWORD PTR [ebx+60]
  0041e	e8 00 00 00 00	 call	 _strcmpi
  00423	83 c4 08	 add	 esp, 8
  00426	85 c0		 test	 eax, eax
  00428	75 13		 jne	 SHORT $LN31@LoadPropMo

; 180  : 						pProp->m_bRecvCondWho = 2;

  0042a	c6 87 f5 01 00
	00 02		 mov	 BYTE PTR [edi+501], 2

; 183  : 
; 184  : 					pProp->m_bRecvCond = 2;			// 일단 옵션이 붙었으므로 전투/비전투 모두 힐링.

  00431	c6 87 f6 01 00
	00 02		 mov	 BYTE PTR [edi+502], 2

; 233  : 			{
; 234  : 			} else
; 235  : //			if( strcmpi( script.token, "Loot" ) == 0 )		// 루팅. 아이템 줏어먹기.
; 236  : //			{
; 237  : //				nCommand = AICMD_LOOT;
; 238  : //				pProp->m_nLoot = 1;
; 239  : //			} else
; 240  : 			{
; 241  : 				SYNTAX_ERROR;	// 이상한 명령이 들어왔음.
; 242  : 				return FALSE;
; 243  : 			}
; 244  : 		} else

  00438	e9 d5 02 00 00	 jmp	 $LN82@LoadPropMo
$LN31@LoadPropMo:

; 181  : 					else if( strcmpi( script.token, "a" ) == 0 )	// 대상은 다른이,나

  0043d	68 00 00 00 00	 push	 OFFSET ??_C@_01MCMALHOG@a@
  00442	ff 73 3c	 push	 DWORD PTR [ebx+60]
  00445	e8 00 00 00 00	 call	 _strcmpi
  0044a	83 c4 08	 add	 esp, 8
  0044d	85 c0		 test	 eax, eax
  0044f	75 07		 jne	 SHORT $LN33@LoadPropMo

; 182  : 						pProp->m_bRecvCondWho = 3;

  00451	c6 87 f5 01 00
	00 03		 mov	 BYTE PTR [edi+501], 3
$LN33@LoadPropMo:

; 183  : 
; 184  : 					pProp->m_bRecvCond = 2;			// 일단 옵션이 붙었으므로 전투/비전투 모두 힐링.

  00458	c6 87 f6 01 00
	00 02		 mov	 BYTE PTR [edi+502], 2

; 233  : 			{
; 234  : 			} else
; 235  : //			if( strcmpi( script.token, "Loot" ) == 0 )		// 루팅. 아이템 줏어먹기.
; 236  : //			{
; 237  : //				nCommand = AICMD_LOOT;
; 238  : //				pProp->m_nLoot = 1;
; 239  : //			} else
; 240  : 			{
; 241  : 				SYNTAX_ERROR;	// 이상한 명령이 들어왔음.
; 242  : 				return FALSE;
; 243  : 			}
; 244  : 		} else

  0045f	e9 ae 02 00 00	 jmp	 $LN82@LoadPropMo
$LN6@LoadPropMo:

; 245  : 		/////////// 토큰이 숫자.
; 246  : 		if( script.tokenType == NUMBER )

  00464	83 f9 03	 cmp	 ecx, 3
  00467	0f 85 a5 02 00
	00		 jne	 $LN82@LoadPropMo

; 247  : 		{
; 248  : 			if( nCommand == 0 )		// 아무 명령없이 숫자가 나왔다.

  0046d	85 f6		 test	 esi, esi
  0046f	0f 84 2a 03 00
	00		 je	 $LN151@LoadPropMo

; 252  : 			} else
; 253  : 			if( nCommand == AICMD_ATTACK )		// 공격명령이 나왔었다.

  00475	83 fe 02	 cmp	 esi, 2
  00478	75 14		 jne	 SHORT $LN60@LoadPropMo

; 254  : 			{
; 255  : 				int nNum = atoi( script.token );		// 파라메터값을 숫자로 변환.

  0047a	50		 push	 eax
  0047b	e8 00 00 00 00	 call	 _atoi
  00480	83 c4 04	 add	 esp, 4

; 256  : 				// nNum는 상대체력 %;
; 257  : 				pProp->m_nHPCond = nNum;				// 선공몹일때 타겟HP가 nNum%미만이면 공격한다.

  00483	89 87 e0 01 00
	00		 mov	 DWORD PTR [edi+480], eax

; 258  : 			} else

  00489	e9 84 02 00 00	 jmp	 $LN82@LoadPropMo
$LN60@LoadPropMo:

; 259  : 			if( nCommand == AICMD_RECOVERY )	// 회복명령

  0048e	83 fe 05	 cmp	 esi, 5
  00491	75 49		 jne	 SHORT $LN62@LoadPropMo

; 260  : 			{
; 261  : 				int nNum = atoi( script.token );

  00493	50		 push	 eax
  00494	e8 00 00 00 00	 call	 _atoi
  00499	83 c4 04	 add	 esp, 4

; 262  : 				if( pProp->m_nRecvCondMe == 0 )		// 첫번째 파라메터(내HP가 몇%이하인가?)

  0049c	83 bf e8 01 00
	00 00		 cmp	 DWORD PTR [edi+488], 0
  004a3	75 0b		 jne	 SHORT $LN64@LoadPropMo

; 263  : 				{
; 264  : 					pProp->m_nRecvCondMe = nNum;

  004a5	89 87 e8 01 00
	00		 mov	 DWORD PTR [edi+488], eax

; 265  : 				} else

  004ab	e9 62 02 00 00	 jmp	 $LN82@LoadPropMo
$LN64@LoadPropMo:

; 266  : 				if( pProp->m_nRecvCondHow == 100 )	// 두번째 파라메터(몇%를 힐링할껀가)

  004b0	83 bf ec 01 00
	00 64		 cmp	 DWORD PTR [edi+492], 100 ; 00000064H
  004b7	75 0b		 jne	 SHORT $LN66@LoadPropMo

; 267  : 				{
; 268  : 					pProp->m_nRecvCondHow = nNum;

  004b9	89 87 ec 01 00
	00		 mov	 DWORD PTR [edi+492], eax

; 269  : 				} else

  004bf	e9 4e 02 00 00	 jmp	 $LN82@LoadPropMo
$LN66@LoadPropMo:

; 270  : 				if( pProp->m_nRecvCondMP == 0 )		// 몇%의 마나를 소모할껀가.

  004c4	83 bf f0 01 00
	00 00		 cmp	 DWORD PTR [edi+496], 0
  004cb	0f 85 41 02 00
	00		 jne	 $LN82@LoadPropMo

; 271  : 				{
; 272  : 					pProp->m_nRecvCondMP = nNum;

  004d1	89 87 f0 01 00
	00		 mov	 DWORD PTR [edi+496], eax

; 273  : 				}
; 274  : 			} else

  004d7	e9 36 02 00 00	 jmp	 $LN82@LoadPropMo
$LN62@LoadPropMo:

; 275  : 			if( nCommand == AICMD_RANGEATTACK || nCommand == AICMD_KEEP_RANGEATTACK )	// 원거리 공격명령

  004dc	83 fe 06	 cmp	 esi, 6
  004df	0f 84 5b 02 00
	00		 je	 $LN71@LoadPropMo
  004e5	83 fe 07	 cmp	 esi, 7
  004e8	0f 84 52 02 00
	00		 je	 $LN71@LoadPropMo

; 283  : 					if( nJob >= MAX_JOB )		// 모든 직업.
; 284  : 					{
; 285  : 						memset( pProp->m_bRangeAttack, nRange, sizeof(pProp->m_bRangeAttack) );		// 모든직업에 같은값으로 설정.
; 286  : 					} else
; 287  : 					{
; 288  : 						if( nJob >0 || nJob < MAX_JOB )
; 289  : 							pProp->m_bRangeAttack[ nJob ] = (BYTE)nRange;		// 해당직업의 원거리 공격길이를 저장.
; 290  : 						else
; 291  : 							SYNTAX_ERROR;
; 292  : 					}
; 293  : 				} else
; 294  : 				{
; 295  : 					if( nJob >= MAX_JOB )		// 모든 직업.
; 296  : 					{
; 297  : 						memset( pProp->m_bRangeAttack, nRange, sizeof(pProp->m_bRangeAttack) );		// 모든직업에 같은값으로 설정.
; 298  : 					} else
; 299  : 					{
; 300  : 						if( nJob >0 || nJob < MAX_JOB )
; 301  : 							pProp->m_bRangeAttack[ nJob ] = (BYTE)nRange;		// 해당직업의 원거리 공격길이를 저장.
; 302  : 						else
; 303  : 							SYNTAX_ERROR;
; 304  : 					}
; 305  : 				}
; 306  : 			} else
; 307  : 			if( nCommand == AICMD_SUMMON )		// 소환명령이 나왔었다.

  004ee	83 fe 08	 cmp	 esi, 8
  004f1	0f 85 f6 00 00
	00		 jne	 $LN84@LoadPropMo

; 308  : 			{
; 309  : 				pProp->m_nSummProb = atoi( script.token );	// 소환 할때 성공확률

  004f7	50		 push	 eax
  004f8	e8 00 00 00 00	 call	 _atoi
  004fd	83 c4 04	 add	 esp, 4
  00500	89 87 20 02 00
	00		 mov	 DWORD PTR [edi+544], eax

; 310  : 				pProp->m_nSummNum  = script.GetNumber();		// 한번에 몇마리나 소환하냐.

  00506	8b cb		 mov	 ecx, ebx
  00508	6a 00		 push	 0
  0050a	e8 00 00 00 00	 call	 ?GetNumber@CScanner@@QAEHH@Z ; CScanner::GetNumber
  0050f	89 87 24 02 00
	00		 mov	 DWORD PTR [edi+548], eax

; 311  : 				if( pProp->m_nSummNum > MAX_SUMMON )

  00515	3b c6		 cmp	 eax, esi
  00517	7e 2b		 jle	 SHORT $LN86@LoadPropMo

; 312  : 				{
; 313  : 					CUSTOM_ERROR( "소환할수 있는 개수가 너무 많다" );

  00519	ff 73 3c	 push	 DWORD PTR [ebx+60]
  0051c	8b 03		 mov	 eax, DWORD PTR [ebx]
  0051e	8b cb		 mov	 ecx, ebx
  00520	68 00 00 00 00	 push	 OFFSET ??_C@_0BP@IMGBJKKL@?$LM?R?H?$KP?G?R?$LM?v?5?$MA?V?$LE?B?5?$LA?$LD?$LM?v?$LA?$KB?5?$LD?J?$LJ?$KL?5?$LI?$LJ?$LE?Y@
  00525	ff 75 10	 push	 DWORD PTR _nVal$[ebp]
  00528	6a 00		 push	 0
  0052a	ff 50 1c	 call	 DWORD PTR [eax+28]
  0052d	50		 push	 eax
  0052e	ff 75 08	 push	 DWORD PTR _szFileName$[ebp]
  00531	68 00 00 00 00	 push	 OFFSET ??_C@_0BK@IFOEIIPC@?$CFs?$CI?$CFd?$CJ?5?3?5MoverID?$DN?$CFd?5?$CFs?5?$CFs@
  00536	e8 00 00 00 00	 call	 ?Error@@YAPBDPBDZZ	; Error
  0053b	83 c4 18	 add	 esp, 24			; 00000018H

; 314  : #if __VER >= 12 // __NEW_SUMMON_RULE				
; 315  : 					pProp->m_nSummNum = MAX_SUMMON;

  0053e	89 b7 24 02 00
	00		 mov	 DWORD PTR [edi+548], esi
$LN86@LoadPropMo:

; 316  : #endif // __NEW_SUMMON_RULE
; 317  : 				}
; 318  : 
; 319  : 				script.GetToken();					// 몬스터 아이디

  00544	8b 03		 mov	 eax, DWORD PTR [ebx]
  00546	8b cb		 mov	 ecx, ebx
  00548	6a 00		 push	 0
  0054a	ff 50 14	 call	 DWORD PTR [eax+20]

; 320  : 				if( script.tokenType != NUMBER )

  0054d	83 bb 40 08 00
	00 03		 cmp	 DWORD PTR [ebx+2112], 3
  00554	74 20		 je	 SHORT $LN87@LoadPropMo

; 321  : 					UNIDENTIFY_ERROR;

  00556	ff 73 3c	 push	 DWORD PTR [ebx+60]
  00559	8b 03		 mov	 eax, DWORD PTR [ebx]
  0055b	8b cb		 mov	 ecx, ebx
  0055d	ff 75 10	 push	 DWORD PTR _nVal$[ebp]
  00560	6a 00		 push	 0
  00562	ff 50 1c	 call	 DWORD PTR [eax+28]
  00565	50		 push	 eax
  00566	ff 75 08	 push	 DWORD PTR _szFileName$[ebp]
  00569	68 00 00 00 00	 push	 OFFSET ??_C@_0DC@EACAAEFB@?$CFs?$CI?$CFd?$CJ?5?3?5MoverID?$DN?$CFd?5?A?v?A?$KE?$LF?G?A?v?5?$LO?J@
  0056e	e8 00 00 00 00	 call	 ?Error@@YAPBDPBDZZ	; Error
  00573	83 c4 14	 add	 esp, 20			; 00000014H
$LN87@LoadPropMo:

; 322  : 				pProp->m_nSummID = atoi( script.token );

  00576	ff 73 3c	 push	 DWORD PTR [ebx+60]
  00579	e8 00 00 00 00	 call	 _atoi
  0057e	83 c4 04	 add	 esp, 4
  00581	89 87 28 02 00
	00		 mov	 DWORD PTR [edi+552], eax
; File C:\IAGOS\server\v18\Source\Source\_Common\Project.h

; 1406 : 	VERIFY_RANGE( nIndex, 0, m_nMoverPropSize, "GetMoverProp range_error", NULL );

  00587	85 c0		 test	 eax, eax
  00589	78 1e		 js	 SHORT $LN159@LoadPropMo
  0058b	8b 4d 0c	 mov	 ecx, DWORD PTR $T3[ebp]
  0058e	3b 01		 cmp	 eax, DWORD PTR [ecx]
  00590	7d 17		 jge	 SHORT $LN159@LoadPropMo

; 1407 : 	return m_pPropMover + nIndex;

  00592	8b 4d ec	 mov	 ecx, DWORD PTR _this$1$[ebp]
  00595	69 c0 90 06 00
	00		 imul	 eax, eax, 1680
  0059b	03 81 b8 01 00
	00		 add	 eax, DWORD PTR [ecx+440]
; File C:\IAGOS\server\v18\Source\Source\_Common\ProjectLux.cpp

; 323  : 				if( GetMoverProp( pProp->m_nSummID ) == NULL )

  005a1	0f 85 6b 01 00
	00		 jne	 $LN82@LoadPropMo
  005a7	eb 1a		 jmp	 SHORT $LN157@LoadPropMo
$LN159@LoadPropMo:
; File C:\IAGOS\server\v18\Source\Source\_Common\Project.h

; 579  : 	LPCTSTR szErr = Error( _T( "%s min:%d, max:%d, index:%d" ), szMsg, nMin, nMax, nIndex ); 

  005a9	50		 push	 eax
  005aa	8b 45 0c	 mov	 eax, DWORD PTR $T3[ebp]
  005ad	ff 30		 push	 DWORD PTR [eax]
  005af	6a 00		 push	 0
  005b1	68 00 00 00 00	 push	 OFFSET ??_C@_0BJ@GKPOBPPI@GetMoverProp?5range_error@
  005b6	68 00 00 00 00	 push	 OFFSET ??_C@_0BM@HMFGHCP@?$CFs?5min?3?$CFd?0?5max?3?$CFd?0?5index?3?$CFd@
  005bb	e8 00 00 00 00	 call	 ?Error@@YAPBDPBDZZ	; Error
  005c0	83 c4 14	 add	 esp, 20			; 00000014H
$LN157@LoadPropMo:
; File C:\IAGOS\server\v18\Source\Source\_Common\ProjectLux.cpp

; 324  : 					CUSTOM_ERROR( "지정된 몬스터 아이디가 프로퍼티에 없음" );

  005c3	ff 73 3c	 push	 DWORD PTR [ebx+60]
  005c6	8b 03		 mov	 eax, DWORD PTR [ebx]
  005c8	8b cb		 mov	 ecx, ebx
  005ca	68 00 00 00 00	 push	 OFFSET ??_C@_0CH@ICOKIFCB@?A?v?A?$KE?$LF?H?5?$LI?s?$LN?$LK?E?M?5?$LO?F?$MA?L?$LF?p?$LA?$KB?5?G?A?$LH?N?F?$NL?F?$LM@
  005cf	ff 75 10	 push	 DWORD PTR _nVal$[ebp]
  005d2	6a 00		 push	 0
  005d4	ff 50 1c	 call	 DWORD PTR [eax+28]
  005d7	50		 push	 eax
  005d8	ff 75 08	 push	 DWORD PTR _szFileName$[ebp]
  005db	68 00 00 00 00	 push	 OFFSET ??_C@_0BK@IFOEIIPC@?$CFs?$CI?$CFd?$CJ?5?3?5MoverID?$DN?$CFd?5?$CFs?5?$CFs@
  005e0	e8 00 00 00 00	 call	 ?Error@@YAPBDPBDZZ	; Error
  005e5	83 c4 18	 add	 esp, 24			; 00000018H

; 325  : 			} else

  005e8	e9 25 01 00 00	 jmp	 $LN82@LoadPropMo
$LN84@LoadPropMo:

; 326  : 			if( nCommand == AICMD_EVADE )	// 도망 명령이 나왔었다.

  005ed	83 fe 09	 cmp	 esi, 9
  005f0	75 15		 jne	 SHORT $LN89@LoadPropMo

; 327  : 			{
; 328  : 				pProp->m_nRunawayHP = atoi( script.token );		// 몇%남으면 도망가냐?

  005f2	50		 push	 eax
  005f3	e8 00 00 00 00	 call	 _atoi
  005f8	83 c4 04	 add	 esp, 4
  005fb	66 89 87 b0 01
	00 00		 mov	 WORD PTR [edi+432], ax

; 329  : 			} else

  00602	e9 0b 01 00 00	 jmp	 $LN82@LoadPropMo
$LN89@LoadPropMo:

; 330  : 			if( nCommand == AICMD_HELPER )	// 헬퍼 명령이 나왔었다.

  00607	83 fe 0a	 cmp	 esi, 10			; 0000000aH
  0060a	75 35		 jne	 SHORT $LN91@LoadPropMo

; 331  : 			{
; 332  : 				int nNum = atoi( script.token );

  0060c	50		 push	 eax
  0060d	e8 00 00 00 00	 call	 _atoi
  00612	83 c4 04	 add	 esp, 4

; 333  : 				if( pProp->m_tmUnitHelp == 0 )		// 파라메터가 아직 지정되지 않았다면..

  00615	83 bf 30 02 00
	00 00		 cmp	 DWORD PTR [edi+560], 0
  0061c	75 0b		 jne	 SHORT $LN93@LoadPropMo

; 334  : 					pProp->m_tmUnitHelp = (DWORD)nNum;		// 몇초마다 헬퍼를 부르는 시도를 할꺼냐.

  0061e	89 87 30 02 00
	00		 mov	 DWORD PTR [edi+560], eax
  00624	e9 e9 00 00 00	 jmp	 $LN82@LoadPropMo
$LN93@LoadPropMo:

; 335  : 				else if( pProp->m_nHelpRangeMul == 2 )		// 파라메터가 아직 지정되지 않았다면..

  00629	83 bf 2c 02 00
	00 02		 cmp	 DWORD PTR [edi+556], 2
  00630	0f 85 dc 00 00
	00		 jne	 $LN82@LoadPropMo

; 336  : 					pProp->m_nHelpRangeMul = nNum;			// 시야배수

  00636	89 87 2c 02 00
	00		 mov	 DWORD PTR [edi+556], eax

; 337  : 			} else

  0063c	e9 d1 00 00 00	 jmp	 $LN82@LoadPropMo
$LN91@LoadPropMo:

; 338  : 			if( nCommand == AICMD_BERSERK )	// 버서커 명령이 나왔었다.

  00641	83 fe 0b	 cmp	 esi, 11			; 0000000bH
  00644	0f 85 c8 00 00
	00		 jne	 $LN82@LoadPropMo

; 339  : 			{
; 340  : 				pProp->m_nBerserkHP = atoi( script.token );		// 버서커가 되기위한 %. 0이면 버서커없음.

  0064a	50		 push	 eax
  0064b	e8 00 00 00 00	 call	 _atoi
  00650	83 c4 04	 add	 esp, 4
  00653	89 87 34 02 00
	00		 mov	 DWORD PTR [edi+564], eax

; 341  : 				pProp->m_fBerserkDmgMul = script.GetFloat();	// 버서커거되었을때 데미지 배수.

  00659	8b cb		 mov	 ecx, ebx
  0065b	6a 00		 push	 0
  0065d	e8 00 00 00 00	 call	 ?GetFloat@CScanner@@QAEMH@Z ; CScanner::GetFloat
  00662	d9 5d e8	 fstp	 DWORD PTR tv705[ebp]
  00665	f3 0f 10 45 e8	 movss	 xmm0, DWORD PTR tv705[ebp]
  0066a	0f 57 c9	 xorps	 xmm1, xmm1

; 342  : 				if( pProp->m_fBerserkDmgMul <= 0 || pProp->m_fBerserkDmgMul >= 20.0f )

  0066d	0f 2f c8	 comiss	 xmm1, xmm0
  00670	f3 0f 11 87 38
	02 00 00	 movss	 DWORD PTR [edi+568], xmm0
  00678	73 0d		 jae	 SHORT $LN98@LoadPropMo
  0067a	0f 2f 05 00 00
	00 00		 comiss	 xmm0, DWORD PTR __real@41a00000
  00681	0f 82 8b 00 00
	00		 jb	 $LN82@LoadPropMo
$LN98@LoadPropMo:
; File C:\Program Files\Microsoft Visual Studio\2022\Professional\VC\Tools\MSVC\14.44.35207\atlmfc\include\afxstr.h

; 56   : 		return( AfxGetStringManager() );

  00687	e8 00 00 00 00	 call	 ?AfxGetStringManager@@YGPAUIAtlStringMgr@ATL@@XZ ; AfxGetStringManager
  0068c	8b c8		 mov	 ecx, eax
; File C:\Program Files\Microsoft Visual Studio\2022\Professional\VC\Tools\MSVC\14.44.35207\atlmfc\include\atlsimpstr.h

; 209  : 		ATLENSURE( pStringMgr != NULL );

  0068e	85 c9		 test	 ecx, ecx
  00690	0f 84 0f 01 00
	00		 je	 $LN152@LoadPropMo

; 210  : 		CStringData* pData = pStringMgr->GetNilString();

  00696	8b 01		 mov	 eax, DWORD PTR [ecx]
  00698	ff 50 0c	 call	 DWORD PTR [eax+12]

; 211  : 		Attach( pData );

  0069b	83 c0 10	 add	 eax, 16			; 00000010H
  0069e	89 45 e8	 mov	 DWORD PTR _str$2[ebp], eax
; File C:\IAGOS\server\v18\Source\Source\_Common\ProjectLux.cpp

; 344  : 					CString str;

  006a1	f3 0f 10 87 38
	02 00 00	 movss	 xmm0, DWORD PTR [edi+568]

; 345  : 					str.Format( "Berserk명령의 데미지배수의 범위가 이상한거 같은디? %f", pProp->m_fBerserkDmgMul );

  006a9	8d 45 e8	 lea	 eax, DWORD PTR _str$2[ebp]
  006ac	0f 5a c0	 cvtps2pd xmm0, xmm0
  006af	83 ec 08	 sub	 esp, 8
  006b2	c7 45 fc 00 00
	00 00		 mov	 DWORD PTR __$EHRec$[ebp+8], 0
  006b9	f2 0f 11 04 24	 movsd	 QWORD PTR [esp], xmm0
  006be	68 00 00 00 00	 push	 OFFSET ??_C@_0DG@EGDLGKJJ@Berserk?$LI?m?$LH?I?$MA?G?5?$LF?$KF?$LJ?L?A?v?$LJ?h?$LM?v?$MA?G?5?$LJ?$PM?$MA?$KH@
  006c3	50		 push	 eax
  006c4	e8 00 00 00 00	 call	 ?Format@?$CStringT@DV?$StrTraitMFC@DV?$ChTraitsCRT@D@ATL@@@@@ATL@@QAAXPBDZZ ; ATL::CStringT<char,StrTraitMFC<char,ATL::ChTraitsCRT<char> > >::Format

; 346  : 					CUSTOM_ERROR( (LPCTSTR)str );

  006c9	8b 75 e8	 mov	 esi, DWORD PTR _str$2[ebp]
  006cc	83 c4 10	 add	 esp, 16			; 00000010H
  006cf	8b 03		 mov	 eax, DWORD PTR [ebx]
  006d1	8b cb		 mov	 ecx, ebx
  006d3	ff 73 3c	 push	 DWORD PTR [ebx+60]
  006d6	56		 push	 esi
  006d7	ff 75 10	 push	 DWORD PTR _nVal$[ebp]
  006da	6a 00		 push	 0
  006dc	ff 50 1c	 call	 DWORD PTR [eax+28]
  006df	50		 push	 eax
  006e0	ff 75 08	 push	 DWORD PTR _szFileName$[ebp]
  006e3	68 00 00 00 00	 push	 OFFSET ??_C@_0BK@IFOEIIPC@?$CFs?$CI?$CFd?$CJ?5?3?5MoverID?$DN?$CFd?5?$CFs?5?$CFs@
  006e8	e8 00 00 00 00	 call	 ?Error@@YAPBDPBDZZ	; Error
  006ed	83 c4 18	 add	 esp, 24			; 00000018H

; 347  : 				}

  006f0	c7 45 fc ff ff
	ff ff		 mov	 DWORD PTR __$EHRec$[ebp+8], -1
; File C:\Program Files\Microsoft Visual Studio\2022\Professional\VC\Tools\MSVC\14.44.35207\atlmfc\include\atlsimpstr.h

; 804  : 		return( reinterpret_cast< CStringData* >( m_pszData )-1 );

  006f7	83 c6 f0	 add	 esi, -16		; fffffff0H

; 92   : 		if( _InterlockedDecrement( &nRefs ) <= 0 )

  006fa	83 c8 ff	 or	 eax, -1
  006fd	f0 0f c1 46 0c	 lock	  xadd	 DWORD PTR [esi+12], eax
  00702	48		 dec	 eax
  00703	85 c0		 test	 eax, eax
  00705	7f 08		 jg	 SHORT $LN160@LoadPropMo

; 93   : 		{
; 94   : 			pStringMgr->Free( this );

  00707	8b 0e		 mov	 ecx, DWORD PTR [esi]
  00709	56		 push	 esi
  0070a	8b 01		 mov	 eax, DWORD PTR [ecx]
  0070c	ff 50 04	 call	 DWORD PTR [eax+4]
$LN160@LoadPropMo:
; File C:\IAGOS\server\v18\Source\Source\_Common\ProjectLux.cpp

; 119  : 		script.GetToken();		// 토큰 하나 읽음,.

  0070f	8b 75 f0	 mov	 esi, DWORD PTR _nCommand$1$[ebp]
$LN82@LoadPropMo:
  00712	8b 03		 mov	 eax, DWORD PTR [ebx]
  00714	8b cb		 mov	 ecx, ebx
  00716	6a 00		 push	 0
  00718	ff 50 14	 call	 DWORD PTR [eax+20]

; 120  : 		if( script.token[0] == '}' )	// BATTLE블럭 끝.

  0071b	8b 43 3c	 mov	 eax, DWORD PTR [ebx+60]
  0071e	80 38 7d	 cmp	 BYTE PTR [eax], 125	; 0000007dH
  00721	0f 85 a9 f9 ff
	ff		 jne	 $LL2@LoadPropMo
$LN147@LoadPropMo:

; 348  : 			}
; 349  : 		}
; 350  : 		
; 351  : 	}
; 352  : 	
; 353  : 	return TRUE;

  00727	b8 01 00 00 00	 mov	 eax, 1

; 354  : }

  0072c	8b 4d f4	 mov	 ecx, DWORD PTR __$EHRec$[ebp]
  0072f	64 89 0d 00 00
	00 00		 mov	 DWORD PTR fs:0, ecx
  00736	59		 pop	 ecx
  00737	5f		 pop	 edi
  00738	5e		 pop	 esi
  00739	5b		 pop	 ebx
  0073a	8b e5		 mov	 esp, ebp
  0073c	5d		 pop	 ebp
  0073d	c2 0c 00	 ret	 12			; 0000000cH
$LN71@LoadPropMo:

; 276  : 			{
; 277  : 				int nJob = MAX_JOB;
; 278  : 				int nRange	= atoi( script.token );			

  00740	50		 push	 eax
  00741	e8 00 00 00 00	 call	 _atoi
  00746	83 c4 04	 add	 esp, 4

; 279  : 
; 280  : 				if( nCommand == AICMD_KEEP_RANGEATTACK )

  00749	83 fe 07	 cmp	 esi, 7
  0074c	75 05		 jne	 SHORT $LN72@LoadPropMo

; 281  : 				{
; 282  : 					nRange |= 0x80;		// KEEP_RANGE는 상위 1비트 온.

  0074e	0d 80 00 00 00	 or	 eax, 128		; 00000080H
$LN72@LoadPropMo:

; 119  : 		script.GetToken();		// 토큰 하나 읽음,.

  00753	8a c8		 mov	 cl, al
  00755	0f b6 c9	 movzx	 ecx, cl
  00758	69 c9 01 01 01
	01		 imul	 ecx, 16843009		; 01010101H
  0075e	89 8f f8 01 00
	00		 mov	 DWORD PTR [edi+504], ecx
  00764	89 8f fc 01 00
	00		 mov	 DWORD PTR [edi+508], ecx
  0076a	89 8f 00 02 00
	00		 mov	 DWORD PTR [edi+512], ecx
  00770	89 8f 04 02 00
	00		 mov	 DWORD PTR [edi+516], ecx
  00776	89 8f 08 02 00
	00		 mov	 DWORD PTR [edi+520], ecx
  0077c	89 8f 0c 02 00
	00		 mov	 DWORD PTR [edi+524], ecx
  00782	89 8f 10 02 00
	00		 mov	 DWORD PTR [edi+528], ecx
  00788	89 8f 14 02 00
	00		 mov	 DWORD PTR [edi+532], ecx
  0078e	89 8f 18 02 00
	00		 mov	 DWORD PTR [edi+536], ecx
  00794	89 8f 1c 02 00
	00		 mov	 DWORD PTR [edi+540], ecx
  0079a	e9 73 ff ff ff	 jmp	 $LN82@LoadPropMo
$LN151@LoadPropMo:

; 249  : 			{
; 250  : 				SYNTAX_ERROR;

  0079f	50		 push	 eax

; 251  : 				return FALSE;

  007a0	e9 b5 fb ff ff	 jmp	 $LN163@LoadPropMo
$LN152@LoadPropMo:
; File C:\Program Files\Microsoft Visual Studio\2022\Professional\VC\Tools\MSVC\14.44.35207\atlmfc\include\atlsimpstr.h

; 209  : 		ATLENSURE( pStringMgr != NULL );

  007a5	68 05 40 00 80	 push	 -2147467259		; 80004005H
  007aa	e8 00 00 00 00	 call	 ?AtlThrowImpl@ATL@@YGXJ@Z ; ATL::AtlThrowImpl
$LN162@LoadPropMo:
  007af	cc		 int	 3
_TEXT	ENDS
;	COMDAT text$x
text$x	SEGMENT
__unwindfunclet$?LoadPropMoverEx_AI_BATTLE@CProject@@QAEHPBDAAVCScript@@H@Z$0:
  00000	8d 4d e8	 lea	 ecx, DWORD PTR _str$2[ebp]
  00003	e9 00 00 00 00	 jmp	 ??1?$CStringT@DV?$StrTraitMFC@DV?$ChTraitsCRT@D@ATL@@@@@ATL@@QAE@XZ ; ATL::CStringT<char,StrTraitMFC<char,ATL::ChTraitsCRT<char> > >::~CStringT<char,StrTraitMFC<char,ATL::ChTraitsCRT<char> > >
  00008	cc		 int	 3
  00009	cc		 int	 3
  0000a	cc		 int	 3
  0000b	cc		 int	 3
  0000c	cc		 int	 3
__ehhandler$?LoadPropMoverEx_AI_BATTLE@CProject@@QAEHPBDAAVCScript@@H@Z:
  0000d	90		 npad	 1
  0000e	90		 npad	 1
  0000f	8b 54 24 08	 mov	 edx, DWORD PTR [esp+8]
  00013	8d 42 0c	 lea	 eax, DWORD PTR [edx+12]
  00016	8b 4a e4	 mov	 ecx, DWORD PTR [edx-28]
  00019	33 c8		 xor	 ecx, eax
  0001b	e8 00 00 00 00	 call	 @__security_check_cookie@4
  00020	b8 00 00 00 00	 mov	 eax, OFFSET __ehfuncinfo$?LoadPropMoverEx_AI_BATTLE@CProject@@QAEHPBDAAVCScript@@H@Z
  00025	e9 00 00 00 00	 jmp	 ___CxxFrameHandler3
text$x	ENDS
?LoadPropMoverEx_AI_BATTLE@CProject@@QAEHPBDAAVCScript@@H@Z ENDP ; CProject::LoadPropMoverEx_AI_BATTLE
; Function compile flags: /Ogtp
; File C:\IAGOS\server\v18\Source\Source\_Common\ProjectLux.cpp
; File C:\IAGOS\server\v18\Source\Source\_Common\Project.h
; File C:\IAGOS\server\v18\Source\Source\_Common\ProjectLux.cpp
;	COMDAT ?LoadPropMoverEx_AI_SCAN@CProject@@QAEHPBDAAVCScript@@H@Z
_TEXT	SEGMENT
_this$1$ = -4						; size = 4
_szFileName$ = 8					; size = 4
_script$ = 12						; size = 4
_nVal$ = 16						; size = 4
?LoadPropMoverEx_AI_SCAN@CProject@@QAEHPBDAAVCScript@@H@Z PROC ; CProject::LoadPropMoverEx_AI_SCAN, COMDAT
; _this$ = ecx

; 44   : {

  00000	55		 push	 ebp
  00001	8b ec		 mov	 ebp, esp
  00003	51		 push	 ecx
  00004	53		 push	 ebx
  00005	56		 push	 esi

; 45   : 	AICMD nCommand = AICMD_NONE;
; 46   : 
; 47   : 	script.GetToken();	// {

  00006	8b 75 0c	 mov	 esi, DWORD PTR _script$[ebp]
  00009	33 db		 xor	 ebx, ebx
  0000b	57		 push	 edi
  0000c	8b f9		 mov	 edi, ecx
  0000e	8b ce		 mov	 ecx, esi
  00010	53		 push	 ebx
  00011	8b 06		 mov	 eax, DWORD PTR [esi]
  00013	89 7d fc	 mov	 DWORD PTR _this$1$[ebp], edi
  00016	ff 50 14	 call	 DWORD PTR [eax+20]

; 48   : 	if( script.token[0] != '{' )	// #SCAN 후에 {가 빠졌는가.

  00019	8b 46 3c	 mov	 eax, DWORD PTR [esi+60]
  0001c	80 38 7b	 cmp	 BYTE PTR [eax], 123	; 0000007bH
  0001f	74 27		 je	 SHORT $LN24@LoadPropMo

; 49   : 	{
; 50   : 		Error( "%s(%d) : MoverID=%d SCAN 섹터블럭 { 빠졌음.", szFileName, script.GetLineNum(), nVal );

  00021	ff 75 10	 push	 DWORD PTR _nVal$[ebp]
  00024	8b 06		 mov	 eax, DWORD PTR [esi]
  00026	8b ce		 mov	 ecx, esi
  00028	53		 push	 ebx
  00029	ff 50 1c	 call	 DWORD PTR [eax+28]
  0002c	50		 push	 eax
  0002d	ff 75 08	 push	 DWORD PTR _szFileName$[ebp]
  00030	68 00 00 00 00	 push	 OFFSET ??_C@_0CM@NNPGAIKO@?$CFs?$CI?$CFd?$CJ?5?3?5MoverID?$DN?$CFd?5SCAN?5?$LM?$LN?E?M?$LK?m@
  00035	e8 00 00 00 00	 call	 ?Error@@YAPBDPBDZZ	; Error
  0003a	83 c4 10	 add	 esp, 16			; 00000010H

; 51   : 		return FALSE;

  0003d	33 c0		 xor	 eax, eax
  0003f	5f		 pop	 edi

; 95   : 				//pProp->m_nAttackFirstRange = 3;
; 96   : 			}
; 97   : 		}
; 98   : 	}
; 99   : 
; 100  : 	return TRUE;
; 101  : }

  00040	5e		 pop	 esi
  00041	5b		 pop	 ebx
  00042	8b e5		 mov	 esp, ebp
  00044	5d		 pop	 ebp
  00045	c2 0c 00	 ret	 12			; 0000000cH
$LN24@LoadPropMo:
; File C:\IAGOS\server\v18\Source\Source\_Common\Project.h

; 1406 : 	VERIFY_RANGE( nIndex, 0, m_nMoverPropSize, "GetMoverProp range_error", NULL );

  00048	8b 4d 10	 mov	 ecx, DWORD PTR _nVal$[ebp]
  0004b	85 c9		 test	 ecx, ecx
  0004d	78 19		 js	 SHORT $LN37@LoadPropMo
  0004f	3b 8f b4 01 00
	00		 cmp	 ecx, DWORD PTR [edi+436]
  00055	7d 11		 jge	 SHORT $LN37@LoadPropMo

; 1407 : 	return m_pPropMover + nIndex;

  00057	8b 45 fc	 mov	 eax, DWORD PTR _this$1$[ebp]
  0005a	69 f9 90 06 00
	00		 imul	 edi, ecx, 1680
  00060	03 b8 b8 01 00
	00		 add	 edi, DWORD PTR [eax+440]
  00066	eb 1d		 jmp	 SHORT $LN21@LoadPropMo
$LN37@LoadPropMo:

; 579  : 	LPCTSTR szErr = Error( _T( "%s min:%d, max:%d, index:%d" ), szMsg, nMin, nMax, nIndex ); 

  00068	51		 push	 ecx
  00069	ff b7 b4 01 00
	00		 push	 DWORD PTR [edi+436]
  0006f	6a 00		 push	 0
  00071	68 00 00 00 00	 push	 OFFSET ??_C@_0BJ@GKPOBPPI@GetMoverProp?5range_error@
  00076	68 00 00 00 00	 push	 OFFSET ??_C@_0BM@HMFGHCP@?$CFs?5min?3?$CFd?0?5max?3?$CFd?0?5index?3?$CFd@
  0007b	e8 00 00 00 00	 call	 ?Error@@YAPBDPBDZZ	; Error
  00080	83 c4 14	 add	 esp, 20			; 00000014H

; 1406 : 	VERIFY_RANGE( nIndex, 0, m_nMoverPropSize, "GetMoverProp range_error", NULL );

  00083	33 ff		 xor	 edi, edi
$LN21@LoadPropMo:
; File C:\IAGOS\server\v18\Source\Source\_Common\ProjectLux.cpp

; 58   : 		script.GetToken();		// 토큰 하나 읽음,.

  00085	8b 06		 mov	 eax, DWORD PTR [esi]
  00087	8b ce		 mov	 ecx, esi
  00089	6a 00		 push	 0
  0008b	ff 50 14	 call	 DWORD PTR [eax+20]

; 59   : 		if( script.token[0] == '}' )	// SCAN블럭 끝.

  0008e	8b 46 3c	 mov	 eax, DWORD PTR [esi+60]
  00091	80 38 7d	 cmp	 BYTE PTR [eax], 125	; 0000007dH
  00094	0f 84 00 01 00
	00		 je	 $LN32@LoadPropMo
  0009a	66 0f 1f 44 00
	00		 npad	 6
$LL2@LoadPropMo:

; 60   : 			break;
; 61   : 
; 62   : 		if( script.tokenType == IDENTIFIER )		// 토큰이 식별자.

  000a0	83 be 40 08 00
	00 02		 cmp	 DWORD PTR [esi+2112], 2
  000a7	0f 85 d8 00 00
	00		 jne	 $LN18@LoadPropMo

; 63   : 		{
; 64   : 			if( nCommand == AICMD_SCAN )		// scan명령어가 나왔었다.

  000ad	83 fb 01	 cmp	 ebx, 1
  000b0	0f 85 b4 00 00
	00		 jne	 $LN17@LoadPropMo

; 65   : 			{
; 66   : 				if( strcmpi( script.token, "job" ) == 0 )		// 스캔 직업 

  000b6	68 00 00 00 00	 push	 OFFSET ??_C@_03JOGALCLM@job@
  000bb	50		 push	 eax
  000bc	e8 00 00 00 00	 call	 _strcmpi
  000c1	83 c4 08	 add	 esp, 8
  000c4	85 c0		 test	 eax, eax
  000c6	75 13		 jne	 SHORT $LN8@LoadPropMo

; 67   : 					pProp->m_nScanJob = script.GetNumber();

  000c8	50		 push	 eax
  000c9	8b ce		 mov	 ecx, esi
  000cb	e8 00 00 00 00	 call	 ?GetNumber@CScanner@@QAEHH@Z ; CScanner::GetNumber
  000d0	89 87 dc 01 00
	00		 mov	 DWORD PTR [edi+476], eax
  000d6	e9 8f 00 00 00	 jmp	 $LN17@LoadPropMo
$LN8@LoadPropMo:

; 68   : 				else 
; 69   : 				if( strcmpi( script.token, "range" ) == 0 )		// 스캔 범위 

  000db	68 00 00 00 00	 push	 OFFSET ??_C@_05CCGOGOBM@range@
  000e0	ff 76 3c	 push	 DWORD PTR [esi+60]
  000e3	e8 00 00 00 00	 call	 _strcmpi
  000e8	83 c4 08	 add	 esp, 8
  000eb	85 c0		 test	 eax, eax
  000ed	75 11		 jne	 SHORT $LN10@LoadPropMo

; 70   : 					pProp->m_nAttackFirstRange = script.GetNumber();

  000ef	50		 push	 eax
  000f0	8b ce		 mov	 ecx, esi
  000f2	e8 00 00 00 00	 call	 ?GetNumber@CScanner@@QAEHH@Z ; CScanner::GetNumber
  000f7	66 89 87 86 02
	00 00		 mov	 WORD PTR [edi+646], ax
  000fe	eb 6a		 jmp	 SHORT $LN17@LoadPropMo
$LN10@LoadPropMo:

; 71   : 				else 
; 72   : 				if( strcmpi( script.token, "quest" ) == 0 )	// 퀘스트를 갖은 플레이어 스켄 

  00100	68 00 00 00 00	 push	 OFFSET ??_C@_05KOGNICEN@quest@
  00105	ff 76 3c	 push	 DWORD PTR [esi+60]
  00108	e8 00 00 00 00	 call	 _strcmpi
  0010d	83 c4 08	 add	 esp, 8
  00110	85 c0		 test	 eax, eax
  00112	75 10		 jne	 SHORT $LN12@LoadPropMo

; 73   : 					pProp->m_dwScanQuestId = script.GetNumber();

  00114	50		 push	 eax
  00115	8b ce		 mov	 ecx, esi
  00117	e8 00 00 00 00	 call	 ?GetNumber@CScanner@@QAEHH@Z ; CScanner::GetNumber
  0011c	89 87 44 02 00
	00		 mov	 DWORD PTR [edi+580], eax
  00122	eb 46		 jmp	 SHORT $LN17@LoadPropMo
$LN12@LoadPropMo:

; 74   : 				else 
; 75   : 				if( strcmpi( script.token, "item" ) == 0 )	// 해당 아이템을 갖은 플레이어 스켄 

  00124	68 00 00 00 00	 push	 OFFSET ??_C@_04NHONDGDE@item@
  00129	ff 76 3c	 push	 DWORD PTR [esi+60]
  0012c	e8 00 00 00 00	 call	 _strcmpi
  00131	83 c4 08	 add	 esp, 8
  00134	85 c0		 test	 eax, eax
  00136	75 10		 jne	 SHORT $LN14@LoadPropMo

; 76   : 					pProp->m_dwScanItemIdx = script.GetNumber();

  00138	50		 push	 eax
  00139	8b ce		 mov	 ecx, esi
  0013b	e8 00 00 00 00	 call	 ?GetNumber@CScanner@@QAEHH@Z ; CScanner::GetNumber
  00140	89 87 48 02 00
	00		 mov	 DWORD PTR [edi+584], eax
  00146	eb 22		 jmp	 SHORT $LN17@LoadPropMo
$LN14@LoadPropMo:

; 77   : 				else
; 78   : 				if( strcmpi( script.token, "chao" ) == 0 )	// 해당 아이템을 갖은 플레이어 스켄 

  00148	68 00 00 00 00	 push	 OFFSET ??_C@_04LCKNAMOM@chao@
  0014d	ff 76 3c	 push	 DWORD PTR [esi+60]
  00150	e8 00 00 00 00	 call	 _strcmpi
  00155	83 c4 08	 add	 esp, 8
  00158	8b ce		 mov	 ecx, esi
  0015a	85 c0		 test	 eax, eax
  0015c	75 4a		 jne	 SHORT $LN16@LoadPropMo

; 79   : 					pProp->m_nScanChao = script.GetNumber();

  0015e	50		 push	 eax
  0015f	e8 00 00 00 00	 call	 ?GetNumber@CScanner@@QAEHH@Z ; CScanner::GetNumber
  00164	89 87 4c 02 00
	00		 mov	 DWORD PTR [edi+588], eax
$LN17@LoadPropMo:

; 85   : 				}
; 86   : 			}
; 87   : 			if( strcmpi( script.Token, "scan" ) == 0 )	// 명령어.

  0016a	68 00 00 00 00	 push	 OFFSET ??_C@_04BMFHCNCO@scan@
  0016f	ff 76 20	 push	 DWORD PTR [esi+32]
  00172	e8 00 00 00 00	 call	 _strcmpi
  00177	83 c4 08	 add	 esp, 8
  0017a	85 c0		 test	 eax, eax
  0017c	75 07		 jne	 SHORT $LN18@LoadPropMo

; 88   : 			{
; 89   : 				if( nCommand )	// 이미 뭔가 명령이 세팅되었는데 또 나왔다.

  0017e	85 db		 test	 ebx, ebx
  00180	75 4f		 jne	 SHORT $LN33@LoadPropMo

; 93   : 				}
; 94   : 				nCommand =	AICMD_SCAN;	// scan명령

  00182	8d 58 01	 lea	 ebx, DWORD PTR [eax+1]
$LN18@LoadPropMo:

; 58   : 		script.GetToken();		// 토큰 하나 읽음,.

  00185	8b 06		 mov	 eax, DWORD PTR [esi]
  00187	8b ce		 mov	 ecx, esi
  00189	6a 00		 push	 0
  0018b	ff 50 14	 call	 DWORD PTR [eax+20]

; 59   : 		if( script.token[0] == '}' )	// SCAN블럭 끝.

  0018e	8b 46 3c	 mov	 eax, DWORD PTR [esi+60]
  00191	80 38 7d	 cmp	 BYTE PTR [eax], 125	; 0000007dH
  00194	0f 85 06 ff ff
	ff		 jne	 $LL2@LoadPropMo
$LN32@LoadPropMo:
  0019a	5f		 pop	 edi

; 95   : 				//pProp->m_nAttackFirstRange = 3;
; 96   : 			}
; 97   : 		}
; 98   : 	}
; 99   : 
; 100  : 	return TRUE;
; 101  : }

  0019b	5e		 pop	 esi
  0019c	b8 01 00 00 00	 mov	 eax, 1
  001a1	5b		 pop	 ebx
  001a2	8b e5		 mov	 esp, ebp
  001a4	5d		 pop	 ebp
  001a5	c2 0c 00	 ret	 12			; 0000000cH
$LN16@LoadPropMo:

; 80   : 				else
; 81   : 				{
; 82   : 					// 스켄 뒤에 나온 스트링이 아무것도 아니라면 문제가 있음 
; 83   : 					SYNTAX_ERROR;

  001a8	ff 76 3c	 push	 DWORD PTR [esi+60]
  001ab	8b 06		 mov	 eax, DWORD PTR [esi]
  001ad	ff 75 10	 push	 DWORD PTR _nVal$[ebp]
  001b0	6a 00		 push	 0
  001b2	ff 50 1c	 call	 DWORD PTR [eax+28]
  001b5	50		 push	 eax
  001b6	ff 75 08	 push	 DWORD PTR _szFileName$[ebp]
  001b9	68 00 00 00 00	 push	 OFFSET ??_C@_0CE@DOIGNPAP@?$CFs?$CI?$CFd?$CJ?5?3?5MoverID?$DN?$CFd?5syntax?5erro@
  001be	e8 00 00 00 00	 call	 ?Error@@YAPBDPBDZZ	; Error
  001c3	83 c4 14	 add	 esp, 20			; 00000014H

; 84   : 					return FALSE;

  001c6	33 c0		 xor	 eax, eax
  001c8	5f		 pop	 edi

; 95   : 				//pProp->m_nAttackFirstRange = 3;
; 96   : 			}
; 97   : 		}
; 98   : 	}
; 99   : 
; 100  : 	return TRUE;
; 101  : }

  001c9	5e		 pop	 esi
  001ca	5b		 pop	 ebx
  001cb	8b e5		 mov	 esp, ebp
  001cd	5d		 pop	 ebp
  001ce	c2 0c 00	 ret	 12			; 0000000cH
$LN33@LoadPropMo:

; 90   : 				{
; 91   : 					SYNTAX_ERROR;

  001d1	ff 76 3c	 push	 DWORD PTR [esi+60]
  001d4	8b 06		 mov	 eax, DWORD PTR [esi]
  001d6	8b ce		 mov	 ecx, esi
  001d8	ff 75 10	 push	 DWORD PTR _nVal$[ebp]
  001db	6a 00		 push	 0
  001dd	ff 50 1c	 call	 DWORD PTR [eax+28]
  001e0	50		 push	 eax
  001e1	ff 75 08	 push	 DWORD PTR _szFileName$[ebp]
  001e4	68 00 00 00 00	 push	 OFFSET ??_C@_0CE@DOIGNPAP@?$CFs?$CI?$CFd?$CJ?5?3?5MoverID?$DN?$CFd?5syntax?5erro@
  001e9	e8 00 00 00 00	 call	 ?Error@@YAPBDPBDZZ	; Error
  001ee	83 c4 14	 add	 esp, 20			; 00000014H

; 92   : 					return FALSE;

  001f1	33 c0		 xor	 eax, eax
  001f3	5f		 pop	 edi

; 95   : 				//pProp->m_nAttackFirstRange = 3;
; 96   : 			}
; 97   : 		}
; 98   : 	}
; 99   : 
; 100  : 	return TRUE;
; 101  : }

  001f4	5e		 pop	 esi
  001f5	5b		 pop	 ebx
  001f6	8b e5		 mov	 esp, ebp
  001f8	5d		 pop	 ebp
  001f9	c2 0c 00	 ret	 12			; 0000000cH
?LoadPropMoverEx_AI_SCAN@CProject@@QAEHPBDAAVCScript@@H@Z ENDP ; CProject::LoadPropMoverEx_AI_SCAN
_TEXT	ENDS
; Function compile flags: /Ogtp
; File C:\Program Files\Microsoft Visual Studio\2022\Professional\VC\Tools\MSVC\14.44.35207\atlmfc\include\cstringt.h
; File C:\Program Files\Microsoft Visual Studio\2022\Professional\VC\Tools\MSVC\14.44.35207\atlmfc\include\afxstr.h
; File C:\Program Files\Microsoft Visual Studio\2022\Professional\VC\Tools\MSVC\14.44.35207\atlmfc\include\cstringt.h
; File C:\Program Files\Microsoft Visual Studio\2022\Professional\VC\Tools\MSVC\14.44.35207\atlmfc\include\afxstr.h
; File C:\Program Files\Microsoft Visual Studio\2022\Professional\VC\Tools\MSVC\14.44.35207\atlmfc\include\cstringt.h
; File C:\Program Files\Microsoft Visual Studio\2022\Professional\VC\Tools\MSVC\14.44.35207\atlmfc\include\atlcore.h
; File C:\Program Files\Microsoft Visual Studio\2022\Professional\VC\Tools\MSVC\14.44.35207\atlmfc\include\cstringt.h
; File C:\Program Files\Microsoft Visual Studio\2022\Professional\VC\Tools\MSVC\14.44.35207\atlmfc\include\atlsimpstr.h
; File C:\Program Files\Microsoft Visual Studio\2022\Professional\VC\Tools\MSVC\14.44.35207\atlmfc\include\cstringt.h
; File C:\Program Files\Microsoft Visual Studio\2022\Professional\VC\Tools\MSVC\14.44.35207\atlmfc\include\atlsimpstr.h
; File C:\Program Files\Microsoft Visual Studio\2022\Professional\VC\Tools\MSVC\14.44.35207\atlmfc\include\cstringt.h
; File C:\Program Files\Microsoft Visual Studio\2022\Professional\VC\Tools\MSVC\14.44.35207\atlmfc\include\atlsimpstr.h
; File C:\Program Files\Microsoft Visual Studio\2022\Professional\VC\Tools\MSVC\14.44.35207\atlmfc\include\cstringt.h
; File C:\Program Files\Microsoft Visual Studio\2022\Professional\VC\Tools\MSVC\14.44.35207\atlmfc\include\atlsimpstr.h
; File C:\Program Files\Microsoft Visual Studio\2022\Professional\VC\Tools\MSVC\14.44.35207\atlmfc\include\cstringt.h
;	COMDAT ?LoadStringA@?$CStringT@DV?$StrTraitMFC@DV?$ChTraitsCRT@D@ATL@@@@@ATL@@QAEHI@Z
_TEXT	SEGMENT
_this$1$ = -4						; size = 4
_nID$ = 8						; size = 4
_hResource$1$ = 8					; size = 4
?LoadStringA@?$CStringT@DV?$StrTraitMFC@DV?$ChTraitsCRT@D@ATL@@@@@ATL@@QAEHI@Z PROC ; ATL::CStringT<char,StrTraitMFC<char,ATL::ChTraitsCRT<char> > >::LoadStringA, COMDAT
; _this$ = ecx

; 2340 : 	{

  00000	55		 push	 ebp
  00001	8b ec		 mov	 ebp, esp
  00003	51		 push	 ecx
  00004	53		 push	 ebx
  00005	57		 push	 edi
; File C:\Program Files\Microsoft Visual Studio\2022\Professional\VC\Tools\MSVC\14.44.35207\atlmfc\include\afxstr.h

; 51   : 		return( AfxFindStringResourceHandle( nID ) );

  00006	8b 7d 08	 mov	 edi, DWORD PTR _nID$[ebp]
  00009	57		 push	 edi
; File C:\Program Files\Microsoft Visual Studio\2022\Professional\VC\Tools\MSVC\14.44.35207\atlmfc\include\cstringt.h

; 2340 : 	{

  0000a	89 4d fc	 mov	 DWORD PTR _this$1$[ebp], ecx
; File C:\Program Files\Microsoft Visual Studio\2022\Professional\VC\Tools\MSVC\14.44.35207\atlmfc\include\afxstr.h

; 51   : 		return( AfxFindStringResourceHandle( nID ) );

  0000d	e8 00 00 00 00	 call	 ?AfxFindStringResourceHandle@@YGPAUHINSTANCE__@@I@Z ; AfxFindStringResourceHandle
; File C:\Program Files\Microsoft Visual Studio\2022\Professional\VC\Tools\MSVC\14.44.35207\atlmfc\include\cstringt.h

; 2341 : 		HINSTANCE hInstance = StringTraits::FindStringResourceInstance( nID );

  00012	8b d8		 mov	 ebx, eax

; 2342 : 		if( hInstance == NULL )

  00014	85 db		 test	 ebx, ebx
  00016	75 08		 jne	 SHORT $LN2@LoadString

; 2348 : 	}

  00018	5f		 pop	 edi
  00019	5b		 pop	 ebx
  0001a	8b e5		 mov	 esp, ebp
  0001c	5d		 pop	 ebp
  0001d	c2 04 00	 ret	 4
$LN2@LoadString:
; File C:\Program Files\Microsoft Visual Studio\2022\Professional\VC\Tools\MSVC\14.44.35207\atlmfc\include\atlcore.h

; 380  : 	hResource = ::FindResourceW(hInstance, MAKEINTRESOURCEW( (((id>>4)+1) & static_cast<WORD>(~0)) ), (LPWSTR) RT_STRING);

  00020	8b c7		 mov	 eax, edi
  00022	c1 e8 04	 shr	 eax, 4
  00025	56		 push	 esi
  00026	40		 inc	 eax
  00027	6a 06		 push	 6
  00029	0f b7 c0	 movzx	 eax, ax
  0002c	50		 push	 eax
  0002d	53		 push	 ebx
  0002e	ff 15 00 00 00
	00		 call	 DWORD PTR __imp__FindResourceW@12
  00034	89 45 08	 mov	 DWORD PTR _hResource$1$[ebp], eax

; 381  : 	if( hResource == NULL )

  00037	85 c0		 test	 eax, eax
  00039	0f 84 cc 00 00
	00		 je	 $LN51@LoadString

; 338  : 	hGlobal = ::LoadResource( hInstance, hResource );

  0003f	50		 push	 eax
  00040	53		 push	 ebx
  00041	ff 15 00 00 00
	00		 call	 DWORD PTR __imp__LoadResource@8

; 339  : 	if( hGlobal == NULL )

  00047	85 c0		 test	 eax, eax
  00049	75 04		 jne	 SHORT $LN15@LoadString

; 340  : 	{
; 341  : 		return( NULL );

  0004b	33 f6		 xor	 esi, esi
  0004d	eb 43		 jmp	 SHORT $LN18@LoadString
$LN15@LoadString:

; 342  : 	}
; 343  : 
; 344  : 	pImage = (const ATLSTRINGRESOURCEIMAGE*)::LockResource( hGlobal );

  0004f	50		 push	 eax
  00050	ff 15 00 00 00
	00		 call	 DWORD PTR __imp__LockResource@4
  00056	8b f0		 mov	 esi, eax

; 345  : 	if( pImage == NULL )

  00058	85 f6		 test	 esi, esi
  0005a	74 36		 je	 SHORT $LN18@LoadString
$LN16@LoadString:

; 346  : 	{
; 347  : 		return( NULL );
; 348  : 	}
; 349  : 
; 350  : 	nResourceSize = ::SizeofResource( hInstance, hResource );

  0005c	ff 75 08	 push	 DWORD PTR _hResource$1$[ebp]
  0005f	53		 push	 ebx
  00060	ff 15 00 00 00
	00		 call	 DWORD PTR __imp__SizeofResource@8

; 351  : 	pImageEnd = (const ATLSTRINGRESOURCEIMAGE*)(LPBYTE( pImage )+nResourceSize);

  00066	8d 0c 06	 lea	 ecx, DWORD PTR [esi+eax]

; 352  : 	iIndex = id&0x000f;

  00069	83 e7 0f	 and	 edi, 15			; 0000000fH

; 353  : 
; 354  : 	while( (iIndex > 0) && (pImage < pImageEnd) )

  0006c	76 14		 jbe	 SHORT $LN14@LoadString
  0006e	66 90		 npad	 2
$LL13@LoadString:
  00070	3b f1		 cmp	 esi, ecx
  00072	73 12		 jae	 SHORT $LN50@LoadString

; 355  : 	{
; 356  : 		pImage = (const ATLSTRINGRESOURCEIMAGE*)(LPBYTE( pImage )+(sizeof( ATLSTRINGRESOURCEIMAGE )+(pImage->nLength*sizeof( WCHAR ))));

  00074	0f b7 06	 movzx	 eax, WORD PTR [esi]
  00077	8d 34 46	 lea	 esi, DWORD PTR [esi+eax*2]
  0007a	83 c6 02	 add	 esi, 2

; 357  : 		iIndex--;

  0007d	83 ef 01	 sub	 edi, 1
  00080	75 ee		 jne	 SHORT $LL13@LoadString
$LN14@LoadString:

; 358  : 	}
; 359  : 	if( pImage >= pImageEnd )

  00082	3b f1		 cmp	 esi, ecx
  00084	72 04		 jb	 SHORT $LN17@LoadString
$LN50@LoadString:

; 360  : 	{
; 361  : 		return( NULL );

  00086	33 f6		 xor	 esi, esi
  00088	eb 08		 jmp	 SHORT $LN18@LoadString
$LN17@LoadString:

; 362  : 	}
; 363  : 	if( pImage->nLength == 0 )

  0008a	33 c0		 xor	 eax, eax
  0008c	66 39 06	 cmp	 WORD PTR [esi], ax
  0008f	0f 44 f0	 cmove	 esi, eax
$LN18@LoadString:
; File C:\Program Files\Microsoft Visual Studio\2022\Professional\VC\Tools\MSVC\14.44.35207\atlmfc\include\cstringt.h

; 2356 : 		if( pImage == NULL )

  00092	85 f6		 test	 esi, esi
  00094	74 75		 je	 SHORT $LN51@LoadString

; 2359 : 		}
; 2360 : 
; 2361 : 		int nLength = StringTraits::GetBaseTypeLength( pImage->achString, pImage->nLength );

  00096	0f b7 06	 movzx	 eax, WORD PTR [esi]
  00099	8d 4e 02	 lea	 ecx, DWORD PTR [esi+2]

; 350  : 		return ::WideCharToMultiByte( _AtlGetConversionACP(), 0, pszSource, nLength, NULL, 0, NULL, NULL );

  0009c	6a 00		 push	 0
  0009e	6a 00		 push	 0
  000a0	6a 00		 push	 0
  000a2	6a 00		 push	 0
  000a4	50		 push	 eax
  000a5	51		 push	 ecx
  000a6	6a 00		 push	 0
  000a8	6a 03		 push	 3
  000aa	ff 15 00 00 00
	00		 call	 DWORD PTR __imp__WideCharToMultiByte@32

; 2361 : 		int nLength = StringTraits::GetBaseTypeLength( pImage->achString, pImage->nLength );

  000b0	8b f8		 mov	 edi, eax
; File C:\Program Files\Microsoft Visual Studio\2022\Professional\VC\Tools\MSVC\14.44.35207\atlmfc\include\atlsimpstr.h

; 808  : 		if (nLength < 0)

  000b2	85 ff		 test	 edi, edi
  000b4	78 60		 js	 SHORT $LN38@LoadString

; 804  : 		return( reinterpret_cast< CStringData* >( m_pszData )-1 );

  000b6	8b 5d fc	 mov	 ebx, DWORD PTR _this$1$[ebp]

; 812  : 		int nShared = 1-pOldData->nRefs;  // nShared < 0 means true, >= 0 means false

  000b9	ba 01 00 00 00	 mov	 edx, 1

; 804  : 		return( reinterpret_cast< CStringData* >( m_pszData )-1 );

  000be	8b 0b		 mov	 ecx, DWORD PTR [ebx]

; 812  : 		int nShared = 1-pOldData->nRefs;  // nShared < 0 means true, >= 0 means false

  000c0	2b 51 fc	 sub	 edx, DWORD PTR [ecx-4]

; 813  : 		int nTooShort = pOldData->nAllocLength-nLength;  // nTooShort < 0 means true, >= 0 means false

  000c3	8b 49 f8	 mov	 ecx, DWORD PTR [ecx-8]
  000c6	2b cf		 sub	 ecx, edi

; 814  : 		if( (nShared|nTooShort) < 0 )  // If either sign bit is set (i.e. either is less than zero), we need to copy data

  000c8	0b d1		 or	 edx, ecx
  000ca	7d 08		 jge	 SHORT $LN26@LoadString

; 815  : 		{
; 816  : 			PrepareWrite2( nLength );

  000cc	57		 push	 edi
  000cd	8b cb		 mov	 ecx, ebx
  000cf	e8 00 00 00 00	 call	 ?PrepareWrite2@?$CSimpleStringT@D$0A@@ATL@@AAEXH@Z ; ATL::CSimpleStringT<char,0>::PrepareWrite2
$LN26@LoadString:
; File C:\Program Files\Microsoft Visual Studio\2022\Professional\VC\Tools\MSVC\14.44.35207\atlmfc\include\cstringt.h

; 2363 : 		StringTraits::ConvertToBaseType( pszBuffer, nLength, pImage->achString, pImage->nLength );

  000d4	0f b7 06	 movzx	 eax, WORD PTR [esi]

; 372  : 		::WideCharToMultiByte( _AtlGetConversionACP(), 0, pszSrc, nSrcLength, pszDest, nDestLength, NULL, NULL );

  000d7	6a 00		 push	 0
  000d9	6a 00		 push	 0
  000db	57		 push	 edi
  000dc	ff 33		 push	 DWORD PTR [ebx]
  000de	50		 push	 eax
  000df	8d 46 02	 lea	 eax, DWORD PTR [esi+2]
  000e2	50		 push	 eax
  000e3	6a 00		 push	 0
  000e5	6a 03		 push	 3
  000e7	ff 15 00 00 00
	00		 call	 DWORD PTR __imp__WideCharToMultiByte@32
; File C:\Program Files\Microsoft Visual Studio\2022\Professional\VC\Tools\MSVC\14.44.35207\atlmfc\include\atlsimpstr.h

; 875  : 		if( nLength < 0 || nLength > GetData()->nAllocLength)

  000ed	8b 03		 mov	 eax, DWORD PTR [ebx]
  000ef	3b 78 f8	 cmp	 edi, DWORD PTR [eax-8]
  000f2	7f 22		 jg	 SHORT $LN38@LoadString

; 877  : 
; 878  : 		GetData()->nDataLength = nLength;

  000f4	89 78 f4	 mov	 DWORD PTR [eax-12], edi

; 879  : 		m_pszData[nLength] = 0;

  000f7	8b 03		 mov	 eax, DWORD PTR [ebx]
; File C:\Program Files\Microsoft Visual Studio\2022\Professional\VC\Tools\MSVC\14.44.35207\atlmfc\include\cstringt.h

; 2347 : 		return( LoadString( hInstance, nID ) );

  000f9	5e		 pop	 esi
; File C:\Program Files\Microsoft Visual Studio\2022\Professional\VC\Tools\MSVC\14.44.35207\atlmfc\include\atlsimpstr.h

; 879  : 		m_pszData[nLength] = 0;

  000fa	c6 04 07 00	 mov	 BYTE PTR [edi+eax], 0
; File C:\Program Files\Microsoft Visual Studio\2022\Professional\VC\Tools\MSVC\14.44.35207\atlmfc\include\cstringt.h

; 2366 : 		return( TRUE );

  000fe	b8 01 00 00 00	 mov	 eax, 1
  00103	5f		 pop	 edi

; 2348 : 	}

  00104	5b		 pop	 ebx
  00105	8b e5		 mov	 esp, ebp
  00107	5d		 pop	 ebp
  00108	c2 04 00	 ret	 4
$LN51@LoadString:

; 2347 : 		return( LoadString( hInstance, nID ) );

  0010b	5e		 pop	 esi
  0010c	5f		 pop	 edi

; 2358 : 			return( FALSE );

  0010d	33 c0		 xor	 eax, eax

; 2348 : 	}

  0010f	5b		 pop	 ebx
  00110	8b e5		 mov	 esp, ebp
  00112	5d		 pop	 ebp
  00113	c2 04 00	 ret	 4
$LN38@LoadString:
; File C:\Program Files\Microsoft Visual Studio\2022\Professional\VC\Tools\MSVC\14.44.35207\atlmfc\include\atlsimpstr.h

; 876  : 			AtlThrow(E_INVALIDARG);

  00116	68 57 00 07 80	 push	 -2147024809		; 80070057H
  0011b	e8 00 00 00 00	 call	 ?AtlThrowImpl@ATL@@YGXJ@Z ; ATL::AtlThrowImpl
$LN63@LoadString:
  00120	cc		 int	 3
?LoadStringA@?$CStringT@DV?$StrTraitMFC@DV?$ChTraitsCRT@D@ATL@@@@@ATL@@QAEHI@Z ENDP ; ATL::CStringT<char,StrTraitMFC<char,ATL::ChTraitsCRT<char> > >::LoadStringA
_TEXT	ENDS
; Function compile flags: /Ogtp
; File C:\Program Files\Microsoft Visual Studio\2022\Professional\VC\Tools\MSVC\14.44.35207\atlmfc\include\cstringt.h
; File C:\Program Files (x86)\Windows Kits\10\Include\10.0.26100.0\ucrt\stdio.h
; File C:\Program Files\Microsoft Visual Studio\2022\Professional\VC\Tools\MSVC\14.44.35207\atlmfc\include\cstringt.h
; File C:\Program Files\Microsoft Visual Studio\2022\Professional\VC\Tools\MSVC\14.44.35207\atlmfc\include\atlsimpstr.h
; File C:\Program Files\Microsoft Visual Studio\2022\Professional\VC\Tools\MSVC\14.44.35207\atlmfc\include\cstringt.h
; File C:\Program Files\Microsoft Visual Studio\2022\Professional\VC\Tools\MSVC\14.44.35207\atlmfc\include\afxstr.h
; File C:\Program Files\Microsoft Visual Studio\2022\Professional\VC\Tools\MSVC\14.44.35207\atlmfc\include\cstringt.h
; File C:\Program Files\Microsoft Visual Studio\2022\Professional\VC\Tools\MSVC\14.44.35207\atlmfc\include\atlsimpstr.h
; File C:\Program Files\Microsoft Visual Studio\2022\Professional\VC\Tools\MSVC\14.44.35207\atlmfc\include\cstringt.h
; File C:\Program Files\Microsoft Visual Studio\2022\Professional\VC\Tools\MSVC\14.44.35207\atlmfc\include\atlsimpstr.h
; File C:\Program Files\Microsoft Visual Studio\2022\Professional\VC\Tools\MSVC\14.44.35207\atlmfc\include\cstringt.h
; File C:\Program Files\Microsoft Visual Studio\2022\Professional\VC\Tools\MSVC\14.44.35207\atlmfc\include\atlsimpstr.h
; File C:\Program Files (x86)\Windows Kits\10\Include\10.0.26100.0\ucrt\stdio.h
; File C:\Program Files\Microsoft Visual Studio\2022\Professional\VC\Tools\MSVC\14.44.35207\atlmfc\include\cstringt.h
; File C:\Program Files (x86)\Windows Kits\10\Include\10.0.26100.0\ucrt\stdio.h
; File C:\Program Files\Microsoft Visual Studio\2022\Professional\VC\Tools\MSVC\14.44.35207\atlmfc\include\atlsimpstr.h
; File C:\Program Files (x86)\Windows Kits\10\Include\10.0.26100.0\ucrt\stdio.h
; File C:\Program Files\Microsoft Visual Studio\2022\Professional\VC\Tools\MSVC\14.44.35207\atlmfc\include\atlsimpstr.h
; File C:\Program Files\Microsoft Visual Studio\2022\Professional\VC\Tools\MSVC\14.44.35207\atlmfc\include\cstringt.h
; File C:\Program Files\Microsoft Visual Studio\2022\Professional\VC\Tools\MSVC\14.44.35207\atlmfc\include\atlsimpstr.h
; File C:\Program Files\Microsoft Visual Studio\2022\Professional\VC\Tools\MSVC\14.44.35207\atlmfc\include\cstringt.h
; File C:\Program Files\Microsoft Visual Studio\2022\Professional\VC\Tools\MSVC\14.44.35207\atlmfc\include\atlsimpstr.h
; File C:\Program Files\Microsoft Visual Studio\2022\Professional\VC\Tools\MSVC\14.44.35207\atlmfc\include\cstringt.h
;	COMDAT ?FormatV@?$CStringT@DV?$StrTraitMFC@DV?$ChTraitsCRT@D@ATL@@@@@ATL@@QAEXPBDPAD@Z
_TEXT	SEGMENT
tv456 = -16						; size = 4
__$EHRec$ = -12						; size = 12
_pszFormat$ = 8						; size = 4
_temp$ = 8						; size = 4
_args$ = 12						; size = 4
?FormatV@?$CStringT@DV?$StrTraitMFC@DV?$ChTraitsCRT@D@ATL@@@@@ATL@@QAEXPBDPAD@Z PROC ; ATL::CStringT<char,StrTraitMFC<char,ATL::ChTraitsCRT<char> > >::FormatV, COMDAT
; _this$ = ecx

; 2225 : 	{

  00000	55		 push	 ebp
  00001	8b ec		 mov	 ebp, esp
  00003	6a ff		 push	 -1
  00005	68 00 00 00 00	 push	 __ehhandler$?FormatV@?$CStringT@DV?$StrTraitMFC@DV?$ChTraitsCRT@D@ATL@@@@@ATL@@QAEXPBDPAD@Z
  0000a	64 a1 00 00 00
	00		 mov	 eax, DWORD PTR fs:0
  00010	50		 push	 eax
  00011	51		 push	 ecx
  00012	53		 push	 ebx
  00013	56		 push	 esi
  00014	57		 push	 edi
  00015	a1 00 00 00 00	 mov	 eax, DWORD PTR ___security_cookie
  0001a	33 c5		 xor	 eax, ebp
  0001c	50		 push	 eax
  0001d	8d 45 f4	 lea	 eax, DWORD PTR __$EHRec$[ebp]
  00020	64 a3 00 00 00
	00		 mov	 DWORD PTR fs:0, eax
  00026	8b d9		 mov	 ebx, ecx

; 2226 : 		ATLASSERT( AtlIsValidString( pszFormat ) );
; 2227 : 		if(pszFormat == NULL)

  00028	8b 75 08	 mov	 esi, DWORD PTR _pszFormat$[ebp]
  0002b	85 f6		 test	 esi, esi
  0002d	0f 84 2e 01 00
	00		 je	 $LN70@FormatV
; File C:\Program Files (x86)\Windows Kits\10\Include\10.0.26100.0\ucrt\stdio.h

; 1652 :         int const _Result = __stdio_common_vsprintf(

  00033	e8 00 00 00 00	 call	 ___local_stdio_printf_options
  00038	ff 75 0c	 push	 DWORD PTR _args$[ebp]
  0003b	89 45 f0	 mov	 DWORD PTR tv456[ebp], eax
  0003e	6a 00		 push	 0
  00040	8b 08		 mov	 ecx, DWORD PTR [eax]
  00042	56		 push	 esi
  00043	6a 00		 push	 0
  00045	6a 00		 push	 0
  00047	ff 70 04	 push	 DWORD PTR [eax+4]
  0004a	83 c9 02	 or	 ecx, 2
  0004d	51		 push	 ecx
  0004e	e8 00 00 00 00	 call	 ___stdio_common_vsprintf
  00053	8b f8		 mov	 edi, eax
  00055	83 c4 1c	 add	 esp, 28			; 0000001cH

; 1653 :             _CRT_INTERNAL_LOCAL_PRINTF_OPTIONS | _CRT_INTERNAL_PRINTF_STANDARD_SNPRINTF_BEHAVIOR,
; 1654 :             NULL, 0, _Format, _Locale, _ArgList);
; 1655 : 
; 1656 :         return _Result < 0 ? -1 : _Result;

  00058	83 c8 ff	 or	 eax, -1
  0005b	85 ff		 test	 edi, edi
  0005d	0f 48 f8	 cmovs	 edi, eax
; File C:\Program Files\Microsoft Visual Studio\2022\Professional\VC\Tools\MSVC\14.44.35207\atlmfc\include\cstringt.h

; 2232 : 		if (nLength < 0)

  00060	85 ff		 test	 edi, edi
  00062	0f 88 ef 00 00
	00		 js	 $LN87@FormatV
; File C:\Program Files\Microsoft Visual Studio\2022\Professional\VC\Tools\MSVC\14.44.35207\atlmfc\include\atlsimpstr.h

; 527  : 		IAtlStringMgr* pStringMgr = GetData()->pStringMgr;

  00068	8b 03		 mov	 eax, DWORD PTR [ebx]
  0006a	8b 48 f0	 mov	 ecx, DWORD PTR [eax-16]

; 528  : 		return pStringMgr ? pStringMgr->Clone() : NULL;

  0006d	85 c9		 test	 ecx, ecx
  0006f	74 0b		 je	 SHORT $LN13@FormatV
  00071	8b 01		 mov	 eax, DWORD PTR [ecx]
  00073	ff 50 10	 call	 DWORD PTR [eax+16]
  00076	8b c8		 mov	 ecx, eax
; File C:\Program Files\Microsoft Visual Studio\2022\Professional\VC\Tools\MSVC\14.44.35207\atlmfc\include\cstringt.h

; 1442 : 		if(pStringMgr) { return pStringMgr; }

  00078	85 c9		 test	 ecx, ecx
  0007a	75 16		 jne	 SHORT $LN28@FormatV
$LN13@FormatV:
; File C:\Program Files\Microsoft Visual Studio\2022\Professional\VC\Tools\MSVC\14.44.35207\atlmfc\include\afxstr.h

; 56   : 		return( AfxGetStringManager() );

  0007c	e8 00 00 00 00	 call	 ?AfxGetStringManager@@YGPAUIAtlStringMgr@ATL@@XZ ; AfxGetStringManager
; File C:\Program Files\Microsoft Visual Studio\2022\Professional\VC\Tools\MSVC\14.44.35207\atlmfc\include\cstringt.h

; 1445 : 		return pStringMgr->Clone();

  00081	8b c8		 mov	 ecx, eax
  00083	8b 10		 mov	 edx, DWORD PTR [eax]
  00085	ff 52 10	 call	 DWORD PTR [edx+16]
  00088	8b c8		 mov	 ecx, eax
; File C:\Program Files\Microsoft Visual Studio\2022\Professional\VC\Tools\MSVC\14.44.35207\atlmfc\include\atlsimpstr.h

; 209  : 		ATLENSURE( pStringMgr != NULL );

  0008a	85 c9		 test	 ecx, ecx
  0008c	0f 84 c5 00 00
	00		 je	 $LN87@FormatV
$LN28@FormatV:

; 210  : 		CStringData* pData = pStringMgr->GetNilString();

  00092	8b 01		 mov	 eax, DWORD PTR [ecx]
  00094	ff 50 0c	 call	 DWORD PTR [eax+12]

; 211  : 		Attach( pData );

  00097	83 c0 10	 add	 eax, 16			; 00000010H
  0009a	89 45 08	 mov	 DWORD PTR _temp$[ebp], eax
; File C:\Program Files\Microsoft Visual Studio\2022\Professional\VC\Tools\MSVC\14.44.35207\atlmfc\include\cstringt.h

; 1063 : 		CThisSimpleString( pStringMgr )

  0009d	c7 45 fc 00 00
	00 00		 mov	 DWORD PTR __$EHRec$[ebp+8], 0

; 2712 : 		if( (pv != NULL) && IS_INTRESOURCE( pv ) )

  000a4	f7 c6 00 00 ff
	ff		 test	 esi, -65536		; ffff0000H
  000aa	75 0e		 jne	 SHORT $LN86@FormatV

; 2713 : 		{
; 2714 : 			UINT nID = LOWORD( reinterpret_cast< DWORD_PTR >( pv ) );

  000ac	0f b7 c6	 movzx	 eax, si

; 2715 : 			(nID);
; 2716 : #ifdef _ATL_USE_WINAPI_FAMILY_DESKTOP_APP
; 2717 : 			if( !LoadString( nID ) )

  000af	8d 4d 08	 lea	 ecx, DWORD PTR _temp$[ebp]
  000b2	50		 push	 eax
  000b3	e8 00 00 00 00	 call	 ?LoadStringA@?$CStringT@DV?$StrTraitMFC@DV?$ChTraitsCRT@D@ATL@@@@@ATL@@QAEHI@Z ; ATL::CStringT<char,StrTraitMFC<char,ATL::ChTraitsCRT<char> > >::LoadStringA

; 1065 : 		if( !CheckImplicitLoad( pszSrc ) )

  000b8	eb 19		 jmp	 SHORT $LN24@FormatV
$LN86@FormatV:
; File C:\Program Files\Microsoft Visual Studio\2022\Professional\VC\Tools\MSVC\14.44.35207\atlmfc\include\atlsimpstr.h

; 730  : 		return( int( strlen( psz ) ) );

  000ba	8b ce		 mov	 ecx, esi
  000bc	8d 51 01	 lea	 edx, DWORD PTR [ecx+1]
  000bf	90		 npad	 1
$LL89@FormatV:
  000c0	8a 01		 mov	 al, BYTE PTR [ecx]
  000c2	41		 inc	 ecx
  000c3	84 c0		 test	 al, al
  000c5	75 f9		 jne	 SHORT $LL89@FormatV
  000c7	2b ca		 sub	 ecx, edx

; 606  : 		SetString( pszSrc, StringLength( pszSrc ) );

  000c9	51		 push	 ecx
  000ca	56		 push	 esi
  000cb	8d 4d 08	 lea	 ecx, DWORD PTR _temp$[ebp]
  000ce	e8 00 00 00 00	 call	 ?SetString@?$CSimpleStringT@D$0A@@ATL@@QAEXPBDH@Z ; ATL::CSimpleStringT<char,0>::SetString
$LN24@FormatV:

; 804  : 		return( reinterpret_cast< CStringData* >( m_pszData )-1 );

  000d3	8b 03		 mov	 eax, DWORD PTR [ebx]

; 812  : 		int nShared = 1-pOldData->nRefs;  // nShared < 0 means true, >= 0 means false

  000d5	b9 01 00 00 00	 mov	 ecx, 1
; File C:\Program Files\Microsoft Visual Studio\2022\Professional\VC\Tools\MSVC\14.44.35207\atlmfc\include\cstringt.h

; 2235 : 		CStringT temp(pszFormat, this->GetManager());

  000da	c7 45 fc 01 00
	00 00		 mov	 DWORD PTR __$EHRec$[ebp+8], 1
; File C:\Program Files\Microsoft Visual Studio\2022\Professional\VC\Tools\MSVC\14.44.35207\atlmfc\include\atlsimpstr.h

; 812  : 		int nShared = 1-pOldData->nRefs;  // nShared < 0 means true, >= 0 means false

  000e1	2b 48 fc	 sub	 ecx, DWORD PTR [eax-4]

; 813  : 		int nTooShort = pOldData->nAllocLength-nLength;  // nTooShort < 0 means true, >= 0 means false

  000e4	8b 40 f8	 mov	 eax, DWORD PTR [eax-8]
  000e7	2b c7		 sub	 eax, edi

; 814  : 		if( (nShared|nTooShort) < 0 )  // If either sign bit is set (i.e. either is less than zero), we need to copy data

  000e9	0b c8		 or	 ecx, eax
  000eb	7d 08		 jge	 SHORT $LN55@FormatV

; 815  : 		{
; 816  : 			PrepareWrite2( nLength );

  000ed	57		 push	 edi
  000ee	8b cb		 mov	 ecx, ebx
  000f0	e8 00 00 00 00	 call	 ?PrepareWrite2@?$CSimpleStringT@D$0A@@ATL@@AAEXH@Z ; ATL::CSimpleStringT<char,0>::PrepareWrite2
$LN55@FormatV:
; File C:\Program Files (x86)\Windows Kits\10\Include\10.0.26100.0\ucrt\stdio.h

; 1491 :         int const _Result = __stdio_common_vsprintf_s(

  000f5	ff 75 0c	 push	 DWORD PTR _args$[ebp]
  000f8	8b 75 08	 mov	 esi, DWORD PTR _temp$[ebp]
; File C:\Program Files\Microsoft Visual Studio\2022\Professional\VC\Tools\MSVC\14.44.35207\atlmfc\include\cstringt.h

; 2237 : 		StringTraits::Format( pszBuffer, nLength+1, temp, args );

  000fb	8d 47 01	 lea	 eax, DWORD PTR [edi+1]
; File C:\Program Files (x86)\Windows Kits\10\Include\10.0.26100.0\ucrt\stdio.h

; 1491 :         int const _Result = __stdio_common_vsprintf_s(

  000fe	6a 00		 push	 0
  00100	56		 push	 esi
  00101	50		 push	 eax
  00102	8b 45 f0	 mov	 eax, DWORD PTR tv456[ebp]
  00105	ff 33		 push	 DWORD PTR [ebx]
  00107	ff 70 04	 push	 DWORD PTR [eax+4]
  0010a	ff 30		 push	 DWORD PTR [eax]
  0010c	e8 00 00 00 00	 call	 ___stdio_common_vsprintf_s
; File C:\Program Files\Microsoft Visual Studio\2022\Professional\VC\Tools\MSVC\14.44.35207\atlmfc\include\atlsimpstr.h

; 875  : 		if( nLength < 0 || nLength > GetData()->nAllocLength)

  00111	8b 03		 mov	 eax, DWORD PTR [ebx]
; File C:\Program Files (x86)\Windows Kits\10\Include\10.0.26100.0\ucrt\stdio.h

; 1491 :         int const _Result = __stdio_common_vsprintf_s(

  00113	83 c4 1c	 add	 esp, 28			; 0000001cH
; File C:\Program Files\Microsoft Visual Studio\2022\Professional\VC\Tools\MSVC\14.44.35207\atlmfc\include\atlsimpstr.h

; 875  : 		if( nLength < 0 || nLength > GetData()->nAllocLength)

  00116	3b 78 f8	 cmp	 edi, DWORD PTR [eax-8]
  00119	7f 46		 jg	 SHORT $LN70@FormatV

; 876  : 			AtlThrow(E_INVALIDARG);
; 877  : 
; 878  : 		GetData()->nDataLength = nLength;

  0011b	89 78 f4	 mov	 DWORD PTR [eax-12], edi

; 804  : 		return( reinterpret_cast< CStringData* >( m_pszData )-1 );

  0011e	83 c6 f0	 add	 esi, -16		; fffffff0H

; 879  : 		m_pszData[nLength] = 0;

  00121	8b 03		 mov	 eax, DWORD PTR [ebx]
; File C:\Program Files\Microsoft Visual Studio\2022\Professional\VC\Tools\MSVC\14.44.35207\atlmfc\include\cstringt.h

; 2239 : 	}

  00123	c7 45 fc ff ff
	ff ff		 mov	 DWORD PTR __$EHRec$[ebp+8], -1
; File C:\Program Files\Microsoft Visual Studio\2022\Professional\VC\Tools\MSVC\14.44.35207\atlmfc\include\atlsimpstr.h

; 879  : 		m_pszData[nLength] = 0;

  0012a	c6 04 07 00	 mov	 BYTE PTR [edi+eax], 0

; 92   : 		if( _InterlockedDecrement( &nRefs ) <= 0 )

  0012e	83 c8 ff	 or	 eax, -1
  00131	f0 0f c1 46 0c	 lock	  xadd	 DWORD PTR [esi+12], eax
  00136	48		 dec	 eax
  00137	85 c0		 test	 eax, eax
  00139	7f 08		 jg	 SHORT $LN84@FormatV

; 93   : 		{
; 94   : 			pStringMgr->Free( this );

  0013b	8b 0e		 mov	 ecx, DWORD PTR [esi]
  0013d	56		 push	 esi
  0013e	8b 01		 mov	 eax, DWORD PTR [ecx]
  00140	ff 50 04	 call	 DWORD PTR [eax+4]
$LN84@FormatV:
; File C:\Program Files\Microsoft Visual Studio\2022\Professional\VC\Tools\MSVC\14.44.35207\atlmfc\include\cstringt.h

; 2239 : 	}

  00143	8b 4d f4	 mov	 ecx, DWORD PTR __$EHRec$[ebp]
  00146	64 89 0d 00 00
	00 00		 mov	 DWORD PTR fs:0, ecx
  0014d	59		 pop	 ecx
  0014e	5f		 pop	 edi
  0014f	5e		 pop	 esi
  00150	5b		 pop	 ebx
  00151	8b e5		 mov	 esp, ebp
  00153	5d		 pop	 ebp
  00154	c2 08 00	 ret	 8
$LN87@FormatV:
; File C:\Program Files\Microsoft Visual Studio\2022\Professional\VC\Tools\MSVC\14.44.35207\atlmfc\include\atlsimpstr.h

; 209  : 		ATLENSURE( pStringMgr != NULL );

  00157	68 05 40 00 80	 push	 -2147467259		; 80004005H
  0015c	e8 00 00 00 00	 call	 ?AtlThrowImpl@ATL@@YGXJ@Z ; ATL::AtlThrowImpl
$LN70@FormatV:
; File C:\Program Files\Microsoft Visual Studio\2022\Professional\VC\Tools\MSVC\14.44.35207\atlmfc\include\cstringt.h

; 2239 : 	}

  00161	68 57 00 07 80	 push	 -2147024809		; 80070057H
  00166	e8 00 00 00 00	 call	 ?AtlThrowImpl@ATL@@YGXJ@Z ; ATL::AtlThrowImpl
$LN91@FormatV:
  0016b	cc		 int	 3
_TEXT	ENDS
;	COMDAT text$x
text$x	SEGMENT
__unwindfunclet$?FormatV@?$CStringT@DV?$StrTraitMFC@DV?$ChTraitsCRT@D@ATL@@@@@ATL@@QAEXPBDPAD@Z$1:
  00000	8d 4d 08	 lea	 ecx, DWORD PTR _temp$[ebp]
  00003	e9 00 00 00 00	 jmp	 ??1?$CSimpleStringT@D$0A@@ATL@@QAE@XZ ; ATL::CSimpleStringT<char,0>::~CSimpleStringT<char,0>
__unwindfunclet$?FormatV@?$CStringT@DV?$StrTraitMFC@DV?$ChTraitsCRT@D@ATL@@@@@ATL@@QAEXPBDPAD@Z$0:
  00008	8d 4d 08	 lea	 ecx, DWORD PTR _temp$[ebp]
  0000b	e9 00 00 00 00	 jmp	 ??1?$CStringT@DV?$StrTraitMFC@DV?$ChTraitsCRT@D@ATL@@@@@ATL@@QAE@XZ ; ATL::CStringT<char,StrTraitMFC<char,ATL::ChTraitsCRT<char> > >::~CStringT<char,StrTraitMFC<char,ATL::ChTraitsCRT<char> > >
  00010	cc		 int	 3
  00011	cc		 int	 3
  00012	cc		 int	 3
  00013	cc		 int	 3
  00014	cc		 int	 3
__ehhandler$?FormatV@?$CStringT@DV?$StrTraitMFC@DV?$ChTraitsCRT@D@ATL@@@@@ATL@@QAEXPBDPAD@Z:
  00015	90		 npad	 1
  00016	90		 npad	 1
  00017	8b 54 24 08	 mov	 edx, DWORD PTR [esp+8]
  0001b	8d 42 0c	 lea	 eax, DWORD PTR [edx+12]
  0001e	8b 4a ec	 mov	 ecx, DWORD PTR [edx-20]
  00021	33 c8		 xor	 ecx, eax
  00023	e8 00 00 00 00	 call	 @__security_check_cookie@4
  00028	b8 00 00 00 00	 mov	 eax, OFFSET __ehfuncinfo$?FormatV@?$CStringT@DV?$StrTraitMFC@DV?$ChTraitsCRT@D@ATL@@@@@ATL@@QAEXPBDPAD@Z
  0002d	e9 00 00 00 00	 jmp	 ___CxxFrameHandler3
text$x	ENDS
?FormatV@?$CStringT@DV?$StrTraitMFC@DV?$ChTraitsCRT@D@ATL@@@@@ATL@@QAEXPBDPAD@Z ENDP ; ATL::CStringT<char,StrTraitMFC<char,ATL::ChTraitsCRT<char> > >::FormatV
; Function compile flags: /Ogtp
; File C:\Program Files\Microsoft Visual Studio\2022\Professional\VC\Tools\MSVC\14.44.35207\atlmfc\include\cstringt.h
;	COMDAT ?Format@?$CStringT@DV?$StrTraitMFC@DV?$ChTraitsCRT@D@ATL@@@@@ATL@@QAAXPBDZZ
_TEXT	SEGMENT
_this$ = 8						; size = 4
_pszFormat$ = 12					; size = 4
?Format@?$CStringT@DV?$StrTraitMFC@DV?$ChTraitsCRT@D@ATL@@@@@ATL@@QAAXPBDZZ PROC ; ATL::CStringT<char,StrTraitMFC<char,ATL::ChTraitsCRT<char> > >::Format, COMDAT

; 2745 : {

  00000	55		 push	 ebp
  00001	8b ec		 mov	 ebp, esp

; 2746 : 	ATLASSERT( AtlIsValidString( pszFormat ) );
; 2747 : 
; 2748 : 	va_list argList;
; 2749 : 	va_start( argList, pszFormat );
; 2750 : 	FormatV( pszFormat, argList );

  00003	8b 4d 08	 mov	 ecx, DWORD PTR _this$[ebp]
  00006	8d 45 10	 lea	 eax, DWORD PTR _pszFormat$[ebp+4]
  00009	50		 push	 eax
  0000a	ff 75 0c	 push	 DWORD PTR _pszFormat$[ebp]
  0000d	e8 00 00 00 00	 call	 ?FormatV@?$CStringT@DV?$StrTraitMFC@DV?$ChTraitsCRT@D@ATL@@@@@ATL@@QAEXPBDPAD@Z ; ATL::CStringT<char,StrTraitMFC<char,ATL::ChTraitsCRT<char> > >::FormatV

; 2751 : 	va_end( argList );
; 2752 : }

  00012	5d		 pop	 ebp
  00013	c3		 ret	 0
?Format@?$CStringT@DV?$StrTraitMFC@DV?$ChTraitsCRT@D@ATL@@@@@ATL@@QAAXPBDZZ ENDP ; ATL::CStringT<char,StrTraitMFC<char,ATL::ChTraitsCRT<char> > >::Format
_TEXT	ENDS
; Function compile flags: /Ogtp
; File C:\Program Files\Microsoft Visual Studio\2022\Professional\VC\Tools\MSVC\14.44.35207\atlmfc\include\cstringt.h
; File C:\Program Files\Microsoft Visual Studio\2022\Professional\VC\Tools\MSVC\14.44.35207\atlmfc\include\atlsimpstr.h
; File C:\Program Files\Microsoft Visual Studio\2022\Professional\VC\Tools\MSVC\14.44.35207\atlmfc\include\cstringt.h
;	COMDAT ??1?$CStringT@DV?$StrTraitMFC@DV?$ChTraitsCRT@D@ATL@@@@@ATL@@QAE@XZ
_TEXT	SEGMENT
??1?$CStringT@DV?$StrTraitMFC@DV?$ChTraitsCRT@D@ATL@@@@@ATL@@QAE@XZ PROC ; ATL::CStringT<char,StrTraitMFC<char,ATL::ChTraitsCRT<char> > >::~CStringT<char,StrTraitMFC<char,ATL::ChTraitsCRT<char> > >, COMDAT
; _this$ = ecx
; File C:\Program Files\Microsoft Visual Studio\2022\Professional\VC\Tools\MSVC\14.44.35207\atlmfc\include\atlsimpstr.h

; 804  : 		return( reinterpret_cast< CStringData* >( m_pszData )-1 );

  00000	8b 11		 mov	 edx, DWORD PTR [ecx]

; 92   : 		if( _InterlockedDecrement( &nRefs ) <= 0 )

  00002	83 c8 ff	 or	 eax, -1

; 804  : 		return( reinterpret_cast< CStringData* >( m_pszData )-1 );

  00005	83 ea 10	 sub	 edx, 16			; 00000010H

; 92   : 		if( _InterlockedDecrement( &nRefs ) <= 0 )

  00008	f0 0f c1 42 0c	 lock	  xadd	 DWORD PTR [edx+12], eax
  0000d	48		 dec	 eax
  0000e	85 c0		 test	 eax, eax
  00010	7f 08		 jg	 SHORT $LN8@CStringT

; 93   : 		{
; 94   : 			pStringMgr->Free( this );

  00012	8b 0a		 mov	 ecx, DWORD PTR [edx]
  00014	52		 push	 edx
  00015	8b 01		 mov	 eax, DWORD PTR [ecx]
  00017	ff 50 04	 call	 DWORD PTR [eax+4]
$LN8@CStringT:
; File C:\Program Files\Microsoft Visual Studio\2022\Professional\VC\Tools\MSVC\14.44.35207\atlmfc\include\cstringt.h

; 1303 : 	}

  0001a	c3		 ret	 0
??1?$CStringT@DV?$StrTraitMFC@DV?$ChTraitsCRT@D@ATL@@@@@ATL@@QAE@XZ ENDP ; ATL::CStringT<char,StrTraitMFC<char,ATL::ChTraitsCRT<char> > >::~CStringT<char,StrTraitMFC<char,ATL::ChTraitsCRT<char> > >
_TEXT	ENDS
; Function compile flags: /Ogtp
; File C:\Program Files\Microsoft Visual Studio\2022\Professional\VC\Tools\MSVC\14.44.35207\atlmfc\include\atlsimpstr.h
;	COMDAT ?Reallocate@?$CSimpleStringT@D$0A@@ATL@@AAEXH@Z
_TEXT	SEGMENT
_nLength$ = 8						; size = 4
?Reallocate@?$CSimpleStringT@D$0A@@ATL@@AAEXH@Z PROC	; ATL::CSimpleStringT<char,0>::Reallocate, COMDAT
; _this$ = ecx

; 853  : 	{

  00000	55		 push	 ebp
  00001	8b ec		 mov	 ebp, esp
  00003	56		 push	 esi

; 854  : 		CStringData* pOldData = GetData();
; 855  : 		ATLASSERT( pOldData->nAllocLength < nLength );
; 856  : 		IAtlStringMgr* pStringMgr = pOldData->pStringMgr;
; 857  : 		if ( pOldData->nAllocLength >= nLength || nLength <= 0)

  00004	8b 75 08	 mov	 esi, DWORD PTR _nLength$[ebp]
  00007	57		 push	 edi
  00008	8b f9		 mov	 edi, ecx

; 804  : 		return( reinterpret_cast< CStringData* >( m_pszData )-1 );

  0000a	8b 17		 mov	 edx, DWORD PTR [edi]
  0000c	83 ea 10	 sub	 edx, 16			; 00000010H

; 854  : 		CStringData* pOldData = GetData();
; 855  : 		ATLASSERT( pOldData->nAllocLength < nLength );
; 856  : 		IAtlStringMgr* pStringMgr = pOldData->pStringMgr;
; 857  : 		if ( pOldData->nAllocLength >= nLength || nLength <= 0)

  0000f	39 72 08	 cmp	 DWORD PTR [edx+8], esi
  00012	7d 1e		 jge	 SHORT $LN3@Reallocate
  00014	85 f6		 test	 esi, esi
  00016	7e 1a		 jle	 SHORT $LN3@Reallocate

; 860  : 			return;
; 861  : 		}
; 862  : 		CStringData* pNewData = pStringMgr->Reallocate( pOldData, nLength, sizeof( XCHAR ) );

  00018	8b 0a		 mov	 ecx, DWORD PTR [edx]
  0001a	6a 01		 push	 1
  0001c	56		 push	 esi
  0001d	52		 push	 edx
  0001e	8b 01		 mov	 eax, DWORD PTR [ecx]
  00020	ff 50 08	 call	 DWORD PTR [eax+8]

; 863  : 		if( pNewData == NULL )

  00023	85 c0		 test	 eax, eax
  00025	74 0b		 je	 SHORT $LN3@Reallocate

; 864  : 		{
; 865  : 			ThrowMemoryException();
; 866  : 		}
; 867  : 		Attach( pNewData );

  00027	83 c0 10	 add	 eax, 16			; 00000010H
  0002a	89 07		 mov	 DWORD PTR [edi], eax
  0002c	5f		 pop	 edi
  0002d	5e		 pop	 esi

; 868  : 	}

  0002e	5d		 pop	 ebp
  0002f	c2 04 00	 ret	 4
$LN3@Reallocate:

; 858  : 		{
; 859  : 			ThrowMemoryException();

  00032	e8 00 00 00 00	 call	 ?ThrowMemoryException@?$CSimpleStringT@D$0A@@ATL@@KAXXZ ; ATL::CSimpleStringT<char,0>::ThrowMemoryException
$LN12@Reallocate:
  00037	cc		 int	 3
?Reallocate@?$CSimpleStringT@D$0A@@ATL@@AAEXH@Z ENDP	; ATL::CSimpleStringT<char,0>::Reallocate
_TEXT	ENDS
; Function compile flags: /Ogtp
; File C:\Program Files\Microsoft Visual Studio\2022\Professional\VC\Tools\MSVC\14.44.35207\atlmfc\include\atlsimpstr.h
;	COMDAT ?PrepareWrite2@?$CSimpleStringT@D$0A@@ATL@@AAEXH@Z
_TEXT	SEGMENT
_nLength$ = 8						; size = 4
?PrepareWrite2@?$CSimpleStringT@D$0A@@ATL@@AAEXH@Z PROC	; ATL::CSimpleStringT<char,0>::PrepareWrite2, COMDAT
; _this$ = ecx

; 822  : 	{

  00000	55		 push	 ebp
  00001	8b ec		 mov	 ebp, esp
  00003	56		 push	 esi

; 823  : 		CStringData* pOldData = GetData();
; 824  : 		if( pOldData->nDataLength > nLength )

  00004	8b 75 08	 mov	 esi, DWORD PTR _nLength$[ebp]
  00007	57		 push	 edi
  00008	8b f9		 mov	 edi, ecx

; 804  : 		return( reinterpret_cast< CStringData* >( m_pszData )-1 );

  0000a	8b 0f		 mov	 ecx, DWORD PTR [edi]

; 823  : 		CStringData* pOldData = GetData();
; 824  : 		if( pOldData->nDataLength > nLength )

  0000c	39 71 f4	 cmp	 DWORD PTR [ecx-12], esi
  0000f	0f 4f 71 f4	 cmovg	 esi, DWORD PTR [ecx-12]

; 77   : 		return( nRefs > 1 );

  00013	83 79 fc 01	 cmp	 DWORD PTR [ecx-4], 1

; 825  : 		{
; 826  : 			nLength = pOldData->nDataLength;
; 827  : 		}
; 828  : 		if( pOldData->IsShared() )

  00017	7e 0e		 jle	 SHORT $LN3@PrepareWri

; 829  : 		{
; 830  : 			Fork( nLength );

  00019	56		 push	 esi
  0001a	8b cf		 mov	 ecx, edi
  0001c	e8 00 00 00 00	 call	 ?Fork@?$CSimpleStringT@D$0A@@ATL@@AAEXH@Z ; ATL::CSimpleStringT<char,0>::Fork
  00021	5f		 pop	 edi

; 850  : 		}
; 851  : 	}

  00022	5e		 pop	 esi
  00023	5d		 pop	 ebp
  00024	c2 04 00	 ret	 4
$LN3@PrepareWri:

; 831  : 		}
; 832  : 		else if( pOldData->nAllocLength < nLength )

  00027	8b 49 f8	 mov	 ecx, DWORD PTR [ecx-8]
  0002a	3b ce		 cmp	 ecx, esi
  0002c	7d 25		 jge	 SHORT $LN5@PrepareWri

; 833  : 		{
; 834  : 			// Grow exponentially, until we hit 1G, then by 1M thereafter.
; 835  : 			int nNewLength = pOldData->nAllocLength;
; 836  : 			if( nNewLength > 1024 * 1024 * 1024 )

  0002e	81 f9 00 00 00
	40		 cmp	 ecx, 1073741824		; 40000000H
  00034	7e 07		 jle	 SHORT $LN6@PrepareWri

; 837  : 			{
; 838  : 				nNewLength += 1024 * 1024;

  00036	b8 00 00 10 00	 mov	 eax, 1048576		; 00100000H

; 839  : 			}

  0003b	eb 07		 jmp	 SHORT $LN7@PrepareWri
$LN6@PrepareWri:

; 840  : 			else
; 841  : 			{
; 842  : 				// Exponential growth factor is 1.5.
; 843  : 				nNewLength = nNewLength + nNewLength / 2;

  0003d	8b c1		 mov	 eax, ecx
  0003f	99		 cdq
  00040	2b c2		 sub	 eax, edx
  00042	d1 f8		 sar	 eax, 1
$LN7@PrepareWri:

; 844  : 			}
; 845  : 			if( nNewLength < nLength )

  00044	03 c1		 add	 eax, ecx

; 846  : 			{
; 847  : 				nNewLength = nLength;
; 848  : 			}
; 849  : 			Reallocate( nNewLength );

  00046	8b cf		 mov	 ecx, edi
  00048	3b c6		 cmp	 eax, esi
  0004a	0f 4d f0	 cmovge	 esi, eax
  0004d	56		 push	 esi
  0004e	e8 00 00 00 00	 call	 ?Reallocate@?$CSimpleStringT@D$0A@@ATL@@AAEXH@Z ; ATL::CSimpleStringT<char,0>::Reallocate
$LN5@PrepareWri:

; 850  : 		}
; 851  : 	}

  00053	5f		 pop	 edi
  00054	5e		 pop	 esi
  00055	5d		 pop	 ebp
  00056	c2 04 00	 ret	 4
?PrepareWrite2@?$CSimpleStringT@D$0A@@ATL@@AAEXH@Z ENDP	; ATL::CSimpleStringT<char,0>::PrepareWrite2
_TEXT	ENDS
; Function compile flags: /Ogtp
; File C:\Program Files\Microsoft Visual Studio\2022\Professional\VC\Tools\MSVC\14.44.35207\atlmfc\include\atlsimpstr.h
; File C:\Program Files (x86)\Windows Kits\10\Include\10.0.26100.0\ucrt\corecrt_memcpy_s.h
; File C:\Program Files\Microsoft Visual Studio\2022\Professional\VC\Tools\MSVC\14.44.35207\atlmfc\include\atlsimpstr.h
;	COMDAT ?Fork@?$CSimpleStringT@D$0A@@ATL@@AAEXH@Z
_TEXT	SEGMENT
_this$1$ = -12						; size = 4
_nOldLength$1$ = -8					; size = 4
__Source$1$ = -4					; size = 4
_nLength$ = 8						; size = 4
_pNewData$1$ = 8					; size = 4
?Fork@?$CSimpleStringT@D$0A@@ATL@@AAEXH@Z PROC		; ATL::CSimpleStringT<char,0>::Fork, COMDAT
; _this$ = ecx

; 787  : 	{

  00000	55		 push	 ebp
  00001	8b ec		 mov	 ebp, esp
  00003	83 ec 0c	 sub	 esp, 12			; 0000000cH
  00006	8b c1		 mov	 eax, ecx
  00008	89 45 f4	 mov	 DWORD PTR _this$1$[ebp], eax
  0000b	53		 push	 ebx
  0000c	56		 push	 esi

; 804  : 		return( reinterpret_cast< CStringData* >( m_pszData )-1 );

  0000d	8b 00		 mov	 eax, DWORD PTR [eax]

; 790  : 		CStringData* pNewData = pOldData->pStringMgr->Clone()->Allocate( nLength, sizeof( XCHAR ) );

  0000f	8b 48 f0	 mov	 ecx, DWORD PTR [eax-16]

; 804  : 		return( reinterpret_cast< CStringData* >( m_pszData )-1 );

  00012	8d 58 f0	 lea	 ebx, DWORD PTR [eax-16]
  00015	89 45 fc	 mov	 DWORD PTR __Source$1$[ebp], eax

; 787  : 	{

  00018	57		 push	 edi

; 788  : 		CStringData* pOldData = GetData();
; 789  : 		int nOldLength = pOldData->nDataLength;

  00019	8b 7b 04	 mov	 edi, DWORD PTR [ebx+4]

; 790  : 		CStringData* pNewData = pOldData->pStringMgr->Clone()->Allocate( nLength, sizeof( XCHAR ) );

  0001c	8b 01		 mov	 eax, DWORD PTR [ecx]
  0001e	89 7d f8	 mov	 DWORD PTR _nOldLength$1$[ebp], edi
  00021	ff 50 10	 call	 DWORD PTR [eax+16]
  00024	8b 75 08	 mov	 esi, DWORD PTR _nLength$[ebp]
  00027	8b c8		 mov	 ecx, eax
  00029	6a 01		 push	 1
  0002b	56		 push	 esi
  0002c	8b 10		 mov	 edx, DWORD PTR [eax]
  0002e	ff 12		 call	 DWORD PTR [edx]
  00030	89 45 08	 mov	 DWORD PTR _pNewData$1$[ebp], eax

; 791  : 		if( pNewData == NULL )

  00033	85 c0		 test	 eax, eax
  00035	74 6c		 je	 SHORT $LN25@Fork

; 794  : 		}
; 795  : 		int nCharsToCopy = ((nOldLength < nLength) ? nOldLength : nLength)+1;  // Copy '\0'

  00037	3b fe		 cmp	 edi, esi
  00039	0f 4c f7	 cmovl	 esi, edi

; 796  : 		memcpy_s( PXSTR( pNewData->data() ), nCharsToCopy * sizeof( XCHAR ),

  0003c	8d 78 10	 lea	 edi, DWORD PTR [eax+16]
  0003f	83 c6 01	 add	 esi, 1
; File C:\Program Files (x86)\Windows Kits\10\Include\10.0.26100.0\ucrt\corecrt_memcpy_s.h

; 47   :         if (_SourceSize == 0)

  00042	74 33		 je	 SHORT $LN11@Fork

; 48   :         {
; 49   :             return 0;
; 50   :         }
; 51   : 
; 52   :         _CRT_MEMCPY_S_VALIDATE_RETURN_ERRCODE(_Destination != NULL, EINVAL);

  00044	85 ff		 test	 edi, edi
  00046	74 1f		 je	 SHORT $LN23@Fork

; 53   :         if (_Source == NULL || _DestinationSize < _SourceSize)

  00048	8b 45 fc	 mov	 eax, DWORD PTR __Source$1$[ebp]
  0004b	56		 push	 esi
  0004c	85 c0		 test	 eax, eax
  0004e	74 0c		 je	 SHORT $LN10@Fork

; 56   : 
; 57   :             _CRT_MEMCPY_S_VALIDATE_RETURN_ERRCODE(_Source != NULL,                 EINVAL);
; 58   :             _CRT_MEMCPY_S_VALIDATE_RETURN_ERRCODE(_DestinationSize >= _SourceSize, ERANGE);
; 59   : 
; 60   :             // Unreachable, but required to suppress /analyze warnings:
; 61   :             return EINVAL;
; 62   :         }
; 63   :         memcpy(_Destination, _Source, _SourceSize);

  00050	50		 push	 eax
  00051	57		 push	 edi
  00052	e8 00 00 00 00	 call	 _memcpy
  00057	83 c4 0c	 add	 esp, 12			; 0000000cH
  0005a	eb 1b		 jmp	 SHORT $LN11@Fork
$LN10@Fork:

; 54   :         {
; 55   :             memset(_Destination, 0, _DestinationSize);

  0005c	6a 00		 push	 0
  0005e	57		 push	 edi
  0005f	e8 00 00 00 00	 call	 _memset
  00064	83 c4 0c	 add	 esp, 12			; 0000000cH
$LN23@Fork:
; File C:\Program Files\Microsoft Visual Studio\2022\Professional\VC\Tools\MSVC\14.44.35207\atlmfc\include\atlsimpstr.h

; 798  : 		pNewData->nDataLength = nOldLength;

  00067	e8 00 00 00 00	 call	 __errno
  0006c	c7 00 16 00 00
	00		 mov	 DWORD PTR [eax], 22	; 00000016H
  00072	e8 00 00 00 00	 call	 __invalid_parameter_noinfo
$LN11@Fork:
  00077	8b 4d 08	 mov	 ecx, DWORD PTR _pNewData$1$[ebp]
  0007a	8b 45 f8	 mov	 eax, DWORD PTR _nOldLength$1$[ebp]
  0007d	89 41 04	 mov	 DWORD PTR [ecx+4], eax

; 92   : 		if( _InterlockedDecrement( &nRefs ) <= 0 )

  00080	83 c8 ff	 or	 eax, -1
  00083	f0 0f c1 43 0c	 lock	  xadd	 DWORD PTR [ebx+12], eax
  00088	48		 dec	 eax
  00089	85 c0		 test	 eax, eax
  0008b	7f 08		 jg	 SHORT $LN15@Fork

; 93   : 		{
; 94   : 			pStringMgr->Free( this );

  0008d	8b 0b		 mov	 ecx, DWORD PTR [ebx]
  0008f	53		 push	 ebx
  00090	8b 01		 mov	 eax, DWORD PTR [ecx]
  00092	ff 50 04	 call	 DWORD PTR [eax+4]
$LN15@Fork:

; 799  : 		pOldData->Release();
; 800  : 		Attach( pNewData );

  00095	8b 45 f4	 mov	 eax, DWORD PTR _this$1$[ebp]
  00098	89 38		 mov	 DWORD PTR [eax], edi

; 801  : 	}

  0009a	5f		 pop	 edi
  0009b	5e		 pop	 esi
  0009c	5b		 pop	 ebx
  0009d	8b e5		 mov	 esp, ebp
  0009f	5d		 pop	 ebp
  000a0	c2 04 00	 ret	 4
$LN25@Fork:

; 792  : 		{
; 793  : 			ThrowMemoryException();

  000a3	e8 00 00 00 00	 call	 ?ThrowMemoryException@?$CSimpleStringT@D$0A@@ATL@@KAXXZ ; ATL::CSimpleStringT<char,0>::ThrowMemoryException
$LN22@Fork:
  000a8	cc		 int	 3
?Fork@?$CSimpleStringT@D$0A@@ATL@@AAEXH@Z ENDP		; ATL::CSimpleStringT<char,0>::Fork
_TEXT	ENDS
; Function compile flags: /Ogtp
; File C:\Program Files\Microsoft Visual Studio\2022\Professional\VC\Tools\MSVC\14.44.35207\atlmfc\include\atlsimpstr.h
;	COMDAT ?ThrowMemoryException@?$CSimpleStringT@D$0A@@ATL@@KAXXZ
_TEXT	SEGMENT
?ThrowMemoryException@?$CSimpleStringT@D$0A@@ATL@@KAXXZ PROC ; ATL::CSimpleStringT<char,0>::ThrowMemoryException, COMDAT

; 777  : 		AtlThrow( E_OUTOFMEMORY );

  00000	68 0e 00 07 80	 push	 -2147024882		; 8007000eH
  00005	e8 00 00 00 00	 call	 ?AtlThrowImpl@ATL@@YGXJ@Z ; ATL::AtlThrowImpl
$LN3@ThrowMemor:
  0000a	cc		 int	 3
?ThrowMemoryException@?$CSimpleStringT@D$0A@@ATL@@KAXXZ ENDP ; ATL::CSimpleStringT<char,0>::ThrowMemoryException
_TEXT	ENDS
; Function compile flags: /Ogtp
; File C:\Program Files\Microsoft Visual Studio\2022\Professional\VC\Tools\MSVC\14.44.35207\atlmfc\include\atlsimpstr.h
; File C:\Program Files (x86)\Windows Kits\10\Include\10.0.26100.0\ucrt\corecrt_memcpy_s.h
; File C:\Program Files\Microsoft Visual Studio\2022\Professional\VC\Tools\MSVC\14.44.35207\atlmfc\include\atlsimpstr.h
; File C:\Program Files (x86)\Windows Kits\10\Include\10.0.26100.0\ucrt\corecrt_memcpy_s.h
; File C:\Program Files\Microsoft Visual Studio\2022\Professional\VC\Tools\MSVC\14.44.35207\atlmfc\include\atlsimpstr.h
;	COMDAT ?SetString@?$CSimpleStringT@D$0A@@ATL@@QAEXPBDH@Z
_TEXT	SEGMENT
_pszSrc$ = 8						; size = 4
_nOldLength$1$ = 8					; size = 4
_nLength$ = 12						; size = 4
_nOffset$1$ = 12					; size = 4
?SetString@?$CSimpleStringT@D$0A@@ATL@@QAEXPBDH@Z PROC	; ATL::CSimpleStringT<char,0>::SetString, COMDAT
; _this$ = ecx

; 611  : 	{

  00000	55		 push	 ebp
  00001	8b ec		 mov	 ebp, esp
  00003	56		 push	 esi

; 612  : 		if( nLength == 0 )

  00004	8b 75 0c	 mov	 esi, DWORD PTR _nLength$[ebp]
  00007	57		 push	 edi
  00008	8b f9		 mov	 edi, ecx
  0000a	85 f6		 test	 esi, esi
  0000c	75 58		 jne	 SHORT $LN2@SetString

; 804  : 		return( reinterpret_cast< CStringData* >( m_pszData )-1 );

  0000e	8b 07		 mov	 eax, DWORD PTR [edi]

; 443  : 		if( pOldData->nDataLength == 0 )

  00010	83 78 f4 00	 cmp	 DWORD PTR [eax-12], 0

; 804  : 		return( reinterpret_cast< CStringData* >( m_pszData )-1 );

  00014	8d 50 f0	 lea	 edx, DWORD PTR [eax-16]

; 442  : 		IAtlStringMgr* pStringMgr = pOldData->pStringMgr;

  00017	8b 32		 mov	 esi, DWORD PTR [edx]

; 443  : 		if( pOldData->nDataLength == 0 )

  00019	74 1f		 je	 SHORT $LN72@SetString

; 73   : 		return nRefs < 0;

  0001b	83 7a 0c 00	 cmp	 DWORD PTR [edx+12], 0
  0001f	8d 4a 0c	 lea	 ecx, DWORD PTR [edx+12]

; 448  : 		if( pOldData->IsLocked() )

  00022	7d 1c		 jge	 SHORT $LN10@SetString

; 875  : 		if( nLength < 0 || nLength > GetData()->nAllocLength)

  00024	83 78 f8 00	 cmp	 DWORD PTR [eax-8], 0
  00028	0f 8c 0b 01 00
	00		 jl	 $LN71@SetString

; 877  : 
; 878  : 		GetData()->nDataLength = nLength;

  0002e	c7 40 f4 00 00
	00 00		 mov	 DWORD PTR [eax-12], 0

; 879  : 		m_pszData[nLength] = 0;

  00035	8b 07		 mov	 eax, DWORD PTR [edi]
  00037	c6 00 00	 mov	 BYTE PTR [eax], 0
$LN72@SetString:
  0003a	5f		 pop	 edi

; 638  : 			else
; 639  : 			{
; 640  : 				memcpy_s( pszBuffer, GetAllocLength() * sizeof( XCHAR ), pszSrc, nLength * sizeof( XCHAR ));
; 641  : 			}
; 642  : 			ReleaseBufferSetLength( nLength );
; 643  : 		}
; 644  : 	}

  0003b	5e		 pop	 esi
  0003c	5d		 pop	 ebp
  0003d	c2 08 00	 ret	 8
$LN10@SetString:

; 92   : 		if( _InterlockedDecrement( &nRefs ) <= 0 )

  00040	83 c8 ff	 or	 eax, -1
  00043	f0 0f c1 01	 lock	  xadd	 DWORD PTR [ecx], eax
  00047	48		 dec	 eax
  00048	85 c0		 test	 eax, eax
  0004a	7f 08		 jg	 SHORT $LN27@SetString

; 93   : 		{
; 94   : 			pStringMgr->Free( this );

  0004c	8b 0a		 mov	 ecx, DWORD PTR [edx]
  0004e	52		 push	 edx
  0004f	8b 01		 mov	 eax, DWORD PTR [ecx]
  00051	ff 50 04	 call	 DWORD PTR [eax+4]
$LN27@SetString:

; 456  : 			CStringData* pNewData = pStringMgr->GetNilString();

  00054	8b 06		 mov	 eax, DWORD PTR [esi]
  00056	8b ce		 mov	 ecx, esi
  00058	ff 50 0c	 call	 DWORD PTR [eax+12]

; 457  : 			Attach( pNewData );

  0005b	83 c0 10	 add	 eax, 16			; 00000010H
  0005e	89 07		 mov	 DWORD PTR [edi], eax
  00060	5f		 pop	 edi

; 638  : 			else
; 639  : 			{
; 640  : 				memcpy_s( pszBuffer, GetAllocLength() * sizeof( XCHAR ), pszSrc, nLength * sizeof( XCHAR ));
; 641  : 			}
; 642  : 			ReleaseBufferSetLength( nLength );
; 643  : 		}
; 644  : 	}

  00061	5e		 pop	 esi
  00062	5d		 pop	 ebp
  00063	c2 08 00	 ret	 8
$LN2@SetString:
  00066	53		 push	 ebx

; 613  : 		{
; 614  : 			Empty();
; 615  : 		}
; 616  : 		else
; 617  : 		{
; 618  : 			// It is possible that pszSrc points to a location inside of our
; 619  : 			// buffer.  GetBuffer() might change m_pszData if (1) the buffer
; 620  : 			// is shared or (2) the buffer is too small to hold the new
; 621  : 			// string.  We detect this aliasing, and modify pszSrc to point
; 622  : 			// into the newly allocated buffer instead.
; 623  : 
; 624  : 			if(pszSrc == NULL)

  00067	8b 5d 08	 mov	 ebx, DWORD PTR _pszSrc$[ebp]
  0006a	85 db		 test	 ebx, ebx
  0006c	0f 84 c7 00 00
	00		 je	 $LN71@SetString

; 523  : 		return( GetData()->nDataLength );

  00072	8b 07		 mov	 eax, DWORD PTR [edi]

; 625  : 				AtlThrow(E_INVALIDARG);
; 626  : 
; 627  : 			UINT nOldLength = GetLength();
; 628  : 			UINT_PTR nOffset = pszSrc-GetString();

  00074	8b d3		 mov	 edx, ebx
  00076	2b d0		 sub	 edx, eax
  00078	89 55 0c	 mov	 DWORD PTR _nOffset$1$[ebp], edx
  0007b	8b 48 f4	 mov	 ecx, DWORD PTR [eax-12]
  0007e	89 4d 08	 mov	 DWORD PTR _nOldLength$1$[ebp], ecx

; 808  : 		if (nLength < 0)

  00081	85 f6		 test	 esi, esi
  00083	0f 88 b0 00 00
	00		 js	 $LN71@SetString

; 809  : 			AtlThrow(E_INVALIDARG);
; 810  : 
; 811  : 		CStringData* pOldData = GetData();
; 812  : 		int nShared = 1-pOldData->nRefs;  // nShared < 0 means true, >= 0 means false

  00089	b9 01 00 00 00	 mov	 ecx, 1
  0008e	2b 48 fc	 sub	 ecx, DWORD PTR [eax-4]

; 813  : 		int nTooShort = pOldData->nAllocLength-nLength;  // nTooShort < 0 means true, >= 0 means false

  00091	8b 40 f8	 mov	 eax, DWORD PTR [eax-8]
  00094	2b c6		 sub	 eax, esi

; 814  : 		if( (nShared|nTooShort) < 0 )  // If either sign bit is set (i.e. either is less than zero), we need to copy data

  00096	0b c8		 or	 ecx, eax
  00098	7d 0b		 jge	 SHORT $LN38@SetString

; 815  : 		{
; 816  : 			PrepareWrite2( nLength );

  0009a	56		 push	 esi
  0009b	8b cf		 mov	 ecx, edi
  0009d	e8 00 00 00 00	 call	 ?PrepareWrite2@?$CSimpleStringT@D$0A@@ATL@@AAEXH@Z ; ATL::CSimpleStringT<char,0>::PrepareWrite2
  000a2	8b 55 0c	 mov	 edx, DWORD PTR _nOffset$1$[ebp]
$LN38@SetString:

; 629  : 			// If 0 <= nOffset <= nOldLength, then pszSrc points into our
; 630  : 			// buffer
; 631  : 
; 632  : 			PXSTR pszBuffer = GetBuffer( nLength );

  000a5	8b 07		 mov	 eax, DWORD PTR [edi]
  000a7	8b 48 f8	 mov	 ecx, DWORD PTR [eax-8]

; 633  : 			if( nOffset <= nOldLength )

  000aa	3b 55 08	 cmp	 edx, DWORD PTR _nOldLength$1$[ebp]
  000ad	77 35		 ja	 SHORT $LN5@SetString

; 634  : 			{
; 635  : 				CopyCharsOverlapped( pszBuffer, GetAllocLength(),

  000af	03 d0		 add	 edx, eax
; File C:\Program Files (x86)\Windows Kits\10\Include\10.0.26100.0\ucrt\corecrt_memcpy_s.h

; 81   :         _CRT_MEMCPY_S_VALIDATE_RETURN_ERRCODE(_Destination != NULL,            EINVAL);

  000b1	85 c0		 test	 eax, eax
  000b3	75 0d		 jne	 SHORT $LN51@SetString
  000b5	e8 00 00 00 00	 call	 __errno
  000ba	c7 00 16 00 00
	00		 mov	 DWORD PTR [eax], 22	; 00000016H
  000c0	eb 5b		 jmp	 SHORT $LN97@SetString
$LN51@SetString:

; 82   :         _CRT_MEMCPY_S_VALIDATE_RETURN_ERRCODE(_Source != NULL,                 EINVAL);

  000c2	85 d2		 test	 edx, edx
  000c4	75 0d		 jne	 SHORT $LN52@SetString
  000c6	e8 00 00 00 00	 call	 __errno
  000cb	c7 00 16 00 00
	00		 mov	 DWORD PTR [eax], 22	; 00000016H
  000d1	eb 4a		 jmp	 SHORT $LN97@SetString
$LN52@SetString:

; 83   :         _CRT_MEMCPY_S_VALIDATE_RETURN_ERRCODE(_DestinationSize >= _SourceSize, ERANGE);

  000d3	3b ce		 cmp	 ecx, esi
  000d5	72 3b		 jb	 SHORT $LN98@SetString

; 84   : 
; 85   :         memmove(_Destination, _Source, _SourceSize);

  000d7	56		 push	 esi
  000d8	52		 push	 edx
  000d9	50		 push	 eax
  000da	e8 00 00 00 00	 call	 _memmove
  000df	83 c4 0c	 add	 esp, 12			; 0000000cH
; File C:\Program Files\Microsoft Visual Studio\2022\Professional\VC\Tools\MSVC\14.44.35207\atlmfc\include\atlsimpstr.h

; 637  : 			}

  000e2	eb 3e		 jmp	 SHORT $LN65@SetString
$LN5@SetString:
; File C:\Program Files (x86)\Windows Kits\10\Include\10.0.26100.0\ucrt\corecrt_memcpy_s.h

; 52   :         _CRT_MEMCPY_S_VALIDATE_RETURN_ERRCODE(_Destination != NULL, EINVAL);

  000e4	85 c0		 test	 eax, eax
  000e6	75 0d		 jne	 SHORT $LN61@SetString
  000e8	e8 00 00 00 00	 call	 __errno
  000ed	c7 00 16 00 00
	00		 mov	 DWORD PTR [eax], 22	; 00000016H
  000f3	eb 28		 jmp	 SHORT $LN97@SetString
$LN61@SetString:

; 53   :         if (_Source == NULL || _DestinationSize < _SourceSize)

  000f5	3b ce		 cmp	 ecx, esi
  000f7	72 0d		 jb	 SHORT $LN63@SetString

; 56   : 
; 57   :             _CRT_MEMCPY_S_VALIDATE_RETURN_ERRCODE(_Source != NULL,                 EINVAL);
; 58   :             _CRT_MEMCPY_S_VALIDATE_RETURN_ERRCODE(_DestinationSize >= _SourceSize, ERANGE);
; 59   : 
; 60   :             // Unreachable, but required to suppress /analyze warnings:
; 61   :             return EINVAL;
; 62   :         }
; 63   :         memcpy(_Destination, _Source, _SourceSize);

  000f9	56		 push	 esi
  000fa	53		 push	 ebx
  000fb	50		 push	 eax
  000fc	e8 00 00 00 00	 call	 _memcpy
  00101	83 c4 0c	 add	 esp, 12			; 0000000cH
  00104	eb 1c		 jmp	 SHORT $LN65@SetString
$LN63@SetString:

; 54   :         {
; 55   :             memset(_Destination, 0, _DestinationSize);

  00106	51		 push	 ecx
  00107	6a 00		 push	 0
  00109	50		 push	 eax
  0010a	e8 00 00 00 00	 call	 _memset
  0010f	83 c4 0c	 add	 esp, 12			; 0000000cH
$LN98@SetString:
; File C:\Program Files\Microsoft Visual Studio\2022\Professional\VC\Tools\MSVC\14.44.35207\atlmfc\include\atlsimpstr.h

; 875  : 		if( nLength < 0 || nLength > GetData()->nAllocLength)

  00112	e8 00 00 00 00	 call	 __errno
  00117	c7 00 22 00 00
	00		 mov	 DWORD PTR [eax], 34	; 00000022H
$LN97@SetString:
  0011d	e8 00 00 00 00	 call	 __invalid_parameter_noinfo
$LN65@SetString:
  00122	8b 07		 mov	 eax, DWORD PTR [edi]
  00124	5b		 pop	 ebx
  00125	3b 70 f8	 cmp	 esi, DWORD PTR [eax-8]
  00128	7f 0f		 jg	 SHORT $LN71@SetString

; 877  : 
; 878  : 		GetData()->nDataLength = nLength;

  0012a	89 70 f4	 mov	 DWORD PTR [eax-12], esi

; 879  : 		m_pszData[nLength] = 0;

  0012d	8b 07		 mov	 eax, DWORD PTR [edi]
  0012f	5f		 pop	 edi
  00130	c6 04 06 00	 mov	 BYTE PTR [esi+eax], 0

; 638  : 			else
; 639  : 			{
; 640  : 				memcpy_s( pszBuffer, GetAllocLength() * sizeof( XCHAR ), pszSrc, nLength * sizeof( XCHAR ));
; 641  : 			}
; 642  : 			ReleaseBufferSetLength( nLength );
; 643  : 		}
; 644  : 	}

  00134	5e		 pop	 esi
  00135	5d		 pop	 ebp
  00136	c2 08 00	 ret	 8
$LN71@SetString:

; 876  : 			AtlThrow(E_INVALIDARG);

  00139	68 57 00 07 80	 push	 -2147024809		; 80070057H
  0013e	e8 00 00 00 00	 call	 ?AtlThrowImpl@ATL@@YGXJ@Z ; ATL::AtlThrowImpl
$LN96@SetString:
  00143	cc		 int	 3
?SetString@?$CSimpleStringT@D$0A@@ATL@@QAEXPBDH@Z ENDP	; ATL::CSimpleStringT<char,0>::SetString
_TEXT	ENDS
; Function compile flags: /Ogtp
; File C:\Program Files\Microsoft Visual Studio\2022\Professional\VC\Tools\MSVC\14.44.35207\atlmfc\include\atlsimpstr.h
;	COMDAT ??1?$CSimpleStringT@D$0A@@ATL@@QAE@XZ
_TEXT	SEGMENT
??1?$CSimpleStringT@D$0A@@ATL@@QAE@XZ PROC		; ATL::CSimpleStringT<char,0>::~CSimpleStringT<char,0>, COMDAT
; _this$ = ecx

; 804  : 		return( reinterpret_cast< CStringData* >( m_pszData )-1 );

  00000	8b 11		 mov	 edx, DWORD PTR [ecx]

; 92   : 		if( _InterlockedDecrement( &nRefs ) <= 0 )

  00002	83 c8 ff	 or	 eax, -1

; 804  : 		return( reinterpret_cast< CStringData* >( m_pszData )-1 );

  00005	83 ea 10	 sub	 edx, 16			; 00000010H

; 92   : 		if( _InterlockedDecrement( &nRefs ) <= 0 )

  00008	f0 0f c1 42 0c	 lock	  xadd	 DWORD PTR [edx+12], eax
  0000d	48		 dec	 eax
  0000e	85 c0		 test	 eax, eax
  00010	7f 08		 jg	 SHORT $LN6@CSimpleStr

; 93   : 		{
; 94   : 			pStringMgr->Free( this );

  00012	8b 0a		 mov	 ecx, DWORD PTR [edx]
  00014	52		 push	 edx
  00015	8b 01		 mov	 eax, DWORD PTR [ecx]
  00017	ff 50 04	 call	 DWORD PTR [eax+4]
$LN6@CSimpleStr:

; 265  : 		CStringData* pData = GetData();
; 266  : 		pData->Release();
; 267  : 	}

  0001a	c3		 ret	 0
??1?$CSimpleStringT@D$0A@@ATL@@QAE@XZ ENDP		; ATL::CSimpleStringT<char,0>::~CSimpleStringT<char,0>
_TEXT	ENDS
; Function compile flags: /Ogtp
; File C:\Program Files\Microsoft Visual Studio\2022\Professional\VC\Tools\MSVC\14.44.35207\atlmfc\include\atlexcept.h
;	COMDAT ?AtlThrowImpl@ATL@@YGXJ@Z
_TEXT	SEGMENT
_hr$ = 8						; size = 4
?AtlThrowImpl@ATL@@YGXJ@Z PROC				; ATL::AtlThrowImpl, COMDAT

; 69   : {

  00000	55		 push	 ebp
  00001	8b ec		 mov	 ebp, esp

; 70   : 	ATLTRACE(atlTraceException, 0, _T("AtlThrow: hr = 0x%x\n"), hr );
; 71   : #ifdef _AFX
; 72   : 	if( hr == E_OUTOFMEMORY )

  00003	8b 45 08	 mov	 eax, DWORD PTR _hr$[ebp]
  00006	3d 0e 00 07 80	 cmp	 eax, -2147024882	; 8007000eH
  0000b	75 05		 jne	 SHORT $LN2@AtlThrowIm

; 73   : 	{
; 74   : 		AfxThrowMemoryException();

  0000d	e8 00 00 00 00	 call	 ?AfxThrowMemoryException@@YGXXZ ; AfxThrowMemoryException
$LN2@AtlThrowIm:

; 75   : 	}
; 76   : 	else
; 77   : 	{
; 78   : 		AfxThrowOleException( hr );

  00012	50		 push	 eax
  00013	e8 00 00 00 00	 call	 ?AfxThrowOleException@@YGXJ@Z ; AfxThrowOleException
$LN5@AtlThrowIm:
  00018	cc		 int	 3
?AtlThrowImpl@ATL@@YGXJ@Z ENDP				; ATL::AtlThrowImpl
_TEXT	ENDS
; Function compile flags: /Ogtp
; File C:\Program Files (x86)\Windows Kits\10\Include\10.0.26100.0\ucrt\corecrt_stdio_config.h
;	COMDAT ___local_stdio_printf_options
_TEXT	SEGMENT
___local_stdio_printf_options PROC			; COMDAT

; 91   :         static unsigned __int64 _OptionsStorage;
; 92   :         return &_OptionsStorage;

  00000	b8 00 00 00 00	 mov	 eax, OFFSET ?_OptionsStorage@?1??__local_stdio_printf_options@@9@4_KA ; `__local_stdio_printf_options'::`2'::_OptionsStorage

; 93   :     }

  00005	c3		 ret	 0
___local_stdio_printf_options ENDP
_TEXT	ENDS
; Function compile flags: /Ogtp
; File C:\IAGOS\server\v18\Source\Source\_Common\ProjectLux.cpp
;	COMDAT ?__empty_global_delete@@YAXPAXI@Z
_TEXT	SEGMENT
___formal$ = 8						; size = 4
___formal$ = 12						; size = 4
?__empty_global_delete@@YAXPAXI@Z PROC			; __empty_global_delete, COMDAT

  00000	c2 00 00	 ret	 0
?__empty_global_delete@@YAXPAXI@Z ENDP			; __empty_global_delete
_TEXT	ENDS
; Function compile flags: /Ogtp
; File C:\IAGOS\server\v18\Source\Source\_Common\ProjectLux.cpp
;	COMDAT ?__empty_global_delete@@YAXPAX@Z
_TEXT	SEGMENT
___formal$ = 8						; size = 4
?__empty_global_delete@@YAXPAX@Z PROC			; __empty_global_delete, COMDAT

  00000	c2 00 00	 ret	 0
?__empty_global_delete@@YAXPAX@Z ENDP			; __empty_global_delete
_TEXT	ENDS
END
