; Listing generated by Microsoft (R) Optimizing Compiler Version 19.44.35225.0 

	TITLE	C:\IAGOS\server\v18\Source\Output\WorldServer\Release\Quiz.obj
	.686P
	.XMM
	include listing.inc
	.model	flat

INCLUDELIB LIBCMT
INCLUDELIB OLDNAMES

CONST	SEGMENT
?piecewise_construct@std@@3Upiecewise_construct_t@1@B	ORG $+1 ; std::piecewise_construct
CONST	ENDS
PUBLIC	??_H@YGXPAXIIP6EPAX0@Z@Z			; `vector constructor iterator'
PUBLIC	?__empty_global_delete@@YAXPAX@Z		; __empty_global_delete
PUBLIC	?__empty_global_delete@@YAXPAXI@Z		; __empty_global_delete
PUBLIC	___local_stdio_printf_options
PUBLIC	?AtlThrowImpl@ATL@@YGXJ@Z			; ATL::AtlThrowImpl
PUBLIC	??1?$CSimpleStringT@D$0A@@ATL@@QAE@XZ		; ATL::CSimpleStringT<char,0>::~CSimpleStringT<char,0>
PUBLIC	?SetString@?$CSimpleStringT@D$0A@@ATL@@QAEXPBDH@Z ; ATL::CSimpleStringT<char,0>::SetString
PUBLIC	?ThrowMemoryException@?$CSimpleStringT@D$0A@@ATL@@KAXXZ ; ATL::CSimpleStringT<char,0>::ThrowMemoryException
PUBLIC	?Fork@?$CSimpleStringT@D$0A@@ATL@@AAEXH@Z	; ATL::CSimpleStringT<char,0>::Fork
PUBLIC	?PrepareWrite2@?$CSimpleStringT@D$0A@@ATL@@AAEXH@Z ; ATL::CSimpleStringT<char,0>::PrepareWrite2
PUBLIC	?Reallocate@?$CSimpleStringT@D$0A@@ATL@@AAEXH@Z	; ATL::CSimpleStringT<char,0>::Reallocate
PUBLIC	?CloneData@?$CSimpleStringT@D$0A@@ATL@@CAPAUCStringData@2@PAU32@@Z ; ATL::CSimpleStringT<char,0>::CloneData
PUBLIC	??0?$CStringT@DV?$StrTraitMFC@DV?$ChTraitsCRT@D@ATL@@@@@ATL@@QAE@XZ ; ATL::CStringT<char,StrTraitMFC<char,ATL::ChTraitsCRT<char> > >::CStringT<char,StrTraitMFC<char,ATL::ChTraitsCRT<char> > >
PUBLIC	??1?$CStringT@DV?$StrTraitMFC@DV?$ChTraitsCRT@D@ATL@@@@@ATL@@QAE@XZ ; ATL::CStringT<char,StrTraitMFC<char,ATL::ChTraitsCRT<char> > >::~CStringT<char,StrTraitMFC<char,ATL::ChTraitsCRT<char> > >
PUBLIC	?Format@?$CStringT@DV?$StrTraitMFC@DV?$ChTraitsCRT@D@ATL@@@@@ATL@@QAAXPBDZZ ; ATL::CStringT<char,StrTraitMFC<char,ATL::ChTraitsCRT<char> > >::Format
PUBLIC	?FormatV@?$CStringT@DV?$StrTraitMFC@DV?$ChTraitsCRT@D@ATL@@@@@ATL@@QAEXPBDPAD@Z ; ATL::CStringT<char,StrTraitMFC<char,ATL::ChTraitsCRT<char> > >::FormatV
PUBLIC	?LoadStringA@?$CStringT@DV?$StrTraitMFC@DV?$ChTraitsCRT@D@ATL@@@@@ATL@@QAEHI@Z ; ATL::CStringT<char,StrTraitMFC<char,ATL::ChTraitsCRT<char> > >::LoadStringA
PUBLIC	??0CRect@@QAE@XZ				; CRect::CRect
PUBLIC	??0exception@std@@QAE@ABV01@@Z			; std::exception::exception
PUBLIC	??1exception@std@@UAE@XZ			; std::exception::~exception
PUBLIC	?what@exception@std@@UBEPBDXZ			; std::exception::what
PUBLIC	??_Gexception@std@@UAEPAXI@Z			; std::exception::`scalar deleting destructor'
PUBLIC	??0bad_alloc@std@@QAE@ABV01@@Z			; std::bad_alloc::bad_alloc
PUBLIC	??_Gbad_alloc@std@@UAEPAXI@Z			; std::bad_alloc::`scalar deleting destructor'
PUBLIC	??0bad_array_new_length@std@@QAE@XZ		; std::bad_array_new_length::bad_array_new_length
PUBLIC	??1bad_array_new_length@std@@UAE@XZ		; std::bad_array_new_length::~bad_array_new_length
PUBLIC	??0bad_array_new_length@std@@QAE@ABV01@@Z	; std::bad_array_new_length::bad_array_new_length
PUBLIC	??_Gbad_array_new_length@std@@UAEPAXI@Z		; std::bad_array_new_length::`scalar deleting destructor'
PUBLIC	?_Throw_bad_array_new_length@std@@YAXXZ		; std::_Throw_bad_array_new_length
PUBLIC	?_Xlen_string@std@@YAXXZ			; std::_Xlen_string
PUBLIC	??1?$basic_string@DU?$char_traits@D@std@@V?$allocator@D@2@@std@@QAE@XZ ; std::basic_string<char,std::char_traits<char>,std::allocator<char> >::~basic_string<char,std::char_traits<char>,std::allocator<char> >
PUBLIC	??0D3DXVECTOR3@@QAE@XZ				; D3DXVECTOR3::D3DXVECTOR3
PUBLIC	?GetText@CProject@@QAEPBDK@Z			; CProject::GetText
PUBLIC	??$_Allocate_manually_vector_aligned@U_Default_allocate_traits@std@@@std@@YAPAXI@Z ; std::_Allocate_manually_vector_aligned<std::_Default_allocate_traits>
PUBLIC	??0CQuiz@@QAE@XZ				; CQuiz::CQuiz
PUBLIC	??1CQuiz@@QAE@XZ				; CQuiz::~CQuiz
PUBLIC	?GetInstance@CQuiz@@SAPAV1@XZ			; CQuiz::GetInstance
PUBLIC	?Clear@CQuiz@@QAEXXZ				; CQuiz::Clear
PUBLIC	?LoadScript@CQuiz@@QAEXXZ			; CQuiz::LoadScript
PUBLIC	?InitQuizData@CQuiz@@QAEXH@Z			; CQuiz::InitQuizData
PUBLIC	?GetZoneType@CQuiz@@QAEHPAVCMover@@@Z		; CQuiz::GetZoneType
PUBLIC	?Process@CQuiz@@QAEXXZ				; CQuiz::Process
PUBLIC	?OpenQuizEvent@CQuiz@@QAEXXZ			; CQuiz::OpenQuizEvent
PUBLIC	?MakeQuizList@CQuiz@@QAEXAAU_QUIZLIST@1@@Z	; CQuiz::MakeQuizList
PUBLIC	?SetNPC@CQuiz@@QAEXXZ				; CQuiz::SetNPC
PUBLIC	?RemoveNPC@CQuiz@@QAEXXZ			; CQuiz::RemoveNPC
PUBLIC	?NoticeMessage@CQuiz@@QAEXXZ			; CQuiz::NoticeMessage
PUBLIC	?EntranceQuizEvent@CQuiz@@QAEHPAVCUser@@@Z	; CQuiz::EntranceQuizEvent
PUBLIC	?TeleportToQuizEvent@CQuiz@@QAEHPAVCUser@@H@Z	; CQuiz::TeleportToQuizEvent
PUBLIC	?GetTeleportPos@CQuiz@@QAE?AUD3DXVECTOR3@@H@Z	; CQuiz::GetTeleportPos
PUBLIC	?DropOutWrongUser@CQuiz@@QAEXHHHH@Z		; CQuiz::DropOutWrongUser
PUBLIC	?PtInCorrectZoneRect@CQuiz@@QAEHPAVCUser@@H@Z	; CQuiz::PtInCorrectZoneRect
PUBLIC	?GetUserSelectExample@CQuiz@@QAEHPAVCUser@@@Z	; CQuiz::GetUserSelectExample
PUBLIC	?GoOut@CQuiz@@QAEXPAVCUser@@@Z			; CQuiz::GoOut
PUBLIC	?CloseQuizEvent@CQuiz@@QAEXXZ			; CQuiz::CloseQuizEvent
PUBLIC	?IsInQuizEventPlayer@CQuiz@@AAEHPAVCWorld@@HH@Z	; CQuiz::IsInQuizEventPlayer
PUBLIC	??1?$vector@U_QUIZLIST@CQuiz@@V?$allocator@U_QUIZLIST@CQuiz@@@std@@@std@@QAE@XZ ; std::vector<CQuiz::_QUIZLIST,std::allocator<CQuiz::_QUIZLIST> >::~vector<CQuiz::_QUIZLIST,std::allocator<CQuiz::_QUIZLIST> >
PUBLIC	?_Xlength@?$vector@U_QUIZLIST@CQuiz@@V?$allocator@U_QUIZLIST@CQuiz@@@std@@@std@@CAXXZ ; std::vector<CQuiz::_QUIZLIST,std::allocator<CQuiz::_QUIZLIST> >::_Xlength
PUBLIC	??$_Destroy_range@V?$allocator@U_QUIZLIST@CQuiz@@@std@@@std@@YAXPAU_QUIZLIST@CQuiz@@QAU12@AAV?$allocator@U_QUIZLIST@CQuiz@@@0@@Z ; std::_Destroy_range<std::allocator<CQuiz::_QUIZLIST> >
PUBLIC	??$_Emplace_reallocate@ABU_QUIZLIST@CQuiz@@@?$vector@U_QUIZLIST@CQuiz@@V?$allocator@U_QUIZLIST@CQuiz@@@std@@@std@@AAEPAU_QUIZLIST@CQuiz@@QAU23@ABU23@@Z ; std::vector<CQuiz::_QUIZLIST,std::allocator<CQuiz::_QUIZLIST> >::_Emplace_reallocate<CQuiz::_QUIZLIST const &>
PUBLIC	??1_Reallocation_guard@?$vector@U_QUIZLIST@CQuiz@@V?$allocator@U_QUIZLIST@CQuiz@@@std@@@std@@QAE@XZ ; std::vector<CQuiz::_QUIZLIST,std::allocator<CQuiz::_QUIZLIST> >::_Reallocation_guard::~_Reallocation_guard
PUBLIC	??$_Uninitialized_move@PAU_QUIZLIST@CQuiz@@V?$allocator@U_QUIZLIST@CQuiz@@@std@@@std@@YAPAU_QUIZLIST@CQuiz@@QAU12@0PAU12@AAV?$allocator@U_QUIZLIST@CQuiz@@@0@@Z ; std::_Uninitialized_move<CQuiz::_QUIZLIST *,std::allocator<CQuiz::_QUIZLIST> >
PUBLIC	??1?$_Uninitialized_backout_al@V?$allocator@U_QUIZLIST@CQuiz@@@std@@@std@@QAE@XZ ; std::_Uninitialized_backout_al<std::allocator<CQuiz::_QUIZLIST> >::~_Uninitialized_backout_al<std::allocator<CQuiz::_QUIZLIST> >
PUBLIC	?_OptionsStorage@?1??__local_stdio_printf_options@@9@4_KA ; `__local_stdio_printf_options'::`2'::_OptionsStorage
PUBLIC	??_C@_00CNPNBAHC@@				; `string'
PUBLIC	??_7exception@std@@6B@				; std::exception::`vftable'
PUBLIC	??_C@_0BC@EOODALEL@Unknown?5exception@		; `string'
PUBLIC	??_7bad_alloc@std@@6B@				; std::bad_alloc::`vftable'
PUBLIC	??_7bad_array_new_length@std@@6B@		; std::bad_array_new_length::`vftable'
PUBLIC	??_C@_0BF@KINCDENJ@bad?5array?5new?5length@	; `string'
PUBLIC	??_R0?AVexception@std@@@8			; std::exception `RTTI Type Descriptor'
PUBLIC	__CT??_R0?AVexception@std@@@8??0exception@std@@QAE@ABV01@@Z12
PUBLIC	__TI3?AVbad_array_new_length@std@@
PUBLIC	__CTA3?AVbad_array_new_length@std@@
PUBLIC	??_R0?AVbad_array_new_length@std@@@8		; std::bad_array_new_length `RTTI Type Descriptor'
PUBLIC	__CT??_R0?AVbad_array_new_length@std@@@8??0bad_array_new_length@std@@QAE@ABV01@@Z12
PUBLIC	??_R0?AVbad_alloc@std@@@8			; std::bad_alloc `RTTI Type Descriptor'
PUBLIC	__CT??_R0?AVbad_alloc@std@@@8??0bad_alloc@std@@QAE@ABV01@@Z12
PUBLIC	??_C@_0BA@JFNIOLAK@string?5too?5long@		; `string'
PUBLIC	??_C@_0BM@HMFGHCP@?$CFs?5min?3?$CFd?0?5max?3?$CFd?0?5index?3?$CFd@ ; `string'
PUBLIC	??_C@_0BE@OHDBLHOM@GetText?5range_error@	; `string'
PUBLIC	??_C@_05KKCIMGE@error@				; `string'
PUBLIC	??_C@_0BA@FOIKENOD@vector?5too?5long@		; `string'
PUBLIC	??_R4exception@std@@6B@				; std::exception::`RTTI Complete Object Locator'
PUBLIC	??_R3exception@std@@8				; std::exception::`RTTI Class Hierarchy Descriptor'
PUBLIC	??_R2exception@std@@8				; std::exception::`RTTI Base Class Array'
PUBLIC	??_R1A@?0A@EA@exception@std@@8			; std::exception::`RTTI Base Class Descriptor at (0,-1,0,64)'
PUBLIC	??_R4bad_array_new_length@std@@6B@		; std::bad_array_new_length::`RTTI Complete Object Locator'
PUBLIC	??_R3bad_array_new_length@std@@8		; std::bad_array_new_length::`RTTI Class Hierarchy Descriptor'
PUBLIC	??_R2bad_array_new_length@std@@8		; std::bad_array_new_length::`RTTI Base Class Array'
PUBLIC	??_R1A@?0A@EA@bad_array_new_length@std@@8	; std::bad_array_new_length::`RTTI Base Class Descriptor at (0,-1,0,64)'
PUBLIC	??_R1A@?0A@EA@bad_alloc@std@@8			; std::bad_alloc::`RTTI Base Class Descriptor at (0,-1,0,64)'
PUBLIC	??_R3bad_alloc@std@@8				; std::bad_alloc::`RTTI Class Hierarchy Descriptor'
PUBLIC	??_R2bad_alloc@std@@8				; std::bad_alloc::`RTTI Base Class Array'
PUBLIC	??_R4bad_alloc@std@@6B@				; std::bad_alloc::`RTTI Complete Object Locator'
PUBLIC	??_C@_0O@JDCLLGCC@QuizEvent?4lua@		; `string'
PUBLIC	??_C@_0BN@EBBMEDBP@QuizEvent?4lua?5Load?5Failed?$CB?$CB?$CB@ ; `string'
PUBLIC	??_C@_08EBFIKNOF@AutoMode@			; `string'
PUBLIC	??_C@_08LLCHHHKO@QuizType@			; `string'
PUBLIC	??_C@_0N@JCCLKJOL@EntranceTime@			; `string'
PUBLIC	??_C@_0M@ECLCMILM@QuizChannel@			; `string'
PUBLIC	??_C@_04PJKMFDJF@tNPC@				; `string'
PUBLIC	??_C@_08HJAPABMB@strNPCId@			; `string'
PUBLIC	??_C@_0L@HBEKAIME@strCharKey@			; `string'
PUBLIC	??_C@_04HMOLAKGG@xPos@				; `string'
PUBLIC	??_C@_04EBILCDNG@yPos@				; `string'
PUBLIC	??_C@_04GCLFJAG@zPos@				; `string'
PUBLIC	??_C@_08EOCBDHDJ@WaitTime@			; `string'
PUBLIC	??_C@_0N@FKFAMIPA@QuestionTime@			; `string'
PUBLIC	??_C@_0L@GPHHACPN@AnswerTime@			; `string'
PUBLIC	??_C@_0BF@EAEPOECD@WatchingZoneOpenTime@	; `string'
PUBLIC	??_C@_0O@NKMKODGA@CloseWaitTime@		; `string'
PUBLIC	??_C@_0M@GJAPPAPC@PrizeItemId@			; `string'
PUBLIC	??_C@_0N@DLKHINE@PrizeItemNum@			; `string'
PUBLIC	??_C@_0CK@PGMODMCB@CQuiz?3?3SetNPC?$CI?$CJ?5?9?5pMover?5is?5NUL@ ; `string'
PUBLIC	??_C@_0BH@BOEBFKLD@Quiz?5List?5Load?5Failed?$CB@ ; `string'
EXTRN	??2@YAPAXI@Z:PROC				; operator new
EXTRN	??3@YAXPAXI@Z:PROC				; operator delete
EXTRN	_atexit:PROC
EXTRN	__Init_thread_header:PROC
EXTRN	__Init_thread_footer:PROC
EXTRN	__invalid_parameter_noinfo:PROC
EXTRN	__invoke_watson:PROC
EXTRN	__errno:PROC
EXTRN	__imp__GetTickCount@0:PROC
EXTRN	__imp__LoadResource@8:PROC
EXTRN	__imp__LockResource@4:PROC
EXTRN	__imp__SizeofResource@8:PROC
EXTRN	__imp__FindResourceW@12:PROC
EXTRN	__imp__lstrcpyA@8:PROC
EXTRN	__imp__PtInRect@12:PROC
EXTRN	__imp__WideCharToMultiByte@32:PROC
EXTRN	___stdio_common_vsprintf:PROC
EXTRN	___stdio_common_vsprintf_s:PROC
EXTRN	_exit:PROC
EXTRN	?AfxThrowMemoryException@@YGXXZ:PROC		; AfxThrowMemoryException
EXTRN	?AfxThrowOleException@@YGXJ@Z:PROC		; AfxThrowOleException
EXTRN	?AfxFindStringResourceHandle@@YGPAUHINSTANCE__@@I@Z:PROC ; AfxFindStringResourceHandle
EXTRN	?AfxGetStringManager@@YGPAUIAtlStringMgr@ATL@@XZ:PROC ; AfxGetStringManager
EXTRN	___std_exception_copy:PROC
EXTRN	___std_exception_destroy:PROC
EXTRN	??_Eexception@std@@UAEPAXI@Z:PROC		; std::exception::`vector deleting destructor'
EXTRN	??_Ebad_alloc@std@@UAEPAXI@Z:PROC		; std::bad_alloc::`vector deleting destructor'
EXTRN	??_Ebad_array_new_length@std@@UAEPAXI@Z:PROC	; std::bad_array_new_length::`vector deleting destructor'
EXTRN	?_Xlength_error@std@@YAXPBD@Z:PROC		; std::_Xlength_error
EXTRN	?GetDefineNum@CScript@@SAHPBD@Z:PROC		; CScript::GetDefineNum
EXTRN	?Error@@YAPBDPBDZZ:PROC				; Error
EXTRN	?UpdateLocalMatrix@CObj@@QAEXXZ:PROC		; CObj::UpdateLocalMatrix
EXTRN	?Delete@CObj@@QAEXXZ:PROC			; CObj::Delete
EXTRN	?SetPos@CObj@@QAEXABUD3DXVECTOR3@@@Z:PROC	; CObj::SetPos
EXTRN	_lua_pushnil:PROC
EXTRN	_lua_getglobal:PROC
EXTRN	_lua_next:PROC
EXTRN	??0CLuaBase@@QAE@XZ:PROC			; CLuaBase::CLuaBase
EXTRN	??1CLuaBase@@UAE@XZ:PROC			; CLuaBase::~CLuaBase
EXTRN	?RunScript@CLuaBase@@QAEHPBD@Z:PROC		; CLuaBase::RunScript
EXTRN	?Pop@CLuaBase@@QAEXH@Z:PROC			; CLuaBase::Pop
EXTRN	?GetGlobalNumber@CLuaBase@@QAENPAD@Z:PROC	; CLuaBase::GetGlobalNumber
EXTRN	?GetGlobalString@CLuaBase@@QAEPBDPAD@Z:PROC	; CLuaBase::GetGlobalString
EXTRN	?GetGlobalBool@CLuaBase@@QAEHPAD@Z:PROC		; CLuaBase::GetGlobalBool
EXTRN	?GetFieldToNumber@CLuaBase@@QAENHPAD@Z:PROC	; CLuaBase::GetFieldToNumber
EXTRN	?GetFieldToString@CLuaBase@@QAEPBDHPAD@Z:PROC	; CLuaBase::GetFieldToString
EXTRN	?GetMover@CProject@@QAEPAVCMover@@K@Z:PROC	; CProject::GetMover
EXTRN	?HasPet@CMover@@QAEHXZ:PROC			; CMover::HasPet
EXTRN	?RemovePet@CMover@@QAEXXZ:PROC			; CMover::RemovePet
EXTRN	?InactivateEatPet@CMover@@QAEXXZ:PROC		; CMover::InactivateEatPet
EXTRN	?PetRelease@CMover@@QAEXXZ:PROC			; CMover::PetRelease
EXTRN	?InitCharacter@CMover@@QAEXPAUtagCHARACTER@@@Z:PROC ; CMover::InitCharacter
EXTRN	?GetCharacter@CMover@@QAEPAUtagCHARACTER@@XZ:PROC ; CMover::GetCharacter
EXTRN	?InitNPCProperty@CMover@@QAEXXZ:PROC		; CMover::InitNPCProperty
EXTRN	?Replace@CMover@@QAEHKKAAUD3DXVECTOR3@@W4REPLACE_TYPE@@H@Z:PROC ; CMover::Replace
EXTRN	?AddObj@CWorld@@QAEHPAVCObj@@HH@Z:PROC		; CWorld::AddObj
EXTRN	?CreateObj@@YAPAVCObj@@PAUIDirect3DDevice9@@KKH@Z:PROC ; CreateObj
EXTRN	?AddQuizEventState@CUser@@QAEXHH@Z:PROC		; CUser::AddQuizEventState
EXTRN	?AddQuizEventMessage@CUser@@QAEXPBDH@Z:PROC	; CUser::AddQuizEventMessage
EXTRN	?AddQuizQuestion@CUser@@QAEXHPBDH@Z:PROC	; CUser::AddQuizQuestion
EXTRN	?AddCreateSfxObj@CUserMng@@QAEXPAVCCtrl@@KMMMH@Z:PROC ; CUserMng::AddCreateSfxObj
EXTRN	?AddWorldCreateSfxObj@CUserMng@@QAEXKMMMHK@Z:PROC ; CUserMng::AddWorldCreateSfxObj
EXTRN	?GetWorld@CWorldMng@@QAEPAVCWorld@@K@Z:PROC	; CWorldMng::GetWorld
EXTRN	?SendQuizEventState@CDPDatabaseClient@@QAEXHHHH@Z:PROC ; CDPDatabaseClient::SendQuizEventState
EXTRN	?SendQuizEventEntrance@CDPDatabaseClient@@QAEXKH@Z:PROC ; CDPDatabaseClient::SendQuizEventEntrance
EXTRN	?SendQuizEventSelect@CDPDatabaseClient@@QAEXKHHHH@Z:PROC ; CDPDatabaseClient::SendQuizEventSelect
EXTRN	?SendPostPrizeItem@CDPDatabaseClient@@QAEXKKH@Z:PROC ; CDPDatabaseClient::SendPostPrizeItem
EXTRN	?SendQuizSystemMessage@CDPCoreClient@@QAEXHHHH@Z:PROC ; CDPCoreClient::SendQuizSystemMessage
EXTRN	@__security_check_cookie@4:PROC
EXTRN	__CxxThrowException@8:PROC
EXTRN	___CxxFrameHandler3:PROC
EXTRN	__ftol2:PROC
EXTRN	__ftol2_sse:PROC
EXTRN	_memcpy:PROC
EXTRN	_memmove:PROC
EXTRN	_memset:PROC
EXTRN	__Init_thread_epoch:DWORD
EXTRN	??_7type_info@@6B@:QWORD			; type_info::`vftable'
EXTRN	?g_next@@3KA:DWORD				; g_next
EXTRN	?prj@@3VCProject@@A:BYTE			; prj
EXTRN	?g_uIdofMulti@@3KA:DWORD			; g_uIdofMulti
EXTRN	?g_UserMng@@3VCUserMng@@A:BYTE			; g_UserMng
EXTRN	?g_WorldMng@@3VCWorldMng@@A:BYTE		; g_WorldMng
EXTRN	?g_dpDBClient@@3VCDPDatabaseClient@@A:BYTE	; g_dpDBClient
EXTRN	?g_DPCoreClient@@3VCDPCoreClient@@A:BYTE	; g_DPCoreClient
EXTRN	___security_cookie:DWORD
EXTRN	__fltused:DWORD
EXTRN	__tls_array:DWORD
EXTRN	__tls_index:DWORD
;	COMDAT ?_OptionsStorage@?1??__local_stdio_printf_options@@9@4_KA
_BSS	SEGMENT
?_OptionsStorage@?1??__local_stdio_printf_options@@9@4_KA DQ 01H DUP (?) ; `__local_stdio_printf_options'::`2'::_OptionsStorage
_BSS	ENDS
;	COMDAT ?sQuiz@?1??GetInstance@CQuiz@@SAPAV2@XZ@4V2@A
_BSS	SEGMENT
?sQuiz@?1??GetInstance@CQuiz@@SAPAV2@XZ@4V2@A DB 0114H DUP (?) ; `CQuiz::GetInstance'::`2'::sQuiz
_BSS	ENDS
;	COMDAT ?$TSS0@?1??GetInstance@CQuiz@@SAPAV2@XZ@4HA
_BSS	SEGMENT
?$TSS0@?1??GetInstance@CQuiz@@SAPAV2@XZ@4HA DD 01H DUP (?) ; `CQuiz::GetInstance'::`2'::$TSS0
_BSS	ENDS
;	COMDAT ??_C@_0BH@BOEBFKLD@Quiz?5List?5Load?5Failed?$CB@
CONST	SEGMENT
??_C@_0BH@BOEBFKLD@Quiz?5List?5Load?5Failed?$CB@ DB 'Quiz List Load Faile'
	DB	'd!', 00H					; `string'
CONST	ENDS
;	COMDAT ??_C@_0CK@PGMODMCB@CQuiz?3?3SetNPC?$CI?$CJ?5?9?5pMover?5is?5NUL@
CONST	SEGMENT
??_C@_0CK@PGMODMCB@CQuiz?3?3SetNPC?$CI?$CJ?5?9?5pMover?5is?5NUL@ DB 'CQui'
	DB	'z::SetNPC() - pMover is NULL - %d, %s', 00H	; `string'
CONST	ENDS
;	COMDAT ??_C@_0N@DLKHINE@PrizeItemNum@
CONST	SEGMENT
??_C@_0N@DLKHINE@PrizeItemNum@ DB 'PrizeItemNum', 00H	; `string'
CONST	ENDS
;	COMDAT ??_C@_0M@GJAPPAPC@PrizeItemId@
CONST	SEGMENT
??_C@_0M@GJAPPAPC@PrizeItemId@ DB 'PrizeItemId', 00H	; `string'
CONST	ENDS
;	COMDAT ??_C@_0O@NKMKODGA@CloseWaitTime@
CONST	SEGMENT
??_C@_0O@NKMKODGA@CloseWaitTime@ DB 'CloseWaitTime', 00H ; `string'
CONST	ENDS
;	COMDAT ??_C@_0BF@EAEPOECD@WatchingZoneOpenTime@
CONST	SEGMENT
??_C@_0BF@EAEPOECD@WatchingZoneOpenTime@ DB 'WatchingZoneOpenTime', 00H ; `string'
CONST	ENDS
;	COMDAT ??_C@_0L@GPHHACPN@AnswerTime@
CONST	SEGMENT
??_C@_0L@GPHHACPN@AnswerTime@ DB 'AnswerTime', 00H	; `string'
CONST	ENDS
;	COMDAT ??_C@_0N@FKFAMIPA@QuestionTime@
CONST	SEGMENT
??_C@_0N@FKFAMIPA@QuestionTime@ DB 'QuestionTime', 00H	; `string'
CONST	ENDS
;	COMDAT ??_C@_08EOCBDHDJ@WaitTime@
CONST	SEGMENT
??_C@_08EOCBDHDJ@WaitTime@ DB 'WaitTime', 00H		; `string'
CONST	ENDS
;	COMDAT ??_C@_04GCLFJAG@zPos@
CONST	SEGMENT
??_C@_04GCLFJAG@zPos@ DB 'zPos', 00H			; `string'
CONST	ENDS
;	COMDAT ??_C@_04EBILCDNG@yPos@
CONST	SEGMENT
??_C@_04EBILCDNG@yPos@ DB 'yPos', 00H			; `string'
CONST	ENDS
;	COMDAT ??_C@_04HMOLAKGG@xPos@
CONST	SEGMENT
??_C@_04HMOLAKGG@xPos@ DB 'xPos', 00H			; `string'
CONST	ENDS
;	COMDAT ??_C@_0L@HBEKAIME@strCharKey@
CONST	SEGMENT
??_C@_0L@HBEKAIME@strCharKey@ DB 'strCharKey', 00H	; `string'
CONST	ENDS
;	COMDAT ??_C@_08HJAPABMB@strNPCId@
CONST	SEGMENT
??_C@_08HJAPABMB@strNPCId@ DB 'strNPCId', 00H		; `string'
CONST	ENDS
;	COMDAT ??_C@_04PJKMFDJF@tNPC@
CONST	SEGMENT
??_C@_04PJKMFDJF@tNPC@ DB 'tNPC', 00H			; `string'
CONST	ENDS
;	COMDAT ??_C@_0M@ECLCMILM@QuizChannel@
CONST	SEGMENT
??_C@_0M@ECLCMILM@QuizChannel@ DB 'QuizChannel', 00H	; `string'
CONST	ENDS
;	COMDAT ??_C@_0N@JCCLKJOL@EntranceTime@
CONST	SEGMENT
??_C@_0N@JCCLKJOL@EntranceTime@ DB 'EntranceTime', 00H	; `string'
CONST	ENDS
;	COMDAT ??_C@_08LLCHHHKO@QuizType@
CONST	SEGMENT
??_C@_08LLCHHHKO@QuizType@ DB 'QuizType', 00H		; `string'
CONST	ENDS
;	COMDAT ??_C@_08EBFIKNOF@AutoMode@
CONST	SEGMENT
??_C@_08EBFIKNOF@AutoMode@ DB 'AutoMode', 00H		; `string'
CONST	ENDS
;	COMDAT ??_C@_0BN@EBBMEDBP@QuizEvent?4lua?5Load?5Failed?$CB?$CB?$CB@
CONST	SEGMENT
??_C@_0BN@EBBMEDBP@QuizEvent?4lua?5Load?5Failed?$CB?$CB?$CB@ DB 'QuizEven'
	DB	't.lua Load Failed!!!', 00H			; `string'
CONST	ENDS
;	COMDAT ??_C@_0O@JDCLLGCC@QuizEvent?4lua@
CONST	SEGMENT
??_C@_0O@JDCLLGCC@QuizEvent?4lua@ DB 'QuizEvent.lua', 00H ; `string'
CONST	ENDS
;	COMDAT ??_R4bad_alloc@std@@6B@
rdata$r	SEGMENT
??_R4bad_alloc@std@@6B@ DD 00H				; std::bad_alloc::`RTTI Complete Object Locator'
	DD	00H
	DD	00H
	DD	FLAT:??_R0?AVbad_alloc@std@@@8
	DD	FLAT:??_R3bad_alloc@std@@8
rdata$r	ENDS
;	COMDAT ??_R2bad_alloc@std@@8
rdata$r	SEGMENT
??_R2bad_alloc@std@@8 DD FLAT:??_R1A@?0A@EA@bad_alloc@std@@8 ; std::bad_alloc::`RTTI Base Class Array'
	DD	FLAT:??_R1A@?0A@EA@exception@std@@8
rdata$r	ENDS
;	COMDAT ??_R3bad_alloc@std@@8
rdata$r	SEGMENT
??_R3bad_alloc@std@@8 DD 00H				; std::bad_alloc::`RTTI Class Hierarchy Descriptor'
	DD	00H
	DD	02H
	DD	FLAT:??_R2bad_alloc@std@@8
rdata$r	ENDS
;	COMDAT ??_R1A@?0A@EA@bad_alloc@std@@8
rdata$r	SEGMENT
??_R1A@?0A@EA@bad_alloc@std@@8 DD FLAT:??_R0?AVbad_alloc@std@@@8 ; std::bad_alloc::`RTTI Base Class Descriptor at (0,-1,0,64)'
	DD	01H
	DD	00H
	DD	0ffffffffH
	DD	00H
	DD	040H
	DD	FLAT:??_R3bad_alloc@std@@8
rdata$r	ENDS
;	COMDAT ??_R1A@?0A@EA@bad_array_new_length@std@@8
rdata$r	SEGMENT
??_R1A@?0A@EA@bad_array_new_length@std@@8 DD FLAT:??_R0?AVbad_array_new_length@std@@@8 ; std::bad_array_new_length::`RTTI Base Class Descriptor at (0,-1,0,64)'
	DD	02H
	DD	00H
	DD	0ffffffffH
	DD	00H
	DD	040H
	DD	FLAT:??_R3bad_array_new_length@std@@8
rdata$r	ENDS
;	COMDAT ??_R2bad_array_new_length@std@@8
rdata$r	SEGMENT
??_R2bad_array_new_length@std@@8 DD FLAT:??_R1A@?0A@EA@bad_array_new_length@std@@8 ; std::bad_array_new_length::`RTTI Base Class Array'
	DD	FLAT:??_R1A@?0A@EA@bad_alloc@std@@8
	DD	FLAT:??_R1A@?0A@EA@exception@std@@8
rdata$r	ENDS
;	COMDAT ??_R3bad_array_new_length@std@@8
rdata$r	SEGMENT
??_R3bad_array_new_length@std@@8 DD 00H			; std::bad_array_new_length::`RTTI Class Hierarchy Descriptor'
	DD	00H
	DD	03H
	DD	FLAT:??_R2bad_array_new_length@std@@8
rdata$r	ENDS
;	COMDAT ??_R4bad_array_new_length@std@@6B@
rdata$r	SEGMENT
??_R4bad_array_new_length@std@@6B@ DD 00H		; std::bad_array_new_length::`RTTI Complete Object Locator'
	DD	00H
	DD	00H
	DD	FLAT:??_R0?AVbad_array_new_length@std@@@8
	DD	FLAT:??_R3bad_array_new_length@std@@8
rdata$r	ENDS
;	COMDAT ??_R1A@?0A@EA@exception@std@@8
rdata$r	SEGMENT
??_R1A@?0A@EA@exception@std@@8 DD FLAT:??_R0?AVexception@std@@@8 ; std::exception::`RTTI Base Class Descriptor at (0,-1,0,64)'
	DD	00H
	DD	00H
	DD	0ffffffffH
	DD	00H
	DD	040H
	DD	FLAT:??_R3exception@std@@8
rdata$r	ENDS
;	COMDAT ??_R2exception@std@@8
rdata$r	SEGMENT
??_R2exception@std@@8 DD FLAT:??_R1A@?0A@EA@exception@std@@8 ; std::exception::`RTTI Base Class Array'
rdata$r	ENDS
;	COMDAT ??_R3exception@std@@8
rdata$r	SEGMENT
??_R3exception@std@@8 DD 00H				; std::exception::`RTTI Class Hierarchy Descriptor'
	DD	00H
	DD	01H
	DD	FLAT:??_R2exception@std@@8
rdata$r	ENDS
;	COMDAT ??_R4exception@std@@6B@
rdata$r	SEGMENT
??_R4exception@std@@6B@ DD 00H				; std::exception::`RTTI Complete Object Locator'
	DD	00H
	DD	00H
	DD	FLAT:??_R0?AVexception@std@@@8
	DD	FLAT:??_R3exception@std@@8
rdata$r	ENDS
;	COMDAT ??_C@_0BA@FOIKENOD@vector?5too?5long@
CONST	SEGMENT
??_C@_0BA@FOIKENOD@vector?5too?5long@ DB 'vector too long', 00H ; `string'
CONST	ENDS
;	COMDAT ??_C@_05KKCIMGE@error@
CONST	SEGMENT
??_C@_05KKCIMGE@error@ DB 'error', 00H			; `string'
CONST	ENDS
;	COMDAT ??_C@_0BE@OHDBLHOM@GetText?5range_error@
CONST	SEGMENT
??_C@_0BE@OHDBLHOM@GetText?5range_error@ DB 'GetText range_error', 00H ; `string'
CONST	ENDS
;	COMDAT ??_C@_0BM@HMFGHCP@?$CFs?5min?3?$CFd?0?5max?3?$CFd?0?5index?3?$CFd@
CONST	SEGMENT
??_C@_0BM@HMFGHCP@?$CFs?5min?3?$CFd?0?5max?3?$CFd?0?5index?3?$CFd@ DB '%s'
	DB	' min:%d, max:%d, index:%d', 00H		; `string'
CONST	ENDS
;	COMDAT ??_C@_0BA@JFNIOLAK@string?5too?5long@
CONST	SEGMENT
??_C@_0BA@JFNIOLAK@string?5too?5long@ DB 'string too long', 00H ; `string'
CONST	ENDS
;	COMDAT __CT??_R0?AVbad_alloc@std@@@8??0bad_alloc@std@@QAE@ABV01@@Z12
xdata$x	SEGMENT
__CT??_R0?AVbad_alloc@std@@@8??0bad_alloc@std@@QAE@ABV01@@Z12 DD 010H
	DD	FLAT:??_R0?AVbad_alloc@std@@@8
	DD	00H
	DD	0ffffffffH
	ORG $+4
	DD	0cH
	DD	FLAT:??0bad_alloc@std@@QAE@ABV01@@Z
xdata$x	ENDS
;	COMDAT ??_R0?AVbad_alloc@std@@@8
data$r	SEGMENT
??_R0?AVbad_alloc@std@@@8 DD FLAT:??_7type_info@@6B@	; std::bad_alloc `RTTI Type Descriptor'
	DD	00H
	DB	'.?AVbad_alloc@std@@', 00H
data$r	ENDS
;	COMDAT __CT??_R0?AVbad_array_new_length@std@@@8??0bad_array_new_length@std@@QAE@ABV01@@Z12
xdata$x	SEGMENT
__CT??_R0?AVbad_array_new_length@std@@@8??0bad_array_new_length@std@@QAE@ABV01@@Z12 DD 00H
	DD	FLAT:??_R0?AVbad_array_new_length@std@@@8
	DD	00H
	DD	0ffffffffH
	ORG $+4
	DD	0cH
	DD	FLAT:??0bad_array_new_length@std@@QAE@ABV01@@Z
xdata$x	ENDS
;	COMDAT ??_R0?AVbad_array_new_length@std@@@8
data$r	SEGMENT
??_R0?AVbad_array_new_length@std@@@8 DD FLAT:??_7type_info@@6B@ ; std::bad_array_new_length `RTTI Type Descriptor'
	DD	00H
	DB	'.?AVbad_array_new_length@std@@', 00H
data$r	ENDS
;	COMDAT __CTA3?AVbad_array_new_length@std@@
xdata$x	SEGMENT
__CTA3?AVbad_array_new_length@std@@ DD 03H
	DD	FLAT:__CT??_R0?AVbad_array_new_length@std@@@8??0bad_array_new_length@std@@QAE@ABV01@@Z12
	DD	FLAT:__CT??_R0?AVbad_alloc@std@@@8??0bad_alloc@std@@QAE@ABV01@@Z12
	DD	FLAT:__CT??_R0?AVexception@std@@@8??0exception@std@@QAE@ABV01@@Z12
xdata$x	ENDS
;	COMDAT __TI3?AVbad_array_new_length@std@@
xdata$x	SEGMENT
__TI3?AVbad_array_new_length@std@@ DD 00H
	DD	FLAT:??1bad_array_new_length@std@@UAE@XZ
	DD	00H
	DD	FLAT:__CTA3?AVbad_array_new_length@std@@
xdata$x	ENDS
;	COMDAT __CT??_R0?AVexception@std@@@8??0exception@std@@QAE@ABV01@@Z12
xdata$x	SEGMENT
__CT??_R0?AVexception@std@@@8??0exception@std@@QAE@ABV01@@Z12 DD 00H
	DD	FLAT:??_R0?AVexception@std@@@8
	DD	00H
	DD	0ffffffffH
	ORG $+4
	DD	0cH
	DD	FLAT:??0exception@std@@QAE@ABV01@@Z
xdata$x	ENDS
;	COMDAT ??_R0?AVexception@std@@@8
data$r	SEGMENT
??_R0?AVexception@std@@@8 DD FLAT:??_7type_info@@6B@	; std::exception `RTTI Type Descriptor'
	DD	00H
	DB	'.?AVexception@std@@', 00H
data$r	ENDS
;	COMDAT ??_C@_0BF@KINCDENJ@bad?5array?5new?5length@
CONST	SEGMENT
??_C@_0BF@KINCDENJ@bad?5array?5new?5length@ DB 'bad array new length', 00H ; `string'
CONST	ENDS
;	COMDAT ??_7bad_array_new_length@std@@6B@
CONST	SEGMENT
??_7bad_array_new_length@std@@6B@ DD FLAT:??_R4bad_array_new_length@std@@6B@ ; std::bad_array_new_length::`vftable'
	DD	FLAT:??_Ebad_array_new_length@std@@UAEPAXI@Z
	DD	FLAT:?what@exception@std@@UBEPBDXZ
CONST	ENDS
;	COMDAT ??_7bad_alloc@std@@6B@
CONST	SEGMENT
??_7bad_alloc@std@@6B@ DD FLAT:??_R4bad_alloc@std@@6B@	; std::bad_alloc::`vftable'
	DD	FLAT:??_Ebad_alloc@std@@UAEPAXI@Z
	DD	FLAT:?what@exception@std@@UBEPBDXZ
CONST	ENDS
;	COMDAT ??_C@_0BC@EOODALEL@Unknown?5exception@
CONST	SEGMENT
??_C@_0BC@EOODALEL@Unknown?5exception@ DB 'Unknown exception', 00H ; `string'
CONST	ENDS
;	COMDAT ??_7exception@std@@6B@
CONST	SEGMENT
??_7exception@std@@6B@ DD FLAT:??_R4exception@std@@6B@	; std::exception::`vftable'
	DD	FLAT:??_Eexception@std@@UAEPAXI@Z
	DD	FLAT:?what@exception@std@@UBEPBDXZ
CONST	ENDS
;	COMDAT ??_C@_00CNPNBAHC@@
CONST	SEGMENT
??_C@_00CNPNBAHC@@ DB 00H				; `string'
CONST	ENDS
;	COMDAT xdata$x
xdata$x	SEGMENT
__unwindtable$??$_Uninitialized_move@PAU_QUIZLIST@CQuiz@@V?$allocator@U_QUIZLIST@CQuiz@@@std@@@std@@YAPAU_QUIZLIST@CQuiz@@QAU12@0PAU12@AAV?$allocator@U_QUIZLIST@CQuiz@@@0@@Z DD 0ffffffffH
	DD	FLAT:__unwindfunclet$??$_Uninitialized_move@PAU_QUIZLIST@CQuiz@@V?$allocator@U_QUIZLIST@CQuiz@@@std@@@std@@YAPAU_QUIZLIST@CQuiz@@QAU12@0PAU12@AAV?$allocator@U_QUIZLIST@CQuiz@@@0@@Z$0
__ehfuncinfo$??$_Uninitialized_move@PAU_QUIZLIST@CQuiz@@V?$allocator@U_QUIZLIST@CQuiz@@@std@@@std@@YAPAU_QUIZLIST@CQuiz@@QAU12@0PAU12@AAV?$allocator@U_QUIZLIST@CQuiz@@@0@@Z DD 019930522H
	DD	01H
	DD	FLAT:__unwindtable$??$_Uninitialized_move@PAU_QUIZLIST@CQuiz@@V?$allocator@U_QUIZLIST@CQuiz@@@std@@@std@@YAPAU_QUIZLIST@CQuiz@@QAU12@0PAU12@AAV?$allocator@U_QUIZLIST@CQuiz@@@0@@Z
	DD	2 DUP(00H)
	DD	2 DUP(00H)
	DD	00H
	DD	01H
xdata$x	ENDS
;	COMDAT xdata$x
xdata$x	SEGMENT
__unwindtable$??$_Uninitialized_copy@PAU_QUIZLIST@CQuiz@@PAU12@V?$allocator@U_QUIZLIST@CQuiz@@@std@@@std@@YAPAU_QUIZLIST@CQuiz@@PAU12@00AAV?$allocator@U_QUIZLIST@CQuiz@@@0@@Z DD 0ffffffffH
	DD	FLAT:__unwindfunclet$??$_Uninitialized_copy@PAU_QUIZLIST@CQuiz@@PAU12@V?$allocator@U_QUIZLIST@CQuiz@@@std@@@std@@YAPAU_QUIZLIST@CQuiz@@PAU12@00AAV?$allocator@U_QUIZLIST@CQuiz@@@0@@Z$0
__ehfuncinfo$??$_Uninitialized_copy@PAU_QUIZLIST@CQuiz@@PAU12@V?$allocator@U_QUIZLIST@CQuiz@@@std@@@std@@YAPAU_QUIZLIST@CQuiz@@PAU12@00AAV?$allocator@U_QUIZLIST@CQuiz@@@0@@Z DD 019930522H
	DD	01H
	DD	FLAT:__unwindtable$??$_Uninitialized_copy@PAU_QUIZLIST@CQuiz@@PAU12@V?$allocator@U_QUIZLIST@CQuiz@@@std@@@std@@YAPAU_QUIZLIST@CQuiz@@PAU12@00AAV?$allocator@U_QUIZLIST@CQuiz@@@0@@Z
	DD	2 DUP(00H)
	DD	2 DUP(00H)
	DD	00H
	DD	01H
xdata$x	ENDS
;	COMDAT xdata$x
xdata$x	SEGMENT
__unwindtable$??$_Emplace_reallocate@ABU_QUIZLIST@CQuiz@@@?$vector@U_QUIZLIST@CQuiz@@V?$allocator@U_QUIZLIST@CQuiz@@@std@@@std@@AAEPAU_QUIZLIST@CQuiz@@QAU23@ABU23@@Z DD 0ffffffffH
	DD	FLAT:__unwindfunclet$??$_Emplace_reallocate@ABU_QUIZLIST@CQuiz@@@?$vector@U_QUIZLIST@CQuiz@@V?$allocator@U_QUIZLIST@CQuiz@@@std@@@std@@AAEPAU_QUIZLIST@CQuiz@@QAU23@ABU23@@Z$0
	DD	00H
	DD	FLAT:__unwindfunclet$??$_Emplace_reallocate@ABU_QUIZLIST@CQuiz@@@?$vector@U_QUIZLIST@CQuiz@@V?$allocator@U_QUIZLIST@CQuiz@@@std@@@std@@AAEPAU_QUIZLIST@CQuiz@@QAU23@ABU23@@Z$3
__ehfuncinfo$??$_Emplace_reallocate@ABU_QUIZLIST@CQuiz@@@?$vector@U_QUIZLIST@CQuiz@@V?$allocator@U_QUIZLIST@CQuiz@@@std@@@std@@AAEPAU_QUIZLIST@CQuiz@@QAU23@ABU23@@Z DD 019930522H
	DD	02H
	DD	FLAT:__unwindtable$??$_Emplace_reallocate@ABU_QUIZLIST@CQuiz@@@?$vector@U_QUIZLIST@CQuiz@@V?$allocator@U_QUIZLIST@CQuiz@@@std@@@std@@AAEPAU_QUIZLIST@CQuiz@@QAU23@ABU23@@Z
	DD	2 DUP(00H)
	DD	2 DUP(00H)
	DD	00H
	DD	01H
xdata$x	ENDS
;	COMDAT xdata$x
xdata$x	SEGMENT
__ehfuncinfo$??$_Destroy_range@V?$allocator@U_QUIZLIST@CQuiz@@@std@@@std@@YAXPAU_QUIZLIST@CQuiz@@QAU12@AAV?$allocator@U_QUIZLIST@CQuiz@@@0@@Z DD 019930522H
	DD	00H
	DD	00H
	DD	2 DUP(00H)
	DD	2 DUP(00H)
	DD	00H
	DD	05H
xdata$x	ENDS
;	COMDAT xdata$x
xdata$x	SEGMENT
__unwindtable$?DropOutWrongUser@CQuiz@@QAEXHHHH@Z DD 0ffffffffH
	DD	FLAT:__unwindfunclet$?DropOutWrongUser@CQuiz@@QAEXHHHH@Z$0
__ehfuncinfo$?DropOutWrongUser@CQuiz@@QAEXHHHH@Z DD 019930522H
	DD	01H
	DD	FLAT:__unwindtable$?DropOutWrongUser@CQuiz@@QAEXHHHH@Z
	DD	2 DUP(00H)
	DD	2 DUP(00H)
	DD	00H
	DD	01H
xdata$x	ENDS
;	COMDAT xdata$x
xdata$x	SEGMENT
__unwindtable$?Process@CQuiz@@QAEXXZ DD 0ffffffffH
	DD	FLAT:__unwindfunclet$?Process@CQuiz@@QAEXXZ$0
	DD	00H
	DD	FLAT:__unwindfunclet$?Process@CQuiz@@QAEXXZ$1
__ehfuncinfo$?Process@CQuiz@@QAEXXZ DD 019930522H
	DD	02H
	DD	FLAT:__unwindtable$?Process@CQuiz@@QAEXXZ
	DD	2 DUP(00H)
	DD	2 DUP(00H)
	DD	00H
	DD	01H
xdata$x	ENDS
;	COMDAT xdata$x
xdata$x	SEGMENT
__unwindtable$?LoadScript@CQuiz@@QAEXXZ DD 0ffffffffH
	DD	FLAT:__unwindfunclet$?LoadScript@CQuiz@@QAEXXZ$0
__ehfuncinfo$?LoadScript@CQuiz@@QAEXXZ DD 019930522H
	DD	01H
	DD	FLAT:__unwindtable$?LoadScript@CQuiz@@QAEXXZ
	DD	2 DUP(00H)
	DD	2 DUP(00H)
	DD	00H
	DD	01H
xdata$x	ENDS
;	COMDAT xdata$x
xdata$x	SEGMENT
__ehfuncinfo$??_G_QUIZLIST@CQuiz@@QAEPAXI@Z DD 019930522H
	DD	00H
	DD	00H
	DD	2 DUP(00H)
	DD	2 DUP(00H)
	DD	00H
	DD	05H
xdata$x	ENDS
;	COMDAT xdata$x
xdata$x	SEGMENT
__ehfuncinfo$??1_QUIZLIST@CQuiz@@QAE@XZ DD 019930522H
	DD	00H
	DD	00H
	DD	2 DUP(00H)
	DD	2 DUP(00H)
	DD	00H
	DD	05H
xdata$x	ENDS
;	COMDAT xdata$x
xdata$x	SEGMENT
__unwindtable$?FormatV@?$CStringT@DV?$StrTraitMFC@DV?$ChTraitsCRT@D@ATL@@@@@ATL@@QAEXPBDPAD@Z DD 0ffffffffH
	DD	FLAT:__unwindfunclet$?FormatV@?$CStringT@DV?$StrTraitMFC@DV?$ChTraitsCRT@D@ATL@@@@@ATL@@QAEXPBDPAD@Z$1
	DD	0ffffffffH
	DD	FLAT:__unwindfunclet$?FormatV@?$CStringT@DV?$StrTraitMFC@DV?$ChTraitsCRT@D@ATL@@@@@ATL@@QAEXPBDPAD@Z$0
__ehfuncinfo$?FormatV@?$CStringT@DV?$StrTraitMFC@DV?$ChTraitsCRT@D@ATL@@@@@ATL@@QAEXPBDPAD@Z DD 019930522H
	DD	02H
	DD	FLAT:__unwindtable$?FormatV@?$CStringT@DV?$StrTraitMFC@DV?$ChTraitsCRT@D@ATL@@@@@ATL@@QAEXPBDPAD@Z
	DD	2 DUP(00H)
	DD	2 DUP(00H)
	DD	00H
	DD	01H
xdata$x	ENDS
;	COMDAT xdata$x
xdata$x	SEGMENT
__unwindtable$??0?$CStringT@DV?$StrTraitMFC@DV?$ChTraitsCRT@D@ATL@@@@@ATL@@QAE@PBDPAUIAtlStringMgr@1@@Z DD 0ffffffffH
	DD	FLAT:__unwindfunclet$??0?$CStringT@DV?$StrTraitMFC@DV?$ChTraitsCRT@D@ATL@@@@@ATL@@QAE@PBDPAUIAtlStringMgr@1@@Z$0
__ehfuncinfo$??0?$CStringT@DV?$StrTraitMFC@DV?$ChTraitsCRT@D@ATL@@@@@ATL@@QAE@PBDPAUIAtlStringMgr@1@@Z DD 019930522H
	DD	01H
	DD	FLAT:__unwindtable$??0?$CStringT@DV?$StrTraitMFC@DV?$ChTraitsCRT@D@ATL@@@@@ATL@@QAE@PBDPAUIAtlStringMgr@1@@Z
	DD	2 DUP(00H)
	DD	2 DUP(00H)
	DD	00H
	DD	01H
xdata$x	ENDS
; Function compile flags: /Ogtp
; File C:\Program Files\Microsoft Visual Studio\2022\Professional\VC\Tools\MSVC\14.44.35207\include\xmemory
;	COMDAT ??1?$_Uninitialized_backout_al@V?$allocator@U_QUIZLIST@CQuiz@@@std@@@std@@QAE@XZ
_TEXT	SEGMENT
??1?$_Uninitialized_backout_al@V?$allocator@U_QUIZLIST@CQuiz@@@std@@@std@@QAE@XZ PROC ; std::_Uninitialized_backout_al<std::allocator<CQuiz::_QUIZLIST> >::~_Uninitialized_backout_al<std::allocator<CQuiz::_QUIZLIST> >, COMDAT
; _this$ = ecx

; 1839 :         _STD _Destroy_range(_First, _Last, _Al);

  00000	ff 71 08	 push	 DWORD PTR [ecx+8]
  00003	ff 71 04	 push	 DWORD PTR [ecx+4]
  00006	ff 31		 push	 DWORD PTR [ecx]
  00008	e8 00 00 00 00	 call	 ??$_Destroy_range@V?$allocator@U_QUIZLIST@CQuiz@@@std@@@std@@YAXPAU_QUIZLIST@CQuiz@@QAU12@AAV?$allocator@U_QUIZLIST@CQuiz@@@0@@Z ; std::_Destroy_range<std::allocator<CQuiz::_QUIZLIST> >
  0000d	83 c4 0c	 add	 esp, 12			; 0000000cH

; 1840 :     }

  00010	c3		 ret	 0
??1?$_Uninitialized_backout_al@V?$allocator@U_QUIZLIST@CQuiz@@@std@@@std@@QAE@XZ ENDP ; std::_Uninitialized_backout_al<std::allocator<CQuiz::_QUIZLIST> >::~_Uninitialized_backout_al<std::allocator<CQuiz::_QUIZLIST> >
_TEXT	ENDS
; Function compile flags: /Ogtp
; File C:\Program Files\Microsoft Visual Studio\2022\Professional\VC\Tools\MSVC\14.44.35207\include\xmemory
; File C:\Program Files\Microsoft Visual Studio\2022\Professional\VC\Tools\MSVC\14.44.35207\atlmfc\include\atlsimpstr.h
; File C:\Program Files\Microsoft Visual Studio\2022\Professional\VC\Tools\MSVC\14.44.35207\include\xmemory
; File C:\Program Files\Microsoft Visual Studio\2022\Professional\VC\Tools\MSVC\14.44.35207\atlmfc\include\atlsimpstr.h
; File C:\Program Files\Microsoft Visual Studio\2022\Professional\VC\Tools\MSVC\14.44.35207\include\xmemory
;	COMDAT ??$_Uninitialized_move@PAU_QUIZLIST@CQuiz@@V?$allocator@U_QUIZLIST@CQuiz@@@std@@@std@@YAPAU_QUIZLIST@CQuiz@@QAU12@0PAU12@AAV?$allocator@U_QUIZLIST@CQuiz@@@0@@Z
_TEXT	SEGMENT
__Backout$ = -24					; size = 12
__$EHRec$ = -12						; size = 12
__First$ = 8						; size = 4
__Last$ = 12						; size = 4
__Dest$ = 16						; size = 4
_this$ = 16						; size = 4
__Al$ = 20						; size = 4
??$_Uninitialized_move@PAU_QUIZLIST@CQuiz@@V?$allocator@U_QUIZLIST@CQuiz@@@std@@@std@@YAPAU_QUIZLIST@CQuiz@@QAU12@0PAU12@AAV?$allocator@U_QUIZLIST@CQuiz@@@0@@Z PROC ; std::_Uninitialized_move<CQuiz::_QUIZLIST *,std::allocator<CQuiz::_QUIZLIST> >, COMDAT

; 1977 :     const _InIt _First, const _InIt _Last, _Alloc_ptr_t<_Alloc> _Dest, _Alloc& _Al) {

  00000	55		 push	 ebp
  00001	8b ec		 mov	 ebp, esp
  00003	6a ff		 push	 -1
  00005	68 00 00 00 00	 push	 __ehhandler$??$_Uninitialized_move@PAU_QUIZLIST@CQuiz@@V?$allocator@U_QUIZLIST@CQuiz@@@std@@@std@@YAPAU_QUIZLIST@CQuiz@@QAU12@0PAU12@AAV?$allocator@U_QUIZLIST@CQuiz@@@0@@Z
  0000a	64 a1 00 00 00
	00		 mov	 eax, DWORD PTR fs:0
  00010	50		 push	 eax
  00011	83 ec 0c	 sub	 esp, 12			; 0000000cH
  00014	53		 push	 ebx
  00015	56		 push	 esi
  00016	57		 push	 edi
  00017	a1 00 00 00 00	 mov	 eax, DWORD PTR ___security_cookie
  0001c	33 c5		 xor	 eax, ebp
  0001e	50		 push	 eax
  0001f	8d 45 f4	 lea	 eax, DWORD PTR __$EHRec$[ebp]
  00022	64 a3 00 00 00
	00		 mov	 DWORD PTR fs:0, eax

; 1833 :     _CONSTEXPR20 _Uninitialized_backout_al(pointer _Dest, _Alloc& _Al_) : _First(_Dest), _Last(_Dest), _Al(_Al_) {}

  00028	8b 5d 10	 mov	 ebx, DWORD PTR __Dest$[ebp]
  0002b	8b 45 14	 mov	 eax, DWORD PTR __Al$[ebp]
  0002e	89 5d e8	 mov	 DWORD PTR __Backout$[ebp], ebx
  00031	89 5d ec	 mov	 DWORD PTR __Backout$[ebp+4], ebx
  00034	89 45 f0	 mov	 DWORD PTR __Backout$[ebp+8], eax

; 1998 :     for (; _UFirst != _ULast; ++_UFirst) {

  00037	8b 75 08	 mov	 esi, DWORD PTR __First$[ebp]
  0003a	c7 45 fc 00 00
	00 00		 mov	 DWORD PTR __$EHRec$[ebp+8], 0
  00041	3b 75 0c	 cmp	 esi, DWORD PTR __Last$[ebp]
  00044	74 4f		 je	 SHORT $LN3@Uninitiali

; 1833 :     _CONSTEXPR20 _Uninitialized_backout_al(pointer _Dest, _Alloc& _Al_) : _First(_Dest), _Last(_Dest), _Al(_Al_) {}

  00046	83 c6 08	 add	 esi, 8
  00049	0f 1f 80 00 00
	00 00		 npad	 7
$LL4@Uninitiali:
  00050	8b 46 f8	 mov	 eax, DWORD PTR [esi-8]
  00053	8d 7b 04	 lea	 edi, DWORD PTR [ebx+4]
  00056	89 03		 mov	 DWORD PTR [ebx], eax
; File C:\Program Files\Microsoft Visual Studio\2022\Professional\VC\Tools\MSVC\14.44.35207\atlmfc\include\atlsimpstr.h

; 804  : 		return( reinterpret_cast< CStringData* >( m_pszData )-1 );

  00058	8b 46 fc	 mov	 eax, DWORD PTR [esi-4]
  0005b	83 e8 10	 sub	 eax, 16			; 00000010H
  0005e	89 7d 10	 mov	 DWORD PTR _this$[ebp], edi

; 217  : 		CStringData* pNewData = CloneData( pSrcData );

  00061	50		 push	 eax
  00062	e8 00 00 00 00	 call	 ?CloneData@?$CSimpleStringT@D$0A@@ATL@@CAPAUCStringData@2@PAU32@@Z ; ATL::CSimpleStringT<char,0>::CloneData

; 218  : 		Attach( pNewData );

  00067	83 c0 10	 add	 eax, 16			; 00000010H
; File C:\Program Files\Microsoft Visual Studio\2022\Professional\VC\Tools\MSVC\14.44.35207\include\xmemory

; 1998 :     for (; _UFirst != _ULast; ++_UFirst) {

  0006a	8d 76 14	 lea	 esi, DWORD PTR [esi+20]
; File C:\Program Files\Microsoft Visual Studio\2022\Professional\VC\Tools\MSVC\14.44.35207\atlmfc\include\atlsimpstr.h

; 218  : 		Attach( pNewData );

  0006d	89 07		 mov	 DWORD PTR [edi], eax
  0006f	83 c4 04	 add	 esp, 4
  00072	8b 46 ec	 mov	 eax, DWORD PTR [esi-20]
  00075	89 43 08	 mov	 DWORD PTR [ebx+8], eax
  00078	8b 46 f0	 mov	 eax, DWORD PTR [esi-16]
  0007b	89 43 0c	 mov	 DWORD PTR [ebx+12], eax
  0007e	8b 46 f4	 mov	 eax, DWORD PTR [esi-12]
  00081	89 43 10	 mov	 DWORD PTR [ebx+16], eax
; File C:\Program Files\Microsoft Visual Studio\2022\Professional\VC\Tools\MSVC\14.44.35207\include\xmemory

; 1845 :         ++_Last;

  00084	83 c3 14	 add	 ebx, 20			; 00000014H

; 1998 :     for (; _UFirst != _ULast; ++_UFirst) {

  00087	8d 46 f8	 lea	 eax, DWORD PTR [esi-8]

; 1845 :         ++_Last;

  0008a	89 5d ec	 mov	 DWORD PTR __Backout$[ebp+4], ebx

; 1998 :     for (; _UFirst != _ULast; ++_UFirst) {

  0008d	3b 45 0c	 cmp	 eax, DWORD PTR __Last$[ebp]
  00090	75 be		 jne	 SHORT $LL4@Uninitiali
  00092	8b 45 14	 mov	 eax, DWORD PTR __Al$[ebp]
$LN3@Uninitiali:

; 1839 :         _STD _Destroy_range(_First, _Last, _Al);

  00095	50		 push	 eax
  00096	53		 push	 ebx
  00097	53		 push	 ebx
  00098	e8 00 00 00 00	 call	 ??$_Destroy_range@V?$allocator@U_QUIZLIST@CQuiz@@@std@@@std@@YAXPAU_QUIZLIST@CQuiz@@QAU12@AAV?$allocator@U_QUIZLIST@CQuiz@@@0@@Z ; std::_Destroy_range<std::allocator<CQuiz::_QUIZLIST> >
  0009d	83 c4 0c	 add	 esp, 12			; 0000000cH

; 1999 :         _Backout._Emplace_back(_STD move(*_UFirst));
; 2000 :     }
; 2001 : 
; 2002 :     return _Backout._Release();

  000a0	8b c3		 mov	 eax, ebx

; 2003 : }

  000a2	8b 4d f4	 mov	 ecx, DWORD PTR __$EHRec$[ebp]
  000a5	64 89 0d 00 00
	00 00		 mov	 DWORD PTR fs:0, ecx
  000ac	59		 pop	 ecx
  000ad	5f		 pop	 edi
  000ae	5e		 pop	 esi
  000af	5b		 pop	 ebx
  000b0	8b e5		 mov	 esp, ebp
  000b2	5d		 pop	 ebp
  000b3	c3		 ret	 0
_TEXT	ENDS
;	COMDAT text$x
text$x	SEGMENT
__unwindfunclet$??$_Uninitialized_move@PAU_QUIZLIST@CQuiz@@V?$allocator@U_QUIZLIST@CQuiz@@@std@@@std@@YAPAU_QUIZLIST@CQuiz@@QAU12@0PAU12@AAV?$allocator@U_QUIZLIST@CQuiz@@@0@@Z$0:
  00000	8d 4d e8	 lea	 ecx, DWORD PTR __Backout$[ebp]
  00003	e9 00 00 00 00	 jmp	 ??1?$_Uninitialized_backout_al@V?$allocator@U_QUIZLIST@CQuiz@@@std@@@std@@QAE@XZ ; std::_Uninitialized_backout_al<std::allocator<CQuiz::_QUIZLIST> >::~_Uninitialized_backout_al<std::allocator<CQuiz::_QUIZLIST> >
  00008	cc		 int	 3
  00009	cc		 int	 3
  0000a	cc		 int	 3
  0000b	cc		 int	 3
  0000c	cc		 int	 3
__ehhandler$??$_Uninitialized_move@PAU_QUIZLIST@CQuiz@@V?$allocator@U_QUIZLIST@CQuiz@@@std@@@std@@YAPAU_QUIZLIST@CQuiz@@QAU12@0PAU12@AAV?$allocator@U_QUIZLIST@CQuiz@@@0@@Z:
  0000d	90		 npad	 1
  0000e	90		 npad	 1
  0000f	8b 54 24 08	 mov	 edx, DWORD PTR [esp+8]
  00013	8d 42 0c	 lea	 eax, DWORD PTR [edx+12]
  00016	8b 4a e4	 mov	 ecx, DWORD PTR [edx-28]
  00019	33 c8		 xor	 ecx, eax
  0001b	e8 00 00 00 00	 call	 @__security_check_cookie@4
  00020	b8 00 00 00 00	 mov	 eax, OFFSET __ehfuncinfo$??$_Uninitialized_move@PAU_QUIZLIST@CQuiz@@V?$allocator@U_QUIZLIST@CQuiz@@@std@@@std@@YAPAU_QUIZLIST@CQuiz@@QAU12@0PAU12@AAV?$allocator@U_QUIZLIST@CQuiz@@@0@@Z
  00025	e9 00 00 00 00	 jmp	 ___CxxFrameHandler3
text$x	ENDS
??$_Uninitialized_move@PAU_QUIZLIST@CQuiz@@V?$allocator@U_QUIZLIST@CQuiz@@@std@@@std@@YAPAU_QUIZLIST@CQuiz@@QAU12@0PAU12@AAV?$allocator@U_QUIZLIST@CQuiz@@@0@@Z ENDP ; std::_Uninitialized_move<CQuiz::_QUIZLIST *,std::allocator<CQuiz::_QUIZLIST> >
; Function compile flags: /Ogtp
; File C:\Program Files\Microsoft Visual Studio\2022\Professional\VC\Tools\MSVC\14.44.35207\include\vector
; File C:\Program Files\Microsoft Visual Studio\2022\Professional\VC\Tools\MSVC\14.44.35207\include\xmemory
; File C:\Program Files\Microsoft Visual Studio\2022\Professional\VC\Tools\MSVC\14.44.35207\include\vector
; File C:\Program Files\Microsoft Visual Studio\2022\Professional\VC\Tools\MSVC\14.44.35207\include\xmemory
; File C:\Program Files\Microsoft Visual Studio\2022\Professional\VC\Tools\MSVC\14.44.35207\include\vector
; File C:\Program Files\Microsoft Visual Studio\2022\Professional\VC\Tools\MSVC\14.44.35207\include\xmemory
; File C:\Program Files\Microsoft Visual Studio\2022\Professional\VC\Tools\MSVC\14.44.35207\include\vector
;	COMDAT ??1_Reallocation_guard@?$vector@U_QUIZLIST@CQuiz@@V?$allocator@U_QUIZLIST@CQuiz@@@std@@@std@@QAE@XZ
_TEXT	SEGMENT
??1_Reallocation_guard@?$vector@U_QUIZLIST@CQuiz@@V?$allocator@U_QUIZLIST@CQuiz@@@std@@@std@@QAE@XZ PROC ; std::vector<CQuiz::_QUIZLIST,std::allocator<CQuiz::_QUIZLIST> >::_Reallocation_guard::~_Reallocation_guard, COMDAT
; _this$ = ecx

; 620  :         _CONSTEXPR20 ~_Reallocation_guard() noexcept {

  00000	56		 push	 esi
  00001	8b f1		 mov	 esi, ecx

; 621  :             if (_New_begin != nullptr) {

  00003	83 7e 04 00	 cmp	 DWORD PTR [esi+4], 0
  00007	74 40		 je	 SHORT $LN10@Reallocati

; 622  :                 _STD _Destroy_range(_Constructed_first, _Constructed_last, _Al);

  00009	ff 36		 push	 DWORD PTR [esi]
  0000b	ff 76 10	 push	 DWORD PTR [esi+16]
  0000e	ff 76 0c	 push	 DWORD PTR [esi+12]
  00011	e8 00 00 00 00	 call	 ??$_Destroy_range@V?$allocator@U_QUIZLIST@CQuiz@@@std@@@std@@YAXPAU_QUIZLIST@CQuiz@@QAU12@AAV?$allocator@U_QUIZLIST@CQuiz@@@0@@Z ; std::_Destroy_range<std::allocator<CQuiz::_QUIZLIST> >
; File C:\Program Files\Microsoft Visual Studio\2022\Professional\VC\Tools\MSVC\14.44.35207\include\xmemory

; 985  :         _STD _Deallocate<_New_alignof<_Ty>>(_Ptr, sizeof(_Ty) * _Count);

  00016	8b 46 08	 mov	 eax, DWORD PTR [esi+8]
; File C:\Program Files\Microsoft Visual Studio\2022\Professional\VC\Tools\MSVC\14.44.35207\include\vector

; 622  :                 _STD _Destroy_range(_Constructed_first, _Constructed_last, _Al);

  00019	83 c4 0c	 add	 esp, 12			; 0000000cH
; File C:\Program Files\Microsoft Visual Studio\2022\Professional\VC\Tools\MSVC\14.44.35207\include\xmemory

; 985  :         _STD _Deallocate<_New_alignof<_Ty>>(_Ptr, sizeof(_Ty) * _Count);

  0001c	8d 0c 80	 lea	 ecx, DWORD PTR [eax+eax*4]
  0001f	8b 46 04	 mov	 eax, DWORD PTR [esi+4]
  00022	c1 e1 02	 shl	 ecx, 2

; 284  :         if (_Bytes >= _Big_allocation_threshold) {

  00025	81 f9 00 10 00
	00		 cmp	 ecx, 4096		; 00001000H
  0002b	72 12		 jb	 SHORT $LN15@Reallocati

; 205  :     const uintptr_t _Ptr_container   = _Ptr_user[-1];

  0002d	8b 50 fc	 mov	 edx, DWORD PTR [eax-4]
  00030	83 c1 23	 add	 ecx, 35			; 00000023H

; 206  : 
; 207  :     // If the following asserts, it likely means that we are performing
; 208  :     // an aligned delete on memory coming from an unaligned allocation.
; 209  :     _STL_ASSERT(_Ptr_user[-2] == _Big_allocation_sentinel, "invalid argument");
; 210  : 
; 211  :     // Extra paranoia on aligned allocation/deallocation; ensure _Ptr_container is
; 212  :     // in range [_Min_back_shift, _Non_user_size]
; 213  : #ifdef _DEBUG
; 214  :     constexpr uintptr_t _Min_back_shift = 2 * sizeof(void*);
; 215  : #else // ^^^ defined(_DEBUG) / !defined(_DEBUG) vvv
; 216  :     constexpr uintptr_t _Min_back_shift = sizeof(void*);
; 217  : #endif // ^^^ !defined(_DEBUG) ^^^
; 218  :     const uintptr_t _Back_shift = reinterpret_cast<uintptr_t>(_Ptr) - _Ptr_container;

  00033	2b c2		 sub	 eax, edx

; 219  :     _STL_VERIFY(_Back_shift >= _Min_back_shift && _Back_shift <= _Non_user_size, "invalid argument");

  00035	83 c0 fc	 add	 eax, -4			; fffffffcH
  00038	83 f8 1f	 cmp	 eax, 31			; 0000001fH
  0003b	77 0e		 ja	 SHORT $LN14@Reallocati

; 220  :     _Ptr = reinterpret_cast<void*>(_Ptr_container);

  0003d	8b c2		 mov	 eax, edx
$LN15@Reallocati:

; 289  :         ::operator delete(_Ptr, _Bytes);

  0003f	51		 push	 ecx
  00040	50		 push	 eax
  00041	e8 00 00 00 00	 call	 ??3@YAXPAXI@Z		; operator delete
  00046	83 c4 08	 add	 esp, 8
$LN10@Reallocati:
  00049	5e		 pop	 esi
; File C:\Program Files\Microsoft Visual Studio\2022\Professional\VC\Tools\MSVC\14.44.35207\include\vector

; 625  :         }

  0004a	c3		 ret	 0
$LN14@Reallocati:
; File C:\Program Files\Microsoft Visual Studio\2022\Professional\VC\Tools\MSVC\14.44.35207\include\xmemory

; 219  :     _STL_VERIFY(_Back_shift >= _Min_back_shift && _Back_shift <= _Non_user_size, "invalid argument");

  0004b	6a 00		 push	 0
  0004d	6a 00		 push	 0
  0004f	6a 00		 push	 0
  00051	6a 00		 push	 0
  00053	6a 00		 push	 0
  00055	e8 00 00 00 00	 call	 __invoke_watson
$LN22@Reallocati:
  0005a	cc		 int	 3
??1_Reallocation_guard@?$vector@U_QUIZLIST@CQuiz@@V?$allocator@U_QUIZLIST@CQuiz@@@std@@@std@@QAE@XZ ENDP ; std::vector<CQuiz::_QUIZLIST,std::allocator<CQuiz::_QUIZLIST> >::_Reallocation_guard::~_Reallocation_guard
_TEXT	ENDS
; Function compile flags: /Ogtp
; File C:\Program Files\Microsoft Visual Studio\2022\Professional\VC\Tools\MSVC\14.44.35207\include\vector
; File C:\Program Files\Microsoft Visual Studio\2022\Professional\VC\Tools\MSVC\14.44.35207\include\xmemory
; File C:\Program Files\Microsoft Visual Studio\2022\Professional\VC\Tools\MSVC\14.44.35207\include\vector
; File C:\Program Files\Microsoft Visual Studio\2022\Professional\VC\Tools\MSVC\14.44.35207\include\xmemory
; File C:\Program Files\Microsoft Visual Studio\2022\Professional\VC\Tools\MSVC\14.44.35207\include\vector
; File C:\Program Files\Microsoft Visual Studio\2022\Professional\VC\Tools\MSVC\14.44.35207\include\xmemory
; File C:\Program Files\Microsoft Visual Studio\2022\Professional\VC\Tools\MSVC\14.44.35207\include\vector
; File C:\Program Files\Microsoft Visual Studio\2022\Professional\VC\Tools\MSVC\14.44.35207\atlmfc\include\atlsimpstr.h
; File C:\Program Files\Microsoft Visual Studio\2022\Professional\VC\Tools\MSVC\14.44.35207\include\vector
; File C:\Program Files\Microsoft Visual Studio\2022\Professional\VC\Tools\MSVC\14.44.35207\atlmfc\include\atlsimpstr.h
; File C:\Program Files\Microsoft Visual Studio\2022\Professional\VC\Tools\MSVC\14.44.35207\include\vector
; File C:\Program Files\Microsoft Visual Studio\2022\Professional\VC\Tools\MSVC\14.44.35207\include\xmemory
; File C:\Program Files\Microsoft Visual Studio\2022\Professional\VC\Tools\MSVC\14.44.35207\atlmfc\include\atlsimpstr.h
; File C:\Program Files\Microsoft Visual Studio\2022\Professional\VC\Tools\MSVC\14.44.35207\include\xmemory
; File C:\Program Files\Microsoft Visual Studio\2022\Professional\VC\Tools\MSVC\14.44.35207\include\vector
; File C:\Program Files\Microsoft Visual Studio\2022\Professional\VC\Tools\MSVC\14.44.35207\include\xmemory
; File C:\Program Files\Microsoft Visual Studio\2022\Professional\VC\Tools\MSVC\14.44.35207\include\vector
; File C:\Program Files\Microsoft Visual Studio\2022\Professional\VC\Tools\MSVC\14.44.35207\include\xmemory
; File C:\Program Files\Microsoft Visual Studio\2022\Professional\VC\Tools\MSVC\14.44.35207\include\vector
; File C:\Program Files\Microsoft Visual Studio\2022\Professional\VC\Tools\MSVC\14.44.35207\include\xmemory
; File C:\Program Files\Microsoft Visual Studio\2022\Professional\VC\Tools\MSVC\14.44.35207\include\vector
; File C:\Program Files\Microsoft Visual Studio\2022\Professional\VC\Tools\MSVC\14.44.35207\include\xmemory
; File C:\Program Files\Microsoft Visual Studio\2022\Professional\VC\Tools\MSVC\14.44.35207\include\vector
;	COMDAT ??$_Emplace_reallocate@ABU_QUIZLIST@CQuiz@@@?$vector@U_QUIZLIST@CQuiz@@V?$allocator@U_QUIZLIST@CQuiz@@@std@@@std@@AAEPAU_QUIZLIST@CQuiz@@QAU23@ABU23@@Z
_TEXT	SEGMENT
__Guard$ = -64						; size = 20
__Backout$2 = -44					; size = 12
__Newsize$1$ = -32					; size = 4
tv803 = -28						; size = 4
__Whereoff$1$ = -28					; size = 4
tv793 = -24						; size = 4
_this$1$ = -20						; size = 4
$T3 = -16						; size = 4
__$EHRec$ = -12						; size = 12
__Whereptr$ = 8						; size = 4
_this$ = 8						; size = 4
_<_Val_0>$ = 12						; size = 4
_this$ = 12						; size = 4
__ULast$1$ = 12						; size = 4
??$_Emplace_reallocate@ABU_QUIZLIST@CQuiz@@@?$vector@U_QUIZLIST@CQuiz@@V?$allocator@U_QUIZLIST@CQuiz@@@std@@@std@@AAEPAU_QUIZLIST@CQuiz@@QAU23@ABU23@@Z PROC ; std::vector<CQuiz::_QUIZLIST,std::allocator<CQuiz::_QUIZLIST> >::_Emplace_reallocate<CQuiz::_QUIZLIST const &>, COMDAT
; _this$ = ecx

; 875  :     _CONSTEXPR20 pointer _Emplace_reallocate(const pointer _Whereptr, _Valty&&... _Val) {

  00000	55		 push	 ebp
  00001	8b ec		 mov	 ebp, esp
  00003	6a ff		 push	 -1
  00005	68 00 00 00 00	 push	 __ehhandler$??$_Emplace_reallocate@ABU_QUIZLIST@CQuiz@@@?$vector@U_QUIZLIST@CQuiz@@V?$allocator@U_QUIZLIST@CQuiz@@@std@@@std@@AAEPAU_QUIZLIST@CQuiz@@QAU23@ABU23@@Z
  0000a	64 a1 00 00 00
	00		 mov	 eax, DWORD PTR fs:0
  00010	50		 push	 eax
  00011	83 ec 34	 sub	 esp, 52			; 00000034H
  00014	53		 push	 ebx
  00015	56		 push	 esi
  00016	57		 push	 edi
  00017	a1 00 00 00 00	 mov	 eax, DWORD PTR ___security_cookie
  0001c	33 c5		 xor	 eax, ebp
  0001e	50		 push	 eax
  0001f	8d 45 f4	 lea	 eax, DWORD PTR __$EHRec$[ebp]
  00022	64 a3 00 00 00
	00		 mov	 DWORD PTR fs:0, eax
  00028	8b f1		 mov	 esi, ecx
  0002a	89 75 ec	 mov	 DWORD PTR _this$1$[ebp], esi

; 876  :         // reallocate and insert by perfectly forwarding _Val at _Whereptr
; 877  :         _Alty& _Al        = _Getal();
; 878  :         auto& _My_data    = _Mypair._Myval2;
; 879  :         pointer& _Myfirst = _My_data._Myfirst;
; 880  :         pointer& _Mylast  = _My_data._Mylast;
; 881  : 
; 882  :         _STL_INTERNAL_CHECK(_Mylast == _My_data._Myend); // check that we have no unused capacity
; 883  : 
; 884  :         const auto _Whereoff = static_cast<size_type>(_Whereptr - _Myfirst);

  0002d	8b 3e		 mov	 edi, DWORD PTR [esi]
  0002f	b8 67 66 66 66	 mov	 eax, 1717986919		; 66666667H
  00034	8b 55 08	 mov	 edx, DWORD PTR __Whereptr$[ebp]

; 885  :         const auto _Oldsize  = static_cast<size_type>(_Mylast - _Myfirst);

  00037	8b 4e 04	 mov	 ecx, DWORD PTR [esi+4]
  0003a	2b d7		 sub	 edx, edi
  0003c	f7 ea		 imul	 edx
  0003e	2b cf		 sub	 ecx, edi
  00040	c1 fa 03	 sar	 edx, 3
  00043	8b c2		 mov	 eax, edx
  00045	c1 e8 1f	 shr	 eax, 31			; 0000001fH
  00048	03 c2		 add	 eax, edx
  0004a	89 45 e4	 mov	 DWORD PTR __Whereoff$1$[ebp], eax
  0004d	b8 67 66 66 66	 mov	 eax, 1717986919		; 66666667H
  00052	f7 e9		 imul	 ecx
  00054	c1 fa 03	 sar	 edx, 3
  00057	8b c2		 mov	 eax, edx
  00059	c1 e8 1f	 shr	 eax, 31			; 0000001fH
  0005c	03 c2		 add	 eax, edx

; 886  : 
; 887  :         if (_Oldsize == max_size()) {

  0005e	3d cc cc cc 0c	 cmp	 eax, 214748364		; 0cccccccH
  00063	0f 84 1c 02 00
	00		 je	 $LN114@Emplace_re

; 1924 :         return static_cast<size_type>(_My_data._Myend - _My_data._Myfirst);

  00069	8b 4e 08	 mov	 ecx, DWORD PTR [esi+8]

; 889  :         }
; 890  : 
; 891  :         const size_type _Newsize = _Oldsize + 1;

  0006c	8d 58 01	 lea	 ebx, DWORD PTR [eax+1]

; 1924 :         return static_cast<size_type>(_My_data._Myend - _My_data._Myfirst);

  0006f	2b cf		 sub	 ecx, edi

; 889  :         }
; 890  : 
; 891  :         const size_type _Newsize = _Oldsize + 1;

  00071	89 5d e0	 mov	 DWORD PTR __Newsize$1$[ebp], ebx

; 1924 :         return static_cast<size_type>(_My_data._Myend - _My_data._Myfirst);

  00074	b8 67 66 66 66	 mov	 eax, 1717986919		; 66666667H
  00079	f7 e9		 imul	 ecx

; 2011 :         if (_Oldcapacity > _Max - _Oldcapacity / 2) {

  0007b	b8 cc cc cc 0c	 mov	 eax, 214748364		; 0cccccccH

; 1924 :         return static_cast<size_type>(_My_data._Myend - _My_data._Myfirst);

  00080	c1 fa 03	 sar	 edx, 3
  00083	8b ca		 mov	 ecx, edx
  00085	c1 e9 1f	 shr	 ecx, 31			; 0000001fH
  00088	03 ca		 add	 ecx, edx

; 2011 :         if (_Oldcapacity > _Max - _Oldcapacity / 2) {

  0008a	8b d1		 mov	 edx, ecx
  0008c	d1 ea		 shr	 edx, 1
  0008e	2b c2		 sub	 eax, edx
  00090	3b c8		 cmp	 ecx, eax
  00092	76 1e		 jbe	 SHORT $LN8@Emplace_re

; 2012 :             return _Max; // geometric growth would overflow

  00094	b8 f0 ff ff ff	 mov	 eax, -16		; fffffff0H
  00099	c7 45 e8 f0 ff
	ff ff		 mov	 DWORD PTR tv793[ebp], -16 ; fffffff0H
; File C:\Program Files\Microsoft Visual Studio\2022\Professional\VC\Tools\MSVC\14.44.35207\include\xmemory

; 253  :             return _Allocate_manually_vector_aligned<_Traits>(_Bytes);

  000a0	50		 push	 eax
; File C:\Program Files\Microsoft Visual Studio\2022\Professional\VC\Tools\MSVC\14.44.35207\include\vector

; 2012 :             return _Max; // geometric growth would overflow

  000a1	bf cc cc cc 0c	 mov	 edi, 214748364		; 0cccccccH
; File C:\Program Files\Microsoft Visual Studio\2022\Professional\VC\Tools\MSVC\14.44.35207\include\xmemory

; 253  :             return _Allocate_manually_vector_aligned<_Traits>(_Bytes);

  000a6	e8 00 00 00 00	 call	 ??$_Allocate_manually_vector_aligned@U_Default_allocate_traits@std@@@std@@YAPAXI@Z ; std::_Allocate_manually_vector_aligned<std::_Default_allocate_traits>
  000ab	8b c8		 mov	 ecx, eax
  000ad	89 4d f0	 mov	 DWORD PTR $T3[ebp], ecx
  000b0	eb 4b		 jmp	 SHORT $LN112@Emplace_re
$LN8@Emplace_re:
; File C:\Program Files\Microsoft Visual Studio\2022\Professional\VC\Tools\MSVC\14.44.35207\include\vector

; 2015 :         const size_type _Geometric = _Oldcapacity + _Oldcapacity / 2;

  000b2	8d 04 0a	 lea	 eax, DWORD PTR [edx+ecx]
; File C:\Program Files\Microsoft Visual Studio\2022\Professional\VC\Tools\MSVC\14.44.35207\include\xmemory

; 117  :         if (_Count > _Max_possible) {

  000b5	8b fb		 mov	 edi, ebx
  000b7	3b c3		 cmp	 eax, ebx
  000b9	0f 43 f8	 cmovae	 edi, eax
  000bc	81 ff cc cc cc
	0c		 cmp	 edi, 214748364		; 0cccccccH
  000c2	0f 87 c2 01 00
	00		 ja	 $LN115@Emplace_re

; 119  :         }
; 120  :     }
; 121  : 
; 122  :     return _Count * _Ty_size;

  000c8	8d 1c bf	 lea	 ebx, DWORD PTR [edi+edi*4]
  000cb	c1 e3 02	 shl	 ebx, 2

; 990  :         return static_cast<_Ty*>(_STD _Allocate<_New_alignof<_Ty>>(_Get_size_of_n<sizeof(_Ty)>(_Count)));

  000ce	8b c3		 mov	 eax, ebx

; 122  :     return _Count * _Ty_size;

  000d0	89 5d e8	 mov	 DWORD PTR tv793[ebp], ebx

; 227  :     if (_Bytes == 0) {

  000d3	85 c0		 test	 eax, eax
  000d5	75 07		 jne	 SHORT $LN23@Emplace_re

; 228  :         return nullptr;

  000d7	33 c9		 xor	 ecx, ecx
  000d9	89 4d f0	 mov	 DWORD PTR $T3[ebp], ecx
  000dc	eb 22		 jmp	 SHORT $LN22@Emplace_re
$LN23@Emplace_re:

; 229  :     }
; 230  : 
; 231  : #if _HAS_CXX20 // TRANSITION, GH-1532
; 232  :     if (_STD is_constant_evaluated()) {
; 233  :         return _Traits::_Allocate(_Bytes);
; 234  :     }
; 235  : #endif // _HAS_CXX20
; 236  : 
; 237  : #ifdef __cpp_aligned_new
; 238  :     if constexpr (_Align > __STDCPP_DEFAULT_NEW_ALIGNMENT__) {
; 239  :         size_t _Passed_align = _Align;
; 240  : #if defined(_M_IX86) || defined(_M_X64)
; 241  :         if (_Bytes >= _Big_allocation_threshold) {
; 242  :             // boost the alignment of big allocations to help autovectorization
; 243  :             _Passed_align = (_STD max)(_Align, _Big_allocation_alignment);
; 244  :         }
; 245  : #endif // defined(_M_IX86) || defined(_M_X64)
; 246  :         return _Traits::_Allocate_aligned(_Bytes, _Passed_align);
; 247  :     } else
; 248  : #endif // defined(__cpp_aligned_new)
; 249  :     {
; 250  : #if defined(_M_IX86) || defined(_M_X64)
; 251  :         if (_Bytes >= _Big_allocation_threshold) {

  000de	3d 00 10 00 00	 cmp	 eax, 4096		; 00001000H
  000e3	72 0d		 jb	 SHORT $LN24@Emplace_re

; 253  :             return _Allocate_manually_vector_aligned<_Traits>(_Bytes);

  000e5	50		 push	 eax
  000e6	e8 00 00 00 00	 call	 ??$_Allocate_manually_vector_aligned@U_Default_allocate_traits@std@@@std@@YAPAXI@Z ; std::_Allocate_manually_vector_aligned<std::_Default_allocate_traits>
  000eb	8b c8		 mov	 ecx, eax
  000ed	89 4d f0	 mov	 DWORD PTR $T3[ebp], ecx
  000f0	eb 0b		 jmp	 SHORT $LN112@Emplace_re
$LN24@Emplace_re:

; 136  :         return ::operator new(_Bytes);

  000f2	50		 push	 eax
  000f3	e8 00 00 00 00	 call	 ??2@YAPAXI@Z		; operator new

; 256  :         return _Traits::_Allocate(_Bytes);

  000f8	8b c8		 mov	 ecx, eax
  000fa	89 45 f0	 mov	 DWORD PTR $T3[ebp], eax
$LN112@Emplace_re:
; File C:\Program Files\Microsoft Visual Studio\2022\Professional\VC\Tools\MSVC\14.44.35207\include\vector

; 895  :         const pointer _Constructed_last = _Newvec + _Whereoff + 1;

  000fd	83 c4 04	 add	 esp, 4
$LN22@Emplace_re:
  00100	8b 45 e4	 mov	 eax, DWORD PTR __Whereoff$1$[ebp]

; 896  : 
; 897  :         _Reallocation_guard _Guard{_Al, _Newvec, _Newcapacity, _Constructed_last, _Constructed_last};

  00103	89 75 c0	 mov	 DWORD PTR __Guard$[ebp], esi
  00106	89 4d c4	 mov	 DWORD PTR __Guard$[ebp+4], ecx
  00109	89 7d c8	 mov	 DWORD PTR __Guard$[ebp+8], edi
  0010c	8d 04 80	 lea	 eax, DWORD PTR [eax+eax*4]
  0010f	8d 1c 81	 lea	 ebx, DWORD PTR [ecx+eax*4]
  00112	8d 43 14	 lea	 eax, DWORD PTR [ebx+20]
  00115	89 5d e4	 mov	 DWORD PTR tv803[ebp], ebx
  00118	89 45 cc	 mov	 DWORD PTR __Guard$[ebp+12], eax
  0011b	89 45 d0	 mov	 DWORD PTR __Guard$[ebp+16], eax
  0011e	8b 7d 0c	 mov	 edi, DWORD PTR _<_Val_0>$[ebp]
  00121	8d 73 04	 lea	 esi, DWORD PTR [ebx+4]
  00124	c7 45 fc 00 00
	00 00		 mov	 DWORD PTR __$EHRec$[ebp+8], 0
  0012b	89 75 0c	 mov	 DWORD PTR _this$[ebp], esi
  0012e	8b 07		 mov	 eax, DWORD PTR [edi]
  00130	89 03		 mov	 DWORD PTR [ebx], eax
; File C:\Program Files\Microsoft Visual Studio\2022\Professional\VC\Tools\MSVC\14.44.35207\atlmfc\include\atlsimpstr.h

; 804  : 		return( reinterpret_cast< CStringData* >( m_pszData )-1 );

  00132	8b 47 04	 mov	 eax, DWORD PTR [edi+4]
  00135	83 e8 10	 sub	 eax, 16			; 00000010H

; 217  : 		CStringData* pNewData = CloneData( pSrcData );

  00138	50		 push	 eax
  00139	e8 00 00 00 00	 call	 ?CloneData@?$CSimpleStringT@D$0A@@ATL@@CAPAUCStringData@2@PAU32@@Z ; ATL::CSimpleStringT<char,0>::CloneData
; File C:\Program Files\Microsoft Visual Studio\2022\Professional\VC\Tools\MSVC\14.44.35207\include\vector

; 903  :         if (_Whereptr == _Mylast) { // at back, provide strong guarantee

  0013e	8b 4d 08	 mov	 ecx, DWORD PTR __Whereptr$[ebp]
; File C:\Program Files\Microsoft Visual Studio\2022\Professional\VC\Tools\MSVC\14.44.35207\atlmfc\include\atlsimpstr.h

; 218  : 		Attach( pNewData );

  00141	83 c0 10	 add	 eax, 16			; 00000010H
  00144	89 06		 mov	 DWORD PTR [esi], eax
  00146	83 c4 04	 add	 esp, 4
  00149	8b 47 08	 mov	 eax, DWORD PTR [edi+8]
; File C:\Program Files\Microsoft Visual Studio\2022\Professional\VC\Tools\MSVC\14.44.35207\include\vector

; 903  :         if (_Whereptr == _Mylast) { // at back, provide strong guarantee

  0014c	8b 75 ec	 mov	 esi, DWORD PTR _this$1$[ebp]
  0014f	89 43 08	 mov	 DWORD PTR [ebx+8], eax
  00152	8b 47 0c	 mov	 eax, DWORD PTR [edi+12]
  00155	89 43 0c	 mov	 DWORD PTR [ebx+12], eax
  00158	8b 47 10	 mov	 eax, DWORD PTR [edi+16]
  0015b	8b 7d f0	 mov	 edi, DWORD PTR $T3[ebp]
  0015e	89 43 10	 mov	 DWORD PTR [ebx+16], eax
  00161	8b 46 04	 mov	 eax, DWORD PTR [esi+4]
  00164	89 5d cc	 mov	 DWORD PTR __Guard$[ebp+12], ebx
  00167	8b 1e		 mov	 ebx, DWORD PTR [esi]
  00169	89 45 0c	 mov	 DWORD PTR __ULast$1$[ebp], eax
  0016c	3b c8		 cmp	 ecx, eax
  0016e	75 62		 jne	 SHORT $LN3@Emplace_re
; File C:\Program Files\Microsoft Visual Studio\2022\Professional\VC\Tools\MSVC\14.44.35207\include\xmemory

; 1833 :     _CONSTEXPR20 _Uninitialized_backout_al(pointer _Dest, _Alloc& _Al_) : _First(_Dest), _Last(_Dest), _Al(_Al_) {}

  00170	89 7d d4	 mov	 DWORD PTR __Backout$2[ebp], edi
  00173	89 7d d8	 mov	 DWORD PTR __Backout$2[ebp+4], edi
  00176	89 75 dc	 mov	 DWORD PTR __Backout$2[ebp+8], esi

; 1900 :     _Uninitialized_backout_al<_Alloc> _Backout{_Dest, _Al};

  00179	c6 45 fc 01	 mov	 BYTE PTR __$EHRec$[ebp+8], 1

; 1901 :     for (; _UFirst != _ULast; ++_UFirst) {

  0017d	3b d8		 cmp	 ebx, eax
  0017f	74 41		 je	 SHORT $LN44@Emplace_re
$LL45@Emplace_re:
  00181	8b 03		 mov	 eax, DWORD PTR [ebx]
  00183	8d 77 04	 lea	 esi, DWORD PTR [edi+4]
  00186	89 07		 mov	 DWORD PTR [edi], eax
; File C:\Program Files\Microsoft Visual Studio\2022\Professional\VC\Tools\MSVC\14.44.35207\atlmfc\include\atlsimpstr.h

; 804  : 		return( reinterpret_cast< CStringData* >( m_pszData )-1 );

  00188	8b 43 04	 mov	 eax, DWORD PTR [ebx+4]
  0018b	83 e8 10	 sub	 eax, 16			; 00000010H
  0018e	89 75 08	 mov	 DWORD PTR _this$[ebp], esi

; 217  : 		CStringData* pNewData = CloneData( pSrcData );

  00191	50		 push	 eax
  00192	e8 00 00 00 00	 call	 ?CloneData@?$CSimpleStringT@D$0A@@ATL@@CAPAUCStringData@2@PAU32@@Z ; ATL::CSimpleStringT<char,0>::CloneData

; 218  : 		Attach( pNewData );

  00197	83 c0 10	 add	 eax, 16			; 00000010H
  0019a	83 c4 04	 add	 esp, 4
  0019d	89 06		 mov	 DWORD PTR [esi], eax
  0019f	8b 43 08	 mov	 eax, DWORD PTR [ebx+8]
  001a2	89 47 08	 mov	 DWORD PTR [edi+8], eax
  001a5	8b 43 0c	 mov	 eax, DWORD PTR [ebx+12]
  001a8	89 47 0c	 mov	 DWORD PTR [edi+12], eax
  001ab	8b 43 10	 mov	 eax, DWORD PTR [ebx+16]
; File C:\Program Files\Microsoft Visual Studio\2022\Professional\VC\Tools\MSVC\14.44.35207\include\xmemory

; 1901 :     for (; _UFirst != _ULast; ++_UFirst) {

  001ae	83 c3 14	 add	 ebx, 20			; 00000014H
  001b1	89 47 10	 mov	 DWORD PTR [edi+16], eax

; 1845 :         ++_Last;

  001b4	83 c7 14	 add	 edi, 20			; 00000014H
  001b7	89 7d d8	 mov	 DWORD PTR __Backout$2[ebp+4], edi

; 1901 :     for (; _UFirst != _ULast; ++_UFirst) {

  001ba	3b 5d 0c	 cmp	 ebx, DWORD PTR __ULast$1$[ebp]
  001bd	75 c2		 jne	 SHORT $LL45@Emplace_re
  001bf	8b 75 ec	 mov	 esi, DWORD PTR _this$1$[ebp]
$LN44@Emplace_re:

; 1839 :         _STD _Destroy_range(_First, _Last, _Al);

  001c2	56		 push	 esi
  001c3	57		 push	 edi
  001c4	57		 push	 edi
  001c5	e8 00 00 00 00	 call	 ??$_Destroy_range@V?$allocator@U_QUIZLIST@CQuiz@@@std@@@std@@YAXPAU_QUIZLIST@CQuiz@@QAU12@AAV?$allocator@U_QUIZLIST@CQuiz@@@0@@Z ; std::_Destroy_range<std::allocator<CQuiz::_QUIZLIST> >
; File C:\Program Files\Microsoft Visual Studio\2022\Professional\VC\Tools\MSVC\14.44.35207\include\vector

; 909  :         } else { // provide basic guarantee

  001ca	8b 7d f0	 mov	 edi, DWORD PTR $T3[ebp]
; File C:\Program Files\Microsoft Visual Studio\2022\Professional\VC\Tools\MSVC\14.44.35207\include\xmemory

; 1839 :         _STD _Destroy_range(_First, _Last, _Al);

  001cd	83 c4 0c	 add	 esp, 12			; 0000000cH
; File C:\Program Files\Microsoft Visual Studio\2022\Professional\VC\Tools\MSVC\14.44.35207\include\vector

; 909  :         } else { // provide basic guarantee

  001d0	eb 22		 jmp	 SHORT $LN4@Emplace_re
$LN3@Emplace_re:

; 910  :             _STD _Uninitialized_move(_Myfirst, _Whereptr, _Newvec, _Al);

  001d2	56		 push	 esi
  001d3	57		 push	 edi
  001d4	51		 push	 ecx
  001d5	53		 push	 ebx
  001d6	e8 00 00 00 00	 call	 ??$_Uninitialized_move@PAU_QUIZLIST@CQuiz@@V?$allocator@U_QUIZLIST@CQuiz@@@std@@@std@@YAPAU_QUIZLIST@CQuiz@@QAU12@0PAU12@AAV?$allocator@U_QUIZLIST@CQuiz@@@0@@Z ; std::_Uninitialized_move<CQuiz::_QUIZLIST *,std::allocator<CQuiz::_QUIZLIST> >

; 911  :             _Constructed_first = _Newvec;
; 912  :             _STD _Uninitialized_move(_Whereptr, _Mylast, _Newvec + _Whereoff + 1, _Al);

  001db	8b 45 e4	 mov	 eax, DWORD PTR tv803[ebp]
  001de	56		 push	 esi
  001df	83 c0 14	 add	 eax, 20			; 00000014H
  001e2	89 7d cc	 mov	 DWORD PTR __Guard$[ebp+12], edi
  001e5	50		 push	 eax
  001e6	ff 76 04	 push	 DWORD PTR [esi+4]
  001e9	ff 75 08	 push	 DWORD PTR __Whereptr$[ebp]
  001ec	e8 00 00 00 00	 call	 ??$_Uninitialized_move@PAU_QUIZLIST@CQuiz@@V?$allocator@U_QUIZLIST@CQuiz@@@std@@@std@@YAPAU_QUIZLIST@CQuiz@@QAU12@0PAU12@AAV?$allocator@U_QUIZLIST@CQuiz@@@0@@Z ; std::_Uninitialized_move<CQuiz::_QUIZLIST *,std::allocator<CQuiz::_QUIZLIST> >
  001f1	83 c4 20	 add	 esp, 32			; 00000020H
$LN4@Emplace_re:

; 2069 :         if (_Myfirst) { // destroy and deallocate old array

  001f4	8b 0e		 mov	 ecx, DWORD PTR [esi]
  001f6	85 c9		 test	 ecx, ecx
  001f8	74 4f		 je	 SHORT $LN78@Emplace_re

; 2070 :             _STD _Destroy_range(_Myfirst, _Mylast, _Al);

  001fa	56		 push	 esi
  001fb	ff 76 04	 push	 DWORD PTR [esi+4]
  001fe	51		 push	 ecx
  001ff	e8 00 00 00 00	 call	 ??$_Destroy_range@V?$allocator@U_QUIZLIST@CQuiz@@@std@@@std@@YAXPAU_QUIZLIST@CQuiz@@QAU12@AAV?$allocator@U_QUIZLIST@CQuiz@@@0@@Z ; std::_Destroy_range<std::allocator<CQuiz::_QUIZLIST> >

; 2071 :             _ASAN_VECTOR_REMOVE;
; 2072 :             _Al.deallocate(_Myfirst, static_cast<size_type>(_Myend - _Myfirst));

  00204	8b 4e 08	 mov	 ecx, DWORD PTR [esi+8]
  00207	b8 67 66 66 66	 mov	 eax, 1717986919		; 66666667H
  0020c	8b 1e		 mov	 ebx, DWORD PTR [esi]
  0020e	83 c4 0c	 add	 esp, 12			; 0000000cH
  00211	2b cb		 sub	 ecx, ebx
  00213	f7 e9		 imul	 ecx
  00215	c1 fa 03	 sar	 edx, 3
  00218	8b c2		 mov	 eax, edx
  0021a	c1 e8 1f	 shr	 eax, 31			; 0000001fH
  0021d	03 c2		 add	 eax, edx
; File C:\Program Files\Microsoft Visual Studio\2022\Professional\VC\Tools\MSVC\14.44.35207\include\xmemory

; 985  :         _STD _Deallocate<_New_alignof<_Ty>>(_Ptr, sizeof(_Ty) * _Count);

  0021f	8d 0c 80	 lea	 ecx, DWORD PTR [eax+eax*4]
  00222	c1 e1 02	 shl	 ecx, 2

; 284  :         if (_Bytes >= _Big_allocation_threshold) {

  00225	81 f9 00 10 00
	00		 cmp	 ecx, 4096		; 00001000H
  0022b	72 12		 jb	 SHORT $LN83@Emplace_re

; 205  :     const uintptr_t _Ptr_container   = _Ptr_user[-1];

  0022d	8b 53 fc	 mov	 edx, DWORD PTR [ebx-4]
  00230	83 c1 23	 add	 ecx, 35			; 00000023H

; 206  : 
; 207  :     // If the following asserts, it likely means that we are performing
; 208  :     // an aligned delete on memory coming from an unaligned allocation.
; 209  :     _STL_ASSERT(_Ptr_user[-2] == _Big_allocation_sentinel, "invalid argument");
; 210  : 
; 211  :     // Extra paranoia on aligned allocation/deallocation; ensure _Ptr_container is
; 212  :     // in range [_Min_back_shift, _Non_user_size]
; 213  : #ifdef _DEBUG
; 214  :     constexpr uintptr_t _Min_back_shift = 2 * sizeof(void*);
; 215  : #else // ^^^ defined(_DEBUG) / !defined(_DEBUG) vvv
; 216  :     constexpr uintptr_t _Min_back_shift = sizeof(void*);
; 217  : #endif // ^^^ !defined(_DEBUG) ^^^
; 218  :     const uintptr_t _Back_shift = reinterpret_cast<uintptr_t>(_Ptr) - _Ptr_container;

  00233	2b da		 sub	 ebx, edx

; 219  :     _STL_VERIFY(_Back_shift >= _Min_back_shift && _Back_shift <= _Non_user_size, "invalid argument");

  00235	8d 43 fc	 lea	 eax, DWORD PTR [ebx-4]
  00238	83 f8 1f	 cmp	 eax, 31			; 0000001fH
  0023b	77 39		 ja	 SHORT $LN82@Emplace_re

; 220  :     _Ptr = reinterpret_cast<void*>(_Ptr_container);

  0023d	8b da		 mov	 ebx, edx
$LN83@Emplace_re:

; 289  :         ::operator delete(_Ptr, _Bytes);

  0023f	51		 push	 ecx
  00240	53		 push	 ebx
  00241	e8 00 00 00 00	 call	 ??3@YAXPAXI@Z		; operator delete
  00246	83 c4 08	 add	 esp, 8
$LN78@Emplace_re:
; File C:\Program Files\Microsoft Visual Studio\2022\Professional\VC\Tools\MSVC\14.44.35207\include\vector

; 2076 :         _Mylast  = _Newvec + _Newsize;

  00249	8b 4d e0	 mov	 ecx, DWORD PTR __Newsize$1$[ebp]

; 913  :         }
; 914  : 
; 915  :         _Guard._New_begin = nullptr;
; 916  :         _Change_array(_Newvec, _Newsize, _Newcapacity);
; 917  :         return _Newvec + _Whereoff;

  0024c	8b 45 e4	 mov	 eax, DWORD PTR tv803[ebp]

; 2075 :         _Myfirst = _Newvec;

  0024f	89 3e		 mov	 DWORD PTR [esi], edi

; 2076 :         _Mylast  = _Newvec + _Newsize;

  00251	8d 0c 89	 lea	 ecx, DWORD PTR [ecx+ecx*4]
  00254	8d 0c 8f	 lea	 ecx, DWORD PTR [edi+ecx*4]
  00257	89 4e 04	 mov	 DWORD PTR [esi+4], ecx

; 2077 :         _Myend   = _Newvec + _Newcapacity;

  0025a	8b 4d e8	 mov	 ecx, DWORD PTR tv793[ebp]
  0025d	03 cf		 add	 ecx, edi
  0025f	89 4e 08	 mov	 DWORD PTR [esi+8], ecx

; 918  :     }

  00262	8b 4d f4	 mov	 ecx, DWORD PTR __$EHRec$[ebp]
  00265	64 89 0d 00 00
	00 00		 mov	 DWORD PTR fs:0, ecx
  0026c	59		 pop	 ecx
  0026d	5f		 pop	 edi
  0026e	5e		 pop	 esi
  0026f	5b		 pop	 ebx
  00270	8b e5		 mov	 esp, ebp
  00272	5d		 pop	 ebp
  00273	c2 08 00	 ret	 8
$LN82@Emplace_re:
; File C:\Program Files\Microsoft Visual Studio\2022\Professional\VC\Tools\MSVC\14.44.35207\include\xmemory

; 219  :     _STL_VERIFY(_Back_shift >= _Min_back_shift && _Back_shift <= _Non_user_size, "invalid argument");

  00276	6a 00		 push	 0
  00278	6a 00		 push	 0
  0027a	6a 00		 push	 0
  0027c	6a 00		 push	 0
  0027e	6a 00		 push	 0
  00280	e8 00 00 00 00	 call	 __invoke_watson
$LN114@Emplace_re:
; File C:\Program Files\Microsoft Visual Studio\2022\Professional\VC\Tools\MSVC\14.44.35207\include\vector

; 888  :             _Xlength();

  00285	e8 00 00 00 00	 call	 ?_Xlength@?$vector@U_QUIZLIST@CQuiz@@V?$allocator@U_QUIZLIST@CQuiz@@@std@@@std@@CAXXZ ; std::vector<CQuiz::_QUIZLIST,std::allocator<CQuiz::_QUIZLIST> >::_Xlength
$LN115@Emplace_re:
; File C:\Program Files\Microsoft Visual Studio\2022\Professional\VC\Tools\MSVC\14.44.35207\include\xmemory

; 118  :             _Throw_bad_array_new_length(); // multiply overflow

  0028a	e8 00 00 00 00	 call	 ?_Throw_bad_array_new_length@std@@YAXXZ ; std::_Throw_bad_array_new_length
$LN111@Emplace_re:
  0028f	cc		 int	 3
_TEXT	ENDS
;	COMDAT text$x
text$x	SEGMENT
__unwindfunclet$??$_Emplace_reallocate@ABU_QUIZLIST@CQuiz@@@?$vector@U_QUIZLIST@CQuiz@@V?$allocator@U_QUIZLIST@CQuiz@@@std@@@std@@AAEPAU_QUIZLIST@CQuiz@@QAU23@ABU23@@Z$0:
  00000	8d 4d c0	 lea	 ecx, DWORD PTR __Guard$[ebp]
  00003	e9 00 00 00 00	 jmp	 ??1_Reallocation_guard@?$vector@U_QUIZLIST@CQuiz@@V?$allocator@U_QUIZLIST@CQuiz@@@std@@@std@@QAE@XZ ; std::vector<CQuiz::_QUIZLIST,std::allocator<CQuiz::_QUIZLIST> >::_Reallocation_guard::~_Reallocation_guard
__unwindfunclet$??$_Emplace_reallocate@ABU_QUIZLIST@CQuiz@@@?$vector@U_QUIZLIST@CQuiz@@V?$allocator@U_QUIZLIST@CQuiz@@@std@@@std@@AAEPAU_QUIZLIST@CQuiz@@QAU23@ABU23@@Z$3:
  00008	8d 4d d4	 lea	 ecx, DWORD PTR __Backout$2[ebp]
  0000b	e9 00 00 00 00	 jmp	 ??1?$_Uninitialized_backout_al@V?$allocator@U_QUIZLIST@CQuiz@@@std@@@std@@QAE@XZ ; std::_Uninitialized_backout_al<std::allocator<CQuiz::_QUIZLIST> >::~_Uninitialized_backout_al<std::allocator<CQuiz::_QUIZLIST> >
  00010	cc		 int	 3
  00011	cc		 int	 3
  00012	cc		 int	 3
  00013	cc		 int	 3
  00014	cc		 int	 3
__ehhandler$??$_Emplace_reallocate@ABU_QUIZLIST@CQuiz@@@?$vector@U_QUIZLIST@CQuiz@@V?$allocator@U_QUIZLIST@CQuiz@@@std@@@std@@AAEPAU_QUIZLIST@CQuiz@@QAU23@ABU23@@Z:
  00015	90		 npad	 1
  00016	90		 npad	 1
  00017	8b 54 24 08	 mov	 edx, DWORD PTR [esp+8]
  0001b	8d 42 0c	 lea	 eax, DWORD PTR [edx+12]
  0001e	8b 4a bc	 mov	 ecx, DWORD PTR [edx-68]
  00021	33 c8		 xor	 ecx, eax
  00023	e8 00 00 00 00	 call	 @__security_check_cookie@4
  00028	b8 00 00 00 00	 mov	 eax, OFFSET __ehfuncinfo$??$_Emplace_reallocate@ABU_QUIZLIST@CQuiz@@@?$vector@U_QUIZLIST@CQuiz@@V?$allocator@U_QUIZLIST@CQuiz@@@std@@@std@@AAEPAU_QUIZLIST@CQuiz@@QAU23@ABU23@@Z
  0002d	e9 00 00 00 00	 jmp	 ___CxxFrameHandler3
text$x	ENDS
??$_Emplace_reallocate@ABU_QUIZLIST@CQuiz@@@?$vector@U_QUIZLIST@CQuiz@@V?$allocator@U_QUIZLIST@CQuiz@@@std@@@std@@AAEPAU_QUIZLIST@CQuiz@@QAU23@ABU23@@Z ENDP ; std::vector<CQuiz::_QUIZLIST,std::allocator<CQuiz::_QUIZLIST> >::_Emplace_reallocate<CQuiz::_QUIZLIST const &>
; Function compile flags: /Ogtp
; File C:\Program Files\Microsoft Visual Studio\2022\Professional\VC\Tools\MSVC\14.44.35207\include\xmemory
; File C:\Program Files\Microsoft Visual Studio\2022\Professional\VC\Tools\MSVC\14.44.35207\atlmfc\include\atlsimpstr.h
; File C:\Program Files\Microsoft Visual Studio\2022\Professional\VC\Tools\MSVC\14.44.35207\include\xmemory
;	COMDAT ??$_Destroy_range@V?$allocator@U_QUIZLIST@CQuiz@@@std@@@std@@YAXPAU_QUIZLIST@CQuiz@@QAU12@AAV?$allocator@U_QUIZLIST@CQuiz@@@0@@Z
_TEXT	SEGMENT
__$EHRec$ = -12						; size = 12
__First$ = 8						; size = 4
__Last$ = 12						; size = 4
__Al$ = 16						; size = 4
??$_Destroy_range@V?$allocator@U_QUIZLIST@CQuiz@@@std@@@std@@YAXPAU_QUIZLIST@CQuiz@@QAU12@AAV?$allocator@U_QUIZLIST@CQuiz@@@0@@Z PROC ; std::_Destroy_range<std::allocator<CQuiz::_QUIZLIST> >, COMDAT

; 1098 : _CONSTEXPR20 void _Destroy_range(_Alloc_ptr_t<_Alloc> _First, const _Alloc_ptr_t<_Alloc> _Last, _Alloc& _Al) noexcept {

  00000	55		 push	 ebp
  00001	8b ec		 mov	 ebp, esp
  00003	6a ff		 push	 -1
  00005	68 00 00 00 00	 push	 __ehhandler$??$_Destroy_range@V?$allocator@U_QUIZLIST@CQuiz@@@std@@@std@@YAXPAU_QUIZLIST@CQuiz@@QAU12@AAV?$allocator@U_QUIZLIST@CQuiz@@@0@@Z
  0000a	64 a1 00 00 00
	00		 mov	 eax, DWORD PTR fs:0
  00010	50		 push	 eax
  00011	56		 push	 esi
  00012	57		 push	 edi
  00013	a1 00 00 00 00	 mov	 eax, DWORD PTR ___security_cookie
  00018	33 c5		 xor	 eax, ebp
  0001a	50		 push	 eax
  0001b	8d 45 f4	 lea	 eax, DWORD PTR __$EHRec$[ebp]
  0001e	64 a3 00 00 00
	00		 mov	 DWORD PTR fs:0, eax

; 1102 :         for (; _First != _Last; ++_First) {

  00024	8b 75 08	 mov	 esi, DWORD PTR __First$[ebp]
  00027	8b 7d 0c	 mov	 edi, DWORD PTR __Last$[ebp]
  0002a	3b f7		 cmp	 esi, edi
  0002c	74 24		 je	 SHORT $LN3@Destroy_ra
  0002e	66 90		 npad	 2
$LL4@Destroy_ra:
; File C:\Program Files\Microsoft Visual Studio\2022\Professional\VC\Tools\MSVC\14.44.35207\atlmfc\include\atlsimpstr.h

; 804  : 		return( reinterpret_cast< CStringData* >( m_pszData )-1 );

  00030	8b 56 04	 mov	 edx, DWORD PTR [esi+4]

; 92   : 		if( _InterlockedDecrement( &nRefs ) <= 0 )

  00033	83 c8 ff	 or	 eax, -1

; 804  : 		return( reinterpret_cast< CStringData* >( m_pszData )-1 );

  00036	83 ea 10	 sub	 edx, 16			; 00000010H

; 92   : 		if( _InterlockedDecrement( &nRefs ) <= 0 )

  00039	f0 0f c1 42 0c	 lock	  xadd	 DWORD PTR [edx+12], eax
  0003e	48		 dec	 eax
  0003f	85 c0		 test	 eax, eax
  00041	7f 08		 jg	 SHORT $LN25@Destroy_ra

; 93   : 		{
; 94   : 			pStringMgr->Free( this );

  00043	8b 0a		 mov	 ecx, DWORD PTR [edx]
  00045	52		 push	 edx
  00046	8b 01		 mov	 eax, DWORD PTR [ecx]
  00048	ff 50 04	 call	 DWORD PTR [eax+4]
$LN25@Destroy_ra:
; File C:\Program Files\Microsoft Visual Studio\2022\Professional\VC\Tools\MSVC\14.44.35207\include\xmemory

; 1102 :         for (; _First != _Last; ++_First) {

  0004b	83 c6 14	 add	 esi, 20			; 00000014H
  0004e	3b f7		 cmp	 esi, edi
  00050	75 de		 jne	 SHORT $LL4@Destroy_ra
$LN3@Destroy_ra:

; 1103 :             allocator_traits<_Alloc>::destroy(_Al, _STD _Unfancy(_First));
; 1104 :         }
; 1105 :     }
; 1106 : }

  00052	8b 4d f4	 mov	 ecx, DWORD PTR __$EHRec$[ebp]
  00055	64 89 0d 00 00
	00 00		 mov	 DWORD PTR fs:0, ecx
  0005c	59		 pop	 ecx
  0005d	5f		 pop	 edi
  0005e	5e		 pop	 esi
  0005f	8b e5		 mov	 esp, ebp
  00061	5d		 pop	 ebp
  00062	c3		 ret	 0
  00063	cc		 int	 3
  00064	cc		 int	 3
  00065	cc		 int	 3
  00066	cc		 int	 3
  00067	cc		 int	 3
_TEXT	ENDS
;	COMDAT text$x
text$x	SEGMENT
__ehhandler$??$_Destroy_range@V?$allocator@U_QUIZLIST@CQuiz@@@std@@@std@@YAXPAU_QUIZLIST@CQuiz@@QAU12@AAV?$allocator@U_QUIZLIST@CQuiz@@@0@@Z:
  00000	90		 npad	 1
  00001	90		 npad	 1
  00002	8b 54 24 08	 mov	 edx, DWORD PTR [esp+8]
  00006	8d 42 0c	 lea	 eax, DWORD PTR [edx+12]
  00009	8b 4a f4	 mov	 ecx, DWORD PTR [edx-12]
  0000c	33 c8		 xor	 ecx, eax
  0000e	e8 00 00 00 00	 call	 @__security_check_cookie@4
  00013	b8 00 00 00 00	 mov	 eax, OFFSET __ehfuncinfo$??$_Destroy_range@V?$allocator@U_QUIZLIST@CQuiz@@@std@@@std@@YAXPAU_QUIZLIST@CQuiz@@QAU12@AAV?$allocator@U_QUIZLIST@CQuiz@@@0@@Z
  00018	e9 00 00 00 00	 jmp	 ___CxxFrameHandler3
text$x	ENDS
??$_Destroy_range@V?$allocator@U_QUIZLIST@CQuiz@@@std@@@std@@YAXPAU_QUIZLIST@CQuiz@@QAU12@AAV?$allocator@U_QUIZLIST@CQuiz@@@0@@Z ENDP ; std::_Destroy_range<std::allocator<CQuiz::_QUIZLIST> >
; Function compile flags: /Ogtp
;	COMDAT ??__FsQuiz@?1??GetInstance@CQuiz@@SAPAV1@XZ@YAXXZ
text$yd	SEGMENT
??__FsQuiz@?1??GetInstance@CQuiz@@SAPAV1@XZ@YAXXZ PROC	; `CQuiz::GetInstance'::`2'::`dynamic atexit destructor for 'sQuiz'', COMDAT
  00000	b9 00 00 00 00	 mov	 ecx, OFFSET ?sQuiz@?1??GetInstance@CQuiz@@SAPAV2@XZ@4V2@A
  00005	e9 00 00 00 00	 jmp	 ??1CQuiz@@QAE@XZ	; CQuiz::~CQuiz
??__FsQuiz@?1??GetInstance@CQuiz@@SAPAV1@XZ@YAXXZ ENDP	; `CQuiz::GetInstance'::`2'::`dynamic atexit destructor for 'sQuiz''
text$yd	ENDS
; Function compile flags: /Ogtp
; File C:\Program Files\Microsoft Visual Studio\2022\Professional\VC\Tools\MSVC\14.44.35207\include\vector
;	COMDAT ?_Xlength@?$vector@U_QUIZLIST@CQuiz@@V?$allocator@U_QUIZLIST@CQuiz@@@std@@@std@@CAXXZ
_TEXT	SEGMENT
?_Xlength@?$vector@U_QUIZLIST@CQuiz@@V?$allocator@U_QUIZLIST@CQuiz@@@std@@@std@@CAXXZ PROC ; std::vector<CQuiz::_QUIZLIST,std::allocator<CQuiz::_QUIZLIST> >::_Xlength, COMDAT

; 2184 :         _Xlength_error("vector too long");

  00000	68 00 00 00 00	 push	 OFFSET ??_C@_0BA@FOIKENOD@vector?5too?5long@
  00005	e8 00 00 00 00	 call	 ?_Xlength_error@std@@YAXPBD@Z ; std::_Xlength_error
$LN3@Xlength:
  0000a	cc		 int	 3
?_Xlength@?$vector@U_QUIZLIST@CQuiz@@V?$allocator@U_QUIZLIST@CQuiz@@@std@@@std@@CAXXZ ENDP ; std::vector<CQuiz::_QUIZLIST,std::allocator<CQuiz::_QUIZLIST> >::_Xlength
_TEXT	ENDS
; Function compile flags: /Ogtp
; File C:\Program Files\Microsoft Visual Studio\2022\Professional\VC\Tools\MSVC\14.44.35207\include\vector
; File C:\Program Files\Microsoft Visual Studio\2022\Professional\VC\Tools\MSVC\14.44.35207\include\xmemory
; File C:\Program Files\Microsoft Visual Studio\2022\Professional\VC\Tools\MSVC\14.44.35207\include\vector
; File C:\Program Files\Microsoft Visual Studio\2022\Professional\VC\Tools\MSVC\14.44.35207\include\xmemory
; File C:\Program Files\Microsoft Visual Studio\2022\Professional\VC\Tools\MSVC\14.44.35207\include\vector
;	COMDAT ??1?$vector@U_QUIZLIST@CQuiz@@V?$allocator@U_QUIZLIST@CQuiz@@@std@@@std@@QAE@XZ
_TEXT	SEGMENT
??1?$vector@U_QUIZLIST@CQuiz@@V?$allocator@U_QUIZLIST@CQuiz@@@std@@@std@@QAE@XZ PROC ; std::vector<CQuiz::_QUIZLIST,std::allocator<CQuiz::_QUIZLIST> >::~vector<CQuiz::_QUIZLIST,std::allocator<CQuiz::_QUIZLIST> >, COMDAT
; _this$ = ecx

; 829  :     _CONSTEXPR20 ~vector() noexcept {

  00000	56		 push	 esi
  00001	8b f1		 mov	 esi, ecx

; 2090 :         if (_Myfirst) { // destroy and deallocate old array

  00003	8b 06		 mov	 eax, DWORD PTR [esi]
  00005	85 c0		 test	 eax, eax
  00007	74 65		 je	 SHORT $LN5@vector
  00009	57		 push	 edi

; 2091 :             _STD _Destroy_range(_Myfirst, _Mylast, _Al);

  0000a	56		 push	 esi
  0000b	ff 76 04	 push	 DWORD PTR [esi+4]
  0000e	50		 push	 eax
  0000f	e8 00 00 00 00	 call	 ??$_Destroy_range@V?$allocator@U_QUIZLIST@CQuiz@@@std@@@std@@YAXPAU_QUIZLIST@CQuiz@@QAU12@AAV?$allocator@U_QUIZLIST@CQuiz@@@0@@Z ; std::_Destroy_range<std::allocator<CQuiz::_QUIZLIST> >

; 2092 :             _ASAN_VECTOR_REMOVE;
; 2093 :             _Al.deallocate(_Myfirst, static_cast<size_type>(_Myend - _Myfirst));

  00014	8b 4e 08	 mov	 ecx, DWORD PTR [esi+8]
  00017	b8 67 66 66 66	 mov	 eax, 1717986919		; 66666667H
  0001c	8b 3e		 mov	 edi, DWORD PTR [esi]
  0001e	83 c4 0c	 add	 esp, 12			; 0000000cH
  00021	2b cf		 sub	 ecx, edi
  00023	f7 e9		 imul	 ecx
  00025	c1 fa 03	 sar	 edx, 3
  00028	8b c2		 mov	 eax, edx
  0002a	c1 e8 1f	 shr	 eax, 31			; 0000001fH
  0002d	03 c2		 add	 eax, edx
; File C:\Program Files\Microsoft Visual Studio\2022\Professional\VC\Tools\MSVC\14.44.35207\include\xmemory

; 985  :         _STD _Deallocate<_New_alignof<_Ty>>(_Ptr, sizeof(_Ty) * _Count);

  0002f	8d 0c 80	 lea	 ecx, DWORD PTR [eax+eax*4]
  00032	c1 e1 02	 shl	 ecx, 2

; 284  :         if (_Bytes >= _Big_allocation_threshold) {

  00035	81 f9 00 10 00
	00		 cmp	 ecx, 4096		; 00001000H
  0003b	72 12		 jb	 SHORT $LN18@vector

; 205  :     const uintptr_t _Ptr_container   = _Ptr_user[-1];

  0003d	8b 57 fc	 mov	 edx, DWORD PTR [edi-4]
  00040	83 c1 23	 add	 ecx, 35			; 00000023H

; 206  : 
; 207  :     // If the following asserts, it likely means that we are performing
; 208  :     // an aligned delete on memory coming from an unaligned allocation.
; 209  :     _STL_ASSERT(_Ptr_user[-2] == _Big_allocation_sentinel, "invalid argument");
; 210  : 
; 211  :     // Extra paranoia on aligned allocation/deallocation; ensure _Ptr_container is
; 212  :     // in range [_Min_back_shift, _Non_user_size]
; 213  : #ifdef _DEBUG
; 214  :     constexpr uintptr_t _Min_back_shift = 2 * sizeof(void*);
; 215  : #else // ^^^ defined(_DEBUG) / !defined(_DEBUG) vvv
; 216  :     constexpr uintptr_t _Min_back_shift = sizeof(void*);
; 217  : #endif // ^^^ !defined(_DEBUG) ^^^
; 218  :     const uintptr_t _Back_shift = reinterpret_cast<uintptr_t>(_Ptr) - _Ptr_container;

  00043	2b fa		 sub	 edi, edx

; 219  :     _STL_VERIFY(_Back_shift >= _Min_back_shift && _Back_shift <= _Non_user_size, "invalid argument");

  00045	8d 47 fc	 lea	 eax, DWORD PTR [edi-4]
  00048	83 f8 1f	 cmp	 eax, 31			; 0000001fH
  0004b	77 23		 ja	 SHORT $LN17@vector

; 220  :     _Ptr = reinterpret_cast<void*>(_Ptr_container);

  0004d	8b fa		 mov	 edi, edx
$LN18@vector:

; 289  :         ::operator delete(_Ptr, _Bytes);

  0004f	51		 push	 ecx
  00050	57		 push	 edi
  00051	e8 00 00 00 00	 call	 ??3@YAXPAXI@Z		; operator delete
  00056	83 c4 08	 add	 esp, 8
; File C:\Program Files\Microsoft Visual Studio\2022\Professional\VC\Tools\MSVC\14.44.35207\include\vector

; 2095 :             _Myfirst = nullptr;

  00059	c7 06 00 00 00
	00		 mov	 DWORD PTR [esi], 0

; 2096 :             _Mylast  = nullptr;

  0005f	c7 46 04 00 00
	00 00		 mov	 DWORD PTR [esi+4], 0

; 2097 :             _Myend   = nullptr;

  00066	c7 46 08 00 00
	00 00		 mov	 DWORD PTR [esi+8], 0
  0006d	5f		 pop	 edi
$LN5@vector:
  0006e	5e		 pop	 esi

; 835  :     }

  0006f	c3		 ret	 0
$LN17@vector:
; File C:\Program Files\Microsoft Visual Studio\2022\Professional\VC\Tools\MSVC\14.44.35207\include\xmemory

; 219  :     _STL_VERIFY(_Back_shift >= _Min_back_shift && _Back_shift <= _Non_user_size, "invalid argument");

  00070	6a 00		 push	 0
  00072	6a 00		 push	 0
  00074	6a 00		 push	 0
  00076	6a 00		 push	 0
  00078	6a 00		 push	 0
  0007a	e8 00 00 00 00	 call	 __invoke_watson
$LN26@vector:
  0007f	cc		 int	 3
??1?$vector@U_QUIZLIST@CQuiz@@V?$allocator@U_QUIZLIST@CQuiz@@@std@@@std@@QAE@XZ ENDP ; std::vector<CQuiz::_QUIZLIST,std::allocator<CQuiz::_QUIZLIST> >::~vector<CQuiz::_QUIZLIST,std::allocator<CQuiz::_QUIZLIST> >
_TEXT	ENDS
; Function compile flags: /Ogtp
; File C:\IAGOS\server\v18\Source\Source\_Common\Quiz.cpp
;	COMDAT ?IsInQuizEventPlayer@CQuiz@@AAEHPAVCWorld@@HH@Z
_TEXT	SEGMENT
_pWorld$ = 8						; size = 4
_nLayer$ = 12						; size = 4
_nIndex$ = 16						; size = 4
?IsInQuizEventPlayer@CQuiz@@AAEHPAVCWorld@@HH@Z PROC	; CQuiz::IsInQuizEventPlayer, COMDAT
; _this$ = ecx

; 644  : {

  00000	55		 push	 ebp
  00001	8b ec		 mov	 ebp, esp

; 645  : 	if( pWorld->m_apObject[nIndex] && pWorld->m_apObject[nIndex]->GetType() == OT_MOVER && 
; 646  : 		static_cast<CMover*>( pWorld->m_apObject[nIndex] )->IsPlayer()  && pWorld->m_apObject[nIndex]->GetLayer() == nLayer)

  00003	8b 4d 10	 mov	 ecx, DWORD PTR _nIndex$[ebp]
  00006	8b 45 08	 mov	 eax, DWORD PTR _pWorld$[ebp]
  00009	8b 55 0c	 mov	 edx, DWORD PTR _nLayer$[ebp]
  0000c	8b 4c 88 44	 mov	 ecx, DWORD PTR [eax+ecx*4+68]
  00010	85 c9		 test	 ecx, ecx
  00012	74 21		 je	 SHORT $LN2@IsInQuizEv
  00014	83 b9 70 01 00
	00 05		 cmp	 DWORD PTR [ecx+368], 5
  0001b	75 18		 jne	 SHORT $LN2@IsInQuizEv
  0001d	83 b9 30 02 00
	00 00		 cmp	 DWORD PTR [ecx+560], 0
  00024	74 0f		 je	 SHORT $LN2@IsInQuizEv
  00026	33 c0		 xor	 eax, eax
  00028	39 91 b8 01 00
	00		 cmp	 DWORD PTR [ecx+440], edx
  0002e	0f 94 c0	 sete	 al

; 650  : }

  00031	5d		 pop	 ebp
  00032	c2 0c 00	 ret	 12			; 0000000cH
$LN2@IsInQuizEv:

; 647  : 		return TRUE;
; 648  : 	
; 649  : 	return FALSE;

  00035	33 c0		 xor	 eax, eax

; 650  : }

  00037	5d		 pop	 ebp
  00038	c2 0c 00	 ret	 12			; 0000000cH
?IsInQuizEventPlayer@CQuiz@@AAEHPAVCWorld@@HH@Z ENDP	; CQuiz::IsInQuizEventPlayer
_TEXT	ENDS
; Function compile flags: /Ogtp
; File C:\IAGOS\server\v18\Source\Source\_Common\Quiz.cpp
;	COMDAT ?CloseQuizEvent@CQuiz@@QAEXXZ
_TEXT	SEGMENT
_pWorld$1$ = -4						; size = 4
?CloseQuizEvent@CQuiz@@QAEXXZ PROC			; CQuiz::CloseQuizEvent, COMDAT
; _this$ = ecx

; 659  : {

  00000	55		 push	 ebp
  00001	8b ec		 mov	 ebp, esp
  00003	51		 push	 ecx
  00004	53		 push	 ebx
  00005	8b d9		 mov	 ebx, ecx

; 660  : 	SetRun( FALSE );

  00007	c7 43 08 00 00
	00 00		 mov	 DWORD PTR [ebx+8], 0

; 661  : 	SetNextTime( 0 );

  0000e	c7 83 dc 00 00
	00 00 00 00 00	 mov	 DWORD PTR [ebx+220], 0

; 662  : 	SetState( QE_CLOSE );

  00018	c7 43 20 00 00
	00 00		 mov	 DWORD PTR [ebx+32], 0

; 663  : 	m_bSelectLog = FALSE;

  0001f	c7 83 bc 00 00
	00 00 00 00 00	 mov	 DWORD PTR [ebx+188], 0

; 664  : 	m_nQuizCount = 0;

  00029	c7 83 c4 00 00
	00 00 00 00 00	 mov	 DWORD PTR [ebx+196], 0

; 665  : 	Clear();

  00033	e8 00 00 00 00	 call	 ?Clear@CQuiz@@QAEXXZ	; CQuiz::Clear

; 666  : 	RemoveNPC();

  00038	8b cb		 mov	 ecx, ebx
  0003a	e8 00 00 00 00	 call	 ?RemoveNPC@CQuiz@@QAEXXZ ; CQuiz::RemoveNPC

; 667  : 	g_dpDBClient.SendQuizEventState( QE_CLOSE, g_uIdofMulti, 0, m_nQuizCount );

  0003f	ff b3 c4 00 00
	00		 push	 DWORD PTR [ebx+196]
  00045	b9 00 00 00 00	 mov	 ecx, OFFSET ?g_dpDBClient@@3VCDPDatabaseClient@@A ; g_dpDBClient
  0004a	6a 00		 push	 0
  0004c	ff 35 00 00 00
	00		 push	 DWORD PTR ?g_uIdofMulti@@3KA ; g_uIdofMulti
  00052	6a 00		 push	 0
  00054	e8 00 00 00 00	 call	 ?SendQuizEventState@CDPDatabaseClient@@QAEXHHHH@Z ; CDPDatabaseClient::SendQuizEventState

; 668  : 	CWorld* pWorld = g_WorldMng.GetWorld( WI_WORLD_QUIZ );

  00059	68 d3 00 00 00	 push	 211			; 000000d3H
  0005e	b9 00 00 00 00	 mov	 ecx, OFFSET ?g_WorldMng@@3VCWorldMng@@A ; g_WorldMng
  00063	e8 00 00 00 00	 call	 ?GetWorld@CWorldMng@@QAEPAVCWorld@@K@Z ; CWorldMng::GetWorld
  00068	89 45 fc	 mov	 DWORD PTR _pWorld$1$[ebp], eax

; 669  : 	if( pWorld )

  0006b	85 c0		 test	 eax, eax
  0006d	74 37		 je	 SHORT $LN3@CloseQuizE

; 670  : 	{
; 671  : 		for( DWORD i = 0; i < pWorld->m_dwObjNum; ++i )

  0006f	56		 push	 esi
  00070	33 f6		 xor	 esi, esi
  00072	39 70 40	 cmp	 DWORD PTR [eax+64], esi
  00075	76 2e		 jbe	 SHORT $LN15@CloseQuizE
  00077	57		 push	 edi
  00078	8d 78 44	 lea	 edi, DWORD PTR [eax+68]
  0007b	0f 1f 44 00 00	 npad	 5
$LL4@CloseQuizE:

; 672  : 		{
; 673  : 			if( IsInQuizEventPlayer( pWorld, nDefaultLayer, i ) )

  00080	56		 push	 esi
  00081	6a 00		 push	 0
  00083	50		 push	 eax
  00084	8b cb		 mov	 ecx, ebx
  00086	e8 00 00 00 00	 call	 ?IsInQuizEventPlayer@CQuiz@@AAEHPAVCWorld@@HH@Z ; CQuiz::IsInQuizEventPlayer
  0008b	85 c0		 test	 eax, eax
  0008d	74 09		 je	 SHORT $LN2@CloseQuizE

; 674  : 				GoOut( static_cast<CUser*>( pWorld->m_apObject[i] ) );

  0008f	ff 37		 push	 DWORD PTR [edi]
  00091	8b cb		 mov	 ecx, ebx
  00093	e8 00 00 00 00	 call	 ?GoOut@CQuiz@@QAEXPAVCUser@@@Z ; CQuiz::GoOut
$LN2@CloseQuizE:

; 670  : 	{
; 671  : 		for( DWORD i = 0; i < pWorld->m_dwObjNum; ++i )

  00098	8b 45 fc	 mov	 eax, DWORD PTR _pWorld$1$[ebp]
  0009b	46		 inc	 esi
  0009c	83 c7 04	 add	 edi, 4
  0009f	3b 70 40	 cmp	 esi, DWORD PTR [eax+64]
  000a2	72 dc		 jb	 SHORT $LL4@CloseQuizE
  000a4	5f		 pop	 edi
$LN15@CloseQuizE:
  000a5	5e		 pop	 esi
$LN3@CloseQuizE:
  000a6	5b		 pop	 ebx

; 675  : 		}
; 676  : 	}
; 677  : }

  000a7	8b e5		 mov	 esp, ebp
  000a9	5d		 pop	 ebp
  000aa	c3		 ret	 0
?CloseQuizEvent@CQuiz@@QAEXXZ ENDP			; CQuiz::CloseQuizEvent
_TEXT	ENDS
; Function compile flags: /Ogtp
; File C:\IAGOS\server\v18\Source\Source\_Common\Quiz.cpp
; File C:\IAGOS\server\v18\Source\Source\DX_SDK\d3dx9math.inl
; File C:\IAGOS\server\v18\Source\Source\_Common\Quiz.cpp
;	COMDAT ?GoOut@CQuiz@@QAEXPAVCUser@@@Z
_TEXT	SEGMENT
$T1 = -16						; size = 12
__$ArrayPad$ = -4					; size = 4
_pUser$ = 8						; size = 4
?GoOut@CQuiz@@QAEXPAVCUser@@@Z PROC			; CQuiz::GoOut, COMDAT
; _this$ = ecx

; 653  : {

  00000	55		 push	 ebp
  00001	8b ec		 mov	 ebp, esp
  00003	83 ec 10	 sub	 esp, 16			; 00000010H
  00006	a1 00 00 00 00	 mov	 eax, DWORD PTR ___security_cookie
  0000b	33 c5		 xor	 eax, ebp
  0000d	89 45 fc	 mov	 DWORD PTR __$ArrayPad$[ebp], eax
  00010	8b 4d 08	 mov	 ecx, DWORD PTR _pUser$[ebp]

; 655  : 		pUser->REPLACE( g_uIdofMulti, WI_WORLD_MADRIGAL, D3DXVECTOR3( 6971.984f, 99.8f, 3336.884f ), REPLACE_NORMAL, nDefaultLayer );

  00013	8d 45 f0	 lea	 eax, DWORD PTR $T1[ebp]
  00016	6a 00		 push	 0
  00018	6a 00		 push	 0
  0001a	50		 push	 eax
  0001b	6a 01		 push	 1
  0001d	ff 35 00 00 00
	00		 push	 DWORD PTR ?g_uIdofMulti@@3KA ; g_uIdofMulti
; File C:\IAGOS\server\v18\Source\Source\DX_SDK\d3dx9math.inl

; 300  :     x = fx;

  00023	c7 45 f0 df df
	d9 45		 mov	 DWORD PTR $T1[ebp], 1171906527 ; 45d9dfdfH

; 301  :     y = fy;

  0002a	c7 45 f4 9a 99
	c7 42		 mov	 DWORD PTR $T1[ebp+4], 1120377242 ; 42c7999aH

; 302  :     z = fz;

  00031	c7 45 f8 25 8e
	50 45		 mov	 DWORD PTR $T1[ebp+8], 1162907173 ; 45508e25H
; File C:\IAGOS\server\v18\Source\Source\_Common\Quiz.cpp

; 655  : 		pUser->REPLACE( g_uIdofMulti, WI_WORLD_MADRIGAL, D3DXVECTOR3( 6971.984f, 99.8f, 3336.884f ), REPLACE_NORMAL, nDefaultLayer );

  00038	e8 00 00 00 00	 call	 ?Replace@CMover@@QAEHKKAAUD3DXVECTOR3@@W4REPLACE_TYPE@@H@Z ; CMover::Replace

; 656  : }

  0003d	8b 4d fc	 mov	 ecx, DWORD PTR __$ArrayPad$[ebp]
  00040	33 cd		 xor	 ecx, ebp
  00042	e8 00 00 00 00	 call	 @__security_check_cookie@4
  00047	8b e5		 mov	 esp, ebp
  00049	5d		 pop	 ebp
  0004a	c2 04 00	 ret	 4
?GoOut@CQuiz@@QAEXPAVCUser@@@Z ENDP			; CQuiz::GoOut
_TEXT	ENDS
; Function compile flags: /Ogtp
; File C:\IAGOS\server\v18\Source\Source\_Common\Quiz.cpp
; File C:\IAGOS\server\v18\Source\Source\_Common\Obj.h
; File C:\IAGOS\server\v18\Source\Source\_Common\Quiz.cpp
; File C:\IAGOS\server\v18\Source\Source\_Common\Obj.h
; File C:\IAGOS\server\v18\Source\Source\_Common\Quiz.cpp
; File C:\IAGOS\server\v18\Source\Source\_Common\Obj.h
; File C:\IAGOS\server\v18\Source\Source\_Common\Quiz.cpp
; File C:\IAGOS\server\v18\Source\Source\_Common\Obj.h
; File C:\IAGOS\server\v18\Source\Source\_Common\Quiz.cpp
; File C:\Program Files\Microsoft Visual Studio\2022\Professional\VC\Tools\MSVC\14.44.35207\atlmfc\include\atltypes.h
; File C:\IAGOS\server\v18\Source\Source\_Common\Quiz.cpp
; File C:\Program Files\Microsoft Visual Studio\2022\Professional\VC\Tools\MSVC\14.44.35207\atlmfc\include\atltypes.h
; File C:\IAGOS\server\v18\Source\Source\_Common\Quiz.cpp
; File C:\Program Files\Microsoft Visual Studio\2022\Professional\VC\Tools\MSVC\14.44.35207\atlmfc\include\atltypes.h
; File C:\IAGOS\server\v18\Source\Source\_Common\Quiz.cpp
; File C:\Program Files\Microsoft Visual Studio\2022\Professional\VC\Tools\MSVC\14.44.35207\atlmfc\include\atltypes.h
; File C:\IAGOS\server\v18\Source\Source\_Common\Quiz.cpp
; File C:\Program Files\Microsoft Visual Studio\2022\Professional\VC\Tools\MSVC\14.44.35207\atlmfc\include\atltypes.h
; File C:\IAGOS\server\v18\Source\Source\_Common\Quiz.cpp
; File C:\Program Files\Microsoft Visual Studio\2022\Professional\VC\Tools\MSVC\14.44.35207\atlmfc\include\atltypes.h
; File C:\IAGOS\server\v18\Source\Source\_Common\Quiz.cpp
; File C:\Program Files\Microsoft Visual Studio\2022\Professional\VC\Tools\MSVC\14.44.35207\atlmfc\include\atltypes.h
; File C:\IAGOS\server\v18\Source\Source\_Common\Quiz.cpp
;	COMDAT ?GetUserSelectExample@CQuiz@@QAEHPAVCUser@@@Z
_TEXT	SEGMENT
_vPos$ = -12						; size = 12
_pUser$ = 8						; size = 4
?GetUserSelectExample@CQuiz@@QAEHPAVCUser@@@Z PROC	; CQuiz::GetUserSelectExample, COMDAT
; _this$ = ecx

; 628  : {

  00000	55		 push	 ebp
  00001	8b ec		 mov	 ebp, esp
  00003	83 ec 0c	 sub	 esp, 12			; 0000000cH
; File C:\IAGOS\server\v18\Source\Source\_Common\Obj.h

; 215  : 	D3DXVECTOR3		GetPos()	{ return m_vPos; }

  00006	8b 45 08	 mov	 eax, DWORD PTR _pUser$[ebp]
; File C:\IAGOS\server\v18\Source\Source\_Common\Quiz.cpp

; 628  : {

  00009	53		 push	 ebx
  0000a	56		 push	 esi
  0000b	57		 push	 edi
; File C:\IAGOS\server\v18\Source\Source\_Common\Obj.h

; 215  : 	D3DXVECTOR3		GetPos()	{ return m_vPos; }

  0000c	f3 0f 7e 80 60
	01 00 00	 movq	 xmm0, QWORD PTR [eax+352]
; File C:\IAGOS\server\v18\Source\Source\_Common\Quiz.cpp

; 628  : {

  00014	8b f1		 mov	 esi, ecx
; File C:\IAGOS\server\v18\Source\Source\_Common\Obj.h

; 215  : 	D3DXVECTOR3		GetPos()	{ return m_vPos; }

  00016	8b 80 68 01 00
	00		 mov	 eax, DWORD PTR [eax+360]
  0001c	89 45 fc	 mov	 DWORD PTR _vPos$[ebp+8], eax
; File C:\IAGOS\server\v18\Source\Source\_Common\Quiz.cpp

; 630  : 	POINT pt = { (int)vPos.x, (int)vPos.z };

  0001f	f3 0f 2c 5d fc	 cvttss2si ebx, DWORD PTR _vPos$[ebp+8]

; 631  : 	if( m_sQuizData.aExampleRect[0].PtInRect( pt ) )

  00024	8d 46 6c	 lea	 eax, DWORD PTR [esi+108]
; File C:\IAGOS\server\v18\Source\Source\_Common\Obj.h

; 215  : 	D3DXVECTOR3		GetPos()	{ return m_vPos; }

  00027	66 0f d6 45 f4	 movq	 QWORD PTR _vPos$[ebp], xmm0
; File C:\IAGOS\server\v18\Source\Source\_Common\Quiz.cpp

; 630  : 	POINT pt = { (int)vPos.x, (int)vPos.z };

  0002c	f3 0f 2c 7d f4	 cvttss2si edi, DWORD PTR _vPos$[ebp]
; File C:\Program Files\Microsoft Visual Studio\2022\Professional\VC\Tools\MSVC\14.44.35207\atlmfc\include\atltypes.h

; 652  : 	return ::PtInRect(this, point);

  00031	53		 push	 ebx
  00032	57		 push	 edi
  00033	50		 push	 eax
  00034	ff 15 00 00 00
	00		 call	 DWORD PTR __imp__PtInRect@12
; File C:\IAGOS\server\v18\Source\Source\_Common\Quiz.cpp

; 631  : 	if( m_sQuizData.aExampleRect[0].PtInRect( pt ) )

  0003a	85 c0		 test	 eax, eax
  0003c	74 0e		 je	 SHORT $LN2@GetUserSel

; 638  : 		return 4;
; 639  : 
; 640  : 	return 0;
; 641  : }

  0003e	5f		 pop	 edi
  0003f	5e		 pop	 esi
  00040	b8 01 00 00 00	 mov	 eax, 1
  00045	5b		 pop	 ebx
  00046	8b e5		 mov	 esp, ebp
  00048	5d		 pop	 ebp
  00049	c2 04 00	 ret	 4
$LN2@GetUserSel:
; File C:\Program Files\Microsoft Visual Studio\2022\Professional\VC\Tools\MSVC\14.44.35207\atlmfc\include\atltypes.h

; 652  : 	return ::PtInRect(this, point);

  0004c	53		 push	 ebx
  0004d	57		 push	 edi
; File C:\IAGOS\server\v18\Source\Source\_Common\Quiz.cpp

; 633  : 	else if( m_sQuizData.aExampleRect[1].PtInRect( pt ) )

  0004e	8d 46 7c	 lea	 eax, DWORD PTR [esi+124]
; File C:\Program Files\Microsoft Visual Studio\2022\Professional\VC\Tools\MSVC\14.44.35207\atlmfc\include\atltypes.h

; 652  : 	return ::PtInRect(this, point);

  00051	50		 push	 eax
  00052	ff 15 00 00 00
	00		 call	 DWORD PTR __imp__PtInRect@12
; File C:\IAGOS\server\v18\Source\Source\_Common\Quiz.cpp

; 633  : 	else if( m_sQuizData.aExampleRect[1].PtInRect( pt ) )

  00058	85 c0		 test	 eax, eax
  0005a	74 0e		 je	 SHORT $LN4@GetUserSel

; 638  : 		return 4;
; 639  : 
; 640  : 	return 0;
; 641  : }

  0005c	5f		 pop	 edi
  0005d	5e		 pop	 esi
  0005e	b8 02 00 00 00	 mov	 eax, 2
  00063	5b		 pop	 ebx
  00064	8b e5		 mov	 esp, ebp
  00066	5d		 pop	 ebp
  00067	c2 04 00	 ret	 4
$LN4@GetUserSel:
; File C:\Program Files\Microsoft Visual Studio\2022\Professional\VC\Tools\MSVC\14.44.35207\atlmfc\include\atltypes.h

; 652  : 	return ::PtInRect(this, point);

  0006a	53		 push	 ebx
  0006b	57		 push	 edi
; File C:\IAGOS\server\v18\Source\Source\_Common\Quiz.cpp

; 635  : 	else if( m_sQuizData.aExampleRect[2].PtInRect( pt ) )

  0006c	8d 86 8c 00 00
	00		 lea	 eax, DWORD PTR [esi+140]
; File C:\Program Files\Microsoft Visual Studio\2022\Professional\VC\Tools\MSVC\14.44.35207\atlmfc\include\atltypes.h

; 652  : 	return ::PtInRect(this, point);

  00072	50		 push	 eax
  00073	ff 15 00 00 00
	00		 call	 DWORD PTR __imp__PtInRect@12
; File C:\IAGOS\server\v18\Source\Source\_Common\Quiz.cpp

; 635  : 	else if( m_sQuizData.aExampleRect[2].PtInRect( pt ) )

  00079	85 c0		 test	 eax, eax
  0007b	74 0e		 je	 SHORT $LN6@GetUserSel

; 638  : 		return 4;
; 639  : 
; 640  : 	return 0;
; 641  : }

  0007d	5f		 pop	 edi
  0007e	5e		 pop	 esi
  0007f	b8 03 00 00 00	 mov	 eax, 3
  00084	5b		 pop	 ebx
  00085	8b e5		 mov	 esp, ebp
  00087	5d		 pop	 ebp
  00088	c2 04 00	 ret	 4
$LN6@GetUserSel:
; File C:\Program Files\Microsoft Visual Studio\2022\Professional\VC\Tools\MSVC\14.44.35207\atlmfc\include\atltypes.h

; 652  : 	return ::PtInRect(this, point);

  0008b	53		 push	 ebx
  0008c	57		 push	 edi
; File C:\IAGOS\server\v18\Source\Source\_Common\Quiz.cpp

; 637  : 	else if( m_sQuizData.aExampleRect[3].PtInRect( pt ) )

  0008d	8d 86 9c 00 00
	00		 lea	 eax, DWORD PTR [esi+156]
; File C:\Program Files\Microsoft Visual Studio\2022\Professional\VC\Tools\MSVC\14.44.35207\atlmfc\include\atltypes.h

; 652  : 	return ::PtInRect(this, point);

  00093	50		 push	 eax
  00094	ff 15 00 00 00
	00		 call	 DWORD PTR __imp__PtInRect@12
; File C:\IAGOS\server\v18\Source\Source\_Common\Quiz.cpp

; 637  : 	else if( m_sQuizData.aExampleRect[3].PtInRect( pt ) )

  0009a	f7 d8		 neg	 eax
  0009c	5f		 pop	 edi
  0009d	1b c0		 sbb	 eax, eax

; 638  : 		return 4;
; 639  : 
; 640  : 	return 0;
; 641  : }

  0009f	5e		 pop	 esi
  000a0	83 e0 04	 and	 eax, 4
  000a3	5b		 pop	 ebx
  000a4	8b e5		 mov	 esp, ebp
  000a6	5d		 pop	 ebp
  000a7	c2 04 00	 ret	 4
?GetUserSelectExample@CQuiz@@QAEHPAVCUser@@@Z ENDP	; CQuiz::GetUserSelectExample
_TEXT	ENDS
; Function compile flags: /Ogtp
; File C:\IAGOS\server\v18\Source\Source\_Common\Quiz.cpp
; File C:\IAGOS\server\v18\Source\Source\_Common\Obj.h
; File C:\IAGOS\server\v18\Source\Source\_Common\Quiz.cpp
; File C:\IAGOS\server\v18\Source\Source\_Common\Obj.h
; File C:\IAGOS\server\v18\Source\Source\_Common\Quiz.cpp
; File C:\IAGOS\server\v18\Source\Source\_Common\Obj.h
; File C:\IAGOS\server\v18\Source\Source\_Common\Quiz.cpp
; File C:\Program Files\Microsoft Visual Studio\2022\Professional\VC\Tools\MSVC\14.44.35207\atlmfc\include\atltypes.h
; File C:\IAGOS\server\v18\Source\Source\_Common\Quiz.cpp
;	COMDAT ?PtInCorrectZoneRect@CQuiz@@QAEHPAVCUser@@H@Z
_TEXT	SEGMENT
_vPos$ = -12						; size = 12
_pUser$ = 8						; size = 4
_nCorrect$ = 12						; size = 4
?PtInCorrectZoneRect@CQuiz@@QAEHPAVCUser@@H@Z PROC	; CQuiz::PtInCorrectZoneRect, COMDAT
; _this$ = ecx

; 609  : {

  00000	55		 push	 ebp
  00001	8b ec		 mov	 ebp, esp
  00003	83 ec 0c	 sub	 esp, 12			; 0000000cH
  00006	56		 push	 esi
; File C:\IAGOS\server\v18\Source\Source\_Common\Obj.h

; 215  : 	D3DXVECTOR3		GetPos()	{ return m_vPos; }

  00007	8b 75 08	 mov	 esi, DWORD PTR _pUser$[ebp]
; File C:\IAGOS\server\v18\Source\Source\_Common\Quiz.cpp

; 609  : {

  0000a	57		 push	 edi
  0000b	8b f9		 mov	 edi, ecx
; File C:\IAGOS\server\v18\Source\Source\_Common\Obj.h

; 215  : 	D3DXVECTOR3		GetPos()	{ return m_vPos; }

  0000d	8b 86 68 01 00
	00		 mov	 eax, DWORD PTR [esi+360]
  00013	f3 0f 7e 86 60
	01 00 00	 movq	 xmm0, QWORD PTR [esi+352]
  0001b	89 45 fc	 mov	 DWORD PTR _vPos$[ebp+8], eax
; File C:\IAGOS\server\v18\Source\Source\_Common\Quiz.cpp

; 614  : 	POINT pt = { (int)vPos.x, (int)vPos.z };

  0001e	f3 0f 2c 45 fc	 cvttss2si eax, DWORD PTR _vPos$[ebp+8]
; File C:\IAGOS\server\v18\Source\Source\_Common\Obj.h

; 215  : 	D3DXVECTOR3		GetPos()	{ return m_vPos; }

  00023	66 0f d6 45 f4	 movq	 QWORD PTR _vPos$[ebp], xmm0
; File C:\IAGOS\server\v18\Source\Source\_Common\Quiz.cpp

; 614  : 	POINT pt = { (int)vPos.x, (int)vPos.z };

  00028	f3 0f 2c 55 f4	 cvttss2si edx, DWORD PTR _vPos$[ebp]
; File C:\Program Files\Microsoft Visual Studio\2022\Professional\VC\Tools\MSVC\14.44.35207\atlmfc\include\atltypes.h

; 652  : 	return ::PtInRect(this, point);

  0002d	50		 push	 eax
  0002e	8b 45 0c	 mov	 eax, DWORD PTR _nCorrect$[ebp]
  00031	c1 e0 04	 shl	 eax, 4
  00034	83 c0 5c	 add	 eax, 92			; 0000005cH
  00037	03 c7		 add	 eax, edi
  00039	52		 push	 edx
  0003a	50		 push	 eax
  0003b	ff 15 00 00 00
	00		 call	 DWORD PTR __imp__PtInRect@12
; File C:\IAGOS\server\v18\Source\Source\_Common\Quiz.cpp

; 615  : 	if( m_sQuizData.aExampleRect[nCorrect-1].PtInRect( pt ) )

  00041	85 c0		 test	 eax, eax
  00043	74 0d		 je	 SHORT $LN2@PtInCorrec

; 616  : 		return TRUE;

  00045	5f		 pop	 edi
  00046	b8 01 00 00 00	 mov	 eax, 1

; 625  : }

  0004b	5e		 pop	 esi
  0004c	8b e5		 mov	 esp, ebp
  0004e	5d		 pop	 ebp
  0004f	c2 08 00	 ret	 8
$LN2@PtInCorrec:

; 617  : 	else
; 618  : 	{
; 619  : 		// ÄűÁîÁ¸żˇ ŔÖ´Â żŔ´äŔÚ´Â ´ë±âÁ¸Ŕ¸·Î ŔĚµż
; 620  : 		if( GetZoneType( pUser ) == ZONE_QUIZ )

  00052	56		 push	 esi
  00053	8b cf		 mov	 ecx, edi
  00055	e8 00 00 00 00	 call	 ?GetZoneType@CQuiz@@QAEHPAVCMover@@@Z ; CQuiz::GetZoneType
  0005a	83 f8 64	 cmp	 eax, 100		; 00000064H
  0005d	75 0a		 jne	 SHORT $LN4@PtInCorrec

; 621  : 			TeleportToQuizEvent( pUser, ZONE_WATCHING );

  0005f	6a 69		 push	 105			; 00000069H
  00061	56		 push	 esi
  00062	8b cf		 mov	 ecx, edi
  00064	e8 00 00 00 00	 call	 ?TeleportToQuizEvent@CQuiz@@QAEHPAVCUser@@H@Z ; CQuiz::TeleportToQuizEvent
$LN4@PtInCorrec:

; 622  : 	}
; 623  : 
; 624  : 	return FALSE;

  00069	5f		 pop	 edi
  0006a	33 c0		 xor	 eax, eax

; 625  : }

  0006c	5e		 pop	 esi
  0006d	8b e5		 mov	 esp, ebp
  0006f	5d		 pop	 ebp
  00070	c2 08 00	 ret	 8
?PtInCorrectZoneRect@CQuiz@@QAEHPAVCUser@@H@Z ENDP	; CQuiz::PtInCorrectZoneRect
_TEXT	ENDS
; Function compile flags: /Ogtp
; File C:\IAGOS\server\v18\Source\Source\_Common\Quiz.cpp
; File C:\IAGOS\server\v18\Source\Source\_Common\Project.h
; File C:\IAGOS\server\v18\Source\Source\_Common\data.h
; File C:\IAGOS\server\v18\Source\Source\_Common\Project.h
; File C:\IAGOS\server\v18\Source\Source\_Common\Quiz.cpp
; File C:\Program Files\Microsoft Visual Studio\2022\Professional\VC\Tools\MSVC\14.44.35207\include\vector
; File C:\IAGOS\server\v18\Source\Source\_Common\Quiz.cpp
; File C:\IAGOS\server\v18\Source\Source\_Common\Quiz.h
; File C:\IAGOS\server\v18\Source\Source\_Common\Quiz.cpp
; File C:\Program Files\Microsoft Visual Studio\2022\Professional\VC\Tools\MSVC\14.44.35207\atlmfc\include\afxstr.h
; File C:\Program Files\Microsoft Visual Studio\2022\Professional\VC\Tools\MSVC\14.44.35207\atlmfc\include\atlsimpstr.h
; File C:\IAGOS\server\v18\Source\Source\_Common\Project.h
; File C:\IAGOS\server\v18\Source\Source\_Common\Quiz.cpp
; File C:\IAGOS\server\v18\Source\Source\_Common\Project.h
; File C:\IAGOS\server\v18\Source\Source\_Common\data.h
; File C:\IAGOS\server\v18\Source\Source\_Common\Project.h
; File C:\IAGOS\server\v18\Source\Source\_Common\Quiz.cpp
; File C:\Program Files\Microsoft Visual Studio\2022\Professional\VC\Tools\MSVC\14.44.35207\atlmfc\include\atlsimpstr.h
; File C:\IAGOS\server\v18\Source\Source\_Common\Quiz.cpp
; File C:\Program Files\Microsoft Visual Studio\2022\Professional\VC\Tools\MSVC\14.44.35207\atlmfc\include\atlsimpstr.h
; File C:\IAGOS\server\v18\Source\Source\_Common\Quiz.cpp
; File C:\Program Files\Microsoft Visual Studio\2022\Professional\VC\Tools\MSVC\14.44.35207\atlmfc\include\atlsimpstr.h
; File C:\IAGOS\server\v18\Source\Source\_Common\Quiz.cpp
;	COMDAT ?DropOutWrongUser@CQuiz@@QAEXHHHH@Z
_TEXT	SEGMENT
_pWorld$1$ = -24					; size = 4
_i$1$ = -20						; size = 4
_i$1$ = -20						; size = 4
_nCorrectUser$1$ = -16					; size = 4
__$EHRec$ = -12						; size = 12
_nQuizId$ = 8						; size = 4
_strMessage$2 = 8					; size = 4
_nCorrect$ = 12						; size = 4
_nItemId$ = 16						; size = 4
_nItemNum$ = 20						; size = 4
?DropOutWrongUser@CQuiz@@QAEXHHHH@Z PROC		; CQuiz::DropOutWrongUser, COMDAT
; _this$ = ecx

; 542  : {

  00000	55		 push	 ebp
  00001	8b ec		 mov	 ebp, esp
  00003	6a ff		 push	 -1
  00005	68 00 00 00 00	 push	 __ehhandler$?DropOutWrongUser@CQuiz@@QAEXHHHH@Z
  0000a	64 a1 00 00 00
	00		 mov	 eax, DWORD PTR fs:0
  00010	50		 push	 eax
  00011	83 ec 0c	 sub	 esp, 12			; 0000000cH
  00014	53		 push	 ebx
  00015	56		 push	 esi
  00016	57		 push	 edi
  00017	a1 00 00 00 00	 mov	 eax, DWORD PTR ___security_cookie
  0001c	33 c5		 xor	 eax, ebp
  0001e	50		 push	 eax
  0001f	8d 45 f4	 lea	 eax, DWORD PTR __$EHRec$[ebp]
  00022	64 a3 00 00 00
	00		 mov	 DWORD PTR fs:0, eax
  00028	8b f9		 mov	 edi, ecx

; 543  : 	int nCorrectUser = 0;

  0002a	33 f6		 xor	 esi, esi

; 544  : 	CWorld* pWorld = g_WorldMng.GetWorld( WI_WORLD_QUIZ );

  0002c	b9 00 00 00 00	 mov	 ecx, OFFSET ?g_WorldMng@@3VCWorldMng@@A ; g_WorldMng
  00031	68 d3 00 00 00	 push	 211			; 000000d3H
  00036	89 75 f0	 mov	 DWORD PTR _nCorrectUser$1$[ebp], esi
  00039	e8 00 00 00 00	 call	 ?GetWorld@CWorldMng@@QAEPAVCWorld@@K@Z ; CWorldMng::GetWorld
  0003e	8b d8		 mov	 ebx, eax
  00040	89 5d e8	 mov	 DWORD PTR _pWorld$1$[ebp], ebx

; 545  : 	if( pWorld )

  00043	85 db		 test	 ebx, ebx
  00045	0f 84 5a 01 00
	00		 je	 $LN14@DropOutWro

; 546  : 	{
; 547  : 		for( DWORD i = 0; i < pWorld->m_dwObjNum; ++i )

  0004b	33 c0		 xor	 eax, eax
  0004d	89 45 ec	 mov	 DWORD PTR _i$1$[ebp], eax
  00050	39 43 40	 cmp	 DWORD PTR [ebx+64], eax
  00053	0f 86 d7 00 00
	00		 jbe	 $LN95@DropOutWro
  00059	8d 73 44	 lea	 esi, DWORD PTR [ebx+68]
  0005c	0f 1f 40 00	 npad	 4
$LL4@DropOutWro:

; 548  : 		{
; 549  : 			if( IsInQuizEventPlayer( pWorld, nDefaultLayer, i ) )

  00060	50		 push	 eax
  00061	6a 00		 push	 0
  00063	53		 push	 ebx
  00064	8b cf		 mov	 ecx, edi
  00066	e8 00 00 00 00	 call	 ?IsInQuizEventPlayer@CQuiz@@AAEHPAVCWorld@@HH@Z ; CQuiz::IsInQuizEventPlayer
  0006b	85 c0		 test	 eax, eax
  0006d	0f 84 a0 00 00
	00		 je	 $LN96@DropOutWro

; 550  : 			{
; 551  : 				if( m_bSelectLog )

  00073	83 bf bc 00 00
	00 00		 cmp	 DWORD PTR [edi+188], 0
  0007a	74 2c		 je	 SHORT $LN24@DropOutWro

; 552  : 				{
; 553  : 					int nSelect = GetUserSelectExample( static_cast<CUser*>( pWorld->m_apObject[i] ) );

  0007c	ff 36		 push	 DWORD PTR [esi]
  0007e	8b cf		 mov	 ecx, edi
  00080	e8 00 00 00 00	 call	 ?GetUserSelectExample@CQuiz@@QAEHPAVCUser@@@Z ; CQuiz::GetUserSelectExample

; 554  : 					if( nSelect )

  00085	85 c0		 test	 eax, eax
  00087	74 1f		 je	 SHORT $LN24@DropOutWro

; 555  : 						g_dpDBClient.SendQuizEventSelect( static_cast<CUser*>( pWorld->m_apObject[i] )->m_idPlayer, g_uIdofMulti, nQuizId, nSelect, nCorrect );

  00089	ff 75 0c	 push	 DWORD PTR _nCorrect$[ebp]
  0008c	b9 00 00 00 00	 mov	 ecx, OFFSET ?g_dpDBClient@@3VCDPDatabaseClient@@A ; g_dpDBClient
  00091	50		 push	 eax
  00092	ff 75 08	 push	 DWORD PTR _nQuizId$[ebp]
  00095	8b 06		 mov	 eax, DWORD PTR [esi]
  00097	ff 35 00 00 00
	00		 push	 DWORD PTR ?g_uIdofMulti@@3KA ; g_uIdofMulti
  0009d	ff b0 34 02 00
	00		 push	 DWORD PTR [eax+564]
  000a3	e8 00 00 00 00	 call	 ?SendQuizEventSelect@CDPDatabaseClient@@QAEXKHHHH@Z ; CDPDatabaseClient::SendQuizEventSelect
$LN24@DropOutWro:
; File C:\IAGOS\server\v18\Source\Source\_Common\Project.h

; 1427 : 	VERIFY_RANGE( (int)( dwIndex ), 0, m_colorText.GetSize(), "GetText range_error", "error" );

  000a8	a1 ac 02 00 00	 mov	 eax, DWORD PTR ?prj@@3VCProject@@A+684
  000ad	3d 70 10 00 00	 cmp	 eax, 4208		; 00001070H
  000b2	7f 21		 jg	 SHORT $LN22@DropOutWro

; 579  : 	LPCTSTR szErr = Error( _T( "%s min:%d, max:%d, index:%d" ), szMsg, nMin, nMax, nIndex ); 

  000b4	68 70 10 00 00	 push	 4208			; 00001070H
  000b9	50		 push	 eax
  000ba	6a 00		 push	 0
  000bc	68 00 00 00 00	 push	 OFFSET ??_C@_0BE@OHDBLHOM@GetText?5range_error@
  000c1	68 00 00 00 00	 push	 OFFSET ??_C@_0BM@HMFGHCP@?$CFs?5min?3?$CFd?0?5max?3?$CFd?0?5index?3?$CFd@
  000c6	e8 00 00 00 00	 call	 ?Error@@YAPBDPBDZZ	; Error
  000cb	83 c4 14	 add	 esp, 20			; 00000014H

; 1427 : 	VERIFY_RANGE( (int)( dwIndex ), 0, m_colorText.GetSize(), "GetText range_error", "error" );

  000ce	b8 00 00 00 00	 mov	 eax, OFFSET ??_C@_05KKCIMGE@error@
  000d3	eb 1b		 jmp	 SHORT $LN21@DropOutWro
$LN22@DropOutWro:
; File C:\IAGOS\server\v18\Source\Source\_Common\data.h

; 270  : 	if( dwIndex >= (DWORD)m_nMaxIndex )

  000d5	76 14		 jbe	 SHORT $LN91@DropOutWro

; 271  : 		return NULL;
; 272  : 	return (T*) m_apOffset[ dwIndex ];

  000d7	a1 9c 02 00 00	 mov	 eax, DWORD PTR ?prj@@3VCProject@@A+668
  000dc	8b 80 c0 41 00
	00		 mov	 eax, DWORD PTR [eax+16832]
; File C:\IAGOS\server\v18\Source\Source\_Common\Project.h

; 1428 : 	if( m_colorText.GetAt( dwIndex ) == NULL )

  000e2	85 c0		 test	 eax, eax
  000e4	74 05		 je	 SHORT $LN91@DropOutWro

; 1430 : 	return m_colorText.GetAt( dwIndex )->lpszData; 

  000e6	8b 40 04	 mov	 eax, DWORD PTR [eax+4]
  000e9	eb 05		 jmp	 SHORT $LN21@DropOutWro
$LN91@DropOutWro:

; 1429 : 		return "";

  000eb	b8 00 00 00 00	 mov	 eax, OFFSET ??_C@_00CNPNBAHC@@
$LN21@DropOutWro:
; File C:\IAGOS\server\v18\Source\Source\_Common\Quiz.cpp

; 557  : 				static_cast<CUser*>( pWorld->m_apObject[i] )->AddQuizEventMessage( prj.GetText( TID_GAME_QUIZ_DROP_OUT ), QE_DROP_OUT );

  000f0	8b 0e		 mov	 ecx, DWORD PTR [esi]
  000f2	6a 06		 push	 6
  000f4	50		 push	 eax
  000f5	e8 00 00 00 00	 call	 ?AddQuizEventMessage@CUser@@QAEXPBDH@Z ; CUser::AddQuizEventMessage

; 558  : 				if( PtInCorrectZoneRect( static_cast<CUser*>( pWorld->m_apObject[i] ), nCorrect ) )

  000fa	ff 75 0c	 push	 DWORD PTR _nCorrect$[ebp]
  000fd	8b cf		 mov	 ecx, edi
  000ff	ff 36		 push	 DWORD PTR [esi]
  00101	e8 00 00 00 00	 call	 ?PtInCorrectZoneRect@CQuiz@@QAEHPAVCUser@@H@Z ; CQuiz::PtInCorrectZoneRect
  00106	8b 4d f0	 mov	 ecx, DWORD PTR _nCorrectUser$1$[ebp]
  00109	85 c0		 test	 eax, eax
  0010b	74 09		 je	 SHORT $LN2@DropOutWro

; 559  : 				{
; 560  : 					++nCorrectUser;

  0010d	41		 inc	 ecx
  0010e	89 4d f0	 mov	 DWORD PTR _nCorrectUser$1$[ebp], ecx
  00111	eb 03		 jmp	 SHORT $LN2@DropOutWro
$LN96@DropOutWro:

; 548  : 		{
; 549  : 			if( IsInQuizEventPlayer( pWorld, nDefaultLayer, i ) )

  00113	8b 4d f0	 mov	 ecx, DWORD PTR _nCorrectUser$1$[ebp]
$LN2@DropOutWro:

; 546  : 	{
; 547  : 		for( DWORD i = 0; i < pWorld->m_dwObjNum; ++i )

  00116	8b 45 ec	 mov	 eax, DWORD PTR _i$1$[ebp]
  00119	83 c6 04	 add	 esi, 4
  0011c	40		 inc	 eax
  0011d	89 45 ec	 mov	 DWORD PTR _i$1$[ebp], eax
  00120	3b 43 40	 cmp	 eax, DWORD PTR [ebx+64]
  00123	0f 82 37 ff ff
	ff		 jb	 $LL4@DropOutWro

; 561  : 					// 091014 - mirchang : ˝Ă˝şĹŰ şÎÇĎ ąß»ý °ˇ´ÉĽşŔĚ ŔÖľî ş¸·ů
; 562  : 					//if( nItemId > 0 )	// Item Id°ˇ ŔÖŔ»˝Ă Á¤´äŔÚżˇ°Ô ÇŘ´ç ľĆŔĚĹŰ Áö±Ţ
; 563  : 					//	g_dpDBClient.SendPostPrizeItem( static_cast<CUser*>( pWorld->m_apObject[i] )->m_idPlayer, nItemId, nItemNum );
; 564  : 				}
; 565  : 			}
; 566  : 		}
; 567  : 		if( nCorrectUser <= LIMIT_USER_COUNT )

  00129	83 f9 32	 cmp	 ecx, 50			; 00000032H
  0012c	7f 0e		 jg	 SHORT $LN13@DropOutWro

; 546  : 	{
; 547  : 		for( DWORD i = 0; i < pWorld->m_dwObjNum; ++i )

  0012e	eb 02		 jmp	 SHORT $LN90@DropOutWro
$LN95@DropOutWro:
  00130	33 c9		 xor	 ecx, ecx
$LN90@DropOutWro:

; 568  : 			m_bSelectLog = TRUE;

  00132	c7 87 bc 00 00
	00 01 00 00 00	 mov	 DWORD PTR [edi+188], 1
$LN13@DropOutWro:

; 571  : 	if( nCorrectUser > 1 && m_vecQuizList.size() > 1 )

  0013c	83 f9 01	 cmp	 ecx, 1
  0013f	7e 61		 jle	 SHORT $LN94@DropOutWro
; File C:\Program Files\Microsoft Visual Studio\2022\Professional\VC\Tools\MSVC\14.44.35207\include\vector

; 1915 :         return static_cast<size_type>(_My_data._Mylast - _My_data._Myfirst);

  00141	8b 4f 18	 mov	 ecx, DWORD PTR [edi+24]
  00144	b8 67 66 66 66	 mov	 eax, 1717986919		; 66666667H
  00149	2b 4f 14	 sub	 ecx, DWORD PTR [edi+20]
  0014c	f7 e9		 imul	 ecx
  0014e	c1 fa 03	 sar	 edx, 3
  00151	8b c2		 mov	 eax, edx
  00153	c1 e8 1f	 shr	 eax, 31			; 0000001fH
  00156	03 c2		 add	 eax, edx
; File C:\IAGOS\server\v18\Source\Source\_Common\Quiz.cpp

; 571  : 	if( nCorrectUser > 1 && m_vecQuizList.size() > 1 )

  00158	83 f8 01	 cmp	 eax, 1
  0015b	76 45		 jbe	 SHORT $LN94@DropOutWro

; 572  : 	{
; 573  : 		SetNextTime( GetTickCount() + m_dwWaitTime );

  0015d	8b b7 c8 00 00
	00		 mov	 esi, DWORD PTR [edi+200]
  00163	ff 15 00 00 00
	00		 call	 DWORD PTR __imp__GetTickCount@0

; 575  : 		g_dpDBClient.SendQuizEventState( QE_QUESTION, g_uIdofMulti );

  00169	6a 00		 push	 0
  0016b	03 c6		 add	 eax, esi
  0016d	c7 47 20 04 00
	00 00		 mov	 DWORD PTR [edi+32], 4
  00174	6a 00		 push	 0
; File C:\IAGOS\server\v18\Source\Source\_Common\Quiz.h

; 96   : 	void	SetNextTime( DWORD dwNextTime )		{	m_dwNextTime = dwNextTime;	}

  00176	89 87 dc 00 00
	00		 mov	 DWORD PTR [edi+220], eax
; File C:\IAGOS\server\v18\Source\Source\_Common\Quiz.cpp

; 575  : 		g_dpDBClient.SendQuizEventState( QE_QUESTION, g_uIdofMulti );

  0017c	b9 00 00 00 00	 mov	 ecx, OFFSET ?g_dpDBClient@@3VCDPDatabaseClient@@A ; g_dpDBClient
  00181	ff 35 00 00 00
	00		 push	 DWORD PTR ?g_uIdofMulti@@3KA ; g_uIdofMulti
  00187	6a 04		 push	 4
  00189	e8 00 00 00 00	 call	 ?SendQuizEventState@CDPDatabaseClient@@QAEXHHHH@Z ; CDPDatabaseClient::SendQuizEventState

; 606  : }

  0018e	8b 4d f4	 mov	 ecx, DWORD PTR __$EHRec$[ebp]
  00191	64 89 0d 00 00
	00 00		 mov	 DWORD PTR fs:0, ecx
  00198	59		 pop	 ecx
  00199	5f		 pop	 edi
  0019a	5e		 pop	 esi
  0019b	5b		 pop	 ebx
  0019c	8b e5		 mov	 esp, ebp
  0019e	5d		 pop	 ebp
  0019f	c2 10 00	 ret	 16			; 00000010H
$LN94@DropOutWro:
; File C:\Program Files\Microsoft Visual Studio\2022\Professional\VC\Tools\MSVC\14.44.35207\atlmfc\include\afxstr.h

; 56   : 		return( AfxGetStringManager() );

  001a2	8b 75 f0	 mov	 esi, DWORD PTR _nCorrectUser$1$[ebp]
$LN14@DropOutWro:
  001a5	e8 00 00 00 00	 call	 ?AfxGetStringManager@@YGPAUIAtlStringMgr@ATL@@XZ ; AfxGetStringManager
  001aa	8b c8		 mov	 ecx, eax
; File C:\Program Files\Microsoft Visual Studio\2022\Professional\VC\Tools\MSVC\14.44.35207\atlmfc\include\atlsimpstr.h

; 209  : 		ATLENSURE( pStringMgr != NULL );

  001ac	85 c9		 test	 ecx, ecx
  001ae	0f 84 30 01 00
	00		 je	 $LN101@DropOutWro

; 210  : 		CStringData* pData = pStringMgr->GetNilString();

  001b4	8b 01		 mov	 eax, DWORD PTR [ecx]
  001b6	ff 50 0c	 call	 DWORD PTR [eax+12]

; 211  : 		Attach( pData );

  001b9	83 c0 10	 add	 eax, 16			; 00000010H
  001bc	89 45 08	 mov	 DWORD PTR _strMessage$2[ebp], eax
; File C:\IAGOS\server\v18\Source\Source\_Common\Project.h

; 1427 : 	VERIFY_RANGE( (int)( dwIndex ), 0, m_colorText.GetSize(), "GetText range_error", "error" );

  001bf	a1 ac 02 00 00	 mov	 eax, DWORD PTR ?prj@@3VCProject@@A+684
; File C:\IAGOS\server\v18\Source\Source\_Common\Quiz.cpp

; 580  : 		CString strMessage;

  001c4	c7 45 fc 00 00
	00 00		 mov	 DWORD PTR __$EHRec$[ebp+8], 0
; File C:\IAGOS\server\v18\Source\Source\_Common\Project.h

; 1427 : 	VERIFY_RANGE( (int)( dwIndex ), 0, m_colorText.GetSize(), "GetText range_error", "error" );

  001cb	3d 74 10 00 00	 cmp	 eax, 4212		; 00001074H
  001d0	7f 21		 jg	 SHORT $LN58@DropOutWro

; 579  : 	LPCTSTR szErr = Error( _T( "%s min:%d, max:%d, index:%d" ), szMsg, nMin, nMax, nIndex ); 

  001d2	68 74 10 00 00	 push	 4212			; 00001074H
  001d7	50		 push	 eax
  001d8	6a 00		 push	 0
  001da	68 00 00 00 00	 push	 OFFSET ??_C@_0BE@OHDBLHOM@GetText?5range_error@
  001df	68 00 00 00 00	 push	 OFFSET ??_C@_0BM@HMFGHCP@?$CFs?5min?3?$CFd?0?5max?3?$CFd?0?5index?3?$CFd@
  001e4	e8 00 00 00 00	 call	 ?Error@@YAPBDPBDZZ	; Error
  001e9	83 c4 14	 add	 esp, 20			; 00000014H

; 1427 : 	VERIFY_RANGE( (int)( dwIndex ), 0, m_colorText.GetSize(), "GetText range_error", "error" );

  001ec	b8 00 00 00 00	 mov	 eax, OFFSET ??_C@_05KKCIMGE@error@
  001f1	eb 1b		 jmp	 SHORT $LN57@DropOutWro
$LN58@DropOutWro:
; File C:\IAGOS\server\v18\Source\Source\_Common\data.h

; 270  : 	if( dwIndex >= (DWORD)m_nMaxIndex )

  001f3	76 14		 jbe	 SHORT $LN92@DropOutWro

; 271  : 		return NULL;
; 272  : 	return (T*) m_apOffset[ dwIndex ];

  001f5	a1 9c 02 00 00	 mov	 eax, DWORD PTR ?prj@@3VCProject@@A+668
  001fa	8b 80 d0 41 00
	00		 mov	 eax, DWORD PTR [eax+16848]
; File C:\IAGOS\server\v18\Source\Source\_Common\Project.h

; 1428 : 	if( m_colorText.GetAt( dwIndex ) == NULL )

  00200	85 c0		 test	 eax, eax
  00202	74 05		 je	 SHORT $LN92@DropOutWro

; 1430 : 	return m_colorText.GetAt( dwIndex )->lpszData; 

  00204	8b 40 04	 mov	 eax, DWORD PTR [eax+4]
  00207	eb 05		 jmp	 SHORT $LN57@DropOutWro
$LN92@DropOutWro:

; 1429 : 		return "";

  00209	b8 00 00 00 00	 mov	 eax, OFFSET ??_C@_00CNPNBAHC@@
$LN57@DropOutWro:
; File C:\IAGOS\server\v18\Source\Source\_Common\Quiz.cpp

; 581  : 		strMessage.Format( prj.GetText( TID_GAME_QUIZ_WINNERCOUNT ), nCorrectUser );

  0020e	56		 push	 esi
  0020f	50		 push	 eax
  00210	8d 45 08	 lea	 eax, DWORD PTR _strMessage$2[ebp]
  00213	50		 push	 eax
  00214	e8 00 00 00 00	 call	 ?Format@?$CStringT@DV?$StrTraitMFC@DV?$ChTraitsCRT@D@ATL@@@@@ATL@@QAAXPBDZZ ; ATL::CStringT<char,StrTraitMFC<char,ATL::ChTraitsCRT<char> > >::Format

; 582  : 		if( pWorld )

  00219	8b 75 08	 mov	 esi, DWORD PTR _strMessage$2[ebp]
  0021c	83 c4 0c	 add	 esp, 12			; 0000000cH
  0021f	85 db		 test	 ebx, ebx
  00221	0f 84 83 00 00
	00		 je	 $LN16@DropOutWro

; 583  : 		{
; 584  : 			for( DWORD i = 0; i < pWorld->m_dwObjNum; ++i )

  00227	33 c0		 xor	 eax, eax
  00229	89 45 ec	 mov	 DWORD PTR _i$1$[ebp], eax
  0022c	39 43 40	 cmp	 DWORD PTR [ebx+64], eax
  0022f	76 5e		 jbe	 SHORT $LN6@DropOutWro
  00231	83 c3 44	 add	 ebx, 68			; 00000044H
$LL7@DropOutWro:

; 585  : 			{
; 586  : 				if( IsInQuizEventPlayer( pWorld, nDefaultLayer, i ) )

  00234	50		 push	 eax
  00235	6a 00		 push	 0
  00237	ff 75 e8	 push	 DWORD PTR _pWorld$1$[ebp]
  0023a	8b cf		 mov	 ecx, edi
  0023c	e8 00 00 00 00	 call	 ?IsInQuizEventPlayer@CQuiz@@AAEHPAVCWorld@@HH@Z ; CQuiz::IsInQuizEventPlayer
  00241	85 c0		 test	 eax, eax
  00243	74 38		 je	 SHORT $LN5@DropOutWro

; 587  : 				{
; 588  : 					static_cast<CUser*>( pWorld->m_apObject[i] )->AddQuizEventMessage( strMessage, QE_CLOSE_WAIT );

  00245	8b 0b		 mov	 ecx, DWORD PTR [ebx]
  00247	6a 02		 push	 2
  00249	56		 push	 esi
  0024a	e8 00 00 00 00	 call	 ?AddQuizEventMessage@CUser@@QAEXPBDH@Z ; CUser::AddQuizEventMessage

; 589  : 					// ˝şĹ©¸łĆ®żˇ Á¤ÇŘÁř ľĆŔĚĹŰ Áö±Ţ
; 590  : 					if( PtInCorrectZoneRect( static_cast<CUser*>( pWorld->m_apObject[i] ), nCorrect ) )

  0024f	ff 75 0c	 push	 DWORD PTR _nCorrect$[ebp]
  00252	8b cf		 mov	 ecx, edi
  00254	ff 33		 push	 DWORD PTR [ebx]
  00256	e8 00 00 00 00	 call	 ?PtInCorrectZoneRect@CQuiz@@QAEHPAVCUser@@H@Z ; CQuiz::PtInCorrectZoneRect
  0025b	85 c0		 test	 eax, eax
  0025d	74 1e		 je	 SHORT $LN5@DropOutWro

; 591  : 						g_dpDBClient.SendPostPrizeItem( static_cast<CUser*>( pWorld->m_apObject[i] )->m_idPlayer, m_dwPrizeItemId, m_nPrizeItemNum );

  0025f	ff b7 e4 00 00
	00		 push	 DWORD PTR [edi+228]
  00265	8b 03		 mov	 eax, DWORD PTR [ebx]
  00267	b9 00 00 00 00	 mov	 ecx, OFFSET ?g_dpDBClient@@3VCDPDatabaseClient@@A ; g_dpDBClient
  0026c	ff b7 e0 00 00
	00		 push	 DWORD PTR [edi+224]
  00272	ff b0 34 02 00
	00		 push	 DWORD PTR [eax+564]
  00278	e8 00 00 00 00	 call	 ?SendPostPrizeItem@CDPDatabaseClient@@QAEXKKH@Z ; CDPDatabaseClient::SendPostPrizeItem
$LN5@DropOutWro:

; 583  : 		{
; 584  : 			for( DWORD i = 0; i < pWorld->m_dwObjNum; ++i )

  0027d	8b 45 ec	 mov	 eax, DWORD PTR _i$1$[ebp]
  00280	83 c3 04	 add	 ebx, 4
  00283	8b 4d e8	 mov	 ecx, DWORD PTR _pWorld$1$[ebp]
  00286	40		 inc	 eax
  00287	89 45 ec	 mov	 DWORD PTR _i$1$[ebp], eax
  0028a	3b 41 40	 cmp	 eax, DWORD PTR [ecx+64]
  0028d	72 a5		 jb	 SHORT $LL7@DropOutWro
$LN6@DropOutWro:

; 592  : 				}
; 593  : 			}
; 594  : 			g_dpDBClient.SendQuizEventState( QE_WINNER, g_uIdofMulti, nCorrectUser, m_nQuizCount );

  0028f	ff b7 c4 00 00
	00		 push	 DWORD PTR [edi+196]
  00295	b9 00 00 00 00	 mov	 ecx, OFFSET ?g_dpDBClient@@3VCDPDatabaseClient@@A ; g_dpDBClient
  0029a	ff 75 f0	 push	 DWORD PTR _nCorrectUser$1$[ebp]
  0029d	ff 35 00 00 00
	00		 push	 DWORD PTR ?g_uIdofMulti@@3KA ; g_uIdofMulti
  002a3	6a 07		 push	 7
  002a5	e8 00 00 00 00	 call	 ?SendQuizEventState@CDPDatabaseClient@@QAEXHHHH@Z ; CDPDatabaseClient::SendQuizEventState
$LN16@DropOutWro:

; 595  : 		}
; 596  : 		SetState( QE_CLOSE_WAIT );

  002aa	c7 47 20 02 00
	00 00		 mov	 DWORD PTR [edi+32], 2
; File C:\Program Files\Microsoft Visual Studio\2022\Professional\VC\Tools\MSVC\14.44.35207\atlmfc\include\atlsimpstr.h

; 804  : 		return( reinterpret_cast< CStringData* >( m_pszData )-1 );

  002b1	83 c6 f0	 add	 esi, -16		; fffffff0H
; File C:\IAGOS\server\v18\Source\Source\_Common\Quiz.cpp

; 597  : 	}

  002b4	c7 45 fc ff ff
	ff ff		 mov	 DWORD PTR __$EHRec$[ebp+8], -1
; File C:\Program Files\Microsoft Visual Studio\2022\Professional\VC\Tools\MSVC\14.44.35207\atlmfc\include\atlsimpstr.h

; 92   : 		if( _InterlockedDecrement( &nRefs ) <= 0 )

  002bb	83 c8 ff	 or	 eax, -1
  002be	f0 0f c1 46 0c	 lock	  xadd	 DWORD PTR [esi+12], eax
  002c3	48		 dec	 eax
  002c4	85 c0		 test	 eax, eax
  002c6	7f 08		 jg	 SHORT $LN80@DropOutWro

; 93   : 		{
; 94   : 			pStringMgr->Free( this );

  002c8	8b 0e		 mov	 ecx, DWORD PTR [esi]
  002ca	56		 push	 esi
  002cb	8b 01		 mov	 eax, DWORD PTR [ecx]
  002cd	ff 50 04	 call	 DWORD PTR [eax+4]
$LN80@DropOutWro:
; File C:\IAGOS\server\v18\Source\Source\_Common\Quiz.cpp

; 606  : }

  002d0	8b 4d f4	 mov	 ecx, DWORD PTR __$EHRec$[ebp]
  002d3	64 89 0d 00 00
	00 00		 mov	 DWORD PTR fs:0, ecx
  002da	59		 pop	 ecx
  002db	5f		 pop	 edi
  002dc	5e		 pop	 esi
  002dd	5b		 pop	 ebx
  002de	8b e5		 mov	 esp, ebp
  002e0	5d		 pop	 ebp
  002e1	c2 10 00	 ret	 16			; 00000010H
$LN101@DropOutWro:
; File C:\Program Files\Microsoft Visual Studio\2022\Professional\VC\Tools\MSVC\14.44.35207\atlmfc\include\atlsimpstr.h

; 209  : 		ATLENSURE( pStringMgr != NULL );

  002e4	68 05 40 00 80	 push	 -2147467259		; 80004005H
  002e9	e8 00 00 00 00	 call	 ?AtlThrowImpl@ATL@@YGXJ@Z ; ATL::AtlThrowImpl
$LN99@DropOutWro:
  002ee	cc		 int	 3
_TEXT	ENDS
;	COMDAT text$x
text$x	SEGMENT
__unwindfunclet$?DropOutWrongUser@CQuiz@@QAEXHHHH@Z$0:
  00000	8d 4d 08	 lea	 ecx, DWORD PTR _strMessage$2[ebp]
  00003	e9 00 00 00 00	 jmp	 ??1?$CStringT@DV?$StrTraitMFC@DV?$ChTraitsCRT@D@ATL@@@@@ATL@@QAE@XZ ; ATL::CStringT<char,StrTraitMFC<char,ATL::ChTraitsCRT<char> > >::~CStringT<char,StrTraitMFC<char,ATL::ChTraitsCRT<char> > >
  00008	cc		 int	 3
  00009	cc		 int	 3
  0000a	cc		 int	 3
  0000b	cc		 int	 3
  0000c	cc		 int	 3
__ehhandler$?DropOutWrongUser@CQuiz@@QAEXHHHH@Z:
  0000d	90		 npad	 1
  0000e	90		 npad	 1
  0000f	8b 54 24 08	 mov	 edx, DWORD PTR [esp+8]
  00013	8d 42 0c	 lea	 eax, DWORD PTR [edx+12]
  00016	8b 4a e4	 mov	 ecx, DWORD PTR [edx-28]
  00019	33 c8		 xor	 ecx, eax
  0001b	e8 00 00 00 00	 call	 @__security_check_cookie@4
  00020	b8 00 00 00 00	 mov	 eax, OFFSET __ehfuncinfo$?DropOutWrongUser@CQuiz@@QAEXHHHH@Z
  00025	e9 00 00 00 00	 jmp	 ___CxxFrameHandler3
text$x	ENDS
?DropOutWrongUser@CQuiz@@QAEXHHHH@Z ENDP		; CQuiz::DropOutWrongUser
; Function compile flags: /Ogtp
; File C:\IAGOS\server\v18\Source\Source\_Common\Quiz.cpp
; File C:\IAGOS\server\v18\Source\Source\_Common\xUtil.h
; File C:\IAGOS\server\v18\Source\Source\_Common\Quiz.cpp
; File C:\IAGOS\server\v18\Source\Source\_Common\xUtil.h
; File C:\IAGOS\server\v18\Source\Source\_Common\Quiz.cpp
; File C:\IAGOS\server\v18\Source\Source\DX_SDK\d3dx9math.inl
; File C:\IAGOS\server\v18\Source\Source\_Common\Quiz.cpp
;	COMDAT ?GetTeleportPos@CQuiz@@QAE?AUD3DXVECTOR3@@H@Z
_TEXT	SEGMENT
___$ReturnUdt$ = 8					; size = 4
_nZone$ = 12						; size = 4
?GetTeleportPos@CQuiz@@QAE?AUD3DXVECTOR3@@H@Z PROC	; CQuiz::GetTeleportPos, COMDAT
; _this$ = ecx

; 262  : {

  00000	55		 push	 ebp
  00001	8b ec		 mov	 ebp, esp

; 263  : 	switch( nZone )

  00003	8b 45 0c	 mov	 eax, DWORD PTR _nZone$[ebp]
  00006	8b d1		 mov	 edx, ecx
  00008	83 c0 9c	 add	 eax, -100		; ffffff9cH
  0000b	83 f8 05	 cmp	 eax, 5
  0000e	0f 87 b5 00 00
	00		 ja	 $LN12@GetTelepor
  00014	ff 24 85 00 00
	00 00		 jmp	 DWORD PTR $LN24@GetTelepor[eax*4]
$LN4@GetTelepor:

; 264  : 	{
; 265  : 	case ZONE_QUIZ:
; 266  : 		{
; 267  : 			int nRand = 0;
; 268  : 			if( GetType() == TYPE_OX )

  0001b	69 0d 00 00 00
	00 6d 4e c6 41	 imul	 ecx, DWORD PTR ?g_next@@3KA, 1103515245 ; g_next
  00025	81 c1 39 30 00
	00		 add	 ecx, 12345		; 00003039H
  0002b	83 3a 01	 cmp	 DWORD PTR [edx], 1
  0002e	8b c1		 mov	 eax, ecx
  00030	75 05		 jne	 SHORT $LN5@GetTelepor
; File C:\IAGOS\server\v18\Source\Source\_Common\xUtil.h

; 16   : 	g_next = g_next * 1103515245 + 12345;// + nRandomSeed[ i++ ];

  00032	83 e0 01	 and	 eax, 1
; File C:\IAGOS\server\v18\Source\Source\_Common\Quiz.cpp

; 269  : 				nRand = xRandom(2);

  00035	eb 03		 jmp	 SHORT $LN6@GetTelepor
$LN5@GetTelepor:
; File C:\IAGOS\server\v18\Source\Source\_Common\xUtil.h

; 16   : 	g_next = g_next * 1103515245 + 12345;// + nRandomSeed[ i++ ];

  00037	83 e0 03	 and	 eax, 3
$LN6@GetTelepor:
; File C:\IAGOS\server\v18\Source\Source\_Common\Quiz.cpp

; 272  : 			return m_sQuizData.aExamplePos[nRand];

  0003a	89 0d 00 00 00
	00		 mov	 DWORD PTR ?g_next@@3KA, ecx ; g_next
  00040	8d 0c 40	 lea	 ecx, DWORD PTR [eax+eax*2]
  00043	8b 45 08	 mov	 eax, DWORD PTR ___$ReturnUdt$[ebp]
  00046	f3 0f 7e 44 8a
	3c		 movq	 xmm0, QWORD PTR [edx+ecx*4+60]
  0004c	8b 4c 8a 44	 mov	 ecx, DWORD PTR [edx+ecx*4+68]
  00050	66 0f d6 00	 movq	 QWORD PTR [eax], xmm0
  00054	89 48 08	 mov	 DWORD PTR [eax+8], ecx

; 293  : }

  00057	5d		 pop	 ebp
  00058	c2 08 00	 ret	 8
$LN7@GetTelepor:

; 273  : 		}
; 274  : 		
; 275  : 	case ZONE_1:
; 276  : 		return m_sQuizData.aExamplePos[0];

  0005b	8b 45 08	 mov	 eax, DWORD PTR ___$ReturnUdt$[ebp]
  0005e	f3 0f 7e 42 3c	 movq	 xmm0, QWORD PTR [edx+60]
  00063	8b 4a 44	 mov	 ecx, DWORD PTR [edx+68]
  00066	66 0f d6 00	 movq	 QWORD PTR [eax], xmm0
  0006a	89 48 08	 mov	 DWORD PTR [eax+8], ecx

; 293  : }

  0006d	5d		 pop	 ebp
  0006e	c2 08 00	 ret	 8
$LN8@GetTelepor:

; 277  : 		
; 278  : 	case ZONE_2:
; 279  : 		return m_sQuizData.aExamplePos[1];

  00071	8b 45 08	 mov	 eax, DWORD PTR ___$ReturnUdt$[ebp]
  00074	f3 0f 7e 42 48	 movq	 xmm0, QWORD PTR [edx+72]
  00079	8b 4a 50	 mov	 ecx, DWORD PTR [edx+80]
  0007c	66 0f d6 00	 movq	 QWORD PTR [eax], xmm0
  00080	89 48 08	 mov	 DWORD PTR [eax+8], ecx

; 293  : }

  00083	5d		 pop	 ebp
  00084	c2 08 00	 ret	 8
$LN9@GetTelepor:

; 280  : 		
; 281  : 	case ZONE_3:
; 282  : 		return m_sQuizData.aExamplePos[2];

  00087	8b 45 08	 mov	 eax, DWORD PTR ___$ReturnUdt$[ebp]
  0008a	f3 0f 7e 42 54	 movq	 xmm0, QWORD PTR [edx+84]
  0008f	8b 4a 5c	 mov	 ecx, DWORD PTR [edx+92]
  00092	66 0f d6 00	 movq	 QWORD PTR [eax], xmm0
  00096	89 48 08	 mov	 DWORD PTR [eax+8], ecx

; 293  : }

  00099	5d		 pop	 ebp
  0009a	c2 08 00	 ret	 8
$LN10@GetTelepor:

; 283  : 		
; 284  : 	case ZONE_4:
; 285  : 		return m_sQuizData.aExamplePos[3];

  0009d	8b 45 08	 mov	 eax, DWORD PTR ___$ReturnUdt$[ebp]
  000a0	f3 0f 7e 42 60	 movq	 xmm0, QWORD PTR [edx+96]
  000a5	8b 4a 68	 mov	 ecx, DWORD PTR [edx+104]
  000a8	66 0f d6 00	 movq	 QWORD PTR [eax], xmm0
  000ac	89 48 08	 mov	 DWORD PTR [eax+8], ecx

; 293  : }

  000af	5d		 pop	 ebp
  000b0	c2 08 00	 ret	 8
$LN11@GetTelepor:

; 286  : 		
; 287  : 	case ZONE_WATCHING:
; 288  : 		return m_sQuizData.vWatchingZonePos;

  000b3	8b 45 08	 mov	 eax, DWORD PTR ___$ReturnUdt$[ebp]
  000b6	f3 0f 7e 42 30	 movq	 xmm0, QWORD PTR [edx+48]
  000bb	8b 4a 38	 mov	 ecx, DWORD PTR [edx+56]
  000be	66 0f d6 00	 movq	 QWORD PTR [eax], xmm0
  000c2	89 48 08	 mov	 DWORD PTR [eax+8], ecx

; 293  : }

  000c5	5d		 pop	 ebp
  000c6	c2 08 00	 ret	 8
$LN12@GetTelepor:
; File C:\IAGOS\server\v18\Source\Source\DX_SDK\d3dx9math.inl

; 300  :     x = fx;

  000c9	8b 45 08	 mov	 eax, DWORD PTR ___$ReturnUdt$[ebp]
  000cc	c7 00 00 00 00
	00		 mov	 DWORD PTR [eax], 0

; 301  :     y = fy;

  000d2	c7 40 04 00 00
	00 00		 mov	 DWORD PTR [eax+4], 0

; 302  :     z = fz;

  000d9	c7 40 08 00 00
	00 00		 mov	 DWORD PTR [eax+8], 0
; File C:\IAGOS\server\v18\Source\Source\_Common\Quiz.cpp

; 293  : }

  000e0	5d		 pop	 ebp
  000e1	c2 08 00	 ret	 8
$LN24@GetTelepor:
  000e4	00 00 00 00	 DD	 $LN4@GetTelepor
  000e8	00 00 00 00	 DD	 $LN7@GetTelepor
  000ec	00 00 00 00	 DD	 $LN8@GetTelepor
  000f0	00 00 00 00	 DD	 $LN9@GetTelepor
  000f4	00 00 00 00	 DD	 $LN10@GetTelepor
  000f8	00 00 00 00	 DD	 $LN11@GetTelepor
?GetTeleportPos@CQuiz@@QAE?AUD3DXVECTOR3@@H@Z ENDP	; CQuiz::GetTeleportPos
_TEXT	ENDS
; Function compile flags: /Ogtp
; File C:\IAGOS\server\v18\Source\Source\_Common\Quiz.cpp
; File C:\IAGOS\server\v18\Source\Source\_Common\Obj.h
; File C:\IAGOS\server\v18\Source\Source\_Common\Quiz.cpp
; File C:\IAGOS\server\v18\Source\Source\DX_SDK\d3dx9math.inl
; File C:\IAGOS\server\v18\Source\Source\_Common\xUtil.h
; File C:\IAGOS\server\v18\Source\Source\DX_SDK\d3dx9math.inl
; File C:\IAGOS\server\v18\Source\Source\_Common\Quiz.cpp
; File C:\IAGOS\server\v18\Source\Source\_Common\xUtil.h
; File C:\IAGOS\server\v18\Source\Source\DX_SDK\d3dx9math.inl
; File C:\IAGOS\server\v18\Source\Source\_Common\Quiz.cpp
; File C:\IAGOS\server\v18\Source\Source\_Common\xUtil.h
; File C:\IAGOS\server\v18\Source\Source\_Common\Quiz.cpp
; File C:\IAGOS\server\v18\Source\Source\_Common\xUtil.h
; File C:\IAGOS\server\v18\Source\Source\_Common\Quiz.cpp
; File C:\IAGOS\server\v18\Source\Source\_Common\xUtil.h
; File C:\IAGOS\server\v18\Source\Source\_Common\Quiz.cpp
; File C:\IAGOS\server\v18\Source\Source\DX_SDK\d3dx9math.inl
; File C:\IAGOS\server\v18\Source\Source\_Common\Quiz.cpp
; File C:\IAGOS\server\v18\Source\Source\DX_SDK\d3dx9math.inl
; File C:\IAGOS\server\v18\Source\Source\_Common\Quiz.cpp
; File C:\IAGOS\server\v18\Source\Source\DX_SDK\d3dx9math.inl
; File C:\IAGOS\server\v18\Source\Source\_Common\Quiz.cpp
;	COMDAT ?TeleportToQuizEvent@CQuiz@@QAEHPAVCUser@@H@Z
_TEXT	SEGMENT
_vPos$ = -16						; size = 12
__$ArrayPad$ = -4					; size = 4
_pUser$ = 8						; size = 4
_nZone$ = 12						; size = 4
?TeleportToQuizEvent@CQuiz@@QAEHPAVCUser@@H@Z PROC	; CQuiz::TeleportToQuizEvent, COMDAT
; _this$ = ecx

; 227  : {

  00000	55		 push	 ebp
  00001	8b ec		 mov	 ebp, esp
  00003	83 ec 10	 sub	 esp, 16			; 00000010H
  00006	a1 00 00 00 00	 mov	 eax, DWORD PTR ___security_cookie
  0000b	33 c5		 xor	 eax, ebp
  0000d	89 45 fc	 mov	 DWORD PTR __$ArrayPad$[ebp], eax
  00010	53		 push	 ebx
  00011	56		 push	 esi
  00012	57		 push	 edi
  00013	8b 7d 08	 mov	 edi, DWORD PTR _pUser$[ebp]
  00016	8b f1		 mov	 esi, ecx
; File C:\IAGOS\server\v18\Source\Source\_Common\Obj.h

; 327  : 	return pObj && ( pObj->IsDelete() == FALSE ); 

  00018	85 ff		 test	 edi, edi
  0001a	0f 84 2f 01 00
	00		 je	 $LN36@TeleportTo

; 180  : 	BOOL			IsDelete()	{ return (m_dwFlags & OBJ_FLAG_DELETE);  }

  00020	f6 47 04 01	 test	 BYTE PTR [edi+4], 1

; 327  : 	return pObj && ( pObj->IsDelete() == FALSE ); 

  00024	0f 85 25 01 00
	00		 jne	 $LN36@TeleportTo
; File C:\IAGOS\server\v18\Source\Source\_Common\Quiz.cpp

; 231  : 	if( ZONE_1 <= nZone && nZone <= ZONE_4 )

  0002a	8b 5d 0c	 mov	 ebx, DWORD PTR _nZone$[ebp]
  0002d	8d 43 9b	 lea	 eax, DWORD PTR [ebx-101]
  00030	83 f8 03	 cmp	 eax, 3
  00033	77 19		 ja	 SHORT $LN35@TeleportTo

; 232  : 	{
; 233  : 		if( GetState() == QE_DROP_OUT || GetZoneType( (CMover*)pUser ) == ZONE_WATCHING )

  00035	83 7e 20 06	 cmp	 DWORD PTR [esi+32], 6
  00039	0f 84 10 01 00
	00		 je	 $LN36@TeleportTo
  0003f	57		 push	 edi
  00040	e8 00 00 00 00	 call	 ?GetZoneType@CQuiz@@QAEHPAVCMover@@@Z ; CQuiz::GetZoneType
  00045	83 f8 69	 cmp	 eax, 105		; 00000069H
  00048	0f 84 01 01 00
	00		 je	 $LN36@TeleportTo
$LN35@TeleportTo:

; 234  : 			return TID_GAME_QUIZ_DO_NOT_TELEPORT;
; 235  : 	}
; 236  : 
; 237  : 	if( nZone == ZONE_QUIZ )

  0004e	83 fb 64	 cmp	 ebx, 100		; 00000064H
  00051	0f 85 d2 00 00
	00		 jne	 $LN7@TeleportTo

; 238  : 	{
; 239  : 		if( GetState() != QE_OPEN && GetState() != QE_WATCHINGZONE_OPEN )

  00057	8b 46 20	 mov	 eax, DWORD PTR [esi+32]
  0005a	83 f8 01	 cmp	 eax, 1
  0005d	74 09		 je	 SHORT $LN8@TeleportTo
  0005f	83 f8 03	 cmp	 eax, 3
  00062	0f 85 e7 00 00
	00		 jne	 $LN36@TeleportTo
$LN8@TeleportTo:

; 246  : 		return 0;
; 247  : 	}
; 248  : 
; 249  : 	D3DXVECTOR3 vPos = GetTeleportPos( nZone );

  00068	53		 push	 ebx
  00069	8d 45 f0	 lea	 eax, DWORD PTR _vPos$[ebp]
  0006c	8b ce		 mov	 ecx, esi
  0006e	50		 push	 eax
  0006f	e8 00 00 00 00	 call	 ?GetTeleportPos@CQuiz@@QAE?AUD3DXVECTOR3@@H@Z ; CQuiz::GetTeleportPos
; File C:\IAGOS\server\v18\Source\Source\DX_SDK\d3dx9math.inl

; 410  :     return x == v.x && y == v.y && z == v.z;

  00074	f3 0f 10 65 f0	 movss	 xmm4, DWORD PTR _vPos$[ebp]
  00079	0f 57 c9	 xorps	 xmm1, xmm1
  0007c	f3 0f 10 5d f8	 movss	 xmm3, DWORD PTR _vPos$[ebp+8]
  00081	f3 0f 10 55 f4	 movss	 xmm2, DWORD PTR _vPos$[ebp+4]
  00086	0f 2e e1	 ucomiss xmm4, xmm1
  00089	9f		 lahf
  0008a	f6 c4 44	 test	 ah, 68			; 00000044H
  0008d	7a 16		 jp	 SHORT $LN9@TeleportTo
  0008f	0f 2e d1	 ucomiss xmm2, xmm1
  00092	9f		 lahf
  00093	f6 c4 44	 test	 ah, 68			; 00000044H
  00096	7a 0d		 jp	 SHORT $LN9@TeleportTo
  00098	0f 2e d9	 ucomiss xmm3, xmm1
  0009b	9f		 lahf
  0009c	f6 c4 44	 test	 ah, 68			; 00000044H
  0009f	0f 8b aa 00 00
	00		 jnp	 $LN36@TeleportTo
$LN9@TeleportTo:
; File C:\IAGOS\server\v18\Source\Source\_Common\xUtil.h

; 16   : 	g_next = g_next * 1103515245 + 12345;// + nRandomSeed[ i++ ];

  000a5	69 0d 00 00 00
	00 6d 4e c6 41	 imul	 ecx, DWORD PTR ?g_next@@3KA, 1103515245 ; g_next
; File C:\IAGOS\server\v18\Source\Source\DX_SDK\d3dx9math.inl

; 325  :     y += v.y;

  000af	f3 0f 58 d1	 addss	 xmm2, xmm1
; File C:\IAGOS\server\v18\Source\Source\_Common\Quiz.cpp

; 257  : 	pUser->REPLACE( g_uIdofMulti, WI_WORLD_QUIZ, vPos, REPLACE_NORMAL, nDefaultLayer );

  000b3	6a 00		 push	 0
  000b5	6a 00		 push	 0
; File C:\IAGOS\server\v18\Source\Source\_Common\xUtil.h

; 16   : 	g_next = g_next * 1103515245 + 12345;// + nRandomSeed[ i++ ];

  000b7	81 c1 39 30 00
	00		 add	 ecx, 12345		; 00003039H
; File C:\IAGOS\server\v18\Source\Source\DX_SDK\d3dx9math.inl

; 325  :     y += v.y;

  000bd	f3 0f 11 55 f4	 movss	 DWORD PTR _vPos$[ebp+4], xmm2
; File C:\IAGOS\server\v18\Source\Source\_Common\Quiz.cpp

; 253  : 	int nRandx = xRandom(4) - 2;

  000c2	69 c1 6d 4e c6
	41		 imul	 eax, ecx, 1103515245
; File C:\IAGOS\server\v18\Source\Source\_Common\xUtil.h

; 16   : 	g_next = g_next * 1103515245 + 12345;// + nRandomSeed[ i++ ];

  000c8	83 e1 03	 and	 ecx, 3
; File C:\IAGOS\server\v18\Source\Source\_Common\Quiz.cpp

; 253  : 	int nRandx = xRandom(4) - 2;

  000cb	83 e9 02	 sub	 ecx, 2
  000ce	66 0f 6e c1	 movd	 xmm0, ecx
; File C:\IAGOS\server\v18\Source\Source\_Common\xUtil.h

; 16   : 	g_next = g_next * 1103515245 + 12345;// + nRandomSeed[ i++ ];

  000d2	05 39 30 00 00	 add	 eax, 12345		; 00003039H
; File C:\IAGOS\server\v18\Source\Source\_Common\Quiz.cpp

; 255  : 	vPos += D3DXVECTOR3( (float)( nRandx ), (float)( 0 ), (float)( nRandz ) );

  000d7	0f 5b c0	 cvtdq2ps xmm0, xmm0
; File C:\IAGOS\server\v18\Source\Source\_Common\xUtil.h

; 16   : 	g_next = g_next * 1103515245 + 12345;// + nRandomSeed[ i++ ];

  000da	a3 00 00 00 00	 mov	 DWORD PTR ?g_next@@3KA, eax ; g_next
; File C:\IAGOS\server\v18\Source\Source\_Common\Quiz.cpp

; 257  : 	pUser->REPLACE( g_uIdofMulti, WI_WORLD_QUIZ, vPos, REPLACE_NORMAL, nDefaultLayer );

  000df	8b cf		 mov	 ecx, edi
; File C:\IAGOS\server\v18\Source\Source\DX_SDK\d3dx9math.inl

; 301  :     y = fy;

  000e1	83 e0 03	 and	 eax, 3
; File C:\IAGOS\server\v18\Source\Source\_Common\Quiz.cpp

; 254  : 	int nRandz = xRandom(4) - 2;

  000e4	83 e8 02	 sub	 eax, 2
; File C:\IAGOS\server\v18\Source\Source\DX_SDK\d3dx9math.inl

; 324  :     x += v.x;

  000e7	f3 0f 58 c4	 addss	 xmm0, xmm4
  000eb	f3 0f 11 45 f0	 movss	 DWORD PTR _vPos$[ebp], xmm0
  000f0	66 0f 6e c0	 movd	 xmm0, eax
; File C:\IAGOS\server\v18\Source\Source\_Common\Quiz.cpp

; 257  : 	pUser->REPLACE( g_uIdofMulti, WI_WORLD_QUIZ, vPos, REPLACE_NORMAL, nDefaultLayer );

  000f4	8d 45 f0	 lea	 eax, DWORD PTR _vPos$[ebp]
  000f7	0f 5b c0	 cvtdq2ps xmm0, xmm0
  000fa	50		 push	 eax
  000fb	68 d3 00 00 00	 push	 211			; 000000d3H
  00100	ff 35 00 00 00
	00		 push	 DWORD PTR ?g_uIdofMulti@@3KA ; g_uIdofMulti
; File C:\IAGOS\server\v18\Source\Source\DX_SDK\d3dx9math.inl

; 326  :     z += v.z;

  00106	f3 0f 58 c3	 addss	 xmm0, xmm3
  0010a	f3 0f 11 45 f8	 movss	 DWORD PTR _vPos$[ebp+8], xmm0
; File C:\IAGOS\server\v18\Source\Source\_Common\Quiz.cpp

; 257  : 	pUser->REPLACE( g_uIdofMulti, WI_WORLD_QUIZ, vPos, REPLACE_NORMAL, nDefaultLayer );

  0010f	e8 00 00 00 00	 call	 ?Replace@CMover@@QAEHKKAAUD3DXVECTOR3@@W4REPLACE_TYPE@@H@Z ; CMover::Replace
  00114	5f		 pop	 edi

; 258  : 	return 0;
; 259  : }

  00115	5e		 pop	 esi
  00116	33 c0		 xor	 eax, eax
  00118	5b		 pop	 ebx
  00119	8b 4d fc	 mov	 ecx, DWORD PTR __$ArrayPad$[ebp]
  0011c	33 cd		 xor	 ecx, ebp
  0011e	e8 00 00 00 00	 call	 @__security_check_cookie@4
  00123	8b e5		 mov	 esp, ebp
  00125	5d		 pop	 ebp
  00126	c2 08 00	 ret	 8
$LN7@TeleportTo:

; 240  : 			return TID_GAME_QUIZ_DO_NOT_TELEPORT;
; 241  : 	}
; 242  : 	
; 243  : 	if( nZone == ZONE_EXIT )

  00129	83 fb 6a	 cmp	 ebx, 106		; 0000006aH
  0012c	0f 85 36 ff ff
	ff		 jne	 $LN8@TeleportTo

; 244  : 	{
; 245  : 		GoOut( pUser );

  00132	57		 push	 edi
  00133	8b ce		 mov	 ecx, esi
  00135	e8 00 00 00 00	 call	 ?GoOut@CQuiz@@QAEXPAVCUser@@@Z ; CQuiz::GoOut
  0013a	5f		 pop	 edi

; 258  : 	return 0;
; 259  : }

  0013b	5e		 pop	 esi
  0013c	33 c0		 xor	 eax, eax
  0013e	5b		 pop	 ebx
  0013f	8b 4d fc	 mov	 ecx, DWORD PTR __$ArrayPad$[ebp]
  00142	33 cd		 xor	 ecx, ebp
  00144	e8 00 00 00 00	 call	 @__security_check_cookie@4
  00149	8b e5		 mov	 esp, ebp
  0014b	5d		 pop	 ebp
  0014c	c2 08 00	 ret	 8
$LN36@TeleportTo:
  0014f	8b 4d fc	 mov	 ecx, DWORD PTR __$ArrayPad$[ebp]
  00152	b8 86 10 00 00	 mov	 eax, 4230		; 00001086H
  00157	5f		 pop	 edi
  00158	5e		 pop	 esi
  00159	33 cd		 xor	 ecx, ebp
  0015b	5b		 pop	 ebx
  0015c	e8 00 00 00 00	 call	 @__security_check_cookie@4
  00161	8b e5		 mov	 esp, ebp
  00163	5d		 pop	 ebp
  00164	c2 08 00	 ret	 8
?TeleportToQuizEvent@CQuiz@@QAEHPAVCUser@@H@Z ENDP	; CQuiz::TeleportToQuizEvent
_TEXT	ENDS
; Function compile flags: /Ogtp
; File C:\IAGOS\server\v18\Source\Source\_Common\Quiz.cpp
; File C:\IAGOS\server\v18\Source\Source\_Common\Obj.h
; File C:\IAGOS\server\v18\Source\Source\_Common\Quiz.cpp
; File C:\IAGOS\server\v18\Source\Source\_Common\Obj.h
; File C:\IAGOS\server\v18\Source\Source\_Common\Quiz.cpp
; File C:\IAGOS\server\v18\Source\Source\_Common\Mover.h
; File C:\IAGOS\server\v18\Source\Source\_Common\Quiz.cpp
; File C:\IAGOS\server\v18\Source\Source\_Common\Mover.h
; File C:\IAGOS\server\v18\Source\Source\_Common\Quiz.cpp
;	COMDAT ?EntranceQuizEvent@CQuiz@@QAEHPAVCUser@@@Z
_TEXT	SEGMENT
_pUser$ = 8						; size = 4
?EntranceQuizEvent@CQuiz@@QAEHPAVCUser@@@Z PROC		; CQuiz::EntranceQuizEvent, COMDAT
; _this$ = ecx

; 191  : {

  00000	55		 push	 ebp
  00001	8b ec		 mov	 ebp, esp
  00003	56		 push	 esi
; File C:\IAGOS\server\v18\Source\Source\_Common\Obj.h

; 327  : 	return pObj && ( pObj->IsDelete() == FALSE ); 

  00004	8b 75 08	 mov	 esi, DWORD PTR _pUser$[ebp]
; File C:\IAGOS\server\v18\Source\Source\_Common\Quiz.cpp

; 191  : {

  00007	57		 push	 edi
  00008	8b f9		 mov	 edi, ecx
; File C:\IAGOS\server\v18\Source\Source\_Common\Obj.h

; 327  : 	return pObj && ( pObj->IsDelete() == FALSE ); 

  0000a	85 f6		 test	 esi, esi
  0000c	0f 84 a8 00 00
	00		 je	 $LN12@EntranceQu

; 180  : 	BOOL			IsDelete()	{ return (m_dwFlags & OBJ_FLAG_DELETE);  }

  00012	f6 46 04 01	 test	 BYTE PTR [esi+4], 1

; 327  : 	return pObj && ( pObj->IsDelete() == FALSE ); 

  00016	0f 85 9e 00 00
	00		 jne	 $LN12@EntranceQu
; File C:\IAGOS\server\v18\Source\Source\_Common\Quiz.cpp

; 195  : 	if( pUser->IsFly() )

  0001c	8b 86 38 02 00
	00		 mov	 eax, DWORD PTR [esi+568]
  00022	f6 40 08 08	 test	 BYTE PTR [eax+8], 8
  00026	0f 85 8e 00 00
	00		 jne	 $LN12@EntranceQu

; 196  : 		return 0;
; 197  : 	
; 198  : 	if( m_nState == QE_CLOSE )

  0002c	8b 47 20	 mov	 eax, DWORD PTR [edi+32]
  0002f	85 c0		 test	 eax, eax
  00031	75 0b		 jne	 SHORT $LN4@EntranceQu

; 199  : 		return TID_GAME_QUIZ_NOT_OPEN;

  00033	5f		 pop	 edi
  00034	b8 6d 10 00 00	 mov	 eax, 4205		; 0000106dH

; 224  : }

  00039	5e		 pop	 esi
  0003a	5d		 pop	 ebp
  0003b	c2 04 00	 ret	 4
$LN4@EntranceQu:

; 200  : 	
; 201  : 	pUser->AddQuizEventState( GetType(), GetState() );

  0003e	50		 push	 eax
  0003f	ff 37		 push	 DWORD PTR [edi]
  00041	8b ce		 mov	 ecx, esi
  00043	e8 00 00 00 00	 call	 ?AddQuizEventState@CUser@@QAEXHH@Z ; CUser::AddQuizEventState
; File C:\IAGOS\server\v18\Source\Source\_Common\Mover.h

; 807  : 	BOOL	HasActivatedSystemPet( void )	{	return m_dwPetId != NULL_ID;	}

  00048	83 be 98 10 00
	00 ff		 cmp	 DWORD PTR [esi+4248], -1
; File C:\IAGOS\server\v18\Source\Source\_Common\Quiz.cpp

; 202  : 	if( pUser->HasActivatedSystemPet() )

  0004f	74 07		 je	 SHORT $LN5@EntranceQu

; 203  : 		pUser->PetRelease();

  00051	8b ce		 mov	 ecx, esi
  00053	e8 00 00 00 00	 call	 ?PetRelease@CMover@@QAEXXZ ; CMover::PetRelease
$LN5@EntranceQu:
; File C:\IAGOS\server\v18\Source\Source\_Common\Mover.h

; 806  : 	BOOL	HasActivatedEatPet( void )		{	return m_oiEatPet != NULL_ID;	}

  00058	83 be 74 06 00
	00 ff		 cmp	 DWORD PTR [esi+1652], -1
; File C:\IAGOS\server\v18\Source\Source\_Common\Quiz.cpp

; 204  : 	if( pUser->HasActivatedEatPet() )

  0005f	74 07		 je	 SHORT $LN6@EntranceQu

; 205  : 		pUser->InactivateEatPet();

  00061	8b ce		 mov	 ecx, esi
  00063	e8 00 00 00 00	 call	 ?InactivateEatPet@CMover@@QAEXXZ ; CMover::InactivateEatPet
$LN6@EntranceQu:

; 206  : 	if( pUser->HasPet() )

  00068	8b ce		 mov	 ecx, esi
  0006a	e8 00 00 00 00	 call	 ?HasPet@CMover@@QAEHXZ	; CMover::HasPet
  0006f	85 c0		 test	 eax, eax
  00071	74 12		 je	 SHORT $LN7@EntranceQu

; 207  : 		pUser->RemovePet();

  00073	8b ce		 mov	 ecx, esi
  00075	e8 00 00 00 00	 call	 ?RemovePet@CMover@@QAEXXZ ; CMover::RemovePet
  0007a	5f		 pop	 edi

; 220  : 			g_dpDBClient.SendQuizEventEntrance( pUser->m_idPlayer, g_uIdofMulti );
; 221  : 		return 0;
; 222  : 	}
; 223  : 	return TID_GAME_QUIZ_DO_NOT_TELEPORT;

  0007b	b8 86 10 00 00	 mov	 eax, 4230		; 00001086H

; 224  : }

  00080	5e		 pop	 esi
  00081	5d		 pop	 ebp
  00082	c2 04 00	 ret	 4
$LN7@EntranceQu:

; 208  : 	
; 209  : 	else if( m_nState == QE_OPEN || m_nState == QE_WATCHINGZONE_OPEN )

  00085	8b 47 20	 mov	 eax, DWORD PTR [edi+32]
  00088	83 f8 01	 cmp	 eax, 1
  0008b	74 09		 je	 SHORT $LN11@EntranceQu
  0008d	83 f8 03	 cmp	 eax, 3
  00090	74 04		 je	 SHORT $LN11@EntranceQu

; 215  : 	}
; 216  : 	else
; 217  : 	{
; 218  : 		// ´ë±â Á¸ ŔÔŔĺ
; 219  : 		if( !TeleportToQuizEvent( pUser, ZONE_WATCHING ) )

  00092	6a 69		 push	 105			; 00000069H
  00094	eb 02		 jmp	 SHORT $LN43@EntranceQu
$LN11@EntranceQu:

; 210  : 	{
; 211  : 		// ÄűÁî Á¸ ŔÔŔĺ
; 212  : 		if( !TeleportToQuizEvent( pUser, ZONE_QUIZ ) )

  00096	6a 64		 push	 100			; 00000064H
$LN43@EntranceQu:

; 213  : 			g_dpDBClient.SendQuizEventEntrance( pUser->m_idPlayer, g_uIdofMulti );
; 214  : 		return 0;

  00098	56		 push	 esi
  00099	8b cf		 mov	 ecx, edi
  0009b	e8 00 00 00 00	 call	 ?TeleportToQuizEvent@CQuiz@@QAEHPAVCUser@@H@Z ; CQuiz::TeleportToQuizEvent
  000a0	85 c0		 test	 eax, eax
  000a2	75 16		 jne	 SHORT $LN12@EntranceQu
  000a4	ff 35 00 00 00
	00		 push	 DWORD PTR ?g_uIdofMulti@@3KA ; g_uIdofMulti
  000aa	b9 00 00 00 00	 mov	 ecx, OFFSET ?g_dpDBClient@@3VCDPDatabaseClient@@A ; g_dpDBClient
  000af	ff b6 34 02 00
	00		 push	 DWORD PTR [esi+564]
  000b5	e8 00 00 00 00	 call	 ?SendQuizEventEntrance@CDPDatabaseClient@@QAEXKH@Z ; CDPDatabaseClient::SendQuizEventEntrance
$LN12@EntranceQu:
  000ba	5f		 pop	 edi
  000bb	33 c0		 xor	 eax, eax

; 224  : }

  000bd	5e		 pop	 esi
  000be	5d		 pop	 ebp
  000bf	c2 04 00	 ret	 4
?EntranceQuizEvent@CQuiz@@QAEHPAVCUser@@@Z ENDP		; CQuiz::EntranceQuizEvent
_TEXT	ENDS
; Function compile flags: /Ogtp
; File C:\IAGOS\server\v18\Source\Source\_Common\Quiz.cpp
;	COMDAT ?NoticeMessage@CQuiz@@QAEXXZ
_TEXT	SEGMENT
?NoticeMessage@CQuiz@@QAEXXZ PROC			; CQuiz::NoticeMessage, COMDAT
; _this$ = ecx

; 171  : 	if( GetState() == QE_OPEN )

  00000	8b 41 20	 mov	 eax, DWORD PTR [ecx+32]
  00003	56		 push	 esi
  00004	83 f8 01	 cmp	 eax, 1
  00007	75 50		 jne	 SHORT $LN2@NoticeMess

; 172  : 	{
; 173  : 		DWORD dwRemainTime = GetNextTime() - GetTickCount();

  00009	8b b1 dc 00 00
	00		 mov	 esi, DWORD PTR [ecx+220]
  0000f	ff 15 00 00 00
	00		 call	 DWORD PTR __imp__GetTickCount@0
  00015	2b f0		 sub	 esi, eax

; 174  : 		if( static_cast<int>( dwRemainTime ) <= 0 )

  00017	85 f6		 test	 esi, esi
  00019	0f 8e 89 00 00
	00		 jle	 $LN5@NoticeMess

; 175  : 			return;
; 176  : 		g_DPCoreClient.SendQuizSystemMessage( TID_GAME_QUIZ_PRE_NOTICE1, FALSE, g_uIdofMulti, ( dwRemainTime / MIN( 1 ) + 1 ) );

  0001f	b8 73 b2 e7 45	 mov	 eax, 1172812403		; 45e7b273H
  00024	b9 00 00 00 00	 mov	 ecx, OFFSET ?g_DPCoreClient@@3VCDPCoreClient@@A ; g_DPCoreClient
  00029	f7 e6		 mul	 esi
  0002b	c1 ea 0e	 shr	 edx, 14			; 0000000eH
  0002e	42		 inc	 edx
  0002f	52		 push	 edx
  00030	ff 35 00 00 00
	00		 push	 DWORD PTR ?g_uIdofMulti@@3KA ; g_uIdofMulti
  00036	6a 00		 push	 0
  00038	68 69 10 00 00	 push	 4201			; 00001069H
  0003d	e8 00 00 00 00	 call	 ?SendQuizSystemMessage@CDPCoreClient@@QAEXHHHH@Z ; CDPCoreClient::SendQuizSystemMessage

; 177  : 		g_DPCoreClient.SendQuizSystemMessage( TID_GAME_QUIZ_PRE_NOTICE2 );

  00042	6a 00		 push	 0
  00044	6a 00		 push	 0
  00046	6a 00		 push	 0
  00048	68 6a 10 00 00	 push	 4202			; 0000106aH

; 187  : 	}
; 188  : }

  0004d	b9 00 00 00 00	 mov	 ecx, OFFSET ?g_DPCoreClient@@3VCDPCoreClient@@A ; g_DPCoreClient
  00052	e8 00 00 00 00	 call	 ?SendQuizSystemMessage@CDPCoreClient@@QAEXHHHH@Z ; CDPCoreClient::SendQuizSystemMessage
  00057	5e		 pop	 esi
  00058	c3		 ret	 0
$LN2@NoticeMess:

; 178  : 	}
; 179  : 
; 180  : 	else if( GetState() == QE_WATCHINGZONE_OPEN )

  00059	83 f8 03	 cmp	 eax, 3
  0005c	75 4a		 jne	 SHORT $LN5@NoticeMess

; 181  : 	{
; 182  : 		DWORD dwRemainTime = GetNextTime() - GetTickCount();

  0005e	8b b1 dc 00 00
	00		 mov	 esi, DWORD PTR [ecx+220]
  00064	ff 15 00 00 00
	00		 call	 DWORD PTR __imp__GetTickCount@0
  0006a	2b f0		 sub	 esi, eax

; 183  : 		if( static_cast<int>( dwRemainTime ) <= 0 )

  0006c	85 f6		 test	 esi, esi
  0006e	7e 38		 jle	 SHORT $LN5@NoticeMess

; 184  : 			return;
; 185  : 		g_DPCoreClient.SendQuizSystemMessage( TID_GAME_QUIZ_CUR_NOTICE1, FALSE, g_uIdofMulti, ( dwRemainTime / MIN( 1 ) + 1 ) );

  00070	b8 73 b2 e7 45	 mov	 eax, 1172812403		; 45e7b273H
  00075	b9 00 00 00 00	 mov	 ecx, OFFSET ?g_DPCoreClient@@3VCDPCoreClient@@A ; g_DPCoreClient
  0007a	f7 e6		 mul	 esi
  0007c	c1 ea 0e	 shr	 edx, 14			; 0000000eH
  0007f	42		 inc	 edx
  00080	52		 push	 edx
  00081	ff 35 00 00 00
	00		 push	 DWORD PTR ?g_uIdofMulti@@3KA ; g_uIdofMulti
  00087	6a 00		 push	 0
  00089	68 6b 10 00 00	 push	 4203			; 0000106bH
  0008e	e8 00 00 00 00	 call	 ?SendQuizSystemMessage@CDPCoreClient@@QAEXHHHH@Z ; CDPCoreClient::SendQuizSystemMessage

; 186  : 		g_DPCoreClient.SendQuizSystemMessage( TID_GAME_QUIZ_CUR_NOTICE2 );

  00093	6a 00		 push	 0
  00095	6a 00		 push	 0
  00097	6a 00		 push	 0
  00099	68 6c 10 00 00	 push	 4204			; 0000106cH

; 187  : 	}
; 188  : }

  0009e	b9 00 00 00 00	 mov	 ecx, OFFSET ?g_DPCoreClient@@3VCDPCoreClient@@A ; g_DPCoreClient
  000a3	e8 00 00 00 00	 call	 ?SendQuizSystemMessage@CDPCoreClient@@QAEXHHHH@Z ; CDPCoreClient::SendQuizSystemMessage
$LN5@NoticeMess:
  000a8	5e		 pop	 esi
  000a9	c3		 ret	 0
?NoticeMessage@CQuiz@@QAEXXZ ENDP			; CQuiz::NoticeMessage
_TEXT	ENDS
; Function compile flags: /Ogtp
; File C:\IAGOS\server\v18\Source\Source\_Common\Quiz.cpp
; File C:\IAGOS\server\v18\Source\Source\_Common\Obj.h
; File C:\IAGOS\server\v18\Source\Source\_Common\Quiz.cpp
;	COMDAT ?RemoveNPC@CQuiz@@QAEXXZ
_TEXT	SEGMENT
?RemoveNPC@CQuiz@@QAEXXZ PROC				; CQuiz::RemoveNPC, COMDAT
; _this$ = ecx

; 160  : {

  00000	56		 push	 esi

; 161  : 	CMover* pMover = prj.GetMover( m_sNPC.idNpc );

  00001	ff b1 e8 00 00
	00		 push	 DWORD PTR [ecx+232]
  00007	b9 00 00 00 00	 mov	 ecx, OFFSET ?prj@@3VCProject@@A ; prj
  0000c	e8 00 00 00 00	 call	 ?GetMover@CProject@@QAEPAVCMover@@K@Z ; CProject::GetMover
  00011	8b f0		 mov	 esi, eax
; File C:\IAGOS\server\v18\Source\Source\_Common\Obj.h

; 327  : 	return pObj && ( pObj->IsDelete() == FALSE ); 

  00013	85 f6		 test	 esi, esi
  00015	74 3a		 je	 SHORT $LN2@RemoveNPC

; 180  : 	BOOL			IsDelete()	{ return (m_dwFlags & OBJ_FLAG_DELETE);  }

  00017	f6 46 04 01	 test	 BYTE PTR [esi+4], 1

; 327  : 	return pObj && ( pObj->IsDelete() == FALSE ); 

  0001b	75 34		 jne	 SHORT $LN2@RemoveNPC
; File C:\IAGOS\server\v18\Source\Source\_Common\Quiz.cpp

; 164  : 		g_UserMng.AddCreateSfxObj( pMover, XI_SKILL_MER_ONE_SPECIALHIT02 );

  0001d	6a 00		 push	 0
  0001f	83 ec 0c	 sub	 esp, 12			; 0000000cH
  00022	b9 00 00 00 00	 mov	 ecx, OFFSET ?g_UserMng@@3VCUserMng@@A ; g_UserMng
  00027	c7 44 24 08 00
	00 00 00	 mov	 DWORD PTR [esp+8], 0
  0002f	c7 44 24 04 00
	00 00 00	 mov	 DWORD PTR [esp+4], 0
  00037	c7 04 24 00 00
	00 00		 mov	 DWORD PTR [esp], 0
  0003e	68 e5 00 00 00	 push	 229			; 000000e5H
  00043	56		 push	 esi
  00044	e8 00 00 00 00	 call	 ?AddCreateSfxObj@CUserMng@@QAEXPAVCCtrl@@KMMMH@Z ; CUserMng::AddCreateSfxObj

; 165  : 		pMover->Delete();

  00049	8b ce		 mov	 ecx, esi
  0004b	5e		 pop	 esi
  0004c	e9 00 00 00 00	 jmp	 ?Delete@CObj@@QAEXXZ	; CObj::Delete
$LN2@RemoveNPC:
  00051	5e		 pop	 esi

; 166  : 	}
; 167  : }

  00052	c3		 ret	 0
?RemoveNPC@CQuiz@@QAEXXZ ENDP				; CQuiz::RemoveNPC
_TEXT	ENDS
; Function compile flags: /Ogtp
; File C:\IAGOS\server\v18\Source\Source\_Common\Quiz.cpp
; File C:\Program Files\Microsoft Visual Studio\2022\Professional\VC\Tools\MSVC\14.44.35207\include\xstring
; File C:\IAGOS\server\v18\Source\Source\_Common\Quiz.cpp
; File C:\Program Files\Microsoft Visual Studio\2022\Professional\VC\Tools\MSVC\14.44.35207\include\xstring
; File C:\IAGOS\server\v18\Source\Source\_Common\Quiz.cpp
;	COMDAT ?SetNPC@CQuiz@@QAEXXZ
_TEXT	SEGMENT
?SetNPC@CQuiz@@QAEXXZ PROC				; CQuiz::SetNPC, COMDAT
; _this$ = ecx

; 139  : {

  00000	56		 push	 esi
  00001	57		 push	 edi
  00002	8b f9		 mov	 edi, ecx

; 140  : 	CMover* pMover	= (CMover*)CreateObj( D3DDEVICE, OT_MOVER, m_sNPC.dwNPCId );

  00004	6a 01		 push	 1
  00006	ff b7 ec 00 00
	00		 push	 DWORD PTR [edi+236]
  0000c	6a 05		 push	 5
  0000e	6a 00		 push	 0
  00010	e8 00 00 00 00	 call	 ?CreateObj@@YAPAVCObj@@PAUIDirect3DDevice9@@KKH@Z ; CreateObj
  00015	8b f0		 mov	 esi, eax
  00017	8d 8f f0 00 00
	00		 lea	 ecx, DWORD PTR [edi+240]
  0001d	83 c4 10	 add	 esp, 16			; 00000010H

; 141  : 	if( !pMover )

  00020	85 f6		 test	 esi, esi
  00022	75 1f		 jne	 SHORT $LN2@SetNPC
; File C:\Program Files\Microsoft Visual Studio\2022\Professional\VC\Tools\MSVC\14.44.35207\include\xstring

; 453  :         return _Myres > _Small_string_capacity;

  00024	83 79 14 0f	 cmp	 DWORD PTR [ecx+20], 15	; 0000000fH

; 445  :         if (_Large_mode_engaged()) {

  00028	76 02		 jbe	 SHORT $LN9@SetNPC

; 446  :             _Result = _Unfancy(_Bx._Ptr);

  0002a	8b 09		 mov	 ecx, DWORD PTR [ecx]
$LN9@SetNPC:
; File C:\IAGOS\server\v18\Source\Source\_Common\Quiz.cpp

; 143  : 		Error( "CQuiz::SetNPC() - pMover is NULL - %d, %s", m_sNPC.dwNPCId, m_sNPC.strCharKey.c_str() );

  0002c	51		 push	 ecx
  0002d	ff b7 ec 00 00
	00		 push	 DWORD PTR [edi+236]
  00033	68 00 00 00 00	 push	 OFFSET ??_C@_0CK@PGMODMCB@CQuiz?3?3SetNPC?$CI?$CJ?5?9?5pMover?5is?5NUL@
  00038	e8 00 00 00 00	 call	 ?Error@@YAPBDPBDZZ	; Error
  0003d	83 c4 0c	 add	 esp, 12			; 0000000cH
  00040	5f		 pop	 edi

; 157  : }

  00041	5e		 pop	 esi
  00042	c3		 ret	 0
$LN2@SetNPC:
; File C:\Program Files\Microsoft Visual Studio\2022\Professional\VC\Tools\MSVC\14.44.35207\include\xstring

; 453  :         return _Myres > _Small_string_capacity;

  00043	83 79 14 0f	 cmp	 DWORD PTR [ecx+20], 15	; 0000000fH

; 445  :         if (_Large_mode_engaged()) {

  00047	76 02		 jbe	 SHORT $LN19@SetNPC

; 446  :             _Result = _Unfancy(_Bx._Ptr);

  00049	8b 09		 mov	 ecx, DWORD PTR [ecx]
$LN19@SetNPC:
; File C:\IAGOS\server\v18\Source\Source\_Common\Quiz.cpp

; 146  : 	lstrcpy( pMover->m_szCharacterKey, m_sNPC.strCharKey.c_str() );

  0004b	51		 push	 ecx
  0004c	8d 86 44 06 00
	00		 lea	 eax, DWORD PTR [esi+1604]
  00052	50		 push	 eax
  00053	ff 15 00 00 00
	00		 call	 DWORD PTR __imp__lstrcpyA@8

; 147  : 	pMover->InitNPCProperty();

  00059	8b ce		 mov	 ecx, esi
  0005b	e8 00 00 00 00	 call	 ?InitNPCProperty@CMover@@QAEXXZ ; CMover::InitNPCProperty

; 148  : 	pMover->InitCharacter( pMover->GetCharacter() );

  00060	8b ce		 mov	 ecx, esi
  00062	e8 00 00 00 00	 call	 ?GetCharacter@CMover@@QAEPAUtagCHARACTER@@XZ ; CMover::GetCharacter
  00067	50		 push	 eax
  00068	8b ce		 mov	 ecx, esi
  0006a	e8 00 00 00 00	 call	 ?InitCharacter@CMover@@QAEXPAUtagCHARACTER@@@Z ; CMover::InitCharacter

; 149  : 	pMover->SetPos( m_sNPC.vPos );

  0006f	8d 87 08 01 00
	00		 lea	 eax, DWORD PTR [edi+264]
  00075	8b ce		 mov	 ecx, esi
  00077	50		 push	 eax
  00078	e8 00 00 00 00	 call	 ?SetPos@CObj@@QAEXABUD3DXVECTOR3@@@Z ; CObj::SetPos

; 150  : 	pMover->InitMotion( MTI_STAND );

  0007d	8b 06		 mov	 eax, DWORD PTR [esi]
  0007f	8b ce		 mov	 ecx, esi
  00081	6a 00		 push	 0
  00083	ff 50 08	 call	 DWORD PTR [eax+8]

; 151  : 	pMover->UpdateLocalMatrix();

  00086	8b ce		 mov	 ecx, esi
  00088	e8 00 00 00 00	 call	 ?UpdateLocalMatrix@CObj@@QAEXXZ ; CObj::UpdateLocalMatrix

; 152  : 	pMover->AddItToGlobalId();

  0008d	8b 06		 mov	 eax, DWORD PTR [esi]
  0008f	8b ce		 mov	 ecx, esi
  00091	ff 50 3c	 call	 DWORD PTR [eax+60]

; 153  : 	m_sNPC.idNpc = pMover->GetId();

  00094	8b 86 bc 01 00
	00		 mov	 eax, DWORD PTR [esi+444]

; 154  : 	CWorld* pWorld	= g_WorldMng.GetWorld( WI_WORLD_MADRIGAL );

  0009a	b9 00 00 00 00	 mov	 ecx, OFFSET ?g_WorldMng@@3VCWorldMng@@A ; g_WorldMng
  0009f	6a 01		 push	 1
  000a1	89 87 e8 00 00
	00		 mov	 DWORD PTR [edi+232], eax
  000a7	e8 00 00 00 00	 call	 ?GetWorld@CWorldMng@@QAEPAVCWorld@@K@Z ; CWorldMng::GetWorld

; 155  : 	if( pWorld )

  000ac	85 c0		 test	 eax, eax
  000ae	74 0c		 je	 SHORT $LN3@SetNPC

; 156  : 		pWorld->ADDOBJ( pMover, FALSE, nDefaultLayer );

  000b0	6a 00		 push	 0
  000b2	6a 00		 push	 0
  000b4	56		 push	 esi
  000b5	8b c8		 mov	 ecx, eax
  000b7	e8 00 00 00 00	 call	 ?AddObj@CWorld@@QAEHPAVCObj@@HH@Z ; CWorld::AddObj
$LN3@SetNPC:

; 157  : }

  000bc	5f		 pop	 edi
  000bd	5e		 pop	 esi
  000be	c3		 ret	 0
?SetNPC@CQuiz@@QAEXXZ ENDP				; CQuiz::SetNPC
_TEXT	ENDS
; Function compile flags: /Ogtp
; File C:\IAGOS\server\v18\Source\Source\_Common\Quiz.cpp
; File C:\Program Files\Microsoft Visual Studio\2022\Professional\VC\Tools\MSVC\14.44.35207\include\vector
; File C:\Program Files\Microsoft Visual Studio\2022\Professional\VC\Tools\MSVC\14.44.35207\include\xmemory
; File C:\Program Files\Microsoft Visual Studio\2022\Professional\VC\Tools\MSVC\14.44.35207\atlmfc\include\atlsimpstr.h
; File C:\Program Files\Microsoft Visual Studio\2022\Professional\VC\Tools\MSVC\14.44.35207\include\vector
; File C:\IAGOS\server\v18\Source\Source\_Common\Quiz.cpp
; File C:\Program Files\Microsoft Visual Studio\2022\Professional\VC\Tools\MSVC\14.44.35207\include\vector
; File C:\IAGOS\server\v18\Source\Source\_Common\Quiz.cpp
;	COMDAT ?MakeQuizList@CQuiz@@QAEXAAU_QUIZLIST@1@@Z
_TEXT	SEGMENT
$T1 = -4						; size = 4
_QL$ = 8						; size = 4
_this$ = 8						; size = 4
?MakeQuizList@CQuiz@@QAEXAAU_QUIZLIST@1@@Z PROC		; CQuiz::MakeQuizList, COMDAT
; _this$ = ecx

; 133  : {

  00000	55		 push	 ebp
  00001	8b ec		 mov	 ebp, esp
  00003	51		 push	 ecx

; 134  : 	if( IsRun() )

  00004	83 79 08 00	 cmp	 DWORD PTR [ecx+8], 0
  00008	74 60		 je	 SHORT $LN6@MakeQuizLi

; 135  : 		m_vecQuizList.push_back( QL );

  0000a	53		 push	 ebx
  0000b	8d 59 14	 lea	 ebx, DWORD PTR [ecx+20]
; File C:\Program Files\Microsoft Visual Studio\2022\Professional\VC\Tools\MSVC\14.44.35207\include\vector

; 844  :         if (_Mylast != _My_data._Myend) {

  0000e	8b 4b 04	 mov	 ecx, DWORD PTR [ebx+4]
  00011	89 4d fc	 mov	 DWORD PTR $T1[ebp], ecx
  00014	3b 4b 08	 cmp	 ecx, DWORD PTR [ebx+8]
  00017	74 45		 je	 SHORT $LN7@MakeQuizLi
  00019	56		 push	 esi
  0001a	57		 push	 edi
; File C:\Program Files\Microsoft Visual Studio\2022\Professional\VC\Tools\MSVC\14.44.35207\include\xmemory

; 732  :         ::new (const_cast<void*>(static_cast<const volatile void*>(_Ptr))) _Objty(_STD forward<_Types>(_Args)...);

  0001b	8b 7d 08	 mov	 edi, DWORD PTR _QL$[ebp]
  0001e	8d 71 04	 lea	 esi, DWORD PTR [ecx+4]
  00021	89 75 08	 mov	 DWORD PTR _this$[ebp], esi
  00024	8b 07		 mov	 eax, DWORD PTR [edi]
  00026	89 01		 mov	 DWORD PTR [ecx], eax
; File C:\Program Files\Microsoft Visual Studio\2022\Professional\VC\Tools\MSVC\14.44.35207\atlmfc\include\atlsimpstr.h

; 804  : 		return( reinterpret_cast< CStringData* >( m_pszData )-1 );

  00028	8b 47 04	 mov	 eax, DWORD PTR [edi+4]
  0002b	83 e8 10	 sub	 eax, 16			; 00000010H

; 217  : 		CStringData* pNewData = CloneData( pSrcData );

  0002e	50		 push	 eax
  0002f	e8 00 00 00 00	 call	 ?CloneData@?$CSimpleStringT@D$0A@@ATL@@CAPAUCStringData@2@PAU32@@Z ; ATL::CSimpleStringT<char,0>::CloneData
  00034	8b 4d fc	 mov	 ecx, DWORD PTR $T1[ebp]

; 218  : 		Attach( pNewData );

  00037	83 c0 10	 add	 eax, 16			; 00000010H
  0003a	89 06		 mov	 DWORD PTR [esi], eax
  0003c	83 c4 04	 add	 esp, 4
  0003f	8b 47 08	 mov	 eax, DWORD PTR [edi+8]
  00042	89 41 08	 mov	 DWORD PTR [ecx+8], eax
  00045	8b 47 0c	 mov	 eax, DWORD PTR [edi+12]
  00048	89 41 0c	 mov	 DWORD PTR [ecx+12], eax
  0004b	8b 47 10	 mov	 eax, DWORD PTR [edi+16]
; File C:\Program Files\Microsoft Visual Studio\2022\Professional\VC\Tools\MSVC\14.44.35207\include\vector

; 869  :         ++_Mylast;

  0004e	5f		 pop	 edi
  0004f	89 41 10	 mov	 DWORD PTR [ecx+16], eax
  00052	83 43 04 14	 add	 DWORD PTR [ebx+4], 20	; 00000014H
  00056	5e		 pop	 esi
  00057	5b		 pop	 ebx
; File C:\IAGOS\server\v18\Source\Source\_Common\Quiz.cpp

; 136  : }

  00058	8b e5		 mov	 esp, ebp
  0005a	5d		 pop	 ebp
  0005b	c2 04 00	 ret	 4
$LN7@MakeQuizLi:
; File C:\Program Files\Microsoft Visual Studio\2022\Professional\VC\Tools\MSVC\14.44.35207\include\vector

; 848  :         return *_Emplace_reallocate(_Mylast, _STD forward<_Valty>(_Val)...);

  0005e	ff 75 08	 push	 DWORD PTR _QL$[ebp]
  00061	51		 push	 ecx
  00062	8b cb		 mov	 ecx, ebx
  00064	e8 00 00 00 00	 call	 ??$_Emplace_reallocate@ABU_QUIZLIST@CQuiz@@@?$vector@U_QUIZLIST@CQuiz@@V?$allocator@U_QUIZLIST@CQuiz@@@std@@@std@@AAEPAU_QUIZLIST@CQuiz@@QAU23@ABU23@@Z ; std::vector<CQuiz::_QUIZLIST,std::allocator<CQuiz::_QUIZLIST> >::_Emplace_reallocate<CQuiz::_QUIZLIST const &>
  00069	5b		 pop	 ebx
$LN6@MakeQuizLi:
; File C:\IAGOS\server\v18\Source\Source\_Common\Quiz.cpp

; 136  : }

  0006a	8b e5		 mov	 esp, ebp
  0006c	5d		 pop	 ebp
  0006d	c2 04 00	 ret	 4
?MakeQuizList@CQuiz@@QAEXAAU_QUIZLIST@1@@Z ENDP		; CQuiz::MakeQuizList
_TEXT	ENDS
; Function compile flags: /Ogtp
; File C:\IAGOS\server\v18\Source\Source\_Common\Quiz.cpp
; File C:\IAGOS\server\v18\Source\Source\_Common\Quiz.h
; File C:\IAGOS\server\v18\Source\Source\_Common\Quiz.cpp
;	COMDAT ?OpenQuizEvent@CQuiz@@QAEXXZ
_TEXT	SEGMENT
?OpenQuizEvent@CQuiz@@QAEXXZ PROC			; CQuiz::OpenQuizEvent, COMDAT
; _this$ = ecx

; 110  : {

  00000	57		 push	 edi
  00001	8b f9		 mov	 edi, ecx

; 111  : 	if( m_nState != QE_CLOSE )

  00003	83 7f 20 00	 cmp	 DWORD PTR [edi+32], 0
  00007	75 70		 jne	 SHORT $LN6@OpenQuizEv

; 112  : 		return;
; 113  : 
; 114  : 	if( IsAutoMode() )

  00009	83 7f 04 00	 cmp	 DWORD PTR [edi+4], 0
  0000d	74 25		 je	 SHORT $LN3@OpenQuizEv

; 115  : 	{
; 116  : 		if( m_nChannel == g_uIdofMulti )

  0000f	8b 87 c0 00 00
	00		 mov	 eax, DWORD PTR [edi+192]
  00015	3b 05 00 00 00
	00		 cmp	 eax, DWORD PTR ?g_uIdofMulti@@3KA ; g_uIdofMulti
  0001b	75 0e		 jne	 SHORT $LN10@OpenQuizEv

; 117  : 			m_bRun = TRUE;

  0001d	c7 47 08 01 00
	00 00		 mov	 DWORD PTR [edi+8], 1
  00024	b8 01 00 00 00	 mov	 eax, 1
  00029	eb 03		 jmp	 SHORT $LN5@OpenQuizEv
$LN10@OpenQuizEv:
  0002b	8b 47 08	 mov	 eax, DWORD PTR [edi+8]
$LN5@OpenQuizEv:

; 121  : 
; 122  : 	if( m_bRun )

  0002e	85 c0		 test	 eax, eax
  00030	74 47		 je	 SHORT $LN6@OpenQuizEv
  00032	eb 07		 jmp	 SHORT $LN11@OpenQuizEv
$LN3@OpenQuizEv:

; 118  : 	}
; 119  : 	else
; 120  : 		m_bRun = TRUE;

  00034	c7 47 08 01 00
	00 00		 mov	 DWORD PTR [edi+8], 1
$LN11@OpenQuizEv:
  0003b	56		 push	 esi

; 123  : 	{
; 124  : 		InitQuizData( GetType() );

  0003c	ff 37		 push	 DWORD PTR [edi]
  0003e	e8 00 00 00 00	 call	 ?InitQuizData@CQuiz@@QAEXH@Z ; CQuiz::InitQuizData

; 125  : 		SetNPC();

  00043	8b cf		 mov	 ecx, edi
  00045	e8 00 00 00 00	 call	 ?SetNPC@CQuiz@@QAEXXZ	; CQuiz::SetNPC

; 126  : 		SetNextTime( GetTickCount() + m_dwEntranceTime );

  0004a	8b 77 0c	 mov	 esi, DWORD PTR [edi+12]
  0004d	ff 15 00 00 00
	00		 call	 DWORD PTR __imp__GetTickCount@0

; 128  : 		g_dpDBClient.SendQuizEventState( QE_OPEN, g_uIdofMulti );

  00053	6a 00		 push	 0
  00055	03 c6		 add	 eax, esi
  00057	c7 47 20 01 00
	00 00		 mov	 DWORD PTR [edi+32], 1
  0005e	6a 00		 push	 0
; File C:\IAGOS\server\v18\Source\Source\_Common\Quiz.h

; 96   : 	void	SetNextTime( DWORD dwNextTime )		{	m_dwNextTime = dwNextTime;	}

  00060	89 87 dc 00 00
	00		 mov	 DWORD PTR [edi+220], eax
; File C:\IAGOS\server\v18\Source\Source\_Common\Quiz.cpp

; 128  : 		g_dpDBClient.SendQuizEventState( QE_OPEN, g_uIdofMulti );

  00066	b9 00 00 00 00	 mov	 ecx, OFFSET ?g_dpDBClient@@3VCDPDatabaseClient@@A ; g_dpDBClient
  0006b	ff 35 00 00 00
	00		 push	 DWORD PTR ?g_uIdofMulti@@3KA ; g_uIdofMulti
  00071	6a 01		 push	 1
  00073	e8 00 00 00 00	 call	 ?SendQuizEventState@CDPDatabaseClient@@QAEXHHHH@Z ; CDPDatabaseClient::SendQuizEventState
  00078	5e		 pop	 esi
$LN6@OpenQuizEv:

; 129  : 	}
; 130  : }

  00079	5f		 pop	 edi
  0007a	c3		 ret	 0
?OpenQuizEvent@CQuiz@@QAEXXZ ENDP			; CQuiz::OpenQuizEvent
_TEXT	ENDS
; Function compile flags: /Ogtp
; File C:\IAGOS\server\v18\Source\Source\_Common\Quiz.cpp
; File C:\Program Files\Microsoft Visual Studio\2022\Professional\VC\Tools\MSVC\14.44.35207\include\vector
; File C:\IAGOS\server\v18\Source\Source\_Common\Quiz.cpp
; File C:\Program Files\Microsoft Visual Studio\2022\Professional\VC\Tools\MSVC\14.44.35207\include\vector
; File C:\IAGOS\server\v18\Source\Source\_Common\Quiz.cpp
; File C:\IAGOS\server\v18\Source\Source\_Common\Project.h
; File C:\IAGOS\server\v18\Source\Source\_Common\data.h
; File C:\IAGOS\server\v18\Source\Source\_Common\Project.h
; File C:\IAGOS\server\v18\Source\Source\_Common\Quiz.cpp
; File C:\IAGOS\server\v18\Source\Source\_Common\Quiz.h
; File C:\IAGOS\server\v18\Source\Source\_Common\Quiz.cpp
; File C:\IAGOS\server\v18\Source\Source\_Common\Project.h
; File C:\IAGOS\server\v18\Source\Source\_Common\data.h
; File C:\IAGOS\server\v18\Source\Source\_Common\Project.h
; File C:\IAGOS\server\v18\Source\Source\_Common\Quiz.cpp
; File C:\IAGOS\server\v18\Source\Source\_Common\Quiz.h
; File C:\IAGOS\server\v18\Source\Source\_Common\Quiz.cpp
; File C:\Program Files\Microsoft Visual Studio\2022\Professional\VC\Tools\MSVC\14.44.35207\atlmfc\include\atlsimpstr.h
; File C:\IAGOS\server\v18\Source\Source\_Common\Quiz.cpp
; File C:\Program Files\Microsoft Visual Studio\2022\Professional\VC\Tools\MSVC\14.44.35207\atlmfc\include\atlsimpstr.h
; File C:\IAGOS\server\v18\Source\Source\_Common\Quiz.cpp
; File C:\Program Files\Microsoft Visual Studio\2022\Professional\VC\Tools\MSVC\14.44.35207\atlmfc\include\atlsimpstr.h
; File C:\IAGOS\server\v18\Source\Source\_Common\Quiz.cpp
; File C:\Program Files\Microsoft Visual Studio\2022\Professional\VC\Tools\MSVC\14.44.35207\include\vector
; File C:\Program Files\Microsoft Visual Studio\2022\Professional\VC\Tools\MSVC\14.44.35207\include\xutility
; File C:\Program Files\Microsoft Visual Studio\2022\Professional\VC\Tools\MSVC\14.44.35207\include\vector
; File C:\Program Files\Microsoft Visual Studio\2022\Professional\VC\Tools\MSVC\14.44.35207\include\xutility
; File C:\IAGOS\server\v18\Source\Source\_Common\Quiz.cpp
; File C:\Program Files\Microsoft Visual Studio\2022\Professional\VC\Tools\MSVC\14.44.35207\atlmfc\include\atlsimpstr.h
; File C:\Program Files\Microsoft Visual Studio\2022\Professional\VC\Tools\MSVC\14.44.35207\include\xutility
; File C:\Program Files\Microsoft Visual Studio\2022\Professional\VC\Tools\MSVC\14.44.35207\atlmfc\include\atlsimpstr.h
; File C:\Program Files\Microsoft Visual Studio\2022\Professional\VC\Tools\MSVC\14.44.35207\include\vector
; File C:\IAGOS\server\v18\Source\Source\_Common\Quiz.cpp
; File C:\Program Files\Microsoft Visual Studio\2022\Professional\VC\Tools\MSVC\14.44.35207\include\vector
; File C:\IAGOS\server\v18\Source\Source\_Common\Quiz.cpp
; File C:\IAGOS\server\v18\Source\Source\_Common\Project.h
; File C:\IAGOS\server\v18\Source\Source\_Common\data.h
; File C:\IAGOS\server\v18\Source\Source\_Common\Project.h
; File C:\IAGOS\server\v18\Source\Source\_Common\Quiz.cpp
; File C:\IAGOS\server\v18\Source\Source\_Common\Project.h
; File C:\IAGOS\server\v18\Source\Source\_Common\data.h
; File C:\IAGOS\server\v18\Source\Source\_Common\Project.h
; File C:\IAGOS\server\v18\Source\Source\_Common\Quiz.cpp
; File C:\IAGOS\server\v18\Source\Source\_Common\Quiz.h
; File C:\IAGOS\server\v18\Source\Source\_Common\Quiz.cpp
; File C:\IAGOS\server\v18\Source\Source\_Common\Quiz.h
; File C:\IAGOS\server\v18\Source\Source\_Common\Quiz.cpp
; File C:\IAGOS\server\v18\Source\Source\_Common\Project.h
; File C:\IAGOS\server\v18\Source\Source\_Common\data.h
; File C:\IAGOS\server\v18\Source\Source\_Common\Project.h
; File C:\IAGOS\server\v18\Source\Source\_Common\Quiz.cpp
; File C:\IAGOS\server\v18\Source\Source\_Common\Quiz.h
; File C:\IAGOS\server\v18\Source\Source\_Common\Quiz.cpp
;	COMDAT ?Process@CQuiz@@QAEXXZ
_TEXT	SEGMENT
_vPos$2 = -48						; size = 12
_pWorld$1$ = -36					; size = 4
_pWorld$1$ = -36					; size = 4
_pWorld$1$ = -36					; size = 4
_pNewData$1$ = -36					; size = 4
_pWorld$1$ = -32					; size = 4
_pWorld$1$ = -32					; size = 4
_i$1$ = -32						; size = 4
tv1772 = -32						; size = 4
_str_Message$3 = -28					; size = 4
__Last$1$ = -28						; size = 4
_strMessage$4 = -24					; size = 4
_this$1$ = -24						; size = 4
_bAble$1$ = -24						; size = 4
_bAble$1$ = -24						; size = 4
_nUser$1$ = -20						; size = 4
_nUser$1$ = -20						; size = 4
tv1791 = -20						; size = 4
tv1792 = -20						; size = 4
$T5 = -20						; size = 4
_dwTick$1$ = -16					; size = 4
__$EHRec$ = -12						; size = 12
?Process@CQuiz@@QAEXXZ PROC				; CQuiz::Process, COMDAT
; _this$ = ecx

; 296  : {

  00000	55		 push	 ebp
  00001	8b ec		 mov	 ebp, esp
  00003	6a ff		 push	 -1
  00005	68 00 00 00 00	 push	 __ehhandler$?Process@CQuiz@@QAEXXZ
  0000a	64 a1 00 00 00
	00		 mov	 eax, DWORD PTR fs:0
  00010	50		 push	 eax
  00011	83 ec 24	 sub	 esp, 36			; 00000024H
  00014	53		 push	 ebx
  00015	56		 push	 esi
  00016	57		 push	 edi
  00017	a1 00 00 00 00	 mov	 eax, DWORD PTR ___security_cookie
  0001c	33 c5		 xor	 eax, ebp
  0001e	50		 push	 eax
  0001f	8d 45 f4	 lea	 eax, DWORD PTR __$EHRec$[ebp]
  00022	64 a3 00 00 00
	00		 mov	 DWORD PTR fs:0, eax
  00028	8b d9		 mov	 ebx, ecx
  0002a	89 5d e8	 mov	 DWORD PTR _this$1$[ebp], ebx

; 297  : 	DWORD dwTick = GetTickCount();

  0002d	ff 15 00 00 00
	00		 call	 DWORD PTR __imp__GetTickCount@0

; 298  : 	vector<QUIZLIST>::iterator it = m_vecQuizList.begin();
; 299  : 	
; 300  : 	switch( m_nState )

  00033	8b 4b 20	 mov	 ecx, DWORD PTR [ebx+32]
  00036	8d 7b 20	 lea	 edi, DWORD PTR [ebx+32]
; File C:\Program Files\Microsoft Visual Studio\2022\Professional\VC\Tools\MSVC\14.44.35207\include\vector

; 46   :     _CONSTEXPR20 _Vector_const_iterator(_Tptr _Parg, const _Container_base* _Pvector) noexcept : _Ptr(_Parg) {

  00039	8b 73 14	 mov	 esi, DWORD PTR [ebx+20]
; File C:\IAGOS\server\v18\Source\Source\_Common\Quiz.cpp

; 297  : 	DWORD dwTick = GetTickCount();

  0003c	89 45 f0	 mov	 DWORD PTR _dwTick$1$[ebp], eax

; 298  : 	vector<QUIZLIST>::iterator it = m_vecQuizList.begin();
; 299  : 	
; 300  : 	switch( m_nState )

  0003f	83 f9 06	 cmp	 ecx, 6
  00042	77 16		 ja	 SHORT $LN55@Process
  00044	ff 24 8d 00 00
	00 00		 jmp	 DWORD PTR $LN281@Process[ecx*4]
$LN19@Process:

; 301  : 	{
; 302  : 	case QE_CLOSE:
; 303  : 		// ÄűÁî ŔĚşĄĆ® Áľ·á. ¸đµç ŔŻŔú ąŰŔ¸·Î ŔĚµż
; 304  : 		if( dwTick > GetNextTime() )

  0004b	3b 83 dc 00 00
	00		 cmp	 eax, DWORD PTR [ebx+220]
  00051	76 07		 jbe	 SHORT $LN55@Process
$LN54@Process:

; 539  : }

  00053	8b cb		 mov	 ecx, ebx
  00055	e8 00 00 00 00	 call	 ?CloseQuizEvent@CQuiz@@QAEXXZ ; CQuiz::CloseQuizEvent
$LN55@Process:
  0005a	8b 4d f4	 mov	 ecx, DWORD PTR __$EHRec$[ebp]
  0005d	64 89 0d 00 00
	00 00		 mov	 DWORD PTR fs:0, ecx
  00064	59		 pop	 ecx
  00065	5f		 pop	 edi
  00066	5e		 pop	 esi
  00067	5b		 pop	 ebx
  00068	8b e5		 mov	 esp, ebp
  0006a	5d		 pop	 ebp
  0006b	c3		 ret	 0
$LN21@Process:

; 305  : 			CloseQuizEvent();
; 306  : 
; 307  : 		break;
; 308  : 
; 309  : 	case QE_OPEN:
; 310  : 		{
; 311  : 			if( dwTick > GetNextTime() )

  0006c	3b 83 dc 00 00
	00		 cmp	 eax, DWORD PTR [ebx+220]
  00072	76 e6		 jbe	 SHORT $LN55@Process
; File C:\Program Files\Microsoft Visual Studio\2022\Professional\VC\Tools\MSVC\14.44.35207\include\vector

; 1915 :         return static_cast<size_type>(_My_data._Mylast - _My_data._Myfirst);

  00074	8b 4b 18	 mov	 ecx, DWORD PTR [ebx+24]
  00077	b8 67 66 66 66	 mov	 eax, 1717986919		; 66666667H
  0007c	2b ce		 sub	 ecx, esi
  0007e	f7 e9		 imul	 ecx
  00080	c1 fa 03	 sar	 edx, 3
  00083	8b c2		 mov	 eax, edx
  00085	c1 e8 1f	 shr	 eax, 31			; 0000001fH
  00088	03 c2		 add	 eax, edx
; File C:\IAGOS\server\v18\Source\Source\_Common\Quiz.cpp

; 313  : 				if( !m_vecQuizList.size() )

  0008a	75 0f		 jne	 SHORT $LN23@Process

; 314  : 				{
; 315  : 					Error( "Quiz List Load Failed!" );

  0008c	68 00 00 00 00	 push	 OFFSET ??_C@_0BH@BOEBFKLD@Quiz?5List?5Load?5Failed?$CB@
  00091	e8 00 00 00 00	 call	 ?Error@@YAPBDPBDZZ	; Error
  00096	83 c4 04	 add	 esp, 4

; 316  : 					CloseQuizEvent();
; 317  : 					return;

  00099	eb b8		 jmp	 SHORT $LN54@Process
$LN23@Process:

; 318  : 				}
; 319  : 				if( (int)( m_vecQuizList.size() ) < m_nQuizSize )

  0009b	3b 43 10	 cmp	 eax, DWORD PTR [ebx+16]
  0009e	7c ba		 jl	 SHORT $LN55@Process

; 320  : 					break;
; 321  : 				BOOL bAble = FALSE;
; 322  : 				int nUser = 0;
; 323  : 				CWorld* pWorld = g_WorldMng.GetWorld( WI_WORLD_QUIZ );

  000a0	68 d3 00 00 00	 push	 211			; 000000d3H
  000a5	b9 00 00 00 00	 mov	 ecx, OFFSET ?g_WorldMng@@3VCWorldMng@@A ; g_WorldMng
  000aa	c7 45 e8 00 00
	00 00		 mov	 DWORD PTR _bAble$1$[ebp], 0
  000b1	c7 45 ec 00 00
	00 00		 mov	 DWORD PTR _nUser$1$[ebp], 0
  000b8	e8 00 00 00 00	 call	 ?GetWorld@CWorldMng@@QAEPAVCWorld@@K@Z ; CWorldMng::GetWorld
  000bd	89 45 e0	 mov	 DWORD PTR _pWorld$1$[ebp], eax

; 324  : 				if( pWorld )

  000c0	85 c0		 test	 eax, eax
  000c2	74 8f		 je	 SHORT $LN54@Process

; 325  : 				{
; 326  : 					for( DWORD i = 0; i < pWorld->m_dwObjNum; ++i )

  000c4	33 f6		 xor	 esi, esi
  000c6	39 70 40	 cmp	 DWORD PTR [eax+64], esi
  000c9	76 88		 jbe	 SHORT $LN54@Process
  000cb	8d 78 44	 lea	 edi, DWORD PTR [eax+68]
  000ce	66 90		 npad	 2
$LL6@Process:

; 327  : 					{
; 328  : 						if( IsInQuizEventPlayer( pWorld, nDefaultLayer, i ) )

  000d0	56		 push	 esi
  000d1	6a 00		 push	 0
  000d3	50		 push	 eax
  000d4	8b cb		 mov	 ecx, ebx
  000d6	e8 00 00 00 00	 call	 ?IsInQuizEventPlayer@CQuiz@@AAEHPAVCWorld@@HH@Z ; CQuiz::IsInQuizEventPlayer
  000db	85 c0		 test	 eax, eax
  000dd	74 63		 je	 SHORT $LN286@Process
; File C:\IAGOS\server\v18\Source\Source\_Common\Project.h

; 1427 : 	VERIFY_RANGE( (int)( dwIndex ), 0, m_colorText.GetSize(), "GetText range_error", "error" );

  000df	a1 ac 02 00 00	 mov	 eax, DWORD PTR ?prj@@3VCProject@@A+684
  000e4	3d 76 10 00 00	 cmp	 eax, 4214		; 00001076H
  000e9	7f 21		 jg	 SHORT $LN234@Process

; 579  : 	LPCTSTR szErr = Error( _T( "%s min:%d, max:%d, index:%d" ), szMsg, nMin, nMax, nIndex ); 

  000eb	68 76 10 00 00	 push	 4214			; 00001076H
  000f0	50		 push	 eax
  000f1	6a 00		 push	 0
  000f3	68 00 00 00 00	 push	 OFFSET ??_C@_0BE@OHDBLHOM@GetText?5range_error@
  000f8	68 00 00 00 00	 push	 OFFSET ??_C@_0BM@HMFGHCP@?$CFs?5min?3?$CFd?0?5max?3?$CFd?0?5index?3?$CFd@
  000fd	e8 00 00 00 00	 call	 ?Error@@YAPBDPBDZZ	; Error
  00102	83 c4 14	 add	 esp, 20			; 00000014H

; 1427 : 	VERIFY_RANGE( (int)( dwIndex ), 0, m_colorText.GetSize(), "GetText range_error", "error" );

  00105	b8 00 00 00 00	 mov	 eax, OFFSET ??_C@_05KKCIMGE@error@
  0010a	eb 1b		 jmp	 SHORT $LN233@Process
$LN234@Process:
; File C:\IAGOS\server\v18\Source\Source\_Common\data.h

; 270  : 	if( dwIndex >= (DWORD)m_nMaxIndex )

  0010c	76 14		 jbe	 SHORT $LN274@Process

; 271  : 		return NULL;
; 272  : 	return (T*) m_apOffset[ dwIndex ];

  0010e	a1 9c 02 00 00	 mov	 eax, DWORD PTR ?prj@@3VCProject@@A+668
  00113	8b 80 d8 41 00
	00		 mov	 eax, DWORD PTR [eax+16856]
; File C:\IAGOS\server\v18\Source\Source\_Common\Project.h

; 1428 : 	if( m_colorText.GetAt( dwIndex ) == NULL )

  00119	85 c0		 test	 eax, eax
  0011b	74 05		 je	 SHORT $LN274@Process

; 1430 : 	return m_colorText.GetAt( dwIndex )->lpszData; 

  0011d	8b 40 04	 mov	 eax, DWORD PTR [eax+4]
  00120	eb 05		 jmp	 SHORT $LN233@Process
$LN274@Process:

; 1429 : 		return "";

  00122	b8 00 00 00 00	 mov	 eax, OFFSET ??_C@_00CNPNBAHC@@
$LN233@Process:
; File C:\IAGOS\server\v18\Source\Source\_Common\Quiz.cpp

; 330  : 							static_cast<CUser*>( pWorld->m_apObject[i] )->AddQuizEventMessage( prj.GetText( TID_GAME_QUIZ_WAIT_QUESTION ) );

  00127	8b 0f		 mov	 ecx, DWORD PTR [edi]
  00129	6a 00		 push	 0
  0012b	50		 push	 eax
  0012c	e8 00 00 00 00	 call	 ?AddQuizEventMessage@CUser@@QAEXPBDH@Z ; CUser::AddQuizEventMessage

; 331  : 							bAble = TRUE;
; 332  : 							++nUser;

  00131	8b 4d ec	 mov	 ecx, DWORD PTR _nUser$1$[ebp]
  00134	ba 01 00 00 00	 mov	 edx, 1
  00139	41		 inc	 ecx
  0013a	89 55 e8	 mov	 DWORD PTR _bAble$1$[ebp], edx
  0013d	89 4d ec	 mov	 DWORD PTR _nUser$1$[ebp], ecx
  00140	eb 06		 jmp	 SHORT $LN4@Process
$LN286@Process:

; 327  : 					{
; 328  : 						if( IsInQuizEventPlayer( pWorld, nDefaultLayer, i ) )

  00142	8b 4d ec	 mov	 ecx, DWORD PTR _nUser$1$[ebp]
  00145	8b 55 e8	 mov	 edx, DWORD PTR _bAble$1$[ebp]
$LN4@Process:

; 325  : 				{
; 326  : 					for( DWORD i = 0; i < pWorld->m_dwObjNum; ++i )

  00148	8b 45 e0	 mov	 eax, DWORD PTR _pWorld$1$[ebp]
  0014b	46		 inc	 esi
  0014c	83 c7 04	 add	 edi, 4
  0014f	3b 70 40	 cmp	 esi, DWORD PTR [eax+64]
  00152	0f 82 78 ff ff
	ff		 jb	 $LL6@Process

; 333  : 						}
; 334  : 					}
; 335  : 				}
; 336  : 				if( !bAble )

  00158	85 d2		 test	 edx, edx
  0015a	0f 84 f3 fe ff
	ff		 je	 $LN54@Process

; 337  : 				{
; 338  : 					CloseQuizEvent();
; 339  : 					return;
; 340  : 				}
; 341  : 
; 342  : 				if( nUser <= LIMIT_USER_COUNT )

  00160	83 f9 32	 cmp	 ecx, 50			; 00000032H
  00163	7f 0a		 jg	 SHORT $LN28@Process

; 343  : 					m_bSelectLog = TRUE;

  00165	c7 83 bc 00 00
	00 01 00 00 00	 mov	 DWORD PTR [ebx+188], 1
$LN28@Process:

; 344  : 
; 345  : 				SetNextTime( dwTick + m_dwWaitTime );

  0016f	8b 83 c8 00 00
	00		 mov	 eax, DWORD PTR [ebx+200]

; 347  : 				g_dpDBClient.SendQuizEventState( QE_QUESTION, g_uIdofMulti );

  00175	b9 00 00 00 00	 mov	 ecx, OFFSET ?g_dpDBClient@@3VCDPDatabaseClient@@A ; g_dpDBClient
  0017a	03 45 f0	 add	 eax, DWORD PTR _dwTick$1$[ebp]
  0017d	6a 00		 push	 0
  0017f	6a 00		 push	 0
  00181	89 83 dc 00 00
	00		 mov	 DWORD PTR [ebx+220], eax
; File C:\IAGOS\server\v18\Source\Source\_Common\Quiz.h

; 88   : 	void	SetState( int nState )	{	m_nState = nState;	}

  00187	c7 43 20 04 00
	00 00		 mov	 DWORD PTR [ebx+32], 4
; File C:\IAGOS\server\v18\Source\Source\_Common\Quiz.cpp

; 347  : 				g_dpDBClient.SendQuizEventState( QE_QUESTION, g_uIdofMulti );

  0018e	ff 35 00 00 00
	00		 push	 DWORD PTR ?g_uIdofMulti@@3KA ; g_uIdofMulti
  00194	6a 04		 push	 4
  00196	e8 00 00 00 00	 call	 ?SendQuizEventState@CDPDatabaseClient@@QAEXHHHH@Z ; CDPDatabaseClient::SendQuizEventState

; 539  : }

  0019b	8b 4d f4	 mov	 ecx, DWORD PTR __$EHRec$[ebp]
  0019e	64 89 0d 00 00
	00 00		 mov	 DWORD PTR fs:0, ecx
  001a5	59		 pop	 ecx
  001a6	5f		 pop	 edi
  001a7	5e		 pop	 esi
  001a8	5b		 pop	 ebx
  001a9	8b e5		 mov	 esp, ebp
  001ab	5d		 pop	 ebp
  001ac	c3		 ret	 0
$LN29@Process:

; 348  : 			}
; 349  : 		}
; 350  : 		
; 351  : 		break;
; 352  : 
; 353  : 	case QE_QUESTION:
; 354  : 		// ą®Á¦ ĂâÁ¦
; 355  : 		if( dwTick > GetNextTime() )

  001ad	3b 83 dc 00 00
	00		 cmp	 eax, DWORD PTR [ebx+220]
  001b3	0f 86 a1 fe ff
	ff		 jbe	 $LN55@Process

; 356  : 		{
; 357  : 			// UI
; 358  : 			CWorld* pWorld = g_WorldMng.GetWorld( WI_WORLD_QUIZ );

  001b9	68 d3 00 00 00	 push	 211			; 000000d3H
  001be	b9 00 00 00 00	 mov	 ecx, OFFSET ?g_WorldMng@@3VCWorldMng@@A ; g_WorldMng
  001c3	e8 00 00 00 00	 call	 ?GetWorld@CWorldMng@@QAEPAVCWorld@@K@Z ; CWorldMng::GetWorld
  001c8	8b c8		 mov	 ecx, eax

; 359  : 			if( pWorld )

  001ca	8d 93 dc 00 00
	00		 lea	 edx, DWORD PTR [ebx+220]
  001d0	89 4d e0	 mov	 DWORD PTR _pWorld$1$[ebp], ecx
  001d3	85 c9		 test	 ecx, ecx
  001d5	0f 84 b5 00 00
	00		 je	 $LN8@Process

; 360  : 			{
; 361  : 				for( DWORD i = 0; i < pWorld->m_dwObjNum; ++i )

  001db	33 ff		 xor	 edi, edi
  001dd	8d 43 20	 lea	 eax, DWORD PTR [ebx+32]
  001e0	39 79 40	 cmp	 DWORD PTR [ecx+64], edi
  001e3	0f 86 a5 00 00
	00		 jbe	 $LN282@Process
  001e9	8d 41 44	 lea	 eax, DWORD PTR [ecx+68]
  001ec	89 45 ec	 mov	 DWORD PTR tv1792[ebp], eax
  001ef	90		 npad	 1
$LL9@Process:

; 362  : 				{
; 363  : 					if( IsInQuizEventPlayer( pWorld, nDefaultLayer, i ) )

  001f0	57		 push	 edi
  001f1	6a 00		 push	 0
  001f3	51		 push	 ecx
  001f4	8b cb		 mov	 ecx, ebx
  001f6	e8 00 00 00 00	 call	 ?IsInQuizEventPlayer@CQuiz@@AAEHPAVCWorld@@HH@Z ; CQuiz::IsInQuizEventPlayer
  001fb	85 c0		 test	 eax, eax
  001fd	74 73		 je	 SHORT $LN7@Process
; File C:\IAGOS\server\v18\Source\Source\_Common\Project.h

; 1427 : 	VERIFY_RANGE( (int)( dwIndex ), 0, m_colorText.GetSize(), "GetText range_error", "error" );

  001ff	a1 ac 02 00 00	 mov	 eax, DWORD PTR ?prj@@3VCProject@@A+684
  00204	3d 6e 10 00 00	 cmp	 eax, 4206		; 0000106eH
  00209	7f 21		 jg	 SHORT $LN129@Process

; 579  : 	LPCTSTR szErr = Error( _T( "%s min:%d, max:%d, index:%d" ), szMsg, nMin, nMax, nIndex ); 

  0020b	68 6e 10 00 00	 push	 4206			; 0000106eH
  00210	50		 push	 eax
  00211	6a 00		 push	 0
  00213	68 00 00 00 00	 push	 OFFSET ??_C@_0BE@OHDBLHOM@GetText?5range_error@
  00218	68 00 00 00 00	 push	 OFFSET ??_C@_0BM@HMFGHCP@?$CFs?5min?3?$CFd?0?5max?3?$CFd?0?5index?3?$CFd@
  0021d	e8 00 00 00 00	 call	 ?Error@@YAPBDPBDZZ	; Error
  00222	83 c4 14	 add	 esp, 20			; 00000014H

; 1427 : 	VERIFY_RANGE( (int)( dwIndex ), 0, m_colorText.GetSize(), "GetText range_error", "error" );

  00225	b8 00 00 00 00	 mov	 eax, OFFSET ??_C@_05KKCIMGE@error@
  0022a	eb 1b		 jmp	 SHORT $LN128@Process
$LN129@Process:
; File C:\IAGOS\server\v18\Source\Source\_Common\data.h

; 270  : 	if( dwIndex >= (DWORD)m_nMaxIndex )

  0022c	76 14		 jbe	 SHORT $LN275@Process

; 271  : 		return NULL;
; 272  : 	return (T*) m_apOffset[ dwIndex ];

  0022e	a1 9c 02 00 00	 mov	 eax, DWORD PTR ?prj@@3VCProject@@A+668
  00233	8b 80 b8 41 00
	00		 mov	 eax, DWORD PTR [eax+16824]
; File C:\IAGOS\server\v18\Source\Source\_Common\Project.h

; 1428 : 	if( m_colorText.GetAt( dwIndex ) == NULL )

  00239	85 c0		 test	 eax, eax
  0023b	74 05		 je	 SHORT $LN275@Process

; 1430 : 	return m_colorText.GetAt( dwIndex )->lpszData; 

  0023d	8b 40 04	 mov	 eax, DWORD PTR [eax+4]
  00240	eb 05		 jmp	 SHORT $LN128@Process
$LN275@Process:

; 1429 : 		return "";

  00242	b8 00 00 00 00	 mov	 eax, OFFSET ??_C@_00CNPNBAHC@@
$LN128@Process:
; File C:\IAGOS\server\v18\Source\Source\_Common\Quiz.cpp

; 365  : 						static_cast<CUser*>( pWorld->m_apObject[i] )->AddQuizEventMessage( prj.GetText( TID_GAME_QUIZ_QUESTION ), QE_QUESTION );

  00247	8b 4d ec	 mov	 ecx, DWORD PTR tv1792[ebp]
  0024a	6a 04		 push	 4
  0024c	50		 push	 eax
  0024d	8b 09		 mov	 ecx, DWORD PTR [ecx]
  0024f	e8 00 00 00 00	 call	 ?AddQuizEventMessage@CUser@@QAEXPBDH@Z ; CUser::AddQuizEventMessage

; 366  : 						static_cast<CUser*>( pWorld->m_apObject[i] )->AddQuizQuestion( GetType(), it->strQuestion, m_dwQuestionTime / SEC(1) );

  00254	b8 d3 4d 62 10	 mov	 eax, 274877907		; 10624dd3H
  00259	f7 a3 cc 00 00
	00		 mul	 DWORD PTR [ebx+204]
  0025f	8b 45 ec	 mov	 eax, DWORD PTR tv1792[ebp]
  00262	c1 ea 06	 shr	 edx, 6
  00265	52		 push	 edx
  00266	ff 76 04	 push	 DWORD PTR [esi+4]
  00269	8b 08		 mov	 ecx, DWORD PTR [eax]
  0026b	ff 33		 push	 DWORD PTR [ebx]
  0026d	e8 00 00 00 00	 call	 ?AddQuizQuestion@CUser@@QAEXHPBDH@Z ; CUser::AddQuizQuestion
$LN7@Process:

; 360  : 			{
; 361  : 				for( DWORD i = 0; i < pWorld->m_dwObjNum; ++i )

  00272	8b 4d e0	 mov	 ecx, DWORD PTR _pWorld$1$[ebp]
  00275	47		 inc	 edi
  00276	83 45 ec 04	 add	 DWORD PTR tv1792[ebp], 4
  0027a	3b 79 40	 cmp	 edi, DWORD PTR [ecx+64]
  0027d	0f 82 6d ff ff
	ff		 jb	 $LL9@Process

; 366  : 						static_cast<CUser*>( pWorld->m_apObject[i] )->AddQuizQuestion( GetType(), it->strQuestion, m_dwQuestionTime / SEC(1) );

  00283	8d 93 dc 00 00
	00		 lea	 edx, DWORD PTR [ebx+220]
  00289	8d 7b 20	 lea	 edi, DWORD PTR [ebx+32]
  0028c	eb 02		 jmp	 SHORT $LN8@Process
$LN282@Process:

; 360  : 			{
; 361  : 				for( DWORD i = 0; i < pWorld->m_dwObjNum; ++i )

  0028e	8b f8		 mov	 edi, eax
$LN8@Process:

; 367  : 					}
; 368  : 				}
; 369  : 			}
; 370  : 
; 371  : 			SetNextTime( dwTick + m_dwQuestionTime );

  00290	8b 83 cc 00 00
	00		 mov	 eax, DWORD PTR [ebx+204]

; 372  : 			SetState( QE_CORRECT_ANSWER );
; 373  : 			g_dpDBClient.SendQuizEventState( QE_CORRECT_ANSWER, g_uIdofMulti );

  00296	b9 00 00 00 00	 mov	 ecx, OFFSET ?g_dpDBClient@@3VCDPDatabaseClient@@A ; g_dpDBClient
  0029b	03 45 f0	 add	 eax, DWORD PTR _dwTick$1$[ebp]
  0029e	6a 00		 push	 0
  002a0	6a 00		 push	 0
  002a2	89 02		 mov	 DWORD PTR [edx], eax
  002a4	c7 07 05 00 00
	00		 mov	 DWORD PTR [edi], 5
  002aa	ff 35 00 00 00
	00		 push	 DWORD PTR ?g_uIdofMulti@@3KA ; g_uIdofMulti
  002b0	6a 05		 push	 5
  002b2	e8 00 00 00 00	 call	 ?SendQuizEventState@CDPDatabaseClient@@QAEXHHHH@Z ; CDPDatabaseClient::SendQuizEventState

; 374  : 			++m_nQuizCount;

  002b7	ff 83 c4 00 00
	00		 inc	 DWORD PTR [ebx+196]

; 539  : }

  002bd	8b 4d f4	 mov	 ecx, DWORD PTR __$EHRec$[ebp]
  002c0	64 89 0d 00 00
	00 00		 mov	 DWORD PTR fs:0, ecx
  002c7	59		 pop	 ecx
  002c8	5f		 pop	 edi
  002c9	5e		 pop	 esi
  002ca	5b		 pop	 ebx
  002cb	8b e5		 mov	 esp, ebp
  002cd	5d		 pop	 ebp
  002ce	c3		 ret	 0
$LN33@Process:

; 375  : 		}
; 376  : 		
; 377  : 		break;
; 378  : 		
; 379  : 	case QE_CORRECT_ANSWER:
; 380  : 		// Á¤´ä °ř°ł
; 381  : 		if( dwTick > GetNextTime() )

  002cf	8d bb dc 00 00
	00		 lea	 edi, DWORD PTR [ebx+220]
  002d5	89 7d ec	 mov	 DWORD PTR $T5[ebp], edi
  002d8	3b 07		 cmp	 eax, DWORD PTR [edi]
  002da	0f 86 7a fd ff
	ff		 jbe	 $LN55@Process

; 382  : 		{
; 383  : /*			// ŔŻŔú ŔĚµż şŇ°ˇ - object
; 384  : 			DWORD dwId	= NULL;
; 385  : 			
; 386  : 			if( GetType() == TYPE_OX )
; 387  : 				dwId = 1116;
; 388  : 			else
; 389  : 				dwId = 1115;
; 390  : 			
; 391  : 			m_pVObj = CreateObj( D3DDEVICE, OT_OBJ, dwId );
; 392  : 			if( !m_pVObj )
; 393  : 				return;
; 394  : 			
; 395  : 			m_pVObj->SetPos( m_sQuizData.vQuizZonePos );
; 396  : 			m_pVObj->UpdateLocalMatrix();
; 397  : 			CWorld* pWorld = g_WorldMng.GetWorld( WI_WORLD_QUIZ );
; 398  : 			if( pWorld )
; 399  : 				pWorld->ADDOBJ( m_pVObj, TRUE, nDefaultLayer );
; 400  : 			
; 401  : 			if( GetType() == TYPE_4C )
; 402  : 			{
; 403  : 				m_pHObj = CreateObj( D3DDEVICE, OT_OBJ, dwId );
; 404  : 				if( !m_pHObj )
; 405  : 					return;
; 406  : 				
; 407  : 				m_pHObj->SetPos( m_sQuizData.vQuizZonePos );
; 408  : 				m_pHObj->SetAngle( 90 );
; 409  : 				m_pHObj->UpdateLocalMatrix();
; 410  : 				CWorld* pWorld = g_WorldMng.GetWorld( WI_WORLD_QUIZ );
; 411  : 				if( pWorld )
; 412  : 					pWorld->ADDOBJ( m_pHObj, TRUE, nDefaultLayer );
; 413  : 			}*/
; 414  : 
; 415  : 			// ą®Á¦ Ç®ŔĚ Áľ·á ¸ŢĽĽÁö
; 416  : 			CString str_Message;

  002e0	8d 4d e4	 lea	 ecx, DWORD PTR _str_Message$3[ebp]
  002e3	e8 00 00 00 00	 call	 ??0?$CStringT@DV?$StrTraitMFC@DV?$ChTraitsCRT@D@ATL@@@@@ATL@@QAE@XZ ; ATL::CStringT<char,StrTraitMFC<char,ATL::ChTraitsCRT<char> > >::CStringT<char,StrTraitMFC<char,ATL::ChTraitsCRT<char> > >

; 417  : 			str_Message.Format( prj.GetText( TID_GAME_QUIZ_END_SOLVE_QUESTION ), m_nQuizCount );

  002e8	ff b3 c4 00 00
	00		 push	 DWORD PTR [ebx+196]
  002ee	b9 00 00 00 00	 mov	 ecx, OFFSET ?prj@@3VCProject@@A ; prj
  002f3	c7 45 fc 00 00
	00 00		 mov	 DWORD PTR __$EHRec$[ebp+8], 0
  002fa	68 77 10 00 00	 push	 4215			; 00001077H
  002ff	e8 00 00 00 00	 call	 ?GetText@CProject@@QAEPBDK@Z ; CProject::GetText
  00304	50		 push	 eax
  00305	8d 45 e4	 lea	 eax, DWORD PTR _str_Message$3[ebp]
  00308	50		 push	 eax
  00309	e8 00 00 00 00	 call	 ?Format@?$CStringT@DV?$StrTraitMFC@DV?$ChTraitsCRT@D@ATL@@@@@ATL@@QAAXPBDZZ ; ATL::CStringT<char,StrTraitMFC<char,ATL::ChTraitsCRT<char> > >::Format
  0030e	83 c4 0c	 add	 esp, 12			; 0000000cH

; 418  : 
; 419  : 			// Á¤´ä ¸ŢĽĽÁö
; 420  : 			CString strMessage;

  00311	8d 4d e8	 lea	 ecx, DWORD PTR _strMessage$4[ebp]
  00314	e8 00 00 00 00	 call	 ??0?$CStringT@DV?$StrTraitMFC@DV?$ChTraitsCRT@D@ATL@@@@@ATL@@QAE@XZ ; ATL::CStringT<char,StrTraitMFC<char,ATL::ChTraitsCRT<char> > >::CStringT<char,StrTraitMFC<char,ATL::ChTraitsCRT<char> > >

; 421  : 			if( GetType() == TYPE_OX )

  00319	8b 03		 mov	 eax, DWORD PTR [ebx]
  0031b	c6 45 fc 01	 mov	 BYTE PTR __$EHRec$[ebp+8], 1
  0031f	83 f8 01	 cmp	 eax, 1
  00322	75 30		 jne	 SHORT $LN35@Process

; 422  : 			{
; 423  : 				if( it->nCorrect == 1 )
; 424  : 					strMessage.Format( prj.GetText( TID_GAME_QUIZ_CORRECT_ANSWER_OX ), 'O' );

  00324	8d 78 4e	 lea	 edi, DWORD PTR [eax+78]
  00327	39 46 08	 cmp	 DWORD PTR [esi+8], eax
  0032a	74 03		 je	 SHORT $LN38@Process

; 425  : 				else
; 426  : 					strMessage.Format( prj.GetText( TID_GAME_QUIZ_CORRECT_ANSWER_OX ), 'X' );

  0032c	8d 78 57	 lea	 edi, DWORD PTR [eax+87]
$LN38@Process:

; 427  : 			}

  0032f	68 6f 10 00 00	 push	 4207			; 0000106fH
  00334	b9 00 00 00 00	 mov	 ecx, OFFSET ?prj@@3VCProject@@A ; prj
  00339	e8 00 00 00 00	 call	 ?GetText@CProject@@QAEPBDK@Z ; CProject::GetText
  0033e	57		 push	 edi
  0033f	50		 push	 eax
  00340	8d 45 e8	 lea	 eax, DWORD PTR _strMessage$4[ebp]
  00343	50		 push	 eax
  00344	e8 00 00 00 00	 call	 ?Format@?$CStringT@DV?$StrTraitMFC@DV?$ChTraitsCRT@D@ATL@@@@@ATL@@QAAXPBDZZ ; ATL::CStringT<char,StrTraitMFC<char,ATL::ChTraitsCRT<char> > >::Format
  00349	8d 83 dc 00 00
	00		 lea	 eax, DWORD PTR [ebx+220]
  0034f	89 45 ec	 mov	 DWORD PTR $T5[ebp], eax
  00352	eb 24		 jmp	 SHORT $LN289@Process
$LN35@Process:

; 428  : 			else if( GetType() == TYPE_4C )

  00354	83 f8 02	 cmp	 eax, 2
  00357	75 22		 jne	 SHORT $LN39@Process

; 429  : 				strMessage.Format( prj.GetText( TID_GAME_QUIZ_CORRECT_ANSWER_4C ), it->nCorrect );

  00359	ff 76 08	 push	 DWORD PTR [esi+8]
  0035c	b9 00 00 00 00	 mov	 ecx, OFFSET ?prj@@3VCProject@@A ; prj
  00361	68 78 10 00 00	 push	 4216			; 00001078H
  00366	e8 00 00 00 00	 call	 ?GetText@CProject@@QAEPBDK@Z ; CProject::GetText
  0036b	50		 push	 eax
  0036c	8d 45 e8	 lea	 eax, DWORD PTR _strMessage$4[ebp]
  0036f	50		 push	 eax
  00370	e8 00 00 00 00	 call	 ?Format@?$CStringT@DV?$StrTraitMFC@DV?$ChTraitsCRT@D@ATL@@@@@ATL@@QAAXPBDZZ ; ATL::CStringT<char,StrTraitMFC<char,ATL::ChTraitsCRT<char> > >::Format
  00375	89 7d ec	 mov	 DWORD PTR $T5[ebp], edi
$LN289@Process:

; 430  : 
; 431  : 			D3DXVECTOR3 vPos = m_sQuizData.aExamplePos[(*it).nCorrect - 1];

  00378	83 c4 0c	 add	 esp, 12			; 0000000cH
$LN39@Process:
  0037b	8b 46 08	 mov	 eax, DWORD PTR [esi+8]

; 432  : 			g_UserMng.AddWorldCreateSfxObj( XI_QUIZCORRECTANSWER, vPos.x, vPos.y, vPos.z, FALSE, WI_WORLD_QUIZ );

  0037e	b9 00 00 00 00	 mov	 ecx, OFFSET ?g_UserMng@@3VCUserMng@@A ; g_UserMng
  00383	83 c0 04	 add	 eax, 4
  00386	68 d3 00 00 00	 push	 211			; 000000d3H
  0038b	6a 00		 push	 0
  0038d	83 ec 0c	 sub	 esp, 12			; 0000000cH
  00390	8d 04 40	 lea	 eax, DWORD PTR [eax+eax*2]
  00393	f3 0f 7e 04 83	 movq	 xmm0, QWORD PTR [ebx+eax*4]
  00398	8b 44 83 08	 mov	 eax, DWORD PTR [ebx+eax*4+8]
  0039c	66 0f d6 45 d0	 movq	 QWORD PTR _vPos$2[ebp], xmm0
  003a1	89 45 d8	 mov	 DWORD PTR _vPos$2[ebp+8], eax
  003a4	f3 0f 10 45 d8	 movss	 xmm0, DWORD PTR _vPos$2[ebp+8]
  003a9	f3 0f 11 44 24
	08		 movss	 DWORD PTR [esp+8], xmm0
  003af	f3 0f 10 45 d4	 movss	 xmm0, DWORD PTR _vPos$2[ebp+4]
  003b4	f3 0f 11 44 24
	04		 movss	 DWORD PTR [esp+4], xmm0
  003ba	f3 0f 10 45 d0	 movss	 xmm0, DWORD PTR _vPos$2[ebp]
  003bf	f3 0f 11 04 24	 movss	 DWORD PTR [esp], xmm0
  003c4	68 7d 07 00 00	 push	 1917			; 0000077dH
  003c9	e8 00 00 00 00	 call	 ?AddWorldCreateSfxObj@CUserMng@@QAEXKMMMHK@Z ; CUserMng::AddWorldCreateSfxObj

; 433  : 			
; 434  : 			CWorld* pWorld = g_WorldMng.GetWorld( WI_WORLD_QUIZ );

  003ce	68 d3 00 00 00	 push	 211			; 000000d3H
  003d3	b9 00 00 00 00	 mov	 ecx, OFFSET ?g_WorldMng@@3VCWorldMng@@A ; g_WorldMng
  003d8	e8 00 00 00 00	 call	 ?GetWorld@CWorldMng@@QAEPAVCWorld@@K@Z ; CWorldMng::GetWorld

; 435  : 			if( pWorld )

  003dd	8b 75 e4	 mov	 esi, DWORD PTR _str_Message$3[ebp]
  003e0	8b d0		 mov	 edx, eax
  003e2	8b 7d e8	 mov	 edi, DWORD PTR _strMessage$4[ebp]
  003e5	8b 4d ec	 mov	 ecx, DWORD PTR $T5[ebp]
  003e8	89 55 dc	 mov	 DWORD PTR _pWorld$1$[ebp], edx
  003eb	85 d2		 test	 edx, edx
  003ed	74 53		 je	 SHORT $LN11@Process

; 436  : 			{
; 437  : 				for( DWORD i = 0; i < pWorld->m_dwObjNum; ++i )

  003ef	33 c0		 xor	 eax, eax
  003f1	89 45 e0	 mov	 DWORD PTR _i$1$[ebp], eax
  003f4	39 42 40	 cmp	 DWORD PTR [edx+64], eax
  003f7	76 49		 jbe	 SHORT $LN11@Process
  003f9	8d 4a 44	 lea	 ecx, DWORD PTR [edx+68]
  003fc	89 4d ec	 mov	 DWORD PTR tv1791[ebp], ecx
  003ff	90		 npad	 1
$LL12@Process:

; 438  : 				{
; 439  : 					if( IsInQuizEventPlayer( pWorld, nDefaultLayer, i ) )

  00400	50		 push	 eax
  00401	6a 00		 push	 0
  00403	52		 push	 edx
  00404	8b cb		 mov	 ecx, ebx
  00406	e8 00 00 00 00	 call	 ?IsInQuizEventPlayer@CQuiz@@AAEHPAVCWorld@@HH@Z ; CQuiz::IsInQuizEventPlayer
  0040b	85 c0		 test	 eax, eax
  0040d	74 1a		 je	 SHORT $LN10@Process

; 440  : 					{
; 441  : 						static_cast<CUser*>( pWorld->m_apObject[i] )->AddQuizEventMessage( str_Message, QE_CORRECT_ANSWER );

  0040f	8b 4d ec	 mov	 ecx, DWORD PTR tv1791[ebp]
  00412	6a 05		 push	 5
  00414	56		 push	 esi
  00415	8b 09		 mov	 ecx, DWORD PTR [ecx]
  00417	e8 00 00 00 00	 call	 ?AddQuizEventMessage@CUser@@QAEXPBDH@Z ; CUser::AddQuizEventMessage

; 442  : 						static_cast<CUser*>( pWorld->m_apObject[i] )->AddQuizEventMessage( strMessage );

  0041c	8b 45 ec	 mov	 eax, DWORD PTR tv1791[ebp]
  0041f	6a 00		 push	 0
  00421	57		 push	 edi
  00422	8b 08		 mov	 ecx, DWORD PTR [eax]
  00424	e8 00 00 00 00	 call	 ?AddQuizEventMessage@CUser@@QAEXPBDH@Z ; CUser::AddQuizEventMessage
$LN10@Process:

; 436  : 			{
; 437  : 				for( DWORD i = 0; i < pWorld->m_dwObjNum; ++i )

  00429	8b 45 e0	 mov	 eax, DWORD PTR _i$1$[ebp]
  0042c	8b 55 dc	 mov	 edx, DWORD PTR _pWorld$1$[ebp]
  0042f	40		 inc	 eax
  00430	83 45 ec 04	 add	 DWORD PTR tv1791[ebp], 4
  00434	89 45 e0	 mov	 DWORD PTR _i$1$[ebp], eax
  00437	3b 42 40	 cmp	 eax, DWORD PTR [edx+64]
  0043a	72 c4		 jb	 SHORT $LL12@Process

; 366  : 						static_cast<CUser*>( pWorld->m_apObject[i] )->AddQuizQuestion( GetType(), it->strQuestion, m_dwQuestionTime / SEC(1) );

  0043c	8d 8b dc 00 00
	00		 lea	 ecx, DWORD PTR [ebx+220]
$LN11@Process:

; 443  : 					}
; 444  : 				}
; 445  : 			}
; 446  : 
; 447  : 			SetNextTime( dwTick + m_dwWaitTime );

  00442	8b 83 c8 00 00
	00		 mov	 eax, DWORD PTR [ebx+200]
  00448	03 45 f0	 add	 eax, DWORD PTR _dwTick$1$[ebp]

; 449  : 			g_dpDBClient.SendQuizEventState( QE_DROP_OUT, g_uIdofMulti );

  0044b	6a 00		 push	 0
  0044d	6a 00		 push	 0
  0044f	89 01		 mov	 DWORD PTR [ecx], eax
  00451	b9 00 00 00 00	 mov	 ecx, OFFSET ?g_dpDBClient@@3VCDPDatabaseClient@@A ; g_dpDBClient
; File C:\IAGOS\server\v18\Source\Source\_Common\Quiz.h

; 88   : 	void	SetState( int nState )	{	m_nState = nState;	}

  00456	c7 43 20 06 00
	00 00		 mov	 DWORD PTR [ebx+32], 6
; File C:\IAGOS\server\v18\Source\Source\_Common\Quiz.cpp

; 449  : 			g_dpDBClient.SendQuizEventState( QE_DROP_OUT, g_uIdofMulti );

  0045d	ff 35 00 00 00
	00		 push	 DWORD PTR ?g_uIdofMulti@@3KA ; g_uIdofMulti
  00463	6a 06		 push	 6
  00465	e8 00 00 00 00	 call	 ?SendQuizEventState@CDPDatabaseClient@@QAEXHHHH@Z ; CDPDatabaseClient::SendQuizEventState
; File C:\Program Files\Microsoft Visual Studio\2022\Professional\VC\Tools\MSVC\14.44.35207\atlmfc\include\atlsimpstr.h

; 92   : 		if( _InterlockedDecrement( &nRefs ) <= 0 )

  0046a	83 cb ff	 or	 ebx, -1
; File C:\IAGOS\server\v18\Source\Source\_Common\Quiz.cpp

; 450  : 		}

  0046d	c6 45 fc 00	 mov	 BYTE PTR __$EHRec$[ebp+8], 0
; File C:\Program Files\Microsoft Visual Studio\2022\Professional\VC\Tools\MSVC\14.44.35207\atlmfc\include\atlsimpstr.h

; 804  : 		return( reinterpret_cast< CStringData* >( m_pszData )-1 );

  00471	83 c7 f0	 add	 edi, -16		; fffffff0H

; 92   : 		if( _InterlockedDecrement( &nRefs ) <= 0 )

  00474	8b c3		 mov	 eax, ebx
  00476	f0 0f c1 47 0c	 lock	  xadd	 DWORD PTR [edi+12], eax
  0047b	48		 dec	 eax
  0047c	85 c0		 test	 eax, eax
  0047e	7f 08		 jg	 SHORT $LN87@Process

; 93   : 		{
; 94   : 			pStringMgr->Free( this );

  00480	8b 0f		 mov	 ecx, DWORD PTR [edi]
  00482	57		 push	 edi
  00483	8b 01		 mov	 eax, DWORD PTR [ecx]
  00485	ff 50 04	 call	 DWORD PTR [eax+4]
$LN87@Process:
; File C:\IAGOS\server\v18\Source\Source\_Common\Quiz.cpp

; 450  : 		}

  00488	c7 45 fc ff ff
	ff ff		 mov	 DWORD PTR __$EHRec$[ebp+8], -1
; File C:\Program Files\Microsoft Visual Studio\2022\Professional\VC\Tools\MSVC\14.44.35207\atlmfc\include\atlsimpstr.h

; 804  : 		return( reinterpret_cast< CStringData* >( m_pszData )-1 );

  0048f	83 c6 f0	 add	 esi, -16		; fffffff0H

; 92   : 		if( _InterlockedDecrement( &nRefs ) <= 0 )

  00492	f0 0f c1 5e 0c	 lock	  xadd	 DWORD PTR [esi+12], ebx
  00497	4b		 dec	 ebx
  00498	85 db		 test	 ebx, ebx
  0049a	0f 8f ba fb ff
	ff		 jg	 $LN55@Process

; 93   : 		{
; 94   : 			pStringMgr->Free( this );

  004a0	8b 0e		 mov	 ecx, DWORD PTR [esi]
  004a2	56		 push	 esi
  004a3	8b 01		 mov	 eax, DWORD PTR [ecx]
  004a5	ff 50 04	 call	 DWORD PTR [eax+4]
; File C:\IAGOS\server\v18\Source\Source\_Common\Quiz.cpp

; 539  : }

  004a8	8b 4d f4	 mov	 ecx, DWORD PTR __$EHRec$[ebp]
  004ab	64 89 0d 00 00
	00 00		 mov	 DWORD PTR fs:0, ecx
  004b2	59		 pop	 ecx
  004b3	5f		 pop	 edi
  004b4	5e		 pop	 esi
  004b5	5b		 pop	 ebx
  004b6	8b e5		 mov	 esp, ebp
  004b8	5d		 pop	 ebp
  004b9	c3		 ret	 0
$LN42@Process:

; 451  : 		
; 452  : 		break;
; 453  : 		
; 454  : 	case QE_DROP_OUT:
; 455  : 		if( dwTick > GetNextTime() )

  004ba	3b 83 dc 00 00
	00		 cmp	 eax, DWORD PTR [ebx+220]
  004c0	0f 86 94 fb ff
	ff		 jbe	 $LN55@Process

; 458  : 			DropOutWrongUser( (*it).nQuizId, (*it).nCorrect );

  004c6	6a 00		 push	 0
  004c8	6a 00		 push	 0
  004ca	ff 76 08	 push	 DWORD PTR [esi+8]
  004cd	8b cb		 mov	 ecx, ebx
  004cf	ff 36		 push	 DWORD PTR [esi]
  004d1	e8 00 00 00 00	 call	 ?DropOutWrongUser@CQuiz@@QAEXHHHH@Z ; CQuiz::DropOutWrongUser
; File C:\Program Files\Microsoft Visual Studio\2022\Professional\VC\Tools\MSVC\14.44.35207\include\vector

; 1775 :         _STD _Move_unchecked(_Whereptr + 1, _Mylast, _Whereptr);

  004d6	8b 43 18	 mov	 eax, DWORD PTR [ebx+24]
  004d9	83 c6 14	 add	 esi, 20			; 00000014H
; File C:\Program Files\Microsoft Visual Studio\2022\Professional\VC\Tools\MSVC\14.44.35207\include\xutility

; 5151 :         for (; _First != _Last; ++_Dest, (void) ++_First) {

  004dc	83 c9 ff	 or	 ecx, -1
; File C:\Program Files\Microsoft Visual Studio\2022\Professional\VC\Tools\MSVC\14.44.35207\include\vector

; 1775 :         _STD _Move_unchecked(_Whereptr + 1, _Mylast, _Whereptr);

  004df	89 45 e4	 mov	 DWORD PTR __Last$1$[ebp], eax
; File C:\Program Files\Microsoft Visual Studio\2022\Professional\VC\Tools\MSVC\14.44.35207\include\xutility

; 5151 :         for (; _First != _Last; ++_Dest, (void) ++_First) {

  004e2	3b f0		 cmp	 esi, eax
  004e4	0f 84 86 00 00
	00		 je	 $LN174@Process
; File C:\IAGOS\server\v18\Source\Source\_Common\Quiz.cpp

; 458  : 			DropOutWrongUser( (*it).nQuizId, (*it).nCorrect );

  004ea	8b de		 mov	 ebx, esi
  004ec	8d 73 f0	 lea	 esi, DWORD PTR [ebx-16]
  004ef	90		 npad	 1
$LL175@Process:
  004f0	8b 03		 mov	 eax, DWORD PTR [ebx]
  004f2	89 46 fc	 mov	 DWORD PTR [esi-4], eax
; File C:\Program Files\Microsoft Visual Studio\2022\Professional\VC\Tools\MSVC\14.44.35207\atlmfc\include\atlsimpstr.h

; 804  : 		return( reinterpret_cast< CStringData* >( m_pszData )-1 );

  004f5	8d 46 14	 lea	 eax, DWORD PTR [esi+20]
  004f8	8b 08		 mov	 ecx, DWORD PTR [eax]
  004fa	8b 3e		 mov	 edi, DWORD PTR [esi]
  004fc	83 ef 10	 sub	 edi, 16			; 00000010H
  004ff	89 45 e0	 mov	 DWORD PTR tv1772[ebp], eax
  00502	8d 51 f0	 lea	 edx, DWORD PTR [ecx-16]

; 278  : 		if( pSrcData != pOldData)

  00505	3b d7		 cmp	 edx, edi
  00507	74 44		 je	 SHORT $LN184@Process

; 73   : 		return nRefs < 0;

  00509	83 7f 0c 00	 cmp	 DWORD PTR [edi+12], 0

; 280  : 			if( pOldData->IsLocked() || pSrcData->pStringMgr != pOldData->pStringMgr )

  0050d	7c 33		 jl	 SHORT $LN185@Process
  0050f	8b 02		 mov	 eax, DWORD PTR [edx]
  00511	3b 07		 cmp	 eax, DWORD PTR [edi]
  00513	75 2d		 jne	 SHORT $LN185@Process

; 283  : 			}
; 284  : 			else
; 285  : 			{
; 286  : 				CStringData* pNewData = CloneData( pSrcData );

  00515	52		 push	 edx
  00516	e8 00 00 00 00	 call	 ?CloneData@?$CSimpleStringT@D$0A@@ATL@@CAPAUCStringData@2@PAU32@@Z ; ATL::CSimpleStringT<char,0>::CloneData
  0051b	83 c4 04	 add	 esp, 4
  0051e	89 45 dc	 mov	 DWORD PTR _pNewData$1$[ebp], eax

; 92   : 		if( _InterlockedDecrement( &nRefs ) <= 0 )

  00521	83 c9 ff	 or	 ecx, -1
  00524	8d 57 0c	 lea	 edx, DWORD PTR [edi+12]
  00527	f0 0f c1 0a	 lock	  xadd	 DWORD PTR [edx], ecx
  0052b	49		 dec	 ecx
  0052c	85 c9		 test	 ecx, ecx
  0052e	7f 0b		 jg	 SHORT $LN198@Process

; 93   : 		{
; 94   : 			pStringMgr->Free( this );

  00530	8b 0f		 mov	 ecx, DWORD PTR [edi]
  00532	57		 push	 edi
  00533	8b 11		 mov	 edx, DWORD PTR [ecx]
  00535	ff 52 04	 call	 DWORD PTR [edx+4]
  00538	8b 45 dc	 mov	 eax, DWORD PTR _pNewData$1$[ebp]
$LN198@Process:

; 288  : 				Attach( pNewData );

  0053b	83 c0 10	 add	 eax, 16			; 00000010H
  0053e	89 06		 mov	 DWORD PTR [esi], eax
  00540	eb 0b		 jmp	 SHORT $LN184@Process
$LN185@Process:

; 281  : 			{
; 282  : 				SetString( strSrc.GetString(), strSrc.GetLength() );

  00542	ff 71 f4	 push	 DWORD PTR [ecx-12]
  00545	51		 push	 ecx
  00546	8b ce		 mov	 ecx, esi
  00548	e8 00 00 00 00	 call	 ?SetString@?$CSimpleStringT@D$0A@@ATL@@QAEXPBDH@Z ; ATL::CSimpleStringT<char,0>::SetString
$LN184@Process:
  0054d	8b 46 18	 mov	 eax, DWORD PTR [esi+24]
; File C:\Program Files\Microsoft Visual Studio\2022\Professional\VC\Tools\MSVC\14.44.35207\include\xutility

; 5151 :         for (; _First != _Last; ++_Dest, (void) ++_First) {

  00550	83 c3 14	 add	 ebx, 20			; 00000014H
  00553	89 46 04	 mov	 DWORD PTR [esi+4], eax
  00556	8b 46 1c	 mov	 eax, DWORD PTR [esi+28]
  00559	89 46 08	 mov	 DWORD PTR [esi+8], eax
  0055c	8b 46 20	 mov	 eax, DWORD PTR [esi+32]
  0055f	89 46 0c	 mov	 DWORD PTR [esi+12], eax
  00562	8b 75 e0	 mov	 esi, DWORD PTR tv1772[ebp]
  00565	3b 5d e4	 cmp	 ebx, DWORD PTR __Last$1$[ebp]
  00568	75 86		 jne	 SHORT $LL175@Process
  0056a	8b 5d e8	 mov	 ebx, DWORD PTR _this$1$[ebp]
  0056d	83 c9 ff	 or	 ecx, -1
$LN174@Process:
; File C:\Program Files\Microsoft Visual Studio\2022\Professional\VC\Tools\MSVC\14.44.35207\atlmfc\include\atlsimpstr.h

; 804  : 		return( reinterpret_cast< CStringData* >( m_pszData )-1 );

  00570	8b 43 18	 mov	 eax, DWORD PTR [ebx+24]
  00573	8b 50 f0	 mov	 edx, DWORD PTR [eax-16]
  00576	83 ea 10	 sub	 edx, 16			; 00000010H

; 92   : 		if( _InterlockedDecrement( &nRefs ) <= 0 )

  00579	f0 0f c1 4a 0c	 lock	  xadd	 DWORD PTR [edx+12], ecx
  0057e	49		 dec	 ecx
  0057f	85 c9		 test	 ecx, ecx
  00581	7f 08		 jg	 SHORT $LN218@Process

; 93   : 		{
; 94   : 			pStringMgr->Free( this );

  00583	8b 0a		 mov	 ecx, DWORD PTR [edx]
  00585	52		 push	 edx
  00586	8b 01		 mov	 eax, DWORD PTR [ecx]
  00588	ff 50 04	 call	 DWORD PTR [eax+4]
$LN218@Process:
; File C:\Program Files\Microsoft Visual Studio\2022\Professional\VC\Tools\MSVC\14.44.35207\include\vector

; 1778 :         --_Mylast;

  0058b	83 43 18 ec	 add	 DWORD PTR [ebx+24], -20	; ffffffecH
; File C:\IAGOS\server\v18\Source\Source\_Common\Quiz.cpp

; 539  : }

  0058f	8b 4d f4	 mov	 ecx, DWORD PTR __$EHRec$[ebp]
  00592	64 89 0d 00 00
	00 00		 mov	 DWORD PTR fs:0, ecx
  00599	59		 pop	 ecx
  0059a	5f		 pop	 edi
  0059b	5e		 pop	 esi
  0059c	5b		 pop	 ebx
  0059d	8b e5		 mov	 esp, ebp
  0059f	5d		 pop	 ebp
  005a0	c3		 ret	 0
$LN44@Process:
; File C:\Program Files\Microsoft Visual Studio\2022\Professional\VC\Tools\MSVC\14.44.35207\include\vector

; 1915 :         return static_cast<size_type>(_My_data._Mylast - _My_data._Myfirst);

  005a1	8b 4b 18	 mov	 ecx, DWORD PTR [ebx+24]
  005a4	b8 67 66 66 66	 mov	 eax, 1717986919		; 66666667H
  005a9	2b ce		 sub	 ecx, esi
  005ab	f7 e9		 imul	 ecx
  005ad	c1 fa 03	 sar	 edx, 3
  005b0	8b c2		 mov	 eax, edx
  005b2	c1 e8 1f	 shr	 eax, 31			; 0000001fH
  005b5	03 c2		 add	 eax, edx
; File C:\IAGOS\server\v18\Source\Source\_Common\Quiz.cpp

; 467  : 			if( m_vecQuizList.size() > REMAIN_QUIZ )

  005b7	83 f8 1e	 cmp	 eax, 30			; 0000001eH
  005ba	0f 86 43 01 00
	00		 jbe	 $LN45@Process

; 468  : 			{
; 469  : 				CWorld* pWorld = g_WorldMng.GetWorld( WI_WORLD_QUIZ );

  005c0	68 d3 00 00 00	 push	 211			; 000000d3H
  005c5	b9 00 00 00 00	 mov	 ecx, OFFSET ?g_WorldMng@@3VCWorldMng@@A ; g_WorldMng
  005ca	e8 00 00 00 00	 call	 ?GetWorld@CWorldMng@@QAEPAVCWorld@@K@Z ; CWorldMng::GetWorld
  005cf	89 45 dc	 mov	 DWORD PTR _pWorld$1$[ebp], eax

; 470  : 				if( pWorld )

  005d2	85 c0		 test	 eax, eax
  005d4	0f 84 d8 00 00
	00		 je	 $LN14@Process

; 471  : 				{
; 472  : 					for( DWORD i = 0; i < pWorld->m_dwObjNum; ++i )

  005da	33 f6		 xor	 esi, esi
  005dc	39 70 40	 cmp	 DWORD PTR [eax+64], esi
  005df	0f 86 cd 00 00
	00		 jbe	 $LN14@Process
  005e5	8d 78 44	 lea	 edi, DWORD PTR [eax+68]
$LL15@Process:

; 473  : 					{
; 474  : 						if( IsInQuizEventPlayer( pWorld, nDefaultLayer, i ) )

  005e8	56		 push	 esi
  005e9	6a 00		 push	 0
  005eb	50		 push	 eax
  005ec	8b cb		 mov	 ecx, ebx
  005ee	e8 00 00 00 00	 call	 ?IsInQuizEventPlayer@CQuiz@@AAEHPAVCWorld@@HH@Z ; CQuiz::IsInQuizEventPlayer
  005f3	85 c0		 test	 eax, eax
  005f5	0f 84 a4 00 00
	00		 je	 $LN13@Process
; File C:\IAGOS\server\v18\Source\Source\_Common\Project.h

; 1427 : 	VERIFY_RANGE( (int)( dwIndex ), 0, m_colorText.GetSize(), "GetText range_error", "error" );

  005fb	a1 ac 02 00 00	 mov	 eax, DWORD PTR ?prj@@3VCProject@@A+684
  00600	3d 72 10 00 00	 cmp	 eax, 4210		; 00001072H
  00605	7f 21		 jg	 SHORT $LN152@Process

; 579  : 	LPCTSTR szErr = Error( _T( "%s min:%d, max:%d, index:%d" ), szMsg, nMin, nMax, nIndex ); 

  00607	68 72 10 00 00	 push	 4210			; 00001072H
  0060c	50		 push	 eax
  0060d	6a 00		 push	 0
  0060f	68 00 00 00 00	 push	 OFFSET ??_C@_0BE@OHDBLHOM@GetText?5range_error@
  00614	68 00 00 00 00	 push	 OFFSET ??_C@_0BM@HMFGHCP@?$CFs?5min?3?$CFd?0?5max?3?$CFd?0?5index?3?$CFd@
  00619	e8 00 00 00 00	 call	 ?Error@@YAPBDPBDZZ	; Error
  0061e	83 c4 14	 add	 esp, 20			; 00000014H

; 1427 : 	VERIFY_RANGE( (int)( dwIndex ), 0, m_colorText.GetSize(), "GetText range_error", "error" );

  00621	b8 00 00 00 00	 mov	 eax, OFFSET ??_C@_05KKCIMGE@error@
  00626	eb 1b		 jmp	 SHORT $LN151@Process
$LN152@Process:
; File C:\IAGOS\server\v18\Source\Source\_Common\data.h

; 270  : 	if( dwIndex >= (DWORD)m_nMaxIndex )

  00628	76 14		 jbe	 SHORT $LN276@Process

; 271  : 		return NULL;
; 272  : 	return (T*) m_apOffset[ dwIndex ];

  0062a	a1 9c 02 00 00	 mov	 eax, DWORD PTR ?prj@@3VCProject@@A+668
  0062f	8b 80 c8 41 00
	00		 mov	 eax, DWORD PTR [eax+16840]
; File C:\IAGOS\server\v18\Source\Source\_Common\Project.h

; 1428 : 	if( m_colorText.GetAt( dwIndex ) == NULL )

  00635	85 c0		 test	 eax, eax
  00637	74 05		 je	 SHORT $LN276@Process

; 1430 : 	return m_colorText.GetAt( dwIndex )->lpszData; 

  00639	8b 40 04	 mov	 eax, DWORD PTR [eax+4]
  0063c	eb 05		 jmp	 SHORT $LN151@Process
$LN276@Process:

; 1429 : 		return "";

  0063e	b8 00 00 00 00	 mov	 eax, OFFSET ??_C@_00CNPNBAHC@@
$LN151@Process:
; File C:\IAGOS\server\v18\Source\Source\_Common\Quiz.cpp

; 476  : 							static_cast<CUser*>( pWorld->m_apObject[i] )->AddQuizEventMessage( prj.GetText( TID_GAME_QUIZ_WATCHINGZONE_OPEN ), QE_WATCHINGZONE_OPEN );

  00643	8b 0f		 mov	 ecx, DWORD PTR [edi]
  00645	6a 03		 push	 3
  00647	50		 push	 eax
  00648	e8 00 00 00 00	 call	 ?AddQuizEventMessage@CUser@@QAEXPBDH@Z ; CUser::AddQuizEventMessage
; File C:\IAGOS\server\v18\Source\Source\_Common\Project.h

; 1427 : 	VERIFY_RANGE( (int)( dwIndex ), 0, m_colorText.GetSize(), "GetText range_error", "error" );

  0064d	a1 ac 02 00 00	 mov	 eax, DWORD PTR ?prj@@3VCProject@@A+684
  00652	3d 73 10 00 00	 cmp	 eax, 4211		; 00001073H
  00657	7f 21		 jg	 SHORT $LN97@Process

; 579  : 	LPCTSTR szErr = Error( _T( "%s min:%d, max:%d, index:%d" ), szMsg, nMin, nMax, nIndex ); 

  00659	68 73 10 00 00	 push	 4211			; 00001073H
  0065e	50		 push	 eax
  0065f	6a 00		 push	 0
  00661	68 00 00 00 00	 push	 OFFSET ??_C@_0BE@OHDBLHOM@GetText?5range_error@
  00666	68 00 00 00 00	 push	 OFFSET ??_C@_0BM@HMFGHCP@?$CFs?5min?3?$CFd?0?5max?3?$CFd?0?5index?3?$CFd@
  0066b	e8 00 00 00 00	 call	 ?Error@@YAPBDPBDZZ	; Error
  00670	83 c4 14	 add	 esp, 20			; 00000014H

; 1427 : 	VERIFY_RANGE( (int)( dwIndex ), 0, m_colorText.GetSize(), "GetText range_error", "error" );

  00673	b8 00 00 00 00	 mov	 eax, OFFSET ??_C@_05KKCIMGE@error@
  00678	eb 1b		 jmp	 SHORT $LN96@Process
$LN97@Process:
; File C:\IAGOS\server\v18\Source\Source\_Common\data.h

; 270  : 	if( dwIndex >= (DWORD)m_nMaxIndex )

  0067a	76 14		 jbe	 SHORT $LN277@Process

; 271  : 		return NULL;
; 272  : 	return (T*) m_apOffset[ dwIndex ];

  0067c	a1 9c 02 00 00	 mov	 eax, DWORD PTR ?prj@@3VCProject@@A+668
  00681	8b 80 cc 41 00
	00		 mov	 eax, DWORD PTR [eax+16844]
; File C:\IAGOS\server\v18\Source\Source\_Common\Project.h

; 1428 : 	if( m_colorText.GetAt( dwIndex ) == NULL )

  00687	85 c0		 test	 eax, eax
  00689	74 05		 je	 SHORT $LN277@Process

; 1430 : 	return m_colorText.GetAt( dwIndex )->lpszData; 

  0068b	8b 40 04	 mov	 eax, DWORD PTR [eax+4]
  0068e	eb 05		 jmp	 SHORT $LN96@Process
$LN277@Process:

; 1429 : 		return "";

  00690	b8 00 00 00 00	 mov	 eax, OFFSET ??_C@_00CNPNBAHC@@
$LN96@Process:
; File C:\IAGOS\server\v18\Source\Source\_Common\Quiz.cpp

; 477  : 							static_cast<CUser*>( pWorld->m_apObject[i] )->AddQuizEventMessage( prj.GetText( TID_GAME_QUIZ_TELEPORT_QUIZZONE ) );

  00695	8b 0f		 mov	 ecx, DWORD PTR [edi]
  00697	6a 00		 push	 0
  00699	50		 push	 eax
  0069a	e8 00 00 00 00	 call	 ?AddQuizEventMessage@CUser@@QAEXPBDH@Z ; CUser::AddQuizEventMessage
$LN13@Process:

; 471  : 				{
; 472  : 					for( DWORD i = 0; i < pWorld->m_dwObjNum; ++i )

  0069f	8b 45 dc	 mov	 eax, DWORD PTR _pWorld$1$[ebp]
  006a2	46		 inc	 esi
  006a3	83 c7 04	 add	 edi, 4
  006a6	3b 70 40	 cmp	 esi, DWORD PTR [eax+64]
  006a9	0f 82 39 ff ff
	ff		 jb	 $LL15@Process

; 366  : 						static_cast<CUser*>( pWorld->m_apObject[i] )->AddQuizQuestion( GetType(), it->strQuestion, m_dwQuestionTime / SEC(1) );

  006af	8d 7b 20	 lea	 edi, DWORD PTR [ebx+32]
$LN14@Process:

; 478  : 						}
; 479  : 					}
; 480  : 				}
; 481  : 				
; 482  : 				SetNextTime( dwTick + m_dwWatchingZoneOpenTime );

  006b2	8b 83 d4 00 00
	00		 mov	 eax, DWORD PTR [ebx+212]

; 486  : 				g_dpDBClient.SendQuizEventState( QE_WATCHINGZONE_OPEN, g_uIdofMulti );

  006b8	b9 00 00 00 00	 mov	 ecx, OFFSET ?g_dpDBClient@@3VCDPDatabaseClient@@A ; g_dpDBClient
  006bd	03 45 f0	 add	 eax, DWORD PTR _dwTick$1$[ebp]
  006c0	6a 00		 push	 0
  006c2	6a 00		 push	 0
  006c4	89 83 dc 00 00
	00		 mov	 DWORD PTR [ebx+220], eax
; File C:\IAGOS\server\v18\Source\Source\_Common\Quiz.h

; 88   : 	void	SetState( int nState )	{	m_nState = nState;	}

  006ca	c7 07 03 00 00
	00		 mov	 DWORD PTR [edi], 3
; File C:\IAGOS\server\v18\Source\Source\_Common\Quiz.cpp

; 484  : 				m_bSelectLog = FALSE;

  006d0	c7 83 bc 00 00
	00 00 00 00 00	 mov	 DWORD PTR [ebx+188], 0

; 485  : 				m_nQuizCount = 0;

  006da	c7 83 c4 00 00
	00 00 00 00 00	 mov	 DWORD PTR [ebx+196], 0

; 486  : 				g_dpDBClient.SendQuizEventState( QE_WATCHINGZONE_OPEN, g_uIdofMulti );

  006e4	ff 35 00 00 00
	00		 push	 DWORD PTR ?g_uIdofMulti@@3KA ; g_uIdofMulti
  006ea	6a 03		 push	 3
  006ec	e8 00 00 00 00	 call	 ?SendQuizEventState@CDPDatabaseClient@@QAEXHHHH@Z ; CDPDatabaseClient::SendQuizEventState

; 539  : }

  006f1	8b 4d f4	 mov	 ecx, DWORD PTR __$EHRec$[ebp]
  006f4	64 89 0d 00 00
	00 00		 mov	 DWORD PTR fs:0, ecx
  006fb	59		 pop	 ecx
  006fc	5f		 pop	 edi
  006fd	5e		 pop	 esi
  006fe	5b		 pop	 ebx
  006ff	8b e5		 mov	 esp, ebp
  00701	5d		 pop	 ebp
  00702	c3		 ret	 0
$LN45@Process:

; 487  : 			}
; 488  : 			// ą®Á¦°ˇ żä±¸Äˇ ş¸´Ů ŔűŔ» ˝Ă ÄűÁî ŔĚşĄĆ® Áľ·á
; 489  : 			else
; 490  : 			{
; 491  : 				g_DPCoreClient.SendQuizSystemMessage( TID_GAME_QUIZ_CLOSING, TRUE, g_uIdofMulti );

  00703	6a 00		 push	 0
  00705	ff 35 00 00 00
	00		 push	 DWORD PTR ?g_uIdofMulti@@3KA ; g_uIdofMulti
  0070b	b9 00 00 00 00	 mov	 ecx, OFFSET ?g_DPCoreClient@@3VCDPCoreClient@@A ; g_DPCoreClient
  00710	6a 01		 push	 1
  00712	68 71 10 00 00	 push	 4209			; 00001071H
  00717	e8 00 00 00 00	 call	 ?SendQuizSystemMessage@CDPCoreClient@@QAEXHHHH@Z ; CDPCoreClient::SendQuizSystemMessage

; 492  : 				SetNextTime( dwTick + m_dwCloseWaitTime );

  0071c	8b 83 d8 00 00
	00		 mov	 eax, DWORD PTR [ebx+216]

; 494  : 				g_dpDBClient.SendQuizEventState( QE_CLOSE_WAIT, g_uIdofMulti );

  00722	b9 00 00 00 00	 mov	 ecx, OFFSET ?g_dpDBClient@@3VCDPDatabaseClient@@A ; g_dpDBClient
  00727	03 45 f0	 add	 eax, DWORD PTR _dwTick$1$[ebp]
  0072a	6a 00		 push	 0
  0072c	6a 00		 push	 0
; File C:\IAGOS\server\v18\Source\Source\_Common\Quiz.h

; 96   : 	void	SetNextTime( DWORD dwNextTime )		{	m_dwNextTime = dwNextTime;	}

  0072e	89 83 dc 00 00
	00		 mov	 DWORD PTR [ebx+220], eax
; File C:\IAGOS\server\v18\Source\Source\_Common\Quiz.cpp

; 493  : 				SetState( QE_CLOSE );

  00734	c7 07 00 00 00
	00		 mov	 DWORD PTR [edi], 0

; 494  : 				g_dpDBClient.SendQuizEventState( QE_CLOSE_WAIT, g_uIdofMulti );

  0073a	ff 35 00 00 00
	00		 push	 DWORD PTR ?g_uIdofMulti@@3KA ; g_uIdofMulti
  00740	6a 02		 push	 2
  00742	e8 00 00 00 00	 call	 ?SendQuizEventState@CDPDatabaseClient@@QAEXHHHH@Z ; CDPDatabaseClient::SendQuizEventState

; 539  : }

  00747	8b 4d f4	 mov	 ecx, DWORD PTR __$EHRec$[ebp]
  0074a	64 89 0d 00 00
	00 00		 mov	 DWORD PTR fs:0, ecx
  00751	59		 pop	 ecx
  00752	5f		 pop	 edi
  00753	5e		 pop	 esi
  00754	5b		 pop	 ebx
  00755	8b e5		 mov	 esp, ebp
  00757	5d		 pop	 ebp
  00758	c3		 ret	 0
$LN49@Process:

; 495  : 			}
; 496  : 		}
; 497  : 		
; 498  : 		break;
; 499  : 
; 500  : 	case QE_WATCHINGZONE_OPEN:
; 501  : 		// ´ë±âÁ¸ °łąć
; 502  : 		if( dwTick > GetNextTime() )

  00759	3b 83 dc 00 00
	00		 cmp	 eax, DWORD PTR [ebx+220]
  0075f	0f 86 f5 f8 ff
	ff		 jbe	 $LN55@Process

; 503  : 		{
; 504  : 			BOOL bAble = FALSE;
; 505  : 			int nUser = 0;
; 506  : 			CWorld* pWorld = g_WorldMng.GetWorld( WI_WORLD_QUIZ );

  00765	68 d3 00 00 00	 push	 211			; 000000d3H
  0076a	b9 00 00 00 00	 mov	 ecx, OFFSET ?g_WorldMng@@3VCWorldMng@@A ; g_WorldMng
  0076f	c7 45 e8 00 00
	00 00		 mov	 DWORD PTR _bAble$1$[ebp], 0
  00776	c7 45 ec 00 00
	00 00		 mov	 DWORD PTR _nUser$1$[ebp], 0
  0077d	e8 00 00 00 00	 call	 ?GetWorld@CWorldMng@@QAEPAVCWorld@@K@Z ; CWorldMng::GetWorld
  00782	89 45 dc	 mov	 DWORD PTR _pWorld$1$[ebp], eax

; 507  : 			if( pWorld )

  00785	85 c0		 test	 eax, eax
  00787	0f 84 c6 f8 ff
	ff		 je	 $LN54@Process

; 508  : 			{
; 509  : 				for( DWORD i = 0; i < pWorld->m_dwObjNum; ++i )

  0078d	33 f6		 xor	 esi, esi
  0078f	39 70 40	 cmp	 DWORD PTR [eax+64], esi
  00792	0f 86 bb f8 ff
	ff		 jbe	 $LN54@Process
  00798	8d 78 44	 lea	 edi, DWORD PTR [eax+68]
  0079b	0f 1f 44 00 00	 npad	 5
$LL18@Process:

; 510  : 				{
; 511  : 					if( IsInQuizEventPlayer( pWorld, nDefaultLayer, i ) )

  007a0	56		 push	 esi
  007a1	6a 00		 push	 0
  007a3	50		 push	 eax
  007a4	8b cb		 mov	 ecx, ebx
  007a6	e8 00 00 00 00	 call	 ?IsInQuizEventPlayer@CQuiz@@AAEHPAVCWorld@@HH@Z ; CQuiz::IsInQuizEventPlayer
  007ab	85 c0		 test	 eax, eax
  007ad	74 71		 je	 SHORT $LN284@Process
; File C:\IAGOS\server\v18\Source\Source\_Common\Project.h

; 1427 : 	VERIFY_RANGE( (int)( dwIndex ), 0, m_colorText.GetSize(), "GetText range_error", "error" );

  007af	a1 ac 02 00 00	 mov	 eax, DWORD PTR ?prj@@3VCProject@@A+684
  007b4	3d 76 10 00 00	 cmp	 eax, 4214		; 00001076H
  007b9	7f 21		 jg	 SHORT $LN113@Process

; 579  : 	LPCTSTR szErr = Error( _T( "%s min:%d, max:%d, index:%d" ), szMsg, nMin, nMax, nIndex ); 

  007bb	68 76 10 00 00	 push	 4214			; 00001076H
  007c0	50		 push	 eax
  007c1	6a 00		 push	 0
  007c3	68 00 00 00 00	 push	 OFFSET ??_C@_0BE@OHDBLHOM@GetText?5range_error@
  007c8	68 00 00 00 00	 push	 OFFSET ??_C@_0BM@HMFGHCP@?$CFs?5min?3?$CFd?0?5max?3?$CFd?0?5index?3?$CFd@
  007cd	e8 00 00 00 00	 call	 ?Error@@YAPBDPBDZZ	; Error
  007d2	83 c4 14	 add	 esp, 20			; 00000014H

; 1427 : 	VERIFY_RANGE( (int)( dwIndex ), 0, m_colorText.GetSize(), "GetText range_error", "error" );

  007d5	b8 00 00 00 00	 mov	 eax, OFFSET ??_C@_05KKCIMGE@error@
  007da	eb 1b		 jmp	 SHORT $LN112@Process
$LN113@Process:
; File C:\IAGOS\server\v18\Source\Source\_Common\data.h

; 270  : 	if( dwIndex >= (DWORD)m_nMaxIndex )

  007dc	76 14		 jbe	 SHORT $LN278@Process

; 271  : 		return NULL;
; 272  : 	return (T*) m_apOffset[ dwIndex ];

  007de	a1 9c 02 00 00	 mov	 eax, DWORD PTR ?prj@@3VCProject@@A+668
  007e3	8b 80 d8 41 00
	00		 mov	 eax, DWORD PTR [eax+16856]
; File C:\IAGOS\server\v18\Source\Source\_Common\Project.h

; 1428 : 	if( m_colorText.GetAt( dwIndex ) == NULL )

  007e9	85 c0		 test	 eax, eax
  007eb	74 05		 je	 SHORT $LN278@Process

; 1430 : 	return m_colorText.GetAt( dwIndex )->lpszData; 

  007ed	8b 40 04	 mov	 eax, DWORD PTR [eax+4]
  007f0	eb 05		 jmp	 SHORT $LN112@Process
$LN278@Process:

; 1429 : 		return "";

  007f2	b8 00 00 00 00	 mov	 eax, OFFSET ??_C@_00CNPNBAHC@@
$LN112@Process:
; File C:\IAGOS\server\v18\Source\Source\_Common\Quiz.cpp

; 513  : 						static_cast<CUser*>( pWorld->m_apObject[i] )->AddQuizEventMessage( prj.GetText( TID_GAME_QUIZ_WAIT_QUESTION ) );

  007f7	8b 0f		 mov	 ecx, DWORD PTR [edi]
  007f9	6a 00		 push	 0
  007fb	50		 push	 eax
  007fc	e8 00 00 00 00	 call	 ?AddQuizEventMessage@CUser@@QAEXPBDH@Z ; CUser::AddQuizEventMessage

; 514  : 						//if( static_cast<CUser*>( pWorld->m_apObject[i] )->IsAuthHigher( AUTH_GAMEMASTER ) == FALSE )
; 515  : 						if( GetZoneType( static_cast<CMover*>( pWorld->m_apObject[i] ) ) == ZONE_QUIZ )

  00801	ff 37		 push	 DWORD PTR [edi]
  00803	8b cb		 mov	 ecx, ebx
  00805	e8 00 00 00 00	 call	 ?GetZoneType@CQuiz@@QAEHPAVCMover@@@Z ; CQuiz::GetZoneType
  0080a	8b 4d ec	 mov	 ecx, DWORD PTR _nUser$1$[ebp]
  0080d	83 f8 64	 cmp	 eax, 100		; 00000064H
  00810	75 11		 jne	 SHORT $LN285@Process

; 516  : 						{
; 517  : 							bAble = TRUE;

  00812	ba 01 00 00 00	 mov	 edx, 1

; 518  : 							++nUser;

  00817	41		 inc	 ecx
  00818	89 55 e8	 mov	 DWORD PTR _bAble$1$[ebp], edx
  0081b	89 4d ec	 mov	 DWORD PTR _nUser$1$[ebp], ecx
  0081e	eb 06		 jmp	 SHORT $LN16@Process
$LN284@Process:

; 510  : 				{
; 511  : 					if( IsInQuizEventPlayer( pWorld, nDefaultLayer, i ) )

  00820	8b 4d ec	 mov	 ecx, DWORD PTR _nUser$1$[ebp]
$LN285@Process:

; 508  : 			{
; 509  : 				for( DWORD i = 0; i < pWorld->m_dwObjNum; ++i )

  00823	8b 55 e8	 mov	 edx, DWORD PTR _bAble$1$[ebp]
$LN16@Process:
  00826	8b 45 dc	 mov	 eax, DWORD PTR _pWorld$1$[ebp]
  00829	46		 inc	 esi
  0082a	83 c7 04	 add	 edi, 4
  0082d	3b 70 40	 cmp	 esi, DWORD PTR [eax+64]
  00830	0f 82 6a ff ff
	ff		 jb	 $LL18@Process

; 519  : 						}
; 520  : 					}
; 521  : 				}
; 522  : 			}
; 523  : 			if( bAble )

  00836	85 d2		 test	 edx, edx
  00838	0f 84 15 f8 ff
	ff		 je	 $LN54@Process

; 524  : 			{
; 525  : 				SetNextTime( dwTick + m_dwWaitTime );

  0083e	8b 83 c8 00 00
	00		 mov	 eax, DWORD PTR [ebx+200]
  00844	03 45 f0	 add	 eax, DWORD PTR _dwTick$1$[ebp]
  00847	89 83 dc 00 00
	00		 mov	 DWORD PTR [ebx+220], eax
; File C:\IAGOS\server\v18\Source\Source\_Common\Quiz.h

; 88   : 	void	SetState( int nState )	{	m_nState = nState;	}

  0084d	c7 43 20 04 00
	00 00		 mov	 DWORD PTR [ebx+32], 4
; File C:\IAGOS\server\v18\Source\Source\_Common\Quiz.cpp

; 527  : 				if( nUser <= LIMIT_USER_COUNT )

  00854	83 f9 32	 cmp	 ecx, 50			; 00000032H
  00857	0f 8f fd f7 ff
	ff		 jg	 $LN55@Process

; 528  : 					m_bSelectLog = TRUE;

  0085d	c7 83 bc 00 00
	00 01 00 00 00	 mov	 DWORD PTR [ebx+188], 1

; 539  : }

  00867	8b 4d f4	 mov	 ecx, DWORD PTR __$EHRec$[ebp]
  0086a	64 89 0d 00 00
	00 00		 mov	 DWORD PTR fs:0, ecx
  00871	59		 pop	 ecx
  00872	5f		 pop	 edi
  00873	5e		 pop	 esi
  00874	5b		 pop	 ebx
  00875	8b e5		 mov	 esp, ebp
  00877	5d		 pop	 ebp
  00878	c3		 ret	 0
  00879	0f 1f 00	 npad	 3
$LN281@Process:
  0087c	00 00 00 00	 DD	 $LN19@Process
  00880	00 00 00 00	 DD	 $LN21@Process
  00884	00 00 00 00	 DD	 $LN44@Process
  00888	00 00 00 00	 DD	 $LN49@Process
  0088c	00 00 00 00	 DD	 $LN29@Process
  00890	00 00 00 00	 DD	 $LN33@Process
  00894	00 00 00 00	 DD	 $LN42@Process
_TEXT	ENDS
;	COMDAT text$x
text$x	SEGMENT
__unwindfunclet$?Process@CQuiz@@QAEXXZ$0:
  00000	8d 4d e4	 lea	 ecx, DWORD PTR _str_Message$3[ebp]
  00003	e9 00 00 00 00	 jmp	 ??1?$CStringT@DV?$StrTraitMFC@DV?$ChTraitsCRT@D@ATL@@@@@ATL@@QAE@XZ ; ATL::CStringT<char,StrTraitMFC<char,ATL::ChTraitsCRT<char> > >::~CStringT<char,StrTraitMFC<char,ATL::ChTraitsCRT<char> > >
__unwindfunclet$?Process@CQuiz@@QAEXXZ$1:
  00008	8d 4d e8	 lea	 ecx, DWORD PTR _strMessage$4[ebp]
  0000b	e9 00 00 00 00	 jmp	 ??1?$CStringT@DV?$StrTraitMFC@DV?$ChTraitsCRT@D@ATL@@@@@ATL@@QAE@XZ ; ATL::CStringT<char,StrTraitMFC<char,ATL::ChTraitsCRT<char> > >::~CStringT<char,StrTraitMFC<char,ATL::ChTraitsCRT<char> > >
  00010	cc		 int	 3
  00011	cc		 int	 3
  00012	cc		 int	 3
  00013	cc		 int	 3
  00014	cc		 int	 3
__ehhandler$?Process@CQuiz@@QAEXXZ:
  00015	90		 npad	 1
  00016	90		 npad	 1
  00017	8b 54 24 08	 mov	 edx, DWORD PTR [esp+8]
  0001b	8d 42 0c	 lea	 eax, DWORD PTR [edx+12]
  0001e	8b 4a cc	 mov	 ecx, DWORD PTR [edx-52]
  00021	33 c8		 xor	 ecx, eax
  00023	e8 00 00 00 00	 call	 @__security_check_cookie@4
  00028	b8 00 00 00 00	 mov	 eax, OFFSET __ehfuncinfo$?Process@CQuiz@@QAEXXZ
  0002d	e9 00 00 00 00	 jmp	 ___CxxFrameHandler3
text$x	ENDS
?Process@CQuiz@@QAEXXZ ENDP				; CQuiz::Process
; Function compile flags: /Ogtp
; File C:\IAGOS\server\v18\Source\Source\_Common\Quiz.cpp
; File C:\IAGOS\server\v18\Source\Source\_Common\Obj.h
; File C:\IAGOS\server\v18\Source\Source\_Common\Quiz.cpp
; File C:\IAGOS\server\v18\Source\Source\_Common\Obj.h
; File C:\IAGOS\server\v18\Source\Source\_Common\Quiz.cpp
; File C:\Program Files\Microsoft Visual Studio\2022\Professional\VC\Tools\MSVC\14.44.35207\atlmfc\include\atltypes.h
; File C:\IAGOS\server\v18\Source\Source\_Common\Quiz.cpp
; File C:\Program Files\Microsoft Visual Studio\2022\Professional\VC\Tools\MSVC\14.44.35207\atlmfc\include\atltypes.h
; File C:\IAGOS\server\v18\Source\Source\_Common\Quiz.cpp
;	COMDAT ?GetZoneType@CQuiz@@QAEHPAVCMover@@@Z
_TEXT	SEGMENT
_vPos$ = -12						; size = 12
_pMover$ = 8						; size = 4
?GetZoneType@CQuiz@@QAEHPAVCMover@@@Z PROC		; CQuiz::GetZoneType, COMDAT
; _this$ = ecx

; 713  : {

  00000	55		 push	 ebp
  00001	8b ec		 mov	 ebp, esp
  00003	83 ec 0c	 sub	 esp, 12			; 0000000cH
; File C:\IAGOS\server\v18\Source\Source\_Common\Obj.h

; 215  : 	D3DXVECTOR3		GetPos()	{ return m_vPos; }

  00006	8b 45 08	 mov	 eax, DWORD PTR _pMover$[ebp]
  00009	f3 0f 7e 80 60
	01 00 00	 movq	 xmm0, QWORD PTR [eax+352]
  00011	8b 80 68 01 00
	00		 mov	 eax, DWORD PTR [eax+360]
  00017	89 45 fc	 mov	 DWORD PTR _vPos$[ebp+8], eax
; File C:\IAGOS\server\v18\Source\Source\_Common\Quiz.cpp

; 715  : 	POINT pt = { (int)vPos.x, (int)vPos.z };

  0001a	f3 0f 2c 45 fc	 cvttss2si eax, DWORD PTR _vPos$[ebp+8]
; File C:\IAGOS\server\v18\Source\Source\_Common\Obj.h

; 215  : 	D3DXVECTOR3		GetPos()	{ return m_vPos; }

  0001f	66 0f d6 45 f4	 movq	 QWORD PTR _vPos$[ebp], xmm0
; File C:\IAGOS\server\v18\Source\Source\_Common\Quiz.cpp

; 715  : 	POINT pt = { (int)vPos.x, (int)vPos.z };

  00024	f3 0f 2c 55 f4	 cvttss2si edx, DWORD PTR _vPos$[ebp]
; File C:\Program Files\Microsoft Visual Studio\2022\Professional\VC\Tools\MSVC\14.44.35207\atlmfc\include\atltypes.h

; 652  : 	return ::PtInRect(this, point);

  00029	50		 push	 eax
; File C:\IAGOS\server\v18\Source\Source\_Common\Quiz.cpp

; 716  : 	if( m_sQuizData.QuizEventRect.PtInRect( pt ) )

  0002a	8d 81 ac 00 00
	00		 lea	 eax, DWORD PTR [ecx+172]
; File C:\Program Files\Microsoft Visual Studio\2022\Professional\VC\Tools\MSVC\14.44.35207\atlmfc\include\atltypes.h

; 652  : 	return ::PtInRect(this, point);

  00030	52		 push	 edx
  00031	50		 push	 eax
  00032	ff 15 00 00 00
	00		 call	 DWORD PTR __imp__PtInRect@12
; File C:\IAGOS\server\v18\Source\Source\_Common\Quiz.cpp

; 716  : 	if( m_sQuizData.QuizEventRect.PtInRect( pt ) )

  00038	f7 d8		 neg	 eax
  0003a	1b c0		 sbb	 eax, eax
  0003c	83 e0 fb	 and	 eax, -5			; fffffffbH
  0003f	83 c0 69	 add	 eax, 105		; 00000069H

; 717  : 		return ZONE_QUIZ;
; 718  : 
; 719  : 	return ZONE_WATCHING;
; 720  : }

  00042	8b e5		 mov	 esp, ebp
  00044	5d		 pop	 ebp
  00045	c2 04 00	 ret	 4
?GetZoneType@CQuiz@@QAEHPAVCMover@@@Z ENDP		; CQuiz::GetZoneType
_TEXT	ENDS
; Function compile flags: /Ogtp
; File C:\IAGOS\server\v18\Source\Source\_Common\Quiz.cpp
;	COMDAT ?InitQuizData@CQuiz@@QAEXH@Z
_TEXT	SEGMENT
_nType$ = 8						; size = 4
?InitQuizData@CQuiz@@QAEXH@Z PROC			; CQuiz::InitQuizData, COMDAT
; _this$ = ecx

; 682  : {

  00000	55		 push	 ebp
  00001	8b ec		 mov	 ebp, esp
  00003	56		 push	 esi
  00004	57		 push	 edi
  00005	8b f1		 mov	 esi, ecx

; 683  : 	memset( &m_sQuizData, 0, sizeof( QUIZDATA ) );

  00007	68 98 00 00 00	 push	 152			; 00000098H
  0000c	6a 00		 push	 0
  0000e	8d 7e 24	 lea	 edi, DWORD PTR [esi+36]
  00011	57		 push	 edi
  00012	e8 00 00 00 00	 call	 _memset

; 684  : 	
; 685  : 	if( nType == TYPE_OX )

  00017	8b 45 08	 mov	 eax, DWORD PTR _nType$[ebp]
  0001a	83 c4 0c	 add	 esp, 12			; 0000000cH
  0001d	83 f8 01	 cmp	 eax, 1
  00020	0f 85 c2 00 00
	00		 jne	 $LN2@InitQuizDa

; 686  : 	{
; 687  : 		m_sQuizData.vQuizZonePos = D3DXVECTOR3( 800.0f, 100.0f, 752.0f );				// ÄűÁîÁ¸ ÁÂÇĄ

  00026	c7 07 00 00 48
	44		 mov	 DWORD PTR [edi], 1145569280 ; 44480000H
  0002c	c7 47 04 00 00
	c8 42		 mov	 DWORD PTR [edi+4], 1120403456 ; 42c80000H
  00033	c7 47 08 00 00
	3c 44		 mov	 DWORD PTR [edi+8], 1144782848 ; 443c0000H

; 688  : 		m_sQuizData.vWatchingZonePos = D3DXVECTOR3( 798.747f, 100.0f, 705.266f );		// ´ë±âÁ¸ ÁÂÇĄ

  0003a	c7 46 30 cf af
	47 44		 mov	 DWORD PTR [esi+48], 1145548751 ; 4447afcfH
  00041	c7 46 34 00 00
	c8 42		 mov	 DWORD PTR [esi+52], 1120403456 ; 42c80000H
  00048	c7 46 38 06 51
	30 44		 mov	 DWORD PTR [esi+56], 1144017158 ; 44305106H

; 689  : 		m_sQuizData.aExamplePos[0] = D3DXVECTOR3( 783.500f, 100.0f, 752.0f );			// O ÁÂÇĄ

  0004f	c7 46 3c 00 e0
	43 44		 mov	 DWORD PTR [esi+60], 1145298944 ; 4443e000H
  00056	c7 46 40 00 00
	c8 42		 mov	 DWORD PTR [esi+64], 1120403456 ; 42c80000H
  0005d	c7 46 44 00 00
	3c 44		 mov	 DWORD PTR [esi+68], 1144782848 ; 443c0000H

; 690  : 		m_sQuizData.aExamplePos[1] = D3DXVECTOR3( 816.500f, 100.0f, 752.0f );			// X ÁÂÇĄ

  00064	c7 46 48 00 20
	4c 44		 mov	 DWORD PTR [esi+72], 1145839616 ; 444c2000H
  0006b	c7 46 4c 00 00
	c8 42		 mov	 DWORD PTR [esi+76], 1120403456 ; 42c80000H
  00072	c7 46 50 00 00
	3c 44		 mov	 DWORD PTR [esi+80], 1144782848 ; 443c0000H

; 691  : 		m_sQuizData.aExampleRect[0] = CRect( 768, 736, 799, 768 );						// O ±¸żŞ

  00079	c7 46 6c 00 03
	00 00		 mov	 DWORD PTR [esi+108], 768 ; 00000300H
  00080	c7 46 70 e0 02
	00 00		 mov	 DWORD PTR [esi+112], 736 ; 000002e0H
  00087	c7 46 74 1f 03
	00 00		 mov	 DWORD PTR [esi+116], 799 ; 0000031fH
  0008e	c7 46 78 00 03
	00 00		 mov	 DWORD PTR [esi+120], 768 ; 00000300H

; 692  : 		m_sQuizData.aExampleRect[1] = CRect( 801, 736, 832, 768 );						// X ±¸żŞ

  00095	c7 46 7c 21 03
	00 00		 mov	 DWORD PTR [esi+124], 801 ; 00000321H
  0009c	c7 86 80 00 00
	00 e0 02 00 00	 mov	 DWORD PTR [esi+128], 736 ; 000002e0H
  000a6	c7 86 84 00 00
	00 40 03 00 00	 mov	 DWORD PTR [esi+132], 832 ; 00000340H
  000b0	c7 86 88 00 00
	00 00 03 00 00	 mov	 DWORD PTR [esi+136], 768 ; 00000300H

; 693  : 		m_sQuizData.QuizEventRect = CRect( 768, 736, 832, 768 );						// ÄűÁîÁ¸ ±¸żŞ

  000ba	c7 86 ac 00 00
	00 00 03 00 00	 mov	 DWORD PTR [esi+172], 768 ; 00000300H
  000c4	c7 86 b0 00 00
	00 e0 02 00 00	 mov	 DWORD PTR [esi+176], 736 ; 000002e0H
  000ce	c7 86 b4 00 00
	00 40 03 00 00	 mov	 DWORD PTR [esi+180], 832 ; 00000340H
  000d8	5f		 pop	 edi
  000d9	c7 86 b8 00 00
	00 00 03 00 00	 mov	 DWORD PTR [esi+184], 768 ; 00000300H

; 709  : 	}
; 710  : }

  000e3	5e		 pop	 esi
  000e4	5d		 pop	 ebp
  000e5	c2 04 00	 ret	 4
$LN2@InitQuizDa:

; 694  : 	}
; 695  : 	
; 696  : 	else if( nType == TYPE_4C )

  000e8	83 f8 02	 cmp	 eax, 2
  000eb	0f 85 36 01 00
	00		 jne	 $LN4@InitQuizDa

; 697  : 	{
; 698  : 		m_sQuizData.vQuizZonePos = D3DXVECTOR3( 1760.026f, 100.0f, 1856.028f );

  000f1	c7 07 d5 00 dc
	44		 mov	 DWORD PTR [edi], 1155268821 ; 44dc00d5H
  000f7	c7 47 04 00 00
	c8 42		 mov	 DWORD PTR [edi+4], 1120403456 ; 42c80000H
  000fe	c7 47 08 e5 00
	e8 44		 mov	 DWORD PTR [edi+8], 1156055269 ; 44e800e5H

; 699  : 		m_sQuizData.vWatchingZonePos = D3DXVECTOR3( 1759.507f, 100.0f, 1790.158f );

  00105	c7 46 30 39 f0
	db 44		 mov	 DWORD PTR [esi+48], 1155264569 ; 44dbf039H
  0010c	c7 46 34 00 00
	c8 42		 mov	 DWORD PTR [esi+52], 1120403456 ; 42c80000H
  00113	c7 46 38 0e c5
	df 44		 mov	 DWORD PTR [esi+56], 1155515662 ; 44dfc50eH

; 700  : 		m_sQuizData.aExamplePos[0] = D3DXVECTOR3( 1744.0f, 100.0f, 1872.0f );

  0011a	c7 46 3c 00 00
	da 44		 mov	 DWORD PTR [esi+60], 1155137536 ; 44da0000H
  00121	c7 46 40 00 00
	c8 42		 mov	 DWORD PTR [esi+64], 1120403456 ; 42c80000H
  00128	c7 46 44 00 00
	ea 44		 mov	 DWORD PTR [esi+68], 1156186112 ; 44ea0000H

; 701  : 		m_sQuizData.aExamplePos[1] = D3DXVECTOR3( 1766.0f, 100.0f, 1872.0f );

  0012f	c7 46 48 00 c0
	dc 44		 mov	 DWORD PTR [esi+72], 1155317760 ; 44dcc000H
  00136	c7 46 4c 00 00
	c8 42		 mov	 DWORD PTR [esi+76], 1120403456 ; 42c80000H
  0013d	c7 46 50 00 00
	ea 44		 mov	 DWORD PTR [esi+80], 1156186112 ; 44ea0000H

; 702  : 		m_sQuizData.aExamplePos[2] = D3DXVECTOR3( 1744.0f, 100.0f, 1840.0f );

  00144	c7 46 54 00 00
	da 44		 mov	 DWORD PTR [esi+84], 1155137536 ; 44da0000H
  0014b	c7 46 58 00 00
	c8 42		 mov	 DWORD PTR [esi+88], 1120403456 ; 42c80000H
  00152	c7 46 5c 00 00
	e6 44		 mov	 DWORD PTR [esi+92], 1155923968 ; 44e60000H

; 703  : 		m_sQuizData.aExamplePos[3] = D3DXVECTOR3( 1766.0f, 100.0f, 1840.0f );

  00159	c7 46 60 00 c0
	dc 44		 mov	 DWORD PTR [esi+96], 1155317760 ; 44dcc000H
  00160	c7 46 64 00 00
	c8 42		 mov	 DWORD PTR [esi+100], 1120403456 ; 42c80000H
  00167	c7 46 68 00 00
	e6 44		 mov	 DWORD PTR [esi+104], 1155923968 ; 44e60000H

; 704  : 		m_sQuizData.aExampleRect[0] = CRect( 1728, 1857, 1759, 1888 );

  0016e	c7 46 6c c0 06
	00 00		 mov	 DWORD PTR [esi+108], 1728 ; 000006c0H
  00175	c7 46 70 41 07
	00 00		 mov	 DWORD PTR [esi+112], 1857 ; 00000741H
  0017c	c7 46 74 df 06
	00 00		 mov	 DWORD PTR [esi+116], 1759 ; 000006dfH
  00183	c7 46 78 60 07
	00 00		 mov	 DWORD PTR [esi+120], 1888 ; 00000760H

; 705  : 		m_sQuizData.aExampleRect[1] = CRect( 1761, 1857, 1792, 1888 );

  0018a	c7 46 7c e1 06
	00 00		 mov	 DWORD PTR [esi+124], 1761 ; 000006e1H
  00191	c7 86 80 00 00
	00 41 07 00 00	 mov	 DWORD PTR [esi+128], 1857 ; 00000741H
  0019b	c7 86 84 00 00
	00 00 07 00 00	 mov	 DWORD PTR [esi+132], 1792 ; 00000700H
  001a5	c7 86 88 00 00
	00 60 07 00 00	 mov	 DWORD PTR [esi+136], 1888 ; 00000760H

; 706  : 		m_sQuizData.aExampleRect[2] = CRect( 1728, 1824, 1759, 1855 );

  001af	c7 86 8c 00 00
	00 c0 06 00 00	 mov	 DWORD PTR [esi+140], 1728 ; 000006c0H
  001b9	c7 86 90 00 00
	00 20 07 00 00	 mov	 DWORD PTR [esi+144], 1824 ; 00000720H
  001c3	c7 86 94 00 00
	00 df 06 00 00	 mov	 DWORD PTR [esi+148], 1759 ; 000006dfH
  001cd	c7 86 98 00 00
	00 3f 07 00 00	 mov	 DWORD PTR [esi+152], 1855 ; 0000073fH

; 707  : 		m_sQuizData.aExampleRect[3] = CRect( 1761, 1824, 1792, 1855 );

  001d7	c7 86 9c 00 00
	00 e1 06 00 00	 mov	 DWORD PTR [esi+156], 1761 ; 000006e1H
  001e1	c7 86 a0 00 00
	00 20 07 00 00	 mov	 DWORD PTR [esi+160], 1824 ; 00000720H
  001eb	c7 86 a4 00 00
	00 00 07 00 00	 mov	 DWORD PTR [esi+164], 1792 ; 00000700H
  001f5	c7 86 a8 00 00
	00 3f 07 00 00	 mov	 DWORD PTR [esi+168], 1855 ; 0000073fH

; 708  : 		m_sQuizData.QuizEventRect = CRect( 1728, 1792, 1824, 1888 );

  001ff	c7 86 ac 00 00
	00 c0 06 00 00	 mov	 DWORD PTR [esi+172], 1728 ; 000006c0H
  00209	c7 86 b0 00 00
	00 00 07 00 00	 mov	 DWORD PTR [esi+176], 1792 ; 00000700H
  00213	c7 86 b4 00 00
	00 20 07 00 00	 mov	 DWORD PTR [esi+180], 1824 ; 00000720H
  0021d	c7 86 b8 00 00
	00 60 07 00 00	 mov	 DWORD PTR [esi+184], 1888 ; 00000760H
$LN4@InitQuizDa:

; 709  : 	}
; 710  : }

  00227	5f		 pop	 edi
  00228	5e		 pop	 esi
  00229	5d		 pop	 ebp
  0022a	c2 04 00	 ret	 4
?InitQuizData@CQuiz@@QAEXH@Z ENDP			; CQuiz::InitQuizData
_TEXT	ENDS
; Function compile flags: /Ogtp
; File C:\IAGOS\server\v18\Source\Source\_Common\Quiz.cpp
; File C:\IAGOS\server\v18\Source\Source\_Common\LuaBase.h
; File C:\IAGOS\server\v18\Source\Source\_Common\Quiz.cpp
; File C:\Program Files\Microsoft Visual Studio\2022\Professional\VC\Tools\MSVC\14.44.35207\include\__msvc_string_view.hpp
; File C:\IAGOS\server\v18\Source\Source\_Common\Quiz.cpp
; File C:\Program Files\Microsoft Visual Studio\2022\Professional\VC\Tools\MSVC\14.44.35207\include\__msvc_string_view.hpp
; File C:\Program Files\Microsoft Visual Studio\2022\Professional\VC\Tools\MSVC\14.44.35207\include\xstring
; File C:\Program Files\Microsoft Visual Studio\2022\Professional\VC\Tools\MSVC\14.44.35207\include\__msvc_string_view.hpp
; File C:\Program Files\Microsoft Visual Studio\2022\Professional\VC\Tools\MSVC\14.44.35207\include\xstring
; File C:\Program Files\Microsoft Visual Studio\2022\Professional\VC\Tools\MSVC\14.44.35207\include\__msvc_string_view.hpp
; File C:\Program Files\Microsoft Visual Studio\2022\Professional\VC\Tools\MSVC\14.44.35207\include\xstring
; File C:\Program Files\Microsoft Visual Studio\2022\Professional\VC\Tools\MSVC\14.44.35207\include\__msvc_string_view.hpp
; File C:\Program Files\Microsoft Visual Studio\2022\Professional\VC\Tools\MSVC\14.44.35207\include\xstring
; File C:\Program Files\Microsoft Visual Studio\2022\Professional\VC\Tools\MSVC\14.44.35207\include\__msvc_string_view.hpp
; File C:\Program Files\Microsoft Visual Studio\2022\Professional\VC\Tools\MSVC\14.44.35207\include\xstring
; File C:\Program Files\Microsoft Visual Studio\2022\Professional\VC\Tools\MSVC\14.44.35207\include\xmemory
; File C:\Program Files\Microsoft Visual Studio\2022\Professional\VC\Tools\MSVC\14.44.35207\include\xstring
; File C:\Program Files\Microsoft Visual Studio\2022\Professional\VC\Tools\MSVC\14.44.35207\include\xmemory
; File C:\Program Files\Microsoft Visual Studio\2022\Professional\VC\Tools\MSVC\14.44.35207\include\xstring
; File C:\Program Files\Microsoft Visual Studio\2022\Professional\VC\Tools\MSVC\14.44.35207\include\xmemory
; File C:\Program Files\Microsoft Visual Studio\2022\Professional\VC\Tools\MSVC\14.44.35207\include\xstring
; File C:\Program Files\Microsoft Visual Studio\2022\Professional\VC\Tools\MSVC\14.44.35207\include\__msvc_string_view.hpp
; File C:\Program Files\Microsoft Visual Studio\2022\Professional\VC\Tools\MSVC\14.44.35207\include\xstring
; File C:\Program Files\Microsoft Visual Studio\2022\Professional\VC\Tools\MSVC\14.44.35207\include\__msvc_string_view.hpp
; File C:\Program Files\Microsoft Visual Studio\2022\Professional\VC\Tools\MSVC\14.44.35207\include\xstring
; File C:\Program Files\Microsoft Visual Studio\2022\Professional\VC\Tools\MSVC\14.44.35207\include\__msvc_string_view.hpp
; File C:\Program Files\Microsoft Visual Studio\2022\Professional\VC\Tools\MSVC\14.44.35207\include\xstring
; File C:\Program Files\Microsoft Visual Studio\2022\Professional\VC\Tools\MSVC\14.44.35207\include\__msvc_string_view.hpp
; File C:\Program Files\Microsoft Visual Studio\2022\Professional\VC\Tools\MSVC\14.44.35207\include\xstring
; File C:\Program Files\Microsoft Visual Studio\2022\Professional\VC\Tools\MSVC\14.44.35207\include\xmemory
; File C:\IAGOS\server\v18\Source\Source\_Common\Quiz.cpp
; File C:\IAGOS\server\v18\Source\Source\_Common\LuaBase.h
; File C:\IAGOS\server\v18\Source\Source\_Common\Quiz.cpp
; File C:\Program Files\Microsoft Visual Studio\2022\Professional\VC\Tools\MSVC\14.44.35207\include\xstring
; File C:\IAGOS\server\v18\Source\Source\_Common\Quiz.cpp
; File C:\Program Files\Microsoft Visual Studio\2022\Professional\VC\Tools\MSVC\14.44.35207\include\xmemory
; File C:\IAGOS\server\v18\Source\Source\_Common\Quiz.cpp
;	COMDAT ?LoadScript@CQuiz@@QAEXXZ
_TEXT	SEGMENT
_Lua$ = -40						; size = 8
_this$1$ = -32						; size = 4
__Old$1$ = -28						; size = 4
__Ptr$1$ = -24						; size = 4
$T2 = -20						; size = 4
__Result$1$ = -16					; size = 4
$T3 = -16						; size = 4
__$EHRec$ = -12						; size = 12
?LoadScript@CQuiz@@QAEXXZ PROC				; CQuiz::LoadScript, COMDAT
; _this$ = ecx

; 66   : {

  00000	55		 push	 ebp
  00001	8b ec		 mov	 ebp, esp
  00003	6a ff		 push	 -1
  00005	68 00 00 00 00	 push	 __ehhandler$?LoadScript@CQuiz@@QAEXXZ
  0000a	64 a1 00 00 00
	00		 mov	 eax, DWORD PTR fs:0
  00010	50		 push	 eax
  00011	83 ec 1c	 sub	 esp, 28			; 0000001cH
  00014	53		 push	 ebx
  00015	56		 push	 esi
  00016	57		 push	 edi
  00017	a1 00 00 00 00	 mov	 eax, DWORD PTR ___security_cookie
  0001c	33 c5		 xor	 eax, ebp
  0001e	50		 push	 eax
  0001f	8d 45 f4	 lea	 eax, DWORD PTR __$EHRec$[ebp]
  00022	64 a3 00 00 00
	00		 mov	 DWORD PTR fs:0, eax
  00028	8b f1		 mov	 esi, ecx
  0002a	89 75 e0	 mov	 DWORD PTR _this$1$[ebp], esi

; 67   : 	if( IsRun() )

  0002d	83 7e 08 00	 cmp	 DWORD PTR [esi+8], 0
  00031	0f 85 1f 03 00
	00		 jne	 $LN1@LoadScript

; 68   : 		return;
; 69   : 	
; 70   : 	CLuaBase Lua;

  00037	8d 4d d8	 lea	 ecx, DWORD PTR _Lua$[ebp]
  0003a	e8 00 00 00 00	 call	 ??0CLuaBase@@QAE@XZ	; CLuaBase::CLuaBase

; 71   : 	if( Lua.RunScript( "QuizEvent.lua" ) != 0 )

  0003f	68 00 00 00 00	 push	 OFFSET ??_C@_0O@JDCLLGCC@QuizEvent?4lua@
  00044	8d 4d d8	 lea	 ecx, DWORD PTR _Lua$[ebp]
  00047	c7 45 fc 00 00
	00 00		 mov	 DWORD PTR __$EHRec$[ebp+8], 0
  0004e	e8 00 00 00 00	 call	 ?RunScript@CLuaBase@@QAEHPBD@Z ; CLuaBase::RunScript
  00053	85 c0		 test	 eax, eax
  00055	0f 85 12 03 00
	00		 jne	 $LN104@LoadScript

; 75   : 	}
; 76   : 	m_bAuto						= static_cast<BOOL>( Lua.GetGlobalBool( "AutoMode" ) );

  0005b	68 00 00 00 00	 push	 OFFSET ??_C@_08EBFIKNOF@AutoMode@
  00060	8d 4d d8	 lea	 ecx, DWORD PTR _Lua$[ebp]
  00063	e8 00 00 00 00	 call	 ?GetGlobalBool@CLuaBase@@QAEHPAD@Z ; CLuaBase::GetGlobalBool

; 77   : 	m_nType						= static_cast<int>( Lua.GetGlobalNumber( "QuizType" ) );

  00068	68 00 00 00 00	 push	 OFFSET ??_C@_08LLCHHHKO@QuizType@
  0006d	8d 4d d8	 lea	 ecx, DWORD PTR _Lua$[ebp]
  00070	89 46 04	 mov	 DWORD PTR [esi+4], eax
  00073	e8 00 00 00 00	 call	 ?GetGlobalNumber@CLuaBase@@QAENPAD@Z ; CLuaBase::GetGlobalNumber
  00078	e8 00 00 00 00	 call	 __ftol2_sse

; 78   : 	m_dwEntranceTime			= static_cast<DWORD>( Lua.GetGlobalNumber( "EntranceTime" ) );

  0007d	68 00 00 00 00	 push	 OFFSET ??_C@_0N@JCCLKJOL@EntranceTime@
  00082	8d 4d d8	 lea	 ecx, DWORD PTR _Lua$[ebp]
  00085	89 06		 mov	 DWORD PTR [esi], eax
  00087	e8 00 00 00 00	 call	 ?GetGlobalNumber@CLuaBase@@QAENPAD@Z ; CLuaBase::GetGlobalNumber
  0008c	e8 00 00 00 00	 call	 __ftol2

; 79   : #ifdef __WORLDSERVER
; 80   : 	m_nChannel					= static_cast<int>( Lua.GetGlobalNumber( "QuizChannel" ) );

  00091	68 00 00 00 00	 push	 OFFSET ??_C@_0M@ECLCMILM@QuizChannel@
  00096	8d 4d d8	 lea	 ecx, DWORD PTR _Lua$[ebp]
  00099	89 46 0c	 mov	 DWORD PTR [esi+12], eax
  0009c	e8 00 00 00 00	 call	 ?GetGlobalNumber@CLuaBase@@QAENPAD@Z ; CLuaBase::GetGlobalNumber
  000a1	e8 00 00 00 00	 call	 __ftol2_sse
  000a6	89 86 c0 00 00
	00		 mov	 DWORD PTR [esi+192], eax

; 81   : 	if( !m_nChannel )

  000ac	85 c0		 test	 eax, eax
  000ae	75 0b		 jne	 SHORT $LN6@LoadScript

; 82   : 		m_nChannel = g_uIdofMulti;

  000b0	a1 00 00 00 00	 mov	 eax, DWORD PTR ?g_uIdofMulti@@3KA ; g_uIdofMulti
  000b5	89 86 c0 00 00
	00		 mov	 DWORD PTR [esi+192], eax
$LN6@LoadScript:
; File C:\IAGOS\server\v18\Source\Source\_Common\LuaBase.h

; 47   : 	void		GetGloabal( char* szName )					{  lua_getglobal( m_pLuaState, szName );  }

  000bb	68 00 00 00 00	 push	 OFFSET ??_C@_04PJKMFDJF@tNPC@
  000c0	ff 75 dc	 push	 DWORD PTR _Lua$[ebp+4]
  000c3	e8 00 00 00 00	 call	 _lua_getglobal

; 40   : 	void		PushNil()									{  lua_pushnil( m_pLuaState );  }

  000c8	ff 75 dc	 push	 DWORD PTR _Lua$[ebp+4]
  000cb	e8 00 00 00 00	 call	 _lua_pushnil

; 46   : 	int			TableLoop( int nStackPos )					{  return lua_next( m_pLuaState, nStackPos );  }	

  000d0	6a fe		 push	 -2			; fffffffeH
  000d2	ff 75 dc	 push	 DWORD PTR _Lua$[ebp+4]
  000d5	e8 00 00 00 00	 call	 _lua_next
  000da	83 c4 14	 add	 esp, 20			; 00000014H
; File C:\IAGOS\server\v18\Source\Source\_Common\Quiz.cpp

; 86   : 	while( Lua.TableLoop( -2 ) )

  000dd	85 c0		 test	 eax, eax
  000df	0f 84 b3 01 00
	00		 je	 $LN3@LoadScript

; 89   : 		m_sNPC.strCharKey		= Lua.GetFieldToString( -1, "strCharKey" );

  000e5	8d 9e f0 00 00
	00		 lea	 ebx, DWORD PTR [esi+240]
  000eb	8d 7b 10	 lea	 edi, DWORD PTR [ebx+16]
  000ee	66 90		 npad	 2
$LL2@LoadScript:

; 87   : 	{
; 88   : 		m_sNPC.dwNPCId			= static_cast<DWORD>( CScript::GetDefineNum( Lua.GetFieldToString( -1, "strNPCId" ) ) );

  000f0	68 00 00 00 00	 push	 OFFSET ??_C@_08HJAPABMB@strNPCId@
  000f5	6a ff		 push	 -1
  000f7	8d 4d d8	 lea	 ecx, DWORD PTR _Lua$[ebp]
  000fa	e8 00 00 00 00	 call	 ?GetFieldToString@CLuaBase@@QAEPBDHPAD@Z ; CLuaBase::GetFieldToString
  000ff	50		 push	 eax
  00100	e8 00 00 00 00	 call	 ?GetDefineNum@CScript@@SAHPBD@Z ; CScript::GetDefineNum
  00105	83 c4 04	 add	 esp, 4
  00108	89 86 ec 00 00
	00		 mov	 DWORD PTR [esi+236], eax

; 89   : 		m_sNPC.strCharKey		= Lua.GetFieldToString( -1, "strCharKey" );

  0010e	8d 4d d8	 lea	 ecx, DWORD PTR _Lua$[ebp]
  00111	68 00 00 00 00	 push	 OFFSET ??_C@_0L@HBEKAIME@strCharKey@
  00116	6a ff		 push	 -1
  00118	e8 00 00 00 00	 call	 ?GetFieldToString@CLuaBase@@QAEPBDHPAD@Z ; CLuaBase::GetFieldToString
  0011d	8b d0		 mov	 edx, eax
; File C:\Program Files\Microsoft Visual Studio\2022\Professional\VC\Tools\MSVC\14.44.35207\include\__msvc_string_view.hpp

; 459  :         return _CSTD strlen(reinterpret_cast<const char*>(_First));

  0011f	8b f2		 mov	 esi, edx
; File C:\IAGOS\server\v18\Source\Source\_Common\Quiz.cpp

; 89   : 		m_sNPC.strCharKey		= Lua.GetFieldToString( -1, "strCharKey" );

  00121	89 55 e8	 mov	 DWORD PTR __Ptr$1$[ebp], edx
; File C:\Program Files\Microsoft Visual Studio\2022\Professional\VC\Tools\MSVC\14.44.35207\include\__msvc_string_view.hpp

; 459  :         return _CSTD strlen(reinterpret_cast<const char*>(_First));

  00124	8d 46 01	 lea	 eax, DWORD PTR [esi+1]
$LL98@LoadScript:
  00127	8a 0e		 mov	 cl, BYTE PTR [esi]
  00129	46		 inc	 esi
  0012a	84 c9		 test	 cl, cl
  0012c	75 f9		 jne	 SHORT $LL98@LoadScript
; File C:\Program Files\Microsoft Visual Studio\2022\Professional\VC\Tools\MSVC\14.44.35207\include\xstring

; 1618 :         if (_Count <= _Mypair._Myval2._Myres) {

  0012e	8b 4b 14	 mov	 ecx, DWORD PTR [ebx+20]
; File C:\Program Files\Microsoft Visual Studio\2022\Professional\VC\Tools\MSVC\14.44.35207\include\__msvc_string_view.hpp

; 459  :         return _CSTD strlen(reinterpret_cast<const char*>(_First));

  00131	2b f0		 sub	 esi, eax
; File C:\Program Files\Microsoft Visual Studio\2022\Professional\VC\Tools\MSVC\14.44.35207\include\xstring

; 1618 :         if (_Count <= _Mypair._Myval2._Myres) {

  00133	89 4d e4	 mov	 DWORD PTR __Old$1$[ebp], ecx
  00136	3b f1		 cmp	 esi, ecx
  00138	77 2e		 ja	 SHORT $LN23@LoadScript

; 435  :         value_type* _Result = _Bx._Buf;

  0013a	8b c3		 mov	 eax, ebx
  0013c	89 45 f0	 mov	 DWORD PTR __Result$1$[ebp], eax

; 453  :         return _Myres > _Small_string_capacity;

  0013f	83 f9 0f	 cmp	 ecx, 15			; 0000000fH

; 436  :         if (_Large_mode_engaged()) {

  00142	76 08		 jbe	 SHORT $LN26@LoadScript

; 437  :             _Result = _Unfancy(_Bx._Ptr);

  00144	8b 03		 mov	 eax, DWORD PTR [ebx]
  00146	8d 7b 10	 lea	 edi, DWORD PTR [ebx+16]
  00149	89 45 f0	 mov	 DWORD PTR __Result$1$[ebp], eax
$LN26@LoadScript:
; File C:\Program Files\Microsoft Visual Studio\2022\Professional\VC\Tools\MSVC\14.44.35207\include\__msvc_string_view.hpp

; 174  :         _CSTD memmove(_First1, _First2, _Count * sizeof(_Elem));

  0014c	56		 push	 esi
  0014d	52		 push	 edx
  0014e	50		 push	 eax
; File C:\Program Files\Microsoft Visual Studio\2022\Professional\VC\Tools\MSVC\14.44.35207\include\xstring

; 1621 :             _Mypair._Myval2._Mysize = _Count;

  0014f	89 37		 mov	 DWORD PTR [edi], esi
; File C:\Program Files\Microsoft Visual Studio\2022\Professional\VC\Tools\MSVC\14.44.35207\include\__msvc_string_view.hpp

; 174  :         _CSTD memmove(_First1, _First2, _Count * sizeof(_Elem));

  00151	e8 00 00 00 00	 call	 _memmove
; File C:\Program Files\Microsoft Visual Studio\2022\Professional\VC\Tools\MSVC\14.44.35207\include\xstring

; 1623 :             _Traits::assign(_Old_ptr[_Count], _Elem());

  00156	8b 45 f0	 mov	 eax, DWORD PTR __Result$1$[ebp]
  00159	8d 7b 10	 lea	 edi, DWORD PTR [ebx+16]
; File C:\Program Files\Microsoft Visual Studio\2022\Professional\VC\Tools\MSVC\14.44.35207\include\__msvc_string_view.hpp

; 174  :         _CSTD memmove(_First1, _First2, _Count * sizeof(_Elem));

  0015c	83 c4 0c	 add	 esp, 12			; 0000000cH
; File C:\Program Files\Microsoft Visual Studio\2022\Professional\VC\Tools\MSVC\14.44.35207\include\xstring

; 1623 :             _Traits::assign(_Old_ptr[_Count], _Elem());

  0015f	c6 04 30 00	 mov	 BYTE PTR [eax+esi], 0

; 1624 :             _ASAN_STRING_CREATE(*this);
; 1625 :             return *this;

  00163	e9 cf 00 00 00	 jmp	 $LN38@LoadScript
$LN23@LoadScript:

; 2998 :         if (_New_size > max_size()) {

  00168	81 fe ff ff ff
	7f		 cmp	 esi, 2147483647		; 7fffffffH
  0016e	0f 87 f4 01 00
	00		 ja	 $LN91@LoadScript

; 2978 :         const size_type _Masked = _Requested | _Alloc_mask;

  00174	8b fe		 mov	 edi, esi
  00176	83 cf 0f	 or	 edi, 15			; 0000000fH
  00179	81 ff ff ff ff
	7f		 cmp	 edi, 2147483647		; 7fffffffH

; 2979 :         if (_Masked > _Max) { // the mask overflows, settle for max_size()

  0017f	76 12		 jbe	 SHORT $LN44@LoadScript

; 2980 :             return _Max;

  00181	b8 00 00 00 80	 mov	 eax, -2147483648	; 80000000H
  00186	bf ff ff ff 7f	 mov	 edi, 2147483647		; 7fffffffH
; File C:\Program Files\Microsoft Visual Studio\2022\Professional\VC\Tools\MSVC\14.44.35207\include\xmemory

; 253  :             return _Allocate_manually_vector_aligned<_Traits>(_Bytes);

  0018b	50		 push	 eax
  0018c	e8 00 00 00 00	 call	 ??$_Allocate_manually_vector_aligned@U_Default_allocate_traits@std@@@std@@YAPAXI@Z ; std::_Allocate_manually_vector_aligned<std::_Default_allocate_traits>
  00191	eb 45		 jmp	 SHORT $LN102@LoadScript
$LN44@LoadScript:
; File C:\Program Files\Microsoft Visual Studio\2022\Professional\VC\Tools\MSVC\14.44.35207\include\xstring

; 2983 :         if (_Old > _Max - _Old / 2) { // similarly, geometric overflows

  00193	8b d1		 mov	 edx, ecx
  00195	b8 ff ff ff 7f	 mov	 eax, 2147483647		; 7fffffffH
  0019a	d1 ea		 shr	 edx, 1
  0019c	2b c2		 sub	 eax, edx
  0019e	3b c8		 cmp	 ecx, eax
  001a0	76 12		 jbe	 SHORT $LN45@LoadScript

; 2984 :             return _Max;

  001a2	b8 00 00 00 80	 mov	 eax, -2147483648	; 80000000H
  001a7	bf ff ff ff 7f	 mov	 edi, 2147483647		; 7fffffffH
; File C:\Program Files\Microsoft Visual Studio\2022\Professional\VC\Tools\MSVC\14.44.35207\include\xmemory

; 253  :             return _Allocate_manually_vector_aligned<_Traits>(_Bytes);

  001ac	50		 push	 eax
  001ad	e8 00 00 00 00	 call	 ??$_Allocate_manually_vector_aligned@U_Default_allocate_traits@std@@@std@@YAPAXI@Z ; std::_Allocate_manually_vector_aligned<std::_Default_allocate_traits>
  001b2	eb 24		 jmp	 SHORT $LN102@LoadScript
$LN45@LoadScript:
; File C:\Program Files\Microsoft Visual Studio\2022\Professional\VC\Tools\MSVC\14.44.35207\include\xstring

; 2987 :         return (_STD max)(_Masked, _Old + _Old / 2);

  001b4	8d 04 0a	 lea	 eax, DWORD PTR [edx+ecx]
  001b7	3b f8		 cmp	 edi, eax
  001b9	0f 42 f8	 cmovb	 edi, eax

; 825  :         ++_Capacity; // Take null terminator into consideration

  001bc	8d 47 01	 lea	 eax, DWORD PTR [edi+1]
; File C:\Program Files\Microsoft Visual Studio\2022\Professional\VC\Tools\MSVC\14.44.35207\include\xmemory

; 227  :     if (_Bytes == 0) {

  001bf	85 c0		 test	 eax, eax
  001c1	74 18		 je	 SHORT $LN101@LoadScript
$LN58@LoadScript:

; 228  :         return nullptr;
; 229  :     }
; 230  : 
; 231  : #if _HAS_CXX20 // TRANSITION, GH-1532
; 232  :     if (_STD is_constant_evaluated()) {
; 233  :         return _Traits::_Allocate(_Bytes);
; 234  :     }
; 235  : #endif // _HAS_CXX20
; 236  : 
; 237  : #ifdef __cpp_aligned_new
; 238  :     if constexpr (_Align > __STDCPP_DEFAULT_NEW_ALIGNMENT__) {
; 239  :         size_t _Passed_align = _Align;
; 240  : #if defined(_M_IX86) || defined(_M_X64)
; 241  :         if (_Bytes >= _Big_allocation_threshold) {
; 242  :             // boost the alignment of big allocations to help autovectorization
; 243  :             _Passed_align = (_STD max)(_Align, _Big_allocation_alignment);
; 244  :         }
; 245  : #endif // defined(_M_IX86) || defined(_M_X64)
; 246  :         return _Traits::_Allocate_aligned(_Bytes, _Passed_align);
; 247  :     } else
; 248  : #endif // defined(__cpp_aligned_new)
; 249  :     {
; 250  : #if defined(_M_IX86) || defined(_M_X64)
; 251  :         if (_Bytes >= _Big_allocation_threshold) {

  001c3	3d 00 10 00 00	 cmp	 eax, 4096		; 00001000H
  001c8	72 08		 jb	 SHORT $LN59@LoadScript

; 253  :             return _Allocate_manually_vector_aligned<_Traits>(_Bytes);

  001ca	50		 push	 eax
  001cb	e8 00 00 00 00	 call	 ??$_Allocate_manually_vector_aligned@U_Default_allocate_traits@std@@@std@@YAPAXI@Z ; std::_Allocate_manually_vector_aligned<std::_Default_allocate_traits>
  001d0	eb 06		 jmp	 SHORT $LN102@LoadScript
$LN59@LoadScript:

; 136  :         return ::operator new(_Bytes);

  001d2	50		 push	 eax
  001d3	e8 00 00 00 00	 call	 ??2@YAPAXI@Z		; operator new
$LN102@LoadScript:
; File C:\Program Files\Microsoft Visual Studio\2022\Professional\VC\Tools\MSVC\14.44.35207\include\xstring

; 3009 :         _Mypair._Myval2._Mysize = _New_size;

  001d8	83 c4 04	 add	 esp, 4
$LN101@LoadScript:
; File C:\Program Files\Microsoft Visual Studio\2022\Professional\VC\Tools\MSVC\14.44.35207\include\__msvc_string_view.hpp

; 121  :         _CSTD memcpy(_First1, _First2, _Count * sizeof(_Elem));

  001db	56		 push	 esi
  001dc	ff 75 e8	 push	 DWORD PTR __Ptr$1$[ebp]
; File C:\Program Files\Microsoft Visual Studio\2022\Professional\VC\Tools\MSVC\14.44.35207\include\xstring

; 3009 :         _Mypair._Myval2._Mysize = _New_size;

  001df	89 45 f0	 mov	 DWORD PTR $T3[ebp], eax
  001e2	8d 43 10	 lea	 eax, DWORD PTR [ebx+16]

; 3010 :         _Mypair._Myval2._Myres  = _New_capacity;

  001e5	89 7b 14	 mov	 DWORD PTR [ebx+20], edi
; File C:\Program Files\Microsoft Visual Studio\2022\Professional\VC\Tools\MSVC\14.44.35207\include\__msvc_string_view.hpp

; 121  :         _CSTD memcpy(_First1, _First2, _Count * sizeof(_Elem));

  001e8	8b 7d f0	 mov	 edi, DWORD PTR $T3[ebp]
  001eb	57		 push	 edi
; File C:\Program Files\Microsoft Visual Studio\2022\Professional\VC\Tools\MSVC\14.44.35207\include\xstring

; 3009 :         _Mypair._Myval2._Mysize = _New_size;

  001ec	89 45 ec	 mov	 DWORD PTR $T2[ebp], eax
  001ef	89 30		 mov	 DWORD PTR [eax], esi
; File C:\Program Files\Microsoft Visual Studio\2022\Professional\VC\Tools\MSVC\14.44.35207\include\__msvc_string_view.hpp

; 121  :         _CSTD memcpy(_First1, _First2, _Count * sizeof(_Elem));

  001f1	e8 00 00 00 00	 call	 _memcpy
; File C:\Program Files\Microsoft Visual Studio\2022\Professional\VC\Tools\MSVC\14.44.35207\include\xstring

; 3012 :         if (_Old_capacity > _Small_string_capacity) {

  001f6	8b 45 e4	 mov	 eax, DWORD PTR __Old$1$[ebp]
; File C:\Program Files\Microsoft Visual Studio\2022\Professional\VC\Tools\MSVC\14.44.35207\include\__msvc_string_view.hpp

; 121  :         _CSTD memcpy(_First1, _First2, _Count * sizeof(_Elem));

  001f9	83 c4 0c	 add	 esp, 12			; 0000000cH
; File C:\Program Files\Microsoft Visual Studio\2022\Professional\VC\Tools\MSVC\14.44.35207\include\xstring

; 1632 :                 _Traits::assign(_New_ptr[_Count], _Elem());

  001fc	c6 04 37 00	 mov	 BYTE PTR [edi+esi], 0

; 3012 :         if (_Old_capacity > _Small_string_capacity) {

  00200	83 f8 0f	 cmp	 eax, 15			; 0000000fH
  00203	76 2d		 jbe	 SHORT $LN37@LoadScript

; 852  :         _Al.deallocate(_Old_ptr, _Capacity + 1); // +1 for null terminator

  00205	8d 48 01	 lea	 ecx, DWORD PTR [eax+1]
; File C:\Program Files\Microsoft Visual Studio\2022\Professional\VC\Tools\MSVC\14.44.35207\include\xmemory

; 985  :         _STD _Deallocate<_New_alignof<_Ty>>(_Ptr, sizeof(_Ty) * _Count);

  00208	8b 03		 mov	 eax, DWORD PTR [ebx]

; 284  :         if (_Bytes >= _Big_allocation_threshold) {

  0020a	81 f9 00 10 00
	00		 cmp	 ecx, 4096		; 00001000H
  00210	72 16		 jb	 SHORT $LN81@LoadScript

; 205  :     const uintptr_t _Ptr_container   = _Ptr_user[-1];

  00212	8b 50 fc	 mov	 edx, DWORD PTR [eax-4]
  00215	83 c1 23	 add	 ecx, 35			; 00000023H

; 206  : 
; 207  :     // If the following asserts, it likely means that we are performing
; 208  :     // an aligned delete on memory coming from an unaligned allocation.
; 209  :     _STL_ASSERT(_Ptr_user[-2] == _Big_allocation_sentinel, "invalid argument");
; 210  : 
