; Listing generated by Microsoft (R) Optimizing Compiler Version 19.44.35225.0 

	TITLE	C:\IAGOS\server\v18\Source\Output\WorldServer\Release\RainbowRace.obj
	.686P
	.XMM
	include listing.inc
	.model	flat

INCLUDELIB LIBCMT
INCLUDELIB OLDNAMES

CONST	SEGMENT
?piecewise_construct@std@@3Upiecewise_construct_t@1@B	ORG $+1 ; std::piecewise_construct
CONST	ENDS
PUBLIC	?__empty_global_delete@@YAXPAX@Z		; __empty_global_delete
PUBLIC	?__empty_global_delete@@YAXPAXI@Z		; __empty_global_delete
PUBLIC	___local_stdio_printf_options
PUBLIC	_sprintf
PUBLIC	??1?$CStringT@DV?$StrTraitMFC@DV?$ChTraitsCRT@D@ATL@@@@@ATL@@QAE@XZ ; ATL::CStringT<char,StrTraitMFC<char,ATL::ChTraitsCRT<char> > >::~CStringT<char,StrTraitMFC<char,ATL::ChTraitsCRT<char> > >
PUBLIC	??0exception@std@@QAE@ABV01@@Z			; std::exception::exception
PUBLIC	??1exception@std@@UAE@XZ			; std::exception::~exception
PUBLIC	?what@exception@std@@UBEPBDXZ			; std::exception::what
PUBLIC	??_Gexception@std@@UAEPAXI@Z			; std::exception::`scalar deleting destructor'
PUBLIC	??0bad_alloc@std@@QAE@ABV01@@Z			; std::bad_alloc::bad_alloc
PUBLIC	??_Gbad_alloc@std@@UAEPAXI@Z			; std::bad_alloc::`scalar deleting destructor'
PUBLIC	??0bad_array_new_length@std@@QAE@XZ		; std::bad_array_new_length::bad_array_new_length
PUBLIC	??1bad_array_new_length@std@@UAE@XZ		; std::bad_array_new_length::~bad_array_new_length
PUBLIC	??0bad_array_new_length@std@@QAE@ABV01@@Z	; std::bad_array_new_length::bad_array_new_length
PUBLIC	??_Gbad_array_new_length@std@@UAEPAXI@Z		; std::bad_array_new_length::`scalar deleting destructor'
PUBLIC	?_Throw_bad_array_new_length@std@@YAXXZ		; std::_Throw_bad_array_new_length
PUBLIC	?_Xlen_string@std@@YAXXZ			; std::_Xlen_string
PUBLIC	??1?$basic_string@DU?$char_traits@D@std@@V?$allocator@D@2@@std@@QAE@XZ ; std::basic_string<char,std::char_traits<char>,std::allocator<char> >::~basic_string<char,std::char_traits<char>,std::allocator<char> >
PUBLIC	?_Throw_tree_length_error@std@@YAXXZ		; std::_Throw_tree_length_error
PUBLIC	?deallocate@?$allocator@K@std@@QAEXQAKI@Z	; std::allocator<unsigned long>::deallocate
PUBLIC	??1?$vector@KV?$allocator@K@std@@@std@@QAE@XZ	; std::vector<unsigned long,std::allocator<unsigned long> >::~vector<unsigned long,std::allocator<unsigned long> >
PUBLIC	?push_back@?$vector@KV?$allocator@K@std@@@std@@QAEXABK@Z ; std::vector<unsigned long,std::allocator<unsigned long> >::push_back
PUBLIC	?_Change_array@?$vector@KV?$allocator@K@std@@@std@@AAEXQAKII@Z ; std::vector<unsigned long,std::allocator<unsigned long> >::_Change_array
PUBLIC	?_Xlength@?$vector@KV?$allocator@K@std@@@std@@CAXXZ ; std::vector<unsigned long,std::allocator<unsigned long> >::_Xlength
PUBLIC	?GetText@CProject@@QAEPBDK@Z			; CProject::GetText
PUBLIC	??$_Allocate_manually_vector_aligned@U_Default_allocate_traits@std@@@std@@YAPAXI@Z ; std::_Allocate_manually_vector_aligned<std::_Default_allocate_traits>
PUBLIC	??$?6G@CAr@@QAEAAV0@ABG@Z			; CAr::operator<<<unsigned short>
PUBLIC	??$?5G@CAr@@QAEAAV0@AAG@Z			; CAr::operator>><unsigned short>
PUBLIC	??0CRainbowRace@@QAE@XZ				; CRainbowRace::CRainbowRace
PUBLIC	??1CRainbowRace@@QAE@XZ				; CRainbowRace::~CRainbowRace
PUBLIC	?DestroyGame@CRainbowRace@@QAEXXZ		; CRainbowRace::DestroyGame
PUBLIC	?Serialize@CRainbowRace@@QAEXAAVCAr@@@Z		; CRainbowRace::Serialize
PUBLIC	?IsCompletedGame@CRainbowRace@@QAEHH@Z		; CRainbowRace::IsCompletedGame
PUBLIC	?SetNowGameComplete@CRainbowRace@@QAEXPAVCUser@@@Z ; CRainbowRace::SetNowGameComplete
PUBLIC	?SetNextMiniGame@CRainbowRace@@QAEXXZ		; CRainbowRace::SetNextMiniGame
PUBLIC	?OnMiniGamePacket@CRainbowRace@@QAEXPAVCUser@@PAU__MINIGAME_PACKET@@@Z ; CRainbowRace::OnMiniGamePacket
PUBLIC	?GetCompletedGameNum@CRainbowRace@@AAEHXZ	; CRainbowRace::GetCompletedGameNum
PUBLIC	?SetMiniGame@CRainbowRace@@AAEXH@Z		; CRainbowRace::SetMiniGame
PUBLIC	??0CRainbowRaceMng@@QAE@XZ			; CRainbowRaceMng::CRainbowRaceMng
PUBLIC	??1CRainbowRaceMng@@QAE@XZ			; CRainbowRaceMng::~CRainbowRaceMng
PUBLIC	?Init@CRainbowRaceMng@@QAEHXZ			; CRainbowRaceMng::Init
PUBLIC	?Clear@CRainbowRaceMng@@QAEXXZ			; CRainbowRaceMng::Clear
PUBLIC	?GetInstance@CRainbowRaceMng@@SAPAV1@XZ		; CRainbowRaceMng::GetInstance
PUBLIC	?LoadScript@CRainbowRaceMng@@QAEHXZ		; CRainbowRaceMng::LoadScript
PUBLIC	?Process@CRainbowRaceMng@@QAEXXZ		; CRainbowRaceMng::Process
PUBLIC	?GetRainbowRacerPtr@CRainbowRaceMng@@QAEPAVCRainbowRace@@K@Z ; CRainbowRaceMng::GetRainbowRacerPtr
PUBLIC	?IsEntry@CRainbowRaceMng@@QAEHK@Z		; CRainbowRaceMng::IsEntry
PUBLIC	?SetApplicationUser@CRainbowRaceMng@@QAEXPAVCUser@@@Z ; CRainbowRaceMng::SetApplicationUser
PUBLIC	?SetApplication@CRainbowRaceMng@@QAEXK@Z	; CRainbowRaceMng::SetApplication
PUBLIC	?SetDropOut@CRainbowRaceMng@@QAEHK@Z		; CRainbowRaceMng::SetDropOut
PUBLIC	?OnMiniGamePacket@CRainbowRaceMng@@QAEXPAVCUser@@PAU__MINIGAME_PACKET@@@Z ; CRainbowRaceMng::OnMiniGamePacket
PUBLIC	?SetRanking@CRainbowRaceMng@@QAEXPAVCUser@@@Z	; CRainbowRaceMng::SetRanking
PUBLIC	?SetPrevRanking@CRainbowRaceMng@@QAEXAAV?$vector@KV?$allocator@K@std@@@std@@@Z ; CRainbowRaceMng::SetPrevRanking
PUBLIC	?GetPrevRanking@CRainbowRaceMng@@QAE?AV?$vector@KV?$allocator@K@std@@@std@@XZ ; CRainbowRaceMng::GetPrevRanking
PUBLIC	??1?$vector@UMINIGMAME_PRIZE_LIST@CRainbowRaceMng@@V?$allocator@UMINIGMAME_PRIZE_LIST@CRainbowRaceMng@@@std@@@std@@QAE@XZ ; std::vector<CRainbowRaceMng::MINIGMAME_PRIZE_LIST,std::allocator<CRainbowRaceMng::MINIGMAME_PRIZE_LIST> >::~vector<CRainbowRaceMng::MINIGMAME_PRIZE_LIST,std::allocator<CRainbowRaceMng::MINIGMAME_PRIZE_LIST> >
PUBLIC	?_Xlength@?$vector@UMINIGMAME_PRIZE_LIST@CRainbowRaceMng@@V?$allocator@UMINIGMAME_PRIZE_LIST@CRainbowRaceMng@@@std@@@std@@CAXXZ ; std::vector<CRainbowRaceMng::MINIGMAME_PRIZE_LIST,std::allocator<CRainbowRaceMng::MINIGMAME_PRIZE_LIST> >::_Xlength
PUBLIC	?SetMiniGamePrize@CRainbowRaceMng@@AAEXK@Z	; CRainbowRaceMng::SetMiniGamePrize
PUBLIC	?IsApplicationTime@CRainbowRaceMng@@AAEHXZ	; CRainbowRaceMng::IsApplicationTime
PUBLIC	?IsOpenTime@CRainbowRaceMng@@AAEHXZ		; CRainbowRaceMng::IsOpenTime
PUBLIC	?BeginRainbowRace@CRainbowRaceMng@@AAEXXZ	; CRainbowRaceMng::BeginRainbowRace
PUBLIC	?SetNPC@CRainbowRaceMng@@AAEXXZ			; CRainbowRaceMng::SetNPC
PUBLIC	?RemoveNPC@CRainbowRaceMng@@AAEXXZ		; CRainbowRaceMng::RemoveNPC
PUBLIC	?SetPrize@CRainbowRaceMng@@AAEXXZ		; CRainbowRaceMng::SetPrize
PUBLIC	??1?$_Tree@V?$_Tmap_traits@KPAVCRainbowRace@@U?$less@K@std@@V?$allocator@U?$pair@$$CBKPAVCRainbowRace@@@std@@@3@$0A@@std@@@std@@QAE@XZ ; std::_Tree<std::_Tmap_traits<unsigned long,CRainbowRace *,std::less<unsigned long>,std::allocator<std::pair<unsigned long const ,CRainbowRace *> >,0> >::~_Tree<std::_Tmap_traits<unsigned long,CRainbowRace *,std::less<unsigned long>,std::allocator<std::pair<unsigned long const ,CRainbowRace *> >,0> >
PUBLIC	?_Lrotate@?$_Tree_val@U?$_Tree_simple_types@U?$pair@$$CBKPAVCRainbowRace@@@std@@@std@@@std@@QAEXPAU?$_Tree_node@U?$pair@$$CBKPAVCRainbowRace@@@std@@PAX@2@@Z ; std::_Tree_val<std::_Tree_simple_types<std::pair<unsigned long const ,CRainbowRace *> > >::_Lrotate
PUBLIC	?_Rrotate@?$_Tree_val@U?$_Tree_simple_types@U?$pair@$$CBKPAVCRainbowRace@@@std@@@std@@@std@@QAEXPAU?$_Tree_node@U?$pair@$$CBKPAVCRainbowRace@@@std@@PAX@2@@Z ; std::_Tree_val<std::_Tree_simple_types<std::pair<unsigned long const ,CRainbowRace *> > >::_Rrotate
PUBLIC	?_Extract@?$_Tree_val@U?$_Tree_simple_types@U?$pair@$$CBKPAVCRainbowRace@@@std@@@std@@@std@@QAEPAU?$_Tree_node@U?$pair@$$CBKPAVCRainbowRace@@@std@@PAX@2@V?$_Tree_unchecked_const_iterator@V?$_Tree_val@U?$_Tree_simple_types@U?$pair@$$CBKPAVCRainbowRace@@@std@@@std@@@std@@U_Iterator_base0@2@@2@@Z ; std::_Tree_val<std::_Tree_simple_types<std::pair<unsigned long const ,CRainbowRace *> > >::_Extract
PUBLIC	?_Insert_node@?$_Tree_val@U?$_Tree_simple_types@U?$pair@$$CBKPAVCRainbowRace@@@std@@@std@@@std@@QAEPAU?$_Tree_node@U?$pair@$$CBKPAVCRainbowRace@@@std@@PAX@2@U?$_Tree_id@PAU?$_Tree_node@U?$pair@$$CBKPAVCRainbowRace@@@std@@PAX@std@@@2@QAU32@@Z ; std::_Tree_val<std::_Tree_simple_types<std::pair<unsigned long const ,CRainbowRace *> > >::_Insert_node
PUBLIC	??1?$map@KPAVCRainbowRace@@U?$less@K@std@@V?$allocator@U?$pair@$$CBKPAVCRainbowRace@@@std@@@3@@std@@QAE@XZ ; std::map<unsigned long,CRainbowRace *,std::less<unsigned long>,std::allocator<std::pair<unsigned long const ,CRainbowRace *> > >::~map<unsigned long,CRainbowRace *,std::less<unsigned long>,std::allocator<std::pair<unsigned long const ,CRainbowRace *> > >
PUBLIC	??1?$vector@PAVCMiniGameBase@@V?$allocator@PAVCMiniGameBase@@@std@@@std@@QAE@XZ ; std::vector<CMiniGameBase *,std::allocator<CMiniGameBase *> >::~vector<CMiniGameBase *,std::allocator<CMiniGameBase *> >
PUBLIC	?_Xlength@?$vector@PAVCMiniGameBase@@V?$allocator@PAVCMiniGameBase@@@std@@@std@@CAXXZ ; std::vector<CMiniGameBase *,std::allocator<CMiniGameBase *> >::_Xlength
PUBLIC	??$?6K@CAr@@QAEAAV0@ABK@Z			; CAr::operator<<<unsigned long>
PUBLIC	??E?$_Tree_unchecked_const_iterator@V?$_Tree_val@U?$_Tree_simple_types@U?$pair@$$CBKPAVCRainbowRace@@@std@@@std@@@std@@U_Iterator_base0@2@@std@@QAEAAV01@XZ ; std::_Tree_unchecked_const_iterator<std::_Tree_val<std::_Tree_simple_types<std::pair<unsigned long const ,CRainbowRace *> > >,std::_Iterator_base0>::operator++
PUBLIC	??$assign@V?$_Vector_iterator@V?$_Vector_val@U?$_Simple_types@K@std@@@std@@@std@@$0A@@?$vector@KV?$allocator@K@std@@@std@@QAEXV?$_Vector_iterator@V?$_Vector_val@U?$_Simple_types@K@std@@@std@@@1@0@Z ; std::vector<unsigned long,std::allocator<unsigned long> >::assign<std::_Vector_iterator<std::_Vector_val<std::_Simple_types<unsigned long> > >,0>
PUBLIC	??$_Resize@PAVCMiniGameBase@@@?$vector@PAVCMiniGameBase@@V?$allocator@PAVCMiniGameBase@@@std@@@std@@AAEXIABQAVCMiniGameBase@@@Z ; std::vector<CMiniGameBase *,std::allocator<CMiniGameBase *> >::_Resize<CMiniGameBase *>
PUBLIC	??$_Erase_tree@V?$allocator@U?$_Tree_node@U?$pair@$$CBKPAVCRainbowRace@@@std@@PAX@std@@@std@@@?$_Tree_val@U?$_Tree_simple_types@U?$pair@$$CBKPAVCRainbowRace@@@std@@@std@@@std@@QAEXAAV?$allocator@U?$_Tree_node@U?$pair@$$CBKPAVCRainbowRace@@@std@@PAX@std@@@1@PAU?$_Tree_node@U?$pair@$$CBKPAVCRainbowRace@@@std@@PAX@1@@Z ; std::_Tree_val<std::_Tree_simple_types<std::pair<unsigned long const ,CRainbowRace *> > >::_Erase_tree<std::allocator<std::_Tree_node<std::pair<unsigned long const ,CRainbowRace *>,void *> > >
PUBLIC	??$_Copy_memmove_n@PAKPAK@std@@YAPAKPAKI0@Z	; std::_Copy_memmove_n<unsigned long *,unsigned long *>
PUBLIC	??$_Uninitialized_fill_n@V?$allocator@PAVCMiniGameBase@@@std@@@std@@YAPAPAVCMiniGameBase@@PAPAV1@IABQAV1@AAV?$allocator@PAVCMiniGameBase@@@0@@Z ; std::_Uninitialized_fill_n<std::allocator<CMiniGameBase *> >
PUBLIC	??$_Find_lower_bound@K@?$_Tree@V?$_Tmap_traits@KPAVCRainbowRace@@U?$less@K@std@@V?$allocator@U?$pair@$$CBKPAVCRainbowRace@@@std@@@3@$0A@@std@@@std@@IBE?AU?$_Tree_find_result@PAU?$_Tree_node@U?$pair@$$CBKPAVCRainbowRace@@@std@@PAX@std@@@1@ABK@Z ; std::_Tree<std::_Tmap_traits<unsigned long,CRainbowRace *,std::less<unsigned long>,std::allocator<std::pair<unsigned long const ,CRainbowRace *> >,0> >::_Find_lower_bound<unsigned long>
PUBLIC	??$_Copy_memmove@PAUMINIGMAME_PRIZE_LIST@CRainbowRaceMng@@PAU12@@std@@YAPAUMINIGMAME_PRIZE_LIST@CRainbowRaceMng@@PAU12@00@Z ; std::_Copy_memmove<CRainbowRaceMng::MINIGMAME_PRIZE_LIST *,CRainbowRaceMng::MINIGMAME_PRIZE_LIST *>
PUBLIC	??$_Emplace_reallocate@UMINIGMAME_PRIZE_LIST@CRainbowRaceMng@@@?$vector@UMINIGMAME_PRIZE_LIST@CRainbowRaceMng@@V?$allocator@UMINIGMAME_PRIZE_LIST@CRainbowRaceMng@@@std@@@std@@AAEPAUMINIGMAME_PRIZE_LIST@CRainbowRaceMng@@QAU23@$$QAU23@@Z ; std::vector<CRainbowRaceMng::MINIGMAME_PRIZE_LIST,std::allocator<CRainbowRaceMng::MINIGMAME_PRIZE_LIST> >::_Emplace_reallocate<CRainbowRaceMng::MINIGMAME_PRIZE_LIST>
PUBLIC	??1?$_Alloc_construct_ptr@V?$allocator@U?$_Tree_node@U?$pair@$$CBKPAVCRainbowRace@@@std@@PAX@std@@@std@@@std@@QAE@XZ ; std::_Alloc_construct_ptr<std::allocator<std::_Tree_node<std::pair<unsigned long const ,CRainbowRace *>,void *> > >::~_Alloc_construct_ptr<std::allocator<std::_Tree_node<std::pair<unsigned long const ,CRainbowRace *>,void *> > >
PUBLIC	??$_Copy_memmove_tail@PAK@std@@YAPAKQBDQAKII@Z	; std::_Copy_memmove_tail<unsigned long *>
PUBLIC	??$_Is_all_bits_zero@PAVCMiniGameBase@@@std@@YA_NABQAVCMiniGameBase@@@Z ; std::_Is_all_bits_zero<CMiniGameBase *>
PUBLIC	??$_Fill_zero_memset@PAPAVCMiniGameBase@@@std@@YAXPAPAVCMiniGameBase@@I@Z ; std::_Fill_zero_memset<CMiniGameBase * *>
PUBLIC	??$_Copy_memmove_tail@PAUMINIGMAME_PRIZE_LIST@CRainbowRaceMng@@@std@@YAPAUMINIGMAME_PRIZE_LIST@CRainbowRaceMng@@QBDQAU12@II@Z ; std::_Copy_memmove_tail<CRainbowRaceMng::MINIGMAME_PRIZE_LIST *>
PUBLIC	??$_Copy_memmove@PAPAVCMiniGameBase@@PAPAV1@@std@@YAPAPAVCMiniGameBase@@PAPAV1@00@Z ; std::_Copy_memmove<CMiniGameBase * *,CMiniGameBase * *>
PUBLIC	??$_Copy_memmove@PAKPAK@std@@YAPAKPAK00@Z	; std::_Copy_memmove<unsigned long *,unsigned long *>
PUBLIC	??$_Copy_memmove_tail@PAPAVCMiniGameBase@@@std@@YAPAPAVCMiniGameBase@@QBDQAPAV1@II@Z ; std::_Copy_memmove_tail<CMiniGameBase * *>
PUBLIC	?_OptionsStorage@?1??__local_stdio_printf_options@@9@4_KA ; `__local_stdio_printf_options'::`2'::_OptionsStorage
PUBLIC	??_C@_00CNPNBAHC@@				; `string'
PUBLIC	??_7exception@std@@6B@				; std::exception::`vftable'
PUBLIC	??_C@_0BC@EOODALEL@Unknown?5exception@		; `string'
PUBLIC	??_7bad_alloc@std@@6B@				; std::bad_alloc::`vftable'
PUBLIC	??_7bad_array_new_length@std@@6B@		; std::bad_array_new_length::`vftable'
PUBLIC	??_C@_0BF@KINCDENJ@bad?5array?5new?5length@	; `string'
PUBLIC	??_R0?AVexception@std@@@8			; std::exception `RTTI Type Descriptor'
PUBLIC	__CT??_R0?AVexception@std@@@8??0exception@std@@QAE@ABV01@@Z12
PUBLIC	__TI3?AVbad_array_new_length@std@@
PUBLIC	__CTA3?AVbad_array_new_length@std@@
PUBLIC	??_R0?AVbad_array_new_length@std@@@8		; std::bad_array_new_length `RTTI Type Descriptor'
PUBLIC	__CT??_R0?AVbad_array_new_length@std@@@8??0bad_array_new_length@std@@QAE@ABV01@@Z12
PUBLIC	??_R0?AVbad_alloc@std@@@8			; std::bad_alloc `RTTI Type Descriptor'
PUBLIC	__CT??_R0?AVbad_alloc@std@@@8??0bad_alloc@std@@QAE@ABV01@@Z12
PUBLIC	??_C@_0BA@JFNIOLAK@string?5too?5long@		; `string'
PUBLIC	??_C@_0BB@GCADKGJO@map?1set?5too?5long@		; `string'
PUBLIC	??_C@_01MCMALHOG@a@				; `string'
PUBLIC	??_C@_0BM@HMFGHCP@?$CFs?5min?3?$CFd?0?5max?3?$CFd?0?5index?3?$CFd@ ; `string'
PUBLIC	??_C@_0BI@BEIFNGEL@GetItemProp?5range_error@	; `string'
PUBLIC	??_C@_0BE@OHDBLHOM@GetText?5range_error@	; `string'
PUBLIC	??_C@_05KKCIMGE@error@				; `string'
PUBLIC	??_C@_0BA@FOIKENOD@vector?5too?5long@		; `string'
PUBLIC	??_R4exception@std@@6B@				; std::exception::`RTTI Complete Object Locator'
PUBLIC	??_R3exception@std@@8				; std::exception::`RTTI Class Hierarchy Descriptor'
PUBLIC	??_R2exception@std@@8				; std::exception::`RTTI Base Class Array'
PUBLIC	??_R1A@?0A@EA@exception@std@@8			; std::exception::`RTTI Base Class Descriptor at (0,-1,0,64)'
PUBLIC	??_R4bad_array_new_length@std@@6B@		; std::bad_array_new_length::`RTTI Complete Object Locator'
PUBLIC	??_R3bad_array_new_length@std@@8		; std::bad_array_new_length::`RTTI Class Hierarchy Descriptor'
PUBLIC	??_R2bad_array_new_length@std@@8		; std::bad_array_new_length::`RTTI Base Class Array'
PUBLIC	??_R1A@?0A@EA@bad_array_new_length@std@@8	; std::bad_array_new_length::`RTTI Base Class Descriptor at (0,-1,0,64)'
PUBLIC	??_R1A@?0A@EA@bad_alloc@std@@8			; std::bad_alloc::`RTTI Base Class Descriptor at (0,-1,0,64)'
PUBLIC	??_R3bad_alloc@std@@8				; std::bad_alloc::`RTTI Class Hierarchy Descriptor'
PUBLIC	??_R2bad_alloc@std@@8				; std::bad_alloc::`RTTI Base Class Array'
PUBLIC	??_R4bad_alloc@std@@6B@				; std::bad_alloc::`RTTI Complete Object Locator'
PUBLIC	??_C@_0BA@OBGJEHGO@RainbowRace?4lua@		; `string'
PUBLIC	??_C@_0BO@ICACELGC@RainbowRace?4lua?5Load?5Failed?$CB?$CB@ ; `string'
PUBLIC	??_C@_09PFMGHMMG@Wait_Time@			; `string'
PUBLIC	??_C@_0L@MLMNOHKN@Ready_Time@			; `string'
PUBLIC	??_C@_0O@MFDJJFBC@Progress_Time@		; `string'
PUBLIC	??_C@_0BC@KJBDAEHN@IsApplicationTime@		; `string'
PUBLIC	??_C@_0L@LBDABBNP@IsOpenTime@			; `string'
PUBLIC	??_C@_0BC@FPLPGDON@GM?5Application?4?4?4@	; `string'
PUBLIC	??_C@_0M@KIHAHFBP@GetPayPenya@			; `string'
PUBLIC	??_C@_0BB@EEDDJJBJ@RAINBOW_RACE_APP@		; `string'
PUBLIC	??_C@_04PJKMFDJF@tNPC@				; `string'
PUBLIC	??_C@_08HJAPABMB@strNPCId@			; `string'
PUBLIC	??_C@_0L@HBEKAIME@strCharKey@			; `string'
PUBLIC	??_C@_04HMOLAKGG@xPos@				; `string'
PUBLIC	??_C@_04EBILCDNG@yPos@				; `string'
PUBLIC	??_C@_04GCLFJAG@zPos@				; `string'
PUBLIC	??_C@_0DE@LIKGMGCG@CRainbowRaceMng?3?3SetNPC?$CI?$CJ?5?9?5pMo@ ; `string'
PUBLIC	??_C@_08KLHHKOMN@GetPrize@			; `string'
PUBLIC	??_C@_09OFFFBNFE@strItemId@			; `string'
PUBLIC	??_C@_08GDJLCBND@nItemNum@			; `string'
PUBLIC	??_C@_06JHHNJIGB@byFlag@			; `string'
PUBLIC	??_C@_06BIHJGOPK@nPenya@			; `string'
PUBLIC	??_C@_0BB@DMGDJGLH@GetMiniGamePrize@		; `string'
EXTRN	??2@YAPAXI@Z:PROC				; operator new
EXTRN	??3@YAXPAXI@Z:PROC				; operator delete
EXTRN	_atexit:PROC
EXTRN	__Init_thread_header:PROC
EXTRN	__Init_thread_abort:PROC
EXTRN	__Init_thread_footer:PROC
EXTRN	__invoke_watson:PROC
EXTRN	__imp__GetTickCount@0:PROC
EXTRN	__imp__lstrcpyA@8:PROC
EXTRN	___stdio_common_vsprintf:PROC
EXTRN	_exit:PROC
EXTRN	___std_exception_copy:PROC
EXTRN	___std_exception_destroy:PROC
EXTRN	??_Eexception@std@@UAEPAXI@Z:PROC		; std::exception::`vector deleting destructor'
EXTRN	??_Ebad_alloc@std@@UAEPAXI@Z:PROC		; std::bad_alloc::`vector deleting destructor'
EXTRN	??_Ebad_array_new_length@std@@UAEPAXI@Z:PROC	; std::bad_array_new_length::`vector deleting destructor'
EXTRN	?_Xlength_error@std@@YAXPBD@Z:PROC		; std::_Xlength_error
EXTRN	?GetDefineNum@CScript@@SAHPBD@Z:PROC		; CScript::GetDefineNum
EXTRN	?Error@@YAPBDPBDZZ:PROC				; Error
EXTRN	?UpdateLocalMatrix@CObj@@QAEXXZ:PROC		; CObj::UpdateLocalMatrix
EXTRN	?Delete@CObj@@QAEXXZ:PROC			; CObj::Delete
EXTRN	?SetPos@CObj@@QAEXABUD3DXVECTOR3@@@Z:PROC	; CObj::SetPos
EXTRN	_lua_type:PROC
EXTRN	_lua_tonumberx:PROC
EXTRN	_lua_toboolean:PROC
EXTRN	_lua_pushnil:PROC
EXTRN	_lua_pushnumber:PROC
EXTRN	_lua_getglobal:PROC
EXTRN	_lua_next:PROC
EXTRN	??0CLuaBase@@QAE@XZ:PROC			; CLuaBase::CLuaBase
EXTRN	??1CLuaBase@@UAE@XZ:PROC			; CLuaBase::~CLuaBase
EXTRN	?RunScript@CLuaBase@@QAEHPBD@Z:PROC		; CLuaBase::RunScript
EXTRN	?Pop@CLuaBase@@QAEXH@Z:PROC			; CLuaBase::Pop
EXTRN	?GetGlobalNumber@CLuaBase@@QAENPAD@Z:PROC	; CLuaBase::GetGlobalNumber
EXTRN	?GetFieldToNumber@CLuaBase@@QAENHPAD@Z:PROC	; CLuaBase::GetFieldToNumber
EXTRN	?GetFieldToString@CLuaBase@@QAEPBDHPAD@Z:PROC	; CLuaBase::GetFieldToString
EXTRN	?GetLuaFunction@CLuaBase@@QAEHPAD@Z:PROC	; CLuaBase::GetLuaFunction
EXTRN	?CallLuaFunction@CLuaBase@@QAEXHH@Z:PROC	; CLuaBase::CallLuaFunction
EXTRN	?GetMover@CProject@@QAEPAVCMover@@K@Z:PROC	; CProject::GetMover
EXTRN	?GetName@CItemElem@@QAE?AV?$CStringT@DV?$StrTraitMFC@DV?$ChTraitsCRT@D@ATL@@@@@ATL@@XZ:PROC ; CItemElem::GetName
EXTRN	??0CItemElem@@QAE@XZ:PROC			; CItemElem::CItemElem
EXTRN	??1CItemElem@@UAE@XZ:PROC			; CItemElem::~CItemElem
EXTRN	?CheckBuf@CAr@@QAEXI@Z:PROC			; CAr::CheckBuf
EXTRN	?InitCharacter@CMover@@QAEXPAUtagCHARACTER@@@Z:PROC ; CMover::InitCharacter
EXTRN	?GetCharacter@CMover@@QAEPAUtagCHARACTER@@XZ:PROC ; CMover::GetCharacter
EXTRN	?InitNPCProperty@CMover@@QAEXXZ:PROC		; CMover::InitNPCProperty
EXTRN	?AddGold@CMover@@QAEHHH@Z:PROC			; CMover::AddGold
EXTRN	?AddObj@CWorld@@QAEHPAVCObj@@HH@Z:PROC		; CWorld::AddObj
EXTRN	?CreateObj@@YAPAVCObj@@PAUIDirect3DDevice9@@KKH@Z:PROC ; CreateObj
EXTRN	?GetState@CFlyffEvent@@QAEEH@Z:PROC		; CFlyffEvent::GetState
EXTRN	??0CMiniGameGawibawibo@@QAE@XZ:PROC		; CMiniGameGawibawibo::CMiniGameGawibawibo
EXTRN	??0CMiniGameGawibawibo@@QAE@PAVCMiniGameBase@@@Z:PROC ; CMiniGameGawibawibo::CMiniGameGawibawibo
EXTRN	??0CMiniGameDiceplay@@QAE@XZ:PROC		; CMiniGameDiceplay::CMiniGameDiceplay
EXTRN	??0CMiniGameDiceplay@@QAE@PAVCMiniGameBase@@@Z:PROC ; CMiniGameDiceplay::CMiniGameDiceplay
EXTRN	??0CMiniGameArithmetic@@QAE@XZ:PROC		; CMiniGameArithmetic::CMiniGameArithmetic
EXTRN	??0CMiniGameArithmetic@@QAE@PAVCMiniGameBase@@@Z:PROC ; CMiniGameArithmetic::CMiniGameArithmetic
EXTRN	??0CMiniGameStopwatch@@QAE@XZ:PROC		; CMiniGameStopwatch::CMiniGameStopwatch
EXTRN	??0CMiniGameStopwatch@@QAE@PAVCMiniGameBase@@@Z:PROC ; CMiniGameStopwatch::CMiniGameStopwatch
EXTRN	??0CMiniGameTyping@@QAE@XZ:PROC			; CMiniGameTyping::CMiniGameTyping
EXTRN	??0CMiniGameTyping@@QAE@PAVCMiniGameBase@@@Z:PROC ; CMiniGameTyping::CMiniGameTyping
EXTRN	??0CMiniGamePairgame@@QAE@XZ:PROC		; CMiniGamePairgame::CMiniGamePairgame
EXTRN	??0CMiniGamePairgame@@QAE@PAVCMiniGameBase@@@Z:PROC ; CMiniGamePairgame::CMiniGamePairgame
EXTRN	??0CMiniGameLadder@@QAE@XZ:PROC			; CMiniGameLadder::CMiniGameLadder
EXTRN	??0CMiniGameLadder@@QAE@PAVCMiniGameBase@@@Z:PROC ; CMiniGameLadder::CMiniGameLadder
EXTRN	?SendCaption@CDPCoreClient@@QAEXPBDKH@Z:PROC	; CDPCoreClient::SendCaption
EXTRN	?GetWorld@CWorldMng@@QAEPAVCWorld@@K@Z:PROC	; CWorldMng::GetWorld
EXTRN	?GetInstance@CPlayerDataCenter@@SAPAV1@XZ:PROC	; CPlayerDataCenter::GetInstance
EXTRN	?GetPlayerString@CPlayerDataCenter@@QAEPBDK@Z:PROC ; CPlayerDataCenter::GetPlayerString
EXTRN	?AddDiagText@CUser@@QAEXPBD@Z:PROC		; CUser::AddDiagText
EXTRN	?AddText@CUser@@QAEXPBD@Z:PROC			; CUser::AddText
EXTRN	?AddDefinedText@CUser@@QAEXH@Z:PROC		; CUser::AddDefinedText
EXTRN	?AddRainbowRaceState@CUser@@QAEXPAVCRainbowRace@@@Z:PROC ; CUser::AddRainbowRaceState
EXTRN	?AddCreateSfxObj@CUserMng@@QAEXPAVCCtrl@@KMMMH@Z:PROC ; CUserMng::AddCreateSfxObj
EXTRN	?PutPenyaLog@CDPSrvr@@QAEXPAVCUser@@PBD1H@Z:PROC ; CDPSrvr::PutPenyaLog
EXTRN	?SendQueryPostMail@CDPDatabaseClient@@QAEXKKAAVCItemElem@@HPAD1@Z:PROC ; CDPDatabaseClient::SendQueryPostMail
EXTRN	?SendRainbowRaceApplication@CDPDatabaseClient@@QAEXK@Z:PROC ; CDPDatabaseClient::SendRainbowRaceApplication
EXTRN	?SendRainbowRaceFailedUser@CDPDatabaseClient@@QAEXK@Z:PROC ; CDPDatabaseClient::SendRainbowRaceFailedUser
EXTRN	?SendRainbowRaceRanking@CDPDatabaseClient@@QAEXKH@Z:PROC ; CDPDatabaseClient::SendRainbowRaceRanking
EXTRN	@__security_check_cookie@4:PROC
EXTRN	__CxxThrowException@8:PROC
EXTRN	___CxxFrameHandler3:PROC
EXTRN	__dtol3:PROC
EXTRN	_memcpy:PROC
EXTRN	_memmove:PROC
EXTRN	_memset:PROC
EXTRN	__Init_thread_epoch:DWORD
EXTRN	??_7type_info@@6B@:QWORD			; type_info::`vftable'
EXTRN	?g_next@@3KA:DWORD				; g_next
EXTRN	?prj@@3VCProject@@A:BYTE			; prj
EXTRN	?g_eLocal@@3VCFlyffEvent@@A:BYTE		; g_eLocal
EXTRN	?g_DPCoreClient@@3VCDPCoreClient@@A:BYTE	; g_DPCoreClient
EXTRN	?g_WorldMng@@3VCWorldMng@@A:BYTE		; g_WorldMng
EXTRN	?g_UserMng@@3VCUserMng@@A:BYTE			; g_UserMng
EXTRN	?g_DPSrvr@@3VCDPSrvr@@A:BYTE			; g_DPSrvr
EXTRN	?g_dpDBClient@@3VCDPDatabaseClient@@A:BYTE	; g_dpDBClient
EXTRN	___security_cookie:DWORD
EXTRN	__fltused:DWORD
EXTRN	__tls_array:DWORD
EXTRN	__tls_index:DWORD
;	COMDAT ?_OptionsStorage@?1??__local_stdio_printf_options@@9@4_KA
_BSS	SEGMENT
?_OptionsStorage@?1??__local_stdio_printf_options@@9@4_KA DQ 01H DUP (?) ; `__local_stdio_printf_options'::`2'::_OptionsStorage
_BSS	ENDS
;	COMDAT ?sRainbowRace@?1??GetInstance@CRainbowRaceMng@@SAPAV2@XZ@4V2@A
_BSS	SEGMENT
?sRainbowRace@?1??GetInstance@CRainbowRaceMng@@SAPAV2@XZ@4V2@A DB 054H DUP (?) ; `CRainbowRaceMng::GetInstance'::`2'::sRainbowRace
_BSS	ENDS
;	COMDAT ?$TSS0@?1??GetInstance@CRainbowRaceMng@@SAPAV2@XZ@4HA
_BSS	SEGMENT
?$TSS0@?1??GetInstance@CRainbowRaceMng@@SAPAV2@XZ@4HA DD 01H DUP (?) ; `CRainbowRaceMng::GetInstance'::`2'::$TSS0
_BSS	ENDS
;	COMDAT ??_C@_0BB@DMGDJGLH@GetMiniGamePrize@
CONST	SEGMENT
??_C@_0BB@DMGDJGLH@GetMiniGamePrize@ DB 'GetMiniGamePrize', 00H ; `string'
CONST	ENDS
;	COMDAT ??_C@_06BIHJGOPK@nPenya@
CONST	SEGMENT
??_C@_06BIHJGOPK@nPenya@ DB 'nPenya', 00H		; `string'
CONST	ENDS
;	COMDAT ??_C@_06JHHNJIGB@byFlag@
CONST	SEGMENT
??_C@_06JHHNJIGB@byFlag@ DB 'byFlag', 00H		; `string'
CONST	ENDS
;	COMDAT ??_C@_08GDJLCBND@nItemNum@
CONST	SEGMENT
??_C@_08GDJLCBND@nItemNum@ DB 'nItemNum', 00H		; `string'
CONST	ENDS
;	COMDAT ??_C@_09OFFFBNFE@strItemId@
CONST	SEGMENT
??_C@_09OFFFBNFE@strItemId@ DB 'strItemId', 00H		; `string'
CONST	ENDS
;	COMDAT ??_C@_08KLHHKOMN@GetPrize@
CONST	SEGMENT
??_C@_08KLHHKOMN@GetPrize@ DB 'GetPrize', 00H		; `string'
CONST	ENDS
;	COMDAT ??_C@_0DE@LIKGMGCG@CRainbowRaceMng?3?3SetNPC?$CI?$CJ?5?9?5pMo@
CONST	SEGMENT
??_C@_0DE@LIKGMGCG@CRainbowRaceMng?3?3SetNPC?$CI?$CJ?5?9?5pMo@ DB 'CRainb'
	DB	'owRaceMng::SetNPC() - pMover is NULL - %s, %s', 00H ; `string'
CONST	ENDS
;	COMDAT ??_C@_04GCLFJAG@zPos@
CONST	SEGMENT
??_C@_04GCLFJAG@zPos@ DB 'zPos', 00H			; `string'
CONST	ENDS
;	COMDAT ??_C@_04EBILCDNG@yPos@
CONST	SEGMENT
??_C@_04EBILCDNG@yPos@ DB 'yPos', 00H			; `string'
CONST	ENDS
;	COMDAT ??_C@_04HMOLAKGG@xPos@
CONST	SEGMENT
??_C@_04HMOLAKGG@xPos@ DB 'xPos', 00H			; `string'
CONST	ENDS
;	COMDAT ??_C@_0L@HBEKAIME@strCharKey@
CONST	SEGMENT
??_C@_0L@HBEKAIME@strCharKey@ DB 'strCharKey', 00H	; `string'
CONST	ENDS
;	COMDAT ??_C@_08HJAPABMB@strNPCId@
CONST	SEGMENT
??_C@_08HJAPABMB@strNPCId@ DB 'strNPCId', 00H		; `string'
CONST	ENDS
;	COMDAT ??_C@_04PJKMFDJF@tNPC@
CONST	SEGMENT
??_C@_04PJKMFDJF@tNPC@ DB 'tNPC', 00H			; `string'
CONST	ENDS
;	COMDAT ??_C@_0BB@EEDDJJBJ@RAINBOW_RACE_APP@
CONST	SEGMENT
??_C@_0BB@EEDDJJBJ@RAINBOW_RACE_APP@ DB 'RAINBOW_RACE_APP', 00H ; `string'
CONST	ENDS
;	COMDAT ??_C@_0M@KIHAHFBP@GetPayPenya@
CONST	SEGMENT
??_C@_0M@KIHAHFBP@GetPayPenya@ DB 'GetPayPenya', 00H	; `string'
CONST	ENDS
;	COMDAT ??_C@_0BC@FPLPGDON@GM?5Application?4?4?4@
CONST	SEGMENT
??_C@_0BC@FPLPGDON@GM?5Application?4?4?4@ DB 'GM Application...', 00H ; `string'
CONST	ENDS
;	COMDAT ??_C@_0L@LBDABBNP@IsOpenTime@
CONST	SEGMENT
??_C@_0L@LBDABBNP@IsOpenTime@ DB 'IsOpenTime', 00H	; `string'
CONST	ENDS
;	COMDAT ??_C@_0BC@KJBDAEHN@IsApplicationTime@
CONST	SEGMENT
??_C@_0BC@KJBDAEHN@IsApplicationTime@ DB 'IsApplicationTime', 00H ; `string'
CONST	ENDS
;	COMDAT ??_C@_0O@MFDJJFBC@Progress_Time@
CONST	SEGMENT
??_C@_0O@MFDJJFBC@Progress_Time@ DB 'Progress_Time', 00H ; `string'
CONST	ENDS
;	COMDAT ??_C@_0L@MLMNOHKN@Ready_Time@
CONST	SEGMENT
??_C@_0L@MLMNOHKN@Ready_Time@ DB 'Ready_Time', 00H	; `string'
CONST	ENDS
;	COMDAT ??_C@_09PFMGHMMG@Wait_Time@
CONST	SEGMENT
??_C@_09PFMGHMMG@Wait_Time@ DB 'Wait_Time', 00H		; `string'
CONST	ENDS
;	COMDAT ??_C@_0BO@ICACELGC@RainbowRace?4lua?5Load?5Failed?$CB?$CB@
CONST	SEGMENT
??_C@_0BO@ICACELGC@RainbowRace?4lua?5Load?5Failed?$CB?$CB@ DB 'RainbowRac'
	DB	'e.lua Load Failed!!', 00H			; `string'
CONST	ENDS
;	COMDAT ??_C@_0BA@OBGJEHGO@RainbowRace?4lua@
CONST	SEGMENT
??_C@_0BA@OBGJEHGO@RainbowRace?4lua@ DB 'RainbowRace.lua', 00H ; `string'
CONST	ENDS
;	COMDAT ??_R4bad_alloc@std@@6B@
rdata$r	SEGMENT
??_R4bad_alloc@std@@6B@ DD 00H				; std::bad_alloc::`RTTI Complete Object Locator'
	DD	00H
	DD	00H
	DD	FLAT:??_R0?AVbad_alloc@std@@@8
	DD	FLAT:??_R3bad_alloc@std@@8
rdata$r	ENDS
;	COMDAT ??_R2bad_alloc@std@@8
rdata$r	SEGMENT
??_R2bad_alloc@std@@8 DD FLAT:??_R1A@?0A@EA@bad_alloc@std@@8 ; std::bad_alloc::`RTTI Base Class Array'
	DD	FLAT:??_R1A@?0A@EA@exception@std@@8
rdata$r	ENDS
;	COMDAT ??_R3bad_alloc@std@@8
rdata$r	SEGMENT
??_R3bad_alloc@std@@8 DD 00H				; std::bad_alloc::`RTTI Class Hierarchy Descriptor'
	DD	00H
	DD	02H
	DD	FLAT:??_R2bad_alloc@std@@8
rdata$r	ENDS
;	COMDAT ??_R1A@?0A@EA@bad_alloc@std@@8
rdata$r	SEGMENT
??_R1A@?0A@EA@bad_alloc@std@@8 DD FLAT:??_R0?AVbad_alloc@std@@@8 ; std::bad_alloc::`RTTI Base Class Descriptor at (0,-1,0,64)'
	DD	01H
	DD	00H
	DD	0ffffffffH
	DD	00H
	DD	040H
	DD	FLAT:??_R3bad_alloc@std@@8
rdata$r	ENDS
;	COMDAT ??_R1A@?0A@EA@bad_array_new_length@std@@8
rdata$r	SEGMENT
??_R1A@?0A@EA@bad_array_new_length@std@@8 DD FLAT:??_R0?AVbad_array_new_length@std@@@8 ; std::bad_array_new_length::`RTTI Base Class Descriptor at (0,-1,0,64)'
	DD	02H
	DD	00H
	DD	0ffffffffH
	DD	00H
	DD	040H
	DD	FLAT:??_R3bad_array_new_length@std@@8
rdata$r	ENDS
;	COMDAT ??_R2bad_array_new_length@std@@8
rdata$r	SEGMENT
??_R2bad_array_new_length@std@@8 DD FLAT:??_R1A@?0A@EA@bad_array_new_length@std@@8 ; std::bad_array_new_length::`RTTI Base Class Array'
	DD	FLAT:??_R1A@?0A@EA@bad_alloc@std@@8
	DD	FLAT:??_R1A@?0A@EA@exception@std@@8
rdata$r	ENDS
;	COMDAT ??_R3bad_array_new_length@std@@8
rdata$r	SEGMENT
??_R3bad_array_new_length@std@@8 DD 00H			; std::bad_array_new_length::`RTTI Class Hierarchy Descriptor'
	DD	00H
	DD	03H
	DD	FLAT:??_R2bad_array_new_length@std@@8
rdata$r	ENDS
;	COMDAT ??_R4bad_array_new_length@std@@6B@
rdata$r	SEGMENT
??_R4bad_array_new_length@std@@6B@ DD 00H		; std::bad_array_new_length::`RTTI Complete Object Locator'
	DD	00H
	DD	00H
	DD	FLAT:??_R0?AVbad_array_new_length@std@@@8
	DD	FLAT:??_R3bad_array_new_length@std@@8
rdata$r	ENDS
;	COMDAT ??_R1A@?0A@EA@exception@std@@8
rdata$r	SEGMENT
??_R1A@?0A@EA@exception@std@@8 DD FLAT:??_R0?AVexception@std@@@8 ; std::exception::`RTTI Base Class Descriptor at (0,-1,0,64)'
	DD	00H
	DD	00H
	DD	0ffffffffH
	DD	00H
	DD	040H
	DD	FLAT:??_R3exception@std@@8
rdata$r	ENDS
;	COMDAT ??_R2exception@std@@8
rdata$r	SEGMENT
??_R2exception@std@@8 DD FLAT:??_R1A@?0A@EA@exception@std@@8 ; std::exception::`RTTI Base Class Array'
rdata$r	ENDS
;	COMDAT ??_R3exception@std@@8
rdata$r	SEGMENT
??_R3exception@std@@8 DD 00H				; std::exception::`RTTI Class Hierarchy Descriptor'
	DD	00H
	DD	01H
	DD	FLAT:??_R2exception@std@@8
rdata$r	ENDS
;	COMDAT ??_R4exception@std@@6B@
rdata$r	SEGMENT
??_R4exception@std@@6B@ DD 00H				; std::exception::`RTTI Complete Object Locator'
	DD	00H
	DD	00H
	DD	FLAT:??_R0?AVexception@std@@@8
	DD	FLAT:??_R3exception@std@@8
rdata$r	ENDS
;	COMDAT ??_C@_0BA@FOIKENOD@vector?5too?5long@
CONST	SEGMENT
??_C@_0BA@FOIKENOD@vector?5too?5long@ DB 'vector too long', 00H ; `string'
CONST	ENDS
;	COMDAT ??_C@_05KKCIMGE@error@
CONST	SEGMENT
??_C@_05KKCIMGE@error@ DB 'error', 00H			; `string'
CONST	ENDS
;	COMDAT ??_C@_0BE@OHDBLHOM@GetText?5range_error@
CONST	SEGMENT
??_C@_0BE@OHDBLHOM@GetText?5range_error@ DB 'GetText range_error', 00H ; `string'
CONST	ENDS
;	COMDAT ??_C@_0BI@BEIFNGEL@GetItemProp?5range_error@
CONST	SEGMENT
??_C@_0BI@BEIFNGEL@GetItemProp?5range_error@ DB 'GetItemProp range_error', 00H ; `string'
CONST	ENDS
;	COMDAT ??_C@_0BM@HMFGHCP@?$CFs?5min?3?$CFd?0?5max?3?$CFd?0?5index?3?$CFd@
CONST	SEGMENT
??_C@_0BM@HMFGHCP@?$CFs?5min?3?$CFd?0?5max?3?$CFd?0?5index?3?$CFd@ DB '%s'
	DB	' min:%d, max:%d, index:%d', 00H		; `string'
CONST	ENDS
;	COMDAT ??_C@_01MCMALHOG@a@
CONST	SEGMENT
??_C@_01MCMALHOG@a@ DB 'a', 00H				; `string'
CONST	ENDS
;	COMDAT ??_C@_0BB@GCADKGJO@map?1set?5too?5long@
CONST	SEGMENT
??_C@_0BB@GCADKGJO@map?1set?5too?5long@ DB 'map/set too long', 00H ; `string'
CONST	ENDS
;	COMDAT ??_C@_0BA@JFNIOLAK@string?5too?5long@
CONST	SEGMENT
??_C@_0BA@JFNIOLAK@string?5too?5long@ DB 'string too long', 00H ; `string'
CONST	ENDS
;	COMDAT __CT??_R0?AVbad_alloc@std@@@8??0bad_alloc@std@@QAE@ABV01@@Z12
xdata$x	SEGMENT
__CT??_R0?AVbad_alloc@std@@@8??0bad_alloc@std@@QAE@ABV01@@Z12 DD 010H
	DD	FLAT:??_R0?AVbad_alloc@std@@@8
	DD	00H
	DD	0ffffffffH
	ORG $+4
	DD	0cH
	DD	FLAT:??0bad_alloc@std@@QAE@ABV01@@Z
xdata$x	ENDS
;	COMDAT ??_R0?AVbad_alloc@std@@@8
data$r	SEGMENT
??_R0?AVbad_alloc@std@@@8 DD FLAT:??_7type_info@@6B@	; std::bad_alloc `RTTI Type Descriptor'
	DD	00H
	DB	'.?AVbad_alloc@std@@', 00H
data$r	ENDS
;	COMDAT __CT??_R0?AVbad_array_new_length@std@@@8??0bad_array_new_length@std@@QAE@ABV01@@Z12
xdata$x	SEGMENT
__CT??_R0?AVbad_array_new_length@std@@@8??0bad_array_new_length@std@@QAE@ABV01@@Z12 DD 00H
	DD	FLAT:??_R0?AVbad_array_new_length@std@@@8
	DD	00H
	DD	0ffffffffH
	ORG $+4
	DD	0cH
	DD	FLAT:??0bad_array_new_length@std@@QAE@ABV01@@Z
xdata$x	ENDS
;	COMDAT ??_R0?AVbad_array_new_length@std@@@8
data$r	SEGMENT
??_R0?AVbad_array_new_length@std@@@8 DD FLAT:??_7type_info@@6B@ ; std::bad_array_new_length `RTTI Type Descriptor'
	DD	00H
	DB	'.?AVbad_array_new_length@std@@', 00H
data$r	ENDS
;	COMDAT __CTA3?AVbad_array_new_length@std@@
xdata$x	SEGMENT
__CTA3?AVbad_array_new_length@std@@ DD 03H
	DD	FLAT:__CT??_R0?AVbad_array_new_length@std@@@8??0bad_array_new_length@std@@QAE@ABV01@@Z12
	DD	FLAT:__CT??_R0?AVbad_alloc@std@@@8??0bad_alloc@std@@QAE@ABV01@@Z12
	DD	FLAT:__CT??_R0?AVexception@std@@@8??0exception@std@@QAE@ABV01@@Z12
xdata$x	ENDS
;	COMDAT __TI3?AVbad_array_new_length@std@@
xdata$x	SEGMENT
__TI3?AVbad_array_new_length@std@@ DD 00H
	DD	FLAT:??1bad_array_new_length@std@@UAE@XZ
	DD	00H
	DD	FLAT:__CTA3?AVbad_array_new_length@std@@
xdata$x	ENDS
;	COMDAT __CT??_R0?AVexception@std@@@8??0exception@std@@QAE@ABV01@@Z12
xdata$x	SEGMENT
__CT??_R0?AVexception@std@@@8??0exception@std@@QAE@ABV01@@Z12 DD 00H
	DD	FLAT:??_R0?AVexception@std@@@8
	DD	00H
	DD	0ffffffffH
	ORG $+4
	DD	0cH
	DD	FLAT:??0exception@std@@QAE@ABV01@@Z
xdata$x	ENDS
;	COMDAT ??_R0?AVexception@std@@@8
data$r	SEGMENT
??_R0?AVexception@std@@@8 DD FLAT:??_7type_info@@6B@	; std::exception `RTTI Type Descriptor'
	DD	00H
	DB	'.?AVexception@std@@', 00H
data$r	ENDS
;	COMDAT ??_C@_0BF@KINCDENJ@bad?5array?5new?5length@
CONST	SEGMENT
??_C@_0BF@KINCDENJ@bad?5array?5new?5length@ DB 'bad array new length', 00H ; `string'
CONST	ENDS
;	COMDAT ??_7bad_array_new_length@std@@6B@
CONST	SEGMENT
??_7bad_array_new_length@std@@6B@ DD FLAT:??_R4bad_array_new_length@std@@6B@ ; std::bad_array_new_length::`vftable'
	DD	FLAT:??_Ebad_array_new_length@std@@UAEPAXI@Z
	DD	FLAT:?what@exception@std@@UBEPBDXZ
CONST	ENDS
;	COMDAT ??_7bad_alloc@std@@6B@
CONST	SEGMENT
??_7bad_alloc@std@@6B@ DD FLAT:??_R4bad_alloc@std@@6B@	; std::bad_alloc::`vftable'
	DD	FLAT:??_Ebad_alloc@std@@UAEPAXI@Z
	DD	FLAT:?what@exception@std@@UBEPBDXZ
CONST	ENDS
;	COMDAT ??_C@_0BC@EOODALEL@Unknown?5exception@
CONST	SEGMENT
??_C@_0BC@EOODALEL@Unknown?5exception@ DB 'Unknown exception', 00H ; `string'
CONST	ENDS
;	COMDAT ??_7exception@std@@6B@
CONST	SEGMENT
??_7exception@std@@6B@ DD FLAT:??_R4exception@std@@6B@	; std::exception::`vftable'
	DD	FLAT:??_Eexception@std@@UAEPAXI@Z
	DD	FLAT:?what@exception@std@@UBEPBDXZ
CONST	ENDS
;	COMDAT ??_C@_00CNPNBAHC@@
CONST	SEGMENT
??_C@_00CNPNBAHC@@ DB 00H				; `string'
CONST	ENDS
;	COMDAT xdata$x
xdata$x	SEGMENT
__unwindtable$??$?0U?$pair@KPAVCRainbowRace@@@std@@@?$_Tree_temp_node@V?$allocator@U?$_Tree_node@U?$pair@$$CBKPAVCRainbowRace@@@std@@PAX@std@@@std@@@std@@QAE@AAV?$allocator@U?$_Tree_node@U?$pair@$$CBKPAVCRainbowRace@@@std@@PAX@std@@@1@PAU?$_Tree_node@U?$pair@$$CBKPAVCRainbowRace@@@std@@PAX@1@$$QAU?$pair@KPAVCRainbowRace@@@1@@Z DD 0ffffffffH
	DD	FLAT:__unwindfunclet$??$?0U?$pair@KPAVCRainbowRace@@@std@@@?$_Tree_temp_node@V?$allocator@U?$_Tree_node@U?$pair@$$CBKPAVCRainbowRace@@@std@@PAX@std@@@std@@@std@@QAE@AAV?$allocator@U?$_Tree_node@U?$pair@$$CBKPAVCRainbowRace@@@std@@PAX@std@@@1@PAU?$_Tree_node@U?$pair@$$CBKPAVCRainbowRace@@@std@@PAX@1@$$QAU?$pair@KPAVCRainbowRace@@@1@@Z$1
__ehfuncinfo$??$?0U?$pair@KPAVCRainbowRace@@@std@@@?$_Tree_temp_node@V?$allocator@U?$_Tree_node@U?$pair@$$CBKPAVCRainbowRace@@@std@@PAX@std@@@std@@@std@@QAE@AAV?$allocator@U?$_Tree_node@U?$pair@$$CBKPAVCRainbowRace@@@std@@PAX@std@@@1@PAU?$_Tree_node@U?$pair@$$CBKPAVCRainbowRace@@@std@@PAX@1@$$QAU?$pair@KPAVCRainbowRace@@@1@@Z DD 019930522H
	DD	01H
	DD	FLAT:__unwindtable$??$?0U?$pair@KPAVCRainbowRace@@@std@@@?$_Tree_temp_node@V?$allocator@U?$_Tree_node@U?$pair@$$CBKPAVCRainbowRace@@@std@@PAX@std@@@std@@@std@@QAE@AAV?$allocator@U?$_Tree_node@U?$pair@$$CBKPAVCRainbowRace@@@std@@PAX@std@@@1@PAU?$_Tree_node@U?$pair@$$CBKPAVCRainbowRace@@@std@@PAX@1@$$QAU?$pair@KPAVCRainbowRace@@@1@@Z
	DD	2 DUP(00H)
	DD	2 DUP(00H)
	DD	00H
	DD	01H
xdata$x	ENDS
;	COMDAT xdata$x
xdata$x	SEGMENT
__unwindtable$??0?$_Tree_temp_node_alloc@V?$allocator@U?$_Tree_node@U?$pair@$$CBKPAVCRainbowRace@@@std@@PAX@std@@@std@@@std@@QAE@AAV?$allocator@U?$_Tree_node@U?$pair@$$CBKPAVCRainbowRace@@@std@@PAX@std@@@1@@Z DD 0ffffffffH
	DD	FLAT:__unwindfunclet$??0?$_Tree_temp_node_alloc@V?$allocator@U?$_Tree_node@U?$pair@$$CBKPAVCRainbowRace@@@std@@PAX@std@@@std@@@std@@QAE@AAV?$allocator@U?$_Tree_node@U?$pair@$$CBKPAVCRainbowRace@@@std@@PAX@std@@@1@@Z$0
__ehfuncinfo$??0?$_Tree_temp_node_alloc@V?$allocator@U?$_Tree_node@U?$pair@$$CBKPAVCRainbowRace@@@std@@PAX@std@@@std@@@std@@QAE@AAV?$allocator@U?$_Tree_node@U?$pair@$$CBKPAVCRainbowRace@@@std@@PAX@std@@@1@@Z DD 019930522H
	DD	01H
	DD	FLAT:__unwindtable$??0?$_Tree_temp_node_alloc@V?$allocator@U?$_Tree_node@U?$pair@$$CBKPAVCRainbowRace@@@std@@PAX@std@@@std@@@std@@QAE@AAV?$allocator@U?$_Tree_node@U?$pair@$$CBKPAVCRainbowRace@@@std@@PAX@std@@@1@@Z
	DD	2 DUP(00H)
	DD	2 DUP(00H)
	DD	00H
	DD	01H
xdata$x	ENDS
;	COMDAT xdata$x
xdata$x	SEGMENT
__unwindtable$??$_Emplace@U?$pair@KPAVCRainbowRace@@@std@@@?$_Tree@V?$_Tmap_traits@KPAVCRainbowRace@@U?$less@K@std@@V?$allocator@U?$pair@$$CBKPAVCRainbowRace@@@std@@@3@$0A@@std@@@std@@IAE?AU?$pair@PAU?$_Tree_node@U?$pair@$$CBKPAVCRainbowRace@@@std@@PAX@std@@_N@1@$$QAU?$pair@KPAVCRainbowRace@@@1@@Z DD 0ffffffffH
	DD	FLAT:__unwindfunclet$??$_Emplace@U?$pair@KPAVCRainbowRace@@@std@@@?$_Tree@V?$_Tmap_traits@KPAVCRainbowRace@@U?$less@K@std@@V?$allocator@U?$pair@$$CBKPAVCRainbowRace@@@std@@@3@$0A@@std@@@std@@IAE?AU?$pair@PAU?$_Tree_node@U?$pair@$$CBKPAVCRainbowRace@@@std@@PAX@std@@_N@1@$$QAU?$pair@KPAVCRainbowRace@@@1@@Z$2
__ehfuncinfo$??$_Emplace@U?$pair@KPAVCRainbowRace@@@std@@@?$_Tree@V?$_Tmap_traits@KPAVCRainbowRace@@U?$less@K@std@@V?$allocator@U?$pair@$$CBKPAVCRainbowRace@@@std@@@3@$0A@@std@@@std@@IAE?AU?$pair@PAU?$_Tree_node@U?$pair@$$CBKPAVCRainbowRace@@@std@@PAX@std@@_N@1@$$QAU?$pair@KPAVCRainbowRace@@@1@@Z DD 019930522H
	DD	01H
	DD	FLAT:__unwindtable$??$_Emplace@U?$pair@KPAVCRainbowRace@@@std@@@?$_Tree@V?$_Tmap_traits@KPAVCRainbowRace@@U?$less@K@std@@V?$allocator@U?$pair@$$CBKPAVCRainbowRace@@@std@@@3@$0A@@std@@@std@@IAE?AU?$pair@PAU?$_Tree_node@U?$pair@$$CBKPAVCRainbowRace@@@std@@PAX@std@@_N@1@$$QAU?$pair@KPAVCRainbowRace@@@1@@Z
	DD	2 DUP(00H)
	DD	2 DUP(00H)
	DD	00H
	DD	01H
xdata$x	ENDS
;	COMDAT xdata$x
xdata$x	SEGMENT
__unwindtable$??$emplace@U?$pair@KPAVCRainbowRace@@@std@@@?$_Tree@V?$_Tmap_traits@KPAVCRainbowRace@@U?$less@K@std@@V?$allocator@U?$pair@$$CBKPAVCRainbowRace@@@std@@@3@$0A@@std@@@std@@QAE?AU?$pair@V?$_Tree_iterator@V?$_Tree_val@U?$_Tree_simple_types@U?$pair@$$CBKPAVCRainbowRace@@@std@@@std@@@std@@@std@@_N@1@$$QAU?$pair@KPAVCRainbowRace@@@1@@Z DD 0ffffffffH
	DD	FLAT:__unwindfunclet$??$emplace@U?$pair@KPAVCRainbowRace@@@std@@@?$_Tree@V?$_Tmap_traits@KPAVCRainbowRace@@U?$less@K@std@@V?$allocator@U?$pair@$$CBKPAVCRainbowRace@@@std@@@3@$0A@@std@@@std@@QAE?AU?$pair@V?$_Tree_iterator@V?$_Tree_val@U?$_Tree_simple_types@U?$pair@$$CBKPAVCRainbowRace@@@std@@@std@@@std@@@std@@_N@1@$$QAU?$pair@KPAVCRainbowRace@@@1@@Z$2
__ehfuncinfo$??$emplace@U?$pair@KPAVCRainbowRace@@@std@@@?$_Tree@V?$_Tmap_traits@KPAVCRainbowRace@@U?$less@K@std@@V?$allocator@U?$pair@$$CBKPAVCRainbowRace@@@std@@@3@$0A@@std@@@std@@QAE?AU?$pair@V?$_Tree_iterator@V?$_Tree_val@U?$_Tree_simple_types@U?$pair@$$CBKPAVCRainbowRace@@@std@@@std@@@std@@@std@@_N@1@$$QAU?$pair@KPAVCRainbowRace@@@1@@Z DD 019930522H
	DD	01H
	DD	FLAT:__unwindtable$??$emplace@U?$pair@KPAVCRainbowRace@@@std@@@?$_Tree@V?$_Tmap_traits@KPAVCRainbowRace@@U?$less@K@std@@V?$allocator@U?$pair@$$CBKPAVCRainbowRace@@@std@@@3@$0A@@std@@@std@@QAE?AU?$pair@V?$_Tree_iterator@V?$_Tree_val@U?$_Tree_simple_types@U?$pair@$$CBKPAVCRainbowRace@@@std@@@std@@@std@@@std@@_N@1@$$QAU?$pair@KPAVCRainbowRace@@@1@@Z
	DD	2 DUP(00H)
	DD	2 DUP(00H)
	DD	00H
	DD	01H
xdata$x	ENDS
;	COMDAT xdata$x
xdata$x	SEGMENT
__unwindtable$??$insert@U?$pair@KPAVCRainbowRace@@@std@@$0A@@?$map@KPAVCRainbowRace@@U?$less@K@std@@V?$allocator@U?$pair@$$CBKPAVCRainbowRace@@@std@@@3@@std@@QAE?AU?$pair@V?$_Tree_iterator@V?$_Tree_val@U?$_Tree_simple_types@U?$pair@$$CBKPAVCRainbowRace@@@std@@@std@@@std@@@std@@_N@1@$$QAU?$pair@KPAVCRainbowRace@@@1@@Z DD 0ffffffffH
	DD	FLAT:__unwindfunclet$??$insert@U?$pair@KPAVCRainbowRace@@@std@@$0A@@?$map@KPAVCRainbowRace@@U?$less@K@std@@V?$allocator@U?$pair@$$CBKPAVCRainbowRace@@@std@@@3@@std@@QAE?AU?$pair@V?$_Tree_iterator@V?$_Tree_val@U?$_Tree_simple_types@U?$pair@$$CBKPAVCRainbowRace@@@std@@@std@@@std@@@std@@_N@1@$$QAU?$pair@KPAVCRainbowRace@@@1@@Z$2
__ehfuncinfo$??$insert@U?$pair@KPAVCRainbowRace@@@std@@$0A@@?$map@KPAVCRainbowRace@@U?$less@K@std@@V?$allocator@U?$pair@$$CBKPAVCRainbowRace@@@std@@@3@@std@@QAE?AU?$pair@V?$_Tree_iterator@V?$_Tree_val@U?$_Tree_simple_types@U?$pair@$$CBKPAVCRainbowRace@@@std@@@std@@@std@@@std@@_N@1@$$QAU?$pair@KPAVCRainbowRace@@@1@@Z DD 019930522H
	DD	01H
	DD	FLAT:__unwindtable$??$insert@U?$pair@KPAVCRainbowRace@@@std@@$0A@@?$map@KPAVCRainbowRace@@U?$less@K@std@@V?$allocator@U?$pair@$$CBKPAVCRainbowRace@@@std@@@3@@std@@QAE?AU?$pair@V?$_Tree_iterator@V?$_Tree_val@U?$_Tree_simple_types@U?$pair@$$CBKPAVCRainbowRace@@@std@@@std@@@std@@@std@@_N@1@$$QAU?$pair@KPAVCRainbowRace@@@1@@Z
	DD	2 DUP(00H)
	DD	2 DUP(00H)
	DD	00H
	DD	01H
xdata$x	ENDS
;	COMDAT xdata$x
xdata$x	SEGMENT
__unwindtable$?SetPrize@CRainbowRaceMng@@AAEXXZ DD 0ffffffffH
	DD	FLAT:__unwindfunclet$?SetPrize@CRainbowRaceMng@@AAEXXZ$0
	DD	00H
	DD	FLAT:__unwindfunclet$?SetPrize@CRainbowRaceMng@@AAEXXZ$1
__ehfuncinfo$?SetPrize@CRainbowRaceMng@@AAEXXZ DD 019930522H
	DD	02H
	DD	FLAT:__unwindtable$?SetPrize@CRainbowRaceMng@@AAEXXZ
	DD	2 DUP(00H)
	DD	2 DUP(00H)
	DD	00H
	DD	01H
xdata$x	ENDS
;	COMDAT xdata$x
xdata$x	SEGMENT
__unwindtable$?SetNPC@CRainbowRaceMng@@AAEXXZ DD 0ffffffffH
	DD	FLAT:__unwindfunclet$?SetNPC@CRainbowRaceMng@@AAEXXZ$0
__ehfuncinfo$?SetNPC@CRainbowRaceMng@@AAEXXZ DD 019930522H
	DD	01H
	DD	FLAT:__unwindtable$?SetNPC@CRainbowRaceMng@@AAEXXZ
	DD	2 DUP(00H)
	DD	2 DUP(00H)
	DD	00H
	DD	01H
xdata$x	ENDS
;	COMDAT xdata$x
xdata$x	SEGMENT
__unwindtable$?SetMiniGamePrize@CRainbowRaceMng@@AAEXK@Z DD 0ffffffffH
	DD	FLAT:__unwindfunclet$?SetMiniGamePrize@CRainbowRaceMng@@AAEXK@Z$0
__ehfuncinfo$?SetMiniGamePrize@CRainbowRaceMng@@AAEXK@Z DD 019930522H
	DD	01H
	DD	FLAT:__unwindtable$?SetMiniGamePrize@CRainbowRaceMng@@AAEXK@Z
	DD	2 DUP(00H)
	DD	2 DUP(00H)
	DD	00H
	DD	01H
xdata$x	ENDS
;	COMDAT xdata$x
xdata$x	SEGMENT
__unwindtable$?GetPrevRanking@CRainbowRaceMng@@QAE?AV?$vector@KV?$allocator@K@std@@@std@@XZ DD 0ffffffffH
	DD	FLAT:__unwindfunclet$?GetPrevRanking@CRainbowRaceMng@@QAE?AV?$vector@KV?$allocator@K@std@@@std@@XZ$0
__ehfuncinfo$?GetPrevRanking@CRainbowRaceMng@@QAE?AV?$vector@KV?$allocator@K@std@@@std@@XZ DD 019930522H
	DD	01H
	DD	FLAT:__unwindtable$?GetPrevRanking@CRainbowRaceMng@@QAE?AV?$vector@KV?$allocator@K@std@@@std@@XZ
	DD	2 DUP(00H)
	DD	2 DUP(00H)
	DD	00H
	DD	01H
xdata$x	ENDS
;	COMDAT xdata$x
xdata$x	SEGMENT
__unwindtable$?SetApplication@CRainbowRaceMng@@QAEXK@Z DD 0ffffffffH
	DD	FLAT:__unwindfunclet$?SetApplication@CRainbowRaceMng@@QAEXK@Z$0
	DD	0ffffffffH
	DD	FLAT:__unwindfunclet$?SetApplication@CRainbowRaceMng@@QAEXK@Z$3
__ehfuncinfo$?SetApplication@CRainbowRaceMng@@QAEXK@Z DD 019930522H
	DD	02H
	DD	FLAT:__unwindtable$?SetApplication@CRainbowRaceMng@@QAEXK@Z
	DD	2 DUP(00H)
	DD	2 DUP(00H)
	DD	00H
	DD	01H
xdata$x	ENDS
;	COMDAT xdata$x
xdata$x	SEGMENT
__unwindtable$?GetInstance@CRainbowRaceMng@@SAPAV1@XZ DD 0ffffffffH
	DD	FLAT:__unwindfunclet$?GetInstance@CRainbowRaceMng@@SAPAV1@XZ$0
__ehfuncinfo$?GetInstance@CRainbowRaceMng@@SAPAV1@XZ DD 019930522H
	DD	01H
	DD	FLAT:__unwindtable$?GetInstance@CRainbowRaceMng@@SAPAV1@XZ
	DD	2 DUP(00H)
	DD	2 DUP(00H)
	DD	00H
	DD	01H
xdata$x	ENDS
;	COMDAT xdata$x
xdata$x	SEGMENT
__ehfuncinfo$??1CRainbowRaceMng@@QAE@XZ DD 019930522H
	DD	00H
	DD	00H
	DD	2 DUP(00H)
	DD	2 DUP(00H)
	DD	00H
	DD	05H
xdata$x	ENDS
;	COMDAT xdata$x
xdata$x	SEGMENT
__ehfuncinfo$??0CRainbowRaceMng@@QAE@XZ DD 019930522H
	DD	0eH
	DD	FLAT:__unwindtable$??0CRainbowRaceMng@@QAE@XZ
	DD	2 DUP(00H)
	DD	2 DUP(00H)
	DD	00H
	DD	01H
__unwindtable$??0CRainbowRaceMng@@QAE@XZ DD 0ffffffffH
	DD	FLAT:__unwindfunclet$??0CRainbowRaceMng@@QAE@XZ$0
	DD	00H
	DD	FLAT:__unwindfunclet$??0CRainbowRaceMng@@QAE@XZ$1
	DD	01H
	DD	FLAT:__unwindfunclet$??0CRainbowRaceMng@@QAE@XZ$2
	DD	02H
	DD	FLAT:__unwindfunclet$??0CRainbowRaceMng@@QAE@XZ$3
	DD	03H
	DD	FLAT:__unwindfunclet$??0CRainbowRaceMng@@QAE@XZ$4
	DD	04H
	DD	FLAT:__unwindfunclet$??0CRainbowRaceMng@@QAE@XZ$5
	DD	05H
	DD	FLAT:__unwindfunclet$??0CRainbowRaceMng@@QAE@XZ$6
	DD	06H
	DD	FLAT:__unwindfunclet$??0CRainbowRaceMng@@QAE@XZ$7
	DD	06H
	DD	FLAT:__unwindfunclet$??0CRainbowRaceMng@@QAE@XZ$8
	DD	06H
	DD	FLAT:__unwindfunclet$??0CRainbowRaceMng@@QAE@XZ$9
	DD	06H
	DD	FLAT:__unwindfunclet$??0CRainbowRaceMng@@QAE@XZ$10
	DD	06H
	DD	FLAT:__unwindfunclet$??0CRainbowRaceMng@@QAE@XZ$11
	DD	06H
	DD	FLAT:__unwindfunclet$??0CRainbowRaceMng@@QAE@XZ$12
	DD	06H
	DD	FLAT:__unwindfunclet$??0CRainbowRaceMng@@QAE@XZ$13
xdata$x	ENDS
;	COMDAT xdata$x
xdata$x	SEGMENT
__ehfuncinfo$?SetMiniGame@CRainbowRace@@AAEXH@Z DD 019930522H
	DD	07H
	DD	FLAT:__unwindtable$?SetMiniGame@CRainbowRace@@AAEXH@Z
	DD	2 DUP(00H)
	DD	2 DUP(00H)
	DD	00H
	DD	01H
__unwindtable$?SetMiniGame@CRainbowRace@@AAEXH@Z DD 0ffffffffH
	DD	FLAT:__unwindfunclet$?SetMiniGame@CRainbowRace@@AAEXH@Z$0
	DD	0ffffffffH
	DD	FLAT:__unwindfunclet$?SetMiniGame@CRainbowRace@@AAEXH@Z$1
	DD	0ffffffffH
	DD	FLAT:__unwindfunclet$?SetMiniGame@CRainbowRace@@AAEXH@Z$2
	DD	0ffffffffH
	DD	FLAT:__unwindfunclet$?SetMiniGame@CRainbowRace@@AAEXH@Z$3
	DD	0ffffffffH
	DD	FLAT:__unwindfunclet$?SetMiniGame@CRainbowRace@@AAEXH@Z$4
	DD	0ffffffffH
	DD	FLAT:__unwindfunclet$?SetMiniGame@CRainbowRace@@AAEXH@Z$5
	DD	0ffffffffH
	DD	FLAT:__unwindfunclet$?SetMiniGame@CRainbowRace@@AAEXH@Z$6
xdata$x	ENDS
; Function compile flags: /Ogtp
; File C:\Program Files\Microsoft Visual Studio\2022\Professional\VC\Tools\MSVC\14.44.35207\include\xutility
;	COMDAT ??$_Copy_memmove_tail@PAPAVCMiniGameBase@@@std@@YAPAPAVCMiniGameBase@@QBDQAPAV1@II@Z
_TEXT	SEGMENT
__First_ch$ = 8						; size = 4
__Dest$ = 12						; size = 4
__Byte_count$ = 16					; size = 4
__Object_count$ = 20					; size = 4
??$_Copy_memmove_tail@PAPAVCMiniGameBase@@@std@@YAPAPAVCMiniGameBase@@QBDQAPAV1@II@Z PROC ; std::_Copy_memmove_tail<CMiniGameBase * *>, COMDAT

; 4747 :     const char* const _First_ch, const _OutCtgIt _Dest, const size_t _Byte_count, const size_t _Object_count) {

  00000	55		 push	 ebp
  00001	8b ec		 mov	 ebp, esp
  00003	56		 push	 esi

; 4748 :     _STL_INTERNAL_CHECK(_Byte_count == _Object_count * sizeof(*_Dest));
; 4749 :     const auto _Dest_ptr = _STD _To_address(_Dest);
; 4750 :     const auto _Dest_ch  = const_cast<char*>(reinterpret_cast<const volatile char*>(_Dest_ptr));
; 4751 :     _CSTD memmove(_Dest_ch, _First_ch, _Byte_count);

  00004	8b 75 0c	 mov	 esi, DWORD PTR __Dest$[ebp]
  00007	57		 push	 edi
  00008	8b 7d 10	 mov	 edi, DWORD PTR __Byte_count$[ebp]
  0000b	57		 push	 edi
  0000c	ff 75 08	 push	 DWORD PTR __First_ch$[ebp]
  0000f	56		 push	 esi
  00010	e8 00 00 00 00	 call	 _memmove
  00015	83 c4 0c	 add	 esp, 12			; 0000000cH

; 4752 :     if constexpr (is_pointer_v<_OutCtgIt>) {
; 4753 :         (void) _Object_count;
; 4754 :         // CodeQL [SM02986] This cast is correct: we're bypassing pointer arithmetic for performance.
; 4755 :         return reinterpret_cast<_OutCtgIt>(_Dest_ch + _Byte_count);

  00018	8d 04 3e	 lea	 eax, DWORD PTR [esi+edi]
  0001b	5f		 pop	 edi
  0001c	5e		 pop	 esi

; 4756 :     } else {
; 4757 :         return _Dest + static_cast<_Iter_diff_t<_OutCtgIt>>(_Object_count);
; 4758 :     }
; 4759 : }

  0001d	5d		 pop	 ebp
  0001e	c3		 ret	 0
??$_Copy_memmove_tail@PAPAVCMiniGameBase@@@std@@YAPAPAVCMiniGameBase@@QBDQAPAV1@II@Z ENDP ; std::_Copy_memmove_tail<CMiniGameBase * *>
_TEXT	ENDS
; Function compile flags: /Ogtp
; File C:\Program Files\Microsoft Visual Studio\2022\Professional\VC\Tools\MSVC\14.44.35207\include\xutility
;	COMDAT ??$_Copy_memmove@PAKPAK@std@@YAPAKPAK00@Z
_TEXT	SEGMENT
__First$ = 8						; size = 4
__Last$ = 12						; size = 4
__Dest$ = 16						; size = 4
??$_Copy_memmove@PAKPAK@std@@YAPAKPAK00@Z PROC		; std::_Copy_memmove<unsigned long *,unsigned long *>, COMDAT

; 4762 : _OutCtgIt _Copy_memmove(_CtgIt _First, _CtgIt _Last, _OutCtgIt _Dest) {

  00000	55		 push	 ebp
  00001	8b ec		 mov	 ebp, esp

; 4763 :     _STL_INTERNAL_CHECK(_First <= _Last);
; 4764 :     const auto _First_ptr    = _STD _To_address(_First);
; 4765 :     const auto _Last_ptr     = _STD _To_address(_Last);
; 4766 :     const auto _Object_count = static_cast<size_t>(_Last_ptr - _First_ptr);

  00003	8b 55 08	 mov	 edx, DWORD PTR __First$[ebp]
  00006	8b 4d 0c	 mov	 ecx, DWORD PTR __Last$[ebp]
  00009	2b ca		 sub	 ecx, edx
  0000b	8b c1		 mov	 eax, ecx
  0000d	c1 f8 02	 sar	 eax, 2

; 4767 :     const auto _First_ch     = const_cast<const char*>(reinterpret_cast<const volatile char*>(_First_ptr));
; 4768 :     const auto _Last_ch      = const_cast<const char*>(reinterpret_cast<const volatile char*>(_Last_ptr));
; 4769 :     const auto _Byte_count   = static_cast<size_t>(_Last_ch - _First_ch);
; 4770 :     return _STD _Copy_memmove_tail(_First_ch, _STD move(_Dest), _Byte_count, _Object_count);

  00010	50		 push	 eax
  00011	51		 push	 ecx
  00012	ff 75 10	 push	 DWORD PTR __Dest$[ebp]
  00015	52		 push	 edx
  00016	e8 00 00 00 00	 call	 ??$_Copy_memmove_tail@PAK@std@@YAPAKQBDQAKII@Z ; std::_Copy_memmove_tail<unsigned long *>
  0001b	83 c4 10	 add	 esp, 16			; 00000010H

; 4771 : }

  0001e	5d		 pop	 ebp
  0001f	c3		 ret	 0
??$_Copy_memmove@PAKPAK@std@@YAPAKPAK00@Z ENDP		; std::_Copy_memmove<unsigned long *,unsigned long *>
_TEXT	ENDS
; Function compile flags: /Ogtp
; File C:\Program Files\Microsoft Visual Studio\2022\Professional\VC\Tools\MSVC\14.44.35207\include\xutility
;	COMDAT ??$_Copy_memmove@PAPAVCMiniGameBase@@PAPAV1@@std@@YAPAPAVCMiniGameBase@@PAPAV1@00@Z
_TEXT	SEGMENT
__First$ = 8						; size = 4
__Last$ = 12						; size = 4
__Dest$ = 16						; size = 4
??$_Copy_memmove@PAPAVCMiniGameBase@@PAPAV1@@std@@YAPAPAVCMiniGameBase@@PAPAV1@00@Z PROC ; std::_Copy_memmove<CMiniGameBase * *,CMiniGameBase * *>, COMDAT

; 4762 : _OutCtgIt _Copy_memmove(_CtgIt _First, _CtgIt _Last, _OutCtgIt _Dest) {

  00000	55		 push	 ebp
  00001	8b ec		 mov	 ebp, esp

; 4763 :     _STL_INTERNAL_CHECK(_First <= _Last);
; 4764 :     const auto _First_ptr    = _STD _To_address(_First);
; 4765 :     const auto _Last_ptr     = _STD _To_address(_Last);
; 4766 :     const auto _Object_count = static_cast<size_t>(_Last_ptr - _First_ptr);

  00003	8b 55 08	 mov	 edx, DWORD PTR __First$[ebp]
  00006	8b 4d 0c	 mov	 ecx, DWORD PTR __Last$[ebp]
  00009	2b ca		 sub	 ecx, edx
  0000b	8b c1		 mov	 eax, ecx
  0000d	c1 f8 02	 sar	 eax, 2

; 4767 :     const auto _First_ch     = const_cast<const char*>(reinterpret_cast<const volatile char*>(_First_ptr));
; 4768 :     const auto _Last_ch      = const_cast<const char*>(reinterpret_cast<const volatile char*>(_Last_ptr));
; 4769 :     const auto _Byte_count   = static_cast<size_t>(_Last_ch - _First_ch);
; 4770 :     return _STD _Copy_memmove_tail(_First_ch, _STD move(_Dest), _Byte_count, _Object_count);

  00010	50		 push	 eax
  00011	51		 push	 ecx
  00012	ff 75 10	 push	 DWORD PTR __Dest$[ebp]
  00015	52		 push	 edx
  00016	e8 00 00 00 00	 call	 ??$_Copy_memmove_tail@PAPAVCMiniGameBase@@@std@@YAPAPAVCMiniGameBase@@QBDQAPAV1@II@Z ; std::_Copy_memmove_tail<CMiniGameBase * *>
  0001b	83 c4 10	 add	 esp, 16			; 00000010H

; 4771 : }

  0001e	5d		 pop	 ebp
  0001f	c3		 ret	 0
??$_Copy_memmove@PAPAVCMiniGameBase@@PAPAV1@@std@@YAPAPAVCMiniGameBase@@PAPAV1@00@Z ENDP ; std::_Copy_memmove<CMiniGameBase * *,CMiniGameBase * *>
_TEXT	ENDS
; Function compile flags: /Ogtp
; File C:\Program Files\Microsoft Visual Studio\2022\Professional\VC\Tools\MSVC\14.44.35207\include\xutility
;	COMDAT ??$_Copy_memmove_tail@PAUMINIGMAME_PRIZE_LIST@CRainbowRaceMng@@@std@@YAPAUMINIGMAME_PRIZE_LIST@CRainbowRaceMng@@QBDQAU12@II@Z
_TEXT	SEGMENT
__First_ch$ = 8						; size = 4
__Dest$ = 12						; size = 4
__Byte_count$ = 16					; size = 4
__Object_count$ = 20					; size = 4
??$_Copy_memmove_tail@PAUMINIGMAME_PRIZE_LIST@CRainbowRaceMng@@@std@@YAPAUMINIGMAME_PRIZE_LIST@CRainbowRaceMng@@QBDQAU12@II@Z PROC ; std::_Copy_memmove_tail<CRainbowRaceMng::MINIGMAME_PRIZE_LIST *>, COMDAT

; 4747 :     const char* const _First_ch, const _OutCtgIt _Dest, const size_t _Byte_count, const size_t _Object_count) {

  00000	55		 push	 ebp
  00001	8b ec		 mov	 ebp, esp
  00003	56		 push	 esi

; 4748 :     _STL_INTERNAL_CHECK(_Byte_count == _Object_count * sizeof(*_Dest));
; 4749 :     const auto _Dest_ptr = _STD _To_address(_Dest);
; 4750 :     const auto _Dest_ch  = const_cast<char*>(reinterpret_cast<const volatile char*>(_Dest_ptr));
; 4751 :     _CSTD memmove(_Dest_ch, _First_ch, _Byte_count);

  00004	8b 75 0c	 mov	 esi, DWORD PTR __Dest$[ebp]
  00007	57		 push	 edi
  00008	8b 7d 10	 mov	 edi, DWORD PTR __Byte_count$[ebp]
  0000b	57		 push	 edi
  0000c	ff 75 08	 push	 DWORD PTR __First_ch$[ebp]
  0000f	56		 push	 esi
  00010	e8 00 00 00 00	 call	 _memmove
  00015	83 c4 0c	 add	 esp, 12			; 0000000cH

; 4752 :     if constexpr (is_pointer_v<_OutCtgIt>) {
; 4753 :         (void) _Object_count;
; 4754 :         // CodeQL [SM02986] This cast is correct: we're bypassing pointer arithmetic for performance.
; 4755 :         return reinterpret_cast<_OutCtgIt>(_Dest_ch + _Byte_count);

  00018	8d 04 3e	 lea	 eax, DWORD PTR [esi+edi]
  0001b	5f		 pop	 edi
  0001c	5e		 pop	 esi

; 4756 :     } else {
; 4757 :         return _Dest + static_cast<_Iter_diff_t<_OutCtgIt>>(_Object_count);
; 4758 :     }
; 4759 : }

  0001d	5d		 pop	 ebp
  0001e	c3		 ret	 0
??$_Copy_memmove_tail@PAUMINIGMAME_PRIZE_LIST@CRainbowRaceMng@@@std@@YAPAUMINIGMAME_PRIZE_LIST@CRainbowRaceMng@@QBDQAU12@II@Z ENDP ; std::_Copy_memmove_tail<CRainbowRaceMng::MINIGMAME_PRIZE_LIST *>
_TEXT	ENDS
; Function compile flags: /Ogtp
; File C:\Program Files\Microsoft Visual Studio\2022\Professional\VC\Tools\MSVC\14.44.35207\include\xutility
;	COMDAT ??$_Fill_zero_memset@PAPAVCMiniGameBase@@@std@@YAXPAPAVCMiniGameBase@@I@Z
_TEXT	SEGMENT
__Dest$ = 8						; size = 4
__Count$ = 12						; size = 4
??$_Fill_zero_memset@PAPAVCMiniGameBase@@@std@@YAXPAPAVCMiniGameBase@@I@Z PROC ; std::_Fill_zero_memset<CMiniGameBase * *>, COMDAT

; 5269 : void _Fill_zero_memset(_CtgIt _Dest, const size_t _Count) {

  00000	55		 push	 ebp
  00001	8b ec		 mov	 ebp, esp

; 5270 :     _CSTD memset(_STD _To_address(_Dest), 0, _Count * sizeof(_Iter_value_t<_CtgIt>));

  00003	8b 45 0c	 mov	 eax, DWORD PTR __Count$[ebp]
  00006	c1 e0 02	 shl	 eax, 2
  00009	50		 push	 eax
  0000a	6a 00		 push	 0
  0000c	ff 75 08	 push	 DWORD PTR __Dest$[ebp]
  0000f	e8 00 00 00 00	 call	 _memset
  00014	83 c4 0c	 add	 esp, 12			; 0000000cH

; 5271 : }

  00017	5d		 pop	 ebp
  00018	c3		 ret	 0
??$_Fill_zero_memset@PAPAVCMiniGameBase@@@std@@YAXPAPAVCMiniGameBase@@I@Z ENDP ; std::_Fill_zero_memset<CMiniGameBase * *>
_TEXT	ENDS
; Function compile flags: /Ogtp
; File C:\Program Files\Microsoft Visual Studio\2022\Professional\VC\Tools\MSVC\14.44.35207\include\xutility
;	COMDAT ??$_Is_all_bits_zero@PAVCMiniGameBase@@@std@@YA_NABQAVCMiniGameBase@@@Z
_TEXT	SEGMENT
__Zero$1 = -4						; size = 4
__Val$ = 8						; size = 4
??$_Is_all_bits_zero@PAVCMiniGameBase@@@std@@YA_NABQAVCMiniGameBase@@@Z PROC ; std::_Is_all_bits_zero<CMiniGameBase *>, COMDAT

; 5274 : _NODISCARD bool _Is_all_bits_zero(const _Ty& _Val) {

  00000	55		 push	 ebp
  00001	8b ec		 mov	 ebp, esp
  00003	51		 push	 ecx

; 5275 :     // checks if scalar type has all bits set to zero
; 5276 :     _STL_INTERNAL_STATIC_ASSERT(is_scalar_v<_Ty> && !is_member_pointer_v<_Ty>);
; 5277 :     if constexpr (is_same_v<_Ty, nullptr_t>) {
; 5278 :         return true;
; 5279 :     } else {
; 5280 :         constexpr _Ty _Zero{};
; 5281 :         return _CSTD memcmp(&_Val, &_Zero, sizeof(_Ty)) == 0;

  00004	8b 45 08	 mov	 eax, DWORD PTR __Val$[ebp]
  00007	8d 4d fc	 lea	 ecx, DWORD PTR __Zero$1[ebp]
  0000a	c7 45 fc 00 00
	00 00		 mov	 DWORD PTR __Zero$1[ebp], 0
  00011	8b 00		 mov	 eax, DWORD PTR [eax]
  00013	3b 01		 cmp	 eax, DWORD PTR [ecx]
  00015	0f 94 c0	 sete	 al

; 5282 :     }
; 5283 : }

  00018	8b e5		 mov	 esp, ebp
  0001a	5d		 pop	 ebp
  0001b	c3		 ret	 0
??$_Is_all_bits_zero@PAVCMiniGameBase@@@std@@YA_NABQAVCMiniGameBase@@@Z ENDP ; std::_Is_all_bits_zero<CMiniGameBase *>
_TEXT	ENDS
; Function compile flags: /Ogtp
; File C:\Program Files\Microsoft Visual Studio\2022\Professional\VC\Tools\MSVC\14.44.35207\include\xutility
;	COMDAT ??$_Copy_memmove_tail@PAK@std@@YAPAKQBDQAKII@Z
_TEXT	SEGMENT
__First_ch$ = 8						; size = 4
__Dest$ = 12						; size = 4
__Byte_count$ = 16					; size = 4
__Object_count$ = 20					; size = 4
??$_Copy_memmove_tail@PAK@std@@YAPAKQBDQAKII@Z PROC	; std::_Copy_memmove_tail<unsigned long *>, COMDAT

; 4747 :     const char* const _First_ch, const _OutCtgIt _Dest, const size_t _Byte_count, const size_t _Object_count) {

  00000	55		 push	 ebp
  00001	8b ec		 mov	 ebp, esp
  00003	56		 push	 esi

; 4748 :     _STL_INTERNAL_CHECK(_Byte_count == _Object_count * sizeof(*_Dest));
; 4749 :     const auto _Dest_ptr = _STD _To_address(_Dest);
; 4750 :     const auto _Dest_ch  = const_cast<char*>(reinterpret_cast<const volatile char*>(_Dest_ptr));
; 4751 :     _CSTD memmove(_Dest_ch, _First_ch, _Byte_count);

  00004	8b 75 0c	 mov	 esi, DWORD PTR __Dest$[ebp]
  00007	57		 push	 edi
  00008	8b 7d 10	 mov	 edi, DWORD PTR __Byte_count$[ebp]
  0000b	57		 push	 edi
  0000c	ff 75 08	 push	 DWORD PTR __First_ch$[ebp]
  0000f	56		 push	 esi
  00010	e8 00 00 00 00	 call	 _memmove
  00015	83 c4 0c	 add	 esp, 12			; 0000000cH

; 4752 :     if constexpr (is_pointer_v<_OutCtgIt>) {
; 4753 :         (void) _Object_count;
; 4754 :         // CodeQL [SM02986] This cast is correct: we're bypassing pointer arithmetic for performance.
; 4755 :         return reinterpret_cast<_OutCtgIt>(_Dest_ch + _Byte_count);

  00018	8d 04 3e	 lea	 eax, DWORD PTR [esi+edi]
  0001b	5f		 pop	 edi
  0001c	5e		 pop	 esi

; 4756 :     } else {
; 4757 :         return _Dest + static_cast<_Iter_diff_t<_OutCtgIt>>(_Object_count);
; 4758 :     }
; 4759 : }

  0001d	5d		 pop	 ebp
  0001e	c3		 ret	 0
??$_Copy_memmove_tail@PAK@std@@YAPAKQBDQAKII@Z ENDP	; std::_Copy_memmove_tail<unsigned long *>
_TEXT	ENDS
; Function compile flags: /Ogtp
; File C:\Program Files\Microsoft Visual Studio\2022\Professional\VC\Tools\MSVC\14.44.35207\include\xmemory
;	COMDAT ??1?$_Alloc_construct_ptr@V?$allocator@U?$_Tree_node@U?$pair@$$CBKPAVCRainbowRace@@@std@@PAX@std@@@std@@@std@@QAE@XZ
_TEXT	SEGMENT
??1?$_Alloc_construct_ptr@V?$allocator@U?$_Tree_node@U?$pair@$$CBKPAVCRainbowRace@@@std@@PAX@std@@@std@@@std@@QAE@XZ PROC ; std::_Alloc_construct_ptr<std::allocator<std::_Tree_node<std::pair<unsigned long const ,CRainbowRace *>,void *> > >::~_Alloc_construct_ptr<std::allocator<std::_Tree_node<std::pair<unsigned long const ,CRainbowRace *>,void *> > >, COMDAT
; _this$ = ecx

; 1172 :         if (_Ptr) {

  00000	8b 41 04	 mov	 eax, DWORD PTR [ecx+4]
  00003	85 c0		 test	 eax, eax
  00005	74 0b		 je	 SHORT $LN10@Alloc_cons

; 289  :         ::operator delete(_Ptr, _Bytes);

  00007	6a 18		 push	 24			; 00000018H
  00009	50		 push	 eax
  0000a	e8 00 00 00 00	 call	 ??3@YAXPAXI@Z		; operator delete
  0000f	83 c4 08	 add	 esp, 8
$LN10@Alloc_cons:

; 1173 :             _Al.deallocate(_Ptr, 1);
; 1174 :         }
; 1175 :     }

  00012	c3		 ret	 0
??1?$_Alloc_construct_ptr@V?$allocator@U?$_Tree_node@U?$pair@$$CBKPAVCRainbowRace@@@std@@PAX@std@@@std@@@std@@QAE@XZ ENDP ; std::_Alloc_construct_ptr<std::allocator<std::_Tree_node<std::pair<unsigned long const ,CRainbowRace *>,void *> > >::~_Alloc_construct_ptr<std::allocator<std::_Tree_node<std::pair<unsigned long const ,CRainbowRace *>,void *> > >
_TEXT	ENDS
; Function compile flags: /Ogtp
; File C:\Program Files\Microsoft Visual Studio\2022\Professional\VC\Tools\MSVC\14.44.35207\include\vector
; File C:\Program Files\Microsoft Visual Studio\2022\Professional\VC\Tools\MSVC\14.44.35207\include\xmemory
; File C:\Program Files\Microsoft Visual Studio\2022\Professional\VC\Tools\MSVC\14.44.35207\include\vector
; File C:\Program Files\Microsoft Visual Studio\2022\Professional\VC\Tools\MSVC\14.44.35207\include\xmemory
; File C:\Program Files\Microsoft Visual Studio\2022\Professional\VC\Tools\MSVC\14.44.35207\include\vector
; File C:\Program Files\Microsoft Visual Studio\2022\Professional\VC\Tools\MSVC\14.44.35207\include\xmemory
; File C:\Program Files\Microsoft Visual Studio\2022\Professional\VC\Tools\MSVC\14.44.35207\include\vector
; File C:\Program Files\Microsoft Visual Studio\2022\Professional\VC\Tools\MSVC\14.44.35207\include\xmemory
; File C:\Program Files\Microsoft Visual Studio\2022\Professional\VC\Tools\MSVC\14.44.35207\include\vector
; File C:\Program Files\Microsoft Visual Studio\2022\Professional\VC\Tools\MSVC\14.44.35207\include\xmemory
; File C:\Program Files\Microsoft Visual Studio\2022\Professional\VC\Tools\MSVC\14.44.35207\include\vector
; File C:\Program Files\Microsoft Visual Studio\2022\Professional\VC\Tools\MSVC\14.44.35207\include\xmemory
; File C:\Program Files\Microsoft Visual Studio\2022\Professional\VC\Tools\MSVC\14.44.35207\include\vector
; File C:\Program Files\Microsoft Visual Studio\2022\Professional\VC\Tools\MSVC\14.44.35207\include\xmemory
; File C:\Program Files\Microsoft Visual Studio\2022\Professional\VC\Tools\MSVC\14.44.35207\include\vector
; File C:\Program Files\Microsoft Visual Studio\2022\Professional\VC\Tools\MSVC\14.44.35207\include\xmemory
; File C:\Program Files\Microsoft Visual Studio\2022\Professional\VC\Tools\MSVC\14.44.35207\include\vector
; File C:\Program Files\Microsoft Visual Studio\2022\Professional\VC\Tools\MSVC\14.44.35207\include\xmemory
; File C:\Program Files\Microsoft Visual Studio\2022\Professional\VC\Tools\MSVC\14.44.35207\include\vector
;	COMDAT ??$_Emplace_reallocate@UMINIGMAME_PRIZE_LIST@CRainbowRaceMng@@@?$vector@UMINIGMAME_PRIZE_LIST@CRainbowRaceMng@@V?$allocator@UMINIGMAME_PRIZE_LIST@CRainbowRaceMng@@@std@@@std@@AAEPAUMINIGMAME_PRIZE_LIST@CRainbowRaceMng@@QAU23@$$QAU23@@Z
_TEXT	SEGMENT
__Oldsize$1$ = -12					; size = 4
__Whereoff$1$ = -8					; size = 4
tv650 = -8						; size = 4
tv652 = -4						; size = 4
__Whereptr$ = 8						; size = 4
_<_Val_0>$ = 12						; size = 4
??$_Emplace_reallocate@UMINIGMAME_PRIZE_LIST@CRainbowRaceMng@@@?$vector@UMINIGMAME_PRIZE_LIST@CRainbowRaceMng@@V?$allocator@UMINIGMAME_PRIZE_LIST@CRainbowRaceMng@@@std@@@std@@AAEPAUMINIGMAME_PRIZE_LIST@CRainbowRaceMng@@QAU23@$$QAU23@@Z PROC ; std::vector<CRainbowRaceMng::MINIGMAME_PRIZE_LIST,std::allocator<CRainbowRaceMng::MINIGMAME_PRIZE_LIST> >::_Emplace_reallocate<CRainbowRaceMng::MINIGMAME_PRIZE_LIST>, COMDAT
; _this$ = ecx

; 875  :     _CONSTEXPR20 pointer _Emplace_reallocate(const pointer _Whereptr, _Valty&&... _Val) {

  00000	55		 push	 ebp
  00001	8b ec		 mov	 ebp, esp
  00003	83 ec 0c	 sub	 esp, 12			; 0000000cH

; 876  :         // reallocate and insert by perfectly forwarding _Val at _Whereptr
; 877  :         _Alty& _Al        = _Getal();
; 878  :         auto& _My_data    = _Mypair._Myval2;
; 879  :         pointer& _Myfirst = _My_data._Myfirst;
; 880  :         pointer& _Mylast  = _My_data._Mylast;
; 881  : 
; 882  :         _STL_INTERNAL_CHECK(_Mylast == _My_data._Myend); // check that we have no unused capacity
; 883  : 
; 884  :         const auto _Whereoff = static_cast<size_type>(_Whereptr - _Myfirst);

  00006	8b 55 08	 mov	 edx, DWORD PTR __Whereptr$[ebp]
  00009	b8 ab aa aa 2a	 mov	 eax, 715827883		; 2aaaaaabH
  0000e	53		 push	 ebx
  0000f	8b d9		 mov	 ebx, ecx
  00011	57		 push	 edi
  00012	8b 3b		 mov	 edi, DWORD PTR [ebx]
  00014	2b d7		 sub	 edx, edi

; 885  :         const auto _Oldsize  = static_cast<size_type>(_Mylast - _Myfirst);

  00016	8b 4b 04	 mov	 ecx, DWORD PTR [ebx+4]
  00019	f7 ea		 imul	 edx
  0001b	2b cf		 sub	 ecx, edi
  0001d	d1 fa		 sar	 edx, 1
  0001f	8b c2		 mov	 eax, edx
  00021	c1 e8 1f	 shr	 eax, 31			; 0000001fH
  00024	03 c2		 add	 eax, edx
  00026	89 45 f8	 mov	 DWORD PTR __Whereoff$1$[ebp], eax
  00029	b8 ab aa aa 2a	 mov	 eax, 715827883		; 2aaaaaabH
  0002e	f7 e9		 imul	 ecx
  00030	d1 fa		 sar	 edx, 1
  00032	8b c2		 mov	 eax, edx
  00034	c1 e8 1f	 shr	 eax, 31			; 0000001fH
  00037	03 c2		 add	 eax, edx
  00039	89 45 f4	 mov	 DWORD PTR __Oldsize$1$[ebp], eax

; 886  : 
; 887  :         if (_Oldsize == max_size()) {

  0003c	3d 55 55 55 15	 cmp	 eax, 357913941		; 15555555H
  00041	0f 84 42 01 00
	00		 je	 $LN119@Emplace_re

; 1924 :         return static_cast<size_type>(_My_data._Myend - _My_data._Myfirst);

  00047	8b 4b 08	 mov	 ecx, DWORD PTR [ebx+8]
  0004a	2b cf		 sub	 ecx, edi
  0004c	56		 push	 esi

; 889  :         }
; 890  : 
; 891  :         const size_type _Newsize = _Oldsize + 1;

  0004d	8d 70 01	 lea	 esi, DWORD PTR [eax+1]

; 1924 :         return static_cast<size_type>(_My_data._Myend - _My_data._Myfirst);

  00050	b8 ab aa aa 2a	 mov	 eax, 715827883		; 2aaaaaabH
  00055	f7 e9		 imul	 ecx

; 2011 :         if (_Oldcapacity > _Max - _Oldcapacity / 2) {

  00057	b8 55 55 55 15	 mov	 eax, 357913941		; 15555555H

; 1924 :         return static_cast<size_type>(_My_data._Myend - _My_data._Myfirst);

  0005c	d1 fa		 sar	 edx, 1
  0005e	8b ca		 mov	 ecx, edx
  00060	c1 e9 1f	 shr	 ecx, 31			; 0000001fH
  00063	03 ca		 add	 ecx, edx

; 2011 :         if (_Oldcapacity > _Max - _Oldcapacity / 2) {

  00065	8b d1		 mov	 edx, ecx
  00067	d1 ea		 shr	 edx, 1
  00069	2b c2		 sub	 eax, edx
  0006b	3b c8		 cmp	 ecx, eax
  0006d	76 14		 jbe	 SHORT $LN8@Emplace_re

; 2012 :             return _Max; // geometric growth would overflow

  0006f	b8 fc ff ff ff	 mov	 eax, -4			; fffffffcH
  00074	c7 45 fc fc ff
	ff ff		 mov	 DWORD PTR tv652[ebp], -4 ; fffffffcH
; File C:\Program Files\Microsoft Visual Studio\2022\Professional\VC\Tools\MSVC\14.44.35207\include\xmemory

; 253  :             return _Allocate_manually_vector_aligned<_Traits>(_Bytes);

  0007b	50		 push	 eax
  0007c	e8 00 00 00 00	 call	 ??$_Allocate_manually_vector_aligned@U_Default_allocate_traits@std@@@std@@YAPAXI@Z ; std::_Allocate_manually_vector_aligned<std::_Default_allocate_traits>
  00081	eb 3e		 jmp	 SHORT $LN117@Emplace_re
$LN8@Emplace_re:
; File C:\Program Files\Microsoft Visual Studio\2022\Professional\VC\Tools\MSVC\14.44.35207\include\vector

; 2015 :         const size_type _Geometric = _Oldcapacity + _Oldcapacity / 2;

  00083	8d 04 0a	 lea	 eax, DWORD PTR [edx+ecx]
; File C:\Program Files\Microsoft Visual Studio\2022\Professional\VC\Tools\MSVC\14.44.35207\include\xmemory

; 117  :         if (_Count > _Max_possible) {

  00086	8b ce		 mov	 ecx, esi
  00088	3b c6		 cmp	 eax, esi
  0008a	0f 43 c8	 cmovae	 ecx, eax
  0008d	81 f9 55 55 55
	15		 cmp	 ecx, 357913941		; 15555555H
  00093	0f 87 f5 00 00
	00		 ja	 $LN120@Emplace_re

; 119  :         }
; 120  :     }
; 121  : 
; 122  :     return _Count * _Ty_size;

  00099	8d 34 49	 lea	 esi, DWORD PTR [ecx+ecx*2]
  0009c	c1 e6 02	 shl	 esi, 2

; 990  :         return static_cast<_Ty*>(_STD _Allocate<_New_alignof<_Ty>>(_Get_size_of_n<sizeof(_Ty)>(_Count)));

  0009f	8b c6		 mov	 eax, esi

; 122  :     return _Count * _Ty_size;

  000a1	89 75 fc	 mov	 DWORD PTR tv652[ebp], esi

; 227  :     if (_Bytes == 0) {

  000a4	85 c0		 test	 eax, eax
  000a6	75 04		 jne	 SHORT $LN23@Emplace_re

; 228  :         return nullptr;

  000a8	33 ff		 xor	 edi, edi
  000aa	eb 1a		 jmp	 SHORT $LN22@Emplace_re
$LN23@Emplace_re:

; 229  :     }
; 230  : 
; 231  : #if _HAS_CXX20 // TRANSITION, GH-1532
; 232  :     if (_STD is_constant_evaluated()) {
; 233  :         return _Traits::_Allocate(_Bytes);
; 234  :     }
; 235  : #endif // _HAS_CXX20
; 236  : 
; 237  : #ifdef __cpp_aligned_new
; 238  :     if constexpr (_Align > __STDCPP_DEFAULT_NEW_ALIGNMENT__) {
; 239  :         size_t _Passed_align = _Align;
; 240  : #if defined(_M_IX86) || defined(_M_X64)
; 241  :         if (_Bytes >= _Big_allocation_threshold) {
; 242  :             // boost the alignment of big allocations to help autovectorization
; 243  :             _Passed_align = (_STD max)(_Align, _Big_allocation_alignment);
; 244  :         }
; 245  : #endif // defined(_M_IX86) || defined(_M_X64)
; 246  :         return _Traits::_Allocate_aligned(_Bytes, _Passed_align);
; 247  :     } else
; 248  : #endif // defined(__cpp_aligned_new)
; 249  :     {
; 250  : #if defined(_M_IX86) || defined(_M_X64)
; 251  :         if (_Bytes >= _Big_allocation_threshold) {

  000ac	3d 00 10 00 00	 cmp	 eax, 4096		; 00001000H
  000b1	72 08		 jb	 SHORT $LN24@Emplace_re

; 253  :             return _Allocate_manually_vector_aligned<_Traits>(_Bytes);

  000b3	50		 push	 eax
  000b4	e8 00 00 00 00	 call	 ??$_Allocate_manually_vector_aligned@U_Default_allocate_traits@std@@@std@@YAPAXI@Z ; std::_Allocate_manually_vector_aligned<std::_Default_allocate_traits>
  000b9	eb 06		 jmp	 SHORT $LN117@Emplace_re
$LN24@Emplace_re:

; 136  :         return ::operator new(_Bytes);

  000bb	50		 push	 eax
  000bc	e8 00 00 00 00	 call	 ??2@YAPAXI@Z		; operator new
$LN117@Emplace_re:
; File C:\Program Files\Microsoft Visual Studio\2022\Professional\VC\Tools\MSVC\14.44.35207\include\vector

; 900  :         _Alty_traits::construct(_Al, _STD _Unfancy(_Newvec + _Whereoff), _STD forward<_Valty>(_Val)...);

  000c1	8b f8		 mov	 edi, eax
  000c3	83 c4 04	 add	 esp, 4
$LN22@Emplace_re:
  000c6	8b 45 f8	 mov	 eax, DWORD PTR __Whereoff$1$[ebp]

; 903  :         if (_Whereptr == _Mylast) { // at back, provide strong guarantee

  000c9	8b 55 08	 mov	 edx, DWORD PTR __Whereptr$[ebp]
  000cc	8d 04 40	 lea	 eax, DWORD PTR [eax+eax*2]
  000cf	8d 34 87	 lea	 esi, DWORD PTR [edi+eax*4]
; File C:\Program Files\Microsoft Visual Studio\2022\Professional\VC\Tools\MSVC\14.44.35207\include\xmemory

; 732  :         ::new (const_cast<void*>(static_cast<const volatile void*>(_Ptr))) _Objty(_STD forward<_Types>(_Args)...);

  000d2	8b 45 0c	 mov	 eax, DWORD PTR _<_Val_0>$[ebp]
; File C:\Program Files\Microsoft Visual Studio\2022\Professional\VC\Tools\MSVC\14.44.35207\include\vector

; 900  :         _Alty_traits::construct(_Al, _STD _Unfancy(_Newvec + _Whereoff), _STD forward<_Valty>(_Val)...);

  000d5	89 75 f8	 mov	 DWORD PTR tv650[ebp], esi
; File C:\Program Files\Microsoft Visual Studio\2022\Professional\VC\Tools\MSVC\14.44.35207\include\xmemory

; 732  :         ::new (const_cast<void*>(static_cast<const volatile void*>(_Ptr))) _Objty(_STD forward<_Types>(_Args)...);

  000d8	f3 0f 7e 00	 movq	 xmm0, QWORD PTR [eax]
  000dc	66 0f d6 06	 movq	 QWORD PTR [esi], xmm0
  000e0	8b 40 08	 mov	 eax, DWORD PTR [eax+8]
  000e3	89 46 08	 mov	 DWORD PTR [esi+8], eax
; File C:\Program Files\Microsoft Visual Studio\2022\Professional\VC\Tools\MSVC\14.44.35207\include\vector

; 903  :         if (_Whereptr == _Mylast) { // at back, provide strong guarantee

  000e6	8b 4b 04	 mov	 ecx, DWORD PTR [ebx+4]
  000e9	8b 03		 mov	 eax, DWORD PTR [ebx]
  000eb	3b d1		 cmp	 edx, ecx
  000ed	75 04		 jne	 SHORT $LN3@Emplace_re
; File C:\Program Files\Microsoft Visual Studio\2022\Professional\VC\Tools\MSVC\14.44.35207\include\xmemory

; 1992 :             _STD _Copy_memmove(_UFirst, _ULast, _STD _Unfancy(_Dest));

  000ef	8b f7		 mov	 esi, edi
; File C:\Program Files\Microsoft Visual Studio\2022\Professional\VC\Tools\MSVC\14.44.35207\include\vector

; 909  :         } else { // provide basic guarantee

  000f1	eb 14		 jmp	 SHORT $LN58@Emplace_re
$LN3@Emplace_re:
; File C:\Program Files\Microsoft Visual Studio\2022\Professional\VC\Tools\MSVC\14.44.35207\include\xmemory

; 1992 :             _STD _Copy_memmove(_UFirst, _ULast, _STD _Unfancy(_Dest));

  000f3	57		 push	 edi
  000f4	52		 push	 edx
  000f5	50		 push	 eax
  000f6	e8 00 00 00 00	 call	 ??$_Copy_memmove@PAUMINIGMAME_PRIZE_LIST@CRainbowRaceMng@@PAU12@@std@@YAPAUMINIGMAME_PRIZE_LIST@CRainbowRaceMng@@PAU12@00@Z ; std::_Copy_memmove<CRainbowRaceMng::MINIGMAME_PRIZE_LIST *,CRainbowRaceMng::MINIGMAME_PRIZE_LIST *>
  000fb	8b 45 08	 mov	 eax, DWORD PTR __Whereptr$[ebp]
  000fe	83 c4 0c	 add	 esp, 12			; 0000000cH
  00101	8b 4b 04	 mov	 ecx, DWORD PTR [ebx+4]
; File C:\Program Files\Microsoft Visual Studio\2022\Professional\VC\Tools\MSVC\14.44.35207\include\vector

; 912  :             _STD _Uninitialized_move(_Whereptr, _Mylast, _Newvec + _Whereoff + 1, _Al);

  00104	83 c6 0c	 add	 esi, 12			; 0000000cH
$LN58@Emplace_re:

; 913  :         }
; 914  : 
; 915  :         _Guard._New_begin = nullptr;

  00107	56		 push	 esi
  00108	51		 push	 ecx
  00109	50		 push	 eax
  0010a	e8 00 00 00 00	 call	 ??$_Copy_memmove@PAUMINIGMAME_PRIZE_LIST@CRainbowRaceMng@@PAU12@@std@@YAPAUMINIGMAME_PRIZE_LIST@CRainbowRaceMng@@PAU12@00@Z ; std::_Copy_memmove<CRainbowRaceMng::MINIGMAME_PRIZE_LIST *,CRainbowRaceMng::MINIGMAME_PRIZE_LIST *>

; 2069 :         if (_Myfirst) { // destroy and deallocate old array

  0010f	8b 33		 mov	 esi, DWORD PTR [ebx]

; 913  :         }
; 914  : 
; 915  :         _Guard._New_begin = nullptr;

  00111	83 c4 0c	 add	 esp, 12			; 0000000cH

; 2069 :         if (_Myfirst) { // destroy and deallocate old array

  00114	85 f6		 test	 esi, esi
  00116	74 3f		 je	 SHORT $LN80@Emplace_re

; 2070 :             _STD _Destroy_range(_Myfirst, _Mylast, _Al);
; 2071 :             _ASAN_VECTOR_REMOVE;
; 2072 :             _Al.deallocate(_Myfirst, static_cast<size_type>(_Myend - _Myfirst));

  00118	8b 4b 08	 mov	 ecx, DWORD PTR [ebx+8]
  0011b	b8 ab aa aa 2a	 mov	 eax, 715827883		; 2aaaaaabH
  00120	2b ce		 sub	 ecx, esi
  00122	f7 e9		 imul	 ecx
  00124	d1 fa		 sar	 edx, 1
  00126	8b c2		 mov	 eax, edx
  00128	c1 e8 1f	 shr	 eax, 31			; 0000001fH
  0012b	03 c2		 add	 eax, edx
; File C:\Program Files\Microsoft Visual Studio\2022\Professional\VC\Tools\MSVC\14.44.35207\include\xmemory

; 985  :         _STD _Deallocate<_New_alignof<_Ty>>(_Ptr, sizeof(_Ty) * _Count);

  0012d	8d 0c 40	 lea	 ecx, DWORD PTR [eax+eax*2]
  00130	c1 e1 02	 shl	 ecx, 2

; 284  :         if (_Bytes >= _Big_allocation_threshold) {

  00133	81 f9 00 10 00
	00		 cmp	 ecx, 4096		; 00001000H
  00139	72 12		 jb	 SHORT $LN85@Emplace_re

; 205  :     const uintptr_t _Ptr_container   = _Ptr_user[-1];

  0013b	8b 56 fc	 mov	 edx, DWORD PTR [esi-4]
  0013e	83 c1 23	 add	 ecx, 35			; 00000023H

; 206  : 
; 207  :     // If the following asserts, it likely means that we are performing
; 208  :     // an aligned delete on memory coming from an unaligned allocation.
; 209  :     _STL_ASSERT(_Ptr_user[-2] == _Big_allocation_sentinel, "invalid argument");
; 210  : 
; 211  :     // Extra paranoia on aligned allocation/deallocation; ensure _Ptr_container is
; 212  :     // in range [_Min_back_shift, _Non_user_size]
; 213  : #ifdef _DEBUG
; 214  :     constexpr uintptr_t _Min_back_shift = 2 * sizeof(void*);
; 215  : #else // ^^^ defined(_DEBUG) / !defined(_DEBUG) vvv
; 216  :     constexpr uintptr_t _Min_back_shift = sizeof(void*);
; 217  : #endif // ^^^ !defined(_DEBUG) ^^^
; 218  :     const uintptr_t _Back_shift = reinterpret_cast<uintptr_t>(_Ptr) - _Ptr_container;

  00141	2b f2		 sub	 esi, edx

; 219  :     _STL_VERIFY(_Back_shift >= _Min_back_shift && _Back_shift <= _Non_user_size, "invalid argument");

  00143	8d 46 fc	 lea	 eax, DWORD PTR [esi-4]
  00146	83 f8 1f	 cmp	 eax, 31			; 0000001fH
  00149	77 2f		 ja	 SHORT $LN84@Emplace_re

; 220  :     _Ptr = reinterpret_cast<void*>(_Ptr_container);

  0014b	8b f2		 mov	 esi, edx
$LN85@Emplace_re:

; 289  :         ::operator delete(_Ptr, _Bytes);

  0014d	51		 push	 ecx
  0014e	56		 push	 esi
  0014f	e8 00 00 00 00	 call	 ??3@YAXPAXI@Z		; operator delete
  00154	83 c4 08	 add	 esp, 8
$LN80@Emplace_re:
; File C:\Program Files\Microsoft Visual Studio\2022\Professional\VC\Tools\MSVC\14.44.35207\include\vector

; 2076 :         _Mylast  = _Newvec + _Newsize;

  00157	8b 45 f4	 mov	 eax, DWORD PTR __Oldsize$1$[ebp]
  0015a	40		 inc	 eax
  0015b	89 3b		 mov	 DWORD PTR [ebx], edi

; 916  :         _Change_array(_Newvec, _Newsize, _Newcapacity);
; 917  :         return _Newvec + _Whereoff;

  0015d	5e		 pop	 esi

; 2076 :         _Mylast  = _Newvec + _Newsize;

  0015e	8d 0c 40	 lea	 ecx, DWORD PTR [eax+eax*2]

; 916  :         _Change_array(_Newvec, _Newsize, _Newcapacity);
; 917  :         return _Newvec + _Whereoff;

  00161	8b 45 f8	 mov	 eax, DWORD PTR tv650[ebp]

; 2076 :         _Mylast  = _Newvec + _Newsize;

  00164	8d 0c 8f	 lea	 ecx, DWORD PTR [edi+ecx*4]
  00167	89 4b 04	 mov	 DWORD PTR [ebx+4], ecx

; 2077 :         _Myend   = _Newvec + _Newcapacity;

  0016a	8b 4d fc	 mov	 ecx, DWORD PTR tv652[ebp]
  0016d	03 cf		 add	 ecx, edi

; 918  :     }

  0016f	5f		 pop	 edi

; 2077 :         _Myend   = _Newvec + _Newcapacity;

  00170	89 4b 08	 mov	 DWORD PTR [ebx+8], ecx

; 918  :     }

  00173	5b		 pop	 ebx
  00174	8b e5		 mov	 esp, ebp
  00176	5d		 pop	 ebp
  00177	c2 08 00	 ret	 8
$LN84@Emplace_re:
; File C:\Program Files\Microsoft Visual Studio\2022\Professional\VC\Tools\MSVC\14.44.35207\include\xmemory

; 219  :     _STL_VERIFY(_Back_shift >= _Min_back_shift && _Back_shift <= _Non_user_size, "invalid argument");

  0017a	6a 00		 push	 0
  0017c	6a 00		 push	 0
  0017e	6a 00		 push	 0
  00180	6a 00		 push	 0
  00182	6a 00		 push	 0
  00184	e8 00 00 00 00	 call	 __invoke_watson
$LN119@Emplace_re:
; File C:\Program Files\Microsoft Visual Studio\2022\Professional\VC\Tools\MSVC\14.44.35207\include\vector

; 888  :             _Xlength();

  00189	e8 00 00 00 00	 call	 ?_Xlength@?$vector@UMINIGMAME_PRIZE_LIST@CRainbowRaceMng@@V?$allocator@UMINIGMAME_PRIZE_LIST@CRainbowRaceMng@@@std@@@std@@CAXXZ ; std::vector<CRainbowRaceMng::MINIGMAME_PRIZE_LIST,std::allocator<CRainbowRaceMng::MINIGMAME_PRIZE_LIST> >::_Xlength
$LN120@Emplace_re:
; File C:\Program Files\Microsoft Visual Studio\2022\Professional\VC\Tools\MSVC\14.44.35207\include\xmemory

; 118  :             _Throw_bad_array_new_length(); // multiply overflow

  0018e	e8 00 00 00 00	 call	 ?_Throw_bad_array_new_length@std@@YAXXZ ; std::_Throw_bad_array_new_length
$LN116@Emplace_re:
  00193	cc		 int	 3
??$_Emplace_reallocate@UMINIGMAME_PRIZE_LIST@CRainbowRaceMng@@@?$vector@UMINIGMAME_PRIZE_LIST@CRainbowRaceMng@@V?$allocator@UMINIGMAME_PRIZE_LIST@CRainbowRaceMng@@@std@@@std@@AAEPAUMINIGMAME_PRIZE_LIST@CRainbowRaceMng@@QAU23@$$QAU23@@Z ENDP ; std::vector<CRainbowRaceMng::MINIGMAME_PRIZE_LIST,std::allocator<CRainbowRaceMng::MINIGMAME_PRIZE_LIST> >::_Emplace_reallocate<CRainbowRaceMng::MINIGMAME_PRIZE_LIST>
_TEXT	ENDS
; Function compile flags: /Ogtp
; File C:\Program Files\Microsoft Visual Studio\2022\Professional\VC\Tools\MSVC\14.44.35207\include\xutility
;	COMDAT ??$_Copy_memmove@PAUMINIGMAME_PRIZE_LIST@CRainbowRaceMng@@PAU12@@std@@YAPAUMINIGMAME_PRIZE_LIST@CRainbowRaceMng@@PAU12@00@Z
_TEXT	SEGMENT
__First$ = 8						; size = 4
__Last$ = 12						; size = 4
__Dest$ = 16						; size = 4
??$_Copy_memmove@PAUMINIGMAME_PRIZE_LIST@CRainbowRaceMng@@PAU12@@std@@YAPAUMINIGMAME_PRIZE_LIST@CRainbowRaceMng@@PAU12@00@Z PROC ; std::_Copy_memmove<CRainbowRaceMng::MINIGMAME_PRIZE_LIST *,CRainbowRaceMng::MINIGMAME_PRIZE_LIST *>, COMDAT

; 4762 : _OutCtgIt _Copy_memmove(_CtgIt _First, _CtgIt _Last, _OutCtgIt _Dest) {

  00000	55		 push	 ebp
  00001	8b ec		 mov	 ebp, esp

; 4763 :     _STL_INTERNAL_CHECK(_First <= _Last);
; 4764 :     const auto _First_ptr    = _STD _To_address(_First);
; 4765 :     const auto _Last_ptr     = _STD _To_address(_Last);
; 4766 :     const auto _Object_count = static_cast<size_t>(_Last_ptr - _First_ptr);

  00003	8b 4d 0c	 mov	 ecx, DWORD PTR __Last$[ebp]
  00006	b8 ab aa aa 2a	 mov	 eax, 715827883		; 2aaaaaabH
  0000b	2b 4d 08	 sub	 ecx, DWORD PTR __First$[ebp]
  0000e	f7 e9		 imul	 ecx
  00010	d1 fa		 sar	 edx, 1
  00012	8b c2		 mov	 eax, edx
  00014	c1 e8 1f	 shr	 eax, 31			; 0000001fH
  00017	03 c2		 add	 eax, edx

; 4767 :     const auto _First_ch     = const_cast<const char*>(reinterpret_cast<const volatile char*>(_First_ptr));
; 4768 :     const auto _Last_ch      = const_cast<const char*>(reinterpret_cast<const volatile char*>(_Last_ptr));
; 4769 :     const auto _Byte_count   = static_cast<size_t>(_Last_ch - _First_ch);
; 4770 :     return _STD _Copy_memmove_tail(_First_ch, _STD move(_Dest), _Byte_count, _Object_count);

  00019	50		 push	 eax
  0001a	51		 push	 ecx
  0001b	ff 75 10	 push	 DWORD PTR __Dest$[ebp]
  0001e	ff 75 08	 push	 DWORD PTR __First$[ebp]
  00021	e8 00 00 00 00	 call	 ??$_Copy_memmove_tail@PAUMINIGMAME_PRIZE_LIST@CRainbowRaceMng@@@std@@YAPAUMINIGMAME_PRIZE_LIST@CRainbowRaceMng@@QBDQAU12@II@Z ; std::_Copy_memmove_tail<CRainbowRaceMng::MINIGMAME_PRIZE_LIST *>
  00026	83 c4 10	 add	 esp, 16			; 00000010H

; 4771 : }

  00029	5d		 pop	 ebp
  0002a	c3		 ret	 0
??$_Copy_memmove@PAUMINIGMAME_PRIZE_LIST@CRainbowRaceMng@@PAU12@@std@@YAPAUMINIGMAME_PRIZE_LIST@CRainbowRaceMng@@PAU12@00@Z ENDP ; std::_Copy_memmove<CRainbowRaceMng::MINIGMAME_PRIZE_LIST *,CRainbowRaceMng::MINIGMAME_PRIZE_LIST *>
_TEXT	ENDS
; Function compile flags: /Ogtp
; File C:\Program Files\Microsoft Visual Studio\2022\Professional\VC\Tools\MSVC\14.44.35207\include\xtree
; File C:\Program Files\Microsoft Visual Studio\2022\Professional\VC\Tools\MSVC\14.44.35207\include\type_traits
; File C:\Program Files\Microsoft Visual Studio\2022\Professional\VC\Tools\MSVC\14.44.35207\include\xtree
; File C:\Program Files\Microsoft Visual Studio\2022\Professional\VC\Tools\MSVC\14.44.35207\include\type_traits
; File C:\Program Files\Microsoft Visual Studio\2022\Professional\VC\Tools\MSVC\14.44.35207\include\xtree
;	COMDAT ??$_Find_lower_bound@K@?$_Tree@V?$_Tmap_traits@KPAVCRainbowRace@@U?$less@K@std@@V?$allocator@U?$pair@$$CBKPAVCRainbowRace@@@std@@@3@$0A@@std@@@std@@IBE?AU?$_Tree_find_result@PAU?$_Tree_node@U?$pair@$$CBKPAVCRainbowRace@@@std@@PAX@std@@@1@ABK@Z
_TEXT	SEGMENT
___$ReturnUdt$ = 8					; size = 4
__Keyval$ = 12						; size = 4
??$_Find_lower_bound@K@?$_Tree@V?$_Tmap_traits@KPAVCRainbowRace@@U?$less@K@std@@V?$allocator@U?$pair@$$CBKPAVCRainbowRace@@@std@@@3@$0A@@std@@@std@@IBE?AU?$_Tree_find_result@PAU?$_Tree_node@U?$pair@$$CBKPAVCRainbowRace@@@std@@PAX@std@@@1@ABK@Z PROC ; std::_Tree<std::_Tmap_traits<unsigned long,CRainbowRace *,std::less<unsigned long>,std::allocator<std::pair<unsigned long const ,CRainbowRace *> >,0> >::_Find_lower_bound<unsigned long>, COMDAT
; _this$ = ecx

; 1628 :     _Tree_find_result<_Nodeptr> _Find_lower_bound(const _Keyty& _Keyval) const {

  00000	55		 push	 ebp
  00001	8b ec		 mov	 ebp, esp

; 1629 :         const auto _Scary = _Get_scary();
; 1630 :         _Tree_find_result<_Nodeptr> _Result{{_Scary->_Myhead->_Parent, _Tree_child::_Right}, _Scary->_Myhead};

  00003	8b 09		 mov	 ecx, DWORD PTR [ecx]
  00005	8b 55 08	 mov	 edx, DWORD PTR ___$ReturnUdt$[ebp]
  00008	8b 41 04	 mov	 eax, DWORD PTR [ecx+4]
  0000b	89 02		 mov	 DWORD PTR [edx], eax
  0000d	c7 42 04 00 00
	00 00		 mov	 DWORD PTR [edx+4], 0
  00014	89 4a 08	 mov	 DWORD PTR [edx+8], ecx

; 1631 :         _Nodeptr _Trynode = _Result._Location._Parent;
; 1632 :         while (!_Trynode->_Isnil) {

  00017	80 78 0d 00	 cmp	 BYTE PTR [eax+13], 0
  0001b	75 28		 jne	 SHORT $LN13@Find_lower
; File C:\Program Files\Microsoft Visual Studio\2022\Professional\VC\Tools\MSVC\14.44.35207\include\type_traits

; 2380 :         return _Left < _Right;

  0001d	8b 4d 0c	 mov	 ecx, DWORD PTR __Keyval$[ebp]
  00020	56		 push	 esi
  00021	8b 31		 mov	 esi, DWORD PTR [ecx]
$LL2@Find_lower:
; File C:\Program Files\Microsoft Visual Studio\2022\Professional\VC\Tools\MSVC\14.44.35207\include\xtree

; 1633 :             _Result._Location._Parent = _Trynode;

  00023	89 02		 mov	 DWORD PTR [edx], eax
; File C:\Program Files\Microsoft Visual Studio\2022\Professional\VC\Tools\MSVC\14.44.35207\include\type_traits

; 2380 :         return _Left < _Right;

  00025	39 70 10	 cmp	 DWORD PTR [eax+16], esi
; File C:\Program Files\Microsoft Visual Studio\2022\Professional\VC\Tools\MSVC\14.44.35207\include\xtree

; 1634 :             if (_DEBUG_LT_PRED(_Getcomp(), _Traits::_Kfn(_Trynode->_Myval), _Keyval)) {

  00028	73 07		 jae	 SHORT $LN4@Find_lower

; 1635 :                 _Result._Location._Child = _Tree_child::_Right;
; 1636 :                 _Trynode                 = _Trynode->_Right;

  0002a	8b 40 08	 mov	 eax, DWORD PTR [eax+8]
  0002d	33 c9		 xor	 ecx, ecx

; 1637 :             } else {

  0002f	eb 0a		 jmp	 SHORT $LN5@Find_lower
$LN4@Find_lower:

; 1638 :                 _Result._Location._Child = _Tree_child::_Left;
; 1639 :                 _Result._Bound           = _Trynode;

  00031	89 42 08	 mov	 DWORD PTR [edx+8], eax

; 1640 :                 _Trynode                 = _Trynode->_Left;

  00034	b9 01 00 00 00	 mov	 ecx, 1
  00039	8b 00		 mov	 eax, DWORD PTR [eax]
$LN5@Find_lower:

; 1631 :         _Nodeptr _Trynode = _Result._Location._Parent;
; 1632 :         while (!_Trynode->_Isnil) {

  0003b	89 4a 04	 mov	 DWORD PTR [edx+4], ecx
  0003e	80 78 0d 00	 cmp	 BYTE PTR [eax+13], 0
  00042	74 df		 je	 SHORT $LL2@Find_lower
  00044	5e		 pop	 esi
$LN13@Find_lower:

; 1641 :             }
; 1642 :         }
; 1643 : 
; 1644 :         return _Result;
; 1645 :     }

  00045	8b c2		 mov	 eax, edx
  00047	5d		 pop	 ebp
  00048	c2 08 00	 ret	 8
??$_Find_lower_bound@K@?$_Tree@V?$_Tmap_traits@KPAVCRainbowRace@@U?$less@K@std@@V?$allocator@U?$pair@$$CBKPAVCRainbowRace@@@std@@@3@$0A@@std@@@std@@IBE?AU?$_Tree_find_result@PAU?$_Tree_node@U?$pair@$$CBKPAVCRainbowRace@@@std@@PAX@std@@@1@ABK@Z ENDP ; std::_Tree<std::_Tmap_traits<unsigned long,CRainbowRace *,std::less<unsigned long>,std::allocator<std::pair<unsigned long const ,CRainbowRace *> >,0> >::_Find_lower_bound<unsigned long>
_TEXT	ENDS
; Function compile flags: /Ogtp
; File C:\Program Files\Microsoft Visual Studio\2022\Professional\VC\Tools\MSVC\14.44.35207\include\xmemory
;	COMDAT ??$_Uninitialized_fill_n@V?$allocator@PAVCMiniGameBase@@@std@@@std@@YAPAPAVCMiniGameBase@@PAPAV1@IABQAV1@AAV?$allocator@PAVCMiniGameBase@@@0@@Z
_TEXT	SEGMENT
__First$ = 8						; size = 4
__Count$ = 12						; size = 4
__Val$ = 16						; size = 4
__Al$ = 20						; size = 4
??$_Uninitialized_fill_n@V?$allocator@PAVCMiniGameBase@@@std@@@std@@YAPAPAVCMiniGameBase@@PAPAV1@IABQAV1@AAV?$allocator@PAVCMiniGameBase@@@0@@Z PROC ; std::_Uninitialized_fill_n<std::allocator<CMiniGameBase *> >, COMDAT

; 2007 :     _Alloc_ptr_t<_Alloc> _First, _Alloc_size_t<_Alloc> _Count, const typename _Alloc::value_type& _Val, _Alloc& _Al) {

  00000	55		 push	 ebp
  00001	8b ec		 mov	 ebp, esp
  00003	56		 push	 esi

; 2008 :     // copy _Count copies of _Val to raw _First, using _Al
; 2009 :     using _Ty = typename _Alloc::value_type;
; 2010 :     if constexpr (_Fill_memset_is_safe<_Ty*, _Ty> && _Uses_default_construct<_Alloc, _Ty*, _Ty>::value) {
; 2011 : #if _HAS_CXX20
; 2012 :         if (!_STD is_constant_evaluated())
; 2013 : #endif // _HAS_CXX20
; 2014 :         {
; 2015 :             _Fill_memset(_Unfancy(_First), _Val, static_cast<size_t>(_Count));
; 2016 :             return _First + _Count;
; 2017 :         }
; 2018 :     } else if constexpr (_Fill_zero_memset_is_safe<_Ty*, _Ty> && _Uses_default_construct<_Alloc, _Ty*, _Ty>::value) {
; 2019 : #if _HAS_CXX20
; 2020 :         if (!_STD is_constant_evaluated())
; 2021 : #endif // _HAS_CXX20
; 2022 :         {
; 2023 :             if (_Is_all_bits_zero(_Val)) {

  00004	8b 75 10	 mov	 esi, DWORD PTR __Val$[ebp]
  00007	56		 push	 esi
  00008	e8 00 00 00 00	 call	 ??$_Is_all_bits_zero@PAVCMiniGameBase@@@std@@YA_NABQAVCMiniGameBase@@@Z ; std::_Is_all_bits_zero<CMiniGameBase *>
  0000d	83 c4 04	 add	 esp, 4
  00010	84 c0		 test	 al, al
  00012	74 18		 je	 SHORT $LN5@Uninitiali

; 2024 :                 _Fill_zero_memset(_Unfancy(_First), static_cast<size_t>(_Count));

  00014	8b 75 08	 mov	 esi, DWORD PTR __First$[ebp]
  00017	57		 push	 edi
  00018	8b 7d 0c	 mov	 edi, DWORD PTR __Count$[ebp]
  0001b	57		 push	 edi
  0001c	56		 push	 esi
  0001d	e8 00 00 00 00	 call	 ??$_Fill_zero_memset@PAPAVCMiniGameBase@@@std@@YAXPAPAVCMiniGameBase@@I@Z ; std::_Fill_zero_memset<CMiniGameBase * *>
  00022	83 c4 08	 add	 esp, 8

; 2025 :                 return _First + _Count;

  00025	8d 04 be	 lea	 eax, DWORD PTR [esi+edi*4]
  00028	5f		 pop	 edi
  00029	5e		 pop	 esi

; 2032 :         _Backout._Emplace_back(_Val);
; 2033 :     }
; 2034 : 
; 2035 :     return _Backout._Release();
; 2036 : }

  0002a	5d		 pop	 ebp
  0002b	c3		 ret	 0
$LN5@Uninitiali:

; 2026 :             }
; 2027 :         }
; 2028 :     }
; 2029 : 
; 2030 :     _Uninitialized_backout_al<_Alloc> _Backout{_First, _Al};
; 2031 :     for (; 0 < _Count; --_Count) {

  0002c	8b 55 0c	 mov	 edx, DWORD PTR __Count$[ebp]

; 1833 :     _CONSTEXPR20 _Uninitialized_backout_al(pointer _Dest, _Alloc& _Al_) : _First(_Dest), _Last(_Dest), _Al(_Al_) {}

  0002f	8b 45 08	 mov	 eax, DWORD PTR __First$[ebp]

; 2026 :             }
; 2027 :         }
; 2028 :     }
; 2029 : 
; 2030 :     _Uninitialized_backout_al<_Alloc> _Backout{_First, _Al};
; 2031 :     for (; 0 < _Count; --_Count) {

  00032	85 d2		 test	 edx, edx
  00034	74 0c		 je	 SHORT $LN1@Uninitiali
$LL4@Uninitiali:

; 1844 :         allocator_traits<_Alloc>::construct(_Al, _STD _Unfancy(_Last), _STD forward<_Types>(_Vals)...);

  00036	8b 0e		 mov	 ecx, DWORD PTR [esi]
  00038	89 08		 mov	 DWORD PTR [eax], ecx

; 1845 :         ++_Last;

  0003a	83 c0 04	 add	 eax, 4

; 2026 :             }
; 2027 :         }
; 2028 :     }
; 2029 : 
; 2030 :     _Uninitialized_backout_al<_Alloc> _Backout{_First, _Al};
; 2031 :     for (; 0 < _Count; --_Count) {

  0003d	83 ea 01	 sub	 edx, 1
  00040	75 f4		 jne	 SHORT $LL4@Uninitiali
$LN1@Uninitiali:
  00042	5e		 pop	 esi

; 2032 :         _Backout._Emplace_back(_Val);
; 2033 :     }
; 2034 : 
; 2035 :     return _Backout._Release();
; 2036 : }

  00043	5d		 pop	 ebp
  00044	c3		 ret	 0
??$_Uninitialized_fill_n@V?$allocator@PAVCMiniGameBase@@@std@@@std@@YAPAPAVCMiniGameBase@@PAPAV1@IABQAV1@AAV?$allocator@PAVCMiniGameBase@@@0@@Z ENDP ; std::_Uninitialized_fill_n<std::allocator<CMiniGameBase *> >
_TEXT	ENDS
; Function compile flags: /Ogtp
; File C:\Program Files\Microsoft Visual Studio\2022\Professional\VC\Tools\MSVC\14.44.35207\include\xutility
;	COMDAT ??$_Copy_memmove_n@PAKPAK@std@@YAPAKPAKI0@Z
_TEXT	SEGMENT
__First$ = 8						; size = 4
__Object_count$ = 12					; size = 4
__Dest$ = 16						; size = 4
??$_Copy_memmove_n@PAKPAK@std@@YAPAKPAKI0@Z PROC	; std::_Copy_memmove_n<unsigned long *,unsigned long *>, COMDAT

; 4774 : _OutCtgIt _Copy_memmove_n(_CtgIt _First, const size_t _Object_count, _OutCtgIt _Dest) {

  00000	55		 push	 ebp
  00001	8b ec		 mov	 ebp, esp

; 4775 :     const auto _First_ptr  = _STD _To_address(_First);
; 4776 :     const auto _First_ch   = const_cast<const char*>(reinterpret_cast<const volatile char*>(_First_ptr));
; 4777 :     const auto _Byte_count = _Object_count * sizeof(*_First_ptr);
; 4778 :     return _STD _Copy_memmove_tail(_First_ch, _STD move(_Dest), _Byte_count, _Object_count);

  00003	8b 45 0c	 mov	 eax, DWORD PTR __Object_count$[ebp]
  00006	50		 push	 eax
  00007	c1 e0 02	 shl	 eax, 2
  0000a	50		 push	 eax
  0000b	ff 75 10	 push	 DWORD PTR __Dest$[ebp]
  0000e	ff 75 08	 push	 DWORD PTR __First$[ebp]
  00011	e8 00 00 00 00	 call	 ??$_Copy_memmove_tail@PAK@std@@YAPAKQBDQAKII@Z ; std::_Copy_memmove_tail<unsigned long *>
  00016	83 c4 10	 add	 esp, 16			; 00000010H

; 4779 : }

  00019	5d		 pop	 ebp
  0001a	c3		 ret	 0
??$_Copy_memmove_n@PAKPAK@std@@YAPAKPAKI0@Z ENDP	; std::_Copy_memmove_n<unsigned long *,unsigned long *>
_TEXT	ENDS
; Function compile flags: /Ogtp
; File C:\Program Files\Microsoft Visual Studio\2022\Professional\VC\Tools\MSVC\14.44.35207\include\xtree
; File C:\Program Files\Microsoft Visual Studio\2022\Professional\VC\Tools\MSVC\14.44.35207\include\utility
; File C:\Program Files\Microsoft Visual Studio\2022\Professional\VC\Tools\MSVC\14.44.35207\include\xmemory
; File C:\Program Files\Microsoft Visual Studio\2022\Professional\VC\Tools\MSVC\14.44.35207\include\xtree
;	COMDAT ??$_Erase_tree@V?$allocator@U?$_Tree_node@U?$pair@$$CBKPAVCRainbowRace@@@std@@PAX@std@@@std@@@?$_Tree_val@U?$_Tree_simple_types@U?$pair@$$CBKPAVCRainbowRace@@@std@@@std@@@std@@QAEXAAV?$allocator@U?$_Tree_node@U?$pair@$$CBKPAVCRainbowRace@@@std@@PAX@std@@@1@PAU?$_Tree_node@U?$pair@$$CBKPAVCRainbowRace@@@std@@PAX@1@@Z
_TEXT	SEGMENT
__Al$ = 8						; size = 4
__Rootnode$ = 12					; size = 4
??$_Erase_tree@V?$allocator@U?$_Tree_node@U?$pair@$$CBKPAVCRainbowRace@@@std@@PAX@std@@@std@@@?$_Tree_val@U?$_Tree_simple_types@U?$pair@$$CBKPAVCRainbowRace@@@std@@@std@@@std@@QAEXAAV?$allocator@U?$_Tree_node@U?$pair@$$CBKPAVCRainbowRace@@@std@@PAX@std@@@1@PAU?$_Tree_node@U?$pair@$$CBKPAVCRainbowRace@@@std@@PAX@1@@Z PROC ; std::_Tree_val<std::_Tree_simple_types<std::pair<unsigned long const ,CRainbowRace *> > >::_Erase_tree<std::allocator<std::_Tree_node<std::pair<unsigned long const ,CRainbowRace *>,void *> > >, COMDAT
; _this$ = ecx

; 767  :     void _Erase_tree(_Alnode& _Al, _Nodeptr _Rootnode) noexcept {

  00000	55		 push	 ebp
  00001	8b ec		 mov	 ebp, esp
  00003	53		 push	 ebx
  00004	56		 push	 esi

; 768  :         while (!_Rootnode->_Isnil) { // free subtrees, then node

  00005	8b 75 0c	 mov	 esi, DWORD PTR __Rootnode$[ebp]
  00008	8b d9		 mov	 ebx, ecx
  0000a	80 7e 0d 00	 cmp	 BYTE PTR [esi+13], 0
  0000e	75 25		 jne	 SHORT $LN34@Erase_tree
  00010	57		 push	 edi
  00011	8b 7d 08	 mov	 edi, DWORD PTR __Al$[ebp]
$LL2@Erase_tree:

; 769  :             _Erase_tree(_Al, _Rootnode->_Right);

  00014	ff 76 08	 push	 DWORD PTR [esi+8]
  00017	8b cb		 mov	 ecx, ebx
  00019	57		 push	 edi
  0001a	e8 00 00 00 00	 call	 ??$_Erase_tree@V?$allocator@U?$_Tree_node@U?$pair@$$CBKPAVCRainbowRace@@@std@@PAX@std@@@std@@@?$_Tree_val@U?$_Tree_simple_types@U?$pair@$$CBKPAVCRainbowRace@@@std@@@std@@@std@@QAEXAAV?$allocator@U?$_Tree_node@U?$pair@$$CBKPAVCRainbowRace@@@std@@PAX@std@@@1@PAU?$_Tree_node@U?$pair@$$CBKPAVCRainbowRace@@@std@@PAX@1@@Z ; std::_Tree_val<std::_Tree_simple_types<std::pair<unsigned long const ,CRainbowRace *> > >::_Erase_tree<std::allocator<std::_Tree_node<std::pair<unsigned long const ,CRainbowRace *>,void *> > >
; File C:\Program Files\Microsoft Visual Studio\2022\Professional\VC\Tools\MSVC\14.44.35207\include\utility

; 773  :     _Ty _Old_val = static_cast<_Ty&&>(_Val);

  0001f	8b c6		 mov	 eax, esi

; 774  :     _Val         = static_cast<_Other&&>(_New_val);

  00021	8b 36		 mov	 esi, DWORD PTR [esi]
; File C:\Program Files\Microsoft Visual Studio\2022\Professional\VC\Tools\MSVC\14.44.35207\include\xmemory

; 289  :         ::operator delete(_Ptr, _Bytes);

  00023	6a 18		 push	 24			; 00000018H
  00025	50		 push	 eax
  00026	e8 00 00 00 00	 call	 ??3@YAXPAXI@Z		; operator delete
  0002b	83 c4 08	 add	 esp, 8
; File C:\Program Files\Microsoft Visual Studio\2022\Professional\VC\Tools\MSVC\14.44.35207\include\xtree

; 768  :         while (!_Rootnode->_Isnil) { // free subtrees, then node

  0002e	80 7e 0d 00	 cmp	 BYTE PTR [esi+13], 0
  00032	74 e0		 je	 SHORT $LL2@Erase_tree
  00034	5f		 pop	 edi
$LN34@Erase_tree:
  00035	5e		 pop	 esi

; 770  :             _Alnode::value_type::_Freenode(_Al, _STD exchange(_Rootnode, _Rootnode->_Left));
; 771  :         }
; 772  :     }

  00036	5b		 pop	 ebx
  00037	5d		 pop	 ebp
  00038	c2 08 00	 ret	 8
??$_Erase_tree@V?$allocator@U?$_Tree_node@U?$pair@$$CBKPAVCRainbowRace@@@std@@PAX@std@@@std@@@?$_Tree_val@U?$_Tree_simple_types@U?$pair@$$CBKPAVCRainbowRace@@@std@@@std@@@std@@QAEXAAV?$allocator@U?$_Tree_node@U?$pair@$$CBKPAVCRainbowRace@@@std@@PAX@std@@@1@PAU?$_Tree_node@U?$pair@$$CBKPAVCRainbowRace@@@std@@PAX@1@@Z ENDP ; std::_Tree_val<std::_Tree_simple_types<std::pair<unsigned long const ,CRainbowRace *> > >::_Erase_tree<std::allocator<std::_Tree_node<std::pair<unsigned long const ,CRainbowRace *>,void *> > >
_TEXT	ENDS
; Function compile flags: /Ogtp
; File C:\Program Files\Microsoft Visual Studio\2022\Professional\VC\Tools\MSVC\14.44.35207\include\vector
; File C:\Program Files\Microsoft Visual Studio\2022\Professional\VC\Tools\MSVC\14.44.35207\include\xmemory
; File C:\Program Files\Microsoft Visual Studio\2022\Professional\VC\Tools\MSVC\14.44.35207\include\vector
; File C:\Program Files\Microsoft Visual Studio\2022\Professional\VC\Tools\MSVC\14.44.35207\include\xmemory
; File C:\Program Files\Microsoft Visual Studio\2022\Professional\VC\Tools\MSVC\14.44.35207\include\vector
; File C:\Program Files\Microsoft Visual Studio\2022\Professional\VC\Tools\MSVC\14.44.35207\include\xmemory
; File C:\Program Files\Microsoft Visual Studio\2022\Professional\VC\Tools\MSVC\14.44.35207\include\vector
; File C:\Program Files\Microsoft Visual Studio\2022\Professional\VC\Tools\MSVC\14.44.35207\include\xmemory
; File C:\Program Files\Microsoft Visual Studio\2022\Professional\VC\Tools\MSVC\14.44.35207\include\vector
; File C:\Program Files\Microsoft Visual Studio\2022\Professional\VC\Tools\MSVC\14.44.35207\include\xmemory
; File C:\Program Files\Microsoft Visual Studio\2022\Professional\VC\Tools\MSVC\14.44.35207\include\vector
; File C:\Program Files\Microsoft Visual Studio\2022\Professional\VC\Tools\MSVC\14.44.35207\include\xmemory
; File C:\Program Files\Microsoft Visual Studio\2022\Professional\VC\Tools\MSVC\14.44.35207\include\vector
;	COMDAT ??$_Resize@PAVCMiniGameBase@@@?$vector@PAVCMiniGameBase@@V?$allocator@PAVCMiniGameBase@@@std@@@std@@AAEXIABQAVCMiniGameBase@@@Z
_TEXT	SEGMENT
tv575 = -4						; size = 4
__Newsize$ = 8						; size = 4
$T2 = 8							; size = 4
__Val$ = 12						; size = 4
??$_Resize@PAVCMiniGameBase@@@?$vector@PAVCMiniGameBase@@V?$allocator@PAVCMiniGameBase@@@std@@@std@@AAEXIABQAVCMiniGameBase@@@Z PROC ; std::vector<CMiniGameBase *,std::allocator<CMiniGameBase *> >::_Resize<CMiniGameBase *>, COMDAT
; _this$ = ecx

; 1589 :     _CONSTEXPR20 void _Resize(const size_type _Newsize, const _Ty2& _Val) {

  00000	55		 push	 ebp
  00001	8b ec		 mov	 ebp, esp
  00003	51		 push	 ecx
  00004	53		 push	 ebx
  00005	56		 push	 esi

; 1590 :         // trim or append elements, provide strong guarantee
; 1591 :         auto& _Al           = _Getal();
; 1592 :         auto& _My_data      = _Mypair._Myval2;
; 1593 :         pointer& _Myfirst   = _My_data._Myfirst;
; 1594 :         pointer& _Mylast    = _My_data._Mylast;
; 1595 :         const auto _Oldsize = static_cast<size_type>(_Mylast - _Myfirst);
; 1596 :         if (_Newsize < _Oldsize) { // trim

  00006	8b 75 08	 mov	 esi, DWORD PTR __Newsize$[ebp]
  00009	57		 push	 edi
  0000a	8b f9		 mov	 edi, ecx
  0000c	8b 57 04	 mov	 edx, DWORD PTR [edi+4]
  0000f	8b da		 mov	 ebx, edx
  00011	8b 07		 mov	 eax, DWORD PTR [edi]
  00013	2b d8		 sub	 ebx, eax
  00015	c1 fb 02	 sar	 ebx, 2
  00018	3b f3		 cmp	 esi, ebx
  0001a	73 0f		 jae	 SHORT $LN2@Resize

; 1597 :             const pointer _Newlast = _Myfirst + _Newsize;

  0001c	8d 04 b0	 lea	 eax, DWORD PTR [eax+esi*4]

; 1625 :     }

  0001f	89 47 04	 mov	 DWORD PTR [edi+4], eax
  00022	5f		 pop	 edi
  00023	5e		 pop	 esi
  00024	5b		 pop	 ebx
  00025	8b e5		 mov	 esp, ebp
  00027	5d		 pop	 ebp
  00028	c2 08 00	 ret	 8
$LN2@Resize:

; 1598 :             _Orphan_range(_Newlast, _Mylast);
; 1599 :             _Destroy_range(_Newlast, _Mylast, _Al);
; 1600 :             _ASAN_VECTOR_MODIFY(static_cast<difference_type>(_Newsize - _Oldsize));
; 1601 :             _Mylast = _Newlast;
; 1602 :             return;
; 1603 :         }
; 1604 : 
; 1605 :         if (_Newsize > _Oldsize) { // append

  0002b	0f 86 0e 01 00
	00		 jbe	 $LN3@Resize

; 1606 :             const auto _Oldcapacity = static_cast<size_type>(_My_data._Myend - _Myfirst);

  00031	8b 4f 08	 mov	 ecx, DWORD PTR [edi+8]
  00034	2b c8		 sub	 ecx, eax
  00036	c1 f9 02	 sar	 ecx, 2

; 1607 :             if (_Newsize > _Oldcapacity) { // reallocate

  00039	3b f1		 cmp	 esi, ecx
  0003b	0f 86 eb 00 00
	00		 jbe	 $LN4@Resize

; 1553 :         if (_Newsize > max_size()) {

  00041	81 fe ff ff ff
	3f		 cmp	 esi, 1073741823		; 3fffffffH
  00047	0f 87 fb 00 00
	00		 ja	 $LN97@Resize

; 2011 :         if (_Oldcapacity > _Max - _Oldcapacity / 2) {

  0004d	8b d1		 mov	 edx, ecx
  0004f	b8 ff ff ff 3f	 mov	 eax, 1073741823		; 3fffffffH
  00054	d1 ea		 shr	 edx, 1
  00056	2b c2		 sub	 eax, edx
  00058	3b c8		 cmp	 ecx, eax
  0005a	76 19		 jbe	 SHORT $LN11@Resize

; 2012 :             return _Max; // geometric growth would overflow

  0005c	b8 fc ff ff ff	 mov	 eax, -4			; fffffffcH
  00061	c7 45 fc fc ff
	ff ff		 mov	 DWORD PTR tv575[ebp], -4 ; fffffffcH
; File C:\Program Files\Microsoft Visual Studio\2022\Professional\VC\Tools\MSVC\14.44.35207\include\xmemory

; 253  :             return _Allocate_manually_vector_aligned<_Traits>(_Bytes);

  00068	50		 push	 eax
  00069	e8 00 00 00 00	 call	 ??$_Allocate_manually_vector_aligned@U_Default_allocate_traits@std@@@std@@YAPAXI@Z ; std::_Allocate_manually_vector_aligned<std::_Default_allocate_traits>
  0006e	8b c8		 mov	 ecx, eax
  00070	89 4d 08	 mov	 DWORD PTR $T2[ebp], ecx
  00073	eb 46		 jmp	 SHORT $LN95@Resize
$LN11@Resize:
; File C:\Program Files\Microsoft Visual Studio\2022\Professional\VC\Tools\MSVC\14.44.35207\include\vector

; 2015 :         const size_type _Geometric = _Oldcapacity + _Oldcapacity / 2;

  00075	8d 04 0a	 lea	 eax, DWORD PTR [edx+ecx]

; 2016 : 
; 2017 :         if (_Geometric < _Newsize) {

  00078	3b c6		 cmp	 eax, esi
  0007a	73 13		 jae	 SHORT $LN12@Resize

; 2018 :             return _Newsize; // geometric growth would be insufficient

  0007c	8b c6		 mov	 eax, esi
$LN22@Resize:
; File C:\Program Files\Microsoft Visual Studio\2022\Professional\VC\Tools\MSVC\14.44.35207\include\xmemory

; 122  :     return _Count * _Ty_size;

  0007e	c1 e0 02	 shl	 eax, 2
  00081	89 45 fc	 mov	 DWORD PTR tv575[ebp], eax

; 227  :     if (_Bytes == 0) {

  00084	85 c0		 test	 eax, eax
  00086	75 14		 jne	 SHORT $LN26@Resize

; 228  :         return nullptr;

  00088	33 c9		 xor	 ecx, ecx
  0008a	89 4d 08	 mov	 DWORD PTR $T2[ebp], ecx
  0008d	eb 2f		 jmp	 SHORT $LN25@Resize
$LN12@Resize:

; 117  :         if (_Count > _Max_possible) {

  0008f	3d ff ff ff 3f	 cmp	 eax, 1073741823		; 3fffffffH
  00094	0f 87 b3 00 00
	00		 ja	 $LN98@Resize
  0009a	eb e2		 jmp	 SHORT $LN22@Resize
$LN26@Resize:

; 251  :         if (_Bytes >= _Big_allocation_threshold) {

  0009c	3d 00 10 00 00	 cmp	 eax, 4096		; 00001000H
  000a1	72 0d		 jb	 SHORT $LN27@Resize

; 253  :             return _Allocate_manually_vector_aligned<_Traits>(_Bytes);

  000a3	50		 push	 eax
  000a4	e8 00 00 00 00	 call	 ??$_Allocate_manually_vector_aligned@U_Default_allocate_traits@std@@@std@@YAPAXI@Z ; std::_Allocate_manually_vector_aligned<std::_Default_allocate_traits>
  000a9	8b c8		 mov	 ecx, eax
  000ab	89 4d 08	 mov	 DWORD PTR $T2[ebp], ecx
  000ae	eb 0b		 jmp	 SHORT $LN95@Resize
$LN27@Resize:

; 136  :         return ::operator new(_Bytes);

  000b0	50		 push	 eax
  000b1	e8 00 00 00 00	 call	 ??2@YAPAXI@Z		; operator new

; 256  :         return _Traits::_Allocate(_Bytes);

  000b6	8b c8		 mov	 ecx, eax
  000b8	89 45 08	 mov	 DWORD PTR $T2[ebp], eax
$LN95@Resize:
; File C:\Program Files\Microsoft Visual Studio\2022\Professional\VC\Tools\MSVC\14.44.35207\include\vector

; 1572 :             _Appended_last = _Uninitialized_fill_n(_Appended_first, _Newsize - _Oldsize, _Val, _Al);

  000bb	83 c4 04	 add	 esp, 4
$LN25@Resize:
  000be	57		 push	 edi
  000bf	ff 75 0c	 push	 DWORD PTR __Val$[ebp]
  000c2	8b c6		 mov	 eax, esi
  000c4	2b c3		 sub	 eax, ebx
  000c6	50		 push	 eax
  000c7	8d 04 99	 lea	 eax, DWORD PTR [ecx+ebx*4]
  000ca	50		 push	 eax
  000cb	e8 00 00 00 00	 call	 ??$_Uninitialized_fill_n@V?$allocator@PAVCMiniGameBase@@@std@@@std@@YAPAPAVCMiniGameBase@@PAPAV1@IABQAV1@AAV?$allocator@PAVCMiniGameBase@@@0@@Z ; std::_Uninitialized_fill_n<std::allocator<CMiniGameBase *> >
; File C:\Program Files\Microsoft Visual Studio\2022\Professional\VC\Tools\MSVC\14.44.35207\include\xmemory

; 1992 :             _STD _Copy_memmove(_UFirst, _ULast, _STD _Unfancy(_Dest));

  000d0	8b 5d 08	 mov	 ebx, DWORD PTR $T2[ebp]
  000d3	53		 push	 ebx
  000d4	ff 77 04	 push	 DWORD PTR [edi+4]
  000d7	ff 37		 push	 DWORD PTR [edi]
  000d9	e8 00 00 00 00	 call	 ??$_Copy_memmove@PAPAVCMiniGameBase@@PAPAV1@@std@@YAPAPAVCMiniGameBase@@PAPAV1@00@Z ; std::_Copy_memmove<CMiniGameBase * *,CMiniGameBase * *>
; File C:\Program Files\Microsoft Visual Studio\2022\Professional\VC\Tools\MSVC\14.44.35207\include\vector

; 2069 :         if (_Myfirst) { // destroy and deallocate old array

  000de	8b 07		 mov	 eax, DWORD PTR [edi]
; File C:\Program Files\Microsoft Visual Studio\2022\Professional\VC\Tools\MSVC\14.44.35207\include\xmemory

; 1992 :             _STD _Copy_memmove(_UFirst, _ULast, _STD _Unfancy(_Dest));

  000e0	83 c4 1c	 add	 esp, 28			; 0000001cH
; File C:\Program Files\Microsoft Visual Studio\2022\Professional\VC\Tools\MSVC\14.44.35207\include\vector

; 2069 :         if (_Myfirst) { // destroy and deallocate old array

  000e3	85 c0		 test	 eax, eax
  000e5	74 2c		 je	 SHORT $LN53@Resize

; 2070 :             _STD _Destroy_range(_Myfirst, _Mylast, _Al);
; 2071 :             _ASAN_VECTOR_REMOVE;
; 2072 :             _Al.deallocate(_Myfirst, static_cast<size_type>(_Myend - _Myfirst));

  000e7	8b 4f 08	 mov	 ecx, DWORD PTR [edi+8]
  000ea	2b c8		 sub	 ecx, eax
; File C:\Program Files\Microsoft Visual Studio\2022\Professional\VC\Tools\MSVC\14.44.35207\include\xmemory

; 985  :         _STD _Deallocate<_New_alignof<_Ty>>(_Ptr, sizeof(_Ty) * _Count);

  000ec	83 e1 fc	 and	 ecx, -4			; fffffffcH

; 284  :         if (_Bytes >= _Big_allocation_threshold) {

  000ef	81 f9 00 10 00
	00		 cmp	 ecx, 4096		; 00001000H
  000f5	72 12		 jb	 SHORT $LN58@Resize

; 205  :     const uintptr_t _Ptr_container   = _Ptr_user[-1];

  000f7	8b 50 fc	 mov	 edx, DWORD PTR [eax-4]
  000fa	83 c1 23	 add	 ecx, 35			; 00000023H

; 206  : 
; 207  :     // If the following asserts, it likely means that we are performing
; 208  :     // an aligned delete on memory coming from an unaligned allocation.
; 209  :     _STL_ASSERT(_Ptr_user[-2] == _Big_allocation_sentinel, "invalid argument");
; 210  : 
; 211  :     // Extra paranoia on aligned allocation/deallocation; ensure _Ptr_container is
; 212  :     // in range [_Min_back_shift, _Non_user_size]
; 213  : #ifdef _DEBUG
; 214  :     constexpr uintptr_t _Min_back_shift = 2 * sizeof(void*);
; 215  : #else // ^^^ defined(_DEBUG) / !defined(_DEBUG) vvv
; 216  :     constexpr uintptr_t _Min_back_shift = sizeof(void*);
; 217  : #endif // ^^^ !defined(_DEBUG) ^^^
; 218  :     const uintptr_t _Back_shift = reinterpret_cast<uintptr_t>(_Ptr) - _Ptr_container;

  000fd	2b c2		 sub	 eax, edx

; 219  :     _STL_VERIFY(_Back_shift >= _Min_back_shift && _Back_shift <= _Non_user_size, "invalid argument");

  000ff	83 c0 fc	 add	 eax, -4			; fffffffcH
  00102	83 f8 1f	 cmp	 eax, 31			; 0000001fH
  00105	77 4b		 ja	 SHORT $LN57@Resize

; 220  :     _Ptr = reinterpret_cast<void*>(_Ptr_container);

  00107	8b c2		 mov	 eax, edx
$LN58@Resize:

; 289  :         ::operator delete(_Ptr, _Bytes);

  00109	51		 push	 ecx
  0010a	50		 push	 eax
  0010b	e8 00 00 00 00	 call	 ??3@YAXPAXI@Z		; operator delete
  00110	83 c4 08	 add	 esp, 8
$LN53@Resize:
; File C:\Program Files\Microsoft Visual Studio\2022\Professional\VC\Tools\MSVC\14.44.35207\include\vector

; 2076 :         _Mylast  = _Newvec + _Newsize;

  00113	8d 04 b3	 lea	 eax, DWORD PTR [ebx+esi*4]
  00116	89 1f		 mov	 DWORD PTR [edi], ebx
  00118	89 47 04	 mov	 DWORD PTR [edi+4], eax

; 2077 :         _Myend   = _Newvec + _Newcapacity;

  0011b	8b 45 fc	 mov	 eax, DWORD PTR tv575[ebp]
  0011e	03 c3		 add	 eax, ebx
  00120	89 47 08	 mov	 DWORD PTR [edi+8], eax
  00123	5f		 pop	 edi

; 1625 :     }

  00124	5e		 pop	 esi
  00125	5b		 pop	 ebx
  00126	8b e5		 mov	 esp, ebp
  00128	5d		 pop	 ebp
  00129	c2 08 00	 ret	 8
$LN4@Resize:

; 1608 :                 _Resize_reallocate(_Newsize, _Val);
; 1609 :                 return;
; 1610 :             }
; 1611 : 
; 1612 :             _ASAN_VECTOR_EXTEND_GUARD(_Newsize);
; 1613 :             const pointer _Oldlast = _Mylast;
; 1614 :             if constexpr (is_same_v<_Ty2, _Ty>) {
; 1615 :                 _Mylast = _Uninitialized_fill_n(_Oldlast, _Newsize - _Oldsize, _Val, _Al);

  0012c	57		 push	 edi
  0012d	ff 75 0c	 push	 DWORD PTR __Val$[ebp]
  00130	2b f3		 sub	 esi, ebx
  00132	56		 push	 esi
  00133	52		 push	 edx
  00134	e8 00 00 00 00	 call	 ??$_Uninitialized_fill_n@V?$allocator@PAVCMiniGameBase@@@std@@@std@@YAPAPAVCMiniGameBase@@PAPAV1@IABQAV1@AAV?$allocator@PAVCMiniGameBase@@@0@@Z ; std::_Uninitialized_fill_n<std::allocator<CMiniGameBase *> >
  00139	83 c4 10	 add	 esp, 16			; 00000010H

; 1625 :     }

  0013c	89 47 04	 mov	 DWORD PTR [edi+4], eax
$LN3@Resize:
  0013f	5f		 pop	 edi
  00140	5e		 pop	 esi
  00141	5b		 pop	 ebx
  00142	8b e5		 mov	 esp, ebp
  00144	5d		 pop	 ebp
  00145	c2 08 00	 ret	 8
$LN97@Resize:

; 1554 :             _Xlength();

  00148	e8 00 00 00 00	 call	 ?_Xlength@?$vector@PAVCMiniGameBase@@V?$allocator@PAVCMiniGameBase@@@std@@@std@@CAXXZ ; std::vector<CMiniGameBase *,std::allocator<CMiniGameBase *> >::_Xlength
$LN98@Resize:
; File C:\Program Files\Microsoft Visual Studio\2022\Professional\VC\Tools\MSVC\14.44.35207\include\xmemory

; 118  :             _Throw_bad_array_new_length(); // multiply overflow

  0014d	e8 00 00 00 00	 call	 ?_Throw_bad_array_new_length@std@@YAXXZ ; std::_Throw_bad_array_new_length
$LN57@Resize:

; 219  :     _STL_VERIFY(_Back_shift >= _Min_back_shift && _Back_shift <= _Non_user_size, "invalid argument");

  00152	6a 00		 push	 0
  00154	6a 00		 push	 0
  00156	6a 00		 push	 0
  00158	6a 00		 push	 0
  0015a	6a 00		 push	 0
  0015c	e8 00 00 00 00	 call	 __invoke_watson
$LN93@Resize:
  00161	cc		 int	 3
??$_Resize@PAVCMiniGameBase@@@?$vector@PAVCMiniGameBase@@V?$allocator@PAVCMiniGameBase@@@std@@@std@@AAEXIABQAVCMiniGameBase@@@Z ENDP ; std::vector<CMiniGameBase *,std::allocator<CMiniGameBase *> >::_Resize<CMiniGameBase *>
_TEXT	ENDS
; Function compile flags: /Ogtp
; File C:\Program Files\Microsoft Visual Studio\2022\Professional\VC\Tools\MSVC\14.44.35207\include\vector
; File C:\Program Files\Microsoft Visual Studio\2022\Professional\VC\Tools\MSVC\14.44.35207\include\xutility
; File C:\Program Files\Microsoft Visual Studio\2022\Professional\VC\Tools\MSVC\14.44.35207\include\vector
; File C:\Program Files\Microsoft Visual Studio\2022\Professional\VC\Tools\MSVC\14.44.35207\include\xutility
; File C:\Program Files\Microsoft Visual Studio\2022\Professional\VC\Tools\MSVC\14.44.35207\include\vector
; File C:\Program Files\Microsoft Visual Studio\2022\Professional\VC\Tools\MSVC\14.44.35207\include\xutility
; File C:\Program Files\Microsoft Visual Studio\2022\Professional\VC\Tools\MSVC\14.44.35207\include\vector
; File C:\Program Files\Microsoft Visual Studio\2022\Professional\VC\Tools\MSVC\14.44.35207\include\xutility
; File C:\Program Files\Microsoft Visual Studio\2022\Professional\VC\Tools\MSVC\14.44.35207\include\vector
; File C:\Program Files\Microsoft Visual Studio\2022\Professional\VC\Tools\MSVC\14.44.35207\include\xutility
; File C:\Program Files\Microsoft Visual Studio\2022\Professional\VC\Tools\MSVC\14.44.35207\include\vector
; File C:\Program Files\Microsoft Visual Studio\2022\Professional\VC\Tools\MSVC\14.44.35207\include\xmemory
; File C:\Program Files\Microsoft Visual Studio\2022\Professional\VC\Tools\MSVC\14.44.35207\include\vector
; File C:\Program Files\Microsoft Visual Studio\2022\Professional\VC\Tools\MSVC\14.44.35207\include\xmemory
; File C:\Program Files\Microsoft Visual Studio\2022\Professional\VC\Tools\MSVC\14.44.35207\include\vector
; File C:\Program Files\Microsoft Visual Studio\2022\Professional\VC\Tools\MSVC\14.44.35207\include\xmemory
; File C:\Program Files\Microsoft Visual Studio\2022\Professional\VC\Tools\MSVC\14.44.35207\include\vector
; File C:\Program Files\Microsoft Visual Studio\2022\Professional\VC\Tools\MSVC\14.44.35207\include\xmemory
; File C:\Program Files\Microsoft Visual Studio\2022\Professional\VC\Tools\MSVC\14.44.35207\include\vector
; File C:\Program Files\Microsoft Visual Studio\2022\Professional\VC\Tools\MSVC\14.44.35207\include\xmemory
; File C:\Program Files\Microsoft Visual Studio\2022\Professional\VC\Tools\MSVC\14.44.35207\include\vector
; File C:\Program Files\Microsoft Visual Studio\2022\Professional\VC\Tools\MSVC\14.44.35207\include\xutility
; File C:\Program Files\Microsoft Visual Studio\2022\Professional\VC\Tools\MSVC\14.44.35207\include\vector
; File C:\Program Files\Microsoft Visual Studio\2022\Professional\VC\Tools\MSVC\14.44.35207\include\xmemory
; File C:\Program Files\Microsoft Visual Studio\2022\Professional\VC\Tools\MSVC\14.44.35207\include\vector
;	COMDAT ??$assign@V?$_Vector_iterator@V?$_Vector_val@U?$_Simple_types@K@std@@@std@@@std@@$0A@@?$vector@KV?$allocator@K@std@@@std@@QAEXV?$_Vector_iterator@V?$_Vector_val@U?$_Simple_types@K@std@@@std@@@1@0@Z
_TEXT	SEGMENT
tv582 = -12						; size = 4
__First$1$ = -8						; size = 4
__Oldsize$1$ = -4					; size = 4
$T1 = -4						; size = 4
__First$ = 8						; size = 4
__Last$ = 12						; size = 4
??$assign@V?$_Vector_iterator@V?$_Vector_val@U?$_Simple_types@K@std@@@std@@@std@@$0A@@?$vector@KV?$allocator@K@std@@@std@@QAEXV?$_Vector_iterator@V?$_Vector_val@U?$_Simple_types@K@std@@@std@@@1@0@Z PROC ; std::vector<unsigned long,std::allocator<unsigned long> >::assign<std::_Vector_iterator<std::_Vector_val<std::_Simple_types<unsigned long> > >,0>, COMDAT
; _this$ = ecx

; 1484 :     _CONSTEXPR20 void assign(_Iter _First, _Iter _Last) {

  00000	55		 push	 ebp
  00001	8b ec		 mov	 ebp, esp
  00003	83 ec 0c	 sub	 esp, 12			; 0000000cH
; File C:\Program Files\Microsoft Visual Studio\2022\Professional\VC\Tools\MSVC\14.44.35207\include\xutility

; 1662 :         return _Last - _First; // assume the iterator will do debug checking

  00006	8b 45 08	 mov	 eax, DWORD PTR __First$[ebp]
; File C:\Program Files\Microsoft Visual Studio\2022\Professional\VC\Tools\MSVC\14.44.35207\include\vector

; 1484 :     _CONSTEXPR20 void assign(_Iter _First, _Iter _Last) {

  00009	53		 push	 ebx
  0000a	8b d9		 mov	 ebx, ecx
; File C:\Program Files\Microsoft Visual Studio\2022\Professional\VC\Tools\MSVC\14.44.35207\include\xutility

; 1662 :         return _Last - _First; // assume the iterator will do debug checking

  0000c	89 45 f8	 mov	 DWORD PTR __First$1$[ebp], eax
; File C:\Program Files\Microsoft Visual Studio\2022\Professional\VC\Tools\MSVC\14.44.35207\include\vector

; 1484 :     _CONSTEXPR20 void assign(_Iter _First, _Iter _Last) {

  0000f	56		 push	 esi
  00010	57		 push	 edi
; File C:\Program Files\Microsoft Visual Studio\2022\Professional\VC\Tools\MSVC\14.44.35207\include\xutility

; 1662 :         return _Last - _First; // assume the iterator will do debug checking

  00011	8b 7d 0c	 mov	 edi, DWORD PTR __Last$[ebp]
; File C:\Program Files\Microsoft Visual Studio\2022\Professional\VC\Tools\MSVC\14.44.35207\include\vector

; 1432 :         const auto _Oldcapacity = static_cast<size_type>(_Myend - _Myfirst);

  00014	8b 0b		 mov	 ecx, DWORD PTR [ebx]
; File C:\Program Files\Microsoft Visual Studio\2022\Professional\VC\Tools\MSVC\14.44.35207\include\xutility

; 1662 :         return _Last - _First; // assume the iterator will do debug checking

  00016	2b f8		 sub	 edi, eax
; File C:\Program Files\Microsoft Visual Studio\2022\Professional\VC\Tools\MSVC\14.44.35207\include\vector

; 1432 :         const auto _Oldcapacity = static_cast<size_type>(_Myend - _Myfirst);

  00018	8b 53 08	 mov	 edx, DWORD PTR [ebx+8]
  0001b	2b d1		 sub	 edx, ecx
; File C:\Program Files\Microsoft Visual Studio\2022\Professional\VC\Tools\MSVC\14.44.35207\include\xutility

; 1662 :         return _Last - _First; // assume the iterator will do debug checking

  0001d	c1 ff 02	 sar	 edi, 2
; File C:\Program Files\Microsoft Visual Studio\2022\Professional\VC\Tools\MSVC\14.44.35207\include\vector

; 1432 :         const auto _Oldcapacity = static_cast<size_type>(_Myend - _Myfirst);

  00020	c1 fa 02	 sar	 edx, 2
  00023	89 4d f4	 mov	 DWORD PTR tv582[ebp], ecx

; 1433 :         if (_Newsize > _Oldcapacity) {

  00026	3b fa		 cmp	 edi, edx
  00028	0f 86 a5 00 00
	00		 jbe	 $LN9@assign

; 1703 :         if (_Newsize > max_size()) {

  0002e	81 ff ff ff ff
	3f		 cmp	 edi, 1073741823		; 3fffffffH
  00034	0f 87 f2 00 00
	00		 ja	 $LN91@assign

; 2011 :         if (_Oldcapacity > _Max - _Oldcapacity / 2) {

  0003a	8b f2		 mov	 esi, edx
  0003c	b8 ff ff ff 3f	 mov	 eax, 1073741823		; 3fffffffH
  00041	d1 ee		 shr	 esi, 1
  00043	2b c6		 sub	 eax, esi
  00045	3b d0		 cmp	 edx, eax
  00047	76 07		 jbe	 SHORT $LN19@assign

; 2012 :             return _Max; // geometric growth would overflow

  00049	be ff ff ff 3f	 mov	 esi, 1073741823		; 3fffffffH
  0004e	eb 07		 jmp	 SHORT $LN86@assign
$LN19@assign:

; 2013 :         }
; 2014 : 
; 2015 :         const size_type _Geometric = _Oldcapacity + _Oldcapacity / 2;

  00050	03 f2		 add	 esi, edx

; 2016 : 
; 2017 :         if (_Geometric < _Newsize) {

  00052	3b f7		 cmp	 esi, edi
  00054	0f 42 f7	 cmovb	 esi, edi
$LN86@assign:

; 1709 :         if (_Myfirst) { // destroy and deallocate old array

  00057	89 75 fc	 mov	 DWORD PTR $T1[ebp], esi
  0005a	85 c9		 test	 ecx, ecx
  0005c	74 1d		 je	 SHORT $LN16@assign

; 1710 :             _Destroy_range(_Myfirst, _Mylast, _Al);
; 1711 :             _ASAN_VECTOR_REMOVE;
; 1712 :             _Al.deallocate(_Myfirst, static_cast<size_type>(_Myend - _Myfirst));

  0005e	52		 push	 edx
  0005f	51		 push	 ecx
  00060	8b cb		 mov	 ecx, ebx
  00062	e8 00 00 00 00	 call	 ?deallocate@?$allocator@K@std@@QAEXQAKI@Z ; std::allocator<unsigned long>::deallocate

; 1713 : 
; 1714 :             _Myfirst = nullptr;

  00067	c7 03 00 00 00
	00		 mov	 DWORD PTR [ebx], 0

; 1715 :             _Mylast  = nullptr;

  0006d	c7 43 04 00 00
	00 00		 mov	 DWORD PTR [ebx+4], 0

; 1716 :             _Myend   = nullptr;

  00074	c7 43 08 00 00
	00 00		 mov	 DWORD PTR [ebx+8], 0
$LN16@assign:
; File C:\Program Files\Microsoft Visual Studio\2022\Professional\VC\Tools\MSVC\14.44.35207\include\xmemory

; 117  :         if (_Count > _Max_possible) {

  0007b	81 fe ff ff ff
	3f		 cmp	 esi, 1073741823		; 3fffffffH
  00081	0f 87 aa 00 00
	00		 ja	 $LN92@assign

; 119  :         }
; 120  :     }
; 121  : 
; 122  :     return _Count * _Ty_size;

  00087	c1 e6 02	 shl	 esi, 2

; 227  :     if (_Bytes == 0) {

  0008a	85 f6		 test	 esi, esi
  0008c	74 1a		 je	 SHORT $LN35@assign
$LN36@assign:

; 228  :         return nullptr;
; 229  :     }
; 230  : 
; 231  : #if _HAS_CXX20 // TRANSITION, GH-1532
; 232  :     if (_STD is_constant_evaluated()) {
; 233  :         return _Traits::_Allocate(_Bytes);
; 234  :     }
; 235  : #endif // _HAS_CXX20
; 236  : 
; 237  : #ifdef __cpp_aligned_new
; 238  :     if constexpr (_Align > __STDCPP_DEFAULT_NEW_ALIGNMENT__) {
; 239  :         size_t _Passed_align = _Align;
; 240  : #if defined(_M_IX86) || defined(_M_X64)
; 241  :         if (_Bytes >= _Big_allocation_threshold) {
; 242  :             // boost the alignment of big allocations to help autovectorization
; 243  :             _Passed_align = (_STD max)(_Align, _Big_allocation_alignment);
; 244  :         }
; 245  : #endif // defined(_M_IX86) || defined(_M_X64)
; 246  :         return _Traits::_Allocate_aligned(_Bytes, _Passed_align);
; 247  :     } else
; 248  : #endif // defined(__cpp_aligned_new)
; 249  :     {
; 250  : #if defined(_M_IX86) || defined(_M_X64)
; 251  :         if (_Bytes >= _Big_allocation_threshold) {

  0008e	56		 push	 esi
  0008f	81 fe 00 10 00
	00		 cmp	 esi, 4096		; 00001000H
  00095	72 07		 jb	 SHORT $LN37@assign

; 252  :             // boost the alignment of big allocations to help autovectorization
; 253  :             return _Allocate_manually_vector_aligned<_Traits>(_Bytes);

  00097	e8 00 00 00 00	 call	 ??$_Allocate_manually_vector_aligned@U_Default_allocate_traits@std@@@std@@YAPAXI@Z ; std::_Allocate_manually_vector_aligned<std::_Default_allocate_traits>
  0009c	eb 05		 jmp	 SHORT $LN87@assign
$LN37@assign:

; 136  :         return ::operator new(_Bytes);

  0009e	e8 00 00 00 00	 call	 ??2@YAPAXI@Z		; operator new
$LN87@assign:
; File C:\Program Files\Microsoft Visual Studio\2022\Professional\VC\Tools\MSVC\14.44.35207\include\vector

; 2035 :         _Myfirst              = _Newvec;

  000a3	8b f0		 mov	 esi, eax
  000a5	83 c4 04	 add	 esp, 4
$LN35@assign:

; 2037 :         _Myend                = _Newvec + _Newcapacity;

  000a8	8b 45 fc	 mov	 eax, DWORD PTR $T1[ebp]
  000ab	89 33		 mov	 DWORD PTR [ebx], esi
; File C:\Program Files\Microsoft Visual Studio\2022\Professional\VC\Tools\MSVC\14.44.35207\include\xmemory

; 1930 :             _STD _Copy_memmove_n(_UFirst, _Count, _STD _Unfancy(_Dest));

  000ad	56		 push	 esi
; File C:\Program Files\Microsoft Visual Studio\2022\Professional\VC\Tools\MSVC\14.44.35207\include\vector

; 2036 :         _Mylast               = _Newvec;

  000ae	89 73 04	 mov	 DWORD PTR [ebx+4], esi

; 2037 :         _Myend                = _Newvec + _Newcapacity;

  000b1	8d 04 86	 lea	 eax, DWORD PTR [esi+eax*4]
  000b4	89 43 08	 mov	 DWORD PTR [ebx+8], eax
; File C:\Program Files\Microsoft Visual Studio\2022\Professional\VC\Tools\MSVC\14.44.35207\include\xmemory

; 1930 :             _STD _Copy_memmove_n(_UFirst, _Count, _STD _Unfancy(_Dest));

  000b7	8b 45 f8	 mov	 eax, DWORD PTR __First$1$[ebp]
  000ba	57		 push	 edi
  000bb	50		 push	 eax
  000bc	e8 00 00 00 00	 call	 ??$_Copy_memmove_n@PAKPAK@std@@YAPAKPAKI0@Z ; std::_Copy_memmove_n<unsigned long *,unsigned long *>
; File C:\Program Files\Microsoft Visual Studio\2022\Professional\VC\Tools\MSVC\14.44.35207\include\vector

; 1501 :     }

  000c1	83 c4 0c	 add	 esp, 12			; 0000000cH
; File C:\Program Files\Microsoft Visual Studio\2022\Professional\VC\Tools\MSVC\14.44.35207\include\xmemory

; 1931 :             _Dest += _Count;

  000c4	8d 04 be	 lea	 eax, DWORD PTR [esi+edi*4]
; File C:\Program Files\Microsoft Visual Studio\2022\Professional\VC\Tools\MSVC\14.44.35207\include\vector

; 1501 :     }

  000c7	89 43 04	 mov	 DWORD PTR [ebx+4], eax
  000ca	5f		 pop	 edi
  000cb	5e		 pop	 esi
  000cc	5b		 pop	 ebx
  000cd	8b e5		 mov	 esp, ebp
  000cf	5d		 pop	 ebp
  000d0	c2 08 00	 ret	 8
$LN9@assign:

; 1445 :         const auto _Oldsize = static_cast<size_type>(_Mylast - _Myfirst);

  000d3	8b 73 04	 mov	 esi, DWORD PTR [ebx+4]
  000d6	2b f1		 sub	 esi, ecx
  000d8	c1 fe 02	 sar	 esi, 2
  000db	89 75 fc	 mov	 DWORD PTR __Oldsize$1$[ebp], esi

; 1446 :         if (_Newsize > _Oldsize) {

  000de	51		 push	 ecx
  000df	3b fe		 cmp	 edi, esi
  000e1	76 2d		 jbe	 SHORT $LN10@assign

; 1447 :             bool _Copied = false;
; 1448 :             if constexpr (_Iter_copy_cat<_Iter, pointer>::_Bitcopy_assignable) {
; 1449 : #if _HAS_CXX20
; 1450 :                 if (!_STD is_constant_evaluated())
; 1451 : #endif // _HAS_CXX20
; 1452 :                 {
; 1453 :                     _Copy_memmove_n(_First, static_cast<size_t>(_Oldsize), _Myfirst);

  000e3	56		 push	 esi
  000e4	50		 push	 eax
  000e5	e8 00 00 00 00	 call	 ??$_Copy_memmove_n@PAKPAK@std@@YAPAKPAKI0@Z ; std::_Copy_memmove_n<unsigned long *,unsigned long *>

; 1454 :                     _First += _Oldsize;

  000ea	8b 45 f8	 mov	 eax, DWORD PTR __First$1$[ebp]

; 1455 :                     _Copied = true;
; 1456 :                 }
; 1457 :             }
; 1458 : 
; 1459 :             if (!_Copied) {
; 1460 :                 for (auto _Mid = _Myfirst; _Mid != _Mylast; ++_Mid, (void) ++_First) {
; 1461 :                     *_Mid = *_First;
; 1462 :                 }
; 1463 :             }
; 1464 : 
; 1465 :             if constexpr (_Nothrow_construct) {
; 1466 :                 _ASAN_VECTOR_MODIFY(static_cast<difference_type>(_Newsize - _Oldsize));
; 1467 :                 _Mylast = _STD _Uninitialized_copy_n(_STD move(_First), _Newsize - _Oldsize, _Mylast, _Al);

  000ed	2b 7d fc	 sub	 edi, DWORD PTR __Oldsize$1$[ebp]
  000f0	8d 04 b0	 lea	 eax, DWORD PTR [eax+esi*4]
  000f3	8b 73 04	 mov	 esi, DWORD PTR [ebx+4]
; File C:\Program Files\Microsoft Visual Studio\2022\Professional\VC\Tools\MSVC\14.44.35207\include\xmemory

; 1930 :             _STD _Copy_memmove_n(_UFirst, _Count, _STD _Unfancy(_Dest));

  000f6	56		 push	 esi
  000f7	57		 push	 edi
  000f8	50		 push	 eax
  000f9	e8 00 00 00 00	 call	 ??$_Copy_memmove_n@PAKPAK@std@@YAPAKPAKI0@Z ; std::_Copy_memmove_n<unsigned long *,unsigned long *>
  000fe	83 c4 18	 add	 esp, 24			; 00000018H

; 1931 :             _Dest += _Count;

  00101	8d 04 be	 lea	 eax, DWORD PTR [esi+edi*4]
; File C:\Program Files\Microsoft Visual Studio\2022\Professional\VC\Tools\MSVC\14.44.35207\include\vector

; 1501 :     }

  00104	89 43 04	 mov	 DWORD PTR [ebx+4], eax
  00107	5f		 pop	 edi
  00108	5e		 pop	 esi
  00109	5b		 pop	 ebx
  0010a	8b e5		 mov	 esp, ebp
  0010c	5d		 pop	 ebp
  0010d	c2 08 00	 ret	 8
$LN10@assign:
; File C:\Program Files\Microsoft Visual Studio\2022\Professional\VC\Tools\MSVC\14.44.35207\include\xutility

; 4808 :             return _Copy_memmove_n(_First, static_cast<size_t>(_Count), _Dest);

  00110	57		 push	 edi
  00111	50		 push	 eax
  00112	e8 00 00 00 00	 call	 ??$_Copy_memmove_n@PAKPAK@std@@YAPAKPAKI0@Z ; std::_Copy_memmove_n<unsigned long *,unsigned long *>
; File C:\Program Files\Microsoft Visual Studio\2022\Professional\VC\Tools\MSVC\14.44.35207\include\vector

; 1474 :             const pointer _Newlast = _Myfirst + _Newsize;

  00117	8b 45 f4	 mov	 eax, DWORD PTR tv582[ebp]

; 1501 :     }

  0011a	83 c4 0c	 add	 esp, 12			; 0000000cH

; 1474 :             const pointer _Newlast = _Myfirst + _Newsize;

  0011d	8d 04 b8	 lea	 eax, DWORD PTR [eax+edi*4]
  00120	5f		 pop	 edi

; 1501 :     }

  00121	5e		 pop	 esi
  00122	89 43 04	 mov	 DWORD PTR [ebx+4], eax
  00125	5b		 pop	 ebx
  00126	8b e5		 mov	 esp, ebp
  00128	5d		 pop	 ebp
  00129	c2 08 00	 ret	 8
$LN91@assign:

; 1704 :             _Xlength();

  0012c	e8 00 00 00 00	 call	 ?_Xlength@?$vector@KV?$allocator@K@std@@@std@@CAXXZ ; std::vector<unsigned long,std::allocator<unsigned long> >::_Xlength
$LN92@assign:
; File C:\Program Files\Microsoft Visual Studio\2022\Professional\VC\Tools\MSVC\14.44.35207\include\xmemory

; 118  :             _Throw_bad_array_new_length(); // multiply overflow

  00131	e8 00 00 00 00	 call	 ?_Throw_bad_array_new_length@std@@YAXXZ ; std::_Throw_bad_array_new_length
$LN85@assign:
  00136	cc		 int	 3
??$assign@V?$_Vector_iterator@V?$_Vector_val@U?$_Simple_types@K@std@@@std@@@std@@$0A@@?$vector@KV?$allocator@K@std@@@std@@QAEXV?$_Vector_iterator@V?$_Vector_val@U?$_Simple_types@K@std@@@std@@@1@0@Z ENDP ; std::vector<unsigned long,std::allocator<unsigned long> >::assign<std::_Vector_iterator<std::_Vector_val<std::_Simple_types<unsigned long> > >,0>
_TEXT	ENDS
; Function compile flags: /Ogtp
;	COMDAT ??__FsRainbowRace@?1??GetInstance@CRainbowRaceMng@@SAPAV1@XZ@YAXXZ
text$yd	SEGMENT
??__FsRainbowRace@?1??GetInstance@CRainbowRaceMng@@SAPAV1@XZ@YAXXZ PROC ; `CRainbowRaceMng::GetInstance'::`2'::`dynamic atexit destructor for 'sRainbowRace'', COMDAT
  00000	b9 00 00 00 00	 mov	 ecx, OFFSET ?sRainbowRace@?1??GetInstance@CRainbowRaceMng@@SAPAV2@XZ@4V2@A
  00005	e9 00 00 00 00	 jmp	 ??1CRainbowRaceMng@@QAE@XZ ; CRainbowRaceMng::~CRainbowRaceMng
??__FsRainbowRace@?1??GetInstance@CRainbowRaceMng@@SAPAV1@XZ@YAXXZ ENDP ; `CRainbowRaceMng::GetInstance'::`2'::`dynamic atexit destructor for 'sRainbowRace''
text$yd	ENDS
; Function compile flags: /Ogtp
; File C:\Program Files\Microsoft Visual Studio\2022\Professional\VC\Tools\MSVC\14.44.35207\include\xtree
;	COMDAT ??E?$_Tree_unchecked_const_iterator@V?$_Tree_val@U?$_Tree_simple_types@U?$pair@$$CBKPAVCRainbowRace@@@std@@@std@@@std@@U_Iterator_base0@2@@std@@QAEAAV01@XZ
_TEXT	SEGMENT
??E?$_Tree_unchecked_const_iterator@V?$_Tree_val@U?$_Tree_simple_types@U?$pair@$$CBKPAVCRainbowRace@@@std@@@std@@@std@@U_Iterator_base0@2@@std@@QAEAAV01@XZ PROC ; std::_Tree_unchecked_const_iterator<std::_Tree_val<std::_Tree_simple_types<std::pair<unsigned long const ,CRainbowRace *> > >,std::_Iterator_base0>::operator++, COMDAT
; _this$ = ecx

; 49   :     _Tree_unchecked_const_iterator& operator++() noexcept {

  00000	56		 push	 esi
  00001	8b f1		 mov	 esi, ecx
  00003	57		 push	 edi

; 50   :         if (_Ptr->_Right->_Isnil) { // climb looking for right subtree

  00004	8b 16		 mov	 edx, DWORD PTR [esi]
  00006	8b 7a 08	 mov	 edi, DWORD PTR [edx+8]
  00009	80 7f 0d 00	 cmp	 BYTE PTR [edi+13], 0
  0000d	74 22		 je	 SHORT $LN4@operator

; 51   :             _Nodeptr _Pnode;
; 52   :             while (!(_Pnode = _Ptr->_Parent)->_Isnil && _Ptr == _Pnode->_Right) {

  0000f	8b 42 04	 mov	 eax, DWORD PTR [edx+4]
  00012	80 78 0d 00	 cmp	 BYTE PTR [eax+13], 0
  00016	75 12		 jne	 SHORT $LN21@operator
$LL2@operator:
  00018	3b 50 08	 cmp	 edx, DWORD PTR [eax+8]
  0001b	75 0d		 jne	 SHORT $LN21@operator

; 53   :                 _Ptr = _Pnode; // ==> parent while right subtree

  0001d	89 06		 mov	 DWORD PTR [esi], eax
  0001f	8b d0		 mov	 edx, eax
  00021	8b 40 04	 mov	 eax, DWORD PTR [eax+4]
  00024	80 78 0d 00	 cmp	 BYTE PTR [eax+13], 0
  00028	74 ee		 je	 SHORT $LL2@operator
$LN21@operator:

; 54   :             }
; 55   : 
; 56   :             _Ptr = _Pnode; // ==> parent (head if end())
; 57   :         } else {
; 58   :             _Ptr = _Mytree::_Min(_Ptr->_Right); // ==> smallest of right subtree
; 59   :         }
; 60   : 
; 61   :         return *this;

  0002a	89 06		 mov	 DWORD PTR [esi], eax

; 62   :     }

  0002c	8b c6		 mov	 eax, esi
  0002e	5f		 pop	 edi
  0002f	5e		 pop	 esi
  00030	c3		 ret	 0
$LN4@operator:

; 476  :         while (!_Pnode->_Left->_Isnil) {

  00031	8b 0f		 mov	 ecx, DWORD PTR [edi]
  00033	80 79 0d 00	 cmp	 BYTE PTR [ecx+13], 0
  00037	75 13		 jne	 SHORT $LN10@operator
  00039	0f 1f 80 00 00
	00 00		 npad	 7
$LL9@operator:
  00040	8b 01		 mov	 eax, DWORD PTR [ecx]

; 477  :             _Pnode = _Pnode->_Left;

  00042	8b f9		 mov	 edi, ecx
  00044	8b c8		 mov	 ecx, eax
  00046	80 78 0d 00	 cmp	 BYTE PTR [eax+13], 0
  0004a	74 f4		 je	 SHORT $LL9@operator
$LN10@operator:

; 54   :             }
; 55   : 
; 56   :             _Ptr = _Pnode; // ==> parent (head if end())
; 57   :         } else {
; 58   :             _Ptr = _Mytree::_Min(_Ptr->_Right); // ==> smallest of right subtree
; 59   :         }
; 60   : 
; 61   :         return *this;

  0004c	89 3e		 mov	 DWORD PTR [esi], edi

; 62   :     }

  0004e	8b c6		 mov	 eax, esi
  00050	5f		 pop	 edi
  00051	5e		 pop	 esi
  00052	c3		 ret	 0
??E?$_Tree_unchecked_const_iterator@V?$_Tree_val@U?$_Tree_simple_types@U?$pair@$$CBKPAVCRainbowRace@@@std@@@std@@@std@@U_Iterator_base0@2@@std@@QAEAAV01@XZ ENDP ; std::_Tree_unchecked_const_iterator<std::_Tree_val<std::_Tree_simple_types<std::pair<unsigned long const ,CRainbowRace *> > >,std::_Iterator_base0>::operator++
_TEXT	ENDS
; Function compile flags: /Ogtp
; File C:\IAGOS\server\v18\Source\Source\_Network\Misc\Include\ar.h
;	COMDAT ??$?6K@CAr@@QAEAAV0@ABK@Z
_TEXT	SEGMENT
_t$ = 8							; size = 4
??$?6K@CAr@@QAEAAV0@ABK@Z PROC				; CAr::operator<<<unsigned long>, COMDAT
; _this$ = ecx

; 255  : {

  00000	55		 push	 ebp
  00001	8b ec		 mov	 ebp, esp
  00003	56		 push	 esi

; 256  : 	CheckBuf(sizeof(T));

  00004	6a 04		 push	 4
  00006	8b f1		 mov	 esi, ecx
  00008	e8 00 00 00 00	 call	 ?CheckBuf@CAr@@QAEXI@Z	; CAr::CheckBuf

; 257  : 	*(UNALIGNED T*)m_lpBufCur = t;

  0000d	8b 56 08	 mov	 edx, DWORD PTR [esi+8]
  00010	8b 45 08	 mov	 eax, DWORD PTR _t$[ebp]
  00013	8b 00		 mov	 eax, DWORD PTR [eax]
  00015	89 02		 mov	 DWORD PTR [edx], eax

; 258  : 	m_lpBufCur += sizeof(T);
; 259  : 	return *this;

  00017	8b c6		 mov	 eax, esi
  00019	83 46 08 04	 add	 DWORD PTR [esi+8], 4
  0001d	5e		 pop	 esi

; 260  : }

  0001e	5d		 pop	 ebp
  0001f	c2 04 00	 ret	 4
??$?6K@CAr@@QAEAAV0@ABK@Z ENDP				; CAr::operator<<<unsigned long>
_TEXT	ENDS
; Function compile flags: /Ogtp
; File C:\Program Files\Microsoft Visual Studio\2022\Professional\VC\Tools\MSVC\14.44.35207\include\vector
;	COMDAT ?_Xlength@?$vector@PAVCMiniGameBase@@V?$allocator@PAVCMiniGameBase@@@std@@@std@@CAXXZ
_TEXT	SEGMENT
?_Xlength@?$vector@PAVCMiniGameBase@@V?$allocator@PAVCMiniGameBase@@@std@@@std@@CAXXZ PROC ; std::vector<CMiniGameBase *,std::allocator<CMiniGameBase *> >::_Xlength, COMDAT

; 2184 :         _Xlength_error("vector too long");

  00000	68 00 00 00 00	 push	 OFFSET ??_C@_0BA@FOIKENOD@vector?5too?5long@
  00005	e8 00 00 00 00	 call	 ?_Xlength_error@std@@YAXPBD@Z ; std::_Xlength_error
$LN3@Xlength:
  0000a	cc		 int	 3
?_Xlength@?$vector@PAVCMiniGameBase@@V?$allocator@PAVCMiniGameBase@@@std@@@std@@CAXXZ ENDP ; std::vector<CMiniGameBase *,std::allocator<CMiniGameBase *> >::_Xlength
_TEXT	ENDS
; Function compile flags: /Ogtp
; File C:\Program Files\Microsoft Visual Studio\2022\Professional\VC\Tools\MSVC\14.44.35207\include\vector
; File C:\Program Files\Microsoft Visual Studio\2022\Professional\VC\Tools\MSVC\14.44.35207\include\xmemory
; File C:\Program Files\Microsoft Visual Studio\2022\Professional\VC\Tools\MSVC\14.44.35207\include\vector
; File C:\Program Files\Microsoft Visual Studio\2022\Professional\VC\Tools\MSVC\14.44.35207\include\xmemory
; File C:\Program Files\Microsoft Visual Studio\2022\Professional\VC\Tools\MSVC\14.44.35207\include\vector
; File C:\Program Files\Microsoft Visual Studio\2022\Professional\VC\Tools\MSVC\14.44.35207\include\xmemory
; File C:\Program Files\Microsoft Visual Studio\2022\Professional\VC\Tools\MSVC\14.44.35207\include\vector
;	COMDAT ??1?$vector@PAVCMiniGameBase@@V?$allocator@PAVCMiniGameBase@@@std@@@std@@QAE@XZ
_TEXT	SEGMENT
??1?$vector@PAVCMiniGameBase@@V?$allocator@PAVCMiniGameBase@@@std@@@std@@QAE@XZ PROC ; std::vector<CMiniGameBase *,std::allocator<CMiniGameBase *> >::~vector<CMiniGameBase *,std::allocator<CMiniGameBase *> >, COMDAT
; _this$ = ecx

; 829  :     _CONSTEXPR20 ~vector() noexcept {

  00000	56		 push	 esi
  00001	8b f1		 mov	 esi, ecx

; 2090 :         if (_Myfirst) { // destroy and deallocate old array

  00003	8b 06		 mov	 eax, DWORD PTR [esi]
  00005	85 c0		 test	 eax, eax
  00007	74 40		 je	 SHORT $LN5@vector

; 2091 :             _STD _Destroy_range(_Myfirst, _Mylast, _Al);
; 2092 :             _ASAN_VECTOR_REMOVE;
; 2093 :             _Al.deallocate(_Myfirst, static_cast<size_type>(_Myend - _Myfirst));

  00009	8b 4e 08	 mov	 ecx, DWORD PTR [esi+8]
  0000c	2b c8		 sub	 ecx, eax
; File C:\Program Files\Microsoft Visual Studio\2022\Professional\VC\Tools\MSVC\14.44.35207\include\xmemory

; 985  :         _STD _Deallocate<_New_alignof<_Ty>>(_Ptr, sizeof(_Ty) * _Count);

  0000e	83 e1 fc	 and	 ecx, -4			; fffffffcH

; 284  :         if (_Bytes >= _Big_allocation_threshold) {

  00011	81 f9 00 10 00
	00		 cmp	 ecx, 4096		; 00001000H
  00017	72 12		 jb	 SHORT $LN18@vector

; 205  :     const uintptr_t _Ptr_container   = _Ptr_user[-1];

  00019	8b 50 fc	 mov	 edx, DWORD PTR [eax-4]
  0001c	83 c1 23	 add	 ecx, 35			; 00000023H

; 206  : 
; 207  :     // If the following asserts, it likely means that we are performing
; 208  :     // an aligned delete on memory coming from an unaligned allocation.
; 209  :     _STL_ASSERT(_Ptr_user[-2] == _Big_allocation_sentinel, "invalid argument");
; 210  : 
; 211  :     // Extra paranoia on aligned allocation/deallocation; ensure _Ptr_container is
; 212  :     // in range [_Min_back_shift, _Non_user_size]
; 213  : #ifdef _DEBUG
; 214  :     constexpr uintptr_t _Min_back_shift = 2 * sizeof(void*);
; 215  : #else // ^^^ defined(_DEBUG) / !defined(_DEBUG) vvv
; 216  :     constexpr uintptr_t _Min_back_shift = sizeof(void*);
; 217  : #endif // ^^^ !defined(_DEBUG) ^^^
; 218  :     const uintptr_t _Back_shift = reinterpret_cast<uintptr_t>(_Ptr) - _Ptr_container;

  0001f	2b c2		 sub	 eax, edx

; 219  :     _STL_VERIFY(_Back_shift >= _Min_back_shift && _Back_shift <= _Non_user_size, "invalid argument");

  00021	83 c0 fc	 add	 eax, -4			; fffffffcH
  00024	83 f8 1f	 cmp	 eax, 31			; 0000001fH
  00027	77 22		 ja	 SHORT $LN17@vector

; 220  :     _Ptr = reinterpret_cast<void*>(_Ptr_container);

  00029	8b c2		 mov	 eax, edx
$LN18@vector:

; 289  :         ::operator delete(_Ptr, _Bytes);

  0002b	51		 push	 ecx
  0002c	50		 push	 eax
  0002d	e8 00 00 00 00	 call	 ??3@YAXPAXI@Z		; operator delete
; File C:\Program Files\Microsoft Visual Studio\2022\Professional\VC\Tools\MSVC\14.44.35207\include\vector

; 2095 :             _Myfirst = nullptr;

  00032	c7 06 00 00 00
	00		 mov	 DWORD PTR [esi], 0
; File C:\Program Files\Microsoft Visual Studio\2022\Professional\VC\Tools\MSVC\14.44.35207\include\xmemory

; 289  :         ::operator delete(_Ptr, _Bytes);

  00038	83 c4 08	 add	 esp, 8
; File C:\Program Files\Microsoft Visual Studio\2022\Professional\VC\Tools\MSVC\14.44.35207\include\vector

; 2096 :             _Mylast  = nullptr;

  0003b	c7 46 04 00 00
	00 00		 mov	 DWORD PTR [esi+4], 0

; 2097 :             _Myend   = nullptr;

  00042	c7 46 08 00 00
	00 00		 mov	 DWORD PTR [esi+8], 0
$LN5@vector:
  00049	5e		 pop	 esi

; 835  :     }

  0004a	c3		 ret	 0
$LN17@vector:
; File C:\Program Files\Microsoft Visual Studio\2022\Professional\VC\Tools\MSVC\14.44.35207\include\xmemory

; 219  :     _STL_VERIFY(_Back_shift >= _Min_back_shift && _Back_shift <= _Non_user_size, "invalid argument");

  0004b	6a 00		 push	 0
  0004d	6a 00		 push	 0
  0004f	6a 00		 push	 0
  00051	6a 00		 push	 0
  00053	6a 00		 push	 0
  00055	e8 00 00 00 00	 call	 __invoke_watson
$LN26@vector:
  0005a	cc		 int	 3
??1?$vector@PAVCMiniGameBase@@V?$allocator@PAVCMiniGameBase@@@std@@@std@@QAE@XZ ENDP ; std::vector<CMiniGameBase *,std::allocator<CMiniGameBase *> >::~vector<CMiniGameBase *,std::allocator<CMiniGameBase *> >
_TEXT	ENDS
; Function compile flags: /Ogtp
;	COMDAT ??1?$map@KPAVCRainbowRace@@U?$less@K@std@@V?$allocator@U?$pair@$$CBKPAVCRainbowRace@@@std@@@3@@std@@QAE@XZ
_TEXT	SEGMENT
??1?$map@KPAVCRainbowRace@@U?$less@K@std@@V?$allocator@U?$pair@$$CBKPAVCRainbowRace@@@std@@@3@@std@@QAE@XZ PROC ; std::map<unsigned long,CRainbowRace *,std::less<unsigned long>,std::allocator<std::pair<unsigned long const ,CRainbowRace *> > >::~map<unsigned long,CRainbowRace *,std::less<unsigned long>,std::allocator<std::pair<unsigned long const ,CRainbowRace *> > >, COMDAT
; _this$ = ecx
  00000	e9 00 00 00 00	 jmp	 ??1?$_Tree@V?$_Tmap_traits@KPAVCRainbowRace@@U?$less@K@std@@V?$allocator@U?$pair@$$CBKPAVCRainbowRace@@@std@@@3@$0A@@std@@@std@@QAE@XZ ; std::_Tree<std::_Tmap_traits<unsigned long,CRainbowRace *,std::less<unsigned long>,std::allocator<std::pair<unsigned long const ,CRainbowRace *> >,0> >::~_Tree<std::_Tmap_traits<unsigned long,CRainbowRace *,std::less<unsigned long>,std::allocator<std::pair<unsigned long const ,CRainbowRace *> >,0> >
??1?$map@KPAVCRainbowRace@@U?$less@K@std@@V?$allocator@U?$pair@$$CBKPAVCRainbowRace@@@std@@@3@@std@@QAE@XZ ENDP ; std::map<unsigned long,CRainbowRace *,std::less<unsigned long>,std::allocator<std::pair<unsigned long const ,CRainbowRace *> > >::~map<unsigned long,CRainbowRace *,std::less<unsigned long>,std::allocator<std::pair<unsigned long const ,CRainbowRace *> > >
_TEXT	ENDS
; Function compile flags: /Ogtp
; File C:\Program Files\Microsoft Visual Studio\2022\Professional\VC\Tools\MSVC\14.44.35207\include\xtree
;	COMDAT ?_Insert_node@?$_Tree_val@U?$_Tree_simple_types@U?$pair@$$CBKPAVCRainbowRace@@@std@@@std@@@std@@QAEPAU?$_Tree_node@U?$pair@$$CBKPAVCRainbowRace@@@std@@PAX@2@U?$_Tree_id@PAU?$_Tree_node@U?$pair@$$CBKPAVCRainbowRace@@@std@@PAX@std@@@2@QAU32@@Z
_TEXT	SEGMENT
__Head$1$ = -4						; size = 4
__Loc$ = 8						; size = 8
__Newnode$ = 16						; size = 4
?_Insert_node@?$_Tree_val@U?$_Tree_simple_types@U?$pair@$$CBKPAVCRainbowRace@@@std@@@std@@@std@@QAEPAU?$_Tree_node@U?$pair@$$CBKPAVCRainbowRace@@@std@@PAX@2@U?$_Tree_id@PAU?$_Tree_node@U?$pair@$$CBKPAVCRainbowRace@@@std@@PAX@std@@@2@QAU32@@Z PROC ; std::_Tree_val<std::_Tree_simple_types<std::pair<unsigned long const ,CRainbowRace *> > >::_Insert_node, COMDAT
; _this$ = ecx

; 669  :     _Nodeptr _Insert_node(const _Tree_id<_Nodeptr> _Loc, const _Nodeptr _Newnode) noexcept {

  00000	55		 push	 ebp
  00001	8b ec		 mov	 ebp, esp
  00003	51		 push	 ecx

; 670  :         ++_Mysize;
; 671  :         const auto _Head  = _Myhead;
; 672  :         _Newnode->_Parent = _Loc._Parent;

  00004	8b 55 08	 mov	 edx, DWORD PTR __Loc$[ebp]
  00007	53		 push	 ebx
  00008	8b d9		 mov	 ebx, ecx
  0000a	57		 push	 edi
  0000b	8b 7d 10	 mov	 edi, DWORD PTR __Newnode$[ebp]
  0000e	8b 03		 mov	 eax, DWORD PTR [ebx]
  00010	ff 43 04	 inc	 DWORD PTR [ebx+4]
  00013	89 45 fc	 mov	 DWORD PTR __Head$1$[ebp], eax
  00016	89 57 04	 mov	 DWORD PTR [edi+4], edx

; 673  :         if (_Loc._Parent == _Head) { // first node in tree, just set head values

  00019	3b d0		 cmp	 edx, eax
  0001b	75 16		 jne	 SHORT $LN5@Insert_nod

; 674  :             _Head->_Left     = _Newnode;

  0001d	89 38		 mov	 DWORD PTR [eax], edi

; 675  :             _Head->_Parent   = _Newnode;

  0001f	89 78 04	 mov	 DWORD PTR [eax+4], edi

; 676  :             _Head->_Right    = _Newnode;

  00022	89 78 08	 mov	 DWORD PTR [eax+8], edi

; 735  :         return _Newnode;
; 736  :     }

  00025	8b c7		 mov	 eax, edi
  00027	c6 47 0c 01	 mov	 BYTE PTR [edi+12], 1
  0002b	5f		 pop	 edi
  0002c	5b		 pop	 ebx
  0002d	8b e5		 mov	 esp, ebp
  0002f	5d		 pop	 ebp
  00030	c2 0c 00	 ret	 12			; 0000000cH
$LN5@Insert_nod:

; 677  :             _Newnode->_Color = _Black; // the root is black
; 678  :             return _Newnode;
; 679  :         }
; 680  : 
; 681  :         _STL_INTERNAL_CHECK(_Loc._Child != _Tree_child::_Unused);
; 682  :         if (_Loc._Child == _Tree_child::_Right) { // add to right of _Loc._Parent

  00033	83 7d 0c 00	 cmp	 DWORD PTR __Loc$[ebp+4], 0
  00037	75 0d		 jne	 SHORT $LN6@Insert_nod

; 683  :             _STL_INTERNAL_CHECK(_Loc._Parent->_Right->_Isnil);
; 684  :             _Loc._Parent->_Right = _Newnode;

  00039	89 7a 08	 mov	 DWORD PTR [edx+8], edi

; 685  :             if (_Loc._Parent == _Head->_Right) { // remember rightmost node

  0003c	3b 50 08	 cmp	 edx, DWORD PTR [eax+8]
  0003f	75 0d		 jne	 SHORT $LN9@Insert_nod

; 686  :                 _Head->_Right = _Newnode;

  00041	89 78 08	 mov	 DWORD PTR [eax+8], edi

; 687  :             }
; 688  :         } else { // add to left of _Loc._Parent

  00044	eb 08		 jmp	 SHORT $LN9@Insert_nod
$LN6@Insert_nod:

; 689  :             _STL_INTERNAL_CHECK(_Loc._Parent->_Left->_Isnil);
; 690  :             _Loc._Parent->_Left = _Newnode;

  00046	89 3a		 mov	 DWORD PTR [edx], edi

; 691  :             if (_Loc._Parent == _Head->_Left) { // remember leftmost node

  00048	3b 10		 cmp	 edx, DWORD PTR [eax]
  0004a	75 02		 jne	 SHORT $LN9@Insert_nod

; 692  :                 _Head->_Left = _Newnode;

  0004c	89 38		 mov	 DWORD PTR [eax], edi
$LN9@Insert_nod:

; 693  :             }
; 694  :         }
; 695  : 
; 696  :         for (_Nodeptr _Pnode = _Newnode; _Pnode->_Parent->_Color == _Red;) {

  0004e	8b 4f 04	 mov	 ecx, DWORD PTR [edi+4]
  00051	8b c7		 mov	 eax, edi
  00053	80 79 0c 00	 cmp	 BYTE PTR [ecx+12], 0
  00057	0f 85 7d 01 00
	00		 jne	 $LN3@Insert_nod
  0005d	56		 push	 esi
  0005e	66 90		 npad	 2
$LL4@Insert_nod:

; 697  :             if (_Pnode->_Parent == _Pnode->_Parent->_Parent->_Left) { // fixup red-red in left subtree

  00060	8b 50 04	 mov	 edx, DWORD PTR [eax+4]
  00063	8b 72 04	 mov	 esi, DWORD PTR [edx+4]
  00066	8b 0e		 mov	 ecx, DWORD PTR [esi]
  00068	3b d1		 cmp	 edx, ecx
  0006a	0f 85 aa 00 00
	00		 jne	 $LN10@Insert_nod

; 698  :                 const auto _Parent_sibling = _Pnode->_Parent->_Parent->_Right;

  00070	8b 4e 08	 mov	 ecx, DWORD PTR [esi+8]

; 699  :                 if (_Parent_sibling->_Color == _Red) { // parent's sibling has two red children, blacken both

  00073	80 79 0c 00	 cmp	 BYTE PTR [ecx+12], 0
  00077	0f 84 a3 00 00
	00		 je	 $LN82@Insert_nod

; 700  :                     _Pnode->_Parent->_Color          = _Black;
; 701  :                     _Parent_sibling->_Color          = _Black;
; 702  :                     _Pnode->_Parent->_Parent->_Color = _Red;
; 703  :                     _Pnode                           = _Pnode->_Parent->_Parent;
; 704  :                 } else { // parent's sibling has red and black children
; 705  :                     if (_Pnode == _Pnode->_Parent->_Right) { // rotate right child to left

  0007d	8b 72 08	 mov	 esi, DWORD PTR [edx+8]
  00080	3b c6		 cmp	 eax, esi
  00082	75 37		 jne	 SHORT $LN57@Insert_nod

; 485  :         _Wherenode->_Right = _Pnode->_Left;

  00084	8b 0e		 mov	 ecx, DWORD PTR [esi]

; 706  :                         _Pnode = _Pnode->_Parent;

  00086	8b c2		 mov	 eax, edx

; 485  :         _Wherenode->_Right = _Pnode->_Left;

  00088	89 4a 08	 mov	 DWORD PTR [edx+8], ecx

; 486  : 
; 487  :         if (!_Pnode->_Left->_Isnil) {

  0008b	8b 0e		 mov	 ecx, DWORD PTR [esi]
  0008d	80 79 0d 00	 cmp	 BYTE PTR [ecx+13], 0
  00091	75 03		 jne	 SHORT $LN21@Insert_nod

; 488  :             _Pnode->_Left->_Parent = _Wherenode;

  00093	89 41 04	 mov	 DWORD PTR [ecx+4], eax
$LN21@Insert_nod:

; 489  :         }
; 490  : 
; 491  :         _Pnode->_Parent = _Wherenode->_Parent;

  00096	8b 4a 04	 mov	 ecx, DWORD PTR [edx+4]
  00099	89 4e 04	 mov	 DWORD PTR [esi+4], ecx

; 492  : 
; 493  :         if (_Wherenode == _Myhead->_Parent) {

  0009c	8b 0b		 mov	 ecx, DWORD PTR [ebx]
  0009e	3b 41 04	 cmp	 eax, DWORD PTR [ecx+4]
  000a1	75 05		 jne	 SHORT $LN22@Insert_nod

; 494  :             _Myhead->_Parent = _Pnode;

  000a3	89 71 04	 mov	 DWORD PTR [ecx+4], esi
  000a6	eb 0e		 jmp	 SHORT $LN25@Insert_nod
$LN22@Insert_nod:

; 495  :         } else if (_Wherenode == _Wherenode->_Parent->_Left) {

  000a8	8b 4a 04	 mov	 ecx, DWORD PTR [edx+4]
  000ab	3b 01		 cmp	 eax, DWORD PTR [ecx]
  000ad	75 04		 jne	 SHORT $LN24@Insert_nod

; 496  :             _Wherenode->_Parent->_Left = _Pnode;

  000af	89 31		 mov	 DWORD PTR [ecx], esi

; 497  :         } else {

  000b1	eb 03		 jmp	 SHORT $LN25@Insert_nod
$LN24@Insert_nod:

; 498  :             _Wherenode->_Parent->_Right = _Pnode;

  000b3	89 71 08	 mov	 DWORD PTR [ecx+8], esi
$LN25@Insert_nod:

; 499  :         }
; 500  : 
; 501  :         _Pnode->_Left       = _Wherenode;

  000b6	89 06		 mov	 DWORD PTR [esi], eax

; 502  :         _Wherenode->_Parent = _Pnode;

  000b8	89 70 04	 mov	 DWORD PTR [eax+4], esi
$LN57@Insert_nod:

; 707  :                         _Lrotate(_Pnode);
; 708  :                     }
; 709  : 
; 710  :                     _Pnode->_Parent->_Color          = _Black; // propagate red up

  000bb	8b 48 04	 mov	 ecx, DWORD PTR [eax+4]
  000be	c6 41 0c 01	 mov	 BYTE PTR [ecx+12], 1

; 711  :                     _Pnode->_Parent->_Parent->_Color = _Red;

  000c2	8b 48 04	 mov	 ecx, DWORD PTR [eax+4]
  000c5	8b 49 04	 mov	 ecx, DWORD PTR [ecx+4]
  000c8	c6 41 0c 00	 mov	 BYTE PTR [ecx+12], 0

; 712  :                     _Rrotate(_Pnode->_Parent->_Parent);

  000cc	8b 48 04	 mov	 ecx, DWORD PTR [eax+4]
  000cf	8b 51 04	 mov	 edx, DWORD PTR [ecx+4]

; 506  :         _Nodeptr _Pnode   = _Wherenode->_Left;

  000d2	8b 32		 mov	 esi, DWORD PTR [edx]

; 507  :         _Wherenode->_Left = _Pnode->_Right;

  000d4	8b 4e 08	 mov	 ecx, DWORD PTR [esi+8]
  000d7	89 0a		 mov	 DWORD PTR [edx], ecx

; 508  : 
; 509  :         if (!_Pnode->_Right->_Isnil) {

  000d9	8b 4e 08	 mov	 ecx, DWORD PTR [esi+8]
  000dc	80 79 0d 00	 cmp	 BYTE PTR [ecx+13], 0
  000e0	75 03		 jne	 SHORT $LN29@Insert_nod

; 510  :             _Pnode->_Right->_Parent = _Wherenode;

  000e2	89 51 04	 mov	 DWORD PTR [ecx+4], edx
$LN29@Insert_nod:

; 511  :         }
; 512  : 
; 513  :         _Pnode->_Parent = _Wherenode->_Parent;

  000e5	8b 4a 04	 mov	 ecx, DWORD PTR [edx+4]
  000e8	89 4e 04	 mov	 DWORD PTR [esi+4], ecx

; 514  : 
; 515  :         if (_Wherenode == _Myhead->_Parent) {

  000eb	8b 0b		 mov	 ecx, DWORD PTR [ebx]
  000ed	3b 51 04	 cmp	 edx, DWORD PTR [ecx+4]
  000f0	75 0b		 jne	 SHORT $LN30@Insert_nod

; 516  :             _Myhead->_Parent = _Pnode;

  000f2	89 71 04	 mov	 DWORD PTR [ecx+4], esi

; 521  :         }
; 522  : 
; 523  :         _Pnode->_Right      = _Wherenode;

  000f5	89 56 08	 mov	 DWORD PTR [esi+8], edx

; 713  :                 }
; 714  :             } else { // fixup red-red in right subtree

  000f8	e9 cc 00 00 00	 jmp	 $LN81@Insert_nod
$LN30@Insert_nod:

; 517  :         } else if (_Wherenode == _Wherenode->_Parent->_Right) {

  000fd	8b 4a 04	 mov	 ecx, DWORD PTR [edx+4]
  00100	3b 51 08	 cmp	 edx, DWORD PTR [ecx+8]
  00103	75 0b		 jne	 SHORT $LN32@Insert_nod

; 518  :             _Wherenode->_Parent->_Right = _Pnode;

  00105	89 71 08	 mov	 DWORD PTR [ecx+8], esi

; 521  :         }
; 522  : 
; 523  :         _Pnode->_Right      = _Wherenode;

  00108	89 56 08	 mov	 DWORD PTR [esi+8], edx

; 713  :                 }
; 714  :             } else { // fixup red-red in right subtree

  0010b	e9 b9 00 00 00	 jmp	 $LN81@Insert_nod
$LN32@Insert_nod:

; 520  :             _Wherenode->_Parent->_Left = _Pnode;

  00110	89 31		 mov	 DWORD PTR [ecx], esi

; 521  :         }
; 522  : 
; 523  :         _Pnode->_Right      = _Wherenode;

  00112	89 56 08	 mov	 DWORD PTR [esi+8], edx

; 713  :                 }
; 714  :             } else { // fixup red-red in right subtree

  00115	e9 af 00 00 00	 jmp	 $LN81@Insert_nod
$LN10@Insert_nod:

; 715  :                 const auto _Parent_sibling = _Pnode->_Parent->_Parent->_Left;
; 716  :                 if (_Parent_sibling->_Color == _Red) { // parent's sibling has two red children, blacken both

  0011a	80 79 0c 00	 cmp	 BYTE PTR [ecx+12], 0
  0011e	75 1d		 jne	 SHORT $LN15@Insert_nod
$LN82@Insert_nod:

; 693  :             }
; 694  :         }
; 695  : 
; 696  :         for (_Nodeptr _Pnode = _Newnode; _Pnode->_Parent->_Color == _Red;) {

  00120	c6 42 0c 01	 mov	 BYTE PTR [edx+12], 1
  00124	c6 41 0c 01	 mov	 BYTE PTR [ecx+12], 1
  00128	8b 48 04	 mov	 ecx, DWORD PTR [eax+4]
  0012b	8b 49 04	 mov	 ecx, DWORD PTR [ecx+4]
  0012e	c6 41 0c 00	 mov	 BYTE PTR [ecx+12], 0
  00132	8b 48 04	 mov	 ecx, DWORD PTR [eax+4]
  00135	8b 41 04	 mov	 eax, DWORD PTR [ecx+4]
  00138	e9 8f 00 00 00	 jmp	 $LN2@Insert_nod
$LN15@Insert_nod:

; 717  :                     _Pnode->_Parent->_Color          = _Black;
; 718  :                     _Parent_sibling->_Color          = _Black;
; 719  :                     _Pnode->_Parent->_Parent->_Color = _Red;
; 720  :                     _Pnode                           = _Pnode->_Parent->_Parent;
; 721  :                 } else { // parent's sibling has red and black children
; 722  :                     if (_Pnode == _Pnode->_Parent->_Left) { // rotate left child to right

  0013d	8b 32		 mov	 esi, DWORD PTR [edx]
  0013f	3b c6		 cmp	 eax, esi
  00141	75 3a		 jne	 SHORT $LN42@Insert_nod

; 507  :         _Wherenode->_Left = _Pnode->_Right;

  00143	8b 4e 08	 mov	 ecx, DWORD PTR [esi+8]

; 723  :                         _Pnode = _Pnode->_Parent;

  00146	8b c2		 mov	 eax, edx

; 507  :         _Wherenode->_Left = _Pnode->_Right;

  00148	89 08		 mov	 DWORD PTR [eax], ecx

; 508  : 
; 509  :         if (!_Pnode->_Right->_Isnil) {

  0014a	8b 4e 08	 mov	 ecx, DWORD PTR [esi+8]
  0014d	80 79 0d 00	 cmp	 BYTE PTR [ecx+13], 0
  00151	75 03		 jne	 SHORT $LN37@Insert_nod

; 510  :             _Pnode->_Right->_Parent = _Wherenode;

  00153	89 41 04	 mov	 DWORD PTR [ecx+4], eax
$LN37@Insert_nod:

; 511  :         }
; 512  : 
; 513  :         _Pnode->_Parent = _Wherenode->_Parent;

  00156	8b 4a 04	 mov	 ecx, DWORD PTR [edx+4]
  00159	89 4e 04	 mov	 DWORD PTR [esi+4], ecx

; 514  : 
; 515  :         if (_Wherenode == _Myhead->_Parent) {

  0015c	8b 0b		 mov	 ecx, DWORD PTR [ebx]
  0015e	3b 41 04	 cmp	 eax, DWORD PTR [ecx+4]
  00161	75 05		 jne	 SHORT $LN38@Insert_nod

; 516  :             _Myhead->_Parent = _Pnode;

  00163	89 71 04	 mov	 DWORD PTR [ecx+4], esi
  00166	eb 0f		 jmp	 SHORT $LN41@Insert_nod
$LN38@Insert_nod:

; 517  :         } else if (_Wherenode == _Wherenode->_Parent->_Right) {

  00168	8b 4a 04	 mov	 ecx, DWORD PTR [edx+4]
  0016b	3b 41 08	 cmp	 eax, DWORD PTR [ecx+8]
  0016e	75 05		 jne	 SHORT $LN40@Insert_nod

; 518  :             _Wherenode->_Parent->_Right = _Pnode;

  00170	89 71 08	 mov	 DWORD PTR [ecx+8], esi

; 519  :         } else {

  00173	eb 02		 jmp	 SHORT $LN41@Insert_nod
$LN40@Insert_nod:

; 520  :             _Wherenode->_Parent->_Left = _Pnode;

  00175	89 31		 mov	 DWORD PTR [ecx], esi
$LN41@Insert_nod:

; 521  :         }
; 522  : 
; 523  :         _Pnode->_Right      = _Wherenode;

  00177	89 46 08	 mov	 DWORD PTR [esi+8], eax

; 524  :         _Wherenode->_Parent = _Pnode;

  0017a	89 70 04	 mov	 DWORD PTR [eax+4], esi
$LN42@Insert_nod:

; 724  :                         _Rrotate(_Pnode);
; 725  :                     }
; 726  : 
; 727  :                     _Pnode->_Parent->_Color          = _Black; // propagate red up

  0017d	8b 48 04	 mov	 ecx, DWORD PTR [eax+4]
  00180	c6 41 0c 01	 mov	 BYTE PTR [ecx+12], 1

; 728  :                     _Pnode->_Parent->_Parent->_Color = _Red;

  00184	8b 48 04	 mov	 ecx, DWORD PTR [eax+4]
  00187	8b 49 04	 mov	 ecx, DWORD PTR [ecx+4]
  0018a	c6 41 0c 00	 mov	 BYTE PTR [ecx+12], 0

; 729  :                     _Lrotate(_Pnode->_Parent->_Parent);

  0018e	8b 48 04	 mov	 ecx, DWORD PTR [eax+4]
  00191	8b 51 04	 mov	 edx, DWORD PTR [ecx+4]

; 484  :         _Nodeptr _Pnode    = _Wherenode->_Right;

  00194	8b 72 08	 mov	 esi, DWORD PTR [edx+8]

; 485  :         _Wherenode->_Right = _Pnode->_Left;

  00197	8b 0e		 mov	 ecx, DWORD PTR [esi]
  00199	89 4a 08	 mov	 DWORD PTR [edx+8], ecx

; 486  : 
; 487  :         if (!_Pnode->_Left->_Isnil) {

  0019c	8b 0e		 mov	 ecx, DWORD PTR [esi]
  0019e	80 79 0d 00	 cmp	 BYTE PTR [ecx+13], 0
  001a2	75 03		 jne	 SHORT $LN45@Insert_nod

; 488  :             _Pnode->_Left->_Parent = _Wherenode;

  001a4	89 51 04	 mov	 DWORD PTR [ecx+4], edx
$LN45@Insert_nod:

; 489  :         }
; 490  : 
; 491  :         _Pnode->_Parent = _Wherenode->_Parent;

  001a7	8b 4a 04	 mov	 ecx, DWORD PTR [edx+4]
  001aa	89 4e 04	 mov	 DWORD PTR [esi+4], ecx

; 492  : 
; 493  :         if (_Wherenode == _Myhead->_Parent) {

  001ad	8b 0b		 mov	 ecx, DWORD PTR [ebx]
  001af	3b 51 04	 cmp	 edx, DWORD PTR [ecx+4]
  001b2	75 05		 jne	 SHORT $LN46@Insert_nod

; 494  :             _Myhead->_Parent = _Pnode;

  001b4	89 71 04	 mov	 DWORD PTR [ecx+4], esi
  001b7	eb 0e		 jmp	 SHORT $LN49@Insert_nod
$LN46@Insert_nod:

; 495  :         } else if (_Wherenode == _Wherenode->_Parent->_Left) {

  001b9	8b 4a 04	 mov	 ecx, DWORD PTR [edx+4]
  001bc	3b 11		 cmp	 edx, DWORD PTR [ecx]
  001be	75 04		 jne	 SHORT $LN48@Insert_nod

; 496  :             _Wherenode->_Parent->_Left = _Pnode;

  001c0	89 31		 mov	 DWORD PTR [ecx], esi

; 497  :         } else {

  001c2	eb 03		 jmp	 SHORT $LN49@Insert_nod
$LN48@Insert_nod:

; 498  :             _Wherenode->_Parent->_Right = _Pnode;

  001c4	89 71 08	 mov	 DWORD PTR [ecx+8], esi
$LN49@Insert_nod:

; 499  :         }
; 500  : 
; 501  :         _Pnode->_Left       = _Wherenode;

  001c7	89 16		 mov	 DWORD PTR [esi], edx
$LN81@Insert_nod:

; 693  :             }
; 694  :         }
; 695  : 
; 696  :         for (_Nodeptr _Pnode = _Newnode; _Pnode->_Parent->_Color == _Red;) {

  001c9	89 72 04	 mov	 DWORD PTR [edx+4], esi
$LN2@Insert_nod:
  001cc	8b 48 04	 mov	 ecx, DWORD PTR [eax+4]
  001cf	80 79 0c 00	 cmp	 BYTE PTR [ecx+12], 0
  001d3	0f 84 87 fe ff
	ff		 je	 $LL4@Insert_nod
  001d9	5e		 pop	 esi
$LN3@Insert_nod:

; 730  :                 }
; 731  :             }
; 732  :         }
; 733  : 
; 734  :         _Head->_Parent->_Color = _Black; // root is always black

  001da	8b 45 fc	 mov	 eax, DWORD PTR __Head$1$[ebp]
  001dd	8b 40 04	 mov	 eax, DWORD PTR [eax+4]
  001e0	c6 40 0c 01	 mov	 BYTE PTR [eax+12], 1

; 735  :         return _Newnode;
; 736  :     }

  001e4	8b c7		 mov	 eax, edi
  001e6	5f		 pop	 edi
  001e7	5b		 pop	 ebx
  001e8	8b e5		 mov	 esp, ebp
  001ea	5d		 pop	 ebp
  001eb	c2 0c 00	 ret	 12			; 0000000cH
?_Insert_node@?$_Tree_val@U?$_Tree_simple_types@U?$pair@$$CBKPAVCRainbowRace@@@std@@@std@@@std@@QAEPAU?$_Tree_node@U?$pair@$$CBKPAVCRainbowRace@@@std@@PAX@2@U?$_Tree_id@PAU?$_Tree_node@U?$pair@$$CBKPAVCRainbowRace@@@std@@PAX@std@@@2@QAU32@@Z ENDP ; std::_Tree_val<std::_Tree_simple_types<std::pair<unsigned long const ,CRainbowRace *> > >::_Insert_node
_TEXT	ENDS
; Function compile flags: /Ogtp
; File C:\Program Files\Microsoft Visual Studio\2022\Professional\VC\Tools\MSVC\14.44.35207\include\xtree
; File C:\Program Files\Microsoft Visual Studio\2022\Professional\VC\Tools\MSVC\14.44.35207\include\utility
; File C:\Program Files\Microsoft Visual Studio\2022\Professional\VC\Tools\MSVC\14.44.35207\include\xtree
;	COMDAT ?_Extract@?$_Tree_val@U?$_Tree_simple_types@U?$pair@$$CBKPAVCRainbowRace@@@std@@@std@@@std@@QAEPAU?$_Tree_node@U?$pair@$$CBKPAVCRainbowRace@@@std@@PAX@2@V?$_Tree_unchecked_const_iterator@V?$_Tree_val@U?$_Tree_simple_types@U?$pair@$$CBKPAVCRainbowRace@@@std@@@std@@@std@@U_Iterator_base0@2@@2@@Z
_TEXT	SEGMENT
tv1039 = -16						; size = 4
tv1073 = -12						; size = 4
tv1093 = -12						; size = 4
$T1 = -12						; size = 4
__Erasednode$1$ = -8					; size = 4
_this$1$ = -4						; size = 4
__Where$ = 8						; size = 4
?_Extract@?$_Tree_val@U?$_Tree_simple_types@U?$pair@$$CBKPAVCRainbowRace@@@std@@@std@@@std@@QAEPAU?$_Tree_node@U?$pair@$$CBKPAVCRainbowRace@@@std@@PAX@2@V?$_Tree_unchecked_const_iterator@V?$_Tree_val@U?$_Tree_simple_types@U?$pair@$$CBKPAVCRainbowRace@@@std@@@std@@@std@@U_Iterator_base0@2@@2@@Z PROC ; std::_Tree_val<std::_Tree_simple_types<std::pair<unsigned long const ,CRainbowRace *> > >::_Extract, COMDAT
; _this$ = ecx

; 527  :     _Nodeptr _Extract(_Unchecked_const_iterator _Where) noexcept {

  00000	55		 push	 ebp
  00001	8b ec		 mov	 ebp, esp
  00003	83 ec 10	 sub	 esp, 16			; 00000010H

; 528  :         _Nodeptr _Erasednode = _Where._Ptr; // node to erase

  00006	8b 45 08	 mov	 eax, DWORD PTR __Where$[ebp]
  00009	53		 push	 ebx
  0000a	56		 push	 esi
  0000b	8b d9		 mov	 ebx, ecx
  0000d	89 45 f8	 mov	 DWORD PTR __Erasednode$1$[ebp], eax
  00010	57		 push	 edi

; 529  :         ++_Where; // save successor iterator for return

  00011	8d 4d 08	 lea	 ecx, DWORD PTR __Where$[ebp]
  00014	89 5d fc	 mov	 DWORD PTR _this$1$[ebp], ebx
  00017	e8 00 00 00 00	 call	 ??E?$_Tree_unchecked_const_iterator@V?$_Tree_val@U?$_Tree_simple_types@U?$pair@$$CBKPAVCRainbowRace@@@std@@@std@@@std@@U_Iterator_base0@2@@std@@QAEAAV01@XZ ; std::_Tree_unchecked_const_iterator<std::_Tree_val<std::_Tree_simple_types<std::pair<unsigned long const ,CRainbowRace *> > >,std::_Iterator_base0>::operator++

; 530  : 
; 531  :         _Nodeptr _Fixnode; // the node to recolor as needed
; 532  :         _Nodeptr _Fixnodeparent; // parent of _Fixnode (which may be nil)
; 533  :         _Nodeptr _Pnode = _Erasednode;
; 534  : 
; 535  :         if (_Pnode->_Left->_Isnil) {

  0001c	8b 4d f8	 mov	 ecx, DWORD PTR __Erasednode$1$[ebp]
  0001f	8b 01		 mov	 eax, DWORD PTR [ecx]
  00021	8b 79 08	 mov	 edi, DWORD PTR [ecx+8]
  00024	80 78 0d 00	 cmp	 BYTE PTR [eax+13], 0
  00028	75 18		 jne	 SHORT $LN94@Extract

; 536  :             _Fixnode = _Pnode->_Right; // stitch up right subtree
; 537  :         } else if (_Pnode->_Right->_Isnil) {

  0002a	80 7f 0d 00	 cmp	 BYTE PTR [edi+13], 0
  0002e	74 04		 je	 SHORT $LN7@Extract

; 538  :             _Fixnode = _Pnode->_Left; // stitch up left subtree

  00030	8b f8		 mov	 edi, eax

; 539  :         } else { // two subtrees, must lift successor node to replace erased

  00032	eb 0e		 jmp	 SHORT $LN94@Extract
$LN7@Extract:

; 540  :             _Pnode   = _Where._Ptr; // _Pnode is successor node

  00034	8b 55 08	 mov	 edx, DWORD PTR __Where$[ebp]

; 541  :             _Fixnode = _Pnode->_Right; // _Fixnode is only subtree

  00037	8b 7a 08	 mov	 edi, DWORD PTR [edx+8]
  0003a	3b d1		 cmp	 edx, ecx

; 542  :         }
; 543  : 
; 544  :         if (_Pnode == _Erasednode) { // at most one subtree, relink it

  0003c	0f 85 91 00 00
	00		 jne	 $LN9@Extract
$LN94@Extract:

; 545  :             _Fixnodeparent = _Erasednode->_Parent;
; 546  :             if (!_Fixnode->_Isnil) {

  00042	80 7f 0d 00	 cmp	 BYTE PTR [edi+13], 0
  00046	8b 71 04	 mov	 esi, DWORD PTR [ecx+4]
  00049	75 03		 jne	 SHORT $LN11@Extract

; 547  :                 _Fixnode->_Parent = _Fixnodeparent; // link up

  0004b	89 77 04	 mov	 DWORD PTR [edi+4], esi
$LN11@Extract:

; 548  :             }
; 549  : 
; 550  :             if (_Myhead->_Parent == _Erasednode) {

  0004e	8b 03		 mov	 eax, DWORD PTR [ebx]
  00050	39 48 04	 cmp	 DWORD PTR [eax+4], ecx
  00053	75 05		 jne	 SHORT $LN12@Extract

; 551  :                 _Myhead->_Parent = _Fixnode; // link down from root

  00055	89 78 04	 mov	 DWORD PTR [eax+4], edi
  00058	eb 0b		 jmp	 SHORT $LN15@Extract
$LN12@Extract:

; 552  :             } else if (_Fixnodeparent->_Left == _Erasednode) {

  0005a	39 0e		 cmp	 DWORD PTR [esi], ecx
  0005c	75 04		 jne	 SHORT $LN14@Extract

; 553  :                 _Fixnodeparent->_Left = _Fixnode; // link down to left

  0005e	89 3e		 mov	 DWORD PTR [esi], edi

; 554  :             } else {

  00060	eb 03		 jmp	 SHORT $LN15@Extract
$LN14@Extract:

; 555  :                 _Fixnodeparent->_Right = _Fixnode; // link down to right

  00062	89 7e 08	 mov	 DWORD PTR [esi+8], edi
$LN15@Extract:

; 556  :             }
; 557  : 
; 558  :             if (_Myhead->_Left == _Erasednode) {

  00065	8b 03		 mov	 eax, DWORD PTR [ebx]
  00067	39 08		 cmp	 DWORD PTR [eax], ecx
  00069	75 28		 jne	 SHORT $LN16@Extract

; 559  :                 _Myhead->_Left = _Fixnode->_Isnil ? _Fixnodeparent // smallest is parent of erased node

  0006b	80 7f 0d 00	 cmp	 BYTE PTR [edi+13], 0
  0006f	74 04		 je	 SHORT $LN42@Extract
  00071	8b d6		 mov	 edx, esi
  00073	eb 1c		 jmp	 SHORT $LN43@Extract
$LN42@Extract:

; 476  :         while (!_Pnode->_Left->_Isnil) {

  00075	8b 0f		 mov	 ecx, DWORD PTR [edi]

; 559  :                 _Myhead->_Left = _Fixnode->_Isnil ? _Fixnodeparent // smallest is parent of erased node

  00077	8b d7		 mov	 edx, edi

; 476  :         while (!_Pnode->_Left->_Isnil) {

  00079	80 79 0d 00	 cmp	 BYTE PTR [ecx+13], 0
  0007d	75 0f		 jne	 SHORT $LN49@Extract
  0007f	90		 npad	 1
$LL48@Extract:
  00080	8b 01		 mov	 eax, DWORD PTR [ecx]

; 477  :             _Pnode = _Pnode->_Left;

  00082	8b d1		 mov	 edx, ecx
  00084	8b c8		 mov	 ecx, eax
  00086	80 78 0d 00	 cmp	 BYTE PTR [eax+13], 0
  0008a	74 f4		 je	 SHORT $LL48@Extract
  0008c	8b 03		 mov	 eax, DWORD PTR [ebx]
$LN49@Extract:
  0008e	8b 4d f8	 mov	 ecx, DWORD PTR __Erasednode$1$[ebp]
$LN43@Extract:

; 559  :                 _Myhead->_Left = _Fixnode->_Isnil ? _Fixnodeparent // smallest is parent of erased node

  00091	89 10		 mov	 DWORD PTR [eax], edx
$LN16@Extract:

; 560  :                                                   : _Min(_Fixnode); // smallest in relinked subtree
; 561  :             }
; 562  : 
; 563  :             if (_Myhead->_Right == _Erasednode) {

  00093	8b 13		 mov	 edx, DWORD PTR [ebx]
  00095	39 4a 08	 cmp	 DWORD PTR [edx+8], ecx
  00098	75 34		 jne	 SHORT $LN17@Extract

; 564  :                 _Myhead->_Right = _Fixnode->_Isnil ? _Fixnodeparent // largest is parent of erased node

  0009a	80 7f 0d 00	 cmp	 BYTE PTR [edi+13], 0
  0009e	74 0d		 je	 SHORT $LN44@Extract

; 565  :                                                    : _Max(_Fixnode); // largest in relinked subtree
; 566  :             }
; 567  :         } else { // erased has two subtrees, _Pnode is successor to erased

  000a0	8b 45 f8	 mov	 eax, DWORD PTR __Erasednode$1$[ebp]
  000a3	8b ce		 mov	 ecx, esi
  000a5	89 4a 08	 mov	 DWORD PTR [edx+8], ecx
  000a8	e9 94 00 00 00	 jmp	 $LN58@Extract
$LN44@Extract:

; 468  :         while (!_Pnode->_Right->_Isnil) {

  000ad	8b 47 08	 mov	 eax, DWORD PTR [edi+8]

; 564  :                 _Myhead->_Right = _Fixnode->_Isnil ? _Fixnodeparent // largest is parent of erased node

  000b0	8b cf		 mov	 ecx, edi

; 468  :         while (!_Pnode->_Right->_Isnil) {

  000b2	80 78 0d 00	 cmp	 BYTE PTR [eax+13], 0
  000b6	75 13		 jne	 SHORT $LN54@Extract
  000b8	0f 1f 84 00 00
	00 00 00	 npad	 8
$LL53@Extract:

; 469  :             _Pnode = _Pnode->_Right;

  000c0	8b c8		 mov	 ecx, eax
  000c2	8b 41 08	 mov	 eax, DWORD PTR [ecx+8]
  000c5	80 78 0d 00	 cmp	 BYTE PTR [eax+13], 0
  000c9	74 f5		 je	 SHORT $LL53@Extract
$LN54@Extract:

; 564  :                 _Myhead->_Right = _Fixnode->_Isnil ? _Fixnodeparent // largest is parent of erased node

  000cb	89 4a 08	 mov	 DWORD PTR [edx+8], ecx
$LN17@Extract:

; 565  :                                                    : _Max(_Fixnode); // largest in relinked subtree
; 566  :             }
; 567  :         } else { // erased has two subtrees, _Pnode is successor to erased

  000ce	8b 45 f8	 mov	 eax, DWORD PTR __Erasednode$1$[ebp]
  000d1	eb 6e		 jmp	 SHORT $LN58@Extract
$LN9@Extract:

; 568  :             _Erasednode->_Left->_Parent = _Pnode; // link left up

  000d3	89 50 04	 mov	 DWORD PTR [eax+4], edx

; 569  :             _Pnode->_Left               = _Erasednode->_Left; // link successor down

  000d6	8b 01		 mov	 eax, DWORD PTR [ecx]
  000d8	89 02		 mov	 DWORD PTR [edx], eax

; 570  : 
; 571  :             if (_Pnode == _Erasednode->_Right) {

  000da	8d 42 04	 lea	 eax, DWORD PTR [edx+4]
  000dd	89 45 f4	 mov	 DWORD PTR $T1[ebp], eax
  000e0	3b 51 08	 cmp	 edx, DWORD PTR [ecx+8]
  000e3	75 04		 jne	 SHORT $LN18@Extract

; 572  :                 _Fixnodeparent = _Pnode; // successor is next to erased

  000e5	8b f2		 mov	 esi, edx

; 573  :             } else { // successor further down, link in place of erased

  000e7	eb 1f		 jmp	 SHORT $LN19@Extract
$LN18@Extract:

; 574  :                 _Fixnodeparent = _Pnode->_Parent; // parent is successor's
; 575  :                 if (!_Fixnode->_Isnil) {

  000e9	80 7f 0d 00	 cmp	 BYTE PTR [edi+13], 0
  000ed	8b 30		 mov	 esi, DWORD PTR [eax]
  000ef	75 03		 jne	 SHORT $LN20@Extract

; 576  :                     _Fixnode->_Parent = _Fixnodeparent; // link fix up

  000f1	89 77 04	 mov	 DWORD PTR [edi+4], esi
$LN20@Extract:

; 577  :                 }
; 578  : 
; 579  :                 _Fixnodeparent->_Left        = _Fixnode; // link fix down

  000f4	89 3e		 mov	 DWORD PTR [esi], edi

; 580  :                 _Pnode->_Right               = _Erasednode->_Right; // link next down

  000f6	8b 41 08	 mov	 eax, DWORD PTR [ecx+8]
  000f9	89 42 08	 mov	 DWORD PTR [edx+8], eax

; 581  :                 _Erasednode->_Right->_Parent = _Pnode; // right up

  000fc	8b 41 08	 mov	 eax, DWORD PTR [ecx+8]
  000ff	89 50 04	 mov	 DWORD PTR [eax+4], edx
  00102	8d 42 04	 lea	 eax, DWORD PTR [edx+4]
  00105	89 45 f4	 mov	 DWORD PTR $T1[ebp], eax
$LN19@Extract:

; 582  :             }
; 583  : 
; 584  :             if (_Myhead->_Parent == _Erasednode) {

  00108	8b 03		 mov	 eax, DWORD PTR [ebx]
  0010a	39 48 04	 cmp	 DWORD PTR [eax+4], ecx
  0010d	75 05		 jne	 SHORT $LN21@Extract

; 585  :                 _Myhead->_Parent = _Pnode; // link down from root

  0010f	89 50 04	 mov	 DWORD PTR [eax+4], edx
  00112	eb 0e		 jmp	 SHORT $LN141@Extract
$LN21@Extract:

; 586  :             } else if (_Erasednode->_Parent->_Left == _Erasednode) {

  00114	8b 41 04	 mov	 eax, DWORD PTR [ecx+4]
  00117	39 08		 cmp	 DWORD PTR [eax], ecx
  00119	75 04		 jne	 SHORT $LN23@Extract

; 587  :                 _Erasednode->_Parent->_Left = _Pnode; // link down to left

  0011b	89 10		 mov	 DWORD PTR [eax], edx

; 588  :             } else {

  0011d	eb 03		 jmp	 SHORT $LN141@Extract
$LN23@Extract:

; 589  :                 _Erasednode->_Parent->_Right = _Pnode; // link down to right

  0011f	89 50 08	 mov	 DWORD PTR [eax+8], edx
$LN141@Extract:

; 590  :             }
; 591  : 
; 592  :             _Pnode->_Parent = _Erasednode->_Parent; // link successor up

  00122	b8 04 00 00 00	 mov	 eax, 4
  00127	8b 04 08	 mov	 eax, DWORD PTR [eax+ecx]
  0012a	8b 4d f4	 mov	 ecx, DWORD PTR $T1[ebp]
  0012d	89 01		 mov	 DWORD PTR [ecx], eax
; File C:\Program Files\Microsoft Visual Studio\2022\Professional\VC\Tools\MSVC\14.44.35207\include\utility

; 140  :     _Left    = _STD move(_Right);

  0012f	8b 45 f8	 mov	 eax, DWORD PTR __Erasednode$1$[ebp]
  00132	8a 4a 0c	 mov	 cl, BYTE PTR [edx+12]
  00135	8a 40 0c	 mov	 al, BYTE PTR [eax+12]
  00138	88 42 0c	 mov	 BYTE PTR [edx+12], al

; 141  :     _Right   = _STD move(_Tmp);

  0013b	8b 45 f8	 mov	 eax, DWORD PTR __Erasednode$1$[ebp]
  0013e	88 48 0c	 mov	 BYTE PTR [eax+12], cl
$LN58@Extract:
; File C:\Program Files\Microsoft Visual Studio\2022\Professional\VC\Tools\MSVC\14.44.35207\include\xtree

; 596  :         if (_Erasednode->_Color == _Black) { // erasing black link, must recolor/rebalance tree

  00141	80 78 0c 01	 cmp	 BYTE PTR [eax+12], 1
  00145	0f 85 ba 01 00
	00		 jne	 $LN25@Extract

; 597  :             for (; _Fixnode != _Myhead->_Parent && _Fixnode->_Color == _Black; _Fixnodeparent = _Fixnode->_Parent) {

  0014b	8b 03		 mov	 eax, DWORD PTR [ebx]
  0014d	3b 78 04	 cmp	 edi, DWORD PTR [eax+4]
  00150	0f 84 a8 01 00
	00		 je	 $LN3@Extract
  00156	80 7f 0c 01	 cmp	 BYTE PTR [edi+12], 1
  0015a	89 75 f4	 mov	 DWORD PTR tv1093[ebp], esi
  0015d	0f 85 9b 01 00
	00		 jne	 $LN3@Extract
$LL4@Extract:

; 598  :                 if (_Fixnode == _Fixnodeparent->_Left) { // fixup left subtree

  00163	8b 0e		 mov	 ecx, DWORD PTR [esi]
  00165	3b f9		 cmp	 edi, ecx
  00167	0f 85 be 00 00
	00		 jne	 $LN26@Extract

; 599  :                     _Pnode = _Fixnodeparent->_Right;

  0016d	8b 4e 08	 mov	 ecx, DWORD PTR [esi+8]

; 600  :                     if (_Pnode->_Color == _Red) { // rotate red up from right subtree

  00170	80 79 0c 00	 cmp	 BYTE PTR [ecx+12], 0
  00174	75 54		 jne	 SHORT $LN95@Extract

; 601  :                         _Pnode->_Color         = _Black;

  00176	c6 41 0c 01	 mov	 BYTE PTR [ecx+12], 1

; 484  :         _Nodeptr _Pnode    = _Wherenode->_Right;

  0017a	8b 4e 08	 mov	 ecx, DWORD PTR [esi+8]

; 602  :                         _Fixnodeparent->_Color = _Red;

  0017d	c6 46 0c 00	 mov	 BYTE PTR [esi+12], 0

; 485  :         _Wherenode->_Right = _Pnode->_Left;

  00181	8b 01		 mov	 eax, DWORD PTR [ecx]
  00183	89 46 08	 mov	 DWORD PTR [esi+8], eax

; 486  : 
; 487  :         if (!_Pnode->_Left->_Isnil) {

  00186	8b 01		 mov	 eax, DWORD PTR [ecx]
  00188	80 78 0d 00	 cmp	 BYTE PTR [eax+13], 0
  0018c	75 03		 jne	 SHORT $LN61@Extract

; 488  :             _Pnode->_Left->_Parent = _Wherenode;

  0018e	89 70 04	 mov	 DWORD PTR [eax+4], esi
$LN61@Extract:

; 489  :         }
; 490  : 
; 491  :         _Pnode->_Parent = _Wherenode->_Parent;

  00191	8b 46 04	 mov	 eax, DWORD PTR [esi+4]
  00194	8d 56 04	 lea	 edx, DWORD PTR [esi+4]
  00197	89 41 04	 mov	 DWORD PTR [ecx+4], eax

; 492  : 
; 493  :         if (_Wherenode == _Myhead->_Parent) {

  0019a	8b 03		 mov	 eax, DWORD PTR [ebx]
  0019c	3b 70 04	 cmp	 esi, DWORD PTR [eax+4]
  0019f	75 0c		 jne	 SHORT $LN62@Extract

; 494  :             _Myhead->_Parent = _Pnode;

  001a1	89 48 04	 mov	 DWORD PTR [eax+4], ecx

; 499  :         }
; 500  : 
; 501  :         _Pnode->_Left       = _Wherenode;

  001a4	89 31		 mov	 DWORD PTR [ecx], esi

; 502  :         _Wherenode->_Parent = _Pnode;

  001a6	89 0a		 mov	 DWORD PTR [edx], ecx

; 603  :                         _Lrotate(_Fixnodeparent);
; 604  :                         _Pnode = _Fixnodeparent->_Right;

  001a8	8b 4e 08	 mov	 ecx, DWORD PTR [esi+8]
  001ab	eb 20		 jmp	 SHORT $LN87@Extract
$LN62@Extract:

; 495  :         } else if (_Wherenode == _Wherenode->_Parent->_Left) {

  001ad	8b 02		 mov	 eax, DWORD PTR [edx]
  001af	3b 30		 cmp	 esi, DWORD PTR [eax]
  001b1	75 0b		 jne	 SHORT $LN64@Extract

; 496  :             _Wherenode->_Parent->_Left = _Pnode;

  001b3	89 08		 mov	 DWORD PTR [eax], ecx

; 499  :         }
; 500  : 
; 501  :         _Pnode->_Left       = _Wherenode;

  001b5	89 31		 mov	 DWORD PTR [ecx], esi

; 502  :         _Wherenode->_Parent = _Pnode;

  001b7	89 0a		 mov	 DWORD PTR [edx], ecx

; 603  :                         _Lrotate(_Fixnodeparent);
; 604  :                         _Pnode = _Fixnodeparent->_Right;

  001b9	8b 4e 08	 mov	 ecx, DWORD PTR [esi+8]
  001bc	eb 0f		 jmp	 SHORT $LN87@Extract
$LN64@Extract:

; 498  :             _Wherenode->_Parent->_Right = _Pnode;

  001be	89 48 08	 mov	 DWORD PTR [eax+8], ecx

; 499  :         }
; 500  : 
; 501  :         _Pnode->_Left       = _Wherenode;

  001c1	89 31		 mov	 DWORD PTR [ecx], esi

; 502  :         _Wherenode->_Parent = _Pnode;

  001c3	89 0a		 mov	 DWORD PTR [edx], ecx

; 603  :                         _Lrotate(_Fixnodeparent);
; 604  :                         _Pnode = _Fixnodeparent->_Right;

  001c5	8b 4e 08	 mov	 ecx, DWORD PTR [esi+8]
  001c8	eb 03		 jmp	 SHORT $LN87@Extract
$LN95@Extract:
  001ca	8d 56 04	 lea	 edx, DWORD PTR [esi+4]
$LN87@Extract:

; 605  :                     }
; 606  : 
; 607  :                     if (_Pnode->_Isnil) {

  001cd	80 79 0d 00	 cmp	 BYTE PTR [ecx+13], 0
  001d1	0f 85 d0 00 00
	00		 jne	 $LN2@Extract

; 608  :                         _Fixnode = _Fixnodeparent; // shouldn't happen
; 609  :                     } else if (_Pnode->_Left->_Color == _Black
; 610  :                                && _Pnode->_Right->_Color == _Black) { // redden right subtree with black children

  001d7	8b 01		 mov	 eax, DWORD PTR [ecx]
  001d9	80 78 0c 01	 cmp	 BYTE PTR [eax+12], 1
  001dd	75 0d		 jne	 SHORT $LN97@Extract
  001df	8b 41 08	 mov	 eax, DWORD PTR [ecx+8]
  001e2	80 78 0c 01	 cmp	 BYTE PTR [eax+12], 1
  001e6	0f 84 b4 00 00
	00		 je	 $LN142@Extract
$LN97@Extract:

; 611  :                         _Pnode->_Color = _Red;
; 612  :                         _Fixnode       = _Fixnodeparent;
; 613  :                     } else { // must rearrange right subtree
; 614  :                         if (_Pnode->_Right->_Color == _Black) { // rotate red up from left sub-subtree

  001ec	8b 41 08	 mov	 eax, DWORD PTR [ecx+8]
  001ef	8b 5d fc	 mov	 ebx, DWORD PTR _this$1$[ebp]
  001f2	80 78 0c 01	 cmp	 BYTE PTR [eax+12], 1
  001f6	75 15		 jne	 SHORT $LN33@Extract

; 615  :                             _Pnode->_Left->_Color = _Black;

  001f8	8b 01		 mov	 eax, DWORD PTR [ecx]

; 616  :                             _Pnode->_Color        = _Red;
; 617  :                             _Rrotate(_Pnode);

  001fa	51		 push	 ecx
  001fb	c6 40 0c 01	 mov	 BYTE PTR [eax+12], 1
  001ff	c6 41 0c 00	 mov	 BYTE PTR [ecx+12], 0
  00203	8b cb		 mov	 ecx, ebx
  00205	e8 00 00 00 00	 call	 ?_Rrotate@?$_Tree_val@U?$_Tree_simple_types@U?$pair@$$CBKPAVCRainbowRace@@@std@@@std@@@std@@QAEXPAU?$_Tree_node@U?$pair@$$CBKPAVCRainbowRace@@@std@@PAX@2@@Z ; std::_Tree_val<std::_Tree_simple_types<std::pair<unsigned long const ,CRainbowRace *> > >::_Rrotate

; 618  :                             _Pnode = _Fixnodeparent->_Right;

  0020a	8b 4e 08	 mov	 ecx, DWORD PTR [esi+8]
$LN33@Extract:

; 619  :                         }
; 620  : 
; 621  :                         _Pnode->_Color         = _Fixnodeparent->_Color;

  0020d	8a 46 0c	 mov	 al, BYTE PTR [esi+12]
  00210	88 41 0c	 mov	 BYTE PTR [ecx+12], al

; 622  :                         _Fixnodeparent->_Color = _Black;

  00213	c6 46 0c 01	 mov	 BYTE PTR [esi+12], 1

; 623  :                         _Pnode->_Right->_Color = _Black;

  00217	8b 41 08	 mov	 eax, DWORD PTR [ecx+8]

; 624  :                         _Lrotate(_Fixnodeparent);

  0021a	8b cb		 mov	 ecx, ebx
  0021c	56		 push	 esi
  0021d	c6 40 0c 01	 mov	 BYTE PTR [eax+12], 1
  00221	e8 00 00 00 00	 call	 ?_Lrotate@?$_Tree_val@U?$_Tree_simple_types@U?$pair@$$CBKPAVCRainbowRace@@@std@@@std@@@std@@QAEXPAU?$_Tree_node@U?$pair@$$CBKPAVCRainbowRace@@@std@@PAX@2@@Z ; std::_Tree_val<std::_Tree_simple_types<std::pair<unsigned long const ,CRainbowRace *> > >::_Lrotate

; 625  :                         break; // tree now recolored/rebalanced

  00226	e9 d3 00 00 00	 jmp	 $LN3@Extract
$LN26@Extract:

; 626  :                     }
; 627  :                 } else { // fixup right subtree
; 628  :                     _Pnode = _Fixnodeparent->_Left;
; 629  :                     if (_Pnode->_Color == _Red) { // rotate red up from left subtree

  0022b	80 79 0c 00	 cmp	 BYTE PTR [ecx+12], 0
  0022f	75 55		 jne	 SHORT $LN96@Extract

; 630  :                         _Pnode->_Color         = _Black;

  00231	c6 41 0c 01	 mov	 BYTE PTR [ecx+12], 1

; 506  :         _Nodeptr _Pnode   = _Wherenode->_Left;

  00235	8b 0e		 mov	 ecx, DWORD PTR [esi]

; 631  :                         _Fixnodeparent->_Color = _Red;

  00237	c6 46 0c 00	 mov	 BYTE PTR [esi+12], 0

; 507  :         _Wherenode->_Left = _Pnode->_Right;

  0023b	8b 41 08	 mov	 eax, DWORD PTR [ecx+8]
  0023e	89 06		 mov	 DWORD PTR [esi], eax

; 508  : 
; 509  :         if (!_Pnode->_Right->_Isnil) {

  00240	8b 41 08	 mov	 eax, DWORD PTR [ecx+8]
  00243	80 78 0d 00	 cmp	 BYTE PTR [eax+13], 0
  00247	75 03		 jne	 SHORT $LN69@Extract

; 510  :             _Pnode->_Right->_Parent = _Wherenode;

  00249	89 70 04	 mov	 DWORD PTR [eax+4], esi
$LN69@Extract:

; 511  :         }
; 512  : 
; 513  :         _Pnode->_Parent = _Wherenode->_Parent;

  0024c	8b 46 04	 mov	 eax, DWORD PTR [esi+4]
  0024f	8d 56 04	 lea	 edx, DWORD PTR [esi+4]
  00252	89 41 04	 mov	 DWORD PTR [ecx+4], eax

; 514  : 
; 515  :         if (_Wherenode == _Myhead->_Parent) {

  00255	8b 03		 mov	 eax, DWORD PTR [ebx]
  00257	3b 70 04	 cmp	 esi, DWORD PTR [eax+4]
  0025a	75 0c		 jne	 SHORT $LN70@Extract

; 516  :             _Myhead->_Parent = _Pnode;

  0025c	89 48 04	 mov	 DWORD PTR [eax+4], ecx

; 521  :         }
; 522  : 
; 523  :         _Pnode->_Right      = _Wherenode;

  0025f	89 71 08	 mov	 DWORD PTR [ecx+8], esi

; 524  :         _Wherenode->_Parent = _Pnode;

  00262	89 0a		 mov	 DWORD PTR [edx], ecx

; 632  :                         _Rrotate(_Fixnodeparent);
; 633  :                         _Pnode = _Fixnodeparent->_Left;

  00264	8b 0e		 mov	 ecx, DWORD PTR [esi]
  00266	eb 21		 jmp	 SHORT $LN86@Extract
$LN70@Extract:

; 517  :         } else if (_Wherenode == _Wherenode->_Parent->_Right) {

  00268	8b 02		 mov	 eax, DWORD PTR [edx]
  0026a	3b 70 08	 cmp	 esi, DWORD PTR [eax+8]
  0026d	75 0c		 jne	 SHORT $LN72@Extract

; 518  :             _Wherenode->_Parent->_Right = _Pnode;

  0026f	89 48 08	 mov	 DWORD PTR [eax+8], ecx

; 521  :         }
; 522  : 
; 523  :         _Pnode->_Right      = _Wherenode;

  00272	89 71 08	 mov	 DWORD PTR [ecx+8], esi

; 524  :         _Wherenode->_Parent = _Pnode;

  00275	89 0a		 mov	 DWORD PTR [edx], ecx

; 632  :                         _Rrotate(_Fixnodeparent);
; 633  :                         _Pnode = _Fixnodeparent->_Left;

  00277	8b 0e		 mov	 ecx, DWORD PTR [esi]
  00279	eb 0e		 jmp	 SHORT $LN86@Extract
$LN72@Extract:

; 520  :             _Wherenode->_Parent->_Left = _Pnode;

  0027b	89 08		 mov	 DWORD PTR [eax], ecx

; 521  :         }
; 522  : 
; 523  :         _Pnode->_Right      = _Wherenode;

  0027d	89 71 08	 mov	 DWORD PTR [ecx+8], esi

; 524  :         _Wherenode->_Parent = _Pnode;

  00280	89 0a		 mov	 DWORD PTR [edx], ecx

; 632  :                         _Rrotate(_Fixnodeparent);
; 633  :                         _Pnode = _Fixnodeparent->_Left;

  00282	8b 0e		 mov	 ecx, DWORD PTR [esi]
  00284	eb 03		 jmp	 SHORT $LN86@Extract
$LN96@Extract:
  00286	8d 56 04	 lea	 edx, DWORD PTR [esi+4]
$LN86@Extract:

; 634  :                     }
; 635  : 
; 636  :                     if (_Pnode->_Isnil) {

  00289	80 79 0d 00	 cmp	 BYTE PTR [ecx+13], 0
  0028d	75 18		 jne	 SHORT $LN2@Extract

; 637  :                         _Fixnode = _Fixnodeparent; // shouldn't happen
; 638  :                     } else if (_Pnode->_Right->_Color == _Black
; 639  :                                && _Pnode->_Left->_Color == _Black) { // redden left subtree with black children

  0028f	8b 59 08	 mov	 ebx, DWORD PTR [ecx+8]
  00292	80 7b 0c 01	 cmp	 BYTE PTR [ebx+12], 1
  00296	75 2c		 jne	 SHORT $LN98@Extract
  00298	8b 01		 mov	 eax, DWORD PTR [ecx]
  0029a	80 78 0c 01	 cmp	 BYTE PTR [eax+12], 1
  0029e	75 24		 jne	 SHORT $LN98@Extract
$LN142@Extract:

; 597  :             for (; _Fixnode != _Myhead->_Parent && _Fixnode->_Color == _Black; _Fixnodeparent = _Fixnode->_Parent) {

  002a0	8b 5d fc	 mov	 ebx, DWORD PTR _this$1$[ebp]
  002a3	c6 41 0c 00	 mov	 BYTE PTR [ecx+12], 0
$LN2@Extract:
  002a7	8b 03		 mov	 eax, DWORD PTR [ebx]
  002a9	8b 4d f4	 mov	 ecx, DWORD PTR tv1093[ebp]
  002ac	8b f9		 mov	 edi, ecx
  002ae	8b 32		 mov	 esi, DWORD PTR [edx]
  002b0	3b 48 04	 cmp	 ecx, DWORD PTR [eax+4]
  002b3	74 49		 je	 SHORT $LN3@Extract
  002b5	80 7f 0c 01	 cmp	 BYTE PTR [edi+12], 1
  002b9	89 75 f4	 mov	 DWORD PTR tv1093[ebp], esi
  002bc	0f 84 a1 fe ff
	ff		 je	 $LL4@Extract
  002c2	eb 3a		 jmp	 SHORT $LN3@Extract
$LN98@Extract:

; 640  :                         _Pnode->_Color = _Red;
; 641  :                         _Fixnode       = _Fixnodeparent;
; 642  :                     } else { // must rearrange left subtree
; 643  :                         if (_Pnode->_Left->_Color == _Black) { // rotate red up from right sub-subtree

  002c4	8b 01		 mov	 eax, DWORD PTR [ecx]
  002c6	80 78 0c 01	 cmp	 BYTE PTR [eax+12], 1
  002ca	75 17		 jne	 SHORT $LN101@Extract

; 644  :                             _Pnode->_Right->_Color = _Black;

  002cc	c6 43 0c 01	 mov	 BYTE PTR [ebx+12], 1

; 645  :                             _Pnode->_Color         = _Red;
; 646  :                             _Lrotate(_Pnode);

  002d0	8b 5d fc	 mov	 ebx, DWORD PTR _this$1$[ebp]
  002d3	c6 41 0c 00	 mov	 BYTE PTR [ecx+12], 0
  002d7	51		 push	 ecx
  002d8	8b cb		 mov	 ecx, ebx
  002da	e8 00 00 00 00	 call	 ?_Lrotate@?$_Tree_val@U?$_Tree_simple_types@U?$pair@$$CBKPAVCRainbowRace@@@std@@@std@@@std@@QAEXPAU?$_Tree_node@U?$pair@$$CBKPAVCRainbowRace@@@std@@PAX@2@@Z ; std::_Tree_val<std::_Tree_simple_types<std::pair<unsigned long const ,CRainbowRace *> > >::_Lrotate

; 647  :                             _Pnode = _Fixnodeparent->_Left;

  002df	8b 0e		 mov	 ecx, DWORD PTR [esi]
  002e1	eb 03		 jmp	 SHORT $LN39@Extract
$LN101@Extract:

; 640  :                         _Pnode->_Color = _Red;
; 641  :                         _Fixnode       = _Fixnodeparent;
; 642  :                     } else { // must rearrange left subtree
; 643  :                         if (_Pnode->_Left->_Color == _Black) { // rotate red up from right sub-subtree

  002e3	8b 5d fc	 mov	 ebx, DWORD PTR _this$1$[ebp]
$LN39@Extract:

; 648  :                         }
; 649  : 
; 650  :                         _Pnode->_Color         = _Fixnodeparent->_Color;

  002e6	8a 46 0c	 mov	 al, BYTE PTR [esi+12]
  002e9	88 41 0c	 mov	 BYTE PTR [ecx+12], al

; 651  :                         _Fixnodeparent->_Color = _Black;

  002ec	c6 46 0c 01	 mov	 BYTE PTR [esi+12], 1

; 652  :                         _Pnode->_Left->_Color  = _Black;

  002f0	8b 01		 mov	 eax, DWORD PTR [ecx]

; 653  :                         _Rrotate(_Fixnodeparent);

  002f2	8b cb		 mov	 ecx, ebx
  002f4	56		 push	 esi
  002f5	c6 40 0c 01	 mov	 BYTE PTR [eax+12], 1
  002f9	e8 00 00 00 00	 call	 ?_Rrotate@?$_Tree_val@U?$_Tree_simple_types@U?$pair@$$CBKPAVCRainbowRace@@@std@@@std@@@std@@QAEXPAU?$_Tree_node@U?$pair@$$CBKPAVCRainbowRace@@@std@@PAX@2@@Z ; std::_Tree_val<std::_Tree_simple_types<std::pair<unsigned long const ,CRainbowRace *> > >::_Rrotate
$LN3@Extract:

; 654  :                         break; // tree now recolored/rebalanced
; 655  :                     }
; 656  :                 }
; 657  :             }
; 658  : 
; 659  :             _Fixnode->_Color = _Black; // stopping node is black

  002fe	8b 45 f8	 mov	 eax, DWORD PTR __Erasednode$1$[ebp]
  00301	c6 47 0c 01	 mov	 BYTE PTR [edi+12], 1
$LN25@Extract:

; 660  :         }
; 661  : 
; 662  :         if (0 < _Mysize) {

  00305	8b 4b 04	 mov	 ecx, DWORD PTR [ebx+4]
  00308	85 c9		 test	 ecx, ecx
  0030a	74 04		 je	 SHORT $LN40@Extract

; 663  :             --_Mysize;

  0030c	49		 dec	 ecx
  0030d	89 4b 04	 mov	 DWORD PTR [ebx+4], ecx
$LN40@Extract:

; 664  :         }
; 665  : 
; 666  :         return _Erasednode;
; 667  :     }

  00310	5f		 pop	 edi
  00311	5e		 pop	 esi
  00312	5b		 pop	 ebx
  00313	8b e5		 mov	 esp, ebp
  00315	5d		 pop	 ebp
  00316	c2 04 00	 ret	 4
?_Extract@?$_Tree_val@U?$_Tree_simple_types@U?$pair@$$CBKPAVCRainbowRace@@@std@@@std@@@std@@QAEPAU?$_Tree_node@U?$pair@$$CBKPAVCRainbowRace@@@std@@PAX@2@V?$_Tree_unchecked_const_iterator@V?$_Tree_val@U?$_Tree_simple_types@U?$pair@$$CBKPAVCRainbowRace@@@std@@@std@@@std@@U_Iterator_base0@2@@2@@Z ENDP ; std::_Tree_val<std::_Tree_simple_types<std::pair<unsigned long const ,CRainbowRace *> > >::_Extract
_TEXT	ENDS
; Function compile flags: /Ogtp
; File C:\Program Files\Microsoft Visual Studio\2022\Professional\VC\Tools\MSVC\14.44.35207\include\xtree
;	COMDAT ?_Rrotate@?$_Tree_val@U?$_Tree_simple_types@U?$pair@$$CBKPAVCRainbowRace@@@std@@@std@@@std@@QAEXPAU?$_Tree_node@U?$pair@$$CBKPAVCRainbowRace@@@std@@PAX@2@@Z
_TEXT	SEGMENT
__Wherenode$ = 8					; size = 4
?_Rrotate@?$_Tree_val@U?$_Tree_simple_types@U?$pair@$$CBKPAVCRainbowRace@@@std@@@std@@@std@@QAEXPAU?$_Tree_node@U?$pair@$$CBKPAVCRainbowRace@@@std@@PAX@2@@Z PROC ; std::_Tree_val<std::_Tree_simple_types<std::pair<unsigned long const ,CRainbowRace *> > >::_Rrotate, COMDAT
; _this$ = ecx

; 505  :     void _Rrotate(_Nodeptr _Wherenode) noexcept { // promote left node to root of subtree

  00000	55		 push	 ebp
  00001	8b ec		 mov	 ebp, esp

; 506  :         _Nodeptr _Pnode   = _Wherenode->_Left;

  00003	8b 55 08	 mov	 edx, DWORD PTR __Wherenode$[ebp]
  00006	56		 push	 esi
  00007	8b 32		 mov	 esi, DWORD PTR [edx]

; 507  :         _Wherenode->_Left = _Pnode->_Right;

  00009	8b 46 08	 mov	 eax, DWORD PTR [esi+8]
  0000c	89 02		 mov	 DWORD PTR [edx], eax

; 508  : 
; 509  :         if (!_Pnode->_Right->_Isnil) {

  0000e	8b 46 08	 mov	 eax, DWORD PTR [esi+8]
  00011	80 78 0d 00	 cmp	 BYTE PTR [eax+13], 0
  00015	75 03		 jne	 SHORT $LN2@Rrotate

; 510  :             _Pnode->_Right->_Parent = _Wherenode;

  00017	89 50 04	 mov	 DWORD PTR [eax+4], edx
$LN2@Rrotate:

; 511  :         }
; 512  : 
; 513  :         _Pnode->_Parent = _Wherenode->_Parent;

  0001a	8b 42 04	 mov	 eax, DWORD PTR [edx+4]
  0001d	89 46 04	 mov	 DWORD PTR [esi+4], eax

; 514  : 
; 515  :         if (_Wherenode == _Myhead->_Parent) {

  00020	8b 01		 mov	 eax, DWORD PTR [ecx]
  00022	3b 50 04	 cmp	 edx, DWORD PTR [eax+4]
  00025	75 0e		 jne	 SHORT $LN3@Rrotate

; 516  :             _Myhead->_Parent = _Pnode;

  00027	89 70 04	 mov	 DWORD PTR [eax+4], esi

; 521  :         }
; 522  : 
; 523  :         _Pnode->_Right      = _Wherenode;
; 524  :         _Wherenode->_Parent = _Pnode;
; 525  :     }

  0002a	89 56 08	 mov	 DWORD PTR [esi+8], edx
  0002d	89 72 04	 mov	 DWORD PTR [edx+4], esi
  00030	5e		 pop	 esi
  00031	5d		 pop	 ebp
  00032	c2 04 00	 ret	 4
$LN3@Rrotate:

; 517  :         } else if (_Wherenode == _Wherenode->_Parent->_Right) {

  00035	8b 42 04	 mov	 eax, DWORD PTR [edx+4]
  00038	3b 50 08	 cmp	 edx, DWORD PTR [eax+8]
  0003b	75 0e		 jne	 SHORT $LN5@Rrotate

; 518  :             _Wherenode->_Parent->_Right = _Pnode;

  0003d	89 70 08	 mov	 DWORD PTR [eax+8], esi

; 521  :         }
; 522  : 
; 523  :         _Pnode->_Right      = _Wherenode;
; 524  :         _Wherenode->_Parent = _Pnode;
; 525  :     }

  00040	89 56 08	 mov	 DWORD PTR [esi+8], edx
  00043	89 72 04	 mov	 DWORD PTR [edx+4], esi
  00046	5e		 pop	 esi
  00047	5d		 pop	 ebp
  00048	c2 04 00	 ret	 4
$LN5@Rrotate:

; 519  :         } else {
; 520  :             _Wherenode->_Parent->_Left = _Pnode;

  0004b	89 30		 mov	 DWORD PTR [eax], esi

; 521  :         }
; 522  : 
; 523  :         _Pnode->_Right      = _Wherenode;
; 524  :         _Wherenode->_Parent = _Pnode;
; 525  :     }

  0004d	89 56 08	 mov	 DWORD PTR [esi+8], edx
  00050	89 72 04	 mov	 DWORD PTR [edx+4], esi
  00053	5e		 pop	 esi
  00054	5d		 pop	 ebp
  00055	c2 04 00	 ret	 4
?_Rrotate@?$_Tree_val@U?$_Tree_simple_types@U?$pair@$$CBKPAVCRainbowRace@@@std@@@std@@@std@@QAEXPAU?$_Tree_node@U?$pair@$$CBKPAVCRainbowRace@@@std@@PAX@2@@Z ENDP ; std::_Tree_val<std::_Tree_simple_types<std::pair<unsigned long const ,CRainbowRace *> > >::_Rrotate
_TEXT	ENDS
; Function compile flags: /Ogtp
; File C:\Program Files\Microsoft Visual Studio\2022\Professional\VC\Tools\MSVC\14.44.35207\include\xtree
;	COMDAT ?_Lrotate@?$_Tree_val@U?$_Tree_simple_types@U?$pair@$$CBKPAVCRainbowRace@@@std@@@std@@@std@@QAEXPAU?$_Tree_node@U?$pair@$$CBKPAVCRainbowRace@@@std@@PAX@2@@Z
_TEXT	SEGMENT
__Wherenode$ = 8					; size = 4
?_Lrotate@?$_Tree_val@U?$_Tree_simple_types@U?$pair@$$CBKPAVCRainbowRace@@@std@@@std@@@std@@QAEXPAU?$_Tree_node@U?$pair@$$CBKPAVCRainbowRace@@@std@@PAX@2@@Z PROC ; std::_Tree_val<std::_Tree_simple_types<std::pair<unsigned long const ,CRainbowRace *> > >::_Lrotate, COMDAT
; _this$ = ecx

; 483  :     void _Lrotate(_Nodeptr _Wherenode) noexcept { // promote right node to root of subtree

  00000	55		 push	 ebp
  00001	8b ec		 mov	 ebp, esp

; 484  :         _Nodeptr _Pnode    = _Wherenode->_Right;

  00003	8b 55 08	 mov	 edx, DWORD PTR __Wherenode$[ebp]
  00006	56		 push	 esi
  00007	8b 72 08	 mov	 esi, DWORD PTR [edx+8]

; 485  :         _Wherenode->_Right = _Pnode->_Left;

  0000a	8b 06		 mov	 eax, DWORD PTR [esi]
  0000c	89 42 08	 mov	 DWORD PTR [edx+8], eax

; 486  : 
; 487  :         if (!_Pnode->_Left->_Isnil) {

  0000f	8b 06		 mov	 eax, DWORD PTR [esi]
  00011	80 78 0d 00	 cmp	 BYTE PTR [eax+13], 0
  00015	75 03		 jne	 SHORT $LN2@Lrotate

; 488  :             _Pnode->_Left->_Parent = _Wherenode;

  00017	89 50 04	 mov	 DWORD PTR [eax+4], edx
$LN2@Lrotate:

; 489  :         }
; 490  : 
; 491  :         _Pnode->_Parent = _Wherenode->_Parent;

  0001a	8b 42 04	 mov	 eax, DWORD PTR [edx+4]
  0001d	89 46 04	 mov	 DWORD PTR [esi+4], eax

; 492  : 
; 493  :         if (_Wherenode == _Myhead->_Parent) {

  00020	8b 01		 mov	 eax, DWORD PTR [ecx]
  00022	3b 50 04	 cmp	 edx, DWORD PTR [eax+4]
  00025	75 0d		 jne	 SHORT $LN3@Lrotate

; 494  :             _Myhead->_Parent = _Pnode;

  00027	89 70 04	 mov	 DWORD PTR [eax+4], esi

; 499  :         }
; 500  : 
; 501  :         _Pnode->_Left       = _Wherenode;
; 502  :         _Wherenode->_Parent = _Pnode;
; 503  :     }

  0002a	89 16		 mov	 DWORD PTR [esi], edx
  0002c	89 72 04	 mov	 DWORD PTR [edx+4], esi
  0002f	5e		 pop	 esi
  00030	5d		 pop	 ebp
  00031	c2 04 00	 ret	 4
$LN3@Lrotate:

; 495  :         } else if (_Wherenode == _Wherenode->_Parent->_Left) {

  00034	8b 42 04	 mov	 eax, DWORD PTR [edx+4]
  00037	3b 10		 cmp	 edx, DWORD PTR [eax]
  00039	75 0c		 jne	 SHORT $LN5@Lrotate

; 496  :             _Wherenode->_Parent->_Left = _Pnode;

  0003b	89 30		 mov	 DWORD PTR [eax], esi

; 499  :         }
; 500  : 
; 501  :         _Pnode->_Left       = _Wherenode;
; 502  :         _Wherenode->_Parent = _Pnode;
; 503  :     }

  0003d	89 16		 mov	 DWORD PTR [esi], edx
  0003f	89 72 04	 mov	 DWORD PTR [edx+4], esi
  00042	5e		 pop	 esi
  00043	5d		 pop	 ebp
  00044	c2 04 00	 ret	 4
$LN5@Lrotate:

; 497  :         } else {
; 498  :             _Wherenode->_Parent->_Right = _Pnode;

  00047	89 70 08	 mov	 DWORD PTR [eax+8], esi

; 499  :         }
; 500  : 
; 501  :         _Pnode->_Left       = _Wherenode;
; 502  :         _Wherenode->_Parent = _Pnode;
; 503  :     }

  0004a	89 16		 mov	 DWORD PTR [esi], edx
  0004c	89 72 04	 mov	 DWORD PTR [edx+4], esi
  0004f	5e		 pop	 esi
  00050	5d		 pop	 ebp
  00051	c2 04 00	 ret	 4
?_Lrotate@?$_Tree_val@U?$_Tree_simple_types@U?$pair@$$CBKPAVCRainbowRace@@@std@@@std@@@std@@QAEXPAU?$_Tree_node@U?$pair@$$CBKPAVCRainbowRace@@@std@@PAX@2@@Z ENDP ; std::_Tree_val<std::_Tree_simple_types<std::pair<unsigned long const ,CRainbowRace *> > >::_Lrotate
_TEXT	ENDS
; Function compile flags: /Ogtp
; File C:\Program Files\Microsoft Visual Studio\2022\Professional\VC\Tools\MSVC\14.44.35207\include\xtree
; File C:\Program Files\Microsoft Visual Studio\2022\Professional\VC\Tools\MSVC\14.44.35207\include\utility
; File C:\Program Files\Microsoft Visual Studio\2022\Professional\VC\Tools\MSVC\14.44.35207\include\xmemory
; File C:\Program Files\Microsoft Visual Studio\2022\Professional\VC\Tools\MSVC\14.44.35207\include\xtree
; File C:\Program Files\Microsoft Visual Studio\2022\Professional\VC\Tools\MSVC\14.44.35207\include\xmemory
; File C:\Program Files\Microsoft Visual Studio\2022\Professional\VC\Tools\MSVC\14.44.35207\include\xtree
;	COMDAT ??1?$_Tree@V?$_Tmap_traits@KPAVCRainbowRace@@U?$less@K@std@@V?$allocator@U?$pair@$$CBKPAVCRainbowRace@@@std@@@3@$0A@@std@@@std@@QAE@XZ
_TEXT	SEGMENT
??1?$_Tree@V?$_Tmap_traits@KPAVCRainbowRace@@U?$less@K@std@@V?$allocator@U?$pair@$$CBKPAVCRainbowRace@@@std@@@3@$0A@@std@@@std@@QAE@XZ PROC ; std::_Tree<std::_Tmap_traits<unsigned long,CRainbowRace *,std::less<unsigned long>,std::allocator<std::pair<unsigned long const ,CRainbowRace *> >,0> >::~_Tree<std::_Tmap_traits<unsigned long,CRainbowRace *,std::less<unsigned long>,std::allocator<std::pair<unsigned long const ,CRainbowRace *> >,0> >, COMDAT
; _this$ = ecx

; 1095 :     ~_Tree() noexcept {

  00000	56		 push	 esi
  00001	57		 push	 edi
  00002	8b f9		 mov	 edi, ecx

; 777  :         _Erase_tree(_Al, _Myhead->_Parent);

  00004	8b 37		 mov	 esi, DWORD PTR [edi]
  00006	8b 76 04	 mov	 esi, DWORD PTR [esi+4]

; 768  :         while (!_Rootnode->_Isnil) { // free subtrees, then node

  00009	80 7e 0d 00	 cmp	 BYTE PTR [esi+13], 0
  0000d	75 21		 jne	 SHORT $LN61@Tree
  0000f	90		 npad	 1
$LL8@Tree:

; 769  :             _Erase_tree(_Al, _Rootnode->_Right);

  00010	ff 76 08	 push	 DWORD PTR [esi+8]
  00013	8b cf		 mov	 ecx, edi
  00015	57		 push	 edi
  00016	e8 00 00 00 00	 call	 ??$_Erase_tree@V?$allocator@U?$_Tree_node@U?$pair@$$CBKPAVCRainbowRace@@@std@@PAX@std@@@std@@@?$_Tree_val@U?$_Tree_simple_types@U?$pair@$$CBKPAVCRainbowRace@@@std@@@std@@@std@@QAEXAAV?$allocator@U?$_Tree_node@U?$pair@$$CBKPAVCRainbowRace@@@std@@PAX@std@@@1@PAU?$_Tree_node@U?$pair@$$CBKPAVCRainbowRace@@@std@@PAX@1@@Z ; std::_Tree_val<std::_Tree_simple_types<std::pair<unsigned long const ,CRainbowRace *> > >::_Erase_tree<std::allocator<std::_Tree_node<std::pair<unsigned long const ,CRainbowRace *>,void *> > >
; File C:\Program Files\Microsoft Visual Studio\2022\Professional\VC\Tools\MSVC\14.44.35207\include\utility

; 773  :     _Ty _Old_val = static_cast<_Ty&&>(_Val);

  0001b	8b c6		 mov	 eax, esi

; 774  :     _Val         = static_cast<_Other&&>(_New_val);

  0001d	8b 36		 mov	 esi, DWORD PTR [esi]
; File C:\Program Files\Microsoft Visual Studio\2022\Professional\VC\Tools\MSVC\14.44.35207\include\xmemory

; 289  :         ::operator delete(_Ptr, _Bytes);

  0001f	6a 18		 push	 24			; 00000018H
  00021	50		 push	 eax
  00022	e8 00 00 00 00	 call	 ??3@YAXPAXI@Z		; operator delete
  00027	83 c4 08	 add	 esp, 8
; File C:\Program Files\Microsoft Visual Studio\2022\Professional\VC\Tools\MSVC\14.44.35207\include\xtree

; 768  :         while (!_Rootnode->_Isnil) { // free subtrees, then node

  0002a	80 7e 0d 00	 cmp	 BYTE PTR [esi+13], 0
  0002e	74 e0		 je	 SHORT $LL8@Tree
$LN61@Tree:
; File C:\Program Files\Microsoft Visual Studio\2022\Professional\VC\Tools\MSVC\14.44.35207\include\xmemory

; 289  :         ::operator delete(_Ptr, _Bytes);

  00030	6a 18		 push	 24			; 00000018H
  00032	ff 37		 push	 DWORD PTR [edi]
  00034	e8 00 00 00 00	 call	 ??3@YAXPAXI@Z		; operator delete
  00039	83 c4 08	 add	 esp, 8
  0003c	5f		 pop	 edi
  0003d	5e		 pop	 esi
; File C:\Program Files\Microsoft Visual Studio\2022\Professional\VC\Tools\MSVC\14.44.35207\include\xtree

; 1102 :     }

  0003e	c3		 ret	 0
??1?$_Tree@V?$_Tmap_traits@KPAVCRainbowRace@@U?$less@K@std@@V?$allocator@U?$pair@$$CBKPAVCRainbowRace@@@std@@@3@$0A@@std@@@std@@QAE@XZ ENDP ; std::_Tree<std::_Tmap_traits<unsigned long,CRainbowRace *,std::less<unsigned long>,std::allocator<std::pair<unsigned long const ,CRainbowRace *> >,0> >::~_Tree<std::_Tmap_traits<unsigned long,CRainbowRace *,std::less<unsigned long>,std::allocator<std::pair<unsigned long const ,CRainbowRace *> >,0> >
_TEXT	ENDS
; Function compile flags: /Ogtp
; File C:\IAGOS\server\v18\Source\Source\_Common\RainbowRace.cpp
; File C:\IAGOS\server\v18\Source\Source\_Common\LuaBase.h
; File C:\IAGOS\server\v18\Source\Source\_Common\RainbowRace.cpp
; File C:\IAGOS\server\v18\Source\Source\_Common\LuaBase.h
; File C:\IAGOS\server\v18\Source\Source\_Common\RainbowRace.cpp
; File C:\IAGOS\server\v18\Source\Source\_Common\Project.h
; File C:\IAGOS\server\v18\Source\Source\_Common\RainbowRace.cpp
; File C:\IAGOS\server\v18\Source\Source\_Common\Item.h
; File C:\IAGOS\server\v18\Source\Source\_Common\Project.h
; File C:\IAGOS\server\v18\Source\Source\_Common\data.h
; File C:\IAGOS\server\v18\Source\Source\_Common\Project.h
; File C:\IAGOS\server\v18\Source\Source\_Common\RainbowRace.cpp
; File C:\IAGOS\server\v18\Source\Source\_Common\RainbowRace.h
; File C:\IAGOS\server\v18\Source\Source\_Common\RainbowRace.cpp
; File C:\Program Files\Microsoft Visual Studio\2022\Professional\VC\Tools\MSVC\14.44.35207\include\vector
; File C:\IAGOS\server\v18\Source\Source\_Common\RainbowRace.cpp
; File C:\Program Files\Microsoft Visual Studio\2022\Professional\VC\Tools\MSVC\14.44.35207\include\vector
; File C:\IAGOS\server\v18\Source\Source\_Common\RainbowRace.cpp
; File C:\IAGOS\server\v18\Source\Source\_Common\Project.h
; File C:\IAGOS\server\v18\Source\Source\_Common\RainbowRace.cpp
; File C:\IAGOS\server\v18\Source\Source\_Common\Project.h
; File C:\IAGOS\server\v18\Source\Source\_Common\data.h
; File C:\IAGOS\server\v18\Source\Source\_Common\Project.h
; File C:\IAGOS\server\v18\Source\Source\_Common\RainbowRace.cpp
; File C:\IAGOS\server\v18\Source\Source\_Common\Project.h
; File C:\IAGOS\server\v18\Source\Source\_Common\RainbowRace.cpp
; File C:\IAGOS\server\v18\Source\Source\_Common\Project.h
; File C:\IAGOS\server\v18\Source\Source\_Common\data.h
; File C:\IAGOS\server\v18\Source\Source\_Common\Project.h
; File C:\IAGOS\server\v18\Source\Source\_Common\RainbowRace.cpp
; File C:\IAGOS\server\v18\Source\Source\_Common\Project.h
; File C:\IAGOS\server\v18\Source\Source\_Common\data.h
; File C:\IAGOS\server\v18\Source\Source\_Common\Project.h
; File C:\IAGOS\server\v18\Source\Source\_Common\RainbowRace.cpp
; File C:\IAGOS\server\v18\Source\Source\_Common\Project.h
; File C:\IAGOS\server\v18\Source\Source\_Common\RainbowRace.cpp
; File C:\IAGOS\server\v18\Source\Source\_Common\Project.h
; File C:\IAGOS\server\v18\Source\Source\_Common\data.h
; File C:\IAGOS\server\v18\Source\Source\_Common\Project.h
; File C:\IAGOS\server\v18\Source\Source\_Common\RainbowRace.cpp
; File C:\Program Files\Microsoft Visual Studio\2022\Professional\VC\Tools\MSVC\14.44.35207\atlmfc\include\atlsimpstr.h
; File C:\IAGOS\server\v18\Source\Source\_Common\RainbowRace.cpp
; File C:\Program Files\Microsoft Visual Studio\2022\Professional\VC\Tools\MSVC\14.44.35207\atlmfc\include\atlsimpstr.h
; File C:\IAGOS\server\v18\Source\Source\_Common\RainbowRace.cpp
; File C:\IAGOS\server\v18\Source\Source\_Common\LuaBase.h
; File C:\IAGOS\server\v18\Source\Source\_Common\RainbowRace.cpp
; File C:\IAGOS\server\v18\Source\Source\_Common\LuaBase.h
; File C:\IAGOS\server\v18\Source\Source\_Common\RainbowRace.cpp
;	COMDAT ?SetPrize@CRainbowRaceMng@@AAEXXZ
_TEXT	SEGMENT
$T2 = -676						; size = 4
$T3 = -672						; size = 4
tv633 = -668						; size = 4
_this$GSCopy$1$ = -664					; size = 4
tv744 = -660						; size = 8
tv746 = -660						; size = 8
tv753 = -660						; size = 8
tv757 = -660						; size = 8
tv608 = -656						; size = 4
_nCount$1$ = -652					; size = 4
_itemElem$4 = -648					; size = 176
_szText$5 = -472					; size = 255
_szTitle$6 = -216					; size = 100
_szTemp$7 = -116					; size = 100
__$ArrayPad$ = -16					; size = 4
__$EHRec$ = -12						; size = 12
?SetPrize@CRainbowRaceMng@@AAEXXZ PROC			; CRainbowRaceMng::SetPrize, COMDAT
; _this$ = ecx

; 615  : {

  00000	55		 push	 ebp
  00001	8b ec		 mov	 ebp, esp
  00003	6a ff		 push	 -1
  00005	68 00 00 00 00	 push	 __ehhandler$?SetPrize@CRainbowRaceMng@@AAEXXZ
  0000a	64 a1 00 00 00
	00		 mov	 eax, DWORD PTR fs:0
  00010	50		 push	 eax
  00011	81 ec 98 02 00
	00		 sub	 esp, 664		; 00000298H
  00017	a1 00 00 00 00	 mov	 eax, DWORD PTR ___security_cookie
  0001c	33 c5		 xor	 eax, ebp
  0001e	89 45 f0	 mov	 DWORD PTR __$ArrayPad$[ebp], eax
  00021	53		 push	 ebx
  00022	56		 push	 esi
  00023	57		 push	 edi
  00024	50		 push	 eax
  00025	8d 45 f4	 lea	 eax, DWORD PTR __$EHRec$[ebp]
  00028	64 a3 00 00 00
	00		 mov	 DWORD PTR fs:0, eax
  0002e	8b f1		 mov	 esi, ecx
  00030	89 b5 68 fd ff
	ff		 mov	 DWORD PTR _this$GSCopy$1$[ebp], esi

; 616  : 	int nCount = 0;
; 617  : 	if( m_Lua.GetLuaFunction( "GetPrize" ) )

  00036	8d 7e 20	 lea	 edi, DWORD PTR [esi+32]
  00039	c7 85 74 fd ff
	ff 00 00 00 00	 mov	 DWORD PTR _nCount$1$[ebp], 0
  00043	8d 5e 24	 lea	 ebx, DWORD PTR [esi+36]
  00046	89 bd 64 fd ff
	ff		 mov	 DWORD PTR tv633[ebp], edi
  0004c	68 00 00 00 00	 push	 OFFSET ??_C@_08KLHHKOMN@GetPrize@
  00051	8b cf		 mov	 ecx, edi
  00053	89 9d 60 fd ff
	ff		 mov	 DWORD PTR $T3[ebp], ebx
  00059	e8 00 00 00 00	 call	 ?GetLuaFunction@CLuaBase@@QAEHPAD@Z ; CLuaBase::GetLuaFunction
  0005e	85 c0		 test	 eax, eax
  00060	74 21		 je	 SHORT $LN126@SetPrize

; 618  : 	{
; 619  : 		m_Lua.CallLuaFunction( 0, 1 );

  00062	6a 01		 push	 1
  00064	6a 00		 push	 0
  00066	8b cf		 mov	 ecx, edi
  00068	e8 00 00 00 00	 call	 ?CallLuaFunction@CLuaBase@@QAEXHH@Z ; CLuaBase::CallLuaFunction
; File C:\IAGOS\server\v18\Source\Source\_Common\LuaBase.h

; 33   : 	BOOL		IsNil( int nStackPos )						{  return lua_isnil( m_pLuaState, nStackPos );  }

  0006d	6a ff		 push	 -1
  0006f	ff 33		 push	 DWORD PTR [ebx]
  00071	e8 00 00 00 00	 call	 _lua_type
  00076	83 c4 08	 add	 esp, 8
  00079	85 c0		 test	 eax, eax
; File C:\IAGOS\server\v18\Source\Source\_Common\RainbowRace.cpp

; 620  : 		if( m_Lua.IsNil( -1 ) )

  0007b	0f 84 20 04 00
	00		 je	 $LN3@SetPrize
  00081	eb 06		 jmp	 SHORT $LN5@SetPrize
$LN126@SetPrize:
  00083	89 9d 60 fd ff
	ff		 mov	 DWORD PTR $T3[ebp], ebx
$LN5@SetPrize:
; File C:\IAGOS\server\v18\Source\Source\_Common\LuaBase.h

; 40   : 	void		PushNil()									{  lua_pushnil( m_pLuaState );  }

  00089	ff 33		 push	 DWORD PTR [ebx]
  0008b	e8 00 00 00 00	 call	 _lua_pushnil

; 46   : 	int			TableLoop( int nStackPos )					{  return lua_next( m_pLuaState, nStackPos );  }	

  00090	6a fe		 push	 -2			; fffffffeH
  00092	ff 33		 push	 DWORD PTR [ebx]
  00094	e8 00 00 00 00	 call	 _lua_next
  00099	83 c4 0c	 add	 esp, 12			; 0000000cH
; File C:\IAGOS\server\v18\Source\Source\_Common\RainbowRace.cpp

; 628  : 	while( m_Lua.TableLoop( -2 ) )

  0009c	85 c0		 test	 eax, eax
  0009e	0f 84 fd 03 00
	00		 je	 $LN3@SetPrize
$LL2@SetPrize:

; 629  : 	{
; 630  : 		int nPenya = 0;
; 631  : 		CItemElem itemElem;

  000a4	8d 8d 78 fd ff
	ff		 lea	 ecx, DWORD PTR _itemElem$4[ebp]
  000aa	e8 00 00 00 00	 call	 ??0CItemElem@@QAE@XZ	; CItemElem::CItemElem

; 632  : 		
; 633  : 		DWORD dwItemId = static_cast<DWORD>( CScript::GetDefineNum( m_Lua.GetFieldToString( -1, "strItemId" ) ) );

  000af	68 00 00 00 00	 push	 OFFSET ??_C@_09OFFFBNFE@strItemId@
  000b4	6a ff		 push	 -1
  000b6	8b cf		 mov	 ecx, edi
  000b8	c7 45 fc 00 00
	00 00		 mov	 DWORD PTR __$EHRec$[ebp+8], 0
  000bf	e8 00 00 00 00	 call	 ?GetFieldToString@CLuaBase@@QAEPBDHPAD@Z ; CLuaBase::GetFieldToString
  000c4	50		 push	 eax
  000c5	e8 00 00 00 00	 call	 ?GetDefineNum@CScript@@SAHPBD@Z ; CScript::GetDefineNum
  000ca	8b d8		 mov	 ebx, eax
  000cc	83 c4 04	 add	 esp, 4

; 634  : 		if( dwItemId != NULL_ID )

  000cf	83 fb ff	 cmp	 ebx, -1
  000d2	0f 84 8e 00 00
	00		 je	 $LN6@SetPrize

; 635  : 		{
; 636  : 			itemElem.m_dwItemId = dwItemId;
; 637  : 			itemElem.m_nItemNum = static_cast<int>( m_Lua.GetFieldToNumber( -1, "nItemNum" ) );

  000d8	68 00 00 00 00	 push	 OFFSET ??_C@_08GDJLCBND@nItemNum@
  000dd	6a ff		 push	 -1
  000df	8b cf		 mov	 ecx, edi
  000e1	89 9d 84 fd ff
	ff		 mov	 DWORD PTR _itemElem$4[ebp+12], ebx
  000e7	e8 00 00 00 00	 call	 ?GetFieldToNumber@CLuaBase@@QAENHPAD@Z ; CLuaBase::GetFieldToNumber
  000ec	dd 9d 6c fd ff
	ff		 fstp	 QWORD PTR tv757[ebp]
  000f2	f2 0f 2c 85 6c
	fd ff ff	 cvttsd2si eax, QWORD PTR tv757[ebp]

; 638  : 			itemElem.SetFlag( static_cast<BYTE>( m_Lua.GetFieldToNumber( -2, "byFlag" ) ) );

  000fa	68 00 00 00 00	 push	 OFFSET ??_C@_06JHHNJIGB@byFlag@
  000ff	6a fe		 push	 -2			; fffffffeH
  00101	8b cf		 mov	 ecx, edi
  00103	66 89 85 ec fd
	ff ff		 mov	 WORD PTR _itemElem$4[ebp+116], ax
  0010a	e8 00 00 00 00	 call	 ?GetFieldToNumber@CLuaBase@@QAENHPAD@Z ; CLuaBase::GetFieldToNumber
; File C:\IAGOS\server\v18\Source\Source\_Common\Project.h

; 1389 : 	VERIFY_RANGE_ASSERT( nIndex, 0, m_aPropItem.GetSize(), "GetItemProp range_error", NULL );

  0010f	8b 8d 84 fd ff
	ff		 mov	 ecx, DWORD PTR _itemElem$4[ebp+12]
; File C:\IAGOS\server\v18\Source\Source\_Common\RainbowRace.cpp

; 638  : 			itemElem.SetFlag( static_cast<BYTE>( m_Lua.GetFieldToNumber( -2, "byFlag" ) ) );

  00115	dd 9d 6c fd ff
	ff		 fstp	 QWORD PTR tv753[ebp]
  0011b	f2 0f 2c 85 6c
	fd ff ff	 cvttsd2si eax, QWORD PTR tv753[ebp]
; File C:\IAGOS\server\v18\Source\Source\_Common\Item.h

; 256  : 	void	SetFlag( BYTE byFlag )		{	m_byFlag	|= byFlag;		}

  00123	08 85 ee fd ff
	ff		 or	 BYTE PTR _itemElem$4[ebp+118], al
; File C:\IAGOS\server\v18\Source\Source\_Common\Project.h

; 1389 : 	VERIFY_RANGE_ASSERT( nIndex, 0, m_aPropItem.GetSize(), "GetItemProp range_error", NULL );

  00129	a1 40 02 00 00	 mov	 eax, DWORD PTR ?prj@@3VCProject@@A+576
  0012e	85 c9		 test	 ecx, ecx
  00130	78 10		 js	 SHORT $LN29@SetPrize
  00132	3b c8		 cmp	 ecx, eax
  00134	7d 0c		 jge	 SHORT $LN29@SetPrize
; File C:\IAGOS\server\v18\Source\Source\_Common\data.h

; 270  : 	if( dwIndex >= (DWORD)m_nMaxIndex )

  00136	73 20		 jae	 SHORT $LN132@SetPrize

; 271  : 		return NULL;
; 272  : 	return (T*) m_apOffset[ dwIndex ];

  00138	a1 30 02 00 00	 mov	 eax, DWORD PTR ?prj@@3VCProject@@A+560
  0013d	8b 04 88	 mov	 eax, DWORD PTR [eax+ecx*4]
; File C:\IAGOS\server\v18\Source\Source\_Common\Project.h

; 1390 : 	return m_aPropItem.GetAt( nIndex ); 

  00140	eb 18		 jmp	 SHORT $LN24@SetPrize
$LN29@SetPrize:

; 579  : 	LPCTSTR szErr = Error( _T( "%s min:%d, max:%d, index:%d" ), szMsg, nMin, nMax, nIndex ); 

  00142	51		 push	 ecx
  00143	50		 push	 eax
  00144	6a 00		 push	 0
  00146	68 00 00 00 00	 push	 OFFSET ??_C@_0BI@BEIFNGEL@GetItemProp?5range_error@
  0014b	68 00 00 00 00	 push	 OFFSET ??_C@_0BM@HMFGHCP@?$CFs?5min?3?$CFd?0?5max?3?$CFd?0?5index?3?$CFd@
  00150	e8 00 00 00 00	 call	 ?Error@@YAPBDPBDZZ	; Error
  00155	83 c4 14	 add	 esp, 20			; 00000014H
$LN132@SetPrize:
; File C:\IAGOS\server\v18\Source\Source\_Common\RainbowRace.cpp

; 639  : 			itemElem.m_bCharged = itemElem.GetProp()->bCharged;

  00158	33 c0		 xor	 eax, eax
$LN24@SetPrize:
  0015a	8b 80 ec 00 00
	00		 mov	 eax, DWORD PTR [eax+236]
  00160	89 85 1c fe ff
	ff		 mov	 DWORD PTR _itemElem$4[ebp+164], eax
$LN6@SetPrize:
; File C:\IAGOS\server\v18\Source\Source\_Common\RainbowRace.h

; 85   : 	int				GetApplicantNum() { return m_mapRainbowRace.size(); }	// ТќАЁРк РЮПј Мі

  00166	8b 76 10	 mov	 esi, DWORD PTR [esi+16]
; File C:\IAGOS\server\v18\Source\Source\_Common\RainbowRace.cpp

; 641  : 		nPenya = static_cast<int>( m_Lua.GetFieldToNumber( -1, "nPenya" ) * GetApplicantNum() );

  00169	8b cf		 mov	 ecx, edi
  0016b	68 00 00 00 00	 push	 OFFSET ??_C@_06BIHJGOPK@nPenya@
  00170	6a ff		 push	 -1
  00172	e8 00 00 00 00	 call	 ?GetFieldToNumber@CLuaBase@@QAENHPAD@Z ; CLuaBase::GetFieldToNumber
; File C:\Program Files\Microsoft Visual Studio\2022\Professional\VC\Tools\MSVC\14.44.35207\include\vector

; 1915 :         return static_cast<size_type>(_My_data._Mylast - _My_data._Myfirst);

  00177	8b 8d 68 fd ff
	ff		 mov	 ecx, DWORD PTR _this$GSCopy$1$[ebp]
  0017d	66 0f 6e c6	 movd	 xmm0, esi

; 1914 :         auto& _My_data = _Mypair._Myval2;

  00181	33 f6		 xor	 esi, esi
; File C:\IAGOS\server\v18\Source\Source\_Common\RainbowRace.cpp

; 641  : 		nPenya = static_cast<int>( m_Lua.GetFieldToNumber( -1, "nPenya" ) * GetApplicantNum() );

  00183	f3 0f e6 c0	 cvtdq2pd xmm0, xmm0
  00187	f2 0f 11 85 6c
	fd ff ff	 movsd	 QWORD PTR tv746[ebp], xmm0
  0018f	dc 8d 6c fd ff
	ff		 fmul	 QWORD PTR tv746[ebp]
  00195	dd 9d 6c fd ff
	ff		 fstp	 QWORD PTR tv744[ebp]
  0019b	f2 0f 2c 85 6c
	fd ff ff	 cvttsd2si eax, QWORD PTR tv744[ebp]
; File C:\Program Files\Microsoft Visual Studio\2022\Professional\VC\Tools\MSVC\14.44.35207\include\vector

; 1914 :         auto& _My_data = _Mypair._Myval2;

  001a3	85 c0		 test	 eax, eax
  001a5	0f 49 f0	 cmovns	 esi, eax

; 1915 :         return static_cast<size_type>(_My_data._Mylast - _My_data._Myfirst);

  001a8	8b 41 40	 mov	 eax, DWORD PTR [ecx+64]
  001ab	2b 41 3c	 sub	 eax, DWORD PTR [ecx+60]
  001ae	c1 f8 02	 sar	 eax, 2
  001b1	89 b5 70 fd ff
	ff		 mov	 DWORD PTR tv608[ebp], esi
; File C:\IAGOS\server\v18\Source\Source\_Common\RainbowRace.cpp

; 645  : 		if( (int)( m_vecdwRankingId.size() ) <= nCount )	// МјРЇОШПЁ Еч ЛчЖїРЬ ЛѓЧА ЙоРЛ МіКИДй РћРИИщ СпСі.

  001b7	3b 85 74 fd ff
	ff		 cmp	 eax, DWORD PTR _nCount$1$[ebp]
  001bd	0f 8e cc 02 00
	00		 jle	 $LN118@SetPrize

; 648  : 		char szTitle[100] = {0,}, szText[255] = {0,}, szTemp[100] = {0,};

  001c3	6a 64		 push	 100			; 00000064H
  001c5	8d 85 28 ff ff
	ff		 lea	 eax, DWORD PTR _szTitle$6[ebp]
  001cb	6a 00		 push	 0
  001cd	50		 push	 eax
  001ce	e8 00 00 00 00	 call	 _memset
  001d3	68 ff 00 00 00	 push	 255			; 000000ffH
  001d8	8d 85 28 fe ff
	ff		 lea	 eax, DWORD PTR _szText$5[ebp]
  001de	6a 00		 push	 0
  001e0	50		 push	 eax
  001e1	e8 00 00 00 00	 call	 _memset
  001e6	6a 64		 push	 100			; 00000064H
  001e8	8d 45 8c	 lea	 eax, DWORD PTR _szTemp$7[ebp]
  001eb	6a 00		 push	 0
  001ed	50		 push	 eax
  001ee	e8 00 00 00 00	 call	 _memset
; File C:\IAGOS\server\v18\Source\Source\_Common\Project.h

; 1427 : 	VERIFY_RANGE( (int)( dwIndex ), 0, m_colorText.GetSize(), "GetText range_error", "error" );

  001f3	a1 ac 02 00 00	 mov	 eax, DWORD PTR ?prj@@3VCProject@@A+684
; File C:\IAGOS\server\v18\Source\Source\_Common\RainbowRace.cpp

; 648  : 		char szTitle[100] = {0,}, szText[255] = {0,}, szTemp[100] = {0,};

  001f8	83 c4 24	 add	 esp, 36			; 00000024H
; File C:\IAGOS\server\v18\Source\Source\_Common\Project.h

; 1427 : 	VERIFY_RANGE( (int)( dwIndex ), 0, m_colorText.GetSize(), "GetText range_error", "error" );

  001fb	3d ba 0f 00 00	 cmp	 eax, 4026		; 00000fbaH
  00200	7f 21		 jg	 SHORT $LN42@SetPrize

; 579  : 	LPCTSTR szErr = Error( _T( "%s min:%d, max:%d, index:%d" ), szMsg, nMin, nMax, nIndex ); 

  00202	68 ba 0f 00 00	 push	 4026			; 00000fbaH
  00207	50		 push	 eax
  00208	6a 00		 push	 0
  0020a	68 00 00 00 00	 push	 OFFSET ??_C@_0BE@OHDBLHOM@GetText?5range_error@
  0020f	68 00 00 00 00	 push	 OFFSET ??_C@_0BM@HMFGHCP@?$CFs?5min?3?$CFd?0?5max?3?$CFd?0?5index?3?$CFd@
  00214	e8 00 00 00 00	 call	 ?Error@@YAPBDPBDZZ	; Error
  00219	83 c4 14	 add	 esp, 20			; 00000014H

; 1427 : 	VERIFY_RANGE( (int)( dwIndex ), 0, m_colorText.GetSize(), "GetText range_error", "error" );

  0021c	b8 00 00 00 00	 mov	 eax, OFFSET ??_C@_05KKCIMGE@error@
  00221	eb 1b		 jmp	 SHORT $LN41@SetPrize
$LN42@SetPrize:
; File C:\IAGOS\server\v18\Source\Source\_Common\data.h

; 270  : 	if( dwIndex >= (DWORD)m_nMaxIndex )

  00223	76 14		 jbe	 SHORT $LN122@SetPrize

; 271  : 		return NULL;
; 272  : 	return (T*) m_apOffset[ dwIndex ];

  00225	a1 9c 02 00 00	 mov	 eax, DWORD PTR ?prj@@3VCProject@@A+668
  0022a	8b 80 e8 3e 00
	00		 mov	 eax, DWORD PTR [eax+16104]
; File C:\IAGOS\server\v18\Source\Source\_Common\Project.h

; 1428 : 	if( m_colorText.GetAt( dwIndex ) == NULL )

  00230	85 c0		 test	 eax, eax
  00232	74 05		 je	 SHORT $LN122@SetPrize

; 1430 : 	return m_colorText.GetAt( dwIndex )->lpszData; 

  00234	8b 40 04	 mov	 eax, DWORD PTR [eax+4]
  00237	eb 05		 jmp	 SHORT $LN41@SetPrize
$LN122@SetPrize:

; 1429 : 		return "";

  00239	b8 00 00 00 00	 mov	 eax, OFFSET ??_C@_00CNPNBAHC@@
$LN41@SetPrize:
; File C:\IAGOS\server\v18\Source\Source\_Common\RainbowRace.cpp

; 649  : 		sprintf( szTitle, GETTEXT( TID_GAME_RAINBOWRACE_POSTPRIZE_TITLE ) );

  0023e	50		 push	 eax
  0023f	8d 85 28 ff ff
	ff		 lea	 eax, DWORD PTR _szTitle$6[ebp]
  00245	50		 push	 eax
  00246	e8 00 00 00 00	 call	 _sprintf
; File C:\IAGOS\server\v18\Source\Source\_Common\Project.h

; 1427 : 	VERIFY_RANGE( (int)( dwIndex ), 0, m_colorText.GetSize(), "GetText range_error", "error" );

  0024b	a1 ac 02 00 00	 mov	 eax, DWORD PTR ?prj@@3VCProject@@A+684
; File C:\IAGOS\server\v18\Source\Source\_Common\RainbowRace.cpp

; 649  : 		sprintf( szTitle, GETTEXT( TID_GAME_RAINBOWRACE_POSTPRIZE_TITLE ) );

  00250	83 c4 08	 add	 esp, 8
; File C:\IAGOS\server\v18\Source\Source\_Common\Project.h

; 1427 : 	VERIFY_RANGE( (int)( dwIndex ), 0, m_colorText.GetSize(), "GetText range_error", "error" );

  00253	3d bb 0f 00 00	 cmp	 eax, 4027		; 00000fbbH
  00258	7f 21		 jg	 SHORT $LN58@SetPrize

; 579  : 	LPCTSTR szErr = Error( _T( "%s min:%d, max:%d, index:%d" ), szMsg, nMin, nMax, nIndex ); 

  0025a	68 bb 0f 00 00	 push	 4027			; 00000fbbH
  0025f	50		 push	 eax
  00260	6a 00		 push	 0
  00262	68 00 00 00 00	 push	 OFFSET ??_C@_0BE@OHDBLHOM@GetText?5range_error@
  00267	68 00 00 00 00	 push	 OFFSET ??_C@_0BM@HMFGHCP@?$CFs?5min?3?$CFd?0?5max?3?$CFd?0?5index?3?$CFd@
  0026c	e8 00 00 00 00	 call	 ?Error@@YAPBDPBDZZ	; Error
  00271	83 c4 14	 add	 esp, 20			; 00000014H

; 1427 : 	VERIFY_RANGE( (int)( dwIndex ), 0, m_colorText.GetSize(), "GetText range_error", "error" );

  00274	b9 00 00 00 00	 mov	 ecx, OFFSET ??_C@_05KKCIMGE@error@
  00279	eb 1b		 jmp	 SHORT $LN57@SetPrize
$LN58@SetPrize:
; File C:\IAGOS\server\v18\Source\Source\_Common\data.h

; 270  : 	if( dwIndex >= (DWORD)m_nMaxIndex )

  0027b	76 14		 jbe	 SHORT $LN123@SetPrize

; 271  : 		return NULL;
; 272  : 	return (T*) m_apOffset[ dwIndex ];

  0027d	a1 9c 02 00 00	 mov	 eax, DWORD PTR ?prj@@3VCProject@@A+668
  00282	8b 88 ec 3e 00
	00		 mov	 ecx, DWORD PTR [eax+16108]
; File C:\IAGOS\server\v18\Source\Source\_Common\Project.h

; 1428 : 	if( m_colorText.GetAt( dwIndex ) == NULL )

  00288	85 c9		 test	 ecx, ecx
  0028a	74 05		 je	 SHORT $LN123@SetPrize

; 1430 : 	return m_colorText.GetAt( dwIndex )->lpszData; 

  0028c	8b 49 04	 mov	 ecx, DWORD PTR [ecx+4]
  0028f	eb 05		 jmp	 SHORT $LN57@SetPrize
$LN123@SetPrize:

; 1429 : 		return "";

  00291	b9 00 00 00 00	 mov	 ecx, OFFSET ??_C@_00CNPNBAHC@@
$LN57@SetPrize:
; File C:\IAGOS\server\v18\Source\Source\_Common\RainbowRace.cpp

; 650  : 		sprintf( szText, GETTEXT( TID_GAME_RAINBOWRACE_POSTPRIZE_TEXT_RANKING ), nCount+1 );

  00296	8b 85 74 fd ff
	ff		 mov	 eax, DWORD PTR _nCount$1$[ebp]
  0029c	40		 inc	 eax
  0029d	50		 push	 eax
  0029e	51		 push	 ecx
  0029f	8d 85 28 fe ff
	ff		 lea	 eax, DWORD PTR _szText$5[ebp]
  002a5	50		 push	 eax
  002a6	e8 00 00 00 00	 call	 _sprintf
  002ab	83 c4 0c	 add	 esp, 12			; 0000000cH

; 651  : 		if( nPenya > 0 )	// ЦфГФАЁ СіБоЕЧИщ ПьЦэ ГЛПыПЁ ЦфГФ БнОз ЧЅНУ

  002ae	85 f6		 test	 esi, esi
  002b0	0f 8e 87 00 00
	00		 jle	 $LN9@SetPrize
; File C:\IAGOS\server\v18\Source\Source\_Common\Project.h

; 1427 : 	VERIFY_RANGE( (int)( dwIndex ), 0, m_colorText.GetSize(), "GetText range_error", "error" );

  002b6	a1 ac 02 00 00	 mov	 eax, DWORD PTR ?prj@@3VCProject@@A+684
  002bb	3d bc 0f 00 00	 cmp	 eax, 4028		; 00000fbcH
  002c0	7f 21		 jg	 SHORT $LN74@SetPrize

; 579  : 	LPCTSTR szErr = Error( _T( "%s min:%d, max:%d, index:%d" ), szMsg, nMin, nMax, nIndex ); 

  002c2	68 bc 0f 00 00	 push	 4028			; 00000fbcH
  002c7	50		 push	 eax
  002c8	6a 00		 push	 0
  002ca	68 00 00 00 00	 push	 OFFSET ??_C@_0BE@OHDBLHOM@GetText?5range_error@
  002cf	68 00 00 00 00	 push	 OFFSET ??_C@_0BM@HMFGHCP@?$CFs?5min?3?$CFd?0?5max?3?$CFd?0?5index?3?$CFd@
  002d4	e8 00 00 00 00	 call	 ?Error@@YAPBDPBDZZ	; Error
  002d9	83 c4 14	 add	 esp, 20			; 00000014H

; 1427 : 	VERIFY_RANGE( (int)( dwIndex ), 0, m_colorText.GetSize(), "GetText range_error", "error" );

  002dc	b8 00 00 00 00	 mov	 eax, OFFSET ??_C@_05KKCIMGE@error@
  002e1	eb 1b		 jmp	 SHORT $LN73@SetPrize
$LN74@SetPrize:
; File C:\IAGOS\server\v18\Source\Source\_Common\data.h

; 270  : 	if( dwIndex >= (DWORD)m_nMaxIndex )

  002e3	76 14		 jbe	 SHORT $LN124@SetPrize

; 271  : 		return NULL;
; 272  : 	return (T*) m_apOffset[ dwIndex ];

  002e5	a1 9c 02 00 00	 mov	 eax, DWORD PTR ?prj@@3VCProject@@A+668
  002ea	8b 80 f0 3e 00
	00		 mov	 eax, DWORD PTR [eax+16112]
; File C:\IAGOS\server\v18\Source\Source\_Common\Project.h

; 1428 : 	if( m_colorText.GetAt( dwIndex ) == NULL )

  002f0	85 c0		 test	 eax, eax
  002f2	74 05		 je	 SHORT $LN124@SetPrize

; 1430 : 	return m_colorText.GetAt( dwIndex )->lpszData; 

  002f4	8b 40 04	 mov	 eax, DWORD PTR [eax+4]
  002f7	eb 05		 jmp	 SHORT $LN73@SetPrize
$LN124@SetPrize:

; 1429 : 		return "";

  002f9	b8 00 00 00 00	 mov	 eax, OFFSET ??_C@_00CNPNBAHC@@
$LN73@SetPrize:
; File C:\IAGOS\server\v18\Source\Source\_Common\RainbowRace.cpp

; 653  : 			sprintf( szTemp, GETTEXT( TID_GAME_RAINBOWRACE_POSTPRIZE_TEXT_PENYA ), nPenya );

  002fe	56		 push	 esi
  002ff	50		 push	 eax
  00300	8d 45 8c	 lea	 eax, DWORD PTR _szTemp$7[ebp]
  00303	50		 push	 eax
  00304	e8 00 00 00 00	 call	 _sprintf

; 654  : 			strcat( szText, szTemp );

  00309	8d 55 8c	 lea	 edx, DWORD PTR _szTemp$7[ebp]
  0030c	83 c4 0c	 add	 esp, 12			; 0000000cH
  0030f	8b f2		 mov	 esi, edx
$LL127@SetPrize:
  00311	8a 02		 mov	 al, BYTE PTR [edx]
  00313	42		 inc	 edx
  00314	84 c0		 test	 al, al
  00316	75 f9		 jne	 SHORT $LL127@SetPrize
  00318	8d bd 28 fe ff
	ff		 lea	 edi, DWORD PTR _szText$5[ebp]
  0031e	2b d6		 sub	 edx, esi
  00320	4f		 dec	 edi
$LL128@SetPrize:
  00321	8a 47 01	 mov	 al, BYTE PTR [edi+1]
  00324	47		 inc	 edi
  00325	84 c0		 test	 al, al
  00327	75 f8		 jne	 SHORT $LL128@SetPrize
  00329	8b ca		 mov	 ecx, edx
  0032b	c1 e9 02	 shr	 ecx, 2
  0032e	f3 a5		 rep movsd
  00330	8b ca		 mov	 ecx, edx
  00332	83 e1 03	 and	 ecx, 3
  00335	f3 a4		 rep movsb
  00337	8b bd 64 fd ff
	ff		 mov	 edi, DWORD PTR tv633[ebp]
$LN9@SetPrize:

; 655  : 		}
; 656  : 
; 657  : 		if( dwItemId != NULL_ID )	// ОЦРЬХлРЬ СіБоЕЧИщ ПьЦэ ГЛПыПЁ ОЦРЬХлИэАњ АГМі ЧЅНУ

  0033d	83 fb ff	 cmp	 ebx, -1
  00340	0f 84 cc 00 00
	00		 je	 $LN10@SetPrize

; 659  : 			sprintf( szTemp, GETTEXT( TID_GAME_RAINBOWRACE_POSTPRIZE_TEXT_ITEM ), itemElem.GetName(), itemElem.m_nItemNum );

  00346	8d 85 5c fd ff
	ff		 lea	 eax, DWORD PTR $T2[ebp]
  0034c	50		 push	 eax
  0034d	8d 8d 78 fd ff
	ff		 lea	 ecx, DWORD PTR _itemElem$4[ebp]
  00353	e8 00 00 00 00	 call	 ?GetName@CItemElem@@QAE?AV?$CStringT@DV?$StrTraitMFC@DV?$ChTraitsCRT@D@ATL@@@@@ATL@@XZ ; CItemElem::GetName
  00358	8b f0		 mov	 esi, eax
; File C:\IAGOS\server\v18\Source\Source\_Common\Project.h

; 1427 : 	VERIFY_RANGE( (int)( dwIndex ), 0, m_colorText.GetSize(), "GetText range_error", "error" );

  0035a	8b 0d ac 02 00
	00		 mov	 ecx, DWORD PTR ?prj@@3VCProject@@A+684
; File C:\IAGOS\server\v18\Source\Source\_Common\RainbowRace.cpp

; 659  : 			sprintf( szTemp, GETTEXT( TID_GAME_RAINBOWRACE_POSTPRIZE_TEXT_ITEM ), itemElem.GetName(), itemElem.m_nItemNum );

  00360	c6 45 fc 01	 mov	 BYTE PTR __$EHRec$[ebp+8], 1
; File C:\IAGOS\server\v18\Source\Source\_Common\Project.h

; 1427 : 	VERIFY_RANGE( (int)( dwIndex ), 0, m_colorText.GetSize(), "GetText range_error", "error" );

  00364	81 f9 bd 0f 00
	00		 cmp	 ecx, 4029		; 00000fbdH
  0036a	7f 21		 jg	 SHORT $LN90@SetPrize

; 579  : 	LPCTSTR szErr = Error( _T( "%s min:%d, max:%d, index:%d" ), szMsg, nMin, nMax, nIndex ); 

  0036c	68 bd 0f 00 00	 push	 4029			; 00000fbdH
  00371	51		 push	 ecx
  00372	6a 00		 push	 0
  00374	68 00 00 00 00	 push	 OFFSET ??_C@_0BE@OHDBLHOM@GetText?5range_error@
  00379	68 00 00 00 00	 push	 OFFSET ??_C@_0BM@HMFGHCP@?$CFs?5min?3?$CFd?0?5max?3?$CFd?0?5index?3?$CFd@
  0037e	e8 00 00 00 00	 call	 ?Error@@YAPBDPBDZZ	; Error
  00383	83 c4 14	 add	 esp, 20			; 00000014H

; 1427 : 	VERIFY_RANGE( (int)( dwIndex ), 0, m_colorText.GetSize(), "GetText range_error", "error" );

  00386	b9 00 00 00 00	 mov	 ecx, OFFSET ??_C@_05KKCIMGE@error@
  0038b	eb 1b		 jmp	 SHORT $LN89@SetPrize
$LN90@SetPrize:
; File C:\IAGOS\server\v18\Source\Source\_Common\data.h

; 270  : 	if( dwIndex >= (DWORD)m_nMaxIndex )

  0038d	76 14		 jbe	 SHORT $LN125@SetPrize

; 271  : 		return NULL;
; 272  : 	return (T*) m_apOffset[ dwIndex ];

  0038f	a1 9c 02 00 00	 mov	 eax, DWORD PTR ?prj@@3VCProject@@A+668
  00394	8b 88 f4 3e 00
	00		 mov	 ecx, DWORD PTR [eax+16116]
; File C:\IAGOS\server\v18\Source\Source\_Common\Project.h

; 1428 : 	if( m_colorText.GetAt( dwIndex ) == NULL )

  0039a	85 c9		 test	 ecx, ecx
  0039c	74 05		 je	 SHORT $LN125@SetPrize

; 1430 : 	return m_colorText.GetAt( dwIndex )->lpszData; 

  0039e	8b 49 04	 mov	 ecx, DWORD PTR [ecx+4]
  003a1	eb 05		 jmp	 SHORT $LN89@SetPrize
$LN125@SetPrize:

; 1429 : 		return "";

  003a3	b9 00 00 00 00	 mov	 ecx, OFFSET ??_C@_00CNPNBAHC@@
$LN89@SetPrize:
; File C:\IAGOS\server\v18\Source\Source\_Common\RainbowRace.cpp

; 659  : 			sprintf( szTemp, GETTEXT( TID_GAME_RAINBOWRACE_POSTPRIZE_TEXT_ITEM ), itemElem.GetName(), itemElem.m_nItemNum );

  003a8	0f bf 85 ec fd
	ff ff		 movsx	 eax, WORD PTR _itemElem$4[ebp+116]
  003af	50		 push	 eax
  003b0	ff 36		 push	 DWORD PTR [esi]
  003b2	8d 45 8c	 lea	 eax, DWORD PTR _szTemp$7[ebp]
  003b5	51		 push	 ecx
  003b6	50		 push	 eax
  003b7	e8 00 00 00 00	 call	 _sprintf
; File C:\Program Files\Microsoft Visual Studio\2022\Professional\VC\Tools\MSVC\14.44.35207\atlmfc\include\atlsimpstr.h

; 804  : 		return( reinterpret_cast< CStringData* >( m_pszData )-1 );

  003bc	8b 95 5c fd ff
	ff		 mov	 edx, DWORD PTR $T2[ebp]
; File C:\IAGOS\server\v18\Source\Source\_Common\RainbowRace.cpp

; 659  : 			sprintf( szTemp, GETTEXT( TID_GAME_RAINBOWRACE_POSTPRIZE_TEXT_ITEM ), itemElem.GetName(), itemElem.m_nItemNum );

  003c2	83 c4 10	 add	 esp, 16			; 00000010H
  003c5	c6 45 fc 00	 mov	 BYTE PTR __$EHRec$[ebp+8], 0
; File C:\Program Files\Microsoft Visual Studio\2022\Professional\VC\Tools\MSVC\14.44.35207\atlmfc\include\atlsimpstr.h

; 804  : 		return( reinterpret_cast< CStringData* >( m_pszData )-1 );

  003c9	83 c2 f0	 add	 edx, -16		; fffffff0H

; 92   : 		if( _InterlockedDecrement( &nRefs ) <= 0 )

  003cc	83 c8 ff	 or	 eax, -1
  003cf	f0 0f c1 42 0c	 lock	  xadd	 DWORD PTR [edx+12], eax
  003d4	48		 dec	 eax
  003d5	85 c0		 test	 eax, eax
  003d7	7f 08		 jg	 SHORT $LN112@SetPrize

; 93   : 		{
; 94   : 			pStringMgr->Free( this );

  003d9	8b 0a		 mov	 ecx, DWORD PTR [edx]
  003db	52		 push	 edx
  003dc	8b 01		 mov	 eax, DWORD PTR [ecx]
  003de	ff 50 04	 call	 DWORD PTR [eax+4]
$LN112@SetPrize:
; File C:\IAGOS\server\v18\Source\Source\_Common\RainbowRace.cpp

; 660  : 			strcat( szText, szTemp );

  003e1	8d 55 8c	 lea	 edx, DWORD PTR _szTemp$7[ebp]
  003e4	8b f2		 mov	 esi, edx
$LL129@SetPrize:
  003e6	8a 02		 mov	 al, BYTE PTR [edx]
  003e8	42		 inc	 edx
  003e9	84 c0		 test	 al, al
  003eb	75 f9		 jne	 SHORT $LL129@SetPrize
  003ed	8d bd 28 fe ff
	ff		 lea	 edi, DWORD PTR _szText$5[ebp]
  003f3	2b d6		 sub	 edx, esi
  003f5	4f		 dec	 edi
$LL130@SetPrize:
  003f6	8a 47 01	 mov	 al, BYTE PTR [edi+1]
  003f9	47		 inc	 edi
  003fa	84 c0		 test	 al, al
  003fc	75 f8		 jne	 SHORT $LL130@SetPrize
  003fe	8b ca		 mov	 ecx, edx
  00400	c1 e9 02	 shr	 ecx, 2
  00403	f3 a5		 rep movsd
  00405	8b ca		 mov	 ecx, edx
  00407	83 e1 03	 and	 ecx, 3
  0040a	f3 a4		 rep movsb
  0040c	8b bd 64 fd ff
	ff		 mov	 edi, DWORD PTR tv633[ebp]
$LN10@SetPrize:

; 661  : 		}
; 662  : 
; 663  : 		g_dpDBClient.SendQueryPostMail( m_vecdwRankingId[nCount], 0, itemElem, nPenya, szTitle, szText );

  00412	8b b5 74 fd ff
	ff		 mov	 esi, DWORD PTR _nCount$1$[ebp]
  00418	8d 85 28 fe ff
	ff		 lea	 eax, DWORD PTR _szText$5[ebp]
  0041e	50		 push	 eax
  0041f	8d 85 28 ff ff
	ff		 lea	 eax, DWORD PTR _szTitle$6[ebp]
  00425	b9 00 00 00 00	 mov	 ecx, OFFSET ?g_dpDBClient@@3VCDPDatabaseClient@@A ; g_dpDBClient
  0042a	50		 push	 eax
  0042b	ff b5 70 fd ff
	ff		 push	 DWORD PTR tv608[ebp]
  00431	8d 85 78 fd ff
	ff		 lea	 eax, DWORD PTR _itemElem$4[ebp]
  00437	50		 push	 eax
  00438	8b 85 68 fd ff
	ff		 mov	 eax, DWORD PTR _this$GSCopy$1$[ebp]
  0043e	6a 00		 push	 0
  00440	8b 40 3c	 mov	 eax, DWORD PTR [eax+60]
  00443	ff 34 b0	 push	 DWORD PTR [eax+esi*4]
  00446	e8 00 00 00 00	 call	 ?SendQueryPostMail@CDPDatabaseClient@@QAEXKKAAVCItemElem@@HPAD1@Z ; CDPDatabaseClient::SendQueryPostMail

; 664  : 		nCount++;

  0044b	46		 inc	 esi

; 665  : 		m_Lua.Pop( 1 );

  0044c	8b cf		 mov	 ecx, edi
  0044e	6a 01		 push	 1
  00450	89 b5 74 fd ff
	ff		 mov	 DWORD PTR _nCount$1$[ebp], esi
  00456	e8 00 00 00 00	 call	 ?Pop@CLuaBase@@QAEXH@Z	; CLuaBase::Pop

; 666  : 	}

  0045b	8d 8d 78 fd ff
	ff		 lea	 ecx, DWORD PTR _itemElem$4[ebp]
  00461	c7 45 fc ff ff
	ff ff		 mov	 DWORD PTR __$EHRec$[ebp+8], -1
  00468	e8 00 00 00 00	 call	 ??1CItemElem@@UAE@XZ	; CItemElem::~CItemElem
; File C:\IAGOS\server\v18\Source\Source\_Common\LuaBase.h

; 46   : 	int			TableLoop( int nStackPos )					{  return lua_next( m_pLuaState, nStackPos );  }	

  0046d	8b 85 60 fd ff
	ff		 mov	 eax, DWORD PTR $T3[ebp]
  00473	6a fe		 push	 -2			; fffffffeH
  00475	ff 30		 push	 DWORD PTR [eax]
  00477	e8 00 00 00 00	 call	 _lua_next
; File C:\IAGOS\server\v18\Source\Source\_Common\RainbowRace.cpp

; 628  : 	while( m_Lua.TableLoop( -2 ) )

  0047c	8b b5 68 fd ff
	ff		 mov	 esi, DWORD PTR _this$GSCopy$1$[ebp]
; File C:\IAGOS\server\v18\Source\Source\_Common\LuaBase.h

; 46   : 	int			TableLoop( int nStackPos )					{  return lua_next( m_pLuaState, nStackPos );  }	

  00482	83 c4 08	 add	 esp, 8
; File C:\IAGOS\server\v18\Source\Source\_Common\RainbowRace.cpp

; 628  : 	while( m_Lua.TableLoop( -2 ) )

  00485	85 c0		 test	 eax, eax
  00487	0f 85 17 fc ff
	ff		 jne	 $LL2@SetPrize

; 645  : 		if( (int)( m_vecdwRankingId.size() ) <= nCount )	// МјРЇОШПЁ Еч ЛчЖїРЬ ЛѓЧА ЙоРЛ МіКИДй РћРИИщ СпСі.

  0048d	eb 12		 jmp	 SHORT $LN3@SetPrize
$LN118@SetPrize:

; 646  : 			break;

  0048f	8d 8d 78 fd ff
	ff		 lea	 ecx, DWORD PTR _itemElem$4[ebp]
  00495	c7 45 fc ff ff
	ff ff		 mov	 DWORD PTR __$EHRec$[ebp+8], -1
  0049c	e8 00 00 00 00	 call	 ??1CItemElem@@UAE@XZ	; CItemElem::~CItemElem
$LN3@SetPrize:

; 667  : 
; 668  : 	m_Lua.Pop( 0 );
; 669  : }

  004a1	6a 00		 push	 0
  004a3	8b cf		 mov	 ecx, edi
  004a5	e8 00 00 00 00	 call	 ?Pop@CLuaBase@@QAEXH@Z	; CLuaBase::Pop
  004aa	8b 4d f4	 mov	 ecx, DWORD PTR __$EHRec$[ebp]
  004ad	64 89 0d 00 00
	00 00		 mov	 DWORD PTR fs:0, ecx
  004b4	59		 pop	 ecx
  004b5	5f		 pop	 edi
  004b6	5e		 pop	 esi
  004b7	5b		 pop	 ebx
  004b8	8b 4d f0	 mov	 ecx, DWORD PTR __$ArrayPad$[ebp]
  004bb	33 cd		 xor	 ecx, ebp
  004bd	e8 00 00 00 00	 call	 @__security_check_cookie@4
  004c2	8b e5		 mov	 esp, ebp
  004c4	5d		 pop	 ebp
  004c5	c3		 ret	 0
_TEXT	ENDS
;	COMDAT text$x
text$x	SEGMENT
__unwindfunclet$?SetPrize@CRainbowRaceMng@@AAEXXZ$0:
  00000	8d 8d 78 fd ff
	ff		 lea	 ecx, DWORD PTR _itemElem$4[ebp]
  00006	e9 00 00 00 00	 jmp	 ??1CItemElem@@UAE@XZ	; CItemElem::~CItemElem
__unwindfunclet$?SetPrize@CRainbowRaceMng@@AAEXXZ$1:
  0000b	8d 8d 5c fd ff
	ff		 lea	 ecx, DWORD PTR $T2[ebp]
  00011	e9 00 00 00 00	 jmp	 ??1?$CStringT@DV?$StrTraitMFC@DV?$ChTraitsCRT@D@ATL@@@@@ATL@@QAE@XZ ; ATL::CStringT<char,StrTraitMFC<char,ATL::ChTraitsCRT<char> > >::~CStringT<char,StrTraitMFC<char,ATL::ChTraitsCRT<char> > >
  00016	cc		 int	 3
  00017	cc		 int	 3
  00018	cc		 int	 3
  00019	cc		 int	 3
  0001a	cc		 int	 3
__ehhandler$?SetPrize@CRainbowRaceMng@@AAEXXZ:
  0001b	90		 npad	 1
  0001c	90		 npad	 1
  0001d	8b 54 24 08	 mov	 edx, DWORD PTR [esp+8]
  00021	8d 42 0c	 lea	 eax, DWORD PTR [edx+12]
  00024	8b 8a 58 fd ff
	ff		 mov	 ecx, DWORD PTR [edx-680]
  0002a	33 c8		 xor	 ecx, eax
  0002c	e8 00 00 00 00	 call	 @__security_check_cookie@4
  00031	8b 4a fc	 mov	 ecx, DWORD PTR [edx-4]
  00034	33 c8		 xor	 ecx, eax
  00036	e8 00 00 00 00	 call	 @__security_check_cookie@4
  0003b	b8 00 00 00 00	 mov	 eax, OFFSET __ehfuncinfo$?SetPrize@CRainbowRaceMng@@AAEXXZ
  00040	e9 00 00 00 00	 jmp	 ___CxxFrameHandler3
text$x	ENDS
?SetPrize@CRainbowRaceMng@@AAEXXZ ENDP			; CRainbowRaceMng::SetPrize
; Function compile flags: /Ogtp
; File C:\IAGOS\server\v18\Source\Source\_Common\RainbowRace.cpp
; File C:\Program Files\Microsoft Visual Studio\2022\Professional\VC\Tools\MSVC\14.44.35207\include\vector
; File C:\IAGOS\server\v18\Source\Source\_Common\RainbowRace.cpp
; File C:\IAGOS\server\v18\Source\Source\_Common\Obj.h
; File C:\IAGOS\server\v18\Source\Source\_Common\RainbowRace.cpp
; File C:\Program Files\Microsoft Visual Studio\2022\Professional\VC\Tools\MSVC\14.44.35207\include\vector
; File C:\IAGOS\server\v18\Source\Source\_Common\RainbowRace.cpp
; File C:\Program Files\Microsoft Visual Studio\2022\Professional\VC\Tools\MSVC\14.44.35207\include\vector
; File C:\IAGOS\server\v18\Source\Source\_Common\RainbowRace.cpp
; File C:\Program Files\Microsoft Visual Studio\2022\Professional\VC\Tools\MSVC\14.44.35207\include\vector
; File C:\IAGOS\server\v18\Source\Source\_Common\RainbowRace.cpp
;	COMDAT ?RemoveNPC@CRainbowRaceMng@@AAEXXZ
_TEXT	SEGMENT
?RemoveNPC@CRainbowRaceMng@@AAEXXZ PROC			; CRainbowRaceMng::RemoveNPC, COMDAT
; _this$ = ecx

; 567  : {

  00000	53		 push	 ebx
  00001	8b d9		 mov	 ebx, ecx
  00003	56		 push	 esi
  00004	57		 push	 edi

; 568  : 	for( DWORD i=0; i<m_vecNPCId.size(); i++ )

  00005	33 ff		 xor	 edi, edi
; File C:\Program Files\Microsoft Visual Studio\2022\Professional\VC\Tools\MSVC\14.44.35207\include\vector

; 1915 :         return static_cast<size_type>(_My_data._Mylast - _My_data._Myfirst);

  00007	8b 73 34	 mov	 esi, DWORD PTR [ebx+52]
  0000a	8b c6		 mov	 eax, esi
  0000c	8b 53 30	 mov	 edx, DWORD PTR [ebx+48]
  0000f	2b c2		 sub	 eax, edx
  00011	c1 f8 02	 sar	 eax, 2
; File C:\IAGOS\server\v18\Source\Source\_Common\RainbowRace.cpp

; 568  : 	for( DWORD i=0; i<m_vecNPCId.size(); i++ )

  00014	85 c0		 test	 eax, eax
  00016	74 66		 je	 SHORT $LN3@RemoveNPC
  00018	0f 1f 84 00 00
	00 00 00	 npad	 8
$LL4@RemoveNPC:

; 569  : 	{
; 570  : 		CMover* pMover = prj.GetMover( m_vecNPCId[i] );

  00020	ff 34 ba	 push	 DWORD PTR [edx+edi*4]
  00023	b9 00 00 00 00	 mov	 ecx, OFFSET ?prj@@3VCProject@@A ; prj
  00028	e8 00 00 00 00	 call	 ?GetMover@CProject@@QAEPAVCMover@@K@Z ; CProject::GetMover
  0002d	8b f0		 mov	 esi, eax
; File C:\IAGOS\server\v18\Source\Source\_Common\Obj.h

; 327  : 	return pObj && ( pObj->IsDelete() == FALSE ); 

  0002f	85 f6		 test	 esi, esi
  00031	74 39		 je	 SHORT $LN2@RemoveNPC

; 180  : 	BOOL			IsDelete()	{ return (m_dwFlags & OBJ_FLAG_DELETE);  }

  00033	f6 46 04 01	 test	 BYTE PTR [esi+4], 1

; 327  : 	return pObj && ( pObj->IsDelete() == FALSE ); 

  00037	75 33		 jne	 SHORT $LN2@RemoveNPC
; File C:\IAGOS\server\v18\Source\Source\_Common\RainbowRace.cpp

; 573  : 			g_UserMng.AddCreateSfxObj( pMover, XI_SKILL_MER_ONE_SPECIALHIT02 );

  00039	6a 00		 push	 0
  0003b	83 ec 0c	 sub	 esp, 12			; 0000000cH
  0003e	b9 00 00 00 00	 mov	 ecx, OFFSET ?g_UserMng@@3VCUserMng@@A ; g_UserMng
  00043	c7 44 24 08 00
	00 00 00	 mov	 DWORD PTR [esp+8], 0
  0004b	c7 44 24 04 00
	00 00 00	 mov	 DWORD PTR [esp+4], 0
  00053	c7 04 24 00 00
	00 00		 mov	 DWORD PTR [esp], 0
  0005a	68 e5 00 00 00	 push	 229			; 000000e5H
  0005f	56		 push	 esi
  00060	e8 00 00 00 00	 call	 ?AddCreateSfxObj@CUserMng@@QAEXPAVCCtrl@@KMMMH@Z ; CUserMng::AddCreateSfxObj

; 574  : 			pMover->Delete();

  00065	8b ce		 mov	 ecx, esi
  00067	e8 00 00 00 00	 call	 ?Delete@CObj@@QAEXXZ	; CObj::Delete
$LN2@RemoveNPC:
; File C:\Program Files\Microsoft Visual Studio\2022\Professional\VC\Tools\MSVC\14.44.35207\include\vector

; 1915 :         return static_cast<size_type>(_My_data._Mylast - _My_data._Myfirst);

  0006c	8b 73 34	 mov	 esi, DWORD PTR [ebx+52]
; File C:\IAGOS\server\v18\Source\Source\_Common\RainbowRace.cpp

; 568  : 	for( DWORD i=0; i<m_vecNPCId.size(); i++ )

  0006f	47		 inc	 edi
; File C:\Program Files\Microsoft Visual Studio\2022\Professional\VC\Tools\MSVC\14.44.35207\include\vector

; 1915 :         return static_cast<size_type>(_My_data._Mylast - _My_data._Myfirst);

  00070	8b 53 30	 mov	 edx, DWORD PTR [ebx+48]
  00073	8b c6		 mov	 eax, esi
  00075	2b c2		 sub	 eax, edx
  00077	c1 f8 02	 sar	 eax, 2
; File C:\IAGOS\server\v18\Source\Source\_Common\RainbowRace.cpp

; 568  : 	for( DWORD i=0; i<m_vecNPCId.size(); i++ )

  0007a	3b f8		 cmp	 edi, eax
  0007c	72 a2		 jb	 SHORT $LL4@RemoveNPC
$LN3@RemoveNPC:
; File C:\Program Files\Microsoft Visual Studio\2022\Professional\VC\Tools\MSVC\14.44.35207\include\vector

; 1812 :         if (_Myfirst == _Mylast) { // already empty, nothing to do

  0007e	3b d6		 cmp	 edx, esi
  00080	74 03		 je	 SHORT $LN19@RemoveNPC

; 1813 :             // This is an optimization for debug mode: we can avoid taking the debug lock to invalidate iterators.
; 1814 :             // Note that when clearing an empty vector, this will preserve past-the-end iterators, which is allowed by
; 1815 :             // N4950 [sequence.reqmts]/54 "a.clear() [...] may invalidate the past-the-end iterator".
; 1816 :             return;
; 1817 :         }
; 1818 : 
; 1819 :         _My_data._Orphan_all();
; 1820 :         _Destroy_range(_Myfirst, _Mylast, _Getal());
; 1821 :         _ASAN_VECTOR_MODIFY(static_cast<difference_type>(_Myfirst - _Mylast)); // negative when destroying elements
; 1822 :         _Mylast = _Myfirst;

  00082	89 53 34	 mov	 DWORD PTR [ebx+52], edx
$LN19@RemoveNPC:
  00085	5f		 pop	 edi
; File C:\IAGOS\server\v18\Source\Source\_Common\RainbowRace.cpp

; 579  : }

  00086	5e		 pop	 esi
  00087	5b		 pop	 ebx
  00088	c3		 ret	 0
?RemoveNPC@CRainbowRaceMng@@AAEXXZ ENDP			; CRainbowRaceMng::RemoveNPC
_TEXT	ENDS
; Function compile flags: /Ogtp
; File C:\IAGOS\server\v18\Source\Source\_Common\RainbowRace.cpp
; File C:\IAGOS\server\v18\Source\Source\_Common\LuaBase.h
; File C:\IAGOS\server\v18\Source\Source\_Common\RainbowRace.cpp
; File C:\Program Files\Microsoft Visual Studio\2022\Professional\VC\Tools\MSVC\14.44.35207\include\xstring
; File C:\Program Files\Microsoft Visual Studio\2022\Professional\VC\Tools\MSVC\14.44.35207\include\__msvc_string_view.hpp
; File C:\IAGOS\server\v18\Source\Source\_Common\RainbowRace.cpp
; File C:\Program Files\Microsoft Visual Studio\2022\Professional\VC\Tools\MSVC\14.44.35207\include\xstring
; File C:\Program Files\Microsoft Visual Studio\2022\Professional\VC\Tools\MSVC\14.44.35207\include\__msvc_string_view.hpp
; File C:\Program Files\Microsoft Visual Studio\2022\Professional\VC\Tools\MSVC\14.44.35207\include\xstring
; File C:\Program Files\Microsoft Visual Studio\2022\Professional\VC\Tools\MSVC\14.44.35207\include\__msvc_string_view.hpp
; File C:\Program Files\Microsoft Visual Studio\2022\Professional\VC\Tools\MSVC\14.44.35207\include\xstring
; File C:\Program Files\Microsoft Visual Studio\2022\Professional\VC\Tools\MSVC\14.44.35207\include\__msvc_string_view.hpp
; File C:\Program Files\Microsoft Visual Studio\2022\Professional\VC\Tools\MSVC\14.44.35207\include\xstring
; File C:\Program Files\Microsoft Visual Studio\2022\Professional\VC\Tools\MSVC\14.44.35207\include\__msvc_string_view.hpp
; File C:\Program Files\Microsoft Visual Studio\2022\Professional\VC\Tools\MSVC\14.44.35207\include\xstring
; File C:\Program Files\Microsoft Visual Studio\2022\Professional\VC\Tools\MSVC\14.44.35207\include\xmemory
; File C:\Program Files\Microsoft Visual Studio\2022\Professional\VC\Tools\MSVC\14.44.35207\include\xstring
; File C:\Program Files\Microsoft Visual Studio\2022\Professional\VC\Tools\MSVC\14.44.35207\include\xmemory
; File C:\Program Files\Microsoft Visual Studio\2022\Professional\VC\Tools\MSVC\14.44.35207\include\xstring
; File C:\Program Files\Microsoft Visual Studio\2022\Professional\VC\Tools\MSVC\14.44.35207\include\__msvc_string_view.hpp
; File C:\Program Files\Microsoft Visual Studio\2022\Professional\VC\Tools\MSVC\14.44.35207\include\xstring
; File C:\Program Files\Microsoft Visual Studio\2022\Professional\VC\Tools\MSVC\14.44.35207\include\__msvc_string_view.hpp
; File C:\Program Files\Microsoft Visual Studio\2022\Professional\VC\Tools\MSVC\14.44.35207\include\xstring
; File C:\Program Files\Microsoft Visual Studio\2022\Professional\VC\Tools\MSVC\14.44.35207\include\__msvc_string_view.hpp
; File C:\Program Files\Microsoft Visual Studio\2022\Professional\VC\Tools\MSVC\14.44.35207\include\xstring
; File C:\IAGOS\server\v18\Source\Source\_Common\RainbowRace.cpp
; File C:\IAGOS\server\v18\Source\Source\DX_SDK\d3dx9math.inl
; File C:\IAGOS\server\v18\Source\Source\_Common\RainbowRace.cpp
; File C:\IAGOS\server\v18\Source\Source\DX_SDK\d3dx9math.inl
; File C:\IAGOS\server\v18\Source\Source\_Common\RainbowRace.cpp
; File C:\IAGOS\server\v18\Source\Source\DX_SDK\d3dx9math.inl
; File C:\IAGOS\server\v18\Source\Source\_Common\RainbowRace.cpp
; File C:\IAGOS\server\v18\Source\Source\DX_SDK\d3dx9math.inl
; File C:\IAGOS\server\v18\Source\Source\_Common\RainbowRace.cpp
; File C:\Program Files\Microsoft Visual Studio\2022\Professional\VC\Tools\MSVC\14.44.35207\include\xstring
; File C:\IAGOS\server\v18\Source\Source\_Common\RainbowRace.cpp
; File C:\Program Files\Microsoft Visual Studio\2022\Professional\VC\Tools\MSVC\14.44.35207\include\xstring
; File C:\IAGOS\server\v18\Source\Source\_Common\RainbowRace.cpp
; File C:\Program Files\Microsoft Visual Studio\2022\Professional\VC\Tools\MSVC\14.44.35207\include\vector
; File C:\Program Files\Microsoft Visual Studio\2022\Professional\VC\Tools\MSVC\14.44.35207\include\xmemory
; File C:\Program Files\Microsoft Visual Studio\2022\Professional\VC\Tools\MSVC\14.44.35207\include\vector
; File C:\Program Files\Microsoft Visual Studio\2022\Professional\VC\Tools\MSVC\14.44.35207\include\xmemory
; File C:\Program Files\Microsoft Visual Studio\2022\Professional\VC\Tools\MSVC\14.44.35207\include\vector
; File C:\Program Files\Microsoft Visual Studio\2022\Professional\VC\Tools\MSVC\14.44.35207\include\xmemory
; File C:\Program Files\Microsoft Visual Studio\2022\Professional\VC\Tools\MSVC\14.44.35207\include\vector
; File C:\Program Files\Microsoft Visual Studio\2022\Professional\VC\Tools\MSVC\14.44.35207\include\xmemory
; File C:\Program Files\Microsoft Visual Studio\2022\Professional\VC\Tools\MSVC\14.44.35207\include\vector
; File C:\Program Files\Microsoft Visual Studio\2022\Professional\VC\Tools\MSVC\14.44.35207\include\xmemory
; File C:\Program Files\Microsoft Visual Studio\2022\Professional\VC\Tools\MSVC\14.44.35207\include\vector
; File C:\Program Files\Microsoft Visual Studio\2022\Professional\VC\Tools\MSVC\14.44.35207\include\xmemory
; File C:\Program Files\Microsoft Visual Studio\2022\Professional\VC\Tools\MSVC\14.44.35207\include\vector
; File C:\IAGOS\server\v18\Source\Source\_Common\RainbowRace.cpp
; File C:\Program Files\Microsoft Visual Studio\2022\Professional\VC\Tools\MSVC\14.44.35207\include\xstring
; File C:\IAGOS\server\v18\Source\Source\_Common\RainbowRace.cpp
; File C:\Program Files\Microsoft Visual Studio\2022\Professional\VC\Tools\MSVC\14.44.35207\include\xstring
; File C:\Program Files\Microsoft Visual Studio\2022\Professional\VC\Tools\MSVC\14.44.35207\include\xmemory
; File C:\Program Files\Microsoft Visual Studio\2022\Professional\VC\Tools\MSVC\14.44.35207\include\xstring
; File C:\Program Files\Microsoft Visual Studio\2022\Professional\VC\Tools\MSVC\14.44.35207\include\xmemory
; File C:\IAGOS\server\v18\Source\Source\_Common\LuaBase.h
; File C:\IAGOS\server\v18\Source\Source\_Common\RainbowRace.cpp
; File C:\Program Files\Microsoft Visual Studio\2022\Professional\VC\Tools\MSVC\14.44.35207\include\xstring
; File C:\IAGOS\server\v18\Source\Source\_Common\RainbowRace.cpp
; File C:\Program Files\Microsoft Visual Studio\2022\Professional\VC\Tools\MSVC\14.44.35207\include\xstring
; File C:\IAGOS\server\v18\Source\Source\_Common\RainbowRace.cpp
; File C:\Program Files\Microsoft Visual Studio\2022\Professional\VC\Tools\MSVC\14.44.35207\include\xstring
; File C:\IAGOS\server\v18\Source\Source\_Common\RainbowRace.cpp
; File C:\Program Files\Microsoft Visual Studio\2022\Professional\VC\Tools\MSVC\14.44.35207\include\xstring
; File C:\Program Files\Microsoft Visual Studio\2022\Professional\VC\Tools\MSVC\14.44.35207\include\xmemory
; File C:\Program Files\Microsoft Visual Studio\2022\Professional\VC\Tools\MSVC\14.44.35207\include\xstring
; File C:\Program Files\Microsoft Visual Studio\2022\Professional\VC\Tools\MSVC\14.44.35207\include\xmemory
; File C:\IAGOS\server\v18\Source\Source\_Common\RainbowRace.cpp
; File C:\Program Files\Microsoft Visual Studio\2022\Professional\VC\Tools\MSVC\14.44.35207\include\xstring
; File C:\Program Files\Microsoft Visual Studio\2022\Professional\VC\Tools\MSVC\14.44.35207\include\xmemory
; File C:\Program Files\Microsoft Visual Studio\2022\Professional\VC\Tools\MSVC\14.44.35207\include\vector
; File C:\Program Files\Microsoft Visual Studio\2022\Professional\VC\Tools\MSVC\14.44.35207\include\xmemory
; File C:\IAGOS\server\v18\Source\Source\_Common\RainbowRace.cpp
;	COMDAT ?SetNPC@CRainbowRaceMng@@AAEXXZ
_TEXT	SEGMENT
__Newsize$1$ = -80					; size = 4
_this$GSCopy$1$ = -76					; size = 4
tv1266 = -72						; size = 4
_dwNPCID$1$ = -68					; size = 4
$T2 = -68						; size = 4
_y$3 = -64						; size = 4
__Oldsize$1$ = -64					; size = 4
_x$4 = -60						; size = 4
__Ptr$1$ = -60						; size = 4
__Whereptr$1$ = -60					; size = 4
_z$5 = -56						; size = 4
$T6 = -56						; size = 4
$T7 = -56						; size = 4
_vPos$8 = -52						; size = 12
_strCharKey$9 = -40					; size = 24
__$ArrayPad$ = -16					; size = 4
__$EHRec$ = -12						; size = 12
?SetNPC@CRainbowRaceMng@@AAEXXZ PROC			; CRainbowRaceMng::SetNPC, COMDAT
; _this$ = ecx

; 529  : {

  00000	55		 push	 ebp
  00001	8b ec		 mov	 ebp, esp
  00003	6a ff		 push	 -1
  00005	68 00 00 00 00	 push	 __ehhandler$?SetNPC@CRainbowRaceMng@@AAEXXZ
  0000a	64 a1 00 00 00
	00		 mov	 eax, DWORD PTR fs:0
  00010	50		 push	 eax
  00011	83 ec 44	 sub	 esp, 68			; 00000044H
  00014	a1 00 00 00 00	 mov	 eax, DWORD PTR ___security_cookie
  00019	33 c5		 xor	 eax, ebp
  0001b	89 45 f0	 mov	 DWORD PTR __$ArrayPad$[ebp], eax
  0001e	56		 push	 esi
  0001f	57		 push	 edi
  00020	50		 push	 eax
  00021	8d 45 f4	 lea	 eax, DWORD PTR __$EHRec$[ebp]
  00024	64 a3 00 00 00
	00		 mov	 DWORD PTR fs:0, eax
  0002a	8b f1		 mov	 esi, ecx
  0002c	89 75 b4	 mov	 DWORD PTR _this$GSCopy$1$[ebp], esi
; File C:\IAGOS\server\v18\Source\Source\_Common\LuaBase.h

; 47   : 	void		GetGloabal( char* szName )					{  lua_getglobal( m_pLuaState, szName );  }

  0002f	68 00 00 00 00	 push	 OFFSET ??_C@_04PJKMFDJF@tNPC@
  00034	ff 76 24	 push	 DWORD PTR [esi+36]
  00037	e8 00 00 00 00	 call	 _lua_getglobal

; 40   : 	void		PushNil()									{  lua_pushnil( m_pLuaState );  }

  0003c	ff 76 24	 push	 DWORD PTR [esi+36]
  0003f	e8 00 00 00 00	 call	 _lua_pushnil

; 46   : 	int			TableLoop( int nStackPos )					{  return lua_next( m_pLuaState, nStackPos );  }	

  00044	6a fe		 push	 -2			; fffffffeH
  00046	ff 76 24	 push	 DWORD PTR [esi+36]
  00049	8d 7e 20	 lea	 edi, DWORD PTR [esi+32]
  0004c	89 7d b8	 mov	 DWORD PTR tv1266[ebp], edi
  0004f	e8 00 00 00 00	 call	 _lua_next
  00054	83 c4 14	 add	 esp, 20			; 00000014H
; File C:\IAGOS\server\v18\Source\Source\_Common\RainbowRace.cpp

; 533  : 	while( m_Lua.TableLoop( -2 ) )

  00057	85 c0		 test	 eax, eax
  00059	0f 84 21 03 00
	00		 je	 $LN247@SetNPC
  0005f	90		 npad	 1
$LL2@SetNPC:

; 534  : 	{
; 535  : 		DWORD dwNPCID = CScript::GetDefineNum( m_Lua.GetFieldToString( -1, "strNPCId" ) );

  00060	68 00 00 00 00	 push	 OFFSET ??_C@_08HJAPABMB@strNPCId@
  00065	6a ff		 push	 -1
  00067	8b cf		 mov	 ecx, edi
  00069	e8 00 00 00 00	 call	 ?GetFieldToString@CLuaBase@@QAEPBDHPAD@Z ; CLuaBase::GetFieldToString
  0006e	50		 push	 eax
  0006f	e8 00 00 00 00	 call	 ?GetDefineNum@CScript@@SAHPBD@Z ; CScript::GetDefineNum
  00074	83 c4 04	 add	 esp, 4
  00077	89 45 bc	 mov	 DWORD PTR _dwNPCID$1$[ebp], eax

; 536  : 		string strCharKey = m_Lua.GetFieldToString( -1, "strCharKey" );

  0007a	8b cf		 mov	 ecx, edi
  0007c	68 00 00 00 00	 push	 OFFSET ??_C@_0L@HBEKAIME@strCharKey@
  00081	6a ff		 push	 -1
  00083	e8 00 00 00 00	 call	 ?GetFieldToString@CLuaBase@@QAEPBDHPAD@Z ; CLuaBase::GetFieldToString
  00088	8b f8		 mov	 edi, eax
; File C:\Program Files\Microsoft Visual Studio\2022\Professional\VC\Tools\MSVC\14.44.35207\include\xstring

; 517  :     size_type _Mysize = 0; // current length of string (size)

  0008a	c7 45 e8 00 00
	00 00		 mov	 DWORD PTR _strCharKey$9[ebp+16], 0
; File C:\Program Files\Microsoft Visual Studio\2022\Professional\VC\Tools\MSVC\14.44.35207\include\__msvc_string_view.hpp

; 459  :         return _CSTD strlen(reinterpret_cast<const char*>(_First));

  00091	8b f7		 mov	 esi, edi
; File C:\IAGOS\server\v18\Source\Source\_Common\RainbowRace.cpp

; 536  : 		string strCharKey = m_Lua.GetFieldToString( -1, "strCharKey" );

  00093	89 7d c4	 mov	 DWORD PTR __Ptr$1$[ebp], edi
  00096	0f 57 c0	 xorps	 xmm0, xmm0
; File C:\Program Files\Microsoft Visual Studio\2022\Professional\VC\Tools\MSVC\14.44.35207\include\xstring

; 518  :     size_type _Myres  = 0; // current storage reserved for string (capacity)

  00099	c7 45 ec 00 00
	00 00		 mov	 DWORD PTR _strCharKey$9[ebp+20], 0

; 493  :         _CONSTEXPR20 _Bxty() noexcept : _Buf() {} // user-provided, for fancy pointers

  000a0	0f 11 45 d8	 movups	 XMMWORD PTR _strCharKey$9[ebp], xmm0
; File C:\Program Files\Microsoft Visual Studio\2022\Professional\VC\Tools\MSVC\14.44.35207\include\__msvc_string_view.hpp

; 459  :         return _CSTD strlen(reinterpret_cast<const char*>(_First));

  000a4	8d 4e 01	 lea	 ecx, DWORD PTR [esi+1]
$LL252@SetNPC:
  000a7	8a 06		 mov	 al, BYTE PTR [esi]
  000a9	46		 inc	 esi
  000aa	84 c0		 test	 al, al
  000ac	75 f9		 jne	 SHORT $LL252@SetNPC
  000ae	2b f1		 sub	 esi, ecx
; File C:\Program Files\Microsoft Visual Studio\2022\Professional\VC\Tools\MSVC\14.44.35207\include\xstring

; 881  :         if (_Count > max_size()) {

  000b0	81 fe ff ff ff
	7f		 cmp	 esi, 2147483647		; 7fffffffH
  000b6	0f 87 42 03 00
	00		 ja	 $LN238@SetNPC

; 883  :         }
; 884  : 
; 885  :         auto& _Al       = _Getal();
; 886  :         auto&& _Alproxy = _GET_PROXY_ALLOCATOR(_Alty, _Al);
; 887  :         _Container_proxy_ptr<_Alty> _Proxy(_Alproxy, _My_data);
; 888  : 
; 889  :         if (_Count <= _Small_string_capacity) {

  000bc	83 fe 0f	 cmp	 esi, 15			; 0000000fH
  000bf	77 1c		 ja	 SHORT $LN34@SetNPC
; File C:\Program Files\Microsoft Visual Studio\2022\Professional\VC\Tools\MSVC\14.44.35207\include\__msvc_string_view.hpp

; 121  :         _CSTD memcpy(_First1, _First2, _Count * sizeof(_Elem));

  000c1	56		 push	 esi
  000c2	8d 45 d8	 lea	 eax, DWORD PTR _strCharKey$9[ebp]
; File C:\Program Files\Microsoft Visual Studio\2022\Professional\VC\Tools\MSVC\14.44.35207\include\xstring

; 890  :             _My_data._Mysize = _Count;

  000c5	89 75 e8	 mov	 DWORD PTR _strCharKey$9[ebp+16], esi
; File C:\Program Files\Microsoft Visual Studio\2022\Professional\VC\Tools\MSVC\14.44.35207\include\__msvc_string_view.hpp

; 121  :         _CSTD memcpy(_First1, _First2, _Count * sizeof(_Elem));

  000c8	57		 push	 edi
  000c9	50		 push	 eax
; File C:\Program Files\Microsoft Visual Studio\2022\Professional\VC\Tools\MSVC\14.44.35207\include\xstring

; 891  :             _My_data._Myres  = _Small_string_capacity;

  000ca	c7 45 ec 0f 00
	00 00		 mov	 DWORD PTR _strCharKey$9[ebp+20], 15 ; 0000000fH
; File C:\Program Files\Microsoft Visual Studio\2022\Professional\VC\Tools\MSVC\14.44.35207\include\__msvc_string_view.hpp

; 121  :         _CSTD memcpy(_First1, _First2, _Count * sizeof(_Elem));

  000d1	e8 00 00 00 00	 call	 _memcpy
; File C:\Program Files\Microsoft Visual Studio\2022\Professional\VC\Tools\MSVC\14.44.35207\include\xstring

; 898  :                 _Traits::assign(_My_data._Bx._Buf[_Count], _Elem());

  000d6	c6 44 35 d8 00	 mov	 BYTE PTR _strCharKey$9[ebp+esi], 0

; 899  :             } else { // _Strat == _Construct_strategy::_From_string
; 900  : #ifdef _INSERT_STRING_ANNOTATION
; 901  :                 _Traits::copy(_My_data._Bx._Buf, _Arg, _Count + 1);
; 902  : #else // ^^^ _INSERT_STRING_ANNOTATION / !_INSERT_STRING_ANNOTATION vvv
; 903  :                 _Traits::copy(_My_data._Bx._Buf, _Arg, _BUF_SIZE);
; 904  : #endif // ^^^ !_INSERT_STRING_ANNOTATION ^^^
; 905  :             }
; 906  : 
; 907  :             _Proxy._Release();
; 908  :             return;

  000db	eb 66		 jmp	 SHORT $LN255@SetNPC
$LN34@SetNPC:

; 2978 :         const size_type _Masked = _Requested | _Alloc_mask;

  000dd	8b fe		 mov	 edi, esi
  000df	83 cf 0f	 or	 edi, 15			; 0000000fH
  000e2	81 ff ff ff ff
	7f		 cmp	 edi, 2147483647		; 7fffffffH

; 2979 :         if (_Masked > _Max) { // the mask overflows, settle for max_size()

  000e8	76 12		 jbe	 SHORT $LN40@SetNPC

; 2980 :             return _Max;

  000ea	b8 00 00 00 80	 mov	 eax, -2147483648	; 80000000H
  000ef	bf ff ff ff 7f	 mov	 edi, 2147483647		; 7fffffffH
; File C:\Program Files\Microsoft Visual Studio\2022\Professional\VC\Tools\MSVC\14.44.35207\include\xmemory

; 253  :             return _Allocate_manually_vector_aligned<_Traits>(_Bytes);

  000f4	50		 push	 eax
  000f5	e8 00 00 00 00	 call	 ??$_Allocate_manually_vector_aligned@U_Default_allocate_traits@std@@@std@@YAPAXI@Z ; std::_Allocate_manually_vector_aligned<std::_Default_allocate_traits>
  000fa	eb 27		 jmp	 SHORT $LN257@SetNPC
$LN40@SetNPC:
; File C:\Program Files\Microsoft Visual Studio\2022\Professional\VC\Tools\MSVC\14.44.35207\include\xstring

; 2987 :         return (_STD max)(_Masked, _Old + _Old / 2);

  000fc	83 ff 16	 cmp	 edi, 22			; 00000016H
  000ff	b8 16 00 00 00	 mov	 eax, 22			; 00000016H
  00104	0f 42 f8	 cmovb	 edi, eax

; 825  :         ++_Capacity; // Take null terminator into consideration

  00107	8d 47 01	 lea	 eax, DWORD PTR [edi+1]
; File C:\Program Files\Microsoft Visual Studio\2022\Professional\VC\Tools\MSVC\14.44.35207\include\xmemory

; 227  :     if (_Bytes == 0) {

  0010a	85 c0		 test	 eax, eax
  0010c	74 18		 je	 SHORT $LN256@SetNPC
$LN54@SetNPC:

; 229  :     }
; 230  : 
; 231  : #if _HAS_CXX20 // TRANSITION, GH-1532
; 232  :     if (_STD is_constant_evaluated()) {
; 233  :         return _Traits::_Allocate(_Bytes);
; 234  :     }
; 235  : #endif // _HAS_CXX20
; 236  : 
; 237  : #ifdef __cpp_aligned_new
; 238  :     if constexpr (_Align > __STDCPP_DEFAULT_NEW_ALIGNMENT__) {
; 239  :         size_t _Passed_align = _Align;
; 240  : #if defined(_M_IX86) || defined(_M_X64)
; 241  :         if (_Bytes >= _Big_allocation_threshold) {
; 242  :             // boost the alignment of big allocations to help autovectorization
; 243  :             _Passed_align = (_STD max)(_Align, _Big_allocation_alignment);
; 244  :         }
; 245  : #endif // defined(_M_IX86) || defined(_M_X64)
; 246  :         return _Traits::_Allocate_aligned(_Bytes, _Passed_align);
; 247  :     } else
; 248  : #endif // defined(__cpp_aligned_new)
; 249  :     {
; 250  : #if defined(_M_IX86) || defined(_M_X64)
; 251  :         if (_Bytes >= _Big_allocation_threshold) {

  0010e	3d 00 10 00 00	 cmp	 eax, 4096		; 00001000H
  00113	72 08		 jb	 SHORT $LN55@SetNPC

; 253  :             return _Allocate_manually_vector_aligned<_Traits>(_Bytes);

  00115	50		 push	 eax
  00116	e8 00 00 00 00	 call	 ??$_Allocate_manually_vector_aligned@U_Default_allocate_traits@std@@@std@@YAPAXI@Z ; std::_Allocate_manually_vector_aligned<std::_Default_allocate_traits>
  0011b	eb 06		 jmp	 SHORT $LN257@SetNPC
$LN55@SetNPC:

; 136  :         return ::operator new(_Bytes);

  0011d	50		 push	 eax
  0011e	e8 00 00 00 00	 call	 ??2@YAPAXI@Z		; operator new
$LN257@SetNPC:
; File C:\Program Files\Microsoft Visual Studio\2022\Professional\VC\Tools\MSVC\14.44.35207\include\xstring

; 913  :         _Construct_in_place(_My_data._Bx._Ptr, _New_ptr);

  00123	83 c4 04	 add	 esp, 4
$LN256@SetNPC:
; File C:\Program Files\Microsoft Visual Studio\2022\Professional\VC\Tools\MSVC\14.44.35207\include\__msvc_string_view.hpp

; 121  :         _CSTD memcpy(_First1, _First2, _Count * sizeof(_Elem));

  00126	56		 push	 esi
  00127	ff 75 c4	 push	 DWORD PTR __Ptr$1$[ebp]
; File C:\Program Files\Microsoft Visual Studio\2022\Professional\VC\Tools\MSVC\14.44.35207\include\xstring

; 913  :         _Construct_in_place(_My_data._Bx._Ptr, _New_ptr);

  0012a	89 45 c8	 mov	 DWORD PTR $T6[ebp], eax
; File C:\Program Files\Microsoft Visual Studio\2022\Professional\VC\Tools\MSVC\14.44.35207\include\__msvc_string_view.hpp

; 121  :         _CSTD memcpy(_First1, _First2, _Count * sizeof(_Elem));

  0012d	50		 push	 eax
; File C:\Program Files\Microsoft Visual Studio\2022\Professional\VC\Tools\MSVC\14.44.35207\include\xstring

; 913  :         _Construct_in_place(_My_data._Bx._Ptr, _New_ptr);

  0012e	89 45 d8	 mov	 DWORD PTR _strCharKey$9[ebp], eax

; 914  : 
; 915  :         _My_data._Mysize = _Count;

  00131	89 75 e8	 mov	 DWORD PTR _strCharKey$9[ebp+16], esi

; 916  :         _My_data._Myres  = _New_capacity;

  00134	89 7d ec	 mov	 DWORD PTR _strCharKey$9[ebp+20], edi
; File C:\Program Files\Microsoft Visual Studio\2022\Professional\VC\Tools\MSVC\14.44.35207\include\__msvc_string_view.hpp

; 121  :         _CSTD memcpy(_First1, _First2, _Count * sizeof(_Elem));

  00137	e8 00 00 00 00	 call	 _memcpy
; File C:\Program Files\Microsoft Visual Studio\2022\Professional\VC\Tools\MSVC\14.44.35207\include\xstring

; 922  :             _Traits::assign(_Unfancy(_New_ptr)[_Count], _Elem());

  0013c	8b 45 c8	 mov	 eax, DWORD PTR $T6[ebp]
  0013f	c6 04 30 00	 mov	 BYTE PTR [eax+esi], 0
$LN255@SetNPC:
; File C:\IAGOS\server\v18\Source\Source\_Common\RainbowRace.cpp

; 536  : 		string strCharKey = m_Lua.GetFieldToString( -1, "strCharKey" );

  00143	83 c4 0c	 add	 esp, 12			; 0000000cH

; 537  : 		float x = static_cast<float>( m_Lua.GetFieldToNumber( -1, "xPos" ) );

  00146	8b 7d b8	 mov	 edi, DWORD PTR tv1266[ebp]
  00149	8b cf		 mov	 ecx, edi
  0014b	68 00 00 00 00	 push	 OFFSET ??_C@_04HMOLAKGG@xPos@
  00150	6a ff		 push	 -1
  00152	c7 45 fc 00 00
	00 00		 mov	 DWORD PTR __$EHRec$[ebp+8], 0
  00159	e8 00 00 00 00	 call	 ?GetFieldToNumber@CLuaBase@@QAENHPAD@Z ; CLuaBase::GetFieldToNumber

; 538  : 		float y = static_cast<float>( m_Lua.GetFieldToNumber( -1, "yPos" ) );

  0015e	68 00 00 00 00	 push	 OFFSET ??_C@_04EBILCDNG@yPos@
  00163	d9 5d c4	 fstp	 DWORD PTR _x$4[ebp]
  00166	6a ff		 push	 -1
  00168	8b cf		 mov	 ecx, edi
  0016a	e8 00 00 00 00	 call	 ?GetFieldToNumber@CLuaBase@@QAENHPAD@Z ; CLuaBase::GetFieldToNumber

; 539  : 		float z = static_cast<float>( m_Lua.GetFieldToNumber( -1, "zPos" ) );

  0016f	68 00 00 00 00	 push	 OFFSET ??_C@_04GCLFJAG@zPos@
  00174	d9 5d c0	 fstp	 DWORD PTR _y$3[ebp]
  00177	6a ff		 push	 -1
  00179	8b cf		 mov	 ecx, edi
  0017b	e8 00 00 00 00	 call	 ?GetFieldToNumber@CLuaBase@@QAENHPAD@Z ; CLuaBase::GetFieldToNumber
; File C:\IAGOS\server\v18\Source\Source\DX_SDK\d3dx9math.inl

; 300  :     x = fx;

  00180	f3 0f 10 45 c4	 movss	 xmm0, DWORD PTR _x$4[ebp]
; File C:\IAGOS\server\v18\Source\Source\_Common\RainbowRace.cpp

; 542  : 		CMover* pMover	= (CMover*)CreateObj( D3DDEVICE, OT_MOVER, dwNPCID );

  00185	6a 01		 push	 1
  00187	ff 75 bc	 push	 DWORD PTR _dwNPCID$1$[ebp]
; File C:\IAGOS\server\v18\Source\Source\DX_SDK\d3dx9math.inl

; 300  :     x = fx;

  0018a	f3 0f 11 45 cc	 movss	 DWORD PTR _vPos$8[ebp], xmm0

; 301  :     y = fy;

  0018f	f3 0f 10 45 c0	 movss	 xmm0, DWORD PTR _y$3[ebp]
; File C:\IAGOS\server\v18\Source\Source\_Common\RainbowRace.cpp

; 539  : 		float z = static_cast<float>( m_Lua.GetFieldToNumber( -1, "zPos" ) );

  00194	d9 5d c8	 fstp	 DWORD PTR _z$5[ebp]
; File C:\IAGOS\server\v18\Source\Source\DX_SDK\d3dx9math.inl

; 301  :     y = fy;

  00197	f3 0f 11 45 d0	 movss	 DWORD PTR _vPos$8[ebp+4], xmm0

; 302  :     z = fz;

  0019c	f3 0f 10 45 c8	 movss	 xmm0, DWORD PTR _z$5[ebp]
; File C:\IAGOS\server\v18\Source\Source\_Common\RainbowRace.cpp

; 542  : 		CMover* pMover	= (CMover*)CreateObj( D3DDEVICE, OT_MOVER, dwNPCID );

  001a1	6a 05		 push	 5
  001a3	6a 00		 push	 0
; File C:\IAGOS\server\v18\Source\Source\DX_SDK\d3dx9math.inl

; 302  :     z = fz;

  001a5	f3 0f 11 45 d4	 movss	 DWORD PTR _vPos$8[ebp+8], xmm0
; File C:\IAGOS\server\v18\Source\Source\_Common\RainbowRace.cpp

; 542  : 		CMover* pMover	= (CMover*)CreateObj( D3DDEVICE, OT_MOVER, dwNPCID );

  001aa	e8 00 00 00 00	 call	 ?CreateObj@@YAPAVCObj@@PAUIDirect3DDevice9@@KKH@Z ; CreateObj
  001af	8b f0		 mov	 esi, eax
  001b1	83 c4 10	 add	 esp, 16			; 00000010H

; 543  : 		if( !pMover )

  001b4	85 f6		 test	 esi, esi
  001b6	0f 84 e8 01 00
	00		 je	 $LN239@SetNPC
; File C:\Program Files\Microsoft Visual Studio\2022\Professional\VC\Tools\MSVC\14.44.35207\include\xstring

; 453  :         return _Myres > _Small_string_capacity;

  001bc	83 7d ec 0f	 cmp	 DWORD PTR _strCharKey$9[ebp+20], 15 ; 0000000fH

; 444  :         const value_type* _Result = _Bx._Buf;

  001c0	8d 4d d8	 lea	 ecx, DWORD PTR _strCharKey$9[ebp]
; File C:\IAGOS\server\v18\Source\Source\_Common\RainbowRace.cpp

; 549  : 		lstrcpy( pMover->m_szCharacterKey, strCharKey.c_str() );

  001c3	8d 86 44 06 00
	00		 lea	 eax, DWORD PTR [esi+1604]
; File C:\Program Files\Microsoft Visual Studio\2022\Professional\VC\Tools\MSVC\14.44.35207\include\xstring

; 445  :         if (_Large_mode_engaged()) {

  001c9	0f 47 4d d8	 cmova	 ecx, DWORD PTR _strCharKey$9[ebp]
; File C:\IAGOS\server\v18\Source\Source\_Common\RainbowRace.cpp

; 549  : 		lstrcpy( pMover->m_szCharacterKey, strCharKey.c_str() );

  001cd	51		 push	 ecx
  001ce	50		 push	 eax
  001cf	ff 15 00 00 00
	00		 call	 DWORD PTR __imp__lstrcpyA@8

; 550  : 		pMover->InitNPCProperty();

  001d5	8b ce		 mov	 ecx, esi
  001d7	e8 00 00 00 00	 call	 ?InitNPCProperty@CMover@@QAEXXZ ; CMover::InitNPCProperty

; 551  : 		pMover->InitCharacter( pMover->GetCharacter() );

  001dc	8b ce		 mov	 ecx, esi
  001de	e8 00 00 00 00	 call	 ?GetCharacter@CMover@@QAEPAUtagCHARACTER@@XZ ; CMover::GetCharacter
  001e3	50		 push	 eax
  001e4	8b ce		 mov	 ecx, esi
  001e6	e8 00 00 00 00	 call	 ?InitCharacter@CMover@@QAEXPAUtagCHARACTER@@@Z ; CMover::InitCharacter

; 552  : 		pMover->SetPos( vPos );

  001eb	8d 45 cc	 lea	 eax, DWORD PTR _vPos$8[ebp]
  001ee	8b ce		 mov	 ecx, esi
  001f0	50		 push	 eax
  001f1	e8 00 00 00 00	 call	 ?SetPos@CObj@@QAEXABUD3DXVECTOR3@@@Z ; CObj::SetPos

; 553  : 		pMover->InitMotion( MTI_STAND );

  001f6	8b 06		 mov	 eax, DWORD PTR [esi]
  001f8	8b ce		 mov	 ecx, esi
  001fa	6a 00		 push	 0
  001fc	ff 50 08	 call	 DWORD PTR [eax+8]

; 554  : 		pMover->UpdateLocalMatrix();

  001ff	8b ce		 mov	 ecx, esi
  00201	e8 00 00 00 00	 call	 ?UpdateLocalMatrix@CObj@@QAEXXZ ; CObj::UpdateLocalMatrix

; 555  : 		pMover->AddItToGlobalId();

  00206	8b 06		 mov	 eax, DWORD PTR [esi]
  00208	8b ce		 mov	 ecx, esi
  0020a	ff 50 3c	 call	 DWORD PTR [eax+60]

; 556  : 		CWorld* pWorld	= g_WorldMng.GetWorld( WI_WORLD_MADRIGAL );

  0020d	6a 01		 push	 1
  0020f	b9 00 00 00 00	 mov	 ecx, OFFSET ?g_WorldMng@@3VCWorldMng@@A ; g_WorldMng
  00214	e8 00 00 00 00	 call	 ?GetWorld@CWorldMng@@QAEPAVCWorld@@K@Z ; CWorldMng::GetWorld

; 557  : 		if( pWorld )

  00219	85 c0		 test	 eax, eax
  0021b	74 0c		 je	 SHORT $LN5@SetNPC

; 558  : 			pWorld->ADDOBJ( pMover, FALSE, nDefaultLayer );

  0021d	6a 00		 push	 0
  0021f	6a 00		 push	 0
  00221	56		 push	 esi
  00222	8b c8		 mov	 ecx, eax
  00224	e8 00 00 00 00	 call	 ?AddObj@CWorld@@QAEHPAVCObj@@HH@Z ; CWorld::AddObj
$LN5@SetNPC:

; 559  : 
; 560  : 		m_vecNPCId.push_back( pMover->GetId() );

  00229	8b 96 bc 01 00
	00		 mov	 edx, DWORD PTR [esi+444]
  0022f	8b 75 b4	 mov	 esi, DWORD PTR _this$GSCopy$1$[ebp]
  00232	89 55 bc	 mov	 DWORD PTR $T2[ebp], edx
; File C:\Program Files\Microsoft Visual Studio\2022\Professional\VC\Tools\MSVC\14.44.35207\include\vector

; 844  :         if (_Mylast != _My_data._Myend) {

  00235	8b 46 34	 mov	 eax, DWORD PTR [esi+52]
  00238	8b 4e 38	 mov	 ecx, DWORD PTR [esi+56]
  0023b	89 45 c4	 mov	 DWORD PTR __Whereptr$1$[ebp], eax
  0023e	3b c1		 cmp	 eax, ecx
  00240	74 0b		 je	 SHORT $LN120@SetNPC

; 860  :             _STD _Construct_in_place(*_Mylast, _STD forward<_Valty>(_Val)...);

  00242	89 10		 mov	 DWORD PTR [eax], edx

; 861  :         } else {
; 862  :             _ASAN_VECTOR_EXTEND_GUARD(static_cast<size_type>(_Mylast - _My_data._Myfirst) + 1);
; 863  :             _Alty_traits::construct(_Getal(), _Unfancy(_Mylast), _STD forward<_Valty>(_Val)...);
; 864  :             _ASAN_VECTOR_RELEASE_GUARD;
; 865  :         }
; 866  : 
; 867  :         _Orphan_range(_Mylast, _Mylast);
; 868  :         _Ty& _Result = *_Mylast;
; 869  :         ++_Mylast;

  00244	83 46 34 04	 add	 DWORD PTR [esi+52], 4

; 845  :             return _Emplace_back_with_unused_capacity(_STD forward<_Valty>(_Val)...);

  00248	e9 d8 00 00 00	 jmp	 $LN195@SetNPC
$LN120@SetNPC:

; 884  :         const auto _Whereoff = static_cast<size_type>(_Whereptr - _Myfirst);

  0024d	8b 56 30	 mov	 edx, DWORD PTR [esi+48]
  00250	2b c2		 sub	 eax, edx
  00252	c1 f8 02	 sar	 eax, 2
  00255	89 45 c0	 mov	 DWORD PTR __Oldsize$1$[ebp], eax

; 885  :         const auto _Oldsize  = static_cast<size_type>(_Mylast - _Myfirst);
; 886  : 
; 887  :         if (_Oldsize == max_size()) {

  00258	3d ff ff ff 3f	 cmp	 eax, 1073741823		; 3fffffffH
  0025d	0f 84 a5 01 00
	00		 je	 $LN240@SetNPC

; 1924 :         return static_cast<size_type>(_My_data._Myend - _My_data._Myfirst);

  00263	2b ca		 sub	 ecx, edx

; 891  :         const size_type _Newsize = _Oldsize + 1;

  00265	8d 78 01	 lea	 edi, DWORD PTR [eax+1]

; 1924 :         return static_cast<size_type>(_My_data._Myend - _My_data._Myfirst);

  00268	c1 f9 02	 sar	 ecx, 2

; 2011 :         if (_Oldcapacity > _Max - _Oldcapacity / 2) {

  0026b	b8 ff ff ff 3f	 mov	 eax, 1073741823		; 3fffffffH
  00270	8b d1		 mov	 edx, ecx

; 891  :         const size_type _Newsize = _Oldsize + 1;

  00272	89 7d b0	 mov	 DWORD PTR __Newsize$1$[ebp], edi

; 2011 :         if (_Oldcapacity > _Max - _Oldcapacity / 2) {

  00275	d1 ea		 shr	 edx, 1
  00277	2b c2		 sub	 eax, edx
  00279	3b c8		 cmp	 ecx, eax
  0027b	76 14		 jbe	 SHORT $LN131@SetNPC

; 2012 :             return _Max; // geometric growth would overflow

  0027d	b8 fc ff ff ff	 mov	 eax, -4			; fffffffcH
  00282	c7 45 c8 ff ff
	ff 3f		 mov	 DWORD PTR $T7[ebp], 1073741823 ; 3fffffffH
; File C:\Program Files\Microsoft Visual Studio\2022\Professional\VC\Tools\MSVC\14.44.35207\include\xmemory

; 253  :             return _Allocate_manually_vector_aligned<_Traits>(_Bytes);

  00289	50		 push	 eax
  0028a	e8 00 00 00 00	 call	 ??$_Allocate_manually_vector_aligned@U_Default_allocate_traits@std@@@std@@YAPAXI@Z ; std::_Allocate_manually_vector_aligned<std::_Default_allocate_traits>
  0028f	eb 40		 jmp	 SHORT $LN258@SetNPC
$LN131@SetNPC:
; File C:\Program Files\Microsoft Visual Studio\2022\Professional\VC\Tools\MSVC\14.44.35207\include\vector

; 2015 :         const size_type _Geometric = _Oldcapacity + _Oldcapacity / 2;

  00291	8d 04 0a	 lea	 eax, DWORD PTR [edx+ecx]
; File C:\Program Files\Microsoft Visual Studio\2022\Professional\VC\Tools\MSVC\14.44.35207\include\xmemory

; 117  :         if (_Count > _Max_possible) {

  00294	8b cf		 mov	 ecx, edi
  00296	3b c7		 cmp	 eax, edi
  00298	0f 43 c8	 cmovae	 ecx, eax
  0029b	89 4d c8	 mov	 DWORD PTR $T7[ebp], ecx
  0029e	81 f9 ff ff ff
	3f		 cmp	 ecx, 1073741823		; 3fffffffH
  002a4	0f 87 59 01 00
	00		 ja	 $LN241@SetNPC

; 119  :         }
; 120  :     }
; 121  : 
; 122  :     return _Count * _Ty_size;

  002aa	8d 04 8d 00 00
	00 00		 lea	 eax, DWORD PTR [ecx*4]

; 227  :     if (_Bytes == 0) {

  002b1	85 c0		 test	 eax, eax
  002b3	75 07		 jne	 SHORT $LN146@SetNPC

; 228  :         return nullptr;

  002b5	33 ff		 xor	 edi, edi
  002b7	89 4d c8	 mov	 DWORD PTR $T7[ebp], ecx
  002ba	eb 1a		 jmp	 SHORT $LN145@SetNPC
$LN146@SetNPC:

; 229  :     }
; 230  : 
; 231  : #if _HAS_CXX20 // TRANSITION, GH-1532
; 232  :     if (_STD is_constant_evaluated()) {
; 233  :         return _Traits::_Allocate(_Bytes);
; 234  :     }
; 235  : #endif // _HAS_CXX20
; 236  : 
; 237  : #ifdef __cpp_aligned_new
; 238  :     if constexpr (_Align > __STDCPP_DEFAULT_NEW_ALIGNMENT__) {
; 239  :         size_t _Passed_align = _Align;
; 240  : #if defined(_M_IX86) || defined(_M_X64)
; 241  :         if (_Bytes >= _Big_allocation_threshold) {
; 242  :             // boost the alignment of big allocations to help autovectorization
; 243  :             _Passed_align = (_STD max)(_Align, _Big_allocation_alignment);
; 244  :         }
; 245  : #endif // defined(_M_IX86) || defined(_M_X64)
; 246  :         return _Traits::_Allocate_aligned(_Bytes, _Passed_align);
; 247  :     } else
; 248  : #endif // defined(__cpp_aligned_new)
; 249  :     {
; 250  : #if defined(_M_IX86) || defined(_M_X64)
; 251  :         if (_Bytes >= _Big_allocation_threshold) {

  002bc	3d 00 10 00 00	 cmp	 eax, 4096		; 00001000H
  002c1	72 08		 jb	 SHORT $LN147@SetNPC

; 253  :             return _Allocate_manually_vector_aligned<_Traits>(_Bytes);

  002c3	50		 push	 eax
  002c4	e8 00 00 00 00	 call	 ??$_Allocate_manually_vector_aligned@U_Default_allocate_traits@std@@@std@@YAPAXI@Z ; std::_Allocate_manually_vector_aligned<std::_Default_allocate_traits>
  002c9	eb 06		 jmp	 SHORT $LN258@SetNPC
$LN147@SetNPC:

; 136  :         return ::operator new(_Bytes);

  002cb	50		 push	 eax
  002cc	e8 00 00 00 00	 call	 ??2@YAPAXI@Z		; operator new
$LN258@SetNPC:
; File C:\Program Files\Microsoft Visual Studio\2022\Professional\VC\Tools\MSVC\14.44.35207\include\vector

; 900  :         _Alty_traits::construct(_Al, _STD _Unfancy(_Newvec + _Whereoff), _STD forward<_Valty>(_Val)...);

  002d1	8b f8		 mov	 edi, eax
  002d3	83 c4 04	 add	 esp, 4
$LN145@SetNPC:
  002d6	8b 45 c0	 mov	 eax, DWORD PTR __Oldsize$1$[ebp]
  002d9	8b 4d bc	 mov	 ecx, DWORD PTR $T2[ebp]
  002dc	89 0c 87	 mov	 DWORD PTR [edi+eax*4], ecx

; 901  :         _Constructed_first = _Newvec + _Whereoff;
; 902  : 
; 903  :         if (_Whereptr == _Mylast) { // at back, provide strong guarantee

  002df	8b 4e 34	 mov	 ecx, DWORD PTR [esi+52]
  002e2	8b 45 c4	 mov	 eax, DWORD PTR __Whereptr$1$[ebp]
  002e5	8b 56 30	 mov	 edx, DWORD PTR [esi+48]
  002e8	3b c1		 cmp	 eax, ecx
  002ea	75 04		 jne	 SHORT $LN126@SetNPC
; File C:\Program Files\Microsoft Visual Studio\2022\Professional\VC\Tools\MSVC\14.44.35207\include\xmemory

; 1992 :             _STD _Copy_memmove(_UFirst, _ULast, _STD _Unfancy(_Dest));

  002ec	8b c7		 mov	 eax, edi
; File C:\Program Files\Microsoft Visual Studio\2022\Professional\VC\Tools\MSVC\14.44.35207\include\vector

; 909  :         } else { // provide basic guarantee

  002ee	eb 18		 jmp	 SHORT $LN175@SetNPC
$LN126@SetNPC:
; File C:\Program Files\Microsoft Visual Studio\2022\Professional\VC\Tools\MSVC\14.44.35207\include\xmemory

; 1992 :             _STD _Copy_memmove(_UFirst, _ULast, _STD _Unfancy(_Dest));

  002f0	57		 push	 edi
  002f1	50		 push	 eax
  002f2	52		 push	 edx
  002f3	e8 00 00 00 00	 call	 ??$_Copy_memmove@PAKPAK@std@@YAPAKPAK00@Z ; std::_Copy_memmove<unsigned long *,unsigned long *>
; File C:\Program Files\Microsoft Visual Studio\2022\Professional\VC\Tools\MSVC\14.44.35207\include\vector

; 912  :             _STD _Uninitialized_move(_Whereptr, _Mylast, _Newvec + _Whereoff + 1, _Al);

  002f8	8b 45 c0	 mov	 eax, DWORD PTR __Oldsize$1$[ebp]
; File C:\Program Files\Microsoft Visual Studio\2022\Professional\VC\Tools\MSVC\14.44.35207\include\xmemory

; 1992 :             _STD _Copy_memmove(_UFirst, _ULast, _STD _Unfancy(_Dest));

  002fb	83 c4 0c	 add	 esp, 12			; 0000000cH
; File C:\Program Files\Microsoft Visual Studio\2022\Professional\VC\Tools\MSVC\14.44.35207\include\vector

; 912  :             _STD _Uninitialized_move(_Whereptr, _Mylast, _Newvec + _Whereoff + 1, _Al);

  002fe	8b 4e 34	 mov	 ecx, DWORD PTR [esi+52]
  00301	40		 inc	 eax
; File C:\Program Files\Microsoft Visual Studio\2022\Professional\VC\Tools\MSVC\14.44.35207\include\xmemory

; 1992 :             _STD _Copy_memmove(_UFirst, _ULast, _STD _Unfancy(_Dest));

  00302	8b 55 c4	 mov	 edx, DWORD PTR __Whereptr$1$[ebp]
; File C:\Program Files\Microsoft Visual Studio\2022\Professional\VC\Tools\MSVC\14.44.35207\include\vector

; 912  :             _STD _Uninitialized_move(_Whereptr, _Mylast, _Newvec + _Whereoff + 1, _Al);

  00305	8d 04 87	 lea	 eax, DWORD PTR [edi+eax*4]
$LN175@SetNPC:

; 913  :         }
; 914  : 
; 915  :         _Guard._New_begin = nullptr;

  00308	50		 push	 eax
  00309	51		 push	 ecx
  0030a	52		 push	 edx
  0030b	e8 00 00 00 00	 call	 ??$_Copy_memmove@PAKPAK@std@@YAPAKPAK00@Z ; std::_Copy_memmove<unsigned long *,unsigned long *>
  00310	83 c4 0c	 add	 esp, 12			; 0000000cH

; 916  :         _Change_array(_Newvec, _Newsize, _Newcapacity);

  00313	8d 4e 30	 lea	 ecx, DWORD PTR [esi+48]
  00316	ff 75 c8	 push	 DWORD PTR $T7[ebp]
  00319	ff 75 b0	 push	 DWORD PTR __Newsize$1$[ebp]
  0031c	57		 push	 edi
  0031d	e8 00 00 00 00	 call	 ?_Change_array@?$vector@KV?$allocator@K@std@@@std@@AAEXQAKII@Z ; std::vector<unsigned long,std::allocator<unsigned long> >::_Change_array
  00322	8b 7d b8	 mov	 edi, DWORD PTR tv1266[ebp]
$LN195@SetNPC:
; File C:\IAGOS\server\v18\Source\Source\_Common\RainbowRace.cpp

; 561  : 		m_Lua.Pop( 1 );

  00325	6a 01		 push	 1
  00327	8b cf		 mov	 ecx, edi
  00329	e8 00 00 00 00	 call	 ?Pop@CLuaBase@@QAEXH@Z	; CLuaBase::Pop
; File C:\Program Files\Microsoft Visual Studio\2022\Professional\VC\Tools\MSVC\14.44.35207\include\xstring

; 453  :         return _Myres > _Small_string_capacity;

  0032e	8b 4d ec	 mov	 ecx, DWORD PTR _strCharKey$9[ebp+20]
; File C:\IAGOS\server\v18\Source\Source\_Common\RainbowRace.cpp

; 562  : 	}

  00331	c7 45 fc ff ff
	ff ff		 mov	 DWORD PTR __$EHRec$[ebp+8], -1
; File C:\Program Files\Microsoft Visual Studio\2022\Professional\VC\Tools\MSVC\14.44.35207\include\xstring

; 453  :         return _Myres > _Small_string_capacity;

  00338	83 f9 0f	 cmp	 ecx, 15			; 0000000fH

; 3083 :         if (_My_data._Large_mode_engaged()) {

  0033b	76 2c		 jbe	 SHORT $LN226@SetNPC
; File C:\Program Files\Microsoft Visual Studio\2022\Professional\VC\Tools\MSVC\14.44.35207\include\xmemory

; 985  :         _STD _Deallocate<_New_alignof<_Ty>>(_Ptr, sizeof(_Ty) * _Count);

  0033d	8b 55 d8	 mov	 edx, DWORD PTR _strCharKey$9[ebp]
; File C:\Program Files\Microsoft Visual Studio\2022\Professional\VC\Tools\MSVC\14.44.35207\include\xstring

; 852  :         _Al.deallocate(_Old_ptr, _Capacity + 1); // +1 for null terminator

  00340	41		 inc	 ecx
; File C:\Program Files\Microsoft Visual Studio\2022\Professional\VC\Tools\MSVC\14.44.35207\include\xmemory

; 985  :         _STD _Deallocate<_New_alignof<_Ty>>(_Ptr, sizeof(_Ty) * _Count);

  00341	8b c2		 mov	 eax, edx

; 284  :         if (_Bytes >= _Big_allocation_threshold) {

  00343	81 f9 00 10 00
	00		 cmp	 ecx, 4096		; 00001000H
  00349	72 14		 jb	 SHORT $LN231@SetNPC

; 205  :     const uintptr_t _Ptr_container   = _Ptr_user[-1];

  0034b	8b 50 fc	 mov	 edx, DWORD PTR [eax-4]
  0034e	83 c1 23	 add	 ecx, 35			; 00000023H
  00351	2b c2		 sub	 eax, edx

; 219  :     _STL_VERIFY(_Back_shift >= _Min_back_shift && _Back_shift <= _Non_user_size, "invalid argument");

  00353	83 c0 fc	 add	 eax, -4			; fffffffcH
  00356	83 f8 1f	 cmp	 eax, 31			; 0000001fH
  00359	0f 87 ae 00 00
	00		 ja	 $LN100@SetNPC
$LN231@SetNPC:

; 289  :         ::operator delete(_Ptr, _Bytes);

  0035f	51		 push	 ecx
  00360	52		 push	 edx
  00361	e8 00 00 00 00	 call	 ??3@YAXPAXI@Z		; operator delete
  00366	83 c4 08	 add	 esp, 8
$LN226@SetNPC:
; File C:\IAGOS\server\v18\Source\Source\_Common\LuaBase.h

; 46   : 	int			TableLoop( int nStackPos )					{  return lua_next( m_pLuaState, nStackPos );  }	

  00369	8b c6		 mov	 eax, esi
  0036b	6a fe		 push	 -2			; fffffffeH
  0036d	ff 70 24	 push	 DWORD PTR [eax+36]
  00370	e8 00 00 00 00	 call	 _lua_next
  00375	83 c4 08	 add	 esp, 8
; File C:\IAGOS\server\v18\Source\Source\_Common\RainbowRace.cpp

; 533  : 	while( m_Lua.TableLoop( -2 ) )

  00378	85 c0		 test	 eax, eax
  0037a	0f 85 e0 fc ff
	ff		 jne	 $LL2@SetNPC
$LN247@SetNPC:

; 563  : 	m_Lua.Pop( 0 );

  00380	6a 00		 push	 0
  00382	8b cf		 mov	 ecx, edi
  00384	e8 00 00 00 00	 call	 ?Pop@CLuaBase@@QAEXH@Z	; CLuaBase::Pop
$LN1@SetNPC:

; 564  : }

  00389	8b 4d f4	 mov	 ecx, DWORD PTR __$EHRec$[ebp]
  0038c	64 89 0d 00 00
	00 00		 mov	 DWORD PTR fs:0, ecx
  00393	59		 pop	 ecx
  00394	5f		 pop	 edi
  00395	5e		 pop	 esi
  00396	8b 4d f0	 mov	 ecx, DWORD PTR __$ArrayPad$[ebp]
  00399	33 cd		 xor	 ecx, ebp
  0039b	e8 00 00 00 00	 call	 @__security_check_cookie@4
  003a0	8b e5		 mov	 esp, ebp
  003a2	5d		 pop	 ebp
  003a3	c3		 ret	 0
$LN239@SetNPC:
; File C:\Program Files\Microsoft Visual Studio\2022\Professional\VC\Tools\MSVC\14.44.35207\include\xstring

; 453  :         return _Myres > _Small_string_capacity;

  003a4	83 7d ec 0f	 cmp	 DWORD PTR _strCharKey$9[ebp+20], 15 ; 0000000fH

; 444  :         const value_type* _Result = _Bx._Buf;

  003a8	8d 45 d8	 lea	 eax, DWORD PTR _strCharKey$9[ebp]
; File C:\IAGOS\server\v18\Source\Source\_Common\RainbowRace.cpp

; 545  : 			Error( "CRainbowRaceMng::SetNPC() - pMover is NULL - %s, %s", 

  003ab	8b cf		 mov	 ecx, edi
; File C:\Program Files\Microsoft Visual Studio\2022\Professional\VC\Tools\MSVC\14.44.35207\include\xstring

; 445  :         if (_Large_mode_engaged()) {

  003ad	0f 47 45 d8	 cmova	 eax, DWORD PTR _strCharKey$9[ebp]
; File C:\IAGOS\server\v18\Source\Source\_Common\RainbowRace.cpp

; 545  : 			Error( "CRainbowRaceMng::SetNPC() - pMover is NULL - %s, %s", 

  003b1	50		 push	 eax
  003b2	68 00 00 00 00	 push	 OFFSET ??_C@_08HJAPABMB@strNPCId@
  003b7	6a ff		 push	 -1
  003b9	e8 00 00 00 00	 call	 ?GetFieldToString@CLuaBase@@QAEPBDHPAD@Z ; CLuaBase::GetFieldToString
  003be	50		 push	 eax
  003bf	68 00 00 00 00	 push	 OFFSET ??_C@_0DE@LIKGMGCG@CRainbowRaceMng?3?3SetNPC?$CI?$CJ?5?9?5pMo@
  003c4	e8 00 00 00 00	 call	 ?Error@@YAPBDPBDZZ	; Error
; File C:\Program Files\Microsoft Visual Studio\2022\Professional\VC\Tools\MSVC\14.44.35207\include\xstring

; 453  :         return _Myres > _Small_string_capacity;

  003c9	8b 4d ec	 mov	 ecx, DWORD PTR _strCharKey$9[ebp+20]
; File C:\IAGOS\server\v18\Source\Source\_Common\RainbowRace.cpp

; 545  : 			Error( "CRainbowRaceMng::SetNPC() - pMover is NULL - %s, %s", 

  003cc	83 c4 0c	 add	 esp, 12			; 0000000cH
; File C:\Program Files\Microsoft Visual Studio\2022\Professional\VC\Tools\MSVC\14.44.35207\include\xstring

; 453  :         return _Myres > _Small_string_capacity;

  003cf	83 f9 0f	 cmp	 ecx, 15			; 0000000fH

; 3083 :         if (_My_data._Large_mode_engaged()) {

  003d2	76 b5		 jbe	 SHORT $LN1@SetNPC
; File C:\Program Files\Microsoft Visual Studio\2022\Professional\VC\Tools\MSVC\14.44.35207\include\xmemory

; 985  :         _STD _Deallocate<_New_alignof<_Ty>>(_Ptr, sizeof(_Ty) * _Count);

  003d4	8b 55 d8	 mov	 edx, DWORD PTR _strCharKey$9[ebp]
; File C:\Program Files\Microsoft Visual Studio\2022\Professional\VC\Tools\MSVC\14.44.35207\include\xstring

; 852  :         _Al.deallocate(_Old_ptr, _Capacity + 1); // +1 for null terminator

  003d7	41		 inc	 ecx
; File C:\Program Files\Microsoft Visual Studio\2022\Professional\VC\Tools\MSVC\14.44.35207\include\xmemory

; 985  :         _STD _Deallocate<_New_alignof<_Ty>>(_Ptr, sizeof(_Ty) * _Count);

  003d8	8b c2		 mov	 eax, edx

; 284  :         if (_Bytes >= _Big_allocation_threshold) {

  003da	81 f9 00 10 00
	00		 cmp	 ecx, 4096		; 00001000H
  003e0	72 10		 jb	 SHORT $LN101@SetNPC

; 205  :     const uintptr_t _Ptr_container   = _Ptr_user[-1];

  003e2	8b 50 fc	 mov	 edx, DWORD PTR [eax-4]
  003e5	83 c1 23	 add	 ecx, 35			; 00000023H
  003e8	2b c2		 sub	 eax, edx

; 219  :     _STL_VERIFY(_Back_shift >= _Min_back_shift && _Back_shift <= _Non_user_size, "invalid argument");

  003ea	83 c0 fc	 add	 eax, -4			; fffffffcH
  003ed	83 f8 1f	 cmp	 eax, 31			; 0000001fH
  003f0	77 1b		 ja	 SHORT $LN100@SetNPC
$LN101@SetNPC:

; 289  :         ::operator delete(_Ptr, _Bytes);

  003f2	51		 push	 ecx
  003f3	52		 push	 edx
  003f4	e8 00 00 00 00	 call	 ??3@YAXPAXI@Z		; operator delete
  003f9	83 c4 08	 add	 esp, 8
; File C:\IAGOS\server\v18\Source\Source\_Common\RainbowRace.cpp

; 547  : 			return;

  003fc	eb 8b		 jmp	 SHORT $LN1@SetNPC
$LN238@SetNPC:
; File C:\Program Files\Microsoft Visual Studio\2022\Professional\VC\Tools\MSVC\14.44.35207\include\xstring

; 882  :             _Xlen_string(); // result too long

  003fe	e8 00 00 00 00	 call	 ?_Xlen_string@std@@YAXXZ ; std::_Xlen_string
$LN241@SetNPC:
; File C:\Program Files\Microsoft Visual Studio\2022\Professional\VC\Tools\MSVC\14.44.35207\include\xmemory

; 118  :             _Throw_bad_array_new_length(); // multiply overflow

  00403	e8 00 00 00 00	 call	 ?_Throw_bad_array_new_length@std@@YAXXZ ; std::_Throw_bad_array_new_length
$LN240@SetNPC:
; File C:\Program Files\Microsoft Visual Studio\2022\Professional\VC\Tools\MSVC\14.44.35207\include\vector

; 888  :             _Xlength();

  00408	e8 00 00 00 00	 call	 ?_Xlength@?$vector@KV?$allocator@K@std@@@std@@CAXXZ ; std::vector<unsigned long,std::allocator<unsigned long> >::_Xlength
$LN100@SetNPC:
; File C:\Program Files\Microsoft Visual Studio\2022\Professional\VC\Tools\MSVC\14.44.35207\include\xmemory

; 219  :     _STL_VERIFY(_Back_shift >= _Min_back_shift && _Back_shift <= _Non_user_size, "invalid argument");

  0040d	6a 00		 push	 0
  0040f	6a 00		 push	 0
  00411	6a 00		 push	 0
  00413	6a 00		 push	 0
  00415	6a 00		 push	 0
  00417	e8 00 00 00 00	 call	 __invoke_watson
$LN254@SetNPC:
  0041c	cc		 int	 3
_TEXT	ENDS
;	COMDAT text$x
text$x	SEGMENT
__unwindfunclet$?SetNPC@CRainbowRaceMng@@AAEXXZ$0:
  00000	8d 4d d8	 lea	 ecx, DWORD PTR _strCharKey$9[ebp]
  00003	e9 00 00 00 00	 jmp	 ??1?$basic_string@DU?$char_traits@D@std@@V?$allocator@D@2@@std@@QAE@XZ ; std::basic_string<char,std::char_traits<char>,std::allocator<char> >::~basic_string<char,std::char_traits<char>,std::allocator<char> >
  00008	cc		 int	 3
  00009	cc		 int	 3
  0000a	cc		 int	 3
  0000b	cc		 int	 3
  0000c	cc		 int	 3
__ehhandler$?SetNPC@CRainbowRaceMng@@AAEXXZ:
  0000d	90		 npad	 1
  0000e	90		 npad	 1
  0000f	8b 54 24 08	 mov	 edx, DWORD PTR [esp+8]
  00013	8d 42 0c	 lea	 eax, DWORD PTR [edx+12]
  00016	8b 4a b0	 mov	 ecx, DWORD PTR [edx-80]
  00019	33 c8		 xor	 ecx, eax
  0001b	e8 00 00 00 00	 call	 @__security_check_cookie@4
  00020	8b 4a fc	 mov	 ecx, DWORD PTR [edx-4]
  00023	33 c8		 xor	 ecx, eax
  00025	e8 00 00 00 00	 call	 @__security_check_cookie@4
  0002a	b8 00 00 00 00	 mov	 eax, OFFSET __ehfuncinfo$?SetNPC@CRainbowRaceMng@@AAEXXZ
  0002f	e9 00 00 00 00	 jmp	 ___CxxFrameHandler3
text$x	ENDS
?SetNPC@CRainbowRaceMng@@AAEXXZ ENDP			; CRainbowRaceMng::SetNPC
; Function compile flags: /Ogtp
; File C:\IAGOS\server\v18\Source\Source\_Common\RainbowRace.cpp
; File C:\Program Files\Microsoft Visual Studio\2022\Professional\VC\Tools\MSVC\14.44.35207\include\xtree
; File C:\IAGOS\server\v18\Source\Source\_Common\RainbowRace.cpp
; File C:\Program Files\Microsoft Visual Studio\2022\Professional\VC\Tools\MSVC\14.44.35207\include\xtree
; File C:\IAGOS\server\v18\Source\Source\_Common\RainbowRace.cpp
; File C:\Program Files\Microsoft Visual Studio\2022\Professional\VC\Tools\MSVC\14.44.35207\include\xtree
; File C:\IAGOS\server\v18\Source\Source\_Common\RainbowRace.cpp
; File C:\Program Files\Microsoft Visual Studio\2022\Professional\VC\Tools\MSVC\14.44.35207\include\xtree
; File C:\IAGOS\server\v18\Source\Source\_Common\RainbowRace.cpp
; File C:\Program Files\Microsoft Visual Studio\2022\Professional\VC\Tools\MSVC\14.44.35207\include\xtree
; File C:\Program Files\Microsoft Visual Studio\2022\Professional\VC\Tools\MSVC\14.44.35207\include\type_traits
; File C:\Program Files\Microsoft Visual Studio\2022\Professional\VC\Tools\MSVC\14.44.35207\include\xtree
; File C:\Program Files\Microsoft Visual Studio\2022\Professional\VC\Tools\MSVC\14.44.35207\include\type_traits
; File C:\Program Files\Microsoft Visual Studio\2022\Professional\VC\Tools\MSVC\14.44.35207\include\xtree
; File C:\IAGOS\server\v18\Source\Source\_Common\Project.h
; File C:\IAGOS\server\v18\Source\Source\_Common\Obj.h
; File C:\IAGOS\server\v18\Source\Source\_Common\RainbowRace.cpp
; File C:\Program Files\Microsoft Visual Studio\2022\Professional\VC\Tools\MSVC\14.44.35207\include\xtree
; File C:\IAGOS\server\v18\Source\Source\_Common\RainbowRace.cpp
; File C:\Program Files\Microsoft Visual Studio\2022\Professional\VC\Tools\MSVC\14.44.35207\include\xtree
; File C:\Program Files\Microsoft Visual Studio\2022\Professional\VC\Tools\MSVC\14.44.35207\include\xmemory
; File C:\Program Files\Microsoft Visual Studio\2022\Professional\VC\Tools\MSVC\14.44.35207\include\xtree
; File C:\IAGOS\server\v18\Source\Source\_Common\RainbowRace.cpp
;	COMDAT ?BeginRainbowRace@CRainbowRaceMng@@AAEXXZ
_TEXT	SEGMENT
_it$2 = -4						; size = 4
?BeginRainbowRace@CRainbowRaceMng@@AAEXXZ PROC		; CRainbowRaceMng::BeginRainbowRace, COMDAT
; _this$ = ecx

; 509  : {

  00000	55		 push	 ebp
  00001	8b ec		 mov	 ebp, esp
  00003	51		 push	 ecx
; File C:\Program Files\Microsoft Visual Studio\2022\Professional\VC\Tools\MSVC\14.44.35207\include\xtree

; 1142 :         return iterator(_Scary->_Myhead->_Left, _Scary);

  00004	8b 41 0c	 mov	 eax, DWORD PTR [ecx+12]
; File C:\IAGOS\server\v18\Source\Source\_Common\RainbowRace.cpp

; 509  : {

  00007	53		 push	 ebx
; File C:\Program Files\Microsoft Visual Studio\2022\Professional\VC\Tools\MSVC\14.44.35207\include\xtree

; 1142 :         return iterator(_Scary->_Myhead->_Left, _Scary);

  00008	8d 59 0c	 lea	 ebx, DWORD PTR [ecx+12]
; File C:\IAGOS\server\v18\Source\Source\_Common\RainbowRace.cpp

; 509  : {

  0000b	56		 push	 esi
; File C:\Program Files\Microsoft Visual Studio\2022\Professional\VC\Tools\MSVC\14.44.35207\include\xtree

; 37   :     _Tree_unchecked_const_iterator(_Nodeptr _Pnode, const _Mytree* _Plist) noexcept : _Ptr(_Pnode) {

  0000c	8b 30		 mov	 esi, DWORD PTR [eax]
  0000e	89 75 fc	 mov	 DWORD PTR _it$2[ebp], esi

; 237  :         return !(*this == _Right);

  00011	3b f0		 cmp	 esi, eax
; File C:\IAGOS\server\v18\Source\Source\_Common\RainbowRace.cpp

; 511  : 	for( MAPRR::iterator it=m_mapRainbowRace.begin(); it!=m_mapRainbowRace.end(); )

  00013	0f 84 b1 00 00
	00		 je	 $LN229@BeginRainb
  00019	57		 push	 edi
  0001a	66 0f 1f 44 00
	00		 npad	 6
$LL4@BeginRainb:
; File C:\Program Files\Microsoft Visual Studio\2022\Professional\VC\Tools\MSVC\14.44.35207\include\xtree

; 1630 :         _Tree_find_result<_Nodeptr> _Result{{_Scary->_Myhead->_Parent, _Tree_child::_Right}, _Scary->_Myhead};

  00020	8b 3d 28 00 00
	00		 mov	 edi, DWORD PTR ?prj@@3VCProject@@A+40
  00026	8b cf		 mov	 ecx, edi
; File C:\IAGOS\server\v18\Source\Source\_Common\RainbowRace.cpp

; 513  : 		pUser = static_cast<CUser*>( prj.GetUserByID( it->first ) );

  00028	8b 56 10	 mov	 edx, DWORD PTR [esi+16]
; File C:\Program Files\Microsoft Visual Studio\2022\Professional\VC\Tools\MSVC\14.44.35207\include\xtree

; 1630 :         _Tree_find_result<_Nodeptr> _Result{{_Scary->_Myhead->_Parent, _Tree_child::_Right}, _Scary->_Myhead};

  0002b	8b 47 04	 mov	 eax, DWORD PTR [edi+4]

; 1631 :         _Nodeptr _Trynode = _Result._Location._Parent;
; 1632 :         while (!_Trynode->_Isnil) {

  0002e	80 78 0d 00	 cmp	 BYTE PTR [eax+13], 0
  00032	75 14		 jne	 SHORT $LN48@BeginRainb
$LL47@BeginRainb:
; File C:\Program Files\Microsoft Visual Studio\2022\Professional\VC\Tools\MSVC\14.44.35207\include\type_traits

; 2380 :         return _Left < _Right;

  00034	39 50 10	 cmp	 DWORD PTR [eax+16], edx
; File C:\Program Files\Microsoft Visual Studio\2022\Professional\VC\Tools\MSVC\14.44.35207\include\xtree

; 1634 :             if (_DEBUG_LT_PRED(_Getcomp(), _Traits::_Kfn(_Trynode->_Myval), _Keyval)) {

  00037	73 05		 jae	 SHORT $LN49@BeginRainb

; 1635 :                 _Result._Location._Child = _Tree_child::_Right;
; 1636 :                 _Trynode                 = _Trynode->_Right;

  00039	8b 40 08	 mov	 eax, DWORD PTR [eax+8]

; 1637 :             } else {

  0003c	eb 04		 jmp	 SHORT $LN50@BeginRainb
$LN49@BeginRainb:

; 1638 :                 _Result._Location._Child = _Tree_child::_Left;
; 1639 :                 _Result._Bound           = _Trynode;

  0003e	8b c8		 mov	 ecx, eax

; 1640 :                 _Trynode                 = _Trynode->_Left;

  00040	8b 00		 mov	 eax, DWORD PTR [eax]
$LN50@BeginRainb:

; 1631 :         _Nodeptr _Trynode = _Result._Location._Parent;
; 1632 :         while (!_Trynode->_Isnil) {

  00042	80 78 0d 00	 cmp	 BYTE PTR [eax+13], 0
  00046	74 ec		 je	 SHORT $LL47@BeginRainb
$LN48@BeginRainb:

; 1624 :         return !_Bound->_Isnil && !_DEBUG_LT_PRED(_Getcomp(), _Keyval, _Traits::_Kfn(_Bound->_Myval));

  00048	80 79 0d 00	 cmp	 BYTE PTR [ecx+13], 0
  0004c	75 05		 jne	 SHORT $LN44@BeginRainb
; File C:\Program Files\Microsoft Visual Studio\2022\Professional\VC\Tools\MSVC\14.44.35207\include\type_traits

; 2380 :         return _Left < _Right;

  0004e	3b 51 10	 cmp	 edx, DWORD PTR [ecx+16]
; File C:\Program Files\Microsoft Visual Studio\2022\Professional\VC\Tools\MSVC\14.44.35207\include\xtree

; 1624 :         return !_Bound->_Isnil && !_DEBUG_LT_PRED(_Getcomp(), _Keyval, _Traits::_Kfn(_Bound->_Myval));

  00051	73 02		 jae	 SHORT $LN43@BeginRainb
$LN44@BeginRainb:

; 1389 :         return _Get_scary()->_Myhead;

  00053	8b cf		 mov	 ecx, edi
$LN43@BeginRainb:

; 37   :     _Tree_unchecked_const_iterator(_Nodeptr _Pnode, const _Mytree* _Plist) noexcept : _Ptr(_Pnode) {

  00055	3b cf		 cmp	 ecx, edi
; File C:\IAGOS\server\v18\Source\Source\_Common\Project.h

; 1436 : 	if( i != m_idPlayerToUserPtr.end() )

  00057	74 1f		 je	 SHORT $LN235@BeginRainb

; 1437 : 		return i->second;

  00059	8b 49 14	 mov	 ecx, DWORD PTR [ecx+20]
; File C:\IAGOS\server\v18\Source\Source\_Common\Obj.h

; 327  : 	return pObj && ( pObj->IsDelete() == FALSE ); 

  0005c	85 c9		 test	 ecx, ecx
  0005e	74 18		 je	 SHORT $LN235@BeginRainb

; 180  : 	BOOL			IsDelete()	{ return (m_dwFlags & OBJ_FLAG_DELETE);  }

  00060	f6 41 04 01	 test	 BYTE PTR [ecx+4], 1

; 327  : 	return pObj && ( pObj->IsDelete() == FALSE ); 

  00064	75 12		 jne	 SHORT $LN235@BeginRainb
; File C:\IAGOS\server\v18\Source\Source\_Common\RainbowRace.cpp

; 522  : 			pUser->AddRainbowRaceState( it->second );

  00066	ff 76 14	 push	 DWORD PTR [esi+20]
  00069	e8 00 00 00 00	 call	 ?AddRainbowRaceState@CUser@@QAEXPAVCRainbowRace@@@Z ; CUser::AddRainbowRaceState
; File C:\Program Files\Microsoft Visual Studio\2022\Professional\VC\Tools\MSVC\14.44.35207\include\xtree

; 198  :         _Mybase::operator++();

  0006e	8d 4d fc	 lea	 ecx, DWORD PTR _it$2[ebp]
  00071	e8 00 00 00 00	 call	 ??E?$_Tree_unchecked_const_iterator@V?$_Tree_val@U?$_Tree_simple_types@U?$pair@$$CBKPAVCRainbowRace@@@std@@@std@@@std@@U_Iterator_base0@2@@std@@QAEAAV01@XZ ; std::_Tree_unchecked_const_iterator<std::_Tree_val<std::_Tree_simple_types<std::pair<unsigned long const ,CRainbowRace *> > >,std::_Iterator_base0>::operator++
  00076	eb 46		 jmp	 SHORT $LN2@BeginRainb
$LN235@BeginRainb:
; File C:\IAGOS\server\v18\Source\Source\_Common\RainbowRace.cpp

; 516  : 			g_dpDBClient.SendRainbowRaceFailedUser( it->first );

  00078	52		 push	 edx
  00079	b9 00 00 00 00	 mov	 ecx, OFFSET ?g_dpDBClient@@3VCDPDatabaseClient@@A ; g_dpDBClient
  0007e	e8 00 00 00 00	 call	 ?SendRainbowRaceFailedUser@CDPDatabaseClient@@QAEXK@Z ; CDPDatabaseClient::SendRainbowRaceFailedUser

; 517  : 			SAFE_DELETE( it->second );

  00083	8b 7e 14	 mov	 edi, DWORD PTR [esi+20]
  00086	85 ff		 test	 edi, edi
  00088	74 19		 je	 SHORT $LN7@BeginRainb
  0008a	8b cf		 mov	 ecx, edi
  0008c	e8 00 00 00 00	 call	 ??1CRainbowRace@@QAE@XZ	; CRainbowRace::~CRainbowRace
  00091	6a 0c		 push	 12			; 0000000cH
  00093	57		 push	 edi
  00094	e8 00 00 00 00	 call	 ??3@YAXPAXI@Z		; operator delete
  00099	83 c4 08	 add	 esp, 8
  0009c	c7 46 14 00 00
	00 00		 mov	 DWORD PTR [esi+20], 0
$LN7@BeginRainb:
; File C:\Program Files\Microsoft Visual Studio\2022\Professional\VC\Tools\MSVC\14.44.35207\include\xtree

; 198  :         _Mybase::operator++();

  000a3	8d 4d fc	 lea	 ecx, DWORD PTR _it$2[ebp]
  000a6	e8 00 00 00 00	 call	 ??E?$_Tree_unchecked_const_iterator@V?$_Tree_val@U?$_Tree_simple_types@U?$pair@$$CBKPAVCRainbowRace@@@std@@@std@@@std@@U_Iterator_base0@2@@std@@QAEAAV01@XZ ; std::_Tree_unchecked_const_iterator<std::_Tree_val<std::_Tree_simple_types<std::pair<unsigned long const ,CRainbowRace *> > >,std::_Iterator_base0>::operator++

; 1303 :         _Nodeptr _Erasednode = _Scary->_Extract(_Where); // node to erase

  000ab	56		 push	 esi
  000ac	8b cb		 mov	 ecx, ebx
  000ae	e8 00 00 00 00	 call	 ?_Extract@?$_Tree_val@U?$_Tree_simple_types@U?$pair@$$CBKPAVCRainbowRace@@@std@@@std@@@std@@QAEPAU?$_Tree_node@U?$pair@$$CBKPAVCRainbowRace@@@std@@PAX@2@V?$_Tree_unchecked_const_iterator@V?$_Tree_val@U?$_Tree_simple_types@U?$pair@$$CBKPAVCRainbowRace@@@std@@@std@@@std@@U_Iterator_base0@2@@2@@Z ; std::_Tree_val<std::_Tree_simple_types<std::pair<unsigned long const ,CRainbowRace *> > >::_Extract
; File C:\Program Files\Microsoft Visual Studio\2022\Professional\VC\Tools\MSVC\14.44.35207\include\xmemory

; 289  :         ::operator delete(_Ptr, _Bytes);

  000b3	6a 18		 push	 24			; 00000018H
  000b5	50		 push	 eax
  000b6	e8 00 00 00 00	 call	 ??3@YAXPAXI@Z		; operator delete
  000bb	83 c4 08	 add	 esp, 8
$LN2@BeginRainb:
; File C:\Program Files\Microsoft Visual Studio\2022\Professional\VC\Tools\MSVC\14.44.35207\include\xtree

; 237  :         return !(*this == _Right);

  000be	8b 75 fc	 mov	 esi, DWORD PTR _it$2[ebp]
  000c1	3b 33		 cmp	 esi, DWORD PTR [ebx]
; File C:\IAGOS\server\v18\Source\Source\_Common\RainbowRace.cpp

; 511  : 	for( MAPRR::iterator it=m_mapRainbowRace.begin(); it!=m_mapRainbowRace.end(); )

  000c3	0f 85 57 ff ff
	ff		 jne	 $LL4@BeginRainb
  000c9	5f		 pop	 edi
$LN229@BeginRainb:
  000ca	5e		 pop	 esi

; 523  : 			it++;
; 524  : 		}
; 525  : 	}
; 526  : }

  000cb	5b		 pop	 ebx
  000cc	8b e5		 mov	 esp, ebp
  000ce	5d		 pop	 ebp
  000cf	c3		 ret	 0
?BeginRainbowRace@CRainbowRaceMng@@AAEXXZ ENDP		; CRainbowRaceMng::BeginRainbowRace
_TEXT	ENDS
; Function compile flags: /Ogtp
; File C:\IAGOS\server\v18\Source\Source\_Common\RainbowRace.cpp
; File C:\IAGOS\server\v18\Source\Source\_Common\LuaBase.h
; File C:\IAGOS\server\v18\Source\Source\_Common\RainbowRace.cpp
;	COMDAT ?IsOpenTime@CRainbowRaceMng@@AAEHXZ
_TEXT	SEGMENT
?IsOpenTime@CRainbowRaceMng@@AAEHXZ PROC		; CRainbowRaceMng::IsOpenTime, COMDAT
; _this$ = ecx

; 401  : {

  00000	53		 push	 ebx
  00001	56		 push	 esi
  00002	8b d9		 mov	 ebx, ecx
  00004	57		 push	 edi

; 402  : 	BOOL bIsOpenTime = FALSE;
; 403  : 	if( m_Lua.GetLuaFunction( "IsOpenTime" ) )

  00005	68 00 00 00 00	 push	 OFFSET ??_C@_0L@LBDABBNP@IsOpenTime@
  0000a	33 ff		 xor	 edi, edi
  0000c	8d 4b 20	 lea	 ecx, DWORD PTR [ebx+32]
  0000f	e8 00 00 00 00	 call	 ?GetLuaFunction@CLuaBase@@QAEHPAD@Z ; CLuaBase::GetLuaFunction
  00014	85 c0		 test	 eax, eax
  00016	74 1a		 je	 SHORT $LN2@IsOpenTime

; 404  : 	{
; 405  : 		m_Lua.CallLuaFunction( 0, 1 );

  00018	6a 01		 push	 1
  0001a	57		 push	 edi
  0001b	8d 4b 20	 lea	 ecx, DWORD PTR [ebx+32]
  0001e	e8 00 00 00 00	 call	 ?CallLuaFunction@CLuaBase@@QAEXHH@Z ; CLuaBase::CallLuaFunction
; File C:\IAGOS\server\v18\Source\Source\_Common\LuaBase.h

; 45   : 	BOOL		ToBool( int nStackPos )						{  return static_cast<BOOL>( lua_toboolean( m_pLuaState, nStackPos ) );  }

  00023	6a ff		 push	 -1
  00025	ff 73 24	 push	 DWORD PTR [ebx+36]
  00028	e8 00 00 00 00	 call	 _lua_toboolean
  0002d	83 c4 08	 add	 esp, 8
; File C:\IAGOS\server\v18\Source\Source\_Common\RainbowRace.cpp

; 406  : 		bIsOpenTime = static_cast<BOOL>( m_Lua.ToBool( -1 ) );

  00030	8b f8		 mov	 edi, eax
$LN2@IsOpenTime:

; 407  : 	}
; 408  : 
; 409  : 	m_Lua.Pop( 0 );

  00032	6a 00		 push	 0
  00034	8d 4b 20	 lea	 ecx, DWORD PTR [ebx+32]
  00037	e8 00 00 00 00	 call	 ?Pop@CLuaBase@@QAEXH@Z	; CLuaBase::Pop

; 410  : 
; 411  : 	return bIsOpenTime;

  0003c	8b c7		 mov	 eax, edi
  0003e	5f		 pop	 edi
  0003f	5e		 pop	 esi
  00040	5b		 pop	 ebx

; 412  : }

  00041	c3		 ret	 0
?IsOpenTime@CRainbowRaceMng@@AAEHXZ ENDP		; CRainbowRaceMng::IsOpenTime
_TEXT	ENDS
; Function compile flags: /Ogtp
; File C:\IAGOS\server\v18\Source\Source\_Common\RainbowRace.cpp
; File C:\IAGOS\server\v18\Source\Source\_Common\LuaBase.h
; File C:\IAGOS\server\v18\Source\Source\_Common\RainbowRace.cpp
;	COMDAT ?IsApplicationTime@CRainbowRaceMng@@AAEHXZ
_TEXT	SEGMENT
?IsApplicationTime@CRainbowRaceMng@@AAEHXZ PROC		; CRainbowRaceMng::IsApplicationTime, COMDAT
; _this$ = ecx

; 387  : {

  00000	53		 push	 ebx
  00001	56		 push	 esi
  00002	8b d9		 mov	 ebx, ecx
  00004	57		 push	 edi

; 388  : 	BOOL bIsAppTime = FALSE;
; 389  : 	if( m_Lua.GetLuaFunction( "IsApplicationTime" ) )

  00005	68 00 00 00 00	 push	 OFFSET ??_C@_0BC@KJBDAEHN@IsApplicationTime@
  0000a	33 ff		 xor	 edi, edi
  0000c	8d 4b 20	 lea	 ecx, DWORD PTR [ebx+32]
  0000f	e8 00 00 00 00	 call	 ?GetLuaFunction@CLuaBase@@QAEHPAD@Z ; CLuaBase::GetLuaFunction
  00014	85 c0		 test	 eax, eax
  00016	74 1a		 je	 SHORT $LN2@IsApplicat

; 390  : 	{
; 391  : 		m_Lua.CallLuaFunction( 0, 1 );

  00018	6a 01		 push	 1
  0001a	57		 push	 edi
  0001b	8d 4b 20	 lea	 ecx, DWORD PTR [ebx+32]
  0001e	e8 00 00 00 00	 call	 ?CallLuaFunction@CLuaBase@@QAEXHH@Z ; CLuaBase::CallLuaFunction
; File C:\IAGOS\server\v18\Source\Source\_Common\LuaBase.h

; 45   : 	BOOL		ToBool( int nStackPos )						{  return static_cast<BOOL>( lua_toboolean( m_pLuaState, nStackPos ) );  }

  00023	6a ff		 push	 -1
  00025	ff 73 24	 push	 DWORD PTR [ebx+36]
  00028	e8 00 00 00 00	 call	 _lua_toboolean
  0002d	83 c4 08	 add	 esp, 8
; File C:\IAGOS\server\v18\Source\Source\_Common\RainbowRace.cpp

; 392  : 		bIsAppTime = static_cast<BOOL>( m_Lua.ToBool( -1 ) );

  00030	8b f8		 mov	 edi, eax
$LN2@IsApplicat:

; 393  : 	}
; 394  : 
; 395  : 	m_Lua.Pop( 0 );

  00032	6a 00		 push	 0
  00034	8d 4b 20	 lea	 ecx, DWORD PTR [ebx+32]
  00037	e8 00 00 00 00	 call	 ?Pop@CLuaBase@@QAEXH@Z	; CLuaBase::Pop

; 396  : 
; 397  : 	return bIsAppTime;

  0003c	8b c7		 mov	 eax, edi
  0003e	5f		 pop	 edi
  0003f	5e		 pop	 esi
  00040	5b		 pop	 ebx

; 398  : }

  00041	c3		 ret	 0
?IsApplicationTime@CRainbowRaceMng@@AAEHXZ ENDP		; CRainbowRaceMng::IsApplicationTime
_TEXT	ENDS
; Function compile flags: /Ogtp
; File C:\IAGOS\server\v18\Source\Source\_Common\RainbowRace.cpp
; File C:\Program Files\Microsoft Visual Studio\2022\Professional\VC\Tools\MSVC\14.44.35207\include\vector
; File C:\IAGOS\server\v18\Source\Source\_Common\RainbowRace.cpp
; File C:\Program Files\Microsoft Visual Studio\2022\Professional\VC\Tools\MSVC\14.44.35207\include\vector
; File C:\IAGOS\server\v18\Source\Source\_Common\RainbowRace.cpp
; File C:\IAGOS\server\v18\Source\Source\_Common\LuaBase.h
; File C:\IAGOS\server\v18\Source\Source\_Common\RainbowRace.cpp
; File C:\IAGOS\server\v18\Source\Source\_Common\LuaBase.h
; File C:\IAGOS\server\v18\Source\Source\_Common\RainbowRace.cpp
; File C:\IAGOS\server\v18\Source\Source\_Common\LuaBase.h
; File C:\IAGOS\server\v18\Source\Source\_Common\RainbowRace.cpp
; File C:\IAGOS\server\v18\Source\Source\_Common\Project.h
; File C:\IAGOS\server\v18\Source\Source\_Common\RainbowRace.cpp
; File C:\IAGOS\server\v18\Source\Source\_Common\Item.h
; File C:\IAGOS\server\v18\Source\Source\_Common\Project.h
; File C:\IAGOS\server\v18\Source\Source\_Common\data.h
; File C:\IAGOS\server\v18\Source\Source\_Common\Project.h
; File C:\IAGOS\server\v18\Source\Source\_Common\RainbowRace.cpp
; File C:\IAGOS\server\v18\Source\Source\_Common\Project.h
; File C:\IAGOS\server\v18\Source\Source\_Common\RainbowRace.cpp
; File C:\IAGOS\server\v18\Source\Source\_Common\Project.h
; File C:\IAGOS\server\v18\Source\Source\_Common\data.h
; File C:\IAGOS\server\v18\Source\Source\_Common\Project.h
; File C:\IAGOS\server\v18\Source\Source\_Common\RainbowRace.cpp
; File C:\Program Files\Microsoft Visual Studio\2022\Professional\VC\Tools\MSVC\14.44.35207\include\xutility
; File C:\Program Files\Microsoft Visual Studio\2022\Professional\VC\Tools\MSVC\14.44.35207\include\vector
; File C:\IAGOS\server\v18\Source\Source\_Common\RainbowRace.cpp
; File C:\Program Files\Microsoft Visual Studio\2022\Professional\VC\Tools\MSVC\14.44.35207\include\xutility
; File C:\IAGOS\server\v18\Source\Source\_Common\RainbowRace.cpp
; File C:\Program Files\Microsoft Visual Studio\2022\Professional\VC\Tools\MSVC\14.44.35207\include\vector
; File C:\IAGOS\server\v18\Source\Source\_Common\RainbowRace.cpp
;	COMDAT ?SetMiniGamePrize@CRainbowRaceMng@@AAEXK@Z
_TEXT	SEGMENT
tv669 = -328						; size = 8
tv673 = -328						; size = 8
_itemElem$2 = -320					; size = 176
_szText$3 = -144					; size = 128
__$ArrayPad$ = -16					; size = 4
__$EHRec$ = -12						; size = 12
_dwTick$ = 8						; size = 4
?SetMiniGamePrize@CRainbowRaceMng@@AAEXK@Z PROC		; CRainbowRaceMng::SetMiniGamePrize, COMDAT
; _this$ = ecx

; 672  : {

  00000	55		 push	 ebp
  00001	8b ec		 mov	 ebp, esp
  00003	6a ff		 push	 -1
  00005	68 00 00 00 00	 push	 __ehhandler$?SetMiniGamePrize@CRainbowRaceMng@@AAEXK@Z
  0000a	64 a1 00 00 00
	00		 mov	 eax, DWORD PTR fs:0
  00010	50		 push	 eax
  00011	81 ec 3c 01 00
	00		 sub	 esp, 316		; 0000013cH
  00017	a1 00 00 00 00	 mov	 eax, DWORD PTR ___security_cookie
  0001c	33 c5		 xor	 eax, ebp
  0001e	89 45 f0	 mov	 DWORD PTR __$ArrayPad$[ebp], eax
  00021	53		 push	 ebx
  00022	56		 push	 esi
  00023	57		 push	 edi
  00024	50		 push	 eax
  00025	8d 45 f4	 lea	 eax, DWORD PTR __$EHRec$[ebp]
  00028	64 a3 00 00 00
	00		 mov	 DWORD PTR fs:0, eax
  0002e	8b f9		 mov	 edi, ecx
; File C:\Program Files\Microsoft Visual Studio\2022\Professional\VC\Tools\MSVC\14.44.35207\include\vector

; 46   :     _CONSTEXPR20 _Vector_const_iterator(_Tptr _Parg, const _Container_base* _Pvector) noexcept : _Ptr(_Parg) {

  00030	8b 37		 mov	 esi, DWORD PTR [edi]

; 176  :         return !(*this == _Right);

  00032	3b 77 04	 cmp	 esi, DWORD PTR [edi+4]
; File C:\IAGOS\server\v18\Source\Source\_Common\RainbowRace.cpp

; 673  : 	for( vector<MINIGMAME_PRIZE_LIST>::iterator it=m_vecMiniGamePrizeList.begin(); it!=m_vecMiniGamePrizeList.end(); )

  00035	0f 84 fd 01 00
	00		 je	 $LN3@SetMiniGam
  0003b	8b 4d 08	 mov	 ecx, DWORD PTR _dwTick$[ebp]
  0003e	66 90		 npad	 2
$LL4@SetMiniGam:

; 674  : 	{
; 675  : 		if( (dwTick != 0) && ((*it).dwCompletedTick + SEC(15) > dwTick) )

  00040	85 c9		 test	 ecx, ecx
  00042	74 14		 je	 SHORT $LN5@SetMiniGam
  00044	8b 46 08	 mov	 eax, DWORD PTR [esi+8]
  00047	05 98 3a 00 00	 add	 eax, 15000		; 00003a98H
  0004c	3b c1		 cmp	 eax, ecx
  0004e	76 08		 jbe	 SHORT $LN5@SetMiniGam
; File C:\Program Files\Microsoft Visual Studio\2022\Professional\VC\Tools\MSVC\14.44.35207\include\vector

; 82   :         ++_Ptr;

  00050	83 c6 0c	 add	 esi, 12			; 0000000cH
; File C:\IAGOS\server\v18\Source\Source\_Common\RainbowRace.cpp

; 678  : 			continue;

  00053	e9 d7 01 00 00	 jmp	 $LN2@SetMiniGam
$LN5@SetMiniGam:

; 679  : 		}
; 680  : 	
; 681  : 		if( m_Lua.GetLuaFunction( "GetMiniGamePrize" ) )

  00058	68 00 00 00 00	 push	 OFFSET ??_C@_0BB@DMGDJGLH@GetMiniGamePrize@
  0005d	8d 4f 20	 lea	 ecx, DWORD PTR [edi+32]
  00060	e8 00 00 00 00	 call	 ?GetLuaFunction@CLuaBase@@QAEHPAD@Z ; CLuaBase::GetLuaFunction
  00065	85 c0		 test	 eax, eax
  00067	0f 84 a1 01 00
	00		 je	 $LN7@SetMiniGam
  0006d	66 0f 6e 46 04	 movd	 xmm0, DWORD PTR [esi+4]
; File C:\IAGOS\server\v18\Source\Source\_Common\LuaBase.h

; 36   : 	void		PushNumber( double nValue )					{  lua_pushnumber( m_pLuaState, nValue );  }

  00072	83 ec 08	 sub	 esp, 8
; File C:\IAGOS\server\v18\Source\Source\_Common\RainbowRace.cpp

; 683  : 			m_Lua.PushNumber( (*it).nCompletedNum );

  00075	f3 0f e6 c0	 cvtdq2pd xmm0, xmm0
; File C:\IAGOS\server\v18\Source\Source\_Common\LuaBase.h

; 36   : 	void		PushNumber( double nValue )					{  lua_pushnumber( m_pLuaState, nValue );  }

  00079	f2 0f 11 04 24	 movsd	 QWORD PTR [esp], xmm0
  0007e	ff 77 24	 push	 DWORD PTR [edi+36]
  00081	e8 00 00 00 00	 call	 _lua_pushnumber
  00086	83 c4 0c	 add	 esp, 12			; 0000000cH
; File C:\IAGOS\server\v18\Source\Source\_Common\RainbowRace.cpp

; 684  : 			m_Lua.CallLuaFunction( 1, 1 );

  00089	8d 4f 20	 lea	 ecx, DWORD PTR [edi+32]
  0008c	6a 01		 push	 1
  0008e	6a 01		 push	 1
  00090	e8 00 00 00 00	 call	 ?CallLuaFunction@CLuaBase@@QAEXHH@Z ; CLuaBase::CallLuaFunction
; File C:\IAGOS\server\v18\Source\Source\_Common\LuaBase.h

; 33   : 	BOOL		IsNil( int nStackPos )						{  return lua_isnil( m_pLuaState, nStackPos );  }

  00095	6a ff		 push	 -1
  00097	ff 77 24	 push	 DWORD PTR [edi+36]
  0009a	e8 00 00 00 00	 call	 _lua_type
  0009f	83 c4 08	 add	 esp, 8
  000a2	85 c0		 test	 eax, eax
; File C:\IAGOS\server\v18\Source\Source\_Common\RainbowRace.cpp

; 685  : 			if( !m_Lua.IsNil( -1 ) )

  000a4	0f 84 64 01 00
	00		 je	 $LN7@SetMiniGam

; 686  : 			{
; 687  : 				CItemElem itemElem;

  000aa	8d 8d c0 fe ff
	ff		 lea	 ecx, DWORD PTR _itemElem$2[ebp]
  000b0	e8 00 00 00 00	 call	 ??0CItemElem@@QAE@XZ	; CItemElem::CItemElem

; 688  : 				itemElem.m_dwItemId = static_cast<DWORD>( CScript::GetDefineNum( m_Lua.GetFieldToString( -1, "strItemId" ) ) );

  000b5	68 00 00 00 00	 push	 OFFSET ??_C@_09OFFFBNFE@strItemId@
  000ba	6a ff		 push	 -1
  000bc	8d 4f 20	 lea	 ecx, DWORD PTR [edi+32]
  000bf	c7 45 fc 00 00
	00 00		 mov	 DWORD PTR __$EHRec$[ebp+8], 0
  000c6	e8 00 00 00 00	 call	 ?GetFieldToString@CLuaBase@@QAEPBDHPAD@Z ; CLuaBase::GetFieldToString
  000cb	50		 push	 eax
  000cc	e8 00 00 00 00	 call	 ?GetDefineNum@CScript@@SAHPBD@Z ; CScript::GetDefineNum
  000d1	83 c4 04	 add	 esp, 4
  000d4	89 85 cc fe ff
	ff		 mov	 DWORD PTR _itemElem$2[ebp+12], eax

; 689  : 				itemElem.m_nItemNum = static_cast<int>( m_Lua.GetFieldToNumber( -1, "nItemNum" ) );

  000da	8d 4f 20	 lea	 ecx, DWORD PTR [edi+32]
  000dd	68 00 00 00 00	 push	 OFFSET ??_C@_08GDJLCBND@nItemNum@
  000e2	6a ff		 push	 -1
  000e4	e8 00 00 00 00	 call	 ?GetFieldToNumber@CLuaBase@@QAENHPAD@Z ; CLuaBase::GetFieldToNumber
  000e9	dd 9d b8 fe ff
	ff		 fstp	 QWORD PTR tv673[ebp]
  000ef	f2 0f 2c 85 b8
	fe ff ff	 cvttsd2si eax, QWORD PTR tv673[ebp]

; 690  : 				itemElem.SetFlag( static_cast<BYTE>( m_Lua.GetFieldToNumber( -1, "byFlag" ) ) );

  000f7	68 00 00 00 00	 push	 OFFSET ??_C@_06JHHNJIGB@byFlag@
  000fc	6a ff		 push	 -1
  000fe	8d 4f 20	 lea	 ecx, DWORD PTR [edi+32]
  00101	66 89 85 34 ff
	ff ff		 mov	 WORD PTR _itemElem$2[ebp+116], ax
  00108	e8 00 00 00 00	 call	 ?GetFieldToNumber@CLuaBase@@QAENHPAD@Z ; CLuaBase::GetFieldToNumber
; File C:\IAGOS\server\v18\Source\Source\_Common\Project.h

; 1389 : 	VERIFY_RANGE_ASSERT( nIndex, 0, m_aPropItem.GetSize(), "GetItemProp range_error", NULL );

  0010d	8b 8d cc fe ff
	ff		 mov	 ecx, DWORD PTR _itemElem$2[ebp+12]
; File C:\IAGOS\server\v18\Source\Source\_Common\RainbowRace.cpp

; 690  : 				itemElem.SetFlag( static_cast<BYTE>( m_Lua.GetFieldToNumber( -1, "byFlag" ) ) );

  00113	dd 9d b8 fe ff
	ff		 fstp	 QWORD PTR tv669[ebp]
  00119	f2 0f 2c 85 b8
	fe ff ff	 cvttsd2si eax, QWORD PTR tv669[ebp]
; File C:\IAGOS\server\v18\Source\Source\_Common\Item.h

; 256  : 	void	SetFlag( BYTE byFlag )		{	m_byFlag	|= byFlag;		}

  00121	08 85 36 ff ff
	ff		 or	 BYTE PTR _itemElem$2[ebp+118], al
; File C:\IAGOS\server\v18\Source\Source\_Common\Project.h

; 1389 : 	VERIFY_RANGE_ASSERT( nIndex, 0, m_aPropItem.GetSize(), "GetItemProp range_error", NULL );

  00127	a1 40 02 00 00	 mov	 eax, DWORD PTR ?prj@@3VCProject@@A+576
  0012c	85 c9		 test	 ecx, ecx
  0012e	78 10		 js	 SHORT $LN54@SetMiniGam
  00130	3b c8		 cmp	 ecx, eax
  00132	7d 0c		 jge	 SHORT $LN54@SetMiniGam
; File C:\IAGOS\server\v18\Source\Source\_Common\data.h

; 270  : 	if( dwIndex >= (DWORD)m_nMaxIndex )

  00134	73 20		 jae	 SHORT $LN100@SetMiniGam

; 271  : 		return NULL;
; 272  : 	return (T*) m_apOffset[ dwIndex ];

  00136	a1 30 02 00 00	 mov	 eax, DWORD PTR ?prj@@3VCProject@@A+560
  0013b	8b 04 88	 mov	 eax, DWORD PTR [eax+ecx*4]
; File C:\IAGOS\server\v18\Source\Source\_Common\Project.h

; 1390 : 	return m_aPropItem.GetAt( nIndex ); 

  0013e	eb 18		 jmp	 SHORT $LN49@SetMiniGam
$LN54@SetMiniGam:

; 579  : 	LPCTSTR szErr = Error( _T( "%s min:%d, max:%d, index:%d" ), szMsg, nMin, nMax, nIndex ); 

  00140	51		 push	 ecx
  00141	50		 push	 eax
  00142	6a 00		 push	 0
  00144	68 00 00 00 00	 push	 OFFSET ??_C@_0BI@BEIFNGEL@GetItemProp?5range_error@
  00149	68 00 00 00 00	 push	 OFFSET ??_C@_0BM@HMFGHCP@?$CFs?5min?3?$CFd?0?5max?3?$CFd?0?5index?3?$CFd@
  0014e	e8 00 00 00 00	 call	 ?Error@@YAPBDPBDZZ	; Error
  00153	83 c4 14	 add	 esp, 20			; 00000014H
$LN100@SetMiniGam:
; File C:\IAGOS\server\v18\Source\Source\_Common\RainbowRace.cpp

; 691  : 				itemElem.m_bCharged = itemElem.GetProp()->bCharged;

  00156	33 c0		 xor	 eax, eax
$LN49@SetMiniGam:
  00158	8b 80 ec 00 00
	00		 mov	 eax, DWORD PTR [eax+236]

; 692  : 				char szText[128] = {0,};

  0015e	68 80 00 00 00	 push	 128			; 00000080H
  00163	89 85 64 ff ff
	ff		 mov	 DWORD PTR _itemElem$2[ebp+164], eax
  00169	8d 85 70 ff ff
	ff		 lea	 eax, DWORD PTR _szText$3[ebp]
  0016f	6a 00		 push	 0
  00171	50		 push	 eax
  00172	e8 00 00 00 00	 call	 _memset
; File C:\IAGOS\server\v18\Source\Source\_Common\Project.h

; 1427 : 	VERIFY_RANGE( (int)( dwIndex ), 0, m_colorText.GetSize(), "GetText range_error", "error" );

  00177	a1 ac 02 00 00	 mov	 eax, DWORD PTR ?prj@@3VCProject@@A+684
; File C:\IAGOS\server\v18\Source\Source\_Common\RainbowRace.cpp

; 692  : 				char szText[128] = {0,};

  0017c	83 c4 0c	 add	 esp, 12			; 0000000cH
; File C:\IAGOS\server\v18\Source\Source\_Common\Project.h

; 1427 : 	VERIFY_RANGE( (int)( dwIndex ), 0, m_colorText.GetSize(), "GetText range_error", "error" );

  0017f	3d f4 0f 00 00	 cmp	 eax, 4084		; 00000ff4H
  00184	7f 21		 jg	 SHORT $LN62@SetMiniGam

; 579  : 	LPCTSTR szErr = Error( _T( "%s min:%d, max:%d, index:%d" ), szMsg, nMin, nMax, nIndex ); 

  00186	68 f4 0f 00 00	 push	 4084			; 00000ff4H
  0018b	50		 push	 eax
  0018c	6a 00		 push	 0
  0018e	68 00 00 00 00	 push	 OFFSET ??_C@_0BE@OHDBLHOM@GetText?5range_error@
  00193	68 00 00 00 00	 push	 OFFSET ??_C@_0BM@HMFGHCP@?$CFs?5min?3?$CFd?0?5max?3?$CFd?0?5index?3?$CFd@
  00198	e8 00 00 00 00	 call	 ?Error@@YAPBDPBDZZ	; Error
  0019d	83 c4 14	 add	 esp, 20			; 00000014H

; 1427 : 	VERIFY_RANGE( (int)( dwIndex ), 0, m_colorText.GetSize(), "GetText range_error", "error" );

  001a0	b9 00 00 00 00	 mov	 ecx, OFFSET ??_C@_05KKCIMGE@error@
  001a5	eb 1b		 jmp	 SHORT $LN61@SetMiniGam
$LN62@SetMiniGam:
; File C:\IAGOS\server\v18\Source\Source\_Common\data.h

; 270  : 	if( dwIndex >= (DWORD)m_nMaxIndex )

  001a7	76 14		 jbe	 SHORT $LN98@SetMiniGam

; 271  : 		return NULL;
; 272  : 	return (T*) m_apOffset[ dwIndex ];

  001a9	a1 9c 02 00 00	 mov	 eax, DWORD PTR ?prj@@3VCProject@@A+668
  001ae	8b 88 d0 3f 00
	00		 mov	 ecx, DWORD PTR [eax+16336]
; File C:\IAGOS\server\v18\Source\Source\_Common\Project.h

; 1428 : 	if( m_colorText.GetAt( dwIndex ) == NULL )

  001b4	85 c9		 test	 ecx, ecx
  001b6	74 05		 je	 SHORT $LN98@SetMiniGam

; 1430 : 	return m_colorText.GetAt( dwIndex )->lpszData; 

  001b8	8b 49 04	 mov	 ecx, DWORD PTR [ecx+4]
  001bb	eb 05		 jmp	 SHORT $LN61@SetMiniGam
$LN98@SetMiniGam:

; 1429 : 		return "";

  001bd	b9 00 00 00 00	 mov	 ecx, OFFSET ??_C@_00CNPNBAHC@@
$LN61@SetMiniGam:
; File C:\IAGOS\server\v18\Source\Source\_Common\RainbowRace.cpp

; 693  : 				strcpy( szText, GETTEXT( TID_GAME_RAINBOWRACE_MINIGAMEPRIZE ) );

  001c2	8d 95 70 ff ff
	ff		 lea	 edx, DWORD PTR _szText$3[ebp]
  001c8	2b d1		 sub	 edx, ecx
  001ca	66 0f 1f 44 00
	00		 npad	 6
$LL9@SetMiniGam:
  001d0	8a 01		 mov	 al, BYTE PTR [ecx]
  001d2	8d 49 01	 lea	 ecx, DWORD PTR [ecx+1]
  001d5	88 44 0a ff	 mov	 BYTE PTR [edx+ecx-1], al
  001d9	84 c0		 test	 al, al
  001db	75 f3		 jne	 SHORT $LL9@SetMiniGam

; 694  : 				g_dpDBClient.SendQueryPostMail( (*it).dwPlayerId, 0, itemElem, 0, szText, szText );

  001dd	8d 85 70 ff ff
	ff		 lea	 eax, DWORD PTR _szText$3[ebp]
  001e3	b9 00 00 00 00	 mov	 ecx, OFFSET ?g_dpDBClient@@3VCDPDatabaseClient@@A ; g_dpDBClient
  001e8	50		 push	 eax
  001e9	50		 push	 eax
  001ea	6a 00		 push	 0
  001ec	8d 85 c0 fe ff
	ff		 lea	 eax, DWORD PTR _itemElem$2[ebp]
  001f2	50		 push	 eax
  001f3	6a 00		 push	 0
  001f5	ff 36		 push	 DWORD PTR [esi]
  001f7	e8 00 00 00 00	 call	 ?SendQueryPostMail@CDPDatabaseClient@@QAEXKKAAVCItemElem@@HPAD1@Z ; CDPDatabaseClient::SendQueryPostMail

; 695  : 			}

  001fc	8d 8d c0 fe ff
	ff		 lea	 ecx, DWORD PTR _itemElem$2[ebp]
  00202	c7 45 fc ff ff
	ff ff		 mov	 DWORD PTR __$EHRec$[ebp+8], -1
  00209	e8 00 00 00 00	 call	 ??1CItemElem@@UAE@XZ	; CItemElem::~CItemElem
$LN7@SetMiniGam:
; File C:\Program Files\Microsoft Visual Studio\2022\Professional\VC\Tools\MSVC\14.44.35207\include\xutility

; 5147 :                 return _STD _Copy_memmove(_First, _Last, _Dest);

  0020e	56		 push	 esi
  0020f	ff 77 04	 push	 DWORD PTR [edi+4]
  00212	8d 46 0c	 lea	 eax, DWORD PTR [esi+12]
  00215	50		 push	 eax
  00216	e8 00 00 00 00	 call	 ??$_Copy_memmove@PAUMINIGMAME_PRIZE_LIST@CRainbowRaceMng@@PAU12@@std@@YAPAUMINIGMAME_PRIZE_LIST@CRainbowRaceMng@@PAU12@00@Z ; std::_Copy_memmove<CRainbowRaceMng::MINIGMAME_PRIZE_LIST *,CRainbowRaceMng::MINIGMAME_PRIZE_LIST *>
; File C:\Program Files\Microsoft Visual Studio\2022\Professional\VC\Tools\MSVC\14.44.35207\include\vector

; 1778 :         --_Mylast;

  0021b	83 47 04 f4	 add	 DWORD PTR [edi+4], -12	; fffffff4H
; File C:\IAGOS\server\v18\Source\Source\_Common\RainbowRace.cpp

; 698  : 		m_Lua.Pop( 0 );

  0021f	8d 4f 20	 lea	 ecx, DWORD PTR [edi+32]
; File C:\Program Files\Microsoft Visual Studio\2022\Professional\VC\Tools\MSVC\14.44.35207\include\xutility

; 5147 :                 return _STD _Copy_memmove(_First, _Last, _Dest);

  00222	83 c4 0c	 add	 esp, 12			; 0000000cH
; File C:\IAGOS\server\v18\Source\Source\_Common\RainbowRace.cpp

; 698  : 		m_Lua.Pop( 0 );

  00225	6a 00		 push	 0
  00227	e8 00 00 00 00	 call	 ?Pop@CLuaBase@@QAEXH@Z	; CLuaBase::Pop
  0022c	8b 4d 08	 mov	 ecx, DWORD PTR _dwTick$[ebp]
$LN2@SetMiniGam:
; File C:\Program Files\Microsoft Visual Studio\2022\Professional\VC\Tools\MSVC\14.44.35207\include\vector

; 176  :         return !(*this == _Right);

  0022f	3b 77 04	 cmp	 esi, DWORD PTR [edi+4]
; File C:\IAGOS\server\v18\Source\Source\_Common\RainbowRace.cpp

; 673  : 	for( vector<MINIGMAME_PRIZE_LIST>::iterator it=m_vecMiniGamePrizeList.begin(); it!=m_vecMiniGamePrizeList.end(); )

  00232	0f 85 08 fe ff
	ff		 jne	 $LL4@SetMiniGam
$LN3@SetMiniGam:

; 699  : 	}
; 700  : }

  00238	8b 4d f4	 mov	 ecx, DWORD PTR __$EHRec$[ebp]
  0023b	64 89 0d 00 00
	00 00		 mov	 DWORD PTR fs:0, ecx
  00242	59		 pop	 ecx
  00243	5f		 pop	 edi
  00244	5e		 pop	 esi
  00245	5b		 pop	 ebx
  00246	8b 4d f0	 mov	 ecx, DWORD PTR __$ArrayPad$[ebp]
  00249	33 cd		 xor	 ecx, ebp
  0024b	e8 00 00 00 00	 call	 @__security_check_cookie@4
  00250	8b e5		 mov	 esp, ebp
  00252	5d		 pop	 ebp
  00253	c2 04 00	 ret	 4
_TEXT	ENDS
;	COMDAT text$x
text$x	SEGMENT
__unwindfunclet$?SetMiniGamePrize@CRainbowRaceMng@@AAEXK@Z$0:
  00000	8d 8d c0 fe ff
	ff		 lea	 ecx, DWORD PTR _itemElem$2[ebp]
  00006	e9 00 00 00 00	 jmp	 ??1CItemElem@@UAE@XZ	; CItemElem::~CItemElem
  0000b	cc		 int	 3
  0000c	cc		 int	 3
  0000d	cc		 int	 3
  0000e	cc		 int	 3
  0000f	cc		 int	 3
__ehhandler$?SetMiniGamePrize@CRainbowRaceMng@@AAEXK@Z:
  00010	90		 npad	 1
  00011	90		 npad	 1
  00012	8b 54 24 08	 mov	 edx, DWORD PTR [esp+8]
  00016	8d 42 0c	 lea	 eax, DWORD PTR [edx+12]
  00019	8b 8a b4 fe ff
	ff		 mov	 ecx, DWORD PTR [edx-332]
  0001f	33 c8		 xor	 ecx, eax
  00021	e8 00 00 00 00	 call	 @__security_check_cookie@4
  00026	8b 4a fc	 mov	 ecx, DWORD PTR [edx-4]
  00029	33 c8		 xor	 ecx, eax
  0002b	e8 00 00 00 00	 call	 @__security_check_cookie@4
  00030	b8 00 00 00 00	 mov	 eax, OFFSET __ehfuncinfo$?SetMiniGamePrize@CRainbowRaceMng@@AAEXK@Z
  00035	e9 00 00 00 00	 jmp	 ___CxxFrameHandler3
text$x	ENDS
?SetMiniGamePrize@CRainbowRaceMng@@AAEXK@Z ENDP		; CRainbowRaceMng::SetMiniGamePrize
; Function compile flags: /Ogtp
; File C:\Program Files\Microsoft Visual Studio\2022\Professional\VC\Tools\MSVC\14.44.35207\include\vector
;	COMDAT ?_Xlength@?$vector@UMINIGMAME_PRIZE_LIST@CRainbowRaceMng@@V?$allocator@UMINIGMAME_PRIZE_LIST@CRainbowRaceMng@@@std@@@std@@CAXXZ
_TEXT	SEGMENT
?_Xlength@?$vector@UMINIGMAME_PRIZE_LIST@CRainbowRaceMng@@V?$allocator@UMINIGMAME_PRIZE_LIST@CRainbowRaceMng@@@std@@@std@@CAXXZ PROC ; std::vector<CRainbowRaceMng::MINIGMAME_PRIZE_LIST,std::allocator<CRainbowRaceMng::MINIGMAME_PRIZE_LIST> >::_Xlength, COMDAT

; 2184 :         _Xlength_error("vector too long");

  00000	68 00 00 00 00	 push	 OFFSET ??_C@_0BA@FOIKENOD@vector?5too?5long@
  00005	e8 00 00 00 00	 call	 ?_Xlength_error@std@@YAXPBD@Z ; std::_Xlength_error
$LN3@Xlength:
  0000a	cc		 int	 3
?_Xlength@?$vector@UMINIGMAME_PRIZE_LIST@CRainbowRaceMng@@V?$allocator@UMINIGMAME_PRIZE_LIST@CRainbowRaceMng@@@std@@@std@@CAXXZ ENDP ; std::vector<CRainbowRaceMng::MINIGMAME_PRIZE_LIST,std::allocator<CRainbowRaceMng::MINIGMAME_PRIZE_LIST> >::_Xlength
_TEXT	ENDS
; Function compile flags: /Ogtp
; File C:\Program Files\Microsoft Visual Studio\2022\Professional\VC\Tools\MSVC\14.44.35207\include\vector
; File C:\Program Files\Microsoft Visual Studio\2022\Professional\VC\Tools\MSVC\14.44.35207\include\xmemory
; File C:\Program Files\Microsoft Visual Studio\2022\Professional\VC\Tools\MSVC\14.44.35207\include\vector
; File C:\Program Files\Microsoft Visual Studio\2022\Professional\VC\Tools\MSVC\14.44.35207\include\xmemory
; File C:\Program Files\Microsoft Visual Studio\2022\Professional\VC\Tools\MSVC\14.44.35207\include\vector
; File C:\Program Files\Microsoft Visual Studio\2022\Professional\VC\Tools\MSVC\14.44.35207\include\xmemory
; File C:\Program Files\Microsoft Visual Studio\2022\Professional\VC\Tools\MSVC\14.44.35207\include\vector
;	COMDAT ??1?$vector@UMINIGMAME_PRIZE_LIST@CRainbowRaceMng@@V?$allocator@UMINIGMAME_PRIZE_LIST@CRainbowRaceMng@@@std@@@std@@QAE@XZ
_TEXT	SEGMENT
??1?$vector@UMINIGMAME_PRIZE_LIST@CRainbowRaceMng@@V?$allocator@UMINIGMAME_PRIZE_LIST@CRainbowRaceMng@@@std@@@std@@QAE@XZ PROC ; std::vector<CRainbowRaceMng::MINIGMAME_PRIZE_LIST,std::allocator<CRainbowRaceMng::MINIGMAME_PRIZE_LIST> >::~vector<CRainbowRaceMng::MINIGMAME_PRIZE_LIST,std::allocator<CRainbowRaceMng::MINIGMAME_PRIZE_LIST> >, COMDAT
; _this$ = ecx

; 829  :     _CONSTEXPR20 ~vector() noexcept {

  00000	56		 push	 esi
  00001	57		 push	 edi
  00002	8b f9		 mov	 edi, ecx

; 2090 :         if (_Myfirst) { // destroy and deallocate old array

  00004	8b 37		 mov	 esi, DWORD PTR [edi]
  00006	85 f6		 test	 esi, esi
  00008	74 53		 je	 SHORT $LN5@vector

; 2091 :             _STD _Destroy_range(_Myfirst, _Mylast, _Al);
; 2092 :             _ASAN_VECTOR_REMOVE;
; 2093 :             _Al.deallocate(_Myfirst, static_cast<size_type>(_Myend - _Myfirst));

  0000a	8b 4f 08	 mov	 ecx, DWORD PTR [edi+8]
  0000d	b8 ab aa aa 2a	 mov	 eax, 715827883		; 2aaaaaabH
  00012	2b ce		 sub	 ecx, esi
  00014	f7 e9		 imul	 ecx
  00016	d1 fa		 sar	 edx, 1
  00018	8b c2		 mov	 eax, edx
  0001a	c1 e8 1f	 shr	 eax, 31			; 0000001fH
  0001d	03 c2		 add	 eax, edx
; File C:\Program Files\Microsoft Visual Studio\2022\Professional\VC\Tools\MSVC\14.44.35207\include\xmemory

; 985  :         _STD _Deallocate<_New_alignof<_Ty>>(_Ptr, sizeof(_Ty) * _Count);

  0001f	8d 0c 40	 lea	 ecx, DWORD PTR [eax+eax*2]
  00022	c1 e1 02	 shl	 ecx, 2

; 284  :         if (_Bytes >= _Big_allocation_threshold) {

  00025	81 f9 00 10 00
	00		 cmp	 ecx, 4096		; 00001000H
  0002b	72 12		 jb	 SHORT $LN18@vector

; 205  :     const uintptr_t _Ptr_container   = _Ptr_user[-1];

  0002d	8b 56 fc	 mov	 edx, DWORD PTR [esi-4]
  00030	83 c1 23	 add	 ecx, 35			; 00000023H

; 206  : 
; 207  :     // If the following asserts, it likely means that we are performing
; 208  :     // an aligned delete on memory coming from an unaligned allocation.
; 209  :     _STL_ASSERT(_Ptr_user[-2] == _Big_allocation_sentinel, "invalid argument");
; 210  : 
; 211  :     // Extra paranoia on aligned allocation/deallocation; ensure _Ptr_container is
; 212  :     // in range [_Min_back_shift, _Non_user_size]
; 213  : #ifdef _DEBUG
; 214  :     constexpr uintptr_t _Min_back_shift = 2 * sizeof(void*);
; 215  : #else // ^^^ defined(_DEBUG) / !defined(_DEBUG) vvv
; 216  :     constexpr uintptr_t _Min_back_shift = sizeof(void*);
; 217  : #endif // ^^^ !defined(_DEBUG) ^^^
; 218  :     const uintptr_t _Back_shift = reinterpret_cast<uintptr_t>(_Ptr) - _Ptr_container;

  00033	2b f2		 sub	 esi, edx

; 219  :     _STL_VERIFY(_Back_shift >= _Min_back_shift && _Back_shift <= _Non_user_size, "invalid argument");

  00035	8d 46 fc	 lea	 eax, DWORD PTR [esi-4]
  00038	83 f8 1f	 cmp	 eax, 31			; 0000001fH
  0003b	77 23		 ja	 SHORT $LN17@vector

; 220  :     _Ptr = reinterpret_cast<void*>(_Ptr_container);

  0003d	8b f2		 mov	 esi, edx
$LN18@vector:

; 289  :         ::operator delete(_Ptr, _Bytes);

  0003f	51		 push	 ecx
  00040	56		 push	 esi
  00041	e8 00 00 00 00	 call	 ??3@YAXPAXI@Z		; operator delete
; File C:\Program Files\Microsoft Visual Studio\2022\Professional\VC\Tools\MSVC\14.44.35207\include\vector

; 2095 :             _Myfirst = nullptr;

  00046	c7 07 00 00 00
	00		 mov	 DWORD PTR [edi], 0
; File C:\Program Files\Microsoft Visual Studio\2022\Professional\VC\Tools\MSVC\14.44.35207\include\xmemory

; 289  :         ::operator delete(_Ptr, _Bytes);

  0004c	83 c4 08	 add	 esp, 8
; File C:\Program Files\Microsoft Visual Studio\2022\Professional\VC\Tools\MSVC\14.44.35207\include\vector

; 2096 :             _Mylast  = nullptr;

  0004f	c7 47 04 00 00
	00 00		 mov	 DWORD PTR [edi+4], 0

; 2097 :             _Myend   = nullptr;

  00056	c7 47 08 00 00
	00 00		 mov	 DWORD PTR [edi+8], 0
$LN5@vector:
  0005d	5f		 pop	 edi

; 835  :     }

  0005e	5e		 pop	 esi
  0005f	c3		 ret	 0
$LN17@vector:
; File C:\Program Files\Microsoft Visual Studio\2022\Professional\VC\Tools\MSVC\14.44.35207\include\xmemory

; 219  :     _STL_VERIFY(_Back_shift >= _Min_back_shift && _Back_shift <= _Non_user_size, "invalid argument");

  00060	6a 00		 push	 0
  00062	6a 00		 push	 0
  00064	6a 00		 push	 0
  00066	6a 00		 push	 0
  00068	6a 00		 push	 0
  0006a	e8 00 00 00 00	 call	 __invoke_watson
$LN26@vector:
  0006f	cc		 int	 3
??1?$vector@UMINIGMAME_PRIZE_LIST@CRainbowRaceMng@@V?$allocator@UMINIGMAME_PRIZE_LIST@CRainbowRaceMng@@@std@@@std@@QAE@XZ ENDP ; std::vector<CRainbowRaceMng::MINIGMAME_PRIZE_LIST,std::allocator<CRainbowRaceMng::MINIGMAME_PRIZE_LIST> >::~vector<CRainbowRaceMng::MINIGMAME_PRIZE_LIST,std::allocator<CRainbowRaceMng::MINIGMAME_PRIZE_LIST> >
_TEXT	ENDS
; Function compile flags: /Ogtp
; File C:\IAGOS\server\v18\Source\Source\_Common\RainbowRace.cpp
; File C:\Program Files\Microsoft Visual Studio\2022\Professional\VC\Tools\MSVC\14.44.35207\include\vector
; File C:\IAGOS\server\v18\Source\Source\_Common\RainbowRace.cpp
; File C:\Program Files\Microsoft Visual Studio\2022\Professional\VC\Tools\MSVC\14.44.35207\include\vector
; File C:\IAGOS\server\v18\Source\Source\_Common\RainbowRace.cpp
; File C:\Program Files\Microsoft Visual Studio\2022\Professional\VC\Tools\MSVC\14.44.35207\include\vector
; File C:\IAGOS\server\v18\Source\Source\_Common\RainbowRace.cpp
; File C:\Program Files\Microsoft Visual Studio\2022\Professional\VC\Tools\MSVC\14.44.35207\include\vector
; File C:\Program Files\Microsoft Visual Studio\2022\Professional\VC\Tools\MSVC\14.44.35207\include\xmemory
; File C:\Program Files\Microsoft Visual Studio\2022\Professional\VC\Tools\MSVC\14.44.35207\include\vector
; File C:\Program Files\Microsoft Visual Studio\2022\Professional\VC\Tools\MSVC\14.44.35207\include\xmemory
; File C:\Program Files\Microsoft Visual Studio\2022\Professional\VC\Tools\MSVC\14.44.35207\include\vector
; File C:\Program Files\Microsoft Visual Studio\2022\Professional\VC\Tools\MSVC\14.44.35207\include\xmemory
; File C:\Program Files\Microsoft Visual Studio\2022\Professional\VC\Tools\MSVC\14.44.35207\include\vector
; File C:\Program Files\Microsoft Visual Studio\2022\Professional\VC\Tools\MSVC\14.44.35207\include\xmemory
; File C:\Program Files\Microsoft Visual Studio\2022\Professional\VC\Tools\MSVC\14.44.35207\include\vector
; File C:\Program Files\Microsoft Visual Studio\2022\Professional\VC\Tools\MSVC\14.44.35207\include\xmemory
; File C:\Program Files\Microsoft Visual Studio\2022\Professional\VC\Tools\MSVC\14.44.35207\include\vector
; File C:\Program Files\Microsoft Visual Studio\2022\Professional\VC\Tools\MSVC\14.44.35207\include\xmemory
; File C:\Program Files\Microsoft Visual Studio\2022\Professional\VC\Tools\MSVC\14.44.35207\include\vector
; File C:\IAGOS\server\v18\Source\Source\_Common\RainbowRace.cpp
; File C:\Program Files\Microsoft Visual Studio\2022\Professional\VC\Tools\MSVC\14.44.35207\include\xmemory
; File C:\Program Files\Microsoft Visual Studio\2022\Professional\VC\Tools\MSVC\14.44.35207\include\vector
; File C:\IAGOS\server\v18\Source\Source\_Common\RainbowRace.cpp
;	COMDAT ?GetPrevRanking@CRainbowRaceMng@@QAE?AV?$vector@KV?$allocator@K@std@@@std@@XZ
_TEXT	SEGMENT
_this$1$ = -40						; size = 4
__Newsize$1$ = -36					; size = 4
__Val$1$ = -32						; size = 4
__Oldsize$1$ = -28					; size = 4
tv832 = -28						; size = 4
$T3 = -24						; size = 4
_i$1$ = -20						; size = 4
tv833 = -16						; size = 4
__$EHRec$ = -12						; size = 12
___$ReturnUdt$ = 8					; size = 4
?GetPrevRanking@CRainbowRaceMng@@QAE?AV?$vector@KV?$allocator@K@std@@@std@@XZ PROC ; CRainbowRaceMng::GetPrevRanking, COMDAT
; _this$ = ecx

; 712  : {

  00000	55		 push	 ebp
  00001	8b ec		 mov	 ebp, esp
  00003	6a ff		 push	 -1
  00005	68 00 00 00 00	 push	 __ehhandler$?GetPrevRanking@CRainbowRaceMng@@QAE?AV?$vector@KV?$allocator@K@std@@@std@@XZ
  0000a	64 a1 00 00 00
	00		 mov	 eax, DWORD PTR fs:0
  00010	50		 push	 eax
  00011	83 ec 1c	 sub	 esp, 28			; 0000001cH
  00014	53		 push	 ebx
  00015	56		 push	 esi
  00016	57		 push	 edi
  00017	a1 00 00 00 00	 mov	 eax, DWORD PTR ___security_cookie
  0001c	33 c5		 xor	 eax, ebp
  0001e	50		 push	 eax
  0001f	8d 45 f4	 lea	 eax, DWORD PTR __$EHRec$[ebp]
  00022	64 a3 00 00 00
	00		 mov	 DWORD PTR fs:0, eax
  00028	8b c1		 mov	 eax, ecx
  0002a	89 45 d8	 mov	 DWORD PTR _this$1$[ebp], eax
  0002d	c7 45 e8 00 00
	00 00		 mov	 DWORD PTR $T3[ebp], 0
; File C:\Program Files\Microsoft Visual Studio\2022\Professional\VC\Tools\MSVC\14.44.35207\include\vector

; 400  :     _CONSTEXPR20 _Vector_val() noexcept : _Myfirst(), _Mylast(), _Myend() {}

  00034	8b 75 08	 mov	 esi, DWORD PTR ___$ReturnUdt$[ebp]
  00037	c7 06 00 00 00
	00		 mov	 DWORD PTR [esi], 0
  0003d	c7 46 04 00 00
	00 00		 mov	 DWORD PTR [esi+4], 0
  00044	c7 46 08 00 00
	00 00		 mov	 DWORD PTR [esi+8], 0
; File C:\IAGOS\server\v18\Source\Source\_Common\RainbowRace.cpp

; 717  : 	return vecPrevRanking;

  0004b	33 c9		 xor	 ecx, ecx
  0004d	c7 45 fc 00 00
	00 00		 mov	 DWORD PTR __$EHRec$[ebp+8], 0
  00054	c7 45 e8 01 00
	00 00		 mov	 DWORD PTR $T3[ebp], 1
; File C:\Program Files\Microsoft Visual Studio\2022\Professional\VC\Tools\MSVC\14.44.35207\include\vector

; 1914 :         auto& _My_data = _Mypair._Myval2;

  0005b	33 ff		 xor	 edi, edi
; File C:\IAGOS\server\v18\Source\Source\_Common\RainbowRace.cpp

; 714  : 	for( DWORD i=0; (i<5 && i<m_vecPrevRanking.size()); i++ )		// ЛѓРЇ 5РЇБюСіИИ...

  0005d	89 4d ec	 mov	 DWORD PTR _i$1$[ebp], ecx
$LL4@GetPrevRan:
; File C:\Program Files\Microsoft Visual Studio\2022\Professional\VC\Tools\MSVC\14.44.35207\include\vector

; 1915 :         return static_cast<size_type>(_My_data._Mylast - _My_data._Myfirst);

  00060	8b 50 48	 mov	 edx, DWORD PTR [eax+72]
  00063	8b 40 4c	 mov	 eax, DWORD PTR [eax+76]
  00066	2b c2		 sub	 eax, edx
  00068	c1 f8 02	 sar	 eax, 2
; File C:\IAGOS\server\v18\Source\Source\_Common\RainbowRace.cpp

; 714  : 	for( DWORD i=0; (i<5 && i<m_vecPrevRanking.size()); i++ )		// ЛѓРЇ 5РЇБюСіИИ...

  0006b	3b c8		 cmp	 ecx, eax
  0006d	0f 83 3a 01 00
	00		 jae	 $LN3@GetPrevRan
; File C:\Program Files\Microsoft Visual Studio\2022\Professional\VC\Tools\MSVC\14.44.35207\include\vector

; 1934 :         return _My_data._Myfirst[_Pos];

  00073	8d 04 8a	 lea	 eax, DWORD PTR [edx+ecx*4]

; 844  :         if (_Mylast != _My_data._Myend) {

  00076	8b 4e 08	 mov	 ecx, DWORD PTR [esi+8]

; 1934 :         return _My_data._Myfirst[_Pos];

  00079	89 45 e0	 mov	 DWORD PTR __Val$1$[ebp], eax

; 844  :         if (_Mylast != _My_data._Myend) {

  0007c	3b f9		 cmp	 edi, ecx
  0007e	74 10		 je	 SHORT $LN26@GetPrevRan

; 860  :             _STD _Construct_in_place(*_Mylast, _STD forward<_Valty>(_Val)...);

  00080	8b 00		 mov	 eax, DWORD PTR [eax]
  00082	89 07		 mov	 DWORD PTR [edi], eax

; 861  :         } else {
; 862  :             _ASAN_VECTOR_EXTEND_GUARD(static_cast<size_type>(_Mylast - _My_data._Myfirst) + 1);
; 863  :             _Alty_traits::construct(_Getal(), _Unfancy(_Mylast), _STD forward<_Valty>(_Val)...);
; 864  :             _ASAN_VECTOR_RELEASE_GUARD;
; 865  :         }
; 866  : 
; 867  :         _Orphan_range(_Mylast, _Mylast);
; 868  :         _Ty& _Result = *_Mylast;
; 869  :         ++_Mylast;

  00084	83 46 04 04	 add	 DWORD PTR [esi+4], 4
  00088	8b 7e 04	 mov	 edi, DWORD PTR [esi+4]

; 845  :             return _Emplace_back_with_unused_capacity(_STD forward<_Valty>(_Val)...);

  0008b	e9 09 01 00 00	 jmp	 $LN2@GetPrevRan
$LN26@GetPrevRan:

; 884  :         const auto _Whereoff = static_cast<size_type>(_Whereptr - _Myfirst);

  00090	8b 16		 mov	 edx, DWORD PTR [esi]
  00092	8b c7		 mov	 eax, edi
  00094	2b c2		 sub	 eax, edx
  00096	c1 f8 02	 sar	 eax, 2
  00099	89 45 e4	 mov	 DWORD PTR __Oldsize$1$[ebp], eax

; 885  :         const auto _Oldsize  = static_cast<size_type>(_Mylast - _Myfirst);
; 886  : 
; 887  :         if (_Oldsize == max_size()) {

  0009c	3d ff ff ff 3f	 cmp	 eax, 1073741823		; 3fffffffH
  000a1	0f 84 30 01 00
	00		 je	 $LN132@GetPrevRan

; 1924 :         return static_cast<size_type>(_My_data._Myend - _My_data._Myfirst);

  000a7	2b ca		 sub	 ecx, edx

; 891  :         const size_type _Newsize = _Oldsize + 1;

  000a9	8d 58 01	 lea	 ebx, DWORD PTR [eax+1]

; 1924 :         return static_cast<size_type>(_My_data._Myend - _My_data._Myfirst);

  000ac	c1 f9 02	 sar	 ecx, 2

; 2011 :         if (_Oldcapacity > _Max - _Oldcapacity / 2) {

  000af	b8 ff ff ff 3f	 mov	 eax, 1073741823		; 3fffffffH
  000b4	8b d1		 mov	 edx, ecx

; 891  :         const size_type _Newsize = _Oldsize + 1;

  000b6	89 5d dc	 mov	 DWORD PTR __Newsize$1$[ebp], ebx

; 2011 :         if (_Oldcapacity > _Max - _Oldcapacity / 2) {

  000b9	d1 ea		 shr	 edx, 1
  000bb	2b c2		 sub	 eax, edx
  000bd	3b c8		 cmp	 ecx, eax
  000bf	76 14		 jbe	 SHORT $LN37@GetPrevRan

; 2012 :             return _Max; // geometric growth would overflow

  000c1	b8 fc ff ff ff	 mov	 eax, -4			; fffffffcH
  000c6	c7 45 f0 fc ff
	ff ff		 mov	 DWORD PTR tv833[ebp], -4 ; fffffffcH
; File C:\Program Files\Microsoft Visual Studio\2022\Professional\VC\Tools\MSVC\14.44.35207\include\xmemory

; 253  :             return _Allocate_manually_vector_aligned<_Traits>(_Bytes);

  000cd	50		 push	 eax
  000ce	e8 00 00 00 00	 call	 ??$_Allocate_manually_vector_aligned@U_Default_allocate_traits@std@@@std@@YAPAXI@Z ; std::_Allocate_manually_vector_aligned<std::_Default_allocate_traits>
  000d3	eb 3d		 jmp	 SHORT $LN144@GetPrevRan
$LN37@GetPrevRan:
; File C:\Program Files\Microsoft Visual Studio\2022\Professional\VC\Tools\MSVC\14.44.35207\include\vector

; 2015 :         const size_type _Geometric = _Oldcapacity + _Oldcapacity / 2;

  000d5	8d 04 0a	 lea	 eax, DWORD PTR [edx+ecx]
; File C:\Program Files\Microsoft Visual Studio\2022\Professional\VC\Tools\MSVC\14.44.35207\include\xmemory

; 117  :         if (_Count > _Max_possible) {

  000d8	8b cb		 mov	 ecx, ebx
  000da	3b c3		 cmp	 eax, ebx
  000dc	0f 43 c8	 cmovae	 ecx, eax
  000df	81 f9 ff ff ff
	3f		 cmp	 ecx, 1073741823		; 3fffffffH
  000e5	0f 87 e7 00 00
	00		 ja	 $LN133@GetPrevRan

; 119  :         }
; 120  :     }
; 121  : 
; 122  :     return _Count * _Ty_size;

  000eb	8d 04 8d 00 00
	00 00		 lea	 eax, DWORD PTR [ecx*4]
  000f2	89 45 f0	 mov	 DWORD PTR tv833[ebp], eax

; 227  :     if (_Bytes == 0) {

  000f5	85 c0		 test	 eax, eax
  000f7	75 04		 jne	 SHORT $LN52@GetPrevRan

; 228  :         return nullptr;

  000f9	33 db		 xor	 ebx, ebx
  000fb	eb 1a		 jmp	 SHORT $LN51@GetPrevRan
$LN52@GetPrevRan:

; 229  :     }
; 230  : 
; 231  : #if _HAS_CXX20 // TRANSITION, GH-1532
; 232  :     if (_STD is_constant_evaluated()) {
; 233  :         return _Traits::_Allocate(_Bytes);
; 234  :     }
; 235  : #endif // _HAS_CXX20
; 236  : 
; 237  : #ifdef __cpp_aligned_new
; 238  :     if constexpr (_Align > __STDCPP_DEFAULT_NEW_ALIGNMENT__) {
; 239  :         size_t _Passed_align = _Align;
; 240  : #if defined(_M_IX86) || defined(_M_X64)
; 241  :         if (_Bytes >= _Big_allocation_threshold) {
; 242  :             // boost the alignment of big allocations to help autovectorization
; 243  :             _Passed_align = (_STD max)(_Align, _Big_allocation_alignment);
; 244  :         }
; 245  : #endif // defined(_M_IX86) || defined(_M_X64)
; 246  :         return _Traits::_Allocate_aligned(_Bytes, _Passed_align);
; 247  :     } else
; 248  : #endif // defined(__cpp_aligned_new)
; 249  :     {
; 250  : #if defined(_M_IX86) || defined(_M_X64)
; 251  :         if (_Bytes >= _Big_allocation_threshold) {

  000fd	3d 00 10 00 00	 cmp	 eax, 4096		; 00001000H
  00102	72 08		 jb	 SHORT $LN53@GetPrevRan

; 253  :             return _Allocate_manually_vector_aligned<_Traits>(_Bytes);

  00104	50		 push	 eax
  00105	e8 00 00 00 00	 call	 ??$_Allocate_manually_vector_aligned@U_Default_allocate_traits@std@@@std@@YAPAXI@Z ; std::_Allocate_manually_vector_aligned<std::_Default_allocate_traits>
  0010a	eb 06		 jmp	 SHORT $LN144@GetPrevRan
$LN53@GetPrevRan:

; 136  :         return ::operator new(_Bytes);

  0010c	50		 push	 eax
  0010d	e8 00 00 00 00	 call	 ??2@YAPAXI@Z		; operator new
$LN144@GetPrevRan:
; File C:\Program Files\Microsoft Visual Studio\2022\Professional\VC\Tools\MSVC\14.44.35207\include\vector

; 900  :         _Alty_traits::construct(_Al, _STD _Unfancy(_Newvec + _Whereoff), _STD forward<_Valty>(_Val)...);

  00112	8b d8		 mov	 ebx, eax
  00114	83 c4 04	 add	 esp, 4
$LN51@GetPrevRan:
  00117	8b 45 e4	 mov	 eax, DWORD PTR __Oldsize$1$[ebp]
  0011a	8d 0c 83	 lea	 ecx, DWORD PTR [ebx+eax*4]
  0011d	8b 45 e0	 mov	 eax, DWORD PTR __Val$1$[ebp]
  00120	89 4d e4	 mov	 DWORD PTR tv832[ebp], ecx
  00123	8b 00		 mov	 eax, DWORD PTR [eax]
  00125	89 01		 mov	 DWORD PTR [ecx], eax

; 901  :         _Constructed_first = _Newvec + _Whereoff;
; 902  : 
; 903  :         if (_Whereptr == _Mylast) { // at back, provide strong guarantee

  00127	8b 46 04	 mov	 eax, DWORD PTR [esi+4]
  0012a	3b f8		 cmp	 edi, eax
  0012c	75 06		 jne	 SHORT $LN32@GetPrevRan
; File C:\Program Files\Microsoft Visual Studio\2022\Professional\VC\Tools\MSVC\14.44.35207\include\xmemory

; 1992 :             _STD _Copy_memmove(_UFirst, _ULast, _STD _Unfancy(_Dest));

  0012e	8b 3e		 mov	 edi, DWORD PTR [esi]
  00130	8b cb		 mov	 ecx, ebx
; File C:\Program Files\Microsoft Visual Studio\2022\Professional\VC\Tools\MSVC\14.44.35207\include\vector

; 909  :         } else { // provide basic guarantee

  00132	eb 15		 jmp	 SHORT $LN81@GetPrevRan
$LN32@GetPrevRan:
; File C:\Program Files\Microsoft Visual Studio\2022\Professional\VC\Tools\MSVC\14.44.35207\include\xmemory

; 1992 :             _STD _Copy_memmove(_UFirst, _ULast, _STD _Unfancy(_Dest));

  00134	53		 push	 ebx
  00135	57		 push	 edi
  00136	ff 36		 push	 DWORD PTR [esi]
  00138	e8 00 00 00 00	 call	 ??$_Copy_memmove@PAKPAK@std@@YAPAKPAK00@Z ; std::_Copy_memmove<unsigned long *,unsigned long *>
; File C:\Program Files\Microsoft Visual Studio\2022\Professional\VC\Tools\MSVC\14.44.35207\include\vector

; 912  :             _STD _Uninitialized_move(_Whereptr, _Mylast, _Newvec + _Whereoff + 1, _Al);

  0013d	8b 4d e4	 mov	 ecx, DWORD PTR tv832[ebp]
; File C:\Program Files\Microsoft Visual Studio\2022\Professional\VC\Tools\MSVC\14.44.35207\include\xmemory

; 1992 :             _STD _Copy_memmove(_UFirst, _ULast, _STD _Unfancy(_Dest));

  00140	83 c4 0c	 add	 esp, 12			; 0000000cH
  00143	8b 46 04	 mov	 eax, DWORD PTR [esi+4]
; File C:\Program Files\Microsoft Visual Studio\2022\Professional\VC\Tools\MSVC\14.44.35207\include\vector

; 912  :             _STD _Uninitialized_move(_Whereptr, _Mylast, _Newvec + _Whereoff + 1, _Al);

  00146	83 c1 04	 add	 ecx, 4
$LN81@GetPrevRan:

; 913  :         }
; 914  : 
; 915  :         _Guard._New_begin = nullptr;

  00149	51		 push	 ecx
  0014a	50		 push	 eax
  0014b	57		 push	 edi
  0014c	e8 00 00 00 00	 call	 ??$_Copy_memmove@PAKPAK@std@@YAPAKPAK00@Z ; std::_Copy_memmove<unsigned long *,unsigned long *>

; 2069 :         if (_Myfirst) { // destroy and deallocate old array

  00151	8b 06		 mov	 eax, DWORD PTR [esi]

; 915  :         _Guard._New_begin = nullptr;

  00153	83 c4 0c	 add	 esp, 12			; 0000000cH

; 2069 :         if (_Myfirst) { // destroy and deallocate old array

  00156	85 c0		 test	 eax, eax
  00158	74 2c		 je	 SHORT $LN101@GetPrevRan

; 2070 :             _STD _Destroy_range(_Myfirst, _Mylast, _Al);
; 2071 :             _ASAN_VECTOR_REMOVE;
; 2072 :             _Al.deallocate(_Myfirst, static_cast<size_type>(_Myend - _Myfirst));

  0015a	8b 4e 08	 mov	 ecx, DWORD PTR [esi+8]
  0015d	2b c8		 sub	 ecx, eax
; File C:\Program Files\Microsoft Visual Studio\2022\Professional\VC\Tools\MSVC\14.44.35207\include\xmemory

; 985  :         _STD _Deallocate<_New_alignof<_Ty>>(_Ptr, sizeof(_Ty) * _Count);

  0015f	83 e1 fc	 and	 ecx, -4			; fffffffcH

; 284  :         if (_Bytes >= _Big_allocation_threshold) {

  00162	81 f9 00 10 00
	00		 cmp	 ecx, 4096		; 00001000H
  00168	72 12		 jb	 SHORT $LN106@GetPrevRan

; 205  :     const uintptr_t _Ptr_container   = _Ptr_user[-1];

  0016a	8b 50 fc	 mov	 edx, DWORD PTR [eax-4]
  0016d	83 c1 23	 add	 ecx, 35			; 00000023H

; 206  : 
; 207  :     // If the following asserts, it likely means that we are performing
; 208  :     // an aligned delete on memory coming from an unaligned allocation.
; 209  :     _STL_ASSERT(_Ptr_user[-2] == _Big_allocation_sentinel, "invalid argument");
; 210  : 
; 211  :     // Extra paranoia on aligned allocation/deallocation; ensure _Ptr_container is
; 212  :     // in range [_Min_back_shift, _Non_user_size]
; 213  : #ifdef _DEBUG
; 214  :     constexpr uintptr_t _Min_back_shift = 2 * sizeof(void*);
; 215  : #else // ^^^ defined(_DEBUG) / !defined(_DEBUG) vvv
; 216  :     constexpr uintptr_t _Min_back_shift = sizeof(void*);
; 217  : #endif // ^^^ !defined(_DEBUG) ^^^
; 218  :     const uintptr_t _Back_shift = reinterpret_cast<uintptr_t>(_Ptr) - _Ptr_container;

  00170	2b c2		 sub	 eax, edx

; 219  :     _STL_VERIFY(_Back_shift >= _Min_back_shift && _Back_shift <= _Non_user_size, "invalid argument");

  00172	83 c0 fc	 add	 eax, -4			; fffffffcH
  00175	83 f8 1f	 cmp	 eax, 31			; 0000001fH
  00178	77 49		 ja	 SHORT $LN134@GetPrevRan

; 220  :     _Ptr = reinterpret_cast<void*>(_Ptr_container);

  0017a	8b c2		 mov	 eax, edx
$LN106@GetPrevRan:

; 289  :         ::operator delete(_Ptr, _Bytes);

  0017c	51		 push	 ecx
  0017d	50		 push	 eax
  0017e	e8 00 00 00 00	 call	 ??3@YAXPAXI@Z		; operator delete
  00183	83 c4 08	 add	 esp, 8
$LN101@GetPrevRan:
; File C:\Program Files\Microsoft Visual Studio\2022\Professional\VC\Tools\MSVC\14.44.35207\include\vector

; 2076 :         _Mylast  = _Newvec + _Newsize;

  00186	8b 45 dc	 mov	 eax, DWORD PTR __Newsize$1$[ebp]
  00189	89 1e		 mov	 DWORD PTR [esi], ebx
  0018b	8d 3c 83	 lea	 edi, DWORD PTR [ebx+eax*4]

; 2077 :         _Myend   = _Newvec + _Newcapacity;

  0018e	8b 45 f0	 mov	 eax, DWORD PTR tv833[ebp]
  00191	03 c3		 add	 eax, ebx
  00193	89 7e 04	 mov	 DWORD PTR [esi+4], edi
  00196	89 46 08	 mov	 DWORD PTR [esi+8], eax
$LN2@GetPrevRan:
; File C:\IAGOS\server\v18\Source\Source\_Common\RainbowRace.cpp

; 714  : 	for( DWORD i=0; (i<5 && i<m_vecPrevRanking.size()); i++ )		// ЛѓРЇ 5РЇБюСіИИ...

  00199	8b 4d ec	 mov	 ecx, DWORD PTR _i$1$[ebp]
  0019c	41		 inc	 ecx
  0019d	89 4d ec	 mov	 DWORD PTR _i$1$[ebp], ecx
  001a0	83 f9 05	 cmp	 ecx, 5
  001a3	73 08		 jae	 SHORT $LN3@GetPrevRan
  001a5	8b 45 d8	 mov	 eax, DWORD PTR _this$1$[ebp]
  001a8	e9 b3 fe ff ff	 jmp	 $LL4@GetPrevRan
$LN3@GetPrevRan:

; 717  : 	return vecPrevRanking;

  001ad	8b c6		 mov	 eax, esi

; 718  : }

  001af	8b 4d f4	 mov	 ecx, DWORD PTR __$EHRec$[ebp]
  001b2	64 89 0d 00 00
	00 00		 mov	 DWORD PTR fs:0, ecx
  001b9	59		 pop	 ecx
  001ba	5f		 pop	 edi
  001bb	5e		 pop	 esi
  001bc	5b		 pop	 ebx
  001bd	8b e5		 mov	 esp, ebp
  001bf	5d		 pop	 ebp
  001c0	c2 04 00	 ret	 4
$LN134@GetPrevRan:
; File C:\Program Files\Microsoft Visual Studio\2022\Professional\VC\Tools\MSVC\14.44.35207\include\xmemory

; 219  :     _STL_VERIFY(_Back_shift >= _Min_back_shift && _Back_shift <= _Non_user_size, "invalid argument");

  001c3	6a 00		 push	 0
  001c5	6a 00		 push	 0
  001c7	6a 00		 push	 0
  001c9	6a 00		 push	 0
  001cb	6a 00		 push	 0
  001cd	e8 00 00 00 00	 call	 __invoke_watson
$LN133@GetPrevRan:

; 118  :             _Throw_bad_array_new_length(); // multiply overflow

  001d2	e8 00 00 00 00	 call	 ?_Throw_bad_array_new_length@std@@YAXXZ ; std::_Throw_bad_array_new_length
$LN132@GetPrevRan:
; File C:\Program Files\Microsoft Visual Studio\2022\Professional\VC\Tools\MSVC\14.44.35207\include\vector

; 888  :             _Xlength();

  001d7	e8 00 00 00 00	 call	 ?_Xlength@?$vector@KV?$allocator@K@std@@@std@@CAXXZ ; std::vector<unsigned long,std::allocator<unsigned long> >::_Xlength
$LN143@GetPrevRan:
  001dc	cc		 int	 3
_TEXT	ENDS
;	COMDAT text$x
text$x	SEGMENT
__unwindfunclet$?GetPrevRanking@CRainbowRaceMng@@QAE?AV?$vector@KV?$allocator@K@std@@@std@@XZ$0:
  00000	8b 45 e8	 mov	 eax, DWORD PTR $T3[ebp]
  00003	83 e0 01	 and	 eax, 1
  00006	0f 84 0c 00 00
	00		 je	 $LN7@GetPrevRan
  0000c	83 65 e8 fe	 and	 DWORD PTR $T3[ebp], -2	; fffffffeH
  00010	8b 4d 08	 mov	 ecx, DWORD PTR ___$ReturnUdt$[ebp]
  00013	e9 00 00 00 00	 jmp	 ??1?$vector@KV?$allocator@K@std@@@std@@QAE@XZ ; std::vector<unsigned long,std::allocator<unsigned long> >::~vector<unsigned long,std::allocator<unsigned long> >
$LN7@GetPrevRan:
  00018	c3		 ret	 0
  00019	cc		 int	 3
  0001a	cc		 int	 3
  0001b	cc		 int	 3
  0001c	cc		 int	 3
  0001d	cc		 int	 3
__ehhandler$?GetPrevRanking@CRainbowRaceMng@@QAE?AV?$vector@KV?$allocator@K@std@@@std@@XZ:
  0001e	90		 npad	 1
  0001f	90		 npad	 1
  00020	8b 54 24 08	 mov	 edx, DWORD PTR [esp+8]
  00024	8d 42 0c	 lea	 eax, DWORD PTR [edx+12]
  00027	8b 4a d4	 mov	 ecx, DWORD PTR [edx-44]
  0002a	33 c8		 xor	 ecx, eax
  0002c	e8 00 00 00 00	 call	 @__security_check_cookie@4
  00031	b8 00 00 00 00	 mov	 eax, OFFSET __ehfuncinfo$?GetPrevRanking@CRainbowRaceMng@@QAE?AV?$vector@KV?$allocator@K@std@@@std@@XZ
  00036	e9 00 00 00 00	 jmp	 ___CxxFrameHandler3
text$x	ENDS
?GetPrevRanking@CRainbowRaceMng@@QAE?AV?$vector@KV?$allocator@K@std@@@std@@XZ ENDP ; CRainbowRaceMng::GetPrevRanking
; Function compile flags: /Ogtp
; File C:\IAGOS\server\v18\Source\Source\_Common\RainbowRace.cpp
; File C:\Program Files\Microsoft Visual Studio\2022\Professional\VC\Tools\MSVC\14.44.35207\include\vector
; File C:\IAGOS\server\v18\Source\Source\_Common\RainbowRace.cpp
;	COMDAT ?SetPrevRanking@CRainbowRaceMng@@QAEXAAV?$vector@KV?$allocator@K@std@@@std@@@Z
_TEXT	SEGMENT
_vecPrevRanking$ = 8					; size = 4
?SetPrevRanking@CRainbowRaceMng@@QAEXAAV?$vector@KV?$allocator@K@std@@@std@@@Z PROC ; CRainbowRaceMng::SetPrevRanking, COMDAT
; _this$ = ecx

; 703  : {

  00000	55		 push	 ebp
  00001	8b ec		 mov	 ebp, esp
  00003	56		 push	 esi
  00004	8b f1		 mov	 esi, ecx

; 704  : 	if( !g_eLocal.GetState( EVE_RAINBOWRACE ) )

  00006	b9 00 00 00 00	 mov	 ecx, OFFSET ?g_eLocal@@3VCFlyffEvent@@A ; g_eLocal
  0000b	6a 19		 push	 25			; 00000019H
  0000d	e8 00 00 00 00	 call	 ?GetState@CFlyffEvent@@QAEEH@Z ; CFlyffEvent::GetState
  00012	84 c0		 test	 al, al
  00014	74 1b		 je	 SHORT $LN1@SetPrevRan
; File C:\Program Files\Microsoft Visual Studio\2022\Professional\VC\Tools\MSVC\14.44.35207\include\vector

; 1812 :         if (_Myfirst == _Mylast) { // already empty, nothing to do

  00016	8b 46 48	 mov	 eax, DWORD PTR [esi+72]
  00019	8d 4e 48	 lea	 ecx, DWORD PTR [esi+72]
  0001c	3b 41 04	 cmp	 eax, DWORD PTR [ecx+4]
  0001f	74 03		 je	 SHORT $LN4@SetPrevRan

; 1813 :             // This is an optimization for debug mode: we can avoid taking the debug lock to invalidate iterators.
; 1814 :             // Note that when clearing an empty vector, this will preserve past-the-end iterators, which is allowed by
; 1815 :             // N4950 [sequence.reqmts]/54 "a.clear() [...] may invalidate the past-the-end iterator".
; 1816 :             return;
; 1817 :         }
; 1818 : 
; 1819 :         _My_data._Orphan_all();
; 1820 :         _Destroy_range(_Myfirst, _Mylast, _Getal());
; 1821 :         _ASAN_VECTOR_MODIFY(static_cast<difference_type>(_Myfirst - _Mylast)); // negative when destroying elements
; 1822 :         _Mylast = _Myfirst;

  00021	89 41 04	 mov	 DWORD PTR [ecx+4], eax
$LN4@SetPrevRan:

; 46   :     _CONSTEXPR20 _Vector_const_iterator(_Tptr _Parg, const _Container_base* _Pvector) noexcept : _Ptr(_Parg) {

  00024	8b 45 08	 mov	 eax, DWORD PTR _vecPrevRanking$[ebp]
; File C:\IAGOS\server\v18\Source\Source\_Common\RainbowRace.cpp

; 708  : 	m_vecPrevRanking.assign( vecPrevRanking.begin(), vecPrevRanking.end() );

  00027	ff 70 04	 push	 DWORD PTR [eax+4]
  0002a	ff 30		 push	 DWORD PTR [eax]
  0002c	e8 00 00 00 00	 call	 ??$assign@V?$_Vector_iterator@V?$_Vector_val@U?$_Simple_types@K@std@@@std@@@std@@$0A@@?$vector@KV?$allocator@K@std@@@std@@QAEXV?$_Vector_iterator@V?$_Vector_val@U?$_Simple_types@K@std@@@std@@@1@0@Z ; std::vector<unsigned long,std::allocator<unsigned long> >::assign<std::_Vector_iterator<std::_Vector_val<std::_Simple_types<unsigned long> > >,0>
$LN1@SetPrevRan:
  00031	5e		 pop	 esi

; 709  : }

  00032	5d		 pop	 ebp
  00033	c2 04 00	 ret	 4
?SetPrevRanking@CRainbowRaceMng@@QAEXAAV?$vector@KV?$allocator@K@std@@@std@@@Z ENDP ; CRainbowRaceMng::SetPrevRanking
_TEXT	ENDS
; Function compile flags: /Ogtp
; File C:\IAGOS\server\v18\Source\Source\_Common\RainbowRace.cpp
; File C:\IAGOS\server\v18\Source\Source\_Common\RainbowRace.h
; File C:\IAGOS\server\v18\Source\Source\_Common\RainbowRace.cpp
; File C:\IAGOS\server\v18\Source\Source\_Common\RainbowRace.h
; File C:\IAGOS\server\v18\Source\Source\_Common\RainbowRace.cpp
; File C:\Program Files\Microsoft Visual Studio\2022\Professional\VC\Tools\MSVC\14.44.35207\include\vector
; File C:\IAGOS\server\v18\Source\Source\_Common\RainbowRace.cpp
; File C:\Program Files\Microsoft Visual Studio\2022\Professional\VC\Tools\MSVC\14.44.35207\include\vector
; File C:\IAGOS\server\v18\Source\Source\_Common\RainbowRace.cpp
; File C:\Program Files\Microsoft Visual Studio\2022\Professional\VC\Tools\MSVC\14.44.35207\include\vector
; File C:\IAGOS\server\v18\Source\Source\_Common\RainbowRace.cpp
; File C:\Program Files\Microsoft Visual Studio\2022\Professional\VC\Tools\MSVC\14.44.35207\include\vector
; File C:\IAGOS\server\v18\Source\Source\_Common\Project.h
; File C:\Program Files\Microsoft Visual Studio\2022\Professional\VC\Tools\MSVC\14.44.35207\include\vector
; File C:\IAGOS\server\v18\Source\Source\_Common\Project.h
; File C:\IAGOS\server\v18\Source\Source\_Common\data.h
; File C:\IAGOS\server\v18\Source\Source\_Common\Project.h
; File C:\IAGOS\server\v18\Source\Source\_Common\RainbowRace.cpp
;	COMDAT ?SetRanking@CRainbowRaceMng@@QAEXPAVCUser@@@Z
_TEXT	SEGMENT
_szText$1 = -260					; size = 255
__$ArrayPad$ = -4					; size = 4
_pUser$ = 8						; size = 4
?SetRanking@CRainbowRaceMng@@QAEXPAVCUser@@@Z PROC	; CRainbowRaceMng::SetRanking, COMDAT
; _this$ = ecx

; 589  : {

  00000	55		 push	 ebp
  00001	8b ec		 mov	 ebp, esp
  00003	81 ec 04 01 00
	00		 sub	 esp, 260		; 00000104H
  00009	a1 00 00 00 00	 mov	 eax, DWORD PTR ___security_cookie
  0000e	33 c5		 xor	 eax, ebp
  00010	89 45 fc	 mov	 DWORD PTR __$ArrayPad$[ebp], eax
  00013	53		 push	 ebx
  00014	56		 push	 esi
  00015	57		 push	 edi
  00016	8b 7d 08	 mov	 edi, DWORD PTR _pUser$[ebp]
  00019	8b f1		 mov	 esi, ecx

; 590  : 	CRainbowRace* pRainbowRace = GetRainbowRacerPtr( pUser->m_idPlayer );

  0001b	ff b7 34 02 00
	00		 push	 DWORD PTR [edi+564]
  00021	8d 9f 34 02 00
	00		 lea	 ebx, DWORD PTR [edi+564]
  00027	e8 00 00 00 00	 call	 ?GetRainbowRacerPtr@CRainbowRaceMng@@QAEPAVCRainbowRace@@K@Z ; CRainbowRaceMng::GetRainbowRacerPtr

; 591  : 	if( pRainbowRace )

  0002c	85 c0		 test	 eax, eax
  0002e	0f 84 f3 00 00
	00		 je	 $LN4@SetRanking

; 592  : 	{
; 593  : 		if( !pRainbowRace->IsFinished() )

  00034	83 78 08 00	 cmp	 DWORD PTR [eax+8], 0
  00038	0f 85 dd 00 00
	00		 jne	 $LN3@SetRanking
; File C:\IAGOS\server\v18\Source\Source\_Common\RainbowRace.h

; 22   : 	BOOL	IsAllCompleted() { return ( m_wGameState == (0x7fff >> (15 - RMG_MAX)) ); } // И№Еч ЙЬДЯАдРгРЛ ХЌИЎОю ЧпДТАЁ?

  0003e	66 83 38 7f	 cmp	 WORD PTR [eax], 127	; 0000007fH
; File C:\IAGOS\server\v18\Source\Source\_Common\RainbowRace.cpp

; 595  : 			if( pRainbowRace->IsAllCompleted() )

  00042	0f 85 cc 00 00
	00		 jne	 $LN5@SetRanking
; File C:\IAGOS\server\v18\Source\Source\_Common\RainbowRace.h

; 42   : 	void	SetFinish()	{ m_bFinished = TRUE; m_wGameState = 0x0000; }		// ПЯСж МГСЄ

  00048	33 c9		 xor	 ecx, ecx
  0004a	c7 40 08 01 00
	00 00		 mov	 DWORD PTR [eax+8], 1
  00051	66 89 08	 mov	 WORD PTR [eax], cx
; File C:\IAGOS\server\v18\Source\Source\_Common\RainbowRace.cpp

; 598  : 				pUser->AddRainbowRaceState( pRainbowRace );

  00054	8b cf		 mov	 ecx, edi
  00056	50		 push	 eax
  00057	e8 00 00 00 00	 call	 ?AddRainbowRaceState@CUser@@QAEXPAVCRainbowRace@@@Z ; CUser::AddRainbowRaceState

; 599  : 				m_vecdwRankingId.push_back( pUser->m_idPlayer );

  0005c	53		 push	 ebx
  0005d	8d 4e 3c	 lea	 ecx, DWORD PTR [esi+60]
  00060	e8 00 00 00 00	 call	 ?push_back@?$vector@KV?$allocator@K@std@@@std@@QAEXABK@Z ; std::vector<unsigned long,std::allocator<unsigned long> >::push_back
; File C:\Program Files\Microsoft Visual Studio\2022\Professional\VC\Tools\MSVC\14.44.35207\include\vector

; 1915 :         return static_cast<size_type>(_My_data._Mylast - _My_data._Myfirst);

  00065	8b 46 40	 mov	 eax, DWORD PTR [esi+64]
; File C:\IAGOS\server\v18\Source\Source\_Common\RainbowRace.cpp

; 600  : 				g_dpDBClient.SendRainbowRaceRanking( pUser->m_idPlayer, m_vecdwRankingId.size() );

  00068	b9 00 00 00 00	 mov	 ecx, OFFSET ?g_dpDBClient@@3VCDPDatabaseClient@@A ; g_dpDBClient
; File C:\Program Files\Microsoft Visual Studio\2022\Professional\VC\Tools\MSVC\14.44.35207\include\vector

; 1915 :         return static_cast<size_type>(_My_data._Mylast - _My_data._Myfirst);

  0006d	2b 46 3c	 sub	 eax, DWORD PTR [esi+60]
  00070	c1 f8 02	 sar	 eax, 2
; File C:\IAGOS\server\v18\Source\Source\_Common\RainbowRace.cpp

; 600  : 				g_dpDBClient.SendRainbowRaceRanking( pUser->m_idPlayer, m_vecdwRankingId.size() );

  00073	50		 push	 eax
  00074	ff 33		 push	 DWORD PTR [ebx]
  00076	e8 00 00 00 00	 call	 ?SendRainbowRaceRanking@CDPDatabaseClient@@QAEXKH@Z ; CDPDatabaseClient::SendRainbowRaceRanking

; 601  : 				char szText[255]  = {0,};

  0007b	68 ff 00 00 00	 push	 255			; 000000ffH
  00080	8d 85 fc fe ff
	ff		 lea	 eax, DWORD PTR _szText$1[ebp]
  00086	6a 00		 push	 0
  00088	50		 push	 eax
  00089	e8 00 00 00 00	 call	 _memset
; File C:\Program Files\Microsoft Visual Studio\2022\Professional\VC\Tools\MSVC\14.44.35207\include\vector

; 1915 :         return static_cast<size_type>(_My_data._Mylast - _My_data._Myfirst);

  0008e	8b 5e 40	 mov	 ebx, DWORD PTR [esi+64]
; File C:\IAGOS\server\v18\Source\Source\_Common\RainbowRace.cpp

; 601  : 				char szText[255]  = {0,};

  00091	83 c4 0c	 add	 esp, 12			; 0000000cH
; File C:\Program Files\Microsoft Visual Studio\2022\Professional\VC\Tools\MSVC\14.44.35207\include\vector

; 1915 :         return static_cast<size_type>(_My_data._Mylast - _My_data._Myfirst);

  00094	2b 5e 3c	 sub	 ebx, DWORD PTR [esi+60]
; File C:\IAGOS\server\v18\Source\Source\_Common\Project.h

; 1427 : 	VERIFY_RANGE( (int)( dwIndex ), 0, m_colorText.GetSize(), "GetText range_error", "error" );

  00097	a1 ac 02 00 00	 mov	 eax, DWORD PTR ?prj@@3VCProject@@A+684
; File C:\Program Files\Microsoft Visual Studio\2022\Professional\VC\Tools\MSVC\14.44.35207\include\vector

; 1915 :         return static_cast<size_type>(_My_data._Mylast - _My_data._Myfirst);

  0009c	c1 fb 02	 sar	 ebx, 2
; File C:\IAGOS\server\v18\Source\Source\_Common\Project.h

; 1427 : 	VERIFY_RANGE( (int)( dwIndex ), 0, m_colorText.GetSize(), "GetText range_error", "error" );

  0009f	3d b6 0f 00 00	 cmp	 eax, 4022		; 00000fb6H
  000a4	7f 21		 jg	 SHORT $LN19@SetRanking

; 579  : 	LPCTSTR szErr = Error( _T( "%s min:%d, max:%d, index:%d" ), szMsg, nMin, nMax, nIndex ); 

  000a6	68 b6 0f 00 00	 push	 4022			; 00000fb6H
  000ab	50		 push	 eax
  000ac	6a 00		 push	 0
  000ae	68 00 00 00 00	 push	 OFFSET ??_C@_0BE@OHDBLHOM@GetText?5range_error@
  000b3	68 00 00 00 00	 push	 OFFSET ??_C@_0BM@HMFGHCP@?$CFs?5min?3?$CFd?0?5max?3?$CFd?0?5index?3?$CFd@
  000b8	e8 00 00 00 00	 call	 ?Error@@YAPBDPBDZZ	; Error
  000bd	83 c4 14	 add	 esp, 20			; 00000014H

; 1427 : 	VERIFY_RANGE( (int)( dwIndex ), 0, m_colorText.GetSize(), "GetText range_error", "error" );

  000c0	b8 00 00 00 00	 mov	 eax, OFFSET ??_C@_05KKCIMGE@error@
  000c5	eb 1b		 jmp	 SHORT $LN18@SetRanking
$LN19@SetRanking:
; File C:\IAGOS\server\v18\Source\Source\_Common\data.h

; 270  : 	if( dwIndex >= (DWORD)m_nMaxIndex )

  000c7	76 14		 jbe	 SHORT $LN34@SetRanking

; 271  : 		return NULL;
; 272  : 	return (T*) m_apOffset[ dwIndex ];

  000c9	a1 9c 02 00 00	 mov	 eax, DWORD PTR ?prj@@3VCProject@@A+668
  000ce	8b 80 d8 3e 00
	00		 mov	 eax, DWORD PTR [eax+16088]
; File C:\IAGOS\server\v18\Source\Source\_Common\Project.h

; 1428 : 	if( m_colorText.GetAt( dwIndex ) == NULL )

  000d4	85 c0		 test	 eax, eax
  000d6	74 05		 je	 SHORT $LN34@SetRanking

; 1430 : 	return m_colorText.GetAt( dwIndex )->lpszData; 

  000d8	8b 40 04	 mov	 eax, DWORD PTR [eax+4]
  000db	eb 05		 jmp	 SHORT $LN18@SetRanking
$LN34@SetRanking:

; 1429 : 		return "";

  000dd	b8 00 00 00 00	 mov	 eax, OFFSET ??_C@_00CNPNBAHC@@
$LN18@SetRanking:
; File C:\IAGOS\server\v18\Source\Source\_Common\RainbowRace.cpp

; 602  : 				sprintf( szText, GETTEXT( TID_GAME_RAINBOWRACE_FINISH ), m_vecdwRankingId.size() );

  000e2	53		 push	 ebx
  000e3	50		 push	 eax
  000e4	8d 85 fc fe ff
	ff		 lea	 eax, DWORD PTR _szText$1[ebp]
  000ea	50		 push	 eax
  000eb	e8 00 00 00 00	 call	 _sprintf
  000f0	83 c4 0c	 add	 esp, 12			; 0000000cH

; 603  : 				pUser->AddDiagText( szText );

  000f3	8d 85 fc fe ff
	ff		 lea	 eax, DWORD PTR _szText$1[ebp]
  000f9	8b cf		 mov	 ecx, edi
  000fb	50		 push	 eax
  000fc	e8 00 00 00 00	 call	 ?AddDiagText@CUser@@QAEXPBD@Z ; CUser::AddDiagText
  00101	5f		 pop	 edi

; 611  : 	}
; 612  : }

  00102	5e		 pop	 esi
  00103	5b		 pop	 ebx
  00104	8b 4d fc	 mov	 ecx, DWORD PTR __$ArrayPad$[ebp]
  00107	33 cd		 xor	 ecx, ebp
  00109	e8 00 00 00 00	 call	 @__security_check_cookie@4
  0010e	8b e5		 mov	 esp, ebp
  00110	5d		 pop	 ebp
  00111	c2 04 00	 ret	 4
$LN5@SetRanking:

; 604  : 			}
; 605  : 			else
; 606  : 				pUser->AddDefinedText( TID_GAME_RAINBOWRACE_ISNOTALLCOMPLETED );

  00114	68 b8 0f 00 00	 push	 4024			; 00000fb8H

; 607  : 				
; 608  : 		}

  00119	eb 05		 jmp	 SHORT $LN41@SetRanking
$LN3@SetRanking:

; 609  : 		else
; 610  : 			pUser->AddDefinedText( TID_GAME_RAINBOWRACE_ISFINISHED );

  0011b	68 b7 0f 00 00	 push	 4023			; 00000fb7H
$LN41@SetRanking:

; 611  : 	}
; 612  : }

  00120	8b cf		 mov	 ecx, edi
  00122	e8 00 00 00 00	 call	 ?AddDefinedText@CUser@@QAEXH@Z ; CUser::AddDefinedText
$LN4@SetRanking:
  00127	8b 4d fc	 mov	 ecx, DWORD PTR __$ArrayPad$[ebp]
  0012a	5f		 pop	 edi
  0012b	5e		 pop	 esi
  0012c	33 cd		 xor	 ecx, ebp
  0012e	5b		 pop	 ebx
  0012f	e8 00 00 00 00	 call	 @__security_check_cookie@4
  00134	8b e5		 mov	 esp, ebp
  00136	5d		 pop	 ebp
  00137	c2 04 00	 ret	 4
?SetRanking@CRainbowRaceMng@@QAEXPAVCUser@@@Z ENDP	; CRainbowRaceMng::SetRanking
_TEXT	ENDS
; Function compile flags: /Ogtp
; File C:\IAGOS\server\v18\Source\Source\_Common\RainbowRace.cpp
;	COMDAT ?OnMiniGamePacket@CRainbowRaceMng@@QAEXPAVCUser@@PAU__MINIGAME_PACKET@@@Z
_TEXT	SEGMENT
_pUser$ = 8						; size = 4
_pMiniGamePacket$ = 12					; size = 4
?OnMiniGamePacket@CRainbowRaceMng@@QAEXPAVCUser@@PAU__MINIGAME_PACKET@@@Z PROC ; CRainbowRaceMng::OnMiniGamePacket, COMDAT
; _this$ = ecx

; 582  : {

  00000	55		 push	 ebp
  00001	8b ec		 mov	 ebp, esp
  00003	56		 push	 esi

; 583  : 	CRainbowRace* pRainbowRace = GetRainbowRacerPtr( pUser->m_idPlayer );

  00004	8b 75 08	 mov	 esi, DWORD PTR _pUser$[ebp]
  00007	ff b6 34 02 00
	00		 push	 DWORD PTR [esi+564]
  0000d	e8 00 00 00 00	 call	 ?GetRainbowRacerPtr@CRainbowRaceMng@@QAEPAVCRainbowRace@@K@Z ; CRainbowRaceMng::GetRainbowRacerPtr

; 584  : 	if( pRainbowRace )

  00012	85 c0		 test	 eax, eax
  00014	74 0b		 je	 SHORT $LN2@OnMiniGame

; 585  : 		pRainbowRace->OnMiniGamePacket( pUser, pMiniGamePacket );

  00016	ff 75 0c	 push	 DWORD PTR _pMiniGamePacket$[ebp]
  00019	8b c8		 mov	 ecx, eax
  0001b	56		 push	 esi
  0001c	e8 00 00 00 00	 call	 ?OnMiniGamePacket@CRainbowRace@@QAEXPAVCUser@@PAU__MINIGAME_PACKET@@@Z ; CRainbowRace::OnMiniGamePacket
$LN2@OnMiniGame:
  00021	5e		 pop	 esi

; 586  : }

  00022	5d		 pop	 ebp
  00023	c2 08 00	 ret	 8
?OnMiniGamePacket@CRainbowRaceMng@@QAEXPAVCUser@@PAU__MINIGAME_PACKET@@@Z ENDP ; CRainbowRaceMng::OnMiniGamePacket
_TEXT	ENDS
; Function compile flags: /Ogtp
; File C:\IAGOS\server\v18\Source\Source\_Common\RainbowRace.cpp
; File C:\Program Files\Microsoft Visual Studio\2022\Professional\VC\Tools\MSVC\14.44.35207\include\xtree
; File C:\IAGOS\server\v18\Source\Source\_Common\RainbowRace.cpp
; File C:\Program Files\Microsoft Visual Studio\2022\Professional\VC\Tools\MSVC\14.44.35207\include\xtree
; File C:\Program Files\Microsoft Visual Studio\2022\Professional\VC\Tools\MSVC\14.44.35207\include\type_traits
; File C:\Program Files\Microsoft Visual Studio\2022\Professional\VC\Tools\MSVC\14.44.35207\include\xtree
; File C:\IAGOS\server\v18\Source\Source\_Common\RainbowRace.cpp
; File C:\Program Files\Microsoft Visual Studio\2022\Professional\VC\Tools\MSVC\14.44.35207\include\xtree
; File C:\Program Files\Microsoft Visual Studio\2022\Professional\VC\Tools\MSVC\14.44.35207\include\xmemory
; File C:\IAGOS\server\v18\Source\Source\_Common\RainbowRace.cpp
;	COMDAT ?SetDropOut@CRainbowRaceMng@@QAEHK@Z
_TEXT	SEGMENT
__Loc$1 = -12						; size = 12
_dwPlayerId$ = 8					; size = 4
?SetDropOut@CRainbowRaceMng@@QAEHK@Z PROC		; CRainbowRaceMng::SetDropOut, COMDAT
; _this$ = ecx

; 491  : {

  00000	55		 push	 ebp
  00001	8b ec		 mov	 ebp, esp
  00003	83 ec 0c	 sub	 esp, 12			; 0000000cH

; 492  : 	// ЧіРч ТќАЁРкРЬАэ ПЯСжЧЯСі ОЪРК Г№РК ХЛЖє!!
; 493  : 	if( GetState() != RR_PROGRESS )

  00006	83 79 28 05	 cmp	 DWORD PTR [ecx+40], 5
  0000a	53		 push	 ebx
  0000b	56		 push	 esi
  0000c	75 7f		 jne	 SHORT $LN3@SetDropOut
; File C:\Program Files\Microsoft Visual Studio\2022\Professional\VC\Tools\MSVC\14.44.35207\include\xtree

; 1384 :         const _Tree_find_result<_Nodeptr> _Loc = _Find_lower_bound(_Keyval);

  0000e	8d 45 08	 lea	 eax, DWORD PTR _dwPlayerId$[ebp]
  00011	50		 push	 eax
; File C:\IAGOS\server\v18\Source\Source\_Common\RainbowRace.cpp

; 496  : 	MAPRR::iterator it = m_mapRainbowRace.find( dwPlayerId );

  00012	8d 59 0c	 lea	 ebx, DWORD PTR [ecx+12]
; File C:\Program Files\Microsoft Visual Studio\2022\Professional\VC\Tools\MSVC\14.44.35207\include\xtree

; 1384 :         const _Tree_find_result<_Nodeptr> _Loc = _Find_lower_bound(_Keyval);

  00015	8d 45 f4	 lea	 eax, DWORD PTR __Loc$1[ebp]
  00018	8b cb		 mov	 ecx, ebx
  0001a	50		 push	 eax
  0001b	e8 00 00 00 00	 call	 ??$_Find_lower_bound@K@?$_Tree@V?$_Tmap_traits@KPAVCRainbowRace@@U?$less@K@std@@V?$allocator@U?$pair@$$CBKPAVCRainbowRace@@@std@@@3@$0A@@std@@@std@@IBE?AU?$_Tree_find_result@PAU?$_Tree_node@U?$pair@$$CBKPAVCRainbowRace@@@std@@PAX@std@@@1@ABK@Z ; std::_Tree<std::_Tmap_traits<unsigned long,CRainbowRace *,std::less<unsigned long>,std::allocator<std::pair<unsigned long const ,CRainbowRace *> >,0> >::_Find_lower_bound<unsigned long>

; 1624 :         return !_Bound->_Isnil && !_DEBUG_LT_PRED(_Getcomp(), _Keyval, _Traits::_Kfn(_Bound->_Myval));

  00020	8b 75 fc	 mov	 esi, DWORD PTR __Loc$1[ebp+8]
  00023	80 7e 0d 00	 cmp	 BYTE PTR [esi+13], 0
  00027	75 64		 jne	 SHORT $LN3@SetDropOut
; File C:\Program Files\Microsoft Visual Studio\2022\Professional\VC\Tools\MSVC\14.44.35207\include\type_traits

; 2380 :         return _Left < _Right;

  00029	8b 45 08	 mov	 eax, DWORD PTR _dwPlayerId$[ebp]
  0002c	3b 46 10	 cmp	 eax, DWORD PTR [esi+16]
; File C:\Program Files\Microsoft Visual Studio\2022\Professional\VC\Tools\MSVC\14.44.35207\include\xtree

; 1624 :         return !_Bound->_Isnil && !_DEBUG_LT_PRED(_Getcomp(), _Keyval, _Traits::_Kfn(_Bound->_Myval));

  0002f	72 5c		 jb	 SHORT $LN3@SetDropOut

; 37   :     _Tree_unchecked_const_iterator(_Nodeptr _Pnode, const _Mytree* _Plist) noexcept : _Ptr(_Pnode) {

  00031	3b 33		 cmp	 esi, DWORD PTR [ebx]
; File C:\IAGOS\server\v18\Source\Source\_Common\RainbowRace.cpp

; 497  : 	if( it != m_mapRainbowRace.end() && !it->second->IsFinished() )

  00033	74 58		 je	 SHORT $LN3@SetDropOut
  00035	8b 46 14	 mov	 eax, DWORD PTR [esi+20]
  00038	83 78 08 00	 cmp	 DWORD PTR [eax+8], 0
  0003c	75 4f		 jne	 SHORT $LN3@SetDropOut

; 498  : 	{
; 499  : 		g_dpDBClient.SendRainbowRaceFailedUser( it->first );

  0003e	57		 push	 edi
  0003f	ff 76 10	 push	 DWORD PTR [esi+16]
  00042	b9 00 00 00 00	 mov	 ecx, OFFSET ?g_dpDBClient@@3VCDPDatabaseClient@@A ; g_dpDBClient
  00047	e8 00 00 00 00	 call	 ?SendRainbowRaceFailedUser@CDPDatabaseClient@@QAEXK@Z ; CDPDatabaseClient::SendRainbowRaceFailedUser

; 500  : 		SAFE_DELETE( it->second );

  0004c	8b 7e 14	 mov	 edi, DWORD PTR [esi+20]
  0004f	85 ff		 test	 edi, edi
  00051	74 19		 je	 SHORT $LN4@SetDropOut
  00053	8b cf		 mov	 ecx, edi
  00055	e8 00 00 00 00	 call	 ??1CRainbowRace@@QAE@XZ	; CRainbowRace::~CRainbowRace
  0005a	6a 0c		 push	 12			; 0000000cH
  0005c	57		 push	 edi
  0005d	e8 00 00 00 00	 call	 ??3@YAXPAXI@Z		; operator delete
  00062	83 c4 08	 add	 esp, 8
  00065	c7 46 14 00 00
	00 00		 mov	 DWORD PTR [esi+20], 0
$LN4@SetDropOut:
; File C:\Program Files\Microsoft Visual Studio\2022\Professional\VC\Tools\MSVC\14.44.35207\include\xtree

; 1303 :         _Nodeptr _Erasednode = _Scary->_Extract(_Where); // node to erase

  0006c	56		 push	 esi
  0006d	8b cb		 mov	 ecx, ebx
  0006f	e8 00 00 00 00	 call	 ?_Extract@?$_Tree_val@U?$_Tree_simple_types@U?$pair@$$CBKPAVCRainbowRace@@@std@@@std@@@std@@QAEPAU?$_Tree_node@U?$pair@$$CBKPAVCRainbowRace@@@std@@PAX@2@V?$_Tree_unchecked_const_iterator@V?$_Tree_val@U?$_Tree_simple_types@U?$pair@$$CBKPAVCRainbowRace@@@std@@@std@@@std@@U_Iterator_base0@2@@2@@Z ; std::_Tree_val<std::_Tree_simple_types<std::pair<unsigned long const ,CRainbowRace *> > >::_Extract
; File C:\Program Files\Microsoft Visual Studio\2022\Professional\VC\Tools\MSVC\14.44.35207\include\xmemory

; 289  :         ::operator delete(_Ptr, _Bytes);

  00074	6a 18		 push	 24			; 00000018H
  00076	50		 push	 eax
  00077	e8 00 00 00 00	 call	 ??3@YAXPAXI@Z		; operator delete
  0007c	83 c4 08	 add	 esp, 8
; File C:\IAGOS\server\v18\Source\Source\_Common\RainbowRace.cpp

; 502  : 		return TRUE;

  0007f	b8 01 00 00 00	 mov	 eax, 1
  00084	5f		 pop	 edi
  00085	5e		 pop	 esi

; 506  : }

  00086	5b		 pop	 ebx
  00087	8b e5		 mov	 esp, ebp
  00089	5d		 pop	 ebp
  0008a	c2 04 00	 ret	 4
$LN3@SetDropOut:
  0008d	5e		 pop	 esi

; 503  : 	}
; 504  : 
; 505  : 	return FALSE;

  0008e	33 c0		 xor	 eax, eax

; 506  : }

  00090	5b		 pop	 ebx
  00091	8b e5		 mov	 esp, ebp
  00093	5d		 pop	 ebp
  00094	c2 04 00	 ret	 4
?SetDropOut@CRainbowRaceMng@@QAEHK@Z ENDP		; CRainbowRaceMng::SetDropOut
_TEXT	ENDS
; Function compile flags: /Ogtp
; File C:\IAGOS\server\v18\Source\Source\_Common\RainbowRace.cpp
; File C:\Program Files\Microsoft Visual Studio\2022\Professional\VC\Tools\MSVC\14.44.35207\include\utility
; File C:\Program Files\Microsoft Visual Studio\2022\Professional\VC\Tools\MSVC\14.44.35207\include\xtree
; File C:\IAGOS\server\v18\Source\Source\_Common\RainbowRace.cpp
; File C:\Program Files\Microsoft Visual Studio\2022\Professional\VC\Tools\MSVC\14.44.35207\include\utility
; File C:\Program Files\Microsoft Visual Studio\2022\Professional\VC\Tools\MSVC\14.44.35207\include\xtree
; File C:\Program Files\Microsoft Visual Studio\2022\Professional\VC\Tools\MSVC\14.44.35207\include\utility
; File C:\Program Files\Microsoft Visual Studio\2022\Professional\VC\Tools\MSVC\14.44.35207\include\xtree
; File C:\Program Files\Microsoft Visual Studio\2022\Professional\VC\Tools\MSVC\14.44.35207\include\type_traits
; File C:\Program Files\Microsoft Visual Studio\2022\Professional\VC\Tools\MSVC\14.44.35207\include\xtree
; File C:\Program Files\Microsoft Visual Studio\2022\Professional\VC\Tools\MSVC\14.44.35207\include\xmemory
; File C:\Program Files\Microsoft Visual Studio\2022\Professional\VC\Tools\MSVC\14.44.35207\include\xtree
; File C:\Program Files\Microsoft Visual Studio\2022\Professional\VC\Tools\MSVC\14.44.35207\include\xmemory
; File C:\Program Files\Microsoft Visual Studio\2022\Professional\VC\Tools\MSVC\14.44.35207\include\utility
; File C:\Program Files\Microsoft Visual Studio\2022\Professional\VC\Tools\MSVC\14.44.35207\include\xmemory
; File C:\Program Files\Microsoft Visual Studio\2022\Professional\VC\Tools\MSVC\14.44.35207\include\utility
; File C:\Program Files\Microsoft Visual Studio\2022\Professional\VC\Tools\MSVC\14.44.35207\include\xtree
; File C:\Program Files\Microsoft Visual Studio\2022\Professional\VC\Tools\MSVC\14.44.35207\include\utility
; File C:\Program Files\Microsoft Visual Studio\2022\Professional\VC\Tools\MSVC\14.44.35207\include\xtree
; File C:\IAGOS\server\v18\Source\Source\_Common\RainbowRace.cpp
; File C:\Program Files\Microsoft Visual Studio\2022\Professional\VC\Tools\MSVC\14.44.35207\include\xtree
; File C:\IAGOS\server\v18\Source\Source\_Common\RainbowRace.cpp
;	COMDAT ?SetApplication@CRainbowRaceMng@@QAEXK@Z
_TEXT	SEGMENT
$T2 = -44						; size = 12
__Loc$3 = -32						; size = 12
$T4 = -20						; size = 8
$T5 = -20						; size = 8
$T6 = -16						; size = 4
__$EHRec$ = -12						; size = 12
_dwPlayerId$ = 8					; size = 4
?SetApplication@CRainbowRaceMng@@QAEXK@Z PROC		; CRainbowRaceMng::SetApplication, COMDAT
; _this$ = ecx

; 483  : {

  00000	55		 push	 ebp
  00001	8b ec		 mov	 ebp, esp
  00003	6a ff		 push	 -1
  00005	68 00 00 00 00	 push	 __ehhandler$?SetApplication@CRainbowRaceMng@@QAEXK@Z
  0000a	64 a1 00 00 00
	00		 mov	 eax, DWORD PTR fs:0
  00010	50		 push	 eax
  00011	83 ec 20	 sub	 esp, 32			; 00000020H
  00014	53		 push	 ebx
  00015	56		 push	 esi
  00016	57		 push	 edi
  00017	a1 00 00 00 00	 mov	 eax, DWORD PTR ___security_cookie
  0001c	33 c5		 xor	 eax, ebp
  0001e	50		 push	 eax
  0001f	8d 45 f4	 lea	 eax, DWORD PTR __$EHRec$[ebp]
  00022	64 a3 00 00 00
	00		 mov	 DWORD PTR fs:0, eax
  00028	8b f9		 mov	 edi, ecx

; 484  : 	if( !g_eLocal.GetState( EVE_RAINBOWRACE ) )

  0002a	6a 19		 push	 25			; 00000019H
  0002c	b9 00 00 00 00	 mov	 ecx, OFFSET ?g_eLocal@@3VCFlyffEvent@@A ; g_eLocal
  00031	e8 00 00 00 00	 call	 ?GetState@CFlyffEvent@@QAEEH@Z ; CFlyffEvent::GetState
  00036	84 c0		 test	 al, al
  00038	0f 84 a9 00 00
	00		 je	 $LN103@SetApplica

; 487  : 	m_mapRainbowRace.insert( make_pair( dwPlayerId, new CRainbowRace ) );

  0003e	6a 0c		 push	 12			; 0000000cH
  00040	e8 00 00 00 00	 call	 ??2@YAPAXI@Z		; operator new
  00045	83 c4 04	 add	 esp, 4
  00048	89 45 f0	 mov	 DWORD PTR $T6[ebp], eax
  0004b	c7 45 fc 00 00
	00 00		 mov	 DWORD PTR __$EHRec$[ebp+8], 0
  00052	85 c0		 test	 eax, eax
  00054	74 0b		 je	 SHORT $LN4@SetApplica
  00056	8b c8		 mov	 ecx, eax
  00058	e8 00 00 00 00	 call	 ??0CRainbowRace@@QAE@XZ	; CRainbowRace::CRainbowRace
  0005d	8b d8		 mov	 ebx, eax
  0005f	eb 02		 jmp	 SHORT $LN5@SetApplica
$LN4@SetApplica:
  00061	33 db		 xor	 ebx, ebx
$LN5@SetApplica:
; File C:\Program Files\Microsoft Visual Studio\2022\Professional\VC\Tools\MSVC\14.44.35207\include\utility

; 274  :         : first(_STD forward<_Other1>(_Val1)), second(_STD forward<_Other2>(_Val2)) {

  00063	8b 75 08	 mov	 esi, DWORD PTR _dwPlayerId$[ebp]
; File C:\Program Files\Microsoft Visual Studio\2022\Professional\VC\Tools\MSVC\14.44.35207\include\xtree

; 1017 :             _Loc                = _Find_lower_bound(_Keyval);

  00066	8d 45 ec	 lea	 eax, DWORD PTR $T4[ebp]
  00069	50		 push	 eax
  0006a	8d 45 d4	 lea	 eax, DWORD PTR $T2[ebp]
; File C:\IAGOS\server\v18\Source\Source\_Common\RainbowRace.cpp

; 487  : 	m_mapRainbowRace.insert( make_pair( dwPlayerId, new CRainbowRace ) );

  0006d	c7 45 fc ff ff
	ff ff		 mov	 DWORD PTR __$EHRec$[ebp+8], -1
  00074	83 c7 0c	 add	 edi, 12			; 0000000cH
; File C:\Program Files\Microsoft Visual Studio\2022\Professional\VC\Tools\MSVC\14.44.35207\include\utility

; 274  :         : first(_STD forward<_Other1>(_Val1)), second(_STD forward<_Other2>(_Val2)) {

  00077	89 75 ec	 mov	 DWORD PTR $T4[ebp], esi
; File C:\Program Files\Microsoft Visual Studio\2022\Professional\VC\Tools\MSVC\14.44.35207\include\xtree

; 1017 :             _Loc                = _Find_lower_bound(_Keyval);

  0007a	50		 push	 eax
  0007b	8b cf		 mov	 ecx, edi
; File C:\Program Files\Microsoft Visual Studio\2022\Professional\VC\Tools\MSVC\14.44.35207\include\utility

; 274  :         : first(_STD forward<_Other1>(_Val1)), second(_STD forward<_Other2>(_Val2)) {

  0007d	89 5d f0	 mov	 DWORD PTR $T4[ebp+4], ebx
; File C:\Program Files\Microsoft Visual Studio\2022\Professional\VC\Tools\MSVC\14.44.35207\include\xtree

; 1017 :             _Loc                = _Find_lower_bound(_Keyval);

  00080	e8 00 00 00 00	 call	 ??$_Find_lower_bound@K@?$_Tree@V?$_Tmap_traits@KPAVCRainbowRace@@U?$less@K@std@@V?$allocator@U?$pair@$$CBKPAVCRainbowRace@@@std@@@3@$0A@@std@@@std@@IBE?AU?$_Tree_find_result@PAU?$_Tree_node@U?$pair@$$CBKPAVCRainbowRace@@@std@@PAX@std@@@1@ABK@Z ; std::_Tree<std::_Tmap_traits<unsigned long,CRainbowRace *,std::less<unsigned long>,std::allocator<std::pair<unsigned long const ,CRainbowRace *> >,0> >::_Find_lower_bound<unsigned long>
  00085	f3 0f 7e 00	 movq	 xmm0, QWORD PTR [eax]
  00089	8b 40 08	 mov	 eax, DWORD PTR [eax+8]
  0008c	66 0f d6 45 e0	 movq	 QWORD PTR __Loc$3[ebp], xmm0

; 1624 :         return !_Bound->_Isnil && !_DEBUG_LT_PRED(_Getcomp(), _Keyval, _Traits::_Kfn(_Bound->_Myval));

  00091	80 78 0d 00	 cmp	 BYTE PTR [eax+13], 0
  00095	75 05		 jne	 SHORT $LN120@SetApplica
; File C:\Program Files\Microsoft Visual Studio\2022\Professional\VC\Tools\MSVC\14.44.35207\include\type_traits

; 2380 :         return _Left < _Right;

  00097	3b 70 10	 cmp	 esi, DWORD PTR [eax+16]
; File C:\Program Files\Microsoft Visual Studio\2022\Professional\VC\Tools\MSVC\14.44.35207\include\xtree

; 1624 :         return !_Bound->_Isnil && !_DEBUG_LT_PRED(_Getcomp(), _Keyval, _Traits::_Kfn(_Bound->_Myval));

  0009a	73 4b		 jae	 SHORT $LN103@SetApplica
$LN120@SetApplica:

; 1648 :         if (max_size() == _Get_scary()->_Mysize) {

  0009c	81 7f 04 aa aa
	aa 0a		 cmp	 DWORD PTR [edi+4], 178956970 ; 0aaaaaaaH
  000a3	74 56		 je	 SHORT $LN124@SetApplica

; 1023 :             _Inserted = _Tree_temp_node<_Alnode>(_Getal(), _Scary->_Myhead, _STD forward<_Valtys>(_Vals)...)._Release();

  000a5	8b 37		 mov	 esi, DWORD PTR [edi]
; File C:\Program Files\Microsoft Visual Studio\2022\Professional\VC\Tools\MSVC\14.44.35207\include\xmemory

; 1160 :     _CONSTEXPR20 explicit _Alloc_construct_ptr(_Alloc& _Al_) : _Al(_Al_), _Ptr(nullptr) {}

  000a7	89 7d ec	 mov	 DWORD PTR $T5[ebp], edi

; 136  :         return ::operator new(_Bytes);

  000aa	6a 18		 push	 24			; 00000018H
; File C:\Program Files\Microsoft Visual Studio\2022\Professional\VC\Tools\MSVC\14.44.35207\include\xtree

; 808  :     explicit _Tree_temp_node_alloc(_Alnode& _Al_) : _Alloc_construct_ptr<_Alnode>(_Al_) {

  000ac	c7 45 fc 01 00
	00 00		 mov	 DWORD PTR __$EHRec$[ebp+8], 1
; File C:\Program Files\Microsoft Visual Studio\2022\Professional\VC\Tools\MSVC\14.44.35207\include\xmemory

; 1167 :         _Ptr = nullptr; // if allocate throws, prevents double-free

  000b3	c7 45 f0 00 00
	00 00		 mov	 DWORD PTR $T5[ebp+4], 0

; 136  :         return ::operator new(_Bytes);

  000ba	e8 00 00 00 00	 call	 ??2@YAPAXI@Z		; operator new
; File C:\Program Files\Microsoft Visual Studio\2022\Professional\VC\Tools\MSVC\14.44.35207\include\utility

; 303  :         : first(_STD forward<_Other1>(_Right.first)), second(_STD forward<_Other2>(_Right.second)) {}

  000bf	8b 4d 08	 mov	 ecx, DWORD PTR _dwPlayerId$[ebp]
; File C:\Program Files\Microsoft Visual Studio\2022\Professional\VC\Tools\MSVC\14.44.35207\include\xmemory

; 136  :         return ::operator new(_Bytes);

  000c2	83 c4 04	 add	 esp, 4
; File C:\Program Files\Microsoft Visual Studio\2022\Professional\VC\Tools\MSVC\14.44.35207\include\utility

; 303  :         : first(_STD forward<_Other1>(_Right.first)), second(_STD forward<_Other2>(_Right.second)) {}

  000c5	89 48 10	 mov	 DWORD PTR [eax+16], ecx
; File C:\Program Files\Microsoft Visual Studio\2022\Professional\VC\Tools\MSVC\14.44.35207\include\xtree

; 1042 :         return {_Scary->_Insert_node(_Loc._Location, _Inserted), true};

  000c8	8b cf		 mov	 ecx, edi
  000ca	50		 push	 eax
  000cb	ff 75 e4	 push	 DWORD PTR __Loc$3[ebp+4]
; File C:\Program Files\Microsoft Visual Studio\2022\Professional\VC\Tools\MSVC\14.44.35207\include\utility

; 303  :         : first(_STD forward<_Other1>(_Right.first)), second(_STD forward<_Other2>(_Right.second)) {}

  000ce	89 58 14	 mov	 DWORD PTR [eax+20], ebx
; File C:\Program Files\Microsoft Visual Studio\2022\Professional\VC\Tools\MSVC\14.44.35207\include\xtree

; 1042 :         return {_Scary->_Insert_node(_Loc._Location, _Inserted), true};

  000d1	ff 75 e0	 push	 DWORD PTR __Loc$3[ebp]

; 831  :         _Construct_in_place(this->_Ptr->_Left, _Myhead);

  000d4	89 30		 mov	 DWORD PTR [eax], esi

; 832  :         _Construct_in_place(this->_Ptr->_Parent, _Myhead);

  000d6	89 70 04	 mov	 DWORD PTR [eax+4], esi

; 833  :         _Construct_in_place(this->_Ptr->_Right, _Myhead);

  000d9	89 70 08	 mov	 DWORD PTR [eax+8], esi

; 834  :         this->_Ptr->_Color = _Red;

  000dc	66 c7 40 0c 00
	00		 mov	 WORD PTR [eax+12], 0

; 1042 :         return {_Scary->_Insert_node(_Loc._Location, _Inserted), true};

  000e2	e8 00 00 00 00	 call	 ?_Insert_node@?$_Tree_val@U?$_Tree_simple_types@U?$pair@$$CBKPAVCRainbowRace@@@std@@@std@@@std@@QAEPAU?$_Tree_node@U?$pair@$$CBKPAVCRainbowRace@@@std@@PAX@2@U?$_Tree_id@PAU?$_Tree_node@U?$pair@$$CBKPAVCRainbowRace@@@std@@PAX@std@@@2@QAU32@@Z ; std::_Tree_val<std::_Tree_simple_types<std::pair<unsigned long const ,CRainbowRace *> > >::_Insert_node
$LN103@SetApplica:
; File C:\IAGOS\server\v18\Source\Source\_Common\RainbowRace.cpp

; 488  : }

  000e7	8b 4d f4	 mov	 ecx, DWORD PTR __$EHRec$[ebp]
  000ea	64 89 0d 00 00
	00 00		 mov	 DWORD PTR fs:0, ecx
  000f1	59		 pop	 ecx
  000f2	5f		 pop	 edi
  000f3	5e		 pop	 esi
  000f4	5b		 pop	 ebx
  000f5	8b e5		 mov	 esp, ebp
  000f7	5d		 pop	 ebp
  000f8	c2 04 00	 ret	 4
$LN124@SetApplica:
; File C:\Program Files\Microsoft Visual Studio\2022\Professional\VC\Tools\MSVC\14.44.35207\include\xtree

; 1649 :             _Throw_tree_length_error();

  000fb	e8 00 00 00 00	 call	 ?_Throw_tree_length_error@std@@YAXXZ ; std::_Throw_tree_length_error
$LN122@SetApplica:
  00100	cc		 int	 3
_TEXT	ENDS
;	COMDAT text$x
text$x	SEGMENT
__unwindfunclet$?SetApplication@CRainbowRaceMng@@QAEXK@Z$0:
  00000	6a 0c		 push	 12			; 0000000cH
  00002	8b 45 f0	 mov	 eax, DWORD PTR $T6[ebp]
  00005	50		 push	 eax
  00006	e8 00 00 00 00	 call	 ??3@YAXPAXI@Z		; operator delete
  0000b	83 c4 08	 add	 esp, 8
  0000e	c3		 ret	 0
__unwindfunclet$?SetApplication@CRainbowRaceMng@@QAEXK@Z$3:
  0000f	8d 4d ec	 lea	 ecx, DWORD PTR $T5[ebp]
  00012	e9 00 00 00 00	 jmp	 ??1?$_Alloc_construct_ptr@V?$allocator@U?$_Tree_node@U?$pair@$$CBKPAVCRainbowRace@@@std@@PAX@std@@@std@@@std@@QAE@XZ ; std::_Alloc_construct_ptr<std::allocator<std::_Tree_node<std::pair<unsigned long const ,CRainbowRace *>,void *> > >::~_Alloc_construct_ptr<std::allocator<std::_Tree_node<std::pair<unsigned long const ,CRainbowRace *>,void *> > >
  00017	cc		 int	 3
  00018	cc		 int	 3
  00019	cc		 int	 3
  0001a	cc		 int	 3
  0001b	cc		 int	 3
__ehhandler$?SetApplication@CRainbowRaceMng@@QAEXK@Z:
  0001c	90		 npad	 1
  0001d	90		 npad	 1
  0001e	8b 54 24 08	 mov	 edx, DWORD PTR [esp+8]
  00022	8d 42 0c	 lea	 eax, DWORD PTR [edx+12]
  00025	8b 4a d0	 mov	 ecx, DWORD PTR [edx-48]
  00028	33 c8		 xor	 ecx, eax
  0002a	e8 00 00 00 00	 call	 @__security_check_cookie@4
  0002f	b8 00 00 00 00	 mov	 eax, OFFSET __ehfuncinfo$?SetApplication@CRainbowRaceMng@@QAEXK@Z
  00034	e9 00 00 00 00	 jmp	 ___CxxFrameHandler3
text$x	ENDS
?SetApplication@CRainbowRaceMng@@QAEXK@Z ENDP		; CRainbowRaceMng::SetApplication
; Function compile flags: /Ogtp
; File C:\IAGOS\server\v18\Source\Source\_Common\RainbowRace.cpp
; File C:\IAGOS\server\v18\Source\Source\_Common\Mover.h
; File C:\IAGOS\server\v18\Source\Source\_Common\RainbowRace.cpp
; File C:\IAGOS\server\v18\Source\Source\_Common\LuaBase.h
; File C:\IAGOS\server\v18\Source\Source\_Common\RainbowRace.cpp
; File C:\IAGOS\server\v18\Source\Source\_Common\LuaBase.h
; File C:\IAGOS\server\v18\Source\Source\_Common\RainbowRace.cpp
; File C:\IAGOS\server\v18\Source\Source\_Common\RainbowRace.h
; File C:\IAGOS\server\v18\Source\Source\_Common\RainbowRace.cpp
;	COMDAT ?SetApplicationUser@CRainbowRaceMng@@QAEXPAVCUser@@@Z
_TEXT	SEGMENT
tv261 = -8						; size = 8
_pUser$ = 8						; size = 4
_nPayPenya$ = 8						; size = 4
_nPayPenya$1$ = 8					; size = 4
?SetApplicationUser@CRainbowRaceMng@@QAEXPAVCUser@@@Z PROC ; CRainbowRaceMng::SetApplicationUser, COMDAT
; _this$ = ecx

; 436  : {

  00000	55		 push	 ebp
  00001	8b ec		 mov	 ebp, esp
  00003	83 ec 08	 sub	 esp, 8
  00006	57		 push	 edi
  00007	8b f9		 mov	 edi, ecx

; 437  : 	if( !g_eLocal.GetState( EVE_RAINBOWRACE ) )

  00009	b9 00 00 00 00	 mov	 ecx, OFFSET ?g_eLocal@@3VCFlyffEvent@@A ; g_eLocal
  0000e	6a 19		 push	 25			; 00000019H
  00010	e8 00 00 00 00	 call	 ?GetState@CFlyffEvent@@QAEEH@Z ; CFlyffEvent::GetState
  00015	84 c0		 test	 al, al
  00017	0f 84 15 01 00
	00		 je	 $LN9@SetApplica

; 438  : 		return;
; 439  : 
; 440  : 	if( GetState() != RR_APPLICATION )

  0001d	8b 47 28	 mov	 eax, DWORD PTR [edi+40]
  00020	56		 push	 esi
  00021	8b 75 08	 mov	 esi, DWORD PTR _pUser$[ebp]
  00024	83 f8 01	 cmp	 eax, 1
  00027	74 19		 je	 SHORT $LN5@SetApplica
; File C:\IAGOS\server\v18\Source\Source\_Common\Mover.h

; 1090 : 	DWORD			IsAuthHigher( DWORD dwAuthorization ) { return dwAuthorization <= m_dwAuthorization; }

  00029	83 be 40 06 00
	00 4c		 cmp	 DWORD PTR [esi+1600], 76 ; 0000004cH
; File C:\IAGOS\server\v18\Source\Source\_Common\RainbowRace.cpp

; 443  : 		if( pUser->IsAuthHigher( AUTH_GAMEMASTER ) && GetState() == RR_CLOSED )

  00030	72 47		 jb	 SHORT $LN4@SetApplica
  00032	85 c0		 test	 eax, eax
  00034	75 43		 jne	 SHORT $LN4@SetApplica

; 444  : 			pUser->AddText( "GM Application..." );

  00036	68 00 00 00 00	 push	 OFFSET ??_C@_0BC@FPLPGDON@GM?5Application?4?4?4@
  0003b	8b ce		 mov	 ecx, esi
  0003d	e8 00 00 00 00	 call	 ?AddText@CUser@@QAEXPBD@Z ; CUser::AddText
$LN5@SetApplica:

; 453  : 	if( m_Lua.GetLuaFunction( "GetPayPenya" ) )

  00042	53		 push	 ebx
  00043	68 00 00 00 00	 push	 OFFSET ??_C@_0M@KIHAHFBP@GetPayPenya@
  00048	8d 4f 20	 lea	 ecx, DWORD PTR [edi+32]
  0004b	e8 00 00 00 00	 call	 ?GetLuaFunction@CLuaBase@@QAEHPAD@Z ; CLuaBase::GetLuaFunction
  00050	85 c0		 test	 eax, eax
  00052	74 39		 je	 SHORT $LN17@SetApplica

; 454  : 	{
; 455  : 		m_Lua.CallLuaFunction( 0, 1 );

  00054	6a 01		 push	 1
  00056	6a 00		 push	 0
  00058	8d 4f 20	 lea	 ecx, DWORD PTR [edi+32]
  0005b	e8 00 00 00 00	 call	 ?CallLuaFunction@CLuaBase@@QAEXHH@Z ; CLuaBase::CallLuaFunction
; File C:\IAGOS\server\v18\Source\Source\_Common\LuaBase.h

; 43   : 	double		ToNumber( int nStackPos )					{  return lua_tonumber( m_pLuaState, nStackPos );  }

  00060	6a 00		 push	 0
  00062	6a ff		 push	 -1
  00064	ff 77 24	 push	 DWORD PTR [edi+36]
  00067	e8 00 00 00 00	 call	 _lua_tonumberx
  0006c	dd 5d f8	 fstp	 QWORD PTR tv261[ebp]
; File C:\IAGOS\server\v18\Source\Source\_Common\RainbowRace.cpp

; 456  : 		nPayPenya = (int)( m_Lua.ToNumber( -1 ) );

  0006f	f2 0f 2c 45 f8	 cvttsd2si eax, QWORD PTR tv261[ebp]
; File C:\IAGOS\server\v18\Source\Source\_Common\LuaBase.h

; 43   : 	double		ToNumber( int nStackPos )					{  return lua_tonumber( m_pLuaState, nStackPos );  }

  00074	83 c4 0c	 add	 esp, 12			; 0000000cH
; File C:\IAGOS\server\v18\Source\Source\_Common\RainbowRace.cpp

; 453  : 	if( m_Lua.GetLuaFunction( "GetPayPenya" ) )

  00077	eb 17		 jmp	 SHORT $LN27@SetApplica
$LN4@SetApplica:

; 445  : 		else
; 446  : 		{
; 447  : 			pUser->AddDefinedText( TID_GAME_RAINBOWRACE_ISNOTAPPLICATIONTIME );

  00079	68 b3 0f 00 00	 push	 4019			; 00000fb3H
  0007e	8b ce		 mov	 ecx, esi
  00080	e8 00 00 00 00	 call	 ?AddDefinedText@CUser@@QAEXH@Z ; CUser::AddDefinedText
  00085	5e		 pop	 esi
  00086	5f		 pop	 edi

; 479  : 	}
; 480  : }

  00087	8b e5		 mov	 esp, ebp
  00089	5d		 pop	 ebp
  0008a	c2 04 00	 ret	 4
$LN17@SetApplica:

; 453  : 	if( m_Lua.GetLuaFunction( "GetPayPenya" ) )

  0008d	8b 45 08	 mov	 eax, DWORD PTR _nPayPenya$[ebp]
$LN27@SetApplica:

; 457  : 	}
; 458  : 	m_Lua.Pop( 0 );

  00090	6a 00		 push	 0
  00092	8d 4f 20	 lea	 ecx, DWORD PTR [edi+32]
  00095	89 45 08	 mov	 DWORD PTR _nPayPenya$1$[ebp], eax
  00098	e8 00 00 00 00	 call	 ?Pop@CLuaBase@@QAEXH@Z	; CLuaBase::Pop

; 459  : 
; 460  : 	if( pUser->GetGold() < nPayPenya )

  0009d	8b 5d 08	 mov	 ebx, DWORD PTR _nPayPenya$1$[ebp]
  000a0	39 9e e0 14 00
	00		 cmp	 DWORD PTR [esi+5344], ebx
  000a6	7d 15		 jge	 SHORT $LN7@SetApplica

; 461  : 	{
; 462  : 		pUser->AddDefinedText( TID_GAME_LACKMONEY );

  000a8	68 71 02 00 00	 push	 625			; 00000271H
  000ad	8b ce		 mov	 ecx, esi
  000af	e8 00 00 00 00	 call	 ?AddDefinedText@CUser@@QAEXH@Z ; CUser::AddDefinedText
  000b4	5b		 pop	 ebx
  000b5	5e		 pop	 esi
  000b6	5f		 pop	 edi

; 479  : 	}
; 480  : }

  000b7	8b e5		 mov	 esp, ebp
  000b9	5d		 pop	 ebp
  000ba	c2 04 00	 ret	 4
$LN7@SetApplica:
; File C:\IAGOS\server\v18\Source\Source\_Common\RainbowRace.h

; 84   : 	BOOL			IsApplicant( DWORD dwPlayerId ) { return GetRainbowRacerPtr( dwPlayerId ) ? TRUE : FALSE; }		// НХУЛЧб РЏРњРЮАЁ?

  000bd	ff b6 34 02 00
	00		 push	 DWORD PTR [esi+564]
  000c3	8b cf		 mov	 ecx, edi
  000c5	e8 00 00 00 00	 call	 ?GetRainbowRacerPtr@CRainbowRaceMng@@QAEPAVCRainbowRace@@K@Z ; CRainbowRaceMng::GetRainbowRacerPtr
  000ca	85 c0		 test	 eax, eax
; File C:\IAGOS\server\v18\Source\Source\_Common\RainbowRace.cpp

; 466  : 	if( IsApplicant( pUser->m_idPlayer ) )	// РЬЙЬ НХУЛЧб Г№РЬИщ...

  000cc	74 15		 je	 SHORT $LN8@SetApplica

; 467  : 	{
; 468  : 		pUser->AddDefinedText( TID_GAME_RAINBOWRACE_ISAPPLICATIONED );

  000ce	68 b4 0f 00 00	 push	 4020			; 00000fb4H
  000d3	8b ce		 mov	 ecx, esi
  000d5	e8 00 00 00 00	 call	 ?AddDefinedText@CUser@@QAEXH@Z ; CUser::AddDefinedText
  000da	5b		 pop	 ebx
  000db	5e		 pop	 esi
  000dc	5f		 pop	 edi

; 479  : 	}
; 480  : }

  000dd	8b e5		 mov	 esp, ebp
  000df	5d		 pop	 ebp
  000e0	c2 04 00	 ret	 4
$LN8@SetApplica:

; 469  : 		return;
; 470  : 	}
; 471  : 	else	// УГРН НХУЛЧЯДТ Г№РЬИщ...
; 472  : 	{
; 473  : 		SetApplication( pUser->m_idPlayer );

  000e3	ff b6 34 02 00
	00		 push	 DWORD PTR [esi+564]
  000e9	8b cf		 mov	 ecx, edi
  000eb	e8 00 00 00 00	 call	 ?SetApplication@CRainbowRaceMng@@QAEXK@Z ; CRainbowRaceMng::SetApplication

; 474  : 		pUser->AddGold( -nPayPenya );

  000f0	8b c3		 mov	 eax, ebx
  000f2	8b ce		 mov	 ecx, esi
  000f4	6a 01		 push	 1
  000f6	f7 d8		 neg	 eax
  000f8	50		 push	 eax
  000f9	e8 00 00 00 00	 call	 ?AddGold@CMover@@QAEHHH@Z ; CMover::AddGold

; 475  : 		pUser->AddDefinedText( TID_GAME_RAINBOWRACE_APPLICATION_COMPLETE );

  000fe	68 b5 0f 00 00	 push	 4021			; 00000fb5H
  00103	8b ce		 mov	 ecx, esi
  00105	e8 00 00 00 00	 call	 ?AddDefinedText@CUser@@QAEXH@Z ; CUser::AddDefinedText

; 476  : 		g_DPSrvr.PutPenyaLog( pUser, "a", "RAINBOW_RACE_APP", nPayPenya );

  0010a	53		 push	 ebx
  0010b	68 00 00 00 00	 push	 OFFSET ??_C@_0BB@EEDDJJBJ@RAINBOW_RACE_APP@
  00110	68 00 00 00 00	 push	 OFFSET ??_C@_01MCMALHOG@a@
  00115	56		 push	 esi
  00116	b9 00 00 00 00	 mov	 ecx, OFFSET ?g_DPSrvr@@3VCDPSrvr@@A ; g_DPSrvr
  0011b	e8 00 00 00 00	 call	 ?PutPenyaLog@CDPSrvr@@QAEXPAVCUser@@PBD1H@Z ; CDPSrvr::PutPenyaLog

; 477  : 
; 478  : 		g_dpDBClient.SendRainbowRaceApplication( pUser->m_idPlayer );

  00120	ff b6 34 02 00
	00		 push	 DWORD PTR [esi+564]
  00126	b9 00 00 00 00	 mov	 ecx, OFFSET ?g_dpDBClient@@3VCDPDatabaseClient@@A ; g_dpDBClient
  0012b	e8 00 00 00 00	 call	 ?SendRainbowRaceApplication@CDPDatabaseClient@@QAEXK@Z ; CDPDatabaseClient::SendRainbowRaceApplication
  00130	5b		 pop	 ebx
  00131	5e		 pop	 esi
$LN9@SetApplica:
  00132	5f		 pop	 edi

; 479  : 	}
; 480  : }

  00133	8b e5		 mov	 esp, ebp
  00135	5d		 pop	 ebp
  00136	c2 04 00	 ret	 4
?SetApplicationUser@CRainbowRaceMng@@QAEXPAVCUser@@@Z ENDP ; CRainbowRaceMng::SetApplicationUser
_TEXT	ENDS
; Function compile flags: /Ogtp
; File C:\IAGOS\server\v18\Source\Source\_Common\RainbowRace.cpp
;	COMDAT ?IsEntry@CRainbowRaceMng@@QAEHK@Z
_TEXT	SEGMENT
_dwPlayerId$ = 8					; size = 4
?IsEntry@CRainbowRaceMng@@QAEHK@Z PROC			; CRainbowRaceMng::IsEntry, COMDAT
; _this$ = ecx

; 424  : {

  00000	55		 push	 ebp
  00001	8b ec		 mov	 ebp, esp

; 425  : 	if( GetState() == RR_PROGRESS )

  00003	83 79 28 05	 cmp	 DWORD PTR [ecx+40], 5
  00007	75 1a		 jne	 SHORT $LN3@IsEntry

; 426  : 	{
; 427  : 		CRainbowRace* pRainbowRace = GetRainbowRacerPtr( dwPlayerId );

  00009	ff 75 08	 push	 DWORD PTR _dwPlayerId$[ebp]
  0000c	e8 00 00 00 00	 call	 ?GetRainbowRacerPtr@CRainbowRaceMng@@QAEPAVCRainbowRace@@K@Z ; CRainbowRaceMng::GetRainbowRacerPtr
  00011	8b c8		 mov	 ecx, eax

; 428  : 		if( pRainbowRace && !pRainbowRace->IsFinished() )

  00013	85 c9		 test	 ecx, ecx
  00015	74 0c		 je	 SHORT $LN3@IsEntry
  00017	33 c0		 xor	 eax, eax
  00019	39 41 08	 cmp	 DWORD PTR [ecx+8], eax
  0001c	0f 94 c0	 sete	 al

; 433  : }

  0001f	5d		 pop	 ebp
  00020	c2 04 00	 ret	 4
$LN3@IsEntry:

; 429  : 			return TRUE;
; 430  : 	}
; 431  : 	
; 432  : 	return FALSE;

  00023	33 c0		 xor	 eax, eax

; 433  : }

  00025	5d		 pop	 ebp
  00026	c2 04 00	 ret	 4
?IsEntry@CRainbowRaceMng@@QAEHK@Z ENDP			; CRainbowRaceMng::IsEntry
_TEXT	ENDS
; Function compile flags: /Ogtp
; File C:\IAGOS\server\v18\Source\Source\_Common\RainbowRace.cpp
; File C:\Program Files\Microsoft Visual Studio\2022\Professional\VC\Tools\MSVC\14.44.35207\include\xtree
; File C:\IAGOS\server\v18\Source\Source\_Common\RainbowRace.cpp
; File C:\Program Files\Microsoft Visual Studio\2022\Professional\VC\Tools\MSVC\14.44.35207\include\xtree
; File C:\Program Files\Microsoft Visual Studio\2022\Professional\VC\Tools\MSVC\14.44.35207\include\type_traits
; File C:\Program Files\Microsoft Visual Studio\2022\Professional\VC\Tools\MSVC\14.44.35207\include\xtree
; File C:\IAGOS\server\v18\Source\Source\_Common\RainbowRace.cpp
;	COMDAT ?GetRainbowRacerPtr@CRainbowRaceMng@@QAEPAVCRainbowRace@@K@Z
_TEXT	SEGMENT
__Loc$1 = -12						; size = 12
_dwPlayerId$ = 8					; size = 4
?GetRainbowRacerPtr@CRainbowRaceMng@@QAEPAVCRainbowRace@@K@Z PROC ; CRainbowRaceMng::GetRainbowRacerPtr, COMDAT
; _this$ = ecx

; 415  : {

  00000	55		 push	 ebp
  00001	8b ec		 mov	 ebp, esp
  00003	83 ec 0c	 sub	 esp, 12			; 0000000cH
  00006	56		 push	 esi
; File C:\Program Files\Microsoft Visual Studio\2022\Professional\VC\Tools\MSVC\14.44.35207\include\xtree

; 1384 :         const _Tree_find_result<_Nodeptr> _Loc = _Find_lower_bound(_Keyval);

  00007	8d 45 08	 lea	 eax, DWORD PTR _dwPlayerId$[ebp]
  0000a	50		 push	 eax
; File C:\IAGOS\server\v18\Source\Source\_Common\RainbowRace.cpp

; 416  : 	MAPRR::iterator it = m_mapRainbowRace.find( dwPlayerId );

  0000b	8d 71 0c	 lea	 esi, DWORD PTR [ecx+12]
; File C:\Program Files\Microsoft Visual Studio\2022\Professional\VC\Tools\MSVC\14.44.35207\include\xtree

; 1384 :         const _Tree_find_result<_Nodeptr> _Loc = _Find_lower_bound(_Keyval);

  0000e	8d 45 f4	 lea	 eax, DWORD PTR __Loc$1[ebp]
  00011	8b ce		 mov	 ecx, esi
  00013	50		 push	 eax
  00014	e8 00 00 00 00	 call	 ??$_Find_lower_bound@K@?$_Tree@V?$_Tmap_traits@KPAVCRainbowRace@@U?$less@K@std@@V?$allocator@U?$pair@$$CBKPAVCRainbowRace@@@std@@@3@$0A@@std@@@std@@IBE?AU?$_Tree_find_result@PAU?$_Tree_node@U?$pair@$$CBKPAVCRainbowRace@@@std@@PAX@std@@@1@ABK@Z ; std::_Tree<std::_Tmap_traits<unsigned long,CRainbowRace *,std::less<unsigned long>,std::allocator<std::pair<unsigned long const ,CRainbowRace *> >,0> >::_Find_lower_bound<unsigned long>

; 1624 :         return !_Bound->_Isnil && !_DEBUG_LT_PRED(_Getcomp(), _Keyval, _Traits::_Kfn(_Bound->_Myval));

  00019	8b 45 fc	 mov	 eax, DWORD PTR __Loc$1[ebp+8]
  0001c	80 78 0d 00	 cmp	 BYTE PTR [eax+13], 0
  00020	75 16		 jne	 SHORT $LN50@GetRainbow
; File C:\Program Files\Microsoft Visual Studio\2022\Professional\VC\Tools\MSVC\14.44.35207\include\type_traits

; 2380 :         return _Left < _Right;

  00022	8b 4d 08	 mov	 ecx, DWORD PTR _dwPlayerId$[ebp]
  00025	3b 48 10	 cmp	 ecx, DWORD PTR [eax+16]
; File C:\Program Files\Microsoft Visual Studio\2022\Professional\VC\Tools\MSVC\14.44.35207\include\xtree

; 1624 :         return !_Bound->_Isnil && !_DEBUG_LT_PRED(_Getcomp(), _Keyval, _Traits::_Kfn(_Bound->_Myval));

  00028	72 0e		 jb	 SHORT $LN50@GetRainbow

; 37   :     _Tree_unchecked_const_iterator(_Nodeptr _Pnode, const _Mytree* _Plist) noexcept : _Ptr(_Pnode) {

  0002a	3b 06		 cmp	 eax, DWORD PTR [esi]
; File C:\IAGOS\server\v18\Source\Source\_Common\RainbowRace.cpp

; 417  : 	if( it == m_mapRainbowRace.end() )

  0002c	74 0a		 je	 SHORT $LN50@GetRainbow

; 419  : 
; 420  : 	return it->second;

  0002e	8b 40 14	 mov	 eax, DWORD PTR [eax+20]
  00031	5e		 pop	 esi

; 421  : }

  00032	8b e5		 mov	 esp, ebp
  00034	5d		 pop	 ebp
  00035	c2 04 00	 ret	 4
$LN50@GetRainbow:

; 418  : 		return NULL;

  00038	33 c0		 xor	 eax, eax
  0003a	5e		 pop	 esi

; 421  : }

  0003b	8b e5		 mov	 esp, ebp
  0003d	5d		 pop	 ebp
  0003e	c2 04 00	 ret	 4
?GetRainbowRacerPtr@CRainbowRaceMng@@QAEPAVCRainbowRace@@K@Z ENDP ; CRainbowRaceMng::GetRainbowRacerPtr
_TEXT	ENDS
; Function compile flags: /Ogtp
; File C:\IAGOS\server\v18\Source\Source\_Common\RainbowRace.cpp
; File C:\IAGOS\server\v18\Source\Source\_Common\RainbowRace.h
; File C:\IAGOS\server\v18\Source\Source\_Common\RainbowRace.cpp
; File C:\IAGOS\server\v18\Source\Source\_Common\RainbowRace.h
; File C:\IAGOS\server\v18\Source\Source\_Common\RainbowRace.cpp
; File C:\IAGOS\server\v18\Source\Source\_Common\RainbowRace.h
; File C:\IAGOS\server\v18\Source\Source\_Common\RainbowRace.cpp
; File C:\IAGOS\server\v18\Source\Source\_Common\RainbowRace.h
; File C:\IAGOS\server\v18\Source\Source\_Common\RainbowRace.cpp
; File C:\IAGOS\server\v18\Source\Source\_Common\RainbowRace.h
; File C:\IAGOS\server\v18\Source\Source\_Common\RainbowRace.cpp
; File C:\IAGOS\server\v18\Source\Source\_Common\RainbowRace.h
; File C:\IAGOS\server\v18\Source\Source\_Common\RainbowRace.cpp
; File C:\Program Files\Microsoft Visual Studio\2022\Professional\VC\Tools\MSVC\14.44.35207\include\vector
; File C:\IAGOS\server\v18\Source\Source\_Common\RainbowRace.cpp
;	COMDAT ?Process@CRainbowRaceMng@@QAEXXZ
_TEXT	SEGMENT
tv366 = -268						; size = 8
tv377 = -268						; size = 8
tv385 = -268						; size = 8
_szFinish$1 = -260					; size = 256
__$ArrayPad$ = -4					; size = 4
?Process@CRainbowRaceMng@@QAEXXZ PROC			; CRainbowRaceMng::Process, COMDAT
; _this$ = ecx

; 283  : {

  00000	55		 push	 ebp
  00001	8b ec		 mov	 ebp, esp
  00003	81 ec 0c 01 00
	00		 sub	 esp, 268		; 0000010cH
  00009	a1 00 00 00 00	 mov	 eax, DWORD PTR ___security_cookie
  0000e	33 c5		 xor	 eax, ebp
  00010	89 45 fc	 mov	 DWORD PTR __$ArrayPad$[ebp], eax
  00013	56		 push	 esi
  00014	57		 push	 edi
  00015	8b f1		 mov	 esi, ecx

; 284  : 	DWORD dwTick = GetTickCount();

  00017	ff 15 00 00 00
	00		 call	 DWORD PTR __imp__GetTickCount@0
  0001d	8b f8		 mov	 edi, eax

; 285  : 
; 286  : 	switch( GetState() )		// ЧіРч StateПЁМ­ ДйРН StateЗЮ ГбОюАЅЖЇ УГИЎ, m_nStateДТ ЧіРч State

  0001f	8b 46 28	 mov	 eax, DWORD PTR [esi+40]
  00022	83 f8 05	 cmp	 eax, 5
  00025	0f 87 de 02 00
	00		 ja	 $LN18@Process
  0002b	ff 24 85 00 00
	00 00		 jmp	 DWORD PTR $LN39@Process[eax*4]
$LN4@Process:

; 287  : 	{
; 288  : 		case RR_CLOSED:
; 289  : 		{
; 290  : 			if( IsApplicationTime() )

  00032	8b ce		 mov	 ecx, esi
  00034	e8 00 00 00 00	 call	 ?IsApplicationTime@CRainbowRaceMng@@AAEHXZ ; CRainbowRaceMng::IsApplicationTime
  00039	85 c0		 test	 eax, eax
  0003b	74 35		 je	 SHORT $LN5@Process

; 291  : 			{
; 292  : 				g_DPCoreClient.SendCaption( GETTEXT( TID_GAME_RAINBOWRACE_CAPTION_APPLICATION ) );

  0003d	6a 00		 push	 0
  0003f	6a 00		 push	 0
  00041	68 a8 0f 00 00	 push	 4008			; 00000fa8H
  00046	b9 00 00 00 00	 mov	 ecx, OFFSET ?prj@@3VCProject@@A ; prj
  0004b	e8 00 00 00 00	 call	 ?GetText@CProject@@QAEPBDK@Z ; CProject::GetText
  00050	50		 push	 eax
  00051	b9 00 00 00 00	 mov	 ecx, OFFSET ?g_DPCoreClient@@3VCDPCoreClient@@A ; g_DPCoreClient
  00056	e8 00 00 00 00	 call	 ?SendCaption@CDPCoreClient@@QAEXPBDKH@Z ; CDPCoreClient::SendCaption
  0005b	5f		 pop	 edi
; File C:\IAGOS\server\v18\Source\Source\_Common\RainbowRace.h

; 75   : 	void	SetState( int nState )	{ m_nState = nState; }				// State КЏАц

  0005c	c7 46 28 01 00
	00 00		 mov	 DWORD PTR [esi+40], 1
; File C:\IAGOS\server\v18\Source\Source\_Common\RainbowRace.cpp

; 384  : }

  00063	5e		 pop	 esi
  00064	8b 4d fc	 mov	 ecx, DWORD PTR __$ArrayPad$[ebp]
  00067	33 cd		 xor	 ecx, ebp
  00069	e8 00 00 00 00	 call	 @__security_check_cookie@4
  0006e	8b e5		 mov	 esp, ebp
  00070	5d		 pop	 ebp
  00071	c3		 ret	 0
$LN5@Process:

; 293  : 				SetState( RR_APPLICATION );
; 294  : 				break;
; 295  : 			}
; 296  : 			
; 297  : 			if( IsOpenTime() )

  00072	8b ce		 mov	 ecx, esi
  00074	e8 00 00 00 00	 call	 ?IsOpenTime@CRainbowRaceMng@@AAEHXZ ; CRainbowRaceMng::IsOpenTime
  00079	85 c0		 test	 eax, eax
  0007b	0f 84 88 02 00
	00		 je	 $LN18@Process

; 298  : 			{
; 299  : 				SetState( RR_OPEN );

  00081	5f		 pop	 edi
  00082	c7 46 28 02 00
	00 00		 mov	 DWORD PTR [esi+40], 2

; 384  : }

  00089	5e		 pop	 esi
  0008a	8b 4d fc	 mov	 ecx, DWORD PTR __$ArrayPad$[ebp]
  0008d	33 cd		 xor	 ecx, ebp
  0008f	e8 00 00 00 00	 call	 @__security_check_cookie@4
  00094	8b e5		 mov	 esp, ebp
  00096	5d		 pop	 ebp
  00097	c3		 ret	 0
$LN7@Process:

; 300  : 				break;
; 301  : 			}
; 302  : 			
; 303  : 			break;
; 304  : 		}
; 305  : 
; 306  : 		case RR_APPLICATION:
; 307  : 		{
; 308  : 			if( !IsApplicationTime() )

  00098	8b ce		 mov	 ecx, esi
  0009a	e8 00 00 00 00	 call	 ?IsApplicationTime@CRainbowRaceMng@@AAEHXZ ; CRainbowRaceMng::IsApplicationTime
  0009f	85 c0		 test	 eax, eax
  000a1	0f 85 62 02 00
	00		 jne	 $LN18@Process

; 309  : 			{
; 310  : 				//g_DPCoreClient.SendCaption( "ЗЙРЮКИПь НХУЛ НУАЃРЬ ГЁГЕОю!!" );	
; 311  : 				
; 312  : 				SetNextTime( 0 );

  000a7	5f		 pop	 edi
  000a8	89 46 2c	 mov	 DWORD PTR [esi+44], eax

; 313  : 				SetState( RR_CLOSED );

  000ab	89 46 28	 mov	 DWORD PTR [esi+40], eax

; 384  : }

  000ae	5e		 pop	 esi
  000af	8b 4d fc	 mov	 ecx, DWORD PTR __$ArrayPad$[ebp]
  000b2	33 cd		 xor	 ecx, ebp
  000b4	e8 00 00 00 00	 call	 @__security_check_cookie@4
  000b9	8b e5		 mov	 esp, ebp
  000bb	5d		 pop	 ebp
  000bc	c3		 ret	 0
$LN9@Process:

; 314  : 			}
; 315  : 			break;
; 316  : 		}
; 317  : 
; 318  : 		case RR_OPEN:
; 319  : 		{
; 320  : 			if( GetApplicantNum() > 0 )

  000bd	83 7e 10 00	 cmp	 DWORD PTR [esi+16], 0
  000c1	7e 5b		 jle	 SHORT $LN10@Process

; 321  : 			{
; 322  : 				SetNextTime( dwTick + static_cast<DWORD>( m_Lua.GetGlobalNumber( "Wait_Time" ) ) );

  000c3	68 00 00 00 00	 push	 OFFSET ??_C@_09PFMGHMMG@Wait_Time@
  000c8	8d 4e 20	 lea	 ecx, DWORD PTR [esi+32]
  000cb	e8 00 00 00 00	 call	 ?GetGlobalNumber@CLuaBase@@QAENPAD@Z ; CLuaBase::GetGlobalNumber
  000d0	dd 9d f4 fe ff
	ff		 fstp	 QWORD PTR tv385[ebp]
  000d6	f2 0f 10 85 f4
	fe ff ff	 movsd	 xmm0, QWORD PTR tv385[ebp]
  000de	e8 00 00 00 00	 call	 __dtol3

; 323  : 				g_DPCoreClient.SendCaption( GETTEXT( TID_GAME_RAINBOWRACE_CAPTION_WAIT ) );

  000e3	6a 00		 push	 0
  000e5	6a 00		 push	 0
  000e7	03 c7		 add	 eax, edi
  000e9	b9 00 00 00 00	 mov	 ecx, OFFSET ?prj@@3VCProject@@A ; prj
  000ee	68 a9 0f 00 00	 push	 4009			; 00000fa9H
; File C:\IAGOS\server\v18\Source\Source\_Common\RainbowRace.h

; 79   : 	void	SetNextTime( DWORD dwTick )		{ m_dwNextTime = dwTick; }			// ДйРН ДмАш НУАЃ МГСЄ

  000f3	89 46 2c	 mov	 DWORD PTR [esi+44], eax
; File C:\IAGOS\server\v18\Source\Source\_Common\RainbowRace.cpp

; 323  : 				g_DPCoreClient.SendCaption( GETTEXT( TID_GAME_RAINBOWRACE_CAPTION_WAIT ) );

  000f6	e8 00 00 00 00	 call	 ?GetText@CProject@@QAEPBDK@Z ; CProject::GetText
  000fb	50		 push	 eax
  000fc	b9 00 00 00 00	 mov	 ecx, OFFSET ?g_DPCoreClient@@3VCDPCoreClient@@A ; g_DPCoreClient
  00101	e8 00 00 00 00	 call	 ?SendCaption@CDPCoreClient@@QAEXPBDKH@Z ; CDPCoreClient::SendCaption
; File C:\IAGOS\server\v18\Source\Source\_Common\RainbowRace.h

; 75   : 	void	SetState( int nState )	{ m_nState = nState; }				// State КЏАц

  00106	b8 03 00 00 00	 mov	 eax, 3
  0010b	5f		 pop	 edi
; File C:\IAGOS\server\v18\Source\Source\_Common\RainbowRace.cpp

; 331  : 			break;

  0010c	89 46 28	 mov	 DWORD PTR [esi+40], eax

; 384  : }

  0010f	5e		 pop	 esi
  00110	8b 4d fc	 mov	 ecx, DWORD PTR __$ArrayPad$[ebp]
  00113	33 cd		 xor	 ecx, ebp
  00115	e8 00 00 00 00	 call	 @__security_check_cookie@4
  0011a	8b e5		 mov	 esp, ebp
  0011c	5d		 pop	 ebp
  0011d	c3		 ret	 0
$LN10@Process:

; 324  : 				SetState( RR_WAIT );
; 325  : 			}
; 326  : 			else
; 327  : 			{
; 328  : 				SetNextTime( 0 );

  0011e	c7 46 2c 00 00
	00 00		 mov	 DWORD PTR [esi+44], 0

; 329  : 				SetState( RR_CLOSED );

  00125	33 c0		 xor	 eax, eax
  00127	5f		 pop	 edi

; 331  : 			break;

  00128	89 46 28	 mov	 DWORD PTR [esi+40], eax

; 384  : }

  0012b	5e		 pop	 esi
  0012c	8b 4d fc	 mov	 ecx, DWORD PTR __$ArrayPad$[ebp]
  0012f	33 cd		 xor	 ecx, ebp
  00131	e8 00 00 00 00	 call	 @__security_check_cookie@4
  00136	8b e5		 mov	 esp, ebp
  00138	5d		 pop	 ebp
  00139	c3		 ret	 0
$LN12@Process:

; 332  : 		}
; 333  : 
; 334  : 		case RR_WAIT:
; 335  : 		{
; 336  : 			if( GetNextTime() < dwTick )

  0013a	39 7e 2c	 cmp	 DWORD PTR [esi+44], edi
  0013d	0f 83 c6 01 00
	00		 jae	 $LN18@Process

; 337  : 			{
; 338  : 				SetNextTime( dwTick + static_cast<DWORD>( m_Lua.GetGlobalNumber( "Ready_Time" ) ) );

  00143	68 00 00 00 00	 push	 OFFSET ??_C@_0L@MLMNOHKN@Ready_Time@
  00148	8d 4e 20	 lea	 ecx, DWORD PTR [esi+32]
  0014b	e8 00 00 00 00	 call	 ?GetGlobalNumber@CLuaBase@@QAENPAD@Z ; CLuaBase::GetGlobalNumber
  00150	dd 9d f4 fe ff
	ff		 fstp	 QWORD PTR tv377[ebp]
  00156	f2 0f 10 85 f4
	fe ff ff	 movsd	 xmm0, QWORD PTR tv377[ebp]
  0015e	e8 00 00 00 00	 call	 __dtol3

; 339  : 				g_DPCoreClient.SendCaption( GETTEXT( TID_GAME_RAINBOWRACE_CAPTION_READY01 ) );

  00163	6a 00		 push	 0
  00165	6a 00		 push	 0
  00167	03 c7		 add	 eax, edi
  00169	b9 00 00 00 00	 mov	 ecx, OFFSET ?prj@@3VCProject@@A ; prj
  0016e	68 aa 0f 00 00	 push	 4010			; 00000faaH
; File C:\IAGOS\server\v18\Source\Source\_Common\RainbowRace.h

; 79   : 	void	SetNextTime( DWORD dwTick )		{ m_dwNextTime = dwTick; }			// ДйРН ДмАш НУАЃ МГСЄ

  00173	89 46 2c	 mov	 DWORD PTR [esi+44], eax
; File C:\IAGOS\server\v18\Source\Source\_Common\RainbowRace.cpp

; 339  : 				g_DPCoreClient.SendCaption( GETTEXT( TID_GAME_RAINBOWRACE_CAPTION_READY01 ) );

  00176	e8 00 00 00 00	 call	 ?GetText@CProject@@QAEPBDK@Z ; CProject::GetText
  0017b	50		 push	 eax
  0017c	b9 00 00 00 00	 mov	 ecx, OFFSET ?g_DPCoreClient@@3VCDPCoreClient@@A ; g_DPCoreClient
  00181	e8 00 00 00 00	 call	 ?SendCaption@CDPCoreClient@@QAEXPBDKH@Z ; CDPCoreClient::SendCaption

; 340  : 				g_DPCoreClient.SendCaption( GETTEXT( TID_GAME_RAINBOWRACE_CAPTION_READY02 ) );

  00186	6a 00		 push	 0
  00188	6a 00		 push	 0
  0018a	68 ab 0f 00 00	 push	 4011			; 00000fabH
  0018f	b9 00 00 00 00	 mov	 ecx, OFFSET ?prj@@3VCProject@@A ; prj
  00194	e8 00 00 00 00	 call	 ?GetText@CProject@@QAEPBDK@Z ; CProject::GetText
  00199	50		 push	 eax
  0019a	b9 00 00 00 00	 mov	 ecx, OFFSET ?g_DPCoreClient@@3VCDPCoreClient@@A ; g_DPCoreClient
  0019f	e8 00 00 00 00	 call	 ?SendCaption@CDPCoreClient@@QAEXPBDKH@Z ; CDPCoreClient::SendCaption
  001a4	5f		 pop	 edi
; File C:\IAGOS\server\v18\Source\Source\_Common\RainbowRace.h

; 75   : 	void	SetState( int nState )	{ m_nState = nState; }				// State КЏАц

  001a5	c7 46 28 04 00
	00 00		 mov	 DWORD PTR [esi+40], 4
; File C:\IAGOS\server\v18\Source\Source\_Common\RainbowRace.cpp

; 384  : }

  001ac	5e		 pop	 esi
  001ad	8b 4d fc	 mov	 ecx, DWORD PTR __$ArrayPad$[ebp]
  001b0	33 cd		 xor	 ecx, ebp
  001b2	e8 00 00 00 00	 call	 @__security_check_cookie@4
  001b7	8b e5		 mov	 esp, ebp
  001b9	5d		 pop	 ebp
  001ba	c3		 ret	 0
$LN14@Process:

; 341  : 				SetState( RR_READY );
; 342  : 			}
; 343  : 			break;
; 344  : 		}
; 345  : 
; 346  : 		case RR_READY:
; 347  : 		{
; 348  : 			if( GetNextTime() < dwTick )

  001bb	39 7e 2c	 cmp	 DWORD PTR [esi+44], edi
  001be	0f 83 45 01 00
	00		 jae	 $LN18@Process

; 349  : 			{
; 350  : 				SetNPC();	// СјЧр NPCИІ Л§МК

  001c4	8b ce		 mov	 ecx, esi
  001c6	e8 00 00 00 00	 call	 ?SetNPC@CRainbowRaceMng@@AAEXXZ ; CRainbowRaceMng::SetNPC

; 351  : 				g_DPCoreClient.SendCaption( GETTEXT( TID_GAME_RAINBOWRACE_CAPTION_START ) );

  001cb	6a 00		 push	 0
  001cd	6a 00		 push	 0
  001cf	68 ac 0f 00 00	 push	 4012			; 00000facH
  001d4	b9 00 00 00 00	 mov	 ecx, OFFSET ?prj@@3VCProject@@A ; prj
  001d9	e8 00 00 00 00	 call	 ?GetText@CProject@@QAEPBDK@Z ; CProject::GetText
  001de	50		 push	 eax
  001df	b9 00 00 00 00	 mov	 ecx, OFFSET ?g_DPCoreClient@@3VCDPCoreClient@@A ; g_DPCoreClient
  001e4	e8 00 00 00 00	 call	 ?SendCaption@CDPCoreClient@@QAEXPBDKH@Z ; CDPCoreClient::SendCaption

; 352  : 				SetNextTime( dwTick + static_cast<DWORD>( m_Lua.GetGlobalNumber( "Progress_Time" ) ) );

  001e9	68 00 00 00 00	 push	 OFFSET ??_C@_0O@MFDJJFBC@Progress_Time@
  001ee	8d 4e 20	 lea	 ecx, DWORD PTR [esi+32]
  001f1	e8 00 00 00 00	 call	 ?GetGlobalNumber@CLuaBase@@QAENPAD@Z ; CLuaBase::GetGlobalNumber
  001f6	dd 9d f4 fe ff
	ff		 fstp	 QWORD PTR tv366[ebp]
  001fc	f2 0f 10 85 f4
	fe ff ff	 movsd	 xmm0, QWORD PTR tv366[ebp]
  00204	e8 00 00 00 00	 call	 __dtol3
  00209	03 c7		 add	 eax, edi

; 353  : 				SetState( RR_PROGRESS );

  0020b	c7 46 28 05 00
	00 00		 mov	 DWORD PTR [esi+40], 5

; 354  : 				BeginRainbowRace();

  00212	8b ce		 mov	 ecx, esi
; File C:\IAGOS\server\v18\Source\Source\_Common\RainbowRace.h

; 79   : 	void	SetNextTime( DWORD dwTick )		{ m_dwNextTime = dwTick; }			// ДйРН ДмАш НУАЃ МГСЄ

  00214	89 46 2c	 mov	 DWORD PTR [esi+44], eax
; File C:\IAGOS\server\v18\Source\Source\_Common\RainbowRace.cpp

; 354  : 				BeginRainbowRace();

  00217	e8 00 00 00 00	 call	 ?BeginRainbowRace@CRainbowRaceMng@@AAEXXZ ; CRainbowRaceMng::BeginRainbowRace
  0021c	5f		 pop	 edi

; 384  : }

  0021d	5e		 pop	 esi
  0021e	8b 4d fc	 mov	 ecx, DWORD PTR __$ArrayPad$[ebp]
  00221	33 cd		 xor	 ecx, ebp
  00223	e8 00 00 00 00	 call	 @__security_check_cookie@4
  00228	8b e5		 mov	 esp, ebp
  0022a	5d		 pop	 ebp
  0022b	c3		 ret	 0
$LN16@Process:

; 355  : 			}
; 356  : 			break;
; 357  : 		}
; 358  : 
; 359  : 		case RR_PROGRESS:
; 360  : 		{
; 361  : 			if( GetNextTime() < dwTick )

  0022c	8b ce		 mov	 ecx, esi
  0022e	39 7e 2c	 cmp	 DWORD PTR [esi+44], edi
  00231	0f 83 cc 00 00
	00		 jae	 $LN17@Process

; 362  : 			{
; 363  : 				RemoveNPC();

  00237	53		 push	 ebx
  00238	e8 00 00 00 00	 call	 ?RemoveNPC@CRainbowRaceMng@@AAEXXZ ; CRainbowRaceMng::RemoveNPC

; 364  : 				SetMiniGamePrize( 0 );	// ЙЬДЯАдРг ЛѓЧАСіБо ПЙОр ЕШАХ ИеРњ СіБо

  0023d	6a 00		 push	 0
  0023f	8b ce		 mov	 ecx, esi
  00241	e8 00 00 00 00	 call	 ?SetMiniGamePrize@CRainbowRaceMng@@AAEXK@Z ; CRainbowRaceMng::SetMiniGamePrize

; 365  : 				g_DPCoreClient.SendCaption( GETTEXT( TID_GAME_RAINBOWRACE_CAPTION_FINISH01 ) );

  00246	6a 00		 push	 0
  00248	6a 00		 push	 0
  0024a	68 ad 0f 00 00	 push	 4013			; 00000fadH
  0024f	b9 00 00 00 00	 mov	 ecx, OFFSET ?prj@@3VCProject@@A ; prj
  00254	e8 00 00 00 00	 call	 ?GetText@CProject@@QAEPBDK@Z ; CProject::GetText
  00259	50		 push	 eax
  0025a	b9 00 00 00 00	 mov	 ecx, OFFSET ?g_DPCoreClient@@3VCDPCoreClient@@A ; g_DPCoreClient
  0025f	e8 00 00 00 00	 call	 ?SendCaption@CDPCoreClient@@QAEXPBDKH@Z ; CDPCoreClient::SendCaption
; File C:\Program Files\Microsoft Visual Studio\2022\Professional\VC\Tools\MSVC\14.44.35207\include\vector

; 1915 :         return static_cast<size_type>(_My_data._Mylast - _My_data._Myfirst);

  00264	8b 46 40	 mov	 eax, DWORD PTR [esi+64]
  00267	8d 7e 3c	 lea	 edi, DWORD PTR [esi+60]
  0026a	8b 1f		 mov	 ebx, DWORD PTR [edi]
  0026c	2b c3		 sub	 eax, ebx
  0026e	c1 f8 02	 sar	 eax, 2
; File C:\IAGOS\server\v18\Source\Source\_Common\RainbowRace.cpp

; 366  : 				if( m_vecdwRankingId.size() > 0 ) // ПьНТРк УтЗТ

  00271	85 c0		 test	 eax, eax
  00273	74 59		 je	 SHORT $LN19@Process

; 367  : 				{
; 368  : 					char szFinish[256] = {0,};

  00275	68 00 01 00 00	 push	 256			; 00000100H
  0027a	8d 85 fc fe ff
	ff		 lea	 eax, DWORD PTR _szFinish$1[ebp]
  00280	6a 00		 push	 0
  00282	50		 push	 eax
  00283	e8 00 00 00 00	 call	 _memset
  00288	83 c4 0c	 add	 esp, 12			; 0000000cH

; 369  : 					sprintf( szFinish, GETTEXT( TID_GAME_RAINBOWRACE_CAPTION_FINISH02 ), 

  0028b	ff 33		 push	 DWORD PTR [ebx]
  0028d	e8 00 00 00 00	 call	 ?GetInstance@CPlayerDataCenter@@SAPAV1@XZ ; CPlayerDataCenter::GetInstance
  00292	8b c8		 mov	 ecx, eax
  00294	e8 00 00 00 00	 call	 ?GetPlayerString@CPlayerDataCenter@@QAEPBDK@Z ; CPlayerDataCenter::GetPlayerString
  00299	50		 push	 eax
  0029a	68 ae 0f 00 00	 push	 4014			; 00000faeH
  0029f	b9 00 00 00 00	 mov	 ecx, OFFSET ?prj@@3VCProject@@A ; prj
  002a4	e8 00 00 00 00	 call	 ?GetText@CProject@@QAEPBDK@Z ; CProject::GetText
  002a9	50		 push	 eax
  002aa	8d 85 fc fe ff
	ff		 lea	 eax, DWORD PTR _szFinish$1[ebp]
  002b0	50		 push	 eax
  002b1	e8 00 00 00 00	 call	 _sprintf
  002b6	83 c4 0c	 add	 esp, 12			; 0000000cH

; 370  : 							CPlayerDataCenter::GetInstance()->GetPlayerString( m_vecdwRankingId[0] ) ); // ПьНТРк РЬИЇ
; 371  : 					g_DPCoreClient.SendCaption( szFinish );

  002b9	8d 85 fc fe ff
	ff		 lea	 eax, DWORD PTR _szFinish$1[ebp]
  002bf	b9 00 00 00 00	 mov	 ecx, OFFSET ?g_DPCoreClient@@3VCDPCoreClient@@A ; g_DPCoreClient
  002c4	6a 00		 push	 0
  002c6	6a 00		 push	 0
  002c8	50		 push	 eax
  002c9	e8 00 00 00 00	 call	 ?SendCaption@CDPCoreClient@@QAEXPBDKH@Z ; CDPCoreClient::SendCaption
$LN19@Process:

; 372  : 				}
; 373  : 				SetPrize();

  002ce	8b ce		 mov	 ecx, esi
  002d0	e8 00 00 00 00	 call	 ?SetPrize@CRainbowRaceMng@@AAEXXZ ; CRainbowRaceMng::SetPrize

; 374  : 				g_dpDBClient.SendRainbowRaceRanking( NULL_ID, 0 ); // ЗЙРЮКИПь ЗЙРЬНК СОЗс - ПЯСжРк ЗЉХЗ Йз ЦаЙшРкЕщРЛ DBПЁ РњРхЧбДй.

  002d5	6a 00		 push	 0
  002d7	6a ff		 push	 -1
  002d9	b9 00 00 00 00	 mov	 ecx, OFFSET ?g_dpDBClient@@3VCDPDatabaseClient@@A ; g_dpDBClient
  002de	e8 00 00 00 00	 call	 ?SendRainbowRaceRanking@CDPDatabaseClient@@QAEXKH@Z ; CDPDatabaseClient::SendRainbowRaceRanking

; 375  : 				SetPrevRanking( m_vecdwRankingId );

  002e3	57		 push	 edi
  002e4	8b ce		 mov	 ecx, esi
  002e6	e8 00 00 00 00	 call	 ?SetPrevRanking@CRainbowRaceMng@@QAEXAAV?$vector@KV?$allocator@K@std@@@std@@@Z ; CRainbowRaceMng::SetPrevRanking

; 376  : 				Clear();

  002eb	8b ce		 mov	 ecx, esi
  002ed	e8 00 00 00 00	 call	 ?Clear@CRainbowRaceMng@@QAEXXZ ; CRainbowRaceMng::Clear
  002f2	5b		 pop	 ebx
  002f3	5f		 pop	 edi

; 384  : }

  002f4	5e		 pop	 esi
  002f5	8b 4d fc	 mov	 ecx, DWORD PTR __$ArrayPad$[ebp]
  002f8	33 cd		 xor	 ecx, ebp
  002fa	e8 00 00 00 00	 call	 @__security_check_cookie@4
  002ff	8b e5		 mov	 esp, ebp
  00301	5d		 pop	 ebp
  00302	c3		 ret	 0
$LN17@Process:

; 377  : 			}
; 378  : 			else
; 379  : 				SetMiniGamePrize( dwTick );

  00303	57		 push	 edi
  00304	e8 00 00 00 00	 call	 ?SetMiniGamePrize@CRainbowRaceMng@@AAEXK@Z ; CRainbowRaceMng::SetMiniGamePrize
$LN18@Process:

; 384  : }

  00309	8b 4d fc	 mov	 ecx, DWORD PTR __$ArrayPad$[ebp]
  0030c	5f		 pop	 edi
  0030d	33 cd		 xor	 ecx, ebp
  0030f	5e		 pop	 esi
  00310	e8 00 00 00 00	 call	 @__security_check_cookie@4
  00315	8b e5		 mov	 esp, ebp
  00317	5d		 pop	 ebp
  00318	c3		 ret	 0
  00319	0f 1f 00	 npad	 3
$LN39@Process:
  0031c	00 00 00 00	 DD	 $LN4@Process
  00320	00 00 00 00	 DD	 $LN7@Process
  00324	00 00 00 00	 DD	 $LN9@Process
  00328	00 00 00 00	 DD	 $LN12@Process
  0032c	00 00 00 00	 DD	 $LN14@Process
  00330	00 00 00 00	 DD	 $LN16@Process
?Process@CRainbowRaceMng@@QAEXXZ ENDP			; CRainbowRaceMng::Process
_TEXT	ENDS
; Function compile flags: /Ogtp
; File C:\IAGOS\server\v18\Source\Source\_Common\RainbowRace.cpp
;	COMDAT ?LoadScript@CRainbowRaceMng@@QAEHXZ
_TEXT	SEGMENT
?LoadScript@CRainbowRaceMng@@QAEHXZ PROC		; CRainbowRaceMng::LoadScript, COMDAT
; _this$ = ecx

; 271  : {

  00000	56		 push	 esi

; 272  : 	if( m_Lua.RunScript( "RainbowRace.lua" ) != 0 )

  00001	8d 71 20	 lea	 esi, DWORD PTR [ecx+32]
  00004	68 00 00 00 00	 push	 OFFSET ??_C@_0BA@OBGJEHGO@RainbowRace?4lua@
  00009	8b ce		 mov	 ecx, esi
  0000b	e8 00 00 00 00	 call	 ?RunScript@CLuaBase@@QAEHPBD@Z ; CLuaBase::RunScript
  00010	85 c0		 test	 eax, eax
  00012	75 0f		 jne	 SHORT $LN7@LoadScript

; 276  : 	}
; 277  : 	m_Lua.Pop( 0 );

  00014	50		 push	 eax
  00015	8b ce		 mov	 ecx, esi
  00017	e8 00 00 00 00	 call	 ?Pop@CLuaBase@@QAEXH@Z	; CLuaBase::Pop

; 278  : 
; 279  : 	return TRUE;

  0001c	b8 01 00 00 00	 mov	 eax, 1

; 280  : }

  00021	5e		 pop	 esi
  00022	c3		 ret	 0
$LN7@LoadScript:

; 273  : 	{
; 274  : 		Error( "RainbowRace.lua Load Failed!!" );	

  00023	68 00 00 00 00	 push	 OFFSET ??_C@_0BO@ICACELGC@RainbowRace?4lua?5Load?5Failed?$CB?$CB@
  00028	e8 00 00 00 00	 call	 ?Error@@YAPBDPBDZZ	; Error
  0002d	83 c4 04	 add	 esp, 4

; 275  : 		exit(0);

  00030	6a 00		 push	 0
  00032	e8 00 00 00 00	 call	 _exit
$LN5@LoadScript:
  00037	cc		 int	 3
?LoadScript@CRainbowRaceMng@@QAEHXZ ENDP		; CRainbowRaceMng::LoadScript
_TEXT	ENDS
; Function compile flags: /Ogtp
; File C:\IAGOS\server\v18\Source\Source\_Common\RainbowRace.cpp
;	COMDAT ?GetInstance@CRainbowRaceMng@@SAPAV1@XZ
_TEXT	SEGMENT
__$EHRec$ = -12						; size = 12
?GetInstance@CRainbowRaceMng@@SAPAV1@XZ PROC		; CRainbowRaceMng::GetInstance, COMDAT

; 265  : {

  00000	55		 push	 ebp
  00001	8b ec		 mov	 ebp, esp
  00003	6a ff		 push	 -1
  00005	68 00 00 00 00	 push	 __ehhandler$?GetInstance@CRainbowRaceMng@@SAPAV1@XZ
  0000a	64 a1 00 00 00
	00		 mov	 eax, DWORD PTR fs:0
  00010	50		 push	 eax
  00011	a1 00 00 00 00	 mov	 eax, DWORD PTR ___security_cookie
  00016	33 c5		 xor	 eax, ebp
  00018	50		 push	 eax
  00019	8d 45 f4	 lea	 eax, DWORD PTR __$EHRec$[ebp]
  0001c	64 a3 00 00 00
	00		 mov	 DWORD PTR fs:0, eax

; 266  : 	static CRainbowRaceMng sRainbowRace;

  00022	64 a1 00 00 00
	00		 mov	 eax, DWORD PTR fs:__tls_array
  00028	8b 0d 00 00 00
	00		 mov	 ecx, DWORD PTR __tls_index
  0002e	8b 0c 88	 mov	 ecx, DWORD PTR [eax+ecx*4]
  00031	a1 00 00 00 00	 mov	 eax, DWORD PTR ?$TSS0@?1??GetInstance@CRainbowRaceMng@@SAPAV2@XZ@4HA
  00036	3b 81 00 00 00
	00		 cmp	 eax, DWORD PTR __Init_thread_epoch[ecx]
  0003c	7f 14		 jg	 SHORT $LN9@GetInstanc
$LN5@GetInstanc:

; 267  : 	return & sRainbowRace;
; 268  : }

  0003e	b8 00 00 00 00	 mov	 eax, OFFSET ?sRainbowRace@?1??GetInstance@CRainbowRaceMng@@SAPAV2@XZ@4V2@A
  00043	8b 4d f4	 mov	 ecx, DWORD PTR __$EHRec$[ebp]
  00046	64 89 0d 00 00
	00 00		 mov	 DWORD PTR fs:0, ecx
  0004d	59		 pop	 ecx
  0004e	8b e5		 mov	 esp, ebp
  00050	5d		 pop	 ebp
  00051	c3		 ret	 0
$LN9@GetInstanc:

; 266  : 	static CRainbowRaceMng sRainbowRace;

  00052	68 00 00 00 00	 push	 OFFSET ?$TSS0@?1??GetInstance@CRainbowRaceMng@@SAPAV2@XZ@4HA
  00057	e8 00 00 00 00	 call	 __Init_thread_header
  0005c	83 c4 04	 add	 esp, 4
  0005f	83 3d 00 00 00
	00 ff		 cmp	 DWORD PTR ?$TSS0@?1??GetInstance@CRainbowRaceMng@@SAPAV2@XZ@4HA, -1
  00066	75 d6		 jne	 SHORT $LN5@GetInstanc
  00068	b9 00 00 00 00	 mov	 ecx, OFFSET ?sRainbowRace@?1??GetInstance@CRainbowRaceMng@@SAPAV2@XZ@4V2@A
  0006d	c7 45 fc 00 00
	00 00		 mov	 DWORD PTR __$EHRec$[ebp+8], 0
  00074	e8 00 00 00 00	 call	 ??0CRainbowRaceMng@@QAE@XZ ; CRainbowRaceMng::CRainbowRaceMng
  00079	68 00 00 00 00	 push	 OFFSET ??__FsRainbowRace@?1??GetInstance@CRainbowRaceMng@@SAPAV1@XZ@YAXXZ ; `CRainbowRaceMng::GetInstance'::`2'::`dynamic atexit destructor for 'sRainbowRace''
  0007e	e8 00 00 00 00	 call	 _atexit
  00083	68 00 00 00 00	 push	 OFFSET ?$TSS0@?1??GetInstance@CRainbowRaceMng@@SAPAV2@XZ@4HA
  00088	e8 00 00 00 00	 call	 __Init_thread_footer
  0008d	83 c4 08	 add	 esp, 8
  00090	eb ac		 jmp	 SHORT $LN5@GetInstanc
_TEXT	ENDS
;	COMDAT text$x
text$x	SEGMENT
__unwindfunclet$?GetInstance@CRainbowRaceMng@@SAPAV1@XZ$0:
  00000	68 00 00 00 00	 push	 OFFSET ?$TSS0@?1??GetInstance@CRainbowRaceMng@@SAPAV2@XZ@4HA
  00005	e8 00 00 00 00	 call	 __Init_thread_abort
  0000a	59		 pop	 ecx
  0000b	c3		 ret	 0
  0000c	cc		 int	 3
  0000d	cc		 int	 3
  0000e	cc		 int	 3
  0000f	cc		 int	 3
  00010	cc		 int	 3
__ehhandler$?GetInstance@CRainbowRaceMng@@SAPAV1@XZ:
  00011	90		 npad	 1
  00012	90		 npad	 1
  00013	8b 54 24 08	 mov	 edx, DWORD PTR [esp+8]
  00017	8d 42 0c	 lea	 eax, DWORD PTR [edx+12]
  0001a	8b 4a fc	 mov	 ecx, DWORD PTR [edx-4]
  0001d	33 c8		 xor	 ecx, eax
  0001f	e8 00 00 00 00	 call	 @__security_check_cookie@4
  00024	b8 00 00 00 00	 mov	 eax, OFFSET __ehfuncinfo$?GetInstance@CRainbowRaceMng@@SAPAV1@XZ
  00029	e9 00 00 00 00	 jmp	 ___CxxFrameHandler3
text$x	ENDS
?GetInstance@CRainbowRaceMng@@SAPAV1@XZ ENDP		; CRainbowRaceMng::GetInstance
; Function compile flags: /Ogtp
; File C:\IAGOS\server\v18\Source\Source\_Common\RainbowRace.cpp
; File C:\Program Files\Microsoft Visual Studio\2022\Professional\VC\Tools\MSVC\14.44.35207\include\xtree
; File C:\IAGOS\server\v18\Source\Source\_Common\RainbowRace.cpp
; File C:\Program Files\Microsoft Visual Studio\2022\Professional\VC\Tools\MSVC\14.44.35207\include\xtree
; File C:\IAGOS\server\v18\Source\Source\_Common\RainbowRace.cpp
; File C:\Program Files\Microsoft Visual Studio\2022\Professional\VC\Tools\MSVC\14.44.35207\include\xtree
; File C:\IAGOS\server\v18\Source\Source\_Common\RainbowRace.cpp
; File C:\Program Files\Microsoft Visual Studio\2022\Professional\VC\Tools\MSVC\14.44.35207\include\xtree
; File C:\Program Files\Microsoft Visual Studio\2022\Professional\VC\Tools\MSVC\14.44.35207\include\type_traits
; File C:\Program Files\Microsoft Visual Studio\2022\Professional\VC\Tools\MSVC\14.44.35207\include\xtree
; File C:\Program Files\Microsoft Visual Studio\2022\Professional\VC\Tools\MSVC\14.44.35207\include\type_traits
; File C:\Program Files\Microsoft Visual Studio\2022\Professional\VC\Tools\MSVC\14.44.35207\include\xtree
; File C:\IAGOS\server\v18\Source\Source\_Common\Project.h
; File C:\IAGOS\server\v18\Source\Source\_Common\Obj.h
; File C:\IAGOS\server\v18\Source\Source\_Common\RainbowRace.cpp
; File C:\Program Files\Microsoft Visual Studio\2022\Professional\VC\Tools\MSVC\14.44.35207\include\xtree
; File C:\IAGOS\server\v18\Source\Source\_Common\RainbowRace.cpp
; File C:\Program Files\Microsoft Visual Studio\2022\Professional\VC\Tools\MSVC\14.44.35207\include\xtree
; File C:\Program Files\Microsoft Visual Studio\2022\Professional\VC\Tools\MSVC\14.44.35207\include\utility
; File C:\Program Files\Microsoft Visual Studio\2022\Professional\VC\Tools\MSVC\14.44.35207\include\xmemory
; File C:\Program Files\Microsoft Visual Studio\2022\Professional\VC\Tools\MSVC\14.44.35207\include\xtree
; File C:\Program Files\Microsoft Visual Studio\2022\Professional\VC\Tools\MSVC\14.44.35207\include\vector
; File C:\Program Files\Microsoft Visual Studio\2022\Professional\VC\Tools\MSVC\14.44.35207\include\xtree
; File C:\Program Files\Microsoft Visual Studio\2022\Professional\VC\Tools\MSVC\14.44.35207\include\vector
; File C:\IAGOS\server\v18\Source\Source\_Common\RainbowRace.cpp
;	COMDAT ?Clear@CRainbowRaceMng@@QAEXXZ
_TEXT	SEGMENT
_this$1$ = -8						; size = 4
_it$2 = -4						; size = 4
?Clear@CRainbowRaceMng@@QAEXXZ PROC			; CRainbowRaceMng::Clear, COMDAT
; _this$ = ecx

; 245  : {

  00000	55		 push	 ebp
  00001	8b ec		 mov	 ebp, esp
  00003	83 ec 08	 sub	 esp, 8
  00006	8b c1		 mov	 eax, ecx
  00008	53		 push	 ebx
  00009	56		 push	 esi
; File C:\Program Files\Microsoft Visual Studio\2022\Professional\VC\Tools\MSVC\14.44.35207\include\xtree

; 1142 :         return iterator(_Scary->_Myhead->_Left, _Scary);

  0000a	8d 58 0c	 lea	 ebx, DWORD PTR [eax+12]
; File C:\IAGOS\server\v18\Source\Source\_Common\RainbowRace.cpp

; 245  : {

  0000d	89 45 f8	 mov	 DWORD PTR _this$1$[ebp], eax

; 246  : 	SetNextTime(0);

  00010	c7 40 2c 00 00
	00 00		 mov	 DWORD PTR [eax+44], 0

; 247  : 	SetState( RR_CLOSED );

  00017	c7 40 28 00 00
	00 00		 mov	 DWORD PTR [eax+40], 0
  0001e	57		 push	 edi
; File C:\Program Files\Microsoft Visual Studio\2022\Professional\VC\Tools\MSVC\14.44.35207\include\xtree

; 1142 :         return iterator(_Scary->_Myhead->_Left, _Scary);

  0001f	8b 3b		 mov	 edi, DWORD PTR [ebx]

; 37   :     _Tree_unchecked_const_iterator(_Nodeptr _Pnode, const _Mytree* _Plist) noexcept : _Ptr(_Pnode) {

  00021	8b 37		 mov	 esi, DWORD PTR [edi]
  00023	89 75 fc	 mov	 DWORD PTR _it$2[ebp], esi

; 237  :         return !(*this == _Right);

  00026	3b f7		 cmp	 esi, edi
; File C:\IAGOS\server\v18\Source\Source\_Common\RainbowRace.cpp

; 249  : 	for( MAPRR::iterator it=m_mapRainbowRace.begin(); it!=m_mapRainbowRace.end(); it++ )

  00028	0f 84 9b 00 00
	00		 je	 $LN3@Clear
  0002e	66 90		 npad	 2
$LL4@Clear:

; 250  : 	{
; 251  : 		CRainbowRace* pRainbowRace = it->second;

  00030	8b 5e 14	 mov	 ebx, DWORD PTR [esi+20]

; 252  : 		pRainbowRace->m_wNowGame = 0x0000;

  00033	33 c0		 xor	 eax, eax

; 253  : 		pRainbowRace->m_wGameState = 0x0000;

  00035	89 03		 mov	 DWORD PTR [ebx], eax
; File C:\Program Files\Microsoft Visual Studio\2022\Professional\VC\Tools\MSVC\14.44.35207\include\xtree

; 1630 :         _Tree_find_result<_Nodeptr> _Result{{_Scary->_Myhead->_Parent, _Tree_child::_Right}, _Scary->_Myhead};

  00037	8b 3d 28 00 00
	00		 mov	 edi, DWORD PTR ?prj@@3VCProject@@A+40
  0003d	8b cf		 mov	 ecx, edi
; File C:\IAGOS\server\v18\Source\Source\_Common\RainbowRace.cpp

; 254  : 		CUser* pUser = static_cast<CUser*>( prj.GetUserByID( it->first ) );

  0003f	8b 56 10	 mov	 edx, DWORD PTR [esi+16]
; File C:\Program Files\Microsoft Visual Studio\2022\Professional\VC\Tools\MSVC\14.44.35207\include\xtree

; 1630 :         _Tree_find_result<_Nodeptr> _Result{{_Scary->_Myhead->_Parent, _Tree_child::_Right}, _Scary->_Myhead};

  00042	8b 47 04	 mov	 eax, DWORD PTR [edi+4]

; 1631 :         _Nodeptr _Trynode = _Result._Location._Parent;
; 1632 :         while (!_Trynode->_Isnil) {

  00045	80 78 0d 00	 cmp	 BYTE PTR [eax+13], 0
  00049	75 19		 jne	 SHORT $LN62@Clear
  0004b	0f 1f 44 00 00	 npad	 5
$LL61@Clear:
; File C:\Program Files\Microsoft Visual Studio\2022\Professional\VC\Tools\MSVC\14.44.35207\include\type_traits

; 2380 :         return _Left < _Right;

  00050	39 50 10	 cmp	 DWORD PTR [eax+16], edx
; File C:\Program Files\Microsoft Visual Studio\2022\Professional\VC\Tools\MSVC\14.44.35207\include\xtree

; 1634 :             if (_DEBUG_LT_PRED(_Getcomp(), _Traits::_Kfn(_Trynode->_Myval), _Keyval)) {

  00053	73 05		 jae	 SHORT $LN63@Clear

; 1635 :                 _Result._Location._Child = _Tree_child::_Right;
; 1636 :                 _Trynode                 = _Trynode->_Right;

  00055	8b 40 08	 mov	 eax, DWORD PTR [eax+8]

; 1637 :             } else {

  00058	eb 04		 jmp	 SHORT $LN64@Clear
$LN63@Clear:

; 1638 :                 _Result._Location._Child = _Tree_child::_Left;
; 1639 :                 _Result._Bound           = _Trynode;

  0005a	8b c8		 mov	 ecx, eax

; 1640 :                 _Trynode                 = _Trynode->_Left;

  0005c	8b 00		 mov	 eax, DWORD PTR [eax]
$LN64@Clear:

; 1631 :         _Nodeptr _Trynode = _Result._Location._Parent;
; 1632 :         while (!_Trynode->_Isnil) {

  0005e	80 78 0d 00	 cmp	 BYTE PTR [eax+13], 0
  00062	74 ec		 je	 SHORT $LL61@Clear
$LN62@Clear:

; 1624 :         return !_Bound->_Isnil && !_DEBUG_LT_PRED(_Getcomp(), _Keyval, _Traits::_Kfn(_Bound->_Myval));

  00064	80 79 0d 00	 cmp	 BYTE PTR [ecx+13], 0
  00068	75 05		 jne	 SHORT $LN58@Clear
; File C:\Program Files\Microsoft Visual Studio\2022\Professional\VC\Tools\MSVC\14.44.35207\include\type_traits

; 2380 :         return _Left < _Right;

  0006a	3b 51 10	 cmp	 edx, DWORD PTR [ecx+16]
; File C:\Program Files\Microsoft Visual Studio\2022\Professional\VC\Tools\MSVC\14.44.35207\include\xtree

; 1624 :         return !_Bound->_Isnil && !_DEBUG_LT_PRED(_Getcomp(), _Keyval, _Traits::_Kfn(_Bound->_Myval));

  0006d	73 02		 jae	 SHORT $LN57@Clear
$LN58@Clear:

; 1389 :         return _Get_scary()->_Myhead;

  0006f	8b cf		 mov	 ecx, edi
$LN57@Clear:

; 37   :     _Tree_unchecked_const_iterator(_Nodeptr _Pnode, const _Mytree* _Plist) noexcept : _Ptr(_Pnode) {

  00071	3b cf		 cmp	 ecx, edi
; File C:\IAGOS\server\v18\Source\Source\_Common\Project.h

; 1436 : 	if( i != m_idPlayerToUserPtr.end() )

  00073	74 19		 je	 SHORT $LN5@Clear

; 1437 : 		return i->second;

  00075	8b 49 14	 mov	 ecx, DWORD PTR [ecx+20]
; File C:\IAGOS\server\v18\Source\Source\_Common\Obj.h

; 327  : 	return pObj && ( pObj->IsDelete() == FALSE ); 

  00078	85 c9		 test	 ecx, ecx
  0007a	74 12		 je	 SHORT $LN5@Clear

; 180  : 	BOOL			IsDelete()	{ return (m_dwFlags & OBJ_FLAG_DELETE);  }

  0007c	f6 41 04 01	 test	 BYTE PTR [ecx+4], 1

; 327  : 	return pObj && ( pObj->IsDelete() == FALSE ); 

  00080	75 0c		 jne	 SHORT $LN5@Clear
; File C:\IAGOS\server\v18\Source\Source\_Common\RainbowRace.cpp

; 255  : 		if( IsValidObj( pUser ) && !pRainbowRace->IsFinished() )

  00082	83 7b 08 00	 cmp	 DWORD PTR [ebx+8], 0
  00086	75 06		 jne	 SHORT $LN5@Clear

; 256  : 			pUser->AddRainbowRaceState( pRainbowRace );

  00088	53		 push	 ebx
  00089	e8 00 00 00 00	 call	 ?AddRainbowRaceState@CUser@@QAEXPAVCRainbowRace@@@Z ; CUser::AddRainbowRaceState
$LN5@Clear:

; 257  : 		SAFE_DELETE( it->second );

  0008e	8b 7e 14	 mov	 edi, DWORD PTR [esi+20]
  00091	85 ff		 test	 edi, edi
  00093	74 19		 je	 SHORT $LN2@Clear
  00095	8b cf		 mov	 ecx, edi
  00097	e8 00 00 00 00	 call	 ??1CRainbowRace@@QAE@XZ	; CRainbowRace::~CRainbowRace
  0009c	6a 0c		 push	 12			; 0000000cH
  0009e	57		 push	 edi
  0009f	e8 00 00 00 00	 call	 ??3@YAXPAXI@Z		; operator delete
  000a4	83 c4 08	 add	 esp, 8
  000a7	c7 46 14 00 00
	00 00		 mov	 DWORD PTR [esi+20], 0
$LN2@Clear:
; File C:\Program Files\Microsoft Visual Studio\2022\Professional\VC\Tools\MSVC\14.44.35207\include\xtree

; 198  :         _Mybase::operator++();

  000ae	8d 4d fc	 lea	 ecx, DWORD PTR _it$2[ebp]
  000b1	e8 00 00 00 00	 call	 ??E?$_Tree_unchecked_const_iterator@V?$_Tree_val@U?$_Tree_simple_types@U?$pair@$$CBKPAVCRainbowRace@@@std@@@std@@@std@@U_Iterator_base0@2@@std@@QAEAAV01@XZ ; std::_Tree_unchecked_const_iterator<std::_Tree_val<std::_Tree_simple_types<std::pair<unsigned long const ,CRainbowRace *> > >,std::_Iterator_base0>::operator++

; 37   :     _Tree_unchecked_const_iterator(_Nodeptr _Pnode, const _Mytree* _Plist) noexcept : _Ptr(_Pnode) {

  000b6	8b 5d f8	 mov	 ebx, DWORD PTR _this$1$[ebp]

; 237  :         return !(*this == _Right);

  000b9	8b 75 fc	 mov	 esi, DWORD PTR _it$2[ebp]

; 37   :     _Tree_unchecked_const_iterator(_Nodeptr _Pnode, const _Mytree* _Plist) noexcept : _Ptr(_Pnode) {

  000bc	83 c3 0c	 add	 ebx, 12			; 0000000cH
  000bf	8b 3b		 mov	 edi, DWORD PTR [ebx]

; 237  :         return !(*this == _Right);

  000c1	3b f7		 cmp	 esi, edi
; File C:\IAGOS\server\v18\Source\Source\_Common\RainbowRace.cpp

; 249  : 	for( MAPRR::iterator it=m_mapRainbowRace.begin(); it!=m_mapRainbowRace.end(); it++ )

  000c3	0f 85 67 ff ff
	ff		 jne	 $LL4@Clear
$LN3@Clear:
; File C:\Program Files\Microsoft Visual Studio\2022\Professional\VC\Tools\MSVC\14.44.35207\include\xtree

; 1374 :         _Scary->_Erase_tree(_Getal(), _Head->_Parent);

  000c9	8b 77 04	 mov	 esi, DWORD PTR [edi+4]

; 768  :         while (!_Rootnode->_Isnil) { // free subtrees, then node

  000cc	80 7e 0d 00	 cmp	 BYTE PTR [esi+13], 0
  000d0	75 20		 jne	 SHORT $LN210@Clear
$LL131@Clear:

; 769  :             _Erase_tree(_Al, _Rootnode->_Right);

  000d2	ff 76 08	 push	 DWORD PTR [esi+8]
  000d5	8b cb		 mov	 ecx, ebx
  000d7	53		 push	 ebx
  000d8	e8 00 00 00 00	 call	 ??$_Erase_tree@V?$allocator@U?$_Tree_node@U?$pair@$$CBKPAVCRainbowRace@@@std@@PAX@std@@@std@@@?$_Tree_val@U?$_Tree_simple_types@U?$pair@$$CBKPAVCRainbowRace@@@std@@@std@@@std@@QAEXAAV?$allocator@U?$_Tree_node@U?$pair@$$CBKPAVCRainbowRace@@@std@@PAX@std@@@1@PAU?$_Tree_node@U?$pair@$$CBKPAVCRainbowRace@@@std@@PAX@1@@Z ; std::_Tree_val<std::_Tree_simple_types<std::pair<unsigned long const ,CRainbowRace *> > >::_Erase_tree<std::allocator<std::_Tree_node<std::pair<unsigned long const ,CRainbowRace *>,void *> > >
; File C:\Program Files\Microsoft Visual Studio\2022\Professional\VC\Tools\MSVC\14.44.35207\include\utility

; 773  :     _Ty _Old_val = static_cast<_Ty&&>(_Val);

  000dd	8b c6		 mov	 eax, esi

; 774  :     _Val         = static_cast<_Other&&>(_New_val);

  000df	8b 36		 mov	 esi, DWORD PTR [esi]
; File C:\Program Files\Microsoft Visual Studio\2022\Professional\VC\Tools\MSVC\14.44.35207\include\xmemory

; 289  :         ::operator delete(_Ptr, _Bytes);

  000e1	6a 18		 push	 24			; 00000018H
  000e3	50		 push	 eax
  000e4	e8 00 00 00 00	 call	 ??3@YAXPAXI@Z		; operator delete
  000e9	83 c4 08	 add	 esp, 8
; File C:\Program Files\Microsoft Visual Studio\2022\Professional\VC\Tools\MSVC\14.44.35207\include\xtree

; 768  :         while (!_Rootnode->_Isnil) { // free subtrees, then node

  000ec	80 7e 0d 00	 cmp	 BYTE PTR [esi+13], 0
  000f0	74 e0		 je	 SHORT $LL131@Clear
$LN210@Clear:
; File C:\Program Files\Microsoft Visual Studio\2022\Professional\VC\Tools\MSVC\14.44.35207\include\vector

; 1812 :         if (_Myfirst == _Mylast) { // already empty, nothing to do

  000f2	8b 4d f8	 mov	 ecx, DWORD PTR _this$1$[ebp]
; File C:\Program Files\Microsoft Visual Studio\2022\Professional\VC\Tools\MSVC\14.44.35207\include\xtree

; 1375 :         _Head->_Parent  = _Head;

  000f5	89 7f 04	 mov	 DWORD PTR [edi+4], edi

; 1376 :         _Head->_Left    = _Head;

  000f8	89 3f		 mov	 DWORD PTR [edi], edi

; 1377 :         _Head->_Right   = _Head;

  000fa	89 7f 08	 mov	 DWORD PTR [edi+8], edi

; 1378 :         _Scary->_Mysize = 0;

  000fd	c7 43 04 00 00
	00 00		 mov	 DWORD PTR [ebx+4], 0
; File C:\Program Files\Microsoft Visual Studio\2022\Professional\VC\Tools\MSVC\14.44.35207\include\vector

; 1812 :         if (_Myfirst == _Mylast) { // already empty, nothing to do

  00104	8b 41 3c	 mov	 eax, DWORD PTR [ecx+60]
  00107	5f		 pop	 edi
  00108	5e		 pop	 esi
  00109	5b		 pop	 ebx
  0010a	3b 41 40	 cmp	 eax, DWORD PTR [ecx+64]
  0010d	74 03		 je	 SHORT $LN162@Clear

; 1813 :             // This is an optimization for debug mode: we can avoid taking the debug lock to invalidate iterators.
; 1814 :             // Note that when clearing an empty vector, this will preserve past-the-end iterators, which is allowed by
; 1815 :             // N4950 [sequence.reqmts]/54 "a.clear() [...] may invalidate the past-the-end iterator".
; 1816 :             return;
; 1817 :         }
; 1818 : 
; 1819 :         _My_data._Orphan_all();
; 1820 :         _Destroy_range(_Myfirst, _Mylast, _Getal());
; 1821 :         _ASAN_VECTOR_MODIFY(static_cast<difference_type>(_Myfirst - _Mylast)); // negative when destroying elements
; 1822 :         _Mylast = _Myfirst;

  0010f	89 41 40	 mov	 DWORD PTR [ecx+64], eax
$LN162@Clear:

; 1812 :         if (_Myfirst == _Mylast) { // already empty, nothing to do

  00112	8b 01		 mov	 eax, DWORD PTR [ecx]
  00114	3b 41 04	 cmp	 eax, DWORD PTR [ecx+4]
  00117	74 03		 je	 SHORT $LN166@Clear

; 1813 :             // This is an optimization for debug mode: we can avoid taking the debug lock to invalidate iterators.
; 1814 :             // Note that when clearing an empty vector, this will preserve past-the-end iterators, which is allowed by
; 1815 :             // N4950 [sequence.reqmts]/54 "a.clear() [...] may invalidate the past-the-end iterator".
; 1816 :             return;
; 1817 :         }
; 1818 : 
; 1819 :         _My_data._Orphan_all();
; 1820 :         _Destroy_range(_Myfirst, _Mylast, _Getal());
; 1821 :         _ASAN_VECTOR_MODIFY(static_cast<difference_type>(_Myfirst - _Mylast)); // negative when destroying elements
; 1822 :         _Mylast = _Myfirst;

  00119	89 41 04	 mov	 DWORD PTR [ecx+4], eax
$LN166@Clear:
; File C:\IAGOS\server\v18\Source\Source\_Common\RainbowRace.cpp

; 262  : }

  0011c	8b e5		 mov	 esp, ebp
  0011e	5d		 pop	 ebp
  0011f	c3		 ret	 0
?Clear@CRainbowRaceMng@@QAEXXZ ENDP			; CRainbowRaceMng::Clear
_TEXT	ENDS
; Function compile flags: /Ogtp
; File C:\IAGOS\server\v18\Source\Source\_Common\RainbowRace.cpp
;	COMDAT ?Init@CRainbowRaceMng@@QAEHXZ
_TEXT	SEGMENT
?Init@CRainbowRaceMng@@QAEHXZ PROC			; CRainbowRaceMng::Init, COMDAT
; _this$ = ecx

; 239  : 	Clear();

  00000	e8 00 00 00 00	 call	 ?Clear@CRainbowRaceMng@@QAEXXZ ; CRainbowRaceMng::Clear

; 240  : 
; 241  : 	return TRUE;

  00005	b8 01 00 00 00	 mov	 eax, 1

; 242  : }

  0000a	c3		 ret	 0
?Init@CRainbowRaceMng@@QAEHXZ ENDP			; CRainbowRaceMng::Init
_TEXT	ENDS
; Function compile flags: /Ogtp
; File C:\IAGOS\server\v18\Source\Source\_Common\RainbowRace.cpp
; File C:\Program Files\Microsoft Visual Studio\2022\Professional\VC\Tools\MSVC\14.44.35207\include\vector
; File C:\IAGOS\server\v18\Source\Source\_Common\RainbowRace.cpp
; File C:\Program Files\Microsoft Visual Studio\2022\Professional\VC\Tools\MSVC\14.44.35207\include\vector
; File C:\IAGOS\server\v18\Source\Source\_Common\RainbowRace.cpp
; File C:\Program Files\Microsoft Visual Studio\2022\Professional\VC\Tools\MSVC\14.44.35207\include\vector
; File C:\IAGOS\server\v18\Source\Source\_Common\RainbowRace.cpp
; File C:\Program Files\Microsoft Visual Studio\2022\Professional\VC\Tools\MSVC\14.44.35207\include\vector
; File C:\IAGOS\server\v18\Source\Source\_Common\RainbowRace.cpp
; File C:\Program Files\Microsoft Visual Studio\2022\Professional\VC\Tools\MSVC\14.44.35207\include\vector
; File C:\IAGOS\server\v18\Source\Source\_Common\RainbowRace.cpp
;	COMDAT ??1CRainbowRaceMng@@QAE@XZ
_TEXT	SEGMENT
__$EHRec$ = -12						; size = 12
??1CRainbowRaceMng@@QAE@XZ PROC				; CRainbowRaceMng::~CRainbowRaceMng, COMDAT
; _this$ = ecx

; 228  : {

  00000	55		 push	 ebp
  00001	8b ec		 mov	 ebp, esp
  00003	6a ff		 push	 -1
  00005	68 00 00 00 00	 push	 __ehhandler$??1CRainbowRaceMng@@QAE@XZ
  0000a	64 a1 00 00 00
	00		 mov	 eax, DWORD PTR fs:0
  00010	50		 push	 eax
  00011	53		 push	 ebx
  00012	56		 push	 esi
  00013	57		 push	 edi
  00014	a1 00 00 00 00	 mov	 eax, DWORD PTR ___security_cookie
  00019	33 c5		 xor	 eax, ebp
  0001b	50		 push	 eax
  0001c	8d 45 f4	 lea	 eax, DWORD PTR __$EHRec$[ebp]
  0001f	64 a3 00 00 00
	00		 mov	 DWORD PTR fs:0, eax
  00025	8b d9		 mov	 ebx, ecx

; 229  : 	Clear();

  00027	e8 00 00 00 00	 call	 ?Clear@CRainbowRaceMng@@QAEXXZ ; CRainbowRaceMng::Clear
; File C:\Program Files\Microsoft Visual Studio\2022\Professional\VC\Tools\MSVC\14.44.35207\include\vector

; 1915 :         return static_cast<size_type>(_My_data._Mylast - _My_data._Myfirst);

  0002c	8b 53 18	 mov	 edx, DWORD PTR [ebx+24]
; File C:\IAGOS\server\v18\Source\Source\_Common\RainbowRace.cpp

; 231  : 	for( DWORD i=0; i<m_vecMiniGame.size(); i++ )

  0002f	33 f6		 xor	 esi, esi
; File C:\Program Files\Microsoft Visual Studio\2022\Professional\VC\Tools\MSVC\14.44.35207\include\vector

; 1915 :         return static_cast<size_type>(_My_data._Mylast - _My_data._Myfirst);

  00031	8b 4b 14	 mov	 ecx, DWORD PTR [ebx+20]
  00034	8b c2		 mov	 eax, edx
  00036	2b c1		 sub	 eax, ecx
  00038	c1 f8 02	 sar	 eax, 2
; File C:\IAGOS\server\v18\Source\Source\_Common\RainbowRace.cpp

; 231  : 	for( DWORD i=0; i<m_vecMiniGame.size(); i++ )

  0003b	85 c0		 test	 eax, eax
  0003d	74 2a		 je	 SHORT $LN3@CRainbowRa
  0003f	90		 npad	 1
$LL4@CRainbowRa:

; 232  : 		SAFE_DELETE( m_vecMiniGame[i] );

  00040	8b 0c b1	 mov	 ecx, DWORD PTR [ecx+esi*4]
  00043	85 c9		 test	 ecx, ecx
  00045	74 10		 je	 SHORT $LN2@CRainbowRa
  00047	8b 01		 mov	 eax, DWORD PTR [ecx]
  00049	6a 01		 push	 1
  0004b	ff 10		 call	 DWORD PTR [eax]
  0004d	8b 43 14	 mov	 eax, DWORD PTR [ebx+20]
  00050	c7 04 b0 00 00
	00 00		 mov	 DWORD PTR [eax+esi*4], 0
$LN2@CRainbowRa:
; File C:\Program Files\Microsoft Visual Studio\2022\Professional\VC\Tools\MSVC\14.44.35207\include\vector

; 1915 :         return static_cast<size_type>(_My_data._Mylast - _My_data._Myfirst);

  00057	8b 53 18	 mov	 edx, DWORD PTR [ebx+24]
; File C:\IAGOS\server\v18\Source\Source\_Common\RainbowRace.cpp

; 231  : 	for( DWORD i=0; i<m_vecMiniGame.size(); i++ )

  0005a	46		 inc	 esi
; File C:\Program Files\Microsoft Visual Studio\2022\Professional\VC\Tools\MSVC\14.44.35207\include\vector

; 1915 :         return static_cast<size_type>(_My_data._Mylast - _My_data._Myfirst);

  0005b	8b 4b 14	 mov	 ecx, DWORD PTR [ebx+20]
  0005e	8b c2		 mov	 eax, edx
  00060	2b c1		 sub	 eax, ecx
  00062	c1 f8 02	 sar	 eax, 2
; File C:\IAGOS\server\v18\Source\Source\_Common\RainbowRace.cpp

; 231  : 	for( DWORD i=0; i<m_vecMiniGame.size(); i++ )

  00065	3b f0		 cmp	 esi, eax
  00067	72 d7		 jb	 SHORT $LL4@CRainbowRa
$LN3@CRainbowRa:
; File C:\Program Files\Microsoft Visual Studio\2022\Professional\VC\Tools\MSVC\14.44.35207\include\vector

; 1812 :         if (_Myfirst == _Mylast) { // already empty, nothing to do

  00069	3b ca		 cmp	 ecx, edx
  0006b	74 03		 je	 SHORT $LN22@CRainbowRa

; 1813 :             // This is an optimization for debug mode: we can avoid taking the debug lock to invalidate iterators.
; 1814 :             // Note that when clearing an empty vector, this will preserve past-the-end iterators, which is allowed by
; 1815 :             // N4950 [sequence.reqmts]/54 "a.clear() [...] may invalidate the past-the-end iterator".
; 1816 :             return;
; 1817 :         }
; 1818 : 
; 1819 :         _My_data._Orphan_all();
; 1820 :         _Destroy_range(_Myfirst, _Mylast, _Getal());
; 1821 :         _ASAN_VECTOR_MODIFY(static_cast<difference_type>(_Myfirst - _Mylast)); // negative when destroying elements
; 1822 :         _Mylast = _Myfirst;

  0006d	89 4b 18	 mov	 DWORD PTR [ebx+24], ecx
$LN22@CRainbowRa:
; File C:\IAGOS\server\v18\Source\Source\_Common\RainbowRace.cpp

; 235  : }

  00070	8d 4b 48	 lea	 ecx, DWORD PTR [ebx+72]
  00073	e8 00 00 00 00	 call	 ??1?$vector@KV?$allocator@K@std@@@std@@QAE@XZ ; std::vector<unsigned long,std::allocator<unsigned long> >::~vector<unsigned long,std::allocator<unsigned long> >
  00078	8d 4b 3c	 lea	 ecx, DWORD PTR [ebx+60]
  0007b	e8 00 00 00 00	 call	 ??1?$vector@KV?$allocator@K@std@@@std@@QAE@XZ ; std::vector<unsigned long,std::allocator<unsigned long> >::~vector<unsigned long,std::allocator<unsigned long> >
  00080	8d 4b 30	 lea	 ecx, DWORD PTR [ebx+48]
  00083	e8 00 00 00 00	 call	 ??1?$vector@KV?$allocator@K@std@@@std@@QAE@XZ ; std::vector<unsigned long,std::allocator<unsigned long> >::~vector<unsigned long,std::allocator<unsigned long> >
  00088	8d 4b 20	 lea	 ecx, DWORD PTR [ebx+32]
  0008b	e8 00 00 00 00	 call	 ??1CLuaBase@@UAE@XZ	; CLuaBase::~CLuaBase
  00090	8d 4b 14	 lea	 ecx, DWORD PTR [ebx+20]
  00093	e8 00 00 00 00	 call	 ??1?$vector@PAVCMiniGameBase@@V?$allocator@PAVCMiniGameBase@@@std@@@std@@QAE@XZ ; std::vector<CMiniGameBase *,std::allocator<CMiniGameBase *> >::~vector<CMiniGameBase *,std::allocator<CMiniGameBase *> >
  00098	8d 4b 0c	 lea	 ecx, DWORD PTR [ebx+12]
  0009b	e8 00 00 00 00	 call	 ??1?$_Tree@V?$_Tmap_traits@KPAVCRainbowRace@@U?$less@K@std@@V?$allocator@U?$pair@$$CBKPAVCRainbowRace@@@std@@@3@$0A@@std@@@std@@QAE@XZ ; std::_Tree<std::_Tmap_traits<unsigned long,CRainbowRace *,std::less<unsigned long>,std::allocator<std::pair<unsigned long const ,CRainbowRace *> >,0> >::~_Tree<std::_Tmap_traits<unsigned long,CRainbowRace *,std::less<unsigned long>,std::allocator<std::pair<unsigned long const ,CRainbowRace *> >,0> >
  000a0	8b cb		 mov	 ecx, ebx
  000a2	e8 00 00 00 00	 call	 ??1?$vector@UMINIGMAME_PRIZE_LIST@CRainbowRaceMng@@V?$allocator@UMINIGMAME_PRIZE_LIST@CRainbowRaceMng@@@std@@@std@@QAE@XZ ; std::vector<CRainbowRaceMng::MINIGMAME_PRIZE_LIST,std::allocator<CRainbowRaceMng::MINIGMAME_PRIZE_LIST> >::~vector<CRainbowRaceMng::MINIGMAME_PRIZE_LIST,std::allocator<CRainbowRaceMng::MINIGMAME_PRIZE_LIST> >
  000a7	8b 4d f4	 mov	 ecx, DWORD PTR __$EHRec$[ebp]
  000aa	64 89 0d 00 00
	00 00		 mov	 DWORD PTR fs:0, ecx
  000b1	59		 pop	 ecx
  000b2	5f		 pop	 edi
  000b3	5e		 pop	 esi
  000b4	5b		 pop	 ebx
  000b5	8b e5		 mov	 esp, ebp
  000b7	5d		 pop	 ebp
  000b8	c3		 ret	 0
  000b9	cc		 int	 3
  000ba	cc		 int	 3
  000bb	cc		 int	 3
  000bc	cc		 int	 3
  000bd	cc		 int	 3
_TEXT	ENDS
;	COMDAT text$x
text$x	SEGMENT
__ehhandler$??1CRainbowRaceMng@@QAE@XZ:
  00000	90		 npad	 1
  00001	90		 npad	 1
  00002	8b 54 24 08	 mov	 edx, DWORD PTR [esp+8]
  00006	8d 42 0c	 lea	 eax, DWORD PTR [edx+12]
  00009	8b 4a f0	 mov	 ecx, DWORD PTR [edx-16]
  0000c	33 c8		 xor	 ecx, eax
  0000e	e8 00 00 00 00	 call	 @__security_check_cookie@4
  00013	b8 00 00 00 00	 mov	 eax, OFFSET __ehfuncinfo$??1CRainbowRaceMng@@QAE@XZ
  00018	e9 00 00 00 00	 jmp	 ___CxxFrameHandler3
text$x	ENDS
??1CRainbowRaceMng@@QAE@XZ ENDP				; CRainbowRaceMng::~CRainbowRaceMng
; Function compile flags: /Ogtp
; File C:\IAGOS\server\v18\Source\Source\_Common\RainbowRace.cpp
; File C:\Program Files\Microsoft Visual Studio\2022\Professional\VC\Tools\MSVC\14.44.35207\include\vector
; File C:\IAGOS\server\v18\Source\Source\_Common\RainbowRace.cpp
; File C:\Program Files\Microsoft Visual Studio\2022\Professional\VC\Tools\MSVC\14.44.35207\include\xmemory
; File C:\Program Files\Microsoft Visual Studio\2022\Professional\VC\Tools\MSVC\14.44.35207\include\xtree
; File C:\Program Files\Microsoft Visual Studio\2022\Professional\VC\Tools\MSVC\14.44.35207\include\xmemory
; File C:\Program Files\Microsoft Visual Studio\2022\Professional\VC\Tools\MSVC\14.44.35207\include\xtree
; File C:\Program Files\Microsoft Visual Studio\2022\Professional\VC\Tools\MSVC\14.44.35207\include\vector
; File C:\IAGOS\server\v18\Source\Source\_Common\RainbowRace.cpp
; File C:\Program Files\Microsoft Visual Studio\2022\Professional\VC\Tools\MSVC\14.44.35207\include\vector
; File C:\IAGOS\server\v18\Source\Source\_Common\RainbowRace.cpp
; File C:\Program Files\Microsoft Visual Studio\2022\Professional\VC\Tools\MSVC\14.44.35207\include\vector
; File C:\IAGOS\server\v18\Source\Source\_Common\RainbowRace.cpp
; File C:\Program Files\Microsoft Visual Studio\2022\Professional\VC\Tools\MSVC\14.44.35207\include\vector
; File C:\IAGOS\server\v18\Source\Source\_Common\RainbowRace.cpp
; File C:\Program Files\Microsoft Visual Studio\2022\Professional\VC\Tools\MSVC\14.44.35207\include\vector
; File C:\IAGOS\server\v18\Source\Source\_Common\RainbowRace.cpp
;	COMDAT ??0CRainbowRaceMng@@QAE@XZ
_TEXT	SEGMENT
_this$ = -20						; size = 4
$T2 = -16						; size = 4
$T3 = -16						; size = 4
$T4 = -16						; size = 4
$T5 = -16						; size = 4
$T6 = -16						; size = 4
$T7 = -16						; size = 4
$T8 = -16						; size = 4
$T9 = -16						; size = 4
_this$ = -16						; size = 4
__$EHRec$ = -12						; size = 12
??0CRainbowRaceMng@@QAE@XZ PROC				; CRainbowRaceMng::CRainbowRaceMng, COMDAT
; _this$ = ecx

; 214  : {

  00000	55		 push	 ebp
  00001	8b ec		 mov	 ebp, esp
  00003	6a ff		 push	 -1
  00005	68 00 00 00 00	 push	 __ehhandler$??0CRainbowRaceMng@@QAE@XZ
  0000a	64 a1 00 00 00
	00		 mov	 eax, DWORD PTR fs:0
  00010	50		 push	 eax
  00011	83 ec 08	 sub	 esp, 8
  00014	56		 push	 esi
  00015	57		 push	 edi
  00016	a1 00 00 00 00	 mov	 eax, DWORD PTR ___security_cookie
  0001b	33 c5		 xor	 eax, ebp
  0001d	50		 push	 eax
  0001e	8d 45 f4	 lea	 eax, DWORD PTR __$EHRec$[ebp]
  00021	64 a3 00 00 00
	00		 mov	 DWORD PTR fs:0, eax
  00027	8b f9		 mov	 edi, ecx
  00029	89 7d ec	 mov	 DWORD PTR _this$[ebp], edi
; File C:\Program Files\Microsoft Visual Studio\2022\Professional\VC\Tools\MSVC\14.44.35207\include\vector

; 400  :     _CONSTEXPR20 _Vector_val() noexcept : _Myfirst(), _Mylast(), _Myend() {}

  0002c	c7 07 00 00 00
	00		 mov	 DWORD PTR [edi], 0
  00032	c7 47 04 00 00
	00 00		 mov	 DWORD PTR [edi+4], 0
  00039	c7 47 08 00 00
	00 00		 mov	 DWORD PTR [edi+8], 0
; File C:\IAGOS\server\v18\Source\Source\_Common\RainbowRace.cpp

; 214  : {

  00040	8d 77 0c	 lea	 esi, DWORD PTR [edi+12]
  00043	c7 45 fc 00 00
	00 00		 mov	 DWORD PTR __$EHRec$[ebp+8], 0
  0004a	89 75 f0	 mov	 DWORD PTR _this$[ebp], esi
; File C:\Program Files\Microsoft Visual Studio\2022\Professional\VC\Tools\MSVC\14.44.35207\include\xmemory

; 136  :         return ::operator new(_Bytes);

  0004d	6a 18		 push	 24			; 00000018H
; File C:\Program Files\Microsoft Visual Studio\2022\Professional\VC\Tools\MSVC\14.44.35207\include\xtree

; 450  :     _Tree_val() noexcept : _Myhead(), _Mysize(0) {}

  0004f	c7 06 00 00 00
	00		 mov	 DWORD PTR [esi], 0
  00055	c7 46 04 00 00
	00 00		 mov	 DWORD PTR [esi+4], 0
; File C:\Program Files\Microsoft Visual Studio\2022\Professional\VC\Tools\MSVC\14.44.35207\include\xmemory

; 136  :         return ::operator new(_Bytes);

  0005c	e8 00 00 00 00	 call	 ??2@YAPAXI@Z		; operator new
  00061	83 c4 04	 add	 esp, 4
; File C:\Program Files\Microsoft Visual Studio\2022\Professional\VC\Tools\MSVC\14.44.35207\include\xtree

; 346  :         _Construct_in_place(_Pnode->_Left, _Pnode);

  00064	89 00		 mov	 DWORD PTR [eax], eax

; 347  :         _Construct_in_place(_Pnode->_Parent, _Pnode);

  00066	89 40 04	 mov	 DWORD PTR [eax+4], eax

; 348  :         _Construct_in_place(_Pnode->_Right, _Pnode);

  00069	89 40 08	 mov	 DWORD PTR [eax+8], eax

; 349  :         _Pnode->_Color = _Black;

  0006c	66 c7 40 0c 01
	01		 mov	 WORD PTR [eax+12], 257	; 00000101H

; 1957 :         _Scary->_Myhead = _Node::_Buyheadnode(_Getal());

  00072	89 06		 mov	 DWORD PTR [esi], eax
; File C:\Program Files\Microsoft Visual Studio\2022\Professional\VC\Tools\MSVC\14.44.35207\include\vector

; 400  :     _CONSTEXPR20 _Vector_val() noexcept : _Myfirst(), _Mylast(), _Myend() {}

  00074	c7 47 14 00 00
	00 00		 mov	 DWORD PTR [edi+20], 0
  0007b	c7 47 18 00 00
	00 00		 mov	 DWORD PTR [edi+24], 0
  00082	c7 47 1c 00 00
	00 00		 mov	 DWORD PTR [edi+28], 0
; File C:\IAGOS\server\v18\Source\Source\_Common\RainbowRace.cpp

; 214  : {

  00089	8d 4f 20	 lea	 ecx, DWORD PTR [edi+32]
  0008c	c6 45 fc 02	 mov	 BYTE PTR __$EHRec$[ebp+8], 2
  00090	e8 00 00 00 00	 call	 ??0CLuaBase@@QAE@XZ	; CLuaBase::CLuaBase
; File C:\Program Files\Microsoft Visual Studio\2022\Professional\VC\Tools\MSVC\14.44.35207\include\vector

; 400  :     _CONSTEXPR20 _Vector_val() noexcept : _Myfirst(), _Mylast(), _Myend() {}

  00095	c7 47 30 00 00
	00 00		 mov	 DWORD PTR [edi+48], 0
  0009c	c7 47 34 00 00
	00 00		 mov	 DWORD PTR [edi+52], 0
  000a3	c7 47 38 00 00
	00 00		 mov	 DWORD PTR [edi+56], 0
  000aa	c7 47 3c 00 00
	00 00		 mov	 DWORD PTR [edi+60], 0
  000b1	c7 47 40 00 00
	00 00		 mov	 DWORD PTR [edi+64], 0
  000b8	c7 47 44 00 00
	00 00		 mov	 DWORD PTR [edi+68], 0
  000bf	c7 47 48 00 00
	00 00		 mov	 DWORD PTR [edi+72], 0
  000c6	c7 47 4c 00 00
	00 00		 mov	 DWORD PTR [edi+76], 0
  000cd	c7 47 50 00 00
	00 00		 mov	 DWORD PTR [edi+80], 0

; 1635 :         _Resize(_Newsize, _Val);

  000d4	8d 45 f0	 lea	 eax, DWORD PTR $T2[ebp]
; File C:\IAGOS\server\v18\Source\Source\_Common\RainbowRace.cpp

; 214  : {

  000d7	c6 45 fc 06	 mov	 BYTE PTR __$EHRec$[ebp+8], 6
; File C:\Program Files\Microsoft Visual Studio\2022\Professional\VC\Tools\MSVC\14.44.35207\include\vector

; 1635 :         _Resize(_Newsize, _Val);

  000db	50		 push	 eax
  000dc	6a 07		 push	 7
  000de	8d 4f 14	 lea	 ecx, DWORD PTR [edi+20]
; File C:\IAGOS\server\v18\Source\Source\_Common\RainbowRace.cpp

; 215  : 	m_vecMiniGame.resize( RMG_MAX, NULL );

  000e1	c7 45 f0 00 00
	00 00		 mov	 DWORD PTR $T2[ebp], 0
; File C:\Program Files\Microsoft Visual Studio\2022\Professional\VC\Tools\MSVC\14.44.35207\include\vector

; 1635 :         _Resize(_Newsize, _Val);

  000e8	e8 00 00 00 00	 call	 ??$_Resize@PAVCMiniGameBase@@@?$vector@PAVCMiniGameBase@@V?$allocator@PAVCMiniGameBase@@@std@@@std@@AAEXIABQAVCMiniGameBase@@@Z ; std::vector<CMiniGameBase *,std::allocator<CMiniGameBase *> >::_Resize<CMiniGameBase *>
; File C:\IAGOS\server\v18\Source\Source\_Common\RainbowRace.cpp

; 216  : 	m_vecMiniGame[RMG_GAWIBAWIBO]	= new CMiniGameGawibawibo;

  000ed	6a 14		 push	 20			; 00000014H
  000ef	e8 00 00 00 00	 call	 ??2@YAPAXI@Z		; operator new
  000f4	83 c4 04	 add	 esp, 4
  000f7	89 45 f0	 mov	 DWORD PTR $T3[ebp], eax
  000fa	c6 45 fc 07	 mov	 BYTE PTR __$EHRec$[ebp+8], 7
  000fe	85 c0		 test	 eax, eax
  00100	74 0b		 je	 SHORT $LN3@CRainbowRa
  00102	8b c8		 mov	 ecx, eax
  00104	e8 00 00 00 00	 call	 ??0CMiniGameGawibawibo@@QAE@XZ ; CMiniGameGawibawibo::CMiniGameGawibawibo
  00109	8b c8		 mov	 ecx, eax
  0010b	eb 02		 jmp	 SHORT $LN4@CRainbowRa
$LN3@CRainbowRa:
  0010d	33 c9		 xor	 ecx, ecx
$LN4@CRainbowRa:
; File C:\Program Files\Microsoft Visual Studio\2022\Professional\VC\Tools\MSVC\14.44.35207\include\vector

; 1934 :         return _My_data._Myfirst[_Pos];

  0010f	8b 47 14	 mov	 eax, DWORD PTR [edi+20]
; File C:\IAGOS\server\v18\Source\Source\_Common\RainbowRace.cpp

; 217  : 	m_vecMiniGame[RMG_DICEPLAY]		= new CMiniGameDiceplay;

  00112	6a 08		 push	 8
  00114	c6 45 fc 06	 mov	 BYTE PTR __$EHRec$[ebp+8], 6
  00118	89 08		 mov	 DWORD PTR [eax], ecx
  0011a	e8 00 00 00 00	 call	 ??2@YAPAXI@Z		; operator new
  0011f	83 c4 04	 add	 esp, 4
  00122	89 45 f0	 mov	 DWORD PTR $T4[ebp], eax
  00125	c6 45 fc 08	 mov	 BYTE PTR __$EHRec$[ebp+8], 8
  00129	85 c0		 test	 eax, eax
  0012b	74 0b		 je	 SHORT $LN5@CRainbowRa
  0012d	8b c8		 mov	 ecx, eax
  0012f	e8 00 00 00 00	 call	 ??0CMiniGameDiceplay@@QAE@XZ ; CMiniGameDiceplay::CMiniGameDiceplay
  00134	8b c8		 mov	 ecx, eax
  00136	eb 02		 jmp	 SHORT $LN6@CRainbowRa
$LN5@CRainbowRa:
  00138	33 c9		 xor	 ecx, ecx
$LN6@CRainbowRa:
  0013a	8b 47 14	 mov	 eax, DWORD PTR [edi+20]

; 218  : 	m_vecMiniGame[RMG_ARITHMATIC]	= new CMiniGameArithmetic;

  0013d	6a 18		 push	 24			; 00000018H
  0013f	c6 45 fc 06	 mov	 BYTE PTR __$EHRec$[ebp+8], 6
  00143	89 48 04	 mov	 DWORD PTR [eax+4], ecx
  00146	e8 00 00 00 00	 call	 ??2@YAPAXI@Z		; operator new
  0014b	83 c4 04	 add	 esp, 4
  0014e	89 45 f0	 mov	 DWORD PTR $T5[ebp], eax
  00151	c6 45 fc 09	 mov	 BYTE PTR __$EHRec$[ebp+8], 9
  00155	85 c0		 test	 eax, eax
  00157	74 0b		 je	 SHORT $LN7@CRainbowRa
  00159	8b c8		 mov	 ecx, eax
  0015b	e8 00 00 00 00	 call	 ??0CMiniGameArithmetic@@QAE@XZ ; CMiniGameArithmetic::CMiniGameArithmetic
  00160	8b c8		 mov	 ecx, eax
  00162	eb 02		 jmp	 SHORT $LN8@CRainbowRa
$LN7@CRainbowRa:
  00164	33 c9		 xor	 ecx, ecx
$LN8@CRainbowRa:
  00166	8b 47 14	 mov	 eax, DWORD PTR [edi+20]

; 219  : 	m_vecMiniGame[RMG_STOPWATCH]	= new CMiniGameStopwatch;

  00169	6a 08		 push	 8
  0016b	c6 45 fc 06	 mov	 BYTE PTR __$EHRec$[ebp+8], 6
  0016f	89 48 08	 mov	 DWORD PTR [eax+8], ecx
  00172	e8 00 00 00 00	 call	 ??2@YAPAXI@Z		; operator new
  00177	83 c4 04	 add	 esp, 4
  0017a	89 45 f0	 mov	 DWORD PTR $T6[ebp], eax
  0017d	c6 45 fc 0a	 mov	 BYTE PTR __$EHRec$[ebp+8], 10 ; 0000000aH
  00181	85 c0		 test	 eax, eax
  00183	74 0b		 je	 SHORT $LN9@CRainbowRa
  00185	8b c8		 mov	 ecx, eax
  00187	e8 00 00 00 00	 call	 ??0CMiniGameStopwatch@@QAE@XZ ; CMiniGameStopwatch::CMiniGameStopwatch
  0018c	8b c8		 mov	 ecx, eax
  0018e	eb 02		 jmp	 SHORT $LN10@CRainbowRa
$LN9@CRainbowRa:
  00190	33 c9		 xor	 ecx, ecx
$LN10@CRainbowRa:
  00192	8b 47 14	 mov	 eax, DWORD PTR [edi+20]

; 220  : 	m_vecMiniGame[RMG_TYPING]		= new CMiniGameTyping;

  00195	6a 10		 push	 16			; 00000010H
  00197	c6 45 fc 06	 mov	 BYTE PTR __$EHRec$[ebp+8], 6
  0019b	89 48 0c	 mov	 DWORD PTR [eax+12], ecx
  0019e	e8 00 00 00 00	 call	 ??2@YAPAXI@Z		; operator new
  001a3	83 c4 04	 add	 esp, 4
  001a6	89 45 f0	 mov	 DWORD PTR $T7[ebp], eax
  001a9	c6 45 fc 0b	 mov	 BYTE PTR __$EHRec$[ebp+8], 11 ; 0000000bH
  001ad	85 c0		 test	 eax, eax
  001af	74 0b		 je	 SHORT $LN11@CRainbowRa
  001b1	8b c8		 mov	 ecx, eax
  001b3	e8 00 00 00 00	 call	 ??0CMiniGameTyping@@QAE@XZ ; CMiniGameTyping::CMiniGameTyping
  001b8	8b c8		 mov	 ecx, eax
  001ba	eb 02		 jmp	 SHORT $LN12@CRainbowRa
$LN11@CRainbowRa:
  001bc	33 c9		 xor	 ecx, ecx
$LN12@CRainbowRa:
  001be	8b 47 14	 mov	 eax, DWORD PTR [edi+20]

; 221  : 	m_vecMiniGame[RMG_PAIRGAME]		= new CMiniGamePairgame;

  001c1	6a 20		 push	 32			; 00000020H
  001c3	c6 45 fc 06	 mov	 BYTE PTR __$EHRec$[ebp+8], 6
  001c7	89 48 10	 mov	 DWORD PTR [eax+16], ecx
  001ca	e8 00 00 00 00	 call	 ??2@YAPAXI@Z		; operator new
  001cf	83 c4 04	 add	 esp, 4
  001d2	89 45 f0	 mov	 DWORD PTR $T8[ebp], eax
  001d5	c6 45 fc 0c	 mov	 BYTE PTR __$EHRec$[ebp+8], 12 ; 0000000cH
  001d9	85 c0		 test	 eax, eax
  001db	74 0b		 je	 SHORT $LN13@CRainbowRa
  001dd	8b c8		 mov	 ecx, eax
  001df	e8 00 00 00 00	 call	 ??0CMiniGamePairgame@@QAE@XZ ; CMiniGamePairgame::CMiniGamePairgame
  001e4	8b c8		 mov	 ecx, eax
  001e6	eb 02		 jmp	 SHORT $LN14@CRainbowRa
$LN13@CRainbowRa:
  001e8	33 c9		 xor	 ecx, ecx
$LN14@CRainbowRa:
  001ea	8b 47 14	 mov	 eax, DWORD PTR [edi+20]

; 222  : 	m_vecMiniGame[RMG_LADDER]		= new CMiniGameLadder;

  001ed	6a 04		 push	 4
  001ef	c6 45 fc 06	 mov	 BYTE PTR __$EHRec$[ebp+8], 6
  001f3	89 48 14	 mov	 DWORD PTR [eax+20], ecx
  001f6	e8 00 00 00 00	 call	 ??2@YAPAXI@Z		; operator new
  001fb	83 c4 04	 add	 esp, 4
  001fe	89 45 f0	 mov	 DWORD PTR $T9[ebp], eax
  00201	c6 45 fc 0d	 mov	 BYTE PTR __$EHRec$[ebp+8], 13 ; 0000000dH
  00205	85 c0		 test	 eax, eax
  00207	74 0b		 je	 SHORT $LN15@CRainbowRa
  00209	8b c8		 mov	 ecx, eax
  0020b	e8 00 00 00 00	 call	 ??0CMiniGameLadder@@QAE@XZ ; CMiniGameLadder::CMiniGameLadder
  00210	8b c8		 mov	 ecx, eax
  00212	eb 02		 jmp	 SHORT $LN16@CRainbowRa
$LN15@CRainbowRa:
  00214	33 c9		 xor	 ecx, ecx
$LN16@CRainbowRa:
  00216	8b 47 14	 mov	 eax, DWORD PTR [edi+20]
  00219	c6 45 fc 06	 mov	 BYTE PTR __$EHRec$[ebp+8], 6
  0021d	89 48 18	 mov	 DWORD PTR [eax+24], ecx

; 223  : 
; 224  : 	Init();

  00220	8b cf		 mov	 ecx, edi
  00222	e8 00 00 00 00	 call	 ?Init@CRainbowRaceMng@@QAEHXZ ; CRainbowRaceMng::Init

; 225  : }

  00227	8b c7		 mov	 eax, edi
  00229	8b 4d f4	 mov	 ecx, DWORD PTR __$EHRec$[ebp]
  0022c	64 89 0d 00 00
	00 00		 mov	 DWORD PTR fs:0, ecx
  00233	59		 pop	 ecx
  00234	5f		 pop	 edi
  00235	5e		 pop	 esi
  00236	8b e5		 mov	 esp, ebp
  00238	5d		 pop	 ebp
  00239	c3		 ret	 0
_TEXT	ENDS
;	COMDAT text$x
text$x	SEGMENT
__unwindfunclet$??0CRainbowRaceMng@@QAE@XZ$0:
  00000	8b 4d ec	 mov	 ecx, DWORD PTR _this$[ebp]
  00003	e9 00 00 00 00	 jmp	 ??1?$vector@UMINIGMAME_PRIZE_LIST@CRainbowRaceMng@@V?$allocator@UMINIGMAME_PRIZE_LIST@CRainbowRaceMng@@@std@@@std@@QAE@XZ ; std::vector<CRainbowRaceMng::MINIGMAME_PRIZE_LIST,std::allocator<CRainbowRaceMng::MINIGMAME_PRIZE_LIST> >::~vector<CRainbowRaceMng::MINIGMAME_PRIZE_LIST,std::allocator<CRainbowRaceMng::MINIGMAME_PRIZE_LIST> >
__unwindfunclet$??0CRainbowRaceMng@@QAE@XZ$1:
  00008	8b 4d ec	 mov	 ecx, DWORD PTR _this$[ebp]
  0000b	83 c1 0c	 add	 ecx, 12			; 0000000cH
  0000e	e9 00 00 00 00	 jmp	 ??1?$map@KPAVCRainbowRace@@U?$less@K@std@@V?$allocator@U?$pair@$$CBKPAVCRainbowRace@@@std@@@3@@std@@QAE@XZ
__unwindfunclet$??0CRainbowRaceMng@@QAE@XZ$2:
  00013	8b 4d ec	 mov	 ecx, DWORD PTR _this$[ebp]
  00016	83 c1 14	 add	 ecx, 20			; 00000014H
  00019	e9 00 00 00 00	 jmp	 ??1?$vector@PAVCMiniGameBase@@V?$allocator@PAVCMiniGameBase@@@std@@@std@@QAE@XZ ; std::vector<CMiniGameBase *,std::allocator<CMiniGameBase *> >::~vector<CMiniGameBase *,std::allocator<CMiniGameBase *> >
__unwindfunclet$??0CRainbowRaceMng@@QAE@XZ$3:
  0001e	8b 4d ec	 mov	 ecx, DWORD PTR _this$[ebp]
  00021	83 c1 20	 add	 ecx, 32			; 00000020H
  00024	e9 00 00 00 00	 jmp	 ??1CLuaBase@@UAE@XZ	; CLuaBase::~CLuaBase
__unwindfunclet$??0CRainbowRaceMng@@QAE@XZ$4:
  00029	8b 4d ec	 mov	 ecx, DWORD PTR _this$[ebp]
  0002c	83 c1 30	 add	 ecx, 48			; 00000030H
  0002f	e9 00 00 00 00	 jmp	 ??1?$vector@KV?$allocator@K@std@@@std@@QAE@XZ ; std::vector<unsigned long,std::allocator<unsigned long> >::~vector<unsigned long,std::allocator<unsigned long> >
__unwindfunclet$??0CRainbowRaceMng@@QAE@XZ$5:
  00034	8b 4d ec	 mov	 ecx, DWORD PTR _this$[ebp]
  00037	83 c1 3c	 add	 ecx, 60			; 0000003cH
  0003a	e9 00 00 00 00	 jmp	 ??1?$vector@KV?$allocator@K@std@@@std@@QAE@XZ ; std::vector<unsigned long,std::allocator<unsigned long> >::~vector<unsigned long,std::allocator<unsigned long> >
__unwindfunclet$??0CRainbowRaceMng@@QAE@XZ$6:
  0003f	8b 4d ec	 mov	 ecx, DWORD PTR _this$[ebp]
  00042	83 c1 48	 add	 ecx, 72			; 00000048H
  00045	e9 00 00 00 00	 jmp	 ??1?$vector@KV?$allocator@K@std@@@std@@QAE@XZ ; std::vector<unsigned long,std::allocator<unsigned long> >::~vector<unsigned long,std::allocator<unsigned long> >
__unwindfunclet$??0CRainbowRaceMng@@QAE@XZ$7:
  0004a	6a 14		 push	 20			; 00000014H
  0004c	8b 45 f0	 mov	 eax, DWORD PTR $T3[ebp]
  0004f	50		 push	 eax
  00050	e8 00 00 00 00	 call	 ??3@YAXPAXI@Z		; operator delete
  00055	83 c4 08	 add	 esp, 8
  00058	c3		 ret	 0
__unwindfunclet$??0CRainbowRaceMng@@QAE@XZ$8:
  00059	6a 08		 push	 8
  0005b	8b 45 f0	 mov	 eax, DWORD PTR $T4[ebp]
  0005e	50		 push	 eax
  0005f	e8 00 00 00 00	 call	 ??3@YAXPAXI@Z		; operator delete
  00064	83 c4 08	 add	 esp, 8
  00067	c3		 ret	 0
__unwindfunclet$??0CRainbowRaceMng@@QAE@XZ$9:
  00068	6a 18		 push	 24			; 00000018H
  0006a	8b 45 f0	 mov	 eax, DWORD PTR $T5[ebp]
  0006d	50		 push	 eax
  0006e	e8 00 00 00 00	 call	 ??3@YAXPAXI@Z		; operator delete
  00073	83 c4 08	 add	 esp, 8
  00076	c3		 ret	 0
__unwindfunclet$??0CRainbowRaceMng@@QAE@XZ$10:
  00077	6a 08		 push	 8
  00079	8b 45 f0	 mov	 eax, DWORD PTR $T6[ebp]
  0007c	50		 push	 eax
  0007d	e8 00 00 00 00	 call	 ??3@YAXPAXI@Z		; operator delete
  00082	83 c4 08	 add	 esp, 8
  00085	c3		 ret	 0
__unwindfunclet$??0CRainbowRaceMng@@QAE@XZ$11:
  00086	6a 10		 push	 16			; 00000010H
  00088	8b 45 f0	 mov	 eax, DWORD PTR $T7[ebp]
  0008b	50		 push	 eax
  0008c	e8 00 00 00 00	 call	 ??3@YAXPAXI@Z		; operator delete
  00091	83 c4 08	 add	 esp, 8
  00094	c3		 ret	 0
__unwindfunclet$??0CRainbowRaceMng@@QAE@XZ$12:
  00095	6a 20		 push	 32			; 00000020H
  00097	8b 45 f0	 mov	 eax, DWORD PTR $T8[ebp]
  0009a	50		 push	 eax
  0009b	e8 00 00 00 00	 call	 ??3@YAXPAXI@Z		; operator delete
  000a0	83 c4 08	 add	 esp, 8
  000a3	c3		 ret	 0
__unwindfunclet$??0CRainbowRaceMng@@QAE@XZ$13:
  000a4	6a 04		 push	 4
  000a6	8b 45 f0	 mov	 eax, DWORD PTR $T9[ebp]
  000a9	50		 push	 eax
  000aa	e8 00 00 00 00	 call	 ??3@YAXPAXI@Z		; operator delete
  000af	83 c4 08	 add	 esp, 8
  000b2	c3		 ret	 0
  000b3	cc		 int	 3
  000b4	cc		 int	 3
  000b5	cc		 int	 3
  000b6	cc		 int	 3
  000b7	cc		 int	 3
__ehhandler$??0CRainbowRaceMng@@QAE@XZ:
  000b8	90		 npad	 1
  000b9	90		 npad	 1
  000ba	8b 54 24 08	 mov	 edx, DWORD PTR [esp+8]
  000be	8d 42 0c	 lea	 eax, DWORD PTR [edx+12]
  000c1	8b 4a ec	 mov	 ecx, DWORD PTR [edx-20]
  000c4	33 c8		 xor	 ecx, eax
  000c6	e8 00 00 00 00	 call	 @__security_check_cookie@4
  000cb	b8 00 00 00 00	 mov	 eax, OFFSET __ehfuncinfo$??0CRainbowRaceMng@@QAE@XZ
  000d0	e9 00 00 00 00	 jmp	 ___CxxFrameHandler3
text$x	ENDS
??0CRainbowRaceMng@@QAE@XZ ENDP				; CRainbowRaceMng::CRainbowRaceMng
; Function compile flags: /Ogtp
; File C:\IAGOS\server\v18\Source\Source\_Common\RainbowRace.cpp
;	COMDAT ?SetMiniGame@CRainbowRace@@AAEXH@Z
_TEXT	SEGMENT
__$EHRec$ = -12						; size = 12
_nGameNum$ = 8						; size = 4
$T2 = 8							; size = 4
$T3 = 8							; size = 4
$T4 = 8							; size = 4
$T5 = 8							; size = 4
$T6 = 8							; size = 4
$T7 = 8							; size = 4
$T8 = 8							; size = 4
?SetMiniGame@CRainbowRace@@AAEXH@Z PROC			; CRainbowRace::SetMiniGame, COMDAT
; _this$ = ecx

; 153  : {

  00000	55		 push	 ebp
  00001	8b ec		 mov	 ebp, esp
  00003	6a ff		 push	 -1
  00005	68 00 00 00 00	 push	 __ehhandler$?SetMiniGame@CRainbowRace@@AAEXH@Z
  0000a	64 a1 00 00 00
	00		 mov	 eax, DWORD PTR fs:0
  00010	50		 push	 eax
  00011	53		 push	 ebx
  00012	56		 push	 esi
  00013	57		 push	 edi
  00014	a1 00 00 00 00	 mov	 eax, DWORD PTR ___security_cookie
  00019	33 c5		 xor	 eax, ebp
  0001b	50		 push	 eax
  0001c	8d 45 f4	 lea	 eax, DWORD PTR __$EHRec$[ebp]
  0001f	64 a3 00 00 00
	00		 mov	 DWORD PTR fs:0, eax
  00025	8b f1		 mov	 esi, ecx

; 154  : 	m_wNowGame = 0x0001 << nGameNum;

  00027	8b 5d 08	 mov	 ebx, DWORD PTR _nGameNum$[ebp]
  0002a	b8 01 00 00 00	 mov	 eax, 1
  0002f	8b cb		 mov	 ecx, ebx
  00031	66 d3 e0	 shl	 ax, cl
  00034	66 89 46 02	 mov	 WORD PTR [esi+2], ax

; 155  : 	CMiniGameBase* pMiniGame = CRainbowRaceMng::GetInstance()->GetMiniGame( nGameNum );

  00038	e8 00 00 00 00	 call	 ?GetInstance@CRainbowRaceMng@@SAPAV1@XZ ; CRainbowRaceMng::GetInstance
  0003d	8b 40 14	 mov	 eax, DWORD PTR [eax+20]
  00040	8b 3c 98	 mov	 edi, DWORD PTR [eax+ebx*4]

; 156  : 	switch( nGameNum )

  00043	83 fb 06	 cmp	 ebx, 6
  00046	0f 87 0f 01 00
	00		 ja	 $LN2@SetMiniGam
  0004c	ff 24 9d 00 00
	00 00		 jmp	 DWORD PTR $LN38@SetMiniGam[ebx*4]
$LN4@SetMiniGam:

; 157  : 	{
; 158  : 		case RMG_GAWIBAWIBO:	m_pMiniGame = new CMiniGameGawibawibo( pMiniGame ); break;

  00053	6a 14		 push	 20			; 00000014H
  00055	e8 00 00 00 00	 call	 ??2@YAPAXI@Z		; operator new
  0005a	83 c4 04	 add	 esp, 4
  0005d	89 45 08	 mov	 DWORD PTR $T2[ebp], eax
  00060	c7 45 fc 00 00
	00 00		 mov	 DWORD PTR __$EHRec$[ebp+8], 0
  00067	85 c0		 test	 eax, eax
  00069	0f 84 e7 00 00
	00		 je	 $LN24@SetMiniGam
  0006f	57		 push	 edi
  00070	8b c8		 mov	 ecx, eax
  00072	e8 00 00 00 00	 call	 ??0CMiniGameGawibawibo@@QAE@PAVCMiniGameBase@@@Z ; CMiniGameGawibawibo::CMiniGameGawibawibo
  00077	e9 dc 00 00 00	 jmp	 $LN25@SetMiniGam
$LN5@SetMiniGam:

; 159  : 		case RMG_DICEPLAY:		m_pMiniGame = new CMiniGameDiceplay( pMiniGame );	break;

  0007c	6a 08		 push	 8
  0007e	e8 00 00 00 00	 call	 ??2@YAPAXI@Z		; operator new
  00083	83 c4 04	 add	 esp, 4
  00086	89 45 08	 mov	 DWORD PTR $T3[ebp], eax
  00089	c7 45 fc 01 00
	00 00		 mov	 DWORD PTR __$EHRec$[ebp+8], 1
  00090	85 c0		 test	 eax, eax
  00092	0f 84 be 00 00
	00		 je	 $LN24@SetMiniGam
  00098	57		 push	 edi
  00099	8b c8		 mov	 ecx, eax
  0009b	e8 00 00 00 00	 call	 ??0CMiniGameDiceplay@@QAE@PAVCMiniGameBase@@@Z ; CMiniGameDiceplay::CMiniGameDiceplay
  000a0	e9 b3 00 00 00	 jmp	 $LN25@SetMiniGam
$LN6@SetMiniGam:

; 160  : 		case RMG_ARITHMATIC:	m_pMiniGame = new CMiniGameArithmetic( pMiniGame );		break;

  000a5	6a 18		 push	 24			; 00000018H
  000a7	e8 00 00 00 00	 call	 ??2@YAPAXI@Z		; operator new
  000ac	83 c4 04	 add	 esp, 4
  000af	89 45 08	 mov	 DWORD PTR $T4[ebp], eax
  000b2	c7 45 fc 02 00
	00 00		 mov	 DWORD PTR __$EHRec$[ebp+8], 2
  000b9	85 c0		 test	 eax, eax
  000bb	0f 84 95 00 00
	00		 je	 $LN24@SetMiniGam
  000c1	57		 push	 edi
  000c2	8b c8		 mov	 ecx, eax
  000c4	e8 00 00 00 00	 call	 ??0CMiniGameArithmetic@@QAE@PAVCMiniGameBase@@@Z ; CMiniGameArithmetic::CMiniGameArithmetic
  000c9	e9 8a 00 00 00	 jmp	 $LN25@SetMiniGam
$LN7@SetMiniGam:

; 161  : 		case RMG_STOPWATCH:		m_pMiniGame = new CMiniGameStopwatch( pMiniGame );		break;

  000ce	6a 08		 push	 8
  000d0	e8 00 00 00 00	 call	 ??2@YAPAXI@Z		; operator new
  000d5	83 c4 04	 add	 esp, 4
  000d8	89 45 08	 mov	 DWORD PTR $T5[ebp], eax
  000db	c7 45 fc 03 00
	00 00		 mov	 DWORD PTR __$EHRec$[ebp+8], 3
  000e2	85 c0		 test	 eax, eax
  000e4	74 70		 je	 SHORT $LN24@SetMiniGam
  000e6	57		 push	 edi
  000e7	8b c8		 mov	 ecx, eax
  000e9	e8 00 00 00 00	 call	 ??0CMiniGameStopwatch@@QAE@PAVCMiniGameBase@@@Z ; CMiniGameStopwatch::CMiniGameStopwatch
  000ee	eb 68		 jmp	 SHORT $LN25@SetMiniGam
$LN8@SetMiniGam:

; 162  : 		case RMG_TYPING:		m_pMiniGame = new CMiniGameTyping( pMiniGame );		break;

  000f0	6a 10		 push	 16			; 00000010H
  000f2	e8 00 00 00 00	 call	 ??2@YAPAXI@Z		; operator new
  000f7	83 c4 04	 add	 esp, 4
  000fa	89 45 08	 mov	 DWORD PTR $T6[ebp], eax
  000fd	c7 45 fc 04 00
	00 00		 mov	 DWORD PTR __$EHRec$[ebp+8], 4
  00104	85 c0		 test	 eax, eax
  00106	74 4e		 je	 SHORT $LN24@SetMiniGam
  00108	57		 push	 edi
  00109	8b c8		 mov	 ecx, eax
  0010b	e8 00 00 00 00	 call	 ??0CMiniGameTyping@@QAE@PAVCMiniGameBase@@@Z ; CMiniGameTyping::CMiniGameTyping
  00110	eb 46		 jmp	 SHORT $LN25@SetMiniGam
$LN9@SetMiniGam:

; 163  : 		case RMG_PAIRGAME:		m_pMiniGame = new CMiniGamePairgame( pMiniGame );		break;

  00112	6a 20		 push	 32			; 00000020H
  00114	e8 00 00 00 00	 call	 ??2@YAPAXI@Z		; operator new
  00119	83 c4 04	 add	 esp, 4
  0011c	89 45 08	 mov	 DWORD PTR $T7[ebp], eax
  0011f	c7 45 fc 05 00
	00 00		 mov	 DWORD PTR __$EHRec$[ebp+8], 5
  00126	85 c0		 test	 eax, eax
  00128	74 2c		 je	 SHORT $LN24@SetMiniGam
  0012a	57		 push	 edi
  0012b	8b c8		 mov	 ecx, eax
  0012d	e8 00 00 00 00	 call	 ??0CMiniGamePairgame@@QAE@PAVCMiniGameBase@@@Z ; CMiniGamePairgame::CMiniGamePairgame
  00132	eb 24		 jmp	 SHORT $LN25@SetMiniGam
$LN10@SetMiniGam:

; 164  : 		case RMG_LADDER:		m_pMiniGame = new CMiniGameLadder( pMiniGame );		break;

  00134	6a 04		 push	 4
  00136	e8 00 00 00 00	 call	 ??2@YAPAXI@Z		; operator new
  0013b	83 c4 04	 add	 esp, 4
  0013e	89 45 08	 mov	 DWORD PTR $T8[ebp], eax
  00141	c7 45 fc 06 00
	00 00		 mov	 DWORD PTR __$EHRec$[ebp+8], 6
  00148	85 c0		 test	 eax, eax
  0014a	74 0a		 je	 SHORT $LN24@SetMiniGam
  0014c	57		 push	 edi
  0014d	8b c8		 mov	 ecx, eax
  0014f	e8 00 00 00 00	 call	 ??0CMiniGameLadder@@QAE@PAVCMiniGameBase@@@Z ; CMiniGameLadder::CMiniGameLadder
  00154	eb 02		 jmp	 SHORT $LN25@SetMiniGam
$LN24@SetMiniGam:

; 165  : 	}
; 166  : }

  00156	33 c0		 xor	 eax, eax
$LN25@SetMiniGam:
  00158	89 46 04	 mov	 DWORD PTR [esi+4], eax
$LN2@SetMiniGam:
  0015b	8b 4d f4	 mov	 ecx, DWORD PTR __$EHRec$[ebp]
  0015e	64 89 0d 00 00
	00 00		 mov	 DWORD PTR fs:0, ecx
  00165	59		 pop	 ecx
  00166	5f		 pop	 edi
  00167	5e		 pop	 esi
  00168	5b		 pop	 ebx
  00169	8b e5		 mov	 esp, ebp
  0016b	5d		 pop	 ebp
  0016c	c2 04 00	 ret	 4
  0016f	90		 npad	 1
$LN38@SetMiniGam:
  00170	00 00 00 00	 DD	 $LN4@SetMiniGam
  00174	00 00 00 00	 DD	 $LN5@SetMiniGam
  00178	00 00 00 00	 DD	 $LN6@SetMiniGam
  0017c	00 00 00 00	 DD	 $LN7@SetMiniGam
  00180	00 00 00 00	 DD	 $LN8@SetMiniGam
  00184	00 00 00 00	 DD	 $LN9@SetMiniGam
  00188	00 00 00 00	 DD	 $LN10@SetMiniGam
_TEXT	ENDS
;	COMDAT text$x
text$x	SEGMENT
__unwindfunclet$?SetMiniGame@CRainbowRace@@AAEXH@Z$0:
  00000	6a 14		 push	 20			; 00000014H
  00002	8b 45 08	 mov	 eax, DWORD PTR $T2[ebp]
  00005	50		 push	 eax
  00006	e8 00 00 00 00	 call	 ??3@YAXPAXI@Z		; operator delete
  0000b	83 c4 08	 add	 esp, 8
  0000e	c3		 ret	 0
__unwindfunclet$?SetMiniGame@CRainbowRace@@AAEXH@Z$1:
  0000f	6a 08		 push	 8
  00011	8b 45 08	 mov	 eax, DWORD PTR $T3[ebp]
  00014	50		 push	 eax
  00015	e8 00 00 00 00	 call	 ??3@YAXPAXI@Z		; operator delete
  0001a	83 c4 08	 add	 esp, 8
  0001d	c3		 ret	 0
__unwindfunclet$?SetMiniGame@CRainbowRace@@AAEXH@Z$2:
  0001e	6a 18		 push	 24			; 00000018H
  00020	8b 45 08	 mov	 eax, DWORD PTR $T4[ebp]
  00023	50		 push	 eax
  00024	e8 00 00 00 00	 call	 ??3@YAXPAXI@Z		; operator delete
  00029	83 c4 08	 add	 esp, 8
  0002c	c3		 ret	 0
__unwindfunclet$?SetMiniGame@CRainbowRace@@AAEXH@Z$3:
  0002d	6a 08		 push	 8
  0002f	8b 45 08	 mov	 eax, DWORD PTR $T5[ebp]
  00032	50		 push	 eax
  00033	e8 00 00 00 00	 call	 ??3@YAXPAXI@Z		; operator delete
  00038	83 c4 08	 add	 esp, 8
  0003b	c3		 ret	 0
__unwindfunclet$?SetMiniGame@CRainbowRace@@AAEXH@Z$4:
  0003c	6a 10		 push	 16			; 00000010H
  0003e	8b 45 08	 mov	 eax, DWORD PTR $T6[ebp]
  00041	50		 push	 eax
  00042	e8 00 00 00 00	 call	 ??3@YAXPAXI@Z		; operator delete
  00047	83 c4 08	 add	 esp, 8
  0004a	c3		 ret	 0
__unwindfunclet$?SetMiniGame@CRainbowRace@@AAEXH@Z$5:
  0004b	6a 20		 push	 32			; 00000020H
  0004d	8b 45 08	 mov	 eax, DWORD PTR $T7[ebp]
  00050	50		 push	 eax
  00051	e8 00 00 00 00	 call	 ??3@YAXPAXI@Z		; operator delete
  00056	83 c4 08	 add	 esp, 8
  00059	c3		 ret	 0
__unwindfunclet$?SetMiniGame@CRainbowRace@@AAEXH@Z$6:
  0005a	6a 04		 push	 4
  0005c	8b 45 08	 mov	 eax, DWORD PTR $T8[ebp]
  0005f	50		 push	 eax
  00060	e8 00 00 00 00	 call	 ??3@YAXPAXI@Z		; operator delete
  00065	83 c4 08	 add	 esp, 8
  00068	c3		 ret	 0
  00069	cc		 int	 3
  0006a	cc		 int	 3
  0006b	cc		 int	 3
  0006c	cc		 int	 3
  0006d	cc		 int	 3
__ehhandler$?SetMiniGame@CRainbowRace@@AAEXH@Z:
  0006e	90		 npad	 1
  0006f	90		 npad	 1
  00070	8b 54 24 08	 mov	 edx, DWORD PTR [esp+8]
  00074	8d 42 0c	 lea	 eax, DWORD PTR [edx+12]
  00077	8b 4a f0	 mov	 ecx, DWORD PTR [edx-16]
  0007a	33 c8		 xor	 ecx, eax
  0007c	e8 00 00 00 00	 call	 @__security_check_cookie@4
  00081	b8 00 00 00 00	 mov	 eax, OFFSET __ehfuncinfo$?SetMiniGame@CRainbowRace@@AAEXH@Z
  00086	e9 00 00 00 00	 jmp	 ___CxxFrameHandler3
text$x	ENDS
?SetMiniGame@CRainbowRace@@AAEXH@Z ENDP			; CRainbowRace::SetMiniGame
; Function compile flags: /Ogtp
; File C:\IAGOS\server\v18\Source\Source\_Common\RainbowRace.cpp
; File C:\Program Files\Microsoft Visual Studio\2022\Professional\VC\Tools\MSVC\14.44.35207\include\vector
; File C:\IAGOS\server\v18\Source\Source\_Common\RainbowRace.cpp
; File C:\Program Files\Microsoft Visual Studio\2022\Professional\VC\Tools\MSVC\14.44.35207\include\vector
; File C:\IAGOS\server\v18\Source\Source\_Common\RainbowRace.cpp
;	COMDAT ?GetCompletedGameNum@CRainbowRace@@AAEHXZ
_TEXT	SEGMENT
?GetCompletedGameNum@CRainbowRace@@AAEHXZ PROC		; CRainbowRace::GetCompletedGameNum, COMDAT
; _this$ = ecx

; 197  : {

  00000	53		 push	 ebx
  00001	56		 push	 esi
  00002	57		 push	 edi
  00003	8b d9		 mov	 ebx, ecx

; 198  : 	int nCount = 0;

  00005	33 f6		 xor	 esi, esi

; 199  : 	for( int i=0; i<CRainbowRaceMng::GetInstance()->GetMiniGameSize(); i++ )

  00007	33 ff		 xor	 edi, edi
  00009	e8 00 00 00 00	 call	 ?GetInstance@CRainbowRaceMng@@SAPAV1@XZ ; CRainbowRaceMng::GetInstance
; File C:\Program Files\Microsoft Visual Studio\2022\Professional\VC\Tools\MSVC\14.44.35207\include\vector

; 1915 :         return static_cast<size_type>(_My_data._Mylast - _My_data._Myfirst);

  0000e	8b 50 18	 mov	 edx, DWORD PTR [eax+24]
  00011	2b 50 14	 sub	 edx, DWORD PTR [eax+20]
; File C:\IAGOS\server\v18\Source\Source\_Common\RainbowRace.cpp

; 199  : 	for( int i=0; i<CRainbowRaceMng::GetInstance()->GetMiniGameSize(); i++ )

  00014	f7 c2 fc ff ff
	ff		 test	 edx, -4			; fffffffcH
  0001a	7e 29		 jle	 SHORT $LN16@GetComplet
  0001c	0f 1f 40 00	 npad	 4
$LL4@GetComplet:

; 200  : 	{
; 201  : 		if( IsCompletedGame( i ) )

  00020	57		 push	 edi
  00021	8b cb		 mov	 ecx, ebx
  00023	e8 00 00 00 00	 call	 ?IsCompletedGame@CRainbowRace@@QAEHH@Z ; CRainbowRace::IsCompletedGame
  00028	85 c0		 test	 eax, eax
  0002a	8d 4e 01	 lea	 ecx, DWORD PTR [esi+1]
  0002d	0f 44 ce	 cmove	 ecx, esi
  00030	47		 inc	 edi
  00031	8b f1		 mov	 esi, ecx
  00033	e8 00 00 00 00	 call	 ?GetInstance@CRainbowRaceMng@@SAPAV1@XZ ; CRainbowRaceMng::GetInstance
; File C:\Program Files\Microsoft Visual Studio\2022\Professional\VC\Tools\MSVC\14.44.35207\include\vector

; 1915 :         return static_cast<size_type>(_My_data._Mylast - _My_data._Myfirst);

  00038	8b 48 18	 mov	 ecx, DWORD PTR [eax+24]
  0003b	2b 48 14	 sub	 ecx, DWORD PTR [eax+20]
  0003e	c1 f9 02	 sar	 ecx, 2
; File C:\IAGOS\server\v18\Source\Source\_Common\RainbowRace.cpp

; 199  : 	for( int i=0; i<CRainbowRaceMng::GetInstance()->GetMiniGameSize(); i++ )

  00041	3b f9		 cmp	 edi, ecx
  00043	7c db		 jl	 SHORT $LL4@GetComplet
$LN16@GetComplet:
  00045	5f		 pop	 edi

; 202  : 			nCount++;
; 203  : 	}
; 204  : 
; 205  : 	return nCount;
; 206  : }

  00046	8b c6		 mov	 eax, esi
  00048	5e		 pop	 esi
  00049	5b		 pop	 ebx
  0004a	c3		 ret	 0
?GetCompletedGameNum@CRainbowRace@@AAEHXZ ENDP		; CRainbowRace::GetCompletedGameNum
_TEXT	ENDS
; Function compile flags: /Ogtp
; File C:\IAGOS\server\v18\Source\Source\_Common\RainbowRace.cpp
;	COMDAT ?OnMiniGamePacket@CRainbowRace@@QAEXPAVCUser@@PAU__MINIGAME_PACKET@@@Z
_TEXT	SEGMENT
_pUser$ = 8						; size = 4
_pMiniGamePacket$ = 12					; size = 4
?OnMiniGamePacket@CRainbowRace@@QAEXPAVCUser@@PAU__MINIGAME_PACKET@@@Z PROC ; CRainbowRace::OnMiniGamePacket, COMDAT
; _this$ = ecx

; 169  : {

  00000	55		 push	 ebp
  00001	8b ec		 mov	 ebp, esp

; 170  : 	if( m_wNowGame != pMiniGamePacket->wNowGame )	// ХЌЖѓЗЮ КЮХЭ ЙоРК ЦаХЖПЁ СіСЄЕШ ЙЬДЯАдРгРЬ М­ЙіПЭ ДйИЃИщ..

  00003	8b 55 0c	 mov	 edx, DWORD PTR _pMiniGamePacket$[ebp]
  00006	56		 push	 esi
  00007	8b f1		 mov	 esi, ecx
  00009	66 8b 46 02	 mov	 ax, WORD PTR [esi+2]
  0000d	66 3b 42 04	 cmp	 ax, WORD PTR [edx+4]
  00011	74 12		 je	 SHORT $LN2@OnMiniGame

; 171  : 	{
; 172  : 		pUser->AddDefinedText( TID_GAME_RAINBOWRACE_ISNOTNOWMINIGAME );

  00013	8b 4d 08	 mov	 ecx, DWORD PTR _pUser$[ebp]
  00016	68 b9 0f 00 00	 push	 4025			; 00000fb9H
  0001b	e8 00 00 00 00	 call	 ?AddDefinedText@CUser@@QAEXH@Z ; CUser::AddDefinedText
  00020	5e		 pop	 esi

; 179  : 	}
; 180  : }

  00021	5d		 pop	 ebp
  00022	c2 08 00	 ret	 8
$LN2@OnMiniGame:

; 173  : 		return;
; 174  : 	}
; 175  : 
; 176  : 	if( m_pMiniGame && m_pMiniGame->Excute( pUser, pMiniGamePacket ) )	// РЬЙј ЙЬДЯАдРгРЬ ПЯЗсЕЧОњРИИщ...

  00025	8b 4e 04	 mov	 ecx, DWORD PTR [esi+4]
  00028	85 c9		 test	 ecx, ecx
  0002a	74 17		 je	 SHORT $LN3@OnMiniGame
  0002c	8b 01		 mov	 eax, DWORD PTR [ecx]
  0002e	52		 push	 edx
  0002f	ff 75 08	 push	 DWORD PTR _pUser$[ebp]
  00032	ff 50 04	 call	 DWORD PTR [eax+4]
  00035	85 c0		 test	 eax, eax
  00037	74 0a		 je	 SHORT $LN3@OnMiniGame

; 177  : 	{
; 178  : 		SetNowGameComplete( pUser );	// РЬЙј АдРгРЛ ПЯЗсЛѓХТЗЮ ИИЕщАэ ДйРН АдРгРЛ МТЦУЧбДй.

  00039	ff 75 08	 push	 DWORD PTR _pUser$[ebp]
  0003c	8b ce		 mov	 ecx, esi
  0003e	e8 00 00 00 00	 call	 ?SetNowGameComplete@CRainbowRace@@QAEXPAVCUser@@@Z ; CRainbowRace::SetNowGameComplete
$LN3@OnMiniGame:
  00043	5e		 pop	 esi

; 179  : 	}
; 180  : }

  00044	5d		 pop	 ebp
  00045	c2 08 00	 ret	 8
?OnMiniGamePacket@CRainbowRace@@QAEXPAVCUser@@PAU__MINIGAME_PACKET@@@Z ENDP ; CRainbowRace::OnMiniGamePacket
_TEXT	ENDS
; Function compile flags: /Ogtp
; File C:\IAGOS\server\v18\Source\Source\_Common\RainbowRace.cpp
; File C:\IAGOS\server\v18\Source\Source\_Common\RainbowRace.h
; File C:\IAGOS\server\v18\Source\Source\_Common\RainbowRace.cpp
; File C:\IAGOS\server\v18\Source\Source\_Common\xUtil.h
; File C:\Program Files\Microsoft Visual Studio\2022\Professional\VC\Tools\MSVC\14.44.35207\include\vector
; File C:\IAGOS\server\v18\Source\Source\_Common\xUtil.h
; File C:\Program Files\Microsoft Visual Studio\2022\Professional\VC\Tools\MSVC\14.44.35207\include\vector
; File C:\IAGOS\server\v18\Source\Source\_Common\xUtil.h
; File C:\IAGOS\server\v18\Source\Source\_Common\RainbowRace.cpp
; File C:\Program Files\Microsoft Visual Studio\2022\Professional\VC\Tools\MSVC\14.44.35207\include\vector
; File C:\IAGOS\server\v18\Source\Source\_Common\RainbowRace.cpp
;	COMDAT ?SetNextMiniGame@CRainbowRace@@QAEXXZ
_TEXT	SEGMENT
?SetNextMiniGame@CRainbowRace@@QAEXXZ PROC		; CRainbowRace::SetNextMiniGame, COMDAT
; _this$ = ecx

; 136  : {

  00000	57		 push	 edi
  00001	8b f9		 mov	 edi, ecx

; 137  : 	DestroyGame();

  00003	e8 00 00 00 00	 call	 ?DestroyGame@CRainbowRace@@QAEXXZ ; CRainbowRace::DestroyGame
; File C:\IAGOS\server\v18\Source\Source\_Common\RainbowRace.h

; 22   : 	BOOL	IsAllCompleted() { return ( m_wGameState == (0x7fff >> (15 - RMG_MAX)) ); } // И№Еч ЙЬДЯАдРгРЛ ХЌИЎОю ЧпДТАЁ?

  00008	66 83 3f 7f	 cmp	 WORD PTR [edi], 127	; 0000007fH
; File C:\IAGOS\server\v18\Source\Source\_Common\RainbowRace.cpp

; 138  : 	if( IsAllCompleted() )

  0000c	74 5e		 je	 SHORT $LN1@SetNextMin

; 139  : 		return;
; 140  : 	
; 141  : 	int nGame = xRandom( CRainbowRaceMng::GetInstance()->GetMiniGameSize() );

  0000e	56		 push	 esi
  0000f	e8 00 00 00 00	 call	 ?GetInstance@CRainbowRaceMng@@SAPAV1@XZ ; CRainbowRaceMng::GetInstance
; File C:\IAGOS\server\v18\Source\Source\_Common\xUtil.h

; 16   : 	g_next = g_next * 1103515245 + 12345;// + nRandomSeed[ i++ ];

  00014	33 d2		 xor	 edx, edx
; File C:\Program Files\Microsoft Visual Studio\2022\Professional\VC\Tools\MSVC\14.44.35207\include\vector

; 1915 :         return static_cast<size_type>(_My_data._Mylast - _My_data._Myfirst);

  00016	8b 48 18	 mov	 ecx, DWORD PTR [eax+24]
  00019	2b 48 14	 sub	 ecx, DWORD PTR [eax+20]
; File C:\IAGOS\server\v18\Source\Source\_Common\xUtil.h

; 16   : 	g_next = g_next * 1103515245 + 12345;// + nRandomSeed[ i++ ];

  0001c	69 05 00 00 00
	00 6d 4e c6 41	 imul	 eax, DWORD PTR ?g_next@@3KA, 1103515245 ; g_next
; File C:\Program Files\Microsoft Visual Studio\2022\Professional\VC\Tools\MSVC\14.44.35207\include\vector

; 1915 :         return static_cast<size_type>(_My_data._Mylast - _My_data._Myfirst);

  00026	c1 f9 02	 sar	 ecx, 2
; File C:\IAGOS\server\v18\Source\Source\_Common\xUtil.h

; 16   : 	g_next = g_next * 1103515245 + 12345;// + nRandomSeed[ i++ ];

  00029	05 39 30 00 00	 add	 eax, 12345		; 00003039H
  0002e	a3 00 00 00 00	 mov	 DWORD PTR ?g_next@@3KA, eax ; g_next
  00033	f7 f1		 div	 ecx
; File C:\IAGOS\server\v18\Source\Source\_Common\RainbowRace.cpp

; 142  : 	while( IsCompletedGame( nGame ) )

  00035	8b cf		 mov	 ecx, edi
  00037	8b f2		 mov	 esi, edx
  00039	56		 push	 esi
  0003a	e8 00 00 00 00	 call	 ?IsCompletedGame@CRainbowRace@@QAEHH@Z ; CRainbowRace::IsCompletedGame
  0003f	85 c0		 test	 eax, eax
  00041	74 20		 je	 SHORT $LN3@SetNextMin
$LL2@SetNextMin:

; 143  : 	{
; 144  : 		nGame--;

  00043	83 ee 01	 sub	 esi, 1

; 145  : 		if( nGame < 0 )

  00046	79 0f		 jns	 SHORT $LN5@SetNextMin

; 146  : 			nGame = CRainbowRaceMng::GetInstance()->GetMiniGameSize() - 1;

  00048	e8 00 00 00 00	 call	 ?GetInstance@CRainbowRaceMng@@SAPAV1@XZ ; CRainbowRaceMng::GetInstance
; File C:\Program Files\Microsoft Visual Studio\2022\Professional\VC\Tools\MSVC\14.44.35207\include\vector

; 1915 :         return static_cast<size_type>(_My_data._Mylast - _My_data._Myfirst);

  0004d	8b 70 18	 mov	 esi, DWORD PTR [eax+24]
  00050	2b 70 14	 sub	 esi, DWORD PTR [eax+20]
  00053	c1 fe 02	 sar	 esi, 2
; File C:\IAGOS\server\v18\Source\Source\_Common\RainbowRace.cpp

; 146  : 			nGame = CRainbowRaceMng::GetInstance()->GetMiniGameSize() - 1;

  00056	4e		 dec	 esi
$LN5@SetNextMin:

; 142  : 	while( IsCompletedGame( nGame ) )

  00057	56		 push	 esi
  00058	8b cf		 mov	 ecx, edi
  0005a	e8 00 00 00 00	 call	 ?IsCompletedGame@CRainbowRace@@QAEHH@Z ; CRainbowRace::IsCompletedGame
  0005f	85 c0		 test	 eax, eax
  00061	75 e0		 jne	 SHORT $LL2@SetNextMin
$LN3@SetNextMin:

; 147  : 	}
; 148  : 
; 149  : 	SetMiniGame( nGame );

  00063	56		 push	 esi
  00064	8b cf		 mov	 ecx, edi
  00066	e8 00 00 00 00	 call	 ?SetMiniGame@CRainbowRace@@AAEXH@Z ; CRainbowRace::SetMiniGame
  0006b	5e		 pop	 esi
$LN1@SetNextMin:

; 150  : }

  0006c	5f		 pop	 edi
  0006d	c3		 ret	 0
?SetNextMiniGame@CRainbowRace@@QAEXXZ ENDP		; CRainbowRace::SetNextMiniGame
_TEXT	ENDS
; Function compile flags: /Ogtp
; File C:\IAGOS\server\v18\Source\Source\_Common\RainbowRace.cpp
; File C:\IAGOS\server\v18\Source\Source\_Common\RainbowRace.h
; File C:\IAGOS\server\v18\Source\Source\_Common\RainbowRace.cpp
; File C:\IAGOS\server\v18\Source\Source\_Common\RainbowRace.h
; File C:\IAGOS\server\v18\Source\Source\_Common\RainbowRace.cpp
; File C:\Program Files\Microsoft Visual Studio\2022\Professional\VC\Tools\MSVC\14.44.35207\include\vector
; File C:\Program Files\Microsoft Visual Studio\2022\Professional\VC\Tools\MSVC\14.44.35207\include\xutility
; File C:\Program Files\Microsoft Visual Studio\2022\Professional\VC\Tools\MSVC\14.44.35207\include\vector
; File C:\IAGOS\server\v18\Source\Source\_Common\RainbowRace.cpp
; File C:\Program Files\Microsoft Visual Studio\2022\Professional\VC\Tools\MSVC\14.44.35207\include\vector
; File C:\IAGOS\server\v18\Source\Source\_Common\RainbowRace.cpp
;	COMDAT ?SetNowGameComplete@CRainbowRace@@QAEXPAVCUser@@@Z
_TEXT	SEGMENT
$T1 = -12						; size = 12
_pUser$ = 8						; size = 4
?SetNowGameComplete@CRainbowRace@@QAEXPAVCUser@@@Z PROC	; CRainbowRace::SetNowGameComplete, COMDAT
; _this$ = ecx

; 183  : {

  00000	55		 push	 ebp
  00001	8b ec		 mov	 ebp, esp
  00003	83 ec 0c	 sub	 esp, 12			; 0000000cH
  00006	53		 push	 ebx
  00007	56		 push	 esi
  00008	57		 push	 edi
  00009	8b f9		 mov	 edi, ecx

; 184  : 	m_wGameState |= m_wNowGame;

  0000b	66 8b 47 02	 mov	 ax, WORD PTR [edi+2]
  0000f	66 09 07	 or	 WORD PTR [edi], ax

; 185  : 	m_wNowGame = 0x0000;

  00012	33 c0		 xor	 eax, eax
; File C:\IAGOS\server\v18\Source\Source\_Common\RainbowRace.h

; 22   : 	BOOL	IsAllCompleted() { return ( m_wGameState == (0x7fff >> (15 - RMG_MAX)) ); } // И№Еч ЙЬДЯАдРгРЛ ХЌИЎОю ЧпДТАЁ?

  00014	66 83 3f 7f	 cmp	 WORD PTR [edi], 127	; 0000007fH
; File C:\IAGOS\server\v18\Source\Source\_Common\RainbowRace.cpp

; 185  : 	m_wNowGame = 0x0000;

  00018	66 89 47 02	 mov	 WORD PTR [edi+2], ax

; 186  : 
; 187  : 	if( IsAllCompleted() )

  0001c	75 07		 jne	 SHORT $LN2@SetNowGame

; 188  : 		DestroyGame();

  0001e	e8 00 00 00 00	 call	 ?DestroyGame@CRainbowRace@@QAEXXZ ; CRainbowRace::DestroyGame
  00023	eb 05		 jmp	 SHORT $LN3@SetNowGame
$LN2@SetNowGame:

; 189  : 	else
; 190  : 		SetNextMiniGame();			// ДйРН АдРг ММЦУ

  00025	e8 00 00 00 00	 call	 ?SetNextMiniGame@CRainbowRace@@QAEXXZ ; CRainbowRace::SetNextMiniGame
$LN3@SetNowGame:

; 191  : 
; 192  : 	pUser->AddRainbowRaceState( this );	// ХЌЖѓПЁ ОЫЗССиДй.

  0002a	8b 75 08	 mov	 esi, DWORD PTR _pUser$[ebp]
  0002d	8b ce		 mov	 ecx, esi
  0002f	57		 push	 edi
  00030	e8 00 00 00 00	 call	 ?AddRainbowRaceState@CUser@@QAEXPAVCRainbowRace@@@Z ; CUser::AddRainbowRaceState

; 193  : 	CRainbowRaceMng::GetInstance()->SetMiniGamePrizeList( pUser->m_idPlayer, GetCompletedGameNum(), GetTickCount() );	// ЙЬДЯАдРг ЛѓЧАСіБо

  00035	ff 15 00 00 00
	00		 call	 DWORD PTR __imp__GetTickCount@0
  0003b	8b cf		 mov	 ecx, edi
  0003d	8b d8		 mov	 ebx, eax
  0003f	e8 00 00 00 00	 call	 ?GetCompletedGameNum@CRainbowRace@@AAEHXZ ; CRainbowRace::GetCompletedGameNum
  00044	8b b6 34 02 00
	00		 mov	 esi, DWORD PTR [esi+564]
  0004a	8b f8		 mov	 edi, eax
; File C:\IAGOS\server\v18\Source\Source\_Common\RainbowRace.h

; 100  : 		: dwPlayerId( dwPI ), nCompletedNum( nCN ), dwCompletedTick( dwCT )	{}

  0004c	89 75 f4	 mov	 DWORD PTR $T1[ebp], esi
  0004f	89 7d f8	 mov	 DWORD PTR $T1[ebp+4], edi
  00052	89 5d fc	 mov	 DWORD PTR $T1[ebp+8], ebx
; File C:\IAGOS\server\v18\Source\Source\_Common\RainbowRace.cpp

; 193  : 	CRainbowRaceMng::GetInstance()->SetMiniGamePrizeList( pUser->m_idPlayer, GetCompletedGameNum(), GetTickCount() );	// ЙЬДЯАдРг ЛѓЧАСіБо

  00055	e8 00 00 00 00	 call	 ?GetInstance@CRainbowRaceMng@@SAPAV1@XZ ; CRainbowRaceMng::GetInstance
; File C:\Program Files\Microsoft Visual Studio\2022\Professional\VC\Tools\MSVC\14.44.35207\include\vector

; 844  :         if (_Mylast != _My_data._Myend) {

  0005a	8b 48 04	 mov	 ecx, DWORD PTR [eax+4]
  0005d	3b 48 08	 cmp	 ecx, DWORD PTR [eax+8]
  00060	74 15		 je	 SHORT $LN14@SetNowGame
; File C:\Program Files\Microsoft Visual Studio\2022\Professional\VC\Tools\MSVC\14.44.35207\include\xutility

; 476  :         ::new (static_cast<void*>(_STD addressof(_Obj))) _Ty(_STD forward<_Types>(_Args)...);

  00062	89 31		 mov	 DWORD PTR [ecx], esi
  00064	89 79 04	 mov	 DWORD PTR [ecx+4], edi
  00067	5f		 pop	 edi
  00068	89 59 08	 mov	 DWORD PTR [ecx+8], ebx
; File C:\Program Files\Microsoft Visual Studio\2022\Professional\VC\Tools\MSVC\14.44.35207\include\vector

; 869  :         ++_Mylast;

  0006b	83 40 04 0c	 add	 DWORD PTR [eax+4], 12	; 0000000cH
; File C:\IAGOS\server\v18\Source\Source\_Common\RainbowRace.cpp

; 194  : }

  0006f	5e		 pop	 esi
  00070	5b		 pop	 ebx
  00071	8b e5		 mov	 esp, ebp
  00073	5d		 pop	 ebp
  00074	c2 04 00	 ret	 4
$LN14@SetNowGame:
; File C:\Program Files\Microsoft Visual Studio\2022\Professional\VC\Tools\MSVC\14.44.35207\include\vector

; 848  :         return *_Emplace_reallocate(_Mylast, _STD forward<_Valty>(_Val)...);

  00077	8d 55 f4	 lea	 edx, DWORD PTR $T1[ebp]
  0007a	52		 push	 edx
  0007b	51		 push	 ecx
  0007c	8b c8		 mov	 ecx, eax
  0007e	e8 00 00 00 00	 call	 ??$_Emplace_reallocate@UMINIGMAME_PRIZE_LIST@CRainbowRaceMng@@@?$vector@UMINIGMAME_PRIZE_LIST@CRainbowRaceMng@@V?$allocator@UMINIGMAME_PRIZE_LIST@CRainbowRaceMng@@@std@@@std@@AAEPAUMINIGMAME_PRIZE_LIST@CRainbowRaceMng@@QAU23@$$QAU23@@Z ; std::vector<CRainbowRaceMng::MINIGMAME_PRIZE_LIST,std::allocator<CRainbowRaceMng::MINIGMAME_PRIZE_LIST> >::_Emplace_reallocate<CRainbowRaceMng::MINIGMAME_PRIZE_LIST>
  00083	5f		 pop	 edi
; File C:\IAGOS\server\v18\Source\Source\_Common\RainbowRace.cpp

; 194  : }

  00084	5e		 pop	 esi
  00085	5b		 pop	 ebx
  00086	8b e5		 mov	 esp, ebp
  00088	5d		 pop	 ebp
  00089	c2 04 00	 ret	 4
?SetNowGameComplete@CRainbowRace@@QAEXPAVCUser@@@Z ENDP	; CRainbowRace::SetNowGameComplete
_TEXT	ENDS
; Function compile flags: /Ogtp
; File C:\IAGOS\server\v18\Source\Source\_Common\RainbowRace.cpp
; File C:\Program Files\Microsoft Visual Studio\2022\Professional\VC\Tools\MSVC\14.44.35207\include\vector
; File C:\IAGOS\server\v18\Source\Source\_Common\RainbowRace.cpp
;	COMDAT ?IsCompletedGame@CRainbowRace@@QAEHH@Z
_TEXT	SEGMENT
_nGameNum$ = 8						; size = 4
?IsCompletedGame@CRainbowRace@@QAEHH@Z PROC		; CRainbowRace::IsCompletedGame, COMDAT
; _this$ = ecx

; 89   : {

  00000	55		 push	 ebp
  00001	8b ec		 mov	 ebp, esp
  00003	56		 push	 esi
  00004	8b f1		 mov	 esi, ecx

; 91   : 	if( nGameNum > CRainbowRaceMng::GetInstance()->GetMiniGameSize() )

  00006	e8 00 00 00 00	 call	 ?GetInstance@CRainbowRaceMng@@SAPAV1@XZ ; CRainbowRaceMng::GetInstance
  0000b	8b 4d 08	 mov	 ecx, DWORD PTR _nGameNum$[ebp]
; File C:\Program Files\Microsoft Visual Studio\2022\Professional\VC\Tools\MSVC\14.44.35207\include\vector

; 1915 :         return static_cast<size_type>(_My_data._Mylast - _My_data._Myfirst);

  0000e	8b 50 18	 mov	 edx, DWORD PTR [eax+24]
  00011	2b 50 14	 sub	 edx, DWORD PTR [eax+20]
  00014	c1 fa 02	 sar	 edx, 2
; File C:\IAGOS\server\v18\Source\Source\_Common\RainbowRace.cpp

; 91   : 	if( nGameNum > CRainbowRaceMng::GetInstance()->GetMiniGameSize() )

  00017	3b ca		 cmp	 ecx, edx
  00019	7e 07		 jle	 SHORT $LN2@IsComplete

; 92   : 		return FALSE;

  0001b	33 c0		 xor	 eax, eax
  0001d	5e		 pop	 esi

; 96   : }

  0001e	5d		 pop	 ebp
  0001f	c2 04 00	 ret	 4
$LN2@IsComplete:

; 93   : #endif // __WORLDSERVER
; 94   : 
; 95   : 	return ( m_wGameState & ( 0x0001 << nGameNum ) );

  00022	b8 01 00 00 00	 mov	 eax, 1
  00027	d3 e0		 shl	 eax, cl
  00029	0f b7 0e	 movzx	 ecx, WORD PTR [esi]
  0002c	23 c1		 and	 eax, ecx
  0002e	5e		 pop	 esi

; 96   : }

  0002f	5d		 pop	 ebp
  00030	c2 04 00	 ret	 4
?IsCompletedGame@CRainbowRace@@QAEHH@Z ENDP		; CRainbowRace::IsCompletedGame
_TEXT	ENDS
; Function compile flags: /Ogtp
; File C:\IAGOS\server\v18\Source\Source\_Common\RainbowRace.cpp
; File C:\IAGOS\server\v18\Source\Source\_Network\Misc\Include\ar.h
; File C:\IAGOS\server\v18\Source\Source\_Common\RainbowRace.cpp
; File C:\IAGOS\server\v18\Source\Source\_Network\Misc\Include\ar.h
; File C:\IAGOS\server\v18\Source\Source\_Common\RainbowRace.cpp
; File C:\IAGOS\server\v18\Source\Source\_Common\RainbowRace.h
; File C:\IAGOS\server\v18\Source\Source\_Common\RainbowRace.cpp
;	COMDAT ?Serialize@CRainbowRace@@QAEXAAVCAr@@@Z
_TEXT	SEGMENT
_ar$ = 8						; size = 4
$T1 = 8							; size = 4
$T2 = 8							; size = 4
?Serialize@CRainbowRace@@QAEXAAVCAr@@@Z PROC		; CRainbowRace::Serialize, COMDAT
; _this$ = ecx

; 64   : {

  00000	55		 push	 ebp
  00001	8b ec		 mov	 ebp, esp
  00003	56		 push	 esi
  00004	57		 push	 edi
; File C:\IAGOS\server\v18\Source\Source\_Network\Misc\Include\ar.h

; 146  : 	return (m_nMode & CAr::load) == 0;

  00005	8b 7d 08	 mov	 edi, DWORD PTR _ar$[ebp]
; File C:\IAGOS\server\v18\Source\Source\_Common\RainbowRace.cpp

; 64   : {

  00008	8b f1		 mov	 esi, ecx

; 65   : 	if( ar.IsStoring() )

  0000a	8b cf		 mov	 ecx, edi
; File C:\IAGOS\server\v18\Source\Source\_Network\Misc\Include\ar.h

; 146  : 	return (m_nMode & CAr::load) == 0;

  0000c	f6 07 01	 test	 BYTE PTR [edi], 1
  0000f	8d 46 02	 lea	 eax, DWORD PTR [esi+2]
; File C:\IAGOS\server\v18\Source\Source\_Common\RainbowRace.cpp

; 65   : 	if( ar.IsStoring() )

  00012	50		 push	 eax
  00013	75 5a		 jne	 SHORT $LN2@Serialize

; 66   : 	{
; 67   : 		ar << m_wNowGame;

  00015	e8 00 00 00 00	 call	 ??$?6G@CAr@@QAEAAV0@ABG@Z ; CAr::operator<<<unsigned short>

; 68   : 		ar << m_wGameState;

  0001a	56		 push	 esi
  0001b	8b cf		 mov	 ecx, edi
  0001d	e8 00 00 00 00	 call	 ??$?6G@CAr@@QAEAAV0@ABG@Z ; CAr::operator<<<unsigned short>

; 69   : #ifdef __WORLDSERVER
; 70   : 		if( IsFinished() || (CRainbowRaceMng::GetInstance()->GetState() == CRainbowRaceMng::RR_CLOSED) )

  00022	83 7e 08 00	 cmp	 DWORD PTR [esi+8], 0
  00026	75 2f		 jne	 SHORT $LN6@Serialize
  00028	e8 00 00 00 00	 call	 ?GetInstance@CRainbowRaceMng@@SAPAV1@XZ ; CRainbowRaceMng::GetInstance
  0002d	83 78 28 00	 cmp	 DWORD PTR [eax+40], 0
  00031	74 24		 je	 SHORT $LN6@Serialize

; 73   : 			ar << CRainbowRaceMng::GetInstance()->GetNextTime() - GetTickCount();

  00033	e8 00 00 00 00	 call	 ?GetInstance@CRainbowRaceMng@@SAPAV1@XZ ; CRainbowRaceMng::GetInstance
; File C:\IAGOS\server\v18\Source\Source\_Common\RainbowRace.h

; 89   : 	DWORD			GetNextTime()				{ return m_dwNextTime; }			// ДйРН ДмАшЗЮ ГбОюАЁДТ НУАЃ

  00038	8b 70 2c	 mov	 esi, DWORD PTR [eax+44]
; File C:\IAGOS\server\v18\Source\Source\_Common\RainbowRace.cpp

; 73   : 			ar << CRainbowRaceMng::GetInstance()->GetNextTime() - GetTickCount();

  0003b	ff 15 00 00 00
	00		 call	 DWORD PTR __imp__GetTickCount@0
  00041	2b f0		 sub	 esi, eax
  00043	8b cf		 mov	 ecx, edi
  00045	8d 45 08	 lea	 eax, DWORD PTR $T2[ebp]
  00048	89 75 08	 mov	 DWORD PTR $T2[ebp], esi
  0004b	50		 push	 eax
  0004c	e8 00 00 00 00	 call	 ??$?6K@CAr@@QAEAAV0@ABK@Z ; CAr::operator<<<unsigned long>
  00051	5f		 pop	 edi

; 80   : #ifdef __CLIENT
; 81   : 		ar >> m_dwRemainTime;
; 82   : 		if( m_dwRemainTime > 0 )
; 83   : 			m_dwRemainTime += GetTickCount();
; 84   : #endif // __CLIENT
; 85   : 	}
; 86   : }

  00052	5e		 pop	 esi
  00053	5d		 pop	 ebp
  00054	c2 04 00	 ret	 4
$LN6@Serialize:

; 71   : 			ar << (DWORD)0;

  00057	8d 45 08	 lea	 eax, DWORD PTR $T1[ebp]
  0005a	c7 45 08 00 00
	00 00		 mov	 DWORD PTR $T1[ebp], 0
  00061	50		 push	 eax
  00062	8b cf		 mov	 ecx, edi
  00064	e8 00 00 00 00	 call	 ??$?6K@CAr@@QAEAAV0@ABK@Z ; CAr::operator<<<unsigned long>
  00069	5f		 pop	 edi

; 80   : #ifdef __CLIENT
; 81   : 		ar >> m_dwRemainTime;
; 82   : 		if( m_dwRemainTime > 0 )
; 83   : 			m_dwRemainTime += GetTickCount();
; 84   : #endif // __CLIENT
; 85   : 	}
; 86   : }

  0006a	5e		 pop	 esi
  0006b	5d		 pop	 ebp
  0006c	c2 04 00	 ret	 4
$LN2@Serialize:

; 74   : #endif // __WORLDSERVER
; 75   : 	}
; 76   : 	else
; 77   : 	{
; 78   : 		ar >> m_wNowGame;

  0006f	e8 00 00 00 00	 call	 ??$?5G@CAr@@QAEAAV0@AAG@Z ; CAr::operator>><unsigned short>

; 79   : 		ar >> m_wGameState;

  00074	56		 push	 esi
  00075	8b cf		 mov	 ecx, edi
  00077	e8 00 00 00 00	 call	 ??$?5G@CAr@@QAEAAV0@AAG@Z ; CAr::operator>><unsigned short>
  0007c	5f		 pop	 edi

; 80   : #ifdef __CLIENT
; 81   : 		ar >> m_dwRemainTime;
; 82   : 		if( m_dwRemainTime > 0 )
; 83   : 			m_dwRemainTime += GetTickCount();
; 84   : #endif // __CLIENT
; 85   : 	}
; 86   : }

  0007d	5e		 pop	 esi
  0007e	5d		 pop	 ebp
  0007f	c2 04 00	 ret	 4
?Serialize@CRainbowRace@@QAEXAAVCAr@@@Z ENDP		; CRainbowRace::Serialize
_TEXT	ENDS
; Function compile flags: /Ogtp
; File C:\IAGOS\server\v18\Source\Source\_Common\RainbowRace.cpp
;	COMDAT ?DestroyGame@CRainbowRace@@QAEXXZ
_TEXT	SEGMENT
?DestroyGame@CRainbowRace@@QAEXXZ PROC			; CRainbowRace::DestroyGame, COMDAT
; _this$ = ecx

; 56   : {

  00000	56		 push	 esi
  00001	8b f1		 mov	 esi, ecx

; 57   : #ifdef __WORLDSERVER
; 58   : 	SAFE_DELETE( m_pMiniGame );

  00003	8b 4e 04	 mov	 ecx, DWORD PTR [esi+4]
  00006	85 c9		 test	 ecx, ecx
  00008	74 0d		 je	 SHORT $LN2@DestroyGam
  0000a	8b 01		 mov	 eax, DWORD PTR [ecx]
  0000c	6a 01		 push	 1
  0000e	ff 10		 call	 DWORD PTR [eax]
  00010	c7 46 04 00 00
	00 00		 mov	 DWORD PTR [esi+4], 0
$LN2@DestroyGam:

; 59   : #endif // __WORLDSERVER
; 60   : }

  00017	5e		 pop	 esi
  00018	c3		 ret	 0
?DestroyGame@CRainbowRace@@QAEXXZ ENDP			; CRainbowRace::DestroyGame
_TEXT	ENDS
; Function compile flags: /Ogtp
; File C:\IAGOS\server\v18\Source\Source\_Common\RainbowRace.cpp
;	COMDAT ??1CRainbowRace@@QAE@XZ
_TEXT	SEGMENT
??1CRainbowRace@@QAE@XZ PROC				; CRainbowRace::~CRainbowRace, COMDAT
; _this$ = ecx

; 52   : 	DestroyGame();	

  00000	e9 00 00 00 00	 jmp	 ?DestroyGame@CRainbowRace@@QAEXXZ ; CRainbowRace::DestroyGame
??1CRainbowRace@@QAE@XZ ENDP				; CRainbowRace::~CRainbowRace
_TEXT	ENDS
; Function compile flags: /Ogtp
; File C:\IAGOS\server\v18\Source\Source\_Common\RainbowRace.cpp
;	COMDAT ??0CRainbowRace@@QAE@XZ
_TEXT	SEGMENT
??0CRainbowRace@@QAE@XZ PROC				; CRainbowRace::CRainbowRace, COMDAT
; _this$ = ecx

; 40   : {

  00000	56		 push	 esi
  00001	8b f1		 mov	 esi, ecx

; 39   : : m_wGameState(0x0000), m_wNowGame(0x0000)

  00003	33 c0		 xor	 eax, eax
  00005	89 06		 mov	 DWORD PTR [esi], eax

; 41   : #ifdef __CLIENT
; 42   : 	m_dwRemainTime = 0;
; 43   : #endif // __CLIENT
; 44   : #ifdef __WORLDSERVER
; 45   : 	m_bFinished = FALSE;

  00007	89 46 08	 mov	 DWORD PTR [esi+8], eax

; 46   : 	m_pMiniGame = NULL;

  0000a	89 46 04	 mov	 DWORD PTR [esi+4], eax

; 47   : 	SetNextMiniGame();

  0000d	e8 00 00 00 00	 call	 ?SetNextMiniGame@CRainbowRace@@QAEXXZ ; CRainbowRace::SetNextMiniGame

; 48   : #endif // __WORLDSERVER
; 49   : }

  00012	8b c6		 mov	 eax, esi
  00014	5e		 pop	 esi
  00015	c3		 ret	 0
??0CRainbowRace@@QAE@XZ ENDP				; CRainbowRace::CRainbowRace
_TEXT	ENDS
; Function compile flags: /Ogtp
; File C:\IAGOS\server\v18\Source\Source\_Network\Misc\Include\ar.h
;	COMDAT ??$?5G@CAr@@QAEAAV0@AAG@Z
_TEXT	SEGMENT
_t$ = 8							; size = 4
??$?5G@CAr@@QAEAAV0@AAG@Z PROC				; CAr::operator>><unsigned short>, COMDAT
; _this$ = ecx

; 302  : {

  00000	55		 push	 ebp
  00001	8b ec		 mov	 ebp, esp
  00003	8b d1		 mov	 edx, ecx

; 303  : 	if (m_lpBufCur + sizeof(T) <= m_lpBufMax)

  00005	8b 4a 08	 mov	 ecx, DWORD PTR [edx+8]
  00008	8d 41 02	 lea	 eax, DWORD PTR [ecx+2]
  0000b	3b 42 0c	 cmp	 eax, DWORD PTR [edx+12]
  0000e	8b 45 08	 mov	 eax, DWORD PTR _t$[ebp]
  00011	77 10		 ja	 SHORT $LN2@operator

; 304  : 	{
; 305  : 		t = *(UNALIGNED T*)m_lpBufCur;

  00013	66 8b 09	 mov	 cx, WORD PTR [ecx]
  00016	66 89 08	 mov	 WORD PTR [eax], cx

; 312  : 	}
; 313  : 	return *this;
; 314  : }

  00019	8b c2		 mov	 eax, edx
  0001b	83 42 08 02	 add	 DWORD PTR [edx+8], 2
  0001f	5d		 pop	 ebp
  00020	c2 04 00	 ret	 4
$LN2@operator:

; 306  : 		m_lpBufCur += sizeof(T);
; 307  : 	}
; 308  : 	else
; 309  : 	{
; 310  : 		t = T();

  00023	33 c9		 xor	 ecx, ecx
  00025	66 89 08	 mov	 WORD PTR [eax], cx

; 311  : 		m_lpBufCur = m_lpBufMax;

  00028	8b 42 0c	 mov	 eax, DWORD PTR [edx+12]
  0002b	89 42 08	 mov	 DWORD PTR [edx+8], eax

; 312  : 	}
; 313  : 	return *this;
; 314  : }

  0002e	8b c2		 mov	 eax, edx
  00030	5d		 pop	 ebp
  00031	c2 04 00	 ret	 4
??$?5G@CAr@@QAEAAV0@AAG@Z ENDP				; CAr::operator>><unsigned short>
_TEXT	ENDS
; Function compile flags: /Ogtp
; File C:\IAGOS\server\v18\Source\Source\_Network\Misc\Include\ar.h
;	COMDAT ??$?6G@CAr@@QAEAAV0@ABG@Z
_TEXT	SEGMENT
_t$ = 8							; size = 4
??$?6G@CAr@@QAEAAV0@ABG@Z PROC				; CAr::operator<<<unsigned short>, COMDAT
; _this$ = ecx

; 255  : {

  00000	55		 push	 ebp
  00001	8b ec		 mov	 ebp, esp
  00003	56		 push	 esi

; 256  : 	CheckBuf(sizeof(T));

  00004	6a 02		 push	 2
  00006	8b f1		 mov	 esi, ecx
  00008	e8 00 00 00 00	 call	 ?CheckBuf@CAr@@QAEXI@Z	; CAr::CheckBuf

; 257  : 	*(UNALIGNED T*)m_lpBufCur = t;

  0000d	8b 45 08	 mov	 eax, DWORD PTR _t$[ebp]
  00010	8b 56 08	 mov	 edx, DWORD PTR [esi+8]
  00013	66 8b 00	 mov	 ax, WORD PTR [eax]
  00016	66 89 02	 mov	 WORD PTR [edx], ax

; 258  : 	m_lpBufCur += sizeof(T);
; 259  : 	return *this;

  00019	8b c6		 mov	 eax, esi
  0001b	83 46 08 02	 add	 DWORD PTR [esi+8], 2
  0001f	5e		 pop	 esi

; 260  : }

  00020	5d		 pop	 ebp
  00021	c2 04 00	 ret	 4
??$?6G@CAr@@QAEAAV0@ABG@Z ENDP				; CAr::operator<<<unsigned short>
_TEXT	ENDS
; Function compile flags: /Ogtp
; File C:\Program Files\Microsoft Visual Studio\2022\Professional\VC\Tools\MSVC\14.44.35207\include\xmemory
;	COMDAT ??$_Allocate_manually_vector_aligned@U_Default_allocate_traits@std@@@std@@YAPAXI@Z
_TEXT	SEGMENT
__Bytes$ = 8						; size = 4
??$_Allocate_manually_vector_aligned@U_Default_allocate_traits@std@@@std@@YAPAXI@Z PROC ; std::_Allocate_manually_vector_aligned<std::_Default_allocate_traits>, COMDAT

; 182  : __declspec(allocator) void* _Allocate_manually_vector_aligned(const size_t _Bytes) {

  00000	55		 push	 ebp
  00001	8b ec		 mov	 ebp, esp

; 183  :     // allocate _Bytes manually aligned to at least _Big_allocation_alignment
; 184  :     const size_t _Block_size = _Non_user_size + _Bytes;

  00003	8b 45 08	 mov	 eax, DWORD PTR __Bytes$[ebp]
  00006	8d 48 23	 lea	 ecx, DWORD PTR [eax+35]

; 185  :     if (_Block_size <= _Bytes) {

  00009	3b c8		 cmp	 ecx, eax
  0000b	0f 86 00 00 00
	00		 jbe	 ?_Throw_bad_array_new_length@std@@YAXXZ ; std::_Throw_bad_array_new_length

; 136  :         return ::operator new(_Bytes);

  00011	51		 push	 ecx
  00012	e8 00 00 00 00	 call	 ??2@YAPAXI@Z		; operator new

; 186  :         _Throw_bad_array_new_length(); // add overflow
; 187  :     }
; 188  : 
; 189  :     const uintptr_t _Ptr_container = reinterpret_cast<uintptr_t>(_Traits::_Allocate(_Block_size));

  00017	8b c8		 mov	 ecx, eax

; 136  :         return ::operator new(_Bytes);

  00019	83 c4 04	 add	 esp, 4

; 190  :     _STL_VERIFY(_Ptr_container != 0, "invalid argument"); // validate even in release since we're doing p[-1]

  0001c	85 c9		 test	 ecx, ecx
  0001e	74 0b		 je	 SHORT $LN9@Allocate_m

; 191  :     void* const _Ptr = reinterpret_cast<void*>((_Ptr_container + _Non_user_size) & ~(_Big_allocation_alignment - 1));

  00020	8d 41 23	 lea	 eax, DWORD PTR [ecx+35]
  00023	83 e0 e0	 and	 eax, -32		; ffffffe0H

; 192  :     static_cast<uintptr_t*>(_Ptr)[-1] = _Ptr_container;

  00026	89 48 fc	 mov	 DWORD PTR [eax-4], ecx

; 193  : 
; 194  : #ifdef _DEBUG
; 195  :     static_cast<uintptr_t*>(_Ptr)[-2] = _Big_allocation_sentinel;
; 196  : #endif // defined(_DEBUG)
; 197  :     return _Ptr;
; 198  : }

  00029	5d		 pop	 ebp
  0002a	c3		 ret	 0
$LN9@Allocate_m:

; 190  :     _STL_VERIFY(_Ptr_container != 0, "invalid argument"); // validate even in release since we're doing p[-1]

  0002b	6a 00		 push	 0
  0002d	6a 00		 push	 0
  0002f	6a 00		 push	 0
  00031	6a 00		 push	 0
  00033	6a 00		 push	 0
  00035	e8 00 00 00 00	 call	 __invoke_watson
$LN7@Allocate_m:
  0003a	cc		 int	 3
??$_Allocate_manually_vector_aligned@U_Default_allocate_traits@std@@@std@@YAPAXI@Z ENDP ; std::_Allocate_manually_vector_aligned<std::_Default_allocate_traits>
_TEXT	ENDS
; Function compile flags: /Ogtp
; File C:\IAGOS\server\v18\Source\Source\_Common\Project.h
; File C:\IAGOS\server\v18\Source\Source\_Common\data.h
; File C:\IAGOS\server\v18\Source\Source\_Common\Project.h
;	COMDAT ?GetText@CProject@@QAEPBDK@Z
_TEXT	SEGMENT
_dwIndex$ = 8						; size = 4
?GetText@CProject@@QAEPBDK@Z PROC			; CProject::GetText, COMDAT
; _this$ = ecx

; 1426 : { 

  00000	55		 push	 ebp
  00001	8b ec		 mov	 ebp, esp

; 1427 : 	VERIFY_RANGE( (int)( dwIndex ), 0, m_colorText.GetSize(), "GetText range_error", "error" );

  00003	8b 55 08	 mov	 edx, DWORD PTR _dwIndex$[ebp]
  00006	56		 push	 esi
  00007	85 d2		 test	 edx, edx
  00009	78 29		 js	 SHORT $LN19@GetText
  0000b	3b 91 ac 02 00
	00		 cmp	 edx, DWORD PTR [ecx+684]
  00011	7d 21		 jge	 SHORT $LN19@GetText
; File C:\IAGOS\server\v18\Source\Source\_Common\data.h

; 270  : 	if( dwIndex >= (DWORD)m_nMaxIndex )

  00013	73 15		 jae	 SHORT $LN18@GetText

; 271  : 		return NULL;
; 272  : 	return (T*) m_apOffset[ dwIndex ];

  00015	8b 81 9c 02 00
	00		 mov	 eax, DWORD PTR [ecx+668]
  0001b	8b 04 90	 mov	 eax, DWORD PTR [eax+edx*4]
; File C:\IAGOS\server\v18\Source\Source\_Common\Project.h

; 1428 : 	if( m_colorText.GetAt( dwIndex ) == NULL )

  0001e	85 c0		 test	 eax, eax
  00020	74 08		 je	 SHORT $LN18@GetText

; 1430 : 	return m_colorText.GetAt( dwIndex )->lpszData; 

  00022	8b 40 04	 mov	 eax, DWORD PTR [eax+4]
  00025	5e		 pop	 esi

; 1431 : }

  00026	5d		 pop	 ebp
  00027	c2 04 00	 ret	 4
$LN18@GetText:

; 1429 : 		return "";

  0002a	b8 00 00 00 00	 mov	 eax, OFFSET ??_C@_00CNPNBAHC@@
  0002f	5e		 pop	 esi

; 1431 : }

  00030	5d		 pop	 ebp
  00031	c2 04 00	 ret	 4
$LN19@GetText:

; 579  : 	LPCTSTR szErr = Error( _T( "%s min:%d, max:%d, index:%d" ), szMsg, nMin, nMax, nIndex ); 

  00034	52		 push	 edx
  00035	ff b1 ac 02 00
	00		 push	 DWORD PTR [ecx+684]
  0003b	6a 00		 push	 0
  0003d	68 00 00 00 00	 push	 OFFSET ??_C@_0BE@OHDBLHOM@GetText?5range_error@
  00042	68 00 00 00 00	 push	 OFFSET ??_C@_0BM@HMFGHCP@?$CFs?5min?3?$CFd?0?5max?3?$CFd?0?5index?3?$CFd@
  00047	e8 00 00 00 00	 call	 ?Error@@YAPBDPBDZZ	; Error
  0004c	83 c4 14	 add	 esp, 20			; 00000014H

; 1427 : 	VERIFY_RANGE( (int)( dwIndex ), 0, m_colorText.GetSize(), "GetText range_error", "error" );

  0004f	b8 00 00 00 00	 mov	 eax, OFFSET ??_C@_05KKCIMGE@error@
  00054	5e		 pop	 esi

; 1431 : }

  00055	5d		 pop	 ebp
  00056	c2 04 00	 ret	 4
?GetText@CProject@@QAEPBDK@Z ENDP			; CProject::GetText
_TEXT	ENDS
; Function compile flags: /Ogtp
; File C:\Program Files\Microsoft Visual Studio\2022\Professional\VC\Tools\MSVC\14.44.35207\include\vector
;	COMDAT ?_Xlength@?$vector@KV?$allocator@K@std@@@std@@CAXXZ
_TEXT	SEGMENT
?_Xlength@?$vector@KV?$allocator@K@std@@@std@@CAXXZ PROC ; std::vector<unsigned long,std::allocator<unsigned long> >::_Xlength, COMDAT

; 2184 :         _Xlength_error("vector too long");

  00000	68 00 00 00 00	 push	 OFFSET ??_C@_0BA@FOIKENOD@vector?5too?5long@
  00005	e8 00 00 00 00	 call	 ?_Xlength_error@std@@YAXPBD@Z ; std::_Xlength_error
$LN3@Xlength:
  0000a	cc		 int	 3
?_Xlength@?$vector@KV?$allocator@K@std@@@std@@CAXXZ ENDP ; std::vector<unsigned long,std::allocator<unsigned long> >::_Xlength
_TEXT	ENDS
; Function compile flags: /Ogtp
; File C:\Program Files\Microsoft Visual Studio\2022\Professional\VC\Tools\MSVC\14.44.35207\include\vector
; File C:\Program Files\Microsoft Visual Studio\2022\Professional\VC\Tools\MSVC\14.44.35207\include\xmemory
; File C:\Program Files\Microsoft Visual Studio\2022\Professional\VC\Tools\MSVC\14.44.35207\include\vector
; File C:\Program Files\Microsoft Visual Studio\2022\Professional\VC\Tools\MSVC\14.44.35207\include\xmemory
; File C:\Program Files\Microsoft Visual Studio\2022\Professional\VC\Tools\MSVC\14.44.35207\include\vector
;	COMDAT ?_Change_array@?$vector@KV?$allocator@K@std@@@std@@AAEXQAKII@Z
_TEXT	SEGMENT
__Newvec$ = 8						; size = 4
__Newsize$ = 12						; size = 4
__Newcapacity$ = 16					; size = 4
?_Change_array@?$vector@KV?$allocator@K@std@@@std@@AAEXQAKII@Z PROC ; std::vector<unsigned long,std::allocator<unsigned long> >::_Change_array, COMDAT
; _this$ = ecx

; 2059 :         const pointer _Newvec, const size_type _Newsize, const size_type _Newcapacity) noexcept {

  00000	55		 push	 ebp
  00001	8b ec		 mov	 ebp, esp
  00003	56		 push	 esi
  00004	8b f1		 mov	 esi, ecx

; 2060 :         // orphan all iterators, discard old array, acquire new array
; 2061 :         auto& _Al         = _Getal();
; 2062 :         auto& _My_data    = _Mypair._Myval2;
; 2063 :         pointer& _Myfirst = _My_data._Myfirst;
; 2064 :         pointer& _Mylast  = _My_data._Mylast;
; 2065 :         pointer& _Myend   = _My_data._Myend;
; 2066 : 
; 2067 :         _My_data._Orphan_all();
; 2068 : 
; 2069 :         if (_Myfirst) { // destroy and deallocate old array

  00006	8b 06		 mov	 eax, DWORD PTR [esi]
  00008	85 c0		 test	 eax, eax
  0000a	74 2c		 je	 SHORT $LN10@Change_arr

; 2070 :             _STD _Destroy_range(_Myfirst, _Mylast, _Al);
; 2071 :             _ASAN_VECTOR_REMOVE;
; 2072 :             _Al.deallocate(_Myfirst, static_cast<size_type>(_Myend - _Myfirst));

  0000c	8b 4e 08	 mov	 ecx, DWORD PTR [esi+8]
  0000f	2b c8		 sub	 ecx, eax
; File C:\Program Files\Microsoft Visual Studio\2022\Professional\VC\Tools\MSVC\14.44.35207\include\xmemory

; 985  :         _STD _Deallocate<_New_alignof<_Ty>>(_Ptr, sizeof(_Ty) * _Count);

  00011	83 e1 fc	 and	 ecx, -4			; fffffffcH

; 284  :         if (_Bytes >= _Big_allocation_threshold) {

  00014	81 f9 00 10 00
	00		 cmp	 ecx, 4096		; 00001000H
  0001a	72 12		 jb	 SHORT $LN15@Change_arr

; 205  :     const uintptr_t _Ptr_container   = _Ptr_user[-1];

  0001c	8b 50 fc	 mov	 edx, DWORD PTR [eax-4]
  0001f	83 c1 23	 add	 ecx, 35			; 00000023H

; 206  : 
; 207  :     // If the following asserts, it likely means that we are performing
; 208  :     // an aligned delete on memory coming from an unaligned allocation.
; 209  :     _STL_ASSERT(_Ptr_user[-2] == _Big_allocation_sentinel, "invalid argument");
; 210  : 
; 211  :     // Extra paranoia on aligned allocation/deallocation; ensure _Ptr_container is
; 212  :     // in range [_Min_back_shift, _Non_user_size]
; 213  : #ifdef _DEBUG
; 214  :     constexpr uintptr_t _Min_back_shift = 2 * sizeof(void*);
; 215  : #else // ^^^ defined(_DEBUG) / !defined(_DEBUG) vvv
; 216  :     constexpr uintptr_t _Min_back_shift = sizeof(void*);
; 217  : #endif // ^^^ !defined(_DEBUG) ^^^
; 218  :     const uintptr_t _Back_shift = reinterpret_cast<uintptr_t>(_Ptr) - _Ptr_container;

  00022	2b c2		 sub	 eax, edx

; 219  :     _STL_VERIFY(_Back_shift >= _Min_back_shift && _Back_shift <= _Non_user_size, "invalid argument");

  00024	83 c0 fc	 add	 eax, -4			; fffffffcH
  00027	83 f8 1f	 cmp	 eax, 31			; 0000001fH
  0002a	77 28		 ja	 SHORT $LN14@Change_arr

; 220  :     _Ptr = reinterpret_cast<void*>(_Ptr_container);

  0002c	8b c2		 mov	 eax, edx
$LN15@Change_arr:

; 289  :         ::operator delete(_Ptr, _Bytes);

  0002e	51		 push	 ecx
  0002f	50		 push	 eax
  00030	e8 00 00 00 00	 call	 ??3@YAXPAXI@Z		; operator delete
  00035	83 c4 08	 add	 esp, 8
$LN10@Change_arr:
; File C:\Program Files\Microsoft Visual Studio\2022\Professional\VC\Tools\MSVC\14.44.35207\include\vector

; 2075 :         _Myfirst = _Newvec;

  00038	8b 4d 08	 mov	 ecx, DWORD PTR __Newvec$[ebp]

; 2076 :         _Mylast  = _Newvec + _Newsize;

  0003b	8b 45 0c	 mov	 eax, DWORD PTR __Newsize$[ebp]
  0003e	89 0e		 mov	 DWORD PTR [esi], ecx
  00040	8d 04 81	 lea	 eax, DWORD PTR [ecx+eax*4]
  00043	89 46 04	 mov	 DWORD PTR [esi+4], eax

; 2077 :         _Myend   = _Newvec + _Newcapacity;

  00046	8b 45 10	 mov	 eax, DWORD PTR __Newcapacity$[ebp]
  00049	8d 04 81	 lea	 eax, DWORD PTR [ecx+eax*4]
  0004c	89 46 08	 mov	 DWORD PTR [esi+8], eax
  0004f	5e		 pop	 esi

; 2079 :     }

  00050	5d		 pop	 ebp
  00051	c2 0c 00	 ret	 12			; 0000000cH
$LN14@Change_arr:
; File C:\Program Files\Microsoft Visual Studio\2022\Professional\VC\Tools\MSVC\14.44.35207\include\xmemory

; 219  :     _STL_VERIFY(_Back_shift >= _Min_back_shift && _Back_shift <= _Non_user_size, "invalid argument");

  00054	6a 00		 push	 0
  00056	6a 00		 push	 0
  00058	6a 00		 push	 0
  0005a	6a 00		 push	 0
  0005c	6a 00		 push	 0
  0005e	e8 00 00 00 00	 call	 __invoke_watson
$LN22@Change_arr:
  00063	cc		 int	 3
?_Change_array@?$vector@KV?$allocator@K@std@@@std@@AAEXQAKII@Z ENDP ; std::vector<unsigned long,std::allocator<unsigned long> >::_Change_array
_TEXT	ENDS
; Function compile flags: /Ogtp
; File C:\Program Files\Microsoft Visual Studio\2022\Professional\VC\Tools\MSVC\14.44.35207\include\vector
; File C:\Program Files\Microsoft Visual Studio\2022\Professional\VC\Tools\MSVC\14.44.35207\include\xmemory
; File C:\Program Files\Microsoft Visual Studio\2022\Professional\VC\Tools\MSVC\14.44.35207\include\vector
; File C:\Program Files\Microsoft Visual Studio\2022\Professional\VC\Tools\MSVC\14.44.35207\include\xmemory
; File C:\Program Files\Microsoft Visual Studio\2022\Professional\VC\Tools\MSVC\14.44.35207\include\vector
; File C:\Program Files\Microsoft Visual Studio\2022\Professional\VC\Tools\MSVC\14.44.35207\include\xmemory
; File C:\Program Files\Microsoft Visual Studio\2022\Professional\VC\Tools\MSVC\14.44.35207\include\vector
; File C:\Program Files\Microsoft Visual Studio\2022\Professional\VC\Tools\MSVC\14.44.35207\include\xmemory
; File C:\Program Files\Microsoft Visual Studio\2022\Professional\VC\Tools\MSVC\14.44.35207\include\vector
; File C:\Program Files\Microsoft Visual Studio\2022\Professional\VC\Tools\MSVC\14.44.35207\include\xmemory
; File C:\Program Files\Microsoft Visual Studio\2022\Professional\VC\Tools\MSVC\14.44.35207\include\vector
; File C:\Program Files\Microsoft Visual Studio\2022\Professional\VC\Tools\MSVC\14.44.35207\include\xmemory
; File C:\Program Files\Microsoft Visual Studio\2022\Professional\VC\Tools\MSVC\14.44.35207\include\vector
; File C:\Program Files\Microsoft Visual Studio\2022\Professional\VC\Tools\MSVC\14.44.35207\include\xmemory
; File C:\Program Files\Microsoft Visual Studio\2022\Professional\VC\Tools\MSVC\14.44.35207\include\vector
;	COMDAT ?push_back@?$vector@KV?$allocator@K@std@@@std@@QAEXABK@Z
_TEXT	SEGMENT
__Oldsize$1$ = -12					; size = 4
tv583 = -12						; size = 4
__Newsize$1$ = -8					; size = 4
__Whereptr$1$ = -4					; size = 4
__Val$ = 8						; size = 4
?push_back@?$vector@KV?$allocator@K@std@@@std@@QAEXABK@Z PROC ; std::vector<unsigned long,std::allocator<unsigned long> >::push_back, COMDAT
; _this$ = ecx

; 932  :     _CONSTEXPR20 void push_back(const _Ty& _Val) { // insert element at end, provide strong guarantee

  00000	55		 push	 ebp
  00001	8b ec		 mov	 ebp, esp
  00003	83 ec 0c	 sub	 esp, 12			; 0000000cH
  00006	53		 push	 ebx
  00007	56		 push	 esi
  00008	8b f1		 mov	 esi, ecx
  0000a	57		 push	 edi

; 844  :         if (_Mylast != _My_data._Myend) {

  0000b	8b 4e 04	 mov	 ecx, DWORD PTR [esi+4]
  0000e	8b 56 08	 mov	 edx, DWORD PTR [esi+8]
  00011	89 4d fc	 mov	 DWORD PTR __Whereptr$1$[ebp], ecx
  00014	3b ca		 cmp	 ecx, edx
  00016	74 14		 je	 SHORT $LN4@push_back

; 860  :             _STD _Construct_in_place(*_Mylast, _STD forward<_Valty>(_Val)...);

  00018	8b 45 08	 mov	 eax, DWORD PTR __Val$[ebp]
  0001b	8b 00		 mov	 eax, DWORD PTR [eax]
  0001d	89 01		 mov	 DWORD PTR [ecx], eax

; 861  :         } else {
; 862  :             _ASAN_VECTOR_EXTEND_GUARD(static_cast<size_type>(_Mylast - _My_data._Myfirst) + 1);
; 863  :             _Alty_traits::construct(_Getal(), _Unfancy(_Mylast), _STD forward<_Valty>(_Val)...);
; 864  :             _ASAN_VECTOR_RELEASE_GUARD;
; 865  :         }
; 866  : 
; 867  :         _Orphan_range(_Mylast, _Mylast);
; 868  :         _Ty& _Result = *_Mylast;
; 869  :         ++_Mylast;

  0001f	83 46 04 04	 add	 DWORD PTR [esi+4], 4

; 934  :     }

  00023	5f		 pop	 edi
  00024	5e		 pop	 esi
  00025	5b		 pop	 ebx
  00026	8b e5		 mov	 esp, ebp
  00028	5d		 pop	 ebp
  00029	c2 04 00	 ret	 4
$LN4@push_back:

; 884  :         const auto _Whereoff = static_cast<size_type>(_Whereptr - _Myfirst);

  0002c	8b 3e		 mov	 edi, DWORD PTR [esi]
  0002e	8b c1		 mov	 eax, ecx
  00030	2b c7		 sub	 eax, edi
  00032	c1 f8 02	 sar	 eax, 2
  00035	89 45 f4	 mov	 DWORD PTR __Oldsize$1$[ebp], eax

; 885  :         const auto _Oldsize  = static_cast<size_type>(_Mylast - _Myfirst);
; 886  : 
; 887  :         if (_Oldsize == max_size()) {

  00038	3d ff ff ff 3f	 cmp	 eax, 1073741823		; 3fffffffH
  0003d	0f 84 c0 00 00
	00		 je	 $LN100@push_back

; 1924 :         return static_cast<size_type>(_My_data._Myend - _My_data._Myfirst);

  00043	2b d7		 sub	 edx, edi

; 891  :         const size_type _Newsize = _Oldsize + 1;

  00045	8d 58 01	 lea	 ebx, DWORD PTR [eax+1]

; 1924 :         return static_cast<size_type>(_My_data._Myend - _My_data._Myfirst);

  00048	c1 fa 02	 sar	 edx, 2

; 2011 :         if (_Oldcapacity > _Max - _Oldcapacity / 2) {

  0004b	b8 ff ff ff 3f	 mov	 eax, 1073741823		; 3fffffffH
  00050	8b fa		 mov	 edi, edx

; 891  :         const size_type _Newsize = _Oldsize + 1;

  00052	89 5d f8	 mov	 DWORD PTR __Newsize$1$[ebp], ebx

; 2011 :         if (_Oldcapacity > _Max - _Oldcapacity / 2) {

  00055	d1 ef		 shr	 edi, 1
  00057	2b c7		 sub	 eax, edi
  00059	3b d0		 cmp	 edx, eax
  0005b	76 12		 jbe	 SHORT $LN15@push_back

; 2012 :             return _Max; // geometric growth would overflow

  0005d	b8 fc ff ff ff	 mov	 eax, -4			; fffffffcH
  00062	bb ff ff ff 3f	 mov	 ebx, 1073741823		; 3fffffffH
; File C:\Program Files\Microsoft Visual Studio\2022\Professional\VC\Tools\MSVC\14.44.35207\include\xmemory

; 253  :             return _Allocate_manually_vector_aligned<_Traits>(_Bytes);

  00067	50		 push	 eax
  00068	e8 00 00 00 00	 call	 ??$_Allocate_manually_vector_aligned@U_Default_allocate_traits@std@@@std@@YAPAXI@Z ; std::_Allocate_manually_vector_aligned<std::_Default_allocate_traits>
  0006d	eb 38		 jmp	 SHORT $LN98@push_back
$LN15@push_back:
; File C:\Program Files\Microsoft Visual Studio\2022\Professional\VC\Tools\MSVC\14.44.35207\include\vector

; 2015 :         const size_type _Geometric = _Oldcapacity + _Oldcapacity / 2;

  0006f	8d 04 17	 lea	 eax, DWORD PTR [edi+edx]
; File C:\Program Files\Microsoft Visual Studio\2022\Professional\VC\Tools\MSVC\14.44.35207\include\xmemory

; 117  :         if (_Count > _Max_possible) {

  00072	3b c3		 cmp	 eax, ebx
  00074	0f 43 d8	 cmovae	 ebx, eax
  00077	81 fb ff ff ff
	3f		 cmp	 ebx, 1073741823		; 3fffffffH
  0007d	0f 87 85 00 00
	00		 ja	 $LN101@push_back

; 119  :         }
; 120  :     }
; 121  : 
; 122  :     return _Count * _Ty_size;

  00083	8d 04 9d 00 00
	00 00		 lea	 eax, DWORD PTR [ebx*4]

; 227  :     if (_Bytes == 0) {

  0008a	85 c0		 test	 eax, eax
  0008c	75 04		 jne	 SHORT $LN30@push_back

; 228  :         return nullptr;

  0008e	33 ff		 xor	 edi, edi
  00090	eb 1d		 jmp	 SHORT $LN29@push_back
$LN30@push_back:

; 229  :     }
; 230  : 
; 231  : #if _HAS_CXX20 // TRANSITION, GH-1532
; 232  :     if (_STD is_constant_evaluated()) {
; 233  :         return _Traits::_Allocate(_Bytes);
; 234  :     }
; 235  : #endif // _HAS_CXX20
; 236  : 
; 237  : #ifdef __cpp_aligned_new
; 238  :     if constexpr (_Align > __STDCPP_DEFAULT_NEW_ALIGNMENT__) {
; 239  :         size_t _Passed_align = _Align;
; 240  : #if defined(_M_IX86) || defined(_M_X64)
; 241  :         if (_Bytes >= _Big_allocation_threshold) {
; 242  :             // boost the alignment of big allocations to help autovectorization
; 243  :             _Passed_align = (_STD max)(_Align, _Big_allocation_alignment);
; 244  :         }
; 245  : #endif // defined(_M_IX86) || defined(_M_X64)
; 246  :         return _Traits::_Allocate_aligned(_Bytes, _Passed_align);
; 247  :     } else
; 248  : #endif // defined(__cpp_aligned_new)
; 249  :     {
; 250  : #if defined(_M_IX86) || defined(_M_X64)
; 251  :         if (_Bytes >= _Big_allocation_threshold) {

  00092	3d 00 10 00 00	 cmp	 eax, 4096		; 00001000H
  00097	72 08		 jb	 SHORT $LN31@push_back

; 253  :             return _Allocate_manually_vector_aligned<_Traits>(_Bytes);

  00099	50		 push	 eax
  0009a	e8 00 00 00 00	 call	 ??$_Allocate_manually_vector_aligned@U_Default_allocate_traits@std@@@std@@YAPAXI@Z ; std::_Allocate_manually_vector_aligned<std::_Default_allocate_traits>
  0009f	eb 06		 jmp	 SHORT $LN98@push_back
$LN31@push_back:

; 136  :         return ::operator new(_Bytes);

  000a1	50		 push	 eax
  000a2	e8 00 00 00 00	 call	 ??2@YAPAXI@Z		; operator new
$LN98@push_back:
; File C:\Program Files\Microsoft Visual Studio\2022\Professional\VC\Tools\MSVC\14.44.35207\include\vector

; 900  :         _Alty_traits::construct(_Al, _STD _Unfancy(_Newvec + _Whereoff), _STD forward<_Valty>(_Val)...);

  000a7	8b 4d fc	 mov	 ecx, DWORD PTR __Whereptr$1$[ebp]
  000aa	8b f8		 mov	 edi, eax
  000ac	83 c4 04	 add	 esp, 4
$LN29@push_back:
  000af	8b 45 f4	 mov	 eax, DWORD PTR __Oldsize$1$[ebp]
  000b2	8d 14 87	 lea	 edx, DWORD PTR [edi+eax*4]
  000b5	8b 45 08	 mov	 eax, DWORD PTR __Val$[ebp]
  000b8	89 55 f4	 mov	 DWORD PTR tv583[ebp], edx
  000bb	8b 00		 mov	 eax, DWORD PTR [eax]
  000bd	89 02		 mov	 DWORD PTR [edx], eax

; 901  :         _Constructed_first = _Newvec + _Whereoff;
; 902  : 
; 903  :         if (_Whereptr == _Mylast) { // at back, provide strong guarantee

  000bf	8b 46 04	 mov	 eax, DWORD PTR [esi+4]
  000c2	8b 16		 mov	 edx, DWORD PTR [esi]
  000c4	3b c8		 cmp	 ecx, eax
  000c6	75 04		 jne	 SHORT $LN10@push_back
; File C:\Program Files\Microsoft Visual Studio\2022\Professional\VC\Tools\MSVC\14.44.35207\include\xmemory

; 1992 :             _STD _Copy_memmove(_UFirst, _ULast, _STD _Unfancy(_Dest));

  000c8	8b cf		 mov	 ecx, edi
; File C:\Program Files\Microsoft Visual Studio\2022\Professional\VC\Tools\MSVC\14.44.35207\include\vector

; 909  :         } else { // provide basic guarantee

  000ca	eb 17		 jmp	 SHORT $LN59@push_back
$LN10@push_back:
; File C:\Program Files\Microsoft Visual Studio\2022\Professional\VC\Tools\MSVC\14.44.35207\include\xmemory

; 1992 :             _STD _Copy_memmove(_UFirst, _ULast, _STD _Unfancy(_Dest));

  000cc	57		 push	 edi
  000cd	51		 push	 ecx
  000ce	52		 push	 edx
  000cf	e8 00 00 00 00	 call	 ??$_Copy_memmove@PAKPAK@std@@YAPAKPAK00@Z ; std::_Copy_memmove<unsigned long *,unsigned long *>
; File C:\Program Files\Microsoft Visual Studio\2022\Professional\VC\Tools\MSVC\14.44.35207\include\vector

; 912  :             _STD _Uninitialized_move(_Whereptr, _Mylast, _Newvec + _Whereoff + 1, _Al);

  000d4	8b 4d f4	 mov	 ecx, DWORD PTR tv583[ebp]
; File C:\Program Files\Microsoft Visual Studio\2022\Professional\VC\Tools\MSVC\14.44.35207\include\xmemory

; 1992 :             _STD _Copy_memmove(_UFirst, _ULast, _STD _Unfancy(_Dest));

  000d7	83 c4 0c	 add	 esp, 12			; 0000000cH
  000da	8b 55 fc	 mov	 edx, DWORD PTR __Whereptr$1$[ebp]
; File C:\Program Files\Microsoft Visual Studio\2022\Professional\VC\Tools\MSVC\14.44.35207\include\vector

; 912  :             _STD _Uninitialized_move(_Whereptr, _Mylast, _Newvec + _Whereoff + 1, _Al);

  000dd	83 c1 04	 add	 ecx, 4
; File C:\Program Files\Microsoft Visual Studio\2022\Professional\VC\Tools\MSVC\14.44.35207\include\xmemory

; 1992 :             _STD _Copy_memmove(_UFirst, _ULast, _STD _Unfancy(_Dest));

  000e0	8b 46 04	 mov	 eax, DWORD PTR [esi+4]
$LN59@push_back:
; File C:\Program Files\Microsoft Visual Studio\2022\Professional\VC\Tools\MSVC\14.44.35207\include\vector

; 915  :         _Guard._New_begin = nullptr;

  000e3	51		 push	 ecx
  000e4	50		 push	 eax
  000e5	52		 push	 edx
  000e6	e8 00 00 00 00	 call	 ??$_Copy_memmove@PAKPAK@std@@YAPAKPAK00@Z ; std::_Copy_memmove<unsigned long *,unsigned long *>
  000eb	83 c4 0c	 add	 esp, 12			; 0000000cH

; 916  :         _Change_array(_Newvec, _Newsize, _Newcapacity);

  000ee	8b ce		 mov	 ecx, esi
  000f0	53		 push	 ebx
  000f1	ff 75 f8	 push	 DWORD PTR __Newsize$1$[ebp]
  000f4	57		 push	 edi
  000f5	e8 00 00 00 00	 call	 ?_Change_array@?$vector@KV?$allocator@K@std@@@std@@AAEXQAKII@Z ; std::vector<unsigned long,std::allocator<unsigned long> >::_Change_array

; 934  :     }

  000fa	5f		 pop	 edi
  000fb	5e		 pop	 esi
  000fc	5b		 pop	 ebx
  000fd	8b e5		 mov	 esp, ebp
  000ff	5d		 pop	 ebp
  00100	c2 04 00	 ret	 4
$LN100@push_back:

; 888  :             _Xlength();

  00103	e8 00 00 00 00	 call	 ?_Xlength@?$vector@KV?$allocator@K@std@@@std@@CAXXZ ; std::vector<unsigned long,std::allocator<unsigned long> >::_Xlength
$LN101@push_back:
; File C:\Program Files\Microsoft Visual Studio\2022\Professional\VC\Tools\MSVC\14.44.35207\include\xmemory

; 118  :             _Throw_bad_array_new_length(); // multiply overflow

  00108	e8 00 00 00 00	 call	 ?_Throw_bad_array_new_length@std@@YAXXZ ; std::_Throw_bad_array_new_length
$LN97@push_back:
  0010d	cc		 int	 3
?push_back@?$vector@KV?$allocator@K@std@@@std@@QAEXABK@Z ENDP ; std::vector<unsigned long,std::allocator<unsigned long> >::push_back
_TEXT	ENDS
; Function compile flags: /Ogtp
; File C:\Program Files\Microsoft Visual Studio\2022\Professional\VC\Tools\MSVC\14.44.35207\include\vector
; File C:\Program Files\Microsoft Visual Studio\2022\Professional\VC\Tools\MSVC\14.44.35207\include\xmemory
; File C:\Program Files\Microsoft Visual Studio\2022\Professional\VC\Tools\MSVC\14.44.35207\include\vector
; File C:\Program Files\Microsoft Visual Studio\2022\Professional\VC\Tools\MSVC\14.44.35207\include\xmemory
; File C:\Program Files\Microsoft Visual Studio\2022\Professional\VC\Tools\MSVC\14.44.35207\include\vector
; File C:\Program Files\Microsoft Visual Studio\2022\Professional\VC\Tools\MSVC\14.44.35207\include\xmemory
; File C:\Program Files\Microsoft Visual Studio\2022\Professional\VC\Tools\MSVC\14.44.35207\include\vector
;	COMDAT ??1?$vector@KV?$allocator@K@std@@@std@@QAE@XZ
_TEXT	SEGMENT
??1?$vector@KV?$allocator@K@std@@@std@@QAE@XZ PROC	; std::vector<unsigned long,std::allocator<unsigned long> >::~vector<unsigned long,std::allocator<unsigned long> >, COMDAT
; _this$ = ecx

; 829  :     _CONSTEXPR20 ~vector() noexcept {

  00000	56		 push	 esi
  00001	8b f1		 mov	 esi, ecx

; 2090 :         if (_Myfirst) { // destroy and deallocate old array

  00003	8b 06		 mov	 eax, DWORD PTR [esi]
  00005	85 c0		 test	 eax, eax
  00007	74 40		 je	 SHORT $LN5@vector

; 2091 :             _STD _Destroy_range(_Myfirst, _Mylast, _Al);
; 2092 :             _ASAN_VECTOR_REMOVE;
; 2093 :             _Al.deallocate(_Myfirst, static_cast<size_type>(_Myend - _Myfirst));

  00009	8b 4e 08	 mov	 ecx, DWORD PTR [esi+8]
  0000c	2b c8		 sub	 ecx, eax
; File C:\Program Files\Microsoft Visual Studio\2022\Professional\VC\Tools\MSVC\14.44.35207\include\xmemory

; 985  :         _STD _Deallocate<_New_alignof<_Ty>>(_Ptr, sizeof(_Ty) * _Count);

  0000e	83 e1 fc	 and	 ecx, -4			; fffffffcH

; 284  :         if (_Bytes >= _Big_allocation_threshold) {

  00011	81 f9 00 10 00
	00		 cmp	 ecx, 4096		; 00001000H
  00017	72 12		 jb	 SHORT $LN18@vector

; 205  :     const uintptr_t _Ptr_container   = _Ptr_user[-1];

  00019	8b 50 fc	 mov	 edx, DWORD PTR [eax-4]
  0001c	83 c1 23	 add	 ecx, 35			; 00000023H

; 206  : 
; 207  :     // If the following asserts, it likely means that we are performing
; 208  :     // an aligned delete on memory coming from an unaligned allocation.
; 209  :     _STL_ASSERT(_Ptr_user[-2] == _Big_allocation_sentinel, "invalid argument");
; 210  : 
; 211  :     // Extra paranoia on aligned allocation/deallocation; ensure _Ptr_container is
; 212  :     // in range [_Min_back_shift, _Non_user_size]
; 213  : #ifdef _DEBUG
; 214  :     constexpr uintptr_t _Min_back_shift = 2 * sizeof(void*);
; 215  : #else // ^^^ defined(_DEBUG) / !defined(_DEBUG) vvv
; 216  :     constexpr uintptr_t _Min_back_shift = sizeof(void*);
; 217  : #endif // ^^^ !defined(_DEBUG) ^^^
; 218  :     const uintptr_t _Back_shift = reinterpret_cast<uintptr_t>(_Ptr) - _Ptr_container;

  0001f	2b c2		 sub	 eax, edx

; 219  :     _STL_VERIFY(_Back_shift >= _Min_back_shift && _Back_shift <= _Non_user_size, "invalid argument");

  00021	83 c0 fc	 add	 eax, -4			; fffffffcH
  00024	83 f8 1f	 cmp	 eax, 31			; 0000001fH
  00027	77 22		 ja	 SHORT $LN17@vector

; 220  :     _Ptr = reinterpret_cast<void*>(_Ptr_container);

  00029	8b c2		 mov	 eax, edx
$LN18@vector:

; 289  :         ::operator delete(_Ptr, _Bytes);

  0002b	51		 push	 ecx
  0002c	50		 push	 eax
  0002d	e8 00 00 00 00	 call	 ??3@YAXPAXI@Z		; operator delete
; File C:\Program Files\Microsoft Visual Studio\2022\Professional\VC\Tools\MSVC\14.44.35207\include\vector

; 2095 :             _Myfirst = nullptr;

  00032	c7 06 00 00 00
	00		 mov	 DWORD PTR [esi], 0
; File C:\Program Files\Microsoft Visual Studio\2022\Professional\VC\Tools\MSVC\14.44.35207\include\xmemory

; 289  :         ::operator delete(_Ptr, _Bytes);

  00038	83 c4 08	 add	 esp, 8
; File C:\Program Files\Microsoft Visual Studio\2022\Professional\VC\Tools\MSVC\14.44.35207\include\vector

; 2096 :             _Mylast  = nullptr;

  0003b	c7 46 04 00 00
	00 00		 mov	 DWORD PTR [esi+4], 0

; 2097 :             _Myend   = nullptr;

  00042	c7 46 08 00 00
	00 00		 mov	 DWORD PTR [esi+8], 0
$LN5@vector:
  00049	5e		 pop	 esi

; 835  :     }

  0004a	c3		 ret	 0
$LN17@vector:
; File C:\Program Files\Microsoft Visual Studio\2022\Professional\VC\Tools\MSVC\14.44.35207\include\xmemory

; 219  :     _STL_VERIFY(_Back_shift >= _Min_back_shift && _Back_shift <= _Non_user_size, "invalid argument");

  0004b	6a 00		 push	 0
  0004d	6a 00		 push	 0
  0004f	6a 00		 push	 0
  00051	6a 00		 push	 0
  00053	6a 00		 push	 0
  00055	e8 00 00 00 00	 call	 __invoke_watson
$LN26@vector:
  0005a	cc		 int	 3
??1?$vector@KV?$allocator@K@std@@@std@@QAE@XZ ENDP	; std::vector<unsigned long,std::allocator<unsigned long> >::~vector<unsigned long,std::allocator<unsigned long> >
_TEXT	ENDS
; Function compile flags: /Ogtp
; File C:\Program Files\Microsoft Visual Studio\2022\Professional\VC\Tools\MSVC\14.44.35207\include\xmemory
;	COMDAT ?deallocate@?$allocator@K@std@@QAEXQAKI@Z
_TEXT	SEGMENT
__Ptr$ = 8						; size = 4
__Count$ = 12						; size = 4
?deallocate@?$allocator@K@std@@QAEXQAKI@Z PROC		; std::allocator<unsigned long>::deallocate, COMDAT
; _this$ = ecx

; 982  :     _CONSTEXPR20 void deallocate(_Ty* const _Ptr, const size_t _Count) noexcept /* strengthened */ {

  00000	55		 push	 ebp
  00001	8b ec		 mov	 ebp, esp

; 983  :         _STL_ASSERT(_Ptr != nullptr || _Count == 0, "null pointer cannot point to a block of non-zero size");
; 984  :         // no overflow check on the following multiply; we assume _Allocate did that check
; 985  :         _STD _Deallocate<_New_alignof<_Ty>>(_Ptr, sizeof(_Ty) * _Count);

  00003	8b 45 0c	 mov	 eax, DWORD PTR __Count$[ebp]
  00006	8d 0c 85 00 00
	00 00		 lea	 ecx, DWORD PTR [eax*4]
  0000d	8b 45 08	 mov	 eax, DWORD PTR __Ptr$[ebp]

; 284  :         if (_Bytes >= _Big_allocation_threshold) {

  00010	81 f9 00 10 00
	00		 cmp	 ecx, 4096		; 00001000H
  00016	72 12		 jb	 SHORT $LN11@deallocate

; 205  :     const uintptr_t _Ptr_container   = _Ptr_user[-1];

  00018	8b 50 fc	 mov	 edx, DWORD PTR [eax-4]
  0001b	83 c1 23	 add	 ecx, 35			; 00000023H

; 206  : 
; 207  :     // If the following asserts, it likely means that we are performing
; 208  :     // an aligned delete on memory coming from an unaligned allocation.
; 209  :     _STL_ASSERT(_Ptr_user[-2] == _Big_allocation_sentinel, "invalid argument");
; 210  : 
; 211  :     // Extra paranoia on aligned allocation/deallocation; ensure _Ptr_container is
; 212  :     // in range [_Min_back_shift, _Non_user_size]
; 213  : #ifdef _DEBUG
; 214  :     constexpr uintptr_t _Min_back_shift = 2 * sizeof(void*);
; 215  : #else // ^^^ defined(_DEBUG) / !defined(_DEBUG) vvv
; 216  :     constexpr uintptr_t _Min_back_shift = sizeof(void*);
; 217  : #endif // ^^^ !defined(_DEBUG) ^^^
; 218  :     const uintptr_t _Back_shift = reinterpret_cast<uintptr_t>(_Ptr) - _Ptr_container;

  0001e	2b c2		 sub	 eax, edx

; 219  :     _STL_VERIFY(_Back_shift >= _Min_back_shift && _Back_shift <= _Non_user_size, "invalid argument");

  00020	83 c0 fc	 add	 eax, -4			; fffffffcH
  00023	83 f8 1f	 cmp	 eax, 31			; 0000001fH
  00026	77 10		 ja	 SHORT $LN10@deallocate

; 220  :     _Ptr = reinterpret_cast<void*>(_Ptr_container);

  00028	8b c2		 mov	 eax, edx
$LN11@deallocate:

; 289  :         ::operator delete(_Ptr, _Bytes);

  0002a	51		 push	 ecx
  0002b	50		 push	 eax
  0002c	e8 00 00 00 00	 call	 ??3@YAXPAXI@Z		; operator delete
  00031	83 c4 08	 add	 esp, 8

; 986  :     }

  00034	5d		 pop	 ebp
  00035	c2 08 00	 ret	 8
$LN10@deallocate:

; 219  :     _STL_VERIFY(_Back_shift >= _Min_back_shift && _Back_shift <= _Non_user_size, "invalid argument");

  00038	6a 00		 push	 0
  0003a	6a 00		 push	 0
  0003c	6a 00		 push	 0
  0003e	6a 00		 push	 0
  00040	6a 00		 push	 0
  00042	e8 00 00 00 00	 call	 __invoke_watson
$LN14@deallocate:
  00047	cc		 int	 3
?deallocate@?$allocator@K@std@@QAEXQAKI@Z ENDP		; std::allocator<unsigned long>::deallocate
_TEXT	ENDS
; Function compile flags: /Ogtp
; File C:\Program Files\Microsoft Visual Studio\2022\Professional\VC\Tools\MSVC\14.44.35207\include\xtree
;	COMDAT ?_Throw_tree_length_error@std@@YAXXZ
_TEXT	SEGMENT
?_Throw_tree_length_error@std@@YAXXZ PROC		; std::_Throw_tree_length_error, COMDAT

; 417  :     _Xlength_error("map/set too long");

  00000	68 00 00 00 00	 push	 OFFSET ??_C@_0BB@GCADKGJO@map?1set?5too?5long@
  00005	e8 00 00 00 00	 call	 ?_Xlength_error@std@@YAXPBD@Z ; std::_Xlength_error
$LN3@Throw_tree:
  0000a	cc		 int	 3
?_Throw_tree_length_error@std@@YAXXZ ENDP		; std::_Throw_tree_length_error
_TEXT	ENDS
; Function compile flags: /Ogtp
; File C:\Program Files\Microsoft Visual Studio\2022\Professional\VC\Tools\MSVC\14.44.35207\include\xstring
; File C:\Program Files\Microsoft Visual Studio\2022\Professional\VC\Tools\MSVC\14.44.35207\include\xmemory
; File C:\Program Files\Microsoft Visual Studio\2022\Professional\VC\Tools\MSVC\14.44.35207\include\xstring
; File C:\Program Files\Microsoft Visual Studio\2022\Professional\VC\Tools\MSVC\14.44.35207\include\xmemory
; File C:\Program Files\Microsoft Visual Studio\2022\Professional\VC\Tools\MSVC\14.44.35207\include\xstring
; File C:\Program Files\Microsoft Visual Studio\2022\Professional\VC\Tools\MSVC\14.44.35207\include\xmemory
; File C:\Program Files\Microsoft Visual Studio\2022\Professional\VC\Tools\MSVC\14.44.35207\include\xstring
;	COMDAT ??1?$basic_string@DU?$char_traits@D@std@@V?$allocator@D@2@@std@@QAE@XZ
_TEXT	SEGMENT
??1?$basic_string@DU?$char_traits@D@std@@V?$allocator@D@2@@std@@QAE@XZ PROC ; std::basic_string<char,std::char_traits<char>,std::allocator<char> >::~basic_string<char,std::char_traits<char>,std::allocator<char> >, COMDAT
; _this$ = ecx

; 1382 :     _CONSTEXPR20 ~basic_string() noexcept {

  00000	56		 push	 esi
  00001	8b f1		 mov	 esi, ecx

; 453  :         return _Myres > _Small_string_capacity;

  00003	8b 4e 14	 mov	 ecx, DWORD PTR [esi+20]
  00006	83 f9 0f	 cmp	 ecx, 15			; 0000000fH

; 3083 :         if (_My_data._Large_mode_engaged()) {

  00009	76 27		 jbe	 SHORT $LN19@basic_stri
; File C:\Program Files\Microsoft Visual Studio\2022\Professional\VC\Tools\MSVC\14.44.35207\include\xmemory

; 985  :         _STD _Deallocate<_New_alignof<_Ty>>(_Ptr, sizeof(_Ty) * _Count);

  0000b	8b 06		 mov	 eax, DWORD PTR [esi]
; File C:\Program Files\Microsoft Visual Studio\2022\Professional\VC\Tools\MSVC\14.44.35207\include\xstring

; 852  :         _Al.deallocate(_Old_ptr, _Capacity + 1); // +1 for null terminator

  0000d	41		 inc	 ecx
; File C:\Program Files\Microsoft Visual Studio\2022\Professional\VC\Tools\MSVC\14.44.35207\include\xmemory

; 284  :         if (_Bytes >= _Big_allocation_threshold) {

  0000e	81 f9 00 10 00
	00		 cmp	 ecx, 4096		; 00001000H
  00014	72 12		 jb	 SHORT $LN24@basic_stri

; 205  :     const uintptr_t _Ptr_container   = _Ptr_user[-1];

  00016	8b 50 fc	 mov	 edx, DWORD PTR [eax-4]
  00019	83 c1 23	 add	 ecx, 35			; 00000023H

; 206  : 
; 207  :     // If the following asserts, it likely means that we are performing
; 208  :     // an aligned delete on memory coming from an unaligned allocation.
; 209  :     _STL_ASSERT(_Ptr_user[-2] == _Big_allocation_sentinel, "invalid argument");
; 210  : 
; 211  :     // Extra paranoia on aligned allocation/deallocation; ensure _Ptr_container is
; 212  :     // in range [_Min_back_shift, _Non_user_size]
; 213  : #ifdef _DEBUG
; 214  :     constexpr uintptr_t _Min_back_shift = 2 * sizeof(void*);
; 215  : #else // ^^^ defined(_DEBUG) / !defined(_DEBUG) vvv
; 216  :     constexpr uintptr_t _Min_back_shift = sizeof(void*);
; 217  : #endif // ^^^ !defined(_DEBUG) ^^^
; 218  :     const uintptr_t _Back_shift = reinterpret_cast<uintptr_t>(_Ptr) - _Ptr_container;

  0001c	2b c2		 sub	 eax, edx

; 219  :     _STL_VERIFY(_Back_shift >= _Min_back_shift && _Back_shift <= _Non_user_size, "invalid argument");

  0001e	83 c0 fc	 add	 eax, -4			; fffffffcH
  00021	83 f8 1f	 cmp	 eax, 31			; 0000001fH
  00024	77 1f		 ja	 SHORT $LN23@basic_stri

; 220  :     _Ptr = reinterpret_cast<void*>(_Ptr_container);

  00026	8b c2		 mov	 eax, edx
$LN24@basic_stri:

; 289  :         ::operator delete(_Ptr, _Bytes);

  00028	51		 push	 ecx
  00029	50		 push	 eax
  0002a	e8 00 00 00 00	 call	 ??3@YAXPAXI@Z		; operator delete
  0002f	83 c4 08	 add	 esp, 8
$LN19@basic_stri:
; File C:\Program Files\Microsoft Visual Studio\2022\Professional\VC\Tools\MSVC\14.44.35207\include\xstring

; 3090 :         _My_data._Mysize = 0;

  00032	c7 46 10 00 00
	00 00		 mov	 DWORD PTR [esi+16], 0

; 3091 :         _My_data._Myres  = _Small_string_capacity;

  00039	c7 46 14 0f 00
	00 00		 mov	 DWORD PTR [esi+20], 15	; 0000000fH

; 3092 :         // the _Traits::assign is last so the codegen doesn't think the char write can alias this
; 3093 :         _Traits::assign(_My_data._Bx._Buf[0], _Elem());

  00040	c6 06 00	 mov	 BYTE PTR [esi], 0
  00043	5e		 pop	 esi

; 1390 :     }

  00044	c3		 ret	 0
$LN23@basic_stri:
; File C:\Program Files\Microsoft Visual Studio\2022\Professional\VC\Tools\MSVC\14.44.35207\include\xmemory

; 219  :     _STL_VERIFY(_Back_shift >= _Min_back_shift && _Back_shift <= _Non_user_size, "invalid argument");

  00045	6a 00		 push	 0
  00047	6a 00		 push	 0
  00049	6a 00		 push	 0
  0004b	6a 00		 push	 0
  0004d	6a 00		 push	 0
  0004f	e8 00 00 00 00	 call	 __invoke_watson
$LN33@basic_stri:
  00054	cc		 int	 3
??1?$basic_string@DU?$char_traits@D@std@@V?$allocator@D@2@@std@@QAE@XZ ENDP ; std::basic_string<char,std::char_traits<char>,std::allocator<char> >::~basic_string<char,std::char_traits<char>,std::allocator<char> >
_TEXT	ENDS
; Function compile flags: /Ogtp
; File C:\Program Files\Microsoft Visual Studio\2022\Professional\VC\Tools\MSVC\14.44.35207\include\xstring
;	COMDAT ?_Xlen_string@std@@YAXXZ
_TEXT	SEGMENT
?_Xlen_string@std@@YAXXZ PROC				; std::_Xlen_string, COMDAT

; 531  :     _Xlength_error("string too long");

  00000	68 00 00 00 00	 push	 OFFSET ??_C@_0BA@JFNIOLAK@string?5too?5long@
  00005	e8 00 00 00 00	 call	 ?_Xlength_error@std@@YAXPBD@Z ; std::_Xlength_error
$LN3@Xlen_strin:
  0000a	cc		 int	 3
?_Xlen_string@std@@YAXXZ ENDP				; std::_Xlen_string
_TEXT	ENDS
; Function compile flags: /Ogtp
; File C:\Program Files\Microsoft Visual Studio\2022\Professional\VC\Tools\MSVC\14.44.35207\include\xmemory
;	COMDAT ?_Throw_bad_array_new_length@std@@YAXXZ
_TEXT	SEGMENT
$T1 = -12						; size = 12
?_Throw_bad_array_new_length@std@@YAXXZ PROC		; std::_Throw_bad_array_new_length, COMDAT

; 107  : [[noreturn]] inline void _Throw_bad_array_new_length() {

  00000	55		 push	 ebp
  00001	8b ec		 mov	 ebp, esp
  00003	83 ec 0c	 sub	 esp, 12			; 0000000cH

; 108  :     _THROW(bad_array_new_length{});

  00006	8d 4d f4	 lea	 ecx, DWORD PTR $T1[ebp]
  00009	e8 00 00 00 00	 call	 ??0bad_array_new_length@std@@QAE@XZ ; std::bad_array_new_length::bad_array_new_length
  0000e	68 00 00 00 00	 push	 OFFSET __TI3?AVbad_array_new_length@std@@
  00013	8d 45 f4	 lea	 eax, DWORD PTR $T1[ebp]
  00016	50		 push	 eax
  00017	e8 00 00 00 00	 call	 __CxxThrowException@8
$LN3@Throw_bad_:
  0001c	cc		 int	 3
?_Throw_bad_array_new_length@std@@YAXXZ ENDP		; std::_Throw_bad_array_new_length
_TEXT	ENDS
; Function compile flags: /Ogtp
; File C:\Program Files\Microsoft Visual Studio\2022\Professional\VC\Tools\MSVC\14.44.35207\include\vcruntime_exception.h
;	COMDAT ??_Gbad_array_new_length@std@@UAEPAXI@Z
_TEXT	SEGMENT
___flags$ = 8						; size = 4
??_Gbad_array_new_length@std@@UAEPAXI@Z PROC		; std::bad_array_new_length::`scalar deleting destructor', COMDAT
; _this$ = ecx
  00000	55		 push	 ebp
  00001	8b ec		 mov	 ebp, esp

; 90   :     {

  00003	56		 push	 esi
  00004	8b f1		 mov	 esi, ecx

; 91   :         __std_exception_destroy(&_Data);

  00006	8d 46 04	 lea	 eax, DWORD PTR [esi+4]
  00009	c7 06 00 00 00
	00		 mov	 DWORD PTR [esi], OFFSET ??_7exception@std@@6B@
  0000f	50		 push	 eax
  00010	e8 00 00 00 00	 call	 ___std_exception_destroy
  00015	83 c4 04	 add	 esp, 4
  00018	f6 45 08 01	 test	 BYTE PTR ___flags$[ebp], 1
  0001c	74 0b		 je	 SHORT $LN18@scalar
  0001e	6a 0c		 push	 12			; 0000000cH
  00020	56		 push	 esi
  00021	e8 00 00 00 00	 call	 ??3@YAXPAXI@Z		; operator delete
  00026	83 c4 08	 add	 esp, 8
$LN18@scalar:
  00029	8b c6		 mov	 eax, esi
  0002b	5e		 pop	 esi
  0002c	5d		 pop	 ebp
  0002d	c2 04 00	 ret	 4
??_Gbad_array_new_length@std@@UAEPAXI@Z ENDP		; std::bad_array_new_length::`scalar deleting destructor'
_TEXT	ENDS
; Function compile flags: /Ogtp
; File C:\Program Files\Microsoft Visual Studio\2022\Professional\VC\Tools\MSVC\14.44.35207\include\vcruntime_exception.h
;	COMDAT ??0bad_array_new_length@std@@QAE@ABV01@@Z
_TEXT	SEGMENT
___that$ = 8						; size = 4
??0bad_array_new_length@std@@QAE@ABV01@@Z PROC		; std::bad_array_new_length::bad_array_new_length, COMDAT
; _this$ = ecx
  00000	55		 push	 ebp
  00001	8b ec		 mov	 ebp, esp

; 73   :     {

  00003	56		 push	 esi
  00004	8b f1		 mov	 esi, ecx
  00006	0f 57 c0	 xorps	 xmm0, xmm0

; 72   :         : _Data()

  00009	8d 46 04	 lea	 eax, DWORD PTR [esi+4]

; 74   :         __std_exception_copy(&_Other._Data, &_Data);

  0000c	50		 push	 eax
  0000d	c7 06 00 00 00
	00		 mov	 DWORD PTR [esi], OFFSET ??_7exception@std@@6B@
  00013	66 0f d6 00	 movq	 QWORD PTR [eax], xmm0
  00017	8b 45 08	 mov	 eax, DWORD PTR ___that$[ebp]
  0001a	83 c0 04	 add	 eax, 4
  0001d	50		 push	 eax
  0001e	e8 00 00 00 00	 call	 ___std_exception_copy
  00023	83 c4 08	 add	 esp, 8
  00026	c7 06 00 00 00
	00		 mov	 DWORD PTR [esi], OFFSET ??_7bad_array_new_length@std@@6B@
  0002c	8b c6		 mov	 eax, esi
  0002e	5e		 pop	 esi
  0002f	5d		 pop	 ebp
  00030	c2 04 00	 ret	 4
??0bad_array_new_length@std@@QAE@ABV01@@Z ENDP		; std::bad_array_new_length::bad_array_new_length
_TEXT	ENDS
; Function compile flags: /Ogtp
; File C:\Program Files\Microsoft Visual Studio\2022\Professional\VC\Tools\MSVC\14.44.35207\include\vcruntime_exception.h
;	COMDAT ??1bad_array_new_length@std@@UAE@XZ
_TEXT	SEGMENT
??1bad_array_new_length@std@@UAE@XZ PROC		; std::bad_array_new_length::~bad_array_new_length, COMDAT
; _this$ = ecx

; 91   :         __std_exception_destroy(&_Data);

  00000	8d 41 04	 lea	 eax, DWORD PTR [ecx+4]
  00003	c7 01 00 00 00
	00		 mov	 DWORD PTR [ecx], OFFSET ??_7exception@std@@6B@
  00009	50		 push	 eax
  0000a	e8 00 00 00 00	 call	 ___std_exception_destroy
  0000f	59		 pop	 ecx
  00010	c3		 ret	 0
??1bad_array_new_length@std@@UAE@XZ ENDP		; std::bad_array_new_length::~bad_array_new_length
_TEXT	ENDS
; Function compile flags: /Ogtp
; File C:\Program Files\Microsoft Visual Studio\2022\Professional\VC\Tools\MSVC\14.44.35207\include\vcruntime_exception.h
;	COMDAT ??0bad_array_new_length@std@@QAE@XZ
_TEXT	SEGMENT
??0bad_array_new_length@std@@QAE@XZ PROC		; std::bad_array_new_length::bad_array_new_length, COMDAT
; _this$ = ecx

; 144  :     {

  00000	0f 57 c0	 xorps	 xmm0, xmm0

; 145  :     }

  00003	8b c1		 mov	 eax, ecx

; 66   :         : _Data()

  00005	66 0f d6 41 04	 movq	 QWORD PTR [ecx+4], xmm0

; 67   :     {
; 68   :         _Data._What = _Message;

  0000a	c7 41 04 00 00
	00 00		 mov	 DWORD PTR [ecx+4], OFFSET ??_C@_0BF@KINCDENJ@bad?5array?5new?5length@

; 144  :     {

  00011	c7 01 00 00 00
	00		 mov	 DWORD PTR [ecx], OFFSET ??_7bad_array_new_length@std@@6B@

; 145  :     }

  00017	c3		 ret	 0
??0bad_array_new_length@std@@QAE@XZ ENDP		; std::bad_array_new_length::bad_array_new_length
_TEXT	ENDS
; Function compile flags: /Ogtp
; File C:\Program Files\Microsoft Visual Studio\2022\Professional\VC\Tools\MSVC\14.44.35207\include\vcruntime_exception.h
;	COMDAT ??_Gbad_alloc@std@@UAEPAXI@Z
_TEXT	SEGMENT
___flags$ = 8						; size = 4
??_Gbad_alloc@std@@UAEPAXI@Z PROC			; std::bad_alloc::`scalar deleting destructor', COMDAT
; _this$ = ecx
  00000	55		 push	 ebp
  00001	8b ec		 mov	 ebp, esp

; 90   :     {

  00003	56		 push	 esi
  00004	8b f1		 mov	 esi, ecx

; 91   :         __std_exception_destroy(&_Data);

  00006	8d 46 04	 lea	 eax, DWORD PTR [esi+4]
  00009	c7 06 00 00 00
	00		 mov	 DWORD PTR [esi], OFFSET ??_7exception@std@@6B@
  0000f	50		 push	 eax
  00010	e8 00 00 00 00	 call	 ___std_exception_destroy
  00015	83 c4 04	 add	 esp, 4
  00018	f6 45 08 01	 test	 BYTE PTR ___flags$[ebp], 1
  0001c	74 0b		 je	 SHORT $LN13@scalar
  0001e	6a 0c		 push	 12			; 0000000cH
  00020	56		 push	 esi
  00021	e8 00 00 00 00	 call	 ??3@YAXPAXI@Z		; operator delete
  00026	83 c4 08	 add	 esp, 8
$LN13@scalar:
  00029	8b c6		 mov	 eax, esi
  0002b	5e		 pop	 esi
  0002c	5d		 pop	 ebp
  0002d	c2 04 00	 ret	 4
??_Gbad_alloc@std@@UAEPAXI@Z ENDP			; std::bad_alloc::`scalar deleting destructor'
_TEXT	ENDS
; Function compile flags: /Ogtp
; File C:\Program Files\Microsoft Visual Studio\2022\Professional\VC\Tools\MSVC\14.44.35207\include\vcruntime_exception.h
;	COMDAT ??0bad_alloc@std@@QAE@ABV01@@Z
_TEXT	SEGMENT
___that$ = 8						; size = 4
??0bad_alloc@std@@QAE@ABV01@@Z PROC			; std::bad_alloc::bad_alloc, COMDAT
; _this$ = ecx
  00000	55		 push	 ebp
  00001	8b ec		 mov	 ebp, esp

; 73   :     {

  00003	56		 push	 esi
  00004	8b f1		 mov	 esi, ecx
  00006	0f 57 c0	 xorps	 xmm0, xmm0

; 72   :         : _Data()

  00009	8d 46 04	 lea	 eax, DWORD PTR [esi+4]

; 74   :         __std_exception_copy(&_Other._Data, &_Data);

  0000c	50		 push	 eax
  0000d	c7 06 00 00 00
	00		 mov	 DWORD PTR [esi], OFFSET ??_7exception@std@@6B@
  00013	66 0f d6 00	 movq	 QWORD PTR [eax], xmm0
  00017	8b 45 08	 mov	 eax, DWORD PTR ___that$[ebp]
  0001a	83 c0 04	 add	 eax, 4
  0001d	50		 push	 eax
  0001e	e8 00 00 00 00	 call	 ___std_exception_copy
  00023	83 c4 08	 add	 esp, 8
  00026	c7 06 00 00 00
	00		 mov	 DWORD PTR [esi], OFFSET ??_7bad_alloc@std@@6B@
  0002c	8b c6		 mov	 eax, esi
  0002e	5e		 pop	 esi
  0002f	5d		 pop	 ebp
  00030	c2 04 00	 ret	 4
??0bad_alloc@std@@QAE@ABV01@@Z ENDP			; std::bad_alloc::bad_alloc
_TEXT	ENDS
; Function compile flags: /Ogtp
; File C:\Program Files\Microsoft Visual Studio\2022\Professional\VC\Tools\MSVC\14.44.35207\include\vcruntime_exception.h
;	COMDAT ??_Gexception@std@@UAEPAXI@Z
_TEXT	SEGMENT
___flags$ = 8						; size = 4
??_Gexception@std@@UAEPAXI@Z PROC			; std::exception::`scalar deleting destructor', COMDAT
; _this$ = ecx
  00000	55		 push	 ebp
  00001	8b ec		 mov	 ebp, esp

; 90   :     {

  00003	56		 push	 esi
  00004	8b f1		 mov	 esi, ecx

; 91   :         __std_exception_destroy(&_Data);

  00006	8d 46 04	 lea	 eax, DWORD PTR [esi+4]
  00009	c7 06 00 00 00
	00		 mov	 DWORD PTR [esi], OFFSET ??_7exception@std@@6B@
  0000f	50		 push	 eax
  00010	e8 00 00 00 00	 call	 ___std_exception_destroy
  00015	83 c4 04	 add	 esp, 4
  00018	f6 45 08 01	 test	 BYTE PTR ___flags$[ebp], 1
  0001c	74 0b		 je	 SHORT $LN8@scalar
  0001e	6a 0c		 push	 12			; 0000000cH
  00020	56		 push	 esi
  00021	e8 00 00 00 00	 call	 ??3@YAXPAXI@Z		; operator delete
  00026	83 c4 08	 add	 esp, 8
$LN8@scalar:
  00029	8b c6		 mov	 eax, esi
  0002b	5e		 pop	 esi
  0002c	5d		 pop	 ebp
  0002d	c2 04 00	 ret	 4
??_Gexception@std@@UAEPAXI@Z ENDP			; std::exception::`scalar deleting destructor'
_TEXT	ENDS
; Function compile flags: /Ogtp
; File C:\Program Files\Microsoft Visual Studio\2022\Professional\VC\Tools\MSVC\14.44.35207\include\vcruntime_exception.h
;	COMDAT ?what@exception@std@@UBEPBDXZ
_TEXT	SEGMENT
?what@exception@std@@UBEPBDXZ PROC			; std::exception::what, COMDAT
; _this$ = ecx

; 96   :         return _Data._What ? _Data._What : "Unknown exception";

  00000	8b 49 04	 mov	 ecx, DWORD PTR [ecx+4]
  00003	b8 00 00 00 00	 mov	 eax, OFFSET ??_C@_0BC@EOODALEL@Unknown?5exception@
  00008	85 c9		 test	 ecx, ecx
  0000a	0f 45 c1	 cmovne	 eax, ecx

; 97   :     }

  0000d	c3		 ret	 0
?what@exception@std@@UBEPBDXZ ENDP			; std::exception::what
_TEXT	ENDS
; Function compile flags: /Ogtp
; File C:\Program Files\Microsoft Visual Studio\2022\Professional\VC\Tools\MSVC\14.44.35207\include\vcruntime_exception.h
;	COMDAT ??1exception@std@@UAE@XZ
_TEXT	SEGMENT
??1exception@std@@UAE@XZ PROC				; std::exception::~exception, COMDAT
; _this$ = ecx

; 91   :         __std_exception_destroy(&_Data);

  00000	8d 41 04	 lea	 eax, DWORD PTR [ecx+4]
  00003	c7 01 00 00 00
	00		 mov	 DWORD PTR [ecx], OFFSET ??_7exception@std@@6B@
  00009	50		 push	 eax
  0000a	e8 00 00 00 00	 call	 ___std_exception_destroy
  0000f	59		 pop	 ecx

; 92   :     }

  00010	c3		 ret	 0
??1exception@std@@UAE@XZ ENDP				; std::exception::~exception
_TEXT	ENDS
; Function compile flags: /Ogtp
; File C:\Program Files\Microsoft Visual Studio\2022\Professional\VC\Tools\MSVC\14.44.35207\include\vcruntime_exception.h
;	COMDAT ??0exception@std@@QAE@ABV01@@Z
_TEXT	SEGMENT
__Other$ = 8						; size = 4
??0exception@std@@QAE@ABV01@@Z PROC			; std::exception::exception, COMDAT
; _this$ = ecx

; 73   :     {

  00000	55		 push	 ebp
  00001	8b ec		 mov	 ebp, esp
  00003	56		 push	 esi
  00004	8b f1		 mov	 esi, ecx
  00006	0f 57 c0	 xorps	 xmm0, xmm0
  00009	8d 46 04	 lea	 eax, DWORD PTR [esi+4]

; 74   :         __std_exception_copy(&_Other._Data, &_Data);

  0000c	50		 push	 eax
  0000d	c7 06 00 00 00
	00		 mov	 DWORD PTR [esi], OFFSET ??_7exception@std@@6B@
  00013	66 0f d6 00	 movq	 QWORD PTR [eax], xmm0
  00017	8b 45 08	 mov	 eax, DWORD PTR __Other$[ebp]
  0001a	83 c0 04	 add	 eax, 4
  0001d	50		 push	 eax
  0001e	e8 00 00 00 00	 call	 ___std_exception_copy
  00023	83 c4 08	 add	 esp, 8

; 75   :     }

  00026	8b c6		 mov	 eax, esi
  00028	5e		 pop	 esi
  00029	5d		 pop	 ebp
  0002a	c2 04 00	 ret	 4
??0exception@std@@QAE@ABV01@@Z ENDP			; std::exception::exception
_TEXT	ENDS
; Function compile flags: /Ogtp
; File C:\Program Files\Microsoft Visual Studio\2022\Professional\VC\Tools\MSVC\14.44.35207\atlmfc\include\cstringt.h
; File C:\Program Files\Microsoft Visual Studio\2022\Professional\VC\Tools\MSVC\14.44.35207\atlmfc\include\atlsimpstr.h
; File C:\Program Files\Microsoft Visual Studio\2022\Professional\VC\Tools\MSVC\14.44.35207\atlmfc\include\cstringt.h
;	COMDAT ??1?$CStringT@DV?$StrTraitMFC@DV?$ChTraitsCRT@D@ATL@@@@@ATL@@QAE@XZ
_TEXT	SEGMENT
??1?$CStringT@DV?$StrTraitMFC@DV?$ChTraitsCRT@D@ATL@@@@@ATL@@QAE@XZ PROC ; ATL::CStringT<char,StrTraitMFC<char,ATL::ChTraitsCRT<char> > >::~CStringT<char,StrTraitMFC<char,ATL::ChTraitsCRT<char> > >, COMDAT
; _this$ = ecx
; File C:\Program Files\Microsoft Visual Studio\2022\Professional\VC\Tools\MSVC\14.44.35207\atlmfc\include\atlsimpstr.h

; 804  : 		return( reinterpret_cast< CStringData* >( m_pszData )-1 );

  00000	8b 11		 mov	 edx, DWORD PTR [ecx]

; 92   : 		if( _InterlockedDecrement( &nRefs ) <= 0 )

  00002	83 c8 ff	 or	 eax, -1

; 804  : 		return( reinterpret_cast< CStringData* >( m_pszData )-1 );

  00005	83 ea 10	 sub	 edx, 16			; 00000010H

; 92   : 		if( _InterlockedDecrement( &nRefs ) <= 0 )

  00008	f0 0f c1 42 0c	 lock	  xadd	 DWORD PTR [edx+12], eax
  0000d	48		 dec	 eax
  0000e	85 c0		 test	 eax, eax
  00010	7f 08		 jg	 SHORT $LN8@CStringT

; 93   : 		{
; 94   : 			pStringMgr->Free( this );

  00012	8b 0a		 mov	 ecx, DWORD PTR [edx]
  00014	52		 push	 edx
  00015	8b 01		 mov	 eax, DWORD PTR [ecx]
  00017	ff 50 04	 call	 DWORD PTR [eax+4]
$LN8@CStringT:
; File C:\Program Files\Microsoft Visual Studio\2022\Professional\VC\Tools\MSVC\14.44.35207\atlmfc\include\cstringt.h

; 1303 : 	}

  0001a	c3		 ret	 0
??1?$CStringT@DV?$StrTraitMFC@DV?$ChTraitsCRT@D@ATL@@@@@ATL@@QAE@XZ ENDP ; ATL::CStringT<char,StrTraitMFC<char,ATL::ChTraitsCRT<char> > >::~CStringT<char,StrTraitMFC<char,ATL::ChTraitsCRT<char> > >
_TEXT	ENDS
; Function compile flags: /Ogtp
; File C:\Program Files (x86)\Windows Kits\10\Include\10.0.26100.0\ucrt\stdio.h
;	COMDAT _sprintf
_TEXT	SEGMENT
__Buffer$ = 8						; size = 4
__Format$ = 12						; size = 4
_sprintf PROC						; COMDAT

; 1771 :     {

  00000	55		 push	 ebp
  00001	8b ec		 mov	 ebp, esp

; 1392 :         int const _Result = __stdio_common_vsprintf(

  00003	8d 45 10	 lea	 eax, DWORD PTR __Format$[ebp+4]
  00006	50		 push	 eax
  00007	6a 00		 push	 0
  00009	ff 75 0c	 push	 DWORD PTR __Format$[ebp]
  0000c	6a ff		 push	 -1
  0000e	ff 75 08	 push	 DWORD PTR __Buffer$[ebp]
  00011	e8 00 00 00 00	 call	 ___local_stdio_printf_options
  00016	8b 08		 mov	 ecx, DWORD PTR [eax]
  00018	ff 70 04	 push	 DWORD PTR [eax+4]
  0001b	83 c9 01	 or	 ecx, 1
  0001e	51		 push	 ecx
  0001f	e8 00 00 00 00	 call	 ___stdio_common_vsprintf

; 1393 :             _CRT_INTERNAL_LOCAL_PRINTF_OPTIONS | _CRT_INTERNAL_PRINTF_LEGACY_VSPRINTF_NULL_TERMINATION,
; 1394 :             _Buffer, _BufferCount, _Format, _Locale, _ArgList);
; 1395 : 
; 1396 :         return _Result < 0 ? -1 : _Result;

  00024	83 c9 ff	 or	 ecx, -1
  00027	83 c4 1c	 add	 esp, 28			; 0000001cH
  0002a	85 c0		 test	 eax, eax
  0002c	0f 48 c1	 cmovs	 eax, ecx

; 1772 :         int _Result;
; 1773 :         va_list _ArgList;
; 1774 :         __crt_va_start(_ArgList, _Format);
; 1775 : 
; 1776 :         _Result = _vsprintf_l(_Buffer, _Format, NULL, _ArgList);
; 1777 : 
; 1778 :         __crt_va_end(_ArgList);
; 1779 :         return _Result;
; 1780 :     }

  0002f	5d		 pop	 ebp
  00030	c3		 ret	 0
_sprintf ENDP
_TEXT	ENDS
; Function compile flags: /Ogtp
; File C:\Program Files (x86)\Windows Kits\10\Include\10.0.26100.0\ucrt\corecrt_stdio_config.h
;	COMDAT ___local_stdio_printf_options
_TEXT	SEGMENT
___local_stdio_printf_options PROC			; COMDAT

; 91   :         static unsigned __int64 _OptionsStorage;
; 92   :         return &_OptionsStorage;

  00000	b8 00 00 00 00	 mov	 eax, OFFSET ?_OptionsStorage@?1??__local_stdio_printf_options@@9@4_KA ; `__local_stdio_printf_options'::`2'::_OptionsStorage

; 93   :     }

  00005	c3		 ret	 0
___local_stdio_printf_options ENDP
_TEXT	ENDS
; Function compile flags: /Ogtp
; File C:\IAGOS\server\v18\Source\Source\_Common\RainbowRace.cpp
;	COMDAT ?__empty_global_delete@@YAXPAXI@Z
_TEXT	SEGMENT
___formal$ = 8						; size = 4
___formal$ = 12						; size = 4
?__empty_global_delete@@YAXPAXI@Z PROC			; __empty_global_delete, COMDAT

  00000	c2 00 00	 ret	 0
?__empty_global_delete@@YAXPAXI@Z ENDP			; __empty_global_delete
_TEXT	ENDS
; Function compile flags: /Ogtp
; File C:\IAGOS\server\v18\Source\Source\_Common\RainbowRace.cpp
;	COMDAT ?__empty_global_delete@@YAXPAX@Z
_TEXT	SEGMENT
___formal$ = 8						; size = 4
?__empty_global_delete@@YAXPAX@Z PROC			; __empty_global_delete, COMDAT

  00000	c2 00 00	 ret	 0
?__empty_global_delete@@YAXPAX@Z ENDP			; __empty_global_delete
_TEXT	ENDS
END
