; Listing generated by Microsoft (R) Optimizing Compiler Version 19.44.35225.0 

	TITLE	C:\IAGOS\server\v18\Source\Output\WorldServer\Release\randomoption.obj
	.686P
	.XMM
	include listing.inc
	.model	flat

INCLUDELIB LIBCMT
INCLUDELIB OLDNAMES

PUBLIC	?__empty_global_delete@@YAXPAX@Z		; __empty_global_delete
PUBLIC	?__empty_global_delete@@YAXPAXI@Z		; __empty_global_delete
PUBLIC	??0exception@std@@QAE@ABV01@@Z			; std::exception::exception
PUBLIC	??1exception@std@@UAE@XZ			; std::exception::~exception
PUBLIC	?what@exception@std@@UBEPBDXZ			; std::exception::what
PUBLIC	??_Gexception@std@@UAEPAXI@Z			; std::exception::`scalar deleting destructor'
PUBLIC	??0bad_alloc@std@@QAE@ABV01@@Z			; std::bad_alloc::bad_alloc
PUBLIC	??_Gbad_alloc@std@@UAEPAXI@Z			; std::bad_alloc::`scalar deleting destructor'
PUBLIC	??0bad_array_new_length@std@@QAE@XZ		; std::bad_array_new_length::bad_array_new_length
PUBLIC	??1bad_array_new_length@std@@UAE@XZ		; std::bad_array_new_length::~bad_array_new_length
PUBLIC	??0bad_array_new_length@std@@QAE@ABV01@@Z	; std::bad_array_new_length::bad_array_new_length
PUBLIC	??_Gbad_array_new_length@std@@UAEPAXI@Z		; std::bad_array_new_length::`scalar deleting destructor'
PUBLIC	?_Throw_bad_array_new_length@std@@YAXXZ		; std::_Throw_bad_array_new_length
PUBLIC	??$_Allocate_manually_vector_aligned@U_Default_allocate_traits@std@@@std@@YAPAXI@Z ; std::_Allocate_manually_vector_aligned<std::_Default_allocate_traits>
PUBLIC	??1?$vector@U_AdjData@@V?$allocator@U_AdjData@@@std@@@std@@QAE@XZ ; std::vector<_AdjData,std::allocator<_AdjData> >::~vector<_AdjData,std::allocator<_AdjData> >
PUBLIC	?_Buy_raw@?$vector@U_AdjData@@V?$allocator@U_AdjData@@@std@@@std@@AAEXI@Z ; std::vector<_AdjData,std::allocator<_AdjData> >::_Buy_raw
PUBLIC	?_Tidy@?$vector@U_AdjData@@V?$allocator@U_AdjData@@@std@@@std@@AAEXXZ ; std::vector<_AdjData,std::allocator<_AdjData> >::_Tidy
PUBLIC	?_Xlength@?$vector@U_AdjData@@V?$allocator@U_AdjData@@@std@@@std@@CAXXZ ; std::vector<_AdjData,std::allocator<_AdjData> >::_Xlength
PUBLIC	??1_RANDOM_OPTION@@QAE@XZ			; _RANDOM_OPTION::~_RANDOM_OPTION
PUBLIC	??0CRandomOptionProperty@@QAE@XZ		; CRandomOptionProperty::CRandomOptionProperty
PUBLIC	??1CRandomOptionProperty@@UAE@XZ		; CRandomOptionProperty::~CRandomOptionProperty
PUBLIC	?GetInstance@CRandomOptionProperty@@SAPAV1@XZ	; CRandomOptionProperty::GetInstance
PUBLIC	?LoadScript@CRandomOptionProperty@@QAEHPBD@Z	; CRandomOptionProperty::LoadScript
PUBLIC	?LoadScriptBlock@CRandomOptionProperty@@QAEXAAVCScript@@H@Z ; CRandomOptionProperty::LoadScriptBlock
PUBLIC	?GetParam@CRandomOptionProperty@@QAEH_JHPAH1@Z	; CRandomOptionProperty::GetParam
PUBLIC	?GetRandomOptionSize@CRandomOptionProperty@@QAEH_J@Z ; CRandomOptionProperty::GetRandomOptionSize
PUBLIC	?GetViewRandomOptionSize@CRandomOptionProperty@@QAEH_J@Z ; CRandomOptionProperty::GetViewRandomOptionSize
PUBLIC	?GetRandomOptionKind@CRandomOptionProperty@@QAEHPAVCItemElem@@@Z ; CRandomOptionProperty::GetRandomOptionKind
PUBLIC	?GenRandomOption@CRandomOptionProperty@@QAEHPA_JHH_N@Z ; CRandomOptionProperty::GenRandomOption
PUBLIC	?InitializeRandomOption@CRandomOptionProperty@@QAEXPA_J@Z ; CRandomOptionProperty::InitializeRandomOption
PUBLIC	?SetParam@CRandomOptionProperty@@QAEXPA_JHH@Z	; CRandomOptionProperty::SetParam
PUBLIC	?DetermineRandomOptionSize@CRandomOptionProperty@@AAEHH@Z ; CRandomOptionProperty::DetermineRandomOptionSize
PUBLIC	?DetermineRandomOptionDst@CRandomOptionProperty@@AAEPAU_RANDOM_OPTION@@HH@Z ; CRandomOptionProperty::DetermineRandomOptionDst
PUBLIC	?DetermineRandomOptionAdj@CRandomOptionProperty@@AAEFPAU_RANDOM_OPTION@@_N@Z ; CRandomOptionProperty::DetermineRandomOptionAdj
PUBLIC	?GetRandomOptionKindIndex@CRandomOptionProperty@@AAEHHH@Z ; CRandomOptionProperty::GetRandomOptionKindIndex
PUBLIC	?GetUpperProbability@CRandomOptionProperty@@AAEHH@Z ; CRandomOptionProperty::GetUpperProbability
PUBLIC	?AwakeningExtension@CRandomOptionProperty@@AAEXXZ ; CRandomOptionProperty::AwakeningExtension
PUBLIC	??0?$vector@U_RANDOM_OPTION@@V?$allocator@U_RANDOM_OPTION@@@std@@@std@@QAE@XZ ; std::vector<_RANDOM_OPTION,std::allocator<_RANDOM_OPTION> >::vector<_RANDOM_OPTION,std::allocator<_RANDOM_OPTION> >
PUBLIC	??1?$vector@U_RANDOM_OPTION@@V?$allocator@U_RANDOM_OPTION@@@std@@@std@@QAE@XZ ; std::vector<_RANDOM_OPTION,std::allocator<_RANDOM_OPTION> >::~vector<_RANDOM_OPTION,std::allocator<_RANDOM_OPTION> >
PUBLIC	?_Xlength@?$vector@U_RANDOM_OPTION@@V?$allocator@U_RANDOM_OPTION@@@std@@@std@@CAXXZ ; std::vector<_RANDOM_OPTION,std::allocator<_RANDOM_OPTION> >::_Xlength
PUBLIC	?IsCheckedSafeFlag@CRandomOptionProperty@@QAE_N_J@Z ; CRandomOptionProperty::IsCheckedSafeFlag
PUBLIC	?SetSafeFlag@CRandomOptionProperty@@QAEXPA_J@Z	; CRandomOptionProperty::SetSafeFlag
PUBLIC	?ResetSafeFlag@CRandomOptionProperty@@QAEXPA_J@Z ; CRandomOptionProperty::ResetSafeFlag
PUBLIC	?MergeRandomOption@CRandomOptionProperty@@QAEHPAVCItemElem@@0H@Z ; CRandomOptionProperty::MergeRandomOption
PUBLIC	??_GCRandomOptionProperty@@UAEPAXI@Z		; CRandomOptionProperty::`scalar deleting destructor'
PUBLIC	??$_Copy_memmove_n@PAU_AdjData@@PAU1@@std@@YAPAU_AdjData@@PAU1@I0@Z ; std::_Copy_memmove_n<_AdjData *,_AdjData *>
PUBLIC	??$_Emplace_reallocate@ABU_RANDOM_OPTION@@@?$vector@U_RANDOM_OPTION@@V?$allocator@U_RANDOM_OPTION@@@std@@@std@@AAEPAU_RANDOM_OPTION@@QAU2@ABU2@@Z ; std::vector<_RANDOM_OPTION,std::allocator<_RANDOM_OPTION> >::_Emplace_reallocate<_RANDOM_OPTION const &>
PUBLIC	??$_Emplace_reallocate@U_AdjData@@@?$vector@U_AdjData@@V?$allocator@U_AdjData@@@std@@@std@@AAEPAU_AdjData@@QAU2@$$QAU2@@Z ; std::vector<_AdjData,std::allocator<_AdjData> >::_Emplace_reallocate<_AdjData>
PUBLIC	??$_Copy_memmove_tail@PAU_AdjData@@@std@@YAPAU_AdjData@@QBDQAU1@II@Z ; std::_Copy_memmove_tail<_AdjData *>
PUBLIC	??$construct@U_RANDOM_OPTION@@ABU1@@?$_Default_allocator_traits@V?$allocator@U_RANDOM_OPTION@@@std@@@std@@SAXAAV?$allocator@U_RANDOM_OPTION@@@1@QAU_RANDOM_OPTION@@ABU3@@Z ; std::_Default_allocator_traits<std::allocator<_RANDOM_OPTION> >::construct<_RANDOM_OPTION,_RANDOM_OPTION const &>
PUBLIC	??1_Reallocation_guard@?$vector@U_RANDOM_OPTION@@V?$allocator@U_RANDOM_OPTION@@@std@@@std@@QAE@XZ ; std::vector<_RANDOM_OPTION,std::allocator<_RANDOM_OPTION> >::_Reallocation_guard::~_Reallocation_guard
PUBLIC	??$_Uninitialized_move@PAU_RANDOM_OPTION@@V?$allocator@U_RANDOM_OPTION@@@std@@@std@@YAPAU_RANDOM_OPTION@@QAU1@0PAU1@AAV?$allocator@U_RANDOM_OPTION@@@0@@Z ; std::_Uninitialized_move<_RANDOM_OPTION *,std::allocator<_RANDOM_OPTION> >
PUBLIC	??$_Copy_memmove@PAU_AdjData@@PAU1@@std@@YAPAU_AdjData@@PAU1@00@Z ; std::_Copy_memmove<_AdjData *,_AdjData *>
PUBLIC	??_7exception@std@@6B@				; std::exception::`vftable'
PUBLIC	??_C@_0BC@EOODALEL@Unknown?5exception@		; `string'
PUBLIC	??_7bad_alloc@std@@6B@				; std::bad_alloc::`vftable'
PUBLIC	??_7bad_array_new_length@std@@6B@		; std::bad_array_new_length::`vftable'
PUBLIC	??_C@_0BF@KINCDENJ@bad?5array?5new?5length@	; `string'
PUBLIC	??_R0?AVexception@std@@@8			; std::exception `RTTI Type Descriptor'
PUBLIC	__CT??_R0?AVexception@std@@@8??0exception@std@@QAE@ABV01@@Z12
PUBLIC	__TI3?AVbad_array_new_length@std@@
PUBLIC	__CTA3?AVbad_array_new_length@std@@
PUBLIC	??_R0?AVbad_array_new_length@std@@@8		; std::bad_array_new_length `RTTI Type Descriptor'
PUBLIC	__CT??_R0?AVbad_array_new_length@std@@@8??0bad_array_new_length@std@@QAE@ABV01@@Z12
PUBLIC	??_R0?AVbad_alloc@std@@@8			; std::bad_alloc `RTTI Type Descriptor'
PUBLIC	__CT??_R0?AVbad_alloc@std@@@8??0bad_alloc@std@@QAE@ABV01@@Z12
PUBLIC	??_C@_0BM@HMFGHCP@?$CFs?5min?3?$CFd?0?5max?3?$CFd?0?5index?3?$CFd@ ; `string'
PUBLIC	??_C@_0BI@BEIFNGEL@GetItemProp?5range_error@	; `string'
PUBLIC	??_C@_0BA@FOIKENOD@vector?5too?5long@		; `string'
PUBLIC	??_R4exception@std@@6B@				; std::exception::`RTTI Complete Object Locator'
PUBLIC	??_R3exception@std@@8				; std::exception::`RTTI Class Hierarchy Descriptor'
PUBLIC	??_R2exception@std@@8				; std::exception::`RTTI Base Class Array'
PUBLIC	??_R1A@?0A@EA@exception@std@@8			; std::exception::`RTTI Base Class Descriptor at (0,-1,0,64)'
PUBLIC	??_R4bad_array_new_length@std@@6B@		; std::bad_array_new_length::`RTTI Complete Object Locator'
PUBLIC	??_R3bad_array_new_length@std@@8		; std::bad_array_new_length::`RTTI Class Hierarchy Descriptor'
PUBLIC	??_R2bad_array_new_length@std@@8		; std::bad_array_new_length::`RTTI Base Class Array'
PUBLIC	??_R1A@?0A@EA@bad_array_new_length@std@@8	; std::bad_array_new_length::`RTTI Base Class Descriptor at (0,-1,0,64)'
PUBLIC	??_R1A@?0A@EA@bad_alloc@std@@8			; std::bad_alloc::`RTTI Base Class Descriptor at (0,-1,0,64)'
PUBLIC	??_R3bad_alloc@std@@8				; std::bad_alloc::`RTTI Class Hierarchy Descriptor'
PUBLIC	??_R2bad_alloc@std@@8				; std::bad_alloc::`RTTI Base Class Array'
PUBLIC	??_R4bad_alloc@std@@6B@				; std::bad_alloc::`RTTI Complete Object Locator'
PUBLIC	??_7CRandomOptionProperty@@6B@			; CRandomOptionProperty::`vftable'
PUBLIC	??_C@_0CH@GDAGBDLK@Awakening?3?5nDst?5?$DN?5?$CFd?0?5dwTotalPr@ ; `string'
PUBLIC	??_C@_09DMNPBJDH@Awakening@			; `string'
PUBLIC	??_C@_08KKEHFANF@Blessing@			; `string'
PUBLIC	??_C@_09NPHHCKIJ@SystemPet@			; `string'
PUBLIC	??_C@_06HFBIFKDE@EatPet@			; `string'
PUBLIC	??_C@_0DC@KGDBDMMM@CRandomOptionProperty?4Determine@ ; `string'
PUBLIC	??_C@_0DB@BIDMLGEE@pn64RandomOption?5is?5NULL?5in?5Set@ ; `string'
PUBLIC	??_C@_0DK@LIADPBBI@bCheckedSafeFlag?5is?5already?5tru@ ; `string'
PUBLIC	??_C@_0DD@LJDGNMPF@pn64RandomOption?5is?5NULL?5in?5Res@ ; `string'
PUBLIC	??_C@_0DN@MEFMADHD@bCheckedSafeFlag?5is?5already?5fal@ ; `string'
PUBLIC	??_R4CRandomOptionProperty@@6B@			; CRandomOptionProperty::`RTTI Complete Object Locator'
PUBLIC	??_R0?AVCRandomOptionProperty@@@8		; CRandomOptionProperty `RTTI Type Descriptor'
PUBLIC	??_R3CRandomOptionProperty@@8			; CRandomOptionProperty::`RTTI Class Hierarchy Descriptor'
PUBLIC	??_R2CRandomOptionProperty@@8			; CRandomOptionProperty::`RTTI Base Class Array'
PUBLIC	??_R1A@?0A@EA@CRandomOptionProperty@@8		; CRandomOptionProperty::`RTTI Base Class Descriptor at (0,-1,0,64)'
PUBLIC	__xmm@00000004000000030000000200000001
PUBLIC	__xmm@0000000b0000004d0000002500000024
PUBLIC	__xmm@000000180000004b0000005300000009
PUBLIC	__xmm@0000002500000024000000230000001a
EXTRN	??_L@YGXPAXIIP6EX0@Z1@Z:PROC			; `eh vector constructor iterator'
EXTRN	??_M@YGXPAXIIP6EX0@Z@Z:PROC			; `eh vector destructor iterator'
EXTRN	??2@YAPAXI@Z:PROC				; operator new
EXTRN	??3@YAXPAXI@Z:PROC				; operator delete
EXTRN	_atexit:PROC
EXTRN	__Init_thread_header:PROC
EXTRN	__Init_thread_abort:PROC
EXTRN	__Init_thread_footer:PROC
EXTRN	__invoke_watson:PROC
EXTRN	__mbscmp:PROC
EXTRN	?AfxThrowMemoryException@@YGXXZ:PROC		; AfxThrowMemoryException
EXTRN	?AfxThrowOleException@@YGXJ@Z:PROC		; AfxThrowOleException
EXTRN	___std_exception_copy:PROC
EXTRN	___std_exception_destroy:PROC
EXTRN	??_Eexception@std@@UAEPAXI@Z:PROC		; std::exception::`vector deleting destructor'
EXTRN	??_Ebad_alloc@std@@UAEPAXI@Z:PROC		; std::bad_alloc::`vector deleting destructor'
EXTRN	??_Ebad_array_new_length@std@@UAEPAXI@Z:PROC	; std::bad_array_new_length::`vector deleting destructor'
EXTRN	?_Xlength_error@std@@YAXPBD@Z:PROC		; std::_Xlength_error
EXTRN	?WriteLog@@YAXPBDZZ:PROC			; WriteLog
EXTRN	?GetNumber@CScanner@@QAEHH@Z:PROC		; CScanner::GetNumber
EXTRN	??0CScript@@QAE@H@Z:PROC			; CScript::CScript
EXTRN	??1CScript@@UAE@XZ:PROC				; CScript::~CScript
EXTRN	?Load@CScript@@QAEHPBDHH@Z:PROC			; CScript::Load
EXTRN	?GetToken@CScript@@UAEHH@Z:PROC			; CScript::GetToken
EXTRN	?Error@@YAPBDPBDZZ:PROC				; Error
EXTRN	??_ECRandomOptionProperty@@UAEPAXI@Z:PROC	; CRandomOptionProperty::`vector deleting destructor'
EXTRN	@__security_check_cookie@4:PROC
EXTRN	__CxxThrowException@8:PROC
EXTRN	___CxxFrameHandler3:PROC
EXTRN	__allshl:PROC
EXTRN	__allshr:PROC
EXTRN	_memmove:PROC
EXTRN	_memset:PROC
EXTRN	__Init_thread_epoch:DWORD
EXTRN	??_7type_info@@6B@:QWORD			; type_info::`vftable'
EXTRN	?g_next@@3KA:DWORD				; g_next
EXTRN	?prj@@3VCProject@@A:BYTE			; prj
EXTRN	___security_cookie:DWORD
EXTRN	__tls_array:DWORD
EXTRN	__tls_index:DWORD
;	COMDAT ?sRandomOptionProperty@?1??GetInstance@CRandomOptionProperty@@SAPAV2@XZ@4V2@A
_BSS	SEGMENT
?sRandomOptionProperty@?1??GetInstance@CRandomOptionProperty@@SAPAV2@XZ@4V2@A DB 088H DUP (?) ; `CRandomOptionProperty::GetInstance'::`2'::sRandomOptionProperty
_BSS	ENDS
;	COMDAT ?$TSS0@?1??GetInstance@CRandomOptionProperty@@SAPAV2@XZ@4HA
_BSS	SEGMENT
?$TSS0@?1??GetInstance@CRandomOptionProperty@@SAPAV2@XZ@4HA DD 01H DUP (?) ; `CRandomOptionProperty::GetInstance'::`2'::$TSS0
_BSS	ENDS
;	COMDAT __xmm@0000002500000024000000230000001a
CONST	SEGMENT
__xmm@0000002500000024000000230000001a DB 01aH, 00H, 00H, 00H, '#', 00H, 00H
	DB	00H, '$', 00H, 00H, 00H, '%', 00H, 00H, 00H
CONST	ENDS
;	COMDAT __xmm@000000180000004b0000005300000009
CONST	SEGMENT
__xmm@000000180000004b0000005300000009 DB 09H, 00H, 00H, 00H, 'S', 00H, 00H
	DB	00H, 'K', 00H, 00H, 00H, 018H, 00H, 00H, 00H
CONST	ENDS
;	COMDAT __xmm@0000000b0000004d0000002500000024
CONST	SEGMENT
__xmm@0000000b0000004d0000002500000024 DB '$', 00H, 00H, 00H, '%', 00H, 00H
	DB	00H, 'M', 00H, 00H, 00H, 0bH, 00H, 00H, 00H
CONST	ENDS
;	COMDAT __xmm@00000004000000030000000200000001
CONST	SEGMENT
__xmm@00000004000000030000000200000001 DB 01H, 00H, 00H, 00H, 02H, 00H, 00H
	DB	00H, 03H, 00H, 00H, 00H, 04H, 00H, 00H, 00H
CONST	ENDS
;	COMDAT ??_R1A@?0A@EA@CRandomOptionProperty@@8
rdata$r	SEGMENT
??_R1A@?0A@EA@CRandomOptionProperty@@8 DD FLAT:??_R0?AVCRandomOptionProperty@@@8 ; CRandomOptionProperty::`RTTI Base Class Descriptor at (0,-1,0,64)'
	DD	00H
	DD	00H
	DD	0ffffffffH
	DD	00H
	DD	040H
	DD	FLAT:??_R3CRandomOptionProperty@@8
rdata$r	ENDS
;	COMDAT ??_R2CRandomOptionProperty@@8
rdata$r	SEGMENT
??_R2CRandomOptionProperty@@8 DD FLAT:??_R1A@?0A@EA@CRandomOptionProperty@@8 ; CRandomOptionProperty::`RTTI Base Class Array'
rdata$r	ENDS
;	COMDAT ??_R3CRandomOptionProperty@@8
rdata$r	SEGMENT
??_R3CRandomOptionProperty@@8 DD 00H			; CRandomOptionProperty::`RTTI Class Hierarchy Descriptor'
	DD	00H
	DD	01H
	DD	FLAT:??_R2CRandomOptionProperty@@8
rdata$r	ENDS
;	COMDAT ??_R0?AVCRandomOptionProperty@@@8
data$rs	SEGMENT
??_R0?AVCRandomOptionProperty@@@8 DD FLAT:??_7type_info@@6B@ ; CRandomOptionProperty `RTTI Type Descriptor'
	DD	00H
	DB	'.?AVCRandomOptionProperty@@', 00H
data$rs	ENDS
;	COMDAT ??_R4CRandomOptionProperty@@6B@
rdata$r	SEGMENT
??_R4CRandomOptionProperty@@6B@ DD 00H			; CRandomOptionProperty::`RTTI Complete Object Locator'
	DD	00H
	DD	00H
	DD	FLAT:??_R0?AVCRandomOptionProperty@@@8
	DD	FLAT:??_R3CRandomOptionProperty@@8
rdata$r	ENDS
;	COMDAT ??_C@_0DN@MEFMADHD@bCheckedSafeFlag?5is?5already?5fal@
CONST	SEGMENT
??_C@_0DN@MEFMADHD@bCheckedSafeFlag?5is?5already?5fal@ DB 'bCheckedSafeFl'
	DB	'ag is already false in ResetSafeFlag function.', 00H ; `string'
CONST	ENDS
;	COMDAT ??_C@_0DD@LJDGNMPF@pn64RandomOption?5is?5NULL?5in?5Res@
CONST	SEGMENT
??_C@_0DD@LJDGNMPF@pn64RandomOption?5is?5NULL?5in?5Res@ DB 'pn64RandomOpt'
	DB	'ion is NULL in ResetSafeFlag function', 00H	; `string'
CONST	ENDS
;	COMDAT ??_C@_0DK@LIADPBBI@bCheckedSafeFlag?5is?5already?5tru@
CONST	SEGMENT
??_C@_0DK@LIADPBBI@bCheckedSafeFlag?5is?5already?5tru@ DB 'bCheckedSafeFl'
	DB	'ag is already true in SetSafeFlag function.', 00H ; `string'
CONST	ENDS
;	COMDAT ??_C@_0DB@BIDMLGEE@pn64RandomOption?5is?5NULL?5in?5Set@
CONST	SEGMENT
??_C@_0DB@BIDMLGEE@pn64RandomOption?5is?5NULL?5in?5Set@ DB 'pn64RandomOpt'
	DB	'ion is NULL in SetSafeFlag function', 00H	; `string'
CONST	ENDS
;	COMDAT ??_C@_0DC@KGDBDMMM@CRandomOptionProperty?4Determine@
CONST	SEGMENT
??_C@_0DC@KGDBDMMM@CRandomOptionProperty?4Determine@ DB 'CRandomOptionPro'
	DB	'perty.DetermineRandomOptionAdj: 0', 00H	; `string'
CONST	ENDS
;	COMDAT ??_C@_06HFBIFKDE@EatPet@
CONST	SEGMENT
??_C@_06HFBIFKDE@EatPet@ DB 'EatPet', 00H		; `string'
CONST	ENDS
;	COMDAT ??_C@_09NPHHCKIJ@SystemPet@
CONST	SEGMENT
??_C@_09NPHHCKIJ@SystemPet@ DB 'SystemPet', 00H		; `string'
CONST	ENDS
;	COMDAT ??_C@_08KKEHFANF@Blessing@
CONST	SEGMENT
??_C@_08KKEHFANF@Blessing@ DB 'Blessing', 00H		; `string'
CONST	ENDS
;	COMDAT ??_C@_09DMNPBJDH@Awakening@
CONST	SEGMENT
??_C@_09DMNPBJDH@Awakening@ DB 'Awakening', 00H		; `string'
CONST	ENDS
;	COMDAT ??_C@_0CH@GDAGBDLK@Awakening?3?5nDst?5?$DN?5?$CFd?0?5dwTotalPr@
CONST	SEGMENT
??_C@_0CH@GDAGBDLK@Awakening?3?5nDst?5?$DN?5?$CFd?0?5dwTotalPr@ DB 'Awake'
	DB	'ning: nDst = %d, dwTotalProb = %d', 00H	; `string'
CONST	ENDS
;	COMDAT ??_7CRandomOptionProperty@@6B@
CONST	SEGMENT
??_7CRandomOptionProperty@@6B@ DD FLAT:??_R4CRandomOptionProperty@@6B@ ; CRandomOptionProperty::`vftable'
	DD	FLAT:??_ECRandomOptionProperty@@UAEPAXI@Z
CONST	ENDS
;	COMDAT ??_R4bad_alloc@std@@6B@
rdata$r	SEGMENT
??_R4bad_alloc@std@@6B@ DD 00H				; std::bad_alloc::`RTTI Complete Object Locator'
	DD	00H
	DD	00H
	DD	FLAT:??_R0?AVbad_alloc@std@@@8
	DD	FLAT:??_R3bad_alloc@std@@8
rdata$r	ENDS
;	COMDAT ??_R2bad_alloc@std@@8
rdata$r	SEGMENT
??_R2bad_alloc@std@@8 DD FLAT:??_R1A@?0A@EA@bad_alloc@std@@8 ; std::bad_alloc::`RTTI Base Class Array'
	DD	FLAT:??_R1A@?0A@EA@exception@std@@8
rdata$r	ENDS
;	COMDAT ??_R3bad_alloc@std@@8
rdata$r	SEGMENT
??_R3bad_alloc@std@@8 DD 00H				; std::bad_alloc::`RTTI Class Hierarchy Descriptor'
	DD	00H
	DD	02H
	DD	FLAT:??_R2bad_alloc@std@@8
rdata$r	ENDS
;	COMDAT ??_R1A@?0A@EA@bad_alloc@std@@8
rdata$r	SEGMENT
??_R1A@?0A@EA@bad_alloc@std@@8 DD FLAT:??_R0?AVbad_alloc@std@@@8 ; std::bad_alloc::`RTTI Base Class Descriptor at (0,-1,0,64)'
	DD	01H
	DD	00H
	DD	0ffffffffH
	DD	00H
	DD	040H
	DD	FLAT:??_R3bad_alloc@std@@8
rdata$r	ENDS
;	COMDAT ??_R1A@?0A@EA@bad_array_new_length@std@@8
rdata$r	SEGMENT
??_R1A@?0A@EA@bad_array_new_length@std@@8 DD FLAT:??_R0?AVbad_array_new_length@std@@@8 ; std::bad_array_new_length::`RTTI Base Class Descriptor at (0,-1,0,64)'
	DD	02H
	DD	00H
	DD	0ffffffffH
	DD	00H
	DD	040H
	DD	FLAT:??_R3bad_array_new_length@std@@8
rdata$r	ENDS
;	COMDAT ??_R2bad_array_new_length@std@@8
rdata$r	SEGMENT
??_R2bad_array_new_length@std@@8 DD FLAT:??_R1A@?0A@EA@bad_array_new_length@std@@8 ; std::bad_array_new_length::`RTTI Base Class Array'
	DD	FLAT:??_R1A@?0A@EA@bad_alloc@std@@8
	DD	FLAT:??_R1A@?0A@EA@exception@std@@8
rdata$r	ENDS
;	COMDAT ??_R3bad_array_new_length@std@@8
rdata$r	SEGMENT
??_R3bad_array_new_length@std@@8 DD 00H			; std::bad_array_new_length::`RTTI Class Hierarchy Descriptor'
	DD	00H
	DD	03H
	DD	FLAT:??_R2bad_array_new_length@std@@8
rdata$r	ENDS
;	COMDAT ??_R4bad_array_new_length@std@@6B@
rdata$r	SEGMENT
??_R4bad_array_new_length@std@@6B@ DD 00H		; std::bad_array_new_length::`RTTI Complete Object Locator'
	DD	00H
	DD	00H
	DD	FLAT:??_R0?AVbad_array_new_length@std@@@8
	DD	FLAT:??_R3bad_array_new_length@std@@8
rdata$r	ENDS
;	COMDAT ??_R1A@?0A@EA@exception@std@@8
rdata$r	SEGMENT
??_R1A@?0A@EA@exception@std@@8 DD FLAT:??_R0?AVexception@std@@@8 ; std::exception::`RTTI Base Class Descriptor at (0,-1,0,64)'
	DD	00H
	DD	00H
	DD	0ffffffffH
	DD	00H
	DD	040H
	DD	FLAT:??_R3exception@std@@8
rdata$r	ENDS
;	COMDAT ??_R2exception@std@@8
rdata$r	SEGMENT
??_R2exception@std@@8 DD FLAT:??_R1A@?0A@EA@exception@std@@8 ; std::exception::`RTTI Base Class Array'
rdata$r	ENDS
;	COMDAT ??_R3exception@std@@8
rdata$r	SEGMENT
??_R3exception@std@@8 DD 00H				; std::exception::`RTTI Class Hierarchy Descriptor'
	DD	00H
	DD	01H
	DD	FLAT:??_R2exception@std@@8
rdata$r	ENDS
;	COMDAT ??_R4exception@std@@6B@
rdata$r	SEGMENT
??_R4exception@std@@6B@ DD 00H				; std::exception::`RTTI Complete Object Locator'
	DD	00H
	DD	00H
	DD	FLAT:??_R0?AVexception@std@@@8
	DD	FLAT:??_R3exception@std@@8
rdata$r	ENDS
;	COMDAT ??_C@_0BA@FOIKENOD@vector?5too?5long@
CONST	SEGMENT
??_C@_0BA@FOIKENOD@vector?5too?5long@ DB 'vector too long', 00H ; `string'
CONST	ENDS
;	COMDAT ??_C@_0BI@BEIFNGEL@GetItemProp?5range_error@
CONST	SEGMENT
??_C@_0BI@BEIFNGEL@GetItemProp?5range_error@ DB 'GetItemProp range_error', 00H ; `string'
CONST	ENDS
;	COMDAT ??_C@_0BM@HMFGHCP@?$CFs?5min?3?$CFd?0?5max?3?$CFd?0?5index?3?$CFd@
CONST	SEGMENT
??_C@_0BM@HMFGHCP@?$CFs?5min?3?$CFd?0?5max?3?$CFd?0?5index?3?$CFd@ DB '%s'
	DB	' min:%d, max:%d, index:%d', 00H		; `string'
CONST	ENDS
;	COMDAT __CT??_R0?AVbad_alloc@std@@@8??0bad_alloc@std@@QAE@ABV01@@Z12
xdata$x	SEGMENT
__CT??_R0?AVbad_alloc@std@@@8??0bad_alloc@std@@QAE@ABV01@@Z12 DD 010H
	DD	FLAT:??_R0?AVbad_alloc@std@@@8
	DD	00H
	DD	0ffffffffH
	ORG $+4
	DD	0cH
	DD	FLAT:??0bad_alloc@std@@QAE@ABV01@@Z
xdata$x	ENDS
;	COMDAT ??_R0?AVbad_alloc@std@@@8
data$r	SEGMENT
??_R0?AVbad_alloc@std@@@8 DD FLAT:??_7type_info@@6B@	; std::bad_alloc `RTTI Type Descriptor'
	DD	00H
	DB	'.?AVbad_alloc@std@@', 00H
data$r	ENDS
;	COMDAT __CT??_R0?AVbad_array_new_length@std@@@8??0bad_array_new_length@std@@QAE@ABV01@@Z12
xdata$x	SEGMENT
__CT??_R0?AVbad_array_new_length@std@@@8??0bad_array_new_length@std@@QAE@ABV01@@Z12 DD 00H
	DD	FLAT:??_R0?AVbad_array_new_length@std@@@8
	DD	00H
	DD	0ffffffffH
	ORG $+4
	DD	0cH
	DD	FLAT:??0bad_array_new_length@std@@QAE@ABV01@@Z
xdata$x	ENDS
;	COMDAT ??_R0?AVbad_array_new_length@std@@@8
data$r	SEGMENT
??_R0?AVbad_array_new_length@std@@@8 DD FLAT:??_7type_info@@6B@ ; std::bad_array_new_length `RTTI Type Descriptor'
	DD	00H
	DB	'.?AVbad_array_new_length@std@@', 00H
data$r	ENDS
;	COMDAT __CTA3?AVbad_array_new_length@std@@
xdata$x	SEGMENT
__CTA3?AVbad_array_new_length@std@@ DD 03H
	DD	FLAT:__CT??_R0?AVbad_array_new_length@std@@@8??0bad_array_new_length@std@@QAE@ABV01@@Z12
	DD	FLAT:__CT??_R0?AVbad_alloc@std@@@8??0bad_alloc@std@@QAE@ABV01@@Z12
	DD	FLAT:__CT??_R0?AVexception@std@@@8??0exception@std@@QAE@ABV01@@Z12
xdata$x	ENDS
;	COMDAT __TI3?AVbad_array_new_length@std@@
xdata$x	SEGMENT
__TI3?AVbad_array_new_length@std@@ DD 00H
	DD	FLAT:??1bad_array_new_length@std@@UAE@XZ
	DD	00H
	DD	FLAT:__CTA3?AVbad_array_new_length@std@@
xdata$x	ENDS
;	COMDAT __CT??_R0?AVexception@std@@@8??0exception@std@@QAE@ABV01@@Z12
xdata$x	SEGMENT
__CT??_R0?AVexception@std@@@8??0exception@std@@QAE@ABV01@@Z12 DD 00H
	DD	FLAT:??_R0?AVexception@std@@@8
	DD	00H
	DD	0ffffffffH
	ORG $+4
	DD	0cH
	DD	FLAT:??0exception@std@@QAE@ABV01@@Z
xdata$x	ENDS
;	COMDAT ??_R0?AVexception@std@@@8
data$r	SEGMENT
??_R0?AVexception@std@@@8 DD FLAT:??_7type_info@@6B@	; std::exception `RTTI Type Descriptor'
	DD	00H
	DB	'.?AVexception@std@@', 00H
data$r	ENDS
;	COMDAT ??_C@_0BF@KINCDENJ@bad?5array?5new?5length@
CONST	SEGMENT
??_C@_0BF@KINCDENJ@bad?5array?5new?5length@ DB 'bad array new length', 00H ; `string'
CONST	ENDS
;	COMDAT ??_7bad_array_new_length@std@@6B@
CONST	SEGMENT
??_7bad_array_new_length@std@@6B@ DD FLAT:??_R4bad_array_new_length@std@@6B@ ; std::bad_array_new_length::`vftable'
	DD	FLAT:??_Ebad_array_new_length@std@@UAEPAXI@Z
	DD	FLAT:?what@exception@std@@UBEPBDXZ
CONST	ENDS
;	COMDAT ??_7bad_alloc@std@@6B@
CONST	SEGMENT
??_7bad_alloc@std@@6B@ DD FLAT:??_R4bad_alloc@std@@6B@	; std::bad_alloc::`vftable'
	DD	FLAT:??_Ebad_alloc@std@@UAEPAXI@Z
	DD	FLAT:?what@exception@std@@UBEPBDXZ
CONST	ENDS
;	COMDAT ??_C@_0BC@EOODALEL@Unknown?5exception@
CONST	SEGMENT
??_C@_0BC@EOODALEL@Unknown?5exception@ DB 'Unknown exception', 00H ; `string'
CONST	ENDS
;	COMDAT ??_7exception@std@@6B@
CONST	SEGMENT
??_7exception@std@@6B@ DD FLAT:??_R4exception@std@@6B@	; std::exception::`vftable'
	DD	FLAT:??_Eexception@std@@UAEPAXI@Z
	DD	FLAT:?what@exception@std@@UBEPBDXZ
CONST	ENDS
;	COMDAT xdata$x
xdata$x	SEGMENT
__unwindtable$??$_Emplace_reallocate@ABU_RANDOM_OPTION@@@?$vector@U_RANDOM_OPTION@@V?$allocator@U_RANDOM_OPTION@@@std@@@std@@AAEPAU_RANDOM_OPTION@@QAU2@ABU2@@Z DD 0ffffffffH
	DD	FLAT:__unwindfunclet$??$_Emplace_reallocate@ABU_RANDOM_OPTION@@@?$vector@U_RANDOM_OPTION@@V?$allocator@U_RANDOM_OPTION@@@std@@@std@@AAEPAU_RANDOM_OPTION@@QAU2@ABU2@@Z$0
__ehfuncinfo$??$_Emplace_reallocate@ABU_RANDOM_OPTION@@@?$vector@U_RANDOM_OPTION@@V?$allocator@U_RANDOM_OPTION@@@std@@@std@@AAEPAU_RANDOM_OPTION@@QAU2@ABU2@@Z DD 019930522H
	DD	01H
	DD	FLAT:__unwindtable$??$_Emplace_reallocate@ABU_RANDOM_OPTION@@@?$vector@U_RANDOM_OPTION@@V?$allocator@U_RANDOM_OPTION@@@std@@@std@@AAEPAU_RANDOM_OPTION@@QAU2@ABU2@@Z
	DD	2 DUP(00H)
	DD	2 DUP(00H)
	DD	00H
	DD	01H
xdata$x	ENDS
;	COMDAT xdata$x
xdata$x	SEGMENT
__unwindtable$?AwakeningExtension@CRandomOptionProperty@@AAEXXZ DD 0ffffffffH
	DD	FLAT:__unwindfunclet$?AwakeningExtension@CRandomOptionProperty@@AAEXXZ$1
	DD	0ffffffffH
	DD	FLAT:__unwindfunclet$?AwakeningExtension@CRandomOptionProperty@@AAEXXZ$0
__ehfuncinfo$?AwakeningExtension@CRandomOptionProperty@@AAEXXZ DD 019930522H
	DD	02H
	DD	FLAT:__unwindtable$?AwakeningExtension@CRandomOptionProperty@@AAEXXZ
	DD	2 DUP(00H)
	DD	2 DUP(00H)
	DD	00H
	DD	01H
xdata$x	ENDS
;	COMDAT xdata$x
xdata$x	SEGMENT
__unwindtable$?LoadScriptBlock@CRandomOptionProperty@@QAEXAAVCScript@@H@Z DD 0ffffffffH
	DD	FLAT:__unwindfunclet$?LoadScriptBlock@CRandomOptionProperty@@QAEXAAVCScript@@H@Z$0
__ehfuncinfo$?LoadScriptBlock@CRandomOptionProperty@@QAEXAAVCScript@@H@Z DD 019930522H
	DD	01H
	DD	FLAT:__unwindtable$?LoadScriptBlock@CRandomOptionProperty@@QAEXAAVCScript@@H@Z
	DD	2 DUP(00H)
	DD	2 DUP(00H)
	DD	00H
	DD	01H
xdata$x	ENDS
;	COMDAT xdata$x
xdata$x	SEGMENT
__unwindtable$?LoadScript@CRandomOptionProperty@@QAEHPBD@Z DD 0ffffffffH
	DD	FLAT:__unwindfunclet$?LoadScript@CRandomOptionProperty@@QAEHPBD@Z$0
__ehfuncinfo$?LoadScript@CRandomOptionProperty@@QAEHPBD@Z DD 019930522H
	DD	01H
	DD	FLAT:__unwindtable$?LoadScript@CRandomOptionProperty@@QAEHPBD@Z
	DD	2 DUP(00H)
	DD	2 DUP(00H)
	DD	00H
	DD	01H
xdata$x	ENDS
;	COMDAT xdata$x
xdata$x	SEGMENT
__unwindtable$?GetInstance@CRandomOptionProperty@@SAPAV1@XZ DD 0ffffffffH
	DD	FLAT:__unwindfunclet$?GetInstance@CRandomOptionProperty@@SAPAV1@XZ$0
__ehfuncinfo$?GetInstance@CRandomOptionProperty@@SAPAV1@XZ DD 019930522H
	DD	01H
	DD	FLAT:__unwindtable$?GetInstance@CRandomOptionProperty@@SAPAV1@XZ
	DD	2 DUP(00H)
	DD	2 DUP(00H)
	DD	00H
	DD	01H
xdata$x	ENDS
;	COMDAT xdata$x
xdata$x	SEGMENT
__ehfuncinfo$??1CRandomOptionProperty@@UAE@XZ DD 019930522H
	DD	00H
	DD	00H
	DD	2 DUP(00H)
	DD	2 DUP(00H)
	DD	00H
	DD	05H
xdata$x	ENDS
;	COMDAT xdata$x
xdata$x	SEGMENT
__unwindtable$??0_RANDOM_OPTION@@QAE@PAU0@@Z DD 0ffffffffH
	DD	FLAT:__unwindfunclet$??0_RANDOM_OPTION@@QAE@PAU0@@Z$0
__ehfuncinfo$??0_RANDOM_OPTION@@QAE@PAU0@@Z DD 019930522H
	DD	01H
	DD	FLAT:__unwindtable$??0_RANDOM_OPTION@@QAE@PAU0@@Z
	DD	2 DUP(00H)
	DD	2 DUP(00H)
	DD	00H
	DD	01H
xdata$x	ENDS
; Function compile flags: /Ogtp
; File C:\Program Files\Microsoft Visual Studio\2022\Professional\VC\Tools\MSVC\14.44.35207\include\xutility
;	COMDAT ??$_Copy_memmove@PAU_AdjData@@PAU1@@std@@YAPAU_AdjData@@PAU1@00@Z
_TEXT	SEGMENT
__First$ = 8						; size = 4
__Last$ = 12						; size = 4
__Dest$ = 16						; size = 4
??$_Copy_memmove@PAU_AdjData@@PAU1@@std@@YAPAU_AdjData@@PAU1@00@Z PROC ; std::_Copy_memmove<_AdjData *,_AdjData *>, COMDAT

; 4762 : _OutCtgIt _Copy_memmove(_CtgIt _First, _CtgIt _Last, _OutCtgIt _Dest) {

  00000	55		 push	 ebp
  00001	8b ec		 mov	 ebp, esp

; 4763 :     _STL_INTERNAL_CHECK(_First <= _Last);
; 4764 :     const auto _First_ptr    = _STD _To_address(_First);
; 4765 :     const auto _Last_ptr     = _STD _To_address(_Last);
; 4766 :     const auto _Object_count = static_cast<size_t>(_Last_ptr - _First_ptr);

  00003	8b 55 08	 mov	 edx, DWORD PTR __First$[ebp]
  00006	8b 4d 0c	 mov	 ecx, DWORD PTR __Last$[ebp]
  00009	2b ca		 sub	 ecx, edx
  0000b	8b c1		 mov	 eax, ecx
  0000d	c1 f8 03	 sar	 eax, 3

; 4767 :     const auto _First_ch     = const_cast<const char*>(reinterpret_cast<const volatile char*>(_First_ptr));
; 4768 :     const auto _Last_ch      = const_cast<const char*>(reinterpret_cast<const volatile char*>(_Last_ptr));
; 4769 :     const auto _Byte_count   = static_cast<size_t>(_Last_ch - _First_ch);
; 4770 :     return _STD _Copy_memmove_tail(_First_ch, _STD move(_Dest), _Byte_count, _Object_count);

  00010	50		 push	 eax
  00011	51		 push	 ecx
  00012	ff 75 10	 push	 DWORD PTR __Dest$[ebp]
  00015	52		 push	 edx
  00016	e8 00 00 00 00	 call	 ??$_Copy_memmove_tail@PAU_AdjData@@@std@@YAPAU_AdjData@@QBDQAU1@II@Z ; std::_Copy_memmove_tail<_AdjData *>
  0001b	83 c4 10	 add	 esp, 16			; 00000010H

; 4771 : }

  0001e	5d		 pop	 ebp
  0001f	c3		 ret	 0
??$_Copy_memmove@PAU_AdjData@@PAU1@@std@@YAPAU_AdjData@@PAU1@00@Z ENDP ; std::_Copy_memmove<_AdjData *,_AdjData *>
_TEXT	ENDS
; Function compile flags: /Ogtp
; File C:\Program Files\Microsoft Visual Studio\2022\Professional\VC\Tools\MSVC\14.44.35207\include\xmemory
; File C:\Program Files\Microsoft Visual Studio\2022\Professional\VC\Tools\MSVC\14.44.35207\include\utility
; File C:\Program Files\Microsoft Visual Studio\2022\Professional\VC\Tools\MSVC\14.44.35207\include\vector
; File C:\Program Files\Microsoft Visual Studio\2022\Professional\VC\Tools\MSVC\14.44.35207\include\xmemory
; File C:\Program Files\Microsoft Visual Studio\2022\Professional\VC\Tools\MSVC\14.44.35207\include\vector
; File C:\Program Files\Microsoft Visual Studio\2022\Professional\VC\Tools\MSVC\14.44.35207\include\xmemory
;	COMDAT ??$_Uninitialized_move@PAU_RANDOM_OPTION@@V?$allocator@U_RANDOM_OPTION@@@std@@@std@@YAPAU_RANDOM_OPTION@@QAU1@0PAU1@AAV?$allocator@U_RANDOM_OPTION@@@0@@Z
_TEXT	SEGMENT
__First$ = 8						; size = 4
__Last$ = 12						; size = 4
__Dest$ = 16						; size = 4
__Al$ = 20						; size = 4
??$_Uninitialized_move@PAU_RANDOM_OPTION@@V?$allocator@U_RANDOM_OPTION@@@std@@@std@@YAPAU_RANDOM_OPTION@@QAU1@0PAU1@AAV?$allocator@U_RANDOM_OPTION@@@0@@Z PROC ; std::_Uninitialized_move<_RANDOM_OPTION *,std::allocator<_RANDOM_OPTION> >, COMDAT

; 1977 :     const _InIt _First, const _InIt _Last, _Alloc_ptr_t<_Alloc> _Dest, _Alloc& _Al) {

  00000	55		 push	 ebp
  00001	8b ec		 mov	 ebp, esp

; 1998 :     for (; _UFirst != _ULast; ++_UFirst) {

  00003	8b 45 08	 mov	 eax, DWORD PTR __First$[ebp]
  00006	57		 push	 edi

; 1833 :     _CONSTEXPR20 _Uninitialized_backout_al(pointer _Dest, _Alloc& _Al_) : _First(_Dest), _Last(_Dest), _Al(_Al_) {}

  00007	8b 7d 10	 mov	 edi, DWORD PTR __Dest$[ebp]

; 1998 :     for (; _UFirst != _ULast; ++_UFirst) {

  0000a	3b 45 0c	 cmp	 eax, DWORD PTR __Last$[ebp]
  0000d	74 4c		 je	 SHORT $LN69@Uninitiali
  0000f	53		 push	 ebx

; 1833 :     _CONSTEXPR20 _Uninitialized_backout_al(pointer _Dest, _Alloc& _Al_) : _First(_Dest), _Last(_Dest), _Al(_Al_) {}

  00010	8b df		 mov	 ebx, edi
  00012	8d 48 0c	 lea	 ecx, DWORD PTR [eax+12]
  00015	56		 push	 esi
  00016	2b d8		 sub	 ebx, eax
$LL4@Uninitiali:
  00018	8b 41 f4	 mov	 eax, DWORD PTR [ecx-12]

; 1845 :         ++_Last;

  0001b	8d 49 14	 lea	 ecx, DWORD PTR [ecx+20]
  0001e	89 07		 mov	 DWORD PTR [edi], eax
  00020	8b 41 e4	 mov	 eax, DWORD PTR [ecx-28]
  00023	89 47 04	 mov	 DWORD PTR [edi+4], eax
; File C:\Program Files\Microsoft Visual Studio\2022\Professional\VC\Tools\MSVC\14.44.35207\include\utility

; 773  :     _Ty _Old_val = static_cast<_Ty&&>(_Val);

  00026	8b 51 ec	 mov	 edx, DWORD PTR [ecx-20]
  00029	8b 71 f0	 mov	 esi, DWORD PTR [ecx-16]
  0002c	8b 41 e8	 mov	 eax, DWORD PTR [ecx-24]

; 774  :     _Val         = static_cast<_Other&&>(_New_val);

  0002f	c7 41 f0 00 00
	00 00		 mov	 DWORD PTR [ecx-16], 0
  00036	c7 41 ec 00 00
	00 00		 mov	 DWORD PTR [ecx-20], 0
  0003d	c7 41 e8 00 00
	00 00		 mov	 DWORD PTR [ecx-24], 0
; File C:\Program Files\Microsoft Visual Studio\2022\Professional\VC\Tools\MSVC\14.44.35207\include\vector

; 403  :         : _Myfirst(_First), _Mylast(_Last), _Myend(_End) {}

  00044	89 54 0b ec	 mov	 DWORD PTR [ebx+ecx-20], edx
; File C:\Program Files\Microsoft Visual Studio\2022\Professional\VC\Tools\MSVC\14.44.35207\include\xmemory

; 1998 :     for (; _UFirst != _ULast; ++_UFirst) {

  00048	8d 51 f4	 lea	 edx, DWORD PTR [ecx-12]
; File C:\Program Files\Microsoft Visual Studio\2022\Professional\VC\Tools\MSVC\14.44.35207\include\vector

; 403  :         : _Myfirst(_First), _Mylast(_Last), _Myend(_End) {}

  0004b	89 47 08	 mov	 DWORD PTR [edi+8], eax
  0004e	89 77 10	 mov	 DWORD PTR [edi+16], esi
; File C:\Program Files\Microsoft Visual Studio\2022\Professional\VC\Tools\MSVC\14.44.35207\include\xmemory

; 1845 :         ++_Last;

  00051	83 c7 14	 add	 edi, 20			; 00000014H

; 1998 :     for (; _UFirst != _ULast; ++_UFirst) {

  00054	3b 55 0c	 cmp	 edx, DWORD PTR __Last$[ebp]
  00057	75 bf		 jne	 SHORT $LL4@Uninitiali
  00059	5e		 pop	 esi
  0005a	5b		 pop	 ebx
$LN69@Uninitiali:

; 1999 :         _Backout._Emplace_back(_STD move(*_UFirst));
; 2000 :     }
; 2001 : 
; 2002 :     return _Backout._Release();
; 2003 : }

  0005b	8b c7		 mov	 eax, edi
  0005d	5f		 pop	 edi
  0005e	5d		 pop	 ebp
  0005f	c3		 ret	 0
??$_Uninitialized_move@PAU_RANDOM_OPTION@@V?$allocator@U_RANDOM_OPTION@@@std@@@std@@YAPAU_RANDOM_OPTION@@QAU1@0PAU1@AAV?$allocator@U_RANDOM_OPTION@@@0@@Z ENDP ; std::_Uninitialized_move<_RANDOM_OPTION *,std::allocator<_RANDOM_OPTION> >
_TEXT	ENDS
; Function compile flags: /Ogtp
; File C:\Program Files\Microsoft Visual Studio\2022\Professional\VC\Tools\MSVC\14.44.35207\include\vector
; File C:\Program Files\Microsoft Visual Studio\2022\Professional\VC\Tools\MSVC\14.44.35207\include\xmemory
; File C:\Program Files\Microsoft Visual Studio\2022\Professional\VC\Tools\MSVC\14.44.35207\include\vector
; File C:\Program Files\Microsoft Visual Studio\2022\Professional\VC\Tools\MSVC\14.44.35207\include\xmemory
; File C:\Program Files\Microsoft Visual Studio\2022\Professional\VC\Tools\MSVC\14.44.35207\include\vector
; File C:\Program Files\Microsoft Visual Studio\2022\Professional\VC\Tools\MSVC\14.44.35207\include\xmemory
; File C:\Program Files\Microsoft Visual Studio\2022\Professional\VC\Tools\MSVC\14.44.35207\include\vector
;	COMDAT ??1_Reallocation_guard@?$vector@U_RANDOM_OPTION@@V?$allocator@U_RANDOM_OPTION@@@std@@@std@@QAE@XZ
_TEXT	SEGMENT
??1_Reallocation_guard@?$vector@U_RANDOM_OPTION@@V?$allocator@U_RANDOM_OPTION@@@std@@@std@@QAE@XZ PROC ; std::vector<_RANDOM_OPTION,std::allocator<_RANDOM_OPTION> >::_Reallocation_guard::~_Reallocation_guard, COMDAT
; _this$ = ecx

; 620  :         _CONSTEXPR20 ~_Reallocation_guard() noexcept {

  00000	57		 push	 edi
  00001	8b f9		 mov	 edi, ecx

; 621  :             if (_New_begin != nullptr) {

  00003	83 7f 04 00	 cmp	 DWORD PTR [edi+4], 0
  00007	74 4d		 je	 SHORT $LN30@Reallocati

; 622  :                 _STD _Destroy_range(_Constructed_first, _Constructed_last, _Al);

  00009	53		 push	 ebx
  0000a	8b 5f 10	 mov	 ebx, DWORD PTR [edi+16]
  0000d	56		 push	 esi
  0000e	8b 77 0c	 mov	 esi, DWORD PTR [edi+12]
; File C:\Program Files\Microsoft Visual Studio\2022\Professional\VC\Tools\MSVC\14.44.35207\include\xmemory

; 1102 :         for (; _First != _Last; ++_First) {

  00011	3b f3		 cmp	 esi, ebx
  00013	74 0f		 je	 SHORT $LN7@Reallocati
$LL8@Reallocati:
; File C:\Program Files\Microsoft Visual Studio\2022\Professional\VC\Tools\MSVC\14.44.35207\include\vector

; 830  :         _Tidy();

  00015	8d 4e 08	 lea	 ecx, DWORD PTR [esi+8]
  00018	e8 00 00 00 00	 call	 ?_Tidy@?$vector@U_AdjData@@V?$allocator@U_AdjData@@@std@@@std@@AAEXXZ ; std::vector<_AdjData,std::allocator<_AdjData> >::_Tidy
; File C:\Program Files\Microsoft Visual Studio\2022\Professional\VC\Tools\MSVC\14.44.35207\include\xmemory

; 1102 :         for (; _First != _Last; ++_First) {

  0001d	83 c6 14	 add	 esi, 20			; 00000014H
  00020	3b f3		 cmp	 esi, ebx
  00022	75 f1		 jne	 SHORT $LL8@Reallocati
$LN7@Reallocati:

; 985  :         _STD _Deallocate<_New_alignof<_Ty>>(_Ptr, sizeof(_Ty) * _Count);

  00024	8b 47 08	 mov	 eax, DWORD PTR [edi+8]
  00027	5e		 pop	 esi
  00028	5b		 pop	 ebx
  00029	8d 0c 80	 lea	 ecx, DWORD PTR [eax+eax*4]
  0002c	8b 47 04	 mov	 eax, DWORD PTR [edi+4]
  0002f	c1 e1 02	 shl	 ecx, 2

; 284  :         if (_Bytes >= _Big_allocation_threshold) {

  00032	81 f9 00 10 00
	00		 cmp	 ecx, 4096		; 00001000H
  00038	72 12		 jb	 SHORT $LN35@Reallocati

; 205  :     const uintptr_t _Ptr_container   = _Ptr_user[-1];

  0003a	8b 50 fc	 mov	 edx, DWORD PTR [eax-4]
  0003d	83 c1 23	 add	 ecx, 35			; 00000023H

; 206  : 
; 207  :     // If the following asserts, it likely means that we are performing
; 208  :     // an aligned delete on memory coming from an unaligned allocation.
; 209  :     _STL_ASSERT(_Ptr_user[-2] == _Big_allocation_sentinel, "invalid argument");
; 210  : 
; 211  :     // Extra paranoia on aligned allocation/deallocation; ensure _Ptr_container is
; 212  :     // in range [_Min_back_shift, _Non_user_size]
; 213  : #ifdef _DEBUG
; 214  :     constexpr uintptr_t _Min_back_shift = 2 * sizeof(void*);
; 215  : #else // ^^^ defined(_DEBUG) / !defined(_DEBUG) vvv
; 216  :     constexpr uintptr_t _Min_back_shift = sizeof(void*);
; 217  : #endif // ^^^ !defined(_DEBUG) ^^^
; 218  :     const uintptr_t _Back_shift = reinterpret_cast<uintptr_t>(_Ptr) - _Ptr_container;

  00040	2b c2		 sub	 eax, edx

; 219  :     _STL_VERIFY(_Back_shift >= _Min_back_shift && _Back_shift <= _Non_user_size, "invalid argument");

  00042	83 c0 fc	 add	 eax, -4			; fffffffcH
  00045	83 f8 1f	 cmp	 eax, 31			; 0000001fH
  00048	77 0e		 ja	 SHORT $LN34@Reallocati

; 220  :     _Ptr = reinterpret_cast<void*>(_Ptr_container);

  0004a	8b c2		 mov	 eax, edx
$LN35@Reallocati:

; 289  :         ::operator delete(_Ptr, _Bytes);

  0004c	51		 push	 ecx
  0004d	50		 push	 eax
  0004e	e8 00 00 00 00	 call	 ??3@YAXPAXI@Z		; operator delete
  00053	83 c4 08	 add	 esp, 8
$LN30@Reallocati:
  00056	5f		 pop	 edi
; File C:\Program Files\Microsoft Visual Studio\2022\Professional\VC\Tools\MSVC\14.44.35207\include\vector

; 625  :         }

  00057	c3		 ret	 0
$LN34@Reallocati:
; File C:\Program Files\Microsoft Visual Studio\2022\Professional\VC\Tools\MSVC\14.44.35207\include\xmemory

; 219  :     _STL_VERIFY(_Back_shift >= _Min_back_shift && _Back_shift <= _Non_user_size, "invalid argument");

  00058	6a 00		 push	 0
  0005a	6a 00		 push	 0
  0005c	6a 00		 push	 0
  0005e	6a 00		 push	 0
  00060	6a 00		 push	 0
  00062	e8 00 00 00 00	 call	 __invoke_watson
$LN47@Reallocati:
  00067	cc		 int	 3
??1_Reallocation_guard@?$vector@U_RANDOM_OPTION@@V?$allocator@U_RANDOM_OPTION@@@std@@@std@@QAE@XZ ENDP ; std::vector<_RANDOM_OPTION,std::allocator<_RANDOM_OPTION> >::_Reallocation_guard::~_Reallocation_guard
_TEXT	ENDS
; Function compile flags: /Ogtp
; File C:\Program Files\Microsoft Visual Studio\2022\Professional\VC\Tools\MSVC\14.44.35207\include\xmemory
; File C:\Program Files\Microsoft Visual Studio\2022\Professional\VC\Tools\MSVC\14.44.35207\include\vector
; File C:\Program Files\Microsoft Visual Studio\2022\Professional\VC\Tools\MSVC\14.44.35207\include\xmemory
; File C:\Program Files\Microsoft Visual Studio\2022\Professional\VC\Tools\MSVC\14.44.35207\include\vector
; File C:\Program Files\Microsoft Visual Studio\2022\Professional\VC\Tools\MSVC\14.44.35207\include\xmemory
; File C:\Program Files\Microsoft Visual Studio\2022\Professional\VC\Tools\MSVC\14.44.35207\include\vector
; File C:\Program Files\Microsoft Visual Studio\2022\Professional\VC\Tools\MSVC\14.44.35207\include\xmemory
; File C:\Program Files\Microsoft Visual Studio\2022\Professional\VC\Tools\MSVC\14.44.35207\include\vector
; File C:\Program Files\Microsoft Visual Studio\2022\Professional\VC\Tools\MSVC\14.44.35207\include\xmemory
;	COMDAT ??$construct@U_RANDOM_OPTION@@ABU1@@?$_Default_allocator_traits@V?$allocator@U_RANDOM_OPTION@@@std@@@std@@SAXAAV?$allocator@U_RANDOM_OPTION@@@1@QAU_RANDOM_OPTION@@ABU3@@Z
_TEXT	SEGMENT
___formal$ = 8						; size = 4
__Ptr$ = 12						; size = 4
_<_Args_0>$ = 16					; size = 4
_this$1$ = 16						; size = 4
??$construct@U_RANDOM_OPTION@@ABU1@@?$_Default_allocator_traits@V?$allocator@U_RANDOM_OPTION@@@std@@@std@@SAXAAV?$allocator@U_RANDOM_OPTION@@@1@QAU_RANDOM_OPTION@@ABU3@@Z PROC ; std::_Default_allocator_traits<std::allocator<_RANDOM_OPTION> >::construct<_RANDOM_OPTION,_RANDOM_OPTION const &>, COMDAT

; 728  :     static _CONSTEXPR20 void construct(_Alloc&, _Objty* const _Ptr, _Types&&... _Args) {

  00000	55		 push	 ebp
  00001	8b ec		 mov	 ebp, esp
  00003	8b 4d 0c	 mov	 ecx, DWORD PTR __Ptr$[ebp]
  00006	53		 push	 ebx
  00007	57		 push	 edi
  00008	8b 7d 10	 mov	 edi, DWORD PTR _<_Args_0>$[ebp]
  0000b	8d 59 08	 lea	 ebx, DWORD PTR [ecx+8]
  0000e	89 5d 10	 mov	 DWORD PTR _this$1$[ebp], ebx
  00011	8b 07		 mov	 eax, DWORD PTR [edi]
  00013	89 01		 mov	 DWORD PTR [ecx], eax
  00015	8b 47 04	 mov	 eax, DWORD PTR [edi+4]
  00018	89 41 04	 mov	 DWORD PTR [ecx+4], eax
; File C:\Program Files\Microsoft Visual Studio\2022\Professional\VC\Tools\MSVC\14.44.35207\include\vector

; 400  :     _CONSTEXPR20 _Vector_val() noexcept : _Myfirst(), _Mylast(), _Myend() {}

  0001b	c7 03 00 00 00
	00		 mov	 DWORD PTR [ebx], 0
  00021	c7 43 04 00 00
	00 00		 mov	 DWORD PTR [ebx+4], 0
  00028	c7 43 08 00 00
	00 00		 mov	 DWORD PTR [ebx+8], 0

; 748  :         const auto _Count       = static_cast<size_type>(_Right_data._Mylast - _Right_data._Myfirst);

  0002f	8b 47 0c	 mov	 eax, DWORD PTR [edi+12]
  00032	2b 47 08	 sub	 eax, DWORD PTR [edi+8]
  00035	c1 f8 03	 sar	 eax, 3

; 2111 :         if (_Count != 0) {

  00038	85 c0		 test	 eax, eax
  0003a	74 32		 je	 SHORT $LN34@construct

; 2051 :         if (_Newcapacity > max_size()) {

  0003c	3d ff ff ff 1f	 cmp	 eax, 536870911		; 1fffffffH
  00041	77 2f		 ja	 SHORT $LN44@construct
  00043	56		 push	 esi

; 2053 :         }
; 2054 : 
; 2055 :         _Buy_raw(_Newcapacity);

  00044	50		 push	 eax
  00045	8b cb		 mov	 ecx, ebx
  00047	e8 00 00 00 00	 call	 ?_Buy_raw@?$vector@U_AdjData@@V?$allocator@U_AdjData@@@std@@@std@@AAEXI@Z ; std::vector<_AdjData,std::allocator<_AdjData> >::_Buy_raw

; 2120 :                 _My_data._Mylast = _STD _Uninitialized_copy(_STD forward<_Valty>(_Val)..., _My_data._Myfirst, _Al);

  0004c	8b 1b		 mov	 ebx, DWORD PTR [ebx]
; File C:\Program Files\Microsoft Visual Studio\2022\Professional\VC\Tools\MSVC\14.44.35207\include\xmemory

; 1876 :     auto _UFirst = _STD _Get_unwrapped(_STD move(_First));

  0004e	8b 77 08	 mov	 esi, DWORD PTR [edi+8]

; 1877 :     auto _ULast  = _STD _Get_unwrapped(_STD move(_Last));

  00051	8b 7f 0c	 mov	 edi, DWORD PTR [edi+12]

; 1878 : #endif // ^^^ !_HAS_CXX20 ^^^
; 1879 : 
; 1880 :     constexpr bool _Can_memmove = _Sent_copy_cat<decltype(_UFirst), decltype(_ULast), _Ptrval>::_Bitcopy_constructible
; 1881 :                                && _Uses_default_construct<_Alloc, _Ptrval, decltype(*_UFirst)>::value;
; 1882 : 
; 1883 :     if constexpr (_Can_memmove) {
; 1884 : #if _HAS_CXX20
; 1885 :         if (!_STD is_constant_evaluated())
; 1886 : #endif // _HAS_CXX20
; 1887 :         {
; 1888 :             if constexpr (is_same_v<decltype(_UFirst), decltype(_ULast)>) {
; 1889 :                 _STD _Copy_memmove(_STD _To_address(_UFirst), _STD _To_address(_ULast), _STD _Unfancy(_Dest));

  00054	53		 push	 ebx
  00055	57		 push	 edi
  00056	56		 push	 esi
  00057	e8 00 00 00 00	 call	 ??$_Copy_memmove@PAU_AdjData@@PAU1@@std@@YAPAU_AdjData@@PAU1@00@Z ; std::_Copy_memmove<_AdjData *,_AdjData *>
; File C:\Program Files\Microsoft Visual Studio\2022\Professional\VC\Tools\MSVC\14.44.35207\include\vector

; 2120 :                 _My_data._Mylast = _STD _Uninitialized_copy(_STD forward<_Valty>(_Val)..., _My_data._Myfirst, _Al);

  0005c	8b 4d 10	 mov	 ecx, DWORD PTR _this$1$[ebp]
; File C:\Program Files\Microsoft Visual Studio\2022\Professional\VC\Tools\MSVC\14.44.35207\include\xmemory

; 1890 :                 _Dest += _ULast - _UFirst;

  0005f	2b fe		 sub	 edi, esi
  00061	83 c4 0c	 add	 esp, 12			; 0000000cH
  00064	c1 ff 03	 sar	 edi, 3
  00067	8d 04 fb	 lea	 eax, DWORD PTR [ebx+edi*8]
; File C:\Program Files\Microsoft Visual Studio\2022\Professional\VC\Tools\MSVC\14.44.35207\include\vector

; 2120 :                 _My_data._Mylast = _STD _Uninitialized_copy(_STD forward<_Valty>(_Val)..., _My_data._Myfirst, _Al);

  0006a	89 41 04	 mov	 DWORD PTR [ecx+4], eax
  0006d	5e		 pop	 esi
$LN34@construct:
  0006e	5f		 pop	 edi
; File C:\Program Files\Microsoft Visual Studio\2022\Professional\VC\Tools\MSVC\14.44.35207\include\xmemory

; 734  :     }

  0006f	5b		 pop	 ebx
  00070	5d		 pop	 ebp
  00071	c3		 ret	 0
$LN44@construct:
; File C:\Program Files\Microsoft Visual Studio\2022\Professional\VC\Tools\MSVC\14.44.35207\include\vector

; 2052 :             _Xlength();

  00072	e8 00 00 00 00	 call	 ?_Xlength@?$vector@U_AdjData@@V?$allocator@U_AdjData@@@std@@@std@@CAXXZ ; std::vector<_AdjData,std::allocator<_AdjData> >::_Xlength
$LN42@construct:
  00077	cc		 int	 3
??$construct@U_RANDOM_OPTION@@ABU1@@?$_Default_allocator_traits@V?$allocator@U_RANDOM_OPTION@@@std@@@std@@SAXAAV?$allocator@U_RANDOM_OPTION@@@1@QAU_RANDOM_OPTION@@ABU3@@Z ENDP ; std::_Default_allocator_traits<std::allocator<_RANDOM_OPTION> >::construct<_RANDOM_OPTION,_RANDOM_OPTION const &>
_TEXT	ENDS
; Function compile flags: /Ogtp
; File C:\Program Files\Microsoft Visual Studio\2022\Professional\VC\Tools\MSVC\14.44.35207\include\xutility
;	COMDAT ??$_Copy_memmove_tail@PAU_AdjData@@@std@@YAPAU_AdjData@@QBDQAU1@II@Z
_TEXT	SEGMENT
__First_ch$ = 8						; size = 4
__Dest$ = 12						; size = 4
__Byte_count$ = 16					; size = 4
__Object_count$ = 20					; size = 4
??$_Copy_memmove_tail@PAU_AdjData@@@std@@YAPAU_AdjData@@QBDQAU1@II@Z PROC ; std::_Copy_memmove_tail<_AdjData *>, COMDAT

; 4747 :     const char* const _First_ch, const _OutCtgIt _Dest, const size_t _Byte_count, const size_t _Object_count) {

  00000	55		 push	 ebp
  00001	8b ec		 mov	 ebp, esp
  00003	56		 push	 esi

; 4748 :     _STL_INTERNAL_CHECK(_Byte_count == _Object_count * sizeof(*_Dest));
; 4749 :     const auto _Dest_ptr = _STD _To_address(_Dest);
; 4750 :     const auto _Dest_ch  = const_cast<char*>(reinterpret_cast<const volatile char*>(_Dest_ptr));
; 4751 :     _CSTD memmove(_Dest_ch, _First_ch, _Byte_count);

  00004	8b 75 0c	 mov	 esi, DWORD PTR __Dest$[ebp]
  00007	57		 push	 edi
  00008	8b 7d 10	 mov	 edi, DWORD PTR __Byte_count$[ebp]
  0000b	57		 push	 edi
  0000c	ff 75 08	 push	 DWORD PTR __First_ch$[ebp]
  0000f	56		 push	 esi
  00010	e8 00 00 00 00	 call	 _memmove
  00015	83 c4 0c	 add	 esp, 12			; 0000000cH

; 4752 :     if constexpr (is_pointer_v<_OutCtgIt>) {
; 4753 :         (void) _Object_count;
; 4754 :         // CodeQL [SM02986] This cast is correct: we're bypassing pointer arithmetic for performance.
; 4755 :         return reinterpret_cast<_OutCtgIt>(_Dest_ch + _Byte_count);

  00018	8d 04 3e	 lea	 eax, DWORD PTR [esi+edi]
  0001b	5f		 pop	 edi
  0001c	5e		 pop	 esi

; 4756 :     } else {
; 4757 :         return _Dest + static_cast<_Iter_diff_t<_OutCtgIt>>(_Object_count);
; 4758 :     }
; 4759 : }

  0001d	5d		 pop	 ebp
  0001e	c3		 ret	 0
??$_Copy_memmove_tail@PAU_AdjData@@@std@@YAPAU_AdjData@@QBDQAU1@II@Z ENDP ; std::_Copy_memmove_tail<_AdjData *>
_TEXT	ENDS
; Function compile flags: /Ogtp
; File C:\Program Files\Microsoft Visual Studio\2022\Professional\VC\Tools\MSVC\14.44.35207\include\vector
; File C:\Program Files\Microsoft Visual Studio\2022\Professional\VC\Tools\MSVC\14.44.35207\include\xmemory
; File C:\Program Files\Microsoft Visual Studio\2022\Professional\VC\Tools\MSVC\14.44.35207\include\vector
; File C:\Program Files\Microsoft Visual Studio\2022\Professional\VC\Tools\MSVC\14.44.35207\include\xmemory
; File C:\Program Files\Microsoft Visual Studio\2022\Professional\VC\Tools\MSVC\14.44.35207\include\vector
; File C:\Program Files\Microsoft Visual Studio\2022\Professional\VC\Tools\MSVC\14.44.35207\include\xmemory
; File C:\Program Files\Microsoft Visual Studio\2022\Professional\VC\Tools\MSVC\14.44.35207\include\vector
; File C:\Program Files\Microsoft Visual Studio\2022\Professional\VC\Tools\MSVC\14.44.35207\include\xmemory
; File C:\Program Files\Microsoft Visual Studio\2022\Professional\VC\Tools\MSVC\14.44.35207\include\vector
; File C:\Program Files\Microsoft Visual Studio\2022\Professional\VC\Tools\MSVC\14.44.35207\include\xmemory
; File C:\Program Files\Microsoft Visual Studio\2022\Professional\VC\Tools\MSVC\14.44.35207\include\vector
; File C:\Program Files\Microsoft Visual Studio\2022\Professional\VC\Tools\MSVC\14.44.35207\include\xmemory
; File C:\Program Files\Microsoft Visual Studio\2022\Professional\VC\Tools\MSVC\14.44.35207\include\vector
; File C:\Program Files\Microsoft Visual Studio\2022\Professional\VC\Tools\MSVC\14.44.35207\include\xmemory
; File C:\Program Files\Microsoft Visual Studio\2022\Professional\VC\Tools\MSVC\14.44.35207\include\vector
; File C:\Program Files\Microsoft Visual Studio\2022\Professional\VC\Tools\MSVC\14.44.35207\include\xmemory
; File C:\Program Files\Microsoft Visual Studio\2022\Professional\VC\Tools\MSVC\14.44.35207\include\vector
;	COMDAT ??$_Emplace_reallocate@U_AdjData@@@?$vector@U_AdjData@@V?$allocator@U_AdjData@@@std@@@std@@AAEPAU_AdjData@@QAU2@$$QAU2@@Z
_TEXT	SEGMENT
__Newsize$1$ = -8					; size = 4
tv650 = -4						; size = 4
__Whereptr$ = 8						; size = 4
_<_Val_0>$ = 12						; size = 4
??$_Emplace_reallocate@U_AdjData@@@?$vector@U_AdjData@@V?$allocator@U_AdjData@@@std@@@std@@AAEPAU_AdjData@@QAU2@$$QAU2@@Z PROC ; std::vector<_AdjData,std::allocator<_AdjData> >::_Emplace_reallocate<_AdjData>, COMDAT
; _this$ = ecx

; 875  :     _CONSTEXPR20 pointer _Emplace_reallocate(const pointer _Whereptr, _Valty&&... _Val) {

  00000	55		 push	 ebp
  00001	8b ec		 mov	 ebp, esp
  00003	83 ec 08	 sub	 esp, 8
  00006	53		 push	 ebx

; 876  :         // reallocate and insert by perfectly forwarding _Val at _Whereptr
; 877  :         _Alty& _Al        = _Getal();
; 878  :         auto& _My_data    = _Mypair._Myval2;
; 879  :         pointer& _Myfirst = _My_data._Myfirst;
; 880  :         pointer& _Mylast  = _My_data._Mylast;
; 881  : 
; 882  :         _STL_INTERNAL_CHECK(_Mylast == _My_data._Myend); // check that we have no unused capacity
; 883  : 
; 884  :         const auto _Whereoff = static_cast<size_type>(_Whereptr - _Myfirst);

  00007	8b 5d 08	 mov	 ebx, DWORD PTR __Whereptr$[ebp]
  0000a	56		 push	 esi
  0000b	8b f1		 mov	 esi, ecx
  0000d	57		 push	 edi
  0000e	8b 0e		 mov	 ecx, DWORD PTR [esi]
  00010	2b d9		 sub	 ebx, ecx

; 885  :         const auto _Oldsize  = static_cast<size_type>(_Mylast - _Myfirst);

  00012	8b 46 04	 mov	 eax, DWORD PTR [esi+4]
  00015	2b c1		 sub	 eax, ecx
  00017	c1 fb 03	 sar	 ebx, 3
  0001a	c1 f8 03	 sar	 eax, 3

; 886  : 
; 887  :         if (_Oldsize == max_size()) {

  0001d	3d ff ff ff 1f	 cmp	 eax, 536870911		; 1fffffffH
  00022	0f 84 11 01 00
	00		 je	 $LN111@Emplace_re

; 1924 :         return static_cast<size_type>(_My_data._Myend - _My_data._Myfirst);

  00028	8b 56 08	 mov	 edx, DWORD PTR [esi+8]

; 889  :         }
; 890  : 
; 891  :         const size_type _Newsize = _Oldsize + 1;

  0002b	8d 78 01	 lea	 edi, DWORD PTR [eax+1]

; 1924 :         return static_cast<size_type>(_My_data._Myend - _My_data._Myfirst);

  0002e	2b d1		 sub	 edx, ecx

; 889  :         }
; 890  : 
; 891  :         const size_type _Newsize = _Oldsize + 1;

  00030	89 7d f8	 mov	 DWORD PTR __Newsize$1$[ebp], edi

; 1924 :         return static_cast<size_type>(_My_data._Myend - _My_data._Myfirst);

  00033	c1 fa 03	 sar	 edx, 3

; 2011 :         if (_Oldcapacity > _Max - _Oldcapacity / 2) {

  00036	b8 ff ff ff 1f	 mov	 eax, 536870911		; 1fffffffH
  0003b	8b ca		 mov	 ecx, edx
  0003d	d1 e9		 shr	 ecx, 1
  0003f	2b c1		 sub	 eax, ecx
  00041	3b d0		 cmp	 edx, eax
  00043	76 14		 jbe	 SHORT $LN8@Emplace_re

; 2012 :             return _Max; // geometric growth would overflow

  00045	b8 f8 ff ff ff	 mov	 eax, -8			; fffffff8H
  0004a	c7 45 fc f8 ff
	ff ff		 mov	 DWORD PTR tv650[ebp], -8 ; fffffff8H
; File C:\Program Files\Microsoft Visual Studio\2022\Professional\VC\Tools\MSVC\14.44.35207\include\xmemory

; 253  :             return _Allocate_manually_vector_aligned<_Traits>(_Bytes);

  00051	50		 push	 eax
  00052	e8 00 00 00 00	 call	 ??$_Allocate_manually_vector_aligned@U_Default_allocate_traits@std@@@std@@YAPAXI@Z ; std::_Allocate_manually_vector_aligned<std::_Default_allocate_traits>
  00057	eb 3d		 jmp	 SHORT $LN109@Emplace_re
$LN8@Emplace_re:
; File C:\Program Files\Microsoft Visual Studio\2022\Professional\VC\Tools\MSVC\14.44.35207\include\vector

; 2015 :         const size_type _Geometric = _Oldcapacity + _Oldcapacity / 2;

  00059	8d 04 11	 lea	 eax, DWORD PTR [ecx+edx]
; File C:\Program Files\Microsoft Visual Studio\2022\Professional\VC\Tools\MSVC\14.44.35207\include\xmemory

; 117  :         if (_Count > _Max_possible) {

  0005c	8b cf		 mov	 ecx, edi
  0005e	3b c7		 cmp	 eax, edi
  00060	0f 43 c8	 cmovae	 ecx, eax
  00063	81 f9 ff ff ff
	1f		 cmp	 ecx, 536870911		; 1fffffffH
  00069	0f 87 cf 00 00
	00		 ja	 $LN112@Emplace_re

; 119  :         }
; 120  :     }
; 121  : 
; 122  :     return _Count * _Ty_size;

  0006f	8d 04 cd 00 00
	00 00		 lea	 eax, DWORD PTR [ecx*8]
  00076	89 45 fc	 mov	 DWORD PTR tv650[ebp], eax

; 227  :     if (_Bytes == 0) {

  00079	85 c0		 test	 eax, eax
  0007b	75 04		 jne	 SHORT $LN23@Emplace_re

; 228  :         return nullptr;

  0007d	33 ff		 xor	 edi, edi
  0007f	eb 1a		 jmp	 SHORT $LN22@Emplace_re
$LN23@Emplace_re:

; 229  :     }
; 230  : 
; 231  : #if _HAS_CXX20 // TRANSITION, GH-1532
; 232  :     if (_STD is_constant_evaluated()) {
; 233  :         return _Traits::_Allocate(_Bytes);
; 234  :     }
; 235  : #endif // _HAS_CXX20
; 236  : 
; 237  : #ifdef __cpp_aligned_new
; 238  :     if constexpr (_Align > __STDCPP_DEFAULT_NEW_ALIGNMENT__) {
; 239  :         size_t _Passed_align = _Align;
; 240  : #if defined(_M_IX86) || defined(_M_X64)
; 241  :         if (_Bytes >= _Big_allocation_threshold) {
; 242  :             // boost the alignment of big allocations to help autovectorization
; 243  :             _Passed_align = (_STD max)(_Align, _Big_allocation_alignment);
; 244  :         }
; 245  : #endif // defined(_M_IX86) || defined(_M_X64)
; 246  :         return _Traits::_Allocate_aligned(_Bytes, _Passed_align);
; 247  :     } else
; 248  : #endif // defined(__cpp_aligned_new)
; 249  :     {
; 250  : #if defined(_M_IX86) || defined(_M_X64)
; 251  :         if (_Bytes >= _Big_allocation_threshold) {

  00081	3d 00 10 00 00	 cmp	 eax, 4096		; 00001000H
  00086	72 08		 jb	 SHORT $LN24@Emplace_re

; 253  :             return _Allocate_manually_vector_aligned<_Traits>(_Bytes);

  00088	50		 push	 eax
  00089	e8 00 00 00 00	 call	 ??$_Allocate_manually_vector_aligned@U_Default_allocate_traits@std@@@std@@YAPAXI@Z ; std::_Allocate_manually_vector_aligned<std::_Default_allocate_traits>
  0008e	eb 06		 jmp	 SHORT $LN109@Emplace_re
$LN24@Emplace_re:

; 136  :         return ::operator new(_Bytes);

  00090	50		 push	 eax
  00091	e8 00 00 00 00	 call	 ??2@YAPAXI@Z		; operator new
$LN109@Emplace_re:
; File C:\Program Files\Microsoft Visual Studio\2022\Professional\VC\Tools\MSVC\14.44.35207\include\vector

; 900  :         _Alty_traits::construct(_Al, _STD _Unfancy(_Newvec + _Whereoff), _STD forward<_Valty>(_Val)...);

  00096	8b f8		 mov	 edi, eax
  00098	83 c4 04	 add	 esp, 4
$LN22@Emplace_re:
  0009b	8b 45 0c	 mov	 eax, DWORD PTR _<_Val_0>$[ebp]
  0009e	8d 1c df	 lea	 ebx, DWORD PTR [edi+ebx*8]
  000a1	8b 08		 mov	 ecx, DWORD PTR [eax]
  000a3	8b 40 04	 mov	 eax, DWORD PTR [eax+4]
  000a6	89 43 04	 mov	 DWORD PTR [ebx+4], eax

; 901  :         _Constructed_first = _Newvec + _Whereoff;
; 902  : 
; 903  :         if (_Whereptr == _Mylast) { // at back, provide strong guarantee

  000a9	8b 45 08	 mov	 eax, DWORD PTR __Whereptr$[ebp]
  000ac	89 0b		 mov	 DWORD PTR [ebx], ecx
  000ae	8b 56 04	 mov	 edx, DWORD PTR [esi+4]
  000b1	8b 0e		 mov	 ecx, DWORD PTR [esi]
  000b3	3b c2		 cmp	 eax, edx
  000b5	75 04		 jne	 SHORT $LN3@Emplace_re
; File C:\Program Files\Microsoft Visual Studio\2022\Professional\VC\Tools\MSVC\14.44.35207\include\xmemory

; 1992 :             _STD _Copy_memmove(_UFirst, _ULast, _STD _Unfancy(_Dest));

  000b7	8b c7		 mov	 eax, edi
; File C:\Program Files\Microsoft Visual Studio\2022\Professional\VC\Tools\MSVC\14.44.35207\include\vector

; 909  :         } else { // provide basic guarantee

  000b9	eb 14		 jmp	 SHORT $LN52@Emplace_re
$LN3@Emplace_re:
; File C:\Program Files\Microsoft Visual Studio\2022\Professional\VC\Tools\MSVC\14.44.35207\include\xmemory

; 1992 :             _STD _Copy_memmove(_UFirst, _ULast, _STD _Unfancy(_Dest));

  000bb	57		 push	 edi
  000bc	50		 push	 eax
  000bd	51		 push	 ecx
  000be	e8 00 00 00 00	 call	 ??$_Copy_memmove@PAU_AdjData@@PAU1@@std@@YAPAU_AdjData@@PAU1@00@Z ; std::_Copy_memmove<_AdjData *,_AdjData *>
  000c3	8b 4d 08	 mov	 ecx, DWORD PTR __Whereptr$[ebp]
; File C:\Program Files\Microsoft Visual Studio\2022\Professional\VC\Tools\MSVC\14.44.35207\include\vector

; 912  :             _STD _Uninitialized_move(_Whereptr, _Mylast, _Newvec + _Whereoff + 1, _Al);

  000c6	8d 43 08	 lea	 eax, DWORD PTR [ebx+8]
; File C:\Program Files\Microsoft Visual Studio\2022\Professional\VC\Tools\MSVC\14.44.35207\include\xmemory

; 1992 :             _STD _Copy_memmove(_UFirst, _ULast, _STD _Unfancy(_Dest));

  000c9	8b 56 04	 mov	 edx, DWORD PTR [esi+4]
  000cc	83 c4 0c	 add	 esp, 12			; 0000000cH
$LN52@Emplace_re:
; File C:\Program Files\Microsoft Visual Studio\2022\Professional\VC\Tools\MSVC\14.44.35207\include\vector

; 915  :         _Guard._New_begin = nullptr;

  000cf	50		 push	 eax
  000d0	52		 push	 edx
  000d1	51		 push	 ecx
  000d2	e8 00 00 00 00	 call	 ??$_Copy_memmove@PAU_AdjData@@PAU1@@std@@YAPAU_AdjData@@PAU1@00@Z ; std::_Copy_memmove<_AdjData *,_AdjData *>

; 2069 :         if (_Myfirst) { // destroy and deallocate old array

  000d7	8b 06		 mov	 eax, DWORD PTR [esi]

; 915  :         _Guard._New_begin = nullptr;

  000d9	83 c4 0c	 add	 esp, 12			; 0000000cH

; 2069 :         if (_Myfirst) { // destroy and deallocate old array

  000dc	85 c0		 test	 eax, eax
  000de	74 2c		 je	 SHORT $LN72@Emplace_re

; 2070 :             _STD _Destroy_range(_Myfirst, _Mylast, _Al);
; 2071 :             _ASAN_VECTOR_REMOVE;
; 2072 :             _Al.deallocate(_Myfirst, static_cast<size_type>(_Myend - _Myfirst));

  000e0	8b 4e 08	 mov	 ecx, DWORD PTR [esi+8]
  000e3	2b c8		 sub	 ecx, eax
; File C:\Program Files\Microsoft Visual Studio\2022\Professional\VC\Tools\MSVC\14.44.35207\include\xmemory

; 985  :         _STD _Deallocate<_New_alignof<_Ty>>(_Ptr, sizeof(_Ty) * _Count);

  000e5	83 e1 f8	 and	 ecx, -8			; fffffff8H

; 284  :         if (_Bytes >= _Big_allocation_threshold) {

  000e8	81 f9 00 10 00
	00		 cmp	 ecx, 4096		; 00001000H
  000ee	72 12		 jb	 SHORT $LN77@Emplace_re

; 205  :     const uintptr_t _Ptr_container   = _Ptr_user[-1];

  000f0	8b 50 fc	 mov	 edx, DWORD PTR [eax-4]
  000f3	83 c1 23	 add	 ecx, 35			; 00000023H

; 206  : 
; 207  :     // If the following asserts, it likely means that we are performing
; 208  :     // an aligned delete on memory coming from an unaligned allocation.
; 209  :     _STL_ASSERT(_Ptr_user[-2] == _Big_allocation_sentinel, "invalid argument");
; 210  : 
; 211  :     // Extra paranoia on aligned allocation/deallocation; ensure _Ptr_container is
; 212  :     // in range [_Min_back_shift, _Non_user_size]
; 213  : #ifdef _DEBUG
; 214  :     constexpr uintptr_t _Min_back_shift = 2 * sizeof(void*);
; 215  : #else // ^^^ defined(_DEBUG) / !defined(_DEBUG) vvv
; 216  :     constexpr uintptr_t _Min_back_shift = sizeof(void*);
; 217  : #endif // ^^^ !defined(_DEBUG) ^^^
; 218  :     const uintptr_t _Back_shift = reinterpret_cast<uintptr_t>(_Ptr) - _Ptr_container;

  000f6	2b c2		 sub	 eax, edx

; 219  :     _STL_VERIFY(_Back_shift >= _Min_back_shift && _Back_shift <= _Non_user_size, "invalid argument");

  000f8	83 c0 fc	 add	 eax, -4			; fffffffcH
  000fb	83 f8 1f	 cmp	 eax, 31			; 0000001fH
  000fe	77 2a		 ja	 SHORT $LN76@Emplace_re

; 220  :     _Ptr = reinterpret_cast<void*>(_Ptr_container);

  00100	8b c2		 mov	 eax, edx
$LN77@Emplace_re:

; 289  :         ::operator delete(_Ptr, _Bytes);

  00102	51		 push	 ecx
  00103	50		 push	 eax
  00104	e8 00 00 00 00	 call	 ??3@YAXPAXI@Z		; operator delete
  00109	83 c4 08	 add	 esp, 8
$LN72@Emplace_re:
; File C:\Program Files\Microsoft Visual Studio\2022\Professional\VC\Tools\MSVC\14.44.35207\include\vector

; 2076 :         _Mylast  = _Newvec + _Newsize;

  0010c	8b 45 f8	 mov	 eax, DWORD PTR __Newsize$1$[ebp]
  0010f	89 3e		 mov	 DWORD PTR [esi], edi
  00111	8d 0c c7	 lea	 ecx, DWORD PTR [edi+eax*8]

; 916  :         _Change_array(_Newvec, _Newsize, _Newcapacity);
; 917  :         return _Newvec + _Whereoff;

  00114	8b c3		 mov	 eax, ebx

; 2076 :         _Mylast  = _Newvec + _Newsize;

  00116	89 4e 04	 mov	 DWORD PTR [esi+4], ecx

; 2077 :         _Myend   = _Newvec + _Newcapacity;

  00119	8b 4d fc	 mov	 ecx, DWORD PTR tv650[ebp]
  0011c	03 cf		 add	 ecx, edi

; 918  :     }

  0011e	5f		 pop	 edi

; 2077 :         _Myend   = _Newvec + _Newcapacity;

  0011f	89 4e 08	 mov	 DWORD PTR [esi+8], ecx

; 918  :     }

  00122	5e		 pop	 esi
  00123	5b		 pop	 ebx
  00124	8b e5		 mov	 esp, ebp
  00126	5d		 pop	 ebp
  00127	c2 08 00	 ret	 8
$LN76@Emplace_re:
; File C:\Program Files\Microsoft Visual Studio\2022\Professional\VC\Tools\MSVC\14.44.35207\include\xmemory

; 219  :     _STL_VERIFY(_Back_shift >= _Min_back_shift && _Back_shift <= _Non_user_size, "invalid argument");

  0012a	6a 00		 push	 0
  0012c	6a 00		 push	 0
  0012e	6a 00		 push	 0
  00130	6a 00		 push	 0
  00132	6a 00		 push	 0
  00134	e8 00 00 00 00	 call	 __invoke_watson
$LN111@Emplace_re:
; File C:\Program Files\Microsoft Visual Studio\2022\Professional\VC\Tools\MSVC\14.44.35207\include\vector

; 888  :             _Xlength();

  00139	e8 00 00 00 00	 call	 ?_Xlength@?$vector@U_AdjData@@V?$allocator@U_AdjData@@@std@@@std@@CAXXZ ; std::vector<_AdjData,std::allocator<_AdjData> >::_Xlength
$LN112@Emplace_re:
; File C:\Program Files\Microsoft Visual Studio\2022\Professional\VC\Tools\MSVC\14.44.35207\include\xmemory

; 118  :             _Throw_bad_array_new_length(); // multiply overflow

  0013e	e8 00 00 00 00	 call	 ?_Throw_bad_array_new_length@std@@YAXXZ ; std::_Throw_bad_array_new_length
$LN108@Emplace_re:
  00143	cc		 int	 3
??$_Emplace_reallocate@U_AdjData@@@?$vector@U_AdjData@@V?$allocator@U_AdjData@@@std@@@std@@AAEPAU_AdjData@@QAU2@$$QAU2@@Z ENDP ; std::vector<_AdjData,std::allocator<_AdjData> >::_Emplace_reallocate<_AdjData>
_TEXT	ENDS
; Function compile flags: /Ogtp
; File C:\Program Files\Microsoft Visual Studio\2022\Professional\VC\Tools\MSVC\14.44.35207\include\vector
; File C:\Program Files\Microsoft Visual Studio\2022\Professional\VC\Tools\MSVC\14.44.35207\include\xmemory
; File C:\Program Files\Microsoft Visual Studio\2022\Professional\VC\Tools\MSVC\14.44.35207\include\vector
; File C:\Program Files\Microsoft Visual Studio\2022\Professional\VC\Tools\MSVC\14.44.35207\include\xmemory
; File C:\Program Files\Microsoft Visual Studio\2022\Professional\VC\Tools\MSVC\14.44.35207\include\vector
; File C:\Program Files\Microsoft Visual Studio\2022\Professional\VC\Tools\MSVC\14.44.35207\include\xmemory
; File C:\Program Files\Microsoft Visual Studio\2022\Professional\VC\Tools\MSVC\14.44.35207\include\vector
; File C:\Program Files\Microsoft Visual Studio\2022\Professional\VC\Tools\MSVC\14.44.35207\include\xmemory
; File C:\Program Files\Microsoft Visual Studio\2022\Professional\VC\Tools\MSVC\14.44.35207\include\vector
; File C:\Program Files\Microsoft Visual Studio\2022\Professional\VC\Tools\MSVC\14.44.35207\include\xmemory
; File C:\Program Files\Microsoft Visual Studio\2022\Professional\VC\Tools\MSVC\14.44.35207\include\vector
; File C:\Program Files\Microsoft Visual Studio\2022\Professional\VC\Tools\MSVC\14.44.35207\include\xmemory
; File C:\Program Files\Microsoft Visual Studio\2022\Professional\VC\Tools\MSVC\14.44.35207\include\vector
; File C:\Program Files\Microsoft Visual Studio\2022\Professional\VC\Tools\MSVC\14.44.35207\include\xmemory
; File C:\Program Files\Microsoft Visual Studio\2022\Professional\VC\Tools\MSVC\14.44.35207\include\vector
; File C:\Program Files\Microsoft Visual Studio\2022\Professional\VC\Tools\MSVC\14.44.35207\include\xmemory
; File C:\Program Files\Microsoft Visual Studio\2022\Professional\VC\Tools\MSVC\14.44.35207\include\vector
;	COMDAT ??$_Emplace_reallocate@ABU_RANDOM_OPTION@@@?$vector@U_RANDOM_OPTION@@V?$allocator@U_RANDOM_OPTION@@@std@@@std@@AAEPAU_RANDOM_OPTION@@QAU2@ABU2@@Z
_TEXT	SEGMENT
__Guard$ = -52						; size = 20
tv575 = -32						; size = 4
__Newsize$1$ = -28					; size = 4
_this$1$ = -24						; size = 4
__Whereoff$1$ = -20					; size = 4
$T2 = -20						; size = 4
tv576 = -16						; size = 4
__$EHRec$ = -12						; size = 12
__Whereptr$ = 8						; size = 4
_<_Val_0>$ = 12						; size = 4
??$_Emplace_reallocate@ABU_RANDOM_OPTION@@@?$vector@U_RANDOM_OPTION@@V?$allocator@U_RANDOM_OPTION@@@std@@@std@@AAEPAU_RANDOM_OPTION@@QAU2@ABU2@@Z PROC ; std::vector<_RANDOM_OPTION,std::allocator<_RANDOM_OPTION> >::_Emplace_reallocate<_RANDOM_OPTION const &>, COMDAT
; _this$ = ecx

; 875  :     _CONSTEXPR20 pointer _Emplace_reallocate(const pointer _Whereptr, _Valty&&... _Val) {

  00000	55		 push	 ebp
  00001	8b ec		 mov	 ebp, esp
  00003	6a ff		 push	 -1
  00005	68 00 00 00 00	 push	 __ehhandler$??$_Emplace_reallocate@ABU_RANDOM_OPTION@@@?$vector@U_RANDOM_OPTION@@V?$allocator@U_RANDOM_OPTION@@@std@@@std@@AAEPAU_RANDOM_OPTION@@QAU2@ABU2@@Z
  0000a	64 a1 00 00 00
	00		 mov	 eax, DWORD PTR fs:0
  00010	50		 push	 eax
  00011	83 ec 28	 sub	 esp, 40			; 00000028H
  00014	53		 push	 ebx
  00015	56		 push	 esi
  00016	57		 push	 edi
  00017	a1 00 00 00 00	 mov	 eax, DWORD PTR ___security_cookie
  0001c	33 c5		 xor	 eax, ebp
  0001e	50		 push	 eax
  0001f	8d 45 f4	 lea	 eax, DWORD PTR __$EHRec$[ebp]
  00022	64 a3 00 00 00
	00		 mov	 DWORD PTR fs:0, eax
  00028	8b f9		 mov	 edi, ecx
  0002a	89 7d e8	 mov	 DWORD PTR _this$1$[ebp], edi

; 876  :         // reallocate and insert by perfectly forwarding _Val at _Whereptr
; 877  :         _Alty& _Al        = _Getal();
; 878  :         auto& _My_data    = _Mypair._Myval2;
; 879  :         pointer& _Myfirst = _My_data._Myfirst;
; 880  :         pointer& _Mylast  = _My_data._Mylast;
; 881  : 
; 882  :         _STL_INTERNAL_CHECK(_Mylast == _My_data._Myend); // check that we have no unused capacity
; 883  : 
; 884  :         const auto _Whereoff = static_cast<size_type>(_Whereptr - _Myfirst);

  0002d	8b 37		 mov	 esi, DWORD PTR [edi]
  0002f	b8 67 66 66 66	 mov	 eax, 1717986919		; 66666667H
  00034	8b 55 08	 mov	 edx, DWORD PTR __Whereptr$[ebp]

; 885  :         const auto _Oldsize  = static_cast<size_type>(_Mylast - _Myfirst);

  00037	8b 4f 04	 mov	 ecx, DWORD PTR [edi+4]
  0003a	2b d6		 sub	 edx, esi
  0003c	f7 ea		 imul	 edx
  0003e	2b ce		 sub	 ecx, esi
  00040	c1 fa 03	 sar	 edx, 3
  00043	8b c2		 mov	 eax, edx
  00045	c1 e8 1f	 shr	 eax, 31			; 0000001fH
  00048	03 c2		 add	 eax, edx
  0004a	89 45 ec	 mov	 DWORD PTR __Whereoff$1$[ebp], eax
  0004d	b8 67 66 66 66	 mov	 eax, 1717986919		; 66666667H
  00052	f7 e9		 imul	 ecx
  00054	c1 fa 03	 sar	 edx, 3
  00057	8b c2		 mov	 eax, edx
  00059	c1 e8 1f	 shr	 eax, 31			; 0000001fH
  0005c	03 c2		 add	 eax, edx

; 886  : 
; 887  :         if (_Oldsize == max_size()) {

  0005e	3d cc cc cc 0c	 cmp	 eax, 214748364		; 0cccccccH
  00063	0f 84 89 01 00
	00		 je	 $LN119@Emplace_re

; 1924 :         return static_cast<size_type>(_My_data._Myend - _My_data._Myfirst);

  00069	8b 4f 08	 mov	 ecx, DWORD PTR [edi+8]

; 889  :         }
; 890  : 
; 891  :         const size_type _Newsize = _Oldsize + 1;

  0006c	8d 58 01	 lea	 ebx, DWORD PTR [eax+1]

; 1924 :         return static_cast<size_type>(_My_data._Myend - _My_data._Myfirst);

  0006f	2b ce		 sub	 ecx, esi

; 889  :         }
; 890  : 
; 891  :         const size_type _Newsize = _Oldsize + 1;

  00071	89 5d e4	 mov	 DWORD PTR __Newsize$1$[ebp], ebx

; 1924 :         return static_cast<size_type>(_My_data._Myend - _My_data._Myfirst);

  00074	b8 67 66 66 66	 mov	 eax, 1717986919		; 66666667H
  00079	f7 e9		 imul	 ecx

; 2011 :         if (_Oldcapacity > _Max - _Oldcapacity / 2) {

  0007b	b8 cc cc cc 0c	 mov	 eax, 214748364		; 0cccccccH

; 1924 :         return static_cast<size_type>(_My_data._Myend - _My_data._Myfirst);

  00080	c1 fa 03	 sar	 edx, 3
  00083	8b ca		 mov	 ecx, edx
  00085	c1 e9 1f	 shr	 ecx, 31			; 0000001fH
  00088	03 ca		 add	 ecx, edx

; 2011 :         if (_Oldcapacity > _Max - _Oldcapacity / 2) {

  0008a	8b d1		 mov	 edx, ecx
  0008c	d1 ea		 shr	 edx, 1
  0008e	2b c2		 sub	 eax, edx
  00090	3b c8		 cmp	 ecx, eax
  00092	76 19		 jbe	 SHORT $LN8@Emplace_re

; 2012 :             return _Max; // geometric growth would overflow

  00094	b8 f0 ff ff ff	 mov	 eax, -16		; fffffff0H
  00099	c7 45 f0 f0 ff
	ff ff		 mov	 DWORD PTR tv576[ebp], -16 ; fffffff0H
; File C:\Program Files\Microsoft Visual Studio\2022\Professional\VC\Tools\MSVC\14.44.35207\include\xmemory

; 253  :             return _Allocate_manually_vector_aligned<_Traits>(_Bytes);

  000a0	50		 push	 eax
; File C:\Program Files\Microsoft Visual Studio\2022\Professional\VC\Tools\MSVC\14.44.35207\include\vector

; 2012 :             return _Max; // geometric growth would overflow

  000a1	be cc cc cc 0c	 mov	 esi, 214748364		; 0cccccccH
; File C:\Program Files\Microsoft Visual Studio\2022\Professional\VC\Tools\MSVC\14.44.35207\include\xmemory

; 253  :             return _Allocate_manually_vector_aligned<_Traits>(_Bytes);

  000a6	e8 00 00 00 00	 call	 ??$_Allocate_manually_vector_aligned@U_Default_allocate_traits@std@@@std@@YAPAXI@Z ; std::_Allocate_manually_vector_aligned<std::_Default_allocate_traits>
  000ab	eb 3c		 jmp	 SHORT $LN117@Emplace_re
$LN8@Emplace_re:
; File C:\Program Files\Microsoft Visual Studio\2022\Professional\VC\Tools\MSVC\14.44.35207\include\vector

; 2015 :         const size_type _Geometric = _Oldcapacity + _Oldcapacity / 2;

  000ad	8d 04 0a	 lea	 eax, DWORD PTR [edx+ecx]
; File C:\Program Files\Microsoft Visual Studio\2022\Professional\VC\Tools\MSVC\14.44.35207\include\xmemory

; 117  :         if (_Count > _Max_possible) {

  000b0	8b f3		 mov	 esi, ebx
  000b2	3b c3		 cmp	 eax, ebx
  000b4	0f 43 f0	 cmovae	 esi, eax
  000b7	81 fe cc cc cc
	0c		 cmp	 esi, 214748364		; 0cccccccH
  000bd	0f 87 34 01 00
	00		 ja	 $LN120@Emplace_re

; 119  :         }
; 120  :     }
; 121  : 
; 122  :     return _Count * _Ty_size;

  000c3	8d 04 b6	 lea	 eax, DWORD PTR [esi+esi*4]
  000c6	c1 e0 02	 shl	 eax, 2
  000c9	89 45 f0	 mov	 DWORD PTR tv576[ebp], eax

; 227  :     if (_Bytes == 0) {

  000cc	85 c0		 test	 eax, eax
  000ce	75 04		 jne	 SHORT $LN23@Emplace_re

; 228  :         return nullptr;

  000d0	33 db		 xor	 ebx, ebx
  000d2	eb 1a		 jmp	 SHORT $LN22@Emplace_re
$LN23@Emplace_re:

; 229  :     }
; 230  : 
; 231  : #if _HAS_CXX20 // TRANSITION, GH-1532
; 232  :     if (_STD is_constant_evaluated()) {
; 233  :         return _Traits::_Allocate(_Bytes);
; 234  :     }
; 235  : #endif // _HAS_CXX20
; 236  : 
; 237  : #ifdef __cpp_aligned_new
; 238  :     if constexpr (_Align > __STDCPP_DEFAULT_NEW_ALIGNMENT__) {
; 239  :         size_t _Passed_align = _Align;
; 240  : #if defined(_M_IX86) || defined(_M_X64)
; 241  :         if (_Bytes >= _Big_allocation_threshold) {
; 242  :             // boost the alignment of big allocations to help autovectorization
; 243  :             _Passed_align = (_STD max)(_Align, _Big_allocation_alignment);
; 244  :         }
; 245  : #endif // defined(_M_IX86) || defined(_M_X64)
; 246  :         return _Traits::_Allocate_aligned(_Bytes, _Passed_align);
; 247  :     } else
; 248  : #endif // defined(__cpp_aligned_new)
; 249  :     {
; 250  : #if defined(_M_IX86) || defined(_M_X64)
; 251  :         if (_Bytes >= _Big_allocation_threshold) {

  000d4	3d 00 10 00 00	 cmp	 eax, 4096		; 00001000H
  000d9	72 08		 jb	 SHORT $LN24@Emplace_re

; 253  :             return _Allocate_manually_vector_aligned<_Traits>(_Bytes);

  000db	50		 push	 eax
  000dc	e8 00 00 00 00	 call	 ??$_Allocate_manually_vector_aligned@U_Default_allocate_traits@std@@@std@@YAPAXI@Z ; std::_Allocate_manually_vector_aligned<std::_Default_allocate_traits>
  000e1	eb 06		 jmp	 SHORT $LN117@Emplace_re
$LN24@Emplace_re:

; 136  :         return ::operator new(_Bytes);

  000e3	50		 push	 eax
  000e4	e8 00 00 00 00	 call	 ??2@YAPAXI@Z		; operator new
$LN117@Emplace_re:
; File C:\Program Files\Microsoft Visual Studio\2022\Professional\VC\Tools\MSVC\14.44.35207\include\vector

; 895  :         const pointer _Constructed_last = _Newvec + _Whereoff + 1;

  000e9	8b d8		 mov	 ebx, eax
  000eb	83 c4 04	 add	 esp, 4
$LN22@Emplace_re:
  000ee	8b 45 ec	 mov	 eax, DWORD PTR __Whereoff$1$[ebp]

; 896  : 
; 897  :         _Reallocation_guard _Guard{_Al, _Newvec, _Newcapacity, _Constructed_last, _Constructed_last};

  000f1	89 7d cc	 mov	 DWORD PTR __Guard$[ebp], edi
  000f4	89 5d d0	 mov	 DWORD PTR __Guard$[ebp+4], ebx
  000f7	89 75 d4	 mov	 DWORD PTR __Guard$[ebp+8], esi
  000fa	8d 04 80	 lea	 eax, DWORD PTR [eax+eax*4]
  000fd	8d 0c 83	 lea	 ecx, DWORD PTR [ebx+eax*4]
  00100	8d 41 14	 lea	 eax, DWORD PTR [ecx+20]
  00103	89 4d e0	 mov	 DWORD PTR tv575[ebp], ecx
  00106	89 45 ec	 mov	 DWORD PTR $T2[ebp], eax
  00109	89 45 d8	 mov	 DWORD PTR __Guard$[ebp+12], eax
  0010c	89 45 dc	 mov	 DWORD PTR __Guard$[ebp+16], eax

; 898  :         auto& _Constructed_first = _Guard._Constructed_first;
; 899  : 
; 900  :         _Alty_traits::construct(_Al, _STD _Unfancy(_Newvec + _Whereoff), _STD forward<_Valty>(_Val)...);

  0010f	ff 75 0c	 push	 DWORD PTR _<_Val_0>$[ebp]
  00112	c7 45 fc 00 00
	00 00		 mov	 DWORD PTR __$EHRec$[ebp+8], 0
  00119	51		 push	 ecx
  0011a	57		 push	 edi
  0011b	e8 00 00 00 00	 call	 ??$construct@U_RANDOM_OPTION@@ABU1@@?$_Default_allocator_traits@V?$allocator@U_RANDOM_OPTION@@@std@@@std@@SAXAAV?$allocator@U_RANDOM_OPTION@@@1@QAU_RANDOM_OPTION@@ABU3@@Z ; std::_Default_allocator_traits<std::allocator<_RANDOM_OPTION> >::construct<_RANDOM_OPTION,_RANDOM_OPTION const &>

; 901  :         _Constructed_first = _Newvec + _Whereoff;
; 902  : 
; 903  :         if (_Whereptr == _Mylast) { // at back, provide strong guarantee

  00120	8b 57 04	 mov	 edx, DWORD PTR [edi+4]
  00123	83 c4 0c	 add	 esp, 12			; 0000000cH
  00126	8b 75 08	 mov	 esi, DWORD PTR __Whereptr$[ebp]
  00129	8b 0f		 mov	 ecx, DWORD PTR [edi]
  0012b	3b f2		 cmp	 esi, edx
  0012d	75 04		 jne	 SHORT $LN3@Emplace_re

; 904  :             if constexpr (is_nothrow_move_constructible_v<_Ty> || !is_copy_constructible_v<_Ty>) {
; 905  :                 _STD _Uninitialized_move(_Myfirst, _Mylast, _Newvec, _Al);

  0012f	8b c3		 mov	 eax, ebx

; 906  :             } else {
; 907  :                 _STD _Uninitialized_copy(_Myfirst, _Mylast, _Newvec, _Al);
; 908  :             }
; 909  :         } else { // provide basic guarantee

  00131	eb 14		 jmp	 SHORT $LN4@Emplace_re
$LN3@Emplace_re:

; 910  :             _STD _Uninitialized_move(_Myfirst, _Whereptr, _Newvec, _Al);

  00133	57		 push	 edi
  00134	53		 push	 ebx
  00135	56		 push	 esi
  00136	51		 push	 ecx
  00137	e8 00 00 00 00	 call	 ??$_Uninitialized_move@PAU_RANDOM_OPTION@@V?$allocator@U_RANDOM_OPTION@@@std@@@std@@YAPAU_RANDOM_OPTION@@QAU1@0PAU1@AAV?$allocator@U_RANDOM_OPTION@@@0@@Z ; std::_Uninitialized_move<_RANDOM_OPTION *,std::allocator<_RANDOM_OPTION> >

; 911  :             _Constructed_first = _Newvec;
; 912  :             _STD _Uninitialized_move(_Whereptr, _Mylast, _Newvec + _Whereoff + 1, _Al);

  0013c	8b 57 04	 mov	 edx, DWORD PTR [edi+4]
  0013f	83 c4 10	 add	 esp, 16			; 00000010H
  00142	8b 45 ec	 mov	 eax, DWORD PTR $T2[ebp]
  00145	8b ce		 mov	 ecx, esi
$LN4@Emplace_re:

; 913  :         }
; 914  : 
; 915  :         _Guard._New_begin = nullptr;

  00147	57		 push	 edi
  00148	50		 push	 eax
  00149	52		 push	 edx
  0014a	51		 push	 ecx
  0014b	e8 00 00 00 00	 call	 ??$_Uninitialized_move@PAU_RANDOM_OPTION@@V?$allocator@U_RANDOM_OPTION@@@std@@@std@@YAPAU_RANDOM_OPTION@@QAU1@0PAU1@AAV?$allocator@U_RANDOM_OPTION@@@0@@Z ; std::_Uninitialized_move<_RANDOM_OPTION *,std::allocator<_RANDOM_OPTION> >

; 2069 :         if (_Myfirst) { // destroy and deallocate old array

  00150	8b 37		 mov	 esi, DWORD PTR [edi]

; 913  :         }
; 914  : 
; 915  :         _Guard._New_begin = nullptr;

  00152	83 c4 10	 add	 esp, 16			; 00000010H

; 2069 :         if (_Myfirst) { // destroy and deallocate old array

  00155	85 f6		 test	 esi, esi
  00157	74 5d		 je	 SHORT $LN59@Emplace_re

; 2070 :             _STD _Destroy_range(_Myfirst, _Mylast, _Al);

  00159	8b 47 04	 mov	 eax, DWORD PTR [edi+4]
; File C:\Program Files\Microsoft Visual Studio\2022\Professional\VC\Tools\MSVC\14.44.35207\include\xmemory

; 1102 :         for (; _First != _Last; ++_First) {

  0015c	3b f0		 cmp	 esi, eax
  0015e	74 14		 je	 SHORT $LN36@Emplace_re
  00160	8b f8		 mov	 edi, eax
$LL37@Emplace_re:
; File C:\Program Files\Microsoft Visual Studio\2022\Professional\VC\Tools\MSVC\14.44.35207\include\vector

; 830  :         _Tidy();

  00162	8d 4e 08	 lea	 ecx, DWORD PTR [esi+8]
  00165	e8 00 00 00 00	 call	 ?_Tidy@?$vector@U_AdjData@@V?$allocator@U_AdjData@@@std@@@std@@AAEXXZ ; std::vector<_AdjData,std::allocator<_AdjData> >::_Tidy
; File C:\Program Files\Microsoft Visual Studio\2022\Professional\VC\Tools\MSVC\14.44.35207\include\xmemory

; 1102 :         for (; _First != _Last; ++_First) {

  0016a	83 c6 14	 add	 esi, 20			; 00000014H
  0016d	3b f7		 cmp	 esi, edi
  0016f	75 f1		 jne	 SHORT $LL37@Emplace_re
  00171	8b 7d e8	 mov	 edi, DWORD PTR _this$1$[ebp]
$LN36@Emplace_re:
; File C:\Program Files\Microsoft Visual Studio\2022\Professional\VC\Tools\MSVC\14.44.35207\include\vector

; 2072 :             _Al.deallocate(_Myfirst, static_cast<size_type>(_Myend - _Myfirst));

  00174	8b 4f 08	 mov	 ecx, DWORD PTR [edi+8]
  00177	b8 67 66 66 66	 mov	 eax, 1717986919		; 66666667H
  0017c	8b 37		 mov	 esi, DWORD PTR [edi]
  0017e	2b ce		 sub	 ecx, esi
  00180	f7 e9		 imul	 ecx
  00182	c1 fa 03	 sar	 edx, 3
  00185	8b c2		 mov	 eax, edx
  00187	c1 e8 1f	 shr	 eax, 31			; 0000001fH
  0018a	03 c2		 add	 eax, edx
; File C:\Program Files\Microsoft Visual Studio\2022\Professional\VC\Tools\MSVC\14.44.35207\include\xmemory

; 985  :         _STD _Deallocate<_New_alignof<_Ty>>(_Ptr, sizeof(_Ty) * _Count);

  0018c	8d 0c 80	 lea	 ecx, DWORD PTR [eax+eax*4]
  0018f	c1 e1 02	 shl	 ecx, 2

; 284  :         if (_Bytes >= _Big_allocation_threshold) {

  00192	81 f9 00 10 00
	00		 cmp	 ecx, 4096		; 00001000H
  00198	72 12		 jb	 SHORT $LN64@Emplace_re

; 205  :     const uintptr_t _Ptr_container   = _Ptr_user[-1];

  0019a	8b 56 fc	 mov	 edx, DWORD PTR [esi-4]
  0019d	83 c1 23	 add	 ecx, 35			; 00000023H

; 206  : 
; 207  :     // If the following asserts, it likely means that we are performing
; 208  :     // an aligned delete on memory coming from an unaligned allocation.
; 209  :     _STL_ASSERT(_Ptr_user[-2] == _Big_allocation_sentinel, "invalid argument");
; 210  : 
; 211  :     // Extra paranoia on aligned allocation/deallocation; ensure _Ptr_container is
; 212  :     // in range [_Min_back_shift, _Non_user_size]
; 213  : #ifdef _DEBUG
; 214  :     constexpr uintptr_t _Min_back_shift = 2 * sizeof(void*);
; 215  : #else // ^^^ defined(_DEBUG) / !defined(_DEBUG) vvv
; 216  :     constexpr uintptr_t _Min_back_shift = sizeof(void*);
; 217  : #endif // ^^^ !defined(_DEBUG) ^^^
; 218  :     const uintptr_t _Back_shift = reinterpret_cast<uintptr_t>(_Ptr) - _Ptr_container;

  001a0	2b f2		 sub	 esi, edx

; 219  :     _STL_VERIFY(_Back_shift >= _Min_back_shift && _Back_shift <= _Non_user_size, "invalid argument");

  001a2	8d 46 fc	 lea	 eax, DWORD PTR [esi-4]
  001a5	83 f8 1f	 cmp	 eax, 31			; 0000001fH
  001a8	77 39		 ja	 SHORT $LN63@Emplace_re

; 220  :     _Ptr = reinterpret_cast<void*>(_Ptr_container);

  001aa	8b f2		 mov	 esi, edx
$LN64@Emplace_re:

; 289  :         ::operator delete(_Ptr, _Bytes);

  001ac	51		 push	 ecx
  001ad	56		 push	 esi
  001ae	e8 00 00 00 00	 call	 ??3@YAXPAXI@Z		; operator delete
  001b3	83 c4 08	 add	 esp, 8
$LN59@Emplace_re:
; File C:\Program Files\Microsoft Visual Studio\2022\Professional\VC\Tools\MSVC\14.44.35207\include\vector

; 2076 :         _Mylast  = _Newvec + _Newsize;

  001b6	8b 4d e4	 mov	 ecx, DWORD PTR __Newsize$1$[ebp]

; 916  :         _Change_array(_Newvec, _Newsize, _Newcapacity);
; 917  :         return _Newvec + _Whereoff;

  001b9	8b 45 e0	 mov	 eax, DWORD PTR tv575[ebp]

; 2075 :         _Myfirst = _Newvec;

  001bc	89 1f		 mov	 DWORD PTR [edi], ebx

; 2076 :         _Mylast  = _Newvec + _Newsize;

  001be	8d 0c 89	 lea	 ecx, DWORD PTR [ecx+ecx*4]
  001c1	8d 0c 8b	 lea	 ecx, DWORD PTR [ebx+ecx*4]
  001c4	89 4f 04	 mov	 DWORD PTR [edi+4], ecx

; 2077 :         _Myend   = _Newvec + _Newcapacity;

  001c7	8b 4d f0	 mov	 ecx, DWORD PTR tv576[ebp]
  001ca	03 cb		 add	 ecx, ebx
  001cc	89 4f 08	 mov	 DWORD PTR [edi+8], ecx

; 918  :     }

  001cf	8b 4d f4	 mov	 ecx, DWORD PTR __$EHRec$[ebp]
  001d2	64 89 0d 00 00
	00 00		 mov	 DWORD PTR fs:0, ecx
  001d9	59		 pop	 ecx
  001da	5f		 pop	 edi
  001db	5e		 pop	 esi
  001dc	5b		 pop	 ebx
  001dd	8b e5		 mov	 esp, ebp
  001df	5d		 pop	 ebp
  001e0	c2 08 00	 ret	 8
$LN63@Emplace_re:
; File C:\Program Files\Microsoft Visual Studio\2022\Professional\VC\Tools\MSVC\14.44.35207\include\xmemory

; 219  :     _STL_VERIFY(_Back_shift >= _Min_back_shift && _Back_shift <= _Non_user_size, "invalid argument");

  001e3	6a 00		 push	 0
  001e5	6a 00		 push	 0
  001e7	6a 00		 push	 0
  001e9	6a 00		 push	 0
  001eb	6a 00		 push	 0
  001ed	e8 00 00 00 00	 call	 __invoke_watson
$LN119@Emplace_re:
; File C:\Program Files\Microsoft Visual Studio\2022\Professional\VC\Tools\MSVC\14.44.35207\include\vector

; 888  :             _Xlength();

  001f2	e8 00 00 00 00	 call	 ?_Xlength@?$vector@U_RANDOM_OPTION@@V?$allocator@U_RANDOM_OPTION@@@std@@@std@@CAXXZ ; std::vector<_RANDOM_OPTION,std::allocator<_RANDOM_OPTION> >::_Xlength
$LN120@Emplace_re:
; File C:\Program Files\Microsoft Visual Studio\2022\Professional\VC\Tools\MSVC\14.44.35207\include\xmemory

; 118  :             _Throw_bad_array_new_length(); // multiply overflow

  001f7	e8 00 00 00 00	 call	 ?_Throw_bad_array_new_length@std@@YAXXZ ; std::_Throw_bad_array_new_length
$LN116@Emplace_re:
  001fc	cc		 int	 3
_TEXT	ENDS
;	COMDAT text$x
text$x	SEGMENT
__unwindfunclet$??$_Emplace_reallocate@ABU_RANDOM_OPTION@@@?$vector@U_RANDOM_OPTION@@V?$allocator@U_RANDOM_OPTION@@@std@@@std@@AAEPAU_RANDOM_OPTION@@QAU2@ABU2@@Z$0:
  00000	8d 4d cc	 lea	 ecx, DWORD PTR __Guard$[ebp]
  00003	e9 00 00 00 00	 jmp	 ??1_Reallocation_guard@?$vector@U_RANDOM_OPTION@@V?$allocator@U_RANDOM_OPTION@@@std@@@std@@QAE@XZ ; std::vector<_RANDOM_OPTION,std::allocator<_RANDOM_OPTION> >::_Reallocation_guard::~_Reallocation_guard
  00008	cc		 int	 3
  00009	cc		 int	 3
  0000a	cc		 int	 3
  0000b	cc		 int	 3
  0000c	cc		 int	 3
__ehhandler$??$_Emplace_reallocate@ABU_RANDOM_OPTION@@@?$vector@U_RANDOM_OPTION@@V?$allocator@U_RANDOM_OPTION@@@std@@@std@@AAEPAU_RANDOM_OPTION@@QAU2@ABU2@@Z:
  0000d	90		 npad	 1
  0000e	90		 npad	 1
  0000f	8b 54 24 08	 mov	 edx, DWORD PTR [esp+8]
  00013	8d 42 0c	 lea	 eax, DWORD PTR [edx+12]
  00016	8b 4a c8	 mov	 ecx, DWORD PTR [edx-56]
  00019	33 c8		 xor	 ecx, eax
  0001b	e8 00 00 00 00	 call	 @__security_check_cookie@4
  00020	b8 00 00 00 00	 mov	 eax, OFFSET __ehfuncinfo$??$_Emplace_reallocate@ABU_RANDOM_OPTION@@@?$vector@U_RANDOM_OPTION@@V?$allocator@U_RANDOM_OPTION@@@std@@@std@@AAEPAU_RANDOM_OPTION@@QAU2@ABU2@@Z
  00025	e9 00 00 00 00	 jmp	 ___CxxFrameHandler3
text$x	ENDS
??$_Emplace_reallocate@ABU_RANDOM_OPTION@@@?$vector@U_RANDOM_OPTION@@V?$allocator@U_RANDOM_OPTION@@@std@@@std@@AAEPAU_RANDOM_OPTION@@QAU2@ABU2@@Z ENDP ; std::vector<_RANDOM_OPTION,std::allocator<_RANDOM_OPTION> >::_Emplace_reallocate<_RANDOM_OPTION const &>
; Function compile flags: /Ogtp
; File C:\Program Files\Microsoft Visual Studio\2022\Professional\VC\Tools\MSVC\14.44.35207\include\xutility
;	COMDAT ??$_Copy_memmove_n@PAU_AdjData@@PAU1@@std@@YAPAU_AdjData@@PAU1@I0@Z
_TEXT	SEGMENT
__First$ = 8						; size = 4
__Object_count$ = 12					; size = 4
__Dest$ = 16						; size = 4
??$_Copy_memmove_n@PAU_AdjData@@PAU1@@std@@YAPAU_AdjData@@PAU1@I0@Z PROC ; std::_Copy_memmove_n<_AdjData *,_AdjData *>, COMDAT

; 4774 : _OutCtgIt _Copy_memmove_n(_CtgIt _First, const size_t _Object_count, _OutCtgIt _Dest) {

  00000	55		 push	 ebp
  00001	8b ec		 mov	 ebp, esp

; 4775 :     const auto _First_ptr  = _STD _To_address(_First);
; 4776 :     const auto _First_ch   = const_cast<const char*>(reinterpret_cast<const volatile char*>(_First_ptr));
; 4777 :     const auto _Byte_count = _Object_count * sizeof(*_First_ptr);
; 4778 :     return _STD _Copy_memmove_tail(_First_ch, _STD move(_Dest), _Byte_count, _Object_count);

  00003	8b 45 0c	 mov	 eax, DWORD PTR __Object_count$[ebp]
  00006	50		 push	 eax
  00007	c1 e0 03	 shl	 eax, 3
  0000a	50		 push	 eax
  0000b	ff 75 10	 push	 DWORD PTR __Dest$[ebp]
  0000e	ff 75 08	 push	 DWORD PTR __First$[ebp]
  00011	e8 00 00 00 00	 call	 ??$_Copy_memmove_tail@PAU_AdjData@@@std@@YAPAU_AdjData@@QBDQAU1@II@Z ; std::_Copy_memmove_tail<_AdjData *>
  00016	83 c4 10	 add	 esp, 16			; 00000010H

; 4779 : }

  00019	5d		 pop	 ebp
  0001a	c3		 ret	 0
??$_Copy_memmove_n@PAU_AdjData@@PAU1@@std@@YAPAU_AdjData@@PAU1@I0@Z ENDP ; std::_Copy_memmove_n<_AdjData *,_AdjData *>
_TEXT	ENDS
; Function compile flags: /Ogtp
;	COMDAT ??__FsRandomOptionProperty@?1??GetInstance@CRandomOptionProperty@@SAPAV1@XZ@YAXXZ
text$yd	SEGMENT
??__FsRandomOptionProperty@?1??GetInstance@CRandomOptionProperty@@SAPAV1@XZ@YAXXZ PROC ; `CRandomOptionProperty::GetInstance'::`2'::`dynamic atexit destructor for 'sRandomOptionProperty'', COMDAT
  00000	b9 00 00 00 00	 mov	 ecx, OFFSET ?sRandomOptionProperty@?1??GetInstance@CRandomOptionProperty@@SAPAV2@XZ@4V2@A
  00005	e9 00 00 00 00	 jmp	 ??1CRandomOptionProperty@@UAE@XZ ; CRandomOptionProperty::~CRandomOptionProperty
??__FsRandomOptionProperty@?1??GetInstance@CRandomOptionProperty@@SAPAV1@XZ@YAXXZ ENDP ; `CRandomOptionProperty::GetInstance'::`2'::`dynamic atexit destructor for 'sRandomOptionProperty''
text$yd	ENDS
; Function compile flags: /Ogtp
;	COMDAT ??_GCRandomOptionProperty@@UAEPAXI@Z
_TEXT	SEGMENT
___flags$ = 8						; size = 4
??_GCRandomOptionProperty@@UAEPAXI@Z PROC		; CRandomOptionProperty::`scalar deleting destructor', COMDAT
; _this$ = ecx
  00000	55		 push	 ebp
  00001	8b ec		 mov	 ebp, esp
  00003	56		 push	 esi
  00004	8b f1		 mov	 esi, ecx
  00006	e8 00 00 00 00	 call	 ??1CRandomOptionProperty@@UAE@XZ ; CRandomOptionProperty::~CRandomOptionProperty
  0000b	f6 45 08 01	 test	 BYTE PTR ___flags$[ebp], 1
  0000f	74 0e		 je	 SHORT $LN5@scalar
  00011	68 88 00 00 00	 push	 136			; 00000088H
  00016	56		 push	 esi
  00017	e8 00 00 00 00	 call	 ??3@YAXPAXI@Z		; operator delete
  0001c	83 c4 08	 add	 esp, 8
$LN5@scalar:
  0001f	8b c6		 mov	 eax, esi
  00021	5e		 pop	 esi
  00022	5d		 pop	 ebp
  00023	c2 04 00	 ret	 4
??_GCRandomOptionProperty@@UAEPAXI@Z ENDP		; CRandomOptionProperty::`scalar deleting destructor'
_TEXT	ENDS
; Function compile flags: /Ogtp
; File C:\IAGOS\server\v18\Source\Source\_Common\randomoption.cpp
;	COMDAT ?MergeRandomOption@CRandomOptionProperty@@QAEHPAVCItemElem@@0H@Z
_TEXT	SEGMENT
tv143 = -4						; size = 4
_pItemElemMain$ = 8					; size = 4
_nAdj$1 = 8						; size = 4
_pItemElemDestroy$ = 12					; size = 4
_nDst$2 = 12						; size = 4
_nMaxCombinedSize$ = 16					; size = 4
?MergeRandomOption@CRandomOptionProperty@@QAEHPAVCItemElem@@0H@Z PROC ; CRandomOptionProperty::MergeRandomOption, COMDAT
; _this$ = ecx

; 416  : {

  00000	55		 push	 ebp
  00001	8b ec		 mov	 ebp, esp
  00003	51		 push	 ecx

; 417  : 	int nMainSize = g_xRandomOptionProperty->GetRandomOptionSize( pItemElemMain->GetRandomOptItemId() );

  00004	8b 45 08	 mov	 eax, DWORD PTR _pItemElemMain$[ebp]
  00007	53		 push	 ebx
  00008	05 90 00 00 00	 add	 eax, 144		; 00000090H
  0000d	56		 push	 esi
  0000e	57		 push	 edi
  0000f	89 45 fc	 mov	 DWORD PTR tv143[ebp], eax
  00012	ff 70 04	 push	 DWORD PTR [eax+4]
  00015	ff 30		 push	 DWORD PTR [eax]
  00017	e8 00 00 00 00	 call	 ?GetInstance@CRandomOptionProperty@@SAPAV1@XZ ; CRandomOptionProperty::GetInstance
  0001c	8b c8		 mov	 ecx, eax
  0001e	e8 00 00 00 00	 call	 ?GetRandomOptionSize@CRandomOptionProperty@@QAEH_J@Z ; CRandomOptionProperty::GetRandomOptionSize

; 418  : 	int nDestroySize = g_xRandomOptionProperty->GetRandomOptionSize( pItemElemDestroy->GetRandomOptItemId() );

  00023	8b 5d 0c	 mov	 ebx, DWORD PTR _pItemElemDestroy$[ebp]
  00026	8b f0		 mov	 esi, eax
  00028	ff b3 94 00 00
	00		 push	 DWORD PTR [ebx+148]
  0002e	ff b3 90 00 00
	00		 push	 DWORD PTR [ebx+144]
  00034	e8 00 00 00 00	 call	 ?GetInstance@CRandomOptionProperty@@SAPAV1@XZ ; CRandomOptionProperty::GetInstance
  00039	8b c8		 mov	 ecx, eax
  0003b	e8 00 00 00 00	 call	 ?GetRandomOptionSize@CRandomOptionProperty@@QAEH_J@Z ; CRandomOptionProperty::GetRandomOptionSize
  00040	8b f8		 mov	 edi, eax

; 419  : 
; 420  : 	if( nMainSize + nDestroySize > nMaxCombinedSize )

  00042	8d 0c 37	 lea	 ecx, DWORD PTR [edi+esi]
  00045	3b 4d 10	 cmp	 ecx, DWORD PTR _nMaxCombinedSize$[ebp]
  00048	7e 0e		 jle	 SHORT $LN5@MergeRando

; 428  : 	}
; 429  : 	return 0;
; 430  : }

  0004a	5f		 pop	 edi
  0004b	5e		 pop	 esi
  0004c	b8 01 00 00 00	 mov	 eax, 1
  00051	5b		 pop	 ebx
  00052	8b e5		 mov	 esp, ebp
  00054	5d		 pop	 ebp
  00055	c2 0c 00	 ret	 12			; 0000000cH
$LN5@MergeRando:

; 421  : 		return 1;
; 422  : 
; 423  : 	for( int i = 0; i < nDestroySize; i++ )

  00058	33 f6		 xor	 esi, esi
  0005a	85 ff		 test	 edi, edi
  0005c	7e 41		 jle	 SHORT $LN3@MergeRando
  0005e	66 90		 npad	 2
$LL4@MergeRando:

; 424  : 	{
; 425  : 		int nDst, nAdj;
; 426  : 		if( g_xRandomOptionProperty->GetParam( pItemElemDestroy->GetRandomOptItemId(), i, &nDst, &nAdj ) )

  00060	8d 45 08	 lea	 eax, DWORD PTR _nAdj$1[ebp]
  00063	50		 push	 eax
  00064	8d 45 0c	 lea	 eax, DWORD PTR _nDst$2[ebp]
  00067	50		 push	 eax
  00068	56		 push	 esi
  00069	ff b3 94 00 00
	00		 push	 DWORD PTR [ebx+148]
  0006f	ff b3 90 00 00
	00		 push	 DWORD PTR [ebx+144]
  00075	e8 00 00 00 00	 call	 ?GetInstance@CRandomOptionProperty@@SAPAV1@XZ ; CRandomOptionProperty::GetInstance
  0007a	8b c8		 mov	 ecx, eax
  0007c	e8 00 00 00 00	 call	 ?GetParam@CRandomOptionProperty@@QAEH_JHPAH1@Z ; CRandomOptionProperty::GetParam
  00081	85 c0		 test	 eax, eax
  00083	74 15		 je	 SHORT $LN2@MergeRando

; 427  : 			g_xRandomOptionProperty->SetParam( pItemElemMain->GetRandomOptItemIdPtr(), nDst, nAdj );

  00085	ff 75 08	 push	 DWORD PTR _nAdj$1[ebp]
  00088	ff 75 0c	 push	 DWORD PTR _nDst$2[ebp]
  0008b	ff 75 fc	 push	 DWORD PTR tv143[ebp]
  0008e	e8 00 00 00 00	 call	 ?GetInstance@CRandomOptionProperty@@SAPAV1@XZ ; CRandomOptionProperty::GetInstance
  00093	8b c8		 mov	 ecx, eax
  00095	e8 00 00 00 00	 call	 ?SetParam@CRandomOptionProperty@@QAEXPA_JHH@Z ; CRandomOptionProperty::SetParam
$LN2@MergeRando:

; 421  : 		return 1;
; 422  : 
; 423  : 	for( int i = 0; i < nDestroySize; i++ )

  0009a	46		 inc	 esi
  0009b	3b f7		 cmp	 esi, edi
  0009d	7c c1		 jl	 SHORT $LL4@MergeRando
$LN3@MergeRando:
  0009f	5f		 pop	 edi

; 428  : 	}
; 429  : 	return 0;
; 430  : }

  000a0	5e		 pop	 esi
  000a1	33 c0		 xor	 eax, eax
  000a3	5b		 pop	 ebx
  000a4	8b e5		 mov	 esp, ebp
  000a6	5d		 pop	 ebp
  000a7	c2 0c 00	 ret	 12			; 0000000cH
?MergeRandomOption@CRandomOptionProperty@@QAEHPAVCItemElem@@0H@Z ENDP ; CRandomOptionProperty::MergeRandomOption
_TEXT	ENDS
; Function compile flags: /Ogtp
; File C:\IAGOS\server\v18\Source\Source\_Common\randomoption.cpp
;	COMDAT ?ResetSafeFlag@CRandomOptionProperty@@QAEXPA_J@Z
_TEXT	SEGMENT
_pn64RandomOption$ = 8					; size = 4
?ResetSafeFlag@CRandomOptionProperty@@QAEXPA_J@Z PROC	; CRandomOptionProperty::ResetSafeFlag, COMDAT
; _this$ = ecx

; 378  : {

  00000	55		 push	 ebp
  00001	8b ec		 mov	 ebp, esp
  00003	56		 push	 esi

; 379  : 	if( pn64RandomOption == NULL )

  00004	8b 75 08	 mov	 esi, DWORD PTR _pn64RandomOption$[ebp]
  00007	85 f6		 test	 esi, esi
  00009	75 12		 jne	 SHORT $LN2@ResetSafeF

; 380  : 	{
; 381  : 		WriteLog( "pn64RandomOption is NULL in ResetSafeFlag function" );

  0000b	68 00 00 00 00	 push	 OFFSET ??_C@_0DD@LJDGNMPF@pn64RandomOption?5is?5NULL?5in?5Res@
  00010	e8 00 00 00 00	 call	 ?WriteLog@@YAXPBDZZ	; WriteLog
  00015	83 c4 04	 add	 esp, 4
  00018	5e		 pop	 esi

; 395  : 		}
; 396  : 	}
; 397  : 
; 398  : 	return;
; 399  : }

  00019	5d		 pop	 ebp
  0001a	c2 04 00	 ret	 4
$LN2@ResetSafeF:
  0001d	53		 push	 ebx

; 382  : 	}
; 383  : 	else
; 384  : 	{
; 385  : 		bool	bCheckedSafeFalg = false;
; 386  : 		bCheckedSafeFalg	= IsCheckedSafeFlag( *pn64RandomOption );

  0001e	8b 1e		 mov	 ebx, DWORD PTR [esi]
  00020	57		 push	 edi
  00021	8b 7e 04	 mov	 edi, DWORD PTR [esi+4]
  00024	57		 push	 edi
  00025	53		 push	 ebx
  00026	e8 00 00 00 00	 call	 ?IsCheckedSafeFlag@CRandomOptionProperty@@QAE_N_J@Z ; CRandomOptionProperty::IsCheckedSafeFlag

; 387  : 
; 388  : 		if( bCheckedSafeFalg == true )

  0002b	3c 01		 cmp	 al, 1
  0002d	75 12		 jne	 SHORT $LN4@ResetSafeF

; 389  : 		{
; 390  : 			*pn64RandomOption = *pn64RandomOption & ~(_AWAKE_SAFE_FLAG);

  0002f	81 e7 ff ff ff
	df		 and	 edi, -536870913		; dfffffffH
  00035	89 1e		 mov	 DWORD PTR [esi], ebx
  00037	89 7e 04	 mov	 DWORD PTR [esi+4], edi
  0003a	5f		 pop	 edi
  0003b	5b		 pop	 ebx
  0003c	5e		 pop	 esi

; 395  : 		}
; 396  : 	}
; 397  : 
; 398  : 	return;
; 399  : }

  0003d	5d		 pop	 ebp
  0003e	c2 04 00	 ret	 4
$LN4@ResetSafeF:

; 391  : 		}
; 392  : 		else
; 393  : 		{
; 394  : 			WriteLog( "bCheckedSafeFlag is already false in ResetSafeFlag function." );

  00041	68 00 00 00 00	 push	 OFFSET ??_C@_0DN@MEFMADHD@bCheckedSafeFlag?5is?5already?5fal@
  00046	e8 00 00 00 00	 call	 ?WriteLog@@YAXPBDZZ	; WriteLog
  0004b	83 c4 04	 add	 esp, 4
  0004e	5f		 pop	 edi
  0004f	5b		 pop	 ebx
  00050	5e		 pop	 esi

; 395  : 		}
; 396  : 	}
; 397  : 
; 398  : 	return;
; 399  : }

  00051	5d		 pop	 ebp
  00052	c2 04 00	 ret	 4
?ResetSafeFlag@CRandomOptionProperty@@QAEXPA_J@Z ENDP	; CRandomOptionProperty::ResetSafeFlag
_TEXT	ENDS
; Function compile flags: /Ogtp
; File C:\IAGOS\server\v18\Source\Source\_Common\randomoption.cpp
;	COMDAT ?SetSafeFlag@CRandomOptionProperty@@QAEXPA_J@Z
_TEXT	SEGMENT
_pn64RandomOption$ = 8					; size = 4
?SetSafeFlag@CRandomOptionProperty@@QAEXPA_J@Z PROC	; CRandomOptionProperty::SetSafeFlag, COMDAT
; _this$ = ecx

; 354  : {

  00000	55		 push	 ebp
  00001	8b ec		 mov	 ebp, esp
  00003	56		 push	 esi

; 355  : 	if( pn64RandomOption == NULL )

  00004	8b 75 08	 mov	 esi, DWORD PTR _pn64RandomOption$[ebp]
  00007	85 f6		 test	 esi, esi
  00009	75 12		 jne	 SHORT $LN2@SetSafeFla

; 356  : 	{
; 357  : 		WriteLog( "pn64RandomOption is NULL in SetSafeFlag function" );

  0000b	68 00 00 00 00	 push	 OFFSET ??_C@_0DB@BIDMLGEE@pn64RandomOption?5is?5NULL?5in?5Set@
  00010	e8 00 00 00 00	 call	 ?WriteLog@@YAXPBDZZ	; WriteLog
  00015	83 c4 04	 add	 esp, 4
  00018	5e		 pop	 esi

; 371  : 		}
; 372  : 	}
; 373  : 
; 374  : 	return;
; 375  : }

  00019	5d		 pop	 ebp
  0001a	c2 04 00	 ret	 4
$LN2@SetSafeFla:
  0001d	53		 push	 ebx

; 358  : 	}
; 359  : 	else
; 360  : 	{
; 361  : 		bool	bCheckedSafeFlag = false;
; 362  : 		bCheckedSafeFlag	= IsCheckedSafeFlag( *pn64RandomOption );

  0001e	8b 1e		 mov	 ebx, DWORD PTR [esi]
  00020	57		 push	 edi
  00021	8b 7e 04	 mov	 edi, DWORD PTR [esi+4]
  00024	57		 push	 edi
  00025	53		 push	 ebx
  00026	e8 00 00 00 00	 call	 ?IsCheckedSafeFlag@CRandomOptionProperty@@QAE_N_J@Z ; CRandomOptionProperty::IsCheckedSafeFlag

; 363  : 
; 364  : 		if( bCheckedSafeFlag == true )

  0002b	3c 01		 cmp	 al, 1
  0002d	75 14		 jne	 SHORT $LN4@SetSafeFla

; 365  : 		{
; 366  : 			WriteLog( "bCheckedSafeFlag is already true in SetSafeFlag function." );

  0002f	68 00 00 00 00	 push	 OFFSET ??_C@_0DK@LIADPBBI@bCheckedSafeFlag?5is?5already?5tru@
  00034	e8 00 00 00 00	 call	 ?WriteLog@@YAXPBDZZ	; WriteLog
  00039	83 c4 04	 add	 esp, 4
  0003c	5f		 pop	 edi
  0003d	5b		 pop	 ebx
  0003e	5e		 pop	 esi

; 371  : 		}
; 372  : 	}
; 373  : 
; 374  : 	return;
; 375  : }

  0003f	5d		 pop	 ebp
  00040	c2 04 00	 ret	 4
$LN4@SetSafeFla:

; 367  : 		}
; 368  : 		else
; 369  : 		{
; 370  : 			*pn64RandomOption = *pn64RandomOption | _AWAKE_SAFE_FLAG;

  00043	81 cf 00 00 00
	20		 or	 edi, 536870912		; 20000000H
  00049	89 1e		 mov	 DWORD PTR [esi], ebx
  0004b	89 7e 04	 mov	 DWORD PTR [esi+4], edi
  0004e	5f		 pop	 edi
  0004f	5b		 pop	 ebx
  00050	5e		 pop	 esi

; 371  : 		}
; 372  : 	}
; 373  : 
; 374  : 	return;
; 375  : }

  00051	5d		 pop	 ebp
  00052	c2 04 00	 ret	 4
?SetSafeFlag@CRandomOptionProperty@@QAEXPA_J@Z ENDP	; CRandomOptionProperty::SetSafeFlag
_TEXT	ENDS
; Function compile flags: /Ogtp
; File C:\IAGOS\server\v18\Source\Source\_Common\randomoption.cpp
;	COMDAT ?IsCheckedSafeFlag@CRandomOptionProperty@@QAE_N_J@Z
_TEXT	SEGMENT
_n64RandomeOption$ = 8					; size = 8
?IsCheckedSafeFlag@CRandomOptionProperty@@QAE_N_J@Z PROC ; CRandomOptionProperty::IsCheckedSafeFlag, COMDAT
; _this$ = ecx

; 402  : {

  00000	55		 push	 ebp
  00001	8b ec		 mov	 ebp, esp

; 403  : 	if( (n64RandomeOption & _AWAKE_SAFE_FLAG) == _AWAKE_SAFE_FLAG )

  00003	8b 4d 0c	 mov	 ecx, DWORD PTR _n64RandomeOption$[ebp+4]
  00006	33 c0		 xor	 eax, eax
  00008	81 e1 00 00 00
	20		 and	 ecx, 536870912		; 20000000H
  0000e	0b c1		 or	 eax, ecx
  00010	74 06		 je	 SHORT $LN2@IsCheckedS

; 404  : 	{
; 405  : #ifdef __PROTECT_AWAKE
; 406  : 		return	true;

  00012	b0 01		 mov	 al, 1

; 411  : }

  00014	5d		 pop	 ebp
  00015	c2 08 00	 ret	 8
$LN2@IsCheckedS:

; 407  : #endif	
; 408  : 	}
; 409  : 
; 410  : 	return	false;

  00018	32 c0		 xor	 al, al

; 411  : }

  0001a	5d		 pop	 ebp
  0001b	c2 08 00	 ret	 8
?IsCheckedSafeFlag@CRandomOptionProperty@@QAE_N_J@Z ENDP ; CRandomOptionProperty::IsCheckedSafeFlag
_TEXT	ENDS
; Function compile flags: /Ogtp
; File C:\Program Files\Microsoft Visual Studio\2022\Professional\VC\Tools\MSVC\14.44.35207\include\vector
;	COMDAT ?_Xlength@?$vector@U_RANDOM_OPTION@@V?$allocator@U_RANDOM_OPTION@@@std@@@std@@CAXXZ
_TEXT	SEGMENT
?_Xlength@?$vector@U_RANDOM_OPTION@@V?$allocator@U_RANDOM_OPTION@@@std@@@std@@CAXXZ PROC ; std::vector<_RANDOM_OPTION,std::allocator<_RANDOM_OPTION> >::_Xlength, COMDAT

; 2184 :         _Xlength_error("vector too long");

  00000	68 00 00 00 00	 push	 OFFSET ??_C@_0BA@FOIKENOD@vector?5too?5long@
  00005	e8 00 00 00 00	 call	 ?_Xlength_error@std@@YAXPBD@Z ; std::_Xlength_error
$LN3@Xlength:
  0000a	cc		 int	 3
?_Xlength@?$vector@U_RANDOM_OPTION@@V?$allocator@U_RANDOM_OPTION@@@std@@@std@@CAXXZ ENDP ; std::vector<_RANDOM_OPTION,std::allocator<_RANDOM_OPTION> >::_Xlength
_TEXT	ENDS
; Function compile flags: /Ogtp
; File C:\Program Files\Microsoft Visual Studio\2022\Professional\VC\Tools\MSVC\14.44.35207\include\vector
; File C:\Program Files\Microsoft Visual Studio\2022\Professional\VC\Tools\MSVC\14.44.35207\include\xmemory
; File C:\Program Files\Microsoft Visual Studio\2022\Professional\VC\Tools\MSVC\14.44.35207\include\vector
; File C:\Program Files\Microsoft Visual Studio\2022\Professional\VC\Tools\MSVC\14.44.35207\include\xmemory
; File C:\Program Files\Microsoft Visual Studio\2022\Professional\VC\Tools\MSVC\14.44.35207\include\vector
; File C:\Program Files\Microsoft Visual Studio\2022\Professional\VC\Tools\MSVC\14.44.35207\include\xmemory
; File C:\Program Files\Microsoft Visual Studio\2022\Professional\VC\Tools\MSVC\14.44.35207\include\vector
; File C:\Program Files\Microsoft Visual Studio\2022\Professional\VC\Tools\MSVC\14.44.35207\include\xmemory
; File C:\Program Files\Microsoft Visual Studio\2022\Professional\VC\Tools\MSVC\14.44.35207\include\vector
; File C:\Program Files\Microsoft Visual Studio\2022\Professional\VC\Tools\MSVC\14.44.35207\include\xmemory
; File C:\Program Files\Microsoft Visual Studio\2022\Professional\VC\Tools\MSVC\14.44.35207\include\vector
; File C:\Program Files\Microsoft Visual Studio\2022\Professional\VC\Tools\MSVC\14.44.35207\include\xmemory
; File C:\Program Files\Microsoft Visual Studio\2022\Professional\VC\Tools\MSVC\14.44.35207\include\vector
;	COMDAT ??1?$vector@U_RANDOM_OPTION@@V?$allocator@U_RANDOM_OPTION@@@std@@@std@@QAE@XZ
_TEXT	SEGMENT
??1?$vector@U_RANDOM_OPTION@@V?$allocator@U_RANDOM_OPTION@@@std@@@std@@QAE@XZ PROC ; std::vector<_RANDOM_OPTION,std::allocator<_RANDOM_OPTION> >::~vector<_RANDOM_OPTION,std::allocator<_RANDOM_OPTION> >, COMDAT
; _this$ = ecx

; 829  :     _CONSTEXPR20 ~vector() noexcept {

  00000	56		 push	 esi
  00001	57		 push	 edi
  00002	8b f9		 mov	 edi, ecx

; 2090 :         if (_Myfirst) { // destroy and deallocate old array

  00004	8b 37		 mov	 esi, DWORD PTR [edi]
  00006	85 f6		 test	 esi, esi
  00008	74 6e		 je	 SHORT $LN5@vector
  0000a	53		 push	 ebx

; 2091 :             _STD _Destroy_range(_Myfirst, _Mylast, _Al);

  0000b	8b 5f 04	 mov	 ebx, DWORD PTR [edi+4]
; File C:\Program Files\Microsoft Visual Studio\2022\Professional\VC\Tools\MSVC\14.44.35207\include\xmemory

; 1102 :         for (; _First != _Last; ++_First) {

  0000e	3b f3		 cmp	 esi, ebx
  00010	74 0f		 je	 SHORT $LN10@vector
$LL11@vector:
; File C:\Program Files\Microsoft Visual Studio\2022\Professional\VC\Tools\MSVC\14.44.35207\include\vector

; 830  :         _Tidy();

  00012	8d 4e 08	 lea	 ecx, DWORD PTR [esi+8]
  00015	e8 00 00 00 00	 call	 ?_Tidy@?$vector@U_AdjData@@V?$allocator@U_AdjData@@@std@@@std@@AAEXXZ ; std::vector<_AdjData,std::allocator<_AdjData> >::_Tidy
; File C:\Program Files\Microsoft Visual Studio\2022\Professional\VC\Tools\MSVC\14.44.35207\include\xmemory

; 1102 :         for (; _First != _Last; ++_First) {

  0001a	83 c6 14	 add	 esi, 20			; 00000014H
  0001d	3b f3		 cmp	 esi, ebx
  0001f	75 f1		 jne	 SHORT $LL11@vector
$LN10@vector:
; File C:\Program Files\Microsoft Visual Studio\2022\Professional\VC\Tools\MSVC\14.44.35207\include\vector

; 2093 :             _Al.deallocate(_Myfirst, static_cast<size_type>(_Myend - _Myfirst));

  00021	8b 4f 08	 mov	 ecx, DWORD PTR [edi+8]
  00024	b8 67 66 66 66	 mov	 eax, 1717986919		; 66666667H
  00029	8b 37		 mov	 esi, DWORD PTR [edi]
  0002b	2b ce		 sub	 ecx, esi
  0002d	f7 e9		 imul	 ecx
; File C:\Program Files\Microsoft Visual Studio\2022\Professional\VC\Tools\MSVC\14.44.35207\include\xmemory

; 985  :         _STD _Deallocate<_New_alignof<_Ty>>(_Ptr, sizeof(_Ty) * _Count);

  0002f	5b		 pop	 ebx
; File C:\Program Files\Microsoft Visual Studio\2022\Professional\VC\Tools\MSVC\14.44.35207\include\vector

; 2093 :             _Al.deallocate(_Myfirst, static_cast<size_type>(_Myend - _Myfirst));

  00030	c1 fa 03	 sar	 edx, 3
  00033	8b c2		 mov	 eax, edx
  00035	c1 e8 1f	 shr	 eax, 31			; 0000001fH
  00038	03 c2		 add	 eax, edx
; File C:\Program Files\Microsoft Visual Studio\2022\Professional\VC\Tools\MSVC\14.44.35207\include\xmemory

; 985  :         _STD _Deallocate<_New_alignof<_Ty>>(_Ptr, sizeof(_Ty) * _Count);

  0003a	8d 0c 80	 lea	 ecx, DWORD PTR [eax+eax*4]
  0003d	c1 e1 02	 shl	 ecx, 2

; 284  :         if (_Bytes >= _Big_allocation_threshold) {

  00040	81 f9 00 10 00
	00		 cmp	 ecx, 4096		; 00001000H
  00046	72 12		 jb	 SHORT $LN38@vector

; 205  :     const uintptr_t _Ptr_container   = _Ptr_user[-1];

  00048	8b 56 fc	 mov	 edx, DWORD PTR [esi-4]
  0004b	83 c1 23	 add	 ecx, 35			; 00000023H

; 206  : 
; 207  :     // If the following asserts, it likely means that we are performing
; 208  :     // an aligned delete on memory coming from an unaligned allocation.
; 209  :     _STL_ASSERT(_Ptr_user[-2] == _Big_allocation_sentinel, "invalid argument");
; 210  : 
; 211  :     // Extra paranoia on aligned allocation/deallocation; ensure _Ptr_container is
; 212  :     // in range [_Min_back_shift, _Non_user_size]
; 213  : #ifdef _DEBUG
; 214  :     constexpr uintptr_t _Min_back_shift = 2 * sizeof(void*);
; 215  : #else // ^^^ defined(_DEBUG) / !defined(_DEBUG) vvv
; 216  :     constexpr uintptr_t _Min_back_shift = sizeof(void*);
; 217  : #endif // ^^^ !defined(_DEBUG) ^^^
; 218  :     const uintptr_t _Back_shift = reinterpret_cast<uintptr_t>(_Ptr) - _Ptr_container;

  0004e	2b f2		 sub	 esi, edx

; 219  :     _STL_VERIFY(_Back_shift >= _Min_back_shift && _Back_shift <= _Non_user_size, "invalid argument");

  00050	8d 46 fc	 lea	 eax, DWORD PTR [esi-4]
  00053	83 f8 1f	 cmp	 eax, 31			; 0000001fH
  00056	77 23		 ja	 SHORT $LN37@vector

; 220  :     _Ptr = reinterpret_cast<void*>(_Ptr_container);

  00058	8b f2		 mov	 esi, edx
$LN38@vector:

; 289  :         ::operator delete(_Ptr, _Bytes);

  0005a	51		 push	 ecx
  0005b	56		 push	 esi
  0005c	e8 00 00 00 00	 call	 ??3@YAXPAXI@Z		; operator delete
; File C:\Program Files\Microsoft Visual Studio\2022\Professional\VC\Tools\MSVC\14.44.35207\include\vector

; 2095 :             _Myfirst = nullptr;

  00061	c7 07 00 00 00
	00		 mov	 DWORD PTR [edi], 0
; File C:\Program Files\Microsoft Visual Studio\2022\Professional\VC\Tools\MSVC\14.44.35207\include\xmemory

; 289  :         ::operator delete(_Ptr, _Bytes);

  00067	83 c4 08	 add	 esp, 8
; File C:\Program Files\Microsoft Visual Studio\2022\Professional\VC\Tools\MSVC\14.44.35207\include\vector

; 2096 :             _Mylast  = nullptr;

  0006a	c7 47 04 00 00
	00 00		 mov	 DWORD PTR [edi+4], 0

; 2097 :             _Myend   = nullptr;

  00071	c7 47 08 00 00
	00 00		 mov	 DWORD PTR [edi+8], 0
$LN5@vector:
  00078	5f		 pop	 edi

; 835  :     }

  00079	5e		 pop	 esi
  0007a	c3		 ret	 0
$LN37@vector:
; File C:\Program Files\Microsoft Visual Studio\2022\Professional\VC\Tools\MSVC\14.44.35207\include\xmemory

; 219  :     _STL_VERIFY(_Back_shift >= _Min_back_shift && _Back_shift <= _Non_user_size, "invalid argument");

  0007b	6a 00		 push	 0
  0007d	6a 00		 push	 0
  0007f	6a 00		 push	 0
  00081	6a 00		 push	 0
  00083	6a 00		 push	 0
  00085	e8 00 00 00 00	 call	 __invoke_watson
$LN51@vector:
  0008a	cc		 int	 3
??1?$vector@U_RANDOM_OPTION@@V?$allocator@U_RANDOM_OPTION@@@std@@@std@@QAE@XZ ENDP ; std::vector<_RANDOM_OPTION,std::allocator<_RANDOM_OPTION> >::~vector<_RANDOM_OPTION,std::allocator<_RANDOM_OPTION> >
_TEXT	ENDS
; Function compile flags: /Ogtp
; File C:\Program Files\Microsoft Visual Studio\2022\Professional\VC\Tools\MSVC\14.44.35207\include\vector
;	COMDAT ??0?$vector@U_RANDOM_OPTION@@V?$allocator@U_RANDOM_OPTION@@@std@@@std@@QAE@XZ
_TEXT	SEGMENT
??0?$vector@U_RANDOM_OPTION@@V?$allocator@U_RANDOM_OPTION@@@std@@@std@@QAE@XZ PROC ; std::vector<_RANDOM_OPTION,std::allocator<_RANDOM_OPTION> >::vector<_RANDOM_OPTION,std::allocator<_RANDOM_OPTION> >, COMDAT
; _this$ = ecx

; 400  :     _CONSTEXPR20 _Vector_val() noexcept : _Myfirst(), _Mylast(), _Myend() {}

  00000	c7 01 00 00 00
	00		 mov	 DWORD PTR [ecx], 0

; 671  :         _Mypair._Myval2._Alloc_proxy(_GET_PROXY_ALLOCATOR(_Alty, _Getal()));
; 672  :     }

  00006	8b c1		 mov	 eax, ecx

; 400  :     _CONSTEXPR20 _Vector_val() noexcept : _Myfirst(), _Mylast(), _Myend() {}

  00008	c7 41 04 00 00
	00 00		 mov	 DWORD PTR [ecx+4], 0
  0000f	c7 41 08 00 00
	00 00		 mov	 DWORD PTR [ecx+8], 0

; 671  :         _Mypair._Myval2._Alloc_proxy(_GET_PROXY_ALLOCATOR(_Alty, _Getal()));
; 672  :     }

  00016	c3		 ret	 0
??0?$vector@U_RANDOM_OPTION@@V?$allocator@U_RANDOM_OPTION@@@std@@@std@@QAE@XZ ENDP ; std::vector<_RANDOM_OPTION,std::allocator<_RANDOM_OPTION> >::vector<_RANDOM_OPTION,std::allocator<_RANDOM_OPTION> >
_TEXT	ENDS
; Function compile flags: /Ogtp
; File C:\IAGOS\server\v18\Source\Source\_Common\randomoption.cpp
; File C:\Program Files\Microsoft Visual Studio\2022\Professional\VC\Tools\MSVC\14.44.35207\include\vector
; File C:\IAGOS\server\v18\Source\Source\_Common\randomoption.cpp
; File C:\Program Files\Microsoft Visual Studio\2022\Professional\VC\Tools\MSVC\14.44.35207\include\vector
; File C:\IAGOS\server\v18\Source\Source\_Common\randomoption.cpp
; File C:\Program Files\Microsoft Visual Studio\2022\Professional\VC\Tools\MSVC\14.44.35207\include\vector
; File C:\IAGOS\server\v18\Source\Source\_Common\randomoption.cpp
; File C:\Program Files\Microsoft Visual Studio\2022\Professional\VC\Tools\MSVC\14.44.35207\include\vector
; File C:\IAGOS\server\v18\Source\Source\_Common\randomoption.cpp
; File C:\Program Files\Microsoft Visual Studio\2022\Professional\VC\Tools\MSVC\14.44.35207\include\vector
; File C:\IAGOS\server\v18\Source\Source\_Common\randomoption.cpp
; File C:\Program Files\Microsoft Visual Studio\2022\Professional\VC\Tools\MSVC\14.44.35207\include\vector
; File C:\IAGOS\server\v18\Source\Source\_Common\randomoption.cpp
; File C:\Program Files\Microsoft Visual Studio\2022\Professional\VC\Tools\MSVC\14.44.35207\include\vector
; File C:\IAGOS\server\v18\Source\Source\_Common\randomoption.cpp
; File C:\Program Files\Microsoft Visual Studio\2022\Professional\VC\Tools\MSVC\14.44.35207\include\vector
; File C:\IAGOS\server\v18\Source\Source\_Common\randomoption.cpp
; File C:\Program Files\Microsoft Visual Studio\2022\Professional\VC\Tools\MSVC\14.44.35207\include\vector
; File C:\IAGOS\server\v18\Source\Source\_Common\randomoption.cpp
; File C:\Program Files\Microsoft Visual Studio\2022\Professional\VC\Tools\MSVC\14.44.35207\include\vector
; File C:\IAGOS\server\v18\Source\Source\_Common\randomoption.h
; File C:\Program Files\Microsoft Visual Studio\2022\Professional\VC\Tools\MSVC\14.44.35207\include\xutility
; File C:\Program Files\Microsoft Visual Studio\2022\Professional\VC\Tools\MSVC\14.44.35207\include\vector
; File C:\Program Files\Microsoft Visual Studio\2022\Professional\VC\Tools\MSVC\14.44.35207\include\xutility
; File C:\IAGOS\server\v18\Source\Source\_Common\randomoption.h
; File C:\Program Files\Microsoft Visual Studio\2022\Professional\VC\Tools\MSVC\14.44.35207\include\vector
; File C:\Program Files\Microsoft Visual Studio\2022\Professional\VC\Tools\MSVC\14.44.35207\include\xmemory
; File C:\Program Files\Microsoft Visual Studio\2022\Professional\VC\Tools\MSVC\14.44.35207\include\vector
; File C:\Program Files\Microsoft Visual Studio\2022\Professional\VC\Tools\MSVC\14.44.35207\include\xutility
; File C:\Program Files\Microsoft Visual Studio\2022\Professional\VC\Tools\MSVC\14.44.35207\include\vector
; File C:\Program Files\Microsoft Visual Studio\2022\Professional\VC\Tools\MSVC\14.44.35207\include\xutility
; File C:\Program Files\Microsoft Visual Studio\2022\Professional\VC\Tools\MSVC\14.44.35207\include\vector
; File C:\IAGOS\server\v18\Source\Source\_Common\randomoption.cpp
; File C:\Program Files\Microsoft Visual Studio\2022\Professional\VC\Tools\MSVC\14.44.35207\include\vector
; File C:\IAGOS\server\v18\Source\Source\_Common\randomoption.cpp
; File C:\Program Files\Microsoft Visual Studio\2022\Professional\VC\Tools\MSVC\14.44.35207\include\vector
; File C:\Program Files\Microsoft Visual Studio\2022\Professional\VC\Tools\MSVC\14.44.35207\include\xmemory
; File C:\Program Files\Microsoft Visual Studio\2022\Professional\VC\Tools\MSVC\14.44.35207\include\vector
; File C:\Program Files\Microsoft Visual Studio\2022\Professional\VC\Tools\MSVC\14.44.35207\include\xmemory
; File C:\IAGOS\server\v18\Source\Source\_Common\randomoption.cpp
; File C:\Program Files\Microsoft Visual Studio\2022\Professional\VC\Tools\MSVC\14.44.35207\include\vector
; File C:\IAGOS\server\v18\Source\Source\_Common\randomoption.cpp
; File C:\Program Files\Microsoft Visual Studio\2022\Professional\VC\Tools\MSVC\14.44.35207\include\vector
; File C:\IAGOS\server\v18\Source\Source\_Common\randomoption.cpp
; File C:\Program Files\Microsoft Visual Studio\2022\Professional\VC\Tools\MSVC\14.44.35207\include\xmemory
; File C:\Program Files\Microsoft Visual Studio\2022\Professional\VC\Tools\MSVC\14.44.35207\include\vector
; File C:\IAGOS\server\v18\Source\Source\_Common\randomoption.cpp
;	COMDAT ?AwakeningExtension@CRandomOptionProperty@@AAEXXZ
_TEXT	SEGMENT
_anDst$ = -156						; size = 72
_anTotal$ = -84						; size = 12
_iRandomOptionKindIndex$1$ = -72			; size = 4
_ro$2 = -68						; size = 20
_j$1$ = -48						; size = 4
_k$1$ = -44						; size = 4
_pRandomOption$1$ = -40					; size = 4
_nProb$1$ = -36						; size = 4
_this$GSCopy$1$ = -32					; size = 4
_i$1$ = -28						; size = 4
tv1042 = -24						; size = 4
tv1049 = -20						; size = 4
$T3 = -16						; size = 4
__$EHRec$ = -12						; size = 12
?AwakeningExtension@CRandomOptionProperty@@AAEXXZ PROC	; CRandomOptionProperty::AwakeningExtension, COMDAT
; _this$ = ecx

; 435  : {

  00000	55		 push	 ebp
  00001	8b ec		 mov	 ebp, esp
  00003	6a ff		 push	 -1
  00005	68 00 00 00 00	 push	 __ehhandler$?AwakeningExtension@CRandomOptionProperty@@AAEXXZ
  0000a	64 a1 00 00 00
	00		 mov	 eax, DWORD PTR fs:0
  00010	50		 push	 eax
  00011	81 ec 90 00 00
	00		 sub	 esp, 144		; 00000090H
  00017	53		 push	 ebx
  00018	56		 push	 esi
  00019	57		 push	 edi
  0001a	a1 00 00 00 00	 mov	 eax, DWORD PTR ___security_cookie
  0001f	33 c5		 xor	 eax, ebp
  00021	50		 push	 eax
  00022	8d 45 f4	 lea	 eax, DWORD PTR __$EHRec$[ebp]
  00025	64 a3 00 00 00
	00		 mov	 DWORD PTR fs:0, eax
  0002b	8b c1		 mov	 eax, ecx
  0002d	89 45 e0	 mov	 DWORD PTR _this$GSCopy$1$[ebp], eax
; File C:\Program Files\Microsoft Visual Studio\2022\Professional\VC\Tools\MSVC\14.44.35207\include\vector

; 1915 :         return static_cast<size_type>(_My_data._Mylast - _My_data._Myfirst);

  00030	8b 48 38	 mov	 ecx, DWORD PTR [eax+56]
; File C:\IAGOS\server\v18\Source\Source\_Common\randomoption.cpp

; 445  : 	for( DWORD i = 0; i < m_aRandomOption[eAwakening].size(); i++ )

  00033	33 ff		 xor	 edi, edi
; File C:\Program Files\Microsoft Visual Studio\2022\Professional\VC\Tools\MSVC\14.44.35207\include\vector

; 1915 :         return static_cast<size_type>(_My_data._Mylast - _My_data._Myfirst);

  00035	8b 70 34	 mov	 esi, DWORD PTR [eax+52]
  00038	2b ce		 sub	 ecx, esi
; File C:\IAGOS\server\v18\Source\Source\_Common\randomoption.cpp

; 437  : 		DST_CHR_CHANCECRITICAL, DST_ATKPOWER, DST_SPELL_RATE, DST_ATTACKSPEED, DST_MP_MAX, DST_FP_MAX,

  0003a	0f 28 05 00 00
	00 00		 movaps	 xmm0, XMMWORD PTR __xmm@000000180000004b0000005300000009
; File C:\Program Files\Microsoft Visual Studio\2022\Professional\VC\Tools\MSVC\14.44.35207\include\vector

; 1915 :         return static_cast<size_type>(_My_data._Mylast - _My_data._Myfirst);

  00041	b8 67 66 66 66	 mov	 eax, 1717986919		; 66666667H
  00046	f7 e9		 imul	 ecx
; File C:\IAGOS\server\v18\Source\Source\_Common\randomoption.cpp

; 437  : 		DST_CHR_CHANCECRITICAL, DST_ATKPOWER, DST_SPELL_RATE, DST_ATTACKSPEED, DST_MP_MAX, DST_FP_MAX,

  00048	0f 11 85 64 ff
	ff ff		 movups	 XMMWORD PTR _anDst$[ebp], xmm0
  0004f	0f 28 05 00 00
	00 00		 movaps	 xmm0, XMMWORD PTR __xmm@0000000b0000004d0000002500000024
  00056	0f 11 85 74 ff
	ff ff		 movups	 XMMWORD PTR _anDst$[ebp+16], xmm0

; 439  : 		DST_STR, DST_DEX, DST_INT, DST_STA, DST_MP_MAX, DST_FP_MAX	};

  0005d	c7 45 a4 24 00
	00 00		 mov	 DWORD PTR _anDst$[ebp+64], 36 ; 00000024H
  00064	0f 28 05 00 00
	00 00		 movaps	 xmm0, XMMWORD PTR __xmm@0000002500000024000000230000001a
; File C:\Program Files\Microsoft Visual Studio\2022\Professional\VC\Tools\MSVC\14.44.35207\include\vector

; 1915 :         return static_cast<size_type>(_My_data._Mylast - _My_data._Myfirst);

  0006b	c1 fa 03	 sar	 edx, 3
; File C:\IAGOS\server\v18\Source\Source\_Common\randomoption.cpp

; 438  : 		DST_CRITICAL_BONUS, DST_SPEED, DST_ADJDEF, DST_HP_MAX, DST_MP_MAX, DST_FP_MAX,

  0006e	0f 11 45 84	 movups	 XMMWORD PTR _anDst$[ebp+32], xmm0
; File C:\Program Files\Microsoft Visual Studio\2022\Professional\VC\Tools\MSVC\14.44.35207\include\vector

; 1915 :         return static_cast<size_type>(_My_data._Mylast - _My_data._Myfirst);

  00072	8b c2		 mov	 eax, edx
; File C:\IAGOS\server\v18\Source\Source\_Common\randomoption.cpp

; 439  : 		DST_STR, DST_DEX, DST_INT, DST_STA, DST_MP_MAX, DST_FP_MAX	};

  00074	c7 45 a8 25 00
	00 00		 mov	 DWORD PTR _anDst$[ebp+68], 37 ; 00000025H
  0007b	0f 28 05 00 00
	00 00		 movaps	 xmm0, XMMWORD PTR __xmm@00000004000000030000000200000001
  00082	0f 11 45 94	 movups	 XMMWORD PTR _anDst$[ebp+48], xmm0
; File C:\Program Files\Microsoft Visual Studio\2022\Professional\VC\Tools\MSVC\14.44.35207\include\vector

; 1915 :         return static_cast<size_type>(_My_data._Mylast - _My_data._Myfirst);

  00086	c1 e8 1f	 shr	 eax, 31			; 0000001fH
  00089	0f 57 c0	 xorps	 xmm0, xmm0
; File C:\IAGOS\server\v18\Source\Source\_Common\randomoption.cpp

; 441  : 	memset( anTotal, 0, sizeof(int) * eAwakeningExtension );

  0008c	c7 45 b4 00 00
	00 00		 mov	 DWORD PTR _anTotal$[ebp+8], 0
  00093	66 0f d6 45 ac	 movq	 QWORD PTR _anTotal$[ebp], xmm0

; 445  : 	for( DWORD i = 0; i < m_aRandomOption[eAwakening].size(); i++ )

  00098	89 7d e4	 mov	 DWORD PTR _i$1$[ebp], edi
; File C:\Program Files\Microsoft Visual Studio\2022\Professional\VC\Tools\MSVC\14.44.35207\include\vector

; 1915 :         return static_cast<size_type>(_My_data._Mylast - _My_data._Myfirst);

  0009b	03 c2		 add	 eax, edx
; File C:\IAGOS\server\v18\Source\Source\_Common\randomoption.cpp

; 445  : 	for( DWORD i = 0; i < m_aRandomOption[eAwakening].size(); i++ )

  0009d	0f 84 af 01 00
	00		 je	 $LN168@AwakeningE
$LL4@AwakeningE:

; 448  : 		int nProb	= ( i == 0?

  000a3	83 7d e4 00	 cmp	 DWORD PTR _i$1$[ebp], 0
; File C:\Program Files\Microsoft Visual Studio\2022\Professional\VC\Tools\MSVC\14.44.35207\include\vector

; 1934 :         return _My_data._Myfirst[_Pos];

  000a7	8d 04 bf	 lea	 eax, DWORD PTR [edi+edi*4]
  000aa	8d 34 86	 lea	 esi, DWORD PTR [esi+eax*4]
; File C:\IAGOS\server\v18\Source\Source\_Common\randomoption.cpp

; 447  : 		RANDOM_OPTION* pRandomOption	= &m_aRandomOption[eAwakening][i];

  000ad	8d 7e 04	 lea	 edi, DWORD PTR [esi+4]
; File C:\Program Files\Microsoft Visual Studio\2022\Professional\VC\Tools\MSVC\14.44.35207\include\vector

; 1934 :         return _My_data._Myfirst[_Pos];

  000b0	89 75 d8	 mov	 DWORD PTR _pRandomOption$1$[ebp], esi
; File C:\IAGOS\server\v18\Source\Source\_Common\randomoption.cpp

; 447  : 		RANDOM_OPTION* pRandomOption	= &m_aRandomOption[eAwakening][i];

  000b3	89 7d f0	 mov	 DWORD PTR $T3[ebp], edi

; 448  : 		int nProb	= ( i == 0?

  000b6	75 07		 jne	 SHORT $LN13@AwakeningE
  000b8	8b 07		 mov	 eax, DWORD PTR [edi]
  000ba	89 45 dc	 mov	 DWORD PTR _nProb$1$[ebp], eax
  000bd	eb 0b		 jmp	 SHORT $LN14@AwakeningE
$LN13@AwakeningE:
  000bf	8b 0f		 mov	 ecx, DWORD PTR [edi]
  000c1	2b 4e f0	 sub	 ecx, DWORD PTR [esi-16]
  000c4	89 4d dc	 mov	 DWORD PTR _nProb$1$[ebp], ecx
  000c7	89 7d f0	 mov	 DWORD PTR $T3[ebp], edi
$LN14@AwakeningE:

; 449  : 			m_aRandomOption[eAwakening][i].nProb:
; 450  : 			m_aRandomOption[eAwakening][i].nProb - m_aRandomOption[eAwakening][i-1].nProb );
; 451  : 
; 452  : 		for( int j = 0; j < eAwakeningExtension; j++ )

  000ca	33 db		 xor	 ebx, ebx
  000cc	8d 85 64 ff ff
	ff		 lea	 eax, DWORD PTR _anDst$[ebp]
  000d2	89 5d d0	 mov	 DWORD PTR _j$1$[ebp], ebx
  000d5	89 45 e8	 mov	 DWORD PTR tv1042[ebp], eax
$LL7@AwakeningE:

; 453  : 		{
; 454  : 			int iRandomOptionKindIndex	= GetRandomOptionKindIndex( eAwakening, PARTS_HAND + j );

  000d8	8b 4d e0	 mov	 ecx, DWORD PTR _this$GSCopy$1$[ebp]
  000db	8d 43 04	 lea	 eax, DWORD PTR [ebx+4]
  000de	50		 push	 eax
  000df	6a 00		 push	 0
  000e1	e8 00 00 00 00	 call	 ?GetRandomOptionKindIndex@CRandomOptionProperty@@AAEHHH@Z ; CRandomOptionProperty::GetRandomOptionKindIndex
  000e6	89 45 b8	 mov	 DWORD PTR _iRandomOptionKindIndex$1$[ebp], eax
  000e9	8b 45 e8	 mov	 eax, DWORD PTR tv1042[ebp]

; 455  : 			for( int k = 0; k < 6; k++ )

  000ec	c7 45 d4 00 00
	00 00		 mov	 DWORD PTR _k$1$[ebp], 0
  000f3	89 45 ec	 mov	 DWORD PTR tv1049[ebp], eax
$LL10@AwakeningE:

; 456  : 				if( pRandomOption->nDst == anDst[j][k] )

  000f6	8b 0e		 mov	 ecx, DWORD PTR [esi]
  000f8	3b 08		 cmp	 ecx, DWORD PTR [eax]
  000fa	0f 85 00 01 00
	00		 jne	 $LN8@AwakeningE
; File C:\Program Files\Microsoft Visual Studio\2022\Professional\VC\Tools\MSVC\14.44.35207\include\vector

; 400  :     _CONSTEXPR20 _Vector_val() noexcept : _Myfirst(), _Mylast(), _Myend() {}

  00100	c7 45 c4 00 00
	00 00		 mov	 DWORD PTR _ro$2[ebp+8], 0
  00107	c7 45 c8 00 00
	00 00		 mov	 DWORD PTR _ro$2[ebp+12], 0
  0010e	c7 45 cc 00 00
	00 00		 mov	 DWORD PTR _ro$2[ebp+16], 0
; File C:\IAGOS\server\v18\Source\Source\_Common\randomoption.h

; 40   : 		nProb	= pRandomOption->nProb;

  00115	8b 07		 mov	 eax, DWORD PTR [edi]
; File C:\Program Files\Microsoft Visual Studio\2022\Professional\VC\Tools\MSVC\14.44.35207\include\xutility

; 1662 :         return _Last - _First; // assume the iterator will do debug checking

  00117	8b 7e 0c	 mov	 edi, DWORD PTR [esi+12]
; File C:\Program Files\Microsoft Visual Studio\2022\Professional\VC\Tools\MSVC\14.44.35207\include\vector

; 46   :     _CONSTEXPR20 _Vector_const_iterator(_Tptr _Parg, const _Container_base* _Pvector) noexcept : _Ptr(_Parg) {

  0011a	8b 5e 08	 mov	 ebx, DWORD PTR [esi+8]
; File C:\Program Files\Microsoft Visual Studio\2022\Professional\VC\Tools\MSVC\14.44.35207\include\xutility

; 1662 :         return _Last - _First; // assume the iterator will do debug checking

  0011d	2b fb		 sub	 edi, ebx
  0011f	c1 ff 03	 sar	 edi, 3
; File C:\IAGOS\server\v18\Source\Source\_Common\randomoption.h

; 38   : 	{

  00122	c7 45 fc 00 00
	00 00		 mov	 DWORD PTR __$EHRec$[ebp+8], 0

; 39   : 		nDst	= pRandomOption->nDst;

  00129	89 4d bc	 mov	 DWORD PTR _ro$2[ebp], ecx

; 40   : 		nProb	= pRandomOption->nProb;

  0012c	89 45 c0	 mov	 DWORD PTR _ro$2[ebp+4], eax
; File C:\Program Files\Microsoft Visual Studio\2022\Professional\VC\Tools\MSVC\14.44.35207\include\vector

; 1433 :         if (_Newsize > _Oldcapacity) {

  0012f	85 ff		 test	 edi, edi
  00131	74 28		 je	 SHORT $LN70@AwakeningE

; 1703 :         if (_Newsize > max_size()) {

  00133	81 ff ff ff ff
	1f		 cmp	 edi, 536870911		; 1fffffffH
  00139	0f 87 34 01 00
	00		 ja	 $LN155@AwakeningE

; 1705 :         }
; 1706 : 
; 1707 :         const size_type _Newcapacity = _Calculate_growth(_Newsize);
; 1708 : 
; 1709 :         if (_Myfirst) { // destroy and deallocate old array
; 1710 :             _Destroy_range(_Myfirst, _Mylast, _Al);
; 1711 :             _ASAN_VECTOR_REMOVE;
; 1712 :             _Al.deallocate(_Myfirst, static_cast<size_type>(_Myend - _Myfirst));
; 1713 : 
; 1714 :             _Myfirst = nullptr;
; 1715 :             _Mylast  = nullptr;
; 1716 :             _Myend   = nullptr;
; 1717 :         }
; 1718 : 
; 1719 :         _Buy_raw(_Newcapacity);

  0013f	57		 push	 edi
  00140	8d 4d c4	 lea	 ecx, DWORD PTR _ro$2[ebp+8]
  00143	e8 00 00 00 00	 call	 ?_Buy_raw@?$vector@U_AdjData@@V?$allocator@U_AdjData@@@std@@@std@@AAEXI@Z ; std::vector<_AdjData,std::allocator<_AdjData> >::_Buy_raw
; File C:\Program Files\Microsoft Visual Studio\2022\Professional\VC\Tools\MSVC\14.44.35207\include\xmemory

; 1930 :             _STD _Copy_memmove_n(_UFirst, _Count, _STD _Unfancy(_Dest));

  00148	8b 75 c4	 mov	 esi, DWORD PTR _ro$2[ebp+8]
  0014b	56		 push	 esi
  0014c	57		 push	 edi
  0014d	53		 push	 ebx
  0014e	e8 00 00 00 00	 call	 ??$_Copy_memmove_n@PAU_AdjData@@PAU1@@std@@YAPAU_AdjData@@PAU1@I0@Z ; std::_Copy_memmove_n<_AdjData *,_AdjData *>

; 1931 :             _Dest += _Count;

  00153	8d 04 fe	 lea	 eax, DWORD PTR [esi+edi*8]
; File C:\Program Files\Microsoft Visual Studio\2022\Professional\VC\Tools\MSVC\14.44.35207\include\vector

; 1436 :                 _Mylast = _STD _Uninitialized_copy_n(_STD move(_First), _Newsize, _Myfirst, _Al);

  00156	89 45 c8	 mov	 DWORD PTR _ro$2[ebp+12], eax

; 1437 :                 _ASAN_VECTOR_CREATE;
; 1438 :             } else {
; 1439 :                 _ASAN_VECTOR_CREATE_GUARD;
; 1440 :                 _Mylast = _STD _Uninitialized_copy_n(_STD move(_First), _Newsize, _Myfirst, _Al);
; 1441 :             }
; 1442 :             return;

  00159	eb 13		 jmp	 SHORT $LN192@AwakeningE
$LN70@AwakeningE:
; File C:\Program Files\Microsoft Visual Studio\2022\Professional\VC\Tools\MSVC\14.44.35207\include\xutility

; 4808 :             return _Copy_memmove_n(_First, static_cast<size_t>(_Count), _Dest);

  0015b	6a 00		 push	 0
  0015d	57		 push	 edi
  0015e	53		 push	 ebx
; File C:\Program Files\Microsoft Visual Studio\2022\Professional\VC\Tools\MSVC\14.44.35207\include\vector

; 1474 :             const pointer _Newlast = _Myfirst + _Newsize;

  0015f	8d 34 fd 00 00
	00 00		 lea	 esi, DWORD PTR [edi*8]
; File C:\Program Files\Microsoft Visual Studio\2022\Professional\VC\Tools\MSVC\14.44.35207\include\xutility

; 4808 :             return _Copy_memmove_n(_First, static_cast<size_t>(_Count), _Dest);

  00166	e8 00 00 00 00	 call	 ??$_Copy_memmove_n@PAU_AdjData@@PAU1@@std@@YAPAU_AdjData@@PAU1@I0@Z ; std::_Copy_memmove_n<_AdjData *,_AdjData *>
; File C:\Program Files\Microsoft Visual Studio\2022\Professional\VC\Tools\MSVC\14.44.35207\include\vector

; 1478 :             _Mylast = _Newlast;

  0016b	89 75 c8	 mov	 DWORD PTR _ro$2[ebp+12], esi
$LN192@AwakeningE:
; File C:\IAGOS\server\v18\Source\Source\_Common\randomoption.cpp

; 458  : 					RANDOM_OPTION ro( pRandomOption );

  0016e	83 c4 0c	 add	 esp, 12			; 0000000cH

; 459  : 					ro.nProb	= anTotal[j] + nProb;

  00171	8b 5d d0	 mov	 ebx, DWORD PTR _j$1$[ebp]

; 460  : 					anTotal[j]	= ro.nProb;
; 461  : 					m_aRandomOption[iRandomOptionKindIndex].push_back( ro );

  00174	8b 7d b8	 mov	 edi, DWORD PTR _iRandomOptionKindIndex$1$[ebp]
  00177	8b 4d e0	 mov	 ecx, DWORD PTR _this$GSCopy$1$[ebp]
  0017a	c7 45 fc 01 00
	00 00		 mov	 DWORD PTR __$EHRec$[ebp+8], 1
  00181	8b 44 9d ac	 mov	 eax, DWORD PTR _anTotal$[ebp+ebx*4]
  00185	03 45 dc	 add	 eax, DWORD PTR _nProb$1$[ebp]
  00188	89 45 c0	 mov	 DWORD PTR _ro$2[ebp+4], eax
  0018b	89 44 9d ac	 mov	 DWORD PTR _anTotal$[ebp+ebx*4], eax
  0018f	8d 04 7d 0d 00
	00 00		 lea	 eax, DWORD PTR [edi*2+13]
  00196	03 c7		 add	 eax, edi
  00198	8d 34 81	 lea	 esi, DWORD PTR [ecx+eax*4]
; File C:\Program Files\Microsoft Visual Studio\2022\Professional\VC\Tools\MSVC\14.44.35207\include\vector

; 844  :         if (_Mylast != _My_data._Myend) {

  0019b	8b 46 04	 mov	 eax, DWORD PTR [esi+4]
  0019e	8d 4d bc	 lea	 ecx, DWORD PTR _ro$2[ebp]
  001a1	51		 push	 ecx
  001a2	50		 push	 eax
  001a3	3b 46 08	 cmp	 eax, DWORD PTR [esi+8]
  001a6	74 0f		 je	 SHORT $LN119@AwakeningE

; 863  :             _Alty_traits::construct(_Getal(), _Unfancy(_Mylast), _STD forward<_Valty>(_Val)...);

  001a8	56		 push	 esi
  001a9	e8 00 00 00 00	 call	 ??$construct@U_RANDOM_OPTION@@ABU1@@?$_Default_allocator_traits@V?$allocator@U_RANDOM_OPTION@@@std@@@std@@SAXAAV?$allocator@U_RANDOM_OPTION@@@1@QAU_RANDOM_OPTION@@ABU3@@Z ; std::_Default_allocator_traits<std::allocator<_RANDOM_OPTION> >::construct<_RANDOM_OPTION,_RANDOM_OPTION const &>
  001ae	83 c4 0c	 add	 esp, 12			; 0000000cH

; 864  :             _ASAN_VECTOR_RELEASE_GUARD;
; 865  :         }
; 866  : 
; 867  :         _Orphan_range(_Mylast, _Mylast);
; 868  :         _Ty& _Result = *_Mylast;
; 869  :         ++_Mylast;

  001b1	83 46 04 14	 add	 DWORD PTR [esi+4], 20	; 00000014H

; 845  :             return _Emplace_back_with_unused_capacity(_STD forward<_Valty>(_Val)...);

  001b5	eb 07		 jmp	 SHORT $LN118@AwakeningE
$LN119@AwakeningE:

; 846  :         }
; 847  : 
; 848  :         return *_Emplace_reallocate(_Mylast, _STD forward<_Valty>(_Val)...);

  001b7	8b ce		 mov	 ecx, esi
  001b9	e8 00 00 00 00	 call	 ??$_Emplace_reallocate@ABU_RANDOM_OPTION@@@?$vector@U_RANDOM_OPTION@@V?$allocator@U_RANDOM_OPTION@@@std@@@std@@AAEPAU_RANDOM_OPTION@@QAU2@ABU2@@Z ; std::vector<_RANDOM_OPTION,std::allocator<_RANDOM_OPTION> >::_Emplace_reallocate<_RANDOM_OPTION const &>
$LN118@AwakeningE:

; 2090 :         if (_Myfirst) { // destroy and deallocate old array

  001be	8b 55 c4	 mov	 edx, DWORD PTR _ro$2[ebp+8]
; File C:\IAGOS\server\v18\Source\Source\_Common\randomoption.cpp

; 462  : 				}

  001c1	c7 45 fc ff ff
	ff ff		 mov	 DWORD PTR __$EHRec$[ebp+8], -1
; File C:\Program Files\Microsoft Visual Studio\2022\Professional\VC\Tools\MSVC\14.44.35207\include\vector

; 2090 :         if (_Myfirst) { // destroy and deallocate old array

  001c8	85 d2		 test	 edx, edx
  001ca	74 2b		 je	 SHORT $LN189@AwakeningE

; 2093 :             _Al.deallocate(_Myfirst, static_cast<size_type>(_Myend - _Myfirst));

  001cc	8b 45 cc	 mov	 eax, DWORD PTR _ro$2[ebp+16]
; File C:\Program Files\Microsoft Visual Studio\2022\Professional\VC\Tools\MSVC\14.44.35207\include\xmemory

; 985  :         _STD _Deallocate<_New_alignof<_Ty>>(_Ptr, sizeof(_Ty) * _Count);

  001cf	8b ca		 mov	 ecx, edx
; File C:\Program Files\Microsoft Visual Studio\2022\Professional\VC\Tools\MSVC\14.44.35207\include\vector

; 2093 :             _Al.deallocate(_Myfirst, static_cast<size_type>(_Myend - _Myfirst));

  001d1	2b c2		 sub	 eax, edx
; File C:\Program Files\Microsoft Visual Studio\2022\Professional\VC\Tools\MSVC\14.44.35207\include\xmemory

; 985  :         _STD _Deallocate<_New_alignof<_Ty>>(_Ptr, sizeof(_Ty) * _Count);

  001d3	83 e0 f8	 and	 eax, -8			; fffffff8H

; 284  :         if (_Bytes >= _Big_allocation_threshold) {

  001d6	3d 00 10 00 00	 cmp	 eax, 4096		; 00001000H
  001db	72 10		 jb	 SHORT $LN145@AwakeningE

; 205  :     const uintptr_t _Ptr_container   = _Ptr_user[-1];

  001dd	8b 51 fc	 mov	 edx, DWORD PTR [ecx-4]
  001e0	83 c0 23	 add	 eax, 35			; 00000023H
  001e3	2b ca		 sub	 ecx, edx

; 219  :     _STL_VERIFY(_Back_shift >= _Min_back_shift && _Back_shift <= _Non_user_size, "invalid argument");

  001e5	83 c1 fc	 add	 ecx, -4			; fffffffcH
  001e8	83 f9 1f	 cmp	 ecx, 31			; 0000001fH
  001eb	77 77		 ja	 SHORT $LN156@AwakeningE
$LN145@AwakeningE:

; 289  :         ::operator delete(_Ptr, _Bytes);

  001ed	50		 push	 eax
  001ee	52		 push	 edx
  001ef	e8 00 00 00 00	 call	 ??3@YAXPAXI@Z		; operator delete
  001f4	83 c4 08	 add	 esp, 8
$LN189@AwakeningE:
; File C:\IAGOS\server\v18\Source\Source\_Common\randomoption.cpp

; 455  : 			for( int k = 0; k < 6; k++ )

  001f7	8b 7d f0	 mov	 edi, DWORD PTR $T3[ebp]
  001fa	8b 75 d8	 mov	 esi, DWORD PTR _pRandomOption$1$[ebp]
  001fd	8b 45 ec	 mov	 eax, DWORD PTR tv1049[ebp]
$LN8@AwakeningE:
  00200	8b 4d d4	 mov	 ecx, DWORD PTR _k$1$[ebp]
  00203	83 c0 04	 add	 eax, 4
  00206	41		 inc	 ecx
  00207	89 45 ec	 mov	 DWORD PTR tv1049[ebp], eax
  0020a	89 4d d4	 mov	 DWORD PTR _k$1$[ebp], ecx
  0020d	83 f9 06	 cmp	 ecx, 6
  00210	0f 8c e0 fe ff
	ff		 jl	 $LL10@AwakeningE

; 449  : 			m_aRandomOption[eAwakening][i].nProb:
; 450  : 			m_aRandomOption[eAwakening][i].nProb - m_aRandomOption[eAwakening][i-1].nProb );
; 451  : 
; 452  : 		for( int j = 0; j < eAwakeningExtension; j++ )

  00216	83 45 e8 18	 add	 DWORD PTR tv1042[ebp], 24 ; 00000018H
  0021a	43		 inc	 ebx
  0021b	89 5d d0	 mov	 DWORD PTR _j$1$[ebp], ebx
  0021e	83 fb 03	 cmp	 ebx, 3
  00221	0f 8c b1 fe ff
	ff		 jl	 $LL7@AwakeningE
; File C:\Program Files\Microsoft Visual Studio\2022\Professional\VC\Tools\MSVC\14.44.35207\include\vector

; 1915 :         return static_cast<size_type>(_My_data._Mylast - _My_data._Myfirst);

  00227	8b 5d e0	 mov	 ebx, DWORD PTR _this$GSCopy$1$[ebp]
  0022a	b8 67 66 66 66	 mov	 eax, 1717986919		; 66666667H
; File C:\IAGOS\server\v18\Source\Source\_Common\randomoption.cpp

; 445  : 	for( DWORD i = 0; i < m_aRandomOption[eAwakening].size(); i++ )

  0022f	8b 7d e4	 mov	 edi, DWORD PTR _i$1$[ebp]
  00232	47		 inc	 edi
  00233	89 7d e4	 mov	 DWORD PTR _i$1$[ebp], edi
; File C:\Program Files\Microsoft Visual Studio\2022\Professional\VC\Tools\MSVC\14.44.35207\include\vector

; 1915 :         return static_cast<size_type>(_My_data._Mylast - _My_data._Myfirst);

  00236	8b 4b 38	 mov	 ecx, DWORD PTR [ebx+56]
  00239	8b 73 34	 mov	 esi, DWORD PTR [ebx+52]
  0023c	2b ce		 sub	 ecx, esi
  0023e	f7 e9		 imul	 ecx
  00240	c1 fa 03	 sar	 edx, 3
  00243	8b c2		 mov	 eax, edx
  00245	c1 e8 1f	 shr	 eax, 31			; 0000001fH
  00248	03 c2		 add	 eax, edx
; File C:\IAGOS\server\v18\Source\Source\_Common\randomoption.cpp

; 445  : 	for( DWORD i = 0; i < m_aRandomOption[eAwakening].size(); i++ )

  0024a	3b f8		 cmp	 edi, eax
  0024c	0f 82 51 fe ff
	ff		 jb	 $LL4@AwakeningE
$LN168@AwakeningE:

; 465  : }

  00252	8b 4d f4	 mov	 ecx, DWORD PTR __$EHRec$[ebp]
  00255	64 89 0d 00 00
	00 00		 mov	 DWORD PTR fs:0, ecx
  0025c	59		 pop	 ecx
  0025d	5f		 pop	 edi
  0025e	5e		 pop	 esi
  0025f	5b		 pop	 ebx
  00260	8b e5		 mov	 esp, ebp
  00262	5d		 pop	 ebp
  00263	c3		 ret	 0
$LN156@AwakeningE:
; File C:\Program Files\Microsoft Visual Studio\2022\Professional\VC\Tools\MSVC\14.44.35207\include\xmemory

; 219  :     _STL_VERIFY(_Back_shift >= _Min_back_shift && _Back_shift <= _Non_user_size, "invalid argument");

  00264	6a 00		 push	 0
  00266	6a 00		 push	 0
  00268	6a 00		 push	 0
  0026a	6a 00		 push	 0
  0026c	6a 00		 push	 0
  0026e	e8 00 00 00 00	 call	 __invoke_watson
$LN155@AwakeningE:
; File C:\Program Files\Microsoft Visual Studio\2022\Professional\VC\Tools\MSVC\14.44.35207\include\vector

; 1704 :             _Xlength();

  00273	e8 00 00 00 00	 call	 ?_Xlength@?$vector@U_AdjData@@V?$allocator@U_AdjData@@@std@@@std@@CAXXZ ; std::vector<_AdjData,std::allocator<_AdjData> >::_Xlength
$LN191@AwakeningE:
  00278	cc		 int	 3
_TEXT	ENDS
;	COMDAT text$x
text$x	SEGMENT
__unwindfunclet$?AwakeningExtension@CRandomOptionProperty@@AAEXXZ$1:
  00000	8d 4d c4	 lea	 ecx, DWORD PTR _ro$2[ebp+8]
  00003	e9 00 00 00 00	 jmp	 ??1?$vector@U_AdjData@@V?$allocator@U_AdjData@@@std@@@std@@QAE@XZ ; std::vector<_AdjData,std::allocator<_AdjData> >::~vector<_AdjData,std::allocator<_AdjData> >
__unwindfunclet$?AwakeningExtension@CRandomOptionProperty@@AAEXXZ$0:
  00008	8d 4d bc	 lea	 ecx, DWORD PTR _ro$2[ebp]
  0000b	e9 00 00 00 00	 jmp	 ??1_RANDOM_OPTION@@QAE@XZ
  00010	cc		 int	 3
  00011	cc		 int	 3
  00012	cc		 int	 3
  00013	cc		 int	 3
  00014	cc		 int	 3
__ehhandler$?AwakeningExtension@CRandomOptionProperty@@AAEXXZ:
  00015	90		 npad	 1
  00016	90		 npad	 1
  00017	8b 54 24 08	 mov	 edx, DWORD PTR [esp+8]
  0001b	8d 42 0c	 lea	 eax, DWORD PTR [edx+12]
  0001e	8b 8a 60 ff ff
	ff		 mov	 ecx, DWORD PTR [edx-160]
  00024	33 c8		 xor	 ecx, eax
  00026	e8 00 00 00 00	 call	 @__security_check_cookie@4
  0002b	b8 00 00 00 00	 mov	 eax, OFFSET __ehfuncinfo$?AwakeningExtension@CRandomOptionProperty@@AAEXXZ
  00030	e9 00 00 00 00	 jmp	 ___CxxFrameHandler3
text$x	ENDS
?AwakeningExtension@CRandomOptionProperty@@AAEXXZ ENDP	; CRandomOptionProperty::AwakeningExtension
; Function compile flags: /Ogtp
; File C:\IAGOS\server\v18\Source\Source\_Common\randomoption.cpp
; File C:\Program Files\Microsoft Visual Studio\2022\Professional\VC\Tools\MSVC\14.44.35207\include\vector
; File C:\IAGOS\server\v18\Source\Source\_Common\randomoption.cpp
;	COMDAT ?GetUpperProbability@CRandomOptionProperty@@AAEHH@Z
_TEXT	SEGMENT
_iRandomOptionKindIndex$ = 8				; size = 4
?GetUpperProbability@CRandomOptionProperty@@AAEHH@Z PROC ; CRandomOptionProperty::GetUpperProbability, COMDAT
; _this$ = ecx

; 469  : {

  00000	55		 push	 ebp
  00001	8b ec		 mov	 ebp, esp

; 470  : 	int iLast	= m_aRandomOption[iRandomOptionKindIndex].size() - 1;

  00003	8b 45 08	 mov	 eax, DWORD PTR _iRandomOptionKindIndex$[ebp]
  00006	56		 push	 esi
  00007	8d 04 40	 lea	 eax, DWORD PTR [eax+eax*2]
; File C:\Program Files\Microsoft Visual Studio\2022\Professional\VC\Tools\MSVC\14.44.35207\include\vector

; 1915 :         return static_cast<size_type>(_My_data._Mylast - _My_data._Myfirst);

  0000a	8b 74 81 34	 mov	 esi, DWORD PTR [ecx+eax*4+52]
  0000e	8b 4c 81 38	 mov	 ecx, DWORD PTR [ecx+eax*4+56]
  00012	b8 67 66 66 66	 mov	 eax, 1717986919		; 66666667H
  00017	2b ce		 sub	 ecx, esi
  00019	f7 e9		 imul	 ecx
  0001b	c1 fa 03	 sar	 edx, 3
  0001e	8b ca		 mov	 ecx, edx
  00020	c1 e9 1f	 shr	 ecx, 31			; 0000001fH
  00023	03 ca		 add	 ecx, edx

; 1934 :         return _My_data._Myfirst[_Pos];

  00025	8d 04 89	 lea	 eax, DWORD PTR [ecx+ecx*4]
; File C:\IAGOS\server\v18\Source\Source\_Common\randomoption.cpp

; 471  : 	return m_aRandomOption[iRandomOptionKindIndex][iLast].nProb;

  00028	8b 44 86 f0	 mov	 eax, DWORD PTR [esi+eax*4-16]
  0002c	5e		 pop	 esi

; 472  : }

  0002d	5d		 pop	 ebp
  0002e	c2 04 00	 ret	 4
?GetUpperProbability@CRandomOptionProperty@@AAEHH@Z ENDP ; CRandomOptionProperty::GetUpperProbability
_TEXT	ENDS
; Function compile flags: /Ogtp
; File C:\IAGOS\server\v18\Source\Source\_Common\randomoption.cpp
;	COMDAT ?GetRandomOptionKindIndex@CRandomOptionProperty@@AAEHHH@Z
_TEXT	SEGMENT
_nRandomOptionKind$ = 8					; size = 4
_nParts$ = 12						; size = 4
?GetRandomOptionKindIndex@CRandomOptionProperty@@AAEHHH@Z PROC ; CRandomOptionProperty::GetRandomOptionKindIndex, COMDAT
; _this$ = ecx

; 334  : {	// °˘Ľş Ăŕşą ˝Ă ÂüÁ¶ÇŇ Ĺ×ŔĚşíŔÇ ŔÎµ¦˝ş¸¦ ąÝČŻÇŃ´Ů

  00000	55		 push	 ebp
  00001	8b ec		 mov	 ebp, esp
  00003	8b 4d 08	 mov	 ecx, DWORD PTR _nRandomOptionKind$[ebp]
  00006	8b 45 0c	 mov	 eax, DWORD PTR _nParts$[ebp]

; 335  : #if __VER >= 12 // __J12_0
; 336  : 	//PARTS_HAND: 4, PARTS_FOOT: 5, PARTS_CAP: 6
; 337  : 	// ±âş» Ĺ×ŔĚşíŔÇ ¸¶Áö¸· ŔÎµ¦˝şşÎĹÍ Č®Ŕĺ ŔÎµ¦˝ş ˝ĂŔŰÇŃ´Ů
; 338  : 	if( nRandomOptionKind == eAwakening && ( nParts == PARTS_HAND || nParts == PARTS_FOOT || nParts == PARTS_CAP ) )

  00009	85 c9		 test	 ecx, ecx
  0000b	75 10		 jne	 SHORT $LN2@GetRandomO
  0000d	83 f8 04	 cmp	 eax, 4
  00010	74 0d		 je	 SHORT $LN1@GetRandomO
  00012	83 f8 05	 cmp	 eax, 5
  00015	74 08		 je	 SHORT $LN1@GetRandomO
  00017	83 f8 06	 cmp	 eax, 6
  0001a	0f 44 c8	 cmove	 ecx, eax
$LN2@GetRandomO:

; 339  : 		return eMaxRandomOptionKind + nParts - PARTS_HAND;
; 340  : #endif	// __J12_0
; 341  : 	return nRandomOptionKind;
; 342  : }

  0001d	8b c1		 mov	 eax, ecx
$LN1@GetRandomO:
  0001f	5d		 pop	 ebp
  00020	c2 08 00	 ret	 8
?GetRandomOptionKindIndex@CRandomOptionProperty@@AAEHHH@Z ENDP ; CRandomOptionProperty::GetRandomOptionKindIndex
_TEXT	ENDS
; Function compile flags: /Ogtp
; File C:\IAGOS\server\v18\Source\Source\_Common\randomoption.cpp
; File C:\Program Files\Microsoft Visual Studio\2022\Professional\VC\Tools\MSVC\14.44.35207\include\vector
; File C:\IAGOS\server\v18\Source\Source\_Common\xUtil.h
; File C:\IAGOS\server\v18\Source\Source\_Common\randomoption.cpp
; File C:\IAGOS\server\v18\Source\Source\_Common\xUtil.h
; File C:\Program Files\Microsoft Visual Studio\2022\Professional\VC\Tools\MSVC\14.44.35207\include\vector
; File C:\IAGOS\server\v18\Source\Source\_Common\xUtil.h
; File C:\IAGOS\server\v18\Source\Source\_Common\randomoption.cpp
; File C:\IAGOS\server\v18\Source\Source\_Common\xUtil.h
; File C:\Program Files\Microsoft Visual Studio\2022\Professional\VC\Tools\MSVC\14.44.35207\include\vector
; File C:\IAGOS\server\v18\Source\Source\_Common\randomoption.cpp
;	COMDAT ?DetermineRandomOptionAdj@CRandomOptionProperty@@AAEFPAU_RANDOM_OPTION@@_N@Z
_TEXT	SEGMENT
_pRandomOption$ = 8					; size = 4
_bDecreaseAdj$ = 12					; size = 1
?DetermineRandomOptionAdj@CRandomOptionProperty@@AAEFPAU_RANDOM_OPTION@@_N@Z PROC ; CRandomOptionProperty::DetermineRandomOptionAdj, COMDAT
; _this$ = ecx

; 307  : {

  00000	55		 push	 ebp
  00001	8b ec		 mov	 ebp, esp
  00003	53		 push	 ebx
; File C:\Program Files\Microsoft Visual Studio\2022\Professional\VC\Tools\MSVC\14.44.35207\include\vector

; 1914 :         auto& _My_data = _Mypair._Myval2;

  00004	8b 5d 08	 mov	 ebx, DWORD PTR _pRandomOption$[ebp]
; File C:\IAGOS\server\v18\Source\Source\_Common\xUtil.h

; 22   : 	return  xRand() % num;

  00007	b8 83 be e0 12	 mov	 eax, 316718723		; 12e0be83H
; File C:\IAGOS\server\v18\Source\Source\_Common\randomoption.cpp

; 307  : {

  0000c	56		 push	 esi
  0000d	57		 push	 edi
; File C:\IAGOS\server\v18\Source\Source\_Common\xUtil.h

; 16   : 	g_next = g_next * 1103515245 + 12345;// + nRandomSeed[ i++ ];

  0000e	69 3d 00 00 00
	00 6d 4e c6 41	 imul	 edi, DWORD PTR ?g_next@@3KA, 1103515245 ; g_next
  00018	81 c7 39 30 00
	00		 add	 edi, 12345		; 00003039H

; 22   : 	return  xRand() % num;

  0001e	f7 e7		 mul	 edi
  00020	8b c7		 mov	 eax, edi

; 16   : 	g_next = g_next * 1103515245 + 12345;// + nRandomSeed[ i++ ];

  00022	89 3d 00 00 00
	00		 mov	 DWORD PTR ?g_next@@3KA, edi ; g_next
; File C:\Program Files\Microsoft Visual Studio\2022\Professional\VC\Tools\MSVC\14.44.35207\include\vector

; 1915 :         return static_cast<size_type>(_My_data._Mylast - _My_data._Myfirst);

  00028	8b 73 0c	 mov	 esi, DWORD PTR [ebx+12]
; File C:\IAGOS\server\v18\Source\Source\_Common\xUtil.h

; 22   : 	return  xRand() % num;

  0002b	2b c2		 sub	 eax, edx
  0002d	d1 e8		 shr	 eax, 1
  0002f	03 c2		 add	 eax, edx
; File C:\IAGOS\server\v18\Source\Source\_Common\randomoption.cpp

; 310  : 	for( DWORD i = 0; i < pRandomOption->aAdjData.size(); i++ )

  00031	33 d2		 xor	 edx, edx
; File C:\IAGOS\server\v18\Source\Source\_Common\xUtil.h

; 22   : 	return  xRand() % num;

  00033	c1 e8 1d	 shr	 eax, 29			; 0000001dH
  00036	69 c0 00 ca 9a
	3b		 imul	 eax, eax, 1000000000
  0003c	2b f8		 sub	 edi, eax
; File C:\Program Files\Microsoft Visual Studio\2022\Professional\VC\Tools\MSVC\14.44.35207\include\vector

; 1915 :         return static_cast<size_type>(_My_data._Mylast - _My_data._Myfirst);

  0003e	8b 43 08	 mov	 eax, DWORD PTR [ebx+8]
  00041	2b f0		 sub	 esi, eax
  00043	c1 fe 03	 sar	 esi, 3
; File C:\IAGOS\server\v18\Source\Source\_Common\randomoption.cpp

; 310  : 	for( DWORD i = 0; i < pRandomOption->aAdjData.size(); i++ )

  00046	85 f6		 test	 esi, esi
  00048	74 18		 je	 SHORT $LN3@DetermineR
  0004a	66 0f 1f 44 00
	00		 npad	 6
$LL4@DetermineR:

; 311  : 	{
; 312  : 		AdjData	ad	= pRandomOption->aAdjData[i];

  00050	8b 08		 mov	 ecx, DWORD PTR [eax]
  00052	0f b7 c9	 movzx	 ecx, cx
  00055	3b 78 04	 cmp	 edi, DWORD PTR [eax+4]

; 313  : 		if( dwRand < ad.dwProb )

  00058	72 1e		 jb	 SHORT $LN23@DetermineR

; 310  : 	for( DWORD i = 0; i < pRandomOption->aAdjData.size(); i++ )

  0005a	42		 inc	 edx
  0005b	83 c0 08	 add	 eax, 8
  0005e	3b d6		 cmp	 edx, esi
  00060	72 ee		 jb	 SHORT $LL4@DetermineR
$LN3@DetermineR:

; 320  : 			}
; 321  : 			else
; 322  : 			{
; 323  : 				return ad.nAdj;
; 324  : 			}
; 325  : 			//	mulcom	END100405
; 326  : 		}
; 327  : 	}
; 328  : 	Error( "CRandomOptionProperty.DetermineRandomOptionAdj: 0" );

  00062	68 00 00 00 00	 push	 OFFSET ??_C@_0DC@KGDBDMMM@CRandomOptionProperty?4Determine@
  00067	e8 00 00 00 00	 call	 ?Error@@YAPBDPBDZZ	; Error
  0006c	83 c4 04	 add	 esp, 4

; 329  : 	return 0;

  0006f	33 c0		 xor	 eax, eax
  00071	5f		 pop	 edi

; 330  : }

  00072	5e		 pop	 esi
  00073	5b		 pop	 ebx
  00074	5d		 pop	 ebp
  00075	c2 08 00	 ret	 8
$LN23@DetermineR:

; 314  : 		{
; 315  : 			//	mulcom	BEGIN100405
; 316  : 			//return ad.nAdj;
; 317  : 			if( bDecreaseAdj == true && i > 0 )

  00078	80 7d 0c 01	 cmp	 BYTE PTR _bDecreaseAdj$[ebp], 1
  0007c	75 13		 jne	 SHORT $LN6@DetermineR
  0007e	85 d2		 test	 edx, edx
  00080	74 0f		 je	 SHORT $LN6@DetermineR

; 318  : 			{
; 319  : 				return	( pRandomOption->aAdjData[i-1].nAdj );

  00082	8b 43 08	 mov	 eax, DWORD PTR [ebx+8]
  00085	5f		 pop	 edi

; 330  : }

  00086	5e		 pop	 esi
  00087	5b		 pop	 ebx
  00088	66 8b 44 d0 f8	 mov	 ax, WORD PTR [eax+edx*8-8]
  0008d	5d		 pop	 ebp
  0008e	c2 08 00	 ret	 8
$LN6@DetermineR:
  00091	5f		 pop	 edi
  00092	5e		 pop	 esi
  00093	66 8b c1	 mov	 ax, cx
  00096	5b		 pop	 ebx
  00097	5d		 pop	 ebp
  00098	c2 08 00	 ret	 8
?DetermineRandomOptionAdj@CRandomOptionProperty@@AAEFPAU_RANDOM_OPTION@@_N@Z ENDP ; CRandomOptionProperty::DetermineRandomOptionAdj
_TEXT	ENDS
; Function compile flags: /Ogtp
; File C:\IAGOS\server\v18\Source\Source\_Common\randomoption.cpp
; File C:\IAGOS\server\v18\Source\Source\_Common\xUtil.h
; File C:\IAGOS\server\v18\Source\Source\_Common\randomoption.cpp
; File C:\Program Files\Microsoft Visual Studio\2022\Professional\VC\Tools\MSVC\14.44.35207\include\vector
; File C:\IAGOS\server\v18\Source\Source\_Common\randomoption.cpp
; File C:\Program Files\Microsoft Visual Studio\2022\Professional\VC\Tools\MSVC\14.44.35207\include\vector
; File C:\IAGOS\server\v18\Source\Source\_Common\randomoption.cpp
;	COMDAT ?DetermineRandomOptionDst@CRandomOptionProperty@@AAEPAU_RANDOM_OPTION@@HH@Z
_TEXT	SEGMENT
_nRandomOptionKind$ = 8					; size = 4
_nParts$ = 12						; size = 4
_dwRand$1$ = 12						; size = 4
?DetermineRandomOptionDst@CRandomOptionProperty@@AAEPAU_RANDOM_OPTION@@HH@Z PROC ; CRandomOptionProperty::DetermineRandomOptionDst, COMDAT
; _this$ = ecx

; 289  : {

  00000	55		 push	 ebp
  00001	8b ec		 mov	 ebp, esp
  00003	53		 push	 ebx
  00004	56		 push	 esi
  00005	57		 push	 edi

; 290  : 	int iRandomOptionKindIndex	= GetRandomOptionKindIndex( nRandomOptionKind, nParts );

  00006	ff 75 0c	 push	 DWORD PTR _nParts$[ebp]
  00009	8b d9		 mov	 ebx, ecx
  0000b	ff 75 08	 push	 DWORD PTR _nRandomOptionKind$[ebp]
  0000e	e8 00 00 00 00	 call	 ?GetRandomOptionKindIndex@CRandomOptionProperty@@AAEHHH@Z ; CRandomOptionProperty::GetRandomOptionKindIndex
  00013	8b f8		 mov	 edi, eax

; 291  : 	DWORD dwRand	= xRandom( GetUpperProbability( iRandomOptionKindIndex ) );

  00015	8b cb		 mov	 ecx, ebx
  00017	57		 push	 edi
  00018	e8 00 00 00 00	 call	 ?GetUpperProbability@CRandomOptionProperty@@AAEHH@Z ; CRandomOptionProperty::GetUpperProbability
  0001d	8b f0		 mov	 esi, eax
; File C:\IAGOS\server\v18\Source\Source\_Common\xUtil.h

; 16   : 	g_next = g_next * 1103515245 + 12345;// + nRandomSeed[ i++ ];

  0001f	33 d2		 xor	 edx, edx
  00021	69 05 00 00 00
	00 6d 4e c6 41	 imul	 eax, DWORD PTR ?g_next@@3KA, 1103515245 ; g_next
  0002b	05 39 30 00 00	 add	 eax, 12345		; 00003039H
  00030	a3 00 00 00 00	 mov	 DWORD PTR ?g_next@@3KA, eax ; g_next
  00035	f7 f6		 div	 esi
; File C:\IAGOS\server\v18\Source\Source\_Common\randomoption.cpp

; 292  : 	for( DWORD i = 0; i < m_aRandomOption[iRandomOptionKindIndex].size(); i++ )

  00037	8d 04 7f	 lea	 eax, DWORD PTR [edi+edi*2]
; File C:\Program Files\Microsoft Visual Studio\2022\Professional\VC\Tools\MSVC\14.44.35207\include\vector

; 1915 :         return static_cast<size_type>(_My_data._Mylast - _My_data._Myfirst);

  0003a	8b 74 83 38	 mov	 esi, DWORD PTR [ebx+eax*4+56]
  0003e	8b 4c 83 34	 mov	 ecx, DWORD PTR [ebx+eax*4+52]
  00042	2b f1		 sub	 esi, ecx
; File C:\IAGOS\server\v18\Source\Source\_Common\randomoption.cpp

; 291  : 	DWORD dwRand	= xRandom( GetUpperProbability( iRandomOptionKindIndex ) );

  00044	89 55 0c	 mov	 DWORD PTR _dwRand$1$[ebp], edx
; File C:\Program Files\Microsoft Visual Studio\2022\Professional\VC\Tools\MSVC\14.44.35207\include\vector

; 1915 :         return static_cast<size_type>(_My_data._Mylast - _My_data._Myfirst);

  00047	b8 67 66 66 66	 mov	 eax, 1717986919		; 66666667H
  0004c	f7 ee		 imul	 esi
  0004e	c1 fa 03	 sar	 edx, 3
  00051	8b f2		 mov	 esi, edx
  00053	c1 ee 1f	 shr	 esi, 31			; 0000001fH
  00056	03 f2		 add	 esi, edx
; File C:\IAGOS\server\v18\Source\Source\_Common\randomoption.cpp

; 292  : 	for( DWORD i = 0; i < m_aRandomOption[iRandomOptionKindIndex].size(); i++ )

  00058	74 13		 je	 SHORT $LN3@DetermineR
  0005a	8b 55 0c	 mov	 edx, DWORD PTR _dwRand$1$[ebp]
  0005d	33 c0		 xor	 eax, eax
  0005f	90		 npad	 1
$LL4@DetermineR:

; 293  : 	{
; 294  : 		RANDOM_OPTION* pRandomOption	= &m_aRandomOption[iRandomOptionKindIndex][i];
; 295  : 		if( (int)( dwRand ) < pRandomOption->nProb )

  00060	3b 51 04	 cmp	 edx, DWORD PTR [ecx+4]
  00063	7c 11		 jl	 SHORT $LN18@DetermineR

; 292  : 	for( DWORD i = 0; i < m_aRandomOption[iRandomOptionKindIndex].size(); i++ )

  00065	40		 inc	 eax
  00066	83 c1 14	 add	 ecx, 20			; 00000014H
  00069	3b c6		 cmp	 eax, esi
  0006b	72 f3		 jb	 SHORT $LL4@DetermineR
$LN3@DetermineR:
  0006d	5f		 pop	 edi

; 296  : 		{
; 297  : 			return pRandomOption;
; 298  : 		}
; 299  : 	}
; 300  : 	return NULL;
; 301  : }

  0006e	5e		 pop	 esi
  0006f	33 c0		 xor	 eax, eax
  00071	5b		 pop	 ebx
  00072	5d		 pop	 ebp
  00073	c2 08 00	 ret	 8
$LN18@DetermineR:
  00076	5f		 pop	 edi
  00077	5e		 pop	 esi
  00078	8b c1		 mov	 eax, ecx
  0007a	5b		 pop	 ebx
  0007b	5d		 pop	 ebp
  0007c	c2 08 00	 ret	 8
?DetermineRandomOptionDst@CRandomOptionProperty@@AAEPAU_RANDOM_OPTION@@HH@Z ENDP ; CRandomOptionProperty::DetermineRandomOptionDst
_TEXT	ENDS
; Function compile flags: /Ogtp
; File C:\IAGOS\server\v18\Source\Source\_Common\randomoption.cpp
; File C:\IAGOS\server\v18\Source\Source\_Common\xUtil.h
; File C:\IAGOS\server\v18\Source\Source\_Common\randomoption.cpp
; File C:\IAGOS\server\v18\Source\Source\_Common\xUtil.h
; File C:\IAGOS\server\v18\Source\Source\_Common\randomoption.cpp
; File C:\IAGOS\server\v18\Source\Source\_Common\xUtil.h
; File C:\IAGOS\server\v18\Source\Source\_Common\randomoption.cpp
;	COMDAT ?DetermineRandomOptionSize@CRandomOptionProperty@@AAEHH@Z
_TEXT	SEGMENT
_nRandomOptionKind$ = 8					; size = 4
?DetermineRandomOptionSize@CRandomOptionProperty@@AAEHH@Z PROC ; CRandomOptionProperty::DetermineRandomOptionSize, COMDAT
; _this$ = ecx

; 277  : {

  00000	55		 push	 ebp
  00001	8b ec		 mov	 ebp, esp

; 278  : 	int nUpper	= m_anRandomOptionProb[nRandomOptionKind][MAX_RANDOM_OPTION - 1];

  00003	8b 45 08	 mov	 eax, DWORD PTR _nRandomOptionKind$[ebp]
; File C:\IAGOS\server\v18\Source\Source\_Common\xUtil.h

; 16   : 	g_next = g_next * 1103515245 + 12345;// + nRandomSeed[ i++ ];

  00006	33 d2		 xor	 edx, edx
; File C:\IAGOS\server\v18\Source\Source\_Common\randomoption.cpp

; 277  : {

  00008	56		 push	 esi

; 278  : 	int nUpper	= m_anRandomOptionProb[nRandomOptionKind][MAX_RANDOM_OPTION - 1];

  00009	8d 04 40	 lea	 eax, DWORD PTR [eax+eax*2]
  0000c	8d 34 81	 lea	 esi, DWORD PTR [ecx+eax*4]
; File C:\IAGOS\server\v18\Source\Source\_Common\xUtil.h

; 16   : 	g_next = g_next * 1103515245 + 12345;// + nRandomSeed[ i++ ];

  0000f	69 05 00 00 00
	00 6d 4e c6 41	 imul	 eax, DWORD PTR ?g_next@@3KA, 1103515245 ; g_next
; File C:\IAGOS\server\v18\Source\Source\_Common\randomoption.cpp

; 278  : 	int nUpper	= m_anRandomOptionProb[nRandomOptionKind][MAX_RANDOM_OPTION - 1];

  00019	8b 4e 0c	 mov	 ecx, DWORD PTR [esi+12]
; File C:\IAGOS\server\v18\Source\Source\_Common\xUtil.h

; 16   : 	g_next = g_next * 1103515245 + 12345;// + nRandomSeed[ i++ ];

  0001c	05 39 30 00 00	 add	 eax, 12345		; 00003039H
  00021	a3 00 00 00 00	 mov	 DWORD PTR ?g_next@@3KA, eax ; g_next
  00026	f7 f1		 div	 ecx
; File C:\IAGOS\server\v18\Source\Source\_Common\randomoption.cpp

; 280  : 	for( int i = 0; i < MAX_RANDOM_OPTION; i++ )

  00028	33 c0		 xor	 eax, eax
  0002a	83 c6 04	 add	 esi, 4
  0002d	0f 1f 00	 npad	 3
$LL4@DetermineR:

; 281  : 	{
; 282  : 		if( (int)( dwRand ) < m_anRandomOptionProb[nRandomOptionKind][i] )

  00030	40		 inc	 eax
  00031	3b 16		 cmp	 edx, DWORD PTR [esi]
  00033	7c 0a		 jl	 SHORT $LN1@DetermineR

; 280  : 	for( int i = 0; i < MAX_RANDOM_OPTION; i++ )

  00035	83 c6 04	 add	 esi, 4
  00038	83 f8 03	 cmp	 eax, 3
  0003b	7c f3		 jl	 SHORT $LL4@DetermineR

; 283  : 			return i + 1;
; 284  : 	}
; 285  : 	return 0;

  0003d	33 c0		 xor	 eax, eax
$LN1@DetermineR:
  0003f	5e		 pop	 esi

; 286  : }

  00040	5d		 pop	 ebp
  00041	c2 04 00	 ret	 4
?DetermineRandomOptionSize@CRandomOptionProperty@@AAEHH@Z ENDP ; CRandomOptionProperty::DetermineRandomOptionSize
_TEXT	ENDS
; Function compile flags: /Ogtp
; File C:\IAGOS\server\v18\Source\Source\_Common\randomoption.cpp
;	COMDAT ?SetParam@CRandomOptionProperty@@QAEXPA_JHH@Z
_TEXT	SEGMENT
_pnRandomOptItemId$ = 8					; size = 4
_nSize$1$ = 8						; size = 4
_nDst$ = 12						; size = 4
_nAdj$ = 16						; size = 4
?SetParam@CRandomOptionProperty@@QAEXPA_JHH@Z PROC	; CRandomOptionProperty::SetParam, COMDAT
; _this$ = ecx

; 85   : {

  00000	55		 push	 ebp
  00001	8b ec		 mov	 ebp, esp
  00003	56		 push	 esi

; 86   : 	int nSize	= GetRandomOptionSize( *pnRandomOptItemId );

  00004	8b 75 08	 mov	 esi, DWORD PTR _pnRandomOptItemId$[ebp]
  00007	57		 push	 edi
  00008	ff 76 04	 push	 DWORD PTR [esi+4]
  0000b	ff 36		 push	 DWORD PTR [esi]
  0000d	e8 00 00 00 00	 call	 ?GetRandomOptionSize@CRandomOptionProperty@@QAEH_J@Z ; CRandomOptionProperty::GetRandomOptionSize
  00012	89 45 08	 mov	 DWORD PTR _nSize$1$[ebp], eax

; 87   : 	ASSERT( nSize < MAX_RANDOM_OPTION );
; 88   : 
; 89   : 	__int64 nRandomOptionItemId		= nDst;

  00015	8b 45 0c	 mov	 eax, DWORD PTR _nDst$[ebp]
  00018	99		 cdq

; 90   : 	nRandomOptionItemId		= nRandomOptionItemId << 10;		// 2 | 8 | 10 | 8 | 10 | 8 | 10 | 8

  00019	8b c8		 mov	 ecx, eax
  0001b	8b fa		 mov	 edi, edx

; 91   : 	//	2 : 
; 92   : 
; 93   : 	//	1 :
; 94   : 	//	7 :
; 95   : 	//	10 :
; 96   : 
; 97   : 	//	8 :
; 98   : 
; 99   : 	if( nAdj < 0 )

  0001d	8b 45 10	 mov	 eax, DWORD PTR _nAdj$[ebp]
  00020	0f a4 cf 0a	 shld	 edi, ecx, 10
  00024	c1 e1 0a	 shl	 ecx, 10			; 0000000aH
  00027	85 c0		 test	 eax, eax
  00029	79 07		 jns	 SHORT $LN2@SetParam

; 100  : 	{
; 101  : 		nRandomOptionItemId	|= 0x0200;	// Ŕ˝ĽöŔÎ °ćżě ĂÖ»óŔ§ şńĆ® 1
; 102  : 		nRandomOptionItemId	= nRandomOptionItemId | ( -nAdj );

  0002b	f7 d8		 neg	 eax
  0002d	0d 00 02 00 00	 or	 eax, 512		; 00000200H
$LN2@SetParam:

; 103  : 	}
; 104  : 	else
; 105  : 		nRandomOptionItemId	= nRandomOptionItemId | nAdj;
; 106  : 
; 107  : 	nRandomOptionItemId	= nRandomOptionItemId << ( 8 + 18 * nSize );	// ÇŘ´ç Ŕ§Äˇ·Î ˝ĂÇÁĆ®

  00032	99		 cdq
  00033	0b c1		 or	 eax, ecx
  00035	0b d7		 or	 edx, edi
  00037	8b 4d 08	 mov	 ecx, DWORD PTR _nSize$1$[ebp]
  0003a	8d 0c c9	 lea	 ecx, DWORD PTR [ecx+ecx*8]
  0003d	8d 0c 4d 08 00
	00 00		 lea	 ecx, DWORD PTR [ecx*2+8]
  00044	e8 00 00 00 00	 call	 __allshl

; 108  : 	*pnRandomOptItemId	|= nRandomOptionItemId;		// °á°ú °Ş ŔúŔĺ

  00049	09 06		 or	 DWORD PTR [esi], eax
  0004b	09 56 04	 or	 DWORD PTR [esi+4], edx
  0004e	5f		 pop	 edi
  0004f	5e		 pop	 esi

; 109  : }

  00050	5d		 pop	 ebp
  00051	c2 0c 00	 ret	 12			; 0000000cH
?SetParam@CRandomOptionProperty@@QAEXPA_JHH@Z ENDP	; CRandomOptionProperty::SetParam
_TEXT	ENDS
; Function compile flags: /Ogtp
; File C:\IAGOS\server\v18\Source\Source\_Common\randomoption.cpp
;	COMDAT ?InitializeRandomOption@CRandomOptionProperty@@QAEXPA_J@Z
_TEXT	SEGMENT
_pnRandomOptItemId$ = 8					; size = 4
?InitializeRandomOption@CRandomOptionProperty@@QAEXPA_J@Z PROC ; CRandomOptionProperty::InitializeRandomOption, COMDAT
; _this$ = ecx

; 345  : {

  00000	55		 push	 ebp
  00001	8b ec		 mov	 ebp, esp

; 346  : 	*pnRandomOptItemId	&= 0xC0000000000000FF;

  00003	8b 45 08	 mov	 eax, DWORD PTR _pnRandomOptItemId$[ebp]
  00006	81 20 ff 00 00
	00		 and	 DWORD PTR [eax], 255	; 000000ffH
  0000c	81 60 04 00 00
	00 c0		 and	 DWORD PTR [eax+4], -1073741824 ; c0000000H

; 347  : }

  00013	5d		 pop	 ebp
  00014	c2 04 00	 ret	 4
?InitializeRandomOption@CRandomOptionProperty@@QAEXPA_J@Z ENDP ; CRandomOptionProperty::InitializeRandomOption
_TEXT	ENDS
; Function compile flags: /Ogtp
; File C:\IAGOS\server\v18\Source\Source\_Common\randomoption.cpp
; File C:\IAGOS\server\v18\Source\Source\_Common\xUtil.h
; File C:\IAGOS\server\v18\Source\Source\_Common\randomoption.cpp
;	COMDAT ?GenRandomOption@CRandomOptionProperty@@QAEHPA_JHH_N@Z
_TEXT	SEGMENT
_nDecreaseNumber$1$ = -4				; size = 4
_pnRandomOptItemId$ = 8					; size = 4
_nRandomOptionKind$ = 12				; size = 4
_nParts$ = 16						; size = 4
_bDecreaseFlag$ = 20					; size = 1
?GenRandomOption@CRandomOptionProperty@@QAEHPA_JHH_N@Z PROC ; CRandomOptionProperty::GenRandomOption, COMDAT
; _this$ = ecx

; 231  : { 

  00000	55		 push	 ebp
  00001	8b ec		 mov	 ebp, esp
  00003	51		 push	 ecx

; 232  : 	if( GetRandomOptionSize( *pnRandomOptItemId )  > 0 )

  00004	8b 45 08	 mov	 eax, DWORD PTR _pnRandomOptItemId$[ebp]
  00007	53		 push	 ebx
  00008	8b d9		 mov	 ebx, ecx
  0000a	ff 70 04	 push	 DWORD PTR [eax+4]
  0000d	ff 30		 push	 DWORD PTR [eax]
  0000f	e8 00 00 00 00	 call	 ?GetRandomOptionSize@CRandomOptionProperty@@QAEH_J@Z ; CRandomOptionProperty::GetRandomOptionSize
  00014	85 c0		 test	 eax, eax
  00016	7e 09		 jle	 SHORT $LN4@GenRandomO

; 233  : 	{
; 234  : 		return FALSE;

  00018	33 c0		 xor	 eax, eax
  0001a	5b		 pop	 ebx

; 274  : }

  0001b	8b e5		 mov	 esp, ebp
  0001d	5d		 pop	 ebp
  0001e	c2 10 00	 ret	 16			; 00000010H
$LN4@GenRandomO:
  00021	56		 push	 esi

; 235  : 	}
; 236  : 
; 237  : 	int nRandomOptionSize	= DetermineRandomOptionSize( nRandomOptionKind );

  00022	8b 75 0c	 mov	 esi, DWORD PTR _nRandomOptionKind$[ebp]
  00025	8b cb		 mov	 ecx, ebx
  00027	57		 push	 edi
  00028	56		 push	 esi
  00029	e8 00 00 00 00	 call	 ?DetermineRandomOptionSize@CRandomOptionProperty@@AAEHH@Z ; CRandomOptionProperty::DetermineRandomOptionSize

; 238  : 
; 239  : 	//	mulcom	BEGIN100405	°˘Ľş ş¸ČŁŔÇ µÎ·ç¸¶¸®
; 240  : 	int	nDecreaseNumber	= -1;
; 241  : 
; 242  : 	if( bDecreaseFlag == true )

  0002e	80 7d 14 01	 cmp	 BYTE PTR _bDecreaseFlag$[ebp], 1
  00032	8b f8		 mov	 edi, eax
  00034	c7 45 fc ff ff
	ff ff		 mov	 DWORD PTR _nDecreaseNumber$1$[ebp], -1
  0003b	75 1b		 jne	 SHORT $LN13@GenRandomO
; File C:\IAGOS\server\v18\Source\Source\_Common\xUtil.h

; 16   : 	g_next = g_next * 1103515245 + 12345;// + nRandomSeed[ i++ ];

  0003d	69 05 00 00 00
	00 6d 4e c6 41	 imul	 eax, DWORD PTR ?g_next@@3KA, 1103515245 ; g_next
  00047	33 d2		 xor	 edx, edx
  00049	05 39 30 00 00	 add	 eax, 12345		; 00003039H
  0004e	a3 00 00 00 00	 mov	 DWORD PTR ?g_next@@3KA, eax ; g_next
  00053	f7 f7		 div	 edi
; File C:\IAGOS\server\v18\Source\Source\_Common\randomoption.cpp

; 244  : 		nDecreaseNumber = xRandom( nRandomOptionSize );

  00055	89 55 fc	 mov	 DWORD PTR _nDecreaseNumber$1$[ebp], edx
$LN13@GenRandomO:

; 245  : 	}
; 246  : 	//	mulcom	END100405	°˘Ľş ş¸ČŁŔÇ µÎ·ç¸¶¸®
; 247  : 
; 248  : 	
; 249  : 	while( nRandomOptionSize-- > 0 )

  00058	85 ff		 test	 edi, edi
  0005a	7e 3e		 jle	 SHORT $LN14@GenRandomO
  0005c	0f 1f 40 00	 npad	 4
$LL16@GenRandomO:

; 250  : 	{
; 251  : 		RANDOM_OPTION* pRandomOption	= DetermineRandomOptionDst( nRandomOptionKind, nParts );

  00060	ff 75 10	 push	 DWORD PTR _nParts$[ebp]
  00063	8b cb		 mov	 ecx, ebx
  00065	4f		 dec	 edi
  00066	56		 push	 esi
  00067	e8 00 00 00 00	 call	 ?DetermineRandomOptionDst@CRandomOptionProperty@@AAEPAU_RANDOM_OPTION@@HH@Z ; CRandomOptionProperty::DetermineRandomOptionDst

; 252  : 		ASSERT( pRandomOption );
; 253  : 
; 254  : 
; 255  : 		//	mulcom	BEGIN100405	°˘Ľş ş¸ČŁŔÇ µÎ·ç¸¶¸®
; 256  : 		//short nAdj	= DetermineRandomOptionAdj( pRandomOption );
; 257  : 		bool	bDecreaseAdj	= false;
; 258  : 
; 259  : 		if( nRandomOptionSize == nDecreaseNumber )
; 260  : 		{
; 261  : 			bDecreaseAdj = true;
; 262  : 		}
; 263  : 		else
; 264  : 		{
; 265  : 			bDecreaseAdj = false;
; 266  : 		}
; 267  : 
; 268  : 		short nAdj	= DetermineRandomOptionAdj( pRandomOption, bDecreaseAdj );

  0006c	3b 7d fc	 cmp	 edi, DWORD PTR _nDecreaseNumber$1$[ebp]
  0006f	8b f0		 mov	 esi, eax
  00071	0f 94 c1	 sete	 cl
  00074	0f b6 c9	 movzx	 ecx, cl
  00077	51		 push	 ecx
  00078	56		 push	 esi
  00079	8b cb		 mov	 ecx, ebx
  0007b	e8 00 00 00 00	 call	 ?DetermineRandomOptionAdj@CRandomOptionProperty@@AAEFPAU_RANDOM_OPTION@@_N@Z ; CRandomOptionProperty::DetermineRandomOptionAdj
  00080	0f b7 c8	 movzx	 ecx, ax

; 269  : 		//	mulcom	END100405	°˘Ľş ş¸ČŁŔÇ µÎ·ç¸¶¸®
; 270  : 
; 271  : 		SetParam( pnRandomOptItemId, pRandomOption->nDst, nAdj );

  00083	0f bf c9	 movsx	 ecx, cx
  00086	51		 push	 ecx
  00087	ff 36		 push	 DWORD PTR [esi]
  00089	8b cb		 mov	 ecx, ebx
  0008b	ff 75 08	 push	 DWORD PTR _pnRandomOptItemId$[ebp]
  0008e	e8 00 00 00 00	 call	 ?SetParam@CRandomOptionProperty@@QAEXPA_JHH@Z ; CRandomOptionProperty::SetParam
  00093	8b 75 0c	 mov	 esi, DWORD PTR _nRandomOptionKind$[ebp]
  00096	85 ff		 test	 edi, edi
  00098	7f c6		 jg	 SHORT $LL16@GenRandomO
$LN14@GenRandomO:

; 272  : 	}
; 273  : 	return TRUE;

  0009a	5f		 pop	 edi
  0009b	5e		 pop	 esi
  0009c	b8 01 00 00 00	 mov	 eax, 1
  000a1	5b		 pop	 ebx

; 274  : }

  000a2	8b e5		 mov	 esp, ebp
  000a4	5d		 pop	 ebp
  000a5	c2 10 00	 ret	 16			; 00000010H
?GenRandomOption@CRandomOptionProperty@@QAEHPA_JHH_N@Z ENDP ; CRandomOptionProperty::GenRandomOption
_TEXT	ENDS
; Function compile flags: /Ogtp
; File C:\IAGOS\server\v18\Source\Source\_Common\randomoption.cpp
; File C:\IAGOS\server\v18\Source\Source\_Common\Project.h
; File C:\IAGOS\server\v18\Source\Source\_Common\randomoption.cpp
; File C:\IAGOS\server\v18\Source\Source\_Common\Item.h
; File C:\IAGOS\server\v18\Source\Source\_Common\randomoption.cpp
; File C:\IAGOS\server\v18\Source\Source\_Common\Item.h
; File C:\IAGOS\server\v18\Source\Source\_Common\Project.h
; File C:\IAGOS\server\v18\Source\Source\_Common\data.h
; File C:\IAGOS\server\v18\Source\Source\_Common\Project.h
; File C:\IAGOS\server\v18\Source\Source\_Common\randomoption.cpp
; File C:\IAGOS\server\v18\Source\Source\_Common\Item.h
; File C:\IAGOS\server\v18\Source\Source\_Common\Project.h
; File C:\IAGOS\server\v18\Source\Source\_Common\data.h
; File C:\IAGOS\server\v18\Source\Source\_Common\Project.h
; File C:\IAGOS\server\v18\Source\Source\_Common\ProjectCmn.h
; File C:\IAGOS\server\v18\Source\Source\_Common\randomoption.cpp
;	COMDAT ?GetRandomOptionKind@CRandomOptionProperty@@QAEHPAVCItemElem@@@Z
_TEXT	SEGMENT
_pItemElem$ = 8						; size = 4
?GetRandomOptionKind@CRandomOptionProperty@@QAEHPAVCItemElem@@@Z PROC ; CRandomOptionProperty::GetRandomOptionKind, COMDAT
; _this$ = ecx

; 112  : {

  00000	55		 push	 ebp
  00001	8b ec		 mov	 ebp, esp
; File C:\IAGOS\server\v18\Source\Source\_Common\Project.h

; 1389 : 	VERIFY_RANGE_ASSERT( nIndex, 0, m_aPropItem.GetSize(), "GetItemProp range_error", NULL );

  00003	8b 0d 40 02 00
	00		 mov	 ecx, DWORD PTR ?prj@@3VCProject@@A+576
; File C:\IAGOS\server\v18\Source\Source\_Common\randomoption.cpp

; 112  : {

  00009	56		 push	 esi
; File C:\IAGOS\server\v18\Source\Source\_Common\Item.h

; 230  : 	ItemProp*	GetProp()	{	return prj.GetItemProp( m_dwItemId );	}

  0000a	8b 75 08	 mov	 esi, DWORD PTR _pItemElem$[ebp]
; File C:\IAGOS\server\v18\Source\Source\_Common\randomoption.cpp

; 112  : {

  0000d	57		 push	 edi
; File C:\IAGOS\server\v18\Source\Source\_Common\Item.h

; 230  : 	ItemProp*	GetProp()	{	return prj.GetItemProp( m_dwItemId );	}

  0000e	8b 46 0c	 mov	 eax, DWORD PTR [esi+12]
; File C:\IAGOS\server\v18\Source\Source\_Common\Project.h

; 1389 : 	VERIFY_RANGE_ASSERT( nIndex, 0, m_aPropItem.GetSize(), "GetItemProp range_error", NULL );

  00011	85 c0		 test	 eax, eax
  00013	78 11		 js	 SHORT $LN29@GetRandomO
  00015	3b c1		 cmp	 eax, ecx
  00017	7d 0d		 jge	 SHORT $LN29@GetRandomO
; File C:\IAGOS\server\v18\Source\Source\_Common\data.h

; 270  : 	if( dwIndex >= (DWORD)m_nMaxIndex )

  00019	8b 3d 30 02 00
	00		 mov	 edi, DWORD PTR ?prj@@3VCProject@@A+560
  0001f	73 27		 jae	 SHORT $LN67@GetRandomO

; 271  : 		return NULL;
; 272  : 	return (T*) m_apOffset[ dwIndex ];

  00021	8b 14 87	 mov	 edx, DWORD PTR [edi+eax*4]
; File C:\IAGOS\server\v18\Source\Source\_Common\Project.h

; 1390 : 	return m_aPropItem.GetAt( nIndex ); 

  00024	eb 24		 jmp	 SHORT $LN24@GetRandomO
$LN29@GetRandomO:

; 579  : 	LPCTSTR szErr = Error( _T( "%s min:%d, max:%d, index:%d" ), szMsg, nMin, nMax, nIndex ); 

  00026	50		 push	 eax
  00027	51		 push	 ecx
  00028	6a 00		 push	 0
  0002a	68 00 00 00 00	 push	 OFFSET ??_C@_0BI@BEIFNGEL@GetItemProp?5range_error@
  0002f	68 00 00 00 00	 push	 OFFSET ??_C@_0BM@HMFGHCP@?$CFs?5min?3?$CFd?0?5max?3?$CFd?0?5index?3?$CFd@
  00034	e8 00 00 00 00	 call	 ?Error@@YAPBDPBDZZ	; Error

; 1389 : 	VERIFY_RANGE_ASSERT( nIndex, 0, m_aPropItem.GetSize(), "GetItemProp range_error", NULL );

  00039	8b 0d 40 02 00
	00		 mov	 ecx, DWORD PTR ?prj@@3VCProject@@A+576

; 579  : 	LPCTSTR szErr = Error( _T( "%s min:%d, max:%d, index:%d" ), szMsg, nMin, nMax, nIndex ); 

  0003f	83 c4 14	 add	 esp, 20			; 00000014H

; 1389 : 	VERIFY_RANGE_ASSERT( nIndex, 0, m_aPropItem.GetSize(), "GetItemProp range_error", NULL );

  00042	8b 3d 30 02 00
	00		 mov	 edi, DWORD PTR ?prj@@3VCProject@@A+560
$LN67@GetRandomO:
; File C:\IAGOS\server\v18\Source\Source\_Common\randomoption.cpp

; 114  : 	switch( pProp->dwParts )

  00048	33 d2		 xor	 edx, edx
$LN24@GetRandomO:
  0004a	8b 82 a8 00 00
	00		 mov	 eax, DWORD PTR [edx+168]
  00050	83 c0 fe	 add	 eax, -2			; fffffffeH
  00053	83 f8 1b	 cmp	 eax, 27			; 0000001bH
  00056	77 59		 ja	 SHORT $LN17@GetRandomO
  00058	0f b6 80 00 00
	00 00		 movzx	 eax, BYTE PTR $LN55@GetRandomO[eax]
  0005f	ff 24 85 00 00
	00 00		 jmp	 DWORD PTR $LN56@GetRandomO[eax*4]
$LN4@GetRandomO:
; File C:\IAGOS\server\v18\Source\Source\_Common\Item.h

; 230  : 	ItemProp*	GetProp()	{	return prj.GetItemProp( m_dwItemId );	}

  00066	8b 46 0c	 mov	 eax, DWORD PTR [esi+12]
; File C:\IAGOS\server\v18\Source\Source\_Common\Project.h

; 1389 : 	VERIFY_RANGE_ASSERT( nIndex, 0, m_aPropItem.GetSize(), "GetItemProp range_error", NULL );

  00069	85 c0		 test	 eax, eax
  0006b	78 0b		 js	 SHORT $LN43@GetRandomO
  0006d	3b c1		 cmp	 eax, ecx
  0006f	7d 07		 jge	 SHORT $LN43@GetRandomO
; File C:\IAGOS\server\v18\Source\Source\_Common\data.h

; 270  : 	if( dwIndex >= (DWORD)m_nMaxIndex )

  00071	73 1b		 jae	 SHORT $LN68@GetRandomO

; 271  : 		return NULL;
; 272  : 	return (T*) m_apOffset[ dwIndex ];

  00073	8b 04 87	 mov	 eax, DWORD PTR [edi+eax*4]
; File C:\IAGOS\server\v18\Source\Source\_Common\Project.h

; 1390 : 	return m_aPropItem.GetAt( nIndex ); 

  00076	eb 18		 jmp	 SHORT $LN38@GetRandomO
$LN43@GetRandomO:

; 579  : 	LPCTSTR szErr = Error( _T( "%s min:%d, max:%d, index:%d" ), szMsg, nMin, nMax, nIndex ); 

  00078	50		 push	 eax
  00079	51		 push	 ecx
  0007a	6a 00		 push	 0
  0007c	68 00 00 00 00	 push	 OFFSET ??_C@_0BI@BEIFNGEL@GetItemProp?5range_error@
  00081	68 00 00 00 00	 push	 OFFSET ??_C@_0BM@HMFGHCP@?$CFs?5min?3?$CFd?0?5max?3?$CFd?0?5index?3?$CFd@
  00086	e8 00 00 00 00	 call	 ?Error@@YAPBDPBDZZ	; Error
  0008b	83 c4 14	 add	 esp, 20			; 00000014H
$LN68@GetRandomO:
; File C:\IAGOS\server\v18\Source\Source\_Common\ProjectCmn.h

; 446  : 		return( dwReferStat1 >= BARUNA_D && dwReferStat1 <= BARUNA_S );

  0008e	33 c0		 xor	 eax, eax
$LN38@GetRandomO:
  00090	8b 80 d0 01 00
	00		 mov	 eax, DWORD PTR [eax+464]
  00096	83 e8 04	 sub	 eax, 4
  00099	83 f8 04	 cmp	 eax, 4
  0009c	76 37		 jbe	 SHORT $LN20@GetRandomO
; File C:\IAGOS\server\v18\Source\Source\_Common\randomoption.cpp

; 130  : 					return static_cast<int>( eAwakening );

  0009e	5f		 pop	 edi
  0009f	33 c0		 xor	 eax, eax

; 155  : }

  000a1	5e		 pop	 esi
  000a2	5d		 pop	 ebp
  000a3	c2 04 00	 ret	 4
$LN11@GetRandomO:
  000a6	5f		 pop	 edi

; 131  : 			}
; 132  : #endif // __NEW_ITEM_VARUNA
; 133  : 		case PARTS_CLOTH:
; 134  : 		case PARTS_CLOAK:
; 135  : #if __VER >= 12 // __J12_0
; 136  : 		case PARTS_HAT:		// °ŃżĘ ¸Ó¸®
; 137  : 		case PARTS_GLOVE:	// °ŃżĘ ĽŐ
; 138  : 		case PARTS_BOOTS:	// °ŃżĘ ąß
; 139  : #endif	// __J12_0
; 140  : 			return static_cast<int>( eBlessing );

  000a7	b8 01 00 00 00	 mov	 eax, 1

; 155  : }

  000ac	5e		 pop	 esi
  000ad	5d		 pop	 ebp
  000ae	c2 04 00	 ret	 4
$LN17@GetRandomO:

; 141  : #if __VER >= 12 // __PET_0519
; 142  : 		default:
; 143  : 			{
; 144  : 				// C±Ţ ŔĚ»óŔÇ ˝Ă˝şĹŰ ĆęŔÎ°ˇ?
; 145  : 				if( pProp->dwItemKind3 == IK3_EGG && pItemElem->m_pPet && pItemElem->m_pPet->GetLevel() >= PL_C )

  000b1	8b 4a 78	 mov	 ecx, DWORD PTR [edx+120]
  000b4	83 f9 78	 cmp	 ecx, 120		; 00000078H
  000b7	75 25		 jne	 SHORT $LN18@GetRandomO
  000b9	8b 86 a0 00 00
	00		 mov	 eax, DWORD PTR [esi+160]
  000bf	85 c0		 test	 eax, eax
  000c1	74 12		 je	 SHORT $LN20@GetRandomO
  000c3	80 78 05 02	 cmp	 BYTE PTR [eax+5], 2
  000c7	5f		 pop	 edi
  000c8	1b c0		 sbb	 eax, eax
  000ca	83 e0 fd	 and	 eax, -3			; fffffffdH
  000cd	83 c0 02	 add	 eax, 2

; 155  : }

  000d0	5e		 pop	 esi
  000d1	5d		 pop	 ebp
  000d2	c2 04 00	 ret	 4
$LN20@GetRandomO:
  000d5	5f		 pop	 edi

; 149  : 					return static_cast<int>( eEatPet );
; 150  : 				break;
; 151  : 			}
; 152  : #endif	// __PET_0519
; 153  : 	}
; 154  : 	return -1;

  000d6	83 c8 ff	 or	 eax, -1

; 155  : }

  000d9	5e		 pop	 esi
  000da	5d		 pop	 ebp
  000db	c2 04 00	 ret	 4
$LN18@GetRandomO:

; 146  : 					return static_cast<int>( eSystemPet );
; 147  : 				// ¸ÔĆęŔÎ°ˇ?
; 148  : 				else if( pProp->dwItemKind3 == IK3_PET )

  000de	33 c0		 xor	 eax, eax
  000e0	83 f9 64	 cmp	 ecx, 100		; 00000064H
  000e3	5f		 pop	 edi
  000e4	0f 94 c0	 sete	 al

; 155  : }

  000e7	5e		 pop	 esi
  000e8	8d 04 85 ff ff
	ff ff		 lea	 eax, DWORD PTR [eax*4-1]
  000ef	5d		 pop	 ebp
  000f0	c2 04 00	 ret	 4
  000f3	90		 npad	 1
$LN56@GetRandomO:
  000f4	00 00 00 00	 DD	 $LN4@GetRandomO
  000f8	00 00 00 00	 DD	 $LN11@GetRandomO
  000fc	00 00 00 00	 DD	 $LN17@GetRandomO
$LN55@GetRandomO:
  00100	00		 DB	 0
  00101	02		 DB	 2
  00102	00		 DB	 0
  00103	00		 DB	 0
  00104	00		 DB	 0
  00105	02		 DB	 2
  00106	01		 DB	 1
  00107	02		 DB	 2
  00108	00		 DB	 0
  00109	00		 DB	 0
  0010a	02		 DB	 2
  0010b	02		 DB	 2
  0010c	02		 DB	 2
  0010d	02		 DB	 2
  0010e	02		 DB	 2
  0010f	02		 DB	 2
  00110	02		 DB	 2
  00111	02		 DB	 2
  00112	02		 DB	 2
  00113	02		 DB	 2
  00114	02		 DB	 2
  00115	02		 DB	 2
  00116	02		 DB	 2
  00117	02		 DB	 2
  00118	01		 DB	 1
  00119	01		 DB	 1
  0011a	01		 DB	 1
  0011b	01		 DB	 1
?GetRandomOptionKind@CRandomOptionProperty@@QAEHPAVCItemElem@@@Z ENDP ; CRandomOptionProperty::GetRandomOptionKind
_TEXT	ENDS
; Function compile flags: /Ogtp
; File C:\IAGOS\server\v18\Source\Source\_Common\randomoption.cpp
;	COMDAT ?GetViewRandomOptionSize@CRandomOptionProperty@@QAEH_J@Z
_TEXT	SEGMENT
_n64RandomOptItemId$ = 8				; size = 8
?GetViewRandomOptionSize@CRandomOptionProperty@@QAEH_J@Z PROC ; CRandomOptionProperty::GetViewRandomOptionSize, COMDAT
; _this$ = ecx

; 208  : {

  00000	55		 push	 ebp
  00001	8b ec		 mov	 ebp, esp
  00003	53		 push	 ebx
  00004	56		 push	 esi
  00005	57		 push	 edi

; 209  : 	int nSize	= 0;

  00006	33 ff		 xor	 edi, edi

; 210  : 
; 211  : 	__int64 i	= 0x3FFFF << 8;

  00008	33 f6		 xor	 esi, esi
  0000a	b9 00 ff ff 03	 mov	 ecx, 67108608		; 03ffff00H

; 212  : 	for( int j = 0; j < MAX_RANDOM_OPTION; j++ )

  0000f	33 db		 xor	 ebx, ebx
$LL4@GetViewRan:

; 213  : 	{
; 214  : 		if( n64RandomOptItemId & i )

  00011	8b d1		 mov	 edx, ecx
  00013	8b c6		 mov	 eax, esi
  00015	23 55 08	 and	 edx, DWORD PTR _n64RandomOptItemId$[ebp]
  00018	23 45 0c	 and	 eax, DWORD PTR _n64RandomOptItemId$[ebp+4]
  0001b	0b d0		 or	 edx, eax
  0001d	74 0e		 je	 SHORT $LN5@GetViewRan

; 215  : 			nSize++;
; 216  : 		else
; 217  : 			return nSize;
; 218  : 
; 219  : 		i	= i << 18;

  0001f	0f a4 ce 12	 shld	 esi, ecx, 18
  00023	43		 inc	 ebx
  00024	47		 inc	 edi
  00025	c1 e1 12	 shl	 ecx, 18			; 00000012H
  00028	83 fb 03	 cmp	 ebx, 3
  0002b	7c e4		 jl	 SHORT $LL4@GetViewRan
$LN5@GetViewRan:

; 220  : 	}
; 221  : 
; 222  : 	return nSize;
; 223  : }

  0002d	8b c7		 mov	 eax, edi
  0002f	5f		 pop	 edi
  00030	5e		 pop	 esi
  00031	5b		 pop	 ebx
  00032	5d		 pop	 ebp
  00033	c2 08 00	 ret	 8
?GetViewRandomOptionSize@CRandomOptionProperty@@QAEH_J@Z ENDP ; CRandomOptionProperty::GetViewRandomOptionSize
_TEXT	ENDS
; Function compile flags: /Ogtp
; File C:\IAGOS\server\v18\Source\Source\_Common\randomoption.cpp
;	COMDAT ?GetRandomOptionSize@CRandomOptionProperty@@QAEH_J@Z
_TEXT	SEGMENT
_nRandomOptItemId$ = 8					; size = 8
?GetRandomOptionSize@CRandomOptionProperty@@QAEH_J@Z PROC ; CRandomOptionProperty::GetRandomOptionSize, COMDAT
; _this$ = ecx

; 178  : {

  00000	55		 push	 ebp
  00001	8b ec		 mov	 ebp, esp
  00003	57		 push	 edi

; 179  : 	int nSize	= 0;
; 180  : 
; 181  : 	//	mulcom	BEGIN100405	°˘Ľş ş¸ČŁŔÇ µÎ·ç¸¶¸®
; 182  : 	bool	bCheckedSafeFlag = false;
; 183  : 	bCheckedSafeFlag	= IsCheckedSafeFlag( nRandomOptItemId );

  00004	ff 75 0c	 push	 DWORD PTR _nRandomOptItemId$[ebp+4]
  00007	33 ff		 xor	 edi, edi
  00009	ff 75 08	 push	 DWORD PTR _nRandomOptItemId$[ebp]
  0000c	e8 00 00 00 00	 call	 ?IsCheckedSafeFlag@CRandomOptionProperty@@QAE_N_J@Z ; CRandomOptionProperty::IsCheckedSafeFlag

; 184  : 
; 185  : 	if( bCheckedSafeFlag == true )

  00011	3c 01		 cmp	 al, 1
  00013	75 07		 jne	 SHORT $LN5@GetRandomO

; 186  : 	{
; 187  : 		return	nSize;

  00015	33 c0		 xor	 eax, eax
  00017	5f		 pop	 edi

; 200  : 	}
; 201  : 
; 202  : 	return nSize;
; 203  : }

  00018	5d		 pop	 ebp
  00019	c2 08 00	 ret	 8
$LN5@GetRandomO:
  0001c	53		 push	 ebx
  0001d	56		 push	 esi

; 188  : 	}
; 189  : 	//	mulcom	END100405	°˘Ľş ş¸ČŁŔÇ µÎ·ç¸¶¸®
; 190  : 
; 191  : 	__int64 i	= 0x3FFFF << 8;

  0001e	33 f6		 xor	 esi, esi
  00020	b9 00 ff ff 03	 mov	 ecx, 67108608		; 03ffff00H

; 192  : 	for( int j = 0; j < MAX_RANDOM_OPTION; j++ )

  00025	33 db		 xor	 ebx, ebx
$LL4@GetRandomO:

; 193  : 	{
; 194  : 		if( nRandomOptItemId & i )

  00027	8b d1		 mov	 edx, ecx
  00029	8b c6		 mov	 eax, esi
  0002b	23 55 08	 and	 edx, DWORD PTR _nRandomOptItemId$[ebp]
  0002e	23 45 0c	 and	 eax, DWORD PTR _nRandomOptItemId$[ebp+4]
  00031	0b d0		 or	 edx, eax
  00033	74 0e		 je	 SHORT $LN6@GetRandomO

; 198  : 
; 199  : 		i	= i << 18;

  00035	0f a4 ce 12	 shld	 esi, ecx, 18
  00039	43		 inc	 ebx
  0003a	47		 inc	 edi
  0003b	c1 e1 12	 shl	 ecx, 18			; 00000012H
  0003e	83 fb 03	 cmp	 ebx, 3
  00041	7c e4		 jl	 SHORT $LL4@GetRandomO
$LN6@GetRandomO:
  00043	5e		 pop	 esi
  00044	5b		 pop	 ebx

; 195  : 			nSize++;
; 196  : 		else
; 197  : 			return nSize;

  00045	8b c7		 mov	 eax, edi
  00047	5f		 pop	 edi

; 200  : 	}
; 201  : 
; 202  : 	return nSize;
; 203  : }

  00048	5d		 pop	 ebp
  00049	c2 08 00	 ret	 8
?GetRandomOptionSize@CRandomOptionProperty@@QAEH_J@Z ENDP ; CRandomOptionProperty::GetRandomOptionSize
_TEXT	ENDS
; Function compile flags: /Ogtp
; File C:\IAGOS\server\v18\Source\Source\_Common\randomoption.cpp
;	COMDAT ?GetParam@CRandomOptionProperty@@QAEH_JHPAH1@Z
_TEXT	SEGMENT
_nRandomOptItemId$ = 8					; size = 8
_i$ = 16						; size = 4
_pnDst$ = 20						; size = 4
_pnAdj$ = 24						; size = 4
?GetParam@CRandomOptionProperty@@QAEH_JHPAH1@Z PROC	; CRandomOptionProperty::GetParam, COMDAT
; _this$ = ecx

; 158  : {

  00000	55		 push	 ebp
  00001	8b ec		 mov	 ebp, esp

; 159  : //	ASSERT( i < MAX_RANDOM_OPTION );
; 160  : 	if( i >= MAX_RANDOM_OPTION )

  00003	8b 45 10	 mov	 eax, DWORD PTR _i$[ebp]
  00006	83 f8 03	 cmp	 eax, 3
  00009	7c 06		 jl	 SHORT $LN2@GetParam

; 161  : 		return FALSE;

  0000b	33 c0		 xor	 eax, eax

; 175  : }

  0000d	5d		 pop	 ebp
  0000e	c2 14 00	 ret	 20			; 00000014H
$LN2@GetParam:

; 162  : 
; 163  : 	int nRandomOption	= static_cast<int>( nRandomOptItemId >> ( 8 + i * 18 ) );	// °ŞŔ» °ˇÁ®żŔ±â Ŕ§ÇĎż© ÇŘ´ç Ŕ§Äˇ·Î ˝ĂÇÁĆ®

  00011	8b 55 0c	 mov	 edx, DWORD PTR _nRandomOptItemId$[ebp+4]
  00014	8d 04 c0	 lea	 eax, DWORD PTR [eax+eax*8]
  00017	8d 0c 45 08 00
	00 00		 lea	 ecx, DWORD PTR [eax*2+8]
  0001e	8b 45 08	 mov	 eax, DWORD PTR _nRandomOptItemId$[ebp]
  00021	e8 00 00 00 00	 call	 __allshr

; 164  : 	*pnAdj	= nRandomOption & 0x000001FF;	// ÇĎŔ§ 9şńĆ® °ˇÁ®żČ.

  00026	8b 55 18	 mov	 edx, DWORD PTR _pnAdj$[ebp]
  00029	8b c8		 mov	 ecx, eax
  0002b	25 ff 01 00 00	 and	 eax, 511		; 000001ffH
  00030	89 02		 mov	 DWORD PTR [edx], eax

; 165  : 	if( nRandomOption & 0x00000200 )	// ĂÖ»óŔ§ 10 şńĆ®°ˇ 1ŔĚ¸é Ŕ˝Ľö

  00032	f7 c1 00 02 00
	00		 test	 ecx, 512		; 00000200H
  00038	74 04		 je	 SHORT $LN3@GetParam

; 166  : 		*pnAdj	= -*pnAdj;

  0003a	f7 d8		 neg	 eax
  0003c	89 02		 mov	 DWORD PTR [edx], eax
$LN3@GetParam:

; 167  : 	nRandomOption	= nRandomOption >> 10;	// 10şńĆ® ąĐ°í, 
; 168  : 
; 169  : 	//	mulcom	BEGIN100405	°˘Ľş ş¸ČŁŔÇ µÎ·ç¸¶¸®
; 170  : 	//*pnDst	= nRandomOption & 0x000000FF;	// 8şńĆ® °ˇÁ®żČ
; 171  : 	*pnDst	= nRandomOption & 0x0000007F;	// 8şńĆ® °ˇÁ®żČ

  0003e	8b 45 14	 mov	 eax, DWORD PTR _pnDst$[ebp]
  00041	c1 f9 0a	 sar	 ecx, 10			; 0000000aH
  00044	83 e1 7f	 and	 ecx, 127		; 0000007fH
  00047	89 08		 mov	 DWORD PTR [eax], ecx

; 172  : 	//	mulcom	END100405	°˘Ľş ş¸ČŁŔÇ µÎ·ç¸¶¸®
; 173  : 
; 174  : 	return ( *pnDst > 0 );

  00049	33 c0		 xor	 eax, eax
  0004b	3b c1		 cmp	 eax, ecx
  0004d	1b c0		 sbb	 eax, eax
  0004f	f7 d8		 neg	 eax

; 175  : }

  00051	5d		 pop	 ebp
  00052	c2 14 00	 ret	 20			; 00000014H
?GetParam@CRandomOptionProperty@@QAEH_JHPAH1@Z ENDP	; CRandomOptionProperty::GetParam
_TEXT	ENDS
; Function compile flags: /Ogtp
; File C:\IAGOS\server\v18\Source\Source\_Common\randomoption.cpp
; File C:\Program Files\Microsoft Visual Studio\2022\Professional\VC\Tools\MSVC\14.44.35207\include\vector
; File C:\IAGOS\server\v18\Source\Source\_Common\randomoption.h
; File C:\IAGOS\server\v18\Source\Source\_Common\randomoption.cpp
; File C:\Program Files\Microsoft Visual Studio\2022\Professional\VC\Tools\MSVC\14.44.35207\include\vector
; File C:\IAGOS\server\v18\Source\Source\_Common\randomoption.cpp
; File C:\IAGOS\server\v18\Source\Source\_Common\randomoption.h
; File C:\Program Files\Microsoft Visual Studio\2022\Professional\VC\Tools\MSVC\14.44.35207\include\vector
; File C:\IAGOS\server\v18\Source\Source\_Common\randomoption.cpp
; File C:\Program Files\Microsoft Visual Studio\2022\Professional\VC\Tools\MSVC\14.44.35207\include\vector
; File C:\IAGOS\server\v18\Source\Source\_Common\randomoption.cpp
; File C:\Program Files\Microsoft Visual Studio\2022\Professional\VC\Tools\MSVC\14.44.35207\include\vector
; File C:\Program Files\Microsoft Visual Studio\2022\Professional\VC\Tools\MSVC\14.44.35207\include\xmemory
; File C:\Program Files\Microsoft Visual Studio\2022\Professional\VC\Tools\MSVC\14.44.35207\include\vector
; File C:\Program Files\Microsoft Visual Studio\2022\Professional\VC\Tools\MSVC\14.44.35207\include\xmemory
; File C:\IAGOS\server\v18\Source\Source\_Common\randomoption.cpp
; File C:\Program Files\Microsoft Visual Studio\2022\Professional\VC\Tools\MSVC\14.44.35207\include\xmemory
; File C:\IAGOS\server\v18\Source\Source\_Common\randomoption.cpp
;	COMDAT ?LoadScriptBlock@CRandomOptionProperty@@QAEXAAVCScript@@H@Z
_TEXT	SEGMENT
_ro$ = -44						; size = 20
$T2 = -24						; size = 8
tv572 = -16						; size = 4
__$EHRec$ = -12						; size = 12
_s$ = 8							; size = 4
_nRandomOptionKind$ = 12				; size = 4
tv573 = 12						; size = 4
_nTotalProb2$1$ = 12					; size = 4
?LoadScriptBlock@CRandomOptionProperty@@QAEXAAVCScript@@H@Z PROC ; CRandomOptionProperty::LoadScriptBlock, COMDAT
; _this$ = ecx

; 21   : {

  00000	55		 push	 ebp
  00001	8b ec		 mov	 ebp, esp
  00003	6a ff		 push	 -1
  00005	68 00 00 00 00	 push	 __ehhandler$?LoadScriptBlock@CRandomOptionProperty@@QAEXAAVCScript@@H@Z
  0000a	64 a1 00 00 00
	00		 mov	 eax, DWORD PTR fs:0
  00010	50		 push	 eax
  00011	83 ec 20	 sub	 esp, 32			; 00000020H
  00014	53		 push	 ebx
  00015	56		 push	 esi
  00016	57		 push	 edi
  00017	a1 00 00 00 00	 mov	 eax, DWORD PTR ___security_cookie
  0001c	33 c5		 xor	 eax, ebp
  0001e	50		 push	 eax
  0001f	8d 45 f4	 lea	 eax, DWORD PTR __$EHRec$[ebp]
  00022	64 a3 00 00 00
	00		 mov	 DWORD PTR fs:0, eax

; 22   : 	int nTotalProb1		= 0;

  00028	8b 45 0c	 mov	 eax, DWORD PTR _nRandomOptionKind$[ebp]
  0002b	33 ff		 xor	 edi, edi
  0002d	8b 75 08	 mov	 esi, DWORD PTR _s$[ebp]
  00030	c7 45 0c 03 00
	00 00		 mov	 DWORD PTR tv573[ebp], 3
  00037	8d 04 40	 lea	 eax, DWORD PTR [eax+eax*2]
  0003a	8d 04 81	 lea	 eax, DWORD PTR [ecx+eax*4]
  0003d	89 45 f0	 mov	 DWORD PTR tv572[ebp], eax
  00040	8d 58 04	 lea	 ebx, DWORD PTR [eax+4]
$LL4@LoadScript:

; 23   : 	for( int i = 0; i < MAX_RANDOM_OPTION; i++ )	// 3	// ·Ł´ý żÉĽÇŔĚ ¸î°ł şÎż©µÉ °ÍŔÎ°ˇżˇ ´ëÇŃ Č®·ü
; 24   : 	{
; 25   : 		m_anRandomOptionProb[nRandomOptionKind][i]	= s.GetNumber() + nTotalProb1;

  00043	6a 00		 push	 0
  00045	8b ce		 mov	 ecx, esi
  00047	e8 00 00 00 00	 call	 ?GetNumber@CScanner@@QAEHH@Z ; CScanner::GetNumber
  0004c	03 f8		 add	 edi, eax
  0004e	8d 5b 04	 lea	 ebx, DWORD PTR [ebx+4]
  00051	83 6d 0c 01	 sub	 DWORD PTR tv573[ebp], 1
  00055	89 7b fc	 mov	 DWORD PTR [ebx-4], edi
  00058	75 e9		 jne	 SHORT $LL4@LoadScript

; 26   : 		nTotalProb1	= m_anRandomOptionProb[nRandomOptionKind][i];
; 27   : 	}
; 28   : 	s.GetToken();	// {

  0005a	8b 06		 mov	 eax, DWORD PTR [esi]
  0005c	8b ce		 mov	 ecx, esi
  0005e	6a 00		 push	 0
  00060	ff 50 14	 call	 DWORD PTR [eax+20]

; 29   : 	int nTotalProb2	= 0;

  00063	33 db		 xor	 ebx, ebx
; File C:\Program Files\Microsoft Visual Studio\2022\Professional\VC\Tools\MSVC\14.44.35207\include\vector

; 400  :     _CONSTEXPR20 _Vector_val() noexcept : _Myfirst(), _Mylast(), _Myend() {}

  00065	89 5d dc	 mov	 DWORD PTR _ro$[ebp+8], ebx
  00068	89 5d e0	 mov	 DWORD PTR _ro$[ebp+12], ebx
  0006b	89 5d e4	 mov	 DWORD PTR _ro$[ebp+16], ebx
; File C:\IAGOS\server\v18\Source\Source\_Common\randomoption.h

; 34   : 		nDst	= 0;

  0006e	89 5d d4	 mov	 DWORD PTR _ro$[ebp], ebx

; 35   : 		nProb	= 0;

  00071	89 5d d8	 mov	 DWORD PTR _ro$[ebp+4], ebx
; File C:\IAGOS\server\v18\Source\Source\_Common\randomoption.cpp

; 31   : 	ro.nDst		= s.GetNumber();

  00074	53		 push	 ebx
  00075	8b ce		 mov	 ecx, esi
  00077	89 5d fc	 mov	 DWORD PTR __$EHRec$[ebp+8], ebx
  0007a	e8 00 00 00 00	 call	 ?GetNumber@CScanner@@QAEHH@Z ; CScanner::GetNumber
  0007f	89 45 d4	 mov	 DWORD PTR _ro$[ebp], eax

; 32   : 	while( *s.token != '}' )

  00082	8b 46 3c	 mov	 eax, DWORD PTR [esi+60]
  00085	80 38 7d	 cmp	 BYTE PTR [eax], 125	; 0000007dH
  00088	0f 84 e3 00 00
	00		 je	 $LN6@LoadScript
  0008e	66 90		 npad	 2
$LL5@LoadScript:

; 33   : 	{
; 34   : 		ASSERT( ro.nDst <= 0xFF );	// 255	// 8
; 35   : 		ro.nProb	= s.GetNumber() + nTotalProb2;

  00090	6a 00		 push	 0
  00092	8b ce		 mov	 ecx, esi
  00094	e8 00 00 00 00	 call	 ?GetNumber@CScanner@@QAEHH@Z ; CScanner::GetNumber
  00099	03 d8		 add	 ebx, eax

; 36   : 		nTotalProb2		= ro.nProb;
; 37   : 		s.GetToken();	// {

  0009b	8b ce		 mov	 ecx, esi
  0009d	8b 06		 mov	 eax, DWORD PTR [esi]
  0009f	6a 00		 push	 0
  000a1	89 5d 0c	 mov	 DWORD PTR _nTotalProb2$1$[ebp], ebx
  000a4	89 5d d8	 mov	 DWORD PTR _ro$[ebp+4], ebx
  000a7	ff 50 14	 call	 DWORD PTR [eax+20]

; 38   : 		short	nAdj	= s.GetNumber();

  000aa	6a 00		 push	 0
  000ac	8b ce		 mov	 ecx, esi
  000ae	e8 00 00 00 00	 call	 ?GetNumber@CScanner@@QAEHH@Z ; CScanner::GetNumber
  000b3	0f b7 d8	 movzx	 ebx, ax

; 39   : 		DWORD dwTotalProb3	= 0;

  000b6	33 ff		 xor	 edi, edi

; 40   : 		while( *s.token != '}' )

  000b8	8b 46 3c	 mov	 eax, DWORD PTR [esi+60]
  000bb	80 38 7d	 cmp	 BYTE PTR [eax], 125	; 0000007dH
  000be	74 51		 je	 SHORT $LN84@LoadScript
$LL7@LoadScript:

; 42   : 			DWORD dwProb	= s.GetNumber() + dwTotalProb3;

  000c0	6a 00		 push	 0
  000c2	8b ce		 mov	 ecx, esi
  000c4	e8 00 00 00 00	 call	 ?GetNumber@CScanner@@QAEHH@Z ; CScanner::GetNumber
; File C:\Program Files\Microsoft Visual Studio\2022\Professional\VC\Tools\MSVC\14.44.35207\include\vector

; 844  :         if (_Mylast != _My_data._Myend) {

  000c9	8b 4d e0	 mov	 ecx, DWORD PTR _ro$[ebp+12]
; File C:\IAGOS\server\v18\Source\Source\_Common\randomoption.cpp

; 42   : 			DWORD dwProb	= s.GetNumber() + dwTotalProb3;

  000cc	03 f8		 add	 edi, eax
; File C:\IAGOS\server\v18\Source\Source\_Common\randomoption.h

; 22   : 		nAdj	= n;

  000ce	66 89 5d e8	 mov	 WORD PTR $T2[ebp], bx

; 23   : 		dwProb	= dw;

  000d2	89 7d ec	 mov	 DWORD PTR $T2[ebp+4], edi
; File C:\Program Files\Microsoft Visual Studio\2022\Professional\VC\Tools\MSVC\14.44.35207\include\vector

; 844  :         if (_Mylast != _My_data._Myend) {

  000d5	3b 4d e4	 cmp	 ecx, DWORD PTR _ro$[ebp+16]
  000d8	74 0e		 je	 SHORT $LN28@LoadScript

; 860  :             _STD _Construct_in_place(*_Mylast, _STD forward<_Valty>(_Val)...);

  000da	8b 45 e8	 mov	 eax, DWORD PTR $T2[ebp]
  000dd	89 01		 mov	 DWORD PTR [ecx], eax
  000df	89 79 04	 mov	 DWORD PTR [ecx+4], edi

; 864  :             _ASAN_VECTOR_RELEASE_GUARD;
; 865  :         }
; 866  : 
; 867  :         _Orphan_range(_Mylast, _Mylast);
; 868  :         _Ty& _Result = *_Mylast;
; 869  :         ++_Mylast;

  000e2	83 45 e0 08	 add	 DWORD PTR _ro$[ebp+12], 8

; 845  :             return _Emplace_back_with_unused_capacity(_STD forward<_Valty>(_Val)...);

  000e6	eb 0d		 jmp	 SHORT $LN27@LoadScript
$LN28@LoadScript:

; 846  :         }
; 847  : 
; 848  :         return *_Emplace_reallocate(_Mylast, _STD forward<_Valty>(_Val)...);

  000e8	8d 45 e8	 lea	 eax, DWORD PTR $T2[ebp]
  000eb	50		 push	 eax
  000ec	51		 push	 ecx
  000ed	8d 4d dc	 lea	 ecx, DWORD PTR _ro$[ebp+8]
  000f0	e8 00 00 00 00	 call	 ??$_Emplace_reallocate@U_AdjData@@@?$vector@U_AdjData@@V?$allocator@U_AdjData@@@std@@@std@@AAEPAU_AdjData@@QAU2@$$QAU2@@Z ; std::vector<_AdjData,std::allocator<_AdjData> >::_Emplace_reallocate<_AdjData>
$LN27@LoadScript:
; File C:\IAGOS\server\v18\Source\Source\_Common\randomoption.cpp

; 46   : 			nAdj	= s.GetNumber();

  000f5	6a 00		 push	 0
  000f7	8b ce		 mov	 ecx, esi
  000f9	e8 00 00 00 00	 call	 ?GetNumber@CScanner@@QAEHH@Z ; CScanner::GetNumber
  000fe	0f b7 d8	 movzx	 ebx, ax
  00101	8b 46 3c	 mov	 eax, DWORD PTR [esi+60]
  00104	80 38 7d	 cmp	 BYTE PTR [eax], 125	; 0000007dH
  00107	75 b7		 jne	 SHORT $LL7@LoadScript

; 47   : 		}
; 48   : 		if( dwTotalProb3 != 1000000000 )

  00109	81 ff 00 ca 9a
	3b		 cmp	 edi, 1000000000		; 3b9aca00H
  0010f	74 11		 je	 SHORT $LN9@LoadScript
$LN84@LoadScript:

; 49   : 			Error( "Awakening: nDst = %d, dwTotalProb = %d", ro.nDst, dwTotalProb3 );

  00111	57		 push	 edi
  00112	ff 75 d4	 push	 DWORD PTR _ro$[ebp]
  00115	68 00 00 00 00	 push	 OFFSET ??_C@_0CH@GDAGBDLK@Awakening?3?5nDst?5?$DN?5?$CFd?0?5dwTotalPr@
  0011a	e8 00 00 00 00	 call	 ?Error@@YAPBDPBDZZ	; Error
  0011f	83 c4 0c	 add	 esp, 12			; 0000000cH
$LN9@LoadScript:
; File C:\Program Files\Microsoft Visual Studio\2022\Professional\VC\Tools\MSVC\14.44.35207\include\vector

; 844  :         if (_Mylast != _My_data._Myend) {

  00122	8b 5d f0	 mov	 ebx, DWORD PTR tv572[ebp]
  00125	8d 4d d4	 lea	 ecx, DWORD PTR _ro$[ebp]
  00128	83 c3 34	 add	 ebx, 52			; 00000034H
  0012b	51		 push	 ecx
  0012c	8b 43 04	 mov	 eax, DWORD PTR [ebx+4]
  0012f	50		 push	 eax
  00130	3b 43 08	 cmp	 eax, DWORD PTR [ebx+8]
  00133	74 0f		 je	 SHORT $LN35@LoadScript

; 863  :             _Alty_traits::construct(_Getal(), _Unfancy(_Mylast), _STD forward<_Valty>(_Val)...);

  00135	53		 push	 ebx
  00136	e8 00 00 00 00	 call	 ??$construct@U_RANDOM_OPTION@@ABU1@@?$_Default_allocator_traits@V?$allocator@U_RANDOM_OPTION@@@std@@@std@@SAXAAV?$allocator@U_RANDOM_OPTION@@@1@QAU_RANDOM_OPTION@@ABU3@@Z ; std::_Default_allocator_traits<std::allocator<_RANDOM_OPTION> >::construct<_RANDOM_OPTION,_RANDOM_OPTION const &>
  0013b	83 c4 0c	 add	 esp, 12			; 0000000cH

; 864  :             _ASAN_VECTOR_RELEASE_GUARD;
; 865  :         }
; 866  : 
; 867  :         _Orphan_range(_Mylast, _Mylast);
; 868  :         _Ty& _Result = *_Mylast;
; 869  :         ++_Mylast;

  0013e	83 43 04 14	 add	 DWORD PTR [ebx+4], 20	; 00000014H

; 845  :             return _Emplace_back_with_unused_capacity(_STD forward<_Valty>(_Val)...);

  00142	eb 07		 jmp	 SHORT $LN34@LoadScript
$LN35@LoadScript:

; 846  :         }
; 847  : 
; 848  :         return *_Emplace_reallocate(_Mylast, _STD forward<_Valty>(_Val)...);

  00144	8b cb		 mov	 ecx, ebx
  00146	e8 00 00 00 00	 call	 ??$_Emplace_reallocate@ABU_RANDOM_OPTION@@@?$vector@U_RANDOM_OPTION@@V?$allocator@U_RANDOM_OPTION@@@std@@@std@@AAEPAU_RANDOM_OPTION@@QAU2@ABU2@@Z ; std::vector<_RANDOM_OPTION,std::allocator<_RANDOM_OPTION> >::_Emplace_reallocate<_RANDOM_OPTION const &>
$LN34@LoadScript:

; 1812 :         if (_Myfirst == _Mylast) { // already empty, nothing to do

  0014b	8b 45 dc	 mov	 eax, DWORD PTR _ro$[ebp+8]
  0014e	3b 45 e0	 cmp	 eax, DWORD PTR _ro$[ebp+12]
  00151	74 03		 je	 SHORT $LN39@LoadScript

; 1813 :             // This is an optimization for debug mode: we can avoid taking the debug lock to invalidate iterators.
; 1814 :             // Note that when clearing an empty vector, this will preserve past-the-end iterators, which is allowed by
; 1815 :             // N4950 [sequence.reqmts]/54 "a.clear() [...] may invalidate the past-the-end iterator".
; 1816 :             return;
; 1817 :         }
; 1818 : 
; 1819 :         _My_data._Orphan_all();
; 1820 :         _Destroy_range(_Myfirst, _Mylast, _Getal());
; 1821 :         _ASAN_VECTOR_MODIFY(static_cast<difference_type>(_Myfirst - _Mylast)); // negative when destroying elements
; 1822 :         _Mylast = _Myfirst;

  00153	89 45 e0	 mov	 DWORD PTR _ro$[ebp+12], eax
$LN39@LoadScript:
; File C:\IAGOS\server\v18\Source\Source\_Common\randomoption.cpp

; 52   : 		ro.nDst		= s.GetNumber();

  00156	6a 00		 push	 0
  00158	8b ce		 mov	 ecx, esi
  0015a	e8 00 00 00 00	 call	 ?GetNumber@CScanner@@QAEHH@Z ; CScanner::GetNumber
  0015f	8b 5d 0c	 mov	 ebx, DWORD PTR _nTotalProb2$1$[ebp]
  00162	89 45 d4	 mov	 DWORD PTR _ro$[ebp], eax
  00165	8b 46 3c	 mov	 eax, DWORD PTR [esi+60]
  00168	80 38 7d	 cmp	 BYTE PTR [eax], 125	; 0000007dH
  0016b	0f 85 1f ff ff
	ff		 jne	 $LL5@LoadScript
$LN6@LoadScript:
; File C:\Program Files\Microsoft Visual Studio\2022\Professional\VC\Tools\MSVC\14.44.35207\include\vector

; 2090 :         if (_Myfirst) { // destroy and deallocate old array

  00171	8b 55 dc	 mov	 edx, DWORD PTR _ro$[ebp+8]
  00174	85 d2		 test	 edx, edx
  00176	74 2c		 je	 SHORT $LN52@LoadScript

; 2093 :             _Al.deallocate(_Myfirst, static_cast<size_type>(_Myend - _Myfirst));

  00178	8b 4d e4	 mov	 ecx, DWORD PTR _ro$[ebp+16]
; File C:\Program Files\Microsoft Visual Studio\2022\Professional\VC\Tools\MSVC\14.44.35207\include\xmemory

; 985  :         _STD _Deallocate<_New_alignof<_Ty>>(_Ptr, sizeof(_Ty) * _Count);

  0017b	8b c2		 mov	 eax, edx
; File C:\Program Files\Microsoft Visual Studio\2022\Professional\VC\Tools\MSVC\14.44.35207\include\vector

; 2093 :             _Al.deallocate(_Myfirst, static_cast<size_type>(_Myend - _Myfirst));

  0017d	2b ca		 sub	 ecx, edx
; File C:\Program Files\Microsoft Visual Studio\2022\Professional\VC\Tools\MSVC\14.44.35207\include\xmemory

; 985  :         _STD _Deallocate<_New_alignof<_Ty>>(_Ptr, sizeof(_Ty) * _Count);

  0017f	83 e1 f8	 and	 ecx, -8			; fffffff8H

; 284  :         if (_Bytes >= _Big_allocation_threshold) {

  00182	81 f9 00 10 00
	00		 cmp	 ecx, 4096		; 00001000H
  00188	72 10		 jb	 SHORT $LN65@LoadScript

; 205  :     const uintptr_t _Ptr_container   = _Ptr_user[-1];

  0018a	8b 50 fc	 mov	 edx, DWORD PTR [eax-4]
  0018d	83 c1 23	 add	 ecx, 35			; 00000023H
  00190	2b c2		 sub	 eax, edx

; 219  :     _STL_VERIFY(_Back_shift >= _Min_back_shift && _Back_shift <= _Non_user_size, "invalid argument");

  00192	83 c0 fc	 add	 eax, -4			; fffffffcH
  00195	83 f8 1f	 cmp	 eax, 31			; 0000001fH
  00198	77 1e		 ja	 SHORT $LN88@LoadScript
$LN65@LoadScript:

; 289  :         ::operator delete(_Ptr, _Bytes);

  0019a	51		 push	 ecx
  0019b	52		 push	 edx
  0019c	e8 00 00 00 00	 call	 ??3@YAXPAXI@Z		; operator delete
  001a1	83 c4 08	 add	 esp, 8
$LN52@LoadScript:
; File C:\IAGOS\server\v18\Source\Source\_Common\randomoption.cpp

; 54   : }

  001a4	8b 4d f4	 mov	 ecx, DWORD PTR __$EHRec$[ebp]
  001a7	64 89 0d 00 00
	00 00		 mov	 DWORD PTR fs:0, ecx
  001ae	59		 pop	 ecx
  001af	5f		 pop	 edi
  001b0	5e		 pop	 esi
  001b1	5b		 pop	 ebx
  001b2	8b e5		 mov	 esp, ebp
  001b4	5d		 pop	 ebp
  001b5	c2 08 00	 ret	 8
$LN88@LoadScript:
; File C:\Program Files\Microsoft Visual Studio\2022\Professional\VC\Tools\MSVC\14.44.35207\include\xmemory

; 219  :     _STL_VERIFY(_Back_shift >= _Min_back_shift && _Back_shift <= _Non_user_size, "invalid argument");

  001b8	6a 00		 push	 0
  001ba	6a 00		 push	 0
  001bc	6a 00		 push	 0
  001be	6a 00		 push	 0
  001c0	6a 00		 push	 0
  001c2	e8 00 00 00 00	 call	 __invoke_watson
$LN86@LoadScript:
  001c7	cc		 int	 3
_TEXT	ENDS
;	COMDAT text$x
text$x	SEGMENT
__unwindfunclet$?LoadScriptBlock@CRandomOptionProperty@@QAEXAAVCScript@@H@Z$0:
  00000	8d 4d d4	 lea	 ecx, DWORD PTR _ro$[ebp]
  00003	e9 00 00 00 00	 jmp	 ??1_RANDOM_OPTION@@QAE@XZ
  00008	cc		 int	 3
  00009	cc		 int	 3
  0000a	cc		 int	 3
  0000b	cc		 int	 3
  0000c	cc		 int	 3
__ehhandler$?LoadScriptBlock@CRandomOptionProperty@@QAEXAAVCScript@@H@Z:
  0000d	90		 npad	 1
  0000e	90		 npad	 1
  0000f	8b 54 24 08	 mov	 edx, DWORD PTR [esp+8]
  00013	8d 42 0c	 lea	 eax, DWORD PTR [edx+12]
  00016	8b 4a d0	 mov	 ecx, DWORD PTR [edx-48]
  00019	33 c8		 xor	 ecx, eax
  0001b	e8 00 00 00 00	 call	 @__security_check_cookie@4
  00020	b8 00 00 00 00	 mov	 eax, OFFSET __ehfuncinfo$?LoadScriptBlock@CRandomOptionProperty@@QAEXAAVCScript@@H@Z
  00025	e9 00 00 00 00	 jmp	 ___CxxFrameHandler3
text$x	ENDS
?LoadScriptBlock@CRandomOptionProperty@@QAEXAAVCScript@@H@Z ENDP ; CRandomOptionProperty::LoadScriptBlock
; Function compile flags: /Ogtp
; File C:\IAGOS\server\v18\Source\Source\_Common\randomoption.cpp
; File C:\Program Files\Microsoft Visual Studio\2022\Professional\VC\Tools\MSVC\14.44.35207\atlmfc\include\cstringt.h
; File C:\IAGOS\server\v18\Source\Source\_Common\randomoption.cpp
; File C:\Program Files\Microsoft Visual Studio\2022\Professional\VC\Tools\MSVC\14.44.35207\atlmfc\include\cstringt.h
; File C:\IAGOS\server\v18\Source\Source\_Common\randomoption.cpp
; File C:\Program Files\Microsoft Visual Studio\2022\Professional\VC\Tools\MSVC\14.44.35207\atlmfc\include\cstringt.h
; File C:\IAGOS\server\v18\Source\Source\_Common\randomoption.cpp
; File C:\Program Files\Microsoft Visual Studio\2022\Professional\VC\Tools\MSVC\14.44.35207\atlmfc\include\cstringt.h
; File C:\IAGOS\server\v18\Source\Source\_Common\randomoption.cpp
;	COMDAT ?LoadScript@CRandomOptionProperty@@QAEHPBD@Z
_TEXT	SEGMENT
_s$ = -3576						; size = 3560
__$ArrayPad$ = -16					; size = 4
__$EHRec$ = -12						; size = 12
_szFile$ = 8						; size = 4
?LoadScript@CRandomOptionProperty@@QAEHPBD@Z PROC	; CRandomOptionProperty::LoadScript, COMDAT
; _this$ = ecx

; 57   : {

  00000	55		 push	 ebp
  00001	8b ec		 mov	 ebp, esp
  00003	6a ff		 push	 -1
  00005	68 00 00 00 00	 push	 __ehhandler$?LoadScript@CRandomOptionProperty@@QAEHPBD@Z
  0000a	64 a1 00 00 00
	00		 mov	 eax, DWORD PTR fs:0
  00010	50		 push	 eax
  00011	81 ec ec 0d 00
	00		 sub	 esp, 3564		; 00000decH
  00017	a1 00 00 00 00	 mov	 eax, DWORD PTR ___security_cookie
  0001c	33 c5		 xor	 eax, ebp
  0001e	89 45 f0	 mov	 DWORD PTR __$ArrayPad$[ebp], eax
  00021	56		 push	 esi
  00022	57		 push	 edi
  00023	50		 push	 eax
  00024	8d 45 f4	 lea	 eax, DWORD PTR __$EHRec$[ebp]
  00027	64 a3 00 00 00
	00		 mov	 DWORD PTR fs:0, eax
  0002d	8b f9		 mov	 edi, ecx
  0002f	8b 75 08	 mov	 esi, DWORD PTR _szFile$[ebp]

; 58   : 	CScript s;

  00032	8d 8d 08 f2 ff
	ff		 lea	 ecx, DWORD PTR _s$[ebp]
  00038	6a 00		 push	 0
  0003a	e8 00 00 00 00	 call	 ??0CScript@@QAE@H@Z	; CScript::CScript

; 59   : 	if( s.Load( szFile ) == FALSE )

  0003f	6a 00		 push	 0
  00041	6a 01		 push	 1
  00043	56		 push	 esi
  00044	8d 8d 08 f2 ff
	ff		 lea	 ecx, DWORD PTR _s$[ebp]
  0004a	c7 45 fc 00 00
	00 00		 mov	 DWORD PTR __$EHRec$[ebp+8], 0
  00051	e8 00 00 00 00	 call	 ?Load@CScript@@QAEHPBDHH@Z ; CScript::Load
  00056	85 c0		 test	 eax, eax
  00058	75 07		 jne	 SHORT $LN4@LoadScript
  0005a	33 f6		 xor	 esi, esi
  0005c	e9 bc 00 00 00	 jmp	 $LN14@LoadScript
$LN4@LoadScript:

; 60   : 		return FALSE;
; 61   : 
; 62   : 	s.GetToken();	// subject or FINISHED

  00061	6a 00		 push	 0
  00063	8d 8d 08 f2 ff
	ff		 lea	 ecx, DWORD PTR _s$[ebp]
  00069	e8 00 00 00 00	 call	 ?GetToken@CScript@@UAEHH@Z ; CScript::GetToken

; 63   : 	while( s.tok != FINISHED )

  0006e	83 bd 4c fa ff
	ff 15		 cmp	 DWORD PTR _s$[ebp+2116], 21 ; 00000015H
  00075	0f 84 96 00 00
	00		 je	 $LN3@LoadScript
  0007b	0f 1f 44 00 00	 npad	 5
$LL2@LoadScript:
; File C:\Program Files\Microsoft Visual Studio\2022\Professional\VC\Tools\MSVC\14.44.35207\atlmfc\include\cstringt.h

; 184  : 		return _mbscmp( reinterpret_cast< const unsigned char* >( pszA ), reinterpret_cast< const unsigned char* >( pszB ) );

  00080	68 00 00 00 00	 push	 OFFSET ??_C@_09DMNPBJDH@Awakening@
  00085	ff b5 28 f2 ff
	ff		 push	 DWORD PTR _s$[ebp+32]
  0008b	e8 00 00 00 00	 call	 __mbscmp
  00090	83 c4 08	 add	 esp, 8

; 2490 : 		return(str1.Compare(psz2) == 0);

  00093	85 c0		 test	 eax, eax
; File C:\IAGOS\server\v18\Source\Source\_Common\randomoption.cpp

; 65   : 		if( s.Token == _T( "Awakening" ) )

  00095	75 03		 jne	 SHORT $LN37@LoadScript

; 66   : 			LoadScriptBlock( s, eAwakening );

  00097	50		 push	 eax
  00098	eb 4f		 jmp	 SHORT $LN89@LoadScript
$LN37@LoadScript:
; File C:\Program Files\Microsoft Visual Studio\2022\Professional\VC\Tools\MSVC\14.44.35207\atlmfc\include\cstringt.h

; 184  : 		return _mbscmp( reinterpret_cast< const unsigned char* >( pszA ), reinterpret_cast< const unsigned char* >( pszB ) );

  0009a	68 00 00 00 00	 push	 OFFSET ??_C@_08KKEHFANF@Blessing@
  0009f	ff b5 28 f2 ff
	ff		 push	 DWORD PTR _s$[ebp+32]
  000a5	e8 00 00 00 00	 call	 __mbscmp
  000aa	83 c4 08	 add	 esp, 8

; 2490 : 		return(str1.Compare(psz2) == 0);

  000ad	85 c0		 test	 eax, eax
; File C:\IAGOS\server\v18\Source\Source\_Common\randomoption.cpp

; 67   : 		else if( s.Token == _T( "Blessing" ) )

  000af	75 04		 jne	 SHORT $LN53@LoadScript

; 68   : 			LoadScriptBlock( s, eBlessing );

  000b1	6a 01		 push	 1
  000b3	eb 34		 jmp	 SHORT $LN89@LoadScript
$LN53@LoadScript:
; File C:\Program Files\Microsoft Visual Studio\2022\Professional\VC\Tools\MSVC\14.44.35207\atlmfc\include\cstringt.h

; 184  : 		return _mbscmp( reinterpret_cast< const unsigned char* >( pszA ), reinterpret_cast< const unsigned char* >( pszB ) );

  000b5	68 00 00 00 00	 push	 OFFSET ??_C@_09NPHHCKIJ@SystemPet@
  000ba	ff b5 28 f2 ff
	ff		 push	 DWORD PTR _s$[ebp+32]
  000c0	e8 00 00 00 00	 call	 __mbscmp
  000c5	83 c4 08	 add	 esp, 8

; 2490 : 		return(str1.Compare(psz2) == 0);

  000c8	85 c0		 test	 eax, eax
; File C:\IAGOS\server\v18\Source\Source\_Common\randomoption.cpp

; 71   : 		else if( s.Token == _T( "SystemPet" ) )

  000ca	75 04		 jne	 SHORT $LN69@LoadScript

; 72   : 			LoadScriptBlock( s, eSystemPet );

  000cc	6a 02		 push	 2
  000ce	eb 19		 jmp	 SHORT $LN89@LoadScript
$LN69@LoadScript:
; File C:\Program Files\Microsoft Visual Studio\2022\Professional\VC\Tools\MSVC\14.44.35207\atlmfc\include\cstringt.h

; 184  : 		return _mbscmp( reinterpret_cast< const unsigned char* >( pszA ), reinterpret_cast< const unsigned char* >( pszB ) );

  000d0	68 00 00 00 00	 push	 OFFSET ??_C@_06HFBIFKDE@EatPet@
  000d5	ff b5 28 f2 ff
	ff		 push	 DWORD PTR _s$[ebp+32]
  000db	e8 00 00 00 00	 call	 __mbscmp
  000e0	83 c4 08	 add	 esp, 8

; 2490 : 		return(str1.Compare(psz2) == 0);

  000e3	85 c0		 test	 eax, eax
; File C:\IAGOS\server\v18\Source\Source\_Common\randomoption.cpp

; 73   : 		else if( s.Token == _T( "EatPet" ) )

  000e5	75 10		 jne	 SHORT $LN11@LoadScript

; 74   : 			LoadScriptBlock( s, eEatPet );

  000e7	6a 03		 push	 3
$LN89@LoadScript:

; 75   : #endif	// __PET_0519
; 76   : 		s.GetToken();

  000e9	8d 85 08 f2 ff
	ff		 lea	 eax, DWORD PTR _s$[ebp]
  000ef	8b cf		 mov	 ecx, edi
  000f1	50		 push	 eax
  000f2	e8 00 00 00 00	 call	 ?LoadScriptBlock@CRandomOptionProperty@@QAEXAAVCScript@@H@Z ; CRandomOptionProperty::LoadScriptBlock
$LN11@LoadScript:
  000f7	6a 00		 push	 0
  000f9	8d 8d 08 f2 ff
	ff		 lea	 ecx, DWORD PTR _s$[ebp]
  000ff	e8 00 00 00 00	 call	 ?GetToken@CScript@@UAEHH@Z ; CScript::GetToken
  00104	83 bd 4c fa ff
	ff 15		 cmp	 DWORD PTR _s$[ebp+2116], 21 ; 00000015H
  0010b	0f 85 6f ff ff
	ff		 jne	 $LL2@LoadScript
$LN3@LoadScript:

; 77   : 	}
; 78   : #if __VER >= 12 // __J12_0
; 79   : 	AwakeningExtension();	// °˘Ľş, Ăŕşą °ˇ´É ĆÄĂ÷ Ăß°ˇ¸¦ Ŕ§ÇŃ Ĺ×ŔĚşí Č®Ŕĺ

  00111	8b cf		 mov	 ecx, edi
  00113	e8 00 00 00 00	 call	 ?AwakeningExtension@CRandomOptionProperty@@AAEXXZ ; CRandomOptionProperty::AwakeningExtension

; 80   : #endif	// __J12_0
; 81   : 	return TRUE;

  00118	be 01 00 00 00	 mov	 esi, 1
$LN14@LoadScript:
  0011d	8d 8d 08 f2 ff
	ff		 lea	 ecx, DWORD PTR _s$[ebp]
  00123	e8 00 00 00 00	 call	 ??1CScript@@UAE@XZ	; CScript::~CScript
  00128	8b c6		 mov	 eax, esi

; 82   : }

  0012a	8b 4d f4	 mov	 ecx, DWORD PTR __$EHRec$[ebp]
  0012d	64 89 0d 00 00
	00 00		 mov	 DWORD PTR fs:0, ecx
  00134	59		 pop	 ecx
  00135	5f		 pop	 edi
  00136	5e		 pop	 esi
  00137	8b 4d f0	 mov	 ecx, DWORD PTR __$ArrayPad$[ebp]
  0013a	33 cd		 xor	 ecx, ebp
  0013c	e8 00 00 00 00	 call	 @__security_check_cookie@4
  00141	8b e5		 mov	 esp, ebp
  00143	5d		 pop	 ebp
  00144	c2 04 00	 ret	 4
_TEXT	ENDS
;	COMDAT text$x
text$x	SEGMENT
__unwindfunclet$?LoadScript@CRandomOptionProperty@@QAEHPBD@Z$0:
  00000	8d 8d 08 f2 ff
	ff		 lea	 ecx, DWORD PTR _s$[ebp]
  00006	e9 00 00 00 00	 jmp	 ??1CScript@@UAE@XZ	; CScript::~CScript
  0000b	cc		 int	 3
  0000c	cc		 int	 3
  0000d	cc		 int	 3
  0000e	cc		 int	 3
  0000f	cc		 int	 3
__ehhandler$?LoadScript@CRandomOptionProperty@@QAEHPBD@Z:
  00010	90		 npad	 1
  00011	90		 npad	 1
  00012	8b 54 24 08	 mov	 edx, DWORD PTR [esp+8]
  00016	8d 42 0c	 lea	 eax, DWORD PTR [edx+12]
  00019	8b 8a 08 f2 ff
	ff		 mov	 ecx, DWORD PTR [edx-3576]
  0001f	33 c8		 xor	 ecx, eax
  00021	e8 00 00 00 00	 call	 @__security_check_cookie@4
  00026	8b 4a fc	 mov	 ecx, DWORD PTR [edx-4]
  00029	33 c8		 xor	 ecx, eax
  0002b	e8 00 00 00 00	 call	 @__security_check_cookie@4
  00030	b8 00 00 00 00	 mov	 eax, OFFSET __ehfuncinfo$?LoadScript@CRandomOptionProperty@@QAEHPBD@Z
  00035	e9 00 00 00 00	 jmp	 ___CxxFrameHandler3
text$x	ENDS
?LoadScript@CRandomOptionProperty@@QAEHPBD@Z ENDP	; CRandomOptionProperty::LoadScript
; Function compile flags: /Ogtp
; File C:\IAGOS\server\v18\Source\Source\_Common\randomoption.cpp
;	COMDAT ?GetInstance@CRandomOptionProperty@@SAPAV1@XZ
_TEXT	SEGMENT
__$EHRec$ = -12						; size = 12
?GetInstance@CRandomOptionProperty@@SAPAV1@XZ PROC	; CRandomOptionProperty::GetInstance, COMDAT

; 14   : {

  00000	55		 push	 ebp
  00001	8b ec		 mov	 ebp, esp
  00003	6a ff		 push	 -1
  00005	68 00 00 00 00	 push	 __ehhandler$?GetInstance@CRandomOptionProperty@@SAPAV1@XZ
  0000a	64 a1 00 00 00
	00		 mov	 eax, DWORD PTR fs:0
  00010	50		 push	 eax
  00011	a1 00 00 00 00	 mov	 eax, DWORD PTR ___security_cookie
  00016	33 c5		 xor	 eax, ebp
  00018	50		 push	 eax
  00019	8d 45 f4	 lea	 eax, DWORD PTR __$EHRec$[ebp]
  0001c	64 a3 00 00 00
	00		 mov	 DWORD PTR fs:0, eax

; 15   : 	static	CRandomOptionProperty	sRandomOptionProperty;

  00022	64 a1 00 00 00
	00		 mov	 eax, DWORD PTR fs:__tls_array
  00028	8b 0d 00 00 00
	00		 mov	 ecx, DWORD PTR __tls_index
  0002e	8b 0c 88	 mov	 ecx, DWORD PTR [eax+ecx*4]
  00031	a1 00 00 00 00	 mov	 eax, DWORD PTR ?$TSS0@?1??GetInstance@CRandomOptionProperty@@SAPAV2@XZ@4HA
  00036	3b 81 00 00 00
	00		 cmp	 eax, DWORD PTR __Init_thread_epoch[ecx]
  0003c	7f 14		 jg	 SHORT $LN9@GetInstanc
$LN5@GetInstanc:

; 16   : 
; 17   : 	return	&sRandomOptionProperty;
; 18   : }

  0003e	b8 00 00 00 00	 mov	 eax, OFFSET ?sRandomOptionProperty@?1??GetInstance@CRandomOptionProperty@@SAPAV2@XZ@4V2@A
  00043	8b 4d f4	 mov	 ecx, DWORD PTR __$EHRec$[ebp]
  00046	64 89 0d 00 00
	00 00		 mov	 DWORD PTR fs:0, ecx
  0004d	59		 pop	 ecx
  0004e	8b e5		 mov	 esp, ebp
  00050	5d		 pop	 ebp
  00051	c3		 ret	 0
$LN9@GetInstanc:

; 15   : 	static	CRandomOptionProperty	sRandomOptionProperty;

  00052	68 00 00 00 00	 push	 OFFSET ?$TSS0@?1??GetInstance@CRandomOptionProperty@@SAPAV2@XZ@4HA
  00057	e8 00 00 00 00	 call	 __Init_thread_header
  0005c	83 c4 04	 add	 esp, 4
  0005f	83 3d 00 00 00
	00 ff		 cmp	 DWORD PTR ?$TSS0@?1??GetInstance@CRandomOptionProperty@@SAPAV2@XZ@4HA, -1
  00066	75 d6		 jne	 SHORT $LN5@GetInstanc
  00068	b9 00 00 00 00	 mov	 ecx, OFFSET ?sRandomOptionProperty@?1??GetInstance@CRandomOptionProperty@@SAPAV2@XZ@4V2@A
  0006d	c7 45 fc 00 00
	00 00		 mov	 DWORD PTR __$EHRec$[ebp+8], 0
  00074	e8 00 00 00 00	 call	 ??0CRandomOptionProperty@@QAE@XZ ; CRandomOptionProperty::CRandomOptionProperty
  00079	68 00 00 00 00	 push	 OFFSET ??__FsRandomOptionProperty@?1??GetInstance@CRandomOptionProperty@@SAPAV1@XZ@YAXXZ ; `CRandomOptionProperty::GetInstance'::`2'::`dynamic atexit destructor for 'sRandomOptionProperty''
  0007e	e8 00 00 00 00	 call	 _atexit
  00083	68 00 00 00 00	 push	 OFFSET ?$TSS0@?1??GetInstance@CRandomOptionProperty@@SAPAV2@XZ@4HA
  00088	e8 00 00 00 00	 call	 __Init_thread_footer
  0008d	83 c4 08	 add	 esp, 8
  00090	eb ac		 jmp	 SHORT $LN5@GetInstanc
_TEXT	ENDS
;	COMDAT text$x
text$x	SEGMENT
__unwindfunclet$?GetInstance@CRandomOptionProperty@@SAPAV1@XZ$0:
  00000	68 00 00 00 00	 push	 OFFSET ?$TSS0@?1??GetInstance@CRandomOptionProperty@@SAPAV2@XZ@4HA
  00005	e8 00 00 00 00	 call	 __Init_thread_abort
  0000a	59		 pop	 ecx
  0000b	c3		 ret	 0
  0000c	cc		 int	 3
  0000d	cc		 int	 3
  0000e	cc		 int	 3
  0000f	cc		 int	 3
  00010	cc		 int	 3
__ehhandler$?GetInstance@CRandomOptionProperty@@SAPAV1@XZ:
  00011	90		 npad	 1
  00012	90		 npad	 1
  00013	8b 54 24 08	 mov	 edx, DWORD PTR [esp+8]
  00017	8d 42 0c	 lea	 eax, DWORD PTR [edx+12]
  0001a	8b 4a fc	 mov	 ecx, DWORD PTR [edx-4]
  0001d	33 c8		 xor	 ecx, eax
  0001f	e8 00 00 00 00	 call	 @__security_check_cookie@4
  00024	b8 00 00 00 00	 mov	 eax, OFFSET __ehfuncinfo$?GetInstance@CRandomOptionProperty@@SAPAV1@XZ
  00029	e9 00 00 00 00	 jmp	 ___CxxFrameHandler3
text$x	ENDS
?GetInstance@CRandomOptionProperty@@SAPAV1@XZ ENDP	; CRandomOptionProperty::GetInstance
; Function compile flags: /Ogtp
; File C:\IAGOS\server\v18\Source\Source\_Common\randomoption.cpp
;	COMDAT ??1CRandomOptionProperty@@UAE@XZ
_TEXT	SEGMENT
__$EHRec$ = -12						; size = 12
??1CRandomOptionProperty@@UAE@XZ PROC			; CRandomOptionProperty::~CRandomOptionProperty, COMDAT
; _this$ = ecx

; 10   : {

  00000	55		 push	 ebp
  00001	8b ec		 mov	 ebp, esp
  00003	6a ff		 push	 -1
  00005	68 00 00 00 00	 push	 __ehhandler$??1CRandomOptionProperty@@UAE@XZ
  0000a	64 a1 00 00 00
	00		 mov	 eax, DWORD PTR fs:0
  00010	50		 push	 eax
  00011	a1 00 00 00 00	 mov	 eax, DWORD PTR ___security_cookie
  00016	33 c5		 xor	 eax, ebp
  00018	50		 push	 eax
  00019	8d 45 f4	 lea	 eax, DWORD PTR __$EHRec$[ebp]
  0001c	64 a3 00 00 00
	00		 mov	 DWORD PTR fs:0, eax

; 11   : }

  00022	68 00 00 00 00	 push	 OFFSET ??1?$vector@U_RANDOM_OPTION@@V?$allocator@U_RANDOM_OPTION@@@std@@@std@@QAE@XZ ; std::vector<_RANDOM_OPTION,std::allocator<_RANDOM_OPTION> >::~vector<_RANDOM_OPTION,std::allocator<_RANDOM_OPTION> >
  00027	6a 07		 push	 7
  00029	6a 0c		 push	 12			; 0000000cH
  0002b	8d 41 34	 lea	 eax, DWORD PTR [ecx+52]
  0002e	c7 01 00 00 00
	00		 mov	 DWORD PTR [ecx], OFFSET ??_7CRandomOptionProperty@@6B@
  00034	50		 push	 eax
  00035	e8 00 00 00 00	 call	 ??_M@YGXPAXIIP6EX0@Z@Z
  0003a	8b 4d f4	 mov	 ecx, DWORD PTR __$EHRec$[ebp]
  0003d	64 89 0d 00 00
	00 00		 mov	 DWORD PTR fs:0, ecx
  00044	59		 pop	 ecx
  00045	8b e5		 mov	 esp, ebp
  00047	5d		 pop	 ebp
  00048	c3		 ret	 0
  00049	cc		 int	 3
  0004a	cc		 int	 3
  0004b	cc		 int	 3
  0004c	cc		 int	 3
  0004d	cc		 int	 3
_TEXT	ENDS
;	COMDAT text$x
text$x	SEGMENT
__ehhandler$??1CRandomOptionProperty@@UAE@XZ:
  00000	90		 npad	 1
  00001	90		 npad	 1
  00002	8b 54 24 08	 mov	 edx, DWORD PTR [esp+8]
  00006	8d 42 0c	 lea	 eax, DWORD PTR [edx+12]
  00009	8b 4a fc	 mov	 ecx, DWORD PTR [edx-4]
  0000c	33 c8		 xor	 ecx, eax
  0000e	e8 00 00 00 00	 call	 @__security_check_cookie@4
  00013	b8 00 00 00 00	 mov	 eax, OFFSET __ehfuncinfo$??1CRandomOptionProperty@@UAE@XZ
  00018	e9 00 00 00 00	 jmp	 ___CxxFrameHandler3
text$x	ENDS
??1CRandomOptionProperty@@UAE@XZ ENDP			; CRandomOptionProperty::~CRandomOptionProperty
; Function compile flags: /Ogtp
; File C:\IAGOS\server\v18\Source\Source\_Common\randomoption.cpp
;	COMDAT ??0CRandomOptionProperty@@QAE@XZ
_TEXT	SEGMENT
_this$ = -4						; size = 4
??0CRandomOptionProperty@@QAE@XZ PROC			; CRandomOptionProperty::CRandomOptionProperty, COMDAT
; _this$ = ecx

; 5    : {

  00000	55		 push	 ebp
  00001	8b ec		 mov	 ebp, esp
  00003	51		 push	 ecx
  00004	56		 push	 esi
  00005	68 00 00 00 00	 push	 OFFSET ??1?$vector@U_RANDOM_OPTION@@V?$allocator@U_RANDOM_OPTION@@@std@@@std@@QAE@XZ ; std::vector<_RANDOM_OPTION,std::allocator<_RANDOM_OPTION> >::~vector<_RANDOM_OPTION,std::allocator<_RANDOM_OPTION> >
  0000a	8b f1		 mov	 esi, ecx
  0000c	68 00 00 00 00	 push	 OFFSET ??0?$vector@U_RANDOM_OPTION@@V?$allocator@U_RANDOM_OPTION@@@std@@@std@@QAE@XZ ; std::vector<_RANDOM_OPTION,std::allocator<_RANDOM_OPTION> >::vector<_RANDOM_OPTION,std::allocator<_RANDOM_OPTION> >
  00011	6a 07		 push	 7
  00013	6a 0c		 push	 12			; 0000000cH
  00015	8d 46 34	 lea	 eax, DWORD PTR [esi+52]
  00018	89 75 fc	 mov	 DWORD PTR _this$[ebp], esi
  0001b	50		 push	 eax
  0001c	c7 06 00 00 00
	00		 mov	 DWORD PTR [esi], OFFSET ??_7CRandomOptionProperty@@6B@
  00022	e8 00 00 00 00	 call	 ??_L@YGXPAXIIP6EX0@Z1@Z

; 6    : 	memset( m_anRandomOptionProb, 0, sizeof(m_anRandomOptionProb) );

  00027	6a 30		 push	 48			; 00000030H
  00029	8d 46 04	 lea	 eax, DWORD PTR [esi+4]
  0002c	6a 00		 push	 0
  0002e	50		 push	 eax
  0002f	e8 00 00 00 00	 call	 _memset
  00034	83 c4 0c	 add	 esp, 12			; 0000000cH

; 7    : }

  00037	8b c6		 mov	 eax, esi
  00039	5e		 pop	 esi
  0003a	8b e5		 mov	 esp, ebp
  0003c	5d		 pop	 ebp
  0003d	c3		 ret	 0
??0CRandomOptionProperty@@QAE@XZ ENDP			; CRandomOptionProperty::CRandomOptionProperty
_TEXT	ENDS
; Function compile flags: /Ogtp
; File C:\Program Files\Microsoft Visual Studio\2022\Professional\VC\Tools\MSVC\14.44.35207\include\vector
;	COMDAT ??1_RANDOM_OPTION@@QAE@XZ
_TEXT	SEGMENT
??1_RANDOM_OPTION@@QAE@XZ PROC				; _RANDOM_OPTION::~_RANDOM_OPTION, COMDAT
; _this$ = ecx
  00000	83 c1 08	 add	 ecx, 8

; 830  :         _Tidy();

  00003	e9 00 00 00 00	 jmp	 ?_Tidy@?$vector@U_AdjData@@V?$allocator@U_AdjData@@@std@@@std@@AAEXXZ ; std::vector<_AdjData,std::allocator<_AdjData> >::_Tidy
??1_RANDOM_OPTION@@QAE@XZ ENDP				; _RANDOM_OPTION::~_RANDOM_OPTION
_TEXT	ENDS
; Function compile flags: /Ogtp
; File C:\Program Files\Microsoft Visual Studio\2022\Professional\VC\Tools\MSVC\14.44.35207\include\vector
;	COMDAT ?_Xlength@?$vector@U_AdjData@@V?$allocator@U_AdjData@@@std@@@std@@CAXXZ
_TEXT	SEGMENT
?_Xlength@?$vector@U_AdjData@@V?$allocator@U_AdjData@@@std@@@std@@CAXXZ PROC ; std::vector<_AdjData,std::allocator<_AdjData> >::_Xlength, COMDAT

; 2184 :         _Xlength_error("vector too long");

  00000	68 00 00 00 00	 push	 OFFSET ??_C@_0BA@FOIKENOD@vector?5too?5long@
  00005	e8 00 00 00 00	 call	 ?_Xlength_error@std@@YAXPBD@Z ; std::_Xlength_error
$LN3@Xlength:
  0000a	cc		 int	 3
?_Xlength@?$vector@U_AdjData@@V?$allocator@U_AdjData@@@std@@@std@@CAXXZ ENDP ; std::vector<_AdjData,std::allocator<_AdjData> >::_Xlength
_TEXT	ENDS
; Function compile flags: /Ogtp
; File C:\Program Files\Microsoft Visual Studio\2022\Professional\VC\Tools\MSVC\14.44.35207\include\vector
; File C:\Program Files\Microsoft Visual Studio\2022\Professional\VC\Tools\MSVC\14.44.35207\include\xmemory
; File C:\Program Files\Microsoft Visual Studio\2022\Professional\VC\Tools\MSVC\14.44.35207\include\vector
; File C:\Program Files\Microsoft Visual Studio\2022\Professional\VC\Tools\MSVC\14.44.35207\include\xmemory
; File C:\Program Files\Microsoft Visual Studio\2022\Professional\VC\Tools\MSVC\14.44.35207\include\vector
; File C:\Program Files\Microsoft Visual Studio\2022\Professional\VC\Tools\MSVC\14.44.35207\include\xmemory
; File C:\Program Files\Microsoft Visual Studio\2022\Professional\VC\Tools\MSVC\14.44.35207\include\vector
;	COMDAT ?_Tidy@?$vector@U_AdjData@@V?$allocator@U_AdjData@@@std@@@std@@AAEXXZ
_TEXT	SEGMENT
?_Tidy@?$vector@U_AdjData@@V?$allocator@U_AdjData@@@std@@@std@@AAEXXZ PROC ; std::vector<_AdjData,std::allocator<_AdjData> >::_Tidy, COMDAT
; _this$ = ecx

; 2081 :     _CONSTEXPR20 void _Tidy() noexcept { // free all storage

  00000	56		 push	 esi
  00001	8b f1		 mov	 esi, ecx

; 2082 :         auto& _Al         = _Getal();
; 2083 :         auto& _My_data    = _Mypair._Myval2;
; 2084 :         pointer& _Myfirst = _My_data._Myfirst;
; 2085 :         pointer& _Mylast  = _My_data._Mylast;
; 2086 :         pointer& _Myend   = _My_data._Myend;
; 2087 : 
; 2088 :         _My_data._Orphan_all();
; 2089 : 
; 2090 :         if (_Myfirst) { // destroy and deallocate old array

  00003	8b 06		 mov	 eax, DWORD PTR [esi]
  00005	85 c0		 test	 eax, eax
  00007	74 40		 je	 SHORT $LN2@Tidy

; 2091 :             _STD _Destroy_range(_Myfirst, _Mylast, _Al);
; 2092 :             _ASAN_VECTOR_REMOVE;
; 2093 :             _Al.deallocate(_Myfirst, static_cast<size_type>(_Myend - _Myfirst));

  00009	8b 4e 08	 mov	 ecx, DWORD PTR [esi+8]
  0000c	2b c8		 sub	 ecx, eax
; File C:\Program Files\Microsoft Visual Studio\2022\Professional\VC\Tools\MSVC\14.44.35207\include\xmemory

; 985  :         _STD _Deallocate<_New_alignof<_Ty>>(_Ptr, sizeof(_Ty) * _Count);

  0000e	83 e1 f8	 and	 ecx, -8			; fffffff8H

; 284  :         if (_Bytes >= _Big_allocation_threshold) {

  00011	81 f9 00 10 00
	00		 cmp	 ecx, 4096		; 00001000H
  00017	72 12		 jb	 SHORT $LN15@Tidy

; 205  :     const uintptr_t _Ptr_container   = _Ptr_user[-1];

  00019	8b 50 fc	 mov	 edx, DWORD PTR [eax-4]
  0001c	83 c1 23	 add	 ecx, 35			; 00000023H

; 206  : 
; 207  :     // If the following asserts, it likely means that we are performing
; 208  :     // an aligned delete on memory coming from an unaligned allocation.
; 209  :     _STL_ASSERT(_Ptr_user[-2] == _Big_allocation_sentinel, "invalid argument");
; 210  : 
; 211  :     // Extra paranoia on aligned allocation/deallocation; ensure _Ptr_container is
; 212  :     // in range [_Min_back_shift, _Non_user_size]
; 213  : #ifdef _DEBUG
; 214  :     constexpr uintptr_t _Min_back_shift = 2 * sizeof(void*);
; 215  : #else // ^^^ defined(_DEBUG) / !defined(_DEBUG) vvv
; 216  :     constexpr uintptr_t _Min_back_shift = sizeof(void*);
; 217  : #endif // ^^^ !defined(_DEBUG) ^^^
; 218  :     const uintptr_t _Back_shift = reinterpret_cast<uintptr_t>(_Ptr) - _Ptr_container;

  0001f	2b c2		 sub	 eax, edx

; 219  :     _STL_VERIFY(_Back_shift >= _Min_back_shift && _Back_shift <= _Non_user_size, "invalid argument");

  00021	83 c0 fc	 add	 eax, -4			; fffffffcH
  00024	83 f8 1f	 cmp	 eax, 31			; 0000001fH
  00027	77 22		 ja	 SHORT $LN14@Tidy

; 220  :     _Ptr = reinterpret_cast<void*>(_Ptr_container);

  00029	8b c2		 mov	 eax, edx
$LN15@Tidy:

; 289  :         ::operator delete(_Ptr, _Bytes);

  0002b	51		 push	 ecx
  0002c	50		 push	 eax
  0002d	e8 00 00 00 00	 call	 ??3@YAXPAXI@Z		; operator delete
; File C:\Program Files\Microsoft Visual Studio\2022\Professional\VC\Tools\MSVC\14.44.35207\include\vector

; 2095 :             _Myfirst = nullptr;

  00032	c7 06 00 00 00
	00		 mov	 DWORD PTR [esi], 0
; File C:\Program Files\Microsoft Visual Studio\2022\Professional\VC\Tools\MSVC\14.44.35207\include\xmemory

; 289  :         ::operator delete(_Ptr, _Bytes);

  00038	83 c4 08	 add	 esp, 8
; File C:\Program Files\Microsoft Visual Studio\2022\Professional\VC\Tools\MSVC\14.44.35207\include\vector

; 2096 :             _Mylast  = nullptr;

  0003b	c7 46 04 00 00
	00 00		 mov	 DWORD PTR [esi+4], 0

; 2097 :             _Myend   = nullptr;

  00042	c7 46 08 00 00
	00 00		 mov	 DWORD PTR [esi+8], 0
$LN2@Tidy:

; 2099 :     }

  00049	5e		 pop	 esi
  0004a	c3		 ret	 0
$LN14@Tidy:
; File C:\Program Files\Microsoft Visual Studio\2022\Professional\VC\Tools\MSVC\14.44.35207\include\xmemory

; 219  :     _STL_VERIFY(_Back_shift >= _Min_back_shift && _Back_shift <= _Non_user_size, "invalid argument");

  0004b	6a 00		 push	 0
  0004d	6a 00		 push	 0
  0004f	6a 00		 push	 0
  00051	6a 00		 push	 0
  00053	6a 00		 push	 0
  00055	e8 00 00 00 00	 call	 __invoke_watson
$LN22@Tidy:
  0005a	cc		 int	 3
?_Tidy@?$vector@U_AdjData@@V?$allocator@U_AdjData@@@std@@@std@@AAEXXZ ENDP ; std::vector<_AdjData,std::allocator<_AdjData> >::_Tidy
_TEXT	ENDS
; Function compile flags: /Ogtp
; File C:\Program Files\Microsoft Visual Studio\2022\Professional\VC\Tools\MSVC\14.44.35207\include\vector
; File C:\Program Files\Microsoft Visual Studio\2022\Professional\VC\Tools\MSVC\14.44.35207\include\xmemory
; File C:\Program Files\Microsoft Visual Studio\2022\Professional\VC\Tools\MSVC\14.44.35207\include\vector
; File C:\Program Files\Microsoft Visual Studio\2022\Professional\VC\Tools\MSVC\14.44.35207\include\xmemory
; File C:\Program Files\Microsoft Visual Studio\2022\Professional\VC\Tools\MSVC\14.44.35207\include\vector
; File C:\Program Files\Microsoft Visual Studio\2022\Professional\VC\Tools\MSVC\14.44.35207\include\xmemory
; File C:\Program Files\Microsoft Visual Studio\2022\Professional\VC\Tools\MSVC\14.44.35207\include\vector
; File C:\Program Files\Microsoft Visual Studio\2022\Professional\VC\Tools\MSVC\14.44.35207\include\xmemory
; File C:\Program Files\Microsoft Visual Studio\2022\Professional\VC\Tools\MSVC\14.44.35207\include\vector
; File C:\Program Files\Microsoft Visual Studio\2022\Professional\VC\Tools\MSVC\14.44.35207\include\xmemory
; File C:\Program Files\Microsoft Visual Studio\2022\Professional\VC\Tools\MSVC\14.44.35207\include\vector
;	COMDAT ?_Buy_raw@?$vector@U_AdjData@@V?$allocator@U_AdjData@@@std@@@std@@AAEXI@Z
_TEXT	SEGMENT
__Newcapacity$ = 8					; size = 4
?_Buy_raw@?$vector@U_AdjData@@V?$allocator@U_AdjData@@@std@@@std@@AAEXI@Z PROC ; std::vector<_AdjData,std::allocator<_AdjData> >::_Buy_raw, COMDAT
; _this$ = ecx

; 2024 :     _CONSTEXPR20 void _Buy_raw(size_type _Newcapacity) {

  00000	55		 push	 ebp
  00001	8b ec		 mov	 ebp, esp
  00003	56		 push	 esi
; File C:\Program Files\Microsoft Visual Studio\2022\Professional\VC\Tools\MSVC\14.44.35207\include\xmemory

; 117  :         if (_Count > _Max_possible) {

  00004	8b 75 08	 mov	 esi, DWORD PTR __Newcapacity$[ebp]
; File C:\Program Files\Microsoft Visual Studio\2022\Professional\VC\Tools\MSVC\14.44.35207\include\vector

; 2024 :     _CONSTEXPR20 void _Buy_raw(size_type _Newcapacity) {

  00007	57		 push	 edi
  00008	8b f9		 mov	 edi, ecx
; File C:\Program Files\Microsoft Visual Studio\2022\Professional\VC\Tools\MSVC\14.44.35207\include\xmemory

; 117  :         if (_Count > _Max_possible) {

  0000a	81 fe ff ff ff
	1f		 cmp	 esi, 536870911		; 1fffffffH
  00010	77 52		 ja	 SHORT $LN25@Buy_raw

; 119  :         }
; 120  :     }
; 121  : 
; 122  :     return _Count * _Ty_size;

  00012	c1 e6 03	 shl	 esi, 3

; 227  :     if (_Bytes == 0) {

  00015	85 f6		 test	 esi, esi
  00017	75 12		 jne	 SHORT $LN12@Buy_raw

; 228  :         return nullptr;

  00019	33 c0		 xor	 eax, eax
; File C:\Program Files\Microsoft Visual Studio\2022\Professional\VC\Tools\MSVC\14.44.35207\include\vector

; 2035 :         _Myfirst              = _Newvec;

  0001b	89 07		 mov	 DWORD PTR [edi], eax

; 2036 :         _Mylast               = _Newvec;

  0001d	89 47 04	 mov	 DWORD PTR [edi+4], eax

; 2037 :         _Myend                = _Newvec + _Newcapacity;

  00020	8b c6		 mov	 eax, esi
  00022	89 47 08	 mov	 DWORD PTR [edi+8], eax

; 2038 :     }

  00025	5f		 pop	 edi
  00026	5e		 pop	 esi
  00027	5d		 pop	 ebp
  00028	c2 04 00	 ret	 4
$LN12@Buy_raw:
; File C:\Program Files\Microsoft Visual Studio\2022\Professional\VC\Tools\MSVC\14.44.35207\include\xmemory

; 251  :         if (_Bytes >= _Big_allocation_threshold) {

  0002b	56		 push	 esi
  0002c	81 fe 00 10 00
	00		 cmp	 esi, 4096		; 00001000H
  00032	72 18		 jb	 SHORT $LN13@Buy_raw

; 252  :             // boost the alignment of big allocations to help autovectorization
; 253  :             return _Allocate_manually_vector_aligned<_Traits>(_Bytes);

  00034	e8 00 00 00 00	 call	 ??$_Allocate_manually_vector_aligned@U_Default_allocate_traits@std@@@std@@YAPAXI@Z ; std::_Allocate_manually_vector_aligned<std::_Default_allocate_traits>
; File C:\Program Files\Microsoft Visual Studio\2022\Professional\VC\Tools\MSVC\14.44.35207\include\vector

; 2035 :         _Myfirst              = _Newvec;

  00039	89 07		 mov	 DWORD PTR [edi], eax
  0003b	83 c4 04	 add	 esp, 4

; 2036 :         _Mylast               = _Newvec;

  0003e	89 47 04	 mov	 DWORD PTR [edi+4], eax

; 2037 :         _Myend                = _Newvec + _Newcapacity;

  00041	03 c6		 add	 eax, esi
  00043	89 47 08	 mov	 DWORD PTR [edi+8], eax

; 2038 :     }

  00046	5f		 pop	 edi
  00047	5e		 pop	 esi
  00048	5d		 pop	 ebp
  00049	c2 04 00	 ret	 4
$LN13@Buy_raw:
; File C:\Program Files\Microsoft Visual Studio\2022\Professional\VC\Tools\MSVC\14.44.35207\include\xmemory

; 136  :         return ::operator new(_Bytes);

  0004c	e8 00 00 00 00	 call	 ??2@YAPAXI@Z		; operator new
; File C:\Program Files\Microsoft Visual Studio\2022\Professional\VC\Tools\MSVC\14.44.35207\include\vector

; 2035 :         _Myfirst              = _Newvec;

  00051	89 07		 mov	 DWORD PTR [edi], eax
  00053	83 c4 04	 add	 esp, 4

; 2036 :         _Mylast               = _Newvec;

  00056	89 47 04	 mov	 DWORD PTR [edi+4], eax

; 2037 :         _Myend                = _Newvec + _Newcapacity;

  00059	03 c6		 add	 eax, esi
  0005b	89 47 08	 mov	 DWORD PTR [edi+8], eax

; 2038 :     }

  0005e	5f		 pop	 edi
  0005f	5e		 pop	 esi
  00060	5d		 pop	 ebp
  00061	c2 04 00	 ret	 4
$LN25@Buy_raw:
; File C:\Program Files\Microsoft Visual Studio\2022\Professional\VC\Tools\MSVC\14.44.35207\include\xmemory

; 118  :             _Throw_bad_array_new_length(); // multiply overflow

  00064	e8 00 00 00 00	 call	 ?_Throw_bad_array_new_length@std@@YAXXZ ; std::_Throw_bad_array_new_length
$LN22@Buy_raw:
  00069	cc		 int	 3
?_Buy_raw@?$vector@U_AdjData@@V?$allocator@U_AdjData@@@std@@@std@@AAEXI@Z ENDP ; std::vector<_AdjData,std::allocator<_AdjData> >::_Buy_raw
_TEXT	ENDS
; Function compile flags: /Ogtp
; File C:\Program Files\Microsoft Visual Studio\2022\Professional\VC\Tools\MSVC\14.44.35207\include\vector
;	COMDAT ??1?$vector@U_AdjData@@V?$allocator@U_AdjData@@@std@@@std@@QAE@XZ
_TEXT	SEGMENT
??1?$vector@U_AdjData@@V?$allocator@U_AdjData@@@std@@@std@@QAE@XZ PROC ; std::vector<_AdjData,std::allocator<_AdjData> >::~vector<_AdjData,std::allocator<_AdjData> >, COMDAT
; _this$ = ecx

; 830  :         _Tidy();

  00000	e9 00 00 00 00	 jmp	 ?_Tidy@?$vector@U_AdjData@@V?$allocator@U_AdjData@@@std@@@std@@AAEXXZ ; std::vector<_AdjData,std::allocator<_AdjData> >::_Tidy
??1?$vector@U_AdjData@@V?$allocator@U_AdjData@@@std@@@std@@QAE@XZ ENDP ; std::vector<_AdjData,std::allocator<_AdjData> >::~vector<_AdjData,std::allocator<_AdjData> >
_TEXT	ENDS
; Function compile flags: /Ogtp
; File C:\Program Files\Microsoft Visual Studio\2022\Professional\VC\Tools\MSVC\14.44.35207\include\xmemory
;	COMDAT ??$_Allocate_manually_vector_aligned@U_Default_allocate_traits@std@@@std@@YAPAXI@Z
_TEXT	SEGMENT
__Bytes$ = 8						; size = 4
??$_Allocate_manually_vector_aligned@U_Default_allocate_traits@std@@@std@@YAPAXI@Z PROC ; std::_Allocate_manually_vector_aligned<std::_Default_allocate_traits>, COMDAT

; 182  : __declspec(allocator) void* _Allocate_manually_vector_aligned(const size_t _Bytes) {

  00000	55		 push	 ebp
  00001	8b ec		 mov	 ebp, esp

; 183  :     // allocate _Bytes manually aligned to at least _Big_allocation_alignment
; 184  :     const size_t _Block_size = _Non_user_size + _Bytes;

  00003	8b 45 08	 mov	 eax, DWORD PTR __Bytes$[ebp]
  00006	8d 48 23	 lea	 ecx, DWORD PTR [eax+35]

; 185  :     if (_Block_size <= _Bytes) {

  00009	3b c8		 cmp	 ecx, eax
  0000b	0f 86 00 00 00
	00		 jbe	 ?_Throw_bad_array_new_length@std@@YAXXZ ; std::_Throw_bad_array_new_length

; 136  :         return ::operator new(_Bytes);

  00011	51		 push	 ecx
  00012	e8 00 00 00 00	 call	 ??2@YAPAXI@Z		; operator new

; 186  :         _Throw_bad_array_new_length(); // add overflow
; 187  :     }
; 188  : 
; 189  :     const uintptr_t _Ptr_container = reinterpret_cast<uintptr_t>(_Traits::_Allocate(_Block_size));

  00017	8b c8		 mov	 ecx, eax

; 136  :         return ::operator new(_Bytes);

  00019	83 c4 04	 add	 esp, 4

; 190  :     _STL_VERIFY(_Ptr_container != 0, "invalid argument"); // validate even in release since we're doing p[-1]

  0001c	85 c9		 test	 ecx, ecx
  0001e	74 0b		 je	 SHORT $LN9@Allocate_m

; 191  :     void* const _Ptr = reinterpret_cast<void*>((_Ptr_container + _Non_user_size) & ~(_Big_allocation_alignment - 1));

  00020	8d 41 23	 lea	 eax, DWORD PTR [ecx+35]
  00023	83 e0 e0	 and	 eax, -32		; ffffffe0H

; 192  :     static_cast<uintptr_t*>(_Ptr)[-1] = _Ptr_container;

  00026	89 48 fc	 mov	 DWORD PTR [eax-4], ecx

; 193  : 
; 194  : #ifdef _DEBUG
; 195  :     static_cast<uintptr_t*>(_Ptr)[-2] = _Big_allocation_sentinel;
; 196  : #endif // defined(_DEBUG)
; 197  :     return _Ptr;
; 198  : }

  00029	5d		 pop	 ebp
  0002a	c3		 ret	 0
$LN9@Allocate_m:

; 190  :     _STL_VERIFY(_Ptr_container != 0, "invalid argument"); // validate even in release since we're doing p[-1]

  0002b	6a 00		 push	 0
  0002d	6a 00		 push	 0
  0002f	6a 00		 push	 0
  00031	6a 00		 push	 0
  00033	6a 00		 push	 0
  00035	e8 00 00 00 00	 call	 __invoke_watson
$LN7@Allocate_m:
  0003a	cc		 int	 3
??$_Allocate_manually_vector_aligned@U_Default_allocate_traits@std@@@std@@YAPAXI@Z ENDP ; std::_Allocate_manually_vector_aligned<std::_Default_allocate_traits>
_TEXT	ENDS
; Function compile flags: /Ogtp
; File C:\Program Files\Microsoft Visual Studio\2022\Professional\VC\Tools\MSVC\14.44.35207\include\xmemory
;	COMDAT ?_Throw_bad_array_new_length@std@@YAXXZ
_TEXT	SEGMENT
$T1 = -12						; size = 12
?_Throw_bad_array_new_length@std@@YAXXZ PROC		; std::_Throw_bad_array_new_length, COMDAT

; 107  : [[noreturn]] inline void _Throw_bad_array_new_length() {

  00000	55		 push	 ebp
  00001	8b ec		 mov	 ebp, esp
  00003	83 ec 0c	 sub	 esp, 12			; 0000000cH

; 108  :     _THROW(bad_array_new_length{});

  00006	8d 4d f4	 lea	 ecx, DWORD PTR $T1[ebp]
  00009	e8 00 00 00 00	 call	 ??0bad_array_new_length@std@@QAE@XZ ; std::bad_array_new_length::bad_array_new_length
  0000e	68 00 00 00 00	 push	 OFFSET __TI3?AVbad_array_new_length@std@@
  00013	8d 45 f4	 lea	 eax, DWORD PTR $T1[ebp]
  00016	50		 push	 eax
  00017	e8 00 00 00 00	 call	 __CxxThrowException@8
$LN3@Throw_bad_:
  0001c	cc		 int	 3
?_Throw_bad_array_new_length@std@@YAXXZ ENDP		; std::_Throw_bad_array_new_length
_TEXT	ENDS
; Function compile flags: /Ogtp
; File C:\Program Files\Microsoft Visual Studio\2022\Professional\VC\Tools\MSVC\14.44.35207\include\vcruntime_exception.h
;	COMDAT ??_Gbad_array_new_length@std@@UAEPAXI@Z
_TEXT	SEGMENT
___flags$ = 8						; size = 4
??_Gbad_array_new_length@std@@UAEPAXI@Z PROC		; std::bad_array_new_length::`scalar deleting destructor', COMDAT
; _this$ = ecx
  00000	55		 push	 ebp
  00001	8b ec		 mov	 ebp, esp

; 90   :     {

  00003	56		 push	 esi
  00004	8b f1		 mov	 esi, ecx

; 91   :         __std_exception_destroy(&_Data);

  00006	8d 46 04	 lea	 eax, DWORD PTR [esi+4]
  00009	c7 06 00 00 00
	00		 mov	 DWORD PTR [esi], OFFSET ??_7exception@std@@6B@
  0000f	50		 push	 eax
  00010	e8 00 00 00 00	 call	 ___std_exception_destroy
  00015	83 c4 04	 add	 esp, 4
  00018	f6 45 08 01	 test	 BYTE PTR ___flags$[ebp], 1
  0001c	74 0b		 je	 SHORT $LN18@scalar
  0001e	6a 0c		 push	 12			; 0000000cH
  00020	56		 push	 esi
  00021	e8 00 00 00 00	 call	 ??3@YAXPAXI@Z		; operator delete
  00026	83 c4 08	 add	 esp, 8
$LN18@scalar:
  00029	8b c6		 mov	 eax, esi
  0002b	5e		 pop	 esi
  0002c	5d		 pop	 ebp
  0002d	c2 04 00	 ret	 4
??_Gbad_array_new_length@std@@UAEPAXI@Z ENDP		; std::bad_array_new_length::`scalar deleting destructor'
_TEXT	ENDS
; Function compile flags: /Ogtp
; File C:\Program Files\Microsoft Visual Studio\2022\Professional\VC\Tools\MSVC\14.44.35207\include\vcruntime_exception.h
;	COMDAT ??0bad_array_new_length@std@@QAE@ABV01@@Z
_TEXT	SEGMENT
___that$ = 8						; size = 4
??0bad_array_new_length@std@@QAE@ABV01@@Z PROC		; std::bad_array_new_length::bad_array_new_length, COMDAT
; _this$ = ecx
  00000	55		 push	 ebp
  00001	8b ec		 mov	 ebp, esp

; 73   :     {

  00003	56		 push	 esi
  00004	8b f1		 mov	 esi, ecx
  00006	0f 57 c0	 xorps	 xmm0, xmm0

; 72   :         : _Data()

  00009	8d 46 04	 lea	 eax, DWORD PTR [esi+4]

; 74   :         __std_exception_copy(&_Other._Data, &_Data);

  0000c	50		 push	 eax
  0000d	c7 06 00 00 00
	00		 mov	 DWORD PTR [esi], OFFSET ??_7exception@std@@6B@
  00013	66 0f d6 00	 movq	 QWORD PTR [eax], xmm0
  00017	8b 45 08	 mov	 eax, DWORD PTR ___that$[ebp]
  0001a	83 c0 04	 add	 eax, 4
  0001d	50		 push	 eax
  0001e	e8 00 00 00 00	 call	 ___std_exception_copy
  00023	83 c4 08	 add	 esp, 8
  00026	c7 06 00 00 00
	00		 mov	 DWORD PTR [esi], OFFSET ??_7bad_array_new_length@std@@6B@
  0002c	8b c6		 mov	 eax, esi
  0002e	5e		 pop	 esi
  0002f	5d		 pop	 ebp
  00030	c2 04 00	 ret	 4
??0bad_array_new_length@std@@QAE@ABV01@@Z ENDP		; std::bad_array_new_length::bad_array_new_length
_TEXT	ENDS
; Function compile flags: /Ogtp
; File C:\Program Files\Microsoft Visual Studio\2022\Professional\VC\Tools\MSVC\14.44.35207\include\vcruntime_exception.h
;	COMDAT ??1bad_array_new_length@std@@UAE@XZ
_TEXT	SEGMENT
??1bad_array_new_length@std@@UAE@XZ PROC		; std::bad_array_new_length::~bad_array_new_length, COMDAT
; _this$ = ecx

; 91   :         __std_exception_destroy(&_Data);

  00000	8d 41 04	 lea	 eax, DWORD PTR [ecx+4]
  00003	c7 01 00 00 00
	00		 mov	 DWORD PTR [ecx], OFFSET ??_7exception@std@@6B@
  00009	50		 push	 eax
  0000a	e8 00 00 00 00	 call	 ___std_exception_destroy
  0000f	59		 pop	 ecx
  00010	c3		 ret	 0
??1bad_array_new_length@std@@UAE@XZ ENDP		; std::bad_array_new_length::~bad_array_new_length
_TEXT	ENDS
; Function compile flags: /Ogtp
; File C:\Program Files\Microsoft Visual Studio\2022\Professional\VC\Tools\MSVC\14.44.35207\include\vcruntime_exception.h
;	COMDAT ??0bad_array_new_length@std@@QAE@XZ
_TEXT	SEGMENT
??0bad_array_new_length@std@@QAE@XZ PROC		; std::bad_array_new_length::bad_array_new_length, COMDAT
; _this$ = ecx

; 144  :     {

  00000	0f 57 c0	 xorps	 xmm0, xmm0

; 145  :     }

  00003	8b c1		 mov	 eax, ecx

; 66   :         : _Data()

  00005	66 0f d6 41 04	 movq	 QWORD PTR [ecx+4], xmm0

; 67   :     {
; 68   :         _Data._What = _Message;

  0000a	c7 41 04 00 00
	00 00		 mov	 DWORD PTR [ecx+4], OFFSET ??_C@_0BF@KINCDENJ@bad?5array?5new?5length@

; 144  :     {

  00011	c7 01 00 00 00
	00		 mov	 DWORD PTR [ecx], OFFSET ??_7bad_array_new_length@std@@6B@

; 145  :     }

  00017	c3		 ret	 0
??0bad_array_new_length@std@@QAE@XZ ENDP		; std::bad_array_new_length::bad_array_new_length
_TEXT	ENDS
; Function compile flags: /Ogtp
; File C:\Program Files\Microsoft Visual Studio\2022\Professional\VC\Tools\MSVC\14.44.35207\include\vcruntime_exception.h
;	COMDAT ??_Gbad_alloc@std@@UAEPAXI@Z
_TEXT	SEGMENT
___flags$ = 8						; size = 4
??_Gbad_alloc@std@@UAEPAXI@Z PROC			; std::bad_alloc::`scalar deleting destructor', COMDAT
; _this$ = ecx
  00000	55		 push	 ebp
  00001	8b ec		 mov	 ebp, esp

; 90   :     {

  00003	56		 push	 esi
  00004	8b f1		 mov	 esi, ecx

; 91   :         __std_exception_destroy(&_Data);

  00006	8d 46 04	 lea	 eax, DWORD PTR [esi+4]
  00009	c7 06 00 00 00
	00		 mov	 DWORD PTR [esi], OFFSET ??_7exception@std@@6B@
  0000f	50		 push	 eax
  00010	e8 00 00 00 00	 call	 ___std_exception_destroy
  00015	83 c4 04	 add	 esp, 4
  00018	f6 45 08 01	 test	 BYTE PTR ___flags$[ebp], 1
  0001c	74 0b		 je	 SHORT $LN13@scalar
  0001e	6a 0c		 push	 12			; 0000000cH
  00020	56		 push	 esi
  00021	e8 00 00 00 00	 call	 ??3@YAXPAXI@Z		; operator delete
  00026	83 c4 08	 add	 esp, 8
$LN13@scalar:
  00029	8b c6		 mov	 eax, esi
  0002b	5e		 pop	 esi
  0002c	5d		 pop	 ebp
  0002d	c2 04 00	 ret	 4
??_Gbad_alloc@std@@UAEPAXI@Z ENDP			; std::bad_alloc::`scalar deleting destructor'
_TEXT	ENDS
; Function compile flags: /Ogtp
; File C:\Program Files\Microsoft Visual Studio\2022\Professional\VC\Tools\MSVC\14.44.35207\include\vcruntime_exception.h
;	COMDAT ??0bad_alloc@std@@QAE@ABV01@@Z
_TEXT	SEGMENT
___that$ = 8						; size = 4
??0bad_alloc@std@@QAE@ABV01@@Z PROC			; std::bad_alloc::bad_alloc, COMDAT
; _this$ = ecx
  00000	55		 push	 ebp
  00001	8b ec		 mov	 ebp, esp

; 73   :     {

  00003	56		 push	 esi
  00004	8b f1		 mov	 esi, ecx
  00006	0f 57 c0	 xorps	 xmm0, xmm0

; 72   :         : _Data()

  00009	8d 46 04	 lea	 eax, DWORD PTR [esi+4]

; 74   :         __std_exception_copy(&_Other._Data, &_Data);

  0000c	50		 push	 eax
  0000d	c7 06 00 00 00
	00		 mov	 DWORD PTR [esi], OFFSET ??_7exception@std@@6B@
  00013	66 0f d6 00	 movq	 QWORD PTR [eax], xmm0
  00017	8b 45 08	 mov	 eax, DWORD PTR ___that$[ebp]
  0001a	83 c0 04	 add	 eax, 4
  0001d	50		 push	 eax
  0001e	e8 00 00 00 00	 call	 ___std_exception_copy
  00023	83 c4 08	 add	 esp, 8
  00026	c7 06 00 00 00
	00		 mov	 DWORD PTR [esi], OFFSET ??_7bad_alloc@std@@6B@
  0002c	8b c6		 mov	 eax, esi
  0002e	5e		 pop	 esi
  0002f	5d		 pop	 ebp
  00030	c2 04 00	 ret	 4
??0bad_alloc@std@@QAE@ABV01@@Z ENDP			; std::bad_alloc::bad_alloc
_TEXT	ENDS
; Function compile flags: /Ogtp
; File C:\Program Files\Microsoft Visual Studio\2022\Professional\VC\Tools\MSVC\14.44.35207\include\vcruntime_exception.h
;	COMDAT ??_Gexception@std@@UAEPAXI@Z
_TEXT	SEGMENT
___flags$ = 8						; size = 4
??_Gexception@std@@UAEPAXI@Z PROC			; std::exception::`scalar deleting destructor', COMDAT
; _this$ = ecx
  00000	55		 push	 ebp
  00001	8b ec		 mov	 ebp, esp

; 90   :     {

  00003	56		 push	 esi
  00004	8b f1		 mov	 esi, ecx

; 91   :         __std_exception_destroy(&_Data);

  00006	8d 46 04	 lea	 eax, DWORD PTR [esi+4]
  00009	c7 06 00 00 00
	00		 mov	 DWORD PTR [esi], OFFSET ??_7exception@std@@6B@
  0000f	50		 push	 eax
  00010	e8 00 00 00 00	 call	 ___std_exception_destroy
  00015	83 c4 04	 add	 esp, 4
  00018	f6 45 08 01	 test	 BYTE PTR ___flags$[ebp], 1
  0001c	74 0b		 je	 SHORT $LN8@scalar
  0001e	6a 0c		 push	 12			; 0000000cH
  00020	56		 push	 esi
  00021	e8 00 00 00 00	 call	 ??3@YAXPAXI@Z		; operator delete
  00026	83 c4 08	 add	 esp, 8
$LN8@scalar:
  00029	8b c6		 mov	 eax, esi
  0002b	5e		 pop	 esi
  0002c	5d		 pop	 ebp
  0002d	c2 04 00	 ret	 4
??_Gexception@std@@UAEPAXI@Z ENDP			; std::exception::`scalar deleting destructor'
_TEXT	ENDS
; Function compile flags: /Ogtp
; File C:\Program Files\Microsoft Visual Studio\2022\Professional\VC\Tools\MSVC\14.44.35207\include\vcruntime_exception.h
;	COMDAT ?what@exception@std@@UBEPBDXZ
_TEXT	SEGMENT
?what@exception@std@@UBEPBDXZ PROC			; std::exception::what, COMDAT
; _this$ = ecx

; 96   :         return _Data._What ? _Data._What : "Unknown exception";

  00000	8b 49 04	 mov	 ecx, DWORD PTR [ecx+4]
  00003	b8 00 00 00 00	 mov	 eax, OFFSET ??_C@_0BC@EOODALEL@Unknown?5exception@
  00008	85 c9		 test	 ecx, ecx
  0000a	0f 45 c1	 cmovne	 eax, ecx

; 97   :     }

  0000d	c3		 ret	 0
?what@exception@std@@UBEPBDXZ ENDP			; std::exception::what
_TEXT	ENDS
; Function compile flags: /Ogtp
; File C:\Program Files\Microsoft Visual Studio\2022\Professional\VC\Tools\MSVC\14.44.35207\include\vcruntime_exception.h
;	COMDAT ??1exception@std@@UAE@XZ
_TEXT	SEGMENT
??1exception@std@@UAE@XZ PROC				; std::exception::~exception, COMDAT
; _this$ = ecx

; 91   :         __std_exception_destroy(&_Data);

  00000	8d 41 04	 lea	 eax, DWORD PTR [ecx+4]
  00003	c7 01 00 00 00
	00		 mov	 DWORD PTR [ecx], OFFSET ??_7exception@std@@6B@
  00009	50		 push	 eax
  0000a	e8 00 00 00 00	 call	 ___std_exception_destroy
  0000f	59		 pop	 ecx

; 92   :     }

  00010	c3		 ret	 0
??1exception@std@@UAE@XZ ENDP				; std::exception::~exception
_TEXT	ENDS
; Function compile flags: /Ogtp
; File C:\Program Files\Microsoft Visual Studio\2022\Professional\VC\Tools\MSVC\14.44.35207\include\vcruntime_exception.h
;	COMDAT ??0exception@std@@QAE@ABV01@@Z
_TEXT	SEGMENT
__Other$ = 8						; size = 4
??0exception@std@@QAE@ABV01@@Z PROC			; std::exception::exception, COMDAT
; _this$ = ecx

; 73   :     {

  00000	55		 push	 ebp
  00001	8b ec		 mov	 ebp, esp
  00003	56		 push	 esi
  00004	8b f1		 mov	 esi, ecx
  00006	0f 57 c0	 xorps	 xmm0, xmm0
  00009	8d 46 04	 lea	 eax, DWORD PTR [esi+4]

; 74   :         __std_exception_copy(&_Other._Data, &_Data);

  0000c	50		 push	 eax
  0000d	c7 06 00 00 00
	00		 mov	 DWORD PTR [esi], OFFSET ??_7exception@std@@6B@
  00013	66 0f d6 00	 movq	 QWORD PTR [eax], xmm0
  00017	8b 45 08	 mov	 eax, DWORD PTR __Other$[ebp]
  0001a	83 c0 04	 add	 eax, 4
  0001d	50		 push	 eax
  0001e	e8 00 00 00 00	 call	 ___std_exception_copy
  00023	83 c4 08	 add	 esp, 8

; 75   :     }

  00026	8b c6		 mov	 eax, esi
  00028	5e		 pop	 esi
  00029	5d		 pop	 ebp
  0002a	c2 04 00	 ret	 4
??0exception@std@@QAE@ABV01@@Z ENDP			; std::exception::exception
_TEXT	ENDS
; Function compile flags: /Ogtp
; File C:\IAGOS\server\v18\Source\Source\_Common\randomoption.cpp
;	COMDAT ?__empty_global_delete@@YAXPAXI@Z
_TEXT	SEGMENT
___formal$ = 8						; size = 4
___formal$ = 12						; size = 4
?__empty_global_delete@@YAXPAXI@Z PROC			; __empty_global_delete, COMDAT

  00000	c2 00 00	 ret	 0
?__empty_global_delete@@YAXPAXI@Z ENDP			; __empty_global_delete
_TEXT	ENDS
; Function compile flags: /Ogtp
; File C:\IAGOS\server\v18\Source\Source\_Common\randomoption.cpp
;	COMDAT ?__empty_global_delete@@YAXPAX@Z
_TEXT	SEGMENT
___formal$ = 8						; size = 4
?__empty_global_delete@@YAXPAX@Z PROC			; __empty_global_delete, COMDAT

  00000	c2 00 00	 ret	 0
?__empty_global_delete@@YAXPAX@Z ENDP			; __empty_global_delete
_TEXT	ENDS
END
