; Listing generated by Microsoft (R) Optimizing Compiler Version 19.44.35225.0 

	TITLE	C:\IAGOS\server\v18\Source\Output\WorldServer\Release\rangda.obj
	.686P
	.XMM
	include listing.inc
	.model	flat

INCLUDELIB LIBCMT
INCLUDELIB OLDNAMES

PUBLIC	?__empty_global_delete@@YAXPAX@Z		; __empty_global_delete
PUBLIC	?__empty_global_delete@@YAXPAXI@Z		; __empty_global_delete
PUBLIC	??0exception@std@@QAE@ABV01@@Z			; std::exception::exception
PUBLIC	??1exception@std@@UAE@XZ			; std::exception::~exception
PUBLIC	?what@exception@std@@UBEPBDXZ			; std::exception::what
PUBLIC	??_Gexception@std@@UAEPAXI@Z			; std::exception::`scalar deleting destructor'
PUBLIC	??0bad_alloc@std@@QAE@ABV01@@Z			; std::bad_alloc::bad_alloc
PUBLIC	??_Gbad_alloc@std@@UAEPAXI@Z			; std::bad_alloc::`scalar deleting destructor'
PUBLIC	??0bad_array_new_length@std@@QAE@XZ		; std::bad_array_new_length::bad_array_new_length
PUBLIC	??1bad_array_new_length@std@@UAE@XZ		; std::bad_array_new_length::~bad_array_new_length
PUBLIC	??0bad_array_new_length@std@@QAE@ABV01@@Z	; std::bad_array_new_length::bad_array_new_length
PUBLIC	??_Gbad_array_new_length@std@@UAEPAXI@Z		; std::bad_array_new_length::`scalar deleting destructor'
PUBLIC	?_Throw_bad_array_new_length@std@@YAXXZ		; std::_Throw_bad_array_new_length
PUBLIC	??0D3DXVECTOR3@@QAE@XZ				; D3DXVECTOR3::D3DXVECTOR3
PUBLIC	??$_Allocate_manually_vector_aligned@U_Default_allocate_traits@std@@@std@@YAPAXI@Z ; std::_Allocate_manually_vector_aligned<std::_Default_allocate_traits>
PUBLIC	??0CRangda@@QAE@K@Z				; CRangda::CRangda
PUBLIC	??0CRangda@@QAE@KHHH@Z				; CRangda::CRangda
PUBLIC	??1CRangda@@UAE@XZ				; CRangda::~CRangda
PUBLIC	?AddPos@CRangda@@QAEXABU_RANGDA_POS@@@Z		; CRangda::AddPos
PUBLIC	?OnTimer@CRangda@@QAEXXZ			; CRangda::OnTimer
PUBLIC	?GetRandomPos@CRangda@@AAE?AU_RANGDA_POS@@XZ	; CRangda::GetRandomPos
PUBLIC	?SetObj@CRangda@@AAEXK@Z			; CRangda::SetObj
PUBLIC	?HavetoGenerate@CRangda@@AAEHXZ			; CRangda::HavetoGenerate
PUBLIC	?HavetoReplace@CRangda@@AAEHXZ			; CRangda::HavetoReplace
PUBLIC	?CreateMonster@CRangda@@AAEXXZ			; CRangda::CreateMonster
PUBLIC	?IsDamaged@CRangda@@AAEHPAVCMover@@@Z		; CRangda::IsDamaged
PUBLIC	?ProcessReplace@CRangda@@AAEXPAVCMover@@@Z	; CRangda::ProcessReplace
PUBLIC	?ProcessGenerate@CRangda@@AAEXXZ		; CRangda::ProcessGenerate
PUBLIC	?GetMonster@CRangda@@AAEPAVCMover@@XZ		; CRangda::GetMonster
PUBLIC	??1?$vector@U_RANGDA_POS@@V?$allocator@U_RANGDA_POS@@@std@@@std@@QAE@XZ ; std::vector<_RANGDA_POS,std::allocator<_RANGDA_POS> >::~vector<_RANGDA_POS,std::allocator<_RANGDA_POS> >
PUBLIC	?_Xlength@?$vector@U_RANGDA_POS@@V?$allocator@U_RANGDA_POS@@@std@@@std@@CAXXZ ; std::vector<_RANGDA_POS,std::allocator<_RANGDA_POS> >::_Xlength
PUBLIC	??_GCRangda@@UAEPAXI@Z				; CRangda::`scalar deleting destructor'
PUBLIC	??1CRangdaController@@UAE@XZ			; CRangdaController::~CRangdaController
PUBLIC	?Instance@CRangdaController@@SAPAV1@XZ		; CRangdaController::Instance
PUBLIC	?AddRangda@CRangdaController@@QAEXPAVCRangda@@@Z ; CRangdaController::AddRangda
PUBLIC	?OnTimer@CRangdaController@@QAEXXZ		; CRangdaController::OnTimer
PUBLIC	?LoadScript@CRangdaController@@QAEHPBD@Z	; CRangdaController::LoadScript
PUBLIC	??0CRangdaController@@AAE@XZ			; CRangdaController::CRangdaController
PUBLIC	??1?$vector@PAVCRangda@@V?$allocator@PAVCRangda@@@std@@@std@@QAE@XZ ; std::vector<CRangda *,std::allocator<CRangda *> >::~vector<CRangda *,std::allocator<CRangda *> >
PUBLIC	?_Xlength@?$vector@PAVCRangda@@V?$allocator@PAVCRangda@@@std@@@std@@CAXXZ ; std::vector<CRangda *,std::allocator<CRangda *> >::_Xlength
PUBLIC	??_GCRangdaController@@UAEPAXI@Z		; CRangdaController::`scalar deleting destructor'
PUBLIC	??$_Emplace_reallocate@ABQAVCRangda@@@?$vector@PAVCRangda@@V?$allocator@PAVCRangda@@@std@@@std@@AAEPAPAVCRangda@@QAPAV2@ABQAV2@@Z ; std::vector<CRangda *,std::allocator<CRangda *> >::_Emplace_reallocate<CRangda * const &>
PUBLIC	??$_Emplace_reallocate@ABU_RANGDA_POS@@@?$vector@U_RANGDA_POS@@V?$allocator@U_RANGDA_POS@@@std@@@std@@AAEPAU_RANGDA_POS@@QAU2@ABU2@@Z ; std::vector<_RANGDA_POS,std::allocator<_RANGDA_POS> >::_Emplace_reallocate<_RANGDA_POS const &>
PUBLIC	??$_Copy_memmove@PAPAVCRangda@@PAPAV1@@std@@YAPAPAVCRangda@@PAPAV1@00@Z ; std::_Copy_memmove<CRangda * *,CRangda * *>
PUBLIC	??$_Copy_memmove@PAU_RANGDA_POS@@PAU1@@std@@YAPAU_RANGDA_POS@@PAU1@00@Z ; std::_Copy_memmove<_RANGDA_POS *,_RANGDA_POS *>
PUBLIC	??$_Copy_memmove_tail@PAPAVCRangda@@@std@@YAPAPAVCRangda@@QBDQAPAV1@II@Z ; std::_Copy_memmove_tail<CRangda * *>
PUBLIC	??$_Copy_memmove_tail@PAU_RANGDA_POS@@@std@@YAPAU_RANGDA_POS@@QBDQAU1@II@Z ; std::_Copy_memmove_tail<_RANGDA_POS *>
PUBLIC	??_7exception@std@@6B@				; std::exception::`vftable'
PUBLIC	??_C@_0BC@EOODALEL@Unknown?5exception@		; `string'
PUBLIC	??_7bad_alloc@std@@6B@				; std::bad_alloc::`vftable'
PUBLIC	??_7bad_array_new_length@std@@6B@		; std::bad_array_new_length::`vftable'
PUBLIC	??_C@_0BF@KINCDENJ@bad?5array?5new?5length@	; `string'
PUBLIC	??_R0?AVexception@std@@@8			; std::exception `RTTI Type Descriptor'
PUBLIC	__CT??_R0?AVexception@std@@@8??0exception@std@@QAE@ABV01@@Z12
PUBLIC	__TI3?AVbad_array_new_length@std@@
PUBLIC	__CTA3?AVbad_array_new_length@std@@
PUBLIC	??_R0?AVbad_array_new_length@std@@@8		; std::bad_array_new_length `RTTI Type Descriptor'
PUBLIC	__CT??_R0?AVbad_array_new_length@std@@@8??0bad_array_new_length@std@@QAE@ABV01@@Z12
PUBLIC	??_R0?AVbad_alloc@std@@@8			; std::bad_alloc `RTTI Type Descriptor'
PUBLIC	__CT??_R0?AVbad_alloc@std@@@8??0bad_alloc@std@@QAE@ABV01@@Z12
PUBLIC	??_C@_0BA@FOIKENOD@vector?5too?5long@		; `string'
PUBLIC	??_R4exception@std@@6B@				; std::exception::`RTTI Complete Object Locator'
PUBLIC	??_R3exception@std@@8				; std::exception::`RTTI Class Hierarchy Descriptor'
PUBLIC	??_R2exception@std@@8				; std::exception::`RTTI Base Class Array'
PUBLIC	??_R1A@?0A@EA@exception@std@@8			; std::exception::`RTTI Base Class Descriptor at (0,-1,0,64)'
PUBLIC	??_R4bad_array_new_length@std@@6B@		; std::bad_array_new_length::`RTTI Complete Object Locator'
PUBLIC	??_R3bad_array_new_length@std@@8		; std::bad_array_new_length::`RTTI Class Hierarchy Descriptor'
PUBLIC	??_R2bad_array_new_length@std@@8		; std::bad_array_new_length::`RTTI Base Class Array'
PUBLIC	??_R1A@?0A@EA@bad_array_new_length@std@@8	; std::bad_array_new_length::`RTTI Base Class Descriptor at (0,-1,0,64)'
PUBLIC	??_R1A@?0A@EA@bad_alloc@std@@8			; std::bad_alloc::`RTTI Base Class Descriptor at (0,-1,0,64)'
PUBLIC	??_R3bad_alloc@std@@8				; std::bad_alloc::`RTTI Class Hierarchy Descriptor'
PUBLIC	??_R2bad_alloc@std@@8				; std::bad_alloc::`RTTI Base Class Array'
PUBLIC	??_R4bad_alloc@std@@6B@				; std::bad_alloc::`RTTI Complete Object Locator'
PUBLIC	??_7CRangda@@6B@				; CRangda::`vftable'
PUBLIC	??_7CRangdaController@@6B@			; CRangdaController::`vftable'
PUBLIC	??_C@_0BI@HBEONIOH@CRangda?4ProcessReplace?3@	; `string'
PUBLIC	??_C@_0BJ@FGFPLBDO@CRangda?4ProcessGenerate?3@	; `string'
PUBLIC	??_C@_0EG@BHMGAOAH@CRangda?4CreateMonster?3?5monster?5@ ; `string'
PUBLIC	??_C@_09GJAOAHBN@nInterval@			; `string'
PUBLIC	??_C@_08MFLLMLOO@nReplace@			; `string'
PUBLIC	??_C@_0O@DFAEABEH@bActiveAttack@		; `string'
PUBLIC	??_C@_07DEMLKDGM@vRangda@			; `string'
PUBLIC	??_R4CRangda@@6B@				; CRangda::`RTTI Complete Object Locator'
PUBLIC	??_R0?AVCRangda@@@8				; CRangda `RTTI Type Descriptor'
PUBLIC	??_R3CRangda@@8					; CRangda::`RTTI Class Hierarchy Descriptor'
PUBLIC	??_R2CRangda@@8					; CRangda::`RTTI Base Class Array'
PUBLIC	??_R1A@?0A@EA@CRangda@@8			; CRangda::`RTTI Base Class Descriptor at (0,-1,0,64)'
PUBLIC	??_R4CRangdaController@@6B@			; CRangdaController::`RTTI Complete Object Locator'
PUBLIC	??_R0?AVCRangdaController@@@8			; CRangdaController `RTTI Type Descriptor'
PUBLIC	??_R3CRangdaController@@8			; CRangdaController::`RTTI Class Hierarchy Descriptor'
PUBLIC	??_R2CRangdaController@@8			; CRangdaController::`RTTI Base Class Array'
PUBLIC	??_R1A@?0A@EA@CRangdaController@@8		; CRangdaController::`RTTI Base Class Descriptor at (0,-1,0,64)'
EXTRN	??2@YAPAXI@Z:PROC				; operator new
EXTRN	??3@YAXPAXI@Z:PROC				; operator delete
EXTRN	_atexit:PROC
EXTRN	__Init_thread_header:PROC
EXTRN	__Init_thread_footer:PROC
EXTRN	__invoke_watson:PROC
EXTRN	__mbscmp:PROC
EXTRN	?AfxThrowMemoryException@@YGXXZ:PROC		; AfxThrowMemoryException
EXTRN	?AfxThrowOleException@@YGXJ@Z:PROC		; AfxThrowOleException
EXTRN	___std_exception_copy:PROC
EXTRN	___std_exception_destroy:PROC
EXTRN	??_Eexception@std@@UAEPAXI@Z:PROC		; std::exception::`vector deleting destructor'
EXTRN	??_Ebad_alloc@std@@UAEPAXI@Z:PROC		; std::bad_alloc::`vector deleting destructor'
EXTRN	??_Ebad_array_new_length@std@@UAEPAXI@Z:PROC	; std::bad_array_new_length::`vector deleting destructor'
EXTRN	?_Xlength_error@std@@YAXPBD@Z:PROC		; std::_Xlength_error
EXTRN	?GetNumber@CScanner@@QAEHH@Z:PROC		; CScanner::GetNumber
EXTRN	?GetFloat@CScanner@@QAEMH@Z:PROC		; CScanner::GetFloat
EXTRN	??0CScript@@QAE@H@Z:PROC			; CScript::CScript
EXTRN	??1CScript@@UAE@XZ:PROC				; CScript::~CScript
EXTRN	?Load@CScript@@QAEHPBDHH@Z:PROC			; CScript::Load
EXTRN	?GetToken@CScript@@UAEHH@Z:PROC			; CScript::GetToken
EXTRN	?xRandom@@YAKKK@Z:PROC				; xRandom
EXTRN	?UpdateLocalMatrix@CObj@@QAEXXZ:PROC		; CObj::UpdateLocalMatrix
EXTRN	?Delete@CObj@@QAEXXZ:PROC			; CObj::Delete
EXTRN	?SetPos@CObj@@QAEXABUD3DXVECTOR3@@@Z:PROC	; CObj::SetPos
EXTRN	?GetMover@CProject@@QAEPAVCMover@@K@Z:PROC	; CProject::GetMover
EXTRN	?GetHitPoint@CMover@@QAEHXZ:PROC		; CMover::GetHitPoint
EXTRN	?GetMaxHitPoint@CMover@@QAEHXZ:PROC		; CMover::GetMaxHitPoint
EXTRN	?AddObj@CWorld@@QAEHPAVCObj@@HH@Z:PROC		; CWorld::AddObj
EXTRN	?CreateObj@@YAPAVCObj@@PAUIDirect3DDevice9@@KKH@Z:PROC ; CreateObj
EXTRN	??_ECRangda@@UAEPAXI@Z:PROC			; CRangda::`vector deleting destructor'
EXTRN	??_ECRangdaController@@UAEPAXI@Z:PROC		; CRangdaController::`vector deleting destructor'
EXTRN	?GetWorld@CWorldMng@@QAEPAVCWorld@@K@Z:PROC	; CWorldMng::GetWorld
EXTRN	?OutputDebugStringA@election@@YAXPBDZZ:PROC	; election::OutputDebugStringA
EXTRN	@__security_check_cookie@4:PROC
EXTRN	__CxxThrowException@8:PROC
EXTRN	___CxxFrameHandler3:PROC
EXTRN	_memmove:PROC
EXTRN	__Init_thread_epoch:DWORD
EXTRN	??_7type_info@@6B@:QWORD			; type_info::`vftable'
EXTRN	?prj@@3VCProject@@A:BYTE			; prj
EXTRN	?g_WorldMng@@3VCWorldMng@@A:BYTE		; g_WorldMng
EXTRN	___security_cookie:DWORD
EXTRN	__fltused:DWORD
EXTRN	__tls_array:DWORD
EXTRN	__tls_index:DWORD
;	COMDAT ?sRangdaController@?1??Instance@CRangdaController@@SAPAV2@XZ@4V2@A
_BSS	SEGMENT
?sRangdaController@?1??Instance@CRangdaController@@SAPAV2@XZ@4V2@A DB 010H DUP (?) ; `CRangdaController::Instance'::`2'::sRangdaController
_BSS	ENDS
;	COMDAT ?$TSS0@?1??Instance@CRangdaController@@SAPAV2@XZ@4HA
_BSS	SEGMENT
?$TSS0@?1??Instance@CRangdaController@@SAPAV2@XZ@4HA DD 01H DUP (?) ; `CRangdaController::Instance'::`2'::$TSS0
_BSS	ENDS
;	COMDAT ??_R1A@?0A@EA@CRangdaController@@8
rdata$r	SEGMENT
??_R1A@?0A@EA@CRangdaController@@8 DD FLAT:??_R0?AVCRangdaController@@@8 ; CRangdaController::`RTTI Base Class Descriptor at (0,-1,0,64)'
	DD	00H
	DD	00H
	DD	0ffffffffH
	DD	00H
	DD	040H
	DD	FLAT:??_R3CRangdaController@@8
rdata$r	ENDS
;	COMDAT ??_R2CRangdaController@@8
rdata$r	SEGMENT
??_R2CRangdaController@@8 DD FLAT:??_R1A@?0A@EA@CRangdaController@@8 ; CRangdaController::`RTTI Base Class Array'
rdata$r	ENDS
;	COMDAT ??_R3CRangdaController@@8
rdata$r	SEGMENT
??_R3CRangdaController@@8 DD 00H			; CRangdaController::`RTTI Class Hierarchy Descriptor'
	DD	00H
	DD	01H
	DD	FLAT:??_R2CRangdaController@@8
rdata$r	ENDS
;	COMDAT ??_R0?AVCRangdaController@@@8
data$rs	SEGMENT
??_R0?AVCRangdaController@@@8 DD FLAT:??_7type_info@@6B@ ; CRangdaController `RTTI Type Descriptor'
	DD	00H
	DB	'.?AVCRangdaController@@', 00H
data$rs	ENDS
;	COMDAT ??_R4CRangdaController@@6B@
rdata$r	SEGMENT
??_R4CRangdaController@@6B@ DD 00H			; CRangdaController::`RTTI Complete Object Locator'
	DD	00H
	DD	00H
	DD	FLAT:??_R0?AVCRangdaController@@@8
	DD	FLAT:??_R3CRangdaController@@8
rdata$r	ENDS
;	COMDAT ??_R1A@?0A@EA@CRangda@@8
rdata$r	SEGMENT
??_R1A@?0A@EA@CRangda@@8 DD FLAT:??_R0?AVCRangda@@@8	; CRangda::`RTTI Base Class Descriptor at (0,-1,0,64)'
	DD	00H
	DD	00H
	DD	0ffffffffH
	DD	00H
	DD	040H
	DD	FLAT:??_R3CRangda@@8
rdata$r	ENDS
;	COMDAT ??_R2CRangda@@8
rdata$r	SEGMENT
??_R2CRangda@@8 DD FLAT:??_R1A@?0A@EA@CRangda@@8	; CRangda::`RTTI Base Class Array'
rdata$r	ENDS
;	COMDAT ??_R3CRangda@@8
rdata$r	SEGMENT
??_R3CRangda@@8 DD 00H					; CRangda::`RTTI Class Hierarchy Descriptor'
	DD	00H
	DD	01H
	DD	FLAT:??_R2CRangda@@8
rdata$r	ENDS
;	COMDAT ??_R0?AVCRangda@@@8
data$rs	SEGMENT
??_R0?AVCRangda@@@8 DD FLAT:??_7type_info@@6B@		; CRangda `RTTI Type Descriptor'
	DD	00H
	DB	'.?AVCRangda@@', 00H
data$rs	ENDS
;	COMDAT ??_R4CRangda@@6B@
rdata$r	SEGMENT
??_R4CRangda@@6B@ DD 00H				; CRangda::`RTTI Complete Object Locator'
	DD	00H
	DD	00H
	DD	FLAT:??_R0?AVCRangda@@@8
	DD	FLAT:??_R3CRangda@@8
rdata$r	ENDS
;	COMDAT ??_C@_07DEMLKDGM@vRangda@
CONST	SEGMENT
??_C@_07DEMLKDGM@vRangda@ DB 'vRangda', 00H		; `string'
CONST	ENDS
;	COMDAT ??_C@_0O@DFAEABEH@bActiveAttack@
CONST	SEGMENT
??_C@_0O@DFAEABEH@bActiveAttack@ DB 'bActiveAttack', 00H ; `string'
CONST	ENDS
;	COMDAT ??_C@_08MFLLMLOO@nReplace@
CONST	SEGMENT
??_C@_08MFLLMLOO@nReplace@ DB 'nReplace', 00H		; `string'
CONST	ENDS
;	COMDAT ??_C@_09GJAOAHBN@nInterval@
CONST	SEGMENT
??_C@_09GJAOAHBN@nInterval@ DB 'nInterval', 00H		; `string'
CONST	ENDS
;	COMDAT ??_C@_0EG@BHMGAOAH@CRangda?4CreateMonster?3?5monster?5@
CONST	SEGMENT
??_C@_0EG@BHMGAOAH@CRangda?4CreateMonster?3?5monster?5@ DB 'CRangda.Creat'
	DB	'eMonster: monster = %d, x = %0.2f, y = %0.2f, z = %0.2f', 0aH
	DB	00H						; `string'
CONST	ENDS
;	COMDAT ??_C@_0BJ@FGFPLBDO@CRangda?4ProcessGenerate?3@
CONST	SEGMENT
??_C@_0BJ@FGFPLBDO@CRangda?4ProcessGenerate?3@ DB 'CRangda.ProcessGenerat'
	DB	'e:', 00H					; `string'
CONST	ENDS
;	COMDAT ??_C@_0BI@HBEONIOH@CRangda?4ProcessReplace?3@
CONST	SEGMENT
??_C@_0BI@HBEONIOH@CRangda?4ProcessReplace?3@ DB 'CRangda.ProcessReplace:'
	DB	00H						; `string'
CONST	ENDS
;	COMDAT ??_7CRangdaController@@6B@
CONST	SEGMENT
??_7CRangdaController@@6B@ DD FLAT:??_R4CRangdaController@@6B@ ; CRangdaController::`vftable'
	DD	FLAT:??_ECRangdaController@@UAEPAXI@Z
CONST	ENDS
;	COMDAT ??_7CRangda@@6B@
CONST	SEGMENT
??_7CRangda@@6B@ DD FLAT:??_R4CRangda@@6B@		; CRangda::`vftable'
	DD	FLAT:??_ECRangda@@UAEPAXI@Z
CONST	ENDS
;	COMDAT ??_R4bad_alloc@std@@6B@
rdata$r	SEGMENT
??_R4bad_alloc@std@@6B@ DD 00H				; std::bad_alloc::`RTTI Complete Object Locator'
	DD	00H
	DD	00H
	DD	FLAT:??_R0?AVbad_alloc@std@@@8
	DD	FLAT:??_R3bad_alloc@std@@8
rdata$r	ENDS
;	COMDAT ??_R2bad_alloc@std@@8
rdata$r	SEGMENT
??_R2bad_alloc@std@@8 DD FLAT:??_R1A@?0A@EA@bad_alloc@std@@8 ; std::bad_alloc::`RTTI Base Class Array'
	DD	FLAT:??_R1A@?0A@EA@exception@std@@8
rdata$r	ENDS
;	COMDAT ??_R3bad_alloc@std@@8
rdata$r	SEGMENT
??_R3bad_alloc@std@@8 DD 00H				; std::bad_alloc::`RTTI Class Hierarchy Descriptor'
	DD	00H
	DD	02H
	DD	FLAT:??_R2bad_alloc@std@@8
rdata$r	ENDS
;	COMDAT ??_R1A@?0A@EA@bad_alloc@std@@8
rdata$r	SEGMENT
??_R1A@?0A@EA@bad_alloc@std@@8 DD FLAT:??_R0?AVbad_alloc@std@@@8 ; std::bad_alloc::`RTTI Base Class Descriptor at (0,-1,0,64)'
	DD	01H
	DD	00H
	DD	0ffffffffH
	DD	00H
	DD	040H
	DD	FLAT:??_R3bad_alloc@std@@8
rdata$r	ENDS
;	COMDAT ??_R1A@?0A@EA@bad_array_new_length@std@@8
rdata$r	SEGMENT
??_R1A@?0A@EA@bad_array_new_length@std@@8 DD FLAT:??_R0?AVbad_array_new_length@std@@@8 ; std::bad_array_new_length::`RTTI Base Class Descriptor at (0,-1,0,64)'
	DD	02H
	DD	00H
	DD	0ffffffffH
	DD	00H
	DD	040H
	DD	FLAT:??_R3bad_array_new_length@std@@8
rdata$r	ENDS
;	COMDAT ??_R2bad_array_new_length@std@@8
rdata$r	SEGMENT
??_R2bad_array_new_length@std@@8 DD FLAT:??_R1A@?0A@EA@bad_array_new_length@std@@8 ; std::bad_array_new_length::`RTTI Base Class Array'
	DD	FLAT:??_R1A@?0A@EA@bad_alloc@std@@8
	DD	FLAT:??_R1A@?0A@EA@exception@std@@8
rdata$r	ENDS
;	COMDAT ??_R3bad_array_new_length@std@@8
rdata$r	SEGMENT
??_R3bad_array_new_length@std@@8 DD 00H			; std::bad_array_new_length::`RTTI Class Hierarchy Descriptor'
	DD	00H
	DD	03H
	DD	FLAT:??_R2bad_array_new_length@std@@8
rdata$r	ENDS
;	COMDAT ??_R4bad_array_new_length@std@@6B@
rdata$r	SEGMENT
??_R4bad_array_new_length@std@@6B@ DD 00H		; std::bad_array_new_length::`RTTI Complete Object Locator'
	DD	00H
	DD	00H
	DD	FLAT:??_R0?AVbad_array_new_length@std@@@8
	DD	FLAT:??_R3bad_array_new_length@std@@8
rdata$r	ENDS
;	COMDAT ??_R1A@?0A@EA@exception@std@@8
rdata$r	SEGMENT
??_R1A@?0A@EA@exception@std@@8 DD FLAT:??_R0?AVexception@std@@@8 ; std::exception::`RTTI Base Class Descriptor at (0,-1,0,64)'
	DD	00H
	DD	00H
	DD	0ffffffffH
	DD	00H
	DD	040H
	DD	FLAT:??_R3exception@std@@8
rdata$r	ENDS
;	COMDAT ??_R2exception@std@@8
rdata$r	SEGMENT
??_R2exception@std@@8 DD FLAT:??_R1A@?0A@EA@exception@std@@8 ; std::exception::`RTTI Base Class Array'
rdata$r	ENDS
;	COMDAT ??_R3exception@std@@8
rdata$r	SEGMENT
??_R3exception@std@@8 DD 00H				; std::exception::`RTTI Class Hierarchy Descriptor'
	DD	00H
	DD	01H
	DD	FLAT:??_R2exception@std@@8
rdata$r	ENDS
;	COMDAT ??_R4exception@std@@6B@
rdata$r	SEGMENT
??_R4exception@std@@6B@ DD 00H				; std::exception::`RTTI Complete Object Locator'
	DD	00H
	DD	00H
	DD	FLAT:??_R0?AVexception@std@@@8
	DD	FLAT:??_R3exception@std@@8
rdata$r	ENDS
;	COMDAT ??_C@_0BA@FOIKENOD@vector?5too?5long@
CONST	SEGMENT
??_C@_0BA@FOIKENOD@vector?5too?5long@ DB 'vector too long', 00H ; `string'
CONST	ENDS
;	COMDAT __CT??_R0?AVbad_alloc@std@@@8??0bad_alloc@std@@QAE@ABV01@@Z12
xdata$x	SEGMENT
__CT??_R0?AVbad_alloc@std@@@8??0bad_alloc@std@@QAE@ABV01@@Z12 DD 010H
	DD	FLAT:??_R0?AVbad_alloc@std@@@8
	DD	00H
	DD	0ffffffffH
	ORG $+4
	DD	0cH
	DD	FLAT:??0bad_alloc@std@@QAE@ABV01@@Z
xdata$x	ENDS
;	COMDAT ??_R0?AVbad_alloc@std@@@8
data$r	SEGMENT
??_R0?AVbad_alloc@std@@@8 DD FLAT:??_7type_info@@6B@	; std::bad_alloc `RTTI Type Descriptor'
	DD	00H
	DB	'.?AVbad_alloc@std@@', 00H
data$r	ENDS
;	COMDAT __CT??_R0?AVbad_array_new_length@std@@@8??0bad_array_new_length@std@@QAE@ABV01@@Z12
xdata$x	SEGMENT
__CT??_R0?AVbad_array_new_length@std@@@8??0bad_array_new_length@std@@QAE@ABV01@@Z12 DD 00H
	DD	FLAT:??_R0?AVbad_array_new_length@std@@@8
	DD	00H
	DD	0ffffffffH
	ORG $+4
	DD	0cH
	DD	FLAT:??0bad_array_new_length@std@@QAE@ABV01@@Z
xdata$x	ENDS
;	COMDAT ??_R0?AVbad_array_new_length@std@@@8
data$r	SEGMENT
??_R0?AVbad_array_new_length@std@@@8 DD FLAT:??_7type_info@@6B@ ; std::bad_array_new_length `RTTI Type Descriptor'
	DD	00H
	DB	'.?AVbad_array_new_length@std@@', 00H
data$r	ENDS
;	COMDAT __CTA3?AVbad_array_new_length@std@@
xdata$x	SEGMENT
__CTA3?AVbad_array_new_length@std@@ DD 03H
	DD	FLAT:__CT??_R0?AVbad_array_new_length@std@@@8??0bad_array_new_length@std@@QAE@ABV01@@Z12
	DD	FLAT:__CT??_R0?AVbad_alloc@std@@@8??0bad_alloc@std@@QAE@ABV01@@Z12
	DD	FLAT:__CT??_R0?AVexception@std@@@8??0exception@std@@QAE@ABV01@@Z12
xdata$x	ENDS
;	COMDAT __TI3?AVbad_array_new_length@std@@
xdata$x	SEGMENT
__TI3?AVbad_array_new_length@std@@ DD 00H
	DD	FLAT:??1bad_array_new_length@std@@UAE@XZ
	DD	00H
	DD	FLAT:__CTA3?AVbad_array_new_length@std@@
xdata$x	ENDS
;	COMDAT __CT??_R0?AVexception@std@@@8??0exception@std@@QAE@ABV01@@Z12
xdata$x	SEGMENT
__CT??_R0?AVexception@std@@@8??0exception@std@@QAE@ABV01@@Z12 DD 00H
	DD	FLAT:??_R0?AVexception@std@@@8
	DD	00H
	DD	0ffffffffH
	ORG $+4
	DD	0cH
	DD	FLAT:??0exception@std@@QAE@ABV01@@Z
xdata$x	ENDS
;	COMDAT ??_R0?AVexception@std@@@8
data$r	SEGMENT
??_R0?AVexception@std@@@8 DD FLAT:??_7type_info@@6B@	; std::exception `RTTI Type Descriptor'
	DD	00H
	DB	'.?AVexception@std@@', 00H
data$r	ENDS
;	COMDAT ??_C@_0BF@KINCDENJ@bad?5array?5new?5length@
CONST	SEGMENT
??_C@_0BF@KINCDENJ@bad?5array?5new?5length@ DB 'bad array new length', 00H ; `string'
CONST	ENDS
;	COMDAT ??_7bad_array_new_length@std@@6B@
CONST	SEGMENT
??_7bad_array_new_length@std@@6B@ DD FLAT:??_R4bad_array_new_length@std@@6B@ ; std::bad_array_new_length::`vftable'
	DD	FLAT:??_Ebad_array_new_length@std@@UAEPAXI@Z
	DD	FLAT:?what@exception@std@@UBEPBDXZ
CONST	ENDS
;	COMDAT ??_7bad_alloc@std@@6B@
CONST	SEGMENT
??_7bad_alloc@std@@6B@ DD FLAT:??_R4bad_alloc@std@@6B@	; std::bad_alloc::`vftable'
	DD	FLAT:??_Ebad_alloc@std@@UAEPAXI@Z
	DD	FLAT:?what@exception@std@@UBEPBDXZ
CONST	ENDS
;	COMDAT ??_C@_0BC@EOODALEL@Unknown?5exception@
CONST	SEGMENT
??_C@_0BC@EOODALEL@Unknown?5exception@ DB 'Unknown exception', 00H ; `string'
CONST	ENDS
;	COMDAT ??_7exception@std@@6B@
CONST	SEGMENT
??_7exception@std@@6B@ DD FLAT:??_R4exception@std@@6B@	; std::exception::`vftable'
	DD	FLAT:??_Eexception@std@@UAEPAXI@Z
	DD	FLAT:?what@exception@std@@UBEPBDXZ
CONST	ENDS
;	COMDAT xdata$x
xdata$x	SEGMENT
__unwindtable$?LoadScript@CRangdaController@@QAEHPBD@Z DD 0ffffffffH
	DD	FLAT:__unwindfunclet$?LoadScript@CRangdaController@@QAEHPBD@Z$0
__ehfuncinfo$?LoadScript@CRangdaController@@QAEHPBD@Z DD 019930522H
	DD	01H
	DD	FLAT:__unwindtable$?LoadScript@CRangdaController@@QAEHPBD@Z
	DD	2 DUP(00H)
	DD	2 DUP(00H)
	DD	00H
	DD	01H
xdata$x	ENDS
; Function compile flags: /Ogtp
; File C:\Program Files\Microsoft Visual Studio\2022\Professional\VC\Tools\MSVC\14.44.35207\include\xutility
;	COMDAT ??$_Copy_memmove_tail@PAU_RANGDA_POS@@@std@@YAPAU_RANGDA_POS@@QBDQAU1@II@Z
_TEXT	SEGMENT
__First_ch$ = 8						; size = 4
__Dest$ = 12						; size = 4
__Byte_count$ = 16					; size = 4
__Object_count$ = 20					; size = 4
??$_Copy_memmove_tail@PAU_RANGDA_POS@@@std@@YAPAU_RANGDA_POS@@QBDQAU1@II@Z PROC ; std::_Copy_memmove_tail<_RANGDA_POS *>, COMDAT

; 4747 :     const char* const _First_ch, const _OutCtgIt _Dest, const size_t _Byte_count, const size_t _Object_count) {

  00000	55		 push	 ebp
  00001	8b ec		 mov	 ebp, esp
  00003	56		 push	 esi

; 4748 :     _STL_INTERNAL_CHECK(_Byte_count == _Object_count * sizeof(*_Dest));
; 4749 :     const auto _Dest_ptr = _STD _To_address(_Dest);
; 4750 :     const auto _Dest_ch  = const_cast<char*>(reinterpret_cast<const volatile char*>(_Dest_ptr));
; 4751 :     _CSTD memmove(_Dest_ch, _First_ch, _Byte_count);

  00004	8b 75 0c	 mov	 esi, DWORD PTR __Dest$[ebp]
  00007	57		 push	 edi
  00008	8b 7d 10	 mov	 edi, DWORD PTR __Byte_count$[ebp]
  0000b	57		 push	 edi
  0000c	ff 75 08	 push	 DWORD PTR __First_ch$[ebp]
  0000f	56		 push	 esi
  00010	e8 00 00 00 00	 call	 _memmove
  00015	83 c4 0c	 add	 esp, 12			; 0000000cH

; 4752 :     if constexpr (is_pointer_v<_OutCtgIt>) {
; 4753 :         (void) _Object_count;
; 4754 :         // CodeQL [SM02986] This cast is correct: we're bypassing pointer arithmetic for performance.
; 4755 :         return reinterpret_cast<_OutCtgIt>(_Dest_ch + _Byte_count);

  00018	8d 04 3e	 lea	 eax, DWORD PTR [esi+edi]
  0001b	5f		 pop	 edi
  0001c	5e		 pop	 esi

; 4756 :     } else {
; 4757 :         return _Dest + static_cast<_Iter_diff_t<_OutCtgIt>>(_Object_count);
; 4758 :     }
; 4759 : }

  0001d	5d		 pop	 ebp
  0001e	c3		 ret	 0
??$_Copy_memmove_tail@PAU_RANGDA_POS@@@std@@YAPAU_RANGDA_POS@@QBDQAU1@II@Z ENDP ; std::_Copy_memmove_tail<_RANGDA_POS *>
_TEXT	ENDS
; Function compile flags: /Ogtp
; File C:\Program Files\Microsoft Visual Studio\2022\Professional\VC\Tools\MSVC\14.44.35207\include\xutility
;	COMDAT ??$_Copy_memmove_tail@PAPAVCRangda@@@std@@YAPAPAVCRangda@@QBDQAPAV1@II@Z
_TEXT	SEGMENT
__First_ch$ = 8						; size = 4
__Dest$ = 12						; size = 4
__Byte_count$ = 16					; size = 4
__Object_count$ = 20					; size = 4
??$_Copy_memmove_tail@PAPAVCRangda@@@std@@YAPAPAVCRangda@@QBDQAPAV1@II@Z PROC ; std::_Copy_memmove_tail<CRangda * *>, COMDAT

; 4747 :     const char* const _First_ch, const _OutCtgIt _Dest, const size_t _Byte_count, const size_t _Object_count) {

  00000	55		 push	 ebp
  00001	8b ec		 mov	 ebp, esp
  00003	56		 push	 esi

; 4748 :     _STL_INTERNAL_CHECK(_Byte_count == _Object_count * sizeof(*_Dest));
; 4749 :     const auto _Dest_ptr = _STD _To_address(_Dest);
; 4750 :     const auto _Dest_ch  = const_cast<char*>(reinterpret_cast<const volatile char*>(_Dest_ptr));
; 4751 :     _CSTD memmove(_Dest_ch, _First_ch, _Byte_count);

  00004	8b 75 0c	 mov	 esi, DWORD PTR __Dest$[ebp]
  00007	57		 push	 edi
  00008	8b 7d 10	 mov	 edi, DWORD PTR __Byte_count$[ebp]
  0000b	57		 push	 edi
  0000c	ff 75 08	 push	 DWORD PTR __First_ch$[ebp]
  0000f	56		 push	 esi
  00010	e8 00 00 00 00	 call	 _memmove
  00015	83 c4 0c	 add	 esp, 12			; 0000000cH

; 4752 :     if constexpr (is_pointer_v<_OutCtgIt>) {
; 4753 :         (void) _Object_count;
; 4754 :         // CodeQL [SM02986] This cast is correct: we're bypassing pointer arithmetic for performance.
; 4755 :         return reinterpret_cast<_OutCtgIt>(_Dest_ch + _Byte_count);

  00018	8d 04 3e	 lea	 eax, DWORD PTR [esi+edi]
  0001b	5f		 pop	 edi
  0001c	5e		 pop	 esi

; 4756 :     } else {
; 4757 :         return _Dest + static_cast<_Iter_diff_t<_OutCtgIt>>(_Object_count);
; 4758 :     }
; 4759 : }

  0001d	5d		 pop	 ebp
  0001e	c3		 ret	 0
??$_Copy_memmove_tail@PAPAVCRangda@@@std@@YAPAPAVCRangda@@QBDQAPAV1@II@Z ENDP ; std::_Copy_memmove_tail<CRangda * *>
_TEXT	ENDS
; Function compile flags: /Ogtp
; File C:\Program Files\Microsoft Visual Studio\2022\Professional\VC\Tools\MSVC\14.44.35207\include\xutility
;	COMDAT ??$_Copy_memmove@PAU_RANGDA_POS@@PAU1@@std@@YAPAU_RANGDA_POS@@PAU1@00@Z
_TEXT	SEGMENT
__First$ = 8						; size = 4
__Last$ = 12						; size = 4
__Dest$ = 16						; size = 4
??$_Copy_memmove@PAU_RANGDA_POS@@PAU1@@std@@YAPAU_RANGDA_POS@@PAU1@00@Z PROC ; std::_Copy_memmove<_RANGDA_POS *,_RANGDA_POS *>, COMDAT

; 4762 : _OutCtgIt _Copy_memmove(_CtgIt _First, _CtgIt _Last, _OutCtgIt _Dest) {

  00000	55		 push	 ebp
  00001	8b ec		 mov	 ebp, esp

; 4763 :     _STL_INTERNAL_CHECK(_First <= _Last);
; 4764 :     const auto _First_ptr    = _STD _To_address(_First);
; 4765 :     const auto _Last_ptr     = _STD _To_address(_Last);
; 4766 :     const auto _Object_count = static_cast<size_t>(_Last_ptr - _First_ptr);

  00003	8b 55 08	 mov	 edx, DWORD PTR __First$[ebp]
  00006	8b 4d 0c	 mov	 ecx, DWORD PTR __Last$[ebp]
  00009	2b ca		 sub	 ecx, edx
  0000b	8b c1		 mov	 eax, ecx
  0000d	c1 f8 04	 sar	 eax, 4

; 4767 :     const auto _First_ch     = const_cast<const char*>(reinterpret_cast<const volatile char*>(_First_ptr));
; 4768 :     const auto _Last_ch      = const_cast<const char*>(reinterpret_cast<const volatile char*>(_Last_ptr));
; 4769 :     const auto _Byte_count   = static_cast<size_t>(_Last_ch - _First_ch);
; 4770 :     return _STD _Copy_memmove_tail(_First_ch, _STD move(_Dest), _Byte_count, _Object_count);

  00010	50		 push	 eax
  00011	51		 push	 ecx
  00012	ff 75 10	 push	 DWORD PTR __Dest$[ebp]
  00015	52		 push	 edx
  00016	e8 00 00 00 00	 call	 ??$_Copy_memmove_tail@PAU_RANGDA_POS@@@std@@YAPAU_RANGDA_POS@@QBDQAU1@II@Z ; std::_Copy_memmove_tail<_RANGDA_POS *>
  0001b	83 c4 10	 add	 esp, 16			; 00000010H

; 4771 : }

  0001e	5d		 pop	 ebp
  0001f	c3		 ret	 0
??$_Copy_memmove@PAU_RANGDA_POS@@PAU1@@std@@YAPAU_RANGDA_POS@@PAU1@00@Z ENDP ; std::_Copy_memmove<_RANGDA_POS *,_RANGDA_POS *>
_TEXT	ENDS
; Function compile flags: /Ogtp
; File C:\Program Files\Microsoft Visual Studio\2022\Professional\VC\Tools\MSVC\14.44.35207\include\xutility
;	COMDAT ??$_Copy_memmove@PAPAVCRangda@@PAPAV1@@std@@YAPAPAVCRangda@@PAPAV1@00@Z
_TEXT	SEGMENT
__First$ = 8						; size = 4
__Last$ = 12						; size = 4
__Dest$ = 16						; size = 4
??$_Copy_memmove@PAPAVCRangda@@PAPAV1@@std@@YAPAPAVCRangda@@PAPAV1@00@Z PROC ; std::_Copy_memmove<CRangda * *,CRangda * *>, COMDAT

; 4762 : _OutCtgIt _Copy_memmove(_CtgIt _First, _CtgIt _Last, _OutCtgIt _Dest) {

  00000	55		 push	 ebp
  00001	8b ec		 mov	 ebp, esp

; 4763 :     _STL_INTERNAL_CHECK(_First <= _Last);
; 4764 :     const auto _First_ptr    = _STD _To_address(_First);
; 4765 :     const auto _Last_ptr     = _STD _To_address(_Last);
; 4766 :     const auto _Object_count = static_cast<size_t>(_Last_ptr - _First_ptr);

  00003	8b 55 08	 mov	 edx, DWORD PTR __First$[ebp]
  00006	8b 4d 0c	 mov	 ecx, DWORD PTR __Last$[ebp]
  00009	2b ca		 sub	 ecx, edx
  0000b	8b c1		 mov	 eax, ecx
  0000d	c1 f8 02	 sar	 eax, 2

; 4767 :     const auto _First_ch     = const_cast<const char*>(reinterpret_cast<const volatile char*>(_First_ptr));
; 4768 :     const auto _Last_ch      = const_cast<const char*>(reinterpret_cast<const volatile char*>(_Last_ptr));
; 4769 :     const auto _Byte_count   = static_cast<size_t>(_Last_ch - _First_ch);
; 4770 :     return _STD _Copy_memmove_tail(_First_ch, _STD move(_Dest), _Byte_count, _Object_count);

  00010	50		 push	 eax
  00011	51		 push	 ecx
  00012	ff 75 10	 push	 DWORD PTR __Dest$[ebp]
  00015	52		 push	 edx
  00016	e8 00 00 00 00	 call	 ??$_Copy_memmove_tail@PAPAVCRangda@@@std@@YAPAPAVCRangda@@QBDQAPAV1@II@Z ; std::_Copy_memmove_tail<CRangda * *>
  0001b	83 c4 10	 add	 esp, 16			; 00000010H

; 4771 : }

  0001e	5d		 pop	 ebp
  0001f	c3		 ret	 0
??$_Copy_memmove@PAPAVCRangda@@PAPAV1@@std@@YAPAPAVCRangda@@PAPAV1@00@Z ENDP ; std::_Copy_memmove<CRangda * *,CRangda * *>
_TEXT	ENDS
; Function compile flags: /Ogtp
; File C:\Program Files\Microsoft Visual Studio\2022\Professional\VC\Tools\MSVC\14.44.35207\include\vector
; File C:\Program Files\Microsoft Visual Studio\2022\Professional\VC\Tools\MSVC\14.44.35207\include\xmemory
; File C:\Program Files\Microsoft Visual Studio\2022\Professional\VC\Tools\MSVC\14.44.35207\include\vector
; File C:\Program Files\Microsoft Visual Studio\2022\Professional\VC\Tools\MSVC\14.44.35207\include\xmemory
; File C:\Program Files\Microsoft Visual Studio\2022\Professional\VC\Tools\MSVC\14.44.35207\include\vector
; File C:\Program Files\Microsoft Visual Studio\2022\Professional\VC\Tools\MSVC\14.44.35207\include\xmemory
; File C:\Program Files\Microsoft Visual Studio\2022\Professional\VC\Tools\MSVC\14.44.35207\include\vector
; File C:\Program Files\Microsoft Visual Studio\2022\Professional\VC\Tools\MSVC\14.44.35207\include\xmemory
; File C:\Program Files\Microsoft Visual Studio\2022\Professional\VC\Tools\MSVC\14.44.35207\include\vector
; File C:\Program Files\Microsoft Visual Studio\2022\Professional\VC\Tools\MSVC\14.44.35207\include\xmemory
; File C:\Program Files\Microsoft Visual Studio\2022\Professional\VC\Tools\MSVC\14.44.35207\include\vector
; File C:\Program Files\Microsoft Visual Studio\2022\Professional\VC\Tools\MSVC\14.44.35207\include\xmemory
; File C:\Program Files\Microsoft Visual Studio\2022\Professional\VC\Tools\MSVC\14.44.35207\include\vector
; File C:\Program Files\Microsoft Visual Studio\2022\Professional\VC\Tools\MSVC\14.44.35207\include\xmemory
; File C:\Program Files\Microsoft Visual Studio\2022\Professional\VC\Tools\MSVC\14.44.35207\include\vector
; File C:\Program Files\Microsoft Visual Studio\2022\Professional\VC\Tools\MSVC\14.44.35207\include\xmemory
; File C:\Program Files\Microsoft Visual Studio\2022\Professional\VC\Tools\MSVC\14.44.35207\include\vector
; File C:\Program Files\Microsoft Visual Studio\2022\Professional\VC\Tools\MSVC\14.44.35207\include\xmemory
; File C:\Program Files\Microsoft Visual Studio\2022\Professional\VC\Tools\MSVC\14.44.35207\include\vector
; File C:\Program Files\Microsoft Visual Studio\2022\Professional\VC\Tools\MSVC\14.44.35207\include\xmemory
; File C:\Program Files\Microsoft Visual Studio\2022\Professional\VC\Tools\MSVC\14.44.35207\include\vector
;	COMDAT ??$_Emplace_reallocate@ABU_RANGDA_POS@@@?$vector@U_RANGDA_POS@@V?$allocator@U_RANGDA_POS@@@std@@@std@@AAEPAU_RANGDA_POS@@QAU2@ABU2@@Z
_TEXT	SEGMENT
__Newsize$1$ = -12					; size = 4
$T1 = -8						; size = 4
tv710 = -4						; size = 4
__Whereptr$ = 8						; size = 4
_<_Val_0>$ = 12						; size = 4
??$_Emplace_reallocate@ABU_RANGDA_POS@@@?$vector@U_RANGDA_POS@@V?$allocator@U_RANGDA_POS@@@std@@@std@@AAEPAU_RANGDA_POS@@QAU2@ABU2@@Z PROC ; std::vector<_RANGDA_POS,std::allocator<_RANGDA_POS> >::_Emplace_reallocate<_RANGDA_POS const &>, COMDAT
; _this$ = ecx

; 875  :     _CONSTEXPR20 pointer _Emplace_reallocate(const pointer _Whereptr, _Valty&&... _Val) {

  00000	55		 push	 ebp
  00001	8b ec		 mov	 ebp, esp
  00003	83 ec 0c	 sub	 esp, 12			; 0000000cH
  00006	53		 push	 ebx

; 876  :         // reallocate and insert by perfectly forwarding _Val at _Whereptr
; 877  :         _Alty& _Al        = _Getal();
; 878  :         auto& _My_data    = _Mypair._Myval2;
; 879  :         pointer& _Myfirst = _My_data._Myfirst;
; 880  :         pointer& _Mylast  = _My_data._Mylast;
; 881  : 
; 882  :         _STL_INTERNAL_CHECK(_Mylast == _My_data._Myend); // check that we have no unused capacity
; 883  : 
; 884  :         const auto _Whereoff = static_cast<size_type>(_Whereptr - _Myfirst);

  00007	8b 5d 08	 mov	 ebx, DWORD PTR __Whereptr$[ebp]
  0000a	56		 push	 esi
  0000b	8b f1		 mov	 esi, ecx
  0000d	57		 push	 edi
  0000e	8b 0e		 mov	 ecx, DWORD PTR [esi]
  00010	2b d9		 sub	 ebx, ecx

; 885  :         const auto _Oldsize  = static_cast<size_type>(_Mylast - _Myfirst);

  00012	8b 46 04	 mov	 eax, DWORD PTR [esi+4]
  00015	2b c1		 sub	 eax, ecx
  00017	c1 f8 04	 sar	 eax, 4

; 886  : 
; 887  :         if (_Oldsize == max_size()) {

  0001a	3d ff ff ff 0f	 cmp	 eax, 268435455		; 0fffffffH
  0001f	0f 84 18 01 00
	00		 je	 $LN119@Emplace_re

; 1924 :         return static_cast<size_type>(_My_data._Myend - _My_data._Myfirst);

  00025	8b 7e 08	 mov	 edi, DWORD PTR [esi+8]

; 889  :         }
; 890  : 
; 891  :         const size_type _Newsize = _Oldsize + 1;

  00028	8d 50 01	 lea	 edx, DWORD PTR [eax+1]

; 1924 :         return static_cast<size_type>(_My_data._Myend - _My_data._Myfirst);

  0002b	2b f9		 sub	 edi, ecx

; 889  :         }
; 890  : 
; 891  :         const size_type _Newsize = _Oldsize + 1;

  0002d	89 55 f4	 mov	 DWORD PTR __Newsize$1$[ebp], edx

; 1924 :         return static_cast<size_type>(_My_data._Myend - _My_data._Myfirst);

  00030	c1 ff 04	 sar	 edi, 4

; 2011 :         if (_Oldcapacity > _Max - _Oldcapacity / 2) {

  00033	b8 ff ff ff 0f	 mov	 eax, 268435455		; 0fffffffH
  00038	8b cf		 mov	 ecx, edi
  0003a	d1 e9		 shr	 ecx, 1
  0003c	2b c1		 sub	 eax, ecx
  0003e	3b f8		 cmp	 edi, eax
  00040	76 14		 jbe	 SHORT $LN8@Emplace_re

; 2012 :             return _Max; // geometric growth would overflow

  00042	b8 f0 ff ff ff	 mov	 eax, -16		; fffffff0H
  00047	c7 45 f8 f0 ff
	ff ff		 mov	 DWORD PTR $T1[ebp], -16	; fffffff0H
; File C:\Program Files\Microsoft Visual Studio\2022\Professional\VC\Tools\MSVC\14.44.35207\include\xmemory

; 253  :             return _Allocate_manually_vector_aligned<_Traits>(_Bytes);

  0004e	50		 push	 eax
  0004f	e8 00 00 00 00	 call	 ??$_Allocate_manually_vector_aligned@U_Default_allocate_traits@std@@@std@@YAPAXI@Z ; std::_Allocate_manually_vector_aligned<std::_Default_allocate_traits>
  00054	eb 3b		 jmp	 SHORT $LN117@Emplace_re
$LN8@Emplace_re:
; File C:\Program Files\Microsoft Visual Studio\2022\Professional\VC\Tools\MSVC\14.44.35207\include\vector

; 2015 :         const size_type _Geometric = _Oldcapacity + _Oldcapacity / 2;

  00056	8d 04 39	 lea	 eax, DWORD PTR [ecx+edi]
; File C:\Program Files\Microsoft Visual Studio\2022\Professional\VC\Tools\MSVC\14.44.35207\include\xmemory

; 117  :         if (_Count > _Max_possible) {

  00059	8b ca		 mov	 ecx, edx
  0005b	3b c2		 cmp	 eax, edx
  0005d	0f 43 c8	 cmovae	 ecx, eax
  00060	81 f9 ff ff ff
	0f		 cmp	 ecx, 268435455		; 0fffffffH
  00066	0f 87 d6 00 00
	00		 ja	 $LN120@Emplace_re

; 119  :         }
; 120  :     }
; 121  : 
; 122  :     return _Count * _Ty_size;

  0006c	c1 e1 04	 shl	 ecx, 4

; 990  :         return static_cast<_Ty*>(_STD _Allocate<_New_alignof<_Ty>>(_Get_size_of_n<sizeof(_Ty)>(_Count)));

  0006f	8b c1		 mov	 eax, ecx

; 122  :     return _Count * _Ty_size;

  00071	89 4d f8	 mov	 DWORD PTR $T1[ebp], ecx

; 227  :     if (_Bytes == 0) {

  00074	85 c0		 test	 eax, eax
  00076	75 04		 jne	 SHORT $LN23@Emplace_re

; 228  :         return nullptr;

  00078	33 ff		 xor	 edi, edi
  0007a	eb 1a		 jmp	 SHORT $LN22@Emplace_re
$LN23@Emplace_re:

; 229  :     }
; 230  : 
; 231  : #if _HAS_CXX20 // TRANSITION, GH-1532
; 232  :     if (_STD is_constant_evaluated()) {
; 233  :         return _Traits::_Allocate(_Bytes);
; 234  :     }
; 235  : #endif // _HAS_CXX20
; 236  : 
; 237  : #ifdef __cpp_aligned_new
; 238  :     if constexpr (_Align > __STDCPP_DEFAULT_NEW_ALIGNMENT__) {
; 239  :         size_t _Passed_align = _Align;
; 240  : #if defined(_M_IX86) || defined(_M_X64)
; 241  :         if (_Bytes >= _Big_allocation_threshold) {
; 242  :             // boost the alignment of big allocations to help autovectorization
; 243  :             _Passed_align = (_STD max)(_Align, _Big_allocation_alignment);
; 244  :         }
; 245  : #endif // defined(_M_IX86) || defined(_M_X64)
; 246  :         return _Traits::_Allocate_aligned(_Bytes, _Passed_align);
; 247  :     } else
; 248  : #endif // defined(__cpp_aligned_new)
; 249  :     {
; 250  : #if defined(_M_IX86) || defined(_M_X64)
; 251  :         if (_Bytes >= _Big_allocation_threshold) {

  0007c	3d 00 10 00 00	 cmp	 eax, 4096		; 00001000H
  00081	72 08		 jb	 SHORT $LN24@Emplace_re

; 253  :             return _Allocate_manually_vector_aligned<_Traits>(_Bytes);

  00083	50		 push	 eax
  00084	e8 00 00 00 00	 call	 ??$_Allocate_manually_vector_aligned@U_Default_allocate_traits@std@@@std@@YAPAXI@Z ; std::_Allocate_manually_vector_aligned<std::_Default_allocate_traits>
  00089	eb 06		 jmp	 SHORT $LN117@Emplace_re
$LN24@Emplace_re:

; 136  :         return ::operator new(_Bytes);

  0008b	50		 push	 eax
  0008c	e8 00 00 00 00	 call	 ??2@YAPAXI@Z		; operator new
$LN117@Emplace_re:
; File C:\Program Files\Microsoft Visual Studio\2022\Professional\VC\Tools\MSVC\14.44.35207\include\vector

; 900  :         _Alty_traits::construct(_Al, _STD _Unfancy(_Newvec + _Whereoff), _STD forward<_Valty>(_Val)...);

  00091	8b f8		 mov	 edi, eax
  00093	83 c4 04	 add	 esp, 4
$LN22@Emplace_re:
; File C:\Program Files\Microsoft Visual Studio\2022\Professional\VC\Tools\MSVC\14.44.35207\include\xmemory

; 732  :         ::new (const_cast<void*>(static_cast<const volatile void*>(_Ptr))) _Objty(_STD forward<_Types>(_Args)...);

  00096	8b 45 0c	 mov	 eax, DWORD PTR _<_Val_0>$[ebp]
; File C:\Program Files\Microsoft Visual Studio\2022\Professional\VC\Tools\MSVC\14.44.35207\include\vector

; 900  :         _Alty_traits::construct(_Al, _STD _Unfancy(_Newvec + _Whereoff), _STD forward<_Valty>(_Val)...);

  00099	83 e3 f0	 and	 ebx, -16		; fffffff0H
  0009c	8d 0c 3b	 lea	 ecx, DWORD PTR [ebx+edi]

; 903  :         if (_Whereptr == _Mylast) { // at back, provide strong guarantee

  0009f	8b 5d 08	 mov	 ebx, DWORD PTR __Whereptr$[ebp]
  000a2	89 4d fc	 mov	 DWORD PTR tv710[ebp], ecx
; File C:\Program Files\Microsoft Visual Studio\2022\Professional\VC\Tools\MSVC\14.44.35207\include\xmemory

; 732  :         ::new (const_cast<void*>(static_cast<const volatile void*>(_Ptr))) _Objty(_STD forward<_Types>(_Args)...);

  000a5	0f 10 00	 movups	 xmm0, XMMWORD PTR [eax]
  000a8	0f 11 01	 movups	 XMMWORD PTR [ecx], xmm0
; File C:\Program Files\Microsoft Visual Studio\2022\Professional\VC\Tools\MSVC\14.44.35207\include\vector

; 903  :         if (_Whereptr == _Mylast) { // at back, provide strong guarantee

  000ab	8b 4e 04	 mov	 ecx, DWORD PTR [esi+4]
  000ae	8b 06		 mov	 eax, DWORD PTR [esi]
  000b0	3b d9		 cmp	 ebx, ecx
  000b2	75 07		 jne	 SHORT $LN3@Emplace_re

; 909  :         } else { // provide basic guarantee

  000b4	8b 5d fc	 mov	 ebx, DWORD PTR tv710[ebp]
; File C:\Program Files\Microsoft Visual Studio\2022\Professional\VC\Tools\MSVC\14.44.35207\include\xmemory

; 1992 :             _STD _Copy_memmove(_UFirst, _ULast, _STD _Unfancy(_Dest));

  000b7	8b d7		 mov	 edx, edi
; File C:\Program Files\Microsoft Visual Studio\2022\Professional\VC\Tools\MSVC\14.44.35207\include\vector

; 909  :         } else { // provide basic guarantee

  000b9	eb 16		 jmp	 SHORT $LN58@Emplace_re
$LN3@Emplace_re:
; File C:\Program Files\Microsoft Visual Studio\2022\Professional\VC\Tools\MSVC\14.44.35207\include\xmemory

; 1992 :             _STD _Copy_memmove(_UFirst, _ULast, _STD _Unfancy(_Dest));

  000bb	57		 push	 edi
  000bc	53		 push	 ebx
  000bd	50		 push	 eax
  000be	e8 00 00 00 00	 call	 ??$_Copy_memmove@PAU_RANGDA_POS@@PAU1@@std@@YAPAU_RANGDA_POS@@PAU1@00@Z ; std::_Copy_memmove<_RANGDA_POS *,_RANGDA_POS *>
  000c3	8b 4e 04	 mov	 ecx, DWORD PTR [esi+4]
  000c6	8b c3		 mov	 eax, ebx
; File C:\Program Files\Microsoft Visual Studio\2022\Professional\VC\Tools\MSVC\14.44.35207\include\vector

; 912  :             _STD _Uninitialized_move(_Whereptr, _Mylast, _Newvec + _Whereoff + 1, _Al);

  000c8	8b 5d fc	 mov	 ebx, DWORD PTR tv710[ebp]
; File C:\Program Files\Microsoft Visual Studio\2022\Professional\VC\Tools\MSVC\14.44.35207\include\xmemory

; 1992 :             _STD _Copy_memmove(_UFirst, _ULast, _STD _Unfancy(_Dest));

  000cb	83 c4 0c	 add	 esp, 12			; 0000000cH
; File C:\Program Files\Microsoft Visual Studio\2022\Professional\VC\Tools\MSVC\14.44.35207\include\vector

; 912  :             _STD _Uninitialized_move(_Whereptr, _Mylast, _Newvec + _Whereoff + 1, _Al);

  000ce	8d 53 10	 lea	 edx, DWORD PTR [ebx+16]
$LN58@Emplace_re:

; 913  :         }
; 914  : 
; 915  :         _Guard._New_begin = nullptr;

  000d1	52		 push	 edx
  000d2	51		 push	 ecx
  000d3	50		 push	 eax
  000d4	e8 00 00 00 00	 call	 ??$_Copy_memmove@PAU_RANGDA_POS@@PAU1@@std@@YAPAU_RANGDA_POS@@PAU1@00@Z ; std::_Copy_memmove<_RANGDA_POS *,_RANGDA_POS *>

; 2069 :         if (_Myfirst) { // destroy and deallocate old array

  000d9	8b 06		 mov	 eax, DWORD PTR [esi]

; 913  :         }
; 914  : 
; 915  :         _Guard._New_begin = nullptr;

  000db	83 c4 0c	 add	 esp, 12			; 0000000cH

; 2069 :         if (_Myfirst) { // destroy and deallocate old array

  000de	85 c0		 test	 eax, eax
  000e0	74 2c		 je	 SHORT $LN80@Emplace_re

; 2070 :             _STD _Destroy_range(_Myfirst, _Mylast, _Al);
; 2071 :             _ASAN_VECTOR_REMOVE;
; 2072 :             _Al.deallocate(_Myfirst, static_cast<size_type>(_Myend - _Myfirst));

  000e2	8b 4e 08	 mov	 ecx, DWORD PTR [esi+8]
  000e5	2b c8		 sub	 ecx, eax
; File C:\Program Files\Microsoft Visual Studio\2022\Professional\VC\Tools\MSVC\14.44.35207\include\xmemory

; 985  :         _STD _Deallocate<_New_alignof<_Ty>>(_Ptr, sizeof(_Ty) * _Count);

  000e7	83 e1 f0	 and	 ecx, -16		; fffffff0H

; 284  :         if (_Bytes >= _Big_allocation_threshold) {

  000ea	81 f9 00 10 00
	00		 cmp	 ecx, 4096		; 00001000H
  000f0	72 12		 jb	 SHORT $LN85@Emplace_re

; 205  :     const uintptr_t _Ptr_container   = _Ptr_user[-1];

  000f2	8b 50 fc	 mov	 edx, DWORD PTR [eax-4]
  000f5	83 c1 23	 add	 ecx, 35			; 00000023H

; 206  : 
; 207  :     // If the following asserts, it likely means that we are performing
; 208  :     // an aligned delete on memory coming from an unaligned allocation.
; 209  :     _STL_ASSERT(_Ptr_user[-2] == _Big_allocation_sentinel, "invalid argument");
; 210  : 
; 211  :     // Extra paranoia on aligned allocation/deallocation; ensure _Ptr_container is
; 212  :     // in range [_Min_back_shift, _Non_user_size]
; 213  : #ifdef _DEBUG
; 214  :     constexpr uintptr_t _Min_back_shift = 2 * sizeof(void*);
; 215  : #else // ^^^ defined(_DEBUG) / !defined(_DEBUG) vvv
; 216  :     constexpr uintptr_t _Min_back_shift = sizeof(void*);
; 217  : #endif // ^^^ !defined(_DEBUG) ^^^
; 218  :     const uintptr_t _Back_shift = reinterpret_cast<uintptr_t>(_Ptr) - _Ptr_container;

  000f8	2b c2		 sub	 eax, edx

; 219  :     _STL_VERIFY(_Back_shift >= _Min_back_shift && _Back_shift <= _Non_user_size, "invalid argument");

  000fa	83 c0 fc	 add	 eax, -4			; fffffffcH
  000fd	83 f8 1f	 cmp	 eax, 31			; 0000001fH
  00100	77 2c		 ja	 SHORT $LN84@Emplace_re

; 220  :     _Ptr = reinterpret_cast<void*>(_Ptr_container);

  00102	8b c2		 mov	 eax, edx
$LN85@Emplace_re:

; 289  :         ::operator delete(_Ptr, _Bytes);

  00104	51		 push	 ecx
  00105	50		 push	 eax
  00106	e8 00 00 00 00	 call	 ??3@YAXPAXI@Z		; operator delete
  0010b	83 c4 08	 add	 esp, 8
$LN80@Emplace_re:
; File C:\Program Files\Microsoft Visual Studio\2022\Professional\VC\Tools\MSVC\14.44.35207\include\vector

; 2076 :         _Mylast  = _Newvec + _Newsize;

  0010e	8b 45 f4	 mov	 eax, DWORD PTR __Newsize$1$[ebp]

; 2077 :         _Myend   = _Newvec + _Newcapacity;

  00111	8b 4d f8	 mov	 ecx, DWORD PTR $T1[ebp]
  00114	c1 e0 04	 shl	 eax, 4
  00117	03 c7		 add	 eax, edi
  00119	89 3e		 mov	 DWORD PTR [esi], edi
  0011b	89 46 04	 mov	 DWORD PTR [esi+4], eax
  0011e	03 cf		 add	 ecx, edi

; 918  :     }

  00120	5f		 pop	 edi

; 2077 :         _Myend   = _Newvec + _Newcapacity;

  00121	89 4e 08	 mov	 DWORD PTR [esi+8], ecx

; 916  :         _Change_array(_Newvec, _Newsize, _Newcapacity);
; 917  :         return _Newvec + _Whereoff;

  00124	8b c3		 mov	 eax, ebx

; 918  :     }

  00126	5e		 pop	 esi
  00127	5b		 pop	 ebx
  00128	8b e5		 mov	 esp, ebp
  0012a	5d		 pop	 ebp
  0012b	c2 08 00	 ret	 8
$LN84@Emplace_re:
; File C:\Program Files\Microsoft Visual Studio\2022\Professional\VC\Tools\MSVC\14.44.35207\include\xmemory

; 219  :     _STL_VERIFY(_Back_shift >= _Min_back_shift && _Back_shift <= _Non_user_size, "invalid argument");

  0012e	6a 00		 push	 0
  00130	6a 00		 push	 0
  00132	6a 00		 push	 0
  00134	6a 00		 push	 0
  00136	6a 00		 push	 0
  00138	e8 00 00 00 00	 call	 __invoke_watson
$LN119@Emplace_re:
; File C:\Program Files\Microsoft Visual Studio\2022\Professional\VC\Tools\MSVC\14.44.35207\include\vector

; 888  :             _Xlength();

  0013d	e8 00 00 00 00	 call	 ?_Xlength@?$vector@U_RANGDA_POS@@V?$allocator@U_RANGDA_POS@@@std@@@std@@CAXXZ ; std::vector<_RANGDA_POS,std::allocator<_RANGDA_POS> >::_Xlength
$LN120@Emplace_re:
; File C:\Program Files\Microsoft Visual Studio\2022\Professional\VC\Tools\MSVC\14.44.35207\include\xmemory

; 118  :             _Throw_bad_array_new_length(); // multiply overflow

  00142	e8 00 00 00 00	 call	 ?_Throw_bad_array_new_length@std@@YAXXZ ; std::_Throw_bad_array_new_length
$LN116@Emplace_re:
  00147	cc		 int	 3
??$_Emplace_reallocate@ABU_RANGDA_POS@@@?$vector@U_RANGDA_POS@@V?$allocator@U_RANGDA_POS@@@std@@@std@@AAEPAU_RANGDA_POS@@QAU2@ABU2@@Z ENDP ; std::vector<_RANGDA_POS,std::allocator<_RANGDA_POS> >::_Emplace_reallocate<_RANGDA_POS const &>
_TEXT	ENDS
; Function compile flags: /Ogtp
; File C:\Program Files\Microsoft Visual Studio\2022\Professional\VC\Tools\MSVC\14.44.35207\include\vector
; File C:\Program Files\Microsoft Visual Studio\2022\Professional\VC\Tools\MSVC\14.44.35207\include\xmemory
; File C:\Program Files\Microsoft Visual Studio\2022\Professional\VC\Tools\MSVC\14.44.35207\include\vector
; File C:\Program Files\Microsoft Visual Studio\2022\Professional\VC\Tools\MSVC\14.44.35207\include\xmemory
; File C:\Program Files\Microsoft Visual Studio\2022\Professional\VC\Tools\MSVC\14.44.35207\include\vector
; File C:\Program Files\Microsoft Visual Studio\2022\Professional\VC\Tools\MSVC\14.44.35207\include\xmemory
; File C:\Program Files\Microsoft Visual Studio\2022\Professional\VC\Tools\MSVC\14.44.35207\include\vector
; File C:\Program Files\Microsoft Visual Studio\2022\Professional\VC\Tools\MSVC\14.44.35207\include\xmemory
; File C:\Program Files\Microsoft Visual Studio\2022\Professional\VC\Tools\MSVC\14.44.35207\include\vector
; File C:\Program Files\Microsoft Visual Studio\2022\Professional\VC\Tools\MSVC\14.44.35207\include\xmemory
; File C:\Program Files\Microsoft Visual Studio\2022\Professional\VC\Tools\MSVC\14.44.35207\include\vector
; File C:\Program Files\Microsoft Visual Studio\2022\Professional\VC\Tools\MSVC\14.44.35207\include\xmemory
; File C:\Program Files\Microsoft Visual Studio\2022\Professional\VC\Tools\MSVC\14.44.35207\include\vector
; File C:\Program Files\Microsoft Visual Studio\2022\Professional\VC\Tools\MSVC\14.44.35207\include\xmemory
; File C:\Program Files\Microsoft Visual Studio\2022\Professional\VC\Tools\MSVC\14.44.35207\include\vector
; File C:\Program Files\Microsoft Visual Studio\2022\Professional\VC\Tools\MSVC\14.44.35207\include\xmemory
; File C:\Program Files\Microsoft Visual Studio\2022\Professional\VC\Tools\MSVC\14.44.35207\include\vector
;	COMDAT ??$_Emplace_reallocate@ABQAVCRangda@@@?$vector@PAVCRangda@@V?$allocator@PAVCRangda@@@std@@@std@@AAEPAPAVCRangda@@QAPAV2@ABQAV2@@Z
_TEXT	SEGMENT
__Newsize$1$ = -12					; size = 4
tv652 = -8						; size = 4
tv650 = -4						; size = 4
__Whereptr$ = 8						; size = 4
_<_Val_0>$ = 12						; size = 4
??$_Emplace_reallocate@ABQAVCRangda@@@?$vector@PAVCRangda@@V?$allocator@PAVCRangda@@@std@@@std@@AAEPAPAVCRangda@@QAPAV2@ABQAV2@@Z PROC ; std::vector<CRangda *,std::allocator<CRangda *> >::_Emplace_reallocate<CRangda * const &>, COMDAT
; _this$ = ecx

; 875  :     _CONSTEXPR20 pointer _Emplace_reallocate(const pointer _Whereptr, _Valty&&... _Val) {

  00000	55		 push	 ebp
  00001	8b ec		 mov	 ebp, esp
  00003	83 ec 0c	 sub	 esp, 12			; 0000000cH
  00006	53		 push	 ebx

; 876  :         // reallocate and insert by perfectly forwarding _Val at _Whereptr
; 877  :         _Alty& _Al        = _Getal();
; 878  :         auto& _My_data    = _Mypair._Myval2;
; 879  :         pointer& _Myfirst = _My_data._Myfirst;
; 880  :         pointer& _Mylast  = _My_data._Mylast;
; 881  : 
; 882  :         _STL_INTERNAL_CHECK(_Mylast == _My_data._Myend); // check that we have no unused capacity
; 883  : 
; 884  :         const auto _Whereoff = static_cast<size_type>(_Whereptr - _Myfirst);

  00007	8b 5d 08	 mov	 ebx, DWORD PTR __Whereptr$[ebp]
  0000a	56		 push	 esi
  0000b	8b f1		 mov	 esi, ecx
  0000d	57		 push	 edi
  0000e	8b 0e		 mov	 ecx, DWORD PTR [esi]
  00010	2b d9		 sub	 ebx, ecx

; 885  :         const auto _Oldsize  = static_cast<size_type>(_Mylast - _Myfirst);

  00012	8b 46 04	 mov	 eax, DWORD PTR [esi+4]
  00015	2b c1		 sub	 eax, ecx
  00017	c1 fb 02	 sar	 ebx, 2
  0001a	c1 f8 02	 sar	 eax, 2

; 886  : 
; 887  :         if (_Oldsize == max_size()) {

  0001d	3d ff ff ff 3f	 cmp	 eax, 1073741823		; 3fffffffH
  00022	0f 84 13 01 00
	00		 je	 $LN111@Emplace_re

; 1924 :         return static_cast<size_type>(_My_data._Myend - _My_data._Myfirst);

  00028	8b 56 08	 mov	 edx, DWORD PTR [esi+8]

; 889  :         }
; 890  : 
; 891  :         const size_type _Newsize = _Oldsize + 1;

  0002b	8d 78 01	 lea	 edi, DWORD PTR [eax+1]

; 1924 :         return static_cast<size_type>(_My_data._Myend - _My_data._Myfirst);

  0002e	2b d1		 sub	 edx, ecx

; 889  :         }
; 890  : 
; 891  :         const size_type _Newsize = _Oldsize + 1;

  00030	89 7d f4	 mov	 DWORD PTR __Newsize$1$[ebp], edi

; 1924 :         return static_cast<size_type>(_My_data._Myend - _My_data._Myfirst);

  00033	c1 fa 02	 sar	 edx, 2

; 2011 :         if (_Oldcapacity > _Max - _Oldcapacity / 2) {

  00036	b8 ff ff ff 3f	 mov	 eax, 1073741823		; 3fffffffH
  0003b	8b ca		 mov	 ecx, edx
  0003d	d1 e9		 shr	 ecx, 1
  0003f	2b c1		 sub	 eax, ecx
  00041	3b d0		 cmp	 edx, eax
  00043	76 14		 jbe	 SHORT $LN8@Emplace_re

; 2012 :             return _Max; // geometric growth would overflow

  00045	b8 fc ff ff ff	 mov	 eax, -4			; fffffffcH
  0004a	c7 45 f8 fc ff
	ff ff		 mov	 DWORD PTR tv652[ebp], -4 ; fffffffcH
; File C:\Program Files\Microsoft Visual Studio\2022\Professional\VC\Tools\MSVC\14.44.35207\include\xmemory

; 253  :             return _Allocate_manually_vector_aligned<_Traits>(_Bytes);

  00051	50		 push	 eax
  00052	e8 00 00 00 00	 call	 ??$_Allocate_manually_vector_aligned@U_Default_allocate_traits@std@@@std@@YAPAXI@Z ; std::_Allocate_manually_vector_aligned<std::_Default_allocate_traits>
  00057	eb 3d		 jmp	 SHORT $LN109@Emplace_re
$LN8@Emplace_re:
; File C:\Program Files\Microsoft Visual Studio\2022\Professional\VC\Tools\MSVC\14.44.35207\include\vector

; 2015 :         const size_type _Geometric = _Oldcapacity + _Oldcapacity / 2;

  00059	8d 04 11	 lea	 eax, DWORD PTR [ecx+edx]
; File C:\Program Files\Microsoft Visual Studio\2022\Professional\VC\Tools\MSVC\14.44.35207\include\xmemory

; 117  :         if (_Count > _Max_possible) {

  0005c	8b cf		 mov	 ecx, edi
  0005e	3b c7		 cmp	 eax, edi
  00060	0f 43 c8	 cmovae	 ecx, eax
  00063	81 f9 ff ff ff
	3f		 cmp	 ecx, 1073741823		; 3fffffffH
  00069	0f 87 d1 00 00
	00		 ja	 $LN112@Emplace_re

; 119  :         }
; 120  :     }
; 121  : 
; 122  :     return _Count * _Ty_size;

  0006f	8d 04 8d 00 00
	00 00		 lea	 eax, DWORD PTR [ecx*4]
  00076	89 45 f8	 mov	 DWORD PTR tv652[ebp], eax

; 227  :     if (_Bytes == 0) {

  00079	85 c0		 test	 eax, eax
  0007b	75 04		 jne	 SHORT $LN23@Emplace_re

; 228  :         return nullptr;

  0007d	33 ff		 xor	 edi, edi
  0007f	eb 1a		 jmp	 SHORT $LN22@Emplace_re
$LN23@Emplace_re:

; 229  :     }
; 230  : 
; 231  : #if _HAS_CXX20 // TRANSITION, GH-1532
; 232  :     if (_STD is_constant_evaluated()) {
; 233  :         return _Traits::_Allocate(_Bytes);
; 234  :     }
; 235  : #endif // _HAS_CXX20
; 236  : 
; 237  : #ifdef __cpp_aligned_new
; 238  :     if constexpr (_Align > __STDCPP_DEFAULT_NEW_ALIGNMENT__) {
; 239  :         size_t _Passed_align = _Align;
; 240  : #if defined(_M_IX86) || defined(_M_X64)
; 241  :         if (_Bytes >= _Big_allocation_threshold) {
; 242  :             // boost the alignment of big allocations to help autovectorization
; 243  :             _Passed_align = (_STD max)(_Align, _Big_allocation_alignment);
; 244  :         }
; 245  : #endif // defined(_M_IX86) || defined(_M_X64)
; 246  :         return _Traits::_Allocate_aligned(_Bytes, _Passed_align);
; 247  :     } else
; 248  : #endif // defined(__cpp_aligned_new)
; 249  :     {
; 250  : #if defined(_M_IX86) || defined(_M_X64)
; 251  :         if (_Bytes >= _Big_allocation_threshold) {

  00081	3d 00 10 00 00	 cmp	 eax, 4096		; 00001000H
  00086	72 08		 jb	 SHORT $LN24@Emplace_re

; 253  :             return _Allocate_manually_vector_aligned<_Traits>(_Bytes);

  00088	50		 push	 eax
  00089	e8 00 00 00 00	 call	 ??$_Allocate_manually_vector_aligned@U_Default_allocate_traits@std@@@std@@YAPAXI@Z ; std::_Allocate_manually_vector_aligned<std::_Default_allocate_traits>
  0008e	eb 06		 jmp	 SHORT $LN109@Emplace_re
$LN24@Emplace_re:

; 136  :         return ::operator new(_Bytes);

  00090	50		 push	 eax
  00091	e8 00 00 00 00	 call	 ??2@YAPAXI@Z		; operator new
$LN109@Emplace_re:
; File C:\Program Files\Microsoft Visual Studio\2022\Professional\VC\Tools\MSVC\14.44.35207\include\vector

; 900  :         _Alty_traits::construct(_Al, _STD _Unfancy(_Newvec + _Whereoff), _STD forward<_Valty>(_Val)...);

  00096	8b f8		 mov	 edi, eax
  00098	83 c4 04	 add	 esp, 4
$LN22@Emplace_re:
  0009b	8b 45 0c	 mov	 eax, DWORD PTR _<_Val_0>$[ebp]
  0009e	8d 0c 9f	 lea	 ecx, DWORD PTR [edi+ebx*4]

; 901  :         _Constructed_first = _Newvec + _Whereoff;
; 902  : 
; 903  :         if (_Whereptr == _Mylast) { // at back, provide strong guarantee

  000a1	8b 5d 08	 mov	 ebx, DWORD PTR __Whereptr$[ebp]
  000a4	89 4d fc	 mov	 DWORD PTR tv650[ebp], ecx
  000a7	8b 00		 mov	 eax, DWORD PTR [eax]
  000a9	89 01		 mov	 DWORD PTR [ecx], eax
  000ab	8b 46 04	 mov	 eax, DWORD PTR [esi+4]
  000ae	8b 0e		 mov	 ecx, DWORD PTR [esi]
  000b0	3b d8		 cmp	 ebx, eax
  000b2	75 07		 jne	 SHORT $LN3@Emplace_re

; 909  :         } else { // provide basic guarantee

  000b4	8b 5d fc	 mov	 ebx, DWORD PTR tv650[ebp]
; File C:\Program Files\Microsoft Visual Studio\2022\Professional\VC\Tools\MSVC\14.44.35207\include\xmemory

; 1992 :             _STD _Copy_memmove(_UFirst, _ULast, _STD _Unfancy(_Dest));

  000b7	8b d7		 mov	 edx, edi
; File C:\Program Files\Microsoft Visual Studio\2022\Professional\VC\Tools\MSVC\14.44.35207\include\vector

; 909  :         } else { // provide basic guarantee

  000b9	eb 16		 jmp	 SHORT $LN52@Emplace_re
$LN3@Emplace_re:
; File C:\Program Files\Microsoft Visual Studio\2022\Professional\VC\Tools\MSVC\14.44.35207\include\xmemory

; 1992 :             _STD _Copy_memmove(_UFirst, _ULast, _STD _Unfancy(_Dest));

  000bb	57		 push	 edi
  000bc	53		 push	 ebx
  000bd	51		 push	 ecx
  000be	e8 00 00 00 00	 call	 ??$_Copy_memmove@PAPAVCRangda@@PAPAV1@@std@@YAPAPAVCRangda@@PAPAV1@00@Z ; std::_Copy_memmove<CRangda * *,CRangda * *>
  000c3	8b 46 04	 mov	 eax, DWORD PTR [esi+4]
  000c6	8b cb		 mov	 ecx, ebx
; File C:\Program Files\Microsoft Visual Studio\2022\Professional\VC\Tools\MSVC\14.44.35207\include\vector

; 912  :             _STD _Uninitialized_move(_Whereptr, _Mylast, _Newvec + _Whereoff + 1, _Al);

  000c8	8b 5d fc	 mov	 ebx, DWORD PTR tv650[ebp]
; File C:\Program Files\Microsoft Visual Studio\2022\Professional\VC\Tools\MSVC\14.44.35207\include\xmemory

; 1992 :             _STD _Copy_memmove(_UFirst, _ULast, _STD _Unfancy(_Dest));

  000cb	83 c4 0c	 add	 esp, 12			; 0000000cH
; File C:\Program Files\Microsoft Visual Studio\2022\Professional\VC\Tools\MSVC\14.44.35207\include\vector

; 912  :             _STD _Uninitialized_move(_Whereptr, _Mylast, _Newvec + _Whereoff + 1, _Al);

  000ce	8d 53 04	 lea	 edx, DWORD PTR [ebx+4]
$LN52@Emplace_re:

; 913  :         }
; 914  : 
; 915  :         _Guard._New_begin = nullptr;

  000d1	52		 push	 edx
  000d2	50		 push	 eax
  000d3	51		 push	 ecx
  000d4	e8 00 00 00 00	 call	 ??$_Copy_memmove@PAPAVCRangda@@PAPAV1@@std@@YAPAPAVCRangda@@PAPAV1@00@Z ; std::_Copy_memmove<CRangda * *,CRangda * *>

; 2069 :         if (_Myfirst) { // destroy and deallocate old array

  000d9	8b 06		 mov	 eax, DWORD PTR [esi]

; 913  :         }
; 914  : 
; 915  :         _Guard._New_begin = nullptr;

  000db	83 c4 0c	 add	 esp, 12			; 0000000cH

; 2069 :         if (_Myfirst) { // destroy and deallocate old array

  000de	85 c0		 test	 eax, eax
  000e0	74 2c		 je	 SHORT $LN72@Emplace_re

; 2070 :             _STD _Destroy_range(_Myfirst, _Mylast, _Al);
; 2071 :             _ASAN_VECTOR_REMOVE;
; 2072 :             _Al.deallocate(_Myfirst, static_cast<size_type>(_Myend - _Myfirst));

  000e2	8b 4e 08	 mov	 ecx, DWORD PTR [esi+8]
  000e5	2b c8		 sub	 ecx, eax
; File C:\Program Files\Microsoft Visual Studio\2022\Professional\VC\Tools\MSVC\14.44.35207\include\xmemory

; 985  :         _STD _Deallocate<_New_alignof<_Ty>>(_Ptr, sizeof(_Ty) * _Count);

  000e7	83 e1 fc	 and	 ecx, -4			; fffffffcH

; 284  :         if (_Bytes >= _Big_allocation_threshold) {

  000ea	81 f9 00 10 00
	00		 cmp	 ecx, 4096		; 00001000H
  000f0	72 12		 jb	 SHORT $LN77@Emplace_re

; 205  :     const uintptr_t _Ptr_container   = _Ptr_user[-1];

  000f2	8b 50 fc	 mov	 edx, DWORD PTR [eax-4]
  000f5	83 c1 23	 add	 ecx, 35			; 00000023H

; 206  : 
; 207  :     // If the following asserts, it likely means that we are performing
; 208  :     // an aligned delete on memory coming from an unaligned allocation.
; 209  :     _STL_ASSERT(_Ptr_user[-2] == _Big_allocation_sentinel, "invalid argument");
; 210  : 
; 211  :     // Extra paranoia on aligned allocation/deallocation; ensure _Ptr_container is
; 212  :     // in range [_Min_back_shift, _Non_user_size]
; 213  : #ifdef _DEBUG
; 214  :     constexpr uintptr_t _Min_back_shift = 2 * sizeof(void*);
; 215  : #else // ^^^ defined(_DEBUG) / !defined(_DEBUG) vvv
; 216  :     constexpr uintptr_t _Min_back_shift = sizeof(void*);
; 217  : #endif // ^^^ !defined(_DEBUG) ^^^
; 218  :     const uintptr_t _Back_shift = reinterpret_cast<uintptr_t>(_Ptr) - _Ptr_container;

  000f8	2b c2		 sub	 eax, edx

; 219  :     _STL_VERIFY(_Back_shift >= _Min_back_shift && _Back_shift <= _Non_user_size, "invalid argument");

  000fa	83 c0 fc	 add	 eax, -4			; fffffffcH
  000fd	83 f8 1f	 cmp	 eax, 31			; 0000001fH
  00100	77 2a		 ja	 SHORT $LN76@Emplace_re

; 220  :     _Ptr = reinterpret_cast<void*>(_Ptr_container);

  00102	8b c2		 mov	 eax, edx
$LN77@Emplace_re:

; 289  :         ::operator delete(_Ptr, _Bytes);

  00104	51		 push	 ecx
  00105	50		 push	 eax
  00106	e8 00 00 00 00	 call	 ??3@YAXPAXI@Z		; operator delete
  0010b	83 c4 08	 add	 esp, 8
$LN72@Emplace_re:
; File C:\Program Files\Microsoft Visual Studio\2022\Professional\VC\Tools\MSVC\14.44.35207\include\vector

; 2076 :         _Mylast  = _Newvec + _Newsize;

  0010e	8b 45 f4	 mov	 eax, DWORD PTR __Newsize$1$[ebp]
  00111	89 3e		 mov	 DWORD PTR [esi], edi
  00113	8d 0c 87	 lea	 ecx, DWORD PTR [edi+eax*4]

; 916  :         _Change_array(_Newvec, _Newsize, _Newcapacity);
; 917  :         return _Newvec + _Whereoff;

  00116	8b c3		 mov	 eax, ebx

; 2076 :         _Mylast  = _Newvec + _Newsize;

  00118	89 4e 04	 mov	 DWORD PTR [esi+4], ecx

; 2077 :         _Myend   = _Newvec + _Newcapacity;

  0011b	8b 4d f8	 mov	 ecx, DWORD PTR tv652[ebp]
  0011e	03 cf		 add	 ecx, edi

; 918  :     }

  00120	5f		 pop	 edi

; 2077 :         _Myend   = _Newvec + _Newcapacity;

  00121	89 4e 08	 mov	 DWORD PTR [esi+8], ecx

; 918  :     }

  00124	5e		 pop	 esi
  00125	5b		 pop	 ebx
  00126	8b e5		 mov	 esp, ebp
  00128	5d		 pop	 ebp
  00129	c2 08 00	 ret	 8
$LN76@Emplace_re:
; File C:\Program Files\Microsoft Visual Studio\2022\Professional\VC\Tools\MSVC\14.44.35207\include\xmemory

; 219  :     _STL_VERIFY(_Back_shift >= _Min_back_shift && _Back_shift <= _Non_user_size, "invalid argument");

  0012c	6a 00		 push	 0
  0012e	6a 00		 push	 0
  00130	6a 00		 push	 0
  00132	6a 00		 push	 0
  00134	6a 00		 push	 0
  00136	e8 00 00 00 00	 call	 __invoke_watson
$LN111@Emplace_re:
; File C:\Program Files\Microsoft Visual Studio\2022\Professional\VC\Tools\MSVC\14.44.35207\include\vector

; 888  :             _Xlength();

  0013b	e8 00 00 00 00	 call	 ?_Xlength@?$vector@PAVCRangda@@V?$allocator@PAVCRangda@@@std@@@std@@CAXXZ ; std::vector<CRangda *,std::allocator<CRangda *> >::_Xlength
$LN112@Emplace_re:
; File C:\Program Files\Microsoft Visual Studio\2022\Professional\VC\Tools\MSVC\14.44.35207\include\xmemory

; 118  :             _Throw_bad_array_new_length(); // multiply overflow

  00140	e8 00 00 00 00	 call	 ?_Throw_bad_array_new_length@std@@YAXXZ ; std::_Throw_bad_array_new_length
$LN108@Emplace_re:
  00145	cc		 int	 3
??$_Emplace_reallocate@ABQAVCRangda@@@?$vector@PAVCRangda@@V?$allocator@PAVCRangda@@@std@@@std@@AAEPAPAVCRangda@@QAPAV2@ABQAV2@@Z ENDP ; std::vector<CRangda *,std::allocator<CRangda *> >::_Emplace_reallocate<CRangda * const &>
_TEXT	ENDS
; Function compile flags: /Ogtp
;	COMDAT ??__FsRangdaController@?1??Instance@CRangdaController@@SAPAV1@XZ@YAXXZ
text$yd	SEGMENT
??__FsRangdaController@?1??Instance@CRangdaController@@SAPAV1@XZ@YAXXZ PROC ; `CRangdaController::Instance'::`2'::`dynamic atexit destructor for 'sRangdaController'', COMDAT
  00000	b9 00 00 00 00	 mov	 ecx, OFFSET ?sRangdaController@?1??Instance@CRangdaController@@SAPAV2@XZ@4V2@A
  00005	e9 00 00 00 00	 jmp	 ??1CRangdaController@@UAE@XZ ; CRangdaController::~CRangdaController
??__FsRangdaController@?1??Instance@CRangdaController@@SAPAV1@XZ@YAXXZ ENDP ; `CRangdaController::Instance'::`2'::`dynamic atexit destructor for 'sRangdaController''
text$yd	ENDS
; Function compile flags: /Ogtp
;	COMDAT ??_GCRangdaController@@UAEPAXI@Z
_TEXT	SEGMENT
___flags$ = 8						; size = 4
??_GCRangdaController@@UAEPAXI@Z PROC			; CRangdaController::`scalar deleting destructor', COMDAT
; _this$ = ecx
  00000	55		 push	 ebp
  00001	8b ec		 mov	 ebp, esp
  00003	56		 push	 esi
  00004	8b f1		 mov	 esi, ecx
  00006	e8 00 00 00 00	 call	 ??1CRangdaController@@UAE@XZ ; CRangdaController::~CRangdaController
  0000b	f6 45 08 01	 test	 BYTE PTR ___flags$[ebp], 1
  0000f	74 0b		 je	 SHORT $LN5@scalar
  00011	6a 10		 push	 16			; 00000010H
  00013	56		 push	 esi
  00014	e8 00 00 00 00	 call	 ??3@YAXPAXI@Z		; operator delete
  00019	83 c4 08	 add	 esp, 8
$LN5@scalar:
  0001c	8b c6		 mov	 eax, esi
  0001e	5e		 pop	 esi
  0001f	5d		 pop	 ebp
  00020	c2 04 00	 ret	 4
??_GCRangdaController@@UAEPAXI@Z ENDP			; CRangdaController::`scalar deleting destructor'
_TEXT	ENDS
; Function compile flags: /Ogtp
; File C:\Program Files\Microsoft Visual Studio\2022\Professional\VC\Tools\MSVC\14.44.35207\include\vector
;	COMDAT ?_Xlength@?$vector@PAVCRangda@@V?$allocator@PAVCRangda@@@std@@@std@@CAXXZ
_TEXT	SEGMENT
?_Xlength@?$vector@PAVCRangda@@V?$allocator@PAVCRangda@@@std@@@std@@CAXXZ PROC ; std::vector<CRangda *,std::allocator<CRangda *> >::_Xlength, COMDAT

; 2184 :         _Xlength_error("vector too long");

  00000	68 00 00 00 00	 push	 OFFSET ??_C@_0BA@FOIKENOD@vector?5too?5long@
  00005	e8 00 00 00 00	 call	 ?_Xlength_error@std@@YAXPBD@Z ; std::_Xlength_error
$LN3@Xlength:
  0000a	cc		 int	 3
?_Xlength@?$vector@PAVCRangda@@V?$allocator@PAVCRangda@@@std@@@std@@CAXXZ ENDP ; std::vector<CRangda *,std::allocator<CRangda *> >::_Xlength
_TEXT	ENDS
; Function compile flags: /Ogtp
; File C:\Program Files\Microsoft Visual Studio\2022\Professional\VC\Tools\MSVC\14.44.35207\include\vector
; File C:\Program Files\Microsoft Visual Studio\2022\Professional\VC\Tools\MSVC\14.44.35207\include\xmemory
; File C:\Program Files\Microsoft Visual Studio\2022\Professional\VC\Tools\MSVC\14.44.35207\include\vector
; File C:\Program Files\Microsoft Visual Studio\2022\Professional\VC\Tools\MSVC\14.44.35207\include\xmemory
; File C:\Program Files\Microsoft Visual Studio\2022\Professional\VC\Tools\MSVC\14.44.35207\include\vector
; File C:\Program Files\Microsoft Visual Studio\2022\Professional\VC\Tools\MSVC\14.44.35207\include\xmemory
; File C:\Program Files\Microsoft Visual Studio\2022\Professional\VC\Tools\MSVC\14.44.35207\include\vector
;	COMDAT ??1?$vector@PAVCRangda@@V?$allocator@PAVCRangda@@@std@@@std@@QAE@XZ
_TEXT	SEGMENT
??1?$vector@PAVCRangda@@V?$allocator@PAVCRangda@@@std@@@std@@QAE@XZ PROC ; std::vector<CRangda *,std::allocator<CRangda *> >::~vector<CRangda *,std::allocator<CRangda *> >, COMDAT
; _this$ = ecx

; 829  :     _CONSTEXPR20 ~vector() noexcept {

  00000	56		 push	 esi
  00001	8b f1		 mov	 esi, ecx

; 2090 :         if (_Myfirst) { // destroy and deallocate old array

  00003	8b 06		 mov	 eax, DWORD PTR [esi]
  00005	85 c0		 test	 eax, eax
  00007	74 40		 je	 SHORT $LN5@vector

; 2091 :             _STD _Destroy_range(_Myfirst, _Mylast, _Al);
; 2092 :             _ASAN_VECTOR_REMOVE;
; 2093 :             _Al.deallocate(_Myfirst, static_cast<size_type>(_Myend - _Myfirst));

  00009	8b 4e 08	 mov	 ecx, DWORD PTR [esi+8]
  0000c	2b c8		 sub	 ecx, eax
; File C:\Program Files\Microsoft Visual Studio\2022\Professional\VC\Tools\MSVC\14.44.35207\include\xmemory

; 985  :         _STD _Deallocate<_New_alignof<_Ty>>(_Ptr, sizeof(_Ty) * _Count);

  0000e	83 e1 fc	 and	 ecx, -4			; fffffffcH

; 284  :         if (_Bytes >= _Big_allocation_threshold) {

  00011	81 f9 00 10 00
	00		 cmp	 ecx, 4096		; 00001000H
  00017	72 12		 jb	 SHORT $LN18@vector

; 205  :     const uintptr_t _Ptr_container   = _Ptr_user[-1];

  00019	8b 50 fc	 mov	 edx, DWORD PTR [eax-4]
  0001c	83 c1 23	 add	 ecx, 35			; 00000023H

; 206  : 
; 207  :     // If the following asserts, it likely means that we are performing
; 208  :     // an aligned delete on memory coming from an unaligned allocation.
; 209  :     _STL_ASSERT(_Ptr_user[-2] == _Big_allocation_sentinel, "invalid argument");
; 210  : 
; 211  :     // Extra paranoia on aligned allocation/deallocation; ensure _Ptr_container is
; 212  :     // in range [_Min_back_shift, _Non_user_size]
; 213  : #ifdef _DEBUG
; 214  :     constexpr uintptr_t _Min_back_shift = 2 * sizeof(void*);
; 215  : #else // ^^^ defined(_DEBUG) / !defined(_DEBUG) vvv
; 216  :     constexpr uintptr_t _Min_back_shift = sizeof(void*);
; 217  : #endif // ^^^ !defined(_DEBUG) ^^^
; 218  :     const uintptr_t _Back_shift = reinterpret_cast<uintptr_t>(_Ptr) - _Ptr_container;

  0001f	2b c2		 sub	 eax, edx

; 219  :     _STL_VERIFY(_Back_shift >= _Min_back_shift && _Back_shift <= _Non_user_size, "invalid argument");

  00021	83 c0 fc	 add	 eax, -4			; fffffffcH
  00024	83 f8 1f	 cmp	 eax, 31			; 0000001fH
  00027	77 22		 ja	 SHORT $LN17@vector

; 220  :     _Ptr = reinterpret_cast<void*>(_Ptr_container);

  00029	8b c2		 mov	 eax, edx
$LN18@vector:

; 289  :         ::operator delete(_Ptr, _Bytes);

  0002b	51		 push	 ecx
  0002c	50		 push	 eax
  0002d	e8 00 00 00 00	 call	 ??3@YAXPAXI@Z		; operator delete
; File C:\Program Files\Microsoft Visual Studio\2022\Professional\VC\Tools\MSVC\14.44.35207\include\vector

; 2095 :             _Myfirst = nullptr;

  00032	c7 06 00 00 00
	00		 mov	 DWORD PTR [esi], 0
; File C:\Program Files\Microsoft Visual Studio\2022\Professional\VC\Tools\MSVC\14.44.35207\include\xmemory

; 289  :         ::operator delete(_Ptr, _Bytes);

  00038	83 c4 08	 add	 esp, 8
; File C:\Program Files\Microsoft Visual Studio\2022\Professional\VC\Tools\MSVC\14.44.35207\include\vector

; 2096 :             _Mylast  = nullptr;

  0003b	c7 46 04 00 00
	00 00		 mov	 DWORD PTR [esi+4], 0

; 2097 :             _Myend   = nullptr;

  00042	c7 46 08 00 00
	00 00		 mov	 DWORD PTR [esi+8], 0
$LN5@vector:
  00049	5e		 pop	 esi

; 835  :     }

  0004a	c3		 ret	 0
$LN17@vector:
; File C:\Program Files\Microsoft Visual Studio\2022\Professional\VC\Tools\MSVC\14.44.35207\include\xmemory

; 219  :     _STL_VERIFY(_Back_shift >= _Min_back_shift && _Back_shift <= _Non_user_size, "invalid argument");

  0004b	6a 00		 push	 0
  0004d	6a 00		 push	 0
  0004f	6a 00		 push	 0
  00051	6a 00		 push	 0
  00053	6a 00		 push	 0
  00055	e8 00 00 00 00	 call	 __invoke_watson
$LN26@vector:
  0005a	cc		 int	 3
??1?$vector@PAVCRangda@@V?$allocator@PAVCRangda@@@std@@@std@@QAE@XZ ENDP ; std::vector<CRangda *,std::allocator<CRangda *> >::~vector<CRangda *,std::allocator<CRangda *> >
_TEXT	ENDS
; Function compile flags: /Ogtp
; File C:\IAGOS\server\v18\Source\Source\WorldServer\rangda.cpp
; File C:\Program Files\Microsoft Visual Studio\2022\Professional\VC\Tools\MSVC\14.44.35207\include\vector
; File C:\IAGOS\server\v18\Source\Source\WorldServer\rangda.cpp
;	COMDAT ??0CRangdaController@@AAE@XZ
_TEXT	SEGMENT
_this$ = -4						; size = 4
??0CRangdaController@@AAE@XZ PROC			; CRangdaController::CRangdaController, COMDAT
; _this$ = ecx

; 160  : {

  00000	55		 push	 ebp
  00001	8b ec		 mov	 ebp, esp
  00003	51		 push	 ecx
  00004	c7 01 00 00 00
	00		 mov	 DWORD PTR [ecx], OFFSET ??_7CRangdaController@@6B@

; 161  : }

  0000a	8b c1		 mov	 eax, ecx
  0000c	89 4d fc	 mov	 DWORD PTR _this$[ebp], ecx
; File C:\Program Files\Microsoft Visual Studio\2022\Professional\VC\Tools\MSVC\14.44.35207\include\vector

; 400  :     _CONSTEXPR20 _Vector_val() noexcept : _Myfirst(), _Mylast(), _Myend() {}

  0000f	c7 41 04 00 00
	00 00		 mov	 DWORD PTR [ecx+4], 0
  00016	c7 41 08 00 00
	00 00		 mov	 DWORD PTR [ecx+8], 0
  0001d	c7 41 0c 00 00
	00 00		 mov	 DWORD PTR [ecx+12], 0
; File C:\IAGOS\server\v18\Source\Source\WorldServer\rangda.cpp

; 161  : }

  00024	8b e5		 mov	 esp, ebp
  00026	5d		 pop	 ebp
  00027	c3		 ret	 0
??0CRangdaController@@AAE@XZ ENDP			; CRangdaController::CRangdaController
_TEXT	ENDS
; Function compile flags: /Ogtp
; File C:\IAGOS\server\v18\Source\Source\WorldServer\rangda.cpp
; File C:\Program Files\Microsoft Visual Studio\2022\Professional\VC\Tools\MSVC\14.44.35207\atlmfc\include\cstringt.h
; File C:\IAGOS\server\v18\Source\Source\WorldServer\rangda.cpp
; File C:\IAGOS\server\v18\Source\Source\WorldServer\rangda.h
; File C:\IAGOS\server\v18\Source\Source\WorldServer\rangda.cpp
; File C:\Program Files\Microsoft Visual Studio\2022\Professional\VC\Tools\MSVC\14.44.35207\atlmfc\include\cstringt.h
; File C:\IAGOS\server\v18\Source\Source\WorldServer\rangda.cpp
; File C:\IAGOS\server\v18\Source\Source\WorldServer\rangda.h
; File C:\IAGOS\server\v18\Source\Source\WorldServer\rangda.cpp
; File C:\Program Files\Microsoft Visual Studio\2022\Professional\VC\Tools\MSVC\14.44.35207\atlmfc\include\cstringt.h
; File C:\IAGOS\server\v18\Source\Source\WorldServer\rangda.cpp
; File C:\IAGOS\server\v18\Source\Source\WorldServer\rangda.h
; File C:\IAGOS\server\v18\Source\Source\WorldServer\rangda.cpp
; File C:\Program Files\Microsoft Visual Studio\2022\Professional\VC\Tools\MSVC\14.44.35207\atlmfc\include\cstringt.h
; File C:\IAGOS\server\v18\Source\Source\WorldServer\rangda.cpp
;	COMDAT ?LoadScript@CRangdaController@@QAEHPBD@Z
_TEXT	SEGMENT
$T2 = -3596						; size = 4
_pos$3 = -3592						; size = 16
_s$ = -3576						; size = 3560
__$ArrayPad$ = -16					; size = 4
__$EHRec$ = -12						; size = 12
_szFile$ = 8						; size = 4
?LoadScript@CRangdaController@@QAEHPBD@Z PROC		; CRangdaController::LoadScript, COMDAT
; _this$ = ecx

; 188  : {

  00000	55		 push	 ebp
  00001	8b ec		 mov	 ebp, esp
  00003	6a ff		 push	 -1
  00005	68 00 00 00 00	 push	 __ehhandler$?LoadScript@CRangdaController@@QAEHPBD@Z
  0000a	64 a1 00 00 00
	00		 mov	 eax, DWORD PTR fs:0
  00010	50		 push	 eax
  00011	81 ec 00 0e 00
	00		 sub	 esp, 3584		; 00000e00H
  00017	a1 00 00 00 00	 mov	 eax, DWORD PTR ___security_cookie
  0001c	33 c5		 xor	 eax, ebp
  0001e	89 45 f0	 mov	 DWORD PTR __$ArrayPad$[ebp], eax
  00021	56		 push	 esi
  00022	57		 push	 edi
  00023	50		 push	 eax
  00024	8d 45 f4	 lea	 eax, DWORD PTR __$EHRec$[ebp]
  00027	64 a3 00 00 00
	00		 mov	 DWORD PTR fs:0, eax
  0002d	8b f9		 mov	 edi, ecx
  0002f	8b 75 08	 mov	 esi, DWORD PTR _szFile$[ebp]

; 189  : 	CScript s;

  00032	8d 8d 08 f2 ff
	ff		 lea	 ecx, DWORD PTR _s$[ebp]
  00038	6a 00		 push	 0
  0003a	e8 00 00 00 00	 call	 ??0CScript@@QAE@H@Z	; CScript::CScript

; 190  : 	if( s.Load( szFile ) == FALSE )

  0003f	6a 00		 push	 0
  00041	6a 01		 push	 1
  00043	56		 push	 esi
  00044	8d 8d 08 f2 ff
	ff		 lea	 ecx, DWORD PTR _s$[ebp]
  0004a	c7 45 fc 00 00
	00 00		 mov	 DWORD PTR __$EHRec$[ebp+8], 0
  00051	e8 00 00 00 00	 call	 ?Load@CScript@@QAEHPBDHH@Z ; CScript::Load
  00056	85 c0		 test	 eax, eax
  00058	75 07		 jne	 SHORT $LN8@LoadScript
  0005a	33 f6		 xor	 esi, esi
  0005c	e9 f1 01 00 00	 jmp	 $LN21@LoadScript
$LN8@LoadScript:

; 191  : 		return FALSE;
; 192  : 
; 193  : 	DWORD dwMonster		= s.GetNumber();		// subject or FINISHED

  00061	6a 00		 push	 0
  00063	8d 8d 08 f2 ff
	ff		 lea	 ecx, DWORD PTR _s$[ebp]
  00069	e8 00 00 00 00	 call	 ?GetNumber@CScanner@@QAEHH@Z ; CScanner::GetNumber

; 194  : 	while( s.tok != FINISHED )

  0006e	83 bd 4c fa ff
	ff 15		 cmp	 DWORD PTR _s$[ebp+2116], 21 ; 00000015H
  00075	8b f0		 mov	 esi, eax
  00077	0f 84 d0 01 00
	00		 je	 $LN103@LoadScript
  0007d	0f 1f 00	 npad	 3
$LL2@LoadScript:

; 195  : 	{
; 196  : 		CRangda* pRangda	= new CRangda( dwMonster );

  00080	6a 34		 push	 52			; 00000034H
  00082	e8 00 00 00 00	 call	 ??2@YAPAXI@Z		; operator new
  00087	83 c4 04	 add	 esp, 4
  0008a	89 85 f4 f1 ff
	ff		 mov	 DWORD PTR $T2[ebp], eax
  00090	85 c0		 test	 eax, eax
  00092	74 0c		 je	 SHORT $LN17@LoadScript
  00094	56		 push	 esi
  00095	8b c8		 mov	 ecx, eax
  00097	e8 00 00 00 00	 call	 ??0CRangda@@QAE@K@Z	; CRangda::CRangda
  0009c	8b f0		 mov	 esi, eax
  0009e	eb 02		 jmp	 SHORT $LN18@LoadScript
$LN17@LoadScript:
  000a0	33 f6		 xor	 esi, esi
$LN18@LoadScript:

; 197  : 		AddRangda( pRangda );

  000a2	56		 push	 esi
  000a3	8b cf		 mov	 ecx, edi
  000a5	e8 00 00 00 00	 call	 ?AddRangda@CRangdaController@@QAEXPAVCRangda@@@Z ; CRangdaController::AddRangda

; 198  : 		s.GetToken();	// {

  000aa	6a 00		 push	 0
  000ac	8d 8d 08 f2 ff
	ff		 lea	 ecx, DWORD PTR _s$[ebp]
  000b2	e8 00 00 00 00	 call	 ?GetToken@CScript@@UAEHH@Z ; CScript::GetToken

; 199  : 		s.GetToken();	// subject or '}'

  000b7	6a 00		 push	 0
  000b9	8d 8d 08 f2 ff
	ff		 lea	 ecx, DWORD PTR _s$[ebp]
  000bf	e8 00 00 00 00	 call	 ?GetToken@CScript@@UAEHH@Z ; CScript::GetToken

; 200  : 		
; 201  : 		while( *s.token != '}' )

  000c4	8b 85 44 f2 ff
	ff		 mov	 eax, DWORD PTR _s$[ebp+60]
  000ca	80 38 7d	 cmp	 BYTE PTR [eax], 125	; 0000007dH
  000cd	0f 84 5e 01 00
	00		 je	 $LN5@LoadScript
  000d3	0f 1f 40 00 66
	0f 1f 84 00 00
	00 00 00	 npad	 13
$LL4@LoadScript:
; File C:\Program Files\Microsoft Visual Studio\2022\Professional\VC\Tools\MSVC\14.44.35207\atlmfc\include\cstringt.h

; 184  : 		return _mbscmp( reinterpret_cast< const unsigned char* >( pszA ), reinterpret_cast< const unsigned char* >( pszB ) );

  000e0	68 00 00 00 00	 push	 OFFSET ??_C@_09GJAOAHBN@nInterval@
  000e5	ff b5 28 f2 ff
	ff		 push	 DWORD PTR _s$[ebp+32]
  000eb	e8 00 00 00 00	 call	 __mbscmp
  000f0	83 c4 08	 add	 esp, 8

; 2490 : 		return(str1.Compare(psz2) == 0);

  000f3	85 c0		 test	 eax, eax
; File C:\IAGOS\server\v18\Source\Source\WorldServer\rangda.cpp

; 203  : 			if( s.Token == _T( "nInterval" ) )

  000f5	75 14		 jne	 SHORT $LN46@LoadScript

; 204  : 				pRangda->SetInterval( s.GetNumber() );

  000f7	50		 push	 eax
  000f8	8d 8d 08 f2 ff
	ff		 lea	 ecx, DWORD PTR _s$[ebp]
  000fe	e8 00 00 00 00	 call	 ?GetNumber@CScanner@@QAEHH@Z ; CScanner::GetNumber
; File C:\IAGOS\server\v18\Source\Source\WorldServer\rangda.h

; 21   : 	void	SetInterval( int nInterval )	{	m_nInterval	= nInterval;	}	// Ŕç»ý °Ł°Ý ĽłÁ¤

  00103	89 46 08	 mov	 DWORD PTR [esi+8], eax
; File C:\IAGOS\server\v18\Source\Source\WorldServer\rangda.cpp

; 204  : 				pRangda->SetInterval( s.GetNumber() );

  00106	e9 0a 01 00 00	 jmp	 $LN7@LoadScript
$LN46@LoadScript:
; File C:\Program Files\Microsoft Visual Studio\2022\Professional\VC\Tools\MSVC\14.44.35207\atlmfc\include\cstringt.h

; 184  : 		return _mbscmp( reinterpret_cast< const unsigned char* >( pszA ), reinterpret_cast< const unsigned char* >( pszB ) );

  0010b	68 00 00 00 00	 push	 OFFSET ??_C@_08MFLLMLOO@nReplace@
  00110	ff b5 28 f2 ff
	ff		 push	 DWORD PTR _s$[ebp+32]
  00116	e8 00 00 00 00	 call	 __mbscmp
  0011b	83 c4 08	 add	 esp, 8

; 2490 : 		return(str1.Compare(psz2) == 0);

  0011e	85 c0		 test	 eax, eax
; File C:\IAGOS\server\v18\Source\Source\WorldServer\rangda.cpp

; 205  : 			else if( s.Token == _T( "nReplace" ) )

  00120	75 14		 jne	 SHORT $LN64@LoadScript

; 206  : 				pRangda->SetReplace( s.GetNumber() );

  00122	50		 push	 eax
  00123	8d 8d 08 f2 ff
	ff		 lea	 ecx, DWORD PTR _s$[ebp]
  00129	e8 00 00 00 00	 call	 ?GetNumber@CScanner@@QAEHH@Z ; CScanner::GetNumber
; File C:\IAGOS\server\v18\Source\Source\WorldServer\rangda.h

; 22   : 	void	SetReplace( int nReplace )	{	m_nReplace	= nReplace;		}	// ŔĚµż °Ł°Ý ĽłÁ¤

  0012e	89 46 0c	 mov	 DWORD PTR [esi+12], eax
; File C:\IAGOS\server\v18\Source\Source\WorldServer\rangda.cpp

; 206  : 				pRangda->SetReplace( s.GetNumber() );

  00131	e9 df 00 00 00	 jmp	 $LN7@LoadScript
$LN64@LoadScript:
; File C:\Program Files\Microsoft Visual Studio\2022\Professional\VC\Tools\MSVC\14.44.35207\atlmfc\include\cstringt.h

; 184  : 		return _mbscmp( reinterpret_cast< const unsigned char* >( pszA ), reinterpret_cast< const unsigned char* >( pszB ) );

  00136	68 00 00 00 00	 push	 OFFSET ??_C@_0O@DFAEABEH@bActiveAttack@
  0013b	ff b5 28 f2 ff
	ff		 push	 DWORD PTR _s$[ebp+32]
  00141	e8 00 00 00 00	 call	 __mbscmp
  00146	83 c4 08	 add	 esp, 8

; 2490 : 		return(str1.Compare(psz2) == 0);

  00149	85 c0		 test	 eax, eax
; File C:\IAGOS\server\v18\Source\Source\WorldServer\rangda.cpp

; 207  : 			else if( s.Token == _T( "bActiveAttack" ) )

  0014b	75 14		 jne	 SHORT $LN82@LoadScript

; 208  : 				pRangda->SetActiveAttack( static_cast<BOOL>( s.GetNumber() ) );

  0014d	50		 push	 eax
  0014e	8d 8d 08 f2 ff
	ff		 lea	 ecx, DWORD PTR _s$[ebp]
  00154	e8 00 00 00 00	 call	 ?GetNumber@CScanner@@QAEHH@Z ; CScanner::GetNumber
; File C:\IAGOS\server\v18\Source\Source\WorldServer\rangda.h

; 23   : 	void	SetActiveAttack( BOOL bActiveAttack )	{	m_bActiveAttack		= bActiveAttack;	}	// Ľ±°ř ż©şÎ ĽłÁ¤

  00159	89 46 10	 mov	 DWORD PTR [esi+16], eax
; File C:\IAGOS\server\v18\Source\Source\WorldServer\rangda.cpp

; 208  : 				pRangda->SetActiveAttack( static_cast<BOOL>( s.GetNumber() ) );

  0015c	e9 b4 00 00 00	 jmp	 $LN7@LoadScript
$LN82@LoadScript:
; File C:\Program Files\Microsoft Visual Studio\2022\Professional\VC\Tools\MSVC\14.44.35207\atlmfc\include\cstringt.h

; 184  : 		return _mbscmp( reinterpret_cast< const unsigned char* >( pszA ), reinterpret_cast< const unsigned char* >( pszB ) );

  00161	68 00 00 00 00	 push	 OFFSET ??_C@_07DEMLKDGM@vRangda@
  00166	ff b5 28 f2 ff
	ff		 push	 DWORD PTR _s$[ebp+32]
  0016c	e8 00 00 00 00	 call	 __mbscmp
  00171	83 c4 08	 add	 esp, 8

; 2490 : 		return(str1.Compare(psz2) == 0);

  00174	85 c0		 test	 eax, eax
; File C:\IAGOS\server\v18\Source\Source\WorldServer\rangda.cpp

; 209  : 			else if( s.Token == _T( "vRangda" ) )

  00176	0f 85 99 00 00
	00		 jne	 $LN7@LoadScript

; 210  : 			{
; 211  : 				RANGDA_POS pos;
; 212  : 				s.GetToken();	// {

  0017c	50		 push	 eax
  0017d	8d 8d 08 f2 ff
	ff		 lea	 ecx, DWORD PTR _s$[ebp]
  00183	e8 00 00 00 00	 call	 ?GetToken@CScript@@UAEHH@Z ; CScript::GetToken

; 213  : 				pos.dwWorldId	= s.GetNumber();

  00188	6a 00		 push	 0
  0018a	8d 8d 08 f2 ff
	ff		 lea	 ecx, DWORD PTR _s$[ebp]
  00190	e8 00 00 00 00	 call	 ?GetNumber@CScanner@@QAEHH@Z ; CScanner::GetNumber
  00195	89 85 f8 f1 ff
	ff		 mov	 DWORD PTR _pos$3[ebp], eax

; 214  : 				while( *s.token != '}' )

  0019b	8b 85 44 f2 ff
	ff		 mov	 eax, DWORD PTR _s$[ebp+60]
  001a1	80 38 7d	 cmp	 BYTE PTR [eax], 125	; 0000007dH
  001a4	74 6f		 je	 SHORT $LN7@LoadScript
  001a6	66 66 0f 1f 84
	00 00 00 00 00	 npad	 10
$LL6@LoadScript:

; 215  : 				{
; 216  : 					pos.vPos.x	= s.GetFloat();

  001b0	6a 00		 push	 0
  001b2	8d 8d 08 f2 ff
	ff		 lea	 ecx, DWORD PTR _s$[ebp]
  001b8	e8 00 00 00 00	 call	 ?GetFloat@CScanner@@QAEMH@Z ; CScanner::GetFloat
  001bd	d9 9d fc f1 ff
	ff		 fstp	 DWORD PTR _pos$3[ebp+4]

; 217  : 					pos.vPos.y	= s.GetFloat();

  001c3	6a 00		 push	 0
  001c5	8d 8d 08 f2 ff
	ff		 lea	 ecx, DWORD PTR _s$[ebp]
  001cb	e8 00 00 00 00	 call	 ?GetFloat@CScanner@@QAEMH@Z ; CScanner::GetFloat
  001d0	d9 9d 00 f2 ff
	ff		 fstp	 DWORD PTR _pos$3[ebp+8]

; 218  : 					pos.vPos.z	= s.GetFloat();

  001d6	6a 00		 push	 0
  001d8	8d 8d 08 f2 ff
	ff		 lea	 ecx, DWORD PTR _s$[ebp]
  001de	e8 00 00 00 00	 call	 ?GetFloat@CScanner@@QAEMH@Z ; CScanner::GetFloat

; 219  : 					pRangda->AddPos( pos );

  001e3	8d 85 f8 f1 ff
	ff		 lea	 eax, DWORD PTR _pos$3[ebp]
  001e9	8b ce		 mov	 ecx, esi
  001eb	50		 push	 eax
  001ec	d9 9d 04 f2 ff
	ff		 fstp	 DWORD PTR _pos$3[ebp+12]
  001f2	e8 00 00 00 00	 call	 ?AddPos@CRangda@@QAEXABU_RANGDA_POS@@@Z ; CRangda::AddPos

; 220  : 					pos.dwWorldId	= s.GetNumber();

  001f7	6a 00		 push	 0
  001f9	8d 8d 08 f2 ff
	ff		 lea	 ecx, DWORD PTR _s$[ebp]
  001ff	e8 00 00 00 00	 call	 ?GetNumber@CScanner@@QAEHH@Z ; CScanner::GetNumber
  00204	89 85 f8 f1 ff
	ff		 mov	 DWORD PTR _pos$3[ebp], eax
  0020a	8b 85 44 f2 ff
	ff		 mov	 eax, DWORD PTR _s$[ebp+60]
  00210	80 38 7d	 cmp	 BYTE PTR [eax], 125	; 0000007dH
  00213	75 9b		 jne	 SHORT $LL6@LoadScript
$LN7@LoadScript:

; 221  : 				}
; 222  : 			}
; 223  : 			s.GetToken();

  00215	6a 00		 push	 0
  00217	8d 8d 08 f2 ff
	ff		 lea	 ecx, DWORD PTR _s$[ebp]
  0021d	e8 00 00 00 00	 call	 ?GetToken@CScript@@UAEHH@Z ; CScript::GetToken
  00222	8b 85 44 f2 ff
	ff		 mov	 eax, DWORD PTR _s$[ebp+60]
  00228	80 38 7d	 cmp	 BYTE PTR [eax], 125	; 0000007dH
  0022b	0f 85 af fe ff
	ff		 jne	 $LL4@LoadScript
$LN5@LoadScript:

; 224  : 		}
; 225  : 		dwMonster	= s.GetNumber();

  00231	6a 00		 push	 0
  00233	8d 8d 08 f2 ff
	ff		 lea	 ecx, DWORD PTR _s$[ebp]
  00239	e8 00 00 00 00	 call	 ?GetNumber@CScanner@@QAEHH@Z ; CScanner::GetNumber
  0023e	83 bd 4c fa ff
	ff 15		 cmp	 DWORD PTR _s$[ebp+2116], 21 ; 00000015H
  00245	8b f0		 mov	 esi, eax
  00247	0f 85 33 fe ff
	ff		 jne	 $LL2@LoadScript
$LN103@LoadScript:

; 226  : 	}
; 227  : 	return TRUE;

  0024d	be 01 00 00 00	 mov	 esi, 1
$LN21@LoadScript:
  00252	8d 8d 08 f2 ff
	ff		 lea	 ecx, DWORD PTR _s$[ebp]
  00258	e8 00 00 00 00	 call	 ??1CScript@@UAE@XZ	; CScript::~CScript
  0025d	8b c6		 mov	 eax, esi

; 228  : }

  0025f	8b 4d f4	 mov	 ecx, DWORD PTR __$EHRec$[ebp]
  00262	64 89 0d 00 00
	00 00		 mov	 DWORD PTR fs:0, ecx
  00269	59		 pop	 ecx
  0026a	5f		 pop	 edi
  0026b	5e		 pop	 esi
  0026c	8b 4d f0	 mov	 ecx, DWORD PTR __$ArrayPad$[ebp]
  0026f	33 cd		 xor	 ecx, ebp
  00271	e8 00 00 00 00	 call	 @__security_check_cookie@4
  00276	8b e5		 mov	 esp, ebp
  00278	5d		 pop	 ebp
  00279	c2 04 00	 ret	 4
_TEXT	ENDS
;	COMDAT text$x
text$x	SEGMENT
__unwindfunclet$?LoadScript@CRangdaController@@QAEHPBD@Z$0:
  00000	8d 8d 08 f2 ff
	ff		 lea	 ecx, DWORD PTR _s$[ebp]
  00006	e9 00 00 00 00	 jmp	 ??1CScript@@UAE@XZ	; CScript::~CScript
  0000b	cc		 int	 3
  0000c	cc		 int	 3
  0000d	cc		 int	 3
  0000e	cc		 int	 3
  0000f	cc		 int	 3
__ehhandler$?LoadScript@CRangdaController@@QAEHPBD@Z:
  00010	90		 npad	 1
  00011	90		 npad	 1
  00012	8b 54 24 08	 mov	 edx, DWORD PTR [esp+8]
  00016	8d 42 0c	 lea	 eax, DWORD PTR [edx+12]
  00019	8b 8a f4 f1 ff
	ff		 mov	 ecx, DWORD PTR [edx-3596]
  0001f	33 c8		 xor	 ecx, eax
  00021	e8 00 00 00 00	 call	 @__security_check_cookie@4
  00026	8b 4a fc	 mov	 ecx, DWORD PTR [edx-4]
  00029	33 c8		 xor	 ecx, eax
  0002b	e8 00 00 00 00	 call	 @__security_check_cookie@4
  00030	b8 00 00 00 00	 mov	 eax, OFFSET __ehfuncinfo$?LoadScript@CRangdaController@@QAEHPBD@Z
  00035	e9 00 00 00 00	 jmp	 ___CxxFrameHandler3
text$x	ENDS
?LoadScript@CRangdaController@@QAEHPBD@Z ENDP		; CRangdaController::LoadScript
; Function compile flags: /Ogtp
; File C:\IAGOS\server\v18\Source\Source\WorldServer\rangda.cpp
; File C:\Program Files\Microsoft Visual Studio\2022\Professional\VC\Tools\MSVC\14.44.35207\include\vector
; File C:\IAGOS\server\v18\Source\Source\WorldServer\rangda.cpp
; File C:\Program Files\Microsoft Visual Studio\2022\Professional\VC\Tools\MSVC\14.44.35207\include\vector
; File C:\IAGOS\server\v18\Source\Source\WorldServer\rangda.cpp
;	COMDAT ?OnTimer@CRangdaController@@QAEXXZ
_TEXT	SEGMENT
?OnTimer@CRangdaController@@QAEXXZ PROC			; CRangdaController::OnTimer, COMDAT
; _this$ = ecx

; 182  : {

  00000	56		 push	 esi
  00001	57		 push	 edi
  00002	8b f9		 mov	 edi, ecx
; File C:\Program Files\Microsoft Visual Studio\2022\Professional\VC\Tools\MSVC\14.44.35207\include\vector

; 46   :     _CONSTEXPR20 _Vector_const_iterator(_Tptr _Parg, const _Container_base* _Pvector) noexcept : _Ptr(_Parg) {

  00004	8b 77 04	 mov	 esi, DWORD PTR [edi+4]

; 176  :         return !(*this == _Right);

  00007	3b 77 08	 cmp	 esi, DWORD PTR [edi+8]
; File C:\IAGOS\server\v18\Source\Source\WorldServer\rangda.cpp

; 183  : 	for( VR::iterator i = m_vRangda.begin(); i != m_vRangda.end(); ++i )

  0000a	74 13		 je	 SHORT $LN3@OnTimer
  0000c	0f 1f 40 00	 npad	 4
$LL4@OnTimer:

; 184  : 		( *i )->OnTimer();

  00010	8b 0e		 mov	 ecx, DWORD PTR [esi]
  00012	e8 00 00 00 00	 call	 ?OnTimer@CRangda@@QAEXXZ ; CRangda::OnTimer
; File C:\Program Files\Microsoft Visual Studio\2022\Professional\VC\Tools\MSVC\14.44.35207\include\vector

; 82   :         ++_Ptr;

  00017	83 c6 04	 add	 esi, 4

; 176  :         return !(*this == _Right);

  0001a	3b 77 08	 cmp	 esi, DWORD PTR [edi+8]
; File C:\IAGOS\server\v18\Source\Source\WorldServer\rangda.cpp

; 183  : 	for( VR::iterator i = m_vRangda.begin(); i != m_vRangda.end(); ++i )

  0001d	75 f1		 jne	 SHORT $LL4@OnTimer
$LN3@OnTimer:
  0001f	5f		 pop	 edi

; 185  : }

  00020	5e		 pop	 esi
  00021	c3		 ret	 0
?OnTimer@CRangdaController@@QAEXXZ ENDP			; CRangdaController::OnTimer
_TEXT	ENDS
; Function compile flags: /Ogtp
; File C:\IAGOS\server\v18\Source\Source\WorldServer\rangda.cpp
; File C:\Program Files\Microsoft Visual Studio\2022\Professional\VC\Tools\MSVC\14.44.35207\include\vector
; File C:\IAGOS\server\v18\Source\Source\WorldServer\rangda.cpp
; File C:\Program Files\Microsoft Visual Studio\2022\Professional\VC\Tools\MSVC\14.44.35207\include\vector
; File C:\IAGOS\server\v18\Source\Source\WorldServer\rangda.cpp
; File C:\Program Files\Microsoft Visual Studio\2022\Professional\VC\Tools\MSVC\14.44.35207\include\vector
; File C:\IAGOS\server\v18\Source\Source\WorldServer\rangda.cpp
;	COMDAT ?AddRangda@CRangdaController@@QAEXPAVCRangda@@@Z
_TEXT	SEGMENT
_pRangda$ = 8						; size = 4
?AddRangda@CRangdaController@@QAEXPAVCRangda@@@Z PROC	; CRangdaController::AddRangda, COMDAT
; _this$ = ecx

; 177  : {

  00000	55		 push	 ebp
  00001	8b ec		 mov	 ebp, esp
; File C:\Program Files\Microsoft Visual Studio\2022\Professional\VC\Tools\MSVC\14.44.35207\include\vector

; 844  :         if (_Mylast != _My_data._Myend) {

  00003	8b 51 08	 mov	 edx, DWORD PTR [ecx+8]
; File C:\IAGOS\server\v18\Source\Source\WorldServer\rangda.cpp

; 178  : 	m_vRangda.push_back( pRangda );

  00006	83 c1 04	 add	 ecx, 4
; File C:\Program Files\Microsoft Visual Studio\2022\Professional\VC\Tools\MSVC\14.44.35207\include\vector

; 844  :         if (_Mylast != _My_data._Myend) {

  00009	3b 51 08	 cmp	 edx, DWORD PTR [ecx+8]
  0000c	74 0d		 je	 SHORT $LN6@AddRangda

; 860  :             _STD _Construct_in_place(*_Mylast, _STD forward<_Valty>(_Val)...);

  0000e	8b 45 08	 mov	 eax, DWORD PTR _pRangda$[ebp]
  00011	89 02		 mov	 DWORD PTR [edx], eax

; 861  :         } else {
; 862  :             _ASAN_VECTOR_EXTEND_GUARD(static_cast<size_type>(_Mylast - _My_data._Myfirst) + 1);
; 863  :             _Alty_traits::construct(_Getal(), _Unfancy(_Mylast), _STD forward<_Valty>(_Val)...);
; 864  :             _ASAN_VECTOR_RELEASE_GUARD;
; 865  :         }
; 866  : 
; 867  :         _Orphan_range(_Mylast, _Mylast);
; 868  :         _Ty& _Result = *_Mylast;
; 869  :         ++_Mylast;

  00013	83 41 04 04	 add	 DWORD PTR [ecx+4], 4
; File C:\IAGOS\server\v18\Source\Source\WorldServer\rangda.cpp

; 179  : }

  00017	5d		 pop	 ebp
  00018	c2 04 00	 ret	 4
$LN6@AddRangda:
; File C:\Program Files\Microsoft Visual Studio\2022\Professional\VC\Tools\MSVC\14.44.35207\include\vector

; 848  :         return *_Emplace_reallocate(_Mylast, _STD forward<_Valty>(_Val)...);

  0001b	8d 45 08	 lea	 eax, DWORD PTR _pRangda$[ebp]
  0001e	50		 push	 eax
  0001f	52		 push	 edx
  00020	e8 00 00 00 00	 call	 ??$_Emplace_reallocate@ABQAVCRangda@@@?$vector@PAVCRangda@@V?$allocator@PAVCRangda@@@std@@@std@@AAEPAPAVCRangda@@QAPAV2@ABQAV2@@Z ; std::vector<CRangda *,std::allocator<CRangda *> >::_Emplace_reallocate<CRangda * const &>
; File C:\IAGOS\server\v18\Source\Source\WorldServer\rangda.cpp

; 179  : }

  00025	5d		 pop	 ebp
  00026	c2 04 00	 ret	 4
?AddRangda@CRangdaController@@QAEXPAVCRangda@@@Z ENDP	; CRangdaController::AddRangda
_TEXT	ENDS
; Function compile flags: /Ogtp
; File C:\IAGOS\server\v18\Source\Source\WorldServer\rangda.cpp
;	COMDAT ?Instance@CRangdaController@@SAPAV1@XZ
_TEXT	SEGMENT
?Instance@CRangdaController@@SAPAV1@XZ PROC		; CRangdaController::Instance, COMDAT

; 172  : 	static CRangdaController sRangdaController;

  00000	64 a1 00 00 00
	00		 mov	 eax, DWORD PTR fs:__tls_array
  00006	8b 0d 00 00 00
	00		 mov	 ecx, DWORD PTR __tls_index
  0000c	8b 0c 88	 mov	 ecx, DWORD PTR [eax+ecx*4]
  0000f	a1 00 00 00 00	 mov	 eax, DWORD PTR ?$TSS0@?1??Instance@CRangdaController@@SAPAV2@XZ@4HA
  00014	3b 81 00 00 00
	00		 cmp	 eax, DWORD PTR __Init_thread_epoch[ecx]
  0001a	7f 06		 jg	 SHORT $LN8@Instance
$LN5@Instance:

; 173  : 	return &sRangdaController;
; 174  : }

  0001c	b8 00 00 00 00	 mov	 eax, OFFSET ?sRangdaController@?1??Instance@CRangdaController@@SAPAV2@XZ@4V2@A
  00021	c3		 ret	 0
$LN8@Instance:

; 172  : 	static CRangdaController sRangdaController;

  00022	68 00 00 00 00	 push	 OFFSET ?$TSS0@?1??Instance@CRangdaController@@SAPAV2@XZ@4HA
  00027	e8 00 00 00 00	 call	 __Init_thread_header
  0002c	83 c4 04	 add	 esp, 4
  0002f	83 3d 00 00 00
	00 ff		 cmp	 DWORD PTR ?$TSS0@?1??Instance@CRangdaController@@SAPAV2@XZ@4HA, -1
  00036	75 e4		 jne	 SHORT $LN5@Instance
  00038	b9 00 00 00 00	 mov	 ecx, OFFSET ?sRangdaController@?1??Instance@CRangdaController@@SAPAV2@XZ@4V2@A
  0003d	e8 00 00 00 00	 call	 ??0CRangdaController@@AAE@XZ ; CRangdaController::CRangdaController
  00042	68 00 00 00 00	 push	 OFFSET ??__FsRangdaController@?1??Instance@CRangdaController@@SAPAV1@XZ@YAXXZ ; `CRangdaController::Instance'::`2'::`dynamic atexit destructor for 'sRangdaController''
  00047	e8 00 00 00 00	 call	 _atexit
  0004c	68 00 00 00 00	 push	 OFFSET ?$TSS0@?1??Instance@CRangdaController@@SAPAV2@XZ@4HA
  00051	e8 00 00 00 00	 call	 __Init_thread_footer
  00056	83 c4 08	 add	 esp, 8
  00059	eb c1		 jmp	 SHORT $LN5@Instance
?Instance@CRangdaController@@SAPAV1@XZ ENDP		; CRangdaController::Instance
_TEXT	ENDS
; Function compile flags: /Ogtp
; File C:\IAGOS\server\v18\Source\Source\WorldServer\rangda.cpp
; File C:\Program Files\Microsoft Visual Studio\2022\Professional\VC\Tools\MSVC\14.44.35207\include\vector
; File C:\IAGOS\server\v18\Source\Source\WorldServer\rangda.cpp
; File C:\Program Files\Microsoft Visual Studio\2022\Professional\VC\Tools\MSVC\14.44.35207\include\vector
; File C:\IAGOS\server\v18\Source\Source\WorldServer\rangda.cpp
; File C:\Program Files\Microsoft Visual Studio\2022\Professional\VC\Tools\MSVC\14.44.35207\include\vector
; File C:\IAGOS\server\v18\Source\Source\WorldServer\rangda.cpp
;	COMDAT ??1CRangdaController@@UAE@XZ
_TEXT	SEGMENT
??1CRangdaController@@UAE@XZ PROC			; CRangdaController::~CRangdaController, COMDAT
; _this$ = ecx

; 164  : {

  00000	53		 push	 ebx
  00001	56		 push	 esi
  00002	57		 push	 edi
  00003	8b f9		 mov	 edi, ecx
  00005	c7 07 00 00 00
	00		 mov	 DWORD PTR [edi], OFFSET ??_7CRangdaController@@6B@
; File C:\Program Files\Microsoft Visual Studio\2022\Professional\VC\Tools\MSVC\14.44.35207\include\vector

; 46   :     _CONSTEXPR20 _Vector_const_iterator(_Tptr _Parg, const _Container_base* _Pvector) noexcept : _Ptr(_Parg) {

  0000b	8b 77 04	 mov	 esi, DWORD PTR [edi+4]

; 176  :         return !(*this == _Right);

  0000e	3b 77 08	 cmp	 esi, DWORD PTR [edi+8]
; File C:\IAGOS\server\v18\Source\Source\WorldServer\rangda.cpp

; 165  : 	for( VR::iterator i = m_vRangda.begin(); i != m_vRangda.end(); ++i )

  00011	74 14		 je	 SHORT $LN3@CRangdaCon
$LL4@CRangdaCon:

; 166  : 		safe_delete( *i );

  00013	8b 0e		 mov	 ecx, DWORD PTR [esi]
  00015	85 c9		 test	 ecx, ecx
  00017	74 06		 je	 SHORT $LN2@CRangdaCon
  00019	8b 01		 mov	 eax, DWORD PTR [ecx]
  0001b	6a 01		 push	 1
  0001d	ff 10		 call	 DWORD PTR [eax]
$LN2@CRangdaCon:
; File C:\Program Files\Microsoft Visual Studio\2022\Professional\VC\Tools\MSVC\14.44.35207\include\vector

; 82   :         ++_Ptr;

  0001f	83 c6 04	 add	 esi, 4

; 176  :         return !(*this == _Right);

  00022	3b 77 08	 cmp	 esi, DWORD PTR [edi+8]
; File C:\IAGOS\server\v18\Source\Source\WorldServer\rangda.cpp

; 165  : 	for( VR::iterator i = m_vRangda.begin(); i != m_vRangda.end(); ++i )

  00025	75 ec		 jne	 SHORT $LL4@CRangdaCon
$LN3@CRangdaCon:
; File C:\Program Files\Microsoft Visual Studio\2022\Professional\VC\Tools\MSVC\14.44.35207\include\vector

; 1812 :         if (_Myfirst == _Mylast) { // already empty, nothing to do

  00027	8b 47 04	 mov	 eax, DWORD PTR [edi+4]
  0002a	3b 47 08	 cmp	 eax, DWORD PTR [edi+8]
  0002d	74 03		 je	 SHORT $LN39@CRangdaCon

; 1813 :             // This is an optimization for debug mode: we can avoid taking the debug lock to invalidate iterators.
; 1814 :             // Note that when clearing an empty vector, this will preserve past-the-end iterators, which is allowed by
; 1815 :             // N4950 [sequence.reqmts]/54 "a.clear() [...] may invalidate the past-the-end iterator".
; 1816 :             return;
; 1817 :         }
; 1818 : 
; 1819 :         _My_data._Orphan_all();
; 1820 :         _Destroy_range(_Myfirst, _Mylast, _Getal());
; 1821 :         _ASAN_VECTOR_MODIFY(static_cast<difference_type>(_Myfirst - _Mylast)); // negative when destroying elements
; 1822 :         _Mylast = _Myfirst;

  0002f	89 47 08	 mov	 DWORD PTR [edi+8], eax
$LN39@CRangdaCon:
; File C:\IAGOS\server\v18\Source\Source\WorldServer\rangda.cpp

; 168  : }

  00032	8d 4f 04	 lea	 ecx, DWORD PTR [edi+4]
  00035	5f		 pop	 edi
  00036	5e		 pop	 esi
  00037	5b		 pop	 ebx
  00038	e9 00 00 00 00	 jmp	 ??1?$vector@PAVCRangda@@V?$allocator@PAVCRangda@@@std@@@std@@QAE@XZ ; std::vector<CRangda *,std::allocator<CRangda *> >::~vector<CRangda *,std::allocator<CRangda *> >
??1CRangdaController@@UAE@XZ ENDP			; CRangdaController::~CRangdaController
_TEXT	ENDS
; Function compile flags: /Ogtp
;	COMDAT ??_GCRangda@@UAEPAXI@Z
_TEXT	SEGMENT
___flags$ = 8						; size = 4
??_GCRangda@@UAEPAXI@Z PROC				; CRangda::`scalar deleting destructor', COMDAT
; _this$ = ecx
  00000	55		 push	 ebp
  00001	8b ec		 mov	 ebp, esp
  00003	56		 push	 esi
  00004	8b f1		 mov	 esi, ecx
  00006	e8 00 00 00 00	 call	 ??1CRangda@@UAE@XZ	; CRangda::~CRangda
  0000b	f6 45 08 01	 test	 BYTE PTR ___flags$[ebp], 1
  0000f	74 0b		 je	 SHORT $LN5@scalar
  00011	6a 34		 push	 52			; 00000034H
  00013	56		 push	 esi
  00014	e8 00 00 00 00	 call	 ??3@YAXPAXI@Z		; operator delete
  00019	83 c4 08	 add	 esp, 8
$LN5@scalar:
  0001c	8b c6		 mov	 eax, esi
  0001e	5e		 pop	 esi
  0001f	5d		 pop	 ebp
  00020	c2 04 00	 ret	 4
??_GCRangda@@UAEPAXI@Z ENDP				; CRangda::`scalar deleting destructor'
_TEXT	ENDS
; Function compile flags: /Ogtp
; File C:\Program Files\Microsoft Visual Studio\2022\Professional\VC\Tools\MSVC\14.44.35207\include\vector
;	COMDAT ?_Xlength@?$vector@U_RANGDA_POS@@V?$allocator@U_RANGDA_POS@@@std@@@std@@CAXXZ
_TEXT	SEGMENT
?_Xlength@?$vector@U_RANGDA_POS@@V?$allocator@U_RANGDA_POS@@@std@@@std@@CAXXZ PROC ; std::vector<_RANGDA_POS,std::allocator<_RANGDA_POS> >::_Xlength, COMDAT

; 2184 :         _Xlength_error("vector too long");

  00000	68 00 00 00 00	 push	 OFFSET ??_C@_0BA@FOIKENOD@vector?5too?5long@
  00005	e8 00 00 00 00	 call	 ?_Xlength_error@std@@YAXPBD@Z ; std::_Xlength_error
$LN3@Xlength:
  0000a	cc		 int	 3
?_Xlength@?$vector@U_RANGDA_POS@@V?$allocator@U_RANGDA_POS@@@std@@@std@@CAXXZ ENDP ; std::vector<_RANGDA_POS,std::allocator<_RANGDA_POS> >::_Xlength
_TEXT	ENDS
; Function compile flags: /Ogtp
; File C:\Program Files\Microsoft Visual Studio\2022\Professional\VC\Tools\MSVC\14.44.35207\include\vector
; File C:\Program Files\Microsoft Visual Studio\2022\Professional\VC\Tools\MSVC\14.44.35207\include\xmemory
; File C:\Program Files\Microsoft Visual Studio\2022\Professional\VC\Tools\MSVC\14.44.35207\include\vector
; File C:\Program Files\Microsoft Visual Studio\2022\Professional\VC\Tools\MSVC\14.44.35207\include\xmemory
; File C:\Program Files\Microsoft Visual Studio\2022\Professional\VC\Tools\MSVC\14.44.35207\include\vector
; File C:\Program Files\Microsoft Visual Studio\2022\Professional\VC\Tools\MSVC\14.44.35207\include\xmemory
; File C:\Program Files\Microsoft Visual Studio\2022\Professional\VC\Tools\MSVC\14.44.35207\include\vector
;	COMDAT ??1?$vector@U_RANGDA_POS@@V?$allocator@U_RANGDA_POS@@@std@@@std@@QAE@XZ
_TEXT	SEGMENT
??1?$vector@U_RANGDA_POS@@V?$allocator@U_RANGDA_POS@@@std@@@std@@QAE@XZ PROC ; std::vector<_RANGDA_POS,std::allocator<_RANGDA_POS> >::~vector<_RANGDA_POS,std::allocator<_RANGDA_POS> >, COMDAT
; _this$ = ecx

; 829  :     _CONSTEXPR20 ~vector() noexcept {

  00000	56		 push	 esi
  00001	8b f1		 mov	 esi, ecx

; 2090 :         if (_Myfirst) { // destroy and deallocate old array

  00003	8b 06		 mov	 eax, DWORD PTR [esi]
  00005	85 c0		 test	 eax, eax
  00007	74 40		 je	 SHORT $LN5@vector

; 2091 :             _STD _Destroy_range(_Myfirst, _Mylast, _Al);
; 2092 :             _ASAN_VECTOR_REMOVE;
; 2093 :             _Al.deallocate(_Myfirst, static_cast<size_type>(_Myend - _Myfirst));

  00009	8b 4e 08	 mov	 ecx, DWORD PTR [esi+8]
  0000c	2b c8		 sub	 ecx, eax
; File C:\Program Files\Microsoft Visual Studio\2022\Professional\VC\Tools\MSVC\14.44.35207\include\xmemory

; 985  :         _STD _Deallocate<_New_alignof<_Ty>>(_Ptr, sizeof(_Ty) * _Count);

  0000e	83 e1 f0	 and	 ecx, -16		; fffffff0H

; 284  :         if (_Bytes >= _Big_allocation_threshold) {

  00011	81 f9 00 10 00
	00		 cmp	 ecx, 4096		; 00001000H
  00017	72 12		 jb	 SHORT $LN18@vector

; 205  :     const uintptr_t _Ptr_container   = _Ptr_user[-1];

  00019	8b 50 fc	 mov	 edx, DWORD PTR [eax-4]
  0001c	83 c1 23	 add	 ecx, 35			; 00000023H

; 206  : 
; 207  :     // If the following asserts, it likely means that we are performing
; 208  :     // an aligned delete on memory coming from an unaligned allocation.
; 209  :     _STL_ASSERT(_Ptr_user[-2] == _Big_allocation_sentinel, "invalid argument");
; 210  : 
; 211  :     // Extra paranoia on aligned allocation/deallocation; ensure _Ptr_container is
; 212  :     // in range [_Min_back_shift, _Non_user_size]
; 213  : #ifdef _DEBUG
; 214  :     constexpr uintptr_t _Min_back_shift = 2 * sizeof(void*);
; 215  : #else // ^^^ defined(_DEBUG) / !defined(_DEBUG) vvv
; 216  :     constexpr uintptr_t _Min_back_shift = sizeof(void*);
; 217  : #endif // ^^^ !defined(_DEBUG) ^^^
; 218  :     const uintptr_t _Back_shift = reinterpret_cast<uintptr_t>(_Ptr) - _Ptr_container;

  0001f	2b c2		 sub	 eax, edx

; 219  :     _STL_VERIFY(_Back_shift >= _Min_back_shift && _Back_shift <= _Non_user_size, "invalid argument");

  00021	83 c0 fc	 add	 eax, -4			; fffffffcH
  00024	83 f8 1f	 cmp	 eax, 31			; 0000001fH
  00027	77 22		 ja	 SHORT $LN17@vector

; 220  :     _Ptr = reinterpret_cast<void*>(_Ptr_container);

  00029	8b c2		 mov	 eax, edx
$LN18@vector:

; 289  :         ::operator delete(_Ptr, _Bytes);

  0002b	51		 push	 ecx
  0002c	50		 push	 eax
  0002d	e8 00 00 00 00	 call	 ??3@YAXPAXI@Z		; operator delete
; File C:\Program Files\Microsoft Visual Studio\2022\Professional\VC\Tools\MSVC\14.44.35207\include\vector

; 2095 :             _Myfirst = nullptr;

  00032	c7 06 00 00 00
	00		 mov	 DWORD PTR [esi], 0
; File C:\Program Files\Microsoft Visual Studio\2022\Professional\VC\Tools\MSVC\14.44.35207\include\xmemory

; 289  :         ::operator delete(_Ptr, _Bytes);

  00038	83 c4 08	 add	 esp, 8
; File C:\Program Files\Microsoft Visual Studio\2022\Professional\VC\Tools\MSVC\14.44.35207\include\vector

; 2096 :             _Mylast  = nullptr;

  0003b	c7 46 04 00 00
	00 00		 mov	 DWORD PTR [esi+4], 0

; 2097 :             _Myend   = nullptr;

  00042	c7 46 08 00 00
	00 00		 mov	 DWORD PTR [esi+8], 0
$LN5@vector:
  00049	5e		 pop	 esi

; 835  :     }

  0004a	c3		 ret	 0
$LN17@vector:
; File C:\Program Files\Microsoft Visual Studio\2022\Professional\VC\Tools\MSVC\14.44.35207\include\xmemory

; 219  :     _STL_VERIFY(_Back_shift >= _Min_back_shift && _Back_shift <= _Non_user_size, "invalid argument");

  0004b	6a 00		 push	 0
  0004d	6a 00		 push	 0
  0004f	6a 00		 push	 0
  00051	6a 00		 push	 0
  00053	6a 00		 push	 0
  00055	e8 00 00 00 00	 call	 __invoke_watson
$LN26@vector:
  0005a	cc		 int	 3
??1?$vector@U_RANGDA_POS@@V?$allocator@U_RANGDA_POS@@@std@@@std@@QAE@XZ ENDP ; std::vector<_RANGDA_POS,std::allocator<_RANGDA_POS> >::~vector<_RANGDA_POS,std::allocator<_RANGDA_POS> >
_TEXT	ENDS
; Function compile flags: /Ogtp
; File C:\IAGOS\server\v18\Source\Source\WorldServer\rangda.cpp
; File C:\IAGOS\server\v18\Source\Source\_Common\Obj.h
; File C:\IAGOS\server\v18\Source\Source\WorldServer\rangda.cpp
;	COMDAT ?GetMonster@CRangda@@AAEPAVCMover@@XZ
_TEXT	SEGMENT
?GetMonster@CRangda@@AAEPAVCMover@@XZ PROC		; CRangda::GetMonster, COMDAT
; _this$ = ecx

; 82   : {	// ˝Ç °´ĂĽŔÇ Ć÷ŔÎĹÍ¸¦ ąÝČŻ

  00000	56		 push	 esi
  00001	8b f1		 mov	 esi, ecx

; 83   : 	if( m_objid != NULL_ID )

  00003	8b 46 30	 mov	 eax, DWORD PTR [esi+48]
  00006	83 f8 ff	 cmp	 eax, -1
  00009	74 1c		 je	 SHORT $LN2@GetMonster

; 84   : 	{
; 85   : 		CMover* pMonster	= prj.GetMover( m_objid );

  0000b	50		 push	 eax
  0000c	b9 00 00 00 00	 mov	 ecx, OFFSET ?prj@@3VCProject@@A ; prj
  00011	e8 00 00 00 00	 call	 ?GetMover@CProject@@QAEPAVCMover@@K@Z ; CProject::GetMover
; File C:\IAGOS\server\v18\Source\Source\_Common\Obj.h

; 327  : 	return pObj && ( pObj->IsDelete() == FALSE ); 

  00016	85 c0		 test	 eax, eax
  00018	74 06		 je	 SHORT $LN3@GetMonster

; 180  : 	BOOL			IsDelete()	{ return (m_dwFlags & OBJ_FLAG_DELETE);  }

  0001a	f6 40 04 01	 test	 BYTE PTR [eax+4], 1

; 327  : 	return pObj && ( pObj->IsDelete() == FALSE ); 

  0001e	74 09		 je	 SHORT $LN1@GetMonster
$LN3@GetMonster:
; File C:\IAGOS\server\v18\Source\Source\WorldServer\rangda.cpp

; 88   : 		m_objid		= NULL_ID;

  00020	c7 46 30 ff ff
	ff ff		 mov	 DWORD PTR [esi+48], -1
$LN2@GetMonster:

; 89   : 	}
; 90   : 	return NULL;

  00027	33 c0		 xor	 eax, eax
$LN1@GetMonster:
  00029	5e		 pop	 esi

; 91   : }

  0002a	c3		 ret	 0
?GetMonster@CRangda@@AAEPAVCMover@@XZ ENDP		; CRangda::GetMonster
_TEXT	ENDS
; Function compile flags: /Ogtp
; File C:\IAGOS\server\v18\Source\Source\WorldServer\rangda.cpp
;	COMDAT ?ProcessGenerate@CRangda@@AAEXXZ
_TEXT	SEGMENT
?ProcessGenerate@CRangda@@AAEXXZ PROC			; CRangda::ProcessGenerate, COMDAT
; _this$ = ecx

; 109  : {

  00000	56		 push	 esi
  00001	8b f1		 mov	 esi, ecx

; 110  : 	if( HavetoGenerate() )	// Ŕç»ý Á¶°ÇŔ» ¸¸Á·ÇĎ¸é

  00003	e8 00 00 00 00	 call	 ?HavetoGenerate@CRangda@@AAEHXZ ; CRangda::HavetoGenerate
  00008	85 c0		 test	 eax, eax
  0000a	74 15		 je	 SHORT $LN2@ProcessGen

; 111  : 	{
; 112  : 		election::OutputDebugString( "CRangda.ProcessGenerate:" );

  0000c	68 00 00 00 00	 push	 OFFSET ??_C@_0BJ@FGFPLBDO@CRangda?4ProcessGenerate?3@
  00011	e8 00 00 00 00	 call	 ?OutputDebugStringA@election@@YAXPBDZZ ; election::OutputDebugStringA
  00016	83 c4 04	 add	 esp, 4

; 113  : 		CreateMonster();	// »ő·Î »ýĽşÇŃ´Ů

  00019	8b ce		 mov	 ecx, esi
  0001b	5e		 pop	 esi
  0001c	e9 00 00 00 00	 jmp	 ?CreateMonster@CRangda@@AAEXXZ ; CRangda::CreateMonster
$LN2@ProcessGen:
  00021	5e		 pop	 esi

; 114  : 	}
; 115  : }

  00022	c3		 ret	 0
?ProcessGenerate@CRangda@@AAEXXZ ENDP			; CRangda::ProcessGenerate
_TEXT	ENDS
; Function compile flags: /Ogtp
; File C:\IAGOS\server\v18\Source\Source\WorldServer\rangda.cpp
;	COMDAT ?ProcessReplace@CRangda@@AAEXPAVCMover@@@Z
_TEXT	SEGMENT
_pMonster$ = 8						; size = 4
?ProcessReplace@CRangda@@AAEXPAVCMover@@@Z PROC		; CRangda::ProcessReplace, COMDAT
; _this$ = ecx

; 94   : {	// ŔÓŔÇŔÇ ÁÂÇĄ·Î ŔĚµż

  00000	55		 push	 ebp
  00001	8b ec		 mov	 ebp, esp
  00003	56		 push	 esi
  00004	8b f1		 mov	 esi, ecx

; 95   : 	if( m_bReplaceable )

  00006	83 7e 28 00	 cmp	 DWORD PTR [esi+40], 0
  0000a	74 3f		 je	 SHORT $LN5@ProcessRep

; 96   : 	{
; 97   : 		if( IsDamaged( pMonster ) )		// »óĂł ŔÔľúŔ¸¸é

  0000c	ff 75 08	 push	 DWORD PTR _pMonster$[ebp]
  0000f	e8 00 00 00 00	 call	 ?IsDamaged@CRangda@@AAEHPAVCMover@@@Z ; CRangda::IsDamaged
  00014	85 c0		 test	 eax, eax
  00016	74 0c		 je	 SHORT $LN3@ProcessRep

; 98   : 			m_bReplaceable	= FALSE;	// ŔĚµż˝ĂĹ°Áö ľĘ´Â´Ů

  00018	c7 46 28 00 00
	00 00		 mov	 DWORD PTR [esi+40], 0
  0001f	5e		 pop	 esi

; 104  : 		}
; 105  : 	}
; 106  : }

  00020	5d		 pop	 ebp
  00021	c2 04 00	 ret	 4
$LN3@ProcessRep:

; 99   : 		else if( HavetoReplace() )	// ŔĚµżÇŇ Á¶°ÇŔ» ¸¸Á·ÇĎ¸é

  00024	8b ce		 mov	 ecx, esi
  00026	e8 00 00 00 00	 call	 ?HavetoReplace@CRangda@@AAEHXZ ; CRangda::HavetoReplace
  0002b	85 c0		 test	 eax, eax
  0002d	74 1c		 je	 SHORT $LN5@ProcessRep

; 100  : 		{
; 101  : 			election::OutputDebugString( "CRangda.ProcessReplace:" );

  0002f	68 00 00 00 00	 push	 OFFSET ??_C@_0BI@HBEONIOH@CRangda?4ProcessReplace?3@
  00034	e8 00 00 00 00	 call	 ?OutputDebugStringA@election@@YAXPBDZZ ; election::OutputDebugStringA

; 102  : 			pMonster->Delete();		// Á¦°ĹÇĎ°í

  00039	8b 4d 08	 mov	 ecx, DWORD PTR _pMonster$[ebp]
  0003c	83 c4 04	 add	 esp, 4
  0003f	e8 00 00 00 00	 call	 ?Delete@CObj@@QAEXXZ	; CObj::Delete

; 103  : 			CreateMonster();	// »ő·Î »ýĽşÇŃ´Ů

  00044	8b ce		 mov	 ecx, esi
  00046	e8 00 00 00 00	 call	 ?CreateMonster@CRangda@@AAEXXZ ; CRangda::CreateMonster
$LN5@ProcessRep:
  0004b	5e		 pop	 esi

; 104  : 		}
; 105  : 	}
; 106  : }

  0004c	5d		 pop	 ebp
  0004d	c2 04 00	 ret	 4
?ProcessReplace@CRangda@@AAEXPAVCMover@@@Z ENDP		; CRangda::ProcessReplace
_TEXT	ENDS
; Function compile flags: /Ogtp
; File C:\IAGOS\server\v18\Source\Source\WorldServer\rangda.cpp
;	COMDAT ?IsDamaged@CRangda@@AAEHPAVCMover@@@Z
_TEXT	SEGMENT
_pMonster$ = 8						; size = 4
?IsDamaged@CRangda@@AAEHPAVCMover@@@Z PROC		; CRangda::IsDamaged, COMDAT
; _this$ = ecx

; 118  : {	// »óĂł ŔÔľúłŞ?

  00000	55		 push	 ebp
  00001	8b ec		 mov	 ebp, esp

; 119  : 	return ( pMonster->GetHitPoint() < pMonster->GetMaxHitPoint() );

  00003	8b 4d 08	 mov	 ecx, DWORD PTR _pMonster$[ebp]
  00006	57		 push	 edi
  00007	e8 00 00 00 00	 call	 ?GetHitPoint@CMover@@QAEHXZ ; CMover::GetHitPoint
  0000c	8b 4d 08	 mov	 ecx, DWORD PTR _pMonster$[ebp]
  0000f	8b f8		 mov	 edi, eax
  00011	e8 00 00 00 00	 call	 ?GetMaxHitPoint@CMover@@QAEHXZ ; CMover::GetMaxHitPoint
  00016	33 c9		 xor	 ecx, ecx
  00018	3b f8		 cmp	 edi, eax
  0001a	5f		 pop	 edi
  0001b	0f 9c c1	 setl	 cl
  0001e	8b c1		 mov	 eax, ecx

; 120  : }

  00020	5d		 pop	 ebp
  00021	c2 04 00	 ret	 4
?IsDamaged@CRangda@@AAEHPAVCMover@@@Z ENDP		; CRangda::IsDamaged
_TEXT	ENDS
; Function compile flags: /Ogtp
; File C:\IAGOS\server\v18\Source\Source\WorldServer\rangda.cpp
; File C:\IAGOS\server\v18\Source\Source\_Common\Obj.h
; File C:\IAGOS\server\v18\Source\Source\WorldServer\rangda.cpp
; File C:\IAGOS\server\v18\Source\Source\_Common\Obj.h
; File C:\IAGOS\server\v18\Source\Source\WorldServer\rangda.cpp
;	COMDAT ?CreateMonster@CRangda@@AAEXXZ
_TEXT	SEGMENT
$T1 = -56						; size = 12
$T2 = -44						; size = 12
$T3 = -32						; size = 12
_pos$ = -20						; size = 16
__$ArrayPad$ = -4					; size = 4
?CreateMonster@CRangda@@AAEXXZ PROC			; CRangda::CreateMonster, COMDAT
; _this$ = ecx

; 137  : {	// ¸ó˝şĹÍ »ýĽş

  00000	55		 push	 ebp
  00001	8b ec		 mov	 ebp, esp
  00003	83 ec 38	 sub	 esp, 56			; 00000038H
  00006	a1 00 00 00 00	 mov	 eax, DWORD PTR ___security_cookie
  0000b	33 c5		 xor	 eax, ebp
  0000d	89 45 fc	 mov	 DWORD PTR __$ArrayPad$[ebp], eax
  00010	53		 push	 ebx
  00011	57		 push	 edi

; 138  : 	RANGDA_POS pos	= GetRandomPos();

  00012	8d 45 ec	 lea	 eax, DWORD PTR _pos$[ebp]
  00015	8b f9		 mov	 edi, ecx
  00017	50		 push	 eax
  00018	e8 00 00 00 00	 call	 ?GetRandomPos@CRangda@@AAE?AU_RANGDA_POS@@XZ ; CRangda::GetRandomPos

; 139  : 	CWorld* pWorld	= g_WorldMng.GetWorld( pos.dwWorldId );

  0001d	ff 75 ec	 push	 DWORD PTR _pos$[ebp]
  00020	b9 00 00 00 00	 mov	 ecx, OFFSET ?g_WorldMng@@3VCWorldMng@@A ; g_WorldMng
  00025	e8 00 00 00 00	 call	 ?GetWorld@CWorldMng@@QAEPAVCWorld@@K@Z ; CWorldMng::GetWorld
  0002a	8b d8		 mov	 ebx, eax

; 140  : 	if( !pWorld )

  0002c	85 db		 test	 ebx, ebx
  0002e	0f 84 cc 00 00
	00		 je	 $LN3@CreateMons

; 141  : 		return;
; 142  : 	CMover* pMonster	= static_cast<CMover*>( ::CreateObj( D3DDEVICE, OT_MOVER, m_dwMonster ) );

  00034	56		 push	 esi
  00035	6a 01		 push	 1
  00037	ff 77 04	 push	 DWORD PTR [edi+4]
  0003a	6a 05		 push	 5
  0003c	6a 00		 push	 0
  0003e	e8 00 00 00 00	 call	 ?CreateObj@@YAPAVCObj@@PAUIDirect3DDevice9@@KKH@Z ; CreateObj
  00043	8b f0		 mov	 esi, eax
  00045	83 c4 10	 add	 esp, 16			; 00000010H

; 143  : 	if( pMonster )

  00048	85 f6		 test	 esi, esi
  0004a	0f 84 af 00 00
	00		 je	 $LN15@CreateMons

; 144  : 	{
; 145  : 		pMonster->m_bActiveAttack	= m_bActiveAttack;

  00050	8b 4f 10	 mov	 ecx, DWORD PTR [edi+16]

; 146  : 		pMonster->SetPos( pos.vPos );

  00053	8d 45 f0	 lea	 eax, DWORD PTR _pos$[ebp+4]
  00056	89 8e 68 06 00
	00		 mov	 DWORD PTR [esi+1640], ecx
  0005c	8b ce		 mov	 ecx, esi
  0005e	50		 push	 eax
  0005f	e8 00 00 00 00	 call	 ?SetPos@CObj@@QAEXABUD3DXVECTOR3@@@Z ; CObj::SetPos

; 147  : 		pMonster->InitMotion( MTI_STAND );

  00064	8b 06		 mov	 eax, DWORD PTR [esi]
  00066	8b ce		 mov	 ecx, esi
  00068	6a 00		 push	 0
  0006a	ff 50 08	 call	 DWORD PTR [eax+8]

; 148  : 		pMonster->UpdateLocalMatrix();

  0006d	8b ce		 mov	 ecx, esi
  0006f	e8 00 00 00 00	 call	 ?UpdateLocalMatrix@CObj@@QAEXXZ ; CObj::UpdateLocalMatrix

; 149  : 		pMonster->AddItToGlobalId();

  00074	8b 06		 mov	 eax, DWORD PTR [esi]
  00076	8b ce		 mov	 ecx, esi
  00078	ff 50 3c	 call	 DWORD PTR [eax+60]

; 150  : 		pWorld->ADDOBJ( pMonster, FALSE, nDefaultLayer );

  0007b	6a 00		 push	 0
  0007d	6a 00		 push	 0
  0007f	56		 push	 esi
  00080	8b cb		 mov	 ecx, ebx
  00082	e8 00 00 00 00	 call	 ?AddObj@CWorld@@QAEHPAVCObj@@HH@Z ; CWorld::AddObj

; 151  : 		SetObj( pMonster->GetId() );

  00087	ff b6 bc 01 00
	00		 push	 DWORD PTR [esi+444]
  0008d	8b cf		 mov	 ecx, edi
  0008f	e8 00 00 00 00	 call	 ?SetObj@CRangda@@AAEXK@Z ; CRangda::SetObj
; File C:\IAGOS\server\v18\Source\Source\_Common\Obj.h

; 215  : 	D3DXVECTOR3		GetPos()	{ return m_vPos; }

  00094	f3 0f 7e 86 60
	01 00 00	 movq	 xmm0, QWORD PTR [esi+352]
; File C:\IAGOS\server\v18\Source\Source\WorldServer\rangda.cpp

; 152  : 		election::OutputDebugString( "CRangda.CreateMonster: monster = %d, x = %0.2f, y = %0.2f, z = %0.2f\n",

  0009c	83 ec 18	 sub	 esp, 24			; 00000018H
; File C:\IAGOS\server\v18\Source\Source\_Common\Obj.h

; 215  : 	D3DXVECTOR3		GetPos()	{ return m_vPos; }

  0009f	8b 86 68 01 00
	00		 mov	 eax, DWORD PTR [esi+360]
  000a5	66 0f d6 45 e0	 movq	 QWORD PTR $T3[ebp], xmm0
  000aa	f3 0f 7e c0	 movq	 xmm0, xmm0
  000ae	66 0f d6 45 d4	 movq	 QWORD PTR $T2[ebp], xmm0
  000b3	f3 0f 7e 86 60
	01 00 00	 movq	 xmm0, QWORD PTR [esi+352]
  000bb	66 0f d6 45 c8	 movq	 QWORD PTR $T1[ebp], xmm0
  000c0	89 45 e8	 mov	 DWORD PTR $T3[ebp+8], eax
  000c3	f3 0f 10 45 e8	 movss	 xmm0, DWORD PTR $T3[ebp+8]
; File C:\IAGOS\server\v18\Source\Source\WorldServer\rangda.cpp

; 152  : 		election::OutputDebugString( "CRangda.CreateMonster: monster = %d, x = %0.2f, y = %0.2f, z = %0.2f\n",

  000c8	0f 5a c0	 cvtps2pd xmm0, xmm0
  000cb	f2 0f 11 44 24
	10		 movsd	 QWORD PTR [esp+16], xmm0
  000d1	f3 0f 10 45 d8	 movss	 xmm0, DWORD PTR $T2[ebp+4]
  000d6	0f 5a c0	 cvtps2pd xmm0, xmm0
  000d9	f2 0f 11 44 24
	08		 movsd	 QWORD PTR [esp+8], xmm0
  000df	f3 0f 10 45 c8	 movss	 xmm0, DWORD PTR $T1[ebp]
  000e4	0f 5a c0	 cvtps2pd xmm0, xmm0
  000e7	f2 0f 11 04 24	 movsd	 QWORD PTR [esp], xmm0
  000ec	ff b6 74 01 00
	00		 push	 DWORD PTR [esi+372]
  000f2	68 00 00 00 00	 push	 OFFSET ??_C@_0EG@BHMGAOAH@CRangda?4CreateMonster?3?5monster?5@
  000f7	e8 00 00 00 00	 call	 ?OutputDebugStringA@election@@YAXPBDZZ ; election::OutputDebugStringA
  000fc	83 c4 20	 add	 esp, 32			; 00000020H
$LN15@CreateMons:
  000ff	5e		 pop	 esi
$LN3@CreateMons:

; 153  : 			pMonster->GetIndex(), pMonster->GetPos().x, pMonster->GetPos().y, pMonster->GetPos().z );
; 154  : 	}
; 155  : }

  00100	8b 4d fc	 mov	 ecx, DWORD PTR __$ArrayPad$[ebp]
  00103	5f		 pop	 edi
  00104	33 cd		 xor	 ecx, ebp
  00106	5b		 pop	 ebx
  00107	e8 00 00 00 00	 call	 @__security_check_cookie@4
  0010c	8b e5		 mov	 esp, ebp
  0010e	5d		 pop	 ebp
  0010f	c3		 ret	 0
?CreateMonster@CRangda@@AAEXXZ ENDP			; CRangda::CreateMonster
_TEXT	ENDS
; Function compile flags: /Ogtp
; File C:\IAGOS\server\v18\Source\Source\WorldServer\rangda.cpp
;	COMDAT ?HavetoReplace@CRangda@@AAEHXZ
_TEXT	SEGMENT
?HavetoReplace@CRangda@@AAEHXZ PROC			; CRangda::HavetoReplace, COMDAT
; _this$ = ecx

; 124  : 	if( m_nReplaceCountdown > 0 )

  00000	8b 51 24	 mov	 edx, DWORD PTR [ecx+36]
  00003	85 d2		 test	 edx, edx
  00005	7e 04		 jle	 SHORT $LN2@HavetoRepl

; 125  : 		m_nReplaceCountdown--;

  00007	4a		 dec	 edx
  00008	89 51 24	 mov	 DWORD PTR [ecx+36], edx
$LN2@HavetoRepl:

; 126  : 	return ( m_nReplaceCountdown == 0 );

  0000b	33 c0		 xor	 eax, eax
  0000d	85 d2		 test	 edx, edx
  0000f	0f 94 c0	 sete	 al

; 127  : }

  00012	c3		 ret	 0
?HavetoReplace@CRangda@@AAEHXZ ENDP			; CRangda::HavetoReplace
_TEXT	ENDS
; Function compile flags: /Ogtp
; File C:\IAGOS\server\v18\Source\Source\WorldServer\rangda.cpp
;	COMDAT ?HavetoGenerate@CRangda@@AAEHXZ
_TEXT	SEGMENT
?HavetoGenerate@CRangda@@AAEHXZ PROC			; CRangda::HavetoGenerate, COMDAT
; _this$ = ecx

; 131  : 	if( m_nGenerateCountdown > 0 )

  00000	8b 51 20	 mov	 edx, DWORD PTR [ecx+32]
  00003	85 d2		 test	 edx, edx
  00005	7e 04		 jle	 SHORT $LN2@HavetoGene

; 132  : 		m_nGenerateCountdown--;

  00007	4a		 dec	 edx
  00008	89 51 20	 mov	 DWORD PTR [ecx+32], edx
$LN2@HavetoGene:

; 133  : 	return ( m_nGenerateCountdown == 0 );

  0000b	33 c0		 xor	 eax, eax
  0000d	85 d2		 test	 edx, edx
  0000f	0f 94 c0	 sete	 al

; 134  : }

  00012	c3		 ret	 0
?HavetoGenerate@CRangda@@AAEHXZ ENDP			; CRangda::HavetoGenerate
_TEXT	ENDS
; Function compile flags: /Ogtp
; File C:\IAGOS\server\v18\Source\Source\WorldServer\rangda.cpp
;	COMDAT ?SetObj@CRangda@@AAEXK@Z
_TEXT	SEGMENT
_objid$ = 8						; size = 4
?SetObj@CRangda@@AAEXK@Z PROC				; CRangda::SetObj, COMDAT
; _this$ = ecx

; 65   : {	// ÇöŔç »ýĽşµČ ˝Ç °´ĂĽ¸¦ ĽłÁ¤

  00000	55		 push	 ebp
  00001	8b ec		 mov	 ebp, esp

; 66   : 	m_objid		= objid;

  00003	8b 45 08	 mov	 eax, DWORD PTR _objid$[ebp]
  00006	89 41 30	 mov	 DWORD PTR [ecx+48], eax

; 67   : 	m_nGenerateCountdown	= m_nInterval;

  00009	8b 41 08	 mov	 eax, DWORD PTR [ecx+8]
  0000c	89 41 20	 mov	 DWORD PTR [ecx+32], eax

; 68   : 	m_nReplaceCountdown		= m_nReplace;

  0000f	8b 41 0c	 mov	 eax, DWORD PTR [ecx+12]
  00012	89 41 24	 mov	 DWORD PTR [ecx+36], eax

; 69   : 	m_bReplaceable	= TRUE;

  00015	c7 41 28 01 00
	00 00		 mov	 DWORD PTR [ecx+40], 1

; 70   : }

  0001c	5d		 pop	 ebp
  0001d	c2 04 00	 ret	 4
?SetObj@CRangda@@AAEXK@Z ENDP				; CRangda::SetObj
_TEXT	ENDS
; Function compile flags: /Ogtp
; File C:\IAGOS\server\v18\Source\Source\WorldServer\rangda.cpp
; File C:\Program Files\Microsoft Visual Studio\2022\Professional\VC\Tools\MSVC\14.44.35207\include\vector
; File C:\IAGOS\server\v18\Source\Source\WorldServer\rangda.cpp
; File C:\Program Files\Microsoft Visual Studio\2022\Professional\VC\Tools\MSVC\14.44.35207\include\vector
; File C:\IAGOS\server\v18\Source\Source\WorldServer\rangda.cpp
; File C:\Program Files\Microsoft Visual Studio\2022\Professional\VC\Tools\MSVC\14.44.35207\include\vector
; File C:\IAGOS\server\v18\Source\Source\WorldServer\rangda.cpp
;	COMDAT ?GetRandomPos@CRangda@@AAE?AU_RANGDA_POS@@XZ
_TEXT	SEGMENT
___$ReturnUdt$ = 8					; size = 4
?GetRandomPos@CRangda@@AAE?AU_RANGDA_POS@@XZ PROC	; CRangda::GetRandomPos, COMDAT
; _this$ = ecx

; 47   : {	// Ăß°ˇµČ ÁÂÇĄ Áß ÇĎłŞ¸¦ ŔÓŔÇ·Î ąÝČŻ

  00000	55		 push	 ebp
  00001	8b ec		 mov	 ebp, esp
  00003	56		 push	 esi
  00004	8b f1		 mov	 esi, ecx
; File C:\Program Files\Microsoft Visual Studio\2022\Professional\VC\Tools\MSVC\14.44.35207\include\vector

; 1915 :         return static_cast<size_type>(_My_data._Mylast - _My_data._Myfirst);

  00006	8b 46 18	 mov	 eax, DWORD PTR [esi+24]
  00009	8b 4e 14	 mov	 ecx, DWORD PTR [esi+20]
  0000c	2b c1		 sub	 eax, ecx
; File C:\IAGOS\server\v18\Source\Source\WorldServer\rangda.cpp

; 52   : 	if( m_vvPos.size() == 1 )

  0000e	83 e0 f0	 and	 eax, -16		; fffffff0H
  00011	83 f8 10	 cmp	 eax, 16			; 00000010H
  00014	75 0e		 jne	 SHORT $LL4@GetRandomP

; 62   : }

  00016	8b 45 08	 mov	 eax, DWORD PTR ___$ReturnUdt$[ebp]
  00019	0f 10 01	 movups	 xmm0, XMMWORD PTR [ecx]
  0001c	5e		 pop	 esi
  0001d	0f 11 00	 movups	 XMMWORD PTR [eax], xmm0
  00020	5d		 pop	 ebp
  00021	c2 04 00	 ret	 4
$LL4@GetRandomP:
; File C:\Program Files\Microsoft Visual Studio\2022\Professional\VC\Tools\MSVC\14.44.35207\include\vector

; 1915 :         return static_cast<size_type>(_My_data._Mylast - _My_data._Myfirst);

  00024	8b 46 18	 mov	 eax, DWORD PTR [esi+24]
  00027	2b 46 14	 sub	 eax, DWORD PTR [esi+20]
  0002a	c1 f8 04	 sar	 eax, 4
; File C:\IAGOS\server\v18\Source\Source\WorldServer\rangda.cpp

; 57   : 		nPos	= xRandom( 0, m_vvPos.size() );

  0002d	50		 push	 eax
  0002e	6a 00		 push	 0
  00030	e8 00 00 00 00	 call	 ?xRandom@@YAKKK@Z	; xRandom
  00035	83 c4 08	 add	 esp, 8

; 58   : 	}	while( nPos == m_nOldPos );

  00038	3b 46 2c	 cmp	 eax, DWORD PTR [esi+44]
  0003b	74 e7		 je	 SHORT $LL4@GetRandomP

; 59   : 
; 60   : 	m_nOldPos	= nPos;

  0003d	89 46 2c	 mov	 DWORD PTR [esi+44], eax
; File C:\Program Files\Microsoft Visual Studio\2022\Professional\VC\Tools\MSVC\14.44.35207\include\vector

; 1934 :         return _My_data._Myfirst[_Pos];

  00040	c1 e0 04	 shl	 eax, 4
  00043	03 46 14	 add	 eax, DWORD PTR [esi+20]
  00046	5e		 pop	 esi
; File C:\IAGOS\server\v18\Source\Source\WorldServer\rangda.cpp

; 61   : 	return m_vvPos[nPos];

  00047	0f 10 00	 movups	 xmm0, XMMWORD PTR [eax]

; 62   : }

  0004a	8b 45 08	 mov	 eax, DWORD PTR ___$ReturnUdt$[ebp]
  0004d	0f 11 00	 movups	 XMMWORD PTR [eax], xmm0
  00050	5d		 pop	 ebp
  00051	c2 04 00	 ret	 4
?GetRandomPos@CRangda@@AAE?AU_RANGDA_POS@@XZ ENDP	; CRangda::GetRandomPos
_TEXT	ENDS
; Function compile flags: /Ogtp
; File C:\IAGOS\server\v18\Source\Source\WorldServer\rangda.cpp
; File C:\IAGOS\server\v18\Source\Source\_Common\Obj.h
; File C:\IAGOS\server\v18\Source\Source\WorldServer\rangda.cpp
;	COMDAT ?OnTimer@CRangda@@QAEXXZ
_TEXT	SEGMENT
?OnTimer@CRangda@@QAEXXZ PROC				; CRangda::OnTimer, COMDAT
; _this$ = ecx

; 73   : {

  00000	56		 push	 esi
  00001	8b f1		 mov	 esi, ecx

; 74   : 	CMover* pMonster	= GetMonster();

  00003	e8 00 00 00 00	 call	 ?GetMonster@CRangda@@AAEPAVCMover@@XZ ; CRangda::GetMonster
; File C:\IAGOS\server\v18\Source\Source\_Common\Obj.h

; 327  : 	return pObj && ( pObj->IsDelete() == FALSE ); 

  00008	85 c0		 test	 eax, eax
  0000a	74 10		 je	 SHORT $LN2@OnTimer

; 180  : 	BOOL			IsDelete()	{ return (m_dwFlags & OBJ_FLAG_DELETE);  }

  0000c	f6 40 04 01	 test	 BYTE PTR [eax+4], 1

; 327  : 	return pObj && ( pObj->IsDelete() == FALSE ); 

  00010	75 0a		 jne	 SHORT $LN2@OnTimer
; File C:\IAGOS\server\v18\Source\Source\WorldServer\rangda.cpp

; 76   : 		ProcessReplace( pMonster );		// Á¶°ÇŔ» ¸¸Á·ÇĎ¸é ŔÓŔÇŔÇ ÁÂÇĄ·Î ŔĚµż˝ĂĹ˛´Ů

  00012	50		 push	 eax
  00013	8b ce		 mov	 ecx, esi
  00015	e8 00 00 00 00	 call	 ?ProcessReplace@CRangda@@AAEXPAVCMover@@@Z ; CRangda::ProcessReplace
  0001a	5e		 pop	 esi

; 79   : }

  0001b	c3		 ret	 0
$LN2@OnTimer:

; 77   : 	else	// °´ĂĽ°ˇ Á¸ŔçÇĎÁö ľĘŔ¸¸é Ŕç»ý
; 78   : 		ProcessGenerate();

  0001c	8b ce		 mov	 ecx, esi
  0001e	5e		 pop	 esi
  0001f	e9 00 00 00 00	 jmp	 ?ProcessGenerate@CRangda@@AAEXXZ ; CRangda::ProcessGenerate
?OnTimer@CRangda@@QAEXXZ ENDP				; CRangda::OnTimer
_TEXT	ENDS
; Function compile flags: /Ogtp
; File C:\IAGOS\server\v18\Source\Source\WorldServer\rangda.cpp
; File C:\Program Files\Microsoft Visual Studio\2022\Professional\VC\Tools\MSVC\14.44.35207\include\vector
; File C:\IAGOS\server\v18\Source\Source\WorldServer\rangda.cpp
; File C:\Program Files\Microsoft Visual Studio\2022\Professional\VC\Tools\MSVC\14.44.35207\include\vector
; File C:\Program Files\Microsoft Visual Studio\2022\Professional\VC\Tools\MSVC\14.44.35207\include\xutility
; File C:\Program Files\Microsoft Visual Studio\2022\Professional\VC\Tools\MSVC\14.44.35207\include\vector
; File C:\IAGOS\server\v18\Source\Source\WorldServer\rangda.cpp
; File C:\Program Files\Microsoft Visual Studio\2022\Professional\VC\Tools\MSVC\14.44.35207\include\vector
; File C:\IAGOS\server\v18\Source\Source\WorldServer\rangda.cpp
;	COMDAT ?AddPos@CRangda@@QAEXABU_RANGDA_POS@@@Z
_TEXT	SEGMENT
_vPos$ = 8						; size = 4
?AddPos@CRangda@@QAEXABU_RANGDA_POS@@@Z PROC		; CRangda::AddPos, COMDAT
; _this$ = ecx

; 42   : {	// ÁÂÇĄ Ăß°ˇ

  00000	55		 push	 ebp
  00001	8b ec		 mov	 ebp, esp
; File C:\Program Files\Microsoft Visual Studio\2022\Professional\VC\Tools\MSVC\14.44.35207\include\vector

; 844  :         if (_Mylast != _My_data._Myend) {

  00003	8b 51 18	 mov	 edx, DWORD PTR [ecx+24]
; File C:\IAGOS\server\v18\Source\Source\WorldServer\rangda.cpp

; 43   : 	m_vvPos.push_back( vPos );

  00006	83 c1 14	 add	 ecx, 20			; 00000014H
; File C:\Program Files\Microsoft Visual Studio\2022\Professional\VC\Tools\MSVC\14.44.35207\include\vector

; 844  :         if (_Mylast != _My_data._Myend) {

  00009	3b 51 08	 cmp	 edx, DWORD PTR [ecx+8]
  0000c	74 11		 je	 SHORT $LN6@AddPos
; File C:\Program Files\Microsoft Visual Studio\2022\Professional\VC\Tools\MSVC\14.44.35207\include\xutility

; 476  :         ::new (static_cast<void*>(_STD addressof(_Obj))) _Ty(_STD forward<_Types>(_Args)...);

  0000e	8b 45 08	 mov	 eax, DWORD PTR _vPos$[ebp]
  00011	0f 10 00	 movups	 xmm0, XMMWORD PTR [eax]
  00014	0f 11 02	 movups	 XMMWORD PTR [edx], xmm0
; File C:\Program Files\Microsoft Visual Studio\2022\Professional\VC\Tools\MSVC\14.44.35207\include\vector

; 869  :         ++_Mylast;

  00017	83 41 04 10	 add	 DWORD PTR [ecx+4], 16	; 00000010H
; File C:\IAGOS\server\v18\Source\Source\WorldServer\rangda.cpp

; 44   : }

  0001b	5d		 pop	 ebp
  0001c	c2 04 00	 ret	 4
$LN6@AddPos:
; File C:\Program Files\Microsoft Visual Studio\2022\Professional\VC\Tools\MSVC\14.44.35207\include\vector

; 848  :         return *_Emplace_reallocate(_Mylast, _STD forward<_Valty>(_Val)...);

  0001f	ff 75 08	 push	 DWORD PTR _vPos$[ebp]
  00022	52		 push	 edx
  00023	e8 00 00 00 00	 call	 ??$_Emplace_reallocate@ABU_RANGDA_POS@@@?$vector@U_RANGDA_POS@@V?$allocator@U_RANGDA_POS@@@std@@@std@@AAEPAU_RANGDA_POS@@QAU2@ABU2@@Z ; std::vector<_RANGDA_POS,std::allocator<_RANGDA_POS> >::_Emplace_reallocate<_RANGDA_POS const &>
; File C:\IAGOS\server\v18\Source\Source\WorldServer\rangda.cpp

; 44   : }

  00028	5d		 pop	 ebp
  00029	c2 04 00	 ret	 4
?AddPos@CRangda@@QAEXABU_RANGDA_POS@@@Z ENDP		; CRangda::AddPos
_TEXT	ENDS
; Function compile flags: /Ogtp
; File C:\IAGOS\server\v18\Source\Source\WorldServer\rangda.cpp
;	COMDAT ??1CRangda@@UAE@XZ
_TEXT	SEGMENT
??1CRangda@@UAE@XZ PROC					; CRangda::~CRangda, COMDAT
; _this$ = ecx

; 38   : {

  00000	c7 01 00 00 00
	00		 mov	 DWORD PTR [ecx], OFFSET ??_7CRangda@@6B@

; 39   : }

  00006	83 c1 14	 add	 ecx, 20			; 00000014H
  00009	e9 00 00 00 00	 jmp	 ??1?$vector@U_RANGDA_POS@@V?$allocator@U_RANGDA_POS@@@std@@@std@@QAE@XZ ; std::vector<_RANGDA_POS,std::allocator<_RANGDA_POS> >::~vector<_RANGDA_POS,std::allocator<_RANGDA_POS> >
??1CRangda@@UAE@XZ ENDP					; CRangda::~CRangda
_TEXT	ENDS
; Function compile flags: /Ogtp
; File C:\IAGOS\server\v18\Source\Source\WorldServer\rangda.cpp
; File C:\Program Files\Microsoft Visual Studio\2022\Professional\VC\Tools\MSVC\14.44.35207\include\vector
; File C:\IAGOS\server\v18\Source\Source\WorldServer\rangda.cpp
;	COMDAT ??0CRangda@@QAE@KHHH@Z
_TEXT	SEGMENT
_this$ = -4						; size = 4
_dwMonster$ = 8						; size = 4
_nInterval$ = 12					; size = 4
_nReplace$ = 16						; size = 4
_bActiveAttack$ = 20					; size = 4
??0CRangda@@QAE@KHHH@Z PROC				; CRangda::CRangda, COMDAT
; _this$ = ecx

; 34   : {

  00000	55		 push	 ebp
  00001	8b ec		 mov	 ebp, esp
  00003	51		 push	 ecx

; 25   : m_dwMonster( dwMonster ),

  00004	8b 45 08	 mov	 eax, DWORD PTR _dwMonster$[ebp]
  00007	89 41 04	 mov	 DWORD PTR [ecx+4], eax

; 26   : m_nInterval( nInterval ),

  0000a	8b 45 0c	 mov	 eax, DWORD PTR _nInterval$[ebp]
  0000d	89 41 08	 mov	 DWORD PTR [ecx+8], eax

; 27   : m_nReplace( nReplace ),

  00010	8b 45 10	 mov	 eax, DWORD PTR _nReplace$[ebp]
  00013	89 41 0c	 mov	 DWORD PTR [ecx+12], eax

; 28   : m_bActiveAttack( bActiveAttack ),

  00016	8b 45 14	 mov	 eax, DWORD PTR _bActiveAttack$[ebp]
  00019	89 41 10	 mov	 DWORD PTR [ecx+16], eax

; 35   : }

  0001c	8b c1		 mov	 eax, ecx
  0001e	c7 01 00 00 00
	00		 mov	 DWORD PTR [ecx], OFFSET ??_7CRangda@@6B@
; File C:\Program Files\Microsoft Visual Studio\2022\Professional\VC\Tools\MSVC\14.44.35207\include\vector

; 400  :     _CONSTEXPR20 _Vector_val() noexcept : _Myfirst(), _Mylast(), _Myend() {}

  00024	c7 41 14 00 00
	00 00		 mov	 DWORD PTR [ecx+20], 0
  0002b	c7 41 18 00 00
	00 00		 mov	 DWORD PTR [ecx+24], 0
  00032	c7 41 1c 00 00
	00 00		 mov	 DWORD PTR [ecx+28], 0
; File C:\IAGOS\server\v18\Source\Source\WorldServer\rangda.cpp

; 34   : {

  00039	89 4d fc	 mov	 DWORD PTR _this$[ebp], ecx

; 29   : m_nGenerateCountdown( 0 ),

  0003c	c7 41 20 00 00
	00 00		 mov	 DWORD PTR [ecx+32], 0

; 30   : m_nReplaceCountdown( 0 ),

  00043	c7 41 24 00 00
	00 00		 mov	 DWORD PTR [ecx+36], 0

; 31   : m_bReplaceable( TRUE ),

  0004a	c7 41 28 01 00
	00 00		 mov	 DWORD PTR [ecx+40], 1

; 32   : m_nOldPos( -1 ),

  00051	c7 41 2c ff ff
	ff ff		 mov	 DWORD PTR [ecx+44], -1

; 33   : m_objid( NULL_ID )

  00058	c7 41 30 ff ff
	ff ff		 mov	 DWORD PTR [ecx+48], -1

; 35   : }

  0005f	8b e5		 mov	 esp, ebp
  00061	5d		 pop	 ebp
  00062	c2 10 00	 ret	 16			; 00000010H
??0CRangda@@QAE@KHHH@Z ENDP				; CRangda::CRangda
_TEXT	ENDS
; Function compile flags: /Ogtp
; File C:\IAGOS\server\v18\Source\Source\WorldServer\rangda.cpp
; File C:\Program Files\Microsoft Visual Studio\2022\Professional\VC\Tools\MSVC\14.44.35207\include\vector
; File C:\IAGOS\server\v18\Source\Source\WorldServer\rangda.cpp
;	COMDAT ??0CRangda@@QAE@K@Z
_TEXT	SEGMENT
_this$ = -4						; size = 4
_dwMonster$ = 8						; size = 4
??0CRangda@@QAE@K@Z PROC				; CRangda::CRangda, COMDAT
; _this$ = ecx

; 20   : {

  00000	55		 push	 ebp
  00001	8b ec		 mov	 ebp, esp
  00003	51		 push	 ecx

; 11   : m_dwMonster( dwMonster ),

  00004	8b 45 08	 mov	 eax, DWORD PTR _dwMonster$[ebp]
  00007	89 41 04	 mov	 DWORD PTR [ecx+4], eax

; 21   : }

  0000a	8b c1		 mov	 eax, ecx
  0000c	c7 01 00 00 00
	00		 mov	 DWORD PTR [ecx], OFFSET ??_7CRangda@@6B@
  00012	c7 41 08 00 00
	00 00		 mov	 DWORD PTR [ecx+8], 0
  00019	c7 41 0c 00 00
	00 00		 mov	 DWORD PTR [ecx+12], 0
  00020	c7 41 10 00 00
	00 00		 mov	 DWORD PTR [ecx+16], 0
; File C:\Program Files\Microsoft Visual Studio\2022\Professional\VC\Tools\MSVC\14.44.35207\include\vector

; 400  :     _CONSTEXPR20 _Vector_val() noexcept : _Myfirst(), _Mylast(), _Myend() {}

  00027	c7 41 14 00 00
	00 00		 mov	 DWORD PTR [ecx+20], 0
  0002e	c7 41 18 00 00
	00 00		 mov	 DWORD PTR [ecx+24], 0
  00035	c7 41 1c 00 00
	00 00		 mov	 DWORD PTR [ecx+28], 0
; File C:\IAGOS\server\v18\Source\Source\WorldServer\rangda.cpp

; 20   : {

  0003c	89 4d fc	 mov	 DWORD PTR _this$[ebp], ecx

; 12   : m_nInterval( 0 ),
; 13   : m_nReplace( 0 ),
; 14   : m_bActiveAttack( FALSE ),
; 15   : m_nGenerateCountdown( 0 ),

  0003f	c7 41 20 00 00
	00 00		 mov	 DWORD PTR [ecx+32], 0

; 16   : m_nReplaceCountdown( 0 ),

  00046	c7 41 24 00 00
	00 00		 mov	 DWORD PTR [ecx+36], 0

; 17   : m_bReplaceable( TRUE ),

  0004d	c7 41 28 01 00
	00 00		 mov	 DWORD PTR [ecx+40], 1

; 18   : m_nOldPos( -1 ),

  00054	c7 41 2c ff ff
	ff ff		 mov	 DWORD PTR [ecx+44], -1

; 19   : m_objid( NULL_ID )

  0005b	c7 41 30 ff ff
	ff ff		 mov	 DWORD PTR [ecx+48], -1

; 21   : }

  00062	8b e5		 mov	 esp, ebp
  00064	5d		 pop	 ebp
  00065	c2 04 00	 ret	 4
??0CRangda@@QAE@K@Z ENDP				; CRangda::CRangda
_TEXT	ENDS
; Function compile flags: /Ogtp
; File C:\Program Files\Microsoft Visual Studio\2022\Professional\VC\Tools\MSVC\14.44.35207\include\xmemory
;	COMDAT ??$_Allocate_manually_vector_aligned@U_Default_allocate_traits@std@@@std@@YAPAXI@Z
_TEXT	SEGMENT
__Bytes$ = 8						; size = 4
??$_Allocate_manually_vector_aligned@U_Default_allocate_traits@std@@@std@@YAPAXI@Z PROC ; std::_Allocate_manually_vector_aligned<std::_Default_allocate_traits>, COMDAT

; 182  : __declspec(allocator) void* _Allocate_manually_vector_aligned(const size_t _Bytes) {

  00000	55		 push	 ebp
  00001	8b ec		 mov	 ebp, esp

; 183  :     // allocate _Bytes manually aligned to at least _Big_allocation_alignment
; 184  :     const size_t _Block_size = _Non_user_size + _Bytes;

  00003	8b 45 08	 mov	 eax, DWORD PTR __Bytes$[ebp]
  00006	8d 48 23	 lea	 ecx, DWORD PTR [eax+35]

; 185  :     if (_Block_size <= _Bytes) {

  00009	3b c8		 cmp	 ecx, eax
  0000b	0f 86 00 00 00
	00		 jbe	 ?_Throw_bad_array_new_length@std@@YAXXZ ; std::_Throw_bad_array_new_length

; 136  :         return ::operator new(_Bytes);

  00011	51		 push	 ecx
  00012	e8 00 00 00 00	 call	 ??2@YAPAXI@Z		; operator new

; 186  :         _Throw_bad_array_new_length(); // add overflow
; 187  :     }
; 188  : 
; 189  :     const uintptr_t _Ptr_container = reinterpret_cast<uintptr_t>(_Traits::_Allocate(_Block_size));

  00017	8b c8		 mov	 ecx, eax

; 136  :         return ::operator new(_Bytes);

  00019	83 c4 04	 add	 esp, 4

; 190  :     _STL_VERIFY(_Ptr_container != 0, "invalid argument"); // validate even in release since we're doing p[-1]

  0001c	85 c9		 test	 ecx, ecx
  0001e	74 0b		 je	 SHORT $LN9@Allocate_m

; 191  :     void* const _Ptr = reinterpret_cast<void*>((_Ptr_container + _Non_user_size) & ~(_Big_allocation_alignment - 1));

  00020	8d 41 23	 lea	 eax, DWORD PTR [ecx+35]
  00023	83 e0 e0	 and	 eax, -32		; ffffffe0H

; 192  :     static_cast<uintptr_t*>(_Ptr)[-1] = _Ptr_container;

  00026	89 48 fc	 mov	 DWORD PTR [eax-4], ecx

; 193  : 
; 194  : #ifdef _DEBUG
; 195  :     static_cast<uintptr_t*>(_Ptr)[-2] = _Big_allocation_sentinel;
; 196  : #endif // defined(_DEBUG)
; 197  :     return _Ptr;
; 198  : }

  00029	5d		 pop	 ebp
  0002a	c3		 ret	 0
$LN9@Allocate_m:

; 190  :     _STL_VERIFY(_Ptr_container != 0, "invalid argument"); // validate even in release since we're doing p[-1]

  0002b	6a 00		 push	 0
  0002d	6a 00		 push	 0
  0002f	6a 00		 push	 0
  00031	6a 00		 push	 0
  00033	6a 00		 push	 0
  00035	e8 00 00 00 00	 call	 __invoke_watson
$LN7@Allocate_m:
  0003a	cc		 int	 3
??$_Allocate_manually_vector_aligned@U_Default_allocate_traits@std@@@std@@YAPAXI@Z ENDP ; std::_Allocate_manually_vector_aligned<std::_Default_allocate_traits>
_TEXT	ENDS
; Function compile flags: /Ogtp
; File C:\IAGOS\server\v18\Source\Source\DX_SDK\d3dx9math.h
;	COMDAT ??0D3DXVECTOR3@@QAE@XZ
_TEXT	SEGMENT
??0D3DXVECTOR3@@QAE@XZ PROC				; D3DXVECTOR3::D3DXVECTOR3, COMDAT
; _this$ = ecx

; 165  :     D3DXVECTOR3() {};

  00000	8b c1		 mov	 eax, ecx
  00002	c3		 ret	 0
??0D3DXVECTOR3@@QAE@XZ ENDP				; D3DXVECTOR3::D3DXVECTOR3
_TEXT	ENDS
; Function compile flags: /Ogtp
; File C:\Program Files\Microsoft Visual Studio\2022\Professional\VC\Tools\MSVC\14.44.35207\include\xmemory
;	COMDAT ?_Throw_bad_array_new_length@std@@YAXXZ
_TEXT	SEGMENT
$T1 = -12						; size = 12
?_Throw_bad_array_new_length@std@@YAXXZ PROC		; std::_Throw_bad_array_new_length, COMDAT

; 107  : [[noreturn]] inline void _Throw_bad_array_new_length() {

  00000	55		 push	 ebp
  00001	8b ec		 mov	 ebp, esp
  00003	83 ec 0c	 sub	 esp, 12			; 0000000cH

; 108  :     _THROW(bad_array_new_length{});

  00006	8d 4d f4	 lea	 ecx, DWORD PTR $T1[ebp]
  00009	e8 00 00 00 00	 call	 ??0bad_array_new_length@std@@QAE@XZ ; std::bad_array_new_length::bad_array_new_length
  0000e	68 00 00 00 00	 push	 OFFSET __TI3?AVbad_array_new_length@std@@
  00013	8d 45 f4	 lea	 eax, DWORD PTR $T1[ebp]
  00016	50		 push	 eax
  00017	e8 00 00 00 00	 call	 __CxxThrowException@8
$LN3@Throw_bad_:
  0001c	cc		 int	 3
?_Throw_bad_array_new_length@std@@YAXXZ ENDP		; std::_Throw_bad_array_new_length
_TEXT	ENDS
; Function compile flags: /Ogtp
; File C:\Program Files\Microsoft Visual Studio\2022\Professional\VC\Tools\MSVC\14.44.35207\include\vcruntime_exception.h
;	COMDAT ??_Gbad_array_new_length@std@@UAEPAXI@Z
_TEXT	SEGMENT
___flags$ = 8						; size = 4
??_Gbad_array_new_length@std@@UAEPAXI@Z PROC		; std::bad_array_new_length::`scalar deleting destructor', COMDAT
; _this$ = ecx
  00000	55		 push	 ebp
  00001	8b ec		 mov	 ebp, esp

; 90   :     {

  00003	56		 push	 esi
  00004	8b f1		 mov	 esi, ecx

; 91   :         __std_exception_destroy(&_Data);

  00006	8d 46 04	 lea	 eax, DWORD PTR [esi+4]
  00009	c7 06 00 00 00
	00		 mov	 DWORD PTR [esi], OFFSET ??_7exception@std@@6B@
  0000f	50		 push	 eax
  00010	e8 00 00 00 00	 call	 ___std_exception_destroy
  00015	83 c4 04	 add	 esp, 4
  00018	f6 45 08 01	 test	 BYTE PTR ___flags$[ebp], 1
  0001c	74 0b		 je	 SHORT $LN18@scalar
  0001e	6a 0c		 push	 12			; 0000000cH
  00020	56		 push	 esi
  00021	e8 00 00 00 00	 call	 ??3@YAXPAXI@Z		; operator delete
  00026	83 c4 08	 add	 esp, 8
$LN18@scalar:
  00029	8b c6		 mov	 eax, esi
  0002b	5e		 pop	 esi
  0002c	5d		 pop	 ebp
  0002d	c2 04 00	 ret	 4
??_Gbad_array_new_length@std@@UAEPAXI@Z ENDP		; std::bad_array_new_length::`scalar deleting destructor'
_TEXT	ENDS
; Function compile flags: /Ogtp
; File C:\Program Files\Microsoft Visual Studio\2022\Professional\VC\Tools\MSVC\14.44.35207\include\vcruntime_exception.h
;	COMDAT ??0bad_array_new_length@std@@QAE@ABV01@@Z
_TEXT	SEGMENT
___that$ = 8						; size = 4
??0bad_array_new_length@std@@QAE@ABV01@@Z PROC		; std::bad_array_new_length::bad_array_new_length, COMDAT
; _this$ = ecx
  00000	55		 push	 ebp
  00001	8b ec		 mov	 ebp, esp

; 73   :     {

  00003	56		 push	 esi
  00004	8b f1		 mov	 esi, ecx
  00006	0f 57 c0	 xorps	 xmm0, xmm0

; 72   :         : _Data()

  00009	8d 46 04	 lea	 eax, DWORD PTR [esi+4]

; 74   :         __std_exception_copy(&_Other._Data, &_Data);

  0000c	50		 push	 eax
  0000d	c7 06 00 00 00
	00		 mov	 DWORD PTR [esi], OFFSET ??_7exception@std@@6B@
  00013	66 0f d6 00	 movq	 QWORD PTR [eax], xmm0
  00017	8b 45 08	 mov	 eax, DWORD PTR ___that$[ebp]
  0001a	83 c0 04	 add	 eax, 4
  0001d	50		 push	 eax
  0001e	e8 00 00 00 00	 call	 ___std_exception_copy
  00023	83 c4 08	 add	 esp, 8
  00026	c7 06 00 00 00
	00		 mov	 DWORD PTR [esi], OFFSET ??_7bad_array_new_length@std@@6B@
  0002c	8b c6		 mov	 eax, esi
  0002e	5e		 pop	 esi
  0002f	5d		 pop	 ebp
  00030	c2 04 00	 ret	 4
??0bad_array_new_length@std@@QAE@ABV01@@Z ENDP		; std::bad_array_new_length::bad_array_new_length
_TEXT	ENDS
; Function compile flags: /Ogtp
; File C:\Program Files\Microsoft Visual Studio\2022\Professional\VC\Tools\MSVC\14.44.35207\include\vcruntime_exception.h
;	COMDAT ??1bad_array_new_length@std@@UAE@XZ
_TEXT	SEGMENT
??1bad_array_new_length@std@@UAE@XZ PROC		; std::bad_array_new_length::~bad_array_new_length, COMDAT
; _this$ = ecx

; 91   :         __std_exception_destroy(&_Data);

  00000	8d 41 04	 lea	 eax, DWORD PTR [ecx+4]
  00003	c7 01 00 00 00
	00		 mov	 DWORD PTR [ecx], OFFSET ??_7exception@std@@6B@
  00009	50		 push	 eax
  0000a	e8 00 00 00 00	 call	 ___std_exception_destroy
  0000f	59		 pop	 ecx
  00010	c3		 ret	 0
??1bad_array_new_length@std@@UAE@XZ ENDP		; std::bad_array_new_length::~bad_array_new_length
_TEXT	ENDS
; Function compile flags: /Ogtp
; File C:\Program Files\Microsoft Visual Studio\2022\Professional\VC\Tools\MSVC\14.44.35207\include\vcruntime_exception.h
;	COMDAT ??0bad_array_new_length@std@@QAE@XZ
_TEXT	SEGMENT
??0bad_array_new_length@std@@QAE@XZ PROC		; std::bad_array_new_length::bad_array_new_length, COMDAT
; _this$ = ecx

; 144  :     {

  00000	0f 57 c0	 xorps	 xmm0, xmm0

; 145  :     }

  00003	8b c1		 mov	 eax, ecx

; 66   :         : _Data()

  00005	66 0f d6 41 04	 movq	 QWORD PTR [ecx+4], xmm0

; 67   :     {
; 68   :         _Data._What = _Message;

  0000a	c7 41 04 00 00
	00 00		 mov	 DWORD PTR [ecx+4], OFFSET ??_C@_0BF@KINCDENJ@bad?5array?5new?5length@

; 144  :     {

  00011	c7 01 00 00 00
	00		 mov	 DWORD PTR [ecx], OFFSET ??_7bad_array_new_length@std@@6B@

; 145  :     }

  00017	c3		 ret	 0
??0bad_array_new_length@std@@QAE@XZ ENDP		; std::bad_array_new_length::bad_array_new_length
_TEXT	ENDS
; Function compile flags: /Ogtp
; File C:\Program Files\Microsoft Visual Studio\2022\Professional\VC\Tools\MSVC\14.44.35207\include\vcruntime_exception.h
;	COMDAT ??_Gbad_alloc@std@@UAEPAXI@Z
_TEXT	SEGMENT
___flags$ = 8						; size = 4
??_Gbad_alloc@std@@UAEPAXI@Z PROC			; std::bad_alloc::`scalar deleting destructor', COMDAT
; _this$ = ecx
  00000	55		 push	 ebp
  00001	8b ec		 mov	 ebp, esp

; 90   :     {

  00003	56		 push	 esi
  00004	8b f1		 mov	 esi, ecx

; 91   :         __std_exception_destroy(&_Data);

  00006	8d 46 04	 lea	 eax, DWORD PTR [esi+4]
  00009	c7 06 00 00 00
	00		 mov	 DWORD PTR [esi], OFFSET ??_7exception@std@@6B@
  0000f	50		 push	 eax
  00010	e8 00 00 00 00	 call	 ___std_exception_destroy
  00015	83 c4 04	 add	 esp, 4
  00018	f6 45 08 01	 test	 BYTE PTR ___flags$[ebp], 1
  0001c	74 0b		 je	 SHORT $LN13@scalar
  0001e	6a 0c		 push	 12			; 0000000cH
  00020	56		 push	 esi
  00021	e8 00 00 00 00	 call	 ??3@YAXPAXI@Z		; operator delete
  00026	83 c4 08	 add	 esp, 8
$LN13@scalar:
  00029	8b c6		 mov	 eax, esi
  0002b	5e		 pop	 esi
  0002c	5d		 pop	 ebp
  0002d	c2 04 00	 ret	 4
??_Gbad_alloc@std@@UAEPAXI@Z ENDP			; std::bad_alloc::`scalar deleting destructor'
_TEXT	ENDS
; Function compile flags: /Ogtp
; File C:\Program Files\Microsoft Visual Studio\2022\Professional\VC\Tools\MSVC\14.44.35207\include\vcruntime_exception.h
;	COMDAT ??0bad_alloc@std@@QAE@ABV01@@Z
_TEXT	SEGMENT
___that$ = 8						; size = 4
??0bad_alloc@std@@QAE@ABV01@@Z PROC			; std::bad_alloc::bad_alloc, COMDAT
; _this$ = ecx
  00000	55		 push	 ebp
  00001	8b ec		 mov	 ebp, esp

; 73   :     {

  00003	56		 push	 esi
  00004	8b f1		 mov	 esi, ecx
  00006	0f 57 c0	 xorps	 xmm0, xmm0

; 72   :         : _Data()

  00009	8d 46 04	 lea	 eax, DWORD PTR [esi+4]

; 74   :         __std_exception_copy(&_Other._Data, &_Data);

  0000c	50		 push	 eax
  0000d	c7 06 00 00 00
	00		 mov	 DWORD PTR [esi], OFFSET ??_7exception@std@@6B@
  00013	66 0f d6 00	 movq	 QWORD PTR [eax], xmm0
  00017	8b 45 08	 mov	 eax, DWORD PTR ___that$[ebp]
  0001a	83 c0 04	 add	 eax, 4
  0001d	50		 push	 eax
  0001e	e8 00 00 00 00	 call	 ___std_exception_copy
  00023	83 c4 08	 add	 esp, 8
  00026	c7 06 00 00 00
	00		 mov	 DWORD PTR [esi], OFFSET ??_7bad_alloc@std@@6B@
  0002c	8b c6		 mov	 eax, esi
  0002e	5e		 pop	 esi
  0002f	5d		 pop	 ebp
  00030	c2 04 00	 ret	 4
??0bad_alloc@std@@QAE@ABV01@@Z ENDP			; std::bad_alloc::bad_alloc
_TEXT	ENDS
; Function compile flags: /Ogtp
; File C:\Program Files\Microsoft Visual Studio\2022\Professional\VC\Tools\MSVC\14.44.35207\include\vcruntime_exception.h
;	COMDAT ??_Gexception@std@@UAEPAXI@Z
_TEXT	SEGMENT
___flags$ = 8						; size = 4
??_Gexception@std@@UAEPAXI@Z PROC			; std::exception::`scalar deleting destructor', COMDAT
; _this$ = ecx
  00000	55		 push	 ebp
  00001	8b ec		 mov	 ebp, esp

; 90   :     {

  00003	56		 push	 esi
  00004	8b f1		 mov	 esi, ecx

; 91   :         __std_exception_destroy(&_Data);

  00006	8d 46 04	 lea	 eax, DWORD PTR [esi+4]
  00009	c7 06 00 00 00
	00		 mov	 DWORD PTR [esi], OFFSET ??_7exception@std@@6B@
  0000f	50		 push	 eax
  00010	e8 00 00 00 00	 call	 ___std_exception_destroy
  00015	83 c4 04	 add	 esp, 4
  00018	f6 45 08 01	 test	 BYTE PTR ___flags$[ebp], 1
  0001c	74 0b		 je	 SHORT $LN8@scalar
  0001e	6a 0c		 push	 12			; 0000000cH
  00020	56		 push	 esi
  00021	e8 00 00 00 00	 call	 ??3@YAXPAXI@Z		; operator delete
  00026	83 c4 08	 add	 esp, 8
$LN8@scalar:
  00029	8b c6		 mov	 eax, esi
  0002b	5e		 pop	 esi
  0002c	5d		 pop	 ebp
  0002d	c2 04 00	 ret	 4
??_Gexception@std@@UAEPAXI@Z ENDP			; std::exception::`scalar deleting destructor'
_TEXT	ENDS
; Function compile flags: /Ogtp
; File C:\Program Files\Microsoft Visual Studio\2022\Professional\VC\Tools\MSVC\14.44.35207\include\vcruntime_exception.h
;	COMDAT ?what@exception@std@@UBEPBDXZ
_TEXT	SEGMENT
?what@exception@std@@UBEPBDXZ PROC			; std::exception::what, COMDAT
; _this$ = ecx

; 96   :         return _Data._What ? _Data._What : "Unknown exception";

  00000	8b 49 04	 mov	 ecx, DWORD PTR [ecx+4]
  00003	b8 00 00 00 00	 mov	 eax, OFFSET ??_C@_0BC@EOODALEL@Unknown?5exception@
  00008	85 c9		 test	 ecx, ecx
  0000a	0f 45 c1	 cmovne	 eax, ecx

; 97   :     }

  0000d	c3		 ret	 0
?what@exception@std@@UBEPBDXZ ENDP			; std::exception::what
_TEXT	ENDS
; Function compile flags: /Ogtp
; File C:\Program Files\Microsoft Visual Studio\2022\Professional\VC\Tools\MSVC\14.44.35207\include\vcruntime_exception.h
;	COMDAT ??1exception@std@@UAE@XZ
_TEXT	SEGMENT
??1exception@std@@UAE@XZ PROC				; std::exception::~exception, COMDAT
; _this$ = ecx

; 91   :         __std_exception_destroy(&_Data);

  00000	8d 41 04	 lea	 eax, DWORD PTR [ecx+4]
  00003	c7 01 00 00 00
	00		 mov	 DWORD PTR [ecx], OFFSET ??_7exception@std@@6B@
  00009	50		 push	 eax
  0000a	e8 00 00 00 00	 call	 ___std_exception_destroy
  0000f	59		 pop	 ecx

; 92   :     }

  00010	c3		 ret	 0
??1exception@std@@UAE@XZ ENDP				; std::exception::~exception
_TEXT	ENDS
; Function compile flags: /Ogtp
; File C:\Program Files\Microsoft Visual Studio\2022\Professional\VC\Tools\MSVC\14.44.35207\include\vcruntime_exception.h
;	COMDAT ??0exception@std@@QAE@ABV01@@Z
_TEXT	SEGMENT
__Other$ = 8						; size = 4
??0exception@std@@QAE@ABV01@@Z PROC			; std::exception::exception, COMDAT
; _this$ = ecx

; 73   :     {

  00000	55		 push	 ebp
  00001	8b ec		 mov	 ebp, esp
  00003	56		 push	 esi
  00004	8b f1		 mov	 esi, ecx
  00006	0f 57 c0	 xorps	 xmm0, xmm0
  00009	8d 46 04	 lea	 eax, DWORD PTR [esi+4]

; 74   :         __std_exception_copy(&_Other._Data, &_Data);

  0000c	50		 push	 eax
  0000d	c7 06 00 00 00
	00		 mov	 DWORD PTR [esi], OFFSET ??_7exception@std@@6B@
  00013	66 0f d6 00	 movq	 QWORD PTR [eax], xmm0
  00017	8b 45 08	 mov	 eax, DWORD PTR __Other$[ebp]
  0001a	83 c0 04	 add	 eax, 4
  0001d	50		 push	 eax
  0001e	e8 00 00 00 00	 call	 ___std_exception_copy
  00023	83 c4 08	 add	 esp, 8

; 75   :     }

  00026	8b c6		 mov	 eax, esi
  00028	5e		 pop	 esi
  00029	5d		 pop	 ebp
  0002a	c2 04 00	 ret	 4
??0exception@std@@QAE@ABV01@@Z ENDP			; std::exception::exception
_TEXT	ENDS
; Function compile flags: /Ogtp
; File C:\IAGOS\server\v18\Source\Source\WorldServer\rangda.cpp
;	COMDAT ?__empty_global_delete@@YAXPAXI@Z
_TEXT	SEGMENT
___formal$ = 8						; size = 4
___formal$ = 12						; size = 4
?__empty_global_delete@@YAXPAXI@Z PROC			; __empty_global_delete, COMDAT

  00000	c2 00 00	 ret	 0
?__empty_global_delete@@YAXPAXI@Z ENDP			; __empty_global_delete
_TEXT	ENDS
; Function compile flags: /Ogtp
; File C:\IAGOS\server\v18\Source\Source\WorldServer\rangda.cpp
;	COMDAT ?__empty_global_delete@@YAXPAX@Z
_TEXT	SEGMENT
___formal$ = 8						; size = 4
?__empty_global_delete@@YAXPAX@Z PROC			; __empty_global_delete, COMDAT

  00000	c2 00 00	 ret	 0
?__empty_global_delete@@YAXPAX@Z ENDP			; __empty_global_delete
_TEXT	ENDS
END
