; Listing generated by Microsoft (R) Optimizing Compiler Version 19.44.35225.0 

	TITLE	C:\IAGOS\server\v18\Source\Output\WorldServer\Release\Respawn.obj
	.686P
	.XMM
	include listing.inc
	.model	flat

INCLUDELIB LIBCMT
INCLUDELIB OLDNAMES

PUBLIC	?__empty_global_delete@@YAXPAX@Z		; __empty_global_delete
PUBLIC	?__empty_global_delete@@YAXPAXI@Z		; __empty_global_delete
PUBLIC	___local_stdio_printf_options
PUBLIC	_sprintf
PUBLIC	??0exception@std@@QAE@ABV01@@Z			; std::exception::exception
PUBLIC	??1exception@std@@UAE@XZ			; std::exception::~exception
PUBLIC	?what@exception@std@@UBEPBDXZ			; std::exception::what
PUBLIC	??_Gexception@std@@UAEPAXI@Z			; std::exception::`scalar deleting destructor'
PUBLIC	??0bad_alloc@std@@QAE@ABV01@@Z			; std::bad_alloc::bad_alloc
PUBLIC	??_Gbad_alloc@std@@UAEPAXI@Z			; std::bad_alloc::`scalar deleting destructor'
PUBLIC	??0bad_array_new_length@std@@QAE@XZ		; std::bad_array_new_length::bad_array_new_length
PUBLIC	??1bad_array_new_length@std@@UAE@XZ		; std::bad_array_new_length::~bad_array_new_length
PUBLIC	??0bad_array_new_length@std@@QAE@ABV01@@Z	; std::bad_array_new_length::bad_array_new_length
PUBLIC	??_Gbad_array_new_length@std@@UAEPAXI@Z		; std::bad_array_new_length::`scalar deleting destructor'
PUBLIC	?_Throw_bad_array_new_length@std@@YAXXZ		; std::_Throw_bad_array_new_length
PUBLIC	?_Throw_tree_length_error@std@@YAXXZ		; std::_Throw_tree_length_error
PUBLIC	??0D3DXVECTOR3@@QAE@XZ				; D3DXVECTOR3::D3DXVECTOR3
PUBLIC	??0CRespawnInfo@@QAE@XZ				; CRespawnInfo::CRespawnInfo
PUBLIC	??0CRespawnInfo@@QAE@ABV0@@Z			; CRespawnInfo::CRespawnInfo
PUBLIC	??1CRespawnInfo@@UAE@XZ				; CRespawnInfo::~CRespawnInfo
PUBLIC	??4CRespawnInfo@@QAEAAV0@ABV0@@Z		; CRespawnInfo::operator=
PUBLIC	?Increment@CRespawnInfo@@QAEXH@Z		; CRespawnInfo::Increment
PUBLIC	?GetPos@CRespawnInfo@@QAEXAAUD3DXVECTOR3@@H@Z	; CRespawnInfo::GetPos
PUBLIC	?GenResPoint@CRespawnInfo@@QAEHPAVCWorld@@@Z	; CRespawnInfo::GenResPoint
PUBLIC	??_GCRespawnInfo@@UAEPAXI@Z			; CRespawnInfo::`scalar deleting destructor'
PUBLIC	?deallocate@?$allocator@VCRespawnInfo@@@std@@QAEXQAVCRespawnInfo@@I@Z ; std::allocator<CRespawnInfo>::deallocate
PUBLIC	??0?$vector@VCRespawnInfo@@V?$allocator@VCRespawnInfo@@@std@@@std@@QAE@XZ ; std::vector<CRespawnInfo,std::allocator<CRespawnInfo> >::vector<CRespawnInfo,std::allocator<CRespawnInfo> >
PUBLIC	??1?$vector@VCRespawnInfo@@V?$allocator@VCRespawnInfo@@@std@@@std@@QAE@XZ ; std::vector<CRespawnInfo,std::allocator<CRespawnInfo> >::~vector<CRespawnInfo,std::allocator<CRespawnInfo> >
PUBLIC	?_Xlength@?$vector@VCRespawnInfo@@V?$allocator@VCRespawnInfo@@@std@@@std@@CAXXZ ; std::vector<CRespawnInfo,std::allocator<CRespawnInfo> >::_Xlength
PUBLIC	??0CRespawner@@QAE@XZ				; CRespawner::CRespawner
PUBLIC	??0CRespawner@@QAE@ABV0@@Z			; CRespawner::CRespawner
PUBLIC	??1CRespawner@@UAE@XZ				; CRespawner::~CRespawner
PUBLIC	?DoRemove@CRespawner@@AAEHHH@Z			; CRespawner::DoRemove
PUBLIC	?Add@CRespawner@@QAEHAAVCRespawnInfo@@H@Z	; CRespawner::Add
PUBLIC	?GetRespawnInfo@CRespawner@@QAEPAVCRespawnInfo@@HH@Z ; CRespawner::GetRespawnInfo
PUBLIC	?Remove@CRespawner@@QAEHHH@Z			; CRespawner::Remove
PUBLIC	?Spawn@CRespawner@@QAEKPAVCWorld@@H@Z		; CRespawner::Spawn
PUBLIC	?Increment@CRespawner@@QAEXHHH@Z		; CRespawner::Increment
PUBLIC	??_GCRespawner@@UAEPAXI@Z			; CRespawner::`scalar deleting destructor'
PUBLIC	??0CLayerdRespawner@@QAE@XZ			; CLayerdRespawner::CLayerdRespawner
PUBLIC	??1CLayerdRespawner@@UAE@XZ			; CLayerdRespawner::~CLayerdRespawner
PUBLIC	?Add@CLayerdRespawner@@QAEHAAVCRespawnInfo@@H@Z	; CLayerdRespawner::Add
PUBLIC	?Remove@CLayerdRespawner@@QAEHHH@Z		; CLayerdRespawner::Remove
PUBLIC	?GetRespawnInfo@CLayerdRespawner@@QAEPAVCRespawnInfo@@HHH@Z ; CLayerdRespawner::GetRespawnInfo
PUBLIC	?Spawn@CLayerdRespawner@@QAEKPAVCWorld@@@Z	; CLayerdRespawner::Spawn
PUBLIC	?Increment@CLayerdRespawner@@QAEXHHHH@Z		; CLayerdRespawner::Increment
PUBLIC	?Expand@CLayerdRespawner@@QAEXH@Z		; CLayerdRespawner::Expand
PUBLIC	?Release@CLayerdRespawner@@QAEXH@Z		; CLayerdRespawner::Release
PUBLIC	?Clear@CLayerdRespawner@@AAEXXZ			; CLayerdRespawner::Clear
PUBLIC	??1?$_Tree@V?$_Tmap_traits@HPAVCRespawner@@U?$less@H@std@@V?$allocator@U?$pair@$$CBHPAVCRespawner@@@std@@@3@$0A@@std@@@std@@QAE@XZ ; std::_Tree<std::_Tmap_traits<int,CRespawner *,std::less<int>,std::allocator<std::pair<int const ,CRespawner *> >,0> >::~_Tree<std::_Tmap_traits<int,CRespawner *,std::less<int>,std::allocator<std::pair<int const ,CRespawner *> >,0> >
PUBLIC	?_Lrotate@?$_Tree_val@U?$_Tree_simple_types@U?$pair@$$CBHPAVCRespawner@@@std@@@std@@@std@@QAEXPAU?$_Tree_node@U?$pair@$$CBHPAVCRespawner@@@std@@PAX@2@@Z ; std::_Tree_val<std::_Tree_simple_types<std::pair<int const ,CRespawner *> > >::_Lrotate
PUBLIC	?_Rrotate@?$_Tree_val@U?$_Tree_simple_types@U?$pair@$$CBHPAVCRespawner@@@std@@@std@@@std@@QAEXPAU?$_Tree_node@U?$pair@$$CBHPAVCRespawner@@@std@@PAX@2@@Z ; std::_Tree_val<std::_Tree_simple_types<std::pair<int const ,CRespawner *> > >::_Rrotate
PUBLIC	?_Extract@?$_Tree_val@U?$_Tree_simple_types@U?$pair@$$CBHPAVCRespawner@@@std@@@std@@@std@@QAEPAU?$_Tree_node@U?$pair@$$CBHPAVCRespawner@@@std@@PAX@2@V?$_Tree_unchecked_const_iterator@V?$_Tree_val@U?$_Tree_simple_types@U?$pair@$$CBHPAVCRespawner@@@std@@@std@@@std@@U_Iterator_base0@2@@2@@Z ; std::_Tree_val<std::_Tree_simple_types<std::pair<int const ,CRespawner *> > >::_Extract
PUBLIC	?_Insert_node@?$_Tree_val@U?$_Tree_simple_types@U?$pair@$$CBHPAVCRespawner@@@std@@@std@@@std@@QAEPAU?$_Tree_node@U?$pair@$$CBHPAVCRespawner@@@std@@PAX@2@U?$_Tree_id@PAU?$_Tree_node@U?$pair@$$CBHPAVCRespawner@@@std@@PAX@std@@@2@QAU32@@Z ; std::_Tree_val<std::_Tree_simple_types<std::pair<int const ,CRespawner *> > >::_Insert_node
PUBLIC	??_GCLayerdRespawner@@UAEPAXI@Z			; CLayerdRespawner::`scalar deleting destructor'
PUBLIC	??$_Allocate_manually_vector_aligned@U_Default_allocate_traits@std@@@std@@YAPAXI@Z ; std::_Allocate_manually_vector_aligned<std::_Default_allocate_traits>
PUBLIC	??E?$_Tree_unchecked_const_iterator@V?$_Tree_val@U?$_Tree_simple_types@U?$pair@$$CBHPAVCRespawner@@@std@@@std@@@std@@U_Iterator_base0@2@@std@@QAEAAV01@XZ ; std::_Tree_unchecked_const_iterator<std::_Tree_val<std::_Tree_simple_types<std::pair<int const ,CRespawner *> > >,std::_Iterator_base0>::operator++
PUBLIC	??$_Assign_counted_range@PBVCRespawnInfo@@@?$vector@VCRespawnInfo@@V?$allocator@VCRespawnInfo@@@std@@@std@@AAEXPBVCRespawnInfo@@I@Z ; std::vector<CRespawnInfo,std::allocator<CRespawnInfo> >::_Assign_counted_range<CRespawnInfo const *>
PUBLIC	??$_Erase_tree@V?$allocator@U?$_Tree_node@U?$pair@$$CBHPAVCRespawner@@@std@@PAX@std@@@std@@@?$_Tree_val@U?$_Tree_simple_types@U?$pair@$$CBHPAVCRespawner@@@std@@@std@@@std@@QAEXAAV?$allocator@U?$_Tree_node@U?$pair@$$CBHPAVCRespawner@@@std@@PAX@std@@@1@PAU?$_Tree_node@U?$pair@$$CBHPAVCRespawner@@@std@@PAX@1@@Z ; std::_Tree_val<std::_Tree_simple_types<std::pair<int const ,CRespawner *> > >::_Erase_tree<std::allocator<std::_Tree_node<std::pair<int const ,CRespawner *>,void *> > >
PUBLIC	??$_Find_lower_bound@H@?$_Tree@V?$_Tmap_traits@HPAVCRespawner@@U?$less@H@std@@V?$allocator@U?$pair@$$CBHPAVCRespawner@@@std@@@3@$0A@@std@@@std@@IBE?AU?$_Tree_find_result@PAU?$_Tree_node@U?$pair@$$CBHPAVCRespawner@@@std@@PAX@std@@@1@ABH@Z ; std::_Tree<std::_Tmap_traits<int,CRespawner *,std::less<int>,std::allocator<std::pair<int const ,CRespawner *> >,0> >::_Find_lower_bound<int>
PUBLIC	??1?$_Alloc_construct_ptr@V?$allocator@U?$_Tree_node@U?$pair@$$CBHPAVCRespawner@@@std@@PAX@std@@@std@@@std@@QAE@XZ ; std::_Alloc_construct_ptr<std::allocator<std::_Tree_node<std::pair<int const ,CRespawner *>,void *> > >::~_Alloc_construct_ptr<std::allocator<std::_Tree_node<std::pair<int const ,CRespawner *>,void *> > >
PUBLIC	??$_Emplace_reallocate@ABVCRespawnInfo@@@?$vector@VCRespawnInfo@@V?$allocator@VCRespawnInfo@@@std@@@std@@AAEPAVCRespawnInfo@@QAV2@ABV2@@Z ; std::vector<CRespawnInfo,std::allocator<CRespawnInfo> >::_Emplace_reallocate<CRespawnInfo const &>
PUBLIC	?_OptionsStorage@?1??__local_stdio_printf_options@@9@4_KA ; `__local_stdio_printf_options'::`2'::_OptionsStorage
PUBLIC	??_7exception@std@@6B@				; std::exception::`vftable'
PUBLIC	??_C@_0BC@EOODALEL@Unknown?5exception@		; `string'
PUBLIC	??_7bad_alloc@std@@6B@				; std::bad_alloc::`vftable'
PUBLIC	??_7bad_array_new_length@std@@6B@		; std::bad_array_new_length::`vftable'
PUBLIC	??_C@_0BF@KINCDENJ@bad?5array?5new?5length@	; `string'
PUBLIC	??_R0?AVexception@std@@@8			; std::exception `RTTI Type Descriptor'
PUBLIC	__CT??_R0?AVexception@std@@@8??0exception@std@@QAE@ABV01@@Z12
PUBLIC	__TI3?AVbad_array_new_length@std@@
PUBLIC	__CTA3?AVbad_array_new_length@std@@
PUBLIC	??_R0?AVbad_array_new_length@std@@@8		; std::bad_array_new_length `RTTI Type Descriptor'
PUBLIC	__CT??_R0?AVbad_array_new_length@std@@@8??0bad_array_new_length@std@@QAE@ABV01@@Z12
PUBLIC	??_R0?AVbad_alloc@std@@@8			; std::bad_alloc `RTTI Type Descriptor'
PUBLIC	__CT??_R0?AVbad_alloc@std@@@8??0bad_alloc@std@@QAE@ABV01@@Z12
PUBLIC	??_C@_0BB@GCADKGJO@map?1set?5too?5long@		; `string'
PUBLIC	??_C@_0BM@HMFGHCP@?$CFs?5min?3?$CFd?0?5max?3?$CFd?0?5index?3?$CFd@ ; `string'
PUBLIC	??_C@_0BI@BEIFNGEL@GetItemProp?5range_error@	; `string'
PUBLIC	??_C@_0BJ@GKPOBPPI@GetMoverProp?5range_error@	; `string'
PUBLIC	??_7CRespawnInfo@@6B@				; CRespawnInfo::`vftable'
PUBLIC	??_7CRespawner@@6B@				; CRespawner::`vftable'
PUBLIC	??_7CLayerdRespawner@@6B@			; CLayerdRespawner::`vftable'
PUBLIC	??_C@_0BA@FOIKENOD@vector?5too?5long@		; `string'
PUBLIC	??_R4exception@std@@6B@				; std::exception::`RTTI Complete Object Locator'
PUBLIC	??_R3exception@std@@8				; std::exception::`RTTI Class Hierarchy Descriptor'
PUBLIC	??_R2exception@std@@8				; std::exception::`RTTI Base Class Array'
PUBLIC	??_R1A@?0A@EA@exception@std@@8			; std::exception::`RTTI Base Class Descriptor at (0,-1,0,64)'
PUBLIC	??_R4bad_array_new_length@std@@6B@		; std::bad_array_new_length::`RTTI Complete Object Locator'
PUBLIC	??_R3bad_array_new_length@std@@8		; std::bad_array_new_length::`RTTI Class Hierarchy Descriptor'
PUBLIC	??_R2bad_array_new_length@std@@8		; std::bad_array_new_length::`RTTI Base Class Array'
PUBLIC	??_R1A@?0A@EA@bad_array_new_length@std@@8	; std::bad_array_new_length::`RTTI Base Class Descriptor at (0,-1,0,64)'
PUBLIC	??_R1A@?0A@EA@bad_alloc@std@@8			; std::bad_alloc::`RTTI Base Class Descriptor at (0,-1,0,64)'
PUBLIC	??_R3bad_alloc@std@@8				; std::bad_alloc::`RTTI Class Hierarchy Descriptor'
PUBLIC	??_R2bad_alloc@std@@8				; std::bad_alloc::`RTTI Base Class Array'
PUBLIC	??_R4bad_alloc@std@@6B@				; std::bad_alloc::`RTTI Complete Object Locator'
PUBLIC	??_C@_0DD@JMBKMANC@CRespawner?3?3Add?5?$LA?$LA?$MA?$LK?5ID?5?$LJ?$NP?$LA?$NP?5?3?5@ ; `string'
PUBLIC	??_C@_0EC@OCJMFDAP@CRespawner?3?3Remove?$LP?$KB?$LM?$KN?5RESPAWN_@ ; `string'
PUBLIC	??_C@_0CA@NLFIDABF@CRespawner?3?3Spawn?$CI?$CJ?7?1?1?50?5index?6@ ; `string'
PUBLIC	??_C@_0BL@ECDHPEEF@?$CFd?5item?5property?5not?5found@ ; `string'
PUBLIC	??_C@_0O@NBAJGPNK@SPAWN?3?5?$CFd?0?5?$CFd@	; `string'
PUBLIC	??_R4CRespawnInfo@@6B@				; CRespawnInfo::`RTTI Complete Object Locator'
PUBLIC	??_R0?AVCRespawnInfo@@@8			; CRespawnInfo `RTTI Type Descriptor'
PUBLIC	??_R3CRespawnInfo@@8				; CRespawnInfo::`RTTI Class Hierarchy Descriptor'
PUBLIC	??_R2CRespawnInfo@@8				; CRespawnInfo::`RTTI Base Class Array'
PUBLIC	??_R1A@?0A@EA@CRespawnInfo@@8			; CRespawnInfo::`RTTI Base Class Descriptor at (0,-1,0,64)'
PUBLIC	??_R4CRespawner@@6B@				; CRespawner::`RTTI Complete Object Locator'
PUBLIC	??_R0?AVCRespawner@@@8				; CRespawner `RTTI Type Descriptor'
PUBLIC	??_R3CRespawner@@8				; CRespawner::`RTTI Class Hierarchy Descriptor'
PUBLIC	??_R2CRespawner@@8				; CRespawner::`RTTI Base Class Array'
PUBLIC	??_R1A@?0A@EA@CRespawner@@8			; CRespawner::`RTTI Base Class Descriptor at (0,-1,0,64)'
PUBLIC	??_R4CLayerdRespawner@@6B@			; CLayerdRespawner::`RTTI Complete Object Locator'
PUBLIC	??_R0?AVCLayerdRespawner@@@8			; CLayerdRespawner `RTTI Type Descriptor'
PUBLIC	??_R3CLayerdRespawner@@8			; CLayerdRespawner::`RTTI Class Hierarchy Descriptor'
PUBLIC	??_R2CLayerdRespawner@@8			; CLayerdRespawner::`RTTI Base Class Array'
PUBLIC	??_R1A@?0A@EA@CLayerdRespawner@@8		; CLayerdRespawner::`RTTI Base Class Descriptor at (0,-1,0,64)'
PUBLIC	__real@3f800000
PUBLIC	__real@41200000
PUBLIC	__real@42c80000
PUBLIC	__xmm@41f00000000000000000000000000000
EXTRN	??_L@YGXPAXIIP6EX0@Z1@Z:PROC			; `eh vector constructor iterator'
EXTRN	??_M@YGXPAXIIP6EX0@Z@Z:PROC			; `eh vector destructor iterator'
EXTRN	??2@YAPAXI@Z:PROC				; operator new
EXTRN	??3@YAXPAXI@Z:PROC				; operator delete
EXTRN	__invoke_watson:PROC
EXTRN	__imp__OutputDebugStringA@4:PROC
EXTRN	___stdio_common_vsprintf:PROC
EXTRN	___std_exception_copy:PROC
EXTRN	___std_exception_destroy:PROC
EXTRN	??_Eexception@std@@UAEPAXI@Z:PROC		; std::exception::`vector deleting destructor'
EXTRN	??_Ebad_alloc@std@@UAEPAXI@Z:PROC		; std::bad_alloc::`vector deleting destructor'
EXTRN	??_Ebad_array_new_length@std@@UAEPAXI@Z:PROC	; std::bad_array_new_length::`vector deleting destructor'
EXTRN	?_Xlength_error@std@@YAXPBD@Z:PROC		; std::_Xlength_error
EXTRN	?WriteLog@@YAXPBDZZ:PROC			; WriteLog
EXTRN	?xRandom@@YAKKK@Z:PROC				; xRandom
EXTRN	?Error@@YAPBDPBDZZ:PROC				; Error
EXTRN	?SetPos@CObj@@QAEXABUD3DXVECTOR3@@@Z:PROC	; CObj::SetPos
EXTRN	?SetAngle@CObj@@QAEXM@Z:PROC			; CObj::SetAngle
EXTRN	?SetSerialNumber@CItemBase@@QAEXXZ:PROC		; CItemBase::SetSerialNumber
EXTRN	??0CItemElem@@QAE@XZ:PROC			; CItemElem::CItemElem
EXTRN	??_ECRespawnInfo@@UAEPAXI@Z:PROC		; CRespawnInfo::`vector deleting destructor'
EXTRN	??_ECRespawner@@UAEPAXI@Z:PROC			; CRespawner::`vector deleting destructor'
EXTRN	??_ECLayerdRespawner@@UAEPAXI@Z:PROC		; CLayerdRespawner::`vector deleting destructor'
EXTRN	?AddObj@CWorld@@QAEHPAVCObj@@HH@Z:PROC		; CWorld::AddObj
EXTRN	?GetUnderHeight@CWorld@@QAEMABUD3DXVECTOR3@@@Z:PROC ; CWorld::GetUnderHeight
EXTRN	?GetLandHeight@CWorld@@QAEMMM@Z:PROC		; CWorld::GetLandHeight
EXTRN	?GetHeightAttribute@CWorld@@QAEHMM@Z:PROC	; CWorld::GetHeightAttribute
EXTRN	?CreateObj@@YAPAVCObj@@PAUIDirect3DDevice9@@KKH@Z:PROC ; CreateObj
EXTRN	?GetState@CFlyffEvent@@QAEEH@Z:PROC		; CFlyffEvent::GetState
EXTRN	@__security_check_cookie@4:PROC
EXTRN	__CxxThrowException@8:PROC
EXTRN	___CxxFrameHandler3:PROC
EXTRN	_memset:PROC
EXTRN	??_7type_info@@6B@:QWORD			; type_info::`vftable'
EXTRN	?g_next@@3KA:DWORD				; g_next
EXTRN	?prj@@3VCProject@@A:BYTE			; prj
EXTRN	?g_GameTimer@@3VCGameTimer@@A:BYTE		; g_GameTimer
EXTRN	?g_eLocal@@3VCFlyffEvent@@A:BYTE		; g_eLocal
EXTRN	___security_cookie:DWORD
EXTRN	__fltused:DWORD
;	COMDAT ?_OptionsStorage@?1??__local_stdio_printf_options@@9@4_KA
_BSS	SEGMENT
?_OptionsStorage@?1??__local_stdio_printf_options@@9@4_KA DQ 01H DUP (?) ; `__local_stdio_printf_options'::`2'::_OptionsStorage
_BSS	ENDS
;	COMDAT __xmm@41f00000000000000000000000000000
CONST	SEGMENT
__xmm@41f00000000000000000000000000000 DB 00H, 00H, 00H, 00H, 00H, 00H, 00H
	DB	00H, 00H, 00H, 00H, 00H, 00H, 00H, 0f0H, 'A'
CONST	ENDS
;	COMDAT __real@42c80000
CONST	SEGMENT
__real@42c80000 DD 042c80000r			; 100
CONST	ENDS
;	COMDAT __real@41200000
CONST	SEGMENT
__real@41200000 DD 041200000r			; 10
CONST	ENDS
;	COMDAT __real@3f800000
CONST	SEGMENT
__real@3f800000 DD 03f800000r			; 1
CONST	ENDS
;	COMDAT ??_R1A@?0A@EA@CLayerdRespawner@@8
rdata$r	SEGMENT
??_R1A@?0A@EA@CLayerdRespawner@@8 DD FLAT:??_R0?AVCLayerdRespawner@@@8 ; CLayerdRespawner::`RTTI Base Class Descriptor at (0,-1,0,64)'
	DD	00H
	DD	00H
	DD	0ffffffffH
	DD	00H
	DD	040H
	DD	FLAT:??_R3CLayerdRespawner@@8
rdata$r	ENDS
;	COMDAT ??_R2CLayerdRespawner@@8
rdata$r	SEGMENT
??_R2CLayerdRespawner@@8 DD FLAT:??_R1A@?0A@EA@CLayerdRespawner@@8 ; CLayerdRespawner::`RTTI Base Class Array'
rdata$r	ENDS
;	COMDAT ??_R3CLayerdRespawner@@8
rdata$r	SEGMENT
??_R3CLayerdRespawner@@8 DD 00H				; CLayerdRespawner::`RTTI Class Hierarchy Descriptor'
	DD	00H
	DD	01H
	DD	FLAT:??_R2CLayerdRespawner@@8
rdata$r	ENDS
;	COMDAT ??_R0?AVCLayerdRespawner@@@8
data$rs	SEGMENT
??_R0?AVCLayerdRespawner@@@8 DD FLAT:??_7type_info@@6B@	; CLayerdRespawner `RTTI Type Descriptor'
	DD	00H
	DB	'.?AVCLayerdRespawner@@', 00H
data$rs	ENDS
;	COMDAT ??_R4CLayerdRespawner@@6B@
rdata$r	SEGMENT
??_R4CLayerdRespawner@@6B@ DD 00H			; CLayerdRespawner::`RTTI Complete Object Locator'
	DD	00H
	DD	00H
	DD	FLAT:??_R0?AVCLayerdRespawner@@@8
	DD	FLAT:??_R3CLayerdRespawner@@8
rdata$r	ENDS
;	COMDAT ??_R1A@?0A@EA@CRespawner@@8
rdata$r	SEGMENT
??_R1A@?0A@EA@CRespawner@@8 DD FLAT:??_R0?AVCRespawner@@@8 ; CRespawner::`RTTI Base Class Descriptor at (0,-1,0,64)'
	DD	00H
	DD	00H
	DD	0ffffffffH
	DD	00H
	DD	040H
	DD	FLAT:??_R3CRespawner@@8
rdata$r	ENDS
;	COMDAT ??_R2CRespawner@@8
rdata$r	SEGMENT
??_R2CRespawner@@8 DD FLAT:??_R1A@?0A@EA@CRespawner@@8	; CRespawner::`RTTI Base Class Array'
rdata$r	ENDS
;	COMDAT ??_R3CRespawner@@8
rdata$r	SEGMENT
??_R3CRespawner@@8 DD 00H				; CRespawner::`RTTI Class Hierarchy Descriptor'
	DD	00H
	DD	01H
	DD	FLAT:??_R2CRespawner@@8
rdata$r	ENDS
;	COMDAT ??_R0?AVCRespawner@@@8
data$rs	SEGMENT
??_R0?AVCRespawner@@@8 DD FLAT:??_7type_info@@6B@	; CRespawner `RTTI Type Descriptor'
	DD	00H
	DB	'.?AVCRespawner@@', 00H
data$rs	ENDS
;	COMDAT ??_R4CRespawner@@6B@
rdata$r	SEGMENT
??_R4CRespawner@@6B@ DD 00H				; CRespawner::`RTTI Complete Object Locator'
	DD	00H
	DD	00H
	DD	FLAT:??_R0?AVCRespawner@@@8
	DD	FLAT:??_R3CRespawner@@8
rdata$r	ENDS
;	COMDAT ??_R1A@?0A@EA@CRespawnInfo@@8
rdata$r	SEGMENT
??_R1A@?0A@EA@CRespawnInfo@@8 DD FLAT:??_R0?AVCRespawnInfo@@@8 ; CRespawnInfo::`RTTI Base Class Descriptor at (0,-1,0,64)'
	DD	00H
	DD	00H
	DD	0ffffffffH
	DD	00H
	DD	040H
	DD	FLAT:??_R3CRespawnInfo@@8
rdata$r	ENDS
;	COMDAT ??_R2CRespawnInfo@@8
rdata$r	SEGMENT
??_R2CRespawnInfo@@8 DD FLAT:??_R1A@?0A@EA@CRespawnInfo@@8 ; CRespawnInfo::`RTTI Base Class Array'
rdata$r	ENDS
;	COMDAT ??_R3CRespawnInfo@@8
rdata$r	SEGMENT
??_R3CRespawnInfo@@8 DD 00H				; CRespawnInfo::`RTTI Class Hierarchy Descriptor'
	DD	00H
	DD	01H
	DD	FLAT:??_R2CRespawnInfo@@8
rdata$r	ENDS
;	COMDAT ??_R0?AVCRespawnInfo@@@8
data$rs	SEGMENT
??_R0?AVCRespawnInfo@@@8 DD FLAT:??_7type_info@@6B@	; CRespawnInfo `RTTI Type Descriptor'
	DD	00H
	DB	'.?AVCRespawnInfo@@', 00H
data$rs	ENDS
;	COMDAT ??_R4CRespawnInfo@@6B@
rdata$r	SEGMENT
??_R4CRespawnInfo@@6B@ DD 00H				; CRespawnInfo::`RTTI Complete Object Locator'
	DD	00H
	DD	00H
	DD	FLAT:??_R0?AVCRespawnInfo@@@8
	DD	FLAT:??_R3CRespawnInfo@@8
rdata$r	ENDS
;	COMDAT ??_C@_0O@NBAJGPNK@SPAWN?3?5?$CFd?0?5?$CFd@
CONST	SEGMENT
??_C@_0O@NBAJGPNK@SPAWN?3?5?$CFd?0?5?$CFd@ DB 'SPAWN: %d, %d', 00H ; `string'
CONST	ENDS
;	COMDAT ??_C@_0BL@ECDHPEEF@?$CFd?5item?5property?5not?5found@
CONST	SEGMENT
??_C@_0BL@ECDHPEEF@?$CFd?5item?5property?5not?5found@ DB '%d item propert'
	DB	'y not found', 00H				; `string'
CONST	ENDS
;	COMDAT ??_C@_0CA@NLFIDABF@CRespawner?3?3Spawn?$CI?$CJ?7?1?1?50?5index?6@
CONST	SEGMENT
??_C@_0CA@NLFIDABF@CRespawner?3?3Spawn?$CI?$CJ?7?1?1?50?5index?6@ DB 'CRe'
	DB	'spawner::Spawn()', 09H, '// 0 index', 0aH, 00H ; `string'
CONST	ENDS
;	COMDAT ??_C@_0EC@OCJMFDAP@CRespawner?3?3Remove?$LP?$KB?$LM?$KN?5RESPAWN_@
CONST	SEGMENT
??_C@_0EC@OCJMFDAP@CRespawner?3?3Remove?$LP?$KB?$LM?$KN?5RESPAWN_@ DB 'CR'
	DB	'espawner::Remove', 0bfH, 0a1H, 0bcH, 0adH, ' RESPAWN_REGION ', 0c5H
	DB	0b8H, 0c0H, 0d4H, 0c0H, 0baH, ' ', 0bbH, 0e8H, 0c1H, 0a6H, 0c7H
	DB	0d2H, ' ', 0bcH, 0f6H, ' ', 0beH, 0f8H, 0c0H, 0bdH, ' : %d', 0aH
	DB	00H						; `string'
CONST	ENDS
;	COMDAT ??_C@_0DD@JMBKMANC@CRespawner?3?3Add?5?$LA?$LA?$MA?$LK?5ID?5?$LJ?$NP?$LA?$NP?5?3?5@
CONST	SEGMENT
??_C@_0DD@JMBKMANC@CRespawner?3?3Add?5?$LA?$LA?$MA?$LK?5ID?5?$LJ?$NP?$LA?$NP?5?3?5@ DB 'C'
	DB	'Respawner::Add ', 0b0H, 0b0H, 0c0H, 0baH, ' ID ', 0b9H, 0dfH, 0b0H
	DB	0dfH, ' : %d, %d, %f, %f, %d', 0aH, 00H	; `string'
CONST	ENDS
;	COMDAT ??_R4bad_alloc@std@@6B@
rdata$r	SEGMENT
??_R4bad_alloc@std@@6B@ DD 00H				; std::bad_alloc::`RTTI Complete Object Locator'
	DD	00H
	DD	00H
	DD	FLAT:??_R0?AVbad_alloc@std@@@8
	DD	FLAT:??_R3bad_alloc@std@@8
rdata$r	ENDS
;	COMDAT ??_R2bad_alloc@std@@8
rdata$r	SEGMENT
??_R2bad_alloc@std@@8 DD FLAT:??_R1A@?0A@EA@bad_alloc@std@@8 ; std::bad_alloc::`RTTI Base Class Array'
	DD	FLAT:??_R1A@?0A@EA@exception@std@@8
rdata$r	ENDS
;	COMDAT ??_R3bad_alloc@std@@8
rdata$r	SEGMENT
??_R3bad_alloc@std@@8 DD 00H				; std::bad_alloc::`RTTI Class Hierarchy Descriptor'
	DD	00H
	DD	02H
	DD	FLAT:??_R2bad_alloc@std@@8
rdata$r	ENDS
;	COMDAT ??_R1A@?0A@EA@bad_alloc@std@@8
rdata$r	SEGMENT
??_R1A@?0A@EA@bad_alloc@std@@8 DD FLAT:??_R0?AVbad_alloc@std@@@8 ; std::bad_alloc::`RTTI Base Class Descriptor at (0,-1,0,64)'
	DD	01H
	DD	00H
	DD	0ffffffffH
	DD	00H
	DD	040H
	DD	FLAT:??_R3bad_alloc@std@@8
rdata$r	ENDS
;	COMDAT ??_R1A@?0A@EA@bad_array_new_length@std@@8
rdata$r	SEGMENT
??_R1A@?0A@EA@bad_array_new_length@std@@8 DD FLAT:??_R0?AVbad_array_new_length@std@@@8 ; std::bad_array_new_length::`RTTI Base Class Descriptor at (0,-1,0,64)'
	DD	02H
	DD	00H
	DD	0ffffffffH
	DD	00H
	DD	040H
	DD	FLAT:??_R3bad_array_new_length@std@@8
rdata$r	ENDS
;	COMDAT ??_R2bad_array_new_length@std@@8
rdata$r	SEGMENT
??_R2bad_array_new_length@std@@8 DD FLAT:??_R1A@?0A@EA@bad_array_new_length@std@@8 ; std::bad_array_new_length::`RTTI Base Class Array'
	DD	FLAT:??_R1A@?0A@EA@bad_alloc@std@@8
	DD	FLAT:??_R1A@?0A@EA@exception@std@@8
rdata$r	ENDS
;	COMDAT ??_R3bad_array_new_length@std@@8
rdata$r	SEGMENT
??_R3bad_array_new_length@std@@8 DD 00H			; std::bad_array_new_length::`RTTI Class Hierarchy Descriptor'
	DD	00H
	DD	03H
	DD	FLAT:??_R2bad_array_new_length@std@@8
rdata$r	ENDS
;	COMDAT ??_R4bad_array_new_length@std@@6B@
rdata$r	SEGMENT
??_R4bad_array_new_length@std@@6B@ DD 00H		; std::bad_array_new_length::`RTTI Complete Object Locator'
	DD	00H
	DD	00H
	DD	FLAT:??_R0?AVbad_array_new_length@std@@@8
	DD	FLAT:??_R3bad_array_new_length@std@@8
rdata$r	ENDS
;	COMDAT ??_R1A@?0A@EA@exception@std@@8
rdata$r	SEGMENT
??_R1A@?0A@EA@exception@std@@8 DD FLAT:??_R0?AVexception@std@@@8 ; std::exception::`RTTI Base Class Descriptor at (0,-1,0,64)'
	DD	00H
	DD	00H
	DD	0ffffffffH
	DD	00H
	DD	040H
	DD	FLAT:??_R3exception@std@@8
rdata$r	ENDS
;	COMDAT ??_R2exception@std@@8
rdata$r	SEGMENT
??_R2exception@std@@8 DD FLAT:??_R1A@?0A@EA@exception@std@@8 ; std::exception::`RTTI Base Class Array'
rdata$r	ENDS
;	COMDAT ??_R3exception@std@@8
rdata$r	SEGMENT
??_R3exception@std@@8 DD 00H				; std::exception::`RTTI Class Hierarchy Descriptor'
	DD	00H
	DD	01H
	DD	FLAT:??_R2exception@std@@8
rdata$r	ENDS
;	COMDAT ??_R4exception@std@@6B@
rdata$r	SEGMENT
??_R4exception@std@@6B@ DD 00H				; std::exception::`RTTI Complete Object Locator'
	DD	00H
	DD	00H
	DD	FLAT:??_R0?AVexception@std@@@8
	DD	FLAT:??_R3exception@std@@8
rdata$r	ENDS
;	COMDAT ??_C@_0BA@FOIKENOD@vector?5too?5long@
CONST	SEGMENT
??_C@_0BA@FOIKENOD@vector?5too?5long@ DB 'vector too long', 00H ; `string'
CONST	ENDS
;	COMDAT ??_7CLayerdRespawner@@6B@
CONST	SEGMENT
??_7CLayerdRespawner@@6B@ DD FLAT:??_R4CLayerdRespawner@@6B@ ; CLayerdRespawner::`vftable'
	DD	FLAT:??_ECLayerdRespawner@@UAEPAXI@Z
CONST	ENDS
;	COMDAT ??_7CRespawner@@6B@
CONST	SEGMENT
??_7CRespawner@@6B@ DD FLAT:??_R4CRespawner@@6B@	; CRespawner::`vftable'
	DD	FLAT:??_ECRespawner@@UAEPAXI@Z
CONST	ENDS
;	COMDAT ??_7CRespawnInfo@@6B@
CONST	SEGMENT
??_7CRespawnInfo@@6B@ DD FLAT:??_R4CRespawnInfo@@6B@	; CRespawnInfo::`vftable'
	DD	FLAT:??_ECRespawnInfo@@UAEPAXI@Z
CONST	ENDS
;	COMDAT ??_C@_0BJ@GKPOBPPI@GetMoverProp?5range_error@
CONST	SEGMENT
??_C@_0BJ@GKPOBPPI@GetMoverProp?5range_error@ DB 'GetMoverProp range_erro'
	DB	'r', 00H					; `string'
CONST	ENDS
;	COMDAT ??_C@_0BI@BEIFNGEL@GetItemProp?5range_error@
CONST	SEGMENT
??_C@_0BI@BEIFNGEL@GetItemProp?5range_error@ DB 'GetItemProp range_error', 00H ; `string'
CONST	ENDS
;	COMDAT ??_C@_0BM@HMFGHCP@?$CFs?5min?3?$CFd?0?5max?3?$CFd?0?5index?3?$CFd@
CONST	SEGMENT
??_C@_0BM@HMFGHCP@?$CFs?5min?3?$CFd?0?5max?3?$CFd?0?5index?3?$CFd@ DB '%s'
	DB	' min:%d, max:%d, index:%d', 00H		; `string'
CONST	ENDS
;	COMDAT ??_C@_0BB@GCADKGJO@map?1set?5too?5long@
CONST	SEGMENT
??_C@_0BB@GCADKGJO@map?1set?5too?5long@ DB 'map/set too long', 00H ; `string'
CONST	ENDS
;	COMDAT __CT??_R0?AVbad_alloc@std@@@8??0bad_alloc@std@@QAE@ABV01@@Z12
xdata$x	SEGMENT
__CT??_R0?AVbad_alloc@std@@@8??0bad_alloc@std@@QAE@ABV01@@Z12 DD 010H
	DD	FLAT:??_R0?AVbad_alloc@std@@@8
	DD	00H
	DD	0ffffffffH
	ORG $+4
	DD	0cH
	DD	FLAT:??0bad_alloc@std@@QAE@ABV01@@Z
xdata$x	ENDS
;	COMDAT ??_R0?AVbad_alloc@std@@@8
data$r	SEGMENT
??_R0?AVbad_alloc@std@@@8 DD FLAT:??_7type_info@@6B@	; std::bad_alloc `RTTI Type Descriptor'
	DD	00H
	DB	'.?AVbad_alloc@std@@', 00H
data$r	ENDS
;	COMDAT __CT??_R0?AVbad_array_new_length@std@@@8??0bad_array_new_length@std@@QAE@ABV01@@Z12
xdata$x	SEGMENT
__CT??_R0?AVbad_array_new_length@std@@@8??0bad_array_new_length@std@@QAE@ABV01@@Z12 DD 00H
	DD	FLAT:??_R0?AVbad_array_new_length@std@@@8
	DD	00H
	DD	0ffffffffH
	ORG $+4
	DD	0cH
	DD	FLAT:??0bad_array_new_length@std@@QAE@ABV01@@Z
xdata$x	ENDS
;	COMDAT ??_R0?AVbad_array_new_length@std@@@8
data$r	SEGMENT
??_R0?AVbad_array_new_length@std@@@8 DD FLAT:??_7type_info@@6B@ ; std::bad_array_new_length `RTTI Type Descriptor'
	DD	00H
	DB	'.?AVbad_array_new_length@std@@', 00H
data$r	ENDS
;	COMDAT __CTA3?AVbad_array_new_length@std@@
xdata$x	SEGMENT
__CTA3?AVbad_array_new_length@std@@ DD 03H
	DD	FLAT:__CT??_R0?AVbad_array_new_length@std@@@8??0bad_array_new_length@std@@QAE@ABV01@@Z12
	DD	FLAT:__CT??_R0?AVbad_alloc@std@@@8??0bad_alloc@std@@QAE@ABV01@@Z12
	DD	FLAT:__CT??_R0?AVexception@std@@@8??0exception@std@@QAE@ABV01@@Z12
xdata$x	ENDS
;	COMDAT __TI3?AVbad_array_new_length@std@@
xdata$x	SEGMENT
__TI3?AVbad_array_new_length@std@@ DD 00H
	DD	FLAT:??1bad_array_new_length@std@@UAE@XZ
	DD	00H
	DD	FLAT:__CTA3?AVbad_array_new_length@std@@
xdata$x	ENDS
;	COMDAT __CT??_R0?AVexception@std@@@8??0exception@std@@QAE@ABV01@@Z12
xdata$x	SEGMENT
__CT??_R0?AVexception@std@@@8??0exception@std@@QAE@ABV01@@Z12 DD 00H
	DD	FLAT:??_R0?AVexception@std@@@8
	DD	00H
	DD	0ffffffffH
	ORG $+4
	DD	0cH
	DD	FLAT:??0exception@std@@QAE@ABV01@@Z
xdata$x	ENDS
;	COMDAT ??_R0?AVexception@std@@@8
data$r	SEGMENT
??_R0?AVexception@std@@@8 DD FLAT:??_7type_info@@6B@	; std::exception `RTTI Type Descriptor'
	DD	00H
	DB	'.?AVexception@std@@', 00H
data$r	ENDS
;	COMDAT ??_C@_0BF@KINCDENJ@bad?5array?5new?5length@
CONST	SEGMENT
??_C@_0BF@KINCDENJ@bad?5array?5new?5length@ DB 'bad array new length', 00H ; `string'
CONST	ENDS
;	COMDAT ??_7bad_array_new_length@std@@6B@
CONST	SEGMENT
??_7bad_array_new_length@std@@6B@ DD FLAT:??_R4bad_array_new_length@std@@6B@ ; std::bad_array_new_length::`vftable'
	DD	FLAT:??_Ebad_array_new_length@std@@UAEPAXI@Z
	DD	FLAT:?what@exception@std@@UBEPBDXZ
CONST	ENDS
;	COMDAT ??_7bad_alloc@std@@6B@
CONST	SEGMENT
??_7bad_alloc@std@@6B@ DD FLAT:??_R4bad_alloc@std@@6B@	; std::bad_alloc::`vftable'
	DD	FLAT:??_Ebad_alloc@std@@UAEPAXI@Z
	DD	FLAT:?what@exception@std@@UBEPBDXZ
CONST	ENDS
;	COMDAT ??_C@_0BC@EOODALEL@Unknown?5exception@
CONST	SEGMENT
??_C@_0BC@EOODALEL@Unknown?5exception@ DB 'Unknown exception', 00H ; `string'
CONST	ENDS
;	COMDAT ??_7exception@std@@6B@
CONST	SEGMENT
??_7exception@std@@6B@ DD FLAT:??_R4exception@std@@6B@	; std::exception::`vftable'
	DD	FLAT:??_Eexception@std@@UAEPAXI@Z
	DD	FLAT:?what@exception@std@@UBEPBDXZ
CONST	ENDS
;	COMDAT xdata$x
xdata$x	SEGMENT
__unwindtable$??$?0U?$pair@$$CBHPAVCRespawner@@@std@@@?$_Tree_temp_node@V?$allocator@U?$_Tree_node@U?$pair@$$CBHPAVCRespawner@@@std@@PAX@std@@@std@@@std@@QAE@AAV?$allocator@U?$_Tree_node@U?$pair@$$CBHPAVCRespawner@@@std@@PAX@std@@@1@PAU?$_Tree_node@U?$pair@$$CBHPAVCRespawner@@@std@@PAX@1@$$QAU?$pair@$$CBHPAVCRespawner@@@1@@Z DD 0ffffffffH
	DD	FLAT:__unwindfunclet$??$?0U?$pair@$$CBHPAVCRespawner@@@std@@@?$_Tree_temp_node@V?$allocator@U?$_Tree_node@U?$pair@$$CBHPAVCRespawner@@@std@@PAX@std@@@std@@@std@@QAE@AAV?$allocator@U?$_Tree_node@U?$pair@$$CBHPAVCRespawner@@@std@@PAX@std@@@1@PAU?$_Tree_node@U?$pair@$$CBHPAVCRespawner@@@std@@PAX@1@$$QAU?$pair@$$CBHPAVCRespawner@@@1@@Z$1
__ehfuncinfo$??$?0U?$pair@$$CBHPAVCRespawner@@@std@@@?$_Tree_temp_node@V?$allocator@U?$_Tree_node@U?$pair@$$CBHPAVCRespawner@@@std@@PAX@std@@@std@@@std@@QAE@AAV?$allocator@U?$_Tree_node@U?$pair@$$CBHPAVCRespawner@@@std@@PAX@std@@@1@PAU?$_Tree_node@U?$pair@$$CBHPAVCRespawner@@@std@@PAX@1@$$QAU?$pair@$$CBHPAVCRespawner@@@1@@Z DD 019930522H
	DD	01H
	DD	FLAT:__unwindtable$??$?0U?$pair@$$CBHPAVCRespawner@@@std@@@?$_Tree_temp_node@V?$allocator@U?$_Tree_node@U?$pair@$$CBHPAVCRespawner@@@std@@PAX@std@@@std@@@std@@QAE@AAV?$allocator@U?$_Tree_node@U?$pair@$$CBHPAVCRespawner@@@std@@PAX@std@@@1@PAU?$_Tree_node@U?$pair@$$CBHPAVCRespawner@@@std@@PAX@1@$$QAU?$pair@$$CBHPAVCRespawner@@@1@@Z
	DD	2 DUP(00H)
	DD	2 DUP(00H)
	DD	00H
	DD	01H
xdata$x	ENDS
;	COMDAT xdata$x
xdata$x	SEGMENT
__unwindtable$??0?$_Tree_temp_node_alloc@V?$allocator@U?$_Tree_node@U?$pair@$$CBHPAVCRespawner@@@std@@PAX@std@@@std@@@std@@QAE@AAV?$allocator@U?$_Tree_node@U?$pair@$$CBHPAVCRespawner@@@std@@PAX@std@@@1@@Z DD 0ffffffffH
	DD	FLAT:__unwindfunclet$??0?$_Tree_temp_node_alloc@V?$allocator@U?$_Tree_node@U?$pair@$$CBHPAVCRespawner@@@std@@PAX@std@@@std@@@std@@QAE@AAV?$allocator@U?$_Tree_node@U?$pair@$$CBHPAVCRespawner@@@std@@PAX@std@@@1@@Z$0
__ehfuncinfo$??0?$_Tree_temp_node_alloc@V?$allocator@U?$_Tree_node@U?$pair@$$CBHPAVCRespawner@@@std@@PAX@std@@@std@@@std@@QAE@AAV?$allocator@U?$_Tree_node@U?$pair@$$CBHPAVCRespawner@@@std@@PAX@std@@@1@@Z DD 019930522H
	DD	01H
	DD	FLAT:__unwindtable$??0?$_Tree_temp_node_alloc@V?$allocator@U?$_Tree_node@U?$pair@$$CBHPAVCRespawner@@@std@@PAX@std@@@std@@@std@@QAE@AAV?$allocator@U?$_Tree_node@U?$pair@$$CBHPAVCRespawner@@@std@@PAX@std@@@1@@Z
	DD	2 DUP(00H)
	DD	2 DUP(00H)
	DD	00H
	DD	01H
xdata$x	ENDS
;	COMDAT xdata$x
xdata$x	SEGMENT
__unwindtable$??$_Emplace@U?$pair@$$CBHPAVCRespawner@@@std@@@?$_Tree@V?$_Tmap_traits@HPAVCRespawner@@U?$less@H@std@@V?$allocator@U?$pair@$$CBHPAVCRespawner@@@std@@@3@$0A@@std@@@std@@IAE?AU?$pair@PAU?$_Tree_node@U?$pair@$$CBHPAVCRespawner@@@std@@PAX@std@@_N@1@$$QAU?$pair@$$CBHPAVCRespawner@@@1@@Z DD 0ffffffffH
	DD	FLAT:__unwindfunclet$??$_Emplace@U?$pair@$$CBHPAVCRespawner@@@std@@@?$_Tree@V?$_Tmap_traits@HPAVCRespawner@@U?$less@H@std@@V?$allocator@U?$pair@$$CBHPAVCRespawner@@@std@@@3@$0A@@std@@@std@@IAE?AU?$pair@PAU?$_Tree_node@U?$pair@$$CBHPAVCRespawner@@@std@@PAX@std@@_N@1@$$QAU?$pair@$$CBHPAVCRespawner@@@1@@Z$2
__ehfuncinfo$??$_Emplace@U?$pair@$$CBHPAVCRespawner@@@std@@@?$_Tree@V?$_Tmap_traits@HPAVCRespawner@@U?$less@H@std@@V?$allocator@U?$pair@$$CBHPAVCRespawner@@@std@@@3@$0A@@std@@@std@@IAE?AU?$pair@PAU?$_Tree_node@U?$pair@$$CBHPAVCRespawner@@@std@@PAX@std@@_N@1@$$QAU?$pair@$$CBHPAVCRespawner@@@1@@Z DD 019930522H
	DD	01H
	DD	FLAT:__unwindtable$??$_Emplace@U?$pair@$$CBHPAVCRespawner@@@std@@@?$_Tree@V?$_Tmap_traits@HPAVCRespawner@@U?$less@H@std@@V?$allocator@U?$pair@$$CBHPAVCRespawner@@@std@@@3@$0A@@std@@@std@@IAE?AU?$pair@PAU?$_Tree_node@U?$pair@$$CBHPAVCRespawner@@@std@@PAX@std@@_N@1@$$QAU?$pair@$$CBHPAVCRespawner@@@1@@Z
	DD	2 DUP(00H)
	DD	2 DUP(00H)
	DD	00H
	DD	01H
xdata$x	ENDS
;	COMDAT xdata$x
xdata$x	SEGMENT
__unwindtable$??$insert@$0A@$0A@@?$_Tree@V?$_Tmap_traits@HPAVCRespawner@@U?$less@H@std@@V?$allocator@U?$pair@$$CBHPAVCRespawner@@@std@@@3@$0A@@std@@@std@@QAE?AU?$pair@V?$_Tree_iterator@V?$_Tree_val@U?$_Tree_simple_types@U?$pair@$$CBHPAVCRespawner@@@std@@@std@@@std@@@std@@_N@1@$$QAU?$pair@$$CBHPAVCRespawner@@@1@@Z DD 0ffffffffH
	DD	FLAT:__unwindfunclet$??$insert@$0A@$0A@@?$_Tree@V?$_Tmap_traits@HPAVCRespawner@@U?$less@H@std@@V?$allocator@U?$pair@$$CBHPAVCRespawner@@@std@@@3@$0A@@std@@@std@@QAE?AU?$pair@V?$_Tree_iterator@V?$_Tree_val@U?$_Tree_simple_types@U?$pair@$$CBHPAVCRespawner@@@std@@@std@@@std@@@std@@_N@1@$$QAU?$pair@$$CBHPAVCRespawner@@@1@@Z$2
__ehfuncinfo$??$insert@$0A@$0A@@?$_Tree@V?$_Tmap_traits@HPAVCRespawner@@U?$less@H@std@@V?$allocator@U?$pair@$$CBHPAVCRespawner@@@std@@@3@$0A@@std@@@std@@QAE?AU?$pair@V?$_Tree_iterator@V?$_Tree_val@U?$_Tree_simple_types@U?$pair@$$CBHPAVCRespawner@@@std@@@std@@@std@@@std@@_N@1@$$QAU?$pair@$$CBHPAVCRespawner@@@1@@Z DD 019930522H
	DD	01H
	DD	FLAT:__unwindtable$??$insert@$0A@$0A@@?$_Tree@V?$_Tmap_traits@HPAVCRespawner@@U?$less@H@std@@V?$allocator@U?$pair@$$CBHPAVCRespawner@@@std@@@3@$0A@@std@@@std@@QAE?AU?$pair@V?$_Tree_iterator@V?$_Tree_val@U?$_Tree_simple_types@U?$pair@$$CBHPAVCRespawner@@@std@@@std@@@std@@@std@@_N@1@$$QAU?$pair@$$CBHPAVCRespawner@@@1@@Z
	DD	2 DUP(00H)
	DD	2 DUP(00H)
	DD	00H
	DD	01H
xdata$x	ENDS
;	COMDAT xdata$x
xdata$x	SEGMENT
__unwindtable$?Expand@CLayerdRespawner@@QAEXH@Z DD 0ffffffffH
	DD	FLAT:__unwindfunclet$?Expand@CLayerdRespawner@@QAEXH@Z$0
	DD	0ffffffffH
	DD	FLAT:__unwindfunclet$?Expand@CLayerdRespawner@@QAEXH@Z$3
__ehfuncinfo$?Expand@CLayerdRespawner@@QAEXH@Z DD 019930522H
	DD	02H
	DD	FLAT:__unwindtable$?Expand@CLayerdRespawner@@QAEXH@Z
	DD	2 DUP(00H)
	DD	2 DUP(00H)
	DD	00H
	DD	01H
xdata$x	ENDS
;	COMDAT xdata$x
xdata$x	SEGMENT
__unwindtable$??0CLayerdRespawner@@QAE@XZ DD 0ffffffffH
	DD	FLAT:__unwindfunclet$??0CLayerdRespawner@@QAE@XZ$0
__ehfuncinfo$??0CLayerdRespawner@@QAE@XZ DD 019930522H
	DD	01H
	DD	FLAT:__unwindtable$??0CLayerdRespawner@@QAE@XZ
	DD	2 DUP(00H)
	DD	2 DUP(00H)
	DD	00H
	DD	01H
xdata$x	ENDS
;	COMDAT voltbl
voltbl	SEGMENT
_volmd	DW	0d6H
	DW	01d2H
	DW	01f0H
	DW	021eH
	DW	022dH
	DW	0643H
	DW	0676H
voltbl	ENDS
;	COMDAT xdata$x
xdata$x	SEGMENT
__unwindtable$?Spawn@CRespawner@@QAEKPAVCWorld@@H@Z DD 0ffffffffH
	DD	FLAT:__unwindfunclet$?Spawn@CRespawner@@QAEKPAVCWorld@@H@Z$0
__ehfuncinfo$?Spawn@CRespawner@@QAEKPAVCWorld@@H@Z DD 019930522H
	DD	01H
	DD	FLAT:__unwindtable$?Spawn@CRespawner@@QAEKPAVCWorld@@H@Z
	DD	2 DUP(00H)
	DD	2 DUP(00H)
	DD	00H
	DD	01H
xdata$x	ENDS
;	COMDAT xdata$x
xdata$x	SEGMENT
__ehfuncinfo$??1CRespawner@@UAE@XZ DD 019930522H
	DD	00H
	DD	00H
	DD	2 DUP(00H)
	DD	2 DUP(00H)
	DD	00H
	DD	05H
xdata$x	ENDS
;	COMDAT xdata$x
xdata$x	SEGMENT
__unwindtable$??0CRespawner@@QAE@ABV0@@Z DD 0ffffffffH
	DD	FLAT:__unwindfunclet$??0CRespawner@@QAE@ABV0@@Z$0
__ehfuncinfo$??0CRespawner@@QAE@ABV0@@Z DD 019930522H
	DD	01H
	DD	FLAT:__unwindtable$??0CRespawner@@QAE@ABV0@@Z
	DD	2 DUP(00H)
	DD	2 DUP(00H)
	DD	00H
	DD	01H
xdata$x	ENDS
;	COMDAT voltbl
voltbl	SEGMENT
_volmd	DB	02aH
	DB	02dH
	DB	07aH
	DB	07dH
	DB	080H
voltbl	ENDS
;	COMDAT voltbl
voltbl	SEGMENT
_volmd	DB	04cH
	DB	04fH
	DB	09cH
	DB	09fH
	DB	0a2H
voltbl	ENDS
;	COMDAT voltbl
voltbl	SEGMENT
_volmd	DB	041H
	DB	055H
voltbl	ENDS
; Function compile flags: /Ogtp
; File C:\Program Files\Microsoft Visual Studio\2022\Professional\VC\Tools\MSVC\14.44.35207\include\vector
; File C:\Program Files\Microsoft Visual Studio\2022\Professional\VC\Tools\MSVC\14.44.35207\include\xmemory
; File C:\Program Files\Microsoft Visual Studio\2022\Professional\VC\Tools\MSVC\14.44.35207\include\vector
; File C:\Program Files\Microsoft Visual Studio\2022\Professional\VC\Tools\MSVC\14.44.35207\include\xmemory
; File C:\Program Files\Microsoft Visual Studio\2022\Professional\VC\Tools\MSVC\14.44.35207\include\vector
; File C:\Program Files\Microsoft Visual Studio\2022\Professional\VC\Tools\MSVC\14.44.35207\include\xmemory
; File C:\Program Files\Microsoft Visual Studio\2022\Professional\VC\Tools\MSVC\14.44.35207\include\vector
; File C:\Program Files\Microsoft Visual Studio\2022\Professional\VC\Tools\MSVC\14.44.35207\include\xmemory
; File C:\Program Files\Microsoft Visual Studio\2022\Professional\VC\Tools\MSVC\14.44.35207\include\vector
; File C:\Program Files\Microsoft Visual Studio\2022\Professional\VC\Tools\MSVC\14.44.35207\include\xmemory
; File C:\Program Files\Microsoft Visual Studio\2022\Professional\VC\Tools\MSVC\14.44.35207\include\vector
; File C:\Program Files\Microsoft Visual Studio\2022\Professional\VC\Tools\MSVC\14.44.35207\include\xmemory
; File C:\Program Files\Microsoft Visual Studio\2022\Professional\VC\Tools\MSVC\14.44.35207\include\vector
; File C:\Program Files\Microsoft Visual Studio\2022\Professional\VC\Tools\MSVC\14.44.35207\include\xmemory
; File C:\Program Files\Microsoft Visual Studio\2022\Professional\VC\Tools\MSVC\14.44.35207\include\vector
; File C:\Program Files\Microsoft Visual Studio\2022\Professional\VC\Tools\MSVC\14.44.35207\include\xmemory
; File C:\Program Files\Microsoft Visual Studio\2022\Professional\VC\Tools\MSVC\14.44.35207\include\vector
; File C:\Program Files\Microsoft Visual Studio\2022\Professional\VC\Tools\MSVC\14.44.35207\include\xmemory
; File C:\Program Files\Microsoft Visual Studio\2022\Professional\VC\Tools\MSVC\14.44.35207\include\vector
; File C:\Program Files\Microsoft Visual Studio\2022\Professional\VC\Tools\MSVC\14.44.35207\include\xmemory
; File C:\Program Files\Microsoft Visual Studio\2022\Professional\VC\Tools\MSVC\14.44.35207\include\vector
; File C:\Program Files\Microsoft Visual Studio\2022\Professional\VC\Tools\MSVC\14.44.35207\include\xmemory
; File C:\Program Files\Microsoft Visual Studio\2022\Professional\VC\Tools\MSVC\14.44.35207\include\vector
;	COMDAT ??$_Emplace_reallocate@ABVCRespawnInfo@@@?$vector@VCRespawnInfo@@V?$allocator@VCRespawnInfo@@@std@@@std@@AAEPAVCRespawnInfo@@QAV2@ABV2@@Z
_TEXT	SEGMENT
tv825 = -16						; size = 4
tv826 = -12						; size = 4
__Newsize$1$ = -8					; size = 4
_this$1$ = -4						; size = 4
__Whereptr$ = 8						; size = 4
$T4 = 8							; size = 4
_<_Val_0>$ = 12						; size = 4
??$_Emplace_reallocate@ABVCRespawnInfo@@@?$vector@VCRespawnInfo@@V?$allocator@VCRespawnInfo@@@std@@@std@@AAEPAVCRespawnInfo@@QAV2@ABV2@@Z PROC ; std::vector<CRespawnInfo,std::allocator<CRespawnInfo> >::_Emplace_reallocate<CRespawnInfo const &>, COMDAT
; _this$ = ecx

; 875  :     _CONSTEXPR20 pointer _Emplace_reallocate(const pointer _Whereptr, _Valty&&... _Val) {

  00000	55		 push	 ebp
  00001	8b ec		 mov	 ebp, esp
  00003	83 ec 10	 sub	 esp, 16			; 00000010H
  00006	53		 push	 ebx
  00007	56		 push	 esi
  00008	8b d9		 mov	 ebx, ecx

; 876  :         // reallocate and insert by perfectly forwarding _Val at _Whereptr
; 877  :         _Alty& _Al        = _Getal();
; 878  :         auto& _My_data    = _Mypair._Myval2;
; 879  :         pointer& _Myfirst = _My_data._Myfirst;
; 880  :         pointer& _Mylast  = _My_data._Mylast;
; 881  : 
; 882  :         _STL_INTERNAL_CHECK(_Mylast == _My_data._Myend); // check that we have no unused capacity
; 883  : 
; 884  :         const auto _Whereoff = static_cast<size_type>(_Whereptr - _Myfirst);

  0000a	b8 eb 5d f2 60	 mov	 eax, 1626496491		; 60f25debH
  0000f	57		 push	 edi
  00010	8b 7d 08	 mov	 edi, DWORD PTR __Whereptr$[ebp]
  00013	8b d7		 mov	 edx, edi
  00015	89 5d fc	 mov	 DWORD PTR _this$1$[ebp], ebx
  00018	2b 13		 sub	 edx, DWORD PTR [ebx]

; 885  :         const auto _Oldsize  = static_cast<size_type>(_Mylast - _Myfirst);

  0001a	8b 4b 04	 mov	 ecx, DWORD PTR [ebx+4]
  0001d	2b 0b		 sub	 ecx, DWORD PTR [ebx]
  0001f	f7 ea		 imul	 edx
  00021	b8 eb 5d f2 60	 mov	 eax, 1626496491		; 60f25debH
  00026	c1 fa 09	 sar	 edx, 9
  00029	8b f2		 mov	 esi, edx
  0002b	c1 ee 1f	 shr	 esi, 31			; 0000001fH
  0002e	03 f2		 add	 esi, edx
  00030	f7 e9		 imul	 ecx
  00032	c1 fa 09	 sar	 edx, 9
  00035	8b c2		 mov	 eax, edx
  00037	c1 e8 1f	 shr	 eax, 31			; 0000001fH
  0003a	03 c2		 add	 eax, edx

; 886  : 
; 887  :         if (_Oldsize == max_size()) {

  0003c	3d 2e 79 30 00	 cmp	 eax, 3176750		; 0030792eH
  00041	0f 84 b4 01 00
	00		 je	 $LN208@Emplace_re

; 1924 :         return static_cast<size_type>(_My_data._Myend - _My_data._Myfirst);

  00047	8b 4b 08	 mov	 ecx, DWORD PTR [ebx+8]

; 889  :         }
; 890  : 
; 891  :         const size_type _Newsize = _Oldsize + 1;

  0004a	40		 inc	 eax

; 1924 :         return static_cast<size_type>(_My_data._Myend - _My_data._Myfirst);

  0004b	2b 0b		 sub	 ecx, DWORD PTR [ebx]

; 889  :         }
; 890  : 
; 891  :         const size_type _Newsize = _Oldsize + 1;

  0004d	89 45 f8	 mov	 DWORD PTR __Newsize$1$[ebp], eax

; 1924 :         return static_cast<size_type>(_My_data._Myend - _My_data._Myfirst);

  00050	b8 eb 5d f2 60	 mov	 eax, 1626496491		; 60f25debH
  00055	f7 e9		 imul	 ecx

; 2011 :         if (_Oldcapacity > _Max - _Oldcapacity / 2) {

  00057	b8 2e 79 30 00	 mov	 eax, 3176750		; 0030792eH

; 1924 :         return static_cast<size_type>(_My_data._Myend - _My_data._Myfirst);

  0005c	c1 fa 09	 sar	 edx, 9
  0005f	8b ca		 mov	 ecx, edx
  00061	c1 e9 1f	 shr	 ecx, 31			; 0000001fH
  00064	03 ca		 add	 ecx, edx

; 2011 :         if (_Oldcapacity > _Max - _Oldcapacity / 2) {

  00066	8b d1		 mov	 edx, ecx
  00068	d1 ea		 shr	 edx, 1
  0006a	2b c2		 sub	 eax, edx
  0006c	3b c8		 cmp	 ecx, eax
  0006e	76 19		 jbe	 SHORT $LN8@Emplace_re

; 2012 :             return _Max; // geometric growth would overflow

  00070	b8 f0 fa ff ff	 mov	 eax, -1296		; fffffaf0H
  00075	c7 45 f4 f0 fa
	ff ff		 mov	 DWORD PTR tv826[ebp], -1296 ; fffffaf0H
; File C:\Program Files\Microsoft Visual Studio\2022\Professional\VC\Tools\MSVC\14.44.35207\include\xmemory

; 253  :             return _Allocate_manually_vector_aligned<_Traits>(_Bytes);

  0007c	50		 push	 eax
  0007d	e8 00 00 00 00	 call	 ??$_Allocate_manually_vector_aligned@U_Default_allocate_traits@std@@@std@@YAPAXI@Z ; std::_Allocate_manually_vector_aligned<std::_Default_allocate_traits>
  00082	8b c8		 mov	 ecx, eax
  00084	89 4d 08	 mov	 DWORD PTR $T4[ebp], ecx
  00087	eb 4a		 jmp	 SHORT $LN205@Emplace_re
$LN8@Emplace_re:
; File C:\Program Files\Microsoft Visual Studio\2022\Professional\VC\Tools\MSVC\14.44.35207\include\vector

; 2015 :         const size_type _Geometric = _Oldcapacity + _Oldcapacity / 2;

  00089	8d 04 0a	 lea	 eax, DWORD PTR [edx+ecx]
; File C:\Program Files\Microsoft Visual Studio\2022\Professional\VC\Tools\MSVC\14.44.35207\include\xmemory

; 117  :         if (_Count > _Max_possible) {

  0008c	8b 4d f8	 mov	 ecx, DWORD PTR __Newsize$1$[ebp]
  0008f	3b c1		 cmp	 eax, ecx
  00091	0f 43 c8	 cmovae	 ecx, eax
  00094	81 f9 2e 79 30
	00		 cmp	 ecx, 3176750		; 0030792eH
  0009a	0f 87 60 01 00
	00		 ja	 $LN209@Emplace_re

; 119  :         }
; 120  :     }
; 121  : 
; 122  :     return _Count * _Ty_size;

  000a0	69 c1 48 05 00
	00		 imul	 eax, ecx, 1352
  000a6	89 45 f4	 mov	 DWORD PTR tv826[ebp], eax

; 227  :     if (_Bytes == 0) {

  000a9	85 c0		 test	 eax, eax
  000ab	75 07		 jne	 SHORT $LN23@Emplace_re

; 228  :         return nullptr;

  000ad	33 c9		 xor	 ecx, ecx
  000af	89 4d 08	 mov	 DWORD PTR $T4[ebp], ecx
  000b2	eb 22		 jmp	 SHORT $LN22@Emplace_re
$LN23@Emplace_re:

; 229  :     }
; 230  : 
; 231  : #if _HAS_CXX20 // TRANSITION, GH-1532
; 232  :     if (_STD is_constant_evaluated()) {
; 233  :         return _Traits::_Allocate(_Bytes);
; 234  :     }
; 235  : #endif // _HAS_CXX20
; 236  : 
; 237  : #ifdef __cpp_aligned_new
; 238  :     if constexpr (_Align > __STDCPP_DEFAULT_NEW_ALIGNMENT__) {
; 239  :         size_t _Passed_align = _Align;
; 240  : #if defined(_M_IX86) || defined(_M_X64)
; 241  :         if (_Bytes >= _Big_allocation_threshold) {
; 242  :             // boost the alignment of big allocations to help autovectorization
; 243  :             _Passed_align = (_STD max)(_Align, _Big_allocation_alignment);
; 244  :         }
; 245  : #endif // defined(_M_IX86) || defined(_M_X64)
; 246  :         return _Traits::_Allocate_aligned(_Bytes, _Passed_align);
; 247  :     } else
; 248  : #endif // defined(__cpp_aligned_new)
; 249  :     {
; 250  : #if defined(_M_IX86) || defined(_M_X64)
; 251  :         if (_Bytes >= _Big_allocation_threshold) {

  000b4	3d 00 10 00 00	 cmp	 eax, 4096		; 00001000H
  000b9	72 0d		 jb	 SHORT $LN24@Emplace_re

; 253  :             return _Allocate_manually_vector_aligned<_Traits>(_Bytes);

  000bb	50		 push	 eax
  000bc	e8 00 00 00 00	 call	 ??$_Allocate_manually_vector_aligned@U_Default_allocate_traits@std@@@std@@YAPAXI@Z ; std::_Allocate_manually_vector_aligned<std::_Default_allocate_traits>
  000c1	8b c8		 mov	 ecx, eax
  000c3	89 4d 08	 mov	 DWORD PTR $T4[ebp], ecx
  000c6	eb 0b		 jmp	 SHORT $LN205@Emplace_re
$LN24@Emplace_re:

; 136  :         return ::operator new(_Bytes);

  000c8	50		 push	 eax
  000c9	e8 00 00 00 00	 call	 ??2@YAPAXI@Z		; operator new

; 256  :         return _Traits::_Allocate(_Bytes);

  000ce	8b c8		 mov	 ecx, eax
  000d0	89 45 08	 mov	 DWORD PTR $T4[ebp], eax
$LN205@Emplace_re:
; File C:\Program Files\Microsoft Visual Studio\2022\Professional\VC\Tools\MSVC\14.44.35207\include\vector

; 895  :         const pointer _Constructed_last = _Newvec + _Whereoff + 1;

  000d3	83 c4 04	 add	 esp, 4
$LN22@Emplace_re:
; File C:\Program Files\Microsoft Visual Studio\2022\Professional\VC\Tools\MSVC\14.44.35207\include\xmemory

; 732  :         ::new (const_cast<void*>(static_cast<const volatile void*>(_Ptr))) _Objty(_STD forward<_Types>(_Args)...);

  000d6	ff 75 0c	 push	 DWORD PTR _<_Val_0>$[ebp]
; File C:\Program Files\Microsoft Visual Studio\2022\Professional\VC\Tools\MSVC\14.44.35207\include\vector

; 895  :         const pointer _Constructed_last = _Newvec + _Whereoff + 1;

  000d9	69 c6 48 05 00
	00		 imul	 eax, esi, 1352
  000df	03 c1		 add	 eax, ecx
; File C:\Program Files\Microsoft Visual Studio\2022\Professional\VC\Tools\MSVC\14.44.35207\include\xmemory

; 732  :         ::new (const_cast<void*>(static_cast<const volatile void*>(_Ptr))) _Objty(_STD forward<_Types>(_Args)...);

  000e1	8b c8		 mov	 ecx, eax
; File C:\Program Files\Microsoft Visual Studio\2022\Professional\VC\Tools\MSVC\14.44.35207\include\vector

; 895  :         const pointer _Constructed_last = _Newvec + _Whereoff + 1;

  000e3	89 45 f0	 mov	 DWORD PTR tv825[ebp], eax
; File C:\Program Files\Microsoft Visual Studio\2022\Professional\VC\Tools\MSVC\14.44.35207\include\xmemory

; 732  :         ::new (const_cast<void*>(static_cast<const volatile void*>(_Ptr))) _Objty(_STD forward<_Types>(_Args)...);

  000e6	e8 00 00 00 00	 call	 ??0CRespawnInfo@@QAE@ABV0@@Z ; CRespawnInfo::CRespawnInfo
; File C:\Program Files\Microsoft Visual Studio\2022\Professional\VC\Tools\MSVC\14.44.35207\include\vector

; 903  :         if (_Whereptr == _Mylast) { // at back, provide strong guarantee

  000eb	8b 43 04	 mov	 eax, DWORD PTR [ebx+4]
  000ee	8b 33		 mov	 esi, DWORD PTR [ebx]
  000f0	3b f8		 cmp	 edi, eax
  000f2	75 26		 jne	 SHORT $LN3@Emplace_re
; File C:\Program Files\Microsoft Visual Studio\2022\Professional\VC\Tools\MSVC\14.44.35207\include\xmemory

; 1833 :     _CONSTEXPR20 _Uninitialized_backout_al(pointer _Dest, _Alloc& _Al_) : _First(_Dest), _Last(_Dest), _Al(_Al_) {}

  000f4	8b 7d 08	 mov	 edi, DWORD PTR $T4[ebp]

; 1901 :     for (; _UFirst != _ULast; ++_UFirst) {

  000f7	3b f0		 cmp	 esi, eax
  000f9	74 6b		 je	 SHORT $LN82@Emplace_re
  000fb	8b d8		 mov	 ebx, eax
  000fd	0f 1f 00	 npad	 3
$LL35@Emplace_re:

; 732  :         ::new (const_cast<void*>(static_cast<const volatile void*>(_Ptr))) _Objty(_STD forward<_Types>(_Args)...);

  00100	56		 push	 esi
  00101	8b cf		 mov	 ecx, edi
  00103	e8 00 00 00 00	 call	 ??0CRespawnInfo@@QAE@ABV0@@Z ; CRespawnInfo::CRespawnInfo

; 1901 :     for (; _UFirst != _ULast; ++_UFirst) {

  00108	81 c6 48 05 00
	00		 add	 esi, 1352		; 00000548H

; 1845 :         ++_Last;

  0010e	81 c7 48 05 00
	00		 add	 edi, 1352		; 00000548H

; 1901 :     for (; _UFirst != _ULast; ++_UFirst) {

  00114	3b f3		 cmp	 esi, ebx
  00116	75 e8		 jne	 SHORT $LL35@Emplace_re
; File C:\Program Files\Microsoft Visual Studio\2022\Professional\VC\Tools\MSVC\14.44.35207\include\vector

; 909  :         } else { // provide basic guarantee

  00118	eb 49		 jmp	 SHORT $LN206@Emplace_re
$LN3@Emplace_re:
; File C:\Program Files\Microsoft Visual Studio\2022\Professional\VC\Tools\MSVC\14.44.35207\include\xmemory

; 1833 :     _CONSTEXPR20 _Uninitialized_backout_al(pointer _Dest, _Alloc& _Al_) : _First(_Dest), _Last(_Dest), _Al(_Al_) {}

  0011a	8b 5d 08	 mov	 ebx, DWORD PTR $T4[ebp]

; 1998 :     for (; _UFirst != _ULast; ++_UFirst) {

  0011d	3b f7		 cmp	 esi, edi
  0011f	74 18		 je	 SHORT $LN58@Emplace_re
$LL59@Emplace_re:

; 732  :         ::new (const_cast<void*>(static_cast<const volatile void*>(_Ptr))) _Objty(_STD forward<_Types>(_Args)...);

  00121	56		 push	 esi
  00122	8b cb		 mov	 ecx, ebx
  00124	e8 00 00 00 00	 call	 ??0CRespawnInfo@@QAE@ABV0@@Z ; CRespawnInfo::CRespawnInfo

; 1998 :     for (; _UFirst != _ULast; ++_UFirst) {

  00129	81 c6 48 05 00
	00		 add	 esi, 1352		; 00000548H

; 1845 :         ++_Last;

  0012f	81 c3 48 05 00
	00		 add	 ebx, 1352		; 00000548H

; 1998 :     for (; _UFirst != _ULast; ++_UFirst) {

  00135	3b f7		 cmp	 esi, edi
  00137	75 e8		 jne	 SHORT $LL59@Emplace_re
$LN58@Emplace_re:

; 1985 :     const auto _ULast = _STD _Get_unwrapped(_Last);

  00139	8b 5d fc	 mov	 ebx, DWORD PTR _this$1$[ebp]
  0013c	8b 73 04	 mov	 esi, DWORD PTR [ebx+4]

; 1986 :     if constexpr (conjunction_v<bool_constant<_Iter_move_cat<decltype(_UFirst), _Ptrval>::_Bitcopy_constructible>,
; 1987 :                       _Uses_default_construct<_Alloc, _Ptrval, decltype(_STD move(*_UFirst))>>) {
; 1988 : #if _HAS_CXX20
; 1989 :         if (!_STD is_constant_evaluated())
; 1990 : #endif // _HAS_CXX20
; 1991 :         {
; 1992 :             _STD _Copy_memmove(_UFirst, _ULast, _STD _Unfancy(_Dest));
; 1993 :             return _Dest + (_ULast - _UFirst);
; 1994 :         }
; 1995 :     }
; 1996 : 
; 1997 :     _Uninitialized_backout_al<_Alloc> _Backout{_Dest, _Al};
; 1998 :     for (; _UFirst != _ULast; ++_UFirst) {

  0013f	3b fe		 cmp	 edi, esi
  00141	74 23		 je	 SHORT $LN82@Emplace_re
  00143	8b 5d f0	 mov	 ebx, DWORD PTR tv825[ebp]
  00146	2b df		 sub	 ebx, edi
  00148	81 c3 48 05 00
	00		 add	 ebx, 1352		; 00000548H
  0014e	66 90		 npad	 2
$LL83@Emplace_re:

; 732  :         ::new (const_cast<void*>(static_cast<const volatile void*>(_Ptr))) _Objty(_STD forward<_Types>(_Args)...);

  00150	57		 push	 edi
  00151	8d 0c 3b	 lea	 ecx, DWORD PTR [ebx+edi]
  00154	e8 00 00 00 00	 call	 ??0CRespawnInfo@@QAE@ABV0@@Z ; CRespawnInfo::CRespawnInfo

; 1998 :     for (; _UFirst != _ULast; ++_UFirst) {

  00159	81 c7 48 05 00
	00		 add	 edi, 1352		; 00000548H
  0015f	3b fe		 cmp	 edi, esi
  00161	75 ed		 jne	 SHORT $LL83@Emplace_re
$LN206@Emplace_re:
; File C:\Program Files\Microsoft Visual Studio\2022\Professional\VC\Tools\MSVC\14.44.35207\include\vector

; 2069 :         if (_Myfirst) { // destroy and deallocate old array

  00163	8b 5d fc	 mov	 ebx, DWORD PTR _this$1$[ebp]
$LN82@Emplace_re:
  00166	8b 33		 mov	 esi, DWORD PTR [ebx]
  00168	85 f6		 test	 esi, esi
  0016a	74 5b		 je	 SHORT $LN121@Emplace_re

; 2070 :             _STD _Destroy_range(_Myfirst, _Mylast, _Al);

  0016c	8b 7b 04	 mov	 edi, DWORD PTR [ebx+4]
; File C:\Program Files\Microsoft Visual Studio\2022\Professional\VC\Tools\MSVC\14.44.35207\include\xmemory

; 1102 :         for (; _First != _Last; ++_First) {

  0016f	3b f7		 cmp	 esi, edi
  00171	74 12		 je	 SHORT $LN110@Emplace_re
$LL111@Emplace_re:

; 741  :         _Ptr->~_Uty();

  00173	8b 06		 mov	 eax, DWORD PTR [esi]
  00175	8b ce		 mov	 ecx, esi
  00177	6a 00		 push	 0
  00179	ff 10		 call	 DWORD PTR [eax]

; 1102 :         for (; _First != _Last; ++_First) {

  0017b	81 c6 48 05 00
	00		 add	 esi, 1352		; 00000548H
  00181	3b f7		 cmp	 esi, edi
  00183	75 ee		 jne	 SHORT $LL111@Emplace_re
$LN110@Emplace_re:
; File C:\Program Files\Microsoft Visual Studio\2022\Professional\VC\Tools\MSVC\14.44.35207\include\vector

; 2072 :             _Al.deallocate(_Myfirst, static_cast<size_type>(_Myend - _Myfirst));

  00185	8b 4b 08	 mov	 ecx, DWORD PTR [ebx+8]
  00188	b8 eb 5d f2 60	 mov	 eax, 1626496491		; 60f25debH
  0018d	8b 33		 mov	 esi, DWORD PTR [ebx]
  0018f	2b ce		 sub	 ecx, esi
  00191	f7 e9		 imul	 ecx
  00193	c1 fa 09	 sar	 edx, 9
  00196	8b c2		 mov	 eax, edx
  00198	c1 e8 1f	 shr	 eax, 31			; 0000001fH
  0019b	03 c2		 add	 eax, edx
; File C:\Program Files\Microsoft Visual Studio\2022\Professional\VC\Tools\MSVC\14.44.35207\include\xmemory

; 985  :         _STD _Deallocate<_New_alignof<_Ty>>(_Ptr, sizeof(_Ty) * _Count);

  0019d	69 c8 48 05 00
	00		 imul	 ecx, eax, 1352

; 284  :         if (_Bytes >= _Big_allocation_threshold) {

  001a3	81 f9 00 10 00
	00		 cmp	 ecx, 4096		; 00001000H
  001a9	72 12		 jb	 SHORT $LN126@Emplace_re

; 205  :     const uintptr_t _Ptr_container   = _Ptr_user[-1];

  001ab	8b 56 fc	 mov	 edx, DWORD PTR [esi-4]
  001ae	83 c1 23	 add	 ecx, 35			; 00000023H

; 206  : 
; 207  :     // If the following asserts, it likely means that we are performing
; 208  :     // an aligned delete on memory coming from an unaligned allocation.
; 209  :     _STL_ASSERT(_Ptr_user[-2] == _Big_allocation_sentinel, "invalid argument");
; 210  : 
; 211  :     // Extra paranoia on aligned allocation/deallocation; ensure _Ptr_container is
; 212  :     // in range [_Min_back_shift, _Non_user_size]
; 213  : #ifdef _DEBUG
; 214  :     constexpr uintptr_t _Min_back_shift = 2 * sizeof(void*);
; 215  : #else // ^^^ defined(_DEBUG) / !defined(_DEBUG) vvv
; 216  :     constexpr uintptr_t _Min_back_shift = sizeof(void*);
; 217  : #endif // ^^^ !defined(_DEBUG) ^^^
; 218  :     const uintptr_t _Back_shift = reinterpret_cast<uintptr_t>(_Ptr) - _Ptr_container;

  001b1	2b f2		 sub	 esi, edx

; 219  :     _STL_VERIFY(_Back_shift >= _Min_back_shift && _Back_shift <= _Non_user_size, "invalid argument");

  001b3	8d 46 fc	 lea	 eax, DWORD PTR [esi-4]
  001b6	83 f8 1f	 cmp	 eax, 31			; 0000001fH
  001b9	77 31		 ja	 SHORT $LN125@Emplace_re

; 220  :     _Ptr = reinterpret_cast<void*>(_Ptr_container);

  001bb	8b f2		 mov	 esi, edx
$LN126@Emplace_re:

; 289  :         ::operator delete(_Ptr, _Bytes);

  001bd	51		 push	 ecx
  001be	56		 push	 esi
  001bf	e8 00 00 00 00	 call	 ??3@YAXPAXI@Z		; operator delete
  001c4	83 c4 08	 add	 esp, 8
$LN121@Emplace_re:
; File C:\Program Files\Microsoft Visual Studio\2022\Professional\VC\Tools\MSVC\14.44.35207\include\vector

; 2076 :         _Mylast  = _Newvec + _Newsize;

  001c7	69 4d f8 48 05
	00 00		 imul	 ecx, DWORD PTR __Newsize$1$[ebp], 1352
  001ce	8b 45 08	 mov	 eax, DWORD PTR $T4[ebp]
  001d1	89 03		 mov	 DWORD PTR [ebx], eax

; 918  :     }

  001d3	5f		 pop	 edi
  001d4	5e		 pop	 esi

; 2076 :         _Mylast  = _Newvec + _Newsize;

  001d5	03 c8		 add	 ecx, eax
  001d7	89 4b 04	 mov	 DWORD PTR [ebx+4], ecx

; 2077 :         _Myend   = _Newvec + _Newcapacity;

  001da	8b 4d f4	 mov	 ecx, DWORD PTR tv826[ebp]
  001dd	03 c8		 add	 ecx, eax

; 910  :             _STD _Uninitialized_move(_Myfirst, _Whereptr, _Newvec, _Al);
; 911  :             _Constructed_first = _Newvec;
; 912  :             _STD _Uninitialized_move(_Whereptr, _Mylast, _Newvec + _Whereoff + 1, _Al);
; 913  :         }
; 914  : 
; 915  :         _Guard._New_begin = nullptr;
; 916  :         _Change_array(_Newvec, _Newsize, _Newcapacity);
; 917  :         return _Newvec + _Whereoff;

  001df	8b 45 f0	 mov	 eax, DWORD PTR tv825[ebp]

; 2077 :         _Myend   = _Newvec + _Newcapacity;

  001e2	89 4b 08	 mov	 DWORD PTR [ebx+8], ecx

; 918  :     }

  001e5	5b		 pop	 ebx
  001e6	8b e5		 mov	 esp, ebp
  001e8	5d		 pop	 ebp
  001e9	c2 08 00	 ret	 8
$LN125@Emplace_re:
; File C:\Program Files\Microsoft Visual Studio\2022\Professional\VC\Tools\MSVC\14.44.35207\include\xmemory

; 219  :     _STL_VERIFY(_Back_shift >= _Min_back_shift && _Back_shift <= _Non_user_size, "invalid argument");

  001ec	6a 00		 push	 0
  001ee	6a 00		 push	 0
  001f0	6a 00		 push	 0
  001f2	6a 00		 push	 0
  001f4	6a 00		 push	 0
  001f6	e8 00 00 00 00	 call	 __invoke_watson
$LN208@Emplace_re:
; File C:\Program Files\Microsoft Visual Studio\2022\Professional\VC\Tools\MSVC\14.44.35207\include\vector

; 888  :             _Xlength();

  001fb	e8 00 00 00 00	 call	 ?_Xlength@?$vector@VCRespawnInfo@@V?$allocator@VCRespawnInfo@@@std@@@std@@CAXXZ ; std::vector<CRespawnInfo,std::allocator<CRespawnInfo> >::_Xlength
$LN209@Emplace_re:
; File C:\Program Files\Microsoft Visual Studio\2022\Professional\VC\Tools\MSVC\14.44.35207\include\xmemory

; 118  :             _Throw_bad_array_new_length(); // multiply overflow

  00200	e8 00 00 00 00	 call	 ?_Throw_bad_array_new_length@std@@YAXXZ ; std::_Throw_bad_array_new_length
$LN204@Emplace_re:
  00205	cc		 int	 3
??$_Emplace_reallocate@ABVCRespawnInfo@@@?$vector@VCRespawnInfo@@V?$allocator@VCRespawnInfo@@@std@@@std@@AAEPAVCRespawnInfo@@QAV2@ABV2@@Z ENDP ; std::vector<CRespawnInfo,std::allocator<CRespawnInfo> >::_Emplace_reallocate<CRespawnInfo const &>
_TEXT	ENDS
; Function compile flags: /Ogtp
; File C:\Program Files\Microsoft Visual Studio\2022\Professional\VC\Tools\MSVC\14.44.35207\include\xmemory
;	COMDAT ??1?$_Alloc_construct_ptr@V?$allocator@U?$_Tree_node@U?$pair@$$CBHPAVCRespawner@@@std@@PAX@std@@@std@@@std@@QAE@XZ
_TEXT	SEGMENT
??1?$_Alloc_construct_ptr@V?$allocator@U?$_Tree_node@U?$pair@$$CBHPAVCRespawner@@@std@@PAX@std@@@std@@@std@@QAE@XZ PROC ; std::_Alloc_construct_ptr<std::allocator<std::_Tree_node<std::pair<int const ,CRespawner *>,void *> > >::~_Alloc_construct_ptr<std::allocator<std::_Tree_node<std::pair<int const ,CRespawner *>,void *> > >, COMDAT
; _this$ = ecx

; 1172 :         if (_Ptr) {

  00000	8b 41 04	 mov	 eax, DWORD PTR [ecx+4]
  00003	85 c0		 test	 eax, eax
  00005	74 0b		 je	 SHORT $LN10@Alloc_cons

; 289  :         ::operator delete(_Ptr, _Bytes);

  00007	6a 18		 push	 24			; 00000018H
  00009	50		 push	 eax
  0000a	e8 00 00 00 00	 call	 ??3@YAXPAXI@Z		; operator delete
  0000f	83 c4 08	 add	 esp, 8
$LN10@Alloc_cons:

; 1173 :             _Al.deallocate(_Ptr, 1);
; 1174 :         }
; 1175 :     }

  00012	c3		 ret	 0
??1?$_Alloc_construct_ptr@V?$allocator@U?$_Tree_node@U?$pair@$$CBHPAVCRespawner@@@std@@PAX@std@@@std@@@std@@QAE@XZ ENDP ; std::_Alloc_construct_ptr<std::allocator<std::_Tree_node<std::pair<int const ,CRespawner *>,void *> > >::~_Alloc_construct_ptr<std::allocator<std::_Tree_node<std::pair<int const ,CRespawner *>,void *> > >
_TEXT	ENDS
; Function compile flags: /Ogtp
; File C:\Program Files\Microsoft Visual Studio\2022\Professional\VC\Tools\MSVC\14.44.35207\include\xtree
; File C:\Program Files\Microsoft Visual Studio\2022\Professional\VC\Tools\MSVC\14.44.35207\include\type_traits
; File C:\Program Files\Microsoft Visual Studio\2022\Professional\VC\Tools\MSVC\14.44.35207\include\xtree
; File C:\Program Files\Microsoft Visual Studio\2022\Professional\VC\Tools\MSVC\14.44.35207\include\type_traits
; File C:\Program Files\Microsoft Visual Studio\2022\Professional\VC\Tools\MSVC\14.44.35207\include\xtree
;	COMDAT ??$_Find_lower_bound@H@?$_Tree@V?$_Tmap_traits@HPAVCRespawner@@U?$less@H@std@@V?$allocator@U?$pair@$$CBHPAVCRespawner@@@std@@@3@$0A@@std@@@std@@IBE?AU?$_Tree_find_result@PAU?$_Tree_node@U?$pair@$$CBHPAVCRespawner@@@std@@PAX@std@@@1@ABH@Z
_TEXT	SEGMENT
___$ReturnUdt$ = 8					; size = 4
__Keyval$ = 12						; size = 4
??$_Find_lower_bound@H@?$_Tree@V?$_Tmap_traits@HPAVCRespawner@@U?$less@H@std@@V?$allocator@U?$pair@$$CBHPAVCRespawner@@@std@@@3@$0A@@std@@@std@@IBE?AU?$_Tree_find_result@PAU?$_Tree_node@U?$pair@$$CBHPAVCRespawner@@@std@@PAX@std@@@1@ABH@Z PROC ; std::_Tree<std::_Tmap_traits<int,CRespawner *,std::less<int>,std::allocator<std::pair<int const ,CRespawner *> >,0> >::_Find_lower_bound<int>, COMDAT
; _this$ = ecx

; 1628 :     _Tree_find_result<_Nodeptr> _Find_lower_bound(const _Keyty& _Keyval) const {

  00000	55		 push	 ebp
  00001	8b ec		 mov	 ebp, esp

; 1629 :         const auto _Scary = _Get_scary();
; 1630 :         _Tree_find_result<_Nodeptr> _Result{{_Scary->_Myhead->_Parent, _Tree_child::_Right}, _Scary->_Myhead};

  00003	8b 09		 mov	 ecx, DWORD PTR [ecx]
  00005	8b 55 08	 mov	 edx, DWORD PTR ___$ReturnUdt$[ebp]
  00008	8b 41 04	 mov	 eax, DWORD PTR [ecx+4]
  0000b	89 02		 mov	 DWORD PTR [edx], eax
  0000d	c7 42 04 00 00
	00 00		 mov	 DWORD PTR [edx+4], 0
  00014	89 4a 08	 mov	 DWORD PTR [edx+8], ecx

; 1631 :         _Nodeptr _Trynode = _Result._Location._Parent;
; 1632 :         while (!_Trynode->_Isnil) {

  00017	80 78 0d 00	 cmp	 BYTE PTR [eax+13], 0
  0001b	75 28		 jne	 SHORT $LN13@Find_lower
; File C:\Program Files\Microsoft Visual Studio\2022\Professional\VC\Tools\MSVC\14.44.35207\include\type_traits

; 2380 :         return _Left < _Right;

  0001d	8b 4d 0c	 mov	 ecx, DWORD PTR __Keyval$[ebp]
  00020	56		 push	 esi
  00021	8b 31		 mov	 esi, DWORD PTR [ecx]
$LL2@Find_lower:
; File C:\Program Files\Microsoft Visual Studio\2022\Professional\VC\Tools\MSVC\14.44.35207\include\xtree

; 1633 :             _Result._Location._Parent = _Trynode;

  00023	89 02		 mov	 DWORD PTR [edx], eax
; File C:\Program Files\Microsoft Visual Studio\2022\Professional\VC\Tools\MSVC\14.44.35207\include\type_traits

; 2380 :         return _Left < _Right;

  00025	39 70 10	 cmp	 DWORD PTR [eax+16], esi
; File C:\Program Files\Microsoft Visual Studio\2022\Professional\VC\Tools\MSVC\14.44.35207\include\xtree

; 1634 :             if (_DEBUG_LT_PRED(_Getcomp(), _Traits::_Kfn(_Trynode->_Myval), _Keyval)) {

  00028	7d 07		 jge	 SHORT $LN4@Find_lower

; 1635 :                 _Result._Location._Child = _Tree_child::_Right;
; 1636 :                 _Trynode                 = _Trynode->_Right;

  0002a	8b 40 08	 mov	 eax, DWORD PTR [eax+8]
  0002d	33 c9		 xor	 ecx, ecx

; 1637 :             } else {

  0002f	eb 0a		 jmp	 SHORT $LN5@Find_lower
$LN4@Find_lower:

; 1638 :                 _Result._Location._Child = _Tree_child::_Left;
; 1639 :                 _Result._Bound           = _Trynode;

  00031	89 42 08	 mov	 DWORD PTR [edx+8], eax

; 1640 :                 _Trynode                 = _Trynode->_Left;

  00034	b9 01 00 00 00	 mov	 ecx, 1
  00039	8b 00		 mov	 eax, DWORD PTR [eax]
$LN5@Find_lower:

; 1631 :         _Nodeptr _Trynode = _Result._Location._Parent;
; 1632 :         while (!_Trynode->_Isnil) {

  0003b	89 4a 04	 mov	 DWORD PTR [edx+4], ecx
  0003e	80 78 0d 00	 cmp	 BYTE PTR [eax+13], 0
  00042	74 df		 je	 SHORT $LL2@Find_lower
  00044	5e		 pop	 esi
$LN13@Find_lower:

; 1641 :             }
; 1642 :         }
; 1643 : 
; 1644 :         return _Result;
; 1645 :     }

  00045	8b c2		 mov	 eax, edx
  00047	5d		 pop	 ebp
  00048	c2 08 00	 ret	 8
??$_Find_lower_bound@H@?$_Tree@V?$_Tmap_traits@HPAVCRespawner@@U?$less@H@std@@V?$allocator@U?$pair@$$CBHPAVCRespawner@@@std@@@3@$0A@@std@@@std@@IBE?AU?$_Tree_find_result@PAU?$_Tree_node@U?$pair@$$CBHPAVCRespawner@@@std@@PAX@std@@@1@ABH@Z ENDP ; std::_Tree<std::_Tmap_traits<int,CRespawner *,std::less<int>,std::allocator<std::pair<int const ,CRespawner *> >,0> >::_Find_lower_bound<int>
_TEXT	ENDS
; Function compile flags: /Ogtp
; File C:\Program Files\Microsoft Visual Studio\2022\Professional\VC\Tools\MSVC\14.44.35207\include\xtree
; File C:\Program Files\Microsoft Visual Studio\2022\Professional\VC\Tools\MSVC\14.44.35207\include\utility
; File C:\Program Files\Microsoft Visual Studio\2022\Professional\VC\Tools\MSVC\14.44.35207\include\xmemory
; File C:\Program Files\Microsoft Visual Studio\2022\Professional\VC\Tools\MSVC\14.44.35207\include\xtree
;	COMDAT ??$_Erase_tree@V?$allocator@U?$_Tree_node@U?$pair@$$CBHPAVCRespawner@@@std@@PAX@std@@@std@@@?$_Tree_val@U?$_Tree_simple_types@U?$pair@$$CBHPAVCRespawner@@@std@@@std@@@std@@QAEXAAV?$allocator@U?$_Tree_node@U?$pair@$$CBHPAVCRespawner@@@std@@PAX@std@@@1@PAU?$_Tree_node@U?$pair@$$CBHPAVCRespawner@@@std@@PAX@1@@Z
_TEXT	SEGMENT
__Al$ = 8						; size = 4
__Rootnode$ = 12					; size = 4
??$_Erase_tree@V?$allocator@U?$_Tree_node@U?$pair@$$CBHPAVCRespawner@@@std@@PAX@std@@@std@@@?$_Tree_val@U?$_Tree_simple_types@U?$pair@$$CBHPAVCRespawner@@@std@@@std@@@std@@QAEXAAV?$allocator@U?$_Tree_node@U?$pair@$$CBHPAVCRespawner@@@std@@PAX@std@@@1@PAU?$_Tree_node@U?$pair@$$CBHPAVCRespawner@@@std@@PAX@1@@Z PROC ; std::_Tree_val<std::_Tree_simple_types<std::pair<int const ,CRespawner *> > >::_Erase_tree<std::allocator<std::_Tree_node<std::pair<int const ,CRespawner *>,void *> > >, COMDAT
; _this$ = ecx

; 767  :     void _Erase_tree(_Alnode& _Al, _Nodeptr _Rootnode) noexcept {

  00000	55		 push	 ebp
  00001	8b ec		 mov	 ebp, esp
  00003	53		 push	 ebx
  00004	56		 push	 esi

; 768  :         while (!_Rootnode->_Isnil) { // free subtrees, then node

  00005	8b 75 0c	 mov	 esi, DWORD PTR __Rootnode$[ebp]
  00008	8b d9		 mov	 ebx, ecx
  0000a	80 7e 0d 00	 cmp	 BYTE PTR [esi+13], 0
  0000e	75 25		 jne	 SHORT $LN34@Erase_tree
  00010	57		 push	 edi
  00011	8b 7d 08	 mov	 edi, DWORD PTR __Al$[ebp]
$LL2@Erase_tree:

; 769  :             _Erase_tree(_Al, _Rootnode->_Right);

  00014	ff 76 08	 push	 DWORD PTR [esi+8]
  00017	8b cb		 mov	 ecx, ebx
  00019	57		 push	 edi
  0001a	e8 00 00 00 00	 call	 ??$_Erase_tree@V?$allocator@U?$_Tree_node@U?$pair@$$CBHPAVCRespawner@@@std@@PAX@std@@@std@@@?$_Tree_val@U?$_Tree_simple_types@U?$pair@$$CBHPAVCRespawner@@@std@@@std@@@std@@QAEXAAV?$allocator@U?$_Tree_node@U?$pair@$$CBHPAVCRespawner@@@std@@PAX@std@@@1@PAU?$_Tree_node@U?$pair@$$CBHPAVCRespawner@@@std@@PAX@1@@Z ; std::_Tree_val<std::_Tree_simple_types<std::pair<int const ,CRespawner *> > >::_Erase_tree<std::allocator<std::_Tree_node<std::pair<int const ,CRespawner *>,void *> > >
; File C:\Program Files\Microsoft Visual Studio\2022\Professional\VC\Tools\MSVC\14.44.35207\include\utility

; 773  :     _Ty _Old_val = static_cast<_Ty&&>(_Val);

  0001f	8b c6		 mov	 eax, esi

; 774  :     _Val         = static_cast<_Other&&>(_New_val);

  00021	8b 36		 mov	 esi, DWORD PTR [esi]
; File C:\Program Files\Microsoft Visual Studio\2022\Professional\VC\Tools\MSVC\14.44.35207\include\xmemory

; 289  :         ::operator delete(_Ptr, _Bytes);

  00023	6a 18		 push	 24			; 00000018H
  00025	50		 push	 eax
  00026	e8 00 00 00 00	 call	 ??3@YAXPAXI@Z		; operator delete
  0002b	83 c4 08	 add	 esp, 8
; File C:\Program Files\Microsoft Visual Studio\2022\Professional\VC\Tools\MSVC\14.44.35207\include\xtree

; 768  :         while (!_Rootnode->_Isnil) { // free subtrees, then node

  0002e	80 7e 0d 00	 cmp	 BYTE PTR [esi+13], 0
  00032	74 e0		 je	 SHORT $LL2@Erase_tree
  00034	5f		 pop	 edi
$LN34@Erase_tree:
  00035	5e		 pop	 esi

; 770  :             _Alnode::value_type::_Freenode(_Al, _STD exchange(_Rootnode, _Rootnode->_Left));
; 771  :         }
; 772  :     }

  00036	5b		 pop	 ebx
  00037	5d		 pop	 ebp
  00038	c2 08 00	 ret	 8
??$_Erase_tree@V?$allocator@U?$_Tree_node@U?$pair@$$CBHPAVCRespawner@@@std@@PAX@std@@@std@@@?$_Tree_val@U?$_Tree_simple_types@U?$pair@$$CBHPAVCRespawner@@@std@@@std@@@std@@QAEXAAV?$allocator@U?$_Tree_node@U?$pair@$$CBHPAVCRespawner@@@std@@PAX@std@@@1@PAU?$_Tree_node@U?$pair@$$CBHPAVCRespawner@@@std@@PAX@1@@Z ENDP ; std::_Tree_val<std::_Tree_simple_types<std::pair<int const ,CRespawner *> > >::_Erase_tree<std::allocator<std::_Tree_node<std::pair<int const ,CRespawner *>,void *> > >
_TEXT	ENDS
; Function compile flags: /Ogtp
; File C:\Program Files\Microsoft Visual Studio\2022\Professional\VC\Tools\MSVC\14.44.35207\include\vector
; File C:\Program Files\Microsoft Visual Studio\2022\Professional\VC\Tools\MSVC\14.44.35207\include\xmemory
; File C:\Program Files\Microsoft Visual Studio\2022\Professional\VC\Tools\MSVC\14.44.35207\include\vector
; File C:\Program Files\Microsoft Visual Studio\2022\Professional\VC\Tools\MSVC\14.44.35207\include\xmemory
; File C:\Program Files\Microsoft Visual Studio\2022\Professional\VC\Tools\MSVC\14.44.35207\include\vector
; File C:\Program Files\Microsoft Visual Studio\2022\Professional\VC\Tools\MSVC\14.44.35207\include\xmemory
; File C:\Program Files\Microsoft Visual Studio\2022\Professional\VC\Tools\MSVC\14.44.35207\include\vector
; File C:\Program Files\Microsoft Visual Studio\2022\Professional\VC\Tools\MSVC\14.44.35207\include\xmemory
; File C:\Program Files\Microsoft Visual Studio\2022\Professional\VC\Tools\MSVC\14.44.35207\include\vector
; File C:\Program Files\Microsoft Visual Studio\2022\Professional\VC\Tools\MSVC\14.44.35207\include\xmemory
; File C:\Program Files\Microsoft Visual Studio\2022\Professional\VC\Tools\MSVC\14.44.35207\include\vector
; File C:\Program Files\Microsoft Visual Studio\2022\Professional\VC\Tools\MSVC\14.44.35207\include\xutility
; File C:\Program Files\Microsoft Visual Studio\2022\Professional\VC\Tools\MSVC\14.44.35207\include\vector
; File C:\Program Files\Microsoft Visual Studio\2022\Professional\VC\Tools\MSVC\14.44.35207\include\xmemory
; File C:\Program Files\Microsoft Visual Studio\2022\Professional\VC\Tools\MSVC\14.44.35207\include\vector
; File C:\Program Files\Microsoft Visual Studio\2022\Professional\VC\Tools\MSVC\14.44.35207\include\xmemory
; File C:\Program Files\Microsoft Visual Studio\2022\Professional\VC\Tools\MSVC\14.44.35207\include\vector
;	COMDAT ??$_Assign_counted_range@PBVCRespawnInfo@@@?$vector@VCRespawnInfo@@V?$allocator@VCRespawnInfo@@@std@@@std@@AAEXPBVCRespawnInfo@@I@Z
_TEXT	SEGMENT
__Oldsize$1$ = -12					; size = 4
$T3 = -8						; size = 4
_this$1$ = -4						; size = 4
__First$ = 8						; size = 4
__First$1$ = 8						; size = 4
__Newsize$ = 12						; size = 4
__Newlast$1$ = 12					; size = 4
__Bytes$1$ = 12						; size = 4
??$_Assign_counted_range@PBVCRespawnInfo@@@?$vector@VCRespawnInfo@@V?$allocator@VCRespawnInfo@@@std@@@std@@AAEXPBVCRespawnInfo@@I@Z PROC ; std::vector<CRespawnInfo,std::allocator<CRespawnInfo> >::_Assign_counted_range<CRespawnInfo const *>, COMDAT
; _this$ = ecx

; 1420 :     _CONSTEXPR20 void _Assign_counted_range(_Iter _First, const size_type _Newsize) {

  00000	55		 push	 ebp
  00001	8b ec		 mov	 ebp, esp
  00003	83 ec 0c	 sub	 esp, 12			; 0000000cH
  00006	53		 push	 ebx
  00007	8b d9		 mov	 ebx, ecx

; 1421 :         // assign elements from counted range _First + [0, _Newsize)
; 1422 :         auto& _Al         = _Getal();
; 1423 :         auto& _My_data    = _Mypair._Myval2;
; 1424 :         pointer& _Myfirst = _My_data._Myfirst;
; 1425 :         pointer& _Mylast  = _My_data._Mylast;
; 1426 :         pointer& _Myend   = _My_data._Myend;
; 1427 : 
; 1428 :         constexpr bool _Nothrow_construct = conjunction_v<is_nothrow_constructible<_Ty, _Iter_ref_t<_Iter>>,
; 1429 :             _Uses_default_construct<_Alloc, _Ty*, _Iter_ref_t<_Iter>>>;
; 1430 : 
; 1431 :         _My_data._Orphan_all();
; 1432 :         const auto _Oldcapacity = static_cast<size_type>(_Myend - _Myfirst);

  00009	b8 eb 5d f2 60	 mov	 eax, 1626496491		; 60f25debH
  0000e	56		 push	 esi
  0000f	57		 push	 edi

; 1433 :         if (_Newsize > _Oldcapacity) {

  00010	8b 7d 0c	 mov	 edi, DWORD PTR __Newsize$[ebp]
  00013	8b 53 08	 mov	 edx, DWORD PTR [ebx+8]
  00016	8b 33		 mov	 esi, DWORD PTR [ebx]
  00018	2b d6		 sub	 edx, esi
  0001a	f7 ea		 imul	 edx
  0001c	89 5d fc	 mov	 DWORD PTR _this$1$[ebp], ebx
  0001f	c1 fa 09	 sar	 edx, 9
  00022	8b ca		 mov	 ecx, edx
  00024	c1 e9 1f	 shr	 ecx, 31			; 0000001fH
  00027	03 ca		 add	 ecx, edx
  00029	3b f9		 cmp	 edi, ecx
  0002b	0f 86 fa 00 00
	00		 jbe	 $LN5@Assign_cou

; 1703 :         if (_Newsize > max_size()) {

  00031	81 ff 2e 79 30
	00		 cmp	 edi, 3176750		; 0030792eH
  00037	0f 87 c4 01 00
	00		 ja	 $LN166@Assign_cou

; 2011 :         if (_Oldcapacity > _Max - _Oldcapacity / 2) {

  0003d	8b d1		 mov	 edx, ecx
  0003f	b8 2e 79 30 00	 mov	 eax, 3176750		; 0030792eH
  00044	d1 ea		 shr	 edx, 1
  00046	2b c2		 sub	 eax, edx
  00048	3b c8		 cmp	 ecx, eax
  0004a	76 09		 jbe	 SHORT $LN15@Assign_cou

; 2012 :             return _Max; // geometric growth would overflow

  0004c	c7 45 f8 2e 79
	30 00		 mov	 DWORD PTR $T3[ebp], 3176750 ; 0030792eH
  00053	eb 0b		 jmp	 SHORT $LN16@Assign_cou
$LN15@Assign_cou:

; 2013 :         }
; 2014 : 
; 2015 :         const size_type _Geometric = _Oldcapacity + _Oldcapacity / 2;

  00055	8d 04 0a	 lea	 eax, DWORD PTR [edx+ecx]

; 2016 : 
; 2017 :         if (_Geometric < _Newsize) {

  00058	3b c7		 cmp	 eax, edi
  0005a	0f 42 c7	 cmovb	 eax, edi
  0005d	89 45 f8	 mov	 DWORD PTR $T3[ebp], eax
$LN16@Assign_cou:

; 1709 :         if (_Myfirst) { // destroy and deallocate old array

  00060	85 f6		 test	 esi, esi
  00062	74 56		 je	 SHORT $LN12@Assign_cou

; 1710 :             _Destroy_range(_Myfirst, _Mylast, _Al);

  00064	8b 43 04	 mov	 eax, DWORD PTR [ebx+4]
; File C:\Program Files\Microsoft Visual Studio\2022\Professional\VC\Tools\MSVC\14.44.35207\include\xmemory

; 1102 :         for (; _First != _Last; ++_First) {

  00067	3b f0		 cmp	 esi, eax
  00069	74 1a		 je	 SHORT $LN23@Assign_cou
  0006b	8b f8		 mov	 edi, eax
  0006d	0f 1f 00	 npad	 3
$LL24@Assign_cou:

; 741  :         _Ptr->~_Uty();

  00070	8b 06		 mov	 eax, DWORD PTR [esi]
  00072	8b ce		 mov	 ecx, esi
  00074	6a 00		 push	 0
  00076	ff 10		 call	 DWORD PTR [eax]

; 1102 :         for (; _First != _Last; ++_First) {

  00078	81 c6 48 05 00
	00		 add	 esi, 1352		; 00000548H
  0007e	3b f7		 cmp	 esi, edi
  00080	75 ee		 jne	 SHORT $LL24@Assign_cou
  00082	8b 7d 0c	 mov	 edi, DWORD PTR __Newsize$[ebp]
$LN23@Assign_cou:
; File C:\Program Files\Microsoft Visual Studio\2022\Professional\VC\Tools\MSVC\14.44.35207\include\vector

; 1712 :             _Al.deallocate(_Myfirst, static_cast<size_type>(_Myend - _Myfirst));

  00085	8b 33		 mov	 esi, DWORD PTR [ebx]
  00087	b8 eb 5d f2 60	 mov	 eax, 1626496491		; 60f25debH
  0008c	8b 4b 08	 mov	 ecx, DWORD PTR [ebx+8]
  0008f	2b ce		 sub	 ecx, esi
  00091	f7 e9		 imul	 ecx
  00093	8b cb		 mov	 ecx, ebx
  00095	c1 fa 09	 sar	 edx, 9
  00098	8b c2		 mov	 eax, edx
  0009a	c1 e8 1f	 shr	 eax, 31			; 0000001fH
  0009d	03 c2		 add	 eax, edx
  0009f	50		 push	 eax
  000a0	56		 push	 esi
  000a1	e8 00 00 00 00	 call	 ?deallocate@?$allocator@VCRespawnInfo@@@std@@QAEXQAVCRespawnInfo@@I@Z ; std::allocator<CRespawnInfo>::deallocate

; 1713 : 
; 1714 :             _Myfirst = nullptr;

  000a6	c7 03 00 00 00
	00		 mov	 DWORD PTR [ebx], 0

; 1715 :             _Mylast  = nullptr;

  000ac	c7 43 04 00 00
	00 00		 mov	 DWORD PTR [ebx+4], 0

; 1716 :             _Myend   = nullptr;

  000b3	c7 43 08 00 00
	00 00		 mov	 DWORD PTR [ebx+8], 0
$LN12@Assign_cou:
; File C:\Program Files\Microsoft Visual Studio\2022\Professional\VC\Tools\MSVC\14.44.35207\include\xmemory

; 117  :         if (_Count > _Max_possible) {

  000ba	8b 45 f8	 mov	 eax, DWORD PTR $T3[ebp]
  000bd	3d 2e 79 30 00	 cmp	 eax, 3176750		; 0030792eH
  000c2	0f 87 3e 01 00
	00		 ja	 $LN167@Assign_cou

; 119  :         }
; 120  :     }
; 121  : 
; 122  :     return _Count * _Ty_size;

  000c8	69 f0 48 05 00
	00		 imul	 esi, eax, 1352
  000ce	89 75 0c	 mov	 DWORD PTR __Bytes$1$[ebp], esi

; 227  :     if (_Bytes == 0) {

  000d1	85 f6		 test	 esi, esi
  000d3	74 1a		 je	 SHORT $LN39@Assign_cou
$LN40@Assign_cou:

; 228  :         return nullptr;
; 229  :     }
; 230  : 
; 231  : #if _HAS_CXX20 // TRANSITION, GH-1532
; 232  :     if (_STD is_constant_evaluated()) {
; 233  :         return _Traits::_Allocate(_Bytes);
; 234  :     }
; 235  : #endif // _HAS_CXX20
; 236  : 
; 237  : #ifdef __cpp_aligned_new
; 238  :     if constexpr (_Align > __STDCPP_DEFAULT_NEW_ALIGNMENT__) {
; 239  :         size_t _Passed_align = _Align;
; 240  : #if defined(_M_IX86) || defined(_M_X64)
; 241  :         if (_Bytes >= _Big_allocation_threshold) {
; 242  :             // boost the alignment of big allocations to help autovectorization
; 243  :             _Passed_align = (_STD max)(_Align, _Big_allocation_alignment);
; 244  :         }
; 245  : #endif // defined(_M_IX86) || defined(_M_X64)
; 246  :         return _Traits::_Allocate_aligned(_Bytes, _Passed_align);
; 247  :     } else
; 248  : #endif // defined(__cpp_aligned_new)
; 249  :     {
; 250  : #if defined(_M_IX86) || defined(_M_X64)
; 251  :         if (_Bytes >= _Big_allocation_threshold) {

  000d5	56		 push	 esi
  000d6	81 fe 00 10 00
	00		 cmp	 esi, 4096		; 00001000H
  000dc	72 07		 jb	 SHORT $LN41@Assign_cou

; 252  :             // boost the alignment of big allocations to help autovectorization
; 253  :             return _Allocate_manually_vector_aligned<_Traits>(_Bytes);

  000de	e8 00 00 00 00	 call	 ??$_Allocate_manually_vector_aligned@U_Default_allocate_traits@std@@@std@@YAPAXI@Z ; std::_Allocate_manually_vector_aligned<std::_Default_allocate_traits>
  000e3	eb 05		 jmp	 SHORT $LN164@Assign_cou
$LN41@Assign_cou:

; 136  :         return ::operator new(_Bytes);

  000e5	e8 00 00 00 00	 call	 ??2@YAPAXI@Z		; operator new
$LN164@Assign_cou:
; File C:\Program Files\Microsoft Visual Studio\2022\Professional\VC\Tools\MSVC\14.44.35207\include\vector

; 2035 :         _Myfirst              = _Newvec;

  000ea	8b f0		 mov	 esi, eax
  000ec	83 c4 04	 add	 esp, 4
$LN39@Assign_cou:

; 2036 :         _Mylast               = _Newvec;
; 2037 :         _Myend                = _Newvec + _Newcapacity;

  000ef	8b 45 0c	 mov	 eax, DWORD PTR __Bytes$1$[ebp]
  000f2	89 33		 mov	 DWORD PTR [ebx], esi
  000f4	03 c6		 add	 eax, esi
  000f6	89 73 04	 mov	 DWORD PTR [ebx+4], esi
  000f9	89 43 08	 mov	 DWORD PTR [ebx+8], eax
; File C:\Program Files\Microsoft Visual Studio\2022\Professional\VC\Tools\MSVC\14.44.35207\include\xmemory

; 1918 :     auto _UFirst = _STD _Get_unwrapped(_STD move(_First));

  000fc	8b 5d 08	 mov	 ebx, DWORD PTR __First$[ebp]

; 1937 :     for (; _Count != 0; ++_UFirst, (void) --_Count) {

  000ff	85 ff		 test	 edi, edi
  00101	74 19		 je	 SHORT $LN51@Assign_cou
$LL52@Assign_cou:

; 732  :         ::new (const_cast<void*>(static_cast<const volatile void*>(_Ptr))) _Objty(_STD forward<_Types>(_Args)...);

  00103	53		 push	 ebx
  00104	8b ce		 mov	 ecx, esi
  00106	e8 00 00 00 00	 call	 ??0CRespawnInfo@@QAE@ABV0@@Z ; CRespawnInfo::CRespawnInfo

; 1845 :         ++_Last;

  0010b	81 c6 48 05 00
	00		 add	 esi, 1352		; 00000548H

; 1937 :     for (; _Count != 0; ++_UFirst, (void) --_Count) {

  00111	81 c3 48 05 00
	00		 add	 ebx, 1352		; 00000548H
  00117	83 ef 01	 sub	 edi, 1
  0011a	75 e7		 jne	 SHORT $LL52@Assign_cou
$LN51@Assign_cou:
; File C:\Program Files\Microsoft Visual Studio\2022\Professional\VC\Tools\MSVC\14.44.35207\include\vector

; 1440 :                 _Mylast = _STD _Uninitialized_copy_n(_STD move(_First), _Newsize, _Myfirst, _Al);

  0011c	8b 45 fc	 mov	 eax, DWORD PTR _this$1$[ebp]
  0011f	5f		 pop	 edi
  00120	89 70 04	 mov	 DWORD PTR [eax+4], esi

; 1480 :     }

  00123	5e		 pop	 esi
  00124	5b		 pop	 ebx
  00125	8b e5		 mov	 esp, ebp
  00127	5d		 pop	 ebp
  00128	c2 08 00	 ret	 8
$LN5@Assign_cou:

; 1441 :             }
; 1442 :             return;
; 1443 :         }
; 1444 : 
; 1445 :         const auto _Oldsize = static_cast<size_type>(_Mylast - _Myfirst);

  0012b	8b 5b 04	 mov	 ebx, DWORD PTR [ebx+4]
  0012e	b8 eb 5d f2 60	 mov	 eax, 1626496491		; 60f25debH
  00133	8b cb		 mov	 ecx, ebx
  00135	2b ce		 sub	 ecx, esi
  00137	f7 e9		 imul	 ecx
  00139	c1 fa 09	 sar	 edx, 9
  0013c	8b c2		 mov	 eax, edx
  0013e	c1 e8 1f	 shr	 eax, 31			; 0000001fH
  00141	03 c2		 add	 eax, edx
  00143	89 45 f4	 mov	 DWORD PTR __Oldsize$1$[ebp], eax

; 1446 :         if (_Newsize > _Oldsize) {

  00146	3b f8		 cmp	 edi, eax
  00148	76 5c		 jbe	 SHORT $LN6@Assign_cou

; 1447 :             bool _Copied = false;
; 1448 :             if constexpr (_Iter_copy_cat<_Iter, pointer>::_Bitcopy_assignable) {
; 1449 : #if _HAS_CXX20
; 1450 :                 if (!_STD is_constant_evaluated())
; 1451 : #endif // _HAS_CXX20
; 1452 :                 {
; 1453 :                     _Copy_memmove_n(_First, static_cast<size_t>(_Oldsize), _Myfirst);
; 1454 :                     _First += _Oldsize;
; 1455 :                     _Copied = true;
; 1456 :                 }
; 1457 :             }
; 1458 : 
; 1459 :             if (!_Copied) {
; 1460 :                 for (auto _Mid = _Myfirst; _Mid != _Mylast; ++_Mid, (void) ++_First) {

  0014a	3b f3		 cmp	 esi, ebx
  0014c	74 2a		 je	 SHORT $LN142@Assign_cou
  0014e	8b 7d 08	 mov	 edi, DWORD PTR __First$[ebp]
$LL4@Assign_cou:

; 1461 :                     *_Mid = *_First;

  00151	57		 push	 edi
  00152	8b ce		 mov	 ecx, esi
  00154	e8 00 00 00 00	 call	 ??4CRespawnInfo@@QAEAAV0@ABV0@@Z ; CRespawnInfo::operator=
  00159	8b 45 fc	 mov	 eax, DWORD PTR _this$1$[ebp]
  0015c	81 c6 48 05 00
	00		 add	 esi, 1352		; 00000548H
  00162	81 c7 48 05 00
	00		 add	 edi, 1352		; 00000548H
  00168	8b 58 04	 mov	 ebx, DWORD PTR [eax+4]
  0016b	3b f3		 cmp	 esi, ebx
  0016d	75 e2		 jne	 SHORT $LL4@Assign_cou

; 1447 :             bool _Copied = false;
; 1448 :             if constexpr (_Iter_copy_cat<_Iter, pointer>::_Bitcopy_assignable) {
; 1449 : #if _HAS_CXX20
; 1450 :                 if (!_STD is_constant_evaluated())
; 1451 : #endif // _HAS_CXX20
; 1452 :                 {
; 1453 :                     _Copy_memmove_n(_First, static_cast<size_t>(_Oldsize), _Myfirst);
; 1454 :                     _First += _Oldsize;
; 1455 :                     _Copied = true;
; 1456 :                 }
; 1457 :             }
; 1458 : 
; 1459 :             if (!_Copied) {
; 1460 :                 for (auto _Mid = _Myfirst; _Mid != _Mylast; ++_Mid, (void) ++_First) {

  0016f	8b 45 f4	 mov	 eax, DWORD PTR __Oldsize$1$[ebp]
  00172	89 7d 08	 mov	 DWORD PTR __First$1$[ebp], edi
  00175	8b 7d 0c	 mov	 edi, DWORD PTR __Newsize$[ebp]
$LN142@Assign_cou:

; 1470 :                 _Mylast = _STD _Uninitialized_copy_n(_STD move(_First), _Newsize - _Oldsize, _Mylast, _Al);

  00178	8b 75 08	 mov	 esi, DWORD PTR __First$[ebp]
  0017b	2b f8		 sub	 edi, eax
; File C:\Program Files\Microsoft Visual Studio\2022\Professional\VC\Tools\MSVC\14.44.35207\include\xmemory

; 1937 :     for (; _Count != 0; ++_UFirst, (void) --_Count) {

  0017d	74 18		 je	 SHORT $LN75@Assign_cou
; File C:\Program Files\Microsoft Visual Studio\2022\Professional\VC\Tools\MSVC\14.44.35207\include\vector

; 1470 :                 _Mylast = _STD _Uninitialized_copy_n(_STD move(_First), _Newsize - _Oldsize, _Mylast, _Al);

  0017f	2b f3		 sub	 esi, ebx
$LL76@Assign_cou:
; File C:\Program Files\Microsoft Visual Studio\2022\Professional\VC\Tools\MSVC\14.44.35207\include\xmemory

; 732  :         ::new (const_cast<void*>(static_cast<const volatile void*>(_Ptr))) _Objty(_STD forward<_Types>(_Args)...);

  00181	8d 04 1e	 lea	 eax, DWORD PTR [esi+ebx]
  00184	8b cb		 mov	 ecx, ebx
  00186	50		 push	 eax
  00187	e8 00 00 00 00	 call	 ??0CRespawnInfo@@QAE@ABV0@@Z ; CRespawnInfo::CRespawnInfo

; 1845 :         ++_Last;

  0018c	81 c3 48 05 00
	00		 add	 ebx, 1352		; 00000548H

; 1937 :     for (; _Count != 0; ++_UFirst, (void) --_Count) {

  00192	83 ef 01	 sub	 edi, 1
  00195	75 ea		 jne	 SHORT $LL76@Assign_cou
$LN75@Assign_cou:
; File C:\Program Files\Microsoft Visual Studio\2022\Professional\VC\Tools\MSVC\14.44.35207\include\vector

; 1470 :                 _Mylast = _STD _Uninitialized_copy_n(_STD move(_First), _Newsize - _Oldsize, _Mylast, _Al);

  00197	8b 45 fc	 mov	 eax, DWORD PTR _this$1$[ebp]
  0019a	5f		 pop	 edi

; 1480 :     }

  0019b	5e		 pop	 esi
  0019c	89 58 04	 mov	 DWORD PTR [eax+4], ebx
  0019f	5b		 pop	 ebx
  001a0	8b e5		 mov	 esp, ebp
  001a2	5d		 pop	 ebp
  001a3	c2 08 00	 ret	 8
$LN6@Assign_cou:

; 1471 :                 _ASAN_VECTOR_RELEASE_GUARD;
; 1472 :             }
; 1473 :         } else {
; 1474 :             const pointer _Newlast = _Myfirst + _Newsize;
; 1475 :             _STD _Copy_n_unchecked4(_STD move(_First), _Newsize, _Myfirst);

  001a6	8b 5d 08	 mov	 ebx, DWORD PTR __First$[ebp]
  001a9	69 c7 48 05 00
	00		 imul	 eax, edi, 1352
  001af	03 c6		 add	 eax, esi
  001b1	89 45 0c	 mov	 DWORD PTR __Newlast$1$[ebp], eax
; File C:\Program Files\Microsoft Visual Studio\2022\Professional\VC\Tools\MSVC\14.44.35207\include\xutility

; 4812 :     for (; _Count != 0; ++_Dest, (void) ++_First, --_Count) {

  001b4	85 ff		 test	 edi, edi
  001b6	74 1c		 je	 SHORT $LN99@Assign_cou
$LL100@Assign_cou:

; 4813 :         *_Dest = *_First;

  001b8	53		 push	 ebx
  001b9	8b ce		 mov	 ecx, esi
  001bb	e8 00 00 00 00	 call	 ??4CRespawnInfo@@QAEAAV0@ABV0@@Z ; CRespawnInfo::operator=
  001c0	81 c6 48 05 00
	00		 add	 esi, 1352		; 00000548H
  001c6	81 c3 48 05 00
	00		 add	 ebx, 1352		; 00000548H
  001cc	83 ef 01	 sub	 edi, 1
  001cf	75 e7		 jne	 SHORT $LL100@Assign_cou
  001d1	8b 45 0c	 mov	 eax, DWORD PTR __Newlast$1$[ebp]
$LN99@Assign_cou:
; File C:\Program Files\Microsoft Visual Studio\2022\Professional\VC\Tools\MSVC\14.44.35207\include\vector

; 1476 :             _STD _Destroy_range(_Newlast, _Mylast, _Al);

  001d4	8b 5d fc	 mov	 ebx, DWORD PTR _this$1$[ebp]
  001d7	8b f0		 mov	 esi, eax
  001d9	8b 7b 04	 mov	 edi, DWORD PTR [ebx+4]
; File C:\Program Files\Microsoft Visual Studio\2022\Professional\VC\Tools\MSVC\14.44.35207\include\xmemory

; 1102 :         for (; _First != _Last; ++_First) {

  001dc	3b c7		 cmp	 eax, edi
  001de	74 15		 je	 SHORT $LN104@Assign_cou
$LL105@Assign_cou:

; 741  :         _Ptr->~_Uty();

  001e0	8b 06		 mov	 eax, DWORD PTR [esi]
  001e2	8b ce		 mov	 ecx, esi
  001e4	6a 00		 push	 0
  001e6	ff 10		 call	 DWORD PTR [eax]

; 1102 :         for (; _First != _Last; ++_First) {

  001e8	81 c6 48 05 00
	00		 add	 esi, 1352		; 00000548H
  001ee	3b f7		 cmp	 esi, edi
  001f0	75 ee		 jne	 SHORT $LL105@Assign_cou
  001f2	8b 45 0c	 mov	 eax, DWORD PTR __Newlast$1$[ebp]
$LN104@Assign_cou:
  001f5	5f		 pop	 edi
; File C:\Program Files\Microsoft Visual Studio\2022\Professional\VC\Tools\MSVC\14.44.35207\include\vector

; 1480 :     }

  001f6	5e		 pop	 esi
  001f7	89 43 04	 mov	 DWORD PTR [ebx+4], eax
  001fa	5b		 pop	 ebx
  001fb	8b e5		 mov	 esp, ebp
  001fd	5d		 pop	 ebp
  001fe	c2 08 00	 ret	 8
$LN166@Assign_cou:

; 1704 :             _Xlength();

  00201	e8 00 00 00 00	 call	 ?_Xlength@?$vector@VCRespawnInfo@@V?$allocator@VCRespawnInfo@@@std@@@std@@CAXXZ ; std::vector<CRespawnInfo,std::allocator<CRespawnInfo> >::_Xlength
$LN167@Assign_cou:
; File C:\Program Files\Microsoft Visual Studio\2022\Professional\VC\Tools\MSVC\14.44.35207\include\xmemory

; 118  :             _Throw_bad_array_new_length(); // multiply overflow

  00206	e8 00 00 00 00	 call	 ?_Throw_bad_array_new_length@std@@YAXXZ ; std::_Throw_bad_array_new_length
$LN163@Assign_cou:
  0020b	cc		 int	 3
??$_Assign_counted_range@PBVCRespawnInfo@@@?$vector@VCRespawnInfo@@V?$allocator@VCRespawnInfo@@@std@@@std@@AAEXPBVCRespawnInfo@@I@Z ENDP ; std::vector<CRespawnInfo,std::allocator<CRespawnInfo> >::_Assign_counted_range<CRespawnInfo const *>
_TEXT	ENDS
; Function compile flags: /Ogtp
; File C:\Program Files\Microsoft Visual Studio\2022\Professional\VC\Tools\MSVC\14.44.35207\include\xtree
;	COMDAT ??E?$_Tree_unchecked_const_iterator@V?$_Tree_val@U?$_Tree_simple_types@U?$pair@$$CBHPAVCRespawner@@@std@@@std@@@std@@U_Iterator_base0@2@@std@@QAEAAV01@XZ
_TEXT	SEGMENT
??E?$_Tree_unchecked_const_iterator@V?$_Tree_val@U?$_Tree_simple_types@U?$pair@$$CBHPAVCRespawner@@@std@@@std@@@std@@U_Iterator_base0@2@@std@@QAEAAV01@XZ PROC ; std::_Tree_unchecked_const_iterator<std::_Tree_val<std::_Tree_simple_types<std::pair<int const ,CRespawner *> > >,std::_Iterator_base0>::operator++, COMDAT
; _this$ = ecx

; 49   :     _Tree_unchecked_const_iterator& operator++() noexcept {

  00000	56		 push	 esi
  00001	8b f1		 mov	 esi, ecx
  00003	57		 push	 edi

; 50   :         if (_Ptr->_Right->_Isnil) { // climb looking for right subtree

  00004	8b 16		 mov	 edx, DWORD PTR [esi]
  00006	8b 7a 08	 mov	 edi, DWORD PTR [edx+8]
  00009	80 7f 0d 00	 cmp	 BYTE PTR [edi+13], 0
  0000d	74 22		 je	 SHORT $LN4@operator

; 51   :             _Nodeptr _Pnode;
; 52   :             while (!(_Pnode = _Ptr->_Parent)->_Isnil && _Ptr == _Pnode->_Right) {

  0000f	8b 42 04	 mov	 eax, DWORD PTR [edx+4]
  00012	80 78 0d 00	 cmp	 BYTE PTR [eax+13], 0
  00016	75 12		 jne	 SHORT $LN21@operator
$LL2@operator:
  00018	3b 50 08	 cmp	 edx, DWORD PTR [eax+8]
  0001b	75 0d		 jne	 SHORT $LN21@operator

; 53   :                 _Ptr = _Pnode; // ==> parent while right subtree

  0001d	89 06		 mov	 DWORD PTR [esi], eax
  0001f	8b d0		 mov	 edx, eax
  00021	8b 40 04	 mov	 eax, DWORD PTR [eax+4]
  00024	80 78 0d 00	 cmp	 BYTE PTR [eax+13], 0
  00028	74 ee		 je	 SHORT $LL2@operator
$LN21@operator:

; 54   :             }
; 55   : 
; 56   :             _Ptr = _Pnode; // ==> parent (head if end())
; 57   :         } else {
; 58   :             _Ptr = _Mytree::_Min(_Ptr->_Right); // ==> smallest of right subtree
; 59   :         }
; 60   : 
; 61   :         return *this;

  0002a	89 06		 mov	 DWORD PTR [esi], eax

; 62   :     }

  0002c	8b c6		 mov	 eax, esi
  0002e	5f		 pop	 edi
  0002f	5e		 pop	 esi
  00030	c3		 ret	 0
$LN4@operator:

; 476  :         while (!_Pnode->_Left->_Isnil) {

  00031	8b 0f		 mov	 ecx, DWORD PTR [edi]
  00033	80 79 0d 00	 cmp	 BYTE PTR [ecx+13], 0
  00037	75 13		 jne	 SHORT $LN10@operator
  00039	0f 1f 80 00 00
	00 00		 npad	 7
$LL9@operator:
  00040	8b 01		 mov	 eax, DWORD PTR [ecx]

; 477  :             _Pnode = _Pnode->_Left;

  00042	8b f9		 mov	 edi, ecx
  00044	8b c8		 mov	 ecx, eax
  00046	80 78 0d 00	 cmp	 BYTE PTR [eax+13], 0
  0004a	74 f4		 je	 SHORT $LL9@operator
$LN10@operator:

; 54   :             }
; 55   : 
; 56   :             _Ptr = _Pnode; // ==> parent (head if end())
; 57   :         } else {
; 58   :             _Ptr = _Mytree::_Min(_Ptr->_Right); // ==> smallest of right subtree
; 59   :         }
; 60   : 
; 61   :         return *this;

  0004c	89 3e		 mov	 DWORD PTR [esi], edi

; 62   :     }

  0004e	8b c6		 mov	 eax, esi
  00050	5f		 pop	 edi
  00051	5e		 pop	 esi
  00052	c3		 ret	 0
??E?$_Tree_unchecked_const_iterator@V?$_Tree_val@U?$_Tree_simple_types@U?$pair@$$CBHPAVCRespawner@@@std@@@std@@@std@@U_Iterator_base0@2@@std@@QAEAAV01@XZ ENDP ; std::_Tree_unchecked_const_iterator<std::_Tree_val<std::_Tree_simple_types<std::pair<int const ,CRespawner *> > >,std::_Iterator_base0>::operator++
_TEXT	ENDS
; Function compile flags: /Ogtp
; File C:\Program Files\Microsoft Visual Studio\2022\Professional\VC\Tools\MSVC\14.44.35207\include\xmemory
;	COMDAT ??$_Allocate_manually_vector_aligned@U_Default_allocate_traits@std@@@std@@YAPAXI@Z
_TEXT	SEGMENT
__Bytes$ = 8						; size = 4
??$_Allocate_manually_vector_aligned@U_Default_allocate_traits@std@@@std@@YAPAXI@Z PROC ; std::_Allocate_manually_vector_aligned<std::_Default_allocate_traits>, COMDAT

; 182  : __declspec(allocator) void* _Allocate_manually_vector_aligned(const size_t _Bytes) {

  00000	55		 push	 ebp
  00001	8b ec		 mov	 ebp, esp

; 183  :     // allocate _Bytes manually aligned to at least _Big_allocation_alignment
; 184  :     const size_t _Block_size = _Non_user_size + _Bytes;

  00003	8b 45 08	 mov	 eax, DWORD PTR __Bytes$[ebp]
  00006	8d 48 23	 lea	 ecx, DWORD PTR [eax+35]

; 185  :     if (_Block_size <= _Bytes) {

  00009	3b c8		 cmp	 ecx, eax
  0000b	0f 86 00 00 00
	00		 jbe	 ?_Throw_bad_array_new_length@std@@YAXXZ ; std::_Throw_bad_array_new_length

; 136  :         return ::operator new(_Bytes);

  00011	51		 push	 ecx
  00012	e8 00 00 00 00	 call	 ??2@YAPAXI@Z		; operator new

; 186  :         _Throw_bad_array_new_length(); // add overflow
; 187  :     }
; 188  : 
; 189  :     const uintptr_t _Ptr_container = reinterpret_cast<uintptr_t>(_Traits::_Allocate(_Block_size));

  00017	8b c8		 mov	 ecx, eax

; 136  :         return ::operator new(_Bytes);

  00019	83 c4 04	 add	 esp, 4

; 190  :     _STL_VERIFY(_Ptr_container != 0, "invalid argument"); // validate even in release since we're doing p[-1]

  0001c	85 c9		 test	 ecx, ecx
  0001e	74 0b		 je	 SHORT $LN9@Allocate_m

; 191  :     void* const _Ptr = reinterpret_cast<void*>((_Ptr_container + _Non_user_size) & ~(_Big_allocation_alignment - 1));

  00020	8d 41 23	 lea	 eax, DWORD PTR [ecx+35]
  00023	83 e0 e0	 and	 eax, -32		; ffffffe0H

; 192  :     static_cast<uintptr_t*>(_Ptr)[-1] = _Ptr_container;

  00026	89 48 fc	 mov	 DWORD PTR [eax-4], ecx

; 193  : 
; 194  : #ifdef _DEBUG
; 195  :     static_cast<uintptr_t*>(_Ptr)[-2] = _Big_allocation_sentinel;
; 196  : #endif // defined(_DEBUG)
; 197  :     return _Ptr;
; 198  : }

  00029	5d		 pop	 ebp
  0002a	c3		 ret	 0
$LN9@Allocate_m:

; 190  :     _STL_VERIFY(_Ptr_container != 0, "invalid argument"); // validate even in release since we're doing p[-1]

  0002b	6a 00		 push	 0
  0002d	6a 00		 push	 0
  0002f	6a 00		 push	 0
  00031	6a 00		 push	 0
  00033	6a 00		 push	 0
  00035	e8 00 00 00 00	 call	 __invoke_watson
$LN7@Allocate_m:
  0003a	cc		 int	 3
??$_Allocate_manually_vector_aligned@U_Default_allocate_traits@std@@@std@@YAPAXI@Z ENDP ; std::_Allocate_manually_vector_aligned<std::_Default_allocate_traits>
_TEXT	ENDS
; Function compile flags: /Ogtp
;	COMDAT ??_GCLayerdRespawner@@UAEPAXI@Z
_TEXT	SEGMENT
___flags$ = 8						; size = 4
??_GCLayerdRespawner@@UAEPAXI@Z PROC			; CLayerdRespawner::`scalar deleting destructor', COMDAT
; _this$ = ecx
  00000	55		 push	 ebp
  00001	8b ec		 mov	 ebp, esp
  00003	56		 push	 esi
  00004	8b f1		 mov	 esi, ecx
  00006	e8 00 00 00 00	 call	 ??1CLayerdRespawner@@UAE@XZ ; CLayerdRespawner::~CLayerdRespawner
  0000b	f6 45 08 01	 test	 BYTE PTR ___flags$[ebp], 1
  0000f	74 0b		 je	 SHORT $LN5@scalar
  00011	6a 34		 push	 52			; 00000034H
  00013	56		 push	 esi
  00014	e8 00 00 00 00	 call	 ??3@YAXPAXI@Z		; operator delete
  00019	83 c4 08	 add	 esp, 8
$LN5@scalar:
  0001c	8b c6		 mov	 eax, esi
  0001e	5e		 pop	 esi
  0001f	5d		 pop	 ebp
  00020	c2 04 00	 ret	 4
??_GCLayerdRespawner@@UAEPAXI@Z ENDP			; CLayerdRespawner::`scalar deleting destructor'
_TEXT	ENDS
; Function compile flags: /Ogtp
; File C:\Program Files\Microsoft Visual Studio\2022\Professional\VC\Tools\MSVC\14.44.35207\include\xtree
;	COMDAT ?_Insert_node@?$_Tree_val@U?$_Tree_simple_types@U?$pair@$$CBHPAVCRespawner@@@std@@@std@@@std@@QAEPAU?$_Tree_node@U?$pair@$$CBHPAVCRespawner@@@std@@PAX@2@U?$_Tree_id@PAU?$_Tree_node@U?$pair@$$CBHPAVCRespawner@@@std@@PAX@std@@@2@QAU32@@Z
_TEXT	SEGMENT
__Head$1$ = -4						; size = 4
__Loc$ = 8						; size = 8
__Newnode$ = 16						; size = 4
?_Insert_node@?$_Tree_val@U?$_Tree_simple_types@U?$pair@$$CBHPAVCRespawner@@@std@@@std@@@std@@QAEPAU?$_Tree_node@U?$pair@$$CBHPAVCRespawner@@@std@@PAX@2@U?$_Tree_id@PAU?$_Tree_node@U?$pair@$$CBHPAVCRespawner@@@std@@PAX@std@@@2@QAU32@@Z PROC ; std::_Tree_val<std::_Tree_simple_types<std::pair<int const ,CRespawner *> > >::_Insert_node, COMDAT
; _this$ = ecx

; 669  :     _Nodeptr _Insert_node(const _Tree_id<_Nodeptr> _Loc, const _Nodeptr _Newnode) noexcept {

  00000	55		 push	 ebp
  00001	8b ec		 mov	 ebp, esp
  00003	51		 push	 ecx

; 670  :         ++_Mysize;
; 671  :         const auto _Head  = _Myhead;
; 672  :         _Newnode->_Parent = _Loc._Parent;

  00004	8b 55 08	 mov	 edx, DWORD PTR __Loc$[ebp]
  00007	53		 push	 ebx
  00008	8b d9		 mov	 ebx, ecx
  0000a	57		 push	 edi
  0000b	8b 7d 10	 mov	 edi, DWORD PTR __Newnode$[ebp]
  0000e	8b 03		 mov	 eax, DWORD PTR [ebx]
  00010	ff 43 04	 inc	 DWORD PTR [ebx+4]
  00013	89 45 fc	 mov	 DWORD PTR __Head$1$[ebp], eax
  00016	89 57 04	 mov	 DWORD PTR [edi+4], edx

; 673  :         if (_Loc._Parent == _Head) { // first node in tree, just set head values

  00019	3b d0		 cmp	 edx, eax
  0001b	75 16		 jne	 SHORT $LN5@Insert_nod

; 674  :             _Head->_Left     = _Newnode;

  0001d	89 38		 mov	 DWORD PTR [eax], edi

; 675  :             _Head->_Parent   = _Newnode;

  0001f	89 78 04	 mov	 DWORD PTR [eax+4], edi

; 676  :             _Head->_Right    = _Newnode;

  00022	89 78 08	 mov	 DWORD PTR [eax+8], edi

; 735  :         return _Newnode;
; 736  :     }

  00025	8b c7		 mov	 eax, edi
  00027	c6 47 0c 01	 mov	 BYTE PTR [edi+12], 1
  0002b	5f		 pop	 edi
  0002c	5b		 pop	 ebx
  0002d	8b e5		 mov	 esp, ebp
  0002f	5d		 pop	 ebp
  00030	c2 0c 00	 ret	 12			; 0000000cH
$LN5@Insert_nod:

; 677  :             _Newnode->_Color = _Black; // the root is black
; 678  :             return _Newnode;
; 679  :         }
; 680  : 
; 681  :         _STL_INTERNAL_CHECK(_Loc._Child != _Tree_child::_Unused);
; 682  :         if (_Loc._Child == _Tree_child::_Right) { // add to right of _Loc._Parent

  00033	83 7d 0c 00	 cmp	 DWORD PTR __Loc$[ebp+4], 0
  00037	75 0d		 jne	 SHORT $LN6@Insert_nod

; 683  :             _STL_INTERNAL_CHECK(_Loc._Parent->_Right->_Isnil);
; 684  :             _Loc._Parent->_Right = _Newnode;

  00039	89 7a 08	 mov	 DWORD PTR [edx+8], edi

; 685  :             if (_Loc._Parent == _Head->_Right) { // remember rightmost node

  0003c	3b 50 08	 cmp	 edx, DWORD PTR [eax+8]
  0003f	75 0d		 jne	 SHORT $LN9@Insert_nod

; 686  :                 _Head->_Right = _Newnode;

  00041	89 78 08	 mov	 DWORD PTR [eax+8], edi

; 687  :             }
; 688  :         } else { // add to left of _Loc._Parent

  00044	eb 08		 jmp	 SHORT $LN9@Insert_nod
$LN6@Insert_nod:

; 689  :             _STL_INTERNAL_CHECK(_Loc._Parent->_Left->_Isnil);
; 690  :             _Loc._Parent->_Left = _Newnode;

  00046	89 3a		 mov	 DWORD PTR [edx], edi

; 691  :             if (_Loc._Parent == _Head->_Left) { // remember leftmost node

  00048	3b 10		 cmp	 edx, DWORD PTR [eax]
  0004a	75 02		 jne	 SHORT $LN9@Insert_nod

; 692  :                 _Head->_Left = _Newnode;

  0004c	89 38		 mov	 DWORD PTR [eax], edi
$LN9@Insert_nod:

; 693  :             }
; 694  :         }
; 695  : 
; 696  :         for (_Nodeptr _Pnode = _Newnode; _Pnode->_Parent->_Color == _Red;) {

  0004e	8b 4f 04	 mov	 ecx, DWORD PTR [edi+4]
  00051	8b c7		 mov	 eax, edi
  00053	80 79 0c 00	 cmp	 BYTE PTR [ecx+12], 0
  00057	0f 85 7d 01 00
	00		 jne	 $LN3@Insert_nod
  0005d	56		 push	 esi
  0005e	66 90		 npad	 2
$LL4@Insert_nod:

; 697  :             if (_Pnode->_Parent == _Pnode->_Parent->_Parent->_Left) { // fixup red-red in left subtree

  00060	8b 50 04	 mov	 edx, DWORD PTR [eax+4]
  00063	8b 72 04	 mov	 esi, DWORD PTR [edx+4]
  00066	8b 0e		 mov	 ecx, DWORD PTR [esi]
  00068	3b d1		 cmp	 edx, ecx
  0006a	0f 85 aa 00 00
	00		 jne	 $LN10@Insert_nod

; 698  :                 const auto _Parent_sibling = _Pnode->_Parent->_Parent->_Right;

  00070	8b 4e 08	 mov	 ecx, DWORD PTR [esi+8]

; 699  :                 if (_Parent_sibling->_Color == _Red) { // parent's sibling has two red children, blacken both

  00073	80 79 0c 00	 cmp	 BYTE PTR [ecx+12], 0
  00077	0f 84 a3 00 00
	00		 je	 $LN82@Insert_nod

; 700  :                     _Pnode->_Parent->_Color          = _Black;
; 701  :                     _Parent_sibling->_Color          = _Black;
; 702  :                     _Pnode->_Parent->_Parent->_Color = _Red;
; 703  :                     _Pnode                           = _Pnode->_Parent->_Parent;
; 704  :                 } else { // parent's sibling has red and black children
; 705  :                     if (_Pnode == _Pnode->_Parent->_Right) { // rotate right child to left

  0007d	8b 72 08	 mov	 esi, DWORD PTR [edx+8]
  00080	3b c6		 cmp	 eax, esi
  00082	75 37		 jne	 SHORT $LN57@Insert_nod

; 485  :         _Wherenode->_Right = _Pnode->_Left;

  00084	8b 0e		 mov	 ecx, DWORD PTR [esi]

; 706  :                         _Pnode = _Pnode->_Parent;

  00086	8b c2		 mov	 eax, edx

; 485  :         _Wherenode->_Right = _Pnode->_Left;

  00088	89 4a 08	 mov	 DWORD PTR [edx+8], ecx

; 486  : 
; 487  :         if (!_Pnode->_Left->_Isnil) {

  0008b	8b 0e		 mov	 ecx, DWORD PTR [esi]
  0008d	80 79 0d 00	 cmp	 BYTE PTR [ecx+13], 0
  00091	75 03		 jne	 SHORT $LN21@Insert_nod

; 488  :             _Pnode->_Left->_Parent = _Wherenode;

  00093	89 41 04	 mov	 DWORD PTR [ecx+4], eax
$LN21@Insert_nod:

; 489  :         }
; 490  : 
; 491  :         _Pnode->_Parent = _Wherenode->_Parent;

  00096	8b 4a 04	 mov	 ecx, DWORD PTR [edx+4]
  00099	89 4e 04	 mov	 DWORD PTR [esi+4], ecx

; 492  : 
; 493  :         if (_Wherenode == _Myhead->_Parent) {

  0009c	8b 0b		 mov	 ecx, DWORD PTR [ebx]
  0009e	3b 41 04	 cmp	 eax, DWORD PTR [ecx+4]
  000a1	75 05		 jne	 SHORT $LN22@Insert_nod

; 494  :             _Myhead->_Parent = _Pnode;

  000a3	89 71 04	 mov	 DWORD PTR [ecx+4], esi
  000a6	eb 0e		 jmp	 SHORT $LN25@Insert_nod
$LN22@Insert_nod:

; 495  :         } else if (_Wherenode == _Wherenode->_Parent->_Left) {

  000a8	8b 4a 04	 mov	 ecx, DWORD PTR [edx+4]
  000ab	3b 01		 cmp	 eax, DWORD PTR [ecx]
  000ad	75 04		 jne	 SHORT $LN24@Insert_nod

; 496  :             _Wherenode->_Parent->_Left = _Pnode;

  000af	89 31		 mov	 DWORD PTR [ecx], esi

; 497  :         } else {

  000b1	eb 03		 jmp	 SHORT $LN25@Insert_nod
$LN24@Insert_nod:

; 498  :             _Wherenode->_Parent->_Right = _Pnode;

  000b3	89 71 08	 mov	 DWORD PTR [ecx+8], esi
$LN25@Insert_nod:

; 499  :         }
; 500  : 
; 501  :         _Pnode->_Left       = _Wherenode;

  000b6	89 06		 mov	 DWORD PTR [esi], eax

; 502  :         _Wherenode->_Parent = _Pnode;

  000b8	89 70 04	 mov	 DWORD PTR [eax+4], esi
$LN57@Insert_nod:

; 707  :                         _Lrotate(_Pnode);
; 708  :                     }
; 709  : 
; 710  :                     _Pnode->_Parent->_Color          = _Black; // propagate red up

  000bb	8b 48 04	 mov	 ecx, DWORD PTR [eax+4]
  000be	c6 41 0c 01	 mov	 BYTE PTR [ecx+12], 1

; 711  :                     _Pnode->_Parent->_Parent->_Color = _Red;

  000c2	8b 48 04	 mov	 ecx, DWORD PTR [eax+4]
  000c5	8b 49 04	 mov	 ecx, DWORD PTR [ecx+4]
  000c8	c6 41 0c 00	 mov	 BYTE PTR [ecx+12], 0

; 712  :                     _Rrotate(_Pnode->_Parent->_Parent);

  000cc	8b 48 04	 mov	 ecx, DWORD PTR [eax+4]
  000cf	8b 51 04	 mov	 edx, DWORD PTR [ecx+4]

; 506  :         _Nodeptr _Pnode   = _Wherenode->_Left;

  000d2	8b 32		 mov	 esi, DWORD PTR [edx]

; 507  :         _Wherenode->_Left = _Pnode->_Right;

  000d4	8b 4e 08	 mov	 ecx, DWORD PTR [esi+8]
  000d7	89 0a		 mov	 DWORD PTR [edx], ecx

; 508  : 
; 509  :         if (!_Pnode->_Right->_Isnil) {

  000d9	8b 4e 08	 mov	 ecx, DWORD PTR [esi+8]
  000dc	80 79 0d 00	 cmp	 BYTE PTR [ecx+13], 0
  000e0	75 03		 jne	 SHORT $LN29@Insert_nod

; 510  :             _Pnode->_Right->_Parent = _Wherenode;

  000e2	89 51 04	 mov	 DWORD PTR [ecx+4], edx
$LN29@Insert_nod:

; 511  :         }
; 512  : 
; 513  :         _Pnode->_Parent = _Wherenode->_Parent;

  000e5	8b 4a 04	 mov	 ecx, DWORD PTR [edx+4]
  000e8	89 4e 04	 mov	 DWORD PTR [esi+4], ecx

; 514  : 
; 515  :         if (_Wherenode == _Myhead->_Parent) {

  000eb	8b 0b		 mov	 ecx, DWORD PTR [ebx]
  000ed	3b 51 04	 cmp	 edx, DWORD PTR [ecx+4]
  000f0	75 0b		 jne	 SHORT $LN30@Insert_nod

; 516  :             _Myhead->_Parent = _Pnode;

  000f2	89 71 04	 mov	 DWORD PTR [ecx+4], esi

; 521  :         }
; 522  : 
; 523  :         _Pnode->_Right      = _Wherenode;

  000f5	89 56 08	 mov	 DWORD PTR [esi+8], edx

; 713  :                 }
; 714  :             } else { // fixup red-red in right subtree

  000f8	e9 cc 00 00 00	 jmp	 $LN81@Insert_nod
$LN30@Insert_nod:

; 517  :         } else if (_Wherenode == _Wherenode->_Parent->_Right) {

  000fd	8b 4a 04	 mov	 ecx, DWORD PTR [edx+4]
  00100	3b 51 08	 cmp	 edx, DWORD PTR [ecx+8]
  00103	75 0b		 jne	 SHORT $LN32@Insert_nod

; 518  :             _Wherenode->_Parent->_Right = _Pnode;

  00105	89 71 08	 mov	 DWORD PTR [ecx+8], esi

; 521  :         }
; 522  : 
; 523  :         _Pnode->_Right      = _Wherenode;

  00108	89 56 08	 mov	 DWORD PTR [esi+8], edx

; 713  :                 }
; 714  :             } else { // fixup red-red in right subtree

  0010b	e9 b9 00 00 00	 jmp	 $LN81@Insert_nod
$LN32@Insert_nod:

; 520  :             _Wherenode->_Parent->_Left = _Pnode;

  00110	89 31		 mov	 DWORD PTR [ecx], esi

; 521  :         }
; 522  : 
; 523  :         _Pnode->_Right      = _Wherenode;

  00112	89 56 08	 mov	 DWORD PTR [esi+8], edx

; 713  :                 }
; 714  :             } else { // fixup red-red in right subtree

  00115	e9 af 00 00 00	 jmp	 $LN81@Insert_nod
$LN10@Insert_nod:

; 715  :                 const auto _Parent_sibling = _Pnode->_Parent->_Parent->_Left;
; 716  :                 if (_Parent_sibling->_Color == _Red) { // parent's sibling has two red children, blacken both

  0011a	80 79 0c 00	 cmp	 BYTE PTR [ecx+12], 0
  0011e	75 1d		 jne	 SHORT $LN15@Insert_nod
$LN82@Insert_nod:

; 693  :             }
; 694  :         }
; 695  : 
; 696  :         for (_Nodeptr _Pnode = _Newnode; _Pnode->_Parent->_Color == _Red;) {

  00120	c6 42 0c 01	 mov	 BYTE PTR [edx+12], 1
  00124	c6 41 0c 01	 mov	 BYTE PTR [ecx+12], 1
  00128	8b 48 04	 mov	 ecx, DWORD PTR [eax+4]
  0012b	8b 49 04	 mov	 ecx, DWORD PTR [ecx+4]
  0012e	c6 41 0c 00	 mov	 BYTE PTR [ecx+12], 0
  00132	8b 48 04	 mov	 ecx, DWORD PTR [eax+4]
  00135	8b 41 04	 mov	 eax, DWORD PTR [ecx+4]
  00138	e9 8f 00 00 00	 jmp	 $LN2@Insert_nod
$LN15@Insert_nod:

; 717  :                     _Pnode->_Parent->_Color          = _Black;
; 718  :                     _Parent_sibling->_Color          = _Black;
; 719  :                     _Pnode->_Parent->_Parent->_Color = _Red;
; 720  :                     _Pnode                           = _Pnode->_Parent->_Parent;
; 721  :                 } else { // parent's sibling has red and black children
; 722  :                     if (_Pnode == _Pnode->_Parent->_Left) { // rotate left child to right

  0013d	8b 32		 mov	 esi, DWORD PTR [edx]
  0013f	3b c6		 cmp	 eax, esi
  00141	75 3a		 jne	 SHORT $LN42@Insert_nod

; 507  :         _Wherenode->_Left = _Pnode->_Right;

  00143	8b 4e 08	 mov	 ecx, DWORD PTR [esi+8]

; 723  :                         _Pnode = _Pnode->_Parent;

  00146	8b c2		 mov	 eax, edx

; 507  :         _Wherenode->_Left = _Pnode->_Right;

  00148	89 08		 mov	 DWORD PTR [eax], ecx

; 508  : 
; 509  :         if (!_Pnode->_Right->_Isnil) {

  0014a	8b 4e 08	 mov	 ecx, DWORD PTR [esi+8]
  0014d	80 79 0d 00	 cmp	 BYTE PTR [ecx+13], 0
  00151	75 03		 jne	 SHORT $LN37@Insert_nod

; 510  :             _Pnode->_Right->_Parent = _Wherenode;

  00153	89 41 04	 mov	 DWORD PTR [ecx+4], eax
$LN37@Insert_nod:

; 511  :         }
; 512  : 
; 513  :         _Pnode->_Parent = _Wherenode->_Parent;

  00156	8b 4a 04	 mov	 ecx, DWORD PTR [edx+4]
  00159	89 4e 04	 mov	 DWORD PTR [esi+4], ecx

; 514  : 
; 515  :         if (_Wherenode == _Myhead->_Parent) {

  0015c	8b 0b		 mov	 ecx, DWORD PTR [ebx]
  0015e	3b 41 04	 cmp	 eax, DWORD PTR [ecx+4]
  00161	75 05		 jne	 SHORT $LN38@Insert_nod

; 516  :             _Myhead->_Parent = _Pnode;

  00163	89 71 04	 mov	 DWORD PTR [ecx+4], esi
  00166	eb 0f		 jmp	 SHORT $LN41@Insert_nod
$LN38@Insert_nod:

; 517  :         } else if (_Wherenode == _Wherenode->_Parent->_Right) {

  00168	8b 4a 04	 mov	 ecx, DWORD PTR [edx+4]
  0016b	3b 41 08	 cmp	 eax, DWORD PTR [ecx+8]
  0016e	75 05		 jne	 SHORT $LN40@Insert_nod

; 518  :             _Wherenode->_Parent->_Right = _Pnode;

  00170	89 71 08	 mov	 DWORD PTR [ecx+8], esi

; 519  :         } else {

  00173	eb 02		 jmp	 SHORT $LN41@Insert_nod
$LN40@Insert_nod:

; 520  :             _Wherenode->_Parent->_Left = _Pnode;

  00175	89 31		 mov	 DWORD PTR [ecx], esi
$LN41@Insert_nod:

; 521  :         }
; 522  : 
; 523  :         _Pnode->_Right      = _Wherenode;

  00177	89 46 08	 mov	 DWORD PTR [esi+8], eax

; 524  :         _Wherenode->_Parent = _Pnode;

  0017a	89 70 04	 mov	 DWORD PTR [eax+4], esi
$LN42@Insert_nod:

; 724  :                         _Rrotate(_Pnode);
; 725  :                     }
; 726  : 
; 727  :                     _Pnode->_Parent->_Color          = _Black; // propagate red up

  0017d	8b 48 04	 mov	 ecx, DWORD PTR [eax+4]
  00180	c6 41 0c 01	 mov	 BYTE PTR [ecx+12], 1

; 728  :                     _Pnode->_Parent->_Parent->_Color = _Red;

  00184	8b 48 04	 mov	 ecx, DWORD PTR [eax+4]
  00187	8b 49 04	 mov	 ecx, DWORD PTR [ecx+4]
  0018a	c6 41 0c 00	 mov	 BYTE PTR [ecx+12], 0

; 729  :                     _Lrotate(_Pnode->_Parent->_Parent);

  0018e	8b 48 04	 mov	 ecx, DWORD PTR [eax+4]
  00191	8b 51 04	 mov	 edx, DWORD PTR [ecx+4]

; 484  :         _Nodeptr _Pnode    = _Wherenode->_Right;

  00194	8b 72 08	 mov	 esi, DWORD PTR [edx+8]

; 485  :         _Wherenode->_Right = _Pnode->_Left;

  00197	8b 0e		 mov	 ecx, DWORD PTR [esi]
  00199	89 4a 08	 mov	 DWORD PTR [edx+8], ecx

; 486  : 
; 487  :         if (!_Pnode->_Left->_Isnil) {

  0019c	8b 0e		 mov	 ecx, DWORD PTR [esi]
  0019e	80 79 0d 00	 cmp	 BYTE PTR [ecx+13], 0
  001a2	75 03		 jne	 SHORT $LN45@Insert_nod

; 488  :             _Pnode->_Left->_Parent = _Wherenode;

  001a4	89 51 04	 mov	 DWORD PTR [ecx+4], edx
$LN45@Insert_nod:

; 489  :         }
; 490  : 
; 491  :         _Pnode->_Parent = _Wherenode->_Parent;

  001a7	8b 4a 04	 mov	 ecx, DWORD PTR [edx+4]
  001aa	89 4e 04	 mov	 DWORD PTR [esi+4], ecx

; 492  : 
; 493  :         if (_Wherenode == _Myhead->_Parent) {

  001ad	8b 0b		 mov	 ecx, DWORD PTR [ebx]
  001af	3b 51 04	 cmp	 edx, DWORD PTR [ecx+4]
  001b2	75 05		 jne	 SHORT $LN46@Insert_nod

; 494  :             _Myhead->_Parent = _Pnode;

  001b4	89 71 04	 mov	 DWORD PTR [ecx+4], esi
  001b7	eb 0e		 jmp	 SHORT $LN49@Insert_nod
$LN46@Insert_nod:

; 495  :         } else if (_Wherenode == _Wherenode->_Parent->_Left) {

  001b9	8b 4a 04	 mov	 ecx, DWORD PTR [edx+4]
  001bc	3b 11		 cmp	 edx, DWORD PTR [ecx]
  001be	75 04		 jne	 SHORT $LN48@Insert_nod

; 496  :             _Wherenode->_Parent->_Left = _Pnode;

  001c0	89 31		 mov	 DWORD PTR [ecx], esi

; 497  :         } else {

  001c2	eb 03		 jmp	 SHORT $LN49@Insert_nod
$LN48@Insert_nod:

; 498  :             _Wherenode->_Parent->_Right = _Pnode;

  001c4	89 71 08	 mov	 DWORD PTR [ecx+8], esi
$LN49@Insert_nod:

; 499  :         }
; 500  : 
; 501  :         _Pnode->_Left       = _Wherenode;

  001c7	89 16		 mov	 DWORD PTR [esi], edx
$LN81@Insert_nod:

; 693  :             }
; 694  :         }
; 695  : 
; 696  :         for (_Nodeptr _Pnode = _Newnode; _Pnode->_Parent->_Color == _Red;) {

  001c9	89 72 04	 mov	 DWORD PTR [edx+4], esi
$LN2@Insert_nod:
  001cc	8b 48 04	 mov	 ecx, DWORD PTR [eax+4]
  001cf	80 79 0c 00	 cmp	 BYTE PTR [ecx+12], 0
  001d3	0f 84 87 fe ff
	ff		 je	 $LL4@Insert_nod
  001d9	5e		 pop	 esi
$LN3@Insert_nod:

; 730  :                 }
; 731  :             }
; 732  :         }
; 733  : 
; 734  :         _Head->_Parent->_Color = _Black; // root is always black

  001da	8b 45 fc	 mov	 eax, DWORD PTR __Head$1$[ebp]
  001dd	8b 40 04	 mov	 eax, DWORD PTR [eax+4]
  001e0	c6 40 0c 01	 mov	 BYTE PTR [eax+12], 1

; 735  :         return _Newnode;
; 736  :     }

  001e4	8b c7		 mov	 eax, edi
  001e6	5f		 pop	 edi
  001e7	5b		 pop	 ebx
  001e8	8b e5		 mov	 esp, ebp
  001ea	5d		 pop	 ebp
  001eb	c2 0c 00	 ret	 12			; 0000000cH
?_Insert_node@?$_Tree_val@U?$_Tree_simple_types@U?$pair@$$CBHPAVCRespawner@@@std@@@std@@@std@@QAEPAU?$_Tree_node@U?$pair@$$CBHPAVCRespawner@@@std@@PAX@2@U?$_Tree_id@PAU?$_Tree_node@U?$pair@$$CBHPAVCRespawner@@@std@@PAX@std@@@2@QAU32@@Z ENDP ; std::_Tree_val<std::_Tree_simple_types<std::pair<int const ,CRespawner *> > >::_Insert_node
_TEXT	ENDS
; Function compile flags: /Ogtp
; File C:\Program Files\Microsoft Visual Studio\2022\Professional\VC\Tools\MSVC\14.44.35207\include\xtree
; File C:\Program Files\Microsoft Visual Studio\2022\Professional\VC\Tools\MSVC\14.44.35207\include\utility
; File C:\Program Files\Microsoft Visual Studio\2022\Professional\VC\Tools\MSVC\14.44.35207\include\xtree
;	COMDAT ?_Extract@?$_Tree_val@U?$_Tree_simple_types@U?$pair@$$CBHPAVCRespawner@@@std@@@std@@@std@@QAEPAU?$_Tree_node@U?$pair@$$CBHPAVCRespawner@@@std@@PAX@2@V?$_Tree_unchecked_const_iterator@V?$_Tree_val@U?$_Tree_simple_types@U?$pair@$$CBHPAVCRespawner@@@std@@@std@@@std@@U_Iterator_base0@2@@2@@Z
_TEXT	SEGMENT
tv1039 = -16						; size = 4
tv1073 = -12						; size = 4
tv1093 = -12						; size = 4
$T1 = -12						; size = 4
__Erasednode$1$ = -8					; size = 4
_this$1$ = -4						; size = 4
__Where$ = 8						; size = 4
?_Extract@?$_Tree_val@U?$_Tree_simple_types@U?$pair@$$CBHPAVCRespawner@@@std@@@std@@@std@@QAEPAU?$_Tree_node@U?$pair@$$CBHPAVCRespawner@@@std@@PAX@2@V?$_Tree_unchecked_const_iterator@V?$_Tree_val@U?$_Tree_simple_types@U?$pair@$$CBHPAVCRespawner@@@std@@@std@@@std@@U_Iterator_base0@2@@2@@Z PROC ; std::_Tree_val<std::_Tree_simple_types<std::pair<int const ,CRespawner *> > >::_Extract, COMDAT
; _this$ = ecx

; 527  :     _Nodeptr _Extract(_Unchecked_const_iterator _Where) noexcept {

  00000	55		 push	 ebp
  00001	8b ec		 mov	 ebp, esp
  00003	83 ec 10	 sub	 esp, 16			; 00000010H

; 528  :         _Nodeptr _Erasednode = _Where._Ptr; // node to erase

  00006	8b 45 08	 mov	 eax, DWORD PTR __Where$[ebp]
  00009	53		 push	 ebx
  0000a	56		 push	 esi
  0000b	8b d9		 mov	 ebx, ecx
  0000d	89 45 f8	 mov	 DWORD PTR __Erasednode$1$[ebp], eax
  00010	57		 push	 edi

; 529  :         ++_Where; // save successor iterator for return

  00011	8d 4d 08	 lea	 ecx, DWORD PTR __Where$[ebp]
  00014	89 5d fc	 mov	 DWORD PTR _this$1$[ebp], ebx
  00017	e8 00 00 00 00	 call	 ??E?$_Tree_unchecked_const_iterator@V?$_Tree_val@U?$_Tree_simple_types@U?$pair@$$CBHPAVCRespawner@@@std@@@std@@@std@@U_Iterator_base0@2@@std@@QAEAAV01@XZ ; std::_Tree_unchecked_const_iterator<std::_Tree_val<std::_Tree_simple_types<std::pair<int const ,CRespawner *> > >,std::_Iterator_base0>::operator++

; 530  : 
; 531  :         _Nodeptr _Fixnode; // the node to recolor as needed
; 532  :         _Nodeptr _Fixnodeparent; // parent of _Fixnode (which may be nil)
; 533  :         _Nodeptr _Pnode = _Erasednode;
; 534  : 
; 535  :         if (_Pnode->_Left->_Isnil) {

  0001c	8b 4d f8	 mov	 ecx, DWORD PTR __Erasednode$1$[ebp]
  0001f	8b 01		 mov	 eax, DWORD PTR [ecx]
  00021	8b 79 08	 mov	 edi, DWORD PTR [ecx+8]
  00024	80 78 0d 00	 cmp	 BYTE PTR [eax+13], 0
  00028	75 18		 jne	 SHORT $LN94@Extract

; 536  :             _Fixnode = _Pnode->_Right; // stitch up right subtree
; 537  :         } else if (_Pnode->_Right->_Isnil) {

  0002a	80 7f 0d 00	 cmp	 BYTE PTR [edi+13], 0
  0002e	74 04		 je	 SHORT $LN7@Extract

; 538  :             _Fixnode = _Pnode->_Left; // stitch up left subtree

  00030	8b f8		 mov	 edi, eax

; 539  :         } else { // two subtrees, must lift successor node to replace erased

  00032	eb 0e		 jmp	 SHORT $LN94@Extract
$LN7@Extract:

; 540  :             _Pnode   = _Where._Ptr; // _Pnode is successor node

  00034	8b 55 08	 mov	 edx, DWORD PTR __Where$[ebp]

; 541  :             _Fixnode = _Pnode->_Right; // _Fixnode is only subtree

  00037	8b 7a 08	 mov	 edi, DWORD PTR [edx+8]
  0003a	3b d1		 cmp	 edx, ecx

; 542  :         }
; 543  : 
; 544  :         if (_Pnode == _Erasednode) { // at most one subtree, relink it

  0003c	0f 85 91 00 00
	00		 jne	 $LN9@Extract
$LN94@Extract:

; 545  :             _Fixnodeparent = _Erasednode->_Parent;
; 546  :             if (!_Fixnode->_Isnil) {

  00042	80 7f 0d 00	 cmp	 BYTE PTR [edi+13], 0
  00046	8b 71 04	 mov	 esi, DWORD PTR [ecx+4]
  00049	75 03		 jne	 SHORT $LN11@Extract

; 547  :                 _Fixnode->_Parent = _Fixnodeparent; // link up

  0004b	89 77 04	 mov	 DWORD PTR [edi+4], esi
$LN11@Extract:

; 548  :             }
; 549  : 
; 550  :             if (_Myhead->_Parent == _Erasednode) {

  0004e	8b 03		 mov	 eax, DWORD PTR [ebx]
  00050	39 48 04	 cmp	 DWORD PTR [eax+4], ecx
  00053	75 05		 jne	 SHORT $LN12@Extract

; 551  :                 _Myhead->_Parent = _Fixnode; // link down from root

  00055	89 78 04	 mov	 DWORD PTR [eax+4], edi
  00058	eb 0b		 jmp	 SHORT $LN15@Extract
$LN12@Extract:

; 552  :             } else if (_Fixnodeparent->_Left == _Erasednode) {

  0005a	39 0e		 cmp	 DWORD PTR [esi], ecx
  0005c	75 04		 jne	 SHORT $LN14@Extract

; 553  :                 _Fixnodeparent->_Left = _Fixnode; // link down to left

  0005e	89 3e		 mov	 DWORD PTR [esi], edi

; 554  :             } else {

  00060	eb 03		 jmp	 SHORT $LN15@Extract
$LN14@Extract:

; 555  :                 _Fixnodeparent->_Right = _Fixnode; // link down to right

  00062	89 7e 08	 mov	 DWORD PTR [esi+8], edi
$LN15@Extract:

; 556  :             }
; 557  : 
; 558  :             if (_Myhead->_Left == _Erasednode) {

  00065	8b 03		 mov	 eax, DWORD PTR [ebx]
  00067	39 08		 cmp	 DWORD PTR [eax], ecx
  00069	75 28		 jne	 SHORT $LN16@Extract

; 559  :                 _Myhead->_Left = _Fixnode->_Isnil ? _Fixnodeparent // smallest is parent of erased node

  0006b	80 7f 0d 00	 cmp	 BYTE PTR [edi+13], 0
  0006f	74 04		 je	 SHORT $LN42@Extract
  00071	8b d6		 mov	 edx, esi
  00073	eb 1c		 jmp	 SHORT $LN43@Extract
$LN42@Extract:

; 476  :         while (!_Pnode->_Left->_Isnil) {

  00075	8b 0f		 mov	 ecx, DWORD PTR [edi]

; 559  :                 _Myhead->_Left = _Fixnode->_Isnil ? _Fixnodeparent // smallest is parent of erased node

  00077	8b d7		 mov	 edx, edi

; 476  :         while (!_Pnode->_Left->_Isnil) {

  00079	80 79 0d 00	 cmp	 BYTE PTR [ecx+13], 0
  0007d	75 0f		 jne	 SHORT $LN49@Extract
  0007f	90		 npad	 1
$LL48@Extract:
  00080	8b 01		 mov	 eax, DWORD PTR [ecx]

; 477  :             _Pnode = _Pnode->_Left;

  00082	8b d1		 mov	 edx, ecx
  00084	8b c8		 mov	 ecx, eax
  00086	80 78 0d 00	 cmp	 BYTE PTR [eax+13], 0
  0008a	74 f4		 je	 SHORT $LL48@Extract
  0008c	8b 03		 mov	 eax, DWORD PTR [ebx]
$LN49@Extract:
  0008e	8b 4d f8	 mov	 ecx, DWORD PTR __Erasednode$1$[ebp]
$LN43@Extract:

; 559  :                 _Myhead->_Left = _Fixnode->_Isnil ? _Fixnodeparent // smallest is parent of erased node

  00091	89 10		 mov	 DWORD PTR [eax], edx
$LN16@Extract:

; 560  :                                                   : _Min(_Fixnode); // smallest in relinked subtree
; 561  :             }
; 562  : 
; 563  :             if (_Myhead->_Right == _Erasednode) {

  00093	8b 13		 mov	 edx, DWORD PTR [ebx]
  00095	39 4a 08	 cmp	 DWORD PTR [edx+8], ecx
  00098	75 34		 jne	 SHORT $LN17@Extract

; 564  :                 _Myhead->_Right = _Fixnode->_Isnil ? _Fixnodeparent // largest is parent of erased node

  0009a	80 7f 0d 00	 cmp	 BYTE PTR [edi+13], 0
  0009e	74 0d		 je	 SHORT $LN44@Extract

; 565  :                                                    : _Max(_Fixnode); // largest in relinked subtree
; 566  :             }
; 567  :         } else { // erased has two subtrees, _Pnode is successor to erased

  000a0	8b 45 f8	 mov	 eax, DWORD PTR __Erasednode$1$[ebp]
  000a3	8b ce		 mov	 ecx, esi
  000a5	89 4a 08	 mov	 DWORD PTR [edx+8], ecx
  000a8	e9 94 00 00 00	 jmp	 $LN58@Extract
$LN44@Extract:

; 468  :         while (!_Pnode->_Right->_Isnil) {

  000ad	8b 47 08	 mov	 eax, DWORD PTR [edi+8]

; 564  :                 _Myhead->_Right = _Fixnode->_Isnil ? _Fixnodeparent // largest is parent of erased node

  000b0	8b cf		 mov	 ecx, edi

; 468  :         while (!_Pnode->_Right->_Isnil) {

  000b2	80 78 0d 00	 cmp	 BYTE PTR [eax+13], 0
  000b6	75 13		 jne	 SHORT $LN54@Extract
  000b8	0f 1f 84 00 00
	00 00 00	 npad	 8
$LL53@Extract:

; 469  :             _Pnode = _Pnode->_Right;

  000c0	8b c8		 mov	 ecx, eax
  000c2	8b 41 08	 mov	 eax, DWORD PTR [ecx+8]
  000c5	80 78 0d 00	 cmp	 BYTE PTR [eax+13], 0
  000c9	74 f5		 je	 SHORT $LL53@Extract
$LN54@Extract:

; 564  :                 _Myhead->_Right = _Fixnode->_Isnil ? _Fixnodeparent // largest is parent of erased node

  000cb	89 4a 08	 mov	 DWORD PTR [edx+8], ecx
$LN17@Extract:

; 565  :                                                    : _Max(_Fixnode); // largest in relinked subtree
; 566  :             }
; 567  :         } else { // erased has two subtrees, _Pnode is successor to erased

  000ce	8b 45 f8	 mov	 eax, DWORD PTR __Erasednode$1$[ebp]
  000d1	eb 6e		 jmp	 SHORT $LN58@Extract
$LN9@Extract:

; 568  :             _Erasednode->_Left->_Parent = _Pnode; // link left up

  000d3	89 50 04	 mov	 DWORD PTR [eax+4], edx

; 569  :             _Pnode->_Left               = _Erasednode->_Left; // link successor down

  000d6	8b 01		 mov	 eax, DWORD PTR [ecx]
  000d8	89 02		 mov	 DWORD PTR [edx], eax

; 570  : 
; 571  :             if (_Pnode == _Erasednode->_Right) {

  000da	8d 42 04	 lea	 eax, DWORD PTR [edx+4]
  000dd	89 45 f4	 mov	 DWORD PTR $T1[ebp], eax
  000e0	3b 51 08	 cmp	 edx, DWORD PTR [ecx+8]
  000e3	75 04		 jne	 SHORT $LN18@Extract

; 572  :                 _Fixnodeparent = _Pnode; // successor is next to erased

  000e5	8b f2		 mov	 esi, edx

; 573  :             } else { // successor further down, link in place of erased

  000e7	eb 1f		 jmp	 SHORT $LN19@Extract
$LN18@Extract:

; 574  :                 _Fixnodeparent = _Pnode->_Parent; // parent is successor's
; 575  :                 if (!_Fixnode->_Isnil) {

  000e9	80 7f 0d 00	 cmp	 BYTE PTR [edi+13], 0
  000ed	8b 30		 mov	 esi, DWORD PTR [eax]
  000ef	75 03		 jne	 SHORT $LN20@Extract

; 576  :                     _Fixnode->_Parent = _Fixnodeparent; // link fix up

  000f1	89 77 04	 mov	 DWORD PTR [edi+4], esi
$LN20@Extract:

; 577  :                 }
; 578  : 
; 579  :                 _Fixnodeparent->_Left        = _Fixnode; // link fix down

  000f4	89 3e		 mov	 DWORD PTR [esi], edi

; 580  :                 _Pnode->_Right               = _Erasednode->_Right; // link next down

  000f6	8b 41 08	 mov	 eax, DWORD PTR [ecx+8]
  000f9	89 42 08	 mov	 DWORD PTR [edx+8], eax

; 581  :                 _Erasednode->_Right->_Parent = _Pnode; // right up

  000fc	8b 41 08	 mov	 eax, DWORD PTR [ecx+8]
  000ff	89 50 04	 mov	 DWORD PTR [eax+4], edx
  00102	8d 42 04	 lea	 eax, DWORD PTR [edx+4]
  00105	89 45 f4	 mov	 DWORD PTR $T1[ebp], eax
$LN19@Extract:

; 582  :             }
; 583  : 
; 584  :             if (_Myhead->_Parent == _Erasednode) {

  00108	8b 03		 mov	 eax, DWORD PTR [ebx]
  0010a	39 48 04	 cmp	 DWORD PTR [eax+4], ecx
  0010d	75 05		 jne	 SHORT $LN21@Extract

; 585  :                 _Myhead->_Parent = _Pnode; // link down from root

  0010f	89 50 04	 mov	 DWORD PTR [eax+4], edx
  00112	eb 0e		 jmp	 SHORT $LN141@Extract
$LN21@Extract:

; 586  :             } else if (_Erasednode->_Parent->_Left == _Erasednode) {

  00114	8b 41 04	 mov	 eax, DWORD PTR [ecx+4]
  00117	39 08		 cmp	 DWORD PTR [eax], ecx
  00119	75 04		 jne	 SHORT $LN23@Extract

; 587  :                 _Erasednode->_Parent->_Left = _Pnode; // link down to left

  0011b	89 10		 mov	 DWORD PTR [eax], edx

; 588  :             } else {

  0011d	eb 03		 jmp	 SHORT $LN141@Extract
$LN23@Extract:

; 589  :                 _Erasednode->_Parent->_Right = _Pnode; // link down to right

  0011f	89 50 08	 mov	 DWORD PTR [eax+8], edx
$LN141@Extract:

; 590  :             }
; 591  : 
; 592  :             _Pnode->_Parent = _Erasednode->_Parent; // link successor up

  00122	b8 04 00 00 00	 mov	 eax, 4
  00127	8b 04 08	 mov	 eax, DWORD PTR [eax+ecx]
  0012a	8b 4d f4	 mov	 ecx, DWORD PTR $T1[ebp]
  0012d	89 01		 mov	 DWORD PTR [ecx], eax
; File C:\Program Files\Microsoft Visual Studio\2022\Professional\VC\Tools\MSVC\14.44.35207\include\utility

; 140  :     _Left    = _STD move(_Right);

  0012f	8b 45 f8	 mov	 eax, DWORD PTR __Erasednode$1$[ebp]
  00132	8a 4a 0c	 mov	 cl, BYTE PTR [edx+12]
  00135	8a 40 0c	 mov	 al, BYTE PTR [eax+12]
  00138	88 42 0c	 mov	 BYTE PTR [edx+12], al

; 141  :     _Right   = _STD move(_Tmp);

  0013b	8b 45 f8	 mov	 eax, DWORD PTR __Erasednode$1$[ebp]
  0013e	88 48 0c	 mov	 BYTE PTR [eax+12], cl
$LN58@Extract:
; File C:\Program Files\Microsoft Visual Studio\2022\Professional\VC\Tools\MSVC\14.44.35207\include\xtree

; 596  :         if (_Erasednode->_Color == _Black) { // erasing black link, must recolor/rebalance tree

  00141	80 78 0c 01	 cmp	 BYTE PTR [eax+12], 1
  00145	0f 85 ba 01 00
	00		 jne	 $LN25@Extract

; 597  :             for (; _Fixnode != _Myhead->_Parent && _Fixnode->_Color == _Black; _Fixnodeparent = _Fixnode->_Parent) {

  0014b	8b 03		 mov	 eax, DWORD PTR [ebx]
  0014d	3b 78 04	 cmp	 edi, DWORD PTR [eax+4]
  00150	0f 84 a8 01 00
	00		 je	 $LN3@Extract
  00156	80 7f 0c 01	 cmp	 BYTE PTR [edi+12], 1
  0015a	89 75 f4	 mov	 DWORD PTR tv1093[ebp], esi
  0015d	0f 85 9b 01 00
	00		 jne	 $LN3@Extract
$LL4@Extract:

; 598  :                 if (_Fixnode == _Fixnodeparent->_Left) { // fixup left subtree

  00163	8b 0e		 mov	 ecx, DWORD PTR [esi]
  00165	3b f9		 cmp	 edi, ecx
  00167	0f 85 be 00 00
	00		 jne	 $LN26@Extract

; 599  :                     _Pnode = _Fixnodeparent->_Right;

  0016d	8b 4e 08	 mov	 ecx, DWORD PTR [esi+8]

; 600  :                     if (_Pnode->_Color == _Red) { // rotate red up from right subtree

  00170	80 79 0c 00	 cmp	 BYTE PTR [ecx+12], 0
  00174	75 54		 jne	 SHORT $LN95@Extract

; 601  :                         _Pnode->_Color         = _Black;

  00176	c6 41 0c 01	 mov	 BYTE PTR [ecx+12], 1

; 484  :         _Nodeptr _Pnode    = _Wherenode->_Right;

  0017a	8b 4e 08	 mov	 ecx, DWORD PTR [esi+8]

; 602  :                         _Fixnodeparent->_Color = _Red;

  0017d	c6 46 0c 00	 mov	 BYTE PTR [esi+12], 0

; 485  :         _Wherenode->_Right = _Pnode->_Left;

  00181	8b 01		 mov	 eax, DWORD PTR [ecx]
  00183	89 46 08	 mov	 DWORD PTR [esi+8], eax

; 486  : 
; 487  :         if (!_Pnode->_Left->_Isnil) {

  00186	8b 01		 mov	 eax, DWORD PTR [ecx]
  00188	80 78 0d 00	 cmp	 BYTE PTR [eax+13], 0
  0018c	75 03		 jne	 SHORT $LN61@Extract

; 488  :             _Pnode->_Left->_Parent = _Wherenode;

  0018e	89 70 04	 mov	 DWORD PTR [eax+4], esi
$LN61@Extract:

; 489  :         }
; 490  : 
; 491  :         _Pnode->_Parent = _Wherenode->_Parent;

  00191	8b 46 04	 mov	 eax, DWORD PTR [esi+4]
  00194	8d 56 04	 lea	 edx, DWORD PTR [esi+4]
  00197	89 41 04	 mov	 DWORD PTR [ecx+4], eax

; 492  : 
; 493  :         if (_Wherenode == _Myhead->_Parent) {

  0019a	8b 03		 mov	 eax, DWORD PTR [ebx]
  0019c	3b 70 04	 cmp	 esi, DWORD PTR [eax+4]
  0019f	75 0c		 jne	 SHORT $LN62@Extract

; 494  :             _Myhead->_Parent = _Pnode;

  001a1	89 48 04	 mov	 DWORD PTR [eax+4], ecx

; 499  :         }
; 500  : 
; 501  :         _Pnode->_Left       = _Wherenode;

  001a4	89 31		 mov	 DWORD PTR [ecx], esi

; 502  :         _Wherenode->_Parent = _Pnode;

  001a6	89 0a		 mov	 DWORD PTR [edx], ecx

; 603  :                         _Lrotate(_Fixnodeparent);
; 604  :                         _Pnode = _Fixnodeparent->_Right;

  001a8	8b 4e 08	 mov	 ecx, DWORD PTR [esi+8]
  001ab	eb 20		 jmp	 SHORT $LN87@Extract
$LN62@Extract:

; 495  :         } else if (_Wherenode == _Wherenode->_Parent->_Left) {

  001ad	8b 02		 mov	 eax, DWORD PTR [edx]
  001af	3b 30		 cmp	 esi, DWORD PTR [eax]
  001b1	75 0b		 jne	 SHORT $LN64@Extract

; 496  :             _Wherenode->_Parent->_Left = _Pnode;

  001b3	89 08		 mov	 DWORD PTR [eax], ecx

; 499  :         }
; 500  : 
; 501  :         _Pnode->_Left       = _Wherenode;

  001b5	89 31		 mov	 DWORD PTR [ecx], esi

; 502  :         _Wherenode->_Parent = _Pnode;

  001b7	89 0a		 mov	 DWORD PTR [edx], ecx

; 603  :                         _Lrotate(_Fixnodeparent);
; 604  :                         _Pnode = _Fixnodeparent->_Right;

  001b9	8b 4e 08	 mov	 ecx, DWORD PTR [esi+8]
  001bc	eb 0f		 jmp	 SHORT $LN87@Extract
$LN64@Extract:

; 498  :             _Wherenode->_Parent->_Right = _Pnode;

  001be	89 48 08	 mov	 DWORD PTR [eax+8], ecx

; 499  :         }
; 500  : 
; 501  :         _Pnode->_Left       = _Wherenode;

  001c1	89 31		 mov	 DWORD PTR [ecx], esi

; 502  :         _Wherenode->_Parent = _Pnode;

  001c3	89 0a		 mov	 DWORD PTR [edx], ecx

; 603  :                         _Lrotate(_Fixnodeparent);
; 604  :                         _Pnode = _Fixnodeparent->_Right;

  001c5	8b 4e 08	 mov	 ecx, DWORD PTR [esi+8]
  001c8	eb 03		 jmp	 SHORT $LN87@Extract
$LN95@Extract:
  001ca	8d 56 04	 lea	 edx, DWORD PTR [esi+4]
$LN87@Extract:

; 605  :                     }
; 606  : 
; 607  :                     if (_Pnode->_Isnil) {

  001cd	80 79 0d 00	 cmp	 BYTE PTR [ecx+13], 0
  001d1	0f 85 d0 00 00
	00		 jne	 $LN2@Extract

; 608  :                         _Fixnode = _Fixnodeparent; // shouldn't happen
; 609  :                     } else if (_Pnode->_Left->_Color == _Black
; 610  :                                && _Pnode->_Right->_Color == _Black) { // redden right subtree with black children

  001d7	8b 01		 mov	 eax, DWORD PTR [ecx]
  001d9	80 78 0c 01	 cmp	 BYTE PTR [eax+12], 1
  001dd	75 0d		 jne	 SHORT $LN97@Extract
  001df	8b 41 08	 mov	 eax, DWORD PTR [ecx+8]
  001e2	80 78 0c 01	 cmp	 BYTE PTR [eax+12], 1
  001e6	0f 84 b4 00 00
	00		 je	 $LN142@Extract
$LN97@Extract:

; 611  :                         _Pnode->_Color = _Red;
; 612  :                         _Fixnode       = _Fixnodeparent;
; 613  :                     } else { // must rearrange right subtree
; 614  :                         if (_Pnode->_Right->_Color == _Black) { // rotate red up from left sub-subtree

  001ec	8b 41 08	 mov	 eax, DWORD PTR [ecx+8]
  001ef	8b 5d fc	 mov	 ebx, DWORD PTR _this$1$[ebp]
  001f2	80 78 0c 01	 cmp	 BYTE PTR [eax+12], 1
  001f6	75 15		 jne	 SHORT $LN33@Extract

; 615  :                             _Pnode->_Left->_Color = _Black;

  001f8	8b 01		 mov	 eax, DWORD PTR [ecx]

; 616  :                             _Pnode->_Color        = _Red;
; 617  :                             _Rrotate(_Pnode);

  001fa	51		 push	 ecx
  001fb	c6 40 0c 01	 mov	 BYTE PTR [eax+12], 1
  001ff	c6 41 0c 00	 mov	 BYTE PTR [ecx+12], 0
  00203	8b cb		 mov	 ecx, ebx
  00205	e8 00 00 00 00	 call	 ?_Rrotate@?$_Tree_val@U?$_Tree_simple_types@U?$pair@$$CBHPAVCRespawner@@@std@@@std@@@std@@QAEXPAU?$_Tree_node@U?$pair@$$CBHPAVCRespawner@@@std@@PAX@2@@Z ; std::_Tree_val<std::_Tree_simple_types<std::pair<int const ,CRespawner *> > >::_Rrotate

; 618  :                             _Pnode = _Fixnodeparent->_Right;

  0020a	8b 4e 08	 mov	 ecx, DWORD PTR [esi+8]
$LN33@Extract:

; 619  :                         }
; 620  : 
; 621  :                         _Pnode->_Color         = _Fixnodeparent->_Color;

  0020d	8a 46 0c	 mov	 al, BYTE PTR [esi+12]
  00210	88 41 0c	 mov	 BYTE PTR [ecx+12], al

; 622  :                         _Fixnodeparent->_Color = _Black;

  00213	c6 46 0c 01	 mov	 BYTE PTR [esi+12], 1

; 623  :                         _Pnode->_Right->_Color = _Black;

  00217	8b 41 08	 mov	 eax, DWORD PTR [ecx+8]

; 624  :                         _Lrotate(_Fixnodeparent);

  0021a	8b cb		 mov	 ecx, ebx
  0021c	56		 push	 esi
  0021d	c6 40 0c 01	 mov	 BYTE PTR [eax+12], 1
  00221	e8 00 00 00 00	 call	 ?_Lrotate@?$_Tree_val@U?$_Tree_simple_types@U?$pair@$$CBHPAVCRespawner@@@std@@@std@@@std@@QAEXPAU?$_Tree_node@U?$pair@$$CBHPAVCRespawner@@@std@@PAX@2@@Z ; std::_Tree_val<std::_Tree_simple_types<std::pair<int const ,CRespawner *> > >::_Lrotate

; 625  :                         break; // tree now recolored/rebalanced

  00226	e9 d3 00 00 00	 jmp	 $LN3@Extract
$LN26@Extract:

; 626  :                     }
; 627  :                 } else { // fixup right subtree
; 628  :                     _Pnode = _Fixnodeparent->_Left;
; 629  :                     if (_Pnode->_Color == _Red) { // rotate red up from left subtree

  0022b	80 79 0c 00	 cmp	 BYTE PTR [ecx+12], 0
  0022f	75 55		 jne	 SHORT $LN96@Extract

; 630  :                         _Pnode->_Color         = _Black;

  00231	c6 41 0c 01	 mov	 BYTE PTR [ecx+12], 1

; 506  :         _Nodeptr _Pnode   = _Wherenode->_Left;

  00235	8b 0e		 mov	 ecx, DWORD PTR [esi]

; 631  :                         _Fixnodeparent->_Color = _Red;

  00237	c6 46 0c 00	 mov	 BYTE PTR [esi+12], 0

; 507  :         _Wherenode->_Left = _Pnode->_Right;

  0023b	8b 41 08	 mov	 eax, DWORD PTR [ecx+8]
  0023e	89 06		 mov	 DWORD PTR [esi], eax

; 508  : 
; 509  :         if (!_Pnode->_Right->_Isnil) {

  00240	8b 41 08	 mov	 eax, DWORD PTR [ecx+8]
  00243	80 78 0d 00	 cmp	 BYTE PTR [eax+13], 0
  00247	75 03		 jne	 SHORT $LN69@Extract

; 510  :             _Pnode->_Right->_Parent = _Wherenode;

  00249	89 70 04	 mov	 DWORD PTR [eax+4], esi
$LN69@Extract:

; 511  :         }
; 512  : 
; 513  :         _Pnode->_Parent = _Wherenode->_Parent;

  0024c	8b 46 04	 mov	 eax, DWORD PTR [esi+4]
  0024f	8d 56 04	 lea	 edx, DWORD PTR [esi+4]
  00252	89 41 04	 mov	 DWORD PTR [ecx+4], eax

; 514  : 
; 515  :         if (_Wherenode == _Myhead->_Parent) {

  00255	8b 03		 mov	 eax, DWORD PTR [ebx]
  00257	3b 70 04	 cmp	 esi, DWORD PTR [eax+4]
  0025a	75 0c		 jne	 SHORT $LN70@Extract

; 516  :             _Myhead->_Parent = _Pnode;

  0025c	89 48 04	 mov	 DWORD PTR [eax+4], ecx

; 521  :         }
; 522  : 
; 523  :         _Pnode->_Right      = _Wherenode;

  0025f	89 71 08	 mov	 DWORD PTR [ecx+8], esi

; 524  :         _Wherenode->_Parent = _Pnode;

  00262	89 0a		 mov	 DWORD PTR [edx], ecx

; 632  :                         _Rrotate(_Fixnodeparent);
; 633  :                         _Pnode = _Fixnodeparent->_Left;

  00264	8b 0e		 mov	 ecx, DWORD PTR [esi]
  00266	eb 21		 jmp	 SHORT $LN86@Extract
$LN70@Extract:

; 517  :         } else if (_Wherenode == _Wherenode->_Parent->_Right) {

  00268	8b 02		 mov	 eax, DWORD PTR [edx]
  0026a	3b 70 08	 cmp	 esi, DWORD PTR [eax+8]
  0026d	75 0c		 jne	 SHORT $LN72@Extract

; 518  :             _Wherenode->_Parent->_Right = _Pnode;

  0026f	89 48 08	 mov	 DWORD PTR [eax+8], ecx

; 521  :         }
; 522  : 
; 523  :         _Pnode->_Right      = _Wherenode;

  00272	89 71 08	 mov	 DWORD PTR [ecx+8], esi

; 524  :         _Wherenode->_Parent = _Pnode;

  00275	89 0a		 mov	 DWORD PTR [edx], ecx

; 632  :                         _Rrotate(_Fixnodeparent);
; 633  :                         _Pnode = _Fixnodeparent->_Left;

  00277	8b 0e		 mov	 ecx, DWORD PTR [esi]
  00279	eb 0e		 jmp	 SHORT $LN86@Extract
$LN72@Extract:

; 520  :             _Wherenode->_Parent->_Left = _Pnode;

  0027b	89 08		 mov	 DWORD PTR [eax], ecx

; 521  :         }
; 522  : 
; 523  :         _Pnode->_Right      = _Wherenode;

  0027d	89 71 08	 mov	 DWORD PTR [ecx+8], esi

; 524  :         _Wherenode->_Parent = _Pnode;

  00280	89 0a		 mov	 DWORD PTR [edx], ecx

; 632  :                         _Rrotate(_Fixnodeparent);
; 633  :                         _Pnode = _Fixnodeparent->_Left;

  00282	8b 0e		 mov	 ecx, DWORD PTR [esi]
  00284	eb 03		 jmp	 SHORT $LN86@Extract
$LN96@Extract:
  00286	8d 56 04	 lea	 edx, DWORD PTR [esi+4]
$LN86@Extract:

; 634  :                     }
; 635  : 
; 636  :                     if (_Pnode->_Isnil) {

  00289	80 79 0d 00	 cmp	 BYTE PTR [ecx+13], 0
  0028d	75 18		 jne	 SHORT $LN2@Extract

; 637  :                         _Fixnode = _Fixnodeparent; // shouldn't happen
; 638  :                     } else if (_Pnode->_Right->_Color == _Black
; 639  :                                && _Pnode->_Left->_Color == _Black) { // redden left subtree with black children

  0028f	8b 59 08	 mov	 ebx, DWORD PTR [ecx+8]
  00292	80 7b 0c 01	 cmp	 BYTE PTR [ebx+12], 1
  00296	75 2c		 jne	 SHORT $LN98@Extract
  00298	8b 01		 mov	 eax, DWORD PTR [ecx]
  0029a	80 78 0c 01	 cmp	 BYTE PTR [eax+12], 1
  0029e	75 24		 jne	 SHORT $LN98@Extract
$LN142@Extract:

; 597  :             for (; _Fixnode != _Myhead->_Parent && _Fixnode->_Color == _Black; _Fixnodeparent = _Fixnode->_Parent) {

  002a0	8b 5d fc	 mov	 ebx, DWORD PTR _this$1$[ebp]
  002a3	c6 41 0c 00	 mov	 BYTE PTR [ecx+12], 0
$LN2@Extract:
  002a7	8b 03		 mov	 eax, DWORD PTR [ebx]
  002a9	8b 4d f4	 mov	 ecx, DWORD PTR tv1093[ebp]
  002ac	8b f9		 mov	 edi, ecx
  002ae	8b 32		 mov	 esi, DWORD PTR [edx]
  002b0	3b 48 04	 cmp	 ecx, DWORD PTR [eax+4]
  002b3	74 49		 je	 SHORT $LN3@Extract
  002b5	80 7f 0c 01	 cmp	 BYTE PTR [edi+12], 1
  002b9	89 75 f4	 mov	 DWORD PTR tv1093[ebp], esi
  002bc	0f 84 a1 fe ff
	ff		 je	 $LL4@Extract
  002c2	eb 3a		 jmp	 SHORT $LN3@Extract
$LN98@Extract:

; 640  :                         _Pnode->_Color = _Red;
; 641  :                         _Fixnode       = _Fixnodeparent;
; 642  :                     } else { // must rearrange left subtree
; 643  :                         if (_Pnode->_Left->_Color == _Black) { // rotate red up from right sub-subtree

  002c4	8b 01		 mov	 eax, DWORD PTR [ecx]
  002c6	80 78 0c 01	 cmp	 BYTE PTR [eax+12], 1
  002ca	75 17		 jne	 SHORT $LN101@Extract

; 644  :                             _Pnode->_Right->_Color = _Black;

  002cc	c6 43 0c 01	 mov	 BYTE PTR [ebx+12], 1

; 645  :                             _Pnode->_Color         = _Red;
; 646  :                             _Lrotate(_Pnode);

  002d0	8b 5d fc	 mov	 ebx, DWORD PTR _this$1$[ebp]
  002d3	c6 41 0c 00	 mov	 BYTE PTR [ecx+12], 0
  002d7	51		 push	 ecx
  002d8	8b cb		 mov	 ecx, ebx
  002da	e8 00 00 00 00	 call	 ?_Lrotate@?$_Tree_val@U?$_Tree_simple_types@U?$pair@$$CBHPAVCRespawner@@@std@@@std@@@std@@QAEXPAU?$_Tree_node@U?$pair@$$CBHPAVCRespawner@@@std@@PAX@2@@Z ; std::_Tree_val<std::_Tree_simple_types<std::pair<int const ,CRespawner *> > >::_Lrotate

; 647  :                             _Pnode = _Fixnodeparent->_Left;

  002df	8b 0e		 mov	 ecx, DWORD PTR [esi]
  002e1	eb 03		 jmp	 SHORT $LN39@Extract
$LN101@Extract:

; 640  :                         _Pnode->_Color = _Red;
; 641  :                         _Fixnode       = _Fixnodeparent;
; 642  :                     } else { // must rearrange left subtree
; 643  :                         if (_Pnode->_Left->_Color == _Black) { // rotate red up from right sub-subtree

  002e3	8b 5d fc	 mov	 ebx, DWORD PTR _this$1$[ebp]
$LN39@Extract:

; 648  :                         }
; 649  : 
; 650  :                         _Pnode->_Color         = _Fixnodeparent->_Color;

  002e6	8a 46 0c	 mov	 al, BYTE PTR [esi+12]
  002e9	88 41 0c	 mov	 BYTE PTR [ecx+12], al

; 651  :                         _Fixnodeparent->_Color = _Black;

  002ec	c6 46 0c 01	 mov	 BYTE PTR [esi+12], 1

; 652  :                         _Pnode->_Left->_Color  = _Black;

  002f0	8b 01		 mov	 eax, DWORD PTR [ecx]

; 653  :                         _Rrotate(_Fixnodeparent);

  002f2	8b cb		 mov	 ecx, ebx
  002f4	56		 push	 esi
  002f5	c6 40 0c 01	 mov	 BYTE PTR [eax+12], 1
  002f9	e8 00 00 00 00	 call	 ?_Rrotate@?$_Tree_val@U?$_Tree_simple_types@U?$pair@$$CBHPAVCRespawner@@@std@@@std@@@std@@QAEXPAU?$_Tree_node@U?$pair@$$CBHPAVCRespawner@@@std@@PAX@2@@Z ; std::_Tree_val<std::_Tree_simple_types<std::pair<int const ,CRespawner *> > >::_Rrotate
$LN3@Extract:

; 654  :                         break; // tree now recolored/rebalanced
; 655  :                     }
; 656  :                 }
; 657  :             }
; 658  : 
; 659  :             _Fixnode->_Color = _Black; // stopping node is black

  002fe	8b 45 f8	 mov	 eax, DWORD PTR __Erasednode$1$[ebp]
  00301	c6 47 0c 01	 mov	 BYTE PTR [edi+12], 1
$LN25@Extract:

; 660  :         }
; 661  : 
; 662  :         if (0 < _Mysize) {

  00305	8b 4b 04	 mov	 ecx, DWORD PTR [ebx+4]
  00308	85 c9		 test	 ecx, ecx
  0030a	74 04		 je	 SHORT $LN40@Extract

; 663  :             --_Mysize;

  0030c	49		 dec	 ecx
  0030d	89 4b 04	 mov	 DWORD PTR [ebx+4], ecx
$LN40@Extract:

; 664  :         }
; 665  : 
; 666  :         return _Erasednode;
; 667  :     }

  00310	5f		 pop	 edi
  00311	5e		 pop	 esi
  00312	5b		 pop	 ebx
  00313	8b e5		 mov	 esp, ebp
  00315	5d		 pop	 ebp
  00316	c2 04 00	 ret	 4
?_Extract@?$_Tree_val@U?$_Tree_simple_types@U?$pair@$$CBHPAVCRespawner@@@std@@@std@@@std@@QAEPAU?$_Tree_node@U?$pair@$$CBHPAVCRespawner@@@std@@PAX@2@V?$_Tree_unchecked_const_iterator@V?$_Tree_val@U?$_Tree_simple_types@U?$pair@$$CBHPAVCRespawner@@@std@@@std@@@std@@U_Iterator_base0@2@@2@@Z ENDP ; std::_Tree_val<std::_Tree_simple_types<std::pair<int const ,CRespawner *> > >::_Extract
_TEXT	ENDS
; Function compile flags: /Ogtp
; File C:\Program Files\Microsoft Visual Studio\2022\Professional\VC\Tools\MSVC\14.44.35207\include\xtree
;	COMDAT ?_Rrotate@?$_Tree_val@U?$_Tree_simple_types@U?$pair@$$CBHPAVCRespawner@@@std@@@std@@@std@@QAEXPAU?$_Tree_node@U?$pair@$$CBHPAVCRespawner@@@std@@PAX@2@@Z
_TEXT	SEGMENT
__Wherenode$ = 8					; size = 4
?_Rrotate@?$_Tree_val@U?$_Tree_simple_types@U?$pair@$$CBHPAVCRespawner@@@std@@@std@@@std@@QAEXPAU?$_Tree_node@U?$pair@$$CBHPAVCRespawner@@@std@@PAX@2@@Z PROC ; std::_Tree_val<std::_Tree_simple_types<std::pair<int const ,CRespawner *> > >::_Rrotate, COMDAT
; _this$ = ecx

; 505  :     void _Rrotate(_Nodeptr _Wherenode) noexcept { // promote left node to root of subtree

  00000	55		 push	 ebp
  00001	8b ec		 mov	 ebp, esp

; 506  :         _Nodeptr _Pnode   = _Wherenode->_Left;

  00003	8b 55 08	 mov	 edx, DWORD PTR __Wherenode$[ebp]
  00006	56		 push	 esi
  00007	8b 32		 mov	 esi, DWORD PTR [edx]

; 507  :         _Wherenode->_Left = _Pnode->_Right;

  00009	8b 46 08	 mov	 eax, DWORD PTR [esi+8]
  0000c	89 02		 mov	 DWORD PTR [edx], eax

; 508  : 
; 509  :         if (!_Pnode->_Right->_Isnil) {

  0000e	8b 46 08	 mov	 eax, DWORD PTR [esi+8]
  00011	80 78 0d 00	 cmp	 BYTE PTR [eax+13], 0
  00015	75 03		 jne	 SHORT $LN2@Rrotate

; 510  :             _Pnode->_Right->_Parent = _Wherenode;

  00017	89 50 04	 mov	 DWORD PTR [eax+4], edx
$LN2@Rrotate:

; 511  :         }
; 512  : 
; 513  :         _Pnode->_Parent = _Wherenode->_Parent;

  0001a	8b 42 04	 mov	 eax, DWORD PTR [edx+4]
  0001d	89 46 04	 mov	 DWORD PTR [esi+4], eax

; 514  : 
; 515  :         if (_Wherenode == _Myhead->_Parent) {

  00020	8b 01		 mov	 eax, DWORD PTR [ecx]
  00022	3b 50 04	 cmp	 edx, DWORD PTR [eax+4]
  00025	75 0e		 jne	 SHORT $LN3@Rrotate

; 516  :             _Myhead->_Parent = _Pnode;

  00027	89 70 04	 mov	 DWORD PTR [eax+4], esi

; 521  :         }
; 522  : 
; 523  :         _Pnode->_Right      = _Wherenode;
; 524  :         _Wherenode->_Parent = _Pnode;
; 525  :     }

  0002a	89 56 08	 mov	 DWORD PTR [esi+8], edx
  0002d	89 72 04	 mov	 DWORD PTR [edx+4], esi
  00030	5e		 pop	 esi
  00031	5d		 pop	 ebp
  00032	c2 04 00	 ret	 4
$LN3@Rrotate:

; 517  :         } else if (_Wherenode == _Wherenode->_Parent->_Right) {

  00035	8b 42 04	 mov	 eax, DWORD PTR [edx+4]
  00038	3b 50 08	 cmp	 edx, DWORD PTR [eax+8]
  0003b	75 0e		 jne	 SHORT $LN5@Rrotate

; 518  :             _Wherenode->_Parent->_Right = _Pnode;

  0003d	89 70 08	 mov	 DWORD PTR [eax+8], esi

; 521  :         }
; 522  : 
; 523  :         _Pnode->_Right      = _Wherenode;
; 524  :         _Wherenode->_Parent = _Pnode;
; 525  :     }

  00040	89 56 08	 mov	 DWORD PTR [esi+8], edx
  00043	89 72 04	 mov	 DWORD PTR [edx+4], esi
  00046	5e		 pop	 esi
  00047	5d		 pop	 ebp
  00048	c2 04 00	 ret	 4
$LN5@Rrotate:

; 519  :         } else {
; 520  :             _Wherenode->_Parent->_Left = _Pnode;

  0004b	89 30		 mov	 DWORD PTR [eax], esi

; 521  :         }
; 522  : 
; 523  :         _Pnode->_Right      = _Wherenode;
; 524  :         _Wherenode->_Parent = _Pnode;
; 525  :     }

  0004d	89 56 08	 mov	 DWORD PTR [esi+8], edx
  00050	89 72 04	 mov	 DWORD PTR [edx+4], esi
  00053	5e		 pop	 esi
  00054	5d		 pop	 ebp
  00055	c2 04 00	 ret	 4
?_Rrotate@?$_Tree_val@U?$_Tree_simple_types@U?$pair@$$CBHPAVCRespawner@@@std@@@std@@@std@@QAEXPAU?$_Tree_node@U?$pair@$$CBHPAVCRespawner@@@std@@PAX@2@@Z ENDP ; std::_Tree_val<std::_Tree_simple_types<std::pair<int const ,CRespawner *> > >::_Rrotate
_TEXT	ENDS
; Function compile flags: /Ogtp
; File C:\Program Files\Microsoft Visual Studio\2022\Professional\VC\Tools\MSVC\14.44.35207\include\xtree
;	COMDAT ?_Lrotate@?$_Tree_val@U?$_Tree_simple_types@U?$pair@$$CBHPAVCRespawner@@@std@@@std@@@std@@QAEXPAU?$_Tree_node@U?$pair@$$CBHPAVCRespawner@@@std@@PAX@2@@Z
_TEXT	SEGMENT
__Wherenode$ = 8					; size = 4
?_Lrotate@?$_Tree_val@U?$_Tree_simple_types@U?$pair@$$CBHPAVCRespawner@@@std@@@std@@@std@@QAEXPAU?$_Tree_node@U?$pair@$$CBHPAVCRespawner@@@std@@PAX@2@@Z PROC ; std::_Tree_val<std::_Tree_simple_types<std::pair<int const ,CRespawner *> > >::_Lrotate, COMDAT
; _this$ = ecx

; 483  :     void _Lrotate(_Nodeptr _Wherenode) noexcept { // promote right node to root of subtree

  00000	55		 push	 ebp
  00001	8b ec		 mov	 ebp, esp

; 484  :         _Nodeptr _Pnode    = _Wherenode->_Right;

  00003	8b 55 08	 mov	 edx, DWORD PTR __Wherenode$[ebp]
  00006	56		 push	 esi
  00007	8b 72 08	 mov	 esi, DWORD PTR [edx+8]

; 485  :         _Wherenode->_Right = _Pnode->_Left;

  0000a	8b 06		 mov	 eax, DWORD PTR [esi]
  0000c	89 42 08	 mov	 DWORD PTR [edx+8], eax

; 486  : 
; 487  :         if (!_Pnode->_Left->_Isnil) {

  0000f	8b 06		 mov	 eax, DWORD PTR [esi]
  00011	80 78 0d 00	 cmp	 BYTE PTR [eax+13], 0
  00015	75 03		 jne	 SHORT $LN2@Lrotate

; 488  :             _Pnode->_Left->_Parent = _Wherenode;

  00017	89 50 04	 mov	 DWORD PTR [eax+4], edx
$LN2@Lrotate:

; 489  :         }
; 490  : 
; 491  :         _Pnode->_Parent = _Wherenode->_Parent;

  0001a	8b 42 04	 mov	 eax, DWORD PTR [edx+4]
  0001d	89 46 04	 mov	 DWORD PTR [esi+4], eax

; 492  : 
; 493  :         if (_Wherenode == _Myhead->_Parent) {

  00020	8b 01		 mov	 eax, DWORD PTR [ecx]
  00022	3b 50 04	 cmp	 edx, DWORD PTR [eax+4]
  00025	75 0d		 jne	 SHORT $LN3@Lrotate

; 494  :             _Myhead->_Parent = _Pnode;

  00027	89 70 04	 mov	 DWORD PTR [eax+4], esi

; 499  :         }
; 500  : 
; 501  :         _Pnode->_Left       = _Wherenode;
; 502  :         _Wherenode->_Parent = _Pnode;
; 503  :     }

  0002a	89 16		 mov	 DWORD PTR [esi], edx
  0002c	89 72 04	 mov	 DWORD PTR [edx+4], esi
  0002f	5e		 pop	 esi
  00030	5d		 pop	 ebp
  00031	c2 04 00	 ret	 4
$LN3@Lrotate:

; 495  :         } else if (_Wherenode == _Wherenode->_Parent->_Left) {

  00034	8b 42 04	 mov	 eax, DWORD PTR [edx+4]
  00037	3b 10		 cmp	 edx, DWORD PTR [eax]
  00039	75 0c		 jne	 SHORT $LN5@Lrotate

; 496  :             _Wherenode->_Parent->_Left = _Pnode;

  0003b	89 30		 mov	 DWORD PTR [eax], esi

; 499  :         }
; 500  : 
; 501  :         _Pnode->_Left       = _Wherenode;
; 502  :         _Wherenode->_Parent = _Pnode;
; 503  :     }

  0003d	89 16		 mov	 DWORD PTR [esi], edx
  0003f	89 72 04	 mov	 DWORD PTR [edx+4], esi
  00042	5e		 pop	 esi
  00043	5d		 pop	 ebp
  00044	c2 04 00	 ret	 4
$LN5@Lrotate:

; 497  :         } else {
; 498  :             _Wherenode->_Parent->_Right = _Pnode;

  00047	89 70 08	 mov	 DWORD PTR [eax+8], esi

; 499  :         }
; 500  : 
; 501  :         _Pnode->_Left       = _Wherenode;
; 502  :         _Wherenode->_Parent = _Pnode;
; 503  :     }

  0004a	89 16		 mov	 DWORD PTR [esi], edx
  0004c	89 72 04	 mov	 DWORD PTR [edx+4], esi
  0004f	5e		 pop	 esi
  00050	5d		 pop	 ebp
  00051	c2 04 00	 ret	 4
?_Lrotate@?$_Tree_val@U?$_Tree_simple_types@U?$pair@$$CBHPAVCRespawner@@@std@@@std@@@std@@QAEXPAU?$_Tree_node@U?$pair@$$CBHPAVCRespawner@@@std@@PAX@2@@Z ENDP ; std::_Tree_val<std::_Tree_simple_types<std::pair<int const ,CRespawner *> > >::_Lrotate
_TEXT	ENDS
; Function compile flags: /Ogtp
; File C:\Program Files\Microsoft Visual Studio\2022\Professional\VC\Tools\MSVC\14.44.35207\include\xtree
; File C:\Program Files\Microsoft Visual Studio\2022\Professional\VC\Tools\MSVC\14.44.35207\include\utility
; File C:\Program Files\Microsoft Visual Studio\2022\Professional\VC\Tools\MSVC\14.44.35207\include\xmemory
; File C:\Program Files\Microsoft Visual Studio\2022\Professional\VC\Tools\MSVC\14.44.35207\include\xtree
; File C:\Program Files\Microsoft Visual Studio\2022\Professional\VC\Tools\MSVC\14.44.35207\include\xmemory
; File C:\Program Files\Microsoft Visual Studio\2022\Professional\VC\Tools\MSVC\14.44.35207\include\xtree
;	COMDAT ??1?$_Tree@V?$_Tmap_traits@HPAVCRespawner@@U?$less@H@std@@V?$allocator@U?$pair@$$CBHPAVCRespawner@@@std@@@3@$0A@@std@@@std@@QAE@XZ
_TEXT	SEGMENT
??1?$_Tree@V?$_Tmap_traits@HPAVCRespawner@@U?$less@H@std@@V?$allocator@U?$pair@$$CBHPAVCRespawner@@@std@@@3@$0A@@std@@@std@@QAE@XZ PROC ; std::_Tree<std::_Tmap_traits<int,CRespawner *,std::less<int>,std::allocator<std::pair<int const ,CRespawner *> >,0> >::~_Tree<std::_Tmap_traits<int,CRespawner *,std::less<int>,std::allocator<std::pair<int const ,CRespawner *> >,0> >, COMDAT
; _this$ = ecx

; 1095 :     ~_Tree() noexcept {

  00000	56		 push	 esi
  00001	57		 push	 edi
  00002	8b f9		 mov	 edi, ecx

; 777  :         _Erase_tree(_Al, _Myhead->_Parent);

  00004	8b 37		 mov	 esi, DWORD PTR [edi]
  00006	8b 76 04	 mov	 esi, DWORD PTR [esi+4]

; 768  :         while (!_Rootnode->_Isnil) { // free subtrees, then node

  00009	80 7e 0d 00	 cmp	 BYTE PTR [esi+13], 0
  0000d	75 21		 jne	 SHORT $LN61@Tree
  0000f	90		 npad	 1
$LL8@Tree:

; 769  :             _Erase_tree(_Al, _Rootnode->_Right);

  00010	ff 76 08	 push	 DWORD PTR [esi+8]
  00013	8b cf		 mov	 ecx, edi
  00015	57		 push	 edi
  00016	e8 00 00 00 00	 call	 ??$_Erase_tree@V?$allocator@U?$_Tree_node@U?$pair@$$CBHPAVCRespawner@@@std@@PAX@std@@@std@@@?$_Tree_val@U?$_Tree_simple_types@U?$pair@$$CBHPAVCRespawner@@@std@@@std@@@std@@QAEXAAV?$allocator@U?$_Tree_node@U?$pair@$$CBHPAVCRespawner@@@std@@PAX@std@@@1@PAU?$_Tree_node@U?$pair@$$CBHPAVCRespawner@@@std@@PAX@1@@Z ; std::_Tree_val<std::_Tree_simple_types<std::pair<int const ,CRespawner *> > >::_Erase_tree<std::allocator<std::_Tree_node<std::pair<int const ,CRespawner *>,void *> > >
; File C:\Program Files\Microsoft Visual Studio\2022\Professional\VC\Tools\MSVC\14.44.35207\include\utility

; 773  :     _Ty _Old_val = static_cast<_Ty&&>(_Val);

  0001b	8b c6		 mov	 eax, esi

; 774  :     _Val         = static_cast<_Other&&>(_New_val);

  0001d	8b 36		 mov	 esi, DWORD PTR [esi]
; File C:\Program Files\Microsoft Visual Studio\2022\Professional\VC\Tools\MSVC\14.44.35207\include\xmemory

; 289  :         ::operator delete(_Ptr, _Bytes);

  0001f	6a 18		 push	 24			; 00000018H
  00021	50		 push	 eax
  00022	e8 00 00 00 00	 call	 ??3@YAXPAXI@Z		; operator delete
  00027	83 c4 08	 add	 esp, 8
; File C:\Program Files\Microsoft Visual Studio\2022\Professional\VC\Tools\MSVC\14.44.35207\include\xtree

; 768  :         while (!_Rootnode->_Isnil) { // free subtrees, then node

  0002a	80 7e 0d 00	 cmp	 BYTE PTR [esi+13], 0
  0002e	74 e0		 je	 SHORT $LL8@Tree
$LN61@Tree:
; File C:\Program Files\Microsoft Visual Studio\2022\Professional\VC\Tools\MSVC\14.44.35207\include\xmemory

; 289  :         ::operator delete(_Ptr, _Bytes);

  00030	6a 18		 push	 24			; 00000018H
  00032	ff 37		 push	 DWORD PTR [edi]
  00034	e8 00 00 00 00	 call	 ??3@YAXPAXI@Z		; operator delete
  00039	83 c4 08	 add	 esp, 8
  0003c	5f		 pop	 edi
  0003d	5e		 pop	 esi
; File C:\Program Files\Microsoft Visual Studio\2022\Professional\VC\Tools\MSVC\14.44.35207\include\xtree

; 1102 :     }

  0003e	c3		 ret	 0
??1?$_Tree@V?$_Tmap_traits@HPAVCRespawner@@U?$less@H@std@@V?$allocator@U?$pair@$$CBHPAVCRespawner@@@std@@@3@$0A@@std@@@std@@QAE@XZ ENDP ; std::_Tree<std::_Tmap_traits<int,CRespawner *,std::less<int>,std::allocator<std::pair<int const ,CRespawner *> >,0> >::~_Tree<std::_Tmap_traits<int,CRespawner *,std::less<int>,std::allocator<std::pair<int const ,CRespawner *> >,0> >
_TEXT	ENDS
; Function compile flags: /Ogtp
; File C:\IAGOS\server\v18\Source\Source\_Common\Respawn.cpp
; File C:\Program Files\Microsoft Visual Studio\2022\Professional\VC\Tools\MSVC\14.44.35207\include\xtree
; File C:\IAGOS\server\v18\Source\Source\_Common\Respawn.cpp
; File C:\Program Files\Microsoft Visual Studio\2022\Professional\VC\Tools\MSVC\14.44.35207\include\xtree
; File C:\IAGOS\server\v18\Source\Source\_Common\Respawn.cpp
; File C:\Program Files\Microsoft Visual Studio\2022\Professional\VC\Tools\MSVC\14.44.35207\include\xtree
; File C:\IAGOS\server\v18\Source\Source\_Common\Respawn.cpp
; File C:\Program Files\Microsoft Visual Studio\2022\Professional\VC\Tools\MSVC\14.44.35207\include\xtree
; File C:\Program Files\Microsoft Visual Studio\2022\Professional\VC\Tools\MSVC\14.44.35207\include\utility
; File C:\Program Files\Microsoft Visual Studio\2022\Professional\VC\Tools\MSVC\14.44.35207\include\xmemory
; File C:\Program Files\Microsoft Visual Studio\2022\Professional\VC\Tools\MSVC\14.44.35207\include\xtree
; File C:\IAGOS\server\v18\Source\Source\_Common\Respawn.cpp
;	COMDAT ?Clear@CLayerdRespawner@@AAEXXZ
_TEXT	SEGMENT
_i$1 = -4						; size = 4
?Clear@CLayerdRespawner@@AAEXXZ PROC			; CLayerdRespawner::Clear, COMDAT
; _this$ = ecx

; 674  : {

  00000	55		 push	 ebp
  00001	8b ec		 mov	 ebp, esp
  00003	51		 push	 ecx
  00004	53		 push	 ebx
  00005	56		 push	 esi
; File C:\Program Files\Microsoft Visual Studio\2022\Professional\VC\Tools\MSVC\14.44.35207\include\xtree

; 1142 :         return iterator(_Scary->_Myhead->_Left, _Scary);

  00006	8b 71 2c	 mov	 esi, DWORD PTR [ecx+44]
  00009	8d 59 2c	 lea	 ebx, DWORD PTR [ecx+44]
; File C:\IAGOS\server\v18\Source\Source\_Common\Respawn.cpp

; 674  : {

  0000c	57		 push	 edi
; File C:\Program Files\Microsoft Visual Studio\2022\Professional\VC\Tools\MSVC\14.44.35207\include\xtree

; 37   :     _Tree_unchecked_const_iterator(_Nodeptr _Pnode, const _Mytree* _Plist) noexcept : _Ptr(_Pnode) {

  0000d	8b 06		 mov	 eax, DWORD PTR [esi]
  0000f	89 45 fc	 mov	 DWORD PTR _i$1[ebp], eax

; 237  :         return !(*this == _Right);

  00012	3b c6		 cmp	 eax, esi
; File C:\IAGOS\server\v18\Source\Source\_Common\Respawn.cpp

; 675  : 	for( MRP::iterator i = m_mapRespawners.begin(); i != m_mapRespawners.end(); ++i )

  00014	74 1e		 je	 SHORT $LN3@Clear
$LL4@Clear:

; 676  : 	{
; 677  : 		CRespawner* pRespawner	= i->second;

  00016	8b 48 14	 mov	 ecx, DWORD PTR [eax+20]

; 678  : 		SAFE_DELETE( pRespawner );

  00019	85 c9		 test	 ecx, ecx
  0001b	74 06		 je	 SHORT $LN2@Clear
  0001d	8b 01		 mov	 eax, DWORD PTR [ecx]
  0001f	6a 01		 push	 1
  00021	ff 10		 call	 DWORD PTR [eax]
$LN2@Clear:
; File C:\Program Files\Microsoft Visual Studio\2022\Professional\VC\Tools\MSVC\14.44.35207\include\xtree

; 198  :         _Mybase::operator++();

  00023	8d 4d fc	 lea	 ecx, DWORD PTR _i$1[ebp]
  00026	e8 00 00 00 00	 call	 ??E?$_Tree_unchecked_const_iterator@V?$_Tree_val@U?$_Tree_simple_types@U?$pair@$$CBHPAVCRespawner@@@std@@@std@@@std@@U_Iterator_base0@2@@std@@QAEAAV01@XZ ; std::_Tree_unchecked_const_iterator<std::_Tree_val<std::_Tree_simple_types<std::pair<int const ,CRespawner *> > >,std::_Iterator_base0>::operator++

; 37   :     _Tree_unchecked_const_iterator(_Nodeptr _Pnode, const _Mytree* _Plist) noexcept : _Ptr(_Pnode) {

  0002b	8b 33		 mov	 esi, DWORD PTR [ebx]

; 237  :         return !(*this == _Right);

  0002d	8b 45 fc	 mov	 eax, DWORD PTR _i$1[ebp]
  00030	3b c6		 cmp	 eax, esi
; File C:\IAGOS\server\v18\Source\Source\_Common\Respawn.cpp

; 675  : 	for( MRP::iterator i = m_mapRespawners.begin(); i != m_mapRespawners.end(); ++i )

  00032	75 e2		 jne	 SHORT $LL4@Clear
$LN3@Clear:
; File C:\Program Files\Microsoft Visual Studio\2022\Professional\VC\Tools\MSVC\14.44.35207\include\xtree

; 1374 :         _Scary->_Erase_tree(_Getal(), _Head->_Parent);

  00034	8b 7e 04	 mov	 edi, DWORD PTR [esi+4]

; 768  :         while (!_Rootnode->_Isnil) { // free subtrees, then node

  00037	80 7f 0d 00	 cmp	 BYTE PTR [edi+13], 0
  0003b	75 23		 jne	 SHORT $LN94@Clear
  0003d	0f 1f 00	 npad	 3
$LL58@Clear:

; 769  :             _Erase_tree(_Al, _Rootnode->_Right);

  00040	ff 77 08	 push	 DWORD PTR [edi+8]
  00043	8b cb		 mov	 ecx, ebx
  00045	53		 push	 ebx
  00046	e8 00 00 00 00	 call	 ??$_Erase_tree@V?$allocator@U?$_Tree_node@U?$pair@$$CBHPAVCRespawner@@@std@@PAX@std@@@std@@@?$_Tree_val@U?$_Tree_simple_types@U?$pair@$$CBHPAVCRespawner@@@std@@@std@@@std@@QAEXAAV?$allocator@U?$_Tree_node@U?$pair@$$CBHPAVCRespawner@@@std@@PAX@std@@@1@PAU?$_Tree_node@U?$pair@$$CBHPAVCRespawner@@@std@@PAX@1@@Z ; std::_Tree_val<std::_Tree_simple_types<std::pair<int const ,CRespawner *> > >::_Erase_tree<std::allocator<std::_Tree_node<std::pair<int const ,CRespawner *>,void *> > >
; File C:\Program Files\Microsoft Visual Studio\2022\Professional\VC\Tools\MSVC\14.44.35207\include\utility

; 773  :     _Ty _Old_val = static_cast<_Ty&&>(_Val);

  0004b	8b c7		 mov	 eax, edi

; 774  :     _Val         = static_cast<_Other&&>(_New_val);

  0004d	8b 3f		 mov	 edi, DWORD PTR [edi]
; File C:\Program Files\Microsoft Visual Studio\2022\Professional\VC\Tools\MSVC\14.44.35207\include\xmemory

; 289  :         ::operator delete(_Ptr, _Bytes);

  0004f	6a 18		 push	 24			; 00000018H
  00051	50		 push	 eax
  00052	e8 00 00 00 00	 call	 ??3@YAXPAXI@Z		; operator delete
  00057	83 c4 08	 add	 esp, 8
; File C:\Program Files\Microsoft Visual Studio\2022\Professional\VC\Tools\MSVC\14.44.35207\include\xtree

; 768  :         while (!_Rootnode->_Isnil) { // free subtrees, then node

  0005a	80 7f 0d 00	 cmp	 BYTE PTR [edi+13], 0
  0005e	74 e0		 je	 SHORT $LL58@Clear
$LN94@Clear:

; 1378 :         _Scary->_Mysize = 0;

  00060	5f		 pop	 edi
  00061	89 76 04	 mov	 DWORD PTR [esi+4], esi
  00064	89 36		 mov	 DWORD PTR [esi], esi
  00066	89 76 08	 mov	 DWORD PTR [esi+8], esi
  00069	5e		 pop	 esi
  0006a	c7 43 04 00 00
	00 00		 mov	 DWORD PTR [ebx+4], 0
  00071	5b		 pop	 ebx
; File C:\IAGOS\server\v18\Source\Source\_Common\Respawn.cpp

; 681  : }

  00072	8b e5		 mov	 esp, ebp
  00074	5d		 pop	 ebp
  00075	c3		 ret	 0
?Clear@CLayerdRespawner@@AAEXXZ ENDP			; CLayerdRespawner::Clear
_TEXT	ENDS
; Function compile flags: /Ogtp
; File C:\IAGOS\server\v18\Source\Source\_Common\Respawn.cpp
; File C:\Program Files\Microsoft Visual Studio\2022\Professional\VC\Tools\MSVC\14.44.35207\include\xtree
; File C:\IAGOS\server\v18\Source\Source\_Common\Respawn.cpp
; File C:\Program Files\Microsoft Visual Studio\2022\Professional\VC\Tools\MSVC\14.44.35207\include\xtree
; File C:\Program Files\Microsoft Visual Studio\2022\Professional\VC\Tools\MSVC\14.44.35207\include\type_traits
; File C:\Program Files\Microsoft Visual Studio\2022\Professional\VC\Tools\MSVC\14.44.35207\include\xtree
; File C:\IAGOS\server\v18\Source\Source\_Common\Respawn.cpp
; File C:\Program Files\Microsoft Visual Studio\2022\Professional\VC\Tools\MSVC\14.44.35207\include\xtree
; File C:\Program Files\Microsoft Visual Studio\2022\Professional\VC\Tools\MSVC\14.44.35207\include\xmemory
; File C:\IAGOS\server\v18\Source\Source\_Common\Respawn.cpp
;	COMDAT ?Release@CLayerdRespawner@@QAEXH@Z
_TEXT	SEGMENT
__Loc$1 = -12						; size = 12
_nLayer$ = 8						; size = 4
?Release@CLayerdRespawner@@QAEXH@Z PROC			; CLayerdRespawner::Release, COMDAT
; _this$ = ecx

; 732  : {

  00000	55		 push	 ebp
  00001	8b ec		 mov	 ebp, esp
  00003	83 ec 0c	 sub	 esp, 12			; 0000000cH
  00006	56		 push	 esi
  00007	57		 push	 edi
; File C:\Program Files\Microsoft Visual Studio\2022\Professional\VC\Tools\MSVC\14.44.35207\include\xtree

; 1384 :         const _Tree_find_result<_Nodeptr> _Loc = _Find_lower_bound(_Keyval);

  00008	8d 45 08	 lea	 eax, DWORD PTR _nLayer$[ebp]
  0000b	50		 push	 eax
; File C:\IAGOS\server\v18\Source\Source\_Common\Respawn.cpp

; 733  : 	MRP::iterator i = m_mapRespawners.find( nLayer );

  0000c	8d 79 2c	 lea	 edi, DWORD PTR [ecx+44]
; File C:\Program Files\Microsoft Visual Studio\2022\Professional\VC\Tools\MSVC\14.44.35207\include\xtree

; 1384 :         const _Tree_find_result<_Nodeptr> _Loc = _Find_lower_bound(_Keyval);

  0000f	8d 45 f4	 lea	 eax, DWORD PTR __Loc$1[ebp]
  00012	8b cf		 mov	 ecx, edi
  00014	50		 push	 eax
  00015	e8 00 00 00 00	 call	 ??$_Find_lower_bound@H@?$_Tree@V?$_Tmap_traits@HPAVCRespawner@@U?$less@H@std@@V?$allocator@U?$pair@$$CBHPAVCRespawner@@@std@@@3@$0A@@std@@@std@@IBE?AU?$_Tree_find_result@PAU?$_Tree_node@U?$pair@$$CBHPAVCRespawner@@@std@@PAX@std@@@1@ABH@Z ; std::_Tree<std::_Tmap_traits<int,CRespawner *,std::less<int>,std::allocator<std::pair<int const ,CRespawner *> >,0> >::_Find_lower_bound<int>

; 1624 :         return !_Bound->_Isnil && !_DEBUG_LT_PRED(_Getcomp(), _Keyval, _Traits::_Kfn(_Bound->_Myval));

  0001a	8b 75 fc	 mov	 esi, DWORD PTR __Loc$1[ebp+8]
  0001d	80 7e 0d 00	 cmp	 BYTE PTR [esi+13], 0
  00021	75 2c		 jne	 SHORT $LN100@Release
; File C:\Program Files\Microsoft Visual Studio\2022\Professional\VC\Tools\MSVC\14.44.35207\include\type_traits

; 2380 :         return _Left < _Right;

  00023	8b 45 08	 mov	 eax, DWORD PTR _nLayer$[ebp]
  00026	3b 46 10	 cmp	 eax, DWORD PTR [esi+16]
; File C:\Program Files\Microsoft Visual Studio\2022\Professional\VC\Tools\MSVC\14.44.35207\include\xtree

; 1624 :         return !_Bound->_Isnil && !_DEBUG_LT_PRED(_Getcomp(), _Keyval, _Traits::_Kfn(_Bound->_Myval));

  00029	7c 24		 jl	 SHORT $LN100@Release

; 37   :     _Tree_unchecked_const_iterator(_Nodeptr _Pnode, const _Mytree* _Plist) noexcept : _Ptr(_Pnode) {

  0002b	3b 37		 cmp	 esi, DWORD PTR [edi]
; File C:\IAGOS\server\v18\Source\Source\_Common\Respawn.cpp

; 734  : 	if( i != m_mapRespawners.end() )

  0002d	74 20		 je	 SHORT $LN100@Release

; 735  : 	{
; 736  : 		CRespawner* pRespawner	= i->second;

  0002f	8b 4e 14	 mov	 ecx, DWORD PTR [esi+20]

; 737  : 		SAFE_DELETE( pRespawner );

  00032	85 c9		 test	 ecx, ecx
  00034	74 06		 je	 SHORT $LN5@Release
  00036	8b 01		 mov	 eax, DWORD PTR [ecx]
  00038	6a 01		 push	 1
  0003a	ff 10		 call	 DWORD PTR [eax]
$LN5@Release:
; File C:\Program Files\Microsoft Visual Studio\2022\Professional\VC\Tools\MSVC\14.44.35207\include\xtree

; 1303 :         _Nodeptr _Erasednode = _Scary->_Extract(_Where); // node to erase

  0003c	56		 push	 esi
  0003d	8b cf		 mov	 ecx, edi
  0003f	e8 00 00 00 00	 call	 ?_Extract@?$_Tree_val@U?$_Tree_simple_types@U?$pair@$$CBHPAVCRespawner@@@std@@@std@@@std@@QAEPAU?$_Tree_node@U?$pair@$$CBHPAVCRespawner@@@std@@PAX@2@V?$_Tree_unchecked_const_iterator@V?$_Tree_val@U?$_Tree_simple_types@U?$pair@$$CBHPAVCRespawner@@@std@@@std@@@std@@U_Iterator_base0@2@@2@@Z ; std::_Tree_val<std::_Tree_simple_types<std::pair<int const ,CRespawner *> > >::_Extract
; File C:\Program Files\Microsoft Visual Studio\2022\Professional\VC\Tools\MSVC\14.44.35207\include\xmemory

; 289  :         ::operator delete(_Ptr, _Bytes);

  00044	6a 18		 push	 24			; 00000018H
  00046	50		 push	 eax
  00047	e8 00 00 00 00	 call	 ??3@YAXPAXI@Z		; operator delete
  0004c	83 c4 08	 add	 esp, 8
$LN100@Release:
  0004f	5f		 pop	 edi
; File C:\IAGOS\server\v18\Source\Source\_Common\Respawn.cpp

; 740  : }

  00050	5e		 pop	 esi
  00051	8b e5		 mov	 esp, ebp
  00053	5d		 pop	 ebp
  00054	c2 04 00	 ret	 4
?Release@CLayerdRespawner@@QAEXH@Z ENDP			; CLayerdRespawner::Release
_TEXT	ENDS
; Function compile flags: /Ogtp
; File C:\IAGOS\server\v18\Source\Source\_Common\Respawn.cpp
; File C:\Program Files\Microsoft Visual Studio\2022\Professional\VC\Tools\MSVC\14.44.35207\include\xtree
; File C:\IAGOS\server\v18\Source\Source\_Common\Respawn.cpp
; File C:\Program Files\Microsoft Visual Studio\2022\Professional\VC\Tools\MSVC\14.44.35207\include\xtree
; File C:\Program Files\Microsoft Visual Studio\2022\Professional\VC\Tools\MSVC\14.44.35207\include\type_traits
; File C:\Program Files\Microsoft Visual Studio\2022\Professional\VC\Tools\MSVC\14.44.35207\include\xtree
; File C:\IAGOS\server\v18\Source\Source\_Common\Respawn.cpp
; File C:\Program Files\Microsoft Visual Studio\2022\Professional\VC\Tools\MSVC\14.44.35207\include\xtree
; File C:\Program Files\Microsoft Visual Studio\2022\Professional\VC\Tools\MSVC\14.44.35207\include\utility
; File C:\Program Files\Microsoft Visual Studio\2022\Professional\VC\Tools\MSVC\14.44.35207\include\xtree
; File C:\IAGOS\server\v18\Source\Source\_Common\Respawn.cpp
; File C:\Program Files\Microsoft Visual Studio\2022\Professional\VC\Tools\MSVC\14.44.35207\include\xtree
; File C:\Program Files\Microsoft Visual Studio\2022\Professional\VC\Tools\MSVC\14.44.35207\include\utility
; File C:\Program Files\Microsoft Visual Studio\2022\Professional\VC\Tools\MSVC\14.44.35207\include\xtree
; File C:\Program Files\Microsoft Visual Studio\2022\Professional\VC\Tools\MSVC\14.44.35207\include\type_traits
; File C:\Program Files\Microsoft Visual Studio\2022\Professional\VC\Tools\MSVC\14.44.35207\include\xtree
; File C:\Program Files\Microsoft Visual Studio\2022\Professional\VC\Tools\MSVC\14.44.35207\include\xmemory
; File C:\Program Files\Microsoft Visual Studio\2022\Professional\VC\Tools\MSVC\14.44.35207\include\xtree
; File C:\Program Files\Microsoft Visual Studio\2022\Professional\VC\Tools\MSVC\14.44.35207\include\xmemory
; File C:\Program Files\Microsoft Visual Studio\2022\Professional\VC\Tools\MSVC\14.44.35207\include\xtree
; File C:\Program Files\Microsoft Visual Studio\2022\Professional\VC\Tools\MSVC\14.44.35207\include\xmemory
; File C:\Program Files\Microsoft Visual Studio\2022\Professional\VC\Tools\MSVC\14.44.35207\include\xtree
; File C:\IAGOS\server\v18\Source\Source\_Common\Respawn.cpp
; File C:\Program Files\Microsoft Visual Studio\2022\Professional\VC\Tools\MSVC\14.44.35207\include\xtree
; File C:\IAGOS\server\v18\Source\Source\_Common\Respawn.cpp
;	COMDAT ?Expand@CLayerdRespawner@@QAEXH@Z
_TEXT	SEGMENT
$T2 = -44						; size = 12
__Loc$3 = -32						; size = 12
__Loc$4 = -32						; size = 12
$T5 = -20						; size = 8
$T6 = -20						; size = 8
__$EHRec$ = -12						; size = 12
_nLayer$ = 8						; size = 4
$T7 = 8							; size = 4
$T8 = 8							; size = 4
?Expand@CLayerdRespawner@@QAEXH@Z PROC			; CLayerdRespawner::Expand, COMDAT
; _this$ = ecx

; 722  : {

  00000	55		 push	 ebp
  00001	8b ec		 mov	 ebp, esp
  00003	6a ff		 push	 -1
  00005	68 00 00 00 00	 push	 __ehhandler$?Expand@CLayerdRespawner@@QAEXH@Z
  0000a	64 a1 00 00 00
	00		 mov	 eax, DWORD PTR fs:0
  00010	50		 push	 eax
  00011	83 ec 20	 sub	 esp, 32			; 00000020H
  00014	53		 push	 ebx
  00015	56		 push	 esi
  00016	57		 push	 edi
  00017	a1 00 00 00 00	 mov	 eax, DWORD PTR ___security_cookie
  0001c	33 c5		 xor	 eax, ebp
  0001e	50		 push	 eax
  0001f	8d 45 f4	 lea	 eax, DWORD PTR __$EHRec$[ebp]
  00022	64 a3 00 00 00
	00		 mov	 DWORD PTR fs:0, eax
  00028	8b f1		 mov	 esi, ecx
; File C:\Program Files\Microsoft Visual Studio\2022\Professional\VC\Tools\MSVC\14.44.35207\include\xtree

; 1384 :         const _Tree_find_result<_Nodeptr> _Loc = _Find_lower_bound(_Keyval);

  0002a	8d 45 08	 lea	 eax, DWORD PTR _nLayer$[ebp]
  0002d	50		 push	 eax
  0002e	8d 45 e0	 lea	 eax, DWORD PTR __Loc$3[ebp]
; File C:\IAGOS\server\v18\Source\Source\_Common\Respawn.cpp

; 723  : 	MRP::iterator i = m_mapRespawners.find( nLayer );

  00031	8d 7e 2c	 lea	 edi, DWORD PTR [esi+44]
; File C:\Program Files\Microsoft Visual Studio\2022\Professional\VC\Tools\MSVC\14.44.35207\include\xtree

; 1384 :         const _Tree_find_result<_Nodeptr> _Loc = _Find_lower_bound(_Keyval);

  00034	50		 push	 eax
  00035	8b cf		 mov	 ecx, edi
  00037	e8 00 00 00 00	 call	 ??$_Find_lower_bound@H@?$_Tree@V?$_Tmap_traits@HPAVCRespawner@@U?$less@H@std@@V?$allocator@U?$pair@$$CBHPAVCRespawner@@@std@@@3@$0A@@std@@@std@@IBE?AU?$_Tree_find_result@PAU?$_Tree_node@U?$pair@$$CBHPAVCRespawner@@@std@@PAX@std@@@1@ABH@Z ; std::_Tree<std::_Tmap_traits<int,CRespawner *,std::less<int>,std::allocator<std::pair<int const ,CRespawner *> >,0> >::_Find_lower_bound<int>

; 1624 :         return !_Bound->_Isnil && !_DEBUG_LT_PRED(_Getcomp(), _Keyval, _Traits::_Kfn(_Bound->_Myval));

  0003c	8b 45 e8	 mov	 eax, DWORD PTR __Loc$3[ebp+8]
  0003f	8b 5d 08	 mov	 ebx, DWORD PTR _nLayer$[ebp]
  00042	80 78 0d 00	 cmp	 BYTE PTR [eax+13], 0
  00046	75 0d		 jne	 SHORT $LN147@Expand
; File C:\Program Files\Microsoft Visual Studio\2022\Professional\VC\Tools\MSVC\14.44.35207\include\type_traits

; 2380 :         return _Left < _Right;

  00048	3b 58 10	 cmp	 ebx, DWORD PTR [eax+16]
; File C:\Program Files\Microsoft Visual Studio\2022\Professional\VC\Tools\MSVC\14.44.35207\include\xtree

; 1624 :         return !_Bound->_Isnil && !_DEBUG_LT_PRED(_Getcomp(), _Keyval, _Traits::_Kfn(_Bound->_Myval));

  0004b	7c 08		 jl	 SHORT $LN147@Expand

; 37   :     _Tree_unchecked_const_iterator(_Nodeptr _Pnode, const _Mytree* _Plist) noexcept : _Ptr(_Pnode) {

  0004d	3b 07		 cmp	 eax, DWORD PTR [edi]
; File C:\IAGOS\server\v18\Source\Source\_Common\Respawn.cpp

; 724  : 	if( i == m_mapRespawners.end() )

  0004f	0f 85 a8 00 00
	00		 jne	 $LN129@Expand
$LN147@Expand:

; 726  : 		CRespawner* pRespawner	= new CRespawner( m_proto );

  00055	6a 28		 push	 40			; 00000028H
  00057	e8 00 00 00 00	 call	 ??2@YAPAXI@Z		; operator new
  0005c	83 c4 04	 add	 esp, 4
  0005f	89 45 08	 mov	 DWORD PTR $T7[ebp], eax
  00062	c7 45 fc 00 00
	00 00		 mov	 DWORD PTR __$EHRec$[ebp+8], 0
  00069	85 c0		 test	 eax, eax
  0006b	74 0d		 je	 SHORT $LN4@Expand
  0006d	8d 4e 04	 lea	 ecx, DWORD PTR [esi+4]
  00070	51		 push	 ecx
  00071	8b c8		 mov	 ecx, eax
  00073	e8 00 00 00 00	 call	 ??0CRespawner@@QAE@ABV0@@Z ; CRespawner::CRespawner
  00078	eb 02		 jmp	 SHORT $LN150@Expand
$LN4@Expand:
  0007a	33 c0		 xor	 eax, eax
$LN150@Expand:
  0007c	89 45 08	 mov	 DWORD PTR $T8[ebp], eax
; File C:\Program Files\Microsoft Visual Studio\2022\Professional\VC\Tools\MSVC\14.44.35207\include\xtree

; 1017 :             _Loc                = _Find_lower_bound(_Keyval);

  0007f	8b cf		 mov	 ecx, edi
; File C:\Program Files\Microsoft Visual Studio\2022\Professional\VC\Tools\MSVC\14.44.35207\include\utility

; 274  :         : first(_STD forward<_Other1>(_Val1)), second(_STD forward<_Other2>(_Val2)) {

  00081	89 45 f0	 mov	 DWORD PTR $T5[ebp+4], eax
; File C:\Program Files\Microsoft Visual Studio\2022\Professional\VC\Tools\MSVC\14.44.35207\include\xtree

; 1017 :             _Loc                = _Find_lower_bound(_Keyval);

  00084	8d 45 ec	 lea	 eax, DWORD PTR $T5[ebp]
  00087	50		 push	 eax
  00088	8d 45 d4	 lea	 eax, DWORD PTR $T2[ebp]
; File C:\IAGOS\server\v18\Source\Source\_Common\Respawn.cpp

; 726  : 		CRespawner* pRespawner	= new CRespawner( m_proto );

  0008b	c7 45 fc ff ff
	ff ff		 mov	 DWORD PTR __$EHRec$[ebp+8], -1
; File C:\Program Files\Microsoft Visual Studio\2022\Professional\VC\Tools\MSVC\14.44.35207\include\xtree

; 1017 :             _Loc                = _Find_lower_bound(_Keyval);

  00092	50		 push	 eax
; File C:\Program Files\Microsoft Visual Studio\2022\Professional\VC\Tools\MSVC\14.44.35207\include\utility

; 274  :         : first(_STD forward<_Other1>(_Val1)), second(_STD forward<_Other2>(_Val2)) {

  00093	89 5d ec	 mov	 DWORD PTR $T5[ebp], ebx
; File C:\Program Files\Microsoft Visual Studio\2022\Professional\VC\Tools\MSVC\14.44.35207\include\xtree

; 1017 :             _Loc                = _Find_lower_bound(_Keyval);

  00096	e8 00 00 00 00	 call	 ??$_Find_lower_bound@H@?$_Tree@V?$_Tmap_traits@HPAVCRespawner@@U?$less@H@std@@V?$allocator@U?$pair@$$CBHPAVCRespawner@@@std@@@3@$0A@@std@@@std@@IBE?AU?$_Tree_find_result@PAU?$_Tree_node@U?$pair@$$CBHPAVCRespawner@@@std@@PAX@std@@@1@ABH@Z ; std::_Tree<std::_Tmap_traits<int,CRespawner *,std::less<int>,std::allocator<std::pair<int const ,CRespawner *> >,0> >::_Find_lower_bound<int>
  0009b	f3 0f 7e 00	 movq	 xmm0, QWORD PTR [eax]
  0009f	8b 40 08	 mov	 eax, DWORD PTR [eax+8]
  000a2	66 0f d6 45 e0	 movq	 QWORD PTR __Loc$4[ebp], xmm0

; 1624 :         return !_Bound->_Isnil && !_DEBUG_LT_PRED(_Getcomp(), _Keyval, _Traits::_Kfn(_Bound->_Myval));

  000a7	80 78 0d 00	 cmp	 BYTE PTR [eax+13], 0
  000ab	75 05		 jne	 SHORT $LN54@Expand
; File C:\Program Files\Microsoft Visual Studio\2022\Professional\VC\Tools\MSVC\14.44.35207\include\type_traits

; 2380 :         return _Left < _Right;

  000ad	3b 58 10	 cmp	 ebx, DWORD PTR [eax+16]
; File C:\Program Files\Microsoft Visual Studio\2022\Professional\VC\Tools\MSVC\14.44.35207\include\xtree

; 1624 :         return !_Bound->_Isnil && !_DEBUG_LT_PRED(_Getcomp(), _Keyval, _Traits::_Kfn(_Bound->_Myval));

  000b0	7d 4b		 jge	 SHORT $LN129@Expand
$LN54@Expand:

; 1648 :         if (max_size() == _Get_scary()->_Mysize) {

  000b2	81 7f 04 aa aa
	aa 0a		 cmp	 DWORD PTR [edi+4], 178956970 ; 0aaaaaaaH
  000b9	74 56		 je	 SHORT $LN152@Expand

; 1023 :             _Inserted = _Tree_temp_node<_Alnode>(_Getal(), _Scary->_Myhead, _STD forward<_Valtys>(_Vals)...)._Release();

  000bb	8b 37		 mov	 esi, DWORD PTR [edi]
; File C:\Program Files\Microsoft Visual Studio\2022\Professional\VC\Tools\MSVC\14.44.35207\include\xmemory

; 1160 :     _CONSTEXPR20 explicit _Alloc_construct_ptr(_Alloc& _Al_) : _Al(_Al_), _Ptr(nullptr) {}

  000bd	89 7d ec	 mov	 DWORD PTR $T6[ebp], edi

; 136  :         return ::operator new(_Bytes);

  000c0	6a 18		 push	 24			; 00000018H
; File C:\Program Files\Microsoft Visual Studio\2022\Professional\VC\Tools\MSVC\14.44.35207\include\xtree

; 808  :     explicit _Tree_temp_node_alloc(_Alnode& _Al_) : _Alloc_construct_ptr<_Alnode>(_Al_) {

  000c2	c7 45 fc 01 00
	00 00		 mov	 DWORD PTR __$EHRec$[ebp+8], 1
; File C:\Program Files\Microsoft Visual Studio\2022\Professional\VC\Tools\MSVC\14.44.35207\include\xmemory

; 1167 :         _Ptr = nullptr; // if allocate throws, prevents double-free

  000c9	c7 45 f0 00 00
	00 00		 mov	 DWORD PTR $T6[ebp+4], 0

; 136  :         return ::operator new(_Bytes);

  000d0	e8 00 00 00 00	 call	 ??2@YAPAXI@Z		; operator new
; File C:\Program Files\Microsoft Visual Studio\2022\Professional\VC\Tools\MSVC\14.44.35207\include\xtree

; 830  :         _Alnode_traits::construct(this->_Al, _STD addressof(this->_Ptr->_Myval), _STD forward<_Valtys>(_Vals)...);

  000d5	8b 4d 08	 mov	 ecx, DWORD PTR $T8[ebp]
; File C:\Program Files\Microsoft Visual Studio\2022\Professional\VC\Tools\MSVC\14.44.35207\include\xmemory

; 136  :         return ::operator new(_Bytes);

  000d8	83 c4 04	 add	 esp, 4
; File C:\Program Files\Microsoft Visual Studio\2022\Professional\VC\Tools\MSVC\14.44.35207\include\xtree

; 830  :         _Alnode_traits::construct(this->_Al, _STD addressof(this->_Ptr->_Myval), _STD forward<_Valtys>(_Vals)...);

  000db	89 58 10	 mov	 DWORD PTR [eax+16], ebx
  000de	89 48 14	 mov	 DWORD PTR [eax+20], ecx

; 1042 :         return {_Scary->_Insert_node(_Loc._Location, _Inserted), true};

  000e1	8b cf		 mov	 ecx, edi
  000e3	50		 push	 eax
  000e4	ff 75 e4	 push	 DWORD PTR __Loc$4[ebp+4]

; 831  :         _Construct_in_place(this->_Ptr->_Left, _Myhead);

  000e7	89 30		 mov	 DWORD PTR [eax], esi

; 1042 :         return {_Scary->_Insert_node(_Loc._Location, _Inserted), true};

  000e9	ff 75 e0	 push	 DWORD PTR __Loc$4[ebp]

; 832  :         _Construct_in_place(this->_Ptr->_Parent, _Myhead);

  000ec	89 70 04	 mov	 DWORD PTR [eax+4], esi

; 833  :         _Construct_in_place(this->_Ptr->_Right, _Myhead);

  000ef	89 70 08	 mov	 DWORD PTR [eax+8], esi

; 834  :         this->_Ptr->_Color = _Red;

  000f2	66 c7 40 0c 00
	00		 mov	 WORD PTR [eax+12], 0

; 1042 :         return {_Scary->_Insert_node(_Loc._Location, _Inserted), true};

  000f8	e8 00 00 00 00	 call	 ?_Insert_node@?$_Tree_val@U?$_Tree_simple_types@U?$pair@$$CBHPAVCRespawner@@@std@@@std@@@std@@QAEPAU?$_Tree_node@U?$pair@$$CBHPAVCRespawner@@@std@@PAX@2@U?$_Tree_id@PAU?$_Tree_node@U?$pair@$$CBHPAVCRespawner@@@std@@PAX@std@@@2@QAU32@@Z ; std::_Tree_val<std::_Tree_simple_types<std::pair<int const ,CRespawner *> > >::_Insert_node
$LN129@Expand:
; File C:\IAGOS\server\v18\Source\Source\_Common\Respawn.cpp

; 729  : }

  000fd	8b 4d f4	 mov	 ecx, DWORD PTR __$EHRec$[ebp]
  00100	64 89 0d 00 00
	00 00		 mov	 DWORD PTR fs:0, ecx
  00107	59		 pop	 ecx
  00108	5f		 pop	 edi
  00109	5e		 pop	 esi
  0010a	5b		 pop	 ebx
  0010b	8b e5		 mov	 esp, ebp
  0010d	5d		 pop	 ebp
  0010e	c2 04 00	 ret	 4
$LN152@Expand:
; File C:\Program Files\Microsoft Visual Studio\2022\Professional\VC\Tools\MSVC\14.44.35207\include\xtree

; 1649 :             _Throw_tree_length_error();

  00111	e8 00 00 00 00	 call	 ?_Throw_tree_length_error@std@@YAXXZ ; std::_Throw_tree_length_error
$LN149@Expand:
  00116	cc		 int	 3
_TEXT	ENDS
;	COMDAT text$x
text$x	SEGMENT
__unwindfunclet$?Expand@CLayerdRespawner@@QAEXH@Z$0:
  00000	6a 28		 push	 40			; 00000028H
  00002	8b 45 08	 mov	 eax, DWORD PTR $T7[ebp]
  00005	50		 push	 eax
  00006	e8 00 00 00 00	 call	 ??3@YAXPAXI@Z		; operator delete
  0000b	83 c4 08	 add	 esp, 8
  0000e	c3		 ret	 0
__unwindfunclet$?Expand@CLayerdRespawner@@QAEXH@Z$3:
  0000f	8d 4d ec	 lea	 ecx, DWORD PTR $T6[ebp]
  00012	e9 00 00 00 00	 jmp	 ??1?$_Alloc_construct_ptr@V?$allocator@U?$_Tree_node@U?$pair@$$CBHPAVCRespawner@@@std@@PAX@std@@@std@@@std@@QAE@XZ ; std::_Alloc_construct_ptr<std::allocator<std::_Tree_node<std::pair<int const ,CRespawner *>,void *> > >::~_Alloc_construct_ptr<std::allocator<std::_Tree_node<std::pair<int const ,CRespawner *>,void *> > >
  00017	cc		 int	 3
  00018	cc		 int	 3
  00019	cc		 int	 3
  0001a	cc		 int	 3
  0001b	cc		 int	 3
__ehhandler$?Expand@CLayerdRespawner@@QAEXH@Z:
  0001c	90		 npad	 1
  0001d	90		 npad	 1
  0001e	8b 54 24 08	 mov	 edx, DWORD PTR [esp+8]
  00022	8d 42 0c	 lea	 eax, DWORD PTR [edx+12]
  00025	8b 4a d0	 mov	 ecx, DWORD PTR [edx-48]
  00028	33 c8		 xor	 ecx, eax
  0002a	e8 00 00 00 00	 call	 @__security_check_cookie@4
  0002f	b8 00 00 00 00	 mov	 eax, OFFSET __ehfuncinfo$?Expand@CLayerdRespawner@@QAEXH@Z
  00034	e9 00 00 00 00	 jmp	 ___CxxFrameHandler3
text$x	ENDS
?Expand@CLayerdRespawner@@QAEXH@Z ENDP			; CLayerdRespawner::Expand
; Function compile flags: /Ogtp
; File C:\IAGOS\server\v18\Source\Source\_Common\Respawn.cpp
; File C:\Program Files\Microsoft Visual Studio\2022\Professional\VC\Tools\MSVC\14.44.35207\include\xtree
; File C:\IAGOS\server\v18\Source\Source\_Common\Respawn.cpp
; File C:\Program Files\Microsoft Visual Studio\2022\Professional\VC\Tools\MSVC\14.44.35207\include\xtree
; File C:\Program Files\Microsoft Visual Studio\2022\Professional\VC\Tools\MSVC\14.44.35207\include\type_traits
; File C:\Program Files\Microsoft Visual Studio\2022\Professional\VC\Tools\MSVC\14.44.35207\include\xtree
; File C:\IAGOS\server\v18\Source\Source\_Common\Respawn.cpp
;	COMDAT ?Increment@CLayerdRespawner@@QAEXHHHH@Z
_TEXT	SEGMENT
__Loc$1 = -12						; size = 12
_nRespawn$ = 8						; size = 4
_nType$ = 12						; size = 4
_bActiveAttack$ = 16					; size = 4
_nLayer$ = 20						; size = 4
?Increment@CLayerdRespawner@@QAEXHHHH@Z PROC		; CLayerdRespawner::Increment, COMDAT
; _this$ = ecx

; 715  : {

  00000	55		 push	 ebp
  00001	8b ec		 mov	 ebp, esp
  00003	83 ec 0c	 sub	 esp, 12			; 0000000cH
  00006	56		 push	 esi
; File C:\Program Files\Microsoft Visual Studio\2022\Professional\VC\Tools\MSVC\14.44.35207\include\xtree

; 1384 :         const _Tree_find_result<_Nodeptr> _Loc = _Find_lower_bound(_Keyval);

  00007	8d 45 14	 lea	 eax, DWORD PTR _nLayer$[ebp]
  0000a	50		 push	 eax
; File C:\IAGOS\server\v18\Source\Source\_Common\Respawn.cpp

; 716  : 	MRP::iterator i = m_mapRespawners.find( nLayer );

  0000b	8d 71 2c	 lea	 esi, DWORD PTR [ecx+44]
; File C:\Program Files\Microsoft Visual Studio\2022\Professional\VC\Tools\MSVC\14.44.35207\include\xtree

; 1384 :         const _Tree_find_result<_Nodeptr> _Loc = _Find_lower_bound(_Keyval);

  0000e	8d 45 f4	 lea	 eax, DWORD PTR __Loc$1[ebp]
  00011	8b ce		 mov	 ecx, esi
  00013	50		 push	 eax
  00014	e8 00 00 00 00	 call	 ??$_Find_lower_bound@H@?$_Tree@V?$_Tmap_traits@HPAVCRespawner@@U?$less@H@std@@V?$allocator@U?$pair@$$CBHPAVCRespawner@@@std@@@3@$0A@@std@@@std@@IBE?AU?$_Tree_find_result@PAU?$_Tree_node@U?$pair@$$CBHPAVCRespawner@@@std@@PAX@std@@@1@ABH@Z ; std::_Tree<std::_Tmap_traits<int,CRespawner *,std::less<int>,std::allocator<std::pair<int const ,CRespawner *> >,0> >::_Find_lower_bound<int>

; 1624 :         return !_Bound->_Isnil && !_DEBUG_LT_PRED(_Getcomp(), _Keyval, _Traits::_Kfn(_Bound->_Myval));

  00019	8b 4d fc	 mov	 ecx, DWORD PTR __Loc$1[ebp+8]
  0001c	80 79 0d 00	 cmp	 BYTE PTR [ecx+13], 0
  00020	75 1d		 jne	 SHORT $LN2@Increment
; File C:\Program Files\Microsoft Visual Studio\2022\Professional\VC\Tools\MSVC\14.44.35207\include\type_traits

; 2380 :         return _Left < _Right;

  00022	8b 45 14	 mov	 eax, DWORD PTR _nLayer$[ebp]
  00025	3b 41 10	 cmp	 eax, DWORD PTR [ecx+16]
; File C:\Program Files\Microsoft Visual Studio\2022\Professional\VC\Tools\MSVC\14.44.35207\include\xtree

; 1624 :         return !_Bound->_Isnil && !_DEBUG_LT_PRED(_Getcomp(), _Keyval, _Traits::_Kfn(_Bound->_Myval));

  00028	7c 15		 jl	 SHORT $LN2@Increment

; 37   :     _Tree_unchecked_const_iterator(_Nodeptr _Pnode, const _Mytree* _Plist) noexcept : _Ptr(_Pnode) {

  0002a	3b 0e		 cmp	 ecx, DWORD PTR [esi]
; File C:\IAGOS\server\v18\Source\Source\_Common\Respawn.cpp

; 717  : 	if( i != m_mapRespawners.end() )

  0002c	74 11		 je	 SHORT $LN2@Increment

; 718  : 		i->second->Increment( nRespawn, nType, bActiveAttack );

  0002e	ff 75 10	 push	 DWORD PTR _bActiveAttack$[ebp]
  00031	8b 49 14	 mov	 ecx, DWORD PTR [ecx+20]
  00034	ff 75 0c	 push	 DWORD PTR _nType$[ebp]
  00037	ff 75 08	 push	 DWORD PTR _nRespawn$[ebp]
  0003a	e8 00 00 00 00	 call	 ?Increment@CRespawner@@QAEXHHH@Z ; CRespawner::Increment
$LN2@Increment:
  0003f	5e		 pop	 esi

; 719  : }

  00040	8b e5		 mov	 esp, ebp
  00042	5d		 pop	 ebp
  00043	c2 10 00	 ret	 16			; 00000010H
?Increment@CLayerdRespawner@@QAEXHHHH@Z ENDP		; CLayerdRespawner::Increment
_TEXT	ENDS
; Function compile flags: /Ogtp
; File C:\IAGOS\server\v18\Source\Source\_Common\Respawn.cpp
; File C:\Program Files\Microsoft Visual Studio\2022\Professional\VC\Tools\MSVC\14.44.35207\include\xtree
; File C:\IAGOS\server\v18\Source\Source\_Common\Respawn.cpp
; File C:\Program Files\Microsoft Visual Studio\2022\Professional\VC\Tools\MSVC\14.44.35207\include\xtree
; File C:\IAGOS\server\v18\Source\Source\_Common\Respawn.cpp
; File C:\Program Files\Microsoft Visual Studio\2022\Professional\VC\Tools\MSVC\14.44.35207\include\xtree
; File C:\IAGOS\server\v18\Source\Source\_Common\Respawn.cpp
;	COMDAT ?Spawn@CLayerdRespawner@@QAEKPAVCWorld@@@Z
_TEXT	SEGMENT
_i$1 = -4						; size = 4
_pWorld$ = 8						; size = 4
?Spawn@CLayerdRespawner@@QAEKPAVCWorld@@@Z PROC		; CLayerdRespawner::Spawn, COMDAT
; _this$ = ecx

; 707  : {

  00000	55		 push	 ebp
  00001	8b ec		 mov	 ebp, esp
  00003	51		 push	 ecx
  00004	56		 push	 esi
  00005	57		 push	 edi
  00006	8b f9		 mov	 edi, ecx

; 708  : 	u_long uRespawn	= 0;

  00008	33 f6		 xor	 esi, esi
; File C:\Program Files\Microsoft Visual Studio\2022\Professional\VC\Tools\MSVC\14.44.35207\include\xtree

; 1142 :         return iterator(_Scary->_Myhead->_Left, _Scary);

  0000a	8b 57 2c	 mov	 edx, DWORD PTR [edi+44]

; 37   :     _Tree_unchecked_const_iterator(_Nodeptr _Pnode, const _Mytree* _Plist) noexcept : _Ptr(_Pnode) {

  0000d	8b 02		 mov	 eax, DWORD PTR [edx]
  0000f	89 45 fc	 mov	 DWORD PTR _i$1[ebp], eax

; 237  :         return !(*this == _Right);

  00012	3b c2		 cmp	 eax, edx
; File C:\IAGOS\server\v18\Source\Source\_Common\Respawn.cpp

; 709  : 	for( MRP::iterator i = m_mapRespawners.begin(); i != m_mapRespawners.end(); ++i )

  00014	74 29		 je	 SHORT $LN64@Spawn
  00016	53		 push	 ebx
  00017	8b 5d 08	 mov	 ebx, DWORD PTR _pWorld$[ebp]
  0001a	66 0f 1f 44 00
	00		 npad	 6
$LL4@Spawn:

; 710  : 		uRespawn	+= i->second->Spawn( pWorld, i->first );

  00020	ff 70 10	 push	 DWORD PTR [eax+16]
  00023	8b 48 14	 mov	 ecx, DWORD PTR [eax+20]
  00026	53		 push	 ebx
  00027	e8 00 00 00 00	 call	 ?Spawn@CRespawner@@QAEKPAVCWorld@@H@Z ; CRespawner::Spawn
; File C:\Program Files\Microsoft Visual Studio\2022\Professional\VC\Tools\MSVC\14.44.35207\include\xtree

; 198  :         _Mybase::operator++();

  0002c	8d 4d fc	 lea	 ecx, DWORD PTR _i$1[ebp]
; File C:\IAGOS\server\v18\Source\Source\_Common\Respawn.cpp

; 710  : 		uRespawn	+= i->second->Spawn( pWorld, i->first );

  0002f	03 f0		 add	 esi, eax
; File C:\Program Files\Microsoft Visual Studio\2022\Professional\VC\Tools\MSVC\14.44.35207\include\xtree

; 198  :         _Mybase::operator++();

  00031	e8 00 00 00 00	 call	 ??E?$_Tree_unchecked_const_iterator@V?$_Tree_val@U?$_Tree_simple_types@U?$pair@$$CBHPAVCRespawner@@@std@@@std@@@std@@U_Iterator_base0@2@@std@@QAEAAV01@XZ ; std::_Tree_unchecked_const_iterator<std::_Tree_val<std::_Tree_simple_types<std::pair<int const ,CRespawner *> > >,std::_Iterator_base0>::operator++

; 237  :         return !(*this == _Right);

  00036	8b 45 fc	 mov	 eax, DWORD PTR _i$1[ebp]
  00039	3b 47 2c	 cmp	 eax, DWORD PTR [edi+44]
; File C:\IAGOS\server\v18\Source\Source\_Common\Respawn.cpp

; 709  : 	for( MRP::iterator i = m_mapRespawners.begin(); i != m_mapRespawners.end(); ++i )

  0003c	75 e2		 jne	 SHORT $LL4@Spawn
  0003e	5b		 pop	 ebx
$LN64@Spawn:
  0003f	5f		 pop	 edi

; 711  : 	return uRespawn;
; 712  : }

  00040	8b c6		 mov	 eax, esi
  00042	5e		 pop	 esi
  00043	8b e5		 mov	 esp, ebp
  00045	5d		 pop	 ebp
  00046	c2 04 00	 ret	 4
?Spawn@CLayerdRespawner@@QAEKPAVCWorld@@@Z ENDP		; CLayerdRespawner::Spawn
_TEXT	ENDS
; Function compile flags: /Ogtp
; File C:\IAGOS\server\v18\Source\Source\_Common\Respawn.cpp
; File C:\Program Files\Microsoft Visual Studio\2022\Professional\VC\Tools\MSVC\14.44.35207\include\xtree
; File C:\IAGOS\server\v18\Source\Source\_Common\Respawn.cpp
; File C:\Program Files\Microsoft Visual Studio\2022\Professional\VC\Tools\MSVC\14.44.35207\include\xtree
; File C:\Program Files\Microsoft Visual Studio\2022\Professional\VC\Tools\MSVC\14.44.35207\include\type_traits
; File C:\Program Files\Microsoft Visual Studio\2022\Professional\VC\Tools\MSVC\14.44.35207\include\xtree
; File C:\IAGOS\server\v18\Source\Source\_Common\Respawn.cpp
;	COMDAT ?GetRespawnInfo@CLayerdRespawner@@QAEPAVCRespawnInfo@@HHH@Z
_TEXT	SEGMENT
__Loc$1 = -12						; size = 12
_nRespawn$ = 8						; size = 4
_nType$ = 12						; size = 4
_nLayer$ = 16						; size = 4
?GetRespawnInfo@CLayerdRespawner@@QAEPAVCRespawnInfo@@HHH@Z PROC ; CLayerdRespawner::GetRespawnInfo, COMDAT
; _this$ = ecx

; 699  : {

  00000	55		 push	 ebp
  00001	8b ec		 mov	 ebp, esp
  00003	83 ec 0c	 sub	 esp, 12			; 0000000cH
  00006	56		 push	 esi
; File C:\Program Files\Microsoft Visual Studio\2022\Professional\VC\Tools\MSVC\14.44.35207\include\xtree

; 1384 :         const _Tree_find_result<_Nodeptr> _Loc = _Find_lower_bound(_Keyval);

  00007	8d 45 10	 lea	 eax, DWORD PTR _nLayer$[ebp]
  0000a	50		 push	 eax
; File C:\IAGOS\server\v18\Source\Source\_Common\Respawn.cpp

; 700  : 	MRP::iterator i = m_mapRespawners.find( nLayer );

  0000b	8d 71 2c	 lea	 esi, DWORD PTR [ecx+44]
; File C:\Program Files\Microsoft Visual Studio\2022\Professional\VC\Tools\MSVC\14.44.35207\include\xtree

; 1384 :         const _Tree_find_result<_Nodeptr> _Loc = _Find_lower_bound(_Keyval);

  0000e	8d 45 f4	 lea	 eax, DWORD PTR __Loc$1[ebp]
  00011	8b ce		 mov	 ecx, esi
  00013	50		 push	 eax
  00014	e8 00 00 00 00	 call	 ??$_Find_lower_bound@H@?$_Tree@V?$_Tmap_traits@HPAVCRespawner@@U?$less@H@std@@V?$allocator@U?$pair@$$CBHPAVCRespawner@@@std@@@3@$0A@@std@@@std@@IBE?AU?$_Tree_find_result@PAU?$_Tree_node@U?$pair@$$CBHPAVCRespawner@@@std@@PAX@std@@@1@ABH@Z ; std::_Tree<std::_Tmap_traits<int,CRespawner *,std::less<int>,std::allocator<std::pair<int const ,CRespawner *> >,0> >::_Find_lower_bound<int>

; 1624 :         return !_Bound->_Isnil && !_DEBUG_LT_PRED(_Getcomp(), _Keyval, _Traits::_Kfn(_Bound->_Myval));

  00019	8b 4d fc	 mov	 ecx, DWORD PTR __Loc$1[ebp+8]
  0001c	80 79 0d 00	 cmp	 BYTE PTR [ecx+13], 0
  00020	75 21		 jne	 SHORT $LN2@GetRespawn
; File C:\Program Files\Microsoft Visual Studio\2022\Professional\VC\Tools\MSVC\14.44.35207\include\type_traits

; 2380 :         return _Left < _Right;

  00022	8b 45 10	 mov	 eax, DWORD PTR _nLayer$[ebp]
  00025	3b 41 10	 cmp	 eax, DWORD PTR [ecx+16]
; File C:\Program Files\Microsoft Visual Studio\2022\Professional\VC\Tools\MSVC\14.44.35207\include\xtree

; 1624 :         return !_Bound->_Isnil && !_DEBUG_LT_PRED(_Getcomp(), _Keyval, _Traits::_Kfn(_Bound->_Myval));

  00028	7c 19		 jl	 SHORT $LN2@GetRespawn

; 37   :     _Tree_unchecked_const_iterator(_Nodeptr _Pnode, const _Mytree* _Plist) noexcept : _Ptr(_Pnode) {

  0002a	3b 0e		 cmp	 ecx, DWORD PTR [esi]
; File C:\IAGOS\server\v18\Source\Source\_Common\Respawn.cpp

; 701  : 	if( i != m_mapRespawners.end() )

  0002c	74 15		 je	 SHORT $LN2@GetRespawn

; 702  : 		return i->second->GetRespawnInfo( nRespawn, nType );

  0002e	ff 75 0c	 push	 DWORD PTR _nType$[ebp]
  00031	8b 49 14	 mov	 ecx, DWORD PTR [ecx+20]
  00034	ff 75 08	 push	 DWORD PTR _nRespawn$[ebp]
  00037	e8 00 00 00 00	 call	 ?GetRespawnInfo@CRespawner@@QAEPAVCRespawnInfo@@HH@Z ; CRespawner::GetRespawnInfo
  0003c	5e		 pop	 esi

; 704  : }

  0003d	8b e5		 mov	 esp, ebp
  0003f	5d		 pop	 ebp
  00040	c2 0c 00	 ret	 12			; 0000000cH
$LN2@GetRespawn:

; 703  : 	return NULL;

  00043	33 c0		 xor	 eax, eax
  00045	5e		 pop	 esi

; 704  : }

  00046	8b e5		 mov	 esp, ebp
  00048	5d		 pop	 ebp
  00049	c2 0c 00	 ret	 12			; 0000000cH
?GetRespawnInfo@CLayerdRespawner@@QAEPAVCRespawnInfo@@HHH@Z ENDP ; CLayerdRespawner::GetRespawnInfo
_TEXT	ENDS
; Function compile flags: /Ogtp
; File C:\IAGOS\server\v18\Source\Source\_Common\Respawn.cpp
; File C:\Program Files\Microsoft Visual Studio\2022\Professional\VC\Tools\MSVC\14.44.35207\include\xtree
; File C:\IAGOS\server\v18\Source\Source\_Common\Respawn.cpp
; File C:\Program Files\Microsoft Visual Studio\2022\Professional\VC\Tools\MSVC\14.44.35207\include\xtree
; File C:\IAGOS\server\v18\Source\Source\_Common\Respawn.cpp
;	COMDAT ?Remove@CLayerdRespawner@@QAEHHH@Z
_TEXT	SEGMENT
_i$1 = -4						; size = 4
_nRespawn$ = 8						; size = 4
_nType$ = 12						; size = 4
?Remove@CLayerdRespawner@@QAEHHH@Z PROC			; CLayerdRespawner::Remove, COMDAT
; _this$ = ecx

; 689  : {

  00000	55		 push	 ebp
  00001	8b ec		 mov	 ebp, esp
  00003	51		 push	 ecx
  00004	53		 push	 ebx

; 690  : 	for( MRP::iterator i = m_mapRespawners.begin(); i != m_mapRespawners.end(); ++i )

  00005	8b 5d 08	 mov	 ebx, DWORD PTR _nRespawn$[ebp]
  00008	56		 push	 esi
  00009	8b f1		 mov	 esi, ecx
  0000b	57		 push	 edi
  0000c	8b 7d 0c	 mov	 edi, DWORD PTR _nType$[ebp]
; File C:\Program Files\Microsoft Visual Studio\2022\Professional\VC\Tools\MSVC\14.44.35207\include\xtree

; 1142 :         return iterator(_Scary->_Myhead->_Left, _Scary);

  0000f	8b 56 2c	 mov	 edx, DWORD PTR [esi+44]

; 37   :     _Tree_unchecked_const_iterator(_Nodeptr _Pnode, const _Mytree* _Plist) noexcept : _Ptr(_Pnode) {

  00012	8b 02		 mov	 eax, DWORD PTR [edx]
  00014	89 45 fc	 mov	 DWORD PTR _i$1[ebp], eax

; 237  :         return !(*this == _Right);

  00017	3b c2		 cmp	 eax, edx
; File C:\IAGOS\server\v18\Source\Source\_Common\Respawn.cpp

; 690  : 	for( MRP::iterator i = m_mapRespawners.begin(); i != m_mapRespawners.end(); ++i )

  00019	74 1f		 je	 SHORT $LN3@Remove
  0001b	0f 1f 44 00 00	 npad	 5
$LL4@Remove:

; 691  : 	{
; 692  : 		CRespawner* pRespawner	= i->second;
; 693  : 		pRespawner->Remove( nRespawn, nType );

  00020	8b 48 14	 mov	 ecx, DWORD PTR [eax+20]
  00023	57		 push	 edi
  00024	53		 push	 ebx
  00025	e8 00 00 00 00	 call	 ?Remove@CRespawner@@QAEHHH@Z ; CRespawner::Remove
; File C:\Program Files\Microsoft Visual Studio\2022\Professional\VC\Tools\MSVC\14.44.35207\include\xtree

; 198  :         _Mybase::operator++();

  0002a	8d 4d fc	 lea	 ecx, DWORD PTR _i$1[ebp]
  0002d	e8 00 00 00 00	 call	 ??E?$_Tree_unchecked_const_iterator@V?$_Tree_val@U?$_Tree_simple_types@U?$pair@$$CBHPAVCRespawner@@@std@@@std@@@std@@U_Iterator_base0@2@@std@@QAEAAV01@XZ ; std::_Tree_unchecked_const_iterator<std::_Tree_val<std::_Tree_simple_types<std::pair<int const ,CRespawner *> > >,std::_Iterator_base0>::operator++

; 237  :         return !(*this == _Right);

  00032	8b 45 fc	 mov	 eax, DWORD PTR _i$1[ebp]
  00035	3b 46 2c	 cmp	 eax, DWORD PTR [esi+44]
; File C:\IAGOS\server\v18\Source\Source\_Common\Respawn.cpp

; 690  : 	for( MRP::iterator i = m_mapRespawners.begin(); i != m_mapRespawners.end(); ++i )

  00038	75 e6		 jne	 SHORT $LL4@Remove
$LN3@Remove:

; 694  : 	}
; 695  : 	return m_proto.Remove( nRespawn, nType );

  0003a	57		 push	 edi
  0003b	53		 push	 ebx
  0003c	8d 4e 04	 lea	 ecx, DWORD PTR [esi+4]
  0003f	e8 00 00 00 00	 call	 ?Remove@CRespawner@@QAEHHH@Z ; CRespawner::Remove
  00044	5f		 pop	 edi
  00045	5e		 pop	 esi
  00046	5b		 pop	 ebx

; 696  : }

  00047	8b e5		 mov	 esp, ebp
  00049	5d		 pop	 ebp
  0004a	c2 08 00	 ret	 8
?Remove@CLayerdRespawner@@QAEHHH@Z ENDP			; CLayerdRespawner::Remove
_TEXT	ENDS
; Function compile flags: /Ogtp
; File C:\IAGOS\server\v18\Source\Source\_Common\Respawn.cpp
;	COMDAT ?Add@CLayerdRespawner@@QAEHAAVCRespawnInfo@@H@Z
_TEXT	SEGMENT
_ri$ = 8						; size = 4
_nType$ = 12						; size = 4
?Add@CLayerdRespawner@@QAEHAAVCRespawnInfo@@H@Z PROC	; CLayerdRespawner::Add, COMDAT
; _this$ = ecx

; 684  : {

  00000	55		 push	 ebp
  00001	8b ec		 mov	 ebp, esp

; 685  : 	return m_proto.Add( ri, nType );

  00003	83 c1 04	 add	 ecx, 4

; 686  : }

  00006	5d		 pop	 ebp

; 685  : 	return m_proto.Add( ri, nType );

  00007	e9 00 00 00 00	 jmp	 ?Add@CRespawner@@QAEHAAVCRespawnInfo@@H@Z ; CRespawner::Add
?Add@CLayerdRespawner@@QAEHAAVCRespawnInfo@@H@Z ENDP	; CLayerdRespawner::Add
_TEXT	ENDS
; Function compile flags: /Ogtp
; File C:\IAGOS\server\v18\Source\Source\_Common\Respawn.cpp
;	COMDAT ??1CLayerdRespawner@@UAE@XZ
_TEXT	SEGMENT
??1CLayerdRespawner@@UAE@XZ PROC			; CLayerdRespawner::~CLayerdRespawner, COMDAT
; _this$ = ecx

; 669  : {

  00000	56		 push	 esi
  00001	8b f1		 mov	 esi, ecx
  00003	c7 06 00 00 00
	00		 mov	 DWORD PTR [esi], OFFSET ??_7CLayerdRespawner@@6B@

; 670  : 	Clear();

  00009	e8 00 00 00 00	 call	 ?Clear@CLayerdRespawner@@AAEXXZ ; CLayerdRespawner::Clear

; 671  : }

  0000e	8d 4e 2c	 lea	 ecx, DWORD PTR [esi+44]
  00011	e8 00 00 00 00	 call	 ??1?$_Tree@V?$_Tmap_traits@HPAVCRespawner@@U?$less@H@std@@V?$allocator@U?$pair@$$CBHPAVCRespawner@@@std@@@3@$0A@@std@@@std@@QAE@XZ ; std::_Tree<std::_Tmap_traits<int,CRespawner *,std::less<int>,std::allocator<std::pair<int const ,CRespawner *> >,0> >::~_Tree<std::_Tmap_traits<int,CRespawner *,std::less<int>,std::allocator<std::pair<int const ,CRespawner *> >,0> >
  00016	8d 4e 04	 lea	 ecx, DWORD PTR [esi+4]
  00019	5e		 pop	 esi
  0001a	e9 00 00 00 00	 jmp	 ??1CRespawner@@UAE@XZ	; CRespawner::~CRespawner
??1CLayerdRespawner@@UAE@XZ ENDP			; CLayerdRespawner::~CLayerdRespawner
_TEXT	ENDS
; Function compile flags: /Ogtp
; File C:\IAGOS\server\v18\Source\Source\_Common\Respawn.cpp
; File C:\Program Files\Microsoft Visual Studio\2022\Professional\VC\Tools\MSVC\14.44.35207\include\xmemory
; File C:\IAGOS\server\v18\Source\Source\_Common\Respawn.cpp
; File C:\Program Files\Microsoft Visual Studio\2022\Professional\VC\Tools\MSVC\14.44.35207\include\xtree
; File C:\Program Files\Microsoft Visual Studio\2022\Professional\VC\Tools\MSVC\14.44.35207\include\xmemory
; File C:\Program Files\Microsoft Visual Studio\2022\Professional\VC\Tools\MSVC\14.44.35207\include\xtree
; File C:\IAGOS\server\v18\Source\Source\_Common\Respawn.cpp
;	COMDAT ??0CLayerdRespawner@@QAE@XZ
_TEXT	SEGMENT
_this$ = -20						; size = 4
_this$ = -16						; size = 4
__$EHRec$ = -12						; size = 12
??0CLayerdRespawner@@QAE@XZ PROC			; CLayerdRespawner::CLayerdRespawner, COMDAT
; _this$ = ecx

; 665  : {

  00000	55		 push	 ebp
  00001	8b ec		 mov	 ebp, esp
  00003	6a ff		 push	 -1
  00005	68 00 00 00 00	 push	 __ehhandler$??0CLayerdRespawner@@QAE@XZ
  0000a	64 a1 00 00 00
	00		 mov	 eax, DWORD PTR fs:0
  00010	50		 push	 eax
  00011	83 ec 08	 sub	 esp, 8
  00014	56		 push	 esi
  00015	57		 push	 edi
  00016	a1 00 00 00 00	 mov	 eax, DWORD PTR ___security_cookie
  0001b	33 c5		 xor	 eax, ebp
  0001d	50		 push	 eax
  0001e	8d 45 f4	 lea	 eax, DWORD PTR __$EHRec$[ebp]
  00021	64 a3 00 00 00
	00		 mov	 DWORD PTR fs:0, eax
  00027	8b f9		 mov	 edi, ecx
  00029	89 7d f0	 mov	 DWORD PTR _this$[ebp], edi
  0002c	8d 4f 04	 lea	 ecx, DWORD PTR [edi+4]
  0002f	c7 07 00 00 00
	00		 mov	 DWORD PTR [edi], OFFSET ??_7CLayerdRespawner@@6B@
  00035	e8 00 00 00 00	 call	 ??0CRespawner@@QAE@XZ	; CRespawner::CRespawner
  0003a	8d 77 2c	 lea	 esi, DWORD PTR [edi+44]
  0003d	c7 45 fc 00 00
	00 00		 mov	 DWORD PTR __$EHRec$[ebp+8], 0
; File C:\Program Files\Microsoft Visual Studio\2022\Professional\VC\Tools\MSVC\14.44.35207\include\xmemory

; 136  :         return ::operator new(_Bytes);

  00044	6a 18		 push	 24			; 00000018H
; File C:\IAGOS\server\v18\Source\Source\_Common\Respawn.cpp

; 665  : {

  00046	89 75 ec	 mov	 DWORD PTR _this$[ebp], esi
; File C:\Program Files\Microsoft Visual Studio\2022\Professional\VC\Tools\MSVC\14.44.35207\include\xtree

; 450  :     _Tree_val() noexcept : _Myhead(), _Mysize(0) {}

  00049	c7 06 00 00 00
	00		 mov	 DWORD PTR [esi], 0
  0004f	c7 46 04 00 00
	00 00		 mov	 DWORD PTR [esi+4], 0
; File C:\Program Files\Microsoft Visual Studio\2022\Professional\VC\Tools\MSVC\14.44.35207\include\xmemory

; 136  :         return ::operator new(_Bytes);

  00056	e8 00 00 00 00	 call	 ??2@YAPAXI@Z		; operator new
  0005b	83 c4 04	 add	 esp, 4
; File C:\Program Files\Microsoft Visual Studio\2022\Professional\VC\Tools\MSVC\14.44.35207\include\xtree

; 346  :         _Construct_in_place(_Pnode->_Left, _Pnode);

  0005e	89 00		 mov	 DWORD PTR [eax], eax

; 347  :         _Construct_in_place(_Pnode->_Parent, _Pnode);

  00060	89 40 04	 mov	 DWORD PTR [eax+4], eax

; 348  :         _Construct_in_place(_Pnode->_Right, _Pnode);

  00063	89 40 08	 mov	 DWORD PTR [eax+8], eax

; 349  :         _Pnode->_Color = _Black;

  00066	66 c7 40 0c 01
	01		 mov	 WORD PTR [eax+12], 257	; 00000101H

; 1957 :         _Scary->_Myhead = _Node::_Buyheadnode(_Getal());

  0006c	89 06		 mov	 DWORD PTR [esi], eax
; File C:\IAGOS\server\v18\Source\Source\_Common\Respawn.cpp

; 666  : }

  0006e	8b c7		 mov	 eax, edi
  00070	8b 4d f4	 mov	 ecx, DWORD PTR __$EHRec$[ebp]
  00073	64 89 0d 00 00
	00 00		 mov	 DWORD PTR fs:0, ecx
  0007a	59		 pop	 ecx
  0007b	5f		 pop	 edi
  0007c	5e		 pop	 esi
  0007d	8b e5		 mov	 esp, ebp
  0007f	5d		 pop	 ebp
  00080	c3		 ret	 0
_TEXT	ENDS
;	COMDAT text$x
text$x	SEGMENT
__unwindfunclet$??0CLayerdRespawner@@QAE@XZ$0:
  00000	8b 4d f0	 mov	 ecx, DWORD PTR _this$[ebp]
  00003	83 c1 04	 add	 ecx, 4
  00006	e9 00 00 00 00	 jmp	 ??1CRespawner@@UAE@XZ	; CRespawner::~CRespawner
  0000b	cc		 int	 3
  0000c	cc		 int	 3
  0000d	cc		 int	 3
  0000e	cc		 int	 3
  0000f	cc		 int	 3
__ehhandler$??0CLayerdRespawner@@QAE@XZ:
  00010	90		 npad	 1
  00011	90		 npad	 1
  00012	8b 54 24 08	 mov	 edx, DWORD PTR [esp+8]
  00016	8d 42 0c	 lea	 eax, DWORD PTR [edx+12]
  00019	8b 4a ec	 mov	 ecx, DWORD PTR [edx-20]
  0001c	33 c8		 xor	 ecx, eax
  0001e	e8 00 00 00 00	 call	 @__security_check_cookie@4
  00023	b8 00 00 00 00	 mov	 eax, OFFSET __ehfuncinfo$??0CLayerdRespawner@@QAE@XZ
  00028	e9 00 00 00 00	 jmp	 ___CxxFrameHandler3
text$x	ENDS
??0CLayerdRespawner@@QAE@XZ ENDP			; CLayerdRespawner::CLayerdRespawner
; Function compile flags: /Ogtp
;	COMDAT ??_GCRespawner@@UAEPAXI@Z
_TEXT	SEGMENT
___flags$ = 8						; size = 4
??_GCRespawner@@UAEPAXI@Z PROC				; CRespawner::`scalar deleting destructor', COMDAT
; _this$ = ecx
  00000	55		 push	 ebp
  00001	8b ec		 mov	 ebp, esp
  00003	56		 push	 esi
  00004	8b f1		 mov	 esi, ecx
  00006	e8 00 00 00 00	 call	 ??1CRespawner@@UAE@XZ	; CRespawner::~CRespawner
  0000b	f6 45 08 01	 test	 BYTE PTR ___flags$[ebp], 1
  0000f	74 0b		 je	 SHORT $LN5@scalar
  00011	6a 28		 push	 40			; 00000028H
  00013	56		 push	 esi
  00014	e8 00 00 00 00	 call	 ??3@YAXPAXI@Z		; operator delete
  00019	83 c4 08	 add	 esp, 8
$LN5@scalar:
  0001c	8b c6		 mov	 eax, esi
  0001e	5e		 pop	 esi
  0001f	5d		 pop	 ebp
  00020	c2 04 00	 ret	 4
??_GCRespawner@@UAEPAXI@Z ENDP				; CRespawner::`scalar deleting destructor'
_TEXT	ENDS
; Function compile flags: /Ogtp
; File C:\IAGOS\server\v18\Source\Source\_Common\Respawn.cpp
; File C:\Program Files\Microsoft Visual Studio\2022\Professional\VC\Tools\MSVC\14.44.35207\include\vector
; File C:\IAGOS\server\v18\Source\Source\_Common\Respawn.cpp
; File C:\Program Files\Microsoft Visual Studio\2022\Professional\VC\Tools\MSVC\14.44.35207\include\vector
; File C:\IAGOS\server\v18\Source\Source\_Common\Respawn.cpp
; File C:\Program Files\Microsoft Visual Studio\2022\Professional\VC\Tools\MSVC\14.44.35207\include\vector
; File C:\IAGOS\server\v18\Source\Source\_Common\Respawn.cpp
; File C:\Program Files\Microsoft Visual Studio\2022\Professional\VC\Tools\MSVC\14.44.35207\include\vector
; File C:\IAGOS\server\v18\Source\Source\_Common\Respawn.cpp
;	COMDAT ?Increment@CRespawner@@QAEXHHH@Z
_TEXT	SEGMENT
_nRespawnNo$ = 8					; size = 4
_nType$ = 12						; size = 4
_bActiveAttack$ = 16					; size = 4
?Increment@CRespawner@@QAEXHHH@Z PROC			; CRespawner::Increment, COMDAT
; _this$ = ecx

; 346  : {

  00000	55		 push	 ebp
  00001	8b ec		 mov	 ebp, esp
  00003	56		 push	 esi

; 347  : 	if( nRespawnNo < 0 )	

  00004	8b 75 08	 mov	 esi, DWORD PTR _nRespawnNo$[ebp]
  00007	8b c1		 mov	 eax, ecx
  00009	85 f6		 test	 esi, esi
  0000b	78 36		 js	 SHORT $LN3@Increment

; 348  : 		return;
; 349  : 	if( nType == RESPAWNTYPE_REGION )

  0000d	8b 4d 0c	 mov	 ecx, DWORD PTR _nType$[ebp]
  00010	85 c9		 test	 ecx, ecx
  00012	75 34		 jne	 SHORT $LN6@Increment
; File C:\Program Files\Microsoft Visual Studio\2022\Professional\VC\Tools\MSVC\14.44.35207\include\vector

; 1915 :         return static_cast<size_type>(_My_data._Mylast - _My_data._Myfirst);

  00014	8b 48 08	 mov	 ecx, DWORD PTR [eax+8]
  00017	57		 push	 edi
  00018	8b 78 04	 mov	 edi, DWORD PTR [eax+4]
  0001b	2b cf		 sub	 ecx, edi
  0001d	b8 eb 5d f2 60	 mov	 eax, 1626496491		; 60f25debH
  00022	f7 e9		 imul	 ecx
  00024	c1 fa 09	 sar	 edx, 9
  00027	8b c2		 mov	 eax, edx
  00029	c1 e8 1f	 shr	 eax, 31			; 0000001fH
  0002c	03 c2		 add	 eax, edx
; File C:\IAGOS\server\v18\Source\Source\_Common\Respawn.cpp

; 351  : 		if( nRespawnNo < (int)( m_vRespawnInfo[nType].size() ) )

  0002e	3b f0		 cmp	 esi, eax
  00030	7d 10		 jge	 SHORT $LN61@Increment

; 352  : 			m_vRespawnInfo[nType][nRespawnNo].Increment( bActiveAttack );

  00032	ff 75 10	 push	 DWORD PTR _bActiveAttack$[ebp]
; File C:\Program Files\Microsoft Visual Studio\2022\Professional\VC\Tools\MSVC\14.44.35207\include\vector

; 1934 :         return _My_data._Myfirst[_Pos];

  00035	69 ce 48 05 00
	00		 imul	 ecx, esi, 1352
  0003b	03 cf		 add	 ecx, edi
; File C:\IAGOS\server\v18\Source\Source\_Common\Respawn.cpp

; 352  : 			m_vRespawnInfo[nType][nRespawnNo].Increment( bActiveAttack );

  0003d	e8 00 00 00 00	 call	 ?Increment@CRespawnInfo@@QAEXH@Z ; CRespawnInfo::Increment
$LN61@Increment:
  00042	5f		 pop	 edi
$LN3@Increment:
  00043	5e		 pop	 esi

; 362  : 				break;
; 363  : 			}
; 364  : 		}
; 365  : 	}
; 366  : 	else
; 367  : 	if( nType == RESPAWNTYPE_BACKEND )
; 368  : 	{
; 369  : 	}
; 370  : }

  00044	5d		 pop	 ebp
  00045	c2 0c 00	 ret	 12			; 0000000cH
$LN6@Increment:

; 353  : 	}
; 354  : 	else
; 355  : 	if( nType == RESPAWNTYPE_SCRIPT )

  00048	83 f9 01	 cmp	 ecx, 1
  0004b	75 f6		 jne	 SHORT $LN3@Increment
; File C:\Program Files\Microsoft Visual Studio\2022\Professional\VC\Tools\MSVC\14.44.35207\include\vector

; 46   :     _CONSTEXPR20 _Vector_const_iterator(_Tptr _Parg, const _Container_base* _Pvector) noexcept : _Ptr(_Parg) {

  0004d	8b 48 10	 mov	 ecx, DWORD PTR [eax+16]
  00050	8b 40 14	 mov	 eax, DWORD PTR [eax+20]

; 176  :         return !(*this == _Right);

  00053	3b c8		 cmp	 ecx, eax
; File C:\IAGOS\server\v18\Source\Source\_Common\Respawn.cpp

; 357  : 		for( VRI::iterator i = m_vRespawnInfo[nType].begin(); i != m_vRespawnInfo[nType].end(); ++i )

  00055	74 ec		 je	 SHORT $LN3@Increment
$LL4@Increment:

; 358  : 		{
; 359  : 			if( ( *i ).m_nGMIndex == nRespawnNo )

  00057	39 b1 14 02 00
	00		 cmp	 DWORD PTR [ecx+532], esi
  0005d	74 0f		 je	 SHORT $LN51@Increment
; File C:\Program Files\Microsoft Visual Studio\2022\Professional\VC\Tools\MSVC\14.44.35207\include\vector

; 82   :         ++_Ptr;

  0005f	81 c1 48 05 00
	00		 add	 ecx, 1352		; 00000548H

; 176  :         return !(*this == _Right);

  00065	3b c8		 cmp	 ecx, eax
; File C:\IAGOS\server\v18\Source\Source\_Common\Respawn.cpp

; 357  : 		for( VRI::iterator i = m_vRespawnInfo[nType].begin(); i != m_vRespawnInfo[nType].end(); ++i )

  00067	75 ee		 jne	 SHORT $LL4@Increment
  00069	5e		 pop	 esi

; 362  : 				break;
; 363  : 			}
; 364  : 		}
; 365  : 	}
; 366  : 	else
; 367  : 	if( nType == RESPAWNTYPE_BACKEND )
; 368  : 	{
; 369  : 	}
; 370  : }

  0006a	5d		 pop	 ebp
  0006b	c2 0c 00	 ret	 12			; 0000000cH
$LN51@Increment:

; 360  : 			{
; 361  : 				( *i ).Increment( bActiveAttack );

  0006e	ff 75 10	 push	 DWORD PTR _bActiveAttack$[ebp]
  00071	e8 00 00 00 00	 call	 ?Increment@CRespawnInfo@@QAEXH@Z ; CRespawnInfo::Increment
  00076	5e		 pop	 esi

; 362  : 				break;
; 363  : 			}
; 364  : 		}
; 365  : 	}
; 366  : 	else
; 367  : 	if( nType == RESPAWNTYPE_BACKEND )
; 368  : 	{
; 369  : 	}
; 370  : }

  00077	5d		 pop	 ebp
  00078	c2 0c 00	 ret	 12			; 0000000cH
?Increment@CRespawner@@QAEXHHH@Z ENDP			; CRespawner::Increment
_TEXT	ENDS
; Function compile flags: /Ogtp
; File C:\IAGOS\server\v18\Source\Source\_Common\Respawn.cpp
; File C:\Program Files\Microsoft Visual Studio\2022\Professional\VC\Tools\MSVC\14.44.35207\include\vector
; File C:\IAGOS\server\v18\Source\Source\_Common\Respawn.cpp
; File C:\Program Files\Microsoft Visual Studio\2022\Professional\VC\Tools\MSVC\14.44.35207\include\vector
; File C:\IAGOS\server\v18\Source\Source\_Common\Respawn.cpp
; File C:\Program Files\Microsoft Visual Studio\2022\Professional\VC\Tools\MSVC\14.44.35207\include\vector
; File C:\IAGOS\server\v18\Source\Source\_Common\Respawn.cpp
; File C:\IAGOS\server\v18\Source\Source\_Common\Project.h
; File C:\IAGOS\server\v18\Source\Source\_Common\Respawn.cpp
; File C:\IAGOS\server\v18\Source\Source\_Common\Project.h
; File C:\IAGOS\server\v18\Source\Source\_Common\Respawn.cpp
; File C:\IAGOS\server\v18\Source\Source\_Common\xUtil.h
; File C:\IAGOS\server\v18\Source\Source\_Common\Respawn.cpp
; File C:\IAGOS\server\v18\Source\Source\_Common\xUtil.h
; File C:\IAGOS\server\v18\Source\Source\_Common\Respawn.cpp
; File C:\IAGOS\server\v18\Source\Source\_Common\xUtil.h
; File C:\IAGOS\server\v18\Source\Source\_Common\Item.h
; File C:\IAGOS\server\v18\Source\Source\_Common\Respawn.cpp
; File C:\IAGOS\server\v18\Source\Source\_Common\Project.h
; File C:\IAGOS\server\v18\Source\Source\_Common\data.h
; File C:\IAGOS\server\v18\Source\Source\_Common\Project.h
; File C:\IAGOS\server\v18\Source\Source\_Common\Respawn.cpp
; File C:\IAGOS\server\v18\Source\Source\_Common\xUtil.h
; File C:\IAGOS\server\v18\Source\Source\_Common\Respawn.cpp
; File C:\IAGOS\server\v18\Source\Source\_Common\xUtil.h
; File C:\IAGOS\server\v18\Source\Source\_Common\Respawn.cpp
; File C:\IAGOS\server\v18\Source\Source\_Common\xUtil.h
; File C:\IAGOS\server\v18\Source\Source\_Common\Respawn.cpp
; File C:\IAGOS\server\v18\Source\Source\_Common\xUtil.h
; File C:\IAGOS\server\v18\Source\Source\_Common\Respawn.cpp
; File C:\IAGOS\server\v18\Source\Source\_Common\xUtil.h
; File C:\IAGOS\server\v18\Source\Source\_Common\Respawn.cpp
; File C:\IAGOS\server\v18\Source\Source\_Common\Ctrl.h
; File C:\IAGOS\server\v18\Source\Source\_Common\Respawn.cpp
;	COMDAT ?Spawn@CRespawner@@QAEKPAVCWorld@@H@Z
_TEXT	SEGMENT
$T2 = -180						; size = 4
_cb$1$ = -176						; size = 4
_pMoverProp$ = -172					; size = 4
_dwFlying$1$ = -168					; size = 4
_uRespawned$1$ = -164					; size = 4
_this$GSCopy$1$ = -160					; size = 4
tv1145 = -156						; size = 4
_pWorld$GSCopy$1$ = -152				; size = 4
_y$3 = -148						; size = 4
_pObj$1$ = -148						; size = 4
$T4 = -148						; size = 4
_nType$1$ = -144					; size = 4
tv1045 = -140						; size = 4
_i$1$ = -136						; size = 4
_nSize$1$ = -132					; size = 4
_v$ = -128						; size = 12
_lpOutputString$5 = -116				; size = 100
__$ArrayPad$ = -16					; size = 4
__$EHRec$ = -12						; size = 12
_pWorld$ = 8						; size = 4
_nLayer$ = 12						; size = 4
?Spawn@CRespawner@@QAEKPAVCWorld@@H@Z PROC		; CRespawner::Spawn, COMDAT
; _this$ = ecx

; 377  : {

  00000	55		 push	 ebp
  00001	8b ec		 mov	 ebp, esp
  00003	6a ff		 push	 -1
  00005	68 00 00 00 00	 push	 __ehhandler$?Spawn@CRespawner@@QAEKPAVCWorld@@H@Z
  0000a	64 a1 00 00 00
	00		 mov	 eax, DWORD PTR fs:0
  00010	50		 push	 eax
  00011	81 ec a8 00 00
	00		 sub	 esp, 168		; 000000a8H
  00017	a1 00 00 00 00	 mov	 eax, DWORD PTR ___security_cookie
  0001c	33 c5		 xor	 eax, ebp
  0001e	89 45 f0	 mov	 DWORD PTR __$ArrayPad$[ebp], eax
  00021	53		 push	 ebx
  00022	56		 push	 esi
  00023	57		 push	 edi
  00024	50		 push	 eax
  00025	8d 45 f4	 lea	 eax, DWORD PTR __$EHRec$[ebp]
  00028	64 a3 00 00 00
	00		 mov	 DWORD PTR fs:0, eax
  0002e	8b d9		 mov	 ebx, ecx
  00030	89 9d 60 ff ff
	ff		 mov	 DWORD PTR _this$GSCopy$1$[ebp], ebx
  00036	8b 45 08	 mov	 eax, DWORD PTR _pWorld$[ebp]

; 378  : #if defined(__CLIENT)
; 379  : 	return 0;
; 380  : #else
; 381  : 	if( g_eLocal.GetState( EVE_RESPAWN ) == 0 )

  00039	b9 00 00 00 00	 mov	 ecx, OFFSET ?g_eLocal@@3VCFlyffEvent@@A ; g_eLocal
  0003e	6a 0a		 push	 10			; 0000000aH
  00040	89 85 68 ff ff
	ff		 mov	 DWORD PTR _pWorld$GSCopy$1$[ebp], eax
  00046	e8 00 00 00 00	 call	 ?GetState@CFlyffEvent@@QAEEH@Z ; CFlyffEvent::GetState
  0004b	84 c0		 test	 al, al
  0004d	75 07		 jne	 SHORT $LN10@Spawn

; 382  : 		return 0;

  0004f	33 c0		 xor	 eax, eax
  00051	e9 cc 06 00 00	 jmp	 $LN1@Spawn
$LN10@Spawn:

; 383  : 
; 384  : 	ASSERT( pWorld );
; 385  : 
; 386  : 	CRespawnInfo*	pi;
; 387  : 	short			cb;
; 388  : 	CObj*			pObj;
; 389  : 	D3DXVECTOR3		v;
; 390  : 	u_long			uRespawned	= 0;

  00056	33 c0		 xor	 eax, eax

; 391  : #ifndef __RES0807
; 392  : 	int				nAttr, nCheckAttr;
; 393  : 	int				nRetry;
; 394  : #endif	// __RES0807
; 395  : 	MoverProp*		pMoverProp;
; 396  : 	DWORD			dwFlying;
; 397  : 
; 398  : 	for( int nType = 0; nType < 3; nType++ )

  00058	33 f6		 xor	 esi, esi
  0005a	89 85 5c ff ff
	ff		 mov	 DWORD PTR _uRespawned$1$[ebp], eax
  00060	89 b5 70 ff ff
	ff		 mov	 DWORD PTR _nType$1$[ebp], esi
  00066	66 66 0f 1f 84
	00 00 00 00 00	 npad	 10
$LL4@Spawn:

; 400  : 		int nSize	= m_vRespawnInfo[nType].size();

  00070	8d 04 76	 lea	 eax, DWORD PTR [esi+esi*2]

; 401  : 		for( int i = 0; i < nSize; i++ )			// 04.10.11 - 480°ł Á¤µµ ŔĚ´Ů.

  00073	c7 85 78 ff ff
	ff 00 00 00 00	 mov	 DWORD PTR _i$1$[ebp], 0
; File C:\Program Files\Microsoft Visual Studio\2022\Professional\VC\Tools\MSVC\14.44.35207\include\vector

; 1915 :         return static_cast<size_type>(_My_data._Mylast - _My_data._Myfirst);

  0007d	8b 4c 83 08	 mov	 ecx, DWORD PTR [ebx+eax*4+8]
  00081	2b 4c 83 04	 sub	 ecx, DWORD PTR [ebx+eax*4+4]
; File C:\IAGOS\server\v18\Source\Source\_Common\Respawn.cpp

; 400  : 		int nSize	= m_vRespawnInfo[nType].size();

  00085	89 85 74 ff ff
	ff		 mov	 DWORD PTR tv1045[ebp], eax
; File C:\Program Files\Microsoft Visual Studio\2022\Professional\VC\Tools\MSVC\14.44.35207\include\vector

; 1915 :         return static_cast<size_type>(_My_data._Mylast - _My_data._Myfirst);

  0008b	b8 eb 5d f2 60	 mov	 eax, 1626496491		; 60f25debH
  00090	f7 e9		 imul	 ecx
  00092	c1 fa 09	 sar	 edx, 9
  00095	8b c2		 mov	 eax, edx
  00097	c1 e8 1f	 shr	 eax, 31			; 0000001fH
  0009a	03 c2		 add	 eax, edx
  0009c	89 85 7c ff ff
	ff		 mov	 DWORD PTR _nSize$1$[ebp], eax
; File C:\IAGOS\server\v18\Source\Source\_Common\Respawn.cpp

; 401  : 		for( int i = 0; i < nSize; i++ )			// 04.10.11 - 480°ł Á¤µµ ŔĚ´Ů.

  000a2	85 c0		 test	 eax, eax
  000a4	0f 8e 62 06 00
	00		 jle	 $LN2@Spawn

; 400  : 		int nSize	= m_vRespawnInfo[nType].size();

  000aa	8b 8d 7c ff ff
	ff		 mov	 ecx, DWORD PTR _nSize$1$[ebp]
  000b0	33 ff		 xor	 edi, edi
  000b2	8b 95 74 ff ff
	ff		 mov	 edx, DWORD PTR tv1045[ebp]
  000b8	8b c7		 mov	 eax, edi
  000ba	89 bd 64 ff ff
	ff		 mov	 DWORD PTR tv1145[ebp], edi
$LL7@Spawn:
; File C:\Program Files\Microsoft Visual Studio\2022\Professional\VC\Tools\MSVC\14.44.35207\include\vector

; 1934 :         return _My_data._Myfirst[_Pos];

  000c0	8b 5c 93 04	 mov	 ebx, DWORD PTR [ebx+edx*4+4]
  000c4	03 df		 add	 ebx, edi
; File C:\IAGOS\server\v18\Source\Source\_Common\Respawn.cpp

; 405  : 			if( pi->m_dwIndex == 0 )

  000c6	83 7b 08 00	 cmp	 DWORD PTR [ebx+8], 0
  000ca	0f 84 1b 06 00
	00		 je	 $LN5@Spawn

; 406  : 				continue;
; 407  : 
; 408  : 			// »čÁ¦ ¸í·ÉŔĚ ł»·ÁÁł°í, ¸®˝şĆůµČ żŔşęÁ§Ć®°ˇ ľř´Ů¸é?
; 409  : 			if( pi->m_bRemove )

  000d0	83 7b 3c 00	 cmp	 DWORD PTR [ebx+60], 0
  000d4	74 3b		 je	 SHORT $LN122@Spawn

; 410  : 			{
; 411  : 				if( pi->m_cb == 0 )

  000d6	83 7b 0c 00	 cmp	 DWORD PTR [ebx+12], 0
  000da	75 35		 jne	 SHORT $LN122@Spawn

; 412  : 				{
; 413  : 					if( DoRemove( pi->m_nGMIndex, nType ) )

  000dc	8b 8d 60 ff ff
	ff		 mov	 ecx, DWORD PTR _this$GSCopy$1$[ebp]
  000e2	56		 push	 esi
  000e3	ff b3 14 02 00
	00		 push	 DWORD PTR [ebx+532]
  000e9	e8 00 00 00 00	 call	 ?DoRemove@CRespawner@@AAEHHH@Z ; CRespawner::DoRemove
  000ee	85 c0		 test	 eax, eax
  000f0	74 1f		 je	 SHORT $LN122@Spawn

; 414  : 					{
; 415  : 						i--; 

  000f2	8b 85 78 ff ff
	ff		 mov	 eax, DWORD PTR _i$1$[ebp]
  000f8	81 ef 48 05 00
	00		 sub	 edi, 1352		; 00000548H

; 416  : 						nSize--;

  000fe	8b 8d 7c ff ff
	ff		 mov	 ecx, DWORD PTR _nSize$1$[ebp]
  00104	48		 dec	 eax
  00105	49		 dec	 ecx
  00106	89 8d 7c ff ff
	ff		 mov	 DWORD PTR _nSize$1$[ebp], ecx

; 417  : 						continue;

  0010c	e9 d4 05 00 00	 jmp	 $LN131@Spawn
$LN122@Spawn:

; 418  : 					}
; 419  : 				}
; 420  : 			}
; 421  : 
; 422  : 			int nDay  = g_GameTimer.m_nDay ;
; 423  : 			int nHour = g_GameTimer.m_nHour;
; 424  : 
; 425  : 			if( pi->m_nDayMin < pi->m_nDayMax )

  00111	8b 53 48	 mov	 edx, DWORD PTR [ebx+72]
  00114	8b 73 4c	 mov	 esi, DWORD PTR [ebx+76]
  00117	a1 20 00 00 00	 mov	 eax, DWORD PTR ?g_GameTimer@@3VCGameTimer@@A+32
  0011c	8b 0d 1c 00 00
	00		 mov	 ecx, DWORD PTR ?g_GameTimer@@3VCGameTimer@@A+28
  00122	3b d6		 cmp	 edx, esi
  00124	7d 11		 jge	 SHORT $LN15@Spawn

; 426  : 			{
; 427  : 				if( nDay < pi->m_nDayMin || nDay > pi->m_nDayMax )

  00126	3b c2		 cmp	 eax, edx
  00128	0f 8c a5 05 00
	00		 jl	 $LN132@Spawn
  0012e	3b c6		 cmp	 eax, esi
  00130	7e 11		 jle	 SHORT $LN19@Spawn

; 428  : 					continue;

  00132	e9 9c 05 00 00	 jmp	 $LN132@Spawn
$LN15@Spawn:

; 429  : 			}
; 430  : 			else
; 431  : 			{
; 432  : 				if( nDay < pi->m_nDayMin && nDay > pi->m_nDayMax )

  00137	3b c2		 cmp	 eax, edx
  00139	7d 08		 jge	 SHORT $LN19@Spawn
  0013b	3b c6		 cmp	 eax, esi
  0013d	0f 8f 90 05 00
	00		 jg	 $LN132@Spawn
$LN19@Spawn:

; 433  : 					continue;
; 434  : 			}
; 435  : 			if( pi->m_nHourMin < pi->m_nHourMax )

  00143	8b 43 50	 mov	 eax, DWORD PTR [ebx+80]
  00146	8b 53 54	 mov	 edx, DWORD PTR [ebx+84]
  00149	3b c2		 cmp	 eax, edx
  0014b	7d 11		 jge	 SHORT $LN20@Spawn

; 436  : 			{
; 437  : 				if( nHour < pi->m_nHourMin || nHour > pi->m_nHourMax )

  0014d	3b c8		 cmp	 ecx, eax
  0014f	0f 8c 7e 05 00
	00		 jl	 $LN132@Spawn
  00155	3b ca		 cmp	 ecx, edx
  00157	7e 11		 jle	 SHORT $LN24@Spawn

; 438  : 					continue;

  00159	e9 75 05 00 00	 jmp	 $LN132@Spawn
$LN20@Spawn:

; 439  : 			}
; 440  : 			else
; 441  : 			{
; 442  : 				if( nHour < pi->m_nHourMin && nHour > pi->m_nHourMax )

  0015e	3b c8		 cmp	 ecx, eax
  00160	7d 08		 jge	 SHORT $LN24@Spawn
  00162	3b ca		 cmp	 ecx, edx
  00164	0f 8f 69 05 00
	00		 jg	 $LN132@Spawn
$LN24@Spawn:

; 443  : 					continue;
; 444  : 			}
; 445  : 
; 446  : 			pi->m_cbTime--;									// ¸®˝şĆů Ĺ¸ŔĚ¸Ó ˝Ă°Ł °¨ĽŇ 

  0016a	66 83 6b 32 01	 sub	 WORD PTR [ebx+50], 1

; 447  : 			if( pi->m_cbTime < 0 )							// 0 ŔĚ¸é ¸®˝şĆů ˝ĂŔŰ

  0016f	0f 89 5e 05 00
	00		 jns	 $LN132@Spawn

; 448  : 			{
; 449  : 				short nTime = (short)( ( pi->m_uTime * xRandom( 50, 150 ) ) / 100 );

  00175	0f b7 73 30	 movzx	 esi, WORD PTR [ebx+48]
  00179	68 96 00 00 00	 push	 150			; 00000096H
  0017e	6a 32		 push	 50			; 00000032H
  00180	e8 00 00 00 00	 call	 ?xRandom@@YAKKK@Z	; xRandom
  00185	8b c8		 mov	 ecx, eax

; 450  : 			#ifdef __S1108_BACK_END_SYSTEM
; 451  : 				cb = 0;

  00187	33 ff		 xor	 edi, edi
  00189	0f af ce	 imul	 ecx, esi
  0018c	b8 1f 85 eb 51	 mov	 eax, 1374389535		; 51eb851fH
  00191	83 c4 08	 add	 esp, 8
  00194	f7 e1		 mul	 ecx
  00196	c1 ea 05	 shr	 edx, 5
  00199	0f b7 c2	 movzx	 eax, dx

; 452  : 				if( pi->m_nGMIndex != 0 )

  0019c	39 bb 14 02 00
	00		 cmp	 DWORD PTR [ebx+532], edi
  001a2	75 76		 jne	 SHORT $LN29@Spawn

; 453  : 				{
; 454  : 					pi->m_cbTime = nTime;					// Ĺ¸ŔĚ¸Ó reset	
; 455  : 					if( pi->m_nMaxcb - pi->m_cb > 0 )
; 456  : 						cb	= (short)( pi->m_nMaxcb - pi->m_cb );		// cb = Á×Ŕş °ąĽö
; 457  : 				}
; 458  : 				else
; 459  : 				{
; 460  : 					if( pWorld->GetID() == WI_WORLD_MADRIGAL )

  001a4	8b 8d 68 ff ff
	ff		 mov	 ecx, DWORD PTR _pWorld$GSCopy$1$[ebp]
  001aa	83 39 01	 cmp	 DWORD PTR [ecx], 1
  001ad	75 6b		 jne	 SHORT $LN29@Spawn

; 461  : 					{
; 462  : 						pi->m_cbTime = (short)(nTime * prj.m_fMonsterRebirthRate);			// Ĺ¸ŔĚ¸Ó reset

  001af	66 0f 6e 8b 0c
	02 00 00	 movd	 xmm1, DWORD PTR [ebx+524]
  001b7	98		 cwde

; 463  : 						if( (pi->m_nMaxcb * prj.m_fMonsterRespawnRate) - pi->m_cb > 0 )

  001b8	0f 5b c9	 cvtdq2ps xmm1, xmm1
  001bb	66 0f 6e c0	 movd	 xmm0, eax
  001bf	0f 5b c0	 cvtdq2ps xmm0, xmm0
  001c2	f3 0f 59 05 a4
	4b 0b 00	 mulss	 xmm0, DWORD PTR ?prj@@3VCProject@@A+740260
  001ca	f3 0f 2c c0	 cvttss2si eax, xmm0
  001ce	66 89 43 32	 mov	 WORD PTR [ebx+50], ax
  001d2	8b 43 0c	 mov	 eax, DWORD PTR [ebx+12]
  001d5	f3 0f 59 0d b0
	4b 0b 00	 mulss	 xmm1, DWORD PTR ?prj@@3VCProject@@A+740272
  001dd	66 0f 6e c0	 movd	 xmm0, eax
  001e1	0f 5b c0	 cvtdq2ps xmm0, xmm0
  001e4	f3 0f 5c c8	 subss	 xmm1, xmm0
  001e8	0f 57 c0	 xorps	 xmm0, xmm0
  001eb	0f 2f c8	 comiss	 xmm1, xmm0
  001ee	76 4c		 jbe	 SHORT $LN32@Spawn

; 464  : 							cb	= (short)( (pi->m_nMaxcb * prj.m_fMonsterRespawnRate) - pi->m_cb );	// cb = Á×Ŕş °ąĽö

  001f0	8b 43 0c	 mov	 eax, DWORD PTR [ebx+12]
  001f3	66 0f 6e 8b 0c
	02 00 00	 movd	 xmm1, DWORD PTR [ebx+524]
  001fb	0f 5b c9	 cvtdq2ps xmm1, xmm1
  001fe	66 0f 6e c0	 movd	 xmm0, eax
  00202	f3 0f 59 0d b0
	4b 0b 00	 mulss	 xmm1, DWORD PTR ?prj@@3VCProject@@A+740272
  0020a	0f 5b c0	 cvtdq2ps xmm0, xmm0
  0020d	f3 0f 5c c8	 subss	 xmm1, xmm0
  00211	f3 0f 2c c1	 cvttss2si eax, xmm1
  00215	0f b7 f8	 movzx	 edi, ax

; 465  : 					}

  00218	eb 22		 jmp	 SHORT $LN32@Spawn
$LN29@Spawn:

; 466  : 					else
; 467  : 					{
; 468  : 						pi->m_cbTime = nTime;							// Ĺ¸ŔĚ¸Ó reset
; 469  : 						if( pi->m_nMaxcb - pi->m_cb > 0 )
; 470  : 							cb	= (short)( pi->m_nMaxcb - pi->m_cb );				// cb = Á×Ŕş °ąĽö
; 471  : 					}
; 472  : 				}
; 473  : 			#else // __S1108_BACK_END_SYSTEM
; 474  : 				pi->m_cbTime = nTime;				// Ĺ¸ŔĚ¸Ó reset
; 475  : 				cb = pi->m_cb;						// cb = Á×Ŕş °ąĽö
; 476  : 			#endif // __S1108_BACK_END_SYSTEM
; 477  : 				
; 478  : 				if( pi->m_bHalf )

  0021a	66 89 43 32	 mov	 WORD PTR [ebx+50], ax
  0021e	8b 43 0c	 mov	 eax, DWORD PTR [ebx+12]
  00221	8b 8b 0c 02 00
	00		 mov	 ecx, DWORD PTR [ebx+524]
  00227	2b c8		 sub	 ecx, eax
  00229	85 c9		 test	 ecx, ecx
  0022b	7e 0f		 jle	 SHORT $LN32@Spawn
  0022d	8b 43 0c	 mov	 eax, DWORD PTR [ebx+12]
  00230	0f b7 8b 0c 02
	00 00		 movzx	 ecx, WORD PTR [ebx+524]
  00237	2b c8		 sub	 ecx, eax
  00239	0f b7 f9	 movzx	 edi, cx
$LN32@Spawn:
  0023c	8b 73 38	 mov	 esi, DWORD PTR [ebx+56]
  0023f	85 f6		 test	 esi, esi
  00241	74 11		 je	 SHORT $LN116@Spawn

; 479  : 				{
; 480  : 				#ifdef __S1108_BACK_END_SYSTEM
; 481  : 					cb	= (short)( ( pi->m_nMaxcb / 2 ) - ( pi->m_nMaxcb - cb ) );

  00243	8b 8b 0c 02 00
	00		 mov	 ecx, DWORD PTR [ebx+524]
  00249	8b c1		 mov	 eax, ecx
  0024b	99		 cdq
  0024c	2b c2		 sub	 eax, edx
  0024e	d1 f8		 sar	 eax, 1
  00250	2b c1		 sub	 eax, ecx
  00252	03 f8		 add	 edi, eax
$LN116@Spawn:

; 482  : 				#else	// __S1108_BACK_END_SYSTEM
; 483  : 					cb	= (short)( ( pi->m_cbRespawn / 2 ) - ( pi->m_cbRespawn - cb ) );
; 484  : 				#endif	// __S1108_BACK_END_SYSTEM
; 485  : 				}
; 486  : 				pi->m_bHalf	= !pi->m_bHalf;

  00254	33 c0		 xor	 eax, eax

; 487  : 
; 488  : 				dwFlying = 0;

  00256	c7 85 58 ff ff
	ff 00 00 00 00	 mov	 DWORD PTR _dwFlying$1$[ebp], 0
  00260	85 f6		 test	 esi, esi
  00262	0f 94 c0	 sete	 al

; 489  : 				if( pi->m_dwType == OT_MOVER )

  00265	83 7b 04 05	 cmp	 DWORD PTR [ebx+4], 5
  00269	89 43 38	 mov	 DWORD PTR [ebx+56], eax
  0026c	75 53		 jne	 SHORT $LN108@Spawn

; 490  : 				{
; 491  : 					pMoverProp = prj.GetMoverProp( pi->m_dwIndex );

  0026e	8b 43 08	 mov	 eax, DWORD PTR [ebx+8]
; File C:\IAGOS\server\v18\Source\Source\_Common\Project.h

; 1406 : 	VERIFY_RANGE( nIndex, 0, m_nMoverPropSize, "GetMoverProp range_error", NULL );

  00271	8b 0d b4 01 00
	00		 mov	 ecx, DWORD PTR ?prj@@3VCProject@@A+436
  00277	85 c0		 test	 eax, eax
  00279	78 26		 js	 SHORT $LN101@Spawn
  0027b	3b c1		 cmp	 eax, ecx
  0027d	7d 22		 jge	 SHORT $LN101@Spawn

; 1407 : 	return m_pPropMover + nIndex;

  0027f	69 c0 90 06 00
	00		 imul	 eax, eax, 1680
  00285	03 05 b8 01 00
	00		 add	 eax, DWORD PTR ?prj@@3VCProject@@A+440
  0028b	89 85 54 ff ff
	ff		 mov	 DWORD PTR _pMoverProp$[ebp], eax
; File C:\IAGOS\server\v18\Source\Source\_Common\Respawn.cpp

; 492  : 					if( pMoverProp )

  00291	74 2e		 je	 SHORT $LN108@Spawn

; 493  : 						dwFlying	= pMoverProp->dwFlying;

  00293	8b 80 10 01 00
	00		 mov	 eax, DWORD PTR [eax+272]
  00299	89 85 58 ff ff
	ff		 mov	 DWORD PTR _dwFlying$1$[ebp], eax
  0029f	eb 20		 jmp	 SHORT $LN108@Spawn
$LN101@Spawn:
; File C:\IAGOS\server\v18\Source\Source\_Common\Project.h

; 579  : 	LPCTSTR szErr = Error( _T( "%s min:%d, max:%d, index:%d" ), szMsg, nMin, nMax, nIndex ); 

  002a1	50		 push	 eax
  002a2	51		 push	 ecx
  002a3	6a 00		 push	 0
  002a5	68 00 00 00 00	 push	 OFFSET ??_C@_0BJ@GKPOBPPI@GetMoverProp?5range_error@
  002aa	68 00 00 00 00	 push	 OFFSET ??_C@_0BM@HMFGHCP@?$CFs?5min?3?$CFd?0?5max?3?$CFd?0?5index?3?$CFd@
  002af	e8 00 00 00 00	 call	 ?Error@@YAPBDPBDZZ	; Error
  002b4	83 c4 14	 add	 esp, 20			; 00000014H

; 1406 : 	VERIFY_RANGE( nIndex, 0, m_nMoverPropSize, "GetMoverProp range_error", NULL );

  002b7	c7 85 54 ff ff
	ff 00 00 00 00	 mov	 DWORD PTR _pMoverProp$[ebp], 0
$LN108@Spawn:
; File C:\IAGOS\server\v18\Source\Source\_Common\Respawn.cpp

; 503  : 				while( cb-- > 0 )

  002c1	66 85 ff	 test	 di, di
  002c4	0f 8e 03 04 00
	00		 jle	 $LN129@Spawn
  002ca	66 0f 1f 44 00
	00		 npad	 6
$LL8@Spawn:

; 504  : 				{
; 505  : 					if( pi->m_dwIndex == 0 )

  002d0	8b 43 08	 mov	 eax, DWORD PTR [ebx+8]
  002d3	4f		 dec	 edi
  002d4	89 bd 50 ff ff
	ff		 mov	 DWORD PTR _cb$1$[ebp], edi
  002da	85 c0		 test	 eax, eax
  002dc	75 12		 jne	 SHORT $LN36@Spawn

; 506  : 					{
; 507  : 						Error( "CRespawner::Spawn()\t// 0 index\n" );

  002de	68 00 00 00 00	 push	 OFFSET ??_C@_0CA@NLFIDABF@CRespawner?3?3Spawn?$CI?$CJ?7?1?1?50?5index?6@
  002e3	e8 00 00 00 00	 call	 ?Error@@YAPBDPBDZZ	; Error
  002e8	83 c4 04	 add	 esp, 4

; 508  : 						continue;

  002eb	e9 d4 03 00 00	 jmp	 $LN110@Spawn
$LN36@Spawn:

; 509  : 					}
; 510  : 					pObj	= CreateObj( D3DDEVICE, pi->m_dwType, pi->m_dwIndex );

  002f0	6a 01		 push	 1
  002f2	50		 push	 eax
  002f3	ff 73 04	 push	 DWORD PTR [ebx+4]
  002f6	6a 00		 push	 0
  002f8	e8 00 00 00 00	 call	 ?CreateObj@@YAPAVCObj@@PAUIDirect3DDevice9@@KKH@Z ; CreateObj
  002fd	8b f8		 mov	 edi, eax
  002ff	83 c4 10	 add	 esp, 16			; 00000010H

; 511  : 					
; 512  : 					if( pi->m_dwType == OT_ITEM )

  00302	8b 43 04	 mov	 eax, DWORD PTR [ebx+4]
  00305	89 bd 6c ff ff
	ff		 mov	 DWORD PTR _pObj$1$[ebp], edi
  0030b	83 f8 04	 cmp	 eax, 4
  0030e	0f 85 01 01 00
	00		 jne	 $LN37@Spawn

; 513  : 					{
; 514  : 						CItemElem* pItemElem	= new CItemElem;

  00314	68 b0 00 00 00	 push	 176			; 000000b0H
  00319	e8 00 00 00 00	 call	 ??2@YAPAXI@Z		; operator new
  0031e	83 c4 04	 add	 esp, 4
  00321	89 85 4c ff ff
	ff		 mov	 DWORD PTR $T2[ebp], eax
  00327	c7 45 fc 00 00
	00 00		 mov	 DWORD PTR __$EHRec$[ebp+8], 0
  0032e	85 c0		 test	 eax, eax
  00330	74 0b		 je	 SHORT $LN59@Spawn
  00332	8b c8		 mov	 ecx, eax
  00334	e8 00 00 00 00	 call	 ??0CItemElem@@QAE@XZ	; CItemElem::CItemElem
  00339	8b f0		 mov	 esi, eax
  0033b	eb 02		 jmp	 SHORT $LN60@Spawn
$LN59@Spawn:
  0033d	33 f6		 xor	 esi, esi
$LN60@Spawn:

; 515  : 						pItemElem->m_dwItemId	= pi->m_dwIndex;

  0033f	8b 43 08	 mov	 eax, DWORD PTR [ebx+8]
; File C:\IAGOS\server\v18\Source\Source\_Common\xUtil.h

; 16   : 	g_next = g_next * 1103515245 + 12345;// + nRandomSeed[ i++ ];

  00342	33 d2		 xor	 edx, edx
; File C:\IAGOS\server\v18\Source\Source\_Common\Respawn.cpp

; 515  : 						pItemElem->m_dwItemId	= pi->m_dwIndex;

  00344	89 46 0c	 mov	 DWORD PTR [esi+12], eax
; File C:\IAGOS\server\v18\Source\Source\_Common\xUtil.h

; 16   : 	g_next = g_next * 1103515245 + 12345;// + nRandomSeed[ i++ ];

  00347	69 05 00 00 00
	00 6d 4e c6 41	 imul	 eax, DWORD PTR ?g_next@@3KA, 1103515245 ; g_next
; File C:\IAGOS\server\v18\Source\Source\_Common\Respawn.cpp

; 516  : 						pItemElem->m_nItemNum	= (short)( pi->m_nItemMin + xRandom( pi->m_nItemMax - pi->m_nItemMin + 1 ) );

  00351	8b 4b 44	 mov	 ecx, DWORD PTR [ebx+68]
  00354	2b 4b 40	 sub	 ecx, DWORD PTR [ebx+64]
  00357	41		 inc	 ecx
  00358	c7 45 fc ff ff
	ff ff		 mov	 DWORD PTR __$EHRec$[ebp+8], -1
; File C:\IAGOS\server\v18\Source\Source\_Common\xUtil.h

; 16   : 	g_next = g_next * 1103515245 + 12345;// + nRandomSeed[ i++ ];

  0035f	05 39 30 00 00	 add	 eax, 12345		; 00003039H
  00364	a3 00 00 00 00	 mov	 DWORD PTR ?g_next@@3KA, eax ; g_next
  00369	f7 f1		 div	 ecx
; File C:\IAGOS\server\v18\Source\Source\_Common\Item.h

; 230  : 	ItemProp*	GetProp()	{	return prj.GetItemProp( m_dwItemId );	}

  0036b	8b 4e 0c	 mov	 ecx, DWORD PTR [esi+12]
; File C:\IAGOS\server\v18\Source\Source\_Common\Respawn.cpp

; 516  : 						pItemElem->m_nItemNum	= (short)( pi->m_nItemMin + xRandom( pi->m_nItemMax - pi->m_nItemMin + 1 ) );

  0036e	66 03 53 40	 add	 dx, WORD PTR [ebx+64]
  00372	66 89 56 74	 mov	 WORD PTR [esi+116], dx
; File C:\IAGOS\server\v18\Source\Source\_Common\Project.h

; 1389 : 	VERIFY_RANGE_ASSERT( nIndex, 0, m_aPropItem.GetSize(), "GetItemProp range_error", NULL );

  00376	a1 40 02 00 00	 mov	 eax, DWORD PTR ?prj@@3VCProject@@A+576
  0037b	85 c9		 test	 ecx, ecx
  0037d	78 10		 js	 SHORT $LN81@Spawn
  0037f	3b c8		 cmp	 ecx, eax
  00381	7d 0c		 jge	 SHORT $LN81@Spawn
; File C:\IAGOS\server\v18\Source\Source\_Common\data.h

; 270  : 	if( dwIndex >= (DWORD)m_nMaxIndex )

  00383	73 20		 jae	 SHORT $LN134@Spawn

; 271  : 		return NULL;
; 272  : 	return (T*) m_apOffset[ dwIndex ];

  00385	a1 30 02 00 00	 mov	 eax, DWORD PTR ?prj@@3VCProject@@A+560
  0038a	8b 04 88	 mov	 eax, DWORD PTR [eax+ecx*4]
; File C:\IAGOS\server\v18\Source\Source\_Common\Project.h

; 1390 : 	return m_aPropItem.GetAt( nIndex ); 

  0038d	eb 18		 jmp	 SHORT $LN135@Spawn
$LN81@Spawn:

; 579  : 	LPCTSTR szErr = Error( _T( "%s min:%d, max:%d, index:%d" ), szMsg, nMin, nMax, nIndex ); 

  0038f	51		 push	 ecx
  00390	50		 push	 eax
  00391	6a 00		 push	 0
  00393	68 00 00 00 00	 push	 OFFSET ??_C@_0BI@BEIFNGEL@GetItemProp?5range_error@
  00398	68 00 00 00 00	 push	 OFFSET ??_C@_0BM@HMFGHCP@?$CFs?5min?3?$CFd?0?5max?3?$CFd?0?5index?3?$CFd@
  0039d	e8 00 00 00 00	 call	 ?Error@@YAPBDPBDZZ	; Error
  003a2	83 c4 14	 add	 esp, 20			; 00000014H
$LN134@Spawn:
; File C:\IAGOS\server\v18\Source\Source\_Common\Respawn.cpp

; 518  : 						if( !pItemProp )

  003a5	33 c0		 xor	 eax, eax
$LN135@Spawn:
  003a7	89 85 6c ff ff
	ff		 mov	 DWORD PTR $T4[ebp], eax
  003ad	85 c0		 test	 eax, eax
  003af	75 30		 jne	 SHORT $LN39@Spawn

; 519  : 						{
; 520  : 							char lpOutputString[100]	= { 0,};

  003b1	6a 64		 push	 100			; 00000064H
  003b3	50		 push	 eax
  003b4	8d 45 8c	 lea	 eax, DWORD PTR _lpOutputString$5[ebp]
  003b7	50		 push	 eax
  003b8	e8 00 00 00 00	 call	 _memset

; 521  : 							sprintf( lpOutputString, "%d item property not found", pi->m_dwIndex );

  003bd	ff 73 08	 push	 DWORD PTR [ebx+8]
  003c0	8d 45 8c	 lea	 eax, DWORD PTR _lpOutputString$5[ebp]
  003c3	68 00 00 00 00	 push	 OFFSET ??_C@_0BL@ECDHPEEF@?$CFd?5item?5property?5not?5found@
  003c8	50		 push	 eax
  003c9	e8 00 00 00 00	 call	 _sprintf
  003ce	83 c4 18	 add	 esp, 24			; 00000018H

; 522  : 							OutputDebugString( lpOutputString );

  003d1	8d 45 8c	 lea	 eax, DWORD PTR _lpOutputString$5[ebp]
  003d4	50		 push	 eax
  003d5	ff 15 00 00 00
	00		 call	 DWORD PTR __imp__OutputDebugStringA@4
  003db	8b 85 6c ff ff
	ff		 mov	 eax, DWORD PTR $T4[ebp]
$LN39@Spawn:

; 523  : 						}
; 524  : 						pItemElem->m_nHitPoint	= pItemProp->dwEndurance;

  003e1	8b 80 90 00 00
	00		 mov	 eax, DWORD PTR [eax+144]

; 525  : 						pItemElem->SetSerialNumber();

  003e7	8b ce		 mov	 ecx, esi
  003e9	89 46 70	 mov	 DWORD PTR [esi+112], eax
  003ec	e8 00 00 00 00	 call	 ?SetSerialNumber@CItemBase@@QAEXXZ ; CItemBase::SetSerialNumber

; 526  : 						( (CItem*)pObj )->m_pItemBase	= pItemElem;
; 527  : 						if( pItemElem->m_nItemNum > (int)( pItemProp->dwPackMax ) )

  003f1	8b 85 6c ff ff
	ff		 mov	 eax, DWORD PTR $T4[ebp]
  003f7	89 b7 30 02 00
	00		 mov	 DWORD PTR [edi+560], esi
  003fd	8b 48 6c	 mov	 ecx, DWORD PTR [eax+108]
  00400	0f bf 46 74	 movsx	 eax, WORD PTR [esi+116]
  00404	3b c1		 cmp	 eax, ecx
  00406	0f 8e 93 00 00
	00		 jle	 $LN43@Spawn

; 528  : 						{
; 529  : 							pItemElem->m_nItemNum	= (int)( pItemProp->dwPackMax );

  0040c	66 89 4e 74	 mov	 WORD PTR [esi+116], cx

; 530  : 						}
; 531  : 					}

  00410	e9 8a 00 00 00	 jmp	 $LN43@Spawn
$LN37@Spawn:

; 532  : 					else
; 533  : 					if( pi->m_dwType == OT_CTRL )

  00415	83 f8 02	 cmp	 eax, 2
  00418	75 6d		 jne	 SHORT $LN41@Spawn

; 535  : 						memcpy( &(((CCommonCtrl*)pObj)->m_CtrlElem), &(pi->m_CtrlElem), sizeof( CCtrlElem ) );

  0041a	81 c7 34 02 00
	00		 add	 edi, 564		; 00000234H
  00420	8d 73 5c	 lea	 esi, DWORD PTR [ebx+92]
  00423	b9 6c 00 00 00	 mov	 ecx, 108		; 0000006cH
; File C:\IAGOS\server\v18\Source\Source\_Common\xUtil.h

; 22   : 	return  xRand() % num;

  00428	b8 6d c1 16 6c	 mov	 eax, 1813430637		; 6c16c16dH
; File C:\IAGOS\server\v18\Source\Source\_Common\Respawn.cpp

; 535  : 						memcpy( &(((CCommonCtrl*)pObj)->m_CtrlElem), &(pi->m_CtrlElem), sizeof( CCtrlElem ) );

  0042d	f3 a5		 rep movsd
; File C:\IAGOS\server\v18\Source\Source\_Common\xUtil.h

; 16   : 	g_next = g_next * 1103515245 + 12345;// + nRandomSeed[ i++ ];

  0042f	69 0d 00 00 00
	00 6d 4e c6 41	 imul	 ecx, DWORD PTR ?g_next@@3KA, 1103515245 ; g_next
; File C:\IAGOS\server\v18\Source\Source\_Common\Respawn.cpp

; 536  : 						((CCommonCtrl*)pObj)->SetAngle( (float)( xRandom(360) ) );

  00439	8b bd 6c ff ff
	ff		 mov	 edi, DWORD PTR _pObj$1$[ebp]
; File C:\IAGOS\server\v18\Source\Source\_Common\xUtil.h

; 16   : 	g_next = g_next * 1103515245 + 12345;// + nRandomSeed[ i++ ];

  0043f	81 c1 39 30 00
	00		 add	 ecx, 12345		; 00003039H

; 22   : 	return  xRand() % num;

  00445	f7 e1		 mul	 ecx
  00447	8b c1		 mov	 eax, ecx

; 16   : 	g_next = g_next * 1103515245 + 12345;// + nRandomSeed[ i++ ];

  00449	89 0d 00 00 00
	00		 mov	 DWORD PTR ?g_next@@3KA, ecx ; g_next

; 22   : 	return  xRand() % num;

  0044f	2b c2		 sub	 eax, edx
  00451	d1 e8		 shr	 eax, 1
  00453	03 c2		 add	 eax, edx
  00455	c1 e8 08	 shr	 eax, 8
  00458	69 c0 68 01 00
	00		 imul	 eax, eax, 360
  0045e	2b c8		 sub	 ecx, eax
  00460	66 0f 6e c1	 movd	 xmm0, ecx
; File C:\IAGOS\server\v18\Source\Source\_Common\Respawn.cpp

; 536  : 						((CCommonCtrl*)pObj)->SetAngle( (float)( xRandom(360) ) );

  00464	f3 0f e6 c0	 cvtdq2pd xmm0, xmm0
  00468	c1 e9 1f	 shr	 ecx, 31			; 0000001fH
  0046b	51		 push	 ecx
  0046c	f2 0f 58 04 cd
	00 00 00 00	 addsd	 xmm0, QWORD PTR __xmm@41f00000000000000000000000000000[ecx*8]
  00475	8b cf		 mov	 ecx, edi
  00477	66 0f 5a c0	 cvtpd2ps xmm0, xmm0
  0047b	f3 0f 11 04 24	 movss	 DWORD PTR [esp], xmm0
  00480	e8 00 00 00 00	 call	 ?SetAngle@CObj@@QAEXM@Z	; CObj::SetAngle

; 537  : 					}

  00485	eb 18		 jmp	 SHORT $LN43@Spawn
$LN41@Spawn:

; 538  : 					else
; 539  : 					if( pi->m_dwType == OT_MOVER )

  00487	83 f8 05	 cmp	 eax, 5
  0048a	75 13		 jne	 SHORT $LN43@Spawn

; 540  : 					{
; 541  : 						((CMover*)pObj)->SetGold(((CMover*)pObj)->GetLevel()*15);  // ¸ó˝şĹÍ »ýĽş˝Ă ±âş» ĆäłÄ¸¦ ĽłÁ¤

  0048c	8b 87 d8 05 00
	00		 mov	 eax, DWORD PTR [edi+1496]
  00492	8b c8		 mov	 ecx, eax
  00494	c1 e1 04	 shl	 ecx, 4
  00497	2b c8		 sub	 ecx, eax
  00499	89 8f e0 14 00
	00		 mov	 DWORD PTR [edi+5344], ecx
$LN43@Spawn:

; 542  : 					}
; 543  : 
; 544  : 					if( !pObj )

  0049f	85 ff		 test	 edi, edi
  004a1	75 13		 jne	 SHORT $LN44@Spawn

; 545  : 						WriteLog( "SPAWN: %d, %d", pi->m_dwType, pi->m_dwIndex );

  004a3	ff 73 08	 push	 DWORD PTR [ebx+8]
  004a6	ff 73 04	 push	 DWORD PTR [ebx+4]
  004a9	68 00 00 00 00	 push	 OFFSET ??_C@_0O@NBAJGPNK@SPAWN?3?5?$CFd?0?5?$CFd@
  004ae	e8 00 00 00 00	 call	 ?WriteLog@@YAXPBDZZ	; WriteLog
  004b3	83 c4 0c	 add	 esp, 12			; 0000000cH
$LN44@Spawn:

; 546  : 
; 547  : 					pObj->m_dwAIInterfaceState = pi->m_dwAiState;

  004b6	8b 93 18 02 00
	00		 mov	 edx, DWORD PTR [ebx+536]
  004bc	89 97 90 01 00
	00		 mov	 DWORD PTR [edi+400], edx

; 548  : 					pObj->m_dwPatrolIndex      = pi->m_dwPatrolIndex;

  004c2	8b 83 20 02 00
	00		 mov	 eax, DWORD PTR [ebx+544]
  004c8	89 87 94 01 00
	00		 mov	 DWORD PTR [edi+404], eax

; 549  : 					pObj->m_bPatrolCycle       = pi->m_bPatrolCycle;

  004ce	8a 87 9c 01 00
	00		 mov	 al, BYTE PTR [edi+412]
  004d4	8a 8b 24 02 00
	00		 mov	 cl, BYTE PTR [ebx+548]
  004da	32 c8		 xor	 cl, al
  004dc	80 e1 01	 and	 cl, 1
  004df	32 c8		 xor	 cl, al
  004e1	88 8f 9c 01 00
	00		 mov	 BYTE PTR [edi+412], cl

; 550  : 						
; 551  : 					if( ( pObj->m_dwAIInterfaceState == 9 || pObj->m_dwAIInterfaceState == 8 ) && pi->m_nMaxcb == 1 )

  004e7	83 fa 09	 cmp	 edx, 9
  004ea	74 05		 je	 SHORT $LN46@Spawn
  004ec	83 fa 08	 cmp	 edx, 8
  004ef	75 1e		 jne	 SHORT $LN45@Spawn
$LN46@Spawn:
  004f1	83 bb 0c 02 00
	00 01		 cmp	 DWORD PTR [ebx+524], 1
  004f8	75 15		 jne	 SHORT $LN45@Spawn

; 552  : 						pObj->SetAngle( pi->m_fAngle );					

  004fa	f3 0f 10 83 1c
	02 00 00	 movss	 xmm0, DWORD PTR [ebx+540]
  00502	51		 push	 ecx
  00503	8b cf		 mov	 ecx, edi
  00505	f3 0f 11 04 24	 movss	 DWORD PTR [esp], xmm0
  0050a	e8 00 00 00 00	 call	 ?SetAngle@CObj@@QAEXM@Z	; CObj::SetAngle
$LN45@Spawn:

; 553  : 
; 554  : #ifdef __RES0807
; 555  : 					pi->GetPos( v );

  0050f	6a 01		 push	 1
  00511	8d 45 80	 lea	 eax, DWORD PTR _v$[ebp]
  00514	8b cb		 mov	 ecx, ebx
  00516	50		 push	 eax
  00517	e8 00 00 00 00	 call	 ?GetPos@CRespawnInfo@@QAEXAAUD3DXVECTOR3@@H@Z ; CRespawnInfo::GetPos

; 556  : #else	// __RES0807
; 557  : 					nRetry	= 0;
; 558  : lbl_retry:
; 559  : 					pi->GetPos( v ); // vżˇ ·Ł´ý ÁÂÇĄ¸¦ ľň´Â´Ů.
; 560  : 					nAttr	= pWorld->GetHeightAttribute( v.x, v.z );
; 561  : 
; 562  : 					if( nAttr == -1 || nAttr == HATTR_NOMOVE || nAttr == nCheckAttr ) 
; 563  : 					{
; 564  : 						v = pi->m_vPos;
; 565  : 						if( v == D3DXVECTOR3( 0.0f, 0.0f, 0.0f ) )
; 566  : 						{
; 567  : 							if( ++nRetry < 100 )
; 568  : 								goto lbl_retry;
; 569  : 						#ifdef __S1108_BACK_END_SYSTEM
; 570  : 							if( pi->m_nGMIndex != 0 )
; 571  : 								Remove( pi->m_nGMIndex, TRUE );
; 572  : 							WriteLog( "GM RESPAWN(%d): %d, %d, %d, %d, %d, %d",
; 573  : 								pi->m_nGMIndex, pi->m_dwType, pi->m_dwIndex, pi->m_rect.left, pi->m_rect.top, pi->m_rect.right, pi->m_rect.bottom );
; 574  : 						#else // __S1108_BACK_END_SYSTEM
; 575  : 							WriteLog( "SPAWN: %d, %d, %d, %d, %d, %d",
; 576  : 								pi->m_dwType, pi->m_dwIndex, pi->m_rect.left, pi->m_rect.top, pi->m_rect.right, pi->m_rect.bottom );
; 577  : 						#endif // __S1108_BACK_END_SYSTEM
; 578  : 
; 579  : 							SAFE_DELETE( pObj );
; 580  : 							pi->m_dwIndex		= 0;	// REMOVE
; 581  : 							break;
; 582  : 						}
; 583  : 					}
; 584  : 					else
; 585  : 					{
; 586  : 						pi->m_vPos	= v;
; 587  : 					}
; 588  : #endif	// __RES0807
; 589  : 
; 590  : 					if( dwFlying )

  0051c	83 bd 58 ff ff
	ff 00		 cmp	 DWORD PTR _dwFlying$1$[ebp], 0
  00523	8b b5 68 ff ff
	ff		 mov	 esi, DWORD PTR _pWorld$GSCopy$1$[ebp]
  00529	0f 84 91 00 00
	00		 je	 $LN47@Spawn
; File C:\IAGOS\server\v18\Source\Source\_Common\xUtil.h

; 16   : 	g_next = g_next * 1103515245 + 12345;// + nRandomSeed[ i++ ];

  0052f	69 0d 00 00 00
	00 6d 4e c6 41	 imul	 ecx, DWORD PTR ?g_next@@3KA, 1103515245 ; g_next

; 22   : 	return  xRand() % num;

  00539	b8 87 61 18 86	 mov	 eax, -2045222521	; 86186187H
; File C:\IAGOS\server\v18\Source\Source\_Common\Respawn.cpp

; 593  : 						float y	= pWorld->GetLandHeight( v.x, v.z );

  0053e	83 ec 08	 sub	 esp, 8
; File C:\IAGOS\server\v18\Source\Source\_Common\xUtil.h

; 16   : 	g_next = g_next * 1103515245 + 12345;// + nRandomSeed[ i++ ];

  00541	81 c1 39 30 00
	00		 add	 ecx, 12345		; 00003039H

; 22   : 	return  xRand() % num;

  00547	f7 e1		 mul	 ecx
  00549	8b c1		 mov	 eax, ecx

; 16   : 	g_next = g_next * 1103515245 + 12345;// + nRandomSeed[ i++ ];

  0054b	89 0d 00 00 00
	00		 mov	 DWORD PTR ?g_next@@3KA, ecx ; g_next

; 22   : 	return  xRand() % num;

  00551	2b c2		 sub	 eax, edx
  00553	d1 e8		 shr	 eax, 1
  00555	03 c2		 add	 eax, edx
  00557	c1 e8 04	 shr	 eax, 4
  0055a	6b c0 15	 imul	 eax, eax, 21
  0055d	2b c8		 sub	 ecx, eax
  0055f	66 0f 6e c1	 movd	 xmm0, ecx
; File C:\IAGOS\server\v18\Source\Source\_Common\Respawn.cpp

; 592  : 						v.y	+= xRandom( 21 );	

  00563	f3 0f e6 c0	 cvtdq2pd xmm0, xmm0
  00567	c1 e9 1f	 shr	 ecx, 31			; 0000001fH
  0056a	f2 0f 58 04 cd
	00 00 00 00	 addsd	 xmm0, QWORD PTR __xmm@41f00000000000000000000000000000[ecx*8]

; 593  : 						float y	= pWorld->GetLandHeight( v.x, v.z );

  00573	8b ce		 mov	 ecx, esi
  00575	66 0f 5a c0	 cvtpd2ps xmm0, xmm0
  00579	f3 0f 58 45 84	 addss	 xmm0, DWORD PTR _v$[ebp+4]
  0057e	f3 0f 11 45 84	 movss	 DWORD PTR _v$[ebp+4], xmm0
  00583	f3 0f 10 45 88	 movss	 xmm0, DWORD PTR _v$[ebp+8]
  00588	f3 0f 11 44 24
	04		 movss	 DWORD PTR [esp+4], xmm0
  0058e	f3 0f 10 45 80	 movss	 xmm0, DWORD PTR _v$[ebp]
  00593	f3 0f 11 04 24	 movss	 DWORD PTR [esp], xmm0
  00598	e8 00 00 00 00	 call	 ?GetLandHeight@CWorld@@QAEMMM@Z ; CWorld::GetLandHeight
  0059d	d9 9d 6c ff ff
	ff		 fstp	 DWORD PTR _y$3[ebp]

; 594  : 						if( v.y < y )	

  005a3	f3 0f 10 85 6c
	ff ff ff	 movss	 xmm0, DWORD PTR _y$3[ebp]
  005ab	0f 2f 45 84	 comiss	 xmm0, DWORD PTR _v$[ebp+4]
  005af	76 2f		 jbe	 SHORT $LN48@Spawn

; 595  : 							v.y	= y	+ 10.0f;

  005b1	f3 0f 58 05 00
	00 00 00	 addss	 xmm0, DWORD PTR __real@41200000
  005b9	f3 0f 11 45 84	 movss	 DWORD PTR _v$[ebp+4], xmm0

; 596  : 					}

  005be	eb 20		 jmp	 SHORT $LN48@Spawn
$LN47@Spawn:

; 597  : 					else
; 598  : 					{
; 599  : 						v.y = pi->m_fY + 1.0f;	// ľŕ°Ł ´őÇŘÁÖŔÚ. ľČ±×·Ż¸é ¶Ő°í µéľî°Ą Ľö ŔÖŔ˝ 

  005c0	f3 0f 10 43 58	 movss	 xmm0, DWORD PTR [ebx+88]

; 600  : 						v.y	= pWorld->GetUnderHeight( v );

  005c5	8d 45 80	 lea	 eax, DWORD PTR _v$[ebp]
  005c8	f3 0f 58 05 00
	00 00 00	 addss	 xmm0, DWORD PTR __real@3f800000
  005d0	50		 push	 eax
  005d1	8b ce		 mov	 ecx, esi
  005d3	f3 0f 11 45 84	 movss	 DWORD PTR _v$[ebp+4], xmm0
  005d8	e8 00 00 00 00	 call	 ?GetUnderHeight@CWorld@@QAEMABUD3DXVECTOR3@@@Z ; CWorld::GetUnderHeight
  005dd	d9 5d 84	 fstp	 DWORD PTR _v$[ebp+4]
$LN48@Spawn:
; File C:\IAGOS\server\v18\Source\Source\_Common\Ctrl.h

; 94   : 	void			SetRespawn( LONG n, BYTE nType )	{ m_lRespawn = n; m_nRespawnType = nType; }	

  005e0	8b 83 14 02 00
	00		 mov	 eax, DWORD PTR [ebx+532]
  005e6	8b 8d 70 ff ff
	ff		 mov	 ecx, DWORD PTR _nType$1$[ebp]
  005ec	89 87 04 02 00
	00		 mov	 DWORD PTR [edi+516], eax
  005f2	0f b6 c1	 movzx	 eax, cl
  005f5	89 87 08 02 00
	00		 mov	 DWORD PTR [edi+520], eax
; File C:\IAGOS\server\v18\Source\Source\_Common\Respawn.cpp

; 607  : 						if( nType == RESPAWNTYPE_BACKEND )	// żîżµŔÚ°ˇ ĽłÁ¤Ŕ» ÇŘłőŔş°ÍŔş ŔűżëŔ» ľČ˝ĂĹ´(Ľ±°ř°ąĽö¸¦ Ŕűżë˝ĂĹłĽö ľřŔ˝)

  005fb	83 f9 02	 cmp	 ecx, 2
  005fe	75 30		 jne	 SHORT $LN50@Spawn

; 608  : 						{
; 609  : 							nMaxAttckNum = int( float( pi->m_nMaxcb * prj.m_fMonsterRespawnRate ) * float((float)pi->m_nMaxAttackNum / 100.0f) );

  00600	66 0f 6e 83 10
	02 00 00	 movd	 xmm0, DWORD PTR [ebx+528]
  00608	66 0f 6e 8b 0c
	02 00 00	 movd	 xmm1, DWORD PTR [ebx+524]
  00610	0f 5b c0	 cvtdq2ps xmm0, xmm0
  00613	0f 5b c9	 cvtdq2ps xmm1, xmm1
  00616	f3 0f 5e 05 00
	00 00 00	 divss	 xmm0, DWORD PTR __real@42c80000
  0061e	f3 0f 59 0d b0
	4b 0b 00	 mulss	 xmm1, DWORD PTR ?prj@@3VCProject@@A+740272
  00626	f3 0f 59 c8	 mulss	 xmm1, xmm0
  0062a	f3 0f 2c c1	 cvttss2si eax, xmm1

; 610  : 						}

  0062e	eb 3d		 jmp	 SHORT $LN54@Spawn
$LN50@Spawn:

; 611  : 						else
; 612  : 						{
; 613  : 							if( pi->m_nMaxAttackNum == 1 && pi->m_nMaxcb == 1 ) // °Ĺ´ë ¸ó˝şĹÍ? ¸ó˝şĹÍ ¸¶¸®Ľö°ˇ 1¸íŔĚ°í Ľ±°ř ¸ó˝şĹÍ˝Ă ą«Á¶°Ç Ľ±°ř ¸ó˝şĹÍ ŔÓ

  00630	8b 83 10 02 00
	00		 mov	 eax, DWORD PTR [ebx+528]
  00636	83 f8 01	 cmp	 eax, 1
  00639	75 0e		 jne	 SHORT $LN121@Spawn
  0063b	39 83 0c 02 00
	00		 cmp	 DWORD PTR [ebx+524], eax
  00641	75 06		 jne	 SHORT $LN121@Spawn

; 614  : 							{
; 615  : 								nMaxAttckNum = pi->m_nActiveAttackNum + 1;

  00643	8b 43 10	 mov	 eax, DWORD PTR [ebx+16]
  00646	40		 inc	 eax

; 616  : 							}

  00647	eb 24		 jmp	 SHORT $LN54@Spawn
$LN121@Spawn:

; 617  : 							else
; 618  : 							{
; 619  : 								if( pWorld->GetID() == WI_WORLD_MADRIGAL )

  00649	83 3e 01	 cmp	 DWORD PTR [esi], 1
  0064c	75 1f		 jne	 SHORT $LN54@Spawn

; 620  : 								{
; 621  : 									nMaxAttckNum = int( ( pi->m_nMaxcb * prj.m_fMonsterRespawnRate ) * prj.m_fMonsterAggressiveRate );

  0064e	66 0f 6e 83 0c
	02 00 00	 movd	 xmm0, DWORD PTR [ebx+524]
  00656	0f 5b c0	 cvtdq2ps xmm0, xmm0
  00659	f3 0f 59 05 b0
	4b 0b 00	 mulss	 xmm0, DWORD PTR ?prj@@3VCProject@@A+740272
  00661	f3 0f 59 05 ac
	4b 0b 00	 mulss	 xmm0, DWORD PTR ?prj@@3VCProject@@A+740268
  00669	f3 0f 2c c0	 cvttss2si eax, xmm0
$LN54@Spawn:

; 622  : 								}
; 623  : 								else
; 624  : 								{
; 625  : 									nMaxAttckNum = pi->m_nMaxAttackNum;
; 626  : 								}
; 627  : 							}
; 628  : 						}		
; 629  : 						
; 630  : 						if( pObj->GetType() == OT_MOVER && ( pi->m_nActiveAttackNum < nMaxAttckNum ) )

  0066d	83 bf 70 01 00
	00 05		 cmp	 DWORD PTR [edi+368], 5
  00674	75 24		 jne	 SHORT $LN57@Spawn
  00676	39 43 10	 cmp	 DWORD PTR [ebx+16], eax
  00679	8d 4b 10	 lea	 ecx, DWORD PTR [ebx+16]
  0067c	7d 1c		 jge	 SHORT $LN57@Spawn

; 631  : 						{
; 632  : 							InterlockedIncrement( &pi->m_nActiveAttackNum );

  0067e	f0 ff 01	 lock	  inc	 DWORD PTR [ecx]

; 633  : 							if( pMoverProp->dwLevel >= 7 )	// ·ąş§ŔĚ 7 ŔĚ»óŔÎ°Í¸¸ Ľ±°řŔ¸·Î ¸®˝şĆůµĘ.

  00681	8b 85 54 ff ff
	ff		 mov	 eax, DWORD PTR _pMoverProp$[ebp]
  00687	83 b8 88 00 00
	00 07		 cmp	 DWORD PTR [eax+136], 7
  0068e	72 0a		 jb	 SHORT $LN57@Spawn

; 634  : 								((CMover*)pObj)->m_bActiveAttack	= TRUE;

  00690	c7 87 68 06 00
	00 01 00 00 00	 mov	 DWORD PTR [edi+1640], 1
$LN57@Spawn:

; 635  : 						}
; 636  : 					#else // __S1108_BACK_END_SYSTEM
; 637  : 						if( pObj->GetType() == OT_MOVER && pi->m_nActiveAttackNum > 0 )
; 638  : 						{
; 639  : 							InterlockedDecrement( &pi->m_nActiveAttackNum );
; 640  : 							if( pMoverProp->dwLevel >= 7 )	// ·ąş§ŔĚ 7 ŔĚ»óŔÎ°Í¸¸ Ľ±°řŔ¸·Î ¸®˝şĆůµĘ.
; 641  : 								((CMover*)pObj)->m_bActiveAttack	= TRUE;
; 642  : 						}
; 643  : 					#endif // __S1108_BACK_END_SYSTEM
; 644  : 
; 645  : 					pObj->SetPos( v );

  0069a	8d 45 80	 lea	 eax, DWORD PTR _v$[ebp]
  0069d	8b cf		 mov	 ecx, edi
  0069f	50		 push	 eax
  006a0	e8 00 00 00 00	 call	 ?SetPos@CObj@@QAEXABUD3DXVECTOR3@@@Z ; CObj::SetPos

; 646  : 					pWorld->ADDOBJ( pObj, TRUE, nLayer );

  006a5	ff 75 0c	 push	 DWORD PTR _nLayer$[ebp]
  006a8	8b ce		 mov	 ecx, esi
  006aa	6a 01		 push	 1
  006ac	57		 push	 edi
  006ad	e8 00 00 00 00	 call	 ?AddObj@CWorld@@QAEHPAVCObj@@HH@Z ; CWorld::AddObj

; 647  : 					uRespawned++;

  006b2	ff 85 5c ff ff
	ff		 inc	 DWORD PTR _uRespawned$1$[ebp]

; 648  : //					InterlockedDecrement( &pi->m_cb );
; 649  : 				#ifdef __S1108_BACK_END_SYSTEM
; 650  : 					InterlockedIncrement( &pi->m_cb );

  006b8	8d 43 0c	 lea	 eax, DWORD PTR [ebx+12]
  006bb	f0 ff 00	 lock	  inc	 DWORD PTR [eax]
  006be	8b bd 50 ff ff
	ff		 mov	 edi, DWORD PTR _cb$1$[ebp]
$LN110@Spawn:

; 503  : 				while( cb-- > 0 )

  006c4	66 85 ff	 test	 di, di
  006c7	0f 8f 03 fc ff
	ff		 jg	 $LL8@Spawn
$LN129@Spawn:

; 401  : 		for( int i = 0; i < nSize; i++ )			// 04.10.11 - 480°ł Á¤µµ ŔĚ´Ů.

  006cd	8b bd 64 ff ff
	ff		 mov	 edi, DWORD PTR tv1145[ebp]
$LN132@Spawn:
  006d3	8b b5 70 ff ff
	ff		 mov	 esi, DWORD PTR _nType$1$[ebp]
  006d9	8b 85 78 ff ff
	ff		 mov	 eax, DWORD PTR _i$1$[ebp]
  006df	8b 8d 7c ff ff
	ff		 mov	 ecx, DWORD PTR _nSize$1$[ebp]
$LN131@Spawn:
  006e5	8b 95 74 ff ff
	ff		 mov	 edx, DWORD PTR tv1045[ebp]
$LN5@Spawn:
  006eb	8b 9d 60 ff ff
	ff		 mov	 ebx, DWORD PTR _this$GSCopy$1$[ebp]
  006f1	40		 inc	 eax
  006f2	81 c7 48 05 00
	00		 add	 edi, 1352		; 00000548H
  006f8	89 85 78 ff ff
	ff		 mov	 DWORD PTR _i$1$[ebp], eax
  006fe	89 bd 64 ff ff
	ff		 mov	 DWORD PTR tv1145[ebp], edi
  00704	3b c1		 cmp	 eax, ecx
  00706	0f 8c b4 f9 ff
	ff		 jl	 $LL7@Spawn
$LN2@Spawn:

; 391  : #ifndef __RES0807
; 392  : 	int				nAttr, nCheckAttr;
; 393  : 	int				nRetry;
; 394  : #endif	// __RES0807
; 395  : 	MoverProp*		pMoverProp;
; 396  : 	DWORD			dwFlying;
; 397  : 
; 398  : 	for( int nType = 0; nType < 3; nType++ )

  0070c	46		 inc	 esi
  0070d	89 b5 70 ff ff
	ff		 mov	 DWORD PTR _nType$1$[ebp], esi
  00713	83 fe 03	 cmp	 esi, 3
  00716	0f 8c 54 f9 ff
	ff		 jl	 $LL4@Spawn

; 651  : 				#else // __S1108_BACK_END_SYSTEM
; 652  : 					InterlockedDecrement( &pi->m_cb );
; 653  : 				#endif // __S1108_BACK_END_SYSTEM
; 654  : 				}	// while( cb-- > 0 )					
; 655  : 			} // if( pi->m_cbTime < 0 )
; 656  : 		} // for( int i = 0; i < nSize; i++ )
; 657  : 	} // for( int nType = 0; nType < 3; nType++ )
; 658  : 
; 659  : 	return uRespawned;

  0071c	8b 85 5c ff ff
	ff		 mov	 eax, DWORD PTR _uRespawned$1$[ebp]
$LN1@Spawn:

; 660  : #endif // __!CLIENT
; 661  : }

  00722	8b 4d f4	 mov	 ecx, DWORD PTR __$EHRec$[ebp]
  00725	64 89 0d 00 00
	00 00		 mov	 DWORD PTR fs:0, ecx
  0072c	59		 pop	 ecx
  0072d	5f		 pop	 edi
  0072e	5e		 pop	 esi
  0072f	5b		 pop	 ebx
  00730	8b 4d f0	 mov	 ecx, DWORD PTR __$ArrayPad$[ebp]
  00733	33 cd		 xor	 ecx, ebp
  00735	e8 00 00 00 00	 call	 @__security_check_cookie@4
  0073a	8b e5		 mov	 esp, ebp
  0073c	5d		 pop	 ebp
  0073d	c2 08 00	 ret	 8
_TEXT	ENDS
;	COMDAT text$x
text$x	SEGMENT
__unwindfunclet$?Spawn@CRespawner@@QAEKPAVCWorld@@H@Z$0:
  00000	68 b0 00 00 00	 push	 176			; 000000b0H
  00005	8b 85 4c ff ff
	ff		 mov	 eax, DWORD PTR $T2[ebp]
  0000b	50		 push	 eax
  0000c	e8 00 00 00 00	 call	 ??3@YAXPAXI@Z		; operator delete
  00011	83 c4 08	 add	 esp, 8
  00014	c3		 ret	 0
  00015	cc		 int	 3
  00016	cc		 int	 3
  00017	cc		 int	 3
  00018	cc		 int	 3
  00019	cc		 int	 3
__ehhandler$?Spawn@CRespawner@@QAEKPAVCWorld@@H@Z:
  0001a	90		 npad	 1
  0001b	90		 npad	 1
  0001c	8b 54 24 08	 mov	 edx, DWORD PTR [esp+8]
  00020	8d 42 0c	 lea	 eax, DWORD PTR [edx+12]
  00023	8b 8a 48 ff ff
	ff		 mov	 ecx, DWORD PTR [edx-184]
  00029	33 c8		 xor	 ecx, eax
  0002b	e8 00 00 00 00	 call	 @__security_check_cookie@4
  00030	8b 4a fc	 mov	 ecx, DWORD PTR [edx-4]
  00033	33 c8		 xor	 ecx, eax
  00035	e8 00 00 00 00	 call	 @__security_check_cookie@4
  0003a	b8 00 00 00 00	 mov	 eax, OFFSET __ehfuncinfo$?Spawn@CRespawner@@QAEKPAVCWorld@@H@Z
  0003f	e9 00 00 00 00	 jmp	 ___CxxFrameHandler3
text$x	ENDS
?Spawn@CRespawner@@QAEKPAVCWorld@@H@Z ENDP		; CRespawner::Spawn
; Function compile flags: /Ogtp
; File C:\IAGOS\server\v18\Source\Source\_Common\Respawn.cpp
; File C:\Program Files\Microsoft Visual Studio\2022\Professional\VC\Tools\MSVC\14.44.35207\include\vector
; File C:\IAGOS\server\v18\Source\Source\_Common\Respawn.cpp
; File C:\Program Files\Microsoft Visual Studio\2022\Professional\VC\Tools\MSVC\14.44.35207\include\vector
; File C:\IAGOS\server\v18\Source\Source\_Common\Respawn.cpp
;	COMDAT ?Remove@CRespawner@@QAEHHH@Z
_TEXT	SEGMENT
_nRespawnNo$ = 8					; size = 4
_nType$ = 12						; size = 4
?Remove@CRespawner@@QAEHHH@Z PROC			; CRespawner::Remove, COMDAT
; _this$ = ecx

; 294  : {

  00000	55		 push	 ebp
  00001	8b ec		 mov	 ebp, esp

; 295  : 	if( nRespawnNo < 0 )	

  00003	8b 55 08	 mov	 edx, DWORD PTR _nRespawnNo$[ebp]
  00006	56		 push	 esi
  00007	8b 75 0c	 mov	 esi, DWORD PTR _nType$[ebp]
  0000a	85 d2		 test	 edx, edx
  0000c	78 12		 js	 SHORT $LN11@Remove

; 296  : 		return NULL;
; 297  : 	if( nType == RESPAWNTYPE_REGION )

  0000e	85 f6		 test	 esi, esi
  00010	75 15		 jne	 SHORT $LN6@Remove

; 298  : 	{
; 299  : 		Error( "CRespawner::RemoveżˇĽ­ RESPAWN_REGION Ĺ¸ŔÔŔş »čÁ¦ÇŇ Ľö ľřŔ˝ : %d\n", nRespawnNo );

  00012	52		 push	 edx
  00013	68 00 00 00 00	 push	 OFFSET ??_C@_0EC@OCJMFDAP@CRespawner?3?3Remove?$LP?$KB?$LM?$KN?5RESPAWN_@
  00018	e8 00 00 00 00	 call	 ?Error@@YAPBDPBDZZ	; Error
  0001d	83 c4 08	 add	 esp, 8
$LN11@Remove:

; 316  : 	{
; 317  : 		return TRUE;
; 318  : 	}
; 319  : 	return FALSE;
; 320  : }

  00020	33 c0		 xor	 eax, eax
  00022	5e		 pop	 esi
  00023	5d		 pop	 ebp
  00024	c2 08 00	 ret	 8
$LN6@Remove:

; 300  : 		return FALSE;
; 301  : 	}
; 302  : 	else
; 303  : 	if( nType == RESPAWNTYPE_SCRIPT )

  00027	83 fe 01	 cmp	 esi, 1
  0002a	75 33		 jne	 SHORT $LN8@Remove
; File C:\Program Files\Microsoft Visual Studio\2022\Professional\VC\Tools\MSVC\14.44.35207\include\vector

; 46   :     _CONSTEXPR20 _Vector_const_iterator(_Tptr _Parg, const _Container_base* _Pvector) noexcept : _Ptr(_Parg) {

  0002c	8b 41 10	 mov	 eax, DWORD PTR [ecx+16]
  0002f	8b 49 14	 mov	 ecx, DWORD PTR [ecx+20]

; 176  :         return !(*this == _Right);

  00032	3b c1		 cmp	 eax, ecx
; File C:\IAGOS\server\v18\Source\Source\_Common\Respawn.cpp

; 305  : 		for( VRI::iterator i = m_vRespawnInfo[nType].begin(); i != m_vRespawnInfo[nType].end(); ++i )

  00034	74 ea		 je	 SHORT $LN11@Remove
$LL4@Remove:

; 306  : 		{
; 307  : 			if( ( *i ).m_nGMIndex == nRespawnNo )

  00036	39 90 14 02 00
	00		 cmp	 DWORD PTR [eax+532], edx
  0003c	74 10		 je	 SHORT $LN44@Remove
; File C:\Program Files\Microsoft Visual Studio\2022\Professional\VC\Tools\MSVC\14.44.35207\include\vector

; 82   :         ++_Ptr;

  0003e	05 48 05 00 00	 add	 eax, 1352		; 00000548H

; 176  :         return !(*this == _Right);

  00043	3b c1		 cmp	 eax, ecx
; File C:\IAGOS\server\v18\Source\Source\_Common\Respawn.cpp

; 305  : 		for( VRI::iterator i = m_vRespawnInfo[nType].begin(); i != m_vRespawnInfo[nType].end(); ++i )

  00045	75 ef		 jne	 SHORT $LL4@Remove

; 316  : 	{
; 317  : 		return TRUE;
; 318  : 	}
; 319  : 	return FALSE;
; 320  : }

  00047	33 c0		 xor	 eax, eax
  00049	5e		 pop	 esi
  0004a	5d		 pop	 ebp
  0004b	c2 08 00	 ret	 8
$LN44@Remove:

; 308  : 			{
; 309  : 				( *i ).m_bRemove	= TRUE;

  0004e	c7 40 3c 01 00
	00 00		 mov	 DWORD PTR [eax+60], 1

; 310  : 				return TRUE;

  00055	b8 01 00 00 00	 mov	 eax, 1
  0005a	5e		 pop	 esi

; 316  : 	{
; 317  : 		return TRUE;
; 318  : 	}
; 319  : 	return FALSE;
; 320  : }

  0005b	5d		 pop	 ebp
  0005c	c2 08 00	 ret	 8
$LN8@Remove:

; 311  : 			}
; 312  : 		}
; 313  : 	}
; 314  : 	else
; 315  : 	if( nType == RESPAWNTYPE_BACKEND )

  0005f	33 c0		 xor	 eax, eax
  00061	83 fe 02	 cmp	 esi, 2
  00064	5e		 pop	 esi
  00065	0f 94 c0	 sete	 al

; 316  : 	{
; 317  : 		return TRUE;
; 318  : 	}
; 319  : 	return FALSE;
; 320  : }

  00068	5d		 pop	 ebp
  00069	c2 08 00	 ret	 8
?Remove@CRespawner@@QAEHHH@Z ENDP			; CRespawner::Remove
_TEXT	ENDS
; Function compile flags: /Ogtp
; File C:\IAGOS\server\v18\Source\Source\_Common\Respawn.cpp
; File C:\Program Files\Microsoft Visual Studio\2022\Professional\VC\Tools\MSVC\14.44.35207\include\vector
; File C:\IAGOS\server\v18\Source\Source\_Common\Respawn.cpp
