; Listing generated by Microsoft (R) Optimizing Compiler Version 19.44.35225.0 

	TITLE	C:\IAGOS\server\v18\Source\Output\WorldServer\Release\ScriptHelper.obj
	.686P
	.XMM
	include listing.inc
	.model	flat

INCLUDELIB LIBCMT
INCLUDELIB OLDNAMES

CONST	SEGMENT
?piecewise_construct@std@@3Upiecewise_construct_t@1@B	ORG $+1 ; std::piecewise_construct
CONST	ENDS
PUBLIC	?__empty_global_delete@@YAXPAX@Z		; __empty_global_delete
PUBLIC	?__empty_global_delete@@YAXPAXI@Z		; __empty_global_delete
PUBLIC	?AtlThrowImpl@ATL@@YGXJ@Z			; ATL::AtlThrowImpl
PUBLIC	?SetString@?$CSimpleStringT@D$0A@@ATL@@QAEXPBDH@Z ; ATL::CSimpleStringT<char,0>::SetString
PUBLIC	?ThrowMemoryException@?$CSimpleStringT@D$0A@@ATL@@KAXXZ ; ATL::CSimpleStringT<char,0>::ThrowMemoryException
PUBLIC	?Fork@?$CSimpleStringT@D$0A@@ATL@@AAEXH@Z	; ATL::CSimpleStringT<char,0>::Fork
PUBLIC	?PrepareWrite2@?$CSimpleStringT@D$0A@@ATL@@AAEXH@Z ; ATL::CSimpleStringT<char,0>::PrepareWrite2
PUBLIC	?Reallocate@?$CSimpleStringT@D$0A@@ATL@@AAEXH@Z	; ATL::CSimpleStringT<char,0>::Reallocate
PUBLIC	??1?$CStringT@DV?$StrTraitMFC@DV?$ChTraitsCRT@D@ATL@@@@@ATL@@QAE@XZ ; ATL::CStringT<char,StrTraitMFC<char,ATL::ChTraitsCRT<char> > >::~CStringT<char,StrTraitMFC<char,ATL::ChTraitsCRT<char> > >
PUBLIC	??0exception@std@@QAE@ABV01@@Z			; std::exception::exception
PUBLIC	??1exception@std@@UAE@XZ			; std::exception::~exception
PUBLIC	?what@exception@std@@UBEPBDXZ			; std::exception::what
PUBLIC	??_Gexception@std@@UAEPAXI@Z			; std::exception::`scalar deleting destructor'
PUBLIC	??0bad_alloc@std@@QAE@ABV01@@Z			; std::bad_alloc::bad_alloc
PUBLIC	??_Gbad_alloc@std@@UAEPAXI@Z			; std::bad_alloc::`scalar deleting destructor'
PUBLIC	??0bad_array_new_length@std@@QAE@XZ		; std::bad_array_new_length::bad_array_new_length
PUBLIC	??1bad_array_new_length@std@@UAE@XZ		; std::bad_array_new_length::~bad_array_new_length
PUBLIC	??0bad_array_new_length@std@@QAE@ABV01@@Z	; std::bad_array_new_length::bad_array_new_length
PUBLIC	??_Gbad_array_new_length@std@@UAEPAXI@Z		; std::bad_array_new_length::`scalar deleting destructor'
PUBLIC	?_Throw_bad_array_new_length@std@@YAXXZ		; std::_Throw_bad_array_new_length
PUBLIC	?_Xlen_string@std@@YAXXZ			; std::_Xlen_string
PUBLIC	??0?$basic_string@DU?$char_traits@D@std@@V?$allocator@D@2@@std@@QAE@QBD@Z ; std::basic_string<char,std::char_traits<char>,std::allocator<char> >::basic_string<char,std::char_traits<char>,std::allocator<char> >
PUBLIC	??1?$basic_string@DU?$char_traits@D@std@@V?$allocator@D@2@@std@@QAE@XZ ; std::basic_string<char,std::char_traits<char>,std::allocator<char> >::~basic_string<char,std::char_traits<char>,std::allocator<char> >
PUBLIC	?_Throw_tree_length_error@std@@YAXXZ		; std::_Throw_tree_length_error
PUBLIC	??0D3DXVECTOR3@@QAE@XZ				; D3DXVECTOR3::D3DXVECTOR3
PUBLIC	??1?$vector@HV?$allocator@H@std@@@std@@QAE@XZ	; std::vector<int,std::allocator<int> >::~vector<int,std::allocator<int> >
PUBLIC	?_Xlength@?$vector@HV?$allocator@H@std@@@std@@CAXXZ ; std::vector<int,std::allocator<int> >::_Xlength
PUBLIC	?GetCharacter@CProject@@QAEPAUtagCHARACTER@@PBD@Z ; CProject::GetCharacter
PUBLIC	??$?MDU?$char_traits@D@std@@V?$allocator@D@1@@std@@YA_NABV?$basic_string@DU?$char_traits@D@std@@V?$allocator@D@2@@0@0@Z ; std::operator<<char,std::char_traits<char>,std::allocator<char> >
PUBLIC	??$_Allocate_manually_vector_aligned@U_Default_allocate_traits@std@@@std@@YAPAXI@Z ; std::_Allocate_manually_vector_aligned<std::_Default_allocate_traits>
PUBLIC	?InitPredefineKey@@YAXXZ			; InitPredefineKey
PUBLIC	?RunPredefineKey@@YAHPBDAAVCNpcDialogInfo@@@Z	; RunPredefineKey
PUBLIC	?__GetWorld@@YAPAVCWorld@@HHH@Z			; __GetWorld
PUBLIC	?__AddKey@@YAHHPBD0K@Z				; __AddKey
PUBLIC	?__AddAnswer@@YAHHPBD0KH@Z			; __AddAnswer
PUBLIC	?__RemoveQuest@@YAHHH@Z				; __RemoveQuest
PUBLIC	?__RemoveAllKey@@YAHH@Z				; __RemoveAllKey
PUBLIC	?__SayQuest@@YAHHHH@Z				; __SayQuest
PUBLIC	?__RunQuest@@YAHHHH@Z				; __RunQuest
PUBLIC	?__EndQuest@@YAHHHH@Z				; __EndQuest
PUBLIC	?__AddQuestKey@@YAHHHPBDHH@Z			; __AddQuestKey
PUBLIC	?__QuestBegin@@YAXHHH@Z				; __QuestBegin
PUBLIC	?__QuestEnd@@YAXHHAAHHH@Z			; __QuestEnd
PUBLIC	?__QuestBeginYes@@YAXHHH@Z			; __QuestBeginYes
PUBLIC	?__QuestBeginNo@@YAXHHH@Z			; __QuestBeginNo
PUBLIC	?__QuestEndComplete@@YAXHHAAHHH@Z		; __QuestEndComplete
PUBLIC	?__SetQuestState@@YAHKHH@Z			; __SetQuestState
PUBLIC	?__SetQuest@@YAXKH@Z				; __SetQuest
PUBLIC	?__CreateItem@@YAXKHHHE@Z			; __CreateItem
PUBLIC	?__AddGold@@YAXKH@Z				; __AddGold
PUBLIC	?__RemoveGold@@YAXKH@Z				; __RemoveGold
PUBLIC	?__QuestSort@@YAXAAV?$vector@HV?$allocator@H@std@@@std@@@Z ; __QuestSort
PUBLIC	?_Insert_node@?$_Tree_val@U?$_Tree_simple_types@U?$pair@$$CBV?$basic_string@DU?$char_traits@D@std@@V?$allocator@D@2@@std@@W4QUEST_ENUM@@@std@@@std@@@std@@QAEPAU?$_Tree_node@U?$pair@$$CBV?$basic_string@DU?$char_traits@D@std@@V?$allocator@D@2@@std@@W4QUEST_ENUM@@@std@@PAX@2@U?$_Tree_id@PAU?$_Tree_node@U?$pair@$$CBV?$basic_string@DU?$char_traits@D@std@@V?$allocator@D@2@@std@@W4QUEST_ENUM@@@std@@PAX@std@@@2@QAU32@@Z ; std::_Tree_val<std::_Tree_simple_types<std::pair<std::basic_string<char,std::char_traits<char>,std::allocator<char> > const ,enum QUEST_ENUM> > >::_Insert_node
PUBLIC	??A?$map@V?$basic_string@DU?$char_traits@D@std@@V?$allocator@D@2@@std@@W4QUEST_ENUM@@U?$less@V?$basic_string@DU?$char_traits@D@std@@V?$allocator@D@2@@std@@@2@V?$allocator@U?$pair@$$CBV?$basic_string@DU?$char_traits@D@std@@V?$allocator@D@2@@std@@W4QUEST_ENUM@@@std@@@2@@std@@QAEAAW4QUEST_ENUM@@$$QAV?$basic_string@DU?$char_traits@D@std@@V?$allocator@D@2@@1@@Z ; std::map<std::basic_string<char,std::char_traits<char>,std::allocator<char> >,enum QUEST_ENUM,std::less<std::basic_string<char,std::char_traits<char>,std::allocator<char> > >,std::allocator<std::pair<std::basic_string<char,std::char_traits<char>,std::allocator<char> > const ,enum QUEST_ENUM> > >::operator[]
PUBLIC	??$_Find_lower_bound@V?$basic_string@DU?$char_traits@D@std@@V?$allocator@D@2@@std@@@?$_Tree@V?$_Tmap_traits@V?$basic_string@DU?$char_traits@D@std@@V?$allocator@D@2@@std@@W4QUEST_ENUM@@U?$less@V?$basic_string@DU?$char_traits@D@std@@V?$allocator@D@2@@std@@@2@V?$allocator@U?$pair@$$CBV?$basic_string@DU?$char_traits@D@std@@V?$allocator@D@2@@std@@W4QUEST_ENUM@@@std@@@2@$0A@@std@@@std@@IBE?AU?$_Tree_find_result@PAU?$_Tree_node@U?$pair@$$CBV?$basic_string@DU?$char_traits@D@std@@V?$allocator@D@2@@std@@W4QUEST_ENUM@@@std@@PAX@std@@@1@ABV?$basic_string@DU?$char_traits@D@std@@V?$allocator@D@2@@1@@Z ; std::_Tree<std::_Tmap_traits<std::basic_string<char,std::char_traits<char>,std::allocator<char> >,enum QUEST_ENUM,std::less<std::basic_string<char,std::char_traits<char>,std::allocator<char> > >,std::allocator<std::pair<std::basic_string<char,std::char_traits<char>,std::allocator<char> > const ,enum QUEST_ENUM> >,0> >::_Find_lower_bound<std::basic_string<char,std::char_traits<char>,std::allocator<char> > >
PUBLIC	??$_Erase_tree@V?$allocator@U?$_Tree_node@U?$pair@$$CBV?$basic_string@DU?$char_traits@D@std@@V?$allocator@D@2@@std@@W4QUEST_ENUM@@@std@@PAX@std@@@std@@@?$_Tree_val@U?$_Tree_simple_types@U?$pair@$$CBV?$basic_string@DU?$char_traits@D@std@@V?$allocator@D@2@@std@@W4QUEST_ENUM@@@std@@@std@@@std@@QAEXAAV?$allocator@U?$_Tree_node@U?$pair@$$CBV?$basic_string@DU?$char_traits@D@std@@V?$allocator@D@2@@std@@W4QUEST_ENUM@@@std@@PAX@std@@@1@PAU?$_Tree_node@U?$pair@$$CBV?$basic_string@DU?$char_traits@D@std@@V?$allocator@D@2@@std@@W4QUEST_ENUM@@@std@@PAX@1@@Z ; std::_Tree_val<std::_Tree_simple_types<std::pair<std::basic_string<char,std::char_traits<char>,std::allocator<char> > const ,enum QUEST_ENUM> > >::_Erase_tree<std::allocator<std::_Tree_node<std::pair<std::basic_string<char,std::char_traits<char>,std::allocator<char> > const ,enum QUEST_ENUM>,void *> > >
PUBLIC	??1?$_Alloc_construct_ptr@V?$allocator@U?$_Tree_node@U?$pair@$$CBV?$basic_string@DU?$char_traits@D@std@@V?$allocator@D@2@@std@@W4QUEST_ENUM@@@std@@PAX@std@@@std@@@std@@QAE@XZ ; std::_Alloc_construct_ptr<std::allocator<std::_Tree_node<std::pair<std::basic_string<char,std::char_traits<char>,std::allocator<char> > const ,enum QUEST_ENUM>,void *> > >::~_Alloc_construct_ptr<std::allocator<std::_Tree_node<std::pair<std::basic_string<char,std::char_traits<char>,std::allocator<char> > const ,enum QUEST_ENUM>,void *> > >
PUBLIC	??$_Emplace_reallocate@ABH@?$vector@HV?$allocator@H@std@@@std@@AAEPAHQAHABH@Z ; std::vector<int,std::allocator<int> >::_Emplace_reallocate<int const &>
PUBLIC	??$_Copy_memmove@PAHPAH@std@@YAPAHPAH00@Z	; std::_Copy_memmove<int *,int *>
PUBLIC	??$_Copy_memmove_tail@PAH@std@@YAPAHQBDQAHII@Z	; std::_Copy_memmove_tail<int *>
PUBLIC	??_C@_00CNPNBAHC@@				; `string'
PUBLIC	??_7exception@std@@6B@				; std::exception::`vftable'
PUBLIC	??_C@_0BC@EOODALEL@Unknown?5exception@		; `string'
PUBLIC	??_7bad_alloc@std@@6B@				; std::bad_alloc::`vftable'
PUBLIC	??_7bad_array_new_length@std@@6B@		; std::bad_array_new_length::`vftable'
PUBLIC	??_C@_0BF@KINCDENJ@bad?5array?5new?5length@	; `string'
PUBLIC	??_R0?AVexception@std@@@8			; std::exception `RTTI Type Descriptor'
PUBLIC	__CT??_R0?AVexception@std@@@8??0exception@std@@QAE@ABV01@@Z12
PUBLIC	__TI3?AVbad_array_new_length@std@@
PUBLIC	__CTA3?AVbad_array_new_length@std@@
PUBLIC	??_R0?AVbad_array_new_length@std@@@8		; std::bad_array_new_length `RTTI Type Descriptor'
PUBLIC	__CT??_R0?AVbad_array_new_length@std@@@8??0bad_array_new_length@std@@QAE@ABV01@@Z12
PUBLIC	??_R0?AVbad_alloc@std@@@8			; std::bad_alloc `RTTI Type Descriptor'
PUBLIC	__CT??_R0?AVbad_alloc@std@@@8??0bad_alloc@std@@QAE@ABV01@@Z12
PUBLIC	??_C@_0BA@JFNIOLAK@string?5too?5long@		; `string'
PUBLIC	??_C@_0BB@GCADKGJO@map?1set?5too?5long@		; `string'
PUBLIC	??_C@_0BM@HMFGHCP@?$CFs?5min?3?$CFd?0?5max?3?$CFd?0?5index?3?$CFd@ ; `string'
PUBLIC	??_C@_0BI@BEIFNGEL@GetItemProp?5range_error@	; `string'
PUBLIC	??_C@_0BA@FOIKENOD@vector?5too?5long@		; `string'
PUBLIC	??_R4exception@std@@6B@				; std::exception::`RTTI Complete Object Locator'
PUBLIC	??_R3exception@std@@8				; std::exception::`RTTI Class Hierarchy Descriptor'
PUBLIC	??_R2exception@std@@8				; std::exception::`RTTI Base Class Array'
PUBLIC	??_R1A@?0A@EA@exception@std@@8			; std::exception::`RTTI Base Class Descriptor at (0,-1,0,64)'
PUBLIC	??_R4bad_array_new_length@std@@6B@		; std::bad_array_new_length::`RTTI Complete Object Locator'
PUBLIC	??_R3bad_array_new_length@std@@8		; std::bad_array_new_length::`RTTI Class Hierarchy Descriptor'
PUBLIC	??_R2bad_array_new_length@std@@8		; std::bad_array_new_length::`RTTI Base Class Array'
PUBLIC	??_R1A@?0A@EA@bad_array_new_length@std@@8	; std::bad_array_new_length::`RTTI Base Class Descriptor at (0,-1,0,64)'
PUBLIC	??_R1A@?0A@EA@bad_alloc@std@@8			; std::bad_alloc::`RTTI Base Class Descriptor at (0,-1,0,64)'
PUBLIC	??_R3bad_alloc@std@@8				; std::bad_alloc::`RTTI Class Hierarchy Descriptor'
PUBLIC	??_R2bad_alloc@std@@8				; std::bad_alloc::`RTTI Base Class Array'
PUBLIC	??_R4bad_alloc@std@@6B@				; std::bad_alloc::`RTTI Complete Object Locator'
PUBLIC	??_C@_09GOKBNBFK@QUEST_END@			; `string'
PUBLIC	??_C@_0M@NIFBEDLO@QUEST_BEGIN@			; `string'
PUBLIC	??_C@_0BA@EPFIGFEN@QUEST_BEGIN_YES@		; `string'
PUBLIC	??_C@_0P@JGHDECJC@QUEST_BEGIN_NO@		; `string'
PUBLIC	??_C@_0BD@FPHEAFPJ@QUEST_END_COMPLETE@		; `string'
PUBLIC	??_C@_0BB@HBMPOEKD@QUEST_NEXT_LEVEL@		; `string'
PUBLIC	??_C@_0P@OFMLOGDN@QUEST_END_FAIL@		; `string'
PUBLIC	??_C@_04OEDFLLKD@?$CC?$CFs?$CC@			; `string'
PUBLIC	??_C@_07PLKPFOPO@__YES__@			; `string'
PUBLIC	??_C@_06DEKBIFKI@__NO__@			; `string'
PUBLIC	??_C@_0M@OBIOHPLB@?$CDquestBegin@		; `string'
PUBLIC	??_C@_07MDMGIKPL@?$CDaddKey@			; `string'
PUBLIC	??_C@_06IGKDDLEP@__OK__@			; `string'
PUBLIC	??_C@_0CD@PMELMKJL@__QuestEnd?5quest?$CI?$CFd?$CJ?5property?5n@ ; `string'
PUBLIC	??_C@_0CI@KHJMFAEG@__QuestEnd?5?3?5user?5member?5quest?$CI@ ; `string'
PUBLIC	??_C@_09EGGIOHJK@?$CDyesQuest@			; `string'
PUBLIC	??_C@_08PNOJACJF@?$CDnoQuest@			; `string'
PUBLIC	??_C@_0P@JKDADMAO@?$CDquestBeginYes@		; `string'
PUBLIC	??_C@_0O@KFAFMFHI@?$CDquestBeginNo@		; `string'
PUBLIC	??_C@_0BC@JCECPDMN@?$CDquestEndComplete@	; `string'
PUBLIC	??_C@_01BNIGIBBF@Q@				; `string'
PUBLIC	??_C@_05GFPLGFAD@QUEST@				; `string'
PUBLIC	__xmm@00000000000000000000006400000064
EXTRN	??2@YAPAXI@Z:PROC				; operator new
EXTRN	??3@YAXPAXI@Z:PROC				; operator delete
EXTRN	_atexit:PROC
EXTRN	__invalid_parameter_noinfo:PROC
EXTRN	__invoke_watson:PROC
EXTRN	__errno:PROC
EXTRN	_strcmpi:PROC
EXTRN	__imp__lstrcpyA@8:PROC
EXTRN	__mbslwr:PROC
EXTRN	?AfxThrowMemoryException@@YGXXZ:PROC		; AfxThrowMemoryException
EXTRN	?AfxThrowInvalidArgException@@YGXXZ:PROC	; AfxThrowInvalidArgException
EXTRN	?AfxThrowOleException@@YGXJ@Z:PROC		; AfxThrowOleException
EXTRN	?AfxGetStringManager@@YGPAUIAtlStringMgr@ATL@@XZ:PROC ; AfxGetStringManager
EXTRN	?Lookup@CMapStringToPtr@@QBEHPBDAAPAX@Z:PROC	; CMapStringToPtr::Lookup
EXTRN	___std_exception_copy:PROC
EXTRN	___std_exception_destroy:PROC
EXTRN	??_Eexception@std@@UAEPAXI@Z:PROC		; std::exception::`vector deleting destructor'
EXTRN	??_Ebad_alloc@std@@UAEPAXI@Z:PROC		; std::bad_alloc::`vector deleting destructor'
EXTRN	??_Ebad_array_new_length@std@@UAEPAXI@Z:PROC	; std::bad_array_new_length::`vector deleting destructor'
EXTRN	?_Xlength_error@std@@YAXPBD@Z:PROC		; std::_Xlength_error
EXTRN	?WriteError@@YAXPBDZZ:PROC			; WriteError
EXTRN	?xRandom@@YAKKK@Z:PROC				; xRandom
EXTRN	?Error@@YAPBDPBDZZ:PROC				; Error
EXTRN	?GetMover@CProject@@QAEPAVCMover@@K@Z:PROC	; CProject::GetMover
EXTRN	?GetUser@CProject@@QAEPAVCUser@@K@Z:PROC	; CProject::GetUser
EXTRN	??0CItemElem@@QAE@XZ:PROC			; CItemElem::CItemElem
EXTRN	??1CItemElem@@UAE@XZ:PROC			; CItemElem::~CItemElem
EXTRN	?RunDialog@CNpcProperty@@QAEHPBDPAHHHHH@Z:PROC	; CNpcProperty::RunDialog
EXTRN	?CheckHonorStat@CMover@@QAEXXZ:PROC		; CMover::CheckHonorStat
EXTRN	?PetLevelup@CMover@@QAEXXZ:PROC			; CMover::PetLevelup
EXTRN	?GetQuest@CMover@@QAEPAUtagQuest@@H@Z:PROC	; CMover::GetQuest
EXTRN	?RemoveQuest@CMover@@QAEHH@Z:PROC		; CMover::RemoveQuest
EXTRN	?IsCompleteQuest@CMover@@QAEHH@Z:PROC		; CMover::IsCompleteQuest
EXTRN	?SetQuest@CMover@@QAEHHHPAUtagQuest@@@Z:PROC	; CMover::SetQuest
EXTRN	?NoDisguise@CMover@@QAEHPAUIDirect3DDevice9@@@Z:PROC ; CMover::NoDisguise
EXTRN	?Disguise@CMover@@QAEHPAUIDirect3DDevice9@@K@Z:PROC ; CMover::Disguise
EXTRN	?GetName@CMover@@QAEPBDH@Z:PROC			; CMover::GetName
EXTRN	?GetJob@CMover@@QAEHXZ:PROC			; CMover::GetJob
EXTRN	?AddExperience@CMover@@QAEH_JHHH@Z:PROC		; CMover::AddExperience
EXTRN	?AddGold@CMover@@QAEHHH@Z:PROC			; CMover::AddGold
EXTRN	?SetPKValue@CMover@@QAEXH@Z:PROC		; CMover::SetPKValue
EXTRN	?GetItemNum@CMover@@QAEHK@Z:PROC		; CMover::GetItemNum
EXTRN	?AddSkillPoint@CMover@@QAEXH@Z:PROC		; CMover::AddSkillPoint
EXTRN	?CreateItem@CMover@@QAEHPAVCItemBase@@PAEPAFE@Z:PROC ; CMover::CreateItem
EXTRN	?RemoveItemA@CMover@@QAEHKF@Z:PROC		; CMover::RemoveItemA
EXTRN	?Replace@CMover@@QAEHKKAAUD3DXVECTOR3@@W4REPLACE_TYPE@@H@Z:PROC ; CMover::Replace
EXTRN	?__IsEndQuestCondition@@YAHPAVCMover@@H@Z:PROC	; __IsEndQuestCondition
EXTRN	?__IsBeginQuestCondition@@YAHPAVCMover@@H@Z:PROC ; __IsBeginQuestCondition
EXTRN	?__IsNextLevelQuest@@YAHPAVCMover@@H@Z:PROC	; __IsNextLevelQuest
EXTRN	?LevelUpSetting@CUser@@QAEXXZ:PROC		; CUser::LevelUpSetting
EXTRN	?ExpUpSetting@CUser@@QAEXXZ:PROC		; CUser::ExpUpSetting
EXTRN	?AddDefinedText@CUser@@QAAXHPBDZZ:PROC		; CUser::AddDefinedText
EXTRN	?AddDefinedText@CUser@@QAEXH@Z:PROC		; CUser::AddDefinedText
EXTRN	?AddGoldText@CUser@@QAEXH@Z:PROC		; CUser::AddGoldText
EXTRN	?AddSetQuest@CUser@@QAEXPAUtagQuest@@@Z:PROC	; CUser::AddSetQuest
EXTRN	?AddRemoveQuest@CUser@@QAEXK@Z:PROC		; CUser::AddRemoveQuest
EXTRN	?AddRunScriptFunc@CUser@@QAEXABU_runscriptfunc@@@Z:PROC ; CUser::AddRunScriptFunc
EXTRN	?AddPKValue@CUser@@QAEXXZ:PROC			; CUser::AddPKValue
EXTRN	?AddSetExperience@CUser@@QAEX_JGHH0G@Z:PROC	; CUser::AddSetExperience
EXTRN	?AddDisguise@CUserMng@@QAEXPAVCMover@@K@Z:PROC	; CUserMng::AddDisguise
EXTRN	?AddNoDisguise@CUserMng@@QAEXPAVCMover@@@Z:PROC	; CUserMng::AddNoDisguise
EXTRN	?AddHonorTitleChange@CUserMng@@QAEXPAVCMover@@H@Z:PROC ; CUserMng::AddHonorTitleChange
EXTRN	?GetWorld@CWorldMng@@QAEPAVCWorld@@K@Z:PROC	; CWorldMng::GetWorld
EXTRN	?SendLogSkillPoint@CDPDatabaseClient@@QAEXHHPAVCMover@@PAUtagSkill@@@Z:PROC ; CDPDatabaseClient::SendLogSkillPoint
EXTRN	?SendLogPkPvp@CDPDatabaseClient@@QAEXPAVCMover@@0HD@Z:PROC ; CDPDatabaseClient::SendLogPkPvp
EXTRN	?CalluspLoggingQuest@CDPDatabaseClient@@QAEXKHHPBD@Z:PROC ; CDPDatabaseClient::CalluspLoggingQuest
EXTRN	?SendUpdateCampusPoint@CDPDatabaseClient@@QAEXKHHD@Z:PROC ; CDPDatabaseClient::SendUpdateCampusPoint
EXTRN	?OnLogItem@CDPSrvr@@QAEXAAU_LogItemInfo@@PAVCItemElem@@H@Z:PROC ; CDPSrvr::OnLogItem
EXTRN	@__security_check_cookie@4:PROC
EXTRN	__CxxThrowException@8:PROC
EXTRN	___CxxFrameHandler3:PROC
EXTRN	_memcpy:PROC
EXTRN	_memmove:PROC
EXTRN	_memset:PROC
EXTRN	??_7type_info@@6B@:QWORD			; type_info::`vftable'
EXTRN	?g_next@@3KA:DWORD				; g_next
EXTRN	?prj@@3VCProject@@A:BYTE			; prj
EXTRN	?g_uIdofMulti@@3KA:DWORD			; g_uIdofMulti
EXTRN	?g_WorldMng@@3VCWorldMng@@A:BYTE		; g_WorldMng
EXTRN	?g_dpDBClient@@3VCDPDatabaseClient@@A:BYTE	; g_dpDBClient
EXTRN	?g_DPSrvr@@3VCDPSrvr@@A:BYTE			; g_DPSrvr
EXTRN	?g_UserMng@@3VCUserMng@@A:BYTE			; g_UserMng
EXTRN	___security_cookie:DWORD
_BSS	SEGMENT
?g_mapKey@@3V?$map@V?$basic_string@DU?$char_traits@D@std@@V?$allocator@D@2@@std@@W4QUEST_ENUM@@U?$less@V?$basic_string@DU?$char_traits@D@std@@V?$allocator@D@2@@std@@@2@V?$allocator@U?$pair@$$CBV?$basic_string@DU?$char_traits@D@std@@V?$allocator@D@2@@std@@W4QUEST_ENUM@@@std@@@2@@std@@A DQ 01H DUP (?) ; g_mapKey
_BSS	ENDS
CRT$XCU	SEGMENT
?g_mapKey$initializer$@@3P6AXXZA DD FLAT:??__Eg_mapKey@@YAXXZ ; g_mapKey$initializer$
CRT$XCU	ENDS
;	COMDAT __xmm@00000000000000000000006400000064
CONST	SEGMENT
__xmm@00000000000000000000006400000064 DB 'd', 00H, 00H, 00H, 'd', 00H, 00H
	DB	00H, 00H, 00H, 00H, 00H, 00H, 00H, 00H, 00H
CONST	ENDS
;	COMDAT ??_C@_05GFPLGFAD@QUEST@
CONST	SEGMENT
??_C@_05GFPLGFAD@QUEST@ DB 'QUEST', 00H			; `string'
CONST	ENDS
;	COMDAT ??_C@_01BNIGIBBF@Q@
CONST	SEGMENT
??_C@_01BNIGIBBF@Q@ DB 'Q', 00H				; `string'
CONST	ENDS
;	COMDAT ??_C@_0BC@JCECPDMN@?$CDquestEndComplete@
CONST	SEGMENT
??_C@_0BC@JCECPDMN@?$CDquestEndComplete@ DB '#questEndComplete', 00H ; `string'
CONST	ENDS
;	COMDAT ??_C@_0O@KFAFMFHI@?$CDquestBeginNo@
CONST	SEGMENT
??_C@_0O@KFAFMFHI@?$CDquestBeginNo@ DB '#questBeginNo', 00H ; `string'
CONST	ENDS
;	COMDAT ??_C@_0P@JKDADMAO@?$CDquestBeginYes@
CONST	SEGMENT
??_C@_0P@JKDADMAO@?$CDquestBeginYes@ DB '#questBeginYes', 00H ; `string'
CONST	ENDS
;	COMDAT ??_C@_08PNOJACJF@?$CDnoQuest@
CONST	SEGMENT
??_C@_08PNOJACJF@?$CDnoQuest@ DB '#noQuest', 00H	; `string'
CONST	ENDS
;	COMDAT ??_C@_09EGGIOHJK@?$CDyesQuest@
CONST	SEGMENT
??_C@_09EGGIOHJK@?$CDyesQuest@ DB '#yesQuest', 00H	; `string'
CONST	ENDS
;	COMDAT ??_C@_0CI@KHJMFAEG@__QuestEnd?5?3?5user?5member?5quest?$CI@
CONST	SEGMENT
??_C@_0CI@KHJMFAEG@__QuestEnd?5?3?5user?5member?5quest?$CI@ DB '__QuestEn'
	DB	'd : user member quest(%d) null', 00H	; `string'
CONST	ENDS
;	COMDAT ??_C@_0CD@PMELMKJL@__QuestEnd?5quest?$CI?$CFd?$CJ?5property?5n@
CONST	SEGMENT
??_C@_0CD@PMELMKJL@__QuestEnd?5quest?$CI?$CFd?$CJ?5property?5n@ DB '__Que'
	DB	'stEnd quest(%d) property null', 00H		; `string'
CONST	ENDS
;	COMDAT ??_C@_06IGKDDLEP@__OK__@
CONST	SEGMENT
??_C@_06IGKDDLEP@__OK__@ DB '__OK__', 00H		; `string'
CONST	ENDS
;	COMDAT ??_C@_07MDMGIKPL@?$CDaddKey@
CONST	SEGMENT
??_C@_07MDMGIKPL@?$CDaddKey@ DB '#addKey', 00H		; `string'
CONST	ENDS
;	COMDAT ??_C@_0M@OBIOHPLB@?$CDquestBegin@
CONST	SEGMENT
??_C@_0M@OBIOHPLB@?$CDquestBegin@ DB '#questBegin', 00H	; `string'
CONST	ENDS
;	COMDAT ??_C@_06DEKBIFKI@__NO__@
CONST	SEGMENT
??_C@_06DEKBIFKI@__NO__@ DB '__NO__', 00H		; `string'
CONST	ENDS
;	COMDAT ??_C@_07PLKPFOPO@__YES__@
CONST	SEGMENT
??_C@_07PLKPFOPO@__YES__@ DB '__YES__', 00H		; `string'
CONST	ENDS
;	COMDAT ??_C@_04OEDFLLKD@?$CC?$CFs?$CC@
CONST	SEGMENT
??_C@_04OEDFLLKD@?$CC?$CFs?$CC@ DB '"%s"', 00H		; `string'
CONST	ENDS
;	COMDAT ??_C@_0P@OFMLOGDN@QUEST_END_FAIL@
CONST	SEGMENT
??_C@_0P@OFMLOGDN@QUEST_END_FAIL@ DB 'QUEST_END_FAIL', 00H ; `string'
CONST	ENDS
;	COMDAT ??_C@_0BB@HBMPOEKD@QUEST_NEXT_LEVEL@
CONST	SEGMENT
??_C@_0BB@HBMPOEKD@QUEST_NEXT_LEVEL@ DB 'QUEST_NEXT_LEVEL', 00H ; `string'
CONST	ENDS
;	COMDAT ??_C@_0BD@FPHEAFPJ@QUEST_END_COMPLETE@
CONST	SEGMENT
??_C@_0BD@FPHEAFPJ@QUEST_END_COMPLETE@ DB 'QUEST_END_COMPLETE', 00H ; `string'
CONST	ENDS
;	COMDAT ??_C@_0P@JGHDECJC@QUEST_BEGIN_NO@
CONST	SEGMENT
??_C@_0P@JGHDECJC@QUEST_BEGIN_NO@ DB 'QUEST_BEGIN_NO', 00H ; `string'
CONST	ENDS
;	COMDAT ??_C@_0BA@EPFIGFEN@QUEST_BEGIN_YES@
CONST	SEGMENT
??_C@_0BA@EPFIGFEN@QUEST_BEGIN_YES@ DB 'QUEST_BEGIN_YES', 00H ; `string'
CONST	ENDS
;	COMDAT ??_C@_0M@NIFBEDLO@QUEST_BEGIN@
CONST	SEGMENT
??_C@_0M@NIFBEDLO@QUEST_BEGIN@ DB 'QUEST_BEGIN', 00H	; `string'
CONST	ENDS
;	COMDAT ??_C@_09GOKBNBFK@QUEST_END@
CONST	SEGMENT
??_C@_09GOKBNBFK@QUEST_END@ DB 'QUEST_END', 00H		; `string'
CONST	ENDS
;	COMDAT ??_R4bad_alloc@std@@6B@
rdata$r	SEGMENT
??_R4bad_alloc@std@@6B@ DD 00H				; std::bad_alloc::`RTTI Complete Object Locator'
	DD	00H
	DD	00H
	DD	FLAT:??_R0?AVbad_alloc@std@@@8
	DD	FLAT:??_R3bad_alloc@std@@8
rdata$r	ENDS
;	COMDAT ??_R2bad_alloc@std@@8
rdata$r	SEGMENT
??_R2bad_alloc@std@@8 DD FLAT:??_R1A@?0A@EA@bad_alloc@std@@8 ; std::bad_alloc::`RTTI Base Class Array'
	DD	FLAT:??_R1A@?0A@EA@exception@std@@8
rdata$r	ENDS
;	COMDAT ??_R3bad_alloc@std@@8
rdata$r	SEGMENT
??_R3bad_alloc@std@@8 DD 00H				; std::bad_alloc::`RTTI Class Hierarchy Descriptor'
	DD	00H
	DD	02H
	DD	FLAT:??_R2bad_alloc@std@@8
rdata$r	ENDS
;	COMDAT ??_R1A@?0A@EA@bad_alloc@std@@8
rdata$r	SEGMENT
??_R1A@?0A@EA@bad_alloc@std@@8 DD FLAT:??_R0?AVbad_alloc@std@@@8 ; std::bad_alloc::`RTTI Base Class Descriptor at (0,-1,0,64)'
	DD	01H
	DD	00H
	DD	0ffffffffH
	DD	00H
	DD	040H
	DD	FLAT:??_R3bad_alloc@std@@8
rdata$r	ENDS
;	COMDAT ??_R1A@?0A@EA@bad_array_new_length@std@@8
rdata$r	SEGMENT
??_R1A@?0A@EA@bad_array_new_length@std@@8 DD FLAT:??_R0?AVbad_array_new_length@std@@@8 ; std::bad_array_new_length::`RTTI Base Class Descriptor at (0,-1,0,64)'
	DD	02H
	DD	00H
	DD	0ffffffffH
	DD	00H
	DD	040H
	DD	FLAT:??_R3bad_array_new_length@std@@8
rdata$r	ENDS
;	COMDAT ??_R2bad_array_new_length@std@@8
rdata$r	SEGMENT
??_R2bad_array_new_length@std@@8 DD FLAT:??_R1A@?0A@EA@bad_array_new_length@std@@8 ; std::bad_array_new_length::`RTTI Base Class Array'
	DD	FLAT:??_R1A@?0A@EA@bad_alloc@std@@8
	DD	FLAT:??_R1A@?0A@EA@exception@std@@8
rdata$r	ENDS
;	COMDAT ??_R3bad_array_new_length@std@@8
rdata$r	SEGMENT
??_R3bad_array_new_length@std@@8 DD 00H			; std::bad_array_new_length::`RTTI Class Hierarchy Descriptor'
	DD	00H
	DD	03H
	DD	FLAT:??_R2bad_array_new_length@std@@8
rdata$r	ENDS
;	COMDAT ??_R4bad_array_new_length@std@@6B@
rdata$r	SEGMENT
??_R4bad_array_new_length@std@@6B@ DD 00H		; std::bad_array_new_length::`RTTI Complete Object Locator'
	DD	00H
	DD	00H
	DD	FLAT:??_R0?AVbad_array_new_length@std@@@8
	DD	FLAT:??_R3bad_array_new_length@std@@8
rdata$r	ENDS
;	COMDAT ??_R1A@?0A@EA@exception@std@@8
rdata$r	SEGMENT
??_R1A@?0A@EA@exception@std@@8 DD FLAT:??_R0?AVexception@std@@@8 ; std::exception::`RTTI Base Class Descriptor at (0,-1,0,64)'
	DD	00H
	DD	00H
	DD	0ffffffffH
	DD	00H
	DD	040H
	DD	FLAT:??_R3exception@std@@8
rdata$r	ENDS
;	COMDAT ??_R2exception@std@@8
rdata$r	SEGMENT
??_R2exception@std@@8 DD FLAT:??_R1A@?0A@EA@exception@std@@8 ; std::exception::`RTTI Base Class Array'
rdata$r	ENDS
;	COMDAT ??_R3exception@std@@8
rdata$r	SEGMENT
??_R3exception@std@@8 DD 00H				; std::exception::`RTTI Class Hierarchy Descriptor'
	DD	00H
	DD	01H
	DD	FLAT:??_R2exception@std@@8
rdata$r	ENDS
;	COMDAT ??_R4exception@std@@6B@
rdata$r	SEGMENT
??_R4exception@std@@6B@ DD 00H				; std::exception::`RTTI Complete Object Locator'
	DD	00H
	DD	00H
	DD	FLAT:??_R0?AVexception@std@@@8
	DD	FLAT:??_R3exception@std@@8
rdata$r	ENDS
;	COMDAT ??_C@_0BA@FOIKENOD@vector?5too?5long@
CONST	SEGMENT
??_C@_0BA@FOIKENOD@vector?5too?5long@ DB 'vector too long', 00H ; `string'
CONST	ENDS
;	COMDAT ??_C@_0BI@BEIFNGEL@GetItemProp?5range_error@
CONST	SEGMENT
??_C@_0BI@BEIFNGEL@GetItemProp?5range_error@ DB 'GetItemProp range_error', 00H ; `string'
CONST	ENDS
;	COMDAT ??_C@_0BM@HMFGHCP@?$CFs?5min?3?$CFd?0?5max?3?$CFd?0?5index?3?$CFd@
CONST	SEGMENT
??_C@_0BM@HMFGHCP@?$CFs?5min?3?$CFd?0?5max?3?$CFd?0?5index?3?$CFd@ DB '%s'
	DB	' min:%d, max:%d, index:%d', 00H		; `string'
CONST	ENDS
;	COMDAT ??_C@_0BB@GCADKGJO@map?1set?5too?5long@
CONST	SEGMENT
??_C@_0BB@GCADKGJO@map?1set?5too?5long@ DB 'map/set too long', 00H ; `string'
CONST	ENDS
;	COMDAT ??_C@_0BA@JFNIOLAK@string?5too?5long@
CONST	SEGMENT
??_C@_0BA@JFNIOLAK@string?5too?5long@ DB 'string too long', 00H ; `string'
CONST	ENDS
;	COMDAT __CT??_R0?AVbad_alloc@std@@@8??0bad_alloc@std@@QAE@ABV01@@Z12
xdata$x	SEGMENT
__CT??_R0?AVbad_alloc@std@@@8??0bad_alloc@std@@QAE@ABV01@@Z12 DD 010H
	DD	FLAT:??_R0?AVbad_alloc@std@@@8
	DD	00H
	DD	0ffffffffH
	ORG $+4
	DD	0cH
	DD	FLAT:??0bad_alloc@std@@QAE@ABV01@@Z
xdata$x	ENDS
;	COMDAT ??_R0?AVbad_alloc@std@@@8
data$r	SEGMENT
??_R0?AVbad_alloc@std@@@8 DD FLAT:??_7type_info@@6B@	; std::bad_alloc `RTTI Type Descriptor'
	DD	00H
	DB	'.?AVbad_alloc@std@@', 00H
data$r	ENDS
;	COMDAT __CT??_R0?AVbad_array_new_length@std@@@8??0bad_array_new_length@std@@QAE@ABV01@@Z12
xdata$x	SEGMENT
__CT??_R0?AVbad_array_new_length@std@@@8??0bad_array_new_length@std@@QAE@ABV01@@Z12 DD 00H
	DD	FLAT:??_R0?AVbad_array_new_length@std@@@8
	DD	00H
	DD	0ffffffffH
	ORG $+4
	DD	0cH
	DD	FLAT:??0bad_array_new_length@std@@QAE@ABV01@@Z
xdata$x	ENDS
;	COMDAT ??_R0?AVbad_array_new_length@std@@@8
data$r	SEGMENT
??_R0?AVbad_array_new_length@std@@@8 DD FLAT:??_7type_info@@6B@ ; std::bad_array_new_length `RTTI Type Descriptor'
	DD	00H
	DB	'.?AVbad_array_new_length@std@@', 00H
data$r	ENDS
;	COMDAT __CTA3?AVbad_array_new_length@std@@
xdata$x	SEGMENT
__CTA3?AVbad_array_new_length@std@@ DD 03H
	DD	FLAT:__CT??_R0?AVbad_array_new_length@std@@@8??0bad_array_new_length@std@@QAE@ABV01@@Z12
	DD	FLAT:__CT??_R0?AVbad_alloc@std@@@8??0bad_alloc@std@@QAE@ABV01@@Z12
	DD	FLAT:__CT??_R0?AVexception@std@@@8??0exception@std@@QAE@ABV01@@Z12
xdata$x	ENDS
;	COMDAT __TI3?AVbad_array_new_length@std@@
xdata$x	SEGMENT
__TI3?AVbad_array_new_length@std@@ DD 00H
	DD	FLAT:??1bad_array_new_length@std@@UAE@XZ
	DD	00H
	DD	FLAT:__CTA3?AVbad_array_new_length@std@@
xdata$x	ENDS
;	COMDAT __CT??_R0?AVexception@std@@@8??0exception@std@@QAE@ABV01@@Z12
xdata$x	SEGMENT
__CT??_R0?AVexception@std@@@8??0exception@std@@QAE@ABV01@@Z12 DD 00H
	DD	FLAT:??_R0?AVexception@std@@@8
	DD	00H
	DD	0ffffffffH
	ORG $+4
	DD	0cH
	DD	FLAT:??0exception@std@@QAE@ABV01@@Z
xdata$x	ENDS
;	COMDAT ??_R0?AVexception@std@@@8
data$r	SEGMENT
??_R0?AVexception@std@@@8 DD FLAT:??_7type_info@@6B@	; std::exception `RTTI Type Descriptor'
	DD	00H
	DB	'.?AVexception@std@@', 00H
data$r	ENDS
;	COMDAT ??_C@_0BF@KINCDENJ@bad?5array?5new?5length@
CONST	SEGMENT
??_C@_0BF@KINCDENJ@bad?5array?5new?5length@ DB 'bad array new length', 00H ; `string'
CONST	ENDS
;	COMDAT ??_7bad_array_new_length@std@@6B@
CONST	SEGMENT
??_7bad_array_new_length@std@@6B@ DD FLAT:??_R4bad_array_new_length@std@@6B@ ; std::bad_array_new_length::`vftable'
	DD	FLAT:??_Ebad_array_new_length@std@@UAEPAXI@Z
	DD	FLAT:?what@exception@std@@UBEPBDXZ
CONST	ENDS
;	COMDAT ??_7bad_alloc@std@@6B@
CONST	SEGMENT
??_7bad_alloc@std@@6B@ DD FLAT:??_R4bad_alloc@std@@6B@	; std::bad_alloc::`vftable'
	DD	FLAT:??_Ebad_alloc@std@@UAEPAXI@Z
	DD	FLAT:?what@exception@std@@UBEPBDXZ
CONST	ENDS
;	COMDAT ??_C@_0BC@EOODALEL@Unknown?5exception@
CONST	SEGMENT
??_C@_0BC@EOODALEL@Unknown?5exception@ DB 'Unknown exception', 00H ; `string'
CONST	ENDS
;	COMDAT ??_7exception@std@@6B@
CONST	SEGMENT
??_7exception@std@@6B@ DD FLAT:??_R4exception@std@@6B@	; std::exception::`vftable'
	DD	FLAT:??_Eexception@std@@UAEPAXI@Z
	DD	FLAT:?what@exception@std@@UBEPBDXZ
CONST	ENDS
;	COMDAT ??_C@_00CNPNBAHC@@
CONST	SEGMENT
??_C@_00CNPNBAHC@@ DB 00H				; `string'
CONST	ENDS
;	COMDAT xdata$x
xdata$x	SEGMENT
__unwindtable$??$?0ABUpiecewise_construct_t@std@@V?$tuple@$$QAV?$basic_string@DU?$char_traits@D@std@@V?$allocator@D@2@@std@@@1@V?$tuple@$$V@1@@?$_Tree_temp_node@V?$allocator@U?$_Tree_node@U?$pair@$$CBV?$basic_string@DU?$char_traits@D@std@@V?$allocator@D@2@@std@@W4QUEST_ENUM@@@std@@PAX@std@@@std@@@std@@QAE@AAV?$allocator@U?$_Tree_node@U?$pair@$$CBV?$basic_string@DU?$char_traits@D@std@@V?$allocator@D@2@@std@@W4QUEST_ENUM@@@std@@PAX@std@@@1@PAU?$_Tree_node@U?$pair@$$CBV?$basic_string@DU?$char_traits@D@std@@V?$allocator@D@2@@std@@W4QUEST_ENUM@@@std@@PAX@1@ABUpiecewise_construct_t@1@$$QAV?$tuple@$$QAV?$basic_string@DU?$char_traits@D@std@@V?$allocator@D@2@@std@@@1@$$QAV?$tuple@$$V@1@@Z DD 0ffffffffH
	DD	FLAT:__unwindfunclet$??$?0ABUpiecewise_construct_t@std@@V?$tuple@$$QAV?$basic_string@DU?$char_traits@D@std@@V?$allocator@D@2@@std@@@1@V?$tuple@$$V@1@@?$_Tree_temp_node@V?$allocator@U?$_Tree_node@U?$pair@$$CBV?$basic_string@DU?$char_traits@D@std@@V?$allocator@D@2@@std@@W4QUEST_ENUM@@@std@@PAX@std@@@std@@@std@@QAE@AAV?$allocator@U?$_Tree_node@U?$pair@$$CBV?$basic_string@DU?$char_traits@D@std@@V?$allocator@D@2@@std@@W4QUEST_ENUM@@@std@@PAX@std@@@1@PAU?$_Tree_node@U?$pair@$$CBV?$basic_string@DU?$char_traits@D@std@@V?$allocator@D@2@@std@@W4QUEST_ENUM@@@std@@PAX@1@ABUpiecewise_construct_t@1@$$QAV?$tuple@$$QAV?$basic_string@DU?$char_traits@D@std@@V?$allocator@D@2@@std@@@1@$$QAV?$tuple@$$V@1@@Z$1
__ehfuncinfo$??$?0ABUpiecewise_construct_t@std@@V?$tuple@$$QAV?$basic_string@DU?$char_traits@D@std@@V?$allocator@D@2@@std@@@1@V?$tuple@$$V@1@@?$_Tree_temp_node@V?$allocator@U?$_Tree_node@U?$pair@$$CBV?$basic_string@DU?$char_traits@D@std@@V?$allocator@D@2@@std@@W4QUEST_ENUM@@@std@@PAX@std@@@std@@@std@@QAE@AAV?$allocator@U?$_Tree_node@U?$pair@$$CBV?$basic_string@DU?$char_traits@D@std@@V?$allocator@D@2@@std@@W4QUEST_ENUM@@@std@@PAX@std@@@1@PAU?$_Tree_node@U?$pair@$$CBV?$basic_string@DU?$char_traits@D@std@@V?$allocator@D@2@@std@@W4QUEST_ENUM@@@std@@PAX@1@ABUpiecewise_construct_t@1@$$QAV?$tuple@$$QAV?$basic_string@DU?$char_traits@D@std@@V?$allocator@D@2@@std@@@1@$$QAV?$tuple@$$V@1@@Z DD 019930522H
	DD	01H
	DD	FLAT:__unwindtable$??$?0ABUpiecewise_construct_t@std@@V?$tuple@$$QAV?$basic_string@DU?$char_traits@D@std@@V?$allocator@D@2@@std@@@1@V?$tuple@$$V@1@@?$_Tree_temp_node@V?$allocator@U?$_Tree_node@U?$pair@$$CBV?$basic_string@DU?$char_traits@D@std@@V?$allocator@D@2@@std@@W4QUEST_ENUM@@@std@@PAX@std@@@std@@@std@@QAE@AAV?$allocator@U?$_Tree_node@U?$pair@$$CBV?$basic_string@DU?$char_traits@D@std@@V?$allocator@D@2@@std@@W4QUEST_ENUM@@@std@@PAX@std@@@1@PAU?$_Tree_node@U?$pair@$$CBV?$basic_string@DU?$char_traits@D@std@@V?$allocator@D@2@@std@@W4QUEST_ENUM@@@std@@PAX@1@ABUpiecewise_construct_t@1@$$QAV?$tuple@$$QAV?$basic_string@DU?$char_traits@D@std@@V?$allocator@D@2@@std@@@1@$$QAV?$tuple@$$V@1@@Z
	DD	2 DUP(00H)
	DD	2 DUP(00H)
	DD	00H
	DD	01H
xdata$x	ENDS
;	COMDAT xdata$x
xdata$x	SEGMENT
__unwindtable$??0?$_Tree_temp_node_alloc@V?$allocator@U?$_Tree_node@U?$pair@$$CBV?$basic_string@DU?$char_traits@D@std@@V?$allocator@D@2@@std@@W4QUEST_ENUM@@@std@@PAX@std@@@std@@@std@@QAE@AAV?$allocator@U?$_Tree_node@U?$pair@$$CBV?$basic_string@DU?$char_traits@D@std@@V?$allocator@D@2@@std@@W4QUEST_ENUM@@@std@@PAX@std@@@1@@Z DD 0ffffffffH
	DD	FLAT:__unwindfunclet$??0?$_Tree_temp_node_alloc@V?$allocator@U?$_Tree_node@U?$pair@$$CBV?$basic_string@DU?$char_traits@D@std@@V?$allocator@D@2@@std@@W4QUEST_ENUM@@@std@@PAX@std@@@std@@@std@@QAE@AAV?$allocator@U?$_Tree_node@U?$pair@$$CBV?$basic_string@DU?$char_traits@D@std@@V?$allocator@D@2@@std@@W4QUEST_ENUM@@@std@@PAX@std@@@1@@Z$0
__ehfuncinfo$??0?$_Tree_temp_node_alloc@V?$allocator@U?$_Tree_node@U?$pair@$$CBV?$basic_string@DU?$char_traits@D@std@@V?$allocator@D@2@@std@@W4QUEST_ENUM@@@std@@PAX@std@@@std@@@std@@QAE@AAV?$allocator@U?$_Tree_node@U?$pair@$$CBV?$basic_string@DU?$char_traits@D@std@@V?$allocator@D@2@@std@@W4QUEST_ENUM@@@std@@PAX@std@@@1@@Z DD 019930522H
	DD	01H
	DD	FLAT:__unwindtable$??0?$_Tree_temp_node_alloc@V?$allocator@U?$_Tree_node@U?$pair@$$CBV?$basic_string@DU?$char_traits@D@std@@V?$allocator@D@2@@std@@W4QUEST_ENUM@@@std@@PAX@std@@@std@@@std@@QAE@AAV?$allocator@U?$_Tree_node@U?$pair@$$CBV?$basic_string@DU?$char_traits@D@std@@V?$allocator@D@2@@std@@W4QUEST_ENUM@@@std@@PAX@std@@@1@@Z
	DD	2 DUP(00H)
	DD	2 DUP(00H)
	DD	00H
	DD	01H
xdata$x	ENDS
;	COMDAT xdata$x
xdata$x	SEGMENT
__unwindtable$??$_Try_emplace@V?$basic_string@DU?$char_traits@D@std@@V?$allocator@D@2@@std@@$$V@?$map@V?$basic_string@DU?$char_traits@D@std@@V?$allocator@D@2@@std@@W4QUEST_ENUM@@U?$less@V?$basic_string@DU?$char_traits@D@std@@V?$allocator@D@2@@std@@@2@V?$allocator@U?$pair@$$CBV?$basic_string@DU?$char_traits@D@std@@V?$allocator@D@2@@std@@W4QUEST_ENUM@@@std@@@2@@std@@AAE?AU?$pair@PAU?$_Tree_node@U?$pair@$$CBV?$basic_string@DU?$char_traits@D@std@@V?$allocator@D@2@@std@@W4QUEST_ENUM@@@std@@PAX@std@@_N@1@$$QAV?$basic_string@DU?$char_traits@D@std@@V?$allocator@D@2@@1@@Z DD 0ffffffffH
	DD	FLAT:__unwindfunclet$??$_Try_emplace@V?$basic_string@DU?$char_traits@D@std@@V?$allocator@D@2@@std@@$$V@?$map@V?$basic_string@DU?$char_traits@D@std@@V?$allocator@D@2@@std@@W4QUEST_ENUM@@U?$less@V?$basic_string@DU?$char_traits@D@std@@V?$allocator@D@2@@std@@@2@V?$allocator@U?$pair@$$CBV?$basic_string@DU?$char_traits@D@std@@V?$allocator@D@2@@std@@W4QUEST_ENUM@@@std@@@2@@std@@AAE?AU?$pair@PAU?$_Tree_node@U?$pair@$$CBV?$basic_string@DU?$char_traits@D@std@@V?$allocator@D@2@@std@@W4QUEST_ENUM@@@std@@PAX@std@@_N@1@$$QAV?$basic_string@DU?$char_traits@D@std@@V?$allocator@D@2@@1@@Z$2
__ehfuncinfo$??$_Try_emplace@V?$basic_string@DU?$char_traits@D@std@@V?$allocator@D@2@@std@@$$V@?$map@V?$basic_string@DU?$char_traits@D@std@@V?$allocator@D@2@@std@@W4QUEST_ENUM@@U?$less@V?$basic_string@DU?$char_traits@D@std@@V?$allocator@D@2@@std@@@2@V?$allocator@U?$pair@$$CBV?$basic_string@DU?$char_traits@D@std@@V?$allocator@D@2@@std@@W4QUEST_ENUM@@@std@@@2@@std@@AAE?AU?$pair@PAU?$_Tree_node@U?$pair@$$CBV?$basic_string@DU?$char_traits@D@std@@V?$allocator@D@2@@std@@W4QUEST_ENUM@@@std@@PAX@std@@_N@1@$$QAV?$basic_string@DU?$char_traits@D@std@@V?$allocator@D@2@@1@@Z DD 019930522H
	DD	01H
	DD	FLAT:__unwindtable$??$_Try_emplace@V?$basic_string@DU?$char_traits@D@std@@V?$allocator@D@2@@std@@$$V@?$map@V?$basic_string@DU?$char_traits@D@std@@V?$allocator@D@2@@std@@W4QUEST_ENUM@@U?$less@V?$basic_string@DU?$char_traits@D@std@@V?$allocator@D@2@@std@@@2@V?$allocator@U?$pair@$$CBV?$basic_string@DU?$char_traits@D@std@@V?$allocator@D@2@@std@@W4QUEST_ENUM@@@std@@@2@@std@@AAE?AU?$pair@PAU?$_Tree_node@U?$pair@$$CBV?$basic_string@DU?$char_traits@D@std@@V?$allocator@D@2@@std@@W4QUEST_ENUM@@@std@@PAX@std@@_N@1@$$QAV?$basic_string@DU?$char_traits@D@std@@V?$allocator@D@2@@1@@Z
	DD	2 DUP(00H)
	DD	2 DUP(00H)
	DD	00H
	DD	01H
xdata$x	ENDS
;	COMDAT xdata$x
xdata$x	SEGMENT
__unwindtable$??A?$map@V?$basic_string@DU?$char_traits@D@std@@V?$allocator@D@2@@std@@W4QUEST_ENUM@@U?$less@V?$basic_string@DU?$char_traits@D@std@@V?$allocator@D@2@@std@@@2@V?$allocator@U?$pair@$$CBV?$basic_string@DU?$char_traits@D@std@@V?$allocator@D@2@@std@@W4QUEST_ENUM@@@std@@@2@@std@@QAEAAW4QUEST_ENUM@@$$QAV?$basic_string@DU?$char_traits@D@std@@V?$allocator@D@2@@1@@Z DD 0ffffffffH
	DD	FLAT:__unwindfunclet$??A?$map@V?$basic_string@DU?$char_traits@D@std@@V?$allocator@D@2@@std@@W4QUEST_ENUM@@U?$less@V?$basic_string@DU?$char_traits@D@std@@V?$allocator@D@2@@std@@@2@V?$allocator@U?$pair@$$CBV?$basic_string@DU?$char_traits@D@std@@V?$allocator@D@2@@std@@W4QUEST_ENUM@@@std@@@2@@std@@QAEAAW4QUEST_ENUM@@$$QAV?$basic_string@DU?$char_traits@D@std@@V?$allocator@D@2@@1@@Z$2
__ehfuncinfo$??A?$map@V?$basic_string@DU?$char_traits@D@std@@V?$allocator@D@2@@std@@W4QUEST_ENUM@@U?$less@V?$basic_string@DU?$char_traits@D@std@@V?$allocator@D@2@@std@@@2@V?$allocator@U?$pair@$$CBV?$basic_string@DU?$char_traits@D@std@@V?$allocator@D@2@@std@@W4QUEST_ENUM@@@std@@@2@@std@@QAEAAW4QUEST_ENUM@@$$QAV?$basic_string@DU?$char_traits@D@std@@V?$allocator@D@2@@1@@Z DD 019930522H
	DD	01H
	DD	FLAT:__unwindtable$??A?$map@V?$basic_string@DU?$char_traits@D@std@@V?$allocator@D@2@@std@@W4QUEST_ENUM@@U?$less@V?$basic_string@DU?$char_traits@D@std@@V?$allocator@D@2@@std@@@2@V?$allocator@U?$pair@$$CBV?$basic_string@DU?$char_traits@D@std@@V?$allocator@D@2@@std@@W4QUEST_ENUM@@@std@@@2@@std@@QAEAAW4QUEST_ENUM@@$$QAV?$basic_string@DU?$char_traits@D@std@@V?$allocator@D@2@@1@@Z
	DD	2 DUP(00H)
	DD	2 DUP(00H)
	DD	00H
	DD	01H
xdata$x	ENDS
;	COMDAT xdata$x
xdata$x	SEGMENT
__unwindtable$?__CreateItem@@YAXKHHHE@Z DD 0ffffffffH
	DD	FLAT:__unwindfunclet$?__CreateItem@@YAXKHHHE@Z$0
__ehfuncinfo$?__CreateItem@@YAXKHHHE@Z DD 019930522H
	DD	01H
	DD	FLAT:__unwindtable$?__CreateItem@@YAXKHHHE@Z
	DD	2 DUP(00H)
	DD	2 DUP(00H)
	DD	00H
	DD	01H
xdata$x	ENDS
;	COMDAT xdata$x
xdata$x	SEGMENT
__unwindtable$?__QuestBeginYes@@YAXHHH@Z DD 0ffffffffH
	DD	FLAT:__unwindfunclet$?__QuestBeginYes@@YAXHHH@Z$0
	DD	00H
	DD	FLAT:__unwindfunclet$?__QuestBeginYes@@YAXHHH@Z$1
	DD	01H
	DD	FLAT:__unwindfunclet$?__QuestBeginYes@@YAXHHH@Z$2
	DD	02H
	DD	FLAT:__unwindfunclet$?__QuestBeginYes@@YAXHHH@Z$3
__ehfuncinfo$?__QuestBeginYes@@YAXHHH@Z DD 019930522H
	DD	04H
	DD	FLAT:__unwindtable$?__QuestBeginYes@@YAXHHH@Z
	DD	2 DUP(00H)
	DD	2 DUP(00H)
	DD	00H
	DD	01H
xdata$x	ENDS
;	COMDAT xdata$x
xdata$x	SEGMENT
__unwindtable$?__QuestEnd@@YAXHHAAHHH@Z DD 0ffffffffH
	DD	FLAT:__unwindfunclet$?__QuestEnd@@YAXHHAAHHH@Z$0
	DD	00H
	DD	FLAT:__unwindfunclet$?__QuestEnd@@YAXHHAAHHH@Z$1
	DD	01H
	DD	FLAT:__unwindfunclet$?__QuestEnd@@YAXHHAAHHH@Z$2
	DD	02H
	DD	FLAT:__unwindfunclet$?__QuestEnd@@YAXHHAAHHH@Z$3
__ehfuncinfo$?__QuestEnd@@YAXHHAAHHH@Z DD 019930522H
	DD	04H
	DD	FLAT:__unwindtable$?__QuestEnd@@YAXHHAAHHH@Z
	DD	2 DUP(00H)
	DD	2 DUP(00H)
	DD	00H
	DD	01H
xdata$x	ENDS
;	COMDAT xdata$x
xdata$x	SEGMENT
__unwindtable$?__SayQuest@@YAHHHH@Z DD 0ffffffffH
	DD	FLAT:__unwindfunclet$?__SayQuest@@YAHHHH@Z$0
__ehfuncinfo$?__SayQuest@@YAHHHH@Z DD 019930522H
	DD	01H
	DD	FLAT:__unwindtable$?__SayQuest@@YAHHHH@Z
	DD	2 DUP(00H)
	DD	2 DUP(00H)
	DD	00H
	DD	01H
xdata$x	ENDS
;	COMDAT xdata$x
xdata$x	SEGMENT
__ehfuncinfo$?InitPredefineKey@@YAXXZ DD 019930522H
	DD	07H
	DD	FLAT:__unwindtable$?InitPredefineKey@@YAXXZ
	DD	2 DUP(00H)
	DD	2 DUP(00H)
	DD	00H
	DD	01H
__unwindtable$?InitPredefineKey@@YAXXZ DD 0ffffffffH
	DD	FLAT:__unwindfunclet$?InitPredefineKey@@YAXXZ$0
	DD	0ffffffffH
	DD	FLAT:__unwindfunclet$?InitPredefineKey@@YAXXZ$1
	DD	0ffffffffH
	DD	FLAT:__unwindfunclet$?InitPredefineKey@@YAXXZ$2
	DD	0ffffffffH
	DD	FLAT:__unwindfunclet$?InitPredefineKey@@YAXXZ$3
	DD	0ffffffffH
	DD	FLAT:__unwindfunclet$?InitPredefineKey@@YAXXZ$4
	DD	0ffffffffH
	DD	FLAT:__unwindfunclet$?InitPredefineKey@@YAXXZ$5
	DD	0ffffffffH
	DD	FLAT:__unwindfunclet$?InitPredefineKey@@YAXXZ$6
xdata$x	ENDS
; Function compile flags: /Ogtp
; File C:\Program Files\Microsoft Visual Studio\2022\Professional\VC\Tools\MSVC\14.44.35207\include\xutility
;	COMDAT ??$_Copy_memmove_tail@PAH@std@@YAPAHQBDQAHII@Z
_TEXT	SEGMENT
__First_ch$ = 8						; size = 4
__Dest$ = 12						; size = 4
__Byte_count$ = 16					; size = 4
__Object_count$ = 20					; size = 4
??$_Copy_memmove_tail@PAH@std@@YAPAHQBDQAHII@Z PROC	; std::_Copy_memmove_tail<int *>, COMDAT

; 4747 :     const char* const _First_ch, const _OutCtgIt _Dest, const size_t _Byte_count, const size_t _Object_count) {

  00000	55		 push	 ebp
  00001	8b ec		 mov	 ebp, esp
  00003	56		 push	 esi

; 4748 :     _STL_INTERNAL_CHECK(_Byte_count == _Object_count * sizeof(*_Dest));
; 4749 :     const auto _Dest_ptr = _STD _To_address(_Dest);
; 4750 :     const auto _Dest_ch  = const_cast<char*>(reinterpret_cast<const volatile char*>(_Dest_ptr));
; 4751 :     _CSTD memmove(_Dest_ch, _First_ch, _Byte_count);

  00004	8b 75 0c	 mov	 esi, DWORD PTR __Dest$[ebp]
  00007	57		 push	 edi
  00008	8b 7d 10	 mov	 edi, DWORD PTR __Byte_count$[ebp]
  0000b	57		 push	 edi
  0000c	ff 75 08	 push	 DWORD PTR __First_ch$[ebp]
  0000f	56		 push	 esi
  00010	e8 00 00 00 00	 call	 _memmove
  00015	83 c4 0c	 add	 esp, 12			; 0000000cH

; 4752 :     if constexpr (is_pointer_v<_OutCtgIt>) {
; 4753 :         (void) _Object_count;
; 4754 :         // CodeQL [SM02986] This cast is correct: we're bypassing pointer arithmetic for performance.
; 4755 :         return reinterpret_cast<_OutCtgIt>(_Dest_ch + _Byte_count);

  00018	8d 04 3e	 lea	 eax, DWORD PTR [esi+edi]
  0001b	5f		 pop	 edi
  0001c	5e		 pop	 esi

; 4756 :     } else {
; 4757 :         return _Dest + static_cast<_Iter_diff_t<_OutCtgIt>>(_Object_count);
; 4758 :     }
; 4759 : }

  0001d	5d		 pop	 ebp
  0001e	c3		 ret	 0
??$_Copy_memmove_tail@PAH@std@@YAPAHQBDQAHII@Z ENDP	; std::_Copy_memmove_tail<int *>
_TEXT	ENDS
; Function compile flags: /Ogtp
; File C:\Program Files\Microsoft Visual Studio\2022\Professional\VC\Tools\MSVC\14.44.35207\include\xutility
;	COMDAT ??$_Copy_memmove@PAHPAH@std@@YAPAHPAH00@Z
_TEXT	SEGMENT
__First$ = 8						; size = 4
__Last$ = 12						; size = 4
__Dest$ = 16						; size = 4
??$_Copy_memmove@PAHPAH@std@@YAPAHPAH00@Z PROC		; std::_Copy_memmove<int *,int *>, COMDAT

; 4762 : _OutCtgIt _Copy_memmove(_CtgIt _First, _CtgIt _Last, _OutCtgIt _Dest) {

  00000	55		 push	 ebp
  00001	8b ec		 mov	 ebp, esp

; 4763 :     _STL_INTERNAL_CHECK(_First <= _Last);
; 4764 :     const auto _First_ptr    = _STD _To_address(_First);
; 4765 :     const auto _Last_ptr     = _STD _To_address(_Last);
; 4766 :     const auto _Object_count = static_cast<size_t>(_Last_ptr - _First_ptr);

  00003	8b 55 08	 mov	 edx, DWORD PTR __First$[ebp]
  00006	8b 4d 0c	 mov	 ecx, DWORD PTR __Last$[ebp]
  00009	2b ca		 sub	 ecx, edx
  0000b	8b c1		 mov	 eax, ecx
  0000d	c1 f8 02	 sar	 eax, 2

; 4767 :     const auto _First_ch     = const_cast<const char*>(reinterpret_cast<const volatile char*>(_First_ptr));
; 4768 :     const auto _Last_ch      = const_cast<const char*>(reinterpret_cast<const volatile char*>(_Last_ptr));
; 4769 :     const auto _Byte_count   = static_cast<size_t>(_Last_ch - _First_ch);
; 4770 :     return _STD _Copy_memmove_tail(_First_ch, _STD move(_Dest), _Byte_count, _Object_count);

  00010	50		 push	 eax
  00011	51		 push	 ecx
  00012	ff 75 10	 push	 DWORD PTR __Dest$[ebp]
  00015	52		 push	 edx
  00016	e8 00 00 00 00	 call	 ??$_Copy_memmove_tail@PAH@std@@YAPAHQBDQAHII@Z ; std::_Copy_memmove_tail<int *>
  0001b	83 c4 10	 add	 esp, 16			; 00000010H

; 4771 : }

  0001e	5d		 pop	 ebp
  0001f	c3		 ret	 0
??$_Copy_memmove@PAHPAH@std@@YAPAHPAH00@Z ENDP		; std::_Copy_memmove<int *,int *>
_TEXT	ENDS
; Function compile flags: /Ogtp
; File C:\Program Files\Microsoft Visual Studio\2022\Professional\VC\Tools\MSVC\14.44.35207\include\vector
; File C:\Program Files\Microsoft Visual Studio\2022\Professional\VC\Tools\MSVC\14.44.35207\include\xmemory
; File C:\Program Files\Microsoft Visual Studio\2022\Professional\VC\Tools\MSVC\14.44.35207\include\vector
; File C:\Program Files\Microsoft Visual Studio\2022\Professional\VC\Tools\MSVC\14.44.35207\include\xmemory
; File C:\Program Files\Microsoft Visual Studio\2022\Professional\VC\Tools\MSVC\14.44.35207\include\vector
; File C:\Program Files\Microsoft Visual Studio\2022\Professional\VC\Tools\MSVC\14.44.35207\include\xmemory
; File C:\Program Files\Microsoft Visual Studio\2022\Professional\VC\Tools\MSVC\14.44.35207\include\vector
; File C:\Program Files\Microsoft Visual Studio\2022\Professional\VC\Tools\MSVC\14.44.35207\include\xmemory
; File C:\Program Files\Microsoft Visual Studio\2022\Professional\VC\Tools\MSVC\14.44.35207\include\vector
; File C:\Program Files\Microsoft Visual Studio\2022\Professional\VC\Tools\MSVC\14.44.35207\include\xmemory
; File C:\Program Files\Microsoft Visual Studio\2022\Professional\VC\Tools\MSVC\14.44.35207\include\vector
; File C:\Program Files\Microsoft Visual Studio\2022\Professional\VC\Tools\MSVC\14.44.35207\include\xmemory
; File C:\Program Files\Microsoft Visual Studio\2022\Professional\VC\Tools\MSVC\14.44.35207\include\vector
; File C:\Program Files\Microsoft Visual Studio\2022\Professional\VC\Tools\MSVC\14.44.35207\include\xmemory
; File C:\Program Files\Microsoft Visual Studio\2022\Professional\VC\Tools\MSVC\14.44.35207\include\vector
; File C:\Program Files\Microsoft Visual Studio\2022\Professional\VC\Tools\MSVC\14.44.35207\include\xmemory
; File C:\Program Files\Microsoft Visual Studio\2022\Professional\VC\Tools\MSVC\14.44.35207\include\vector
;	COMDAT ??$_Emplace_reallocate@ABH@?$vector@HV?$allocator@H@std@@@std@@AAEPAHQAHABH@Z
_TEXT	SEGMENT
__Newsize$1$ = -12					; size = 4
tv652 = -8						; size = 4
tv650 = -4						; size = 4
__Whereptr$ = 8						; size = 4
_<_Val_0>$ = 12						; size = 4
??$_Emplace_reallocate@ABH@?$vector@HV?$allocator@H@std@@@std@@AAEPAHQAHABH@Z PROC ; std::vector<int,std::allocator<int> >::_Emplace_reallocate<int const &>, COMDAT
; _this$ = ecx

; 875  :     _CONSTEXPR20 pointer _Emplace_reallocate(const pointer _Whereptr, _Valty&&... _Val) {

  00000	55		 push	 ebp
  00001	8b ec		 mov	 ebp, esp
  00003	83 ec 0c	 sub	 esp, 12			; 0000000cH
  00006	53		 push	 ebx

; 876  :         // reallocate and insert by perfectly forwarding _Val at _Whereptr
; 877  :         _Alty& _Al        = _Getal();
; 878  :         auto& _My_data    = _Mypair._Myval2;
; 879  :         pointer& _Myfirst = _My_data._Myfirst;
; 880  :         pointer& _Mylast  = _My_data._Mylast;
; 881  : 
; 882  :         _STL_INTERNAL_CHECK(_Mylast == _My_data._Myend); // check that we have no unused capacity
; 883  : 
; 884  :         const auto _Whereoff = static_cast<size_type>(_Whereptr - _Myfirst);

  00007	8b 5d 08	 mov	 ebx, DWORD PTR __Whereptr$[ebp]
  0000a	56		 push	 esi
  0000b	8b f1		 mov	 esi, ecx
  0000d	57		 push	 edi
  0000e	8b 0e		 mov	 ecx, DWORD PTR [esi]
  00010	2b d9		 sub	 ebx, ecx

; 885  :         const auto _Oldsize  = static_cast<size_type>(_Mylast - _Myfirst);

  00012	8b 46 04	 mov	 eax, DWORD PTR [esi+4]
  00015	2b c1		 sub	 eax, ecx
  00017	c1 fb 02	 sar	 ebx, 2
  0001a	c1 f8 02	 sar	 eax, 2

; 886  : 
; 887  :         if (_Oldsize == max_size()) {

  0001d	3d ff ff ff 3f	 cmp	 eax, 1073741823		; 3fffffffH
  00022	0f 84 13 01 00
	00		 je	 $LN111@Emplace_re

; 1924 :         return static_cast<size_type>(_My_data._Myend - _My_data._Myfirst);

  00028	8b 56 08	 mov	 edx, DWORD PTR [esi+8]

; 889  :         }
; 890  : 
; 891  :         const size_type _Newsize = _Oldsize + 1;

  0002b	8d 78 01	 lea	 edi, DWORD PTR [eax+1]

; 1924 :         return static_cast<size_type>(_My_data._Myend - _My_data._Myfirst);

  0002e	2b d1		 sub	 edx, ecx

; 889  :         }
; 890  : 
; 891  :         const size_type _Newsize = _Oldsize + 1;

  00030	89 7d f4	 mov	 DWORD PTR __Newsize$1$[ebp], edi

; 1924 :         return static_cast<size_type>(_My_data._Myend - _My_data._Myfirst);

  00033	c1 fa 02	 sar	 edx, 2

; 2011 :         if (_Oldcapacity > _Max - _Oldcapacity / 2) {

  00036	b8 ff ff ff 3f	 mov	 eax, 1073741823		; 3fffffffH
  0003b	8b ca		 mov	 ecx, edx
  0003d	d1 e9		 shr	 ecx, 1
  0003f	2b c1		 sub	 eax, ecx
  00041	3b d0		 cmp	 edx, eax
  00043	76 14		 jbe	 SHORT $LN8@Emplace_re

; 2012 :             return _Max; // geometric growth would overflow

  00045	b8 fc ff ff ff	 mov	 eax, -4			; fffffffcH
  0004a	c7 45 f8 fc ff
	ff ff		 mov	 DWORD PTR tv652[ebp], -4 ; fffffffcH
; File C:\Program Files\Microsoft Visual Studio\2022\Professional\VC\Tools\MSVC\14.44.35207\include\xmemory

; 253  :             return _Allocate_manually_vector_aligned<_Traits>(_Bytes);

  00051	50		 push	 eax
  00052	e8 00 00 00 00	 call	 ??$_Allocate_manually_vector_aligned@U_Default_allocate_traits@std@@@std@@YAPAXI@Z ; std::_Allocate_manually_vector_aligned<std::_Default_allocate_traits>
  00057	eb 3d		 jmp	 SHORT $LN109@Emplace_re
$LN8@Emplace_re:
; File C:\Program Files\Microsoft Visual Studio\2022\Professional\VC\Tools\MSVC\14.44.35207\include\vector

; 2015 :         const size_type _Geometric = _Oldcapacity + _Oldcapacity / 2;

  00059	8d 04 11	 lea	 eax, DWORD PTR [ecx+edx]
; File C:\Program Files\Microsoft Visual Studio\2022\Professional\VC\Tools\MSVC\14.44.35207\include\xmemory

; 117  :         if (_Count > _Max_possible) {

  0005c	8b cf		 mov	 ecx, edi
  0005e	3b c7		 cmp	 eax, edi
  00060	0f 43 c8	 cmovae	 ecx, eax
  00063	81 f9 ff ff ff
	3f		 cmp	 ecx, 1073741823		; 3fffffffH
  00069	0f 87 d1 00 00
	00		 ja	 $LN112@Emplace_re

; 119  :         }
; 120  :     }
; 121  : 
; 122  :     return _Count * _Ty_size;

  0006f	8d 04 8d 00 00
	00 00		 lea	 eax, DWORD PTR [ecx*4]
  00076	89 45 f8	 mov	 DWORD PTR tv652[ebp], eax

; 227  :     if (_Bytes == 0) {

  00079	85 c0		 test	 eax, eax
  0007b	75 04		 jne	 SHORT $LN23@Emplace_re

; 228  :         return nullptr;

  0007d	33 ff		 xor	 edi, edi
  0007f	eb 1a		 jmp	 SHORT $LN22@Emplace_re
$LN23@Emplace_re:

; 229  :     }
; 230  : 
; 231  : #if _HAS_CXX20 // TRANSITION, GH-1532
; 232  :     if (_STD is_constant_evaluated()) {
; 233  :         return _Traits::_Allocate(_Bytes);
; 234  :     }
; 235  : #endif // _HAS_CXX20
; 236  : 
; 237  : #ifdef __cpp_aligned_new
; 238  :     if constexpr (_Align > __STDCPP_DEFAULT_NEW_ALIGNMENT__) {
; 239  :         size_t _Passed_align = _Align;
; 240  : #if defined(_M_IX86) || defined(_M_X64)
; 241  :         if (_Bytes >= _Big_allocation_threshold) {
; 242  :             // boost the alignment of big allocations to help autovectorization
; 243  :             _Passed_align = (_STD max)(_Align, _Big_allocation_alignment);
; 244  :         }
; 245  : #endif // defined(_M_IX86) || defined(_M_X64)
; 246  :         return _Traits::_Allocate_aligned(_Bytes, _Passed_align);
; 247  :     } else
; 248  : #endif // defined(__cpp_aligned_new)
; 249  :     {
; 250  : #if defined(_M_IX86) || defined(_M_X64)
; 251  :         if (_Bytes >= _Big_allocation_threshold) {

  00081	3d 00 10 00 00	 cmp	 eax, 4096		; 00001000H
  00086	72 08		 jb	 SHORT $LN24@Emplace_re

; 253  :             return _Allocate_manually_vector_aligned<_Traits>(_Bytes);

  00088	50		 push	 eax
  00089	e8 00 00 00 00	 call	 ??$_Allocate_manually_vector_aligned@U_Default_allocate_traits@std@@@std@@YAPAXI@Z ; std::_Allocate_manually_vector_aligned<std::_Default_allocate_traits>
  0008e	eb 06		 jmp	 SHORT $LN109@Emplace_re
$LN24@Emplace_re:

; 136  :         return ::operator new(_Bytes);

  00090	50		 push	 eax
  00091	e8 00 00 00 00	 call	 ??2@YAPAXI@Z		; operator new
$LN109@Emplace_re:
; File C:\Program Files\Microsoft Visual Studio\2022\Professional\VC\Tools\MSVC\14.44.35207\include\vector

; 900  :         _Alty_traits::construct(_Al, _STD _Unfancy(_Newvec + _Whereoff), _STD forward<_Valty>(_Val)...);

  00096	8b f8		 mov	 edi, eax
  00098	83 c4 04	 add	 esp, 4
$LN22@Emplace_re:
  0009b	8b 45 0c	 mov	 eax, DWORD PTR _<_Val_0>$[ebp]
  0009e	8d 0c 9f	 lea	 ecx, DWORD PTR [edi+ebx*4]

; 901  :         _Constructed_first = _Newvec + _Whereoff;
; 902  : 
; 903  :         if (_Whereptr == _Mylast) { // at back, provide strong guarantee

  000a1	8b 5d 08	 mov	 ebx, DWORD PTR __Whereptr$[ebp]
  000a4	89 4d fc	 mov	 DWORD PTR tv650[ebp], ecx
  000a7	8b 00		 mov	 eax, DWORD PTR [eax]
  000a9	89 01		 mov	 DWORD PTR [ecx], eax
  000ab	8b 46 04	 mov	 eax, DWORD PTR [esi+4]
  000ae	8b 0e		 mov	 ecx, DWORD PTR [esi]
  000b0	3b d8		 cmp	 ebx, eax
  000b2	75 07		 jne	 SHORT $LN3@Emplace_re

; 909  :         } else { // provide basic guarantee

  000b4	8b 5d fc	 mov	 ebx, DWORD PTR tv650[ebp]
; File C:\Program Files\Microsoft Visual Studio\2022\Professional\VC\Tools\MSVC\14.44.35207\include\xmemory

; 1992 :             _STD _Copy_memmove(_UFirst, _ULast, _STD _Unfancy(_Dest));

  000b7	8b d7		 mov	 edx, edi
; File C:\Program Files\Microsoft Visual Studio\2022\Professional\VC\Tools\MSVC\14.44.35207\include\vector

; 909  :         } else { // provide basic guarantee

  000b9	eb 16		 jmp	 SHORT $LN52@Emplace_re
$LN3@Emplace_re:
; File C:\Program Files\Microsoft Visual Studio\2022\Professional\VC\Tools\MSVC\14.44.35207\include\xmemory

; 1992 :             _STD _Copy_memmove(_UFirst, _ULast, _STD _Unfancy(_Dest));

  000bb	57		 push	 edi
  000bc	53		 push	 ebx
  000bd	51		 push	 ecx
  000be	e8 00 00 00 00	 call	 ??$_Copy_memmove@PAHPAH@std@@YAPAHPAH00@Z ; std::_Copy_memmove<int *,int *>
  000c3	8b 46 04	 mov	 eax, DWORD PTR [esi+4]
  000c6	8b cb		 mov	 ecx, ebx
; File C:\Program Files\Microsoft Visual Studio\2022\Professional\VC\Tools\MSVC\14.44.35207\include\vector

; 912  :             _STD _Uninitialized_move(_Whereptr, _Mylast, _Newvec + _Whereoff + 1, _Al);

  000c8	8b 5d fc	 mov	 ebx, DWORD PTR tv650[ebp]
; File C:\Program Files\Microsoft Visual Studio\2022\Professional\VC\Tools\MSVC\14.44.35207\include\xmemory

; 1992 :             _STD _Copy_memmove(_UFirst, _ULast, _STD _Unfancy(_Dest));

  000cb	83 c4 0c	 add	 esp, 12			; 0000000cH
; File C:\Program Files\Microsoft Visual Studio\2022\Professional\VC\Tools\MSVC\14.44.35207\include\vector

; 912  :             _STD _Uninitialized_move(_Whereptr, _Mylast, _Newvec + _Whereoff + 1, _Al);

  000ce	8d 53 04	 lea	 edx, DWORD PTR [ebx+4]
$LN52@Emplace_re:

; 913  :         }
; 914  : 
; 915  :         _Guard._New_begin = nullptr;

  000d1	52		 push	 edx
  000d2	50		 push	 eax
  000d3	51		 push	 ecx
  000d4	e8 00 00 00 00	 call	 ??$_Copy_memmove@PAHPAH@std@@YAPAHPAH00@Z ; std::_Copy_memmove<int *,int *>

; 2069 :         if (_Myfirst) { // destroy and deallocate old array

  000d9	8b 06		 mov	 eax, DWORD PTR [esi]

; 913  :         }
; 914  : 
; 915  :         _Guard._New_begin = nullptr;

  000db	83 c4 0c	 add	 esp, 12			; 0000000cH

; 2069 :         if (_Myfirst) { // destroy and deallocate old array

  000de	85 c0		 test	 eax, eax
  000e0	74 2c		 je	 SHORT $LN72@Emplace_re

; 2070 :             _STD _Destroy_range(_Myfirst, _Mylast, _Al);
; 2071 :             _ASAN_VECTOR_REMOVE;
; 2072 :             _Al.deallocate(_Myfirst, static_cast<size_type>(_Myend - _Myfirst));

  000e2	8b 4e 08	 mov	 ecx, DWORD PTR [esi+8]
  000e5	2b c8		 sub	 ecx, eax
; File C:\Program Files\Microsoft Visual Studio\2022\Professional\VC\Tools\MSVC\14.44.35207\include\xmemory

; 985  :         _STD _Deallocate<_New_alignof<_Ty>>(_Ptr, sizeof(_Ty) * _Count);

  000e7	83 e1 fc	 and	 ecx, -4			; fffffffcH

; 284  :         if (_Bytes >= _Big_allocation_threshold) {

  000ea	81 f9 00 10 00
	00		 cmp	 ecx, 4096		; 00001000H
  000f0	72 12		 jb	 SHORT $LN77@Emplace_re

; 205  :     const uintptr_t _Ptr_container   = _Ptr_user[-1];

  000f2	8b 50 fc	 mov	 edx, DWORD PTR [eax-4]
  000f5	83 c1 23	 add	 ecx, 35			; 00000023H

; 206  : 
; 207  :     // If the following asserts, it likely means that we are performing
; 208  :     // an aligned delete on memory coming from an unaligned allocation.
; 209  :     _STL_ASSERT(_Ptr_user[-2] == _Big_allocation_sentinel, "invalid argument");
; 210  : 
; 211  :     // Extra paranoia on aligned allocation/deallocation; ensure _Ptr_container is
; 212  :     // in range [_Min_back_shift, _Non_user_size]
; 213  : #ifdef _DEBUG
; 214  :     constexpr uintptr_t _Min_back_shift = 2 * sizeof(void*);
; 215  : #else // ^^^ defined(_DEBUG) / !defined(_DEBUG) vvv
; 216  :     constexpr uintptr_t _Min_back_shift = sizeof(void*);
; 217  : #endif // ^^^ !defined(_DEBUG) ^^^
; 218  :     const uintptr_t _Back_shift = reinterpret_cast<uintptr_t>(_Ptr) - _Ptr_container;

  000f8	2b c2		 sub	 eax, edx

; 219  :     _STL_VERIFY(_Back_shift >= _Min_back_shift && _Back_shift <= _Non_user_size, "invalid argument");

  000fa	83 c0 fc	 add	 eax, -4			; fffffffcH
  000fd	83 f8 1f	 cmp	 eax, 31			; 0000001fH
  00100	77 2a		 ja	 SHORT $LN76@Emplace_re

; 220  :     _Ptr = reinterpret_cast<void*>(_Ptr_container);

  00102	8b c2		 mov	 eax, edx
$LN77@Emplace_re:

; 289  :         ::operator delete(_Ptr, _Bytes);

  00104	51		 push	 ecx
  00105	50		 push	 eax
  00106	e8 00 00 00 00	 call	 ??3@YAXPAXI@Z		; operator delete
  0010b	83 c4 08	 add	 esp, 8
$LN72@Emplace_re:
; File C:\Program Files\Microsoft Visual Studio\2022\Professional\VC\Tools\MSVC\14.44.35207\include\vector

; 2076 :         _Mylast  = _Newvec + _Newsize;

  0010e	8b 45 f4	 mov	 eax, DWORD PTR __Newsize$1$[ebp]
  00111	89 3e		 mov	 DWORD PTR [esi], edi
  00113	8d 0c 87	 lea	 ecx, DWORD PTR [edi+eax*4]

; 916  :         _Change_array(_Newvec, _Newsize, _Newcapacity);
; 917  :         return _Newvec + _Whereoff;

  00116	8b c3		 mov	 eax, ebx

; 2076 :         _Mylast  = _Newvec + _Newsize;

  00118	89 4e 04	 mov	 DWORD PTR [esi+4], ecx

; 2077 :         _Myend   = _Newvec + _Newcapacity;

  0011b	8b 4d f8	 mov	 ecx, DWORD PTR tv652[ebp]
  0011e	03 cf		 add	 ecx, edi

; 918  :     }

  00120	5f		 pop	 edi

; 2077 :         _Myend   = _Newvec + _Newcapacity;

  00121	89 4e 08	 mov	 DWORD PTR [esi+8], ecx

; 918  :     }

  00124	5e		 pop	 esi
  00125	5b		 pop	 ebx
  00126	8b e5		 mov	 esp, ebp
  00128	5d		 pop	 ebp
  00129	c2 08 00	 ret	 8
$LN76@Emplace_re:
; File C:\Program Files\Microsoft Visual Studio\2022\Professional\VC\Tools\MSVC\14.44.35207\include\xmemory

; 219  :     _STL_VERIFY(_Back_shift >= _Min_back_shift && _Back_shift <= _Non_user_size, "invalid argument");

  0012c	6a 00		 push	 0
  0012e	6a 00		 push	 0
  00130	6a 00		 push	 0
  00132	6a 00		 push	 0
  00134	6a 00		 push	 0
  00136	e8 00 00 00 00	 call	 __invoke_watson
$LN111@Emplace_re:
; File C:\Program Files\Microsoft Visual Studio\2022\Professional\VC\Tools\MSVC\14.44.35207\include\vector

; 888  :             _Xlength();

  0013b	e8 00 00 00 00	 call	 ?_Xlength@?$vector@HV?$allocator@H@std@@@std@@CAXXZ ; std::vector<int,std::allocator<int> >::_Xlength
$LN112@Emplace_re:
; File C:\Program Files\Microsoft Visual Studio\2022\Professional\VC\Tools\MSVC\14.44.35207\include\xmemory

; 118  :             _Throw_bad_array_new_length(); // multiply overflow

  00140	e8 00 00 00 00	 call	 ?_Throw_bad_array_new_length@std@@YAXXZ ; std::_Throw_bad_array_new_length
$LN108@Emplace_re:
  00145	cc		 int	 3
??$_Emplace_reallocate@ABH@?$vector@HV?$allocator@H@std@@@std@@AAEPAHQAHABH@Z ENDP ; std::vector<int,std::allocator<int> >::_Emplace_reallocate<int const &>
_TEXT	ENDS
; Function compile flags: /Ogtp
; File C:\Program Files\Microsoft Visual Studio\2022\Professional\VC\Tools\MSVC\14.44.35207\include\xmemory
;	COMDAT ??1?$_Alloc_construct_ptr@V?$allocator@U?$_Tree_node@U?$pair@$$CBV?$basic_string@DU?$char_traits@D@std@@V?$allocator@D@2@@std@@W4QUEST_ENUM@@@std@@PAX@std@@@std@@@std@@QAE@XZ
_TEXT	SEGMENT
??1?$_Alloc_construct_ptr@V?$allocator@U?$_Tree_node@U?$pair@$$CBV?$basic_string@DU?$char_traits@D@std@@V?$allocator@D@2@@std@@W4QUEST_ENUM@@@std@@PAX@std@@@std@@@std@@QAE@XZ PROC ; std::_Alloc_construct_ptr<std::allocator<std::_Tree_node<std::pair<std::basic_string<char,std::char_traits<char>,std::allocator<char> > const ,enum QUEST_ENUM>,void *> > >::~_Alloc_construct_ptr<std::allocator<std::_Tree_node<std::pair<std::basic_string<char,std::char_traits<char>,std::allocator<char> > const ,enum QUEST_ENUM>,void *> > >, COMDAT
; _this$ = ecx

; 1172 :         if (_Ptr) {

  00000	8b 41 04	 mov	 eax, DWORD PTR [ecx+4]
  00003	85 c0		 test	 eax, eax
  00005	74 0b		 je	 SHORT $LN10@Alloc_cons

; 289  :         ::operator delete(_Ptr, _Bytes);

  00007	6a 2c		 push	 44			; 0000002cH
  00009	50		 push	 eax
  0000a	e8 00 00 00 00	 call	 ??3@YAXPAXI@Z		; operator delete
  0000f	83 c4 08	 add	 esp, 8
$LN10@Alloc_cons:

; 1173 :             _Al.deallocate(_Ptr, 1);
; 1174 :         }
; 1175 :     }

  00012	c3		 ret	 0
??1?$_Alloc_construct_ptr@V?$allocator@U?$_Tree_node@U?$pair@$$CBV?$basic_string@DU?$char_traits@D@std@@V?$allocator@D@2@@std@@W4QUEST_ENUM@@@std@@PAX@std@@@std@@@std@@QAE@XZ ENDP ; std::_Alloc_construct_ptr<std::allocator<std::_Tree_node<std::pair<std::basic_string<char,std::char_traits<char>,std::allocator<char> > const ,enum QUEST_ENUM>,void *> > >::~_Alloc_construct_ptr<std::allocator<std::_Tree_node<std::pair<std::basic_string<char,std::char_traits<char>,std::allocator<char> > const ,enum QUEST_ENUM>,void *> > >
_TEXT	ENDS
; Function compile flags: /Ogtp
; File C:\Program Files\Microsoft Visual Studio\2022\Professional\VC\Tools\MSVC\14.44.35207\include\xtree
; File C:\Program Files\Microsoft Visual Studio\2022\Professional\VC\Tools\MSVC\14.44.35207\include\utility
; File C:\Program Files\Microsoft Visual Studio\2022\Professional\VC\Tools\MSVC\14.44.35207\include\xtree
; File C:\Program Files\Microsoft Visual Studio\2022\Professional\VC\Tools\MSVC\14.44.35207\include\xmemory
; File C:\Program Files\Microsoft Visual Studio\2022\Professional\VC\Tools\MSVC\14.44.35207\include\xtree
; File C:\Program Files\Microsoft Visual Studio\2022\Professional\VC\Tools\MSVC\14.44.35207\include\xmemory
; File C:\Program Files\Microsoft Visual Studio\2022\Professional\VC\Tools\MSVC\14.44.35207\include\xtree
;	COMDAT ??$_Erase_tree@V?$allocator@U?$_Tree_node@U?$pair@$$CBV?$basic_string@DU?$char_traits@D@std@@V?$allocator@D@2@@std@@W4QUEST_ENUM@@@std@@PAX@std@@@std@@@?$_Tree_val@U?$_Tree_simple_types@U?$pair@$$CBV?$basic_string@DU?$char_traits@D@std@@V?$allocator@D@2@@std@@W4QUEST_ENUM@@@std@@@std@@@std@@QAEXAAV?$allocator@U?$_Tree_node@U?$pair@$$CBV?$basic_string@DU?$char_traits@D@std@@V?$allocator@D@2@@std@@W4QUEST_ENUM@@@std@@PAX@std@@@1@PAU?$_Tree_node@U?$pair@$$CBV?$basic_string@DU?$char_traits@D@std@@V?$allocator@D@2@@std@@W4QUEST_ENUM@@@std@@PAX@1@@Z
_TEXT	SEGMENT
_this$1$ = -4						; size = 4
__Al$ = 8						; size = 4
__Rootnode$ = 12					; size = 4
??$_Erase_tree@V?$allocator@U?$_Tree_node@U?$pair@$$CBV?$basic_string@DU?$char_traits@D@std@@V?$allocator@D@2@@std@@W4QUEST_ENUM@@@std@@PAX@std@@@std@@@?$_Tree_val@U?$_Tree_simple_types@U?$pair@$$CBV?$basic_string@DU?$char_traits@D@std@@V?$allocator@D@2@@std@@W4QUEST_ENUM@@@std@@@std@@@std@@QAEXAAV?$allocator@U?$_Tree_node@U?$pair@$$CBV?$basic_string@DU?$char_traits@D@std@@V?$allocator@D@2@@std@@W4QUEST_ENUM@@@std@@PAX@std@@@1@PAU?$_Tree_node@U?$pair@$$CBV?$basic_string@DU?$char_traits@D@std@@V?$allocator@D@2@@std@@W4QUEST_ENUM@@@std@@PAX@1@@Z PROC ; std::_Tree_val<std::_Tree_simple_types<std::pair<std::basic_string<char,std::char_traits<char>,std::allocator<char> > const ,enum QUEST_ENUM> > >::_Erase_tree<std::allocator<std::_Tree_node<std::pair<std::basic_string<char,std::char_traits<char>,std::allocator<char> > const ,enum QUEST_ENUM>,void *> > >, COMDAT
; _this$ = ecx

; 767  :     void _Erase_tree(_Alnode& _Al, _Nodeptr _Rootnode) noexcept {

  00000	55		 push	 ebp
  00001	8b ec		 mov	 ebp, esp
  00003	51		 push	 ecx
  00004	56		 push	 esi

; 768  :         while (!_Rootnode->_Isnil) { // free subtrees, then node

  00005	8b 75 0c	 mov	 esi, DWORD PTR __Rootnode$[ebp]
  00008	8b c1		 mov	 eax, ecx
  0000a	89 45 fc	 mov	 DWORD PTR _this$1$[ebp], eax
  0000d	80 7e 0d 00	 cmp	 BYTE PTR [esi+13], 0
  00011	75 32		 jne	 SHORT $LN45@Erase_tree
  00013	53		 push	 ebx
  00014	8b 5d 08	 mov	 ebx, DWORD PTR __Al$[ebp]
  00017	57		 push	 edi
$LL2@Erase_tree:

; 769  :             _Erase_tree(_Al, _Rootnode->_Right);

  00018	ff 76 08	 push	 DWORD PTR [esi+8]
  0001b	8b c8		 mov	 ecx, eax
  0001d	53		 push	 ebx
  0001e	e8 00 00 00 00	 call	 ??$_Erase_tree@V?$allocator@U?$_Tree_node@U?$pair@$$CBV?$basic_string@DU?$char_traits@D@std@@V?$allocator@D@2@@std@@W4QUEST_ENUM@@@std@@PAX@std@@@std@@@?$_Tree_val@U?$_Tree_simple_types@U?$pair@$$CBV?$basic_string@DU?$char_traits@D@std@@V?$allocator@D@2@@std@@W4QUEST_ENUM@@@std@@@std@@@std@@QAEXAAV?$allocator@U?$_Tree_node@U?$pair@$$CBV?$basic_string@DU?$char_traits@D@std@@V?$allocator@D@2@@std@@W4QUEST_ENUM@@@std@@PAX@std@@@1@PAU?$_Tree_node@U?$pair@$$CBV?$basic_string@DU?$char_traits@D@std@@V?$allocator@D@2@@std@@W4QUEST_ENUM@@@std@@PAX@1@@Z ; std::_Tree_val<std::_Tree_simple_types<std::pair<std::basic_string<char,std::char_traits<char>,std::allocator<char> > const ,enum QUEST_ENUM> > >::_Erase_tree<std::allocator<std::_Tree_node<std::pair<std::basic_string<char,std::char_traits<char>,std::allocator<char> > const ,enum QUEST_ENUM>,void *> > >
; File C:\Program Files\Microsoft Visual Studio\2022\Professional\VC\Tools\MSVC\14.44.35207\include\utility

; 773  :     _Ty _Old_val = static_cast<_Ty&&>(_Val);

  00023	8b fe		 mov	 edi, esi

; 774  :     _Val         = static_cast<_Other&&>(_New_val);

  00025	8b 36		 mov	 esi, DWORD PTR [esi]
; File C:\Program Files\Microsoft Visual Studio\2022\Professional\VC\Tools\MSVC\14.44.35207\include\xtree

; 381  :         allocator_traits<_Alloc>::destroy(_Al, _STD addressof(_Ptr->_Myval));

  00027	8d 4f 10	 lea	 ecx, DWORD PTR [edi+16]
  0002a	e8 00 00 00 00	 call	 ??1?$basic_string@DU?$char_traits@D@std@@V?$allocator@D@2@@std@@QAE@XZ ; std::basic_string<char,std::char_traits<char>,std::allocator<char> >::~basic_string<char,std::char_traits<char>,std::allocator<char> >
; File C:\Program Files\Microsoft Visual Studio\2022\Professional\VC\Tools\MSVC\14.44.35207\include\xmemory

; 289  :         ::operator delete(_Ptr, _Bytes);

  0002f	6a 2c		 push	 44			; 0000002cH
  00031	57		 push	 edi
  00032	e8 00 00 00 00	 call	 ??3@YAXPAXI@Z		; operator delete
; File C:\Program Files\Microsoft Visual Studio\2022\Professional\VC\Tools\MSVC\14.44.35207\include\xtree

; 768  :         while (!_Rootnode->_Isnil) { // free subtrees, then node

  00037	8b 45 fc	 mov	 eax, DWORD PTR _this$1$[ebp]
; File C:\Program Files\Microsoft Visual Studio\2022\Professional\VC\Tools\MSVC\14.44.35207\include\xmemory

; 289  :         ::operator delete(_Ptr, _Bytes);

  0003a	83 c4 08	 add	 esp, 8
; File C:\Program Files\Microsoft Visual Studio\2022\Professional\VC\Tools\MSVC\14.44.35207\include\xtree

; 768  :         while (!_Rootnode->_Isnil) { // free subtrees, then node

  0003d	80 7e 0d 00	 cmp	 BYTE PTR [esi+13], 0
  00041	74 d5		 je	 SHORT $LL2@Erase_tree
  00043	5f		 pop	 edi
  00044	5b		 pop	 ebx
$LN45@Erase_tree:
  00045	5e		 pop	 esi

; 770  :             _Alnode::value_type::_Freenode(_Al, _STD exchange(_Rootnode, _Rootnode->_Left));
; 771  :         }
; 772  :     }

  00046	8b e5		 mov	 esp, ebp
  00048	5d		 pop	 ebp
  00049	c2 08 00	 ret	 8
??$_Erase_tree@V?$allocator@U?$_Tree_node@U?$pair@$$CBV?$basic_string@DU?$char_traits@D@std@@V?$allocator@D@2@@std@@W4QUEST_ENUM@@@std@@PAX@std@@@std@@@?$_Tree_val@U?$_Tree_simple_types@U?$pair@$$CBV?$basic_string@DU?$char_traits@D@std@@V?$allocator@D@2@@std@@W4QUEST_ENUM@@@std@@@std@@@std@@QAEXAAV?$allocator@U?$_Tree_node@U?$pair@$$CBV?$basic_string@DU?$char_traits@D@std@@V?$allocator@D@2@@std@@W4QUEST_ENUM@@@std@@PAX@std@@@1@PAU?$_Tree_node@U?$pair@$$CBV?$basic_string@DU?$char_traits@D@std@@V?$allocator@D@2@@std@@W4QUEST_ENUM@@@std@@PAX@1@@Z ENDP ; std::_Tree_val<std::_Tree_simple_types<std::pair<std::basic_string<char,std::char_traits<char>,std::allocator<char> > const ,enum QUEST_ENUM> > >::_Erase_tree<std::allocator<std::_Tree_node<std::pair<std::basic_string<char,std::char_traits<char>,std::allocator<char> > const ,enum QUEST_ENUM>,void *> > >
_TEXT	ENDS
; Function compile flags: /Ogtp
; File C:\Program Files\Microsoft Visual Studio\2022\Professional\VC\Tools\MSVC\14.44.35207\include\xtree
; File C:\Program Files\Microsoft Visual Studio\2022\Professional\VC\Tools\MSVC\14.44.35207\include\type_traits
; File C:\Program Files\Microsoft Visual Studio\2022\Professional\VC\Tools\MSVC\14.44.35207\include\xtree
;	COMDAT ??$_Find_lower_bound@V?$basic_string@DU?$char_traits@D@std@@V?$allocator@D@2@@std@@@?$_Tree@V?$_Tmap_traits@V?$basic_string@DU?$char_traits@D@std@@V?$allocator@D@2@@std@@W4QUEST_ENUM@@U?$less@V?$basic_string@DU?$char_traits@D@std@@V?$allocator@D@2@@std@@@2@V?$allocator@U?$pair@$$CBV?$basic_string@DU?$char_traits@D@std@@V?$allocator@D@2@@std@@W4QUEST_ENUM@@@std@@@2@$0A@@std@@@std@@IBE?AU?$_Tree_find_result@PAU?$_Tree_node@U?$pair@$$CBV?$basic_string@DU?$char_traits@D@std@@V?$allocator@D@2@@std@@W4QUEST_ENUM@@@std@@PAX@std@@@1@ABV?$basic_string@DU?$char_traits@D@std@@V?$allocator@D@2@@1@@Z
_TEXT	SEGMENT
___$ReturnUdt$ = 8					; size = 4
__Keyval$ = 12						; size = 4
??$_Find_lower_bound@V?$basic_string@DU?$char_traits@D@std@@V?$allocator@D@2@@std@@@?$_Tree@V?$_Tmap_traits@V?$basic_string@DU?$char_traits@D@std@@V?$allocator@D@2@@std@@W4QUEST_ENUM@@U?$less@V?$basic_string@DU?$char_traits@D@std@@V?$allocator@D@2@@std@@@2@V?$allocator@U?$pair@$$CBV?$basic_string@DU?$char_traits@D@std@@V?$allocator@D@2@@std@@W4QUEST_ENUM@@@std@@@2@$0A@@std@@@std@@IBE?AU?$_Tree_find_result@PAU?$_Tree_node@U?$pair@$$CBV?$basic_string@DU?$char_traits@D@std@@V?$allocator@D@2@@std@@W4QUEST_ENUM@@@std@@PAX@std@@@1@ABV?$basic_string@DU?$char_traits@D@std@@V?$allocator@D@2@@1@@Z PROC ; std::_Tree<std::_Tmap_traits<std::basic_string<char,std::char_traits<char>,std::allocator<char> >,enum QUEST_ENUM,std::less<std::basic_string<char,std::char_traits<char>,std::allocator<char> > >,std::allocator<std::pair<std::basic_string<char,std::char_traits<char>,std::allocator<char> > const ,enum QUEST_ENUM> >,0> >::_Find_lower_bound<std::basic_string<char,std::char_traits<char>,std::allocator<char> > >, COMDAT
; _this$ = ecx

; 1628 :     _Tree_find_result<_Nodeptr> _Find_lower_bound(const _Keyty& _Keyval) const {

  00000	55		 push	 ebp
  00001	8b ec		 mov	 ebp, esp

; 1629 :         const auto _Scary = _Get_scary();
; 1630 :         _Tree_find_result<_Nodeptr> _Result{{_Scary->_Myhead->_Parent, _Tree_child::_Right}, _Scary->_Myhead};

  00003	8b 01		 mov	 eax, DWORD PTR [ecx]
  00005	56		 push	 esi
  00006	57		 push	 edi
  00007	8b 7d 08	 mov	 edi, DWORD PTR ___$ReturnUdt$[ebp]
  0000a	8b 70 04	 mov	 esi, DWORD PTR [eax+4]
  0000d	89 37		 mov	 DWORD PTR [edi], esi

; 1631 :         _Nodeptr _Trynode = _Result._Location._Parent;
; 1632 :         while (!_Trynode->_Isnil) {

  0000f	80 7e 0d 00	 cmp	 BYTE PTR [esi+13], 0
  00013	c7 47 04 00 00
	00 00		 mov	 DWORD PTR [edi+4], 0
  0001a	89 47 08	 mov	 DWORD PTR [edi+8], eax
  0001d	75 32		 jne	 SHORT $LN13@Find_lower
  0001f	53		 push	 ebx
  00020	8b 5d 0c	 mov	 ebx, DWORD PTR __Keyval$[ebp]
$LL2@Find_lower:

; 1634 :             if (_DEBUG_LT_PRED(_Getcomp(), _Traits::_Kfn(_Trynode->_Myval), _Keyval)) {

  00023	8d 46 10	 lea	 eax, DWORD PTR [esi+16]
  00026	89 37		 mov	 DWORD PTR [edi], esi
; File C:\Program Files\Microsoft Visual Studio\2022\Professional\VC\Tools\MSVC\14.44.35207\include\type_traits

; 2380 :         return _Left < _Right;

  00028	53		 push	 ebx
  00029	50		 push	 eax
  0002a	e8 00 00 00 00	 call	 ??$?MDU?$char_traits@D@std@@V?$allocator@D@1@@std@@YA_NABV?$basic_string@DU?$char_traits@D@std@@V?$allocator@D@2@@0@0@Z ; std::operator<<char,std::char_traits<char>,std::allocator<char> >
  0002f	83 c4 08	 add	 esp, 8
; File C:\Program Files\Microsoft Visual Studio\2022\Professional\VC\Tools\MSVC\14.44.35207\include\xtree

; 1634 :             if (_DEBUG_LT_PRED(_Getcomp(), _Traits::_Kfn(_Trynode->_Myval), _Keyval)) {

  00032	84 c0		 test	 al, al
  00034	74 07		 je	 SHORT $LN4@Find_lower

; 1635 :                 _Result._Location._Child = _Tree_child::_Right;
; 1636 :                 _Trynode                 = _Trynode->_Right;

  00036	8b 76 08	 mov	 esi, DWORD PTR [esi+8]
  00039	33 c0		 xor	 eax, eax

; 1637 :             } else {

  0003b	eb 0a		 jmp	 SHORT $LN5@Find_lower
$LN4@Find_lower:

; 1638 :                 _Result._Location._Child = _Tree_child::_Left;
; 1639 :                 _Result._Bound           = _Trynode;

  0003d	89 77 08	 mov	 DWORD PTR [edi+8], esi

; 1640 :                 _Trynode                 = _Trynode->_Left;

  00040	b8 01 00 00 00	 mov	 eax, 1
  00045	8b 36		 mov	 esi, DWORD PTR [esi]
$LN5@Find_lower:

; 1631 :         _Nodeptr _Trynode = _Result._Location._Parent;
; 1632 :         while (!_Trynode->_Isnil) {

  00047	89 47 04	 mov	 DWORD PTR [edi+4], eax
  0004a	80 7e 0d 00	 cmp	 BYTE PTR [esi+13], 0
  0004e	74 d3		 je	 SHORT $LL2@Find_lower
  00050	5b		 pop	 ebx
$LN13@Find_lower:

; 1641 :             }
; 1642 :         }
; 1643 : 
; 1644 :         return _Result;
; 1645 :     }

  00051	8b c7		 mov	 eax, edi
  00053	5f		 pop	 edi
  00054	5e		 pop	 esi
  00055	5d		 pop	 ebp
  00056	c2 08 00	 ret	 8
??$_Find_lower_bound@V?$basic_string@DU?$char_traits@D@std@@V?$allocator@D@2@@std@@@?$_Tree@V?$_Tmap_traits@V?$basic_string@DU?$char_traits@D@std@@V?$allocator@D@2@@std@@W4QUEST_ENUM@@U?$less@V?$basic_string@DU?$char_traits@D@std@@V?$allocator@D@2@@std@@@2@V?$allocator@U?$pair@$$CBV?$basic_string@DU?$char_traits@D@std@@V?$allocator@D@2@@std@@W4QUEST_ENUM@@@std@@@2@$0A@@std@@@std@@IBE?AU?$_Tree_find_result@PAU?$_Tree_node@U?$pair@$$CBV?$basic_string@DU?$char_traits@D@std@@V?$allocator@D@2@@std@@W4QUEST_ENUM@@@std@@PAX@std@@@1@ABV?$basic_string@DU?$char_traits@D@std@@V?$allocator@D@2@@1@@Z ENDP ; std::_Tree<std::_Tmap_traits<std::basic_string<char,std::char_traits<char>,std::allocator<char> >,enum QUEST_ENUM,std::less<std::basic_string<char,std::char_traits<char>,std::allocator<char> > >,std::allocator<std::pair<std::basic_string<char,std::char_traits<char>,std::allocator<char> > const ,enum QUEST_ENUM> >,0> >::_Find_lower_bound<std::basic_string<char,std::char_traits<char>,std::allocator<char> > >
_TEXT	ENDS
; Function compile flags: /Ogtp
; File C:\Program Files\Microsoft Visual Studio\2022\Professional\VC\Tools\MSVC\14.44.35207\include\xtree
; File C:\Program Files\Microsoft Visual Studio\2022\Professional\VC\Tools\MSVC\14.44.35207\include\xmemory
;	COMDAT ??__Fg_mapKey@@YAXXZ
text$yd	SEGMENT
??__Fg_mapKey@@YAXXZ PROC				; `dynamic atexit destructor for 'g_mapKey'', COMDAT
; File C:\Program Files\Microsoft Visual Studio\2022\Professional\VC\Tools\MSVC\14.44.35207\include\xtree

; 777  :         _Erase_tree(_Al, _Myhead->_Parent);

  00000	a1 00 00 00 00	 mov	 eax, DWORD PTR ?g_mapKey@@3V?$map@V?$basic_string@DU?$char_traits@D@std@@V?$allocator@D@2@@std@@W4QUEST_ENUM@@U?$less@V?$basic_string@DU?$char_traits@D@std@@V?$allocator@D@2@@std@@@2@V?$allocator@U?$pair@$$CBV?$basic_string@DU?$char_traits@D@std@@V?$allocator@D@2@@std@@W4QUEST_ENUM@@@std@@@2@@std@@A
  00005	b9 00 00 00 00	 mov	 ecx, OFFSET ?g_mapKey@@3V?$map@V?$basic_string@DU?$char_traits@D@std@@V?$allocator@D@2@@std@@W4QUEST_ENUM@@U?$less@V?$basic_string@DU?$char_traits@D@std@@V?$allocator@D@2@@std@@@2@V?$allocator@U?$pair@$$CBV?$basic_string@DU?$char_traits@D@std@@V?$allocator@D@2@@std@@W4QUEST_ENUM@@@std@@@2@@std@@A
  0000a	ff 70 04	 push	 DWORD PTR [eax+4]
  0000d	68 00 00 00 00	 push	 OFFSET ?g_mapKey@@3V?$map@V?$basic_string@DU?$char_traits@D@std@@V?$allocator@D@2@@std@@W4QUEST_ENUM@@U?$less@V?$basic_string@DU?$char_traits@D@std@@V?$allocator@D@2@@std@@@2@V?$allocator@U?$pair@$$CBV?$basic_string@DU?$char_traits@D@std@@V?$allocator@D@2@@std@@W4QUEST_ENUM@@@std@@@2@@std@@A
  00012	e8 00 00 00 00	 call	 ??$_Erase_tree@V?$allocator@U?$_Tree_node@U?$pair@$$CBV?$basic_string@DU?$char_traits@D@std@@V?$allocator@D@2@@std@@W4QUEST_ENUM@@@std@@PAX@std@@@std@@@?$_Tree_val@U?$_Tree_simple_types@U?$pair@$$CBV?$basic_string@DU?$char_traits@D@std@@V?$allocator@D@2@@std@@W4QUEST_ENUM@@@std@@@std@@@std@@QAEXAAV?$allocator@U?$_Tree_node@U?$pair@$$CBV?$basic_string@DU?$char_traits@D@std@@V?$allocator@D@2@@std@@W4QUEST_ENUM@@@std@@PAX@std@@@1@PAU?$_Tree_node@U?$pair@$$CBV?$basic_string@DU?$char_traits@D@std@@V?$allocator@D@2@@std@@W4QUEST_ENUM@@@std@@PAX@1@@Z ; std::_Tree_val<std::_Tree_simple_types<std::pair<std::basic_string<char,std::char_traits<char>,std::allocator<char> > const ,enum QUEST_ENUM> > >::_Erase_tree<std::allocator<std::_Tree_node<std::pair<std::basic_string<char,std::char_traits<char>,std::allocator<char> > const ,enum QUEST_ENUM>,void *> > >
; File C:\Program Files\Microsoft Visual Studio\2022\Professional\VC\Tools\MSVC\14.44.35207\include\xmemory

; 289  :         ::operator delete(_Ptr, _Bytes);

  00017	6a 2c		 push	 44			; 0000002cH
  00019	ff 35 00 00 00
	00		 push	 DWORD PTR ?g_mapKey@@3V?$map@V?$basic_string@DU?$char_traits@D@std@@V?$allocator@D@2@@std@@W4QUEST_ENUM@@U?$less@V?$basic_string@DU?$char_traits@D@std@@V?$allocator@D@2@@std@@@2@V?$allocator@U?$pair@$$CBV?$basic_string@DU?$char_traits@D@std@@V?$allocator@D@2@@std@@W4QUEST_ENUM@@@std@@@2@@std@@A
  0001f	e8 00 00 00 00	 call	 ??3@YAXPAXI@Z		; operator delete
  00024	83 c4 08	 add	 esp, 8
  00027	c3		 ret	 0
??__Fg_mapKey@@YAXXZ ENDP				; `dynamic atexit destructor for 'g_mapKey''
text$yd	ENDS
; Function compile flags: /Ogtp
; File C:\IAGOS\server\v18\Source\Source\_Common\ScriptHelper.cpp
; File C:\Program Files\Microsoft Visual Studio\2022\Professional\VC\Tools\MSVC\14.44.35207\include\xmemory
; File C:\IAGOS\server\v18\Source\Source\_Common\ScriptHelper.cpp
; File C:\Program Files\Microsoft Visual Studio\2022\Professional\VC\Tools\MSVC\14.44.35207\include\xtree
; File C:\IAGOS\server\v18\Source\Source\_Common\ScriptHelper.cpp
;	COMDAT ??__Eg_mapKey@@YAXXZ
text$di	SEGMENT
??__Eg_mapKey@@YAXXZ PROC				; `dynamic initializer for 'g_mapKey'', COMDAT
; File C:\Program Files\Microsoft Visual Studio\2022\Professional\VC\Tools\MSVC\14.44.35207\include\xmemory

; 136  :         return ::operator new(_Bytes);

  00000	6a 2c		 push	 44			; 0000002cH
  00002	e8 00 00 00 00	 call	 ??2@YAPAXI@Z		; operator new
; File C:\IAGOS\server\v18\Source\Source\_Common\ScriptHelper.cpp

; 40   : static map< string, QUEST_ENUM > g_mapKey;

  00007	68 00 00 00 00	 push	 OFFSET ??__Fg_mapKey@@YAXXZ ; `dynamic atexit destructor for 'g_mapKey''
; File C:\Program Files\Microsoft Visual Studio\2022\Professional\VC\Tools\MSVC\14.44.35207\include\xtree

; 346  :         _Construct_in_place(_Pnode->_Left, _Pnode);

  0000c	89 00		 mov	 DWORD PTR [eax], eax

; 347  :         _Construct_in_place(_Pnode->_Parent, _Pnode);

  0000e	89 40 04	 mov	 DWORD PTR [eax+4], eax

; 348  :         _Construct_in_place(_Pnode->_Right, _Pnode);

  00011	89 40 08	 mov	 DWORD PTR [eax+8], eax

; 349  :         _Pnode->_Color = _Black;

  00014	66 c7 40 0c 01
	01		 mov	 WORD PTR [eax+12], 257	; 00000101H

; 1957 :         _Scary->_Myhead = _Node::_Buyheadnode(_Getal());

  0001a	a3 00 00 00 00	 mov	 DWORD PTR ?g_mapKey@@3V?$map@V?$basic_string@DU?$char_traits@D@std@@V?$allocator@D@2@@std@@W4QUEST_ENUM@@U?$less@V?$basic_string@DU?$char_traits@D@std@@V?$allocator@D@2@@std@@@2@V?$allocator@U?$pair@$$CBV?$basic_string@DU?$char_traits@D@std@@V?$allocator@D@2@@std@@W4QUEST_ENUM@@@std@@@2@@std@@A, eax
; File C:\IAGOS\server\v18\Source\Source\_Common\ScriptHelper.cpp

; 40   : static map< string, QUEST_ENUM > g_mapKey;

  0001f	e8 00 00 00 00	 call	 _atexit
  00024	83 c4 08	 add	 esp, 8
  00027	c3		 ret	 0
??__Eg_mapKey@@YAXXZ ENDP				; `dynamic initializer for 'g_mapKey''
text$di	ENDS
; Function compile flags: /Ogtp
; File C:\Program Files\Microsoft Visual Studio\2022\Professional\VC\Tools\MSVC\14.44.35207\include\map
; File C:\Program Files\Microsoft Visual Studio\2022\Professional\VC\Tools\MSVC\14.44.35207\include\xtree
; File C:\Program Files\Microsoft Visual Studio\2022\Professional\VC\Tools\MSVC\14.44.35207\include\type_traits
; File C:\Program Files\Microsoft Visual Studio\2022\Professional\VC\Tools\MSVC\14.44.35207\include\xtree
; File C:\Program Files\Microsoft Visual Studio\2022\Professional\VC\Tools\MSVC\14.44.35207\include\map
; File C:\Program Files\Microsoft Visual Studio\2022\Professional\VC\Tools\MSVC\14.44.35207\include\xmemory
; File C:\Program Files\Microsoft Visual Studio\2022\Professional\VC\Tools\MSVC\14.44.35207\include\xtree
; File C:\Program Files\Microsoft Visual Studio\2022\Professional\VC\Tools\MSVC\14.44.35207\include\xmemory
; File C:\Program Files\Microsoft Visual Studio\2022\Professional\VC\Tools\MSVC\14.44.35207\include\map
; File C:\Program Files\Microsoft Visual Studio\2022\Professional\VC\Tools\MSVC\14.44.35207\include\xmemory
; File C:\Program Files\Microsoft Visual Studio\2022\Professional\VC\Tools\MSVC\14.44.35207\include\xstring
; File C:\Program Files\Microsoft Visual Studio\2022\Professional\VC\Tools\MSVC\14.44.35207\include\map
; File C:\Program Files\Microsoft Visual Studio\2022\Professional\VC\Tools\MSVC\14.44.35207\include\xstring
; File C:\Program Files\Microsoft Visual Studio\2022\Professional\VC\Tools\MSVC\14.44.35207\include\map
; File C:\Program Files\Microsoft Visual Studio\2022\Professional\VC\Tools\MSVC\14.44.35207\include\xstring
; File C:\Program Files\Microsoft Visual Studio\2022\Professional\VC\Tools\MSVC\14.44.35207\include\utility
; File C:\Program Files\Microsoft Visual Studio\2022\Professional\VC\Tools\MSVC\14.44.35207\include\xtree
; File C:\Program Files\Microsoft Visual Studio\2022\Professional\VC\Tools\MSVC\14.44.35207\include\map
; File C:\Program Files\Microsoft Visual Studio\2022\Professional\VC\Tools\MSVC\14.44.35207\include\xtree
; File C:\Program Files\Microsoft Visual Studio\2022\Professional\VC\Tools\MSVC\14.44.35207\include\map
;	COMDAT ??A?$map@V?$basic_string@DU?$char_traits@D@std@@V?$allocator@D@2@@std@@W4QUEST_ENUM@@U?$less@V?$basic_string@DU?$char_traits@D@std@@V?$allocator@D@2@@std@@@2@V?$allocator@U?$pair@$$CBV?$basic_string@DU?$char_traits@D@std@@V?$allocator@D@2@@std@@W4QUEST_ENUM@@@std@@@2@@std@@QAEAAW4QUEST_ENUM@@$$QAV?$basic_string@DU?$char_traits@D@std@@V?$allocator@D@2@@1@@Z
_TEXT	SEGMENT
__Loc$2 = -36						; size = 12
$T3 = -24						; size = 8
_this$1$ = -16						; size = 4
__$EHRec$ = -12						; size = 12
__Keyval$ = 8						; size = 4
??A?$map@V?$basic_string@DU?$char_traits@D@std@@V?$allocator@D@2@@std@@W4QUEST_ENUM@@U?$less@V?$basic_string@DU?$char_traits@D@std@@V?$allocator@D@2@@std@@@2@V?$allocator@U?$pair@$$CBV?$basic_string@DU?$char_traits@D@std@@V?$allocator@D@2@@std@@W4QUEST_ENUM@@@std@@@2@@std@@QAEAAW4QUEST_ENUM@@$$QAV?$basic_string@DU?$char_traits@D@std@@V?$allocator@D@2@@1@@Z PROC ; std::map<std::basic_string<char,std::char_traits<char>,std::allocator<char> >,enum QUEST_ENUM,std::less<std::basic_string<char,std::char_traits<char>,std::allocator<char> > >,std::allocator<std::pair<std::basic_string<char,std::char_traits<char>,std::allocator<char> > const ,enum QUEST_ENUM> > >::operator[], COMDAT
; _this$ = ecx

; 174  :     mapped_type& operator[](key_type&& _Keyval) { // find element matching _Keyval or insert value-initialized value

  00000	55		 push	 ebp
  00001	8b ec		 mov	 ebp, esp
  00003	6a ff		 push	 -1
  00005	68 00 00 00 00	 push	 __ehhandler$??A?$map@V?$basic_string@DU?$char_traits@D@std@@V?$allocator@D@2@@std@@W4QUEST_ENUM@@U?$less@V?$basic_string@DU?$char_traits@D@std@@V?$allocator@D@2@@std@@@2@V?$allocator@U?$pair@$$CBV?$basic_string@DU?$char_traits@D@std@@V?$allocator@D@2@@std@@W4QUEST_ENUM@@@std@@@2@@std@@QAEAAW4QUEST_ENUM@@$$QAV?$basic_string@DU?$char_traits@D@std@@V?$allocator@D@2@@1@@Z
  0000a	64 a1 00 00 00
	00		 mov	 eax, DWORD PTR fs:0
  00010	50		 push	 eax
  00011	83 ec 18	 sub	 esp, 24			; 00000018H
  00014	56		 push	 esi
  00015	57		 push	 edi
  00016	a1 00 00 00 00	 mov	 eax, DWORD PTR ___security_cookie
  0001b	33 c5		 xor	 eax, ebp
  0001d	50		 push	 eax
  0001e	8d 45 f4	 lea	 eax, DWORD PTR __$EHRec$[ebp]
  00021	64 a3 00 00 00
	00		 mov	 DWORD PTR fs:0, eax
  00027	89 4d f0	 mov	 DWORD PTR _this$1$[ebp], ecx

; 197  :         const auto _Loc = _Mybase::_Find_lower_bound(_Keyval);

  0002a	8b 7d 08	 mov	 edi, DWORD PTR __Keyval$[ebp]
  0002d	8d 45 dc	 lea	 eax, DWORD PTR __Loc$2[ebp]
  00030	57		 push	 edi
  00031	50		 push	 eax
  00032	e8 00 00 00 00	 call	 ??$_Find_lower_bound@V?$basic_string@DU?$char_traits@D@std@@V?$allocator@D@2@@std@@@?$_Tree@V?$_Tmap_traits@V?$basic_string@DU?$char_traits@D@std@@V?$allocator@D@2@@std@@W4QUEST_ENUM@@U?$less@V?$basic_string@DU?$char_traits@D@std@@V?$allocator@D@2@@std@@@2@V?$allocator@U?$pair@$$CBV?$basic_string@DU?$char_traits@D@std@@V?$allocator@D@2@@std@@W4QUEST_ENUM@@@std@@@2@$0A@@std@@@std@@IBE?AU?$_Tree_find_result@PAU?$_Tree_node@U?$pair@$$CBV?$basic_string@DU?$char_traits@D@std@@V?$allocator@D@2@@std@@W4QUEST_ENUM@@@std@@PAX@std@@@1@ABV?$basic_string@DU?$char_traits@D@std@@V?$allocator@D@2@@1@@Z ; std::_Tree<std::_Tmap_traits<std::basic_string<char,std::char_traits<char>,std::allocator<char> >,enum QUEST_ENUM,std::less<std::basic_string<char,std::char_traits<char>,std::allocator<char> > >,std::allocator<std::pair<std::basic_string<char,std::char_traits<char>,std::allocator<char> > const ,enum QUEST_ENUM> >,0> >::_Find_lower_bound<std::basic_string<char,std::char_traits<char>,std::allocator<char> > >
; File C:\Program Files\Microsoft Visual Studio\2022\Professional\VC\Tools\MSVC\14.44.35207\include\xtree

; 1624 :         return !_Bound->_Isnil && !_DEBUG_LT_PRED(_Getcomp(), _Keyval, _Traits::_Kfn(_Bound->_Myval));

  00037	8b 75 e4	 mov	 esi, DWORD PTR __Loc$2[ebp+8]
  0003a	80 7e 0d 00	 cmp	 BYTE PTR [esi+13], 0
  0003e	75 15		 jne	 SHORT $LN4@operator
  00040	8d 46 10	 lea	 eax, DWORD PTR [esi+16]
; File C:\Program Files\Microsoft Visual Studio\2022\Professional\VC\Tools\MSVC\14.44.35207\include\type_traits

; 2380 :         return _Left < _Right;

  00043	50		 push	 eax
  00044	57		 push	 edi
  00045	e8 00 00 00 00	 call	 ??$?MDU?$char_traits@D@std@@V?$allocator@D@1@@std@@YA_NABV?$basic_string@DU?$char_traits@D@std@@V?$allocator@D@2@@0@0@Z ; std::operator<<char,std::char_traits<char>,std::allocator<char> >
  0004a	83 c4 08	 add	 esp, 8
; File C:\Program Files\Microsoft Visual Studio\2022\Professional\VC\Tools\MSVC\14.44.35207\include\xtree

; 1624 :         return !_Bound->_Isnil && !_DEBUG_LT_PRED(_Getcomp(), _Keyval, _Traits::_Kfn(_Bound->_Myval));

  0004d	84 c0		 test	 al, al
  0004f	0f 84 8a 00 00
	00		 je	 $LN3@operator
$LN4@operator:

; 1648 :         if (max_size() == _Get_scary()->_Mysize) {

  00055	8b 45 f0	 mov	 eax, DWORD PTR _this$1$[ebp]
  00058	81 78 04 5d 74
	d1 05		 cmp	 DWORD PTR [eax+4], 97612893 ; 05d1745dH
  0005f	0f 84 90 00 00
	00		 je	 $LN184@operator
; File C:\Program Files\Microsoft Visual Studio\2022\Professional\VC\Tools\MSVC\14.44.35207\include\map

; 205  :         const auto _Inserted = _Tree_temp_node<_Alnode>(_Mybase::_Getal(), _Scary->_Myhead, piecewise_construct,

  00065	8b 30		 mov	 esi, DWORD PTR [eax]
; File C:\Program Files\Microsoft Visual Studio\2022\Professional\VC\Tools\MSVC\14.44.35207\include\xmemory

; 1160 :     _CONSTEXPR20 explicit _Alloc_construct_ptr(_Alloc& _Al_) : _Al(_Al_), _Ptr(nullptr) {}

  00067	89 45 e8	 mov	 DWORD PTR $T3[ebp], eax

; 136  :         return ::operator new(_Bytes);

  0006a	6a 2c		 push	 44			; 0000002cH
; File C:\Program Files\Microsoft Visual Studio\2022\Professional\VC\Tools\MSVC\14.44.35207\include\xtree

; 808  :     explicit _Tree_temp_node_alloc(_Alnode& _Al_) : _Alloc_construct_ptr<_Alnode>(_Al_) {

  0006c	c7 45 fc 00 00
	00 00		 mov	 DWORD PTR __$EHRec$[ebp+8], 0
; File C:\Program Files\Microsoft Visual Studio\2022\Professional\VC\Tools\MSVC\14.44.35207\include\xmemory

; 1167 :         _Ptr = nullptr; // if allocate throws, prevents double-free

  00073	c7 45 ec 00 00
	00 00		 mov	 DWORD PTR $T3[ebp+4], 0

; 136  :         return ::operator new(_Bytes);

  0007a	e8 00 00 00 00	 call	 ??2@YAPAXI@Z		; operator new
; File C:\Program Files\Microsoft Visual Studio\2022\Professional\VC\Tools\MSVC\14.44.35207\include\map

; 211  :         return {_Scary->_Insert_node(_Loc._Location, _Inserted), true};

  0007f	8b 4d f0	 mov	 ecx, DWORD PTR _this$1$[ebp]
  00082	0f 57 c0	 xorps	 xmm0, xmm0
; File C:\Program Files\Microsoft Visual Studio\2022\Professional\VC\Tools\MSVC\14.44.35207\include\xmemory

; 136  :         return ::operator new(_Bytes);

  00085	83 c4 04	 add	 esp, 4
; File C:\Program Files\Microsoft Visual Studio\2022\Professional\VC\Tools\MSVC\14.44.35207\include\xstring

; 493  :         _CONSTEXPR20 _Bxty() noexcept : _Buf() {} // user-provided, for fancy pointers

  00088	0f 11 40 10	 movups	 XMMWORD PTR [eax+16], xmm0

; 517  :     size_type _Mysize = 0; // current length of string (size)

  0008c	c7 40 20 00 00
	00 00		 mov	 DWORD PTR [eax+32], 0

; 518  :     size_type _Myres  = 0; // current storage reserved for string (capacity)

  00093	c7 40 24 00 00
	00 00		 mov	 DWORD PTR [eax+36], 0

; 1286 :                 _CSTD memcpy(_My_data_mem, _Right_data_mem, _Memcpy_val_size);

  0009a	0f 10 07	 movups	 xmm0, XMMWORD PTR [edi]
; File C:\Program Files\Microsoft Visual Studio\2022\Professional\VC\Tools\MSVC\14.44.35207\include\map

; 211  :         return {_Scary->_Insert_node(_Loc._Location, _Inserted), true};

  0009d	50		 push	 eax
  0009e	ff 75 e0	 push	 DWORD PTR __Loc$2[ebp+4]
; File C:\Program Files\Microsoft Visual Studio\2022\Professional\VC\Tools\MSVC\14.44.35207\include\xstring

; 1286 :                 _CSTD memcpy(_My_data_mem, _Right_data_mem, _Memcpy_val_size);

  000a1	0f 11 40 10	 movups	 XMMWORD PTR [eax+16], xmm0
  000a5	f3 0f 7e 47 10	 movq	 xmm0, QWORD PTR [edi+16]
; File C:\Program Files\Microsoft Visual Studio\2022\Professional\VC\Tools\MSVC\14.44.35207\include\map

; 211  :         return {_Scary->_Insert_node(_Loc._Location, _Inserted), true};

  000aa	ff 75 dc	 push	 DWORD PTR __Loc$2[ebp]
; File C:\Program Files\Microsoft Visual Studio\2022\Professional\VC\Tools\MSVC\14.44.35207\include\xstring

; 1286 :                 _CSTD memcpy(_My_data_mem, _Right_data_mem, _Memcpy_val_size);

  000ad	66 0f d6 40 20	 movq	 QWORD PTR [eax+32], xmm0

; 1287 : 
; 1288 :                 _Right_data._Mysize = 0;

  000b2	c7 47 10 00 00
	00 00		 mov	 DWORD PTR [edi+16], 0

; 1289 :                 _Right_data._Myres  = _Small_string_capacity;

  000b9	c7 47 14 0f 00
	00 00		 mov	 DWORD PTR [edi+20], 15	; 0000000fH

; 1290 :                 _Right_data._Activate_SSO_buffer();
; 1291 :                 _Traits::assign(_Right_data._Bx._Buf[0], _Elem());

  000c0	c6 07 00	 mov	 BYTE PTR [edi], 0
; File C:\Program Files\Microsoft Visual Studio\2022\Professional\VC\Tools\MSVC\14.44.35207\include\utility

; 479  :           second(_STD _Tuple_get<_Indices2>(_STD move(_Val2))...) {}

  000c3	c7 40 28 00 00
	00 00		 mov	 DWORD PTR [eax+40], 0
; File C:\Program Files\Microsoft Visual Studio\2022\Professional\VC\Tools\MSVC\14.44.35207\include\xtree

; 831  :         _Construct_in_place(this->_Ptr->_Left, _Myhead);

  000ca	89 30		 mov	 DWORD PTR [eax], esi

; 832  :         _Construct_in_place(this->_Ptr->_Parent, _Myhead);

  000cc	89 70 04	 mov	 DWORD PTR [eax+4], esi

; 833  :         _Construct_in_place(this->_Ptr->_Right, _Myhead);

  000cf	89 70 08	 mov	 DWORD PTR [eax+8], esi

; 834  :         this->_Ptr->_Color = _Red;

  000d2	66 c7 40 0c 00
	00		 mov	 WORD PTR [eax+12], 0
; File C:\Program Files\Microsoft Visual Studio\2022\Professional\VC\Tools\MSVC\14.44.35207\include\map

; 211  :         return {_Scary->_Insert_node(_Loc._Location, _Inserted), true};

  000d8	e8 00 00 00 00	 call	 ?_Insert_node@?$_Tree_val@U?$_Tree_simple_types@U?$pair@$$CBV?$basic_string@DU?$char_traits@D@std@@V?$allocator@D@2@@std@@W4QUEST_ENUM@@@std@@@std@@@std@@QAEPAU?$_Tree_node@U?$pair@$$CBV?$basic_string@DU?$char_traits@D@std@@V?$allocator@D@2@@std@@W4QUEST_ENUM@@@std@@PAX@2@U?$_Tree_id@PAU?$_Tree_node@U?$pair@$$CBV?$basic_string@DU?$char_traits@D@std@@V?$allocator@D@2@@std@@W4QUEST_ENUM@@@std@@PAX@std@@@2@QAU32@@Z ; std::_Tree_val<std::_Tree_simple_types<std::pair<std::basic_string<char,std::char_traits<char>,std::allocator<char> > const ,enum QUEST_ENUM> > >::_Insert_node
  000dd	8b f0		 mov	 esi, eax
$LN3@operator:

; 175  :         return _Try_emplace(_STD move(_Keyval)).first->_Myval.second;

  000df	8d 46 28	 lea	 eax, DWORD PTR [esi+40]

; 176  :     }

  000e2	8b 4d f4	 mov	 ecx, DWORD PTR __$EHRec$[ebp]
  000e5	64 89 0d 00 00
	00 00		 mov	 DWORD PTR fs:0, ecx
  000ec	59		 pop	 ecx
  000ed	5f		 pop	 edi
  000ee	5e		 pop	 esi
  000ef	8b e5		 mov	 esp, ebp
  000f1	5d		 pop	 ebp
  000f2	c2 04 00	 ret	 4
$LN184@operator:
; File C:\Program Files\Microsoft Visual Studio\2022\Professional\VC\Tools\MSVC\14.44.35207\include\xtree

; 1649 :             _Throw_tree_length_error();

  000f5	e8 00 00 00 00	 call	 ?_Throw_tree_length_error@std@@YAXXZ ; std::_Throw_tree_length_error
$LN182@operator:
  000fa	cc		 int	 3
_TEXT	ENDS
;	COMDAT text$x
text$x	SEGMENT
__unwindfunclet$??A?$map@V?$basic_string@DU?$char_traits@D@std@@V?$allocator@D@2@@std@@W4QUEST_ENUM@@U?$less@V?$basic_string@DU?$char_traits@D@std@@V?$allocator@D@2@@std@@@2@V?$allocator@U?$pair@$$CBV?$basic_string@DU?$char_traits@D@std@@V?$allocator@D@2@@std@@W4QUEST_ENUM@@@std@@@2@@std@@QAEAAW4QUEST_ENUM@@$$QAV?$basic_string@DU?$char_traits@D@std@@V?$allocator@D@2@@1@@Z$2:
  00000	8d 4d e8	 lea	 ecx, DWORD PTR $T3[ebp]
  00003	e9 00 00 00 00	 jmp	 ??1?$_Alloc_construct_ptr@V?$allocator@U?$_Tree_node@U?$pair@$$CBV?$basic_string@DU?$char_traits@D@std@@V?$allocator@D@2@@std@@W4QUEST_ENUM@@@std@@PAX@std@@@std@@@std@@QAE@XZ ; std::_Alloc_construct_ptr<std::allocator<std::_Tree_node<std::pair<std::basic_string<char,std::char_traits<char>,std::allocator<char> > const ,enum QUEST_ENUM>,void *> > >::~_Alloc_construct_ptr<std::allocator<std::_Tree_node<std::pair<std::basic_string<char,std::char_traits<char>,std::allocator<char> > const ,enum QUEST_ENUM>,void *> > >
  00008	cc		 int	 3
  00009	cc		 int	 3
  0000a	cc		 int	 3
  0000b	cc		 int	 3
  0000c	cc		 int	 3
__ehhandler$??A?$map@V?$basic_string@DU?$char_traits@D@std@@V?$allocator@D@2@@std@@W4QUEST_ENUM@@U?$less@V?$basic_string@DU?$char_traits@D@std@@V?$allocator@D@2@@std@@@2@V?$allocator@U?$pair@$$CBV?$basic_string@DU?$char_traits@D@std@@V?$allocator@D@2@@std@@W4QUEST_ENUM@@@std@@@2@@std@@QAEAAW4QUEST_ENUM@@$$QAV?$basic_string@DU?$char_traits@D@std@@V?$allocator@D@2@@1@@Z:
  0000d	90		 npad	 1
  0000e	90		 npad	 1
  0000f	8b 54 24 08	 mov	 edx, DWORD PTR [esp+8]
  00013	8d 42 0c	 lea	 eax, DWORD PTR [edx+12]
  00016	8b 4a dc	 mov	 ecx, DWORD PTR [edx-36]
  00019	33 c8		 xor	 ecx, eax
  0001b	e8 00 00 00 00	 call	 @__security_check_cookie@4
  00020	b8 00 00 00 00	 mov	 eax, OFFSET __ehfuncinfo$??A?$map@V?$basic_string@DU?$char_traits@D@std@@V?$allocator@D@2@@std@@W4QUEST_ENUM@@U?$less@V?$basic_string@DU?$char_traits@D@std@@V?$allocator@D@2@@std@@@2@V?$allocator@U?$pair@$$CBV?$basic_string@DU?$char_traits@D@std@@V?$allocator@D@2@@std@@W4QUEST_ENUM@@@std@@@2@@std@@QAEAAW4QUEST_ENUM@@$$QAV?$basic_string@DU?$char_traits@D@std@@V?$allocator@D@2@@1@@Z
  00025	e9 00 00 00 00	 jmp	 ___CxxFrameHandler3
text$x	ENDS
??A?$map@V?$basic_string@DU?$char_traits@D@std@@V?$allocator@D@2@@std@@W4QUEST_ENUM@@U?$less@V?$basic_string@DU?$char_traits@D@std@@V?$allocator@D@2@@std@@@2@V?$allocator@U?$pair@$$CBV?$basic_string@DU?$char_traits@D@std@@V?$allocator@D@2@@std@@W4QUEST_ENUM@@@std@@@2@@std@@QAEAAW4QUEST_ENUM@@$$QAV?$basic_string@DU?$char_traits@D@std@@V?$allocator@D@2@@1@@Z ENDP ; std::map<std::basic_string<char,std::char_traits<char>,std::allocator<char> >,enum QUEST_ENUM,std::less<std::basic_string<char,std::char_traits<char>,std::allocator<char> > >,std::allocator<std::pair<std::basic_string<char,std::char_traits<char>,std::allocator<char> > const ,enum QUEST_ENUM> > >::operator[]
; Function compile flags: /Ogtp
; File C:\Program Files\Microsoft Visual Studio\2022\Professional\VC\Tools\MSVC\14.44.35207\include\xtree
;	COMDAT ?_Insert_node@?$_Tree_val@U?$_Tree_simple_types@U?$pair@$$CBV?$basic_string@DU?$char_traits@D@std@@V?$allocator@D@2@@std@@W4QUEST_ENUM@@@std@@@std@@@std@@QAEPAU?$_Tree_node@U?$pair@$$CBV?$basic_string@DU?$char_traits@D@std@@V?$allocator@D@2@@std@@W4QUEST_ENUM@@@std@@PAX@2@U?$_Tree_id@PAU?$_Tree_node@U?$pair@$$CBV?$basic_string@DU?$char_traits@D@std@@V?$allocator@D@2@@std@@W4QUEST_ENUM@@@std@@PAX@std@@@2@QAU32@@Z
_TEXT	SEGMENT
__Head$1$ = -4						; size = 4
__Loc$ = 8						; size = 8
__Newnode$ = 16						; size = 4
?_Insert_node@?$_Tree_val@U?$_Tree_simple_types@U?$pair@$$CBV?$basic_string@DU?$char_traits@D@std@@V?$allocator@D@2@@std@@W4QUEST_ENUM@@@std@@@std@@@std@@QAEPAU?$_Tree_node@U?$pair@$$CBV?$basic_string@DU?$char_traits@D@std@@V?$allocator@D@2@@std@@W4QUEST_ENUM@@@std@@PAX@2@U?$_Tree_id@PAU?$_Tree_node@U?$pair@$$CBV?$basic_string@DU?$char_traits@D@std@@V?$allocator@D@2@@std@@W4QUEST_ENUM@@@std@@PAX@std@@@2@QAU32@@Z PROC ; std::_Tree_val<std::_Tree_simple_types<std::pair<std::basic_string<char,std::char_traits<char>,std::allocator<char> > const ,enum QUEST_ENUM> > >::_Insert_node, COMDAT
; _this$ = ecx

; 669  :     _Nodeptr _Insert_node(const _Tree_id<_Nodeptr> _Loc, const _Nodeptr _Newnode) noexcept {

  00000	55		 push	 ebp
  00001	8b ec		 mov	 ebp, esp
  00003	51		 push	 ecx

; 670  :         ++_Mysize;
; 671  :         const auto _Head  = _Myhead;
; 672  :         _Newnode->_Parent = _Loc._Parent;

  00004	8b 55 08	 mov	 edx, DWORD PTR __Loc$[ebp]
  00007	53		 push	 ebx
  00008	8b d9		 mov	 ebx, ecx
  0000a	57		 push	 edi
  0000b	8b 7d 10	 mov	 edi, DWORD PTR __Newnode$[ebp]
  0000e	8b 03		 mov	 eax, DWORD PTR [ebx]
  00010	ff 43 04	 inc	 DWORD PTR [ebx+4]
  00013	89 45 fc	 mov	 DWORD PTR __Head$1$[ebp], eax
  00016	89 57 04	 mov	 DWORD PTR [edi+4], edx

; 673  :         if (_Loc._Parent == _Head) { // first node in tree, just set head values

  00019	3b d0		 cmp	 edx, eax
  0001b	75 16		 jne	 SHORT $LN5@Insert_nod

; 674  :             _Head->_Left     = _Newnode;

  0001d	89 38		 mov	 DWORD PTR [eax], edi

; 675  :             _Head->_Parent   = _Newnode;

  0001f	89 78 04	 mov	 DWORD PTR [eax+4], edi

; 676  :             _Head->_Right    = _Newnode;

  00022	89 78 08	 mov	 DWORD PTR [eax+8], edi

; 735  :         return _Newnode;
; 736  :     }

  00025	8b c7		 mov	 eax, edi
  00027	c6 47 0c 01	 mov	 BYTE PTR [edi+12], 1
  0002b	5f		 pop	 edi
  0002c	5b		 pop	 ebx
  0002d	8b e5		 mov	 esp, ebp
  0002f	5d		 pop	 ebp
  00030	c2 0c 00	 ret	 12			; 0000000cH
$LN5@Insert_nod:

; 677  :             _Newnode->_Color = _Black; // the root is black
; 678  :             return _Newnode;
; 679  :         }
; 680  : 
; 681  :         _STL_INTERNAL_CHECK(_Loc._Child != _Tree_child::_Unused);
; 682  :         if (_Loc._Child == _Tree_child::_Right) { // add to right of _Loc._Parent

  00033	83 7d 0c 00	 cmp	 DWORD PTR __Loc$[ebp+4], 0
  00037	75 0d		 jne	 SHORT $LN6@Insert_nod

; 683  :             _STL_INTERNAL_CHECK(_Loc._Parent->_Right->_Isnil);
; 684  :             _Loc._Parent->_Right = _Newnode;

  00039	89 7a 08	 mov	 DWORD PTR [edx+8], edi

; 685  :             if (_Loc._Parent == _Head->_Right) { // remember rightmost node

  0003c	3b 50 08	 cmp	 edx, DWORD PTR [eax+8]
  0003f	75 0d		 jne	 SHORT $LN9@Insert_nod

; 686  :                 _Head->_Right = _Newnode;

  00041	89 78 08	 mov	 DWORD PTR [eax+8], edi

; 687  :             }
; 688  :         } else { // add to left of _Loc._Parent

  00044	eb 08		 jmp	 SHORT $LN9@Insert_nod
$LN6@Insert_nod:

; 689  :             _STL_INTERNAL_CHECK(_Loc._Parent->_Left->_Isnil);
; 690  :             _Loc._Parent->_Left = _Newnode;

  00046	89 3a		 mov	 DWORD PTR [edx], edi

; 691  :             if (_Loc._Parent == _Head->_Left) { // remember leftmost node

  00048	3b 10		 cmp	 edx, DWORD PTR [eax]
  0004a	75 02		 jne	 SHORT $LN9@Insert_nod

; 692  :                 _Head->_Left = _Newnode;

  0004c	89 38		 mov	 DWORD PTR [eax], edi
$LN9@Insert_nod:

; 693  :             }
; 694  :         }
; 695  : 
; 696  :         for (_Nodeptr _Pnode = _Newnode; _Pnode->_Parent->_Color == _Red;) {

  0004e	8b 4f 04	 mov	 ecx, DWORD PTR [edi+4]
  00051	8b c7		 mov	 eax, edi
  00053	80 79 0c 00	 cmp	 BYTE PTR [ecx+12], 0
  00057	0f 85 7d 01 00
	00		 jne	 $LN3@Insert_nod
  0005d	56		 push	 esi
  0005e	66 90		 npad	 2
$LL4@Insert_nod:

; 697  :             if (_Pnode->_Parent == _Pnode->_Parent->_Parent->_Left) { // fixup red-red in left subtree

  00060	8b 50 04	 mov	 edx, DWORD PTR [eax+4]
  00063	8b 72 04	 mov	 esi, DWORD PTR [edx+4]
  00066	8b 0e		 mov	 ecx, DWORD PTR [esi]
  00068	3b d1		 cmp	 edx, ecx
  0006a	0f 85 aa 00 00
	00		 jne	 $LN10@Insert_nod

; 698  :                 const auto _Parent_sibling = _Pnode->_Parent->_Parent->_Right;

  00070	8b 4e 08	 mov	 ecx, DWORD PTR [esi+8]

; 699  :                 if (_Parent_sibling->_Color == _Red) { // parent's sibling has two red children, blacken both

  00073	80 79 0c 00	 cmp	 BYTE PTR [ecx+12], 0
  00077	0f 84 a3 00 00
	00		 je	 $LN82@Insert_nod

; 700  :                     _Pnode->_Parent->_Color          = _Black;
; 701  :                     _Parent_sibling->_Color          = _Black;
; 702  :                     _Pnode->_Parent->_Parent->_Color = _Red;
; 703  :                     _Pnode                           = _Pnode->_Parent->_Parent;
; 704  :                 } else { // parent's sibling has red and black children
; 705  :                     if (_Pnode == _Pnode->_Parent->_Right) { // rotate right child to left

  0007d	8b 72 08	 mov	 esi, DWORD PTR [edx+8]
  00080	3b c6		 cmp	 eax, esi
  00082	75 37		 jne	 SHORT $LN57@Insert_nod

; 485  :         _Wherenode->_Right = _Pnode->_Left;

  00084	8b 0e		 mov	 ecx, DWORD PTR [esi]

; 706  :                         _Pnode = _Pnode->_Parent;

  00086	8b c2		 mov	 eax, edx

; 485  :         _Wherenode->_Right = _Pnode->_Left;

  00088	89 4a 08	 mov	 DWORD PTR [edx+8], ecx

; 486  : 
; 487  :         if (!_Pnode->_Left->_Isnil) {

  0008b	8b 0e		 mov	 ecx, DWORD PTR [esi]
  0008d	80 79 0d 00	 cmp	 BYTE PTR [ecx+13], 0
  00091	75 03		 jne	 SHORT $LN21@Insert_nod

; 488  :             _Pnode->_Left->_Parent = _Wherenode;

  00093	89 41 04	 mov	 DWORD PTR [ecx+4], eax
$LN21@Insert_nod:

; 489  :         }
; 490  : 
; 491  :         _Pnode->_Parent = _Wherenode->_Parent;

  00096	8b 4a 04	 mov	 ecx, DWORD PTR [edx+4]
  00099	89 4e 04	 mov	 DWORD PTR [esi+4], ecx

; 492  : 
; 493  :         if (_Wherenode == _Myhead->_Parent) {

  0009c	8b 0b		 mov	 ecx, DWORD PTR [ebx]
  0009e	3b 41 04	 cmp	 eax, DWORD PTR [ecx+4]
  000a1	75 05		 jne	 SHORT $LN22@Insert_nod

; 494  :             _Myhead->_Parent = _Pnode;

  000a3	89 71 04	 mov	 DWORD PTR [ecx+4], esi
  000a6	eb 0e		 jmp	 SHORT $LN25@Insert_nod
$LN22@Insert_nod:

; 495  :         } else if (_Wherenode == _Wherenode->_Parent->_Left) {

  000a8	8b 4a 04	 mov	 ecx, DWORD PTR [edx+4]
  000ab	3b 01		 cmp	 eax, DWORD PTR [ecx]
  000ad	75 04		 jne	 SHORT $LN24@Insert_nod

; 496  :             _Wherenode->_Parent->_Left = _Pnode;

  000af	89 31		 mov	 DWORD PTR [ecx], esi

; 497  :         } else {

  000b1	eb 03		 jmp	 SHORT $LN25@Insert_nod
$LN24@Insert_nod:

; 498  :             _Wherenode->_Parent->_Right = _Pnode;

  000b3	89 71 08	 mov	 DWORD PTR [ecx+8], esi
$LN25@Insert_nod:

; 499  :         }
; 500  : 
; 501  :         _Pnode->_Left       = _Wherenode;

  000b6	89 06		 mov	 DWORD PTR [esi], eax

; 502  :         _Wherenode->_Parent = _Pnode;

  000b8	89 70 04	 mov	 DWORD PTR [eax+4], esi
$LN57@Insert_nod:

; 707  :                         _Lrotate(_Pnode);
; 708  :                     }
; 709  : 
; 710  :                     _Pnode->_Parent->_Color          = _Black; // propagate red up

  000bb	8b 48 04	 mov	 ecx, DWORD PTR [eax+4]
  000be	c6 41 0c 01	 mov	 BYTE PTR [ecx+12], 1

; 711  :                     _Pnode->_Parent->_Parent->_Color = _Red;

  000c2	8b 48 04	 mov	 ecx, DWORD PTR [eax+4]
  000c5	8b 49 04	 mov	 ecx, DWORD PTR [ecx+4]
  000c8	c6 41 0c 00	 mov	 BYTE PTR [ecx+12], 0

; 712  :                     _Rrotate(_Pnode->_Parent->_Parent);

  000cc	8b 48 04	 mov	 ecx, DWORD PTR [eax+4]
  000cf	8b 51 04	 mov	 edx, DWORD PTR [ecx+4]

; 506  :         _Nodeptr _Pnode   = _Wherenode->_Left;

  000d2	8b 32		 mov	 esi, DWORD PTR [edx]

; 507  :         _Wherenode->_Left = _Pnode->_Right;

  000d4	8b 4e 08	 mov	 ecx, DWORD PTR [esi+8]
  000d7	89 0a		 mov	 DWORD PTR [edx], ecx

; 508  : 
; 509  :         if (!_Pnode->_Right->_Isnil) {

  000d9	8b 4e 08	 mov	 ecx, DWORD PTR [esi+8]
  000dc	80 79 0d 00	 cmp	 BYTE PTR [ecx+13], 0
  000e0	75 03		 jne	 SHORT $LN29@Insert_nod

; 510  :             _Pnode->_Right->_Parent = _Wherenode;

  000e2	89 51 04	 mov	 DWORD PTR [ecx+4], edx
$LN29@Insert_nod:

; 511  :         }
; 512  : 
; 513  :         _Pnode->_Parent = _Wherenode->_Parent;

  000e5	8b 4a 04	 mov	 ecx, DWORD PTR [edx+4]
  000e8	89 4e 04	 mov	 DWORD PTR [esi+4], ecx

; 514  : 
; 515  :         if (_Wherenode == _Myhead->_Parent) {

  000eb	8b 0b		 mov	 ecx, DWORD PTR [ebx]
  000ed	3b 51 04	 cmp	 edx, DWORD PTR [ecx+4]
  000f0	75 0b		 jne	 SHORT $LN30@Insert_nod

; 516  :             _Myhead->_Parent = _Pnode;

  000f2	89 71 04	 mov	 DWORD PTR [ecx+4], esi

; 521  :         }
; 522  : 
; 523  :         _Pnode->_Right      = _Wherenode;

  000f5	89 56 08	 mov	 DWORD PTR [esi+8], edx

; 713  :                 }
; 714  :             } else { // fixup red-red in right subtree

  000f8	e9 cc 00 00 00	 jmp	 $LN81@Insert_nod
$LN30@Insert_nod:

; 517  :         } else if (_Wherenode == _Wherenode->_Parent->_Right) {

  000fd	8b 4a 04	 mov	 ecx, DWORD PTR [edx+4]
  00100	3b 51 08	 cmp	 edx, DWORD PTR [ecx+8]
  00103	75 0b		 jne	 SHORT $LN32@Insert_nod

; 518  :             _Wherenode->_Parent->_Right = _Pnode;

  00105	89 71 08	 mov	 DWORD PTR [ecx+8], esi

; 521  :         }
; 522  : 
; 523  :         _Pnode->_Right      = _Wherenode;

  00108	89 56 08	 mov	 DWORD PTR [esi+8], edx

; 713  :                 }
; 714  :             } else { // fixup red-red in right subtree

  0010b	e9 b9 00 00 00	 jmp	 $LN81@Insert_nod
$LN32@Insert_nod:

; 520  :             _Wherenode->_Parent->_Left = _Pnode;

  00110	89 31		 mov	 DWORD PTR [ecx], esi

; 521  :         }
; 522  : 
; 523  :         _Pnode->_Right      = _Wherenode;

  00112	89 56 08	 mov	 DWORD PTR [esi+8], edx

; 713  :                 }
; 714  :             } else { // fixup red-red in right subtree

  00115	e9 af 00 00 00	 jmp	 $LN81@Insert_nod
$LN10@Insert_nod:

; 715  :                 const auto _Parent_sibling = _Pnode->_Parent->_Parent->_Left;
; 716  :                 if (_Parent_sibling->_Color == _Red) { // parent's sibling has two red children, blacken both

  0011a	80 79 0c 00	 cmp	 BYTE PTR [ecx+12], 0
  0011e	75 1d		 jne	 SHORT $LN15@Insert_nod
$LN82@Insert_nod:

; 693  :             }
; 694  :         }
; 695  : 
; 696  :         for (_Nodeptr _Pnode = _Newnode; _Pnode->_Parent->_Color == _Red;) {

  00120	c6 42 0c 01	 mov	 BYTE PTR [edx+12], 1
  00124	c6 41 0c 01	 mov	 BYTE PTR [ecx+12], 1
  00128	8b 48 04	 mov	 ecx, DWORD PTR [eax+4]
  0012b	8b 49 04	 mov	 ecx, DWORD PTR [ecx+4]
  0012e	c6 41 0c 00	 mov	 BYTE PTR [ecx+12], 0
  00132	8b 48 04	 mov	 ecx, DWORD PTR [eax+4]
  00135	8b 41 04	 mov	 eax, DWORD PTR [ecx+4]
  00138	e9 8f 00 00 00	 jmp	 $LN2@Insert_nod
$LN15@Insert_nod:

; 717  :                     _Pnode->_Parent->_Color          = _Black;
; 718  :                     _Parent_sibling->_Color          = _Black;
; 719  :                     _Pnode->_Parent->_Parent->_Color = _Red;
; 720  :                     _Pnode                           = _Pnode->_Parent->_Parent;
; 721  :                 } else { // parent's sibling has red and black children
; 722  :                     if (_Pnode == _Pnode->_Parent->_Left) { // rotate left child to right

  0013d	8b 32		 mov	 esi, DWORD PTR [edx]
  0013f	3b c6		 cmp	 eax, esi
  00141	75 3a		 jne	 SHORT $LN42@Insert_nod

; 507  :         _Wherenode->_Left = _Pnode->_Right;

  00143	8b 4e 08	 mov	 ecx, DWORD PTR [esi+8]

; 723  :                         _Pnode = _Pnode->_Parent;

  00146	8b c2		 mov	 eax, edx

; 507  :         _Wherenode->_Left = _Pnode->_Right;

  00148	89 08		 mov	 DWORD PTR [eax], ecx

; 508  : 
; 509  :         if (!_Pnode->_Right->_Isnil) {

  0014a	8b 4e 08	 mov	 ecx, DWORD PTR [esi+8]
  0014d	80 79 0d 00	 cmp	 BYTE PTR [ecx+13], 0
  00151	75 03		 jne	 SHORT $LN37@Insert_nod

; 510  :             _Pnode->_Right->_Parent = _Wherenode;

  00153	89 41 04	 mov	 DWORD PTR [ecx+4], eax
$LN37@Insert_nod:

; 511  :         }
; 512  : 
; 513  :         _Pnode->_Parent = _Wherenode->_Parent;

  00156	8b 4a 04	 mov	 ecx, DWORD PTR [edx+4]
  00159	89 4e 04	 mov	 DWORD PTR [esi+4], ecx

; 514  : 
; 515  :         if (_Wherenode == _Myhead->_Parent) {

  0015c	8b 0b		 mov	 ecx, DWORD PTR [ebx]
  0015e	3b 41 04	 cmp	 eax, DWORD PTR [ecx+4]
  00161	75 05		 jne	 SHORT $LN38@Insert_nod

; 516  :             _Myhead->_Parent = _Pnode;

  00163	89 71 04	 mov	 DWORD PTR [ecx+4], esi
  00166	eb 0f		 jmp	 SHORT $LN41@Insert_nod
$LN38@Insert_nod:

; 517  :         } else if (_Wherenode == _Wherenode->_Parent->_Right) {

  00168	8b 4a 04	 mov	 ecx, DWORD PTR [edx+4]
  0016b	3b 41 08	 cmp	 eax, DWORD PTR [ecx+8]
  0016e	75 05		 jne	 SHORT $LN40@Insert_nod

; 518  :             _Wherenode->_Parent->_Right = _Pnode;

  00170	89 71 08	 mov	 DWORD PTR [ecx+8], esi

; 519  :         } else {

  00173	eb 02		 jmp	 SHORT $LN41@Insert_nod
$LN40@Insert_nod:

; 520  :             _Wherenode->_Parent->_Left = _Pnode;

  00175	89 31		 mov	 DWORD PTR [ecx], esi
$LN41@Insert_nod:

; 521  :         }
; 522  : 
; 523  :         _Pnode->_Right      = _Wherenode;

  00177	89 46 08	 mov	 DWORD PTR [esi+8], eax

; 524  :         _Wherenode->_Parent = _Pnode;

  0017a	89 70 04	 mov	 DWORD PTR [eax+4], esi
$LN42@Insert_nod:

; 724  :                         _Rrotate(_Pnode);
; 725  :                     }
; 726  : 
; 727  :                     _Pnode->_Parent->_Color          = _Black; // propagate red up

  0017d	8b 48 04	 mov	 ecx, DWORD PTR [eax+4]
  00180	c6 41 0c 01	 mov	 BYTE PTR [ecx+12], 1

; 728  :                     _Pnode->_Parent->_Parent->_Color = _Red;

  00184	8b 48 04	 mov	 ecx, DWORD PTR [eax+4]
  00187	8b 49 04	 mov	 ecx, DWORD PTR [ecx+4]
  0018a	c6 41 0c 00	 mov	 BYTE PTR [ecx+12], 0

; 729  :                     _Lrotate(_Pnode->_Parent->_Parent);

  0018e	8b 48 04	 mov	 ecx, DWORD PTR [eax+4]
  00191	8b 51 04	 mov	 edx, DWORD PTR [ecx+4]

; 484  :         _Nodeptr _Pnode    = _Wherenode->_Right;

  00194	8b 72 08	 mov	 esi, DWORD PTR [edx+8]

; 485  :         _Wherenode->_Right = _Pnode->_Left;

  00197	8b 0e		 mov	 ecx, DWORD PTR [esi]
  00199	89 4a 08	 mov	 DWORD PTR [edx+8], ecx

; 486  : 
; 487  :         if (!_Pnode->_Left->_Isnil) {

  0019c	8b 0e		 mov	 ecx, DWORD PTR [esi]
  0019e	80 79 0d 00	 cmp	 BYTE PTR [ecx+13], 0
  001a2	75 03		 jne	 SHORT $LN45@Insert_nod

; 488  :             _Pnode->_Left->_Parent = _Wherenode;

  001a4	89 51 04	 mov	 DWORD PTR [ecx+4], edx
$LN45@Insert_nod:

; 489  :         }
; 490  : 
; 491  :         _Pnode->_Parent = _Wherenode->_Parent;

  001a7	8b 4a 04	 mov	 ecx, DWORD PTR [edx+4]
  001aa	89 4e 04	 mov	 DWORD PTR [esi+4], ecx

; 492  : 
; 493  :         if (_Wherenode == _Myhead->_Parent) {

  001ad	8b 0b		 mov	 ecx, DWORD PTR [ebx]
  001af	3b 51 04	 cmp	 edx, DWORD PTR [ecx+4]
  001b2	75 05		 jne	 SHORT $LN46@Insert_nod

; 494  :             _Myhead->_Parent = _Pnode;

  001b4	89 71 04	 mov	 DWORD PTR [ecx+4], esi
  001b7	eb 0e		 jmp	 SHORT $LN49@Insert_nod
$LN46@Insert_nod:

; 495  :         } else if (_Wherenode == _Wherenode->_Parent->_Left) {

  001b9	8b 4a 04	 mov	 ecx, DWORD PTR [edx+4]
  001bc	3b 11		 cmp	 edx, DWORD PTR [ecx]
  001be	75 04		 jne	 SHORT $LN48@Insert_nod

; 496  :             _Wherenode->_Parent->_Left = _Pnode;

  001c0	89 31		 mov	 DWORD PTR [ecx], esi

; 497  :         } else {

  001c2	eb 03		 jmp	 SHORT $LN49@Insert_nod
$LN48@Insert_nod:

; 498  :             _Wherenode->_Parent->_Right = _Pnode;

  001c4	89 71 08	 mov	 DWORD PTR [ecx+8], esi
$LN49@Insert_nod:

; 499  :         }
; 500  : 
; 501  :         _Pnode->_Left       = _Wherenode;

  001c7	89 16		 mov	 DWORD PTR [esi], edx
$LN81@Insert_nod:

; 693  :             }
; 694  :         }
; 695  : 
; 696  :         for (_Nodeptr _Pnode = _Newnode; _Pnode->_Parent->_Color == _Red;) {

  001c9	89 72 04	 mov	 DWORD PTR [edx+4], esi
$LN2@Insert_nod:
  001cc	8b 48 04	 mov	 ecx, DWORD PTR [eax+4]
  001cf	80 79 0c 00	 cmp	 BYTE PTR [ecx+12], 0
  001d3	0f 84 87 fe ff
	ff		 je	 $LL4@Insert_nod
  001d9	5e		 pop	 esi
$LN3@Insert_nod:

; 730  :                 }
; 731  :             }
; 732  :         }
; 733  : 
; 734  :         _Head->_Parent->_Color = _Black; // root is always black

  001da	8b 45 fc	 mov	 eax, DWORD PTR __Head$1$[ebp]
  001dd	8b 40 04	 mov	 eax, DWORD PTR [eax+4]
  001e0	c6 40 0c 01	 mov	 BYTE PTR [eax+12], 1

; 735  :         return _Newnode;
; 736  :     }

  001e4	8b c7		 mov	 eax, edi
  001e6	5f		 pop	 edi
  001e7	5b		 pop	 ebx
  001e8	8b e5		 mov	 esp, ebp
  001ea	5d		 pop	 ebp
  001eb	c2 0c 00	 ret	 12			; 0000000cH
?_Insert_node@?$_Tree_val@U?$_Tree_simple_types@U?$pair@$$CBV?$basic_string@DU?$char_traits@D@std@@V?$allocator@D@2@@std@@W4QUEST_ENUM@@@std@@@std@@@std@@QAEPAU?$_Tree_node@U?$pair@$$CBV?$basic_string@DU?$char_traits@D@std@@V?$allocator@D@2@@std@@W4QUEST_ENUM@@@std@@PAX@2@U?$_Tree_id@PAU?$_Tree_node@U?$pair@$$CBV?$basic_string@DU?$char_traits@D@std@@V?$allocator@D@2@@std@@W4QUEST_ENUM@@@std@@PAX@std@@@2@QAU32@@Z ENDP ; std::_Tree_val<std::_Tree_simple_types<std::pair<std::basic_string<char,std::char_traits<char>,std::allocator<char> > const ,enum QUEST_ENUM> > >::_Insert_node
_TEXT	ENDS
; Function compile flags: /Ogtp
; File C:\IAGOS\server\v18\Source\Source\_Common\ScriptHelper.cpp
; File C:\Program Files\Microsoft Visual Studio\2022\Professional\VC\Tools\MSVC\14.44.35207\include\vector
; File C:\IAGOS\server\v18\Source\Source\_Common\ScriptHelper.cpp
; File C:\Program Files\Microsoft Visual Studio\2022\Professional\VC\Tools\MSVC\14.44.35207\include\vector
; File C:\IAGOS\server\v18\Source\Source\_Common\ScriptHelper.cpp
; File C:\Program Files\Microsoft Visual Studio\2022\Professional\VC\Tools\MSVC\14.44.35207\include\vector
; File C:\IAGOS\server\v18\Source\Source\_Common\ScriptHelper.cpp
; File C:\Program Files\Microsoft Visual Studio\2022\Professional\VC\Tools\MSVC\14.44.35207\include\vector
; File C:\IAGOS\server\v18\Source\Source\_Common\ScriptHelper.cpp
; File C:\Program Files\Microsoft Visual Studio\2022\Professional\VC\Tools\MSVC\14.44.35207\include\vector
; File C:\IAGOS\server\v18\Source\Source\_Common\ScriptHelper.cpp
; File C:\IAGOS\server\v18\Source\Source\_Common\data.h
; File C:\IAGOS\server\v18\Source\Source\_Common\ScriptHelper.cpp
; File C:\IAGOS\server\v18\Source\Source\_Common\data.h
; File C:\IAGOS\server\v18\Source\Source\_Common\ScriptHelper.cpp
; File C:\Program Files\Microsoft Visual Studio\2022\Professional\VC\Tools\MSVC\14.44.35207\include\vector
; File C:\IAGOS\server\v18\Source\Source\_Common\ScriptHelper.cpp
; File C:\Program Files\Microsoft Visual Studio\2022\Professional\VC\Tools\MSVC\14.44.35207\include\vector
; File C:\IAGOS\server\v18\Source\Source\_Common\ScriptHelper.cpp
; File C:\Program Files\Microsoft Visual Studio\2022\Professional\VC\Tools\MSVC\14.44.35207\include\vector
; File C:\IAGOS\server\v18\Source\Source\_Common\ScriptHelper.cpp
; File C:\Program Files\Microsoft Visual Studio\2022\Professional\VC\Tools\MSVC\14.44.35207\include\vector
; File C:\IAGOS\server\v18\Source\Source\_Common\ScriptHelper.cpp
; File C:\Program Files\Microsoft Visual Studio\2022\Professional\VC\Tools\MSVC\14.44.35207\include\vector
; File C:\IAGOS\server\v18\Source\Source\_Common\ScriptHelper.cpp
;	COMDAT ?__QuestSort@@YAXAAV?$vector@HV?$allocator@H@std@@@std@@@Z
_TEXT	SEGMENT
tv660 = -24						; size = 4
$T1 = -20						; size = 4
tv642 = -16						; size = 4
tv643 = -12						; size = 4
_j$1$ = -8						; size = 4
tv647 = -2						; size = 1
tv646 = -1						; size = 1
_vecQuestId$ = 8					; size = 4
?__QuestSort@@YAXAAV?$vector@HV?$allocator@H@std@@@std@@@Z PROC ; __QuestSort, COMDAT

; 972  : {

  00000	55		 push	 ebp
  00001	8b ec		 mov	 ebp, esp
  00003	83 ec 18	 sub	 esp, 24			; 00000018H
  00006	53		 push	 ebx
  00007	56		 push	 esi
; File C:\Program Files\Microsoft Visual Studio\2022\Professional\VC\Tools\MSVC\14.44.35207\include\vector

; 1915 :         return static_cast<size_type>(_My_data._Mylast - _My_data._Myfirst);

  00008	8b 75 08	 mov	 esi, DWORD PTR _vecQuestId$[ebp]
; File C:\IAGOS\server\v18\Source\Source\_Common\ScriptHelper.cpp

; 972  : {

  0000b	57		 push	 edi
; File C:\Program Files\Microsoft Visual Studio\2022\Professional\VC\Tools\MSVC\14.44.35207\include\vector

; 1915 :         return static_cast<size_type>(_My_data._Mylast - _My_data._Myfirst);

  0000c	8b 5e 04	 mov	 ebx, DWORD PTR [esi+4]
  0000f	8b c3		 mov	 eax, ebx
  00011	8b 3e		 mov	 edi, DWORD PTR [esi]
  00013	2b c7		 sub	 eax, edi
  00015	c1 f8 02	 sar	 eax, 2
; File C:\IAGOS\server\v18\Source\Source\_Common\ScriptHelper.cpp

; 976  : 	for( DWORD i = 0; i < vecQuestId.size(); ++i )

  00018	85 c0		 test	 eax, eax
  0001a	0f 84 fc 00 00
	00		 je	 $LN3@QuestSort
; File C:\Program Files\Microsoft Visual Studio\2022\Professional\VC\Tools\MSVC\14.44.35207\include\vector

; 1914 :         auto& _My_data = _Mypair._Myval2;

  00020	33 c0		 xor	 eax, eax
  00022	b9 01 00 00 00	 mov	 ecx, 1
  00027	89 45 f4	 mov	 DWORD PTR tv643[ebp], eax
  0002a	89 4d f0	 mov	 DWORD PTR tv642[ebp], ecx
  0002d	0f 1f 00	 npad	 3
$LL4@QuestSort:
; File C:\IAGOS\server\v18\Source\Source\_Common\ScriptHelper.cpp

; 978  : 		for( DWORD j = i + 1; j < vecQuestId.size(); ++j )

  00030	89 4d e8	 mov	 DWORD PTR tv660[ebp], ecx
; File C:\Program Files\Microsoft Visual Studio\2022\Professional\VC\Tools\MSVC\14.44.35207\include\vector

; 1915 :         return static_cast<size_type>(_My_data._Mylast - _My_data._Myfirst);

  00033	8b d7		 mov	 edx, edi
; File C:\IAGOS\server\v18\Source\Source\_Common\ScriptHelper.cpp

; 978  : 		for( DWORD j = i + 1; j < vecQuestId.size(); ++j )

  00035	89 4d f8	 mov	 DWORD PTR _j$1$[ebp], ecx
; File C:\Program Files\Microsoft Visual Studio\2022\Professional\VC\Tools\MSVC\14.44.35207\include\vector

; 1915 :         return static_cast<size_type>(_My_data._Mylast - _My_data._Myfirst);

  00038	8b cb		 mov	 ecx, ebx
  0003a	2b df		 sub	 ebx, edi
  0003c	c1 fb 02	 sar	 ebx, 2
; File C:\IAGOS\server\v18\Source\Source\_Common\ScriptHelper.cpp

; 978  : 		for( DWORD j = i + 1; j < vecQuestId.size(); ++j )

  0003f	39 5d f0	 cmp	 DWORD PTR tv642[ebp], ebx
  00042	0f 83 b6 00 00
	00		 jae	 $LN2@QuestSort
  00048	8b 5d f8	 mov	 ebx, DWORD PTR _j$1$[ebp]
  0004b	0f 1f 44 00 00	 npad	 5
$LL7@QuestSort:

; 979  : 		{
; 980  : 			pPrevQuestProp = prj.m_aPropQuest.GetAt( vecQuestId[ i ] );

  00050	8b 04 38	 mov	 eax, DWORD PTR [eax+edi]
; File C:\IAGOS\server\v18\Source\Source\_Common\data.h

; 270  : 	if( dwIndex >= (DWORD)m_nMaxIndex )

  00053	3b 05 f4 02 00
	00		 cmp	 eax, DWORD PTR ?prj@@3VCProject@@A+756
  00059	72 09		 jb	 SHORT $LN25@QuestSort

; 271  : 		return NULL;

  0005b	c7 45 ec 00 00
	00 00		 mov	 DWORD PTR $T1[ebp], 0
  00062	eb 0c		 jmp	 SHORT $LN24@QuestSort
$LN25@QuestSort:

; 272  : 	return (T*) m_apOffset[ dwIndex ];

  00064	8b 0d e4 02 00
	00		 mov	 ecx, DWORD PTR ?prj@@3VCProject@@A+740
  0006a	8b 0c 81	 mov	 ecx, DWORD PTR [ecx+eax*4]
  0006d	89 4d ec	 mov	 DWORD PTR $T1[ebp], ecx
$LN24@QuestSort:
; File C:\IAGOS\server\v18\Source\Source\_Common\ScriptHelper.cpp

; 981  : 			pNextQuestProp = prj.m_aPropQuest.GetAt( vecQuestId[ j ] );

  00070	8b 14 9f	 mov	 edx, DWORD PTR [edi+ebx*4]
; File C:\IAGOS\server\v18\Source\Source\_Common\data.h

; 270  : 	if( dwIndex >= (DWORD)m_nMaxIndex )

  00073	3b 15 f4 02 00
	00		 cmp	 edx, DWORD PTR ?prj@@3VCProject@@A+756
  00079	72 04		 jb	 SHORT $LN31@QuestSort

; 271  : 		return NULL;

  0007b	33 c9		 xor	 ecx, ecx
  0007d	eb 09		 jmp	 SHORT $LN30@QuestSort
$LN31@QuestSort:

; 272  : 	return (T*) m_apOffset[ dwIndex ];

  0007f	8b 0d e4 02 00
	00		 mov	 ecx, DWORD PTR ?prj@@3VCProject@@A+740
  00085	8b 0c 91	 mov	 ecx, DWORD PTR [ecx+edx*4]
$LN30@QuestSort:
; File C:\IAGOS\server\v18\Source\Source\_Common\ScriptHelper.cpp

; 982  : 			if( pPrevQuestProp->m_nBeginCondLevelMin < pNextQuestProp->m_nBeginCondLevelMin )

  00088	8b 75 ec	 mov	 esi, DWORD PTR $T1[ebp]
  0008b	8a 9e bc 00 00
	00		 mov	 bl, BYTE PTR [esi+188]
  00091	3a 99 bc 00 00
	00		 cmp	 bl, BYTE PTR [ecx+188]
  00097	8b 75 08	 mov	 esi, DWORD PTR _vecQuestId$[ebp]
  0009a	88 5d fe	 mov	 BYTE PTR tv647[ebp], bl
  0009d	8b 5d f8	 mov	 ebx, DWORD PTR _j$1$[ebp]
  000a0	73 0d		 jae	 SHORT $LN8@QuestSort

; 983  : 			{
; 984  : 				nTmpQuestId = vecQuestId[ i ];
; 985  : 				vecQuestId[ i ] = vecQuestId[ j ];

  000a2	8b 4d f4	 mov	 ecx, DWORD PTR tv643[ebp]
  000a5	89 14 39	 mov	 DWORD PTR [ecx+edi], edx

; 986  : 				vecQuestId[ j ] = nTmpQuestId;

  000a8	8b 0e		 mov	 ecx, DWORD PTR [esi]
  000aa	89 04 99	 mov	 DWORD PTR [ecx+ebx*4], eax

; 987  : 			}

  000ad	eb 30		 jmp	 SHORT $LN5@QuestSort
$LN8@QuestSort:

; 988  : 			else if( pPrevQuestProp->m_nBeginCondLevelMin == pNextQuestProp->m_nBeginCondLevelMin )

  000af	8a 99 bc 00 00
	00		 mov	 bl, BYTE PTR [ecx+188]
  000b5	38 5d fe	 cmp	 BYTE PTR tv647[ebp], bl
  000b8	75 25		 jne	 SHORT $LN5@QuestSort

; 989  : 			{
; 990  : 				if( pPrevQuestProp->m_nBeginCondLevelMax < pNextQuestProp->m_nBeginCondLevelMax )

  000ba	8b 5d ec	 mov	 ebx, DWORD PTR $T1[ebp]
  000bd	8a 9b bb 00 00
	00		 mov	 bl, BYTE PTR [ebx+187]
  000c3	3a 99 bb 00 00
	00		 cmp	 bl, BYTE PTR [ecx+187]
  000c9	72 06		 jb	 SHORT $LN93@QuestSort

; 991  : 				{
; 992  : 					nTmpQuestId = vecQuestId[ i ];
; 993  : 					vecQuestId[ i ] = vecQuestId[ j ];
; 994  : 					vecQuestId[ j ] = nTmpQuestId;
; 995  : 				}
; 996  : 				else if( pPrevQuestProp->m_nBeginCondLevelMax == pNextQuestProp->m_nBeginCondLevelMax && vecQuestId[ i ] < vecQuestId[ j ] )

  000cb	75 12		 jne	 SHORT $LN5@QuestSort
  000cd	3b c2		 cmp	 eax, edx
  000cf	7d 0e		 jge	 SHORT $LN5@QuestSort
$LN93@QuestSort:

; 978  : 		for( DWORD j = i + 1; j < vecQuestId.size(); ++j )

  000d1	8b 4d f4	 mov	 ecx, DWORD PTR tv643[ebp]
  000d4	89 14 39	 mov	 DWORD PTR [ecx+edi], edx
  000d7	8b 55 f8	 mov	 edx, DWORD PTR _j$1$[ebp]
  000da	8b 0e		 mov	 ecx, DWORD PTR [esi]
  000dc	89 04 91	 mov	 DWORD PTR [ecx+edx*4], eax
$LN5@QuestSort:
; File C:\Program Files\Microsoft Visual Studio\2022\Professional\VC\Tools\MSVC\14.44.35207\include\vector

; 1915 :         return static_cast<size_type>(_My_data._Mylast - _My_data._Myfirst);

  000df	8b 4e 04	 mov	 ecx, DWORD PTR [esi+4]
  000e2	8b c1		 mov	 eax, ecx
  000e4	8b 16		 mov	 edx, DWORD PTR [esi]
  000e6	8b fa		 mov	 edi, edx
; File C:\IAGOS\server\v18\Source\Source\_Common\ScriptHelper.cpp

; 978  : 		for( DWORD j = i + 1; j < vecQuestId.size(); ++j )

  000e8	ff 45 f8	 inc	 DWORD PTR _j$1$[ebp]
; File C:\Program Files\Microsoft Visual Studio\2022\Professional\VC\Tools\MSVC\14.44.35207\include\vector

; 1915 :         return static_cast<size_type>(_My_data._Mylast - _My_data._Myfirst);

  000eb	2b c2		 sub	 eax, edx
; File C:\IAGOS\server\v18\Source\Source\_Common\ScriptHelper.cpp

; 978  : 		for( DWORD j = i + 1; j < vecQuestId.size(); ++j )

  000ed	8b 5d f8	 mov	 ebx, DWORD PTR _j$1$[ebp]
; File C:\Program Files\Microsoft Visual Studio\2022\Professional\VC\Tools\MSVC\14.44.35207\include\vector

; 1915 :         return static_cast<size_type>(_My_data._Mylast - _My_data._Myfirst);

  000f0	c1 f8 02	 sar	 eax, 2
; File C:\IAGOS\server\v18\Source\Source\_Common\ScriptHelper.cpp

; 978  : 		for( DWORD j = i + 1; j < vecQuestId.size(); ++j )

  000f3	3b d8		 cmp	 ebx, eax
  000f5	8b 45 f4	 mov	 eax, DWORD PTR tv643[ebp]
  000f8	0f 82 52 ff ff
	ff		 jb	 $LL7@QuestSort
$LN2@QuestSort:

; 976  : 	for( DWORD i = 0; i < vecQuestId.size(); ++i )

  000fe	ff 45 f0	 inc	 DWORD PTR tv642[ebp]
; File C:\Program Files\Microsoft Visual Studio\2022\Professional\VC\Tools\MSVC\14.44.35207\include\vector

; 1915 :         return static_cast<size_type>(_My_data._Mylast - _My_data._Myfirst);

  00101	8b d9		 mov	 ebx, ecx
  00103	2b ca		 sub	 ecx, edx
; File C:\IAGOS\server\v18\Source\Source\_Common\ScriptHelper.cpp

; 976  : 	for( DWORD i = 0; i < vecQuestId.size(); ++i )

  00105	83 c0 04	 add	 eax, 4
; File C:\Program Files\Microsoft Visual Studio\2022\Professional\VC\Tools\MSVC\14.44.35207\include\vector

; 1915 :         return static_cast<size_type>(_My_data._Mylast - _My_data._Myfirst);

  00108	c1 f9 02	 sar	 ecx, 2
  0010b	8b fa		 mov	 edi, edx
; File C:\IAGOS\server\v18\Source\Source\_Common\ScriptHelper.cpp

; 976  : 	for( DWORD i = 0; i < vecQuestId.size(); ++i )

  0010d	39 4d e8	 cmp	 DWORD PTR tv660[ebp], ecx
  00110	8b 4d f0	 mov	 ecx, DWORD PTR tv642[ebp]
  00113	89 45 f4	 mov	 DWORD PTR tv643[ebp], eax
  00116	0f 82 14 ff ff
	ff		 jb	 $LL4@QuestSort
$LN3@QuestSort:
  0011c	5f		 pop	 edi

; 997  : 				{
; 998  : 					nTmpQuestId = vecQuestId[ i ];
; 999  : 					vecQuestId[ i ] = vecQuestId[ j ];
; 1000 : 					vecQuestId[ j ] = nTmpQuestId;
; 1001 : 				}
; 1002 : 			}
; 1003 : 		}
; 1004 : 	}
; 1005 : }

  0011d	5e		 pop	 esi
  0011e	5b		 pop	 ebx
  0011f	8b e5		 mov	 esp, ebp
  00121	5d		 pop	 ebp
  00122	c3		 ret	 0
?__QuestSort@@YAXAAV?$vector@HV?$allocator@H@std@@@std@@@Z ENDP ; __QuestSort
_TEXT	ENDS
; Function compile flags: /Ogtp
; File C:\IAGOS\server\v18\Source\Source\_Common\ScriptHelper.cpp
;	COMDAT ?__RemoveGold@@YAXKH@Z
_TEXT	SEGMENT
_dwIdMover$ = 8						; size = 4
_nGold$ = 12						; size = 4
?__RemoveGold@@YAXKH@Z PROC				; __RemoveGold, COMDAT

; 964  : {

  00000	55		 push	 ebp
  00001	8b ec		 mov	 ebp, esp
  00003	56		 push	 esi

; 965  : 	CUser* pUser	= prj.GetUser( dwIdMover );

  00004	ff 75 08	 push	 DWORD PTR _dwIdMover$[ebp]
  00007	b9 00 00 00 00	 mov	 ecx, OFFSET ?prj@@3VCProject@@A ; prj
  0000c	e8 00 00 00 00	 call	 ?GetUser@CProject@@QAEPAVCUser@@K@Z ; CProject::GetUser

; 966  : 	if( pUser->AddGold( -nGold ) == FALSE )

  00011	8b 4d 0c	 mov	 ecx, DWORD PTR _nGold$[ebp]
  00014	8b f0		 mov	 esi, eax
  00016	f7 d9		 neg	 ecx
  00018	6a 01		 push	 1
  0001a	51		 push	 ecx
  0001b	8b ce		 mov	 ecx, esi
  0001d	e8 00 00 00 00	 call	 ?AddGold@CMover@@QAEHHH@Z ; CMover::AddGold
  00022	85 c0		 test	 eax, eax
  00024	75 06		 jne	 SHORT $LN2@RemoveGold

; 967  : 		pUser->SetGold( 0 );

  00026	89 86 e0 14 00
	00		 mov	 DWORD PTR [esi+5344], eax
$LN2@RemoveGold:
  0002c	5e		 pop	 esi

; 968  : }

  0002d	5d		 pop	 ebp
  0002e	c3		 ret	 0
?__RemoveGold@@YAXKH@Z ENDP				; __RemoveGold
_TEXT	ENDS
; Function compile flags: /Ogtp
; File C:\IAGOS\server\v18\Source\Source\_Common\ScriptHelper.cpp
;	COMDAT ?__AddGold@@YAXKH@Z
_TEXT	SEGMENT
_dwIdMover$ = 8						; size = 4
_nGold$ = 12						; size = 4
?__AddGold@@YAXKH@Z PROC				; __AddGold, COMDAT

; 957  : {

  00000	55		 push	 ebp
  00001	8b ec		 mov	 ebp, esp
  00003	57		 push	 edi

; 958  : 	CUser* pUser = prj.GetUser( dwIdMover );

  00004	ff 75 08	 push	 DWORD PTR _dwIdMover$[ebp]
  00007	b9 00 00 00 00	 mov	 ecx, OFFSET ?prj@@3VCProject@@A ; prj
  0000c	e8 00 00 00 00	 call	 ?GetUser@CProject@@QAEPAVCUser@@K@Z ; CProject::GetUser

; 959  : 	pUser->AddGold( nGold );

  00011	6a 01		 push	 1
  00013	ff 75 0c	 push	 DWORD PTR _nGold$[ebp]
  00016	8b f8		 mov	 edi, eax
  00018	8b cf		 mov	 ecx, edi
  0001a	e8 00 00 00 00	 call	 ?AddGold@CMover@@QAEHHH@Z ; CMover::AddGold

; 960  : 	pUser->AddGoldText( nGold );

  0001f	ff 75 0c	 push	 DWORD PTR _nGold$[ebp]
  00022	8b cf		 mov	 ecx, edi
  00024	e8 00 00 00 00	 call	 ?AddGoldText@CUser@@QAEXH@Z ; CUser::AddGoldText
  00029	5f		 pop	 edi

; 961  : }

  0002a	5d		 pop	 ebp
  0002b	c3		 ret	 0
?__AddGold@@YAXKH@Z ENDP				; __AddGold
_TEXT	ENDS
; Function compile flags: /Ogtp
; File C:\IAGOS\server\v18\Source\Source\_Common\ScriptHelper.cpp
; File C:\IAGOS\server\v18\Source\Source\_Common\Project.h
; File C:\IAGOS\server\v18\Source\Source\_Common\ScriptHelper.cpp
; File C:\IAGOS\server\v18\Source\Source\_Common\Project.h
; File C:\IAGOS\server\v18\Source\Source\_Common\data.h
; File C:\IAGOS\server\v18\Source\Source\_Common\ScriptHelper.cpp
; File C:\IAGOS\server\v18\Source\Source\_Common\Project.h
; File C:\IAGOS\server\v18\Source\Source\_Common\ScriptHelper.cpp
; File C:\IAGOS\server\v18\Source\Source\_Common\Item.h
; File C:\IAGOS\server\v18\Source\Source\_Common\ScriptHelper.cpp
; File C:\IAGOS\server\v18\Source\Source\_network\CmnHdr.h
; File C:\IAGOS\server\v18\Source\Source\_Common\ScriptHelper.cpp
; File C:\IAGOS\server\v18\Source\Source\_network\CmnHdr.h
; File C:\IAGOS\server\v18\Source\Source\_Common\ScriptHelper.cpp
; File C:\IAGOS\server\v18\Source\Source\_network\CmnHdr.h
; File C:\IAGOS\server\v18\Source\Source\_Common\ScriptHelper.cpp
;	COMDAT ?__CreateItem@@YAXKHHHE@Z
_TEXT	SEGMENT
_aLogItem$2 = -392					; size = 200
_itemElem$ = -192					; size = 176
__$ArrayPad$ = -16					; size = 4
__$EHRec$ = -12						; size = 12
_dwIdMover$ = 8						; size = 4
_v1$ = 12						; size = 4
_v2$ = 16						; size = 4
_v3$ = 20						; size = 4
_v4$ = 24						; size = 1
?__CreateItem@@YAXKHHHE@Z PROC				; __CreateItem, COMDAT

; 931  : {

  00000	55		 push	 ebp
  00001	8b ec		 mov	 ebp, esp
  00003	6a ff		 push	 -1
  00005	68 00 00 00 00	 push	 __ehhandler$?__CreateItem@@YAXKHHHE@Z
  0000a	64 a1 00 00 00
	00		 mov	 eax, DWORD PTR fs:0
  00010	50		 push	 eax
  00011	81 ec 7c 01 00
	00		 sub	 esp, 380		; 0000017cH
  00017	a1 00 00 00 00	 mov	 eax, DWORD PTR ___security_cookie
  0001c	33 c5		 xor	 eax, ebp
  0001e	89 45 f0	 mov	 DWORD PTR __$ArrayPad$[ebp], eax
  00021	56		 push	 esi
  00022	57		 push	 edi
  00023	50		 push	 eax
  00024	8d 45 f4	 lea	 eax, DWORD PTR __$EHRec$[ebp]
  00027	64 a3 00 00 00
	00		 mov	 DWORD PTR fs:0, eax
  0002d	8b 45 08	 mov	 eax, DWORD PTR _dwIdMover$[ebp]

; 932  : 	CUser* pUser	= prj.GetUser( dwIdMover );

  00030	b9 00 00 00 00	 mov	 ecx, OFFSET ?prj@@3VCProject@@A ; prj
  00035	8b 75 0c	 mov	 esi, DWORD PTR _v1$[ebp]
  00038	50		 push	 eax
  00039	e8 00 00 00 00	 call	 ?GetUser@CProject@@QAEPAVCUser@@K@Z ; CProject::GetUser
; File C:\IAGOS\server\v18\Source\Source\_Common\Project.h

; 1389 : 	VERIFY_RANGE_ASSERT( nIndex, 0, m_aPropItem.GetSize(), "GetItemProp range_error", NULL );

  0003e	8b 0d 40 02 00
	00		 mov	 ecx, DWORD PTR ?prj@@3VCProject@@A+576
; File C:\IAGOS\server\v18\Source\Source\_Common\ScriptHelper.cpp

; 932  : 	CUser* pUser	= prj.GetUser( dwIdMover );

  00044	8b f8		 mov	 edi, eax
; File C:\IAGOS\server\v18\Source\Source\_Common\Project.h

; 1389 : 	VERIFY_RANGE_ASSERT( nIndex, 0, m_aPropItem.GetSize(), "GetItemProp range_error", NULL );

  00046	85 f6		 test	 esi, esi
  00048	78 2f		 js	 SHORT $LN11@CreateItem
  0004a	3b f1		 cmp	 esi, ecx
  0004c	7d 2b		 jge	 SHORT $LN11@CreateItem
; File C:\IAGOS\server\v18\Source\Source\_Common\data.h

; 270  : 	if( dwIndex >= (DWORD)m_nMaxIndex )

  0004e	72 04		 jb	 SHORT $LN16@CreateItem

; 271  : 		return NULL;

  00050	33 c0		 xor	 eax, eax
  00052	eb 08		 jmp	 SHORT $LN15@CreateItem
$LN16@CreateItem:

; 272  : 	return (T*) m_apOffset[ dwIndex ];

  00054	a1 30 02 00 00	 mov	 eax, DWORD PTR ?prj@@3VCProject@@A+560
  00059	8b 04 b0	 mov	 eax, DWORD PTR [eax+esi*4]
$LN15@CreateItem:
; File C:\IAGOS\server\v18\Source\Source\_Common\ScriptHelper.cpp

; 934  : 	if( pItemProp )

  0005c	85 c0		 test	 eax, eax
  0005e	74 2f		 je	 SHORT $LN2@CreateItem

; 935  : 		pUser->AddDefinedText( TID_EVE_REAPITEM, "\"%s\"", pItemProp->szName );

  00060	83 c0 04	 add	 eax, 4
  00063	50		 push	 eax
  00064	68 00 00 00 00	 push	 OFFSET ??_C@_04OEDFLLKD@?$CC?$CFs?$CC@
  00069	68 f7 01 00 00	 push	 503			; 000001f7H
  0006e	57		 push	 edi
  0006f	e8 00 00 00 00	 call	 ?AddDefinedText@CUser@@QAAXHPBDZZ ; CUser::AddDefinedText
  00074	83 c4 10	 add	 esp, 16			; 00000010H
  00077	eb 16		 jmp	 SHORT $LN2@CreateItem
$LN11@CreateItem:
; File C:\IAGOS\server\v18\Source\Source\_Common\Project.h

; 579  : 	LPCTSTR szErr = Error( _T( "%s min:%d, max:%d, index:%d" ), szMsg, nMin, nMax, nIndex ); 

  00079	56		 push	 esi
  0007a	51		 push	 ecx
  0007b	6a 00		 push	 0
  0007d	68 00 00 00 00	 push	 OFFSET ??_C@_0BI@BEIFNGEL@GetItemProp?5range_error@
  00082	68 00 00 00 00	 push	 OFFSET ??_C@_0BM@HMFGHCP@?$CFs?5min?3?$CFd?0?5max?3?$CFd?0?5index?3?$CFd@
  00087	e8 00 00 00 00	 call	 ?Error@@YAPBDPBDZZ	; Error
  0008c	83 c4 14	 add	 esp, 20			; 00000014H
$LN2@CreateItem:
; File C:\IAGOS\server\v18\Source\Source\_Common\ScriptHelper.cpp

; 936  : 	CItemElem itemElem;

  0008f	8d 8d 40 ff ff
	ff		 lea	 ecx, DWORD PTR _itemElem$[ebp]
  00095	e8 00 00 00 00	 call	 ??0CItemElem@@QAE@XZ	; CItemElem::CItemElem

; 937  : 	itemElem.m_dwItemId		= v1;
; 938  : 	itemElem.m_nItemNum		= v2;

  0009a	66 8b 45 10	 mov	 ax, WORD PTR _v2$[ebp]

; 945  : 	if( pUser->CreateItem( &itemElem ) )

  0009e	8b cf		 mov	 ecx, edi
  000a0	66 89 45 b4	 mov	 WORD PTR _itemElem$[ebp+116], ax
  000a4	8b 45 14	 mov	 eax, DWORD PTR _v3$[ebp]
  000a7	6a 00		 push	 0
  000a9	89 45 a4	 mov	 DWORD PTR _itemElem$[ebp+100], eax
; File C:\IAGOS\server\v18\Source\Source\_Common\Item.h

; 256  : 	void	SetFlag( BYTE byFlag )		{	m_byFlag	|= byFlag;		}

  000ac	8a 45 18	 mov	 al, BYTE PTR _v4$[ebp]
  000af	08 45 b6	 or	 BYTE PTR _itemElem$[ebp+118], al
; File C:\IAGOS\server\v18\Source\Source\_Common\ScriptHelper.cpp

; 945  : 	if( pUser->CreateItem( &itemElem ) )

  000b2	8d 85 40 ff ff
	ff		 lea	 eax, DWORD PTR _itemElem$[ebp]
  000b8	6a 00		 push	 0
  000ba	6a 00		 push	 0
  000bc	50		 push	 eax
  000bd	c7 45 fc 00 00
	00 00		 mov	 DWORD PTR __$EHRec$[ebp+8], 0
  000c4	89 b5 4c ff ff
	ff		 mov	 DWORD PTR _itemElem$[ebp+12], esi
  000ca	e8 00 00 00 00	 call	 ?CreateItem@CMover@@QAEHPAVCItemBase@@PAEPAFE@Z ; CMover::CreateItem
  000cf	85 c0		 test	 eax, eax
  000d1	0f 84 6d 01 00
	00		 je	 $LN3@CreateItem
  000d7	0f 57 c0	 xorps	 xmm0, xmm0
; File C:\IAGOS\server\v18\Source\Source\_network\CmnHdr.h

; 638  : 		SendName = _T("");

  000da	c7 85 7c fe ff
	ff 00 00 00 00	 mov	 DWORD PTR _aLogItem$2[ebp+4], OFFSET ??_C@_00CNPNBAHC@@

; 645  : 		::memset( szItemName, 0, sizeof(szItemName) );

  000e4	0f 11 85 9c fe
	ff ff		 movups	 XMMWORD PTR _aLogItem$2[ebp+36], xmm0

; 683  : 		wPetEnergy = 0;

  000eb	33 c0		 xor	 eax, eax
; File C:\IAGOS\server\v18\Source\Source\_Common\ScriptHelper.cpp

; 949  : 		aLogItem.SendName = pUser->GetName();

  000ed	8b cf		 mov	 ecx, edi
; File C:\IAGOS\server\v18\Source\Source\_network\CmnHdr.h

; 645  : 		::memset( szItemName, 0, sizeof(szItemName) );

  000ef	0f 11 85 ac fe
	ff ff		 movups	 XMMWORD PTR _aLogItem$2[ebp+52], xmm0
; File C:\IAGOS\server\v18\Source\Source\_Common\ScriptHelper.cpp

; 949  : 		aLogItem.SendName = pUser->GetName();

  000f6	50		 push	 eax
; File C:\IAGOS\server\v18\Source\Source\_network\CmnHdr.h

; 649  : 		nSlot = 100;

  000f7	0f 28 05 00 00
	00 00		 movaps	 xmm0, XMMWORD PTR __xmm@00000000000000000000006400000064
  000fe	0f 11 85 c8 fe
	ff ff		 movups	 XMMWORD PTR _aLogItem$2[ebp+80], xmm0
  00105	c7 85 80 fe ff
	ff 00 00 00 00	 mov	 DWORD PTR _aLogItem$2[ebp+8], OFFSET ??_C@_00CNPNBAHC@@
  0010f	0f 57 c0	 xorps	 xmm0, xmm0

; 639  : 		RecvName = _T("");
; 640  : 		WorldId = Gold = Gold2 = 0;

  00112	c7 85 8c fe ff
	ff 00 00 00 00	 mov	 DWORD PTR _aLogItem$2[ebp+20], 0
  0011c	c7 85 88 fe ff
	ff 00 00 00 00	 mov	 DWORD PTR _aLogItem$2[ebp+16], 0
  00126	c7 85 84 fe ff
	ff 00 00 00 00	 mov	 DWORD PTR _aLogItem$2[ebp+12], 0

; 641  : 		Negudo = 0;

  00130	c7 85 94 fe ff
	ff 00 00 00 00	 mov	 DWORD PTR _aLogItem$2[ebp+28], 0

; 642  : 		MaxNegudo = 0;

  0013a	c7 85 98 fe ff
	ff 00 00 00 00	 mov	 DWORD PTR _aLogItem$2[ebp+32], 0

; 643  : 		ItemNo = 0;

  00144	c7 85 90 fe ff
	ff 00 00 00 00	 mov	 DWORD PTR _aLogItem$2[ebp+24], 0

; 646  : 		itemNumber = 0;

  0014e	c7 85 bc fe ff
	ff 00 00 00 00	 mov	 DWORD PTR _aLogItem$2[ebp+68], 0

; 647  : 		nAbilityOption = 0;

  00158	c7 85 c0 fe ff
	ff 00 00 00 00	 mov	 DWORD PTR _aLogItem$2[ebp+72], 0

; 648  : 		Gold_1 = 0;

  00162	c7 85 c4 fe ff
	ff 00 00 00 00	 mov	 DWORD PTR _aLogItem$2[ebp+76], 0

; 650  : 		nSlot1 = 100;
; 651  : 		nItemResist = 0;
; 652  : 		nResistAbilityOption = 0;
; 653  : 		m_bCharged = FALSE;

  0016c	c7 85 d8 fe ff
	ff 00 00 00 00	 mov	 DWORD PTR _aLogItem$2[ebp+96], 0

; 654  : 		m_dwKeepTime = 0;

  00176	c7 85 dc fe ff
	ff 00 00 00 00	 mov	 DWORD PTR _aLogItem$2[ebp+100], 0

; 655  : #if __VER >= 11 // __SYS_IDENTIFY
; 656  : 		m_iRandomOptItemId = 0;

  00180	66 0f 13 85 e0
	fe ff ff	 movlpd	 QWORD PTR _aLogItem$2[ebp+104], xmm0

; 657  : #else	//__SYS_IDENTIFY
; 658  : 		m_nRandomOptItemId = 0;
; 659  : #endif	// __SYS_IDENTIFY
; 660  : #if __VER >= 12 // __EXT_PIERCING
; 661  : 		nPiercedSize = 0;

  00188	c7 85 e8 fe ff
	ff 00 00 00 00	 mov	 DWORD PTR _aLogItem$2[ebp+112], 0

; 662  : //		for( int i=0; i<MAX_PIERCING_WEAPON; i++ )
; 663  : //			adwItemId[i] = 0;
; 664  : 		memset( adwItemId, 0, sizeof(adwItemId) );

  00192	0f 11 85 ec fe
	ff ff		 movups	 XMMWORD PTR _aLogItem$2[ebp+116], xmm0

; 665  : 		nUMPiercedSize = 0;

  00199	c7 85 14 ff ff
	ff 00 00 00 00	 mov	 DWORD PTR _aLogItem$2[ebp+156], 0
  001a3	0f 11 85 fc fe
	ff ff		 movups	 XMMWORD PTR _aLogItem$2[ebp+132], xmm0

; 666  : //		for( i=0; i<MAX_PIERCING_ULTIMATE; i++ )
; 667  : //	adwUMItemId[i] = 0;
; 668  : 		memset( adwUMItemId, 0, sizeof(adwUMItemId) );

  001aa	c7 85 28 ff ff
	ff 00 00 00 00	 mov	 DWORD PTR _aLogItem$2[ebp+176], 0
  001b4	66 0f d6 85 0c
	ff ff ff	 movq	 QWORD PTR _aLogItem$2[ebp+148], xmm0
  001bc	0f 11 85 18 ff
	ff ff		 movups	 XMMWORD PTR _aLogItem$2[ebp+160], xmm0

; 669  : #else // __EXT_PIERCING
; 670  : 		nPiercedSize = 0;
; 671  : 		adwItemId0 = 0;
; 672  : 		adwItemId1 = 0;
; 673  : 		adwItemId2 = 0;
; 674  : 		adwItemId3 = 0;
; 675  : #if __VER >= 9 // __ULTIMATE
; 676  : 		adwItemId4 = 0;
; 677  : #endif // __ULTIMATE
; 678  : #endif // __EXT_PIERCING
; 679  : #if __VER >= 9 // __PET_0410
; 680  : 		nPetKind = 0;

  001c3	66 c7 85 2c ff
	ff ff 00 00	 mov	 WORD PTR _aLogItem$2[ebp+180], 0

; 681  : 		nPetLevel = 0;
; 682  : 		dwPetExp = 0;

  001cc	c7 85 30 ff ff
	ff 00 00 00 00	 mov	 DWORD PTR _aLogItem$2[ebp+184], 0

; 683  : 		wPetEnergy = 0;

  001d6	89 85 34 ff ff
	ff		 mov	 DWORD PTR _aLogItem$2[ebp+188], eax

; 684  : 		wPetLife = 0;
; 685  : 		nPetAL_D = 0;

  001dc	89 85 38 ff ff
	ff		 mov	 DWORD PTR _aLogItem$2[ebp+192], eax

; 686  : 		nPetAL_C = 0;
; 687  : 		nPetAL_B = 0;
; 688  : 		nPetAL_A = 0;
; 689  : 		nPetAL_S = 0;

  001e2	88 85 3c ff ff
	ff		 mov	 BYTE PTR _aLogItem$2[ebp+196], al
; File C:\IAGOS\server\v18\Source\Source\_Common\ScriptHelper.cpp

; 948  : 		aLogItem.Action = "Q";

  001e8	c7 85 78 fe ff
	ff 00 00 00 00	 mov	 DWORD PTR _aLogItem$2[ebp], OFFSET ??_C@_01BNIGIBBF@Q@

; 949  : 		aLogItem.SendName = pUser->GetName();

  001f2	e8 00 00 00 00	 call	 ?GetName@CMover@@QAEPBDH@Z ; CMover::GetName
  001f7	89 85 7c fe ff
	ff		 mov	 DWORD PTR _aLogItem$2[ebp+4], eax

; 950  : 		aLogItem.RecvName = "QUEST";
; 951  : 		aLogItem.WorldId = pUser->GetWorld()->GetID();
; 952  : 		aLogItem.Gold = aLogItem.Gold2 = pUser->GetGold();
; 953  : 		g_DPSrvr.OnLogItem( aLogItem, &itemElem, itemElem.m_nItemNum );

  001fd	b9 00 00 00 00	 mov	 ecx, OFFSET ?g_DPSrvr@@3VCDPSrvr@@A ; g_DPSrvr
  00202	8b 87 6c 01 00
	00		 mov	 eax, DWORD PTR [edi+364]
  00208	c7 85 80 fe ff
	ff 00 00 00 00	 mov	 DWORD PTR _aLogItem$2[ebp+8], OFFSET ??_C@_05GFPLGFAD@QUEST@
  00212	8b 00		 mov	 eax, DWORD PTR [eax]
  00214	89 85 84 fe ff
	ff		 mov	 DWORD PTR _aLogItem$2[ebp+12], eax
  0021a	8b 87 e0 14 00
	00		 mov	 eax, DWORD PTR [edi+5344]
  00220	89 85 8c fe ff
	ff		 mov	 DWORD PTR _aLogItem$2[ebp+20], eax
  00226	89 85 88 fe ff
	ff		 mov	 DWORD PTR _aLogItem$2[ebp+16], eax
  0022c	0f bf 45 b4	 movsx	 eax, WORD PTR _itemElem$[ebp+116]
  00230	50		 push	 eax
  00231	8d 85 40 ff ff
	ff		 lea	 eax, DWORD PTR _itemElem$[ebp]
  00237	50		 push	 eax
  00238	8d 85 78 fe ff
	ff		 lea	 eax, DWORD PTR _aLogItem$2[ebp]
  0023e	50		 push	 eax
  0023f	e8 00 00 00 00	 call	 ?OnLogItem@CDPSrvr@@QAEXAAU_LogItemInfo@@PAVCItemElem@@H@Z ; CDPSrvr::OnLogItem
$LN3@CreateItem:

; 954  : 	}
; 955  : }

  00244	8d 8d 40 ff ff
	ff		 lea	 ecx, DWORD PTR _itemElem$[ebp]
  0024a	e8 00 00 00 00	 call	 ??1CItemElem@@UAE@XZ	; CItemElem::~CItemElem
  0024f	8b 4d f4	 mov	 ecx, DWORD PTR __$EHRec$[ebp]
  00252	64 89 0d 00 00
	00 00		 mov	 DWORD PTR fs:0, ecx
  00259	59		 pop	 ecx
  0025a	5f		 pop	 edi
  0025b	5e		 pop	 esi
  0025c	8b 4d f0	 mov	 ecx, DWORD PTR __$ArrayPad$[ebp]
  0025f	33 cd		 xor	 ecx, ebp
  00261	e8 00 00 00 00	 call	 @__security_check_cookie@4
  00266	8b e5		 mov	 esp, ebp
  00268	5d		 pop	 ebp
  00269	c3		 ret	 0
_TEXT	ENDS
;	COMDAT text$x
text$x	SEGMENT
__unwindfunclet$?__CreateItem@@YAXKHHHE@Z$0:
  00000	8d 8d 40 ff ff
	ff		 lea	 ecx, DWORD PTR _itemElem$[ebp]
  00006	e9 00 00 00 00	 jmp	 ??1CItemElem@@UAE@XZ	; CItemElem::~CItemElem
  0000b	cc		 int	 3
  0000c	cc		 int	 3
  0000d	cc		 int	 3
  0000e	cc		 int	 3
  0000f	cc		 int	 3
__ehhandler$?__CreateItem@@YAXKHHHE@Z:
  00010	90		 npad	 1
  00011	90		 npad	 1
  00012	8b 54 24 08	 mov	 edx, DWORD PTR [esp+8]
  00016	8d 42 0c	 lea	 eax, DWORD PTR [edx+12]
  00019	8b 8a 78 fe ff
	ff		 mov	 ecx, DWORD PTR [edx-392]
  0001f	33 c8		 xor	 ecx, eax
  00021	e8 00 00 00 00	 call	 @__security_check_cookie@4
  00026	8b 4a fc	 mov	 ecx, DWORD PTR [edx-4]
  00029	33 c8		 xor	 ecx, eax
  0002b	e8 00 00 00 00	 call	 @__security_check_cookie@4
  00030	b8 00 00 00 00	 mov	 eax, OFFSET __ehfuncinfo$?__CreateItem@@YAXKHHHE@Z
  00035	e9 00 00 00 00	 jmp	 ___CxxFrameHandler3
text$x	ENDS
?__CreateItem@@YAXKHHHE@Z ENDP				; __CreateItem
; Function compile flags: /Ogtp
; File C:\IAGOS\server\v18\Source\Source\_Common\ScriptHelper.cpp
; File C:\IAGOS\server\v18\Source\Source\_Common\data.h
; File C:\IAGOS\server\v18\Source\Source\_Common\ScriptHelper.cpp
; File C:\IAGOS\server\v18\Source\Source\_Common\data.h
; File C:\IAGOS\server\v18\Source\Source\_Common\ScriptHelper.cpp
;	COMDAT ?__SetQuest@@YAXKH@Z
_TEXT	SEGMENT
_quest$ = -16						; size = 12
__$ArrayPad$ = -4					; size = 4
_dwIdMover$ = 8						; size = 4
_nQuest$ = 12						; size = 4
?__SetQuest@@YAXKH@Z PROC				; __SetQuest, COMDAT

; 911  : {

  00000	55		 push	 ebp
  00001	8b ec		 mov	 ebp, esp
  00003	83 ec 10	 sub	 esp, 16			; 00000010H
  00006	a1 00 00 00 00	 mov	 eax, DWORD PTR ___security_cookie
  0000b	33 c5		 xor	 eax, ebp
  0000d	89 45 fc	 mov	 DWORD PTR __$ArrayPad$[ebp], eax
  00010	8b 4d 08	 mov	 ecx, DWORD PTR _dwIdMover$[ebp]
  00013	56		 push	 esi
  00014	57		 push	 edi
  00015	8b 7d 0c	 mov	 edi, DWORD PTR _nQuest$[ebp]
; File C:\IAGOS\server\v18\Source\Source\_Common\data.h

; 270  : 	if( dwIndex >= (DWORD)m_nMaxIndex )

  00018	3b 3d f4 02 00
	00		 cmp	 edi, DWORD PTR ?prj@@3VCProject@@A+756
  0001e	72 0f		 jb	 SHORT $LN6@SetQuest

; 271  : 		return NULL;

  00020	51		 push	 ecx
  00021	b9 00 00 00 00	 mov	 ecx, OFFSET ?prj@@3VCProject@@A ; prj
  00026	e8 00 00 00 00	 call	 ?GetUser@CProject@@QAEPAVCUser@@K@Z ; CProject::GetUser
  0002b	8b f0		 mov	 esi, eax
  0002d	eb 32		 jmp	 SHORT $LN2@SetQuest
$LN6@SetQuest:

; 272  : 	return (T*) m_apOffset[ dwIndex ];

  0002f	a1 e4 02 00 00	 mov	 eax, DWORD PTR ?prj@@3VCProject@@A+740
  00034	53		 push	 ebx
; File C:\IAGOS\server\v18\Source\Source\_Common\ScriptHelper.cpp

; 913  : 	CUser* pUser	= prj.GetUser( dwIdMover );

  00035	51		 push	 ecx
  00036	b9 00 00 00 00	 mov	 ecx, OFFSET ?prj@@3VCProject@@A ; prj
; File C:\IAGOS\server\v18\Source\Source\_Common\data.h

; 272  : 	return (T*) m_apOffset[ dwIndex ];

  0003b	8b 1c b8	 mov	 ebx, DWORD PTR [eax+edi*4]
; File C:\IAGOS\server\v18\Source\Source\_Common\ScriptHelper.cpp

; 913  : 	CUser* pUser	= prj.GetUser( dwIdMover );

  0003e	e8 00 00 00 00	 call	 ?GetUser@CProject@@QAEPAVCUser@@K@Z ; CProject::GetUser
  00043	8b f0		 mov	 esi, eax

; 914  : 	if( pQuestProp )

  00045	85 db		 test	 ebx, ebx
  00047	74 17		 je	 SHORT $LN11@SetQuest

; 915  : 		pUser->AddDefinedText( TID_EVE_STARTQUEST, "\"%s\"", pQuestProp->m_szTitle );

  00049	8d 43 02	 lea	 eax, DWORD PTR [ebx+2]
  0004c	50		 push	 eax
  0004d	68 00 00 00 00	 push	 OFFSET ??_C@_04OEDFLLKD@?$CC?$CFs?$CC@
  00052	68 f9 01 00 00	 push	 505			; 000001f9H
  00057	56		 push	 esi
  00058	e8 00 00 00 00	 call	 ?AddDefinedText@CUser@@QAAXHPBDZZ ; CUser::AddDefinedText
  0005d	83 c4 10	 add	 esp, 16			; 00000010H
$LN11@SetQuest:
  00060	5b		 pop	 ebx
$LN2@SetQuest:

; 916  : 	QUEST quest;
; 917  : 	if( pUser->SetQuest( nQuest, 0, &quest ) )

  00061	8d 45 f0	 lea	 eax, DWORD PTR _quest$[ebp]
  00064	8b ce		 mov	 ecx, esi
  00066	50		 push	 eax
  00067	6a 00		 push	 0
  00069	57		 push	 edi
  0006a	e8 00 00 00 00	 call	 ?SetQuest@CMover@@QAEHHHPAUtagQuest@@@Z ; CMover::SetQuest
  0006f	85 c0		 test	 eax, eax
  00071	74 0b		 je	 SHORT $LN3@SetQuest

; 918  : 		pUser->AddSetQuest( &quest );

  00073	8d 45 f0	 lea	 eax, DWORD PTR _quest$[ebp]
  00076	8b ce		 mov	 ecx, esi
  00078	50		 push	 eax
  00079	e8 00 00 00 00	 call	 ?AddSetQuest@CUser@@QAEXPAUtagQuest@@@Z ; CUser::AddSetQuest
$LN3@SetQuest:

; 919  : 	g_dpDBClient.CalluspLoggingQuest( pUser->m_idPlayer, nQuest, 10 );

  0007e	68 00 00 00 00	 push	 OFFSET ??_C@_00CNPNBAHC@@
  00083	6a 0a		 push	 10			; 0000000aH
  00085	57		 push	 edi
  00086	ff b6 34 02 00
	00		 push	 DWORD PTR [esi+564]
  0008c	b9 00 00 00 00	 mov	 ecx, OFFSET ?g_dpDBClient@@3VCDPDatabaseClient@@A ; g_dpDBClient
  00091	e8 00 00 00 00	 call	 ?CalluspLoggingQuest@CDPDatabaseClient@@QAEXKHHPBD@Z ; CDPDatabaseClient::CalluspLoggingQuest

; 920  : }

  00096	8b 4d fc	 mov	 ecx, DWORD PTR __$ArrayPad$[ebp]
  00099	5f		 pop	 edi
  0009a	33 cd		 xor	 ecx, ebp
  0009c	5e		 pop	 esi
  0009d	e8 00 00 00 00	 call	 @__security_check_cookie@4
  000a2	8b e5		 mov	 esp, ebp
  000a4	5d		 pop	 ebp
  000a5	c3		 ret	 0
?__SetQuest@@YAXKH@Z ENDP				; __SetQuest
_TEXT	ENDS
; Function compile flags: /Ogtp
; File C:\IAGOS\server\v18\Source\Source\_Common\ScriptHelper.cpp
; File C:\IAGOS\server\v18\Source\Source\_Common\data.h
; File C:\IAGOS\server\v18\Source\Source\_Common\ScriptHelper.cpp
;	COMDAT ?__SetQuestState@@YAHKHH@Z
_TEXT	SEGMENT
_quest$ = -16						; size = 12
__$ArrayPad$ = -4					; size = 4
_dwIdMover$ = 8						; size = 4
_nQuest$ = 12						; size = 4
_nState$ = 16						; size = 4
?__SetQuestState@@YAHKHH@Z PROC				; __SetQuestState, COMDAT

; 887  : {

  00000	55		 push	 ebp
  00001	8b ec		 mov	 ebp, esp
  00003	83 ec 10	 sub	 esp, 16			; 00000010H
  00006	a1 00 00 00 00	 mov	 eax, DWORD PTR ___security_cookie
  0000b	33 c5		 xor	 eax, ebp
  0000d	89 45 fc	 mov	 DWORD PTR __$ArrayPad$[ebp], eax
  00010	8b 45 08	 mov	 eax, DWORD PTR _dwIdMover$[ebp]

; 888  : 	CUser* pUser	= prj.GetUser( dwIdMover );

  00013	b9 00 00 00 00	 mov	 ecx, OFFSET ?prj@@3VCProject@@A ; prj
  00018	53		 push	 ebx
  00019	56		 push	 esi
  0001a	8b 75 0c	 mov	 esi, DWORD PTR _nQuest$[ebp]
  0001d	57		 push	 edi
  0001e	50		 push	 eax
  0001f	e8 00 00 00 00	 call	 ?GetUser@CProject@@QAEPAVCUser@@K@Z ; CProject::GetUser

; 889  : 	if( nState == QS_END )

  00024	8b 5d 10	 mov	 ebx, DWORD PTR _nState$[ebp]
  00027	8b f8		 mov	 edi, eax
  00029	83 fb 0e	 cmp	 ebx, 14			; 0000000eH
  0002c	75 3d		 jne	 SHORT $LN2@SetQuestSt
; File C:\IAGOS\server\v18\Source\Source\_Common\data.h

; 270  : 	if( dwIndex >= (DWORD)m_nMaxIndex )

  0002e	3b 35 f4 02 00
	00		 cmp	 esi, DWORD PTR ?prj@@3VCProject@@A+756
  00034	73 2c		 jae	 SHORT $LN5@SetQuestSt

; 271  : 		return NULL;
; 272  : 	return (T*) m_apOffset[ dwIndex ];

  00036	8b 0d e4 02 00
	00		 mov	 ecx, DWORD PTR ?prj@@3VCProject@@A+740
  0003c	8b 04 b1	 mov	 eax, DWORD PTR [ecx+esi*4]
; File C:\IAGOS\server\v18\Source\Source\_Common\ScriptHelper.cpp

; 892  : 		if( pQuestProp )

  0003f	85 c0		 test	 eax, eax
  00041	74 1f		 je	 SHORT $LN5@SetQuestSt

; 893  : 		{
; 894  : 			if( nQuest !=  QUEST_CREGUILD )

  00043	81 fe 8e 00 00
	00		 cmp	 esi, 142		; 0000008eH
  00049	74 17		 je	 SHORT $LN5@SetQuestSt

; 895  : 				pUser->AddDefinedText( TID_EVE_ENDQUEST, "\"%s\"", pQuestProp->m_szTitle );

  0004b	83 c0 02	 add	 eax, 2
  0004e	50		 push	 eax
  0004f	68 00 00 00 00	 push	 OFFSET ??_C@_04OEDFLLKD@?$CC?$CFs?$CC@
  00054	68 fa 01 00 00	 push	 506			; 000001faH
  00059	57		 push	 edi
  0005a	e8 00 00 00 00	 call	 ?AddDefinedText@CUser@@QAAXHPBDZZ ; CUser::AddDefinedText
  0005f	83 c4 10	 add	 esp, 16			; 00000010H
$LN5@SetQuestSt:

; 896  : 		}
; 897  : 		g_dpDBClient.CalluspLoggingQuest( pUser->m_idPlayer, nQuest, 20 );

  00062	68 00 00 00 00	 push	 OFFSET ??_C@_00CNPNBAHC@@
  00067	6a 14		 push	 20			; 00000014H

; 898  : 	}

  00069	eb 0b		 jmp	 SHORT $LN19@SetQuestSt
$LN2@SetQuestSt:

; 899  : 	else
; 900  : 	if( nState == QS_BEGIN )

  0006b	85 db		 test	 ebx, ebx
  0006d	75 18		 jne	 SHORT $LN6@SetQuestSt

; 901  : 	{
; 902  : 		g_dpDBClient.CalluspLoggingQuest( pUser->m_idPlayer, nQuest, 10 );

  0006f	68 00 00 00 00	 push	 OFFSET ??_C@_00CNPNBAHC@@
  00074	6a 0a		 push	 10			; 0000000aH
$LN19@SetQuestSt:

; 903  : 	}
; 904  : 	QUEST quest;
; 905  : 	if( pUser->SetQuest( nQuest, nState, &quest ) )

  00076	56		 push	 esi
  00077	ff b7 34 02 00
	00		 push	 DWORD PTR [edi+564]
  0007d	b9 00 00 00 00	 mov	 ecx, OFFSET ?g_dpDBClient@@3VCDPDatabaseClient@@A ; g_dpDBClient
  00082	e8 00 00 00 00	 call	 ?CalluspLoggingQuest@CDPDatabaseClient@@QAEXKHHPBD@Z ; CDPDatabaseClient::CalluspLoggingQuest
$LN6@SetQuestSt:
  00087	8d 45 f0	 lea	 eax, DWORD PTR _quest$[ebp]
  0008a	8b cf		 mov	 ecx, edi
  0008c	50		 push	 eax
  0008d	53		 push	 ebx
  0008e	56		 push	 esi
  0008f	e8 00 00 00 00	 call	 ?SetQuest@CMover@@QAEHHHPAUtagQuest@@@Z ; CMover::SetQuest
  00094	85 c0		 test	 eax, eax
  00096	74 0b		 je	 SHORT $LN12@SetQuestSt

; 906  : 		pUser->AddSetQuest( &quest );

  00098	8d 45 f0	 lea	 eax, DWORD PTR _quest$[ebp]
  0009b	8b cf		 mov	 ecx, edi
  0009d	50		 push	 eax
  0009e	e8 00 00 00 00	 call	 ?AddSetQuest@CUser@@QAEXPAUtagQuest@@@Z ; CUser::AddSetQuest
$LN12@SetQuestSt:

; 907  : 	return 1;
; 908  : }

  000a3	8b 4d fc	 mov	 ecx, DWORD PTR __$ArrayPad$[ebp]
  000a6	b8 01 00 00 00	 mov	 eax, 1
  000ab	5f		 pop	 edi
  000ac	5e		 pop	 esi
  000ad	33 cd		 xor	 ecx, ebp
  000af	5b		 pop	 ebx
  000b0	e8 00 00 00 00	 call	 @__security_check_cookie@4
  000b5	8b e5		 mov	 esp, ebp
  000b7	5d		 pop	 ebp
  000b8	c3		 ret	 0
?__SetQuestState@@YAHKHH@Z ENDP				; __SetQuestState
_TEXT	ENDS
; Function compile flags: /Ogtp
; File C:\IAGOS\server\v18\Source\Source\_Common\ScriptHelper.cpp
;	COMDAT ?__QuestEndComplete@@YAXHHAAHHH@Z
_TEXT	SEGMENT
_pMover$1$ = -4						; size = 4
_nPcId$ = 8						; size = 4
_nNpcId$ = 12						; size = 4
_nGlobal$ = 16						; size = 4
_nVal$ = 20						; size = 4
_nQuestId$ = 24						; size = 4
?__QuestEndComplete@@YAXHHAAHHH@Z PROC			; __QuestEndComplete, COMDAT

; 852  : {

  00000	55		 push	 ebp
  00001	8b ec		 mov	 ebp, esp
  00003	51		 push	 ecx
  00004	53		 push	 ebx
  00005	56		 push	 esi
  00006	57		 push	 edi

; 853  : 	CUser* pUser	= prj.GetUser( nPcId );

  00007	8b 7d 08	 mov	 edi, DWORD PTR _nPcId$[ebp]
  0000a	b9 00 00 00 00	 mov	 ecx, OFFSET ?prj@@3VCProject@@A ; prj
  0000f	57		 push	 edi
  00010	e8 00 00 00 00	 call	 ?GetUser@CProject@@QAEPAVCUser@@K@Z ; CProject::GetUser

; 854  : 	LPQUEST lpQuest		= pUser->GetQuest( nQuestId );

  00015	8b 75 18	 mov	 esi, DWORD PTR _nQuestId$[ebp]
  00018	8b d8		 mov	 ebx, eax
  0001a	56		 push	 esi
  0001b	8b cb		 mov	 ecx, ebx
  0001d	e8 00 00 00 00	 call	 ?GetQuest@CMover@@QAEPAUtagQuest@@H@Z ; CMover::GetQuest

; 855  : 
; 856  : #ifdef __VTN_TIMELIMIT
; 857  : 	//	mulcom	BEGIN100315	şŁĆ®ł˛ ˝Ă°Ł Á¦ÇŃ
; 858  : 	if( ::GetLanguage() == LANG_VTN )
; 859  : 	{
; 860  : 		if( pUser->IsPlayer() == TRUE )
; 861  : 		{
; 862  : 			if( pUser->m_nAccountPlayTime > MIN( 180 ) )
; 863  : 			{
; 864  : 				pUser->AddDefinedText( TID_GAME_ERROR_QUEST_1 );
; 865  : 				return;
; 866  : 			}
; 867  : 		}
; 868  : 	}
; 869  : 	//	mulcom	END100315	şŁĆ®ł˛ ˝Ă°Ł Á¦ÇŃ
; 870  : #endif // __VTN_TIMELIMIT
; 871  : 
; 872  : 	// Äů˝şĆ®°ˇ ÁřÇŕ ÁßŔÎ °ćżě 
; 873  : 	if( lpQuest && pUser->IsCompleteQuest( nQuestId ) == FALSE
; 874  : 		&& __IsEndQuestCondition( pUser, nQuestId ) )

  00022	85 c0		 test	 eax, eax
  00024	74 66		 je	 SHORT $LN2@QuestEndCo
  00026	56		 push	 esi
  00027	8b cb		 mov	 ecx, ebx
  00029	e8 00 00 00 00	 call	 ?IsCompleteQuest@CMover@@QAEHH@Z ; CMover::IsCompleteQuest
  0002e	85 c0		 test	 eax, eax
  00030	75 5a		 jne	 SHORT $LN2@QuestEndCo
  00032	56		 push	 esi
  00033	53		 push	 ebx
  00034	e8 00 00 00 00	 call	 ?__IsEndQuestCondition@@YAHPAVCMover@@H@Z ; __IsEndQuestCondition
  00039	83 c4 08	 add	 esp, 8
  0003c	85 c0		 test	 eax, eax
  0003e	74 4c		 je	 SHORT $LN2@QuestEndCo

; 875  : 	{
; 876  : 		CMover* pMover = prj.GetMover( nNpcId );

  00040	8b 5d 0c	 mov	 ebx, DWORD PTR _nNpcId$[ebp]
  00043	b9 00 00 00 00	 mov	 ecx, OFFSET ?prj@@3VCProject@@A ; prj
  00048	53		 push	 ebx
  00049	e8 00 00 00 00	 call	 ?GetMover@CProject@@QAEPAVCMover@@K@Z ; CProject::GetMover

; 877  : 		if( __EndQuest( nPcId, nQuestId ) == TRUE )

  0004e	6a 01		 push	 1
  00050	56		 push	 esi
  00051	57		 push	 edi
  00052	89 45 fc	 mov	 DWORD PTR _pMover$1$[ebp], eax
  00055	e8 00 00 00 00	 call	 ?__EndQuest@@YAHHHH@Z	; __EndQuest
  0005a	83 c4 0c	 add	 esp, 12			; 0000000cH
  0005d	83 f8 01	 cmp	 eax, 1
  00060	75 1a		 jne	 SHORT $LN3@QuestEndCo

; 878  : 			pMover->m_pNpcProperty->RunDialog( "#questEndComplete", NULL, 0, nNpcId, nPcId, nQuestId );

  00062	8b 4d fc	 mov	 ecx, DWORD PTR _pMover$1$[ebp]
  00065	56		 push	 esi
  00066	57		 push	 edi
  00067	53		 push	 ebx
  00068	8b 89 c4 0d 00
	00		 mov	 ecx, DWORD PTR [ecx+3524]
  0006e	6a 00		 push	 0
  00070	6a 00		 push	 0
  00072	68 00 00 00 00	 push	 OFFSET ??_C@_0BC@JCECPDMN@?$CDquestEndComplete@
  00077	e8 00 00 00 00	 call	 ?RunDialog@CNpcProperty@@QAEHPBDPAHHHHH@Z ; CNpcProperty::RunDialog
$LN3@QuestEndCo:

; 879  : #if __VER >= 15 // __IMPROVE_QUEST_INTERFACE
; 880  : 		__QuestEnd( nPcId, nNpcId, nGlobal, nQuestId, TRUE );

  0007c	6a 01		 push	 1
  0007e	56		 push	 esi
  0007f	ff 75 10	 push	 DWORD PTR _nGlobal$[ebp]
  00082	53		 push	 ebx
  00083	57		 push	 edi
  00084	e8 00 00 00 00	 call	 ?__QuestEnd@@YAXHHAAHHH@Z ; __QuestEnd
  00089	83 c4 14	 add	 esp, 20			; 00000014H
$LN2@QuestEndCo:

; 881  : #else // __IMPROVE_QUEST_INTERFACE
; 882  : 		__QuestEnd( nPcId, nNpcId, nGlobal );
; 883  : #endif // __IMPROVE_QUEST_INTERFACE
; 884  : 	}	
; 885  : }

  0008c	5f		 pop	 edi
  0008d	5e		 pop	 esi
  0008e	5b		 pop	 ebx
  0008f	8b e5		 mov	 esp, ebp
  00091	5d		 pop	 ebp
  00092	c3		 ret	 0
?__QuestEndComplete@@YAXHHAAHHH@Z ENDP			; __QuestEndComplete
_TEXT	ENDS
; Function compile flags: /Ogtp
; File C:\IAGOS\server\v18\Source\Source\_Common\ScriptHelper.cpp
;	COMDAT ?__QuestBeginNo@@YAXHHH@Z
_TEXT	SEGMENT
_nPcId$ = 8						; size = 4
_nNpcId$ = 12						; size = 4
_nQuestId$ = 16						; size = 4
?__QuestBeginNo@@YAXHHH@Z PROC				; __QuestBeginNo, COMDAT

; 846  : {

  00000	55		 push	 ebp
  00001	8b ec		 mov	 ebp, esp

; 847  : 	__SayQuest( nPcId, nQuestId, QSAY_BEGIN_NO );

  00003	6a 06		 push	 6
  00005	ff 75 10	 push	 DWORD PTR _nQuestId$[ebp]
  00008	ff 75 08	 push	 DWORD PTR _nPcId$[ebp]
  0000b	e8 00 00 00 00	 call	 ?__SayQuest@@YAHHHH@Z	; __SayQuest
  00010	83 c4 0c	 add	 esp, 12			; 0000000cH

; 848  : 	CMover* pMover = prj.GetMover( nNpcId );

  00013	b9 00 00 00 00	 mov	 ecx, OFFSET ?prj@@3VCProject@@A ; prj
  00018	ff 75 0c	 push	 DWORD PTR _nNpcId$[ebp]
  0001b	e8 00 00 00 00	 call	 ?GetMover@CProject@@QAEPAVCMover@@K@Z ; CProject::GetMover

; 849  : 	pMover->m_pNpcProperty->RunDialog( "#questBeginNo", NULL, 0, nNpcId, nPcId, nQuestId );

  00020	ff 75 10	 push	 DWORD PTR _nQuestId$[ebp]
  00023	ff 75 08	 push	 DWORD PTR _nPcId$[ebp]
  00026	8b 88 c4 0d 00
	00		 mov	 ecx, DWORD PTR [eax+3524]
  0002c	ff 75 0c	 push	 DWORD PTR _nNpcId$[ebp]
  0002f	6a 00		 push	 0
  00031	6a 00		 push	 0
  00033	68 00 00 00 00	 push	 OFFSET ??_C@_0O@KFAFMFHI@?$CDquestBeginNo@
  00038	e8 00 00 00 00	 call	 ?RunDialog@CNpcProperty@@QAEHPBDPAHHHHH@Z ; CNpcProperty::RunDialog

; 850  : }

  0003d	5d		 pop	 ebp
  0003e	c3		 ret	 0
?__QuestBeginNo@@YAXHHH@Z ENDP				; __QuestBeginNo
_TEXT	ENDS
; Function compile flags: /Ogtp
; File C:\IAGOS\server\v18\Source\Source\_Common\ScriptHelper.cpp
; File C:\Program Files\Microsoft Visual Studio\2022\Professional\VC\Tools\MSVC\14.44.35207\include\vector
; File C:\IAGOS\server\v18\Source\Source\_Common\ScriptHelper.cpp
; File C:\Program Files\Microsoft Visual Studio\2022\Professional\VC\Tools\MSVC\14.44.35207\include\vector
; File C:\IAGOS\server\v18\Source\Source\_Common\ScriptHelper.cpp
; File C:\Program Files\Microsoft Visual Studio\2022\Professional\VC\Tools\MSVC\14.44.35207\atlmfc\include\afxcoll.inl
; File C:\IAGOS\server\v18\Source\Source\_Common\ScriptHelper.cpp
; File C:\Program Files\Microsoft Visual Studio\2022\Professional\VC\Tools\MSVC\14.44.35207\include\vector
; File C:\IAGOS\server\v18\Source\Source\_Common\ScriptHelper.cpp
; File C:\Program Files\Microsoft Visual Studio\2022\Professional\VC\Tools\MSVC\14.44.35207\include\vector
; File C:\IAGOS\server\v18\Source\Source\_Common\ScriptHelper.cpp
; File C:\Program Files\Microsoft Visual Studio\2022\Professional\VC\Tools\MSVC\14.44.35207\include\vector
; File C:\IAGOS\server\v18\Source\Source\_Common\ScriptHelper.cpp
; File C:\Program Files\Microsoft Visual Studio\2022\Professional\VC\Tools\MSVC\14.44.35207\include\vector
; File C:\IAGOS\server\v18\Source\Source\_Common\ScriptHelper.cpp
; File C:\Program Files\Microsoft Visual Studio\2022\Professional\VC\Tools\MSVC\14.44.35207\include\vector
; File C:\IAGOS\server\v18\Source\Source\_Common\ScriptHelper.cpp
; File C:\Program Files\Microsoft Visual Studio\2022\Professional\VC\Tools\MSVC\14.44.35207\include\vector
; File C:\IAGOS\server\v18\Source\Source\_Common\ScriptHelper.cpp
; File C:\Program Files\Microsoft Visual Studio\2022\Professional\VC\Tools\MSVC\14.44.35207\include\vector
; File C:\IAGOS\server\v18\Source\Source\_Common\ScriptHelper.cpp
; File C:\Program Files\Microsoft Visual Studio\2022\Professional\VC\Tools\MSVC\14.44.35207\include\vector
; File C:\IAGOS\server\v18\Source\Source\_Common\ScriptHelper.cpp
; File C:\Program Files\Microsoft Visual Studio\2022\Professional\VC\Tools\MSVC\14.44.35207\include\vector
; File C:\IAGOS\server\v18\Source\Source\_Common\ScriptHelper.cpp
; File C:\Program Files\Microsoft Visual Studio\2022\Professional\VC\Tools\MSVC\14.44.35207\include\vector
; File C:\IAGOS\server\v18\Source\Source\_Common\ScriptHelper.cpp
; File C:\Program Files\Microsoft Visual Studio\2022\Professional\VC\Tools\MSVC\14.44.35207\include\vector
; File C:\IAGOS\server\v18\Source\Source\_Common\ScriptHelper.cpp
; File C:\Program Files\Microsoft Visual Studio\2022\Professional\VC\Tools\MSVC\14.44.35207\include\vector
; File C:\IAGOS\server\v18\Source\Source\_Common\ScriptHelper.cpp
; File C:\Program Files\Microsoft Visual Studio\2022\Professional\VC\Tools\MSVC\14.44.35207\include\vector
; File C:\IAGOS\server\v18\Source\Source\_Common\ScriptHelper.cpp
; File C:\Program Files\Microsoft Visual Studio\2022\Professional\VC\Tools\MSVC\14.44.35207\include\vector
; File C:\IAGOS\server\v18\Source\Source\_Common\ScriptHelper.cpp
; File C:\Program Files\Microsoft Visual Studio\2022\Professional\VC\Tools\MSVC\14.44.35207\include\vector
; File C:\IAGOS\server\v18\Source\Source\_Common\ScriptHelper.cpp
; File C:\Program Files\Microsoft Visual Studio\2022\Professional\VC\Tools\MSVC\14.44.35207\include\vector
; File C:\IAGOS\server\v18\Source\Source\_Common\ScriptHelper.cpp
; File C:\Program Files\Microsoft Visual Studio\2022\Professional\VC\Tools\MSVC\14.44.35207\include\vector
; File C:\IAGOS\server\v18\Source\Source\_Common\ScriptHelper.cpp
; File C:\Program Files\Microsoft Visual Studio\2022\Professional\VC\Tools\MSVC\14.44.35207\include\vector
; File C:\IAGOS\server\v18\Source\Source\_Common\ScriptHelper.cpp
; File C:\Program Files\Microsoft Visual Studio\2022\Professional\VC\Tools\MSVC\14.44.35207\include\vector
; File C:\IAGOS\server\v18\Source\Source\_Common\ScriptHelper.cpp
; File C:\Program Files\Microsoft Visual Studio\2022\Professional\VC\Tools\MSVC\14.44.35207\include\vector
; File C:\IAGOS\server\v18\Source\Source\_Common\ScriptHelper.cpp
; File C:\Program Files\Microsoft Visual Studio\2022\Professional\VC\Tools\MSVC\14.44.35207\include\vector
; File C:\IAGOS\server\v18\Source\Source\_Common\ScriptHelper.cpp
; File C:\Program Files\Microsoft Visual Studio\2022\Professional\VC\Tools\MSVC\14.44.35207\include\vector
; File C:\IAGOS\server\v18\Source\Source\_Common\ScriptHelper.cpp
; File C:\Program Files\Microsoft Visual Studio\2022\Professional\VC\Tools\MSVC\14.44.35207\include\vector
; File C:\IAGOS\server\v18\Source\Source\_Common\ScriptHelper.cpp
; File C:\Program Files\Microsoft Visual Studio\2022\Professional\VC\Tools\MSVC\14.44.35207\include\vector
; File C:\IAGOS\server\v18\Source\Source\_Common\ScriptHelper.cpp
; File C:\Program Files\Microsoft Visual Studio\2022\Professional\VC\Tools\MSVC\14.44.35207\include\vector
; File C:\IAGOS\server\v18\Source\Source\_Common\ScriptHelper.cpp
; File C:\Program Files\Microsoft Visual Studio\2022\Professional\VC\Tools\MSVC\14.44.35207\atlmfc\include\afxcoll.inl
; File C:\IAGOS\server\v18\Source\Source\_Common\ScriptHelper.cpp
;	COMDAT ?__QuestBeginYes@@YAXHHH@Z
_TEXT	SEGMENT
_vecNewQuest$2 = -72					; size = 12
_vecNextQuest$3 = -60					; size = 12
_vecEndQuest$4 = -48					; size = 12
_vecCurrQuest$5 = -36					; size = 12
_lpChar$1$ = -24					; size = 4
_pMover$1$ = -20					; size = 4
_nQuest$6 = -16						; size = 4
__$EHRec$ = -12						; size = 12
_nPcId$ = 8						; size = 4
_nNpcId$ = 12						; size = 4
_nQuestId$ = 16						; size = 4
?__QuestBeginYes@@YAXHHH@Z PROC				; __QuestBeginYes, COMDAT

; 757  : {

  00000	55		 push	 ebp
  00001	8b ec		 mov	 ebp, esp
  00003	6a ff		 push	 -1
  00005	68 00 00 00 00	 push	 __ehhandler$?__QuestBeginYes@@YAXHHH@Z
  0000a	64 a1 00 00 00
	00		 mov	 eax, DWORD PTR fs:0
  00010	50		 push	 eax
  00011	83 ec 3c	 sub	 esp, 60			; 0000003cH
  00014	53		 push	 ebx
  00015	56		 push	 esi
  00016	57		 push	 edi
  00017	a1 00 00 00 00	 mov	 eax, DWORD PTR ___security_cookie
  0001c	33 c5		 xor	 eax, ebp
  0001e	50		 push	 eax
  0001f	8d 45 f4	 lea	 eax, DWORD PTR __$EHRec$[ebp]
  00022	64 a3 00 00 00
	00		 mov	 DWORD PTR fs:0, eax

; 758  : 	CUser* pUser	= prj.GetUser( nPcId );

  00028	8b 5d 08	 mov	 ebx, DWORD PTR _nPcId$[ebp]
  0002b	b9 00 00 00 00	 mov	 ecx, OFFSET ?prj@@3VCProject@@A ; prj
  00030	53		 push	 ebx
  00031	e8 00 00 00 00	 call	 ?GetUser@CProject@@QAEPAVCUser@@K@Z ; CProject::GetUser

; 759  : 
; 760  : #ifdef __VTN_TIMELIMIT
; 761  : 	//	mulcom	BEGIN100315	şŁĆ®ł˛ ˝Ă°Ł Á¦ÇŃ
; 762  : 	if( ::GetLanguage() == LANG_VTN )
; 763  : 	{
; 764  : 		if( pUser->IsPlayer() == TRUE )
; 765  : 		{
; 766  : 			if( pUser->m_nAccountPlayTime > MIN( 180 ) )
; 767  : 			{
; 768  : 				pUser->AddDefinedText( TID_GAME_ERROR_QUEST_1 );
; 769  : 
; 770  : 				return;
; 771  : 			}
; 772  : 		}
; 773  : 	}
; 774  : 	//	mulcom	END100315	şŁĆ®ł˛ ˝Ă°Ł Á¦ÇŃ
; 775  : #endif // __VTN_TIMELIMIT
; 776  : 
; 777  : 	LPQUEST lpQuest		= pUser->GetQuest( nQuestId );

  00036	ff 75 10	 push	 DWORD PTR _nQuestId$[ebp]
  00039	8b f8		 mov	 edi, eax
  0003b	8b cf		 mov	 ecx, edi
  0003d	e8 00 00 00 00	 call	 ?GetQuest@CMover@@QAEPAUtagQuest@@H@Z ; CMover::GetQuest

; 778  : 	if( __IsBeginQuestCondition( pUser, nQuestId )
; 779  : 		&& lpQuest == NULL
; 780  : 		&& pUser->IsCompleteQuest( nQuestId ) == FALSE )

  00042	ff 75 10	 push	 DWORD PTR _nQuestId$[ebp]
  00045	8b f0		 mov	 esi, eax
  00047	57		 push	 edi
  00048	e8 00 00 00 00	 call	 ?__IsBeginQuestCondition@@YAHPAVCMover@@H@Z ; __IsBeginQuestCondition
  0004d	83 c4 08	 add	 esp, 8
  00050	85 c0		 test	 eax, eax
  00052	0f 84 22 03 00
	00		 je	 $LN17@QuestBegin
  00058	85 f6		 test	 esi, esi
  0005a	0f 85 1a 03 00
	00		 jne	 $LN17@QuestBegin
  00060	8b 75 10	 mov	 esi, DWORD PTR _nQuestId$[ebp]
  00063	8b cf		 mov	 ecx, edi
  00065	56		 push	 esi
  00066	e8 00 00 00 00	 call	 ?IsCompleteQuest@CMover@@QAEHH@Z ; CMover::IsCompleteQuest
  0006b	85 c0		 test	 eax, eax
  0006d	0f 85 07 03 00
	00		 jne	 $LN17@QuestBegin

; 781  : 	{
; 782  : 		__SayQuest( nPcId, nQuestId, QSAY_BEGIN_YES );

  00073	6a 05		 push	 5
  00075	56		 push	 esi
  00076	53		 push	 ebx
  00077	e8 00 00 00 00	 call	 ?__SayQuest@@YAHHHH@Z	; __SayQuest

; 783  : 		__RunQuest( nPcId, nNpcId, nQuestId );

  0007c	56		 push	 esi
  0007d	ff 75 0c	 push	 DWORD PTR _nNpcId$[ebp]
  00080	53		 push	 ebx
  00081	e8 00 00 00 00	 call	 ?__RunQuest@@YAHHHH@Z	; __RunQuest
  00086	83 c4 18	 add	 esp, 24			; 00000018H

; 784  : 		CMover* pMover = prj.GetMover( nNpcId );

  00089	b9 00 00 00 00	 mov	 ecx, OFFSET ?prj@@3VCProject@@A ; prj
  0008e	ff 75 0c	 push	 DWORD PTR _nNpcId$[ebp]
  00091	e8 00 00 00 00	 call	 ?GetMover@CProject@@QAEPAVCMover@@K@Z ; CProject::GetMover

; 785  : #if __VER >= 15 // __IMPROVE_QUEST_INTERFACE
; 786  : 		__RemoveAllKey( nPcId );

  00096	53		 push	 ebx
  00097	89 45 ec	 mov	 DWORD PTR _pMover$1$[ebp], eax
  0009a	e8 00 00 00 00	 call	 ?__RemoveAllKey@@YAHH@Z	; __RemoveAllKey

; 787  : 		pMover->m_pNpcProperty->RunDialog( "#addKey", NULL, 0, nNpcId, nPcId, 0 );

  0009f	8b 4d ec	 mov	 ecx, DWORD PTR _pMover$1$[ebp]
  000a2	83 c4 04	 add	 esp, 4
  000a5	8b 89 c4 0d 00
	00		 mov	 ecx, DWORD PTR [ecx+3524]
  000ab	6a 00		 push	 0
  000ad	53		 push	 ebx
  000ae	ff 75 0c	 push	 DWORD PTR _nNpcId$[ebp]
  000b1	6a 00		 push	 0
  000b3	6a 00		 push	 0
  000b5	68 00 00 00 00	 push	 OFFSET ??_C@_07MDMGIKPL@?$CDaddKey@
  000ba	e8 00 00 00 00	 call	 ?RunDialog@CNpcProperty@@QAEHPBDPAHHHHH@Z ; CNpcProperty::RunDialog
; File C:\Program Files\Microsoft Visual Studio\2022\Professional\VC\Tools\MSVC\14.44.35207\include\vector

; 400  :     _CONSTEXPR20 _Vector_val() noexcept : _Myfirst(), _Mylast(), _Myend() {}

  000bf	c7 45 b8 00 00
	00 00		 mov	 DWORD PTR _vecNewQuest$2[ebp], 0
  000c6	c7 45 bc 00 00
	00 00		 mov	 DWORD PTR _vecNewQuest$2[ebp+4], 0
  000cd	c7 45 c0 00 00
	00 00		 mov	 DWORD PTR _vecNewQuest$2[ebp+8], 0
; File C:\IAGOS\server\v18\Source\Source\_Common\ScriptHelper.cpp

; 790  : 		vector<int> vecNewQuest;

  000d4	c7 45 fc 00 00
	00 00		 mov	 DWORD PTR __$EHRec$[ebp+8], 0
; File C:\Program Files\Microsoft Visual Studio\2022\Professional\VC\Tools\MSVC\14.44.35207\include\vector

; 400  :     _CONSTEXPR20 _Vector_val() noexcept : _Myfirst(), _Mylast(), _Myend() {}

  000db	c7 45 c4 00 00
	00 00		 mov	 DWORD PTR _vecNextQuest$3[ebp], 0
  000e2	c7 45 c8 00 00
	00 00		 mov	 DWORD PTR _vecNextQuest$3[ebp+4], 0
  000e9	c7 45 cc 00 00
	00 00		 mov	 DWORD PTR _vecNextQuest$3[ebp+8], 0
  000f0	c7 45 d0 00 00
	00 00		 mov	 DWORD PTR _vecEndQuest$4[ebp], 0
  000f7	c7 45 d4 00 00
	00 00		 mov	 DWORD PTR _vecEndQuest$4[ebp+4], 0
  000fe	c7 45 d8 00 00
	00 00		 mov	 DWORD PTR _vecEndQuest$4[ebp+8], 0
  00105	c7 45 dc 00 00
	00 00		 mov	 DWORD PTR _vecCurrQuest$5[ebp], 0
  0010c	c7 45 e0 00 00
	00 00		 mov	 DWORD PTR _vecCurrQuest$5[ebp+4], 0
  00113	c7 45 e4 00 00
	00 00		 mov	 DWORD PTR _vecCurrQuest$5[ebp+8], 0
; File C:\IAGOS\server\v18\Source\Source\_Common\ScriptHelper.cpp

; 794  : 		LPCHARACTER lpChar = prj.GetCharacter( pMover->m_szCharacterKey );

  0011a	8b 45 ec	 mov	 eax, DWORD PTR _pMover$1$[ebp]
  0011d	b9 00 00 00 00	 mov	 ecx, OFFSET ?prj@@3VCProject@@A ; prj
  00122	05 44 06 00 00	 add	 eax, 1604		; 00000644H
  00127	c6 45 fc 03	 mov	 BYTE PTR __$EHRec$[ebp+8], 3
  0012b	50		 push	 eax
  0012c	e8 00 00 00 00	 call	 ?GetCharacter@CProject@@QAEPAUtagCHARACTER@@PBD@Z ; CProject::GetCharacter
  00131	89 45 e8	 mov	 DWORD PTR _lpChar$1$[ebp], eax

; 795  : 		if( lpChar )

  00134	85 c0		 test	 eax, eax
  00136	0f 84 02 02 00
	00		 je	 $LN15@QuestBegin

; 797  : 			for( int i = 0; i < lpChar->m_awSrcQuest.GetSize(); i++ )

  0013c	8b 88 4c 06 00
	00		 mov	 ecx, DWORD PTR [eax+1612]
  00142	33 db		 xor	 ebx, ebx
  00144	85 c9		 test	 ecx, ecx
  00146	0f 8e ea 00 00
	00		 jle	 $LN3@QuestBegin
  0014c	0f 1f 40 00	 npad	 4
$LL4@QuestBegin:
; File C:\Program Files\Microsoft Visual Studio\2022\Professional\VC\Tools\MSVC\14.44.35207\atlmfc\include\afxcoll.inl

; 74   : 		if( nIndex < 0 || nIndex >= m_nSize )

  00150	85 db		 test	 ebx, ebx
  00152	0f 88 34 02 00
	00		 js	 $LN130@QuestBegin
  00158	3b d9		 cmp	 ebx, ecx
  0015a	0f 8d 2c 02 00
	00		 jge	 $LN130@QuestBegin
; File C:\IAGOS\server\v18\Source\Source\_Common\ScriptHelper.cpp

; 800  : 				lpQuestList = pUser->GetQuest( nQuest );

  00160	8b 80 48 06 00
	00		 mov	 eax, DWORD PTR [eax+1608]
  00166	8b cf		 mov	 ecx, edi
  00168	0f b7 34 58	 movzx	 esi, WORD PTR [eax+ebx*2]
  0016c	56		 push	 esi
  0016d	89 75 f0	 mov	 DWORD PTR _nQuest$6[ebp], esi
  00170	e8 00 00 00 00	 call	 ?GetQuest@CMover@@QAEPAUtagQuest@@H@Z ; CMover::GetQuest

; 801  : 				
; 802  : 				// new quest
; 803  : 				if( lpQuestList == NULL && pUser->IsCompleteQuest( nQuest ) == FALSE )

  00175	8b cf		 mov	 ecx, edi
  00177	56		 push	 esi
  00178	85 c0		 test	 eax, eax
  0017a	75 5b		 jne	 SHORT $LN146@QuestBegin
  0017c	e8 00 00 00 00	 call	 ?IsCompleteQuest@CMover@@QAEHH@Z ; CMover::IsCompleteQuest
  00181	85 c0		 test	 eax, eax
  00183	0f 85 9b 00 00
	00		 jne	 $LN2@QuestBegin

; 804  : 				{
; 805  : 					// now
; 806  : 					if( __IsBeginQuestCondition( pUser, nQuest ) )

  00189	56		 push	 esi
  0018a	57		 push	 edi
  0018b	e8 00 00 00 00	 call	 ?__IsBeginQuestCondition@@YAHPAVCMover@@H@Z ; __IsBeginQuestCondition
  00190	83 c4 08	 add	 esp, 8
  00193	85 c0		 test	 eax, eax
  00195	74 19		 je	 SHORT $LN21@QuestBegin
; File C:\Program Files\Microsoft Visual Studio\2022\Professional\VC\Tools\MSVC\14.44.35207\include\vector

; 844  :         if (_Mylast != _My_data._Myend) {

  00197	8b 45 bc	 mov	 eax, DWORD PTR _vecNewQuest$2[ebp+4]
  0019a	3b 45 c0	 cmp	 eax, DWORD PTR _vecNewQuest$2[ebp+8]
  0019d	74 08		 je	 SHORT $LN100@QuestBegin

; 860  :             _STD _Construct_in_place(*_Mylast, _STD forward<_Valty>(_Val)...);

  0019f	89 30		 mov	 DWORD PTR [eax], esi

; 861  :         } else {
; 862  :             _ASAN_VECTOR_EXTEND_GUARD(static_cast<size_type>(_Mylast - _My_data._Myfirst) + 1);
; 863  :             _Alty_traits::construct(_Getal(), _Unfancy(_Mylast), _STD forward<_Valty>(_Val)...);
; 864  :             _ASAN_VECTOR_RELEASE_GUARD;
; 865  :         }
; 866  : 
; 867  :         _Orphan_range(_Mylast, _Mylast);
; 868  :         _Ty& _Result = *_Mylast;
; 869  :         ++_Mylast;

  001a1	83 45 bc 04	 add	 DWORD PTR _vecNewQuest$2[ebp+4], 4

; 845  :             return _Emplace_back_with_unused_capacity(_STD forward<_Valty>(_Val)...);

  001a5	eb 7d		 jmp	 SHORT $LN2@QuestBegin
$LN100@QuestBegin:

; 846  :         }
; 847  : 
; 848  :         return *_Emplace_reallocate(_Mylast, _STD forward<_Valty>(_Val)...);

  001a7	8d 4d f0	 lea	 ecx, DWORD PTR _nQuest$6[ebp]
  001aa	51		 push	 ecx
  001ab	8d 4d b8	 lea	 ecx, DWORD PTR _vecNewQuest$2[ebp]
; File C:\IAGOS\server\v18\Source\Source\_Common\ScriptHelper.cpp

; 807  : 						vecNewQuest.push_back( nQuest );

  001ae	eb 6e		 jmp	 SHORT $LN151@QuestBegin
$LN21@QuestBegin:

; 808  : 					// next
; 809  : 					else if( __IsNextLevelQuest( pUser, nQuest ) )

  001b0	56		 push	 esi
  001b1	57		 push	 edi
  001b2	e8 00 00 00 00	 call	 ?__IsNextLevelQuest@@YAHPAVCMover@@H@Z ; __IsNextLevelQuest
  001b7	83 c4 08	 add	 esp, 8
  001ba	85 c0		 test	 eax, eax
  001bc	74 66		 je	 SHORT $LN2@QuestBegin
; File C:\Program Files\Microsoft Visual Studio\2022\Professional\VC\Tools\MSVC\14.44.35207\include\vector

; 844  :         if (_Mylast != _My_data._Myend) {

  001be	8b 45 c8	 mov	 eax, DWORD PTR _vecNextQuest$3[ebp+4]
  001c1	3b 45 cc	 cmp	 eax, DWORD PTR _vecNextQuest$3[ebp+8]
  001c4	74 08		 je	 SHORT $LN121@QuestBegin

; 860  :             _STD _Construct_in_place(*_Mylast, _STD forward<_Valty>(_Val)...);

  001c6	89 30		 mov	 DWORD PTR [eax], esi

; 861  :         } else {
; 862  :             _ASAN_VECTOR_EXTEND_GUARD(static_cast<size_type>(_Mylast - _My_data._Myfirst) + 1);
; 863  :             _Alty_traits::construct(_Getal(), _Unfancy(_Mylast), _STD forward<_Valty>(_Val)...);
; 864  :             _ASAN_VECTOR_RELEASE_GUARD;
; 865  :         }
; 866  : 
; 867  :         _Orphan_range(_Mylast, _Mylast);
; 868  :         _Ty& _Result = *_Mylast;
; 869  :         ++_Mylast;

  001c8	83 45 c8 04	 add	 DWORD PTR _vecNextQuest$3[ebp+4], 4

; 845  :             return _Emplace_back_with_unused_capacity(_STD forward<_Valty>(_Val)...);

  001cc	eb 56		 jmp	 SHORT $LN2@QuestBegin
$LN121@QuestBegin:

; 846  :         }
; 847  : 
; 848  :         return *_Emplace_reallocate(_Mylast, _STD forward<_Valty>(_Val)...);

  001ce	8d 4d f0	 lea	 ecx, DWORD PTR _nQuest$6[ebp]
  001d1	51		 push	 ecx
  001d2	8d 4d c4	 lea	 ecx, DWORD PTR _vecNextQuest$3[ebp]
; File C:\IAGOS\server\v18\Source\Source\_Common\ScriptHelper.cpp

; 811  : 				}

  001d5	eb 47		 jmp	 SHORT $LN151@QuestBegin
$LN146@QuestBegin:

; 812  : 				// current quest
; 813  : 				else if( lpQuestList && pUser->IsCompleteQuest( nQuest ) == FALSE )

  001d7	e8 00 00 00 00	 call	 ?IsCompleteQuest@CMover@@QAEHH@Z ; CMover::IsCompleteQuest
  001dc	85 c0		 test	 eax, eax
  001de	75 44		 jne	 SHORT $LN2@QuestBegin

; 814  : 				{
; 815  : 					// complete
; 816  : 					if( __IsEndQuestCondition( pUser, nQuest ) )

  001e0	56		 push	 esi
  001e1	57		 push	 edi
  001e2	e8 00 00 00 00	 call	 ?__IsEndQuestCondition@@YAHPAVCMover@@H@Z ; __IsEndQuestCondition
  001e7	83 c4 08	 add	 esp, 8
  001ea	85 c0		 test	 eax, eax
  001ec	74 19		 je	 SHORT $LN25@QuestBegin
; File C:\Program Files\Microsoft Visual Studio\2022\Professional\VC\Tools\MSVC\14.44.35207\include\vector

; 844  :         if (_Mylast != _My_data._Myend) {

  001ee	8b 45 d4	 mov	 eax, DWORD PTR _vecEndQuest$4[ebp+4]
  001f1	3b 45 d8	 cmp	 eax, DWORD PTR _vecEndQuest$4[ebp+8]
  001f4	74 08		 je	 SHORT $LN107@QuestBegin

; 860  :             _STD _Construct_in_place(*_Mylast, _STD forward<_Valty>(_Val)...);

  001f6	89 30		 mov	 DWORD PTR [eax], esi

; 861  :         } else {
; 862  :             _ASAN_VECTOR_EXTEND_GUARD(static_cast<size_type>(_Mylast - _My_data._Myfirst) + 1);
; 863  :             _Alty_traits::construct(_Getal(), _Unfancy(_Mylast), _STD forward<_Valty>(_Val)...);
; 864  :             _ASAN_VECTOR_RELEASE_GUARD;
; 865  :         }
; 866  : 
; 867  :         _Orphan_range(_Mylast, _Mylast);
; 868  :         _Ty& _Result = *_Mylast;
; 869  :         ++_Mylast;

  001f8	83 45 d4 04	 add	 DWORD PTR _vecEndQuest$4[ebp+4], 4

; 845  :             return _Emplace_back_with_unused_capacity(_STD forward<_Valty>(_Val)...);

  001fc	eb 26		 jmp	 SHORT $LN2@QuestBegin
$LN107@QuestBegin:

; 846  :         }
; 847  : 
; 848  :         return *_Emplace_reallocate(_Mylast, _STD forward<_Valty>(_Val)...);

  001fe	8d 4d f0	 lea	 ecx, DWORD PTR _nQuest$6[ebp]
  00201	51		 push	 ecx
  00202	8d 4d d0	 lea	 ecx, DWORD PTR _vecEndQuest$4[ebp]
; File C:\IAGOS\server\v18\Source\Source\_Common\ScriptHelper.cpp

; 817  : 						vecEndQuest.push_back( nQuest );

  00205	eb 17		 jmp	 SHORT $LN151@QuestBegin
$LN25@QuestBegin:
; File C:\Program Files\Microsoft Visual Studio\2022\Professional\VC\Tools\MSVC\14.44.35207\include\vector

; 844  :         if (_Mylast != _My_data._Myend) {

  00207	8b 45 e0	 mov	 eax, DWORD PTR _vecCurrQuest$5[ebp+4]
  0020a	3b 45 e4	 cmp	 eax, DWORD PTR _vecCurrQuest$5[ebp+8]
  0020d	74 08		 je	 SHORT $LN114@QuestBegin

; 860  :             _STD _Construct_in_place(*_Mylast, _STD forward<_Valty>(_Val)...);

  0020f	89 30		 mov	 DWORD PTR [eax], esi

; 861  :         } else {
; 862  :             _ASAN_VECTOR_EXTEND_GUARD(static_cast<size_type>(_Mylast - _My_data._Myfirst) + 1);
; 863  :             _Alty_traits::construct(_Getal(), _Unfancy(_Mylast), _STD forward<_Valty>(_Val)...);
; 864  :             _ASAN_VECTOR_RELEASE_GUARD;
; 865  :         }
; 866  : 
; 867  :         _Orphan_range(_Mylast, _Mylast);
; 868  :         _Ty& _Result = *_Mylast;
; 869  :         ++_Mylast;

  00211	83 45 e0 04	 add	 DWORD PTR _vecCurrQuest$5[ebp+4], 4

; 845  :             return _Emplace_back_with_unused_capacity(_STD forward<_Valty>(_Val)...);

  00215	eb 0d		 jmp	 SHORT $LN2@QuestBegin
$LN114@QuestBegin:

; 846  :         }
; 847  : 
; 848  :         return *_Emplace_reallocate(_Mylast, _STD forward<_Valty>(_Val)...);

  00217	8d 4d f0	 lea	 ecx, DWORD PTR _nQuest$6[ebp]
  0021a	51		 push	 ecx
  0021b	8d 4d dc	 lea	 ecx, DWORD PTR _vecCurrQuest$5[ebp]
$LN151@QuestBegin:
; File C:\IAGOS\server\v18\Source\Source\_Common\ScriptHelper.cpp

; 797  : 			for( int i = 0; i < lpChar->m_awSrcQuest.GetSize(); i++ )

  0021e	50		 push	 eax
  0021f	e8 00 00 00 00	 call	 ??$_Emplace_reallocate@ABH@?$vector@HV?$allocator@H@std@@@std@@AAEPAHQAHABH@Z ; std::vector<int,std::allocator<int> >::_Emplace_reallocate<int const &>
$LN2@QuestBegin:
  00224	8b 45 e8	 mov	 eax, DWORD PTR _lpChar$1$[ebp]
  00227	43		 inc	 ebx
  00228	8b 88 4c 06 00
	00		 mov	 ecx, DWORD PTR [eax+1612]
  0022e	3b d9		 cmp	 ebx, ecx
  00230	0f 8c 1a ff ff
	ff		 jl	 $LL4@QuestBegin
$LN3@QuestBegin:

; 818  : 					// running
; 819  : 					else
; 820  : 						vecCurrQuest.push_back( nQuest );
; 821  : 				}
; 822  : 			}
; 823  : 			
; 824  : 			// sort
; 825  : 			__QuestSort( vecNewQuest );

  00236	8d 45 b8	 lea	 eax, DWORD PTR _vecNewQuest$2[ebp]
  00239	50		 push	 eax
  0023a	e8 00 00 00 00	 call	 ?__QuestSort@@YAXAAV?$vector@HV?$allocator@H@std@@@std@@@Z ; __QuestSort

; 826  : 			__QuestSort( vecNextQuest );

  0023f	8d 45 c4	 lea	 eax, DWORD PTR _vecNextQuest$3[ebp]
  00242	50		 push	 eax
  00243	e8 00 00 00 00	 call	 ?__QuestSort@@YAXAAV?$vector@HV?$allocator@H@std@@@std@@@Z ; __QuestSort

; 827  : 			__QuestSort( vecEndQuest );

  00248	8d 45 d0	 lea	 eax, DWORD PTR _vecEndQuest$4[ebp]
  0024b	50		 push	 eax
  0024c	e8 00 00 00 00	 call	 ?__QuestSort@@YAXAAV?$vector@HV?$allocator@H@std@@@std@@@Z ; __QuestSort

; 828  : 			__QuestSort( vecCurrQuest );

  00251	8d 45 dc	 lea	 eax, DWORD PTR _vecCurrQuest$5[ebp]
  00254	50		 push	 eax
  00255	e8 00 00 00 00	 call	 ?__QuestSort@@YAXAAV?$vector@HV?$allocator@H@std@@@std@@@Z ; __QuestSort
; File C:\Program Files\Microsoft Visual Studio\2022\Professional\VC\Tools\MSVC\14.44.35207\include\vector

; 1915 :         return static_cast<size_type>(_My_data._Mylast - _My_data._Myfirst);

  0025a	8b 45 bc	 mov	 eax, DWORD PTR _vecNewQuest$2[ebp+4]
; File C:\IAGOS\server\v18\Source\Source\_Common\ScriptHelper.cpp

; 828  : 			__QuestSort( vecCurrQuest );

  0025d	83 c4 10	 add	 esp, 16			; 00000010H
; File C:\Program Files\Microsoft Visual Studio\2022\Professional\VC\Tools\MSVC\14.44.35207\include\vector

; 1915 :         return static_cast<size_type>(_My_data._Mylast - _My_data._Myfirst);

  00260	8b 4d b8	 mov	 ecx, DWORD PTR _vecNewQuest$2[ebp]
; File C:\IAGOS\server\v18\Source\Source\_Common\ScriptHelper.cpp

; 831  : 			for( DWORD i = 0; i < vecNewQuest.size(); ++i )

  00263	33 f6		 xor	 esi, esi
  00265	8b 5d 08	 mov	 ebx, DWORD PTR _nPcId$[ebp]
; File C:\Program Files\Microsoft Visual Studio\2022\Professional\VC\Tools\MSVC\14.44.35207\include\vector

; 1915 :         return static_cast<size_type>(_My_data._Mylast - _My_data._Myfirst);

  00268	2b c1		 sub	 eax, ecx
  0026a	c1 f8 02	 sar	 eax, 2
; File C:\IAGOS\server\v18\Source\Source\_Common\ScriptHelper.cpp

; 831  : 			for( DWORD i = 0; i < vecNewQuest.size(); ++i )

  0026d	85 c0		 test	 eax, eax
  0026f	74 25		 je	 SHORT $LN6@QuestBegin
$LL7@QuestBegin:

; 832  : 				__AddQuestKey( nPcId, vecNewQuest[ i ], "QUEST_BEGIN", 0, TRUE );

  00271	6a 01		 push	 1
  00273	6a 00		 push	 0
  00275	68 00 00 00 00	 push	 OFFSET ??_C@_0M@NIFBEDLO@QUEST_BEGIN@
  0027a	ff 34 b1	 push	 DWORD PTR [ecx+esi*4]
  0027d	53		 push	 ebx
  0027e	e8 00 00 00 00	 call	 ?__AddQuestKey@@YAHHHPBDHH@Z ; __AddQuestKey
; File C:\Program Files\Microsoft Visual Studio\2022\Professional\VC\Tools\MSVC\14.44.35207\include\vector

; 1915 :         return static_cast<size_type>(_My_data._Mylast - _My_data._Myfirst);

  00283	8b 45 bc	 mov	 eax, DWORD PTR _vecNewQuest$2[ebp+4]
; File C:\IAGOS\server\v18\Source\Source\_Common\ScriptHelper.cpp

; 831  : 			for( DWORD i = 0; i < vecNewQuest.size(); ++i )

  00286	46		 inc	 esi
; File C:\Program Files\Microsoft Visual Studio\2022\Professional\VC\Tools\MSVC\14.44.35207\include\vector

; 1915 :         return static_cast<size_type>(_My_data._Mylast - _My_data._Myfirst);

  00287	8b 4d b8	 mov	 ecx, DWORD PTR _vecNewQuest$2[ebp]
; File C:\IAGOS\server\v18\Source\Source\_Common\ScriptHelper.cpp

; 832  : 				__AddQuestKey( nPcId, vecNewQuest[ i ], "QUEST_BEGIN", 0, TRUE );

  0028a	83 c4 14	 add	 esp, 20			; 00000014H
; File C:\Program Files\Microsoft Visual Studio\2022\Professional\VC\Tools\MSVC\14.44.35207\include\vector

; 1915 :         return static_cast<size_type>(_My_data._Mylast - _My_data._Myfirst);

  0028d	2b c1		 sub	 eax, ecx
  0028f	c1 f8 02	 sar	 eax, 2
; File C:\IAGOS\server\v18\Source\Source\_Common\ScriptHelper.cpp

; 831  : 			for( DWORD i = 0; i < vecNewQuest.size(); ++i )

  00292	3b f0		 cmp	 esi, eax
  00294	72 db		 jb	 SHORT $LL7@QuestBegin
$LN6@QuestBegin:
; File C:\Program Files\Microsoft Visual Studio\2022\Professional\VC\Tools\MSVC\14.44.35207\include\vector

; 1915 :         return static_cast<size_type>(_My_data._Mylast - _My_data._Myfirst);

  00296	8b 45 c8	 mov	 eax, DWORD PTR _vecNextQuest$3[ebp+4]
; File C:\IAGOS\server\v18\Source\Source\_Common\ScriptHelper.cpp

; 833  : 			for( DWORD i = 0; i < vecNextQuest.size(); ++i )

  00299	33 f6		 xor	 esi, esi
; File C:\Program Files\Microsoft Visual Studio\2022\Professional\VC\Tools\MSVC\14.44.35207\include\vector

; 1915 :         return static_cast<size_type>(_My_data._Mylast - _My_data._Myfirst);

  0029b	8b 4d c4	 mov	 ecx, DWORD PTR _vecNextQuest$3[ebp]
  0029e	2b c1		 sub	 eax, ecx
  002a0	c1 f8 02	 sar	 eax, 2
; File C:\IAGOS\server\v18\Source\Source\_Common\ScriptHelper.cpp

; 833  : 			for( DWORD i = 0; i < vecNextQuest.size(); ++i )

  002a3	85 c0		 test	 eax, eax
  002a5	74 25		 je	 SHORT $LN9@QuestBegin
$LL10@QuestBegin:

; 834  : 				__AddQuestKey( nPcId, vecNextQuest[ i ], "QUEST_NEXT_LEVEL", 0, TRUE );

  002a7	6a 01		 push	 1
  002a9	6a 00		 push	 0
  002ab	68 00 00 00 00	 push	 OFFSET ??_C@_0BB@HBMPOEKD@QUEST_NEXT_LEVEL@
  002b0	ff 34 b1	 push	 DWORD PTR [ecx+esi*4]
  002b3	53		 push	 ebx
  002b4	e8 00 00 00 00	 call	 ?__AddQuestKey@@YAHHHPBDHH@Z ; __AddQuestKey
; File C:\Program Files\Microsoft Visual Studio\2022\Professional\VC\Tools\MSVC\14.44.35207\include\vector

; 1915 :         return static_cast<size_type>(_My_data._Mylast - _My_data._Myfirst);

  002b9	8b 45 c8	 mov	 eax, DWORD PTR _vecNextQuest$3[ebp+4]
; File C:\IAGOS\server\v18\Source\Source\_Common\ScriptHelper.cpp

; 833  : 			for( DWORD i = 0; i < vecNextQuest.size(); ++i )

  002bc	46		 inc	 esi
; File C:\Program Files\Microsoft Visual Studio\2022\Professional\VC\Tools\MSVC\14.44.35207\include\vector

; 1915 :         return static_cast<size_type>(_My_data._Mylast - _My_data._Myfirst);

  002bd	8b 4d c4	 mov	 ecx, DWORD PTR _vecNextQuest$3[ebp]
; File C:\IAGOS\server\v18\Source\Source\_Common\ScriptHelper.cpp

; 834  : 				__AddQuestKey( nPcId, vecNextQuest[ i ], "QUEST_NEXT_LEVEL", 0, TRUE );

  002c0	83 c4 14	 add	 esp, 20			; 00000014H
; File C:\Program Files\Microsoft Visual Studio\2022\Professional\VC\Tools\MSVC\14.44.35207\include\vector

; 1915 :         return static_cast<size_type>(_My_data._Mylast - _My_data._Myfirst);

  002c3	2b c1		 sub	 eax, ecx
  002c5	c1 f8 02	 sar	 eax, 2
; File C:\IAGOS\server\v18\Source\Source\_Common\ScriptHelper.cpp

; 833  : 			for( DWORD i = 0; i < vecNextQuest.size(); ++i )

  002c8	3b f0		 cmp	 esi, eax
  002ca	72 db		 jb	 SHORT $LL10@QuestBegin
$LN9@QuestBegin:
; File C:\Program Files\Microsoft Visual Studio\2022\Professional\VC\Tools\MSVC\14.44.35207\include\vector

; 1915 :         return static_cast<size_type>(_My_data._Mylast - _My_data._Myfirst);

  002cc	8b 45 d4	 mov	 eax, DWORD PTR _vecEndQuest$4[ebp+4]
; File C:\IAGOS\server\v18\Source\Source\_Common\ScriptHelper.cpp

; 835  : 			for( DWORD i = 0; i < vecEndQuest.size(); ++i )

  002cf	33 f6		 xor	 esi, esi
; File C:\Program Files\Microsoft Visual Studio\2022\Professional\VC\Tools\MSVC\14.44.35207\include\vector

; 1915 :         return static_cast<size_type>(_My_data._Mylast - _My_data._Myfirst);

  002d1	8b 4d d0	 mov	 ecx, DWORD PTR _vecEndQuest$4[ebp]
  002d4	2b c1		 sub	 eax, ecx
  002d6	c1 f8 02	 sar	 eax, 2
; File C:\IAGOS\server\v18\Source\Source\_Common\ScriptHelper.cpp

; 835  : 			for( DWORD i = 0; i < vecEndQuest.size(); ++i )

  002d9	85 c0		 test	 eax, eax
  002db	74 28		 je	 SHORT $LN12@QuestBegin
  002dd	0f 1f 00	 npad	 3
$LL13@QuestBegin:

; 836  : 				__AddQuestKey( nPcId, vecEndQuest[ i ], "QUEST_END", 0, FALSE );

  002e0	6a 00		 push	 0
  002e2	6a 00		 push	 0
  002e4	68 00 00 00 00	 push	 OFFSET ??_C@_09GOKBNBFK@QUEST_END@
  002e9	ff 34 b1	 push	 DWORD PTR [ecx+esi*4]
  002ec	53		 push	 ebx
  002ed	e8 00 00 00 00	 call	 ?__AddQuestKey@@YAHHHPBDHH@Z ; __AddQuestKey
; File C:\Program Files\Microsoft Visual Studio\2022\Professional\VC\Tools\MSVC\14.44.35207\include\vector

; 1915 :         return static_cast<size_type>(_My_data._Mylast - _My_data._Myfirst);

  002f2	8b 45 d4	 mov	 eax, DWORD PTR _vecEndQuest$4[ebp+4]
; File C:\IAGOS\server\v18\Source\Source\_Common\ScriptHelper.cpp

; 835  : 			for( DWORD i = 0; i < vecEndQuest.size(); ++i )

  002f5	46		 inc	 esi
; File C:\Program Files\Microsoft Visual Studio\2022\Professional\VC\Tools\MSVC\14.44.35207\include\vector

; 1915 :         return static_cast<size_type>(_My_data._Mylast - _My_data._Myfirst);

  002f6	8b 4d d0	 mov	 ecx, DWORD PTR _vecEndQuest$4[ebp]
; File C:\IAGOS\server\v18\Source\Source\_Common\ScriptHelper.cpp

; 836  : 				__AddQuestKey( nPcId, vecEndQuest[ i ], "QUEST_END", 0, FALSE );

  002f9	83 c4 14	 add	 esp, 20			; 00000014H
; File C:\Program Files\Microsoft Visual Studio\2022\Professional\VC\Tools\MSVC\14.44.35207\include\vector

; 1915 :         return static_cast<size_type>(_My_data._Mylast - _My_data._Myfirst);

  002fc	2b c1		 sub	 eax, ecx
  002fe	c1 f8 02	 sar	 eax, 2
; File C:\IAGOS\server\v18\Source\Source\_Common\ScriptHelper.cpp

; 835  : 			for( DWORD i = 0; i < vecEndQuest.size(); ++i )

  00301	3b f0		 cmp	 esi, eax
  00303	72 db		 jb	 SHORT $LL13@QuestBegin
$LN12@QuestBegin:
; File C:\Program Files\Microsoft Visual Studio\2022\Professional\VC\Tools\MSVC\14.44.35207\include\vector

; 1915 :         return static_cast<size_type>(_My_data._Mylast - _My_data._Myfirst);

  00305	8b 45 e0	 mov	 eax, DWORD PTR _vecCurrQuest$5[ebp+4]
; File C:\IAGOS\server\v18\Source\Source\_Common\ScriptHelper.cpp

; 837  : 			for( DWORD i = 0; i < vecCurrQuest.size(); ++i )

  00308	33 f6		 xor	 esi, esi
; File C:\Program Files\Microsoft Visual Studio\2022\Professional\VC\Tools\MSVC\14.44.35207\include\vector

; 1915 :         return static_cast<size_type>(_My_data._Mylast - _My_data._Myfirst);

  0030a	8b 4d dc	 mov	 ecx, DWORD PTR _vecCurrQuest$5[ebp]
  0030d	2b c1		 sub	 eax, ecx
  0030f	c1 f8 02	 sar	 eax, 2
; File C:\IAGOS\server\v18\Source\Source\_Common\ScriptHelper.cpp

; 837  : 			for( DWORD i = 0; i < vecCurrQuest.size(); ++i )

  00312	85 c0		 test	 eax, eax
  00314	74 25		 je	 SHORT $LN148@QuestBegin
$LL16@QuestBegin:

; 838  : 				__AddQuestKey( nPcId, vecCurrQuest[ i ], "QUEST_END", 0, FALSE );

  00316	6a 00		 push	 0
  00318	6a 00		 push	 0
  0031a	68 00 00 00 00	 push	 OFFSET ??_C@_09GOKBNBFK@QUEST_END@
  0031f	ff 34 b1	 push	 DWORD PTR [ecx+esi*4]
  00322	53		 push	 ebx
  00323	e8 00 00 00 00	 call	 ?__AddQuestKey@@YAHHHPBDHH@Z ; __AddQuestKey
; File C:\Program Files\Microsoft Visual Studio\2022\Professional\VC\Tools\MSVC\14.44.35207\include\vector

; 1915 :         return static_cast<size_type>(_My_data._Mylast - _My_data._Myfirst);

  00328	8b 45 e0	 mov	 eax, DWORD PTR _vecCurrQuest$5[ebp+4]
; File C:\IAGOS\server\v18\Source\Source\_Common\ScriptHelper.cpp

; 837  : 			for( DWORD i = 0; i < vecCurrQuest.size(); ++i )

  0032b	46		 inc	 esi
; File C:\Program Files\Microsoft Visual Studio\2022\Professional\VC\Tools\MSVC\14.44.35207\include\vector

; 1915 :         return static_cast<size_type>(_My_data._Mylast - _My_data._Myfirst);

  0032c	8b 4d dc	 mov	 ecx, DWORD PTR _vecCurrQuest$5[ebp]
; File C:\IAGOS\server\v18\Source\Source\_Common\ScriptHelper.cpp

; 838  : 				__AddQuestKey( nPcId, vecCurrQuest[ i ], "QUEST_END", 0, FALSE );

  0032f	83 c4 14	 add	 esp, 20			; 00000014H
; File C:\Program Files\Microsoft Visual Studio\2022\Professional\VC\Tools\MSVC\14.44.35207\include\vector

; 1915 :         return static_cast<size_type>(_My_data._Mylast - _My_data._Myfirst);

  00332	2b c1		 sub	 eax, ecx
  00334	c1 f8 02	 sar	 eax, 2
; File C:\IAGOS\server\v18\Source\Source\_Common\ScriptHelper.cpp

; 837  : 			for( DWORD i = 0; i < vecCurrQuest.size(); ++i )

  00337	3b f0		 cmp	 esi, eax
  00339	72 db		 jb	 SHORT $LL16@QuestBegin
$LN148@QuestBegin:

; 839  : 		}
; 840  : #endif // __IMPROVE_QUEST_INTERFACE
; 841  : 		pMover->m_pNpcProperty->RunDialog( "#questBeginYes", NULL, 0, nNpcId, nPcId, nQuestId );

  0033b	8b 75 10	 mov	 esi, DWORD PTR _nQuestId$[ebp]
$LN15@QuestBegin:
  0033e	8b 45 ec	 mov	 eax, DWORD PTR _pMover$1$[ebp]
  00341	56		 push	 esi
  00342	53		 push	 ebx
  00343	ff 75 0c	 push	 DWORD PTR _nNpcId$[ebp]
  00346	8b 88 c4 0d 00
	00		 mov	 ecx, DWORD PTR [eax+3524]
  0034c	6a 00		 push	 0
  0034e	6a 00		 push	 0
  00350	68 00 00 00 00	 push	 OFFSET ??_C@_0P@JKDADMAO@?$CDquestBeginYes@
  00355	e8 00 00 00 00	 call	 ?RunDialog@CNpcProperty@@QAEHPBDPAHHHHH@Z ; CNpcProperty::RunDialog

; 842  : 	}

  0035a	8d 4d dc	 lea	 ecx, DWORD PTR _vecCurrQuest$5[ebp]
  0035d	e8 00 00 00 00	 call	 ??1?$vector@HV?$allocator@H@std@@@std@@QAE@XZ ; std::vector<int,std::allocator<int> >::~vector<int,std::allocator<int> >
  00362	8d 4d d0	 lea	 ecx, DWORD PTR _vecEndQuest$4[ebp]
  00365	e8 00 00 00 00	 call	 ??1?$vector@HV?$allocator@H@std@@@std@@QAE@XZ ; std::vector<int,std::allocator<int> >::~vector<int,std::allocator<int> >
  0036a	8d 4d c4	 lea	 ecx, DWORD PTR _vecNextQuest$3[ebp]
  0036d	e8 00 00 00 00	 call	 ??1?$vector@HV?$allocator@H@std@@@std@@QAE@XZ ; std::vector<int,std::allocator<int> >::~vector<int,std::allocator<int> >
  00372	8d 4d b8	 lea	 ecx, DWORD PTR _vecNewQuest$2[ebp]
  00375	e8 00 00 00 00	 call	 ??1?$vector@HV?$allocator@H@std@@@std@@QAE@XZ ; std::vector<int,std::allocator<int> >::~vector<int,std::allocator<int> >
$LN17@QuestBegin:

; 844  : }

  0037a	8b 4d f4	 mov	 ecx, DWORD PTR __$EHRec$[ebp]
  0037d	64 89 0d 00 00
	00 00		 mov	 DWORD PTR fs:0, ecx
  00384	59		 pop	 ecx
  00385	5f		 pop	 edi
  00386	5e		 pop	 esi
  00387	5b		 pop	 ebx
  00388	8b e5		 mov	 esp, ebp
  0038a	5d		 pop	 ebp
  0038b	c3		 ret	 0
$LN130@QuestBegin:
; File C:\Program Files\Microsoft Visual Studio\2022\Professional\VC\Tools\MSVC\14.44.35207\atlmfc\include\afxcoll.inl

; 75   : 			AfxThrowInvalidArgException();

  0038c	e8 00 00 00 00	 call	 ?AfxThrowInvalidArgException@@YGXXZ ; AfxThrowInvalidArgException
$LN150@QuestBegin:
  00391	cc		 int	 3
_TEXT	ENDS
;	COMDAT text$x
text$x	SEGMENT
__unwindfunclet$?__QuestBeginYes@@YAXHHH@Z$0:
  00000	8d 4d b8	 lea	 ecx, DWORD PTR _vecNewQuest$2[ebp]
  00003	e9 00 00 00 00	 jmp	 ??1?$vector@HV?$allocator@H@std@@@std@@QAE@XZ ; std::vector<int,std::allocator<int> >::~vector<int,std::allocator<int> >
__unwindfunclet$?__QuestBeginYes@@YAXHHH@Z$1:
  00008	8d 4d c4	 lea	 ecx, DWORD PTR _vecNextQuest$3[ebp]
  0000b	e9 00 00 00 00	 jmp	 ??1?$vector@HV?$allocator@H@std@@@std@@QAE@XZ ; std::vector<int,std::allocator<int> >::~vector<int,std::allocator<int> >
__unwindfunclet$?__QuestBeginYes@@YAXHHH@Z$2:
  00010	8d 4d d0	 lea	 ecx, DWORD PTR _vecEndQuest$4[ebp]
  00013	e9 00 00 00 00	 jmp	 ??1?$vector@HV?$allocator@H@std@@@std@@QAE@XZ ; std::vector<int,std::allocator<int> >::~vector<int,std::allocator<int> >
__unwindfunclet$?__QuestBeginYes@@YAXHHH@Z$3:
  00018	8d 4d dc	 lea	 ecx, DWORD PTR _vecCurrQuest$5[ebp]
  0001b	e9 00 00 00 00	 jmp	 ??1?$vector@HV?$allocator@H@std@@@std@@QAE@XZ ; std::vector<int,std::allocator<int> >::~vector<int,std::allocator<int> >
  00020	cc		 int	 3
  00021	cc		 int	 3
  00022	cc		 int	 3
  00023	cc		 int	 3
  00024	cc		 int	 3
__ehhandler$?__QuestBeginYes@@YAXHHH@Z:
  00025	90		 npad	 1
  00026	90		 npad	 1
  00027	8b 54 24 08	 mov	 edx, DWORD PTR [esp+8]
  0002b	8d 42 0c	 lea	 eax, DWORD PTR [edx+12]
  0002e	8b 4a b4	 mov	 ecx, DWORD PTR [edx-76]
  00031	33 c8		 xor	 ecx, eax
  00033	e8 00 00 00 00	 call	 @__security_check_cookie@4
  00038	b8 00 00 00 00	 mov	 eax, OFFSET __ehfuncinfo$?__QuestBeginYes@@YAXHHH@Z
  0003d	e9 00 00 00 00	 jmp	 ___CxxFrameHandler3
text$x	ENDS
?__QuestBeginYes@@YAXHHH@Z ENDP				; __QuestBeginYes
; Function compile flags: /Ogtp
; File C:\IAGOS\server\v18\Source\Source\_Common\ScriptHelper.cpp
; File C:\Program Files\Microsoft Visual Studio\2022\Professional\VC\Tools\MSVC\14.44.35207\include\vector
; File C:\IAGOS\server\v18\Source\Source\_Common\ScriptHelper.cpp
; File C:\Program Files\Microsoft Visual Studio\2022\Professional\VC\Tools\MSVC\14.44.35207\include\vector
; File C:\IAGOS\server\v18\Source\Source\_Common\ScriptHelper.cpp
; File C:\Program Files\Microsoft Visual Studio\2022\Professional\VC\Tools\MSVC\14.44.35207\atlmfc\include\afxcoll.inl
; File C:\IAGOS\server\v18\Source\Source\_Common\ScriptHelper.cpp
; File C:\Program Files\Microsoft Visual Studio\2022\Professional\VC\Tools\MSVC\14.44.35207\include\vector
; File C:\IAGOS\server\v18\Source\Source\_Common\ScriptHelper.cpp
; File C:\Program Files\Microsoft Visual Studio\2022\Professional\VC\Tools\MSVC\14.44.35207\include\vector
; File C:\IAGOS\server\v18\Source\Source\_Common\ScriptHelper.cpp
; File C:\Program Files\Microsoft Visual Studio\2022\Professional\VC\Tools\MSVC\14.44.35207\include\vector
; File C:\IAGOS\server\v18\Source\Source\_Common\ScriptHelper.cpp
; File C:\Program Files\Microsoft Visual Studio\2022\Professional\VC\Tools\MSVC\14.44.35207\include\vector
; File C:\IAGOS\server\v18\Source\Source\_Common\ScriptHelper.cpp
; File C:\Program Files\Microsoft Visual Studio\2022\Professional\VC\Tools\MSVC\14.44.35207\include\vector
; File C:\IAGOS\server\v18\Source\Source\_Common\ScriptHelper.cpp
; File C:\Program Files\Microsoft Visual Studio\2022\Professional\VC\Tools\MSVC\14.44.35207\include\vector
; File C:\IAGOS\server\v18\Source\Source\_Common\ScriptHelper.cpp
; File C:\Program Files\Microsoft Visual Studio\2022\Professional\VC\Tools\MSVC\14.44.35207\include\vector
; File C:\IAGOS\server\v18\Source\Source\_Common\ScriptHelper.cpp
; File C:\Program Files\Microsoft Visual Studio\2022\Professional\VC\Tools\MSVC\14.44.35207\include\vector
; File C:\IAGOS\server\v18\Source\Source\_Common\ScriptHelper.cpp
; File C:\Program Files\Microsoft Visual Studio\2022\Professional\VC\Tools\MSVC\14.44.35207\include\vector
; File C:\IAGOS\server\v18\Source\Source\_Common\ScriptHelper.cpp
; File C:\Program Files\Microsoft Visual Studio\2022\Professional\VC\Tools\MSVC\14.44.35207\include\vector
; File C:\IAGOS\server\v18\Source\Source\_Common\ScriptHelper.cpp
; File C:\Program Files\Microsoft Visual Studio\2022\Professional\VC\Tools\MSVC\14.44.35207\include\vector
; File C:\IAGOS\server\v18\Source\Source\_Common\ScriptHelper.cpp
; File C:\Program Files\Microsoft Visual Studio\2022\Professional\VC\Tools\MSVC\14.44.35207\include\vector
; File C:\IAGOS\server\v18\Source\Source\_Common\ScriptHelper.cpp
; File C:\Program Files\Microsoft Visual Studio\2022\Professional\VC\Tools\MSVC\14.44.35207\include\vector
; File C:\IAGOS\server\v18\Source\Source\_Common\ScriptHelper.cpp
; File C:\Program Files\Microsoft Visual Studio\2022\Professional\VC\Tools\MSVC\14.44.35207\include\vector
; File C:\IAGOS\server\v18\Source\Source\_Common\ScriptHelper.cpp
; File C:\Program Files\Microsoft Visual Studio\2022\Professional\VC\Tools\MSVC\14.44.35207\include\vector
; File C:\IAGOS\server\v18\Source\Source\_Common\ScriptHelper.cpp
; File C:\Program Files\Microsoft Visual Studio\2022\Professional\VC\Tools\MSVC\14.44.35207\include\vector
; File C:\IAGOS\server\v18\Source\Source\_Common\ScriptHelper.cpp
; File C:\Program Files\Microsoft Visual Studio\2022\Professional\VC\Tools\MSVC\14.44.35207\include\vector
; File C:\IAGOS\server\v18\Source\Source\_Common\ScriptHelper.cpp
; File C:\Program Files\Microsoft Visual Studio\2022\Professional\VC\Tools\MSVC\14.44.35207\include\vector
; File C:\IAGOS\server\v18\Source\Source\_Common\ScriptHelper.cpp
; File C:\Program Files\Microsoft Visual Studio\2022\Professional\VC\Tools\MSVC\14.44.35207\include\vector
; File C:\IAGOS\server\v18\Source\Source\_Common\ScriptHelper.cpp
; File C:\Program Files\Microsoft Visual Studio\2022\Professional\VC\Tools\MSVC\14.44.35207\include\vector
; File C:\IAGOS\server\v18\Source\Source\_Common\ScriptHelper.cpp
; File C:\Program Files\Microsoft Visual Studio\2022\Professional\VC\Tools\MSVC\14.44.35207\include\vector
; File C:\IAGOS\server\v18\Source\Source\_Common\ScriptHelper.cpp
; File C:\Program Files\Microsoft Visual Studio\2022\Professional\VC\Tools\MSVC\14.44.35207\include\vector
; File C:\IAGOS\server\v18\Source\Source\_Common\ScriptHelper.cpp
; File C:\Program Files\Microsoft Visual Studio\2022\Professional\VC\Tools\MSVC\14.44.35207\include\vector
; File C:\IAGOS\server\v18\Source\Source\_Common\ScriptHelper.cpp
; File C:\Program Files\Microsoft Visual Studio\2022\Professional\VC\Tools\MSVC\14.44.35207\include\vector
; File C:\IAGOS\server\v18\Source\Source\_Common\ScriptHelper.cpp
; File C:\Program Files\Microsoft Visual Studio\2022\Professional\VC\Tools\MSVC\14.44.35207\include\vector
; File C:\IAGOS\server\v18\Source\Source\_Common\ScriptHelper.cpp
; File C:\Program Files\Microsoft Visual Studio\2022\Professional\VC\Tools\MSVC\14.44.35207\include\vector
; File C:\IAGOS\server\v18\Source\Source\_Common\ScriptHelper.cpp
; File C:\IAGOS\server\v18\Source\Source\_Common\data.h
; File C:\IAGOS\server\v18\Source\Source\_Common\ScriptHelper.cpp
; File C:\IAGOS\server\v18\Source\Source\_Common\data.h
; File C:\IAGOS\server\v18\Source\Source\_Common\ScriptHelper.cpp
; File C:\Program Files\Microsoft Visual Studio\2022\Professional\VC\Tools\MSVC\14.44.35207\include\vector
; File C:\IAGOS\server\v18\Source\Source\_Common\ScriptHelper.cpp
; File C:\Program Files\Microsoft Visual Studio\2022\Professional\VC\Tools\MSVC\14.44.35207\atlmfc\include\afxcoll.inl
; File C:\IAGOS\server\v18\Source\Source\_Common\ScriptHelper.cpp
;	COMDAT ?__QuestEnd@@YAXHHAAHHH@Z
_TEXT	SEGMENT
_vecNextQuest$ = -80					; size = 12
_vecEndQuest$ = -68					; size = 12
_vecCurrQuest$ = -56					; size = 12
_vecNewQuest$ = -44					; size = 12
_lpChar$1$ = -32					; size = 4
_bNewQuest$1$ = -28					; size = 4
_lpQuest$1$ = -24					; size = 4
tv1187 = -24						; size = 4
_nQuest$2 = -20						; size = 4
_i$1$ = -20						; size = 4
$T3 = -20						; size = 4
_pMover$1$ = -16					; size = 4
$T4 = -16						; size = 4
__$EHRec$ = -12						; size = 12
_nPcId$ = 8						; size = 4
_nNpcId$ = 12						; size = 4
_nGlobal$ = 16						; size = 4
_nQuestId$ = 20						; size = 4
_bButtOK$ = 24						; size = 4
?__QuestEnd@@YAXHHAAHHH@Z PROC				; __QuestEnd, COMDAT

; 522  : {

  00000	55		 push	 ebp
  00001	8b ec		 mov	 ebp, esp
  00003	6a ff		 push	 -1
  00005	68 00 00 00 00	 push	 __ehhandler$?__QuestEnd@@YAXHHAAHHH@Z
  0000a	64 a1 00 00 00
	00		 mov	 eax, DWORD PTR fs:0
  00010	50		 push	 eax
  00011	83 ec 44	 sub	 esp, 68			; 00000044H
  00014	53		 push	 ebx
  00015	56		 push	 esi
  00016	57		 push	 edi
  00017	a1 00 00 00 00	 mov	 eax, DWORD PTR ___security_cookie
  0001c	33 c5		 xor	 eax, ebp
  0001e	50		 push	 eax
  0001f	8d 45 f4	 lea	 eax, DWORD PTR __$EHRec$[ebp]
  00022	64 a3 00 00 00
	00		 mov	 DWORD PTR fs:0, eax

; 523  : #if __VER >= 15 // __IMPROVE_QUEST_INTERFACE
; 524  : 	// ÇöŔç ÁřÇŕ ÁßŔÎ Äů˝şĆ® ÁßżˇĽ­ ÇöŔç NPC°ˇ Ăł¸®ÇŘľßµÉ Äů˝şĆ®¸¦ ˝ÇÇŕ(ŔÚ˝ĹŔĎ Ľöµµ ŔÖŔ˝)
; 525  : 	CMover* pMover = prj.GetMover( nNpcId );

  00028	8b 75 0c	 mov	 esi, DWORD PTR _nNpcId$[ebp]
  0002b	b9 00 00 00 00	 mov	 ecx, OFFSET ?prj@@3VCProject@@A ; prj
  00030	56		 push	 esi
  00031	e8 00 00 00 00	 call	 ?GetMover@CProject@@QAEPAVCMover@@K@Z ; CProject::GetMover

; 526  : 	CUser* pUser = prj.GetUser( nPcId );

  00036	8b 5d 08	 mov	 ebx, DWORD PTR _nPcId$[ebp]
  00039	b9 00 00 00 00	 mov	 ecx, OFFSET ?prj@@3VCProject@@A ; prj
  0003e	53		 push	 ebx
  0003f	89 45 f0	 mov	 DWORD PTR _pMover$1$[ebp], eax
  00042	e8 00 00 00 00	 call	 ?GetUser@CProject@@QAEPAVCUser@@K@Z ; CProject::GetUser

; 527  : 
; 528  : 	LPQUEST lpQuest;
; 529  : 	BOOL bNewQuest = FALSE;
; 530  : 
; 531  : 	__RemoveAllKey( nPcId );

  00047	53		 push	 ebx
  00048	8b f8		 mov	 edi, eax
  0004a	c7 45 e4 00 00
	00 00		 mov	 DWORD PTR _bNewQuest$1$[ebp], 0
  00051	e8 00 00 00 00	 call	 ?__RemoveAllKey@@YAHH@Z	; __RemoveAllKey
  00056	83 c4 04	 add	 esp, 4

; 532  : 	pMover->m_pNpcProperty->RunDialog( "#addKey", NULL, 0, nNpcId, nPcId, 0 );

  00059	6a 00		 push	 0
  0005b	53		 push	 ebx
  0005c	56		 push	 esi
  0005d	8b 75 f0	 mov	 esi, DWORD PTR _pMover$1$[ebp]
  00060	6a 00		 push	 0
  00062	6a 00		 push	 0
  00064	68 00 00 00 00	 push	 OFFSET ??_C@_07MDMGIKPL@?$CDaddKey@
  00069	8b 8e c4 0d 00
	00		 mov	 ecx, DWORD PTR [esi+3524]
  0006f	e8 00 00 00 00	 call	 ?RunDialog@CNpcProperty@@QAEHPBDPAHHHHH@Z ; CNpcProperty::RunDialog
; File C:\Program Files\Microsoft Visual Studio\2022\Professional\VC\Tools\MSVC\14.44.35207\include\vector

; 400  :     _CONSTEXPR20 _Vector_val() noexcept : _Myfirst(), _Mylast(), _Myend() {}

  00074	c7 45 d4 00 00
	00 00		 mov	 DWORD PTR _vecNewQuest$[ebp], 0
  0007b	c7 45 d8 00 00
	00 00		 mov	 DWORD PTR _vecNewQuest$[ebp+4], 0
  00082	c7 45 dc 00 00
	00 00		 mov	 DWORD PTR _vecNewQuest$[ebp+8], 0
; File C:\IAGOS\server\v18\Source\Source\_Common\ScriptHelper.cpp

; 535  : 	vector<int> vecNewQuest;

  00089	c7 45 fc 00 00
	00 00		 mov	 DWORD PTR __$EHRec$[ebp+8], 0
; File C:\Program Files\Microsoft Visual Studio\2022\Professional\VC\Tools\MSVC\14.44.35207\include\vector

; 400  :     _CONSTEXPR20 _Vector_val() noexcept : _Myfirst(), _Mylast(), _Myend() {}

  00090	c7 45 b0 00 00
	00 00		 mov	 DWORD PTR _vecNextQuest$[ebp], 0
  00097	c7 45 b4 00 00
	00 00		 mov	 DWORD PTR _vecNextQuest$[ebp+4], 0
  0009e	c7 45 b8 00 00
	00 00		 mov	 DWORD PTR _vecNextQuest$[ebp+8], 0
  000a5	c7 45 bc 00 00
	00 00		 mov	 DWORD PTR _vecEndQuest$[ebp], 0
  000ac	c7 45 c0 00 00
	00 00		 mov	 DWORD PTR _vecEndQuest$[ebp+4], 0
  000b3	c7 45 c4 00 00
	00 00		 mov	 DWORD PTR _vecEndQuest$[ebp+8], 0
  000ba	c7 45 c8 00 00
	00 00		 mov	 DWORD PTR _vecCurrQuest$[ebp], 0
  000c1	c7 45 cc 00 00
	00 00		 mov	 DWORD PTR _vecCurrQuest$[ebp+4], 0
  000c8	c7 45 d0 00 00
	00 00		 mov	 DWORD PTR _vecCurrQuest$[ebp+8], 0
; File C:\IAGOS\server\v18\Source\Source\_Common\ScriptHelper.cpp

; 539  : 	LPCHARACTER lpChar = prj.GetCharacter( pMover->m_szCharacterKey );

  000cf	8d 86 44 06 00
	00		 lea	 eax, DWORD PTR [esi+1604]
  000d5	c6 45 fc 03	 mov	 BYTE PTR __$EHRec$[ebp+8], 3
  000d9	50		 push	 eax
  000da	b9 00 00 00 00	 mov	 ecx, OFFSET ?prj@@3VCProject@@A ; prj
  000df	e8 00 00 00 00	 call	 ?GetCharacter@CProject@@QAEPAUtagCHARACTER@@PBD@Z ; CProject::GetCharacter
  000e4	89 45 e0	 mov	 DWORD PTR _lpChar$1$[ebp], eax

; 540  : 	if( lpChar )

  000e7	85 c0		 test	 eax, eax
  000e9	0f 84 16 02 00
	00		 je	 $LN186@QuestEnd

; 542  : 		for( int i = 0; i < lpChar->m_awSrcQuest.GetSize(); i++ )

  000ef	8b 88 4c 06 00
	00		 mov	 ecx, DWORD PTR [eax+1612]
  000f5	33 db		 xor	 ebx, ebx
  000f7	85 c9		 test	 ecx, ecx
  000f9	0f 8e fc 00 00
	00		 jle	 $LN3@QuestEnd
  000ff	90		 npad	 1
$LL4@QuestEnd:
; File C:\Program Files\Microsoft Visual Studio\2022\Professional\VC\Tools\MSVC\14.44.35207\atlmfc\include\afxcoll.inl

; 74   : 		if( nIndex < 0 || nIndex >= m_nSize )

  00100	85 db		 test	 ebx, ebx
  00102	0f 88 62 04 00
	00		 js	 $LN162@QuestEnd
  00108	3b d9		 cmp	 ebx, ecx
  0010a	0f 8d 5a 04 00
	00		 jge	 $LN162@QuestEnd
; File C:\IAGOS\server\v18\Source\Source\_Common\ScriptHelper.cpp

; 545  : 			lpQuest = pUser->GetQuest( nQuest );

  00110	8b 80 48 06 00
	00		 mov	 eax, DWORD PTR [eax+1608]
  00116	8b cf		 mov	 ecx, edi
  00118	0f b7 34 58	 movzx	 esi, WORD PTR [eax+ebx*2]
  0011c	56		 push	 esi
  0011d	89 75 ec	 mov	 DWORD PTR _nQuest$2[ebp], esi
  00120	e8 00 00 00 00	 call	 ?GetQuest@CMover@@QAEPAUtagQuest@@H@Z ; CMover::GetQuest
  00125	89 45 e8	 mov	 DWORD PTR _lpQuest$1$[ebp], eax

; 546  : 
; 547  : 			// new quest
; 548  : 			if( lpQuest == NULL && pUser->IsCompleteQuest( nQuest ) == FALSE )

  00128	8b cf		 mov	 ecx, edi
  0012a	56		 push	 esi
  0012b	85 c0		 test	 eax, eax
  0012d	75 65		 jne	 SHORT $LN183@QuestEnd
  0012f	e8 00 00 00 00	 call	 ?IsCompleteQuest@CMover@@QAEHH@Z ; CMover::IsCompleteQuest
  00134	85 c0		 test	 eax, eax
  00136	0f 85 ad 00 00
	00		 jne	 $LN2@QuestEnd

; 549  : 			{
; 550  : 				// now
; 551  : 				if( __IsBeginQuestCondition( pUser, nQuest ) )

  0013c	56		 push	 esi
  0013d	57		 push	 edi
  0013e	e8 00 00 00 00	 call	 ?__IsBeginQuestCondition@@YAHPAVCMover@@H@Z ; __IsBeginQuestCondition
  00143	83 c4 08	 add	 esp, 8
  00146	85 c0		 test	 eax, eax
  00148	74 23		 je	 SHORT $LN23@QuestEnd
; File C:\Program Files\Microsoft Visual Studio\2022\Professional\VC\Tools\MSVC\14.44.35207\include\vector

; 844  :         if (_Mylast != _My_data._Myend) {

  0014a	8b 45 d8	 mov	 eax, DWORD PTR _vecNewQuest$[ebp+4]
; File C:\IAGOS\server\v18\Source\Source\_Common\ScriptHelper.cpp

; 553  : 					bNewQuest = TRUE;

  0014d	c7 45 e4 01 00
	00 00		 mov	 DWORD PTR _bNewQuest$1$[ebp], 1
; File C:\Program Files\Microsoft Visual Studio\2022\Professional\VC\Tools\MSVC\14.44.35207\include\vector

; 844  :         if (_Mylast != _My_data._Myend) {

  00154	3b 45 dc	 cmp	 eax, DWORD PTR _vecNewQuest$[ebp+8]
  00157	74 0b		 je	 SHORT $LN131@QuestEnd

; 860  :             _STD _Construct_in_place(*_Mylast, _STD forward<_Valty>(_Val)...);

  00159	89 30		 mov	 DWORD PTR [eax], esi

; 861  :         } else {
; 862  :             _ASAN_VECTOR_EXTEND_GUARD(static_cast<size_type>(_Mylast - _My_data._Myfirst) + 1);
; 863  :             _Alty_traits::construct(_Getal(), _Unfancy(_Mylast), _STD forward<_Valty>(_Val)...);
; 864  :             _ASAN_VECTOR_RELEASE_GUARD;
; 865  :         }
; 866  : 
; 867  :         _Orphan_range(_Mylast, _Mylast);
; 868  :         _Ty& _Result = *_Mylast;
; 869  :         ++_Mylast;

  0015b	83 45 d8 04	 add	 DWORD PTR _vecNewQuest$[ebp+4], 4

; 845  :             return _Emplace_back_with_unused_capacity(_STD forward<_Valty>(_Val)...);

  0015f	e9 85 00 00 00	 jmp	 $LN2@QuestEnd
$LN131@QuestEnd:

; 846  :         }
; 847  : 
; 848  :         return *_Emplace_reallocate(_Mylast, _STD forward<_Valty>(_Val)...);

  00164	8d 4d ec	 lea	 ecx, DWORD PTR _nQuest$2[ebp]
  00167	51		 push	 ecx
  00168	8d 4d d4	 lea	 ecx, DWORD PTR _vecNewQuest$[ebp]
; File C:\IAGOS\server\v18\Source\Source\_Common\ScriptHelper.cpp

; 555  : 				}

  0016b	eb 76		 jmp	 SHORT $LN194@QuestEnd
$LN23@QuestEnd:

; 556  : 				// next
; 557  : 				else if( __IsNextLevelQuest( pUser, nQuest ) )

  0016d	56		 push	 esi
  0016e	57		 push	 edi
  0016f	e8 00 00 00 00	 call	 ?__IsNextLevelQuest@@YAHPAVCMover@@H@Z ; __IsNextLevelQuest
  00174	83 c4 08	 add	 esp, 8
  00177	85 c0		 test	 eax, eax
  00179	74 6e		 je	 SHORT $LN2@QuestEnd
; File C:\Program Files\Microsoft Visual Studio\2022\Professional\VC\Tools\MSVC\14.44.35207\include\vector

; 844  :         if (_Mylast != _My_data._Myend) {

  0017b	8b 45 b4	 mov	 eax, DWORD PTR _vecNextQuest$[ebp+4]
  0017e	3b 45 b8	 cmp	 eax, DWORD PTR _vecNextQuest$[ebp+8]
  00181	74 08		 je	 SHORT $LN138@QuestEnd

; 860  :             _STD _Construct_in_place(*_Mylast, _STD forward<_Valty>(_Val)...);

  00183	89 30		 mov	 DWORD PTR [eax], esi

; 861  :         } else {
; 862  :             _ASAN_VECTOR_EXTEND_GUARD(static_cast<size_type>(_Mylast - _My_data._Myfirst) + 1);
; 863  :             _Alty_traits::construct(_Getal(), _Unfancy(_Mylast), _STD forward<_Valty>(_Val)...);
; 864  :             _ASAN_VECTOR_RELEASE_GUARD;
; 865  :         }
; 866  : 
; 867  :         _Orphan_range(_Mylast, _Mylast);
; 868  :         _Ty& _Result = *_Mylast;
; 869  :         ++_Mylast;

  00185	83 45 b4 04	 add	 DWORD PTR _vecNextQuest$[ebp+4], 4

; 845  :             return _Emplace_back_with_unused_capacity(_STD forward<_Valty>(_Val)...);

  00189	eb 5e		 jmp	 SHORT $LN2@QuestEnd
$LN138@QuestEnd:

; 846  :         }
; 847  : 
; 848  :         return *_Emplace_reallocate(_Mylast, _STD forward<_Valty>(_Val)...);

  0018b	8d 4d ec	 lea	 ecx, DWORD PTR _nQuest$2[ebp]
  0018e	51		 push	 ecx
  0018f	8d 4d b0	 lea	 ecx, DWORD PTR _vecNextQuest$[ebp]
; File C:\IAGOS\server\v18\Source\Source\_Common\ScriptHelper.cpp

; 559  : 			}

  00192	eb 4f		 jmp	 SHORT $LN194@QuestEnd
$LN183@QuestEnd:

; 560  : 			// current quest
; 561  : 			else if( lpQuest && pUser->IsCompleteQuest( nQuest ) == FALSE && lpQuest->m_nState != QS_END )

  00194	e8 00 00 00 00	 call	 ?IsCompleteQuest@CMover@@QAEHH@Z ; CMover::IsCompleteQuest
  00199	85 c0		 test	 eax, eax
  0019b	75 4c		 jne	 SHORT $LN2@QuestEnd
  0019d	8b 45 e8	 mov	 eax, DWORD PTR _lpQuest$1$[ebp]
  001a0	80 38 0e	 cmp	 BYTE PTR [eax], 14	; 0000000eH
  001a3	74 44		 je	 SHORT $LN2@QuestEnd

; 562  : 			{
; 563  : 				// complete
; 564  : 				if( __IsEndQuestCondition( pUser, nQuest ) )

  001a5	56		 push	 esi
  001a6	57		 push	 edi
  001a7	e8 00 00 00 00	 call	 ?__IsEndQuestCondition@@YAHPAVCMover@@H@Z ; __IsEndQuestCondition
  001ac	83 c4 08	 add	 esp, 8
  001af	85 c0		 test	 eax, eax
  001b1	74 19		 je	 SHORT $LN27@QuestEnd
; File C:\Program Files\Microsoft Visual Studio\2022\Professional\VC\Tools\MSVC\14.44.35207\include\vector

; 844  :         if (_Mylast != _My_data._Myend) {

  001b3	8b 45 c0	 mov	 eax, DWORD PTR _vecEndQuest$[ebp+4]
  001b6	3b 45 c4	 cmp	 eax, DWORD PTR _vecEndQuest$[ebp+8]
  001b9	74 08		 je	 SHORT $LN145@QuestEnd

; 860  :             _STD _Construct_in_place(*_Mylast, _STD forward<_Valty>(_Val)...);

  001bb	89 30		 mov	 DWORD PTR [eax], esi

; 861  :         } else {
; 862  :             _ASAN_VECTOR_EXTEND_GUARD(static_cast<size_type>(_Mylast - _My_data._Myfirst) + 1);
; 863  :             _Alty_traits::construct(_Getal(), _Unfancy(_Mylast), _STD forward<_Valty>(_Val)...);
; 864  :             _ASAN_VECTOR_RELEASE_GUARD;
; 865  :         }
; 866  : 
; 867  :         _Orphan_range(_Mylast, _Mylast);
; 868  :         _Ty& _Result = *_Mylast;
; 869  :         ++_Mylast;

  001bd	83 45 c0 04	 add	 DWORD PTR _vecEndQuest$[ebp+4], 4

; 845  :             return _Emplace_back_with_unused_capacity(_STD forward<_Valty>(_Val)...);

  001c1	eb 26		 jmp	 SHORT $LN2@QuestEnd
$LN145@QuestEnd:

; 846  :         }
; 847  : 
; 848  :         return *_Emplace_reallocate(_Mylast, _STD forward<_Valty>(_Val)...);

  001c3	8d 4d ec	 lea	 ecx, DWORD PTR _nQuest$2[ebp]
  001c6	51		 push	 ecx
  001c7	8d 4d bc	 lea	 ecx, DWORD PTR _vecEndQuest$[ebp]
; File C:\IAGOS\server\v18\Source\Source\_Common\ScriptHelper.cpp

; 565  : 					vecEndQuest.push_back( nQuest );

  001ca	eb 17		 jmp	 SHORT $LN194@QuestEnd
$LN27@QuestEnd:
; File C:\Program Files\Microsoft Visual Studio\2022\Professional\VC\Tools\MSVC\14.44.35207\include\vector

; 844  :         if (_Mylast != _My_data._Myend) {

  001cc	8b 45 cc	 mov	 eax, DWORD PTR _vecCurrQuest$[ebp+4]
  001cf	3b 45 d0	 cmp	 eax, DWORD PTR _vecCurrQuest$[ebp+8]
  001d2	74 08		 je	 SHORT $LN152@QuestEnd

; 860  :             _STD _Construct_in_place(*_Mylast, _STD forward<_Valty>(_Val)...);

  001d4	89 30		 mov	 DWORD PTR [eax], esi

; 861  :         } else {
; 862  :             _ASAN_VECTOR_EXTEND_GUARD(static_cast<size_type>(_Mylast - _My_data._Myfirst) + 1);
; 863  :             _Alty_traits::construct(_Getal(), _Unfancy(_Mylast), _STD forward<_Valty>(_Val)...);
; 864  :             _ASAN_VECTOR_RELEASE_GUARD;
; 865  :         }
; 866  : 
; 867  :         _Orphan_range(_Mylast, _Mylast);
; 868  :         _Ty& _Result = *_Mylast;
; 869  :         ++_Mylast;

  001d6	83 45 cc 04	 add	 DWORD PTR _vecCurrQuest$[ebp+4], 4

; 845  :             return _Emplace_back_with_unused_capacity(_STD forward<_Valty>(_Val)...);

  001da	eb 0d		 jmp	 SHORT $LN2@QuestEnd
$LN152@QuestEnd:

; 846  :         }
; 847  : 
; 848  :         return *_Emplace_reallocate(_Mylast, _STD forward<_Valty>(_Val)...);

  001dc	8d 4d ec	 lea	 ecx, DWORD PTR _nQuest$2[ebp]
  001df	51		 push	 ecx
  001e0	8d 4d c8	 lea	 ecx, DWORD PTR _vecCurrQuest$[ebp]
$LN194@QuestEnd:
; File C:\IAGOS\server\v18\Source\Source\_Common\ScriptHelper.cpp

; 542  : 		for( int i = 0; i < lpChar->m_awSrcQuest.GetSize(); i++ )

  001e3	50		 push	 eax
  001e4	e8 00 00 00 00	 call	 ??$_Emplace_reallocate@ABH@?$vector@HV?$allocator@H@std@@@std@@AAEPAHQAHABH@Z ; std::vector<int,std::allocator<int> >::_Emplace_reallocate<int const &>
$LN2@QuestEnd:
  001e9	8b 45 e0	 mov	 eax, DWORD PTR _lpChar$1$[ebp]
  001ec	43		 inc	 ebx
  001ed	8b 88 4c 06 00
	00		 mov	 ecx, DWORD PTR [eax+1612]
  001f3	3b d9		 cmp	 ebx, ecx
  001f5	0f 8c 05 ff ff
	ff		 jl	 $LL4@QuestEnd
$LN3@QuestEnd:

; 566  : 				// running
; 567  : 				else
; 568  : 					vecCurrQuest.push_back( nQuest );
; 569  : 			}
; 570  : 		}
; 571  : 
; 572  : 		// sort
; 573  : 		__QuestSort( vecNewQuest );

  001fb	8d 45 d4	 lea	 eax, DWORD PTR _vecNewQuest$[ebp]
  001fe	50		 push	 eax
  001ff	e8 00 00 00 00	 call	 ?__QuestSort@@YAXAAV?$vector@HV?$allocator@H@std@@@std@@@Z ; __QuestSort

; 574  : 		__QuestSort( vecNextQuest );

  00204	8d 45 b0	 lea	 eax, DWORD PTR _vecNextQuest$[ebp]
  00207	50		 push	 eax
  00208	e8 00 00 00 00	 call	 ?__QuestSort@@YAXAAV?$vector@HV?$allocator@H@std@@@std@@@Z ; __QuestSort

; 575  : 		__QuestSort( vecEndQuest );

  0020d	8d 45 bc	 lea	 eax, DWORD PTR _vecEndQuest$[ebp]
  00210	50		 push	 eax
  00211	e8 00 00 00 00	 call	 ?__QuestSort@@YAXAAV?$vector@HV?$allocator@H@std@@@std@@@Z ; __QuestSort

; 576  : 		__QuestSort( vecCurrQuest );

  00216	8d 45 c8	 lea	 eax, DWORD PTR _vecCurrQuest$[ebp]
  00219	50		 push	 eax
  0021a	e8 00 00 00 00	 call	 ?__QuestSort@@YAXAAV?$vector@HV?$allocator@H@std@@@std@@@Z ; __QuestSort
; File C:\Program Files\Microsoft Visual Studio\2022\Professional\VC\Tools\MSVC\14.44.35207\include\vector

; 1915 :         return static_cast<size_type>(_My_data._Mylast - _My_data._Myfirst);

  0021f	8b 45 d8	 mov	 eax, DWORD PTR _vecNewQuest$[ebp+4]
; File C:\IAGOS\server\v18\Source\Source\_Common\ScriptHelper.cpp

; 576  : 		__QuestSort( vecCurrQuest );

  00222	83 c4 10	 add	 esp, 16			; 00000010H
; File C:\Program Files\Microsoft Visual Studio\2022\Professional\VC\Tools\MSVC\14.44.35207\include\vector

; 1915 :         return static_cast<size_type>(_My_data._Mylast - _My_data._Myfirst);

  00225	2b 45 d4	 sub	 eax, DWORD PTR _vecNewQuest$[ebp]
; File C:\IAGOS\server\v18\Source\Source\_Common\ScriptHelper.cpp

; 579  : 		for( DWORD i = 0; i < vecNewQuest.size(); ++i )

  00228	33 f6		 xor	 esi, esi
  0022a	8b 5d 08	 mov	 ebx, DWORD PTR _nPcId$[ebp]
; File C:\Program Files\Microsoft Visual Studio\2022\Professional\VC\Tools\MSVC\14.44.35207\include\vector

; 1915 :         return static_cast<size_type>(_My_data._Mylast - _My_data._Myfirst);

  0022d	c1 f8 02	 sar	 eax, 2
; File C:\IAGOS\server\v18\Source\Source\_Common\ScriptHelper.cpp

; 579  : 		for( DWORD i = 0; i < vecNewQuest.size(); ++i )

  00230	85 c0		 test	 eax, eax
  00232	74 26		 je	 SHORT $LN6@QuestEnd
$LL7@QuestEnd:

; 580  : 			__AddQuestKey( nPcId, vecNewQuest[ i ], "QUEST_BEGIN", 0, TRUE );

  00234	8b 45 d4	 mov	 eax, DWORD PTR _vecNewQuest$[ebp]
  00237	6a 01		 push	 1
  00239	6a 00		 push	 0
  0023b	68 00 00 00 00	 push	 OFFSET ??_C@_0M@NIFBEDLO@QUEST_BEGIN@
  00240	ff 34 b0	 push	 DWORD PTR [eax+esi*4]
  00243	53		 push	 ebx
  00244	e8 00 00 00 00	 call	 ?__AddQuestKey@@YAHHHPBDHH@Z ; __AddQuestKey
; File C:\Program Files\Microsoft Visual Studio\2022\Professional\VC\Tools\MSVC\14.44.35207\include\vector

; 1915 :         return static_cast<size_type>(_My_data._Mylast - _My_data._Myfirst);

  00249	8b 45 d8	 mov	 eax, DWORD PTR _vecNewQuest$[ebp+4]
; File C:\IAGOS\server\v18\Source\Source\_Common\ScriptHelper.cpp

; 579  : 		for( DWORD i = 0; i < vecNewQuest.size(); ++i )

  0024c	46		 inc	 esi
; File C:\Program Files\Microsoft Visual Studio\2022\Professional\VC\Tools\MSVC\14.44.35207\include\vector

; 1915 :         return static_cast<size_type>(_My_data._Mylast - _My_data._Myfirst);

  0024d	2b 45 d4	 sub	 eax, DWORD PTR _vecNewQuest$[ebp]
; File C:\IAGOS\server\v18\Source\Source\_Common\ScriptHelper.cpp

; 580  : 			__AddQuestKey( nPcId, vecNewQuest[ i ], "QUEST_BEGIN", 0, TRUE );

  00250	83 c4 14	 add	 esp, 20			; 00000014H
; File C:\Program Files\Microsoft Visual Studio\2022\Professional\VC\Tools\MSVC\14.44.35207\include\vector

; 1915 :         return static_cast<size_type>(_My_data._Mylast - _My_data._Myfirst);

  00253	c1 f8 02	 sar	 eax, 2
; File C:\IAGOS\server\v18\Source\Source\_Common\ScriptHelper.cpp

; 579  : 		for( DWORD i = 0; i < vecNewQuest.size(); ++i )

  00256	3b f0		 cmp	 esi, eax
  00258	72 da		 jb	 SHORT $LL7@QuestEnd
$LN6@QuestEnd:
; File C:\Program Files\Microsoft Visual Studio\2022\Professional\VC\Tools\MSVC\14.44.35207\include\vector

; 1915 :         return static_cast<size_type>(_My_data._Mylast - _My_data._Myfirst);

  0025a	8b 45 b4	 mov	 eax, DWORD PTR _vecNextQuest$[ebp+4]
; File C:\IAGOS\server\v18\Source\Source\_Common\ScriptHelper.cpp

; 581  : 		for( DWORD i = 0; i < vecNextQuest.size(); ++i )

  0025d	33 f6		 xor	 esi, esi
; File C:\Program Files\Microsoft Visual Studio\2022\Professional\VC\Tools\MSVC\14.44.35207\include\vector

; 1915 :         return static_cast<size_type>(_My_data._Mylast - _My_data._Myfirst);

  0025f	8b 4d b0	 mov	 ecx, DWORD PTR _vecNextQuest$[ebp]
  00262	2b c1		 sub	 eax, ecx
  00264	c1 f8 02	 sar	 eax, 2
; File C:\IAGOS\server\v18\Source\Source\_Common\ScriptHelper.cpp

; 581  : 		for( DWORD i = 0; i < vecNextQuest.size(); ++i )

  00267	85 c0		 test	 eax, eax
  00269	74 2a		 je	 SHORT $LN9@QuestEnd
  0026b	0f 1f 44 00 00	 npad	 5
$LL10@QuestEnd:

; 582  : 			__AddQuestKey( nPcId, vecNextQuest[ i ], "QUEST_NEXT_LEVEL", 0, TRUE );

  00270	6a 01		 push	 1
  00272	6a 00		 push	 0
  00274	68 00 00 00 00	 push	 OFFSET ??_C@_0BB@HBMPOEKD@QUEST_NEXT_LEVEL@
  00279	ff 34 b1	 push	 DWORD PTR [ecx+esi*4]
  0027c	53		 push	 ebx
  0027d	e8 00 00 00 00	 call	 ?__AddQuestKey@@YAHHHPBDHH@Z ; __AddQuestKey
; File C:\Program Files\Microsoft Visual Studio\2022\Professional\VC\Tools\MSVC\14.44.35207\include\vector

; 1915 :         return static_cast<size_type>(_My_data._Mylast - _My_data._Myfirst);

  00282	8b 45 b4	 mov	 eax, DWORD PTR _vecNextQuest$[ebp+4]
; File C:\IAGOS\server\v18\Source\Source\_Common\ScriptHelper.cpp

; 581  : 		for( DWORD i = 0; i < vecNextQuest.size(); ++i )

  00285	46		 inc	 esi
; File C:\Program Files\Microsoft Visual Studio\2022\Professional\VC\Tools\MSVC\14.44.35207\include\vector

; 1915 :         return static_cast<size_type>(_My_data._Mylast - _My_data._Myfirst);

  00286	8b 4d b0	 mov	 ecx, DWORD PTR _vecNextQuest$[ebp]
; File C:\IAGOS\server\v18\Source\Source\_Common\ScriptHelper.cpp

; 582  : 			__AddQuestKey( nPcId, vecNextQuest[ i ], "QUEST_NEXT_LEVEL", 0, TRUE );

  00289	83 c4 14	 add	 esp, 20			; 00000014H
; File C:\Program Files\Microsoft Visual Studio\2022\Professional\VC\Tools\MSVC\14.44.35207\include\vector

; 1915 :         return static_cast<size_type>(_My_data._Mylast - _My_data._Myfirst);

  0028c	2b c1		 sub	 eax, ecx
  0028e	c1 f8 02	 sar	 eax, 2
; File C:\IAGOS\server\v18\Source\Source\_Common\ScriptHelper.cpp

; 581  : 		for( DWORD i = 0; i < vecNextQuest.size(); ++i )

  00291	3b f0		 cmp	 esi, eax
  00293	72 db		 jb	 SHORT $LL10@QuestEnd
$LN9@QuestEnd:
; File C:\Program Files\Microsoft Visual Studio\2022\Professional\VC\Tools\MSVC\14.44.35207\include\vector

; 1915 :         return static_cast<size_type>(_My_data._Mylast - _My_data._Myfirst);

  00295	8b 45 c0	 mov	 eax, DWORD PTR _vecEndQuest$[ebp+4]
; File C:\IAGOS\server\v18\Source\Source\_Common\ScriptHelper.cpp

; 583  : 		for( DWORD i = 0; i < vecEndQuest.size(); ++i )

  00298	33 f6		 xor	 esi, esi
; File C:\Program Files\Microsoft Visual Studio\2022\Professional\VC\Tools\MSVC\14.44.35207\include\vector

; 1915 :         return static_cast<size_type>(_My_data._Mylast - _My_data._Myfirst);

  0029a	8b 4d bc	 mov	 ecx, DWORD PTR _vecEndQuest$[ebp]
  0029d	2b c1		 sub	 eax, ecx
  0029f	c1 f8 02	 sar	 eax, 2
; File C:\IAGOS\server\v18\Source\Source\_Common\ScriptHelper.cpp

; 583  : 		for( DWORD i = 0; i < vecEndQuest.size(); ++i )

  002a2	85 c0		 test	 eax, eax
  002a4	74 25		 je	 SHORT $LN12@QuestEnd
$LL13@QuestEnd:

; 584  : 			__AddQuestKey( nPcId, vecEndQuest[ i ], "QUEST_END", 0, FALSE );

  002a6	6a 00		 push	 0
  002a8	6a 00		 push	 0
  002aa	68 00 00 00 00	 push	 OFFSET ??_C@_09GOKBNBFK@QUEST_END@
  002af	ff 34 b1	 push	 DWORD PTR [ecx+esi*4]
  002b2	53		 push	 ebx
  002b3	e8 00 00 00 00	 call	 ?__AddQuestKey@@YAHHHPBDHH@Z ; __AddQuestKey
; File C:\Program Files\Microsoft Visual Studio\2022\Professional\VC\Tools\MSVC\14.44.35207\include\vector

; 1915 :         return static_cast<size_type>(_My_data._Mylast - _My_data._Myfirst);

  002b8	8b 45 c0	 mov	 eax, DWORD PTR _vecEndQuest$[ebp+4]
; File C:\IAGOS\server\v18\Source\Source\_Common\ScriptHelper.cpp

; 583  : 		for( DWORD i = 0; i < vecEndQuest.size(); ++i )

  002bb	46		 inc	 esi
; File C:\Program Files\Microsoft Visual Studio\2022\Professional\VC\Tools\MSVC\14.44.35207\include\vector

; 1915 :         return static_cast<size_type>(_My_data._Mylast - _My_data._Myfirst);

  002bc	8b 4d bc	 mov	 ecx, DWORD PTR _vecEndQuest$[ebp]
; File C:\IAGOS\server\v18\Source\Source\_Common\ScriptHelper.cpp

; 584  : 			__AddQuestKey( nPcId, vecEndQuest[ i ], "QUEST_END", 0, FALSE );

  002bf	83 c4 14	 add	 esp, 20			; 00000014H
; File C:\Program Files\Microsoft Visual Studio\2022\Professional\VC\Tools\MSVC\14.44.35207\include\vector

; 1915 :         return static_cast<size_type>(_My_data._Mylast - _My_data._Myfirst);

  002c2	2b c1		 sub	 eax, ecx
  002c4	c1 f8 02	 sar	 eax, 2
; File C:\IAGOS\server\v18\Source\Source\_Common\ScriptHelper.cpp

; 583  : 		for( DWORD i = 0; i < vecEndQuest.size(); ++i )

  002c7	3b f0		 cmp	 esi, eax
  002c9	72 db		 jb	 SHORT $LL13@QuestEnd
$LN12@QuestEnd:
; File C:\Program Files\Microsoft Visual Studio\2022\Professional\VC\Tools\MSVC\14.44.35207\include\vector

; 1915 :         return static_cast<size_type>(_My_data._Mylast - _My_data._Myfirst);

  002cb	8b 45 cc	 mov	 eax, DWORD PTR _vecCurrQuest$[ebp+4]
; File C:\IAGOS\server\v18\Source\Source\_Common\ScriptHelper.cpp

; 585  : 		for( DWORD i = 0; i < vecCurrQuest.size(); ++i )

  002ce	33 f6		 xor	 esi, esi
; File C:\Program Files\Microsoft Visual Studio\2022\Professional\VC\Tools\MSVC\14.44.35207\include\vector

; 1915 :         return static_cast<size_type>(_My_data._Mylast - _My_data._Myfirst);

  002d0	8b 4d c8	 mov	 ecx, DWORD PTR _vecCurrQuest$[ebp]
  002d3	2b c1		 sub	 eax, ecx
  002d5	c1 f8 02	 sar	 eax, 2
; File C:\IAGOS\server\v18\Source\Source\_Common\ScriptHelper.cpp

; 585  : 		for( DWORD i = 0; i < vecCurrQuest.size(); ++i )

  002d8	85 c0		 test	 eax, eax
  002da	74 29		 je	 SHORT $LN186@QuestEnd
  002dc	0f 1f 40 00	 npad	 4
$LL16@QuestEnd:

; 586  : 			__AddQuestKey( nPcId, vecCurrQuest[ i ], "QUEST_END", 0, FALSE );

  002e0	6a 00		 push	 0
  002e2	6a 00		 push	 0
  002e4	68 00 00 00 00	 push	 OFFSET ??_C@_09GOKBNBFK@QUEST_END@
  002e9	ff 34 b1	 push	 DWORD PTR [ecx+esi*4]
  002ec	53		 push	 ebx
  002ed	e8 00 00 00 00	 call	 ?__AddQuestKey@@YAHHHPBDHH@Z ; __AddQuestKey
; File C:\Program Files\Microsoft Visual Studio\2022\Professional\VC\Tools\MSVC\14.44.35207\include\vector

; 1915 :         return static_cast<size_type>(_My_data._Mylast - _My_data._Myfirst);

  002f2	8b 45 cc	 mov	 eax, DWORD PTR _vecCurrQuest$[ebp+4]
; File C:\IAGOS\server\v18\Source\Source\_Common\ScriptHelper.cpp

; 585  : 		for( DWORD i = 0; i < vecCurrQuest.size(); ++i )

  002f5	46		 inc	 esi
; File C:\Program Files\Microsoft Visual Studio\2022\Professional\VC\Tools\MSVC\14.44.35207\include\vector

; 1915 :         return static_cast<size_type>(_My_data._Mylast - _My_data._Myfirst);

  002f6	8b 4d c8	 mov	 ecx, DWORD PTR _vecCurrQuest$[ebp]
; File C:\IAGOS\server\v18\Source\Source\_Common\ScriptHelper.cpp

; 586  : 			__AddQuestKey( nPcId, vecCurrQuest[ i ], "QUEST_END", 0, FALSE );

  002f9	83 c4 14	 add	 esp, 20			; 00000014H
; File C:\Program Files\Microsoft Visual Studio\2022\Professional\VC\Tools\MSVC\14.44.35207\include\vector

; 1915 :         return static_cast<size_type>(_My_data._Mylast - _My_data._Myfirst);

  002fc	2b c1		 sub	 eax, ecx
  002fe	c1 f8 02	 sar	 eax, 2
; File C:\IAGOS\server\v18\Source\Source\_Common\ScriptHelper.cpp

; 585  : 		for( DWORD i = 0; i < vecCurrQuest.size(); ++i )

  00301	3b f0		 cmp	 esi, eax
  00303	72 db		 jb	 SHORT $LL16@QuestEnd
$LN186@QuestEnd:

; 587  : 	}
; 588  : 	
; 589  : 	BOOL bDialogText = TRUE;
; 590  : 	BOOL bCompleteCheck = TRUE;
; 591  : 	
; 592  : 	if( nQuestId )

  00305	8b 75 14	 mov	 esi, DWORD PTR _nQuestId$[ebp]
  00308	85 f6		 test	 esi, esi
  0030a	0f 84 d1 00 00
	00		 je	 $LN187@QuestEnd

; 593  : 	{
; 594  : 		lpQuest = pUser->GetQuest( nQuestId );

  00310	56		 push	 esi
  00311	8b cf		 mov	 ecx, edi
  00313	e8 00 00 00 00	 call	 ?GetQuest@CMover@@QAEPAUtagQuest@@H@Z ; CMover::GetQuest
  00318	8b c8		 mov	 ecx, eax
; File C:\IAGOS\server\v18\Source\Source\_Common\data.h

; 270  : 	if( dwIndex >= (DWORD)m_nMaxIndex )

  0031a	3b 35 f4 02 00
	00		 cmp	 esi, DWORD PTR ?prj@@3VCProject@@A+756
  00320	72 04		 jb	 SHORT $LN64@QuestEnd

; 271  : 		return NULL;

  00322	33 c0		 xor	 eax, eax
  00324	eb 08		 jmp	 SHORT $LN63@QuestEnd
$LN64@QuestEnd:

; 272  : 	return (T*) m_apOffset[ dwIndex ];

  00326	a1 e4 02 00 00	 mov	 eax, DWORD PTR ?prj@@3VCProject@@A+740
  0032b	8b 04 b0	 mov	 eax, DWORD PTR [eax+esi*4]
$LN63@QuestEnd:
; File C:\IAGOS\server\v18\Source\Source\_Common\ScriptHelper.cpp

; 596  : 		if( lpQuest && lpQuest->m_nState != QS_END && pQuestProp )	// ÁřÇŕÁßŔÎ Äů˝şĆ® Ľ±ĹĂ ˝Ă

  0032e	85 c9		 test	 ecx, ecx
  00330	0f 84 ab 00 00
	00		 je	 $LN187@QuestEnd
  00336	80 39 0e	 cmp	 BYTE PTR [ecx], 14	; 0000000eH
  00339	0f 84 a2 00 00
	00		 je	 $LN187@QuestEnd
  0033f	85 c0		 test	 eax, eax
  00341	0f 84 9a 00 00
	00		 je	 $LN187@QuestEnd

; 597  : 		{
; 598  : 			bCompleteCheck = FALSE;

  00347	33 d2		 xor	 edx, edx

; 599  : 			if( !bButtOK ) // Äů˝şĆ® ¸ń·ĎŔ» Ľ±ĹĂÇĎ°í µéľîżÂ °ćżě

  00349	39 55 18	 cmp	 DWORD PTR _bButtOK$[ebp], edx
  0034c	0f 85 8b 01 00
	00		 jne	 $LN185@QuestEnd

; 600  : 			{
; 601  : 				if( strcmpi( pQuestProp->m_szEndCondCharacter, pMover->m_szCharacterKey ) == 0 && __IsEndQuestCondition( pUser, nQuestId ) )

  00352	8b 4d f0	 mov	 ecx, DWORD PTR _pMover$1$[ebp]
  00355	05 78 01 00 00	 add	 eax, 376		; 00000178H
  0035a	81 c1 44 06 00
	00		 add	 ecx, 1604		; 00000644H
  00360	51		 push	 ecx
  00361	50		 push	 eax
  00362	e8 00 00 00 00	 call	 _strcmpi
  00367	83 c4 08	 add	 esp, 8
  0036a	85 c0		 test	 eax, eax
  0036c	75 28		 jne	 SHORT $LN32@QuestEnd
  0036e	56		 push	 esi
  0036f	57		 push	 edi
  00370	e8 00 00 00 00	 call	 ?__IsEndQuestCondition@@YAHPAVCMover@@H@Z ; __IsEndQuestCondition
  00375	83 c4 08	 add	 esp, 8
  00378	85 c0		 test	 eax, eax
  0037a	74 1a		 je	 SHORT $LN32@QuestEnd

; 602  : 				{
; 603  : 					__SayQuest( nPcId, nQuestId, QSAY_END_COMPLETE1 );
; 604  : 					__SayQuest( nPcId, nQuestId, QSAY_END_COMPLETE2 );
; 605  : 					__SayQuest( nPcId, nQuestId, QSAY_END_COMPLETE3 );
; 606  : 					__AddAnswer( nPcId,"__OK__", "QUEST_END_COMPLETE", 0, nQuestId );

  0037c	bf 00 00 00 00	 mov	 edi, OFFSET ??_C@_0BD@FPHEAFPJ@QUEST_END_COMPLETE@
  00381	c7 45 f0 09 00
	00 00		 mov	 DWORD PTR $T4[ebp], 9
  00388	c7 45 ec 08 00
	00 00		 mov	 DWORD PTR $T3[ebp], 8
  0038f	b8 07 00 00 00	 mov	 eax, 7

; 607  : 				}

  00394	eb 18		 jmp	 SHORT $LN33@QuestEnd
$LN32@QuestEnd:

; 608  : 				else
; 609  : 				{
; 610  : 					__SayQuest( nPcId, nQuestId, QSAY_END_FAILURE1 );
; 611  : 					__SayQuest( nPcId, nQuestId, QSAY_END_FAILURE2 );
; 612  : 					__SayQuest( nPcId, nQuestId, QSAY_END_FAILURE3 );
; 613  : 					__AddAnswer( nPcId,"__OK__", "QUEST_END_FAIL", 0, nQuestId );

  00396	bf 00 00 00 00	 mov	 edi, OFFSET ??_C@_0P@OFMLOGDN@QUEST_END_FAIL@
  0039b	c7 45 f0 0c 00
	00 00		 mov	 DWORD PTR $T4[ebp], 12	; 0000000cH
  003a2	c7 45 ec 0b 00
	00 00		 mov	 DWORD PTR $T3[ebp], 11	; 0000000bH
  003a9	b8 0a 00 00 00	 mov	 eax, 10			; 0000000aH
$LN33@QuestEnd:

; 614  : 				}
; 615  : 				bDialogText = FALSE;

  003ae	50		 push	 eax
  003af	56		 push	 esi
  003b0	53		 push	 ebx
  003b1	e8 00 00 00 00	 call	 ?__SayQuest@@YAHHHH@Z	; __SayQuest
  003b6	ff 75 ec	 push	 DWORD PTR $T3[ebp]
  003b9	56		 push	 esi
  003ba	53		 push	 ebx
  003bb	e8 00 00 00 00	 call	 ?__SayQuest@@YAHHHH@Z	; __SayQuest
  003c0	ff 75 f0	 push	 DWORD PTR $T4[ebp]
  003c3	56		 push	 esi
  003c4	53		 push	 ebx
  003c5	e8 00 00 00 00	 call	 ?__SayQuest@@YAHHHH@Z	; __SayQuest
  003ca	56		 push	 esi
  003cb	6a 00		 push	 0
  003cd	57		 push	 edi
  003ce	68 00 00 00 00	 push	 OFFSET ??_C@_06IGKDDLEP@__OK__@
  003d3	53		 push	 ebx
  003d4	e8 00 00 00 00	 call	 ?__AddAnswer@@YAHHPBD0KH@Z ; __AddAnswer
  003d9	83 c4 38	 add	 esp, 56			; 00000038H
  003dc	e9 57 01 00 00	 jmp	 $LN43@QuestEnd
$LN187@QuestEnd:

; 616  : 			}
; 617  : 		}
; 618  : 	}
; 619  : 	
; 620  : 	// żĎ·á °ˇ´ÉÇŃ Äů˝şĆ®°ˇ ŔÖ´ÂÁö °Ë»ç
; 621  : 	if( bCompleteCheck )
; 622  : 	{
; 623  : 		for( int i = 0; i < pUser->m_nQuestSize; ++i )

  003e1	33 c9		 xor	 ecx, ecx
  003e3	89 4d ec	 mov	 DWORD PTR _i$1$[ebp], ecx
  003e6	38 8f 96 0d 00
	00		 cmp	 BYTE PTR [edi+3478], cl
  003ec	0f 86 e6 00 00
	00		 jbe	 $LN189@QuestEnd
  003f2	33 d2		 xor	 edx, edx
  003f4	89 55 e8	 mov	 DWORD PTR tv1187[ebp], edx
  003f7	66 0f 1f 84 00
	00 00 00 00	 npad	 9
$LL19@QuestEnd:

; 624  : 		{
; 625  : 			lpQuest = &pUser->m_aQuest[i];

  00400	8b b7 98 0d 00
	00		 mov	 esi, DWORD PTR [edi+3480]
  00406	03 f2		 add	 esi, edx

; 626  : 			if( lpQuest )

  00408	0f 84 9d 00 00
	00		 je	 $LN35@QuestEnd

; 627  : 			{
; 628  : 				QuestProp* pQuestProp = prj.m_aPropQuest.GetAt( lpQuest->m_wId );

  0040e	0f b7 4e 04	 movzx	 ecx, WORD PTR [esi+4]
; File C:\IAGOS\server\v18\Source\Source\_Common\data.h

; 270  : 	if( dwIndex >= (DWORD)m_nMaxIndex )

  00412	3b 0d f4 02 00
	00		 cmp	 ecx, DWORD PTR ?prj@@3VCProject@@A+756
  00418	0f 83 85 00 00
	00		 jae	 $LN37@QuestEnd

; 272  : 	return (T*) m_apOffset[ dwIndex ];

  0041e	a1 e4 02 00 00	 mov	 eax, DWORD PTR ?prj@@3VCProject@@A+740
  00423	8b 04 88	 mov	 eax, DWORD PTR [eax+ecx*4]
; File C:\IAGOS\server\v18\Source\Source\_Common\ScriptHelper.cpp

; 629  : 				if( pQuestProp )

  00426	85 c0		 test	 eax, eax
  00428	74 79		 je	 SHORT $LN37@QuestEnd

; 630  : 				{
; 631  : 					if( strcmpi( pQuestProp->m_szEndCondCharacter, pMover->m_szCharacterKey ) == 0 && lpQuest->m_nState != QS_END )

  0042a	8b 4d f0	 mov	 ecx, DWORD PTR _pMover$1$[ebp]
  0042d	05 78 01 00 00	 add	 eax, 376		; 00000178H
  00432	81 c1 44 06 00
	00		 add	 ecx, 1604		; 00000644H
  00438	51		 push	 ecx
  00439	50		 push	 eax
  0043a	e8 00 00 00 00	 call	 _strcmpi
  0043f	83 c4 08	 add	 esp, 8
  00442	85 c0		 test	 eax, eax
  00444	75 73		 jne	 SHORT $LN17@QuestEnd
  00446	80 3e 0e	 cmp	 BYTE PTR [esi], 14	; 0000000eH
  00449	74 6e		 je	 SHORT $LN17@QuestEnd

; 632  : 					{
; 633  : 						if( __IsEndQuestCondition( pUser, lpQuest->m_wId ) )

  0044b	0f b7 46 04	 movzx	 eax, WORD PTR [esi+4]
  0044f	50		 push	 eax
  00450	57		 push	 edi
  00451	e8 00 00 00 00	 call	 ?__IsEndQuestCondition@@YAHPAVCMover@@H@Z ; __IsEndQuestCondition
  00456	83 c4 08	 add	 esp, 8
  00459	85 c0		 test	 eax, eax
  0045b	74 5c		 je	 SHORT $LN17@QuestEnd

; 634  : 						{
; 635  : 							__SayQuest( nPcId, lpQuest->m_wId, QSAY_END_COMPLETE1 );

  0045d	0f b7 46 04	 movzx	 eax, WORD PTR [esi+4]
  00461	6a 07		 push	 7
  00463	50		 push	 eax
  00464	53		 push	 ebx
  00465	e8 00 00 00 00	 call	 ?__SayQuest@@YAHHHH@Z	; __SayQuest

; 636  : 							__SayQuest( nPcId, lpQuest->m_wId, QSAY_END_COMPLETE2 );

  0046a	0f b7 46 04	 movzx	 eax, WORD PTR [esi+4]
  0046e	6a 08		 push	 8
  00470	50		 push	 eax
  00471	53		 push	 ebx
  00472	e8 00 00 00 00	 call	 ?__SayQuest@@YAHHHH@Z	; __SayQuest

; 637  : 							__SayQuest( nPcId, lpQuest->m_wId, QSAY_END_COMPLETE3 );

  00477	0f b7 46 04	 movzx	 eax, WORD PTR [esi+4]
  0047b	6a 09		 push	 9
  0047d	50		 push	 eax
  0047e	53		 push	 ebx
  0047f	e8 00 00 00 00	 call	 ?__SayQuest@@YAHHHH@Z	; __SayQuest

; 638  : 							__AddAnswer( nPcId,"__OK__", "QUEST_END_COMPLETE", 0, lpQuest->m_wId );

  00484	0f b7 46 04	 movzx	 eax, WORD PTR [esi+4]
  00488	50		 push	 eax
  00489	6a 00		 push	 0
  0048b	68 00 00 00 00	 push	 OFFSET ??_C@_0BD@FPHEAFPJ@QUEST_END_COMPLETE@
  00490	68 00 00 00 00	 push	 OFFSET ??_C@_06IGKDDLEP@__OK__@
  00495	53		 push	 ebx
  00496	e8 00 00 00 00	 call	 ?__AddAnswer@@YAHHPBD0KH@Z ; __AddAnswer
  0049b	83 c4 38	 add	 esp, 56			; 00000038H
  0049e	e9 95 00 00 00	 jmp	 $LN43@QuestEnd
$LN37@QuestEnd:

; 639  : 							bDialogText = FALSE;
; 640  : 							break;
; 641  : 						}
; 642  : 					}
; 643  : 				}
; 644  : 				else	WriteError( "__QuestEnd quest(%d) property null", lpQuest->m_wId );

  004a3	51		 push	 ecx
  004a4	68 00 00 00 00	 push	 OFFSET ??_C@_0CD@PMELMKJL@__QuestEnd?5quest?$CI?$CFd?$CJ?5property?5n@

; 645  : 			}

  004a9	eb 06		 jmp	 SHORT $LN195@QuestEnd
$LN35@QuestEnd:

; 646  : 			else	WriteError( "__QuestEnd : user member quest(%d) null", i  );

  004ab	51		 push	 ecx
  004ac	68 00 00 00 00	 push	 OFFSET ??_C@_0CI@KHJMFAEG@__QuestEnd?5?3?5user?5member?5quest?$CI@
$LN195@QuestEnd:

; 616  : 			}
; 617  : 		}
; 618  : 	}
; 619  : 	
; 620  : 	// żĎ·á °ˇ´ÉÇŃ Äů˝şĆ®°ˇ ŔÖ´ÂÁö °Ë»ç
; 621  : 	if( bCompleteCheck )
; 622  : 	{
; 623  : 		for( int i = 0; i < pUser->m_nQuestSize; ++i )

  004b1	e8 00 00 00 00	 call	 ?WriteError@@YAXPBDZZ	; WriteError
  004b6	83 c4 08	 add	 esp, 8
$LN17@QuestEnd:
  004b9	8b 4d ec	 mov	 ecx, DWORD PTR _i$1$[ebp]
  004bc	8b 55 e8	 mov	 edx, DWORD PTR tv1187[ebp]
  004bf	41		 inc	 ecx
  004c0	0f b6 87 96 0d
	00 00		 movzx	 eax, BYTE PTR [edi+3478]
  004c7	83 c2 0c	 add	 edx, 12			; 0000000cH
  004ca	89 4d ec	 mov	 DWORD PTR _i$1$[ebp], ecx
  004cd	89 55 e8	 mov	 DWORD PTR tv1187[ebp], edx
  004d0	3b c8		 cmp	 ecx, eax
  004d2	0f 8c 28 ff ff
	ff		 jl	 $LL19@QuestEnd
$LN189@QuestEnd:
  004d8	ba 01 00 00 00	 mov	 edx, 1
$LN185@QuestEnd:

; 647  : 		}
; 648  : 	}
; 649  : 
; 650  : 	if( bDialogText )
; 651  : 	{
; 652  : 		if( bNewQuest )

  004dd	83 7d e4 00	 cmp	 DWORD PTR _bNewQuest$1$[ebp], 0
  004e1	74 37		 je	 SHORT $LN42@QuestEnd
; File C:\Program Files\Microsoft Visual Studio\2022\Professional\VC\Tools\MSVC\14.44.35207\include\vector

; 1915 :         return static_cast<size_type>(_My_data._Mylast - _My_data._Myfirst);

  004e3	8b 45 d8	 mov	 eax, DWORD PTR _vecNewQuest$[ebp+4]
  004e6	8b 4d d4	 mov	 ecx, DWORD PTR _vecNewQuest$[ebp]
  004e9	2b c1		 sub	 eax, ecx
; File C:\IAGOS\server\v18\Source\Source\_Common\ScriptHelper.cpp

; 654  : 			if( vecNewQuest.size() == 1 && bCompleteCheck )	// ÁřÇŕ°ˇ´ÉÇŃ Äů˝şĆ®°ˇ ÇĎłŞ¸é ąŮ·Î Äů˝şĆ® Ľö¶ôĂ˘ ÇĄ˝Ă

  004eb	83 e0 fc	 and	 eax, -4			; fffffffcH
  004ee	83 f8 04	 cmp	 eax, 4
  004f1	75 15		 jne	 SHORT $LN44@QuestEnd
  004f3	85 d2		 test	 edx, edx
  004f5	74 11		 je	 SHORT $LN44@QuestEnd

; 655  : 				__QuestBegin( nPcId, nNpcId, vecNewQuest[ 0 ] );

  004f7	ff 31		 push	 DWORD PTR [ecx]
  004f9	8b 45 0c	 mov	 eax, DWORD PTR _nNpcId$[ebp]
  004fc	50		 push	 eax
  004fd	53		 push	 ebx
  004fe	e8 00 00 00 00	 call	 ?__QuestBegin@@YAXHHH@Z	; __QuestBegin
  00503	83 c4 0c	 add	 esp, 12			; 0000000cH
  00506	eb 30		 jmp	 SHORT $LN43@QuestEnd
$LN44@QuestEnd:

; 656  : 			else
; 657  : 				pMover->m_pNpcProperty->RunDialog( "#yesQuest", NULL, 0, nNpcId, nPcId, 0 ); // ÁŘşńµČ Äů˝şĆ®°ˇ ŔÖŔ» ¶§ŔÇ ŔÎ»ç¸»

  00508	8b 45 0c	 mov	 eax, DWORD PTR _nNpcId$[ebp]
  0050b	6a 00		 push	 0
  0050d	53		 push	 ebx
  0050e	50		 push	 eax
  0050f	6a 00		 push	 0
  00511	6a 00		 push	 0
  00513	68 00 00 00 00	 push	 OFFSET ??_C@_09EGGIOHJK@?$CDyesQuest@

; 658  : 		}

  00518	eb 10		 jmp	 SHORT $LN196@QuestEnd
$LN42@QuestEnd:

; 659  : 		else
; 660  : 			pMover->m_pNpcProperty->RunDialog( "#noQuest", NULL, 0, nNpcId, nPcId, 0 );	// ÁŘşńµČ Äů˝şĆ®°ˇ ľřŔ» ¶§ŔÇ ŔÎ»ç¸»

  0051a	8b 45 0c	 mov	 eax, DWORD PTR _nNpcId$[ebp]
  0051d	6a 00		 push	 0
  0051f	53		 push	 ebx
  00520	50		 push	 eax
  00521	6a 00		 push	 0
  00523	6a 00		 push	 0
  00525	68 00 00 00 00	 push	 OFFSET ??_C@_08PNOJACJF@?$CDnoQuest@
$LN196@QuestEnd:

; 755  : }

  0052a	8b 45 f0	 mov	 eax, DWORD PTR _pMover$1$[ebp]
  0052d	8b 88 c4 0d 00
	00		 mov	 ecx, DWORD PTR [eax+3524]
  00533	e8 00 00 00 00	 call	 ?RunDialog@CNpcProperty@@QAEHPBDPAHHHHH@Z ; CNpcProperty::RunDialog
$LN43@QuestEnd:
  00538	8d 4d c8	 lea	 ecx, DWORD PTR _vecCurrQuest$[ebp]
  0053b	e8 00 00 00 00	 call	 ??1?$vector@HV?$allocator@H@std@@@std@@QAE@XZ ; std::vector<int,std::allocator<int> >::~vector<int,std::allocator<int> >
  00540	8d 4d bc	 lea	 ecx, DWORD PTR _vecEndQuest$[ebp]
  00543	e8 00 00 00 00	 call	 ??1?$vector@HV?$allocator@H@std@@@std@@QAE@XZ ; std::vector<int,std::allocator<int> >::~vector<int,std::allocator<int> >
  00548	8d 4d b0	 lea	 ecx, DWORD PTR _vecNextQuest$[ebp]
  0054b	e8 00 00 00 00	 call	 ??1?$vector@HV?$allocator@H@std@@@std@@QAE@XZ ; std::vector<int,std::allocator<int> >::~vector<int,std::allocator<int> >
  00550	8d 4d d4	 lea	 ecx, DWORD PTR _vecNewQuest$[ebp]
  00553	e8 00 00 00 00	 call	 ??1?$vector@HV?$allocator@H@std@@@std@@QAE@XZ ; std::vector<int,std::allocator<int> >::~vector<int,std::allocator<int> >
  00558	8b 4d f4	 mov	 ecx, DWORD PTR __$EHRec$[ebp]
  0055b	64 89 0d 00 00
	00 00		 mov	 DWORD PTR fs:0, ecx
  00562	59		 pop	 ecx
  00563	5f		 pop	 edi
  00564	5e		 pop	 esi
  00565	5b		 pop	 ebx
  00566	8b e5		 mov	 esp, ebp
  00568	5d		 pop	 ebp
  00569	c3		 ret	 0
$LN162@QuestEnd:
; File C:\Program Files\Microsoft Visual Studio\2022\Professional\VC\Tools\MSVC\14.44.35207\atlmfc\include\afxcoll.inl

; 75   : 			AfxThrowInvalidArgException();

  0056a	e8 00 00 00 00	 call	 ?AfxThrowInvalidArgException@@YGXXZ ; AfxThrowInvalidArgException
$LN193@QuestEnd:
  0056f	cc		 int	 3
_TEXT	ENDS
;	COMDAT text$x
text$x	SEGMENT
__unwindfunclet$?__QuestEnd@@YAXHHAAHHH@Z$0:
  00000	8d 4d d4	 lea	 ecx, DWORD PTR _vecNewQuest$[ebp]
  00003	e9 00 00 00 00	 jmp	 ??1?$vector@HV?$allocator@H@std@@@std@@QAE@XZ ; std::vector<int,std::allocator<int> >::~vector<int,std::allocator<int> >
__unwindfunclet$?__QuestEnd@@YAXHHAAHHH@Z$1:
  00008	8d 4d b0	 lea	 ecx, DWORD PTR _vecNextQuest$[ebp]
  0000b	e9 00 00 00 00	 jmp	 ??1?$vector@HV?$allocator@H@std@@@std@@QAE@XZ ; std::vector<int,std::allocator<int> >::~vector<int,std::allocator<int> >
__unwindfunclet$?__QuestEnd@@YAXHHAAHHH@Z$2:
  00010	8d 4d bc	 lea	 ecx, DWORD PTR _vecEndQuest$[ebp]
  00013	e9 00 00 00 00	 jmp	 ??1?$vector@HV?$allocator@H@std@@@std@@QAE@XZ ; std::vector<int,std::allocator<int> >::~vector<int,std::allocator<int> >
__unwindfunclet$?__QuestEnd@@YAXHHAAHHH@Z$3:
  00018	8d 4d c8	 lea	 ecx, DWORD PTR _vecCurrQuest$[ebp]
  0001b	e9 00 00 00 00	 jmp	 ??1?$vector@HV?$allocator@H@std@@@std@@QAE@XZ ; std::vector<int,std::allocator<int> >::~vector<int,std::allocator<int> >
  00020	cc		 int	 3
  00021	cc		 int	 3
  00022	cc		 int	 3
  00023	cc		 int	 3
  00024	cc		 int	 3
__ehhandler$?__QuestEnd@@YAXHHAAHHH@Z:
  00025	90		 npad	 1
  00026	90		 npad	 1
  00027	8b 54 24 08	 mov	 edx, DWORD PTR [esp+8]
  0002b	8d 42 0c	 lea	 eax, DWORD PTR [edx+12]
  0002e	8b 4a ac	 mov	 ecx, DWORD PTR [edx-84]
  00031	33 c8		 xor	 ecx, eax
  00033	e8 00 00 00 00	 call	 @__security_check_cookie@4
  00038	b8 00 00 00 00	 mov	 eax, OFFSET __ehfuncinfo$?__QuestEnd@@YAXHHAAHHH@Z
  0003d	e9 00 00 00 00	 jmp	 ___CxxFrameHandler3
text$x	ENDS
?__QuestEnd@@YAXHHAAHHH@Z ENDP				; __QuestEnd
; Function compile flags: /Ogtp
; File C:\IAGOS\server\v18\Source\Source\_Common\ScriptHelper.cpp
;	COMDAT ?__QuestBegin@@YAXHHH@Z
_TEXT	SEGMENT
_nPcId$ = 8						; size = 4
_nNpcId$ = 12						; size = 4
_nQuestId$ = 16						; size = 4
?__QuestBegin@@YAXHHH@Z PROC				; __QuestBegin, COMDAT

; 499  : {

  00000	55		 push	 ebp
  00001	8b ec		 mov	 ebp, esp
  00003	53		 push	 ebx

; 500  : 	__SayQuest( nPcId, nQuestId, QSAY_BEGIN1 );

  00004	8b 5d 10	 mov	 ebx, DWORD PTR _nQuestId$[ebp]
  00007	57		 push	 edi
  00008	8b 7d 08	 mov	 edi, DWORD PTR _nPcId$[ebp]
  0000b	6a 00		 push	 0
  0000d	53		 push	 ebx
  0000e	57		 push	 edi
  0000f	e8 00 00 00 00	 call	 ?__SayQuest@@YAHHHH@Z	; __SayQuest

; 501  : 	__SayQuest( nPcId, nQuestId, QSAY_BEGIN2 );

  00014	6a 01		 push	 1
  00016	53		 push	 ebx
  00017	57		 push	 edi
  00018	e8 00 00 00 00	 call	 ?__SayQuest@@YAHHHH@Z	; __SayQuest

; 502  : 	__SayQuest( nPcId, nQuestId, QSAY_BEGIN3 );

  0001d	6a 02		 push	 2
  0001f	53		 push	 ebx
  00020	57		 push	 edi
  00021	e8 00 00 00 00	 call	 ?__SayQuest@@YAHHHH@Z	; __SayQuest

; 503  : 	__SayQuest( nPcId, nQuestId, QSAY_BEGIN4 );

  00026	6a 03		 push	 3
  00028	53		 push	 ebx
  00029	57		 push	 edi
  0002a	e8 00 00 00 00	 call	 ?__SayQuest@@YAHHHH@Z	; __SayQuest

; 504  : 	__SayQuest( nPcId, nQuestId, QSAY_BEGIN5 );

  0002f	6a 04		 push	 4
  00031	53		 push	 ebx
  00032	57		 push	 edi
  00033	e8 00 00 00 00	 call	 ?__SayQuest@@YAHHHH@Z	; __SayQuest

; 505  : 	__AddAnswer( nPcId, "__YES__", "QUEST_BEGIN_YES", 0, nQuestId );

  00038	53		 push	 ebx
  00039	6a 00		 push	 0
  0003b	68 00 00 00 00	 push	 OFFSET ??_C@_0BA@EPFIGFEN@QUEST_BEGIN_YES@
  00040	68 00 00 00 00	 push	 OFFSET ??_C@_07PLKPFOPO@__YES__@
  00045	57		 push	 edi
  00046	e8 00 00 00 00	 call	 ?__AddAnswer@@YAHHPBD0KH@Z ; __AddAnswer
  0004b	83 c4 50	 add	 esp, 80			; 00000050H

; 506  : 	__AddAnswer( nPcId, "__NO__", "QUEST_BEGIN_NO", 0, nQuestId  );

  0004e	53		 push	 ebx
  0004f	6a 00		 push	 0
  00051	68 00 00 00 00	 push	 OFFSET ??_C@_0P@JGHDECJC@QUEST_BEGIN_NO@
  00056	68 00 00 00 00	 push	 OFFSET ??_C@_06DEKBIFKI@__NO__@
  0005b	57		 push	 edi
  0005c	e8 00 00 00 00	 call	 ?__AddAnswer@@YAHHPBD0KH@Z ; __AddAnswer
  00061	83 c4 14	 add	 esp, 20			; 00000014H

; 507  : #if __VER < 15 // __IMPROVE_QUEST_INTERFACE
; 508  : 	__RemoveAllKey( nPcId );
; 509  : #endif // __IMPROVE_QUEST_INTERFACE
; 510  : 	// ±âĹ¸ ´ëČ­¸¦ Ŕ§ÇŃ Ĺ°¸¦ Ăß°ˇÇŃ´Ů.
; 511  : 	CMover* pMover = prj.GetMover( nNpcId );

  00064	b9 00 00 00 00	 mov	 ecx, OFFSET ?prj@@3VCProject@@A ; prj
  00069	ff 75 0c	 push	 DWORD PTR _nNpcId$[ebp]
  0006c	e8 00 00 00 00	 call	 ?GetMover@CProject@@QAEPAVCMover@@K@Z ; CProject::GetMover

; 512  : #if __VER < 15 // __IMPROVE_QUEST_INTERFACE
; 513  : 	pMover->m_pNpcProperty->RunDialog( "#addKey", NULL, 0, nNpcId, nPcId, 0 );
; 514  : #endif // __IMPROVE_QUEST_INTERFACE
; 515  : 	pMover->m_pNpcProperty->RunDialog( "#questBegin", NULL, 0, nNpcId, nPcId, nQuestId );

  00071	53		 push	 ebx
  00072	57		 push	 edi
  00073	ff 75 0c	 push	 DWORD PTR _nNpcId$[ebp]
  00076	8b 88 c4 0d 00
	00		 mov	 ecx, DWORD PTR [eax+3524]
  0007c	6a 00		 push	 0
  0007e	6a 00		 push	 0
  00080	68 00 00 00 00	 push	 OFFSET ??_C@_0M@OBIOHPLB@?$CDquestBegin@
  00085	e8 00 00 00 00	 call	 ?RunDialog@CNpcProperty@@QAEHPBDPAHHHHH@Z ; CNpcProperty::RunDialog
  0008a	5f		 pop	 edi
  0008b	5b		 pop	 ebx

; 516  : }

  0008c	5d		 pop	 ebp
  0008d	c3		 ret	 0
?__QuestBegin@@YAXHHH@Z ENDP				; __QuestBegin
_TEXT	ENDS
; Function compile flags: /Ogtp
; File C:\IAGOS\server\v18\Source\Source\_Common\ScriptHelper.cpp
; File C:\IAGOS\server\v18\Source\Source\_Common\data.h
; File C:\IAGOS\server\v18\Source\Source\_Common\ScriptHelper.cpp
;	COMDAT ?__AddQuestKey@@YAHHHPBDHH@Z
_TEXT	SEGMENT
_rsf$ = -2332						; size = 2072
_szKey$ = -260						; size = 128
_szWord$ = -132						; size = 128
__$ArrayPad$ = -4					; size = 4
_nPcId$ = 8						; size = 4
_nQuestId$ = 12						; size = 4
_lpKey$ = 16						; size = 4
_nParam$ = 20						; size = 4
_bNew$ = 24						; size = 4
?__AddQuestKey@@YAHHHPBDHH@Z PROC			; __AddQuestKey, COMDAT

; 471  : {

  00000	55		 push	 ebp
  00001	8b ec		 mov	 ebp, esp
  00003	81 ec 1c 09 00
	00		 sub	 esp, 2332		; 0000091cH
  00009	a1 00 00 00 00	 mov	 eax, DWORD PTR ___security_cookie
  0000e	33 c5		 xor	 eax, ebp
  00010	89 45 fc	 mov	 DWORD PTR __$ArrayPad$[ebp], eax
  00013	53		 push	 ebx
  00014	56		 push	 esi
  00015	8b 75 08	 mov	 esi, DWORD PTR _nPcId$[ebp]
  00018	57		 push	 edi
  00019	8b 7d 0c	 mov	 edi, DWORD PTR _nQuestId$[ebp]
; File C:\IAGOS\server\v18\Source\Source\_Common\data.h

; 270  : 	if( dwIndex >= (DWORD)m_nMaxIndex )

  0001c	3b 3d f4 02 00
	00		 cmp	 edi, DWORD PTR ?prj@@3VCProject@@A+756
  00022	73 29		 jae	 SHORT $LN2@AddQuestKe

; 271  : 		return NULL;
; 272  : 	return (T*) m_apOffset[ dwIndex ];

  00024	a1 e4 02 00 00	 mov	 eax, DWORD PTR ?prj@@3VCProject@@A+740
  00029	8b 0c b8	 mov	 ecx, DWORD PTR [eax+edi*4]
; File C:\IAGOS\server\v18\Source\Source\_Common\ScriptHelper.cpp

; 474  : 	if( pQuestProp )

  0002c	85 c9		 test	 ecx, ecx
  0002e	74 1d		 je	 SHORT $LN2@AddQuestKe

; 475  : 		strcpy( szWord, pQuestProp->m_szTitle );

  00030	83 c1 02	 add	 ecx, 2
  00033	8d 95 7c ff ff
	ff		 lea	 edx, DWORD PTR _szWord$[ebp]
  00039	2b d1		 sub	 edx, ecx
  0003b	0f 1f 44 00 00	 npad	 5
$LL8@AddQuestKe:
  00040	8a 01		 mov	 al, BYTE PTR [ecx]
  00042	8d 49 01	 lea	 ecx, DWORD PTR [ecx+1]
  00045	88 44 0a ff	 mov	 BYTE PTR [edx+ecx-1], al
  00049	84 c0		 test	 al, al
  0004b	75 f3		 jne	 SHORT $LL8@AddQuestKe
$LN2@AddQuestKe:

; 476  : 	if( lpKey[0] == '\0' ) 

  0004d	8b 4d 10	 mov	 ecx, DWORD PTR _lpKey$[ebp]
  00050	80 39 00	 cmp	 BYTE PTR [ecx], 0
  00053	75 22		 jne	 SHORT $LN3@AddQuestKe

; 477  : 		strcpy( szKey, szWord );

  00055	33 c9		 xor	 ecx, ecx
  00057	66 0f 1f 84 00
	00 00 00 00	 npad	 9
$LL9@AddQuestKe:
  00060	8a 84 0d 7c ff
	ff ff		 mov	 al, BYTE PTR _szWord$[ebp+ecx]
  00067	8d 49 01	 lea	 ecx, DWORD PTR [ecx+1]
  0006a	88 84 0d fb fe
	ff ff		 mov	 BYTE PTR _szKey$[ebp+ecx-1], al
  00071	84 c0		 test	 al, al
  00073	75 eb		 jne	 SHORT $LL9@AddQuestKe
  00075	eb 16		 jmp	 SHORT $LN4@AddQuestKe
$LN3@AddQuestKe:

; 478  : 	else
; 479  : 		strcpy( szKey, lpKey );

  00077	8d 95 fc fe ff
	ff		 lea	 edx, DWORD PTR _szKey$[ebp]
  0007d	2b d1		 sub	 edx, ecx
  0007f	90		 npad	 1
$LL10@AddQuestKe:
  00080	8a 01		 mov	 al, BYTE PTR [ecx]
  00082	8d 49 01	 lea	 ecx, DWORD PTR [ecx+1]
  00085	88 44 0a ff	 mov	 BYTE PTR [edx+ecx-1], al
  00089	84 c0		 test	 al, al
  0008b	75 f3		 jne	 SHORT $LL10@AddQuestKe
$LN4@AddQuestKe:

; 480  : 
; 481  : 	CUser* pUser	= prj.GetUser( nPcId );

  0008d	56		 push	 esi
  0008e	b9 00 00 00 00	 mov	 ecx, OFFSET ?prj@@3VCProject@@A ; prj
  00093	e8 00 00 00 00	 call	 ?GetUser@CProject@@QAEPAVCUser@@K@Z ; CProject::GetUser

; 482  : 	RunScriptFunc rsf;
; 483  : #if __VER >= 15 // __IMPROVE_QUEST_INTERFACE
; 484  : 	if( bNew )

  00098	83 7d 18 00	 cmp	 DWORD PTR _bNew$[ebp], 0
  0009c	8b d8		 mov	 ebx, eax

; 485  : 		rsf.wFuncType		= FUNCTYPE_NEWQUEST;

  0009e	b8 26 00 00 00	 mov	 eax, 38			; 00000026H
  000a3	75 05		 jne	 SHORT $LN27@AddQuestKe

; 486  : 	else
; 487  : 		rsf.wFuncType		= FUNCTYPE_CURRQUEST;

  000a5	b8 27 00 00 00	 mov	 eax, 39			; 00000027H
$LN27@AddQuestKe:

; 488  : #else // __IMPROVE_QUEST_INTERFACE
; 489  : 	rsf.wFuncType		= FUNCTYPE_ADDKEY;
; 490  : #endif // __IMPROVE_QUEST_INTERFACE
; 491  : 	lstrcpy( rsf.lpszVal1, szWord );

  000aa	8b 35 00 00 00
	00		 mov	 esi, DWORD PTR __imp__lstrcpyA@8
  000b0	66 89 85 ec fe
	ff ff		 mov	 WORD PTR _rsf$[ebp+2056], ax
  000b7	8d 85 7c ff ff
	ff		 lea	 eax, DWORD PTR _szWord$[ebp]
  000bd	50		 push	 eax
  000be	8d 85 e4 f6 ff
	ff		 lea	 eax, DWORD PTR _rsf$[ebp]
  000c4	50		 push	 eax
  000c5	ff d6		 call	 esi

; 492  : 	lstrcpy( rsf.lpszVal2, szKey );

  000c7	8d 85 fc fe ff
	ff		 lea	 eax, DWORD PTR _szKey$[ebp]
  000cd	50		 push	 eax
  000ce	8d 85 e4 fa ff
	ff		 lea	 eax, DWORD PTR _rsf$[ebp+1024]
  000d4	50		 push	 eax
  000d5	ff d6		 call	 esi

; 493  : 	rsf.dwVal1	= nParam;

  000d7	8b 45 14	 mov	 eax, DWORD PTR _nParam$[ebp]

; 494  : 	rsf.dwVal2 = nQuestId;
; 495  : 	pUser->AddRunScriptFunc( rsf );

  000da	8b cb		 mov	 ecx, ebx
  000dc	89 85 e4 fe ff
	ff		 mov	 DWORD PTR _rsf$[ebp+2048], eax
  000e2	8d 85 e4 f6 ff
	ff		 lea	 eax, DWORD PTR _rsf$[ebp]
  000e8	50		 push	 eax
  000e9	89 bd e8 fe ff
	ff		 mov	 DWORD PTR _rsf$[ebp+2052], edi
  000ef	e8 00 00 00 00	 call	 ?AddRunScriptFunc@CUser@@QAEXABU_runscriptfunc@@@Z ; CUser::AddRunScriptFunc

; 496  : 	return 1;
; 497  : }

  000f4	8b 4d fc	 mov	 ecx, DWORD PTR __$ArrayPad$[ebp]
  000f7	b8 01 00 00 00	 mov	 eax, 1
  000fc	5f		 pop	 edi
  000fd	5e		 pop	 esi
  000fe	33 cd		 xor	 ecx, ebp
  00100	5b		 pop	 ebx
  00101	e8 00 00 00 00	 call	 @__security_check_cookie@4
  00106	8b e5		 mov	 esp, ebp
  00108	5d		 pop	 ebp
  00109	c3		 ret	 0
?__AddQuestKey@@YAHHHPBDHH@Z ENDP			; __AddQuestKey
_TEXT	ENDS
; Function compile flags: /Ogtp
; File C:\IAGOS\server\v18\Source\Source\_Common\ScriptHelper.cpp
; File C:\IAGOS\server\v18\Source\Source\_Common\data.h
; File C:\IAGOS\server\v18\Source\Source\_Common\ScriptHelper.cpp
; File C:\IAGOS\server\v18\Source\Source\_Common\Item.h
; File C:\IAGOS\server\v18\Source\Source\_Common\ScriptHelper.cpp
; File C:\IAGOS\server\v18\Source\Source\_Common\xUtil.h
; File C:\IAGOS\server\v18\Source\Source\_Common\ScriptHelper.cpp
; File C:\IAGOS\server\v18\Source\Source\_Common\xUtil.h
; File C:\IAGOS\server\v18\Source\Source\_Common\ScriptHelper.cpp
; File C:\IAGOS\server\v18\Source\Source\_Common\xUtil.h
; File C:\IAGOS\server\v18\Source\Source\_Common\ScriptHelper.cpp
; File C:\IAGOS\server\v18\Source\Source\_Common\xUtil.h
; File C:\IAGOS\server\v18\Source\Source\_Common\ScriptHelper.cpp
; File C:\IAGOS\server\v18\Source\Source\_Common\xUtil.h
; File C:\IAGOS\server\v18\Source\Source\_Common\ScriptHelper.cpp
; File C:\IAGOS\server\v18\Source\Source\_Common\xUtil.h
; File C:\IAGOS\server\v18\Source\Source\_Common\ScriptHelper.cpp
; File C:\IAGOS\server\v18\Source\Source\_Common\xUtil.h
; File C:\IAGOS\server\v18\Source\Source\_Common\ScriptHelper.cpp
;	COMDAT ?__EndQuest@@YAHHHH@Z
_TEXT	SEGMENT
_nQuestId$GSCopy$1$ = -2108				; size = 4
tv1502 = -2104						; size = 4
_nItemNum$1$ = -2104					; size = 4
$T1 = -2100						; size = 4
_nPcId$GSCopy$1$ = -2096				; size = 4
_nItemNum$1$ = -2092					; size = 4
tv1530 = -2088						; size = 4
tv1484 = -2084						; size = 4
tv1486 = -2084						; size = 4
tv1531 = -2084						; size = 4
_i$1$ = -2080						; size = 4
_i$1$ = -2080						; size = 4
_rsf$2 = -2076						; size = 2072
__$ArrayPad$ = -4					; size = 4
_nPcId$ = 8						; size = 4
_nQuestId$ = 12						; size = 4
_IsEndQuestCondition$ = 16				; size = 4
?__EndQuest@@YAHHHH@Z PROC				; __EndQuest, COMDAT

; 244  : {

  00000	55		 push	 ebp
  00001	8b ec		 mov	 ebp, esp
  00003	81 ec 3c 08 00
	00		 sub	 esp, 2108		; 0000083cH
  00009	a1 00 00 00 00	 mov	 eax, DWORD PTR ___security_cookie
  0000e	33 c5		 xor	 eax, ebp
  00010	89 45 fc	 mov	 DWORD PTR __$ArrayPad$[ebp], eax
  00013	8b 4d 08	 mov	 ecx, DWORD PTR _nPcId$[ebp]
  00016	53		 push	 ebx
  00017	56		 push	 esi
  00018	8b 75 0c	 mov	 esi, DWORD PTR _nQuestId$[ebp]
  0001b	57		 push	 edi
  0001c	89 8d d0 f7 ff
	ff		 mov	 DWORD PTR _nPcId$GSCopy$1$[ebp], ecx
  00022	89 b5 c4 f7 ff
	ff		 mov	 DWORD PTR _nQuestId$GSCopy$1$[ebp], esi
; File C:\IAGOS\server\v18\Source\Source\_Common\data.h

; 270  : 	if( dwIndex >= (DWORD)m_nMaxIndex )

  00028	3b 35 f4 02 00
	00		 cmp	 esi, DWORD PTR ?prj@@3VCProject@@A+756
  0002e	0f 83 b7 05 00
	00		 jae	 $LN17@EndQuest

; 271  : 		return NULL;
; 272  : 	return (T*) m_apOffset[ dwIndex ];

  00034	a1 e4 02 00 00	 mov	 eax, DWORD PTR ?prj@@3VCProject@@A+740
  00039	8b 3c b0	 mov	 edi, DWORD PTR [eax+esi*4]
  0003c	89 bd cc f7 ff
	ff		 mov	 DWORD PTR $T1[ebp], edi
; File C:\IAGOS\server\v18\Source\Source\_Common\ScriptHelper.cpp

; 248  : 	if( pQuestProp )

  00042	85 ff		 test	 edi, edi
  00044	0f 84 a1 05 00
	00		 je	 $LN17@EndQuest

; 249  : 	{
; 250  : 		CUser* pUser = prj.GetUser( nPcId );

  0004a	51		 push	 ecx
  0004b	b9 00 00 00 00	 mov	 ecx, OFFSET ?prj@@3VCProject@@A ; prj
  00050	e8 00 00 00 00	 call	 ?GetUser@CProject@@QAEPAVCUser@@K@Z ; CProject::GetUser

; 251  : 		if( IsEndQuestCondition )

  00055	83 7d 10 00	 cmp	 DWORD PTR _IsEndQuestCondition$[ebp], 0
  00059	8b d8		 mov	 ebx, eax
  0005b	74 12		 je	 SHORT $LN19@EndQuest

; 252  : 		{
; 253  : 			if( __IsEndQuestCondition( pUser, nQuestId ) == 0 )

  0005d	56		 push	 esi
  0005e	53		 push	 ebx
  0005f	e8 00 00 00 00	 call	 ?__IsEndQuestCondition@@YAHPAVCMover@@H@Z ; __IsEndQuestCondition
  00064	83 c4 08	 add	 esp, 8
  00067	85 c0		 test	 eax, eax
  00069	0f 84 90 01 00
	00		 je	 $LN206@EndQuest
$LN19@EndQuest:

; 258  : 		for( int i = 0; i < pQuestProp->m_nEndRewardItemNum; i++ )

  0006f	33 c9		 xor	 ecx, ecx
  00071	c7 85 d4 f7 ff
	ff 00 00 00 00	 mov	 DWORD PTR _nItemNum$1$[ebp], 0
  0007b	8d 87 84 03 00
	00		 lea	 eax, DWORD PTR [edi+900]
  00081	89 8d e0 f7 ff
	ff		 mov	 DWORD PTR _i$1$[ebp], ecx
  00087	89 85 d8 f7 ff
	ff		 mov	 DWORD PTR tv1530[ebp], eax
  0008d	39 08		 cmp	 DWORD PTR [eax], ecx
  0008f	0f 8e 0e 01 00
	00		 jle	 $LN3@EndQuest

; 254  : 				return FALSE;
; 255  : 		}
; 256  : 		// ş¸»ó ľĆŔĚĹŰ °ąĽö ¸¸Ĺ­, ŔÎşĄĹä¸® ż©ŔŻ°ˇ ŔÖ´Â°ˇ?
; 257  : 		int nItemNum = 0;

  00095	8b 35 40 02 00
	00		 mov	 esi, DWORD PTR ?prj@@3VCProject@@A+576
  0009b	8d 87 80 03 00
	00		 lea	 eax, DWORD PTR [edi+896]
  000a1	8b 95 d8 f7 ff
	ff		 mov	 edx, DWORD PTR tv1530[ebp]
  000a7	89 85 c8 f7 ff
	ff		 mov	 DWORD PTR tv1502[ebp], eax
  000ad	33 c0		 xor	 eax, eax
  000af	89 85 dc f7 ff
	ff		 mov	 DWORD PTR tv1486[ebp], eax
  000b5	89 bd cc f7 ff
	ff		 mov	 DWORD PTR $T1[ebp], edi
  000bb	0f 1f 44 00 00	 npad	 5
$LL4@EndQuest:

; 259  : 		{
; 260  : 			QuestPropItem* pEndRewardItem = &pQuestProp->m_paEndRewardItem[ i ];

  000c0	8b bd c8 f7 ff
	ff		 mov	 edi, DWORD PTR tv1502[ebp]
  000c6	8b 3f		 mov	 edi, DWORD PTR [edi]
  000c8	03 f8		 add	 edi, eax

; 261  : 			if( pEndRewardItem->m_nSex == -1 || pEndRewardItem->m_nSex == pUser->GetSex() )

  000ca	8a 07		 mov	 al, BYTE PTR [edi]
  000cc	3c ff		 cmp	 al, -1
  000ce	74 18		 je	 SHORT $LN21@EndQuest
  000d0	0f b6 8b 18 06
	00 00		 movzx	 ecx, BYTE PTR [ebx+1560]
  000d7	0f be c0	 movsx	 eax, al
  000da	3b c1		 cmp	 eax, ecx
  000dc	8b 8d e0 f7 ff
	ff		 mov	 ecx, DWORD PTR _i$1$[ebp]
  000e2	0f 85 97 00 00
	00		 jne	 $LN2@EndQuest
$LN21@EndQuest:

; 262  : 			{
; 263  : 				if( pEndRewardItem->m_nType == 0 )

  000e8	8a 47 01	 mov	 al, BYTE PTR [edi+1]
  000eb	84 c0		 test	 al, al
  000ed	75 33		 jne	 SHORT $LN22@EndQuest

; 264  : 				{
; 265  : 					if( pEndRewardItem->m_nJobOrItem == -1 || pEndRewardItem->m_nJobOrItem == pUser->GetJob() )

  000ef	83 7f 04 ff	 cmp	 DWORD PTR [edi+4], -1
  000f3	74 14		 je	 SHORT $LN25@EndQuest
  000f5	8b 77 04	 mov	 esi, DWORD PTR [edi+4]
  000f8	8b cb		 mov	 ecx, ebx
  000fa	e8 00 00 00 00	 call	 ?GetJob@CMover@@QAEHXZ	; CMover::GetJob
  000ff	3b f0		 cmp	 esi, eax
  00101	75 37		 jne	 SHORT $LN139@EndQuest
$LN210@EndQuest:

; 258  : 		for( int i = 0; i < pQuestProp->m_nEndRewardItemNum; i++ )

  00103	8b 35 40 02 00
	00		 mov	 esi, DWORD PTR ?prj@@3VCProject@@A+576
$LN25@EndQuest:
  00109	8b 4f 08	 mov	 ecx, DWORD PTR [edi+8]
  0010c	85 c9		 test	 ecx, ecx
  0010e	74 63		 je	 SHORT $LN147@EndQuest
  00110	78 30		 js	 SHORT $LN84@EndQuest
  00112	3b ce		 cmp	 ecx, esi
  00114	7d 2c		 jge	 SHORT $LN84@EndQuest
  00116	73 46		 jae	 SHORT $LN205@EndQuest
  00118	a1 30 02 00 00	 mov	 eax, DWORD PTR ?prj@@3VCProject@@A+560
  0011d	8b 0c 88	 mov	 ecx, DWORD PTR [eax+ecx*4]
  00120	eb 3e		 jmp	 SHORT $LN79@EndQuest
$LN22@EndQuest:

; 266  : 					{
; 267  : 						if( pEndRewardItem->m_nItemIdx )
; 268  : 						{
; 269  : 							ItemProp* pItemProp = prj.GetItemProp(  pEndRewardItem->m_nItemIdx );
; 270  : 							int nDiv = pEndRewardItem->m_nItemNum / pItemProp->dwPackMax;
; 271  : 							int nSur = pEndRewardItem->m_nItemNum % pItemProp->dwPackMax;
; 272  : 							if( nSur ) nDiv++;
; 273  : 							nItemNum += nDiv;
; 274  : 						}
; 275  : 					}
; 276  : 				}
; 277  : 				else
; 278  : 				if( pEndRewardItem->m_nType == 1 )

  00122	3c 01		 cmp	 al, 1
  00124	75 59		 jne	 SHORT $LN2@EndQuest

; 279  : 				{
; 280  : 					if( pEndRewardItem->m_nJobOrItem == -1 || pUser->GetItemNum( pEndRewardItem->m_nJobOrItem ) )

  00126	8b 47 04	 mov	 eax, DWORD PTR [edi+4]
  00129	83 f8 ff	 cmp	 eax, -1
  0012c	74 db		 je	 SHORT $LN25@EndQuest
  0012e	50		 push	 eax
  0012f	8b cb		 mov	 ecx, ebx
  00131	e8 00 00 00 00	 call	 ?GetItemNum@CMover@@QAEHK@Z ; CMover::GetItemNum
  00136	85 c0		 test	 eax, eax
  00138	75 c9		 jne	 SHORT $LN210@EndQuest
$LN139@EndQuest:
  0013a	8b 35 40 02 00
	00		 mov	 esi, DWORD PTR ?prj@@3VCProject@@A+576
  00140	eb 31		 jmp	 SHORT $LN147@EndQuest
$LN84@EndQuest:

; 258  : 		for( int i = 0; i < pQuestProp->m_nEndRewardItemNum; i++ )

  00142	51		 push	 ecx
  00143	56		 push	 esi
  00144	6a 00		 push	 0
  00146	68 00 00 00 00	 push	 OFFSET ??_C@_0BI@BEIFNGEL@GetItemProp?5range_error@
  0014b	68 00 00 00 00	 push	 OFFSET ??_C@_0BM@HMFGHCP@?$CFs?5min?3?$CFd?0?5max?3?$CFd?0?5index?3?$CFd@
  00150	e8 00 00 00 00	 call	 ?Error@@YAPBDPBDZZ	; Error
  00155	8b 35 40 02 00
	00		 mov	 esi, DWORD PTR ?prj@@3VCProject@@A+576
  0015b	83 c4 14	 add	 esp, 20			; 00000014H
$LN205@EndQuest:
  0015e	33 c9		 xor	 ecx, ecx
$LN79@EndQuest:
  00160	8b 47 0c	 mov	 eax, DWORD PTR [edi+12]
  00163	33 d2		 xor	 edx, edx
  00165	f7 71 6c	 div	 DWORD PTR [ecx+108]
  00168	85 d2		 test	 edx, edx
  0016a	74 01		 je	 SHORT $LN32@EndQuest
  0016c	40		 inc	 eax
$LN32@EndQuest:
  0016d	01 85 d4 f7 ff
	ff		 add	 DWORD PTR _nItemNum$1$[ebp], eax
$LN147@EndQuest:
  00173	8b 8d e0 f7 ff
	ff		 mov	 ecx, DWORD PTR _i$1$[ebp]
  00179	8b 95 d8 f7 ff
	ff		 mov	 edx, DWORD PTR tv1530[ebp]
$LN2@EndQuest:
  0017f	8b 85 dc f7 ff
	ff		 mov	 eax, DWORD PTR tv1486[ebp]
  00185	41		 inc	 ecx
  00186	83 c0 28	 add	 eax, 40			; 00000028H
  00189	89 8d e0 f7 ff
	ff		 mov	 DWORD PTR _i$1$[ebp], ecx
  0018f	89 85 dc f7 ff
	ff		 mov	 DWORD PTR tv1486[ebp], eax
  00195	3b 0a		 cmp	 ecx, DWORD PTR [edx]
  00197	0f 8c 23 ff ff
	ff		 jl	 $LL4@EndQuest
  0019d	8b bd cc f7 ff
	ff		 mov	 edi, DWORD PTR $T1[ebp]
$LN3@EndQuest:
; File C:\IAGOS\server\v18\Source\Source\_Common\Item.h

; 420  : 			for( DWORD i = 0; i < m_dwItemMax; i++ )

  001a3	8b b3 08 0b 00
	00		 mov	 esi, DWORD PTR [ebx+2824]
  001a9	33 d2		 xor	 edx, edx
  001ab	85 f6		 test	 esi, esi
  001ad	74 25		 je	 SHORT $LN93@EndQuest

; 421  : 			{
; 422  : 				if( m_apItem[i].IsEmpty() && m_apItem[i].m_dwObjIndex < m_dwIndexNum )

  001af	8b 8b 0c 0b 00
	00		 mov	 ecx, DWORD PTR [ebx+2828]
  001b5	83 c1 08	 add	 ecx, 8
$LL94@EndQuest:

; 50   : 	BOOL			IsEmpty() { return m_dwItemId ? FALSE : TRUE; }

  001b8	83 79 04 00	 cmp	 DWORD PTR [ecx+4], 0

; 422  : 				if( m_apItem[i].IsEmpty() && m_apItem[i].m_dwObjIndex < m_dwIndexNum )

  001bc	75 0b		 jne	 SHORT $LN92@EndQuest
  001be	8b 01		 mov	 eax, DWORD PTR [ecx]
  001c0	3b 83 04 0b 00
	00		 cmp	 eax, DWORD PTR [ebx+2820]
  001c6	73 01		 jae	 SHORT $LN92@EndQuest

; 423  : 					nCount++;

  001c8	42		 inc	 edx
$LN92@EndQuest:

; 420  : 			for( DWORD i = 0; i < m_dwItemMax; i++ )

  001c9	81 c1 b0 00 00
	00		 add	 ecx, 176		; 000000b0H
  001cf	83 ee 01	 sub	 esi, 1
  001d2	75 e4		 jne	 SHORT $LL94@EndQuest
$LN93@EndQuest:
; File C:\IAGOS\server\v18\Source\Source\_Common\ScriptHelper.cpp

; 294  : 		if( nItemNum > pUser->m_Inventory.GetEmptyCount() ) 

  001d4	39 95 d4 f7 ff
	ff		 cmp	 DWORD PTR _nItemNum$1$[ebp], edx
  001da	7e 36		 jle	 SHORT $LN33@EndQuest

; 295  : 		{
; 296  : 			pUser->AddDefinedText( TID_QUEST_NOINVENTORYSPACE ); // ŔÎşĄĹä¸® °ř°ŁŔĚ ľřľîĽ­ Äů˝şĆ®¸¦ żĎ·áÇŇ Ľö ľř˝Ŕ´Ď´Ů.

  001dc	68 e0 09 00 00	 push	 2528			; 000009e0H
  001e1	8b cb		 mov	 ecx, ebx
  001e3	e8 00 00 00 00	 call	 ?AddDefinedText@CUser@@QAEXH@Z ; CUser::AddDefinedText

; 297  : 			RunScriptFunc rsf;
; 298  : 			rsf.wFuncType		= FUNCTYPE_EXIT;

  001e8	b8 16 00 00 00	 mov	 eax, 22			; 00000016H

; 299  : 			pUser->AddRunScriptFunc( rsf );

  001ed	8b cb		 mov	 ecx, ebx
  001ef	66 89 45 ec	 mov	 WORD PTR _rsf$2[ebp+2056], ax
  001f3	8d 85 e4 f7 ff
	ff		 lea	 eax, DWORD PTR _rsf$2[ebp]
  001f9	50		 push	 eax
  001fa	e8 00 00 00 00	 call	 ?AddRunScriptFunc@CUser@@QAEXABU_runscriptfunc@@@Z ; CUser::AddRunScriptFunc
$LN206@EndQuest:

; 462  : 	}
; 463  : 	return 1;
; 464  : }

  001ff	5f		 pop	 edi
  00200	5e		 pop	 esi
  00201	33 c0		 xor	 eax, eax
  00203	5b		 pop	 ebx
  00204	8b 4d fc	 mov	 ecx, DWORD PTR __$ArrayPad$[ebp]
  00207	33 cd		 xor	 ecx, ebp
  00209	e8 00 00 00 00	 call	 @__security_check_cookie@4
  0020e	8b e5		 mov	 esp, ebp
  00210	5d		 pop	 ebp
  00211	c3		 ret	 0
$LN33@EndQuest:

; 300  : 			return FALSE;
; 301  : 		}
; 302  : 		////////////////////////////
; 303  : 		// ş¸»ó Áö±Ţ 
; 304  : 		////////////////////////////
; 305  : 		for( int i = 0; i < pQuestProp->m_nEndRewardItemNum; i++ )

  00212	33 c9		 xor	 ecx, ecx
  00214	89 8d e0 f7 ff
	ff		 mov	 DWORD PTR _i$1$[ebp], ecx
  0021a	39 8f 84 03 00
	00		 cmp	 DWORD PTR [edi+900], ecx
  00220	0f 8e b0 00 00
	00		 jle	 $LN6@EndQuest
  00226	33 c0		 xor	 eax, eax
  00228	89 85 dc f7 ff
	ff		 mov	 DWORD PTR tv1484[ebp], eax
  0022e	66 90		 npad	 2
$LL7@EndQuest:

; 306  : 		{
; 307  : 			QuestPropItem* pEndRewardItem = &pQuestProp->m_paEndRewardItem[ i ];

  00230	8b bf 80 03 00
	00		 mov	 edi, DWORD PTR [edi+896]
  00236	03 f8		 add	 edi, eax

; 308  : 			if( pEndRewardItem->m_nSex == -1 || pEndRewardItem->m_nSex == pUser->GetSex() )

  00238	8a 07		 mov	 al, BYTE PTR [edi]
  0023a	3c ff		 cmp	 al, -1
  0023c	74 14		 je	 SHORT $LN35@EndQuest
  0023e	0f b6 8b 18 06
	00 00		 movzx	 ecx, BYTE PTR [ebx+1560]
  00245	0f be c0	 movsx	 eax, al
  00248	3b c1		 cmp	 eax, ecx
  0024a	8b 8d e0 f7 ff
	ff		 mov	 ecx, DWORD PTR _i$1$[ebp]
  00250	75 5c		 jne	 SHORT $LN5@EndQuest
$LN35@EndQuest:

; 309  : 			{
; 310  : 				if( pEndRewardItem->m_nType == 0 )

  00252	8a 47 01	 mov	 al, BYTE PTR [edi+1]
  00255	84 c0		 test	 al, al
  00257	75 16		 jne	 SHORT $LN36@EndQuest

; 311  : 				{
; 312  : 					if( pEndRewardItem->m_nJobOrItem == -1 || pEndRewardItem->m_nJobOrItem == pUser->GetJob() )

  00259	83 7f 04 ff	 cmp	 DWORD PTR [edi+4], -1
  0025d	74 28		 je	 SHORT $LN43@EndQuest
  0025f	8b 77 04	 mov	 esi, DWORD PTR [edi+4]
  00262	8b cb		 mov	 ecx, ebx
  00264	e8 00 00 00 00	 call	 ?GetJob@CMover@@QAEHXZ	; CMover::GetJob
  00269	3b f0		 cmp	 esi, eax
  0026b	75 3b		 jne	 SHORT $LN144@EndQuest

; 313  : 					{
; 314  : 						if( pEndRewardItem->m_nItemIdx )
; 315  : 						{
; 316  : 							int nItemNum = pEndRewardItem->m_nItemNum;
; 317  : #ifdef __JEFF_11
; 318  : #if __VER >= 13 // __CHIPI_QUESTITEM_FLAG
; 319  : 							__CreateItem( nPcId, pEndRewardItem->m_nItemIdx, nItemNum, pEndRewardItem->m_nAbilityOption, pEndRewardItem->m_byFlag );
; 320  : #else // __CHIPI_QUESTITEM_FLAG
; 321  : 							__CreateItem( nPcId, pEndRewardItem->m_nItemIdx, nItemNum, pEndRewardItem->m_nAbilityOption );
; 322  : #endif // __CHIPI_QUESTITEM_FLAG
; 323  : #else	// __JEFF_11
; 324  : 							__CreateItem( nPcId, pEndRewardItem->m_nItemIdx, nItemNum );
; 325  : #endif	// __JEFF_11
; 326  : 						}
; 327  : 					}
; 328  : 				}

  0026d	eb 18		 jmp	 SHORT $LN43@EndQuest
$LN36@EndQuest:

; 329  : 				else
; 330  : 				if( pEndRewardItem->m_nType == 1 )

  0026f	3c 01		 cmp	 al, 1
  00271	75 3b		 jne	 SHORT $LN5@EndQuest

; 331  : 				{
; 332  : 					if( pEndRewardItem->m_nJobOrItem == -1 || pUser->GetItemNum( pEndRewardItem->m_nJobOrItem ) )

  00273	8b 47 04	 mov	 eax, DWORD PTR [edi+4]
  00276	83 f8 ff	 cmp	 eax, -1
  00279	74 0c		 je	 SHORT $LN43@EndQuest
  0027b	50		 push	 eax
  0027c	8b cb		 mov	 ecx, ebx
  0027e	e8 00 00 00 00	 call	 ?GetItemNum@CMover@@QAEHK@Z ; CMover::GetItemNum
  00283	85 c0		 test	 eax, eax
  00285	74 21		 je	 SHORT $LN144@EndQuest
$LN43@EndQuest:

; 300  : 			return FALSE;
; 301  : 		}
; 302  : 		////////////////////////////
; 303  : 		// ş¸»ó Áö±Ţ 
; 304  : 		////////////////////////////
; 305  : 		for( int i = 0; i < pQuestProp->m_nEndRewardItemNum; i++ )

  00287	8b 4f 08	 mov	 ecx, DWORD PTR [edi+8]
  0028a	85 c9		 test	 ecx, ecx
  0028c	74 1a		 je	 SHORT $LN144@EndQuest
  0028e	0f b6 47 14	 movzx	 eax, BYTE PTR [edi+20]
  00292	50		 push	 eax
  00293	ff 77 10	 push	 DWORD PTR [edi+16]
  00296	ff 77 0c	 push	 DWORD PTR [edi+12]
  00299	51		 push	 ecx
  0029a	ff b5 d0 f7 ff
	ff		 push	 DWORD PTR _nPcId$GSCopy$1$[ebp]
  002a0	e8 00 00 00 00	 call	 ?__CreateItem@@YAXKHHHE@Z ; __CreateItem
  002a5	83 c4 14	 add	 esp, 20			; 00000014H
$LN144@EndQuest:
  002a8	8b 8d e0 f7 ff
	ff		 mov	 ecx, DWORD PTR _i$1$[ebp]
$LN5@EndQuest:
  002ae	8b bd cc f7 ff
	ff		 mov	 edi, DWORD PTR $T1[ebp]
  002b4	41		 inc	 ecx
  002b5	8b 85 dc f7 ff
	ff		 mov	 eax, DWORD PTR tv1484[ebp]
  002bb	83 c0 28	 add	 eax, 40			; 00000028H
  002be	89 8d e0 f7 ff
	ff		 mov	 DWORD PTR _i$1$[ebp], ecx
  002c4	89 85 dc f7 ff
	ff		 mov	 DWORD PTR tv1484[ebp], eax
  002ca	3b 8f 84 03 00
	00		 cmp	 ecx, DWORD PTR [edi+900]
  002d0	0f 8c 5a ff ff
	ff		 jl	 $LL7@EndQuest
$LN6@EndQuest:

; 333  : 					{
; 334  : 						if( pEndRewardItem->m_nItemIdx )
; 335  : 						{
; 336  : 							int nItemNum = pEndRewardItem->m_nItemNum;
; 337  : #ifdef __JEFF_11
; 338  : #if __VER >= 13 // __CHIPI_QUESTITEM_FLAG
; 339  : 							__CreateItem( nPcId, pEndRewardItem->m_nItemIdx, nItemNum, pEndRewardItem->m_nAbilityOption, pEndRewardItem->m_byFlag );
; 340  : #else // __CHIPI_QUESTITEM_FLAG
; 341  : 							__CreateItem( nPcId, pEndRewardItem->m_nItemIdx, nItemNum, pEndRewardItem->m_nAbilityOption );
; 342  : #endif // __CHIPI_QUESTITEM_FLAG
; 343  : #else	// __JEFF_11
; 344  : 							__CreateItem( nPcId, pEndRewardItem->m_nItemIdx, nItemNum );
; 345  : #endif	// __JEFF_11
; 346  : 						}
; 347  : 					}
; 348  : 				}
; 349  : 			}
; 350  : 		}
; 351  : #if __VER >= 9	// __PET_0410
; 352  : 		if( pQuestProp->m_bEndRewardPetLevelup )

  002d6	83 bf b0 03 00
	00 00		 cmp	 DWORD PTR [edi+944], 0
  002dd	74 07		 je	 SHORT $LN45@EndQuest

; 353  : 			pUser->PetLevelup();

  002df	8b cb		 mov	 ecx, ebx
  002e1	e8 00 00 00 00	 call	 ?PetLevelup@CMover@@QAEXXZ ; CMover::PetLevelup
$LN45@EndQuest:

; 354  : #endif	// __PET_0410
; 355  : 		if(	pQuestProp->m_nEndRewardGoldMin )

  002e6	8b 87 88 03 00
	00		 mov	 eax, DWORD PTR [edi+904]
  002ec	85 c0		 test	 eax, eax
  002ee	74 3b		 je	 SHORT $LN46@EndQuest

; 357  : 			nNum = pQuestProp->m_nEndRewardGoldMax - pQuestProp->m_nEndRewardGoldMin + 1; 

  002f0	8b 8f 8c 03 00
	00		 mov	 ecx, DWORD PTR [edi+908]
; File C:\IAGOS\server\v18\Source\Source\_Common\xUtil.h

; 16   : 	g_next = g_next * 1103515245 + 12345;// + nRandomSeed[ i++ ];

  002f6	33 d2		 xor	 edx, edx
; File C:\IAGOS\server\v18\Source\Source\_Common\ScriptHelper.cpp

; 357  : 			nNum = pQuestProp->m_nEndRewardGoldMax - pQuestProp->m_nEndRewardGoldMin + 1; 

  002f8	2b c8		 sub	 ecx, eax
; File C:\IAGOS\server\v18\Source\Source\_Common\xUtil.h

; 16   : 	g_next = g_next * 1103515245 + 12345;// + nRandomSeed[ i++ ];

  002fa	69 05 00 00 00
	00 6d 4e c6 41	 imul	 eax, DWORD PTR ?g_next@@3KA, 1103515245 ; g_next
; File C:\IAGOS\server\v18\Source\Source\_Common\ScriptHelper.cpp

; 357  : 			nNum = pQuestProp->m_nEndRewardGoldMax - pQuestProp->m_nEndRewardGoldMin + 1; 

  00304	41		 inc	 ecx

; 359  : 			pUser->AddGold( nGold );

  00305	6a 01		 push	 1
; File C:\IAGOS\server\v18\Source\Source\_Common\xUtil.h

; 16   : 	g_next = g_next * 1103515245 + 12345;// + nRandomSeed[ i++ ];

  00307	05 39 30 00 00	 add	 eax, 12345		; 00003039H
  0030c	a3 00 00 00 00	 mov	 DWORD PTR ?g_next@@3KA, eax ; g_next
  00311	f7 f1		 div	 ecx
; File C:\IAGOS\server\v18\Source\Source\_Common\ScriptHelper.cpp

; 359  : 			pUser->AddGold( nGold );

  00313	8b cb		 mov	 ecx, ebx
; File C:\IAGOS\server\v18\Source\Source\_Common\xUtil.h

; 16   : 	g_next = g_next * 1103515245 + 12345;// + nRandomSeed[ i++ ];

  00315	8b f2		 mov	 esi, edx
; File C:\IAGOS\server\v18\Source\Source\_Common\ScriptHelper.cpp

; 358  : 			int nGold = pQuestProp->m_nEndRewardGoldMin + xRandom( nNum ); 

  00317	03 b7 88 03 00
	00		 add	 esi, DWORD PTR [edi+904]

; 359  : 			pUser->AddGold( nGold );

  0031d	56		 push	 esi
  0031e	e8 00 00 00 00	 call	 ?AddGold@CMover@@QAEHHH@Z ; CMover::AddGold

; 360  : 			pUser->AddGoldText( nGold );

  00323	56		 push	 esi
  00324	8b cb		 mov	 ecx, ebx
  00326	e8 00 00 00 00	 call	 ?AddGoldText@CUser@@QAEXH@Z ; CUser::AddGoldText
$LN46@EndQuest:

; 361  : 		}
; 362  : 		if(	pQuestProp->m_nEndRewardExpMin )

  0032b	8b 87 90 03 00
	00		 mov	 eax, DWORD PTR [edi+912]
  00331	85 c0		 test	 eax, eax
  00333	0f 84 87 00 00
	00		 je	 $LN136@EndQuest

; 364  : 			nNum = pQuestProp->m_nEndRewardExpMax - pQuestProp->m_nEndRewardExpMin + 1; 

  00339	8b 8f 94 03 00
	00		 mov	 ecx, DWORD PTR [edi+916]
; File C:\IAGOS\server\v18\Source\Source\_Common\xUtil.h

; 16   : 	g_next = g_next * 1103515245 + 12345;// + nRandomSeed[ i++ ];

  0033f	33 d2		 xor	 edx, edx
; File C:\IAGOS\server\v18\Source\Source\_Common\ScriptHelper.cpp

; 364  : 			nNum = pQuestProp->m_nEndRewardExpMax - pQuestProp->m_nEndRewardExpMin + 1; 

  00341	2b c8		 sub	 ecx, eax
; File C:\IAGOS\server\v18\Source\Source\_Common\xUtil.h

; 16   : 	g_next = g_next * 1103515245 + 12345;// + nRandomSeed[ i++ ];

  00343	69 05 00 00 00
	00 6d 4e c6 41	 imul	 eax, DWORD PTR ?g_next@@3KA, 1103515245 ; g_next
; File C:\IAGOS\server\v18\Source\Source\_Common\ScriptHelper.cpp

; 364  : 			nNum = pQuestProp->m_nEndRewardExpMax - pQuestProp->m_nEndRewardExpMin + 1; 

  0034d	41		 inc	 ecx

; 366  : 			if( pUser->AddExperience( nExp, TRUE, FALSE ) )

  0034e	6a 00		 push	 0
  00350	6a 00		 push	 0
  00352	6a 01		 push	 1
; File C:\IAGOS\server\v18\Source\Source\_Common\xUtil.h

; 16   : 	g_next = g_next * 1103515245 + 12345;// + nRandomSeed[ i++ ];

  00354	05 39 30 00 00	 add	 eax, 12345		; 00003039H
  00359	a3 00 00 00 00	 mov	 DWORD PTR ?g_next@@3KA, eax ; g_next
  0035e	f7 f1		 div	 ecx
; File C:\IAGOS\server\v18\Source\Source\_Common\ScriptHelper.cpp

; 366  : 			if( pUser->AddExperience( nExp, TRUE, FALSE ) )

  00360	8b cb		 mov	 ecx, ebx
  00362	03 97 90 03 00
	00		 add	 edx, DWORD PTR [edi+912]
  00368	8b c2		 mov	 eax, edx
  0036a	99		 cdq
  0036b	52		 push	 edx
  0036c	50		 push	 eax
  0036d	e8 00 00 00 00	 call	 ?AddExperience@CMover@@QAEH_JHHH@Z ; CMover::AddExperience
  00372	8b cb		 mov	 ecx, ebx
  00374	85 c0		 test	 eax, eax
  00376	74 07		 je	 SHORT $LN48@EndQuest

; 367  : 				pUser->LevelUpSetting();

  00378	e8 00 00 00 00	 call	 ?LevelUpSetting@CUser@@QAEXXZ ; CUser::LevelUpSetting
  0037d	eb 05		 jmp	 SHORT $LN49@EndQuest
$LN48@EndQuest:

; 368  : 			else
; 369  : 				pUser->ExpUpSetting();

  0037f	e8 00 00 00 00	 call	 ?ExpUpSetting@CUser@@QAEXXZ ; CUser::ExpUpSetting
$LN49@EndQuest:

; 370  : 			
; 371  : 			pUser->AddSetExperience( pUser->GetExp1(), (WORD)pUser->m_nLevel, pUser->m_nSkillPoint, pUser->m_nSkillLevel );

  00384	0f b7 83 d8 05
	00 00		 movzx	 eax, WORD PTR [ebx+1496]
  0038b	8b cb		 mov	 ecx, ebx
  0038d	68 ff ff 00 00	 push	 65535			; 0000ffffH
  00392	6a ff		 push	 -1
  00394	6a ff		 push	 -1
  00396	ff b3 ac 10 00
	00		 push	 DWORD PTR [ebx+4268]
  0039c	ff b3 b0 10 00
	00		 push	 DWORD PTR [ebx+4272]
  003a2	50		 push	 eax
  003a3	ff b3 e4 05 00
	00		 push	 DWORD PTR [ebx+1508]
  003a9	ff b3 e0 05 00
	00		 push	 DWORD PTR [ebx+1504]
  003af	e8 00 00 00 00	 call	 ?AddSetExperience@CUser@@QAEX_JGHH0G@Z ; CUser::AddSetExperience

; 372  : 			pUser->AddDefinedText( TID_GAME_REAPEXP );

  003b4	68 be 03 00 00	 push	 958			; 000003beH
  003b9	8b cb		 mov	 ecx, ebx
  003bb	e8 00 00 00 00	 call	 ?AddDefinedText@CUser@@QAEXH@Z ; CUser::AddDefinedText
$LN136@EndQuest:

; 373  : 		}
; 374  : 		if( pQuestProp->m_nEndRewardSkillPoint )

  003c0	8b 87 b4 03 00
	00		 mov	 eax, DWORD PTR [edi+948]
  003c6	85 c0		 test	 eax, eax
  003c8	74 4d		 je	 SHORT $LN50@EndQuest

; 375  : 		{
; 376  : 			pUser->AddSkillPoint( pQuestProp->m_nEndRewardSkillPoint );

  003ca	50		 push	 eax
  003cb	8b cb		 mov	 ecx, ebx
  003cd	e8 00 00 00 00	 call	 ?AddSkillPoint@CMover@@QAEXH@Z ; CMover::AddSkillPoint

; 377  : 			pUser->AddSetExperience( pUser->GetExp1(), (WORD)pUser->m_nLevel, pUser->m_nSkillPoint, pUser->m_nSkillLevel );

  003d2	0f b7 83 d8 05
	00 00		 movzx	 eax, WORD PTR [ebx+1496]
  003d9	8b cb		 mov	 ecx, ebx
  003db	68 ff ff 00 00	 push	 65535			; 0000ffffH
  003e0	6a ff		 push	 -1
  003e2	6a ff		 push	 -1
  003e4	ff b3 ac 10 00
	00		 push	 DWORD PTR [ebx+4268]
  003ea	ff b3 b0 10 00
	00		 push	 DWORD PTR [ebx+4272]
  003f0	50		 push	 eax
  003f1	ff b3 e4 05 00
	00		 push	 DWORD PTR [ebx+1508]
  003f7	ff b3 e0 05 00
	00		 push	 DWORD PTR [ebx+1504]
  003fd	e8 00 00 00 00	 call	 ?AddSetExperience@CUser@@QAEX_JGHH0G@Z ; CUser::AddSetExperience

; 378  : 			g_dpDBClient.SendLogSkillPoint( LOG_SKILLPOINT_GET_QUEST, pQuestProp->m_nEndRewardSkillPoint, (CMover*)pUser, NULL );

  00402	6a 00		 push	 0
  00404	53		 push	 ebx
  00405	ff b7 b4 03 00
	00		 push	 DWORD PTR [edi+948]
  0040b	b9 00 00 00 00	 mov	 ecx, OFFSET ?g_dpDBClient@@3VCDPDatabaseClient@@A ; g_dpDBClient
  00410	6a 00		 push	 0
  00412	e8 00 00 00 00	 call	 ?SendLogSkillPoint@CDPDatabaseClient@@QAEXHHPAVCMover@@PAUtagSkill@@@Z ; CDPDatabaseClient::SendLogSkillPoint
$LN50@EndQuest:

; 379  : 		}
; 380  : 
; 381  : #if __VER >= 8 // __S8_PK
; 382  : 		if( pQuestProp->m_nEndRewardPKValueMin || pQuestProp->m_nEndRewardPKValueMax )

  00417	8b 8f 98 03 00
	00		 mov	 ecx, DWORD PTR [edi+920]
  0041d	85 c9		 test	 ecx, ecx
  0041f	75 08		 jne	 SHORT $LN137@EndQuest
  00421	39 8f 9c 03 00
	00		 cmp	 DWORD PTR [edi+924], ecx
  00427	74 5d		 je	 SHORT $LN53@EndQuest
$LN137@EndQuest:

; 383  : 		{
; 384  : 			if( pQuestProp->m_nEndRewardPKValueMin <= pQuestProp->m_nEndRewardPKValueMax )

  00429	8b 87 9c 03 00
	00		 mov	 eax, DWORD PTR [edi+924]
  0042f	3b c8		 cmp	 ecx, eax
  00431	7f 53		 jg	 SHORT $LN53@EndQuest

; 385  : 			{
; 386  : 				int nPKValue = pUser->GetPKValue() - xRandom( pQuestProp->m_nEndRewardPKValueMin, pQuestProp->m_nEndRewardPKValueMax + 1 );

  00433	40		 inc	 eax
  00434	50		 push	 eax
  00435	51		 push	 ecx
  00436	e8 00 00 00 00	 call	 ?xRandom@@YAKKK@Z	; xRandom
  0043b	8b 8b 54 07 00
	00		 mov	 ecx, DWORD PTR [ebx+1876]
  00441	83 c4 08	 add	 esp, 8
  00444	2b c8		 sub	 ecx, eax

; 387  : 				if( nPKValue < 0 )
; 388  : 					nPKValue = 0;
; 389  : 				pUser->SetPKValue( nPKValue );

  00446	b8 00 00 00 00	 mov	 eax, 0
  0044b	0f 49 c1	 cmovns	 eax, ecx
  0044e	8b cb		 mov	 ecx, ebx
  00450	50		 push	 eax
  00451	e8 00 00 00 00	 call	 ?SetPKValue@CMover@@QAEXH@Z ; CMover::SetPKValue

; 390  : 				pUser->AddPKValue();

  00456	8b cb		 mov	 ecx, ebx
  00458	e8 00 00 00 00	 call	 ?AddPKValue@CUser@@QAEXXZ ; CUser::AddPKValue

; 391  : 				g_dpDBClient.SendLogPkPvp( (CMover*)pUser, NULL, 0, 'P' );

  0045d	6a 50		 push	 80			; 00000050H
  0045f	6a 00		 push	 0
  00461	6a 00		 push	 0
  00463	53		 push	 ebx
  00464	b9 00 00 00 00	 mov	 ecx, OFFSET ?g_dpDBClient@@3VCDPDatabaseClient@@A ; g_dpDBClient
  00469	e8 00 00 00 00	 call	 ?SendLogPkPvp@CDPDatabaseClient@@QAEXPAVCMover@@0HD@Z ; CDPDatabaseClient::SendLogPkPvp

; 392  : #if __VER >= 13 // __HONORABLE_TITLE			// ´ŢŔÎ
; 393  : 				pUser->CheckHonorStat();

  0046e	8b cb		 mov	 ecx, ebx
  00470	e8 00 00 00 00	 call	 ?CheckHonorStat@CMover@@QAEXXZ ; CMover::CheckHonorStat

; 394  : 				g_UserMng.AddHonorTitleChange( pUser, pUser->m_nHonor);

  00475	ff b3 70 08 00
	00		 push	 DWORD PTR [ebx+2160]
  0047b	b9 00 00 00 00	 mov	 ecx, OFFSET ?g_UserMng@@3VCUserMng@@A ; g_UserMng
  00480	53		 push	 ebx
  00481	e8 00 00 00 00	 call	 ?AddHonorTitleChange@CUserMng@@QAEXPAVCMover@@H@Z ; CUserMng::AddHonorTitleChange
$LN53@EndQuest:

; 395  : #endif	// __HONORABLE_TITLE			// ´ŢŔÎ
; 396  : 			}
; 397  : 		}
; 398  : #else // __VER >= 8 // __S8_PK
; 399  : 		if( pQuestProp->m_nEndRewardKarmaStyle )
; 400  : 		{
; 401  : 			if( pQuestProp->m_nEndRewardKarmaStyle == 1 )
; 402  : 				pUser->ChangeSlaughter( CHANGE_SLAUGHTER_SET, NULL, pQuestProp->m_nEndRewardKarmaPoint );
; 403  : 			else
; 404  : 			if( pQuestProp->m_nEndRewardKarmaStyle == 2 )
; 405  : 			{
; 406  : 				int nKarma = pUser->GetKarma();
; 407  : 				pUser->ChangeSlaughter( CHANGE_SLAUGHTER_SET, NULL, nKarma + pQuestProp->m_nEndRewardKarmaPoint ); 
; 408  : 			}
; 409  : 		}
; 410  : #endif // __VER >= 8 // __S8_PK
; 411  : #if __VER >= 9 // __S_9_ADD
; 412  : 		if( pQuestProp->m_nEndRewardTeleport != 0 )

  00486	8b 8f a0 03 00
	00		 mov	 ecx, DWORD PTR [edi+928]
  0048c	85 c9		 test	 ecx, ecx
  0048e	74 19		 je	 SHORT $LN55@EndQuest

; 413  : 			pUser->REPLACE( g_uIdofMulti, pQuestProp->m_nEndRewardTeleport, pQuestProp->m_nEndRewardTeleportPos, REPLACE_NORMAL, nTempLayer );

  00490	6a 00		 push	 0
  00492	6a 00		 push	 0
  00494	8d 87 a4 03 00
	00		 lea	 eax, DWORD PTR [edi+932]
  0049a	50		 push	 eax
  0049b	51		 push	 ecx
  0049c	ff 35 00 00 00
	00		 push	 DWORD PTR ?g_uIdofMulti@@3KA ; g_uIdofMulti
  004a2	8b cb		 mov	 ecx, ebx
  004a4	e8 00 00 00 00	 call	 ?Replace@CMover@@QAEHKKAAUD3DXVECTOR3@@W4REPLACE_TYPE@@H@Z ; CMover::Replace
$LN55@EndQuest:

; 414  : #endif // __S_9_ADD
; 415  : 		// ˝ĂŔŰ˝Ă şŻ˝ĹŔ» ÇßŔ¸¸é Áľ·á˝Ă şŻ˝Ĺ ÇŘÁ¦˝ĂĹ˛´Ů.
; 416  : 		if( pQuestProp->m_nBeginSetDisguiseMoverIndex )

  004a9	83 bf 00 01 00
	00 00		 cmp	 DWORD PTR [edi+256], 0
  004b0	74 26		 je	 SHORT $LN56@EndQuest

; 417  : 		{
; 418  : 			CUser* pUser = prj.GetUser( nPcId );

  004b2	ff b5 d0 f7 ff
	ff		 push	 DWORD PTR _nPcId$GSCopy$1$[ebp]
  004b8	b9 00 00 00 00	 mov	 ecx, OFFSET ?prj@@3VCProject@@A ; prj
  004bd	e8 00 00 00 00	 call	 ?GetUser@CProject@@QAEPAVCUser@@K@Z ; CProject::GetUser
  004c2	8b f0		 mov	 esi, eax

; 419  : 			pUser->NoDisguise( NULL );

  004c4	6a 00		 push	 0
  004c6	8b ce		 mov	 ecx, esi
  004c8	e8 00 00 00 00	 call	 ?NoDisguise@CMover@@QAEHPAUIDirect3DDevice9@@@Z ; CMover::NoDisguise

; 420  : 			g_UserMng.AddNoDisguise( pUser );

  004cd	56		 push	 esi
  004ce	b9 00 00 00 00	 mov	 ecx, OFFSET ?g_UserMng@@3VCUserMng@@A ; g_UserMng
  004d3	e8 00 00 00 00	 call	 ?AddNoDisguise@CUserMng@@QAEXPAVCMover@@@Z ; CUserMng::AddNoDisguise
$LN56@EndQuest:

; 421  : 		}
; 422  : #if __VER >= 15 // __CAMPUS
; 423  : 		if( pQuestProp->m_nEndRewardTSP )

  004d8	8b 87 bc 03 00
	00		 mov	 eax, DWORD PTR [edi+956]
  004de	85 c0		 test	 eax, eax
  004e0	74 15		 je	 SHORT $LN138@EndQuest

; 424  : 			g_dpDBClient.SendUpdateCampusPoint( pUser->m_idPlayer, pQuestProp->m_nEndRewardTSP, TRUE, 'Q' );

  004e2	6a 51		 push	 81			; 00000051H
  004e4	6a 01		 push	 1
  004e6	50		 push	 eax
  004e7	ff b3 34 02 00
	00		 push	 DWORD PTR [ebx+564]
  004ed	b9 00 00 00 00	 mov	 ecx, OFFSET ?g_dpDBClient@@3VCDPDatabaseClient@@A ; g_dpDBClient
  004f2	e8 00 00 00 00	 call	 ?SendUpdateCampusPoint@CDPDatabaseClient@@QAEXKHHD@Z ; CDPDatabaseClient::SendUpdateCampusPoint
$LN138@EndQuest:

; 425  : 
; 426  : 		if( pQuestProp->m_nEndRemoveTSP )

  004f7	8b 87 7c 03 00
	00		 mov	 eax, DWORD PTR [edi+892]
  004fd	85 c0		 test	 eax, eax
  004ff	74 15		 je	 SHORT $LN58@EndQuest

; 427  : 			g_dpDBClient.SendUpdateCampusPoint( pUser->m_idPlayer, pQuestProp->m_nEndRemoveTSP, FALSE, 'Q' );

  00501	6a 51		 push	 81			; 00000051H
  00503	6a 00		 push	 0
  00505	50		 push	 eax
  00506	ff b3 34 02 00
	00		 push	 DWORD PTR [ebx+564]
  0050c	b9 00 00 00 00	 mov	 ecx, OFFSET ?g_dpDBClient@@3VCDPDatabaseClient@@A ; g_dpDBClient
  00511	e8 00 00 00 00	 call	 ?SendUpdateCampusPoint@CDPDatabaseClient@@QAEXKHHD@Z ; CDPDatabaseClient::SendUpdateCampusPoint
$LN58@EndQuest:

; 428  : #endif // __CAMPUS
; 429  : 		////////////////////////////
; 430  : 		// ľĆŔĚĹŰ Á¦°Ĺ 
; 431  : 		////////////////////////////
; 432  : 		for( int i = 0; i < 8; i++ )

  00516	be 08 00 00 00	 mov	 esi, 8
  0051b	81 c7 08 03 00
	00		 add	 edi, 776		; 00000308H
  00521	89 b5 dc f7 ff
	ff		 mov	 DWORD PTR tv1531[ebp], esi
$LL10@EndQuest:

; 433  : 		{
; 434  : 			if( pQuestProp->m_nEndRemoveItemIdx[ i ] )

  00527	83 3f 00	 cmp	 DWORD PTR [edi], 0
  0052a	74 5d		 je	 SHORT $LN8@EndQuest

; 435  : 			{
; 436  : 				int nItemNum = pQuestProp->m_nEndRemoveItemNum[ i ];

  0052c	8b 4f 20	 mov	 ecx, DWORD PTR [edi+32]

; 437  : 				if( nItemNum > 0x7fff )		// »čÁ¦µÉ ľĆŔĚĹŰ °łĽö°ˇ shortŔÇ MAX¸¦ łŃŔ¸¸é..

  0052f	81 f9 ff 7f 00
	00		 cmp	 ecx, 32767		; 00007fffH
  00535	7e 48		 jle	 SHORT $LN12@EndQuest

; 435  : 			{
; 436  : 				int nItemNum = pQuestProp->m_nEndRemoveItemNum[ i ];

  00537	8d b1 00 80 ff
	ff		 lea	 esi, DWORD PTR [ecx-32768]
  0053d	b8 05 00 02 00	 mov	 eax, 131077		; 00020005H
  00542	f7 e6		 mul	 esi
  00544	2b f2		 sub	 esi, edx
  00546	d1 ee		 shr	 esi, 1
  00548	03 f2		 add	 esi, edx
  0054a	c1 ee 0e	 shr	 esi, 14			; 0000000eH
  0054d	46		 inc	 esi
  0054e	69 c6 01 80 ff
	ff		 imul	 eax, esi, -32767
  00554	03 c8		 add	 ecx, eax
  00556	89 8d c8 f7 ff
	ff		 mov	 DWORD PTR _nItemNum$1$[ebp], ecx
  0055c	0f 1f 40 00	 npad	 4
$LL13@EndQuest:

; 438  : 				{
; 439  : 					for( ; nItemNum > 0x7fff; )
; 440  : 					{
; 441  : 						pUser->RemoveItemA( pQuestProp->m_nEndRemoveItemIdx[ i ], 0x7fff );

  00560	68 ff 7f 00 00	 push	 32767			; 00007fffH
  00565	ff 37		 push	 DWORD PTR [edi]
  00567	8b cb		 mov	 ecx, ebx
  00569	e8 00 00 00 00	 call	 ?RemoveItemA@CMover@@QAEHKF@Z ; CMover::RemoveItemA
  0056e	83 ee 01	 sub	 esi, 1
  00571	75 ed		 jne	 SHORT $LL13@EndQuest
  00573	8b 8d c8 f7 ff
	ff		 mov	 ecx, DWORD PTR _nItemNum$1$[ebp]
  00579	8b b5 dc f7 ff
	ff		 mov	 esi, DWORD PTR tv1531[ebp]
$LN12@EndQuest:

; 442  : 						nItemNum -= 0x7fff;
; 443  : 					}
; 444  : 				}
; 445  : 				pUser->RemoveItemA( pQuestProp->m_nEndRemoveItemIdx[ i ], nItemNum );

  0057f	51		 push	 ecx
  00580	ff 37		 push	 DWORD PTR [edi]
  00582	8b cb		 mov	 ecx, ebx
  00584	e8 00 00 00 00	 call	 ?RemoveItemA@CMover@@QAEHKF@Z ; CMover::RemoveItemA
$LN8@EndQuest:

; 428  : #endif // __CAMPUS
; 429  : 		////////////////////////////
; 430  : 		// ľĆŔĚĹŰ Á¦°Ĺ 
; 431  : 		////////////////////////////
; 432  : 		for( int i = 0; i < 8; i++ )

  00589	83 c7 04	 add	 edi, 4
  0058c	83 ee 01	 sub	 esi, 1
  0058f	89 b5 dc f7 ff
	ff		 mov	 DWORD PTR tv1531[ebp], esi
  00595	75 90		 jne	 SHORT $LL10@EndQuest

; 446  : 			}
; 447  : 		}
; 448  : 		if( pQuestProp->m_nEndRemoveGold )

  00597	8b b5 cc f7 ff
	ff		 mov	 esi, DWORD PTR $T1[ebp]
  0059d	8b 9d d0 f7 ff
	ff		 mov	 ebx, DWORD PTR _nPcId$GSCopy$1$[ebp]
  005a3	8b 86 48 03 00
	00		 mov	 eax, DWORD PTR [esi+840]
  005a9	85 c0		 test	 eax, eax
  005ab	74 0a		 je	 SHORT $LN61@EndQuest

; 449  : 			__RemoveGold( nPcId, pQuestProp->m_nEndRemoveGold );

  005ad	50		 push	 eax
  005ae	53		 push	 ebx
  005af	e8 00 00 00 00	 call	 ?__RemoveGold@@YAXKH@Z	; __RemoveGold
  005b4	83 c4 08	 add	 esp, 8
$LN61@EndQuest:

; 450  : 		////////////////////////////
; 451  : 		// Äů˝şĆ® Á¦°Ĺ (żĎ·á,ÁřÇŕ ¸đµÎ Á¦°ĹÇÔ)
; 452  : 		////////////////////////////
; 453  : 		for( int i = 0; i < MAX_QUESTREMOVE; i++ )

  005b7	81 c6 4c 03 00
	00		 add	 esi, 844		; 0000034cH
  005bd	bf 0c 00 00 00	 mov	 edi, 12			; 0000000cH
$LL16@EndQuest:

; 454  : 		{
; 455  : 			if( pQuestProp->m_anEndRemoveQuest[ i ] )

  005c2	8b 06		 mov	 eax, DWORD PTR [esi]
  005c4	85 c0		 test	 eax, eax
  005c6	74 0a		 je	 SHORT $LN14@EndQuest

; 456  : 			{
; 457  : 				__RemoveQuest( nPcId, pQuestProp->m_anEndRemoveQuest[ i ] );

  005c8	50		 push	 eax
  005c9	53		 push	 ebx
  005ca	e8 00 00 00 00	 call	 ?__RemoveQuest@@YAHHH@Z	; __RemoveQuest
  005cf	83 c4 08	 add	 esp, 8
$LN14@EndQuest:

; 450  : 		////////////////////////////
; 451  : 		// Äů˝şĆ® Á¦°Ĺ (żĎ·á,ÁřÇŕ ¸đµÎ Á¦°ĹÇÔ)
; 452  : 		////////////////////////////
; 453  : 		for( int i = 0; i < MAX_QUESTREMOVE; i++ )

  005d2	83 c6 04	 add	 esi, 4
  005d5	83 ef 01	 sub	 edi, 1
  005d8	75 e8		 jne	 SHORT $LL16@EndQuest

; 458  : 			}
; 459  : 		}
; 460  : 		// Äů˝şĆ® Áľ·á 
; 461  : 		__SetQuestState( nPcId, nQuestId, QS_END );

  005da	6a 0e		 push	 14			; 0000000eH
  005dc	ff b5 c4 f7 ff
	ff		 push	 DWORD PTR _nQuestId$GSCopy$1$[ebp]
  005e2	53		 push	 ebx
  005e3	e8 00 00 00 00	 call	 ?__SetQuestState@@YAHKHH@Z ; __SetQuestState
  005e8	83 c4 0c	 add	 esp, 12			; 0000000cH
$LN17@EndQuest:

; 462  : 	}
; 463  : 	return 1;
; 464  : }

  005eb	8b 4d fc	 mov	 ecx, DWORD PTR __$ArrayPad$[ebp]
  005ee	b8 01 00 00 00	 mov	 eax, 1
  005f3	5f		 pop	 edi
  005f4	5e		 pop	 esi
  005f5	33 cd		 xor	 ecx, ebp
  005f7	5b		 pop	 ebx
  005f8	e8 00 00 00 00	 call	 @__security_check_cookie@4
  005fd	8b e5		 mov	 esp, ebp
  005ff	5d		 pop	 ebp
  00600	c3		 ret	 0
?__EndQuest@@YAHHHH@Z ENDP				; __EndQuest
_TEXT	ENDS
; Function compile flags: /Ogtp
; File C:\IAGOS\server\v18\Source\Source\_Common\ScriptHelper.cpp
; File C:\IAGOS\server\v18\Source\Source\_Common\data.h
; File C:\IAGOS\server\v18\Source\Source\_Common\ScriptHelper.cpp
;	COMDAT ?__RunQuest@@YAHHHH@Z
_TEXT	SEGMENT
_nPcId$ = 8						; size = 4
_nNpcId$ = 12						; size = 4
_nQuestId$ = 16						; size = 4
?__RunQuest@@YAHHHH@Z PROC				; __RunQuest, COMDAT

; 212  : {

  00000	55		 push	 ebp
  00001	8b ec		 mov	 ebp, esp

; 213  : 	CMover* pMover = prj.GetMover( nNpcId );

  00003	ff 75 0c	 push	 DWORD PTR _nNpcId$[ebp]
  00006	b9 00 00 00 00	 mov	 ecx, OFFSET ?prj@@3VCProject@@A ; prj
  0000b	e8 00 00 00 00	 call	 ?GetMover@CProject@@QAEPAVCMover@@K@Z ; CProject::GetMover
; File C:\IAGOS\server\v18\Source\Source\_Common\data.h

; 270  : 	if( dwIndex >= (DWORD)m_nMaxIndex )

  00010	8b 4d 10	 mov	 ecx, DWORD PTR _nQuestId$[ebp]
  00013	3b 0d f4 02 00
	00		 cmp	 ecx, DWORD PTR ?prj@@3VCProject@@A+756
  00019	0f 83 b5 00 00
	00		 jae	 $LN18@RunQuest

; 271  : 		return NULL;
; 272  : 	return (T*) m_apOffset[ dwIndex ];

  0001f	a1 e4 02 00 00	 mov	 eax, DWORD PTR ?prj@@3VCProject@@A+740
  00024	53		 push	 ebx
  00025	8b 1c 88	 mov	 ebx, DWORD PTR [eax+ecx*4]
; File C:\IAGOS\server\v18\Source\Source\_Common\ScriptHelper.cpp

; 216  : 	if( pQuestProp )

  00028	85 db		 test	 ebx, ebx
  0002a	0f 84 9c 00 00
	00		 je	 $LN17@RunQuest

; 217  : 	{
; 218  : 		for( int  i = 0; i < 4; i++ )

  00030	8b 55 08	 mov	 edx, DWORD PTR _nPcId$[ebp]
  00033	56		 push	 esi
  00034	57		 push	 edi
  00035	33 f6		 xor	 esi, esi
  00037	8d bb e8 00 00
	00		 lea	 edi, DWORD PTR [ebx+232]
  0003d	0f 1f 00	 npad	 3
$LL4@RunQuest:

; 219  : 		{
; 220  : 			if( pQuestProp->m_nBeginSetAddItemIdx[ i ] )

  00040	8b 0f		 mov	 ecx, DWORD PTR [edi]
  00042	85 c9		 test	 ecx, ecx
  00044	74 1a		 je	 SHORT $LN2@RunQuest

; 221  : 			{
; 222  : 				__CreateItem( nPcId, pQuestProp->m_nBeginSetAddItemIdx[ i ], pQuestProp->m_nBeginSetAddItemNum[ i ] );

  00046	0f be 84 33 f8
	00 00 00	 movsx	 eax, BYTE PTR [ebx+esi+248]
  0004e	6a 00		 push	 0
  00050	6a 00		 push	 0
  00052	50		 push	 eax
  00053	51		 push	 ecx
  00054	52		 push	 edx
  00055	e8 00 00 00 00	 call	 ?__CreateItem@@YAXKHHHE@Z ; __CreateItem
  0005a	8b 55 08	 mov	 edx, DWORD PTR _nPcId$[ebp]
  0005d	83 c4 14	 add	 esp, 20			; 00000014H
$LN2@RunQuest:

; 217  : 	{
; 218  : 		for( int  i = 0; i < 4; i++ )

  00060	46		 inc	 esi
  00061	83 c7 04	 add	 edi, 4
  00064	83 fe 04	 cmp	 esi, 4
  00067	7c d7		 jl	 SHORT $LL4@RunQuest

; 223  : 			}
; 224  : 		}
; 225  : 		if( pQuestProp->m_nBeginSetAddGold )

  00069	8b 83 fc 00 00
	00		 mov	 eax, DWORD PTR [ebx+252]
  0006f	85 c0		 test	 eax, eax
  00071	74 0a		 je	 SHORT $LN7@RunQuest

; 226  : 		{
; 227  : 			__AddGold( nPcId, pQuestProp->m_nBeginSetAddGold );

  00073	50		 push	 eax
  00074	52		 push	 edx
  00075	e8 00 00 00 00	 call	 ?__AddGold@@YAXKH@Z	; __AddGold
  0007a	83 c4 08	 add	 esp, 8
$LN7@RunQuest:

; 228  : 		}
; 229  : 
; 230  : 		// Äů˝şĆ® ˝ĂŔŰ˝Ă şŻ˝ĹÇÔ 
; 231  : 		if( pQuestProp->m_nBeginSetDisguiseMoverIndex )

  0007d	83 bb 00 01 00
	00 00		 cmp	 DWORD PTR [ebx+256], 0
  00084	8b 7d 08	 mov	 edi, DWORD PTR _nPcId$[ebp]
  00087	74 2d		 je	 SHORT $LN8@RunQuest

; 232  : 		{
; 233  : 			CUser* pUser = prj.GetUser( nPcId );

  00089	57		 push	 edi
  0008a	b9 00 00 00 00	 mov	 ecx, OFFSET ?prj@@3VCProject@@A ; prj
  0008f	e8 00 00 00 00	 call	 ?GetUser@CProject@@QAEPAVCUser@@K@Z ; CProject::GetUser

; 234  : 			pUser->Disguise( NULL, pQuestProp->m_nBeginSetDisguiseMoverIndex );

  00094	ff b3 00 01 00
	00		 push	 DWORD PTR [ebx+256]
  0009a	8b f0		 mov	 esi, eax
  0009c	6a 00		 push	 0
  0009e	8b ce		 mov	 ecx, esi
  000a0	e8 00 00 00 00	 call	 ?Disguise@CMover@@QAEHPAUIDirect3DDevice9@@K@Z ; CMover::Disguise

; 235  : 			g_UserMng.AddDisguise( pUser, pQuestProp->m_nBeginSetDisguiseMoverIndex );

  000a5	ff b3 00 01 00
	00		 push	 DWORD PTR [ebx+256]
  000ab	b9 00 00 00 00	 mov	 ecx, OFFSET ?g_UserMng@@3VCUserMng@@A ; g_UserMng
  000b0	56		 push	 esi
  000b1	e8 00 00 00 00	 call	 ?AddDisguise@CUserMng@@QAEXPAVCMover@@K@Z ; CUserMng::AddDisguise
$LN8@RunQuest:

; 236  : 		}
; 237  : 		__SetQuest( nPcId, nQuestId );

  000b6	ff 75 10	 push	 DWORD PTR _nQuestId$[ebp]
  000b9	57		 push	 edi
  000ba	e8 00 00 00 00	 call	 ?__SetQuest@@YAXKH@Z	; __SetQuest
  000bf	83 c4 08	 add	 esp, 8

; 238  : 	}
; 239  : 	return 1;

  000c2	b8 01 00 00 00	 mov	 eax, 1
  000c7	5f		 pop	 edi
  000c8	5e		 pop	 esi
  000c9	5b		 pop	 ebx

; 240  : }

  000ca	5d		 pop	 ebp
  000cb	c3		 ret	 0
$LN17@RunQuest:

; 238  : 	}
; 239  : 	return 1;

  000cc	b8 01 00 00 00	 mov	 eax, 1
  000d1	5b		 pop	 ebx

; 240  : }

  000d2	5d		 pop	 ebp
  000d3	c3		 ret	 0
$LN18@RunQuest:

; 238  : 	}
; 239  : 	return 1;

  000d4	b8 01 00 00 00	 mov	 eax, 1

; 240  : }

  000d9	5d		 pop	 ebp
  000da	c3		 ret	 0
?__RunQuest@@YAHHHH@Z ENDP				; __RunQuest
_TEXT	ENDS
; Function compile flags: /Ogtp
; File C:\IAGOS\server\v18\Source\Source\_Common\ScriptHelper.cpp
; File C:\Program Files\Microsoft Visual Studio\2022\Professional\VC\Tools\MSVC\14.44.35207\atlmfc\include\afxstr.h
; File C:\Program Files\Microsoft Visual Studio\2022\Professional\VC\Tools\MSVC\14.44.35207\atlmfc\include\atlsimpstr.h
; File C:\IAGOS\server\v18\Source\Source\_Common\ScriptHelper.cpp
; File C:\IAGOS\server\v18\Source\Source\_Common\data.h
; File C:\IAGOS\server\v18\Source\Source\_Common\ScriptHelper.cpp
; File C:\Program Files\Microsoft Visual Studio\2022\Professional\VC\Tools\MSVC\14.44.35207\atlmfc\include\atlsimpstr.h
; File C:\IAGOS\server\v18\Source\Source\_Common\ScriptHelper.cpp
; File C:\Program Files\Microsoft Visual Studio\2022\Professional\VC\Tools\MSVC\14.44.35207\atlmfc\include\atlsimpstr.h
; File C:\IAGOS\server\v18\Source\Source\_Common\ScriptHelper.cpp
; File C:\Program Files\Microsoft Visual Studio\2022\Professional\VC\Tools\MSVC\14.44.35207\atlmfc\include\atlsimpstr.h
; File C:\IAGOS\server\v18\Source\Source\_Common\ScriptHelper.cpp
;	COMDAT ?__SayQuest@@YAHHHH@Z
_TEXT	SEGMENT
_nPcId$GSCopy$1$ = -2096				; size = 4
_strToken$ = -2092					; size = 4
_rsf$ = -2088						; size = 2072
__$ArrayPad$ = -16					; size = 4
__$EHRec$ = -12						; size = 12
_nPcId$ = 8						; size = 4
_nQuestId$ = 12						; size = 4
_nIdx$ = 16						; size = 4
?__SayQuest@@YAHHHH@Z PROC				; __SayQuest, COMDAT

; 194  : {

  00000	55		 push	 ebp
  00001	8b ec		 mov	 ebp, esp
  00003	6a ff		 push	 -1
  00005	68 00 00 00 00	 push	 __ehhandler$?__SayQuest@@YAHHHH@Z
  0000a	64 a1 00 00 00
	00		 mov	 eax, DWORD PTR fs:0
  00010	50		 push	 eax
  00011	81 ec 24 08 00
	00		 sub	 esp, 2084		; 00000824H
  00017	a1 00 00 00 00	 mov	 eax, DWORD PTR ___security_cookie
  0001c	33 c5		 xor	 eax, ebp
  0001e	89 45 f0	 mov	 DWORD PTR __$ArrayPad$[ebp], eax
  00021	53		 push	 ebx
  00022	56		 push	 esi
  00023	57		 push	 edi
  00024	50		 push	 eax
  00025	8d 45 f4	 lea	 eax, DWORD PTR __$EHRec$[ebp]
  00028	64 a3 00 00 00
	00		 mov	 DWORD PTR fs:0, eax
  0002e	8b 45 08	 mov	 eax, DWORD PTR _nPcId$[ebp]
  00031	8b 5d 0c	 mov	 ebx, DWORD PTR _nQuestId$[ebp]
  00034	8b 7d 10	 mov	 edi, DWORD PTR _nIdx$[ebp]
  00037	89 85 d0 f7 ff
	ff		 mov	 DWORD PTR _nPcId$GSCopy$1$[ebp], eax
; File C:\Program Files\Microsoft Visual Studio\2022\Professional\VC\Tools\MSVC\14.44.35207\atlmfc\include\afxstr.h

; 56   : 		return( AfxGetStringManager() );

  0003d	e8 00 00 00 00	 call	 ?AfxGetStringManager@@YGPAUIAtlStringMgr@ATL@@XZ ; AfxGetStringManager
  00042	8b c8		 mov	 ecx, eax
; File C:\Program Files\Microsoft Visual Studio\2022\Professional\VC\Tools\MSVC\14.44.35207\atlmfc\include\atlsimpstr.h

; 209  : 		ATLENSURE( pStringMgr != NULL );

  00044	85 c9		 test	 ecx, ecx
  00046	0f 84 db 00 00
	00		 je	 $LN53@SayQuest

; 210  : 		CStringData* pData = pStringMgr->GetNilString();

  0004c	8b 01		 mov	 eax, DWORD PTR [ecx]
  0004e	ff 50 0c	 call	 DWORD PTR [eax+12]

; 211  : 		Attach( pData );

  00051	8d 70 10	 lea	 esi, DWORD PTR [eax+16]
  00054	89 b5 d4 f7 ff
	ff		 mov	 DWORD PTR _strToken$[ebp], esi
; File C:\IAGOS\server\v18\Source\Source\_Common\ScriptHelper.cpp

; 195  : 	CString strToken;

  0005a	c7 45 fc 00 00
	00 00		 mov	 DWORD PTR __$EHRec$[ebp+8], 0
; File C:\IAGOS\server\v18\Source\Source\_Common\data.h

; 270  : 	if( dwIndex >= (DWORD)m_nMaxIndex )

  00061	3b 1d f4 02 00
	00		 cmp	 ebx, DWORD PTR ?prj@@3VCProject@@A+756
  00067	73 38		 jae	 SHORT $LN2@SayQuest

; 271  : 		return NULL;
; 272  : 	return (T*) m_apOffset[ dwIndex ];

  00069	a1 e4 02 00 00	 mov	 eax, DWORD PTR ?prj@@3VCProject@@A+740
  0006e	8b 14 98	 mov	 edx, DWORD PTR [eax+ebx*4]
; File C:\IAGOS\server\v18\Source\Source\_Common\ScriptHelper.cpp

; 198  : 	if( pQuestProp && pQuestProp->m_apQuestDialog[ nIdx ] )

  00071	85 d2		 test	 edx, edx
  00073	74 2c		 je	 SHORT $LN2@SayQuest
  00075	8b 94 ba c0 03
	00 00		 mov	 edx, DWORD PTR [edx+edi*4+960]
  0007c	85 d2		 test	 edx, edx
  0007e	74 21		 je	 SHORT $LN2@SayQuest
; File C:\Program Files\Microsoft Visual Studio\2022\Professional\VC\Tools\MSVC\14.44.35207\atlmfc\include\atlsimpstr.h

; 730  : 		return( int( strlen( psz ) ) );

  00080	8b ca		 mov	 ecx, edx
  00082	8d 71 01	 lea	 esi, DWORD PTR [ecx+1]
$LL49@SayQuest:
  00085	8a 01		 mov	 al, BYTE PTR [ecx]
  00087	41		 inc	 ecx
  00088	84 c0		 test	 al, al
  0008a	75 f9		 jne	 SHORT $LL49@SayQuest
  0008c	2b ce		 sub	 ecx, esi

; 606  : 		SetString( pszSrc, StringLength( pszSrc ) );

  0008e	51		 push	 ecx
  0008f	52		 push	 edx
  00090	8d 8d d4 f7 ff
	ff		 lea	 ecx, DWORD PTR _strToken$[ebp]
  00096	e8 00 00 00 00	 call	 ?SetString@?$CSimpleStringT@D$0A@@ATL@@QAEXPBDH@Z ; ATL::CSimpleStringT<char,0>::SetString
  0009b	8b b5 d4 f7 ff
	ff		 mov	 esi, DWORD PTR _strToken$[ebp]
$LN2@SayQuest:

; 537  : 		return( GetLength() == 0 );

  000a1	83 7e f4 00	 cmp	 DWORD PTR [esi-12], 0
; File C:\IAGOS\server\v18\Source\Source\_Common\ScriptHelper.cpp

; 200  : 	if( strToken.IsEmpty() == TRUE )

  000a5	75 04		 jne	 SHORT $LN3@SayQuest
  000a7	33 ff		 xor	 edi, edi
  000a9	eb 3f		 jmp	 SHORT $LN6@SayQuest
$LN3@SayQuest:

; 201  : 		return FALSE;
; 202  : 
; 203  : 	CUser* pUser = prj.GetUser( nPcId );

  000ab	ff b5 d0 f7 ff
	ff		 push	 DWORD PTR _nPcId$GSCopy$1$[ebp]
  000b1	b9 00 00 00 00	 mov	 ecx, OFFSET ?prj@@3VCProject@@A ; prj
  000b6	e8 00 00 00 00	 call	 ?GetUser@CProject@@QAEPAVCUser@@K@Z ; CProject::GetUser
  000bb	8b f8		 mov	 edi, eax

; 204  : 	RunScriptFunc rsf;
; 205  : 	rsf.wFuncType		= FUNCTYPE_SAY;//QUEST;

  000bd	b8 12 00 00 00	 mov	 eax, 18			; 00000012H
  000c2	66 89 45 e0	 mov	 WORD PTR _rsf$[ebp+2056], ax

; 206  : 	lstrcpy( rsf.lpszVal1, strToken );

  000c6	8d 85 d8 f7 ff
	ff		 lea	 eax, DWORD PTR _rsf$[ebp]
  000cc	56		 push	 esi
  000cd	50		 push	 eax
  000ce	ff 15 00 00 00
	00		 call	 DWORD PTR __imp__lstrcpyA@8

; 207  : 	rsf.dwVal2 = nQuestId;
; 208  : 	pUser->AddRunScriptFunc( rsf );

  000d4	8d 85 d8 f7 ff
	ff		 lea	 eax, DWORD PTR _rsf$[ebp]
  000da	89 5d dc	 mov	 DWORD PTR _rsf$[ebp+2052], ebx
  000dd	50		 push	 eax
  000de	8b cf		 mov	 ecx, edi
  000e0	e8 00 00 00 00	 call	 ?AddRunScriptFunc@CUser@@QAEXABU_runscriptfunc@@@Z ; CUser::AddRunScriptFunc

; 209  : 	return 1;

  000e5	bf 01 00 00 00	 mov	 edi, 1
$LN6@SayQuest:
  000ea	c7 45 fc ff ff
	ff ff		 mov	 DWORD PTR __$EHRec$[ebp+8], -1
; File C:\Program Files\Microsoft Visual Studio\2022\Professional\VC\Tools\MSVC\14.44.35207\atlmfc\include\atlsimpstr.h

; 804  : 		return( reinterpret_cast< CStringData* >( m_pszData )-1 );

  000f1	83 c6 f0	 add	 esi, -16		; fffffff0H

; 92   : 		if( _InterlockedDecrement( &nRefs ) <= 0 )

  000f4	83 c8 ff	 or	 eax, -1
  000f7	f0 0f c1 46 0c	 lock	  xadd	 DWORD PTR [esi+12], eax
  000fc	48		 dec	 eax
  000fd	85 c0		 test	 eax, eax
  000ff	7f 08		 jg	 SHORT $LN47@SayQuest

; 93   : 		{
; 94   : 			pStringMgr->Free( this );

  00101	8b 0e		 mov	 ecx, DWORD PTR [esi]
  00103	56		 push	 esi
  00104	8b 11		 mov	 edx, DWORD PTR [ecx]
  00106	ff 52 04	 call	 DWORD PTR [edx+4]
$LN47@SayQuest:
; File C:\IAGOS\server\v18\Source\Source\_Common\ScriptHelper.cpp

; 209  : 	return 1;

  00109	8b c7		 mov	 eax, edi

; 210  : }

  0010b	8b 4d f4	 mov	 ecx, DWORD PTR __$EHRec$[ebp]
  0010e	64 89 0d 00 00
	00 00		 mov	 DWORD PTR fs:0, ecx
  00115	59		 pop	 ecx
  00116	5f		 pop	 edi
  00117	5e		 pop	 esi
  00118	5b		 pop	 ebx
  00119	8b 4d f0	 mov	 ecx, DWORD PTR __$ArrayPad$[ebp]
  0011c	33 cd		 xor	 ecx, ebp
  0011e	e8 00 00 00 00	 call	 @__security_check_cookie@4
  00123	8b e5		 mov	 esp, ebp
  00125	5d		 pop	 ebp
  00126	c3		 ret	 0
$LN53@SayQuest:
; File C:\Program Files\Microsoft Visual Studio\2022\Professional\VC\Tools\MSVC\14.44.35207\atlmfc\include\atlsimpstr.h

; 209  : 		ATLENSURE( pStringMgr != NULL );

  00127	68 05 40 00 80	 push	 -2147467259		; 80004005H
  0012c	e8 00 00 00 00	 call	 ?AtlThrowImpl@ATL@@YGXJ@Z ; ATL::AtlThrowImpl
$LN51@SayQuest:
  00131	cc		 int	 3
_TEXT	ENDS
;	COMDAT text$x
text$x	SEGMENT
__unwindfunclet$?__SayQuest@@YAHHHH@Z$0:
  00000	8d 8d d4 f7 ff
	ff		 lea	 ecx, DWORD PTR _strToken$[ebp]
  00006	e9 00 00 00 00	 jmp	 ??1?$CStringT@DV?$StrTraitMFC@DV?$ChTraitsCRT@D@ATL@@@@@ATL@@QAE@XZ ; ATL::CStringT<char,StrTraitMFC<char,ATL::ChTraitsCRT<char> > >::~CStringT<char,StrTraitMFC<char,ATL::ChTraitsCRT<char> > >
  0000b	cc		 int	 3
  0000c	cc		 int	 3
  0000d	cc		 int	 3
  0000e	cc		 int	 3
  0000f	cc		 int	 3
__ehhandler$?__SayQuest@@YAHHHH@Z:
  00010	90		 npad	 1
  00011	90		 npad	 1
  00012	8b 54 24 08	 mov	 edx, DWORD PTR [esp+8]
  00016	8d 42 0c	 lea	 eax, DWORD PTR [edx+12]
  00019	8b 8a cc f7 ff
	ff		 mov	 ecx, DWORD PTR [edx-2100]
  0001f	33 c8		 xor	 ecx, eax
  00021	e8 00 00 00 00	 call	 @__security_check_cookie@4
  00026	8b 4a fc	 mov	 ecx, DWORD PTR [edx-4]
  00029	33 c8		 xor	 ecx, eax
  0002b	e8 00 00 00 00	 call	 @__security_check_cookie@4
  00030	b8 00 00 00 00	 mov	 eax, OFFSET __ehfuncinfo$?__SayQuest@@YAHHHH@Z
  00035	e9 00 00 00 00	 jmp	 ___CxxFrameHandler3
text$x	ENDS
?__SayQuest@@YAHHHH@Z ENDP				; __SayQuest
; Function compile flags: /Ogtp
; File C:\IAGOS\server\v18\Source\Source\_Common\ScriptHelper.cpp
;	COMDAT ?__RemoveAllKey@@YAHH@Z
_TEXT	SEGMENT
_rsf$ = -2076						; size = 2072
__$ArrayPad$ = -4					; size = 4
_nPcId$ = 8						; size = 4
?__RemoveAllKey@@YAHH@Z PROC				; __RemoveAllKey, COMDAT

; 184  : {

  00000	55		 push	 ebp
  00001	8b ec		 mov	 ebp, esp
  00003	81 ec 1c 08 00
	00		 sub	 esp, 2076		; 0000081cH
  00009	a1 00 00 00 00	 mov	 eax, DWORD PTR ___security_cookie
  0000e	33 c5		 xor	 eax, ebp
  00010	89 45 fc	 mov	 DWORD PTR __$ArrayPad$[ebp], eax
  00013	8b 45 08	 mov	 eax, DWORD PTR _nPcId$[ebp]

; 185  : 	CUser* pUser	= prj.GetUser( nPcId );

  00016	b9 00 00 00 00	 mov	 ecx, OFFSET ?prj@@3VCProject@@A ; prj
  0001b	50		 push	 eax
  0001c	e8 00 00 00 00	 call	 ?GetUser@CProject@@QAEPAVCUser@@K@Z ; CProject::GetUser

; 186  : 	RunScriptFunc rsf;
; 187  : 	rsf.wFuncType		= FUNCTYPE_REMOVEALLKEY;

  00021	b9 1d 00 00 00	 mov	 ecx, 29			; 0000001dH
  00026	66 89 4d ec	 mov	 WORD PTR _rsf$[ebp+2056], cx

; 188  : 	pUser->AddRunScriptFunc( rsf );

  0002a	8d 8d e4 f7 ff
	ff		 lea	 ecx, DWORD PTR _rsf$[ebp]
  00030	51		 push	 ecx
  00031	8b c8		 mov	 ecx, eax
  00033	e8 00 00 00 00	 call	 ?AddRunScriptFunc@CUser@@QAEXABU_runscriptfunc@@@Z ; CUser::AddRunScriptFunc

; 189  : 
; 190  : 	return 1;
; 191  : }

  00038	8b 4d fc	 mov	 ecx, DWORD PTR __$ArrayPad$[ebp]
  0003b	b8 01 00 00 00	 mov	 eax, 1
  00040	33 cd		 xor	 ecx, ebp
  00042	e8 00 00 00 00	 call	 @__security_check_cookie@4
  00047	8b e5		 mov	 esp, ebp
  00049	5d		 pop	 ebp
  0004a	c3		 ret	 0
?__RemoveAllKey@@YAHH@Z ENDP				; __RemoveAllKey
_TEXT	ENDS
; Function compile flags: /Ogtp
; File C:\IAGOS\server\v18\Source\Source\_Common\ScriptHelper.cpp
; File C:\IAGOS\server\v18\Source\Source\_Common\data.h
; File C:\IAGOS\server\v18\Source\Source\_Common\ScriptHelper.cpp
;	COMDAT ?__RemoveQuest@@YAHHH@Z
_TEXT	SEGMENT
_nPcId$ = 8						; size = 4
_nQuest$ = 12						; size = 4
_pQuest$1$ = 12						; size = 4
?__RemoveQuest@@YAHHH@Z PROC				; __RemoveQuest, COMDAT

; 161  : {

  00000	55		 push	 ebp
  00001	8b ec		 mov	 ebp, esp
  00003	56		 push	 esi
  00004	8b 75 0c	 mov	 esi, DWORD PTR _nQuest$[ebp]
; File C:\IAGOS\server\v18\Source\Source\_Common\data.h

; 270  : 	if( dwIndex >= (DWORD)m_nMaxIndex )

  00007	3b 35 f4 02 00
	00		 cmp	 esi, DWORD PTR ?prj@@3VCProject@@A+756
  0000d	0f 83 b3 00 00
	00		 jae	 $LN13@RemoveQues

; 271  : 		return NULL;
; 272  : 	return (T*) m_apOffset[ dwIndex ];

  00013	a1 e4 02 00 00	 mov	 eax, DWORD PTR ?prj@@3VCProject@@A+740
  00018	53		 push	 ebx
  00019	8b 1c b0	 mov	 ebx, DWORD PTR [eax+esi*4]
; File C:\IAGOS\server\v18\Source\Source\_Common\ScriptHelper.cpp

; 163  : 	if( pQuestProp )

  0001c	85 db		 test	 ebx, ebx
  0001e	0f 84 99 00 00
	00		 je	 $LN12@RemoveQues

; 164  : 	{
; 165  : 		CUser* pUser	= prj.GetUser( nPcId );

  00024	57		 push	 edi
  00025	ff 75 08	 push	 DWORD PTR _nPcId$[ebp]
  00028	b9 00 00 00 00	 mov	 ecx, OFFSET ?prj@@3VCProject@@A ; prj
  0002d	e8 00 00 00 00	 call	 ?GetUser@CProject@@QAEPAVCUser@@K@Z ; CProject::GetUser
  00032	8b f8		 mov	 edi, eax

; 166  : 		LPQUEST pQuest	= pUser->GetQuest( nQuest );

  00034	56		 push	 esi
  00035	8b cf		 mov	 ecx, edi
  00037	e8 00 00 00 00	 call	 ?GetQuest@CMover@@QAEPAUtagQuest@@H@Z ; CMover::GetQuest
  0003c	89 45 0c	 mov	 DWORD PTR _pQuest$1$[ebp], eax

; 167  : 
; 168  : 		if( pQuest && pQuest->m_nState < 14 ) 

  0003f	85 c0		 test	 eax, eax
  00041	74 2e		 je	 SHORT $LN3@RemoveQues
  00043	80 38 0e	 cmp	 BYTE PTR [eax], 14	; 0000000eH
  00046	73 29		 jae	 SHORT $LN3@RemoveQues

; 169  : 			pUser->AddDefinedText( TID_EVE_CANCELQUEST, "\"%s\"", pQuestProp->m_szTitle );

  00048	8d 43 02	 lea	 eax, DWORD PTR [ebx+2]
  0004b	50		 push	 eax
  0004c	68 00 00 00 00	 push	 OFFSET ??_C@_04OEDFLLKD@?$CC?$CFs?$CC@
  00051	68 fb 01 00 00	 push	 507			; 000001fbH
  00056	57		 push	 edi
  00057	e8 00 00 00 00	 call	 ?AddDefinedText@CUser@@QAAXHPBDZZ ; CUser::AddDefinedText
  0005c	83 c4 10	 add	 esp, 16			; 00000010H
  0005f	8b cf		 mov	 ecx, edi
  00061	56		 push	 esi
  00062	e8 00 00 00 00	 call	 ?RemoveQuest@CMover@@QAEHH@Z ; CMover::RemoveQuest
  00067	56		 push	 esi
  00068	8b cf		 mov	 ecx, edi
  0006a	e8 00 00 00 00	 call	 ?AddRemoveQuest@CUser@@QAEXK@Z ; CUser::AddRemoveQuest
  0006f	eb 16		 jmp	 SHORT $LN9@RemoveQues
$LN3@RemoveQues:

; 170  : 		pUser->RemoveQuest( nQuest );

  00071	56		 push	 esi
  00072	8b cf		 mov	 ecx, edi
  00074	e8 00 00 00 00	 call	 ?RemoveQuest@CMover@@QAEHH@Z ; CMover::RemoveQuest

; 171  : 		pUser->AddRemoveQuest( nQuest );

  00079	56		 push	 esi
  0007a	8b cf		 mov	 ecx, edi
  0007c	e8 00 00 00 00	 call	 ?AddRemoveQuest@CUser@@QAEXK@Z ; CUser::AddRemoveQuest

; 172  : 		// ˝ĂŔŰ˝Ă şŻ˝ĹŔ» ÇßŔ¸¸é Äů˝şĆ® »čÁ¦˝Ă şŻ˝Ĺ ÇŘÁ¦˝ĂĹ˛´Ů.
; 173  : 		if( pQuest && pQuestProp->m_nBeginSetDisguiseMoverIndex )

  00081	83 7d 0c 00	 cmp	 DWORD PTR _pQuest$1$[ebp], 0
  00085	74 2c		 je	 SHORT $LN10@RemoveQues
$LN9@RemoveQues:
  00087	83 bb 00 01 00
	00 00		 cmp	 DWORD PTR [ebx+256], 0
  0008e	74 23		 je	 SHORT $LN10@RemoveQues

; 174  : 		{
; 175  : 			CUser* pUser = prj.GetUser( nPcId );

  00090	ff 75 08	 push	 DWORD PTR _nPcId$[ebp]
  00093	b9 00 00 00 00	 mov	 ecx, OFFSET ?prj@@3VCProject@@A ; prj
  00098	e8 00 00 00 00	 call	 ?GetUser@CProject@@QAEPAVCUser@@K@Z ; CProject::GetUser
  0009d	8b f0		 mov	 esi, eax

; 176  : 			pUser->NoDisguise( NULL );

  0009f	6a 00		 push	 0
  000a1	8b ce		 mov	 ecx, esi
  000a3	e8 00 00 00 00	 call	 ?NoDisguise@CMover@@QAEHPAUIDirect3DDevice9@@@Z ; CMover::NoDisguise

; 177  : 			g_UserMng.AddNoDisguise( pUser );

  000a8	56		 push	 esi
  000a9	b9 00 00 00 00	 mov	 ecx, OFFSET ?g_UserMng@@3VCUserMng@@A ; g_UserMng
  000ae	e8 00 00 00 00	 call	 ?AddNoDisguise@CUserMng@@QAEXPAVCMover@@@Z ; CUserMng::AddNoDisguise
$LN10@RemoveQues:

; 178  : 		}
; 179  : 	}
; 180  : 	return 1;

  000b3	5f		 pop	 edi
  000b4	5b		 pop	 ebx
  000b5	b8 01 00 00 00	 mov	 eax, 1
  000ba	5e		 pop	 esi

; 181  : }

  000bb	5d		 pop	 ebp
  000bc	c3		 ret	 0
$LN12@RemoveQues:
  000bd	5b		 pop	 ebx

; 178  : 		}
; 179  : 	}
; 180  : 	return 1;

  000be	b8 01 00 00 00	 mov	 eax, 1
  000c3	5e		 pop	 esi

; 181  : }

  000c4	5d		 pop	 ebp
  000c5	c3		 ret	 0
$LN13@RemoveQues:

; 178  : 		}
; 179  : 	}
; 180  : 	return 1;

  000c6	b8 01 00 00 00	 mov	 eax, 1
  000cb	5e		 pop	 esi

; 181  : }

  000cc	5d		 pop	 ebp
  000cd	c3		 ret	 0
?__RemoveQuest@@YAHHH@Z ENDP				; __RemoveQuest
_TEXT	ENDS
; Function compile flags: /Ogtp
; File C:\IAGOS\server\v18\Source\Source\_Common\ScriptHelper.cpp
;	COMDAT ?__AddAnswer@@YAHHPBD0KH@Z
_TEXT	SEGMENT
_rsf$ = -2332						; size = 2072
_szKey$ = -260						; size = 128
_szWord$ = -132						; size = 128
__$ArrayPad$ = -4					; size = 4
_nPcId$ = 8						; size = 4
_lpszWord$ = 12						; size = 4
_lpszKey$ = 16						; size = 4
_dwParam1$ = 20						; size = 4
_nQuest$ = 24						; size = 4
?__AddAnswer@@YAHHPBD0KH@Z PROC				; __AddAnswer, COMDAT

; 139  : {

  00000	55		 push	 ebp
  00001	8b ec		 mov	 ebp, esp
  00003	81 ec 1c 09 00
	00		 sub	 esp, 2332		; 0000091cH
  00009	a1 00 00 00 00	 mov	 eax, DWORD PTR ___security_cookie
  0000e	33 c5		 xor	 eax, ebp
  00010	89 45 fc	 mov	 DWORD PTR __$ArrayPad$[ebp], eax

; 140  : 	CHAR szKey[ 128 ], szWord[ 128 ];
; 141  : 
; 142  : 	strcpy( szWord, lpszWord );

  00013	8b 4d 0c	 mov	 ecx, DWORD PTR _lpszWord$[ebp]
  00016	8d 95 7c ff ff
	ff		 lea	 edx, DWORD PTR _szWord$[ebp]
  0001c	56		 push	 esi
  0001d	8b 75 08	 mov	 esi, DWORD PTR _nPcId$[ebp]
  00020	2b d1		 sub	 edx, ecx
  00022	57		 push	 edi
$LL5@AddAnswer:
  00023	8a 01		 mov	 al, BYTE PTR [ecx]
  00025	8d 49 01	 lea	 ecx, DWORD PTR [ecx+1]
  00028	88 44 0a ff	 mov	 BYTE PTR [edx+ecx-1], al
  0002c	84 c0		 test	 al, al
  0002e	75 f3		 jne	 SHORT $LL5@AddAnswer

; 143  : 
; 144  : 	if( lpszKey[0] == '\0' ) 

  00030	8b 45 10	 mov	 eax, DWORD PTR _lpszKey$[ebp]
  00033	80 38 00	 cmp	 BYTE PTR [eax], 0
  00036	75 1f		 jne	 SHORT $LN2@AddAnswer

; 145  : 		strcpy( szKey, szWord );

  00038	33 c9		 xor	 ecx, ecx
  0003a	66 0f 1f 44 00
	00		 npad	 6
$LL6@AddAnswer:
  00040	8a 84 0d 7c ff
	ff ff		 mov	 al, BYTE PTR _szWord$[ebp+ecx]
  00047	8d 49 01	 lea	 ecx, DWORD PTR [ecx+1]
  0004a	88 84 0d fb fe
	ff ff		 mov	 BYTE PTR _szKey$[ebp+ecx-1], al
  00051	84 c0		 test	 al, al
  00053	75 eb		 jne	 SHORT $LL6@AddAnswer
  00055	eb 16		 jmp	 SHORT $LN3@AddAnswer
$LN2@AddAnswer:

; 146  : 	else
; 147  : 		strcpy( szKey, lpszKey );

  00057	8d 95 fc fe ff
	ff		 lea	 edx, DWORD PTR _szKey$[ebp]
  0005d	2b d0		 sub	 edx, eax
  0005f	90		 npad	 1
$LL7@AddAnswer:
  00060	8a 08		 mov	 cl, BYTE PTR [eax]
  00062	8d 40 01	 lea	 eax, DWORD PTR [eax+1]
  00065	88 4c 02 ff	 mov	 BYTE PTR [edx+eax-1], cl
  00069	84 c9		 test	 cl, cl
  0006b	75 f3		 jne	 SHORT $LL7@AddAnswer
$LN3@AddAnswer:

; 148  : 
; 149  : 	CUser* pUser = prj.GetUser( nPcId );

  0006d	56		 push	 esi
  0006e	b9 00 00 00 00	 mov	 ecx, OFFSET ?prj@@3VCProject@@A ; prj
  00073	e8 00 00 00 00	 call	 ?GetUser@CProject@@QAEPAVCUser@@K@Z ; CProject::GetUser

; 150  : 	RunScriptFunc rsf;
; 151  : 	rsf.wFuncType		= FUNCTYPE_ADDANSWER;
; 152  : 	lstrcpy( rsf.lpszVal1, szWord );

  00078	8b 35 00 00 00
	00		 mov	 esi, DWORD PTR __imp__lstrcpyA@8
  0007e	8b f8		 mov	 edi, eax
  00080	b8 13 00 00 00	 mov	 eax, 19			; 00000013H
  00085	66 89 85 ec fe
	ff ff		 mov	 WORD PTR _rsf$[ebp+2056], ax
  0008c	8d 85 7c ff ff
	ff		 lea	 eax, DWORD PTR _szWord$[ebp]
  00092	50		 push	 eax
  00093	8d 85 e4 f6 ff
	ff		 lea	 eax, DWORD PTR _rsf$[ebp]
  00099	50		 push	 eax
  0009a	ff d6		 call	 esi

; 153  : 	lstrcpy( rsf.lpszVal2, szKey );

  0009c	8d 85 fc fe ff
	ff		 lea	 eax, DWORD PTR _szKey$[ebp]
  000a2	50		 push	 eax
  000a3	8d 85 e4 fa ff
	ff		 lea	 eax, DWORD PTR _rsf$[ebp+1024]
  000a9	50		 push	 eax
  000aa	ff d6		 call	 esi

; 154  : 	rsf.dwVal1 = (DWORD)dwParam1;

  000ac	8b 45 14	 mov	 eax, DWORD PTR _dwParam1$[ebp]

; 155  : 	rsf.dwVal2 = nQuest;
; 156  : 	pUser->AddRunScriptFunc( rsf );

  000af	8b cf		 mov	 ecx, edi
  000b1	89 85 e4 fe ff
	ff		 mov	 DWORD PTR _rsf$[ebp+2048], eax
  000b7	8b 45 18	 mov	 eax, DWORD PTR _nQuest$[ebp]
  000ba	89 85 e8 fe ff
	ff		 mov	 DWORD PTR _rsf$[ebp+2052], eax
  000c0	8d 85 e4 f6 ff
	ff		 lea	 eax, DWORD PTR _rsf$[ebp]
  000c6	50		 push	 eax
  000c7	e8 00 00 00 00	 call	 ?AddRunScriptFunc@CUser@@QAEXABU_runscriptfunc@@@Z ; CUser::AddRunScriptFunc

; 157  : 	return 1;
; 158  : }

  000cc	8b 4d fc	 mov	 ecx, DWORD PTR __$ArrayPad$[ebp]
  000cf	b8 01 00 00 00	 mov	 eax, 1
  000d4	5f		 pop	 edi
  000d5	33 cd		 xor	 ecx, ebp
  000d7	5e		 pop	 esi
  000d8	e8 00 00 00 00	 call	 @__security_check_cookie@4
  000dd	8b e5		 mov	 esp, ebp
  000df	5d		 pop	 ebp
  000e0	c3		 ret	 0
?__AddAnswer@@YAHHPBD0KH@Z ENDP				; __AddAnswer
_TEXT	ENDS
; Function compile flags: /Ogtp
; File C:\IAGOS\server\v18\Source\Source\_Common\ScriptHelper.cpp
;	COMDAT ?__AddKey@@YAHHPBD0K@Z
_TEXT	SEGMENT
_rsf$ = -2332						; size = 2072
_szKey$ = -260						; size = 128
_szWord$ = -132						; size = 128
__$ArrayPad$ = -4					; size = 4
_nPcId$ = 8						; size = 4
_lpszWord$ = 12						; size = 4
_lpszKey$ = 16						; size = 4
_dwParam$ = 20						; size = 4
?__AddKey@@YAHHPBD0K@Z PROC				; __AddKey, COMDAT

; 117  : {

  00000	55		 push	 ebp
  00001	8b ec		 mov	 ebp, esp
  00003	81 ec 1c 09 00
	00		 sub	 esp, 2332		; 0000091cH
  00009	a1 00 00 00 00	 mov	 eax, DWORD PTR ___security_cookie
  0000e	33 c5		 xor	 eax, ebp
  00010	89 45 fc	 mov	 DWORD PTR __$ArrayPad$[ebp], eax

; 118  : 	CHAR szKey[ 128 ], szWord[ 128 ];
; 119  : 
; 120  : 	strcpy( szWord, lpszWord );

  00013	8b 4d 0c	 mov	 ecx, DWORD PTR _lpszWord$[ebp]
  00016	8d 95 7c ff ff
	ff		 lea	 edx, DWORD PTR _szWord$[ebp]
  0001c	56		 push	 esi
  0001d	8b 75 08	 mov	 esi, DWORD PTR _nPcId$[ebp]
  00020	2b d1		 sub	 edx, ecx
  00022	57		 push	 edi
$LL5@AddKey:
  00023	8a 01		 mov	 al, BYTE PTR [ecx]
  00025	8d 49 01	 lea	 ecx, DWORD PTR [ecx+1]
  00028	88 44 0a ff	 mov	 BYTE PTR [edx+ecx-1], al
  0002c	84 c0		 test	 al, al
  0002e	75 f3		 jne	 SHORT $LL5@AddKey

; 121  : 
; 122  : 	if( lpszKey[0] == '\0' ) 

  00030	8b 45 10	 mov	 eax, DWORD PTR _lpszKey$[ebp]
  00033	80 38 00	 cmp	 BYTE PTR [eax], 0
  00036	75 1f		 jne	 SHORT $LN2@AddKey

; 123  : 		strcpy( szKey, szWord );

  00038	33 c9		 xor	 ecx, ecx
  0003a	66 0f 1f 44 00
	00		 npad	 6
$LL6@AddKey:
  00040	8a 84 0d 7c ff
	ff ff		 mov	 al, BYTE PTR _szWord$[ebp+ecx]
  00047	8d 49 01	 lea	 ecx, DWORD PTR [ecx+1]
  0004a	88 84 0d fb fe
	ff ff		 mov	 BYTE PTR _szKey$[ebp+ecx-1], al
  00051	84 c0		 test	 al, al
  00053	75 eb		 jne	 SHORT $LL6@AddKey
  00055	eb 16		 jmp	 SHORT $LN3@AddKey
$LN2@AddKey:

; 124  : 	else
; 125  : 		strcpy( szKey, lpszKey );

  00057	8d 95 fc fe ff
	ff		 lea	 edx, DWORD PTR _szKey$[ebp]
  0005d	2b d0		 sub	 edx, eax
  0005f	90		 npad	 1
$LL7@AddKey:
  00060	8a 08		 mov	 cl, BYTE PTR [eax]
  00062	8d 40 01	 lea	 eax, DWORD PTR [eax+1]
  00065	88 4c 02 ff	 mov	 BYTE PTR [edx+eax-1], cl
  00069	84 c9		 test	 cl, cl
  0006b	75 f3		 jne	 SHORT $LL7@AddKey
$LN3@AddKey:

; 126  : 
; 127  : 	CUser* pUser	= prj.GetUser( nPcId );

  0006d	56		 push	 esi
  0006e	b9 00 00 00 00	 mov	 ecx, OFFSET ?prj@@3VCProject@@A ; prj
  00073	e8 00 00 00 00	 call	 ?GetUser@CProject@@QAEPAVCUser@@K@Z ; CProject::GetUser

; 128  : 	RunScriptFunc rsf;
; 129  : 	rsf.wFuncType		= FUNCTYPE_ADDKEY;
; 130  : 	lstrcpy( rsf.lpszVal1, szWord );

  00078	8b 35 00 00 00
	00		 mov	 esi, DWORD PTR __imp__lstrcpyA@8
  0007e	8b f8		 mov	 edi, eax
  00080	b8 10 00 00 00	 mov	 eax, 16			; 00000010H
  00085	66 89 85 ec fe
	ff ff		 mov	 WORD PTR _rsf$[ebp+2056], ax
  0008c	8d 85 7c ff ff
	ff		 lea	 eax, DWORD PTR _szWord$[ebp]
  00092	50		 push	 eax
  00093	8d 85 e4 f6 ff
	ff		 lea	 eax, DWORD PTR _rsf$[ebp]
  00099	50		 push	 eax
  0009a	ff d6		 call	 esi

; 131  : 	lstrcpy( rsf.lpszVal2, szKey );

  0009c	8d 85 fc fe ff
	ff		 lea	 eax, DWORD PTR _szKey$[ebp]
  000a2	50		 push	 eax
  000a3	8d 85 e4 fa ff
	ff		 lea	 eax, DWORD PTR _rsf$[ebp+1024]
  000a9	50		 push	 eax
  000aa	ff d6		 call	 esi

; 132  : 	rsf.dwVal1	= dwParam;

  000ac	8b 45 14	 mov	 eax, DWORD PTR _dwParam$[ebp]

; 133  : 	rsf.dwVal2 = 0;
; 134  : 	pUser->AddRunScriptFunc( rsf );

  000af	8b cf		 mov	 ecx, edi
  000b1	89 85 e4 fe ff
	ff		 mov	 DWORD PTR _rsf$[ebp+2048], eax
  000b7	8d 85 e4 f6 ff
	ff		 lea	 eax, DWORD PTR _rsf$[ebp]
  000bd	50		 push	 eax
  000be	c7 85 e8 fe ff
	ff 00 00 00 00	 mov	 DWORD PTR _rsf$[ebp+2052], 0
  000c8	e8 00 00 00 00	 call	 ?AddRunScriptFunc@CUser@@QAEXABU_runscriptfunc@@@Z ; CUser::AddRunScriptFunc

; 135  : 	return 1;
; 136  : }

  000cd	8b 4d fc	 mov	 ecx, DWORD PTR __$ArrayPad$[ebp]
  000d0	b8 01 00 00 00	 mov	 eax, 1
  000d5	5f		 pop	 edi
  000d6	33 cd		 xor	 ecx, ebp
  000d8	5e		 pop	 esi
  000d9	e8 00 00 00 00	 call	 @__security_check_cookie@4
  000de	8b e5		 mov	 esp, ebp
  000e0	5d		 pop	 ebp
  000e1	c3		 ret	 0
?__AddKey@@YAHHPBD0K@Z ENDP				; __AddKey
_TEXT	ENDS
; Function compile flags: /Ogtp
; File C:\IAGOS\server\v18\Source\Source\_Common\ScriptHelper.cpp
;	COMDAT ?__GetWorld@@YAPAVCWorld@@HHH@Z
_TEXT	SEGMENT
_nPcId$ = 8						; size = 4
_nSrcId$ = 12						; size = 4
_nCaller$ = 16						; size = 4
?__GetWorld@@YAPAVCWorld@@HHH@Z PROC			; __GetWorld, COMDAT

; 102  : {

  00000	55		 push	 ebp
  00001	8b ec		 mov	 ebp, esp

; 103  : 	CWorld* pWorld = NULL;
; 104  : 	if( nCaller == WES_DIALOG )

  00003	8b 45 10	 mov	 eax, DWORD PTR _nCaller$[ebp]
  00006	83 f8 05	 cmp	 eax, 5
  00009	75 15		 jne	 SHORT $LN2@GetWorld

; 105  : 	{
; 106  : 		CUser* pUser = prj.GetUser( nPcId );

  0000b	ff 75 08	 push	 DWORD PTR _nPcId$[ebp]
  0000e	b9 00 00 00 00	 mov	 ecx, OFFSET ?prj@@3VCProject@@A ; prj
  00013	e8 00 00 00 00	 call	 ?GetUser@CProject@@QAEPAVCUser@@K@Z ; CProject::GetUser

; 112  : 
; 113  : 	return pWorld;

  00018	8b 80 6c 01 00
	00		 mov	 eax, DWORD PTR [eax+364]

; 114  : }

  0001e	5d		 pop	 ebp
  0001f	c3		 ret	 0
$LN2@GetWorld:

; 107  : 		pWorld = pUser->GetWorld();
; 108  : 	}
; 109  : 	else
; 110  : 	if( nCaller == WES_WORLD )

  00020	83 f8 01	 cmp	 eax, 1
  00023	75 0f		 jne	 SHORT $LN6@GetWorld

; 111  : 		pWorld = g_WorldMng.GetWorld( nSrcId );

  00025	ff 75 0c	 push	 DWORD PTR _nSrcId$[ebp]
  00028	b9 00 00 00 00	 mov	 ecx, OFFSET ?g_WorldMng@@3VCWorldMng@@A ; g_WorldMng
  0002d	e8 00 00 00 00	 call	 ?GetWorld@CWorldMng@@QAEPAVCWorld@@K@Z ; CWorldMng::GetWorld

; 114  : }

  00032	5d		 pop	 ebp
  00033	c3		 ret	 0
$LN6@GetWorld:

; 112  : 
; 113  : 	return pWorld;

  00034	33 c0		 xor	 eax, eax

; 114  : }

  00036	5d		 pop	 ebp
  00037	c3		 ret	 0
?__GetWorld@@YAPAVCWorld@@HHH@Z ENDP			; __GetWorld
_TEXT	ENDS
; Function compile flags: /Ogtp
; File C:\IAGOS\server\v18\Source\Source\_Common\ScriptHelper.cpp
; File C:\Program Files\Microsoft Visual Studio\2022\Professional\VC\Tools\MSVC\14.44.35207\include\xtree
; File C:\Program Files\Microsoft Visual Studio\2022\Professional\VC\Tools\MSVC\14.44.35207\include\type_traits
; File C:\Program Files\Microsoft Visual Studio\2022\Professional\VC\Tools\MSVC\14.44.35207\include\xtree
; File C:\Program Files\Microsoft Visual Studio\2022\Professional\VC\Tools\MSVC\14.44.35207\include\xstring
; File C:\Program Files\Microsoft Visual Studio\2022\Professional\VC\Tools\MSVC\14.44.35207\include\xmemory
; File C:\Program Files\Microsoft Visual Studio\2022\Professional\VC\Tools\MSVC\14.44.35207\include\xstring
; File C:\Program Files\Microsoft Visual Studio\2022\Professional\VC\Tools\MSVC\14.44.35207\include\xmemory
; File C:\Program Files\Microsoft Visual Studio\2022\Professional\VC\Tools\MSVC\14.44.35207\include\xtree
; File C:\IAGOS\server\v18\Source\Source\_Common\ScriptHelper.cpp
; File C:\Program Files\Microsoft Visual Studio\2022\Professional\VC\Tools\MSVC\14.44.35207\include\xmemory
; File C:\IAGOS\server\v18\Source\Source\_Common\ScriptHelper.cpp
;	COMDAT ?RunPredefineKey@@YAHPBDAAVCNpcDialogInfo@@@Z
_TEXT	SEGMENT
__Loc$1 = -48						; size = 12
_nGlobal$1$ = -36					; size = 4
_info$GSCopy$1$ = -32					; size = 4
$T2 = -28						; size = 24
__$ArrayPad$ = -4					; size = 4
_szKey$ = 8						; size = 4
_info$ = 12						; size = 4
?RunPredefineKey@@YAHPBDAAVCNpcDialogInfo@@@Z PROC	; RunPredefineKey, COMDAT

; 57   : {

  00000	55		 push	 ebp
  00001	8b ec		 mov	 ebp, esp
  00003	83 ec 30	 sub	 esp, 48			; 00000030H
  00006	a1 00 00 00 00	 mov	 eax, DWORD PTR ___security_cookie
  0000b	33 c5		 xor	 eax, ebp
  0000d	89 45 fc	 mov	 DWORD PTR __$ArrayPad$[ebp], eax
  00010	53		 push	 ebx
  00011	8b 5d 0c	 mov	 ebx, DWORD PTR _info$[ebp]

; 58   : 	int& nGlobal = *( info.GetGlobal() );

  00014	8b cb		 mov	 ecx, ebx
  00016	56		 push	 esi
  00017	8b 75 08	 mov	 esi, DWORD PTR _szKey$[ebp]
  0001a	57		 push	 edi
  0001b	8b 03		 mov	 eax, DWORD PTR [ebx]
  0001d	89 5d e0	 mov	 DWORD PTR _info$GSCopy$1$[ebp], ebx
  00020	ff 50 1c	 call	 DWORD PTR [eax+28]

; 59   : 
; 60   : 	map< string, QUEST_ENUM >::iterator it = g_mapKey.find( szKey );

  00023	56		 push	 esi
  00024	8d 4d e4	 lea	 ecx, DWORD PTR $T2[ebp]
  00027	89 45 dc	 mov	 DWORD PTR _nGlobal$1$[ebp], eax
  0002a	e8 00 00 00 00	 call	 ??0?$basic_string@DU?$char_traits@D@std@@V?$allocator@D@2@@std@@QAE@QBD@Z ; std::basic_string<char,std::char_traits<char>,std::allocator<char> >::basic_string<char,std::char_traits<char>,std::allocator<char> >
; File C:\Program Files\Microsoft Visual Studio\2022\Professional\VC\Tools\MSVC\14.44.35207\include\xtree

; 1384 :         const _Tree_find_result<_Nodeptr> _Loc = _Find_lower_bound(_Keyval);

  0002f	8d 45 e4	 lea	 eax, DWORD PTR $T2[ebp]
  00032	b9 00 00 00 00	 mov	 ecx, OFFSET ?g_mapKey@@3V?$map@V?$basic_string@DU?$char_traits@D@std@@V?$allocator@D@2@@std@@W4QUEST_ENUM@@U?$less@V?$basic_string@DU?$char_traits@D@std@@V?$allocator@D@2@@std@@@2@V?$allocator@U?$pair@$$CBV?$basic_string@DU?$char_traits@D@std@@V?$allocator@D@2@@std@@W4QUEST_ENUM@@@std@@@2@@std@@A
  00037	50		 push	 eax
  00038	8d 45 d0	 lea	 eax, DWORD PTR __Loc$1[ebp]
  0003b	50		 push	 eax
  0003c	e8 00 00 00 00	 call	 ??$_Find_lower_bound@V?$basic_string@DU?$char_traits@D@std@@V?$allocator@D@2@@std@@@?$_Tree@V?$_Tmap_traits@V?$basic_string@DU?$char_traits@D@std@@V?$allocator@D@2@@std@@W4QUEST_ENUM@@U?$less@V?$basic_string@DU?$char_traits@D@std@@V?$allocator@D@2@@std@@@2@V?$allocator@U?$pair@$$CBV?$basic_string@DU?$char_traits@D@std@@V?$allocator@D@2@@std@@W4QUEST_ENUM@@@std@@@2@$0A@@std@@@std@@IBE?AU?$_Tree_find_result@PAU?$_Tree_node@U?$pair@$$CBV?$basic_string@DU?$char_traits@D@std@@V?$allocator@D@2@@std@@W4QUEST_ENUM@@@std@@PAX@std@@@1@ABV?$basic_string@DU?$char_traits@D@std@@V?$allocator@D@2@@1@@Z ; std::_Tree<std::_Tmap_traits<std::basic_string<char,std::char_traits<char>,std::allocator<char> >,enum QUEST_ENUM,std::less<std::basic_string<char,std::char_traits<char>,std::allocator<char> > >,std::allocator<std::pair<std::basic_string<char,std::char_traits<char>,std::allocator<char> > const ,enum QUEST_ENUM> >,0> >::_Find_lower_bound<std::basic_string<char,std::char_traits<char>,std::allocator<char> > >

; 1624 :         return !_Bound->_Isnil && !_DEBUG_LT_PRED(_Getcomp(), _Keyval, _Traits::_Kfn(_Bound->_Myval));

  00041	8b 75 d8	 mov	 esi, DWORD PTR __Loc$1[ebp+8]
  00044	8b 3d 00 00 00
	00		 mov	 edi, DWORD PTR ?g_mapKey@@3V?$map@V?$basic_string@DU?$char_traits@D@std@@V?$allocator@D@2@@std@@W4QUEST_ENUM@@U?$less@V?$basic_string@DU?$char_traits@D@std@@V?$allocator@D@2@@std@@@2@V?$allocator@U?$pair@$$CBV?$basic_string@DU?$char_traits@D@std@@V?$allocator@D@2@@std@@W4QUEST_ENUM@@@std@@@2@@std@@A
  0004a	80 7e 0d 00	 cmp	 BYTE PTR [esi+13], 0
  0004e	75 14		 jne	 SHORT $LN17@RunPredefi
  00050	8d 46 10	 lea	 eax, DWORD PTR [esi+16]
; File C:\Program Files\Microsoft Visual Studio\2022\Professional\VC\Tools\MSVC\14.44.35207\include\type_traits

; 2380 :         return _Left < _Right;

  00053	50		 push	 eax
  00054	8d 45 e4	 lea	 eax, DWORD PTR $T2[ebp]
  00057	50		 push	 eax
  00058	e8 00 00 00 00	 call	 ??$?MDU?$char_traits@D@std@@V?$allocator@D@1@@std@@YA_NABV?$basic_string@DU?$char_traits@D@std@@V?$allocator@D@2@@0@0@Z ; std::operator<<char,std::char_traits<char>,std::allocator<char> >
  0005d	83 c4 08	 add	 esp, 8
; File C:\Program Files\Microsoft Visual Studio\2022\Professional\VC\Tools\MSVC\14.44.35207\include\xtree

; 1624 :         return !_Bound->_Isnil && !_DEBUG_LT_PRED(_Getcomp(), _Keyval, _Traits::_Kfn(_Bound->_Myval));

  00060	84 c0		 test	 al, al
  00062	74 02		 je	 SHORT $LN16@RunPredefi
$LN17@RunPredefi:

; 1389 :         return _Get_scary()->_Myhead;

  00064	8b f7		 mov	 esi, edi
$LN16@RunPredefi:
; File C:\Program Files\Microsoft Visual Studio\2022\Professional\VC\Tools\MSVC\14.44.35207\include\xstring

; 453  :         return _Myres > _Small_string_capacity;

  00066	8b 4d f8	 mov	 ecx, DWORD PTR $T2[ebp+20]
  00069	83 f9 0f	 cmp	 ecx, 15			; 0000000fH

; 3083 :         if (_My_data._Large_mode_engaged()) {

  0006c	76 32		 jbe	 SHORT $LN55@RunPredefi
; File C:\Program Files\Microsoft Visual Studio\2022\Professional\VC\Tools\MSVC\14.44.35207\include\xmemory

; 985  :         _STD _Deallocate<_New_alignof<_Ty>>(_Ptr, sizeof(_Ty) * _Count);

  0006e	8b 55 e4	 mov	 edx, DWORD PTR $T2[ebp]
; File C:\Program Files\Microsoft Visual Studio\2022\Professional\VC\Tools\MSVC\14.44.35207\include\xstring

; 852  :         _Al.deallocate(_Old_ptr, _Capacity + 1); // +1 for null terminator

  00071	41		 inc	 ecx
; File C:\Program Files\Microsoft Visual Studio\2022\Professional\VC\Tools\MSVC\14.44.35207\include\xmemory

; 985  :         _STD _Deallocate<_New_alignof<_Ty>>(_Ptr, sizeof(_Ty) * _Count);

  00072	8b c2		 mov	 eax, edx

; 284  :         if (_Bytes >= _Big_allocation_threshold) {

  00074	81 f9 00 10 00
	00		 cmp	 ecx, 4096		; 00001000H
  0007a	72 14		 jb	 SHORT $LN60@RunPredefi

; 205  :     const uintptr_t _Ptr_container   = _Ptr_user[-1];

  0007c	8b 50 fc	 mov	 edx, DWORD PTR [eax-4]
  0007f	83 c1 23	 add	 ecx, 35			; 00000023H
  00082	2b c2		 sub	 eax, edx

; 219  :     _STL_VERIFY(_Back_shift >= _Min_back_shift && _Back_shift <= _Non_user_size, "invalid argument");

  00084	83 c0 fc	 add	 eax, -4			; fffffffcH
  00087	83 f8 1f	 cmp	 eax, 31			; 0000001fH
  0008a	0f 87 70 01 00
	00		 ja	 $LN104@RunPredefi
$LN60@RunPredefi:

; 289  :         ::operator delete(_Ptr, _Bytes);

  00090	51		 push	 ecx
  00091	52		 push	 edx
  00092	e8 00 00 00 00	 call	 ??3@YAXPAXI@Z		; operator delete
  00097	8b 3d 00 00 00
	00		 mov	 edi, DWORD PTR ?g_mapKey@@3V?$map@V?$basic_string@DU?$char_traits@D@std@@V?$allocator@D@2@@std@@W4QUEST_ENUM@@U?$less@V?$basic_string@DU?$char_traits@D@std@@V?$allocator@D@2@@std@@@2@V?$allocator@U?$pair@$$CBV?$basic_string@DU?$char_traits@D@std@@V?$allocator@D@2@@std@@W4QUEST_ENUM@@@std@@@2@@std@@A
  0009d	83 c4 08	 add	 esp, 8
$LN55@RunPredefi:
; File C:\Program Files\Microsoft Visual Studio\2022\Professional\VC\Tools\MSVC\14.44.35207\include\xtree

; 37   :     _Tree_unchecked_const_iterator(_Nodeptr _Pnode, const _Mytree* _Plist) noexcept : _Ptr(_Pnode) {

  000a0	3b f7		 cmp	 esi, edi
; File C:\IAGOS\server\v18\Source\Source\_Common\ScriptHelper.cpp

; 61   : 	if( it == g_mapKey.end() )

  000a2	0f 84 45 01 00
	00		 je	 $LN11@RunPredefi

; 62   : 		return FALSE;
; 63   : 	
; 64   : 	QUEST_ENUM type = it->second;

  000a8	8b 46 28	 mov	 eax, DWORD PTR [esi+40]

; 65   : 	switch( type )

  000ab	83 f8 06	 cmp	 eax, 6
  000ae	0f 87 39 01 00
	00		 ja	 $LN11@RunPredefi
  000b4	ff 24 85 00 00
	00 00		 jmp	 DWORD PTR $LN93@RunPredefi[eax*4]
$LN5@RunPredefi:

; 66   : 	{
; 67   : 	case QE_QUEST_END:
; 68   : #if __VER >= 15 // __IMPROVE_QUEST_INTERFACE
; 69   : 		__QuestEnd( info.GetPcId(), info.GetNpcId(), nGlobal, info.GetQuest(), FALSE );

  000bb	6a 00		 push	 0

; 70   : #else // __IMPROVE_QUEST_INTERFACE
; 71   : 		__QuestEnd( info.GetPcId(), info.GetNpcId(), nGlobal );
; 72   : #endif // __IMPROVE_QUEST_INTERFACE
; 73   : 		break;

  000bd	e9 f0 00 00 00	 jmp	 $LN101@RunPredefi
$LN6@RunPredefi:

; 74   : 	case QE_QUEST_BEGIN:
; 75   : 		__QuestBegin( info.GetPcId(), info.GetNpcId(), info.GetQuest() );

  000c2	8b 03		 mov	 eax, DWORD PTR [ebx]
  000c4	8b cb		 mov	 ecx, ebx
  000c6	8b 50 10	 mov	 edx, DWORD PTR [eax+16]
  000c9	8b 70 14	 mov	 esi, DWORD PTR [eax+20]
  000cc	8b 78 18	 mov	 edi, DWORD PTR [eax+24]
  000cf	ff d2		 call	 edx
  000d1	50		 push	 eax
  000d2	8b cb		 mov	 ecx, ebx
  000d4	ff d6		 call	 esi
  000d6	50		 push	 eax
  000d7	8b cb		 mov	 ecx, ebx
  000d9	ff d7		 call	 edi
  000db	50		 push	 eax
  000dc	e8 00 00 00 00	 call	 ?__QuestBegin@@YAXHHH@Z	; __QuestBegin
  000e1	83 c4 0c	 add	 esp, 12			; 0000000cH

; 89   : 		break;
; 90   : #endif // __IMPROVE_QUEST_INTERFACE
; 91   : 	default:
; 92   : 		return FALSE;
; 93   : 	};
; 94   : 
; 95   : 	return TRUE;

  000e4	b8 01 00 00 00	 mov	 eax, 1
  000e9	5f		 pop	 edi

; 96   : }

  000ea	5e		 pop	 esi
  000eb	5b		 pop	 ebx
  000ec	8b 4d fc	 mov	 ecx, DWORD PTR __$ArrayPad$[ebp]
  000ef	33 cd		 xor	 ecx, ebp
  000f1	e8 00 00 00 00	 call	 @__security_check_cookie@4
  000f6	8b e5		 mov	 esp, ebp
  000f8	5d		 pop	 ebp
  000f9	c3		 ret	 0
$LN7@RunPredefi:

; 76   : 		break;
; 77   : 	case QE_QUEST_BEGIN_YES:
; 78   : 		__QuestBeginYes( info.GetPcId(), info.GetNpcId(), info.GetQuest() );

  000fa	8b 03		 mov	 eax, DWORD PTR [ebx]
  000fc	8b cb		 mov	 ecx, ebx
  000fe	8b 50 10	 mov	 edx, DWORD PTR [eax+16]
  00101	8b 70 14	 mov	 esi, DWORD PTR [eax+20]
  00104	8b 78 18	 mov	 edi, DWORD PTR [eax+24]
  00107	ff d2		 call	 edx
  00109	50		 push	 eax
  0010a	8b cb		 mov	 ecx, ebx
  0010c	ff d6		 call	 esi
  0010e	50		 push	 eax
  0010f	8b cb		 mov	 ecx, ebx
  00111	ff d7		 call	 edi
  00113	50		 push	 eax
  00114	e8 00 00 00 00	 call	 ?__QuestBeginYes@@YAXHHH@Z ; __QuestBeginYes
  00119	83 c4 0c	 add	 esp, 12			; 0000000cH

; 89   : 		break;
; 90   : #endif // __IMPROVE_QUEST_INTERFACE
; 91   : 	default:
; 92   : 		return FALSE;
; 93   : 	};
; 94   : 
; 95   : 	return TRUE;

  0011c	b8 01 00 00 00	 mov	 eax, 1
  00121	5f		 pop	 edi

; 96   : }

  00122	5e		 pop	 esi
  00123	5b		 pop	 ebx
  00124	8b 4d fc	 mov	 ecx, DWORD PTR __$ArrayPad$[ebp]
  00127	33 cd		 xor	 ecx, ebp
  00129	e8 00 00 00 00	 call	 @__security_check_cookie@4
  0012e	8b e5		 mov	 esp, ebp
  00130	5d		 pop	 ebp
  00131	c3		 ret	 0
$LN8@RunPredefi:

; 79   : 		break;
; 80   : 	case QE_QUEST_BEGIN_NO:
; 81   : 		__QuestBeginNo( info.GetPcId(), info.GetNpcId(), info.GetQuest() );

  00132	8b 03		 mov	 eax, DWORD PTR [ebx]
  00134	8b cb		 mov	 ecx, ebx
  00136	8b 50 10	 mov	 edx, DWORD PTR [eax+16]
  00139	8b 70 14	 mov	 esi, DWORD PTR [eax+20]
  0013c	8b 78 18	 mov	 edi, DWORD PTR [eax+24]
  0013f	ff d2		 call	 edx
  00141	50		 push	 eax
  00142	8b cb		 mov	 ecx, ebx
  00144	ff d6		 call	 esi
  00146	50		 push	 eax
  00147	8b cb		 mov	 ecx, ebx
  00149	ff d7		 call	 edi
  0014b	50		 push	 eax
  0014c	e8 00 00 00 00	 call	 ?__QuestBeginNo@@YAXHHH@Z ; __QuestBeginNo
  00151	83 c4 0c	 add	 esp, 12			; 0000000cH

; 89   : 		break;
; 90   : #endif // __IMPROVE_QUEST_INTERFACE
; 91   : 	default:
; 92   : 		return FALSE;
; 93   : 	};
; 94   : 
; 95   : 	return TRUE;

  00154	b8 01 00 00 00	 mov	 eax, 1
  00159	5f		 pop	 edi

; 96   : }

  0015a	5e		 pop	 esi
  0015b	5b		 pop	 ebx
  0015c	8b 4d fc	 mov	 ecx, DWORD PTR __$ArrayPad$[ebp]
  0015f	33 cd		 xor	 ecx, ebp
  00161	e8 00 00 00 00	 call	 @__security_check_cookie@4
  00166	8b e5		 mov	 esp, ebp
  00168	5d		 pop	 ebp
  00169	c3		 ret	 0
$LN9@RunPredefi:

; 82   : 		break;
; 83   : 	case QE_QUEST_END_COMPLETE:
; 84   : 		__QuestEndComplete( info.GetPcId(), info.GetNpcId(), nGlobal, info.GetReturn(), info.GetQuest() );

  0016a	8b 03		 mov	 eax, DWORD PTR [ebx]
  0016c	8b 4d e0	 mov	 ecx, DWORD PTR _info$GSCopy$1$[ebp]
  0016f	8b 50 10	 mov	 edx, DWORD PTR [eax+16]
  00172	8b 30		 mov	 esi, DWORD PTR [eax]
  00174	8b 78 14	 mov	 edi, DWORD PTR [eax+20]
  00177	8b 58 18	 mov	 ebx, DWORD PTR [eax+24]
  0017a	ff d2		 call	 edx
  0017c	8b 4d e0	 mov	 ecx, DWORD PTR _info$GSCopy$1$[ebp]
  0017f	50		 push	 eax
  00180	ff d6		 call	 esi
  00182	8b 4d e0	 mov	 ecx, DWORD PTR _info$GSCopy$1$[ebp]
  00185	50		 push	 eax
  00186	ff 75 dc	 push	 DWORD PTR _nGlobal$1$[ebp]
  00189	ff d7		 call	 edi
  0018b	8b 4d e0	 mov	 ecx, DWORD PTR _info$GSCopy$1$[ebp]
  0018e	50		 push	 eax
  0018f	ff d3		 call	 ebx
  00191	50		 push	 eax
  00192	e8 00 00 00 00	 call	 ?__QuestEndComplete@@YAXHHAAHHH@Z ; __QuestEndComplete

; 89   : 		break;
; 90   : #endif // __IMPROVE_QUEST_INTERFACE
; 91   : 	default:
; 92   : 		return FALSE;
; 93   : 	};
; 94   : 
; 95   : 	return TRUE;

  00197	83 c4 14	 add	 esp, 20			; 00000014H
  0019a	b8 01 00 00 00	 mov	 eax, 1
  0019f	5f		 pop	 edi

; 96   : }

  001a0	5e		 pop	 esi
  001a1	5b		 pop	 ebx
  001a2	8b 4d fc	 mov	 ecx, DWORD PTR __$ArrayPad$[ebp]
  001a5	33 cd		 xor	 ecx, ebp
  001a7	e8 00 00 00 00	 call	 @__security_check_cookie@4
  001ac	8b e5		 mov	 esp, ebp
  001ae	5d		 pop	 ebp
  001af	c3		 ret	 0
$LN10@RunPredefi:

; 85   : 		break;
; 86   : #if __VER >= 15 // __IMPROVE_QUEST_INTERFACE
; 87   : 	case QE_QUEST_END_FAIL:
; 88   : 		__QuestEnd( info.GetPcId(), info.GetNpcId(), nGlobal, info.GetQuest(), TRUE );

  001b0	6a 01		 push	 1
$LN101@RunPredefi:

; 89   : 		break;
; 90   : #endif // __IMPROVE_QUEST_INTERFACE
; 91   : 	default:
; 92   : 		return FALSE;
; 93   : 	};
; 94   : 
; 95   : 	return TRUE;

  001b2	8b 03		 mov	 eax, DWORD PTR [ebx]
  001b4	8b cb		 mov	 ecx, ebx
  001b6	8b 50 10	 mov	 edx, DWORD PTR [eax+16]
  001b9	8b 70 14	 mov	 esi, DWORD PTR [eax+20]
  001bc	8b 78 18	 mov	 edi, DWORD PTR [eax+24]
  001bf	ff d2		 call	 edx
  001c1	50		 push	 eax
  001c2	ff 75 dc	 push	 DWORD PTR _nGlobal$1$[ebp]
  001c5	8b cb		 mov	 ecx, ebx
  001c7	ff d6		 call	 esi
  001c9	50		 push	 eax
  001ca	8b cb		 mov	 ecx, ebx
  001cc	ff d7		 call	 edi
  001ce	50		 push	 eax
  001cf	e8 00 00 00 00	 call	 ?__QuestEnd@@YAXHHAAHHH@Z ; __QuestEnd
  001d4	83 c4 14	 add	 esp, 20			; 00000014H
  001d7	b8 01 00 00 00	 mov	 eax, 1
  001dc	5f		 pop	 edi

; 96   : }

  001dd	5e		 pop	 esi
  001de	5b		 pop	 ebx
  001df	8b 4d fc	 mov	 ecx, DWORD PTR __$ArrayPad$[ebp]
  001e2	33 cd		 xor	 ecx, ebp
  001e4	e8 00 00 00 00	 call	 @__security_check_cookie@4
  001e9	8b e5		 mov	 esp, ebp
  001eb	5d		 pop	 ebp
  001ec	c3		 ret	 0
$LN11@RunPredefi:
  001ed	8b 4d fc	 mov	 ecx, DWORD PTR __$ArrayPad$[ebp]
  001f0	33 c0		 xor	 eax, eax
  001f2	5f		 pop	 edi
  001f3	5e		 pop	 esi
  001f4	33 cd		 xor	 ecx, ebp
  001f6	5b		 pop	 ebx
  001f7	e8 00 00 00 00	 call	 @__security_check_cookie@4
  001fc	8b e5		 mov	 esp, ebp
  001fe	5d		 pop	 ebp
  001ff	c3		 ret	 0
$LN104@RunPredefi:
; File C:\Program Files\Microsoft Visual Studio\2022\Professional\VC\Tools\MSVC\14.44.35207\include\xmemory

; 219  :     _STL_VERIFY(_Back_shift >= _Min_back_shift && _Back_shift <= _Non_user_size, "invalid argument");

  00200	6a 00		 push	 0
  00202	6a 00		 push	 0
  00204	6a 00		 push	 0
  00206	6a 00		 push	 0
  00208	6a 00		 push	 0
  0020a	e8 00 00 00 00	 call	 __invoke_watson
$LN100@RunPredefi:
  0020f	90		 npad	 1
$LN93@RunPredefi:
; File C:\IAGOS\server\v18\Source\Source\_Common\ScriptHelper.cpp

; 96   : }

  00210	00 00 00 00	 DD	 $LN5@RunPredefi
  00214	00 00 00 00	 DD	 $LN6@RunPredefi
  00218	00 00 00 00	 DD	 $LN7@RunPredefi
  0021c	00 00 00 00	 DD	 $LN8@RunPredefi
  00220	00 00 00 00	 DD	 $LN9@RunPredefi
  00224	00 00 00 00	 DD	 $LN11@RunPredefi
  00228	00 00 00 00	 DD	 $LN10@RunPredefi
?RunPredefineKey@@YAHPBDAAVCNpcDialogInfo@@@Z ENDP	; RunPredefineKey
_TEXT	ENDS
; Function compile flags: /Ogtp
; File C:\IAGOS\server\v18\Source\Source\_Common\ScriptHelper.cpp
; File C:\Program Files\Microsoft Visual Studio\2022\Professional\VC\Tools\MSVC\14.44.35207\include\xstring
; File C:\Program Files\Microsoft Visual Studio\2022\Professional\VC\Tools\MSVC\14.44.35207\include\xmemory
; File C:\Program Files\Microsoft Visual Studio\2022\Professional\VC\Tools\MSVC\14.44.35207\include\xstring
; File C:\Program Files\Microsoft Visual Studio\2022\Professional\VC\Tools\MSVC\14.44.35207\include\xmemory
; File C:\IAGOS\server\v18\Source\Source\_Common\ScriptHelper.cpp
; File C:\Program Files\Microsoft Visual Studio\2022\Professional\VC\Tools\MSVC\14.44.35207\include\xstring
; File C:\Program Files\Microsoft Visual Studio\2022\Professional\VC\Tools\MSVC\14.44.35207\include\xmemory
; File C:\Program Files\Microsoft Visual Studio\2022\Professional\VC\Tools\MSVC\14.44.35207\include\xstring
; File C:\Program Files\Microsoft Visual Studio\2022\Professional\VC\Tools\MSVC\14.44.35207\include\xmemory
; File C:\IAGOS\server\v18\Source\Source\_Common\ScriptHelper.cpp
; File C:\Program Files\Microsoft Visual Studio\2022\Professional\VC\Tools\MSVC\14.44.35207\include\xstring
; File C:\Program Files\Microsoft Visual Studio\2022\Professional\VC\Tools\MSVC\14.44.35207\include\xmemory
; File C:\Program Files\Microsoft Visual Studio\2022\Professional\VC\Tools\MSVC\14.44.35207\include\xstring
; File C:\Program Files\Microsoft Visual Studio\2022\Professional\VC\Tools\MSVC\14.44.35207\include\xmemory
; File C:\IAGOS\server\v18\Source\Source\_Common\ScriptHelper.cpp
; File C:\Program Files\Microsoft Visual Studio\2022\Professional\VC\Tools\MSVC\14.44.35207\include\xstring
; File C:\Program Files\Microsoft Visual Studio\2022\Professional\VC\Tools\MSVC\14.44.35207\include\xmemory
; File C:\Program Files\Microsoft Visual Studio\2022\Professional\VC\Tools\MSVC\14.44.35207\include\xstring
; File C:\Program Files\Microsoft Visual Studio\2022\Professional\VC\Tools\MSVC\14.44.35207\include\xmemory
; File C:\IAGOS\server\v18\Source\Source\_Common\ScriptHelper.cpp
; File C:\Program Files\Microsoft Visual Studio\2022\Professional\VC\Tools\MSVC\14.44.35207\include\xstring
; File C:\Program Files\Microsoft Visual Studio\2022\Professional\VC\Tools\MSVC\14.44.35207\include\xmemory
; File C:\Program Files\Microsoft Visual Studio\2022\Professional\VC\Tools\MSVC\14.44.35207\include\xstring
; File C:\Program Files\Microsoft Visual Studio\2022\Professional\VC\Tools\MSVC\14.44.35207\include\xmemory
; File C:\IAGOS\server\v18\Source\Source\_Common\ScriptHelper.cpp
; File C:\Program Files\Microsoft Visual Studio\2022\Professional\VC\Tools\MSVC\14.44.35207\include\xstring
; File C:\Program Files\Microsoft Visual Studio\2022\Professional\VC\Tools\MSVC\14.44.35207\include\xmemory
; File C:\Program Files\Microsoft Visual Studio\2022\Professional\VC\Tools\MSVC\14.44.35207\include\xstring
; File C:\Program Files\Microsoft Visual Studio\2022\Professional\VC\Tools\MSVC\14.44.35207\include\xmemory
; File C:\IAGOS\server\v18\Source\Source\_Common\ScriptHelper.cpp
; File C:\Program Files\Microsoft Visual Studio\2022\Professional\VC\Tools\MSVC\14.44.35207\include\xstring
; File C:\Program Files\Microsoft Visual Studio\2022\Professional\VC\Tools\MSVC\14.44.35207\include\xmemory
; File C:\Program Files\Microsoft Visual Studio\2022\Professional\VC\Tools\MSVC\14.44.35207\include\xstring
; File C:\Program Files\Microsoft Visual Studio\2022\Professional\VC\Tools\MSVC\14.44.35207\include\xmemory
; File C:\IAGOS\server\v18\Source\Source\_Common\ScriptHelper.cpp
; File C:\Program Files\Microsoft Visual Studio\2022\Professional\VC\Tools\MSVC\14.44.35207\include\xmemory
; File C:\IAGOS\server\v18\Source\Source\_Common\ScriptHelper.cpp
;	COMDAT ?InitPredefineKey@@YAXXZ
_TEXT	SEGMENT
$T2 = -64						; size = 24
$T3 = -40						; size = 24
$T4 = -40						; size = 24
$T5 = -40						; size = 24
$T6 = -40						; size = 24
$T7 = -40						; size = 24
$T8 = -40						; size = 24
__$ArrayPad$ = -16					; size = 4
__$EHRec$ = -12						; size = 12
?InitPredefineKey@@YAXXZ PROC				; InitPredefineKey, COMDAT

; 44   : {

  00000	55		 push	 ebp
  00001	8b ec		 mov	 ebp, esp
  00003	6a ff		 push	 -1
  00005	68 00 00 00 00	 push	 __ehhandler$?InitPredefineKey@@YAXXZ
  0000a	64 a1 00 00 00
	00		 mov	 eax, DWORD PTR fs:0
  00010	50		 push	 eax
  00011	83 ec 34	 sub	 esp, 52			; 00000034H
  00014	a1 00 00 00 00	 mov	 eax, DWORD PTR ___security_cookie
  00019	33 c5		 xor	 eax, ebp
  0001b	89 45 f0	 mov	 DWORD PTR __$ArrayPad$[ebp], eax
  0001e	50		 push	 eax
  0001f	8d 45 f4	 lea	 eax, DWORD PTR __$EHRec$[ebp]
  00022	64 a3 00 00 00
	00		 mov	 DWORD PTR fs:0, eax

; 45   : 	g_mapKey[ "QUEST_END" ]          = QE_QUEST_END;

  00028	68 00 00 00 00	 push	 OFFSET ??_C@_09GOKBNBFK@QUEST_END@
  0002d	8d 4d d8	 lea	 ecx, DWORD PTR $T3[ebp]
  00030	e8 00 00 00 00	 call	 ??0?$basic_string@DU?$char_traits@D@std@@V?$allocator@D@2@@std@@QAE@QBD@Z ; std::basic_string<char,std::char_traits<char>,std::allocator<char> >::basic_string<char,std::char_traits<char>,std::allocator<char> >
  00035	8d 45 d8	 lea	 eax, DWORD PTR $T3[ebp]
  00038	c7 45 fc 00 00
	00 00		 mov	 DWORD PTR __$EHRec$[ebp+8], 0
  0003f	50		 push	 eax
  00040	b9 00 00 00 00	 mov	 ecx, OFFSET ?g_mapKey@@3V?$map@V?$basic_string@DU?$char_traits@D@std@@V?$allocator@D@2@@std@@W4QUEST_ENUM@@U?$less@V?$basic_string@DU?$char_traits@D@std@@V?$allocator@D@2@@std@@@2@V?$allocator@U?$pair@$$CBV?$basic_string@DU?$char_traits@D@std@@V?$allocator@D@2@@std@@W4QUEST_ENUM@@@std@@@2@@std@@A
  00045	e8 00 00 00 00	 call	 ??A?$map@V?$basic_string@DU?$char_traits@D@std@@V?$allocator@D@2@@std@@W4QUEST_ENUM@@U?$less@V?$basic_string@DU?$char_traits@D@std@@V?$allocator@D@2@@std@@@2@V?$allocator@U?$pair@$$CBV?$basic_string@DU?$char_traits@D@std@@V?$allocator@D@2@@std@@W4QUEST_ENUM@@@std@@@2@@std@@QAEAAW4QUEST_ENUM@@$$QAV?$basic_string@DU?$char_traits@D@std@@V?$allocator@D@2@@1@@Z ; std::map<std::basic_string<char,std::char_traits<char>,std::allocator<char> >,enum QUEST_ENUM,std::less<std::basic_string<char,std::char_traits<char>,std::allocator<char> > >,std::allocator<std::pair<std::basic_string<char,std::char_traits<char>,std::allocator<char> > const ,enum QUEST_ENUM> > >::operator[]
  0004a	c7 45 fc ff ff
	ff ff		 mov	 DWORD PTR __$EHRec$[ebp+8], -1
  00051	c7 00 00 00 00
	00		 mov	 DWORD PTR [eax], 0
; File C:\Program Files\Microsoft Visual Studio\2022\Professional\VC\Tools\MSVC\14.44.35207\include\xstring

; 453  :         return _Myres > _Small_string_capacity;

  00057	8b 4d ec	 mov	 ecx, DWORD PTR $T3[ebp+20]
  0005a	83 f9 0f	 cmp	 ecx, 15			; 0000000fH

; 3083 :         if (_My_data._Large_mode_engaged()) {

  0005d	76 2c		 jbe	 SHORT $LN30@InitPredef
; File C:\Program Files\Microsoft Visual Studio\2022\Professional\VC\Tools\MSVC\14.44.35207\include\xmemory

; 985  :         _STD _Deallocate<_New_alignof<_Ty>>(_Ptr, sizeof(_Ty) * _Count);

  0005f	8b 55 d8	 mov	 edx, DWORD PTR $T3[ebp]
; File C:\Program Files\Microsoft Visual Studio\2022\Professional\VC\Tools\MSVC\14.44.35207\include\xstring

; 852  :         _Al.deallocate(_Old_ptr, _Capacity + 1); // +1 for null terminator

  00062	41		 inc	 ecx
; File C:\Program Files\Microsoft Visual Studio\2022\Professional\VC\Tools\MSVC\14.44.35207\include\xmemory

; 985  :         _STD _Deallocate<_New_alignof<_Ty>>(_Ptr, sizeof(_Ty) * _Count);

  00063	8b c2		 mov	 eax, edx

; 284  :         if (_Bytes >= _Big_allocation_threshold) {

  00065	81 f9 00 10 00
	00		 cmp	 ecx, 4096		; 00001000H
  0006b	72 14		 jb	 SHORT $LN35@InitPredef

; 205  :     const uintptr_t _Ptr_container   = _Ptr_user[-1];

  0006d	8b 50 fc	 mov	 edx, DWORD PTR [eax-4]
  00070	83 c1 23	 add	 ecx, 35			; 00000023H
  00073	2b c2		 sub	 eax, edx

; 219  :     _STL_VERIFY(_Back_shift >= _Min_back_shift && _Back_shift <= _Non_user_size, "invalid argument");

  00075	83 c0 fc	 add	 eax, -4			; fffffffcH
  00078	83 f8 1f	 cmp	 eax, 31			; 0000001fH
  0007b	0f 87 6a 02 00
	00		 ja	 $LN231@InitPredef
$LN35@InitPredef:

; 289  :         ::operator delete(_Ptr, _Bytes);

  00081	51		 push	 ecx
  00082	52		 push	 edx
  00083	e8 00 00 00 00	 call	 ??3@YAXPAXI@Z		; operator delete
  00088	83 c4 08	 add	 esp, 8
$LN30@InitPredef:
; File C:\IAGOS\server\v18\Source\Source\_Common\ScriptHelper.cpp

; 46   : 	g_mapKey[ "QUEST_BEGIN" ]        = QE_QUEST_BEGIN;

  0008b	68 00 00 00 00	 push	 OFFSET ??_C@_0M@NIFBEDLO@QUEST_BEGIN@
  00090	8d 4d d8	 lea	 ecx, DWORD PTR $T4[ebp]
  00093	e8 00 00 00 00	 call	 ??0?$basic_string@DU?$char_traits@D@std@@V?$allocator@D@2@@std@@QAE@QBD@Z ; std::basic_string<char,std::char_traits<char>,std::allocator<char> >::basic_string<char,std::char_traits<char>,std::allocator<char> >
  00098	8d 45 d8	 lea	 eax, DWORD PTR $T4[ebp]
  0009b	c7 45 fc 01 00
	00 00		 mov	 DWORD PTR __$EHRec$[ebp+8], 1
  000a2	50		 push	 eax
  000a3	b9 00 00 00 00	 mov	 ecx, OFFSET ?g_mapKey@@3V?$map@V?$basic_string@DU?$char_traits@D@std@@V?$allocator@D@2@@std@@W4QUEST_ENUM@@U?$less@V?$basic_string@DU?$char_traits@D@std@@V?$allocator@D@2@@std@@@2@V?$allocator@U?$pair@$$CBV?$basic_string@DU?$char_traits@D@std@@V?$allocator@D@2@@std@@W4QUEST_ENUM@@@std@@@2@@std@@A
  000a8	e8 00 00 00 00	 call	 ??A?$map@V?$basic_string@DU?$char_traits@D@std@@V?$allocator@D@2@@std@@W4QUEST_ENUM@@U?$less@V?$basic_string@DU?$char_traits@D@std@@V?$allocator@D@2@@std@@@2@V?$allocator@U?$pair@$$CBV?$basic_string@DU?$char_traits@D@std@@V?$allocator@D@2@@std@@W4QUEST_ENUM@@@std@@@2@@std@@QAEAAW4QUEST_ENUM@@$$QAV?$basic_string@DU?$char_traits@D@std@@V?$allocator@D@2@@1@@Z ; std::map<std::basic_string<char,std::char_traits<char>,std::allocator<char> >,enum QUEST_ENUM,std::less<std::basic_string<char,std::char_traits<char>,std::allocator<char> > >,std::allocator<std::pair<std::basic_string<char,std::char_traits<char>,std::allocator<char> > const ,enum QUEST_ENUM> > >::operator[]
  000ad	c7 45 fc ff ff
	ff ff		 mov	 DWORD PTR __$EHRec$[ebp+8], -1
  000b4	c7 00 01 00 00
	00		 mov	 DWORD PTR [eax], 1
; File C:\Program Files\Microsoft Visual Studio\2022\Professional\VC\Tools\MSVC\14.44.35207\include\xstring

; 453  :         return _Myres > _Small_string_capacity;

  000ba	8b 4d ec	 mov	 ecx, DWORD PTR $T4[ebp+20]
  000bd	83 f9 0f	 cmp	 ecx, 15			; 0000000fH

; 3083 :         if (_My_data._Large_mode_engaged()) {

  000c0	76 2c		 jbe	 SHORT $LN62@InitPredef
; File C:\Program Files\Microsoft Visual Studio\2022\Professional\VC\Tools\MSVC\14.44.35207\include\xmemory

; 985  :         _STD _Deallocate<_New_alignof<_Ty>>(_Ptr, sizeof(_Ty) * _Count);

  000c2	8b 55 d8	 mov	 edx, DWORD PTR $T4[ebp]
; File C:\Program Files\Microsoft Visual Studio\2022\Professional\VC\Tools\MSVC\14.44.35207\include\xstring

; 852  :         _Al.deallocate(_Old_ptr, _Capacity + 1); // +1 for null terminator

  000c5	41		 inc	 ecx
; File C:\Program Files\Microsoft Visual Studio\2022\Professional\VC\Tools\MSVC\14.44.35207\include\xmemory

; 985  :         _STD _Deallocate<_New_alignof<_Ty>>(_Ptr, sizeof(_Ty) * _Count);

  000c6	8b c2		 mov	 eax, edx

; 284  :         if (_Bytes >= _Big_allocation_threshold) {

  000c8	81 f9 00 10 00
	00		 cmp	 ecx, 4096		; 00001000H
  000ce	72 14		 jb	 SHORT $LN67@InitPredef

; 205  :     const uintptr_t _Ptr_container   = _Ptr_user[-1];

  000d0	8b 50 fc	 mov	 edx, DWORD PTR [eax-4]
  000d3	83 c1 23	 add	 ecx, 35			; 00000023H
  000d6	2b c2		 sub	 eax, edx

; 219  :     _STL_VERIFY(_Back_shift >= _Min_back_shift && _Back_shift <= _Non_user_size, "invalid argument");

  000d8	83 c0 fc	 add	 eax, -4			; fffffffcH
  000db	83 f8 1f	 cmp	 eax, 31			; 0000001fH
  000de	0f 87 16 02 00
	00		 ja	 $LN232@InitPredef
$LN67@InitPredef:

; 289  :         ::operator delete(_Ptr, _Bytes);

  000e4	51		 push	 ecx
  000e5	52		 push	 edx
  000e6	e8 00 00 00 00	 call	 ??3@YAXPAXI@Z		; operator delete
  000eb	83 c4 08	 add	 esp, 8
$LN62@InitPredef:
; File C:\IAGOS\server\v18\Source\Source\_Common\ScriptHelper.cpp

; 47   : 	g_mapKey[ "QUEST_BEGIN_YES" ]    = QE_QUEST_BEGIN_YES;

  000ee	68 00 00 00 00	 push	 OFFSET ??_C@_0BA@EPFIGFEN@QUEST_BEGIN_YES@
  000f3	8d 4d d8	 lea	 ecx, DWORD PTR $T5[ebp]
  000f6	e8 00 00 00 00	 call	 ??0?$basic_string@DU?$char_traits@D@std@@V?$allocator@D@2@@std@@QAE@QBD@Z ; std::basic_string<char,std::char_traits<char>,std::allocator<char> >::basic_string<char,std::char_traits<char>,std::allocator<char> >
  000fb	8d 45 d8	 lea	 eax, DWORD PTR $T5[ebp]
  000fe	c7 45 fc 02 00
	00 00		 mov	 DWORD PTR __$EHRec$[ebp+8], 2
  00105	50		 push	 eax
  00106	b9 00 00 00 00	 mov	 ecx, OFFSET ?g_mapKey@@3V?$map@V?$basic_string@DU?$char_traits@D@std@@V?$allocator@D@2@@std@@W4QUEST_ENUM@@U?$less@V?$basic_string@DU?$char_traits@D@std@@V?$allocator@D@2@@std@@@2@V?$allocator@U?$pair@$$CBV?$basic_string@DU?$char_traits@D@std@@V?$allocator@D@2@@std@@W4QUEST_ENUM@@@std@@@2@@std@@A
  0010b	e8 00 00 00 00	 call	 ??A?$map@V?$basic_string@DU?$char_traits@D@std@@V?$allocator@D@2@@std@@W4QUEST_ENUM@@U?$less@V?$basic_string@DU?$char_traits@D@std@@V?$allocator@D@2@@std@@@2@V?$allocator@U?$pair@$$CBV?$basic_string@DU?$char_traits@D@std@@V?$allocator@D@2@@std@@W4QUEST_ENUM@@@std@@@2@@std@@QAEAAW4QUEST_ENUM@@$$QAV?$basic_string@DU?$char_traits@D@std@@V?$allocator@D@2@@1@@Z ; std::map<std::basic_string<char,std::char_traits<char>,std::allocator<char> >,enum QUEST_ENUM,std::less<std::basic_string<char,std::char_traits<char>,std::allocator<char> > >,std::allocator<std::pair<std::basic_string<char,std::char_traits<char>,std::allocator<char> > const ,enum QUEST_ENUM> > >::operator[]
  00110	c7 45 fc ff ff
	ff ff		 mov	 DWORD PTR __$EHRec$[ebp+8], -1
  00117	c7 00 02 00 00
	00		 mov	 DWORD PTR [eax], 2
; File C:\Program Files\Microsoft Visual Studio\2022\Professional\VC\Tools\MSVC\14.44.35207\include\xstring

; 453  :         return _Myres > _Small_string_capacity;

  0011d	8b 4d ec	 mov	 ecx, DWORD PTR $T5[ebp+20]
  00120	83 f9 0f	 cmp	 ecx, 15			; 0000000fH

; 3083 :         if (_My_data._Large_mode_engaged()) {

  00123	76 2c		 jbe	 SHORT $LN93@InitPredef
; File C:\Program Files\Microsoft Visual Studio\2022\Professional\VC\Tools\MSVC\14.44.35207\include\xmemory

; 985  :         _STD _Deallocate<_New_alignof<_Ty>>(_Ptr, sizeof(_Ty) * _Count);

  00125	8b 55 d8	 mov	 edx, DWORD PTR $T5[ebp]
; File C:\Program Files\Microsoft Visual Studio\2022\Professional\VC\Tools\MSVC\14.44.35207\include\xstring

; 852  :         _Al.deallocate(_Old_ptr, _Capacity + 1); // +1 for null terminator

  00128	41		 inc	 ecx
; File C:\Program Files\Microsoft Visual Studio\2022\Professional\VC\Tools\MSVC\14.44.35207\include\xmemory

; 985  :         _STD _Deallocate<_New_alignof<_Ty>>(_Ptr, sizeof(_Ty) * _Count);

  00129	8b c2		 mov	 eax, edx

; 284  :         if (_Bytes >= _Big_allocation_threshold) {

  0012b	81 f9 00 10 00
	00		 cmp	 ecx, 4096		; 00001000H
  00131	72 14		 jb	 SHORT $LN98@InitPredef

; 205  :     const uintptr_t _Ptr_container   = _Ptr_user[-1];

  00133	8b 50 fc	 mov	 edx, DWORD PTR [eax-4]
  00136	83 c1 23	 add	 ecx, 35			; 00000023H
  00139	2b c2		 sub	 eax, edx

; 219  :     _STL_VERIFY(_Back_shift >= _Min_back_shift && _Back_shift <= _Non_user_size, "invalid argument");

  0013b	83 c0 fc	 add	 eax, -4			; fffffffcH
  0013e	83 f8 1f	 cmp	 eax, 31			; 0000001fH
  00141	0f 87 c2 01 00
	00		 ja	 $LN233@InitPredef
$LN98@InitPredef:

; 289  :         ::operator delete(_Ptr, _Bytes);

  00147	51		 push	 ecx
  00148	52		 push	 edx
  00149	e8 00 00 00 00	 call	 ??3@YAXPAXI@Z		; operator delete
  0014e	83 c4 08	 add	 esp, 8
$LN93@InitPredef:
; File C:\IAGOS\server\v18\Source\Source\_Common\ScriptHelper.cpp

; 48   : 	g_mapKey[ "QUEST_BEGIN_NO" ]     = QE_QUEST_BEGIN_NO;

  00151	68 00 00 00 00	 push	 OFFSET ??_C@_0P@JGHDECJC@QUEST_BEGIN_NO@
  00156	8d 4d d8	 lea	 ecx, DWORD PTR $T6[ebp]
  00159	e8 00 00 00 00	 call	 ??0?$basic_string@DU?$char_traits@D@std@@V?$allocator@D@2@@std@@QAE@QBD@Z ; std::basic_string<char,std::char_traits<char>,std::allocator<char> >::basic_string<char,std::char_traits<char>,std::allocator<char> >
  0015e	8d 45 d8	 lea	 eax, DWORD PTR $T6[ebp]
  00161	c7 45 fc 03 00
	00 00		 mov	 DWORD PTR __$EHRec$[ebp+8], 3
  00168	50		 push	 eax
  00169	b9 00 00 00 00	 mov	 ecx, OFFSET ?g_mapKey@@3V?$map@V?$basic_string@DU?$char_traits@D@std@@V?$allocator@D@2@@std@@W4QUEST_ENUM@@U?$less@V?$basic_string@DU?$char_traits@D@std@@V?$allocator@D@2@@std@@@2@V?$allocator@U?$pair@$$CBV?$basic_string@DU?$char_traits@D@std@@V?$allocator@D@2@@std@@W4QUEST_ENUM@@@std@@@2@@std@@A
  0016e	e8 00 00 00 00	 call	 ??A?$map@V?$basic_string@DU?$char_traits@D@std@@V?$allocator@D@2@@std@@W4QUEST_ENUM@@U?$less@V?$basic_string@DU?$char_traits@D@std@@V?$allocator@D@2@@std@@@2@V?$allocator@U?$pair@$$CBV?$basic_string@DU?$char_traits@D@std@@V?$allocator@D@2@@std@@W4QUEST_ENUM@@@std@@@2@@std@@QAEAAW4QUEST_ENUM@@$$QAV?$basic_string@DU?$char_traits@D@std@@V?$allocator@D@2@@1@@Z ; std::map<std::basic_string<char,std::char_traits<char>,std::allocator<char> >,enum QUEST_ENUM,std::less<std::basic_string<char,std::char_traits<char>,std::allocator<char> > >,std::allocator<std::pair<std::basic_string<char,std::char_traits<char>,std::allocator<char> > const ,enum QUEST_ENUM> > >::operator[]
  00173	c7 45 fc ff ff
	ff ff		 mov	 DWORD PTR __$EHRec$[ebp+8], -1
  0017a	c7 00 03 00 00
	00		 mov	 DWORD PTR [eax], 3
; File C:\Program Files\Microsoft Visual Studio\2022\Professional\VC\Tools\MSVC\14.44.35207\include\xstring

; 453  :         return _Myres > _Small_string_capacity;

  00180	8b 4d ec	 mov	 ecx, DWORD PTR $T6[ebp+20]
  00183	83 f9 0f	 cmp	 ecx, 15			; 0000000fH

; 3083 :         if (_My_data._Large_mode_engaged()) {

  00186	76 2c		 jbe	 SHORT $LN124@InitPredef
; File C:\Program Files\Microsoft Visual Studio\2022\Professional\VC\Tools\MSVC\14.44.35207\include\xmemory

; 985  :         _STD _Deallocate<_New_alignof<_Ty>>(_Ptr, sizeof(_Ty) * _Count);

  00188	8b 55 d8	 mov	 edx, DWORD PTR $T6[ebp]
; File C:\Program Files\Microsoft Visual Studio\2022\Professional\VC\Tools\MSVC\14.44.35207\include\xstring

; 852  :         _Al.deallocate(_Old_ptr, _Capacity + 1); // +1 for null terminator

  0018b	41		 inc	 ecx
; File C:\Program Files\Microsoft Visual Studio\2022\Professional\VC\Tools\MSVC\14.44.35207\include\xmemory

; 985  :         _STD _Deallocate<_New_alignof<_Ty>>(_Ptr, sizeof(_Ty) * _Count);

  0018c	8b c2		 mov	 eax, edx

; 284  :         if (_Bytes >= _Big_allocation_threshold) {

  0018e	81 f9 00 10 00
	00		 cmp	 ecx, 4096		; 00001000H
  00194	72 14		 jb	 SHORT $LN129@InitPredef

; 205  :     const uintptr_t _Ptr_container   = _Ptr_user[-1];

  00196	8b 50 fc	 mov	 edx, DWORD PTR [eax-4]
  00199	83 c1 23	 add	 ecx, 35			; 00000023H
  0019c	2b c2		 sub	 eax, edx

; 219  :     _STL_VERIFY(_Back_shift >= _Min_back_shift && _Back_shift <= _Non_user_size, "invalid argument");

  0019e	83 c0 fc	 add	 eax, -4			; fffffffcH
  001a1	83 f8 1f	 cmp	 eax, 31			; 0000001fH
  001a4	0f 87 6e 01 00
	00		 ja	 $LN234@InitPredef
$LN129@InitPredef:

; 289  :         ::operator delete(_Ptr, _Bytes);

  001aa	51		 push	 ecx
  001ab	52		 push	 edx
  001ac	e8 00 00 00 00	 call	 ??3@YAXPAXI@Z		; operator delete
  001b1	83 c4 08	 add	 esp, 8
$LN124@InitPredef:
; File C:\IAGOS\server\v18\Source\Source\_Common\ScriptHelper.cpp

; 49   : 	g_mapKey[ "QUEST_END_COMPLETE" ] = QE_QUEST_END_COMPLETE;

  001b4	68 00 00 00 00	 push	 OFFSET ??_C@_0BD@FPHEAFPJ@QUEST_END_COMPLETE@
  001b9	8d 4d d8	 lea	 ecx, DWORD PTR $T7[ebp]
  001bc	e8 00 00 00 00	 call	 ??0?$basic_string@DU?$char_traits@D@std@@V?$allocator@D@2@@std@@QAE@QBD@Z ; std::basic_string<char,std::char_traits<char>,std::allocator<char> >::basic_string<char,std::char_traits<char>,std::allocator<char> >
  001c1	8d 45 d8	 lea	 eax, DWORD PTR $T7[ebp]
  001c4	c7 45 fc 04 00
	00 00		 mov	 DWORD PTR __$EHRec$[ebp+8], 4
  001cb	50		 push	 eax
  001cc	b9 00 00 00 00	 mov	 ecx, OFFSET ?g_mapKey@@3V?$map@V?$basic_string@DU?$char_traits@D@std@@V?$allocator@D@2@@std@@W4QUEST_ENUM@@U?$less@V?$basic_string@DU?$char_traits@D@std@@V?$allocator@D@2@@std@@@2@V?$allocator@U?$pair@$$CBV?$basic_string@DU?$char_traits@D@std@@V?$allocator@D@2@@std@@W4QUEST_ENUM@@@std@@@2@@std@@A
  001d1	e8 00 00 00 00	 call	 ??A?$map@V?$basic_string@DU?$char_traits@D@std@@V?$allocator@D@2@@std@@W4QUEST_ENUM@@U?$less@V?$basic_string@DU?$char_traits@D@std@@V?$allocator@D@2@@std@@@2@V?$allocator@U?$pair@$$CBV?$basic_string@DU?$char_traits@D@std@@V?$allocator@D@2@@std@@W4QUEST_ENUM@@@std@@@2@@std@@QAEAAW4QUEST_ENUM@@$$QAV?$basic_string@DU?$char_traits@D@std@@V?$allocator@D@2@@1@@Z ; std::map<std::basic_string<char,std::char_traits<char>,std::allocator<char> >,enum QUEST_ENUM,std::less<std::basic_string<char,std::char_traits<char>,std::allocator<char> > >,std::allocator<std::pair<std::basic_string<char,std::char_traits<char>,std::allocator<char> > const ,enum QUEST_ENUM> > >::operator[]
  001d6	c7 45 fc ff ff
	ff ff		 mov	 DWORD PTR __$EHRec$[ebp+8], -1
  001dd	c7 00 04 00 00
	00		 mov	 DWORD PTR [eax], 4
; File C:\Program Files\Microsoft Visual Studio\2022\Professional\VC\Tools\MSVC\14.44.35207\include\xstring

; 453  :         return _Myres > _Small_string_capacity;

  001e3	8b 4d ec	 mov	 ecx, DWORD PTR $T7[ebp+20]
  001e6	83 f9 0f	 cmp	 ecx, 15			; 0000000fH

; 3083 :         if (_My_data._Large_mode_engaged()) {

  001e9	76 2c		 jbe	 SHORT $LN155@InitPredef
; File C:\Program Files\Microsoft Visual Studio\2022\Professional\VC\Tools\MSVC\14.44.35207\include\xmemory

; 985  :         _STD _Deallocate<_New_alignof<_Ty>>(_Ptr, sizeof(_Ty) * _Count);

  001eb	8b 55 d8	 mov	 edx, DWORD PTR $T7[ebp]
; File C:\Program Files\Microsoft Visual Studio\2022\Professional\VC\Tools\MSVC\14.44.35207\include\xstring

; 852  :         _Al.deallocate(_Old_ptr, _Capacity + 1); // +1 for null terminator

  001ee	41		 inc	 ecx
; File C:\Program Files\Microsoft Visual Studio\2022\Professional\VC\Tools\MSVC\14.44.35207\include\xmemory

; 985  :         _STD _Deallocate<_New_alignof<_Ty>>(_Ptr, sizeof(_Ty) * _Count);

  001ef	8b c2		 mov	 eax, edx

; 284  :         if (_Bytes >= _Big_allocation_threshold) {

  001f1	81 f9 00 10 00
	00		 cmp	 ecx, 4096		; 00001000H
  001f7	72 14		 jb	 SHORT $LN160@InitPredef

; 205  :     const uintptr_t _Ptr_container   = _Ptr_user[-1];

  001f9	8b 50 fc	 mov	 edx, DWORD PTR [eax-4]
  001fc	83 c1 23	 add	 ecx, 35			; 00000023H
  001ff	2b c2		 sub	 eax, edx

; 219  :     _STL_VERIFY(_Back_shift >= _Min_back_shift && _Back_shift <= _Non_user_size, "invalid argument");

  00201	83 c0 fc	 add	 eax, -4			; fffffffcH
  00204	83 f8 1f	 cmp	 eax, 31			; 0000001fH
  00207	0f 87 1a 01 00
	00		 ja	 $LN235@InitPredef
$LN160@InitPredef:

; 289  :         ::operator delete(_Ptr, _Bytes);

  0020d	51		 push	 ecx
  0020e	52		 push	 edx
  0020f	e8 00 00 00 00	 call	 ??3@YAXPAXI@Z		; operator delete
  00214	83 c4 08	 add	 esp, 8
$LN155@InitPredef:
; File C:\IAGOS\server\v18\Source\Source\_Common\ScriptHelper.cpp

; 51   : 	g_mapKey[ "QUEST_NEXT_LEVEL" ]   = QE_QUEST_NEXT_LEVEL;

  00217	68 00 00 00 00	 push	 OFFSET ??_C@_0BB@HBMPOEKD@QUEST_NEXT_LEVEL@
  0021c	8d 4d d8	 lea	 ecx, DWORD PTR $T8[ebp]
  0021f	e8 00 00 00 00	 call	 ??0?$basic_string@DU?$char_traits@D@std@@V?$allocator@D@2@@std@@QAE@QBD@Z ; std::basic_string<char,std::char_traits<char>,std::allocator<char> >::basic_string<char,std::char_traits<char>,std::allocator<char> >
  00224	8d 45 d8	 lea	 eax, DWORD PTR $T8[ebp]
  00227	c7 45 fc 05 00
	00 00		 mov	 DWORD PTR __$EHRec$[ebp+8], 5
  0022e	50		 push	 eax
  0022f	b9 00 00 00 00	 mov	 ecx, OFFSET ?g_mapKey@@3V?$map@V?$basic_string@DU?$char_traits@D@std@@V?$allocator@D@2@@std@@W4QUEST_ENUM@@U?$less@V?$basic_string@DU?$char_traits@D@std@@V?$allocator@D@2@@std@@@2@V?$allocator@U?$pair@$$CBV?$basic_string@DU?$char_traits@D@std@@V?$allocator@D@2@@std@@W4QUEST_ENUM@@@std@@@2@@std@@A
  00234	e8 00 00 00 00	 call	 ??A?$map@V?$basic_string@DU?$char_traits@D@std@@V?$allocator@D@2@@std@@W4QUEST_ENUM@@U?$less@V?$basic_string@DU?$char_traits@D@std@@V?$allocator@D@2@@std@@@2@V?$allocator@U?$pair@$$CBV?$basic_string@DU?$char_traits@D@std@@V?$allocator@D@2@@std@@W4QUEST_ENUM@@@std@@@2@@std@@QAEAAW4QUEST_ENUM@@$$QAV?$basic_string@DU?$char_traits@D@std@@V?$allocator@D@2@@1@@Z ; std::map<std::basic_string<char,std::char_traits<char>,std::allocator<char> >,enum QUEST_ENUM,std::less<std::basic_string<char,std::char_traits<char>,std::allocator<char> > >,std::allocator<std::pair<std::basic_string<char,std::char_traits<char>,std::allocator<char> > const ,enum QUEST_ENUM> > >::operator[]
  00239	c7 45 fc ff ff
	ff ff		 mov	 DWORD PTR __$EHRec$[ebp+8], -1
  00240	c7 00 05 00 00
	00		 mov	 DWORD PTR [eax], 5
; File C:\Program Files\Microsoft Visual Studio\2022\Professional\VC\Tools\MSVC\14.44.35207\include\xstring

; 453  :         return _Myres > _Small_string_capacity;

  00246	8b 4d ec	 mov	 ecx, DWORD PTR $T8[ebp+20]
  00249	83 f9 0f	 cmp	 ecx, 15			; 0000000fH

; 3083 :         if (_My_data._Large_mode_engaged()) {

  0024c	76 2c		 jbe	 SHORT $LN186@InitPredef
; File C:\Program Files\Microsoft Visual Studio\2022\Professional\VC\Tools\MSVC\14.44.35207\include\xmemory

; 985  :         _STD _Deallocate<_New_alignof<_Ty>>(_Ptr, sizeof(_Ty) * _Count);

  0024e	8b 55 d8	 mov	 edx, DWORD PTR $T8[ebp]
; File C:\Program Files\Microsoft Visual Studio\2022\Professional\VC\Tools\MSVC\14.44.35207\include\xstring

; 852  :         _Al.deallocate(_Old_ptr, _Capacity + 1); // +1 for null terminator

  00251	41		 inc	 ecx
; File C:\Program Files\Microsoft Visual Studio\2022\Professional\VC\Tools\MSVC\14.44.35207\include\xmemory

; 985  :         _STD _Deallocate<_New_alignof<_Ty>>(_Ptr, sizeof(_Ty) * _Count);

  00252	8b c2		 mov	 eax, edx

; 284  :         if (_Bytes >= _Big_allocation_threshold) {

  00254	81 f9 00 10 00
	00		 cmp	 ecx, 4096		; 00001000H
  0025a	72 14		 jb	 SHORT $LN191@InitPredef

; 205  :     const uintptr_t _Ptr_container   = _Ptr_user[-1];

  0025c	8b 50 fc	 mov	 edx, DWORD PTR [eax-4]
  0025f	83 c1 23	 add	 ecx, 35			; 00000023H
  00262	2b c2		 sub	 eax, edx

; 219  :     _STL_VERIFY(_Back_shift >= _Min_back_shift && _Back_shift <= _Non_user_size, "invalid argument");

  00264	83 c0 fc	 add	 eax, -4			; fffffffcH
  00267	83 f8 1f	 cmp	 eax, 31			; 0000001fH
  0026a	0f 87 c6 00 00
	00		 ja	 $LN236@InitPredef
$LN191@InitPredef:

; 289  :         ::operator delete(_Ptr, _Bytes);

  00270	51		 push	 ecx
  00271	52		 push	 edx
  00272	e8 00 00 00 00	 call	 ??3@YAXPAXI@Z		; operator delete
  00277	83 c4 08	 add	 esp, 8
$LN186@InitPredef:
; File C:\IAGOS\server\v18\Source\Source\_Common\ScriptHelper.cpp

; 52   : 	g_mapKey[ "QUEST_END_FAIL" ]     = QE_QUEST_END_FAIL;

  0027a	68 00 00 00 00	 push	 OFFSET ??_C@_0P@OFMLOGDN@QUEST_END_FAIL@
  0027f	8d 4d c0	 lea	 ecx, DWORD PTR $T2[ebp]
  00282	e8 00 00 00 00	 call	 ??0?$basic_string@DU?$char_traits@D@std@@V?$allocator@D@2@@std@@QAE@QBD@Z ; std::basic_string<char,std::char_traits<char>,std::allocator<char> >::basic_string<char,std::char_traits<char>,std::allocator<char> >
  00287	8d 45 c0	 lea	 eax, DWORD PTR $T2[ebp]
  0028a	c7 45 fc 06 00
	00 00		 mov	 DWORD PTR __$EHRec$[ebp+8], 6
  00291	50		 push	 eax
  00292	b9 00 00 00 00	 mov	 ecx, OFFSET ?g_mapKey@@3V?$map@V?$basic_string@DU?$char_traits@D@std@@V?$allocator@D@2@@std@@W4QUEST_ENUM@@U?$less@V?$basic_string@DU?$char_traits@D@std@@V?$allocator@D@2@@std@@@2@V?$allocator@U?$pair@$$CBV?$basic_string@DU?$char_traits@D@std@@V?$allocator@D@2@@std@@W4QUEST_ENUM@@@std@@@2@@std@@A
  00297	e8 00 00 00 00	 call	 ??A?$map@V?$basic_string@DU?$char_traits@D@std@@V?$allocator@D@2@@std@@W4QUEST_ENUM@@U?$less@V?$basic_string@DU?$char_traits@D@std@@V?$allocator@D@2@@std@@@2@V?$allocator@U?$pair@$$CBV?$basic_string@DU?$char_traits@D@std@@V?$allocator@D@2@@std@@W4QUEST_ENUM@@@std@@@2@@std@@QAEAAW4QUEST_ENUM@@$$QAV?$basic_string@DU?$char_traits@D@std@@V?$allocator@D@2@@1@@Z ; std::map<std::basic_string<char,std::char_traits<char>,std::allocator<char> >,enum QUEST_ENUM,std::less<std::basic_string<char,std::char_traits<char>,std::allocator<char> > >,std::allocator<std::pair<std::basic_string<char,std::char_traits<char>,std::allocator<char> > const ,enum QUEST_ENUM> > >::operator[]
  0029c	c7 00 06 00 00
	00		 mov	 DWORD PTR [eax], 6
; File C:\Program Files\Microsoft Visual Studio\2022\Professional\VC\Tools\MSVC\14.44.35207\include\xstring

; 453  :         return _Myres > _Small_string_capacity;

  002a2	8b 4d d4	 mov	 ecx, DWORD PTR $T2[ebp+20]
  002a5	83 f9 0f	 cmp	 ecx, 15			; 0000000fH

; 3083 :         if (_My_data._Large_mode_engaged()) {

  002a8	76 28		 jbe	 SHORT $LN217@InitPredef
; File C:\Program Files\Microsoft Visual Studio\2022\Professional\VC\Tools\MSVC\14.44.35207\include\xmemory

; 985  :         _STD _Deallocate<_New_alignof<_Ty>>(_Ptr, sizeof(_Ty) * _Count);

  002aa	8b 55 c0	 mov	 edx, DWORD PTR $T2[ebp]
; File C:\Program Files\Microsoft Visual Studio\2022\Professional\VC\Tools\MSVC\14.44.35207\include\xstring

; 852  :         _Al.deallocate(_Old_ptr, _Capacity + 1); // +1 for null terminator

  002ad	41		 inc	 ecx
; File C:\Program Files\Microsoft Visual Studio\2022\Professional\VC\Tools\MSVC\14.44.35207\include\xmemory

; 985  :         _STD _Deallocate<_New_alignof<_Ty>>(_Ptr, sizeof(_Ty) * _Count);

  002ae	8b c2		 mov	 eax, edx

; 284  :         if (_Bytes >= _Big_allocation_threshold) {

  002b0	81 f9 00 10 00
	00		 cmp	 ecx, 4096		; 00001000H
  002b6	72 10		 jb	 SHORT $LN222@InitPredef

; 205  :     const uintptr_t _Ptr_container   = _Ptr_user[-1];

  002b8	8b 50 fc	 mov	 edx, DWORD PTR [eax-4]
  002bb	83 c1 23	 add	 ecx, 35			; 00000023H
  002be	2b c2		 sub	 eax, edx

; 219  :     _STL_VERIFY(_Back_shift >= _Min_back_shift && _Back_shift <= _Non_user_size, "invalid argument");

  002c0	83 c0 fc	 add	 eax, -4			; fffffffcH
  002c3	83 f8 1f	 cmp	 eax, 31			; 0000001fH
  002c6	77 7d		 ja	 SHORT $LN237@InitPredef
$LN222@InitPredef:

; 289  :         ::operator delete(_Ptr, _Bytes);

  002c8	51		 push	 ecx
  002c9	52		 push	 edx
  002ca	e8 00 00 00 00	 call	 ??3@YAXPAXI@Z		; operator delete
  002cf	83 c4 08	 add	 esp, 8
$LN217@InitPredef:
; File C:\IAGOS\server\v18\Source\Source\_Common\ScriptHelper.cpp

; 54   : }

  002d2	8b 4d f4	 mov	 ecx, DWORD PTR __$EHRec$[ebp]
  002d5	64 89 0d 00 00
	00 00		 mov	 DWORD PTR fs:0, ecx
  002dc	59		 pop	 ecx
  002dd	8b 4d f0	 mov	 ecx, DWORD PTR __$ArrayPad$[ebp]
  002e0	33 cd		 xor	 ecx, ebp
  002e2	e8 00 00 00 00	 call	 @__security_check_cookie@4
  002e7	8b e5		 mov	 esp, ebp
  002e9	5d		 pop	 ebp
  002ea	c3		 ret	 0
$LN231@InitPredef:
; File C:\Program Files\Microsoft Visual Studio\2022\Professional\VC\Tools\MSVC\14.44.35207\include\xmemory

; 219  :     _STL_VERIFY(_Back_shift >= _Min_back_shift && _Back_shift <= _Non_user_size, "invalid argument");

  002eb	6a 00		 push	 0
  002ed	6a 00		 push	 0
  002ef	6a 00		 push	 0
  002f1	6a 00		 push	 0
  002f3	6a 00		 push	 0
  002f5	e8 00 00 00 00	 call	 __invoke_watson
$LN232@InitPredef:
  002fa	6a 00		 push	 0
  002fc	6a 00		 push	 0
  002fe	6a 00		 push	 0
  00300	6a 00		 push	 0
  00302	6a 00		 push	 0
  00304	e8 00 00 00 00	 call	 __invoke_watson
$LN233@InitPredef:
  00309	6a 00		 push	 0
  0030b	6a 00		 push	 0
  0030d	6a 00		 push	 0
  0030f	6a 00		 push	 0
  00311	6a 00		 push	 0
  00313	e8 00 00 00 00	 call	 __invoke_watson
$LN234@InitPredef:
  00318	6a 00		 push	 0
  0031a	6a 00		 push	 0
  0031c	6a 00		 push	 0
  0031e	6a 00		 push	 0
  00320	6a 00		 push	 0
  00322	e8 00 00 00 00	 call	 __invoke_watson
$LN235@InitPredef:
  00327	6a 00		 push	 0
  00329	6a 00		 push	 0
  0032b	6a 00		 push	 0
  0032d	6a 00		 push	 0
  0032f	6a 00		 push	 0
  00331	e8 00 00 00 00	 call	 __invoke_watson
$LN236@InitPredef:
  00336	6a 00		 push	 0
  00338	6a 00		 push	 0
  0033a	6a 00		 push	 0
  0033c	6a 00		 push	 0
  0033e	6a 00		 push	 0
  00340	e8 00 00 00 00	 call	 __invoke_watson
$LN237@InitPredef:
  00345	6a 00		 push	 0
  00347	6a 00		 push	 0
  00349	6a 00		 push	 0
  0034b	6a 00		 push	 0
  0034d	6a 00		 push	 0
  0034f	e8 00 00 00 00	 call	 __invoke_watson
$LN229@InitPredef:
  00354	cc		 int	 3
_TEXT	ENDS
;	COMDAT text$x
text$x	SEGMENT
__unwindfunclet$?InitPredefineKey@@YAXXZ$0:
  00000	8d 4d d8	 lea	 ecx, DWORD PTR $T3[ebp]
  00003	e9 00 00 00 00	 jmp	 ??1?$basic_string@DU?$char_traits@D@std@@V?$allocator@D@2@@std@@QAE@XZ ; std::basic_string<char,std::char_traits<char>,std::allocator<char> >::~basic_string<char,std::char_traits<char>,std::allocator<char> >
__unwindfunclet$?InitPredefineKey@@YAXXZ$1:
  00008	8d 4d d8	 lea	 ecx, DWORD PTR $T4[ebp]
  0000b	e9 00 00 00 00	 jmp	 ??1?$basic_string@DU?$char_traits@D@std@@V?$allocator@D@2@@std@@QAE@XZ ; std::basic_string<char,std::char_traits<char>,std::allocator<char> >::~basic_string<char,std::char_traits<char>,std::allocator<char> >
__unwindfunclet$?InitPredefineKey@@YAXXZ$2:
  00010	8d 4d d8	 lea	 ecx, DWORD PTR $T5[ebp]
  00013	e9 00 00 00 00	 jmp	 ??1?$basic_string@DU?$char_traits@D@std@@V?$allocator@D@2@@std@@QAE@XZ ; std::basic_string<char,std::char_traits<char>,std::allocator<char> >::~basic_string<char,std::char_traits<char>,std::allocator<char> >
__unwindfunclet$?InitPredefineKey@@YAXXZ$3:
  00018	8d 4d d8	 lea	 ecx, DWORD PTR $T6[ebp]
  0001b	e9 00 00 00 00	 jmp	 ??1?$basic_string@DU?$char_traits@D@std@@V?$allocator@D@2@@std@@QAE@XZ ; std::basic_string<char,std::char_traits<char>,std::allocator<char> >::~basic_string<char,std::char_traits<char>,std::allocator<char> >
__unwindfunclet$?InitPredefineKey@@YAXXZ$4:
  00020	8d 4d d8	 lea	 ecx, DWORD PTR $T7[ebp]
  00023	e9 00 00 00 00	 jmp	 ??1?$basic_string@DU?$char_traits@D@std@@V?$allocator@D@2@@std@@QAE@XZ ; std::basic_string<char,std::char_traits<char>,std::allocator<char> >::~basic_string<char,std::char_traits<char>,std::allocator<char> >
__unwindfunclet$?InitPredefineKey@@YAXXZ$5:
  00028	8d 4d d8	 lea	 ecx, DWORD PTR $T8[ebp]
  0002b	e9 00 00 00 00	 jmp	 ??1?$basic_string@DU?$char_traits@D@std@@V?$allocator@D@2@@std@@QAE@XZ ; std::basic_string<char,std::char_traits<char>,std::allocator<char> >::~basic_string<char,std::char_traits<char>,std::allocator<char> >
__unwindfunclet$?InitPredefineKey@@YAXXZ$6:
  00030	8d 4d c0	 lea	 ecx, DWORD PTR $T2[ebp]
  00033	e9 00 00 00 00	 jmp	 ??1?$basic_string@DU?$char_traits@D@std@@V?$allocator@D@2@@std@@QAE@XZ ; std::basic_string<char,std::char_traits<char>,std::allocator<char> >::~basic_string<char,std::char_traits<char>,std::allocator<char> >
  00038	cc		 int	 3
  00039	cc		 int	 3
  0003a	cc		 int	 3
  0003b	cc		 int	 3
  0003c	cc		 int	 3
__ehhandler$?InitPredefineKey@@YAXXZ:
  0003d	90		 npad	 1
  0003e	90		 npad	 1
  0003f	8b 54 24 08	 mov	 edx, DWORD PTR [esp+8]
  00043	8d 42 0c	 lea	 eax, DWORD PTR [edx+12]
  00046	8b 4a c8	 mov	 ecx, DWORD PTR [edx-56]
  00049	33 c8		 xor	 ecx, eax
  0004b	e8 00 00 00 00	 call	 @__security_check_cookie@4
  00050	8b 4a fc	 mov	 ecx, DWORD PTR [edx-4]
  00053	33 c8		 xor	 ecx, eax
  00055	e8 00 00 00 00	 call	 @__security_check_cookie@4
  0005a	b8 00 00 00 00	 mov	 eax, OFFSET __ehfuncinfo$?InitPredefineKey@@YAXXZ
  0005f	e9 00 00 00 00	 jmp	 ___CxxFrameHandler3
text$x	ENDS
?InitPredefineKey@@YAXXZ ENDP				; InitPredefineKey
; Function compile flags: /Ogtp
; File C:\Program Files\Microsoft Visual Studio\2022\Professional\VC\Tools\MSVC\14.44.35207\include\xmemory
;	COMDAT ??$_Allocate_manually_vector_aligned@U_Default_allocate_traits@std@@@std@@YAPAXI@Z
_TEXT	SEGMENT
__Bytes$ = 8						; size = 4
??$_Allocate_manually_vector_aligned@U_Default_allocate_traits@std@@@std@@YAPAXI@Z PROC ; std::_Allocate_manually_vector_aligned<std::_Default_allocate_traits>, COMDAT

; 182  : __declspec(allocator) void* _Allocate_manually_vector_aligned(const size_t _Bytes) {

  00000	55		 push	 ebp
  00001	8b ec		 mov	 ebp, esp

; 183  :     // allocate _Bytes manually aligned to at least _Big_allocation_alignment
; 184  :     const size_t _Block_size = _Non_user_size + _Bytes;

  00003	8b 45 08	 mov	 eax, DWORD PTR __Bytes$[ebp]
  00006	8d 48 23	 lea	 ecx, DWORD PTR [eax+35]

; 185  :     if (_Block_size <= _Bytes) {

  00009	3b c8		 cmp	 ecx, eax
  0000b	0f 86 00 00 00
	00		 jbe	 ?_Throw_bad_array_new_length@std@@YAXXZ ; std::_Throw_bad_array_new_length

; 136  :         return ::operator new(_Bytes);

  00011	51		 push	 ecx
  00012	e8 00 00 00 00	 call	 ??2@YAPAXI@Z		; operator new

; 186  :         _Throw_bad_array_new_length(); // add overflow
; 187  :     }
; 188  : 
; 189  :     const uintptr_t _Ptr_container = reinterpret_cast<uintptr_t>(_Traits::_Allocate(_Block_size));

  00017	8b c8		 mov	 ecx, eax

; 136  :         return ::operator new(_Bytes);

  00019	83 c4 04	 add	 esp, 4

; 190  :     _STL_VERIFY(_Ptr_container != 0, "invalid argument"); // validate even in release since we're doing p[-1]

  0001c	85 c9		 test	 ecx, ecx
  0001e	74 0b		 je	 SHORT $LN9@Allocate_m

; 191  :     void* const _Ptr = reinterpret_cast<void*>((_Ptr_container + _Non_user_size) & ~(_Big_allocation_alignment - 1));

  00020	8d 41 23	 lea	 eax, DWORD PTR [ecx+35]
  00023	83 e0 e0	 and	 eax, -32		; ffffffe0H

; 192  :     static_cast<uintptr_t*>(_Ptr)[-1] = _Ptr_container;

  00026	89 48 fc	 mov	 DWORD PTR [eax-4], ecx

; 193  : 
; 194  : #ifdef _DEBUG
; 195  :     static_cast<uintptr_t*>(_Ptr)[-2] = _Big_allocation_sentinel;
; 196  : #endif // defined(_DEBUG)
; 197  :     return _Ptr;
; 198  : }

  00029	5d		 pop	 ebp
  0002a	c3		 ret	 0
$LN9@Allocate_m:

; 190  :     _STL_VERIFY(_Ptr_container != 0, "invalid argument"); // validate even in release since we're doing p[-1]

  0002b	6a 00		 push	 0
  0002d	6a 00		 push	 0
  0002f	6a 00		 push	 0
  00031	6a 00		 push	 0
  00033	6a 00		 push	 0
  00035	e8 00 00 00 00	 call	 __invoke_watson
$LN7@Allocate_m:
  0003a	cc		 int	 3
??$_Allocate_manually_vector_aligned@U_Default_allocate_traits@std@@@std@@YAPAXI@Z ENDP ; std::_Allocate_manually_vector_aligned<std::_Default_allocate_traits>
_TEXT	ENDS
; Function compile flags: /Ogtp
; File C:\Program Files\Microsoft Visual Studio\2022\Professional\VC\Tools\MSVC\14.44.35207\include\xstring
; File C:\Program Files\Microsoft Visual Studio\2022\Professional\VC\Tools\MSVC\14.44.35207\include\__msvc_string_view.hpp
; File C:\Program Files\Microsoft Visual Studio\2022\Professional\VC\Tools\MSVC\14.44.35207\include\xstring
; File C:\Program Files\Microsoft Visual Studio\2022\Professional\VC\Tools\MSVC\14.44.35207\include\__msvc_string_view.hpp
; File C:\Program Files\Microsoft Visual Studio\2022\Professional\VC\Tools\MSVC\14.44.35207\include\xstring
; File C:\Program Files\Microsoft Visual Studio\2022\Professional\VC\Tools\MSVC\14.44.35207\include\__msvc_string_view.hpp
; File C:\Program Files\Microsoft Visual Studio\2022\Professional\VC\Tools\MSVC\14.44.35207\include\xstring
;	COMDAT ??$?MDU?$char_traits@D@std@@V?$allocator@D@1@@std@@YA_NABV?$basic_string@DU?$char_traits@D@std@@V?$allocator@D@2@@0@0@Z
_TEXT	SEGMENT
__Left$ = 8						; size = 4
__Right$ = 12						; size = 4
??$?MDU?$char_traits@D@std@@V?$allocator@D@1@@std@@YA_NABV?$basic_string@DU?$char_traits@D@std@@V?$allocator@D@2@@0@0@Z PROC ; std::operator<<char,std::char_traits<char>,std::allocator<char> >, COMDAT

; 3307 :     const basic_string<_Elem, _Traits, _Alloc>& _Left, const basic_string<_Elem, _Traits, _Alloc>& _Right) noexcept {

  00000	55		 push	 ebp
  00001	8b ec		 mov	 ebp, esp

; 444  :         const value_type* _Result = _Bx._Buf;

  00003	8b 45 0c	 mov	 eax, DWORD PTR __Right$[ebp]
  00006	8b c8		 mov	 ecx, eax

; 453  :         return _Myres > _Small_string_capacity;

  00008	83 78 14 0f	 cmp	 DWORD PTR [eax+20], 15	; 0000000fH

; 445  :         if (_Large_mode_engaged()) {

  0000c	76 02		 jbe	 SHORT $LN8@operator

; 446  :             _Result = _Unfancy(_Bx._Ptr);

  0000e	8b 08		 mov	 ecx, DWORD PTR [eax]
$LN8@operator:
  00010	53		 push	 ebx
  00011	56		 push	 esi

; 444  :         const value_type* _Result = _Bx._Buf;

  00012	8b 75 08	 mov	 esi, DWORD PTR __Left$[ebp]
  00015	8b d6		 mov	 edx, esi
  00017	57		 push	 edi

; 453  :         return _Myres > _Small_string_capacity;

  00018	83 7e 14 0f	 cmp	 DWORD PTR [esi+20], 15	; 0000000fH

; 445  :         if (_Large_mode_engaged()) {

  0001c	76 02		 jbe	 SHORT $LN15@operator

; 446  :             _Result = _Unfancy(_Bx._Ptr);

  0001e	8b 16		 mov	 edx, DWORD PTR [esi]
$LN15@operator:

; 2890 :         return _Traits_compare<_Traits>(_Mypair._Myval2._Myptr(), _Mypair._Myval2._Mysize,

  00020	8b 5e 10	 mov	 ebx, DWORD PTR [esi+16]
  00023	8b f3		 mov	 esi, ebx
  00025	8b 78 10	 mov	 edi, DWORD PTR [eax+16]
  00028	3b fb		 cmp	 edi, ebx
  0002a	0f 42 f7	 cmovb	 esi, edi
; File C:\Program Files\Microsoft Visual Studio\2022\Professional\VC\Tools\MSVC\14.44.35207\include\__msvc_string_view.hpp

; 439  :         return _CSTD memcmp(_First1, _First2, _Count);

  0002d	83 ee 04	 sub	 esi, 4
  00030	72 11		 jb	 SHORT $LN35@operator
$LL36@operator:
  00032	8b 02		 mov	 eax, DWORD PTR [edx]
  00034	3b 01		 cmp	 eax, DWORD PTR [ecx]
  00036	75 10		 jne	 SHORT $LN34@operator
  00038	83 c2 04	 add	 edx, 4
  0003b	83 c1 04	 add	 ecx, 4
  0003e	83 ee 04	 sub	 esi, 4
  00041	73 ef		 jae	 SHORT $LL36@operator
$LN35@operator:
  00043	83 fe fc	 cmp	 esi, -4			; fffffffcH
  00046	74 34		 je	 SHORT $LN33@operator
$LN34@operator:
  00048	8a 02		 mov	 al, BYTE PTR [edx]
  0004a	3a 01		 cmp	 al, BYTE PTR [ecx]
  0004c	75 27		 jne	 SHORT $LN37@operator
  0004e	83 fe fd	 cmp	 esi, -3			; fffffffdH
  00051	74 29		 je	 SHORT $LN33@operator
  00053	8a 42 01	 mov	 al, BYTE PTR [edx+1]
  00056	3a 41 01	 cmp	 al, BYTE PTR [ecx+1]
  00059	75 1a		 jne	 SHORT $LN37@operator
  0005b	83 fe fe	 cmp	 esi, -2			; fffffffeH
  0005e	74 1c		 je	 SHORT $LN33@operator
  00060	8a 42 02	 mov	 al, BYTE PTR [edx+2]
  00063	3a 41 02	 cmp	 al, BYTE PTR [ecx+2]
  00066	75 0d		 jne	 SHORT $LN37@operator
  00068	83 fe ff	 cmp	 esi, -1
  0006b	74 0f		 je	 SHORT $LN33@operator
  0006d	8a 42 03	 mov	 al, BYTE PTR [edx+3]
  00070	3a 41 03	 cmp	 al, BYTE PTR [ecx+3]
  00073	74 07		 je	 SHORT $LN33@operator
$LN37@operator:
  00075	1b c0		 sbb	 eax, eax
  00077	83 c8 01	 or	 eax, 1
  0007a	eb 02		 jmp	 SHORT $LN38@operator
$LN33@operator:
  0007c	33 c0		 xor	 eax, eax
$LN38@operator:

; 621  :     if (_Ans != 0) {

  0007e	85 c0		 test	 eax, eax
  00080	75 13		 jne	 SHORT $LN24@operator

; 622  :         return _Ans;
; 623  :     }
; 624  : 
; 625  :     if (_Left_size < _Right_size) {

  00082	3b fb		 cmp	 edi, ebx
  00084	76 0b		 jbe	 SHORT $LN51@operator
; File C:\Program Files\Microsoft Visual Studio\2022\Professional\VC\Tools\MSVC\14.44.35207\include\xstring

; 3308 :     return _Left.compare(_Right) < 0;

  00086	5f		 pop	 edi
; File C:\Program Files\Microsoft Visual Studio\2022\Professional\VC\Tools\MSVC\14.44.35207\include\__msvc_string_view.hpp

; 626  :         return -1;

  00087	83 c8 ff	 or	 eax, -1
; File C:\Program Files\Microsoft Visual Studio\2022\Professional\VC\Tools\MSVC\14.44.35207\include\xstring

; 3308 :     return _Left.compare(_Right) < 0;

  0008a	5e		 pop	 esi
  0008b	c1 e8 1f	 shr	 eax, 31			; 0000001fH
  0008e	5b		 pop	 ebx

; 3309 : }

  0008f	5d		 pop	 ebp
  00090	c3		 ret	 0
$LN51@operator:
; File C:\Program Files\Microsoft Visual Studio\2022\Professional\VC\Tools\MSVC\14.44.35207\include\__msvc_string_view.hpp

; 629  :     if (_Left_size > _Right_size) {

  00091	1b c0		 sbb	 eax, eax
  00093	f7 d8		 neg	 eax
$LN24@operator:
; File C:\Program Files\Microsoft Visual Studio\2022\Professional\VC\Tools\MSVC\14.44.35207\include\xstring

; 3308 :     return _Left.compare(_Right) < 0;

  00095	5f		 pop	 edi
  00096	5e		 pop	 esi
  00097	c1 e8 1f	 shr	 eax, 31			; 0000001fH
  0009a	5b		 pop	 ebx

; 3309 : }

  0009b	5d		 pop	 ebp
  0009c	c3		 ret	 0
??$?MDU?$char_traits@D@std@@V?$allocator@D@1@@std@@YA_NABV?$basic_string@DU?$char_traits@D@std@@V?$allocator@D@2@@0@0@Z ENDP ; std::operator<<char,std::char_traits<char>,std::allocator<char> >
_TEXT	ENDS
; Function compile flags: /Ogtp
; File C:\IAGOS\server\v18\Source\Source\_Common\Project.h
; File C:\Program Files (x86)\Windows Kits\10\Include\10.0.26100.0\ucrt\tchar.h
; File C:\IAGOS\server\v18\Source\Source\_Common\Project.h
;	COMDAT ?GetCharacter@CProject@@QAEPAUtagCHARACTER@@PBD@Z
_TEXT	SEGMENT
_lpCharacter$ = -72					; size = 4
_szStrKeyLwr$ = -68					; size = 64
__$ArrayPad$ = -4					; size = 4
_lpStrKey$ = 8						; size = 4
?GetCharacter@CProject@@QAEPAUtagCHARACTER@@PBD@Z PROC	; CProject::GetCharacter, COMDAT
; _this$ = ecx

; 1442 : { 

  00000	55		 push	 ebp
  00001	8b ec		 mov	 ebp, esp
  00003	83 ec 48	 sub	 esp, 72			; 00000048H
  00006	a1 00 00 00 00	 mov	 eax, DWORD PTR ___security_cookie
  0000b	33 c5		 xor	 eax, ebp
  0000d	89 45 fc	 mov	 DWORD PTR __$ArrayPad$[ebp], eax

; 1443 : 	if( lpStrKey[0] == 0 )	return NULL;

  00010	8b 45 08	 mov	 eax, DWORD PTR _lpStrKey$[ebp]
  00013	56		 push	 esi
  00014	8b f1		 mov	 esi, ecx
  00016	80 38 00	 cmp	 BYTE PTR [eax], 0
  00019	75 13		 jne	 SHORT $LN2@GetCharact
  0001b	33 c0		 xor	 eax, eax
  0001d	5e		 pop	 esi

; 1449 : 	return lpCharacter; 
; 1450 : }

  0001e	8b 4d fc	 mov	 ecx, DWORD PTR __$ArrayPad$[ebp]
  00021	33 cd		 xor	 ecx, ebp
  00023	e8 00 00 00 00	 call	 @__security_check_cookie@4
  00028	8b e5		 mov	 esp, ebp
  0002a	5d		 pop	 ebp
  0002b	c2 04 00	 ret	 4
$LN2@GetCharact:

; 1444 : 	LPCHARACTER lpCharacter = NULL; 

  0002e	8d 55 bc	 lea	 edx, DWORD PTR _szStrKeyLwr$[ebp]
  00031	c7 45 b8 00 00
	00 00		 mov	 DWORD PTR _lpCharacter$[ebp], 0
  00038	2b d0		 sub	 edx, eax
  0003a	66 0f 1f 44 00
	00		 npad	 6
$LL4@GetCharact:

; 1445 : 	TCHAR szStrKeyLwr[ 64 ];
; 1446 : 	_tcscpy( szStrKeyLwr, lpStrKey );

  00040	8a 08		 mov	 cl, BYTE PTR [eax]
  00042	8d 40 01	 lea	 eax, DWORD PTR [eax+1]
  00045	88 4c 02 ff	 mov	 BYTE PTR [edx+eax-1], cl
  00049	84 c9		 test	 cl, cl
  0004b	75 f3		 jne	 SHORT $LL4@GetCharact
; File C:\Program Files (x86)\Windows Kits\10\Include\10.0.26100.0\ucrt\tchar.h

; 1848 :     return (char *)_mbslwr((unsigned char *)_String);

  0004d	8d 45 bc	 lea	 eax, DWORD PTR _szStrKeyLwr$[ebp]
  00050	50		 push	 eax
  00051	e8 00 00 00 00	 call	 __mbslwr
  00056	83 c4 04	 add	 esp, 4
; File C:\IAGOS\server\v18\Source\Source\_Common\Project.h

; 1448 : 	m_mapCharacter.Lookup( szStrKeyLwr, (void*&)lpCharacter ); 

  00059	8d 45 b8	 lea	 eax, DWORD PTR _lpCharacter$[ebp]
  0005c	8d 8e 24 03 00
	00		 lea	 ecx, DWORD PTR [esi+804]
  00062	50		 push	 eax
  00063	8d 45 bc	 lea	 eax, DWORD PTR _szStrKeyLwr$[ebp]
  00066	50		 push	 eax
  00067	e8 00 00 00 00	 call	 ?Lookup@CMapStringToPtr@@QBEHPBDAAPAX@Z ; CMapStringToPtr::Lookup

; 1449 : 	return lpCharacter; 
; 1450 : }

  0006c	8b 4d fc	 mov	 ecx, DWORD PTR __$ArrayPad$[ebp]
  0006f	8b 45 b8	 mov	 eax, DWORD PTR _lpCharacter$[ebp]
  00072	33 cd		 xor	 ecx, ebp
  00074	5e		 pop	 esi
  00075	e8 00 00 00 00	 call	 @__security_check_cookie@4
  0007a	8b e5		 mov	 esp, ebp
  0007c	5d		 pop	 ebp
  0007d	c2 04 00	 ret	 4
?GetCharacter@CProject@@QAEPAUtagCHARACTER@@PBD@Z ENDP	; CProject::GetCharacter
_TEXT	ENDS
; Function compile flags: /Ogtp
; File C:\Program Files\Microsoft Visual Studio\2022\Professional\VC\Tools\MSVC\14.44.35207\include\vector
;	COMDAT ?_Xlength@?$vector@HV?$allocator@H@std@@@std@@CAXXZ
_TEXT	SEGMENT
?_Xlength@?$vector@HV?$allocator@H@std@@@std@@CAXXZ PROC ; std::vector<int,std::allocator<int> >::_Xlength, COMDAT

; 2184 :         _Xlength_error("vector too long");

  00000	68 00 00 00 00	 push	 OFFSET ??_C@_0BA@FOIKENOD@vector?5too?5long@
  00005	e8 00 00 00 00	 call	 ?_Xlength_error@std@@YAXPBD@Z ; std::_Xlength_error
$LN3@Xlength:
  0000a	cc		 int	 3
?_Xlength@?$vector@HV?$allocator@H@std@@@std@@CAXXZ ENDP ; std::vector<int,std::allocator<int> >::_Xlength
_TEXT	ENDS
; Function compile flags: /Ogtp
; File C:\Program Files\Microsoft Visual Studio\2022\Professional\VC\Tools\MSVC\14.44.35207\include\vector
; File C:\Program Files\Microsoft Visual Studio\2022\Professional\VC\Tools\MSVC\14.44.35207\include\xmemory
; File C:\Program Files\Microsoft Visual Studio\2022\Professional\VC\Tools\MSVC\14.44.35207\include\vector
; File C:\Program Files\Microsoft Visual Studio\2022\Professional\VC\Tools\MSVC\14.44.35207\include\xmemory
; File C:\Program Files\Microsoft Visual Studio\2022\Professional\VC\Tools\MSVC\14.44.35207\include\vector
; File C:\Program Files\Microsoft Visual Studio\2022\Professional\VC\Tools\MSVC\14.44.35207\include\xmemory
; File C:\Program Files\Microsoft Visual Studio\2022\Professional\VC\Tools\MSVC\14.44.35207\include\vector
;	COMDAT ??1?$vector@HV?$allocator@H@std@@@std@@QAE@XZ
_TEXT	SEGMENT
??1?$vector@HV?$allocator@H@std@@@std@@QAE@XZ PROC	; std::vector<int,std::allocator<int> >::~vector<int,std::allocator<int> >, COMDAT
; _this$ = ecx

; 829  :     _CONSTEXPR20 ~vector() noexcept {

  00000	56		 push	 esi
  00001	8b f1		 mov	 esi, ecx

; 2090 :         if (_Myfirst) { // destroy and deallocate old array

  00003	8b 06		 mov	 eax, DWORD PTR [esi]
  00005	85 c0		 test	 eax, eax
  00007	74 40		 je	 SHORT $LN5@vector

; 2091 :             _STD _Destroy_range(_Myfirst, _Mylast, _Al);
; 2092 :             _ASAN_VECTOR_REMOVE;
; 2093 :             _Al.deallocate(_Myfirst, static_cast<size_type>(_Myend - _Myfirst));

  00009	8b 4e 08	 mov	 ecx, DWORD PTR [esi+8]
  0000c	2b c8		 sub	 ecx, eax
; File C:\Program Files\Microsoft Visual Studio\2022\Professional\VC\Tools\MSVC\14.44.35207\include\xmemory

; 985  :         _STD _Deallocate<_New_alignof<_Ty>>(_Ptr, sizeof(_Ty) * _Count);

  0000e	83 e1 fc	 and	 ecx, -4			; fffffffcH

; 284  :         if (_Bytes >= _Big_allocation_threshold) {

  00011	81 f9 00 10 00
	00		 cmp	 ecx, 4096		; 00001000H
  00017	72 12		 jb	 SHORT $LN18@vector

; 205  :     const uintptr_t _Ptr_container   = _Ptr_user[-1];

  00019	8b 50 fc	 mov	 edx, DWORD PTR [eax-4]
  0001c	83 c1 23	 add	 ecx, 35			; 00000023H

; 206  : 
; 207  :     // If the following asserts, it likely means that we are performing
; 208  :     // an aligned delete on memory coming from an unaligned allocation.
; 209  :     _STL_ASSERT(_Ptr_user[-2] == _Big_allocation_sentinel, "invalid argument");
; 210  : 
; 211  :     // Extra paranoia on aligned allocation/deallocation; ensure _Ptr_container is
; 212  :     // in range [_Min_back_shift, _Non_user_size]
; 213  : #ifdef _DEBUG
; 214  :     constexpr uintptr_t _Min_back_shift = 2 * sizeof(void*);
; 215  : #else // ^^^ defined(_DEBUG) / !defined(_DEBUG) vvv
; 216  :     constexpr uintptr_t _Min_back_shift = sizeof(void*);
; 217  : #endif // ^^^ !defined(_DEBUG) ^^^
; 218  :     const uintptr_t _Back_shift = reinterpret_cast<uintptr_t>(_Ptr) - _Ptr_container;

  0001f	2b c2		 sub	 eax, edx

; 219  :     _STL_VERIFY(_Back_shift >= _Min_back_shift && _Back_shift <= _Non_user_size, "invalid argument");

  00021	83 c0 fc	 add	 eax, -4			; fffffffcH
  00024	83 f8 1f	 cmp	 eax, 31			; 0000001fH
  00027	77 22		 ja	 SHORT $LN17@vector

; 220  :     _Ptr = reinterpret_cast<void*>(_Ptr_container);

  00029	8b c2		 mov	 eax, edx
$LN18@vector:

; 289  :         ::operator delete(_Ptr, _Bytes);

  0002b	51		 push	 ecx
  0002c	50		 push	 eax
  0002d	e8 00 00 00 00	 call	 ??3@YAXPAXI@Z		; operator delete
; File C:\Program Files\Microsoft Visual Studio\2022\Professional\VC\Tools\MSVC\14.44.35207\include\vector

; 2095 :             _Myfirst = nullptr;

  00032	c7 06 00 00 00
	00		 mov	 DWORD PTR [esi], 0
; File C:\Program Files\Microsoft Visual Studio\2022\Professional\VC\Tools\MSVC\14.44.35207\include\xmemory

; 289  :         ::operator delete(_Ptr, _Bytes);

  00038	83 c4 08	 add	 esp, 8
; File C:\Program Files\Microsoft Visual Studio\2022\Professional\VC\Tools\MSVC\14.44.35207\include\vector

; 2096 :             _Mylast  = nullptr;

  0003b	c7 46 04 00 00
	00 00		 mov	 DWORD PTR [esi+4], 0

; 2097 :             _Myend   = nullptr;

  00042	c7 46 08 00 00
	00 00		 mov	 DWORD PTR [esi+8], 0
$LN5@vector:
  00049	5e		 pop	 esi

; 835  :     }

  0004a	c3		 ret	 0
$LN17@vector:
; File C:\Program Files\Microsoft Visual Studio\2022\Professional\VC\Tools\MSVC\14.44.35207\include\xmemory

; 219  :     _STL_VERIFY(_Back_shift >= _Min_back_shift && _Back_shift <= _Non_user_size, "invalid argument");

  0004b	6a 00		 push	 0
  0004d	6a 00		 push	 0
  0004f	6a 00		 push	 0
  00051	6a 00		 push	 0
  00053	6a 00		 push	 0
  00055	e8 00 00 00 00	 call	 __invoke_watson
$LN26@vector:
  0005a	cc		 int	 3
??1?$vector@HV?$allocator@H@std@@@std@@QAE@XZ ENDP	; std::vector<int,std::allocator<int> >::~vector<int,std::allocator<int> >
_TEXT	ENDS
; Function compile flags: /Ogtp
; File C:\IAGOS\server\v18\Source\Source\DX_SDK\d3dx9math.h
;	COMDAT ??0D3DXVECTOR3@@QAE@XZ
_TEXT	SEGMENT
??0D3DXVECTOR3@@QAE@XZ PROC				; D3DXVECTOR3::D3DXVECTOR3, COMDAT
; _this$ = ecx

; 165  :     D3DXVECTOR3() {};

  00000	8b c1		 mov	 eax, ecx
  00002	c3		 ret	 0
??0D3DXVECTOR3@@QAE@XZ ENDP				; D3DXVECTOR3::D3DXVECTOR3
_TEXT	ENDS
; Function compile flags: /Ogtp
; File C:\Program Files\Microsoft Visual Studio\2022\Professional\VC\Tools\MSVC\14.44.35207\include\xtree
;	COMDAT ?_Throw_tree_length_error@std@@YAXXZ
_TEXT	SEGMENT
?_Throw_tree_length_error@std@@YAXXZ PROC		; std::_Throw_tree_length_error, COMDAT

; 417  :     _Xlength_error("map/set too long");

  00000	68 00 00 00 00	 push	 OFFSET ??_C@_0BB@GCADKGJO@map?1set?5too?5long@
  00005	e8 00 00 00 00	 call	 ?_Xlength_error@std@@YAXPBD@Z ; std::_Xlength_error
$LN3@Throw_tree:
  0000a	cc		 int	 3
?_Throw_tree_length_error@std@@YAXXZ ENDP		; std::_Throw_tree_length_error
_TEXT	ENDS
; Function compile flags: /Ogtp
; File C:\Program Files\Microsoft Visual Studio\2022\Professional\VC\Tools\MSVC\14.44.35207\include\xstring
; File C:\Program Files\Microsoft Visual Studio\2022\Professional\VC\Tools\MSVC\14.44.35207\include\xmemory
; File C:\Program Files\Microsoft Visual Studio\2022\Professional\VC\Tools\MSVC\14.44.35207\include\xstring
; File C:\Program Files\Microsoft Visual Studio\2022\Professional\VC\Tools\MSVC\14.44.35207\include\xmemory
; File C:\Program Files\Microsoft Visual Studio\2022\Professional\VC\Tools\MSVC\14.44.35207\include\xstring
; File C:\Program Files\Microsoft Visual Studio\2022\Professional\VC\Tools\MSVC\14.44.35207\include\xmemory
; File C:\Program Files\Microsoft Visual Studio\2022\Professional\VC\Tools\MSVC\14.44.35207\include\xstring
;	COMDAT ??1?$basic_string@DU?$char_traits@D@std@@V?$allocator@D@2@@std@@QAE@XZ
_TEXT	SEGMENT
??1?$basic_string@DU?$char_traits@D@std@@V?$allocator@D@2@@std@@QAE@XZ PROC ; std::basic_string<char,std::char_traits<char>,std::allocator<char> >::~basic_string<char,std::char_traits<char>,std::allocator<char> >, COMDAT
; _this$ = ecx

; 1382 :     _CONSTEXPR20 ~basic_string() noexcept {

  00000	56		 push	 esi
  00001	8b f1		 mov	 esi, ecx

; 453  :         return _Myres > _Small_string_capacity;

  00003	8b 4e 14	 mov	 ecx, DWORD PTR [esi+20]
  00006	83 f9 0f	 cmp	 ecx, 15			; 0000000fH

; 3083 :         if (_My_data._Large_mode_engaged()) {

  00009	76 27		 jbe	 SHORT $LN19@basic_stri
; File C:\Program Files\Microsoft Visual Studio\2022\Professional\VC\Tools\MSVC\14.44.35207\include\xmemory

; 985  :         _STD _Deallocate<_New_alignof<_Ty>>(_Ptr, sizeof(_Ty) * _Count);

  0000b	8b 06		 mov	 eax, DWORD PTR [esi]
; File C:\Program Files\Microsoft Visual Studio\2022\Professional\VC\Tools\MSVC\14.44.35207\include\xstring

; 852  :         _Al.deallocate(_Old_ptr, _Capacity + 1); // +1 for null terminator

  0000d	41		 inc	 ecx
; File C:\Program Files\Microsoft Visual Studio\2022\Professional\VC\Tools\MSVC\14.44.35207\include\xmemory

; 284  :         if (_Bytes >= _Big_allocation_threshold) {

  0000e	81 f9 00 10 00
	00		 cmp	 ecx, 4096		; 00001000H
  00014	72 12		 jb	 SHORT $LN24@basic_stri

; 205  :     const uintptr_t _Ptr_container   = _Ptr_user[-1];

  00016	8b 50 fc	 mov	 edx, DWORD PTR [eax-4]
  00019	83 c1 23	 add	 ecx, 35			; 00000023H

; 206  : 
; 207  :     // If the following asserts, it likely means that we are performing
; 208  :     // an aligned delete on memory coming from an unaligned allocation.
; 209  :     _STL_ASSERT(_Ptr_user[-2] == _Big_allocation_sentinel, "invalid argument");
; 210  : 
; 211  :     // Extra paranoia on aligned allocation/deallocation; ensure _Ptr_container is
; 212  :     // in range [_Min_back_shift, _Non_user_size]
; 213  : #ifdef _DEBUG
; 214  :     constexpr uintptr_t _Min_back_shift = 2 * sizeof(void*);
; 215  : #else // ^^^ defined(_DEBUG) / !defined(_DEBUG) vvv
; 216  :     constexpr uintptr_t _Min_back_shift = sizeof(void*);
; 217  : #endif // ^^^ !defined(_DEBUG) ^^^
; 218  :     const uintptr_t _Back_shift = reinterpret_cast<uintptr_t>(_Ptr) - _Ptr_container;

  0001c	2b c2		 sub	 eax, edx

; 219  :     _STL_VERIFY(_Back_shift >= _Min_back_shift && _Back_shift <= _Non_user_size, "invalid argument");

  0001e	83 c0 fc	 add	 eax, -4			; fffffffcH
  00021	83 f8 1f	 cmp	 eax, 31			; 0000001fH
  00024	77 1f		 ja	 SHORT $LN23@basic_stri

; 220  :     _Ptr = reinterpret_cast<void*>(_Ptr_container);

  00026	8b c2		 mov	 eax, edx
$LN24@basic_stri:

; 289  :         ::operator delete(_Ptr, _Bytes);

  00028	51		 push	 ecx
  00029	50		 push	 eax
  0002a	e8 00 00 00 00	 call	 ??3@YAXPAXI@Z		; operator delete
  0002f	83 c4 08	 add	 esp, 8
$LN19@basic_stri:
; File C:\Program Files\Microsoft Visual Studio\2022\Professional\VC\Tools\MSVC\14.44.35207\include\xstring

; 3090 :         _My_data._Mysize = 0;

  00032	c7 46 10 00 00
	00 00		 mov	 DWORD PTR [esi+16], 0

; 3091 :         _My_data._Myres  = _Small_string_capacity;

  00039	c7 46 14 0f 00
	00 00		 mov	 DWORD PTR [esi+20], 15	; 0000000fH

; 3092 :         // the _Traits::assign is last so the codegen doesn't think the char write can alias this
; 3093 :         _Traits::assign(_My_data._Bx._Buf[0], _Elem());

  00040	c6 06 00	 mov	 BYTE PTR [esi], 0
  00043	5e		 pop	 esi

; 1390 :     }

  00044	c3		 ret	 0
$LN23@basic_stri:
; File C:\Program Files\Microsoft Visual Studio\2022\Professional\VC\Tools\MSVC\14.44.35207\include\xmemory

; 219  :     _STL_VERIFY(_Back_shift >= _Min_back_shift && _Back_shift <= _Non_user_size, "invalid argument");

  00045	6a 00		 push	 0
  00047	6a 00		 push	 0
  00049	6a 00		 push	 0
  0004b	6a 00		 push	 0
  0004d	6a 00		 push	 0
  0004f	e8 00 00 00 00	 call	 __invoke_watson
$LN33@basic_stri:
  00054	cc		 int	 3
??1?$basic_string@DU?$char_traits@D@std@@V?$allocator@D@2@@std@@QAE@XZ ENDP ; std::basic_string<char,std::char_traits<char>,std::allocator<char> >::~basic_string<char,std::char_traits<char>,std::allocator<char> >
_TEXT	ENDS
; Function compile flags: /Ogtp
; File C:\Program Files\Microsoft Visual Studio\2022\Professional\VC\Tools\MSVC\14.44.35207\include\xstring
; File C:\Program Files\Microsoft Visual Studio\2022\Professional\VC\Tools\MSVC\14.44.35207\include\__msvc_string_view.hpp
; File C:\Program Files\Microsoft Visual Studio\2022\Professional\VC\Tools\MSVC\14.44.35207\include\xstring
; File C:\Program Files\Microsoft Visual Studio\2022\Professional\VC\Tools\MSVC\14.44.35207\include\__msvc_string_view.hpp
; File C:\Program Files\Microsoft Visual Studio\2022\Professional\VC\Tools\MSVC\14.44.35207\include\xstring
; File C:\Program Files\Microsoft Visual Studio\2022\Professional\VC\Tools\MSVC\14.44.35207\include\__msvc_string_view.hpp
; File C:\Program Files\Microsoft Visual Studio\2022\Professional\VC\Tools\MSVC\14.44.35207\include\xstring
; File C:\Program Files\Microsoft Visual Studio\2022\Professional\VC\Tools\MSVC\14.44.35207\include\__msvc_string_view.hpp
; File C:\Program Files\Microsoft Visual Studio\2022\Professional\VC\Tools\MSVC\14.44.35207\include\xstring
; File C:\Program Files\Microsoft Visual Studio\2022\Professional\VC\Tools\MSVC\14.44.35207\include\xmemory
; File C:\Program Files\Microsoft Visual Studio\2022\Professional\VC\Tools\MSVC\14.44.35207\include\xstring
; File C:\Program Files\Microsoft Visual Studio\2022\Professional\VC\Tools\MSVC\14.44.35207\include\xmemory
; File C:\Program Files\Microsoft Visual Studio\2022\Professional\VC\Tools\MSVC\14.44.35207\include\xstring
; File C:\Program Files\Microsoft Visual Studio\2022\Professional\VC\Tools\MSVC\14.44.35207\include\__msvc_string_view.hpp
; File C:\Program Files\Microsoft Visual Studio\2022\Professional\VC\Tools\MSVC\14.44.35207\include\xstring
; File C:\Program Files\Microsoft Visual Studio\2022\Professional\VC\Tools\MSVC\14.44.35207\include\__msvc_string_view.hpp
; File C:\Program Files\Microsoft Visual Studio\2022\Professional\VC\Tools\MSVC\14.44.35207\include\xstring
; File C:\Program Files\Microsoft Visual Studio\2022\Professional\VC\Tools\MSVC\14.44.35207\include\__msvc_string_view.hpp
; File C:\Program Files\Microsoft Visual Studio\2022\Professional\VC\Tools\MSVC\14.44.35207\include\xstring
;	COMDAT ??0?$basic_string@DU?$char_traits@D@std@@V?$allocator@D@2@@std@@QAE@QBD@Z
_TEXT	SEGMENT
$T1 = -4						; size = 4
__Ptr$ = 8						; size = 4
??0?$basic_string@DU?$char_traits@D@std@@V?$allocator@D@2@@std@@QAE@QBD@Z PROC ; std::basic_string<char,std::char_traits<char>,std::allocator<char> >::basic_string<char,std::char_traits<char>,std::allocator<char> >, COMDAT
; _this$ = ecx

; 768  :     _CONSTEXPR20 basic_string(_In_z_ const _Elem* const _Ptr) : _Mypair(_Zero_then_variadic_args_t{}) {

  00000	55		 push	 ebp
  00001	8b ec		 mov	 ebp, esp
  00003	51		 push	 ecx
  00004	53		 push	 ebx
  00005	56		 push	 esi
  00006	8b d9		 mov	 ebx, ecx
  00008	0f 57 c0	 xorps	 xmm0, xmm0
  0000b	57		 push	 edi
; File C:\Program Files\Microsoft Visual Studio\2022\Professional\VC\Tools\MSVC\14.44.35207\include\__msvc_string_view.hpp

; 459  :         return _CSTD strlen(reinterpret_cast<const char*>(_First));

  0000c	8b 7d 08	 mov	 edi, DWORD PTR __Ptr$[ebp]
  0000f	8b f7		 mov	 esi, edi
; File C:\Program Files\Microsoft Visual Studio\2022\Professional\VC\Tools\MSVC\14.44.35207\include\xstring

; 493  :         _CONSTEXPR20 _Bxty() noexcept : _Buf() {} // user-provided, for fancy pointers

  00011	0f 11 03	 movups	 XMMWORD PTR [ebx], xmm0

; 517  :     size_type _Mysize = 0; // current length of string (size)

  00014	c7 43 10 00 00
	00 00		 mov	 DWORD PTR [ebx+16], 0

; 518  :     size_type _Myres  = 0; // current storage reserved for string (capacity)

  0001b	c7 43 14 00 00
	00 00		 mov	 DWORD PTR [ebx+20], 0
; File C:\Program Files\Microsoft Visual Studio\2022\Professional\VC\Tools\MSVC\14.44.35207\include\__msvc_string_view.hpp

; 459  :         return _CSTD strlen(reinterpret_cast<const char*>(_First));

  00022	8d 4e 01	 lea	 ecx, DWORD PTR [esi+1]
$LL51@basic_stri:
  00025	8a 06		 mov	 al, BYTE PTR [esi]
  00027	46		 inc	 esi
  00028	84 c0		 test	 al, al
  0002a	75 f9		 jne	 SHORT $LL51@basic_stri
  0002c	2b f1		 sub	 esi, ecx
; File C:\Program Files\Microsoft Visual Studio\2022\Professional\VC\Tools\MSVC\14.44.35207\include\xstring

; 881  :         if (_Count > max_size()) {

  0002e	81 fe ff ff ff
	7f		 cmp	 esi, 2147483647		; 7fffffffH
  00034	0f 87 9b 00 00
	00		 ja	 $LN62@basic_stri

; 883  :         }
; 884  : 
; 885  :         auto& _Al       = _Getal();
; 886  :         auto&& _Alproxy = _GET_PROXY_ALLOCATOR(_Alty, _Al);
; 887  :         _Container_proxy_ptr<_Alty> _Proxy(_Alproxy, _My_data);
; 888  : 
; 889  :         if (_Count <= _Small_string_capacity) {

  0003a	83 fe 0f	 cmp	 esi, 15			; 0000000fH
  0003d	77 24		 ja	 SHORT $LN21@basic_stri
; File C:\Program Files\Microsoft Visual Studio\2022\Professional\VC\Tools\MSVC\14.44.35207\include\__msvc_string_view.hpp

; 121  :         _CSTD memcpy(_First1, _First2, _Count * sizeof(_Elem));

  0003f	56		 push	 esi
  00040	57		 push	 edi
  00041	53		 push	 ebx
; File C:\Program Files\Microsoft Visual Studio\2022\Professional\VC\Tools\MSVC\14.44.35207\include\xstring

; 890  :             _My_data._Mysize = _Count;

  00042	89 73 10	 mov	 DWORD PTR [ebx+16], esi

; 891  :             _My_data._Myres  = _Small_string_capacity;

  00045	c7 43 14 0f 00
	00 00		 mov	 DWORD PTR [ebx+20], 15	; 0000000fH
; File C:\Program Files\Microsoft Visual Studio\2022\Professional\VC\Tools\MSVC\14.44.35207\include\__msvc_string_view.hpp

; 121  :         _CSTD memcpy(_First1, _First2, _Count * sizeof(_Elem));

  0004c	e8 00 00 00 00	 call	 _memcpy
; File C:\Program Files\Microsoft Visual Studio\2022\Professional\VC\Tools\MSVC\14.44.35207\include\xstring

; 898  :                 _Traits::assign(_My_data._Bx._Buf[_Count], _Elem());

  00051	c6 04 1e 00	 mov	 BYTE PTR [esi+ebx], 0

; 769  :         _Construct<_Construct_strategy::_From_ptr>(_Ptr, _Convert_size<size_type>(_Traits::length(_Ptr)));
; 770  :     }

  00055	83 c4 0c	 add	 esp, 12			; 0000000cH
  00058	8b c3		 mov	 eax, ebx
  0005a	5f		 pop	 edi
  0005b	5e		 pop	 esi
  0005c	5b		 pop	 ebx
  0005d	8b e5		 mov	 esp, ebp
  0005f	5d		 pop	 ebp
  00060	c2 04 00	 ret	 4
$LN21@basic_stri:

; 2978 :         const size_type _Masked = _Requested | _Alloc_mask;

  00063	8b fe		 mov	 edi, esi
  00065	83 cf 0f	 or	 edi, 15			; 0000000fH
  00068	81 ff ff ff ff
	7f		 cmp	 edi, 2147483647		; 7fffffffH

; 2979 :         if (_Masked > _Max) { // the mask overflows, settle for max_size()

  0006e	76 12		 jbe	 SHORT $LN27@basic_stri

; 2980 :             return _Max;

  00070	b8 00 00 00 80	 mov	 eax, -2147483648	; 80000000H
  00075	bf ff ff ff 7f	 mov	 edi, 2147483647		; 7fffffffH
; File C:\Program Files\Microsoft Visual Studio\2022\Professional\VC\Tools\MSVC\14.44.35207\include\xmemory

; 253  :             return _Allocate_manually_vector_aligned<_Traits>(_Bytes);

  0007a	50		 push	 eax
  0007b	e8 00 00 00 00	 call	 ??$_Allocate_manually_vector_aligned@U_Default_allocate_traits@std@@@std@@YAPAXI@Z ; std::_Allocate_manually_vector_aligned<std::_Default_allocate_traits>
  00080	eb 26		 jmp	 SHORT $LN60@basic_stri
$LN27@basic_stri:
; File C:\Program Files\Microsoft Visual Studio\2022\Professional\VC\Tools\MSVC\14.44.35207\include\xstring

; 2987 :         return (_STD max)(_Masked, _Old + _Old / 2);

  00082	b8 16 00 00 00	 mov	 eax, 22			; 00000016H
  00087	3b f8		 cmp	 edi, eax
  00089	0f 42 f8	 cmovb	 edi, eax

; 825  :         ++_Capacity; // Take null terminator into consideration

  0008c	8d 47 01	 lea	 eax, DWORD PTR [edi+1]
; File C:\Program Files\Microsoft Visual Studio\2022\Professional\VC\Tools\MSVC\14.44.35207\include\xmemory

; 227  :     if (_Bytes == 0) {

  0008f	85 c0		 test	 eax, eax
  00091	74 18		 je	 SHORT $LN59@basic_stri
$LN41@basic_stri:

; 228  :         return nullptr;
; 229  :     }
; 230  : 
; 231  : #if _HAS_CXX20 // TRANSITION, GH-1532
; 232  :     if (_STD is_constant_evaluated()) {
; 233  :         return _Traits::_Allocate(_Bytes);
; 234  :     }
; 235  : #endif // _HAS_CXX20
; 236  : 
; 237  : #ifdef __cpp_aligned_new
; 238  :     if constexpr (_Align > __STDCPP_DEFAULT_NEW_ALIGNMENT__) {
; 239  :         size_t _Passed_align = _Align;
; 240  : #if defined(_M_IX86) || defined(_M_X64)
; 241  :         if (_Bytes >= _Big_allocation_threshold) {
; 242  :             // boost the alignment of big allocations to help autovectorization
; 243  :             _Passed_align = (_STD max)(_Align, _Big_allocation_alignment);
; 244  :         }
; 245  : #endif // defined(_M_IX86) || defined(_M_X64)
; 246  :         return _Traits::_Allocate_aligned(_Bytes, _Passed_align);
; 247  :     } else
; 248  : #endif // defined(__cpp_aligned_new)
; 249  :     {
; 250  : #if defined(_M_IX86) || defined(_M_X64)
; 251  :         if (_Bytes >= _Big_allocation_threshold) {

  00093	3d 00 10 00 00	 cmp	 eax, 4096		; 00001000H
  00098	72 08		 jb	 SHORT $LN42@basic_stri

; 253  :             return _Allocate_manually_vector_aligned<_Traits>(_Bytes);

  0009a	50		 push	 eax
  0009b	e8 00 00 00 00	 call	 ??$_Allocate_manually_vector_aligned@U_Default_allocate_traits@std@@@std@@YAPAXI@Z ; std::_Allocate_manually_vector_aligned<std::_Default_allocate_traits>
  000a0	eb 06		 jmp	 SHORT $LN60@basic_stri
$LN42@basic_stri:

; 136  :         return ::operator new(_Bytes);

  000a2	50		 push	 eax
  000a3	e8 00 00 00 00	 call	 ??2@YAPAXI@Z		; operator new
$LN60@basic_stri:
; File C:\Program Files\Microsoft Visual Studio\2022\Professional\VC\Tools\MSVC\14.44.35207\include\xstring

; 913  :         _Construct_in_place(_My_data._Bx._Ptr, _New_ptr);

  000a8	83 c4 04	 add	 esp, 4
$LN59@basic_stri:
; File C:\Program Files\Microsoft Visual Studio\2022\Professional\VC\Tools\MSVC\14.44.35207\include\__msvc_string_view.hpp

; 121  :         _CSTD memcpy(_First1, _First2, _Count * sizeof(_Elem));

  000ab	56		 push	 esi
  000ac	ff 75 08	 push	 DWORD PTR __Ptr$[ebp]
; File C:\Program Files\Microsoft Visual Studio\2022\Professional\VC\Tools\MSVC\14.44.35207\include\xstring

; 913  :         _Construct_in_place(_My_data._Bx._Ptr, _New_ptr);

  000af	89 45 fc	 mov	 DWORD PTR $T1[ebp], eax
; File C:\Program Files\Microsoft Visual Studio\2022\Professional\VC\Tools\MSVC\14.44.35207\include\__msvc_string_view.hpp

; 121  :         _CSTD memcpy(_First1, _First2, _Count * sizeof(_Elem));

  000b2	50		 push	 eax
; File C:\Program Files\Microsoft Visual Studio\2022\Professional\VC\Tools\MSVC\14.44.35207\include\xstring

; 913  :         _Construct_in_place(_My_data._Bx._Ptr, _New_ptr);

  000b3	89 03		 mov	 DWORD PTR [ebx], eax

; 914  : 
; 915  :         _My_data._Mysize = _Count;

  000b5	89 73 10	 mov	 DWORD PTR [ebx+16], esi

; 916  :         _My_data._Myres  = _New_capacity;

  000b8	89 7b 14	 mov	 DWORD PTR [ebx+20], edi
; File C:\Program Files\Microsoft Visual Studio\2022\Professional\VC\Tools\MSVC\14.44.35207\include\__msvc_string_view.hpp

; 121  :         _CSTD memcpy(_First1, _First2, _Count * sizeof(_Elem));

  000bb	e8 00 00 00 00	 call	 _memcpy
; File C:\Program Files\Microsoft Visual Studio\2022\Professional\VC\Tools\MSVC\14.44.35207\include\xstring

; 922  :             _Traits::assign(_Unfancy(_New_ptr)[_Count], _Elem());

  000c0	8b 45 fc	 mov	 eax, DWORD PTR $T1[ebp]

; 769  :         _Construct<_Construct_strategy::_From_ptr>(_Ptr, _Convert_size<size_type>(_Traits::length(_Ptr)));
; 770  :     }

  000c3	83 c4 0c	 add	 esp, 12			; 0000000cH
  000c6	5f		 pop	 edi

; 922  :             _Traits::assign(_Unfancy(_New_ptr)[_Count], _Elem());

  000c7	c6 04 30 00	 mov	 BYTE PTR [eax+esi], 0

; 769  :         _Construct<_Construct_strategy::_From_ptr>(_Ptr, _Convert_size<size_type>(_Traits::length(_Ptr)));
; 770  :     }

  000cb	8b c3		 mov	 eax, ebx
  000cd	5e		 pop	 esi
  000ce	5b		 pop	 ebx
  000cf	8b e5		 mov	 esp, ebp
  000d1	5d		 pop	 ebp
  000d2	c2 04 00	 ret	 4
$LN62@basic_stri:

; 882  :             _Xlen_string(); // result too long

  000d5	e8 00 00 00 00	 call	 ?_Xlen_string@std@@YAXXZ ; std::_Xlen_string
$LN57@basic_stri:
  000da	cc		 int	 3
??0?$basic_string@DU?$char_traits@D@std@@V?$allocator@D@2@@std@@QAE@QBD@Z ENDP ; std::basic_string<char,std::char_traits<char>,std::allocator<char> >::basic_string<char,std::char_traits<char>,std::allocator<char> >
_TEXT	ENDS
; Function compile flags: /Ogtp
; File C:\Program Files\Microsoft Visual Studio\2022\Professional\VC\Tools\MSVC\14.44.35207\include\xstring
;	COMDAT ?_Xlen_string@std@@YAXXZ
_TEXT	SEGMENT
?_Xlen_string@std@@YAXXZ PROC				; std::_Xlen_string, COMDAT

; 531  :     _Xlength_error("string too long");

  00000	68 00 00 00 00	 push	 OFFSET ??_C@_0BA@JFNIOLAK@string?5too?5long@
  00005	e8 00 00 00 00	 call	 ?_Xlength_error@std@@YAXPBD@Z ; std::_Xlength_error
$LN3@Xlen_strin:
  0000a	cc		 int	 3
?_Xlen_string@std@@YAXXZ ENDP				; std::_Xlen_string
_TEXT	ENDS
; Function compile flags: /Ogtp
; File C:\Program Files\Microsoft Visual Studio\2022\Professional\VC\Tools\MSVC\14.44.35207\include\xmemory
;	COMDAT ?_Throw_bad_array_new_length@std@@YAXXZ
_TEXT	SEGMENT
$T1 = -12						; size = 12
?_Throw_bad_array_new_length@std@@YAXXZ PROC		; std::_Throw_bad_array_new_length, COMDAT

; 107  : [[noreturn]] inline void _Throw_bad_array_new_length() {

  00000	55		 push	 ebp
  00001	8b ec		 mov	 ebp, esp
  00003	83 ec 0c	 sub	 esp, 12			; 0000000cH

; 108  :     _THROW(bad_array_new_length{});

  00006	8d 4d f4	 lea	 ecx, DWORD PTR $T1[ebp]
  00009	e8 00 00 00 00	 call	 ??0bad_array_new_length@std@@QAE@XZ ; std::bad_array_new_length::bad_array_new_length
  0000e	68 00 00 00 00	 push	 OFFSET __TI3?AVbad_array_new_length@std@@
  00013	8d 45 f4	 lea	 eax, DWORD PTR $T1[ebp]
  00016	50		 push	 eax
  00017	e8 00 00 00 00	 call	 __CxxThrowException@8
$LN3@Throw_bad_:
  0001c	cc		 int	 3
?_Throw_bad_array_new_length@std@@YAXXZ ENDP		; std::_Throw_bad_array_new_length
_TEXT	ENDS
; Function compile flags: /Ogtp
; File C:\Program Files\Microsoft Visual Studio\2022\Professional\VC\Tools\MSVC\14.44.35207\include\vcruntime_exception.h
;	COMDAT ??_Gbad_array_new_length@std@@UAEPAXI@Z
_TEXT	SEGMENT
___flags$ = 8						; size = 4
??_Gbad_array_new_length@std@@UAEPAXI@Z PROC		; std::bad_array_new_length::`scalar deleting destructor', COMDAT
; _this$ = ecx
  00000	55		 push	 ebp
  00001	8b ec		 mov	 ebp, esp

; 90   :     {

  00003	56		 push	 esi
  00004	8b f1		 mov	 esi, ecx

; 91   :         __std_exception_destroy(&_Data);

  00006	8d 46 04	 lea	 eax, DWORD PTR [esi+4]
  00009	c7 06 00 00 00
	00		 mov	 DWORD PTR [esi], OFFSET ??_7exception@std@@6B@
  0000f	50		 push	 eax
  00010	e8 00 00 00 00	 call	 ___std_exception_destroy
  00015	83 c4 04	 add	 esp, 4
  00018	f6 45 08 01	 test	 BYTE PTR ___flags$[ebp], 1
  0001c	74 0b		 je	 SHORT $LN18@scalar
  0001e	6a 0c		 push	 12			; 0000000cH
  00020	56		 push	 esi
  00021	e8 00 00 00 00	 call	 ??3@YAXPAXI@Z		; operator delete
  00026	83 c4 08	 add	 esp, 8
$LN18@scalar:
  00029	8b c6		 mov	 eax, esi
  0002b	5e		 pop	 esi
  0002c	5d		 pop	 ebp
  0002d	c2 04 00	 ret	 4
??_Gbad_array_new_length@std@@UAEPAXI@Z ENDP		; std::bad_array_new_length::`scalar deleting destructor'
_TEXT	ENDS
; Function compile flags: /Ogtp
; File C:\Program Files\Microsoft Visual Studio\2022\Professional\VC\Tools\MSVC\14.44.35207\include\vcruntime_exception.h
;	COMDAT ??0bad_array_new_length@std@@QAE@ABV01@@Z
_TEXT	SEGMENT
___that$ = 8						; size = 4
??0bad_array_new_length@std@@QAE@ABV01@@Z PROC		; std::bad_array_new_length::bad_array_new_length, COMDAT
; _this$ = ecx
  00000	55		 push	 ebp
  00001	8b ec		 mov	 ebp, esp

; 73   :     {

  00003	56		 push	 esi
  00004	8b f1		 mov	 esi, ecx
  00006	0f 57 c0	 xorps	 xmm0, xmm0

; 72   :         : _Data()

  00009	8d 46 04	 lea	 eax, DWORD PTR [esi+4]

; 74   :         __std_exception_copy(&_Other._Data, &_Data);

  0000c	50		 push	 eax
  0000d	c7 06 00 00 00
	00		 mov	 DWORD PTR [esi], OFFSET ??_7exception@std@@6B@
  00013	66 0f d6 00	 movq	 QWORD PTR [eax], xmm0
  00017	8b 45 08	 mov	 eax, DWORD PTR ___that$[ebp]
  0001a	83 c0 04	 add	 eax, 4
  0001d	50		 push	 eax
  0001e	e8 00 00 00 00	 call	 ___std_exception_copy
  00023	83 c4 08	 add	 esp, 8
  00026	c7 06 00 00 00
	00		 mov	 DWORD PTR [esi], OFFSET ??_7bad_array_new_length@std@@6B@
  0002c	8b c6		 mov	 eax, esi
  0002e	5e		 pop	 esi
  0002f	5d		 pop	 ebp
  00030	c2 04 00	 ret	 4
??0bad_array_new_length@std@@QAE@ABV01@@Z ENDP		; std::bad_array_new_length::bad_array_new_length
_TEXT	ENDS
; Function compile flags: /Ogtp
; File C:\Program Files\Microsoft Visual Studio\2022\Professional\VC\Tools\MSVC\14.44.35207\include\vcruntime_exception.h
;	COMDAT ??1bad_array_new_length@std@@UAE@XZ
_TEXT	SEGMENT
??1bad_array_new_length@std@@UAE@XZ PROC		; std::bad_array_new_length::~bad_array_new_length, COMDAT
; _this$ = ecx

; 91   :         __std_exception_destroy(&_Data);

  00000	8d 41 04	 lea	 eax, DWORD PTR [ecx+4]
  00003	c7 01 00 00 00
	00		 mov	 DWORD PTR [ecx], OFFSET ??_7exception@std@@6B@
  00009	50		 push	 eax
  0000a	e8 00 00 00 00	 call	 ___std_exception_destroy
  0000f	59		 pop	 ecx
  00010	c3		 ret	 0
??1bad_array_new_length@std@@UAE@XZ ENDP		; std::bad_array_new_length::~bad_array_new_length
_TEXT	ENDS
; Function compile flags: /Ogtp
; File C:\Program Files\Microsoft Visual Studio\2022\Professional\VC\Tools\MSVC\14.44.35207\include\vcruntime_exception.h
;	COMDAT ??0bad_array_new_length@std@@QAE@XZ
_TEXT	SEGMENT
??0bad_array_new_length@std@@QAE@XZ PROC		; std::bad_array_new_length::bad_array_new_length, COMDAT
; _this$ = ecx

; 144  :     {

  00000	0f 57 c0	 xorps	 xmm0, xmm0

; 145  :     }

  00003	8b c1		 mov	 eax, ecx

; 66   :         : _Data()

  00005	66 0f d6 41 04	 movq	 QWORD PTR [ecx+4], xmm0

; 67   :     {
; 68   :         _Data._What = _Message;

  0000a	c7 41 04 00 00
	00 00		 mov	 DWORD PTR [ecx+4], OFFSET ??_C@_0BF@KINCDENJ@bad?5array?5new?5length@

; 144  :     {

  00011	c7 01 00 00 00
	00		 mov	 DWORD PTR [ecx], OFFSET ??_7bad_array_new_length@std@@6B@

; 145  :     }

  00017	c3		 ret	 0
??0bad_array_new_length@std@@QAE@XZ ENDP		; std::bad_array_new_length::bad_array_new_length
_TEXT	ENDS
; Function compile flags: /Ogtp
; File C:\Program Files\Microsoft Visual Studio\2022\Professional\VC\Tools\MSVC\14.44.35207\include\vcruntime_exception.h
;	COMDAT ??_Gbad_alloc@std@@UAEPAXI@Z
_TEXT	SEGMENT
___flags$ = 8						; size = 4
??_Gbad_alloc@std@@UAEPAXI@Z PROC			; std::bad_alloc::`scalar deleting destructor', COMDAT
; _this$ = ecx
  00000	55		 push	 ebp
  00001	8b ec		 mov	 ebp, esp

; 90   :     {

  00003	56		 push	 esi
  00004	8b f1		 mov	 esi, ecx

; 91   :         __std_exception_destroy(&_Data);

  00006	8d 46 04	 lea	 eax, DWORD PTR [esi+4]
  00009	c7 06 00 00 00
	00		 mov	 DWORD PTR [esi], OFFSET ??_7exception@std@@6B@
  0000f	50		 push	 eax
  00010	e8 00 00 00 00	 call	 ___std_exception_destroy
  00015	83 c4 04	 add	 esp, 4
  00018	f6 45 08 01	 test	 BYTE PTR ___flags$[ebp], 1
  0001c	74 0b		 je	 SHORT $LN13@scalar
  0001e	6a 0c		 push	 12			; 0000000cH
  00020	56		 push	 esi
  00021	e8 00 00 00 00	 call	 ??3@YAXPAXI@Z		; operator delete
  00026	83 c4 08	 add	 esp, 8
$LN13@scalar:
  00029	8b c6		 mov	 eax, esi
  0002b	5e		 pop	 esi
  0002c	5d		 pop	 ebp
  0002d	c2 04 00	 ret	 4
??_Gbad_alloc@std@@UAEPAXI@Z ENDP			; std::bad_alloc::`scalar deleting destructor'
_TEXT	ENDS
; Function compile flags: /Ogtp
; File C:\Program Files\Microsoft Visual Studio\2022\Professional\VC\Tools\MSVC\14.44.35207\include\vcruntime_exception.h
;	COMDAT ??0bad_alloc@std@@QAE@ABV01@@Z
_TEXT	SEGMENT
___that$ = 8						; size = 4
??0bad_alloc@std@@QAE@ABV01@@Z PROC			; std::bad_alloc::bad_alloc, COMDAT
; _this$ = ecx
  00000	55		 push	 ebp
  00001	8b ec		 mov	 ebp, esp

; 73   :     {

  00003	56		 push	 esi
  00004	8b f1		 mov	 esi, ecx
  00006	0f 57 c0	 xorps	 xmm0, xmm0

; 72   :         : _Data()

  00009	8d 46 04	 lea	 eax, DWORD PTR [esi+4]

; 74   :         __std_exception_copy(&_Other._Data, &_Data);

  0000c	50		 push	 eax
  0000d	c7 06 00 00 00
	00		 mov	 DWORD PTR [esi], OFFSET ??_7exception@std@@6B@
  00013	66 0f d6 00	 movq	 QWORD PTR [eax], xmm0
  00017	8b 45 08	 mov	 eax, DWORD PTR ___that$[ebp]
  0001a	83 c0 04	 add	 eax, 4
  0001d	50		 push	 eax
  0001e	e8 00 00 00 00	 call	 ___std_exception_copy
  00023	83 c4 08	 add	 esp, 8
  00026	c7 06 00 00 00
	00		 mov	 DWORD PTR [esi], OFFSET ??_7bad_alloc@std@@6B@
  0002c	8b c6		 mov	 eax, esi
  0002e	5e		 pop	 esi
  0002f	5d		 pop	 ebp
  00030	c2 04 00	 ret	 4
??0bad_alloc@std@@QAE@ABV01@@Z ENDP			; std::bad_alloc::bad_alloc
_TEXT	ENDS
; Function compile flags: /Ogtp
; File C:\Program Files\Microsoft Visual Studio\2022\Professional\VC\Tools\MSVC\14.44.35207\include\vcruntime_exception.h
;	COMDAT ??_Gexception@std@@UAEPAXI@Z
_TEXT	SEGMENT
___flags$ = 8						; size = 4
??_Gexception@std@@UAEPAXI@Z PROC			; std::exception::`scalar deleting destructor', COMDAT
; _this$ = ecx
  00000	55		 push	 ebp
  00001	8b ec		 mov	 ebp, esp

; 90   :     {

  00003	56		 push	 esi
  00004	8b f1		 mov	 esi, ecx

; 91   :         __std_exception_destroy(&_Data);

  00006	8d 46 04	 lea	 eax, DWORD PTR [esi+4]
  00009	c7 06 00 00 00
	00		 mov	 DWORD PTR [esi], OFFSET ??_7exception@std@@6B@
  0000f	50		 push	 eax
  00010	e8 00 00 00 00	 call	 ___std_exception_destroy
  00015	83 c4 04	 add	 esp, 4
  00018	f6 45 08 01	 test	 BYTE PTR ___flags$[ebp], 1
  0001c	74 0b		 je	 SHORT $LN8@scalar
  0001e	6a 0c		 push	 12			; 0000000cH
  00020	56		 push	 esi
  00021	e8 00 00 00 00	 call	 ??3@YAXPAXI@Z		; operator delete
  00026	83 c4 08	 add	 esp, 8
$LN8@scalar:
  00029	8b c6		 mov	 eax, esi
  0002b	5e		 pop	 esi
  0002c	5d		 pop	 ebp
  0002d	c2 04 00	 ret	 4
??_Gexception@std@@UAEPAXI@Z ENDP			; std::exception::`scalar deleting destructor'
_TEXT	ENDS
; Function compile flags: /Ogtp
; File C:\Program Files\Microsoft Visual Studio\2022\Professional\VC\Tools\MSVC\14.44.35207\include\vcruntime_exception.h
;	COMDAT ?what@exception@std@@UBEPBDXZ
_TEXT	SEGMENT
?what@exception@std@@UBEPBDXZ PROC			; std::exception::what, COMDAT
; _this$ = ecx

; 96   :         return _Data._What ? _Data._What : "Unknown exception";

  00000	8b 49 04	 mov	 ecx, DWORD PTR [ecx+4]
  00003	b8 00 00 00 00	 mov	 eax, OFFSET ??_C@_0BC@EOODALEL@Unknown?5exception@
  00008	85 c9		 test	 ecx, ecx
  0000a	0f 45 c1	 cmovne	 eax, ecx

; 97   :     }

  0000d	c3		 ret	 0
?what@exception@std@@UBEPBDXZ ENDP			; std::exception::what
_TEXT	ENDS
; Function compile flags: /Ogtp
; File C:\Program Files\Microsoft Visual Studio\2022\Professional\VC\Tools\MSVC\14.44.35207\include\vcruntime_exception.h
;	COMDAT ??1exception@std@@UAE@XZ
_TEXT	SEGMENT
??1exception@std@@UAE@XZ PROC				; std::exception::~exception, COMDAT
; _this$ = ecx

; 91   :         __std_exception_destroy(&_Data);

  00000	8d 41 04	 lea	 eax, DWORD PTR [ecx+4]
  00003	c7 01 00 00 00
	00		 mov	 DWORD PTR [ecx], OFFSET ??_7exception@std@@6B@
  00009	50		 push	 eax
  0000a	e8 00 00 00 00	 call	 ___std_exception_destroy
  0000f	59		 pop	 ecx

; 92   :     }

  00010	c3		 ret	 0
??1exception@std@@UAE@XZ ENDP				; std::exception::~exception
_TEXT	ENDS
; Function compile flags: /Ogtp
; File C:\Program Files\Microsoft Visual Studio\2022\Professional\VC\Tools\MSVC\14.44.35207\include\vcruntime_exception.h
;	COMDAT ??0exception@std@@QAE@ABV01@@Z
_TEXT	SEGMENT
__Other$ = 8						; size = 4
??0exception@std@@QAE@ABV01@@Z PROC			; std::exception::exception, COMDAT
; _this$ = ecx

; 73   :     {

  00000	55		 push	 ebp
  00001	8b ec		 mov	 ebp, esp
  00003	56		 push	 esi
  00004	8b f1		 mov	 esi, ecx
  00006	0f 57 c0	 xorps	 xmm0, xmm0
  00009	8d 46 04	 lea	 eax, DWORD PTR [esi+4]

; 74   :         __std_exception_copy(&_Other._Data, &_Data);

  0000c	50		 push	 eax
  0000d	c7 06 00 00 00
	00		 mov	 DWORD PTR [esi], OFFSET ??_7exception@std@@6B@
  00013	66 0f d6 00	 movq	 QWORD PTR [eax], xmm0
  00017	8b 45 08	 mov	 eax, DWORD PTR __Other$[ebp]
  0001a	83 c0 04	 add	 eax, 4
  0001d	50		 push	 eax
  0001e	e8 00 00 00 00	 call	 ___std_exception_copy
  00023	83 c4 08	 add	 esp, 8

; 75   :     }

  00026	8b c6		 mov	 eax, esi
  00028	5e		 pop	 esi
  00029	5d		 pop	 ebp
  0002a	c2 04 00	 ret	 4
??0exception@std@@QAE@ABV01@@Z ENDP			; std::exception::exception
_TEXT	ENDS
; Function compile flags: /Ogtp
; File C:\Program Files\Microsoft Visual Studio\2022\Professional\VC\Tools\MSVC\14.44.35207\atlmfc\include\cstringt.h
; File C:\Program Files\Microsoft Visual Studio\2022\Professional\VC\Tools\MSVC\14.44.35207\atlmfc\include\atlsimpstr.h
; File C:\Program Files\Microsoft Visual Studio\2022\Professional\VC\Tools\MSVC\14.44.35207\atlmfc\include\cstringt.h
;	COMDAT ??1?$CStringT@DV?$StrTraitMFC@DV?$ChTraitsCRT@D@ATL@@@@@ATL@@QAE@XZ
_TEXT	SEGMENT
??1?$CStringT@DV?$StrTraitMFC@DV?$ChTraitsCRT@D@ATL@@@@@ATL@@QAE@XZ PROC ; ATL::CStringT<char,StrTraitMFC<char,ATL::ChTraitsCRT<char> > >::~CStringT<char,StrTraitMFC<char,ATL::ChTraitsCRT<char> > >, COMDAT
; _this$ = ecx
; File C:\Program Files\Microsoft Visual Studio\2022\Professional\VC\Tools\MSVC\14.44.35207\atlmfc\include\atlsimpstr.h

; 804  : 		return( reinterpret_cast< CStringData* >( m_pszData )-1 );

  00000	8b 11		 mov	 edx, DWORD PTR [ecx]

; 92   : 		if( _InterlockedDecrement( &nRefs ) <= 0 )

  00002	83 c8 ff	 or	 eax, -1

; 804  : 		return( reinterpret_cast< CStringData* >( m_pszData )-1 );

  00005	83 ea 10	 sub	 edx, 16			; 00000010H

; 92   : 		if( _InterlockedDecrement( &nRefs ) <= 0 )

  00008	f0 0f c1 42 0c	 lock	  xadd	 DWORD PTR [edx+12], eax
  0000d	48		 dec	 eax
  0000e	85 c0		 test	 eax, eax
  00010	7f 08		 jg	 SHORT $LN8@CStringT

; 93   : 		{
; 94   : 			pStringMgr->Free( this );

  00012	8b 0a		 mov	 ecx, DWORD PTR [edx]
  00014	52		 push	 edx
  00015	8b 01		 mov	 eax, DWORD PTR [ecx]
  00017	ff 50 04	 call	 DWORD PTR [eax+4]
$LN8@CStringT:
; File C:\Program Files\Microsoft Visual Studio\2022\Professional\VC\Tools\MSVC\14.44.35207\atlmfc\include\cstringt.h

; 1303 : 	}

  0001a	c3		 ret	 0
??1?$CStringT@DV?$StrTraitMFC@DV?$ChTraitsCRT@D@ATL@@@@@ATL@@QAE@XZ ENDP ; ATL::CStringT<char,StrTraitMFC<char,ATL::ChTraitsCRT<char> > >::~CStringT<char,StrTraitMFC<char,ATL::ChTraitsCRT<char> > >
_TEXT	ENDS
; Function compile flags: /Ogtp
; File C:\Program Files\Microsoft Visual Studio\2022\Professional\VC\Tools\MSVC\14.44.35207\atlmfc\include\atlsimpstr.h
;	COMDAT ?Reallocate@?$CSimpleStringT@D$0A@@ATL@@AAEXH@Z
_TEXT	SEGMENT
_nLength$ = 8						; size = 4
?Reallocate@?$CSimpleStringT@D$0A@@ATL@@AAEXH@Z PROC	; ATL::CSimpleStringT<char,0>::Reallocate, COMDAT
; _this$ = ecx

; 853  : 	{

  00000	55		 push	 ebp
  00001	8b ec		 mov	 ebp, esp
  00003	56		 push	 esi

; 854  : 		CStringData* pOldData = GetData();
; 855  : 		ATLASSERT( pOldData->nAllocLength < nLength );
; 856  : 		IAtlStringMgr* pStringMgr = pOldData->pStringMgr;
; 857  : 		if ( pOldData->nAllocLength >= nLength || nLength <= 0)

  00004	8b 75 08	 mov	 esi, DWORD PTR _nLength$[ebp]
  00007	57		 push	 edi
  00008	8b f9		 mov	 edi, ecx

; 804  : 		return( reinterpret_cast< CStringData* >( m_pszData )-1 );

  0000a	8b 17		 mov	 edx, DWORD PTR [edi]
  0000c	83 ea 10	 sub	 edx, 16			; 00000010H

; 854  : 		CStringData* pOldData = GetData();
; 855  : 		ATLASSERT( pOldData->nAllocLength < nLength );
; 856  : 		IAtlStringMgr* pStringMgr = pOldData->pStringMgr;
; 857  : 		if ( pOldData->nAllocLength >= nLength || nLength <= 0)

  0000f	39 72 08	 cmp	 DWORD PTR [edx+8], esi
  00012	7d 1e		 jge	 SHORT $LN3@Reallocate
  00014	85 f6		 test	 esi, esi
  00016	7e 1a		 jle	 SHORT $LN3@Reallocate

; 860  : 			return;
; 861  : 		}
; 862  : 		CStringData* pNewData = pStringMgr->Reallocate( pOldData, nLength, sizeof( XCHAR ) );

  00018	8b 0a		 mov	 ecx, DWORD PTR [edx]
  0001a	6a 01		 push	 1
  0001c	56		 push	 esi
  0001d	52		 push	 edx
  0001e	8b 01		 mov	 eax, DWORD PTR [ecx]
  00020	ff 50 08	 call	 DWORD PTR [eax+8]

; 863  : 		if( pNewData == NULL )

  00023	85 c0		 test	 eax, eax
  00025	74 0b		 je	 SHORT $LN3@Reallocate

; 864  : 		{
; 865  : 			ThrowMemoryException();
; 866  : 		}
; 867  : 		Attach( pNewData );

  00027	83 c0 10	 add	 eax, 16			; 00000010H
  0002a	89 07		 mov	 DWORD PTR [edi], eax
  0002c	5f		 pop	 edi
  0002d	5e		 pop	 esi

; 868  : 	}

  0002e	5d		 pop	 ebp
  0002f	c2 04 00	 ret	 4
$LN3@Reallocate:

; 858  : 		{
; 859  : 			ThrowMemoryException();

  00032	e8 00 00 00 00	 call	 ?ThrowMemoryException@?$CSimpleStringT@D$0A@@ATL@@KAXXZ ; ATL::CSimpleStringT<char,0>::ThrowMemoryException
$LN12@Reallocate:
  00037	cc		 int	 3
?Reallocate@?$CSimpleStringT@D$0A@@ATL@@AAEXH@Z ENDP	; ATL::CSimpleStringT<char,0>::Reallocate
_TEXT	ENDS
; Function compile flags: /Ogtp
; File C:\Program Files\Microsoft Visual Studio\2022\Professional\VC\Tools\MSVC\14.44.35207\atlmfc\include\atlsimpstr.h
;	COMDAT ?PrepareWrite2@?$CSimpleStringT@D$0A@@ATL@@AAEXH@Z
_TEXT	SEGMENT
_nLength$ = 8						; size = 4
?PrepareWrite2@?$CSimpleStringT@D$0A@@ATL@@AAEXH@Z PROC	; ATL::CSimpleStringT<char,0>::PrepareWrite2, COMDAT
; _this$ = ecx

; 822  : 	{

  00000	55		 push	 ebp
  00001	8b ec		 mov	 ebp, esp
  00003	56		 push	 esi

; 823  : 		CStringData* pOldData = GetData();
; 824  : 		if( pOldData->nDataLength > nLength )

  00004	8b 75 08	 mov	 esi, DWORD PTR _nLength$[ebp]
  00007	57		 push	 edi
  00008	8b f9		 mov	 edi, ecx

; 804  : 		return( reinterpret_cast< CStringData* >( m_pszData )-1 );

  0000a	8b 0f		 mov	 ecx, DWORD PTR [edi]

; 823  : 		CStringData* pOldData = GetData();
; 824  : 		if( pOldData->nDataLength > nLength )

  0000c	39 71 f4	 cmp	 DWORD PTR [ecx-12], esi
  0000f	0f 4f 71 f4	 cmovg	 esi, DWORD PTR [ecx-12]

; 77   : 		return( nRefs > 1 );

  00013	83 79 fc 01	 cmp	 DWORD PTR [ecx-4], 1

; 825  : 		{
; 826  : 			nLength = pOldData->nDataLength;
; 827  : 		}
; 828  : 		if( pOldData->IsShared() )

  00017	7e 0e		 jle	 SHORT $LN3@PrepareWri

; 829  : 		{
; 830  : 			Fork( nLength );

  00019	56		 push	 esi
  0001a	8b cf		 mov	 ecx, edi
  0001c	e8 00 00 00 00	 call	 ?Fork@?$CSimpleStringT@D$0A@@ATL@@AAEXH@Z ; ATL::CSimpleStringT<char,0>::Fork
  00021	5f		 pop	 edi

; 850  : 		}
; 851  : 	}

  00022	5e		 pop	 esi
  00023	5d		 pop	 ebp
  00024	c2 04 00	 ret	 4
$LN3@PrepareWri:

; 831  : 		}
; 832  : 		else if( pOldData->nAllocLength < nLength )

  00027	8b 49 f8	 mov	 ecx, DWORD PTR [ecx-8]
  0002a	3b ce		 cmp	 ecx, esi
  0002c	7d 25		 jge	 SHORT $LN5@PrepareWri

; 833  : 		{
; 834  : 			// Grow exponentially, until we hit 1G, then by 1M thereafter.
; 835  : 			int nNewLength = pOldData->nAllocLength;
; 836  : 			if( nNewLength > 1024 * 1024 * 1024 )

  0002e	81 f9 00 00 00
	40		 cmp	 ecx, 1073741824		; 40000000H
  00034	7e 07		 jle	 SHORT $LN6@PrepareWri

; 837  : 			{
; 838  : 				nNewLength += 1024 * 1024;

  00036	b8 00 00 10 00	 mov	 eax, 1048576		; 00100000H

; 839  : 			}

  0003b	eb 07		 jmp	 SHORT $LN7@PrepareWri
$LN6@PrepareWri:

; 840  : 			else
; 841  : 			{
; 842  : 				// Exponential growth factor is 1.5.
; 843  : 				nNewLength = nNewLength + nNewLength / 2;

  0003d	8b c1		 mov	 eax, ecx
  0003f	99		 cdq
  00040	2b c2		 sub	 eax, edx
  00042	d1 f8		 sar	 eax, 1
$LN7@PrepareWri:

; 844  : 			}
; 845  : 			if( nNewLength < nLength )

  00044	03 c1		 add	 eax, ecx

; 846  : 			{
; 847  : 				nNewLength = nLength;
; 848  : 			}
; 849  : 			Reallocate( nNewLength );

  00046	8b cf		 mov	 ecx, edi
  00048	3b c6		 cmp	 eax, esi
  0004a	0f 4d f0	 cmovge	 esi, eax
  0004d	56		 push	 esi
  0004e	e8 00 00 00 00	 call	 ?Reallocate@?$CSimpleStringT@D$0A@@ATL@@AAEXH@Z ; ATL::CSimpleStringT<char,0>::Reallocate
$LN5@PrepareWri:

; 850  : 		}
; 851  : 	}

  00053	5f		 pop	 edi
  00054	5e		 pop	 esi
  00055	5d		 pop	 ebp
  00056	c2 04 00	 ret	 4
?PrepareWrite2@?$CSimpleStringT@D$0A@@ATL@@AAEXH@Z ENDP	; ATL::CSimpleStringT<char,0>::PrepareWrite2
_TEXT	ENDS
; Function compile flags: /Ogtp
; File C:\Program Files\Microsoft Visual Studio\2022\Professional\VC\Tools\MSVC\14.44.35207\atlmfc\include\atlsimpstr.h
; File C:\Program Files (x86)\Windows Kits\10\Include\10.0.26100.0\ucrt\corecrt_memcpy_s.h
; File C:\Program Files\Microsoft Visual Studio\2022\Professional\VC\Tools\MSVC\14.44.35207\atlmfc\include\atlsimpstr.h
;	COMDAT ?Fork@?$CSimpleStringT@D$0A@@ATL@@AAEXH@Z
_TEXT	SEGMENT
_this$1$ = -12						; size = 4
_nOldLength$1$ = -8					; size = 4
__Source$1$ = -4					; size = 4
_nLength$ = 8						; size = 4
_pNewData$1$ = 8					; size = 4
?Fork@?$CSimpleStringT@D$0A@@ATL@@AAEXH@Z PROC		; ATL::CSimpleStringT<char,0>::Fork, COMDAT
; _this$ = ecx

; 787  : 	{

  00000	55		 push	 ebp
  00001	8b ec		 mov	 ebp, esp
  00003	83 ec 0c	 sub	 esp, 12			; 0000000cH
  00006	8b c1		 mov	 eax, ecx
  00008	89 45 f4	 mov	 DWORD PTR _this$1$[ebp], eax
  0000b	53		 push	 ebx
  0000c	56		 push	 esi

; 804  : 		return( reinterpret_cast< CStringData* >( m_pszData )-1 );

  0000d	8b 00		 mov	 eax, DWORD PTR [eax]

; 790  : 		CStringData* pNewData = pOldData->pStringMgr->Clone()->Allocate( nLength, sizeof( XCHAR ) );

  0000f	8b 48 f0	 mov	 ecx, DWORD PTR [eax-16]

; 804  : 		return( reinterpret_cast< CStringData* >( m_pszData )-1 );

  00012	8d 58 f0	 lea	 ebx, DWORD PTR [eax-16]
  00015	89 45 fc	 mov	 DWORD PTR __Source$1$[ebp], eax

; 787  : 	{

  00018	57		 push	 edi

; 788  : 		CStringData* pOldData = GetData();
; 789  : 		int nOldLength = pOldData->nDataLength;

  00019	8b 7b 04	 mov	 edi, DWORD PTR [ebx+4]

; 790  : 		CStringData* pNewData = pOldData->pStringMgr->Clone()->Allocate( nLength, sizeof( XCHAR ) );

  0001c	8b 01		 mov	 eax, DWORD PTR [ecx]
  0001e	89 7d f8	 mov	 DWORD PTR _nOldLength$1$[ebp], edi
  00021	ff 50 10	 call	 DWORD PTR [eax+16]
  00024	8b 75 08	 mov	 esi, DWORD PTR _nLength$[ebp]
  00027	8b c8		 mov	 ecx, eax
  00029	6a 01		 push	 1
  0002b	56		 push	 esi
  0002c	8b 10		 mov	 edx, DWORD PTR [eax]
  0002e	ff 12		 call	 DWORD PTR [edx]
  00030	89 45 08	 mov	 DWORD PTR _pNewData$1$[ebp], eax

; 791  : 		if( pNewData == NULL )

  00033	85 c0		 test	 eax, eax
  00035	74 6c		 je	 SHORT $LN25@Fork

; 794  : 		}
; 795  : 		int nCharsToCopy = ((nOldLength < nLength) ? nOldLength : nLength)+1;  // Copy '\0'

  00037	3b fe		 cmp	 edi, esi
  00039	0f 4c f7	 cmovl	 esi, edi

; 796  : 		memcpy_s( PXSTR( pNewData->data() ), nCharsToCopy * sizeof( XCHAR ),

  0003c	8d 78 10	 lea	 edi, DWORD PTR [eax+16]
  0003f	83 c6 01	 add	 esi, 1
; File C:\Program Files (x86)\Windows Kits\10\Include\10.0.26100.0\ucrt\corecrt_memcpy_s.h

; 47   :         if (_SourceSize == 0)

  00042	74 33		 je	 SHORT $LN11@Fork

; 48   :         {
; 49   :             return 0;
; 50   :         }
; 51   : 
; 52   :         _CRT_MEMCPY_S_VALIDATE_RETURN_ERRCODE(_Destination != NULL, EINVAL);

  00044	85 ff		 test	 edi, edi
  00046	74 1f		 je	 SHORT $LN23@Fork

; 53   :         if (_Source == NULL || _DestinationSize < _SourceSize)

  00048	8b 45 fc	 mov	 eax, DWORD PTR __Source$1$[ebp]
  0004b	56		 push	 esi
  0004c	85 c0		 test	 eax, eax
  0004e	74 0c		 je	 SHORT $LN10@Fork

; 56   : 
; 57   :             _CRT_MEMCPY_S_VALIDATE_RETURN_ERRCODE(_Source != NULL,                 EINVAL);
; 58   :             _CRT_MEMCPY_S_VALIDATE_RETURN_ERRCODE(_DestinationSize >= _SourceSize, ERANGE);
; 59   : 
; 60   :             // Unreachable, but required to suppress /analyze warnings:
; 61   :             return EINVAL;
; 62   :         }
; 63   :         memcpy(_Destination, _Source, _SourceSize);

  00050	50		 push	 eax
  00051	57		 push	 edi
  00052	e8 00 00 00 00	 call	 _memcpy
  00057	83 c4 0c	 add	 esp, 12			; 0000000cH
  0005a	eb 1b		 jmp	 SHORT $LN11@Fork
$LN10@Fork:

; 54   :         {
; 55   :             memset(_Destination, 0, _DestinationSize);

  0005c	6a 00		 push	 0
  0005e	57		 push	 edi
  0005f	e8 00 00 00 00	 call	 _memset
  00064	83 c4 0c	 add	 esp, 12			; 0000000cH
$LN23@Fork:
; File C:\Program Files\Microsoft Visual Studio\2022\Professional\VC\Tools\MSVC\14.44.35207\atlmfc\include\atlsimpstr.h

; 798  : 		pNewData->nDataLength = nOldLength;

  00067	e8 00 00 00 00	 call	 __errno
  0006c	c7 00 16 00 00
	00		 mov	 DWORD PTR [eax], 22	; 00000016H
  00072	e8 00 00 00 00	 call	 __invalid_parameter_noinfo
$LN11@Fork:
  00077	8b 4d 08	 mov	 ecx, DWORD PTR _pNewData$1$[ebp]
  0007a	8b 45 f8	 mov	 eax, DWORD PTR _nOldLength$1$[ebp]
  0007d	89 41 04	 mov	 DWORD PTR [ecx+4], eax

; 92   : 		if( _InterlockedDecrement( &nRefs ) <= 0 )

  00080	83 c8 ff	 or	 eax, -1
  00083	f0 0f c1 43 0c	 lock	  xadd	 DWORD PTR [ebx+12], eax
  00088	48		 dec	 eax
  00089	85 c0		 test	 eax, eax
  0008b	7f 08		 jg	 SHORT $LN15@Fork

; 93   : 		{
; 94   : 			pStringMgr->Free( this );

  0008d	8b 0b		 mov	 ecx, DWORD PTR [ebx]
  0008f	53		 push	 ebx
  00090	8b 01		 mov	 eax, DWORD PTR [ecx]
  00092	ff 50 04	 call	 DWORD PTR [eax+4]
$LN15@Fork:

; 799  : 		pOldData->Release();
; 800  : 		Attach( pNewData );

  00095	8b 45 f4	 mov	 eax, DWORD PTR _this$1$[ebp]
  00098	89 38		 mov	 DWORD PTR [eax], edi

; 801  : 	}

  0009a	5f		 pop	 edi
  0009b	5e		 pop	 esi
  0009c	5b		 pop	 ebx
  0009d	8b e5		 mov	 esp, ebp
  0009f	5d		 pop	 ebp
  000a0	c2 04 00	 ret	 4
$LN25@Fork:

; 792  : 		{
; 793  : 			ThrowMemoryException();

  000a3	e8 00 00 00 00	 call	 ?ThrowMemoryException@?$CSimpleStringT@D$0A@@ATL@@KAXXZ ; ATL::CSimpleStringT<char,0>::ThrowMemoryException
$LN22@Fork:
  000a8	cc		 int	 3
?Fork@?$CSimpleStringT@D$0A@@ATL@@AAEXH@Z ENDP		; ATL::CSimpleStringT<char,0>::Fork
_TEXT	ENDS
; Function compile flags: /Ogtp
; File C:\Program Files\Microsoft Visual Studio\2022\Professional\VC\Tools\MSVC\14.44.35207\atlmfc\include\atlsimpstr.h
;	COMDAT ?ThrowMemoryException@?$CSimpleStringT@D$0A@@ATL@@KAXXZ
_TEXT	SEGMENT
?ThrowMemoryException@?$CSimpleStringT@D$0A@@ATL@@KAXXZ PROC ; ATL::CSimpleStringT<char,0>::ThrowMemoryException, COMDAT

; 777  : 		AtlThrow( E_OUTOFMEMORY );

  00000	68 0e 00 07 80	 push	 -2147024882		; 8007000eH
  00005	e8 00 00 00 00	 call	 ?AtlThrowImpl@ATL@@YGXJ@Z ; ATL::AtlThrowImpl
$LN3@ThrowMemor:
  0000a	cc		 int	 3
?ThrowMemoryException@?$CSimpleStringT@D$0A@@ATL@@KAXXZ ENDP ; ATL::CSimpleStringT<char,0>::ThrowMemoryException
_TEXT	ENDS
; Function compile flags: /Ogtp
; File C:\Program Files\Microsoft Visual Studio\2022\Professional\VC\Tools\MSVC\14.44.35207\atlmfc\include\atlsimpstr.h
; File C:\Program Files (x86)\Windows Kits\10\Include\10.0.26100.0\ucrt\corecrt_memcpy_s.h
; File C:\Program Files\Microsoft Visual Studio\2022\Professional\VC\Tools\MSVC\14.44.35207\atlmfc\include\atlsimpstr.h
; File C:\Program Files (x86)\Windows Kits\10\Include\10.0.26100.0\ucrt\corecrt_memcpy_s.h
; File C:\Program Files\Microsoft Visual Studio\2022\Professional\VC\Tools\MSVC\14.44.35207\atlmfc\include\atlsimpstr.h
;	COMDAT ?SetString@?$CSimpleStringT@D$0A@@ATL@@QAEXPBDH@Z
_TEXT	SEGMENT
_pszSrc$ = 8						; size = 4
_nOldLength$1$ = 8					; size = 4
_nLength$ = 12						; size = 4
_nOffset$1$ = 12					; size = 4
?SetString@?$CSimpleStringT@D$0A@@ATL@@QAEXPBDH@Z PROC	; ATL::CSimpleStringT<char,0>::SetString, COMDAT
; _this$ = ecx

; 611  : 	{

  00000	55		 push	 ebp
  00001	8b ec		 mov	 ebp, esp
  00003	56		 push	 esi

; 612  : 		if( nLength == 0 )

  00004	8b 75 0c	 mov	 esi, DWORD PTR _nLength$[ebp]
  00007	57		 push	 edi
  00008	8b f9		 mov	 edi, ecx
  0000a	85 f6		 test	 esi, esi
  0000c	75 58		 jne	 SHORT $LN2@SetString

; 804  : 		return( reinterpret_cast< CStringData* >( m_pszData )-1 );

  0000e	8b 07		 mov	 eax, DWORD PTR [edi]

; 443  : 		if( pOldData->nDataLength == 0 )

  00010	83 78 f4 00	 cmp	 DWORD PTR [eax-12], 0

; 804  : 		return( reinterpret_cast< CStringData* >( m_pszData )-1 );

  00014	8d 50 f0	 lea	 edx, DWORD PTR [eax-16]

; 442  : 		IAtlStringMgr* pStringMgr = pOldData->pStringMgr;

  00017	8b 32		 mov	 esi, DWORD PTR [edx]

; 443  : 		if( pOldData->nDataLength == 0 )

  00019	74 1f		 je	 SHORT $LN72@SetString

; 73   : 		return nRefs < 0;

  0001b	83 7a 0c 00	 cmp	 DWORD PTR [edx+12], 0
  0001f	8d 4a 0c	 lea	 ecx, DWORD PTR [edx+12]

; 448  : 		if( pOldData->IsLocked() )

  00022	7d 1c		 jge	 SHORT $LN10@SetString

; 875  : 		if( nLength < 0 || nLength > GetData()->nAllocLength)

  00024	83 78 f8 00	 cmp	 DWORD PTR [eax-8], 0
  00028	0f 8c 0b 01 00
	00		 jl	 $LN71@SetString

; 877  : 
; 878  : 		GetData()->nDataLength = nLength;

  0002e	c7 40 f4 00 00
	00 00		 mov	 DWORD PTR [eax-12], 0

; 879  : 		m_pszData[nLength] = 0;

  00035	8b 07		 mov	 eax, DWORD PTR [edi]
  00037	c6 00 00	 mov	 BYTE PTR [eax], 0
$LN72@SetString:
  0003a	5f		 pop	 edi

; 638  : 			else
; 639  : 			{
; 640  : 				memcpy_s( pszBuffer, GetAllocLength() * sizeof( XCHAR ), pszSrc, nLength * sizeof( XCHAR ));
; 641  : 			}
; 642  : 			ReleaseBufferSetLength( nLength );
; 643  : 		}
; 644  : 	}

  0003b	5e		 pop	 esi
  0003c	5d		 pop	 ebp
  0003d	c2 08 00	 ret	 8
$LN10@SetString:

; 92   : 		if( _InterlockedDecrement( &nRefs ) <= 0 )

  00040	83 c8 ff	 or	 eax, -1
  00043	f0 0f c1 01	 lock	  xadd	 DWORD PTR [ecx], eax
  00047	48		 dec	 eax
  00048	85 c0		 test	 eax, eax
  0004a	7f 08		 jg	 SHORT $LN27@SetString

; 93   : 		{
; 94   : 			pStringMgr->Free( this );

  0004c	8b 0a		 mov	 ecx, DWORD PTR [edx]
  0004e	52		 push	 edx
  0004f	8b 01		 mov	 eax, DWORD PTR [ecx]
  00051	ff 50 04	 call	 DWORD PTR [eax+4]
$LN27@SetString:

; 456  : 			CStringData* pNewData = pStringMgr->GetNilString();

  00054	8b 06		 mov	 eax, DWORD PTR [esi]
  00056	8b ce		 mov	 ecx, esi
  00058	ff 50 0c	 call	 DWORD PTR [eax+12]

; 457  : 			Attach( pNewData );

  0005b	83 c0 10	 add	 eax, 16			; 00000010H
  0005e	89 07		 mov	 DWORD PTR [edi], eax
  00060	5f		 pop	 edi

; 638  : 			else
; 639  : 			{
; 640  : 				memcpy_s( pszBuffer, GetAllocLength() * sizeof( XCHAR ), pszSrc, nLength * sizeof( XCHAR ));
; 641  : 			}
; 642  : 			ReleaseBufferSetLength( nLength );
; 643  : 		}
; 644  : 	}

  00061	5e		 pop	 esi
  00062	5d		 pop	 ebp
  00063	c2 08 00	 ret	 8
$LN2@SetString:
  00066	53		 push	 ebx

; 613  : 		{
; 614  : 			Empty();
; 615  : 		}
; 616  : 		else
; 617  : 		{
; 618  : 			// It is possible that pszSrc points to a location inside of our
; 619  : 			// buffer.  GetBuffer() might change m_pszData if (1) the buffer
; 620  : 			// is shared or (2) the buffer is too small to hold the new
; 621  : 			// string.  We detect this aliasing, and modify pszSrc to point
; 622  : 			// into the newly allocated buffer instead.
; 623  : 
; 624  : 			if(pszSrc == NULL)

  00067	8b 5d 08	 mov	 ebx, DWORD PTR _pszSrc$[ebp]
  0006a	85 db		 test	 ebx, ebx
  0006c	0f 84 c7 00 00
	00		 je	 $LN71@SetString

; 523  : 		return( GetData()->nDataLength );

  00072	8b 07		 mov	 eax, DWORD PTR [edi]

; 625  : 				AtlThrow(E_INVALIDARG);
; 626  : 
; 627  : 			UINT nOldLength = GetLength();
; 628  : 			UINT_PTR nOffset = pszSrc-GetString();

  00074	8b d3		 mov	 edx, ebx
  00076	2b d0		 sub	 edx, eax
  00078	89 55 0c	 mov	 DWORD PTR _nOffset$1$[ebp], edx
  0007b	8b 48 f4	 mov	 ecx, DWORD PTR [eax-12]
  0007e	89 4d 08	 mov	 DWORD PTR _nOldLength$1$[ebp], ecx

; 808  : 		if (nLength < 0)

  00081	85 f6		 test	 esi, esi
  00083	0f 88 b0 00 00
	00		 js	 $LN71@SetString

; 809  : 			AtlThrow(E_INVALIDARG);
; 810  : 
; 811  : 		CStringData* pOldData = GetData();
; 812  : 		int nShared = 1-pOldData->nRefs;  // nShared < 0 means true, >= 0 means false

  00089	b9 01 00 00 00	 mov	 ecx, 1
  0008e	2b 48 fc	 sub	 ecx, DWORD PTR [eax-4]

; 813  : 		int nTooShort = pOldData->nAllocLength-nLength;  // nTooShort < 0 means true, >= 0 means false

  00091	8b 40 f8	 mov	 eax, DWORD PTR [eax-8]
  00094	2b c6		 sub	 eax, esi

; 814  : 		if( (nShared|nTooShort) < 0 )  // If either sign bit is set (i.e. either is less than zero), we need to copy data

  00096	0b c8		 or	 ecx, eax
  00098	7d 0b		 jge	 SHORT $LN38@SetString

; 815  : 		{
; 816  : 			PrepareWrite2( nLength );

  0009a	56		 push	 esi
  0009b	8b cf		 mov	 ecx, edi
  0009d	e8 00 00 00 00	 call	 ?PrepareWrite2@?$CSimpleStringT@D$0A@@ATL@@AAEXH@Z ; ATL::CSimpleStringT<char,0>::PrepareWrite2
  000a2	8b 55 0c	 mov	 edx, DWORD PTR _nOffset$1$[ebp]
$LN38@SetString:

; 629  : 			// If 0 <= nOffset <= nOldLength, then pszSrc points into our
; 630  : 			// buffer
; 631  : 
; 632  : 			PXSTR pszBuffer = GetBuffer( nLength );

  000a5	8b 07		 mov	 eax, DWORD PTR [edi]
  000a7	8b 48 f8	 mov	 ecx, DWORD PTR [eax-8]

; 633  : 			if( nOffset <= nOldLength )

  000aa	3b 55 08	 cmp	 edx, DWORD PTR _nOldLength$1$[ebp]
  000ad	77 35		 ja	 SHORT $LN5@SetString

; 634  : 			{
; 635  : 				CopyCharsOverlapped( pszBuffer, GetAllocLength(),

  000af	03 d0		 add	 edx, eax
; File C:\Program Files (x86)\Windows Kits\10\Include\10.0.26100.0\ucrt\corecrt_memcpy_s.h

; 81   :         _CRT_MEMCPY_S_VALIDATE_RETURN_ERRCODE(_Destination != NULL,            EINVAL);

  000b1	85 c0		 test	 eax, eax
  000b3	75 0d		 jne	 SHORT $LN51@SetString
  000b5	e8 00 00 00 00	 call	 __errno
  000ba	c7 00 16 00 00
	00		 mov	 DWORD PTR [eax], 22	; 00000016H
  000c0	eb 5b		 jmp	 SHORT $LN97@SetString
$LN51@SetString:

; 82   :         _CRT_MEMCPY_S_VALIDATE_RETURN_ERRCODE(_Source != NULL,                 EINVAL);

  000c2	85 d2		 test	 edx, edx
  000c4	75 0d		 jne	 SHORT $LN52@SetString
  000c6	e8 00 00 00 00	 call	 __errno
  000cb	c7 00 16 00 00
	00		 mov	 DWORD PTR [eax], 22	; 00000016H
  000d1	eb 4a		 jmp	 SHORT $LN97@SetString
$LN52@SetString:

; 83   :         _CRT_MEMCPY_S_VALIDATE_RETURN_ERRCODE(_DestinationSize >= _SourceSize, ERANGE);

  000d3	3b ce		 cmp	 ecx, esi
  000d5	72 3b		 jb	 SHORT $LN98@SetString

; 84   : 
; 85   :         memmove(_Destination, _Source, _SourceSize);

  000d7	56		 push	 esi
  000d8	52		 push	 edx
  000d9	50		 push	 eax
  000da	e8 00 00 00 00	 call	 _memmove
  000df	83 c4 0c	 add	 esp, 12			; 0000000cH
; File C:\Program Files\Microsoft Visual Studio\2022\Professional\VC\Tools\MSVC\14.44.35207\atlmfc\include\atlsimpstr.h

; 637  : 			}

  000e2	eb 3e		 jmp	 SHORT $LN65@SetString
$LN5@SetString:
; File C:\Program Files (x86)\Windows Kits\10\Include\10.0.26100.0\ucrt\corecrt_memcpy_s.h

; 52   :         _CRT_MEMCPY_S_VALIDATE_RETURN_ERRCODE(_Destination != NULL, EINVAL);

  000e4	85 c0		 test	 eax, eax
  000e6	75 0d		 jne	 SHORT $LN61@SetString
  000e8	e8 00 00 00 00	 call	 __errno
  000ed	c7 00 16 00 00
	00		 mov	 DWORD PTR [eax], 22	; 00000016H
  000f3	eb 28		 jmp	 SHORT $LN97@SetString
$LN61@SetString:

; 53   :         if (_Source == NULL || _DestinationSize < _SourceSize)

  000f5	3b ce		 cmp	 ecx, esi
  000f7	72 0d		 jb	 SHORT $LN63@SetString

; 56   : 
; 57   :             _CRT_MEMCPY_S_VALIDATE_RETURN_ERRCODE(_Source != NULL,                 EINVAL);
; 58   :             _CRT_MEMCPY_S_VALIDATE_RETURN_ERRCODE(_DestinationSize >= _SourceSize, ERANGE);
; 59   : 
; 60   :             // Unreachable, but required to suppress /analyze warnings:
; 61   :             return EINVAL;
; 62   :         }
; 63   :         memcpy(_Destination, _Source, _SourceSize);

  000f9	56		 push	 esi
  000fa	53		 push	 ebx
  000fb	50		 push	 eax
  000fc	e8 00 00 00 00	 call	 _memcpy
  00101	83 c4 0c	 add	 esp, 12			; 0000000cH
  00104	eb 1c		 jmp	 SHORT $LN65@SetString
$LN63@SetString:

; 54   :         {
; 55   :             memset(_Destination, 0, _DestinationSize);

  00106	51		 push	 ecx
  00107	6a 00		 push	 0
  00109	50		 push	 eax
  0010a	e8 00 00 00 00	 call	 _memset
  0010f	83 c4 0c	 add	 esp, 12			; 0000000cH
$LN98@SetString:
; File C:\Program Files\Microsoft Visual Studio\2022\Professional\VC\Tools\MSVC\14.44.35207\atlmfc\include\atlsimpstr.h

; 875  : 		if( nLength < 0 || nLength > GetData()->nAllocLength)

  00112	e8 00 00 00 00	 call	 __errno
  00117	c7 00 22 00 00
	00		 mov	 DWORD PTR [eax], 34	; 00000022H
$LN97@SetString:
  0011d	e8 00 00 00 00	 call	 __invalid_parameter_noinfo
$LN65@SetString:
  00122	8b 07		 mov	 eax, DWORD PTR [edi]
  00124	5b		 pop	 ebx
  00125	3b 70 f8	 cmp	 esi, DWORD PTR [eax-8]
  00128	7f 0f		 jg	 SHORT $LN71@SetString

; 877  : 
; 878  : 		GetData()->nDataLength = nLength;

  0012a	89 70 f4	 mov	 DWORD PTR [eax-12], esi

; 879  : 		m_pszData[nLength] = 0;

  0012d	8b 07		 mov	 eax, DWORD PTR [edi]
  0012f	5f		 pop	 edi
  00130	c6 04 06 00	 mov	 BYTE PTR [esi+eax], 0

; 638  : 			else
; 639  : 			{
; 640  : 				memcpy_s( pszBuffer, GetAllocLength() * sizeof( XCHAR ), pszSrc, nLength * sizeof( XCHAR ));
; 641  : 			}
; 642  : 			ReleaseBufferSetLength( nLength );
; 643  : 		}
; 644  : 	}

  00134	5e		 pop	 esi
  00135	5d		 pop	 ebp
  00136	c2 08 00	 ret	 8
$LN71@SetString:

; 876  : 			AtlThrow(E_INVALIDARG);

  00139	68 57 00 07 80	 push	 -2147024809		; 80070057H
  0013e	e8 00 00 00 00	 call	 ?AtlThrowImpl@ATL@@YGXJ@Z ; ATL::AtlThrowImpl
$LN96@SetString:
  00143	cc		 int	 3
?SetString@?$CSimpleStringT@D$0A@@ATL@@QAEXPBDH@Z ENDP	; ATL::CSimpleStringT<char,0>::SetString
_TEXT	ENDS
; Function compile flags: /Ogtp
; File C:\Program Files\Microsoft Visual Studio\2022\Professional\VC\Tools\MSVC\14.44.35207\atlmfc\include\atlexcept.h
;	COMDAT ?AtlThrowImpl@ATL@@YGXJ@Z
_TEXT	SEGMENT
_hr$ = 8						; size = 4
?AtlThrowImpl@ATL@@YGXJ@Z PROC				; ATL::AtlThrowImpl, COMDAT

; 69   : {

  00000	55		 push	 ebp
  00001	8b ec		 mov	 ebp, esp

; 70   : 	ATLTRACE(atlTraceException, 0, _T("AtlThrow: hr = 0x%x\n"), hr );
; 71   : #ifdef _AFX
; 72   : 	if( hr == E_OUTOFMEMORY )

  00003	8b 45 08	 mov	 eax, DWORD PTR _hr$[ebp]
  00006	3d 0e 00 07 80	 cmp	 eax, -2147024882	; 8007000eH
  0000b	75 05		 jne	 SHORT $LN2@AtlThrowIm

; 73   : 	{
; 74   : 		AfxThrowMemoryException();

  0000d	e8 00 00 00 00	 call	 ?AfxThrowMemoryException@@YGXXZ ; AfxThrowMemoryException
$LN2@AtlThrowIm:

; 75   : 	}
; 76   : 	else
; 77   : 	{
; 78   : 		AfxThrowOleException( hr );

  00012	50		 push	 eax
  00013	e8 00 00 00 00	 call	 ?AfxThrowOleException@@YGXJ@Z ; AfxThrowOleException
$LN5@AtlThrowIm:
  00018	cc		 int	 3
?AtlThrowImpl@ATL@@YGXJ@Z ENDP				; ATL::AtlThrowImpl
_TEXT	ENDS
; Function compile flags: /Ogtp
; File C:\IAGOS\server\v18\Source\Source\_Common\ScriptHelper.cpp
;	COMDAT ?__empty_global_delete@@YAXPAXI@Z
_TEXT	SEGMENT
___formal$ = 8						; size = 4
___formal$ = 12						; size = 4
?__empty_global_delete@@YAXPAXI@Z PROC			; __empty_global_delete, COMDAT

  00000	c2 00 00	 ret	 0
?__empty_global_delete@@YAXPAXI@Z ENDP			; __empty_global_delete
_TEXT	ENDS
; Function compile flags: /Ogtp
; File C:\IAGOS\server\v18\Source\Source\_Common\ScriptHelper.cpp
;	COMDAT ?__empty_global_delete@@YAXPAX@Z
_TEXT	SEGMENT
___formal$ = 8						; size = 4
?__empty_global_delete@@YAXPAX@Z PROC			; __empty_global_delete, COMDAT

  00000	c2 00 00	 ret	 0
?__empty_global_delete@@YAXPAX@Z ENDP			; __empty_global_delete
_TEXT	ENDS
END
