; Listing generated by Microsoft (R) Optimizing Compiler Version 19.44.35225.0 

	TITLE	C:\IAGOS\server\v18\Source\Output\WorldServer\Release\scriptlib.obj
	.686P
	.XMM
	include listing.inc
	.model	flat

INCLUDELIB LIBCMT
INCLUDELIB OLDNAMES

PUBLIC	?g_functions@@3UFunctions@@A			; g_functions
_BSS	SEGMENT
?g_functions@@3UFunctions@@A DB 016cH DUP (?)		; g_functions
_BSS	ENDS
CONST	SEGMENT
?piecewise_construct@std@@3Upiecewise_construct_t@1@B	ORG $+1 ; std::piecewise_construct
CONST	ENDS
PUBLIC	??_H@YGXPAXIIP6EPAX0@Z@Z			; `vector constructor iterator'
PUBLIC	?__empty_global_delete@@YAXPAX@Z		; __empty_global_delete
PUBLIC	?__empty_global_delete@@YAXPAXI@Z		; __empty_global_delete
PUBLIC	___local_stdio_printf_options
PUBLIC	?AtlThrowImpl@ATL@@YGXJ@Z			; ATL::AtlThrowImpl
PUBLIC	??1?$CSimpleStringT@D$0A@@ATL@@QAE@XZ		; ATL::CSimpleStringT<char,0>::~CSimpleStringT<char,0>
PUBLIC	?SetString@?$CSimpleStringT@D$0A@@ATL@@QAEXPBDH@Z ; ATL::CSimpleStringT<char,0>::SetString
PUBLIC	?ThrowMemoryException@?$CSimpleStringT@D$0A@@ATL@@KAXXZ ; ATL::CSimpleStringT<char,0>::ThrowMemoryException
PUBLIC	?Fork@?$CSimpleStringT@D$0A@@ATL@@AAEXH@Z	; ATL::CSimpleStringT<char,0>::Fork
PUBLIC	?PrepareWrite2@?$CSimpleStringT@D$0A@@ATL@@AAEXH@Z ; ATL::CSimpleStringT<char,0>::PrepareWrite2
PUBLIC	?Reallocate@?$CSimpleStringT@D$0A@@ATL@@AAEXH@Z	; ATL::CSimpleStringT<char,0>::Reallocate
PUBLIC	??0?$CStringT@DV?$StrTraitMFC@DV?$ChTraitsCRT@D@ATL@@@@@ATL@@QAE@XZ ; ATL::CStringT<char,StrTraitMFC<char,ATL::ChTraitsCRT<char> > >::CStringT<char,StrTraitMFC<char,ATL::ChTraitsCRT<char> > >
PUBLIC	??1?$CStringT@DV?$StrTraitMFC@DV?$ChTraitsCRT@D@ATL@@@@@ATL@@QAE@XZ ; ATL::CStringT<char,StrTraitMFC<char,ATL::ChTraitsCRT<char> > >::~CStringT<char,StrTraitMFC<char,ATL::ChTraitsCRT<char> > >
PUBLIC	??4?$CStringT@DV?$StrTraitMFC@DV?$ChTraitsCRT@D@ATL@@@@@ATL@@QAEAAV01@ABV01@@Z ; ATL::CStringT<char,StrTraitMFC<char,ATL::ChTraitsCRT<char> > >::operator=
PUBLIC	?Format@?$CStringT@DV?$StrTraitMFC@DV?$ChTraitsCRT@D@ATL@@@@@ATL@@QAAXPBDZZ ; ATL::CStringT<char,StrTraitMFC<char,ATL::ChTraitsCRT<char> > >::Format
PUBLIC	?FormatV@?$CStringT@DV?$StrTraitMFC@DV?$ChTraitsCRT@D@ATL@@@@@ATL@@QAEXPBDPAD@Z ; ATL::CStringT<char,StrTraitMFC<char,ATL::ChTraitsCRT<char> > >::FormatV
PUBLIC	?LoadStringA@?$CStringT@DV?$StrTraitMFC@DV?$ChTraitsCRT@D@ATL@@@@@ATL@@QAEHI@Z ; ATL::CStringT<char,StrTraitMFC<char,ATL::ChTraitsCRT<char> > >::LoadStringA
PUBLIC	??0D3DXVECTOR3@@QAE@XZ				; D3DXVECTOR3::D3DXVECTOR3
PUBLIC	?GetAtId@?$CItemContainer@VCItemElem@@@@QAEPAVCItemElem@@K@Z ; CItemContainer<CItemElem>::GetAtId
PUBLIC	??0_GUILD_MEMBER_INFO@@QAE@XZ			; _GUILD_MEMBER_INFO::_GUILD_MEMBER_INFO
PUBLIC	?HasKey@@YAHPAUNPCDIALOG_INFO@@PBD@Z		; HasKey
PUBLIC	?SayName@@YGHPAUNPCDIALOG_INFO@@@Z		; SayName
PUBLIC	?Speak@@YGHPAUNPCDIALOG_INFO@@HPBD@Z		; Speak
PUBLIC	?SpeakName@@YGHPAUNPCDIALOG_INFO@@@Z		; SpeakName
PUBLIC	?GetVal@@YGHPAUNPCDIALOG_INFO@@@Z		; GetVal
PUBLIC	?GetSrcId@@YGHPAUNPCDIALOG_INFO@@@Z		; GetSrcId
PUBLIC	?GetDstId@@YGHPAUNPCDIALOG_INFO@@@Z		; GetDstId
PUBLIC	?NpcId@@YGHPAUNPCDIALOG_INFO@@@Z		; NpcId
PUBLIC	?PcId@@YGHPAUNPCDIALOG_INFO@@@Z			; PcId
PUBLIC	?GetGValue_@@YGHPAUNPCDIALOG_INFO@@@Z		; GetGValue_
PUBLIC	?SetGValue@@YGHPAUNPCDIALOG_INFO@@@Z		; SetGValue
PUBLIC	?AddGValue@@YGHPAUNPCDIALOG_INFO@@@Z		; AddGValue
PUBLIC	?AddKey@@YGHPAUNPCDIALOG_INFO@@PBD1K@Z		; AddKey
PUBLIC	?AddCondKey@@YGHPAUNPCDIALOG_INFO@@PBD1K@Z	; AddCondKey
PUBLIC	?AddAnswer@@YGHPAUNPCDIALOG_INFO@@PBD1K@Z	; AddAnswer
PUBLIC	?RemoveQuest@@YGHPAUNPCDIALOG_INFO@@H@Z		; RemoveQuest
PUBLIC	?RemoveAllKey@@YGHPAUNPCDIALOG_INFO@@@Z		; RemoveAllKey
PUBLIC	?SayQuest@@YGHPAUNPCDIALOG_INFO@@HH@Z		; SayQuest
PUBLIC	?BeginQuest@@YGHPAUNPCDIALOG_INFO@@H@Z		; BeginQuest
PUBLIC	?EndQuest@@YGHPAUNPCDIALOG_INFO@@H@Z		; EndQuest
PUBLIC	?AddQuestKey@@YGHPAUNPCDIALOG_INFO@@HPBD@Z	; AddQuestKey
PUBLIC	?CreateMover@@YGHPAUNPCDIALOG_INFO@@@Z		; CreateMover
PUBLIC	?CreateChar@@YGHPAUNPCDIALOG_INFO@@@Z		; CreateChar
PUBLIC	?RemoveMover@@YGHPAUNPCDIALOG_INFO@@@Z		; RemoveMover
PUBLIC	?GetDay@@YGHPAUNPCDIALOG_INFO@@@Z		; GetDay
PUBLIC	?GetMin@@YGHPAUNPCDIALOG_INFO@@@Z		; GetMin
PUBLIC	?GetHour@@YGHPAUNPCDIALOG_INFO@@@Z		; GetHour
PUBLIC	?SetTimer@@YGHPAUNPCDIALOG_INFO@@@Z		; SetTimer
PUBLIC	?IsTimeOut@@YGHPAUNPCDIALOG_INFO@@@Z		; IsTimeOut
PUBLIC	?LaunchQuest@@YGHPAUNPCDIALOG_INFO@@@Z		; LaunchQuest
PUBLIC	?GetEmptyInventoryNum@@YGHPAUNPCDIALOG_INFO@@@Z	; GetEmptyInventoryNum
PUBLIC	?GetQuestState@@YGHPAUNPCDIALOG_INFO@@H@Z	; GetQuestState
PUBLIC	?IsSetQuest@@YGHPAUNPCDIALOG_INFO@@H@Z		; IsSetQuest
PUBLIC	?SetMark@@YGHPAUNPCDIALOG_INFO@@@Z		; SetMark
PUBLIC	?GoMark@@YGHPAUNPCDIALOG_INFO@@@Z		; GoMark
PUBLIC	?RandomIndex@@YGHPAUNPCDIALOG_INFO@@@Z		; RandomIndex
PUBLIC	?RemoveKey@@YGHPAUNPCDIALOG_INFO@@PBD@Z		; RemoveKey
PUBLIC	?Say@@YGHPAUNPCDIALOG_INFO@@PBD@Z		; Say
PUBLIC	?EndSay@@YGHPAUNPCDIALOG_INFO@@@Z		; EndSay
PUBLIC	?Random@@YGHPAUNPCDIALOG_INFO@@H@Z		; Random
PUBLIC	?Exit@@YGHPAUNPCDIALOG_INFO@@@Z			; Exit
PUBLIC	?SetScriptTimer@@YGHPAUNPCDIALOG_INFO@@H@Z	; SetScriptTimer
PUBLIC	?Replace@@YGHPAUNPCDIALOG_INFO@@HMMM@Z		; Replace
PUBLIC	?ReplaceKey@@YGHPAUNPCDIALOG_INFO@@HPBD@Z	; ReplaceKey
PUBLIC	?GetPlayerLvl@@YGHPAUNPCDIALOG_INFO@@@Z		; GetPlayerLvl
PUBLIC	?GetPlayerJob@@YGHPAUNPCDIALOG_INFO@@@Z		; GetPlayerJob
PUBLIC	?IsGuildQuest@@YGHPAUNPCDIALOG_INFO@@H@Z	; IsGuildQuest
PUBLIC	?GetGuildQuestState@@YGHPAUNPCDIALOG_INFO@@H@Z	; GetGuildQuestState
PUBLIC	?IsWormonServer@@YGHPAUNPCDIALOG_INFO@@@Z	; IsWormonServer
PUBLIC	?PrintSystemMessage@@YGHPAUNPCDIALOG_INFO@@H@Z	; PrintSystemMessage
PUBLIC	?MonHuntStart@@YGHPAUNPCDIALOG_INFO@@HHHH@Z	; MonHuntStart
PUBLIC	?MonHuntStartParty@@YGHPAUNPCDIALOG_INFO@@HHHH@Z ; MonHuntStartParty
PUBLIC	?InitStat@@YGHPAUNPCDIALOG_INFO@@@Z		; InitStat
PUBLIC	?InitStr@@YGHPAUNPCDIALOG_INFO@@@Z		; InitStr
PUBLIC	?InitSta@@YGHPAUNPCDIALOG_INFO@@@Z		; InitSta
PUBLIC	?InitDex@@YGHPAUNPCDIALOG_INFO@@@Z		; InitDex
PUBLIC	?InitInt@@YGHPAUNPCDIALOG_INFO@@@Z		; InitInt
PUBLIC	?SetQuestState@@YGHPAUNPCDIALOG_INFO@@HH@Z	; SetQuestState
PUBLIC	?SetQuest@@YGHPAUNPCDIALOG_INFO@@H@Z		; SetQuest
PUBLIC	?CreateItem@@YGHPAUNPCDIALOG_INFO@@KH@Z		; CreateItem
PUBLIC	?AddGold@@YGHPAUNPCDIALOG_INFO@@H@Z		; AddGold
PUBLIC	?RemoveGold@@YGHPAUNPCDIALOG_INFO@@H@Z		; RemoveGold
PUBLIC	?GetPlayerGold@@YGHPAUNPCDIALOG_INFO@@@Z	; GetPlayerGold
PUBLIC	?GetLocalEventState@@YGHPAUNPCDIALOG_INFO@@H@Z	; GetLocalEventState
PUBLIC	?AddExp@@YGHPAUNPCDIALOG_INFO@@H@Z		; AddExp
PUBLIC	?IsParty@@YGHPAUNPCDIALOG_INFO@@@Z		; IsParty
PUBLIC	?IsPartyMaster@@YGHPAUNPCDIALOG_INFO@@@Z	; IsPartyMaster
PUBLIC	?GetPartyNum@@YGHPAUNPCDIALOG_INFO@@@Z		; GetPartyNum
PUBLIC	?GetPartyLevel@@YGHPAUNPCDIALOG_INFO@@@Z	; GetPartyLevel
PUBLIC	?IsPartyGuild@@YGHPAUNPCDIALOG_INFO@@@Z		; IsPartyGuild
PUBLIC	?IsGuild@@YGHPAUNPCDIALOG_INFO@@@Z		; IsGuild
PUBLIC	?IsGuildMaster@@YGHPAUNPCDIALOG_INFO@@@Z	; IsGuildMaster
PUBLIC	?CreateGuild@@YGHPAUNPCDIALOG_INFO@@@Z		; CreateGuild
PUBLIC	?DestroyGuild@@YGHPAUNPCDIALOG_INFO@@@Z		; DestroyGuild
PUBLIC	?IsPlayerSkillPoint@@YGHPAUNPCDIALOG_INFO@@@Z	; IsPlayerSkillPoint
PUBLIC	?ChangeJob@@YGHPAUNPCDIALOG_INFO@@H@Z		; ChangeJob
PUBLIC	?GetPlayerSex@@YGHPAUNPCDIALOG_INFO@@@Z		; GetPlayerSex
PUBLIC	?GetItemNum@@YGHPAUNPCDIALOG_INFO@@K@Z		; GetItemNum
PUBLIC	?RemoveAllItem@@YGHPAUNPCDIALOG_INFO@@K@Z	; RemoveAllItem
PUBLIC	?EquipItem@@YGHPAUNPCDIALOG_INFO@@K@Z		; EquipItem
PUBLIC	?PlaySoundA@@YGHPAUNPCDIALOG_INFO@@PBD@Z	; PlaySoundA
PUBLIC	?DropQuestItem@@YGHPAUNPCDIALOG_INFO@@KK@Z	; DropQuestItem
PUBLIC	?ExpQuestEffect@@YGHPAUNPCDIALOG_INFO@@KH@Z	; ExpQuestEffect
PUBLIC	?RemoveItem@@YGHPAUNPCDIALOG_INFO@@KH@Z		; RemoveItem
PUBLIC	?Run@@YGHPAUNPCDIALOG_INFO@@PBDH@Z		; Run
PUBLIC	?GetQuestId@@YGHPAUNPCDIALOG_INFO@@@Z		; GetQuestId
PUBLIC	?GetLang@@YGHPAUNPCDIALOG_INFO@@@Z		; GetLang
PUBLIC	?QuerySetPlayerName@@YGHPAUNPCDIALOG_INFO@@@Z	; QuerySetPlayerName
PUBLIC	?Trace@@YGHPAUNPCDIALOG_INFO@@PBD@Z		; Trace
PUBLIC	?GetPlayerExpPercent@@YGHPAUNPCDIALOG_INFO@@@Z	; GetPlayerExpPercent
PUBLIC	?SetLevel@@YGHPAUNPCDIALOG_INFO@@H@Z		; SetLevel
PUBLIC	?AddGPPoint@@YGHPAUNPCDIALOG_INFO@@H@Z		; AddGPPoint
PUBLIC	?GetDialogFunctions@@YAPAUFunctions@@XZ		; GetDialogFunctions
PUBLIC	?InitDialogFunctions@@YAXXZ			; InitDialogFunctions
PUBLIC	?_OptionsStorage@?1??__local_stdio_printf_options@@9@4_KA ; `__local_stdio_printf_options'::`2'::_OptionsStorage
PUBLIC	??_C@_00CNPNBAHC@@				; `string'
PUBLIC	??_C@_0BM@HMFGHCP@?$CFs?5min?3?$CFd?0?5max?3?$CFd?0?5index?3?$CFd@ ; `string'
PUBLIC	??_C@_0BI@BEIFNGEL@GetItemProp?5range_error@	; `string'
PUBLIC	??_C@_0BE@OHDBLHOM@GetText?5range_error@	; `string'
PUBLIC	??_C@_05KKCIMGE@error@				; `string'
PUBLIC	??_C@_0BA@MDIEKFBJ@key?5error?5?$CFs?5?$CFs@	; `string'
PUBLIC	??_C@_0BK@FOCLNIMB@key?5error?5AddAnswer?5?$CFs?5?$CFs@ ; `string'
PUBLIC	??_C@_0BM@FLHIHMMM@key?5error?5AddQuestKey?5?$CFs?5?$CFs@ ; `string'
PUBLIC	??_C@_0BE@JGJACHAB@Error?5ChangeJob?5?3?51@	; `string'
PUBLIC	??_C@_0BE@LNLNHEMC@Error?5ChangeJob?5?3?52@	; `string'
PUBLIC	??_C@_0BE@KEKGEFID@Error?5ChangeJob?5?3?53@	; `string'
PUBLIC	??_C@_0CH@NIAJEEOE@Error?5ChangeJob?5?3?5CMover?3?3AddCh@ ; `string'
PUBLIC	??_C@_01BNIGIBBF@Q@				; `string'
PUBLIC	??_C@_05GFPLGFAD@QUEST@				; `string'
PUBLIC	??_C@_0BE@ICMDEENE@EquipItem?5SetIndex?6@	; `string'
PUBLIC	??_C@_04OEDFLLKD@?$CC?$CFs?$CC@			; `string'
PUBLIC	??_C@_0BI@KEOMPJDK@DropQuestItem?5SetIndex?6@	; `string'
PUBLIC	??_C@_0BM@IKAGMOLM@DropQuestItem?0?5?$CFd?5null?5prop@ ; `string'
PUBLIC	__real@3f800000
PUBLIC	__real@40400000
PUBLIC	__xmm@00000000000000000000006400000064
PUBLIC	__xmm@41f00000000000000000000000000000
EXTRN	??2@YAPAXI@Z:PROC				; operator new
EXTRN	??3@YAXPAXI@Z:PROC				; operator delete
EXTRN	__invalid_parameter_noinfo:PROC
EXTRN	__errno:PROC
EXTRN	__imp__LoadResource@8:PROC
EXTRN	__imp__LockResource@4:PROC
EXTRN	__imp__SizeofResource@8:PROC
EXTRN	__imp__FindResourceW@12:PROC
EXTRN	__imp__lstrcpyA@8:PROC
EXTRN	__imp__WideCharToMultiByte@32:PROC
EXTRN	___stdio_common_vsprintf:PROC
EXTRN	___stdio_common_vsprintf_s:PROC
EXTRN	_rand:PROC
EXTRN	__time64:PROC
EXTRN	?AfxThrowMemoryException@@YGXXZ:PROC		; AfxThrowMemoryException
EXTRN	?AfxThrowOleException@@YGXJ@Z:PROC		; AfxThrowOleException
EXTRN	?AfxFindStringResourceHandle@@YGPAUHINSTANCE__@@I@Z:PROC ; AfxFindStringResourceHandle
EXTRN	?AfxGetStringManager@@YGPAUIAtlStringMgr@ATL@@XZ:PROC ; AfxGetStringManager
EXTRN	__imp__timeGetTime@0:PROC
EXTRN	?xRandomF@@YAMM@Z:PROC				; xRandomF
EXTRN	?Error@@YAPBDPBDZZ:PROC				; Error
EXTRN	?GetLanguage@@YAHXZ:PROC			; GetLanguage
EXTRN	?UpdateLocalMatrix@CObj@@QAEXXZ:PROC		; CObj::UpdateLocalMatrix
EXTRN	?SetPos@CObj@@QAEXABUD3DXVECTOR3@@@Z:PROC	; CObj::SetPos
EXTRN	?SetAngle@CObj@@QAEXM@Z:PROC			; CObj::SetAngle
EXTRN	?SetGuildQuest@CGuildQuestProcessor@@QAEXHHHHKK@Z:PROC ; CGuildQuestProcessor::SetGuildQuest
EXTRN	?IsQuesting@CGuildQuestProcessor@@QAEHH@Z:PROC	; CGuildQuestProcessor::IsQuesting
EXTRN	?GetInstance@CGuildQuestProcessor@@SAPAV1@XZ:PROC ; CGuildQuestProcessor::GetInstance
EXTRN	?SetPartyQuest@CPartyQuestProcessor@@QAEXHHHHKK@Z:PROC ; CPartyQuestProcessor::SetPartyQuest
EXTRN	?IsQuesting@CPartyQuestProcessor@@QAEHH@Z:PROC	; CPartyQuestProcessor::IsQuesting
EXTRN	?GetInstance@CPartyQuestProcessor@@SAPAV1@XZ:PROC ; CPartyQuestProcessor::GetInstance
EXTRN	?GetGuildQuestProp@CProject@@QAEPAUGUILDQUESTPROP@@H@Z:PROC ; CProject::GetGuildQuestProp
EXTRN	?GetPartyQuestProp@CProject@@QAEPAUPARTYQUESTPROP@@H@Z:PROC ; CProject::GetPartyQuestProp
EXTRN	?GetCtrl@CProject@@QAEPAVCCtrl@@K@Z:PROC	; CProject::GetCtrl
EXTRN	?GetMover@CProject@@QAEPAVCMover@@K@Z:PROC	; CProject::GetMover
EXTRN	?GetUser@CProject@@QAEPAVCUser@@K@Z:PROC	; CProject::GetUser
EXTRN	??0CItemElem@@QAE@XZ:PROC			; CItemElem::CItemElem
EXTRN	??1CItemElem@@UAE@XZ:PROC			; CItemElem::~CItemElem
EXTRN	??0CItem@@QAE@XZ:PROC				; CItem::CItem
EXTRN	?RunDialog@CNpcProperty@@QAEHPBDPAHHHHH@Z:PROC	; CNpcProperty::RunDialog
EXTRN	?DoEquip@CMover@@QAEHPAVCItemElem@@HH@Z:PROC	; CMover::DoEquip
EXTRN	?GetQuest@CMover@@QAEPAUtagQuest@@H@Z:PROC	; CMover::GetQuest
EXTRN	?IsCompleteQuest@CMover@@QAEHH@Z:PROC		; CMover::IsCompleteQuest
EXTRN	?MakeCompleteQuest@CMover@@QAEHHPAUtagQuest@@@Z:PROC ; CMover::MakeCompleteQuest
EXTRN	?GetAdjParam@CMover@@QAEHH@Z:PROC		; CMover::GetAdjParam
EXTRN	?GetName@CMover@@QAEPBDH@Z:PROC			; CMover::GetName
EXTRN	?IsBaseJob@CMover@@QAEHXZ:PROC			; CMover::IsBaseJob
EXTRN	?IsExpert@CMover@@QAEHXZ:PROC			; CMover::IsExpert
EXTRN	?IsPro@CMover@@QAEHXZ:PROC			; CMover::IsPro
EXTRN	?AddChangeJob@CMover@@QAEHH@Z:PROC		; CMover::AddChangeJob
EXTRN	?GetJob@CMover@@QAEHXZ:PROC			; CMover::GetJob
EXTRN	?GetExpPercent@CMover@@QAEHXZ:PROC		; CMover::GetExpPercent
EXTRN	?SetLevel@CMover@@QAEHH@Z:PROC			; CMover::SetLevel
EXTRN	?AddGPPoint@CMover@@QAEHH@Z:PROC		; CMover::AddGPPoint
EXTRN	?AddExperience@CMover@@QAEH_JHHH@Z:PROC		; CMover::AddExperience
EXTRN	?GetItemNum@CMover@@QAEHK@Z:PROC		; CMover::GetItemNum
EXTRN	?RemoveAllItem@CMover@@QAEHK@Z:PROC		; CMover::RemoveAllItem
EXTRN	?GetGuild@CMover@@QAEPAVCGuild@@XZ:PROC		; CMover::GetGuild
EXTRN	?CreateItem@CMover@@QAEHPAVCItemBase@@PAEPAFE@Z:PROC ; CMover::CreateItem
EXTRN	?RemoveItemA@CMover@@QAEHKF@Z:PROC		; CMover::RemoveItemA
EXTRN	?Replace@CMover@@QAEHKKAAUD3DXVECTOR3@@W4REPLACE_TYPE@@H@Z:PROC ; CMover::Replace
EXTRN	?AddObj@CWorld@@QAEHPAVCObj@@HH@Z:PROC		; CWorld::AddObj
EXTRN	?CreateObj@@YAPAVCObj@@PAUIDirect3DDevice9@@KKH@Z:PROC ; CreateObj
EXTRN	?GetState@CFlyffEvent@@QAEEH@Z:PROC		; CFlyffEvent::GetState
EXTRN	?Replace@CParty@@QAEXKPBD@Z:PROC		; CParty::Replace
EXTRN	?ReplaceChkLv@CParty@@QAEHH@Z:PROC		; CParty::ReplaceChkLv
EXTRN	?FindMember@CParty@@QAEHK@Z:PROC		; CParty::FindMember
EXTRN	?GetParty@CPartyMng@@QAEPAVCParty@@K@Z:PROC	; CPartyMng::GetParty
EXTRN	?GetMember@CGuild@@QAEPAVCGuildMember@@K@Z:PROC	; CGuild::GetMember
EXTRN	?FindQuest@CGuild@@QAEPAU_GUILDQUEST@@H@Z:PROC	; CGuild::FindQuest
EXTRN	?SetQuest@CGuild@@QAEXHH@Z:PROC			; CGuild::SetQuest
EXTRN	?Replace@CGuild@@QAEXKAAUD3DXVECTOR3@@H@Z:PROC	; CGuild::Replace
EXTRN	?GetGuild@CGuildMng@@QAEPAVCGuild@@K@Z:PROC	; CGuildMng::GetGuild
EXTRN	?LevelUpSetting@CUser@@QAEXXZ:PROC		; CUser::LevelUpSetting
EXTRN	?ExpUpSetting@CUser@@QAEXXZ:PROC		; CUser::ExpUpSetting
EXTRN	?AddDiagText@CUser@@QAEXPBD@Z:PROC		; CUser::AddDiagText
EXTRN	?AddDefinedText@CUser@@QAAXHPBDZZ:PROC		; CUser::AddDefinedText
EXTRN	?AddDefinedText@CUser@@QAEXH@Z:PROC		; CUser::AddDefinedText
EXTRN	?AddSetChangeJob@CUser@@QAEXH@Z:PROC		; CUser::AddSetChangeJob
EXTRN	?AddPlaySound2@CUser@@QAEXPBD@Z:PROC		; CUser::AddPlaySound2
EXTRN	?AddRunScriptFunc@CUser@@QAEXABU_runscriptfunc@@@Z:PROC ; CUser::AddRunScriptFunc
EXTRN	?AddSetExperience@CUser@@QAEX_JGHH0G@Z:PROC	; CUser::AddSetExperience
EXTRN	?GetUserByPlayerID@CUserMng@@QAEPAVCUser@@K@Z:PROC ; CUserMng::GetUserByPlayerID
EXTRN	?AddChat@CUserMng@@QAEXPAVCCtrl@@PBD@Z:PROC	; CUserMng::AddChat
EXTRN	?AddDoEquip@CUserMng@@QAEXPAVCMover@@HPAVCItemElem@@E@Z:PROC ; CUserMng::AddDoEquip
EXTRN	?AddCreateSfxObj@CUserMng@@QAEXPAVCCtrl@@KMMMH@Z:PROC ; CUserMng::AddCreateSfxObj
EXTRN	?AddNearSetChangeJob@CUserMng@@QAEXPAVCMover@@HPAUtagSkill@@@Z:PROC ; CUserMng::AddNearSetChangeJob
EXTRN	?GetWorld@CWorldMng@@QAEPAVCWorld@@K@Z:PROC	; CWorldMng::GetWorld
EXTRN	?GetRevivalPos@CWorldMng@@QAEPAUREGIONELEM@@KPBD@Z:PROC ; CWorldMng::GetRevivalPos
EXTRN	?SendCreateGuild@CDPCoreClient@@QAEXPAU_GUILD_MEMBER_INFO@@HPBD@Z:PROC ; CDPCoreClient::SendCreateGuild
EXTRN	?SendRecommend@CDPDatabaseClient@@QAEXPAVCUser@@H@Z:PROC ; CDPDatabaseClient::SendRecommend
EXTRN	?SendLogLevelUp@CDPDatabaseClient@@QAEXPAVCMover@@H@Z:PROC ; CDPDatabaseClient::SendLogLevelUp
EXTRN	?SendLogSchool@CDPDatabaseClient@@QAEXKPBD@Z:PROC ; CDPDatabaseClient::SendLogSchool
EXTRN	?SendInsertGuildQuest@CDPDatabaseClient@@QAEXKH@Z:PROC ; CDPDatabaseClient::SendInsertGuildQuest
EXTRN	?SendUpdateGuildQuest@CDPDatabaseClient@@QAEXKHH@Z:PROC ; CDPDatabaseClient::SendUpdateGuildQuest
EXTRN	?SendUpdatePlayerData@CDPDatabaseClient@@QAEXPAVCUser@@@Z:PROC ; CDPDatabaseClient::SendUpdatePlayerData
EXTRN	?OnLogItem@CDPSrvr@@QAEXAAU_LogItemInfo@@PAVCItemElem@@H@Z:PROC ; CDPSrvr::OnLogItem
EXTRN	?InitPredefineKey@@YAXXZ:PROC			; InitPredefineKey
EXTRN	?__AddKey@@YAHHPBD0K@Z:PROC			; __AddKey
EXTRN	?__AddAnswer@@YAHHPBD0KH@Z:PROC			; __AddAnswer
EXTRN	?__RemoveQuest@@YAHHH@Z:PROC			; __RemoveQuest
EXTRN	?__RemoveAllKey@@YAHH@Z:PROC			; __RemoveAllKey
EXTRN	?__SayQuest@@YAHHHH@Z:PROC			; __SayQuest
EXTRN	?__RunQuest@@YAHHHH@Z:PROC			; __RunQuest
EXTRN	?__EndQuest@@YAHHHH@Z:PROC			; __EndQuest
EXTRN	?__AddQuestKey@@YAHHHPBDHH@Z:PROC		; __AddQuestKey
EXTRN	?__QuestEnd@@YAXHHAAHHH@Z:PROC			; __QuestEnd
EXTRN	?__SetQuestState@@YAHKHH@Z:PROC			; __SetQuestState
EXTRN	?__SetQuest@@YAXKH@Z:PROC			; __SetQuest
EXTRN	?__CreateItem@@YAXKHHHE@Z:PROC			; __CreateItem
EXTRN	?__AddGold@@YAXKH@Z:PROC			; __AddGold
EXTRN	?__RemoveGold@@YAXKH@Z:PROC			; __RemoveGold
EXTRN	?Find@CWorldDialog@@QAEHPBD0@Z:PROC		; CWorldDialog::Find
EXTRN	?GetInstance@CWorldDialog@@SAAAV1@XZ:PROC	; CWorldDialog::GetInstance
EXTRN	@__security_check_cookie@4:PROC
EXTRN	___CxxFrameHandler3:PROC
EXTRN	_memcpy:PROC
EXTRN	_memmove:PROC
EXTRN	_memset:PROC
EXTRN	?g_next@@3KA:DWORD				; g_next
EXTRN	?prj@@3VCProject@@A:BYTE			; prj
EXTRN	?g_uIdofMulti@@3KA:DWORD			; g_uIdofMulti
EXTRN	?g_GameTimer@@3VCGameTimer@@A:BYTE		; g_GameTimer
EXTRN	?g_eLocal@@3VCFlyffEvent@@A:BYTE		; g_eLocal
EXTRN	?g_PartyMng@@3VCPartyMng@@A:BYTE		; g_PartyMng
EXTRN	?g_WorldMng@@3VCWorldMng@@A:BYTE		; g_WorldMng
EXTRN	?g_DPCoreClient@@3VCDPCoreClient@@A:BYTE	; g_DPCoreClient
EXTRN	?g_dpDBClient@@3VCDPDatabaseClient@@A:BYTE	; g_dpDBClient
EXTRN	?g_DPSrvr@@3VCDPSrvr@@A:BYTE			; g_DPSrvr
EXTRN	?g_GuildMng@@3VCGuildMng@@A:BYTE		; g_GuildMng
EXTRN	?g_UserMng@@3VCUserMng@@A:BYTE			; g_UserMng
EXTRN	___security_cookie:DWORD
EXTRN	__fltused:DWORD
;	COMDAT ?_OptionsStorage@?1??__local_stdio_printf_options@@9@4_KA
_BSS	SEGMENT
?_OptionsStorage@?1??__local_stdio_printf_options@@9@4_KA DQ 01H DUP (?) ; `__local_stdio_printf_options'::`2'::_OptionsStorage
_BSS	ENDS
;	COMDAT __xmm@41f00000000000000000000000000000
CONST	SEGMENT
__xmm@41f00000000000000000000000000000 DB 00H, 00H, 00H, 00H, 00H, 00H, 00H
	DB	00H, 00H, 00H, 00H, 00H, 00H, 00H, 0f0H, 'A'
CONST	ENDS
;	COMDAT __xmm@00000000000000000000006400000064
CONST	SEGMENT
__xmm@00000000000000000000006400000064 DB 'd', 00H, 00H, 00H, 'd', 00H, 00H
	DB	00H, 00H, 00H, 00H, 00H, 00H, 00H, 00H, 00H
CONST	ENDS
;	COMDAT __real@40400000
CONST	SEGMENT
__real@40400000 DD 040400000r			; 3
CONST	ENDS
;	COMDAT __real@3f800000
CONST	SEGMENT
__real@3f800000 DD 03f800000r			; 1
CONST	ENDS
;	COMDAT ??_C@_0BM@IKAGMOLM@DropQuestItem?0?5?$CFd?5null?5prop@
CONST	SEGMENT
??_C@_0BM@IKAGMOLM@DropQuestItem?0?5?$CFd?5null?5prop@ DB 'DropQuestItem,'
	DB	' %d null prop', 00H				; `string'
CONST	ENDS
;	COMDAT ??_C@_0BI@KEOMPJDK@DropQuestItem?5SetIndex?6@
CONST	SEGMENT
??_C@_0BI@KEOMPJDK@DropQuestItem?5SetIndex?6@ DB 'DropQuestItem SetIndex', 0aH
	DB	00H						; `string'
CONST	ENDS
;	COMDAT ??_C@_04OEDFLLKD@?$CC?$CFs?$CC@
CONST	SEGMENT
??_C@_04OEDFLLKD@?$CC?$CFs?$CC@ DB '"%s"', 00H		; `string'
CONST	ENDS
;	COMDAT ??_C@_0BE@ICMDEENE@EquipItem?5SetIndex?6@
CONST	SEGMENT
??_C@_0BE@ICMDEENE@EquipItem?5SetIndex?6@ DB 'EquipItem SetIndex', 0aH, 00H ; `string'
CONST	ENDS
;	COMDAT ??_C@_05GFPLGFAD@QUEST@
CONST	SEGMENT
??_C@_05GFPLGFAD@QUEST@ DB 'QUEST', 00H			; `string'
CONST	ENDS
;	COMDAT ??_C@_01BNIGIBBF@Q@
CONST	SEGMENT
??_C@_01BNIGIBBF@Q@ DB 'Q', 00H				; `string'
CONST	ENDS
;	COMDAT ??_C@_0CH@NIAJEEOE@Error?5ChangeJob?5?3?5CMover?3?3AddCh@
CONST	SEGMENT
??_C@_0CH@NIAJEEOE@Error?5ChangeJob?5?3?5CMover?3?3AddCh@ DB 'Error Chang'
	DB	'eJob : CMover::AddChangeJob', 00H		; `string'
CONST	ENDS
;	COMDAT ??_C@_0BE@KEKGEFID@Error?5ChangeJob?5?3?53@
CONST	SEGMENT
??_C@_0BE@KEKGEFID@Error?5ChangeJob?5?3?53@ DB 'Error ChangeJob : 3', 00H ; `string'
CONST	ENDS
;	COMDAT ??_C@_0BE@LNLNHEMC@Error?5ChangeJob?5?3?52@
CONST	SEGMENT
??_C@_0BE@LNLNHEMC@Error?5ChangeJob?5?3?52@ DB 'Error ChangeJob : 2', 00H ; `string'
CONST	ENDS
;	COMDAT ??_C@_0BE@JGJACHAB@Error?5ChangeJob?5?3?51@
CONST	SEGMENT
??_C@_0BE@JGJACHAB@Error?5ChangeJob?5?3?51@ DB 'Error ChangeJob : 1', 00H ; `string'
CONST	ENDS
;	COMDAT ??_C@_0BM@FLHIHMMM@key?5error?5AddQuestKey?5?$CFs?5?$CFs@
CONST	SEGMENT
??_C@_0BM@FLHIHMMM@key?5error?5AddQuestKey?5?$CFs?5?$CFs@ DB 'key error A'
	DB	'ddQuestKey %s %s', 00H			; `string'
CONST	ENDS
;	COMDAT ??_C@_0BK@FOCLNIMB@key?5error?5AddAnswer?5?$CFs?5?$CFs@
CONST	SEGMENT
??_C@_0BK@FOCLNIMB@key?5error?5AddAnswer?5?$CFs?5?$CFs@ DB 'key error Add'
	DB	'Answer %s %s', 00H				; `string'
CONST	ENDS
;	COMDAT ??_C@_0BA@MDIEKFBJ@key?5error?5?$CFs?5?$CFs@
CONST	SEGMENT
??_C@_0BA@MDIEKFBJ@key?5error?5?$CFs?5?$CFs@ DB 'key error %s %s', 00H ; `string'
CONST	ENDS
;	COMDAT ??_C@_05KKCIMGE@error@
CONST	SEGMENT
??_C@_05KKCIMGE@error@ DB 'error', 00H			; `string'
CONST	ENDS
;	COMDAT ??_C@_0BE@OHDBLHOM@GetText?5range_error@
CONST	SEGMENT
??_C@_0BE@OHDBLHOM@GetText?5range_error@ DB 'GetText range_error', 00H ; `string'
CONST	ENDS
;	COMDAT ??_C@_0BI@BEIFNGEL@GetItemProp?5range_error@
CONST	SEGMENT
??_C@_0BI@BEIFNGEL@GetItemProp?5range_error@ DB 'GetItemProp range_error', 00H ; `string'
CONST	ENDS
;	COMDAT ??_C@_0BM@HMFGHCP@?$CFs?5min?3?$CFd?0?5max?3?$CFd?0?5index?3?$CFd@
CONST	SEGMENT
??_C@_0BM@HMFGHCP@?$CFs?5min?3?$CFd?0?5max?3?$CFd?0?5index?3?$CFd@ DB '%s'
	DB	' min:%d, max:%d, index:%d', 00H		; `string'
CONST	ENDS
;	COMDAT ??_C@_00CNPNBAHC@@
CONST	SEGMENT
??_C@_00CNPNBAHC@@ DB 00H				; `string'
CONST	ENDS
;	COMDAT xdata$x
xdata$x	SEGMENT
__unwindtable$?Run@@YGHPAUNPCDIALOG_INFO@@PBDH@Z DD 0ffffffffH
	DD	FLAT:__unwindfunclet$?Run@@YGHPAUNPCDIALOG_INFO@@PBDH@Z$1
	DD	0ffffffffH
	DD	FLAT:__unwindfunclet$?Run@@YGHPAUNPCDIALOG_INFO@@PBDH@Z$0
__ehfuncinfo$?Run@@YGHPAUNPCDIALOG_INFO@@PBDH@Z DD 019930522H
	DD	02H
	DD	FLAT:__unwindtable$?Run@@YGHPAUNPCDIALOG_INFO@@PBDH@Z
	DD	2 DUP(00H)
	DD	2 DUP(00H)
	DD	00H
	DD	01H
xdata$x	ENDS
;	COMDAT xdata$x
xdata$x	SEGMENT
__unwindtable$?DropQuestItem@@YGHPAUNPCDIALOG_INFO@@KK@Z DD 0ffffffffH
	DD	FLAT:__unwindfunclet$?DropQuestItem@@YGHPAUNPCDIALOG_INFO@@KK@Z$0
	DD	0ffffffffH
	DD	FLAT:__unwindfunclet$?DropQuestItem@@YGHPAUNPCDIALOG_INFO@@KK@Z$1
__ehfuncinfo$?DropQuestItem@@YGHPAUNPCDIALOG_INFO@@KK@Z DD 019930522H
	DD	02H
	DD	FLAT:__unwindtable$?DropQuestItem@@YGHPAUNPCDIALOG_INFO@@KK@Z
	DD	2 DUP(00H)
	DD	2 DUP(00H)
	DD	00H
	DD	01H
xdata$x	ENDS
;	COMDAT xdata$x
xdata$x	SEGMENT
__unwindtable$?EquipItem@@YGHPAUNPCDIALOG_INFO@@K@Z DD 0ffffffffH
	DD	FLAT:__unwindfunclet$?EquipItem@@YGHPAUNPCDIALOG_INFO@@K@Z$0
	DD	00H
	DD	FLAT:__unwindfunclet$?EquipItem@@YGHPAUNPCDIALOG_INFO@@K@Z$1
	DD	00H
	DD	FLAT:__unwindfunclet$?EquipItem@@YGHPAUNPCDIALOG_INFO@@K@Z$2
__ehfuncinfo$?EquipItem@@YGHPAUNPCDIALOG_INFO@@K@Z DD 019930522H
	DD	03H
	DD	FLAT:__unwindtable$?EquipItem@@YGHPAUNPCDIALOG_INFO@@K@Z
	DD	2 DUP(00H)
	DD	2 DUP(00H)
	DD	00H
	DD	01H
xdata$x	ENDS
;	COMDAT xdata$x
xdata$x	SEGMENT
__unwindtable$?MonHuntStartParty@@YGHPAUNPCDIALOG_INFO@@HHHH@Z DD 0ffffffffH
	DD	FLAT:__unwindfunclet$?MonHuntStartParty@@YGHPAUNPCDIALOG_INFO@@HHHH@Z$0
__ehfuncinfo$?MonHuntStartParty@@YGHPAUNPCDIALOG_INFO@@HHHH@Z DD 019930522H
	DD	01H
	DD	FLAT:__unwindtable$?MonHuntStartParty@@YGHPAUNPCDIALOG_INFO@@HHHH@Z
	DD	2 DUP(00H)
	DD	2 DUP(00H)
	DD	00H
	DD	01H
xdata$x	ENDS
;	COMDAT xdata$x
xdata$x	SEGMENT
__unwindtable$?AddQuestKey@@YGHPAUNPCDIALOG_INFO@@HPBD@Z DD 0ffffffffH
	DD	FLAT:__unwindfunclet$?AddQuestKey@@YGHPAUNPCDIALOG_INFO@@HPBD@Z$1
	DD	0ffffffffH
	DD	FLAT:__unwindfunclet$?AddQuestKey@@YGHPAUNPCDIALOG_INFO@@HPBD@Z$0
__ehfuncinfo$?AddQuestKey@@YGHPAUNPCDIALOG_INFO@@HPBD@Z DD 019930522H
	DD	02H
	DD	FLAT:__unwindtable$?AddQuestKey@@YGHPAUNPCDIALOG_INFO@@HPBD@Z
	DD	2 DUP(00H)
	DD	2 DUP(00H)
	DD	00H
	DD	01H
xdata$x	ENDS
;	COMDAT xdata$x
xdata$x	SEGMENT
__unwindtable$?AddAnswer@@YGHPAUNPCDIALOG_INFO@@PBD1K@Z DD 0ffffffffH
	DD	FLAT:__unwindfunclet$?AddAnswer@@YGHPAUNPCDIALOG_INFO@@PBD1K@Z$0
	DD	00H
	DD	FLAT:__unwindfunclet$?AddAnswer@@YGHPAUNPCDIALOG_INFO@@PBD1K@Z$1
__ehfuncinfo$?AddAnswer@@YGHPAUNPCDIALOG_INFO@@PBD1K@Z DD 019930522H
	DD	02H
	DD	FLAT:__unwindtable$?AddAnswer@@YGHPAUNPCDIALOG_INFO@@PBD1K@Z
	DD	2 DUP(00H)
	DD	2 DUP(00H)
	DD	00H
	DD	01H
xdata$x	ENDS
;	COMDAT xdata$x
xdata$x	SEGMENT
__unwindtable$?AddCondKey@@YGHPAUNPCDIALOG_INFO@@PBD1K@Z DD 0ffffffffH
	DD	FLAT:__unwindfunclet$?AddCondKey@@YGHPAUNPCDIALOG_INFO@@PBD1K@Z$0
	DD	00H
	DD	FLAT:__unwindfunclet$?AddCondKey@@YGHPAUNPCDIALOG_INFO@@PBD1K@Z$1
__ehfuncinfo$?AddCondKey@@YGHPAUNPCDIALOG_INFO@@PBD1K@Z DD 019930522H
	DD	02H
	DD	FLAT:__unwindtable$?AddCondKey@@YGHPAUNPCDIALOG_INFO@@PBD1K@Z
	DD	2 DUP(00H)
	DD	2 DUP(00H)
	DD	00H
	DD	01H
xdata$x	ENDS
;	COMDAT xdata$x
xdata$x	SEGMENT
__unwindtable$?AddKey@@YGHPAUNPCDIALOG_INFO@@PBD1K@Z DD 0ffffffffH
	DD	FLAT:__unwindfunclet$?AddKey@@YGHPAUNPCDIALOG_INFO@@PBD1K@Z$0
	DD	00H
	DD	FLAT:__unwindfunclet$?AddKey@@YGHPAUNPCDIALOG_INFO@@PBD1K@Z$1
__ehfuncinfo$?AddKey@@YGHPAUNPCDIALOG_INFO@@PBD1K@Z DD 019930522H
	DD	02H
	DD	FLAT:__unwindtable$?AddKey@@YGHPAUNPCDIALOG_INFO@@PBD1K@Z
	DD	2 DUP(00H)
	DD	2 DUP(00H)
	DD	00H
	DD	01H
xdata$x	ENDS
;	COMDAT xdata$x
xdata$x	SEGMENT
__unwindtable$?FormatV@?$CStringT@DV?$StrTraitMFC@DV?$ChTraitsCRT@D@ATL@@@@@ATL@@QAEXPBDPAD@Z DD 0ffffffffH
	DD	FLAT:__unwindfunclet$?FormatV@?$CStringT@DV?$StrTraitMFC@DV?$ChTraitsCRT@D@ATL@@@@@ATL@@QAEXPBDPAD@Z$1
	DD	0ffffffffH
	DD	FLAT:__unwindfunclet$?FormatV@?$CStringT@DV?$StrTraitMFC@DV?$ChTraitsCRT@D@ATL@@@@@ATL@@QAEXPBDPAD@Z$0
__ehfuncinfo$?FormatV@?$CStringT@DV?$StrTraitMFC@DV?$ChTraitsCRT@D@ATL@@@@@ATL@@QAEXPBDPAD@Z DD 019930522H
	DD	02H
	DD	FLAT:__unwindtable$?FormatV@?$CStringT@DV?$StrTraitMFC@DV?$ChTraitsCRT@D@ATL@@@@@ATL@@QAEXPBDPAD@Z
	DD	2 DUP(00H)
	DD	2 DUP(00H)
	DD	00H
	DD	01H
xdata$x	ENDS
;	COMDAT xdata$x
xdata$x	SEGMENT
__unwindtable$??0?$CStringT@DV?$StrTraitMFC@DV?$ChTraitsCRT@D@ATL@@@@@ATL@@QAE@PBDPAUIAtlStringMgr@1@@Z DD 0ffffffffH
	DD	FLAT:__unwindfunclet$??0?$CStringT@DV?$StrTraitMFC@DV?$ChTraitsCRT@D@ATL@@@@@ATL@@QAE@PBDPAUIAtlStringMgr@1@@Z$0
__ehfuncinfo$??0?$CStringT@DV?$StrTraitMFC@DV?$ChTraitsCRT@D@ATL@@@@@ATL@@QAE@PBDPAUIAtlStringMgr@1@@Z DD 019930522H
	DD	01H
	DD	FLAT:__unwindtable$??0?$CStringT@DV?$StrTraitMFC@DV?$ChTraitsCRT@D@ATL@@@@@ATL@@QAE@PBDPAUIAtlStringMgr@1@@Z
	DD	2 DUP(00H)
	DD	2 DUP(00H)
	DD	00H
	DD	01H
xdata$x	ENDS
;	COMDAT xdata$x
xdata$x	SEGMENT
__unwindtable$??0?$CStringT@DV?$StrTraitMFC@DV?$ChTraitsCRT@D@ATL@@@@@ATL@@QAE@PBD@Z DD 0ffffffffH
	DD	FLAT:__unwindfunclet$??0?$CStringT@DV?$StrTraitMFC@DV?$ChTraitsCRT@D@ATL@@@@@ATL@@QAE@PBD@Z$0
__ehfuncinfo$??0?$CStringT@DV?$StrTraitMFC@DV?$ChTraitsCRT@D@ATL@@@@@ATL@@QAE@PBD@Z DD 019930522H
	DD	01H
	DD	FLAT:__unwindtable$??0?$CStringT@DV?$StrTraitMFC@DV?$ChTraitsCRT@D@ATL@@@@@ATL@@QAE@PBD@Z
	DD	2 DUP(00H)
	DD	2 DUP(00H)
	DD	00H
	DD	01H
xdata$x	ENDS
; Function compile flags: /Ogtp
; File C:\IAGOS\server\v18\Source\Source\_Common\scriptlib.cpp
;	COMDAT ?InitDialogFunctions@@YAXXZ
_TEXT	SEGMENT
?InitDialogFunctions@@YAXXZ PROC			; InitDialogFunctions, COMDAT

; 1112 : 	InitPredefineKey();		// ąĚ¸® Á¤ŔÇµČ Ĺ°µéŔ» Ŕ§ÇŃ tableŔ» ¸¸µç´Ů.

  00000	e8 00 00 00 00	 call	 ?InitPredefineKey@@YAXXZ ; InitPredefineKey

; 1113 : 
; 1114 : 	g_functions.SayName = SayName;

  00005	c7 05 00 00 00
	00 00 00 00 00	 mov	 DWORD PTR ?g_functions@@3UFunctions@@A, OFFSET ?SayName@@YGHPAUNPCDIALOG_INFO@@@Z ; SayName

; 1115 : 	g_functions.Speak = Speak;

  0000f	c7 05 04 00 00
	00 00 00 00 00	 mov	 DWORD PTR ?g_functions@@3UFunctions@@A+4, OFFSET ?Speak@@YGHPAUNPCDIALOG_INFO@@HPBD@Z ; Speak

; 1116 : 	g_functions.SpeakName = SpeakName;

  00019	c7 05 08 00 00
	00 00 00 00 00	 mov	 DWORD PTR ?g_functions@@3UFunctions@@A+8, OFFSET ?SpeakName@@YGHPAUNPCDIALOG_INFO@@@Z ; SpeakName

; 1117 : 	g_functions.GetVal = GetVal;

  00023	c7 05 0c 00 00
	00 00 00 00 00	 mov	 DWORD PTR ?g_functions@@3UFunctions@@A+12, OFFSET ?GetVal@@YGHPAUNPCDIALOG_INFO@@@Z ; GetVal

; 1118 : 	g_functions.GetSrcId = GetSrcId;

  0002d	c7 05 10 00 00
	00 00 00 00 00	 mov	 DWORD PTR ?g_functions@@3UFunctions@@A+16, OFFSET ?GetSrcId@@YGHPAUNPCDIALOG_INFO@@@Z ; GetSrcId

; 1119 : 	g_functions.GetDstId = GetDstId;

  00037	c7 05 14 00 00
	00 00 00 00 00	 mov	 DWORD PTR ?g_functions@@3UFunctions@@A+20, OFFSET ?GetDstId@@YGHPAUNPCDIALOG_INFO@@@Z ; GetDstId

; 1120 : 	g_functions.NpcId = NpcId;

  00041	c7 05 18 00 00
	00 00 00 00 00	 mov	 DWORD PTR ?g_functions@@3UFunctions@@A+24, OFFSET ?NpcId@@YGHPAUNPCDIALOG_INFO@@@Z ; NpcId

; 1121 : 	g_functions.PcId = PcId;

  0004b	c7 05 1c 00 00
	00 00 00 00 00	 mov	 DWORD PTR ?g_functions@@3UFunctions@@A+28, OFFSET ?PcId@@YGHPAUNPCDIALOG_INFO@@@Z ; PcId

; 1122 : 	g_functions.GetGValue_ = GetGValue_;

  00055	c7 05 20 00 00
	00 00 00 00 00	 mov	 DWORD PTR ?g_functions@@3UFunctions@@A+32, OFFSET ?GetGValue_@@YGHPAUNPCDIALOG_INFO@@@Z ; GetGValue_

; 1123 : 	g_functions.SetGValue = SetGValue;

  0005f	c7 05 24 00 00
	00 00 00 00 00	 mov	 DWORD PTR ?g_functions@@3UFunctions@@A+36, OFFSET ?SetGValue@@YGHPAUNPCDIALOG_INFO@@@Z ; SetGValue

; 1124 : 	g_functions.AddGValue = AddGValue;

  00069	c7 05 28 00 00
	00 00 00 00 00	 mov	 DWORD PTR ?g_functions@@3UFunctions@@A+40, OFFSET ?AddGValue@@YGHPAUNPCDIALOG_INFO@@@Z ; AddGValue

; 1125 : 	g_functions.AddKey = AddKey;

  00073	c7 05 2c 00 00
	00 00 00 00 00	 mov	 DWORD PTR ?g_functions@@3UFunctions@@A+44, OFFSET ?AddKey@@YGHPAUNPCDIALOG_INFO@@PBD1K@Z ; AddKey

; 1126 : 	g_functions.AddCondKey = AddCondKey;

  0007d	c7 05 30 00 00
	00 00 00 00 00	 mov	 DWORD PTR ?g_functions@@3UFunctions@@A+48, OFFSET ?AddCondKey@@YGHPAUNPCDIALOG_INFO@@PBD1K@Z ; AddCondKey

; 1127 : 	g_functions.AddAnswer = AddAnswer;

  00087	c7 05 34 00 00
	00 00 00 00 00	 mov	 DWORD PTR ?g_functions@@3UFunctions@@A+52, OFFSET ?AddAnswer@@YGHPAUNPCDIALOG_INFO@@PBD1K@Z ; AddAnswer

; 1128 : 	g_functions.RemoveQuest = RemoveQuest;

  00091	c7 05 38 00 00
	00 00 00 00 00	 mov	 DWORD PTR ?g_functions@@3UFunctions@@A+56, OFFSET ?RemoveQuest@@YGHPAUNPCDIALOG_INFO@@H@Z ; RemoveQuest

; 1129 : 	g_functions.RemoveAllKey = RemoveAllKey;

  0009b	c7 05 3c 00 00
	00 00 00 00 00	 mov	 DWORD PTR ?g_functions@@3UFunctions@@A+60, OFFSET ?RemoveAllKey@@YGHPAUNPCDIALOG_INFO@@@Z ; RemoveAllKey

; 1130 : 	g_functions.SayQuest = SayQuest;

  000a5	c7 05 40 00 00
	00 00 00 00 00	 mov	 DWORD PTR ?g_functions@@3UFunctions@@A+64, OFFSET ?SayQuest@@YGHPAUNPCDIALOG_INFO@@HH@Z ; SayQuest

; 1131 : 	g_functions.BeginQuest = BeginQuest;

  000af	c7 05 44 00 00
	00 00 00 00 00	 mov	 DWORD PTR ?g_functions@@3UFunctions@@A+68, OFFSET ?BeginQuest@@YGHPAUNPCDIALOG_INFO@@H@Z ; BeginQuest

; 1132 : 	g_functions.EndQuest = EndQuest;

  000b9	c7 05 48 00 00
	00 00 00 00 00	 mov	 DWORD PTR ?g_functions@@3UFunctions@@A+72, OFFSET ?EndQuest@@YGHPAUNPCDIALOG_INFO@@H@Z ; EndQuest

; 1133 : 	g_functions.AddQuestKey = AddQuestKey;

  000c3	c7 05 4c 00 00
	00 00 00 00 00	 mov	 DWORD PTR ?g_functions@@3UFunctions@@A+76, OFFSET ?AddQuestKey@@YGHPAUNPCDIALOG_INFO@@HPBD@Z ; AddQuestKey

; 1134 : 	g_functions.CreateMover = CreateMover;

  000cd	c7 05 50 00 00
	00 00 00 00 00	 mov	 DWORD PTR ?g_functions@@3UFunctions@@A+80, OFFSET ?CreateMover@@YGHPAUNPCDIALOG_INFO@@@Z ; CreateMover

; 1135 : 	g_functions.CreateChar = CreateChar;

  000d7	c7 05 54 00 00
	00 00 00 00 00	 mov	 DWORD PTR ?g_functions@@3UFunctions@@A+84, OFFSET ?CreateChar@@YGHPAUNPCDIALOG_INFO@@@Z ; CreateChar

; 1136 : 	g_functions.RemoveMover = RemoveMover;

  000e1	c7 05 58 00 00
	00 00 00 00 00	 mov	 DWORD PTR ?g_functions@@3UFunctions@@A+88, OFFSET ?RemoveMover@@YGHPAUNPCDIALOG_INFO@@@Z ; RemoveMover

; 1137 : 	g_functions.GetDay = GetDay;

  000eb	c7 05 5c 00 00
	00 00 00 00 00	 mov	 DWORD PTR ?g_functions@@3UFunctions@@A+92, OFFSET ?GetDay@@YGHPAUNPCDIALOG_INFO@@@Z ; GetDay

; 1138 : 	g_functions.GetMin = GetMin;

  000f5	c7 05 60 00 00
	00 00 00 00 00	 mov	 DWORD PTR ?g_functions@@3UFunctions@@A+96, OFFSET ?GetMin@@YGHPAUNPCDIALOG_INFO@@@Z ; GetMin

; 1139 : 	g_functions.GetHour = GetHour;

  000ff	c7 05 64 00 00
	00 00 00 00 00	 mov	 DWORD PTR ?g_functions@@3UFunctions@@A+100, OFFSET ?GetHour@@YGHPAUNPCDIALOG_INFO@@@Z ; GetHour

; 1140 : 	g_functions.SetTimer = SetTimer;

  00109	c7 05 68 00 00
	00 00 00 00 00	 mov	 DWORD PTR ?g_functions@@3UFunctions@@A+104, OFFSET ?SetTimer@@YGHPAUNPCDIALOG_INFO@@@Z ; SetTimer

; 1141 : 	g_functions.IsTimeOut = IsTimeOut;

  00113	c7 05 6c 00 00
	00 00 00 00 00	 mov	 DWORD PTR ?g_functions@@3UFunctions@@A+108, OFFSET ?IsTimeOut@@YGHPAUNPCDIALOG_INFO@@@Z ; IsTimeOut

; 1142 : 	g_functions.LaunchQuest = LaunchQuest;

  0011d	c7 05 70 00 00
	00 00 00 00 00	 mov	 DWORD PTR ?g_functions@@3UFunctions@@A+112, OFFSET ?LaunchQuest@@YGHPAUNPCDIALOG_INFO@@@Z ; LaunchQuest

; 1143 : 	g_functions.GetEmptyInventoryNum = GetEmptyInventoryNum;

  00127	c7 05 74 00 00
	00 00 00 00 00	 mov	 DWORD PTR ?g_functions@@3UFunctions@@A+116, OFFSET ?GetEmptyInventoryNum@@YGHPAUNPCDIALOG_INFO@@@Z ; GetEmptyInventoryNum

; 1144 : 	g_functions.GetQuestState = GetQuestState;

  00131	c7 05 78 00 00
	00 00 00 00 00	 mov	 DWORD PTR ?g_functions@@3UFunctions@@A+120, OFFSET ?GetQuestState@@YGHPAUNPCDIALOG_INFO@@H@Z ; GetQuestState

; 1145 : 	g_functions.IsSetQuest = IsSetQuest;

  0013b	c7 05 7c 00 00
	00 00 00 00 00	 mov	 DWORD PTR ?g_functions@@3UFunctions@@A+124, OFFSET ?IsSetQuest@@YGHPAUNPCDIALOG_INFO@@H@Z ; IsSetQuest

; 1146 : 	g_functions.SetMark = SetMark;

  00145	c7 05 80 00 00
	00 00 00 00 00	 mov	 DWORD PTR ?g_functions@@3UFunctions@@A+128, OFFSET ?SetMark@@YGHPAUNPCDIALOG_INFO@@@Z ; SetMark

; 1147 : 	g_functions.GoMark = GoMark;

  0014f	c7 05 84 00 00
	00 00 00 00 00	 mov	 DWORD PTR ?g_functions@@3UFunctions@@A+132, OFFSET ?GoMark@@YGHPAUNPCDIALOG_INFO@@@Z ; GoMark

; 1148 : 	g_functions.RandomIndex = RandomIndex;

  00159	c7 05 88 00 00
	00 00 00 00 00	 mov	 DWORD PTR ?g_functions@@3UFunctions@@A+136, OFFSET ?RandomIndex@@YGHPAUNPCDIALOG_INFO@@@Z ; RandomIndex

; 1149 : 	g_functions.RemoveKey = RemoveKey;

  00163	c7 05 8c 00 00
	00 00 00 00 00	 mov	 DWORD PTR ?g_functions@@3UFunctions@@A+140, OFFSET ?RemoveKey@@YGHPAUNPCDIALOG_INFO@@PBD@Z ; RemoveKey

; 1150 : 	g_functions.Say = Say;

  0016d	c7 05 90 00 00
	00 00 00 00 00	 mov	 DWORD PTR ?g_functions@@3UFunctions@@A+144, OFFSET ?Say@@YGHPAUNPCDIALOG_INFO@@PBD@Z ; Say

; 1151 : 	g_functions.EndSay = EndSay;

  00177	c7 05 94 00 00
	00 00 00 00 00	 mov	 DWORD PTR ?g_functions@@3UFunctions@@A+148, OFFSET ?EndSay@@YGHPAUNPCDIALOG_INFO@@@Z ; EndSay

; 1152 : 	g_functions.Random = Random;

  00181	c7 05 98 00 00
	00 00 00 00 00	 mov	 DWORD PTR ?g_functions@@3UFunctions@@A+152, OFFSET ?Random@@YGHPAUNPCDIALOG_INFO@@H@Z ; Random

; 1153 : 	g_functions.Exit = Exit;

  0018b	c7 05 9c 00 00
	00 00 00 00 00	 mov	 DWORD PTR ?g_functions@@3UFunctions@@A+156, OFFSET ?Exit@@YGHPAUNPCDIALOG_INFO@@@Z ; Exit

; 1154 : 	g_functions.SetScriptTimer = SetScriptTimer;

  00195	c7 05 a0 00 00
	00 00 00 00 00	 mov	 DWORD PTR ?g_functions@@3UFunctions@@A+160, OFFSET ?SetScriptTimer@@YGHPAUNPCDIALOG_INFO@@H@Z ; SetScriptTimer

; 1155 : 	g_functions.Replace = Replace;

  0019f	c7 05 a4 00 00
	00 00 00 00 00	 mov	 DWORD PTR ?g_functions@@3UFunctions@@A+164, OFFSET ?Replace@@YGHPAUNPCDIALOG_INFO@@HMMM@Z ; Replace

; 1156 : 	g_functions.ReplaceKey = ReplaceKey;

  001a9	c7 05 a8 00 00
	00 00 00 00 00	 mov	 DWORD PTR ?g_functions@@3UFunctions@@A+168, OFFSET ?ReplaceKey@@YGHPAUNPCDIALOG_INFO@@HPBD@Z ; ReplaceKey

; 1157 : 	g_functions.GetPlayerLvl = GetPlayerLvl;

  001b3	c7 05 ac 00 00
	00 00 00 00 00	 mov	 DWORD PTR ?g_functions@@3UFunctions@@A+172, OFFSET ?GetPlayerLvl@@YGHPAUNPCDIALOG_INFO@@@Z ; GetPlayerLvl

; 1158 : 	g_functions.GetPlayerJob = GetPlayerJob;

  001bd	c7 05 b0 00 00
	00 00 00 00 00	 mov	 DWORD PTR ?g_functions@@3UFunctions@@A+176, OFFSET ?GetPlayerJob@@YGHPAUNPCDIALOG_INFO@@@Z ; GetPlayerJob

; 1159 : 	g_functions.IsGuildQuest = IsGuildQuest;

  001c7	c7 05 b4 00 00
	00 00 00 00 00	 mov	 DWORD PTR ?g_functions@@3UFunctions@@A+180, OFFSET ?IsGuildQuest@@YGHPAUNPCDIALOG_INFO@@H@Z ; IsGuildQuest

; 1160 : 	g_functions.GetGuildQuestState = GetGuildQuestState;

  001d1	c7 05 b8 00 00
	00 00 00 00 00	 mov	 DWORD PTR ?g_functions@@3UFunctions@@A+184, OFFSET ?GetGuildQuestState@@YGHPAUNPCDIALOG_INFO@@H@Z ; GetGuildQuestState

; 1161 : 	g_functions.IsWormonServer = IsWormonServer;

  001db	c7 05 bc 00 00
	00 00 00 00 00	 mov	 DWORD PTR ?g_functions@@3UFunctions@@A+188, OFFSET ?IsWormonServer@@YGHPAUNPCDIALOG_INFO@@@Z ; IsWormonServer

; 1162 : 	g_functions.PrintSystemMessage = PrintSystemMessage;

  001e5	c7 05 c0 00 00
	00 00 00 00 00	 mov	 DWORD PTR ?g_functions@@3UFunctions@@A+192, OFFSET ?PrintSystemMessage@@YGHPAUNPCDIALOG_INFO@@H@Z ; PrintSystemMessage

; 1163 : 	g_functions.MonHuntStart = MonHuntStart;

  001ef	c7 05 c4 00 00
	00 00 00 00 00	 mov	 DWORD PTR ?g_functions@@3UFunctions@@A+196, OFFSET ?MonHuntStart@@YGHPAUNPCDIALOG_INFO@@HHHH@Z ; MonHuntStart

; 1164 : 	g_functions.MonHuntStartParty = MonHuntStartParty;

  001f9	c7 05 c8 00 00
	00 00 00 00 00	 mov	 DWORD PTR ?g_functions@@3UFunctions@@A+200, OFFSET ?MonHuntStartParty@@YGHPAUNPCDIALOG_INFO@@HHHH@Z ; MonHuntStartParty

; 1165 : 	g_functions.InitStat = InitStat;

  00203	c7 05 cc 00 00
	00 00 00 00 00	 mov	 DWORD PTR ?g_functions@@3UFunctions@@A+204, OFFSET ?InitStat@@YGHPAUNPCDIALOG_INFO@@@Z ; InitStat

; 1166 : 	g_functions.InitStr = InitStr;

  0020d	c7 05 d0 00 00
	00 00 00 00 00	 mov	 DWORD PTR ?g_functions@@3UFunctions@@A+208, OFFSET ?InitStr@@YGHPAUNPCDIALOG_INFO@@@Z ; InitStr

; 1167 : 	g_functions.InitSta = InitSta;

  00217	c7 05 d4 00 00
	00 00 00 00 00	 mov	 DWORD PTR ?g_functions@@3UFunctions@@A+212, OFFSET ?InitSta@@YGHPAUNPCDIALOG_INFO@@@Z ; InitSta

; 1168 : 	g_functions.InitDex = InitDex;

  00221	c7 05 d8 00 00
	00 00 00 00 00	 mov	 DWORD PTR ?g_functions@@3UFunctions@@A+216, OFFSET ?InitDex@@YGHPAUNPCDIALOG_INFO@@@Z ; InitDex

; 1169 : 	g_functions.InitInt = InitInt;

  0022b	c7 05 dc 00 00
	00 00 00 00 00	 mov	 DWORD PTR ?g_functions@@3UFunctions@@A+220, OFFSET ?InitInt@@YGHPAUNPCDIALOG_INFO@@@Z ; InitInt

; 1170 : 	g_functions.SetQuestState = SetQuestState;

  00235	c7 05 e0 00 00
	00 00 00 00 00	 mov	 DWORD PTR ?g_functions@@3UFunctions@@A+224, OFFSET ?SetQuestState@@YGHPAUNPCDIALOG_INFO@@HH@Z ; SetQuestState

; 1171 : 	g_functions.SetQuest = SetQuest;

  0023f	c7 05 e4 00 00
	00 00 00 00 00	 mov	 DWORD PTR ?g_functions@@3UFunctions@@A+228, OFFSET ?SetQuest@@YGHPAUNPCDIALOG_INFO@@H@Z ; SetQuest

; 1172 : 	g_functions.CreateItem = CreateItem;

  00249	c7 05 e8 00 00
	00 00 00 00 00	 mov	 DWORD PTR ?g_functions@@3UFunctions@@A+232, OFFSET ?CreateItem@@YGHPAUNPCDIALOG_INFO@@KH@Z ; CreateItem

; 1173 : 	g_functions.AddGold = AddGold;

  00253	c7 05 ec 00 00
	00 00 00 00 00	 mov	 DWORD PTR ?g_functions@@3UFunctions@@A+236, OFFSET ?AddGold@@YGHPAUNPCDIALOG_INFO@@H@Z ; AddGold

; 1174 : 	g_functions.RemoveGold = RemoveGold;

  0025d	c7 05 f0 00 00
	00 00 00 00 00	 mov	 DWORD PTR ?g_functions@@3UFunctions@@A+240, OFFSET ?RemoveGold@@YGHPAUNPCDIALOG_INFO@@H@Z ; RemoveGold

; 1175 : 	g_functions.GetPlayerGold = GetPlayerGold;

  00267	c7 05 f4 00 00
	00 00 00 00 00	 mov	 DWORD PTR ?g_functions@@3UFunctions@@A+244, OFFSET ?GetPlayerGold@@YGHPAUNPCDIALOG_INFO@@@Z ; GetPlayerGold

; 1176 : 	g_functions.GetLocalEventState = GetLocalEventState;

  00271	c7 05 f8 00 00
	00 00 00 00 00	 mov	 DWORD PTR ?g_functions@@3UFunctions@@A+248, OFFSET ?GetLocalEventState@@YGHPAUNPCDIALOG_INFO@@H@Z ; GetLocalEventState

; 1177 : 	g_functions.AddExp = AddExp;

  0027b	c7 05 fc 00 00
	00 00 00 00 00	 mov	 DWORD PTR ?g_functions@@3UFunctions@@A+252, OFFSET ?AddExp@@YGHPAUNPCDIALOG_INFO@@H@Z ; AddExp

; 1178 : 	g_functions.IsParty = IsParty;

  00285	c7 05 00 01 00
	00 00 00 00 00	 mov	 DWORD PTR ?g_functions@@3UFunctions@@A+256, OFFSET ?IsParty@@YGHPAUNPCDIALOG_INFO@@@Z ; IsParty

; 1179 : 	g_functions.IsPartyMaster = IsPartyMaster;

  0028f	c7 05 04 01 00
	00 00 00 00 00	 mov	 DWORD PTR ?g_functions@@3UFunctions@@A+260, OFFSET ?IsPartyMaster@@YGHPAUNPCDIALOG_INFO@@@Z ; IsPartyMaster

; 1180 : 	g_functions.GetPartyNum = GetPartyNum;

  00299	c7 05 08 01 00
	00 00 00 00 00	 mov	 DWORD PTR ?g_functions@@3UFunctions@@A+264, OFFSET ?GetPartyNum@@YGHPAUNPCDIALOG_INFO@@@Z ; GetPartyNum

; 1181 : 	g_functions.GetPartyLevel = GetPartyLevel;

  002a3	c7 05 0c 01 00
	00 00 00 00 00	 mov	 DWORD PTR ?g_functions@@3UFunctions@@A+268, OFFSET ?GetPartyLevel@@YGHPAUNPCDIALOG_INFO@@@Z ; GetPartyLevel

; 1182 : 	g_functions.IsPartyGuild = IsPartyGuild;

  002ad	c7 05 10 01 00
	00 00 00 00 00	 mov	 DWORD PTR ?g_functions@@3UFunctions@@A+272, OFFSET ?IsPartyGuild@@YGHPAUNPCDIALOG_INFO@@@Z ; IsPartyGuild

; 1183 : 	g_functions.IsGuild = IsGuild;

  002b7	c7 05 14 01 00
	00 00 00 00 00	 mov	 DWORD PTR ?g_functions@@3UFunctions@@A+276, OFFSET ?IsGuild@@YGHPAUNPCDIALOG_INFO@@@Z ; IsGuild

; 1184 : 	g_functions.IsGuildMaster = IsGuildMaster;

  002c1	c7 05 18 01 00
	00 00 00 00 00	 mov	 DWORD PTR ?g_functions@@3UFunctions@@A+280, OFFSET ?IsGuildMaster@@YGHPAUNPCDIALOG_INFO@@@Z ; IsGuildMaster

; 1185 : 	g_functions.CreateGuild = CreateGuild;

  002cb	c7 05 1c 01 00
	00 00 00 00 00	 mov	 DWORD PTR ?g_functions@@3UFunctions@@A+284, OFFSET ?CreateGuild@@YGHPAUNPCDIALOG_INFO@@@Z ; CreateGuild

; 1186 : 	g_functions.DestroyGuild = DestroyGuild;

  002d5	c7 05 20 01 00
	00 00 00 00 00	 mov	 DWORD PTR ?g_functions@@3UFunctions@@A+288, OFFSET ?DestroyGuild@@YGHPAUNPCDIALOG_INFO@@@Z ; DestroyGuild

; 1187 : 	g_functions.IsPlayerSkillPoint = IsPlayerSkillPoint;

  002df	c7 05 24 01 00
	00 00 00 00 00	 mov	 DWORD PTR ?g_functions@@3UFunctions@@A+292, OFFSET ?IsPlayerSkillPoint@@YGHPAUNPCDIALOG_INFO@@@Z ; IsPlayerSkillPoint

; 1188 : 	g_functions.ChangeJob = ChangeJob;

  002e9	c7 05 28 01 00
	00 00 00 00 00	 mov	 DWORD PTR ?g_functions@@3UFunctions@@A+296, OFFSET ?ChangeJob@@YGHPAUNPCDIALOG_INFO@@H@Z ; ChangeJob

; 1189 : 	g_functions.GetPlayerSex = GetPlayerSex;

  002f3	c7 05 2c 01 00
	00 00 00 00 00	 mov	 DWORD PTR ?g_functions@@3UFunctions@@A+300, OFFSET ?GetPlayerSex@@YGHPAUNPCDIALOG_INFO@@@Z ; GetPlayerSex

; 1190 : 	g_functions.GetItemNum = GetItemNum;

  002fd	c7 05 30 01 00
	00 00 00 00 00	 mov	 DWORD PTR ?g_functions@@3UFunctions@@A+304, OFFSET ?GetItemNum@@YGHPAUNPCDIALOG_INFO@@K@Z ; GetItemNum

; 1191 : 	g_functions.RemoveAllItem = RemoveAllItem;

  00307	c7 05 34 01 00
	00 00 00 00 00	 mov	 DWORD PTR ?g_functions@@3UFunctions@@A+308, OFFSET ?RemoveAllItem@@YGHPAUNPCDIALOG_INFO@@K@Z ; RemoveAllItem

; 1192 : 	g_functions.EquipItem = EquipItem;

  00311	c7 05 38 01 00
	00 00 00 00 00	 mov	 DWORD PTR ?g_functions@@3UFunctions@@A+312, OFFSET ?EquipItem@@YGHPAUNPCDIALOG_INFO@@K@Z ; EquipItem

; 1193 : 	g_functions.PlaySound = PlaySound;

  0031b	c7 05 3c 01 00
	00 00 00 00 00	 mov	 DWORD PTR ?g_functions@@3UFunctions@@A+316, OFFSET ?PlaySoundA@@YGHPAUNPCDIALOG_INFO@@PBD@Z ; PlaySoundA

; 1194 : 	g_functions.DropQuestItem = DropQuestItem;

  00325	c7 05 40 01 00
	00 00 00 00 00	 mov	 DWORD PTR ?g_functions@@3UFunctions@@A+320, OFFSET ?DropQuestItem@@YGHPAUNPCDIALOG_INFO@@KK@Z ; DropQuestItem

; 1195 : 	g_functions.ExpQuestEffect = ExpQuestEffect;

  0032f	c7 05 44 01 00
	00 00 00 00 00	 mov	 DWORD PTR ?g_functions@@3UFunctions@@A+324, OFFSET ?ExpQuestEffect@@YGHPAUNPCDIALOG_INFO@@KH@Z ; ExpQuestEffect

; 1196 : 	g_functions.RemoveItem = RemoveItem;

  00339	c7 05 48 01 00
	00 00 00 00 00	 mov	 DWORD PTR ?g_functions@@3UFunctions@@A+328, OFFSET ?RemoveItem@@YGHPAUNPCDIALOG_INFO@@KH@Z ; RemoveItem

; 1197 : 	g_functions.Run = Run;

  00343	c7 05 4c 01 00
	00 00 00 00 00	 mov	 DWORD PTR ?g_functions@@3UFunctions@@A+332, OFFSET ?Run@@YGHPAUNPCDIALOG_INFO@@PBDH@Z ; Run

; 1198 : 	g_functions.GetQuestId = GetQuestId;

  0034d	c7 05 50 01 00
	00 00 00 00 00	 mov	 DWORD PTR ?g_functions@@3UFunctions@@A+336, OFFSET ?GetQuestId@@YGHPAUNPCDIALOG_INFO@@@Z ; GetQuestId

; 1199 : 	g_functions.GetLang = GetLang;

  00357	c7 05 54 01 00
	00 00 00 00 00	 mov	 DWORD PTR ?g_functions@@3UFunctions@@A+340, OFFSET ?GetLang@@YGHPAUNPCDIALOG_INFO@@@Z ; GetLang

; 1200 : 	g_functions.QuerySetPlayerName = QuerySetPlayerName;

  00361	c7 05 58 01 00
	00 00 00 00 00	 mov	 DWORD PTR ?g_functions@@3UFunctions@@A+344, OFFSET ?QuerySetPlayerName@@YGHPAUNPCDIALOG_INFO@@@Z ; QuerySetPlayerName

; 1201 : 	g_functions.Trace = Trace;

  0036b	c7 05 5c 01 00
	00 00 00 00 00	 mov	 DWORD PTR ?g_functions@@3UFunctions@@A+348, OFFSET ?Trace@@YGHPAUNPCDIALOG_INFO@@PBD@Z ; Trace

; 1202 : 	g_functions.GetPlayerExpPercent = GetPlayerExpPercent;

  00375	c7 05 60 01 00
	00 00 00 00 00	 mov	 DWORD PTR ?g_functions@@3UFunctions@@A+352, OFFSET ?GetPlayerExpPercent@@YGHPAUNPCDIALOG_INFO@@@Z ; GetPlayerExpPercent

; 1203 : 	g_functions.SetLevel = SetLevel;

  0037f	c7 05 64 01 00
	00 00 00 00 00	 mov	 DWORD PTR ?g_functions@@3UFunctions@@A+356, OFFSET ?SetLevel@@YGHPAUNPCDIALOG_INFO@@H@Z ; SetLevel

; 1204 : 	g_functions.AddGPPoint = AddGPPoint;

  00389	c7 05 68 01 00
	00 00 00 00 00	 mov	 DWORD PTR ?g_functions@@3UFunctions@@A+360, OFFSET ?AddGPPoint@@YGHPAUNPCDIALOG_INFO@@H@Z ; AddGPPoint

; 1205 : }

  00393	c3		 ret	 0
?InitDialogFunctions@@YAXXZ ENDP			; InitDialogFunctions
_TEXT	ENDS
; Function compile flags: /Ogtp
; File C:\IAGOS\server\v18\Source\Source\_Common\scriptlib.cpp
;	COMDAT ?GetDialogFunctions@@YAPAUFunctions@@XZ
_TEXT	SEGMENT
?GetDialogFunctions@@YAPAUFunctions@@XZ PROC		; GetDialogFunctions, COMDAT

; 1107 : 	return &g_functions;

  00000	b8 00 00 00 00	 mov	 eax, OFFSET ?g_functions@@3UFunctions@@A ; g_functions

; 1108 : }

  00005	c3		 ret	 0
?GetDialogFunctions@@YAPAUFunctions@@XZ ENDP		; GetDialogFunctions
_TEXT	ENDS
; Function compile flags: /Ogtp
; File C:\IAGOS\server\v18\Source\Source\_Common\scriptlib.cpp
;	COMDAT ?AddGPPoint@@YGHPAUNPCDIALOG_INFO@@H@Z
_TEXT	SEGMENT
_pInfo$ = 8						; size = 4
_nAddGPPoint$ = 12					; size = 4
?AddGPPoint@@YGHPAUNPCDIALOG_INFO@@H@Z PROC		; AddGPPoint, COMDAT

; 1098 : {

  00000	55		 push	 ebp
  00001	8b ec		 mov	 ebp, esp

; 1099 : 	CUser* pUser = prj.GetUser( pInfo->GetPcId() );

  00003	8b 4d 08	 mov	 ecx, DWORD PTR _pInfo$[ebp]
  00006	8b 01		 mov	 eax, DWORD PTR [ecx]
  00008	ff 50 18	 call	 DWORD PTR [eax+24]
  0000b	50		 push	 eax
  0000c	b9 00 00 00 00	 mov	 ecx, OFFSET ?prj@@3VCProject@@A ; prj
  00011	e8 00 00 00 00	 call	 ?GetUser@CProject@@QAEPAVCUser@@K@Z ; CProject::GetUser

; 1100 : 	return pUser->AddGPPoint(nAddGPPoint);

  00016	ff 75 0c	 push	 DWORD PTR _nAddGPPoint$[ebp]
  00019	8b c8		 mov	 ecx, eax
  0001b	e8 00 00 00 00	 call	 ?AddGPPoint@CMover@@QAEHH@Z ; CMover::AddGPPoint

; 1101 : }

  00020	5d		 pop	 ebp
  00021	c2 08 00	 ret	 8
?AddGPPoint@@YGHPAUNPCDIALOG_INFO@@H@Z ENDP		; AddGPPoint
_TEXT	ENDS
; Function compile flags: /Ogtp
; File C:\IAGOS\server\v18\Source\Source\_Common\scriptlib.cpp
;	COMDAT ?SetLevel@@YGHPAUNPCDIALOG_INFO@@H@Z
_TEXT	SEGMENT
_pInfo$ = 8						; size = 4
_nSetLevel$ = 12					; size = 4
?SetLevel@@YGHPAUNPCDIALOG_INFO@@H@Z PROC		; SetLevel, COMDAT

; 1088 : {

  00000	55		 push	 ebp
  00001	8b ec		 mov	 ebp, esp

; 1089 : 	CUser* pUser = prj.GetUser( pInfo->GetPcId() );

  00003	8b 4d 08	 mov	 ecx, DWORD PTR _pInfo$[ebp]
  00006	56		 push	 esi
  00007	57		 push	 edi
  00008	8b 01		 mov	 eax, DWORD PTR [ecx]
  0000a	ff 50 18	 call	 DWORD PTR [eax+24]
  0000d	50		 push	 eax
  0000e	b9 00 00 00 00	 mov	 ecx, OFFSET ?prj@@3VCProject@@A ; prj
  00013	e8 00 00 00 00	 call	 ?GetUser@CProject@@QAEPAVCUser@@K@Z ; CProject::GetUser

; 1090 : 	int rtn_val = pUser->SetLevel(nSetLevel);

  00018	ff 75 0c	 push	 DWORD PTR _nSetLevel$[ebp]
  0001b	8b f8		 mov	 edi, eax
  0001d	8b cf		 mov	 ecx, edi
  0001f	e8 00 00 00 00	 call	 ?SetLevel@CMover@@QAEHH@Z ; CMover::SetLevel

; 1091 : #if __VER >= 11 // __SYS_PLAYER_DATA
; 1092 : 	g_dpDBClient.SendUpdatePlayerData( pUser );

  00024	57		 push	 edi
  00025	b9 00 00 00 00	 mov	 ecx, OFFSET ?g_dpDBClient@@3VCDPDatabaseClient@@A ; g_dpDBClient
  0002a	8b f0		 mov	 esi, eax
  0002c	e8 00 00 00 00	 call	 ?SendUpdatePlayerData@CDPDatabaseClient@@QAEXPAVCUser@@@Z ; CDPDatabaseClient::SendUpdatePlayerData

; 1093 : #endif	// __SYS_PLAYER_DATA
; 1094 : 	return rtn_val;

  00031	5f		 pop	 edi
  00032	8b c6		 mov	 eax, esi
  00034	5e		 pop	 esi

; 1095 : }

  00035	5d		 pop	 ebp
  00036	c2 08 00	 ret	 8
?SetLevel@@YGHPAUNPCDIALOG_INFO@@H@Z ENDP		; SetLevel
_TEXT	ENDS
; Function compile flags: /Ogtp
; File C:\IAGOS\server\v18\Source\Source\_Common\scriptlib.cpp
;	COMDAT ?GetPlayerExpPercent@@YGHPAUNPCDIALOG_INFO@@@Z
_TEXT	SEGMENT
_pInfo$ = 8						; size = 4
?GetPlayerExpPercent@@YGHPAUNPCDIALOG_INFO@@@Z PROC	; GetPlayerExpPercent, COMDAT

; 1082 : {

  00000	55		 push	 ebp
  00001	8b ec		 mov	 ebp, esp

; 1083 : 	CUser* pUser = prj.GetUser( pInfo->GetPcId() );

  00003	8b 4d 08	 mov	 ecx, DWORD PTR _pInfo$[ebp]
  00006	8b 01		 mov	 eax, DWORD PTR [ecx]
  00008	ff 50 18	 call	 DWORD PTR [eax+24]
  0000b	50		 push	 eax
  0000c	b9 00 00 00 00	 mov	 ecx, OFFSET ?prj@@3VCProject@@A ; prj
  00011	e8 00 00 00 00	 call	 ?GetUser@CProject@@QAEPAVCUser@@K@Z ; CProject::GetUser

; 1084 : 	return pUser->GetExpPercent();

  00016	8b c8		 mov	 ecx, eax
  00018	e8 00 00 00 00	 call	 ?GetExpPercent@CMover@@QAEHXZ ; CMover::GetExpPercent

; 1085 : }

  0001d	5d		 pop	 ebp
  0001e	c2 04 00	 ret	 4
?GetPlayerExpPercent@@YGHPAUNPCDIALOG_INFO@@@Z ENDP	; GetPlayerExpPercent
_TEXT	ENDS
; Function compile flags: /Ogtp
; File C:\IAGOS\server\v18\Source\Source\_Common\scriptlib.cpp
;	COMDAT ?Trace@@YGHPAUNPCDIALOG_INFO@@PBD@Z
_TEXT	SEGMENT
_pInfo$ = 8						; size = 4
_szMsg$ = 12						; size = 4
?Trace@@YGHPAUNPCDIALOG_INFO@@PBD@Z PROC		; Trace, COMDAT

; 1076 : 	TRACE( "%s\n", szMsg );
; 1077 : 	return 1;

  00000	b8 01 00 00 00	 mov	 eax, 1

; 1078 : }

  00005	c2 08 00	 ret	 8
?Trace@@YGHPAUNPCDIALOG_INFO@@PBD@Z ENDP		; Trace
_TEXT	ENDS
; Function compile flags: /Ogtp
; File C:\IAGOS\server\v18\Source\Source\_Common\scriptlib.cpp
; File C:\IAGOS\server\v18\Source\Source\_Common\Mover.h
; File C:\IAGOS\server\v18\Source\Source\_Common\scriptlib.cpp
;	COMDAT ?QuerySetPlayerName@@YGHPAUNPCDIALOG_INFO@@@Z
_TEXT	SEGMENT
_rsf$1 = -2076						; size = 2072
__$ArrayPad$ = -4					; size = 4
_pInfo$ = 8						; size = 4
?QuerySetPlayerName@@YGHPAUNPCDIALOG_INFO@@@Z PROC	; QuerySetPlayerName, COMDAT

; 1062 : {

  00000	55		 push	 ebp
  00001	8b ec		 mov	 ebp, esp
  00003	81 ec 1c 08 00
	00		 sub	 esp, 2076		; 0000081cH
  00009	a1 00 00 00 00	 mov	 eax, DWORD PTR ___security_cookie
  0000e	33 c5		 xor	 eax, ebp
  00010	89 45 fc	 mov	 DWORD PTR __$ArrayPad$[ebp], eax
  00013	8b 4d 08	 mov	 ecx, DWORD PTR _pInfo$[ebp]

; 1063 : 	CUser* pUser = prj.GetUser( pInfo->GetPcId()  );

  00016	8b 01		 mov	 eax, DWORD PTR [ecx]
  00018	ff 50 18	 call	 DWORD PTR [eax+24]
  0001b	50		 push	 eax
  0001c	b9 00 00 00 00	 mov	 ecx, OFFSET ?prj@@3VCProject@@A ; prj
  00021	e8 00 00 00 00	 call	 ?GetUser@CProject@@QAEPAVCUser@@K@Z ; CProject::GetUser
; File C:\IAGOS\server\v18\Source\Source\_Common\Mover.h

; 1090 : 	DWORD			IsAuthHigher( DWORD dwAuthorization ) { return dwAuthorization <= m_dwAuthorization; }

  00026	83 b8 40 06 00
	00 4c		 cmp	 DWORD PTR [eax+1600], 76 ; 0000004cH
; File C:\IAGOS\server\v18\Source\Source\_Common\scriptlib.cpp

; 1064 : 	if( pUser->IsAuthHigher( AUTH_GAMEMASTER ) || pUser->IsMode( QUERYSETPLAYERNAME_MODE ) )

  0002d	73 1e		 jae	 SHORT $LN3@QuerySetPl
  0002f	f7 80 40 02 00
	00 00 40 00 00	 test	 DWORD PTR [eax+576], 16384 ; 00004000H
  00039	75 12		 jne	 SHORT $LN3@QuerySetPl

; 1069 : 		return 1;
; 1070 : 	}
; 1071 : 	return 0;

  0003b	33 c0		 xor	 eax, eax

; 1072 : }

  0003d	8b 4d fc	 mov	 ecx, DWORD PTR __$ArrayPad$[ebp]
  00040	33 cd		 xor	 ecx, ebp
  00042	e8 00 00 00 00	 call	 @__security_check_cookie@4
  00047	8b e5		 mov	 esp, ebp
  00049	5d		 pop	 ebp
  0004a	c2 04 00	 ret	 4
$LN3@QuerySetPl:

; 1065 : 	{
; 1066 : 		RunScriptFunc rsf;
; 1067 : 		rsf.wFuncType = FUNCTYPE_QUERYSETPLAYERNAME;

  0004d	b9 24 00 00 00	 mov	 ecx, 36			; 00000024H
  00052	66 89 4d ec	 mov	 WORD PTR _rsf$1[ebp+2056], cx

; 1068 : 		pUser->AddRunScriptFunc( rsf );

  00056	8d 8d e4 f7 ff
	ff		 lea	 ecx, DWORD PTR _rsf$1[ebp]
  0005c	51		 push	 ecx
  0005d	8b c8		 mov	 ecx, eax
  0005f	e8 00 00 00 00	 call	 ?AddRunScriptFunc@CUser@@QAEXABU_runscriptfunc@@@Z ; CUser::AddRunScriptFunc

; 1072 : }

  00064	8b 4d fc	 mov	 ecx, DWORD PTR __$ArrayPad$[ebp]
  00067	b8 01 00 00 00	 mov	 eax, 1
  0006c	33 cd		 xor	 ecx, ebp
  0006e	e8 00 00 00 00	 call	 @__security_check_cookie@4
  00073	8b e5		 mov	 esp, ebp
  00075	5d		 pop	 ebp
  00076	c2 04 00	 ret	 4
?QuerySetPlayerName@@YGHPAUNPCDIALOG_INFO@@@Z ENDP	; QuerySetPlayerName
_TEXT	ENDS
; Function compile flags: /Ogtp
; File C:\IAGOS\server\v18\Source\Source\_Common\scriptlib.cpp
;	COMDAT ?GetLang@@YGHPAUNPCDIALOG_INFO@@@Z
_TEXT	SEGMENT
_pInfo$ = 8						; size = 4
?GetLang@@YGHPAUNPCDIALOG_INFO@@@Z PROC			; GetLang, COMDAT

; 1057 : 	return ::GetLanguage();

  00000	e8 00 00 00 00	 call	 ?GetLanguage@@YAHXZ	; GetLanguage

; 1058 : }

  00005	c2 04 00	 ret	 4
?GetLang@@YGHPAUNPCDIALOG_INFO@@@Z ENDP			; GetLang
_TEXT	ENDS
; Function compile flags: /Ogtp
; File C:\IAGOS\server\v18\Source\Source\_Common\scriptlib.cpp
;	COMDAT ?GetQuestId@@YGHPAUNPCDIALOG_INFO@@@Z
_TEXT	SEGMENT
_pInfo$ = 8						; size = 4
?GetQuestId@@YGHPAUNPCDIALOG_INFO@@@Z PROC		; GetQuestId, COMDAT

; 1052 : {

  00000	55		 push	 ebp
  00001	8b ec		 mov	 ebp, esp

; 1053 : 	return pInfo->GetQuest();

  00003	8b 4d 08	 mov	 ecx, DWORD PTR _pInfo$[ebp]
  00006	8b 01		 mov	 eax, DWORD PTR [ecx]
  00008	ff 50 10	 call	 DWORD PTR [eax+16]

; 1054 : }

  0000b	5d		 pop	 ebp
  0000c	c2 04 00	 ret	 4
?GetQuestId@@YGHPAUNPCDIALOG_INFO@@@Z ENDP		; GetQuestId
_TEXT	ENDS
; Function compile flags: /Ogtp
; File C:\IAGOS\server\v18\Source\Source\_Common\scriptlib.cpp
; File C:\Program Files\Microsoft Visual Studio\2022\Professional\VC\Tools\MSVC\14.44.35207\atlmfc\include\afxstr.h
; File C:\Program Files\Microsoft Visual Studio\2022\Professional\VC\Tools\MSVC\14.44.35207\atlmfc\include\atlsimpstr.h
; File C:\Program Files\Microsoft Visual Studio\2022\Professional\VC\Tools\MSVC\14.44.35207\atlmfc\include\cstringt.h
; File C:\Program Files\Microsoft Visual Studio\2022\Professional\VC\Tools\MSVC\14.44.35207\atlmfc\include\atlsimpstr.h
; File C:\IAGOS\server\v18\Source\Source\_Common\scriptlib.cpp
; File C:\Program Files\Microsoft Visual Studio\2022\Professional\VC\Tools\MSVC\14.44.35207\atlmfc\include\atlsimpstr.h
; File C:\IAGOS\server\v18\Source\Source\_Common\scriptlib.cpp
; File C:\Program Files\Microsoft Visual Studio\2022\Professional\VC\Tools\MSVC\14.44.35207\atlmfc\include\atlsimpstr.h
; File C:\IAGOS\server\v18\Source\Source\_Common\scriptlib.cpp
; File C:\Program Files\Microsoft Visual Studio\2022\Professional\VC\Tools\MSVC\14.44.35207\atlmfc\include\atlsimpstr.h
; File C:\IAGOS\server\v18\Source\Source\_Common\scriptlib.cpp
;	COMDAT ?Run@@YGHPAUNPCDIALOG_INFO@@PBDH@Z
_TEXT	SEGMENT
_nResult$ = -20						; size = 4
_string$ = -16						; size = 4
__$EHRec$ = -12						; size = 12
_pInfo$ = 8						; size = 4
_szKey$ = 12						; size = 4
_n$ = 16						; size = 4
?Run@@YGHPAUNPCDIALOG_INFO@@PBDH@Z PROC			; Run, COMDAT

; 1040 : {

  00000	55		 push	 ebp
  00001	8b ec		 mov	 ebp, esp
  00003	6a ff		 push	 -1
  00005	68 00 00 00 00	 push	 __ehhandler$?Run@@YGHPAUNPCDIALOG_INFO@@PBDH@Z
  0000a	64 a1 00 00 00
	00		 mov	 eax, DWORD PTR fs:0
  00010	50		 push	 eax
  00011	83 ec 08	 sub	 esp, 8
  00014	53		 push	 ebx
  00015	56		 push	 esi
  00016	57		 push	 edi
  00017	a1 00 00 00 00	 mov	 eax, DWORD PTR ___security_cookie
  0001c	33 c5		 xor	 eax, ebp
  0001e	50		 push	 eax
  0001f	8d 45 f4	 lea	 eax, DWORD PTR __$EHRec$[ebp]
  00022	64 a3 00 00 00
	00		 mov	 DWORD PTR fs:0, eax
; File C:\Program Files\Microsoft Visual Studio\2022\Professional\VC\Tools\MSVC\14.44.35207\atlmfc\include\afxstr.h

; 56   : 		return( AfxGetStringManager() );

  00028	e8 00 00 00 00	 call	 ?AfxGetStringManager@@YGPAUIAtlStringMgr@ATL@@XZ ; AfxGetStringManager
  0002d	8b c8		 mov	 ecx, eax
; File C:\Program Files\Microsoft Visual Studio\2022\Professional\VC\Tools\MSVC\14.44.35207\atlmfc\include\atlsimpstr.h

; 209  : 		ATLENSURE( pStringMgr != NULL );

  0002f	85 c9		 test	 ecx, ecx
  00031	0f 84 d9 00 00
	00		 je	 $LN51@Run

; 210  : 		CStringData* pData = pStringMgr->GetNilString();

  00037	8b 01		 mov	 eax, DWORD PTR [ecx]
  00039	ff 50 0c	 call	 DWORD PTR [eax+12]

; 211  : 		Attach( pData );

  0003c	83 c0 10	 add	 eax, 16			; 00000010H
  0003f	89 45 f0	 mov	 DWORD PTR _string$[ebp], eax
; File C:\Program Files\Microsoft Visual Studio\2022\Professional\VC\Tools\MSVC\14.44.35207\atlmfc\include\cstringt.h

; 2712 : 		if( (pv != NULL) && IS_INTRESOURCE( pv ) )

  00042	8b 55 0c	 mov	 edx, DWORD PTR _szKey$[ebp]

; 1052 : 		CThisSimpleString( StringTraits::GetDefaultManager() )

  00045	c7 45 fc 00 00
	00 00		 mov	 DWORD PTR __$EHRec$[ebp+8], 0

; 2712 : 		if( (pv != NULL) && IS_INTRESOURCE( pv ) )

  0004c	85 d2		 test	 edx, edx
  0004e	74 2b		 je	 SHORT $LN46@Run
  00050	f7 c2 00 00 ff
	ff		 test	 edx, -65536		; ffff0000H
  00056	75 0e		 jne	 SHORT $LN31@Run

; 2713 : 		{
; 2714 : 			UINT nID = LOWORD( reinterpret_cast< DWORD_PTR >( pv ) );

  00058	0f b7 c2	 movzx	 eax, dx

; 2715 : 			(nID);
; 2716 : #ifdef _ATL_USE_WINAPI_FAMILY_DESKTOP_APP
; 2717 : 			if( !LoadString( nID ) )

  0005b	8d 4d f0	 lea	 ecx, DWORD PTR _string$[ebp]
  0005e	50		 push	 eax
  0005f	e8 00 00 00 00	 call	 ?LoadStringA@?$CStringT@DV?$StrTraitMFC@DV?$ChTraitsCRT@D@ATL@@@@@ATL@@QAEHI@Z ; ATL::CStringT<char,StrTraitMFC<char,ATL::ChTraitsCRT<char> > >::LoadStringA

; 1054 : 		if( !CheckImplicitLoad( pszSrc ) )

  00064	eb 21		 jmp	 SHORT $LN5@Run
$LN31@Run:
; File C:\Program Files\Microsoft Visual Studio\2022\Professional\VC\Tools\MSVC\14.44.35207\atlmfc\include\atlsimpstr.h

; 730  : 		return( int( strlen( psz ) ) );

  00066	8b c2		 mov	 eax, edx
  00068	8d 70 01	 lea	 esi, DWORD PTR [eax+1]
  0006b	0f 1f 44 00 00	 npad	 5
$LL47@Run:
  00070	8a 08		 mov	 cl, BYTE PTR [eax]
  00072	40		 inc	 eax
  00073	84 c9		 test	 cl, cl
  00075	75 f9		 jne	 SHORT $LL47@Run
  00077	2b c6		 sub	 eax, esi
  00079	eb 02		 jmp	 SHORT $LN30@Run
$LN46@Run:

; 607  : 	}
; 608  : 	void SetString(
; 609  : 		_In_reads_opt_(nLength) PCXSTR pszSrc,
; 610  : 		_In_ int nLength)
; 611  : 	{
; 612  : 		if( nLength == 0 )
; 613  : 		{
; 614  : 			Empty();
; 615  : 		}
; 616  : 		else
; 617  : 		{
; 618  : 			// It is possible that pszSrc points to a location inside of our
; 619  : 			// buffer.  GetBuffer() might change m_pszData if (1) the buffer
; 620  : 			// is shared or (2) the buffer is too small to hold the new
; 621  : 			// string.  We detect this aliasing, and modify pszSrc to point
; 622  : 			// into the newly allocated buffer instead.
; 623  : 
; 624  : 			if(pszSrc == NULL)
; 625  : 				AtlThrow(E_INVALIDARG);
; 626  : 
; 627  : 			UINT nOldLength = GetLength();
; 628  : 			UINT_PTR nOffset = pszSrc-GetString();
; 629  : 			// If 0 <= nOffset <= nOldLength, then pszSrc points into our
; 630  : 			// buffer
; 631  : 
; 632  : 			PXSTR pszBuffer = GetBuffer( nLength );
; 633  : 			if( nOffset <= nOldLength )
; 634  : 			{
; 635  : 				CopyCharsOverlapped( pszBuffer, GetAllocLength(),
; 636  : 					pszBuffer+nOffset, nLength );
; 637  : 			}
; 638  : 			else
; 639  : 			{
; 640  : 				memcpy_s( pszBuffer, GetAllocLength() * sizeof( XCHAR ), pszSrc, nLength * sizeof( XCHAR ));
; 641  : 			}
; 642  : 			ReleaseBufferSetLength( nLength );
; 643  : 		}
; 644  : 	}
; 645  : 
; 646  : public:
; 647  : 	friend CSimpleStringT operator+(
; 648  : 		_In_ const CSimpleStringT& str1,
; 649  : 		_In_ const CSimpleStringT& str2)
; 650  : 	{
; 651  : 		CSimpleStringT s( str1.GetManager() );
; 652  : 
; 653  : 		Concatenate( s, str1, str1.GetLength(), str2, str2.GetLength() );
; 654  : 
; 655  : 		return( s );
; 656  : 	}
; 657  : 
; 658  : 	friend CSimpleStringT operator+(
; 659  : 		_In_ const CSimpleStringT& str1,
; 660  : 		_In_z_ PCXSTR psz2)
; 661  : 	{
; 662  : 		CSimpleStringT s( str1.GetManager() );
; 663  : 
; 664  : 		Concatenate( s, str1, str1.GetLength(), psz2, StringLength( psz2 ) );
; 665  : 
; 666  : 		return( s );
; 667  : 	}
; 668  : 
; 669  : 	friend CSimpleStringT operator+(
; 670  : 		_In_z_ PCXSTR psz1,
; 671  : 		_In_ const CSimpleStringT& str2)
; 672  : 	{
; 673  : 		CSimpleStringT s( str2.GetManager() );
; 674  : 
; 675  : 		Concatenate( s, psz1, StringLength( psz1 ), str2, str2.GetLength() );
; 676  : 
; 677  : 		return( s );
; 678  : 	}
; 679  : 
; 680  : 	_ATL_INSECURE_DEPRECATE("CSimpleStringT::CopyChars must be passed a buffer size")
; 681  : 	static void __cdecl CopyChars(
; 682  : 		_Out_writes_(nChars) XCHAR* pchDest,
; 683  : 		_In_reads_opt_(nChars) const XCHAR* pchSrc,
; 684  : 		_In_ int nChars) throw()
; 685  : 	{
; 686  : 		if (pchSrc != NULL)
; 687  : 		{
; 688  : 			#pragma warning (push)
; 689  : 			#pragma warning(disable : 4996)
; 690  : 			memcpy( pchDest, pchSrc, nChars*sizeof( XCHAR ) );
; 691  : 			#pragma warning (pop)
; 692  : 		}
; 693  : 	}
; 694  : 	static void __cdecl CopyChars(
; 695  : 		_Out_writes_to_(nDestLen,nChars) XCHAR* pchDest,
; 696  : 		_In_ size_t nDestLen,
; 697  : 		_In_reads_opt_(nChars) const XCHAR* pchSrc,
; 698  : 		_In_ int nChars) throw()
; 699  : 	{
; 700  : 		memcpy_s( pchDest, nDestLen*sizeof( XCHAR ),
; 701  : 			pchSrc, nChars*sizeof( XCHAR ) );
; 702  : 	}
; 703  : 
; 704  : 	_ATL_INSECURE_DEPRECATE("CSimpleStringT::CopyCharsOverlapped must be passed a buffer size")
; 705  : 	static void __cdecl CopyCharsOverlapped(
; 706  : 		_Out_writes_(nChars) XCHAR* pchDest,
; 707  : 		_In_reads_(nChars) const XCHAR* pchSrc,
; 708  : 		_In_ int nChars) throw()
; 709  : 	{
; 710  : 		#pragma warning (push)
; 711  : 		#pragma warning(disable : 4996)
; 712  : 		memmove( pchDest, pchSrc, nChars*sizeof( XCHAR ) );
; 713  : 		#pragma warning (pop)
; 714  : 	}
; 715  : 	static void __cdecl CopyCharsOverlapped(
; 716  : 		_Out_writes_to_(nDestLen, nDestLen) XCHAR* pchDest,
; 717  : 		_In_ size_t nDestLen,
; 718  : 		_In_reads_(nChars) const XCHAR* pchSrc,
; 719  : 		_In_ int nChars) throw()
; 720  : 	{
; 721  : 		memmove_s( pchDest, nDestLen*sizeof( XCHAR ),
; 722  : 			pchSrc, nChars*sizeof( XCHAR ) );
; 723  : 	}
; 724  : 	static int __cdecl StringLength(_In_opt_z_ const char* psz) throw()
; 725  : 	{
; 726  : 		if( psz == NULL )
; 727  : 		{
; 728  : 			return( 0 );

  0007b	33 c0		 xor	 eax, eax
$LN30@Run:

; 606  : 		SetString( pszSrc, StringLength( pszSrc ) );

  0007d	50		 push	 eax
  0007e	52		 push	 edx
  0007f	8d 4d f0	 lea	 ecx, DWORD PTR _string$[ebp]
  00082	e8 00 00 00 00	 call	 ?SetString@?$CSimpleStringT@D$0A@@ATL@@QAEXPBDH@Z ; ATL::CSimpleStringT<char,0>::SetString
$LN5@Run:
; File C:\IAGOS\server\v18\Source\Source\_Common\scriptlib.cpp

; 1044 : 	CMover* pMover = prj.GetMover( pInfo->GetNpcId() );

  00087	8b 5d 08	 mov	 ebx, DWORD PTR _pInfo$[ebp]
  0008a	8b cb		 mov	 ecx, ebx
  0008c	c7 45 fc 01 00
	00 00		 mov	 DWORD PTR __$EHRec$[ebp+8], 1
  00093	8b 03		 mov	 eax, DWORD PTR [ebx]
  00095	ff 50 14	 call	 DWORD PTR [eax+20]
  00098	50		 push	 eax
  00099	b9 00 00 00 00	 mov	 ecx, OFFSET ?prj@@3VCProject@@A ; prj
  0009e	e8 00 00 00 00	 call	 ?GetMover@CProject@@QAEPAVCMover@@K@Z ; CProject::GetMover

; 1045 : 	int nResult = 0;
; 1046 : 	pMover->m_pNpcProperty->RunDialog( string, &nResult, v1, pInfo->GetNpcId(), pInfo->GetPcId(), 0 );

  000a3	8b 13		 mov	 edx, DWORD PTR [ebx]
  000a5	8b 4d 08	 mov	 ecx, DWORD PTR _pInfo$[ebp]
  000a8	c7 45 ec 00 00
	00 00		 mov	 DWORD PTR _nResult$[ebp], 0
  000af	8b 98 c4 0d 00
	00		 mov	 ebx, DWORD PTR [eax+3524]
  000b5	8b 72 18	 mov	 esi, DWORD PTR [edx+24]
  000b8	8b 7a 14	 mov	 edi, DWORD PTR [edx+20]
  000bb	6a 00		 push	 0
  000bd	ff d6		 call	 esi
  000bf	8b 4d 08	 mov	 ecx, DWORD PTR _pInfo$[ebp]
  000c2	50		 push	 eax
  000c3	ff d7		 call	 edi
  000c5	8b 75 f0	 mov	 esi, DWORD PTR _string$[ebp]
  000c8	8b cb		 mov	 ecx, ebx
  000ca	50		 push	 eax
  000cb	ff 75 10	 push	 DWORD PTR _n$[ebp]
  000ce	8d 45 ec	 lea	 eax, DWORD PTR _nResult$[ebp]
  000d1	50		 push	 eax
  000d2	56		 push	 esi
  000d3	e8 00 00 00 00	 call	 ?RunDialog@CNpcProperty@@QAEHPBDPAHHHHH@Z ; CNpcProperty::RunDialog

; 1048 : 	return nResult;

  000d8	8b 7d ec	 mov	 edi, DWORD PTR _nResult$[ebp]
; File C:\Program Files\Microsoft Visual Studio\2022\Professional\VC\Tools\MSVC\14.44.35207\atlmfc\include\atlsimpstr.h

; 804  : 		return( reinterpret_cast< CStringData* >( m_pszData )-1 );

  000db	83 c6 f0	 add	 esi, -16		; fffffff0H
; File C:\IAGOS\server\v18\Source\Source\_Common\scriptlib.cpp

; 1048 : 	return nResult;

  000de	c7 45 fc ff ff
	ff ff		 mov	 DWORD PTR __$EHRec$[ebp+8], -1
; File C:\Program Files\Microsoft Visual Studio\2022\Professional\VC\Tools\MSVC\14.44.35207\atlmfc\include\atlsimpstr.h

; 92   : 		if( _InterlockedDecrement( &nRefs ) <= 0 )

  000e5	83 c8 ff	 or	 eax, -1
  000e8	f0 0f c1 46 0c	 lock	  xadd	 DWORD PTR [esi+12], eax
  000ed	48		 dec	 eax
  000ee	85 c0		 test	 eax, eax
  000f0	7f 08		 jg	 SHORT $LN43@Run

; 93   : 		{
; 94   : 			pStringMgr->Free( this );

  000f2	8b 0e		 mov	 ecx, DWORD PTR [esi]
  000f4	56		 push	 esi
  000f5	8b 11		 mov	 edx, DWORD PTR [ecx]
  000f7	ff 52 04	 call	 DWORD PTR [edx+4]
$LN43@Run:
; File C:\IAGOS\server\v18\Source\Source\_Common\scriptlib.cpp

; 1048 : 	return nResult;

  000fa	8b c7		 mov	 eax, edi

; 1049 : }

  000fc	8b 4d f4	 mov	 ecx, DWORD PTR __$EHRec$[ebp]
  000ff	64 89 0d 00 00
	00 00		 mov	 DWORD PTR fs:0, ecx
  00106	59		 pop	 ecx
  00107	5f		 pop	 edi
  00108	5e		 pop	 esi
  00109	5b		 pop	 ebx
  0010a	8b e5		 mov	 esp, ebp
  0010c	5d		 pop	 ebp
  0010d	c2 0c 00	 ret	 12			; 0000000cH
$LN51@Run:
; File C:\Program Files\Microsoft Visual Studio\2022\Professional\VC\Tools\MSVC\14.44.35207\atlmfc\include\atlsimpstr.h

; 209  : 		ATLENSURE( pStringMgr != NULL );

  00110	68 05 40 00 80	 push	 -2147467259		; 80004005H
  00115	e8 00 00 00 00	 call	 ?AtlThrowImpl@ATL@@YGXJ@Z ; ATL::AtlThrowImpl
$LN49@Run:
  0011a	cc		 int	 3
_TEXT	ENDS
;	COMDAT text$x
text$x	SEGMENT
__unwindfunclet$?Run@@YGHPAUNPCDIALOG_INFO@@PBDH@Z$1:
  00000	8d 4d f0	 lea	 ecx, DWORD PTR _string$[ebp]
  00003	e9 00 00 00 00	 jmp	 ??1?$CSimpleStringT@D$0A@@ATL@@QAE@XZ ; ATL::CSimpleStringT<char,0>::~CSimpleStringT<char,0>
__unwindfunclet$?Run@@YGHPAUNPCDIALOG_INFO@@PBDH@Z$0:
  00008	8d 4d f0	 lea	 ecx, DWORD PTR _string$[ebp]
  0000b	e9 00 00 00 00	 jmp	 ??1?$CStringT@DV?$StrTraitMFC@DV?$ChTraitsCRT@D@ATL@@@@@ATL@@QAE@XZ ; ATL::CStringT<char,StrTraitMFC<char,ATL::ChTraitsCRT<char> > >::~CStringT<char,StrTraitMFC<char,ATL::ChTraitsCRT<char> > >
  00010	cc		 int	 3
  00011	cc		 int	 3
  00012	cc		 int	 3
  00013	cc		 int	 3
  00014	cc		 int	 3
__ehhandler$?Run@@YGHPAUNPCDIALOG_INFO@@PBDH@Z:
  00015	90		 npad	 1
  00016	90		 npad	 1
  00017	8b 54 24 08	 mov	 edx, DWORD PTR [esp+8]
  0001b	8d 42 0c	 lea	 eax, DWORD PTR [edx+12]
  0001e	8b 4a e8	 mov	 ecx, DWORD PTR [edx-24]
  00021	33 c8		 xor	 ecx, eax
  00023	e8 00 00 00 00	 call	 @__security_check_cookie@4
  00028	b8 00 00 00 00	 mov	 eax, OFFSET __ehfuncinfo$?Run@@YGHPAUNPCDIALOG_INFO@@PBDH@Z
  0002d	e9 00 00 00 00	 jmp	 ___CxxFrameHandler3
text$x	ENDS
?Run@@YGHPAUNPCDIALOG_INFO@@PBDH@Z ENDP			; Run
; Function compile flags: /Ogtp
; File C:\IAGOS\server\v18\Source\Source\_Common\scriptlib.cpp
;	COMDAT ?RemoveItem@@YGHPAUNPCDIALOG_INFO@@KH@Z
_TEXT	SEGMENT
_pInfo$ = 8						; size = 4
_dwID$ = 12						; size = 4
_nCount$ = 16						; size = 4
?RemoveItem@@YGHPAUNPCDIALOG_INFO@@KH@Z PROC		; RemoveItem, COMDAT

; 1033 : {

  00000	55		 push	 ebp
  00001	8b ec		 mov	 ebp, esp

; 1034 : 	int v1 = dwID, v2 = nCount;
; 1035 : 	CUser* pUser = prj.GetUser( pInfo->GetPcId() );

  00003	8b 4d 08	 mov	 ecx, DWORD PTR _pInfo$[ebp]
  00006	8b 01		 mov	 eax, DWORD PTR [ecx]
  00008	ff 50 18	 call	 DWORD PTR [eax+24]
  0000b	50		 push	 eax
  0000c	b9 00 00 00 00	 mov	 ecx, OFFSET ?prj@@3VCProject@@A ; prj
  00011	e8 00 00 00 00	 call	 ?GetUser@CProject@@QAEPAVCUser@@K@Z ; CProject::GetUser

; 1036 : 	return pUser->RemoveItemA( v1, v2 );

  00016	ff 75 10	 push	 DWORD PTR _nCount$[ebp]
  00019	8b c8		 mov	 ecx, eax
  0001b	ff 75 0c	 push	 DWORD PTR _dwID$[ebp]
  0001e	e8 00 00 00 00	 call	 ?RemoveItemA@CMover@@QAEHKF@Z ; CMover::RemoveItemA

; 1037 : }

  00023	5d		 pop	 ebp
  00024	c2 0c 00	 ret	 12			; 0000000cH
?RemoveItem@@YGHPAUNPCDIALOG_INFO@@KH@Z ENDP		; RemoveItem
_TEXT	ENDS
; Function compile flags: /Ogtp
; File C:\IAGOS\server\v18\Source\Source\_Common\scriptlib.cpp
;	COMDAT ?ExpQuestEffect@@YGHPAUNPCDIALOG_INFO@@KH@Z
_TEXT	SEGMENT
_pInfo$ = 8						; size = 4
_dwID$ = 12						; size = 4
_bNPC$ = 16						; size = 4
?ExpQuestEffect@@YGHPAUNPCDIALOG_INFO@@KH@Z PROC	; ExpQuestEffect, COMDAT

; 1025 : {

  00000	55		 push	 ebp
  00001	8b ec		 mov	 ebp, esp

; 1026 : 	int v1 = dwID, v2 = bNPC;
; 1027 : 	CCtrl* pCtrl = ( v2? prj.GetCtrl( pInfo->GetNpcId() ): prj.GetCtrl( pInfo->GetPcId() ) );

  00003	83 7d 10 00	 cmp	 DWORD PTR _bNPC$[ebp], 0
  00007	8b 4d 08	 mov	 ecx, DWORD PTR _pInfo$[ebp]
  0000a	8b 01		 mov	 eax, DWORD PTR [ecx]
  0000c	74 05		 je	 SHORT $LN3@ExpQuestEf
  0000e	ff 50 14	 call	 DWORD PTR [eax+20]
  00011	eb 03		 jmp	 SHORT $LN4@ExpQuestEf
$LN3@ExpQuestEf:
  00013	ff 50 18	 call	 DWORD PTR [eax+24]
$LN4@ExpQuestEf:

; 1028 : 	g_UserMng.AddCreateSfxObj( pCtrl, v1 );

  00016	50		 push	 eax
  00017	b9 00 00 00 00	 mov	 ecx, OFFSET ?prj@@3VCProject@@A ; prj
  0001c	e8 00 00 00 00	 call	 ?GetCtrl@CProject@@QAEPAVCCtrl@@K@Z ; CProject::GetCtrl
  00021	6a 00		 push	 0
  00023	83 ec 0c	 sub	 esp, 12			; 0000000cH
  00026	b9 00 00 00 00	 mov	 ecx, OFFSET ?g_UserMng@@3VCUserMng@@A ; g_UserMng
  0002b	c7 44 24 08 00
	00 00 00	 mov	 DWORD PTR [esp+8], 0
  00033	c7 44 24 04 00
	00 00 00	 mov	 DWORD PTR [esp+4], 0
  0003b	c7 04 24 00 00
	00 00		 mov	 DWORD PTR [esp], 0
  00042	ff 75 0c	 push	 DWORD PTR _dwID$[ebp]
  00045	50		 push	 eax
  00046	e8 00 00 00 00	 call	 ?AddCreateSfxObj@CUserMng@@QAEXPAVCCtrl@@KMMMH@Z ; CUserMng::AddCreateSfxObj

; 1029 : 	return 1;

  0004b	b8 01 00 00 00	 mov	 eax, 1

; 1030 : }

  00050	5d		 pop	 ebp
  00051	c2 0c 00	 ret	 12			; 0000000cH
?ExpQuestEffect@@YGHPAUNPCDIALOG_INFO@@KH@Z ENDP	; ExpQuestEffect
_TEXT	ENDS
; Function compile flags: /Ogtp
; File C:\IAGOS\server\v18\Source\Source\_Common\scriptlib.cpp
; File C:\IAGOS\server\v18\Source\Source\_Common\xUtil.h
; File C:\IAGOS\server\v18\Source\Source\_Common\scriptlib.cpp
; File C:\IAGOS\server\v18\Source\Source\_Common\xUtil.h
; File C:\IAGOS\server\v18\Source\Source\_Common\scriptlib.cpp
; File C:\IAGOS\server\v18\Source\Source\_Common\xUtil.h
; File C:\IAGOS\server\v18\Source\Source\_Common\scriptlib.cpp
; File C:\IAGOS\server\v18\Source\Source\_Common\Project.h
; File C:\IAGOS\server\v18\Source\Source\_Common\data.h
; File C:\IAGOS\server\v18\Source\Source\_Common\scriptlib.cpp
; File C:\IAGOS\server\v18\Source\Source\_Common\Obj.h
; File C:\IAGOS\server\v18\Source\Source\_Common\scriptlib.cpp
; File C:\IAGOS\server\v18\Source\Source\_Common\xUtil.h
; File C:\IAGOS\server\v18\Source\Source\_Common\scriptlib.cpp
; File C:\IAGOS\server\v18\Source\Source\_Common\Project.h
; File C:\IAGOS\server\v18\Source\Source\_Common\scriptlib.cpp
;	COMDAT ?DropQuestItem@@YGHPAUNPCDIALOG_INFO@@KK@Z
_TEXT	SEGMENT
$T2 = -40						; size = 4
$T3 = -40						; size = 4
_pWorld$1$ = -36					; size = 4
_pUser$1$ = -32						; size = 4
_vPos$4 = -28						; size = 12
__$ArrayPad$ = -16					; size = 4
__$EHRec$ = -12						; size = 12
_pInfo$ = 8						; size = 4
_dwID$ = 12						; size = 4
_dwProb$ = 16						; size = 4
?DropQuestItem@@YGHPAUNPCDIALOG_INFO@@KK@Z PROC		; DropQuestItem, COMDAT

; 985  : {

  00000	55		 push	 ebp
  00001	8b ec		 mov	 ebp, esp
  00003	6a ff		 push	 -1
  00005	68 00 00 00 00	 push	 __ehhandler$?DropQuestItem@@YGHPAUNPCDIALOG_INFO@@KK@Z
  0000a	64 a1 00 00 00
	00		 mov	 eax, DWORD PTR fs:0
  00010	50		 push	 eax
  00011	83 ec 1c	 sub	 esp, 28			; 0000001cH
  00014	a1 00 00 00 00	 mov	 eax, DWORD PTR ___security_cookie
  00019	33 c5		 xor	 eax, ebp
  0001b	89 45 f0	 mov	 DWORD PTR __$ArrayPad$[ebp], eax
  0001e	53		 push	 ebx
  0001f	56		 push	 esi
  00020	57		 push	 edi
  00021	50		 push	 eax
  00022	8d 45 f4	 lea	 eax, DWORD PTR __$EHRec$[ebp]
  00025	64 a3 00 00 00
	00		 mov	 DWORD PTR fs:0, eax
  0002b	8b 5d 08	 mov	 ebx, DWORD PTR _pInfo$[ebp]

; 987  : 	CUser* pUser = prj.GetUser( pInfo->GetPcId() );

  0002e	8b cb		 mov	 ecx, ebx
  00030	8b 03		 mov	 eax, DWORD PTR [ebx]
  00032	ff 50 18	 call	 DWORD PTR [eax+24]
  00035	50		 push	 eax
  00036	b9 00 00 00 00	 mov	 ecx, OFFSET ?prj@@3VCProject@@A ; prj
  0003b	e8 00 00 00 00	 call	 ?GetUser@CProject@@QAEPAVCUser@@K@Z ; CProject::GetUser
; File C:\IAGOS\server\v18\Source\Source\_Common\xUtil.h

; 16   : 	g_next = g_next * 1103515245 + 12345;// + nRandomSeed[ i++ ];

  00040	69 35 00 00 00
	00 6d 4e c6 41	 imul	 esi, DWORD PTR ?g_next@@3KA, 1103515245 ; g_next
; File C:\IAGOS\server\v18\Source\Source\_Common\scriptlib.cpp

; 987  : 	CUser* pUser = prj.GetUser( pInfo->GetPcId() );

  0004a	8b f8		 mov	 edi, eax
; File C:\IAGOS\server\v18\Source\Source\_Common\xUtil.h

; 22   : 	return  xRand() % num;

  0004c	b8 d3 4d 62 10	 mov	 eax, 274877907		; 10624dd3H
; File C:\IAGOS\server\v18\Source\Source\_Common\scriptlib.cpp

; 987  : 	CUser* pUser = prj.GetUser( pInfo->GetPcId() );

  00051	89 7d e0	 mov	 DWORD PTR _pUser$1$[ebp], edi
; File C:\IAGOS\server\v18\Source\Source\_Common\xUtil.h

; 16   : 	g_next = g_next * 1103515245 + 12345;// + nRandomSeed[ i++ ];

  00054	81 c6 39 30 00
	00		 add	 esi, 12345		; 00003039H

; 22   : 	return  xRand() % num;

  0005a	f7 e6		 mul	 esi

; 16   : 	g_next = g_next * 1103515245 + 12345;// + nRandomSeed[ i++ ];

  0005c	89 35 00 00 00
	00		 mov	 DWORD PTR ?g_next@@3KA, esi ; g_next

; 22   : 	return  xRand() % num;

  00062	c1 ea 06	 shr	 edx, 6
  00065	69 ca e8 03 00
	00		 imul	 ecx, edx, 1000
  0006b	2b f1		 sub	 esi, ecx
; File C:\IAGOS\server\v18\Source\Source\_Common\scriptlib.cpp

; 989  : 	if( (int)( xRandom( 1000 ) ) < v2 )

  0006d	3b 75 10	 cmp	 esi, DWORD PTR _dwProb$[ebp]
  00070	0f 8d e2 01 00
	00		 jge	 $LN4@DropQuestI
; File C:\IAGOS\server\v18\Source\Source\_Common\Project.h

; 1389 : 	VERIFY_RANGE_ASSERT( nIndex, 0, m_aPropItem.GetSize(), "GetItemProp range_error", NULL );

  00076	8b 75 0c	 mov	 esi, DWORD PTR _dwID$[ebp]
  00079	a1 40 02 00 00	 mov	 eax, DWORD PTR ?prj@@3VCProject@@A+576
  0007e	85 f6		 test	 esi, esi
  00080	0f 88 ae 01 00
	00		 js	 $LN23@DropQuestI
  00086	3b f0		 cmp	 esi, eax
  00088	0f 8d a6 01 00
	00		 jge	 $LN23@DropQuestI
; File C:\IAGOS\server\v18\Source\Source\_Common\data.h

; 270  : 	if( dwIndex >= (DWORD)m_nMaxIndex )

  0008e	72 04		 jb	 SHORT $LN28@DropQuestI

; 271  : 		return NULL;

  00090	33 c0		 xor	 eax, eax
  00092	eb 08		 jmp	 SHORT $LN18@DropQuestI
$LN28@DropQuestI:

; 272  : 	return (T*) m_apOffset[ dwIndex ];

  00094	a1 30 02 00 00	 mov	 eax, DWORD PTR ?prj@@3VCProject@@A+560
  00099	8b 04 b0	 mov	 eax, DWORD PTR [eax+esi*4]
$LN18@DropQuestI:
; File C:\IAGOS\server\v18\Source\Source\_Common\scriptlib.cpp

; 992  : 		if( pItemProp )

  0009c	85 c0		 test	 eax, eax
  0009e	0f 84 a6 01 00
	00		 je	 $LN3@DropQuestI

; 993  : 		{
; 994  : 			CWorld* pWorld	= pUser->GetWorld();

  000a4	8b 87 6c 01 00
	00		 mov	 eax, DWORD PTR [edi+364]
  000aa	89 45 dc	 mov	 DWORD PTR _pWorld$1$[ebp], eax

; 995  : 			if( pWorld )

  000ad	85 c0		 test	 eax, eax
  000af	0f 84 a3 01 00
	00		 je	 $LN4@DropQuestI

; 996  : 			{
; 997  : 				CItemElem* pItemElem	= new CItemElem;

  000b5	68 b0 00 00 00	 push	 176			; 000000b0H
  000ba	e8 00 00 00 00	 call	 ??2@YAPAXI@Z		; operator new
  000bf	83 c4 04	 add	 esp, 4
  000c2	89 45 d8	 mov	 DWORD PTR $T2[ebp], eax
  000c5	c7 45 fc 00 00
	00 00		 mov	 DWORD PTR __$EHRec$[ebp+8], 0
  000cc	85 c0		 test	 eax, eax
  000ce	74 0b		 je	 SHORT $LN8@DropQuestI
  000d0	8b c8		 mov	 ecx, eax
  000d2	e8 00 00 00 00	 call	 ??0CItemElem@@QAE@XZ	; CItemElem::CItemElem
  000d7	8b f8		 mov	 edi, eax
  000d9	eb 02		 jmp	 SHORT $LN9@DropQuestI
$LN8@DropQuestI:
  000db	33 ff		 xor	 edi, edi
$LN9@DropQuestI:

; 998  : 				pItemElem->m_dwItemId	= v1;
; 999  : 				CItem* pItem	= new CItem;

  000dd	68 48 02 00 00	 push	 584			; 00000248H
  000e2	c7 45 fc ff ff
	ff ff		 mov	 DWORD PTR __$EHRec$[ebp+8], -1
  000e9	89 77 0c	 mov	 DWORD PTR [edi+12], esi
  000ec	e8 00 00 00 00	 call	 ??2@YAPAXI@Z		; operator new
  000f1	83 c4 04	 add	 esp, 4
  000f4	89 45 d8	 mov	 DWORD PTR $T3[ebp], eax
  000f7	c7 45 fc 01 00
	00 00		 mov	 DWORD PTR __$EHRec$[ebp+8], 1
  000fe	85 c0		 test	 eax, eax
  00100	74 0b		 je	 SHORT $LN10@DropQuestI
  00102	8b c8		 mov	 ecx, eax
  00104	e8 00 00 00 00	 call	 ??0CItem@@QAE@XZ	; CItem::CItem
  00109	8b f0		 mov	 esi, eax
  0010b	eb 02		 jmp	 SHORT $LN11@DropQuestI
$LN10@DropQuestI:
  0010d	33 f6		 xor	 esi, esi
$LN11@DropQuestI:

; 1000 : 				pItem->m_pItemBase	= pItemElem;

  0010f	89 be 30 02 00
	00		 mov	 DWORD PTR [esi+560], edi

; 1001 : 				if( pItemElem->m_dwItemId == 0 ) Error( "DropQuestItem SetIndex\n" );

  00115	83 7f 0c 00	 cmp	 DWORD PTR [edi+12], 0
  00119	c7 45 fc ff ff
	ff ff		 mov	 DWORD PTR __$EHRec$[ebp+8], -1
  00120	75 0d		 jne	 SHORT $LN6@DropQuestI
  00122	68 00 00 00 00	 push	 OFFSET ??_C@_0BI@KEOMPJDK@DropQuestItem?5SetIndex?6@
  00127	e8 00 00 00 00	 call	 ?Error@@YAPBDPBDZZ	; Error
  0012c	83 c4 04	 add	 esp, 4
$LN6@DropQuestI:

; 1002 : 				pItem->SetIndex( D3DDEVICE, pItemElem->m_dwItemId );

  0012f	8b 06		 mov	 eax, DWORD PTR [esi]
  00131	8b ce		 mov	 ecx, esi
  00133	6a 00		 push	 0
  00135	ff 77 0c	 push	 DWORD PTR [edi+12]
  00138	6a 00		 push	 0
  0013a	ff 50 2c	 call	 DWORD PTR [eax+44]

; 1003 : 				pItem->m_idHolder	= pUser->m_idPlayer;

  0013d	8b 7d e0	 mov	 edi, DWORD PTR _pUser$1$[ebp]
  00140	8b 87 34 02 00
	00		 mov	 eax, DWORD PTR [edi+564]
  00146	89 86 34 02 00
	00		 mov	 DWORD PTR [esi+564], eax

; 1004 : 				pItem->m_idOwn	= pUser->GetId();

  0014c	8b 87 bc 01 00
	00		 mov	 eax, DWORD PTR [edi+444]
  00152	89 86 38 02 00
	00		 mov	 DWORD PTR [esi+568], eax

; 1005 : 				pItem->m_dwDropTime	= timeGetTime();

  00158	ff 15 00 00 00
	00		 call	 DWORD PTR __imp__timeGetTime@0
  0015e	89 86 3c 02 00
	00		 mov	 DWORD PTR [esi+572], eax

; 1006 : 				CMover* pMover	= prj.GetMover( pInfo->GetNpcId() );

  00164	8b cb		 mov	 ecx, ebx
  00166	8b 03		 mov	 eax, DWORD PTR [ebx]
  00168	ff 50 14	 call	 DWORD PTR [eax+20]
  0016b	50		 push	 eax
  0016c	b9 00 00 00 00	 mov	 ecx, OFFSET ?prj@@3VCProject@@A ; prj
  00171	e8 00 00 00 00	 call	 ?GetMover@CProject@@QAEPAVCMover@@K@Z ; CProject::GetMover

; 1008 : 				vPos.x	+= ( xRandomF( 2.0f ) - 1.0f );

  00176	51		 push	 ecx
  00177	c7 04 24 00 00
	00 40		 mov	 DWORD PTR [esp], 1073741824 ; 40000000H
; File C:\IAGOS\server\v18\Source\Source\_Common\Obj.h

; 215  : 	D3DXVECTOR3		GetPos()	{ return m_vPos; }

  0017e	f3 0f 7e 80 60
	01 00 00	 movq	 xmm0, QWORD PTR [eax+352]
  00186	66 0f d6 45 e4	 movq	 QWORD PTR _vPos$4[ebp], xmm0
  0018b	8b 80 68 01 00
	00		 mov	 eax, DWORD PTR [eax+360]
  00191	89 45 ec	 mov	 DWORD PTR _vPos$4[ebp+8], eax
; File C:\IAGOS\server\v18\Source\Source\_Common\scriptlib.cpp

; 1008 : 				vPos.x	+= ( xRandomF( 2.0f ) - 1.0f );

  00194	e8 00 00 00 00	 call	 ?xRandomF@@YAMM@Z	; xRandomF
  00199	d9 e8		 fld1
  0019b	de e9		 fsubp	 ST(1), ST(0)

; 1009 : 				vPos.z	+= ( xRandomF( 2.0f ) - 1.0f );

  0019d	c7 04 24 00 00
	00 40		 mov	 DWORD PTR [esp], 1073741824 ; 40000000H
  001a4	d8 45 e4	 fadd	 DWORD PTR _vPos$4[ebp]
  001a7	d9 5d e4	 fstp	 DWORD PTR _vPos$4[ebp]
  001aa	e8 00 00 00 00	 call	 ?xRandomF@@YAMM@Z	; xRandomF
  001af	d9 e8		 fld1

; 1010 : 				pItem->SetPos( vPos );

  001b1	8d 45 e4	 lea	 eax, DWORD PTR _vPos$4[ebp]
  001b4	de e9		 fsubp	 ST(1), ST(0)
  001b6	83 c4 04	 add	 esp, 4
  001b9	8b ce		 mov	 ecx, esi
  001bb	50		 push	 eax
  001bc	d8 45 ec	 fadd	 DWORD PTR _vPos$4[ebp+8]
  001bf	d9 5d ec	 fstp	 DWORD PTR _vPos$4[ebp+8]
  001c2	e8 00 00 00 00	 call	 ?SetPos@CObj@@QAEXABUD3DXVECTOR3@@@Z ; CObj::SetPos
; File C:\IAGOS\server\v18\Source\Source\_Common\xUtil.h

; 16   : 	g_next = g_next * 1103515245 + 12345;// + nRandomSeed[ i++ ];

  001c7	69 0d 00 00 00
	00 6d 4e c6 41	 imul	 ecx, DWORD PTR ?g_next@@3KA, 1103515245 ; g_next

; 22   : 	return  xRand() % num;

  001d1	b8 6d c1 16 6c	 mov	 eax, 1813430637		; 6c16c16dH

; 16   : 	g_next = g_next * 1103515245 + 12345;// + nRandomSeed[ i++ ];

  001d6	81 c1 39 30 00
	00		 add	 ecx, 12345		; 00003039H

; 22   : 	return  xRand() % num;

  001dc	f7 e1		 mul	 ecx
  001de	8b c1		 mov	 eax, ecx

; 16   : 	g_next = g_next * 1103515245 + 12345;// + nRandomSeed[ i++ ];

  001e0	89 0d 00 00 00
	00		 mov	 DWORD PTR ?g_next@@3KA, ecx ; g_next

; 22   : 	return  xRand() % num;

  001e6	2b c2		 sub	 eax, edx
  001e8	d1 e8		 shr	 eax, 1
  001ea	03 c2		 add	 eax, edx
  001ec	c1 e8 08	 shr	 eax, 8
  001ef	69 c0 68 01 00
	00		 imul	 eax, eax, 360
  001f5	2b c8		 sub	 ecx, eax
  001f7	66 0f 6e c1	 movd	 xmm0, ecx
; File C:\IAGOS\server\v18\Source\Source\_Common\scriptlib.cpp

; 1011 : 				pItem->SetAngle( (float)( xRandom( 360 ) ) );

  001fb	f3 0f e6 c0	 cvtdq2pd xmm0, xmm0
  001ff	c1 e9 1f	 shr	 ecx, 31			; 0000001fH
  00202	51		 push	 ecx
  00203	f2 0f 58 04 cd
	00 00 00 00	 addsd	 xmm0, QWORD PTR __xmm@41f00000000000000000000000000000[ecx*8]
  0020c	8b ce		 mov	 ecx, esi
  0020e	66 0f 5a c0	 cvtpd2ps xmm0, xmm0
  00212	f3 0f 11 04 24	 movss	 DWORD PTR [esp], xmm0
  00217	e8 00 00 00 00	 call	 ?SetAngle@CObj@@QAEXM@Z	; CObj::SetAngle

; 1012 : 				pWorld->ADDOBJ( pItem, TRUE, pUser->GetLayer() );

  0021c	ff b7 b8 01 00
	00		 push	 DWORD PTR [edi+440]
  00222	8b 4d dc	 mov	 ecx, DWORD PTR _pWorld$1$[ebp]
  00225	6a 01		 push	 1
  00227	56		 push	 esi
  00228	e8 00 00 00 00	 call	 ?AddObj@CWorld@@QAEHPAVCObj@@HH@Z ; CWorld::AddObj

; 1013 : 				return 1;

  0022d	b8 01 00 00 00	 mov	 eax, 1
  00232	eb 26		 jmp	 SHORT $LN1@DropQuestI
$LN23@DropQuestI:
; File C:\IAGOS\server\v18\Source\Source\_Common\Project.h

; 579  : 	LPCTSTR szErr = Error( _T( "%s min:%d, max:%d, index:%d" ), szMsg, nMin, nMax, nIndex ); 

  00234	56		 push	 esi
  00235	50		 push	 eax
  00236	6a 00		 push	 0
  00238	68 00 00 00 00	 push	 OFFSET ??_C@_0BI@BEIFNGEL@GetItemProp?5range_error@
  0023d	68 00 00 00 00	 push	 OFFSET ??_C@_0BM@HMFGHCP@?$CFs?5min?3?$CFd?0?5max?3?$CFd?0?5index?3?$CFd@
  00242	e8 00 00 00 00	 call	 ?Error@@YAPBDPBDZZ	; Error
  00247	83 c4 14	 add	 esp, 20			; 00000014H
$LN3@DropQuestI:
; File C:\IAGOS\server\v18\Source\Source\_Common\scriptlib.cpp

; 1018 : 			Error( "DropQuestItem, %d null prop", v1 );

  0024a	56		 push	 esi
  0024b	68 00 00 00 00	 push	 OFFSET ??_C@_0BM@IKAGMOLM@DropQuestItem?0?5?$CFd?5null?5prop@
  00250	e8 00 00 00 00	 call	 ?Error@@YAPBDPBDZZ	; Error
  00255	83 c4 08	 add	 esp, 8
$LN4@DropQuestI:

; 1019 : 		}
; 1020 : 	}
; 1021 : 	return 0;

  00258	33 c0		 xor	 eax, eax
$LN1@DropQuestI:

; 1022 : }

  0025a	8b 4d f4	 mov	 ecx, DWORD PTR __$EHRec$[ebp]
  0025d	64 89 0d 00 00
	00 00		 mov	 DWORD PTR fs:0, ecx
  00264	59		 pop	 ecx
  00265	5f		 pop	 edi
  00266	5e		 pop	 esi
  00267	5b		 pop	 ebx
  00268	8b 4d f0	 mov	 ecx, DWORD PTR __$ArrayPad$[ebp]
  0026b	33 cd		 xor	 ecx, ebp
  0026d	e8 00 00 00 00	 call	 @__security_check_cookie@4
  00272	8b e5		 mov	 esp, ebp
  00274	5d		 pop	 ebp
  00275	c2 0c 00	 ret	 12			; 0000000cH
_TEXT	ENDS
;	COMDAT text$x
text$x	SEGMENT
__unwindfunclet$?DropQuestItem@@YGHPAUNPCDIALOG_INFO@@KK@Z$0:
  00000	68 b0 00 00 00	 push	 176			; 000000b0H
  00005	8b 45 d8	 mov	 eax, DWORD PTR $T2[ebp]
  00008	50		 push	 eax
  00009	e8 00 00 00 00	 call	 ??3@YAXPAXI@Z		; operator delete
  0000e	83 c4 08	 add	 esp, 8
  00011	c3		 ret	 0
__unwindfunclet$?DropQuestItem@@YGHPAUNPCDIALOG_INFO@@KK@Z$1:
  00012	68 48 02 00 00	 push	 584			; 00000248H
  00017	8b 45 d8	 mov	 eax, DWORD PTR $T3[ebp]
  0001a	50		 push	 eax
  0001b	e8 00 00 00 00	 call	 ??3@YAXPAXI@Z		; operator delete
  00020	83 c4 08	 add	 esp, 8
  00023	c3		 ret	 0
  00024	cc		 int	 3
  00025	cc		 int	 3
  00026	cc		 int	 3
  00027	cc		 int	 3
  00028	cc		 int	 3
__ehhandler$?DropQuestItem@@YGHPAUNPCDIALOG_INFO@@KK@Z:
  00029	90		 npad	 1
  0002a	90		 npad	 1
  0002b	8b 54 24 08	 mov	 edx, DWORD PTR [esp+8]
  0002f	8d 42 0c	 lea	 eax, DWORD PTR [edx+12]
  00032	8b 4a d4	 mov	 ecx, DWORD PTR [edx-44]
  00035	33 c8		 xor	 ecx, eax
  00037	e8 00 00 00 00	 call	 @__security_check_cookie@4
  0003c	8b 4a fc	 mov	 ecx, DWORD PTR [edx-4]
  0003f	33 c8		 xor	 ecx, eax
  00041	e8 00 00 00 00	 call	 @__security_check_cookie@4
  00046	b8 00 00 00 00	 mov	 eax, OFFSET __ehfuncinfo$?DropQuestItem@@YGHPAUNPCDIALOG_INFO@@KK@Z
  0004b	e9 00 00 00 00	 jmp	 ___CxxFrameHandler3
text$x	ENDS
?DropQuestItem@@YGHPAUNPCDIALOG_INFO@@KK@Z ENDP		; DropQuestItem
; Function compile flags: /Ogtp
; File C:\IAGOS\server\v18\Source\Source\_Common\scriptlib.cpp
;	COMDAT ?PlaySoundA@@YGHPAUNPCDIALOG_INFO@@PBD@Z
_TEXT	SEGMENT
_pInfo$ = 8						; size = 4
_szMusic$ = 12						; size = 4
?PlaySoundA@@YGHPAUNPCDIALOG_INFO@@PBD@Z PROC		; PlaySoundA, COMDAT

; 978  : {

  00000	55		 push	 ebp
  00001	8b ec		 mov	 ebp, esp

; 979  : 	CUser* pUser = prj.GetUser( pInfo->GetPcId() );

  00003	8b 4d 08	 mov	 ecx, DWORD PTR _pInfo$[ebp]
  00006	8b 01		 mov	 eax, DWORD PTR [ecx]
  00008	ff 50 18	 call	 DWORD PTR [eax+24]
  0000b	50		 push	 eax
  0000c	b9 00 00 00 00	 mov	 ecx, OFFSET ?prj@@3VCProject@@A ; prj
  00011	e8 00 00 00 00	 call	 ?GetUser@CProject@@QAEPAVCUser@@K@Z ; CProject::GetUser

; 980  : 	pUser->AddPlaySound2( szMusic );

  00016	ff 75 0c	 push	 DWORD PTR _szMusic$[ebp]
  00019	8b c8		 mov	 ecx, eax
  0001b	e8 00 00 00 00	 call	 ?AddPlaySound2@CUser@@QAEXPBD@Z ; CUser::AddPlaySound2

; 981  : 	return 1;

  00020	b8 01 00 00 00	 mov	 eax, 1

; 982  : }

  00025	5d		 pop	 ebp
  00026	c2 08 00	 ret	 8
?PlaySoundA@@YGHPAUNPCDIALOG_INFO@@PBD@Z ENDP		; PlaySoundA
_TEXT	ENDS
; Function compile flags: /Ogtp
; File C:\IAGOS\server\v18\Source\Source\_Common\scriptlib.cpp
; File C:\IAGOS\server\v18\Source\Source\_network\CmnHdr.h
; File C:\IAGOS\server\v18\Source\Source\_Common\scriptlib.cpp
; File C:\IAGOS\server\v18\Source\Source\_network\CmnHdr.h
; File C:\IAGOS\server\v18\Source\Source\_Common\scriptlib.cpp
; File C:\IAGOS\server\v18\Source\Source\_network\CmnHdr.h
; File C:\IAGOS\server\v18\Source\Source\_Common\scriptlib.cpp
; File C:\IAGOS\server\v18\Source\Source\_Common\Project.h
; File C:\IAGOS\server\v18\Source\Source\_Common\scriptlib.cpp
; File C:\IAGOS\server\v18\Source\Source\_Common\Project.h
; File C:\IAGOS\server\v18\Source\Source\_Common\data.h
; File C:\IAGOS\server\v18\Source\Source\_Common\scriptlib.cpp
; File C:\IAGOS\server\v18\Source\Source\_Common\Obj.h
; File C:\IAGOS\server\v18\Source\Source\_Common\scriptlib.cpp
; File C:\IAGOS\server\v18\Source\Source\_Common\Obj.h
; File C:\IAGOS\server\v18\Source\Source\_Common\scriptlib.cpp
; File C:\IAGOS\server\v18\Source\Source\_Common\Obj.h
; File C:\IAGOS\server\v18\Source\Source\_Common\scriptlib.cpp
; File C:\IAGOS\server\v18\Source\Source\_Common\xUtil.h
; File C:\IAGOS\server\v18\Source\Source\_Common\scriptlib.cpp
; File C:\IAGOS\server\v18\Source\Source\_Common\Project.h
; File C:\IAGOS\server\v18\Source\Source\_Common\data.h
; File C:\IAGOS\server\v18\Source\Source\_Common\Project.h
; File C:\IAGOS\server\v18\Source\Source\_Common\scriptlib.cpp
; File C:\IAGOS\server\v18\Source\Source\_Common\Project.h
; File C:\IAGOS\server\v18\Source\Source\_Common\scriptlib.cpp
;	COMDAT ?EquipItem@@YGHPAUNPCDIALOG_INFO@@K@Z
_TEXT	SEGMENT
_pUser$1$ = -416					; size = 4
$T2 = -412						; size = 4
$T3 = -412						; size = 4
$T4 = -412						; size = 4
_nId$ = -405						; size = 1
_aLogItem$5 = -404					; size = 200
_itemElem$ = -204					; size = 176
$T6 = -28						; size = 12
__$ArrayPad$ = -16					; size = 4
__$EHRec$ = -12						; size = 12
_pInfo$ = 8						; size = 4
_dwID$ = 12						; size = 4
?EquipItem@@YGHPAUNPCDIALOG_INFO@@K@Z PROC		; EquipItem, COMDAT

; 927  : {

  00000	55		 push	 ebp
  00001	8b ec		 mov	 ebp, esp
  00003	6a ff		 push	 -1
  00005	68 00 00 00 00	 push	 __ehhandler$?EquipItem@@YGHPAUNPCDIALOG_INFO@@K@Z
  0000a	64 a1 00 00 00
	00		 mov	 eax, DWORD PTR fs:0
  00010	50		 push	 eax
  00011	81 ec 94 01 00
	00		 sub	 esp, 404		; 00000194H
  00017	a1 00 00 00 00	 mov	 eax, DWORD PTR ___security_cookie
  0001c	33 c5		 xor	 eax, ebp
  0001e	89 45 f0	 mov	 DWORD PTR __$ArrayPad$[ebp], eax
  00021	56		 push	 esi
  00022	57		 push	 edi
  00023	50		 push	 eax
  00024	8d 45 f4	 lea	 eax, DWORD PTR __$EHRec$[ebp]
  00027	64 a3 00 00 00
	00		 mov	 DWORD PTR fs:0, eax
  0002d	8b 4d 08	 mov	 ecx, DWORD PTR _pInfo$[ebp]

; 928  : 	int v1	= dwID;
; 929  : 	CUser* pUser	= prj.GetUser( pInfo->GetPcId() );

  00030	8b 01		 mov	 eax, DWORD PTR [ecx]
  00032	8b 40 18	 mov	 eax, DWORD PTR [eax+24]
  00035	ff d0		 call	 eax
  00037	50		 push	 eax
  00038	b9 00 00 00 00	 mov	 ecx, OFFSET ?prj@@3VCProject@@A ; prj
  0003d	e8 00 00 00 00	 call	 ?GetUser@CProject@@QAEPAVCUser@@K@Z ; CProject::GetUser
  00042	8b f8		 mov	 edi, eax

; 930  : 	BYTE nId, nCount	= 1;
; 931  : 	
; 932  : 	CItemElem itemElem;

  00044	8d 8d 34 ff ff
	ff		 lea	 ecx, DWORD PTR _itemElem$[ebp]
  0004a	89 bd 60 fe ff
	ff		 mov	 DWORD PTR _pUser$1$[ebp], edi
  00050	e8 00 00 00 00	 call	 ??0CItemElem@@QAE@XZ	; CItemElem::CItemElem

; 933  : 	itemElem.m_dwItemId		= v1;

  00055	8b 75 0c	 mov	 esi, DWORD PTR _dwID$[ebp]

; 934  : 	itemElem.m_nItemNum		= 1;

  00058	b8 01 00 00 00	 mov	 eax, 1

; 935  : 	itemElem.SetAbilityOption( 0 );
; 936  : 	if( pUser->CreateItem( &itemElem, &nId ) == TRUE )

  0005d	6a 00		 push	 0
  0005f	66 89 45 a8	 mov	 WORD PTR _itemElem$[ebp+116], ax
  00063	8b cf		 mov	 ecx, edi
  00065	6a 00		 push	 0
  00067	8d 85 6b fe ff
	ff		 lea	 eax, DWORD PTR _nId$[ebp]
  0006d	c7 45 fc 00 00
	00 00		 mov	 DWORD PTR __$EHRec$[ebp+8], 0
  00074	50		 push	 eax
  00075	8d 85 34 ff ff
	ff		 lea	 eax, DWORD PTR _itemElem$[ebp]
  0007b	89 b5 40 ff ff
	ff		 mov	 DWORD PTR _itemElem$[ebp+12], esi
  00081	50		 push	 eax
  00082	c7 45 98 00 00
	00 00		 mov	 DWORD PTR _itemElem$[ebp+100], 0
  00089	e8 00 00 00 00	 call	 ?CreateItem@CMover@@QAEHPAVCItemBase@@PAEPAFE@Z ; CMover::CreateItem
  0008e	83 f8 01	 cmp	 eax, 1
  00091	0f 85 ab 01 00
	00		 jne	 $LN2@EquipItem

; 937  : 	{
; 938  : 		CItemElem* pItemElem	= pUser->m_Inventory.GetAtId( nId );

  00097	0f b6 85 6b fe
	ff ff		 movzx	 eax, BYTE PTR _nId$[ebp]
  0009e	8d 8f fc 0a 00
	00		 lea	 ecx, DWORD PTR [edi+2812]
  000a4	50		 push	 eax
  000a5	e8 00 00 00 00	 call	 ?GetAtId@?$CItemContainer@VCItemElem@@@@QAEPAVCItemElem@@K@Z ; CItemContainer<CItemElem>::GetAtId
  000aa	8b f0		 mov	 esi, eax

; 939  : 		if( pItemElem && TRUE == pUser->DoEquip( pItemElem, TRUE ) )

  000ac	85 f6		 test	 esi, esi
  000ae	74 20		 je	 SHORT $LN4@EquipItem
  000b0	6a ff		 push	 -1
  000b2	6a 01		 push	 1
  000b4	56		 push	 esi
  000b5	8b cf		 mov	 ecx, edi
  000b7	e8 00 00 00 00	 call	 ?DoEquip@CMover@@QAEHPAVCItemElem@@HH@Z ; CMover::DoEquip
  000bc	83 f8 01	 cmp	 eax, 1
  000bf	75 0f		 jne	 SHORT $LN4@EquipItem

; 940  : 		{
; 941  : 			g_UserMng.AddDoEquip( (CMover*)pUser, -1, pItemElem, TRUE );

  000c1	50		 push	 eax
  000c2	56		 push	 esi
  000c3	6a ff		 push	 -1
  000c5	57		 push	 edi
  000c6	b9 00 00 00 00	 mov	 ecx, OFFSET ?g_UserMng@@3VCUserMng@@A ; g_UserMng
  000cb	e8 00 00 00 00	 call	 ?AddDoEquip@CUserMng@@QAEXPAVCMover@@HPAVCItemElem@@E@Z ; CUserMng::AddDoEquip
$LN4@EquipItem:
  000d0	0f 57 c0	 xorps	 xmm0, xmm0
; File C:\IAGOS\server\v18\Source\Source\_network\CmnHdr.h

; 638  : 		SendName = _T("");

  000d3	c7 85 70 fe ff
	ff 00 00 00 00	 mov	 DWORD PTR _aLogItem$5[ebp+4], OFFSET ??_C@_00CNPNBAHC@@

; 645  : 		::memset( szItemName, 0, sizeof(szItemName) );

  000dd	0f 11 85 90 fe
	ff ff		 movups	 XMMWORD PTR _aLogItem$5[ebp+36], xmm0

; 683  : 		wPetEnergy = 0;

  000e4	33 c0		 xor	 eax, eax
; File C:\IAGOS\server\v18\Source\Source\_Common\scriptlib.cpp

; 946  : 		aLogItem.SendName = pUser->GetName();

  000e6	8b cf		 mov	 ecx, edi
; File C:\IAGOS\server\v18\Source\Source\_network\CmnHdr.h

; 645  : 		::memset( szItemName, 0, sizeof(szItemName) );

  000e8	0f 11 85 a0 fe
	ff ff		 movups	 XMMWORD PTR _aLogItem$5[ebp+52], xmm0
; File C:\IAGOS\server\v18\Source\Source\_Common\scriptlib.cpp

; 946  : 		aLogItem.SendName = pUser->GetName();

  000ef	50		 push	 eax
; File C:\IAGOS\server\v18\Source\Source\_network\CmnHdr.h

; 649  : 		nSlot = 100;

  000f0	0f 28 05 00 00
	00 00		 movaps	 xmm0, XMMWORD PTR __xmm@00000000000000000000006400000064
  000f7	0f 11 85 bc fe
	ff ff		 movups	 XMMWORD PTR _aLogItem$5[ebp+80], xmm0
  000fe	c7 85 74 fe ff
	ff 00 00 00 00	 mov	 DWORD PTR _aLogItem$5[ebp+8], OFFSET ??_C@_00CNPNBAHC@@
  00108	0f 57 c0	 xorps	 xmm0, xmm0

; 639  : 		RecvName = _T("");
; 640  : 		WorldId = Gold = Gold2 = 0;

  0010b	c7 85 80 fe ff
	ff 00 00 00 00	 mov	 DWORD PTR _aLogItem$5[ebp+20], 0
  00115	c7 85 7c fe ff
	ff 00 00 00 00	 mov	 DWORD PTR _aLogItem$5[ebp+16], 0
  0011f	c7 85 78 fe ff
	ff 00 00 00 00	 mov	 DWORD PTR _aLogItem$5[ebp+12], 0

; 641  : 		Negudo = 0;

  00129	c7 85 88 fe ff
	ff 00 00 00 00	 mov	 DWORD PTR _aLogItem$5[ebp+28], 0

; 642  : 		MaxNegudo = 0;

  00133	c7 85 8c fe ff
	ff 00 00 00 00	 mov	 DWORD PTR _aLogItem$5[ebp+32], 0

; 643  : 		ItemNo = 0;

  0013d	c7 85 84 fe ff
	ff 00 00 00 00	 mov	 DWORD PTR _aLogItem$5[ebp+24], 0

; 646  : 		itemNumber = 0;

  00147	c7 85 b0 fe ff
	ff 00 00 00 00	 mov	 DWORD PTR _aLogItem$5[ebp+68], 0

; 647  : 		nAbilityOption = 0;

  00151	c7 85 b4 fe ff
	ff 00 00 00 00	 mov	 DWORD PTR _aLogItem$5[ebp+72], 0

; 648  : 		Gold_1 = 0;

  0015b	c7 85 b8 fe ff
	ff 00 00 00 00	 mov	 DWORD PTR _aLogItem$5[ebp+76], 0

; 650  : 		nSlot1 = 100;
; 651  : 		nItemResist = 0;
; 652  : 		nResistAbilityOption = 0;
; 653  : 		m_bCharged = FALSE;

  00165	c7 85 cc fe ff
	ff 00 00 00 00	 mov	 DWORD PTR _aLogItem$5[ebp+96], 0

; 654  : 		m_dwKeepTime = 0;

  0016f	c7 85 d0 fe ff
	ff 00 00 00 00	 mov	 DWORD PTR _aLogItem$5[ebp+100], 0

; 655  : #if __VER >= 11 // __SYS_IDENTIFY
; 656  : 		m_iRandomOptItemId = 0;

  00179	66 0f 13 85 d4
	fe ff ff	 movlpd	 QWORD PTR _aLogItem$5[ebp+104], xmm0

; 657  : #else	//__SYS_IDENTIFY
; 658  : 		m_nRandomOptItemId = 0;
; 659  : #endif	// __SYS_IDENTIFY
; 660  : #if __VER >= 12 // __EXT_PIERCING
; 661  : 		nPiercedSize = 0;

  00181	c7 85 dc fe ff
	ff 00 00 00 00	 mov	 DWORD PTR _aLogItem$5[ebp+112], 0

; 662  : //		for( int i=0; i<MAX_PIERCING_WEAPON; i++ )
; 663  : //			adwItemId[i] = 0;
; 664  : 		memset( adwItemId, 0, sizeof(adwItemId) );

  0018b	0f 11 85 e0 fe
	ff ff		 movups	 XMMWORD PTR _aLogItem$5[ebp+116], xmm0

; 665  : 		nUMPiercedSize = 0;

  00192	c7 85 08 ff ff
	ff 00 00 00 00	 mov	 DWORD PTR _aLogItem$5[ebp+156], 0
  0019c	0f 11 85 f0 fe
	ff ff		 movups	 XMMWORD PTR _aLogItem$5[ebp+132], xmm0

; 666  : //		for( i=0; i<MAX_PIERCING_ULTIMATE; i++ )
; 667  : //	adwUMItemId[i] = 0;
; 668  : 		memset( adwUMItemId, 0, sizeof(adwUMItemId) );

  001a3	c7 85 1c ff ff
	ff 00 00 00 00	 mov	 DWORD PTR _aLogItem$5[ebp+176], 0
  001ad	66 0f d6 85 00
	ff ff ff	 movq	 QWORD PTR _aLogItem$5[ebp+148], xmm0
  001b5	0f 11 85 0c ff
	ff ff		 movups	 XMMWORD PTR _aLogItem$5[ebp+160], xmm0

; 669  : #else // __EXT_PIERCING
; 670  : 		nPiercedSize = 0;
; 671  : 		adwItemId0 = 0;
; 672  : 		adwItemId1 = 0;
; 673  : 		adwItemId2 = 0;
; 674  : 		adwItemId3 = 0;
; 675  : #if __VER >= 9 // __ULTIMATE
; 676  : 		adwItemId4 = 0;
; 677  : #endif // __ULTIMATE
; 678  : #endif // __EXT_PIERCING
; 679  : #if __VER >= 9 // __PET_0410
; 680  : 		nPetKind = 0;

  001bc	66 c7 85 20 ff
	ff ff 00 00	 mov	 WORD PTR _aLogItem$5[ebp+180], 0

; 681  : 		nPetLevel = 0;
; 682  : 		dwPetExp = 0;

  001c5	c7 85 24 ff ff
	ff 00 00 00 00	 mov	 DWORD PTR _aLogItem$5[ebp+184], 0

; 683  : 		wPetEnergy = 0;

  001cf	89 85 28 ff ff
	ff		 mov	 DWORD PTR _aLogItem$5[ebp+188], eax

; 684  : 		wPetLife = 0;
; 685  : 		nPetAL_D = 0;

  001d5	89 85 2c ff ff
	ff		 mov	 DWORD PTR _aLogItem$5[ebp+192], eax

; 686  : 		nPetAL_C = 0;
; 687  : 		nPetAL_B = 0;
; 688  : 		nPetAL_A = 0;
; 689  : 		nPetAL_S = 0;

  001db	88 85 30 ff ff
	ff		 mov	 BYTE PTR _aLogItem$5[ebp+196], al
; File C:\IAGOS\server\v18\Source\Source\_Common\scriptlib.cpp

; 945  : 		aLogItem.Action = "Q";

  001e1	c7 85 6c fe ff
	ff 00 00 00 00	 mov	 DWORD PTR _aLogItem$5[ebp], OFFSET ??_C@_01BNIGIBBF@Q@

; 946  : 		aLogItem.SendName = pUser->GetName();

  001eb	e8 00 00 00 00	 call	 ?GetName@CMover@@QAEPBDH@Z ; CMover::GetName
  001f0	89 85 70 fe ff
	ff		 mov	 DWORD PTR _aLogItem$5[ebp+4], eax

; 947  : 		aLogItem.RecvName = "QUEST";
; 948  : 		aLogItem.WorldId = pUser->GetWorld()->GetID();
; 949  : 		aLogItem.Gold = aLogItem.Gold2 = pUser->GetGold();
; 950  : 		g_DPSrvr.OnLogItem( aLogItem, &itemElem, itemElem.m_nItemNum );

  001f6	b9 00 00 00 00	 mov	 ecx, OFFSET ?g_DPSrvr@@3VCDPSrvr@@A ; g_DPSrvr
  001fb	8b 87 6c 01 00
	00		 mov	 eax, DWORD PTR [edi+364]
  00201	c7 85 74 fe ff
	ff 00 00 00 00	 mov	 DWORD PTR _aLogItem$5[ebp+8], OFFSET ??_C@_05GFPLGFAD@QUEST@
  0020b	8b 00		 mov	 eax, DWORD PTR [eax]
  0020d	89 85 78 fe ff
	ff		 mov	 DWORD PTR _aLogItem$5[ebp+12], eax
  00213	8b 87 e0 14 00
	00		 mov	 eax, DWORD PTR [edi+5344]
  00219	89 85 80 fe ff
	ff		 mov	 DWORD PTR _aLogItem$5[ebp+20], eax
  0021f	89 85 7c fe ff
	ff		 mov	 DWORD PTR _aLogItem$5[ebp+16], eax
  00225	0f bf 45 a8	 movsx	 eax, WORD PTR _itemElem$[ebp+116]
  00229	50		 push	 eax
  0022a	8d 85 34 ff ff
	ff		 lea	 eax, DWORD PTR _itemElem$[ebp]
  00230	50		 push	 eax
  00231	8d 85 6c fe ff
	ff		 lea	 eax, DWORD PTR _aLogItem$5[ebp]
  00237	50		 push	 eax
  00238	e8 00 00 00 00	 call	 ?OnLogItem@CDPSrvr@@QAEXAAU_LogItemInfo@@PAVCItemElem@@H@Z ; CDPSrvr::OnLogItem

; 951  : 	}

  0023d	e9 dc 01 00 00	 jmp	 $LN5@EquipItem
$LN2@EquipItem:

; 954  : 		CItemElem* pItemElem	= new CItemElem;

  00242	68 b0 00 00 00	 push	 176			; 000000b0H
  00247	e8 00 00 00 00	 call	 ??2@YAPAXI@Z		; operator new
  0024c	83 c4 04	 add	 esp, 4
  0024f	89 85 64 fe ff
	ff		 mov	 DWORD PTR $T2[ebp], eax
  00255	c6 45 fc 01	 mov	 BYTE PTR __$EHRec$[ebp+8], 1
  00259	85 c0		 test	 eax, eax
  0025b	74 0b		 je	 SHORT $LN8@EquipItem
  0025d	8b c8		 mov	 ecx, eax
  0025f	e8 00 00 00 00	 call	 ??0CItemElem@@QAE@XZ	; CItemElem::CItemElem
  00264	8b f8		 mov	 edi, eax
  00266	eb 02		 jmp	 SHORT $LN9@EquipItem
$LN8@EquipItem:
  00268	33 ff		 xor	 edi, edi
$LN9@EquipItem:

; 955  : 		pItemElem->m_dwItemId	= v1;

  0026a	89 77 0c	 mov	 DWORD PTR [edi+12], esi
; File C:\IAGOS\server\v18\Source\Source\_Common\Project.h

; 1389 : 	VERIFY_RANGE_ASSERT( nIndex, 0, m_aPropItem.GetSize(), "GetItemProp range_error", NULL );

  0026d	a1 40 02 00 00	 mov	 eax, DWORD PTR ?prj@@3VCProject@@A+576
; File C:\IAGOS\server\v18\Source\Source\_Common\scriptlib.cpp

; 954  : 		CItemElem* pItemElem	= new CItemElem;

  00272	c6 45 fc 00	 mov	 BYTE PTR __$EHRec$[ebp+8], 0
; File C:\IAGOS\server\v18\Source\Source\_Common\Project.h

; 1389 : 	VERIFY_RANGE_ASSERT( nIndex, 0, m_aPropItem.GetSize(), "GetItemProp range_error", NULL );

  00276	85 f6		 test	 esi, esi
  00278	0f 88 8a 01 00
	00		 js	 $LN24@EquipItem
  0027e	3b f0		 cmp	 esi, eax
  00280	0f 8d 82 01 00
	00		 jge	 $LN24@EquipItem
; File C:\IAGOS\server\v18\Source\Source\_Common\data.h

; 270  : 	if( dwIndex >= (DWORD)m_nMaxIndex )

  00286	72 04		 jb	 SHORT $LN29@EquipItem

; 271  : 		return NULL;

  00288	33 c0		 xor	 eax, eax
  0028a	eb 08		 jmp	 SHORT $LN28@EquipItem
$LN29@EquipItem:

; 272  : 	return (T*) m_apOffset[ dwIndex ];

  0028c	a1 30 02 00 00	 mov	 eax, DWORD PTR ?prj@@3VCProject@@A+560
  00291	8b 04 b0	 mov	 eax, DWORD PTR [eax+esi*4]
$LN28@EquipItem:
; File C:\IAGOS\server\v18\Source\Source\_Common\scriptlib.cpp

; 957  : 		if( pItemProp )

  00294	85 c0		 test	 eax, eax
  00296	0f 84 82 01 00
	00		 je	 $LN5@EquipItem

; 958  : 		{
; 959  : 			pItemElem->m_nHitPoint	= pItemProp->dwEndurance;

  0029c	8b 80 90 00 00
	00		 mov	 eax, DWORD PTR [eax+144]
  002a2	89 47 70	 mov	 DWORD PTR [edi+112], eax

; 960  : 			pItemElem->m_nItemNum	= 1;

  002a5	b8 01 00 00 00	 mov	 eax, 1

; 961  : 			pItemElem->SetAbilityOption( 0 );
; 962  : 			CItem* pItem	= new CItem;

  002aa	68 48 02 00 00	 push	 584			; 00000248H
  002af	66 89 47 74	 mov	 WORD PTR [edi+116], ax
  002b3	c7 47 64 00 00
	00 00		 mov	 DWORD PTR [edi+100], 0
  002ba	e8 00 00 00 00	 call	 ??2@YAPAXI@Z		; operator new
  002bf	83 c4 04	 add	 esp, 4
  002c2	89 85 64 fe ff
	ff		 mov	 DWORD PTR $T3[ebp], eax
  002c8	c6 45 fc 02	 mov	 BYTE PTR __$EHRec$[ebp+8], 2
  002cc	85 c0		 test	 eax, eax
  002ce	74 11		 je	 SHORT $LN10@EquipItem
  002d0	8b c8		 mov	 ecx, eax
  002d2	e8 00 00 00 00	 call	 ??0CItem@@QAE@XZ	; CItem::CItem
  002d7	8b c8		 mov	 ecx, eax
  002d9	89 85 64 fe ff
	ff		 mov	 DWORD PTR $T4[ebp], eax
  002df	eb 08		 jmp	 SHORT $LN11@EquipItem
$LN10@EquipItem:
  002e1	33 c9		 xor	 ecx, ecx
  002e3	89 8d 64 fe ff
	ff		 mov	 DWORD PTR $T4[ebp], ecx
$LN11@EquipItem:

; 963  : 			pItem->m_pItemBase	= pItemElem;

  002e9	89 b9 30 02 00
	00		 mov	 DWORD PTR [ecx+560], edi

; 964  : 
; 965  : 			if( pItemElem->m_dwItemId == 0 ) Error("EquipItem SetIndex\n" );

  002ef	83 7f 0c 00	 cmp	 DWORD PTR [edi+12], 0
  002f3	c6 45 fc 00	 mov	 BYTE PTR __$EHRec$[ebp+8], 0
  002f7	75 13		 jne	 SHORT $LN6@EquipItem
  002f9	68 00 00 00 00	 push	 OFFSET ??_C@_0BE@ICMDEENE@EquipItem?5SetIndex?6@
  002fe	e8 00 00 00 00	 call	 ?Error@@YAPBDPBDZZ	; Error
  00303	8b 8d 64 fe ff
	ff		 mov	 ecx, DWORD PTR $T4[ebp]
  00309	83 c4 04	 add	 esp, 4
$LN6@EquipItem:

; 966  : 			pItem->SetIndex( D3DDEVICE, pItemElem->m_dwItemId );

  0030c	8b 01		 mov	 eax, DWORD PTR [ecx]
  0030e	6a 00		 push	 0
  00310	ff 77 0c	 push	 DWORD PTR [edi+12]
  00313	6a 00		 push	 0
  00315	ff 50 2c	 call	 DWORD PTR [eax+44]
; File C:\IAGOS\server\v18\Source\Source\_Common\Obj.h

; 215  : 	D3DXVECTOR3		GetPos()	{ return m_vPos; }

  00318	8b bd 60 fe ff
	ff		 mov	 edi, DWORD PTR _pUser$1$[ebp]
; File C:\IAGOS\server\v18\Source\Source\_Common\scriptlib.cpp

; 967  : 			pItem->SetPos( pUser->GetPos() );

  0031e	8b 8d 64 fe ff
	ff		 mov	 ecx, DWORD PTR $T4[ebp]
; File C:\IAGOS\server\v18\Source\Source\_Common\Obj.h

; 215  : 	D3DXVECTOR3		GetPos()	{ return m_vPos; }

  00324	8b 87 68 01 00
	00		 mov	 eax, DWORD PTR [edi+360]
  0032a	f3 0f 7e 87 60
	01 00 00	 movq	 xmm0, QWORD PTR [edi+352]
  00332	89 45 ec	 mov	 DWORD PTR $T6[ebp+8], eax
; File C:\IAGOS\server\v18\Source\Source\_Common\scriptlib.cpp

; 967  : 			pItem->SetPos( pUser->GetPos() );

  00335	8d 45 e4	 lea	 eax, DWORD PTR $T6[ebp]
  00338	50		 push	 eax
; File C:\IAGOS\server\v18\Source\Source\_Common\Obj.h

; 215  : 	D3DXVECTOR3		GetPos()	{ return m_vPos; }

  00339	66 0f d6 45 e4	 movq	 QWORD PTR $T6[ebp], xmm0
; File C:\IAGOS\server\v18\Source\Source\_Common\scriptlib.cpp

; 967  : 			pItem->SetPos( pUser->GetPos() );

  0033e	e8 00 00 00 00	 call	 ?SetPos@CObj@@QAEXABUD3DXVECTOR3@@@Z ; CObj::SetPos
; File C:\IAGOS\server\v18\Source\Source\_Common\xUtil.h

; 16   : 	g_next = g_next * 1103515245 + 12345;// + nRandomSeed[ i++ ];

  00343	69 0d 00 00 00
	00 6d 4e c6 41	 imul	 ecx, DWORD PTR ?g_next@@3KA, 1103515245 ; g_next

; 22   : 	return  xRand() % num;

  0034d	b8 6d c1 16 6c	 mov	 eax, 1813430637		; 6c16c16dH

; 16   : 	g_next = g_next * 1103515245 + 12345;// + nRandomSeed[ i++ ];

  00352	81 c1 39 30 00
	00		 add	 ecx, 12345		; 00003039H

; 22   : 	return  xRand() % num;

  00358	f7 e1		 mul	 ecx
  0035a	8b c1		 mov	 eax, ecx

; 16   : 	g_next = g_next * 1103515245 + 12345;// + nRandomSeed[ i++ ];

  0035c	89 0d 00 00 00
	00		 mov	 DWORD PTR ?g_next@@3KA, ecx ; g_next

; 22   : 	return  xRand() % num;

  00362	2b c2		 sub	 eax, edx
  00364	d1 e8		 shr	 eax, 1
  00366	03 c2		 add	 eax, edx
  00368	c1 e8 08	 shr	 eax, 8
  0036b	69 c0 68 01 00
	00		 imul	 eax, eax, 360
  00371	2b c8		 sub	 ecx, eax
  00373	66 0f 6e c1	 movd	 xmm0, ecx
; File C:\IAGOS\server\v18\Source\Source\_Common\scriptlib.cpp

; 968  : 			pItem->SetAngle( (float)( xRandom( 360 ) ) );

  00377	f3 0f e6 c0	 cvtdq2pd xmm0, xmm0
  0037b	c1 e9 1f	 shr	 ecx, 31			; 0000001fH
  0037e	51		 push	 ecx
  0037f	f2 0f 58 04 cd
	00 00 00 00	 addsd	 xmm0, QWORD PTR __xmm@41f00000000000000000000000000000[ecx*8]
  00388	8b 8d 64 fe ff
	ff		 mov	 ecx, DWORD PTR $T4[ebp]
  0038e	66 0f 5a c0	 cvtpd2ps xmm0, xmm0
  00392	f3 0f 11 04 24	 movss	 DWORD PTR [esp], xmm0
  00397	e8 00 00 00 00	 call	 ?SetAngle@CObj@@QAEXM@Z	; CObj::SetAngle

; 969  : 			pItem->m_idHolder	= pUser->m_idPlayer;

  0039c	8b 8d 64 fe ff
	ff		 mov	 ecx, DWORD PTR $T4[ebp]
  003a2	8b 87 34 02 00
	00		 mov	 eax, DWORD PTR [edi+564]
  003a8	89 81 34 02 00
	00		 mov	 DWORD PTR [ecx+564], eax

; 970  : 			pUser->GetWorld()->ADDOBJ( pItem, TRUE, pUser->GetLayer() );

  003ae	ff b7 b8 01 00
	00		 push	 DWORD PTR [edi+440]
  003b4	6a 01		 push	 1
  003b6	51		 push	 ecx
  003b7	8b 8f 6c 01 00
	00		 mov	 ecx, DWORD PTR [edi+364]
  003bd	e8 00 00 00 00	 call	 ?AddObj@CWorld@@QAEHPAVCObj@@HH@Z ; CWorld::AddObj
; File C:\IAGOS\server\v18\Source\Source\_Common\Project.h

; 1389 : 	VERIFY_RANGE_ASSERT( nIndex, 0, m_aPropItem.GetSize(), "GetItemProp range_error", NULL );

  003c2	a1 40 02 00 00	 mov	 eax, DWORD PTR ?prj@@3VCProject@@A+576
  003c7	3b f0		 cmp	 esi, eax
  003c9	7d 0c		 jge	 SHORT $LN42@EquipItem
; File C:\IAGOS\server\v18\Source\Source\_Common\data.h

; 270  : 	if( dwIndex >= (DWORD)m_nMaxIndex )

  003cb	73 20		 jae	 SHORT $LN50@EquipItem

; 272  : 	return (T*) m_apOffset[ dwIndex ];

  003cd	a1 30 02 00 00	 mov	 eax, DWORD PTR ?prj@@3VCProject@@A+560
  003d2	8b 04 b0	 mov	 eax, DWORD PTR [eax+esi*4]
; File C:\IAGOS\server\v18\Source\Source\_Common\Project.h

; 1390 : 	return m_aPropItem.GetAt( nIndex ); 

  003d5	eb 18		 jmp	 SHORT $LN37@EquipItem
$LN42@EquipItem:

; 579  : 	LPCTSTR szErr = Error( _T( "%s min:%d, max:%d, index:%d" ), szMsg, nMin, nMax, nIndex ); 

  003d7	56		 push	 esi
  003d8	50		 push	 eax
  003d9	6a 00		 push	 0
  003db	68 00 00 00 00	 push	 OFFSET ??_C@_0BI@BEIFNGEL@GetItemProp?5range_error@
  003e0	68 00 00 00 00	 push	 OFFSET ??_C@_0BM@HMFGHCP@?$CFs?5min?3?$CFd?0?5max?3?$CFd?0?5index?3?$CFd@
  003e5	e8 00 00 00 00	 call	 ?Error@@YAPBDPBDZZ	; Error
  003ea	83 c4 14	 add	 esp, 20			; 00000014H
$LN50@EquipItem:
; File C:\IAGOS\server\v18\Source\Source\_Common\scriptlib.cpp

; 971  : 			pUser->AddDefinedText( TID_GAME_DROPITEM, "\"%s\"", prj.GetItemProp( v1 )->szName );

  003ed	33 c0		 xor	 eax, eax
$LN37@EquipItem:
  003ef	83 c0 04	 add	 eax, 4
  003f2	50		 push	 eax
  003f3	68 00 00 00 00	 push	 OFFSET ??_C@_04OEDFLLKD@?$CC?$CFs?$CC@
  003f8	68 6f 02 00 00	 push	 623			; 0000026fH
  003fd	57		 push	 edi
  003fe	e8 00 00 00 00	 call	 ?AddDefinedText@CUser@@QAAXHPBDZZ ; CUser::AddDefinedText
  00403	83 c4 10	 add	 esp, 16			; 00000010H
  00406	eb 16		 jmp	 SHORT $LN5@EquipItem
$LN24@EquipItem:
; File C:\IAGOS\server\v18\Source\Source\_Common\Project.h

; 579  : 	LPCTSTR szErr = Error( _T( "%s min:%d, max:%d, index:%d" ), szMsg, nMin, nMax, nIndex ); 

  00408	56		 push	 esi
  00409	50		 push	 eax
  0040a	6a 00		 push	 0
  0040c	68 00 00 00 00	 push	 OFFSET ??_C@_0BI@BEIFNGEL@GetItemProp?5range_error@
  00411	68 00 00 00 00	 push	 OFFSET ??_C@_0BM@HMFGHCP@?$CFs?5min?3?$CFd?0?5max?3?$CFd?0?5index?3?$CFd@
  00416	e8 00 00 00 00	 call	 ?Error@@YAPBDPBDZZ	; Error
  0041b	83 c4 14	 add	 esp, 20			; 00000014H
$LN5@EquipItem:
; File C:\IAGOS\server\v18\Source\Source\_Common\scriptlib.cpp

; 974  : 	return 1;

  0041e	8d 8d 34 ff ff
	ff		 lea	 ecx, DWORD PTR _itemElem$[ebp]
  00424	e8 00 00 00 00	 call	 ??1CItemElem@@UAE@XZ	; CItemElem::~CItemElem
  00429	b8 01 00 00 00	 mov	 eax, 1

; 975  : }

  0042e	8b 4d f4	 mov	 ecx, DWORD PTR __$EHRec$[ebp]
  00431	64 89 0d 00 00
	00 00		 mov	 DWORD PTR fs:0, ecx
  00438	59		 pop	 ecx
  00439	5f		 pop	 edi
  0043a	5e		 pop	 esi
  0043b	8b 4d f0	 mov	 ecx, DWORD PTR __$ArrayPad$[ebp]
  0043e	33 cd		 xor	 ecx, ebp
  00440	e8 00 00 00 00	 call	 @__security_check_cookie@4
  00445	8b e5		 mov	 esp, ebp
  00447	5d		 pop	 ebp
  00448	c2 08 00	 ret	 8
_TEXT	ENDS
;	COMDAT text$x
text$x	SEGMENT
__unwindfunclet$?EquipItem@@YGHPAUNPCDIALOG_INFO@@K@Z$0:
  00000	8d 8d 34 ff ff
	ff		 lea	 ecx, DWORD PTR _itemElem$[ebp]
  00006	e9 00 00 00 00	 jmp	 ??1CItemElem@@UAE@XZ	; CItemElem::~CItemElem
__unwindfunclet$?EquipItem@@YGHPAUNPCDIALOG_INFO@@K@Z$1:
  0000b	68 b0 00 00 00	 push	 176			; 000000b0H
  00010	8b 85 64 fe ff
	ff		 mov	 eax, DWORD PTR $T2[ebp]
  00016	50		 push	 eax
  00017	e8 00 00 00 00	 call	 ??3@YAXPAXI@Z		; operator delete
  0001c	83 c4 08	 add	 esp, 8
  0001f	c3		 ret	 0
__unwindfunclet$?EquipItem@@YGHPAUNPCDIALOG_INFO@@K@Z$2:
  00020	68 48 02 00 00	 push	 584			; 00000248H
  00025	8b 85 64 fe ff
	ff		 mov	 eax, DWORD PTR $T3[ebp]
  0002b	50		 push	 eax
  0002c	e8 00 00 00 00	 call	 ??3@YAXPAXI@Z		; operator delete
  00031	83 c4 08	 add	 esp, 8
  00034	c3		 ret	 0
  00035	cc		 int	 3
  00036	cc		 int	 3
  00037	cc		 int	 3
  00038	cc		 int	 3
  00039	cc		 int	 3
__ehhandler$?EquipItem@@YGHPAUNPCDIALOG_INFO@@K@Z:
  0003a	90		 npad	 1
  0003b	90		 npad	 1
  0003c	8b 54 24 08	 mov	 edx, DWORD PTR [esp+8]
  00040	8d 42 0c	 lea	 eax, DWORD PTR [edx+12]
  00043	8b 8a 60 fe ff
	ff		 mov	 ecx, DWORD PTR [edx-416]
  00049	33 c8		 xor	 ecx, eax
  0004b	e8 00 00 00 00	 call	 @__security_check_cookie@4
  00050	8b 4a fc	 mov	 ecx, DWORD PTR [edx-4]
  00053	33 c8		 xor	 ecx, eax
  00055	e8 00 00 00 00	 call	 @__security_check_cookie@4
  0005a	b8 00 00 00 00	 mov	 eax, OFFSET __ehfuncinfo$?EquipItem@@YGHPAUNPCDIALOG_INFO@@K@Z
  0005f	e9 00 00 00 00	 jmp	 ___CxxFrameHandler3
text$x	ENDS
?EquipItem@@YGHPAUNPCDIALOG_INFO@@K@Z ENDP		; EquipItem
; Function compile flags: /Ogtp
; File C:\IAGOS\server\v18\Source\Source\_Common\scriptlib.cpp
;	COMDAT ?RemoveAllItem@@YGHPAUNPCDIALOG_INFO@@K@Z
_TEXT	SEGMENT
_pInfo$ = 8						; size = 4
_dwID$ = 12						; size = 4
?RemoveAllItem@@YGHPAUNPCDIALOG_INFO@@K@Z PROC		; RemoveAllItem, COMDAT

; 921  : {

  00000	55		 push	 ebp
  00001	8b ec		 mov	 ebp, esp

; 922  : 	CUser* pUser = prj.GetUser( pInfo->GetPcId() );

  00003	8b 4d 08	 mov	 ecx, DWORD PTR _pInfo$[ebp]
  00006	8b 01		 mov	 eax, DWORD PTR [ecx]
  00008	ff 50 18	 call	 DWORD PTR [eax+24]
  0000b	50		 push	 eax
  0000c	b9 00 00 00 00	 mov	 ecx, OFFSET ?prj@@3VCProject@@A ; prj
  00011	e8 00 00 00 00	 call	 ?GetUser@CProject@@QAEPAVCUser@@K@Z ; CProject::GetUser

; 923  : 	pUser->RemoveAllItem( dwID );

  00016	ff 75 0c	 push	 DWORD PTR _dwID$[ebp]
  00019	8b c8		 mov	 ecx, eax
  0001b	e8 00 00 00 00	 call	 ?RemoveAllItem@CMover@@QAEHK@Z ; CMover::RemoveAllItem

; 924  : 	return 1;

  00020	b8 01 00 00 00	 mov	 eax, 1

; 925  : }

  00025	5d		 pop	 ebp
  00026	c2 08 00	 ret	 8
?RemoveAllItem@@YGHPAUNPCDIALOG_INFO@@K@Z ENDP		; RemoveAllItem
_TEXT	ENDS
; Function compile flags: /Ogtp
; File C:\IAGOS\server\v18\Source\Source\_Common\scriptlib.cpp
;	COMDAT ?GetItemNum@@YGHPAUNPCDIALOG_INFO@@K@Z
_TEXT	SEGMENT
_pInfo$ = 8						; size = 4
_dwID$ = 12						; size = 4
?GetItemNum@@YGHPAUNPCDIALOG_INFO@@K@Z PROC		; GetItemNum, COMDAT

; 916  : {

  00000	55		 push	 ebp
  00001	8b ec		 mov	 ebp, esp

; 917  : 	CUser* pUser = prj.GetUser( pInfo->GetPcId() );

  00003	8b 4d 08	 mov	 ecx, DWORD PTR _pInfo$[ebp]
  00006	8b 01		 mov	 eax, DWORD PTR [ecx]
  00008	ff 50 18	 call	 DWORD PTR [eax+24]
  0000b	50		 push	 eax
  0000c	b9 00 00 00 00	 mov	 ecx, OFFSET ?prj@@3VCProject@@A ; prj
  00011	e8 00 00 00 00	 call	 ?GetUser@CProject@@QAEPAVCUser@@K@Z ; CProject::GetUser

; 918  : 	return pUser->GetItemNum( dwID );

  00016	ff 75 0c	 push	 DWORD PTR _dwID$[ebp]
  00019	8b c8		 mov	 ecx, eax
  0001b	e8 00 00 00 00	 call	 ?GetItemNum@CMover@@QAEHK@Z ; CMover::GetItemNum

; 919  : }

  00020	5d		 pop	 ebp
  00021	c2 08 00	 ret	 8
?GetItemNum@@YGHPAUNPCDIALOG_INFO@@K@Z ENDP		; GetItemNum
_TEXT	ENDS
; Function compile flags: /Ogtp
; File C:\IAGOS\server\v18\Source\Source\_Common\scriptlib.cpp
;	COMDAT ?GetPlayerSex@@YGHPAUNPCDIALOG_INFO@@@Z
_TEXT	SEGMENT
_pInfo$ = 8						; size = 4
?GetPlayerSex@@YGHPAUNPCDIALOG_INFO@@@Z PROC		; GetPlayerSex, COMDAT

; 911  : {

  00000	55		 push	 ebp
  00001	8b ec		 mov	 ebp, esp

; 912  : 	CUser* pUser = prj.GetUser( pInfo->GetPcId() );

  00003	8b 4d 08	 mov	 ecx, DWORD PTR _pInfo$[ebp]
  00006	8b 01		 mov	 eax, DWORD PTR [ecx]
  00008	ff 50 18	 call	 DWORD PTR [eax+24]
  0000b	50		 push	 eax
  0000c	b9 00 00 00 00	 mov	 ecx, OFFSET ?prj@@3VCProject@@A ; prj
  00011	e8 00 00 00 00	 call	 ?GetUser@CProject@@QAEPAVCUser@@K@Z ; CProject::GetUser

; 913  : 	return pUser->GetSex();

  00016	0f b6 80 18 06
	00 00		 movzx	 eax, BYTE PTR [eax+1560]

; 914  : }

  0001d	5d		 pop	 ebp
  0001e	c2 04 00	 ret	 4
?GetPlayerSex@@YGHPAUNPCDIALOG_INFO@@@Z ENDP		; GetPlayerSex
_TEXT	ENDS
; Function compile flags: /Ogtp
; File C:\IAGOS\server\v18\Source\Source\_Common\scriptlib.cpp
;	COMDAT ?ChangeJob@@YGHPAUNPCDIALOG_INFO@@H@Z
_TEXT	SEGMENT
_pInfo$ = 8						; size = 4
_nJob$ = 12						; size = 4
?ChangeJob@@YGHPAUNPCDIALOG_INFO@@H@Z PROC		; ChangeJob, COMDAT

; 866  : {

  00000	55		 push	 ebp
  00001	8b ec		 mov	 ebp, esp

; 867  : 	int v1	=nJob;
; 868  : 	CUser* pUser	= prj.GetUser( pInfo->GetPcId() );

  00003	8b 4d 08	 mov	 ecx, DWORD PTR _pInfo$[ebp]
  00006	56		 push	 esi
  00007	57		 push	 edi
  00008	8b 01		 mov	 eax, DWORD PTR [ecx]
  0000a	ff 50 18	 call	 DWORD PTR [eax+24]
  0000d	50		 push	 eax
  0000e	b9 00 00 00 00	 mov	 ecx, OFFSET ?prj@@3VCProject@@A ; prj
  00013	e8 00 00 00 00	 call	 ?GetUser@CProject@@QAEPAVCUser@@K@Z ; CProject::GetUser
  00018	8b f0		 mov	 esi, eax

; 869  : 	if( pUser->IsBaseJob() && pUser->GetLevel() != MAX_JOB_LEVEL )

  0001a	8b ce		 mov	 ecx, esi
  0001c	e8 00 00 00 00	 call	 ?IsBaseJob@CMover@@QAEHXZ ; CMover::IsBaseJob
  00021	85 c0		 test	 eax, eax
  00023	74 1e		 je	 SHORT $LN11@ChangeJob
  00025	83 be d8 05 00
	00 0f		 cmp	 DWORD PTR [esi+1496], 15 ; 0000000fH
  0002c	74 15		 je	 SHORT $LN11@ChangeJob

; 870  : 	{
; 871  : 		Error( "Error ChangeJob : 1" );

  0002e	68 00 00 00 00	 push	 OFFSET ??_C@_0BE@JGJACHAB@Error?5ChangeJob?5?3?51@
  00033	e8 00 00 00 00	 call	 ?Error@@YAPBDPBDZZ	; Error
  00038	83 c4 04	 add	 esp, 4

; 872  : 		return 0;

  0003b	33 c0		 xor	 eax, eax
  0003d	5f		 pop	 edi

; 908  : }

  0003e	5e		 pop	 esi
  0003f	5d		 pop	 ebp
  00040	c2 08 00	 ret	 8
$LN11@ChangeJob:

; 873  : 	}
; 874  : 	if( pUser->IsExpert() && pUser->GetLevel() < MAX_JOB_LEVEL + MAX_EXP_LEVEL )

  00043	8b ce		 mov	 ecx, esi
  00045	e8 00 00 00 00	 call	 ?IsExpert@CMover@@QAEHXZ ; CMover::IsExpert
  0004a	85 c0		 test	 eax, eax
  0004c	74 1e		 je	 SHORT $LN12@ChangeJob
  0004e	83 be d8 05 00
	00 3c		 cmp	 DWORD PTR [esi+1496], 60 ; 0000003cH
  00055	7d 15		 jge	 SHORT $LN12@ChangeJob

; 875  : 	{
; 876  : 		Error( "Error ChangeJob : 2" );

  00057	68 00 00 00 00	 push	 OFFSET ??_C@_0BE@LNLNHEMC@Error?5ChangeJob?5?3?52@
  0005c	e8 00 00 00 00	 call	 ?Error@@YAPBDPBDZZ	; Error
  00061	83 c4 04	 add	 esp, 4

; 877  : 		return 0;

  00064	33 c0		 xor	 eax, eax
  00066	5f		 pop	 edi

; 908  : }

  00067	5e		 pop	 esi
  00068	5d		 pop	 ebp
  00069	c2 08 00	 ret	 8
$LN12@ChangeJob:

; 878  : 	}
; 879  : 	if( pUser->IsPro() && pUser->GetLevel() < MAX_GENERAL_LEVEL && pUser->GetExpPercent() < 9999 )

  0006c	8b ce		 mov	 ecx, esi
  0006e	e8 00 00 00 00	 call	 ?IsPro@CMover@@QAEHXZ	; CMover::IsPro
  00073	85 c0		 test	 eax, eax
  00075	74 2c		 je	 SHORT $LN4@ChangeJob
  00077	83 be d8 05 00
	00 78		 cmp	 DWORD PTR [esi+1496], 120 ; 00000078H
  0007e	7d 23		 jge	 SHORT $LN4@ChangeJob
  00080	8b ce		 mov	 ecx, esi
  00082	e8 00 00 00 00	 call	 ?GetExpPercent@CMover@@QAEHXZ ; CMover::GetExpPercent
  00087	3d 0f 27 00 00	 cmp	 eax, 9999		; 0000270fH
  0008c	7d 15		 jge	 SHORT $LN4@ChangeJob

; 880  : 	{
; 881  : 		Error( "Error ChangeJob : 3" );

  0008e	68 00 00 00 00	 push	 OFFSET ??_C@_0BE@KEKGEFID@Error?5ChangeJob?5?3?53@
  00093	e8 00 00 00 00	 call	 ?Error@@YAPBDPBDZZ	; Error
  00098	83 c4 04	 add	 esp, 4

; 882  : 		return 0;

  0009b	33 c0		 xor	 eax, eax
  0009d	5f		 pop	 edi

; 908  : }

  0009e	5e		 pop	 esi
  0009f	5d		 pop	 ebp
  000a0	c2 08 00	 ret	 8
$LN4@ChangeJob:

; 883  : 	}
; 884  : 	if( pUser->AddChangeJob( v1 ) )

  000a3	8b 7d 0c	 mov	 edi, DWORD PTR _nJob$[ebp]
  000a6	8b ce		 mov	 ecx, esi
  000a8	57		 push	 edi
  000a9	e8 00 00 00 00	 call	 ?AddChangeJob@CMover@@QAEHH@Z ; CMover::AddChangeJob
  000ae	85 c0		 test	 eax, eax
  000b0	74 63		 je	 SHORT $LN5@ChangeJob

; 885  : 	{
; 886  : 		pUser->AddSetChangeJob( v1 );

  000b2	57		 push	 edi
  000b3	8b ce		 mov	 ecx, esi
  000b5	e8 00 00 00 00	 call	 ?AddSetChangeJob@CUser@@QAEXH@Z ; CUser::AddSetChangeJob

; 887  : 		g_UserMng.AddNearSetChangeJob( (CMover*)pUser, v1, &pUser->m_aJobSkill[MAX_JOB_SKILL] );

  000ba	8d 86 7c 03 00
	00		 lea	 eax, DWORD PTR [esi+892]
  000c0	b9 00 00 00 00	 mov	 ecx, OFFSET ?g_UserMng@@3VCUserMng@@A ; g_UserMng
  000c5	50		 push	 eax
  000c6	57		 push	 edi
  000c7	56		 push	 esi
  000c8	e8 00 00 00 00	 call	 ?AddNearSetChangeJob@CUserMng@@QAEXPAVCMover@@HPAUtagSkill@@@Z ; CUserMng::AddNearSetChangeJob

; 888  : 		// #dlvr
; 889  : 		g_dpDBClient.SendLogLevelUp( (CUser*)pUser, 4 );

  000cd	6a 04		 push	 4
  000cf	56		 push	 esi
  000d0	b9 00 00 00 00	 mov	 ecx, OFFSET ?g_dpDBClient@@3VCDPDatabaseClient@@A ; g_dpDBClient
  000d5	e8 00 00 00 00	 call	 ?SendLogLevelUp@CDPDatabaseClient@@QAEXPAVCMover@@H@Z ; CDPDatabaseClient::SendLogLevelUp

; 890  : #ifdef __S_RECOMMEND_EVE
; 891  : 		if( g_eLocal.GetState( EVE_RECOMMEND ) && pUser->IsPlayer() )

  000da	6a 15		 push	 21			; 00000015H
  000dc	b9 00 00 00 00	 mov	 ecx, OFFSET ?g_eLocal@@3VCFlyffEvent@@A ; g_eLocal
  000e1	e8 00 00 00 00	 call	 ?GetState@CFlyffEvent@@QAEEH@Z ; CFlyffEvent::GetState
  000e6	84 c0		 test	 al, al
  000e8	74 15		 je	 SHORT $LN7@ChangeJob
  000ea	83 be 30 02 00
	00 00		 cmp	 DWORD PTR [esi+560], 0
  000f1	74 0c		 je	 SHORT $LN7@ChangeJob

; 892  : 			g_dpDBClient.SendRecommend( (CUser*)pUser, v1 );

  000f3	57		 push	 edi
  000f4	56		 push	 esi
  000f5	b9 00 00 00 00	 mov	 ecx, OFFSET ?g_dpDBClient@@3VCDPDatabaseClient@@A ; g_dpDBClient
  000fa	e8 00 00 00 00	 call	 ?SendRecommend@CDPDatabaseClient@@QAEXPAVCUser@@H@Z ; CDPDatabaseClient::SendRecommend
$LN7@ChangeJob:

; 893  : #endif // __S_RECOMMEND_EVE
; 894  : #if __VER >= 11 // __SYS_PLAYER_DATA
; 895  : 		g_dpDBClient.SendUpdatePlayerData( pUser );

  000ff	56		 push	 esi
  00100	b9 00 00 00 00	 mov	 ecx, OFFSET ?g_dpDBClient@@3VCDPDatabaseClient@@A ; g_dpDBClient
  00105	e8 00 00 00 00	 call	 ?SendUpdatePlayerData@CDPDatabaseClient@@QAEXPAVCUser@@@Z ; CDPDatabaseClient::SendUpdatePlayerData
  0010a	5f		 pop	 edi

; 906  : 	}
; 907  : 	return 1;

  0010b	b8 01 00 00 00	 mov	 eax, 1

; 908  : }

  00110	5e		 pop	 esi
  00111	5d		 pop	 ebp
  00112	c2 08 00	 ret	 8
$LN5@ChangeJob:

; 896  : #else	// __SYS_PLAYER_DATA
; 897  : 		g_DPCoreClient.SendPartyMemberJob( (CUser*)pUser );
; 898  : 		g_DPCoreClient.SendFriendChangeJob( (CUser*)pUser );
; 899  : 		if( pUser->m_idGuild != 0 )
; 900  : 			g_DPCoreClient.SendGuildChangeJobLevel( (CUser*)pUser );
; 901  : #endif	// __SYS_PLAYER_DATA
; 902  : 	}
; 903  : 	else
; 904  : 	{
; 905  : 		Error( "Error ChangeJob : CMover::AddChangeJob" );

  00115	68 00 00 00 00	 push	 OFFSET ??_C@_0CH@NIAJEEOE@Error?5ChangeJob?5?3?5CMover?3?3AddCh@
  0011a	e8 00 00 00 00	 call	 ?Error@@YAPBDPBDZZ	; Error
  0011f	83 c4 04	 add	 esp, 4

; 906  : 	}
; 907  : 	return 1;

  00122	b8 01 00 00 00	 mov	 eax, 1
  00127	5f		 pop	 edi

; 908  : }

  00128	5e		 pop	 esi
  00129	5d		 pop	 ebp
  0012a	c2 08 00	 ret	 8
?ChangeJob@@YGHPAUNPCDIALOG_INFO@@H@Z ENDP		; ChangeJob
_TEXT	ENDS
; Function compile flags: /Ogtp
; File C:\IAGOS\server\v18\Source\Source\_Common\scriptlib.cpp
;	COMDAT ?IsPlayerSkillPoint@@YGHPAUNPCDIALOG_INFO@@@Z
_TEXT	SEGMENT
_pInfo$ = 8						; size = 4
?IsPlayerSkillPoint@@YGHPAUNPCDIALOG_INFO@@@Z PROC	; IsPlayerSkillPoint, COMDAT

; 862  : 	return 0;

  00000	33 c0		 xor	 eax, eax

; 863  : }

  00002	c2 04 00	 ret	 4
?IsPlayerSkillPoint@@YGHPAUNPCDIALOG_INFO@@@Z ENDP	; IsPlayerSkillPoint
_TEXT	ENDS
; Function compile flags: /Ogtp
; File C:\IAGOS\server\v18\Source\Source\_Common\scriptlib.cpp
; File C:\IAGOS\server\v18\Source\Source\_Common\guild.h
; File C:\IAGOS\server\v18\Source\Source\_Common\scriptlib.cpp
; File C:\IAGOS\server\v18\Source\Source\_Common\guild.h
; File C:\IAGOS\server\v18\Source\Source\_Common\scriptlib.cpp
; File C:\IAGOS\server\v18\Source\Source\_Common\guild.h
; File C:\IAGOS\server\v18\Source\Source\_Common\scriptlib.cpp
;	COMDAT ?DestroyGuild@@YGHPAUNPCDIALOG_INFO@@@Z
_TEXT	SEGMENT
_rsf$1 = -2076						; size = 2072
__$ArrayPad$ = -4					; size = 4
_pInfo$ = 8						; size = 4
?DestroyGuild@@YGHPAUNPCDIALOG_INFO@@@Z PROC		; DestroyGuild, COMDAT

; 839  : {

  00000	55		 push	 ebp
  00001	8b ec		 mov	 ebp, esp
  00003	81 ec 1c 08 00
	00		 sub	 esp, 2076		; 0000081cH
  00009	a1 00 00 00 00	 mov	 eax, DWORD PTR ___security_cookie
  0000e	33 c5		 xor	 eax, ebp
  00010	89 45 fc	 mov	 DWORD PTR __$ArrayPad$[ebp], eax
  00013	8b 4d 08	 mov	 ecx, DWORD PTR _pInfo$[ebp]
  00016	56		 push	 esi
  00017	57		 push	 edi

; 840  : 	CUser* pUser = prj.GetUser( pInfo->GetPcId() );

  00018	8b 01		 mov	 eax, DWORD PTR [ecx]
  0001a	ff 50 18	 call	 DWORD PTR [eax+24]
  0001d	50		 push	 eax
  0001e	b9 00 00 00 00	 mov	 ecx, OFFSET ?prj@@3VCProject@@A ; prj
  00023	e8 00 00 00 00	 call	 ?GetUser@CProject@@QAEPAVCUser@@K@Z ; CProject::GetUser
  00028	8b f0		 mov	 esi, eax

; 841  : 
; 842  : 	CGuild* pGuild	= g_GuildMng.GetGuild( pUser->m_idGuild );

  0002a	b9 00 00 00 00	 mov	 ecx, OFFSET ?g_GuildMng@@3VCGuildMng@@A ; g_GuildMng
  0002f	ff b6 14 07 00
	00		 push	 DWORD PTR [esi+1812]
  00035	e8 00 00 00 00	 call	 ?GetGuild@CGuildMng@@QAEPAVCGuild@@K@Z ; CGuildMng::GetGuild
  0003a	8b f8		 mov	 edi, eax

; 843  : 	if( pGuild && pGuild->IsMember( pUser->m_idPlayer ) )

  0003c	85 ff		 test	 edi, edi
  0003e	74 3c		 je	 SHORT $LN2@DestroyGui
; File C:\IAGOS\server\v18\Source\Source\_Common\guild.h

; 308  : 	BOOL	IsMember( u_long idPlayer )		{	return( GetMember( idPlayer ) != NULL );	}

  00040	ff b6 34 02 00
	00		 push	 DWORD PTR [esi+564]
  00046	8b cf		 mov	 ecx, edi
  00048	e8 00 00 00 00	 call	 ?GetMember@CGuild@@QAEPAVCGuildMember@@K@Z ; CGuild::GetMember
  0004d	85 c0		 test	 eax, eax
; File C:\IAGOS\server\v18\Source\Source\_Common\scriptlib.cpp

; 843  : 	if( pGuild && pGuild->IsMember( pUser->m_idPlayer ) )

  0004f	74 2b		 je	 SHORT $LN2@DestroyGui
; File C:\IAGOS\server\v18\Source\Source\_Common\guild.h

; 309  : 	BOOL	IsMaster( u_long idPlayer )	{	return( m_idMaster == idPlayer );	}

  00051	8b 47 40	 mov	 eax, DWORD PTR [edi+64]
; File C:\IAGOS\server\v18\Source\Source\_Common\scriptlib.cpp

; 845  : 		if( pGuild->IsMaster( pUser->m_idPlayer ) )

  00054	8b ce		 mov	 ecx, esi
; File C:\IAGOS\server\v18\Source\Source\_Common\guild.h

; 309  : 	BOOL	IsMaster( u_long idPlayer )	{	return( m_idMaster == idPlayer );	}

  00056	3b 86 34 02 00
	00		 cmp	 eax, DWORD PTR [esi+564]
; File C:\IAGOS\server\v18\Source\Source\_Common\scriptlib.cpp

; 845  : 		if( pGuild->IsMaster( pUser->m_idPlayer ) )

  0005c	75 17		 jne	 SHORT $LN4@DestroyGui

; 846  : 		{
; 847  : 			RunScriptFunc rsf;
; 848  : 			rsf.wFuncType	= FUNCTYPE_DESTROYGUILD;

  0005e	b8 19 00 00 00	 mov	 eax, 25			; 00000019H
  00063	66 89 45 ec	 mov	 WORD PTR _rsf$1[ebp+2056], ax

; 849  : 			pUser->AddRunScriptFunc( rsf );

  00067	8d 85 e4 f7 ff
	ff		 lea	 eax, DWORD PTR _rsf$1[ebp]
  0006d	50		 push	 eax
  0006e	e8 00 00 00 00	 call	 ?AddRunScriptFunc@CUser@@QAEXABU_runscriptfunc@@@Z ; CUser::AddRunScriptFunc

; 850  : 		}

  00073	eb 13		 jmp	 SHORT $LN14@DestroyGui
$LN4@DestroyGui:

; 851  : 		else
; 852  : 			pUser->AddDefinedText( TID_GAME_COMDELNOTKINGPIN );

  00075	68 a4 02 00 00	 push	 676			; 000002a4H

; 853  : 	}

  0007a	eb 07		 jmp	 SHORT $LN15@DestroyGui
$LN2@DestroyGui:

; 854  : 	else
; 855  : 		pUser->AddDefinedText( TID_GAME_COMNOHAVECOM );

  0007c	68 a5 02 00 00	 push	 677			; 000002a5H
  00081	8b ce		 mov	 ecx, esi
$LN15@DestroyGui:

; 856  : 
; 857  : 	return 1;
; 858  : }

  00083	e8 00 00 00 00	 call	 ?AddDefinedText@CUser@@QAEXH@Z ; CUser::AddDefinedText
$LN14@DestroyGui:
  00088	8b 4d fc	 mov	 ecx, DWORD PTR __$ArrayPad$[ebp]
  0008b	b8 01 00 00 00	 mov	 eax, 1
  00090	5f		 pop	 edi
  00091	33 cd		 xor	 ecx, ebp
  00093	5e		 pop	 esi
  00094	e8 00 00 00 00	 call	 @__security_check_cookie@4
  00099	8b e5		 mov	 esp, ebp
  0009b	5d		 pop	 ebp
  0009c	c2 04 00	 ret	 4
?DestroyGuild@@YGHPAUNPCDIALOG_INFO@@@Z ENDP		; DestroyGuild
_TEXT	ENDS
; Function compile flags: /Ogtp
; File C:\IAGOS\server\v18\Source\Source\_Common\scriptlib.cpp
; File C:\IAGOS\server\v18\Source\Source\_Common\guild.h
; File C:\IAGOS\server\v18\Source\Source\_Common\scriptlib.cpp
; File C:\IAGOS\server\v18\Source\Source\_Common\party.h
; File C:\IAGOS\server\v18\Source\Source\_Common\scriptlib.cpp
; File C:\IAGOS\server\v18\Source\Source\_Common\Obj.h
; File C:\IAGOS\server\v18\Source\Source\_Common\scriptlib.cpp
;	COMDAT ?CreateGuild@@YGHPAUNPCDIALOG_INFO@@@Z
_TEXT	SEGMENT
_pParty$1$ = -128					; size = 4
_info$ = -124						; size = 120
__$ArrayPad$ = -4					; size = 4
_pInfo$ = 8						; size = 4
?CreateGuild@@YGHPAUNPCDIALOG_INFO@@@Z PROC		; CreateGuild, COMDAT

; 799  : {

  00000	55		 push	 ebp
  00001	8b ec		 mov	 ebp, esp
  00003	81 ec 80 00 00
	00		 sub	 esp, 128		; 00000080H
  00009	a1 00 00 00 00	 mov	 eax, DWORD PTR ___security_cookie
  0000e	33 c5		 xor	 eax, ebp
  00010	89 45 fc	 mov	 DWORD PTR __$ArrayPad$[ebp], eax
  00013	8b 4d 08	 mov	 ecx, DWORD PTR _pInfo$[ebp]
  00016	53		 push	 ebx
  00017	56		 push	 esi
  00018	57		 push	 edi

; 800  : 	CUser* pUser = prj.GetUser( pInfo->GetPcId() );

  00019	8b 01		 mov	 eax, DWORD PTR [ecx]
  0001b	ff 50 18	 call	 DWORD PTR [eax+24]
  0001e	50		 push	 eax
  0001f	b9 00 00 00 00	 mov	 ecx, OFFSET ?prj@@3VCProject@@A ; prj
  00024	e8 00 00 00 00	 call	 ?GetUser@CProject@@QAEPAVCUser@@K@Z ; CProject::GetUser
  00029	8b d8		 mov	 ebx, eax

; 801  : 	int nSize = 0;
; 802  : 	GUILD_MEMBER_INFO	info[MAX_PTMEMBER_SIZE];

  0002b	8d 4d 84	 lea	 ecx, DWORD PTR _info$[ebp]
  0002e	33 ff		 xor	 edi, edi
  00030	ba 0f 00 00 00	 mov	 edx, 15			; 0000000fH
$LL11@CreateGuil:
; File C:\IAGOS\server\v18\Source\Source\_Common\guild.h

; 253  : 	{	idPlayer	= 0;

  00035	89 39		 mov	 DWORD PTR [ecx], edi
  00037	8d 49 08	 lea	 ecx, DWORD PTR [ecx+8]

; 254  : #if __VER < 11 // __SYS_PLAYER_DATA
; 255  : 		nLevel	= nJob	= dwSex	= 0;
; 256  : #endif	// __SYS_PLAYER_DATA
; 257  : 		nMultiNo	= 100;

  0003a	c6 41 fc 64	 mov	 BYTE PTR [ecx-4], 100	; 00000064H
  0003e	83 ea 01	 sub	 edx, 1
  00041	75 f2		 jne	 SHORT $LL11@CreateGuil
; File C:\IAGOS\server\v18\Source\Source\_Common\scriptlib.cpp

; 804  : 	CParty* pParty	= g_PartyMng.GetParty( pUser->m_idparty );

  00043	ff b3 10 07 00
	00		 push	 DWORD PTR [ebx+1808]
  00049	b9 00 00 00 00	 mov	 ecx, OFFSET ?g_PartyMng@@3VCPartyMng@@A ; g_PartyMng
  0004e	e8 00 00 00 00	 call	 ?GetParty@CPartyMng@@QAEPAVCParty@@K@Z ; CPartyMng::GetParty
  00053	89 45 80	 mov	 DWORD PTR _pParty$1$[ebp], eax

; 805  : 	if( pParty && pParty->IsLeader( pUser->m_idPlayer ) )

  00056	85 c0		 test	 eax, eax
  00058	74 74		 je	 SHORT $LN5@CreateGuil
; File C:\IAGOS\server\v18\Source\Source\_Common\party.h

; 106  : 	int		IsLeader( u_long uPlayerId )		{	return( m_aMember[0].m_uPlayerId == uPlayerId );	}

  0005a	8b 48 28	 mov	 ecx, DWORD PTR [eax+40]
  0005d	8d 70 28	 lea	 esi, DWORD PTR [eax+40]
  00060	3b 8b 34 02 00
	00		 cmp	 ecx, DWORD PTR [ebx+564]
; File C:\IAGOS\server\v18\Source\Source\_Common\scriptlib.cpp

; 805  : 	if( pParty && pParty->IsLeader( pUser->m_idPlayer ) )

  00066	75 66		 jne	 SHORT $LN5@CreateGuil

; 807  : 		for( int i = 0; i < pParty->m_nSizeofMember; i++ )

  00068	33 db		 xor	 ebx, ebx
  0006a	39 98 cc 01 00
	00		 cmp	 DWORD PTR [eax+460], ebx
  00070	7e 30		 jle	 SHORT $LN3@CreateGuil
$LL4@CreateGuil:

; 808  : 		{
; 809  : 			CUser* pUsertmp	= g_UserMng.GetUserByPlayerID( pParty->GetPlayerId( i ) );

  00072	ff 36		 push	 DWORD PTR [esi]
  00074	b9 00 00 00 00	 mov	 ecx, OFFSET ?g_UserMng@@3VCUserMng@@A ; g_UserMng
  00079	e8 00 00 00 00	 call	 ?GetUserByPlayerID@CUserMng@@QAEPAVCUser@@K@Z ; CUserMng::GetUserByPlayerID
; File C:\IAGOS\server\v18\Source\Source\_Common\Obj.h

; 327  : 	return pObj && ( pObj->IsDelete() == FALSE ); 

  0007e	85 c0		 test	 eax, eax
  00080	74 4c		 je	 SHORT $LN5@CreateGuil

; 180  : 	BOOL			IsDelete()	{ return (m_dwFlags & OBJ_FLAG_DELETE);  }

  00082	f6 40 04 01	 test	 BYTE PTR [eax+4], 1

; 327  : 	return pObj && ( pObj->IsDelete() == FALSE ); 

  00086	75 46		 jne	 SHORT $LN5@CreateGuil
; File C:\IAGOS\server\v18\Source\Source\_Common\scriptlib.cpp

; 807  : 		for( int i = 0; i < pParty->m_nSizeofMember; i++ )

  00088	8b 80 34 02 00
	00		 mov	 eax, DWORD PTR [eax+564]
  0008e	43		 inc	 ebx

; 810  : 			if( IsValidObj( pUsertmp ) )
; 811  : 			{
; 812  : 				info[nSize].idPlayer	= pUsertmp->m_idPlayer;

  0008f	89 44 fd 84	 mov	 DWORD PTR _info$[ebp+edi*8], eax
  00093	83 c6 1c	 add	 esi, 28			; 0000001cH
  00096	8b 45 80	 mov	 eax, DWORD PTR _pParty$1$[ebp]

; 813  : #if __VER < 11 // __SYS_PLAYER_DATA
; 814  : 				info[nSize].nLevel	= pUsertmp->GetLevel();
; 815  : 				info[nSize].nJob	= pUsertmp->GetJob();
; 816  : 				info[nSize].dwSex	= pUsertmp->GetSex();
; 817  : #endif	// __SYS_PLAYER_DATA
; 818  : 				nSize++;

  00099	47		 inc	 edi
  0009a	3b 98 cc 01 00
	00		 cmp	 ebx, DWORD PTR [eax+460]
  000a0	7c d0		 jl	 SHORT $LL4@CreateGuil
$LN3@CreateGuil:

; 819  : 			}
; 820  : 			else
; 821  : 			{
; 822  : 				// error	- offline
; 823  : 				return 0;
; 824  : 			}
; 825  : 		}
; 826  : 	}
; 827  : 	else
; 828  : 	{
; 829  : 		// error	-
; 830  : 		return 0;
; 831  : 	}
; 832  : 
; 833  : 	g_DPCoreClient.SendCreateGuild( info, nSize, "" );

  000a2	68 00 00 00 00	 push	 OFFSET ??_C@_00CNPNBAHC@@
  000a7	57		 push	 edi
  000a8	8d 45 84	 lea	 eax, DWORD PTR _info$[ebp]
  000ab	b9 00 00 00 00	 mov	 ecx, OFFSET ?g_DPCoreClient@@3VCDPCoreClient@@A ; g_DPCoreClient
  000b0	50		 push	 eax
  000b1	e8 00 00 00 00	 call	 ?SendCreateGuild@CDPCoreClient@@QAEXPAU_GUILD_MEMBER_INFO@@HPBD@Z ; CDPCoreClient::SendCreateGuild
  000b6	5f		 pop	 edi

; 834  : 
; 835  : 	return 1;
; 836  : }

  000b7	5e		 pop	 esi
  000b8	b8 01 00 00 00	 mov	 eax, 1
  000bd	5b		 pop	 ebx
  000be	8b 4d fc	 mov	 ecx, DWORD PTR __$ArrayPad$[ebp]
  000c1	33 cd		 xor	 ecx, ebp
  000c3	e8 00 00 00 00	 call	 @__security_check_cookie@4
  000c8	8b e5		 mov	 esp, ebp
  000ca	5d		 pop	 ebp
  000cb	c2 04 00	 ret	 4
$LN5@CreateGuil:
  000ce	8b 4d fc	 mov	 ecx, DWORD PTR __$ArrayPad$[ebp]
  000d1	33 c0		 xor	 eax, eax
  000d3	5f		 pop	 edi
  000d4	5e		 pop	 esi
  000d5	33 cd		 xor	 ecx, ebp
  000d7	5b		 pop	 ebx
  000d8	e8 00 00 00 00	 call	 @__security_check_cookie@4
  000dd	8b e5		 mov	 esp, ebp
  000df	5d		 pop	 ebp
  000e0	c2 04 00	 ret	 4
?CreateGuild@@YGHPAUNPCDIALOG_INFO@@@Z ENDP		; CreateGuild
_TEXT	ENDS
; Function compile flags: /Ogtp
; File C:\IAGOS\server\v18\Source\Source\_Common\scriptlib.cpp
; File C:\IAGOS\server\v18\Source\Source\_Common\guild.h
; File C:\IAGOS\server\v18\Source\Source\_Common\scriptlib.cpp
;	COMDAT ?IsGuildMaster@@YGHPAUNPCDIALOG_INFO@@@Z
_TEXT	SEGMENT
_pInfo$ = 8						; size = 4
?IsGuildMaster@@YGHPAUNPCDIALOG_INFO@@@Z PROC		; IsGuildMaster, COMDAT

; 791  : {

  00000	55		 push	 ebp
  00001	8b ec		 mov	 ebp, esp

; 792  : 	CUser* pUser	= prj.GetUser( pInfo->GetPcId() );

  00003	8b 4d 08	 mov	 ecx, DWORD PTR _pInfo$[ebp]
  00006	56		 push	 esi
  00007	8b 01		 mov	 eax, DWORD PTR [ecx]
  00009	ff 50 18	 call	 DWORD PTR [eax+24]
  0000c	50		 push	 eax
  0000d	b9 00 00 00 00	 mov	 ecx, OFFSET ?prj@@3VCProject@@A ; prj
  00012	e8 00 00 00 00	 call	 ?GetUser@CProject@@QAEPAVCUser@@K@Z ; CProject::GetUser
  00017	8b f0		 mov	 esi, eax

; 793  : 	CGuild* pGuild	= g_GuildMng.GetGuild( pUser->m_idGuild );

  00019	b9 00 00 00 00	 mov	 ecx, OFFSET ?g_GuildMng@@3VCGuildMng@@A ; g_GuildMng
  0001e	ff b6 14 07 00
	00		 push	 DWORD PTR [esi+1812]
  00024	e8 00 00 00 00	 call	 ?GetGuild@CGuildMng@@QAEPAVCGuild@@K@Z ; CGuildMng::GetGuild

; 794  : 	int f = ( pGuild && pGuild->IsMaster( pUser->m_idPlayer ) );

  00029	85 c0		 test	 eax, eax
  0002b	74 15		 je	 SHORT $LN3@IsGuildMas
; File C:\IAGOS\server\v18\Source\Source\_Common\guild.h

; 309  : 	BOOL	IsMaster( u_long idPlayer )	{	return( m_idMaster == idPlayer );	}

  0002d	8b 48 40	 mov	 ecx, DWORD PTR [eax+64]
  00030	3b 8e 34 02 00
	00		 cmp	 ecx, DWORD PTR [esi+564]
; File C:\IAGOS\server\v18\Source\Source\_Common\scriptlib.cpp

; 794  : 	int f = ( pGuild && pGuild->IsMaster( pUser->m_idPlayer ) );

  00036	75 0a		 jne	 SHORT $LN3@IsGuildMas

; 795  : 	return f;

  00038	b8 01 00 00 00	 mov	 eax, 1
  0003d	5e		 pop	 esi

; 796  : }

  0003e	5d		 pop	 ebp
  0003f	c2 04 00	 ret	 4
$LN3@IsGuildMas:

; 795  : 	return f;

  00042	33 c0		 xor	 eax, eax
  00044	5e		 pop	 esi

; 796  : }

  00045	5d		 pop	 ebp
  00046	c2 04 00	 ret	 4
?IsGuildMaster@@YGHPAUNPCDIALOG_INFO@@@Z ENDP		; IsGuildMaster
_TEXT	ENDS
; Function compile flags: /Ogtp
; File C:\IAGOS\server\v18\Source\Source\_Common\scriptlib.cpp
; File C:\IAGOS\server\v18\Source\Source\_Common\guild.h
; File C:\IAGOS\server\v18\Source\Source\_Common\scriptlib.cpp
;	COMDAT ?IsGuild@@YGHPAUNPCDIALOG_INFO@@@Z
_TEXT	SEGMENT
_pInfo$ = 8						; size = 4
?IsGuild@@YGHPAUNPCDIALOG_INFO@@@Z PROC			; IsGuild, COMDAT

; 783  : {

  00000	55		 push	 ebp
  00001	8b ec		 mov	 ebp, esp

; 784  : 	CUser* pUser	= prj.GetUser( pInfo->GetPcId() );

  00003	8b 4d 08	 mov	 ecx, DWORD PTR _pInfo$[ebp]
  00006	56		 push	 esi
  00007	8b 01		 mov	 eax, DWORD PTR [ecx]
  00009	ff 50 18	 call	 DWORD PTR [eax+24]
  0000c	50		 push	 eax
  0000d	b9 00 00 00 00	 mov	 ecx, OFFSET ?prj@@3VCProject@@A ; prj
  00012	e8 00 00 00 00	 call	 ?GetUser@CProject@@QAEPAVCUser@@K@Z ; CProject::GetUser
  00017	8b f0		 mov	 esi, eax

; 785  : 	CGuild* pGuild	= g_GuildMng.GetGuild( pUser->m_idGuild );

  00019	b9 00 00 00 00	 mov	 ecx, OFFSET ?g_GuildMng@@3VCGuildMng@@A ; g_GuildMng
  0001e	ff b6 14 07 00
	00		 push	 DWORD PTR [esi+1812]
  00024	e8 00 00 00 00	 call	 ?GetGuild@CGuildMng@@QAEPAVCGuild@@K@Z ; CGuildMng::GetGuild

; 786  : 	int f	= ( pGuild && pGuild->IsMember( pUser->m_idPlayer ) );

  00029	85 c0		 test	 eax, eax
  0002b	74 1b		 je	 SHORT $LN3@IsGuild
; File C:\IAGOS\server\v18\Source\Source\_Common\guild.h

; 308  : 	BOOL	IsMember( u_long idPlayer )		{	return( GetMember( idPlayer ) != NULL );	}

  0002d	ff b6 34 02 00
	00		 push	 DWORD PTR [esi+564]
  00033	8b c8		 mov	 ecx, eax
  00035	e8 00 00 00 00	 call	 ?GetMember@CGuild@@QAEPAVCGuildMember@@K@Z ; CGuild::GetMember
  0003a	85 c0		 test	 eax, eax
; File C:\IAGOS\server\v18\Source\Source\_Common\scriptlib.cpp

; 786  : 	int f	= ( pGuild && pGuild->IsMember( pUser->m_idPlayer ) );

  0003c	74 0a		 je	 SHORT $LN3@IsGuild

; 787  : 	return f;

  0003e	b8 01 00 00 00	 mov	 eax, 1
  00043	5e		 pop	 esi

; 788  : }

  00044	5d		 pop	 ebp
  00045	c2 04 00	 ret	 4
$LN3@IsGuild:

; 787  : 	return f;

  00048	33 c0		 xor	 eax, eax
  0004a	5e		 pop	 esi

; 788  : }

  0004b	5d		 pop	 ebp
  0004c	c2 04 00	 ret	 4
?IsGuild@@YGHPAUNPCDIALOG_INFO@@@Z ENDP			; IsGuild
_TEXT	ENDS
; Function compile flags: /Ogtp
; File C:\IAGOS\server\v18\Source\Source\_Common\scriptlib.cpp
; File C:\IAGOS\server\v18\Source\Source\_Common\Obj.h
; File C:\IAGOS\server\v18\Source\Source\_Common\scriptlib.cpp
; File C:\Program Files\Microsoft Visual Studio\2022\Professional\VC\Tools\MSVC\14.44.35207\atlmfc\include\atltime.h
; File C:\IAGOS\server\v18\Source\Source\_Common\scriptlib.cpp
;	COMDAT ?IsPartyGuild@@YGHPAUNPCDIALOG_INFO@@@Z
_TEXT	SEGMENT
_f$1$ = -68						; size = 4
_aidPlayer$ = -64					; size = 60
__$ArrayPad$ = -4					; size = 4
_pInfo$ = 8						; size = 4
?IsPartyGuild@@YGHPAUNPCDIALOG_INFO@@@Z PROC		; IsPartyGuild, COMDAT

; 738  : {

  00000	55		 push	 ebp
  00001	8b ec		 mov	 ebp, esp
  00003	83 ec 44	 sub	 esp, 68			; 00000044H
  00006	a1 00 00 00 00	 mov	 eax, DWORD PTR ___security_cookie
  0000b	33 c5		 xor	 eax, ebp
  0000d	89 45 fc	 mov	 DWORD PTR __$ArrayPad$[ebp], eax
  00010	8b 4d 08	 mov	 ecx, DWORD PTR _pInfo$[ebp]

; 739  : 	int f	= 0;
; 740  : 	u_long	aidPlayer[MAX_PTMEMBER_SIZE];
; 741  : 	int	nSize	= 0;
; 742  : 	CUser* pUser	= prj.GetUser( pInfo->GetPcId() );

  00013	8b 01		 mov	 eax, DWORD PTR [ecx]
  00015	ff 50 18	 call	 DWORD PTR [eax+24]
  00018	50		 push	 eax
  00019	b9 00 00 00 00	 mov	 ecx, OFFSET ?prj@@3VCProject@@A ; prj
  0001e	e8 00 00 00 00	 call	 ?GetUser@CProject@@QAEPAVCUser@@K@Z ; CProject::GetUser

; 743  : 
; 744  : 	CParty* pParty	= g_PartyMng.GetParty( pUser->m_idparty );

  00023	b9 00 00 00 00	 mov	 ecx, OFFSET ?g_PartyMng@@3VCPartyMng@@A ; g_PartyMng
  00028	ff b0 10 07 00
	00		 push	 DWORD PTR [eax+1808]
  0002e	e8 00 00 00 00	 call	 ?GetParty@CPartyMng@@QAEPAVCParty@@K@Z ; CPartyMng::GetParty

; 745  : 	if( pParty )

  00033	85 c0		 test	 eax, eax
  00035	0f 84 ca 00 00
	00		 je	 $LN8@IsPartyGui

; 746  : 	{
; 747  : 		nSize	= pParty->m_nSizeofMember;

  0003b	53		 push	 ebx
  0003c	8b 98 cc 01 00
	00		 mov	 ebx, DWORD PTR [eax+460]
  00042	33 c9		 xor	 ecx, ecx

; 748  : 		for( int i = 0; i < pParty->m_nSizeofMember; i++ )

  00044	85 db		 test	 ebx, ebx
  00046	0f 8e a6 00 00
	00		 jle	 $LN9@IsPartyGui

; 746  : 	{
; 747  : 		nSize	= pParty->m_nSizeofMember;

  0004c	8d 50 28	 lea	 edx, DWORD PTR [eax+40]
  0004f	90		 npad	 1
$LL4@IsPartyGui:

; 749  : 			aidPlayer[i]	= pParty->m_aMember[i].m_uPlayerId;

  00050	8b 02		 mov	 eax, DWORD PTR [edx]
  00052	8d 52 1c	 lea	 edx, DWORD PTR [edx+28]
  00055	89 44 8d c0	 mov	 DWORD PTR _aidPlayer$[ebp+ecx*4], eax
  00059	41		 inc	 ecx
  0005a	3b cb		 cmp	 ecx, ebx
  0005c	7c f2		 jl	 SHORT $LL4@IsPartyGui

; 750  : 	}

  0005e	57		 push	 edi
  0005f	33 ff		 xor	 edi, edi
  00061	33 c0		 xor	 eax, eax
  00063	56		 push	 esi
$LL7@IsPartyGui:

; 757  : 	{
; 758  : 		CUser* pUsertmp	= g_UserMng.GetUserByPlayerID( aidPlayer[i] );

  00064	ff 74 bd c0	 push	 DWORD PTR _aidPlayer$[ebp+edi*4]
  00068	b9 00 00 00 00	 mov	 ecx, OFFSET ?g_UserMng@@3VCUserMng@@A ; g_UserMng
  0006d	89 45 bc	 mov	 DWORD PTR _f$1$[ebp], eax
  00070	e8 00 00 00 00	 call	 ?GetUserByPlayerID@CUserMng@@QAEPAVCUser@@K@Z ; CUserMng::GetUserByPlayerID
  00075	8b f0		 mov	 esi, eax
; File C:\IAGOS\server\v18\Source\Source\_Common\Obj.h

; 327  : 	return pObj && ( pObj->IsDelete() == FALSE ); 

  00077	85 f6		 test	 esi, esi
  00079	74 5f		 je	 SHORT $LN10@IsPartyGui

; 180  : 	BOOL			IsDelete()	{ return (m_dwFlags & OBJ_FLAG_DELETE);  }

  0007b	f6 46 04 01	 test	 BYTE PTR [esi+4], 1

; 327  : 	return pObj && ( pObj->IsDelete() == FALSE ); 

  0007f	75 59		 jne	 SHORT $LN10@IsPartyGui
; File C:\IAGOS\server\v18\Source\Source\_Common\scriptlib.cpp

; 761  : 			if( pUsertmp->GetGuild() )

  00081	8b ce		 mov	 ecx, esi
  00083	e8 00 00 00 00	 call	 ?GetGuild@CMover@@QAEPAVCGuild@@XZ ; CMover::GetGuild
  00088	85 c0		 test	 eax, eax
  0008a	75 4e		 jne	 SHORT $LN10@IsPartyGui
; File C:\Program Files\Microsoft Visual Studio\2022\Professional\VC\Tools\MSVC\14.44.35207\atlmfc\include\atltime.h

; 377  : 	return( CTime( ::_time64( NULL ) ) );

  0008c	50		 push	 eax
  0008d	e8 00 00 00 00	 call	 __time64
  00092	83 c4 04	 add	 esp, 4

; 571  : 	return( m_time < time.m_time );

  00095	3b 96 fc 0d 00
	00		 cmp	 edx, DWORD PTR [esi+3580]
  0009b	7c 25		 jl	 SHORT $LN32@IsPartyGui
  0009d	7f 08		 jg	 SHORT $LN44@IsPartyGui
  0009f	3b 86 f8 0d 00
	00		 cmp	 eax, DWORD PTR [esi+3576]
  000a5	72 1b		 jb	 SHORT $LN32@IsPartyGui
$LN44@IsPartyGui:
; File C:\IAGOS\server\v18\Source\Source\_Common\scriptlib.cpp

; 756  : 	for( int i = 0; i < nSize; i++ )

  000a7	8b 45 bc	 mov	 eax, DWORD PTR _f$1$[ebp]
  000aa	47		 inc	 edi
  000ab	3b fb		 cmp	 edi, ebx
  000ad	7c b5		 jl	 SHORT $LL7@IsPartyGui
  000af	5e		 pop	 esi
  000b0	5f		 pop	 edi
  000b1	5b		 pop	 ebx

; 780  : }

  000b2	8b 4d fc	 mov	 ecx, DWORD PTR __$ArrayPad$[ebp]
  000b5	33 cd		 xor	 ecx, ebp
  000b7	e8 00 00 00 00	 call	 @__security_check_cookie@4
  000bc	8b e5		 mov	 esp, ebp
  000be	5d		 pop	 ebp
  000bf	c2 04 00	 ret	 4
$LN32@IsPartyGui:
  000c2	5e		 pop	 esi
  000c3	5f		 pop	 edi

; 762  : 			{
; 763  : 				f	= 1;
; 764  : 				break;
; 765  : 			}
; 766  : 			CTime tCurrent = CTime::GetCurrentTime();
; 767  : 			if( tCurrent < pUsertmp->m_tGuildMember )
; 768  : 			{
; 769  : 				f	= 2;
; 770  : 				break;
; 771  : 			}
; 772  : 		}
; 773  : 		else
; 774  : 		{
; 775  : 			f	= 1;
; 776  : 			break;
; 777  : 		}
; 778  : 	}
; 779  : 	return f;

  000c4	b8 02 00 00 00	 mov	 eax, 2
  000c9	5b		 pop	 ebx

; 780  : }

  000ca	8b 4d fc	 mov	 ecx, DWORD PTR __$ArrayPad$[ebp]
  000cd	33 cd		 xor	 ecx, ebp
  000cf	e8 00 00 00 00	 call	 @__security_check_cookie@4
  000d4	8b e5		 mov	 esp, ebp
  000d6	5d		 pop	 ebp
  000d7	c2 04 00	 ret	 4
$LN10@IsPartyGui:
  000da	5e		 pop	 esi
  000db	5f		 pop	 edi

; 762  : 			{
; 763  : 				f	= 1;
; 764  : 				break;
; 765  : 			}
; 766  : 			CTime tCurrent = CTime::GetCurrentTime();
; 767  : 			if( tCurrent < pUsertmp->m_tGuildMember )
; 768  : 			{
; 769  : 				f	= 2;
; 770  : 				break;
; 771  : 			}
; 772  : 		}
; 773  : 		else
; 774  : 		{
; 775  : 			f	= 1;
; 776  : 			break;
; 777  : 		}
; 778  : 	}
; 779  : 	return f;

  000dc	b8 01 00 00 00	 mov	 eax, 1
  000e1	5b		 pop	 ebx

; 780  : }

  000e2	8b 4d fc	 mov	 ecx, DWORD PTR __$ArrayPad$[ebp]
  000e5	33 cd		 xor	 ecx, ebp
  000e7	e8 00 00 00 00	 call	 @__security_check_cookie@4
  000ec	8b e5		 mov	 esp, ebp
  000ee	5d		 pop	 ebp
  000ef	c2 04 00	 ret	 4
$LN9@IsPartyGui:

; 762  : 			{
; 763  : 				f	= 1;
; 764  : 				break;
; 765  : 			}
; 766  : 			CTime tCurrent = CTime::GetCurrentTime();
; 767  : 			if( tCurrent < pUsertmp->m_tGuildMember )
; 768  : 			{
; 769  : 				f	= 2;
; 770  : 				break;
; 771  : 			}
; 772  : 		}
; 773  : 		else
; 774  : 		{
; 775  : 			f	= 1;
; 776  : 			break;
; 777  : 		}
; 778  : 	}
; 779  : 	return f;

  000f2	33 c0		 xor	 eax, eax
  000f4	5b		 pop	 ebx

; 780  : }

  000f5	8b 4d fc	 mov	 ecx, DWORD PTR __$ArrayPad$[ebp]
  000f8	33 cd		 xor	 ecx, ebp
  000fa	e8 00 00 00 00	 call	 @__security_check_cookie@4
  000ff	8b e5		 mov	 esp, ebp
  00101	5d		 pop	 ebp
  00102	c2 04 00	 ret	 4
$LN8@IsPartyGui:
  00105	8b 4d fc	 mov	 ecx, DWORD PTR __$ArrayPad$[ebp]
  00108	b8 01 00 00 00	 mov	 eax, 1
  0010d	33 cd		 xor	 ecx, ebp
  0010f	e8 00 00 00 00	 call	 @__security_check_cookie@4
  00114	8b e5		 mov	 esp, ebp
  00116	5d		 pop	 ebp
  00117	c2 04 00	 ret	 4
?IsPartyGuild@@YGHPAUNPCDIALOG_INFO@@@Z ENDP		; IsPartyGuild
_TEXT	ENDS
; Function compile flags: /Ogtp
; File C:\IAGOS\server\v18\Source\Source\_Common\scriptlib.cpp
;	COMDAT ?GetPartyLevel@@YGHPAUNPCDIALOG_INFO@@@Z
_TEXT	SEGMENT
_pInfo$ = 8						; size = 4
?GetPartyLevel@@YGHPAUNPCDIALOG_INFO@@@Z PROC		; GetPartyLevel, COMDAT

; 728  : {

  00000	55		 push	 ebp
  00001	8b ec		 mov	 ebp, esp

; 729  : 	CUser* pUser = prj.GetUser( pInfo->GetPcId() );

  00003	8b 4d 08	 mov	 ecx, DWORD PTR _pInfo$[ebp]
  00006	8b 01		 mov	 eax, DWORD PTR [ecx]
  00008	ff 50 18	 call	 DWORD PTR [eax+24]
  0000b	50		 push	 eax
  0000c	b9 00 00 00 00	 mov	 ecx, OFFSET ?prj@@3VCProject@@A ; prj
  00011	e8 00 00 00 00	 call	 ?GetUser@CProject@@QAEPAVCUser@@K@Z ; CProject::GetUser

; 730  : 	int nLevel = 0;
; 731  : 	CParty* pParty = g_PartyMng.GetParty( pUser->m_idparty );

  00016	b9 00 00 00 00	 mov	 ecx, OFFSET ?g_PartyMng@@3VCPartyMng@@A ; g_PartyMng
  0001b	ff b0 10 07 00
	00		 push	 DWORD PTR [eax+1808]
  00021	e8 00 00 00 00	 call	 ?GetParty@CPartyMng@@QAEPAVCParty@@K@Z ; CPartyMng::GetParty

; 732  : 	if( pParty )

  00026	85 c0		 test	 eax, eax
  00028	74 0a		 je	 SHORT $LN4@GetPartyLe

; 733  : 		nLevel = pParty->GetLevel();
; 734  : 	return nLevel;

  0002a	8b 80 d0 01 00
	00		 mov	 eax, DWORD PTR [eax+464]

; 735  : }

  00030	5d		 pop	 ebp
  00031	c2 04 00	 ret	 4
$LN4@GetPartyLe:

; 733  : 		nLevel = pParty->GetLevel();
; 734  : 	return nLevel;

  00034	33 c0		 xor	 eax, eax

; 735  : }

  00036	5d		 pop	 ebp
  00037	c2 04 00	 ret	 4
?GetPartyLevel@@YGHPAUNPCDIALOG_INFO@@@Z ENDP		; GetPartyLevel
_TEXT	ENDS
; Function compile flags: /Ogtp
; File C:\IAGOS\server\v18\Source\Source\_Common\scriptlib.cpp
;	COMDAT ?GetPartyNum@@YGHPAUNPCDIALOG_INFO@@@Z
_TEXT	SEGMENT
_pInfo$ = 8						; size = 4
?GetPartyNum@@YGHPAUNPCDIALOG_INFO@@@Z PROC		; GetPartyNum, COMDAT

; 718  : {

  00000	55		 push	 ebp
  00001	8b ec		 mov	 ebp, esp

; 719  : 	CUser* pUser	= prj.GetUser( pInfo->GetPcId() );

  00003	8b 4d 08	 mov	 ecx, DWORD PTR _pInfo$[ebp]
  00006	8b 01		 mov	 eax, DWORD PTR [ecx]
  00008	ff 50 18	 call	 DWORD PTR [eax+24]
  0000b	50		 push	 eax
  0000c	b9 00 00 00 00	 mov	 ecx, OFFSET ?prj@@3VCProject@@A ; prj
  00011	e8 00 00 00 00	 call	 ?GetUser@CProject@@QAEPAVCUser@@K@Z ; CProject::GetUser

; 720  : 	int nSize = 0;
; 721  : 	CParty* pParty	= g_PartyMng.GetParty( pUser->m_idparty );

  00016	b9 00 00 00 00	 mov	 ecx, OFFSET ?g_PartyMng@@3VCPartyMng@@A ; g_PartyMng
  0001b	ff b0 10 07 00
	00		 push	 DWORD PTR [eax+1808]
  00021	e8 00 00 00 00	 call	 ?GetParty@CPartyMng@@QAEPAVCParty@@K@Z ; CPartyMng::GetParty

; 722  : 	if( pParty )

  00026	85 c0		 test	 eax, eax
  00028	74 0a		 je	 SHORT $LN4@GetPartyNu

; 723  : 		nSize = pParty->GetSizeofMember();
; 724  : 	return nSize;

  0002a	8b 80 cc 01 00
	00		 mov	 eax, DWORD PTR [eax+460]

; 725  : }

  00030	5d		 pop	 ebp
  00031	c2 04 00	 ret	 4
$LN4@GetPartyNu:

; 723  : 		nSize = pParty->GetSizeofMember();
; 724  : 	return nSize;

  00034	33 c0		 xor	 eax, eax

; 725  : }

  00036	5d		 pop	 ebp
  00037	c2 04 00	 ret	 4
?GetPartyNum@@YGHPAUNPCDIALOG_INFO@@@Z ENDP		; GetPartyNum
_TEXT	ENDS
; Function compile flags: /Ogtp
; File C:\IAGOS\server\v18\Source\Source\_Common\scriptlib.cpp
; File C:\IAGOS\server\v18\Source\Source\_Common\party.h
; File C:\IAGOS\server\v18\Source\Source\_Common\scriptlib.cpp
;	COMDAT ?IsPartyMaster@@YGHPAUNPCDIALOG_INFO@@@Z
_TEXT	SEGMENT
_pInfo$ = 8						; size = 4
?IsPartyMaster@@YGHPAUNPCDIALOG_INFO@@@Z PROC		; IsPartyMaster, COMDAT

; 710  : {

  00000	55		 push	 ebp
  00001	8b ec		 mov	 ebp, esp

; 711  : 	CUser* pUser = prj.GetUser( pInfo->GetPcId() );

  00003	8b 4d 08	 mov	 ecx, DWORD PTR _pInfo$[ebp]
  00006	56		 push	 esi
  00007	8b 01		 mov	 eax, DWORD PTR [ecx]
  00009	ff 50 18	 call	 DWORD PTR [eax+24]
  0000c	50		 push	 eax
  0000d	b9 00 00 00 00	 mov	 ecx, OFFSET ?prj@@3VCProject@@A ; prj
  00012	e8 00 00 00 00	 call	 ?GetUser@CProject@@QAEPAVCUser@@K@Z ; CProject::GetUser
  00017	8b f0		 mov	 esi, eax

; 712  : 		CParty* pParty	= g_PartyMng.GetParty( pUser->m_idparty );

  00019	b9 00 00 00 00	 mov	 ecx, OFFSET ?g_PartyMng@@3VCPartyMng@@A ; g_PartyMng
  0001e	ff b6 10 07 00
	00		 push	 DWORD PTR [esi+1808]
  00024	e8 00 00 00 00	 call	 ?GetParty@CPartyMng@@QAEPAVCParty@@K@Z ; CPartyMng::GetParty

; 713  : 		int f = ( pParty != NULL && pParty->IsLeader( pUser->m_idPlayer ) );

  00029	85 c0		 test	 eax, eax
  0002b	74 15		 je	 SHORT $LN3@IsPartyMas
; File C:\IAGOS\server\v18\Source\Source\_Common\party.h

; 106  : 	int		IsLeader( u_long uPlayerId )		{	return( m_aMember[0].m_uPlayerId == uPlayerId );	}

  0002d	8b 48 28	 mov	 ecx, DWORD PTR [eax+40]
  00030	3b 8e 34 02 00
	00		 cmp	 ecx, DWORD PTR [esi+564]
; File C:\IAGOS\server\v18\Source\Source\_Common\scriptlib.cpp

; 713  : 		int f = ( pParty != NULL && pParty->IsLeader( pUser->m_idPlayer ) );

  00036	75 0a		 jne	 SHORT $LN3@IsPartyMas

; 714  : 	return f;

  00038	b8 01 00 00 00	 mov	 eax, 1
  0003d	5e		 pop	 esi

; 715  : }

  0003e	5d		 pop	 ebp
  0003f	c2 04 00	 ret	 4
$LN3@IsPartyMas:

; 714  : 	return f;

  00042	33 c0		 xor	 eax, eax
  00044	5e		 pop	 esi

; 715  : }

  00045	5d		 pop	 ebp
  00046	c2 04 00	 ret	 4
?IsPartyMaster@@YGHPAUNPCDIALOG_INFO@@@Z ENDP		; IsPartyMaster
_TEXT	ENDS
; Function compile flags: /Ogtp
; File C:\IAGOS\server\v18\Source\Source\_Common\scriptlib.cpp
; File C:\IAGOS\server\v18\Source\Source\_Common\party.h
; File C:\IAGOS\server\v18\Source\Source\_Common\scriptlib.cpp
;	COMDAT ?IsParty@@YGHPAUNPCDIALOG_INFO@@@Z
_TEXT	SEGMENT
_pInfo$ = 8						; size = 4
?IsParty@@YGHPAUNPCDIALOG_INFO@@@Z PROC			; IsParty, COMDAT

; 702  : {

  00000	55		 push	 ebp
  00001	8b ec		 mov	 ebp, esp

; 703  : 	CUser* pUser	= prj.GetUser( pInfo->GetPcId() );

  00003	8b 4d 08	 mov	 ecx, DWORD PTR _pInfo$[ebp]
  00006	56		 push	 esi
  00007	8b 01		 mov	 eax, DWORD PTR [ecx]
  00009	ff 50 18	 call	 DWORD PTR [eax+24]
  0000c	50		 push	 eax
  0000d	b9 00 00 00 00	 mov	 ecx, OFFSET ?prj@@3VCProject@@A ; prj
  00012	e8 00 00 00 00	 call	 ?GetUser@CProject@@QAEPAVCUser@@K@Z ; CProject::GetUser
  00017	8b f0		 mov	 esi, eax

; 704  : 		CParty* pParty = g_PartyMng.GetParty( pUser->m_idparty );

  00019	b9 00 00 00 00	 mov	 ecx, OFFSET ?g_PartyMng@@3VCPartyMng@@A ; g_PartyMng
  0001e	ff b6 10 07 00
	00		 push	 DWORD PTR [esi+1808]
  00024	e8 00 00 00 00	 call	 ?GetParty@CPartyMng@@QAEPAVCParty@@K@Z ; CPartyMng::GetParty

; 705  : 		int f = ( pParty != NULL && pParty->IsMember( pUser->m_idPlayer ) );

  00029	85 c0		 test	 eax, eax
  0002b	74 1b		 je	 SHORT $LN3@IsParty
; File C:\IAGOS\server\v18\Source\Source\_Common\party.h

; 105  : 	BOOL	IsMember( u_long uPlayerId )		{	return( FindMember( uPlayerId ) >= 0 );	}

  0002d	ff b6 34 02 00
	00		 push	 DWORD PTR [esi+564]
  00033	8b c8		 mov	 ecx, eax
  00035	e8 00 00 00 00	 call	 ?FindMember@CParty@@QAEHK@Z ; CParty::FindMember
  0003a	85 c0		 test	 eax, eax
; File C:\IAGOS\server\v18\Source\Source\_Common\scriptlib.cpp

; 705  : 		int f = ( pParty != NULL && pParty->IsMember( pUser->m_idPlayer ) );

  0003c	78 0a		 js	 SHORT $LN3@IsParty

; 706  : 	return f;

  0003e	b8 01 00 00 00	 mov	 eax, 1
  00043	5e		 pop	 esi

; 707  : }

  00044	5d		 pop	 ebp
  00045	c2 04 00	 ret	 4
$LN3@IsParty:

; 706  : 	return f;

  00048	33 c0		 xor	 eax, eax
  0004a	5e		 pop	 esi

; 707  : }

  0004b	5d		 pop	 ebp
  0004c	c2 04 00	 ret	 4
?IsParty@@YGHPAUNPCDIALOG_INFO@@@Z ENDP			; IsParty
_TEXT	ENDS
; Function compile flags: /Ogtp
; File C:\IAGOS\server\v18\Source\Source\_Common\scriptlib.cpp
;	COMDAT ?AddExp@@YGHPAUNPCDIALOG_INFO@@H@Z
_TEXT	SEGMENT
_pInfo$ = 8						; size = 4
_nExp$ = 12						; size = 4
?AddExp@@YGHPAUNPCDIALOG_INFO@@H@Z PROC			; AddExp, COMDAT

; 690  : {

  00000	55		 push	 ebp
  00001	8b ec		 mov	 ebp, esp

; 691  : 	CUser* pUser	= prj.GetUser( pInfo->GetPcId() );

  00003	8b 4d 08	 mov	 ecx, DWORD PTR _pInfo$[ebp]
  00006	56		 push	 esi
  00007	8b 01		 mov	 eax, DWORD PTR [ecx]
  00009	ff 50 18	 call	 DWORD PTR [eax+24]
  0000c	50		 push	 eax
  0000d	b9 00 00 00 00	 mov	 ecx, OFFSET ?prj@@3VCProject@@A ; prj
  00012	e8 00 00 00 00	 call	 ?GetUser@CProject@@QAEPAVCUser@@K@Z ; CProject::GetUser

; 692  : 	if( pUser->AddExperience( nExp, TRUE, FALSE ) )

  00017	6a 00		 push	 0
  00019	8b f0		 mov	 esi, eax
  0001b	8b 45 0c	 mov	 eax, DWORD PTR _nExp$[ebp]
  0001e	6a 00		 push	 0
  00020	6a 01		 push	 1
  00022	99		 cdq
  00023	8b ce		 mov	 ecx, esi
  00025	52		 push	 edx
  00026	50		 push	 eax
  00027	e8 00 00 00 00	 call	 ?AddExperience@CMover@@QAEH_JHHH@Z ; CMover::AddExperience
  0002c	8b ce		 mov	 ecx, esi
  0002e	85 c0		 test	 eax, eax
  00030	74 07		 je	 SHORT $LN2@AddExp

; 693  : 		pUser->LevelUpSetting();

  00032	e8 00 00 00 00	 call	 ?LevelUpSetting@CUser@@QAEXXZ ; CUser::LevelUpSetting
  00037	eb 05		 jmp	 SHORT $LN3@AddExp
$LN2@AddExp:

; 694  : 	else
; 695  : 		pUser->ExpUpSetting();

  00039	e8 00 00 00 00	 call	 ?ExpUpSetting@CUser@@QAEXXZ ; CUser::ExpUpSetting
$LN3@AddExp:

; 696  : 	pUser->AddSetExperience( pUser->GetExp1(), (WORD)pUser->m_nLevel, pUser->m_nSkillPoint, pUser->m_nSkillLevel );

  0003e	0f b7 86 d8 05
	00 00		 movzx	 eax, WORD PTR [esi+1496]
  00045	8b ce		 mov	 ecx, esi
  00047	68 ff ff 00 00	 push	 65535			; 0000ffffH
  0004c	6a ff		 push	 -1
  0004e	6a ff		 push	 -1
  00050	ff b6 ac 10 00
	00		 push	 DWORD PTR [esi+4268]
  00056	ff b6 b0 10 00
	00		 push	 DWORD PTR [esi+4272]
  0005c	50		 push	 eax
  0005d	ff b6 e4 05 00
	00		 push	 DWORD PTR [esi+1508]
  00063	ff b6 e0 05 00
	00		 push	 DWORD PTR [esi+1504]
  00069	e8 00 00 00 00	 call	 ?AddSetExperience@CUser@@QAEX_JGHH0G@Z ; CUser::AddSetExperience

; 697  : 	pUser->AddDefinedText( TID_GAME_REAPEXP );

  0006e	68 be 03 00 00	 push	 958			; 000003beH
  00073	8b ce		 mov	 ecx, esi
  00075	e8 00 00 00 00	 call	 ?AddDefinedText@CUser@@QAEXH@Z ; CUser::AddDefinedText

; 698  : 	return 1;

  0007a	b8 01 00 00 00	 mov	 eax, 1
  0007f	5e		 pop	 esi

; 699  : }

  00080	5d		 pop	 ebp
  00081	c2 08 00	 ret	 8
?AddExp@@YGHPAUNPCDIALOG_INFO@@H@Z ENDP			; AddExp
_TEXT	ENDS
; Function compile flags: /Ogtp
; File C:\IAGOS\server\v18\Source\Source\_Common\scriptlib.cpp
;	COMDAT ?GetLocalEventState@@YGHPAUNPCDIALOG_INFO@@H@Z
_TEXT	SEGMENT
_pInfo$ = 8						; size = 4
_nEvent$ = 12						; size = 4
?GetLocalEventState@@YGHPAUNPCDIALOG_INFO@@H@Z PROC	; GetLocalEventState, COMDAT

; 685  : {

  00000	55		 push	 ebp
  00001	8b ec		 mov	 ebp, esp

; 686  : 	return g_eLocal.GetState( nEvent );

  00003	ff 75 0c	 push	 DWORD PTR _nEvent$[ebp]
  00006	b9 00 00 00 00	 mov	 ecx, OFFSET ?g_eLocal@@3VCFlyffEvent@@A ; g_eLocal
  0000b	e8 00 00 00 00	 call	 ?GetState@CFlyffEvent@@QAEEH@Z ; CFlyffEvent::GetState
  00010	0f b6 c0	 movzx	 eax, al

; 687  : }

  00013	5d		 pop	 ebp
  00014	c2 08 00	 ret	 8
?GetLocalEventState@@YGHPAUNPCDIALOG_INFO@@H@Z ENDP	; GetLocalEventState
_TEXT	ENDS
; Function compile flags: /Ogtp
; File C:\IAGOS\server\v18\Source\Source\_Common\scriptlib.cpp
;	COMDAT ?GetPlayerGold@@YGHPAUNPCDIALOG_INFO@@@Z
_TEXT	SEGMENT
_pInfo$ = 8						; size = 4
?GetPlayerGold@@YGHPAUNPCDIALOG_INFO@@@Z PROC		; GetPlayerGold, COMDAT

; 679  : {

  00000	55		 push	 ebp
  00001	8b ec		 mov	 ebp, esp

; 680  : 	CUser* pUser	= prj.GetUser( pInfo->GetPcId() );

  00003	8b 4d 08	 mov	 ecx, DWORD PTR _pInfo$[ebp]
  00006	8b 01		 mov	 eax, DWORD PTR [ecx]
  00008	ff 50 18	 call	 DWORD PTR [eax+24]
  0000b	50		 push	 eax
  0000c	b9 00 00 00 00	 mov	 ecx, OFFSET ?prj@@3VCProject@@A ; prj
  00011	e8 00 00 00 00	 call	 ?GetUser@CProject@@QAEPAVCUser@@K@Z ; CProject::GetUser

; 681  : 	return pUser->GetGold();

  00016	8b 80 e0 14 00
	00		 mov	 eax, DWORD PTR [eax+5344]

; 682  : }

  0001c	5d		 pop	 ebp
  0001d	c2 04 00	 ret	 4
?GetPlayerGold@@YGHPAUNPCDIALOG_INFO@@@Z ENDP		; GetPlayerGold
_TEXT	ENDS
; Function compile flags: /Ogtp
; File C:\IAGOS\server\v18\Source\Source\_Common\scriptlib.cpp
;	COMDAT ?RemoveGold@@YGHPAUNPCDIALOG_INFO@@H@Z
_TEXT	SEGMENT
_pInfo$ = 8						; size = 4
_nGold$ = 12						; size = 4
?RemoveGold@@YGHPAUNPCDIALOG_INFO@@H@Z PROC		; RemoveGold, COMDAT

; 673  : {

  00000	55		 push	 ebp
  00001	8b ec		 mov	 ebp, esp

; 674  : 	__RemoveGold( pInfo->GetPcId(), nGold );

  00003	8b 4d 08	 mov	 ecx, DWORD PTR _pInfo$[ebp]
  00006	ff 75 0c	 push	 DWORD PTR _nGold$[ebp]
  00009	8b 01		 mov	 eax, DWORD PTR [ecx]
  0000b	ff 50 18	 call	 DWORD PTR [eax+24]
  0000e	50		 push	 eax
  0000f	e8 00 00 00 00	 call	 ?__RemoveGold@@YAXKH@Z	; __RemoveGold
  00014	83 c4 08	 add	 esp, 8

; 675  : 	return 1;

  00017	b8 01 00 00 00	 mov	 eax, 1

; 676  : }

  0001c	5d		 pop	 ebp
  0001d	c2 08 00	 ret	 8
?RemoveGold@@YGHPAUNPCDIALOG_INFO@@H@Z ENDP		; RemoveGold
_TEXT	ENDS
; Function compile flags: /Ogtp
; File C:\IAGOS\server\v18\Source\Source\_Common\scriptlib.cpp
;	COMDAT ?AddGold@@YGHPAUNPCDIALOG_INFO@@H@Z
_TEXT	SEGMENT
_pInfo$ = 8						; size = 4
_nGold$ = 12						; size = 4
?AddGold@@YGHPAUNPCDIALOG_INFO@@H@Z PROC		; AddGold, COMDAT

; 667  : {

  00000	55		 push	 ebp
  00001	8b ec		 mov	 ebp, esp

; 668  : 	__AddGold(  pInfo->GetPcId(), nGold );

  00003	8b 4d 08	 mov	 ecx, DWORD PTR _pInfo$[ebp]
  00006	ff 75 0c	 push	 DWORD PTR _nGold$[ebp]
  00009	8b 01		 mov	 eax, DWORD PTR [ecx]
  0000b	ff 50 18	 call	 DWORD PTR [eax+24]
  0000e	50		 push	 eax
  0000f	e8 00 00 00 00	 call	 ?__AddGold@@YAXKH@Z	; __AddGold
  00014	83 c4 08	 add	 esp, 8

; 669  : 	return 1;

  00017	b8 01 00 00 00	 mov	 eax, 1

; 670  : }

  0001c	5d		 pop	 ebp
  0001d	c2 08 00	 ret	 8
?AddGold@@YGHPAUNPCDIALOG_INFO@@H@Z ENDP		; AddGold
_TEXT	ENDS
; Function compile flags: /Ogtp
; File C:\IAGOS\server\v18\Source\Source\_Common\scriptlib.cpp
;	COMDAT ?CreateItem@@YGHPAUNPCDIALOG_INFO@@KH@Z
_TEXT	SEGMENT
_pInfo$ = 8						; size = 4
_dwID$ = 12						; size = 4
_nCount$ = 16						; size = 4
?CreateItem@@YGHPAUNPCDIALOG_INFO@@KH@Z PROC		; CreateItem, COMDAT

; 661  : {

  00000	55		 push	 ebp
  00001	8b ec		 mov	 ebp, esp

; 662  : 	__CreateItem( pInfo->GetPcId(), dwID, nCount );

  00003	8b 4d 08	 mov	 ecx, DWORD PTR _pInfo$[ebp]
  00006	6a 00		 push	 0
  00008	6a 00		 push	 0
  0000a	ff 75 10	 push	 DWORD PTR _nCount$[ebp]
  0000d	8b 01		 mov	 eax, DWORD PTR [ecx]
  0000f	ff 75 0c	 push	 DWORD PTR _dwID$[ebp]
  00012	ff 50 18	 call	 DWORD PTR [eax+24]
  00015	50		 push	 eax
  00016	e8 00 00 00 00	 call	 ?__CreateItem@@YAXKHHHE@Z ; __CreateItem
  0001b	83 c4 14	 add	 esp, 20			; 00000014H

; 663  : 	return 1;

  0001e	b8 01 00 00 00	 mov	 eax, 1

; 664  : }

  00023	5d		 pop	 ebp
  00024	c2 0c 00	 ret	 12			; 0000000cH
?CreateItem@@YGHPAUNPCDIALOG_INFO@@KH@Z ENDP		; CreateItem
_TEXT	ENDS
; Function compile flags: /Ogtp
; File C:\IAGOS\server\v18\Source\Source\_Common\scriptlib.cpp
;	COMDAT ?SetQuest@@YGHPAUNPCDIALOG_INFO@@H@Z
_TEXT	SEGMENT
_pInfo$ = 8						; size = 4
_nQuest$ = 12						; size = 4
?SetQuest@@YGHPAUNPCDIALOG_INFO@@H@Z PROC		; SetQuest, COMDAT

; 655  : {

  00000	55		 push	 ebp
  00001	8b ec		 mov	 ebp, esp

; 656  : 	__SetQuest(  pInfo->GetPcId(), nQuest );

  00003	8b 4d 08	 mov	 ecx, DWORD PTR _pInfo$[ebp]
  00006	ff 75 0c	 push	 DWORD PTR _nQuest$[ebp]
  00009	8b 01		 mov	 eax, DWORD PTR [ecx]
  0000b	ff 50 18	 call	 DWORD PTR [eax+24]
  0000e	50		 push	 eax
  0000f	e8 00 00 00 00	 call	 ?__SetQuest@@YAXKH@Z	; __SetQuest
  00014	83 c4 08	 add	 esp, 8

; 657  : 	return 1;

  00017	b8 01 00 00 00	 mov	 eax, 1

; 658  : }

  0001c	5d		 pop	 ebp
  0001d	c2 08 00	 ret	 8
?SetQuest@@YGHPAUNPCDIALOG_INFO@@H@Z ENDP		; SetQuest
_TEXT	ENDS
; Function compile flags: /Ogtp
; File C:\IAGOS\server\v18\Source\Source\_Common\scriptlib.cpp
;	COMDAT ?SetQuestState@@YGHPAUNPCDIALOG_INFO@@HH@Z
_TEXT	SEGMENT
_pInfo$ = 8						; size = 4
_nQuest$ = 12						; size = 4
_n$ = 16						; size = 4
?SetQuestState@@YGHPAUNPCDIALOG_INFO@@HH@Z PROC		; SetQuestState, COMDAT

; 651  : {

  00000	55		 push	 ebp
  00001	8b ec		 mov	 ebp, esp

; 652  : 	return __SetQuestState( pInfo->GetPcId(), nQuest, n );

  00003	8b 4d 08	 mov	 ecx, DWORD PTR _pInfo$[ebp]
  00006	ff 75 10	 push	 DWORD PTR _n$[ebp]
  00009	ff 75 0c	 push	 DWORD PTR _nQuest$[ebp]
  0000c	8b 01		 mov	 eax, DWORD PTR [ecx]
  0000e	ff 50 18	 call	 DWORD PTR [eax+24]
  00011	50		 push	 eax
  00012	e8 00 00 00 00	 call	 ?__SetQuestState@@YAHKHH@Z ; __SetQuestState
  00017	83 c4 0c	 add	 esp, 12			; 0000000cH

; 653  : }

  0001a	5d		 pop	 ebp
  0001b	c2 0c 00	 ret	 12			; 0000000cH
?SetQuestState@@YGHPAUNPCDIALOG_INFO@@HH@Z ENDP		; SetQuestState
_TEXT	ENDS
; Function compile flags: /Ogtp
; File C:\IAGOS\server\v18\Source\Source\_Common\scriptlib.cpp
;	COMDAT ?InitInt@@YGHPAUNPCDIALOG_INFO@@@Z
_TEXT	SEGMENT
_rsf$ = -2076						; size = 2072
__$ArrayPad$ = -4					; size = 4
_pInfo$ = 8						; size = 4
?InitInt@@YGHPAUNPCDIALOG_INFO@@@Z PROC			; InitInt, COMDAT

; 634  : {

  00000	55		 push	 ebp
  00001	8b ec		 mov	 ebp, esp
  00003	81 ec 1c 08 00
	00		 sub	 esp, 2076		; 0000081cH
  00009	a1 00 00 00 00	 mov	 eax, DWORD PTR ___security_cookie
  0000e	33 c5		 xor	 eax, ebp
  00010	89 45 fc	 mov	 DWORD PTR __$ArrayPad$[ebp], eax
  00013	8b 4d 08	 mov	 ecx, DWORD PTR _pInfo$[ebp]
  00016	56		 push	 esi
  00017	57		 push	 edi

; 635  : 	CUser* pUser	= prj.GetUser( pInfo->GetPcId() );

  00018	8b 01		 mov	 eax, DWORD PTR [ecx]
  0001a	ff 50 18	 call	 DWORD PTR [eax+24]
  0001d	50		 push	 eax
  0001e	b9 00 00 00 00	 mov	 ecx, OFFSET ?prj@@3VCProject@@A ; prj
  00023	e8 00 00 00 00	 call	 ?GetUser@CProject@@QAEPAVCUser@@K@Z ; CProject::GetUser
  00028	8b f0		 mov	 esi, eax

; 636  : 	int nInt = pUser->m_nInt;

  0002a	8b be d4 05 00
	00		 mov	 edi, DWORD PTR [esi+1492]

; 637  : 	if( nInt - 15 > 0 )

  00030	8d 4f f1	 lea	 ecx, DWORD PTR [edi-15]
  00033	85 c9		 test	 ecx, ecx
  00035	7e 1b		 jle	 SHORT $LN5@InitInt

; 638  : 	{
; 639  : 		pUser->SetInt( 15 );
; 640  : 		pUser->m_nRemainGP	+= nInt - 15;

  00037	8b 86 04 06 00
	00		 mov	 eax, DWORD PTR [esi+1540]
  0003d	83 c0 f1	 add	 eax, -15		; fffffff1H
  00040	c7 86 d4 05 00
	00 0f 00 00 00	 mov	 DWORD PTR [esi+1492], 15 ; 0000000fH
  0004a	03 c7		 add	 eax, edi
  0004c	89 86 04 06 00
	00		 mov	 DWORD PTR [esi+1540], eax
$LN5@InitInt:

; 641  : 	}
; 642  : 	
; 643  : 	RunScriptFunc rsf;
; 644  : 	rsf.wFuncType		= FUNCTYPE_INITINT;

  00052	b8 23 00 00 00	 mov	 eax, 35			; 00000023H

; 645  : 	rsf.dwVal1	= pUser->m_nRemainGP;
; 646  : 	pUser->AddRunScriptFunc( rsf );

  00057	8b ce		 mov	 ecx, esi
  00059	66 89 45 ec	 mov	 WORD PTR _rsf$[ebp+2056], ax
  0005d	8b 86 04 06 00
	00		 mov	 eax, DWORD PTR [esi+1540]
  00063	89 45 e4	 mov	 DWORD PTR _rsf$[ebp+2048], eax
  00066	8d 85 e4 f7 ff
	ff		 lea	 eax, DWORD PTR _rsf$[ebp]
  0006c	50		 push	 eax
  0006d	e8 00 00 00 00	 call	 ?AddRunScriptFunc@CUser@@QAEXABU_runscriptfunc@@@Z ; CUser::AddRunScriptFunc

; 647  : 	return 1;
; 648  : }

  00072	8b 4d fc	 mov	 ecx, DWORD PTR __$ArrayPad$[ebp]
  00075	b8 01 00 00 00	 mov	 eax, 1
  0007a	5f		 pop	 edi
  0007b	33 cd		 xor	 ecx, ebp
  0007d	5e		 pop	 esi
  0007e	e8 00 00 00 00	 call	 @__security_check_cookie@4
  00083	8b e5		 mov	 esp, ebp
  00085	5d		 pop	 ebp
  00086	c2 04 00	 ret	 4
?InitInt@@YGHPAUNPCDIALOG_INFO@@@Z ENDP			; InitInt
_TEXT	ENDS
; Function compile flags: /Ogtp
; File C:\IAGOS\server\v18\Source\Source\_Common\scriptlib.cpp
;	COMDAT ?InitDex@@YGHPAUNPCDIALOG_INFO@@@Z
_TEXT	SEGMENT
_rsf$ = -2076						; size = 2072
__$ArrayPad$ = -4					; size = 4
_pInfo$ = 8						; size = 4
?InitDex@@YGHPAUNPCDIALOG_INFO@@@Z PROC			; InitDex, COMDAT

; 618  : {

  00000	55		 push	 ebp
  00001	8b ec		 mov	 ebp, esp
  00003	81 ec 1c 08 00
	00		 sub	 esp, 2076		; 0000081cH
  00009	a1 00 00 00 00	 mov	 eax, DWORD PTR ___security_cookie
  0000e	33 c5		 xor	 eax, ebp
  00010	89 45 fc	 mov	 DWORD PTR __$ArrayPad$[ebp], eax
  00013	8b 4d 08	 mov	 ecx, DWORD PTR _pInfo$[ebp]
  00016	56		 push	 esi
  00017	57		 push	 edi

; 619  : 	CUser* pUser	= prj.GetUser( pInfo->GetPcId() );

  00018	8b 01		 mov	 eax, DWORD PTR [ecx]
  0001a	ff 50 18	 call	 DWORD PTR [eax+24]
  0001d	50		 push	 eax
  0001e	b9 00 00 00 00	 mov	 ecx, OFFSET ?prj@@3VCProject@@A ; prj
  00023	e8 00 00 00 00	 call	 ?GetUser@CProject@@QAEPAVCUser@@K@Z ; CProject::GetUser
  00028	8b f0		 mov	 esi, eax

; 620  : 	int nDex = pUser->m_nDex;

  0002a	8b be d0 05 00
	00		 mov	 edi, DWORD PTR [esi+1488]

; 621  : 	if( nDex - 15 > 0 )

  00030	8d 4f f1	 lea	 ecx, DWORD PTR [edi-15]
  00033	85 c9		 test	 ecx, ecx
  00035	7e 1b		 jle	 SHORT $LN5@InitDex

; 622  : 	{
; 623  : 		pUser->SetDex( 15 );
; 624  : 		pUser->m_nRemainGP	+= nDex - 15;

  00037	8b 86 04 06 00
	00		 mov	 eax, DWORD PTR [esi+1540]
  0003d	83 c0 f1	 add	 eax, -15		; fffffff1H
  00040	c7 86 d0 05 00
	00 0f 00 00 00	 mov	 DWORD PTR [esi+1488], 15 ; 0000000fH
  0004a	03 c7		 add	 eax, edi
  0004c	89 86 04 06 00
	00		 mov	 DWORD PTR [esi+1540], eax
$LN5@InitDex:

; 625  : 	}
; 626  : 	
; 627  : 	RunScriptFunc rsf;
; 628  : 	rsf.wFuncType		= FUNCTYPE_INITDEX;

  00052	b8 22 00 00 00	 mov	 eax, 34			; 00000022H

; 629  : 	rsf.dwVal1	= pUser->m_nRemainGP;
; 630  : 	pUser->AddRunScriptFunc( rsf );

  00057	8b ce		 mov	 ecx, esi
  00059	66 89 45 ec	 mov	 WORD PTR _rsf$[ebp+2056], ax
  0005d	8b 86 04 06 00
	00		 mov	 eax, DWORD PTR [esi+1540]
  00063	89 45 e4	 mov	 DWORD PTR _rsf$[ebp+2048], eax
  00066	8d 85 e4 f7 ff
	ff		 lea	 eax, DWORD PTR _rsf$[ebp]
  0006c	50		 push	 eax
  0006d	e8 00 00 00 00	 call	 ?AddRunScriptFunc@CUser@@QAEXABU_runscriptfunc@@@Z ; CUser::AddRunScriptFunc

; 631  : 	return 1;
; 632  : }

  00072	8b 4d fc	 mov	 ecx, DWORD PTR __$ArrayPad$[ebp]
  00075	b8 01 00 00 00	 mov	 eax, 1
  0007a	5f		 pop	 edi
  0007b	33 cd		 xor	 ecx, ebp
  0007d	5e		 pop	 esi
  0007e	e8 00 00 00 00	 call	 @__security_check_cookie@4
  00083	8b e5		 mov	 esp, ebp
  00085	5d		 pop	 ebp
  00086	c2 04 00	 ret	 4
?InitDex@@YGHPAUNPCDIALOG_INFO@@@Z ENDP			; InitDex
_TEXT	ENDS
; Function compile flags: /Ogtp
; File C:\IAGOS\server\v18\Source\Source\_Common\scriptlib.cpp
;	COMDAT ?InitSta@@YGHPAUNPCDIALOG_INFO@@@Z
_TEXT	SEGMENT
_rsf$ = -2076						; size = 2072
__$ArrayPad$ = -4					; size = 4
_pInfo$ = 8						; size = 4
?InitSta@@YGHPAUNPCDIALOG_INFO@@@Z PROC			; InitSta, COMDAT

; 602  : {

  00000	55		 push	 ebp
  00001	8b ec		 mov	 ebp, esp
  00003	81 ec 1c 08 00
	00		 sub	 esp, 2076		; 0000081cH
  00009	a1 00 00 00 00	 mov	 eax, DWORD PTR ___security_cookie
  0000e	33 c5		 xor	 eax, ebp
  00010	89 45 fc	 mov	 DWORD PTR __$ArrayPad$[ebp], eax
  00013	8b 4d 08	 mov	 ecx, DWORD PTR _pInfo$[ebp]
  00016	56		 push	 esi
  00017	57		 push	 edi

; 603  : 	CUser* pUser	= prj.GetUser( pInfo->GetPcId() );

  00018	8b 01		 mov	 eax, DWORD PTR [ecx]
  0001a	ff 50 18	 call	 DWORD PTR [eax+24]
  0001d	50		 push	 eax
  0001e	b9 00 00 00 00	 mov	 ecx, OFFSET ?prj@@3VCProject@@A ; prj
  00023	e8 00 00 00 00	 call	 ?GetUser@CProject@@QAEPAVCUser@@K@Z ; CProject::GetUser
  00028	8b f0		 mov	 esi, eax

; 604  : 	int nSta = pUser->m_nSta;

  0002a	8b be cc 05 00
	00		 mov	 edi, DWORD PTR [esi+1484]

; 605  : 	if( nSta - 15 > 0 )

  00030	8d 4f f1	 lea	 ecx, DWORD PTR [edi-15]
  00033	85 c9		 test	 ecx, ecx
  00035	7e 1b		 jle	 SHORT $LN5@InitSta

; 606  : 	{
; 607  : 		pUser->SetSta( 15 );
; 608  : 		pUser->m_nRemainGP	+= nSta - 15;

  00037	8b 86 04 06 00
	00		 mov	 eax, DWORD PTR [esi+1540]
  0003d	83 c0 f1	 add	 eax, -15		; fffffff1H
  00040	c7 86 cc 05 00
	00 0f 00 00 00	 mov	 DWORD PTR [esi+1484], 15 ; 0000000fH
  0004a	03 c7		 add	 eax, edi
  0004c	89 86 04 06 00
	00		 mov	 DWORD PTR [esi+1540], eax
$LN5@InitSta:

; 609  : 	}
; 610  : 	
; 611  : 	RunScriptFunc rsf;
; 612  : 	rsf.wFuncType		= FUNCTYPE_INITSTA;

  00052	b8 21 00 00 00	 mov	 eax, 33			; 00000021H

; 613  : 	rsf.dwVal1	= pUser->m_nRemainGP;
; 614  : 	pUser->AddRunScriptFunc( rsf );

  00057	8b ce		 mov	 ecx, esi
  00059	66 89 45 ec	 mov	 WORD PTR _rsf$[ebp+2056], ax
  0005d	8b 86 04 06 00
	00		 mov	 eax, DWORD PTR [esi+1540]
  00063	89 45 e4	 mov	 DWORD PTR _rsf$[ebp+2048], eax
  00066	8d 85 e4 f7 ff
	ff		 lea	 eax, DWORD PTR _rsf$[ebp]
  0006c	50		 push	 eax
  0006d	e8 00 00 00 00	 call	 ?AddRunScriptFunc@CUser@@QAEXABU_runscriptfunc@@@Z ; CUser::AddRunScriptFunc

; 615  : 	return 1;
; 616  : }

  00072	8b 4d fc	 mov	 ecx, DWORD PTR __$ArrayPad$[ebp]
  00075	b8 01 00 00 00	 mov	 eax, 1
  0007a	5f		 pop	 edi
  0007b	33 cd		 xor	 ecx, ebp
  0007d	5e		 pop	 esi
  0007e	e8 00 00 00 00	 call	 @__security_check_cookie@4
  00083	8b e5		 mov	 esp, ebp
  00085	5d		 pop	 ebp
  00086	c2 04 00	 ret	 4
?InitSta@@YGHPAUNPCDIALOG_INFO@@@Z ENDP			; InitSta
_TEXT	ENDS
; Function compile flags: /Ogtp
; File C:\IAGOS\server\v18\Source\Source\_Common\scriptlib.cpp
;	COMDAT ?InitStr@@YGHPAUNPCDIALOG_INFO@@@Z
_TEXT	SEGMENT
_rsf$ = -2076						; size = 2072
__$ArrayPad$ = -4					; size = 4
_pInfo$ = 8						; size = 4
?InitStr@@YGHPAUNPCDIALOG_INFO@@@Z PROC			; InitStr, COMDAT

; 586  : {

  00000	55		 push	 ebp
  00001	8b ec		 mov	 ebp, esp
  00003	81 ec 1c 08 00
	00		 sub	 esp, 2076		; 0000081cH
  00009	a1 00 00 00 00	 mov	 eax, DWORD PTR ___security_cookie
  0000e	33 c5		 xor	 eax, ebp
  00010	89 45 fc	 mov	 DWORD PTR __$ArrayPad$[ebp], eax
  00013	8b 4d 08	 mov	 ecx, DWORD PTR _pInfo$[ebp]
  00016	56		 push	 esi
  00017	57		 push	 edi

; 587  : 	CUser* pUser	= prj.GetUser( pInfo->GetPcId() );

  00018	8b 01		 mov	 eax, DWORD PTR [ecx]
  0001a	ff 50 18	 call	 DWORD PTR [eax+24]
  0001d	50		 push	 eax
  0001e	b9 00 00 00 00	 mov	 ecx, OFFSET ?prj@@3VCProject@@A ; prj
  00023	e8 00 00 00 00	 call	 ?GetUser@CProject@@QAEPAVCUser@@K@Z ; CProject::GetUser
  00028	8b f0		 mov	 esi, eax

; 588  : 	int nStr = pUser->m_nStr;

  0002a	8b be c8 05 00
	00		 mov	 edi, DWORD PTR [esi+1480]

; 589  : 	if( nStr - 15 > 0 )

  00030	8d 4f f1	 lea	 ecx, DWORD PTR [edi-15]
  00033	85 c9		 test	 ecx, ecx
  00035	7e 1b		 jle	 SHORT $LN5@InitStr

; 590  : 	{
; 591  : 		pUser->SetStr( 15 );
; 592  : 		pUser->m_nRemainGP	+= nStr - 15;

  00037	8b 86 04 06 00
	00		 mov	 eax, DWORD PTR [esi+1540]
  0003d	83 c0 f1	 add	 eax, -15		; fffffff1H
  00040	c7 86 c8 05 00
	00 0f 00 00 00	 mov	 DWORD PTR [esi+1480], 15 ; 0000000fH
  0004a	03 c7		 add	 eax, edi
  0004c	89 86 04 06 00
	00		 mov	 DWORD PTR [esi+1540], eax
$LN5@InitStr:

; 593  : 	}
; 594  : 	
; 595  : 	RunScriptFunc rsf;
; 596  : 	rsf.wFuncType		= FUNCTYPE_INITSTR;

  00052	b8 20 00 00 00	 mov	 eax, 32			; 00000020H

; 597  : 	rsf.dwVal1	= pUser->m_nRemainGP;
; 598  : 	pUser->AddRunScriptFunc( rsf );

  00057	8b ce		 mov	 ecx, esi
  00059	66 89 45 ec	 mov	 WORD PTR _rsf$[ebp+2056], ax
  0005d	8b 86 04 06 00
	00		 mov	 eax, DWORD PTR [esi+1540]
  00063	89 45 e4	 mov	 DWORD PTR _rsf$[ebp+2048], eax
  00066	8d 85 e4 f7 ff
	ff		 lea	 eax, DWORD PTR _rsf$[ebp]
  0006c	50		 push	 eax
  0006d	e8 00 00 00 00	 call	 ?AddRunScriptFunc@CUser@@QAEXABU_runscriptfunc@@@Z ; CUser::AddRunScriptFunc

; 599  : 	return 1;
; 600  : }

  00072	8b 4d fc	 mov	 ecx, DWORD PTR __$ArrayPad$[ebp]
  00075	b8 01 00 00 00	 mov	 eax, 1
  0007a	5f		 pop	 edi
  0007b	33 cd		 xor	 ecx, ebp
  0007d	5e		 pop	 esi
  0007e	e8 00 00 00 00	 call	 @__security_check_cookie@4
  00083	8b e5		 mov	 esp, ebp
  00085	5d		 pop	 ebp
  00086	c2 04 00	 ret	 4
?InitStr@@YGHPAUNPCDIALOG_INFO@@@Z ENDP			; InitStr
_TEXT	ENDS
; Function compile flags: /Ogtp
; File C:\IAGOS\server\v18\Source\Source\_Common\scriptlib.cpp
;	COMDAT ?InitStat@@YGHPAUNPCDIALOG_INFO@@@Z
_TEXT	SEGMENT
_rsf$ = -2076						; size = 2072
__$ArrayPad$ = -4					; size = 4
_pInfo$ = 8						; size = 4
?InitStat@@YGHPAUNPCDIALOG_INFO@@@Z PROC		; InitStat, COMDAT

; 571  : {

  00000	55		 push	 ebp
  00001	8b ec		 mov	 ebp, esp
  00003	81 ec 1c 08 00
	00		 sub	 esp, 2076		; 0000081cH
  00009	a1 00 00 00 00	 mov	 eax, DWORD PTR ___security_cookie
  0000e	33 c5		 xor	 eax, ebp
  00010	89 45 fc	 mov	 DWORD PTR __$ArrayPad$[ebp], eax
  00013	8b 4d 08	 mov	 ecx, DWORD PTR _pInfo$[ebp]

; 572  : 	CUser* pUser	= prj.GetUser( pInfo->GetPcId() );

  00016	8b 01		 mov	 eax, DWORD PTR [ecx]
  00018	ff 50 18	 call	 DWORD PTR [eax+24]
  0001b	50		 push	 eax
  0001c	b9 00 00 00 00	 mov	 ecx, OFFSET ?prj@@3VCProject@@A ; prj
  00021	e8 00 00 00 00	 call	 ?GetUser@CProject@@QAEPAVCUser@@K@Z ; CProject::GetUser
  00026	8b d0		 mov	 edx, eax

; 573  : 	pUser->SetStr( 15 );
; 574  : 	pUser->SetInt( 15 );
; 575  : 	pUser->SetDex( 15 );
; 576  : 	pUser->SetSta( 15 );
; 577  : 	pUser->m_nRemainGP	= ( pUser->GetLevel() - 1 ) * 2;
; 578  : 	RunScriptFunc rsf;
; 579  : 	rsf.wFuncType		= FUNCTYPE_INITSTAT;

  00028	b8 1a 00 00 00	 mov	 eax, 26			; 0000001aH
  0002d	8b 8a d8 05 00
	00		 mov	 ecx, DWORD PTR [edx+1496]
  00033	c7 82 c8 05 00
	00 0f 00 00 00	 mov	 DWORD PTR [edx+1480], 15 ; 0000000fH
  0003d	c7 82 d4 05 00
	00 0f 00 00 00	 mov	 DWORD PTR [edx+1492], 15 ; 0000000fH
  00047	c7 82 d0 05 00
	00 0f 00 00 00	 mov	 DWORD PTR [edx+1488], 15 ; 0000000fH
  00051	8d 0c 4d fe ff
	ff ff		 lea	 ecx, DWORD PTR [ecx*2-2]
  00058	c7 82 cc 05 00
	00 0f 00 00 00	 mov	 DWORD PTR [edx+1484], 15 ; 0000000fH
  00062	89 8a 04 06 00
	00		 mov	 DWORD PTR [edx+1540], ecx

; 580  : 	rsf.dwVal1	= pUser->m_nRemainGP;
; 581  : 	pUser->AddRunScriptFunc( rsf );

  00068	8b ca		 mov	 ecx, edx
  0006a	66 89 45 ec	 mov	 WORD PTR _rsf$[ebp+2056], ax
  0006e	8b 82 04 06 00
	00		 mov	 eax, DWORD PTR [edx+1540]
  00074	89 45 e4	 mov	 DWORD PTR _rsf$[ebp+2048], eax
  00077	8d 85 e4 f7 ff
	ff		 lea	 eax, DWORD PTR _rsf$[ebp]
  0007d	50		 push	 eax
  0007e	e8 00 00 00 00	 call	 ?AddRunScriptFunc@CUser@@QAEXABU_runscriptfunc@@@Z ; CUser::AddRunScriptFunc

; 582  : 	return 1;
; 583  : }

  00083	8b 4d fc	 mov	 ecx, DWORD PTR __$ArrayPad$[ebp]
  00086	b8 01 00 00 00	 mov	 eax, 1
  0008b	33 cd		 xor	 ecx, ebp
  0008d	e8 00 00 00 00	 call	 @__security_check_cookie@4
  00092	8b e5		 mov	 esp, ebp
  00094	5d		 pop	 ebp
  00095	c2 04 00	 ret	 4
?InitStat@@YGHPAUNPCDIALOG_INFO@@@Z ENDP		; InitStat
_TEXT	ENDS
; Function compile flags: /Ogtp
; File C:\IAGOS\server\v18\Source\Source\_Common\scriptlib.cpp
; File C:\IAGOS\server\v18\Source\Source\_Common\Project.h
; File C:\IAGOS\server\v18\Source\Source\_Common\scriptlib.cpp
; File C:\IAGOS\server\v18\Source\Source\_Common\Project.h
; File C:\IAGOS\server\v18\Source\Source\_Common\data.h
; File C:\IAGOS\server\v18\Source\Source\_Common\Project.h
; File C:\IAGOS\server\v18\Source\Source\_Common\scriptlib.cpp
; File C:\Program Files\Microsoft Visual Studio\2022\Professional\VC\Tools\MSVC\14.44.35207\atlmfc\include\atlsimpstr.h
; File C:\IAGOS\server\v18\Source\Source\_Common\scriptlib.cpp
; File C:\Program Files\Microsoft Visual Studio\2022\Professional\VC\Tools\MSVC\14.44.35207\include\vector
; File C:\IAGOS\server\v18\Source\Source\_Common\scriptlib.cpp
; File C:\Program Files\Microsoft Visual Studio\2022\Professional\VC\Tools\MSVC\14.44.35207\include\vector
; File C:\IAGOS\server\v18\Source\Source\_Common\scriptlib.cpp
; File C:\Program Files\Microsoft Visual Studio\2022\Professional\VC\Tools\MSVC\14.44.35207\include\vector
; File C:\IAGOS\server\v18\Source\Source\_Common\scriptlib.cpp
; File C:\Program Files\Microsoft Visual Studio\2022\Professional\VC\Tools\MSVC\14.44.35207\include\vector
; File C:\IAGOS\server\v18\Source\Source\_Common\scriptlib.cpp
; File C:\Program Files\Microsoft Visual Studio\2022\Professional\VC\Tools\MSVC\14.44.35207\include\vector
; File C:\IAGOS\server\v18\Source\Source\_Common\scriptlib.cpp
; File C:\Program Files\Microsoft Visual Studio\2022\Professional\VC\Tools\MSVC\14.44.35207\include\vector
; File C:\IAGOS\server\v18\Source\Source\_Common\scriptlib.cpp
; File C:\Program Files\Microsoft Visual Studio\2022\Professional\VC\Tools\MSVC\14.44.35207\include\vector
; File C:\IAGOS\server\v18\Source\Source\_Common\scriptlib.cpp
;	COMDAT ?MonHuntStartParty@@YGHPAUNPCDIALOG_INFO@@HHHH@Z
_TEXT	SEGMENT
_pParty$1$ = -2116					; size = 4
_pProcessor$1$ = -2112					; size = 4
tv511 = -2108						; size = 4
_WorMon$1$ = -2104					; size = 4
_pWorld$1$ = -2104					; size = 4
_pUser$1$ = -2100					; size = 4
_bSuccess$1$ = -2096					; size = 4
_str$2 = -2092						; size = 4
_nQuest$GSCopy$1$ = -2092				; size = 4
_rsf$3 = -2088						; size = 2072
__$ArrayPad$ = -16					; size = 4
__$EHRec$ = -12						; size = 12
_pInfo$ = 8						; size = 4
_nQuest$ = 12						; size = 4
_nState$ = 16						; size = 4
_nState2$ = 20						; size = 4
_n$ = 24						; size = 4
?MonHuntStartParty@@YGHPAUNPCDIALOG_INFO@@HHHH@Z PROC	; MonHuntStartParty, COMDAT

; 495  : {

  00000	55		 push	 ebp
  00001	8b ec		 mov	 ebp, esp
  00003	6a ff		 push	 -1
  00005	68 00 00 00 00	 push	 __ehhandler$?MonHuntStartParty@@YGHPAUNPCDIALOG_INFO@@HHHH@Z
  0000a	64 a1 00 00 00
	00		 mov	 eax, DWORD PTR fs:0
  00010	50		 push	 eax
  00011	81 ec 38 08 00
	00		 sub	 esp, 2104		; 00000838H
  00017	a1 00 00 00 00	 mov	 eax, DWORD PTR ___security_cookie
  0001c	33 c5		 xor	 eax, ebp
  0001e	89 45 f0	 mov	 DWORD PTR __$ArrayPad$[ebp], eax
  00021	53		 push	 ebx
  00022	56		 push	 esi
  00023	57		 push	 edi
  00024	50		 push	 eax
  00025	8d 45 f4	 lea	 eax, DWORD PTR __$EHRec$[ebp]
  00028	64 a3 00 00 00
	00		 mov	 DWORD PTR fs:0, eax
  0002e	8b 5d 0c	 mov	 ebx, DWORD PTR _nQuest$[ebp]
  00031	8b 75 08	 mov	 esi, DWORD PTR _pInfo$[ebp]
  00034	89 9d d4 f7 ff
	ff		 mov	 DWORD PTR _nQuest$GSCopy$1$[ebp], ebx

; 496  : 	CPartyQuestProcessor* pProcessor	= CPartyQuestProcessor::GetInstance();

  0003a	e8 00 00 00 00	 call	 ?GetInstance@CPartyQuestProcessor@@SAPAV1@XZ ; CPartyQuestProcessor::GetInstance

; 497  : 	if( pProcessor->IsQuesting( nQuest ) )

  0003f	53		 push	 ebx
  00040	8b c8		 mov	 ecx, eax
  00042	89 85 c0 f7 ff
	ff		 mov	 DWORD PTR _pProcessor$1$[ebp], eax
  00048	e8 00 00 00 00	 call	 ?IsQuesting@CPartyQuestProcessor@@QAEHH@Z ; CPartyQuestProcessor::IsQuesting
  0004d	85 c0		 test	 eax, eax
  0004f	0f 85 08 01 00
	00		 jne	 $LN13@MonHuntSta

; 498  : 	{
; 499  : 		return 0;
; 500  : 	}
; 501  : 	else
; 502  : 	{
; 503  : 		CUser* pUser	= prj.GetUser( pInfo->GetPcId() );

  00055	8b 16		 mov	 edx, DWORD PTR [esi]
  00057	8b ce		 mov	 ecx, esi
  00059	ff 52 18	 call	 DWORD PTR [edx+24]
  0005c	50		 push	 eax
  0005d	b9 00 00 00 00	 mov	 ecx, OFFSET ?prj@@3VCProject@@A ; prj
  00062	e8 00 00 00 00	 call	 ?GetUser@CProject@@QAEPAVCUser@@K@Z ; CProject::GetUser
  00067	8b d8		 mov	 ebx, eax

; 504  : 
; 505  : 		CParty* pParty	= g_PartyMng.GetParty( pUser->GetPartyId() );

  00069	b9 00 00 00 00	 mov	 ecx, OFFSET ?g_PartyMng@@3VCPartyMng@@A ; g_PartyMng
  0006e	89 9d cc f7 ff
	ff		 mov	 DWORD PTR _pUser$1$[ebp], ebx
  00074	ff b3 10 07 00
	00		 push	 DWORD PTR [ebx+1808]
  0007a	e8 00 00 00 00	 call	 ?GetParty@CPartyMng@@QAEPAVCParty@@K@Z ; CPartyMng::GetParty
  0007f	8b f0		 mov	 esi, eax
  00081	89 b5 bc f7 ff
	ff		 mov	 DWORD PTR _pParty$1$[ebp], esi

; 506  : 		if( pParty )

  00087	85 f6		 test	 esi, esi
  00089	0f 84 ce 00 00
	00		 je	 $LN13@MonHuntSta

; 507  : 		{
; 508  : 			PARTYQUESTPROP* pProp	= prj.GetPartyQuestProp( nQuest );

  0008f	ff b5 d4 f7 ff
	ff		 push	 DWORD PTR _nQuest$GSCopy$1$[ebp]
  00095	b9 00 00 00 00	 mov	 ecx, OFFSET ?prj@@3VCProject@@A ; prj
  0009a	e8 00 00 00 00	 call	 ?GetPartyQuestProp@CProject@@QAEPAUPARTYQUESTPROP@@H@Z ; CProject::GetPartyQuestProp
  0009f	8b f8		 mov	 edi, eax

; 509  : 			if( pProp )

  000a1	85 ff		 test	 edi, edi
  000a3	0f 84 b4 00 00
	00		 je	 $LN13@MonHuntSta

; 510  : 			{				
; 511  : 				if( pParty->ReplaceChkLv( pProp->nLevel+5 ) == FALSE )

  000a9	8b 4f 20	 mov	 ecx, DWORD PTR [edi+32]
  000ac	83 c1 05	 add	 ecx, 5
  000af	51		 push	 ecx
  000b0	8b ce		 mov	 ecx, esi
  000b2	e8 00 00 00 00	 call	 ?ReplaceChkLv@CParty@@QAEHH@Z ; CParty::ReplaceChkLv
  000b7	85 c0		 test	 eax, eax
  000b9	0f 85 be 00 00
	00		 jne	 $LN9@MonHuntSta

; 513  : 					CString str;

  000bf	8d 8d d4 f7 ff
	ff		 lea	 ecx, DWORD PTR _str$2[ebp]
  000c5	e8 00 00 00 00	 call	 ??0?$CStringT@DV?$StrTraitMFC@DV?$ChTraitsCRT@D@ATL@@@@@ATL@@QAE@XZ ; ATL::CStringT<char,StrTraitMFC<char,ATL::ChTraitsCRT<char> > >::CStringT<char,StrTraitMFC<char,ATL::ChTraitsCRT<char> > >
; File C:\IAGOS\server\v18\Source\Source\_Common\Project.h

; 1427 : 	VERIFY_RANGE( (int)( dwIndex ), 0, m_colorText.GetSize(), "GetText range_error", "error" );

  000ca	a1 ac 02 00 00	 mov	 eax, DWORD PTR ?prj@@3VCProject@@A+684
; File C:\IAGOS\server\v18\Source\Source\_Common\scriptlib.cpp

; 513  : 					CString str;

  000cf	c7 45 fc 00 00
	00 00		 mov	 DWORD PTR __$EHRec$[ebp+8], 0
; File C:\IAGOS\server\v18\Source\Source\_Common\Project.h

; 1427 : 	VERIFY_RANGE( (int)( dwIndex ), 0, m_colorText.GetSize(), "GetText range_error", "error" );

  000d6	3d d0 0b 00 00	 cmp	 eax, 3024		; 00000bd0H
  000db	7f 21		 jg	 SHORT $LN19@MonHuntSta

; 579  : 	LPCTSTR szErr = Error( _T( "%s min:%d, max:%d, index:%d" ), szMsg, nMin, nMax, nIndex ); 

  000dd	68 d0 0b 00 00	 push	 3024			; 00000bd0H
  000e2	50		 push	 eax
  000e3	6a 00		 push	 0
  000e5	68 00 00 00 00	 push	 OFFSET ??_C@_0BE@OHDBLHOM@GetText?5range_error@
  000ea	68 00 00 00 00	 push	 OFFSET ??_C@_0BM@HMFGHCP@?$CFs?5min?3?$CFd?0?5max?3?$CFd?0?5index?3?$CFd@
  000ef	e8 00 00 00 00	 call	 ?Error@@YAPBDPBDZZ	; Error
  000f4	83 c4 14	 add	 esp, 20			; 00000014H

; 1427 : 	VERIFY_RANGE( (int)( dwIndex ), 0, m_colorText.GetSize(), "GetText range_error", "error" );

  000f7	b9 00 00 00 00	 mov	 ecx, OFFSET ??_C@_05KKCIMGE@error@
  000fc	eb 1b		 jmp	 SHORT $LN18@MonHuntSta
$LN19@MonHuntSta:
; File C:\IAGOS\server\v18\Source\Source\_Common\data.h

; 270  : 	if( dwIndex >= (DWORD)m_nMaxIndex )

  000fe	76 14		 jbe	 SHORT $LN55@MonHuntSta

; 271  : 		return NULL;
; 272  : 	return (T*) m_apOffset[ dwIndex ];

  00100	a1 9c 02 00 00	 mov	 eax, DWORD PTR ?prj@@3VCProject@@A+668
  00105	8b 88 40 2f 00
	00		 mov	 ecx, DWORD PTR [eax+12096]
; File C:\IAGOS\server\v18\Source\Source\_Common\Project.h

; 1428 : 	if( m_colorText.GetAt( dwIndex ) == NULL )

  0010b	85 c9		 test	 ecx, ecx
  0010d	74 05		 je	 SHORT $LN55@MonHuntSta

; 1430 : 	return m_colorText.GetAt( dwIndex )->lpszData; 

  0010f	8b 49 04	 mov	 ecx, DWORD PTR [ecx+4]
  00112	eb 05		 jmp	 SHORT $LN18@MonHuntSta
$LN55@MonHuntSta:

; 1429 : 		return "";

  00114	b9 00 00 00 00	 mov	 ecx, OFFSET ??_C@_00CNPNBAHC@@
$LN18@MonHuntSta:
; File C:\IAGOS\server\v18\Source\Source\_Common\scriptlib.cpp

; 514  : 					str.Format( prj.GetText(TID_GAME_PARTYQUEST_NOT_JOIN), pProp->nLevel+5 );

  00119	8b 47 20	 mov	 eax, DWORD PTR [edi+32]
  0011c	83 c0 05	 add	 eax, 5
  0011f	50		 push	 eax
  00120	51		 push	 ecx
  00121	8d 85 d4 f7 ff
	ff		 lea	 eax, DWORD PTR _str$2[ebp]
  00127	50		 push	 eax
  00128	e8 00 00 00 00	 call	 ?Format@?$CStringT@DV?$StrTraitMFC@DV?$ChTraitsCRT@D@ATL@@@@@ATL@@QAAXPBDZZ ; ATL::CStringT<char,StrTraitMFC<char,ATL::ChTraitsCRT<char> > >::Format

; 515  : 					pUser->AddDiagText( str );

  0012d	8b b5 d4 f7 ff
	ff		 mov	 esi, DWORD PTR _str$2[ebp]
  00133	83 c4 0c	 add	 esp, 12			; 0000000cH
  00136	8b cb		 mov	 ecx, ebx
  00138	56		 push	 esi
  00139	e8 00 00 00 00	 call	 ?AddDiagText@CUser@@QAEXPBD@Z ; CUser::AddDiagText

; 516  : 
; 517  : 					return 0;

  0013e	c7 45 fc ff ff
	ff ff		 mov	 DWORD PTR __$EHRec$[ebp+8], -1
; File C:\Program Files\Microsoft Visual Studio\2022\Professional\VC\Tools\MSVC\14.44.35207\atlmfc\include\atlsimpstr.h

; 804  : 		return( reinterpret_cast< CStringData* >( m_pszData )-1 );

  00145	83 c6 f0	 add	 esi, -16		; fffffff0H

; 92   : 		if( _InterlockedDecrement( &nRefs ) <= 0 )

  00148	83 c8 ff	 or	 eax, -1
  0014b	f0 0f c1 46 0c	 lock	  xadd	 DWORD PTR [esi+12], eax
  00150	48		 dec	 eax
  00151	85 c0		 test	 eax, eax
  00153	7f 08		 jg	 SHORT $LN13@MonHuntSta

; 93   : 		{
; 94   : 			pStringMgr->Free( this );

  00155	8b 0e		 mov	 ecx, DWORD PTR [esi]
  00157	56		 push	 esi
  00158	8b 01		 mov	 eax, DWORD PTR [ecx]
  0015a	ff 50 04	 call	 DWORD PTR [eax+4]
$LN13@MonHuntSta:
; File C:\IAGOS\server\v18\Source\Source\_Common\scriptlib.cpp

; 567  : 	return 0;

  0015d	33 c0		 xor	 eax, eax
$LN1@MonHuntSta:

; 568  : }

  0015f	8b 4d f4	 mov	 ecx, DWORD PTR __$EHRec$[ebp]
  00162	64 89 0d 00 00
	00 00		 mov	 DWORD PTR fs:0, ecx
  00169	59		 pop	 ecx
  0016a	5f		 pop	 edi
  0016b	5e		 pop	 esi
  0016c	5b		 pop	 ebx
  0016d	8b 4d f0	 mov	 ecx, DWORD PTR __$ArrayPad$[ebp]
  00170	33 cd		 xor	 ecx, ebp
  00172	e8 00 00 00 00	 call	 @__security_check_cookie@4
  00177	8b e5		 mov	 esp, ebp
  00179	5d		 pop	 ebp
  0017a	c2 14 00	 ret	 20			; 00000014H
$LN9@MonHuntSta:
; File C:\Program Files\Microsoft Visual Studio\2022\Professional\VC\Tools\MSVC\14.44.35207\include\vector

; 1915 :         return static_cast<size_type>(_My_data._Mylast - _My_data._Myfirst);

  0017d	8b 87 8c 10 00
	00		 mov	 eax, DWORD PTR [edi+4236]
; File C:\IAGOS\server\v18\Source\Source\_Common\scriptlib.cpp

; 525  : 				for( DWORD i=0; i<pProp->vecWormon.size(); i++ )

  00183	33 db		 xor	 ebx, ebx
; File C:\Program Files\Microsoft Visual Studio\2022\Professional\VC\Tools\MSVC\14.44.35207\include\vector

; 1915 :         return static_cast<size_type>(_My_data._Mylast - _My_data._Myfirst);

  00185	8b 8f 88 10 00
	00		 mov	 ecx, DWORD PTR [edi+4232]
  0018b	2b c1		 sub	 eax, ecx
  0018d	c1 f8 04	 sar	 eax, 4
; File C:\IAGOS\server\v18\Source\Source\_Common\scriptlib.cpp

; 523  : 				BOOL bSuccess = FALSE;

  00190	c7 85 d0 f7 ff
	ff 00 00 00 00	 mov	 DWORD PTR _bSuccess$1$[ebp], 0

; 525  : 				for( DWORD i=0; i<pProp->vecWormon.size(); i++ )

  0019a	85 c0		 test	 eax, eax
  0019c	74 bf		 je	 SHORT $LN13@MonHuntSta
; File C:\Program Files\Microsoft Visual Studio\2022\Professional\VC\Tools\MSVC\14.44.35207\include\vector

; 1914 :         auto& _My_data = _Mypair._Myval2;

  0019e	33 d2		 xor	 edx, edx
  001a0	89 95 c4 f7 ff
	ff		 mov	 DWORD PTR tv511[ebp], edx
$LL4@MonHuntSta:

; 1934 :         return _My_data._Myfirst[_Pos];

  001a6	8d 04 0a	 lea	 eax, DWORD PTR [edx+ecx]
; File C:\IAGOS\server\v18\Source\Source\_Common\scriptlib.cpp

; 529  : 					CMover* pWormon	= (CMover*)CreateObj( D3DDEVICE, OT_MOVER, WorMon->dwWormon );

  001a9	6a 01		 push	 1
  001ab	ff 30		 push	 DWORD PTR [eax]
; File C:\Program Files\Microsoft Visual Studio\2022\Professional\VC\Tools\MSVC\14.44.35207\include\vector

; 1934 :         return _My_data._Myfirst[_Pos];

  001ad	89 85 c8 f7 ff
	ff		 mov	 DWORD PTR _WorMon$1$[ebp], eax
; File C:\IAGOS\server\v18\Source\Source\_Common\scriptlib.cpp

; 529  : 					CMover* pWormon	= (CMover*)CreateObj( D3DDEVICE, OT_MOVER, WorMon->dwWormon );

  001b3	6a 05		 push	 5
  001b5	6a 00		 push	 0
  001b7	e8 00 00 00 00	 call	 ?CreateObj@@YAPAVCObj@@PAUIDirect3DDevice9@@KKH@Z ; CreateObj
  001bc	8b f0		 mov	 esi, eax
  001be	83 c4 10	 add	 esp, 16			; 00000010H

; 530  : 
; 531  : 					if( pWormon )

  001c1	85 f6		 test	 esi, esi
  001c3	0f 84 a2 00 00
	00		 je	 $LN57@MonHuntSta

; 532  : 					{
; 533  : 						pWormon->SetPos( WorMon->vPos );

  001c9	8b 8d c8 f7 ff
	ff		 mov	 ecx, DWORD PTR _WorMon$1$[ebp]
  001cf	83 c1 04	 add	 ecx, 4
  001d2	51		 push	 ecx
  001d3	8b ce		 mov	 ecx, esi
  001d5	e8 00 00 00 00	 call	 ?SetPos@CObj@@QAEXABUD3DXVECTOR3@@@Z ; CObj::SetPos

; 534  : 						pWormon->InitMotion( MTI_STAND );

  001da	8b 16		 mov	 edx, DWORD PTR [esi]
  001dc	8b ce		 mov	 ecx, esi
  001de	6a 00		 push	 0
  001e0	ff 52 08	 call	 DWORD PTR [edx+8]

; 535  : 						pWormon->UpdateLocalMatrix();

  001e3	8b ce		 mov	 ecx, esi
  001e5	e8 00 00 00 00	 call	 ?UpdateLocalMatrix@CObj@@QAEXXZ ; CObj::UpdateLocalMatrix

; 536  : 						pWormon->m_nPartyQuestKeeping = nQuest;

  001ea	8b 85 d4 f7 ff
	ff		 mov	 eax, DWORD PTR _nQuest$GSCopy$1$[ebp]

; 537  : 
; 538  : 						CWorld* pWorld	= g_WorldMng.GetWorld( pProp->dwWorldId );

  001f0	b9 00 00 00 00	 mov	 ecx, OFFSET ?g_WorldMng@@3VCWorldMng@@A ; g_WorldMng
  001f5	88 86 95 0d 00
	00		 mov	 BYTE PTR [esi+3477], al
  001fb	ff b7 64 10 00
	00		 push	 DWORD PTR [edi+4196]
  00201	e8 00 00 00 00	 call	 ?GetWorld@CWorldMng@@QAEPAVCWorld@@K@Z ; CWorldMng::GetWorld
  00206	89 85 c8 f7 ff
	ff		 mov	 DWORD PTR _pWorld$1$[ebp], eax

; 539  : 						if( pWorld )

  0020c	85 c0		 test	 eax, eax
  0020e	74 53		 je	 SHORT $LN11@MonHuntSta

; 540  : 						{
; 541  : 							RunScriptFunc rsf;	// Exit()
; 542  : 							rsf.wFuncType		= FUNCTYPE_EXIT;
; 543  : 							pUser->AddRunScriptFunc( rsf );

  00210	8b 8d cc f7 ff
	ff		 mov	 ecx, DWORD PTR _pUser$1$[ebp]
  00216	b8 16 00 00 00	 mov	 eax, 22			; 00000016H
  0021b	66 89 45 e0	 mov	 WORD PTR _rsf$3[ebp+2056], ax
  0021f	8d 85 d8 f7 ff
	ff		 lea	 eax, DWORD PTR _rsf$3[ebp]
  00225	50		 push	 eax
  00226	e8 00 00 00 00	 call	 ?AddRunScriptFunc@CUser@@QAEXABU_runscriptfunc@@@Z ; CUser::AddRunScriptFunc

; 544  : 							pWormon->AddItToGlobalId();

  0022b	8b 06		 mov	 eax, DWORD PTR [esi]
  0022d	8b ce		 mov	 ecx, esi
  0022f	ff 50 3c	 call	 DWORD PTR [eax+60]

; 545  : 							pWormon->m_bActiveAttack = TRUE;
; 546  : 							pWorld->ADDOBJ( pWormon, FALSE, pUser->GetLayer() );

  00232	8b 85 cc f7 ff
	ff		 mov	 eax, DWORD PTR _pUser$1$[ebp]
  00238	8b 8d c8 f7 ff
	ff		 mov	 ecx, DWORD PTR _pWorld$1$[ebp]
  0023e	c7 86 68 06 00
	00 01 00 00 00	 mov	 DWORD PTR [esi+1640], 1
  00248	ff b0 b8 01 00
	00		 push	 DWORD PTR [eax+440]
  0024e	6a 00		 push	 0
  00250	56		 push	 esi
  00251	e8 00 00 00 00	 call	 ?AddObj@CWorld@@QAEHPAVCObj@@HH@Z ; CWorld::AddObj

; 547  : 
; 548  : 							bSuccess = TRUE;								

  00256	be 01 00 00 00	 mov	 esi, 1
  0025b	89 b5 d0 f7 ff
	ff		 mov	 DWORD PTR _bSuccess$1$[ebp], esi

; 549  : 						}

  00261	eb 0e		 jmp	 SHORT $LN2@MonHuntSta
$LN11@MonHuntSta:

; 550  : 						else
; 551  : 						{
; 552  : 							safe_delete( pWormon );

  00263	8b 06		 mov	 eax, DWORD PTR [esi]
  00265	8b ce		 mov	 ecx, esi
  00267	6a 01		 push	 1
  00269	ff 10		 call	 DWORD PTR [eax]
$LN57@MonHuntSta:

; 525  : 				for( DWORD i=0; i<pProp->vecWormon.size(); i++ )

  0026b	8b b5 d0 f7 ff
	ff		 mov	 esi, DWORD PTR _bSuccess$1$[ebp]
$LN2@MonHuntSta:
; File C:\Program Files\Microsoft Visual Studio\2022\Professional\VC\Tools\MSVC\14.44.35207\include\vector

; 1915 :         return static_cast<size_type>(_My_data._Mylast - _My_data._Myfirst);

  00271	8b 87 8c 10 00
	00		 mov	 eax, DWORD PTR [edi+4236]
; File C:\IAGOS\server\v18\Source\Source\_Common\scriptlib.cpp

; 525  : 				for( DWORD i=0; i<pProp->vecWormon.size(); i++ )

  00277	43		 inc	 ebx
; File C:\Program Files\Microsoft Visual Studio\2022\Professional\VC\Tools\MSVC\14.44.35207\include\vector

; 1915 :         return static_cast<size_type>(_My_data._Mylast - _My_data._Myfirst);

  00278	8b 8f 88 10 00
	00		 mov	 ecx, DWORD PTR [edi+4232]
  0027e	2b c1		 sub	 eax, ecx
; File C:\IAGOS\server\v18\Source\Source\_Common\scriptlib.cpp

; 525  : 				for( DWORD i=0; i<pProp->vecWormon.size(); i++ )

  00280	8b 95 c4 f7 ff
	ff		 mov	 edx, DWORD PTR tv511[ebp]
  00286	83 c2 10	 add	 edx, 16			; 00000010H
; File C:\Program Files\Microsoft Visual Studio\2022\Professional\VC\Tools\MSVC\14.44.35207\include\vector

; 1915 :         return static_cast<size_type>(_My_data._Mylast - _My_data._Myfirst);

  00289	c1 f8 04	 sar	 eax, 4
; File C:\IAGOS\server\v18\Source\Source\_Common\scriptlib.cpp

; 525  : 				for( DWORD i=0; i<pProp->vecWormon.size(); i++ )

  0028c	89 95 c4 f7 ff
	ff		 mov	 DWORD PTR tv511[ebp], edx
  00292	3b d8		 cmp	 ebx, eax
  00294	0f 82 0c ff ff
	ff		 jb	 $LL4@MonHuntSta

; 553  : 						}
; 554  : 					}
; 555  : 				}
; 556  : 				
; 557  : 				if( bSuccess )

  0029a	85 f6		 test	 esi, esi
  0029c	0f 84 bb fe ff
	ff		 je	 $LN13@MonHuntSta

; 558  : 				{
; 559  : 					pProcessor->SetPartyQuest( nQuest, nState, nState2, n, pUser->GetPartyId(), 0 );

  002a2	8b 85 cc f7 ff
	ff		 mov	 eax, DWORD PTR _pUser$1$[ebp]
  002a8	8b 8d c0 f7 ff
	ff		 mov	 ecx, DWORD PTR _pProcessor$1$[ebp]
  002ae	6a 00		 push	 0
  002b0	ff b0 10 07 00
	00		 push	 DWORD PTR [eax+1808]
  002b6	ff 75 18	 push	 DWORD PTR _n$[ebp]
  002b9	ff 75 14	 push	 DWORD PTR _nState2$[ebp]
  002bc	ff 75 10	 push	 DWORD PTR _nState$[ebp]
  002bf	ff b5 d4 f7 ff
	ff		 push	 DWORD PTR _nQuest$GSCopy$1$[ebp]
  002c5	e8 00 00 00 00	 call	 ?SetPartyQuest@CPartyQuestProcessor@@QAEXHHHHKK@Z ; CPartyQuestProcessor::SetPartyQuest

; 560  : 					pParty->Replace( pProp->dwWorldId, pProp->szWorldKey );

  002ca	8b 8d bc f7 ff
	ff		 mov	 ecx, DWORD PTR _pParty$1$[ebp]
  002d0	8d 87 68 10 00
	00		 lea	 eax, DWORD PTR [edi+4200]
  002d6	50		 push	 eax
  002d7	ff b7 64 10 00
	00		 push	 DWORD PTR [edi+4196]
  002dd	e8 00 00 00 00	 call	 ?Replace@CParty@@QAEXKPBD@Z ; CParty::Replace

; 561  : 									
; 562  : 					return 1;

  002e2	b8 01 00 00 00	 mov	 eax, 1
  002e7	e9 73 fe ff ff	 jmp	 $LN1@MonHuntSta
_TEXT	ENDS
;	COMDAT text$x
text$x	SEGMENT
__unwindfunclet$?MonHuntStartParty@@YGHPAUNPCDIALOG_INFO@@HHHH@Z$0:
  00000	8d 8d d4 f7 ff
	ff		 lea	 ecx, DWORD PTR _str$2[ebp]
  00006	e9 00 00 00 00	 jmp	 ??1?$CStringT@DV?$StrTraitMFC@DV?$ChTraitsCRT@D@ATL@@@@@ATL@@QAE@XZ ; ATL::CStringT<char,StrTraitMFC<char,ATL::ChTraitsCRT<char> > >::~CStringT<char,StrTraitMFC<char,ATL::ChTraitsCRT<char> > >
  0000b	cc		 int	 3
  0000c	cc		 int	 3
  0000d	cc		 int	 3
  0000e	cc		 int	 3
  0000f	cc		 int	 3
__ehhandler$?MonHuntStartParty@@YGHPAUNPCDIALOG_INFO@@HHHH@Z:
  00010	90		 npad	 1
  00011	90		 npad	 1
  00012	8b 54 24 08	 mov	 edx, DWORD PTR [esp+8]
  00016	8d 42 0c	 lea	 eax, DWORD PTR [edx+12]
  00019	8b 8a b8 f7 ff
	ff		 mov	 ecx, DWORD PTR [edx-2120]
  0001f	33 c8		 xor	 ecx, eax
  00021	e8 00 00 00 00	 call	 @__security_check_cookie@4
  00026	8b 4a fc	 mov	 ecx, DWORD PTR [edx-4]
  00029	33 c8		 xor	 ecx, eax
  0002b	e8 00 00 00 00	 call	 @__security_check_cookie@4
  00030	b8 00 00 00 00	 mov	 eax, OFFSET __ehfuncinfo$?MonHuntStartParty@@YGHPAUNPCDIALOG_INFO@@HHHH@Z
  00035	e9 00 00 00 00	 jmp	 ___CxxFrameHandler3
text$x	ENDS
?MonHuntStartParty@@YGHPAUNPCDIALOG_INFO@@HHHH@Z ENDP	; MonHuntStartParty
; Function compile flags: /Ogtp
; File C:\IAGOS\server\v18\Source\Source\_Common\scriptlib.cpp
; File C:\IAGOS\server\v18\Source\Source\DX_SDK\d3dx9math.inl
; File C:\IAGOS\server\v18\Source\Source\_Common\scriptlib.cpp
; File C:\IAGOS\server\v18\Source\Source\DX_SDK\d3dx9math.inl
; File C:\IAGOS\server\v18\Source\Source\_Common\scriptlib.cpp
; File C:\IAGOS\server\v18\Source\Source\DX_SDK\d3dx9math.inl
; File C:\IAGOS\server\v18\Source\Source\_Common\scriptlib.cpp
; File C:\IAGOS\server\v18\Source\Source\DX_SDK\d3dx9math.inl
; File C:\IAGOS\server\v18\Source\Source\_Common\scriptlib.cpp
;	COMDAT ?MonHuntStart@@YGHPAUNPCDIALOG_INFO@@HHHH@Z
_TEXT	SEGMENT
_pProcessor$1$ = -2104					; size = 4
_pWorld$1$ = -2100					; size = 4
_pUser$1$ = -2096					; size = 4
_pGuild$1$ = -2092					; size = 4
_rsf$1 = -2088						; size = 2072
_vPos$2 = -16						; size = 12
__$ArrayPad$ = -4					; size = 4
_pInfo$ = 8						; size = 4
_nQuest$ = 12						; size = 4
_nState$ = 16						; size = 4
_nState2$ = 20						; size = 4
_n$ = 24						; size = 4
?MonHuntStart@@YGHPAUNPCDIALOG_INFO@@HHHH@Z PROC	; MonHuntStart, COMDAT

; 444  : {

  00000	55		 push	 ebp
  00001	8b ec		 mov	 ebp, esp
  00003	81 ec 38 08 00
	00		 sub	 esp, 2104		; 00000838H
  00009	a1 00 00 00 00	 mov	 eax, DWORD PTR ___security_cookie
  0000e	33 c5		 xor	 eax, ebp
  00010	89 45 fc	 mov	 DWORD PTR __$ArrayPad$[ebp], eax
  00013	53		 push	 ebx
  00014	8b 5d 0c	 mov	 ebx, DWORD PTR _nQuest$[ebp]
  00017	56		 push	 esi
  00018	8b 75 08	 mov	 esi, DWORD PTR _pInfo$[ebp]
  0001b	57		 push	 edi

; 445  : 	CGuildQuestProcessor* pProcessor	= CGuildQuestProcessor::GetInstance();

  0001c	e8 00 00 00 00	 call	 ?GetInstance@CGuildQuestProcessor@@SAPAV1@XZ ; CGuildQuestProcessor::GetInstance

; 446  : 	if( pProcessor->IsQuesting( nQuest ) )

  00021	53		 push	 ebx
  00022	8b c8		 mov	 ecx, eax
  00024	89 85 c8 f7 ff
	ff		 mov	 DWORD PTR _pProcessor$1$[ebp], eax
  0002a	e8 00 00 00 00	 call	 ?IsQuesting@CGuildQuestProcessor@@QAEHH@Z ; CGuildQuestProcessor::IsQuesting
  0002f	85 c0		 test	 eax, eax
  00031	0f 85 a9 01 00
	00		 jne	 $LN11@MonHuntSta

; 447  : 	{
; 448  : 		return 0;
; 449  : 	}
; 450  : 	else
; 451  : 	{
; 452  : 		CUser* pUser	= prj.GetUser( pInfo->GetPcId() );

  00037	8b 16		 mov	 edx, DWORD PTR [esi]
  00039	8b ce		 mov	 ecx, esi
  0003b	ff 52 18	 call	 DWORD PTR [edx+24]
  0003e	50		 push	 eax
  0003f	b9 00 00 00 00	 mov	 ecx, OFFSET ?prj@@3VCProject@@A ; prj
  00044	e8 00 00 00 00	 call	 ?GetUser@CProject@@QAEPAVCUser@@K@Z ; CProject::GetUser

; 453  : 		CGuild* pGuild	= pUser->GetGuild();

  00049	8b c8		 mov	 ecx, eax
  0004b	89 85 d0 f7 ff
	ff		 mov	 DWORD PTR _pUser$1$[ebp], eax
  00051	e8 00 00 00 00	 call	 ?GetGuild@CMover@@QAEPAVCGuild@@XZ ; CMover::GetGuild
  00056	89 85 d4 f7 ff
	ff		 mov	 DWORD PTR _pGuild$1$[ebp], eax

; 454  : 		if( pGuild )

  0005c	85 c0		 test	 eax, eax
  0005e	0f 84 7c 01 00
	00		 je	 $LN11@MonHuntSta

; 455  : 		{
; 456  : 			GUILDQUESTPROP* pProp	= prj.GetGuildQuestProp( nQuest );

  00064	53		 push	 ebx
  00065	b9 00 00 00 00	 mov	 ecx, OFFSET ?prj@@3VCProject@@A ; prj
  0006a	e8 00 00 00 00	 call	 ?GetGuildQuestProp@CProject@@QAEPAUGUILDQUESTPROP@@H@Z ; CProject::GetGuildQuestProp
  0006f	8b f8		 mov	 edi, eax

; 457  : 			if( pProp )

  00071	85 ff		 test	 edi, edi
  00073	0f 84 67 01 00
	00		 je	 $LN11@MonHuntSta

; 458  : 			{
; 459  : 				CMover* pWormon	= (CMover*)CreateObj( D3DDEVICE, OT_MOVER, pProp->dwWormon );

  00079	6a 01		 push	 1
  0007b	ff b7 64 10 00
	00		 push	 DWORD PTR [edi+4196]
  00081	6a 05		 push	 5
  00083	6a 00		 push	 0
  00085	e8 00 00 00 00	 call	 ?CreateObj@@YAPAVCObj@@PAUIDirect3DDevice9@@KKH@Z ; CreateObj
  0008a	8b f0		 mov	 esi, eax
  0008c	83 c4 10	 add	 esp, 16			; 00000010H

; 460  : 				if( pWormon )

  0008f	85 f6		 test	 esi, esi
  00091	0f 84 49 01 00
	00		 je	 $LN11@MonHuntSta

; 461  : 				{
; 462  : 					pWormon->SetPos( pProp->vPos );

  00097	8d 87 6c 10 00
	00		 lea	 eax, DWORD PTR [edi+4204]
  0009d	8b ce		 mov	 ecx, esi
  0009f	50		 push	 eax
  000a0	e8 00 00 00 00	 call	 ?SetPos@CObj@@QAEXABUD3DXVECTOR3@@@Z ; CObj::SetPos

; 463  : 					pWormon->InitMotion( MTI_STAND );

  000a5	8b 16		 mov	 edx, DWORD PTR [esi]
  000a7	8b ce		 mov	 ecx, esi
  000a9	6a 00		 push	 0
  000ab	ff 52 08	 call	 DWORD PTR [edx+8]

; 464  : 					pWormon->UpdateLocalMatrix();

  000ae	8b ce		 mov	 ecx, esi
  000b0	e8 00 00 00 00	 call	 ?UpdateLocalMatrix@CObj@@QAEXXZ ; CObj::UpdateLocalMatrix

; 465  : 					pWormon->m_nQuestKeeping	= nQuest;
; 466  : 
; 467  : 					CWorld* pWorld = pUser->GetWorld();

  000b5	8b 85 d0 f7 ff
	ff		 mov	 eax, DWORD PTR _pUser$1$[ebp]
  000bb	88 9e 94 0d 00
	00		 mov	 BYTE PTR [esi+3476], bl
  000c1	8b 88 6c 01 00
	00		 mov	 ecx, DWORD PTR [eax+364]
  000c7	89 8d cc f7 ff
	ff		 mov	 DWORD PTR _pWorld$1$[ebp], ecx

; 468  : 					if( pWorld )

  000cd	85 c9		 test	 ecx, ecx
  000cf	0f 84 03 01 00
	00		 je	 $LN7@MonHuntSta

; 469  : 					{
; 470  : 						RunScriptFunc rsf;	// Exit()
; 471  : 						rsf.wFuncType = FUNCTYPE_EXIT;

  000d5	b9 16 00 00 00	 mov	 ecx, 22			; 00000016H
  000da	66 89 4d e0	 mov	 WORD PTR _rsf$1[ebp+2056], cx

; 472  : 						pUser->AddRunScriptFunc( rsf );

  000de	8d 8d d8 f7 ff
	ff		 lea	 ecx, DWORD PTR _rsf$1[ebp]
  000e4	51		 push	 ecx
  000e5	8b c8		 mov	 ecx, eax
  000e7	e8 00 00 00 00	 call	 ?AddRunScriptFunc@CUser@@QAEXABU_runscriptfunc@@@Z ; CUser::AddRunScriptFunc

; 473  : 						pWormon->AddItToGlobalId();

  000ec	8b 06		 mov	 eax, DWORD PTR [esi]
  000ee	8b ce		 mov	 ecx, esi
  000f0	ff 50 3c	 call	 DWORD PTR [eax+60]

; 474  : 						pWorld->ADDOBJ( pWormon, FALSE, pUser->GetLayer() );

  000f3	8b 85 d0 f7 ff
	ff		 mov	 eax, DWORD PTR _pUser$1$[ebp]
  000f9	8b 8d cc f7 ff
	ff		 mov	 ecx, DWORD PTR _pWorld$1$[ebp]
  000ff	ff b0 b8 01 00
	00		 push	 DWORD PTR [eax+440]
  00105	6a 00		 push	 0
  00107	56		 push	 esi
  00108	e8 00 00 00 00	 call	 ?AddObj@CWorld@@QAEHPAVCObj@@HH@Z ; CWorld::AddObj

; 475  : 						pGuild->SetQuest( nQuest, nState );

  0010d	ff 75 10	 push	 DWORD PTR _nState$[ebp]
  00110	8b 8d d4 f7 ff
	ff		 mov	 ecx, DWORD PTR _pGuild$1$[ebp]
  00116	53		 push	 ebx
  00117	e8 00 00 00 00	 call	 ?SetQuest@CGuild@@QAEXHH@Z ; CGuild::SetQuest
  0011c	8b 85 d4 f7 ff
	ff		 mov	 eax, DWORD PTR _pGuild$1$[ebp]

; 476  : 						if( nState == QS_BEGIN )

  00122	8b 4d 10	 mov	 ecx, DWORD PTR _nState$[ebp]
  00125	8b 40 04	 mov	 eax, DWORD PTR [eax+4]
  00128	85 c9		 test	 ecx, ecx
  0012a	75 0e		 jne	 SHORT $LN8@MonHuntSta

; 477  : 							g_dpDBClient.SendInsertGuildQuest( pGuild->m_idGuild, nQuest );

  0012c	53		 push	 ebx
  0012d	50		 push	 eax
  0012e	b9 00 00 00 00	 mov	 ecx, OFFSET ?g_dpDBClient@@3VCDPDatabaseClient@@A ; g_dpDBClient
  00133	e8 00 00 00 00	 call	 ?SendInsertGuildQuest@CDPDatabaseClient@@QAEXKH@Z ; CDPDatabaseClient::SendInsertGuildQuest
  00138	eb 0d		 jmp	 SHORT $LN9@MonHuntSta
$LN8@MonHuntSta:

; 478  : 						else
; 479  : 							g_dpDBClient.SendUpdateGuildQuest( pGuild->m_idGuild, nQuest, nState );

  0013a	51		 push	 ecx
  0013b	53		 push	 ebx
  0013c	50		 push	 eax
  0013d	b9 00 00 00 00	 mov	 ecx, OFFSET ?g_dpDBClient@@3VCDPDatabaseClient@@A ; g_dpDBClient
  00142	e8 00 00 00 00	 call	 ?SendUpdateGuildQuest@CDPDatabaseClient@@QAEXKHH@Z ; CDPDatabaseClient::SendUpdateGuildQuest
$LN9@MonHuntSta:

; 480  : 
; 481  : 						pProcessor->SetGuildQuest( nQuest, nState, nState2, n, pGuild->m_idGuild, pWormon->GetId() );

  00147	ff b6 bc 01 00
	00		 push	 DWORD PTR [esi+444]
  0014d	8b b5 d4 f7 ff
	ff		 mov	 esi, DWORD PTR _pGuild$1$[ebp]
  00153	8b 8d c8 f7 ff
	ff		 mov	 ecx, DWORD PTR _pProcessor$1$[ebp]
  00159	ff 76 04	 push	 DWORD PTR [esi+4]
  0015c	ff 75 18	 push	 DWORD PTR _n$[ebp]
  0015f	ff 75 14	 push	 DWORD PTR _nState2$[ebp]
  00162	ff 75 10	 push	 DWORD PTR _nState$[ebp]
  00165	53		 push	 ebx
  00166	e8 00 00 00 00	 call	 ?SetGuildQuest@CGuildQuestProcessor@@QAEXHHHHKK@Z ; CGuildQuestProcessor::SetGuildQuest
; File C:\IAGOS\server\v18\Source\Source\DX_SDK\d3dx9math.inl

; 300  :     x = fx;

  0016b	f3 0f 10 87 6c
	10 00 00	 movss	 xmm0, DWORD PTR [edi+4204]
; File C:\IAGOS\server\v18\Source\Source\_Common\scriptlib.cpp

; 483  : 						pGuild->Replace( pProp->dwWorldId, vPos, TRUE );

  00173	8d 45 f0	 lea	 eax, DWORD PTR _vPos$2[ebp]
  00176	f3 0f 10 8f 74
	10 00 00	 movss	 xmm1, DWORD PTR [edi+4212]
  0017e	8b ce		 mov	 ecx, esi
; File C:\IAGOS\server\v18\Source\Source\DX_SDK\d3dx9math.inl

; 300  :     x = fx;

  00180	f3 0f 11 45 f0	 movss	 DWORD PTR _vPos$2[ebp], xmm0
; File C:\IAGOS\server\v18\Source\Source\_Common\scriptlib.cpp

; 482  : 						D3DXVECTOR3 vPos( pProp->vPos.x, pProp->vPos.y, ( ( pProp->vPos.z * 2 ) + pProp->y2 ) / 3 );

  00185	f3 0f 58 c9	 addss	 xmm1, xmm1
; File C:\IAGOS\server\v18\Source\Source\DX_SDK\d3dx9math.inl

; 301  :     y = fy;

  00189	f3 0f 10 87 70
	10 00 00	 movss	 xmm0, DWORD PTR [edi+4208]
  00191	f3 0f 11 45 f4	 movss	 DWORD PTR _vPos$2[ebp+4], xmm0
  00196	66 0f 6e 87 84
	10 00 00	 movd	 xmm0, DWORD PTR [edi+4228]
; File C:\IAGOS\server\v18\Source\Source\_Common\scriptlib.cpp

; 482  : 						D3DXVECTOR3 vPos( pProp->vPos.x, pProp->vPos.y, ( ( pProp->vPos.z * 2 ) + pProp->y2 ) / 3 );

  0019e	0f 5b c0	 cvtdq2ps xmm0, xmm0

; 483  : 						pGuild->Replace( pProp->dwWorldId, vPos, TRUE );

  001a1	6a 01		 push	 1
  001a3	50		 push	 eax
  001a4	ff b7 68 10 00
	00		 push	 DWORD PTR [edi+4200]
  001aa	f3 0f 58 c8	 addss	 xmm1, xmm0
  001ae	f3 0f 5e 0d 00
	00 00 00	 divss	 xmm1, DWORD PTR __real@40400000
; File C:\IAGOS\server\v18\Source\Source\DX_SDK\d3dx9math.inl

; 302  :     z = fz;

  001b6	f3 0f 11 4d f8	 movss	 DWORD PTR _vPos$2[ebp+8], xmm1
; File C:\IAGOS\server\v18\Source\Source\_Common\scriptlib.cpp

; 483  : 						pGuild->Replace( pProp->dwWorldId, vPos, TRUE );

  001bb	e8 00 00 00 00	 call	 ?Replace@CGuild@@QAEXKAAUD3DXVECTOR3@@H@Z ; CGuild::Replace
  001c0	5f		 pop	 edi

; 487  : 				}
; 488  : 			}
; 489  : 		}
; 490  : 	}
; 491  : 	return 0;
; 492  : }

  001c1	5e		 pop	 esi
  001c2	b8 01 00 00 00	 mov	 eax, 1
  001c7	5b		 pop	 ebx
  001c8	8b 4d fc	 mov	 ecx, DWORD PTR __$ArrayPad$[ebp]
  001cb	33 cd		 xor	 ecx, ebp
  001cd	e8 00 00 00 00	 call	 @__security_check_cookie@4
  001d2	8b e5		 mov	 esp, ebp
  001d4	5d		 pop	 ebp
  001d5	c2 14 00	 ret	 20			; 00000014H
$LN7@MonHuntSta:

; 484  : 						return 1;
; 485  : 					}
; 486  : 					safe_delete( pWormon );

  001d8	8b 06		 mov	 eax, DWORD PTR [esi]
  001da	8b ce		 mov	 ecx, esi
  001dc	6a 01		 push	 1
  001de	ff 10		 call	 DWORD PTR [eax]
$LN11@MonHuntSta:

; 487  : 				}
; 488  : 			}
; 489  : 		}
; 490  : 	}
; 491  : 	return 0;
; 492  : }

  001e0	8b 4d fc	 mov	 ecx, DWORD PTR __$ArrayPad$[ebp]
  001e3	33 c0		 xor	 eax, eax
  001e5	5f		 pop	 edi
  001e6	5e		 pop	 esi
  001e7	33 cd		 xor	 ecx, ebp
  001e9	5b		 pop	 ebx
  001ea	e8 00 00 00 00	 call	 @__security_check_cookie@4
  001ef	8b e5		 mov	 esp, ebp
  001f1	5d		 pop	 ebp
  001f2	c2 14 00	 ret	 20			; 00000014H
?MonHuntStart@@YGHPAUNPCDIALOG_INFO@@HHHH@Z ENDP	; MonHuntStart
_TEXT	ENDS
; Function compile flags: /Ogtp
; File C:\IAGOS\server\v18\Source\Source\_Common\scriptlib.cpp
;	COMDAT ?PrintSystemMessage@@YGHPAUNPCDIALOG_INFO@@H@Z
_TEXT	SEGMENT
_pInfo$ = 8						; size = 4
_nText$ = 12						; size = 4
?PrintSystemMessage@@YGHPAUNPCDIALOG_INFO@@H@Z PROC	; PrintSystemMessage, COMDAT

; 437  : {

  00000	55		 push	 ebp
  00001	8b ec		 mov	 ebp, esp

; 438  : 	CUser* pUser = prj.GetUser( pInfo->GetPcId() );

  00003	8b 4d 08	 mov	 ecx, DWORD PTR _pInfo$[ebp]
  00006	8b 01		 mov	 eax, DWORD PTR [ecx]
  00008	ff 50 18	 call	 DWORD PTR [eax+24]
  0000b	50		 push	 eax
  0000c	b9 00 00 00 00	 mov	 ecx, OFFSET ?prj@@3VCProject@@A ; prj
  00011	e8 00 00 00 00	 call	 ?GetUser@CProject@@QAEPAVCUser@@K@Z ; CProject::GetUser

; 439  : 	pUser->AddDefinedText( (DWORD)nText );

  00016	ff 75 0c	 push	 DWORD PTR _nText$[ebp]
  00019	8b c8		 mov	 ecx, eax
  0001b	e8 00 00 00 00	 call	 ?AddDefinedText@CUser@@QAEXH@Z ; CUser::AddDefinedText

; 440  : 	return 1;

  00020	b8 01 00 00 00	 mov	 eax, 1

; 441  : }

  00025	5d		 pop	 ebp
  00026	c2 08 00	 ret	 8
?PrintSystemMessage@@YGHPAUNPCDIALOG_INFO@@H@Z ENDP	; PrintSystemMessage
_TEXT	ENDS
; Function compile flags: /Ogtp
; File C:\IAGOS\server\v18\Source\Source\_Common\scriptlib.cpp
;	COMDAT ?IsWormonServer@@YGHPAUNPCDIALOG_INFO@@@Z
_TEXT	SEGMENT
_pInfo$ = 8						; size = 4
?IsWormonServer@@YGHPAUNPCDIALOG_INFO@@@Z PROC		; IsWormonServer, COMDAT

; 433  : 	return g_eLocal.GetState( EVE_WORMON );

  00000	6a 09		 push	 9
  00002	b9 00 00 00 00	 mov	 ecx, OFFSET ?g_eLocal@@3VCFlyffEvent@@A ; g_eLocal
  00007	e8 00 00 00 00	 call	 ?GetState@CFlyffEvent@@QAEEH@Z ; CFlyffEvent::GetState
  0000c	0f b6 c0	 movzx	 eax, al

; 434  : }

  0000f	c2 04 00	 ret	 4
?IsWormonServer@@YGHPAUNPCDIALOG_INFO@@@Z ENDP		; IsWormonServer
_TEXT	ENDS
; Function compile flags: /Ogtp
; File C:\IAGOS\server\v18\Source\Source\_Common\scriptlib.cpp
; File C:\IAGOS\server\v18\Source\Source\_Common\guild.h
; File C:\IAGOS\server\v18\Source\Source\_Common\scriptlib.cpp
;	COMDAT ?GetGuildQuestState@@YGHPAUNPCDIALOG_INFO@@H@Z
_TEXT	SEGMENT
_pInfo$ = 8						; size = 4
_nQuest$ = 12						; size = 4
?GetGuildQuestState@@YGHPAUNPCDIALOG_INFO@@H@Z PROC	; GetGuildQuestState, COMDAT

; 416  : {

  00000	55		 push	 ebp
  00001	8b ec		 mov	 ebp, esp

; 417  : 	CUser* pUser	= prj.GetUser( pInfo->GetPcId() );

  00003	8b 4d 08	 mov	 ecx, DWORD PTR _pInfo$[ebp]
  00006	8b 01		 mov	 eax, DWORD PTR [ecx]
  00008	ff 50 18	 call	 DWORD PTR [eax+24]
  0000b	50		 push	 eax
  0000c	b9 00 00 00 00	 mov	 ecx, OFFSET ?prj@@3VCProject@@A ; prj
  00011	e8 00 00 00 00	 call	 ?GetUser@CProject@@QAEPAVCUser@@K@Z ; CProject::GetUser

; 418  : 	CGuild* pGuild	= pUser->GetGuild();

  00016	8b c8		 mov	 ecx, eax
  00018	e8 00 00 00 00	 call	 ?GetGuild@CMover@@QAEPAVCGuild@@XZ ; CMover::GetGuild

; 419  : 	if( pGuild )

  0001d	85 c0		 test	 eax, eax
  0001f	74 15		 je	 SHORT $LN3@GetGuildQu
; File C:\IAGOS\server\v18\Source\Source\_Common\guild.h

; 351  : 	PGUILDQUEST		GetQuest( int nQuestId )	{	return FindQuest( nQuestId );	}

  00021	ff 75 0c	 push	 DWORD PTR _nQuest$[ebp]
  00024	8b c8		 mov	 ecx, eax
  00026	e8 00 00 00 00	 call	 ?FindQuest@CGuild@@QAEPAU_GUILDQUEST@@H@Z ; CGuild::FindQuest
; File C:\IAGOS\server\v18\Source\Source\_Common\scriptlib.cpp

; 422  : 		if( pQuest )

  0002b	85 c0		 test	 eax, eax
  0002d	74 07		 je	 SHORT $LN3@GetGuildQu

; 423  : 		{
; 424  : 			int nState = pQuest->nState;
; 425  : 			return nState;

  0002f	8b 40 04	 mov	 eax, DWORD PTR [eax+4]

; 429  : }

  00032	5d		 pop	 ebp
  00033	c2 08 00	 ret	 8
$LN3@GetGuildQu:

; 426  : 		}
; 427  : 	}
; 428  : 	return -1;

  00036	83 c8 ff	 or	 eax, -1

; 429  : }

  00039	5d		 pop	 ebp
  0003a	c2 08 00	 ret	 8
?GetGuildQuestState@@YGHPAUNPCDIALOG_INFO@@H@Z ENDP	; GetGuildQuestState
_TEXT	ENDS
; Function compile flags: /Ogtp
; File C:\IAGOS\server\v18\Source\Source\_Common\scriptlib.cpp
; File C:\IAGOS\server\v18\Source\Source\_Common\guild.h
; File C:\IAGOS\server\v18\Source\Source\_Common\scriptlib.cpp
;	COMDAT ?IsGuildQuest@@YGHPAUNPCDIALOG_INFO@@H@Z
_TEXT	SEGMENT
_pInfo$ = 8						; size = 4
_nQuest$ = 12						; size = 4
?IsGuildQuest@@YGHPAUNPCDIALOG_INFO@@H@Z PROC		; IsGuildQuest, COMDAT

; 402  : {

  00000	55		 push	 ebp
  00001	8b ec		 mov	 ebp, esp

; 403  : 	CUser* pUser = prj.GetUser( pInfo->GetPcId() );

  00003	8b 4d 08	 mov	 ecx, DWORD PTR _pInfo$[ebp]
  00006	8b 01		 mov	 eax, DWORD PTR [ecx]
  00008	ff 50 18	 call	 DWORD PTR [eax+24]
  0000b	50		 push	 eax
  0000c	b9 00 00 00 00	 mov	 ecx, OFFSET ?prj@@3VCProject@@A ; prj
  00011	e8 00 00 00 00	 call	 ?GetUser@CProject@@QAEPAVCUser@@K@Z ; CProject::GetUser

; 404  : 
; 405  : 	CGuild* pGuild	= pUser->GetGuild();

  00016	8b c8		 mov	 ecx, eax
  00018	e8 00 00 00 00	 call	 ?GetGuild@CMover@@QAEPAVCGuild@@XZ ; CMover::GetGuild

; 406  : 	if( pGuild )

  0001d	85 c0		 test	 eax, eax
  0001f	74 14		 je	 SHORT $LN3@IsGuildQue
; File C:\IAGOS\server\v18\Source\Source\_Common\guild.h

; 351  : 	PGUILDQUEST		GetQuest( int nQuestId )	{	return FindQuest( nQuestId );	}

  00021	ff 75 0c	 push	 DWORD PTR _nQuest$[ebp]
  00024	8b c8		 mov	 ecx, eax
  00026	e8 00 00 00 00	 call	 ?FindQuest@CGuild@@QAEPAU_GUILDQUEST@@H@Z ; CGuild::FindQuest
; File C:\IAGOS\server\v18\Source\Source\_Common\scriptlib.cpp

; 409  : 		if( pQuest )

  0002b	f7 d8		 neg	 eax
  0002d	1b c0		 sbb	 eax, eax
  0002f	f7 d8		 neg	 eax

; 413  : }

  00031	5d		 pop	 ebp
  00032	c2 08 00	 ret	 8
$LN3@IsGuildQue:

; 410  : 			return TRUE;
; 411  : 	}
; 412  : 	return FALSE;

  00035	33 c0		 xor	 eax, eax

; 413  : }

  00037	5d		 pop	 ebp
  00038	c2 08 00	 ret	 8
?IsGuildQuest@@YGHPAUNPCDIALOG_INFO@@H@Z ENDP		; IsGuildQuest
_TEXT	ENDS
; Function compile flags: /Ogtp
; File C:\IAGOS\server\v18\Source\Source\_Common\scriptlib.cpp
;	COMDAT ?GetPlayerJob@@YGHPAUNPCDIALOG_INFO@@@Z
_TEXT	SEGMENT
_pInfo$ = 8						; size = 4
?GetPlayerJob@@YGHPAUNPCDIALOG_INFO@@@Z PROC		; GetPlayerJob, COMDAT

; 396  : {

  00000	55		 push	 ebp
  00001	8b ec		 mov	 ebp, esp

; 397  : 	CUser* pUser = prj.GetUser( pInfo->GetPcId() );

  00003	8b 4d 08	 mov	 ecx, DWORD PTR _pInfo$[ebp]
  00006	8b 01		 mov	 eax, DWORD PTR [ecx]
  00008	ff 50 18	 call	 DWORD PTR [eax+24]
  0000b	50		 push	 eax
  0000c	b9 00 00 00 00	 mov	 ecx, OFFSET ?prj@@3VCProject@@A ; prj
  00011	e8 00 00 00 00	 call	 ?GetUser@CProject@@QAEPAVCUser@@K@Z ; CProject::GetUser

; 398  : 	return pUser->GetJob();

  00016	8b c8		 mov	 ecx, eax
  00018	e8 00 00 00 00	 call	 ?GetJob@CMover@@QAEHXZ	; CMover::GetJob

; 399  : }

  0001d	5d		 pop	 ebp
  0001e	c2 04 00	 ret	 4
?GetPlayerJob@@YGHPAUNPCDIALOG_INFO@@@Z ENDP		; GetPlayerJob
_TEXT	ENDS
; Function compile flags: /Ogtp
; File C:\IAGOS\server\v18\Source\Source\_Common\scriptlib.cpp
;	COMDAT ?GetPlayerLvl@@YGHPAUNPCDIALOG_INFO@@@Z
_TEXT	SEGMENT
_pInfo$ = 8						; size = 4
?GetPlayerLvl@@YGHPAUNPCDIALOG_INFO@@@Z PROC		; GetPlayerLvl, COMDAT

; 390  : {

  00000	55		 push	 ebp
  00001	8b ec		 mov	 ebp, esp

; 391  : 	CUser* pUser = prj.GetUser( pInfo->GetPcId() );

  00003	8b 4d 08	 mov	 ecx, DWORD PTR _pInfo$[ebp]
  00006	8b 01		 mov	 eax, DWORD PTR [ecx]
  00008	ff 50 18	 call	 DWORD PTR [eax+24]
  0000b	50		 push	 eax
  0000c	b9 00 00 00 00	 mov	 ecx, OFFSET ?prj@@3VCProject@@A ; prj
  00011	e8 00 00 00 00	 call	 ?GetUser@CProject@@QAEPAVCUser@@K@Z ; CProject::GetUser

; 392  : 	return pUser->GetLevel();

  00016	8b 80 d8 05 00
	00		 mov	 eax, DWORD PTR [eax+1496]

; 393  : }

  0001c	5d		 pop	 ebp
  0001d	c2 04 00	 ret	 4
?GetPlayerLvl@@YGHPAUNPCDIALOG_INFO@@@Z ENDP		; GetPlayerLvl
_TEXT	ENDS
; Function compile flags: /Ogtp
; File C:\IAGOS\server\v18\Source\Source\_Common\scriptlib.cpp
;	COMDAT ?ReplaceKey@@YGHPAUNPCDIALOG_INFO@@HPBD@Z
_TEXT	SEGMENT
_rsf$ = -2076						; size = 2072
__$ArrayPad$ = -4					; size = 4
_pInfo$ = 8						; size = 4
_nWorld$ = 12						; size = 4
_szKey$ = 16						; size = 4
?ReplaceKey@@YGHPAUNPCDIALOG_INFO@@HPBD@Z PROC		; ReplaceKey, COMDAT

; 377  : {

  00000	55		 push	 ebp
  00001	8b ec		 mov	 ebp, esp
  00003	81 ec 1c 08 00
	00		 sub	 esp, 2076		; 0000081cH
  00009	a1 00 00 00 00	 mov	 eax, DWORD PTR ___security_cookie
  0000e	33 c5		 xor	 eax, ebp
  00010	89 45 fc	 mov	 DWORD PTR __$ArrayPad$[ebp], eax
  00013	8b 4d 08	 mov	 ecx, DWORD PTR _pInfo$[ebp]
  00016	53		 push	 ebx
  00017	56		 push	 esi
  00018	8b 75 10	 mov	 esi, DWORD PTR _szKey$[ebp]

; 378  : 	CUser* pUser = prj.GetUser( pInfo->GetPcId() );

  0001b	8b 01		 mov	 eax, DWORD PTR [ecx]
  0001d	57		 push	 edi
  0001e	8b 7d 0c	 mov	 edi, DWORD PTR _nWorld$[ebp]
  00021	ff 50 18	 call	 DWORD PTR [eax+24]
  00024	50		 push	 eax
  00025	b9 00 00 00 00	 mov	 ecx, OFFSET ?prj@@3VCProject@@A ; prj
  0002a	e8 00 00 00 00	 call	 ?GetUser@CProject@@QAEPAVCUser@@K@Z ; CProject::GetUser
  0002f	8b d8		 mov	 ebx, eax

; 379  : 	RunScriptFunc rsf;	
; 380  : 	rsf.wFuncType = FUNCTYPE_EXIT;

  00031	b8 16 00 00 00	 mov	 eax, 22			; 00000016H
  00036	66 89 45 ec	 mov	 WORD PTR _rsf$[ebp+2056], ax

; 381  : 	pUser->AddRunScriptFunc( rsf );

  0003a	8b cb		 mov	 ecx, ebx
  0003c	8d 85 e4 f7 ff
	ff		 lea	 eax, DWORD PTR _rsf$[ebp]
  00042	50		 push	 eax
  00043	e8 00 00 00 00	 call	 ?AddRunScriptFunc@CUser@@QAEXABU_runscriptfunc@@@Z ; CUser::AddRunScriptFunc

; 382  : 
; 383  : 	PRegionElem pRgnElem = g_WorldMng.GetRevivalPos( nWorld, szKey );

  00048	56		 push	 esi
  00049	57		 push	 edi
  0004a	b9 00 00 00 00	 mov	 ecx, OFFSET ?g_WorldMng@@3VCWorldMng@@A ; g_WorldMng
  0004f	e8 00 00 00 00	 call	 ?GetRevivalPos@CWorldMng@@QAEPAUREGIONELEM@@KPBD@Z ; CWorldMng::GetRevivalPos

; 384  : 	if( pRgnElem )

  00054	85 c0		 test	 eax, eax
  00056	74 1b		 je	 SHORT $LN4@ReplaceKey

; 385  : 		pUser->REPLACE( g_uIdofMulti, pRgnElem->m_dwWorldId, pRgnElem->m_vPos, REPLACE_NORMAL, nRevivalLayer );

  00058	6a 00		 push	 0
  0005a	6a 00		 push	 0
  0005c	8d 48 10	 lea	 ecx, DWORD PTR [eax+16]
  0005f	51		 push	 ecx
  00060	ff b0 c0 02 00
	00		 push	 DWORD PTR [eax+704]
  00066	8b cb		 mov	 ecx, ebx
  00068	ff 35 00 00 00
	00		 push	 DWORD PTR ?g_uIdofMulti@@3KA ; g_uIdofMulti
  0006e	e8 00 00 00 00	 call	 ?Replace@CMover@@QAEHKKAAUD3DXVECTOR3@@W4REPLACE_TYPE@@H@Z ; CMover::Replace
$LN4@ReplaceKey:

; 386  : 	return 1;
; 387  : }

  00073	8b 4d fc	 mov	 ecx, DWORD PTR __$ArrayPad$[ebp]
  00076	b8 01 00 00 00	 mov	 eax, 1
  0007b	5f		 pop	 edi
  0007c	5e		 pop	 esi
  0007d	33 cd		 xor	 ecx, ebp
  0007f	5b		 pop	 ebx
  00080	e8 00 00 00 00	 call	 @__security_check_cookie@4
  00085	8b e5		 mov	 esp, ebp
  00087	5d		 pop	 ebp
  00088	c2 0c 00	 ret	 12			; 0000000cH
?ReplaceKey@@YGHPAUNPCDIALOG_INFO@@HPBD@Z ENDP		; ReplaceKey
_TEXT	ENDS
; Function compile flags: /Ogtp
; File C:\IAGOS\server\v18\Source\Source\_Common\scriptlib.cpp
; File C:\IAGOS\server\v18\Source\Source\DX_SDK\d3dx9math.inl
; File C:\IAGOS\server\v18\Source\Source\_Common\scriptlib.cpp
; File C:\IAGOS\server\v18\Source\Source\DX_SDK\d3dx9math.inl
; File C:\IAGOS\server\v18\Source\Source\_Common\scriptlib.cpp
; File C:\IAGOS\server\v18\Source\Source\DX_SDK\d3dx9math.inl
; File C:\IAGOS\server\v18\Source\Source\_Common\scriptlib.cpp
; File C:\IAGOS\server\v18\Source\Source\DX_SDK\d3dx9math.inl
; File C:\IAGOS\server\v18\Source\Source\_Common\scriptlib.cpp
;	COMDAT ?Replace@@YGHPAUNPCDIALOG_INFO@@HMMM@Z
_TEXT	SEGMENT
_x$GSCopy$1$ = -2092					; size = 4
_rsf$1 = -2088						; size = 2072
$T2 = -16						; size = 12
__$ArrayPad$ = -4					; size = 4
_pInfo$ = 8						; size = 4
_nWorld$ = 12						; size = 4
_x$ = 16						; size = 4
_y$ = 20						; size = 4
_z$ = 24						; size = 4
?Replace@@YGHPAUNPCDIALOG_INFO@@HMMM@Z PROC		; Replace, COMDAT

; 360  : {

  00000	55		 push	 ebp
  00001	8b ec		 mov	 ebp, esp
  00003	81 ec 2c 08 00
	00		 sub	 esp, 2092		; 0000082cH
  00009	a1 00 00 00 00	 mov	 eax, DWORD PTR ___security_cookie
  0000e	33 c5		 xor	 eax, ebp
  00010	89 45 fc	 mov	 DWORD PTR __$ArrayPad$[ebp], eax
  00013	8b 4d 08	 mov	 ecx, DWORD PTR _pInfo$[ebp]
  00016	f3 0f 10 45 10	 movss	 xmm0, DWORD PTR _x$[ebp]
  0001b	57		 push	 edi
  0001c	f3 0f 11 85 d4
	f7 ff ff	 movss	 DWORD PTR _x$GSCopy$1$[ebp], xmm0

; 361  : 	CUser* pUser = prj.GetUser( pInfo->GetPcId() );

  00024	8b 01		 mov	 eax, DWORD PTR [ecx]
  00026	ff 50 18	 call	 DWORD PTR [eax+24]
  00029	50		 push	 eax
  0002a	b9 00 00 00 00	 mov	 ecx, OFFSET ?prj@@3VCProject@@A ; prj
  0002f	e8 00 00 00 00	 call	 ?GetUser@CProject@@QAEPAVCUser@@K@Z ; CProject::GetUser

; 362  : 
; 363  : 	if( x > 0.0f && z > 0.0f )

  00034	f3 0f 10 85 d4
	f7 ff ff	 movss	 xmm0, DWORD PTR _x$GSCopy$1$[ebp]
  0003c	0f 57 c9	 xorps	 xmm1, xmm1
  0003f	0f 2f c1	 comiss	 xmm0, xmm1
  00042	8b f8		 mov	 edi, eax
  00044	0f 86 87 00 00
	00		 jbe	 $LN7@Replace
  0004a	f3 0f 10 45 18	 movss	 xmm0, DWORD PTR _z$[ebp]
  0004f	0f 2f c1	 comiss	 xmm0, xmm1
  00052	76 7d		 jbe	 SHORT $LN7@Replace

; 364  : 	{
; 365  : 		RunScriptFunc rsf;
; 366  : 		rsf.wFuncType = FUNCTYPE_EXIT;

  00054	b8 16 00 00 00	 mov	 eax, 22			; 00000016H

; 367  : 		pUser->AddRunScriptFunc( rsf );

  00059	8b cf		 mov	 ecx, edi
  0005b	66 89 45 e0	 mov	 WORD PTR _rsf$1[ebp+2056], ax
  0005f	8d 85 d8 f7 ff
	ff		 lea	 eax, DWORD PTR _rsf$1[ebp]
  00065	50		 push	 eax
  00066	e8 00 00 00 00	 call	 ?AddRunScriptFunc@CUser@@QAEXABU_runscriptfunc@@@Z ; CUser::AddRunScriptFunc

; 368  : 		if( g_eLocal.GetState( EVE_SCHOOL ) )

  0006b	6a 04		 push	 4
  0006d	b9 00 00 00 00	 mov	 ecx, OFFSET ?g_eLocal@@3VCFlyffEvent@@A ; g_eLocal
  00072	e8 00 00 00 00	 call	 ?GetState@CFlyffEvent@@QAEEH@Z ; CFlyffEvent::GetState
  00077	84 c0		 test	 al, al
  00079	74 1d		 je	 SHORT $LN3@Replace

; 369  : 			g_dpDBClient.SendLogSchool( pUser->m_idPlayer, pUser->GetName() );

  0007b	56		 push	 esi
  0007c	8b b7 34 02 00
	00		 mov	 esi, DWORD PTR [edi+564]
  00082	8b cf		 mov	 ecx, edi
  00084	6a 00		 push	 0
  00086	e8 00 00 00 00	 call	 ?GetName@CMover@@QAEPBDH@Z ; CMover::GetName
  0008b	50		 push	 eax
  0008c	56		 push	 esi
  0008d	b9 00 00 00 00	 mov	 ecx, OFFSET ?g_dpDBClient@@3VCDPDatabaseClient@@A ; g_dpDBClient
  00092	e8 00 00 00 00	 call	 ?SendLogSchool@CDPDatabaseClient@@QAEXKPBD@Z ; CDPDatabaseClient::SendLogSchool
  00097	5e		 pop	 esi
$LN3@Replace:
; File C:\IAGOS\server\v18\Source\Source\DX_SDK\d3dx9math.inl

; 300  :     x = fx;

  00098	f3 0f 10 85 d4
	f7 ff ff	 movss	 xmm0, DWORD PTR _x$GSCopy$1$[ebp]
; File C:\IAGOS\server\v18\Source\Source\_Common\scriptlib.cpp

; 371  : 		pUser->REPLACE( g_uIdofMulti, nWorld, D3DXVECTOR3( x, y, z ), REPLACE_NORMAL, nTempLayer );

  000a0	8d 45 f0	 lea	 eax, DWORD PTR $T2[ebp]
  000a3	6a 00		 push	 0
  000a5	6a 00		 push	 0
  000a7	50		 push	 eax
  000a8	ff 75 0c	 push	 DWORD PTR _nWorld$[ebp]
; File C:\IAGOS\server\v18\Source\Source\DX_SDK\d3dx9math.inl

; 300  :     x = fx;

  000ab	f3 0f 11 45 f0	 movss	 DWORD PTR $T2[ebp], xmm0
; File C:\IAGOS\server\v18\Source\Source\_Common\scriptlib.cpp

; 371  : 		pUser->REPLACE( g_uIdofMulti, nWorld, D3DXVECTOR3( x, y, z ), REPLACE_NORMAL, nTempLayer );

  000b0	8b cf		 mov	 ecx, edi
; File C:\IAGOS\server\v18\Source\Source\DX_SDK\d3dx9math.inl

; 301  :     y = fy;

  000b2	f3 0f 10 45 14	 movss	 xmm0, DWORD PTR _y$[ebp]
; File C:\IAGOS\server\v18\Source\Source\_Common\scriptlib.cpp

; 371  : 		pUser->REPLACE( g_uIdofMulti, nWorld, D3DXVECTOR3( x, y, z ), REPLACE_NORMAL, nTempLayer );

  000b7	ff 35 00 00 00
	00		 push	 DWORD PTR ?g_uIdofMulti@@3KA ; g_uIdofMulti
; File C:\IAGOS\server\v18\Source\Source\DX_SDK\d3dx9math.inl

; 301  :     y = fy;

  000bd	f3 0f 11 45 f4	 movss	 DWORD PTR $T2[ebp+4], xmm0

; 302  :     z = fz;

  000c2	f3 0f 10 45 18	 movss	 xmm0, DWORD PTR _z$[ebp]
  000c7	f3 0f 11 45 f8	 movss	 DWORD PTR $T2[ebp+8], xmm0
; File C:\IAGOS\server\v18\Source\Source\_Common\scriptlib.cpp

; 371  : 		pUser->REPLACE( g_uIdofMulti, nWorld, D3DXVECTOR3( x, y, z ), REPLACE_NORMAL, nTempLayer );

  000cc	e8 00 00 00 00	 call	 ?Replace@CMover@@QAEHKKAAUD3DXVECTOR3@@W4REPLACE_TYPE@@H@Z ; CMover::Replace
$LN7@Replace:

; 372  : 	}
; 373  : 	return 1;
; 374  : }

  000d1	8b 4d fc	 mov	 ecx, DWORD PTR __$ArrayPad$[ebp]
  000d4	b8 01 00 00 00	 mov	 eax, 1
  000d9	33 cd		 xor	 ecx, ebp
  000db	5f		 pop	 edi
  000dc	e8 00 00 00 00	 call	 @__security_check_cookie@4
  000e1	8b e5		 mov	 esp, ebp
  000e3	5d		 pop	 ebp
  000e4	c2 14 00	 ret	 20			; 00000014H
?Replace@@YGHPAUNPCDIALOG_INFO@@HMMM@Z ENDP		; Replace
_TEXT	ENDS
; Function compile flags: /Ogtp
; File C:\IAGOS\server\v18\Source\Source\_Common\scriptlib.cpp
;	COMDAT ?SetScriptTimer@@YGHPAUNPCDIALOG_INFO@@H@Z
_TEXT	SEGMENT
_pInfo$ = 8						; size = 4
_nTimer$ = 12						; size = 4
?SetScriptTimer@@YGHPAUNPCDIALOG_INFO@@H@Z PROC		; SetScriptTimer, COMDAT

; 355  : 	return 1;

  00000	b8 01 00 00 00	 mov	 eax, 1

; 356  : }

  00005	c2 08 00	 ret	 8
?SetScriptTimer@@YGHPAUNPCDIALOG_INFO@@H@Z ENDP		; SetScriptTimer
_TEXT	ENDS
; Function compile flags: /Ogtp
; File C:\IAGOS\server\v18\Source\Source\_Common\scriptlib.cpp
;	COMDAT ?Exit@@YGHPAUNPCDIALOG_INFO@@@Z
_TEXT	SEGMENT
_rsf$ = -2076						; size = 2072
__$ArrayPad$ = -4					; size = 4
_pInfo$ = 8						; size = 4
?Exit@@YGHPAUNPCDIALOG_INFO@@@Z PROC			; Exit, COMDAT

; 345  : {

  00000	55		 push	 ebp
  00001	8b ec		 mov	 ebp, esp
  00003	81 ec 1c 08 00
	00		 sub	 esp, 2076		; 0000081cH
  00009	a1 00 00 00 00	 mov	 eax, DWORD PTR ___security_cookie
  0000e	33 c5		 xor	 eax, ebp
  00010	89 45 fc	 mov	 DWORD PTR __$ArrayPad$[ebp], eax
  00013	8b 4d 08	 mov	 ecx, DWORD PTR _pInfo$[ebp]

; 346  : 	CUser* pUser = prj.GetUser( pInfo->GetPcId() );

  00016	8b 01		 mov	 eax, DWORD PTR [ecx]
  00018	ff 50 18	 call	 DWORD PTR [eax+24]
  0001b	50		 push	 eax
  0001c	b9 00 00 00 00	 mov	 ecx, OFFSET ?prj@@3VCProject@@A ; prj
  00021	e8 00 00 00 00	 call	 ?GetUser@CProject@@QAEPAVCUser@@K@Z ; CProject::GetUser

; 347  : 	RunScriptFunc rsf;
; 348  : 	rsf.wFuncType = FUNCTYPE_EXIT;

  00026	b9 16 00 00 00	 mov	 ecx, 22			; 00000016H
  0002b	66 89 4d ec	 mov	 WORD PTR _rsf$[ebp+2056], cx

; 349  : 	pUser->AddRunScriptFunc( rsf );

  0002f	8d 8d e4 f7 ff
	ff		 lea	 ecx, DWORD PTR _rsf$[ebp]
  00035	51		 push	 ecx
  00036	8b c8		 mov	 ecx, eax
  00038	e8 00 00 00 00	 call	 ?AddRunScriptFunc@CUser@@QAEXABU_runscriptfunc@@@Z ; CUser::AddRunScriptFunc

; 350  : 	return TRUE;
; 351  : }

  0003d	8b 4d fc	 mov	 ecx, DWORD PTR __$ArrayPad$[ebp]
  00040	b8 01 00 00 00	 mov	 eax, 1
  00045	33 cd		 xor	 ecx, ebp
  00047	e8 00 00 00 00	 call	 @__security_check_cookie@4
  0004c	8b e5		 mov	 esp, ebp
  0004e	5d		 pop	 ebp
  0004f	c2 04 00	 ret	 4
?Exit@@YGHPAUNPCDIALOG_INFO@@@Z ENDP			; Exit
_TEXT	ENDS
; Function compile flags: /Ogtp
; File C:\IAGOS\server\v18\Source\Source\_Common\scriptlib.cpp
;	COMDAT ?Random@@YGHPAUNPCDIALOG_INFO@@H@Z
_TEXT	SEGMENT
_pInfo$ = 8						; size = 4
_n$ = 12						; size = 4
?Random@@YGHPAUNPCDIALOG_INFO@@H@Z PROC			; Random, COMDAT

; 340  : {

  00000	55		 push	 ebp
  00001	8b ec		 mov	 ebp, esp

; 341  : 	return rand() % n;

  00003	e8 00 00 00 00	 call	 _rand
  00008	99		 cdq
  00009	f7 7d 0c	 idiv	 DWORD PTR _n$[ebp]
  0000c	8b c2		 mov	 eax, edx

; 342  : }

  0000e	5d		 pop	 ebp
  0000f	c2 08 00	 ret	 8
?Random@@YGHPAUNPCDIALOG_INFO@@H@Z ENDP			; Random
_TEXT	ENDS
; Function compile flags: /Ogtp
; File C:\IAGOS\server\v18\Source\Source\_Common\scriptlib.cpp
;	COMDAT ?EndSay@@YGHPAUNPCDIALOG_INFO@@@Z
_TEXT	SEGMENT
_pInfo$ = 8						; size = 4
?EndSay@@YGHPAUNPCDIALOG_INFO@@@Z PROC			; EndSay, COMDAT

; 336  : 	return 1;

  00000	b8 01 00 00 00	 mov	 eax, 1

; 337  : }

  00005	c2 04 00	 ret	 4
?EndSay@@YGHPAUNPCDIALOG_INFO@@@Z ENDP			; EndSay
_TEXT	ENDS
; Function compile flags: /Ogtp
; File C:\IAGOS\server\v18\Source\Source\_Common\scriptlib.cpp
;	COMDAT ?Say@@YGHPAUNPCDIALOG_INFO@@PBD@Z
_TEXT	SEGMENT
_rsf$ = -2076						; size = 2072
__$ArrayPad$ = -4					; size = 4
_pInfo$ = 8						; size = 4
_szMsg$ = 12						; size = 4
?Say@@YGHPAUNPCDIALOG_INFO@@PBD@Z PROC			; Say, COMDAT

; 324  : {

  00000	55		 push	 ebp
  00001	8b ec		 mov	 ebp, esp
  00003	81 ec 1c 08 00
	00		 sub	 esp, 2076		; 0000081cH
  00009	a1 00 00 00 00	 mov	 eax, DWORD PTR ___security_cookie
  0000e	33 c5		 xor	 eax, ebp
  00010	89 45 fc	 mov	 DWORD PTR __$ArrayPad$[ebp], eax
  00013	8b 4d 08	 mov	 ecx, DWORD PTR _pInfo$[ebp]
  00016	56		 push	 esi
  00017	57		 push	 edi
  00018	8b 7d 0c	 mov	 edi, DWORD PTR _szMsg$[ebp]

; 325  : 	CUser* pUser = prj.GetUser( pInfo->GetPcId() );

  0001b	8b 01		 mov	 eax, DWORD PTR [ecx]
  0001d	ff 50 18	 call	 DWORD PTR [eax+24]
  00020	50		 push	 eax
  00021	b9 00 00 00 00	 mov	 ecx, OFFSET ?prj@@3VCProject@@A ; prj
  00026	e8 00 00 00 00	 call	 ?GetUser@CProject@@QAEPAVCUser@@K@Z ; CProject::GetUser
  0002b	8b f0		 mov	 esi, eax

; 326  : 	RunScriptFunc rsf;
; 327  : 	rsf.wFuncType = FUNCTYPE_SAY;

  0002d	b8 12 00 00 00	 mov	 eax, 18			; 00000012H
  00032	66 89 45 ec	 mov	 WORD PTR _rsf$[ebp+2056], ax

; 328  : 	lstrcpy( rsf.lpszVal1, szMsg );

  00036	8d 85 e4 f7 ff
	ff		 lea	 eax, DWORD PTR _rsf$[ebp]
  0003c	57		 push	 edi
  0003d	50		 push	 eax
  0003e	ff 15 00 00 00
	00		 call	 DWORD PTR __imp__lstrcpyA@8

; 329  : 	rsf.dwVal2 = 0;
; 330  : 	pUser->AddRunScriptFunc( rsf );

  00044	8d 85 e4 f7 ff
	ff		 lea	 eax, DWORD PTR _rsf$[ebp]
  0004a	c7 45 e8 00 00
	00 00		 mov	 DWORD PTR _rsf$[ebp+2052], 0
  00051	50		 push	 eax
  00052	8b ce		 mov	 ecx, esi
  00054	e8 00 00 00 00	 call	 ?AddRunScriptFunc@CUser@@QAEXABU_runscriptfunc@@@Z ; CUser::AddRunScriptFunc

; 331  : 	return 1;
; 332  : }

  00059	8b 4d fc	 mov	 ecx, DWORD PTR __$ArrayPad$[ebp]
  0005c	b8 01 00 00 00	 mov	 eax, 1
  00061	5f		 pop	 edi
  00062	33 cd		 xor	 ecx, ebp
  00064	5e		 pop	 esi
  00065	e8 00 00 00 00	 call	 @__security_check_cookie@4
  0006a	8b e5		 mov	 esp, ebp
  0006c	5d		 pop	 ebp
  0006d	c2 08 00	 ret	 8
?Say@@YGHPAUNPCDIALOG_INFO@@PBD@Z ENDP			; Say
_TEXT	ENDS
; Function compile flags: /Ogtp
; File C:\IAGOS\server\v18\Source\Source\_Common\scriptlib.cpp
;	COMDAT ?RemoveKey@@YGHPAUNPCDIALOG_INFO@@PBD@Z
_TEXT	SEGMENT
_rsf$1 = -2076						; size = 2072
__$ArrayPad$ = -4					; size = 4
_pInfo$ = 8						; size = 4
_szKey$ = 12						; size = 4
?RemoveKey@@YGHPAUNPCDIALOG_INFO@@PBD@Z PROC		; RemoveKey, COMDAT

; 310  : {

  00000	55		 push	 ebp
  00001	8b ec		 mov	 ebp, esp
  00003	81 ec 1c 08 00
	00		 sub	 esp, 2076		; 0000081cH
  00009	a1 00 00 00 00	 mov	 eax, DWORD PTR ___security_cookie
  0000e	33 c5		 xor	 eax, ebp
  00010	89 45 fc	 mov	 DWORD PTR __$ArrayPad$[ebp], eax
  00013	56		 push	 esi
  00014	8b 75 08	 mov	 esi, DWORD PTR _pInfo$[ebp]
  00017	57		 push	 edi
  00018	8b 7d 0c	 mov	 edi, DWORD PTR _szKey$[ebp]

; 311  : 	if( HasKey(pInfo, szKey) ) 

  0001b	57		 push	 edi
  0001c	56		 push	 esi
  0001d	e8 00 00 00 00	 call	 ?HasKey@@YAHPAUNPCDIALOG_INFO@@PBD@Z ; HasKey
  00022	83 c4 08	 add	 esp, 8
  00025	85 c0		 test	 eax, eax
  00027	74 39		 je	 SHORT $LN4@RemoveKey

; 312  : 	{
; 313  : 		CUser* pUser = prj.GetUser( pInfo->GetPcId() );

  00029	8b 06		 mov	 eax, DWORD PTR [esi]
  0002b	8b ce		 mov	 ecx, esi
  0002d	ff 50 18	 call	 DWORD PTR [eax+24]
  00030	50		 push	 eax
  00031	b9 00 00 00 00	 mov	 ecx, OFFSET ?prj@@3VCProject@@A ; prj
  00036	e8 00 00 00 00	 call	 ?GetUser@CProject@@QAEPAVCUser@@K@Z ; CProject::GetUser
  0003b	8b f0		 mov	 esi, eax

; 314  : 
; 315  : 		RunScriptFunc rsf;
; 316  : 		rsf.wFuncType = FUNCTYPE_REMOVEKEY;

  0003d	b8 11 00 00 00	 mov	 eax, 17			; 00000011H
  00042	66 89 45 ec	 mov	 WORD PTR _rsf$1[ebp+2056], ax

; 317  : 		lstrcpy( rsf.lpszVal1, szKey );

  00046	8d 85 e4 f7 ff
	ff		 lea	 eax, DWORD PTR _rsf$1[ebp]
  0004c	57		 push	 edi
  0004d	50		 push	 eax
  0004e	ff 15 00 00 00
	00		 call	 DWORD PTR __imp__lstrcpyA@8

; 318  : 		pUser->AddRunScriptFunc( rsf );

  00054	8d 85 e4 f7 ff
	ff		 lea	 eax, DWORD PTR _rsf$1[ebp]
  0005a	8b ce		 mov	 ecx, esi
  0005c	50		 push	 eax
  0005d	e8 00 00 00 00	 call	 ?AddRunScriptFunc@CUser@@QAEXABU_runscriptfunc@@@Z ; CUser::AddRunScriptFunc
$LN4@RemoveKey:

; 319  : 	}
; 320  : 	return 1;
; 321  : }

  00062	8b 4d fc	 mov	 ecx, DWORD PTR __$ArrayPad$[ebp]
  00065	b8 01 00 00 00	 mov	 eax, 1
  0006a	5f		 pop	 edi
  0006b	33 cd		 xor	 ecx, ebp
  0006d	5e		 pop	 esi
  0006e	e8 00 00 00 00	 call	 @__security_check_cookie@4
  00073	8b e5		 mov	 esp, ebp
  00075	5d		 pop	 ebp
  00076	c2 08 00	 ret	 8
?RemoveKey@@YGHPAUNPCDIALOG_INFO@@PBD@Z ENDP		; RemoveKey
_TEXT	ENDS
; Function compile flags: /Ogtp
; File C:\IAGOS\server\v18\Source\Source\_Common\scriptlib.cpp
;	COMDAT ?RandomIndex@@YGHPAUNPCDIALOG_INFO@@@Z
_TEXT	SEGMENT
_pInfo$ = 8						; size = 4
?RandomIndex@@YGHPAUNPCDIALOG_INFO@@@Z PROC		; RandomIndex, COMDAT

; 306  : 	return 1;

  00000	b8 01 00 00 00	 mov	 eax, 1

; 307  : }

  00005	c2 04 00	 ret	 4
?RandomIndex@@YGHPAUNPCDIALOG_INFO@@@Z ENDP		; RandomIndex
_TEXT	ENDS
; Function compile flags: /Ogtp
; File C:\IAGOS\server\v18\Source\Source\_Common\scriptlib.cpp
;	COMDAT ?GoMark@@YGHPAUNPCDIALOG_INFO@@@Z
_TEXT	SEGMENT
_pInfo$ = 8						; size = 4
?GoMark@@YGHPAUNPCDIALOG_INFO@@@Z PROC			; GoMark, COMDAT

; 301  : 	return 1;

  00000	b8 01 00 00 00	 mov	 eax, 1

; 302  : }

  00005	c2 04 00	 ret	 4
?GoMark@@YGHPAUNPCDIALOG_INFO@@@Z ENDP			; GoMark
_TEXT	ENDS
; Function compile flags: /Ogtp
; File C:\IAGOS\server\v18\Source\Source\_Common\scriptlib.cpp
;	COMDAT ?SetMark@@YGHPAUNPCDIALOG_INFO@@@Z
_TEXT	SEGMENT
_pInfo$ = 8						; size = 4
?SetMark@@YGHPAUNPCDIALOG_INFO@@@Z PROC			; SetMark, COMDAT

; 297  : 	return 1;

  00000	b8 01 00 00 00	 mov	 eax, 1

; 298  : }

  00005	c2 04 00	 ret	 4
?SetMark@@YGHPAUNPCDIALOG_INFO@@@Z ENDP			; SetMark
_TEXT	ENDS
; Function compile flags: /Ogtp
; File C:\IAGOS\server\v18\Source\Source\_Common\scriptlib.cpp
;	COMDAT ?IsSetQuest@@YGHPAUNPCDIALOG_INFO@@H@Z
_TEXT	SEGMENT
_pInfo$ = 8						; size = 4
_nQuest$ = 12						; size = 4
?IsSetQuest@@YGHPAUNPCDIALOG_INFO@@H@Z PROC		; IsSetQuest, COMDAT

; 286  : {

  00000	55		 push	 ebp
  00001	8b ec		 mov	 ebp, esp

; 287  : 	CUser* pUser	= prj.GetUser( pInfo->GetPcId() );

  00003	8b 4d 08	 mov	 ecx, DWORD PTR _pInfo$[ebp]
  00006	56		 push	 esi
  00007	8b 01		 mov	 eax, DWORD PTR [ecx]
  00009	ff 50 18	 call	 DWORD PTR [eax+24]
  0000c	50		 push	 eax
  0000d	b9 00 00 00 00	 mov	 ecx, OFFSET ?prj@@3VCProject@@A ; prj
  00012	e8 00 00 00 00	 call	 ?GetUser@CProject@@QAEPAVCUser@@K@Z ; CProject::GetUser

; 288  : 	LPQUEST pQuest = pUser->GetQuest( nQuest );

  00017	ff 75 0c	 push	 DWORD PTR _nQuest$[ebp]
  0001a	8b f0		 mov	 esi, eax
  0001c	8b ce		 mov	 ecx, esi
  0001e	e8 00 00 00 00	 call	 ?GetQuest@CMover@@QAEPAUtagQuest@@H@Z ; CMover::GetQuest

; 289  : 	if( pQuest ) return TRUE;

  00023	85 c0		 test	 eax, eax
  00025	75 15		 jne	 SHORT $LN5@IsSetQuest

; 290  : 	if( pUser->IsCompleteQuest( nQuest ) )

  00027	ff 75 0c	 push	 DWORD PTR _nQuest$[ebp]
  0002a	8b ce		 mov	 ecx, esi
  0002c	e8 00 00 00 00	 call	 ?IsCompleteQuest@CMover@@QAEHH@Z ; CMover::IsCompleteQuest
  00031	f7 d8		 neg	 eax
  00033	5e		 pop	 esi
  00034	1b c0		 sbb	 eax, eax
  00036	f7 d8		 neg	 eax

; 292  : 	return FALSE;
; 293  : }

  00038	5d		 pop	 ebp
  00039	c2 08 00	 ret	 8
$LN5@IsSetQuest:

; 291  : 		return TRUE;

  0003c	b8 01 00 00 00	 mov	 eax, 1
  00041	5e		 pop	 esi

; 292  : 	return FALSE;
; 293  : }

  00042	5d		 pop	 ebp
  00043	c2 08 00	 ret	 8
?IsSetQuest@@YGHPAUNPCDIALOG_INFO@@H@Z ENDP		; IsSetQuest
_TEXT	ENDS
; Function compile flags: /Ogtp
; File C:\IAGOS\server\v18\Source\Source\_Common\scriptlib.cpp
;	COMDAT ?GetQuestState@@YGHPAUNPCDIALOG_INFO@@H@Z
_TEXT	SEGMENT
_quest$ = -16						; size = 12
__$ArrayPad$ = -4					; size = 4
_pInfo$ = 8						; size = 4
_nQuest$ = 12						; size = 4
?GetQuestState@@YGHPAUNPCDIALOG_INFO@@H@Z PROC		; GetQuestState, COMDAT

; 275  : {

  00000	55		 push	 ebp
  00001	8b ec		 mov	 ebp, esp
  00003	83 ec 10	 sub	 esp, 16			; 00000010H
  00006	a1 00 00 00 00	 mov	 eax, DWORD PTR ___security_cookie
  0000b	33 c5		 xor	 eax, ebp
  0000d	89 45 fc	 mov	 DWORD PTR __$ArrayPad$[ebp], eax
  00010	8b 4d 08	 mov	 ecx, DWORD PTR _pInfo$[ebp]
  00013	56		 push	 esi
  00014	8b 75 0c	 mov	 esi, DWORD PTR _nQuest$[ebp]
  00017	57		 push	 edi

; 276  : 	CUser* pUser	= prj.GetUser( pInfo->GetPcId() );

  00018	8b 01		 mov	 eax, DWORD PTR [ecx]
  0001a	ff 50 18	 call	 DWORD PTR [eax+24]
  0001d	50		 push	 eax
  0001e	b9 00 00 00 00	 mov	 ecx, OFFSET ?prj@@3VCProject@@A ; prj
  00023	e8 00 00 00 00	 call	 ?GetUser@CProject@@QAEPAVCUser@@K@Z ; CProject::GetUser
  00028	8b f8		 mov	 edi, eax

; 277  : 	LPQUEST pQuest = pUser->GetQuest( nQuest );

  0002a	56		 push	 esi
  0002b	8b cf		 mov	 ecx, edi
  0002d	e8 00 00 00 00	 call	 ?GetQuest@CMover@@QAEPAUtagQuest@@H@Z ; CMover::GetQuest

; 278  : 	if( pQuest ) 

  00032	85 c0		 test	 eax, eax
  00034	74 15		 je	 SHORT $LN2@GetQuestSt

; 279  : 		return pQuest->m_nState;

  00036	0f b6 00	 movzx	 eax, BYTE PTR [eax]
  00039	5f		 pop	 edi

; 283  : 	return -1;
; 284  : }

  0003a	5e		 pop	 esi
  0003b	8b 4d fc	 mov	 ecx, DWORD PTR __$ArrayPad$[ebp]
  0003e	33 cd		 xor	 ecx, ebp
  00040	e8 00 00 00 00	 call	 @__security_check_cookie@4
  00045	8b e5		 mov	 esp, ebp
  00047	5d		 pop	 ebp
  00048	c2 08 00	 ret	 8
$LN2@GetQuestSt:

; 280  : 	QUEST quest;
; 281  : 	if( pUser->MakeCompleteQuest( nQuest, &quest ) )

  0004b	8d 45 f0	 lea	 eax, DWORD PTR _quest$[ebp]
  0004e	8b cf		 mov	 ecx, edi
  00050	50		 push	 eax
  00051	56		 push	 esi
  00052	e8 00 00 00 00	 call	 ?MakeCompleteQuest@CMover@@QAEHHPAUtagQuest@@@Z ; CMover::MakeCompleteQuest
  00057	85 c0		 test	 eax, eax
  00059	74 16		 je	 SHORT $LN3@GetQuestSt

; 282  : 		return quest.m_nState;

  0005b	0f b6 45 f0	 movzx	 eax, BYTE PTR _quest$[ebp]
  0005f	5f		 pop	 edi

; 283  : 	return -1;
; 284  : }

  00060	5e		 pop	 esi
  00061	8b 4d fc	 mov	 ecx, DWORD PTR __$ArrayPad$[ebp]
  00064	33 cd		 xor	 ecx, ebp
  00066	e8 00 00 00 00	 call	 @__security_check_cookie@4
  0006b	8b e5		 mov	 esp, ebp
  0006d	5d		 pop	 ebp
  0006e	c2 08 00	 ret	 8
$LN3@GetQuestSt:
  00071	8b 4d fc	 mov	 ecx, DWORD PTR __$ArrayPad$[ebp]
  00074	83 c8 ff	 or	 eax, -1
  00077	5f		 pop	 edi
  00078	33 cd		 xor	 ecx, ebp
  0007a	5e		 pop	 esi
  0007b	e8 00 00 00 00	 call	 @__security_check_cookie@4
  00080	8b e5		 mov	 esp, ebp
  00082	5d		 pop	 ebp
  00083	c2 08 00	 ret	 8
?GetQuestState@@YGHPAUNPCDIALOG_INFO@@H@Z ENDP		; GetQuestState
_TEXT	ENDS
; Function compile flags: /Ogtp
; File C:\IAGOS\server\v18\Source\Source\_Common\scriptlib.cpp
; File C:\IAGOS\server\v18\Source\Source\_Common\Item.h
; File C:\IAGOS\server\v18\Source\Source\_Common\scriptlib.cpp
;	COMDAT ?GetEmptyInventoryNum@@YGHPAUNPCDIALOG_INFO@@@Z
_TEXT	SEGMENT
_pInfo$ = 8						; size = 4
?GetEmptyInventoryNum@@YGHPAUNPCDIALOG_INFO@@@Z PROC	; GetEmptyInventoryNum, COMDAT

; 269  : {

  00000	55		 push	 ebp
  00001	8b ec		 mov	 ebp, esp

; 270  : 	CUser* pUser = prj.GetUser( pInfo->GetPcId() );

  00003	8b 4d 08	 mov	 ecx, DWORD PTR _pInfo$[ebp]
  00006	56		 push	 esi
  00007	57		 push	 edi
  00008	8b 01		 mov	 eax, DWORD PTR [ecx]
  0000a	ff 50 18	 call	 DWORD PTR [eax+24]
  0000d	50		 push	 eax
  0000e	b9 00 00 00 00	 mov	 ecx, OFFSET ?prj@@3VCProject@@A ; prj
  00013	e8 00 00 00 00	 call	 ?GetUser@CProject@@QAEPAVCUser@@K@Z ; CProject::GetUser
  00018	8b f8		 mov	 edi, eax
; File C:\IAGOS\server\v18\Source\Source\_Common\Item.h

; 419  : 			int nCount	= 0;

  0001a	33 d2		 xor	 edx, edx

; 420  : 			for( DWORD i = 0; i < m_dwItemMax; i++ )

  0001c	8b b7 08 0b 00
	00		 mov	 esi, DWORD PTR [edi+2824]
  00022	85 f6		 test	 esi, esi
  00024	74 26		 je	 SHORT $LN15@GetEmptyIn

; 421  : 			{
; 422  : 				if( m_apItem[i].IsEmpty() && m_apItem[i].m_dwObjIndex < m_dwIndexNum )

  00026	8b 8f 0c 0b 00
	00		 mov	 ecx, DWORD PTR [edi+2828]
  0002c	83 c1 08	 add	 ecx, 8
  0002f	90		 npad	 1
$LL6@GetEmptyIn:

; 50   : 	BOOL			IsEmpty() { return m_dwItemId ? FALSE : TRUE; }

  00030	83 79 04 00	 cmp	 DWORD PTR [ecx+4], 0

; 422  : 				if( m_apItem[i].IsEmpty() && m_apItem[i].m_dwObjIndex < m_dwIndexNum )

  00034	75 0b		 jne	 SHORT $LN4@GetEmptyIn
  00036	8b 01		 mov	 eax, DWORD PTR [ecx]
  00038	3b 87 04 0b 00
	00		 cmp	 eax, DWORD PTR [edi+2820]
  0003e	73 01		 jae	 SHORT $LN4@GetEmptyIn

; 423  : 					nCount++;

  00040	42		 inc	 edx
$LN4@GetEmptyIn:

; 420  : 			for( DWORD i = 0; i < m_dwItemMax; i++ )

  00041	81 c1 b0 00 00
	00		 add	 ecx, 176		; 000000b0H
  00047	83 ee 01	 sub	 esi, 1
  0004a	75 e4		 jne	 SHORT $LL6@GetEmptyIn
$LN15@GetEmptyIn:
  0004c	5f		 pop	 edi
; File C:\IAGOS\server\v18\Source\Source\_Common\scriptlib.cpp

; 272  : }

  0004d	8b c2		 mov	 eax, edx
  0004f	5e		 pop	 esi
  00050	5d		 pop	 ebp
  00051	c2 04 00	 ret	 4
?GetEmptyInventoryNum@@YGHPAUNPCDIALOG_INFO@@@Z ENDP	; GetEmptyInventoryNum
_TEXT	ENDS
; Function compile flags: /Ogtp
; File C:\IAGOS\server\v18\Source\Source\_Common\scriptlib.cpp
;	COMDAT ?LaunchQuest@@YGHPAUNPCDIALOG_INFO@@@Z
_TEXT	SEGMENT
_pInfo$ = 8						; size = 4
?LaunchQuest@@YGHPAUNPCDIALOG_INFO@@@Z PROC		; LaunchQuest, COMDAT

; 262  : {

  00000	55		 push	 ebp
  00001	8b ec		 mov	 ebp, esp
  00003	53		 push	 ebx

; 263  : 	int* p = pInfo->GetGlobal();

  00004	8b 5d 08	 mov	 ebx, DWORD PTR _pInfo$[ebp]
  00007	8b cb		 mov	 ecx, ebx
  00009	56		 push	 esi
  0000a	57		 push	 edi
  0000b	8b 03		 mov	 eax, DWORD PTR [ebx]
  0000d	ff 50 1c	 call	 DWORD PTR [eax+28]

; 264  : 	*p = 0;
; 265  : 	__QuestEnd( pInfo->GetPcId(), pInfo->GetNpcId(), *p );

  00010	6a 00		 push	 0
  00012	6a 00		 push	 0
  00014	50		 push	 eax
  00015	c7 00 00 00 00
	00		 mov	 DWORD PTR [eax], 0
  0001b	8b cb		 mov	 ecx, ebx
  0001d	8b 13		 mov	 edx, DWORD PTR [ebx]
  0001f	8b 72 14	 mov	 esi, DWORD PTR [edx+20]
  00022	8b 7a 18	 mov	 edi, DWORD PTR [edx+24]
  00025	ff d6		 call	 esi
  00027	50		 push	 eax
  00028	8b cb		 mov	 ecx, ebx
  0002a	ff d7		 call	 edi
  0002c	50		 push	 eax
  0002d	e8 00 00 00 00	 call	 ?__QuestEnd@@YAXHHAAHHH@Z ; __QuestEnd
  00032	83 c4 14	 add	 esp, 20			; 00000014H

; 266  : 	return 1;

  00035	b8 01 00 00 00	 mov	 eax, 1
  0003a	5f		 pop	 edi
  0003b	5e		 pop	 esi
  0003c	5b		 pop	 ebx

; 267  : }

  0003d	5d		 pop	 ebp
  0003e	c2 04 00	 ret	 4
?LaunchQuest@@YGHPAUNPCDIALOG_INFO@@@Z ENDP		; LaunchQuest
_TEXT	ENDS
; Function compile flags: /Ogtp
; File C:\IAGOS\server\v18\Source\Source\_Common\scriptlib.cpp
;	COMDAT ?IsTimeOut@@YGHPAUNPCDIALOG_INFO@@@Z
_TEXT	SEGMENT
_pInfo$ = 8						; size = 4
?IsTimeOut@@YGHPAUNPCDIALOG_INFO@@@Z PROC		; IsTimeOut, COMDAT

; 258  : 	return 1;

  00000	b8 01 00 00 00	 mov	 eax, 1

; 259  : }

  00005	c2 04 00	 ret	 4
?IsTimeOut@@YGHPAUNPCDIALOG_INFO@@@Z ENDP		; IsTimeOut
_TEXT	ENDS
; Function compile flags: /Ogtp
; File C:\IAGOS\server\v18\Source\Source\_Common\scriptlib.cpp
;	COMDAT ?SetTimer@@YGHPAUNPCDIALOG_INFO@@@Z
_TEXT	SEGMENT
_pInfo$ = 8						; size = 4
?SetTimer@@YGHPAUNPCDIALOG_INFO@@@Z PROC		; SetTimer, COMDAT

; 254  : 	return 1;

  00000	b8 01 00 00 00	 mov	 eax, 1

; 255  : }

  00005	c2 04 00	 ret	 4
?SetTimer@@YGHPAUNPCDIALOG_INFO@@@Z ENDP		; SetTimer
_TEXT	ENDS
; Function compile flags: /Ogtp
; File C:\IAGOS\server\v18\Source\Source\_Common\scriptlib.cpp
;	COMDAT ?GetHour@@YGHPAUNPCDIALOG_INFO@@@Z
_TEXT	SEGMENT
_pInfo$ = 8						; size = 4
?GetHour@@YGHPAUNPCDIALOG_INFO@@@Z PROC			; GetHour, COMDAT

; 249  : 	return g_GameTimer.m_nHour;

  00000	a1 1c 00 00 00	 mov	 eax, DWORD PTR ?g_GameTimer@@3VCGameTimer@@A+28

; 250  : }       

  00005	c2 04 00	 ret	 4
?GetHour@@YGHPAUNPCDIALOG_INFO@@@Z ENDP			; GetHour
_TEXT	ENDS
; Function compile flags: /Ogtp
; File C:\IAGOS\server\v18\Source\Source\_Common\scriptlib.cpp
;	COMDAT ?GetMin@@YGHPAUNPCDIALOG_INFO@@@Z
_TEXT	SEGMENT
_pInfo$ = 8						; size = 4
?GetMin@@YGHPAUNPCDIALOG_INFO@@@Z PROC			; GetMin, COMDAT

; 244  : 	return g_GameTimer.m_nMin;

  00000	a1 18 00 00 00	 mov	 eax, DWORD PTR ?g_GameTimer@@3VCGameTimer@@A+24

; 245  : }      

  00005	c2 04 00	 ret	 4
?GetMin@@YGHPAUNPCDIALOG_INFO@@@Z ENDP			; GetMin
_TEXT	ENDS
; Function compile flags: /Ogtp
; File C:\IAGOS\server\v18\Source\Source\_Common\scriptlib.cpp
;	COMDAT ?GetDay@@YGHPAUNPCDIALOG_INFO@@@Z
_TEXT	SEGMENT
_pInfo$ = 8						; size = 4
?GetDay@@YGHPAUNPCDIALOG_INFO@@@Z PROC			; GetDay, COMDAT

; 239  : 	return g_GameTimer.m_nDay;

  00000	a1 20 00 00 00	 mov	 eax, DWORD PTR ?g_GameTimer@@3VCGameTimer@@A+32

; 240  : }        

  00005	c2 04 00	 ret	 4
?GetDay@@YGHPAUNPCDIALOG_INFO@@@Z ENDP			; GetDay
_TEXT	ENDS
; Function compile flags: /Ogtp
; File C:\IAGOS\server\v18\Source\Source\_Common\scriptlib.cpp
;	COMDAT ?RemoveMover@@YGHPAUNPCDIALOG_INFO@@@Z
_TEXT	SEGMENT
_pInfo$ = 8						; size = 4
?RemoveMover@@YGHPAUNPCDIALOG_INFO@@@Z PROC		; RemoveMover, COMDAT

; 234  : 	return 1;

  00000	b8 01 00 00 00	 mov	 eax, 1

; 235  : }   

  00005	c2 04 00	 ret	 4
?RemoveMover@@YGHPAUNPCDIALOG_INFO@@@Z ENDP		; RemoveMover
_TEXT	ENDS
; Function compile flags: /Ogtp
; File C:\IAGOS\server\v18\Source\Source\_Common\scriptlib.cpp
;	COMDAT ?CreateChar@@YGHPAUNPCDIALOG_INFO@@@Z
_TEXT	SEGMENT
_pInfo$ = 8						; size = 4
?CreateChar@@YGHPAUNPCDIALOG_INFO@@@Z PROC		; CreateChar, COMDAT

; 229  : 	return 1;

  00000	b8 01 00 00 00	 mov	 eax, 1

; 230  : }    

  00005	c2 04 00	 ret	 4
?CreateChar@@YGHPAUNPCDIALOG_INFO@@@Z ENDP		; CreateChar
_TEXT	ENDS
; Function compile flags: /Ogtp
; File C:\IAGOS\server\v18\Source\Source\_Common\scriptlib.cpp
;	COMDAT ?CreateMover@@YGHPAUNPCDIALOG_INFO@@@Z
_TEXT	SEGMENT
_pInfo$ = 8						; size = 4
?CreateMover@@YGHPAUNPCDIALOG_INFO@@@Z PROC		; CreateMover, COMDAT

; 224  : 	return 1;

  00000	b8 01 00 00 00	 mov	 eax, 1

; 225  : }     

  00005	c2 04 00	 ret	 4
?CreateMover@@YGHPAUNPCDIALOG_INFO@@@Z ENDP		; CreateMover
_TEXT	ENDS
; Function compile flags: /Ogtp
; File C:\IAGOS\server\v18\Source\Source\_Common\scriptlib.cpp
; File C:\Program Files\Microsoft Visual Studio\2022\Professional\VC\Tools\MSVC\14.44.35207\atlmfc\include\afxstr.h
; File C:\Program Files\Microsoft Visual Studio\2022\Professional\VC\Tools\MSVC\14.44.35207\atlmfc\include\atlsimpstr.h
; File C:\Program Files\Microsoft Visual Studio\2022\Professional\VC\Tools\MSVC\14.44.35207\atlmfc\include\cstringt.h
; File C:\Program Files\Microsoft Visual Studio\2022\Professional\VC\Tools\MSVC\14.44.35207\atlmfc\include\atlsimpstr.h
; File C:\IAGOS\server\v18\Source\Source\_Common\scriptlib.cpp
; File C:\Program Files\Microsoft Visual Studio\2022\Professional\VC\Tools\MSVC\14.44.35207\atlmfc\include\atlsimpstr.h
; File C:\IAGOS\server\v18\Source\Source\_Common\scriptlib.cpp
; File C:\IAGOS\server\v18\Source\Source\_Common\data.h
; File C:\IAGOS\server\v18\Source\Source\_Common\scriptlib.cpp
; File C:\Program Files\Microsoft Visual Studio\2022\Professional\VC\Tools\MSVC\14.44.35207\atlmfc\include\atlsimpstr.h
; File C:\IAGOS\server\v18\Source\Source\_Common\scriptlib.cpp
; File C:\Program Files\Microsoft Visual Studio\2022\Professional\VC\Tools\MSVC\14.44.35207\atlmfc\include\atlsimpstr.h
; File C:\IAGOS\server\v18\Source\Source\_Common\scriptlib.cpp
; File C:\Program Files\Microsoft Visual Studio\2022\Professional\VC\Tools\MSVC\14.44.35207\atlmfc\include\atlsimpstr.h
; File C:\IAGOS\server\v18\Source\Source\_Common\scriptlib.cpp
;	COMDAT ?AddQuestKey@@YGHPAUNPCDIALOG_INFO@@HPBD@Z
_TEXT	SEGMENT
_strKey$ = -16						; size = 4
__$EHRec$ = -12						; size = 12
_pInfo$ = 8						; size = 4
_nQuest$ = 12						; size = 4
_szKey$ = 16						; size = 4
?AddQuestKey@@YGHPAUNPCDIALOG_INFO@@HPBD@Z PROC		; AddQuestKey, COMDAT

; 201  : {

  00000	55		 push	 ebp
  00001	8b ec		 mov	 ebp, esp
  00003	6a ff		 push	 -1
  00005	68 00 00 00 00	 push	 __ehhandler$?AddQuestKey@@YGHPAUNPCDIALOG_INFO@@HPBD@Z
  0000a	64 a1 00 00 00
	00		 mov	 eax, DWORD PTR fs:0
  00010	50		 push	 eax
  00011	51		 push	 ecx
  00012	53		 push	 ebx
  00013	56		 push	 esi
  00014	57		 push	 edi
  00015	a1 00 00 00 00	 mov	 eax, DWORD PTR ___security_cookie
  0001a	33 c5		 xor	 eax, ebp
  0001c	50		 push	 eax
  0001d	8d 45 f4	 lea	 eax, DWORD PTR __$EHRec$[ebp]
  00020	64 a3 00 00 00
	00		 mov	 DWORD PTR fs:0, eax
; File C:\Program Files\Microsoft Visual Studio\2022\Professional\VC\Tools\MSVC\14.44.35207\atlmfc\include\afxstr.h

; 56   : 		return( AfxGetStringManager() );

  00026	e8 00 00 00 00	 call	 ?AfxGetStringManager@@YGPAUIAtlStringMgr@ATL@@XZ ; AfxGetStringManager
  0002b	8b c8		 mov	 ecx, eax
; File C:\Program Files\Microsoft Visual Studio\2022\Professional\VC\Tools\MSVC\14.44.35207\atlmfc\include\atlsimpstr.h

; 209  : 		ATLENSURE( pStringMgr != NULL );

  0002d	85 c9		 test	 ecx, ecx
  0002f	0f 84 18 01 00
	00		 je	 $LN72@AddQuestKe

; 210  : 		CStringData* pData = pStringMgr->GetNilString();

  00035	8b 01		 mov	 eax, DWORD PTR [ecx]
  00037	ff 50 0c	 call	 DWORD PTR [eax+12]

; 211  : 		Attach( pData );

  0003a	83 c0 10	 add	 eax, 16			; 00000010H
  0003d	89 45 f0	 mov	 DWORD PTR _strKey$[ebp], eax
; File C:\Program Files\Microsoft Visual Studio\2022\Professional\VC\Tools\MSVC\14.44.35207\atlmfc\include\cstringt.h

; 2712 : 		if( (pv != NULL) && IS_INTRESOURCE( pv ) )

  00040	8b 55 10	 mov	 edx, DWORD PTR _szKey$[ebp]

; 1052 : 		CThisSimpleString( StringTraits::GetDefaultManager() )

  00043	c7 45 fc 00 00
	00 00		 mov	 DWORD PTR __$EHRec$[ebp+8], 0

; 2712 : 		if( (pv != NULL) && IS_INTRESOURCE( pv ) )

  0004a	85 d2		 test	 edx, edx
  0004c	74 2d		 je	 SHORT $LN66@AddQuestKe
  0004e	f7 c2 00 00 ff
	ff		 test	 edx, -65536		; ffff0000H
  00054	75 0e		 jne	 SHORT $LN35@AddQuestKe

; 2713 : 		{
; 2714 : 			UINT nID = LOWORD( reinterpret_cast< DWORD_PTR >( pv ) );

  00056	0f b7 c2	 movzx	 eax, dx

; 2715 : 			(nID);
; 2716 : #ifdef _ATL_USE_WINAPI_FAMILY_DESKTOP_APP
; 2717 : 			if( !LoadString( nID ) )

  00059	8d 4d f0	 lea	 ecx, DWORD PTR _strKey$[ebp]
  0005c	50		 push	 eax
  0005d	e8 00 00 00 00	 call	 ?LoadStringA@?$CStringT@DV?$StrTraitMFC@DV?$ChTraitsCRT@D@ATL@@@@@ATL@@QAEHI@Z ; ATL::CStringT<char,StrTraitMFC<char,ATL::ChTraitsCRT<char> > >::LoadStringA

; 1054 : 		if( !CheckImplicitLoad( pszSrc ) )

  00062	eb 23		 jmp	 SHORT $LN9@AddQuestKe
$LN35@AddQuestKe:
; File C:\Program Files\Microsoft Visual Studio\2022\Professional\VC\Tools\MSVC\14.44.35207\atlmfc\include\atlsimpstr.h

; 730  : 		return( int( strlen( psz ) ) );

  00064	8b ca		 mov	 ecx, edx
  00066	8d 71 01	 lea	 esi, DWORD PTR [ecx+1]
  00069	0f 1f 80 00 00
	00 00		 npad	 7
$LL67@AddQuestKe:
  00070	8a 01		 mov	 al, BYTE PTR [ecx]
  00072	41		 inc	 ecx
  00073	84 c0		 test	 al, al
  00075	75 f9		 jne	 SHORT $LL67@AddQuestKe
  00077	2b ce		 sub	 ecx, esi
  00079	eb 02		 jmp	 SHORT $LN34@AddQuestKe
$LN66@AddQuestKe:

; 727  : 		{
; 728  : 			return( 0 );

  0007b	33 c9		 xor	 ecx, ecx
$LN34@AddQuestKe:

; 606  : 		SetString( pszSrc, StringLength( pszSrc ) );

  0007d	51		 push	 ecx
  0007e	52		 push	 edx
  0007f	8d 4d f0	 lea	 ecx, DWORD PTR _strKey$[ebp]
  00082	e8 00 00 00 00	 call	 ?SetString@?$CSimpleStringT@D$0A@@ATL@@QAEXPBDH@Z ; ATL::CSimpleStringT<char,0>::SetString
$LN9@AddQuestKe:

; 537  : 		return( GetLength() == 0 );

  00087	8b 75 f0	 mov	 esi, DWORD PTR _strKey$[ebp]
; File C:\IAGOS\server\v18\Source\Source\_Common\scriptlib.cpp

; 205  : 	if( strKey.IsEmpty() )

  0008a	8b 5d 0c	 mov	 ebx, DWORD PTR _nQuest$[ebp]
  0008d	c7 45 fc 01 00
	00 00		 mov	 DWORD PTR __$EHRec$[ebp+8], 1
; File C:\Program Files\Microsoft Visual Studio\2022\Professional\VC\Tools\MSVC\14.44.35207\atlmfc\include\atlsimpstr.h

; 537  : 		return( GetLength() == 0 );

  00094	83 7e f4 00	 cmp	 DWORD PTR [esi-12], 0
; File C:\IAGOS\server\v18\Source\Source\_Common\scriptlib.cpp

; 205  : 	if( strKey.IsEmpty() )

  00098	75 3c		 jne	 SHORT $LN3@AddQuestKe
; File C:\IAGOS\server\v18\Source\Source\_Common\data.h

; 270  : 	if( dwIndex >= (DWORD)m_nMaxIndex )

  0009a	3b 1d f4 02 00
	00		 cmp	 ebx, DWORD PTR ?prj@@3VCProject@@A+756
  000a0	73 34		 jae	 SHORT $LN3@AddQuestKe

; 271  : 		return NULL;
; 272  : 	return (T*) m_apOffset[ dwIndex ];

  000a2	a1 e4 02 00 00	 mov	 eax, DWORD PTR ?prj@@3VCProject@@A+740
  000a7	8b 14 98	 mov	 edx, DWORD PTR [eax+ebx*4]
; File C:\IAGOS\server\v18\Source\Source\_Common\scriptlib.cpp

; 208  : 		if( pQuestProp )

  000aa	85 d2		 test	 edx, edx
  000ac	74 28		 je	 SHORT $LN3@AddQuestKe

; 209  : 			strKey = pQuestProp->m_szTitle;

  000ae	83 c2 02	 add	 edx, 2
; File C:\Program Files\Microsoft Visual Studio\2022\Professional\VC\Tools\MSVC\14.44.35207\atlmfc\include\atlsimpstr.h

; 726  : 		if( psz == NULL )

  000b1	75 04		 jne	 SHORT $LN54@AddQuestKe

; 727  : 		{
; 728  : 			return( 0 );

  000b3	33 c9		 xor	 ecx, ecx
  000b5	eb 12		 jmp	 SHORT $LN53@AddQuestKe
$LN54@AddQuestKe:

; 730  : 		return( int( strlen( psz ) ) );

  000b7	8b ca		 mov	 ecx, edx
  000b9	8d 71 01	 lea	 esi, DWORD PTR [ecx+1]
  000bc	0f 1f 40 00	 npad	 4
$LL68@AddQuestKe:
  000c0	8a 01		 mov	 al, BYTE PTR [ecx]
  000c2	41		 inc	 ecx
  000c3	84 c0		 test	 al, al
  000c5	75 f9		 jne	 SHORT $LL68@AddQuestKe
  000c7	2b ce		 sub	 ecx, esi
$LN53@AddQuestKe:

; 606  : 		SetString( pszSrc, StringLength( pszSrc ) );

  000c9	51		 push	 ecx
  000ca	52		 push	 edx
  000cb	8d 4d f0	 lea	 ecx, DWORD PTR _strKey$[ebp]
  000ce	e8 00 00 00 00	 call	 ?SetString@?$CSimpleStringT@D$0A@@ATL@@QAEXPBDH@Z ; ATL::CSimpleStringT<char,0>::SetString
  000d3	8b 75 f0	 mov	 esi, DWORD PTR _strKey$[ebp]
$LN3@AddQuestKe:
; File C:\IAGOS\server\v18\Source\Source\_Common\scriptlib.cpp

; 212  : 	if( HasKey( pInfo, strKey ) == FALSE ) 

  000d6	8b 7d 08	 mov	 edi, DWORD PTR _pInfo$[ebp]
  000d9	56		 push	 esi
  000da	57		 push	 edi
  000db	e8 00 00 00 00	 call	 ?HasKey@@YAHPAUNPCDIALOG_INFO@@PBD@Z ; HasKey
  000e0	8b 17		 mov	 edx, DWORD PTR [edi]
  000e2	83 c4 08	 add	 esp, 8
  000e5	8b cf		 mov	 ecx, edi
  000e7	85 c0		 test	 eax, eax
  000e9	75 19		 jne	 SHORT $LN4@AddQuestKe

; 213  : 	{
; 214  : 		Error( "key error AddQuestKey %s %s", pInfo->GetName(), strKey );

  000eb	56		 push	 esi
  000ec	ff 52 20	 call	 DWORD PTR [edx+32]
  000ef	50		 push	 eax
  000f0	68 00 00 00 00	 push	 OFFSET ??_C@_0BM@FLHIHMMM@key?5error?5AddQuestKey?5?$CFs?5?$CFs@
  000f5	e8 00 00 00 00	 call	 ?Error@@YAPBDPBDZZ	; Error
  000fa	83 c4 0c	 add	 esp, 12			; 0000000cH
  000fd	bf 01 00 00 00	 mov	 edi, 1
  00102	eb 14		 jmp	 SHORT $LN7@AddQuestKe
$LN4@AddQuestKe:

; 218  : 	return __AddQuestKey( pInfo->GetPcId(), nQuest, strKey, nParam );

  00104	6a 00		 push	 0
  00106	6a 00		 push	 0
  00108	56		 push	 esi
