; Listing generated by Microsoft (R) Optimizing Compiler Version 19.44.35225.0 

	TITLE	C:\IAGOS\server\v18\Source\Output\WorldServer\Release\SecretRoom.obj
	.686P
	.XMM
	include listing.inc
	.model	flat

INCLUDELIB LIBCMT
INCLUDELIB OLDNAMES

CONST	SEGMENT
?piecewise_construct@std@@3Upiecewise_construct_t@1@B	ORG $+1 ; std::piecewise_construct
CONST	ENDS
PUBLIC	?__empty_global_delete@@YAXPAX@Z		; __empty_global_delete
PUBLIC	?__empty_global_delete@@YAXPAXI@Z		; __empty_global_delete
PUBLIC	___local_stdio_printf_options
PUBLIC	_sprintf
PUBLIC	?AtlThrowImpl@ATL@@YGXJ@Z			; ATL::AtlThrowImpl
PUBLIC	??1?$CSimpleStringT@D$0A@@ATL@@QAE@XZ		; ATL::CSimpleStringT<char,0>::~CSimpleStringT<char,0>
PUBLIC	?SetString@?$CSimpleStringT@D$0A@@ATL@@QAEXPBDH@Z ; ATL::CSimpleStringT<char,0>::SetString
PUBLIC	?ThrowMemoryException@?$CSimpleStringT@D$0A@@ATL@@KAXXZ ; ATL::CSimpleStringT<char,0>::ThrowMemoryException
PUBLIC	?Fork@?$CSimpleStringT@D$0A@@ATL@@AAEXH@Z	; ATL::CSimpleStringT<char,0>::Fork
PUBLIC	?PrepareWrite2@?$CSimpleStringT@D$0A@@ATL@@AAEXH@Z ; ATL::CSimpleStringT<char,0>::PrepareWrite2
PUBLIC	?Reallocate@?$CSimpleStringT@D$0A@@ATL@@AAEXH@Z	; ATL::CSimpleStringT<char,0>::Reallocate
PUBLIC	??1?$CStringT@DV?$StrTraitMFC@DV?$ChTraitsCRT@D@ATL@@@@@ATL@@QAE@XZ ; ATL::CStringT<char,StrTraitMFC<char,ATL::ChTraitsCRT<char> > >::~CStringT<char,StrTraitMFC<char,ATL::ChTraitsCRT<char> > >
PUBLIC	?Format@?$CStringT@DV?$StrTraitMFC@DV?$ChTraitsCRT@D@ATL@@@@@ATL@@QAAXPBDZZ ; ATL::CStringT<char,StrTraitMFC<char,ATL::ChTraitsCRT<char> > >::Format
PUBLIC	?FormatV@?$CStringT@DV?$StrTraitMFC@DV?$ChTraitsCRT@D@ATL@@@@@ATL@@QAEXPBDPAD@Z ; ATL::CStringT<char,StrTraitMFC<char,ATL::ChTraitsCRT<char> > >::FormatV
PUBLIC	?LoadStringA@?$CStringT@DV?$StrTraitMFC@DV?$ChTraitsCRT@D@ATL@@@@@ATL@@QAEHI@Z ; ATL::CStringT<char,StrTraitMFC<char,ATL::ChTraitsCRT<char> > >::LoadStringA
PUBLIC	??0exception@std@@QAE@ABV01@@Z			; std::exception::exception
PUBLIC	??1exception@std@@UAE@XZ			; std::exception::~exception
PUBLIC	?what@exception@std@@UBEPBDXZ			; std::exception::what
PUBLIC	??_Gexception@std@@UAEPAXI@Z			; std::exception::`scalar deleting destructor'
PUBLIC	??0bad_alloc@std@@QAE@ABV01@@Z			; std::bad_alloc::bad_alloc
PUBLIC	??_Gbad_alloc@std@@UAEPAXI@Z			; std::bad_alloc::`scalar deleting destructor'
PUBLIC	??0bad_array_new_length@std@@QAE@XZ		; std::bad_array_new_length::bad_array_new_length
PUBLIC	??1bad_array_new_length@std@@UAE@XZ		; std::bad_array_new_length::~bad_array_new_length
PUBLIC	??0bad_array_new_length@std@@QAE@ABV01@@Z	; std::bad_array_new_length::bad_array_new_length
PUBLIC	??_Gbad_array_new_length@std@@UAEPAXI@Z		; std::bad_array_new_length::`scalar deleting destructor'
PUBLIC	?_Throw_bad_array_new_length@std@@YAXXZ		; std::_Throw_bad_array_new_length
PUBLIC	?_Throw_tree_length_error@std@@YAXXZ		; std::_Throw_tree_length_error
PUBLIC	??0D3DXVECTOR3@@QAE@XZ				; D3DXVECTOR3::D3DXVECTOR3
PUBLIC	??0_LogItemInfo@@QAE@XZ				; _LogItemInfo::_LogItemInfo
PUBLIC	?deallocate@?$allocator@K@std@@QAEXQAKI@Z	; std::allocator<unsigned long>::deallocate
PUBLIC	??0?$vector@KV?$allocator@K@std@@@std@@QAE@ABV01@@Z ; std::vector<unsigned long,std::allocator<unsigned long> >::vector<unsigned long,std::allocator<unsigned long> >
PUBLIC	??1?$vector@KV?$allocator@K@std@@@std@@QAE@XZ	; std::vector<unsigned long,std::allocator<unsigned long> >::~vector<unsigned long,std::allocator<unsigned long> >
PUBLIC	??4?$vector@KV?$allocator@K@std@@@std@@QAEAAV01@ABV01@@Z ; std::vector<unsigned long,std::allocator<unsigned long> >::operator=
PUBLIC	?_Buy_raw@?$vector@KV?$allocator@K@std@@@std@@AAEXI@Z ; std::vector<unsigned long,std::allocator<unsigned long> >::_Buy_raw
PUBLIC	?_Tidy@?$vector@KV?$allocator@K@std@@@std@@AAEXXZ ; std::vector<unsigned long,std::allocator<unsigned long> >::_Tidy
PUBLIC	?_Xlength@?$vector@KV?$allocator@K@std@@@std@@CAXXZ ; std::vector<unsigned long,std::allocator<unsigned long> >::_Xlength
PUBLIC	??1?$_Tree@V?$_Tmap_traits@HHU?$less@H@std@@V?$allocator@U?$pair@$$CBHH@std@@@2@$0A@@std@@@std@@QAE@XZ ; std::_Tree<std::_Tmap_traits<int,int,std::less<int>,std::allocator<std::pair<int const ,int> >,0> >::~_Tree<std::_Tmap_traits<int,int,std::less<int>,std::allocator<std::pair<int const ,int> >,0> >
PUBLIC	?_Insert_node@?$_Tree_val@U?$_Tree_simple_types@U?$pair@$$CBHH@std@@@std@@@std@@QAEPAU?$_Tree_node@U?$pair@$$CBHH@std@@PAX@2@U?$_Tree_id@PAU?$_Tree_node@U?$pair@$$CBHH@std@@PAX@std@@@2@QAU32@@Z ; std::_Tree_val<std::_Tree_simple_types<std::pair<int const ,int> > >::_Insert_node
PUBLIC	??1?$map@HHU?$less@H@std@@V?$allocator@U?$pair@$$CBHH@std@@@2@@std@@QAE@XZ ; std::map<int,int,std::less<int>,std::allocator<std::pair<int const ,int> > >::~map<int,int,std::less<int>,std::allocator<std::pair<int const ,int> > >
PUBLIC	??$_Erase_tree@V?$allocator@U?$_Tree_node@U?$pair@$$CBHH@std@@PAX@std@@@std@@@?$_Tree_val@U?$_Tree_simple_types@U?$pair@$$CBHH@std@@@std@@@std@@QAEXAAV?$allocator@U?$_Tree_node@U?$pair@$$CBHH@std@@PAX@std@@@1@PAU?$_Tree_node@U?$pair@$$CBHH@std@@PAX@1@@Z ; std::_Tree_val<std::_Tree_simple_types<std::pair<int const ,int> > >::_Erase_tree<std::allocator<std::_Tree_node<std::pair<int const ,int>,void *> > >
PUBLIC	??$_Allocate_manually_vector_aligned@U_Default_allocate_traits@std@@@std@@YAPAXI@Z ; std::_Allocate_manually_vector_aligned<std::_Default_allocate_traits>
PUBLIC	?deallocate@?$allocator@U__SECRETROOM_MONSTER@@@std@@QAEXQAU__SECRETROOM_MONSTER@@I@Z ; std::allocator<__SECRETROOM_MONSTER>::deallocate
PUBLIC	??1?$vector@U__SECRETROOM_MONSTER@@V?$allocator@U__SECRETROOM_MONSTER@@@std@@@std@@QAE@XZ ; std::vector<__SECRETROOM_MONSTER,std::allocator<__SECRETROOM_MONSTER> >::~vector<__SECRETROOM_MONSTER,std::allocator<__SECRETROOM_MONSTER> >
PUBLIC	?_Buy_raw@?$vector@U__SECRETROOM_MONSTER@@V?$allocator@U__SECRETROOM_MONSTER@@@std@@@std@@AAEXI@Z ; std::vector<__SECRETROOM_MONSTER,std::allocator<__SECRETROOM_MONSTER> >::_Buy_raw
PUBLIC	?_Tidy@?$vector@U__SECRETROOM_MONSTER@@V?$allocator@U__SECRETROOM_MONSTER@@@std@@@std@@AAEXXZ ; std::vector<__SECRETROOM_MONSTER,std::allocator<__SECRETROOM_MONSTER> >::_Tidy
PUBLIC	?_Xlength@?$vector@U__SECRETROOM_MONSTER@@V?$allocator@U__SECRETROOM_MONSTER@@@std@@@std@@CAXXZ ; std::vector<__SECRETROOM_MONSTER,std::allocator<__SECRETROOM_MONSTER> >::_Xlength
PUBLIC	??1__SECRETROOM_TENDER@@QAE@XZ			; __SECRETROOM_TENDER::~__SECRETROOM_TENDER
PUBLIC	??0__SECRETROOM_TENDER@@QAE@ABU0@@Z		; __SECRETROOM_TENDER::__SECRETROOM_TENDER
PUBLIC	??0CSecretRoomMng@@QAE@XZ			; CSecretRoomMng::CSecretRoomMng
PUBLIC	??1CSecretRoomMng@@UAE@XZ			; CSecretRoomMng::~CSecretRoomMng
PUBLIC	?GetInstance@CSecretRoomMng@@SAPAV1@XZ		; CSecretRoomMng::GetInstance
PUBLIC	?GetContinent@CSecretRoomMng@@QAEEPAVCMover@@@Z	; CSecretRoomMng::GetContinent
PUBLIC	?IsInTheSecretRoom@CSecretRoomMng@@QAEHPAVCMover@@@Z ; CSecretRoomMng::IsInTheSecretRoom
PUBLIC	??1?$_Tree@V?$_Tmap_traits@EPAVCSecretRoomContinent@@U?$less@E@std@@V?$allocator@U?$pair@$$CBEPAVCSecretRoomContinent@@@std@@@3@$0A@@std@@@std@@QAE@XZ ; std::_Tree<std::_Tmap_traits<unsigned char,CSecretRoomContinent *,std::less<unsigned char>,std::allocator<std::pair<unsigned char const ,CSecretRoomContinent *> >,0> >::~_Tree<std::_Tmap_traits<unsigned char,CSecretRoomContinent *,std::less<unsigned char>,std::allocator<std::pair<unsigned char const ,CSecretRoomContinent *> >,0> >
PUBLIC	?find@?$_Tree@V?$_Tmap_traits@EPAVCSecretRoomContinent@@U?$less@E@std@@V?$allocator@U?$pair@$$CBEPAVCSecretRoomContinent@@@std@@@3@$0A@@std@@@std@@QAE?AV?$_Tree_iterator@V?$_Tree_val@U?$_Tree_simple_types@U?$pair@$$CBEPAVCSecretRoomContinent@@@std@@@std@@@std@@@2@ABE@Z ; std::_Tree<std::_Tmap_traits<unsigned char,CSecretRoomContinent *,std::less<unsigned char>,std::allocator<std::pair<unsigned char const ,CSecretRoomContinent *> >,0> >::find
PUBLIC	?_Insert_node@?$_Tree_val@U?$_Tree_simple_types@U?$pair@$$CBEPAVCSecretRoomContinent@@@std@@@std@@@std@@QAEPAU?$_Tree_node@U?$pair@$$CBEPAVCSecretRoomContinent@@@std@@PAX@2@U?$_Tree_id@PAU?$_Tree_node@U?$pair@$$CBEPAVCSecretRoomContinent@@@std@@PAX@std@@@2@QAU32@@Z ; std::_Tree_val<std::_Tree_simple_types<std::pair<unsigned char const ,CSecretRoomContinent *> > >::_Insert_node
PUBLIC	??1?$map@EPAVCSecretRoomContinent@@U?$less@E@std@@V?$allocator@U?$pair@$$CBEPAVCSecretRoomContinent@@@std@@@3@@std@@QAE@XZ ; std::map<unsigned char,CSecretRoomContinent *,std::less<unsigned char>,std::allocator<std::pair<unsigned char const ,CSecretRoomContinent *> > >::~map<unsigned char,CSecretRoomContinent *,std::less<unsigned char>,std::allocator<std::pair<unsigned char const ,CSecretRoomContinent *> > >
PUBLIC	?LoadScript@CSecretRoomMng@@QAEHXZ		; CSecretRoomMng::LoadScript
PUBLIC	?Process@CSecretRoomMng@@QAEXXZ			; CSecretRoomMng::Process
PUBLIC	?CheckOpenTime@CSecretRoomMng@@QAEHXZ		; CSecretRoomMng::CheckOpenTime
PUBLIC	?SendNowState@CSecretRoomMng@@QAEXPAVCUser@@HK@Z ; CSecretRoomMng::SendNowState
PUBLIC	?SendNowStateAllMember@CSecretRoomMng@@QAEXEHK@Z ; CSecretRoomMng::SendNowStateAllMember
PUBLIC	?GetAllInfo@CSecretRoomMng@@QAEXPAVCUser@@@Z	; CSecretRoomMng::GetAllInfo
PUBLIC	?IsPossibleGuild@CSecretRoomMng@@QAEHPAVCUser@@@Z ; CSecretRoomMng::IsPossibleGuild
PUBLIC	?IsGuildMaster@CSecretRoomMng@@QAEHPAVCUser@@@Z	; CSecretRoomMng::IsGuildMaster
PUBLIC	?IsOtherTenderGuild@CSecretRoomMng@@QAEHPAVCUser@@@Z ; CSecretRoomMng::IsOtherTenderGuild
PUBLIC	?SetTenderOpenWnd@CSecretRoomMng@@QAEXPAVCUser@@@Z ; CSecretRoomMng::SetTenderOpenWnd
PUBLIC	?SetTender@CSecretRoomMng@@QAEXPAVCUser@@H@Z	; CSecretRoomMng::SetTender
PUBLIC	?SetTenderCancelReturn@CSecretRoomMng@@QAEXPAVCUser@@@Z ; CSecretRoomMng::SetTenderCancelReturn
PUBLIC	?SetLineUpOpenWnd@CSecretRoomMng@@QAEXPAVCUser@@@Z ; CSecretRoomMng::SetLineUpOpenWnd
PUBLIC	?SetLineUp@CSecretRoomMng@@QAEXPAVCUser@@V?$vector@KV?$allocator@K@std@@@std@@@Z ; CSecretRoomMng::SetLineUp
PUBLIC	?GetTenderView@CSecretRoomMng@@QAEXPAVCUser@@@Z	; CSecretRoomMng::GetTenderView
PUBLIC	?SecretRoomOpen@CSecretRoomMng@@QAEXXZ		; CSecretRoomMng::SecretRoomOpen
PUBLIC	?SetTeleportSecretRoom@CSecretRoomMng@@QAEXPAVCUser@@@Z ; CSecretRoomMng::SetTeleportSecretRoom
PUBLIC	?SetSecretRoomKill@CSecretRoomMng@@QAEXKK@Z	; CSecretRoomMng::SetSecretRoomKill
PUBLIC	?SetFailGuild@CSecretRoomMng@@QAEXPAVCUser@@@Z	; CSecretRoomMng::SetFailGuild
PUBLIC	?GetRevivalPos@CSecretRoomMng@@QAE?AUD3DXVECTOR3@@PAVCUser@@@Z ; CSecretRoomMng::GetRevivalPos
PUBLIC	??_GCSecretRoomMng@@UAEPAXI@Z			; CSecretRoomMng::`scalar deleting destructor'
PUBLIC	??0CSecretRoomContinent@@QAE@E@Z		; CSecretRoomContinent::CSecretRoomContinent
PUBLIC	??1CSecretRoomContinent@@UAE@XZ			; CSecretRoomContinent::~CSecretRoomContinent
PUBLIC	??1?$vector@U__SECRETROOM_TENDER@@V?$allocator@U__SECRETROOM_TENDER@@@std@@@std@@QAE@XZ ; std::vector<__SECRETROOM_TENDER,std::allocator<__SECRETROOM_TENDER> >::~vector<__SECRETROOM_TENDER,std::allocator<__SECRETROOM_TENDER> >
PUBLIC	?erase@?$vector@U__SECRETROOM_TENDER@@V?$allocator@U__SECRETROOM_TENDER@@@std@@@std@@QAE?AV?$_Vector_iterator@V?$_Vector_val@U?$_Simple_types@U__SECRETROOM_TENDER@@@std@@@std@@@2@V?$_Vector_const_iterator@V?$_Vector_val@U?$_Simple_types@U__SECRETROOM_TENDER@@@std@@@std@@@2@@Z ; std::vector<__SECRETROOM_TENDER,std::allocator<__SECRETROOM_TENDER> >::erase
PUBLIC	?_Xlength@?$vector@U__SECRETROOM_TENDER@@V?$allocator@U__SECRETROOM_TENDER@@@std@@@std@@CAXXZ ; std::vector<__SECRETROOM_TENDER,std::allocator<__SECRETROOM_TENDER> >::_Xlength
PUBLIC	?GetTenderGuild@CSecretRoomContinent@@QAEHK@Z	; CSecretRoomContinent::GetTenderGuild
PUBLIC	?Process@CSecretRoomContinent@@QAEXK@Z		; CSecretRoomContinent::Process
PUBLIC	?IsLineUpMember@CSecretRoomContinent@@QAEHPAVCUser@@@Z ; CSecretRoomContinent::IsLineUpMember
PUBLIC	?SetContTender@CSecretRoomContinent@@QAEXPAVCUser@@H@Z ; CSecretRoomContinent::SetContTender
PUBLIC	?SortTenderGuild@CSecretRoomContinent@@QAEXXZ	; CSecretRoomContinent::SortTenderGuild
PUBLIC	?SetContTenderCancelReturn@CSecretRoomContinent@@QAEXPAVCUser@@@Z ; CSecretRoomContinent::SetContTenderCancelReturn
PUBLIC	?SetContLineUp@CSecretRoomContinent@@QAEXPAVCUser@@V?$vector@KV?$allocator@K@std@@@std@@@Z ; CSecretRoomContinent::SetContLineUp
PUBLIC	?SecretRoomContOpen@CSecretRoomContinent@@QAEXXZ ; CSecretRoomContinent::SecretRoomContOpen
PUBLIC	?SetSecretRoomWorld@CSecretRoomContinent@@QAEXH@Z ; CSecretRoomContinent::SetSecretRoomWorld
PUBLIC	?SetTeleportSecretRoomCont@CSecretRoomContinent@@QAEXPAVCUser@@@Z ; CSecretRoomContinent::SetTeleportSecretRoomCont
PUBLIC	?SetTeleportNormalRoom@CSecretRoomContinent@@QAEXPAVCUser@@H@Z ; CSecretRoomContinent::SetTeleportNormalRoom
PUBLIC	?SetTeleportBossRoom@CSecretRoomContinent@@QAEXPAVCUser@@H@Z ; CSecretRoomContinent::SetTeleportBossRoom
PUBLIC	?CreateMonster@CSecretRoomContinent@@QAEXXZ	; CSecretRoomContinent::CreateMonster
PUBLIC	?RemoveAllSecretRoomObj@CSecretRoomContinent@@QAEXK@Z ; CSecretRoomContinent::RemoveAllSecretRoomObj
PUBLIC	?SetSecretRoomContKill@CSecretRoomContinent@@QAEXKKH@Z ; CSecretRoomContinent::SetSecretRoomContKill
PUBLIC	?IsSecretRoomMonster@CSecretRoomContinent@@QAEHKH@Z ; CSecretRoomContinent::IsSecretRoomMonster
PUBLIC	?UpdateInfoToMember@CSecretRoomContinent@@QAEXPAVCUser@@EH@Z ; CSecretRoomContinent::UpdateInfoToMember
PUBLIC	?UpdateInfoToAllMember@CSecretRoomContinent@@QAEXEH@Z ; CSecretRoomContinent::UpdateInfoToAllMember
PUBLIC	?ProcessInGuildMaster@CSecretRoomContinent@@QAEXXZ ; CSecretRoomContinent::ProcessInGuildMaster
PUBLIC	?SetContFailGuild@CSecretRoomContinent@@QAEXK@Z	; CSecretRoomContinent::SetContFailGuild
PUBLIC	?SetContCloseWait@CSecretRoomContinent@@QAEXXZ	; CSecretRoomContinent::SetContCloseWait
PUBLIC	?SetContClose@CSecretRoomContinent@@QAEXXZ	; CSecretRoomContinent::SetContClose
PUBLIC	??_GCSecretRoomContinent@@UAEPAXI@Z		; CSecretRoomContinent::`scalar deleting destructor'
PUBLIC	??$insert@U?$pair@HPAVCSecretRoomContinent@@@std@@$0A@@?$map@EPAVCSecretRoomContinent@@U?$less@E@std@@V?$allocator@U?$pair@$$CBEPAVCSecretRoomContinent@@@std@@@3@@std@@QAE?AU?$pair@V?$_Tree_iterator@V?$_Tree_val@U?$_Tree_simple_types@U?$pair@$$CBEPAVCSecretRoomContinent@@@std@@@std@@@std@@@std@@_N@1@$$QAU?$pair@HPAVCSecretRoomContinent@@@1@@Z ; std::map<unsigned char,CSecretRoomContinent *,std::less<unsigned char>,std::allocator<std::pair<unsigned char const ,CSecretRoomContinent *> > >::insert<std::pair<int,CSecretRoomContinent *>,0>
PUBLIC	??E?$_Tree_iterator@V?$_Tree_val@U?$_Tree_simple_types@U?$pair@$$CBEPAVCSecretRoomContinent@@@std@@@std@@@std@@@std@@QAE?AV01@H@Z ; std::_Tree_iterator<std::_Tree_val<std::_Tree_simple_types<std::pair<unsigned char const ,CSecretRoomContinent *> > > >::operator++
PUBLIC	??$insert@U?$pair@HH@std@@$0A@@?$map@HHU?$less@H@std@@V?$allocator@U?$pair@$$CBHH@std@@@2@@std@@QAE?AU?$pair@V?$_Tree_iterator@V?$_Tree_val@U?$_Tree_simple_types@U?$pair@$$CBHH@std@@@std@@@std@@@std@@_N@1@$$QAU?$pair@HH@1@@Z ; std::map<int,int,std::less<int>,std::allocator<std::pair<int const ,int> > >::insert<std::pair<int,int>,0>
PUBLIC	??$_Assign_counted_range@PAU__SECRETROOM_MONSTER@@@?$vector@U__SECRETROOM_MONSTER@@V?$allocator@U__SECRETROOM_MONSTER@@@std@@@std@@AAEXPAU__SECRETROOM_MONSTER@@I@Z ; std::vector<__SECRETROOM_MONSTER,std::allocator<__SECRETROOM_MONSTER> >::_Assign_counted_range<__SECRETROOM_MONSTER *>
PUBLIC	??$_Copy_memmove_n@PAU__SECRETROOM_MONSTER@@PAU1@@std@@YAPAU__SECRETROOM_MONSTER@@PAU1@I0@Z ; std::_Copy_memmove_n<__SECRETROOM_MONSTER *,__SECRETROOM_MONSTER *>
PUBLIC	??$_Emplace_reallocate@ABU__SECRETROOM_TENDER@@@?$vector@U__SECRETROOM_TENDER@@V?$allocator@U__SECRETROOM_TENDER@@@std@@@std@@AAEPAU__SECRETROOM_TENDER@@QAU2@ABU2@@Z ; std::vector<__SECRETROOM_TENDER,std::allocator<__SECRETROOM_TENDER> >::_Emplace_reallocate<__SECRETROOM_TENDER const &>
PUBLIC	??$_Find_lower_bound@E@?$_Tree@V?$_Tmap_traits@EPAVCSecretRoomContinent@@U?$less@E@std@@V?$allocator@U?$pair@$$CBEPAVCSecretRoomContinent@@@std@@@3@$0A@@std@@@std@@IBE?AU?$_Tree_find_result@PAU?$_Tree_node@U?$pair@$$CBEPAVCSecretRoomContinent@@@std@@PAX@std@@@1@ABE@Z ; std::_Tree<std::_Tmap_traits<unsigned char,CSecretRoomContinent *,std::less<unsigned char>,std::allocator<std::pair<unsigned char const ,CSecretRoomContinent *> >,0> >::_Find_lower_bound<unsigned char>
PUBLIC	??$_Erase_tree@V?$allocator@U?$_Tree_node@U?$pair@$$CBEPAVCSecretRoomContinent@@@std@@PAX@std@@@std@@@?$_Tree_val@U?$_Tree_simple_types@U?$pair@$$CBEPAVCSecretRoomContinent@@@std@@@std@@@std@@QAEXAAV?$allocator@U?$_Tree_node@U?$pair@$$CBEPAVCSecretRoomContinent@@@std@@PAX@std@@@1@PAU?$_Tree_node@U?$pair@$$CBEPAVCSecretRoomContinent@@@std@@PAX@1@@Z ; std::_Tree_val<std::_Tree_simple_types<std::pair<unsigned char const ,CSecretRoomContinent *> > >::_Erase_tree<std::allocator<std::_Tree_node<std::pair<unsigned char const ,CSecretRoomContinent *>,void *> > >
PUBLIC	??$_Copy_memmove@PAU__SECRETROOM_MONSTER@@PAU1@@std@@YAPAU__SECRETROOM_MONSTER@@PAU1@00@Z ; std::_Copy_memmove<__SECRETROOM_MONSTER *,__SECRETROOM_MONSTER *>
PUBLIC	??$_Emplace_reallocate@ABU__SECRETROOM_MONSTER@@@?$vector@U__SECRETROOM_MONSTER@@V?$allocator@U__SECRETROOM_MONSTER@@@std@@@std@@AAEPAU__SECRETROOM_MONSTER@@QAU2@ABU2@@Z ; std::vector<__SECRETROOM_MONSTER,std::allocator<__SECRETROOM_MONSTER> >::_Emplace_reallocate<__SECRETROOM_MONSTER const &>
PUBLIC	??$_Find_lower_bound@H@?$_Tree@V?$_Tmap_traits@HHU?$less@H@std@@V?$allocator@U?$pair@$$CBHH@std@@@2@$0A@@std@@@std@@IBE?AU?$_Tree_find_result@PAU?$_Tree_node@U?$pair@$$CBHH@std@@PAX@std@@@1@ABH@Z ; std::_Tree<std::_Tmap_traits<int,int,std::less<int>,std::allocator<std::pair<int const ,int> >,0> >::_Find_lower_bound<int>
PUBLIC	??$_Copy_memmove_n@PAKPAK@std@@YAPAKPAKI0@Z	; std::_Copy_memmove_n<unsigned long *,unsigned long *>
PUBLIC	??1?$_Alloc_construct_ptr@V?$allocator@U?$_Tree_node@U?$pair@$$CBEPAVCSecretRoomContinent@@@std@@PAX@std@@@std@@@std@@QAE@XZ ; std::_Alloc_construct_ptr<std::allocator<std::_Tree_node<std::pair<unsigned char const ,CSecretRoomContinent *>,void *> > >::~_Alloc_construct_ptr<std::allocator<std::_Tree_node<std::pair<unsigned char const ,CSecretRoomContinent *>,void *> > >
PUBLIC	??1?$_Tree_temp_node@V?$allocator@U?$_Tree_node@U?$pair@$$CBEPAVCSecretRoomContinent@@@std@@PAX@std@@@std@@@std@@QAE@XZ ; std::_Tree_temp_node<std::allocator<std::_Tree_node<std::pair<unsigned char const ,CSecretRoomContinent *>,void *> > >::~_Tree_temp_node<std::allocator<std::_Tree_node<std::pair<unsigned char const ,CSecretRoomContinent *>,void *> > >
PUBLIC	??1?$_Alloc_construct_ptr@V?$allocator@U?$_Tree_node@U?$pair@$$CBHH@std@@PAX@std@@@std@@@std@@QAE@XZ ; std::_Alloc_construct_ptr<std::allocator<std::_Tree_node<std::pair<int const ,int>,void *> > >::~_Alloc_construct_ptr<std::allocator<std::_Tree_node<std::pair<int const ,int>,void *> > >
PUBLIC	??$_Copy_memmove_tail@PAU__SECRETROOM_MONSTER@@@std@@YAPAU__SECRETROOM_MONSTER@@QBDQAU1@II@Z ; std::_Copy_memmove_tail<__SECRETROOM_MONSTER *>
PUBLIC	??1_Reallocation_guard@?$vector@U__SECRETROOM_TENDER@@V?$allocator@U__SECRETROOM_TENDER@@@std@@@std@@QAE@XZ ; std::vector<__SECRETROOM_TENDER,std::allocator<__SECRETROOM_TENDER> >::_Reallocation_guard::~_Reallocation_guard
PUBLIC	??$_Uninitialized_move@PAU__SECRETROOM_TENDER@@V?$allocator@U__SECRETROOM_TENDER@@@std@@@std@@YAPAU__SECRETROOM_TENDER@@QAU1@0PAU1@AAV?$allocator@U__SECRETROOM_TENDER@@@0@@Z ; std::_Uninitialized_move<__SECRETROOM_TENDER *,std::allocator<__SECRETROOM_TENDER> >
PUBLIC	??$_Copy_memmove_tail@PAK@std@@YAPAKQBDQAKII@Z	; std::_Copy_memmove_tail<unsigned long *>
PUBLIC	??$_Copy_memmove@PAKPAK@std@@YAPAKPAK00@Z	; std::_Copy_memmove<unsigned long *,unsigned long *>
PUBLIC	?_OptionsStorage@?1??__local_stdio_printf_options@@9@4_KA ; `__local_stdio_printf_options'::`2'::_OptionsStorage
PUBLIC	??_C@_02DPKJAMEF@?$CFd@				; `string'
PUBLIC	??_C@_00CNPNBAHC@@				; `string'
PUBLIC	??_7exception@std@@6B@				; std::exception::`vftable'
PUBLIC	??_C@_0BC@EOODALEL@Unknown?5exception@		; `string'
PUBLIC	??_7bad_alloc@std@@6B@				; std::bad_alloc::`vftable'
PUBLIC	??_7bad_array_new_length@std@@6B@		; std::bad_array_new_length::`vftable'
PUBLIC	??_C@_0BF@KINCDENJ@bad?5array?5new?5length@	; `string'
PUBLIC	??_R0?AVexception@std@@@8			; std::exception `RTTI Type Descriptor'
PUBLIC	__CT??_R0?AVexception@std@@@8??0exception@std@@QAE@ABV01@@Z12
PUBLIC	__TI3?AVbad_array_new_length@std@@
PUBLIC	__CTA3?AVbad_array_new_length@std@@
PUBLIC	??_R0?AVbad_array_new_length@std@@@8		; std::bad_array_new_length `RTTI Type Descriptor'
PUBLIC	__CT??_R0?AVbad_array_new_length@std@@@8??0bad_array_new_length@std@@QAE@ABV01@@Z12
PUBLIC	??_R0?AVbad_alloc@std@@@8			; std::bad_alloc `RTTI Type Descriptor'
PUBLIC	__CT??_R0?AVbad_alloc@std@@@8??0bad_alloc@std@@QAE@ABV01@@Z12
PUBLIC	??_C@_0BB@GCADKGJO@map?1set?5too?5long@		; `string'
PUBLIC	??_C@_0BM@HMFGHCP@?$CFs?5min?3?$CFd?0?5max?3?$CFd?0?5index?3?$CFd@ ; `string'
PUBLIC	??_C@_0BJ@GKPOBPPI@GetMoverProp?5range_error@	; `string'
PUBLIC	??_C@_0BE@OHDBLHOM@GetText?5range_error@	; `string'
PUBLIC	??_C@_05KKCIMGE@error@				; `string'
PUBLIC	??_C@_0BA@FOIKENOD@vector?5too?5long@		; `string'
PUBLIC	??_R4exception@std@@6B@				; std::exception::`RTTI Complete Object Locator'
PUBLIC	??_R3exception@std@@8				; std::exception::`RTTI Class Hierarchy Descriptor'
PUBLIC	??_R2exception@std@@8				; std::exception::`RTTI Base Class Array'
PUBLIC	??_R1A@?0A@EA@exception@std@@8			; std::exception::`RTTI Base Class Descriptor at (0,-1,0,64)'
PUBLIC	??_R4bad_array_new_length@std@@6B@		; std::bad_array_new_length::`RTTI Complete Object Locator'
PUBLIC	??_R3bad_array_new_length@std@@8		; std::bad_array_new_length::`RTTI Class Hierarchy Descriptor'
PUBLIC	??_R2bad_array_new_length@std@@8		; std::bad_array_new_length::`RTTI Base Class Array'
PUBLIC	??_R1A@?0A@EA@bad_array_new_length@std@@8	; std::bad_array_new_length::`RTTI Base Class Descriptor at (0,-1,0,64)'
PUBLIC	??_R1A@?0A@EA@bad_alloc@std@@8			; std::bad_alloc::`RTTI Base Class Descriptor at (0,-1,0,64)'
PUBLIC	??_R3bad_alloc@std@@8				; std::bad_alloc::`RTTI Class Hierarchy Descriptor'
PUBLIC	??_R2bad_alloc@std@@8				; std::bad_alloc::`RTTI Base Class Array'
PUBLIC	??_R4bad_alloc@std@@6B@				; std::bad_alloc::`RTTI Complete Object Locator'
PUBLIC	??_7CSecretRoomMng@@6B@				; CSecretRoomMng::`vftable'
PUBLIC	??_7CSecretRoomContinent@@6B@			; CSecretRoomContinent::`vftable'
PUBLIC	??_C@_0P@KHPJPHJI@SecretRoom?4lua@		; `string'
PUBLIC	??_C@_0BN@NMIIOGMP@SecretRoom?4lua?5Run?5Failed?$CB?$CB?$CB@ ; `string'
PUBLIC	??_C@_0O@JHCECGHF@MinGuildLevel@		; `string'
PUBLIC	??_C@_0BE@GGBILBFA@MinGuildMemberLevel@		; `string'
PUBLIC	??_C@_08IDGFPKOK@MinPenya@			; `string'
PUBLIC	??_C@_0BC@KJKJIHEI@MinGuildMemberNum@		; `string'
PUBLIC	??_C@_0BC@PKAPJPKM@MaxGuildMemberNum@		; `string'
PUBLIC	??_C@_0M@GEBKGFAP@MinGuildNum@			; `string'
PUBLIC	??_C@_0M@PEGJHFOF@MaxGuildNum@			; `string'
PUBLIC	??_C@_0O@FGDBHOJE@MonsterGenNum@		; `string'
PUBLIC	??_C@_0BB@FDEBMJPD@CancelReturnRate@		; `string'
PUBLIC	??_C@_0BC@OPLBONMF@DropoutReturnRate@		; `string'
PUBLIC	??_C@_08EABLEDPJ@tMonster@			; `string'
PUBLIC	??_C@_04NNFNFJKG@dwId@				; `string'
PUBLIC	??_C@_04OGHNFBJB@nNum@				; `string'
PUBLIC	??_C@_04PEKGEMIO@bRed@				; `string'
PUBLIC	??_C@_02JMABBILH@x1@				; `string'
PUBLIC	??_C@_02JPIFMMNJ@z1@				; `string'
PUBLIC	??_C@_02LHCMELHE@x2@				; `string'
PUBLIC	??_C@_02LEKIJPBK@z2@				; `string'
PUBLIC	??_C@_01EANLCPLP@y@				; `string'
PUBLIC	??_C@_05OLBMEBNJ@nType@				; `string'
PUBLIC	??_C@_0L@MAIFMDKK@LineUpTime@			; `string'
PUBLIC	??_C@_0N@JCCLKJOL@EntranceTime@			; `string'
PUBLIC	??_C@_0M@PIPIEKCG@WarWaitTime@			; `string'
PUBLIC	??_C@_0O@ICJPAPLK@CheckOpenTime@		; `string'
PUBLIC	??_C@_04OEDFLLKD@?$CC?$CFs?$CC@			; `string'
PUBLIC	??_C@_0BA@JLFDCLHJ@GetNextOpenTime@		; `string'
PUBLIC	??_C@_07HNCNCHMB@WarTime@			; `string'
PUBLIC	??_C@_01BDACAMKP@h@				; `string'
PUBLIC	??_C@_0L@MDDCMNOB@SECRETROOM@			; `string'
PUBLIC	??_C@_0P@GCMECMGK@SECRETROOM_ADD@		; `string'
PUBLIC	??_C@_0BC@MOKGADFJ@SECRETROOM_CANCEL@		; `string'
PUBLIC	??_C@_0O@NKMKODGA@CloseWaitTime@		; `string'
PUBLIC	??_R4CSecretRoomContinent@@6B@			; CSecretRoomContinent::`RTTI Complete Object Locator'
PUBLIC	??_R0?AVCSecretRoomContinent@@@8		; CSecretRoomContinent `RTTI Type Descriptor'
PUBLIC	??_R3CSecretRoomContinent@@8			; CSecretRoomContinent::`RTTI Class Hierarchy Descriptor'
PUBLIC	??_R2CSecretRoomContinent@@8			; CSecretRoomContinent::`RTTI Base Class Array'
PUBLIC	??_R1A@?0A@EA@CSecretRoomContinent@@8		; CSecretRoomContinent::`RTTI Base Class Descriptor at (0,-1,0,64)'
PUBLIC	??_R4CSecretRoomMng@@6B@			; CSecretRoomMng::`RTTI Complete Object Locator'
PUBLIC	??_R0?AVCSecretRoomMng@@@8			; CSecretRoomMng `RTTI Type Descriptor'
PUBLIC	??_R3CSecretRoomMng@@8				; CSecretRoomMng::`RTTI Class Hierarchy Descriptor'
PUBLIC	??_R2CSecretRoomMng@@8				; CSecretRoomMng::`RTTI Base Class Array'
PUBLIC	??_R1A@?0A@EA@CSecretRoomMng@@8			; CSecretRoomMng::`RTTI Base Class Descriptor at (0,-1,0,64)'
PUBLIC	__real@42c80000
PUBLIC	__xmm@41f00000000000000000000000000000
EXTRN	??2@YAPAXI@Z:PROC				; operator new
EXTRN	??3@YAXPAXI@Z:PROC				; operator delete
EXTRN	_atexit:PROC
EXTRN	__Init_thread_header:PROC
EXTRN	__Init_thread_abort:PROC
EXTRN	__Init_thread_footer:PROC
EXTRN	__invalid_parameter_noinfo:PROC
EXTRN	__invoke_watson:PROC
EXTRN	__errno:PROC
EXTRN	__imp__GetTickCount@0:PROC
EXTRN	__imp__LoadResource@8:PROC
EXTRN	__imp__LockResource@4:PROC
EXTRN	__imp__SizeofResource@8:PROC
EXTRN	__imp__FindResourceW@12:PROC
EXTRN	__imp__WideCharToMultiByte@32:PROC
EXTRN	___stdio_common_vsprintf:PROC
EXTRN	___stdio_common_vsprintf_s:PROC
EXTRN	?AfxThrowMemoryException@@YGXXZ:PROC		; AfxThrowMemoryException
EXTRN	?AfxThrowOleException@@YGXJ@Z:PROC		; AfxThrowOleException
EXTRN	?AfxFindStringResourceHandle@@YGPAUHINSTANCE__@@I@Z:PROC ; AfxFindStringResourceHandle
EXTRN	?AfxGetStringManager@@YGPAUIAtlStringMgr@ATL@@XZ:PROC ; AfxGetStringManager
EXTRN	___std_exception_copy:PROC
EXTRN	___std_exception_destroy:PROC
EXTRN	??_Eexception@std@@UAEPAXI@Z:PROC		; std::exception::`vector deleting destructor'
EXTRN	??_Ebad_alloc@std@@UAEPAXI@Z:PROC		; std::bad_alloc::`vector deleting destructor'
EXTRN	??_Ebad_array_new_length@std@@UAEPAXI@Z:PROC	; std::bad_array_new_length::`vector deleting destructor'
EXTRN	?_Xlength_error@std@@YAXPBD@Z:PROC		; std::_Xlength_error
EXTRN	?GetDefineNum@CScript@@SAHPBD@Z:PROC		; CScript::GetDefineNum
EXTRN	?xRandom@@YAKKK@Z:PROC				; xRandom
EXTRN	?Error@@YAPBDPBDZZ:PROC				; Error
EXTRN	?UpdateLocalMatrix@CObj@@QAEXXZ:PROC		; CObj::UpdateLocalMatrix
EXTRN	?GetPropA@CObj@@QAEPAUObjProp@@XZ:PROC		; CObj::GetPropA
EXTRN	?Delete@CObj@@QAEXXZ:PROC			; CObj::Delete
EXTRN	?SetPos@CObj@@QAEXABUD3DXVECTOR3@@@Z:PROC	; CObj::SetPos
EXTRN	?SetAngle@CObj@@QAEXM@Z:PROC			; CObj::SetAngle
EXTRN	_lua_tonumberx:PROC
EXTRN	_lua_toboolean:PROC
EXTRN	_lua_pushnil:PROC
EXTRN	_lua_getglobal:PROC
EXTRN	_lua_next:PROC
EXTRN	??0CLuaBase@@QAE@XZ:PROC			; CLuaBase::CLuaBase
EXTRN	??1CLuaBase@@UAE@XZ:PROC			; CLuaBase::~CLuaBase
EXTRN	?RunScript@CLuaBase@@QAEHPBD@Z:PROC		; CLuaBase::RunScript
EXTRN	?Pop@CLuaBase@@QAEXH@Z:PROC			; CLuaBase::Pop
EXTRN	?GetGlobalNumber@CLuaBase@@QAENPAD@Z:PROC	; CLuaBase::GetGlobalNumber
EXTRN	?GetFieldToNumber@CLuaBase@@QAENHPAD@Z:PROC	; CLuaBase::GetFieldToNumber
EXTRN	?GetFieldToString@CLuaBase@@QAEPBDHPAD@Z:PROC	; CLuaBase::GetFieldToString
EXTRN	?GetFieldToBool@CLuaBase@@QAEHHPAD@Z:PROC	; CLuaBase::GetFieldToBool
EXTRN	?GetLuaFunction@CLuaBase@@QAEHPAD@Z:PROC	; CLuaBase::GetLuaFunction
EXTRN	?CallLuaFunction@CLuaBase@@QAEXHH@Z:PROC	; CLuaBase::CallLuaFunction
EXTRN	??0CItemElem@@QAE@XZ:PROC			; CItemElem::CItemElem
EXTRN	??1CItemElem@@UAE@XZ:PROC			; CItemElem::~CItemElem
EXTRN	?RemoveCommonBuffs@CMover@@QAEXXZ:PROC		; CMover::RemoveCommonBuffs
EXTRN	?GetName@CMover@@QAEPBDH@Z:PROC			; CMover::GetName
EXTRN	?AddGold@CMover@@QAEHHH@Z:PROC			; CMover::AddGold
EXTRN	?GetGuild@CMover@@QAEPAVCGuild@@XZ:PROC		; CMover::GetGuild
EXTRN	?Replace@CMover@@QAEHKKAAUD3DXVECTOR3@@W4REPLACE_TYPE@@H@Z:PROC ; CMover::Replace
EXTRN	?AddObj@CWorld@@QAEHPAVCObj@@HH@Z:PROC		; CWorld::AddObj
EXTRN	?CreateObj@@YAPAVCObj@@PAUIDirect3DDevice9@@KKH@Z:PROC ; CreateObj
EXTRN	?GetState@CFlyffEvent@@QAEEH@Z:PROC		; CFlyffEvent::GetState
EXTRN	?GetInstance@CContinent@@SAPAV1@XZ:PROC		; CContinent::GetInstance
EXTRN	?GetArea@CContinent@@QAEEPAVCMover@@@Z:PROC	; CContinent::GetArea
EXTRN	?GetContinentName@CContinent@@QAE?AV?$CStringT@DV?$StrTraitMFC@DV?$ChTraitsCRT@D@ATL@@@@@ATL@@E@Z:PROC ; CContinent::GetContinentName
EXTRN	?GetRevivalPos@CContinent@@QAE?AUD3DXVECTOR3@@E@Z:PROC ; CContinent::GetRevivalPos
EXTRN	??_ECSecretRoomMng@@UAEPAXI@Z:PROC		; CSecretRoomMng::`vector deleting destructor'
EXTRN	??_ECSecretRoomContinent@@UAEPAXI@Z:PROC	; CSecretRoomContinent::`vector deleting destructor'
EXTRN	?GetGuild@CGuildMng@@QAEPAVCGuild@@K@Z:PROC	; CGuildMng::GetGuild
EXTRN	?AddDefinedText@CUser@@QAAXHPBDZZ:PROC		; CUser::AddDefinedText
EXTRN	?AddDefinedText@CUser@@QAEXH@Z:PROC		; CUser::AddDefinedText
EXTRN	?AddSecretRoomMngState@CUser@@QAEXHK@Z:PROC	; CUser::AddSecretRoomMngState
EXTRN	?AddSecretRoomContInfo@CUser@@QAEXEEAAV?$vector@U__SECRETROOM_TENDER@@V?$allocator@U__SECRETROOM_TENDER@@@std@@@std@@H@Z:PROC ; CUser::AddSecretRoomContInfo
EXTRN	?AddSecretRoomTenderOpenWnd@CUser@@QAEXH@Z:PROC	; CUser::AddSecretRoomTenderOpenWnd
EXTRN	?AddSecretRoomLineUpOpenWnd@CUser@@QAEXAAV?$vector@KV?$allocator@K@std@@@std@@@Z:PROC ; CUser::AddSecretRoomLineUpOpenWnd
EXTRN	?AddSecretRoomTenderView@CUser@@QAEXHHJAAV?$vector@U__SECRETROOM_TENDER@@V?$allocator@U__SECRETROOM_TENDER@@@std@@@std@@@Z:PROC ; CUser::AddSecretRoomTenderView
EXTRN	?SendCaption@CDPCoreClient@@QAEXPBDKH@Z:PROC	; CDPCoreClient::SendCaption
EXTRN	?SendGCRemoveParty@CDPCoreClient@@QAEXKK@Z:PROC	; CDPCoreClient::SendGCRemoveParty
EXTRN	?SendQueryPostMail@CDPDatabaseClient@@QAEXKKAAVCItemElem@@HPAD1@Z:PROC ; CDPDatabaseClient::SendQueryPostMail
EXTRN	?SendSecretRoomInsertToDB@CDPDatabaseClient@@QAEXEAAU__SECRETROOM_TENDER@@@Z:PROC ; CDPDatabaseClient::SendSecretRoomInsertToDB
EXTRN	?SendSecretRoomUpdateToDB@CDPDatabaseClient@@QAEXEAAU__SECRETROOM_TENDER@@D@Z:PROC ; CDPDatabaseClient::SendSecretRoomUpdateToDB
EXTRN	?SendSecretRoomInsertLineUpToDB@CDPDatabaseClient@@QAEXEAAU__SECRETROOM_TENDER@@@Z:PROC ; CDPDatabaseClient::SendSecretRoomInsertLineUpToDB
EXTRN	?SendSecretRoomClosed@CDPDatabaseClient@@QAEXXZ:PROC ; CDPDatabaseClient::SendSecretRoomClosed
EXTRN	?GetWorld@CWorldMng@@QAEPAVCWorld@@K@Z:PROC	; CWorldMng::GetWorld
EXTRN	?GetInstance@CTax@@SAPAV1@XZ:PROC		; CTax::GetInstance
EXTRN	?SetNextSecretRoomGuild@CTax@@QAEXEK@Z:PROC	; CTax::SetNextSecretRoomGuild
EXTRN	?SendSetTaxRateOpenWnd@CTax@@QAEXEK@Z:PROC	; CTax::SendSetTaxRateOpenWnd
EXTRN	?OnLogItem@CDPSrvr@@QAEXAAU_LogItemInfo@@PAVCItemElem@@H@Z:PROC ; CDPSrvr::OnLogItem
EXTRN	@__security_check_cookie@4:PROC
EXTRN	__CxxThrowException@8:PROC
EXTRN	___CxxFrameHandler3:PROC
EXTRN	__dtol3:PROC
EXTRN	__ftol2_sse:PROC
EXTRN	_memcpy:PROC
EXTRN	_memmove:PROC
EXTRN	_memset:PROC
EXTRN	__Init_thread_epoch:DWORD
EXTRN	??_7type_info@@6B@:QWORD			; type_info::`vftable'
EXTRN	?g_next@@3KA:DWORD				; g_next
EXTRN	?prj@@3VCProject@@A:BYTE			; prj
EXTRN	?g_uIdofMulti@@3KA:DWORD			; g_uIdofMulti
EXTRN	?g_eLocal@@3VCFlyffEvent@@A:BYTE		; g_eLocal
EXTRN	?g_DPCoreClient@@3VCDPCoreClient@@A:BYTE	; g_DPCoreClient
EXTRN	?g_dpDBClient@@3VCDPDatabaseClient@@A:BYTE	; g_dpDBClient
EXTRN	?g_GuildMng@@3VCGuildMng@@A:BYTE		; g_GuildMng
EXTRN	?g_WorldMng@@3VCWorldMng@@A:BYTE		; g_WorldMng
EXTRN	?g_DPSrvr@@3VCDPSrvr@@A:BYTE			; g_DPSrvr
EXTRN	___security_cookie:DWORD
EXTRN	__fltused:DWORD
EXTRN	__tls_array:DWORD
EXTRN	__tls_index:DWORD
;	COMDAT ?_OptionsStorage@?1??__local_stdio_printf_options@@9@4_KA
_BSS	SEGMENT
?_OptionsStorage@?1??__local_stdio_printf_options@@9@4_KA DQ 01H DUP (?) ; `__local_stdio_printf_options'::`2'::_OptionsStorage
_BSS	ENDS
;	COMDAT ?sSecretRoomMng@?1??GetInstance@CSecretRoomMng@@SAPAV2@XZ@4V2@A
_BSS	SEGMENT
?sSecretRoomMng@?1??GetInstance@CSecretRoomMng@@SAPAV2@XZ@4V2@A DB 070H DUP (?) ; `CSecretRoomMng::GetInstance'::`2'::sSecretRoomMng
_BSS	ENDS
;	COMDAT ?$TSS0@?1??GetInstance@CSecretRoomMng@@SAPAV2@XZ@4HA
_BSS	SEGMENT
?$TSS0@?1??GetInstance@CSecretRoomMng@@SAPAV2@XZ@4HA DD 01H DUP (?) ; `CSecretRoomMng::GetInstance'::`2'::$TSS0
_BSS	ENDS
;	COMDAT __xmm@41f00000000000000000000000000000
CONST	SEGMENT
__xmm@41f00000000000000000000000000000 DB 00H, 00H, 00H, 00H, 00H, 00H, 00H
	DB	00H, 00H, 00H, 00H, 00H, 00H, 00H, 0f0H, 'A'
CONST	ENDS
;	COMDAT __real@42c80000
CONST	SEGMENT
__real@42c80000 DD 042c80000r			; 100
CONST	ENDS
;	COMDAT ??_R1A@?0A@EA@CSecretRoomMng@@8
rdata$r	SEGMENT
??_R1A@?0A@EA@CSecretRoomMng@@8 DD FLAT:??_R0?AVCSecretRoomMng@@@8 ; CSecretRoomMng::`RTTI Base Class Descriptor at (0,-1,0,64)'
	DD	00H
	DD	00H
	DD	0ffffffffH
	DD	00H
	DD	040H
	DD	FLAT:??_R3CSecretRoomMng@@8
rdata$r	ENDS
;	COMDAT ??_R2CSecretRoomMng@@8
rdata$r	SEGMENT
??_R2CSecretRoomMng@@8 DD FLAT:??_R1A@?0A@EA@CSecretRoomMng@@8 ; CSecretRoomMng::`RTTI Base Class Array'
rdata$r	ENDS
;	COMDAT ??_R3CSecretRoomMng@@8
rdata$r	SEGMENT
??_R3CSecretRoomMng@@8 DD 00H				; CSecretRoomMng::`RTTI Class Hierarchy Descriptor'
	DD	00H
	DD	01H
	DD	FLAT:??_R2CSecretRoomMng@@8
rdata$r	ENDS
;	COMDAT ??_R0?AVCSecretRoomMng@@@8
data$rs	SEGMENT
??_R0?AVCSecretRoomMng@@@8 DD FLAT:??_7type_info@@6B@	; CSecretRoomMng `RTTI Type Descriptor'
	DD	00H
	DB	'.?AVCSecretRoomMng@@', 00H
data$rs	ENDS
;	COMDAT ??_R4CSecretRoomMng@@6B@
rdata$r	SEGMENT
??_R4CSecretRoomMng@@6B@ DD 00H				; CSecretRoomMng::`RTTI Complete Object Locator'
	DD	00H
	DD	00H
	DD	FLAT:??_R0?AVCSecretRoomMng@@@8
	DD	FLAT:??_R3CSecretRoomMng@@8
rdata$r	ENDS
;	COMDAT ??_R1A@?0A@EA@CSecretRoomContinent@@8
rdata$r	SEGMENT
??_R1A@?0A@EA@CSecretRoomContinent@@8 DD FLAT:??_R0?AVCSecretRoomContinent@@@8 ; CSecretRoomContinent::`RTTI Base Class Descriptor at (0,-1,0,64)'
	DD	00H
	DD	00H
	DD	0ffffffffH
	DD	00H
	DD	040H
	DD	FLAT:??_R3CSecretRoomContinent@@8
rdata$r	ENDS
;	COMDAT ??_R2CSecretRoomContinent@@8
rdata$r	SEGMENT
??_R2CSecretRoomContinent@@8 DD FLAT:??_R1A@?0A@EA@CSecretRoomContinent@@8 ; CSecretRoomContinent::`RTTI Base Class Array'
rdata$r	ENDS
;	COMDAT ??_R3CSecretRoomContinent@@8
rdata$r	SEGMENT
??_R3CSecretRoomContinent@@8 DD 00H			; CSecretRoomContinent::`RTTI Class Hierarchy Descriptor'
	DD	00H
	DD	01H
	DD	FLAT:??_R2CSecretRoomContinent@@8
rdata$r	ENDS
;	COMDAT ??_R0?AVCSecretRoomContinent@@@8
data$rs	SEGMENT
??_R0?AVCSecretRoomContinent@@@8 DD FLAT:??_7type_info@@6B@ ; CSecretRoomContinent `RTTI Type Descriptor'
	DD	00H
	DB	'.?AVCSecretRoomContinent@@', 00H
data$rs	ENDS
;	COMDAT ??_R4CSecretRoomContinent@@6B@
rdata$r	SEGMENT
??_R4CSecretRoomContinent@@6B@ DD 00H			; CSecretRoomContinent::`RTTI Complete Object Locator'
	DD	00H
	DD	00H
	DD	FLAT:??_R0?AVCSecretRoomContinent@@@8
	DD	FLAT:??_R3CSecretRoomContinent@@8
rdata$r	ENDS
;	COMDAT ??_C@_0O@NKMKODGA@CloseWaitTime@
CONST	SEGMENT
??_C@_0O@NKMKODGA@CloseWaitTime@ DB 'CloseWaitTime', 00H ; `string'
CONST	ENDS
;	COMDAT ??_C@_0BC@MOKGADFJ@SECRETROOM_CANCEL@
CONST	SEGMENT
??_C@_0BC@MOKGADFJ@SECRETROOM_CANCEL@ DB 'SECRETROOM_CANCEL', 00H ; `string'
CONST	ENDS
;	COMDAT ??_C@_0P@GCMECMGK@SECRETROOM_ADD@
CONST	SEGMENT
??_C@_0P@GCMECMGK@SECRETROOM_ADD@ DB 'SECRETROOM_ADD', 00H ; `string'
CONST	ENDS
;	COMDAT ??_C@_0L@MDDCMNOB@SECRETROOM@
CONST	SEGMENT
??_C@_0L@MDDCMNOB@SECRETROOM@ DB 'SECRETROOM', 00H	; `string'
CONST	ENDS
;	COMDAT ??_C@_01BDACAMKP@h@
CONST	SEGMENT
??_C@_01BDACAMKP@h@ DB 'h', 00H				; `string'
CONST	ENDS
;	COMDAT ??_C@_07HNCNCHMB@WarTime@
CONST	SEGMENT
??_C@_07HNCNCHMB@WarTime@ DB 'WarTime', 00H		; `string'
CONST	ENDS
;	COMDAT ??_C@_0BA@JLFDCLHJ@GetNextOpenTime@
CONST	SEGMENT
??_C@_0BA@JLFDCLHJ@GetNextOpenTime@ DB 'GetNextOpenTime', 00H ; `string'
CONST	ENDS
;	COMDAT ??_C@_04OEDFLLKD@?$CC?$CFs?$CC@
CONST	SEGMENT
??_C@_04OEDFLLKD@?$CC?$CFs?$CC@ DB '"%s"', 00H		; `string'
CONST	ENDS
;	COMDAT ??_C@_0O@ICJPAPLK@CheckOpenTime@
CONST	SEGMENT
??_C@_0O@ICJPAPLK@CheckOpenTime@ DB 'CheckOpenTime', 00H ; `string'
CONST	ENDS
;	COMDAT ??_C@_0M@PIPIEKCG@WarWaitTime@
CONST	SEGMENT
??_C@_0M@PIPIEKCG@WarWaitTime@ DB 'WarWaitTime', 00H	; `string'
CONST	ENDS
;	COMDAT ??_C@_0N@JCCLKJOL@EntranceTime@
CONST	SEGMENT
??_C@_0N@JCCLKJOL@EntranceTime@ DB 'EntranceTime', 00H	; `string'
CONST	ENDS
;	COMDAT ??_C@_0L@MAIFMDKK@LineUpTime@
CONST	SEGMENT
??_C@_0L@MAIFMDKK@LineUpTime@ DB 'LineUpTime', 00H	; `string'
CONST	ENDS
;	COMDAT ??_C@_05OLBMEBNJ@nType@
CONST	SEGMENT
??_C@_05OLBMEBNJ@nType@ DB 'nType', 00H			; `string'
CONST	ENDS
;	COMDAT ??_C@_01EANLCPLP@y@
CONST	SEGMENT
??_C@_01EANLCPLP@y@ DB 'y', 00H				; `string'
CONST	ENDS
;	COMDAT ??_C@_02LEKIJPBK@z2@
CONST	SEGMENT
??_C@_02LEKIJPBK@z2@ DB 'z2', 00H			; `string'
CONST	ENDS
;	COMDAT ??_C@_02LHCMELHE@x2@
CONST	SEGMENT
??_C@_02LHCMELHE@x2@ DB 'x2', 00H			; `string'
CONST	ENDS
;	COMDAT ??_C@_02JPIFMMNJ@z1@
CONST	SEGMENT
??_C@_02JPIFMMNJ@z1@ DB 'z1', 00H			; `string'
CONST	ENDS
;	COMDAT ??_C@_02JMABBILH@x1@
CONST	SEGMENT
??_C@_02JMABBILH@x1@ DB 'x1', 00H			; `string'
CONST	ENDS
;	COMDAT ??_C@_04PEKGEMIO@bRed@
CONST	SEGMENT
??_C@_04PEKGEMIO@bRed@ DB 'bRed', 00H			; `string'
CONST	ENDS
;	COMDAT ??_C@_04OGHNFBJB@nNum@
CONST	SEGMENT
??_C@_04OGHNFBJB@nNum@ DB 'nNum', 00H			; `string'
CONST	ENDS
;	COMDAT ??_C@_04NNFNFJKG@dwId@
CONST	SEGMENT
??_C@_04NNFNFJKG@dwId@ DB 'dwId', 00H			; `string'
CONST	ENDS
;	COMDAT ??_C@_08EABLEDPJ@tMonster@
CONST	SEGMENT
??_C@_08EABLEDPJ@tMonster@ DB 'tMonster', 00H		; `string'
CONST	ENDS
;	COMDAT ??_C@_0BC@OPLBONMF@DropoutReturnRate@
CONST	SEGMENT
??_C@_0BC@OPLBONMF@DropoutReturnRate@ DB 'DropoutReturnRate', 00H ; `string'
CONST	ENDS
;	COMDAT ??_C@_0BB@FDEBMJPD@CancelReturnRate@
CONST	SEGMENT
??_C@_0BB@FDEBMJPD@CancelReturnRate@ DB 'CancelReturnRate', 00H ; `string'
CONST	ENDS
;	COMDAT ??_C@_0O@FGDBHOJE@MonsterGenNum@
CONST	SEGMENT
??_C@_0O@FGDBHOJE@MonsterGenNum@ DB 'MonsterGenNum', 00H ; `string'
CONST	ENDS
;	COMDAT ??_C@_0M@PEGJHFOF@MaxGuildNum@
CONST	SEGMENT
??_C@_0M@PEGJHFOF@MaxGuildNum@ DB 'MaxGuildNum', 00H	; `string'
CONST	ENDS
;	COMDAT ??_C@_0M@GEBKGFAP@MinGuildNum@
CONST	SEGMENT
??_C@_0M@GEBKGFAP@MinGuildNum@ DB 'MinGuildNum', 00H	; `string'
CONST	ENDS
;	COMDAT ??_C@_0BC@PKAPJPKM@MaxGuildMemberNum@
CONST	SEGMENT
??_C@_0BC@PKAPJPKM@MaxGuildMemberNum@ DB 'MaxGuildMemberNum', 00H ; `string'
CONST	ENDS
;	COMDAT ??_C@_0BC@KJKJIHEI@MinGuildMemberNum@
CONST	SEGMENT
??_C@_0BC@KJKJIHEI@MinGuildMemberNum@ DB 'MinGuildMemberNum', 00H ; `string'
CONST	ENDS
;	COMDAT ??_C@_08IDGFPKOK@MinPenya@
CONST	SEGMENT
??_C@_08IDGFPKOK@MinPenya@ DB 'MinPenya', 00H		; `string'
CONST	ENDS
;	COMDAT ??_C@_0BE@GGBILBFA@MinGuildMemberLevel@
CONST	SEGMENT
??_C@_0BE@GGBILBFA@MinGuildMemberLevel@ DB 'MinGuildMemberLevel', 00H ; `string'
CONST	ENDS
;	COMDAT ??_C@_0O@JHCECGHF@MinGuildLevel@
CONST	SEGMENT
??_C@_0O@JHCECGHF@MinGuildLevel@ DB 'MinGuildLevel', 00H ; `string'
CONST	ENDS
;	COMDAT ??_C@_0BN@NMIIOGMP@SecretRoom?4lua?5Run?5Failed?$CB?$CB?$CB@
CONST	SEGMENT
??_C@_0BN@NMIIOGMP@SecretRoom?4lua?5Run?5Failed?$CB?$CB?$CB@ DB 'SecretRo'
	DB	'om.lua Run Failed!!!', 00H			; `string'
CONST	ENDS
;	COMDAT ??_C@_0P@KHPJPHJI@SecretRoom?4lua@
CONST	SEGMENT
??_C@_0P@KHPJPHJI@SecretRoom?4lua@ DB 'SecretRoom.lua', 00H ; `string'
CONST	ENDS
;	COMDAT ??_7CSecretRoomContinent@@6B@
CONST	SEGMENT
??_7CSecretRoomContinent@@6B@ DD FLAT:??_R4CSecretRoomContinent@@6B@ ; CSecretRoomContinent::`vftable'
	DD	FLAT:??_ECSecretRoomContinent@@UAEPAXI@Z
CONST	ENDS
;	COMDAT ??_7CSecretRoomMng@@6B@
CONST	SEGMENT
??_7CSecretRoomMng@@6B@ DD FLAT:??_R4CSecretRoomMng@@6B@ ; CSecretRoomMng::`vftable'
	DD	FLAT:??_ECSecretRoomMng@@UAEPAXI@Z
CONST	ENDS
;	COMDAT ??_R4bad_alloc@std@@6B@
rdata$r	SEGMENT
??_R4bad_alloc@std@@6B@ DD 00H				; std::bad_alloc::`RTTI Complete Object Locator'
	DD	00H
	DD	00H
	DD	FLAT:??_R0?AVbad_alloc@std@@@8
	DD	FLAT:??_R3bad_alloc@std@@8
rdata$r	ENDS
;	COMDAT ??_R2bad_alloc@std@@8
rdata$r	SEGMENT
??_R2bad_alloc@std@@8 DD FLAT:??_R1A@?0A@EA@bad_alloc@std@@8 ; std::bad_alloc::`RTTI Base Class Array'
	DD	FLAT:??_R1A@?0A@EA@exception@std@@8
rdata$r	ENDS
;	COMDAT ??_R3bad_alloc@std@@8
rdata$r	SEGMENT
??_R3bad_alloc@std@@8 DD 00H				; std::bad_alloc::`RTTI Class Hierarchy Descriptor'
	DD	00H
	DD	02H
	DD	FLAT:??_R2bad_alloc@std@@8
rdata$r	ENDS
;	COMDAT ??_R1A@?0A@EA@bad_alloc@std@@8
rdata$r	SEGMENT
??_R1A@?0A@EA@bad_alloc@std@@8 DD FLAT:??_R0?AVbad_alloc@std@@@8 ; std::bad_alloc::`RTTI Base Class Descriptor at (0,-1,0,64)'
	DD	01H
	DD	00H
	DD	0ffffffffH
	DD	00H
	DD	040H
	DD	FLAT:??_R3bad_alloc@std@@8
rdata$r	ENDS
;	COMDAT ??_R1A@?0A@EA@bad_array_new_length@std@@8
rdata$r	SEGMENT
??_R1A@?0A@EA@bad_array_new_length@std@@8 DD FLAT:??_R0?AVbad_array_new_length@std@@@8 ; std::bad_array_new_length::`RTTI Base Class Descriptor at (0,-1,0,64)'
	DD	02H
	DD	00H
	DD	0ffffffffH
	DD	00H
	DD	040H
	DD	FLAT:??_R3bad_array_new_length@std@@8
rdata$r	ENDS
;	COMDAT ??_R2bad_array_new_length@std@@8
rdata$r	SEGMENT
??_R2bad_array_new_length@std@@8 DD FLAT:??_R1A@?0A@EA@bad_array_new_length@std@@8 ; std::bad_array_new_length::`RTTI Base Class Array'
	DD	FLAT:??_R1A@?0A@EA@bad_alloc@std@@8
	DD	FLAT:??_R1A@?0A@EA@exception@std@@8
rdata$r	ENDS
;	COMDAT ??_R3bad_array_new_length@std@@8
rdata$r	SEGMENT
??_R3bad_array_new_length@std@@8 DD 00H			; std::bad_array_new_length::`RTTI Class Hierarchy Descriptor'
	DD	00H
	DD	03H
	DD	FLAT:??_R2bad_array_new_length@std@@8
rdata$r	ENDS
;	COMDAT ??_R4bad_array_new_length@std@@6B@
rdata$r	SEGMENT
??_R4bad_array_new_length@std@@6B@ DD 00H		; std::bad_array_new_length::`RTTI Complete Object Locator'
	DD	00H
	DD	00H
	DD	FLAT:??_R0?AVbad_array_new_length@std@@@8
	DD	FLAT:??_R3bad_array_new_length@std@@8
rdata$r	ENDS
;	COMDAT ??_R1A@?0A@EA@exception@std@@8
rdata$r	SEGMENT
??_R1A@?0A@EA@exception@std@@8 DD FLAT:??_R0?AVexception@std@@@8 ; std::exception::`RTTI Base Class Descriptor at (0,-1,0,64)'
	DD	00H
	DD	00H
	DD	0ffffffffH
	DD	00H
	DD	040H
	DD	FLAT:??_R3exception@std@@8
rdata$r	ENDS
;	COMDAT ??_R2exception@std@@8
rdata$r	SEGMENT
??_R2exception@std@@8 DD FLAT:??_R1A@?0A@EA@exception@std@@8 ; std::exception::`RTTI Base Class Array'
rdata$r	ENDS
;	COMDAT ??_R3exception@std@@8
rdata$r	SEGMENT
??_R3exception@std@@8 DD 00H				; std::exception::`RTTI Class Hierarchy Descriptor'
	DD	00H
	DD	01H
	DD	FLAT:??_R2exception@std@@8
rdata$r	ENDS
;	COMDAT ??_R4exception@std@@6B@
rdata$r	SEGMENT
??_R4exception@std@@6B@ DD 00H				; std::exception::`RTTI Complete Object Locator'
	DD	00H
	DD	00H
	DD	FLAT:??_R0?AVexception@std@@@8
	DD	FLAT:??_R3exception@std@@8
rdata$r	ENDS
;	COMDAT ??_C@_0BA@FOIKENOD@vector?5too?5long@
CONST	SEGMENT
??_C@_0BA@FOIKENOD@vector?5too?5long@ DB 'vector too long', 00H ; `string'
CONST	ENDS
;	COMDAT ??_C@_05KKCIMGE@error@
CONST	SEGMENT
??_C@_05KKCIMGE@error@ DB 'error', 00H			; `string'
CONST	ENDS
;	COMDAT ??_C@_0BE@OHDBLHOM@GetText?5range_error@
CONST	SEGMENT
??_C@_0BE@OHDBLHOM@GetText?5range_error@ DB 'GetText range_error', 00H ; `string'
CONST	ENDS
;	COMDAT ??_C@_0BJ@GKPOBPPI@GetMoverProp?5range_error@
CONST	SEGMENT
??_C@_0BJ@GKPOBPPI@GetMoverProp?5range_error@ DB 'GetMoverProp range_erro'
	DB	'r', 00H					; `string'
CONST	ENDS
;	COMDAT ??_C@_0BM@HMFGHCP@?$CFs?5min?3?$CFd?0?5max?3?$CFd?0?5index?3?$CFd@
CONST	SEGMENT
??_C@_0BM@HMFGHCP@?$CFs?5min?3?$CFd?0?5max?3?$CFd?0?5index?3?$CFd@ DB '%s'
	DB	' min:%d, max:%d, index:%d', 00H		; `string'
CONST	ENDS
;	COMDAT ??_C@_0BB@GCADKGJO@map?1set?5too?5long@
CONST	SEGMENT
??_C@_0BB@GCADKGJO@map?1set?5too?5long@ DB 'map/set too long', 00H ; `string'
CONST	ENDS
;	COMDAT __CT??_R0?AVbad_alloc@std@@@8??0bad_alloc@std@@QAE@ABV01@@Z12
xdata$x	SEGMENT
__CT??_R0?AVbad_alloc@std@@@8??0bad_alloc@std@@QAE@ABV01@@Z12 DD 010H
	DD	FLAT:??_R0?AVbad_alloc@std@@@8
	DD	00H
	DD	0ffffffffH
	ORG $+4
	DD	0cH
	DD	FLAT:??0bad_alloc@std@@QAE@ABV01@@Z
xdata$x	ENDS
;	COMDAT ??_R0?AVbad_alloc@std@@@8
data$r	SEGMENT
??_R0?AVbad_alloc@std@@@8 DD FLAT:??_7type_info@@6B@	; std::bad_alloc `RTTI Type Descriptor'
	DD	00H
	DB	'.?AVbad_alloc@std@@', 00H
data$r	ENDS
;	COMDAT __CT??_R0?AVbad_array_new_length@std@@@8??0bad_array_new_length@std@@QAE@ABV01@@Z12
xdata$x	SEGMENT
__CT??_R0?AVbad_array_new_length@std@@@8??0bad_array_new_length@std@@QAE@ABV01@@Z12 DD 00H
	DD	FLAT:??_R0?AVbad_array_new_length@std@@@8
	DD	00H
	DD	0ffffffffH
	ORG $+4
	DD	0cH
	DD	FLAT:??0bad_array_new_length@std@@QAE@ABV01@@Z
xdata$x	ENDS
;	COMDAT ??_R0?AVbad_array_new_length@std@@@8
data$r	SEGMENT
??_R0?AVbad_array_new_length@std@@@8 DD FLAT:??_7type_info@@6B@ ; std::bad_array_new_length `RTTI Type Descriptor'
	DD	00H
	DB	'.?AVbad_array_new_length@std@@', 00H
data$r	ENDS
;	COMDAT __CTA3?AVbad_array_new_length@std@@
xdata$x	SEGMENT
__CTA3?AVbad_array_new_length@std@@ DD 03H
	DD	FLAT:__CT??_R0?AVbad_array_new_length@std@@@8??0bad_array_new_length@std@@QAE@ABV01@@Z12
	DD	FLAT:__CT??_R0?AVbad_alloc@std@@@8??0bad_alloc@std@@QAE@ABV01@@Z12
	DD	FLAT:__CT??_R0?AVexception@std@@@8??0exception@std@@QAE@ABV01@@Z12
xdata$x	ENDS
;	COMDAT __TI3?AVbad_array_new_length@std@@
xdata$x	SEGMENT
__TI3?AVbad_array_new_length@std@@ DD 00H
	DD	FLAT:??1bad_array_new_length@std@@UAE@XZ
	DD	00H
	DD	FLAT:__CTA3?AVbad_array_new_length@std@@
xdata$x	ENDS
;	COMDAT __CT??_R0?AVexception@std@@@8??0exception@std@@QAE@ABV01@@Z12
xdata$x	SEGMENT
__CT??_R0?AVexception@std@@@8??0exception@std@@QAE@ABV01@@Z12 DD 00H
	DD	FLAT:??_R0?AVexception@std@@@8
	DD	00H
	DD	0ffffffffH
	ORG $+4
	DD	0cH
	DD	FLAT:??0exception@std@@QAE@ABV01@@Z
xdata$x	ENDS
;	COMDAT ??_R0?AVexception@std@@@8
data$r	SEGMENT
??_R0?AVexception@std@@@8 DD FLAT:??_7type_info@@6B@	; std::exception `RTTI Type Descriptor'
	DD	00H
	DB	'.?AVexception@std@@', 00H
data$r	ENDS
;	COMDAT ??_C@_0BF@KINCDENJ@bad?5array?5new?5length@
CONST	SEGMENT
??_C@_0BF@KINCDENJ@bad?5array?5new?5length@ DB 'bad array new length', 00H ; `string'
CONST	ENDS
;	COMDAT ??_7bad_array_new_length@std@@6B@
CONST	SEGMENT
??_7bad_array_new_length@std@@6B@ DD FLAT:??_R4bad_array_new_length@std@@6B@ ; std::bad_array_new_length::`vftable'
	DD	FLAT:??_Ebad_array_new_length@std@@UAEPAXI@Z
	DD	FLAT:?what@exception@std@@UBEPBDXZ
CONST	ENDS
;	COMDAT ??_7bad_alloc@std@@6B@
CONST	SEGMENT
??_7bad_alloc@std@@6B@ DD FLAT:??_R4bad_alloc@std@@6B@	; std::bad_alloc::`vftable'
	DD	FLAT:??_Ebad_alloc@std@@UAEPAXI@Z
	DD	FLAT:?what@exception@std@@UBEPBDXZ
CONST	ENDS
;	COMDAT ??_C@_0BC@EOODALEL@Unknown?5exception@
CONST	SEGMENT
??_C@_0BC@EOODALEL@Unknown?5exception@ DB 'Unknown exception', 00H ; `string'
CONST	ENDS
;	COMDAT ??_7exception@std@@6B@
CONST	SEGMENT
??_7exception@std@@6B@ DD FLAT:??_R4exception@std@@6B@	; std::exception::`vftable'
	DD	FLAT:??_Eexception@std@@UAEPAXI@Z
	DD	FLAT:?what@exception@std@@UBEPBDXZ
CONST	ENDS
;	COMDAT ??_C@_00CNPNBAHC@@
CONST	SEGMENT
??_C@_00CNPNBAHC@@ DB 00H				; `string'
CONST	ENDS
;	COMDAT ??_C@_02DPKJAMEF@?$CFd@
CONST	SEGMENT
??_C@_02DPKJAMEF@?$CFd@ DB '%d', 00H			; `string'
CONST	ENDS
;	COMDAT xdata$x
xdata$x	SEGMENT
__unwindtable$??$?0U?$pair@HH@std@@@?$_Tree_temp_node@V?$allocator@U?$_Tree_node@U?$pair@$$CBHH@std@@PAX@std@@@std@@@std@@QAE@AAV?$allocator@U?$_Tree_node@U?$pair@$$CBHH@std@@PAX@std@@@1@PAU?$_Tree_node@U?$pair@$$CBHH@std@@PAX@1@$$QAU?$pair@HH@1@@Z DD 0ffffffffH
	DD	FLAT:__unwindfunclet$??$?0U?$pair@HH@std@@@?$_Tree_temp_node@V?$allocator@U?$_Tree_node@U?$pair@$$CBHH@std@@PAX@std@@@std@@@std@@QAE@AAV?$allocator@U?$_Tree_node@U?$pair@$$CBHH@std@@PAX@std@@@1@PAU?$_Tree_node@U?$pair@$$CBHH@std@@PAX@1@$$QAU?$pair@HH@1@@Z$1
__ehfuncinfo$??$?0U?$pair@HH@std@@@?$_Tree_temp_node@V?$allocator@U?$_Tree_node@U?$pair@$$CBHH@std@@PAX@std@@@std@@@std@@QAE@AAV?$allocator@U?$_Tree_node@U?$pair@$$CBHH@std@@PAX@std@@@1@PAU?$_Tree_node@U?$pair@$$CBHH@std@@PAX@1@$$QAU?$pair@HH@1@@Z DD 019930522H
	DD	01H
	DD	FLAT:__unwindtable$??$?0U?$pair@HH@std@@@?$_Tree_temp_node@V?$allocator@U?$_Tree_node@U?$pair@$$CBHH@std@@PAX@std@@@std@@@std@@QAE@AAV?$allocator@U?$_Tree_node@U?$pair@$$CBHH@std@@PAX@std@@@1@PAU?$_Tree_node@U?$pair@$$CBHH@std@@PAX@1@$$QAU?$pair@HH@1@@Z
	DD	2 DUP(00H)
	DD	2 DUP(00H)
	DD	00H
	DD	01H
xdata$x	ENDS
;	COMDAT xdata$x
xdata$x	SEGMENT
__unwindtable$??0?$_Tree_temp_node_alloc@V?$allocator@U?$_Tree_node@U?$pair@$$CBHH@std@@PAX@std@@@std@@@std@@QAE@AAV?$allocator@U?$_Tree_node@U?$pair@$$CBHH@std@@PAX@std@@@1@@Z DD 0ffffffffH
	DD	FLAT:__unwindfunclet$??0?$_Tree_temp_node_alloc@V?$allocator@U?$_Tree_node@U?$pair@$$CBHH@std@@PAX@std@@@std@@@std@@QAE@AAV?$allocator@U?$_Tree_node@U?$pair@$$CBHH@std@@PAX@std@@@1@@Z$0
__ehfuncinfo$??0?$_Tree_temp_node_alloc@V?$allocator@U?$_Tree_node@U?$pair@$$CBHH@std@@PAX@std@@@std@@@std@@QAE@AAV?$allocator@U?$_Tree_node@U?$pair@$$CBHH@std@@PAX@std@@@1@@Z DD 019930522H
	DD	01H
	DD	FLAT:__unwindtable$??0?$_Tree_temp_node_alloc@V?$allocator@U?$_Tree_node@U?$pair@$$CBHH@std@@PAX@std@@@std@@@std@@QAE@AAV?$allocator@U?$_Tree_node@U?$pair@$$CBHH@std@@PAX@std@@@1@@Z
	DD	2 DUP(00H)
	DD	2 DUP(00H)
	DD	00H
	DD	01H
xdata$x	ENDS
;	COMDAT xdata$x
xdata$x	SEGMENT
__unwindtable$??$?0U?$pair@HPAVCSecretRoomContinent@@@std@@@?$_Tree_temp_node@V?$allocator@U?$_Tree_node@U?$pair@$$CBEPAVCSecretRoomContinent@@@std@@PAX@std@@@std@@@std@@QAE@AAV?$allocator@U?$_Tree_node@U?$pair@$$CBEPAVCSecretRoomContinent@@@std@@PAX@std@@@1@PAU?$_Tree_node@U?$pair@$$CBEPAVCSecretRoomContinent@@@std@@PAX@1@$$QAU?$pair@HPAVCSecretRoomContinent@@@1@@Z DD 0ffffffffH
	DD	FLAT:__unwindfunclet$??$?0U?$pair@HPAVCSecretRoomContinent@@@std@@@?$_Tree_temp_node@V?$allocator@U?$_Tree_node@U?$pair@$$CBEPAVCSecretRoomContinent@@@std@@PAX@std@@@std@@@std@@QAE@AAV?$allocator@U?$_Tree_node@U?$pair@$$CBEPAVCSecretRoomContinent@@@std@@PAX@std@@@1@PAU?$_Tree_node@U?$pair@$$CBEPAVCSecretRoomContinent@@@std@@PAX@1@$$QAU?$pair@HPAVCSecretRoomContinent@@@1@@Z$1
__ehfuncinfo$??$?0U?$pair@HPAVCSecretRoomContinent@@@std@@@?$_Tree_temp_node@V?$allocator@U?$_Tree_node@U?$pair@$$CBEPAVCSecretRoomContinent@@@std@@PAX@std@@@std@@@std@@QAE@AAV?$allocator@U?$_Tree_node@U?$pair@$$CBEPAVCSecretRoomContinent@@@std@@PAX@std@@@1@PAU?$_Tree_node@U?$pair@$$CBEPAVCSecretRoomContinent@@@std@@PAX@1@$$QAU?$pair@HPAVCSecretRoomContinent@@@1@@Z DD 019930522H
	DD	01H
	DD	FLAT:__unwindtable$??$?0U?$pair@HPAVCSecretRoomContinent@@@std@@@?$_Tree_temp_node@V?$allocator@U?$_Tree_node@U?$pair@$$CBEPAVCSecretRoomContinent@@@std@@PAX@std@@@std@@@std@@QAE@AAV?$allocator@U?$_Tree_node@U?$pair@$$CBEPAVCSecretRoomContinent@@@std@@PAX@std@@@1@PAU?$_Tree_node@U?$pair@$$CBEPAVCSecretRoomContinent@@@std@@PAX@1@$$QAU?$pair@HPAVCSecretRoomContinent@@@1@@Z
	DD	2 DUP(00H)
	DD	2 DUP(00H)
	DD	00H
	DD	01H
xdata$x	ENDS
;	COMDAT xdata$x
xdata$x	SEGMENT
__unwindtable$??0?$_Tree_temp_node_alloc@V?$allocator@U?$_Tree_node@U?$pair@$$CBEPAVCSecretRoomContinent@@@std@@PAX@std@@@std@@@std@@QAE@AAV?$allocator@U?$_Tree_node@U?$pair@$$CBEPAVCSecretRoomContinent@@@std@@PAX@std@@@1@@Z DD 0ffffffffH
	DD	FLAT:__unwindfunclet$??0?$_Tree_temp_node_alloc@V?$allocator@U?$_Tree_node@U?$pair@$$CBEPAVCSecretRoomContinent@@@std@@PAX@std@@@std@@@std@@QAE@AAV?$allocator@U?$_Tree_node@U?$pair@$$CBEPAVCSecretRoomContinent@@@std@@PAX@std@@@1@@Z$0
__ehfuncinfo$??0?$_Tree_temp_node_alloc@V?$allocator@U?$_Tree_node@U?$pair@$$CBEPAVCSecretRoomContinent@@@std@@PAX@std@@@std@@@std@@QAE@AAV?$allocator@U?$_Tree_node@U?$pair@$$CBEPAVCSecretRoomContinent@@@std@@PAX@std@@@1@@Z DD 019930522H
	DD	01H
	DD	FLAT:__unwindtable$??0?$_Tree_temp_node_alloc@V?$allocator@U?$_Tree_node@U?$pair@$$CBEPAVCSecretRoomContinent@@@std@@PAX@std@@@std@@@std@@QAE@AAV?$allocator@U?$_Tree_node@U?$pair@$$CBEPAVCSecretRoomContinent@@@std@@PAX@std@@@1@@Z
	DD	2 DUP(00H)
	DD	2 DUP(00H)
	DD	00H
	DD	01H
xdata$x	ENDS
;	COMDAT xdata$x
xdata$x	SEGMENT
__unwindtable$??$_Emplace_reallocate@ABU__SECRETROOM_TENDER@@@?$vector@U__SECRETROOM_TENDER@@V?$allocator@U__SECRETROOM_TENDER@@@std@@@std@@AAEPAU__SECRETROOM_TENDER@@QAU2@ABU2@@Z DD 0ffffffffH
	DD	FLAT:__unwindfunclet$??$_Emplace_reallocate@ABU__SECRETROOM_TENDER@@@?$vector@U__SECRETROOM_TENDER@@V?$allocator@U__SECRETROOM_TENDER@@@std@@@std@@AAEPAU__SECRETROOM_TENDER@@QAU2@ABU2@@Z$0
__ehfuncinfo$??$_Emplace_reallocate@ABU__SECRETROOM_TENDER@@@?$vector@U__SECRETROOM_TENDER@@V?$allocator@U__SECRETROOM_TENDER@@@std@@@std@@AAEPAU__SECRETROOM_TENDER@@QAU2@ABU2@@Z DD 019930522H
	DD	01H
	DD	FLAT:__unwindtable$??$_Emplace_reallocate@ABU__SECRETROOM_TENDER@@@?$vector@U__SECRETROOM_TENDER@@V?$allocator@U__SECRETROOM_TENDER@@@std@@@std@@AAEPAU__SECRETROOM_TENDER@@QAU2@ABU2@@Z
	DD	2 DUP(00H)
	DD	2 DUP(00H)
	DD	00H
	DD	01H
xdata$x	ENDS
;	COMDAT xdata$x
xdata$x	SEGMENT
__unwindtable$??$_Emplace@U?$pair@HH@std@@@?$_Tree@V?$_Tmap_traits@HHU?$less@H@std@@V?$allocator@U?$pair@$$CBHH@std@@@2@$0A@@std@@@std@@IAE?AU?$pair@PAU?$_Tree_node@U?$pair@$$CBHH@std@@PAX@std@@_N@1@$$QAU?$pair@HH@1@@Z DD 0ffffffffH
	DD	FLAT:__unwindfunclet$??$_Emplace@U?$pair@HH@std@@@?$_Tree@V?$_Tmap_traits@HHU?$less@H@std@@V?$allocator@U?$pair@$$CBHH@std@@@2@$0A@@std@@@std@@IAE?AU?$pair@PAU?$_Tree_node@U?$pair@$$CBHH@std@@PAX@std@@_N@1@$$QAU?$pair@HH@1@@Z$2
__ehfuncinfo$??$_Emplace@U?$pair@HH@std@@@?$_Tree@V?$_Tmap_traits@HHU?$less@H@std@@V?$allocator@U?$pair@$$CBHH@std@@@2@$0A@@std@@@std@@IAE?AU?$pair@PAU?$_Tree_node@U?$pair@$$CBHH@std@@PAX@std@@_N@1@$$QAU?$pair@HH@1@@Z DD 019930522H
	DD	01H
	DD	FLAT:__unwindtable$??$_Emplace@U?$pair@HH@std@@@?$_Tree@V?$_Tmap_traits@HHU?$less@H@std@@V?$allocator@U?$pair@$$CBHH@std@@@2@$0A@@std@@@std@@IAE?AU?$pair@PAU?$_Tree_node@U?$pair@$$CBHH@std@@PAX@std@@_N@1@$$QAU?$pair@HH@1@@Z
	DD	2 DUP(00H)
	DD	2 DUP(00H)
	DD	00H
	DD	01H
xdata$x	ENDS
;	COMDAT xdata$x
xdata$x	SEGMENT
__unwindtable$??$_Emplace@U?$pair@HPAVCSecretRoomContinent@@@std@@@?$_Tree@V?$_Tmap_traits@EPAVCSecretRoomContinent@@U?$less@E@std@@V?$allocator@U?$pair@$$CBEPAVCSecretRoomContinent@@@std@@@3@$0A@@std@@@std@@IAE?AU?$pair@PAU?$_Tree_node@U?$pair@$$CBEPAVCSecretRoomContinent@@@std@@PAX@std@@_N@1@$$QAU?$pair@HPAVCSecretRoomContinent@@@1@@Z DD 0ffffffffH
	DD	FLAT:__unwindfunclet$??$_Emplace@U?$pair@HPAVCSecretRoomContinent@@@std@@@?$_Tree@V?$_Tmap_traits@EPAVCSecretRoomContinent@@U?$less@E@std@@V?$allocator@U?$pair@$$CBEPAVCSecretRoomContinent@@@std@@@3@$0A@@std@@@std@@IAE?AU?$pair@PAU?$_Tree_node@U?$pair@$$CBEPAVCSecretRoomContinent@@@std@@PAX@std@@_N@1@$$QAU?$pair@HPAVCSecretRoomContinent@@@1@@Z$2
	DD	0ffffffffH
	DD	FLAT:__unwindfunclet$??$_Emplace@U?$pair@HPAVCSecretRoomContinent@@@std@@@?$_Tree@V?$_Tmap_traits@EPAVCSecretRoomContinent@@U?$less@E@std@@V?$allocator@U?$pair@$$CBEPAVCSecretRoomContinent@@@std@@@3@$0A@@std@@@std@@IAE?AU?$pair@PAU?$_Tree_node@U?$pair@$$CBEPAVCSecretRoomContinent@@@std@@PAX@std@@_N@1@$$QAU?$pair@HPAVCSecretRoomContinent@@@1@@Z$0
__ehfuncinfo$??$_Emplace@U?$pair@HPAVCSecretRoomContinent@@@std@@@?$_Tree@V?$_Tmap_traits@EPAVCSecretRoomContinent@@U?$less@E@std@@V?$allocator@U?$pair@$$CBEPAVCSecretRoomContinent@@@std@@@3@$0A@@std@@@std@@IAE?AU?$pair@PAU?$_Tree_node@U?$pair@$$CBEPAVCSecretRoomContinent@@@std@@PAX@std@@_N@1@$$QAU?$pair@HPAVCSecretRoomContinent@@@1@@Z DD 019930522H
	DD	02H
	DD	FLAT:__unwindtable$??$_Emplace@U?$pair@HPAVCSecretRoomContinent@@@std@@@?$_Tree@V?$_Tmap_traits@EPAVCSecretRoomContinent@@U?$less@E@std@@V?$allocator@U?$pair@$$CBEPAVCSecretRoomContinent@@@std@@@3@$0A@@std@@@std@@IAE?AU?$pair@PAU?$_Tree_node@U?$pair@$$CBEPAVCSecretRoomContinent@@@std@@PAX@std@@_N@1@$$QAU?$pair@HPAVCSecretRoomContinent@@@1@@Z
	DD	2 DUP(00H)
	DD	2 DUP(00H)
	DD	00H
	DD	01H
xdata$x	ENDS
;	COMDAT xdata$x
xdata$x	SEGMENT
__unwindtable$??$emplace@U?$pair@HH@std@@@?$_Tree@V?$_Tmap_traits@HHU?$less@H@std@@V?$allocator@U?$pair@$$CBHH@std@@@2@$0A@@std@@@std@@QAE?AU?$pair@V?$_Tree_iterator@V?$_Tree_val@U?$_Tree_simple_types@U?$pair@$$CBHH@std@@@std@@@std@@@std@@_N@1@$$QAU?$pair@HH@1@@Z DD 0ffffffffH
	DD	FLAT:__unwindfunclet$??$emplace@U?$pair@HH@std@@@?$_Tree@V?$_Tmap_traits@HHU?$less@H@std@@V?$allocator@U?$pair@$$CBHH@std@@@2@$0A@@std@@@std@@QAE?AU?$pair@V?$_Tree_iterator@V?$_Tree_val@U?$_Tree_simple_types@U?$pair@$$CBHH@std@@@std@@@std@@@std@@_N@1@$$QAU?$pair@HH@1@@Z$2
__ehfuncinfo$??$emplace@U?$pair@HH@std@@@?$_Tree@V?$_Tmap_traits@HHU?$less@H@std@@V?$allocator@U?$pair@$$CBHH@std@@@2@$0A@@std@@@std@@QAE?AU?$pair@V?$_Tree_iterator@V?$_Tree_val@U?$_Tree_simple_types@U?$pair@$$CBHH@std@@@std@@@std@@@std@@_N@1@$$QAU?$pair@HH@1@@Z DD 019930522H
	DD	01H
	DD	FLAT:__unwindtable$??$emplace@U?$pair@HH@std@@@?$_Tree@V?$_Tmap_traits@HHU?$less@H@std@@V?$allocator@U?$pair@$$CBHH@std@@@2@$0A@@std@@@std@@QAE?AU?$pair@V?$_Tree_iterator@V?$_Tree_val@U?$_Tree_simple_types@U?$pair@$$CBHH@std@@@std@@@std@@@std@@_N@1@$$QAU?$pair@HH@1@@Z
	DD	2 DUP(00H)
	DD	2 DUP(00H)
	DD	00H
	DD	01H
xdata$x	ENDS
;	COMDAT xdata$x
xdata$x	SEGMENT
__unwindtable$??$emplace@U?$pair@HPAVCSecretRoomContinent@@@std@@@?$_Tree@V?$_Tmap_traits@EPAVCSecretRoomContinent@@U?$less@E@std@@V?$allocator@U?$pair@$$CBEPAVCSecretRoomContinent@@@std@@@3@$0A@@std@@@std@@QAE?AU?$pair@V?$_Tree_iterator@V?$_Tree_val@U?$_Tree_simple_types@U?$pair@$$CBEPAVCSecretRoomContinent@@@std@@@std@@@std@@@std@@_N@1@$$QAU?$pair@HPAVCSecretRoomContinent@@@1@@Z DD 0ffffffffH
	DD	FLAT:__unwindfunclet$??$emplace@U?$pair@HPAVCSecretRoomContinent@@@std@@@?$_Tree@V?$_Tmap_traits@EPAVCSecretRoomContinent@@U?$less@E@std@@V?$allocator@U?$pair@$$CBEPAVCSecretRoomContinent@@@std@@@3@$0A@@std@@@std@@QAE?AU?$pair@V?$_Tree_iterator@V?$_Tree_val@U?$_Tree_simple_types@U?$pair@$$CBEPAVCSecretRoomContinent@@@std@@@std@@@std@@@std@@_N@1@$$QAU?$pair@HPAVCSecretRoomContinent@@@1@@Z$2
	DD	0ffffffffH
	DD	FLAT:__unwindfunclet$??$emplace@U?$pair@HPAVCSecretRoomContinent@@@std@@@?$_Tree@V?$_Tmap_traits@EPAVCSecretRoomContinent@@U?$less@E@std@@V?$allocator@U?$pair@$$CBEPAVCSecretRoomContinent@@@std@@@3@$0A@@std@@@std@@QAE?AU?$pair@V?$_Tree_iterator@V?$_Tree_val@U?$_Tree_simple_types@U?$pair@$$CBEPAVCSecretRoomContinent@@@std@@@std@@@std@@@std@@_N@1@$$QAU?$pair@HPAVCSecretRoomContinent@@@1@@Z$0
__ehfuncinfo$??$emplace@U?$pair@HPAVCSecretRoomContinent@@@std@@@?$_Tree@V?$_Tmap_traits@EPAVCSecretRoomContinent@@U?$less@E@std@@V?$allocator@U?$pair@$$CBEPAVCSecretRoomContinent@@@std@@@3@$0A@@std@@@std@@QAE?AU?$pair@V?$_Tree_iterator@V?$_Tree_val@U?$_Tree_simple_types@U?$pair@$$CBEPAVCSecretRoomContinent@@@std@@@std@@@std@@@std@@_N@1@$$QAU?$pair@HPAVCSecretRoomContinent@@@1@@Z DD 019930522H
	DD	02H
	DD	FLAT:__unwindtable$??$emplace@U?$pair@HPAVCSecretRoomContinent@@@std@@@?$_Tree@V?$_Tmap_traits@EPAVCSecretRoomContinent@@U?$less@E@std@@V?$allocator@U?$pair@$$CBEPAVCSecretRoomContinent@@@std@@@3@$0A@@std@@@std@@QAE?AU?$pair@V?$_Tree_iterator@V?$_Tree_val@U?$_Tree_simple_types@U?$pair@$$CBEPAVCSecretRoomContinent@@@std@@@std@@@std@@@std@@_N@1@$$QAU?$pair@HPAVCSecretRoomContinent@@@1@@Z
	DD	2 DUP(00H)
	DD	2 DUP(00H)
	DD	00H
	DD	01H
xdata$x	ENDS
;	COMDAT xdata$x
xdata$x	SEGMENT
__unwindtable$??$insert@U?$pair@HH@std@@$0A@@?$map@HHU?$less@H@std@@V?$allocator@U?$pair@$$CBHH@std@@@2@@std@@QAE?AU?$pair@V?$_Tree_iterator@V?$_Tree_val@U?$_Tree_simple_types@U?$pair@$$CBHH@std@@@std@@@std@@@std@@_N@1@$$QAU?$pair@HH@1@@Z DD 0ffffffffH
	DD	FLAT:__unwindfunclet$??$insert@U?$pair@HH@std@@$0A@@?$map@HHU?$less@H@std@@V?$allocator@U?$pair@$$CBHH@std@@@2@@std@@QAE?AU?$pair@V?$_Tree_iterator@V?$_Tree_val@U?$_Tree_simple_types@U?$pair@$$CBHH@std@@@std@@@std@@@std@@_N@1@$$QAU?$pair@HH@1@@Z$2
__ehfuncinfo$??$insert@U?$pair@HH@std@@$0A@@?$map@HHU?$less@H@std@@V?$allocator@U?$pair@$$CBHH@std@@@2@@std@@QAE?AU?$pair@V?$_Tree_iterator@V?$_Tree_val@U?$_Tree_simple_types@U?$pair@$$CBHH@std@@@std@@@std@@@std@@_N@1@$$QAU?$pair@HH@1@@Z DD 019930522H
	DD	01H
	DD	FLAT:__unwindtable$??$insert@U?$pair@HH@std@@$0A@@?$map@HHU?$less@H@std@@V?$allocator@U?$pair@$$CBHH@std@@@2@@std@@QAE?AU?$pair@V?$_Tree_iterator@V?$_Tree_val@U?$_Tree_simple_types@U?$pair@$$CBHH@std@@@std@@@std@@@std@@_N@1@$$QAU?$pair@HH@1@@Z
	DD	2 DUP(00H)
	DD	2 DUP(00H)
	DD	00H
	DD	01H
xdata$x	ENDS
;	COMDAT xdata$x
xdata$x	SEGMENT
__unwindtable$??$insert@U?$pair@HPAVCSecretRoomContinent@@@std@@$0A@@?$map@EPAVCSecretRoomContinent@@U?$less@E@std@@V?$allocator@U?$pair@$$CBEPAVCSecretRoomContinent@@@std@@@3@@std@@QAE?AU?$pair@V?$_Tree_iterator@V?$_Tree_val@U?$_Tree_simple_types@U?$pair@$$CBEPAVCSecretRoomContinent@@@std@@@std@@@std@@@std@@_N@1@$$QAU?$pair@HPAVCSecretRoomContinent@@@1@@Z DD 0ffffffffH
	DD	FLAT:__unwindfunclet$??$insert@U?$pair@HPAVCSecretRoomContinent@@@std@@$0A@@?$map@EPAVCSecretRoomContinent@@U?$less@E@std@@V?$allocator@U?$pair@$$CBEPAVCSecretRoomContinent@@@std@@@3@@std@@QAE?AU?$pair@V?$_Tree_iterator@V?$_Tree_val@U?$_Tree_simple_types@U?$pair@$$CBEPAVCSecretRoomContinent@@@std@@@std@@@std@@@std@@_N@1@$$QAU?$pair@HPAVCSecretRoomContinent@@@1@@Z$2
	DD	0ffffffffH
	DD	FLAT:__unwindfunclet$??$insert@U?$pair@HPAVCSecretRoomContinent@@@std@@$0A@@?$map@EPAVCSecretRoomContinent@@U?$less@E@std@@V?$allocator@U?$pair@$$CBEPAVCSecretRoomContinent@@@std@@@3@@std@@QAE?AU?$pair@V?$_Tree_iterator@V?$_Tree_val@U?$_Tree_simple_types@U?$pair@$$CBEPAVCSecretRoomContinent@@@std@@@std@@@std@@@std@@_N@1@$$QAU?$pair@HPAVCSecretRoomContinent@@@1@@Z$0
__ehfuncinfo$??$insert@U?$pair@HPAVCSecretRoomContinent@@@std@@$0A@@?$map@EPAVCSecretRoomContinent@@U?$less@E@std@@V?$allocator@U?$pair@$$CBEPAVCSecretRoomContinent@@@std@@@3@@std@@QAE?AU?$pair@V?$_Tree_iterator@V?$_Tree_val@U?$_Tree_simple_types@U?$pair@$$CBEPAVCSecretRoomContinent@@@std@@@std@@@std@@@std@@_N@1@$$QAU?$pair@HPAVCSecretRoomContinent@@@1@@Z DD 019930522H
	DD	02H
	DD	FLAT:__unwindtable$??$insert@U?$pair@HPAVCSecretRoomContinent@@@std@@$0A@@?$map@EPAVCSecretRoomContinent@@U?$less@E@std@@V?$allocator@U?$pair@$$CBEPAVCSecretRoomContinent@@@std@@@3@@std@@QAE?AU?$pair@V?$_Tree_iterator@V?$_Tree_val@U?$_Tree_simple_types@U?$pair@$$CBEPAVCSecretRoomContinent@@@std@@@std@@@std@@@std@@_N@1@$$QAU?$pair@HPAVCSecretRoomContinent@@@1@@Z
	DD	2 DUP(00H)
	DD	2 DUP(00H)
	DD	00H
	DD	01H
xdata$x	ENDS
;	COMDAT xdata$x
xdata$x	SEGMENT
__unwindtable$?SetSecretRoomContKill@CSecretRoomContinent@@QAEXKKH@Z DD 0ffffffffH
	DD	FLAT:__unwindfunclet$?SetSecretRoomContKill@CSecretRoomContinent@@QAEXKKH@Z$0
	DD	00H
	DD	FLAT:__unwindfunclet$?SetSecretRoomContKill@CSecretRoomContinent@@QAEXKKH@Z$1
__ehfuncinfo$?SetSecretRoomContKill@CSecretRoomContinent@@QAEXKKH@Z DD 019930522H
	DD	02H
	DD	FLAT:__unwindtable$?SetSecretRoomContKill@CSecretRoomContinent@@QAEXKKH@Z
	DD	2 DUP(00H)
	DD	2 DUP(00H)
	DD	00H
	DD	01H
xdata$x	ENDS
;	COMDAT xdata$x
xdata$x	SEGMENT
__unwindtable$?SecretRoomContOpen@CSecretRoomContinent@@QAEXXZ DD 0ffffffffH
	DD	FLAT:__unwindfunclet$?SecretRoomContOpen@CSecretRoomContinent@@QAEXXZ$0
__ehfuncinfo$?SecretRoomContOpen@CSecretRoomContinent@@QAEXXZ DD 019930522H
	DD	01H
	DD	FLAT:__unwindtable$?SecretRoomContOpen@CSecretRoomContinent@@QAEXXZ
	DD	2 DUP(00H)
	DD	2 DUP(00H)
	DD	00H
	DD	01H
xdata$x	ENDS
;	COMDAT xdata$x
xdata$x	SEGMENT
__unwindtable$?SetContLineUp@CSecretRoomContinent@@QAEXPAVCUser@@V?$vector@KV?$allocator@K@std@@@std@@@Z DD 0ffffffffH
	DD	FLAT:__unwindfunclet$?SetContLineUp@CSecretRoomContinent@@QAEXPAVCUser@@V?$vector@KV?$allocator@K@std@@@std@@@Z$0
__ehfuncinfo$?SetContLineUp@CSecretRoomContinent@@QAEXPAVCUser@@V?$vector@KV?$allocator@K@std@@@std@@@Z DD 019930522H
	DD	01H
	DD	FLAT:__unwindtable$?SetContLineUp@CSecretRoomContinent@@QAEXPAVCUser@@V?$vector@KV?$allocator@K@std@@@std@@@Z
	DD	2 DUP(00H)
	DD	2 DUP(00H)
	DD	00H
	DD	01H
xdata$x	ENDS
;	COMDAT xdata$x
xdata$x	SEGMENT
__unwindtable$?SetContTenderCancelReturn@CSecretRoomContinent@@QAEXPAVCUser@@@Z DD 0ffffffffH
	DD	FLAT:__unwindfunclet$?SetContTenderCancelReturn@CSecretRoomContinent@@QAEXPAVCUser@@@Z$0
__ehfuncinfo$?SetContTenderCancelReturn@CSecretRoomContinent@@QAEXPAVCUser@@@Z DD 019930522H
	DD	01H
	DD	FLAT:__unwindtable$?SetContTenderCancelReturn@CSecretRoomContinent@@QAEXPAVCUser@@@Z
	DD	2 DUP(00H)
	DD	2 DUP(00H)
	DD	00H
	DD	01H
xdata$x	ENDS
;	COMDAT xdata$x
xdata$x	SEGMENT
__unwindtable$?SortTenderGuild@CSecretRoomContinent@@QAEXXZ DD 0ffffffffH
	DD	FLAT:__unwindfunclet$?SortTenderGuild@CSecretRoomContinent@@QAEXXZ$1
	DD	0ffffffffH
	DD	FLAT:__unwindfunclet$?SortTenderGuild@CSecretRoomContinent@@QAEXXZ$0
__ehfuncinfo$?SortTenderGuild@CSecretRoomContinent@@QAEXXZ DD 019930522H
	DD	02H
	DD	FLAT:__unwindtable$?SortTenderGuild@CSecretRoomContinent@@QAEXXZ
	DD	2 DUP(00H)
	DD	2 DUP(00H)
	DD	00H
	DD	01H
xdata$x	ENDS
;	COMDAT xdata$x
xdata$x	SEGMENT
__unwindtable$?SetContTender@CSecretRoomContinent@@QAEXPAVCUser@@H@Z DD 0ffffffffH
	DD	FLAT:__unwindfunclet$?SetContTender@CSecretRoomContinent@@QAEXPAVCUser@@H@Z$0
__ehfuncinfo$?SetContTender@CSecretRoomContinent@@QAEXPAVCUser@@H@Z DD 019930522H
	DD	01H
	DD	FLAT:__unwindtable$?SetContTender@CSecretRoomContinent@@QAEXPAVCUser@@H@Z
	DD	2 DUP(00H)
	DD	2 DUP(00H)
	DD	00H
	DD	01H
xdata$x	ENDS
;	COMDAT xdata$x
xdata$x	SEGMENT
__unwindtable$?Process@CSecretRoomContinent@@QAEXK@Z DD 0ffffffffH
	DD	FLAT:__unwindfunclet$?Process@CSecretRoomContinent@@QAEXK@Z$0
	DD	00H
	DD	FLAT:__unwindfunclet$?Process@CSecretRoomContinent@@QAEXK@Z$1
__ehfuncinfo$?Process@CSecretRoomContinent@@QAEXK@Z DD 019930522H
	DD	02H
	DD	FLAT:__unwindtable$?Process@CSecretRoomContinent@@QAEXK@Z
	DD	2 DUP(00H)
	DD	2 DUP(00H)
	DD	00H
	DD	01H
xdata$x	ENDS
;	COMDAT xdata$x
xdata$x	SEGMENT
__unwindtable$?SetTeleportSecretRoom@CSecretRoomMng@@QAEXPAVCUser@@@Z DD 0ffffffffH
	DD	FLAT:__unwindfunclet$?SetTeleportSecretRoom@CSecretRoomMng@@QAEXPAVCUser@@@Z$0
__ehfuncinfo$?SetTeleportSecretRoom@CSecretRoomMng@@QAEXPAVCUser@@@Z DD 019930522H
	DD	01H
	DD	FLAT:__unwindtable$?SetTeleportSecretRoom@CSecretRoomMng@@QAEXPAVCUser@@@Z
	DD	2 DUP(00H)
	DD	2 DUP(00H)
	DD	00H
	DD	01H
xdata$x	ENDS
;	COMDAT xdata$x
xdata$x	SEGMENT
__unwindtable$?SecretRoomOpen@CSecretRoomMng@@QAEXXZ DD 0ffffffffH
	DD	FLAT:__unwindfunclet$?SecretRoomOpen@CSecretRoomMng@@QAEXXZ$0
	DD	00H
	DD	FLAT:__unwindfunclet$?SecretRoomOpen@CSecretRoomMng@@QAEXXZ$1
__ehfuncinfo$?SecretRoomOpen@CSecretRoomMng@@QAEXXZ DD 019930522H
	DD	02H
	DD	FLAT:__unwindtable$?SecretRoomOpen@CSecretRoomMng@@QAEXXZ
	DD	2 DUP(00H)
	DD	2 DUP(00H)
	DD	00H
	DD	01H
xdata$x	ENDS
;	COMDAT xdata$x
xdata$x	SEGMENT
__unwindtable$?SetLineUp@CSecretRoomMng@@QAEXPAVCUser@@V?$vector@KV?$allocator@K@std@@@std@@@Z DD 0ffffffffH
	DD	FLAT:__unwindfunclet$?SetLineUp@CSecretRoomMng@@QAEXPAVCUser@@V?$vector@KV?$allocator@K@std@@@std@@@Z$0
	DD	00H
	DD	FLAT:__unwindfunclet$?SetLineUp@CSecretRoomMng@@QAEXPAVCUser@@V?$vector@KV?$allocator@K@std@@@std@@@Z$2
__ehfuncinfo$?SetLineUp@CSecretRoomMng@@QAEXPAVCUser@@V?$vector@KV?$allocator@K@std@@@std@@@Z DD 019930522H
	DD	02H
	DD	FLAT:__unwindtable$?SetLineUp@CSecretRoomMng@@QAEXPAVCUser@@V?$vector@KV?$allocator@K@std@@@std@@@Z
	DD	2 DUP(00H)
	DD	2 DUP(00H)
	DD	00H
	DD	01H
xdata$x	ENDS
;	COMDAT xdata$x
xdata$x	SEGMENT
__unwindtable$?SetLineUpOpenWnd@CSecretRoomMng@@QAEXPAVCUser@@@Z DD 0ffffffffH
	DD	FLAT:__unwindfunclet$?SetLineUpOpenWnd@CSecretRoomMng@@QAEXPAVCUser@@@Z$0
	DD	0ffffffffH
	DD	FLAT:__unwindfunclet$?SetLineUpOpenWnd@CSecretRoomMng@@QAEXPAVCUser@@@Z$1
__ehfuncinfo$?SetLineUpOpenWnd@CSecretRoomMng@@QAEXPAVCUser@@@Z DD 019930522H
	DD	02H
	DD	FLAT:__unwindtable$?SetLineUpOpenWnd@CSecretRoomMng@@QAEXPAVCUser@@@Z
	DD	2 DUP(00H)
	DD	2 DUP(00H)
	DD	00H
	DD	01H
xdata$x	ENDS
;	COMDAT xdata$x
xdata$x	SEGMENT
__unwindtable$?GetInstance@CSecretRoomMng@@SAPAV1@XZ DD 0ffffffffH
	DD	FLAT:__unwindfunclet$?GetInstance@CSecretRoomMng@@SAPAV1@XZ$0
__ehfuncinfo$?GetInstance@CSecretRoomMng@@SAPAV1@XZ DD 019930522H
	DD	01H
	DD	FLAT:__unwindtable$?GetInstance@CSecretRoomMng@@SAPAV1@XZ
	DD	2 DUP(00H)
	DD	2 DUP(00H)
	DD	00H
	DD	01H
xdata$x	ENDS
;	COMDAT xdata$x
xdata$x	SEGMENT
__ehfuncinfo$??0CSecretRoomMng@@QAE@XZ DD 019930522H
	DD	06H
	DD	FLAT:__unwindtable$??0CSecretRoomMng@@QAE@XZ
	DD	2 DUP(00H)
	DD	2 DUP(00H)
	DD	00H
	DD	01H
__unwindtable$??0CSecretRoomMng@@QAE@XZ DD 0ffffffffH
	DD	FLAT:__unwindfunclet$??0CSecretRoomMng@@QAE@XZ$0
	DD	00H
	DD	FLAT:__unwindfunclet$??0CSecretRoomMng@@QAE@XZ$1
	DD	01H
	DD	FLAT:__unwindfunclet$??0CSecretRoomMng@@QAE@XZ$2
	DD	02H
	DD	FLAT:__unwindfunclet$??0CSecretRoomMng@@QAE@XZ$3
	DD	03H
	DD	FLAT:__unwindfunclet$??0CSecretRoomMng@@QAE@XZ$4
	DD	04H
	DD	FLAT:__unwindfunclet$??0CSecretRoomMng@@QAE@XZ$5
xdata$x	ENDS
;	COMDAT xdata$x
xdata$x	SEGMENT
__unwindtable$??0__SECRETROOM_TENDER@@QAE@ABU0@@Z DD 0ffffffffH
	DD	FLAT:__unwindfunclet$??0__SECRETROOM_TENDER@@QAE@ABU0@@Z$0
__ehfuncinfo$??0__SECRETROOM_TENDER@@QAE@ABU0@@Z DD 019930522H
	DD	01H
	DD	FLAT:__unwindtable$??0__SECRETROOM_TENDER@@QAE@ABU0@@Z
	DD	2 DUP(00H)
	DD	2 DUP(00H)
	DD	00H
	DD	01H
xdata$x	ENDS
;	COMDAT xdata$x
xdata$x	SEGMENT
__unwindtable$?FormatV@?$CStringT@DV?$StrTraitMFC@DV?$ChTraitsCRT@D@ATL@@@@@ATL@@QAEXPBDPAD@Z DD 0ffffffffH
	DD	FLAT:__unwindfunclet$?FormatV@?$CStringT@DV?$StrTraitMFC@DV?$ChTraitsCRT@D@ATL@@@@@ATL@@QAEXPBDPAD@Z$1
	DD	0ffffffffH
	DD	FLAT:__unwindfunclet$?FormatV@?$CStringT@DV?$StrTraitMFC@DV?$ChTraitsCRT@D@ATL@@@@@ATL@@QAEXPBDPAD@Z$0
__ehfuncinfo$?FormatV@?$CStringT@DV?$StrTraitMFC@DV?$ChTraitsCRT@D@ATL@@@@@ATL@@QAEXPBDPAD@Z DD 019930522H
	DD	02H
	DD	FLAT:__unwindtable$?FormatV@?$CStringT@DV?$StrTraitMFC@DV?$ChTraitsCRT@D@ATL@@@@@ATL@@QAEXPBDPAD@Z
	DD	2 DUP(00H)
	DD	2 DUP(00H)
	DD	00H
	DD	01H
xdata$x	ENDS
;	COMDAT xdata$x
xdata$x	SEGMENT
__unwindtable$??0?$CStringT@DV?$StrTraitMFC@DV?$ChTraitsCRT@D@ATL@@@@@ATL@@QAE@PBDPAUIAtlStringMgr@1@@Z DD 0ffffffffH
	DD	FLAT:__unwindfunclet$??0?$CStringT@DV?$StrTraitMFC@DV?$ChTraitsCRT@D@ATL@@@@@ATL@@QAE@PBDPAUIAtlStringMgr@1@@Z$0
__ehfuncinfo$??0?$CStringT@DV?$StrTraitMFC@DV?$ChTraitsCRT@D@ATL@@@@@ATL@@QAE@PBDPAUIAtlStringMgr@1@@Z DD 019930522H
	DD	01H
	DD	FLAT:__unwindtable$??0?$CStringT@DV?$StrTraitMFC@DV?$ChTraitsCRT@D@ATL@@@@@ATL@@QAE@PBDPAUIAtlStringMgr@1@@Z
	DD	2 DUP(00H)
	DD	2 DUP(00H)
	DD	00H
	DD	01H
xdata$x	ENDS
; Function compile flags: /Ogtp
; File C:\Program Files\Microsoft Visual Studio\2022\Professional\VC\Tools\MSVC\14.44.35207\include\xutility
;	COMDAT ??$_Copy_memmove@PAKPAK@std@@YAPAKPAK00@Z
_TEXT	SEGMENT
__First$ = 8						; size = 4
__Last$ = 12						; size = 4
__Dest$ = 16						; size = 4
??$_Copy_memmove@PAKPAK@std@@YAPAKPAK00@Z PROC		; std::_Copy_memmove<unsigned long *,unsigned long *>, COMDAT

; 4762 : _OutCtgIt _Copy_memmove(_CtgIt _First, _CtgIt _Last, _OutCtgIt _Dest) {

  00000	55		 push	 ebp
  00001	8b ec		 mov	 ebp, esp

; 4763 :     _STL_INTERNAL_CHECK(_First <= _Last);
; 4764 :     const auto _First_ptr    = _STD _To_address(_First);
; 4765 :     const auto _Last_ptr     = _STD _To_address(_Last);
; 4766 :     const auto _Object_count = static_cast<size_t>(_Last_ptr - _First_ptr);

  00003	8b 55 08	 mov	 edx, DWORD PTR __First$[ebp]
  00006	8b 4d 0c	 mov	 ecx, DWORD PTR __Last$[ebp]
  00009	2b ca		 sub	 ecx, edx
  0000b	8b c1		 mov	 eax, ecx
  0000d	c1 f8 02	 sar	 eax, 2

; 4767 :     const auto _First_ch     = const_cast<const char*>(reinterpret_cast<const volatile char*>(_First_ptr));
; 4768 :     const auto _Last_ch      = const_cast<const char*>(reinterpret_cast<const volatile char*>(_Last_ptr));
; 4769 :     const auto _Byte_count   = static_cast<size_t>(_Last_ch - _First_ch);
; 4770 :     return _STD _Copy_memmove_tail(_First_ch, _STD move(_Dest), _Byte_count, _Object_count);

  00010	50		 push	 eax
  00011	51		 push	 ecx
  00012	ff 75 10	 push	 DWORD PTR __Dest$[ebp]
  00015	52		 push	 edx
  00016	e8 00 00 00 00	 call	 ??$_Copy_memmove_tail@PAK@std@@YAPAKQBDQAKII@Z ; std::_Copy_memmove_tail<unsigned long *>
  0001b	83 c4 10	 add	 esp, 16			; 00000010H

; 4771 : }

  0001e	5d		 pop	 ebp
  0001f	c3		 ret	 0
??$_Copy_memmove@PAKPAK@std@@YAPAKPAK00@Z ENDP		; std::_Copy_memmove<unsigned long *,unsigned long *>
_TEXT	ENDS
; Function compile flags: /Ogtp
; File C:\Program Files\Microsoft Visual Studio\2022\Professional\VC\Tools\MSVC\14.44.35207\include\xutility
;	COMDAT ??$_Copy_memmove_tail@PAK@std@@YAPAKQBDQAKII@Z
_TEXT	SEGMENT
__First_ch$ = 8						; size = 4
__Dest$ = 12						; size = 4
__Byte_count$ = 16					; size = 4
__Object_count$ = 20					; size = 4
??$_Copy_memmove_tail@PAK@std@@YAPAKQBDQAKII@Z PROC	; std::_Copy_memmove_tail<unsigned long *>, COMDAT

; 4747 :     const char* const _First_ch, const _OutCtgIt _Dest, const size_t _Byte_count, const size_t _Object_count) {

  00000	55		 push	 ebp
  00001	8b ec		 mov	 ebp, esp
  00003	56		 push	 esi

; 4748 :     _STL_INTERNAL_CHECK(_Byte_count == _Object_count * sizeof(*_Dest));
; 4749 :     const auto _Dest_ptr = _STD _To_address(_Dest);
; 4750 :     const auto _Dest_ch  = const_cast<char*>(reinterpret_cast<const volatile char*>(_Dest_ptr));
; 4751 :     _CSTD memmove(_Dest_ch, _First_ch, _Byte_count);

  00004	8b 75 0c	 mov	 esi, DWORD PTR __Dest$[ebp]
  00007	57		 push	 edi
  00008	8b 7d 10	 mov	 edi, DWORD PTR __Byte_count$[ebp]
  0000b	57		 push	 edi
  0000c	ff 75 08	 push	 DWORD PTR __First_ch$[ebp]
  0000f	56		 push	 esi
  00010	e8 00 00 00 00	 call	 _memmove
  00015	83 c4 0c	 add	 esp, 12			; 0000000cH

; 4752 :     if constexpr (is_pointer_v<_OutCtgIt>) {
; 4753 :         (void) _Object_count;
; 4754 :         // CodeQL [SM02986] This cast is correct: we're bypassing pointer arithmetic for performance.
; 4755 :         return reinterpret_cast<_OutCtgIt>(_Dest_ch + _Byte_count);

  00018	8d 04 3e	 lea	 eax, DWORD PTR [esi+edi]
  0001b	5f		 pop	 edi
  0001c	5e		 pop	 esi

; 4756 :     } else {
; 4757 :         return _Dest + static_cast<_Iter_diff_t<_OutCtgIt>>(_Object_count);
; 4758 :     }
; 4759 : }

  0001d	5d		 pop	 ebp
  0001e	c3		 ret	 0
??$_Copy_memmove_tail@PAK@std@@YAPAKQBDQAKII@Z ENDP	; std::_Copy_memmove_tail<unsigned long *>
_TEXT	ENDS
; Function compile flags: /Ogtp
; File C:\Program Files\Microsoft Visual Studio\2022\Professional\VC\Tools\MSVC\14.44.35207\include\xmemory
; File C:\Program Files\Microsoft Visual Studio\2022\Professional\VC\Tools\MSVC\14.44.35207\include\utility
; File C:\Program Files\Microsoft Visual Studio\2022\Professional\VC\Tools\MSVC\14.44.35207\include\vector
; File C:\Program Files\Microsoft Visual Studio\2022\Professional\VC\Tools\MSVC\14.44.35207\include\utility
; File C:\Program Files\Microsoft Visual Studio\2022\Professional\VC\Tools\MSVC\14.44.35207\include\vector
; File C:\Program Files\Microsoft Visual Studio\2022\Professional\VC\Tools\MSVC\14.44.35207\include\xmemory
; File C:\Program Files\Microsoft Visual Studio\2022\Professional\VC\Tools\MSVC\14.44.35207\include\vector
; File C:\Program Files\Microsoft Visual Studio\2022\Professional\VC\Tools\MSVC\14.44.35207\include\xmemory
;	COMDAT ??$_Uninitialized_move@PAU__SECRETROOM_TENDER@@V?$allocator@U__SECRETROOM_TENDER@@@std@@@std@@YAPAU__SECRETROOM_TENDER@@QAU1@0PAU1@AAV?$allocator@U__SECRETROOM_TENDER@@@0@@Z
_TEXT	SEGMENT
__First$ = 8						; size = 4
__Last$ = 12						; size = 4
__Dest$ = 16						; size = 4
tv1329 = 16						; size = 4
__Al$ = 20						; size = 4
??$_Uninitialized_move@PAU__SECRETROOM_TENDER@@V?$allocator@U__SECRETROOM_TENDER@@@std@@@std@@YAPAU__SECRETROOM_TENDER@@QAU1@0PAU1@AAV?$allocator@U__SECRETROOM_TENDER@@@0@@Z PROC ; std::_Uninitialized_move<__SECRETROOM_TENDER *,std::allocator<__SECRETROOM_TENDER> >, COMDAT

; 1977 :     const _InIt _First, const _InIt _Last, _Alloc_ptr_t<_Alloc> _Dest, _Alloc& _Al) {

  00000	55		 push	 ebp
  00001	8b ec		 mov	 ebp, esp

; 1998 :     for (; _UFirst != _ULast; ++_UFirst) {

  00003	8b 45 08	 mov	 eax, DWORD PTR __First$[ebp]
  00006	53		 push	 ebx

; 1833 :     _CONSTEXPR20 _Uninitialized_backout_al(pointer _Dest, _Alloc& _Al_) : _First(_Dest), _Last(_Dest), _Al(_Al_) {}

  00007	8b 5d 10	 mov	 ebx, DWORD PTR __Dest$[ebp]

; 1998 :     for (; _UFirst != _ULast; ++_UFirst) {

  0000a	3b 45 0c	 cmp	 eax, DWORD PTR __Last$[ebp]
  0000d	0f 84 91 00 00
	00		 je	 $LN90@Uninitiali

; 1833 :     _CONSTEXPR20 _Uninitialized_backout_al(pointer _Dest, _Alloc& _Al_) : _First(_Dest), _Last(_Dest), _Al(_Al_) {}

  00013	8b d3		 mov	 edx, ebx
  00015	8d 48 18	 lea	 ecx, DWORD PTR [eax+24]
  00018	56		 push	 esi
  00019	2b d0		 sub	 edx, eax
  0001b	57		 push	 edi
  0001c	8d 7b 24	 lea	 edi, DWORD PTR [ebx+36]
  0001f	89 55 10	 mov	 DWORD PTR tv1329[ebp], edx
$LL4@Uninitiali:
  00022	8b 41 e8	 mov	 eax, DWORD PTR [ecx-24]

; 1845 :         ++_Last;

  00025	8d 49 2c	 lea	 ecx, DWORD PTR [ecx+44]
  00028	89 03		 mov	 DWORD PTR [ebx], eax
  0002a	8d 7f 2c	 lea	 edi, DWORD PTR [edi+44]
  0002d	8b 41 c0	 mov	 eax, DWORD PTR [ecx-64]
  00030	83 c3 2c	 add	 ebx, 44			; 0000002cH
  00033	89 47 b4	 mov	 DWORD PTR [edi-76], eax
  00036	8b 41 c4	 mov	 eax, DWORD PTR [ecx-60]
  00039	89 47 b8	 mov	 DWORD PTR [edi-72], eax
  0003c	8b 41 c8	 mov	 eax, DWORD PTR [ecx-56]
  0003f	89 47 bc	 mov	 DWORD PTR [edi-68], eax
  00042	8b 41 cc	 mov	 eax, DWORD PTR [ecx-52]
  00045	89 47 c0	 mov	 DWORD PTR [edi-64], eax
; File C:\Program Files\Microsoft Visual Studio\2022\Professional\VC\Tools\MSVC\14.44.35207\include\utility

; 773  :     _Ty _Old_val = static_cast<_Ty&&>(_Val);

  00048	8b 71 d8	 mov	 esi, DWORD PTR [ecx-40]
  0004b	8b 51 d4	 mov	 edx, DWORD PTR [ecx-44]
  0004e	8b 41 d0	 mov	 eax, DWORD PTR [ecx-48]

; 774  :     _Val         = static_cast<_Other&&>(_New_val);

  00051	c7 41 d8 00 00
	00 00		 mov	 DWORD PTR [ecx-40], 0
  00058	c7 41 d4 00 00
	00 00		 mov	 DWORD PTR [ecx-44], 0
  0005f	c7 41 d0 00 00
	00 00		 mov	 DWORD PTR [ecx-48], 0
; File C:\Program Files\Microsoft Visual Studio\2022\Professional\VC\Tools\MSVC\14.44.35207\include\vector

; 403  :         : _Myfirst(_First), _Mylast(_Last), _Myend(_End) {}

  00066	89 47 c4	 mov	 DWORD PTR [edi-60], eax
  00069	8b 45 10	 mov	 eax, DWORD PTR tv1329[ebp]
  0006c	89 77 cc	 mov	 DWORD PTR [edi-52], esi
  0006f	89 54 01 d4	 mov	 DWORD PTR [ecx+eax-44], edx
; File C:\Program Files\Microsoft Visual Studio\2022\Professional\VC\Tools\MSVC\14.44.35207\include\utility

; 773  :     _Ty _Old_val = static_cast<_Ty&&>(_Val);

  00073	8b 51 e0	 mov	 edx, DWORD PTR [ecx-32]
  00076	8b 71 e4	 mov	 esi, DWORD PTR [ecx-28]
  00079	8b 41 dc	 mov	 eax, DWORD PTR [ecx-36]

; 774  :     _Val         = static_cast<_Other&&>(_New_val);

  0007c	c7 41 e4 00 00
	00 00		 mov	 DWORD PTR [ecx-28], 0
  00083	c7 41 e0 00 00
	00 00		 mov	 DWORD PTR [ecx-32], 0
  0008a	c7 41 dc 00 00
	00 00		 mov	 DWORD PTR [ecx-36], 0
; File C:\Program Files\Microsoft Visual Studio\2022\Professional\VC\Tools\MSVC\14.44.35207\include\vector

; 403  :         : _Myfirst(_First), _Mylast(_Last), _Myend(_End) {}

  00091	89 57 d4	 mov	 DWORD PTR [edi-44], edx
; File C:\Program Files\Microsoft Visual Studio\2022\Professional\VC\Tools\MSVC\14.44.35207\include\xmemory

; 1998 :     for (; _UFirst != _ULast; ++_UFirst) {

  00094	8d 51 e8	 lea	 edx, DWORD PTR [ecx-24]
; File C:\Program Files\Microsoft Visual Studio\2022\Professional\VC\Tools\MSVC\14.44.35207\include\vector

; 403  :         : _Myfirst(_First), _Mylast(_Last), _Myend(_End) {}

  00097	89 47 d0	 mov	 DWORD PTR [edi-48], eax
  0009a	89 77 d8	 mov	 DWORD PTR [edi-40], esi
; File C:\Program Files\Microsoft Visual Studio\2022\Professional\VC\Tools\MSVC\14.44.35207\include\xmemory

; 1998 :     for (; _UFirst != _ULast; ++_UFirst) {

  0009d	3b 55 0c	 cmp	 edx, DWORD PTR __Last$[ebp]
  000a0	75 80		 jne	 SHORT $LL4@Uninitiali
  000a2	5f		 pop	 edi
  000a3	5e		 pop	 esi
$LN90@Uninitiali:

; 1999 :         _Backout._Emplace_back(_STD move(*_UFirst));
; 2000 :     }
; 2001 : 
; 2002 :     return _Backout._Release();
; 2003 : }

  000a4	8b c3		 mov	 eax, ebx
  000a6	5b		 pop	 ebx
  000a7	5d		 pop	 ebp
  000a8	c3		 ret	 0
??$_Uninitialized_move@PAU__SECRETROOM_TENDER@@V?$allocator@U__SECRETROOM_TENDER@@@std@@@std@@YAPAU__SECRETROOM_TENDER@@QAU1@0PAU1@AAV?$allocator@U__SECRETROOM_TENDER@@@0@@Z ENDP ; std::_Uninitialized_move<__SECRETROOM_TENDER *,std::allocator<__SECRETROOM_TENDER> >
_TEXT	ENDS
; Function compile flags: /Ogtp
; File C:\Program Files\Microsoft Visual Studio\2022\Professional\VC\Tools\MSVC\14.44.35207\include\vector
; File C:\Program Files\Microsoft Visual Studio\2022\Professional\VC\Tools\MSVC\14.44.35207\include\xmemory
; File C:\Program Files\Microsoft Visual Studio\2022\Professional\VC\Tools\MSVC\14.44.35207\include\vector
; File C:\Program Files\Microsoft Visual Studio\2022\Professional\VC\Tools\MSVC\14.44.35207\include\xmemory
; File C:\Program Files\Microsoft Visual Studio\2022\Professional\VC\Tools\MSVC\14.44.35207\include\vector
; File C:\Program Files\Microsoft Visual Studio\2022\Professional\VC\Tools\MSVC\14.44.35207\include\xmemory
; File C:\Program Files\Microsoft Visual Studio\2022\Professional\VC\Tools\MSVC\14.44.35207\include\vector
;	COMDAT ??1_Reallocation_guard@?$vector@U__SECRETROOM_TENDER@@V?$allocator@U__SECRETROOM_TENDER@@@std@@@std@@QAE@XZ
_TEXT	SEGMENT
??1_Reallocation_guard@?$vector@U__SECRETROOM_TENDER@@V?$allocator@U__SECRETROOM_TENDER@@@std@@@std@@QAE@XZ PROC ; std::vector<__SECRETROOM_TENDER,std::allocator<__SECRETROOM_TENDER> >::_Reallocation_guard::~_Reallocation_guard, COMDAT
; _this$ = ecx

; 620  :         _CONSTEXPR20 ~_Reallocation_guard() noexcept {

  00000	57		 push	 edi
  00001	8b f9		 mov	 edi, ecx

; 621  :             if (_New_begin != nullptr) {

  00003	83 7f 04 00	 cmp	 DWORD PTR [edi+4], 0
  00007	74 50		 je	 SHORT $LN33@Reallocati

; 622  :                 _STD _Destroy_range(_Constructed_first, _Constructed_last, _Al);

  00009	53		 push	 ebx
  0000a	8b 5f 10	 mov	 ebx, DWORD PTR [edi+16]
  0000d	56		 push	 esi
  0000e	8b 77 0c	 mov	 esi, DWORD PTR [edi+12]
; File C:\Program Files\Microsoft Visual Studio\2022\Professional\VC\Tools\MSVC\14.44.35207\include\xmemory

; 1102 :         for (; _First != _Last; ++_First) {

  00011	3b f3		 cmp	 esi, ebx
  00013	74 17		 je	 SHORT $LN7@Reallocati
$LL8@Reallocati:
; File C:\Program Files\Microsoft Visual Studio\2022\Professional\VC\Tools\MSVC\14.44.35207\include\vector

; 830  :         _Tidy();

  00015	8d 4e 20	 lea	 ecx, DWORD PTR [esi+32]
  00018	e8 00 00 00 00	 call	 ?_Tidy@?$vector@U__SECRETROOM_MONSTER@@V?$allocator@U__SECRETROOM_MONSTER@@@std@@@std@@AAEXXZ ; std::vector<__SECRETROOM_MONSTER,std::allocator<__SECRETROOM_MONSTER> >::_Tidy
  0001d	8d 4e 14	 lea	 ecx, DWORD PTR [esi+20]
  00020	e8 00 00 00 00	 call	 ?_Tidy@?$vector@KV?$allocator@K@std@@@std@@AAEXXZ ; std::vector<unsigned long,std::allocator<unsigned long> >::_Tidy
; File C:\Program Files\Microsoft Visual Studio\2022\Professional\VC\Tools\MSVC\14.44.35207\include\xmemory

; 1102 :         for (; _First != _Last; ++_First) {

  00025	83 c6 2c	 add	 esi, 44			; 0000002cH
  00028	3b f3		 cmp	 esi, ebx
  0002a	75 e9		 jne	 SHORT $LL8@Reallocati
$LN7@Reallocati:

; 985  :         _STD _Deallocate<_New_alignof<_Ty>>(_Ptr, sizeof(_Ty) * _Count);

  0002c	6b 4f 08 2c	 imul	 ecx, DWORD PTR [edi+8], 44
  00030	8b 47 04	 mov	 eax, DWORD PTR [edi+4]
  00033	5e		 pop	 esi
  00034	5b		 pop	 ebx

; 284  :         if (_Bytes >= _Big_allocation_threshold) {

  00035	81 f9 00 10 00
	00		 cmp	 ecx, 4096		; 00001000H
  0003b	72 12		 jb	 SHORT $LN38@Reallocati

; 205  :     const uintptr_t _Ptr_container   = _Ptr_user[-1];

  0003d	8b 50 fc	 mov	 edx, DWORD PTR [eax-4]
  00040	83 c1 23	 add	 ecx, 35			; 00000023H

; 206  : 
; 207  :     // If the following asserts, it likely means that we are performing
; 208  :     // an aligned delete on memory coming from an unaligned allocation.
; 209  :     _STL_ASSERT(_Ptr_user[-2] == _Big_allocation_sentinel, "invalid argument");
; 210  : 
; 211  :     // Extra paranoia on aligned allocation/deallocation; ensure _Ptr_container is
; 212  :     // in range [_Min_back_shift, _Non_user_size]
; 213  : #ifdef _DEBUG
; 214  :     constexpr uintptr_t _Min_back_shift = 2 * sizeof(void*);
; 215  : #else // ^^^ defined(_DEBUG) / !defined(_DEBUG) vvv
; 216  :     constexpr uintptr_t _Min_back_shift = sizeof(void*);
; 217  : #endif // ^^^ !defined(_DEBUG) ^^^
; 218  :     const uintptr_t _Back_shift = reinterpret_cast<uintptr_t>(_Ptr) - _Ptr_container;

  00043	2b c2		 sub	 eax, edx

; 219  :     _STL_VERIFY(_Back_shift >= _Min_back_shift && _Back_shift <= _Non_user_size, "invalid argument");

  00045	83 c0 fc	 add	 eax, -4			; fffffffcH
  00048	83 f8 1f	 cmp	 eax, 31			; 0000001fH
  0004b	77 0e		 ja	 SHORT $LN37@Reallocati

; 220  :     _Ptr = reinterpret_cast<void*>(_Ptr_container);

  0004d	8b c2		 mov	 eax, edx
$LN38@Reallocati:

; 289  :         ::operator delete(_Ptr, _Bytes);

  0004f	51		 push	 ecx
  00050	50		 push	 eax
  00051	e8 00 00 00 00	 call	 ??3@YAXPAXI@Z		; operator delete
  00056	83 c4 08	 add	 esp, 8
$LN33@Reallocati:
  00059	5f		 pop	 edi
; File C:\Program Files\Microsoft Visual Studio\2022\Professional\VC\Tools\MSVC\14.44.35207\include\vector

; 625  :         }

  0005a	c3		 ret	 0
$LN37@Reallocati:
; File C:\Program Files\Microsoft Visual Studio\2022\Professional\VC\Tools\MSVC\14.44.35207\include\xmemory

; 219  :     _STL_VERIFY(_Back_shift >= _Min_back_shift && _Back_shift <= _Non_user_size, "invalid argument");

  0005b	6a 00		 push	 0
  0005d	6a 00		 push	 0
  0005f	6a 00		 push	 0
  00061	6a 00		 push	 0
  00063	6a 00		 push	 0
  00065	e8 00 00 00 00	 call	 __invoke_watson
$LN50@Reallocati:
  0006a	cc		 int	 3
??1_Reallocation_guard@?$vector@U__SECRETROOM_TENDER@@V?$allocator@U__SECRETROOM_TENDER@@@std@@@std@@QAE@XZ ENDP ; std::vector<__SECRETROOM_TENDER,std::allocator<__SECRETROOM_TENDER> >::_Reallocation_guard::~_Reallocation_guard
_TEXT	ENDS
; Function compile flags: /Ogtp
; File C:\Program Files\Microsoft Visual Studio\2022\Professional\VC\Tools\MSVC\14.44.35207\include\xutility
;	COMDAT ??$_Copy_memmove_tail@PAU__SECRETROOM_MONSTER@@@std@@YAPAU__SECRETROOM_MONSTER@@QBDQAU1@II@Z
_TEXT	SEGMENT
__First_ch$ = 8						; size = 4
__Dest$ = 12						; size = 4
__Byte_count$ = 16					; size = 4
__Object_count$ = 20					; size = 4
??$_Copy_memmove_tail@PAU__SECRETROOM_MONSTER@@@std@@YAPAU__SECRETROOM_MONSTER@@QBDQAU1@II@Z PROC ; std::_Copy_memmove_tail<__SECRETROOM_MONSTER *>, COMDAT

; 4747 :     const char* const _First_ch, const _OutCtgIt _Dest, const size_t _Byte_count, const size_t _Object_count) {

  00000	55		 push	 ebp
  00001	8b ec		 mov	 ebp, esp
  00003	56		 push	 esi

; 4748 :     _STL_INTERNAL_CHECK(_Byte_count == _Object_count * sizeof(*_Dest));
; 4749 :     const auto _Dest_ptr = _STD _To_address(_Dest);
; 4750 :     const auto _Dest_ch  = const_cast<char*>(reinterpret_cast<const volatile char*>(_Dest_ptr));
; 4751 :     _CSTD memmove(_Dest_ch, _First_ch, _Byte_count);

  00004	8b 75 0c	 mov	 esi, DWORD PTR __Dest$[ebp]
  00007	57		 push	 edi
  00008	8b 7d 10	 mov	 edi, DWORD PTR __Byte_count$[ebp]
  0000b	57		 push	 edi
  0000c	ff 75 08	 push	 DWORD PTR __First_ch$[ebp]
  0000f	56		 push	 esi
  00010	e8 00 00 00 00	 call	 _memmove
  00015	83 c4 0c	 add	 esp, 12			; 0000000cH

; 4752 :     if constexpr (is_pointer_v<_OutCtgIt>) {
; 4753 :         (void) _Object_count;
; 4754 :         // CodeQL [SM02986] This cast is correct: we're bypassing pointer arithmetic for performance.
; 4755 :         return reinterpret_cast<_OutCtgIt>(_Dest_ch + _Byte_count);

  00018	8d 04 3e	 lea	 eax, DWORD PTR [esi+edi]
  0001b	5f		 pop	 edi
  0001c	5e		 pop	 esi

; 4756 :     } else {
; 4757 :         return _Dest + static_cast<_Iter_diff_t<_OutCtgIt>>(_Object_count);
; 4758 :     }
; 4759 : }

  0001d	5d		 pop	 ebp
  0001e	c3		 ret	 0
??$_Copy_memmove_tail@PAU__SECRETROOM_MONSTER@@@std@@YAPAU__SECRETROOM_MONSTER@@QBDQAU1@II@Z ENDP ; std::_Copy_memmove_tail<__SECRETROOM_MONSTER *>
_TEXT	ENDS
; Function compile flags: /Ogtp
; File C:\Program Files\Microsoft Visual Studio\2022\Professional\VC\Tools\MSVC\14.44.35207\include\xmemory
;	COMDAT ??1?$_Alloc_construct_ptr@V?$allocator@U?$_Tree_node@U?$pair@$$CBHH@std@@PAX@std@@@std@@@std@@QAE@XZ
_TEXT	SEGMENT
??1?$_Alloc_construct_ptr@V?$allocator@U?$_Tree_node@U?$pair@$$CBHH@std@@PAX@std@@@std@@@std@@QAE@XZ PROC ; std::_Alloc_construct_ptr<std::allocator<std::_Tree_node<std::pair<int const ,int>,void *> > >::~_Alloc_construct_ptr<std::allocator<std::_Tree_node<std::pair<int const ,int>,void *> > >, COMDAT
; _this$ = ecx

; 1172 :         if (_Ptr) {

  00000	8b 41 04	 mov	 eax, DWORD PTR [ecx+4]
  00003	85 c0		 test	 eax, eax
  00005	74 0b		 je	 SHORT $LN10@Alloc_cons

; 289  :         ::operator delete(_Ptr, _Bytes);

  00007	6a 18		 push	 24			; 00000018H
  00009	50		 push	 eax
  0000a	e8 00 00 00 00	 call	 ??3@YAXPAXI@Z		; operator delete
  0000f	83 c4 08	 add	 esp, 8
$LN10@Alloc_cons:

; 1173 :             _Al.deallocate(_Ptr, 1);
; 1174 :         }
; 1175 :     }

  00012	c3		 ret	 0
??1?$_Alloc_construct_ptr@V?$allocator@U?$_Tree_node@U?$pair@$$CBHH@std@@PAX@std@@@std@@@std@@QAE@XZ ENDP ; std::_Alloc_construct_ptr<std::allocator<std::_Tree_node<std::pair<int const ,int>,void *> > >::~_Alloc_construct_ptr<std::allocator<std::_Tree_node<std::pair<int const ,int>,void *> > >
_TEXT	ENDS
; Function compile flags: /Ogtp
; File C:\Program Files\Microsoft Visual Studio\2022\Professional\VC\Tools\MSVC\14.44.35207\include\xtree
; File C:\Program Files\Microsoft Visual Studio\2022\Professional\VC\Tools\MSVC\14.44.35207\include\xmemory
; File C:\Program Files\Microsoft Visual Studio\2022\Professional\VC\Tools\MSVC\14.44.35207\include\xtree
;	COMDAT ??1?$_Tree_temp_node@V?$allocator@U?$_Tree_node@U?$pair@$$CBEPAVCSecretRoomContinent@@@std@@PAX@std@@@std@@@std@@QAE@XZ
_TEXT	SEGMENT
??1?$_Tree_temp_node@V?$allocator@U?$_Tree_node@U?$pair@$$CBEPAVCSecretRoomContinent@@@std@@PAX@std@@@std@@@std@@QAE@XZ PROC ; std::_Tree_temp_node<std::allocator<std::_Tree_node<std::pair<unsigned char const ,CSecretRoomContinent *>,void *> > >::~_Tree_temp_node<std::allocator<std::_Tree_node<std::pair<unsigned char const ,CSecretRoomContinent *>,void *> > >, COMDAT
; _this$ = ecx
; File C:\Program Files\Microsoft Visual Studio\2022\Professional\VC\Tools\MSVC\14.44.35207\include\xmemory

; 1172 :         if (_Ptr) {

  00000	8b 41 04	 mov	 eax, DWORD PTR [ecx+4]
  00003	85 c0		 test	 eax, eax
  00005	74 0b		 je	 SHORT $LN19@Tree_temp_

; 289  :         ::operator delete(_Ptr, _Bytes);

  00007	6a 18		 push	 24			; 00000018H
  00009	50		 push	 eax
  0000a	e8 00 00 00 00	 call	 ??3@YAXPAXI@Z		; operator delete
  0000f	83 c4 08	 add	 esp, 8
$LN19@Tree_temp_:
; File C:\Program Files\Microsoft Visual Studio\2022\Professional\VC\Tools\MSVC\14.44.35207\include\xtree

; 848  :     }

  00012	c3		 ret	 0
??1?$_Tree_temp_node@V?$allocator@U?$_Tree_node@U?$pair@$$CBEPAVCSecretRoomContinent@@@std@@PAX@std@@@std@@@std@@QAE@XZ ENDP ; std::_Tree_temp_node<std::allocator<std::_Tree_node<std::pair<unsigned char const ,CSecretRoomContinent *>,void *> > >::~_Tree_temp_node<std::allocator<std::_Tree_node<std::pair<unsigned char const ,CSecretRoomContinent *>,void *> > >
_TEXT	ENDS
; Function compile flags: /Ogtp
; File C:\Program Files\Microsoft Visual Studio\2022\Professional\VC\Tools\MSVC\14.44.35207\include\xmemory
;	COMDAT ??1?$_Alloc_construct_ptr@V?$allocator@U?$_Tree_node@U?$pair@$$CBEPAVCSecretRoomContinent@@@std@@PAX@std@@@std@@@std@@QAE@XZ
_TEXT	SEGMENT
??1?$_Alloc_construct_ptr@V?$allocator@U?$_Tree_node@U?$pair@$$CBEPAVCSecretRoomContinent@@@std@@PAX@std@@@std@@@std@@QAE@XZ PROC ; std::_Alloc_construct_ptr<std::allocator<std::_Tree_node<std::pair<unsigned char const ,CSecretRoomContinent *>,void *> > >::~_Alloc_construct_ptr<std::allocator<std::_Tree_node<std::pair<unsigned char const ,CSecretRoomContinent *>,void *> > >, COMDAT
; _this$ = ecx

; 1172 :         if (_Ptr) {

  00000	8b 41 04	 mov	 eax, DWORD PTR [ecx+4]
  00003	85 c0		 test	 eax, eax
  00005	74 0b		 je	 SHORT $LN10@Alloc_cons

; 289  :         ::operator delete(_Ptr, _Bytes);

  00007	6a 18		 push	 24			; 00000018H
  00009	50		 push	 eax
  0000a	e8 00 00 00 00	 call	 ??3@YAXPAXI@Z		; operator delete
  0000f	83 c4 08	 add	 esp, 8
$LN10@Alloc_cons:

; 1173 :             _Al.deallocate(_Ptr, 1);
; 1174 :         }
; 1175 :     }

  00012	c3		 ret	 0
??1?$_Alloc_construct_ptr@V?$allocator@U?$_Tree_node@U?$pair@$$CBEPAVCSecretRoomContinent@@@std@@PAX@std@@@std@@@std@@QAE@XZ ENDP ; std::_Alloc_construct_ptr<std::allocator<std::_Tree_node<std::pair<unsigned char const ,CSecretRoomContinent *>,void *> > >::~_Alloc_construct_ptr<std::allocator<std::_Tree_node<std::pair<unsigned char const ,CSecretRoomContinent *>,void *> > >
_TEXT	ENDS
; Function compile flags: /Ogtp
; File C:\Program Files\Microsoft Visual Studio\2022\Professional\VC\Tools\MSVC\14.44.35207\include\xutility
;	COMDAT ??$_Copy_memmove_n@PAKPAK@std@@YAPAKPAKI0@Z
_TEXT	SEGMENT
__First$ = 8						; size = 4
__Object_count$ = 12					; size = 4
__Dest$ = 16						; size = 4
??$_Copy_memmove_n@PAKPAK@std@@YAPAKPAKI0@Z PROC	; std::_Copy_memmove_n<unsigned long *,unsigned long *>, COMDAT

; 4774 : _OutCtgIt _Copy_memmove_n(_CtgIt _First, const size_t _Object_count, _OutCtgIt _Dest) {

  00000	55		 push	 ebp
  00001	8b ec		 mov	 ebp, esp

; 4775 :     const auto _First_ptr  = _STD _To_address(_First);
; 4776 :     const auto _First_ch   = const_cast<const char*>(reinterpret_cast<const volatile char*>(_First_ptr));
; 4777 :     const auto _Byte_count = _Object_count * sizeof(*_First_ptr);
; 4778 :     return _STD _Copy_memmove_tail(_First_ch, _STD move(_Dest), _Byte_count, _Object_count);

  00003	8b 45 0c	 mov	 eax, DWORD PTR __Object_count$[ebp]
  00006	50		 push	 eax
  00007	c1 e0 02	 shl	 eax, 2
  0000a	50		 push	 eax
  0000b	ff 75 10	 push	 DWORD PTR __Dest$[ebp]
  0000e	ff 75 08	 push	 DWORD PTR __First$[ebp]
  00011	e8 00 00 00 00	 call	 ??$_Copy_memmove_tail@PAK@std@@YAPAKQBDQAKII@Z ; std::_Copy_memmove_tail<unsigned long *>
  00016	83 c4 10	 add	 esp, 16			; 00000010H

; 4779 : }

  00019	5d		 pop	 ebp
  0001a	c3		 ret	 0
??$_Copy_memmove_n@PAKPAK@std@@YAPAKPAKI0@Z ENDP	; std::_Copy_memmove_n<unsigned long *,unsigned long *>
_TEXT	ENDS
; Function compile flags: /Ogtp
; File C:\Program Files\Microsoft Visual Studio\2022\Professional\VC\Tools\MSVC\14.44.35207\include\xtree
; File C:\Program Files\Microsoft Visual Studio\2022\Professional\VC\Tools\MSVC\14.44.35207\include\type_traits
; File C:\Program Files\Microsoft Visual Studio\2022\Professional\VC\Tools\MSVC\14.44.35207\include\xtree
; File C:\Program Files\Microsoft Visual Studio\2022\Professional\VC\Tools\MSVC\14.44.35207\include\type_traits
; File C:\Program Files\Microsoft Visual Studio\2022\Professional\VC\Tools\MSVC\14.44.35207\include\xtree
;	COMDAT ??$_Find_lower_bound@H@?$_Tree@V?$_Tmap_traits@HHU?$less@H@std@@V?$allocator@U?$pair@$$CBHH@std@@@2@$0A@@std@@@std@@IBE?AU?$_Tree_find_result@PAU?$_Tree_node@U?$pair@$$CBHH@std@@PAX@std@@@1@ABH@Z
_TEXT	SEGMENT
___$ReturnUdt$ = 8					; size = 4
__Keyval$ = 12						; size = 4
??$_Find_lower_bound@H@?$_Tree@V?$_Tmap_traits@HHU?$less@H@std@@V?$allocator@U?$pair@$$CBHH@std@@@2@$0A@@std@@@std@@IBE?AU?$_Tree_find_result@PAU?$_Tree_node@U?$pair@$$CBHH@std@@PAX@std@@@1@ABH@Z PROC ; std::_Tree<std::_Tmap_traits<int,int,std::less<int>,std::allocator<std::pair<int const ,int> >,0> >::_Find_lower_bound<int>, COMDAT
; _this$ = ecx

; 1628 :     _Tree_find_result<_Nodeptr> _Find_lower_bound(const _Keyty& _Keyval) const {

  00000	55		 push	 ebp
  00001	8b ec		 mov	 ebp, esp

; 1629 :         const auto _Scary = _Get_scary();
; 1630 :         _Tree_find_result<_Nodeptr> _Result{{_Scary->_Myhead->_Parent, _Tree_child::_Right}, _Scary->_Myhead};

  00003	8b 09		 mov	 ecx, DWORD PTR [ecx]
  00005	8b 55 08	 mov	 edx, DWORD PTR ___$ReturnUdt$[ebp]
  00008	8b 41 04	 mov	 eax, DWORD PTR [ecx+4]
  0000b	89 02		 mov	 DWORD PTR [edx], eax
  0000d	c7 42 04 00 00
	00 00		 mov	 DWORD PTR [edx+4], 0
  00014	89 4a 08	 mov	 DWORD PTR [edx+8], ecx

; 1631 :         _Nodeptr _Trynode = _Result._Location._Parent;
; 1632 :         while (!_Trynode->_Isnil) {

  00017	80 78 0d 00	 cmp	 BYTE PTR [eax+13], 0
  0001b	75 28		 jne	 SHORT $LN13@Find_lower
; File C:\Program Files\Microsoft Visual Studio\2022\Professional\VC\Tools\MSVC\14.44.35207\include\type_traits

; 2380 :         return _Left < _Right;

  0001d	8b 4d 0c	 mov	 ecx, DWORD PTR __Keyval$[ebp]
  00020	56		 push	 esi
  00021	8b 31		 mov	 esi, DWORD PTR [ecx]
$LL2@Find_lower:
; File C:\Program Files\Microsoft Visual Studio\2022\Professional\VC\Tools\MSVC\14.44.35207\include\xtree

; 1633 :             _Result._Location._Parent = _Trynode;

  00023	89 02		 mov	 DWORD PTR [edx], eax
; File C:\Program Files\Microsoft Visual Studio\2022\Professional\VC\Tools\MSVC\14.44.35207\include\type_traits

; 2380 :         return _Left < _Right;

  00025	39 70 10	 cmp	 DWORD PTR [eax+16], esi
; File C:\Program Files\Microsoft Visual Studio\2022\Professional\VC\Tools\MSVC\14.44.35207\include\xtree

; 1634 :             if (_DEBUG_LT_PRED(_Getcomp(), _Traits::_Kfn(_Trynode->_Myval), _Keyval)) {

  00028	7d 07		 jge	 SHORT $LN4@Find_lower

; 1635 :                 _Result._Location._Child = _Tree_child::_Right;
; 1636 :                 _Trynode                 = _Trynode->_Right;

  0002a	8b 40 08	 mov	 eax, DWORD PTR [eax+8]
  0002d	33 c9		 xor	 ecx, ecx

; 1637 :             } else {

  0002f	eb 0a		 jmp	 SHORT $LN5@Find_lower
$LN4@Find_lower:

; 1638 :                 _Result._Location._Child = _Tree_child::_Left;
; 1639 :                 _Result._Bound           = _Trynode;

  00031	89 42 08	 mov	 DWORD PTR [edx+8], eax

; 1640 :                 _Trynode                 = _Trynode->_Left;

  00034	b9 01 00 00 00	 mov	 ecx, 1
  00039	8b 00		 mov	 eax, DWORD PTR [eax]
$LN5@Find_lower:

; 1631 :         _Nodeptr _Trynode = _Result._Location._Parent;
; 1632 :         while (!_Trynode->_Isnil) {

  0003b	89 4a 04	 mov	 DWORD PTR [edx+4], ecx
  0003e	80 78 0d 00	 cmp	 BYTE PTR [eax+13], 0
  00042	74 df		 je	 SHORT $LL2@Find_lower
  00044	5e		 pop	 esi
$LN13@Find_lower:

; 1641 :             }
; 1642 :         }
; 1643 : 
; 1644 :         return _Result;
; 1645 :     }

  00045	8b c2		 mov	 eax, edx
  00047	5d		 pop	 ebp
  00048	c2 08 00	 ret	 8
??$_Find_lower_bound@H@?$_Tree@V?$_Tmap_traits@HHU?$less@H@std@@V?$allocator@U?$pair@$$CBHH@std@@@2@$0A@@std@@@std@@IBE?AU?$_Tree_find_result@PAU?$_Tree_node@U?$pair@$$CBHH@std@@PAX@std@@@1@ABH@Z ENDP ; std::_Tree<std::_Tmap_traits<int,int,std::less<int>,std::allocator<std::pair<int const ,int> >,0> >::_Find_lower_bound<int>
_TEXT	ENDS
; Function compile flags: /Ogtp
; File C:\Program Files\Microsoft Visual Studio\2022\Professional\VC\Tools\MSVC\14.44.35207\include\vector
; File C:\Program Files\Microsoft Visual Studio\2022\Professional\VC\Tools\MSVC\14.44.35207\include\xmemory
; File C:\Program Files\Microsoft Visual Studio\2022\Professional\VC\Tools\MSVC\14.44.35207\include\vector
; File C:\Program Files\Microsoft Visual Studio\2022\Professional\VC\Tools\MSVC\14.44.35207\include\xmemory
; File C:\Program Files\Microsoft Visual Studio\2022\Professional\VC\Tools\MSVC\14.44.35207\include\vector
; File C:\Program Files\Microsoft Visual Studio\2022\Professional\VC\Tools\MSVC\14.44.35207\include\xmemory
; File C:\Program Files\Microsoft Visual Studio\2022\Professional\VC\Tools\MSVC\14.44.35207\include\vector
; File C:\Program Files\Microsoft Visual Studio\2022\Professional\VC\Tools\MSVC\14.44.35207\include\xmemory
; File C:\Program Files\Microsoft Visual Studio\2022\Professional\VC\Tools\MSVC\14.44.35207\include\vector
; File C:\Program Files\Microsoft Visual Studio\2022\Professional\VC\Tools\MSVC\14.44.35207\include\xmemory
; File C:\Program Files\Microsoft Visual Studio\2022\Professional\VC\Tools\MSVC\14.44.35207\include\vector
; File C:\Program Files\Microsoft Visual Studio\2022\Professional\VC\Tools\MSVC\14.44.35207\include\xmemory
; File C:\Program Files\Microsoft Visual Studio\2022\Professional\VC\Tools\MSVC\14.44.35207\include\vector
; File C:\Program Files\Microsoft Visual Studio\2022\Professional\VC\Tools\MSVC\14.44.35207\include\xmemory
; File C:\Program Files\Microsoft Visual Studio\2022\Professional\VC\Tools\MSVC\14.44.35207\include\vector
; File C:\Program Files\Microsoft Visual Studio\2022\Professional\VC\Tools\MSVC\14.44.35207\include\xmemory
; File C:\Program Files\Microsoft Visual Studio\2022\Professional\VC\Tools\MSVC\14.44.35207\include\vector
; File C:\Program Files\Microsoft Visual Studio\2022\Professional\VC\Tools\MSVC\14.44.35207\include\xmemory
; File C:\Program Files\Microsoft Visual Studio\2022\Professional\VC\Tools\MSVC\14.44.35207\include\vector
; File C:\Program Files\Microsoft Visual Studio\2022\Professional\VC\Tools\MSVC\14.44.35207\include\xmemory
; File C:\Program Files\Microsoft Visual Studio\2022\Professional\VC\Tools\MSVC\14.44.35207\include\vector
;	COMDAT ??$_Emplace_reallocate@ABU__SECRETROOM_MONSTER@@@?$vector@U__SECRETROOM_MONSTER@@V?$allocator@U__SECRETROOM_MONSTER@@@std@@@std@@AAEPAU__SECRETROOM_MONSTER@@QAU2@ABU2@@Z
_TEXT	SEGMENT
__Newsize$1$ = -12					; size = 4
$T1 = -8						; size = 4
tv710 = -4						; size = 4
__Whereptr$ = 8						; size = 4
_<_Val_0>$ = 12						; size = 4
??$_Emplace_reallocate@ABU__SECRETROOM_MONSTER@@@?$vector@U__SECRETROOM_MONSTER@@V?$allocator@U__SECRETROOM_MONSTER@@@std@@@std@@AAEPAU__SECRETROOM_MONSTER@@QAU2@ABU2@@Z PROC ; std::vector<__SECRETROOM_MONSTER,std::allocator<__SECRETROOM_MONSTER> >::_Emplace_reallocate<__SECRETROOM_MONSTER const &>, COMDAT
; _this$ = ecx

; 875  :     _CONSTEXPR20 pointer _Emplace_reallocate(const pointer _Whereptr, _Valty&&... _Val) {

  00000	55		 push	 ebp
  00001	8b ec		 mov	 ebp, esp
  00003	83 ec 0c	 sub	 esp, 12			; 0000000cH
  00006	53		 push	 ebx

; 876  :         // reallocate and insert by perfectly forwarding _Val at _Whereptr
; 877  :         _Alty& _Al        = _Getal();
; 878  :         auto& _My_data    = _Mypair._Myval2;
; 879  :         pointer& _Myfirst = _My_data._Myfirst;
; 880  :         pointer& _Mylast  = _My_data._Mylast;
; 881  : 
; 882  :         _STL_INTERNAL_CHECK(_Mylast == _My_data._Myend); // check that we have no unused capacity
; 883  : 
; 884  :         const auto _Whereoff = static_cast<size_type>(_Whereptr - _Myfirst);

  00007	8b 5d 08	 mov	 ebx, DWORD PTR __Whereptr$[ebp]
  0000a	56		 push	 esi
  0000b	8b f1		 mov	 esi, ecx
  0000d	57		 push	 edi
  0000e	8b 0e		 mov	 ecx, DWORD PTR [esi]
  00010	2b d9		 sub	 ebx, ecx

; 885  :         const auto _Oldsize  = static_cast<size_type>(_Mylast - _Myfirst);

  00012	8b 46 04	 mov	 eax, DWORD PTR [esi+4]
  00015	2b c1		 sub	 eax, ecx
  00017	c1 f8 05	 sar	 eax, 5

; 886  : 
; 887  :         if (_Oldsize == max_size()) {

  0001a	3d ff ff ff 07	 cmp	 eax, 134217727		; 07ffffffH
  0001f	0f 84 20 01 00
	00		 je	 $LN119@Emplace_re

; 1924 :         return static_cast<size_type>(_My_data._Myend - _My_data._Myfirst);

  00025	8b 7e 08	 mov	 edi, DWORD PTR [esi+8]

; 889  :         }
; 890  : 
; 891  :         const size_type _Newsize = _Oldsize + 1;

  00028	8d 50 01	 lea	 edx, DWORD PTR [eax+1]

; 1924 :         return static_cast<size_type>(_My_data._Myend - _My_data._Myfirst);

  0002b	2b f9		 sub	 edi, ecx

; 889  :         }
; 890  : 
; 891  :         const size_type _Newsize = _Oldsize + 1;

  0002d	89 55 f4	 mov	 DWORD PTR __Newsize$1$[ebp], edx

; 1924 :         return static_cast<size_type>(_My_data._Myend - _My_data._Myfirst);

  00030	c1 ff 05	 sar	 edi, 5

; 2011 :         if (_Oldcapacity > _Max - _Oldcapacity / 2) {

  00033	b8 ff ff ff 07	 mov	 eax, 134217727		; 07ffffffH
  00038	8b cf		 mov	 ecx, edi
  0003a	d1 e9		 shr	 ecx, 1
  0003c	2b c1		 sub	 eax, ecx
  0003e	3b f8		 cmp	 edi, eax
  00040	76 14		 jbe	 SHORT $LN8@Emplace_re

; 2012 :             return _Max; // geometric growth would overflow

  00042	b8 e0 ff ff ff	 mov	 eax, -32		; ffffffe0H
  00047	c7 45 f8 e0 ff
	ff ff		 mov	 DWORD PTR $T1[ebp], -32	; ffffffe0H
; File C:\Program Files\Microsoft Visual Studio\2022\Professional\VC\Tools\MSVC\14.44.35207\include\xmemory

; 253  :             return _Allocate_manually_vector_aligned<_Traits>(_Bytes);

  0004e	50		 push	 eax
  0004f	e8 00 00 00 00	 call	 ??$_Allocate_manually_vector_aligned@U_Default_allocate_traits@std@@@std@@YAPAXI@Z ; std::_Allocate_manually_vector_aligned<std::_Default_allocate_traits>
  00054	eb 3b		 jmp	 SHORT $LN117@Emplace_re
$LN8@Emplace_re:
; File C:\Program Files\Microsoft Visual Studio\2022\Professional\VC\Tools\MSVC\14.44.35207\include\vector

; 2015 :         const size_type _Geometric = _Oldcapacity + _Oldcapacity / 2;

  00056	8d 04 39	 lea	 eax, DWORD PTR [ecx+edi]
; File C:\Program Files\Microsoft Visual Studio\2022\Professional\VC\Tools\MSVC\14.44.35207\include\xmemory

; 117  :         if (_Count > _Max_possible) {

  00059	8b ca		 mov	 ecx, edx
  0005b	3b c2		 cmp	 eax, edx
  0005d	0f 43 c8	 cmovae	 ecx, eax
  00060	81 f9 ff ff ff
	07		 cmp	 ecx, 134217727		; 07ffffffH
  00066	0f 87 de 00 00
	00		 ja	 $LN120@Emplace_re

; 119  :         }
; 120  :     }
; 121  : 
; 122  :     return _Count * _Ty_size;

  0006c	c1 e1 05	 shl	 ecx, 5

; 990  :         return static_cast<_Ty*>(_STD _Allocate<_New_alignof<_Ty>>(_Get_size_of_n<sizeof(_Ty)>(_Count)));

  0006f	8b c1		 mov	 eax, ecx

; 122  :     return _Count * _Ty_size;

  00071	89 4d f8	 mov	 DWORD PTR $T1[ebp], ecx

; 227  :     if (_Bytes == 0) {

  00074	85 c0		 test	 eax, eax
  00076	75 04		 jne	 SHORT $LN23@Emplace_re

; 228  :         return nullptr;

  00078	33 ff		 xor	 edi, edi
  0007a	eb 1a		 jmp	 SHORT $LN22@Emplace_re
$LN23@Emplace_re:

; 229  :     }
; 230  : 
; 231  : #if _HAS_CXX20 // TRANSITION, GH-1532
; 232  :     if (_STD is_constant_evaluated()) {
; 233  :         return _Traits::_Allocate(_Bytes);
; 234  :     }
; 235  : #endif // _HAS_CXX20
; 236  : 
; 237  : #ifdef __cpp_aligned_new
; 238  :     if constexpr (_Align > __STDCPP_DEFAULT_NEW_ALIGNMENT__) {
; 239  :         size_t _Passed_align = _Align;
; 240  : #if defined(_M_IX86) || defined(_M_X64)
; 241  :         if (_Bytes >= _Big_allocation_threshold) {
; 242  :             // boost the alignment of big allocations to help autovectorization
; 243  :             _Passed_align = (_STD max)(_Align, _Big_allocation_alignment);
; 244  :         }
; 245  : #endif // defined(_M_IX86) || defined(_M_X64)
; 246  :         return _Traits::_Allocate_aligned(_Bytes, _Passed_align);
; 247  :     } else
; 248  : #endif // defined(__cpp_aligned_new)
; 249  :     {
; 250  : #if defined(_M_IX86) || defined(_M_X64)
; 251  :         if (_Bytes >= _Big_allocation_threshold) {

  0007c	3d 00 10 00 00	 cmp	 eax, 4096		; 00001000H
  00081	72 08		 jb	 SHORT $LN24@Emplace_re

; 253  :             return _Allocate_manually_vector_aligned<_Traits>(_Bytes);

  00083	50		 push	 eax
  00084	e8 00 00 00 00	 call	 ??$_Allocate_manually_vector_aligned@U_Default_allocate_traits@std@@@std@@YAPAXI@Z ; std::_Allocate_manually_vector_aligned<std::_Default_allocate_traits>
  00089	eb 06		 jmp	 SHORT $LN117@Emplace_re
$LN24@Emplace_re:

; 136  :         return ::operator new(_Bytes);

  0008b	50		 push	 eax
  0008c	e8 00 00 00 00	 call	 ??2@YAPAXI@Z		; operator new
$LN117@Emplace_re:
; File C:\Program Files\Microsoft Visual Studio\2022\Professional\VC\Tools\MSVC\14.44.35207\include\vector

; 900  :         _Alty_traits::construct(_Al, _STD _Unfancy(_Newvec + _Whereoff), _STD forward<_Valty>(_Val)...);

  00091	8b f8		 mov	 edi, eax
  00093	83 c4 04	 add	 esp, 4
$LN22@Emplace_re:
; File C:\Program Files\Microsoft Visual Studio\2022\Professional\VC\Tools\MSVC\14.44.35207\include\xmemory

; 732  :         ::new (const_cast<void*>(static_cast<const volatile void*>(_Ptr))) _Objty(_STD forward<_Types>(_Args)...);

  00096	8b 45 0c	 mov	 eax, DWORD PTR _<_Val_0>$[ebp]
; File C:\Program Files\Microsoft Visual Studio\2022\Professional\VC\Tools\MSVC\14.44.35207\include\vector

; 900  :         _Alty_traits::construct(_Al, _STD _Unfancy(_Newvec + _Whereoff), _STD forward<_Valty>(_Val)...);

  00099	83 e3 e0	 and	 ebx, -32		; ffffffe0H
  0009c	8d 0c 3b	 lea	 ecx, DWORD PTR [ebx+edi]

; 903  :         if (_Whereptr == _Mylast) { // at back, provide strong guarantee

  0009f	8b 5d 08	 mov	 ebx, DWORD PTR __Whereptr$[ebp]
  000a2	89 4d fc	 mov	 DWORD PTR tv710[ebp], ecx
; File C:\Program Files\Microsoft Visual Studio\2022\Professional\VC\Tools\MSVC\14.44.35207\include\xmemory

; 732  :         ::new (const_cast<void*>(static_cast<const volatile void*>(_Ptr))) _Objty(_STD forward<_Types>(_Args)...);

  000a5	0f 10 00	 movups	 xmm0, XMMWORD PTR [eax]
  000a8	0f 11 01	 movups	 XMMWORD PTR [ecx], xmm0
  000ab	0f 10 40 10	 movups	 xmm0, XMMWORD PTR [eax+16]
  000af	0f 11 41 10	 movups	 XMMWORD PTR [ecx+16], xmm0
; File C:\Program Files\Microsoft Visual Studio\2022\Professional\VC\Tools\MSVC\14.44.35207\include\vector

; 903  :         if (_Whereptr == _Mylast) { // at back, provide strong guarantee

  000b3	8b 56 04	 mov	 edx, DWORD PTR [esi+4]
  000b6	8b 0e		 mov	 ecx, DWORD PTR [esi]
  000b8	3b da		 cmp	 ebx, edx
  000ba	75 07		 jne	 SHORT $LN3@Emplace_re

; 909  :         } else { // provide basic guarantee

  000bc	8b 5d fc	 mov	 ebx, DWORD PTR tv710[ebp]
; File C:\Program Files\Microsoft Visual Studio\2022\Professional\VC\Tools\MSVC\14.44.35207\include\xmemory

; 1992 :             _STD _Copy_memmove(_UFirst, _ULast, _STD _Unfancy(_Dest));

  000bf	8b c7		 mov	 eax, edi
; File C:\Program Files\Microsoft Visual Studio\2022\Professional\VC\Tools\MSVC\14.44.35207\include\vector

; 909  :         } else { // provide basic guarantee

  000c1	eb 16		 jmp	 SHORT $LN58@Emplace_re
$LN3@Emplace_re:
; File C:\Program Files\Microsoft Visual Studio\2022\Professional\VC\Tools\MSVC\14.44.35207\include\xmemory

; 1992 :             _STD _Copy_memmove(_UFirst, _ULast, _STD _Unfancy(_Dest));

  000c3	57		 push	 edi
  000c4	53		 push	 ebx
  000c5	51		 push	 ecx
  000c6	e8 00 00 00 00	 call	 ??$_Copy_memmove@PAU__SECRETROOM_MONSTER@@PAU1@@std@@YAPAU__SECRETROOM_MONSTER@@PAU1@00@Z ; std::_Copy_memmove<__SECRETROOM_MONSTER *,__SECRETROOM_MONSTER *>
  000cb	8b 56 04	 mov	 edx, DWORD PTR [esi+4]
  000ce	8b cb		 mov	 ecx, ebx
; File C:\Program Files\Microsoft Visual Studio\2022\Professional\VC\Tools\MSVC\14.44.35207\include\vector

; 912  :             _STD _Uninitialized_move(_Whereptr, _Mylast, _Newvec + _Whereoff + 1, _Al);

  000d0	8b 5d fc	 mov	 ebx, DWORD PTR tv710[ebp]
; File C:\Program Files\Microsoft Visual Studio\2022\Professional\VC\Tools\MSVC\14.44.35207\include\xmemory

; 1992 :             _STD _Copy_memmove(_UFirst, _ULast, _STD _Unfancy(_Dest));

  000d3	83 c4 0c	 add	 esp, 12			; 0000000cH
; File C:\Program Files\Microsoft Visual Studio\2022\Professional\VC\Tools\MSVC\14.44.35207\include\vector

; 912  :             _STD _Uninitialized_move(_Whereptr, _Mylast, _Newvec + _Whereoff + 1, _Al);

  000d6	8d 43 20	 lea	 eax, DWORD PTR [ebx+32]
$LN58@Emplace_re:

; 913  :         }
; 914  : 
; 915  :         _Guard._New_begin = nullptr;

  000d9	50		 push	 eax
  000da	52		 push	 edx
  000db	51		 push	 ecx
  000dc	e8 00 00 00 00	 call	 ??$_Copy_memmove@PAU__SECRETROOM_MONSTER@@PAU1@@std@@YAPAU__SECRETROOM_MONSTER@@PAU1@00@Z ; std::_Copy_memmove<__SECRETROOM_MONSTER *,__SECRETROOM_MONSTER *>

; 2069 :         if (_Myfirst) { // destroy and deallocate old array

  000e1	8b 06		 mov	 eax, DWORD PTR [esi]

; 913  :         }
; 914  : 
; 915  :         _Guard._New_begin = nullptr;

  000e3	83 c4 0c	 add	 esp, 12			; 0000000cH

; 2069 :         if (_Myfirst) { // destroy and deallocate old array

  000e6	85 c0		 test	 eax, eax
  000e8	74 2c		 je	 SHORT $LN80@Emplace_re

; 2070 :             _STD _Destroy_range(_Myfirst, _Mylast, _Al);
; 2071 :             _ASAN_VECTOR_REMOVE;
; 2072 :             _Al.deallocate(_Myfirst, static_cast<size_type>(_Myend - _Myfirst));

  000ea	8b 4e 08	 mov	 ecx, DWORD PTR [esi+8]
  000ed	2b c8		 sub	 ecx, eax
; File C:\Program Files\Microsoft Visual Studio\2022\Professional\VC\Tools\MSVC\14.44.35207\include\xmemory

; 985  :         _STD _Deallocate<_New_alignof<_Ty>>(_Ptr, sizeof(_Ty) * _Count);

  000ef	83 e1 e0	 and	 ecx, -32		; ffffffe0H

; 284  :         if (_Bytes >= _Big_allocation_threshold) {

  000f2	81 f9 00 10 00
	00		 cmp	 ecx, 4096		; 00001000H
  000f8	72 12		 jb	 SHORT $LN85@Emplace_re

; 205  :     const uintptr_t _Ptr_container   = _Ptr_user[-1];

  000fa	8b 50 fc	 mov	 edx, DWORD PTR [eax-4]
  000fd	83 c1 23	 add	 ecx, 35			; 00000023H

; 206  : 
; 207  :     // If the following asserts, it likely means that we are performing
; 208  :     // an aligned delete on memory coming from an unaligned allocation.
; 209  :     _STL_ASSERT(_Ptr_user[-2] == _Big_allocation_sentinel, "invalid argument");
; 210  : 
; 211  :     // Extra paranoia on aligned allocation/deallocation; ensure _Ptr_container is
; 212  :     // in range [_Min_back_shift, _Non_user_size]
; 213  : #ifdef _DEBUG
; 214  :     constexpr uintptr_t _Min_back_shift = 2 * sizeof(void*);
; 215  : #else // ^^^ defined(_DEBUG) / !defined(_DEBUG) vvv
; 216  :     constexpr uintptr_t _Min_back_shift = sizeof(void*);
; 217  : #endif // ^^^ !defined(_DEBUG) ^^^
; 218  :     const uintptr_t _Back_shift = reinterpret_cast<uintptr_t>(_Ptr) - _Ptr_container;

  00100	2b c2		 sub	 eax, edx

; 219  :     _STL_VERIFY(_Back_shift >= _Min_back_shift && _Back_shift <= _Non_user_size, "invalid argument");

  00102	83 c0 fc	 add	 eax, -4			; fffffffcH
  00105	83 f8 1f	 cmp	 eax, 31			; 0000001fH
  00108	77 2c		 ja	 SHORT $LN84@Emplace_re

; 220  :     _Ptr = reinterpret_cast<void*>(_Ptr_container);

  0010a	8b c2		 mov	 eax, edx
$LN85@Emplace_re:

; 289  :         ::operator delete(_Ptr, _Bytes);

  0010c	51		 push	 ecx
  0010d	50		 push	 eax
  0010e	e8 00 00 00 00	 call	 ??3@YAXPAXI@Z		; operator delete
  00113	83 c4 08	 add	 esp, 8
$LN80@Emplace_re:
; File C:\Program Files\Microsoft Visual Studio\2022\Professional\VC\Tools\MSVC\14.44.35207\include\vector

; 2076 :         _Mylast  = _Newvec + _Newsize;

  00116	8b 45 f4	 mov	 eax, DWORD PTR __Newsize$1$[ebp]

; 2077 :         _Myend   = _Newvec + _Newcapacity;

  00119	8b 4d f8	 mov	 ecx, DWORD PTR $T1[ebp]
  0011c	c1 e0 05	 shl	 eax, 5
  0011f	03 c7		 add	 eax, edi
  00121	89 3e		 mov	 DWORD PTR [esi], edi
  00123	89 46 04	 mov	 DWORD PTR [esi+4], eax
  00126	03 cf		 add	 ecx, edi

; 918  :     }

  00128	5f		 pop	 edi

; 2077 :         _Myend   = _Newvec + _Newcapacity;

  00129	89 4e 08	 mov	 DWORD PTR [esi+8], ecx

; 916  :         _Change_array(_Newvec, _Newsize, _Newcapacity);
; 917  :         return _Newvec + _Whereoff;

  0012c	8b c3		 mov	 eax, ebx

; 918  :     }

  0012e	5e		 pop	 esi
  0012f	5b		 pop	 ebx
  00130	8b e5		 mov	 esp, ebp
  00132	5d		 pop	 ebp
  00133	c2 08 00	 ret	 8
$LN84@Emplace_re:
; File C:\Program Files\Microsoft Visual Studio\2022\Professional\VC\Tools\MSVC\14.44.35207\include\xmemory

; 219  :     _STL_VERIFY(_Back_shift >= _Min_back_shift && _Back_shift <= _Non_user_size, "invalid argument");

  00136	6a 00		 push	 0
  00138	6a 00		 push	 0
  0013a	6a 00		 push	 0
  0013c	6a 00		 push	 0
  0013e	6a 00		 push	 0
  00140	e8 00 00 00 00	 call	 __invoke_watson
$LN119@Emplace_re:
; File C:\Program Files\Microsoft Visual Studio\2022\Professional\VC\Tools\MSVC\14.44.35207\include\vector

; 888  :             _Xlength();

  00145	e8 00 00 00 00	 call	 ?_Xlength@?$vector@U__SECRETROOM_MONSTER@@V?$allocator@U__SECRETROOM_MONSTER@@@std@@@std@@CAXXZ ; std::vector<__SECRETROOM_MONSTER,std::allocator<__SECRETROOM_MONSTER> >::_Xlength
$LN120@Emplace_re:
; File C:\Program Files\Microsoft Visual Studio\2022\Professional\VC\Tools\MSVC\14.44.35207\include\xmemory

; 118  :             _Throw_bad_array_new_length(); // multiply overflow

  0014a	e8 00 00 00 00	 call	 ?_Throw_bad_array_new_length@std@@YAXXZ ; std::_Throw_bad_array_new_length
$LN116@Emplace_re:
  0014f	cc		 int	 3
??$_Emplace_reallocate@ABU__SECRETROOM_MONSTER@@@?$vector@U__SECRETROOM_MONSTER@@V?$allocator@U__SECRETROOM_MONSTER@@@std@@@std@@AAEPAU__SECRETROOM_MONSTER@@QAU2@ABU2@@Z ENDP ; std::vector<__SECRETROOM_MONSTER,std::allocator<__SECRETROOM_MONSTER> >::_Emplace_reallocate<__SECRETROOM_MONSTER const &>
_TEXT	ENDS
; Function compile flags: /Ogtp
; File C:\Program Files\Microsoft Visual Studio\2022\Professional\VC\Tools\MSVC\14.44.35207\include\xutility
;	COMDAT ??$_Copy_memmove@PAU__SECRETROOM_MONSTER@@PAU1@@std@@YAPAU__SECRETROOM_MONSTER@@PAU1@00@Z
_TEXT	SEGMENT
__First$ = 8						; size = 4
__Last$ = 12						; size = 4
__Dest$ = 16						; size = 4
??$_Copy_memmove@PAU__SECRETROOM_MONSTER@@PAU1@@std@@YAPAU__SECRETROOM_MONSTER@@PAU1@00@Z PROC ; std::_Copy_memmove<__SECRETROOM_MONSTER *,__SECRETROOM_MONSTER *>, COMDAT

; 4762 : _OutCtgIt _Copy_memmove(_CtgIt _First, _CtgIt _Last, _OutCtgIt _Dest) {

  00000	55		 push	 ebp
  00001	8b ec		 mov	 ebp, esp

; 4763 :     _STL_INTERNAL_CHECK(_First <= _Last);
; 4764 :     const auto _First_ptr    = _STD _To_address(_First);
; 4765 :     const auto _Last_ptr     = _STD _To_address(_Last);
; 4766 :     const auto _Object_count = static_cast<size_t>(_Last_ptr - _First_ptr);

  00003	8b 55 08	 mov	 edx, DWORD PTR __First$[ebp]
  00006	8b 4d 0c	 mov	 ecx, DWORD PTR __Last$[ebp]
  00009	2b ca		 sub	 ecx, edx
  0000b	8b c1		 mov	 eax, ecx
  0000d	c1 f8 05	 sar	 eax, 5

; 4767 :     const auto _First_ch     = const_cast<const char*>(reinterpret_cast<const volatile char*>(_First_ptr));
; 4768 :     const auto _Last_ch      = const_cast<const char*>(reinterpret_cast<const volatile char*>(_Last_ptr));
; 4769 :     const auto _Byte_count   = static_cast<size_t>(_Last_ch - _First_ch);
; 4770 :     return _STD _Copy_memmove_tail(_First_ch, _STD move(_Dest), _Byte_count, _Object_count);

  00010	50		 push	 eax
  00011	51		 push	 ecx
  00012	ff 75 10	 push	 DWORD PTR __Dest$[ebp]
  00015	52		 push	 edx
  00016	e8 00 00 00 00	 call	 ??$_Copy_memmove_tail@PAU__SECRETROOM_MONSTER@@@std@@YAPAU__SECRETROOM_MONSTER@@QBDQAU1@II@Z ; std::_Copy_memmove_tail<__SECRETROOM_MONSTER *>
  0001b	83 c4 10	 add	 esp, 16			; 00000010H

; 4771 : }

  0001e	5d		 pop	 ebp
  0001f	c3		 ret	 0
??$_Copy_memmove@PAU__SECRETROOM_MONSTER@@PAU1@@std@@YAPAU__SECRETROOM_MONSTER@@PAU1@00@Z ENDP ; std::_Copy_memmove<__SECRETROOM_MONSTER *,__SECRETROOM_MONSTER *>
_TEXT	ENDS
; Function compile flags: /Ogtp
; File C:\Program Files\Microsoft Visual Studio\2022\Professional\VC\Tools\MSVC\14.44.35207\include\xtree
; File C:\Program Files\Microsoft Visual Studio\2022\Professional\VC\Tools\MSVC\14.44.35207\include\utility
; File C:\Program Files\Microsoft Visual Studio\2022\Professional\VC\Tools\MSVC\14.44.35207\include\xmemory
; File C:\Program Files\Microsoft Visual Studio\2022\Professional\VC\Tools\MSVC\14.44.35207\include\xtree
;	COMDAT ??$_Erase_tree@V?$allocator@U?$_Tree_node@U?$pair@$$CBEPAVCSecretRoomContinent@@@std@@PAX@std@@@std@@@?$_Tree_val@U?$_Tree_simple_types@U?$pair@$$CBEPAVCSecretRoomContinent@@@std@@@std@@@std@@QAEXAAV?$allocator@U?$_Tree_node@U?$pair@$$CBEPAVCSecretRoomContinent@@@std@@PAX@std@@@1@PAU?$_Tree_node@U?$pair@$$CBEPAVCSecretRoomContinent@@@std@@PAX@1@@Z
_TEXT	SEGMENT
__Al$ = 8						; size = 4
__Rootnode$ = 12					; size = 4
??$_Erase_tree@V?$allocator@U?$_Tree_node@U?$pair@$$CBEPAVCSecretRoomContinent@@@std@@PAX@std@@@std@@@?$_Tree_val@U?$_Tree_simple_types@U?$pair@$$CBEPAVCSecretRoomContinent@@@std@@@std@@@std@@QAEXAAV?$allocator@U?$_Tree_node@U?$pair@$$CBEPAVCSecretRoomContinent@@@std@@PAX@std@@@1@PAU?$_Tree_node@U?$pair@$$CBEPAVCSecretRoomContinent@@@std@@PAX@1@@Z PROC ; std::_Tree_val<std::_Tree_simple_types<std::pair<unsigned char const ,CSecretRoomContinent *> > >::_Erase_tree<std::allocator<std::_Tree_node<std::pair<unsigned char const ,CSecretRoomContinent *>,void *> > >, COMDAT
; _this$ = ecx

; 767  :     void _Erase_tree(_Alnode& _Al, _Nodeptr _Rootnode) noexcept {

  00000	55		 push	 ebp
  00001	8b ec		 mov	 ebp, esp
  00003	53		 push	 ebx
  00004	56		 push	 esi

; 768  :         while (!_Rootnode->_Isnil) { // free subtrees, then node

  00005	8b 75 0c	 mov	 esi, DWORD PTR __Rootnode$[ebp]
  00008	8b d9		 mov	 ebx, ecx
  0000a	80 7e 0d 00	 cmp	 BYTE PTR [esi+13], 0
  0000e	75 25		 jne	 SHORT $LN34@Erase_tree
  00010	57		 push	 edi
  00011	8b 7d 08	 mov	 edi, DWORD PTR __Al$[ebp]
$LL2@Erase_tree:

; 769  :             _Erase_tree(_Al, _Rootnode->_Right);

  00014	ff 76 08	 push	 DWORD PTR [esi+8]
  00017	8b cb		 mov	 ecx, ebx
  00019	57		 push	 edi
  0001a	e8 00 00 00 00	 call	 ??$_Erase_tree@V?$allocator@U?$_Tree_node@U?$pair@$$CBEPAVCSecretRoomContinent@@@std@@PAX@std@@@std@@@?$_Tree_val@U?$_Tree_simple_types@U?$pair@$$CBEPAVCSecretRoomContinent@@@std@@@std@@@std@@QAEXAAV?$allocator@U?$_Tree_node@U?$pair@$$CBEPAVCSecretRoomContinent@@@std@@PAX@std@@@1@PAU?$_Tree_node@U?$pair@$$CBEPAVCSecretRoomContinent@@@std@@PAX@1@@Z ; std::_Tree_val<std::_Tree_simple_types<std::pair<unsigned char const ,CSecretRoomContinent *> > >::_Erase_tree<std::allocator<std::_Tree_node<std::pair<unsigned char const ,CSecretRoomContinent *>,void *> > >
; File C:\Program Files\Microsoft Visual Studio\2022\Professional\VC\Tools\MSVC\14.44.35207\include\utility

; 773  :     _Ty _Old_val = static_cast<_Ty&&>(_Val);

  0001f	8b c6		 mov	 eax, esi

; 774  :     _Val         = static_cast<_Other&&>(_New_val);

  00021	8b 36		 mov	 esi, DWORD PTR [esi]
; File C:\Program Files\Microsoft Visual Studio\2022\Professional\VC\Tools\MSVC\14.44.35207\include\xmemory

; 289  :         ::operator delete(_Ptr, _Bytes);

  00023	6a 18		 push	 24			; 00000018H
  00025	50		 push	 eax
  00026	e8 00 00 00 00	 call	 ??3@YAXPAXI@Z		; operator delete
  0002b	83 c4 08	 add	 esp, 8
; File C:\Program Files\Microsoft Visual Studio\2022\Professional\VC\Tools\MSVC\14.44.35207\include\xtree

; 768  :         while (!_Rootnode->_Isnil) { // free subtrees, then node

  0002e	80 7e 0d 00	 cmp	 BYTE PTR [esi+13], 0
  00032	74 e0		 je	 SHORT $LL2@Erase_tree
  00034	5f		 pop	 edi
$LN34@Erase_tree:
  00035	5e		 pop	 esi

; 770  :             _Alnode::value_type::_Freenode(_Al, _STD exchange(_Rootnode, _Rootnode->_Left));
; 771  :         }
; 772  :     }

  00036	5b		 pop	 ebx
  00037	5d		 pop	 ebp
  00038	c2 08 00	 ret	 8
??$_Erase_tree@V?$allocator@U?$_Tree_node@U?$pair@$$CBEPAVCSecretRoomContinent@@@std@@PAX@std@@@std@@@?$_Tree_val@U?$_Tree_simple_types@U?$pair@$$CBEPAVCSecretRoomContinent@@@std@@@std@@@std@@QAEXAAV?$allocator@U?$_Tree_node@U?$pair@$$CBEPAVCSecretRoomContinent@@@std@@PAX@std@@@1@PAU?$_Tree_node@U?$pair@$$CBEPAVCSecretRoomContinent@@@std@@PAX@1@@Z ENDP ; std::_Tree_val<std::_Tree_simple_types<std::pair<unsigned char const ,CSecretRoomContinent *> > >::_Erase_tree<std::allocator<std::_Tree_node<std::pair<unsigned char const ,CSecretRoomContinent *>,void *> > >
_TEXT	ENDS
; Function compile flags: /Ogtp
; File C:\Program Files\Microsoft Visual Studio\2022\Professional\VC\Tools\MSVC\14.44.35207\include\xtree
; File C:\Program Files\Microsoft Visual Studio\2022\Professional\VC\Tools\MSVC\14.44.35207\include\type_traits
; File C:\Program Files\Microsoft Visual Studio\2022\Professional\VC\Tools\MSVC\14.44.35207\include\xtree
; File C:\Program Files\Microsoft Visual Studio\2022\Professional\VC\Tools\MSVC\14.44.35207\include\type_traits
; File C:\Program Files\Microsoft Visual Studio\2022\Professional\VC\Tools\MSVC\14.44.35207\include\xtree
;	COMDAT ??$_Find_lower_bound@E@?$_Tree@V?$_Tmap_traits@EPAVCSecretRoomContinent@@U?$less@E@std@@V?$allocator@U?$pair@$$CBEPAVCSecretRoomContinent@@@std@@@3@$0A@@std@@@std@@IBE?AU?$_Tree_find_result@PAU?$_Tree_node@U?$pair@$$CBEPAVCSecretRoomContinent@@@std@@PAX@std@@@1@ABE@Z
_TEXT	SEGMENT
___$ReturnUdt$ = 8					; size = 4
__Keyval$ = 12						; size = 4
??$_Find_lower_bound@E@?$_Tree@V?$_Tmap_traits@EPAVCSecretRoomContinent@@U?$less@E@std@@V?$allocator@U?$pair@$$CBEPAVCSecretRoomContinent@@@std@@@3@$0A@@std@@@std@@IBE?AU?$_Tree_find_result@PAU?$_Tree_node@U?$pair@$$CBEPAVCSecretRoomContinent@@@std@@PAX@std@@@1@ABE@Z PROC ; std::_Tree<std::_Tmap_traits<unsigned char,CSecretRoomContinent *,std::less<unsigned char>,std::allocator<std::pair<unsigned char const ,CSecretRoomContinent *> >,0> >::_Find_lower_bound<unsigned char>, COMDAT
; _this$ = ecx

; 1628 :     _Tree_find_result<_Nodeptr> _Find_lower_bound(const _Keyty& _Keyval) const {

  00000	55		 push	 ebp
  00001	8b ec		 mov	 ebp, esp

; 1629 :         const auto _Scary = _Get_scary();
; 1630 :         _Tree_find_result<_Nodeptr> _Result{{_Scary->_Myhead->_Parent, _Tree_child::_Right}, _Scary->_Myhead};

  00003	8b 09		 mov	 ecx, DWORD PTR [ecx]
  00005	8b 55 08	 mov	 edx, DWORD PTR ___$ReturnUdt$[ebp]
  00008	8b 41 04	 mov	 eax, DWORD PTR [ecx+4]
  0000b	89 02		 mov	 DWORD PTR [edx], eax
  0000d	c7 42 04 00 00
	00 00		 mov	 DWORD PTR [edx+4], 0
  00014	89 4a 08	 mov	 DWORD PTR [edx+8], ecx

; 1631 :         _Nodeptr _Trynode = _Result._Location._Parent;
; 1632 :         while (!_Trynode->_Isnil) {

  00017	80 78 0d 00	 cmp	 BYTE PTR [eax+13], 0
  0001b	75 28		 jne	 SHORT $LN13@Find_lower
; File C:\Program Files\Microsoft Visual Studio\2022\Professional\VC\Tools\MSVC\14.44.35207\include\type_traits

; 2380 :         return _Left < _Right;

  0001d	8b 4d 0c	 mov	 ecx, DWORD PTR __Keyval$[ebp]
  00020	53		 push	 ebx
  00021	8a 19		 mov	 bl, BYTE PTR [ecx]
$LL2@Find_lower:
; File C:\Program Files\Microsoft Visual Studio\2022\Professional\VC\Tools\MSVC\14.44.35207\include\xtree

; 1633 :             _Result._Location._Parent = _Trynode;

  00023	89 02		 mov	 DWORD PTR [edx], eax
; File C:\Program Files\Microsoft Visual Studio\2022\Professional\VC\Tools\MSVC\14.44.35207\include\type_traits

; 2380 :         return _Left < _Right;

  00025	38 58 10	 cmp	 BYTE PTR [eax+16], bl
; File C:\Program Files\Microsoft Visual Studio\2022\Professional\VC\Tools\MSVC\14.44.35207\include\xtree

; 1634 :             if (_DEBUG_LT_PRED(_Getcomp(), _Traits::_Kfn(_Trynode->_Myval), _Keyval)) {

  00028	73 07		 jae	 SHORT $LN4@Find_lower

; 1635 :                 _Result._Location._Child = _Tree_child::_Right;
; 1636 :                 _Trynode                 = _Trynode->_Right;

  0002a	8b 40 08	 mov	 eax, DWORD PTR [eax+8]
  0002d	33 c9		 xor	 ecx, ecx

; 1637 :             } else {

  0002f	eb 0a		 jmp	 SHORT $LN5@Find_lower
$LN4@Find_lower:

; 1638 :                 _Result._Location._Child = _Tree_child::_Left;
; 1639 :                 _Result._Bound           = _Trynode;

  00031	89 42 08	 mov	 DWORD PTR [edx+8], eax

; 1640 :                 _Trynode                 = _Trynode->_Left;

  00034	b9 01 00 00 00	 mov	 ecx, 1
  00039	8b 00		 mov	 eax, DWORD PTR [eax]
$LN5@Find_lower:

; 1631 :         _Nodeptr _Trynode = _Result._Location._Parent;
; 1632 :         while (!_Trynode->_Isnil) {

  0003b	89 4a 04	 mov	 DWORD PTR [edx+4], ecx
  0003e	80 78 0d 00	 cmp	 BYTE PTR [eax+13], 0
  00042	74 df		 je	 SHORT $LL2@Find_lower
  00044	5b		 pop	 ebx
$LN13@Find_lower:

; 1641 :             }
; 1642 :         }
; 1643 : 
; 1644 :         return _Result;
; 1645 :     }

  00045	8b c2		 mov	 eax, edx
  00047	5d		 pop	 ebp
  00048	c2 08 00	 ret	 8
??$_Find_lower_bound@E@?$_Tree@V?$_Tmap_traits@EPAVCSecretRoomContinent@@U?$less@E@std@@V?$allocator@U?$pair@$$CBEPAVCSecretRoomContinent@@@std@@@3@$0A@@std@@@std@@IBE?AU?$_Tree_find_result@PAU?$_Tree_node@U?$pair@$$CBEPAVCSecretRoomContinent@@@std@@PAX@std@@@1@ABE@Z ENDP ; std::_Tree<std::_Tmap_traits<unsigned char,CSecretRoomContinent *,std::less<unsigned char>,std::allocator<std::pair<unsigned char const ,CSecretRoomContinent *> >,0> >::_Find_lower_bound<unsigned char>
_TEXT	ENDS
; Function compile flags: /Ogtp
; File C:\Program Files\Microsoft Visual Studio\2022\Professional\VC\Tools\MSVC\14.44.35207\include\vector
; File C:\Program Files\Microsoft Visual Studio\2022\Professional\VC\Tools\MSVC\14.44.35207\include\xmemory
; File C:\Program Files\Microsoft Visual Studio\2022\Professional\VC\Tools\MSVC\14.44.35207\include\vector
; File C:\Program Files\Microsoft Visual Studio\2022\Professional\VC\Tools\MSVC\14.44.35207\include\xmemory
; File C:\Program Files\Microsoft Visual Studio\2022\Professional\VC\Tools\MSVC\14.44.35207\include\vector
; File C:\Program Files\Microsoft Visual Studio\2022\Professional\VC\Tools\MSVC\14.44.35207\include\xmemory
; File C:\Program Files\Microsoft Visual Studio\2022\Professional\VC\Tools\MSVC\14.44.35207\include\vector
; File C:\Program Files\Microsoft Visual Studio\2022\Professional\VC\Tools\MSVC\14.44.35207\include\xmemory
; File C:\Program Files\Microsoft Visual Studio\2022\Professional\VC\Tools\MSVC\14.44.35207\include\vector
; File C:\Program Files\Microsoft Visual Studio\2022\Professional\VC\Tools\MSVC\14.44.35207\include\xmemory
; File C:\Program Files\Microsoft Visual Studio\2022\Professional\VC\Tools\MSVC\14.44.35207\include\vector
; File C:\Program Files\Microsoft Visual Studio\2022\Professional\VC\Tools\MSVC\14.44.35207\include\xmemory
; File C:\Program Files\Microsoft Visual Studio\2022\Professional\VC\Tools\MSVC\14.44.35207\include\vector
; File C:\Program Files\Microsoft Visual Studio\2022\Professional\VC\Tools\MSVC\14.44.35207\include\xmemory
; File C:\Program Files\Microsoft Visual Studio\2022\Professional\VC\Tools\MSVC\14.44.35207\include\vector
; File C:\Program Files\Microsoft Visual Studio\2022\Professional\VC\Tools\MSVC\14.44.35207\include\xmemory
; File C:\Program Files\Microsoft Visual Studio\2022\Professional\VC\Tools\MSVC\14.44.35207\include\vector
; File C:\Program Files\Microsoft Visual Studio\2022\Professional\VC\Tools\MSVC\14.44.35207\include\xmemory
; File C:\Program Files\Microsoft Visual Studio\2022\Professional\VC\Tools\MSVC\14.44.35207\include\vector
; File C:\Program Files\Microsoft Visual Studio\2022\Professional\VC\Tools\MSVC\14.44.35207\include\xmemory
; File C:\Program Files\Microsoft Visual Studio\2022\Professional\VC\Tools\MSVC\14.44.35207\include\vector
;	COMDAT ??$_Emplace_reallocate@ABU__SECRETROOM_TENDER@@@?$vector@U__SECRETROOM_TENDER@@V?$allocator@U__SECRETROOM_TENDER@@@std@@@std@@AAEPAU__SECRETROOM_TENDER@@QAU2@ABU2@@Z
_TEXT	SEGMENT
__Guard$ = -52						; size = 20
tv608 = -32						; size = 4
__Newsize$1$ = -28					; size = 4
_this$1$ = -24						; size = 4
__Whereoff$1$ = -20					; size = 4
$T2 = -20						; size = 4
tv609 = -16						; size = 4
__$EHRec$ = -12						; size = 12
__Whereptr$ = 8						; size = 4
_<_Val_0>$ = 12						; size = 4
??$_Emplace_reallocate@ABU__SECRETROOM_TENDER@@@?$vector@U__SECRETROOM_TENDER@@V?$allocator@U__SECRETROOM_TENDER@@@std@@@std@@AAEPAU__SECRETROOM_TENDER@@QAU2@ABU2@@Z PROC ; std::vector<__SECRETROOM_TENDER,std::allocator<__SECRETROOM_TENDER> >::_Emplace_reallocate<__SECRETROOM_TENDER const &>, COMDAT
; _this$ = ecx

; 875  :     _CONSTEXPR20 pointer _Emplace_reallocate(const pointer _Whereptr, _Valty&&... _Val) {

  00000	55		 push	 ebp
  00001	8b ec		 mov	 ebp, esp
  00003	6a ff		 push	 -1
  00005	68 00 00 00 00	 push	 __ehhandler$??$_Emplace_reallocate@ABU__SECRETROOM_TENDER@@@?$vector@U__SECRETROOM_TENDER@@V?$allocator@U__SECRETROOM_TENDER@@@std@@@std@@AAEPAU__SECRETROOM_TENDER@@QAU2@ABU2@@Z
  0000a	64 a1 00 00 00
	00		 mov	 eax, DWORD PTR fs:0
  00010	50		 push	 eax
  00011	83 ec 28	 sub	 esp, 40			; 00000028H
  00014	53		 push	 ebx
  00015	56		 push	 esi
  00016	57		 push	 edi
  00017	a1 00 00 00 00	 mov	 eax, DWORD PTR ___security_cookie
  0001c	33 c5		 xor	 eax, ebp
  0001e	50		 push	 eax
  0001f	8d 45 f4	 lea	 eax, DWORD PTR __$EHRec$[ebp]
  00022	64 a3 00 00 00
	00		 mov	 DWORD PTR fs:0, eax
  00028	8b f9		 mov	 edi, ecx
  0002a	89 7d e8	 mov	 DWORD PTR _this$1$[ebp], edi

; 876  :         // reallocate and insert by perfectly forwarding _Val at _Whereptr
; 877  :         _Alty& _Al        = _Getal();
; 878  :         auto& _My_data    = _Mypair._Myval2;
; 879  :         pointer& _Myfirst = _My_data._Myfirst;
; 880  :         pointer& _Mylast  = _My_data._Mylast;
; 881  : 
; 882  :         _STL_INTERNAL_CHECK(_Mylast == _My_data._Myend); // check that we have no unused capacity
; 883  : 
; 884  :         const auto _Whereoff = static_cast<size_type>(_Whereptr - _Myfirst);

  0002d	8b 37		 mov	 esi, DWORD PTR [edi]
  0002f	b8 e9 a2 8b 2e	 mov	 eax, 780903145		; 2e8ba2e9H
  00034	8b 55 08	 mov	 edx, DWORD PTR __Whereptr$[ebp]

; 885  :         const auto _Oldsize  = static_cast<size_type>(_Mylast - _Myfirst);

  00037	8b 4f 04	 mov	 ecx, DWORD PTR [edi+4]
  0003a	2b d6		 sub	 edx, esi
  0003c	f7 ea		 imul	 edx
  0003e	2b ce		 sub	 ecx, esi
  00040	c1 fa 03	 sar	 edx, 3
  00043	8b c2		 mov	 eax, edx
  00045	c1 e8 1f	 shr	 eax, 31			; 0000001fH
  00048	03 c2		 add	 eax, edx
  0004a	89 45 ec	 mov	 DWORD PTR __Whereoff$1$[ebp], eax
  0004d	b8 e9 a2 8b 2e	 mov	 eax, 780903145		; 2e8ba2e9H
  00052	f7 e9		 imul	 ecx
  00054	c1 fa 03	 sar	 edx, 3
  00057	8b c2		 mov	 eax, edx
  00059	c1 e8 1f	 shr	 eax, 31			; 0000001fH
  0005c	03 c2		 add	 eax, edx

; 886  : 
; 887  :         if (_Oldsize == max_size()) {

  0005e	3d 5d 74 d1 05	 cmp	 eax, 97612893		; 05d1745dH
  00063	0f 84 80 01 00
	00		 je	 $LN127@Emplace_re

; 1924 :         return static_cast<size_type>(_My_data._Myend - _My_data._Myfirst);

  00069	8b 4f 08	 mov	 ecx, DWORD PTR [edi+8]

; 889  :         }
; 890  : 
; 891  :         const size_type _Newsize = _Oldsize + 1;

  0006c	8d 58 01	 lea	 ebx, DWORD PTR [eax+1]

; 1924 :         return static_cast<size_type>(_My_data._Myend - _My_data._Myfirst);

  0006f	2b ce		 sub	 ecx, esi

; 889  :         }
; 890  : 
; 891  :         const size_type _Newsize = _Oldsize + 1;

  00071	89 5d e4	 mov	 DWORD PTR __Newsize$1$[ebp], ebx

; 1924 :         return static_cast<size_type>(_My_data._Myend - _My_data._Myfirst);

  00074	b8 e9 a2 8b 2e	 mov	 eax, 780903145		; 2e8ba2e9H
  00079	f7 e9		 imul	 ecx

; 2011 :         if (_Oldcapacity > _Max - _Oldcapacity / 2) {

  0007b	b8 5d 74 d1 05	 mov	 eax, 97612893		; 05d1745dH

; 1924 :         return static_cast<size_type>(_My_data._Myend - _My_data._Myfirst);

  00080	c1 fa 03	 sar	 edx, 3
  00083	8b ca		 mov	 ecx, edx
  00085	c1 e9 1f	 shr	 ecx, 31			; 0000001fH
  00088	03 ca		 add	 ecx, edx

; 2011 :         if (_Oldcapacity > _Max - _Oldcapacity / 2) {

  0008a	8b d1		 mov	 edx, ecx
  0008c	d1 ea		 shr	 edx, 1
  0008e	2b c2		 sub	 eax, edx
  00090	3b c8		 cmp	 ecx, eax
  00092	76 19		 jbe	 SHORT $LN8@Emplace_re

; 2012 :             return _Max; // geometric growth would overflow

  00094	b8 fc ff ff ff	 mov	 eax, -4			; fffffffcH
  00099	c7 45 f0 fc ff
	ff ff		 mov	 DWORD PTR tv609[ebp], -4 ; fffffffcH
; File C:\Program Files\Microsoft Visual Studio\2022\Professional\VC\Tools\MSVC\14.44.35207\include\xmemory

; 253  :             return _Allocate_manually_vector_aligned<_Traits>(_Bytes);

  000a0	50		 push	 eax
; File C:\Program Files\Microsoft Visual Studio\2022\Professional\VC\Tools\MSVC\14.44.35207\include\vector

; 2012 :             return _Max; // geometric growth would overflow

  000a1	be 5d 74 d1 05	 mov	 esi, 97612893		; 05d1745dH
; File C:\Program Files\Microsoft Visual Studio\2022\Professional\VC\Tools\MSVC\14.44.35207\include\xmemory

; 253  :             return _Allocate_manually_vector_aligned<_Traits>(_Bytes);

  000a6	e8 00 00 00 00	 call	 ??$_Allocate_manually_vector_aligned@U_Default_allocate_traits@std@@@std@@YAPAXI@Z ; std::_Allocate_manually_vector_aligned<std::_Default_allocate_traits>
  000ab	eb 39		 jmp	 SHORT $LN125@Emplace_re
$LN8@Emplace_re:
; File C:\Program Files\Microsoft Visual Studio\2022\Professional\VC\Tools\MSVC\14.44.35207\include\vector

; 2015 :         const size_type _Geometric = _Oldcapacity + _Oldcapacity / 2;

  000ad	8d 04 0a	 lea	 eax, DWORD PTR [edx+ecx]
; File C:\Program Files\Microsoft Visual Studio\2022\Professional\VC\Tools\MSVC\14.44.35207\include\xmemory

; 117  :         if (_Count > _Max_possible) {

  000b0	8b f3		 mov	 esi, ebx
  000b2	3b c3		 cmp	 eax, ebx
  000b4	0f 43 f0	 cmovae	 esi, eax
  000b7	81 fe 5d 74 d1
	05		 cmp	 esi, 97612893		; 05d1745dH
  000bd	0f 87 2b 01 00
	00		 ja	 $LN128@Emplace_re

; 119  :         }
; 120  :     }
; 121  : 
; 122  :     return _Count * _Ty_size;

  000c3	6b c6 2c	 imul	 eax, esi, 44
  000c6	89 45 f0	 mov	 DWORD PTR tv609[ebp], eax

; 227  :     if (_Bytes == 0) {

  000c9	85 c0		 test	 eax, eax
  000cb	75 04		 jne	 SHORT $LN23@Emplace_re

; 228  :         return nullptr;

  000cd	33 db		 xor	 ebx, ebx
  000cf	eb 1a		 jmp	 SHORT $LN22@Emplace_re
$LN23@Emplace_re:

; 229  :     }
; 230  : 
; 231  : #if _HAS_CXX20 // TRANSITION, GH-1532
; 232  :     if (_STD is_constant_evaluated()) {
; 233  :         return _Traits::_Allocate(_Bytes);
; 234  :     }
; 235  : #endif // _HAS_CXX20
; 236  : 
; 237  : #ifdef __cpp_aligned_new
; 238  :     if constexpr (_Align > __STDCPP_DEFAULT_NEW_ALIGNMENT__) {
; 239  :         size_t _Passed_align = _Align;
; 240  : #if defined(_M_IX86) || defined(_M_X64)
; 241  :         if (_Bytes >= _Big_allocation_threshold) {
; 242  :             // boost the alignment of big allocations to help autovectorization
; 243  :             _Passed_align = (_STD max)(_Align, _Big_allocation_alignment);
; 244  :         }
; 245  : #endif // defined(_M_IX86) || defined(_M_X64)
; 246  :         return _Traits::_Allocate_aligned(_Bytes, _Passed_align);
; 247  :     } else
; 248  : #endif // defined(__cpp_aligned_new)
; 249  :     {
; 250  : #if defined(_M_IX86) || defined(_M_X64)
; 251  :         if (_Bytes >= _Big_allocation_threshold) {

  000d1	3d 00 10 00 00	 cmp	 eax, 4096		; 00001000H
  000d6	72 08		 jb	 SHORT $LN24@Emplace_re

; 253  :             return _Allocate_manually_vector_aligned<_Traits>(_Bytes);

  000d8	50		 push	 eax
  000d9	e8 00 00 00 00	 call	 ??$_Allocate_manually_vector_aligned@U_Default_allocate_traits@std@@@std@@YAPAXI@Z ; std::_Allocate_manually_vector_aligned<std::_Default_allocate_traits>
  000de	eb 06		 jmp	 SHORT $LN125@Emplace_re
$LN24@Emplace_re:

; 136  :         return ::operator new(_Bytes);

  000e0	50		 push	 eax
  000e1	e8 00 00 00 00	 call	 ??2@YAPAXI@Z		; operator new
$LN125@Emplace_re:
; File C:\Program Files\Microsoft Visual Studio\2022\Professional\VC\Tools\MSVC\14.44.35207\include\vector

; 895  :         const pointer _Constructed_last = _Newvec + _Whereoff + 1;

  000e6	8b d8		 mov	 ebx, eax
  000e8	83 c4 04	 add	 esp, 4
$LN22@Emplace_re:
  000eb	6b 4d ec 2c	 imul	 ecx, DWORD PTR __Whereoff$1$[ebp], 44

; 897  :         _Reallocation_guard _Guard{_Al, _Newvec, _Newcapacity, _Constructed_last, _Constructed_last};

  000ef	89 7d cc	 mov	 DWORD PTR __Guard$[ebp], edi
  000f2	89 5d d0	 mov	 DWORD PTR __Guard$[ebp+4], ebx
  000f5	89 75 d4	 mov	 DWORD PTR __Guard$[ebp+8], esi
  000f8	03 cb		 add	 ecx, ebx
  000fa	89 4d e0	 mov	 DWORD PTR tv608[ebp], ecx
  000fd	8d 41 2c	 lea	 eax, DWORD PTR [ecx+44]
  00100	89 45 ec	 mov	 DWORD PTR $T2[ebp], eax
  00103	89 45 d8	 mov	 DWORD PTR __Guard$[ebp+12], eax
  00106	89 45 dc	 mov	 DWORD PTR __Guard$[ebp+16], eax
; File C:\Program Files\Microsoft Visual Studio\2022\Professional\VC\Tools\MSVC\14.44.35207\include\xmemory

; 732  :         ::new (const_cast<void*>(static_cast<const volatile void*>(_Ptr))) _Objty(_STD forward<_Types>(_Args)...);

  00109	ff 75 0c	 push	 DWORD PTR _<_Val_0>$[ebp]
; File C:\Program Files\Microsoft Visual Studio\2022\Professional\VC\Tools\MSVC\14.44.35207\include\vector

; 897  :         _Reallocation_guard _Guard{_Al, _Newvec, _Newcapacity, _Constructed_last, _Constructed_last};

  0010c	c7 45 fc 00 00
	00 00		 mov	 DWORD PTR __$EHRec$[ebp+8], 0
; File C:\Program Files\Microsoft Visual Studio\2022\Professional\VC\Tools\MSVC\14.44.35207\include\xmemory

; 732  :         ::new (const_cast<void*>(static_cast<const volatile void*>(_Ptr))) _Objty(_STD forward<_Types>(_Args)...);

  00113	e8 00 00 00 00	 call	 ??0__SECRETROOM_TENDER@@QAE@ABU0@@Z
; File C:\Program Files\Microsoft Visual Studio\2022\Professional\VC\Tools\MSVC\14.44.35207\include\vector

; 903  :         if (_Whereptr == _Mylast) { // at back, provide strong guarantee

  00118	8b 57 04	 mov	 edx, DWORD PTR [edi+4]
  0011b	8b 75 08	 mov	 esi, DWORD PTR __Whereptr$[ebp]
  0011e	8b 0f		 mov	 ecx, DWORD PTR [edi]
  00120	3b f2		 cmp	 esi, edx
  00122	75 04		 jne	 SHORT $LN3@Emplace_re

; 904  :             if constexpr (is_nothrow_move_constructible_v<_Ty> || !is_copy_constructible_v<_Ty>) {
; 905  :                 _STD _Uninitialized_move(_Myfirst, _Mylast, _Newvec, _Al);

  00124	8b c3		 mov	 eax, ebx

; 906  :             } else {
; 907  :                 _STD _Uninitialized_copy(_Myfirst, _Mylast, _Newvec, _Al);
; 908  :             }
; 909  :         } else { // provide basic guarantee

  00126	eb 14		 jmp	 SHORT $LN4@Emplace_re
$LN3@Emplace_re:

; 910  :             _STD _Uninitialized_move(_Myfirst, _Whereptr, _Newvec, _Al);

  00128	57		 push	 edi
  00129	53		 push	 ebx
  0012a	56		 push	 esi
  0012b	51		 push	 ecx
  0012c	e8 00 00 00 00	 call	 ??$_Uninitialized_move@PAU__SECRETROOM_TENDER@@V?$allocator@U__SECRETROOM_TENDER@@@std@@@std@@YAPAU__SECRETROOM_TENDER@@QAU1@0PAU1@AAV?$allocator@U__SECRETROOM_TENDER@@@0@@Z ; std::_Uninitialized_move<__SECRETROOM_TENDER *,std::allocator<__SECRETROOM_TENDER> >

; 911  :             _Constructed_first = _Newvec;
; 912  :             _STD _Uninitialized_move(_Whereptr, _Mylast, _Newvec + _Whereoff + 1, _Al);

  00131	8b 57 04	 mov	 edx, DWORD PTR [edi+4]
  00134	83 c4 10	 add	 esp, 16			; 00000010H
  00137	8b 45 ec	 mov	 eax, DWORD PTR $T2[ebp]
  0013a	8b ce		 mov	 ecx, esi
$LN4@Emplace_re:

; 913  :         }
; 914  : 
; 915  :         _Guard._New_begin = nullptr;

  0013c	57		 push	 edi
  0013d	50		 push	 eax
  0013e	52		 push	 edx
  0013f	51		 push	 ecx
  00140	e8 00 00 00 00	 call	 ??$_Uninitialized_move@PAU__SECRETROOM_TENDER@@V?$allocator@U__SECRETROOM_TENDER@@@std@@@std@@YAPAU__SECRETROOM_TENDER@@QAU1@0PAU1@AAV?$allocator@U__SECRETROOM_TENDER@@@0@@Z ; std::_Uninitialized_move<__SECRETROOM_TENDER *,std::allocator<__SECRETROOM_TENDER> >

; 2069 :         if (_Myfirst) { // destroy and deallocate old array

  00145	8b 37		 mov	 esi, DWORD PTR [edi]

; 913  :         }
; 914  : 
; 915  :         _Guard._New_begin = nullptr;

  00147	83 c4 10	 add	 esp, 16			; 00000010H

; 2069 :         if (_Myfirst) { // destroy and deallocate old array

  0014a	85 f6		 test	 esi, esi
  0014c	74 62		 je	 SHORT $LN64@Emplace_re

; 2070 :             _STD _Destroy_range(_Myfirst, _Mylast, _Al);

  0014e	8b 47 04	 mov	 eax, DWORD PTR [edi+4]
; File C:\Program Files\Microsoft Visual Studio\2022\Professional\VC\Tools\MSVC\14.44.35207\include\xmemory

; 1102 :         for (; _First != _Last; ++_First) {

  00151	3b f0		 cmp	 esi, eax
  00153	74 1c		 je	 SHORT $LN38@Emplace_re
  00155	8b f8		 mov	 edi, eax
$LL39@Emplace_re:
; File C:\Program Files\Microsoft Visual Studio\2022\Professional\VC\Tools\MSVC\14.44.35207\include\vector

; 830  :         _Tidy();

  00157	8d 4e 20	 lea	 ecx, DWORD PTR [esi+32]
  0015a	e8 00 00 00 00	 call	 ?_Tidy@?$vector@U__SECRETROOM_MONSTER@@V?$allocator@U__SECRETROOM_MONSTER@@@std@@@std@@AAEXXZ ; std::vector<__SECRETROOM_MONSTER,std::allocator<__SECRETROOM_MONSTER> >::_Tidy
  0015f	8d 4e 14	 lea	 ecx, DWORD PTR [esi+20]
  00162	e8 00 00 00 00	 call	 ?_Tidy@?$vector@KV?$allocator@K@std@@@std@@AAEXXZ ; std::vector<unsigned long,std::allocator<unsigned long> >::_Tidy
; File C:\Program Files\Microsoft Visual Studio\2022\Professional\VC\Tools\MSVC\14.44.35207\include\xmemory

; 1102 :         for (; _First != _Last; ++_First) {

  00167	83 c6 2c	 add	 esi, 44			; 0000002cH
  0016a	3b f7		 cmp	 esi, edi
  0016c	75 e9		 jne	 SHORT $LL39@Emplace_re
  0016e	8b 7d e8	 mov	 edi, DWORD PTR _this$1$[ebp]
$LN38@Emplace_re:
; File C:\Program Files\Microsoft Visual Studio\2022\Professional\VC\Tools\MSVC\14.44.35207\include\vector

; 2072 :             _Al.deallocate(_Myfirst, static_cast<size_type>(_Myend - _Myfirst));

  00171	8b 4f 08	 mov	 ecx, DWORD PTR [edi+8]
  00174	b8 e9 a2 8b 2e	 mov	 eax, 780903145		; 2e8ba2e9H
  00179	8b 37		 mov	 esi, DWORD PTR [edi]
  0017b	2b ce		 sub	 ecx, esi
  0017d	f7 e9		 imul	 ecx
  0017f	c1 fa 03	 sar	 edx, 3
  00182	8b c2		 mov	 eax, edx
  00184	c1 e8 1f	 shr	 eax, 31			; 0000001fH
  00187	03 c2		 add	 eax, edx
; File C:\Program Files\Microsoft Visual Studio\2022\Professional\VC\Tools\MSVC\14.44.35207\include\xmemory

; 985  :         _STD _Deallocate<_New_alignof<_Ty>>(_Ptr, sizeof(_Ty) * _Count);

  00189	6b c8 2c	 imul	 ecx, eax, 44

; 284  :         if (_Bytes >= _Big_allocation_threshold) {

  0018c	81 f9 00 10 00
	00		 cmp	 ecx, 4096		; 00001000H
  00192	72 12		 jb	 SHORT $LN69@Emplace_re

; 205  :     const uintptr_t _Ptr_container   = _Ptr_user[-1];

  00194	8b 56 fc	 mov	 edx, DWORD PTR [esi-4]
  00197	83 c1 23	 add	 ecx, 35			; 00000023H

; 206  : 
; 207  :     // If the following asserts, it likely means that we are performing
; 208  :     // an aligned delete on memory coming from an unaligned allocation.
; 209  :     _STL_ASSERT(_Ptr_user[-2] == _Big_allocation_sentinel, "invalid argument");
; 210  : 
; 211  :     // Extra paranoia on aligned allocation/deallocation; ensure _Ptr_container is
; 212  :     // in range [_Min_back_shift, _Non_user_size]
; 213  : #ifdef _DEBUG
; 214  :     constexpr uintptr_t _Min_back_shift = 2 * sizeof(void*);
; 215  : #else // ^^^ defined(_DEBUG) / !defined(_DEBUG) vvv
; 216  :     constexpr uintptr_t _Min_back_shift = sizeof(void*);
; 217  : #endif // ^^^ !defined(_DEBUG) ^^^
; 218  :     const uintptr_t _Back_shift = reinterpret_cast<uintptr_t>(_Ptr) - _Ptr_container;

  0019a	2b f2		 sub	 esi, edx

; 219  :     _STL_VERIFY(_Back_shift >= _Min_back_shift && _Back_shift <= _Non_user_size, "invalid argument");

  0019c	8d 46 fc	 lea	 eax, DWORD PTR [esi-4]
  0019f	83 f8 1f	 cmp	 eax, 31			; 0000001fH
  001a2	77 36		 ja	 SHORT $LN68@Emplace_re

; 220  :     _Ptr = reinterpret_cast<void*>(_Ptr_container);

  001a4	8b f2		 mov	 esi, edx
$LN69@Emplace_re:

; 289  :         ::operator delete(_Ptr, _Bytes);

  001a6	51		 push	 ecx
  001a7	56		 push	 esi
  001a8	e8 00 00 00 00	 call	 ??3@YAXPAXI@Z		; operator delete
  001ad	83 c4 08	 add	 esp, 8
$LN64@Emplace_re:
; File C:\Program Files\Microsoft Visual Studio\2022\Professional\VC\Tools\MSVC\14.44.35207\include\vector

; 2076 :         _Mylast  = _Newvec + _Newsize;

  001b0	6b 4d e4 2c	 imul	 ecx, DWORD PTR __Newsize$1$[ebp], 44

; 916  :         _Change_array(_Newvec, _Newsize, _Newcapacity);
; 917  :         return _Newvec + _Whereoff;

  001b4	8b 45 e0	 mov	 eax, DWORD PTR tv608[ebp]

; 2075 :         _Myfirst = _Newvec;

  001b7	89 1f		 mov	 DWORD PTR [edi], ebx

; 2076 :         _Mylast  = _Newvec + _Newsize;

  001b9	03 cb		 add	 ecx, ebx
  001bb	89 4f 04	 mov	 DWORD PTR [edi+4], ecx

; 2077 :         _Myend   = _Newvec + _Newcapacity;

  001be	8b 4d f0	 mov	 ecx, DWORD PTR tv609[ebp]
  001c1	03 cb		 add	 ecx, ebx
  001c3	89 4f 08	 mov	 DWORD PTR [edi+8], ecx

; 918  :     }

  001c6	8b 4d f4	 mov	 ecx, DWORD PTR __$EHRec$[ebp]
  001c9	64 89 0d 00 00
	00 00		 mov	 DWORD PTR fs:0, ecx
  001d0	59		 pop	 ecx
  001d1	5f		 pop	 edi
  001d2	5e		 pop	 esi
  001d3	5b		 pop	 ebx
  001d4	8b e5		 mov	 esp, ebp
  001d6	5d		 pop	 ebp
  001d7	c2 08 00	 ret	 8
$LN68@Emplace_re:
; File C:\Program Files\Microsoft Visual Studio\2022\Professional\VC\Tools\MSVC\14.44.35207\include\xmemory

; 219  :     _STL_VERIFY(_Back_shift >= _Min_back_shift && _Back_shift <= _Non_user_size, "invalid argument");

  001da	6a 00		 push	 0
  001dc	6a 00		 push	 0
  001de	6a 00		 push	 0
  001e0	6a 00		 push	 0
  001e2	6a 00		 push	 0
  001e4	e8 00 00 00 00	 call	 __invoke_watson
$LN127@Emplace_re:
; File C:\Program Files\Microsoft Visual Studio\2022\Professional\VC\Tools\MSVC\14.44.35207\include\vector

; 888  :             _Xlength();

  001e9	e8 00 00 00 00	 call	 ?_Xlength@?$vector@U__SECRETROOM_TENDER@@V?$allocator@U__SECRETROOM_TENDER@@@std@@@std@@CAXXZ ; std::vector<__SECRETROOM_TENDER,std::allocator<__SECRETROOM_TENDER> >::_Xlength
$LN128@Emplace_re:
; File C:\Program Files\Microsoft Visual Studio\2022\Professional\VC\Tools\MSVC\14.44.35207\include\xmemory

; 118  :             _Throw_bad_array_new_length(); // multiply overflow

  001ee	e8 00 00 00 00	 call	 ?_Throw_bad_array_new_length@std@@YAXXZ ; std::_Throw_bad_array_new_length
$LN124@Emplace_re:
  001f3	cc		 int	 3
_TEXT	ENDS
;	COMDAT text$x
text$x	SEGMENT
__unwindfunclet$??$_Emplace_reallocate@ABU__SECRETROOM_TENDER@@@?$vector@U__SECRETROOM_TENDER@@V?$allocator@U__SECRETROOM_TENDER@@@std@@@std@@AAEPAU__SECRETROOM_TENDER@@QAU2@ABU2@@Z$0:
  00000	8d 4d cc	 lea	 ecx, DWORD PTR __Guard$[ebp]
  00003	e9 00 00 00 00	 jmp	 ??1_Reallocation_guard@?$vector@U__SECRETROOM_TENDER@@V?$allocator@U__SECRETROOM_TENDER@@@std@@@std@@QAE@XZ ; std::vector<__SECRETROOM_TENDER,std::allocator<__SECRETROOM_TENDER> >::_Reallocation_guard::~_Reallocation_guard
  00008	cc		 int	 3
  00009	cc		 int	 3
  0000a	cc		 int	 3
  0000b	cc		 int	 3
  0000c	cc		 int	 3
__ehhandler$??$_Emplace_reallocate@ABU__SECRETROOM_TENDER@@@?$vector@U__SECRETROOM_TENDER@@V?$allocator@U__SECRETROOM_TENDER@@@std@@@std@@AAEPAU__SECRETROOM_TENDER@@QAU2@ABU2@@Z:
  0000d	90		 npad	 1
  0000e	90		 npad	 1
  0000f	8b 54 24 08	 mov	 edx, DWORD PTR [esp+8]
  00013	8d 42 0c	 lea	 eax, DWORD PTR [edx+12]
  00016	8b 4a c8	 mov	 ecx, DWORD PTR [edx-56]
  00019	33 c8		 xor	 ecx, eax
  0001b	e8 00 00 00 00	 call	 @__security_check_cookie@4
  00020	b8 00 00 00 00	 mov	 eax, OFFSET __ehfuncinfo$??$_Emplace_reallocate@ABU__SECRETROOM_TENDER@@@?$vector@U__SECRETROOM_TENDER@@V?$allocator@U__SECRETROOM_TENDER@@@std@@@std@@AAEPAU__SECRETROOM_TENDER@@QAU2@ABU2@@Z
  00025	e9 00 00 00 00	 jmp	 ___CxxFrameHandler3
text$x	ENDS
??$_Emplace_reallocate@ABU__SECRETROOM_TENDER@@@?$vector@U__SECRETROOM_TENDER@@V?$allocator@U__SECRETROOM_TENDER@@@std@@@std@@AAEPAU__SECRETROOM_TENDER@@QAU2@ABU2@@Z ENDP ; std::vector<__SECRETROOM_TENDER,std::allocator<__SECRETROOM_TENDER> >::_Emplace_reallocate<__SECRETROOM_TENDER const &>
; Function compile flags: /Ogtp
; File C:\Program Files\Microsoft Visual Studio\2022\Professional\VC\Tools\MSVC\14.44.35207\include\xutility
;	COMDAT ??$_Copy_memmove_n@PAU__SECRETROOM_MONSTER@@PAU1@@std@@YAPAU__SECRETROOM_MONSTER@@PAU1@I0@Z
_TEXT	SEGMENT
__First$ = 8						; size = 4
__Object_count$ = 12					; size = 4
__Dest$ = 16						; size = 4
??$_Copy_memmove_n@PAU__SECRETROOM_MONSTER@@PAU1@@std@@YAPAU__SECRETROOM_MONSTER@@PAU1@I0@Z PROC ; std::_Copy_memmove_n<__SECRETROOM_MONSTER *,__SECRETROOM_MONSTER *>, COMDAT

; 4774 : _OutCtgIt _Copy_memmove_n(_CtgIt _First, const size_t _Object_count, _OutCtgIt _Dest) {

  00000	55		 push	 ebp
  00001	8b ec		 mov	 ebp, esp

; 4775 :     const auto _First_ptr  = _STD _To_address(_First);
; 4776 :     const auto _First_ch   = const_cast<const char*>(reinterpret_cast<const volatile char*>(_First_ptr));
; 4777 :     const auto _Byte_count = _Object_count * sizeof(*_First_ptr);
; 4778 :     return _STD _Copy_memmove_tail(_First_ch, _STD move(_Dest), _Byte_count, _Object_count);

  00003	8b 45 0c	 mov	 eax, DWORD PTR __Object_count$[ebp]
  00006	50		 push	 eax
  00007	c1 e0 05	 shl	 eax, 5
  0000a	50		 push	 eax
  0000b	ff 75 10	 push	 DWORD PTR __Dest$[ebp]
  0000e	ff 75 08	 push	 DWORD PTR __First$[ebp]
  00011	e8 00 00 00 00	 call	 ??$_Copy_memmove_tail@PAU__SECRETROOM_MONSTER@@@std@@YAPAU__SECRETROOM_MONSTER@@QBDQAU1@II@Z ; std::_Copy_memmove_tail<__SECRETROOM_MONSTER *>
  00016	83 c4 10	 add	 esp, 16			; 00000010H

; 4779 : }

  00019	5d		 pop	 ebp
  0001a	c3		 ret	 0
??$_Copy_memmove_n@PAU__SECRETROOM_MONSTER@@PAU1@@std@@YAPAU__SECRETROOM_MONSTER@@PAU1@I0@Z ENDP ; std::_Copy_memmove_n<__SECRETROOM_MONSTER *,__SECRETROOM_MONSTER *>
_TEXT	ENDS
; Function compile flags: /Ogtp
; File C:\Program Files\Microsoft Visual Studio\2022\Professional\VC\Tools\MSVC\14.44.35207\include\vector
; File C:\Program Files\Microsoft Visual Studio\2022\Professional\VC\Tools\MSVC\14.44.35207\include\xmemory
; File C:\Program Files\Microsoft Visual Studio\2022\Professional\VC\Tools\MSVC\14.44.35207\include\vector
; File C:\Program Files\Microsoft Visual Studio\2022\Professional\VC\Tools\MSVC\14.44.35207\include\xmemory
; File C:\Program Files\Microsoft Visual Studio\2022\Professional\VC\Tools\MSVC\14.44.35207\include\vector
; File C:\Program Files\Microsoft Visual Studio\2022\Professional\VC\Tools\MSVC\14.44.35207\include\xmemory
; File C:\Program Files\Microsoft Visual Studio\2022\Professional\VC\Tools\MSVC\14.44.35207\include\vector
; File C:\Program Files\Microsoft Visual Studio\2022\Professional\VC\Tools\MSVC\14.44.35207\include\xmemory
; File C:\Program Files\Microsoft Visual Studio\2022\Professional\VC\Tools\MSVC\14.44.35207\include\vector
; File C:\Program Files\Microsoft Visual Studio\2022\Professional\VC\Tools\MSVC\14.44.35207\include\xmemory
; File C:\Program Files\Microsoft Visual Studio\2022\Professional\VC\Tools\MSVC\14.44.35207\include\vector
; File C:\Program Files\Microsoft Visual Studio\2022\Professional\VC\Tools\MSVC\14.44.35207\include\xutility
; File C:\Program Files\Microsoft Visual Studio\2022\Professional\VC\Tools\MSVC\14.44.35207\include\vector
;	COMDAT ??$_Assign_counted_range@PAU__SECRETROOM_MONSTER@@@?$vector@U__SECRETROOM_MONSTER@@V?$allocator@U__SECRETROOM_MONSTER@@@std@@@std@@AAEXPAU__SECRETROOM_MONSTER@@I@Z
_TEXT	SEGMENT
_this$1$ = -4						; size = 4
__First$ = 8						; size = 4
__Newsize$ = 12						; size = 4
__Oldsize$1$ = 12					; size = 4
$T1 = 12						; size = 4
??$_Assign_counted_range@PAU__SECRETROOM_MONSTER@@@?$vector@U__SECRETROOM_MONSTER@@V?$allocator@U__SECRETROOM_MONSTER@@@std@@@std@@AAEXPAU__SECRETROOM_MONSTER@@I@Z PROC ; std::vector<__SECRETROOM_MONSTER,std::allocator<__SECRETROOM_MONSTER> >::_Assign_counted_range<__SECRETROOM_MONSTER *>, COMDAT
; _this$ = ecx

; 1420 :     _CONSTEXPR20 void _Assign_counted_range(_Iter _First, const size_type _Newsize) {

  00000	55		 push	 ebp
  00001	8b ec		 mov	 ebp, esp
  00003	51		 push	 ecx
  00004	53		 push	 ebx

; 1421 :         // assign elements from counted range _First + [0, _Newsize)
; 1422 :         auto& _Al         = _Getal();
; 1423 :         auto& _My_data    = _Mypair._Myval2;
; 1424 :         pointer& _Myfirst = _My_data._Myfirst;
; 1425 :         pointer& _Mylast  = _My_data._Mylast;
; 1426 :         pointer& _Myend   = _My_data._Myend;
; 1427 : 
; 1428 :         constexpr bool _Nothrow_construct = conjunction_v<is_nothrow_constructible<_Ty, _Iter_ref_t<_Iter>>,
; 1429 :             _Uses_default_construct<_Alloc, _Ty*, _Iter_ref_t<_Iter>>>;
; 1430 : 
; 1431 :         _My_data._Orphan_all();
; 1432 :         const auto _Oldcapacity = static_cast<size_type>(_Myend - _Myfirst);
; 1433 :         if (_Newsize > _Oldcapacity) {

  00005	8b 5d 0c	 mov	 ebx, DWORD PTR __Newsize$[ebp]
  00008	56		 push	 esi
  00009	8b f1		 mov	 esi, ecx
  0000b	57		 push	 edi
  0000c	89 75 fc	 mov	 DWORD PTR _this$1$[ebp], esi
  0000f	8b 4e 08	 mov	 ecx, DWORD PTR [esi+8]
  00012	8b 3e		 mov	 edi, DWORD PTR [esi]
  00014	2b cf		 sub	 ecx, edi
  00016	c1 f9 05	 sar	 ecx, 5
  00019	3b d9		 cmp	 ebx, ecx
  0001b	76 7d		 jbe	 SHORT $LN5@Assign_cou

; 1703 :         if (_Newsize > max_size()) {

  0001d	81 fb ff ff ff
	07		 cmp	 ebx, 134217727		; 07ffffffH
  00023	0f 87 d5 00 00
	00		 ja	 $LN64@Assign_cou

; 2011 :         if (_Oldcapacity > _Max - _Oldcapacity / 2) {

  00029	8b d1		 mov	 edx, ecx
  0002b	b8 ff ff ff 07	 mov	 eax, 134217727		; 07ffffffH
  00030	d1 ea		 shr	 edx, 1
  00032	2b c2		 sub	 eax, edx
  00034	3b c8		 cmp	 ecx, eax
  00036	76 09		 jbe	 SHORT $LN15@Assign_cou

; 2012 :             return _Max; // geometric growth would overflow

  00038	c7 45 0c ff ff
	ff 07		 mov	 DWORD PTR $T1[ebp], 134217727 ; 07ffffffH
  0003f	eb 0b		 jmp	 SHORT $LN16@Assign_cou
$LN15@Assign_cou:

; 2013 :         }
; 2014 : 
; 2015 :         const size_type _Geometric = _Oldcapacity + _Oldcapacity / 2;

  00041	8d 04 0a	 lea	 eax, DWORD PTR [edx+ecx]

; 2016 : 
; 2017 :         if (_Geometric < _Newsize) {

  00044	3b c3		 cmp	 eax, ebx
  00046	0f 42 c3	 cmovb	 eax, ebx
  00049	89 45 0c	 mov	 DWORD PTR $T1[ebp], eax
$LN16@Assign_cou:

; 1709 :         if (_Myfirst) { // destroy and deallocate old array

  0004c	85 ff		 test	 edi, edi
  0004e	74 1d		 je	 SHORT $LN12@Assign_cou

; 1710 :             _Destroy_range(_Myfirst, _Mylast, _Al);
; 1711 :             _ASAN_VECTOR_REMOVE;
; 1712 :             _Al.deallocate(_Myfirst, static_cast<size_type>(_Myend - _Myfirst));

  00050	51		 push	 ecx
  00051	57		 push	 edi
  00052	8b ce		 mov	 ecx, esi
  00054	e8 00 00 00 00	 call	 ?deallocate@?$allocator@U__SECRETROOM_MONSTER@@@std@@QAEXQAU__SECRETROOM_MONSTER@@I@Z ; std::allocator<__SECRETROOM_MONSTER>::deallocate

; 1713 : 
; 1714 :             _Myfirst = nullptr;

  00059	c7 06 00 00 00
	00		 mov	 DWORD PTR [esi], 0

; 1715 :             _Mylast  = nullptr;

  0005f	c7 46 04 00 00
	00 00		 mov	 DWORD PTR [esi+4], 0

; 1716 :             _Myend   = nullptr;

  00066	c7 46 08 00 00
	00 00		 mov	 DWORD PTR [esi+8], 0
$LN12@Assign_cou:

; 1717 :         }
; 1718 : 
; 1719 :         _Buy_raw(_Newcapacity);

  0006d	ff 75 0c	 push	 DWORD PTR $T1[ebp]
  00070	8b ce		 mov	 ecx, esi
  00072	e8 00 00 00 00	 call	 ?_Buy_raw@?$vector@U__SECRETROOM_MONSTER@@V?$allocator@U__SECRETROOM_MONSTER@@@std@@@std@@AAEXI@Z ; std::vector<__SECRETROOM_MONSTER,std::allocator<__SECRETROOM_MONSTER> >::_Buy_raw

; 1436 :                 _Mylast = _STD _Uninitialized_copy_n(_STD move(_First), _Newsize, _Myfirst, _Al);

  00077	8b 36		 mov	 esi, DWORD PTR [esi]
; File C:\Program Files\Microsoft Visual Studio\2022\Professional\VC\Tools\MSVC\14.44.35207\include\xmemory

; 1930 :             _STD _Copy_memmove_n(_UFirst, _Count, _STD _Unfancy(_Dest));

  00079	56		 push	 esi
  0007a	53		 push	 ebx
  0007b	ff 75 08	 push	 DWORD PTR __First$[ebp]
  0007e	e8 00 00 00 00	 call	 ??$_Copy_memmove_n@PAU__SECRETROOM_MONSTER@@PAU1@@std@@YAPAU__SECRETROOM_MONSTER@@PAU1@I0@Z ; std::_Copy_memmove_n<__SECRETROOM_MONSTER *,__SECRETROOM_MONSTER *>
; File C:\Program Files\Microsoft Visual Studio\2022\Professional\VC\Tools\MSVC\14.44.35207\include\vector

; 1436 :                 _Mylast = _STD _Uninitialized_copy_n(_STD move(_First), _Newsize, _Myfirst, _Al);

  00083	8b 45 fc	 mov	 eax, DWORD PTR _this$1$[ebp]
; File C:\Program Files\Microsoft Visual Studio\2022\Professional\VC\Tools\MSVC\14.44.35207\include\xmemory

; 1930 :             _STD _Copy_memmove_n(_UFirst, _Count, _STD _Unfancy(_Dest));

  00086	83 c4 0c	 add	 esp, 12			; 0000000cH

; 1931 :             _Dest += _Count;

  00089	c1 e3 05	 shl	 ebx, 5
  0008c	03 de		 add	 ebx, esi
  0008e	5f		 pop	 edi
; File C:\Program Files\Microsoft Visual Studio\2022\Professional\VC\Tools\MSVC\14.44.35207\include\vector

; 1480 :     }

  0008f	5e		 pop	 esi
  00090	89 58 04	 mov	 DWORD PTR [eax+4], ebx
  00093	5b		 pop	 ebx
  00094	8b e5		 mov	 esp, ebp
  00096	5d		 pop	 ebp
  00097	c2 08 00	 ret	 8
$LN5@Assign_cou:

; 1437 :                 _ASAN_VECTOR_CREATE;
; 1438 :             } else {
; 1439 :                 _ASAN_VECTOR_CREATE_GUARD;
; 1440 :                 _Mylast = _STD _Uninitialized_copy_n(_STD move(_First), _Newsize, _Myfirst, _Al);
; 1441 :             }
; 1442 :             return;
; 1443 :         }
; 1444 : 
; 1445 :         const auto _Oldsize = static_cast<size_type>(_Mylast - _Myfirst);

  0009a	8b 46 04	 mov	 eax, DWORD PTR [esi+4]
  0009d	2b c7		 sub	 eax, edi
  0009f	c1 f8 05	 sar	 eax, 5
  000a2	89 45 0c	 mov	 DWORD PTR __Oldsize$1$[ebp], eax

; 1446 :         if (_Newsize > _Oldsize) {

  000a5	57		 push	 edi
  000a6	3b d8		 cmp	 ebx, eax
  000a8	76 37		 jbe	 SHORT $LN6@Assign_cou

; 1447 :             bool _Copied = false;
; 1448 :             if constexpr (_Iter_copy_cat<_Iter, pointer>::_Bitcopy_assignable) {
; 1449 : #if _HAS_CXX20
; 1450 :                 if (!_STD is_constant_evaluated())
; 1451 : #endif // _HAS_CXX20
; 1452 :                 {
; 1453 :                     _Copy_memmove_n(_First, static_cast<size_t>(_Oldsize), _Myfirst);

  000aa	8b 7d 08	 mov	 edi, DWORD PTR __First$[ebp]
  000ad	50		 push	 eax
  000ae	57		 push	 edi
  000af	e8 00 00 00 00	 call	 ??$_Copy_memmove_n@PAU__SECRETROOM_MONSTER@@PAU1@@std@@YAPAU__SECRETROOM_MONSTER@@PAU1@I0@Z ; std::_Copy_memmove_n<__SECRETROOM_MONSTER *,__SECRETROOM_MONSTER *>

; 1454 :                     _First += _Oldsize;

  000b4	8b 45 0c	 mov	 eax, DWORD PTR __Oldsize$1$[ebp]

; 1467 :                 _Mylast = _STD _Uninitialized_copy_n(_STD move(_First), _Newsize - _Oldsize, _Mylast, _Al);

  000b7	8b 76 04	 mov	 esi, DWORD PTR [esi+4]
  000ba	2b 5d 0c	 sub	 ebx, DWORD PTR __Oldsize$1$[ebp]
  000bd	c1 e0 05	 shl	 eax, 5
; File C:\Program Files\Microsoft Visual Studio\2022\Professional\VC\Tools\MSVC\14.44.35207\include\xmemory

; 1930 :             _STD _Copy_memmove_n(_UFirst, _Count, _STD _Unfancy(_Dest));

  000c0	56		 push	 esi
; File C:\Program Files\Microsoft Visual Studio\2022\Professional\VC\Tools\MSVC\14.44.35207\include\vector

; 1454 :                     _First += _Oldsize;

  000c1	03 f8		 add	 edi, eax
; File C:\Program Files\Microsoft Visual Studio\2022\Professional\VC\Tools\MSVC\14.44.35207\include\xmemory

; 1930 :             _STD _Copy_memmove_n(_UFirst, _Count, _STD _Unfancy(_Dest));

  000c3	53		 push	 ebx
  000c4	57		 push	 edi
  000c5	e8 00 00 00 00	 call	 ??$_Copy_memmove_n@PAU__SECRETROOM_MONSTER@@PAU1@@std@@YAPAU__SECRETROOM_MONSTER@@PAU1@I0@Z ; std::_Copy_memmove_n<__SECRETROOM_MONSTER *,__SECRETROOM_MONSTER *>
; File C:\Program Files\Microsoft Visual Studio\2022\Professional\VC\Tools\MSVC\14.44.35207\include\vector

; 1467 :                 _Mylast = _STD _Uninitialized_copy_n(_STD move(_First), _Newsize - _Oldsize, _Mylast, _Al);

  000ca	8b 45 fc	 mov	 eax, DWORD PTR _this$1$[ebp]
; File C:\Program Files\Microsoft Visual Studio\2022\Professional\VC\Tools\MSVC\14.44.35207\include\xmemory

; 1930 :             _STD _Copy_memmove_n(_UFirst, _Count, _STD _Unfancy(_Dest));

  000cd	83 c4 18	 add	 esp, 24			; 00000018H

; 1931 :             _Dest += _Count;

  000d0	c1 e3 05	 shl	 ebx, 5
  000d3	03 de		 add	 ebx, esi
  000d5	5f		 pop	 edi
; File C:\Program Files\Microsoft Visual Studio\2022\Professional\VC\Tools\MSVC\14.44.35207\include\vector

; 1480 :     }

  000d6	5e		 pop	 esi
  000d7	89 58 04	 mov	 DWORD PTR [eax+4], ebx
  000da	5b		 pop	 ebx
  000db	8b e5		 mov	 esp, ebp
  000dd	5d		 pop	 ebp
  000de	c2 08 00	 ret	 8
$LN6@Assign_cou:
; File C:\Program Files\Microsoft Visual Studio\2022\Professional\VC\Tools\MSVC\14.44.35207\include\xutility

; 4808 :             return _Copy_memmove_n(_First, static_cast<size_t>(_Count), _Dest);

  000e1	53		 push	 ebx
  000e2	ff 75 08	 push	 DWORD PTR __First$[ebp]
  000e5	e8 00 00 00 00	 call	 ??$_Copy_memmove_n@PAU__SECRETROOM_MONSTER@@PAU1@@std@@YAPAU__SECRETROOM_MONSTER@@PAU1@I0@Z ; std::_Copy_memmove_n<__SECRETROOM_MONSTER *,__SECRETROOM_MONSTER *>
  000ea	83 c4 0c	 add	 esp, 12			; 0000000cH
; File C:\Program Files\Microsoft Visual Studio\2022\Professional\VC\Tools\MSVC\14.44.35207\include\vector

; 1474 :             const pointer _Newlast = _Myfirst + _Newsize;

  000ed	c1 e3 05	 shl	 ebx, 5
  000f0	03 df		 add	 ebx, edi

; 1475 :             _STD _Copy_n_unchecked4(_STD move(_First), _Newsize, _Myfirst);
; 1476 :             _STD _Destroy_range(_Newlast, _Mylast, _Al);
; 1477 :             _ASAN_VECTOR_MODIFY(static_cast<difference_type>(_Newsize - _Oldsize));
; 1478 :             _Mylast = _Newlast;

  000f2	89 5e 04	 mov	 DWORD PTR [esi+4], ebx
  000f5	5f		 pop	 edi

; 1480 :     }

  000f6	5e		 pop	 esi
  000f7	5b		 pop	 ebx
  000f8	8b e5		 mov	 esp, ebp
  000fa	5d		 pop	 ebp
  000fb	c2 08 00	 ret	 8
$LN64@Assign_cou:

; 1704 :             _Xlength();

  000fe	e8 00 00 00 00	 call	 ?_Xlength@?$vector@U__SECRETROOM_MONSTER@@V?$allocator@U__SECRETROOM_MONSTER@@@std@@@std@@CAXXZ ; std::vector<__SECRETROOM_MONSTER,std::allocator<__SECRETROOM_MONSTER> >::_Xlength
$LN62@Assign_cou:
  00103	cc		 int	 3
??$_Assign_counted_range@PAU__SECRETROOM_MONSTER@@@?$vector@U__SECRETROOM_MONSTER@@V?$allocator@U__SECRETROOM_MONSTER@@@std@@@std@@AAEXPAU__SECRETROOM_MONSTER@@I@Z ENDP ; std::vector<__SECRETROOM_MONSTER,std::allocator<__SECRETROOM_MONSTER> >::_Assign_counted_range<__SECRETROOM_MONSTER *>
_TEXT	ENDS
; Function compile flags: /Ogtp
; File C:\Program Files\Microsoft Visual Studio\2022\Professional\VC\Tools\MSVC\14.44.35207\include\map
; File C:\Program Files\Microsoft Visual Studio\2022\Professional\VC\Tools\MSVC\14.44.35207\include\xtree
; File C:\Program Files\Microsoft Visual Studio\2022\Professional\VC\Tools\MSVC\14.44.35207\include\type_traits
; File C:\Program Files\Microsoft Visual Studio\2022\Professional\VC\Tools\MSVC\14.44.35207\include\xtree
; File C:\Program Files\Microsoft Visual Studio\2022\Professional\VC\Tools\MSVC\14.44.35207\include\utility
; File C:\Program Files\Microsoft Visual Studio\2022\Professional\VC\Tools\MSVC\14.44.35207\include\xtree
; File C:\Program Files\Microsoft Visual Studio\2022\Professional\VC\Tools\MSVC\14.44.35207\include\xmemory
; File C:\Program Files\Microsoft Visual Studio\2022\Professional\VC\Tools\MSVC\14.44.35207\include\xtree
; File C:\Program Files\Microsoft Visual Studio\2022\Professional\VC\Tools\MSVC\14.44.35207\include\xmemory
; File C:\Program Files\Microsoft Visual Studio\2022\Professional\VC\Tools\MSVC\14.44.35207\include\utility
; File C:\Program Files\Microsoft Visual Studio\2022\Professional\VC\Tools\MSVC\14.44.35207\include\xmemory
; File C:\Program Files\Microsoft Visual Studio\2022\Professional\VC\Tools\MSVC\14.44.35207\include\utility
; File C:\Program Files\Microsoft Visual Studio\2022\Professional\VC\Tools\MSVC\14.44.35207\include\xtree
; File C:\Program Files\Microsoft Visual Studio\2022\Professional\VC\Tools\MSVC\14.44.35207\include\utility
; File C:\Program Files\Microsoft Visual Studio\2022\Professional\VC\Tools\MSVC\14.44.35207\include\map
; File C:\Program Files\Microsoft Visual Studio\2022\Professional\VC\Tools\MSVC\14.44.35207\include\xtree
; File C:\Program Files\Microsoft Visual Studio\2022\Professional\VC\Tools\MSVC\14.44.35207\include\map
;	COMDAT ??$insert@U?$pair@HH@std@@$0A@@?$map@HHU?$less@H@std@@V?$allocator@U?$pair@$$CBHH@std@@@2@@std@@QAE?AU?$pair@V?$_Tree_iterator@V?$_Tree_val@U?$_Tree_simple_types@U?$pair@$$CBHH@std@@@std@@@std@@@std@@_N@1@$$QAU?$pair@HH@1@@Z
_TEXT	SEGMENT
__Loc$3 = -36						; size = 12
$T4 = -24						; size = 12
$T5 = -20						; size = 8
__$EHRec$ = -12						; size = 12
___$ReturnUdt$ = 8					; size = 4
__Val$ = 12						; size = 4
??$insert@U?$pair@HH@std@@$0A@@?$map@HHU?$less@H@std@@V?$allocator@U?$pair@$$CBHH@std@@@2@@std@@QAE?AU?$pair@V?$_Tree_iterator@V?$_Tree_val@U?$_Tree_simple_types@U?$pair@$$CBHH@std@@@std@@@std@@@std@@_N@1@$$QAU?$pair@HH@1@@Z PROC ; std::map<int,int,std::less<int>,std::allocator<std::pair<int const ,int> > >::insert<std::pair<int,int>,0>, COMDAT
; _this$ = ecx

; 185  :     pair<iterator, bool> insert(_Valty&& _Val) {

  00000	55		 push	 ebp
  00001	8b ec		 mov	 ebp, esp
  00003	6a ff		 push	 -1
  00005	68 00 00 00 00	 push	 __ehhandler$??$insert@U?$pair@HH@std@@$0A@@?$map@HHU?$less@H@std@@V?$allocator@U?$pair@$$CBHH@std@@@2@@std@@QAE?AU?$pair@V?$_Tree_iterator@V?$_Tree_val@U?$_Tree_simple_types@U?$pair@$$CBHH@std@@@std@@@std@@@std@@_N@1@$$QAU?$pair@HH@1@@Z
  0000a	64 a1 00 00 00
	00		 mov	 eax, DWORD PTR fs:0
  00010	50		 push	 eax
  00011	83 ec 18	 sub	 esp, 24			; 00000018H
  00014	53		 push	 ebx
  00015	56		 push	 esi
  00016	57		 push	 edi
  00017	a1 00 00 00 00	 mov	 eax, DWORD PTR ___security_cookie
  0001c	33 c5		 xor	 eax, ebp
  0001e	50		 push	 eax
  0001f	8d 45 f4	 lea	 eax, DWORD PTR __$EHRec$[ebp]
  00022	64 a3 00 00 00
	00		 mov	 DWORD PTR fs:0, eax
  00028	8b f9		 mov	 edi, ecx
; File C:\Program Files\Microsoft Visual Studio\2022\Professional\VC\Tools\MSVC\14.44.35207\include\xtree

; 1017 :             _Loc                = _Find_lower_bound(_Keyval);

  0002a	8b 5d 0c	 mov	 ebx, DWORD PTR __Val$[ebp]
  0002d	8d 45 e8	 lea	 eax, DWORD PTR $T4[ebp]
  00030	53		 push	 ebx
  00031	50		 push	 eax
  00032	e8 00 00 00 00	 call	 ??$_Find_lower_bound@H@?$_Tree@V?$_Tmap_traits@HHU?$less@H@std@@V?$allocator@U?$pair@$$CBHH@std@@@2@$0A@@std@@@std@@IBE?AU?$_Tree_find_result@PAU?$_Tree_node@U?$pair@$$CBHH@std@@PAX@std@@@1@ABH@Z ; std::_Tree<std::_Tmap_traits<int,int,std::less<int>,std::allocator<std::pair<int const ,int> >,0> >::_Find_lower_bound<int>
  00037	8b 48 08	 mov	 ecx, DWORD PTR [eax+8]
  0003a	f3 0f 7e 00	 movq	 xmm0, QWORD PTR [eax]
  0003e	66 0f d6 45 dc	 movq	 QWORD PTR __Loc$3[ebp], xmm0

; 1624 :         return !_Bound->_Isnil && !_DEBUG_LT_PRED(_Getcomp(), _Keyval, _Traits::_Kfn(_Bound->_Myval));

  00043	80 79 0d 00	 cmp	 BYTE PTR [ecx+13], 0
  00047	75 0b		 jne	 SHORT $LN6@insert
; File C:\Program Files\Microsoft Visual Studio\2022\Professional\VC\Tools\MSVC\14.44.35207\include\type_traits

; 2380 :         return _Left < _Right;

  00049	8b 03		 mov	 eax, DWORD PTR [ebx]
  0004b	3b 41 10	 cmp	 eax, DWORD PTR [ecx+16]
; File C:\Program Files\Microsoft Visual Studio\2022\Professional\VC\Tools\MSVC\14.44.35207\include\xtree

; 1624 :         return !_Bound->_Isnil && !_DEBUG_LT_PRED(_Getcomp(), _Keyval, _Traits::_Kfn(_Bound->_Myval));

  0004e	7c 04		 jl	 SHORT $LN6@insert
; File C:\Program Files\Microsoft Visual Studio\2022\Professional\VC\Tools\MSVC\14.44.35207\include\utility

; 274  :         : first(_STD forward<_Other1>(_Val1)), second(_STD forward<_Other2>(_Val2)) {

  00050	32 d2		 xor	 dl, dl
; File C:\Program Files\Microsoft Visual Studio\2022\Professional\VC\Tools\MSVC\14.44.35207\include\xtree

; 1019 :                 return {_Loc._Bound, false};

  00052	eb 51		 jmp	 SHORT $LN91@insert
$LN6@insert:

; 1648 :         if (max_size() == _Get_scary()->_Mysize) {

  00054	81 7f 04 aa aa
	aa 0a		 cmp	 DWORD PTR [edi+4], 178956970 ; 0aaaaaaaH
  0005b	74 64		 je	 SHORT $LN113@insert

; 1023 :             _Inserted = _Tree_temp_node<_Alnode>(_Getal(), _Scary->_Myhead, _STD forward<_Valtys>(_Vals)...)._Release();

  0005d	8b 37		 mov	 esi, DWORD PTR [edi]
; File C:\Program Files\Microsoft Visual Studio\2022\Professional\VC\Tools\MSVC\14.44.35207\include\xmemory

; 1160 :     _CONSTEXPR20 explicit _Alloc_construct_ptr(_Alloc& _Al_) : _Al(_Al_), _Ptr(nullptr) {}

  0005f	89 7d ec	 mov	 DWORD PTR $T5[ebp], edi

; 136  :         return ::operator new(_Bytes);

  00062	6a 18		 push	 24			; 00000018H
; File C:\Program Files\Microsoft Visual Studio\2022\Professional\VC\Tools\MSVC\14.44.35207\include\xtree

; 808  :     explicit _Tree_temp_node_alloc(_Alnode& _Al_) : _Alloc_construct_ptr<_Alnode>(_Al_) {

  00064	c7 45 fc 00 00
	00 00		 mov	 DWORD PTR __$EHRec$[ebp+8], 0
; File C:\Program Files\Microsoft Visual Studio\2022\Professional\VC\Tools\MSVC\14.44.35207\include\xmemory

; 1167 :         _Ptr = nullptr; // if allocate throws, prevents double-free

  0006b	c7 45 f0 00 00
	00 00		 mov	 DWORD PTR $T5[ebp+4], 0

; 136  :         return ::operator new(_Bytes);

  00072	e8 00 00 00 00	 call	 ??2@YAPAXI@Z		; operator new
; File C:\Program Files\Microsoft Visual Studio\2022\Professional\VC\Tools\MSVC\14.44.35207\include\utility

; 303  :         : first(_STD forward<_Other1>(_Right.first)), second(_STD forward<_Other2>(_Right.second)) {}

  00077	8b 0b		 mov	 ecx, DWORD PTR [ebx]
; File C:\Program Files\Microsoft Visual Studio\2022\Professional\VC\Tools\MSVC\14.44.35207\include\xmemory

; 136  :         return ::operator new(_Bytes);

  00079	83 c4 04	 add	 esp, 4
; File C:\Program Files\Microsoft Visual Studio\2022\Professional\VC\Tools\MSVC\14.44.35207\include\utility

; 303  :         : first(_STD forward<_Other1>(_Right.first)), second(_STD forward<_Other2>(_Right.second)) {}

  0007c	89 48 10	 mov	 DWORD PTR [eax+16], ecx
  0007f	8b 4b 04	 mov	 ecx, DWORD PTR [ebx+4]
  00082	89 48 14	 mov	 DWORD PTR [eax+20], ecx
; File C:\Program Files\Microsoft Visual Studio\2022\Professional\VC\Tools\MSVC\14.44.35207\include\xtree

; 1042 :         return {_Scary->_Insert_node(_Loc._Location, _Inserted), true};

  00085	8b cf		 mov	 ecx, edi
  00087	50		 push	 eax
  00088	ff 75 e0	 push	 DWORD PTR __Loc$3[ebp+4]

; 831  :         _Construct_in_place(this->_Ptr->_Left, _Myhead);

  0008b	89 30		 mov	 DWORD PTR [eax], esi

; 1042 :         return {_Scary->_Insert_node(_Loc._Location, _Inserted), true};

  0008d	ff 75 dc	 push	 DWORD PTR __Loc$3[ebp]

; 832  :         _Construct_in_place(this->_Ptr->_Parent, _Myhead);

  00090	89 70 04	 mov	 DWORD PTR [eax+4], esi

; 833  :         _Construct_in_place(this->_Ptr->_Right, _Myhead);

  00093	89 70 08	 mov	 DWORD PTR [eax+8], esi

; 834  :         this->_Ptr->_Color = _Red;

  00096	66 c7 40 0c 00
	00		 mov	 WORD PTR [eax+12], 0

; 1042 :         return {_Scary->_Insert_node(_Loc._Location, _Inserted), true};

  0009c	e8 00 00 00 00	 call	 ?_Insert_node@?$_Tree_val@U?$_Tree_simple_types@U?$pair@$$CBHH@std@@@std@@@std@@QAEPAU?$_Tree_node@U?$pair@$$CBHH@std@@PAX@2@U?$_Tree_id@PAU?$_Tree_node@U?$pair@$$CBHH@std@@PAX@std@@@2@QAU32@@Z ; std::_Tree_val<std::_Tree_simple_types<std::pair<int const ,int> > >::_Insert_node
; File C:\Program Files\Microsoft Visual Studio\2022\Professional\VC\Tools\MSVC\14.44.35207\include\utility

; 274  :         : first(_STD forward<_Other1>(_Val1)), second(_STD forward<_Other2>(_Val2)) {

  000a1	8b c8		 mov	 ecx, eax
  000a3	b2 01		 mov	 dl, 1
$LN91@insert:
  000a5	8b 45 08	 mov	 eax, DWORD PTR ___$ReturnUdt$[ebp]
  000a8	89 08		 mov	 DWORD PTR [eax], ecx
  000aa	88 50 04	 mov	 BYTE PTR [eax+4], dl
; File C:\Program Files\Microsoft Visual Studio\2022\Professional\VC\Tools\MSVC\14.44.35207\include\map

; 187  :     }

  000ad	8b 4d f4	 mov	 ecx, DWORD PTR __$EHRec$[ebp]
  000b0	64 89 0d 00 00
	00 00		 mov	 DWORD PTR fs:0, ecx
  000b7	59		 pop	 ecx
  000b8	5f		 pop	 edi
  000b9	5e		 pop	 esi
  000ba	5b		 pop	 ebx
  000bb	8b e5		 mov	 esp, ebp
  000bd	5d		 pop	 ebp
  000be	c2 08 00	 ret	 8
$LN113@insert:
; File C:\Program Files\Microsoft Visual Studio\2022\Professional\VC\Tools\MSVC\14.44.35207\include\xtree

; 1649 :             _Throw_tree_length_error();

  000c1	e8 00 00 00 00	 call	 ?_Throw_tree_length_error@std@@YAXXZ ; std::_Throw_tree_length_error
$LN111@insert:
  000c6	cc		 int	 3
_TEXT	ENDS
;	COMDAT text$x
text$x	SEGMENT
__unwindfunclet$??$insert@U?$pair@HH@std@@$0A@@?$map@HHU?$less@H@std@@V?$allocator@U?$pair@$$CBHH@std@@@2@@std@@QAE?AU?$pair@V?$_Tree_iterator@V?$_Tree_val@U?$_Tree_simple_types@U?$pair@$$CBHH@std@@@std@@@std@@@std@@_N@1@$$QAU?$pair@HH@1@@Z$2:
  00000	8d 4d ec	 lea	 ecx, DWORD PTR $T5[ebp]
  00003	e9 00 00 00 00	 jmp	 ??1?$_Alloc_construct_ptr@V?$allocator@U?$_Tree_node@U?$pair@$$CBHH@std@@PAX@std@@@std@@@std@@QAE@XZ ; std::_Alloc_construct_ptr<std::allocator<std::_Tree_node<std::pair<int const ,int>,void *> > >::~_Alloc_construct_ptr<std::allocator<std::_Tree_node<std::pair<int const ,int>,void *> > >
  00008	cc		 int	 3
  00009	cc		 int	 3
  0000a	cc		 int	 3
  0000b	cc		 int	 3
  0000c	cc		 int	 3
__ehhandler$??$insert@U?$pair@HH@std@@$0A@@?$map@HHU?$less@H@std@@V?$allocator@U?$pair@$$CBHH@std@@@2@@std@@QAE?AU?$pair@V?$_Tree_iterator@V?$_Tree_val@U?$_Tree_simple_types@U?$pair@$$CBHH@std@@@std@@@std@@@std@@_N@1@$$QAU?$pair@HH@1@@Z:
  0000d	90		 npad	 1
  0000e	90		 npad	 1
  0000f	8b 54 24 08	 mov	 edx, DWORD PTR [esp+8]
  00013	8d 42 0c	 lea	 eax, DWORD PTR [edx+12]
  00016	8b 4a d8	 mov	 ecx, DWORD PTR [edx-40]
  00019	33 c8		 xor	 ecx, eax
  0001b	e8 00 00 00 00	 call	 @__security_check_cookie@4
  00020	b8 00 00 00 00	 mov	 eax, OFFSET __ehfuncinfo$??$insert@U?$pair@HH@std@@$0A@@?$map@HHU?$less@H@std@@V?$allocator@U?$pair@$$CBHH@std@@@2@@std@@QAE?AU?$pair@V?$_Tree_iterator@V?$_Tree_val@U?$_Tree_simple_types@U?$pair@$$CBHH@std@@@std@@@std@@@std@@_N@1@$$QAU?$pair@HH@1@@Z
  00025	e9 00 00 00 00	 jmp	 ___CxxFrameHandler3
text$x	ENDS
??$insert@U?$pair@HH@std@@$0A@@?$map@HHU?$less@H@std@@V?$allocator@U?$pair@$$CBHH@std@@@2@@std@@QAE?AU?$pair@V?$_Tree_iterator@V?$_Tree_val@U?$_Tree_simple_types@U?$pair@$$CBHH@std@@@std@@@std@@@std@@_N@1@$$QAU?$pair@HH@1@@Z ENDP ; std::map<int,int,std::less<int>,std::allocator<std::pair<int const ,int> > >::insert<std::pair<int,int>,0>
; Function compile flags: /Ogtp
;	COMDAT ??__FsSecretRoomMng@?1??GetInstance@CSecretRoomMng@@SAPAV1@XZ@YAXXZ
text$yd	SEGMENT
??__FsSecretRoomMng@?1??GetInstance@CSecretRoomMng@@SAPAV1@XZ@YAXXZ PROC ; `CSecretRoomMng::GetInstance'::`2'::`dynamic atexit destructor for 'sSecretRoomMng'', COMDAT
  00000	b9 00 00 00 00	 mov	 ecx, OFFSET ?sSecretRoomMng@?1??GetInstance@CSecretRoomMng@@SAPAV2@XZ@4V2@A
  00005	e9 00 00 00 00	 jmp	 ??1CSecretRoomMng@@UAE@XZ ; CSecretRoomMng::~CSecretRoomMng
??__FsSecretRoomMng@?1??GetInstance@CSecretRoomMng@@SAPAV1@XZ@YAXXZ ENDP ; `CSecretRoomMng::GetInstance'::`2'::`dynamic atexit destructor for 'sSecretRoomMng''
text$yd	ENDS
; Function compile flags: /Ogtp
; File C:\Program Files\Microsoft Visual Studio\2022\Professional\VC\Tools\MSVC\14.44.35207\include\xtree
;	COMDAT ??E?$_Tree_iterator@V?$_Tree_val@U?$_Tree_simple_types@U?$pair@$$CBEPAVCSecretRoomContinent@@@std@@@std@@@std@@@std@@QAE?AV01@H@Z
_TEXT	SEGMENT
___$ReturnUdt$ = 8					; size = 4
___formal$ = 12						; size = 4
??E?$_Tree_iterator@V?$_Tree_val@U?$_Tree_simple_types@U?$pair@$$CBEPAVCSecretRoomContinent@@@std@@@std@@@std@@@std@@QAE?AV01@H@Z PROC ; std::_Tree_iterator<std::_Tree_val<std::_Tree_simple_types<std::pair<unsigned char const ,CSecretRoomContinent *> > > >::operator++, COMDAT
; _this$ = ecx

; 286  :     _Tree_iterator operator++(int) noexcept {

  00000	55		 push	 ebp
  00001	8b ec		 mov	 ebp, esp
  00003	56		 push	 esi
  00004	8b f1		 mov	 esi, ecx
  00006	57		 push	 edi

; 287  :         _Tree_iterator _Tmp = *this;

  00007	8b 7d 08	 mov	 edi, DWORD PTR ___$ReturnUdt$[ebp]
  0000a	8b 06		 mov	 eax, DWORD PTR [esi]
  0000c	89 07		 mov	 DWORD PTR [edi], eax

; 50   :         if (_Ptr->_Right->_Isnil) { // climb looking for right subtree

  0000e	8b 50 08	 mov	 edx, DWORD PTR [eax+8]
  00011	80 7a 0d 00	 cmp	 BYTE PTR [edx+13], 0
  00015	74 25		 je	 SHORT $LN10@operator

; 51   :             _Nodeptr _Pnode;
; 52   :             while (!(_Pnode = _Ptr->_Parent)->_Isnil && _Ptr == _Pnode->_Right) {

  00017	8b 50 04	 mov	 edx, DWORD PTR [eax+4]
  0001a	80 7a 0d 00	 cmp	 BYTE PTR [edx+13], 0
  0001e	75 30		 jne	 SHORT $LN16@operator
$LL8@operator:
  00020	3b 42 08	 cmp	 eax, DWORD PTR [edx+8]
  00023	75 2b		 jne	 SHORT $LN16@operator

; 53   :                 _Ptr = _Pnode; // ==> parent while right subtree

  00025	89 16		 mov	 DWORD PTR [esi], edx
  00027	8b c2		 mov	 eax, edx
  00029	8b 52 04	 mov	 edx, DWORD PTR [edx+4]
  0002c	80 7a 0d 00	 cmp	 BYTE PTR [edx+13], 0
  00030	74 ee		 je	 SHORT $LL8@operator

; 288  :         _Mybase::operator++();
; 289  :         return _Tmp;
; 290  :     }

  00032	8b c7		 mov	 eax, edi
  00034	89 16		 mov	 DWORD PTR [esi], edx
  00036	5f		 pop	 edi
  00037	5e		 pop	 esi
  00038	5d		 pop	 ebp
  00039	c2 08 00	 ret	 8
$LN10@operator:

; 476  :         while (!_Pnode->_Left->_Isnil) {

  0003c	8b 0a		 mov	 ecx, DWORD PTR [edx]
  0003e	80 79 0d 00	 cmp	 BYTE PTR [ecx+13], 0
  00042	75 0c		 jne	 SHORT $LN16@operator
$LL15@operator:
  00044	8b 01		 mov	 eax, DWORD PTR [ecx]

; 477  :             _Pnode = _Pnode->_Left;

  00046	8b d1		 mov	 edx, ecx
  00048	8b c8		 mov	 ecx, eax
  0004a	80 78 0d 00	 cmp	 BYTE PTR [eax+13], 0
  0004e	74 f4		 je	 SHORT $LL15@operator
$LN16@operator:

; 288  :         _Mybase::operator++();
; 289  :         return _Tmp;
; 290  :     }

  00050	8b c7		 mov	 eax, edi
  00052	89 16		 mov	 DWORD PTR [esi], edx
  00054	5f		 pop	 edi
  00055	5e		 pop	 esi
  00056	5d		 pop	 ebp
  00057	c2 08 00	 ret	 8
??E?$_Tree_iterator@V?$_Tree_val@U?$_Tree_simple_types@U?$pair@$$CBEPAVCSecretRoomContinent@@@std@@@std@@@std@@@std@@QAE?AV01@H@Z ENDP ; std::_Tree_iterator<std::_Tree_val<std::_Tree_simple_types<std::pair<unsigned char const ,CSecretRoomContinent *> > > >::operator++
_TEXT	ENDS
; Function compile flags: /Ogtp
; File C:\Program Files\Microsoft Visual Studio\2022\Professional\VC\Tools\MSVC\14.44.35207\include\map
; File C:\Program Files\Microsoft Visual Studio\2022\Professional\VC\Tools\MSVC\14.44.35207\include\xtree
; File C:\Program Files\Microsoft Visual Studio\2022\Professional\VC\Tools\MSVC\14.44.35207\include\xmemory
; File C:\Program Files\Microsoft Visual Studio\2022\Professional\VC\Tools\MSVC\14.44.35207\include\xtree
; File C:\Program Files\Microsoft Visual Studio\2022\Professional\VC\Tools\MSVC\14.44.35207\include\xmemory
; File C:\Program Files\Microsoft Visual Studio\2022\Professional\VC\Tools\MSVC\14.44.35207\include\utility
; File C:\Program Files\Microsoft Visual Studio\2022\Professional\VC\Tools\MSVC\14.44.35207\include\xmemory
; File C:\Program Files\Microsoft Visual Studio\2022\Professional\VC\Tools\MSVC\14.44.35207\include\xtree
; File C:\Program Files\Microsoft Visual Studio\2022\Professional\VC\Tools\MSVC\14.44.35207\include\xmemory
; File C:\Program Files\Microsoft Visual Studio\2022\Professional\VC\Tools\MSVC\14.44.35207\include\utility
; File C:\Program Files\Microsoft Visual Studio\2022\Professional\VC\Tools\MSVC\14.44.35207\include\xtree
; File C:\Program Files\Microsoft Visual Studio\2022\Professional\VC\Tools\MSVC\14.44.35207\include\utility
; File C:\Program Files\Microsoft Visual Studio\2022\Professional\VC\Tools\MSVC\14.44.35207\include\xtree
; File C:\Program Files\Microsoft Visual Studio\2022\Professional\VC\Tools\MSVC\14.44.35207\include\type_traits
; File C:\Program Files\Microsoft Visual Studio\2022\Professional\VC\Tools\MSVC\14.44.35207\include\xtree
; File C:\Program Files\Microsoft Visual Studio\2022\Professional\VC\Tools\MSVC\14.44.35207\include\xmemory
; File C:\Program Files\Microsoft Visual Studio\2022\Professional\VC\Tools\MSVC\14.44.35207\include\utility
; File C:\Program Files\Microsoft Visual Studio\2022\Professional\VC\Tools\MSVC\14.44.35207\include\xmemory
; File C:\Program Files\Microsoft Visual Studio\2022\Professional\VC\Tools\MSVC\14.44.35207\include\xtree
; File C:\Program Files\Microsoft Visual Studio\2022\Professional\VC\Tools\MSVC\14.44.35207\include\utility
; File C:\Program Files\Microsoft Visual Studio\2022\Professional\VC\Tools\MSVC\14.44.35207\include\map
; File C:\Program Files\Microsoft Visual Studio\2022\Professional\VC\Tools\MSVC\14.44.35207\include\xtree
; File C:\Program Files\Microsoft Visual Studio\2022\Professional\VC\Tools\MSVC\14.44.35207\include\map
;	COMDAT ??$insert@U?$pair@HPAVCSecretRoomContinent@@@std@@$0A@@?$map@EPAVCSecretRoomContinent@@U?$less@E@std@@V?$allocator@U?$pair@$$CBEPAVCSecretRoomContinent@@@std@@@3@@std@@QAE?AU?$pair@V?$_Tree_iterator@V?$_Tree_val@U?$_Tree_simple_types@U?$pair@$$CBEPAVCSecretRoomContinent@@@std@@@std@@@std@@@std@@_N@1@$$QAU?$pair@HPAVCSecretRoomContinent@@@1@@Z
_TEXT	SEGMENT
$T3 = -44						; size = 12
__Loc$4 = -32						; size = 12
__Newnode$5 = -20					; size = 8
__$EHRec$ = -12						; size = 12
___$ReturnUdt$ = 8					; size = 4
__Val$ = 12						; size = 4
tv694 = 15						; size = 1
??$insert@U?$pair@HPAVCSecretRoomContinent@@@std@@$0A@@?$map@EPAVCSecretRoomContinent@@U?$less@E@std@@V?$allocator@U?$pair@$$CBEPAVCSecretRoomContinent@@@std@@@3@@std@@QAE?AU?$pair@V?$_Tree_iterator@V?$_Tree_val@U?$_Tree_simple_types@U?$pair@$$CBEPAVCSecretRoomContinent@@@std@@@std@@@std@@@std@@_N@1@$$QAU?$pair@HPAVCSecretRoomContinent@@@1@@Z PROC ; std::map<unsigned char,CSecretRoomContinent *,std::less<unsigned char>,std::allocator<std::pair<unsigned char const ,CSecretRoomContinent *> > >::insert<std::pair<int,CSecretRoomContinent *>,0>, COMDAT
; _this$ = ecx

; 185  :     pair<iterator, bool> insert(_Valty&& _Val) {

  00000	55		 push	 ebp
  00001	8b ec		 mov	 ebp, esp
  00003	6a ff		 push	 -1
  00005	68 00 00 00 00	 push	 __ehhandler$??$insert@U?$pair@HPAVCSecretRoomContinent@@@std@@$0A@@?$map@EPAVCSecretRoomContinent@@U?$less@E@std@@V?$allocator@U?$pair@$$CBEPAVCSecretRoomContinent@@@std@@@3@@std@@QAE?AU?$pair@V?$_Tree_iterator@V?$_Tree_val@U?$_Tree_simple_types@U?$pair@$$CBEPAVCSecretRoomContinent@@@std@@@std@@@std@@@std@@_N@1@$$QAU?$pair@HPAVCSecretRoomContinent@@@1@@Z
  0000a	64 a1 00 00 00
	00		 mov	 eax, DWORD PTR fs:0
  00010	50		 push	 eax
  00011	83 ec 20	 sub	 esp, 32			; 00000020H
  00014	53		 push	 ebx
  00015	56		 push	 esi
  00016	57		 push	 edi
  00017	a1 00 00 00 00	 mov	 eax, DWORD PTR ___security_cookie
  0001c	33 c5		 xor	 eax, ebp
  0001e	50		 push	 eax
  0001f	8d 45 f4	 lea	 eax, DWORD PTR __$EHRec$[ebp]
  00022	64 a3 00 00 00
	00		 mov	 DWORD PTR fs:0, eax
  00028	8b d9		 mov	 ebx, ecx
; File C:\Program Files\Microsoft Visual Studio\2022\Professional\VC\Tools\MSVC\14.44.35207\include\xtree

; 1026 :             _Tree_temp_node<_Alnode> _Newnode(_Getal(), _Scary->_Myhead, _STD forward<_Valtys>(_Vals)...);

  0002a	8b 33		 mov	 esi, DWORD PTR [ebx]
; File C:\Program Files\Microsoft Visual Studio\2022\Professional\VC\Tools\MSVC\14.44.35207\include\xmemory

; 1160 :     _CONSTEXPR20 explicit _Alloc_construct_ptr(_Alloc& _Al_) : _Al(_Al_), _Ptr(nullptr) {}

  0002c	89 5d ec	 mov	 DWORD PTR __Newnode$5[ebp], ebx

; 136  :         return ::operator new(_Bytes);

  0002f	6a 18		 push	 24			; 00000018H
; File C:\Program Files\Microsoft Visual Studio\2022\Professional\VC\Tools\MSVC\14.44.35207\include\xtree

; 808  :     explicit _Tree_temp_node_alloc(_Alnode& _Al_) : _Alloc_construct_ptr<_Alnode>(_Al_) {

  00031	c7 45 fc 00 00
	00 00		 mov	 DWORD PTR __$EHRec$[ebp+8], 0
; File C:\Program Files\Microsoft Visual Studio\2022\Professional\VC\Tools\MSVC\14.44.35207\include\xmemory

; 1167 :         _Ptr = nullptr; // if allocate throws, prevents double-free

  00038	c7 45 f0 00 00
	00 00		 mov	 DWORD PTR __Newnode$5[ebp+4], 0

; 136  :         return ::operator new(_Bytes);

  0003f	e8 00 00 00 00	 call	 ??2@YAPAXI@Z		; operator new
; File C:\Program Files\Microsoft Visual Studio\2022\Professional\VC\Tools\MSVC\14.44.35207\include\utility

; 303  :         : first(_STD forward<_Other1>(_Right.first)), second(_STD forward<_Other2>(_Right.second)) {}

  00044	8b 4d 0c	 mov	 ecx, DWORD PTR __Val$[ebp]
; File C:\Program Files\Microsoft Visual Studio\2022\Professional\VC\Tools\MSVC\14.44.35207\include\xmemory

; 256  :         return _Traits::_Allocate(_Bytes);

  00047	8b f8		 mov	 edi, eax
; File C:\Program Files\Microsoft Visual Studio\2022\Professional\VC\Tools\MSVC\14.44.35207\include\xtree

; 830  :         _Alnode_traits::construct(this->_Al, _STD addressof(this->_Ptr->_Myval), _STD forward<_Valtys>(_Vals)...);

  00049	8d 57 10	 lea	 edx, DWORD PTR [edi+16]
; File C:\Program Files\Microsoft Visual Studio\2022\Professional\VC\Tools\MSVC\14.44.35207\include\xmemory

; 1168 :         _Ptr = _Al.allocate(1);

  0004c	89 7d f0	 mov	 DWORD PTR __Newnode$5[ebp+4], edi

; 136  :         return ::operator new(_Bytes);

  0004f	83 c4 04	 add	 esp, 4
; File C:\Program Files\Microsoft Visual Studio\2022\Professional\VC\Tools\MSVC\14.44.35207\include\utility

; 303  :         : first(_STD forward<_Other1>(_Right.first)), second(_STD forward<_Other2>(_Right.second)) {}

  00052	8a 01		 mov	 al, BYTE PTR [ecx]
  00054	88 02		 mov	 BYTE PTR [edx], al
  00056	8b 49 04	 mov	 ecx, DWORD PTR [ecx+4]
  00059	89 4a 04	 mov	 DWORD PTR [edx+4], ecx
; File C:\Program Files\Microsoft Visual Studio\2022\Professional\VC\Tools\MSVC\14.44.35207\include\xtree

; 831  :         _Construct_in_place(this->_Ptr->_Left, _Myhead);

  0005c	89 37		 mov	 DWORD PTR [edi], esi

; 832  :         _Construct_in_place(this->_Ptr->_Parent, _Myhead);

  0005e	89 77 04	 mov	 DWORD PTR [edi+4], esi

; 833  :         _Construct_in_place(this->_Ptr->_Right, _Myhead);

  00061	89 77 08	 mov	 DWORD PTR [edi+8], esi
; File C:\Program Files\Microsoft Visual Studio\2022\Professional\VC\Tools\MSVC\14.44.35207\include\utility

; 303  :         : first(_STD forward<_Other1>(_Right.first)), second(_STD forward<_Other2>(_Right.second)) {}

  00064	88 45 0f	 mov	 BYTE PTR tv694[ebp], al
; File C:\Program Files\Microsoft Visual Studio\2022\Professional\VC\Tools\MSVC\14.44.35207\include\xtree

; 834  :         this->_Ptr->_Color = _Red;

  00067	66 c7 47 0c 00
	00		 mov	 WORD PTR [edi+12], 0

; 1031 :                 _Loc = _Find_lower_bound(_Keyval);

  0006d	52		 push	 edx
  0006e	8d 45 d4	 lea	 eax, DWORD PTR $T3[ebp]
  00071	c7 45 fc 01 00
	00 00		 mov	 DWORD PTR __$EHRec$[ebp+8], 1
  00078	50		 push	 eax
  00079	8b cb		 mov	 ecx, ebx
  0007b	e8 00 00 00 00	 call	 ??$_Find_lower_bound@E@?$_Tree@V?$_Tmap_traits@EPAVCSecretRoomContinent@@U?$less@E@std@@V?$allocator@U?$pair@$$CBEPAVCSecretRoomContinent@@@std@@@3@$0A@@std@@@std@@IBE?AU?$_Tree_find_result@PAU?$_Tree_node@U?$pair@$$CBEPAVCSecretRoomContinent@@@std@@PAX@std@@@1@ABE@Z ; std::_Tree<std::_Tmap_traits<unsigned char,CSecretRoomContinent *,std::less<unsigned char>,std::allocator<std::pair<unsigned char const ,CSecretRoomContinent *> >,0> >::_Find_lower_bound<unsigned char>
  00080	8b 70 08	 mov	 esi, DWORD PTR [eax+8]
  00083	f3 0f 7e 00	 movq	 xmm0, QWORD PTR [eax]
  00087	66 0f d6 45 e0	 movq	 QWORD PTR __Loc$4[ebp], xmm0

; 1624 :         return !_Bound->_Isnil && !_DEBUG_LT_PRED(_Getcomp(), _Keyval, _Traits::_Kfn(_Bound->_Myval));

  0008c	80 7e 0d 00	 cmp	 BYTE PTR [esi+13], 0
  00090	75 17		 jne	 SHORT $LN6@insert
; File C:\Program Files\Microsoft Visual Studio\2022\Professional\VC\Tools\MSVC\14.44.35207\include\type_traits

; 2380 :         return _Left < _Right;

  00092	8a 45 0f	 mov	 al, BYTE PTR tv694[ebp]
  00095	3a 46 10	 cmp	 al, BYTE PTR [esi+16]
; File C:\Program Files\Microsoft Visual Studio\2022\Professional\VC\Tools\MSVC\14.44.35207\include\xtree

; 1624 :         return !_Bound->_Isnil && !_DEBUG_LT_PRED(_Getcomp(), _Keyval, _Traits::_Kfn(_Bound->_Myval));

  00098	72 0f		 jb	 SHORT $LN6@insert
; File C:\Program Files\Microsoft Visual Studio\2022\Professional\VC\Tools\MSVC\14.44.35207\include\xmemory

; 289  :         ::operator delete(_Ptr, _Bytes);

  0009a	6a 18		 push	 24			; 00000018H
  0009c	57		 push	 edi
; File C:\Program Files\Microsoft Visual Studio\2022\Professional\VC\Tools\MSVC\14.44.35207\include\utility

; 274  :         : first(_STD forward<_Other1>(_Val1)), second(_STD forward<_Other2>(_Val2)) {

  0009d	32 db		 xor	 bl, bl
; File C:\Program Files\Microsoft Visual Studio\2022\Professional\VC\Tools\MSVC\14.44.35207\include\xmemory

; 289  :         ::operator delete(_Ptr, _Bytes);

  0009f	e8 00 00 00 00	 call	 ??3@YAXPAXI@Z		; operator delete
  000a4	83 c4 08	 add	 esp, 8
; File C:\Program Files\Microsoft Visual Studio\2022\Professional\VC\Tools\MSVC\14.44.35207\include\xtree

; 1033 :                     return {_Loc._Bound, false};

  000a7	eb 1b		 jmp	 SHORT $LN122@insert
$LN6@insert:

; 1648 :         if (max_size() == _Get_scary()->_Mysize) {

  000a9	81 7b 04 aa aa
	aa 0a		 cmp	 DWORD PTR [ebx+4], 178956970 ; 0aaaaaaaH
  000b0	74 2e		 je	 SHORT $LN142@insert

; 1042 :         return {_Scary->_Insert_node(_Loc._Location, _Inserted), true};

  000b2	57		 push	 edi
  000b3	ff 75 e4	 push	 DWORD PTR __Loc$4[ebp+4]
  000b6	8b cb		 mov	 ecx, ebx
  000b8	ff 75 e0	 push	 DWORD PTR __Loc$4[ebp]
  000bb	e8 00 00 00 00	 call	 ?_Insert_node@?$_Tree_val@U?$_Tree_simple_types@U?$pair@$$CBEPAVCSecretRoomContinent@@@std@@@std@@@std@@QAEPAU?$_Tree_node@U?$pair@$$CBEPAVCSecretRoomContinent@@@std@@PAX@2@U?$_Tree_id@PAU?$_Tree_node@U?$pair@$$CBEPAVCSecretRoomContinent@@@std@@PAX@std@@@2@QAU32@@Z ; std::_Tree_val<std::_Tree_simple_types<std::pair<unsigned char const ,CSecretRoomContinent *> > >::_Insert_node
; File C:\Program Files\Microsoft Visual Studio\2022\Professional\VC\Tools\MSVC\14.44.35207\include\utility

; 274  :         : first(_STD forward<_Other1>(_Val1)), second(_STD forward<_Other2>(_Val2)) {

  000c0	8b f0		 mov	 esi, eax
  000c2	b3 01		 mov	 bl, 1
$LN122@insert:
  000c4	8b 45 08	 mov	 eax, DWORD PTR ___$ReturnUdt$[ebp]
  000c7	89 30		 mov	 DWORD PTR [eax], esi
  000c9	88 58 04	 mov	 BYTE PTR [eax+4], bl
; File C:\Program Files\Microsoft Visual Studio\2022\Professional\VC\Tools\MSVC\14.44.35207\include\map

; 187  :     }

  000cc	8b 4d f4	 mov	 ecx, DWORD PTR __$EHRec$[ebp]
  000cf	64 89 0d 00 00
	00 00		 mov	 DWORD PTR fs:0, ecx
  000d6	59		 pop	 ecx
  000d7	5f		 pop	 edi
  000d8	5e		 pop	 esi
  000d9	5b		 pop	 ebx
  000da	8b e5		 mov	 esp, ebp
  000dc	5d		 pop	 ebp
  000dd	c2 08 00	 ret	 8
$LN142@insert:
; File C:\Program Files\Microsoft Visual Studio\2022\Professional\VC\Tools\MSVC\14.44.35207\include\xtree

; 1649 :             _Throw_tree_length_error();

  000e0	e8 00 00 00 00	 call	 ?_Throw_tree_length_error@std@@YAXXZ ; std::_Throw_tree_length_error
$LN140@insert:
  000e5	cc		 int	 3
_TEXT	ENDS
;	COMDAT text$x
text$x	SEGMENT
__unwindfunclet$??$insert@U?$pair@HPAVCSecretRoomContinent@@@std@@$0A@@?$map@EPAVCSecretRoomContinent@@U?$less@E@std@@V?$allocator@U?$pair@$$CBEPAVCSecretRoomContinent@@@std@@@3@@std@@QAE?AU?$pair@V?$_Tree_iterator@V?$_Tree_val@U?$_Tree_simple_types@U?$pair@$$CBEPAVCSecretRoomContinent@@@std@@@std@@@std@@@std@@_N@1@$$QAU?$pair@HPAVCSecretRoomContinent@@@1@@Z$2:
  00000	8d 4d ec	 lea	 ecx, DWORD PTR __Newnode$5[ebp]
  00003	e9 00 00 00 00	 jmp	 ??1?$_Alloc_construct_ptr@V?$allocator@U?$_Tree_node@U?$pair@$$CBEPAVCSecretRoomContinent@@@std@@PAX@std@@@std@@@std@@QAE@XZ ; std::_Alloc_construct_ptr<std::allocator<std::_Tree_node<std::pair<unsigned char const ,CSecretRoomContinent *>,void *> > >::~_Alloc_construct_ptr<std::allocator<std::_Tree_node<std::pair<unsigned char const ,CSecretRoomContinent *>,void *> > >
__unwindfunclet$??$insert@U?$pair@HPAVCSecretRoomContinent@@@std@@$0A@@?$map@EPAVCSecretRoomContinent@@U?$less@E@std@@V?$allocator@U?$pair@$$CBEPAVCSecretRoomContinent@@@std@@@3@@std@@QAE?AU?$pair@V?$_Tree_iterator@V?$_Tree_val@U?$_Tree_simple_types@U?$pair@$$CBEPAVCSecretRoomContinent@@@std@@@std@@@std@@@std@@_N@1@$$QAU?$pair@HPAVCSecretRoomContinent@@@1@@Z$0:
  00008	8d 4d ec	 lea	 ecx, DWORD PTR __Newnode$5[ebp]
  0000b	e9 00 00 00 00	 jmp	 ??1?$_Tree_temp_node@V?$allocator@U?$_Tree_node@U?$pair@$$CBEPAVCSecretRoomContinent@@@std@@PAX@std@@@std@@@std@@QAE@XZ ; std::_Tree_temp_node<std::allocator<std::_Tree_node<std::pair<unsigned char const ,CSecretRoomContinent *>,void *> > >::~_Tree_temp_node<std::allocator<std::_Tree_node<std::pair<unsigned char const ,CSecretRoomContinent *>,void *> > >
  00010	cc		 int	 3
  00011	cc		 int	 3
  00012	cc		 int	 3
  00013	cc		 int	 3
  00014	cc		 int	 3
__ehhandler$??$insert@U?$pair@HPAVCSecretRoomContinent@@@std@@$0A@@?$map@EPAVCSecretRoomContinent@@U?$less@E@std@@V?$allocator@U?$pair@$$CBEPAVCSecretRoomContinent@@@std@@@3@@std@@QAE?AU?$pair@V?$_Tree_iterator@V?$_Tree_val@U?$_Tree_simple_types@U?$pair@$$CBEPAVCSecretRoomContinent@@@std@@@std@@@std@@@std@@_N@1@$$QAU?$pair@HPAVCSecretRoomContinent@@@1@@Z:
  00015	90		 npad	 1
  00016	90		 npad	 1
  00017	8b 54 24 08	 mov	 edx, DWORD PTR [esp+8]
  0001b	8d 42 0c	 lea	 eax, DWORD PTR [edx+12]
  0001e	8b 4a d0	 mov	 ecx, DWORD PTR [edx-48]
  00021	33 c8		 xor	 ecx, eax
  00023	e8 00 00 00 00	 call	 @__security_check_cookie@4
  00028	b8 00 00 00 00	 mov	 eax, OFFSET __ehfuncinfo$??$insert@U?$pair@HPAVCSecretRoomContinent@@@std@@$0A@@?$map@EPAVCSecretRoomContinent@@U?$less@E@std@@V?$allocator@U?$pair@$$CBEPAVCSecretRoomContinent@@@std@@@3@@std@@QAE?AU?$pair@V?$_Tree_iterator@V?$_Tree_val@U?$_Tree_simple_types@U?$pair@$$CBEPAVCSecretRoomContinent@@@std@@@std@@@std@@@std@@_N@1@$$QAU?$pair@HPAVCSecretRoomContinent@@@1@@Z
  0002d	e9 00 00 00 00	 jmp	 ___CxxFrameHandler3
text$x	ENDS
??$insert@U?$pair@HPAVCSecretRoomContinent@@@std@@$0A@@?$map@EPAVCSecretRoomContinent@@U?$less@E@std@@V?$allocator@U?$pair@$$CBEPAVCSecretRoomContinent@@@std@@@3@@std@@QAE?AU?$pair@V?$_Tree_iterator@V?$_Tree_val@U?$_Tree_simple_types@U?$pair@$$CBEPAVCSecretRoomContinent@@@std@@@std@@@std@@@std@@_N@1@$$QAU?$pair@HPAVCSecretRoomContinent@@@1@@Z ENDP ; std::map<unsigned char,CSecretRoomContinent *,std::less<unsigned char>,std::allocator<std::pair<unsigned char const ,CSecretRoomContinent *> > >::insert<std::pair<int,CSecretRoomContinent *>,0>
; Function compile flags: /Ogtp
;	COMDAT ??_GCSecretRoomContinent@@UAEPAXI@Z
_TEXT	SEGMENT
___flags$ = 8						; size = 4
??_GCSecretRoomContinent@@UAEPAXI@Z PROC		; CSecretRoomContinent::`scalar deleting destructor', COMDAT
; _this$ = ecx
  00000	55		 push	 ebp
  00001	8b ec		 mov	 ebp, esp
  00003	56		 push	 esi
  00004	8b f1		 mov	 esi, ecx
  00006	e8 00 00 00 00	 call	 ??1CSecretRoomContinent@@UAE@XZ ; CSecretRoomContinent::~CSecretRoomContinent
  0000b	f6 45 08 01	 test	 BYTE PTR ___flags$[ebp], 1
  0000f	74 0b		 je	 SHORT $LN5@scalar
  00011	6a 20		 push	 32			; 00000020H
  00013	56		 push	 esi
  00014	e8 00 00 00 00	 call	 ??3@YAXPAXI@Z		; operator delete
  00019	83 c4 08	 add	 esp, 8
$LN5@scalar:
  0001c	8b c6		 mov	 eax, esi
  0001e	5e		 pop	 esi
  0001f	5d		 pop	 ebp
  00020	c2 04 00	 ret	 4
??_GCSecretRoomContinent@@UAEPAXI@Z ENDP		; CSecretRoomContinent::`scalar deleting destructor'
_TEXT	ENDS
; Function compile flags: /Ogtp
; File C:\IAGOS\server\v18\Source\Source\_Common\SecretRoom.cpp
; File C:\Program Files\Microsoft Visual Studio\2022\Professional\VC\Tools\MSVC\14.44.35207\include\vector
; File C:\IAGOS\server\v18\Source\Source\_Common\SecretRoom.cpp
; File C:\Program Files\Microsoft Visual Studio\2022\Professional\VC\Tools\MSVC\14.44.35207\include\vector
; File C:\IAGOS\server\v18\Source\Source\_Common\SecretRoom.cpp
; File C:\Program Files\Microsoft Visual Studio\2022\Professional\VC\Tools\MSVC\14.44.35207\include\vector
; File C:\IAGOS\server\v18\Source\Source\_Common\SecretRoom.cpp
; File C:\Program Files\Microsoft Visual Studio\2022\Professional\VC\Tools\MSVC\14.44.35207\include\vector
; File C:\IAGOS\server\v18\Source\Source\_Common\SecretRoom.cpp
; File C:\Program Files\Microsoft Visual Studio\2022\Professional\VC\Tools\MSVC\14.44.35207\include\vector
; File C:\IAGOS\server\v18\Source\Source\_Common\SecretRoom.cpp
; File C:\Program Files\Microsoft Visual Studio\2022\Professional\VC\Tools\MSVC\14.44.35207\include\xtree
; File C:\Program Files\Microsoft Visual Studio\2022\Professional\VC\Tools\MSVC\14.44.35207\include\type_traits
; File C:\Program Files\Microsoft Visual Studio\2022\Professional\VC\Tools\MSVC\14.44.35207\include\xtree
; File C:\Program Files\Microsoft Visual Studio\2022\Professional\VC\Tools\MSVC\14.44.35207\include\type_traits
; File C:\Program Files\Microsoft Visual Studio\2022\Professional\VC\Tools\MSVC\14.44.35207\include\xtree
; File C:\IAGOS\server\v18\Source\Source\_Common\Project.h
; File C:\IAGOS\server\v18\Source\Source\_Common\Obj.h
; File C:\IAGOS\server\v18\Source\Source\_Common\SecretRoom.cpp
; File C:\Program Files\Microsoft Visual Studio\2022\Professional\VC\Tools\MSVC\14.44.35207\include\vector
; File C:\IAGOS\server\v18\Source\Source\_Common\SecretRoom.cpp
; File C:\Program Files\Microsoft Visual Studio\2022\Professional\VC\Tools\MSVC\14.44.35207\include\vector
; File C:\IAGOS\server\v18\Source\Source\_Common\SecretRoom.cpp
; File C:\Program Files\Microsoft Visual Studio\2022\Professional\VC\Tools\MSVC\14.44.35207\include\vector
; File C:\IAGOS\server\v18\Source\Source\_Common\SecretRoom.cpp
; File C:\Program Files\Microsoft Visual Studio\2022\Professional\VC\Tools\MSVC\14.44.35207\include\vector
; File C:\IAGOS\server\v18\Source\Source\_Common\SecretRoom.cpp
; File C:\Program Files\Microsoft Visual Studio\2022\Professional\VC\Tools\MSVC\14.44.35207\include\vector
; File C:\IAGOS\server\v18\Source\Source\_Common\SecretRoom.cpp
; File C:\Program Files\Microsoft Visual Studio\2022\Professional\VC\Tools\MSVC\14.44.35207\include\vector
; File C:\IAGOS\server\v18\Source\Source\_Common\SecretRoom.cpp
; File C:\Program Files\Microsoft Visual Studio\2022\Professional\VC\Tools\MSVC\14.44.35207\include\vector
; File C:\Program Files\Microsoft Visual Studio\2022\Professional\VC\Tools\MSVC\14.44.35207\include\xmemory
; File C:\Program Files\Microsoft Visual Studio\2022\Professional\VC\Tools\MSVC\14.44.35207\include\vector
; File C:\IAGOS\server\v18\Source\Source\_Common\SecretRoom.cpp
;	COMDAT ?SetContClose@CSecretRoomContinent@@QAEXXZ
_TEXT	SEGMENT
tv798 = -32						; size = 4
_i$1$ = -28						; size = 4
_j$1$ = -24						; size = 4
$T2 = -24						; size = 4
_this$GSCopy$1$ = -20					; size = 4
$T3 = -16						; size = 12
__$ArrayPad$ = -4					; size = 4
?SetContClose@CSecretRoomContinent@@QAEXXZ PROC		; CSecretRoomContinent::SetContClose, COMDAT
; _this$ = ecx

; 1250 : {

  00000	55		 push	 ebp
  00001	8b ec		 mov	 ebp, esp
  00003	83 ec 20	 sub	 esp, 32			; 00000020H
  00006	a1 00 00 00 00	 mov	 eax, DWORD PTR ___security_cookie
  0000b	33 c5		 xor	 eax, ebp
  0000d	89 45 fc	 mov	 DWORD PTR __$ArrayPad$[ebp], eax
  00010	53		 push	 ebx
  00011	56		 push	 esi
  00012	8b d9		 mov	 ebx, ecx
  00014	57		 push	 edi

; 1251 : 	m_nState = SRCONT_CLOSE;
; 1252 : 	m_dwRemainTime = 0;
; 1253 : 	CSecretRoomMng::GetInstance()->SendNowStateAllMember( m_nContinent, m_nState );

  00015	6a 00		 push	 0
  00017	6a 65		 push	 101			; 00000065H
  00019	8a 43 0c	 mov	 al, BYTE PTR [ebx+12]
  0001c	50		 push	 eax
  0001d	89 5d ec	 mov	 DWORD PTR _this$GSCopy$1$[ebp], ebx
  00020	c7 43 04 65 00
	00 00		 mov	 DWORD PTR [ebx+4], 101	; 00000065H
  00027	c7 43 08 00 00
	00 00		 mov	 DWORD PTR [ebx+8], 0
  0002e	e8 00 00 00 00	 call	 ?GetInstance@CSecretRoomMng@@SAPAV1@XZ ; CSecretRoomMng::GetInstance
  00033	8b c8		 mov	 ecx, eax
  00035	e8 00 00 00 00	 call	 ?SendNowStateAllMember@CSecretRoomMng@@QAEXEHK@Z ; CSecretRoomMng::SendNowStateAllMember
; File C:\Program Files\Microsoft Visual Studio\2022\Professional\VC\Tools\MSVC\14.44.35207\include\vector

; 1915 :         return static_cast<size_type>(_My_data._Mylast - _My_data._Myfirst);

  0003a	8b 7b 14	 mov	 edi, DWORD PTR [ebx+20]
; File C:\IAGOS\server\v18\Source\Source\_Common\SecretRoom.cpp

; 1255 : 	for( DWORD i=0; i<m_vecSecretRoomTender.size(); i++ )

  0003d	33 c9		 xor	 ecx, ecx
; File C:\Program Files\Microsoft Visual Studio\2022\Professional\VC\Tools\MSVC\14.44.35207\include\vector

; 1915 :         return static_cast<size_type>(_My_data._Mylast - _My_data._Myfirst);

  0003f	8b 73 10	 mov	 esi, DWORD PTR [ebx+16]
  00042	b8 e9 a2 8b 2e	 mov	 eax, 780903145		; 2e8ba2e9H
; File C:\IAGOS\server\v18\Source\Source\_Common\SecretRoom.cpp

; 1255 : 	for( DWORD i=0; i<m_vecSecretRoomTender.size(); i++ )

  00047	89 4d e4	 mov	 DWORD PTR _i$1$[ebp], ecx
; File C:\Program Files\Microsoft Visual Studio\2022\Professional\VC\Tools\MSVC\14.44.35207\include\vector

; 1915 :         return static_cast<size_type>(_My_data._Mylast - _My_data._Myfirst);

  0004a	8b cf		 mov	 ecx, edi
  0004c	2b ce		 sub	 ecx, esi
  0004e	f7 e9		 imul	 ecx
  00050	c1 fa 03	 sar	 edx, 3
  00053	8b c2		 mov	 eax, edx
  00055	c1 e8 1f	 shr	 eax, 31			; 0000001fH
  00058	03 c2		 add	 eax, edx
; File C:\IAGOS\server\v18\Source\Source\_Common\SecretRoom.cpp

; 1255 : 	for( DWORD i=0; i<m_vecSecretRoomTender.size(); i++ )

  0005a	0f 84 1b 01 00
	00		 je	 $LN3@SetContClo
  00060	8b 3d 28 00 00
	00		 mov	 edi, DWORD PTR ?prj@@3VCProject@@A+40
  00066	33 d2		 xor	 edx, edx
  00068	8b de		 mov	 ebx, esi
  0006a	89 55 e0	 mov	 DWORD PTR tv798[ebp], edx
  0006d	0f 1f 00	 npad	 3
$LL4@SetContClo:

; 1256 : 	{
; 1257 : 		if( m_vecSecretRoomTender[i].nWarState == MONSTER_FAILED )

  00070	83 7c 1a 10 00	 cmp	 DWORD PTR [edx+ebx+16], 0
  00075	8b f3		 mov	 esi, ebx
  00077	0f 84 c3 00 00
	00		 je	 $LN2@SetContClo
; File C:\Program Files\Microsoft Visual Studio\2022\Professional\VC\Tools\MSVC\14.44.35207\include\vector

; 1915 :         return static_cast<size_type>(_My_data._Mylast - _My_data._Myfirst);

  0007d	8b 44 1a 18	 mov	 eax, DWORD PTR [edx+ebx+24]
; File C:\IAGOS\server\v18\Source\Source\_Common\SecretRoom.cpp

; 1260 : 		for( DWORD j=0; j<m_vecSecretRoomTender[i].vecLineUpMember.size(); j++ )

  00081	33 c9		 xor	 ecx, ecx
; File C:\Program Files\Microsoft Visual Studio\2022\Professional\VC\Tools\MSVC\14.44.35207\include\vector

; 1915 :         return static_cast<size_type>(_My_data._Mylast - _My_data._Myfirst);

  00083	2b 44 1a 14	 sub	 eax, DWORD PTR [edx+ebx+20]
  00087	c1 f8 02	 sar	 eax, 2
; File C:\IAGOS\server\v18\Source\Source\_Common\SecretRoom.cpp

; 1260 : 		for( DWORD j=0; j<m_vecSecretRoomTender[i].vecLineUpMember.size(); j++ )

  0008a	89 4d e8	 mov	 DWORD PTR _j$1$[ebp], ecx
  0008d	85 c0		 test	 eax, eax
  0008f	0f 84 ab 00 00
	00		 je	 $LN2@SetContClo
$LL7@SetContClo:

; 1261 : 		{
; 1262 : 			CUser* pUserTemp = (CUser*)prj.GetUserByID( m_vecSecretRoomTender[i].vecLineUpMember[j] );

  00095	8b 44 1a 14	 mov	 eax, DWORD PTR [edx+ebx+20]
  00099	8b 14 88	 mov	 edx, DWORD PTR [eax+ecx*4]
; File C:\Program Files\Microsoft Visual Studio\2022\Professional\VC\Tools\MSVC\14.44.35207\include\xtree

; 1630 :         _Tree_find_result<_Nodeptr> _Result{{_Scary->_Myhead->_Parent, _Tree_child::_Right}, _Scary->_Myhead};

  0009c	8b cf		 mov	 ecx, edi
  0009e	8b 47 04	 mov	 eax, DWORD PTR [edi+4]

; 1631 :         _Nodeptr _Trynode = _Result._Location._Parent;
; 1632 :         while (!_Trynode->_Isnil) {

  000a1	80 78 0d 00	 cmp	 BYTE PTR [eax+13], 0
  000a5	75 14		 jne	 SHORT $LN39@SetContClo
$LL38@SetContClo:
; File C:\Program Files\Microsoft Visual Studio\2022\Professional\VC\Tools\MSVC\14.44.35207\include\type_traits

; 2380 :         return _Left < _Right;

  000a7	39 50 10	 cmp	 DWORD PTR [eax+16], edx
; File C:\Program Files\Microsoft Visual Studio\2022\Professional\VC\Tools\MSVC\14.44.35207\include\xtree

; 1634 :             if (_DEBUG_LT_PRED(_Getcomp(), _Traits::_Kfn(_Trynode->_Myval), _Keyval)) {

  000aa	73 05		 jae	 SHORT $LN40@SetContClo

; 1635 :                 _Result._Location._Child = _Tree_child::_Right;
; 1636 :                 _Trynode                 = _Trynode->_Right;

  000ac	8b 40 08	 mov	 eax, DWORD PTR [eax+8]

; 1637 :             } else {

  000af	eb 04		 jmp	 SHORT $LN41@SetContClo
$LN40@SetContClo:

; 1638 :                 _Result._Location._Child = _Tree_child::_Left;
; 1639 :                 _Result._Bound           = _Trynode;

  000b1	8b c8		 mov	 ecx, eax

; 1640 :                 _Trynode                 = _Trynode->_Left;

  000b3	8b 00		 mov	 eax, DWORD PTR [eax]
$LN41@SetContClo:

; 1631 :         _Nodeptr _Trynode = _Result._Location._Parent;
; 1632 :         while (!_Trynode->_Isnil) {

  000b5	80 78 0d 00	 cmp	 BYTE PTR [eax+13], 0
  000b9	74 ec		 je	 SHORT $LL38@SetContClo
$LN39@SetContClo:

; 1624 :         return !_Bound->_Isnil && !_DEBUG_LT_PRED(_Getcomp(), _Keyval, _Traits::_Kfn(_Bound->_Myval));

  000bb	80 79 0d 00	 cmp	 BYTE PTR [ecx+13], 0
  000bf	75 05		 jne	 SHORT $LN35@SetContClo
; File C:\Program Files\Microsoft Visual Studio\2022\Professional\VC\Tools\MSVC\14.44.35207\include\type_traits

; 2380 :         return _Left < _Right;

  000c1	3b 51 10	 cmp	 edx, DWORD PTR [ecx+16]
; File C:\Program Files\Microsoft Visual Studio\2022\Professional\VC\Tools\MSVC\14.44.35207\include\xtree

; 1624 :         return !_Bound->_Isnil && !_DEBUG_LT_PRED(_Getcomp(), _Keyval, _Traits::_Kfn(_Bound->_Myval));

  000c4	73 02		 jae	 SHORT $LN34@SetContClo
$LN35@SetContClo:

; 1389 :         return _Get_scary()->_Myhead;

  000c6	8b cf		 mov	 ecx, edi
$LN34@SetContClo:

; 37   :     _Tree_unchecked_const_iterator(_Nodeptr _Pnode, const _Mytree* _Plist) noexcept : _Ptr(_Pnode) {

  000c8	3b cf		 cmp	 ecx, edi
; File C:\IAGOS\server\v18\Source\Source\_Common\Project.h

; 1436 : 	if( i != m_idPlayerToUserPtr.end() )

  000ca	74 4f		 je	 SHORT $LN5@SetContClo

; 1437 : 		return i->second;

  000cc	8b 71 14	 mov	 esi, DWORD PTR [ecx+20]
; File C:\IAGOS\server\v18\Source\Source\_Common\Obj.h

; 327  : 	return pObj && ( pObj->IsDelete() == FALSE ); 

  000cf	85 f6		 test	 esi, esi
  000d1	74 48		 je	 SHORT $LN5@SetContClo

; 180  : 	BOOL			IsDelete()	{ return (m_dwFlags & OBJ_FLAG_DELETE);  }

  000d3	f6 46 04 01	 test	 BYTE PTR [esi+4], 1

; 327  : 	return pObj && ( pObj->IsDelete() == FALSE ); 

  000d7	75 42		 jne	 SHORT $LN5@SetContClo
; File C:\IAGOS\server\v18\Source\Source\_Common\SecretRoom.cpp

; 1263 : 			if( IsValidObj( pUserTemp ) && CSecretRoomMng::GetInstance()->IsInTheSecretRoom( pUserTemp ) )

  000d9	56		 push	 esi
  000da	e8 00 00 00 00	 call	 ?GetInstance@CSecretRoomMng@@SAPAV1@XZ ; CSecretRoomMng::GetInstance
  000df	8b c8		 mov	 ecx, eax
  000e1	e8 00 00 00 00	 call	 ?IsInTheSecretRoom@CSecretRoomMng@@QAEHPAVCMover@@@Z ; CSecretRoomMng::IsInTheSecretRoom
  000e6	85 c0		 test	 eax, eax
  000e8	74 2b		 je	 SHORT $LN139@SetContClo

; 1264 : 				pUserTemp->REPLACE( g_uIdofMulti, WI_WORLD_MADRIGAL, CContinent::GetInstance()->GetRevivalPos( m_nContinent ), REPLACE_NORMAL, nDefaultLayer );

  000ea	8b 45 ec	 mov	 eax, DWORD PTR _this$GSCopy$1$[ebp]
  000ed	6a 00		 push	 0
  000ef	6a 00		 push	 0
  000f1	8a 40 0c	 mov	 al, BYTE PTR [eax+12]
  000f4	50		 push	 eax
  000f5	8d 45 f0	 lea	 eax, DWORD PTR $T3[ebp]
  000f8	50		 push	 eax
  000f9	e8 00 00 00 00	 call	 ?GetInstance@CContinent@@SAPAV1@XZ ; CContinent::GetInstance
  000fe	8b c8		 mov	 ecx, eax
  00100	e8 00 00 00 00	 call	 ?GetRevivalPos@CContinent@@QAE?AUD3DXVECTOR3@@E@Z ; CContinent::GetRevivalPos
  00105	50		 push	 eax
  00106	6a 01		 push	 1
  00108	ff 35 00 00 00
	00		 push	 DWORD PTR ?g_uIdofMulti@@3KA ; g_uIdofMulti
  0010e	8b ce		 mov	 ecx, esi
  00110	e8 00 00 00 00	 call	 ?Replace@CMover@@QAEHKKAAUD3DXVECTOR3@@W4REPLACE_TYPE@@H@Z ; CMover::Replace
$LN139@SetContClo:

; 1260 : 		for( DWORD j=0; j<m_vecSecretRoomTender[i].vecLineUpMember.size(); j++ )

  00115	8b 3d 28 00 00
	00		 mov	 edi, DWORD PTR ?prj@@3VCProject@@A+40
$LN5@SetContClo:
; File C:\Program Files\Microsoft Visual Studio\2022\Professional\VC\Tools\MSVC\14.44.35207\include\vector

; 1914 :         auto& _My_data = _Mypair._Myval2;

  0011b	8b 45 ec	 mov	 eax, DWORD PTR _this$GSCopy$1$[ebp]

; 1915 :         return static_cast<size_type>(_My_data._Mylast - _My_data._Myfirst);

  0011e	8b 55 e0	 mov	 edx, DWORD PTR tv798[ebp]
; File C:\IAGOS\server\v18\Source\Source\_Common\SecretRoom.cpp

; 1260 : 		for( DWORD j=0; j<m_vecSecretRoomTender[i].vecLineUpMember.size(); j++ )

  00121	8b 4d e8	 mov	 ecx, DWORD PTR _j$1$[ebp]
  00124	41		 inc	 ecx
; File C:\Program Files\Microsoft Visual Studio\2022\Professional\VC\Tools\MSVC\14.44.35207\include\vector

; 1914 :         auto& _My_data = _Mypair._Myval2;

  00125	8b 70 10	 mov	 esi, DWORD PTR [eax+16]

; 1915 :         return static_cast<size_type>(_My_data._Mylast - _My_data._Myfirst);

  00128	8b de		 mov	 ebx, esi
; File C:\IAGOS\server\v18\Source\Source\_Common\SecretRoom.cpp

; 1260 : 		for( DWORD j=0; j<m_vecSecretRoomTender[i].vecLineUpMember.size(); j++ )

  0012a	89 4d e8	 mov	 DWORD PTR _j$1$[ebp], ecx
; File C:\Program Files\Microsoft Visual Studio\2022\Professional\VC\Tools\MSVC\14.44.35207\include\vector

; 1915 :         return static_cast<size_type>(_My_data._Mylast - _My_data._Myfirst);

  0012d	8b 44 32 18	 mov	 eax, DWORD PTR [edx+esi+24]
  00131	2b 44 32 14	 sub	 eax, DWORD PTR [edx+esi+20]
  00135	c1 f8 02	 sar	 eax, 2
; File C:\IAGOS\server\v18\Source\Source\_Common\SecretRoom.cpp

; 1260 : 		for( DWORD j=0; j<m_vecSecretRoomTender[i].vecLineUpMember.size(); j++ )

  00138	3b c8		 cmp	 ecx, eax
  0013a	0f 82 55 ff ff
	ff		 jb	 $LL7@SetContClo
$LN2@SetContClo:
; File C:\Program Files\Microsoft Visual Studio\2022\Professional\VC\Tools\MSVC\14.44.35207\include\vector

; 1915 :         return static_cast<size_type>(_My_data._Mylast - _My_data._Myfirst);

  00140	8b 45 ec	 mov	 eax, DWORD PTR _this$GSCopy$1$[ebp]
; File C:\IAGOS\server\v18\Source\Source\_Common\SecretRoom.cpp

; 1255 : 	for( DWORD i=0; i<m_vecSecretRoomTender.size(); i++ )

  00143	83 c2 2c	 add	 edx, 44			; 0000002cH
  00146	ff 45 e4	 inc	 DWORD PTR _i$1$[ebp]
; File C:\Program Files\Microsoft Visual Studio\2022\Professional\VC\Tools\MSVC\14.44.35207\include\vector

; 1915 :         return static_cast<size_type>(_My_data._Mylast - _My_data._Myfirst);

  00149	8b de		 mov	 ebx, esi
; File C:\IAGOS\server\v18\Source\Source\_Common\SecretRoom.cpp

; 1255 : 	for( DWORD i=0; i<m_vecSecretRoomTender.size(); i++ )

  0014b	89 55 e0	 mov	 DWORD PTR tv798[ebp], edx
; File C:\Program Files\Microsoft Visual Studio\2022\Professional\VC\Tools\MSVC\14.44.35207\include\vector

; 1915 :         return static_cast<size_type>(_My_data._Mylast - _My_data._Myfirst);

  0014e	8b 40 14	 mov	 eax, DWORD PTR [eax+20]
  00151	8b c8		 mov	 ecx, eax
  00153	89 45 e8	 mov	 DWORD PTR $T2[ebp], eax
  00156	2b ce		 sub	 ecx, esi
  00158	b8 e9 a2 8b 2e	 mov	 eax, 780903145		; 2e8ba2e9H
  0015d	f7 e9		 imul	 ecx
  0015f	c1 fa 03	 sar	 edx, 3
  00162	8b c2		 mov	 eax, edx
  00164	c1 e8 1f	 shr	 eax, 31			; 0000001fH
  00167	03 c2		 add	 eax, edx
; File C:\IAGOS\server\v18\Source\Source\_Common\SecretRoom.cpp

; 1255 : 	for( DWORD i=0; i<m_vecSecretRoomTender.size(); i++ )

  00169	8b 55 e0	 mov	 edx, DWORD PTR tv798[ebp]
  0016c	39 45 e4	 cmp	 DWORD PTR _i$1$[ebp], eax
  0016f	0f 82 fb fe ff
	ff		 jb	 $LL4@SetContClo
  00175	8b 7d e8	 mov	 edi, DWORD PTR $T2[ebp]
  00178	8b 5d ec	 mov	 ebx, DWORD PTR _this$GSCopy$1$[ebp]
$LN3@SetContClo:
; File C:\Program Files\Microsoft Visual Studio\2022\Professional\VC\Tools\MSVC\14.44.35207\include\vector

; 1812 :         if (_Myfirst == _Mylast) { // already empty, nothing to do

  0017b	3b f7		 cmp	 esi, edi
  0017d	74 22		 je	 SHORT $LN95@SetContClo

; 1813 :             // This is an optimization for debug mode: we can avoid taking the debug lock to invalidate iterators.
; 1814 :             // Note that when clearing an empty vector, this will preserve past-the-end iterators, which is allowed by
; 1815 :             // N4950 [sequence.reqmts]/54 "a.clear() [...] may invalidate the past-the-end iterator".
; 1816 :             return;
; 1817 :         }
; 1818 : 
; 1819 :         _My_data._Orphan_all();
; 1820 :         _Destroy_range(_Myfirst, _Mylast, _Getal());

  0017f	83 c6 14	 add	 esi, 20			; 00000014H
$LL102@SetContClo:

; 830  :         _Tidy();

  00182	8d 4e 0c	 lea	 ecx, DWORD PTR [esi+12]
  00185	e8 00 00 00 00	 call	 ?_Tidy@?$vector@U__SECRETROOM_MONSTER@@V?$allocator@U__SECRETROOM_MONSTER@@@std@@@std@@AAEXXZ ; std::vector<__SECRETROOM_MONSTER,std::allocator<__SECRETROOM_MONSTER> >::_Tidy
  0018a	8b ce		 mov	 ecx, esi
  0018c	e8 00 00 00 00	 call	 ?_Tidy@?$vector@KV?$allocator@K@std@@@std@@AAEXXZ ; std::vector<unsigned long,std::allocator<unsigned long> >::_Tidy
; File C:\Program Files\Microsoft Visual Studio\2022\Professional\VC\Tools\MSVC\14.44.35207\include\xmemory

; 1102 :         for (; _First != _Last; ++_First) {

  00191	83 c6 2c	 add	 esi, 44			; 0000002cH
  00194	8d 46 ec	 lea	 eax, DWORD PTR [esi-20]
  00197	3b c7		 cmp	 eax, edi
  00199	75 e7		 jne	 SHORT $LL102@SetContClo
; File C:\Program Files\Microsoft Visual Studio\2022\Professional\VC\Tools\MSVC\14.44.35207\include\vector

; 1822 :         _Mylast = _Myfirst;

  0019b	8b 43 10	 mov	 eax, DWORD PTR [ebx+16]
  0019e	89 43 14	 mov	 DWORD PTR [ebx+20], eax
$LN95@SetContClo:
; File C:\IAGOS\server\v18\Source\Source\_Common\SecretRoom.cpp

; 1269 : }

  001a1	8b 4d fc	 mov	 ecx, DWORD PTR __$ArrayPad$[ebp]
  001a4	5f		 pop	 edi
  001a5	5e		 pop	 esi
  001a6	33 cd		 xor	 ecx, ebp
  001a8	5b		 pop	 ebx
  001a9	e8 00 00 00 00	 call	 @__security_check_cookie@4
  001ae	8b e5		 mov	 esp, ebp
  001b0	5d		 pop	 ebp
  001b1	c3		 ret	 0
?SetContClose@CSecretRoomContinent@@QAEXXZ ENDP		; CSecretRoomContinent::SetContClose
_TEXT	ENDS
; Function compile flags: /Ogtp
; File C:\IAGOS\server\v18\Source\Source\_Common\SecretRoom.cpp
; File C:\Program Files\Microsoft Visual Studio\2022\Professional\VC\Tools\MSVC\14.44.35207\include\vector
; File C:\IAGOS\server\v18\Source\Source\_Common\SecretRoom.cpp
; File C:\Program Files\Microsoft Visual Studio\2022\Professional\VC\Tools\MSVC\14.44.35207\include\vector
; File C:\IAGOS\server\v18\Source\Source\_Common\SecretRoom.cpp
; File C:\Program Files\Microsoft Visual Studio\2022\Professional\VC\Tools\MSVC\14.44.35207\include\vector
; File C:\IAGOS\server\v18\Source\Source\_Common\SecretRoom.cpp
; File C:\Program Files\Microsoft Visual Studio\2022\Professional\VC\Tools\MSVC\14.44.35207\include\vector
; File C:\IAGOS\server\v18\Source\Source\_Common\SecretRoom.cpp
; File C:\Program Files\Microsoft Visual Studio\2022\Professional\VC\Tools\MSVC\14.44.35207\include\vector
; File C:\IAGOS\server\v18\Source\Source\_Common\SecretRoom.cpp
; File C:\Program Files\Microsoft Visual Studio\2022\Professional\VC\Tools\MSVC\14.44.35207\include\vector
; File C:\IAGOS\server\v18\Source\Source\_Common\SecretRoom.cpp
;	COMDAT ?SetContCloseWait@CSecretRoomContinent@@QAEXXZ
_TEXT	SEGMENT
tv475 = -12						; size = 8
$T1 = -8						; size = 1
_i$1$ = -4						; size = 4
?SetContCloseWait@CSecretRoomContinent@@QAEXXZ PROC	; CSecretRoomContinent::SetContCloseWait, COMDAT
; _this$ = ecx

; 1220 : {

  00000	55		 push	 ebp
  00001	8b ec		 mov	 ebp, esp
  00003	83 ec 0c	 sub	 esp, 12			; 0000000cH
  00006	53		 push	 ebx
  00007	56		 push	 esi
  00008	8b d9		 mov	 ebx, ecx
  0000a	57		 push	 edi

; 1221 : 	m_nState = SRCONT_CLOSEWAIT;
; 1222 : 	m_dwRemainTime = (DWORD)CSecretRoomMng::GetInstance()->m_Lua.GetGlobalNumber( "CloseWaitTime" ) + GetTickCount();

  0000b	68 00 00 00 00	 push	 OFFSET ??_C@_0O@NKMKODGA@CloseWaitTime@
  00010	c7 43 04 68 00
	00 00		 mov	 DWORD PTR [ebx+4], 104	; 00000068H
  00017	e8 00 00 00 00	 call	 ?GetInstance@CSecretRoomMng@@SAPAV1@XZ ; CSecretRoomMng::GetInstance
  0001c	8d 48 44	 lea	 ecx, DWORD PTR [eax+68]
  0001f	e8 00 00 00 00	 call	 ?GetGlobalNumber@CLuaBase@@QAENPAD@Z ; CLuaBase::GetGlobalNumber
  00024	dd 5d f4	 fstp	 QWORD PTR tv475[ebp]
  00027	f2 0f 10 45 f4	 movsd	 xmm0, QWORD PTR tv475[ebp]
  0002c	e8 00 00 00 00	 call	 __dtol3
  00031	8b 3d 00 00 00
	00		 mov	 edi, DWORD PTR __imp__GetTickCount@0
  00037	8b f0		 mov	 esi, eax
  00039	ff d7		 call	 edi
  0003b	03 c6		 add	 eax, esi

; 1223 : 	m_nFailedGuild = 0;

  0003d	c7 43 1c 00 00
	00 00		 mov	 DWORD PTR [ebx+28], 0
  00044	89 43 08	 mov	 DWORD PTR [ebx+8], eax

; 1224 : 	CSecretRoomMng::GetInstance()->SendNowStateAllMember( m_nContinent, m_nState, m_dwRemainTime - GetTickCount() );

  00047	8b f0		 mov	 esi, eax
  00049	ff d7		 call	 edi
  0004b	2b f0		 sub	 esi, eax
  0004d	8a 43 0c	 mov	 al, BYTE PTR [ebx+12]
  00050	56		 push	 esi
  00051	ff 73 04	 push	 DWORD PTR [ebx+4]
  00054	50		 push	 eax
  00055	e8 00 00 00 00	 call	 ?GetInstance@CSecretRoomMng@@SAPAV1@XZ ; CSecretRoomMng::GetInstance
  0005a	8b c8		 mov	 ecx, eax
  0005c	e8 00 00 00 00	 call	 ?SendNowStateAllMember@CSecretRoomMng@@QAEXEHK@Z ; CSecretRoomMng::SendNowStateAllMember
; File C:\Program Files\Microsoft Visual Studio\2022\Professional\VC\Tools\MSVC\14.44.35207\include\vector

; 1915 :         return static_cast<size_type>(_My_data._Mylast - _My_data._Myfirst);

  00061	8b 7b 10	 mov	 edi, DWORD PTR [ebx+16]
; File C:\IAGOS\server\v18\Source\Source\_Common\SecretRoom.cpp

; 1225 : 	for( DWORD i=0; i<m_vecSecretRoomTender.size(); i++ )

  00064	33 c9		 xor	 ecx, ecx
  00066	89 4d fc	 mov	 DWORD PTR _i$1$[ebp], ecx
; File C:\Program Files\Microsoft Visual Studio\2022\Professional\VC\Tools\MSVC\14.44.35207\include\vector

; 1915 :         return static_cast<size_type>(_My_data._Mylast - _My_data._Myfirst);

  00069	b8 e9 a2 8b 2e	 mov	 eax, 780903145		; 2e8ba2e9H
  0006e	8b 4b 14	 mov	 ecx, DWORD PTR [ebx+20]
  00071	2b cf		 sub	 ecx, edi
  00073	f7 e9		 imul	 ecx
  00075	c1 fa 03	 sar	 edx, 3
  00078	8b c2		 mov	 eax, edx
  0007a	c1 e8 1f	 shr	 eax, 31			; 0000001fH
  0007d	03 c2		 add	 eax, edx
; File C:\IAGOS\server\v18\Source\Source\_Common\SecretRoom.cpp

; 1225 : 	for( DWORD i=0; i<m_vecSecretRoomTender.size(); i++ )

  0007f	0f 84 95 00 00
	00		 je	 $LN3@SetContClo
  00085	33 f6		 xor	 esi, esi
  00087	66 0f 1f 84 00
	00 00 00 00	 npad	 9
$LL4@SetContClo:

; 1226 : 	{
; 1227 : 		// ż©±âĽ­ ¸ĘŔÇ ¸ó˝şĹÍ°ˇ ŔüşÎ Á¦°ĹµČ´Ů.
; 1228 : //		if( m_vecSecretRoomTender[i].nWarState == MONSTER_FAILED )
; 1229 : //			continue;
; 1230 : //		else
; 1231 : 			RemoveAllSecretRoomObj( m_vecSecretRoomTender[i].dwWorldId );

  00090	ff 74 3e 0c	 push	 DWORD PTR [esi+edi+12]
  00094	8b cb		 mov	 ecx, ebx
  00096	e8 00 00 00 00	 call	 ?RemoveAllSecretRoomObj@CSecretRoomContinent@@QAEXK@Z ; CSecretRoomContinent::RemoveAllSecretRoomObj

; 1232 : 
; 1233 : 		if( m_vecSecretRoomTender[i].nWarState == MONSTER_WIN )

  0009b	8b 43 10	 mov	 eax, DWORD PTR [ebx+16]
  0009e	83 7c 06 10 04	 cmp	 DWORD PTR [esi+eax+16], 4
  000a3	8d 0c 06	 lea	 ecx, DWORD PTR [esi+eax]
  000a6	75 33		 jne	 SHORT $LN5@SetContClo

; 1234 : 		{
; 1235 : 	#if __VER >= 12 // __TAX
; 1236 : 			CTax::GetInstance()->SetNextSecretRoomGuild( m_nContinent, m_vecSecretRoomTender[i].dwGuildId );

  000a8	ff 31		 push	 DWORD PTR [ecx]
  000aa	8a 43 0c	 mov	 al, BYTE PTR [ebx+12]
  000ad	50		 push	 eax
  000ae	e8 00 00 00 00	 call	 ?GetInstance@CTax@@SAPAV1@XZ ; CTax::GetInstance
  000b3	8b c8		 mov	 ecx, eax
  000b5	e8 00 00 00 00	 call	 ?SetNextSecretRoomGuild@CTax@@QAEXEK@Z ; CTax::SetNextSecretRoomGuild
; File C:\Program Files\Microsoft Visual Studio\2022\Professional\VC\Tools\MSVC\14.44.35207\include\vector

; 1934 :         return _My_data._Myfirst[_Pos];

  000ba	8b 4b 10	 mov	 ecx, DWORD PTR [ebx+16]
; File C:\IAGOS\server\v18\Source\Source\_Common\SecretRoom.cpp

; 1237 : 			CTax::GetInstance()->SendSetTaxRateOpenWnd( m_nContinent, m_vecSecretRoomTender[i].dwGuildId );

  000bd	8a 43 0c	 mov	 al, BYTE PTR [ebx+12]
  000c0	ff 34 31	 push	 DWORD PTR [ecx+esi]
  000c3	50		 push	 eax
  000c4	e8 00 00 00 00	 call	 ?GetInstance@CTax@@SAPAV1@XZ ; CTax::GetInstance
  000c9	8b c8		 mov	 ecx, eax
  000cb	e8 00 00 00 00	 call	 ?SendSetTaxRateOpenWnd@CTax@@QAEXEK@Z ; CTax::SendSetTaxRateOpenWnd
; File C:\Program Files\Microsoft Visual Studio\2022\Professional\VC\Tools\MSVC\14.44.35207\include\vector

; 1934 :         return _My_data._Myfirst[_Pos];

  000d0	8b 4b 10	 mov	 ecx, DWORD PTR [ebx+16]
  000d3	03 ce		 add	 ecx, esi
; File C:\IAGOS\server\v18\Source\Source\_Common\SecretRoom.cpp

; 1240 : 			g_dpDBClient.SendSecretRoomUpdateToDB( m_nContinent, m_vecSecretRoomTender[i], 'W' );

  000d5	c6 45 f8 57	 mov	 BYTE PTR $T1[ebp], 87	; 00000057H

; 1241 : 		}

  000d9	eb 04		 jmp	 SHORT $LN2@SetContClo
$LN5@SetContClo:

; 1242 : 		else
; 1243 : 			// DBżˇ Update - 'L' : łŞ¸ÓÁö´Â ŔüşÎ ĆĐąč ±ćµĺ·Î ŔúŔĺ
; 1244 : 			g_dpDBClient.SendSecretRoomUpdateToDB( m_nContinent, m_vecSecretRoomTender[i], 'L' );

  000db	c6 45 f8 4c	 mov	 BYTE PTR $T1[ebp], 76	; 0000004cH
$LN2@SetContClo:

; 1225 : 	for( DWORD i=0; i<m_vecSecretRoomTender.size(); i++ )

  000df	ff 75 f8	 push	 DWORD PTR $T1[ebp]
  000e2	0f b6 43 0c	 movzx	 eax, BYTE PTR [ebx+12]
  000e6	51		 push	 ecx
  000e7	50		 push	 eax
  000e8	b9 00 00 00 00	 mov	 ecx, OFFSET ?g_dpDBClient@@3VCDPDatabaseClient@@A ; g_dpDBClient
  000ed	e8 00 00 00 00	 call	 ?SendSecretRoomUpdateToDB@CDPDatabaseClient@@QAEXEAAU__SECRETROOM_TENDER@@D@Z ; CDPDatabaseClient::SendSecretRoomUpdateToDB
; File C:\Program Files\Microsoft Visual Studio\2022\Professional\VC\Tools\MSVC\14.44.35207\include\vector

; 1915 :         return static_cast<size_type>(_My_data._Mylast - _My_data._Myfirst);

  000f2	8b 4b 14	 mov	 ecx, DWORD PTR [ebx+20]
  000f5	b8 e9 a2 8b 2e	 mov	 eax, 780903145		; 2e8ba2e9H
  000fa	8b 7b 10	 mov	 edi, DWORD PTR [ebx+16]
; File C:\IAGOS\server\v18\Source\Source\_Common\SecretRoom.cpp

; 1225 : 	for( DWORD i=0; i<m_vecSecretRoomTender.size(); i++ )

  000fd	83 c6 2c	 add	 esi, 44			; 0000002cH
  00100	ff 45 fc	 inc	 DWORD PTR _i$1$[ebp]
; File C:\Program Files\Microsoft Visual Studio\2022\Professional\VC\Tools\MSVC\14.44.35207\include\vector

; 1915 :         return static_cast<size_type>(_My_data._Mylast - _My_data._Myfirst);

  00103	2b cf		 sub	 ecx, edi
  00105	f7 e9		 imul	 ecx
  00107	c1 fa 03	 sar	 edx, 3
  0010a	8b c2		 mov	 eax, edx
  0010c	c1 e8 1f	 shr	 eax, 31			; 0000001fH
  0010f	03 c2		 add	 eax, edx
; File C:\IAGOS\server\v18\Source\Source\_Common\SecretRoom.cpp

; 1225 : 	for( DWORD i=0; i<m_vecSecretRoomTender.size(); i++ )

  00111	39 45 fc	 cmp	 DWORD PTR _i$1$[ebp], eax
  00114	0f 82 76 ff ff
	ff		 jb	 $LL4@SetContClo
$LN3@SetContClo:
  0011a	5f		 pop	 edi

; 1245 : 	}
; 1246 : }

  0011b	5e		 pop	 esi
  0011c	5b		 pop	 ebx
  0011d	8b e5		 mov	 esp, ebp
  0011f	5d		 pop	 ebp
  00120	c3		 ret	 0
?SetContCloseWait@CSecretRoomContinent@@QAEXXZ ENDP	; CSecretRoomContinent::SetContCloseWait
_TEXT	ENDS
; Function compile flags: /Ogtp
; File C:\IAGOS\server\v18\Source\Source\_Common\SecretRoom.cpp
; File C:\Program Files\Microsoft Visual Studio\2022\Professional\VC\Tools\MSVC\14.44.35207\include\vector
; File C:\IAGOS\server\v18\Source\Source\_Common\SecretRoom.cpp
; File C:\Program Files\Microsoft Visual Studio\2022\Professional\VC\Tools\MSVC\14.44.35207\include\vector
; File C:\IAGOS\server\v18\Source\Source\_Common\SecretRoom.cpp
; File C:\Program Files\Microsoft Visual Studio\2022\Professional\VC\Tools\MSVC\14.44.35207\include\vector
; File C:\IAGOS\server\v18\Source\Source\_Common\SecretRoom.cpp
; File C:\Program Files\Microsoft Visual Studio\2022\Professional\VC\Tools\MSVC\14.44.35207\include\vector
; File C:\IAGOS\server\v18\Source\Source\_Common\SecretRoom.cpp
; File C:\Program Files\Microsoft Visual Studio\2022\Professional\VC\Tools\MSVC\14.44.35207\include\vector
; File C:\IAGOS\server\v18\Source\Source\_Common\SecretRoom.cpp
; File C:\Program Files\Microsoft Visual Studio\2022\Professional\VC\Tools\MSVC\14.44.35207\include\xtree
; File C:\IAGOS\server\v18\Source\Source\_Common\SecretRoom.cpp
; File C:\Program Files\Microsoft Visual Studio\2022\Professional\VC\Tools\MSVC\14.44.35207\include\xtree
; File C:\Program Files\Microsoft Visual Studio\2022\Professional\VC\Tools\MSVC\14.44.35207\include\type_traits
; File C:\Program Files\Microsoft Visual Studio\2022\Professional\VC\Tools\MSVC\14.44.35207\include\xtree
; File C:\Program Files\Microsoft Visual Studio\2022\Professional\VC\Tools\MSVC\14.44.35207\include\type_traits
; File C:\Program Files\Microsoft Visual Studio\2022\Professional\VC\Tools\MSVC\14.44.35207\include\xtree
; File C:\IAGOS\server\v18\Source\Source\_Common\Project.h
; File C:\IAGOS\server\v18\Source\Source\_Common\Obj.h
; File C:\IAGOS\server\v18\Source\Source\_Common\SecretRoom.cpp
; File C:\Program Files\Microsoft Visual Studio\2022\Professional\VC\Tools\MSVC\14.44.35207\include\vector
; File C:\IAGOS\server\v18\Source\Source\_Common\SecretRoom.cpp
; File C:\Program Files\Microsoft Visual Studio\2022\Professional\VC\Tools\MSVC\14.44.35207\include\vector
; File C:\IAGOS\server\v18\Source\Source\_Common\SecretRoom.cpp
;	COMDAT ?SetContFailGuild@CSecretRoomContinent@@QAEXK@Z
_TEXT	SEGMENT
_nIndex$1$ = -28					; size = 4
_i$1$ = -24						; size = 4
tv679 = -20						; size = 4
$T2 = -16						; size = 12
__$ArrayPad$ = -4					; size = 4
_dwGuildId$ = 8						; size = 4
?SetContFailGuild@CSecretRoomContinent@@QAEXK@Z PROC	; CSecretRoomContinent::SetContFailGuild, COMDAT
; _this$ = ecx

; 1318 : {

  00000	55		 push	 ebp
  00001	8b ec		 mov	 ebp, esp
  00003	83 ec 1c	 sub	 esp, 28			; 0000001cH
  00006	a1 00 00 00 00	 mov	 eax, DWORD PTR ___security_cookie
  0000b	33 c5		 xor	 eax, ebp
  0000d	89 45 fc	 mov	 DWORD PTR __$ArrayPad$[ebp], eax
  00010	53		 push	 ebx
  00011	57		 push	 edi

; 1319 : 	int nIndex = GetTenderGuild( dwGuildId );

  00012	ff 75 08	 push	 DWORD PTR _dwGuildId$[ebp]
  00015	8b d9		 mov	 ebx, ecx
  00017	e8 00 00 00 00	 call	 ?GetTenderGuild@CSecretRoomContinent@@QAEHK@Z ; CSecretRoomContinent::GetTenderGuild
  0001c	8b f8		 mov	 edi, eax
  0001e	89 7d e4	 mov	 DWORD PTR _nIndex$1$[ebp], edi

; 1320 : 	if( nIndex == NULL_ID )

  00021	83 ff ff	 cmp	 edi, -1
  00024	0f 84 24 01 00
	00		 je	 $LN1@SetContFai
; File C:\Program Files\Microsoft Visual Studio\2022\Professional\VC\Tools\MSVC\14.44.35207\include\vector

; 1934 :         return _My_data._Myfirst[_Pos];

  0002a	8b 43 10	 mov	 eax, DWORD PTR [ebx+16]
; File C:\IAGOS\server\v18\Source\Source\_Common\SecretRoom.cpp

; 1324 : 	g_dpDBClient.SendSecretRoomUpdateToDB( m_nContinent, m_vecSecretRoomTender[nIndex], 'L' );	

  0002d	b9 00 00 00 00	 mov	 ecx, OFFSET ?g_dpDBClient@@3VCDPDatabaseClient@@A ; g_dpDBClient
  00032	56		 push	 esi
; File C:\Program Files\Microsoft Visual Studio\2022\Professional\VC\Tools\MSVC\14.44.35207\include\vector

; 1934 :         return _My_data._Myfirst[_Pos];

  00033	6b f7 2c	 imul	 esi, edi, 44
; File C:\IAGOS\server\v18\Source\Source\_Common\SecretRoom.cpp

; 1324 : 	g_dpDBClient.SendSecretRoomUpdateToDB( m_nContinent, m_vecSecretRoomTender[nIndex], 'L' );	

  00036	6a 4c		 push	 76			; 0000004cH
; File C:\Program Files\Microsoft Visual Studio\2022\Professional\VC\Tools\MSVC\14.44.35207\include\vector

; 1934 :         return _My_data._Myfirst[_Pos];

  00038	03 c6		 add	 eax, esi
  0003a	89 75 ec	 mov	 DWORD PTR tv679[ebp], esi
; File C:\IAGOS\server\v18\Source\Source\_Common\SecretRoom.cpp

; 1324 : 	g_dpDBClient.SendSecretRoomUpdateToDB( m_nContinent, m_vecSecretRoomTender[nIndex], 'L' );	

  0003d	50		 push	 eax
  0003e	0f b6 43 0c	 movzx	 eax, BYTE PTR [ebx+12]
  00042	50		 push	 eax
  00043	e8 00 00 00 00	 call	 ?SendSecretRoomUpdateToDB@CDPDatabaseClient@@QAEXEAAU__SECRETROOM_TENDER@@D@Z ; CDPDatabaseClient::SendSecretRoomUpdateToDB

; 1325 : 	
; 1326 : 	m_vecSecretRoomTender[nIndex].nWarState = MONSTER_FAILED;

  00048	8b 43 10	 mov	 eax, DWORD PTR [ebx+16]

; 1327 : 	m_nFailedGuild++;
; 1328 : 	UpdateInfoToAllMember( SECRETROOM_WARSTATE, nIndex );

  0004b	8b cb		 mov	 ecx, ebx
  0004d	57		 push	 edi
  0004e	6a 03		 push	 3
  00050	c7 44 06 10 00
	00 00 00	 mov	 DWORD PTR [esi+eax+16], 0
  00058	ff 43 1c	 inc	 DWORD PTR [ebx+28]
  0005b	e8 00 00 00 00	 call	 ?UpdateInfoToAllMember@CSecretRoomContinent@@QAEXEH@Z ; CSecretRoomContinent::UpdateInfoToAllMember
; File C:\Program Files\Microsoft Visual Studio\2022\Professional\VC\Tools\MSVC\14.44.35207\include\vector

; 1914 :         auto& _My_data = _Mypair._Myval2;

  00060	8b 4b 10	 mov	 ecx, DWORD PTR [ebx+16]
; File C:\IAGOS\server\v18\Source\Source\_Common\SecretRoom.cpp

; 1329 : 	for( DWORD i=0; i<m_vecSecretRoomTender[nIndex].vecLineUpMember.size(); i++ )

  00063	33 d2		 xor	 edx, edx
  00065	89 55 e8	 mov	 DWORD PTR _i$1$[ebp], edx
; File C:\Program Files\Microsoft Visual Studio\2022\Professional\VC\Tools\MSVC\14.44.35207\include\vector

; 1915 :         return static_cast<size_type>(_My_data._Mylast - _My_data._Myfirst);

  00068	8b 44 31 18	 mov	 eax, DWORD PTR [ecx+esi+24]
  0006c	2b 44 31 14	 sub	 eax, DWORD PTR [ecx+esi+20]
  00070	c1 f8 02	 sar	 eax, 2
; File C:\IAGOS\server\v18\Source\Source\_Common\SecretRoom.cpp

; 1329 : 	for( DWORD i=0; i<m_vecSecretRoomTender[nIndex].vecLineUpMember.size(); i++ )

  00073	85 c0		 test	 eax, eax
  00075	0f 84 c7 00 00
	00		 je	 $LN3@SetContFai
  0007b	8b 3d 28 00 00
	00		 mov	 edi, DWORD PTR ?prj@@3VCProject@@A+40
$LL4@SetContFai:

; 1331 : 		CUser* pUserTemp = (CUser*)prj.GetUserByID( m_vecSecretRoomTender[nIndex].vecLineUpMember[i] );

  00081	8b 44 0e 14	 mov	 eax, DWORD PTR [esi+ecx+20]
; File C:\Program Files\Microsoft Visual Studio\2022\Professional\VC\Tools\MSVC\14.44.35207\include\xtree

; 1630 :         _Tree_find_result<_Nodeptr> _Result{{_Scary->_Myhead->_Parent, _Tree_child::_Right}, _Scary->_Myhead};

  00085	8b cf		 mov	 ecx, edi
; File C:\IAGOS\server\v18\Source\Source\_Common\SecretRoom.cpp

; 1331 : 		CUser* pUserTemp = (CUser*)prj.GetUserByID( m_vecSecretRoomTender[nIndex].vecLineUpMember[i] );

  00087	8b 14 90	 mov	 edx, DWORD PTR [eax+edx*4]
; File C:\Program Files\Microsoft Visual Studio\2022\Professional\VC\Tools\MSVC\14.44.35207\include\xtree

; 1630 :         _Tree_find_result<_Nodeptr> _Result{{_Scary->_Myhead->_Parent, _Tree_child::_Right}, _Scary->_Myhead};

  0008a	8b 47 04	 mov	 eax, DWORD PTR [edi+4]

; 1631 :         _Nodeptr _Trynode = _Result._Location._Parent;
; 1632 :         while (!_Trynode->_Isnil) {

  0008d	80 78 0d 00	 cmp	 BYTE PTR [eax+13], 0
  00091	75 14		 jne	 SHORT $LN37@SetContFai
$LL36@SetContFai:
; File C:\Program Files\Microsoft Visual Studio\2022\Professional\VC\Tools\MSVC\14.44.35207\include\type_traits

; 2380 :         return _Left < _Right;

  00093	39 50 10	 cmp	 DWORD PTR [eax+16], edx
; File C:\Program Files\Microsoft Visual Studio\2022\Professional\VC\Tools\MSVC\14.44.35207\include\xtree

; 1634 :             if (_DEBUG_LT_PRED(_Getcomp(), _Traits::_Kfn(_Trynode->_Myval), _Keyval)) {

  00096	73 05		 jae	 SHORT $LN38@SetContFai

; 1635 :                 _Result._Location._Child = _Tree_child::_Right;
; 1636 :                 _Trynode                 = _Trynode->_Right;

  00098	8b 40 08	 mov	 eax, DWORD PTR [eax+8]

; 1637 :             } else {

  0009b	eb 04		 jmp	 SHORT $LN39@SetContFai
$LN38@SetContFai:

; 1638 :                 _Result._Location._Child = _Tree_child::_Left;
; 1639 :                 _Result._Bound           = _Trynode;

  0009d	8b c8		 mov	 ecx, eax

; 1640 :                 _Trynode                 = _Trynode->_Left;

  0009f	8b 00		 mov	 eax, DWORD PTR [eax]
$LN39@SetContFai:

; 1631 :         _Nodeptr _Trynode = _Result._Location._Parent;
; 1632 :         while (!_Trynode->_Isnil) {

  000a1	80 78 0d 00	 cmp	 BYTE PTR [eax+13], 0
  000a5	74 ec		 je	 SHORT $LL36@SetContFai
$LN37@SetContFai:

; 1624 :         return !_Bound->_Isnil && !_DEBUG_LT_PRED(_Getcomp(), _Keyval, _Traits::_Kfn(_Bound->_Myval));

  000a7	80 79 0d 00	 cmp	 BYTE PTR [ecx+13], 0
  000ab	75 05		 jne	 SHORT $LN33@SetContFai
; File C:\Program Files\Microsoft Visual Studio\2022\Professional\VC\Tools\MSVC\14.44.35207\include\type_traits

; 2380 :         return _Left < _Right;

  000ad	3b 51 10	 cmp	 edx, DWORD PTR [ecx+16]
; File C:\Program Files\Microsoft Visual Studio\2022\Professional\VC\Tools\MSVC\14.44.35207\include\xtree

; 1624 :         return !_Bound->_Isnil && !_DEBUG_LT_PRED(_Getcomp(), _Keyval, _Traits::_Kfn(_Bound->_Myval));

  000b0	73 02		 jae	 SHORT $LN32@SetContFai
$LN33@SetContFai:

; 1389 :         return _Get_scary()->_Myhead;

  000b2	8b cf		 mov	 ecx, edi
$LN32@SetContFai:

; 37   :     _Tree_unchecked_const_iterator(_Nodeptr _Pnode, const _Mytree* _Plist) noexcept : _Ptr(_Pnode) {

  000b4	3b cf		 cmp	 ecx, edi
; File C:\IAGOS\server\v18\Source\Source\_Common\Project.h

; 1436 : 	if( i != m_idPlayerToUserPtr.end() )

  000b6	74 6d		 je	 SHORT $LN2@SetContFai

; 1437 : 		return i->second;

  000b8	8b 71 14	 mov	 esi, DWORD PTR [ecx+20]
; File C:\IAGOS\server\v18\Source\Source\_Common\Obj.h

; 327  : 	return pObj && ( pObj->IsDelete() == FALSE ); 

  000bb	85 f6		 test	 esi, esi
  000bd	74 63		 je	 SHORT $LN106@SetContFai

; 180  : 	BOOL			IsDelete()	{ return (m_dwFlags & OBJ_FLAG_DELETE);  }

  000bf	f6 46 04 01	 test	 BYTE PTR [esi+4], 1

; 327  : 	return pObj && ( pObj->IsDelete() == FALSE ); 

  000c3	75 5d		 jne	 SHORT $LN106@SetContFai
; File C:\IAGOS\server\v18\Source\Source\_Common\SecretRoom.cpp

; 1334 : 			if( CSecretRoomMng::GetInstance()->IsInTheSecretRoom( pUserTemp ) )

  000c5	56		 push	 esi
  000c6	e8 00 00 00 00	 call	 ?GetInstance@CSecretRoomMng@@SAPAV1@XZ ; CSecretRoomMng::GetInstance
  000cb	8b c8		 mov	 ecx, eax
  000cd	e8 00 00 00 00	 call	 ?IsInTheSecretRoom@CSecretRoomMng@@QAEHPAVCMover@@@Z ; CSecretRoomMng::IsInTheSecretRoom
  000d2	85 c0		 test	 eax, eax
  000d4	74 28		 je	 SHORT $LN7@SetContFai

; 1335 : 				pUserTemp->REPLACE( g_uIdofMulti, WI_WORLD_MADRIGAL, CContinent::GetInstance()->GetRevivalPos( m_nContinent ), REPLACE_NORMAL, nDefaultLayer );

  000d6	8a 43 0c	 mov	 al, BYTE PTR [ebx+12]
  000d9	6a 00		 push	 0
  000db	6a 00		 push	 0
  000dd	50		 push	 eax
  000de	8d 45 f0	 lea	 eax, DWORD PTR $T2[ebp]
  000e1	50		 push	 eax
  000e2	e8 00 00 00 00	 call	 ?GetInstance@CContinent@@SAPAV1@XZ ; CContinent::GetInstance
  000e7	8b c8		 mov	 ecx, eax
  000e9	e8 00 00 00 00	 call	 ?GetRevivalPos@CContinent@@QAE?AUD3DXVECTOR3@@E@Z ; CContinent::GetRevivalPos
  000ee	50		 push	 eax
  000ef	6a 01		 push	 1
  000f1	ff 35 00 00 00
	00		 push	 DWORD PTR ?g_uIdofMulti@@3KA ; g_uIdofMulti
  000f7	8b ce		 mov	 ecx, esi
  000f9	e8 00 00 00 00	 call	 ?Replace@CMover@@QAEHKKAAUD3DXVECTOR3@@W4REPLACE_TYPE@@H@Z ; CMover::Replace
$LN7@SetContFai:

; 1336 : 			UpdateInfoToMember( pUserTemp, SECRETROOM_WARSTATE, nIndex );

  000fe	ff 75 e4	 push	 DWORD PTR _nIndex$1$[ebp]
  00101	8b cb		 mov	 ecx, ebx
  00103	6a 03		 push	 3
  00105	56		 push	 esi
  00106	e8 00 00 00 00	 call	 ?UpdateInfoToMember@CSecretRoomContinent@@QAEXPAVCUser@@EH@Z ; CSecretRoomContinent::UpdateInfoToMember

; 1337 : 			CSecretRoomMng::GetInstance()->SendNowState( pUserTemp, SRCONT_CLOSE, 0 );

  0010b	6a 00		 push	 0
  0010d	6a 65		 push	 101			; 00000065H
  0010f	56		 push	 esi
  00110	e8 00 00 00 00	 call	 ?GetInstance@CSecretRoomMng@@SAPAV1@XZ ; CSecretRoomMng::GetInstance
  00115	8b c8		 mov	 ecx, eax
  00117	e8 00 00 00 00	 call	 ?SendNowState@CSecretRoomMng@@QAEXPAVCUser@@HK@Z ; CSecretRoomMng::SendNowState
  0011c	8b 3d 28 00 00
	00		 mov	 edi, DWORD PTR ?prj@@3VCProject@@A+40
$LN106@SetContFai:

; 1329 : 	for( DWORD i=0; i<m_vecSecretRoomTender[nIndex].vecLineUpMember.size(); i++ )

  00122	8b 75 ec	 mov	 esi, DWORD PTR tv679[ebp]
$LN2@SetContFai:
; File C:\Program Files\Microsoft Visual Studio\2022\Professional\VC\Tools\MSVC\14.44.35207\include\vector

; 1914 :         auto& _My_data = _Mypair._Myval2;

  00125	8b 4b 10	 mov	 ecx, DWORD PTR [ebx+16]
; File C:\IAGOS\server\v18\Source\Source\_Common\SecretRoom.cpp

; 1329 : 	for( DWORD i=0; i<m_vecSecretRoomTender[nIndex].vecLineUpMember.size(); i++ )

  00128	8b 55 e8	 mov	 edx, DWORD PTR _i$1$[ebp]
  0012b	42		 inc	 edx
  0012c	89 55 e8	 mov	 DWORD PTR _i$1$[ebp], edx
; File C:\Program Files\Microsoft Visual Studio\2022\Professional\VC\Tools\MSVC\14.44.35207\include\vector

; 1915 :         return static_cast<size_type>(_My_data._Mylast - _My_data._Myfirst);

  0012f	8b 44 31 18	 mov	 eax, DWORD PTR [ecx+esi+24]
  00133	2b 44 31 14	 sub	 eax, DWORD PTR [ecx+esi+20]
  00137	c1 f8 02	 sar	 eax, 2
; File C:\IAGOS\server\v18\Source\Source\_Common\SecretRoom.cpp

; 1329 : 	for( DWORD i=0; i<m_vecSecretRoomTender[nIndex].vecLineUpMember.size(); i++ )

  0013a	3b d0		 cmp	 edx, eax
  0013c	0f 82 3f ff ff
	ff		 jb	 $LL4@SetContFai
$LN3@SetContFai:

; 1338 : 		}
; 1339 : 	}
; 1340 : 
; 1341 : 	// ¸đµç şńąĐŔÇ ąć ¸ó˝şĹÍ Á¦°Ĺ
; 1342 : 	RemoveAllSecretRoomObj( m_vecSecretRoomTender[nIndex].dwWorldId );

  00142	ff 74 0e 0c	 push	 DWORD PTR [esi+ecx+12]
  00146	8b cb		 mov	 ecx, ebx
  00148	e8 00 00 00 00	 call	 ?RemoveAllSecretRoomObj@CSecretRoomContinent@@QAEXK@Z ; CSecretRoomContinent::RemoveAllSecretRoomObj
  0014d	5e		 pop	 esi
$LN1@SetContFai:

; 1343 : }

  0014e	8b 4d fc	 mov	 ecx, DWORD PTR __$ArrayPad$[ebp]
  00151	5f		 pop	 edi
  00152	33 cd		 xor	 ecx, ebp
  00154	5b		 pop	 ebx
  00155	e8 00 00 00 00	 call	 @__security_check_cookie@4
  0015a	8b e5		 mov	 esp, ebp
  0015c	5d		 pop	 ebp
  0015d	c2 04 00	 ret	 4
?SetContFailGuild@CSecretRoomContinent@@QAEXK@Z ENDP	; CSecretRoomContinent::SetContFailGuild
_TEXT	ENDS
; Function compile flags: /Ogtp
; File C:\IAGOS\server\v18\Source\Source\_Common\SecretRoom.cpp
; File C:\Program Files\Microsoft Visual Studio\2022\Professional\VC\Tools\MSVC\14.44.35207\include\vector
; File C:\IAGOS\server\v18\Source\Source\_Common\SecretRoom.cpp
; File C:\Program Files\Microsoft Visual Studio\2022\Professional\VC\Tools\MSVC\14.44.35207\include\vector
; File C:\IAGOS\server\v18\Source\Source\_Common\SecretRoom.cpp
; File C:\Program Files\Microsoft Visual Studio\2022\Professional\VC\Tools\MSVC\14.44.35207\include\xtree
; File C:\IAGOS\server\v18\Source\Source\_Common\SecretRoom.cpp
; File C:\Program Files\Microsoft Visual Studio\2022\Professional\VC\Tools\MSVC\14.44.35207\include\xtree
; File C:\Program Files\Microsoft Visual Studio\2022\Professional\VC\Tools\MSVC\14.44.35207\include\type_traits
; File C:\Program Files\Microsoft Visual Studio\2022\Professional\VC\Tools\MSVC\14.44.35207\include\xtree
; File C:\Program Files\Microsoft Visual Studio\2022\Professional\VC\Tools\MSVC\14.44.35207\include\type_traits
; File C:\Program Files\Microsoft Visual Studio\2022\Professional\VC\Tools\MSVC\14.44.35207\include\xtree
; File C:\IAGOS\server\v18\Source\Source\_Common\Project.h
; File C:\IAGOS\server\v18\Source\Source\_Common\Obj.h
; File C:\IAGOS\server\v18\Source\Source\_Common\SecretRoom.cpp
; File C:\Program Files\Microsoft Visual Studio\2022\Professional\VC\Tools\MSVC\14.44.35207\include\vector
; File C:\IAGOS\server\v18\Source\Source\_Common\SecretRoom.cpp
; File C:\Program Files\Microsoft Visual Studio\2022\Professional\VC\Tools\MSVC\14.44.35207\include\vector
; File C:\IAGOS\server\v18\Source\Source\_Common\SecretRoom.cpp
;	COMDAT ?ProcessInGuildMaster@CSecretRoomContinent@@QAEXXZ
_TEXT	SEGMENT
_i$1$ = -4						; size = 4
?ProcessInGuildMaster@CSecretRoomContinent@@QAEXXZ PROC	; CSecretRoomContinent::ProcessInGuildMaster, COMDAT
; _this$ = ecx

; 1296 : {

  00000	55		 push	 ebp
  00001	8b ec		 mov	 ebp, esp
  00003	51		 push	 ecx
  00004	53		 push	 ebx
  00005	8b d9		 mov	 ebx, ecx
; File C:\Program Files\Microsoft Visual Studio\2022\Professional\VC\Tools\MSVC\14.44.35207\include\vector

; 1915 :         return static_cast<size_type>(_My_data._Mylast - _My_data._Myfirst);

  00007	b8 e9 a2 8b 2e	 mov	 eax, 780903145		; 2e8ba2e9H
; File C:\IAGOS\server\v18\Source\Source\_Common\SecretRoom.cpp

; 1296 : {

  0000c	56		 push	 esi

; 1297 : 	for( DWORD i=0; i<m_vecSecretRoomTender.size(); i++ )

  0000d	33 c9		 xor	 ecx, ecx
  0000f	89 4d fc	 mov	 DWORD PTR _i$1$[ebp], ecx
; File C:\Program Files\Microsoft Visual Studio\2022\Professional\VC\Tools\MSVC\14.44.35207\include\vector

; 1915 :         return static_cast<size_type>(_My_data._Mylast - _My_data._Myfirst);

  00012	8b 53 14	 mov	 edx, DWORD PTR [ebx+20]
  00015	8b 73 10	 mov	 esi, DWORD PTR [ebx+16]
  00018	2b d6		 sub	 edx, esi
  0001a	f7 ea		 imul	 edx
  0001c	c1 fa 03	 sar	 edx, 3
  0001f	8b c2		 mov	 eax, edx
  00021	c1 e8 1f	 shr	 eax, 31			; 0000001fH
  00024	03 c2		 add	 eax, edx
; File C:\IAGOS\server\v18\Source\Source\_Common\SecretRoom.cpp

; 1297 : 	for( DWORD i=0; i<m_vecSecretRoomTender.size(); i++ )

  00026	0f 84 b1 00 00
	00		 je	 $LN3@ProcessInG
  0002c	57		 push	 edi
  0002d	33 ff		 xor	 edi, edi
  0002f	90		 npad	 1
$LL4@ProcessInG:

; 1298 : 	{
; 1299 : 		if( m_vecSecretRoomTender[i].nWarState == MONSTER_FAILED )

  00030	83 7c 37 10 00	 cmp	 DWORD PTR [edi+esi+16], 0
  00035	0f 84 79 00 00
	00		 je	 $LN2@ProcessInG

; 1300 : 			continue;
; 1301 : 
; 1302 : 		CGuild* pGuild = g_GuildMng.GetGuild( m_vecSecretRoomTender[i].dwGuildId );

  0003b	ff 34 37	 push	 DWORD PTR [edi+esi]
  0003e	b9 00 00 00 00	 mov	 ecx, OFFSET ?g_GuildMng@@3VCGuildMng@@A ; g_GuildMng
  00043	e8 00 00 00 00	 call	 ?GetGuild@CGuildMng@@QAEPAVCGuild@@K@Z ; CGuildMng::GetGuild

; 1303 : 		if( pGuild )

  00048	85 c0		 test	 eax, eax
  0004a	74 5b		 je	 SHORT $LN7@ProcessInG
; File C:\Program Files\Microsoft Visual Studio\2022\Professional\VC\Tools\MSVC\14.44.35207\include\xtree

; 1630 :         _Tree_find_result<_Nodeptr> _Result{{_Scary->_Myhead->_Parent, _Tree_child::_Right}, _Scary->_Myhead};

  0004c	8b 35 28 00 00
	00		 mov	 esi, DWORD PTR ?prj@@3VCProject@@A+40
  00052	8b ce		 mov	 ecx, esi
; File C:\IAGOS\server\v18\Source\Source\_Common\SecretRoom.cpp

; 1305 : 			CUser* pUserTemp = (CUser*)prj.GetUserByID( pGuild->m_idMaster );

  00054	8b 50 40	 mov	 edx, DWORD PTR [eax+64]
; File C:\Program Files\Microsoft Visual Studio\2022\Professional\VC\Tools\MSVC\14.44.35207\include\xtree

; 1630 :         _Tree_find_result<_Nodeptr> _Result{{_Scary->_Myhead->_Parent, _Tree_child::_Right}, _Scary->_Myhead};

  00057	8b 46 04	 mov	 eax, DWORD PTR [esi+4]

; 1631 :         _Nodeptr _Trynode = _Result._Location._Parent;
; 1632 :         while (!_Trynode->_Isnil) {

  0005a	80 78 0d 00	 cmp	 BYTE PTR [eax+13], 0
  0005e	75 14		 jne	 SHORT $LN28@ProcessInG
$LL27@ProcessInG:
; File C:\Program Files\Microsoft Visual Studio\2022\Professional\VC\Tools\MSVC\14.44.35207\include\type_traits

; 2380 :         return _Left < _Right;

  00060	39 50 10	 cmp	 DWORD PTR [eax+16], edx
; File C:\Program Files\Microsoft Visual Studio\2022\Professional\VC\Tools\MSVC\14.44.35207\include\xtree

; 1634 :             if (_DEBUG_LT_PRED(_Getcomp(), _Traits::_Kfn(_Trynode->_Myval), _Keyval)) {

  00063	73 05		 jae	 SHORT $LN29@ProcessInG

; 1635 :                 _Result._Location._Child = _Tree_child::_Right;
; 1636 :                 _Trynode                 = _Trynode->_Right;

  00065	8b 40 08	 mov	 eax, DWORD PTR [eax+8]

; 1637 :             } else {

  00068	eb 04		 jmp	 SHORT $LN30@ProcessInG
$LN29@ProcessInG:

; 1638 :                 _Result._Location._Child = _Tree_child::_Left;
; 1639 :                 _Result._Bound           = _Trynode;

  0006a	8b c8		 mov	 ecx, eax

; 1640 :                 _Trynode                 = _Trynode->_Left;

  0006c	8b 00		 mov	 eax, DWORD PTR [eax]
$LN30@ProcessInG:

; 1631 :         _Nodeptr _Trynode = _Result._Location._Parent;
; 1632 :         while (!_Trynode->_Isnil) {

  0006e	80 78 0d 00	 cmp	 BYTE PTR [eax+13], 0
  00072	74 ec		 je	 SHORT $LL27@ProcessInG
$LN28@ProcessInG:

; 1624 :         return !_Bound->_Isnil && !_DEBUG_LT_PRED(_Getcomp(), _Keyval, _Traits::_Kfn(_Bound->_Myval));

  00074	80 79 0d 00	 cmp	 BYTE PTR [ecx+13], 0
  00078	75 05		 jne	 SHORT $LN24@ProcessInG
; File C:\Program Files\Microsoft Visual Studio\2022\Professional\VC\Tools\MSVC\14.44.35207\include\type_traits

; 2380 :         return _Left < _Right;

  0007a	3b 51 10	 cmp	 edx, DWORD PTR [ecx+16]
; File C:\Program Files\Microsoft Visual Studio\2022\Professional\VC\Tools\MSVC\14.44.35207\include\xtree

; 1624 :         return !_Bound->_Isnil && !_DEBUG_LT_PRED(_Getcomp(), _Keyval, _Traits::_Kfn(_Bound->_Myval));

  0007d	73 02		 jae	 SHORT $LN23@ProcessInG
$LN24@ProcessInG:

; 1389 :         return _Get_scary()->_Myhead;

  0007f	8b ce		 mov	 ecx, esi
$LN23@ProcessInG:

; 37   :     _Tree_unchecked_const_iterator(_Nodeptr _Pnode, const _Mytree* _Plist) noexcept : _Ptr(_Pnode) {

  00081	3b ce		 cmp	 ecx, esi
; File C:\IAGOS\server\v18\Source\Source\_Common\Project.h

; 1436 : 	if( i != m_idPlayerToUserPtr.end() )

  00083	74 22		 je	 SHORT $LN7@ProcessInG

; 1437 : 		return i->second;

  00085	8b 41 14	 mov	 eax, DWORD PTR [ecx+20]
; File C:\IAGOS\server\v18\Source\Source\_Common\Obj.h

; 327  : 	return pObj && ( pObj->IsDelete() == FALSE ); 

  00088	85 c0		 test	 eax, eax
  0008a	74 1b		 je	 SHORT $LN7@ProcessInG

; 180  : 	BOOL			IsDelete()	{ return (m_dwFlags & OBJ_FLAG_DELETE);  }

  0008c	f6 40 04 01	 test	 BYTE PTR [eax+4], 1

; 327  : 	return pObj && ( pObj->IsDelete() == FALSE ); 

  00090	75 15		 jne	 SHORT $LN7@ProcessInG
; File C:\IAGOS\server\v18\Source\Source\_Common\SecretRoom.cpp

; 1306 : 			if( IsValidObj( pUserTemp ) && pUserTemp->GetWorld() &&

  00092	8b 80 6c 01 00
	00		 mov	 eax, DWORD PTR [eax+364]
  00098	85 c0		 test	 eax, eax
  0009a	74 0b		 je	 SHORT $LN7@ProcessInG
  0009c	8b 4b 10	 mov	 ecx, DWORD PTR [ebx+16]
  0009f	8b 00		 mov	 eax, DWORD PTR [eax]
  000a1	3b 44 0f 0c	 cmp	 eax, DWORD PTR [edi+ecx+12]
  000a5	74 0d		 je	 SHORT $LN2@ProcessInG
$LN7@ProcessInG:

; 1307 : 				pUserTemp->GetWorld()->GetID() == m_vecSecretRoomTender[i].dwWorldId )
; 1308 : 				continue;
; 1309 : 		}
; 1310 : 		
; 1311 : 		SetContFailGuild( m_vecSecretRoomTender[i].dwGuildId );

  000a7	8b 43 10	 mov	 eax, DWORD PTR [ebx+16]
  000aa	8b cb		 mov	 ecx, ebx
  000ac	ff 34 07	 push	 DWORD PTR [edi+eax]
  000af	e8 00 00 00 00	 call	 ?SetContFailGuild@CSecretRoomContinent@@QAEXK@Z ; CSecretRoomContinent::SetContFailGuild
$LN2@ProcessInG:
; File C:\Program Files\Microsoft Visual Studio\2022\Professional\VC\Tools\MSVC\14.44.35207\include\vector

; 1915 :         return static_cast<size_type>(_My_data._Mylast - _My_data._Myfirst);

  000b4	8b 4b 14	 mov	 ecx, DWORD PTR [ebx+20]
  000b7	b8 e9 a2 8b 2e	 mov	 eax, 780903145		; 2e8ba2e9H
  000bc	8b 73 10	 mov	 esi, DWORD PTR [ebx+16]
; File C:\IAGOS\server\v18\Source\Source\_Common\SecretRoom.cpp

; 1297 : 	for( DWORD i=0; i<m_vecSecretRoomTender.size(); i++ )

  000bf	83 c7 2c	 add	 edi, 44			; 0000002cH
  000c2	ff 45 fc	 inc	 DWORD PTR _i$1$[ebp]
; File C:\Program Files\Microsoft Visual Studio\2022\Professional\VC\Tools\MSVC\14.44.35207\include\vector

; 1915 :         return static_cast<size_type>(_My_data._Mylast - _My_data._Myfirst);

  000c5	2b ce		 sub	 ecx, esi
  000c7	f7 e9		 imul	 ecx
  000c9	c1 fa 03	 sar	 edx, 3
  000cc	8b c2		 mov	 eax, edx
  000ce	c1 e8 1f	 shr	 eax, 31			; 0000001fH
  000d1	03 c2		 add	 eax, edx
; File C:\IAGOS\server\v18\Source\Source\_Common\SecretRoom.cpp

; 1297 : 	for( DWORD i=0; i<m_vecSecretRoomTender.size(); i++ )

  000d3	39 45 fc	 cmp	 DWORD PTR _i$1$[ebp], eax
  000d6	0f 82 54 ff ff
	ff		 jb	 $LL4@ProcessInG
  000dc	5f		 pop	 edi
$LN3@ProcessInG:
  000dd	5e		 pop	 esi

; 1312 : 	}
; 1313 : }

  000de	5b		 pop	 ebx
  000df	8b e5		 mov	 esp, ebp
  000e1	5d		 pop	 ebp
  000e2	c3		 ret	 0
?ProcessInGuildMaster@CSecretRoomContinent@@QAEXXZ ENDP	; CSecretRoomContinent::ProcessInGuildMaster
_TEXT	ENDS
; Function compile flags: /Ogtp
; File C:\IAGOS\server\v18\Source\Source\_Common\SecretRoom.cpp
; File C:\Program Files\Microsoft Visual Studio\2022\Professional\VC\Tools\MSVC\14.44.35207\include\vector
; File C:\IAGOS\server\v18\Source\Source\_Common\SecretRoom.cpp
; File C:\Program Files\Microsoft Visual Studio\2022\Professional\VC\Tools\MSVC\14.44.35207\include\vector
; File C:\IAGOS\server\v18\Source\Source\_Common\SecretRoom.cpp
; File C:\Program Files\Microsoft Visual Studio\2022\Professional\VC\Tools\MSVC\14.44.35207\include\vector
; File C:\IAGOS\server\v18\Source\Source\_Common\SecretRoom.cpp
; File C:\Program Files\Microsoft Visual Studio\2022\Professional\VC\Tools\MSVC\14.44.35207\include\xtree
; File C:\IAGOS\server\v18\Source\Source\_Common\SecretRoom.cpp
; File C:\Program Files\Microsoft Visual Studio\2022\Professional\VC\Tools\MSVC\14.44.35207\include\xtree
; File C:\Program Files\Microsoft Visual Studio\2022\Professional\VC\Tools\MSVC\14.44.35207\include\type_traits
; File C:\Program Files\Microsoft Visual Studio\2022\Professional\VC\Tools\MSVC\14.44.35207\include\xtree
; File C:\Program Files\Microsoft Visual Studio\2022\Professional\VC\Tools\MSVC\14.44.35207\include\type_traits
; File C:\Program Files\Microsoft Visual Studio\2022\Professional\VC\Tools\MSVC\14.44.35207\include\xtree
; File C:\IAGOS\server\v18\Source\Source\_Common\Project.h
; File C:\IAGOS\server\v18\Source\Source\_Common\SecretRoom.cpp
; File C:\Program Files\Microsoft Visual Studio\2022\Professional\VC\Tools\MSVC\14.44.35207\include\vector
; File C:\IAGOS\server\v18\Source\Source\_Common\SecretRoom.cpp
; File C:\Program Files\Microsoft Visual Studio\2022\Professional\VC\Tools\MSVC\14.44.35207\include\vector
; File C:\IAGOS\server\v18\Source\Source\_Common\SecretRoom.cpp
; File C:\Program Files\Microsoft Visual Studio\2022\Professional\VC\Tools\MSVC\14.44.35207\include\vector
; File C:\IAGOS\server\v18\Source\Source\_Common\SecretRoom.cpp
; File C:\Program Files\Microsoft Visual Studio\2022\Professional\VC\Tools\MSVC\14.44.35207\include\vector
; File C:\IAGOS\server\v18\Source\Source\_Common\SecretRoom.cpp
; File C:\Program Files\Microsoft Visual Studio\2022\Professional\VC\Tools\MSVC\14.44.35207\include\vector
; File C:\IAGOS\server\v18\Source\Source\_Common\SecretRoom.cpp
; File C:\Program Files\Microsoft Visual Studio\2022\Professional\VC\Tools\MSVC\14.44.35207\include\vector
; File C:\IAGOS\server\v18\Source\Source\_Common\SecretRoom.cpp
;	COMDAT ?UpdateInfoToAllMember@CSecretRoomContinent@@QAEXEH@Z
_TEXT	SEGMENT
_this$1$ = -8						; size = 4
_i$1$ = -4						; size = 4
_nType$ = 8						; size = 1
_nIndex$ = 12						; size = 4
?UpdateInfoToAllMember@CSecretRoomContinent@@QAEXEH@Z PROC ; CSecretRoomContinent::UpdateInfoToAllMember, COMDAT
; _this$ = ecx

; 1280 : {

  00000	55		 push	 ebp
  00001	8b ec		 mov	 ebp, esp
  00003	83 ec 08	 sub	 esp, 8
  00006	8b c1		 mov	 eax, ecx

; 1281 : 	for( DWORD i=0; i<m_vecSecretRoomTender.size(); i++ )

  00008	33 c9		 xor	 ecx, ecx
  0000a	89 45 f8	 mov	 DWORD PTR _this$1$[ebp], eax
  0000d	56		 push	 esi
  0000e	89 4d fc	 mov	 DWORD PTR _i$1$[ebp], ecx
; File C:\Program Files\Microsoft Visual Studio\2022\Professional\VC\Tools\MSVC\14.44.35207\include\vector

; 1915 :         return static_cast<size_type>(_My_data._Mylast - _My_data._Myfirst);

  00011	8b 50 14	 mov	 edx, DWORD PTR [eax+20]
  00014	8b 70 10	 mov	 esi, DWORD PTR [eax+16]
  00017	2b d6		 sub	 edx, esi
  00019	b8 e9 a2 8b 2e	 mov	 eax, 780903145		; 2e8ba2e9H
  0001e	f7 ea		 imul	 edx
  00020	c1 fa 03	 sar	 edx, 3
  00023	8b c2		 mov	 eax, edx
  00025	c1 e8 1f	 shr	 eax, 31			; 0000001fH
  00028	03 c2		 add	 eax, edx
; File C:\IAGOS\server\v18\Source\Source\_Common\SecretRoom.cpp

; 1281 : 	for( DWORD i=0; i<m_vecSecretRoomTender.size(); i++ )

  0002a	0f 84 cc 00 00
	00		 je	 $LN3@UpdateInfo
  00030	53		 push	 ebx
  00031	57		 push	 edi
  00032	33 db		 xor	 ebx, ebx
  00034	0f 1f 40 00 0f
	1f 84 00 00 00
	00 00		 npad	 12
$LL4@UpdateInfo:

; 1282 : 	{
; 1283 : 		if( m_vecSecretRoomTender[i].nWarState == MONSTER_FAILED )

  00040	83 7c 33 10 00	 cmp	 DWORD PTR [ebx+esi+16], 0
  00045	8b d6		 mov	 edx, esi
  00047	0f 84 80 00 00
	00		 je	 $LN2@UpdateInfo
; File C:\Program Files\Microsoft Visual Studio\2022\Professional\VC\Tools\MSVC\14.44.35207\include\vector

; 1915 :         return static_cast<size_type>(_My_data._Mylast - _My_data._Myfirst);

  0004d	8b 44 33 18	 mov	 eax, DWORD PTR [ebx+esi+24]
; File C:\IAGOS\server\v18\Source\Source\_Common\SecretRoom.cpp

; 1286 : 		for( DWORD j=0; j<m_vecSecretRoomTender[i].vecLineUpMember.size(); j++ )

  00051	33 ff		 xor	 edi, edi
; File C:\Program Files\Microsoft Visual Studio\2022\Professional\VC\Tools\MSVC\14.44.35207\include\vector

; 1915 :         return static_cast<size_type>(_My_data._Mylast - _My_data._Myfirst);

  00053	2b 44 33 14	 sub	 eax, DWORD PTR [ebx+esi+20]
  00057	c1 f8 02	 sar	 eax, 2
; File C:\IAGOS\server\v18\Source\Source\_Common\SecretRoom.cpp

; 1286 : 		for( DWORD j=0; j<m_vecSecretRoomTender[i].vecLineUpMember.size(); j++ )

  0005a	85 c0		 test	 eax, eax
  0005c	74 6f		 je	 SHORT $LN2@UpdateInfo
  0005e	66 90		 npad	 2
$LL7@UpdateInfo:

; 1288 : 			CUser* pUserTemp = (CUser*)prj.GetUserByID( m_vecSecretRoomTender[i].vecLineUpMember[j] );

  00060	8b 44 33 14	 mov	 eax, DWORD PTR [ebx+esi+20]
; File C:\Program Files\Microsoft Visual Studio\2022\Professional\VC\Tools\MSVC\14.44.35207\include\xtree

; 1630 :         _Tree_find_result<_Nodeptr> _Result{{_Scary->_Myhead->_Parent, _Tree_child::_Right}, _Scary->_Myhead};

  00064	8b 35 28 00 00
	00		 mov	 esi, DWORD PTR ?prj@@3VCProject@@A+40
  0006a	8b ce		 mov	 ecx, esi
; File C:\IAGOS\server\v18\Source\Source\_Common\SecretRoom.cpp

; 1288 : 			CUser* pUserTemp = (CUser*)prj.GetUserByID( m_vecSecretRoomTender[i].vecLineUpMember[j] );

  0006c	8b 14 b8	 mov	 edx, DWORD PTR [eax+edi*4]
; File C:\Program Files\Microsoft Visual Studio\2022\Professional\VC\Tools\MSVC\14.44.35207\include\xtree

; 1630 :         _Tree_find_result<_Nodeptr> _Result{{_Scary->_Myhead->_Parent, _Tree_child::_Right}, _Scary->_Myhead};

  0006f	8b 46 04	 mov	 eax, DWORD PTR [esi+4]

; 1631 :         _Nodeptr _Trynode = _Result._Location._Parent;
; 1632 :         while (!_Trynode->_Isnil) {

  00072	80 78 0d 00	 cmp	 BYTE PTR [eax+13], 0
  00076	75 14		 jne	 SHORT $LN38@UpdateInfo
$LL37@UpdateInfo:
; File C:\Program Files\Microsoft Visual Studio\2022\Professional\VC\Tools\MSVC\14.44.35207\include\type_traits

; 2380 :         return _Left < _Right;

  00078	39 50 10	 cmp	 DWORD PTR [eax+16], edx
; File C:\Program Files\Microsoft Visual Studio\2022\Professional\VC\Tools\MSVC\14.44.35207\include\xtree

; 1634 :             if (_DEBUG_LT_PRED(_Getcomp(), _Traits::_Kfn(_Trynode->_Myval), _Keyval)) {

  0007b	73 05		 jae	 SHORT $LN39@UpdateInfo

; 1635 :                 _Result._Location._Child = _Tree_child::_Right;
; 1636 :                 _Trynode                 = _Trynode->_Right;

  0007d	8b 40 08	 mov	 eax, DWORD PTR [eax+8]

; 1637 :             } else {

  00080	eb 04		 jmp	 SHORT $LN40@UpdateInfo
$LN39@UpdateInfo:

; 1638 :                 _Result._Location._Child = _Tree_child::_Left;
; 1639 :                 _Result._Bound           = _Trynode;

  00082	8b c8		 mov	 ecx, eax

; 1640 :                 _Trynode                 = _Trynode->_Left;

  00084	8b 00		 mov	 eax, DWORD PTR [eax]
$LN40@UpdateInfo:

; 1631 :         _Nodeptr _Trynode = _Result._Location._Parent;
; 1632 :         while (!_Trynode->_Isnil) {

  00086	80 78 0d 00	 cmp	 BYTE PTR [eax+13], 0
  0008a	74 ec		 je	 SHORT $LL37@UpdateInfo
$LN38@UpdateInfo:

; 1624 :         return !_Bound->_Isnil && !_DEBUG_LT_PRED(_Getcomp(), _Keyval, _Traits::_Kfn(_Bound->_Myval));

  0008c	80 79 0d 00	 cmp	 BYTE PTR [ecx+13], 0
  00090	75 05		 jne	 SHORT $LN34@UpdateInfo
; File C:\Program Files\Microsoft Visual Studio\2022\Professional\VC\Tools\MSVC\14.44.35207\include\type_traits

; 2380 :         return _Left < _Right;

  00092	3b 51 10	 cmp	 edx, DWORD PTR [ecx+16]
; File C:\Program Files\Microsoft Visual Studio\2022\Professional\VC\Tools\MSVC\14.44.35207\include\xtree

; 1624 :         return !_Bound->_Isnil && !_DEBUG_LT_PRED(_Getcomp(), _Keyval, _Traits::_Kfn(_Bound->_Myval));

  00095	73 02		 jae	 SHORT $LN33@UpdateInfo
$LN34@UpdateInfo:

; 1389 :         return _Get_scary()->_Myhead;

  00097	8b ce		 mov	 ecx, esi
$LN33@UpdateInfo:

; 37   :     _Tree_unchecked_const_iterator(_Nodeptr _Pnode, const _Mytree* _Plist) noexcept : _Ptr(_Pnode) {

  00099	3b ce		 cmp	 ecx, esi
; File C:\IAGOS\server\v18\Source\Source\_Common\Project.h

; 1436 : 	if( i != m_idPlayerToUserPtr.end() )

  0009b	74 05		 je	 SHORT $LN29@UpdateInfo

; 1437 : 		return i->second;

  0009d	8b 41 14	 mov	 eax, DWORD PTR [ecx+20]
  000a0	eb 02		 jmp	 SHORT $LN28@UpdateInfo
$LN29@UpdateInfo:

; 1438 : 	return NULL;

  000a2	33 c0		 xor	 eax, eax
$LN28@UpdateInfo:
; File C:\IAGOS\server\v18\Source\Source\_Common\SecretRoom.cpp

; 1289 : 			UpdateInfoToMember( pUserTemp, nType, nIndex );

  000a4	ff 75 0c	 push	 DWORD PTR _nIndex$[ebp]
  000a7	8b 75 f8	 mov	 esi, DWORD PTR _this$1$[ebp]
  000aa	8b ce		 mov	 ecx, esi
  000ac	ff 75 08	 push	 DWORD PTR _nType$[ebp]
  000af	50		 push	 eax
  000b0	e8 00 00 00 00	 call	 ?UpdateInfoToMember@CSecretRoomContinent@@QAEXPAVCUser@@EH@Z ; CSecretRoomContinent::UpdateInfoToMember
; File C:\Program Files\Microsoft Visual Studio\2022\Professional\VC\Tools\MSVC\14.44.35207\include\vector

; 1914 :         auto& _My_data = _Mypair._Myval2;

  000b5	8b 56 10	 mov	 edx, DWORD PTR [esi+16]
; File C:\IAGOS\server\v18\Source\Source\_Common\SecretRoom.cpp

; 1286 : 		for( DWORD j=0; j<m_vecSecretRoomTender[i].vecLineUpMember.size(); j++ )

  000b8	47		 inc	 edi
; File C:\Program Files\Microsoft Visual Studio\2022\Professional\VC\Tools\MSVC\14.44.35207\include\vector

; 1915 :         return static_cast<size_type>(_My_data._Mylast - _My_data._Myfirst);

  000b9	8b f2		 mov	 esi, edx
  000bb	8b 44 13 18	 mov	 eax, DWORD PTR [ebx+edx+24]
  000bf	2b 44 13 14	 sub	 eax, DWORD PTR [ebx+edx+20]
  000c3	c1 f8 02	 sar	 eax, 2
; File C:\IAGOS\server\v18\Source\Source\_Common\SecretRoom.cpp

; 1286 : 		for( DWORD j=0; j<m_vecSecretRoomTender[i].vecLineUpMember.size(); j++ )

  000c6	3b f8		 cmp	 edi, eax
  000c8	72 96		 jb	 SHORT $LL7@UpdateInfo
  000ca	8b 4d fc	 mov	 ecx, DWORD PTR _i$1$[ebp]
$LN2@UpdateInfo:
; File C:\Program Files\Microsoft Visual Studio\2022\Professional\VC\Tools\MSVC\14.44.35207\include\vector

; 1915 :         return static_cast<size_type>(_My_data._Mylast - _My_data._Myfirst);

  000cd	8b 45 f8	 mov	 eax, DWORD PTR _this$1$[ebp]
; File C:\IAGOS\server\v18\Source\Source\_Common\SecretRoom.cpp

; 1281 : 	for( DWORD i=0; i<m_vecSecretRoomTender.size(); i++ )

  000d0	41		 inc	 ecx
  000d1	89 4d fc	 mov	 DWORD PTR _i$1$[ebp], ecx
; File C:\Program Files\Microsoft Visual Studio\2022\Professional\VC\Tools\MSVC\14.44.35207\include\vector

; 1915 :         return static_cast<size_type>(_My_data._Mylast - _My_data._Myfirst);

  000d4	8b f2		 mov	 esi, edx
; File C:\IAGOS\server\v18\Source\Source\_Common\SecretRoom.cpp

; 1281 : 	for( DWORD i=0; i<m_vecSecretRoomTender.size(); i++ )

  000d6	83 c3 2c	 add	 ebx, 44			; 0000002cH
; File C:\Program Files\Microsoft Visual Studio\2022\Professional\VC\Tools\MSVC\14.44.35207\include\vector

; 1915 :         return static_cast<size_type>(_My_data._Mylast - _My_data._Myfirst);

  000d9	8b 48 14	 mov	 ecx, DWORD PTR [eax+20]
  000dc	b8 e9 a2 8b 2e	 mov	 eax, 780903145		; 2e8ba2e9H
  000e1	2b ca		 sub	 ecx, edx
  000e3	f7 e9		 imul	 ecx
; File C:\IAGOS\server\v18\Source\Source\_Common\SecretRoom.cpp

; 1281 : 	for( DWORD i=0; i<m_vecSecretRoomTender.size(); i++ )

  000e5	8b 4d fc	 mov	 ecx, DWORD PTR _i$1$[ebp]
; File C:\Program Files\Microsoft Visual Studio\2022\Professional\VC\Tools\MSVC\14.44.35207\include\vector

; 1915 :         return static_cast<size_type>(_My_data._Mylast - _My_data._Myfirst);

  000e8	c1 fa 03	 sar	 edx, 3
  000eb	8b c2		 mov	 eax, edx
  000ed	c1 e8 1f	 shr	 eax, 31			; 0000001fH
  000f0	03 c2		 add	 eax, edx
; File C:\IAGOS\server\v18\Source\Source\_Common\SecretRoom.cpp

; 1281 : 	for( DWORD i=0; i<m_vecSecretRoomTender.size(); i++ )

  000f2	3b c8		 cmp	 ecx, eax
  000f4	0f 82 46 ff ff
	ff		 jb	 $LL4@UpdateInfo
  000fa	5f		 pop	 edi
  000fb	5b		 pop	 ebx
$LN3@UpdateInfo:
  000fc	5e		 pop	 esi

; 1290 : 		}
; 1291 : 	}
; 1292 : }

  000fd	8b e5		 mov	 esp, ebp
  000ff	5d		 pop	 ebp
  00100	c2 08 00	 ret	 8
?UpdateInfoToAllMember@CSecretRoomContinent@@QAEXEH@Z ENDP ; CSecretRoomContinent::UpdateInfoToAllMember
_TEXT	ENDS
; Function compile flags: /Ogtp
; File C:\IAGOS\server\v18\Source\Source\_Common\SecretRoom.cpp
; File C:\IAGOS\server\v18\Source\Source\_Common\Obj.h
; File C:\IAGOS\server\v18\Source\Source\_Common\SecretRoom.cpp
;	COMDAT ?UpdateInfoToMember@CSecretRoomContinent@@QAEXPAVCUser@@EH@Z
_TEXT	SEGMENT
_pUser$ = 8						; size = 4
_nType$ = 12						; size = 1
_nIndex$ = 16						; size = 4
?UpdateInfoToMember@CSecretRoomContinent@@QAEXPAVCUser@@EH@Z PROC ; CSecretRoomContinent::UpdateInfoToMember, COMDAT
; _this$ = ecx

; 1273 : {

  00000	55		 push	 ebp
  00001	8b ec		 mov	 ebp, esp
  00003	8b d1		 mov	 edx, ecx
; File C:\IAGOS\server\v18\Source\Source\_Common\Obj.h

; 327  : 	return pObj && ( pObj->IsDelete() == FALSE ); 

  00005	8b 4d 08	 mov	 ecx, DWORD PTR _pUser$[ebp]
  00008	85 c9		 test	 ecx, ecx
  0000a	74 1a		 je	 SHORT $LN2@UpdateInfo

; 180  : 	BOOL			IsDelete()	{ return (m_dwFlags & OBJ_FLAG_DELETE);  }

  0000c	f6 41 04 01	 test	 BYTE PTR [ecx+4], 1

; 327  : 	return pObj && ( pObj->IsDelete() == FALSE ); 

  00010	75 14		 jne	 SHORT $LN2@UpdateInfo
; File C:\IAGOS\server\v18\Source\Source\_Common\SecretRoom.cpp

; 1275 : 		pUser->AddSecretRoomContInfo( m_nContinent, nType, m_vecSecretRoomTender, nIndex );

  00012	ff 75 10	 push	 DWORD PTR _nIndex$[ebp]
  00015	8d 42 10	 lea	 eax, DWORD PTR [edx+16]
  00018	50		 push	 eax
  00019	ff 75 0c	 push	 DWORD PTR _nType$[ebp]
  0001c	0f b6 42 0c	 movzx	 eax, BYTE PTR [edx+12]
  00020	50		 push	 eax
  00021	e8 00 00 00 00	 call	 ?AddSecretRoomContInfo@CUser@@QAEXEEAAV?$vector@U__SECRETROOM_TENDER@@V?$allocator@U__SECRETROOM_TENDER@@@std@@@std@@H@Z ; CUser::AddSecretRoomContInfo
$LN2@UpdateInfo:

; 1276 : }

  00026	5d		 pop	 ebp
  00027	c2 0c 00	 ret	 12			; 0000000cH
?UpdateInfoToMember@CSecretRoomContinent@@QAEXPAVCUser@@EH@Z ENDP ; CSecretRoomContinent::UpdateInfoToMember
_TEXT	ENDS
; Function compile flags: /Ogtp
; File C:\IAGOS\server\v18\Source\Source\_Common\SecretRoom.cpp
; File C:\Program Files\Microsoft Visual Studio\2022\Professional\VC\Tools\MSVC\14.44.35207\include\vector
; File C:\IAGOS\server\v18\Source\Source\_Common\SecretRoom.cpp
; File C:\Program Files\Microsoft Visual Studio\2022\Professional\VC\Tools\MSVC\14.44.35207\include\vector
; File C:\IAGOS\server\v18\Source\Source\_Common\SecretRoom.cpp
; File C:\Program Files\Microsoft Visual Studio\2022\Professional\VC\Tools\MSVC\14.44.35207\include\vector
; File C:\IAGOS\server\v18\Source\Source\_Common\SecretRoom.cpp
; File C:\Program Files\Microsoft Visual Studio\2022\Professional\VC\Tools\MSVC\14.44.35207\include\vector
; File C:\IAGOS\server\v18\Source\Source\_Common\SecretRoom.cpp
; File C:\Program Files\Microsoft Visual Studio\2022\Professional\VC\Tools\MSVC\14.44.35207\include\vector
; File C:\IAGOS\server\v18\Source\Source\_Common\SecretRoom.cpp
;	COMDAT ?IsSecretRoomMonster@CSecretRoomContinent@@QAEHKH@Z
_TEXT	SEGMENT
_dwMonsterId$ = 8					; size = 4
_nWarState$ = 12					; size = 4
?IsSecretRoomMonster@CSecretRoomContinent@@QAEHKH@Z PROC ; CSecretRoomContinent::IsSecretRoomMonster, COMDAT
; _this$ = ecx

; 1347 : {

  00000	55		 push	 ebp
  00001	8b ec		 mov	 ebp, esp
  00003	56		 push	 esi
  00004	57		 push	 edi

; 1348 : 	if( dwMonsterId == NULL_ID )

  00005	8b 7d 08	 mov	 edi, DWORD PTR _dwMonsterId$[ebp]
  00008	83 ff ff	 cmp	 edi, -1
  0000b	74 55		 je	 SHORT $LN5@IsSecretRo

; 1349 : 		return FALSE;
; 1350 : 
; 1351 : 	vector<__SECRETROOM_MONSTER>::iterator it, itEnd;
; 1352 : 	switch( nWarState )

  0000d	8b 45 0c	 mov	 eax, DWORD PTR _nWarState$[ebp]
  00010	83 e8 01	 sub	 eax, 1
  00013	74 2e		 je	 SHORT $LN8@IsSecretRo
  00015	83 e8 01	 sub	 eax, 1
  00018	74 17		 je	 SHORT $LN9@IsSecretRo
  0001a	83 e8 01	 sub	 eax, 1
  0001d	75 43		 jne	 SHORT $LN5@IsSecretRo

; 1362 : 		case MONSTER_BOSS :
; 1363 : 			it = CSecretRoomMng::GetInstance()->m_vecBossMonster.begin();

  0001f	e8 00 00 00 00	 call	 ?GetInstance@CSecretRoomMng@@SAPAV1@XZ ; CSecretRoomMng::GetInstance
; File C:\Program Files\Microsoft Visual Studio\2022\Professional\VC\Tools\MSVC\14.44.35207\include\vector

; 46   :     _CONSTEXPR20 _Vector_const_iterator(_Tptr _Parg, const _Container_base* _Pvector) noexcept : _Ptr(_Parg) {

  00024	8b 70 64	 mov	 esi, DWORD PTR [eax+100]
; File C:\IAGOS\server\v18\Source\Source\_Common\SecretRoom.cpp

; 1364 : 			itEnd = CSecretRoomMng::GetInstance()->m_vecBossMonster.end();

  00027	e8 00 00 00 00	 call	 ?GetInstance@CSecretRoomMng@@SAPAV1@XZ ; CSecretRoomMng::GetInstance
  0002c	8b 40 68	 mov	 eax, DWORD PTR [eax+104]
  0002f	eb 22		 jmp	 SHORT $LN2@IsSecretRo
$LN9@IsSecretRo:

; 1357 : 			break;
; 1358 : 		case MONSTER_MIDBOSS :
; 1359 : 			it = CSecretRoomMng::GetInstance()->m_vecMidBossMonster.begin();

  00031	e8 00 00 00 00	 call	 ?GetInstance@CSecretRoomMng@@SAPAV1@XZ ; CSecretRoomMng::GetInstance
; File C:\Program Files\Microsoft Visual Studio\2022\Professional\VC\Tools\MSVC\14.44.35207\include\vector

; 46   :     _CONSTEXPR20 _Vector_const_iterator(_Tptr _Parg, const _Container_base* _Pvector) noexcept : _Ptr(_Parg) {

  00036	8b 70 58	 mov	 esi, DWORD PTR [eax+88]
; File C:\IAGOS\server\v18\Source\Source\_Common\SecretRoom.cpp

; 1360 : 			itEnd = CSecretRoomMng::GetInstance()->m_vecMidBossMonster.end();

  00039	e8 00 00 00 00	 call	 ?GetInstance@CSecretRoomMng@@SAPAV1@XZ ; CSecretRoomMng::GetInstance
  0003e	8b 40 5c	 mov	 eax, DWORD PTR [eax+92]

; 1361 : 			break;

  00041	eb 10		 jmp	 SHORT $LN2@IsSecretRo
$LN8@IsSecretRo:

; 1353 : 	{
; 1354 : 		case MONSTER_NORMAL :
; 1355 : 			it = CSecretRoomMng::GetInstance()->m_vecNormalMonster.begin();

  00043	e8 00 00 00 00	 call	 ?GetInstance@CSecretRoomMng@@SAPAV1@XZ ; CSecretRoomMng::GetInstance
; File C:\Program Files\Microsoft Visual Studio\2022\Professional\VC\Tools\MSVC\14.44.35207\include\vector

; 46   :     _CONSTEXPR20 _Vector_const_iterator(_Tptr _Parg, const _Container_base* _Pvector) noexcept : _Ptr(_Parg) {

  00048	8b 70 4c	 mov	 esi, DWORD PTR [eax+76]
; File C:\IAGOS\server\v18\Source\Source\_Common\SecretRoom.cpp

; 1356 : 			itEnd = CSecretRoomMng::GetInstance()->m_vecNormalMonster.end();

  0004b	e8 00 00 00 00	 call	 ?GetInstance@CSecretRoomMng@@SAPAV1@XZ ; CSecretRoomMng::GetInstance
  00050	8b 40 50	 mov	 eax, DWORD PTR [eax+80]
$LN2@IsSecretRo:
; File C:\Program Files\Microsoft Visual Studio\2022\Professional\VC\Tools\MSVC\14.44.35207\include\vector

; 176  :         return !(*this == _Right);

  00053	3b f0		 cmp	 esi, eax
; File C:\IAGOS\server\v18\Source\Source\_Common\SecretRoom.cpp

; 1368 : 	for( ; it!=itEnd; it++ )

  00055	74 0b		 je	 SHORT $LN5@IsSecretRo
$LL6@IsSecretRo:

; 1369 : 	{
; 1370 :         if( (*it).dwId == dwMonsterId )

  00057	39 3e		 cmp	 DWORD PTR [esi], edi
  00059	74 0f		 je	 SHORT $LN92@IsSecretRo
; File C:\Program Files\Microsoft Visual Studio\2022\Professional\VC\Tools\MSVC\14.44.35207\include\vector

; 82   :         ++_Ptr;

  0005b	83 c6 20	 add	 esi, 32			; 00000020H

; 176  :         return !(*this == _Right);

  0005e	3b f0		 cmp	 esi, eax
; File C:\IAGOS\server\v18\Source\Source\_Common\SecretRoom.cpp

; 1368 : 	for( ; it!=itEnd; it++ )

  00060	75 f5		 jne	 SHORT $LL6@IsSecretRo
$LN5@IsSecretRo:
  00062	5f		 pop	 edi

; 1372 : 	}
; 1373 : 
; 1374 : 	return FALSE;

  00063	33 c0		 xor	 eax, eax

; 1375 : }

  00065	5e		 pop	 esi
  00066	5d		 pop	 ebp
  00067	c2 08 00	 ret	 8
$LN92@IsSecretRo:
  0006a	5f		 pop	 edi

; 1371 : 			return TRUE;

  0006b	b8 01 00 00 00	 mov	 eax, 1

; 1375 : }

  00070	5e		 pop	 esi
  00071	5d		 pop	 ebp
  00072	c2 08 00	 ret	 8
?IsSecretRoomMonster@CSecretRoomContinent@@QAEHKH@Z ENDP ; CSecretRoomContinent::IsSecretRoomMonster
_TEXT	ENDS
; Function compile flags: /Ogtp
; File C:\IAGOS\server\v18\Source\Source\_Common\SecretRoom.cpp
; File C:\Program Files\Microsoft Visual Studio\2022\Professional\VC\Tools\MSVC\14.44.35207\include\vector
; File C:\IAGOS\server\v18\Source\Source\_Common\SecretRoom.cpp
; File C:\Program Files\Microsoft Visual Studio\2022\Professional\VC\Tools\MSVC\14.44.35207\include\vector
; File C:\IAGOS\server\v18\Source\Source\_Common\SecretRoom.cpp
; File C:\Program Files\Microsoft Visual Studio\2022\Professional\VC\Tools\MSVC\14.44.35207\include\vector
; File C:\IAGOS\server\v18\Source\Source\_Common\SecretRoom.cpp
; File C:\Program Files\Microsoft Visual Studio\2022\Professional\VC\Tools\MSVC\14.44.35207\include\xtree
; File C:\Program Files\Microsoft Visual Studio\2022\Professional\VC\Tools\MSVC\14.44.35207\include\type_traits
; File C:\Program Files\Microsoft Visual Studio\2022\Professional\VC\Tools\MSVC\14.44.35207\include\xtree
; File C:\IAGOS\server\v18\Source\Source\_Common\SecretRoom.cpp
; File C:\Program Files\Microsoft Visual Studio\2022\Professional\VC\Tools\MSVC\14.44.35207\include\vector
; File C:\IAGOS\server\v18\Source\Source\_Common\SecretRoom.cpp
; File C:\Program Files\Microsoft Visual Studio\2022\Professional\VC\Tools\MSVC\14.44.35207\atlmfc\include\afxstr.h
; File C:\Program Files\Microsoft Visual Studio\2022\Professional\VC\Tools\MSVC\14.44.35207\atlmfc\include\atlsimpstr.h
; File C:\IAGOS\server\v18\Source\Source\_Common\SecretRoom.cpp
; File C:\IAGOS\server\v18\Source\Source\_Common\Project.h
; File C:\IAGOS\server\v18\Source\Source\_Common\SecretRoom.cpp
; File C:\IAGOS\server\v18\Source\Source\_Common\Project.h
; File C:\IAGOS\server\v18\Source\Source\_Common\data.h
; File C:\IAGOS\server\v18\Source\Source\_Common\Project.h
; File C:\IAGOS\server\v18\Source\Source\_Common\SecretRoom.cpp
; File C:\Program Files\Microsoft Visual Studio\2022\Professional\VC\Tools\MSVC\14.44.35207\atlmfc\include\atlsimpstr.h
; File C:\IAGOS\server\v18\Source\Source\_Common\SecretRoom.cpp
; File C:\Program Files\Microsoft Visual Studio\2022\Professional\VC\Tools\MSVC\14.44.35207\atlmfc\include\atlsimpstr.h
; File C:\IAGOS\server\v18\Source\Source\_Common\SecretRoom.cpp
; File C:\Program Files\Microsoft Visual Studio\2022\Professional\VC\Tools\MSVC\14.44.35207\atlmfc\include\atlsimpstr.h
; File C:\IAGOS\server\v18\Source\Source\_Common\SecretRoom.cpp
; File C:\Program Files\Microsoft Visual Studio\2022\Professional\VC\Tools\MSVC\14.44.35207\include\vector
; File C:\IAGOS\server\v18\Source\Source\_Common\SecretRoom.cpp
; File C:\Program Files\Microsoft Visual Studio\2022\Professional\VC\Tools\MSVC\14.44.35207\include\vector
; File C:\IAGOS\server\v18\Source\Source\_Common\SecretRoom.cpp
; File C:\Program Files\Microsoft Visual Studio\2022\Professional\VC\Tools\MSVC\14.44.35207\include\vector
; File C:\IAGOS\server\v18\Source\Source\_Common\SecretRoom.cpp
; File C:\Program Files\Microsoft Visual Studio\2022\Professional\VC\Tools\MSVC\14.44.35207\include\vector
; File C:\IAGOS\server\v18\Source\Source\_Common\SecretRoom.cpp
; File C:\Program Files\Microsoft Visual Studio\2022\Professional\VC\Tools\MSVC\14.44.35207\include\vector
; File C:\Program Files\Microsoft Visual Studio\2022\Professional\VC\Tools\MSVC\14.44.35207\include\xutility
; File C:\Program Files\Microsoft Visual Studio\2022\Professional\VC\Tools\MSVC\14.44.35207\include\vector
; File C:\IAGOS\server\v18\Source\Source\_Common\SecretRoom.cpp
; File C:\Program Files\Microsoft Visual Studio\2022\Professional\VC\Tools\MSVC\14.44.35207\include\vector
; File C:\IAGOS\server\v18\Source\Source\_Common\SecretRoom.cpp
; File C:\Program Files\Microsoft Visual Studio\2022\Professional\VC\Tools\MSVC\14.44.35207\include\vector
; File C:\IAGOS\server\v18\Source\Source\_Common\SecretRoom.cpp
; File C:\Program Files\Microsoft Visual Studio\2022\Professional\VC\Tools\MSVC\14.44.35207\include\xtree
; File C:\IAGOS\server\v18\Source\Source\_Common\SecretRoom.cpp
; File C:\Program Files\Microsoft Visual Studio\2022\Professional\VC\Tools\MSVC\14.44.35207\include\xtree
; File C:\Program Files\Microsoft Visual Studio\2022\Professional\VC\Tools\MSVC\14.44.35207\include\type_traits
; File C:\Program Files\Microsoft Visual Studio\2022\Professional\VC\Tools\MSVC\14.44.35207\include\xtree
; File C:\Program Files\Microsoft Visual Studio\2022\Professional\VC\Tools\MSVC\14.44.35207\include\type_traits
; File C:\Program Files\Microsoft Visual Studio\2022\Professional\VC\Tools\MSVC\14.44.35207\include\xtree
; File C:\IAGOS\server\v18\Source\Source\_Common\Project.h
; File C:\IAGOS\server\v18\Source\Source\_Common\Obj.h
; File C:\IAGOS\server\v18\Source\Source\_Common\SecretRoom.cpp
; File C:\Program Files\Microsoft Visual Studio\2022\Professional\VC\Tools\MSVC\14.44.35207\include\vector
; File C:\IAGOS\server\v18\Source\Source\_Common\SecretRoom.cpp
; File C:\Program Files\Microsoft Visual Studio\2022\Professional\VC\Tools\MSVC\14.44.35207\include\vector
; File C:\IAGOS\server\v18\Source\Source\_Common\SecretRoom.cpp
; File C:\Program Files\Microsoft Visual Studio\2022\Professional\VC\Tools\MSVC\14.44.35207\include\vector
; File C:\IAGOS\server\v18\Source\Source\_Common\SecretRoom.cpp
; File C:\Program Files\Microsoft Visual Studio\2022\Professional\VC\Tools\MSVC\14.44.35207\include\vector
; File C:\Program Files\Microsoft Visual Studio\2022\Professional\VC\Tools\MSVC\14.44.35207\include\xutility
; File C:\Program Files\Microsoft Visual Studio\2022\Professional\VC\Tools\MSVC\14.44.35207\include\vector
; File C:\IAGOS\server\v18\Source\Source\_Common\SecretRoom.cpp
; File C:\Program Files\Microsoft Visual Studio\2022\Professional\VC\Tools\MSVC\14.44.35207\atlmfc\include\atlsimpstr.h
; File C:\IAGOS\server\v18\Source\Source\_Common\SecretRoom.cpp
;	COMDAT ?SetSecretRoomContKill@CSecretRoomContinent@@QAEXKKH@Z
_TEXT	SEGMENT
__Loc$3 = -40						; size = 12
$T4 = -28						; size = 4
_strTemp$5 = -24					; size = 4
_j$1$ = -24						; size = 4
$T6 = -24						; size = 4
_i$1$ = -20						; size = 4
tv1570 = -16						; size = 4
__$EHRec$ = -12						; size = 12
_dwWorldId$ = 8						; size = 4
_dwMonsterId$ = 12					; size = 4
_bKill$ = 16						; size = 4
?SetSecretRoomContKill@CSecretRoomContinent@@QAEXKKH@Z PROC ; CSecretRoomContinent::SetSecretRoomContKill, COMDAT
; _this$ = ecx

; 1149 : {

  00000	55		 push	 ebp
  00001	8b ec		 mov	 ebp, esp
  00003	6a ff		 push	 -1
  00005	68 00 00 00 00	 push	 __ehhandler$?SetSecretRoomContKill@CSecretRoomContinent@@QAEXKKH@Z
  0000a	64 a1 00 00 00
	00		 mov	 eax, DWORD PTR fs:0
  00010	50		 push	 eax
  00011	83 ec 1c	 sub	 esp, 28			; 0000001cH
  00014	53		 push	 ebx
  00015	56		 push	 esi
  00016	57		 push	 edi
  00017	a1 00 00 00 00	 mov	 eax, DWORD PTR ___security_cookie
  0001c	33 c5		 xor	 eax, ebp
  0001e	50		 push	 eax
  0001f	8d 45 f4	 lea	 eax, DWORD PTR __$EHRec$[ebp]
  00022	64 a3 00 00 00
	00		 mov	 DWORD PTR fs:0, eax
  00028	8b d9		 mov	 ebx, ecx

; 1150 : 	if( m_nState != SRCONT_WAR )

  0002a	83 7b 04 67	 cmp	 DWORD PTR [ebx+4], 103	; 00000067H
  0002e	0f 85 24 02 00
	00		 jne	 $LN273@SetSecretR
; File C:\Program Files\Microsoft Visual Studio\2022\Professional\VC\Tools\MSVC\14.44.35207\include\vector

; 1915 :         return static_cast<size_type>(_My_data._Mylast - _My_data._Myfirst);

  00034	8b 4b 14	 mov	 ecx, DWORD PTR [ebx+20]
  00037	b8 e9 a2 8b 2e	 mov	 eax, 780903145		; 2e8ba2e9H
  0003c	8b 73 10	 mov	 esi, DWORD PTR [ebx+16]
  0003f	2b ce		 sub	 ecx, esi
  00041	f7 e9		 imul	 ecx
; File C:\IAGOS\server\v18\Source\Source\_Common\SecretRoom.cpp

; 1153 : 	for( DWORD i=0; i<m_vecSecretRoomTender.size(); i++ )

  00043	c7 45 ec 00 00
	00 00		 mov	 DWORD PTR _i$1$[ebp], 0
; File C:\Program Files\Microsoft Visual Studio\2022\Professional\VC\Tools\MSVC\14.44.35207\include\vector

; 1915 :         return static_cast<size_type>(_My_data._Mylast - _My_data._Myfirst);

  0004a	c1 fa 03	 sar	 edx, 3
  0004d	8b c2		 mov	 eax, edx
  0004f	c1 e8 1f	 shr	 eax, 31			; 0000001fH
  00052	03 c2		 add	 eax, edx
; File C:\IAGOS\server\v18\Source\Source\_Common\SecretRoom.cpp

; 1153 : 	for( DWORD i=0; i<m_vecSecretRoomTender.size(); i++ )

  00054	0f 84 fe 01 00
	00		 je	 $LN273@SetSecretR
  0005a	33 ff		 xor	 edi, edi
  0005c	89 7d f0	 mov	 DWORD PTR tv1570[ebp], edi
  0005f	90		 npad	 1
$LL4@SetSecretR:

; 1154 : 	{
; 1155 : 		if( m_vecSecretRoomTender[i].dwWorldId != dwWorldId )

  00060	8b 45 08	 mov	 eax, DWORD PTR _dwWorldId$[ebp]
  00063	39 44 37 0c	 cmp	 DWORD PTR [edi+esi+12], eax
  00067	0f 85 c0 01 00
	00		 jne	 $LN2@SetSecretR

; 1156 : 			continue;
; 1157 : 
; 1158 : 		if( bKill )	// ˝ÇÁ¦ ¸ó˝şĹÍ°ˇ Á×ľúŔ» ¶§ şńąĐŔÇ ąć ĽłÁ¤ ¸ó˝şĹÍ ŔÎÁö Č®ŔÎÇŘĽ­ ĹłÄ«żîĆ® Áő°ˇ

  0006d	83 7d 10 00	 cmp	 DWORD PTR _bKill$[ebp], 0
  00071	74 29		 je	 SHORT $LN12@SetSecretR

; 1159 : 		{
; 1160 : 			if( !IsSecretRoomMonster( dwMonsterId, m_vecSecretRoomTender[i].nWarState ) )

  00073	ff 74 37 10	 push	 DWORD PTR [edi+esi+16]
  00077	8b cb		 mov	 ecx, ebx
  00079	ff 75 0c	 push	 DWORD PTR _dwMonsterId$[ebp]
  0007c	e8 00 00 00 00	 call	 ?IsSecretRoomMonster@CSecretRoomContinent@@QAEHKH@Z ; CSecretRoomContinent::IsSecretRoomMonster
  00081	85 c0		 test	 eax, eax
  00083	0f 84 cf 01 00
	00		 je	 $LN273@SetSecretR

; 1161 : 				return;
; 1162 : 
; 1163 : 			m_vecSecretRoomTender[i].nKillCount++;

  00089	8b 43 10	 mov	 eax, DWORD PTR [ebx+16]

; 1164 : 			UpdateInfoToAllMember( SECRETROOM_KILLCOUNT, i );

  0008c	8b cb		 mov	 ecx, ebx
  0008e	ff 75 ec	 push	 DWORD PTR _i$1$[ebp]
  00091	6a 02		 push	 2
  00093	ff 44 07 08	 inc	 DWORD PTR [edi+eax+8]
  00097	e8 00 00 00 00	 call	 ?UpdateInfoToAllMember@CSecretRoomContinent@@QAEXEH@Z ; CSecretRoomContinent::UpdateInfoToAllMember
$LN12@SetSecretR:
; File C:\Program Files\Microsoft Visual Studio\2022\Professional\VC\Tools\MSVC\14.44.35207\include\vector

; 1934 :         return _My_data._Myfirst[_Pos];

  0009c	8b 43 10	 mov	 eax, DWORD PTR [ebx+16]
  0009f	03 c7		 add	 eax, edi
  000a1	89 45 e8	 mov	 DWORD PTR $T6[ebp], eax
; File C:\IAGOS\server\v18\Source\Source\_Common\SecretRoom.cpp

; 1168 : 		if( m_vecSecretRoomTender[i].nKillCount >= CSecretRoomMng::GetInstance()->m_mapMonsterNum.find(m_vecSecretRoomTender[i].nWarState)->second )

  000a4	8d 78 10	 lea	 edi, DWORD PTR [eax+16]
  000a7	e8 00 00 00 00	 call	 ?GetInstance@CSecretRoomMng@@SAPAV1@XZ ; CSecretRoomMng::GetInstance
  000ac	8b f0		 mov	 esi, eax
; File C:\Program Files\Microsoft Visual Studio\2022\Professional\VC\Tools\MSVC\14.44.35207\include\xtree

; 1384 :         const _Tree_find_result<_Nodeptr> _Loc = _Find_lower_bound(_Keyval);

  000ae	8d 45 d8	 lea	 eax, DWORD PTR __Loc$3[ebp]
  000b1	57		 push	 edi
  000b2	50		 push	 eax
  000b3	8d 4e 3c	 lea	 ecx, DWORD PTR [esi+60]
  000b6	e8 00 00 00 00	 call	 ??$_Find_lower_bound@H@?$_Tree@V?$_Tmap_traits@HHU?$less@H@std@@V?$allocator@U?$pair@$$CBHH@std@@@2@$0A@@std@@@std@@IBE?AU?$_Tree_find_result@PAU?$_Tree_node@U?$pair@$$CBHH@std@@PAX@std@@@1@ABH@Z ; std::_Tree<std::_Tmap_traits<int,int,std::less<int>,std::allocator<std::pair<int const ,int> >,0> >::_Find_lower_bound<int>

; 1624 :         return !_Bound->_Isnil && !_DEBUG_LT_PRED(_Getcomp(), _Keyval, _Traits::_Kfn(_Bound->_Myval));

  000bb	8b 4d e0	 mov	 ecx, DWORD PTR __Loc$3[ebp+8]
  000be	80 79 0d 00	 cmp	 BYTE PTR [ecx+13], 0
  000c2	75 07		 jne	 SHORT $LN38@SetSecretR
; File C:\Program Files\Microsoft Visual Studio\2022\Professional\VC\Tools\MSVC\14.44.35207\include\type_traits

; 2380 :         return _Left < _Right;

  000c4	8b 07		 mov	 eax, DWORD PTR [edi]
  000c6	3b 41 10	 cmp	 eax, DWORD PTR [ecx+16]
; File C:\Program Files\Microsoft Visual Studio\2022\Professional\VC\Tools\MSVC\14.44.35207\include\xtree

; 1624 :         return !_Bound->_Isnil && !_DEBUG_LT_PRED(_Getcomp(), _Keyval, _Traits::_Kfn(_Bound->_Myval));

  000c9	7d 03		 jge	 SHORT $LN37@SetSecretR
$LN38@SetSecretR:

; 1389 :         return _Get_scary()->_Myhead;

  000cb	8b 4e 3c	 mov	 ecx, DWORD PTR [esi+60]
$LN37@SetSecretR:
; File C:\IAGOS\server\v18\Source\Source\_Common\SecretRoom.cpp

; 1168 : 		if( m_vecSecretRoomTender[i].nKillCount >= CSecretRoomMng::GetInstance()->m_mapMonsterNum.find(m_vecSecretRoomTender[i].nWarState)->second )

  000ce	8b 45 e8	 mov	 eax, DWORD PTR $T6[ebp]
  000d1	8b 7d f0	 mov	 edi, DWORD PTR tv1570[ebp]
  000d4	8b 40 08	 mov	 eax, DWORD PTR [eax+8]
  000d7	3b 41 14	 cmp	 eax, DWORD PTR [ecx+20]
  000da	0f 8c 4d 01 00
	00		 jl	 $LN2@SetSecretR

; 1169 : 		{
; 1170 : 			m_vecSecretRoomTender[i].nKillCount = 0;

  000e0	8b 43 10	 mov	 eax, DWORD PTR [ebx+16]
  000e3	c7 44 38 08 00
	00 00 00	 mov	 DWORD PTR [eax+edi+8], 0

; 1171 : 			switch( m_vecSecretRoomTender[i].nWarState )

  000eb	8b 4b 10	 mov	 ecx, DWORD PTR [ebx+16]
  000ee	03 cf		 add	 ecx, edi
  000f0	8b 41 10	 mov	 eax, DWORD PTR [ecx+16]
  000f3	83 e8 01	 sub	 eax, 1
  000f6	0f 84 70 02 00
	00		 je	 $LN15@SetSecretR
  000fc	83 e8 01	 sub	 eax, 1
  000ff	0f 84 67 01 00
	00		 je	 $LN16@SetSecretR
  00105	83 e8 01	 sub	 eax, 1
  00108	0f 85 1f 01 00
	00		 jne	 $LN2@SetSecretR

; 1197 : 
; 1198 : 				case MONSTER_BOSS :
; 1199 : 					{
; 1200 : 						//Áľ·áĂł¸®
; 1201 : 						m_vecSecretRoomTender[i].nWarState = MONSTER_WIN;
; 1202 : 						UpdateInfoToAllMember( SECRETROOM_WARSTATE, i );

  0010e	ff 75 ec	 push	 DWORD PTR _i$1$[ebp]
  00111	c7 41 10 04 00
	00 00		 mov	 DWORD PTR [ecx+16], 4
  00118	8b cb		 mov	 ecx, ebx
  0011a	6a 03		 push	 3
  0011c	e8 00 00 00 00	 call	 ?UpdateInfoToAllMember@CSecretRoomContinent@@QAEXEH@Z ; CSecretRoomContinent::UpdateInfoToAllMember
; File C:\Program Files\Microsoft Visual Studio\2022\Professional\VC\Tools\MSVC\14.44.35207\include\vector

; 1934 :         return _My_data._Myfirst[_Pos];

  00121	8b 43 10	 mov	 eax, DWORD PTR [ebx+16]
; File C:\IAGOS\server\v18\Source\Source\_Common\SecretRoom.cpp

; 1203 : 						CGuild* pGuild = g_GuildMng.GetGuild( m_vecSecretRoomTender[i].dwGuildId );

  00124	b9 00 00 00 00	 mov	 ecx, OFFSET ?g_GuildMng@@3VCGuildMng@@A ; g_GuildMng
  00129	ff 34 38	 push	 DWORD PTR [eax+edi]
  0012c	e8 00 00 00 00	 call	 ?GetGuild@CGuildMng@@QAEPAVCGuild@@K@Z ; CGuildMng::GetGuild
  00131	8b f8		 mov	 edi, eax
; File C:\Program Files\Microsoft Visual Studio\2022\Professional\VC\Tools\MSVC\14.44.35207\atlmfc\include\afxstr.h

; 56   : 		return( AfxGetStringManager() );

  00133	e8 00 00 00 00	 call	 ?AfxGetStringManager@@YGPAUIAtlStringMgr@ATL@@XZ ; AfxGetStringManager
; File C:\Program Files\Microsoft Visual Studio\2022\Professional\VC\Tools\MSVC\14.44.35207\atlmfc\include\atlsimpstr.h

; 209  : 		ATLENSURE( pStringMgr != NULL );

  00138	85 c0		 test	 eax, eax
  0013a	0f 84 76 02 00
	00		 je	 $LN270@SetSecretR

; 210  : 		CStringData* pData = pStringMgr->GetNilString();

  00140	8b 10		 mov	 edx, DWORD PTR [eax]
  00142	8b c8		 mov	 ecx, eax
  00144	ff 52 0c	 call	 DWORD PTR [edx+12]

; 211  : 		Attach( pData );

  00147	8d 70 10	 lea	 esi, DWORD PTR [eax+16]
  0014a	89 75 e8	 mov	 DWORD PTR _strTemp$5[ebp], esi
; File C:\IAGOS\server\v18\Source\Source\_Common\SecretRoom.cpp

; 1204 : 						CString strTemp;

  0014d	c7 45 fc 00 00
	00 00		 mov	 DWORD PTR __$EHRec$[ebp+8], 0

; 1205 : 						if( pGuild )

  00154	85 ff		 test	 edi, edi
  00156	0f 84 99 00 00
	00		 je	 $LN264@SetSecretR

; 1206 : 							strTemp.Format( prj.GetText( TID_GAME_SECRETROOM_WINNER ),

  0015c	8a 43 0c	 mov	 al, BYTE PTR [ebx+12]
  0015f	50		 push	 eax
  00160	8d 45 e4	 lea	 eax, DWORD PTR $T4[ebp]
  00163	50		 push	 eax
  00164	e8 00 00 00 00	 call	 ?GetInstance@CContinent@@SAPAV1@XZ ; CContinent::GetInstance
  00169	8b c8		 mov	 ecx, eax
  0016b	e8 00 00 00 00	 call	 ?GetContinentName@CContinent@@QAE?AV?$CStringT@DV?$StrTraitMFC@DV?$ChTraitsCRT@D@ATL@@@@@ATL@@E@Z ; CContinent::GetContinentName
  00170	8b f0		 mov	 esi, eax
; File C:\IAGOS\server\v18\Source\Source\_Common\Project.h

; 1427 : 	VERIFY_RANGE( (int)( dwIndex ), 0, m_colorText.GetSize(), "GetText range_error", "error" );

  00172	8b 0d ac 02 00
	00		 mov	 ecx, DWORD PTR ?prj@@3VCProject@@A+684
; File C:\IAGOS\server\v18\Source\Source\_Common\SecretRoom.cpp

; 1206 : 							strTemp.Format( prj.GetText( TID_GAME_SECRETROOM_WINNER ),

  00178	c6 45 fc 01	 mov	 BYTE PTR __$EHRec$[ebp+8], 1
; File C:\IAGOS\server\v18\Source\Source\_Common\Project.h

; 1427 : 	VERIFY_RANGE( (int)( dwIndex ), 0, m_colorText.GetSize(), "GetText range_error", "error" );

  0017c	81 f9 88 0e 00
	00		 cmp	 ecx, 3720		; 00000e88H
  00182	7f 21		 jg	 SHORT $LN242@SetSecretR

; 579  : 	LPCTSTR szErr = Error( _T( "%s min:%d, max:%d, index:%d" ), szMsg, nMin, nMax, nIndex ); 

  00184	68 88 0e 00 00	 push	 3720			; 00000e88H
  00189	51		 push	 ecx
  0018a	6a 00		 push	 0
  0018c	68 00 00 00 00	 push	 OFFSET ??_C@_0BE@OHDBLHOM@GetText?5range_error@
  00191	68 00 00 00 00	 push	 OFFSET ??_C@_0BM@HMFGHCP@?$CFs?5min?3?$CFd?0?5max?3?$CFd?0?5index?3?$CFd@
  00196	e8 00 00 00 00	 call	 ?Error@@YAPBDPBDZZ	; Error
  0019b	83 c4 14	 add	 esp, 20			; 00000014H

; 1427 : 	VERIFY_RANGE( (int)( dwIndex ), 0, m_colorText.GetSize(), "GetText range_error", "error" );

  0019e	b9 00 00 00 00	 mov	 ecx, OFFSET ??_C@_05KKCIMGE@error@
  001a3	eb 1b		 jmp	 SHORT $LN241@SetSecretR
$LN242@SetSecretR:
; File C:\IAGOS\server\v18\Source\Source\_Common\data.h

; 270  : 	if( dwIndex >= (DWORD)m_nMaxIndex )

  001a5	76 14		 jbe	 SHORT $LN281@SetSecretR

; 271  : 		return NULL;
; 272  : 	return (T*) m_apOffset[ dwIndex ];

  001a7	a1 9c 02 00 00	 mov	 eax, DWORD PTR ?prj@@3VCProject@@A+668
  001ac	8b 88 20 3a 00
	00		 mov	 ecx, DWORD PTR [eax+14880]
; File C:\IAGOS\server\v18\Source\Source\_Common\Project.h

; 1428 : 	if( m_colorText.GetAt( dwIndex ) == NULL )

  001b2	85 c9		 test	 ecx, ecx
  001b4	74 05		 je	 SHORT $LN281@SetSecretR

; 1430 : 	return m_colorText.GetAt( dwIndex )->lpszData; 

  001b6	8b 49 04	 mov	 ecx, DWORD PTR [ecx+4]
  001b9	eb 05		 jmp	 SHORT $LN241@SetSecretR
$LN281@SetSecretR:

; 1429 : 		return "";

  001bb	b9 00 00 00 00	 mov	 ecx, OFFSET ??_C@_00CNPNBAHC@@
$LN241@SetSecretR:
; File C:\IAGOS\server\v18\Source\Source\_Common\SecretRoom.cpp

; 1206 : 							strTemp.Format( prj.GetText( TID_GAME_SECRETROOM_WINNER ),

  001c0	8d 47 08	 lea	 eax, DWORD PTR [edi+8]
  001c3	50		 push	 eax
  001c4	ff 36		 push	 DWORD PTR [esi]
  001c6	8d 45 e8	 lea	 eax, DWORD PTR _strTemp$5[ebp]
  001c9	51		 push	 ecx
  001ca	50		 push	 eax
  001cb	e8 00 00 00 00	 call	 ?Format@?$CStringT@DV?$StrTraitMFC@DV?$ChTraitsCRT@D@ATL@@@@@ATL@@QAAXPBDZZ ; ATL::CStringT<char,StrTraitMFC<char,ATL::ChTraitsCRT<char> > >::Format
; File C:\Program Files\Microsoft Visual Studio\2022\Professional\VC\Tools\MSVC\14.44.35207\atlmfc\include\atlsimpstr.h

; 804  : 		return( reinterpret_cast< CStringData* >( m_pszData )-1 );

  001d0	8b 55 e4	 mov	 edx, DWORD PTR $T4[ebp]
; File C:\IAGOS\server\v18\Source\Source\_Common\SecretRoom.cpp

; 1206 : 							strTemp.Format( prj.GetText( TID_GAME_SECRETROOM_WINNER ),

  001d3	83 c4 10	 add	 esp, 16			; 00000010H
  001d6	c6 45 fc 00	 mov	 BYTE PTR __$EHRec$[ebp+8], 0
; File C:\Program Files\Microsoft Visual Studio\2022\Professional\VC\Tools\MSVC\14.44.35207\atlmfc\include\atlsimpstr.h

; 804  : 		return( reinterpret_cast< CStringData* >( m_pszData )-1 );

  001da	83 c2 f0	 add	 edx, -16		; fffffff0H

; 92   : 		if( _InterlockedDecrement( &nRefs ) <= 0 )

  001dd	83 c8 ff	 or	 eax, -1
  001e0	f0 0f c1 42 0c	 lock	  xadd	 DWORD PTR [edx+12], eax
  001e5	48		 dec	 eax
  001e6	85 c0		 test	 eax, eax
  001e8	7f 08		 jg	 SHORT $LN284@SetSecretR

; 93   : 		{
; 94   : 			pStringMgr->Free( this );

  001ea	8b 0a		 mov	 ecx, DWORD PTR [edx]
  001ec	52		 push	 edx
  001ed	8b 01		 mov	 eax, DWORD PTR [ecx]
  001ef	ff 50 04	 call	 DWORD PTR [eax+4]
$LN284@SetSecretR:
; File C:\IAGOS\server\v18\Source\Source\_Common\SecretRoom.cpp

; 1209 : 						g_DPCoreClient.SendCaption( strTemp );

  001f2	8b 75 e8	 mov	 esi, DWORD PTR _strTemp$5[ebp]
$LN264@SetSecretR:
  001f5	6a 00		 push	 0
  001f7	6a 00		 push	 0
  001f9	56		 push	 esi
  001fa	b9 00 00 00 00	 mov	 ecx, OFFSET ?g_DPCoreClient@@3VCDPCoreClient@@A ; g_DPCoreClient
  001ff	e8 00 00 00 00	 call	 ?SendCaption@CDPCoreClient@@QAEXPBDKH@Z ; CDPCoreClient::SendCaption

; 1210 : 						SetContCloseWait();

  00204	8b cb		 mov	 ecx, ebx
  00206	e8 00 00 00 00	 call	 ?SetContCloseWait@CSecretRoomContinent@@QAEXXZ ; CSecretRoomContinent::SetContCloseWait

; 1211 : 					}

  0020b	c7 45 fc ff ff
	ff ff		 mov	 DWORD PTR __$EHRec$[ebp+8], -1
; File C:\Program Files\Microsoft Visual Studio\2022\Professional\VC\Tools\MSVC\14.44.35207\atlmfc\include\atlsimpstr.h

; 804  : 		return( reinterpret_cast< CStringData* >( m_pszData )-1 );

  00212	83 c6 f0	 add	 esi, -16		; fffffff0H

; 92   : 		if( _InterlockedDecrement( &nRefs ) <= 0 )

  00215	83 c8 ff	 or	 eax, -1
  00218	f0 0f c1 46 0c	 lock	  xadd	 DWORD PTR [esi+12], eax
  0021d	48		 dec	 eax
  0021e	85 c0		 test	 eax, eax
  00220	7f 08		 jg	 SHORT $LN287@SetSecretR

; 93   : 		{
; 94   : 			pStringMgr->Free( this );

  00222	8b 0e		 mov	 ecx, DWORD PTR [esi]
  00224	56		 push	 esi
  00225	8b 01		 mov	 eax, DWORD PTR [ecx]
  00227	ff 50 04	 call	 DWORD PTR [eax+4]
$LN287@SetSecretR:
; File C:\IAGOS\server\v18\Source\Source\_Common\SecretRoom.cpp

; 1153 : 	for( DWORD i=0; i<m_vecSecretRoomTender.size(); i++ )

  0022a	8b 7d f0	 mov	 edi, DWORD PTR tv1570[ebp]
$LN2@SetSecretR:
; File C:\Program Files\Microsoft Visual Studio\2022\Professional\VC\Tools\MSVC\14.44.35207\include\vector

; 1915 :         return static_cast<size_type>(_My_data._Mylast - _My_data._Myfirst);

  0022d	8b 4b 14	 mov	 ecx, DWORD PTR [ebx+20]
  00230	b8 e9 a2 8b 2e	 mov	 eax, 780903145		; 2e8ba2e9H
  00235	8b 73 10	 mov	 esi, DWORD PTR [ebx+16]
; File C:\IAGOS\server\v18\Source\Source\_Common\SecretRoom.cpp

; 1153 : 	for( DWORD i=0; i<m_vecSecretRoomTender.size(); i++ )

  00238	83 c7 2c	 add	 edi, 44			; 0000002cH
  0023b	ff 45 ec	 inc	 DWORD PTR _i$1$[ebp]
; File C:\Program Files\Microsoft Visual Studio\2022\Professional\VC\Tools\MSVC\14.44.35207\include\vector

; 1915 :         return static_cast<size_type>(_My_data._Mylast - _My_data._Myfirst);

  0023e	2b ce		 sub	 ecx, esi
  00240	f7 e9		 imul	 ecx
; File C:\IAGOS\server\v18\Source\Source\_Common\SecretRoom.cpp

; 1153 : 	for( DWORD i=0; i<m_vecSecretRoomTender.size(); i++ )

  00242	89 7d f0	 mov	 DWORD PTR tv1570[ebp], edi
; File C:\Program Files\Microsoft Visual Studio\2022\Professional\VC\Tools\MSVC\14.44.35207\include\vector

; 1915 :         return static_cast<size_type>(_My_data._Mylast - _My_data._Myfirst);

  00245	c1 fa 03	 sar	 edx, 3
  00248	8b c2		 mov	 eax, edx
  0024a	c1 e8 1f	 shr	 eax, 31			; 0000001fH
  0024d	03 c2		 add	 eax, edx
; File C:\IAGOS\server\v18\Source\Source\_Common\SecretRoom.cpp

; 1153 : 	for( DWORD i=0; i<m_vecSecretRoomTender.size(); i++ )

  0024f	39 45 ec	 cmp	 DWORD PTR _i$1$[ebp], eax
  00252	0f 82 08 fe ff
	ff		 jb	 $LL4@SetSecretR
$LN273@SetSecretR:

; 1216 : }

  00258	8b 4d f4	 mov	 ecx, DWORD PTR __$EHRec$[ebp]
  0025b	64 89 0d 00 00
	00 00		 mov	 DWORD PTR fs:0, ecx
  00262	59		 pop	 ecx
  00263	5f		 pop	 edi
  00264	5e		 pop	 esi
  00265	5b		 pop	 ebx
  00266	8b e5		 mov	 esp, ebp
  00268	5d		 pop	 ebp
  00269	c2 0c 00	 ret	 12			; 0000000cH
$LN16@SetSecretR:

; 1179 : 					}
; 1180 : 					break;
; 1181 : 
; 1182 : 				case MONSTER_MIDBOSS :
; 1183 : 					{
; 1184 : 						m_vecSecretRoomTender[i].nWarState = MONSTER_BOSS;

  0026c	c7 41 10 03 00
	00 00		 mov	 DWORD PTR [ecx+16], 3

; 1185 : 						m_vecSecretRoomTender[i].vecMonster.assign( CSecretRoomMng::GetInstance()->m_vecBossMonster.begin(), CSecretRoomMng::GetInstance()->m_vecBossMonster.end() );

  00273	e8 00 00 00 00	 call	 ?GetInstance@CSecretRoomMng@@SAPAV1@XZ ; CSecretRoomMng::GetInstance
; File C:\Program Files\Microsoft Visual Studio\2022\Professional\VC\Tools\MSVC\14.44.35207\include\vector

; 46   :     _CONSTEXPR20 _Vector_const_iterator(_Tptr _Parg, const _Container_base* _Pvector) noexcept : _Ptr(_Parg) {

  00278	8b 70 68	 mov	 esi, DWORD PTR [eax+104]
; File C:\IAGOS\server\v18\Source\Source\_Common\SecretRoom.cpp

; 1185 : 						m_vecSecretRoomTender[i].vecMonster.assign( CSecretRoomMng::GetInstance()->m_vecBossMonster.begin(), CSecretRoomMng::GetInstance()->m_vecBossMonster.end() );

  0027b	e8 00 00 00 00	 call	 ?GetInstance@CSecretRoomMng@@SAPAV1@XZ ; CSecretRoomMng::GetInstance
  00280	8b 4b 10	 mov	 ecx, DWORD PTR [ebx+16]
  00283	83 c1 20	 add	 ecx, 32			; 00000020H
  00286	03 cf		 add	 ecx, edi
; File C:\Program Files\Microsoft Visual Studio\2022\Professional\VC\Tools\MSVC\14.44.35207\include\vector

; 46   :     _CONSTEXPR20 _Vector_const_iterator(_Tptr _Parg, const _Container_base* _Pvector) noexcept : _Ptr(_Parg) {

  00288	8b 40 64	 mov	 eax, DWORD PTR [eax+100]

; 1486 :         auto _UFirst = _STD _Get_unwrapped(_First);

  0028b	2b f0		 sub	 esi, eax
; File C:\Program Files\Microsoft Visual Studio\2022\Professional\VC\Tools\MSVC\14.44.35207\include\xutility

; 1662 :         return _Last - _First; // assume the iterator will do debug checking

  0028d	c1 fe 05	 sar	 esi, 5
; File C:\Program Files\Microsoft Visual Studio\2022\Professional\VC\Tools\MSVC\14.44.35207\include\vector

; 1491 :             _Assign_counted_range(_UFirst, _Count);

  00290	56		 push	 esi
  00291	50		 push	 eax
  00292	e8 00 00 00 00	 call	 ??$_Assign_counted_range@PAU__SECRETROOM_MONSTER@@@?$vector@U__SECRETROOM_MONSTER@@V?$allocator@U__SECRETROOM_MONSTER@@@std@@@std@@AAEXPAU__SECRETROOM_MONSTER@@I@Z ; std::vector<__SECRETROOM_MONSTER,std::allocator<__SECRETROOM_MONSTER> >::_Assign_counted_range<__SECRETROOM_MONSTER *>
; File C:\IAGOS\server\v18\Source\Source\_Common\SecretRoom.cpp

; 1186 : 						UpdateInfoToAllMember( SECRETROOM_WARSTATE, i );

  00297	ff 75 ec	 push	 DWORD PTR _i$1$[ebp]
  0029a	8b cb		 mov	 ecx, ebx
  0029c	6a 03		 push	 3
  0029e	e8 00 00 00 00	 call	 ?UpdateInfoToAllMember@CSecretRoomContinent@@QAEXEH@Z ; CSecretRoomContinent::UpdateInfoToAllMember
; File C:\Program Files\Microsoft Visual Studio\2022\Professional\VC\Tools\MSVC\14.44.35207\include\vector

; 1914 :         auto& _My_data = _Mypair._Myval2;

  002a3	8b 4b 10	 mov	 ecx, DWORD PTR [ebx+16]
; File C:\IAGOS\server\v18\Source\Source\_Common\SecretRoom.cpp

; 1188 : 						for( DWORD j=0; j<m_vecSecretRoomTender[i].vecLineUpMember.size(); j++ )

  002a6	33 d2		 xor	 edx, edx
  002a8	89 55 e8	 mov	 DWORD PTR _j$1$[ebp], edx
; File C:\Program Files\Microsoft Visual Studio\2022\Professional\VC\Tools\MSVC\14.44.35207\include\vector

; 1915 :         return static_cast<size_type>(_My_data._Mylast - _My_data._Myfirst);

  002ab	8b 44 0f 18	 mov	 eax, DWORD PTR [edi+ecx+24]
  002af	2b 44 0f 14	 sub	 eax, DWORD PTR [edi+ecx+20]
  002b3	c1 f8 02	 sar	 eax, 2
; File C:\IAGOS\server\v18\Source\Source\_Common\SecretRoom.cpp

; 1188 : 						for( DWORD j=0; j<m_vecSecretRoomTender[i].vecLineUpMember.size(); j++ )

  002b6	85 c0		 test	 eax, eax
  002b8	0f 84 9b 00 00
	00		 je	 $LN8@SetSecretR
  002be	8b 3d 28 00 00
	00		 mov	 edi, DWORD PTR ?prj@@3VCProject@@A+40
  002c4	8b 75 f0	 mov	 esi, DWORD PTR tv1570[ebp]
$LL9@SetSecretR:

; 1190 : 							CUser* pUserTemp = (CUser*)prj.GetUserByID( m_vecSecretRoomTender[i].vecLineUpMember[j] );

  002c7	8b 44 0e 14	 mov	 eax, DWORD PTR [esi+ecx+20]
; File C:\Program Files\Microsoft Visual Studio\2022\Professional\VC\Tools\MSVC\14.44.35207\include\xtree

; 1630 :         _Tree_find_result<_Nodeptr> _Result{{_Scary->_Myhead->_Parent, _Tree_child::_Right}, _Scary->_Myhead};

  002cb	8b cf		 mov	 ecx, edi
; File C:\IAGOS\server\v18\Source\Source\_Common\SecretRoom.cpp

; 1190 : 							CUser* pUserTemp = (CUser*)prj.GetUserByID( m_vecSecretRoomTender[i].vecLineUpMember[j] );

  002cd	8b 14 90	 mov	 edx, DWORD PTR [eax+edx*4]
; File C:\Program Files\Microsoft Visual Studio\2022\Professional\VC\Tools\MSVC\14.44.35207\include\xtree

; 1630 :         _Tree_find_result<_Nodeptr> _Result{{_Scary->_Myhead->_Parent, _Tree_child::_Right}, _Scary->_Myhead};

  002d0	8b 47 04	 mov	 eax, DWORD PTR [edi+4]

; 1631 :         _Nodeptr _Trynode = _Result._Location._Parent;
; 1632 :         while (!_Trynode->_Isnil) {

  002d3	80 78 0d 00	 cmp	 BYTE PTR [eax+13], 0
  002d7	75 1b		 jne	 SHORT $LN90@SetSecretR
  002d9	0f 1f 80 00 00
	00 00		 npad	 7
$LL89@SetSecretR:
; File C:\Program Files\Microsoft Visual Studio\2022\Professional\VC\Tools\MSVC\14.44.35207\include\type_traits

; 2380 :         return _Left < _Right;

  002e0	39 50 10	 cmp	 DWORD PTR [eax+16], edx
; File C:\Program Files\Microsoft Visual Studio\2022\Professional\VC\Tools\MSVC\14.44.35207\include\xtree

; 1634 :             if (_DEBUG_LT_PRED(_Getcomp(), _Traits::_Kfn(_Trynode->_Myval), _Keyval)) {

  002e3	73 05		 jae	 SHORT $LN91@SetSecretR

; 1635 :                 _Result._Location._Child = _Tree_child::_Right;
; 1636 :                 _Trynode                 = _Trynode->_Right;

  002e5	8b 40 08	 mov	 eax, DWORD PTR [eax+8]

; 1637 :             } else {

  002e8	eb 04		 jmp	 SHORT $LN92@SetSecretR
$LN91@SetSecretR:

; 1638 :                 _Result._Location._Child = _Tree_child::_Left;
; 1639 :                 _Result._Bound           = _Trynode;

  002ea	8b c8		 mov	 ecx, eax

; 1640 :                 _Trynode                 = _Trynode->_Left;

  002ec	8b 00		 mov	 eax, DWORD PTR [eax]
$LN92@SetSecretR:

; 1631 :         _Nodeptr _Trynode = _Result._Location._Parent;
; 1632 :         while (!_Trynode->_Isnil) {

  002ee	80 78 0d 00	 cmp	 BYTE PTR [eax+13], 0
  002f2	74 ec		 je	 SHORT $LL89@SetSecretR
$LN90@SetSecretR:

; 1624 :         return !_Bound->_Isnil && !_DEBUG_LT_PRED(_Getcomp(), _Keyval, _Traits::_Kfn(_Bound->_Myval));

  002f4	80 79 0d 00	 cmp	 BYTE PTR [ecx+13], 0
  002f8	75 05		 jne	 SHORT $LN86@SetSecretR
; File C:\Program Files\Microsoft Visual Studio\2022\Professional\VC\Tools\MSVC\14.44.35207\include\type_traits

; 2380 :         return _Left < _Right;

  002fa	3b 51 10	 cmp	 edx, DWORD PTR [ecx+16]
; File C:\Program Files\Microsoft Visual Studio\2022\Professional\VC\Tools\MSVC\14.44.35207\include\xtree

; 1624 :         return !_Bound->_Isnil && !_DEBUG_LT_PRED(_Getcomp(), _Keyval, _Traits::_Kfn(_Bound->_Myval));

  002fd	73 02		 jae	 SHORT $LN85@SetSecretR
$LN86@SetSecretR:

; 1389 :         return _Get_scary()->_Myhead;

  002ff	8b cf		 mov	 ecx, edi
$LN85@SetSecretR:

; 37   :     _Tree_unchecked_const_iterator(_Nodeptr _Pnode, const _Mytree* _Plist) noexcept : _Ptr(_Pnode) {

  00301	3b cf		 cmp	 ecx, edi
; File C:\IAGOS\server\v18\Source\Source\_Common\Project.h

; 1436 : 	if( i != m_idPlayerToUserPtr.end() )

  00303	74 2f		 je	 SHORT $LN7@SetSecretR

; 1437 : 		return i->second;

  00305	8b 71 14	 mov	 esi, DWORD PTR [ecx+20]
; File C:\IAGOS\server\v18\Source\Source\_Common\Obj.h

; 327  : 	return pObj && ( pObj->IsDelete() == FALSE ); 

  00308	85 f6		 test	 esi, esi
  0030a	74 28		 je	 SHORT $LN7@SetSecretR

; 180  : 	BOOL			IsDelete()	{ return (m_dwFlags & OBJ_FLAG_DELETE);  }

  0030c	f6 46 04 01	 test	 BYTE PTR [esi+4], 1

; 327  : 	return pObj && ( pObj->IsDelete() == FALSE ); 

  00310	75 22		 jne	 SHORT $LN7@SetSecretR
; File C:\IAGOS\server\v18\Source\Source\_Common\SecretRoom.cpp

; 1191 : 							if( IsValidObj( pUserTemp ) && CSecretRoomMng::GetInstance()->IsInTheSecretRoom( pUserTemp ) )

  00312	56		 push	 esi
  00313	e8 00 00 00 00	 call	 ?GetInstance@CSecretRoomMng@@SAPAV1@XZ ; CSecretRoomMng::GetInstance
  00318	8b c8		 mov	 ecx, eax
  0031a	e8 00 00 00 00	 call	 ?IsInTheSecretRoom@CSecretRoomMng@@QAEHPAVCMover@@@Z ; CSecretRoomMng::IsInTheSecretRoom
  0031f	85 c0		 test	 eax, eax
  00321	74 0b		 je	 SHORT $LN285@SetSecretR

; 1192 : 								SetTeleportBossRoom( pUserTemp, i );

  00323	ff 75 ec	 push	 DWORD PTR _i$1$[ebp]
  00326	8b cb		 mov	 ecx, ebx
  00328	56		 push	 esi
  00329	e8 00 00 00 00	 call	 ?SetTeleportBossRoom@CSecretRoomContinent@@QAEXPAVCUser@@H@Z ; CSecretRoomContinent::SetTeleportBossRoom
$LN285@SetSecretR:

; 1188 : 						for( DWORD j=0; j<m_vecSecretRoomTender[i].vecLineUpMember.size(); j++ )

  0032e	8b 3d 28 00 00
	00		 mov	 edi, DWORD PTR ?prj@@3VCProject@@A+40
$LN7@SetSecretR:
; File C:\Program Files\Microsoft Visual Studio\2022\Professional\VC\Tools\MSVC\14.44.35207\include\vector

; 1914 :         auto& _My_data = _Mypair._Myval2;

  00334	8b 4b 10	 mov	 ecx, DWORD PTR [ebx+16]

; 1915 :         return static_cast<size_type>(_My_data._Mylast - _My_data._Myfirst);

  00337	8b 45 f0	 mov	 eax, DWORD PTR tv1570[ebp]
  0033a	8b 75 f0	 mov	 esi, DWORD PTR tv1570[ebp]
; File C:\IAGOS\server\v18\Source\Source\_Common\SecretRoom.cpp

; 1188 : 						for( DWORD j=0; j<m_vecSecretRoomTender[i].vecLineUpMember.size(); j++ )

  0033d	8b 55 e8	 mov	 edx, DWORD PTR _j$1$[ebp]
  00340	42		 inc	 edx
; File C:\Program Files\Microsoft Visual Studio\2022\Professional\VC\Tools\MSVC\14.44.35207\include\vector

; 1915 :         return static_cast<size_type>(_My_data._Mylast - _My_data._Myfirst);

  00341	8b 44 08 18	 mov	 eax, DWORD PTR [eax+ecx+24]
  00345	2b 44 0e 14	 sub	 eax, DWORD PTR [esi+ecx+20]
  00349	c1 f8 02	 sar	 eax, 2
; File C:\IAGOS\server\v18\Source\Source\_Common\SecretRoom.cpp

; 1188 : 						for( DWORD j=0; j<m_vecSecretRoomTender[i].vecLineUpMember.size(); j++ )

  0034c	89 55 e8	 mov	 DWORD PTR _j$1$[ebp], edx
  0034f	3b d0		 cmp	 edx, eax
  00351	0f 82 70 ff ff
	ff		 jb	 $LL9@SetSecretR
  00357	8b fe		 mov	 edi, esi
$LN8@SetSecretR:

; 1193 : 						}
; 1194 : 						SetSecretRoomContKill( dwWorldId, NULL_ID, FALSE );

  00359	6a 00		 push	 0
  0035b	6a ff		 push	 -1
  0035d	ff 75 08	 push	 DWORD PTR _dwWorldId$[ebp]
  00360	8b cb		 mov	 ecx, ebx
  00362	e8 00 00 00 00	 call	 ?SetSecretRoomContKill@CSecretRoomContinent@@QAEXKKH@Z ; CSecretRoomContinent::SetSecretRoomContKill

; 1195 : 					}
; 1196 : 					break;

  00367	e9 c1 fe ff ff	 jmp	 $LN2@SetSecretR
$LN15@SetSecretR:

; 1172 : 			{
; 1173 : 				case MONSTER_NORMAL :
; 1174 : 					{
; 1175 : 						m_vecSecretRoomTender[i].nWarState = MONSTER_MIDBOSS;

  0036c	c7 41 10 02 00
	00 00		 mov	 DWORD PTR [ecx+16], 2

; 1176 : 						m_vecSecretRoomTender[i].vecMonster.assign( CSecretRoomMng::GetInstance()->m_vecMidBossMonster.begin(), CSecretRoomMng::GetInstance()->m_vecMidBossMonster.end() );

  00373	e8 00 00 00 00	 call	 ?GetInstance@CSecretRoomMng@@SAPAV1@XZ ; CSecretRoomMng::GetInstance
; File C:\Program Files\Microsoft Visual Studio\2022\Professional\VC\Tools\MSVC\14.44.35207\include\vector

; 46   :     _CONSTEXPR20 _Vector_const_iterator(_Tptr _Parg, const _Container_base* _Pvector) noexcept : _Ptr(_Parg) {

  00378	8b 70 5c	 mov	 esi, DWORD PTR [eax+92]
; File C:\IAGOS\server\v18\Source\Source\_Common\SecretRoom.cpp

; 1176 : 						m_vecSecretRoomTender[i].vecMonster.assign( CSecretRoomMng::GetInstance()->m_vecMidBossMonster.begin(), CSecretRoomMng::GetInstance()->m_vecMidBossMonster.end() );

  0037b	e8 00 00 00 00	 call	 ?GetInstance@CSecretRoomMng@@SAPAV1@XZ ; CSecretRoomMng::GetInstance
  00380	8b 4b 10	 mov	 ecx, DWORD PTR [ebx+16]
  00383	83 c1 20	 add	 ecx, 32			; 00000020H
  00386	03 cf		 add	 ecx, edi
; File C:\Program Files\Microsoft Visual Studio\2022\Professional\VC\Tools\MSVC\14.44.35207\include\vector

; 46   :     _CONSTEXPR20 _Vector_const_iterator(_Tptr _Parg, const _Container_base* _Pvector) noexcept : _Ptr(_Parg) {

  00388	8b 40 58	 mov	 eax, DWORD PTR [eax+88]

; 1486 :         auto _UFirst = _STD _Get_unwrapped(_First);

  0038b	2b f0		 sub	 esi, eax
; File C:\Program Files\Microsoft Visual Studio\2022\Professional\VC\Tools\MSVC\14.44.35207\include\xutility

; 1662 :         return _Last - _First; // assume the iterator will do debug checking

  0038d	c1 fe 05	 sar	 esi, 5
; File C:\Program Files\Microsoft Visual Studio\2022\Professional\VC\Tools\MSVC\14.44.35207\include\vector

; 1491 :             _Assign_counted_range(_UFirst, _Count);

  00390	56		 push	 esi
  00391	50		 push	 eax
  00392	e8 00 00 00 00	 call	 ??$_Assign_counted_range@PAU__SECRETROOM_MONSTER@@@?$vector@U__SECRETROOM_MONSTER@@V?$allocator@U__SECRETROOM_MONSTER@@@std@@@std@@AAEXPAU__SECRETROOM_MONSTER@@I@Z ; std::vector<__SECRETROOM_MONSTER,std::allocator<__SECRETROOM_MONSTER> >::_Assign_counted_range<__SECRETROOM_MONSTER *>
; File C:\IAGOS\server\v18\Source\Source\_Common\SecretRoom.cpp

; 1177 : 						UpdateInfoToAllMember( SECRETROOM_WARSTATE, i );

  00397	ff 75 ec	 push	 DWORD PTR _i$1$[ebp]
  0039a	8b cb		 mov	 ecx, ebx
  0039c	6a 03		 push	 3
  0039e	e8 00 00 00 00	 call	 ?UpdateInfoToAllMember@CSecretRoomContinent@@QAEXEH@Z ; CSecretRoomContinent::UpdateInfoToAllMember

; 1178 : 						SetSecretRoomContKill( dwWorldId, NULL_ID, FALSE );

  003a3	6a 00		 push	 0
  003a5	6a ff		 push	 -1
  003a7	ff 75 08	 push	 DWORD PTR _dwWorldId$[ebp]
  003aa	8b cb		 mov	 ecx, ebx
  003ac	e8 00 00 00 00	 call	 ?SetSecretRoomContKill@CSecretRoomContinent@@QAEXKKH@Z ; CSecretRoomContinent::SetSecretRoomContKill
  003b1	e9 77 fe ff ff	 jmp	 $LN2@SetSecretR
$LN270@SetSecretR:
; File C:\Program Files\Microsoft Visual Studio\2022\Professional\VC\Tools\MSVC\14.44.35207\atlmfc\include\atlsimpstr.h

; 209  : 		ATLENSURE( pStringMgr != NULL );

  003b6	68 05 40 00 80	 push	 -2147467259		; 80004005H
  003bb	e8 00 00 00 00	 call	 ?AtlThrowImpl@ATL@@YGXJ@Z ; ATL::AtlThrowImpl
$LN289@SetSecretR:
  003c0	cc		 int	 3
_TEXT	ENDS
;	COMDAT text$x
text$x	SEGMENT
__unwindfunclet$?SetSecretRoomContKill@CSecretRoomContinent@@QAEXKKH@Z$0:
  00000	8d 4d e8	 lea	 ecx, DWORD PTR _strTemp$5[ebp]
  00003	e9 00 00 00 00	 jmp	 ??1?$CStringT@DV?$StrTraitMFC@DV?$ChTraitsCRT@D@ATL@@@@@ATL@@QAE@XZ ; ATL::CStringT<char,StrTraitMFC<char,ATL::ChTraitsCRT<char> > >::~CStringT<char,StrTraitMFC<char,ATL::ChTraitsCRT<char> > >
__unwindfunclet$?SetSecretRoomContKill@CSecretRoomContinent@@QAEXKKH@Z$1:
  00008	8d 4d e4	 lea	 ecx, DWORD PTR $T4[ebp]
  0000b	e9 00 00 00 00	 jmp	 ??1?$CStringT@DV?$StrTraitMFC@DV?$ChTraitsCRT@D@ATL@@@@@ATL@@QAE@XZ ; ATL::CStringT<char,StrTraitMFC<char,ATL::ChTraitsCRT<char> > >::~CStringT<char,StrTraitMFC<char,ATL::ChTraitsCRT<char> > >
  00010	cc		 int	 3
  00011	cc		 int	 3
  00012	cc		 int	 3
  00013	cc		 int	 3
  00014	cc		 int	 3
__ehhandler$?SetSecretRoomContKill@CSecretRoomContinent@@QAEXKKH@Z:
  00015	90		 npad	 1
  00016	90		 npad	 1
  00017	8b 54 24 08	 mov	 edx, DWORD PTR [esp+8]
  0001b	8d 42 0c	 lea	 eax, DWORD PTR [edx+12]
  0001e	8b 4a d4	 mov	 ecx, DWORD PTR [edx-44]
  00021	33 c8		 xor	 ecx, eax
  00023	e8 00 00 00 00	 call	 @__security_check_cookie@4
  00028	b8 00 00 00 00	 mov	 eax, OFFSET __ehfuncinfo$?SetSecretRoomContKill@CSecretRoomContinent@@QAEXKKH@Z
  0002d	e9 00 00 00 00	 jmp	 ___CxxFrameHandler3
text$x	ENDS
?SetSecretRoomContKill@CSecretRoomContinent@@QAEXKKH@Z ENDP ; CSecretRoomContinent::SetSecretRoomContKill
; Function compile flags: /Ogtp
; File C:\IAGOS\server\v18\Source\Source\_Common\SecretRoom.cpp
; File C:\IAGOS\server\v18\Source\Source\_Common\Obj.h
; File C:\IAGOS\server\v18\Source\Source\_Common\SecretRoom.cpp
;	COMDAT ?RemoveAllSecretRoomObj@CSecretRoomContinent@@QAEXK@Z
_TEXT	SEGMENT
_dwWorldId$ = 8						; size = 4
_pWorld$1$ = 8						; size = 4
?RemoveAllSecretRoomObj@CSecretRoomContinent@@QAEXK@Z PROC ; CSecretRoomContinent::RemoveAllSecretRoomObj, COMDAT
; _this$ = ecx

; 1131 : {

  00000	55		 push	 ebp
  00001	8b ec		 mov	 ebp, esp
  00003	53		 push	 ebx

; 1132 : 	CWorld* pWorld = g_WorldMng.GetWorld( dwWorldId );

  00004	ff 75 08	 push	 DWORD PTR _dwWorldId$[ebp]
  00007	b9 00 00 00 00	 mov	 ecx, OFFSET ?g_WorldMng@@3VCWorldMng@@A ; g_WorldMng
  0000c	e8 00 00 00 00	 call	 ?GetWorld@CWorldMng@@QAEPAVCWorld@@K@Z ; CWorldMng::GetWorld
  00011	8b d8		 mov	 ebx, eax
  00013	89 5d 08	 mov	 DWORD PTR _pWorld$1$[ebp], ebx

; 1133 : 	if( !pWorld )

  00016	85 db		 test	 ebx, ebx
  00018	74 59		 je	 SHORT $LN3@RemoveAllS

; 1134 : 		return;
; 1135 : 
; 1136 : 	CObj* pObj;
; 1137 : 	for( DWORD i=0; i<pWorld->m_dwObjNum; i++ )

  0001a	57		 push	 edi
  0001b	33 ff		 xor	 edi, edi
  0001d	39 7b 40	 cmp	 DWORD PTR [ebx+64], edi
  00020	76 50		 jbe	 SHORT $LN25@RemoveAllS
  00022	83 c3 44	 add	 ebx, 68			; 00000044H
  00025	56		 push	 esi
$LL4@RemoveAllS:

; 1138 : 	{
; 1139 : 		pObj	= pWorld->m_apObject[i];

  00026	8b 33		 mov	 esi, DWORD PTR [ebx]

; 1140 : 		if( pObj && pObj->GetType() == OT_MOVER && !((CMover*)pObj)->IsPlayer() && pObj->GetProp()->dwAI != AII_EGG && pObj->GetProp()->dwAI != AII_PET && !pObj->IsDelete() )

  00028	85 f6		 test	 esi, esi
  0002a	74 3c		 je	 SHORT $LN2@RemoveAllS
  0002c	83 be 70 01 00
	00 05		 cmp	 DWORD PTR [esi+368], 5
  00033	75 33		 jne	 SHORT $LN2@RemoveAllS
  00035	83 be 30 02 00
	00 00		 cmp	 DWORD PTR [esi+560], 0
  0003c	75 2a		 jne	 SHORT $LN2@RemoveAllS
  0003e	8b ce		 mov	 ecx, esi
  00040	e8 00 00 00 00	 call	 ?GetPropA@CObj@@QAEPAUObjProp@@XZ ; CObj::GetPropA
  00045	83 78 48 09	 cmp	 DWORD PTR [eax+72], 9
  00049	74 1a		 je	 SHORT $LN16@RemoveAllS
  0004b	8b ce		 mov	 ecx, esi
  0004d	e8 00 00 00 00	 call	 ?GetPropA@CObj@@QAEPAUObjProp@@XZ ; CObj::GetPropA
  00052	83 78 48 05	 cmp	 DWORD PTR [eax+72], 5
  00056	74 0d		 je	 SHORT $LN16@RemoveAllS
; File C:\IAGOS\server\v18\Source\Source\_Common\Obj.h

; 180  : 	BOOL			IsDelete()	{ return (m_dwFlags & OBJ_FLAG_DELETE);  }

  00058	f6 46 04 01	 test	 BYTE PTR [esi+4], 1
; File C:\IAGOS\server\v18\Source\Source\_Common\SecretRoom.cpp

; 1140 : 		if( pObj && pObj->GetType() == OT_MOVER && !((CMover*)pObj)->IsPlayer() && pObj->GetProp()->dwAI != AII_EGG && pObj->GetProp()->dwAI != AII_PET && !pObj->IsDelete() )

  0005c	75 07		 jne	 SHORT $LN16@RemoveAllS

; 1141 : 			pObj->Delete();

  0005e	8b ce		 mov	 ecx, esi
  00060	e8 00 00 00 00	 call	 ?Delete@CObj@@QAEXXZ	; CObj::Delete
$LN16@RemoveAllS:

; 1134 : 		return;
; 1135 : 
; 1136 : 	CObj* pObj;
; 1137 : 	for( DWORD i=0; i<pWorld->m_dwObjNum; i++ )

  00065	8b 45 08	 mov	 eax, DWORD PTR _pWorld$1$[ebp]
$LN2@RemoveAllS:
  00068	47		 inc	 edi
  00069	83 c3 04	 add	 ebx, 4
  0006c	3b 78 40	 cmp	 edi, DWORD PTR [eax+64]
  0006f	72 b5		 jb	 SHORT $LL4@RemoveAllS
  00071	5e		 pop	 esi
$LN25@RemoveAllS:
  00072	5f		 pop	 edi
$LN3@RemoveAllS:
  00073	5b		 pop	 ebx

; 1142 : 	}
; 1143 : }

  00074	5d		 pop	 ebp
  00075	c2 04 00	 ret	 4
?RemoveAllSecretRoomObj@CSecretRoomContinent@@QAEXK@Z ENDP ; CSecretRoomContinent::RemoveAllSecretRoomObj
_TEXT	ENDS
; Function compile flags: /Ogtp
; File C:\IAGOS\server\v18\Source\Source\_Common\SecretRoom.cpp
; File C:\Program Files\Microsoft Visual Studio\2022\Professional\VC\Tools\MSVC\14.44.35207\include\vector
; File C:\IAGOS\server\v18\Source\Source\_Common\SecretRoom.cpp
; File C:\Program Files\Microsoft Visual Studio\2022\Professional\VC\Tools\MSVC\14.44.35207\include\vector
; File C:\IAGOS\server\v18\Source\Source\_Common\SecretRoom.cpp
; File C:\Program Files\Microsoft Visual Studio\2022\Professional\VC\Tools\MSVC\14.44.35207\include\vector
; File C:\IAGOS\server\v18\Source\Source\_Common\SecretRoom.cpp
; File C:\Program Files\Microsoft Visual Studio\2022\Professional\VC\Tools\MSVC\14.44.35207\include\vector
; File C:\IAGOS\server\v18\Source\Source\_Common\SecretRoom.cpp
; File C:\Program Files\Microsoft Visual Studio\2022\Professional\VC\Tools\MSVC\14.44.35207\include\vector
; File C:\IAGOS\server\v18\Source\Source\_Common\SecretRoom.cpp
; File C:\Program Files\Microsoft Visual Studio\2022\Professional\VC\Tools\MSVC\14.44.35207\include\vector
; File C:\IAGOS\server\v18\Source\Source\_Common\SecretRoom.cpp
; File C:\Program Files\Microsoft Visual Studio\2022\Professional\VC\Tools\MSVC\14.44.35207\include\vector
; File C:\IAGOS\server\v18\Source\Source\_Common\SecretRoom.cpp
; File C:\IAGOS\server\v18\Source\Source\_Common\Project.h
; File C:\IAGOS\server\v18\Source\Source\_Common\SecretRoom.cpp
; File C:\Program Files\Microsoft Visual Studio\2022\Professional\VC\Tools\MSVC\14.44.35207\include\vector
; File C:\Program Files\Microsoft Visual Studio\2022\Professional\VC\Tools\MSVC\14.44.35207\include\xutility
; File C:\Program Files\Microsoft Visual Studio\2022\Professional\VC\Tools\MSVC\14.44.35207\include\vector
; File C:\Program Files\Microsoft Visual Studio\2022\Professional\VC\Tools\MSVC\14.44.35207\include\xutility
; File C:\Program Files\Microsoft Visual Studio\2022\Professional\VC\Tools\MSVC\14.44.35207\include\vector
; File C:\Program Files\Microsoft Visual Studio\2022\Professional\VC\Tools\MSVC\14.44.35207\include\xutility
; File C:\Program Files\Microsoft Visual Studio\2022\Professional\VC\Tools\MSVC\14.44.35207\include\vector
; File C:\IAGOS\server\v18\Source\Source\_Common\SecretRoom.cpp
; File C:\Program Files\Microsoft Visual Studio\2022\Professional\VC\Tools\MSVC\14.44.35207\include\vector
; File C:\IAGOS\server\v18\Source\Source\_Common\SecretRoom.cpp
;	COMDAT ?CreateMonster@CSecretRoomContinent@@QAEXXZ
_TEXT	SEGMENT
_pWorld$1$ = -40					; size = 4
_this$GSCopy$1$ = -36					; size = 4
_i$1$ = -32						; size = 4
tv698 = -28						; size = 4
tv678 = -24						; size = 4
_nCount$1$ = -20					; size = 4
_j$1$ = -20						; size = 4
_vPos$1 = -16						; size = 12
__$ArrayPad$ = -4					; size = 4
?CreateMonster@CSecretRoomContinent@@QAEXXZ PROC	; CSecretRoomContinent::CreateMonster, COMDAT
; _this$ = ecx

; 1083 : {

  00000	55		 push	 ebp
  00001	8b ec		 mov	 ebp, esp
  00003	83 ec 28	 sub	 esp, 40			; 00000028H
  00006	a1 00 00 00 00	 mov	 eax, DWORD PTR ___security_cookie
  0000b	33 c5		 xor	 eax, ebp
  0000d	89 45 fc	 mov	 DWORD PTR __$ArrayPad$[ebp], eax
  00010	53		 push	 ebx
  00011	8b d9		 mov	 ebx, ecx
  00013	57		 push	 edi
  00014	89 5d dc	 mov	 DWORD PTR _this$GSCopy$1$[ebp], ebx

; 1084 : 	int nCount = CSecretRoomMng::GetInstance()->m_nMonsterGenNum;

  00017	e8 00 00 00 00	 call	 ?GetInstance@CSecretRoomMng@@SAPAV1@XZ ; CSecretRoomMng::GetInstance
; File C:\Program Files\Microsoft Visual Studio\2022\Professional\VC\Tools\MSVC\14.44.35207\include\vector

; 1915 :         return static_cast<size_type>(_My_data._Mylast - _My_data._Myfirst);

  0001c	8b 7b 10	 mov	 edi, DWORD PTR [ebx+16]
; File C:\IAGOS\server\v18\Source\Source\_Common\SecretRoom.cpp

; 1086 : 	for( DWORD i=0; i<m_vecSecretRoomTender.size(); i++ )

  0001f	33 c9		 xor	 ecx, ecx
  00021	89 4d e0	 mov	 DWORD PTR _i$1$[ebp], ecx
; File C:\Program Files\Microsoft Visual Studio\2022\Professional\VC\Tools\MSVC\14.44.35207\include\vector

; 1915 :         return static_cast<size_type>(_My_data._Mylast - _My_data._Myfirst);

  00024	8b 4b 14	 mov	 ecx, DWORD PTR [ebx+20]
; File C:\IAGOS\server\v18\Source\Source\_Common\SecretRoom.cpp

; 1084 : 	int nCount = CSecretRoomMng::GetInstance()->m_nMonsterGenNum;

  00027	8b 40 30	 mov	 eax, DWORD PTR [eax+48]
; File C:\Program Files\Microsoft Visual Studio\2022\Professional\VC\Tools\MSVC\14.44.35207\include\vector

; 1915 :         return static_cast<size_type>(_My_data._Mylast - _My_data._Myfirst);

  0002a	2b cf		 sub	 ecx, edi
; File C:\IAGOS\server\v18\Source\Source\_Common\SecretRoom.cpp

; 1084 : 	int nCount = CSecretRoomMng::GetInstance()->m_nMonsterGenNum;

  0002c	89 45 ec	 mov	 DWORD PTR _nCount$1$[ebp], eax
; File C:\Program Files\Microsoft Visual Studio\2022\Professional\VC\Tools\MSVC\14.44.35207\include\vector

; 1915 :         return static_cast<size_type>(_My_data._Mylast - _My_data._Myfirst);

  0002f	b8 e9 a2 8b 2e	 mov	 eax, 780903145		; 2e8ba2e9H
  00034	f7 e9		 imul	 ecx
  00036	c1 fa 03	 sar	 edx, 3
  00039	8b c2		 mov	 eax, edx
  0003b	c1 e8 1f	 shr	 eax, 31			; 0000001fH
  0003e	03 c2		 add	 eax, edx
; File C:\IAGOS\server\v18\Source\Source\_Common\SecretRoom.cpp

; 1086 : 	for( DWORD i=0; i<m_vecSecretRoomTender.size(); i++ )

  00040	0f 84 cd 01 00
	00		 je	 $LN89@CreateMons
  00046	33 db		 xor	 ebx, ebx
  00048	89 5d e8	 mov	 DWORD PTR tv678[ebp], ebx
  0004b	56		 push	 esi
  0004c	0f 1f 40 00	 npad	 4
$LL4@CreateMons:

; 1087 : 	{
; 1088 : 		if( m_vecSecretRoomTender[i].nWarState == MONSTER_FAILED )

  00050	83 7c 3b 10 00	 cmp	 DWORD PTR [ebx+edi+16], 0
  00055	0f 84 89 01 00
	00		 je	 $LN2@CreateMons
; File C:\Program Files\Microsoft Visual Studio\2022\Professional\VC\Tools\MSVC\14.44.35207\include\vector

; 1910 :         return _My_data._Myfirst == _My_data._Mylast;

  0005b	8b 74 3b 20	 mov	 esi, DWORD PTR [ebx+edi+32]
  0005f	3b 74 3b 24	 cmp	 esi, DWORD PTR [ebx+edi+36]
; File C:\IAGOS\server\v18\Source\Source\_Common\SecretRoom.cpp

; 1091 : 		if( m_vecSecretRoomTender[i].vecMonster.empty() )

  00063	0f 84 7b 01 00
	00		 je	 $LN2@CreateMons

; 1092 : 			continue;
; 1093 : 
; 1094 : 		vector<__SECRETROOM_MONSTER>::iterator it = m_vecSecretRoomTender[i].vecMonster.begin();
; 1095 : 		if( (*it).nNum < nCount )

  00069	8b 46 04	 mov	 eax, DWORD PTR [esi+4]

; 1098 : 		CWorld* pWorld = g_WorldMng.GetWorld( m_vecSecretRoomTender[i].dwWorldId );

  0006c	b9 00 00 00 00	 mov	 ecx, OFFSET ?g_WorldMng@@3VCWorldMng@@A ; g_WorldMng
; File C:\Program Files\Microsoft Visual Studio\2022\Professional\VC\Tools\MSVC\14.44.35207\include\vector

; 1934 :         return _My_data._Myfirst[_Pos];

  00071	3b 45 ec	 cmp	 eax, DWORD PTR _nCount$1$[ebp]
; File C:\IAGOS\server\v18\Source\Source\_Common\SecretRoom.cpp

; 1098 : 		CWorld* pWorld = g_WorldMng.GetWorld( m_vecSecretRoomTender[i].dwWorldId );

  00074	ff 74 3b 0c	 push	 DWORD PTR [ebx+edi+12]
; File C:\Program Files\Microsoft Visual Studio\2022\Professional\VC\Tools\MSVC\14.44.35207\include\vector

; 1934 :         return _My_data._Myfirst[_Pos];

  00078	0f 4d 45 ec	 cmovge	 eax, DWORD PTR _nCount$1$[ebp]
  0007c	89 45 e4	 mov	 DWORD PTR tv698[ebp], eax
; File C:\IAGOS\server\v18\Source\Source\_Common\SecretRoom.cpp

; 1098 : 		CWorld* pWorld = g_WorldMng.GetWorld( m_vecSecretRoomTender[i].dwWorldId );

  0007f	e8 00 00 00 00	 call	 ?GetWorld@CWorldMng@@QAEPAVCWorld@@K@Z ; CWorldMng::GetWorld
  00084	8b c8		 mov	 ecx, eax
  00086	8b 45 e4	 mov	 eax, DWORD PTR tv698[ebp]
  00089	89 4d d8	 mov	 DWORD PTR _pWorld$1$[ebp], ecx
  0008c	89 45 ec	 mov	 DWORD PTR _nCount$1$[ebp], eax

; 1099 : 		if( !pWorld )

  0008f	85 c9		 test	 ecx, ecx
  00091	0f 84 4d 01 00
	00		 je	 $LN2@CreateMons

; 1100 : 			continue;
; 1101 : 				
; 1102 : 		MoverProp* pMoverProp = prj.GetMoverPropEx( (*it).dwId );

  00097	8b 0e		 mov	 ecx, DWORD PTR [esi]
; File C:\IAGOS\server\v18\Source\Source\_Common\Project.h

; 1412 : 	if( nIndex < 0 || nIndex >= m_nMoverPropSize )

  00099	85 c9		 test	 ecx, ecx
  0009b	0f 88 15 01 00
	00		 js	 $LN6@CreateMons
  000a1	3b 0d b4 01 00
	00		 cmp	 ecx, DWORD PTR ?prj@@3VCProject@@A+436
  000a7	0f 8d 09 01 00
	00		 jge	 $LN6@CreateMons

; 1407 : 	return m_pPropMover + nIndex;

  000ad	69 d9 90 06 00
	00		 imul	 ebx, ecx, 1680
  000b3	03 1d b8 01 00
	00		 add	 ebx, DWORD PTR ?prj@@3VCProject@@A+440
; File C:\IAGOS\server\v18\Source\Source\_Common\SecretRoom.cpp

; 1103 : 		if( pMoverProp && pMoverProp->dwID != 0 )

  000b9	0f 84 f4 00 00
	00		 je	 $LN92@CreateMons
  000bf	83 3b 00	 cmp	 DWORD PTR [ebx], 0
  000c2	0f 84 eb 00 00
	00		 je	 $LN92@CreateMons

; 1104 : 		{
; 1105 : 			for( int j=0; j<nCount; j++ )

  000c8	c7 45 ec 00 00
	00 00		 mov	 DWORD PTR _j$1$[ebp], 0
  000cf	85 c0		 test	 eax, eax
  000d1	0f 8e dc 00 00
	00		 jle	 $LN92@CreateMons
$LL7@CreateMons:

; 1106 : 			{
; 1107 : 				CObj* pObj	= CreateObj( D3DDEVICE, OT_MOVER, pMoverProp->dwID );

  000d7	6a 01		 push	 1
  000d9	ff 33		 push	 DWORD PTR [ebx]
  000db	6a 05		 push	 5
  000dd	6a 00		 push	 0
  000df	e8 00 00 00 00	 call	 ?CreateObj@@YAPAVCObj@@PAUIDirect3DDevice9@@KKH@Z ; CreateObj
  000e4	8b f8		 mov	 edi, eax
  000e6	83 c4 10	 add	 esp, 16			; 00000010H

; 1108 : 				if( NULL == pObj )	

  000e9	85 ff		 test	 edi, edi
  000eb	0f 84 21 01 00
	00		 je	 $LN107@CreateMons

; 1109 : 					return;	
; 1110 : 				D3DXVECTOR3 vPos;
; 1111 : 				vPos.x = (float)( (*it).x1 < (*it).x2 ? xRandom( (*it).x1, (*it).x2 ) : xRandom( (*it).x2, (*it).x1 ) );

  000f1	8b 56 0c	 mov	 edx, DWORD PTR [esi+12]
  000f4	8b 4e 14	 mov	 ecx, DWORD PTR [esi+20]
  000f7	3b d1		 cmp	 edx, ecx
  000f9	7d 04		 jge	 SHORT $LN16@CreateMons
  000fb	8b c2		 mov	 eax, edx
  000fd	eb 04		 jmp	 SHORT $LN17@CreateMons
$LN16@CreateMons:
  000ff	8b c1		 mov	 eax, ecx
  00101	8b ca		 mov	 ecx, edx
$LN17@CreateMons:
  00103	51		 push	 ecx
  00104	50		 push	 eax
  00105	e8 00 00 00 00	 call	 ?xRandom@@YAKKK@Z	; xRandom

; 1112 : 				vPos.y = (float)( (*it).y );
; 1113 : 				vPos.z = (float)( (*it).z1 < (*it).z2 ? xRandom( (*it).z1, (*it).z2 ) : xRandom( (*it).z2, (*it).z1 ) );

  0010a	8b 4e 10	 mov	 ecx, DWORD PTR [esi+16]
  0010d	83 c4 08	 add	 esp, 8
  00110	66 0f 6e c0	 movd	 xmm0, eax
  00114	f3 0f e6 c0	 cvtdq2pd xmm0, xmm0
  00118	c1 e8 1f	 shr	 eax, 31			; 0000001fH
  0011b	f2 0f 58 04 c5
	00 00 00 00	 addsd	 xmm0, QWORD PTR __xmm@41f00000000000000000000000000000[eax*8]
  00124	8b 46 18	 mov	 eax, DWORD PTR [esi+24]
  00127	66 0f 5a c0	 cvtpd2ps xmm0, xmm0
  0012b	f3 0f 11 45 f0	 movss	 DWORD PTR _vPos$1[ebp], xmm0
  00130	66 0f 6e 46 1c	 movd	 xmm0, DWORD PTR [esi+28]
  00135	0f 5b c0	 cvtdq2ps xmm0, xmm0
  00138	f3 0f 11 45 f4	 movss	 DWORD PTR _vPos$1[ebp+4], xmm0
  0013d	3b c8		 cmp	 ecx, eax
  0013f	7d 04		 jge	 SHORT $LN18@CreateMons
  00141	8b d1		 mov	 edx, ecx
  00143	eb 04		 jmp	 SHORT $LN19@CreateMons
$LN18@CreateMons:
  00145	8b d0		 mov	 edx, eax
  00147	8b c1		 mov	 eax, ecx
$LN19@CreateMons:
  00149	50		 push	 eax
  0014a	52		 push	 edx
  0014b	e8 00 00 00 00	 call	 ?xRandom@@YAKKK@Z	; xRandom
  00150	83 c4 08	 add	 esp, 8

; 1114 : 
; 1115 : 				pObj->SetPos( vPos );

  00153	8b cf		 mov	 ecx, edi
  00155	66 0f 6e c0	 movd	 xmm0, eax
  00159	f3 0f e6 c0	 cvtdq2pd xmm0, xmm0
  0015d	c1 e8 1f	 shr	 eax, 31			; 0000001fH
  00160	f2 0f 58 04 c5
	00 00 00 00	 addsd	 xmm0, QWORD PTR __xmm@41f00000000000000000000000000000[eax*8]
  00169	8d 45 f0	 lea	 eax, DWORD PTR _vPos$1[ebp]
  0016c	50		 push	 eax
  0016d	66 0f 5a c0	 cvtpd2ps xmm0, xmm0
  00171	f3 0f 11 45 f8	 movss	 DWORD PTR _vPos$1[ebp+8], xmm0
  00176	e8 00 00 00 00	 call	 ?SetPos@CObj@@QAEXABUD3DXVECTOR3@@@Z ; CObj::SetPos

; 1116 : 				pObj->InitMotion( MTI_STAND );

  0017b	8b 07		 mov	 eax, DWORD PTR [edi]
  0017d	8b cf		 mov	 ecx, edi
  0017f	6a 00		 push	 0
  00181	ff 50 08	 call	 DWORD PTR [eax+8]

; 1117 : 				pObj->UpdateLocalMatrix();

  00184	8b cf		 mov	 ecx, edi
  00186	e8 00 00 00 00	 call	 ?UpdateLocalMatrix@CObj@@QAEXXZ ; CObj::UpdateLocalMatrix

; 1118 : 
; 1119 : 				((CMover*)pObj)->m_bActiveAttack =(*it).bRed;

  0018b	8b 46 08	 mov	 eax, DWORD PTR [esi+8]

; 1120 : 				pWorld->ADDOBJ( pObj, TRUE, nDefaultLayer );

  0018e	8b 4d d8	 mov	 ecx, DWORD PTR _pWorld$1$[ebp]
  00191	6a 00		 push	 0
  00193	6a 01		 push	 1
  00195	57		 push	 edi
  00196	89 87 68 06 00
	00		 mov	 DWORD PTR [edi+1640], eax
  0019c	e8 00 00 00 00	 call	 ?AddObj@CWorld@@QAEHPAVCObj@@HH@Z ; CWorld::AddObj
  001a1	8b 4d ec	 mov	 ecx, DWORD PTR _j$1$[ebp]
  001a4	8b 45 e4	 mov	 eax, DWORD PTR tv698[ebp]
  001a7	41		 inc	 ecx
  001a8	89 4d ec	 mov	 DWORD PTR _j$1$[ebp], ecx
  001ab	3b c8		 cmp	 ecx, eax
  001ad	0f 8c 24 ff ff
	ff		 jl	 $LL7@CreateMons
$LN92@CreateMons:

; 1121 : 			}
; 1122 : 		}
; 1123 : 		(*it).nNum -= nCount;

  001b3	8b 5d e8	 mov	 ebx, DWORD PTR tv678[ebp]
$LN6@CreateMons:
  001b6	29 46 04	 sub	 DWORD PTR [esi+4], eax

; 1124 : 		if( (*it).nNum <= 0 )

  001b9	83 7e 04 00	 cmp	 DWORD PTR [esi+4], 0
  001bd	89 45 ec	 mov	 DWORD PTR _nCount$1$[ebp], eax
  001c0	7f 22		 jg	 SHORT $LN2@CreateMons
; File C:\Program Files\Microsoft Visual Studio\2022\Professional\VC\Tools\MSVC\14.44.35207\include\vector

; 1766 :         pointer& _Mylast        = _My_data._Mylast;

  001c2	8b 7d dc	 mov	 edi, DWORD PTR _this$GSCopy$1$[ebp]
; File C:\Program Files\Microsoft Visual Studio\2022\Professional\VC\Tools\MSVC\14.44.35207\include\xutility

; 5147 :                 return _STD _Copy_memmove(_First, _Last, _Dest);

  001c5	56		 push	 esi
; File C:\Program Files\Microsoft Visual Studio\2022\Professional\VC\Tools\MSVC\14.44.35207\include\vector

; 1775 :         _STD _Move_unchecked(_Whereptr + 1, _Mylast, _Whereptr);

  001c6	83 c6 20	 add	 esi, 32			; 00000020H
  001c9	8b 7f 10	 mov	 edi, DWORD PTR [edi+16]
; File C:\Program Files\Microsoft Visual Studio\2022\Professional\VC\Tools\MSVC\14.44.35207\include\xutility

; 5147 :                 return _STD _Copy_memmove(_First, _Last, _Dest);

  001cc	ff 74 3b 24	 push	 DWORD PTR [ebx+edi+36]
  001d0	56		 push	 esi
  001d1	e8 00 00 00 00	 call	 ??$_Copy_memmove@PAU__SECRETROOM_MONSTER@@PAU1@@std@@YAPAU__SECRETROOM_MONSTER@@PAU1@00@Z ; std::_Copy_memmove<__SECRETROOM_MONSTER *,__SECRETROOM_MONSTER *>
; File C:\Program Files\Microsoft Visual Studio\2022\Professional\VC\Tools\MSVC\14.44.35207\include\vector

; 1778 :         --_Mylast;

  001d6	8b 75 e4	 mov	 esi, DWORD PTR tv698[ebp]
; File C:\Program Files\Microsoft Visual Studio\2022\Professional\VC\Tools\MSVC\14.44.35207\include\xutility

; 5147 :                 return _STD _Copy_memmove(_First, _Last, _Dest);

  001d9	83 c4 0c	 add	 esp, 12			; 0000000cH
; File C:\Program Files\Microsoft Visual Studio\2022\Professional\VC\Tools\MSVC\14.44.35207\include\vector

; 1778 :         --_Mylast;

  001dc	83 44 3b 24 e0	 add	 DWORD PTR [ebx+edi+36], -32 ; ffffffe0H
  001e1	89 75 ec	 mov	 DWORD PTR _nCount$1$[ebp], esi
$LN2@CreateMons:

; 1915 :         return static_cast<size_type>(_My_data._Mylast - _My_data._Myfirst);

  001e4	8b 45 dc	 mov	 eax, DWORD PTR _this$GSCopy$1$[ebp]
; File C:\IAGOS\server\v18\Source\Source\_Common\SecretRoom.cpp

; 1086 : 	for( DWORD i=0; i<m_vecSecretRoomTender.size(); i++ )

  001e7	83 c3 2c	 add	 ebx, 44			; 0000002cH
  001ea	ff 45 e0	 inc	 DWORD PTR _i$1$[ebp]
  001ed	89 5d e8	 mov	 DWORD PTR tv678[ebp], ebx
; File C:\Program Files\Microsoft Visual Studio\2022\Professional\VC\Tools\MSVC\14.44.35207\include\vector

; 1915 :         return static_cast<size_type>(_My_data._Mylast - _My_data._Myfirst);

  001f0	8b 48 14	 mov	 ecx, DWORD PTR [eax+20]
  001f3	8b 78 10	 mov	 edi, DWORD PTR [eax+16]
  001f6	2b cf		 sub	 ecx, edi
  001f8	b8 e9 a2 8b 2e	 mov	 eax, 780903145		; 2e8ba2e9H
  001fd	f7 e9		 imul	 ecx
  001ff	c1 fa 03	 sar	 edx, 3
  00202	8b c2		 mov	 eax, edx
  00204	c1 e8 1f	 shr	 eax, 31			; 0000001fH
  00207	03 c2		 add	 eax, edx
; File C:\IAGOS\server\v18\Source\Source\_Common\SecretRoom.cpp

; 1086 : 	for( DWORD i=0; i<m_vecSecretRoomTender.size(); i++ )

  00209	39 45 e0	 cmp	 DWORD PTR _i$1$[ebp], eax
  0020c	0f 82 3e fe ff
	ff		 jb	 $LL4@CreateMons
$LN107@CreateMons:
  00212	5e		 pop	 esi
$LN89@CreateMons:

; 1125 : 			m_vecSecretRoomTender[i].vecMonster.erase(it);
; 1126 : 	}
; 1127 : }

  00213	8b 4d fc	 mov	 ecx, DWORD PTR __$ArrayPad$[ebp]
  00216	5f		 pop	 edi
  00217	33 cd		 xor	 ecx, ebp
  00219	5b		 pop	 ebx
  0021a	e8 00 00 00 00	 call	 @__security_check_cookie@4
  0021f	8b e5		 mov	 esp, ebp
  00221	5d		 pop	 ebp
  00222	c3		 ret	 0
?CreateMonster@CSecretRoomContinent@@QAEXXZ ENDP	; CSecretRoomContinent::CreateMonster
_TEXT	ENDS
; Function compile flags: /Ogtp
; File C:\IAGOS\server\v18\Source\Source\_Common\SecretRoom.cpp
; File C:\IAGOS\server\v18\Source\Source\_Common\xUtil.h
; File C:\IAGOS\server\v18\Source\Source\_Common\SecretRoom.cpp
; File C:\IAGOS\server\v18\Source\Source\_Common\xUtil.h
; File C:\IAGOS\server\v18\Source\Source\_Common\SecretRoom.cpp
; File C:\IAGOS\server\v18\Source\Source\_Common\xUtil.h
; File C:\IAGOS\server\v18\Source\Source\_Common\SecretRoom.cpp
; File C:\IAGOS\server\v18\Source\Source\_Common\xUtil.h
; File C:\Program Files\Microsoft Visual Studio\2022\Professional\VC\Tools\MSVC\14.44.35207\include\vector
; File C:\IAGOS\server\v18\Source\Source\_Common\SecretRoom.cpp
; File C:\IAGOS\server\v18\Source\Source\DX_SDK\d3dx9math.inl
; File C:\IAGOS\server\v18\Source\Source\_Common\SecretRoom.cpp
; File C:\IAGOS\server\v18\Source\Source\_Common\xUtil.h
; File C:\IAGOS\server\v18\Source\Source\_Common\SecretRoom.cpp
; File C:\IAGOS\server\v18\Source\Source\DX_SDK\d3dx9math.inl
; File C:\IAGOS\server\v18\Source\Source\_Common\SecretRoom.cpp
; File C:\IAGOS\server\v18\Source\Source\DX_SDK\d3dx9math.inl
; File C:\IAGOS\server\v18\Source\Source\_Common\SecretRoom.cpp
;	COMDAT ?SetTeleportBossRoom@CSecretRoomContinent@@QAEXPAVCUser@@H@Z
_TEXT	SEGMENT
_pUser$GSCopy$1$ = -24					; size = 4
_this$GSCopy$1$ = -20					; size = 4
$T1 = -16						; size = 12
__$ArrayPad$ = -4					; size = 4
_pUser$ = 8						; size = 4
_nIndex$ = 12						; size = 4
?SetTeleportBossRoom@CSecretRoomContinent@@QAEXPAVCUser@@H@Z PROC ; CSecretRoomContinent::SetTeleportBossRoom, COMDAT
; _this$ = ecx

; 1072 : {

  00000	55		 push	 ebp
  00001	8b ec		 mov	 ebp, esp
  00003	83 ec 18	 sub	 esp, 24			; 00000018H
  00006	a1 00 00 00 00	 mov	 eax, DWORD PTR ___security_cookie
  0000b	33 c5		 xor	 eax, ebp
  0000d	89 45 fc	 mov	 DWORD PTR __$ArrayPad$[ebp], eax
  00010	53		 push	 ebx
  00011	8b 5d 0c	 mov	 ebx, DWORD PTR _nIndex$[ebp]
  00014	56		 push	 esi
; File C:\IAGOS\server\v18\Source\Source\_Common\xUtil.h

; 16   : 	g_next = g_next * 1103515245 + 12345;// + nRandomSeed[ i++ ];

  00015	69 35 00 00 00
	00 6d 4e c6 41	 imul	 esi, DWORD PTR ?g_next@@3KA, 1103515245 ; g_next
; File C:\IAGOS\server\v18\Source\Source\_Common\SecretRoom.cpp

; 1072 : {

  0001f	57		 push	 edi
  00020	89 4d ec	 mov	 DWORD PTR _this$GSCopy$1$[ebp], ecx
  00023	8b 4d 08	 mov	 ecx, DWORD PTR _pUser$[ebp]

; 1076 : 	pUser->SetAngle( 180.0f );

  00026	51		 push	 ecx
; File C:\IAGOS\server\v18\Source\Source\_Common\xUtil.h

; 16   : 	g_next = g_next * 1103515245 + 12345;// + nRandomSeed[ i++ ];

  00027	81 c6 39 30 00
	00		 add	 esi, 12345		; 00003039H
; File C:\IAGOS\server\v18\Source\Source\_Common\SecretRoom.cpp

; 1072 : {

  0002d	89 4d e8	 mov	 DWORD PTR _pUser$GSCopy$1$[ebp], ecx

; 1073 : 	int nRandx = xRandom(4) - 2;

  00030	69 fe 6d 4e c6
	41		 imul	 edi, esi, 1103515245

; 1076 : 	pUser->SetAngle( 180.0f );

  00036	c7 04 24 00 00
	34 43		 mov	 DWORD PTR [esp], 1127481344 ; 43340000H
; File C:\IAGOS\server\v18\Source\Source\_Common\xUtil.h

; 16   : 	g_next = g_next * 1103515245 + 12345;// + nRandomSeed[ i++ ];

  0003d	81 c7 39 30 00
	00		 add	 edi, 12345		; 00003039H
  00043	89 3d 00 00 00
	00		 mov	 DWORD PTR ?g_next@@3KA, edi ; g_next
; File C:\IAGOS\server\v18\Source\Source\_Common\SecretRoom.cpp

; 1076 : 	pUser->SetAngle( 180.0f );

  00049	e8 00 00 00 00	 call	 ?SetAngle@CObj@@QAEXM@Z	; CObj::SetAngle

; 1077 : 	pUser->REPLACE( g_uIdofMulti, m_vecSecretRoomTender[nIndex].dwWorldId, D3DXVECTOR3( (float)( 600 + nRandx ), (float)( 102 ), (float)( 310 + nRandz ) ), REPLACE_NORMAL, nDefaultLayer );

  0004e	8b 4d e8	 mov	 ecx, DWORD PTR _pUser$GSCopy$1$[ebp]
  00051	8d 45 f0	 lea	 eax, DWORD PTR $T1[ebp]
; File C:\IAGOS\server\v18\Source\Source\_Common\xUtil.h

; 16   : 	g_next = g_next * 1103515245 + 12345;// + nRandomSeed[ i++ ];

  00054	83 e6 03	 and	 esi, 3
; File C:\Program Files\Microsoft Visual Studio\2022\Professional\VC\Tools\MSVC\14.44.35207\include\vector

; 1934 :         return _My_data._Myfirst[_Pos];

  00057	6b d3 2c	 imul	 edx, ebx, 44
; File C:\IAGOS\server\v18\Source\Source\_Common\SecretRoom.cpp

; 1077 : 	pUser->REPLACE( g_uIdofMulti, m_vecSecretRoomTender[nIndex].dwWorldId, D3DXVECTOR3( (float)( 600 + nRandx ), (float)( 102 ), (float)( 310 + nRandz ) ), REPLACE_NORMAL, nDefaultLayer );

  0005a	81 c6 56 02 00
	00		 add	 esi, 598		; 00000256H
; File C:\IAGOS\server\v18\Source\Source\DX_SDK\d3dx9math.inl

; 301  :     y = fy;

  00060	c7 45 f4 00 00
	cc 42		 mov	 DWORD PTR $T1[ebp+4], 1120665600 ; 42cc0000H
; File C:\IAGOS\server\v18\Source\Source\_Common\SecretRoom.cpp

; 1077 : 	pUser->REPLACE( g_uIdofMulti, m_vecSecretRoomTender[nIndex].dwWorldId, D3DXVECTOR3( (float)( 600 + nRandx ), (float)( 102 ), (float)( 310 + nRandz ) ), REPLACE_NORMAL, nDefaultLayer );

  00067	6a 00		 push	 0
; File C:\IAGOS\server\v18\Source\Source\_Common\xUtil.h

; 16   : 	g_next = g_next * 1103515245 + 12345;// + nRandomSeed[ i++ ];

  00069	83 e7 03	 and	 edi, 3
; File C:\IAGOS\server\v18\Source\Source\_Common\SecretRoom.cpp

; 1077 : 	pUser->REPLACE( g_uIdofMulti, m_vecSecretRoomTender[nIndex].dwWorldId, D3DXVECTOR3( (float)( 600 + nRandx ), (float)( 102 ), (float)( 310 + nRandz ) ), REPLACE_NORMAL, nDefaultLayer );

  0006c	6a 00		 push	 0
  0006e	66 0f 6e c6	 movd	 xmm0, esi
  00072	81 c7 34 01 00
	00		 add	 edi, 308		; 00000134H
  00078	0f 5b c0	 cvtdq2ps xmm0, xmm0
  0007b	50		 push	 eax
  0007c	8b 45 ec	 mov	 eax, DWORD PTR _this$GSCopy$1$[ebp]
  0007f	8b 40 10	 mov	 eax, DWORD PTR [eax+16]
; File C:\IAGOS\server\v18\Source\Source\DX_SDK\d3dx9math.inl

; 300  :     x = fx;

  00082	f3 0f 11 45 f0	 movss	 DWORD PTR $T1[ebp], xmm0
  00087	66 0f 6e c7	 movd	 xmm0, edi
; File C:\IAGOS\server\v18\Source\Source\_Common\SecretRoom.cpp

; 1077 : 	pUser->REPLACE( g_uIdofMulti, m_vecSecretRoomTender[nIndex].dwWorldId, D3DXVECTOR3( (float)( 600 + nRandx ), (float)( 102 ), (float)( 310 + nRandz ) ), REPLACE_NORMAL, nDefaultLayer );

  0008b	0f 5b c0	 cvtdq2ps xmm0, xmm0
; File C:\IAGOS\server\v18\Source\Source\DX_SDK\d3dx9math.inl

; 302  :     z = fz;

  0008e	f3 0f 11 45 f8	 movss	 DWORD PTR $T1[ebp+8], xmm0
; File C:\IAGOS\server\v18\Source\Source\_Common\SecretRoom.cpp

; 1077 : 	pUser->REPLACE( g_uIdofMulti, m_vecSecretRoomTender[nIndex].dwWorldId, D3DXVECTOR3( (float)( 600 + nRandx ), (float)( 102 ), (float)( 310 + nRandz ) ), REPLACE_NORMAL, nDefaultLayer );

  00093	ff 74 02 0c	 push	 DWORD PTR [edx+eax+12]
  00097	ff 35 00 00 00
	00		 push	 DWORD PTR ?g_uIdofMulti@@3KA ; g_uIdofMulti
  0009d	e8 00 00 00 00	 call	 ?Replace@CMover@@QAEHKKAAUD3DXVECTOR3@@W4REPLACE_TYPE@@H@Z ; CMover::Replace

; 1078 : }

  000a2	8b 4d fc	 mov	 ecx, DWORD PTR __$ArrayPad$[ebp]
  000a5	5f		 pop	 edi
  000a6	5e		 pop	 esi
  000a7	33 cd		 xor	 ecx, ebp
  000a9	5b		 pop	 ebx
  000aa	e8 00 00 00 00	 call	 @__security_check_cookie@4
  000af	8b e5		 mov	 esp, ebp
  000b1	5d		 pop	 ebp
  000b2	c2 08 00	 ret	 8
?SetTeleportBossRoom@CSecretRoomContinent@@QAEXPAVCUser@@H@Z ENDP ; CSecretRoomContinent::SetTeleportBossRoom
_TEXT	ENDS
; Function compile flags: /Ogtp
; File C:\IAGOS\server\v18\Source\Source\_Common\SecretRoom.cpp
; File C:\IAGOS\server\v18\Source\Source\_Common\xUtil.h
; File C:\IAGOS\server\v18\Source\Source\_Common\SecretRoom.cpp
; File C:\IAGOS\server\v18\Source\Source\_Common\xUtil.h
; File C:\IAGOS\server\v18\Source\Source\_Common\SecretRoom.cpp
; File C:\IAGOS\server\v18\Source\Source\_Common\xUtil.h
; File C:\IAGOS\server\v18\Source\Source\_Common\SecretRoom.cpp
; File C:\IAGOS\server\v18\Source\Source\_Common\xUtil.h
; File C:\Program Files\Microsoft Visual Studio\2022\Professional\VC\Tools\MSVC\14.44.35207\include\vector
; File C:\IAGOS\server\v18\Source\Source\_Common\SecretRoom.cpp
; File C:\IAGOS\server\v18\Source\Source\DX_SDK\d3dx9math.inl
; File C:\IAGOS\server\v18\Source\Source\_Common\SecretRoom.cpp
; File C:\IAGOS\server\v18\Source\Source\_Common\xUtil.h
; File C:\IAGOS\server\v18\Source\Source\_Common\SecretRoom.cpp
; File C:\IAGOS\server\v18\Source\Source\DX_SDK\d3dx9math.inl
; File C:\IAGOS\server\v18\Source\Source\_Common\SecretRoom.cpp
; File C:\IAGOS\server\v18\Source\Source\DX_SDK\d3dx9math.inl
; File C:\IAGOS\server\v18\Source\Source\_Common\SecretRoom.cpp
;	COMDAT ?SetTeleportNormalRoom@CSecretRoomContinent@@QAEXPAVCUser@@H@Z
_TEXT	SEGMENT
_pUser$GSCopy$1$ = -24					; size = 4
_this$GSCopy$1$ = -20					; size = 4
$T1 = -16						; size = 12
__$ArrayPad$ = -4					; size = 4
_pUser$ = 8						; size = 4
_nIndex$ = 12						; size = 4
?SetTeleportNormalRoom@CSecretRoomContinent@@QAEXPAVCUser@@H@Z PROC ; CSecretRoomContinent::SetTeleportNormalRoom, COMDAT
; _this$ = ecx

; 1061 : {

  00000	55		 push	 ebp
  00001	8b ec		 mov	 ebp, esp
  00003	83 ec 18	 sub	 esp, 24			; 00000018H
  00006	a1 00 00 00 00	 mov	 eax, DWORD PTR ___security_cookie
  0000b	33 c5		 xor	 eax, ebp
  0000d	89 45 fc	 mov	 DWORD PTR __$ArrayPad$[ebp], eax
  00010	53		 push	 ebx
  00011	8b 5d 0c	 mov	 ebx, DWORD PTR _nIndex$[ebp]
  00014	56		 push	 esi
; File C:\IAGOS\server\v18\Source\Source\_Common\xUtil.h

; 16   : 	g_next = g_next * 1103515245 + 12345;// + nRandomSeed[ i++ ];

  00015	69 35 00 00 00
	00 6d 4e c6 41	 imul	 esi, DWORD PTR ?g_next@@3KA, 1103515245 ; g_next
; File C:\IAGOS\server\v18\Source\Source\_Common\SecretRoom.cpp

; 1061 : {

  0001f	57		 push	 edi
  00020	89 4d ec	 mov	 DWORD PTR _this$GSCopy$1$[ebp], ecx
  00023	8b 4d 08	 mov	 ecx, DWORD PTR _pUser$[ebp]

; 1065 : 	pUser->SetAngle( 180.0f );

  00026	51		 push	 ecx
; File C:\IAGOS\server\v18\Source\Source\_Common\xUtil.h

; 16   : 	g_next = g_next * 1103515245 + 12345;// + nRandomSeed[ i++ ];

  00027	81 c6 39 30 00
	00		 add	 esi, 12345		; 00003039H
; File C:\IAGOS\server\v18\Source\Source\_Common\SecretRoom.cpp

; 1061 : {

  0002d	89 4d e8	 mov	 DWORD PTR _pUser$GSCopy$1$[ebp], ecx

; 1062 : 	int nRandx = xRandom(4) - 2;

  00030	69 fe 6d 4e c6
	41		 imul	 edi, esi, 1103515245

; 1065 : 	pUser->SetAngle( 180.0f );

  00036	c7 04 24 00 00
	34 43		 mov	 DWORD PTR [esp], 1127481344 ; 43340000H
; File C:\IAGOS\server\v18\Source\Source\_Common\xUtil.h

; 16   : 	g_next = g_next * 1103515245 + 12345;// + nRandomSeed[ i++ ];

  0003d	81 c7 39 30 00
	00		 add	 edi, 12345		; 00003039H
  00043	89 3d 00 00 00
	00		 mov	 DWORD PTR ?g_next@@3KA, edi ; g_next
; File C:\IAGOS\server\v18\Source\Source\_Common\SecretRoom.cpp

; 1065 : 	pUser->SetAngle( 180.0f );

  00049	e8 00 00 00 00	 call	 ?SetAngle@CObj@@QAEXM@Z	; CObj::SetAngle

; 1066 : 	pUser->REPLACE( g_uIdofMulti, m_vecSecretRoomTender[nIndex].dwWorldId, D3DXVECTOR3( (float)( 295 + nRandx ), (float)( 102 ), (float)( 530 + nRandz ) ), REPLACE_NORMAL, nDefaultLayer );

  0004e	8b 4d e8	 mov	 ecx, DWORD PTR _pUser$GSCopy$1$[ebp]
  00051	8d 45 f0	 lea	 eax, DWORD PTR $T1[ebp]
; File C:\IAGOS\server\v18\Source\Source\_Common\xUtil.h

; 16   : 	g_next = g_next * 1103515245 + 12345;// + nRandomSeed[ i++ ];

  00054	83 e6 03	 and	 esi, 3
; File C:\Program Files\Microsoft Visual Studio\2022\Professional\VC\Tools\MSVC\14.44.35207\include\vector

; 1934 :         return _My_data._Myfirst[_Pos];

  00057	6b d3 2c	 imul	 edx, ebx, 44
; File C:\IAGOS\server\v18\Source\Source\_Common\SecretRoom.cpp

; 1066 : 	pUser->REPLACE( g_uIdofMulti, m_vecSecretRoomTender[nIndex].dwWorldId, D3DXVECTOR3( (float)( 295 + nRandx ), (float)( 102 ), (float)( 530 + nRandz ) ), REPLACE_NORMAL, nDefaultLayer );

  0005a	81 c6 25 01 00
	00		 add	 esi, 293		; 00000125H
; File C:\IAGOS\server\v18\Source\Source\DX_SDK\d3dx9math.inl

; 301  :     y = fy;

  00060	c7 45 f4 00 00
	cc 42		 mov	 DWORD PTR $T1[ebp+4], 1120665600 ; 42cc0000H
; File C:\IAGOS\server\v18\Source\Source\_Common\SecretRoom.cpp

; 1066 : 	pUser->REPLACE( g_uIdofMulti, m_vecSecretRoomTender[nIndex].dwWorldId, D3DXVECTOR3( (float)( 295 + nRandx ), (float)( 102 ), (float)( 530 + nRandz ) ), REPLACE_NORMAL, nDefaultLayer );

  00067	6a 00		 push	 0
; File C:\IAGOS\server\v18\Source\Source\_Common\xUtil.h

; 16   : 	g_next = g_next * 1103515245 + 12345;// + nRandomSeed[ i++ ];

  00069	83 e7 03	 and	 edi, 3
; File C:\IAGOS\server\v18\Source\Source\_Common\SecretRoom.cpp

; 1066 : 	pUser->REPLACE( g_uIdofMulti, m_vecSecretRoomTender[nIndex].dwWorldId, D3DXVECTOR3( (float)( 295 + nRandx ), (float)( 102 ), (float)( 530 + nRandz ) ), REPLACE_NORMAL, nDefaultLayer );

  0006c	6a 00		 push	 0
  0006e	66 0f 6e c6	 movd	 xmm0, esi
  00072	81 c7 10 02 00
	00		 add	 edi, 528		; 00000210H
  00078	0f 5b c0	 cvtdq2ps xmm0, xmm0
  0007b	50		 push	 eax
  0007c	8b 45 ec	 mov	 eax, DWORD PTR _this$GSCopy$1$[ebp]
  0007f	8b 40 10	 mov	 eax, DWORD PTR [eax+16]
; File C:\IAGOS\server\v18\Source\Source\DX_SDK\d3dx9math.inl

; 300  :     x = fx;

  00082	f3 0f 11 45 f0	 movss	 DWORD PTR $T1[ebp], xmm0
  00087	66 0f 6e c7	 movd	 xmm0, edi
; File C:\IAGOS\server\v18\Source\Source\_Common\SecretRoom.cpp

; 1066 : 	pUser->REPLACE( g_uIdofMulti, m_vecSecretRoomTender[nIndex].dwWorldId, D3DXVECTOR3( (float)( 295 + nRandx ), (float)( 102 ), (float)( 530 + nRandz ) ), REPLACE_NORMAL, nDefaultLayer );

  0008b	0f 5b c0	 cvtdq2ps xmm0, xmm0
; File C:\IAGOS\server\v18\Source\Source\DX_SDK\d3dx9math.inl

; 302  :     z = fz;

  0008e	f3 0f 11 45 f8	 movss	 DWORD PTR $T1[ebp+8], xmm0
; File C:\IAGOS\server\v18\Source\Source\_Common\SecretRoom.cpp

; 1066 : 	pUser->REPLACE( g_uIdofMulti, m_vecSecretRoomTender[nIndex].dwWorldId, D3DXVECTOR3( (float)( 295 + nRandx ), (float)( 102 ), (float)( 530 + nRandz ) ), REPLACE_NORMAL, nDefaultLayer );

  00093	ff 74 02 0c	 push	 DWORD PTR [edx+eax+12]
  00097	ff 35 00 00 00
	00		 push	 DWORD PTR ?g_uIdofMulti@@3KA ; g_uIdofMulti
  0009d	e8 00 00 00 00	 call	 ?Replace@CMover@@QAEHKKAAUD3DXVECTOR3@@W4REPLACE_TYPE@@H@Z ; CMover::Replace

; 1067 : }

  000a2	8b 4d fc	 mov	 ecx, DWORD PTR __$ArrayPad$[ebp]
  000a5	5f		 pop	 edi
  000a6	5e		 pop	 esi
  000a7	33 cd		 xor	 ecx, ebp
  000a9	5b		 pop	 ebx
  000aa	e8 00 00 00 00	 call	 @__security_check_cookie@4
  000af	8b e5		 mov	 esp, ebp
  000b1	5d		 pop	 ebp
  000b2	c2 08 00	 ret	 8
?SetTeleportNormalRoom@CSecretRoomContinent@@QAEXPAVCUser@@H@Z ENDP ; CSecretRoomContinent::SetTeleportNormalRoom
_TEXT	ENDS
; Function compile flags: /Ogtp
; File C:\IAGOS\server\v18\Source\Source\_Common\SecretRoom.cpp
; File C:\Program Files\Microsoft Visual Studio\2022\Professional\VC\Tools\MSVC\14.44.35207\include\vector
; File C:\IAGOS\server\v18\Source\Source\_Common\SecretRoom.cpp
;	COMDAT ?SetTeleportSecretRoomCont@CSecretRoomContinent@@QAEXPAVCUser@@@Z
_TEXT	SEGMENT
_pUser$ = 8						; size = 4
?SetTeleportSecretRoomCont@CSecretRoomContinent@@QAEXPAVCUser@@@Z PROC ; CSecretRoomContinent::SetTeleportSecretRoomCont, COMDAT
; _this$ = ecx

; 1026 : {

  00000	55		 push	 ebp
  00001	8b ec		 mov	 ebp, esp
  00003	53		 push	 ebx
  00004	56		 push	 esi

; 1027 : 	int nIndex = GetTenderGuild( pUser->m_idGuild );

  00005	8b 75 08	 mov	 esi, DWORD PTR _pUser$[ebp]
  00008	57		 push	 edi
  00009	8b f9		 mov	 edi, ecx
  0000b	ff b6 14 07 00
	00		 push	 DWORD PTR [esi+1812]
  00011	e8 00 00 00 00	 call	 ?GetTenderGuild@CSecretRoomContinent@@QAEHK@Z ; CSecretRoomContinent::GetTenderGuild
  00016	8b d8		 mov	 ebx, eax

; 1028 : 	if( nIndex == NULL_ID )

  00018	83 fb ff	 cmp	 ebx, -1
  0001b	74 77		 je	 SHORT $LN7@SetTelepor

; 1029 : 		return;
; 1030 : 	
; 1031 : 	if( !IsLineUpMember( pUser ) )

  0001d	56		 push	 esi
  0001e	8b cf		 mov	 ecx, edi
  00020	e8 00 00 00 00	 call	 ?IsLineUpMember@CSecretRoomContinent@@QAEHPAVCUser@@@Z ; CSecretRoomContinent::IsLineUpMember
  00025	85 c0		 test	 eax, eax
  00027	75 13		 jne	 SHORT $LN3@SetTelepor

; 1032 : 	{
; 1033 : 		pUser->AddDefinedText( TID_GAME_SECRETROOM_NOLINEUPMEMBER );

  00029	68 7f 0e 00 00	 push	 3711			; 00000e7fH
  0002e	8b ce		 mov	 ecx, esi
  00030	e8 00 00 00 00	 call	 ?AddDefinedText@CUser@@QAEXH@Z ; CUser::AddDefinedText
  00035	5f		 pop	 edi

; 1056 : }

  00036	5e		 pop	 esi
  00037	5b		 pop	 ebx
  00038	5d		 pop	 ebp
  00039	c2 04 00	 ret	 4
$LN3@SetTelepor:

; 1038 : 	if( m_vecSecretRoomTender[nIndex].nWarState == MONSTER_FAILED )

  0003c	8b 47 10	 mov	 eax, DWORD PTR [edi+16]
; File C:\Program Files\Microsoft Visual Studio\2022\Professional\VC\Tools\MSVC\14.44.35207\include\vector

; 1934 :         return _My_data._Myfirst[_Pos];

  0003f	6b cb 2c	 imul	 ecx, ebx, 44
; File C:\IAGOS\server\v18\Source\Source\_Common\SecretRoom.cpp

; 1038 : 	if( m_vecSecretRoomTender[nIndex].nWarState == MONSTER_FAILED )

  00042	8b 44 01 10	 mov	 eax, DWORD PTR [ecx+eax+16]
  00046	85 c0		 test	 eax, eax
  00048	75 13		 jne	 SHORT $LN4@SetTelepor

; 1039 : 	{
; 1040 : 		pUser->AddDefinedText( TID_GAME_SECRETROOM_ISLOSTGUILD );

  0004a	68 80 0e 00 00	 push	 3712			; 00000e80H
  0004f	8b ce		 mov	 ecx, esi
  00051	e8 00 00 00 00	 call	 ?AddDefinedText@CUser@@QAEXH@Z ; CUser::AddDefinedText
  00056	5f		 pop	 edi

; 1056 : }

  00057	5e		 pop	 esi
  00058	5b		 pop	 ebx
  00059	5d		 pop	 ebp
  0005a	c2 04 00	 ret	 4
$LN4@SetTelepor:

; 1041 : 		return;
; 1042 : 	}
; 1043 : 	
; 1044 : 	// ş¸˝ş ¸÷ŔĎ¶§
; 1045 : 	if( m_vecSecretRoomTender[nIndex].nWarState == MONSTER_BOSS )

  0005d	8b cf		 mov	 ecx, edi
  0005f	53		 push	 ebx
  00060	56		 push	 esi
  00061	83 f8 03	 cmp	 eax, 3
  00064	75 07		 jne	 SHORT $LN5@SetTelepor

; 1046 :        SetTeleportBossRoom( pUser, nIndex );

  00066	e8 00 00 00 00	 call	 ?SetTeleportBossRoom@CSecretRoomContinent@@QAEXPAVCUser@@H@Z ; CSecretRoomContinent::SetTeleportBossRoom
  0006b	eb 05		 jmp	 SHORT $LN6@SetTelepor
$LN5@SetTelepor:

; 1047 : 	else
; 1048 : 		SetTeleportNormalRoom( pUser, nIndex );

  0006d	e8 00 00 00 00	 call	 ?SetTeleportNormalRoom@CSecretRoomContinent@@QAEXPAVCUser@@H@Z ; CSecretRoomContinent::SetTeleportNormalRoom
$LN6@SetTelepor:

; 1049 : 	
; 1050 : 	// ąöÇÁ ľřľÖ±â
; 1051 : 	pUser->RemoveCommonBuffs();

  00072	8b ce		 mov	 ecx, esi
  00074	e8 00 00 00 00	 call	 ?RemoveCommonBuffs@CMover@@QAEXXZ ; CMover::RemoveCommonBuffs

; 1052 : 	
; 1053 : 	// ĆÄĆĽ Ĺ»Ĺđ
; 1054 : 	if( pUser->GetPartyId() > 0 )

  00079	8b 86 10 07 00
	00		 mov	 eax, DWORD PTR [esi+1808]
  0007f	85 c0		 test	 eax, eax
  00081	74 11		 je	 SHORT $LN7@SetTelepor

; 1055 : 		g_DPCoreClient.SendGCRemoveParty( pUser->GetPartyId(), pUser->m_idPlayer );

  00083	ff b6 34 02 00
	00		 push	 DWORD PTR [esi+564]
  00089	b9 00 00 00 00	 mov	 ecx, OFFSET ?g_DPCoreClient@@3VCDPCoreClient@@A ; g_DPCoreClient
  0008e	50		 push	 eax
  0008f	e8 00 00 00 00	 call	 ?SendGCRemoveParty@CDPCoreClient@@QAEXKK@Z ; CDPCoreClient::SendGCRemoveParty
$LN7@SetTelepor:

; 1056 : }

  00094	5f		 pop	 edi
  00095	5e		 pop	 esi
  00096	5b		 pop	 ebx
  00097	5d		 pop	 ebp
  00098	c2 04 00	 ret	 4
?SetTeleportSecretRoomCont@CSecretRoomContinent@@QAEXPAVCUser@@@Z ENDP ; CSecretRoomContinent::SetTeleportSecretRoomCont
_TEXT	ENDS
; Function compile flags: /Ogtp
; File C:\IAGOS\server\v18\Source\Source\_Common\SecretRoom.cpp
; File C:\Program Files\Microsoft Visual Studio\2022\Professional\VC\Tools\MSVC\14.44.35207\include\vector
; File C:\IAGOS\server\v18\Source\Source\_Common\SecretRoom.cpp
; File C:\Program Files\Microsoft Visual Studio\2022\Professional\VC\Tools\MSVC\14.44.35207\include\vector
; File C:\IAGOS\server\v18\Source\Source\_Common\SecretRoom.cpp
; File C:\Program Files\Microsoft Visual Studio\2022\Professional\VC\Tools\MSVC\14.44.35207\include\vector
; File C:\IAGOS\server\v18\Source\Source\_Common\SecretRoom.cpp
; File C:\Program Files\Microsoft Visual Studio\2022\Professional\VC\Tools\MSVC\14.44.35207\include\vector
; File C:\IAGOS\server\v18\Source\Source\_Common\SecretRoom.cpp
; File C:\Program Files\Microsoft Visual Studio\2022\Professional\VC\Tools\MSVC\14.44.35207\include\xtree
; File C:\IAGOS\server\v18\Source\Source\_Common\SecretRoom.cpp
; File C:\Program Files\Microsoft Visual Studio\2022\Professional\VC\Tools\MSVC\14.44.35207\include\xtree
; File C:\Program Files\Microsoft Visual Studio\2022\Professional\VC\Tools\MSVC\14.44.35207\include\type_traits
; File C:\Program Files\Microsoft Visual Studio\2022\Professional\VC\Tools\MSVC\14.44.35207\include\xtree
; File C:\Program Files\Microsoft Visual Studio\2022\Professional\VC\Tools\MSVC\14.44.35207\include\type_traits
; File C:\Program Files\Microsoft Visual Studio\2022\Professional\VC\Tools\MSVC\14.44.35207\include\xtree
; File C:\IAGOS\server\v18\Source\Source\_Common\Project.h
; File C:\IAGOS\server\v18\Source\Source\_Common\Obj.h
; File C:\IAGOS\server\v18\Source\Source\_Common\SecretRoom.cpp
; File C:\Program Files\Microsoft Visual Studio\2022\Professional\VC\Tools\MSVC\14.44.35207\include\vector
; File C:\IAGOS\server\v18\Source\Source\_Common\SecretRoom.cpp
; File C:\Program Files\Microsoft Visual Studio\2022\Professional\VC\Tools\MSVC\14.44.35207\include\vector
; File C:\IAGOS\server\v18\Source\Source\_Common\SecretRoom.cpp
;	COMDAT ?SetSecretRoomWorld@CSecretRoomContinent@@QAEXH@Z
_TEXT	SEGMENT
_this$1$ = -4						; size = 4
_nContCount$ = 8					; size = 4
?SetSecretRoomWorld@CSecretRoomContinent@@QAEXH@Z PROC	; CSecretRoomContinent::SetSecretRoomWorld, COMDAT
; _this$ = ecx

; 1006 : {

  00000	55		 push	 ebp
  00001	8b ec		 mov	 ebp, esp
  00003	51		 push	 ecx
  00004	56		 push	 esi
  00005	8b f1		 mov	 esi, ecx
; File C:\Program Files\Microsoft Visual Studio\2022\Professional\VC\Tools\MSVC\14.44.35207\include\vector

; 1915 :         return static_cast<size_type>(_My_data._Mylast - _My_data._Myfirst);

  00007	b8 e9 a2 8b 2e	 mov	 eax, 780903145		; 2e8ba2e9H
; File C:\IAGOS\server\v18\Source\Source\_Common\SecretRoom.cpp

; 1006 : {

  0000c	57		 push	 edi

; 1007 : 	for( DWORD i=0; i<m_vecSecretRoomTender.size(); i++ )

  0000d	33 ff		 xor	 edi, edi
  0000f	89 75 fc	 mov	 DWORD PTR _this$1$[ebp], esi
; File C:\Program Files\Microsoft Visual Studio\2022\Professional\VC\Tools\MSVC\14.44.35207\include\vector

; 1915 :         return static_cast<size_type>(_My_data._Mylast - _My_data._Myfirst);

  00012	8b 56 14	 mov	 edx, DWORD PTR [esi+20]
  00015	2b 56 10	 sub	 edx, DWORD PTR [esi+16]
  00018	f7 ea		 imul	 edx
  0001a	c1 fa 03	 sar	 edx, 3
  0001d	8b c2		 mov	 eax, edx
  0001f	c1 e8 1f	 shr	 eax, 31			; 0000001fH
  00022	03 c2		 add	 eax, edx
; File C:\IAGOS\server\v18\Source\Source\_Common\SecretRoom.cpp

; 1007 : 	for( DWORD i=0; i<m_vecSecretRoomTender.size(); i++ )

  00024	0f 84 c3 00 00
	00		 je	 $LN3@SetSecretR
  0002a	53		 push	 ebx
; File C:\Program Files\Microsoft Visual Studio\2022\Professional\VC\Tools\MSVC\14.44.35207\include\vector

; 1914 :         auto& _My_data = _Mypair._Myval2;

  0002b	33 db		 xor	 ebx, ebx
  0002d	0f 1f 00	 npad	 3
$LL4@SetSecretR:
; File C:\IAGOS\server\v18\Source\Source\_Common\SecretRoom.cpp

; 1009 : 		DWORD dwWorldId = WI_DUNGEON_SECRET_1 + i + (CSecretRoomMng::GetInstance()->m_nMaxGuildNum*nContCount);

  00030	e8 00 00 00 00	 call	 ?GetInstance@CSecretRoomMng@@SAPAV1@XZ ; CSecretRoomMng::GetInstance
  00035	8d 8f 98 00 00
	00		 lea	 ecx, DWORD PTR [edi+152]
  0003b	8b 40 1c	 mov	 eax, DWORD PTR [eax+28]
  0003e	0f af 45 08	 imul	 eax, DWORD PTR _nContCount$[ebp]
  00042	03 c8		 add	 ecx, eax

; 1010 : 		if( dwWorldId <= WI_DUNGEON_SECRET_L )

  00044	81 f9 a7 00 00
	00		 cmp	 ecx, 167		; 000000a7H
  0004a	77 77		 ja	 SHORT $LN2@SetSecretR

; 1011 : 		{
; 1012 : 			m_vecSecretRoomTender[i].dwWorldId = dwWorldId;

  0004c	8b 46 10	 mov	 eax, DWORD PTR [esi+16]
  0004f	89 4c 03 0c	 mov	 DWORD PTR [ebx+eax+12], ecx

; 1014 : 			CGuild* pGuild = g_GuildMng.GetGuild( m_vecSecretRoomTender[i].dwGuildId );

  00053	b9 00 00 00 00	 mov	 ecx, OFFSET ?g_GuildMng@@3VCGuildMng@@A ; g_GuildMng
; File C:\Program Files\Microsoft Visual Studio\2022\Professional\VC\Tools\MSVC\14.44.35207\include\vector

; 1934 :         return _My_data._Myfirst[_Pos];

  00058	8b 46 10	 mov	 eax, DWORD PTR [esi+16]
; File C:\IAGOS\server\v18\Source\Source\_Common\SecretRoom.cpp

; 1014 : 			CGuild* pGuild = g_GuildMng.GetGuild( m_vecSecretRoomTender[i].dwGuildId );

  0005b	ff 34 18	 push	 DWORD PTR [eax+ebx]
  0005e	e8 00 00 00 00	 call	 ?GetGuild@CGuildMng@@QAEPAVCGuild@@K@Z ; CGuildMng::GetGuild

; 1015 : 			if( pGuild )

  00063	85 c0		 test	 eax, eax
  00065	74 5c		 je	 SHORT $LN2@SetSecretR
; File C:\Program Files\Microsoft Visual Studio\2022\Professional\VC\Tools\MSVC\14.44.35207\include\xtree

; 1630 :         _Tree_find_result<_Nodeptr> _Result{{_Scary->_Myhead->_Parent, _Tree_child::_Right}, _Scary->_Myhead};

  00067	8b 35 28 00 00
	00		 mov	 esi, DWORD PTR ?prj@@3VCProject@@A+40
  0006d	8b ce		 mov	 ecx, esi
; File C:\IAGOS\server\v18\Source\Source\_Common\SecretRoom.cpp

; 1017 : 				CUser* pUserTemp = (CUser*)prj.GetUserByID( pGuild->m_idMaster );

  0006f	8b 50 40	 mov	 edx, DWORD PTR [eax+64]
; File C:\Program Files\Microsoft Visual Studio\2022\Professional\VC\Tools\MSVC\14.44.35207\include\xtree

; 1630 :         _Tree_find_result<_Nodeptr> _Result{{_Scary->_Myhead->_Parent, _Tree_child::_Right}, _Scary->_Myhead};

  00072	8b 46 04	 mov	 eax, DWORD PTR [esi+4]

; 1631 :         _Nodeptr _Trynode = _Result._Location._Parent;
; 1632 :         while (!_Trynode->_Isnil) {

  00075	80 78 0d 00	 cmp	 BYTE PTR [eax+13], 0
  00079	75 19		 jne	 SHORT $LN28@SetSecretR
  0007b	0f 1f 44 00 00	 npad	 5
$LL27@SetSecretR:
; File C:\Program Files\Microsoft Visual Studio\2022\Professional\VC\Tools\MSVC\14.44.35207\include\type_traits

; 2380 :         return _Left < _Right;

  00080	39 50 10	 cmp	 DWORD PTR [eax+16], edx
; File C:\Program Files\Microsoft Visual Studio\2022\Professional\VC\Tools\MSVC\14.44.35207\include\xtree

; 1634 :             if (_DEBUG_LT_PRED(_Getcomp(), _Traits::_Kfn(_Trynode->_Myval), _Keyval)) {

  00083	73 05		 jae	 SHORT $LN29@SetSecretR

; 1635 :                 _Result._Location._Child = _Tree_child::_Right;
; 1636 :                 _Trynode                 = _Trynode->_Right;

  00085	8b 40 08	 mov	 eax, DWORD PTR [eax+8]

; 1637 :             } else {

  00088	eb 04		 jmp	 SHORT $LN30@SetSecretR
$LN29@SetSecretR:

; 1638 :                 _Result._Location._Child = _Tree_child::_Left;
; 1639 :                 _Result._Bound           = _Trynode;

  0008a	8b c8		 mov	 ecx, eax

; 1640 :                 _Trynode                 = _Trynode->_Left;

  0008c	8b 00		 mov	 eax, DWORD PTR [eax]
$LN30@SetSecretR:

; 1631 :         _Nodeptr _Trynode = _Result._Location._Parent;
; 1632 :         while (!_Trynode->_Isnil) {

  0008e	80 78 0d 00	 cmp	 BYTE PTR [eax+13], 0
  00092	74 ec		 je	 SHORT $LL27@SetSecretR
$LN28@SetSecretR:

; 1624 :         return !_Bound->_Isnil && !_DEBUG_LT_PRED(_Getcomp(), _Keyval, _Traits::_Kfn(_Bound->_Myval));

  00094	80 79 0d 00	 cmp	 BYTE PTR [ecx+13], 0
  00098	75 05		 jne	 SHORT $LN24@SetSecretR
; File C:\Program Files\Microsoft Visual Studio\2022\Professional\VC\Tools\MSVC\14.44.35207\include\type_traits

; 2380 :         return _Left < _Right;

  0009a	3b 51 10	 cmp	 edx, DWORD PTR [ecx+16]
; File C:\Program Files\Microsoft Visual Studio\2022\Professional\VC\Tools\MSVC\14.44.35207\include\xtree

; 1624 :         return !_Bound->_Isnil && !_DEBUG_LT_PRED(_Getcomp(), _Keyval, _Traits::_Kfn(_Bound->_Myval));

  0009d	73 02		 jae	 SHORT $LN23@SetSecretR
$LN24@SetSecretR:

; 1389 :         return _Get_scary()->_Myhead;

  0009f	8b ce		 mov	 ecx, esi
$LN23@SetSecretR:

; 37   :     _Tree_unchecked_const_iterator(_Nodeptr _Pnode, const _Mytree* _Plist) noexcept : _Ptr(_Pnode) {

  000a1	3b ce		 cmp	 ecx, esi
; File C:\IAGOS\server\v18\Source\Source\_Common\Project.h

; 1436 : 	if( i != m_idPlayerToUserPtr.end() )

  000a3	74 1e		 je	 SHORT $LN2@SetSecretR

; 1437 : 		return i->second;

  000a5	8b 41 14	 mov	 eax, DWORD PTR [ecx+20]
; File C:\IAGOS\server\v18\Source\Source\_Common\Obj.h

; 327  : 	return pObj && ( pObj->IsDelete() == FALSE ); 

  000a8	85 c0		 test	 eax, eax
  000aa	74 17		 je	 SHORT $LN2@SetSecretR

; 180  : 	BOOL			IsDelete()	{ return (m_dwFlags & OBJ_FLAG_DELETE);  }

  000ac	f6 40 04 01	 test	 BYTE PTR [eax+4], 1

; 327  : 	return pObj && ( pObj->IsDelete() == FALSE ); 

  000b0	75 11		 jne	 SHORT $LN2@SetSecretR
; File C:\IAGOS\server\v18\Source\Source\_Common\SecretRoom.cpp

; 1019 : 					CSecretRoomMng::GetInstance()->SendNowState( pUserTemp, SRCONT_CLOSE, 0 );

  000b2	6a 00		 push	 0
  000b4	6a 65		 push	 101			; 00000065H
  000b6	50		 push	 eax
  000b7	e8 00 00 00 00	 call	 ?GetInstance@CSecretRoomMng@@SAPAV1@XZ ; CSecretRoomMng::GetInstance
  000bc	8b c8		 mov	 ecx, eax
  000be	e8 00 00 00 00	 call	 ?SendNowState@CSecretRoomMng@@QAEXPAVCUser@@HK@Z ; CSecretRoomMng::SendNowState
$LN2@SetSecretR:
; File C:\Program Files\Microsoft Visual Studio\2022\Professional\VC\Tools\MSVC\14.44.35207\include\vector

; 1915 :         return static_cast<size_type>(_My_data._Mylast - _My_data._Myfirst);

  000c3	8b 45 fc	 mov	 eax, DWORD PTR _this$1$[ebp]
; File C:\IAGOS\server\v18\Source\Source\_Common\SecretRoom.cpp

; 1007 : 	for( DWORD i=0; i<m_vecSecretRoomTender.size(); i++ )

  000c6	47		 inc	 edi
  000c7	8b 75 fc	 mov	 esi, DWORD PTR _this$1$[ebp]
  000ca	83 c3 2c	 add	 ebx, 44			; 0000002cH
; File C:\Program Files\Microsoft Visual Studio\2022\Professional\VC\Tools\MSVC\14.44.35207\include\vector

; 1915 :         return static_cast<size_type>(_My_data._Mylast - _My_data._Myfirst);

  000cd	8b 48 14	 mov	 ecx, DWORD PTR [eax+20]
  000d0	2b 48 10	 sub	 ecx, DWORD PTR [eax+16]
  000d3	b8 e9 a2 8b 2e	 mov	 eax, 780903145		; 2e8ba2e9H
  000d8	f7 e9		 imul	 ecx
  000da	c1 fa 03	 sar	 edx, 3
  000dd	8b c2		 mov	 eax, edx
  000df	c1 e8 1f	 shr	 eax, 31			; 0000001fH
  000e2	03 c2		 add	 eax, edx
; File C:\IAGOS\server\v18\Source\Source\_Common\SecretRoom.cpp

; 1007 : 	for( DWORD i=0; i<m_vecSecretRoomTender.size(); i++ )

  000e4	3b f8		 cmp	 edi, eax
  000e6	0f 82 44 ff ff
	ff		 jb	 $LL4@SetSecretR
  000ec	5b		 pop	 ebx
$LN3@SetSecretR:
  000ed	5f		 pop	 edi

; 1020 : 			}
; 1021 : 		}
; 1022 : 	}
; 1023 : }

  000ee	5e		 pop	 esi
  000ef	8b e5		 mov	 esp, ebp
  000f1	5d		 pop	 ebp
  000f2	c2 04 00	 ret	 4
?SetSecretRoomWorld@CSecretRoomContinent@@QAEXH@Z ENDP	; CSecretRoomContinent::SetSecretRoomWorld
_TEXT	ENDS
; Function compile flags: /Ogtp
; File C:\IAGOS\server\v18\Source\Source\_Common\SecretRoom.cpp
; File C:\Program Files\Microsoft Visual Studio\2022\Professional\VC\Tools\MSVC\14.44.35207\include\vector
; File C:\IAGOS\server\v18\Source\Source\_Common\SecretRoom.cpp
; File C:\Program Files\Microsoft Visual Studio\2022\Professional\VC\Tools\MSVC\14.44.35207\include\vector
; File C:\IAGOS\server\v18\Source\Source\_Common\SecretRoom.cpp
; File C:\IAGOS\server\v18\Source\Source\_Common\Project.h
; File C:\IAGOS\server\v18\Source\Source\_Common\SecretRoom.cpp
; File C:\IAGOS\server\v18\Source\Source\_Common\Project.h
; File C:\IAGOS\server\v18\Source\Source\_Common\data.h
; File C:\IAGOS\server\v18\Source\Source\_Common\Project.h
; File C:\IAGOS\server\v18\Source\Source\_Common\SecretRoom.cpp
; File C:\IAGOS\server\v18\Source\Source\_Common\Project.h
; File C:\IAGOS\server\v18\Source\Source\_Common\SecretRoom.cpp
; File C:\IAGOS\server\v18\Source\Source\_Common\Project.h
; File C:\IAGOS\server\v18\Source\Source\_Common\data.h
; File C:\IAGOS\server\v18\Source\Source\_Common\Project.h
; File C:\IAGOS\server\v18\Source\Source\_Common\SecretRoom.cpp
; File C:\Program Files\Microsoft Visual Studio\2022\Professional\VC\Tools\MSVC\14.44.35207\include\xtree
; File C:\Program Files\Microsoft Visual Studio\2022\Professional\VC\Tools\MSVC\14.44.35207\include\type_traits
; File C:\Program Files\Microsoft Visual Studio\2022\Professional\VC\Tools\MSVC\14.44.35207\include\xtree
; File C:\Program Files\Microsoft Visual Studio\2022\Professional\VC\Tools\MSVC\14.44.35207\include\type_traits
; File C:\Program Files\Microsoft Visual Studio\2022\Professional\VC\Tools\MSVC\14.44.35207\include\xtree
; File C:\IAGOS\server\v18\Source\Source\_Common\Project.h
; File C:\IAGOS\server\v18\Source\Source\_Common\Obj.h
; File C:\IAGOS\server\v18\Source\Source\_Common\SecretRoom.cpp
; File C:\Program Files\Microsoft Visual Studio\2022\Professional\VC\Tools\MSVC\14.44.35207\include\vector
; File C:\IAGOS\server\v18\Source\Source\_Common\SecretRoom.cpp
; File C:\Program Files\Microsoft Visual Studio\2022\Professional\VC\Tools\MSVC\14.44.35207\include\vector
; File C:\IAGOS\server\v18\Source\Source\_Common\SecretRoom.cpp
; File C:\Program Files\Microsoft Visual Studio\2022\Professional\VC\Tools\MSVC\14.44.35207\include\xutility
; File C:\IAGOS\server\v18\Source\Source\_Common\SecretRoom.cpp
; File C:\Program Files\Microsoft Visual Studio\2022\Professional\VC\Tools\MSVC\14.44.35207\include\vector
; File C:\Program Files\Microsoft Visual Studio\2022\Professional\VC\Tools\MSVC\14.44.35207\include\xutility
; File C:\Program Files\Microsoft Visual Studio\2022\Professional\VC\Tools\MSVC\14.44.35207\include\vector
; File C:\IAGOS\server\v18\Source\Source\_Common\SecretRoom.cpp
; File C:\Program Files\Microsoft Visual Studio\2022\Professional\VC\Tools\MSVC\14.44.35207\include\vector
; File C:\IAGOS\server\v18\Source\Source\_Common\SecretRoom.cpp
; File C:\Program Files\Microsoft Visual Studio\2022\Professional\VC\Tools\MSVC\14.44.35207\include\vector
; File C:\Program Files\Microsoft Visual Studio\2022\Professional\VC\Tools\MSVC\14.44.35207\include\xutility
; File C:\Program Files\Microsoft Visual Studio\2022\Professional\VC\Tools\MSVC\14.44.35207\include\vector
; File C:\IAGOS\server\v18\Source\Source\_Common\SecretRoom.cpp
; File C:\Program Files\Microsoft Visual Studio\2022\Professional\VC\Tools\MSVC\14.44.35207\include\vector
; File C:\IAGOS\server\v18\Source\Source\_Common\SecretRoom.cpp
;	COMDAT ?SecretRoomContOpen@CSecretRoomContinent@@QAEXXZ
_TEXT	SEGMENT
__Last$1$ = -1492					; size = 4
_nCount$1$ = -1488					; size = 4
_it$1$ = -1484						; size = 4
_this$GSCopy$1$ = -1480					; size = 4
__First$1$ = -1476					; size = 4
tv1839 = -1476						; size = 4
$T3 = -1476						; size = 4
_itemElem$4 = -1472					; size = 176
_szSub$5 = -1296					; size = 1024
_szTitle$6 = -272					; size = 256
__$ArrayPad$ = -16					; size = 4
__$EHRec$ = -12						; size = 12
?SecretRoomContOpen@CSecretRoomContinent@@QAEXXZ PROC	; CSecretRoomContinent::SecretRoomContOpen, COMDAT
; _this$ = ecx

; 965  : {

  00000	55		 push	 ebp
  00001	8b ec		 mov	 ebp, esp
  00003	6a ff		 push	 -1
  00005	68 00 00 00 00	 push	 __ehhandler$?SecretRoomContOpen@CSecretRoomContinent@@QAEXXZ
  0000a	64 a1 00 00 00
	00		 mov	 eax, DWORD PTR fs:0
  00010	50		 push	 eax
  00011	81 ec c8 05 00
	00		 sub	 esp, 1480		; 000005c8H
  00017	a1 00 00 00 00	 mov	 eax, DWORD PTR ___security_cookie
  0001c	33 c5		 xor	 eax, ebp
  0001e	89 45 f0	 mov	 DWORD PTR __$ArrayPad$[ebp], eax
  00021	53		 push	 ebx
  00022	56		 push	 esi
  00023	57		 push	 edi
  00024	50		 push	 eax
  00025	8d 45 f4	 lea	 eax, DWORD PTR __$EHRec$[ebp]
  00028	64 a3 00 00 00
	00		 mov	 DWORD PTR fs:0, eax
  0002e	8b d9		 mov	 ebx, ecx
  00030	89 9d 38 fa ff
	ff		 mov	 DWORD PTR _this$GSCopy$1$[ebp], ebx

; 966  : 	m_nState = SRCONT_OPEN;

  00036	c7 43 04 66 00
	00 00		 mov	 DWORD PTR [ebx+4], 102	; 00000066H

; 969  : 	for( int nCount=1; it!=m_vecSecretRoomTender.end(); nCount++ )

  0003d	bf 01 00 00 00	 mov	 edi, 1
; File C:\Program Files\Microsoft Visual Studio\2022\Professional\VC\Tools\MSVC\14.44.35207\include\vector

; 46   :     _CONSTEXPR20 _Vector_const_iterator(_Tptr _Parg, const _Container_base* _Pvector) noexcept : _Ptr(_Parg) {

  00042	8b 73 10	 mov	 esi, DWORD PTR [ebx+16]
  00045	89 b5 34 fa ff
	ff		 mov	 DWORD PTR _it$1$[ebp], esi
; File C:\IAGOS\server\v18\Source\Source\_Common\SecretRoom.cpp

; 969  : 	for( int nCount=1; it!=m_vecSecretRoomTender.end(); nCount++ )

  0004b	89 bd 30 fa ff
	ff		 mov	 DWORD PTR _nCount$1$[ebp], edi
; File C:\Program Files\Microsoft Visual Studio\2022\Professional\VC\Tools\MSVC\14.44.35207\include\vector

; 176  :         return !(*this == _Right);

  00051	3b 73 14	 cmp	 esi, DWORD PTR [ebx+20]
; File C:\IAGOS\server\v18\Source\Source\_Common\SecretRoom.cpp

; 969  : 	for( int nCount=1; it!=m_vecSecretRoomTender.end(); nCount++ )

  00054	0f 84 1b 03 00
	00		 je	 $LN3@SecretRoom
  0005a	66 0f 1f 44 00
	00		 npad	 6
$LL4@SecretRoom:

; 970  : 	{
; 971  : 		// ĽřŔ§żˇĽ­ ąĐ·Áł­ ±ćµĺ Ăł¸®
; 972  : 		if( nCount > CSecretRoomMng::GetInstance()->m_nMaxGuildNum )

  00060	e8 00 00 00 00	 call	 ?GetInstance@CSecretRoomMng@@SAPAV1@XZ ; CSecretRoomMng::GetInstance
  00065	3b 78 1c	 cmp	 edi, DWORD PTR [eax+28]
  00068	0f 8e c2 02 00
	00		 jle	 $LN5@SecretRoom

; 973  : 		{
; 974  : 			CGuild* pGuild = g_GuildMng.GetGuild( (*it).dwGuildId );

  0006e	ff 36		 push	 DWORD PTR [esi]
  00070	b9 00 00 00 00	 mov	 ecx, OFFSET ?g_GuildMng@@3VCGuildMng@@A ; g_GuildMng
  00075	e8 00 00 00 00	 call	 ?GetGuild@CGuildMng@@QAEPAVCGuild@@K@Z ; CGuildMng::GetGuild
  0007a	8b f8		 mov	 edi, eax

; 975  : 			if( pGuild )

  0007c	85 ff		 test	 edi, edi
  0007e	0f 84 b1 01 00
	00		 je	 $LN7@SecretRoom

; 976  : 			{
; 977  : 				// żěĆíŔ¸·Î ąßĽŰ
; 978  : 				int nPenya = (*it).nPenya;
; 979  : 				nPenya	= (int)( nPenya - ( nPenya * static_cast<float>(CSecretRoomMng::GetInstance()->m_nDropoutReturnRate/100.0f) ) );

  00084	66 0f 6e 46 04	 movd	 xmm0, DWORD PTR [esi+4]
  00089	0f 5b c0	 cvtdq2ps xmm0, xmm0
  0008c	f3 0f 11 85 3c
	fa ff ff	 movss	 DWORD PTR tv1839[ebp], xmm0
  00094	e8 00 00 00 00	 call	 ?GetInstance@CSecretRoomMng@@SAPAV1@XZ ; CSecretRoomMng::GetInstance
  00099	f3 0f 10 8d 3c
	fa ff ff	 movss	 xmm1, DWORD PTR tv1839[ebp]

; 980  : 				CItemElem itemElem;

  000a1	8d 8d 40 fa ff
	ff		 lea	 ecx, DWORD PTR _itemElem$4[ebp]
  000a7	66 0f 6e 40 2c	 movd	 xmm0, DWORD PTR [eax+44]
  000ac	0f 5b c0	 cvtdq2ps xmm0, xmm0
  000af	f3 0f 5e 05 00
	00 00 00	 divss	 xmm0, DWORD PTR __real@42c80000
  000b7	f3 0f 59 c1	 mulss	 xmm0, xmm1
  000bb	f3 0f 5c c8	 subss	 xmm1, xmm0
  000bf	f3 0f 2c d9	 cvttss2si ebx, xmm1
  000c3	e8 00 00 00 00	 call	 ??0CItemElem@@QAE@XZ	; CItemElem::CItemElem

; 981  : 				char szTitle[256] = {0,};

  000c8	68 00 01 00 00	 push	 256			; 00000100H
  000cd	8d 85 f0 fe ff
	ff		 lea	 eax, DWORD PTR _szTitle$6[ebp]
  000d3	c7 45 fc 00 00
	00 00		 mov	 DWORD PTR __$EHRec$[ebp+8], 0
  000da	6a 00		 push	 0
  000dc	50		 push	 eax
  000dd	e8 00 00 00 00	 call	 _memset

; 982  : 				char szSub[1024] = {0,};

  000e2	68 00 04 00 00	 push	 1024			; 00000400H
  000e7	8d 85 f0 fa ff
	ff		 lea	 eax, DWORD PTR _szSub$5[ebp]
  000ed	6a 00		 push	 0
  000ef	50		 push	 eax
  000f0	e8 00 00 00 00	 call	 _memset
; File C:\IAGOS\server\v18\Source\Source\_Common\Project.h

; 1427 : 	VERIFY_RANGE( (int)( dwIndex ), 0, m_colorText.GetSize(), "GetText range_error", "error" );

  000f5	a1 ac 02 00 00	 mov	 eax, DWORD PTR ?prj@@3VCProject@@A+684
; File C:\IAGOS\server\v18\Source\Source\_Common\SecretRoom.cpp

; 982  : 				char szSub[1024] = {0,};

  000fa	83 c4 18	 add	 esp, 24			; 00000018H
; File C:\IAGOS\server\v18\Source\Source\_Common\Project.h

; 1427 : 	VERIFY_RANGE( (int)( dwIndex ), 0, m_colorText.GetSize(), "GetText range_error", "error" );

  000fd	3d d4 0e 00 00	 cmp	 eax, 3796		; 00000ed4H
  00102	7f 21		 jg	 SHORT $LN109@SecretRoom

; 579  : 	LPCTSTR szErr = Error( _T( "%s min:%d, max:%d, index:%d" ), szMsg, nMin, nMax, nIndex ); 

  00104	68 d4 0e 00 00	 push	 3796			; 00000ed4H
  00109	50		 push	 eax
  0010a	6a 00		 push	 0
  0010c	68 00 00 00 00	 push	 OFFSET ??_C@_0BE@OHDBLHOM@GetText?5range_error@
  00111	68 00 00 00 00	 push	 OFFSET ??_C@_0BM@HMFGHCP@?$CFs?5min?3?$CFd?0?5max?3?$CFd?0?5index?3?$CFd@
  00116	e8 00 00 00 00	 call	 ?Error@@YAPBDPBDZZ	; Error
  0011b	83 c4 14	 add	 esp, 20			; 00000014H

; 1427 : 	VERIFY_RANGE( (int)( dwIndex ), 0, m_colorText.GetSize(), "GetText range_error", "error" );

  0011e	b8 00 00 00 00	 mov	 eax, OFFSET ??_C@_05KKCIMGE@error@
  00123	eb 1b		 jmp	 SHORT $LN108@SecretRoom
$LN109@SecretRoom:
; File C:\IAGOS\server\v18\Source\Source\_Common\data.h

; 270  : 	if( dwIndex >= (DWORD)m_nMaxIndex )

  00125	76 14		 jbe	 SHORT $LN226@SecretRoom

; 271  : 		return NULL;
; 272  : 	return (T*) m_apOffset[ dwIndex ];

  00127	a1 9c 02 00 00	 mov	 eax, DWORD PTR ?prj@@3VCProject@@A+668
  0012c	8b 80 50 3b 00
	00		 mov	 eax, DWORD PTR [eax+15184]
; File C:\IAGOS\server\v18\Source\Source\_Common\Project.h

; 1428 : 	if( m_colorText.GetAt( dwIndex ) == NULL )

  00132	85 c0		 test	 eax, eax
  00134	74 05		 je	 SHORT $LN226@SecretRoom

; 1430 : 	return m_colorText.GetAt( dwIndex )->lpszData; 

  00136	8b 40 04	 mov	 eax, DWORD PTR [eax+4]
  00139	eb 05		 jmp	 SHORT $LN108@SecretRoom
$LN226@SecretRoom:

; 1429 : 		return "";

  0013b	b8 00 00 00 00	 mov	 eax, OFFSET ??_C@_00CNPNBAHC@@
$LN108@SecretRoom:
; File C:\IAGOS\server\v18\Source\Source\_Common\SecretRoom.cpp

; 983  : 				sprintf( szTitle, prj.GetText( TID_GAME_SECRETROOM_RETURNPENYA_POST_TITLE ) );

  00140	50		 push	 eax
  00141	8d 85 f0 fe ff
	ff		 lea	 eax, DWORD PTR _szTitle$6[ebp]
  00147	50		 push	 eax
  00148	e8 00 00 00 00	 call	 _sprintf
; File C:\IAGOS\server\v18\Source\Source\_Common\Project.h

; 1427 : 	VERIFY_RANGE( (int)( dwIndex ), 0, m_colorText.GetSize(), "GetText range_error", "error" );

  0014d	a1 ac 02 00 00	 mov	 eax, DWORD PTR ?prj@@3VCProject@@A+684
; File C:\IAGOS\server\v18\Source\Source\_Common\SecretRoom.cpp

; 983  : 				sprintf( szTitle, prj.GetText( TID_GAME_SECRETROOM_RETURNPENYA_POST_TITLE ) );

  00152	83 c4 08	 add	 esp, 8
; File C:\IAGOS\server\v18\Source\Source\_Common\Project.h

; 1427 : 	VERIFY_RANGE( (int)( dwIndex ), 0, m_colorText.GetSize(), "GetText range_error", "error" );

  00155	3d d5 0e 00 00	 cmp	 eax, 3797		; 00000ed5H
  0015a	7f 21		 jg	 SHORT $LN125@SecretRoom

; 579  : 	LPCTSTR szErr = Error( _T( "%s min:%d, max:%d, index:%d" ), szMsg, nMin, nMax, nIndex ); 

  0015c	68 d5 0e 00 00	 push	 3797			; 00000ed5H
  00161	50		 push	 eax
  00162	6a 00		 push	 0
  00164	68 00 00 00 00	 push	 OFFSET ??_C@_0BE@OHDBLHOM@GetText?5range_error@
  00169	68 00 00 00 00	 push	 OFFSET ??_C@_0BM@HMFGHCP@?$CFs?5min?3?$CFd?0?5max?3?$CFd?0?5index?3?$CFd@
  0016e	e8 00 00 00 00	 call	 ?Error@@YAPBDPBDZZ	; Error
  00173	83 c4 14	 add	 esp, 20			; 00000014H

; 1427 : 	VERIFY_RANGE( (int)( dwIndex ), 0, m_colorText.GetSize(), "GetText range_error", "error" );

  00176	b8 00 00 00 00	 mov	 eax, OFFSET ??_C@_05KKCIMGE@error@
  0017b	eb 1b		 jmp	 SHORT $LN124@SecretRoom
$LN125@SecretRoom:
; File C:\IAGOS\server\v18\Source\Source\_Common\data.h

; 270  : 	if( dwIndex >= (DWORD)m_nMaxIndex )

  0017d	76 14		 jbe	 SHORT $LN227@SecretRoom

; 271  : 		return NULL;
; 272  : 	return (T*) m_apOffset[ dwIndex ];

  0017f	a1 9c 02 00 00	 mov	 eax, DWORD PTR ?prj@@3VCProject@@A+668
  00184	8b 80 54 3b 00
	00		 mov	 eax, DWORD PTR [eax+15188]
; File C:\IAGOS\server\v18\Source\Source\_Common\Project.h

; 1428 : 	if( m_colorText.GetAt( dwIndex ) == NULL )

  0018a	85 c0		 test	 eax, eax
  0018c	74 05		 je	 SHORT $LN227@SecretRoom

; 1430 : 	return m_colorText.GetAt( dwIndex )->lpszData; 

  0018e	8b 40 04	 mov	 eax, DWORD PTR [eax+4]
  00191	eb 05		 jmp	 SHORT $LN124@SecretRoom
$LN227@SecretRoom:

; 1429 : 		return "";

  00193	b8 00 00 00 00	 mov	 eax, OFFSET ??_C@_00CNPNBAHC@@
$LN124@SecretRoom:
; File C:\IAGOS\server\v18\Source\Source\_Common\SecretRoom.cpp

; 984  : 				sprintf( szSub, prj.GetText( TID_GAME_SECRETROOM_RETURNPENYA_POST_SUBSTANCE ) );

  00198	50		 push	 eax
  00199	8d 85 f0 fa ff
	ff		 lea	 eax, DWORD PTR _szSub$5[ebp]
  0019f	50		 push	 eax
  001a0	e8 00 00 00 00	 call	 _sprintf
  001a5	83 c4 08	 add	 esp, 8

; 985  : 				g_dpDBClient.SendQueryPostMail( pGuild->m_idMaster, 0, itemElem, nPenya, szTitle, szSub );

  001a8	8d 85 f0 fa ff
	ff		 lea	 eax, DWORD PTR _szSub$5[ebp]
  001ae	b9 00 00 00 00	 mov	 ecx, OFFSET ?g_dpDBClient@@3VCDPDatabaseClient@@A ; g_dpDBClient
  001b3	50		 push	 eax
  001b4	8d 85 f0 fe ff
	ff		 lea	 eax, DWORD PTR _szTitle$6[ebp]
  001ba	50		 push	 eax
  001bb	53		 push	 ebx
  001bc	8d 85 40 fa ff
	ff		 lea	 eax, DWORD PTR _itemElem$4[ebp]
  001c2	50		 push	 eax
  001c3	6a 00		 push	 0
  001c5	ff 77 40	 push	 DWORD PTR [edi+64]
  001c8	e8 00 00 00 00	 call	 ?SendQueryPostMail@CDPDatabaseClient@@QAEXKKAAVCItemElem@@HPAD1@Z ; CDPDatabaseClient::SendQueryPostMail

; 986  : 				
; 987  : 				// ÇöŔç ±ć¸¶°ˇ Á˘ĽÓÁßŔĚ¸é ˝Ă˝şĹŰ ¸ŢĽĽÁö Ăâ·Â
; 988  : 				CUser* pUserTemp = (CUser*)prj.GetUserByID( pGuild->m_idMaster );

  001cd	8b 57 40	 mov	 edx, DWORD PTR [edi+64]
; File C:\Program Files\Microsoft Visual Studio\2022\Professional\VC\Tools\MSVC\14.44.35207\include\xtree

; 1630 :         _Tree_find_result<_Nodeptr> _Result{{_Scary->_Myhead->_Parent, _Tree_child::_Right}, _Scary->_Myhead};

  001d0	8b 3d 28 00 00
	00		 mov	 edi, DWORD PTR ?prj@@3VCProject@@A+40
  001d6	8b cf		 mov	 ecx, edi
  001d8	8b 47 04	 mov	 eax, DWORD PTR [edi+4]

; 1631 :         _Nodeptr _Trynode = _Result._Location._Parent;
; 1632 :         while (!_Trynode->_Isnil) {

  001db	80 78 0d 00	 cmp	 BYTE PTR [eax+13], 0
  001df	75 14		 jne	 SHORT $LN150@SecretRoom
$LL149@SecretRoom:
; File C:\Program Files\Microsoft Visual Studio\2022\Professional\VC\Tools\MSVC\14.44.35207\include\type_traits

; 2380 :         return _Left < _Right;

  001e1	39 50 10	 cmp	 DWORD PTR [eax+16], edx
; File C:\Program Files\Microsoft Visual Studio\2022\Professional\VC\Tools\MSVC\14.44.35207\include\xtree

; 1634 :             if (_DEBUG_LT_PRED(_Getcomp(), _Traits::_Kfn(_Trynode->_Myval), _Keyval)) {

  001e4	73 05		 jae	 SHORT $LN151@SecretRoom

; 1635 :                 _Result._Location._Child = _Tree_child::_Right;
; 1636 :                 _Trynode                 = _Trynode->_Right;

  001e6	8b 40 08	 mov	 eax, DWORD PTR [eax+8]

; 1637 :             } else {

  001e9	eb 04		 jmp	 SHORT $LN152@SecretRoom
$LN151@SecretRoom:

; 1638 :                 _Result._Location._Child = _Tree_child::_Left;
; 1639 :                 _Result._Bound           = _Trynode;

  001eb	8b c8		 mov	 ecx, eax

; 1640 :                 _Trynode                 = _Trynode->_Left;

  001ed	8b 00		 mov	 eax, DWORD PTR [eax]
$LN152@SecretRoom:

; 1631 :         _Nodeptr _Trynode = _Result._Location._Parent;
; 1632 :         while (!_Trynode->_Isnil) {

  001ef	80 78 0d 00	 cmp	 BYTE PTR [eax+13], 0
  001f3	74 ec		 je	 SHORT $LL149@SecretRoom
$LN150@SecretRoom:

; 1624 :         return !_Bound->_Isnil && !_DEBUG_LT_PRED(_Getcomp(), _Keyval, _Traits::_Kfn(_Bound->_Myval));

  001f5	80 79 0d 00	 cmp	 BYTE PTR [ecx+13], 0
  001f9	75 05		 jne	 SHORT $LN146@SecretRoom
; File C:\Program Files\Microsoft Visual Studio\2022\Professional\VC\Tools\MSVC\14.44.35207\include\type_traits

; 2380 :         return _Left < _Right;

  001fb	3b 51 10	 cmp	 edx, DWORD PTR [ecx+16]
; File C:\Program Files\Microsoft Visual Studio\2022\Professional\VC\Tools\MSVC\14.44.35207\include\xtree

; 1624 :         return !_Bound->_Isnil && !_DEBUG_LT_PRED(_Getcomp(), _Keyval, _Traits::_Kfn(_Bound->_Myval));

  001fe	73 02		 jae	 SHORT $LN145@SecretRoom
$LN146@SecretRoom:

; 1389 :         return _Get_scary()->_Myhead;

  00200	8b cf		 mov	 ecx, edi
$LN145@SecretRoom:

; 37   :     _Tree_unchecked_const_iterator(_Nodeptr _Pnode, const _Mytree* _Plist) noexcept : _Ptr(_Pnode) {

  00202	3b cf		 cmp	 ecx, edi
; File C:\IAGOS\server\v18\Source\Source\_Common\Project.h

; 1436 : 	if( i != m_idPlayerToUserPtr.end() )

  00204	74 17		 je	 SHORT $LN8@SecretRoom

; 1437 : 		return i->second;

  00206	8b 49 14	 mov	 ecx, DWORD PTR [ecx+20]
; File C:\IAGOS\server\v18\Source\Source\_Common\Obj.h

; 327  : 	return pObj && ( pObj->IsDelete() == FALSE ); 

  00209	85 c9		 test	 ecx, ecx
  0020b	74 10		 je	 SHORT $LN8@SecretRoom

; 180  : 	BOOL			IsDelete()	{ return (m_dwFlags & OBJ_FLAG_DELETE);  }

  0020d	f6 41 04 01	 test	 BYTE PTR [ecx+4], 1

; 327  : 	return pObj && ( pObj->IsDelete() == FALSE ); 

  00211	75 0a		 jne	 SHORT $LN8@SecretRoom
; File C:\IAGOS\server\v18\Source\Source\_Common\SecretRoom.cpp

; 990  : 					pUserTemp->AddDefinedText( TID_GAME_SECRETROOM_TENDERFAILED );

  00213	68 7e 0e 00 00	 push	 3710			; 00000e7eH
  00218	e8 00 00 00 00	 call	 ?AddDefinedText@CUser@@QAEXH@Z ; CUser::AddDefinedText
$LN8@SecretRoom:

; 991  : 			}

  0021d	8d 8d 40 fa ff
	ff		 lea	 ecx, DWORD PTR _itemElem$4[ebp]
  00223	c7 45 fc ff ff
	ff ff		 mov	 DWORD PTR __$EHRec$[ebp+8], -1
  0022a	e8 00 00 00 00	 call	 ??1CItemElem@@UAE@XZ	; CItemElem::~CItemElem
  0022f	8b 9d 38 fa ff
	ff		 mov	 ebx, DWORD PTR _this$GSCopy$1$[ebp]
$LN7@SecretRoom:

; 993  : 			g_dpDBClient.SendSecretRoomUpdateToDB( m_nContinent, (*it), 'F' );	

  00235	0f b6 43 0c	 movzx	 eax, BYTE PTR [ebx+12]
  00239	b9 00 00 00 00	 mov	 ecx, OFFSET ?g_dpDBClient@@3VCDPDatabaseClient@@A ; g_dpDBClient
  0023e	6a 46		 push	 70			; 00000046H
  00240	56		 push	 esi
  00241	50		 push	 eax
  00242	e8 00 00 00 00	 call	 ?SendSecretRoomUpdateToDB@CDPDatabaseClient@@QAEXEAAU__SECRETROOM_TENDER@@D@Z ; CDPDatabaseClient::SendSecretRoomUpdateToDB
; File C:\Program Files\Microsoft Visual Studio\2022\Professional\VC\Tools\MSVC\14.44.35207\include\vector

; 1775 :         _STD _Move_unchecked(_Whereptr + 1, _Mylast, _Whereptr);

  00247	8b 4b 14	 mov	 ecx, DWORD PTR [ebx+20]
; File C:\IAGOS\server\v18\Source\Source\_Common\SecretRoom.cpp

; 993  : 			g_dpDBClient.SendSecretRoomUpdateToDB( m_nContinent, (*it), 'F' );	

  0024a	8d 46 2c	 lea	 eax, DWORD PTR [esi+44]
; File C:\Program Files\Microsoft Visual Studio\2022\Professional\VC\Tools\MSVC\14.44.35207\include\vector

; 1775 :         _STD _Move_unchecked(_Whereptr + 1, _Mylast, _Whereptr);

  0024d	89 8d 2c fa ff
	ff		 mov	 DWORD PTR __Last$1$[ebp], ecx
; File C:\IAGOS\server\v18\Source\Source\_Common\SecretRoom.cpp

; 993  : 			g_dpDBClient.SendSecretRoomUpdateToDB( m_nContinent, (*it), 'F' );	

  00253	89 85 3c fa ff
	ff		 mov	 DWORD PTR __First$1$[ebp], eax
; File C:\Program Files\Microsoft Visual Studio\2022\Professional\VC\Tools\MSVC\14.44.35207\include\xutility

; 5151 :         for (; _First != _Last; ++_Dest, (void) ++_First) {

  00259	3b c1		 cmp	 eax, ecx
  0025b	0f 84 b6 00 00
	00		 je	 $LN229@SecretRoom
; File C:\IAGOS\server\v18\Source\Source\_Common\SecretRoom.cpp

; 993  : 			g_dpDBClient.SendSecretRoomUpdateToDB( m_nContinent, (*it), 'F' );	

  00261	8d 5e 1c	 lea	 ebx, DWORD PTR [esi+28]
  00264	8b f0		 mov	 esi, eax
$LL32@SecretRoom:
  00266	8b 06		 mov	 eax, DWORD PTR [esi]
; File C:\Program Files\Microsoft Visual Studio\2022\Professional\VC\Tools\MSVC\14.44.35207\include\vector

; 800  :         if (this == _STD addressof(_Right)) {

  00268	8d 4b 24	 lea	 ecx, DWORD PTR [ebx+36]
  0026b	89 43 e4	 mov	 DWORD PTR [ebx-28], eax
  0026e	8d 7b 2c	 lea	 edi, DWORD PTR [ebx+44]
  00271	8b 43 14	 mov	 eax, DWORD PTR [ebx+20]
  00274	89 43 e8	 mov	 DWORD PTR [ebx-24], eax
  00277	8b 43 18	 mov	 eax, DWORD PTR [ebx+24]
  0027a	89 43 ec	 mov	 DWORD PTR [ebx-20], eax
  0027d	8b 43 1c	 mov	 eax, DWORD PTR [ebx+28]
  00280	89 43 f0	 mov	 DWORD PTR [ebx-16], eax
  00283	8b 43 20	 mov	 eax, DWORD PTR [ebx+32]
  00286	89 43 f4	 mov	 DWORD PTR [ebx-12], eax
  00289	8d 43 f8	 lea	 eax, DWORD PTR [ebx-8]
  0028c	89 bd 3c fa ff
	ff		 mov	 DWORD PTR $T3[ebp], edi
  00292	3b c1		 cmp	 eax, ecx
  00294	74 2c		 je	 SHORT $LN230@SecretRoom

; 801  :             return *this;
; 802  :         }
; 803  : 
; 804  :         _Alty& _Al                = _Getal();
; 805  :         _Alty& _Right_al          = _Right._Getal();
; 806  :         constexpr auto _Pocma_val = _Choose_pocma_v<_Alty>;
; 807  :         if constexpr (_Pocma_val == _Pocma_values::_No_propagate_allocators) {
; 808  :             if (_Al != _Right_al) {
; 809  :                 _Move_assign_unequal_alloc(_Right);
; 810  :                 return *this;
; 811  :             }
; 812  :         }
; 813  : 
; 814  :         _Tidy();

  00296	8d 4b f8	 lea	 ecx, DWORD PTR [ebx-8]
  00299	e8 00 00 00 00	 call	 ?_Tidy@?$vector@KV?$allocator@K@std@@@std@@AAEXXZ ; std::vector<unsigned long,std::allocator<unsigned long> >::_Tidy

; 427  :         _Myfirst = _Right._Myfirst;

  0029e	8b 43 24	 mov	 eax, DWORD PTR [ebx+36]
  002a1	89 43 f8	 mov	 DWORD PTR [ebx-8], eax

; 428  :         _Mylast  = _Right._Mylast;

  002a4	8b 43 28	 mov	 eax, DWORD PTR [ebx+40]
  002a7	89 43 fc	 mov	 DWORD PTR [ebx-4], eax

; 429  :         _Myend   = _Right._Myend;

  002aa	8b 07		 mov	 eax, DWORD PTR [edi]
  002ac	89 03		 mov	 DWORD PTR [ebx], eax

; 430  : 
; 431  :         _Right._Myfirst = nullptr;

  002ae	c7 43 24 00 00
	00 00		 mov	 DWORD PTR [ebx+36], 0

; 432  :         _Right._Mylast  = nullptr;

  002b5	c7 43 28 00 00
	00 00		 mov	 DWORD PTR [ebx+40], 0

; 433  :         _Right._Myend   = nullptr;

  002bc	c7 07 00 00 00
	00		 mov	 DWORD PTR [edi], 0
$LN230@SecretRoom:

; 800  :         if (this == _STD addressof(_Right)) {

  002c2	8d 43 04	 lea	 eax, DWORD PTR [ebx+4]
  002c5	8d 4b 30	 lea	 ecx, DWORD PTR [ebx+48]
  002c8	3b c1		 cmp	 eax, ecx
  002ca	74 2e		 je	 SHORT $LN30@SecretRoom

; 801  :             return *this;
; 802  :         }
; 803  : 
; 804  :         _Alty& _Al                = _Getal();
; 805  :         _Alty& _Right_al          = _Right._Getal();
; 806  :         constexpr auto _Pocma_val = _Choose_pocma_v<_Alty>;
; 807  :         if constexpr (_Pocma_val == _Pocma_values::_No_propagate_allocators) {
; 808  :             if (_Al != _Right_al) {
; 809  :                 _Move_assign_unequal_alloc(_Right);
; 810  :                 return *this;
; 811  :             }
; 812  :         }
; 813  : 
; 814  :         _Tidy();

  002cc	8b c8		 mov	 ecx, eax
  002ce	e8 00 00 00 00	 call	 ?_Tidy@?$vector@U__SECRETROOM_MONSTER@@V?$allocator@U__SECRETROOM_MONSTER@@@std@@@std@@AAEXXZ ; std::vector<__SECRETROOM_MONSTER,std::allocator<__SECRETROOM_MONSTER> >::_Tidy

; 427  :         _Myfirst = _Right._Myfirst;

  002d3	8b 43 30	 mov	 eax, DWORD PTR [ebx+48]
  002d6	89 43 04	 mov	 DWORD PTR [ebx+4], eax

; 428  :         _Mylast  = _Right._Mylast;

  002d9	8b 43 34	 mov	 eax, DWORD PTR [ebx+52]
  002dc	89 43 08	 mov	 DWORD PTR [ebx+8], eax

; 429  :         _Myend   = _Right._Myend;

  002df	8b 43 38	 mov	 eax, DWORD PTR [ebx+56]
  002e2	89 43 0c	 mov	 DWORD PTR [ebx+12], eax

; 430  : 
; 431  :         _Right._Myfirst = nullptr;

  002e5	c7 43 30 00 00
	00 00		 mov	 DWORD PTR [ebx+48], 0

; 432  :         _Right._Mylast  = nullptr;

  002ec	c7 43 34 00 00
	00 00		 mov	 DWORD PTR [ebx+52], 0

; 433  :         _Right._Myend   = nullptr;

  002f3	c7 43 38 00 00
	00 00		 mov	 DWORD PTR [ebx+56], 0
$LN30@SecretRoom:
; File C:\Program Files\Microsoft Visual Studio\2022\Professional\VC\Tools\MSVC\14.44.35207\include\xutility

; 5151 :         for (; _First != _Last; ++_Dest, (void) ++_First) {

  002fa	83 c6 2c	 add	 esi, 44			; 0000002cH
  002fd	8b df		 mov	 ebx, edi
  002ff	3b b5 2c fa ff
	ff		 cmp	 esi, DWORD PTR __Last$1$[ebp]
  00305	0f 85 5b ff ff
	ff		 jne	 $LL32@SecretRoom
  0030b	8b b5 34 fa ff
	ff		 mov	 esi, DWORD PTR _it$1$[ebp]
  00311	8b 9d 38 fa ff
	ff		 mov	 ebx, DWORD PTR _this$GSCopy$1$[ebp]
$LN229@SecretRoom:
; File C:\Program Files\Microsoft Visual Studio\2022\Professional\VC\Tools\MSVC\14.44.35207\include\vector

; 1776 :         _Alty_traits::destroy(_Getal(), _Unfancy(_Mylast - 1));

  00317	8b 7b 14	 mov	 edi, DWORD PTR [ebx+20]
  0031a	8d 4f f4	 lea	 ecx, DWORD PTR [edi-12]

; 830  :         _Tidy();

  0031d	e8 00 00 00 00	 call	 ?_Tidy@?$vector@U__SECRETROOM_MONSTER@@V?$allocator@U__SECRETROOM_MONSTER@@@std@@@std@@AAEXXZ ; std::vector<__SECRETROOM_MONSTER,std::allocator<__SECRETROOM_MONSTER> >::_Tidy
  00322	8d 4f e8	 lea	 ecx, DWORD PTR [edi-24]
  00325	e8 00 00 00 00	 call	 ?_Tidy@?$vector@KV?$allocator@K@std@@@std@@AAEXXZ ; std::vector<unsigned long,std::allocator<unsigned long> >::_Tidy

; 1778 :         --_Mylast;

  0032a	83 43 14 d4	 add	 DWORD PTR [ebx+20], -44	; ffffffd4H
; File C:\IAGOS\server\v18\Source\Source\_Common\SecretRoom.cpp

; 995  : 		}

  0032e	eb 2f		 jmp	 SHORT $LN2@SecretRoom
$LN5@SecretRoom:

; 996  : 		else // ĽřŔ§ľČżˇ µéľúŔ¸¸é °˘ şńąĐŔÇ ąćżˇ ĂâÇö˝ĂĹł ¸ó˝şĹÍ ¸ń·ĎŔ» ÁŘşńÇŃ´Ů.
; 997  : 		{
; 998  : 			(*it).nWarState = MONSTER_NORMAL;

  00330	c7 46 10 01 00
	00 00		 mov	 DWORD PTR [esi+16], 1

; 999  : 			(*it).vecMonster.assign( CSecretRoomMng::GetInstance()->m_vecNormalMonster.begin(), CSecretRoomMng::GetInstance()->m_vecNormalMonster.end() );

  00337	e8 00 00 00 00	 call	 ?GetInstance@CSecretRoomMng@@SAPAV1@XZ ; CSecretRoomMng::GetInstance
; File C:\Program Files\Microsoft Visual Studio\2022\Professional\VC\Tools\MSVC\14.44.35207\include\vector

; 46   :     _CONSTEXPR20 _Vector_const_iterator(_Tptr _Parg, const _Container_base* _Pvector) noexcept : _Ptr(_Parg) {

  0033c	8b 78 50	 mov	 edi, DWORD PTR [eax+80]
; File C:\IAGOS\server\v18\Source\Source\_Common\SecretRoom.cpp

; 999  : 			(*it).vecMonster.assign( CSecretRoomMng::GetInstance()->m_vecNormalMonster.begin(), CSecretRoomMng::GetInstance()->m_vecNormalMonster.end() );

  0033f	e8 00 00 00 00	 call	 ?GetInstance@CSecretRoomMng@@SAPAV1@XZ ; CSecretRoomMng::GetInstance
; File C:\Program Files\Microsoft Visual Studio\2022\Professional\VC\Tools\MSVC\14.44.35207\include\vector

; 1491 :             _Assign_counted_range(_UFirst, _Count);

  00344	8d 4e 20	 lea	 ecx, DWORD PTR [esi+32]

; 46   :     _CONSTEXPR20 _Vector_const_iterator(_Tptr _Parg, const _Container_base* _Pvector) noexcept : _Ptr(_Parg) {

  00347	8b 40 4c	 mov	 eax, DWORD PTR [eax+76]

; 1486 :         auto _UFirst = _STD _Get_unwrapped(_First);

  0034a	2b f8		 sub	 edi, eax
; File C:\Program Files\Microsoft Visual Studio\2022\Professional\VC\Tools\MSVC\14.44.35207\include\xutility

; 1662 :         return _Last - _First; // assume the iterator will do debug checking

  0034c	c1 ff 05	 sar	 edi, 5
; File C:\Program Files\Microsoft Visual Studio\2022\Professional\VC\Tools\MSVC\14.44.35207\include\vector

; 1491 :             _Assign_counted_range(_UFirst, _Count);

  0034f	57		 push	 edi
  00350	50		 push	 eax
  00351	e8 00 00 00 00	 call	 ??$_Assign_counted_range@PAU__SECRETROOM_MONSTER@@@?$vector@U__SECRETROOM_MONSTER@@V?$allocator@U__SECRETROOM_MONSTER@@@std@@@std@@AAEXPAU__SECRETROOM_MONSTER@@I@Z ; std::vector<__SECRETROOM_MONSTER,std::allocator<__SECRETROOM_MONSTER> >::_Assign_counted_range<__SECRETROOM_MONSTER *>

; 82   :         ++_Ptr;

  00356	83 c6 2c	 add	 esi, 44			; 0000002cH
  00359	89 b5 34 fa ff
	ff		 mov	 DWORD PTR _it$1$[ebp], esi
$LN2@SecretRoom:
; File C:\IAGOS\server\v18\Source\Source\_Common\SecretRoom.cpp

; 969  : 	for( int nCount=1; it!=m_vecSecretRoomTender.end(); nCount++ )

  0035f	8b bd 30 fa ff
	ff		 mov	 edi, DWORD PTR _nCount$1$[ebp]
  00365	47		 inc	 edi
  00366	89 bd 30 fa ff
	ff		 mov	 DWORD PTR _nCount$1$[ebp], edi
; File C:\Program Files\Microsoft Visual Studio\2022\Professional\VC\Tools\MSVC\14.44.35207\include\vector

; 176  :         return !(*this == _Right);

  0036c	3b 73 14	 cmp	 esi, DWORD PTR [ebx+20]
; File C:\IAGOS\server\v18\Source\Source\_Common\SecretRoom.cpp

; 969  : 	for( int nCount=1; it!=m_vecSecretRoomTender.end(); nCount++ )

  0036f	0f 85 eb fc ff
	ff		 jne	 $LL4@SecretRoom
$LN3@SecretRoom:

; 1000 : 			it++;
; 1001 : 		}
; 1002 : 	}
; 1003 : }

  00375	8b 4d f4	 mov	 ecx, DWORD PTR __$EHRec$[ebp]
  00378	64 89 0d 00 00
	00 00		 mov	 DWORD PTR fs:0, ecx
  0037f	59		 pop	 ecx
  00380	5f		 pop	 edi
  00381	5e		 pop	 esi
  00382	5b		 pop	 ebx
  00383	8b 4d f0	 mov	 ecx, DWORD PTR __$ArrayPad$[ebp]
  00386	33 cd		 xor	 ecx, ebp
  00388	e8 00 00 00 00	 call	 @__security_check_cookie@4
  0038d	8b e5		 mov	 esp, ebp
  0038f	5d		 pop	 ebp
  00390	c3		 ret	 0
_TEXT	ENDS
;	COMDAT text$x
text$x	SEGMENT
__unwindfunclet$?SecretRoomContOpen@CSecretRoomContinent@@QAEXXZ$0:
  00000	8d 8d 40 fa ff
	ff		 lea	 ecx, DWORD PTR _itemElem$4[ebp]
  00006	e9 00 00 00 00	 jmp	 ??1CItemElem@@UAE@XZ	; CItemElem::~CItemElem
  0000b	cc		 int	 3
  0000c	cc		 int	 3
  0000d	cc		 int	 3
  0000e	cc		 int	 3
  0000f	cc		 int	 3
__ehhandler$?SecretRoomContOpen@CSecretRoomContinent@@QAEXXZ:
  00010	90		 npad	 1
  00011	90		 npad	 1
  00012	8b 54 24 08	 mov	 edx, DWORD PTR [esp+8]
  00016	8d 42 0c	 lea	 eax, DWORD PTR [edx+12]
  00019	8b 8a 28 fa ff
	ff		 mov	 ecx, DWORD PTR [edx-1496]
  0001f	33 c8		 xor	 ecx, eax
  00021	e8 00 00 00 00	 call	 @__security_check_cookie@4
  00026	8b 4a fc	 mov	 ecx, DWORD PTR [edx-4]
  00029	33 c8		 xor	 ecx, eax
  0002b	e8 00 00 00 00	 call	 @__security_check_cookie@4
  00030	b8 00 00 00 00	 mov	 eax, OFFSET __ehfuncinfo$?SecretRoomContOpen@CSecretRoomContinent@@QAEXXZ
  00035	e9 00 00 00 00	 jmp	 ___CxxFrameHandler3
text$x	ENDS
?SecretRoomContOpen@CSecretRoomContinent@@QAEXXZ ENDP	; CSecretRoomContinent::SecretRoomContOpen
; Function compile flags: /Ogtp
; File C:\IAGOS\server\v18\Source\Source\_Common\SecretRoom.cpp
; File C:\Program Files\Microsoft Visual Studio\2022\Professional\VC\Tools\MSVC\14.44.35207\include\vector
; File C:\IAGOS\server\v18\Source\Source\_Common\SecretRoom.cpp
; File C:\Program Files\Microsoft Visual Studio\2022\Professional\VC\Tools\MSVC\14.44.35207\include\vector
; File C:\IAGOS\server\v18\Source\Source\_Common\SecretRoom.cpp
; File C:\Program Files\Microsoft Visual Studio\2022\Professional\VC\Tools\MSVC\14.44.35207\include\vector
; File C:\IAGOS\server\v18\Source\Source\_Common\SecretRoom.cpp
; File C:\Program Files\Microsoft Visual Studio\2022\Professional\VC\Tools\MSVC\14.44.35207\include\vector
; File C:\IAGOS\server\v18\Source\Source\_Common\SecretRoom.cpp
; File C:\Program Files\Microsoft Visual Studio\2022\Professional\VC\Tools\MSVC\14.44.35207\include\vector
; File C:\IAGOS\server\v18\Source\Source\_Common\SecretRoom.cpp
; File C:\Program Files\Microsoft Visual Studio\2022\Professional\VC\Tools\MSVC\14.44.35207\include\xtree
; File C:\IAGOS\server\v18\Source\Source\_Common\SecretRoom.cpp
; File C:\Program Files\Microsoft Visual Studio\2022\Professional\VC\Tools\MSVC\14.44.35207\include\xtree
; File C:\Program Files\Microsoft Visual Studio\2022\Professional\VC\Tools\MSVC\14.44.35207\include\type_traits
; File C:\Program Files\Microsoft Visual Studio\2022\Professional\VC\Tools\MSVC\14.44.35207\include\xtree
; File C:\Program Files\Microsoft Visual Studio\2022\Professional\VC\Tools\MSVC\14.44.35207\include\type_traits
; File C:\Program Files\Microsoft Visual Studio\2022\Professional\VC\Tools\MSVC\14.44.35207\include\xtree
; File C:\IAGOS\server\v18\Source\Source\_Common\Project.h
; File C:\IAGOS\server\v18\Source\Source\_Common\Obj.h
; File C:\IAGOS\server\v18\Source\Source\_Common\SecretRoom.cpp
; File C:\Program Files\Microsoft Visual Studio\2022\Professional\VC\Tools\MSVC\14.44.35207\include\vector
; File C:\IAGOS\server\v18\Source\Source\_Common\SecretRoom.cpp
; File C:\Program Files\Microsoft Visual Studio\2022\Professional\VC\Tools\MSVC\14.44.35207\include\vector
; File C:\IAGOS\server\v18\Source\Source\_Common\SecretRoom.cpp
; File C:\Program Files\Microsoft Visual Studio\2022\Professional\VC\Tools\MSVC\14.44.35207\include\vector
; File C:\IAGOS\server\v18\Source\Source\_Common\SecretRoom.cpp
; File C:\Program Files\Microsoft Visual Studio\2022\Professional\VC\Tools\MSVC\14.44.35207\include\vector
; File C:\IAGOS\server\v18\Source\Source\_Common\SecretRoom.cpp
; File C:\Program Files\Microsoft Visual Studio\2022\Professional\VC\Tools\MSVC\14.44.35207\include\vector
; File C:\IAGOS\server\v18\Source\Source\_Common\SecretRoom.cpp
; File C:\Program Files\Microsoft Visual Studio\2022\Professional\VC\Tools\MSVC\14.44.35207\include\vector
; File C:\IAGOS\server\v18\Source\Source\_Common\SecretRoom.cpp
; File C:\Program Files\Microsoft Visual Studio\2022\Professional\VC\Tools\MSVC\14.44.35207\include\vector
; File C:\IAGOS\server\v18\Source\Source\_Common\SecretRoom.cpp
;	COMDAT ?SetContLineUp@CSecretRoomContinent@@QAEXPAVCUser@@V?$vector@KV?$allocator@K@std@@@std@@@Z
_TEXT	SEGMENT
_this$1$ = -20						; size = 4
_nIndex$1$ = -16					; size = 4
__$EHRec$ = -12						; size = 12
_pUser$ = 8						; size = 4
_vecLineUpMember$ = 12					; size = 12
?SetContLineUp@CSecretRoomContinent@@QAEXPAVCUser@@V?$vector@KV?$allocator@K@std@@@std@@@Z PROC ; CSecretRoomContinent::SetContLineUp, COMDAT
; _this$ = ecx

; 926  : {

  00000	55		 push	 ebp
  00001	8b ec		 mov	 ebp, esp
  00003	6a ff		 push	 -1
  00005	68 00 00 00 00	 push	 __ehhandler$?SetContLineUp@CSecretRoomContinent@@QAEXPAVCUser@@V?$vector@KV?$allocator@K@std@@@std@@@Z
  0000a	64 a1 00 00 00
	00		 mov	 eax, DWORD PTR fs:0
  00010	50		 push	 eax
  00011	83 ec 08	 sub	 esp, 8
  00014	53		 push	 ebx
  00015	56		 push	 esi
  00016	57		 push	 edi
  00017	a1 00 00 00 00	 mov	 eax, DWORD PTR ___security_cookie
  0001c	33 c5		 xor	 eax, ebp
  0001e	50		 push	 eax
  0001f	8d 45 f4	 lea	 eax, DWORD PTR __$EHRec$[ebp]
  00022	64 a3 00 00 00
	00		 mov	 DWORD PTR fs:0, eax
  00028	8b c1		 mov	 eax, ecx
  0002a	89 45 ec	 mov	 DWORD PTR _this$1$[ebp], eax

; 927  : 	int nIndex = GetTenderGuild( pUser->m_idGuild );

  0002d	8b 5d 08	 mov	 ebx, DWORD PTR _pUser$[ebp]
  00030	c7 45 fc 00 00
	00 00		 mov	 DWORD PTR __$EHRec$[ebp+8], 0
  00037	ff b3 14 07 00
	00		 push	 DWORD PTR [ebx+1812]
  0003d	e8 00 00 00 00	 call	 ?GetTenderGuild@CSecretRoomContinent@@QAEHK@Z ; CSecretRoomContinent::GetTenderGuild
  00042	89 45 f0	 mov	 DWORD PTR _nIndex$1$[ebp], eax

; 928  : 	if( nIndex == NULL_ID )

  00045	83 f8 ff	 cmp	 eax, -1
  00048	0f 84 44 01 00
	00		 je	 $LN14@SetContLin
; File C:\Program Files\Microsoft Visual Studio\2022\Professional\VC\Tools\MSVC\14.44.35207\include\vector

; 1915 :         return static_cast<size_type>(_My_data._Mylast - _My_data._Myfirst);

  0004e	8b 75 10	 mov	 esi, DWORD PTR _vecLineUpMember$[ebp+4]
  00051	2b 75 0c	 sub	 esi, DWORD PTR _vecLineUpMember$[ebp]
  00054	c1 fe 02	 sar	 esi, 2
; File C:\IAGOS\server\v18\Source\Source\_Common\SecretRoom.cpp

; 932  : 		|| ( (int)( vecLineUpMember.size() ) > CSecretRoomMng::GetInstance()->m_nMaxGuildMemberNum) )

  00057	e8 00 00 00 00	 call	 ?GetInstance@CSecretRoomMng@@SAPAV1@XZ ; CSecretRoomMng::GetInstance
  0005c	3b 70 20	 cmp	 esi, DWORD PTR [eax+32]
  0005f	0f 8c 21 01 00
	00		 jl	 $LN7@SetContLin
; File C:\Program Files\Microsoft Visual Studio\2022\Professional\VC\Tools\MSVC\14.44.35207\include\vector

; 1915 :         return static_cast<size_type>(_My_data._Mylast - _My_data._Myfirst);

  00065	8b 75 10	 mov	 esi, DWORD PTR _vecLineUpMember$[ebp+4]
  00068	2b 75 0c	 sub	 esi, DWORD PTR _vecLineUpMember$[ebp]
  0006b	c1 fe 02	 sar	 esi, 2
; File C:\IAGOS\server\v18\Source\Source\_Common\SecretRoom.cpp

; 932  : 		|| ( (int)( vecLineUpMember.size() ) > CSecretRoomMng::GetInstance()->m_nMaxGuildMemberNum) )

  0006e	e8 00 00 00 00	 call	 ?GetInstance@CSecretRoomMng@@SAPAV1@XZ ; CSecretRoomMng::GetInstance
  00073	3b 70 24	 cmp	 esi, DWORD PTR [eax+36]
  00076	0f 8f 0a 01 00
	00		 jg	 $LN7@SetContLin
; File C:\Program Files\Microsoft Visual Studio\2022\Professional\VC\Tools\MSVC\14.44.35207\include\vector

; 1915 :         return static_cast<size_type>(_My_data._Mylast - _My_data._Myfirst);

  0007c	8b 45 10	 mov	 eax, DWORD PTR _vecLineUpMember$[ebp+4]
; File C:\IAGOS\server\v18\Source\Source\_Common\SecretRoom.cpp

; 938  : 	BOOL bMaster = FALSE;

  0007f	33 db		 xor	 ebx, ebx
; File C:\Program Files\Microsoft Visual Studio\2022\Professional\VC\Tools\MSVC\14.44.35207\include\vector

; 1915 :         return static_cast<size_type>(_My_data._Mylast - _My_data._Myfirst);

  00081	8b 4d 0c	 mov	 ecx, DWORD PTR _vecLineUpMember$[ebp]
; File C:\IAGOS\server\v18\Source\Source\_Common\SecretRoom.cpp

; 939  : 	for( DWORD i=0; i<vecLineUpMember.size(); i++ )

  00084	33 ff		 xor	 edi, edi
; File C:\Program Files\Microsoft Visual Studio\2022\Professional\VC\Tools\MSVC\14.44.35207\include\vector

; 1915 :         return static_cast<size_type>(_My_data._Mylast - _My_data._Myfirst);

  00086	2b c1		 sub	 eax, ecx
  00088	c1 f8 02	 sar	 eax, 2
; File C:\IAGOS\server\v18\Source\Source\_Common\SecretRoom.cpp

; 939  : 	for( DWORD i=0; i<vecLineUpMember.size(); i++ )

  0008b	85 c0		 test	 eax, eax
  0008d	0f 84 e9 00 00
	00		 je	 $LN125@SetContLin
$LL4@SetContLin:
; File C:\Program Files\Microsoft Visual Studio\2022\Professional\VC\Tools\MSVC\14.44.35207\include\xtree

; 1630 :         _Tree_find_result<_Nodeptr> _Result{{_Scary->_Myhead->_Parent, _Tree_child::_Right}, _Scary->_Myhead};

  00093	8b 35 28 00 00
	00		 mov	 esi, DWORD PTR ?prj@@3VCProject@@A+40
; File C:\IAGOS\server\v18\Source\Source\_Common\SecretRoom.cpp

; 941  : 		CUser* pUserTemp = (CUser*)prj.GetUserByID( vecLineUpMember[i] );

  00099	8b 14 b9	 mov	 edx, DWORD PTR [ecx+edi*4]
; File C:\Program Files\Microsoft Visual Studio\2022\Professional\VC\Tools\MSVC\14.44.35207\include\xtree

; 1630 :         _Tree_find_result<_Nodeptr> _Result{{_Scary->_Myhead->_Parent, _Tree_child::_Right}, _Scary->_Myhead};

  0009c	8b ce		 mov	 ecx, esi
  0009e	8b 46 04	 mov	 eax, DWORD PTR [esi+4]

; 1631 :         _Nodeptr _Trynode = _Result._Location._Parent;
; 1632 :         while (!_Trynode->_Isnil) {

  000a1	80 78 0d 00	 cmp	 BYTE PTR [eax+13], 0
  000a5	75 14		 jne	 SHORT $LN46@SetContLin
$LL45@SetContLin:
; File C:\Program Files\Microsoft Visual Studio\2022\Professional\VC\Tools\MSVC\14.44.35207\include\type_traits

; 2380 :         return _Left < _Right;

  000a7	39 50 10	 cmp	 DWORD PTR [eax+16], edx
; File C:\Program Files\Microsoft Visual Studio\2022\Professional\VC\Tools\MSVC\14.44.35207\include\xtree

; 1634 :             if (_DEBUG_LT_PRED(_Getcomp(), _Traits::_Kfn(_Trynode->_Myval), _Keyval)) {

  000aa	73 05		 jae	 SHORT $LN47@SetContLin

; 1635 :                 _Result._Location._Child = _Tree_child::_Right;
; 1636 :                 _Trynode                 = _Trynode->_Right;

  000ac	8b 40 08	 mov	 eax, DWORD PTR [eax+8]

; 1637 :             } else {

  000af	eb 04		 jmp	 SHORT $LN48@SetContLin
$LN47@SetContLin:

; 1638 :                 _Result._Location._Child = _Tree_child::_Left;
; 1639 :                 _Result._Bound           = _Trynode;

  000b1	8b c8		 mov	 ecx, eax

; 1640 :                 _Trynode                 = _Trynode->_Left;

  000b3	8b 00		 mov	 eax, DWORD PTR [eax]
$LN48@SetContLin:

; 1631 :         _Nodeptr _Trynode = _Result._Location._Parent;
; 1632 :         while (!_Trynode->_Isnil) {

  000b5	80 78 0d 00	 cmp	 BYTE PTR [eax+13], 0
  000b9	74 ec		 je	 SHORT $LL45@SetContLin
$LN46@SetContLin:

; 1624 :         return !_Bound->_Isnil && !_DEBUG_LT_PRED(_Getcomp(), _Keyval, _Traits::_Kfn(_Bound->_Myval));

  000bb	80 79 0d 00	 cmp	 BYTE PTR [ecx+13], 0
  000bf	75 05		 jne	 SHORT $LN42@SetContLin
; File C:\Program Files\Microsoft Visual Studio\2022\Professional\VC\Tools\MSVC\14.44.35207\include\type_traits

; 2380 :         return _Left < _Right;

  000c1	3b 51 10	 cmp	 edx, DWORD PTR [ecx+16]
; File C:\Program Files\Microsoft Visual Studio\2022\Professional\VC\Tools\MSVC\14.44.35207\include\xtree

; 1624 :         return !_Bound->_Isnil && !_DEBUG_LT_PRED(_Getcomp(), _Keyval, _Traits::_Kfn(_Bound->_Myval));

  000c4	73 02		 jae	 SHORT $LN41@SetContLin
$LN42@SetContLin:

; 1389 :         return _Get_scary()->_Myhead;

  000c6	8b ce		 mov	 ecx, esi
$LN41@SetContLin:

; 37   :     _Tree_unchecked_const_iterator(_Nodeptr _Pnode, const _Mytree* _Plist) noexcept : _Ptr(_Pnode) {

  000c8	3b ce		 cmp	 ecx, esi
; File C:\IAGOS\server\v18\Source\Source\_Common\Project.h

; 1436 : 	if( i != m_idPlayerToUserPtr.end() )

  000ca	0f 84 8c 00 00
	00		 je	 $LN119@SetContLin

; 1437 : 		return i->second;

  000d0	8b 71 14	 mov	 esi, DWORD PTR [ecx+20]
; File C:\IAGOS\server\v18\Source\Source\_Common\Obj.h

; 327  : 	return pObj && ( pObj->IsDelete() == FALSE ); 

  000d3	85 f6		 test	 esi, esi
  000d5	0f 84 81 00 00
	00		 je	 $LN119@SetContLin

; 180  : 	BOOL			IsDelete()	{ return (m_dwFlags & OBJ_FLAG_DELETE);  }

  000db	f6 46 04 01	 test	 BYTE PTR [esi+4], 1

; 327  : 	return pObj && ( pObj->IsDelete() == FALSE ); 

  000df	75 7b		 jne	 SHORT $LN119@SetContLin
; File C:\IAGOS\server\v18\Source\Source\_Common\SecretRoom.cpp

; 942  : 		if( !IsValidObj( pUserTemp ) || pUserTemp->m_nLevel < CSecretRoomMng::GetInstance()->m_nMinGuildMemberLevel )

  000e1	e8 00 00 00 00	 call	 ?GetInstance@CSecretRoomMng@@SAPAV1@XZ ; CSecretRoomMng::GetInstance
  000e6	8b 8e d8 05 00
	00		 mov	 ecx, DWORD PTR [esi+1496]
  000ec	3b 48 10	 cmp	 ecx, DWORD PTR [eax+16]
  000ef	7c 6b		 jl	 SHORT $LN119@SetContLin

; 948  : 		if( CSecretRoomMng::GetInstance()->IsGuildMaster( pUserTemp ) )

  000f1	56		 push	 esi
  000f2	e8 00 00 00 00	 call	 ?GetInstance@CSecretRoomMng@@SAPAV1@XZ ; CSecretRoomMng::GetInstance
  000f7	8b c8		 mov	 ecx, eax
  000f9	e8 00 00 00 00	 call	 ?IsGuildMaster@CSecretRoomMng@@QAEHPAVCUser@@@Z ; CSecretRoomMng::IsGuildMaster
; File C:\Program Files\Microsoft Visual Studio\2022\Professional\VC\Tools\MSVC\14.44.35207\include\vector

; 1915 :         return static_cast<size_type>(_My_data._Mylast - _My_data._Myfirst);

  000fe	8b 4d 0c	 mov	 ecx, DWORD PTR _vecLineUpMember$[ebp]
; File C:\IAGOS\server\v18\Source\Source\_Common\SecretRoom.cpp

; 948  : 		if( CSecretRoomMng::GetInstance()->IsGuildMaster( pUserTemp ) )

  00101	85 c0		 test	 eax, eax
  00103	b8 01 00 00 00	 mov	 eax, 1
  00108	0f 45 d8	 cmovne	 ebx, eax
; File C:\Program Files\Microsoft Visual Studio\2022\Professional\VC\Tools\MSVC\14.44.35207\include\vector

; 1915 :         return static_cast<size_type>(_My_data._Mylast - _My_data._Myfirst);

  0010b	8b 45 10	 mov	 eax, DWORD PTR _vecLineUpMember$[ebp+4]
  0010e	2b c1		 sub	 eax, ecx
; File C:\IAGOS\server\v18\Source\Source\_Common\SecretRoom.cpp

; 939  : 	for( DWORD i=0; i<vecLineUpMember.size(); i++ )

  00110	47		 inc	 edi
; File C:\Program Files\Microsoft Visual Studio\2022\Professional\VC\Tools\MSVC\14.44.35207\include\vector

; 1915 :         return static_cast<size_type>(_My_data._Mylast - _My_data._Myfirst);

  00111	c1 f8 02	 sar	 eax, 2
; File C:\IAGOS\server\v18\Source\Source\_Common\SecretRoom.cpp

; 939  : 	for( DWORD i=0; i<vecLineUpMember.size(); i++ )

  00114	3b f8		 cmp	 edi, eax
  00116	0f 82 77 ff ff
	ff		 jb	 $LL4@SetContLin

; 949  : 			bMaster = TRUE;
; 950  : 	}
; 951  : 
; 952  : 	if( !bMaster )

  0011c	85 db		 test	 ebx, ebx
  0011e	74 5c		 je	 SHORT $LN125@SetContLin

; 958  : 	m_vecSecretRoomTender[nIndex].vecLineUpMember = vecLineUpMember;

  00120	8b 7d ec	 mov	 edi, DWORD PTR _this$1$[ebp]
  00123	8d 45 0c	 lea	 eax, DWORD PTR _vecLineUpMember$[ebp]
; File C:\Program Files\Microsoft Visual Studio\2022\Professional\VC\Tools\MSVC\14.44.35207\include\vector

; 1934 :         return _My_data._Myfirst[_Pos];

  00126	6b 75 f0 2c	 imul	 esi, DWORD PTR _nIndex$1$[ebp], 44
; File C:\IAGOS\server\v18\Source\Source\_Common\SecretRoom.cpp

; 958  : 	m_vecSecretRoomTender[nIndex].vecLineUpMember = vecLineUpMember;

  0012a	50		 push	 eax
  0012b	8b 4f 10	 mov	 ecx, DWORD PTR [edi+16]
  0012e	83 c1 14	 add	 ecx, 20			; 00000014H
  00131	03 ce		 add	 ecx, esi
  00133	e8 00 00 00 00	 call	 ??4?$vector@KV?$allocator@K@std@@@std@@QAEAAV01@ABV01@@Z ; std::vector<unsigned long,std::allocator<unsigned long> >::operator=

; 959  : 	pUser->AddDefinedText( TID_GAME_SECRETROOM_LINEUPCOMPLETE );

  00138	8b 4d 08	 mov	 ecx, DWORD PTR _pUser$[ebp]
  0013b	68 7d 0e 00 00	 push	 3709			; 00000e7dH
  00140	e8 00 00 00 00	 call	 ?AddDefinedText@CUser@@QAEXH@Z ; CUser::AddDefinedText
; File C:\Program Files\Microsoft Visual Studio\2022\Professional\VC\Tools\MSVC\14.44.35207\include\vector

; 1934 :         return _My_data._Myfirst[_Pos];

  00145	8b 47 10	 mov	 eax, DWORD PTR [edi+16]
; File C:\IAGOS\server\v18\Source\Source\_Common\SecretRoom.cpp

; 961  : 	g_dpDBClient.SendSecretRoomInsertLineUpToDB( m_nContinent, m_vecSecretRoomTender[nIndex] );

  00148	b9 00 00 00 00	 mov	 ecx, OFFSET ?g_dpDBClient@@3VCDPDatabaseClient@@A ; g_dpDBClient
; File C:\Program Files\Microsoft Visual Studio\2022\Professional\VC\Tools\MSVC\14.44.35207\include\vector

; 1934 :         return _My_data._Myfirst[_Pos];

  0014d	03 c6		 add	 eax, esi
; File C:\IAGOS\server\v18\Source\Source\_Common\SecretRoom.cpp

; 961  : 	g_dpDBClient.SendSecretRoomInsertLineUpToDB( m_nContinent, m_vecSecretRoomTender[nIndex] );

  0014f	50		 push	 eax
  00150	0f b6 47 0c	 movzx	 eax, BYTE PTR [edi+12]
  00154	50		 push	 eax
  00155	e8 00 00 00 00	 call	 ?SendSecretRoomInsertLineUpToDB@CDPDatabaseClient@@QAEXEAAU__SECRETROOM_TENDER@@@Z ; CDPDatabaseClient::SendSecretRoomInsertLineUpToDB
  0015a	eb 36		 jmp	 SHORT $LN14@SetContLin
$LN119@SetContLin:

; 943  : 		{
; 944  : 			pUser->AddDefinedText( TID_GAME_SECRETROOM_LOWMEMBERLEVEL, "%d", CSecretRoomMng::GetInstance()->m_nMinGuildMemberLevel );

  0015c	e8 00 00 00 00	 call	 ?GetInstance@CSecretRoomMng@@SAPAV1@XZ ; CSecretRoomMng::GetInstance
  00161	8b 40 10	 mov	 eax, DWORD PTR [eax+16]
  00164	50		 push	 eax
  00165	68 00 00 00 00	 push	 OFFSET ??_C@_02DPKJAMEF@?$CFd@
  0016a	68 7b 0e 00 00	 push	 3707			; 00000e7bH
  0016f	ff 75 08	 push	 DWORD PTR _pUser$[ebp]
  00172	e8 00 00 00 00	 call	 ?AddDefinedText@CUser@@QAAXHPBDZZ ; CUser::AddDefinedText
  00177	83 c4 10	 add	 esp, 16			; 00000010H
  0017a	eb 16		 jmp	 SHORT $LN14@SetContLin
$LN125@SetContLin:

; 953  : 	{
; 954  : 		pUser->AddDefinedText( TID_GAME_SECRETROOM_NOGUILDMASTER );

  0017c	8b 4d 08	 mov	 ecx, DWORD PTR _pUser$[ebp]
  0017f	68 7c 0e 00 00	 push	 3708			; 00000e7cH
  00184	eb 07		 jmp	 SHORT $LN129@SetContLin
$LN7@SetContLin:

; 933  : 	{
; 934  : 		pUser->AddDefinedText( TID_GAME_SECRETROOM_LINEUPMINMAX );

  00186	68 7a 0e 00 00	 push	 3706			; 00000e7aH
  0018b	8b cb		 mov	 ecx, ebx
$LN129@SetContLin:
; File C:\Program Files\Microsoft Visual Studio\2022\Professional\VC\Tools\MSVC\14.44.35207\include\vector

; 830  :         _Tidy();

  0018d	e8 00 00 00 00	 call	 ?AddDefinedText@CUser@@QAEXH@Z ; CUser::AddDefinedText
$LN14@SetContLin:
  00192	8d 4d 0c	 lea	 ecx, DWORD PTR _vecLineUpMember$[ebp]
  00195	e8 00 00 00 00	 call	 ?_Tidy@?$vector@KV?$allocator@K@std@@@std@@AAEXXZ ; std::vector<unsigned long,std::allocator<unsigned long> >::_Tidy
; File C:\IAGOS\server\v18\Source\Source\_Common\SecretRoom.cpp

; 962  : }

  0019a	8b 4d f4	 mov	 ecx, DWORD PTR __$EHRec$[ebp]
  0019d	64 89 0d 00 00
	00 00		 mov	 DWORD PTR fs:0, ecx
  001a4	59		 pop	 ecx
  001a5	5f		 pop	 edi
  001a6	5e		 pop	 esi
  001a7	5b		 pop	 ebx
  001a8	8b e5		 mov	 esp, ebp
  001aa	5d		 pop	 ebp
  001ab	c2 10 00	 ret	 16			; 00000010H
_TEXT	ENDS
;	COMDAT text$x
text$x	SEGMENT
__unwindfunclet$?SetContLineUp@CSecretRoomContinent@@QAEXPAVCUser@@V?$vector@KV?$allocator@K@std@@@std@@@Z$0:
  00000	8d 4d 0c	 lea	 ecx, DWORD PTR _vecLineUpMember$[ebp]
  00003	e9 00 00 00 00	 jmp	 ??1?$vector@KV?$allocator@K@std@@@std@@QAE@XZ ; std::vector<unsigned long,std::allocator<unsigned long> >::~vector<unsigned long,std::allocator<unsigned long> >
  00008	cc		 int	 3
  00009	cc		 int	 3
  0000a	cc		 int	 3
  0000b	cc		 int	 3
  0000c	cc		 int	 3
__ehhandler$?SetContLineUp@CSecretRoomContinent@@QAEXPAVCUser@@V?$vector@KV?$allocator@K@std@@@std@@@Z:
  0000d	90		 npad	 1
  0000e	90		 npad	 1
  0000f	8b 54 24 08	 mov	 edx, DWORD PTR [esp+8]
  00013	8d 42 0c	 lea	 eax, DWORD PTR [edx+12]
  00016	8b 4a e8	 mov	 ecx, DWORD PTR [edx-24]
  00019	33 c8		 xor	 ecx, eax
  0001b	e8 00 00 00 00	 call	 @__security_check_cookie@4
  00020	b8 00 00 00 00	 mov	 eax, OFFSET __ehfuncinfo$?SetContLineUp@CSecretRoomContinent@@QAEXPAVCUser@@V?$vector@KV?$allocator@K@std@@@std@@@Z
  00025	e9 00 00 00 00	 jmp	 ___CxxFrameHandler3
text$x	ENDS
?SetContLineUp@CSecretRoomContinent@@QAEXPAVCUser@@V?$vector@KV?$allocator@K@std@@@std@@@Z ENDP ; CSecretRoomContinent::SetContLineUp
; Function compile flags: /Ogtp
; File C:\IAGOS\server\v18\Source\Source\_Common\SecretRoom.cpp
; File C:\Program Files\Microsoft Visual Studio\2022\Professional\VC\Tools\MSVC\14.44.35207\atlmfc\include\atlsimpstr.h
; File C:\IAGOS\server\v18\Source\Source\_Common\SecretRoom.cpp
; File C:\Program Files\Microsoft Visual Studio\2022\Professional\VC\Tools\MSVC\14.44.35207\atlmfc\include\atlsimpstr.h
; File C:\IAGOS\server\v18\Source\Source\_Common\SecretRoom.cpp
; File C:\Program Files\Microsoft Visual Studio\2022\Professional\VC\Tools\MSVC\14.44.35207\include\vector
; File C:\IAGOS\server\v18\Source\Source\_Common\SecretRoom.cpp
; File C:\Program Files\Microsoft Visual Studio\2022\Professional\VC\Tools\MSVC\14.44.35207\include\vector
; File C:\IAGOS\server\v18\Source\Source\_Common\SecretRoom.cpp
; File C:\Program Files\Microsoft Visual Studio\2022\Professional\VC\Tools\MSVC\14.44.35207\include\vector
; File C:\IAGOS\server\v18\Source\Source\_Common\SecretRoom.cpp
; File C:\Program Files\Microsoft Visual Studio\2022\Professional\VC\Tools\MSVC\14.44.35207\include\vector
; File C:\Program Files\Microsoft Visual Studio\2022\Professional\VC\Tools\MSVC\14.44.35207\include\xutility
; File C:\IAGOS\server\v18\Source\Source\_Common\SecretRoom.h
; File C:\Program Files\Microsoft Visual Studio\2022\Professional\VC\Tools\MSVC\14.44.35207\include\xutility
; File C:\Program Files\Microsoft Visual Studio\2022\Professional\VC\Tools\MSVC\14.44.35207\include\xmemory
; File C:\IAGOS\server\v18\Source\Source\_Common\SecretRoom.h
; File C:\Program Files\Microsoft Visual Studio\2022\Professional\VC\Tools\MSVC\14.44.35207\include\xmemory
; File C:\Program Files\Microsoft Visual Studio\2022\Professional\VC\Tools\MSVC\14.44.35207\include\vector
; File C:\Program Files\Microsoft Visual Studio\2022\Professional\VC\Tools\MSVC\14.44.35207\include\xmemory
; File C:\IAGOS\server\v18\Source\Source\_Common\SecretRoom.cpp
;	COMDAT ?SetContTenderCancelReturn@CSecretRoomContinent@@QAEXPAVCUser@@@Z
_TEXT	SEGMENT
_nPenya$1$ = -240					; size = 4
tv1189 = -236						; size = 4
$T2 = -232						; size = 4
tv1187 = -232						; size = 4
tv1161 = -228						; size = 4
_pUser$GSCopy$1$ = -224					; size = 4
$T3 = -220						; size = 4
__UFirst$1$ = -220					; size = 4
tv1133 = -220						; size = 4
_aLogItem$ = -216					; size = 200
__$ArrayPad$ = -16					; size = 4
__$EHRec$ = -12						; size = 12
_pUser$ = 8						; size = 4
?SetContTenderCancelReturn@CSecretRoomContinent@@QAEXPAVCUser@@@Z PROC ; CSecretRoomContinent::SetContTenderCancelReturn, COMDAT
; _this$ = ecx

; 886  : {

  00000	55		 push	 ebp
  00001	8b ec		 mov	 ebp, esp
  00003	6a ff		 push	 -1
  00005	68 00 00 00 00	 push	 __ehhandler$?SetContTenderCancelReturn@CSecretRoomContinent@@QAEXPAVCUser@@@Z
  0000a	64 a1 00 00 00
	00		 mov	 eax, DWORD PTR fs:0
  00010	50		 push	 eax
  00011	81 ec e4 00 00
	00		 sub	 esp, 228		; 000000e4H
  00017	a1 00 00 00 00	 mov	 eax, DWORD PTR ___security_cookie
  0001c	33 c5		 xor	 eax, ebp
  0001e	89 45 f0	 mov	 DWORD PTR __$ArrayPad$[ebp], eax
  00021	53		 push	 ebx
  00022	56		 push	 esi
  00023	57		 push	 edi
  00024	50		 push	 eax
  00025	8d 45 f4	 lea	 eax, DWORD PTR __$EHRec$[ebp]
  00028	64 a3 00 00 00
	00		 mov	 DWORD PTR fs:0, eax
  0002e	8b f9		 mov	 edi, ecx
  00030	8b 75 08	 mov	 esi, DWORD PTR _pUser$[ebp]
  00033	89 b5 20 ff ff
	ff		 mov	 DWORD PTR _pUser$GSCopy$1$[ebp], esi

; 887  : 	int nIndex = GetTenderGuild( pUser->m_idGuild );

  00039	ff b6 14 07 00
	00		 push	 DWORD PTR [esi+1812]
  0003f	e8 00 00 00 00	 call	 ?GetTenderGuild@CSecretRoomContinent@@QAEHK@Z ; CSecretRoomContinent::GetTenderGuild

; 888  : 	if( nIndex == NULL_ID )

  00044	83 f8 ff	 cmp	 eax, -1
  00047	75 61		 jne	 SHORT $LN2@SetContTen

; 890  : 		pUser->AddDefinedText( TID_GAME_SECRETROOM_NOTENDERGUILD, "\"%s\"", CContinent::GetInstance()->GetContinentName( m_nContinent ) );

  00049	8a 47 0c	 mov	 al, BYTE PTR [edi+12]
  0004c	50		 push	 eax
  0004d	8d 85 24 ff ff
	ff		 lea	 eax, DWORD PTR $T3[ebp]
  00053	50		 push	 eax
  00054	e8 00 00 00 00	 call	 ?GetInstance@CContinent@@SAPAV1@XZ ; CContinent::GetInstance
  00059	8b c8		 mov	 ecx, eax
  0005b	e8 00 00 00 00	 call	 ?GetContinentName@CContinent@@QAE?AV?$CStringT@DV?$StrTraitMFC@DV?$ChTraitsCRT@D@ATL@@@@@ATL@@E@Z ; CContinent::GetContinentName
  00060	ff 30		 push	 DWORD PTR [eax]
  00062	c7 45 fc 00 00
	00 00		 mov	 DWORD PTR __$EHRec$[ebp+8], 0
  00069	68 00 00 00 00	 push	 OFFSET ??_C@_04OEDFLLKD@?$CC?$CFs?$CC@
  0006e	68 71 0e 00 00	 push	 3697			; 00000e71H
  00073	56		 push	 esi
  00074	e8 00 00 00 00	 call	 ?AddDefinedText@CUser@@QAAXHPBDZZ ; CUser::AddDefinedText
; File C:\Program Files\Microsoft Visual Studio\2022\Professional\VC\Tools\MSVC\14.44.35207\atlmfc\include\atlsimpstr.h

; 804  : 		return( reinterpret_cast< CStringData* >( m_pszData )-1 );

  00079	8b 95 24 ff ff
	ff		 mov	 edx, DWORD PTR $T3[ebp]
; File C:\IAGOS\server\v18\Source\Source\_Common\SecretRoom.cpp

; 890  : 		pUser->AddDefinedText( TID_GAME_SECRETROOM_NOTENDERGUILD, "\"%s\"", CContinent::GetInstance()->GetContinentName( m_nContinent ) );

  0007f	83 c4 10	 add	 esp, 16			; 00000010H
  00082	c7 45 fc ff ff
	ff ff		 mov	 DWORD PTR __$EHRec$[ebp+8], -1
; File C:\Program Files\Microsoft Visual Studio\2022\Professional\VC\Tools\MSVC\14.44.35207\atlmfc\include\atlsimpstr.h

; 804  : 		return( reinterpret_cast< CStringData* >( m_pszData )-1 );

  00089	83 c2 f0	 add	 edx, -16		; fffffff0H

; 92   : 		if( _InterlockedDecrement( &nRefs ) <= 0 )

  0008c	83 c8 ff	 or	 eax, -1
  0008f	f0 0f c1 42 0c	 lock	  xadd	 DWORD PTR [edx+12], eax
  00094	48		 dec	 eax
  00095	85 c0		 test	 eax, eax
  00097	0f 8f 6d 02 00
	00		 jg	 $LN1@SetContTen

; 93   : 		{
; 94   : 			pStringMgr->Free( this );

  0009d	8b 0a		 mov	 ecx, DWORD PTR [edx]
  0009f	52		 push	 edx
  000a0	8b 01		 mov	 eax, DWORD PTR [ecx]
  000a2	ff 50 04	 call	 DWORD PTR [eax+4]
; File C:\IAGOS\server\v18\Source\Source\_Common\SecretRoom.cpp

; 891  : 		return;

  000a5	e9 60 02 00 00	 jmp	 $LN1@SetContTen
$LN2@SetContTen:
; File C:\Program Files\Microsoft Visual Studio\2022\Professional\VC\Tools\MSVC\14.44.35207\include\vector

; 1934 :         return _My_data._Myfirst[_Pos];

  000aa	6b d8 2c	 imul	 ebx, eax, 44
  000ad	8d 4f 10	 lea	 ecx, DWORD PTR [edi+16]
; File C:\IAGOS\server\v18\Source\Source\_Common\SecretRoom.cpp

; 895  : 	nPenya	= (int)( nPenya - ( nPenya * static_cast<float>(CSecretRoomMng::GetInstance()->m_nCancelReturnRate/100.0f) ) );

  000b0	8b 01		 mov	 eax, DWORD PTR [ecx]
; File C:\Program Files\Microsoft Visual Studio\2022\Professional\VC\Tools\MSVC\14.44.35207\include\vector

; 1934 :         return _My_data._Myfirst[_Pos];

  000b2	89 8d 14 ff ff
	ff		 mov	 DWORD PTR tv1189[ebp], ecx
  000b8	66 0f 6e 44 03
	04		 movd	 xmm0, DWORD PTR [ebx+eax+4]
; File C:\IAGOS\server\v18\Source\Source\_Common\SecretRoom.cpp

; 895  : 	nPenya	= (int)( nPenya - ( nPenya * static_cast<float>(CSecretRoomMng::GetInstance()->m_nCancelReturnRate/100.0f) ) );

  000be	0f 5b c0	 cvtdq2ps xmm0, xmm0
  000c1	f3 0f 11 85 24
	ff ff ff	 movss	 DWORD PTR tv1133[ebp], xmm0
  000c9	e8 00 00 00 00	 call	 ?GetInstance@CSecretRoomMng@@SAPAV1@XZ ; CSecretRoomMng::GetInstance
  000ce	f3 0f 10 8d 24
	ff ff ff	 movss	 xmm1, DWORD PTR tv1133[ebp]
  000d6	66 0f 6e 40 28	 movd	 xmm0, DWORD PTR [eax+40]
  000db	0f 5b c0	 cvtdq2ps xmm0, xmm0

; 896  : 	
; 897  : 	if( (pUser->GetGold() + nPenya) < 0 )

  000de	8b 86 e0 14 00
	00		 mov	 eax, DWORD PTR [esi+5344]
  000e4	f3 0f 5e 05 00
	00 00 00	 divss	 xmm0, DWORD PTR __real@42c80000
  000ec	f3 0f 59 c1	 mulss	 xmm0, xmm1
  000f0	f3 0f 5c c8	 subss	 xmm1, xmm0
  000f4	f3 0f 2c c9	 cvttss2si ecx, xmm1
  000f8	03 c1		 add	 eax, ecx
  000fa	89 8d 10 ff ff
	ff		 mov	 DWORD PTR _nPenya$1$[ebp], ecx
  00100	79 11		 jns	 SHORT $LN3@SetContTen

; 898  : 	{
; 899  : 		pUser->AddDefinedText( TID_GAME_LACKSPACE );

  00102	68 72 02 00 00	 push	 626			; 00000272H
  00107	8b ce		 mov	 ecx, esi
  00109	e8 00 00 00 00	 call	 ?AddDefinedText@CUser@@QAEXH@Z ; CUser::AddDefinedText

; 900  : 		return;

  0010e	e9 f7 01 00 00	 jmp	 $LN1@SetContTen
$LN3@SetContTen:

; 901  : 	}
; 902  : 
; 903  : 	// ·Î±× ł˛±ć ÁŘşń
; 904  : 	LogItemInfo aLogItem;

  00113	8d 8d 28 ff ff
	ff		 lea	 ecx, DWORD PTR _aLogItem$[ebp]
  00119	e8 00 00 00 00	 call	 ??0_LogItemInfo@@QAE@XZ	; _LogItemInfo::_LogItemInfo

; 905  : 	aLogItem.Action = "h";
; 906  : 	aLogItem.SendName = pUser->GetName();

  0011e	6a 00		 push	 0
  00120	8b ce		 mov	 ecx, esi
  00122	c7 85 28 ff ff
	ff 00 00 00 00	 mov	 DWORD PTR _aLogItem$[ebp], OFFSET ??_C@_01BDACAMKP@h@
  0012c	e8 00 00 00 00	 call	 ?GetName@CMover@@QAEPBDH@Z ; CMover::GetName
  00131	89 85 2c ff ff
	ff		 mov	 DWORD PTR _aLogItem$[ebp+4], eax

; 907  : 	aLogItem.RecvName = "SECRETROOM_CANCEL";
; 908  : 	aLogItem.WorldId = pUser->GetWorld()->GetID();

  00137	8b 86 6c 01 00
	00		 mov	 eax, DWORD PTR [esi+364]
  0013d	c7 85 30 ff ff
	ff 00 00 00 00	 mov	 DWORD PTR _aLogItem$[ebp+8], OFFSET ??_C@_0BC@MOKGADFJ@SECRETROOM_CANCEL@

; 909  : 	//aLogItem.ItemName = "SEED";
; 910  : 	_stprintf( aLogItem.szItemName, "%d", II_GOLD_SEED1 );

  00147	6a 0c		 push	 12			; 0000000cH
  00149	68 00 00 00 00	 push	 OFFSET ??_C@_02DPKJAMEF@?$CFd@
  0014e	8b 00		 mov	 eax, DWORD PTR [eax]
  00150	89 85 34 ff ff
	ff		 mov	 DWORD PTR _aLogItem$[ebp+12], eax
  00156	8d 85 4c ff ff
	ff		 lea	 eax, DWORD PTR _aLogItem$[ebp+36]
  0015c	50		 push	 eax
  0015d	e8 00 00 00 00	 call	 _sprintf

; 911  : 	aLogItem.Gold = pUser->GetGold();

  00162	8b 86 e0 14 00
	00		 mov	 eax, DWORD PTR [esi+5344]
  00168	83 c4 0c	 add	 esp, 12			; 0000000cH
  0016b	89 85 38 ff ff
	ff		 mov	 DWORD PTR _aLogItem$[ebp+16], eax

; 914  : 	g_dpDBClient.SendSecretRoomUpdateToDB( m_nContinent, m_vecSecretRoomTender[nIndex], 'C' );	

  00171	b9 00 00 00 00	 mov	 ecx, OFFSET ?g_dpDBClient@@3VCDPDatabaseClient@@A ; g_dpDBClient
; File C:\Program Files\Microsoft Visual Studio\2022\Professional\VC\Tools\MSVC\14.44.35207\include\vector

; 1934 :         return _My_data._Myfirst[_Pos];

  00176	8b 47 10	 mov	 eax, DWORD PTR [edi+16]
  00179	03 c3		 add	 eax, ebx
; File C:\IAGOS\server\v18\Source\Source\_Common\SecretRoom.cpp

; 914  : 	g_dpDBClient.SendSecretRoomUpdateToDB( m_nContinent, m_vecSecretRoomTender[nIndex], 'C' );	

  0017b	6a 43		 push	 67			; 00000043H
  0017d	50		 push	 eax
  0017e	0f b6 47 0c	 movzx	 eax, BYTE PTR [edi+12]
  00182	50		 push	 eax
  00183	e8 00 00 00 00	 call	 ?SendSecretRoomUpdateToDB@CDPDatabaseClient@@QAEXEAAU__SECRETROOM_TENDER@@D@Z ; CDPDatabaseClient::SendSecretRoomUpdateToDB
; File C:\Program Files\Microsoft Visual Studio\2022\Professional\VC\Tools\MSVC\14.44.35207\include\vector

; 46   :     _CONSTEXPR20 _Vector_const_iterator(_Tptr _Parg, const _Container_base* _Pvector) noexcept : _Ptr(_Parg) {

  00188	8b 4f 14	 mov	 ecx, DWORD PTR [edi+20]
  0018b	8b 5f 10	 mov	 ebx, DWORD PTR [edi+16]
  0018e	89 8d 18 ff ff
	ff		 mov	 DWORD PTR tv1187[ebp], ecx
; File C:\Program Files\Microsoft Visual Studio\2022\Professional\VC\Tools\MSVC\14.44.35207\include\xutility

; 6159 :     for (; _First != _Last; ++_First) {

  00194	3b d9		 cmp	 ebx, ecx
  00196	0f 84 10 01 00
	00		 je	 $LN43@SetContTen
; File C:\IAGOS\server\v18\Source\Source\_Common\SecretRoom.h

; 62   : 		return this->dwGuildId == dwGuildId;

  0019c	8b 86 14 07 00
	00		 mov	 eax, DWORD PTR [esi+1812]
$LL50@SetContTen:
  001a2	39 03		 cmp	 DWORD PTR [ebx], eax
; File C:\Program Files\Microsoft Visual Studio\2022\Professional\VC\Tools\MSVC\14.44.35207\include\xutility

; 6160 :         if (*_First == _Val) {

  001a4	74 07		 je	 SHORT $LN90@SetContTen

; 6159 :     for (; _First != _Last; ++_First) {

  001a6	83 c3 2c	 add	 ebx, 44			; 0000002cH
  001a9	3b d9		 cmp	 ebx, ecx
  001ab	75 f5		 jne	 SHORT $LL50@SetContTen
$LN90@SetContTen:
; File C:\Program Files\Microsoft Visual Studio\2022\Professional\VC\Tools\MSVC\14.44.35207\include\xmemory

; 2315 :     if (_UFirst != _ULast) {

  001ad	3b d9		 cmp	 ebx, ecx
  001af	0f 84 f7 00 00
	00		 je	 $LN43@SetContTen

; 2316 : #if _USE_STD_VECTOR_ALGORITHMS
; 2317 :         if constexpr (_Vector_alg_in_find_is_safe<decltype(_UFirst), _Ty>) {
; 2318 : #if _HAS_CXX20
; 2319 :             if (!_STD is_constant_evaluated())
; 2320 : #endif // _HAS_CXX20
; 2321 :             {
; 2322 :                 const auto _First_ptr = _STD _To_address(_UFirst);
; 2323 :                 const auto _Result    = _STD _Remove_vectorized(_First_ptr, _STD _To_address(_ULast), _Val);
; 2324 : 
; 2325 :                 if constexpr (is_pointer_v<decltype(_UNext)>) {
; 2326 :                     _UNext = _Result;
; 2327 :                 } else {
; 2328 :                     _UNext += _Result - _First_ptr;
; 2329 :                 }
; 2330 : 
; 2331 :                 _STD _Seek_wrapped(_First, _UNext);
; 2332 :                 return _First;
; 2333 :             }
; 2334 :         }
; 2335 : #endif // _USE_STD_VECTOR_ALGORITHMS
; 2336 : 
; 2337 :         while (++_UFirst != _ULast) {

  001b5	8d 43 2c	 lea	 eax, DWORD PTR [ebx+44]
  001b8	89 85 24 ff ff
	ff		 mov	 DWORD PTR __UFirst$1$[ebp], eax
  001be	3b c1		 cmp	 eax, ecx
  001c0	0f 84 e6 00 00
	00		 je	 $LN43@SetContTen
  001c6	8b 8d 20 ff ff
	ff		 mov	 ecx, DWORD PTR _pUser$GSCopy$1$[ebp]
  001cc	8d 73 1c	 lea	 esi, DWORD PTR [ebx+28]
  001cf	8d 78 1c	 lea	 edi, DWORD PTR [eax+28]
  001d2	89 b5 1c ff ff
	ff		 mov	 DWORD PTR tv1161[ebp], esi
  001d8	0f 1f 84 00 00
	00 00 00	 npad	 8
$LL42@SetContTen:
; File C:\IAGOS\server\v18\Source\Source\_Common\SecretRoom.h

; 62   : 		return this->dwGuildId == dwGuildId;

  001e0	8b 10		 mov	 edx, DWORD PTR [eax]
  001e2	3b 91 14 07 00
	00		 cmp	 edx, DWORD PTR [ecx+1812]
; File C:\Program Files\Microsoft Visual Studio\2022\Professional\VC\Tools\MSVC\14.44.35207\include\xmemory

; 2338 :             if (!(*_UFirst == _Val)) {

  001e8	0f 84 a0 00 00
	00		 je	 $LN45@SetContTen
  001ee	89 13		 mov	 DWORD PTR [ebx], edx
  001f0	8b 47 e8	 mov	 eax, DWORD PTR [edi-24]
  001f3	89 46 e8	 mov	 DWORD PTR [esi-24], eax
  001f6	8b 47 ec	 mov	 eax, DWORD PTR [edi-20]
  001f9	89 46 ec	 mov	 DWORD PTR [esi-20], eax
  001fc	8b 47 f0	 mov	 eax, DWORD PTR [edi-16]
  001ff	89 46 f0	 mov	 DWORD PTR [esi-16], eax
  00202	8b 47 f4	 mov	 eax, DWORD PTR [edi-12]
  00205	89 46 f4	 mov	 DWORD PTR [esi-12], eax
; File C:\Program Files\Microsoft Visual Studio\2022\Professional\VC\Tools\MSVC\14.44.35207\include\vector

; 800  :         if (this == _STD addressof(_Right)) {

  00208	3b f7		 cmp	 esi, edi
  0020a	74 32		 je	 SHORT $LN68@SetContTen

; 801  :             return *this;
; 802  :         }
; 803  : 
; 804  :         _Alty& _Al                = _Getal();
; 805  :         _Alty& _Right_al          = _Right._Getal();
; 806  :         constexpr auto _Pocma_val = _Choose_pocma_v<_Alty>;
; 807  :         if constexpr (_Pocma_val == _Pocma_values::_No_propagate_allocators) {
; 808  :             if (_Al != _Right_al) {
; 809  :                 _Move_assign_unequal_alloc(_Right);
; 810  :                 return *this;
; 811  :             }
; 812  :         }
; 813  : 
; 814  :         _Tidy();

  0020c	8d 4e f8	 lea	 ecx, DWORD PTR [esi-8]
  0020f	e8 00 00 00 00	 call	 ?_Tidy@?$vector@KV?$allocator@K@std@@@std@@AAEXXZ ; std::vector<unsigned long,std::allocator<unsigned long> >::_Tidy

; 427  :         _Myfirst = _Right._Myfirst;

  00214	8b 47 f8	 mov	 eax, DWORD PTR [edi-8]
  00217	89 46 f8	 mov	 DWORD PTR [esi-8], eax

; 428  :         _Mylast  = _Right._Mylast;

  0021a	8b b5 1c ff ff
	ff		 mov	 esi, DWORD PTR tv1161[ebp]
  00220	8b 47 fc	 mov	 eax, DWORD PTR [edi-4]
  00223	89 46 fc	 mov	 DWORD PTR [esi-4], eax

; 429  :         _Myend   = _Right._Myend;

  00226	8b 07		 mov	 eax, DWORD PTR [edi]
  00228	89 06		 mov	 DWORD PTR [esi], eax

; 430  : 
; 431  :         _Right._Myfirst = nullptr;

  0022a	c7 47 f8 00 00
	00 00		 mov	 DWORD PTR [edi-8], 0

; 432  :         _Right._Mylast  = nullptr;

  00231	c7 47 fc 00 00
	00 00		 mov	 DWORD PTR [edi-4], 0

; 433  :         _Right._Myend   = nullptr;

  00238	c7 07 00 00 00
	00		 mov	 DWORD PTR [edi], 0
$LN68@SetContTen:

; 800  :         if (this == _STD addressof(_Right)) {

  0023e	8d 46 04	 lea	 eax, DWORD PTR [esi+4]
  00241	8d 4f 04	 lea	 ecx, DWORD PTR [edi+4]
  00244	3b c1		 cmp	 eax, ecx
  00246	74 2e		 je	 SHORT $LN78@SetContTen

; 801  :             return *this;
; 802  :         }
; 803  : 
; 804  :         _Alty& _Al                = _Getal();
; 805  :         _Alty& _Right_al          = _Right._Getal();
; 806  :         constexpr auto _Pocma_val = _Choose_pocma_v<_Alty>;
; 807  :         if constexpr (_Pocma_val == _Pocma_values::_No_propagate_allocators) {
; 808  :             if (_Al != _Right_al) {
; 809  :                 _Move_assign_unequal_alloc(_Right);
; 810  :                 return *this;
; 811  :             }
; 812  :         }
; 813  : 
; 814  :         _Tidy();

  00248	8b c8		 mov	 ecx, eax
  0024a	e8 00 00 00 00	 call	 ?_Tidy@?$vector@U__SECRETROOM_MONSTER@@V?$allocator@U__SECRETROOM_MONSTER@@@std@@@std@@AAEXXZ ; std::vector<__SECRETROOM_MONSTER,std::allocator<__SECRETROOM_MONSTER> >::_Tidy

; 427  :         _Myfirst = _Right._Myfirst;

  0024f	8b 47 04	 mov	 eax, DWORD PTR [edi+4]
  00252	89 46 04	 mov	 DWORD PTR [esi+4], eax

; 428  :         _Mylast  = _Right._Mylast;

  00255	8b 47 08	 mov	 eax, DWORD PTR [edi+8]
  00258	89 46 08	 mov	 DWORD PTR [esi+8], eax

; 429  :         _Myend   = _Right._Myend;

  0025b	8b 47 0c	 mov	 eax, DWORD PTR [edi+12]
  0025e	89 46 0c	 mov	 DWORD PTR [esi+12], eax

; 430  : 
; 431  :         _Right._Myfirst = nullptr;

  00261	c7 47 04 00 00
	00 00		 mov	 DWORD PTR [edi+4], 0

; 432  :         _Right._Mylast  = nullptr;

  00268	c7 47 08 00 00
	00 00		 mov	 DWORD PTR [edi+8], 0

; 433  :         _Right._Myend   = nullptr;

  0026f	c7 47 0c 00 00
	00 00		 mov	 DWORD PTR [edi+12], 0
$LN78@SetContTen:
  00276	8b 85 24 ff ff
	ff		 mov	 eax, DWORD PTR __UFirst$1$[ebp]
; File C:\Program Files\Microsoft Visual Studio\2022\Professional\VC\Tools\MSVC\14.44.35207\include\xmemory

; 2340 :                 ++_UNext;

  0027c	83 c3 2c	 add	 ebx, 44			; 0000002cH
  0027f	8b 8d 20 ff ff
	ff		 mov	 ecx, DWORD PTR _pUser$GSCopy$1$[ebp]
  00285	83 c6 2c	 add	 esi, 44			; 0000002cH
  00288	89 b5 1c ff ff
	ff		 mov	 DWORD PTR tv1161[ebp], esi
$LN45@SetContTen:

; 2316 : #if _USE_STD_VECTOR_ALGORITHMS
; 2317 :         if constexpr (_Vector_alg_in_find_is_safe<decltype(_UFirst), _Ty>) {
; 2318 : #if _HAS_CXX20
; 2319 :             if (!_STD is_constant_evaluated())
; 2320 : #endif // _HAS_CXX20
; 2321 :             {
; 2322 :                 const auto _First_ptr = _STD _To_address(_UFirst);
; 2323 :                 const auto _Result    = _STD _Remove_vectorized(_First_ptr, _STD _To_address(_ULast), _Val);
; 2324 : 
; 2325 :                 if constexpr (is_pointer_v<decltype(_UNext)>) {
; 2326 :                     _UNext = _Result;
; 2327 :                 } else {
; 2328 :                     _UNext += _Result - _First_ptr;
; 2329 :                 }
; 2330 : 
; 2331 :                 _STD _Seek_wrapped(_First, _UNext);
; 2332 :                 return _First;
; 2333 :             }
; 2334 :         }
; 2335 : #endif // _USE_STD_VECTOR_ALGORITHMS
; 2336 : 
; 2337 :         while (++_UFirst != _ULast) {

  0028e	83 c0 2c	 add	 eax, 44			; 0000002cH
  00291	83 c7 2c	 add	 edi, 44			; 0000002cH
  00294	89 85 24 ff ff
	ff		 mov	 DWORD PTR __UFirst$1$[ebp], eax
  0029a	3b 85 18 ff ff
	ff		 cmp	 eax, DWORD PTR tv1187[ebp]
  002a0	0f 85 3a ff ff
	ff		 jne	 $LL42@SetContTen
  002a6	8b b5 20 ff ff
	ff		 mov	 esi, DWORD PTR _pUser$GSCopy$1$[ebp]
$LN43@SetContTen:
; File C:\IAGOS\server\v18\Source\Source\_Common\SecretRoom.cpp

; 915  : 	m_vecSecretRoomTender.erase( remove( m_vecSecretRoomTender.begin(), m_vecSecretRoomTender.end(), pUser->m_idGuild ) );

  002ac	8b 8d 14 ff ff
	ff		 mov	 ecx, DWORD PTR tv1189[ebp]
  002b2	8d 85 18 ff ff
	ff		 lea	 eax, DWORD PTR $T2[ebp]
  002b8	53		 push	 ebx
  002b9	50		 push	 eax
  002ba	e8 00 00 00 00	 call	 ?erase@?$vector@U__SECRETROOM_TENDER@@V?$allocator@U__SECRETROOM_TENDER@@@std@@@std@@QAE?AV?$_Vector_iterator@V?$_Vector_val@U?$_Simple_types@U__SECRETROOM_TENDER@@@std@@@std@@@2@V?$_Vector_const_iterator@V?$_Vector_val@U?$_Simple_types@U__SECRETROOM_TENDER@@@std@@@std@@@2@@Z ; std::vector<__SECRETROOM_TENDER,std::allocator<__SECRETROOM_TENDER> >::erase

; 916  : 	pUser->AddGold( nPenya );

  002bf	8b bd 10 ff ff
	ff		 mov	 edi, DWORD PTR _nPenya$1$[ebp]
  002c5	8b ce		 mov	 ecx, esi
  002c7	6a 01		 push	 1
  002c9	57		 push	 edi
  002ca	e8 00 00 00 00	 call	 ?AddGold@CMover@@QAEHHH@Z ; CMover::AddGold

; 917  : 	pUser->AddDefinedText( TID_GAME_SECRETROOM_CANCELRETURN, "%d", nPenya );

  002cf	57		 push	 edi
  002d0	68 00 00 00 00	 push	 OFFSET ??_C@_02DPKJAMEF@?$CFd@
  002d5	68 79 0e 00 00	 push	 3705			; 00000e79H
  002da	56		 push	 esi
  002db	e8 00 00 00 00	 call	 ?AddDefinedText@CUser@@QAAXHPBDZZ ; CUser::AddDefinedText

; 918  : 
; 919  : 	//·Î±×
; 920  : 	aLogItem.Gold2 = pUser->GetGold();

  002e0	8b 86 e0 14 00
	00		 mov	 eax, DWORD PTR [esi+5344]
  002e6	83 c4 10	 add	 esp, 16			; 00000010H
  002e9	89 85 3c ff ff
	ff		 mov	 DWORD PTR _aLogItem$[ebp+20], eax

; 921  : 	aLogItem.Gold_1 = nPenya;
; 922  : 	g_DPSrvr.OnLogItem( aLogItem );

  002ef	b9 00 00 00 00	 mov	 ecx, OFFSET ?g_DPSrvr@@3VCDPSrvr@@A ; g_DPSrvr
  002f4	8d 85 28 ff ff
	ff		 lea	 eax, DWORD PTR _aLogItem$[ebp]
  002fa	89 bd 74 ff ff
	ff		 mov	 DWORD PTR _aLogItem$[ebp+76], edi
  00300	6a 00		 push	 0
  00302	6a 00		 push	 0
  00304	50		 push	 eax
  00305	e8 00 00 00 00	 call	 ?OnLogItem@CDPSrvr@@QAEXAAU_LogItemInfo@@PAVCItemElem@@H@Z ; CDPSrvr::OnLogItem
$LN1@SetContTen:

; 923  : }

  0030a	8b 4d f4	 mov	 ecx, DWORD PTR __$EHRec$[ebp]
  0030d	64 89 0d 00 00
	00 00		 mov	 DWORD PTR fs:0, ecx
  00314	59		 pop	 ecx
  00315	5f		 pop	 edi
  00316	5e		 pop	 esi
  00317	5b		 pop	 ebx
  00318	8b 4d f0	 mov	 ecx, DWORD PTR __$ArrayPad$[ebp]
  0031b	33 cd		 xor	 ecx, ebp
  0031d	e8 00 00 00 00	 call	 @__security_check_cookie@4
  00322	8b e5		 mov	 esp, ebp
  00324	5d		 pop	 ebp
  00325	c2 04 00	 ret	 4
_TEXT	ENDS
;	COMDAT text$x
text$x	SEGMENT
__unwindfunclet$?SetContTenderCancelReturn@CSecretRoomContinent@@QAEXPAVCUser@@@Z$0:
  00000	8d 8d 24 ff ff
	ff		 lea	 ecx, DWORD PTR $T3[ebp]
  00006	e9 00 00 00 00	 jmp	 ??1?$CStringT@DV?$StrTraitMFC@DV?$ChTraitsCRT@D@ATL@@@@@ATL@@QAE@XZ ; ATL::CStringT<char,StrTraitMFC<char,ATL::ChTraitsCRT<char> > >::~CStringT<char,StrTraitMFC<char,ATL::ChTraitsCRT<char> > >
  0000b	cc		 int	 3
  0000c	cc		 int	 3
  0000d	cc		 int	 3
  0000e	cc		 int	 3
  0000f	cc		 int	 3
__ehhandler$?SetContTenderCancelReturn@CSecretRoomContinent@@QAEXPAVCUser@@@Z:
  00010	90		 npad	 1
  00011	90		 npad	 1
  00012	8b 54 24 08	 mov	 edx, DWORD PTR [esp+8]
  00016	8d 42 0c	 lea	 eax, DWORD PTR [edx+12]
  00019	8b 8a 0c ff ff
	ff		 mov	 ecx, DWORD PTR [edx-244]
  0001f	33 c8		 xor	 ecx, eax
  00021	e8 00 00 00 00	 call	 @__security_check_cookie@4
  00026	8b 4a fc	 mov	 ecx, DWORD PTR [edx-4]
  00029	33 c8		 xor	 ecx, eax
  0002b	e8 00 00 00 00	 call	 @__security_check_cookie@4
  00030	b8 00 00 00 00	 mov	 eax, OFFSET __ehfuncinfo$?SetContTenderCancelReturn@CSecretRoomContinent@@QAEXPAVCUser@@@Z
  00035	e9 00 00 00 00	 jmp	 ___CxxFrameHandler3
text$x	ENDS
?SetContTenderCancelReturn@CSecretRoomContinent@@QAEXPAVCUser@@@Z ENDP ; CSecretRoomContinent::SetContTenderCancelReturn
; Function compile flags: /Ogtp
; File C:\IAGOS\server\v18\Source\Source\_Common\SecretRoom.cpp
; File C:\Program Files\Microsoft Visual Studio\2022\Professional\VC\Tools\MSVC\14.44.35207\include\vector
; File C:\IAGOS\server\v18\Source\Source\_Common\SecretRoom.cpp
; File C:\Program Files\Microsoft Visual Studio\2022\Professional\VC\Tools\MSVC\14.44.35207\include\vector
; File C:\IAGOS\server\v18\Source\Source\_Common\SecretRoom.cpp
; File C:\Program Files\Microsoft Visual Studio\2022\Professional\VC\Tools\MSVC\14.44.35207\include\vector
; File C:\IAGOS\server\v18\Source\Source\_Common\SecretRoom.cpp
; File C:\Program Files\Microsoft Visual Studio\2022\Professional\VC\Tools\MSVC\14.44.35207\include\vector
; File C:\Program Files\Microsoft Visual Studio\2022\Professional\VC\Tools\MSVC\14.44.35207\include\xmemory
; File C:\Program Files\Microsoft Visual Studio\2022\Professional\VC\Tools\MSVC\14.44.35207\include\vector
; File C:\IAGOS\server\v18\Source\Source\_Common\SecretRoom.cpp
; File C:\Program Files\Microsoft Visual Studio\2022\Professional\VC\Tools\MSVC\14.44.35207\include\vector
; File C:\IAGOS\server\v18\Source\Source\_Common\SecretRoom.cpp
; File C:\Program Files\Microsoft Visual Studio\2022\Professional\VC\Tools\MSVC\14.44.35207\include\vector
; File C:\Program Files\Microsoft Visual Studio\2022\Professional\VC\Tools\MSVC\14.44.35207\include\xmemory
; File C:\Program Files\Microsoft Visual Studio\2022\Professional\VC\Tools\MSVC\14.44.35207\include\vector
; File C:\Program Files\Microsoft Visual Studio\2022\Professional\VC\Tools\MSVC\14.44.35207\include\xmemory
; File C:\Program Files\Microsoft Visual Studio\2022\Professional\VC\Tools\MSVC\14.44.35207\include\vector
; File C:\IAGOS\server\v18\Source\Source\_Common\SecretRoom.cpp
; File C:\Program Files\Microsoft Visual Studio\2022\Professional\VC\Tools\MSVC\14.44.35207\include\vector
; File C:\IAGOS\server\v18\Source\Source\_Common\SecretRoom.cpp
; File C:\Program Files\Microsoft Visual Studio\2022\Professional\VC\Tools\MSVC\14.44.35207\include\vector
; File C:\IAGOS\server\v18\Source\Source\_Common\SecretRoom.cpp
; File C:\Program Files\Microsoft Visual Studio\2022\Professional\VC\Tools\MSVC\14.44.35207\include\vector
; File C:\IAGOS\server\v18\Source\Source\_Common\SecretRoom.cpp
; File C:\Program Files\Microsoft Visual Studio\2022\Professional\VC\Tools\MSVC\14.44.35207\include\vector
; File C:\IAGOS\server\v18\Source\Source\_Common\SecretRoom.cpp
; File C:\Program Files\Microsoft Visual Studio\2022\Professional\VC\Tools\MSVC\14.44.35207\include\xmemory
; File C:\Program Files\Microsoft Visual Studio\2022\Professional\VC\Tools\MSVC\14.44.35207\include\vector
; File C:\IAGOS\server\v18\Source\Source\_Common\SecretRoom.cpp
;	COMDAT ?SortTenderGuild@CSecretRoomContinent@@QAEXXZ
_TEXT	SEGMENT
_temp$2 = -72						; size = 44
_this$1$ = -28						; size = 4
tv898 = -24						; size = 4
_i$1$ = -20						; size = 4
_j$1$ = -16						; size = 4
__$EHRec$ = -12						; size = 12
?SortTenderGuild@CSecretRoomContinent@@QAEXXZ PROC	; CSecretRoomContinent::SortTenderGuild, COMDAT
; _this$ = ecx

; 865  : {

  00000	55		 push	 ebp
  00001	8b ec		 mov	 ebp, esp
  00003	6a ff		 push	 -1
  00005	68 00 00 00 00	 push	 __ehhandler$?SortTenderGuild@CSecretRoomContinent@@QAEXXZ
  0000a	64 a1 00 00 00
	00		 mov	 eax, DWORD PTR fs:0
  00010	50		 push	 eax
  00011	83 ec 3c	 sub	 esp, 60			; 0000003cH
  00014	53		 push	 ebx
  00015	56		 push	 esi
  00016	57		 push	 edi
  00017	a1 00 00 00 00	 mov	 eax, DWORD PTR ___security_cookie
  0001c	33 c5		 xor	 eax, ebp
  0001e	50		 push	 eax
  0001f	8d 45 f4	 lea	 eax, DWORD PTR __$EHRec$[ebp]
  00022	64 a3 00 00 00
	00		 mov	 DWORD PTR fs:0, eax
  00028	89 4d e4	 mov	 DWORD PTR _this$1$[ebp], ecx
; File C:\Program Files\Microsoft Visual Studio\2022\Professional\VC\Tools\MSVC\14.44.35207\include\vector

; 1915 :         return static_cast<size_type>(_My_data._Mylast - _My_data._Myfirst);

  0002b	8b 59 14	 mov	 ebx, DWORD PTR [ecx+20]
  0002e	b8 e9 a2 8b 2e	 mov	 eax, 780903145		; 2e8ba2e9H
  00033	8b 71 10	 mov	 esi, DWORD PTR [ecx+16]
  00036	8b d3		 mov	 edx, ebx
  00038	2b d6		 sub	 edx, esi
  0003a	f7 ea		 imul	 edx
  0003c	c1 fa 03	 sar	 edx, 3
  0003f	8b c2		 mov	 eax, edx
  00041	c1 e8 1f	 shr	 eax, 31			; 0000001fH
  00044	03 c2		 add	 eax, edx
; File C:\IAGOS\server\v18\Source\Source\_Common\SecretRoom.cpp

; 869  : 	if( m_vecSecretRoomTender.size() < 2 )

  00046	83 f8 02	 cmp	 eax, 2
  00049	0f 82 2b 02 00
	00		 jb	 $LN126@SortTender

; 871  : 	for( DWORD i=0; i<m_vecSecretRoomTender.size()-1; i++ )

  0004f	33 ff		 xor	 edi, edi
  00051	89 7d ec	 mov	 DWORD PTR _i$1$[ebp], edi
  00054	83 c0 ff	 add	 eax, -1
  00057	0f 84 1d 02 00
	00		 je	 $LN126@SortTender
  0005d	0f 1f 00	 npad	 3
$LL4@SortTender:

; 873  : 		for( DWORD j=0; j<m_vecSecretRoomTender.size()-i-1; j++ )

  00060	33 c9		 xor	 ecx, ecx
; File C:\Program Files\Microsoft Visual Studio\2022\Professional\VC\Tools\MSVC\14.44.35207\include\vector

; 1915 :         return static_cast<size_type>(_My_data._Mylast - _My_data._Myfirst);

  00062	b8 e9 a2 8b 2e	 mov	 eax, 780903145		; 2e8ba2e9H
; File C:\IAGOS\server\v18\Source\Source\_Common\SecretRoom.cpp

; 873  : 		for( DWORD j=0; j<m_vecSecretRoomTender.size()-i-1; j++ )

  00067	89 4d f0	 mov	 DWORD PTR _j$1$[ebp], ecx
; File C:\Program Files\Microsoft Visual Studio\2022\Professional\VC\Tools\MSVC\14.44.35207\include\vector

; 1915 :         return static_cast<size_type>(_My_data._Mylast - _My_data._Myfirst);

  0006a	8b cb		 mov	 ecx, ebx
  0006c	2b ce		 sub	 ecx, esi
  0006e	f7 e9		 imul	 ecx
  00070	c1 fa 03	 sar	 edx, 3
  00073	8b c2		 mov	 eax, edx
  00075	c1 e8 1f	 shr	 eax, 31			; 0000001fH
  00078	03 c2		 add	 eax, edx
; File C:\IAGOS\server\v18\Source\Source\_Common\SecretRoom.cpp

; 873  : 		for( DWORD j=0; j<m_vecSecretRoomTender.size()-i-1; j++ )

  0007a	2b c7		 sub	 eax, edi
  0007c	83 e8 01	 sub	 eax, 1
  0007f	0f 84 d3 01 00
	00		 je	 $LN2@SortTender
  00085	33 ff		 xor	 edi, edi
  00087	89 7d e8	 mov	 DWORD PTR tv898[ebp], edi
  0008a	66 0f 1f 44 00
	00		 npad	 6
$LL7@SortTender:

; 874  : 		{
; 875  : 			if( m_vecSecretRoomTender[j].nPenya < m_vecSecretRoomTender[j+1].nPenya )

  00090	8b 4c 37 04	 mov	 ecx, DWORD PTR [edi+esi+4]
  00094	3b 4c 37 30	 cmp	 ecx, DWORD PTR [edi+esi+48]
  00098	0f 8d 83 01 00
	00		 jge	 $LN5@SortTender
  0009e	8b 04 37	 mov	 eax, DWORD PTR [edi+esi]
  000a1	89 45 b8	 mov	 DWORD PTR _temp$2[ebp], eax
  000a4	8b 44 37 08	 mov	 eax, DWORD PTR [edi+esi+8]
  000a8	89 45 c0	 mov	 DWORD PTR _temp$2[ebp+8], eax
  000ab	8b 44 37 0c	 mov	 eax, DWORD PTR [edi+esi+12]
  000af	89 45 c4	 mov	 DWORD PTR _temp$2[ebp+12], eax
  000b2	8b 44 37 10	 mov	 eax, DWORD PTR [edi+esi+16]
  000b6	89 45 c8	 mov	 DWORD PTR _temp$2[ebp+16], eax
  000b9	8d 46 14	 lea	 eax, DWORD PTR [esi+20]
  000bc	03 c7		 add	 eax, edi
  000be	89 4d bc	 mov	 DWORD PTR _temp$2[ebp+4], ecx
  000c1	50		 push	 eax
  000c2	8d 4d cc	 lea	 ecx, DWORD PTR _temp$2[ebp+20]
  000c5	e8 00 00 00 00	 call	 ??0?$vector@KV?$allocator@K@std@@@std@@QAE@ABV01@@Z ; std::vector<unsigned long,std::allocator<unsigned long> >::vector<unsigned long,std::allocator<unsigned long> >
; File C:\Program Files\Microsoft Visual Studio\2022\Professional\VC\Tools\MSVC\14.44.35207\include\vector

; 748  :         const auto _Count       = static_cast<size_type>(_Right_data._Mylast - _Right_data._Myfirst);

  000ca	8b 44 37 24	 mov	 eax, DWORD PTR [edi+esi+36]
  000ce	2b 44 37 20	 sub	 eax, DWORD PTR [edi+esi+32]
  000d2	c1 f8 05	 sar	 eax, 5
  000d5	c7 45 fc 00 00
	00 00		 mov	 DWORD PTR __$EHRec$[ebp+8], 0

; 400  :     _CONSTEXPR20 _Vector_val() noexcept : _Myfirst(), _Mylast(), _Myend() {}

  000dc	c7 45 d8 00 00
	00 00		 mov	 DWORD PTR _temp$2[ebp+32], 0
  000e3	c7 45 dc 00 00
	00 00		 mov	 DWORD PTR _temp$2[ebp+36], 0
  000ea	c7 45 e0 00 00
	00 00		 mov	 DWORD PTR _temp$2[ebp+40], 0

; 2111 :         if (_Count != 0) {

  000f1	85 c0		 test	 eax, eax
  000f3	74 37		 je	 SHORT $LN64@SortTender

; 2051 :         if (_Newcapacity > max_size()) {

  000f5	3d ff ff ff 07	 cmp	 eax, 134217727		; 07ffffffH
  000fa	0f 87 9b 01 00
	00		 ja	 $LN122@SortTender

; 2053 :         }
; 2054 : 
; 2055 :         _Buy_raw(_Newcapacity);

  00100	50		 push	 eax
  00101	8d 4d d8	 lea	 ecx, DWORD PTR _temp$2[ebp+32]
  00104	e8 00 00 00 00	 call	 ?_Buy_raw@?$vector@U__SECRETROOM_MONSTER@@V?$allocator@U__SECRETROOM_MONSTER@@@std@@@std@@AAEXI@Z ; std::vector<__SECRETROOM_MONSTER,std::allocator<__SECRETROOM_MONSTER> >::_Buy_raw

; 2120 :                 _My_data._Mylast = _STD _Uninitialized_copy(_STD forward<_Valty>(_Val)..., _My_data._Myfirst, _Al);

  00109	8b 5c 37 24	 mov	 ebx, DWORD PTR [edi+esi+36]
; File C:\Program Files\Microsoft Visual Studio\2022\Professional\VC\Tools\MSVC\14.44.35207\include\xmemory

; 1876 :     auto _UFirst = _STD _Get_unwrapped(_STD move(_First));

  0010d	8b 74 37 20	 mov	 esi, DWORD PTR [edi+esi+32]

; 1877 :     auto _ULast  = _STD _Get_unwrapped(_STD move(_Last));
; 1878 : #endif // ^^^ !_HAS_CXX20 ^^^
; 1879 : 
; 1880 :     constexpr bool _Can_memmove = _Sent_copy_cat<decltype(_UFirst), decltype(_ULast), _Ptrval>::_Bitcopy_constructible
; 1881 :                                && _Uses_default_construct<_Alloc, _Ptrval, decltype(*_UFirst)>::value;
; 1882 : 
; 1883 :     if constexpr (_Can_memmove) {
; 1884 : #if _HAS_CXX20
; 1885 :         if (!_STD is_constant_evaluated())
; 1886 : #endif // _HAS_CXX20
; 1887 :         {
; 1888 :             if constexpr (is_same_v<decltype(_UFirst), decltype(_ULast)>) {
; 1889 :                 _STD _Copy_memmove(_STD _To_address(_UFirst), _STD _To_address(_ULast), _STD _Unfancy(_Dest));

  00111	8b 7d d8	 mov	 edi, DWORD PTR _temp$2[ebp+32]
  00114	57		 push	 edi
  00115	53		 push	 ebx
  00116	56		 push	 esi
  00117	e8 00 00 00 00	 call	 ??$_Copy_memmove@PAU__SECRETROOM_MONSTER@@PAU1@@std@@YAPAU__SECRETROOM_MONSTER@@PAU1@00@Z ; std::_Copy_memmove<__SECRETROOM_MONSTER *,__SECRETROOM_MONSTER *>

; 1890 :                 _Dest += _ULast - _UFirst;

  0011c	2b de		 sub	 ebx, esi
  0011e	83 c4 0c	 add	 esp, 12			; 0000000cH
  00121	83 e3 e0	 and	 ebx, -32		; ffffffe0H
  00124	03 df		 add	 ebx, edi
  00126	8b 7d e8	 mov	 edi, DWORD PTR tv898[ebp]
; File C:\Program Files\Microsoft Visual Studio\2022\Professional\VC\Tools\MSVC\14.44.35207\include\vector

; 2120 :                 _My_data._Mylast = _STD _Uninitialized_copy(_STD forward<_Valty>(_Val)..., _My_data._Myfirst, _Al);

  00129	89 5d dc	 mov	 DWORD PTR _temp$2[ebp+36], ebx
$LN64@SortTender:

; 1934 :         return _My_data._Myfirst[_Pos];

  0012c	8b 5d e4	 mov	 ebx, DWORD PTR _this$1$[ebp]
; File C:\IAGOS\server\v18\Source\Source\_Common\SecretRoom.cpp

; 877  : 				__SECRETROOM_TENDER temp = m_vecSecretRoomTender[j];

  0012f	c7 45 fc 01 00
	00 00		 mov	 DWORD PTR __$EHRec$[ebp+8], 1
; File C:\Program Files\Microsoft Visual Studio\2022\Professional\VC\Tools\MSVC\14.44.35207\include\vector

; 1934 :         return _My_data._Myfirst[_Pos];

  00136	8b 73 10	 mov	 esi, DWORD PTR [ebx+16]
  00139	03 f7		 add	 esi, edi
  0013b	8b 46 2c	 mov	 eax, DWORD PTR [esi+44]
  0013e	8d 4e 14	 lea	 ecx, DWORD PTR [esi+20]
  00141	89 06		 mov	 DWORD PTR [esi], eax
  00143	8b 46 30	 mov	 eax, DWORD PTR [esi+48]
  00146	89 46 04	 mov	 DWORD PTR [esi+4], eax
  00149	8b 46 34	 mov	 eax, DWORD PTR [esi+52]
  0014c	89 46 08	 mov	 DWORD PTR [esi+8], eax
  0014f	8b 46 38	 mov	 eax, DWORD PTR [esi+56]
  00152	89 46 0c	 mov	 DWORD PTR [esi+12], eax
  00155	8b 46 3c	 mov	 eax, DWORD PTR [esi+60]
  00158	89 46 10	 mov	 DWORD PTR [esi+16], eax
  0015b	8d 46 40	 lea	 eax, DWORD PTR [esi+64]
  0015e	50		 push	 eax
  0015f	e8 00 00 00 00	 call	 ??4?$vector@KV?$allocator@K@std@@@std@@QAEAAV01@ABV01@@Z ; std::vector<unsigned long,std::allocator<unsigned long> >::operator=
  00164	8d 46 4c	 lea	 eax, DWORD PTR [esi+76]
  00167	8d 4e 20	 lea	 ecx, DWORD PTR [esi+32]

; 1524 :         if (this == _STD addressof(_Right)) {

  0016a	3b c8		 cmp	 ecx, eax
  0016c	74 11		 je	 SHORT $LN78@SortTender

; 1525 :             return *this;
; 1526 :         }
; 1527 : 
; 1528 :         auto& _Al       = _Getal();
; 1529 :         auto& _Right_al = _Right._Getal();
; 1530 :         if constexpr (_Choose_pocca_v<_Alty>) {
; 1531 :             if (_Al != _Right_al) {
; 1532 :                 _Tidy();
; 1533 :                 _Mypair._Myval2._Reload_proxy(_GET_PROXY_ALLOCATOR(_Alty, _Al), _GET_PROXY_ALLOCATOR(_Alty, _Right_al));
; 1534 :             }
; 1535 :         }
; 1536 : 
; 1537 :         _Pocca(_Al, _Right_al);
; 1538 :         auto& _Right_data = _Right._Mypair._Myval2;
; 1539 :         _Assign_counted_range(_Right_data._Myfirst, static_cast<size_type>(_Right_data._Mylast - _Right_data._Myfirst));

  0016e	8b 10		 mov	 edx, DWORD PTR [eax]
  00170	8b 40 04	 mov	 eax, DWORD PTR [eax+4]
  00173	2b c2		 sub	 eax, edx
  00175	c1 f8 05	 sar	 eax, 5
  00178	50		 push	 eax
  00179	52		 push	 edx
  0017a	e8 00 00 00 00	 call	 ??$_Assign_counted_range@PAU__SECRETROOM_MONSTER@@@?$vector@U__SECRETROOM_MONSTER@@V?$allocator@U__SECRETROOM_MONSTER@@@std@@@std@@AAEXPAU__SECRETROOM_MONSTER@@I@Z ; std::vector<__SECRETROOM_MONSTER,std::allocator<__SECRETROOM_MONSTER> >::_Assign_counted_range<__SECRETROOM_MONSTER *>
$LN78@SortTender:

; 1934 :         return _My_data._Myfirst[_Pos];

  0017f	8b 73 10	 mov	 esi, DWORD PTR [ebx+16]
  00182	8b 45 b8	 mov	 eax, DWORD PTR _temp$2[ebp]
  00185	03 f7		 add	 esi, edi
  00187	89 46 2c	 mov	 DWORD PTR [esi+44], eax
  0018a	8d 4e 40	 lea	 ecx, DWORD PTR [esi+64]
  0018d	8b 45 bc	 mov	 eax, DWORD PTR _temp$2[ebp+4]
  00190	89 46 30	 mov	 DWORD PTR [esi+48], eax
  00193	8b 45 c0	 mov	 eax, DWORD PTR _temp$2[ebp+8]
  00196	89 46 34	 mov	 DWORD PTR [esi+52], eax
  00199	8b 45 c4	 mov	 eax, DWORD PTR _temp$2[ebp+12]
  0019c	89 46 38	 mov	 DWORD PTR [esi+56], eax
  0019f	8b 45 c8	 mov	 eax, DWORD PTR _temp$2[ebp+16]
  001a2	89 46 3c	 mov	 DWORD PTR [esi+60], eax
  001a5	8d 45 cc	 lea	 eax, DWORD PTR _temp$2[ebp+20]
  001a8	50		 push	 eax
  001a9	e8 00 00 00 00	 call	 ??4?$vector@KV?$allocator@K@std@@@std@@QAEAAV01@ABV01@@Z ; std::vector<unsigned long,std::allocator<unsigned long> >::operator=
  001ae	8d 4e 4c	 lea	 ecx, DWORD PTR [esi+76]

; 1524 :         if (this == _STD addressof(_Right)) {

  001b1	8b 75 d8	 mov	 esi, DWORD PTR _temp$2[ebp+32]
  001b4	8d 45 d8	 lea	 eax, DWORD PTR _temp$2[ebp+32]
  001b7	3b c8		 cmp	 ecx, eax
  001b9	74 0f		 je	 SHORT $LN86@SortTender

; 1525 :             return *this;
; 1526 :         }
; 1527 : 
; 1528 :         auto& _Al       = _Getal();
; 1529 :         auto& _Right_al = _Right._Getal();
; 1530 :         if constexpr (_Choose_pocca_v<_Alty>) {
; 1531 :             if (_Al != _Right_al) {
; 1532 :                 _Tidy();
; 1533 :                 _Mypair._Myval2._Reload_proxy(_GET_PROXY_ALLOCATOR(_Alty, _Al), _GET_PROXY_ALLOCATOR(_Alty, _Right_al));
; 1534 :             }
; 1535 :         }
; 1536 : 
; 1537 :         _Pocca(_Al, _Right_al);
; 1538 :         auto& _Right_data = _Right._Mypair._Myval2;
; 1539 :         _Assign_counted_range(_Right_data._Myfirst, static_cast<size_type>(_Right_data._Mylast - _Right_data._Myfirst));

  001bb	8b 45 dc	 mov	 eax, DWORD PTR _temp$2[ebp+36]
  001be	2b c6		 sub	 eax, esi
  001c0	c1 f8 05	 sar	 eax, 5
  001c3	50		 push	 eax
  001c4	56		 push	 esi
  001c5	e8 00 00 00 00	 call	 ??$_Assign_counted_range@PAU__SECRETROOM_MONSTER@@@?$vector@U__SECRETROOM_MONSTER@@V?$allocator@U__SECRETROOM_MONSTER@@@std@@@std@@AAEXPAU__SECRETROOM_MONSTER@@I@Z ; std::vector<__SECRETROOM_MONSTER,std::allocator<__SECRETROOM_MONSTER> >::_Assign_counted_range<__SECRETROOM_MONSTER *>
$LN86@SortTender:
; File C:\IAGOS\server\v18\Source\Source\_Common\SecretRoom.cpp

; 880  : 			}

  001ca	c7 45 fc ff ff
	ff ff		 mov	 DWORD PTR __$EHRec$[ebp+8], -1
; File C:\Program Files\Microsoft Visual Studio\2022\Professional\VC\Tools\MSVC\14.44.35207\include\vector

; 2090 :         if (_Myfirst) { // destroy and deallocate old array

  001d1	85 f6		 test	 esi, esi
  001d3	74 44		 je	 SHORT $LN98@SortTender

; 2093 :             _Al.deallocate(_Myfirst, static_cast<size_type>(_Myend - _Myfirst));

  001d5	8b 45 e0	 mov	 eax, DWORD PTR _temp$2[ebp+40]
; File C:\Program Files\Microsoft Visual Studio\2022\Professional\VC\Tools\MSVC\14.44.35207\include\xmemory

; 985  :         _STD _Deallocate<_New_alignof<_Ty>>(_Ptr, sizeof(_Ty) * _Count);

  001d8	8b ce		 mov	 ecx, esi
; File C:\Program Files\Microsoft Visual Studio\2022\Professional\VC\Tools\MSVC\14.44.35207\include\vector

; 2093 :             _Al.deallocate(_Myfirst, static_cast<size_type>(_Myend - _Myfirst));

  001da	2b c6		 sub	 eax, esi
; File C:\Program Files\Microsoft Visual Studio\2022\Professional\VC\Tools\MSVC\14.44.35207\include\xmemory

; 985  :         _STD _Deallocate<_New_alignof<_Ty>>(_Ptr, sizeof(_Ty) * _Count);

  001dc	83 e0 e0	 and	 eax, -32		; ffffffe0H

; 284  :         if (_Bytes >= _Big_allocation_threshold) {

  001df	3d 00 10 00 00	 cmp	 eax, 4096		; 00001000H
  001e4	72 14		 jb	 SHORT $LN111@SortTender

; 205  :     const uintptr_t _Ptr_container   = _Ptr_user[-1];

  001e6	8b 71 fc	 mov	 esi, DWORD PTR [ecx-4]
  001e9	83 c0 23	 add	 eax, 35			; 00000023H
  001ec	2b ce		 sub	 ecx, esi

; 219  :     _STL_VERIFY(_Back_shift >= _Min_back_shift && _Back_shift <= _Non_user_size, "invalid argument");

  001ee	83 c1 fc	 add	 ecx, -4			; fffffffcH
  001f1	83 f9 1f	 cmp	 ecx, 31			; 0000001fH
  001f4	0f 87 92 00 00
	00		 ja	 $LN123@SortTender
$LN111@SortTender:

; 289  :         ::operator delete(_Ptr, _Bytes);

  001fa	50		 push	 eax
  001fb	56		 push	 esi
  001fc	e8 00 00 00 00	 call	 ??3@YAXPAXI@Z		; operator delete
  00201	83 c4 08	 add	 esp, 8
; File C:\Program Files\Microsoft Visual Studio\2022\Professional\VC\Tools\MSVC\14.44.35207\include\vector

; 2095 :             _Myfirst = nullptr;

  00204	c7 45 d8 00 00
	00 00		 mov	 DWORD PTR _temp$2[ebp+32], 0

; 2096 :             _Mylast  = nullptr;

  0020b	c7 45 dc 00 00
	00 00		 mov	 DWORD PTR _temp$2[ebp+36], 0

; 2097 :             _Myend   = nullptr;

  00212	c7 45 e0 00 00
	00 00		 mov	 DWORD PTR _temp$2[ebp+40], 0
$LN98@SortTender:

; 830  :         _Tidy();

  00219	8d 4d cc	 lea	 ecx, DWORD PTR _temp$2[ebp+20]
  0021c	e8 00 00 00 00	 call	 ?_Tidy@?$vector@KV?$allocator@K@std@@@std@@AAEXXZ ; std::vector<unsigned long,std::allocator<unsigned long> >::_Tidy
$LN5@SortTender:

; 1915 :         return static_cast<size_type>(_My_data._Mylast - _My_data._Myfirst);

  00221	8b 45 e4	 mov	 eax, DWORD PTR _this$1$[ebp]
; File C:\IAGOS\server\v18\Source\Source\_Common\SecretRoom.cpp

; 873  : 		for( DWORD j=0; j<m_vecSecretRoomTender.size()-i-1; j++ )

  00224	83 c7 2c	 add	 edi, 44			; 0000002cH
  00227	ff 45 f0	 inc	 DWORD PTR _j$1$[ebp]
  0022a	89 7d e8	 mov	 DWORD PTR tv898[ebp], edi
; File C:\Program Files\Microsoft Visual Studio\2022\Professional\VC\Tools\MSVC\14.44.35207\include\vector

; 1915 :         return static_cast<size_type>(_My_data._Mylast - _My_data._Myfirst);

  0022d	8b 58 14	 mov	 ebx, DWORD PTR [eax+20]
  00230	8b cb		 mov	 ecx, ebx
  00232	8b 70 10	 mov	 esi, DWORD PTR [eax+16]
  00235	2b ce		 sub	 ecx, esi
  00237	b8 e9 a2 8b 2e	 mov	 eax, 780903145		; 2e8ba2e9H
  0023c	f7 e9		 imul	 ecx
  0023e	c1 fa 03	 sar	 edx, 3
  00241	8b c2		 mov	 eax, edx
  00243	c1 e8 1f	 shr	 eax, 31			; 0000001fH
  00246	03 c2		 add	 eax, edx
; File C:\IAGOS\server\v18\Source\Source\_Common\SecretRoom.cpp

; 873  : 		for( DWORD j=0; j<m_vecSecretRoomTender.size()-i-1; j++ )

  00248	2b 45 ec	 sub	 eax, DWORD PTR _i$1$[ebp]
  0024b	48		 dec	 eax
  0024c	39 45 f0	 cmp	 DWORD PTR _j$1$[ebp], eax
  0024f	0f 82 3b fe ff
	ff		 jb	 $LL7@SortTender
  00255	8b 7d ec	 mov	 edi, DWORD PTR _i$1$[ebp]
$LN2@SortTender:
; File C:\Program Files\Microsoft Visual Studio\2022\Professional\VC\Tools\MSVC\14.44.35207\include\vector

; 1915 :         return static_cast<size_type>(_My_data._Mylast - _My_data._Myfirst);

  00258	8b cb		 mov	 ecx, ebx
  0025a	b8 e9 a2 8b 2e	 mov	 eax, 780903145		; 2e8ba2e9H
  0025f	2b ce		 sub	 ecx, esi
; File C:\IAGOS\server\v18\Source\Source\_Common\SecretRoom.cpp

; 871  : 	for( DWORD i=0; i<m_vecSecretRoomTender.size()-1; i++ )

  00261	47		 inc	 edi
; File C:\Program Files\Microsoft Visual Studio\2022\Professional\VC\Tools\MSVC\14.44.35207\include\vector

; 1915 :         return static_cast<size_type>(_My_data._Mylast - _My_data._Myfirst);

  00262	f7 e9		 imul	 ecx
; File C:\IAGOS\server\v18\Source\Source\_Common\SecretRoom.cpp

; 871  : 	for( DWORD i=0; i<m_vecSecretRoomTender.size()-1; i++ )

  00264	89 7d ec	 mov	 DWORD PTR _i$1$[ebp], edi
; File C:\Program Files\Microsoft Visual Studio\2022\Professional\VC\Tools\MSVC\14.44.35207\include\vector

; 1915 :         return static_cast<size_type>(_My_data._Mylast - _My_data._Myfirst);

  00267	c1 fa 03	 sar	 edx, 3
  0026a	8b c2		 mov	 eax, edx
  0026c	c1 e8 1f	 shr	 eax, 31			; 0000001fH
; File C:\IAGOS\server\v18\Source\Source\_Common\SecretRoom.cpp

; 871  : 	for( DWORD i=0; i<m_vecSecretRoomTender.size()-1; i++ )

  0026f	48		 dec	 eax
  00270	03 c2		 add	 eax, edx
  00272	3b f8		 cmp	 edi, eax
  00274	0f 82 e6 fd ff
	ff		 jb	 $LL4@SortTender
$LN126@SortTender:

; 883  : }

  0027a	8b 4d f4	 mov	 ecx, DWORD PTR __$EHRec$[ebp]
  0027d	64 89 0d 00 00
	00 00		 mov	 DWORD PTR fs:0, ecx
  00284	59		 pop	 ecx
  00285	5f		 pop	 edi
  00286	5e		 pop	 esi
  00287	5b		 pop	 ebx
  00288	8b e5		 mov	 esp, ebp
  0028a	5d		 pop	 ebp
  0028b	c3		 ret	 0
$LN123@SortTender:
; File C:\Program Files\Microsoft Visual Studio\2022\Professional\VC\Tools\MSVC\14.44.35207\include\xmemory

; 219  :     _STL_VERIFY(_Back_shift >= _Min_back_shift && _Back_shift <= _Non_user_size, "invalid argument");

  0028c	6a 00		 push	 0
  0028e	6a 00		 push	 0
  00290	6a 00		 push	 0
  00292	6a 00		 push	 0
  00294	6a 00		 push	 0
  00296	e8 00 00 00 00	 call	 __invoke_watson
$LN122@SortTender:
; File C:\Program Files\Microsoft Visual Studio\2022\Professional\VC\Tools\MSVC\14.44.35207\include\vector

; 2052 :             _Xlength();

  0029b	e8 00 00 00 00	 call	 ?_Xlength@?$vector@U__SECRETROOM_MONSTER@@V?$allocator@U__SECRETROOM_MONSTER@@@std@@@std@@CAXXZ ; std::vector<__SECRETROOM_MONSTER,std::allocator<__SECRETROOM_MONSTER> >::_Xlength
$LN132@SortTender:
  002a0	cc		 int	 3
_TEXT	ENDS
;	COMDAT text$x
text$x	SEGMENT
__unwindfunclet$?SortTenderGuild@CSecretRoomContinent@@QAEXXZ$1:
  00000	8d 4d cc	 lea	 ecx, DWORD PTR _temp$2[ebp+20]
  00003	e9 00 00 00 00	 jmp	 ??1?$vector@KV?$allocator@K@std@@@std@@QAE@XZ ; std::vector<unsigned long,std::allocator<unsigned long> >::~vector<unsigned long,std::allocator<unsigned long> >
__unwindfunclet$?SortTenderGuild@CSecretRoomContinent@@QAEXXZ$0:
  00008	8d 4d b8	 lea	 ecx, DWORD PTR _temp$2[ebp]
  0000b	e9 00 00 00 00	 jmp	 ??1__SECRETROOM_TENDER@@QAE@XZ
  00010	cc		 int	 3
  00011	cc		 int	 3
  00012	cc		 int	 3
  00013	cc		 int	 3
  00014	cc		 int	 3
__ehhandler$?SortTenderGuild@CSecretRoomContinent@@QAEXXZ:
  00015	90		 npad	 1
  00016	90		 npad	 1
  00017	8b 54 24 08	 mov	 edx, DWORD PTR [esp+8]
  0001b	8d 42 0c	 lea	 eax, DWORD PTR [edx+12]
  0001e	8b 4a b4	 mov	 ecx, DWORD PTR [edx-76]
  00021	33 c8		 xor	 ecx, eax
  00023	e8 00 00 00 00	 call	 @__security_check_cookie@4
  00028	b8 00 00 00 00	 mov	 eax, OFFSET __ehfuncinfo$?SortTenderGuild@CSecretRoomContinent@@QAEXXZ
  0002d	e9 00 00 00 00	 jmp	 ___CxxFrameHandler3
text$x	ENDS
?SortTenderGuild@CSecretRoomContinent@@QAEXXZ ENDP	; CSecretRoomContinent::SortTenderGuild
; Function compile flags: /Ogtp
; File C:\IAGOS\server\v18\Source\Source\_Common\SecretRoom.cpp
; File C:\Program Files\Microsoft Visual Studio\2022\Professional\VC\Tools\MSVC\14.44.35207\include\vector
; File C:\IAGOS\server\v18\Source\Source\_Common\SecretRoom.h
; File C:\Program Files\Microsoft Visual Studio\2022\Professional\VC\Tools\MSVC\14.44.35207\include\vector
; File C:\IAGOS\server\v18\Source\Source\_Common\SecretRoom.cpp
; File C:\Program Files\Microsoft Visual Studio\2022\Professional\VC\Tools\MSVC\14.44.35207\include\vector
; File C:\Program Files\Microsoft Visual Studio\2022\Professional\VC\Tools\MSVC\14.44.35207\include\xmemory
; File C:\Program Files\Microsoft Visual Studio\2022\Professional\VC\Tools\MSVC\14.44.35207\include\vector
; File C:\IAGOS\server\v18\Source\Source\_Common\SecretRoom.cpp
; File C:\Program Files\Microsoft Visual Studio\2022\Professional\VC\Tools\MSVC\14.44.35207\include\vector
; File C:\IAGOS\server\v18\Source\Source\_Common\SecretRoom.cpp
; File C:\Program Files\Microsoft Visual Studio\2022\Professional\VC\Tools\MSVC\14.44.35207\include\vector
; File C:\Program Files\Microsoft Visual Studio\2022\Professional\VC\Tools\MSVC\14.44.35207\include\xmemory
; File C:\Program Files\Microsoft Visual Studio\2022\Professional\VC\Tools\MSVC\14.44.35207\include\vector
; File C:\Program Files\Microsoft Visual Studio\2022\Professional\VC\Tools\MSVC\14.44.35207\include\xmemory
; File C:\Program Files\Microsoft Visual Studio\2022\Professional\VC\Tools\MSVC\14.44.35207\include\vector
; File C:\Program Files\Microsoft Visual Studio\2022\Professional\VC\Tools\MSVC\14.44.35207\include\xmemory
; File C:\Program Files\Microsoft Visual Studio\2022\Professional\VC\Tools\MSVC\14.44.35207\include\vector
; File C:\Program Files\Microsoft Visual Studio\2022\Professional\VC\Tools\MSVC\14.44.35207\include\xmemory
; File C:\Program Files\Microsoft Visual Studio\2022\Professional\VC\Tools\MSVC\14.44.35207\include\vector
; File C:\IAGOS\server\v18\Source\Source\_Common\SecretRoom.cpp
; File C:\Program Files\Microsoft Visual Studio\2022\Professional\VC\Tools\MSVC\14.44.35207\include\vector
; File C:\IAGOS\server\v18\Source\Source\_Common\SecretRoom.cpp
; File C:\Program Files\Microsoft Visual Studio\2022\Professional\VC\Tools\MSVC\14.44.35207\include\vector
; File C:\IAGOS\server\v18\Source\Source\_Common\SecretRoom.cpp
; File C:\Program Files\Microsoft Visual Studio\2022\Professional\VC\Tools\MSVC\14.44.35207\include\vector
; File C:\IAGOS\server\v18\Source\Source\_Common\SecretRoom.cpp
; File C:\Program Files\Microsoft Visual Studio\2022\Professional\VC\Tools\MSVC\14.44.35207\include\xmemory
; File C:\IAGOS\server\v18\Source\Source\_Common\SecretRoom.cpp
;	COMDAT ?SetContTender@CSecretRoomContinent@@QAEXPAVCUser@@H@Z
_TEXT	SEGMENT
_srTender$2 = -264					; size = 44
tv757 = -220						; size = 4
_aLogItem$ = -216					; size = 200
__$ArrayPad$ = -16					; size = 4
__$EHRec$ = -12						; size = 12
_pUser$ = 8						; size = 4
_nPenya$ = 12						; size = 4
?SetContTender@CSecretRoomContinent@@QAEXPAVCUser@@H@Z PROC ; CSecretRoomContinent::SetContTender, COMDAT
; _this$ = ecx

; 774  : {

  00000	55		 push	 ebp
  00001	8b ec		 mov	 ebp, esp
  00003	6a ff		 push	 -1
  00005	68 00 00 00 00	 push	 __ehhandler$?SetContTender@CSecretRoomContinent@@QAEXPAVCUser@@H@Z
  0000a	64 a1 00 00 00
	00		 mov	 eax, DWORD PTR fs:0
  00010	50		 push	 eax
  00011	81 ec fc 00 00
	00		 sub	 esp, 252		; 000000fcH
  00017	a1 00 00 00 00	 mov	 eax, DWORD PTR ___security_cookie
  0001c	33 c5		 xor	 eax, ebp
  0001e	89 45 f0	 mov	 DWORD PTR __$ArrayPad$[ebp], eax
  00021	53		 push	 ebx
  00022	56		 push	 esi
  00023	57		 push	 edi
  00024	50		 push	 eax
  00025	8d 45 f4	 lea	 eax, DWORD PTR __$EHRec$[ebp]
  00028	64 a3 00 00 00
	00		 mov	 DWORD PTR fs:0, eax
  0002e	8b d9		 mov	 ebx, ecx
  00030	8b 75 08	 mov	 esi, DWORD PTR _pUser$[ebp]

; 775  : 	if( CSecretRoomMng::GetInstance()->IsOtherTenderGuild( pUser ) )

  00033	56		 push	 esi
  00034	e8 00 00 00 00	 call	 ?GetInstance@CSecretRoomMng@@SAPAV1@XZ ; CSecretRoomMng::GetInstance
  00039	8b c8		 mov	 ecx, eax
  0003b	e8 00 00 00 00	 call	 ?IsOtherTenderGuild@CSecretRoomMng@@QAEHPAVCUser@@@Z ; CSecretRoomMng::IsOtherTenderGuild
  00040	85 c0		 test	 eax, eax
  00042	74 0a		 je	 SHORT $LN2@SetContTen

; 776  : 	{
; 777  : 		pUser->AddDefinedText( TID_GAME_SECRETROOM_ISOTHERCONT );

  00044	68 75 0e 00 00	 push	 3701			; 00000e75H

; 778  : 		return;

  00049	e9 d8 02 00 00	 jmp	 $LN118@SetContTen
$LN2@SetContTen:

; 779  : 	}
; 780  : 	
; 781  : 	if( nPenya < CSecretRoomMng::GetInstance()->m_nMinPenya )

  0004e	e8 00 00 00 00	 call	 ?GetInstance@CSecretRoomMng@@SAPAV1@XZ ; CSecretRoomMng::GetInstance
  00053	8b 7d 0c	 mov	 edi, DWORD PTR _nPenya$[ebp]
  00056	3b 78 14	 cmp	 edi, DWORD PTR [eax+20]
  00059	0f 8c c2 02 00
	00		 jl	 $LN7@SetContTen

; 782  : 	{
; 783  : 		pUser->AddDefinedText( TID_GAME_SECRETROOM_TRYMOREPENYA );
; 784  : 		return;
; 785  : 	}
; 786  : 	
; 787  : 	// ·Î±× ł˛±ć ÁŘşń
; 788  : 	LogItemInfo aLogItem;

  0005f	8d 8d 28 ff ff
	ff		 lea	 ecx, DWORD PTR _aLogItem$[ebp]
  00065	e8 00 00 00 00	 call	 ??0_LogItemInfo@@QAE@XZ	; _LogItemInfo::_LogItemInfo

; 789  : 	aLogItem.Action = "h";
; 790  : 	aLogItem.SendName = pUser->GetName();

  0006a	6a 00		 push	 0
  0006c	8b ce		 mov	 ecx, esi
  0006e	c7 85 28 ff ff
	ff 00 00 00 00	 mov	 DWORD PTR _aLogItem$[ebp], OFFSET ??_C@_01BDACAMKP@h@
  00078	e8 00 00 00 00	 call	 ?GetName@CMover@@QAEPBDH@Z ; CMover::GetName
  0007d	89 85 2c ff ff
	ff		 mov	 DWORD PTR _aLogItem$[ebp+4], eax

; 791  : 	aLogItem.RecvName = "SECRETROOM";
; 792  : 	aLogItem.WorldId = pUser->GetWorld()->GetID();

  00083	8b 86 6c 01 00
	00		 mov	 eax, DWORD PTR [esi+364]
  00089	c7 85 30 ff ff
	ff 00 00 00 00	 mov	 DWORD PTR _aLogItem$[ebp+8], OFFSET ??_C@_0L@MDDCMNOB@SECRETROOM@

; 793  : 	//aLogItem.ItemName = "SEED";
; 794  : 	_stprintf( aLogItem.szItemName, "%d", II_GOLD_SEED1 );

  00093	6a 0c		 push	 12			; 0000000cH
  00095	68 00 00 00 00	 push	 OFFSET ??_C@_02DPKJAMEF@?$CFd@
  0009a	8b 00		 mov	 eax, DWORD PTR [eax]
  0009c	89 85 34 ff ff
	ff		 mov	 DWORD PTR _aLogItem$[ebp+12], eax
  000a2	8d 85 4c ff ff
	ff		 lea	 eax, DWORD PTR _aLogItem$[ebp+36]
  000a8	50		 push	 eax
  000a9	e8 00 00 00 00	 call	 _sprintf

; 795  : 	aLogItem.Gold = pUser->GetGold();

  000ae	8b 86 e0 14 00
	00		 mov	 eax, DWORD PTR [esi+5344]
  000b4	83 c4 0c	 add	 esp, 12			; 0000000cH

; 796  : 
; 797  : 	int nIndex = GetTenderGuild( pUser->m_idGuild );

  000b7	8b cb		 mov	 ecx, ebx
  000b9	89 85 38 ff ff
	ff		 mov	 DWORD PTR _aLogItem$[ebp+16], eax
  000bf	ff b6 14 07 00
	00		 push	 DWORD PTR [esi+1812]
  000c5	e8 00 00 00 00	 call	 ?GetTenderGuild@CSecretRoomContinent@@QAEHK@Z ; CSecretRoomContinent::GetTenderGuild

; 798  : 	// ĂłŔ˝ ŔÔÂűÇŃ ±ćµĺ
; 799  : 	
; 800  : 	if( nIndex == NULL_ID )

  000ca	83 f8 ff	 cmp	 eax, -1
  000cd	0f 85 9b 01 00
	00		 jne	 $LN4@SetContTen

; 801  : 	{
; 802  : 		if( pUser->GetGold() < nPenya )

  000d3	8b ce		 mov	 ecx, esi
  000d5	39 be e0 14 00
	00		 cmp	 DWORD PTR [esi+5344], edi
  000db	7d 0a		 jge	 SHORT $LN6@SetContTen

; 803  : 		{
; 804  : 			pUser->AddDefinedText( TID_GAME_SECRETROOM_NOTENOUGHPENYA );

  000dd	68 77 0e 00 00	 push	 3703			; 00000e77H

; 805  : 			return;

  000e2	e9 41 02 00 00	 jmp	 $LN119@SetContTen
$LN6@SetContTen:

; 806  : 		}
; 807  : 		
; 808  : 		pUser->AddGold( -nPenya );

  000e7	8b c7		 mov	 eax, edi
  000e9	6a 01		 push	 1
  000eb	f7 d8		 neg	 eax
  000ed	50		 push	 eax
  000ee	e8 00 00 00 00	 call	 ?AddGold@CMover@@QAEHHH@Z ; CMover::AddGold
  000f3	0f 57 c0	 xorps	 xmm0, xmm0
; File C:\Program Files\Microsoft Visual Studio\2022\Professional\VC\Tools\MSVC\14.44.35207\include\vector

; 400  :     _CONSTEXPR20 _Vector_val() noexcept : _Myfirst(), _Mylast(), _Myend() {}

  000f6	c7 85 1c ff ff
	ff 00 00 00 00	 mov	 DWORD PTR _srTender$2[ebp+36], 0
  00100	0f 11 85 0c ff
	ff ff		 movups	 XMMWORD PTR _srTender$2[ebp+20], xmm0
  00107	c7 85 20 ff ff
	ff 00 00 00 00	 mov	 DWORD PTR _srTender$2[ebp+40], 0
; File C:\IAGOS\server\v18\Source\Source\_Common\SecretRoom.h

; 55   : 		nKillCount = 0;

  00111	c7 85 00 ff ff
	ff 00 00 00 00	 mov	 DWORD PTR _srTender$2[ebp+8], 0

; 56   : 		dwWorldId = NULL_ID;

  0011b	c7 85 04 ff ff
	ff ff ff ff ff	 mov	 DWORD PTR _srTender$2[ebp+12], -1

; 57   : 		nWarState = MONSTER_NORMAL;

  00125	c7 85 08 ff ff
	ff 01 00 00 00	 mov	 DWORD PTR _srTender$2[ebp+16], 1
; File C:\Program Files\Microsoft Visual Studio\2022\Professional\VC\Tools\MSVC\14.44.35207\include\vector

; 844  :         if (_Mylast != _My_data._Myend) {

  0012f	8b 4b 14	 mov	 ecx, DWORD PTR [ebx+20]
; File C:\IAGOS\server\v18\Source\Source\_Common\SecretRoom.cpp

; 810  : 		srTender.dwGuildId = pUser->m_idGuild;

  00132	8b 86 14 07 00
	00		 mov	 eax, DWORD PTR [esi+1812]
  00138	c7 45 fc 00 00
	00 00		 mov	 DWORD PTR __$EHRec$[ebp+8], 0
  0013f	89 85 f8 fe ff
	ff		 mov	 DWORD PTR _srTender$2[ebp], eax

; 811  : 		srTender.nPenya = nPenya;

  00145	89 bd fc fe ff
	ff		 mov	 DWORD PTR _srTender$2[ebp+4], edi
; File C:\Program Files\Microsoft Visual Studio\2022\Professional\VC\Tools\MSVC\14.44.35207\include\vector

; 844  :         if (_Mylast != _My_data._Myend) {

  0014b	3b 4b 18	 cmp	 ecx, DWORD PTR [ebx+24]
  0014e	74 12		 je	 SHORT $LN41@SetContTen
; File C:\Program Files\Microsoft Visual Studio\2022\Professional\VC\Tools\MSVC\14.44.35207\include\xmemory

; 732  :         ::new (const_cast<void*>(static_cast<const volatile void*>(_Ptr))) _Objty(_STD forward<_Types>(_Args)...);

  00150	8d 85 f8 fe ff
	ff		 lea	 eax, DWORD PTR _srTender$2[ebp]
  00156	50		 push	 eax
  00157	e8 00 00 00 00	 call	 ??0__SECRETROOM_TENDER@@QAE@ABU0@@Z
; File C:\Program Files\Microsoft Visual Studio\2022\Professional\VC\Tools\MSVC\14.44.35207\include\vector

; 869  :         ++_Mylast;

  0015c	83 43 14 2c	 add	 DWORD PTR [ebx+20], 44	; 0000002cH

; 845  :             return _Emplace_back_with_unused_capacity(_STD forward<_Valty>(_Val)...);

  00160	eb 10		 jmp	 SHORT $LN40@SetContTen
$LN41@SetContTen:

; 846  :         }
; 847  : 
; 848  :         return *_Emplace_reallocate(_Mylast, _STD forward<_Valty>(_Val)...);

  00162	8d 95 f8 fe ff
	ff		 lea	 edx, DWORD PTR _srTender$2[ebp]
  00168	52		 push	 edx
  00169	51		 push	 ecx
  0016a	8d 4b 10	 lea	 ecx, DWORD PTR [ebx+16]
  0016d	e8 00 00 00 00	 call	 ??$_Emplace_reallocate@ABU__SECRETROOM_TENDER@@@?$vector@U__SECRETROOM_TENDER@@V?$allocator@U__SECRETROOM_TENDER@@@std@@@std@@AAEPAU__SECRETROOM_TENDER@@QAU2@ABU2@@Z ; std::vector<__SECRETROOM_TENDER,std::allocator<__SECRETROOM_TENDER> >::_Emplace_reallocate<__SECRETROOM_TENDER const &>
$LN40@SetContTen:
; File C:\IAGOS\server\v18\Source\Source\_Common\SecretRoom.cpp

; 815  : 		g_dpDBClient.SendSecretRoomInsertToDB( m_nContinent, srTender );

  00172	8d 85 f8 fe ff
	ff		 lea	 eax, DWORD PTR _srTender$2[ebp]
  00178	b9 00 00 00 00	 mov	 ecx, OFFSET ?g_dpDBClient@@3VCDPDatabaseClient@@A ; g_dpDBClient
  0017d	50		 push	 eax
  0017e	0f b6 43 0c	 movzx	 eax, BYTE PTR [ebx+12]
  00182	50		 push	 eax
  00183	e8 00 00 00 00	 call	 ?SendSecretRoomInsertToDB@CDPDatabaseClient@@QAEXEAAU__SECRETROOM_TENDER@@@Z ; CDPDatabaseClient::SendSecretRoomInsertToDB

; 816  : 		pUser->AddDefinedText( TID_GAME_SECRETROOM_TENDERCOMPLETE );

  00188	68 78 0e 00 00	 push	 3704			; 00000e78H
  0018d	8b ce		 mov	 ecx, esi
  0018f	e8 00 00 00 00	 call	 ?AddDefinedText@CUser@@QAEXH@Z ; CUser::AddDefinedText
; File C:\Program Files\Microsoft Visual Studio\2022\Professional\VC\Tools\MSVC\14.44.35207\include\vector

; 2090 :         if (_Myfirst) { // destroy and deallocate old array

  00194	8b 95 18 ff ff
	ff		 mov	 edx, DWORD PTR _srTender$2[ebp+32]
; File C:\IAGOS\server\v18\Source\Source\_Common\SecretRoom.cpp

; 819  : 		aLogItem.Gold_1 = -nPenya;

  0019a	f7 df		 neg	 edi
  0019c	8b 86 e0 14 00
	00		 mov	 eax, DWORD PTR [esi+5344]
  001a2	89 85 3c ff ff
	ff		 mov	 DWORD PTR _aLogItem$[ebp+20], eax
  001a8	89 bd 74 ff ff
	ff		 mov	 DWORD PTR _aLogItem$[ebp+76], edi

; 820  : 	}

  001ae	c7 45 fc ff ff
	ff ff		 mov	 DWORD PTR __$EHRec$[ebp+8], -1
; File C:\Program Files\Microsoft Visual Studio\2022\Professional\VC\Tools\MSVC\14.44.35207\include\vector

; 2090 :         if (_Myfirst) { // destroy and deallocate old array

  001b5	85 d2		 test	 edx, edx
  001b7	74 51		 je	 SHORT $LN58@SetContTen

; 2093 :             _Al.deallocate(_Myfirst, static_cast<size_type>(_Myend - _Myfirst));

  001b9	8b 8d 20 ff ff
	ff		 mov	 ecx, DWORD PTR _srTender$2[ebp+40]
; File C:\Program Files\Microsoft Visual Studio\2022\Professional\VC\Tools\MSVC\14.44.35207\include\xmemory

; 985  :         _STD _Deallocate<_New_alignof<_Ty>>(_Ptr, sizeof(_Ty) * _Count);

  001bf	8b c2		 mov	 eax, edx
; File C:\Program Files\Microsoft Visual Studio\2022\Professional\VC\Tools\MSVC\14.44.35207\include\vector

; 2093 :             _Al.deallocate(_Myfirst, static_cast<size_type>(_Myend - _Myfirst));

  001c1	2b ca		 sub	 ecx, edx
; File C:\Program Files\Microsoft Visual Studio\2022\Professional\VC\Tools\MSVC\14.44.35207\include\xmemory

; 985  :         _STD _Deallocate<_New_alignof<_Ty>>(_Ptr, sizeof(_Ty) * _Count);

  001c3	83 e1 e0	 and	 ecx, -32		; ffffffe0H

; 284  :         if (_Bytes >= _Big_allocation_threshold) {

  001c6	81 f9 00 10 00
	00		 cmp	 ecx, 4096		; 00001000H
  001cc	72 14		 jb	 SHORT $LN71@SetContTen

; 205  :     const uintptr_t _Ptr_container   = _Ptr_user[-1];

  001ce	8b 50 fc	 mov	 edx, DWORD PTR [eax-4]
  001d1	83 c1 23	 add	 ecx, 35			; 00000023H
  001d4	2b c2		 sub	 eax, edx

; 219  :     _STL_VERIFY(_Back_shift >= _Min_back_shift && _Back_shift <= _Non_user_size, "invalid argument");

  001d6	83 c0 fc	 add	 eax, -4			; fffffffcH
  001d9	83 f8 1f	 cmp	 eax, 31			; 0000001fH
  001dc	0f 87 69 01 00
	00		 ja	 $LN93@SetContTen
$LN71@SetContTen:

; 289  :         ::operator delete(_Ptr, _Bytes);

  001e2	51		 push	 ecx
  001e3	52		 push	 edx
  001e4	e8 00 00 00 00	 call	 ??3@YAXPAXI@Z		; operator delete
  001e9	83 c4 08	 add	 esp, 8
; File C:\Program Files\Microsoft Visual Studio\2022\Professional\VC\Tools\MSVC\14.44.35207\include\vector

; 2095 :             _Myfirst = nullptr;

  001ec	c7 85 18 ff ff
	ff 00 00 00 00	 mov	 DWORD PTR _srTender$2[ebp+32], 0

; 2096 :             _Mylast  = nullptr;

  001f6	c7 85 1c ff ff
	ff 00 00 00 00	 mov	 DWORD PTR _srTender$2[ebp+36], 0

; 2097 :             _Myend   = nullptr;

  00200	c7 85 20 ff ff
	ff 00 00 00 00	 mov	 DWORD PTR _srTender$2[ebp+40], 0
$LN58@SetContTen:

; 2090 :         if (_Myfirst) { // destroy and deallocate old array

  0020a	8b 95 0c ff ff
	ff		 mov	 edx, DWORD PTR _srTender$2[ebp+20]
  00210	85 d2		 test	 edx, edx
  00212	0f 84 eb 00 00
	00		 je	 $LN10@SetContTen

; 2093 :             _Al.deallocate(_Myfirst, static_cast<size_type>(_Myend - _Myfirst));

  00218	8b 8d 14 ff ff
	ff		 mov	 ecx, DWORD PTR _srTender$2[ebp+28]
; File C:\Program Files\Microsoft Visual Studio\2022\Professional\VC\Tools\MSVC\14.44.35207\include\xmemory

; 985  :         _STD _Deallocate<_New_alignof<_Ty>>(_Ptr, sizeof(_Ty) * _Count);

  0021e	8b c2		 mov	 eax, edx
; File C:\Program Files\Microsoft Visual Studio\2022\Professional\VC\Tools\MSVC\14.44.35207\include\vector

; 2093 :             _Al.deallocate(_Myfirst, static_cast<size_type>(_Myend - _Myfirst));

  00220	2b ca		 sub	 ecx, edx
; File C:\Program Files\Microsoft Visual Studio\2022\Professional\VC\Tools\MSVC\14.44.35207\include\xmemory

; 985  :         _STD _Deallocate<_New_alignof<_Ty>>(_Ptr, sizeof(_Ty) * _Count);

  00222	83 e1 fc	 and	 ecx, -4			; fffffffcH

; 284  :         if (_Bytes >= _Big_allocation_threshold) {

  00225	81 f9 00 10 00
	00		 cmp	 ecx, 4096		; 00001000H
  0022b	72 14		 jb	 SHORT $LN94@SetContTen

; 205  :     const uintptr_t _Ptr_container   = _Ptr_user[-1];

  0022d	8b 50 fc	 mov	 edx, DWORD PTR [eax-4]
  00230	83 c1 23	 add	 ecx, 35			; 00000023H
  00233	2b c2		 sub	 eax, edx

; 219  :     _STL_VERIFY(_Back_shift >= _Min_back_shift && _Back_shift <= _Non_user_size, "invalid argument");

  00235	83 c0 fc	 add	 eax, -4			; fffffffcH
  00238	83 f8 1f	 cmp	 eax, 31			; 0000001fH
  0023b	0f 87 0a 01 00
	00		 ja	 $LN93@SetContTen
$LN94@SetContTen:

; 289  :         ::operator delete(_Ptr, _Bytes);

  00241	51		 push	 ecx
  00242	52		 push	 edx
  00243	e8 00 00 00 00	 call	 ??3@YAXPAXI@Z		; operator delete
  00248	83 c4 08	 add	 esp, 8
; File C:\Program Files\Microsoft Visual Studio\2022\Professional\VC\Tools\MSVC\14.44.35207\include\vector

; 2095 :             _Myfirst = nullptr;

  0024b	c7 85 0c ff ff
	ff 00 00 00 00	 mov	 DWORD PTR _srTender$2[ebp+20], 0

; 2096 :             _Mylast  = nullptr;

  00255	c7 85 10 ff ff
	ff 00 00 00 00	 mov	 DWORD PTR _srTender$2[ebp+24], 0

; 2097 :             _Myend   = nullptr;

  0025f	c7 85 14 ff ff
	ff 00 00 00 00	 mov	 DWORD PTR _srTender$2[ebp+28], 0
; File C:\IAGOS\server\v18\Source\Source\_Common\SecretRoom.cpp

; 820  : 	}

  00269	e9 95 00 00 00	 jmp	 $LN10@SetContTen
$LN4@SetContTen:
; File C:\Program Files\Microsoft Visual Studio\2022\Professional\VC\Tools\MSVC\14.44.35207\include\vector

; 1934 :         return _My_data._Myfirst[_Pos];

  0026e	6b c8 2c	 imul	 ecx, eax, 44
; File C:\IAGOS\server\v18\Source\Source\_Common\SecretRoom.cpp

; 823  : 		if( m_vecSecretRoomTender[nIndex].nPenya < nPenya )

  00271	8b 43 10	 mov	 eax, DWORD PTR [ebx+16]
; File C:\Program Files\Microsoft Visual Studio\2022\Professional\VC\Tools\MSVC\14.44.35207\include\vector

; 1934 :         return _My_data._Myfirst[_Pos];

  00274	89 8d 24 ff ff
	ff		 mov	 DWORD PTR tv757[ebp], ecx
; File C:\IAGOS\server\v18\Source\Source\_Common\SecretRoom.cpp

; 823  : 		if( m_vecSecretRoomTender[nIndex].nPenya < nPenya )

  0027a	8b 4c 08 04	 mov	 ecx, DWORD PTR [eax+ecx+4]
  0027e	3b cf		 cmp	 ecx, edi
  00280	0f 8d 9b 00 00
	00		 jge	 $LN7@SetContTen

; 824  : 		{
; 825  : 			// ĽŇÁöÇŃ ĆäłÄ°ˇ şÎÁ·ÇĎ¸é
; 826  : 			if( pUser->GetGold() < (nPenya - m_vecSecretRoomTender[nIndex].nPenya) )

  00286	8b c7		 mov	 eax, edi
  00288	2b c1		 sub	 eax, ecx
  0028a	39 86 e0 14 00
	00		 cmp	 DWORD PTR [esi+5344], eax
  00290	7d 0a		 jge	 SHORT $LN9@SetContTen

; 827  : 			{
; 828  : 				pUser->AddDefinedText( TID_GAME_SECRETROOM_NOTENOUGHPENYA );

  00292	68 77 0e 00 00	 push	 3703			; 00000e77H

; 829  : 				return;

  00297	e9 8a 00 00 00	 jmp	 $LN118@SetContTen
$LN9@SetContTen:

; 830  : 			}
; 831  : 			else
; 832  : 			{
; 833  : 				pUser->AddGold( m_vecSecretRoomTender[nIndex].nPenya - nPenya );

  0029c	2b cf		 sub	 ecx, edi
  0029e	6a 01		 push	 1
  002a0	51		 push	 ecx
  002a1	8b ce		 mov	 ecx, esi
  002a3	e8 00 00 00 00	 call	 ?AddGold@CMover@@QAEHHH@Z ; CMover::AddGold

; 834  : 				m_vecSecretRoomTender[nIndex].nPenya = nPenya;

  002a8	8b 43 10	 mov	 eax, DWORD PTR [ebx+16]
  002ab	8b 8d 24 ff ff
	ff		 mov	 ecx, DWORD PTR tv757[ebp]

; 836  : 				g_dpDBClient.SendSecretRoomUpdateToDB( m_nContinent, m_vecSecretRoomTender[nIndex], 'T' );

  002b1	6a 54		 push	 84			; 00000054H
  002b3	89 7c 08 04	 mov	 DWORD PTR [eax+ecx+4], edi
; File C:\Program Files\Microsoft Visual Studio\2022\Professional\VC\Tools\MSVC\14.44.35207\include\vector

; 1934 :         return _My_data._Myfirst[_Pos];

  002b7	8b 43 10	 mov	 eax, DWORD PTR [ebx+16]
  002ba	03 c1		 add	 eax, ecx
; File C:\IAGOS\server\v18\Source\Source\_Common\SecretRoom.cpp

; 836  : 				g_dpDBClient.SendSecretRoomUpdateToDB( m_nContinent, m_vecSecretRoomTender[nIndex], 'T' );

  002bc	b9 00 00 00 00	 mov	 ecx, OFFSET ?g_dpDBClient@@3VCDPDatabaseClient@@A ; g_dpDBClient
  002c1	50		 push	 eax
  002c2	0f b6 43 0c	 movzx	 eax, BYTE PTR [ebx+12]
  002c6	50		 push	 eax
  002c7	e8 00 00 00 00	 call	 ?SendSecretRoomUpdateToDB@CDPDatabaseClient@@QAEXEAAU__SECRETROOM_TENDER@@D@Z ; CDPDatabaseClient::SendSecretRoomUpdateToDB

; 837  : 				pUser->AddDefinedText( TID_GAME_SECRETROOM_TENDERCOMPLETE );

  002cc	68 78 0e 00 00	 push	 3704			; 00000e78H
  002d1	8b ce		 mov	 ecx, esi
  002d3	e8 00 00 00 00	 call	 ?AddDefinedText@CUser@@QAEXH@Z ; CUser::AddDefinedText

; 838  : 				// ·Î±×
; 839  : 				aLogItem.RecvName = "SECRETROOM_ADD";
; 840  : 				aLogItem.Gold2 = pUser->GetGold();

  002d8	8b 86 e0 14 00
	00		 mov	 eax, DWORD PTR [esi+5344]

; 841  : 				aLogItem.Gold_1 = m_vecSecretRoomTender[nIndex].nPenya - nPenya;

  002de	8b 8d 24 ff ff
	ff		 mov	 ecx, DWORD PTR tv757[ebp]
  002e4	89 85 3c ff ff
	ff		 mov	 DWORD PTR _aLogItem$[ebp+20], eax
  002ea	8b 43 10	 mov	 eax, DWORD PTR [ebx+16]
  002ed	c7 85 30 ff ff
	ff 00 00 00 00	 mov	 DWORD PTR _aLogItem$[ebp+8], OFFSET ??_C@_0P@GCMECMGK@SECRETROOM_ADD@
  002f7	8b 44 08 04	 mov	 eax, DWORD PTR [eax+ecx+4]
  002fb	2b c7		 sub	 eax, edi
  002fd	89 85 74 ff ff
	ff		 mov	 DWORD PTR _aLogItem$[ebp+76], eax
$LN10@SetContTen:

; 847  : 			return;
; 848  : 		}
; 849  : 	}
; 850  : 
; 851  : 	g_DPSrvr.OnLogItem( aLogItem );

  00303	6a 00		 push	 0
  00305	6a 00		 push	 0
  00307	8d 85 28 ff ff
	ff		 lea	 eax, DWORD PTR _aLogItem$[ebp]
  0030d	b9 00 00 00 00	 mov	 ecx, OFFSET ?g_DPSrvr@@3VCDPSrvr@@A ; g_DPSrvr
  00312	50		 push	 eax
  00313	e8 00 00 00 00	 call	 ?OnLogItem@CDPSrvr@@QAEXAAU_LogItemInfo@@PAVCItemElem@@H@Z ; CDPSrvr::OnLogItem

; 852  : 
; 853  : 	SortTenderGuild();

  00318	8b cb		 mov	 ecx, ebx
  0031a	e8 00 00 00 00	 call	 ?SortTenderGuild@CSecretRoomContinent@@QAEXXZ ; CSecretRoomContinent::SortTenderGuild
  0031f	eb 0c		 jmp	 SHORT $LN1@SetContTen
$LN7@SetContTen:

; 842  : 			}
; 843  : 		}
; 844  : 		else
; 845  : 		{
; 846  : 			pUser->AddDefinedText( TID_GAME_SECRETROOM_TRYMOREPENYA );

  00321	68 76 0e 00 00	 push	 3702			; 00000e76H
$LN118@SetContTen:

; 854  : }

  00326	8b ce		 mov	 ecx, esi
$LN119@SetContTen:
  00328	e8 00 00 00 00	 call	 ?AddDefinedText@CUser@@QAEXH@Z ; CUser::AddDefinedText
$LN1@SetContTen:
  0032d	8b 4d f4	 mov	 ecx, DWORD PTR __$EHRec$[ebp]
  00330	64 89 0d 00 00
	00 00		 mov	 DWORD PTR fs:0, ecx
  00337	59		 pop	 ecx
  00338	5f		 pop	 edi
  00339	5e		 pop	 esi
  0033a	5b		 pop	 ebx
  0033b	8b 4d f0	 mov	 ecx, DWORD PTR __$ArrayPad$[ebp]
  0033e	33 cd		 xor	 ecx, ebp
  00340	e8 00 00 00 00	 call	 @__security_check_cookie@4
  00345	8b e5		 mov	 esp, ebp
  00347	5d		 pop	 ebp
  00348	c2 08 00	 ret	 8
$LN93@SetContTen:
; File C:\Program Files\Microsoft Visual Studio\2022\Professional\VC\Tools\MSVC\14.44.35207\include\xmemory

; 219  :     _STL_VERIFY(_Back_shift >= _Min_back_shift && _Back_shift <= _Non_user_size, "invalid argument");

  0034b	6a 00		 push	 0
  0034d	6a 00		 push	 0
  0034f	6a 00		 push	 0
  00351	6a 00		 push	 0
  00353	6a 00		 push	 0
  00355	e8 00 00 00 00	 call	 __invoke_watson
$LN117@SetContTen:
  0035a	cc		 int	 3
_TEXT	ENDS
;	COMDAT text$x
text$x	SEGMENT
__unwindfunclet$?SetContTender@CSecretRoomContinent@@QAEXPAVCUser@@H@Z$0:
  00000	8d 8d f8 fe ff
	ff		 lea	 ecx, DWORD PTR _srTender$2[ebp]
  00006	e9 00 00 00 00	 jmp	 ??1__SECRETROOM_TENDER@@QAE@XZ
  0000b	cc		 int	 3
  0000c	cc		 int	 3
  0000d	cc		 int	 3
  0000e	cc		 int	 3
  0000f	cc		 int	 3
__ehhandler$?SetContTender@CSecretRoomContinent@@QAEXPAVCUser@@H@Z:
  00010	90		 npad	 1
  00011	90		 npad	 1
  00012	8b 54 24 08	 mov	 edx, DWORD PTR [esp+8]
  00016	8d 42 0c	 lea	 eax, DWORD PTR [edx+12]
  00019	8b 8a f4 fe ff
	ff		 mov	 ecx, DWORD PTR [edx-268]
  0001f	33 c8		 xor	 ecx, eax
  00021	e8 00 00 00 00	 call	 @__security_check_cookie@4
  00026	8b 4a fc	 mov	 ecx, DWORD PTR [edx-4]
  00029	33 c8		 xor	 ecx, eax
  0002b	e8 00 00 00 00	 call	 @__security_check_cookie@4
  00030	b8 00 00 00 00	 mov	 eax, OFFSET __ehfuncinfo$?SetContTender@CSecretRoomContinent@@QAEXPAVCUser@@H@Z
  00035	e9 00 00 00 00	 jmp	 ___CxxFrameHandler3
text$x	ENDS
?SetContTender@CSecretRoomContinent@@QAEXPAVCUser@@H@Z ENDP ; CSecretRoomContinent::SetContTender
; Function compile flags: /Ogtp
; File C:\IAGOS\server\v18\Source\Source\_Common\SecretRoom.cpp
; File C:\Program Files\Microsoft Visual Studio\2022\Professional\VC\Tools\MSVC\14.44.35207\include\vector
; File C:\IAGOS\server\v18\Source\Source\_Common\SecretRoom.cpp
; File C:\Program Files\Microsoft Visual Studio\2022\Professional\VC\Tools\MSVC\14.44.35207\include\vector
; File C:\IAGOS\server\v18\Source\Source\_Common\SecretRoom.cpp
; File C:\Program Files\Microsoft Visual Studio\2022\Professional\VC\Tools\MSVC\14.44.35207\include\vector
; File C:\IAGOS\server\v18\Source\Source\_Common\SecretRoom.cpp
; File C:\Program Files\Microsoft Visual Studio\2022\Professional\VC\Tools\MSVC\14.44.35207\include\vector
; File C:\IAGOS\server\v18\Source\Source\_Common\SecretRoom.cpp
;	COMDAT ?IsLineUpMember@CSecretRoomContinent@@QAEHPAVCUser@@@Z
_TEXT	SEGMENT
_pUser$ = 8						; size = 4
?IsLineUpMember@CSecretRoomContinent@@QAEHPAVCUser@@@Z PROC ; CSecretRoomContinent::IsLineUpMember, COMDAT
; _this$ = ecx

; 759  : {

  00000	55		 push	 ebp
  00001	8b ec		 mov	 ebp, esp
  00003	56		 push	 esi

; 760  : 	int nIndex = GetTenderGuild( pUser->m_idGuild );

  00004	8b 75 08	 mov	 esi, DWORD PTR _pUser$[ebp]
  00007	57		 push	 edi
  00008	8b f9		 mov	 edi, ecx
  0000a	ff b6 14 07 00
	00		 push	 DWORD PTR [esi+1812]
  00010	e8 00 00 00 00	 call	 ?GetTenderGuild@CSecretRoomContinent@@QAEHK@Z ; CSecretRoomContinent::GetTenderGuild

; 761  : 	if( nIndex == NULL_ID )

  00015	83 f8 ff	 cmp	 eax, -1
  00018	74 38		 je	 SHORT $LN3@IsLineUpMe
; File C:\Program Files\Microsoft Visual Studio\2022\Professional\VC\Tools\MSVC\14.44.35207\include\vector

; 1914 :         auto& _My_data = _Mypair._Myval2;

  0001a	8b 7f 10	 mov	 edi, DWORD PTR [edi+16]
; File C:\IAGOS\server\v18\Source\Source\_Common\SecretRoom.cpp

; 764  : 	for( DWORD i=0; i<m_vecSecretRoomTender[nIndex].vecLineUpMember.size(); i++ )

  0001d	33 c9		 xor	 ecx, ecx
; File C:\Program Files\Microsoft Visual Studio\2022\Professional\VC\Tools\MSVC\14.44.35207\include\vector

; 1934 :         return _My_data._Myfirst[_Pos];

  0001f	6b d0 2c	 imul	 edx, eax, 44

; 1915 :         return static_cast<size_type>(_My_data._Mylast - _My_data._Myfirst);

  00022	8b 44 17 18	 mov	 eax, DWORD PTR [edi+edx+24]
  00026	03 fa		 add	 edi, edx
  00028	8b 57 14	 mov	 edx, DWORD PTR [edi+20]
  0002b	2b c2		 sub	 eax, edx
  0002d	c1 f8 02	 sar	 eax, 2
; File C:\IAGOS\server\v18\Source\Source\_Common\SecretRoom.cpp

; 764  : 	for( DWORD i=0; i<m_vecSecretRoomTender[nIndex].vecLineUpMember.size(); i++ )

  00030	85 c0		 test	 eax, eax
  00032	74 1e		 je	 SHORT $LN3@IsLineUpMe

; 765  : 	{
; 766  : 		if( m_vecSecretRoomTender[nIndex].vecLineUpMember[i] == pUser->m_idPlayer )

  00034	8b b6 34 02 00
	00		 mov	 esi, DWORD PTR [esi+564]
  0003a	66 0f 1f 44 00
	00		 npad	 6
$LL4@IsLineUpMe:
  00040	39 34 8a	 cmp	 DWORD PTR [edx+ecx*4], esi
  00043	74 15		 je	 SHORT $LN21@IsLineUpMe
; File C:\Program Files\Microsoft Visual Studio\2022\Professional\VC\Tools\MSVC\14.44.35207\include\vector

; 1915 :         return static_cast<size_type>(_My_data._Mylast - _My_data._Myfirst);

  00045	8b 47 18	 mov	 eax, DWORD PTR [edi+24]
; File C:\IAGOS\server\v18\Source\Source\_Common\SecretRoom.cpp

; 764  : 	for( DWORD i=0; i<m_vecSecretRoomTender[nIndex].vecLineUpMember.size(); i++ )

  00048	41		 inc	 ecx
; File C:\Program Files\Microsoft Visual Studio\2022\Professional\VC\Tools\MSVC\14.44.35207\include\vector

; 1915 :         return static_cast<size_type>(_My_data._Mylast - _My_data._Myfirst);

  00049	2b c2		 sub	 eax, edx
  0004b	c1 f8 02	 sar	 eax, 2
; File C:\IAGOS\server\v18\Source\Source\_Common\SecretRoom.cpp

; 764  : 	for( DWORD i=0; i<m_vecSecretRoomTender[nIndex].vecLineUpMember.size(); i++ )

  0004e	3b c8		 cmp	 ecx, eax
  00050	72 ee		 jb	 SHORT $LL4@IsLineUpMe
$LN3@IsLineUpMe:
  00052	5f		 pop	 edi

; 768  : 	}
; 769  : 	
; 770  : 	return FALSE;

  00053	33 c0		 xor	 eax, eax

; 771  : }

  00055	5e		 pop	 esi
  00056	5d		 pop	 ebp
  00057	c2 04 00	 ret	 4
$LN21@IsLineUpMe:
  0005a	5f		 pop	 edi

; 767  : 			return TRUE;

  0005b	b8 01 00 00 00	 mov	 eax, 1

; 771  : }

  00060	5e		 pop	 esi
  00061	5d		 pop	 ebp
  00062	c2 04 00	 ret	 4
?IsLineUpMember@CSecretRoomContinent@@QAEHPAVCUser@@@Z ENDP ; CSecretRoomContinent::IsLineUpMember
_TEXT	ENDS
; Function compile flags: /Ogtp
; File C:\IAGOS\server\v18\Source\Source\_Common\SecretRoom.cpp
; File C:\Program Files\Microsoft Visual Studio\2022\Professional\VC\Tools\MSVC\14.44.35207\include\vector
; File C:\IAGOS\server\v18\Source\Source\_Common\SecretRoom.cpp
; File C:\Program Files\Microsoft Visual Studio\2022\Professional\VC\Tools\MSVC\14.44.35207\atlmfc\include\afxstr.h
; File C:\Program Files\Microsoft Visual Studio\2022\Professional\VC\Tools\MSVC\14.44.35207\atlmfc\include\atlsimpstr.h
; File C:\IAGOS\server\v18\Source\Source\_Common\SecretRoom.cpp
; File C:\IAGOS\server\v18\Source\Source\_Common\Project.h
; File C:\IAGOS\server\v18\Source\Source\_Common\SecretRoom.cpp
; File C:\IAGOS\server\v18\Source\Source\_Common\Project.h
; File C:\IAGOS\server\v18\Source\Source\_Common\data.h
; File C:\IAGOS\server\v18\Source\Source\_Common\Project.h
; File C:\IAGOS\server\v18\Source\Source\_Common\SecretRoom.cpp
; File C:\Program Files\Microsoft Visual Studio\2022\Professional\VC\Tools\MSVC\14.44.35207\atlmfc\include\atlsimpstr.h
; File C:\IAGOS\server\v18\Source\Source\_Common\SecretRoom.cpp
; File C:\Program Files\Microsoft Visual Studio\2022\Professional\VC\Tools\MSVC\14.44.35207\atlmfc\include\atlsimpstr.h
; File C:\IAGOS\server\v18\Source\Source\_Common\SecretRoom.cpp
; File C:\Program Files\Microsoft Visual Studio\2022\Professional\VC\Tools\MSVC\14.44.35207\atlmfc\include\atlsimpstr.h
; File C:\IAGOS\server\v18\Source\Source\_Common\SecretRoom.cpp
; File C:\Program Files\Microsoft Visual Studio\2022\Professional\VC\Tools\MSVC\14.44.35207\atlmfc\include\atlsimpstr.h
; File C:\IAGOS\server\v18\Source\Source\_Common\SecretRoom.cpp
;	COMDAT ?Process@CSecretRoomContinent@@QAEXK@Z
_TEXT	SEGMENT
tv382 = -24						; size = 8
$T2 = -16						; size = 4
__$EHRec$ = -12						; size = 12
_dwTick$ = 8						; size = 4
_strTemp$3 = 8						; size = 4
?Process@CSecretRoomContinent@@QAEXK@Z PROC		; CSecretRoomContinent::Process, COMDAT
; _this$ = ecx

; 700  : {

  00000	55		 push	 ebp
  00001	8b ec		 mov	 ebp, esp
  00003	6a ff		 push	 -1
  00005	68 00 00 00 00	 push	 __ehhandler$?Process@CSecretRoomContinent@@QAEXK@Z
  0000a	64 a1 00 00 00
	00		 mov	 eax, DWORD PTR fs:0
  00010	50		 push	 eax
  00011	83 ec 0c	 sub	 esp, 12			; 0000000cH
  00014	53		 push	 ebx
  00015	56		 push	 esi
  00016	57		 push	 edi
  00017	a1 00 00 00 00	 mov	 eax, DWORD PTR ___security_cookie
  0001c	33 c5		 xor	 eax, ebp
  0001e	50		 push	 eax
  0001f	8d 45 f4	 lea	 eax, DWORD PTR __$EHRec$[ebp]
  00022	64 a3 00 00 00
	00		 mov	 DWORD PTR fs:0, eax
  00028	8b f9		 mov	 edi, ecx

; 701  : 	switch( m_nState )

  0002a	8b 47 04	 mov	 eax, DWORD PTR [edi+4]
  0002d	83 e8 66	 sub	 eax, 102		; 00000066H
  00030	0f 84 77 01 00
	00		 je	 $LN5@Process
  00036	83 e8 01	 sub	 eax, 1
  00039	74 2e		 je	 SHORT $LN6@Process
  0003b	83 e8 01	 sub	 eax, 1
  0003e	0f 85 b4 01 00
	00		 jne	 $LN11@Process

; 745  : 				}
; 746  : 			}
; 747  : 			break;
; 748  : 
; 749  : 		case SRCONT_CLOSEWAIT :
; 750  : 			{
; 751  : 				if( m_dwRemainTime < dwTick )

  00044	8b 47 08	 mov	 eax, DWORD PTR [edi+8]
  00047	3b 45 08	 cmp	 eax, DWORD PTR _dwTick$[ebp]
  0004a	0f 83 a8 01 00
	00		 jae	 $LN11@Process

; 752  : 					SetContClose();

  00050	e8 00 00 00 00	 call	 ?SetContClose@CSecretRoomContinent@@QAEXXZ ; CSecretRoomContinent::SetContClose

; 756  : }

  00055	8b 4d f4	 mov	 ecx, DWORD PTR __$EHRec$[ebp]
  00058	64 89 0d 00 00
	00 00		 mov	 DWORD PTR fs:0, ecx
  0005f	59		 pop	 ecx
  00060	5f		 pop	 edi
  00061	5e		 pop	 esi
  00062	5b		 pop	 ebx
  00063	8b e5		 mov	 esp, ebp
  00065	5d		 pop	 ebp
  00066	c2 04 00	 ret	 4
$LN6@Process:

; 734  : 				if( m_dwRemainTime < dwTick || (DWORD)( m_nFailedGuild ) >= m_vecSecretRoomTender.size() )

  00069	8b 47 08	 mov	 eax, DWORD PTR [edi+8]
  0006c	3b 45 08	 cmp	 eax, DWORD PTR _dwTick$[ebp]
  0006f	72 3e		 jb	 SHORT $LN9@Process
; File C:\Program Files\Microsoft Visual Studio\2022\Professional\VC\Tools\MSVC\14.44.35207\include\vector

; 1915 :         return static_cast<size_type>(_My_data._Mylast - _My_data._Myfirst);

  00071	8b 4f 14	 mov	 ecx, DWORD PTR [edi+20]
  00074	b8 e9 a2 8b 2e	 mov	 eax, 780903145		; 2e8ba2e9H
  00079	2b 4f 10	 sub	 ecx, DWORD PTR [edi+16]
  0007c	f7 e9		 imul	 ecx
  0007e	c1 fa 03	 sar	 edx, 3
  00081	8b c2		 mov	 eax, edx
  00083	c1 e8 1f	 shr	 eax, 31			; 0000001fH
  00086	03 c2		 add	 eax, edx
; File C:\IAGOS\server\v18\Source\Source\_Common\SecretRoom.cpp

; 734  : 				if( m_dwRemainTime < dwTick || (DWORD)( m_nFailedGuild ) >= m_vecSecretRoomTender.size() )

  00088	39 47 1c	 cmp	 DWORD PTR [edi+28], eax
  0008b	73 22		 jae	 SHORT $LN9@Process

; 741  : 				else 
; 742  : 				{
; 743  : 					ProcessInGuildMaster();		// ±ć¸¶°ˇ ÇŘ´ç şńąĐŔÇ ąćżˇ Á¸ŔçÇĎ´ÂÁö °Ë»çÇŘĽ­ ľřŔ¸¸é Ĺ»¶ô!!!

  0008d	8b cf		 mov	 ecx, edi
  0008f	e8 00 00 00 00	 call	 ?ProcessInGuildMaster@CSecretRoomContinent@@QAEXXZ ; CSecretRoomContinent::ProcessInGuildMaster

; 744  : 					CreateMonster();

  00094	8b cf		 mov	 ecx, edi
  00096	e8 00 00 00 00	 call	 ?CreateMonster@CSecretRoomContinent@@QAEXXZ ; CSecretRoomContinent::CreateMonster

; 756  : }

  0009b	8b 4d f4	 mov	 ecx, DWORD PTR __$EHRec$[ebp]
  0009e	64 89 0d 00 00
	00 00		 mov	 DWORD PTR fs:0, ecx
  000a5	59		 pop	 ecx
  000a6	5f		 pop	 edi
  000a7	5e		 pop	 esi
  000a8	5b		 pop	 ebx
  000a9	8b e5		 mov	 esp, ebp
  000ab	5d		 pop	 ebp
  000ac	c2 04 00	 ret	 4
$LN9@Process:
; File C:\Program Files\Microsoft Visual Studio\2022\Professional\VC\Tools\MSVC\14.44.35207\atlmfc\include\afxstr.h

; 56   : 		return( AfxGetStringManager() );

  000af	e8 00 00 00 00	 call	 ?AfxGetStringManager@@YGPAUIAtlStringMgr@ATL@@XZ ; AfxGetStringManager
  000b4	8b c8		 mov	 ecx, eax
; File C:\Program Files\Microsoft Visual Studio\2022\Professional\VC\Tools\MSVC\14.44.35207\atlmfc\include\atlsimpstr.h

; 209  : 		ATLENSURE( pStringMgr != NULL );

  000b6	85 c9		 test	 ecx, ecx
  000b8	0f 84 4e 01 00
	00		 je	 $LN71@Process

; 210  : 		CStringData* pData = pStringMgr->GetNilString();

  000be	8b 01		 mov	 eax, DWORD PTR [ecx]
  000c0	ff 50 0c	 call	 DWORD PTR [eax+12]

; 211  : 		Attach( pData );

  000c3	83 c0 10	 add	 eax, 16			; 00000010H
  000c6	89 45 08	 mov	 DWORD PTR _strTemp$3[ebp], eax
; File C:\IAGOS\server\v18\Source\Source\_Common\SecretRoom.cpp

; 737  : 					strTemp.Format( prj.GetText( TID_GAME_SECRETROOM_NOWINNER ), CContinent::GetInstance()->GetContinentName( m_nContinent ) );

  000c9	8a 47 0c	 mov	 al, BYTE PTR [edi+12]
  000cc	50		 push	 eax
  000cd	8d 45 f0	 lea	 eax, DWORD PTR $T2[ebp]
  000d0	c7 45 fc 00 00
	00 00		 mov	 DWORD PTR __$EHRec$[ebp+8], 0
  000d7	50		 push	 eax
  000d8	e8 00 00 00 00	 call	 ?GetInstance@CContinent@@SAPAV1@XZ ; CContinent::GetInstance
  000dd	8b c8		 mov	 ecx, eax
  000df	e8 00 00 00 00	 call	 ?GetContinentName@CContinent@@QAE?AV?$CStringT@DV?$StrTraitMFC@DV?$ChTraitsCRT@D@ATL@@@@@ATL@@E@Z ; CContinent::GetContinentName
  000e4	8b f0		 mov	 esi, eax
; File C:\IAGOS\server\v18\Source\Source\_Common\Project.h

; 1427 : 	VERIFY_RANGE( (int)( dwIndex ), 0, m_colorText.GetSize(), "GetText range_error", "error" );

  000e6	8b 0d ac 02 00
	00		 mov	 ecx, DWORD PTR ?prj@@3VCProject@@A+684
; File C:\IAGOS\server\v18\Source\Source\_Common\SecretRoom.cpp

; 737  : 					strTemp.Format( prj.GetText( TID_GAME_SECRETROOM_NOWINNER ), CContinent::GetInstance()->GetContinentName( m_nContinent ) );

  000ec	c6 45 fc 01	 mov	 BYTE PTR __$EHRec$[ebp+8], 1
; File C:\IAGOS\server\v18\Source\Source\_Common\Project.h

; 1427 : 	VERIFY_RANGE( (int)( dwIndex ), 0, m_colorText.GetSize(), "GetText range_error", "error" );

  000f0	81 f9 89 0e 00
	00		 cmp	 ecx, 3721		; 00000e89H
  000f6	7f 21		 jg	 SHORT $LN34@Process

; 579  : 	LPCTSTR szErr = Error( _T( "%s min:%d, max:%d, index:%d" ), szMsg, nMin, nMax, nIndex ); 

  000f8	68 89 0e 00 00	 push	 3721			; 00000e89H
  000fd	51		 push	 ecx
  000fe	6a 00		 push	 0
  00100	68 00 00 00 00	 push	 OFFSET ??_C@_0BE@OHDBLHOM@GetText?5range_error@
  00105	68 00 00 00 00	 push	 OFFSET ??_C@_0BM@HMFGHCP@?$CFs?5min?3?$CFd?0?5max?3?$CFd?0?5index?3?$CFd@
  0010a	e8 00 00 00 00	 call	 ?Error@@YAPBDPBDZZ	; Error
  0010f	83 c4 14	 add	 esp, 20			; 00000014H

; 1427 : 	VERIFY_RANGE( (int)( dwIndex ), 0, m_colorText.GetSize(), "GetText range_error", "error" );

  00112	b8 00 00 00 00	 mov	 eax, OFFSET ??_C@_05KKCIMGE@error@
  00117	eb 1b		 jmp	 SHORT $LN33@Process
$LN34@Process:
; File C:\IAGOS\server\v18\Source\Source\_Common\data.h

; 270  : 	if( dwIndex >= (DWORD)m_nMaxIndex )

  00119	76 14		 jbe	 SHORT $LN67@Process

; 271  : 		return NULL;
; 272  : 	return (T*) m_apOffset[ dwIndex ];

  0011b	a1 9c 02 00 00	 mov	 eax, DWORD PTR ?prj@@3VCProject@@A+668
  00120	8b 80 24 3a 00
	00		 mov	 eax, DWORD PTR [eax+14884]
; File C:\IAGOS\server\v18\Source\Source\_Common\Project.h

; 1428 : 	if( m_colorText.GetAt( dwIndex ) == NULL )

  00126	85 c0		 test	 eax, eax
  00128	74 05		 je	 SHORT $LN67@Process

; 1430 : 	return m_colorText.GetAt( dwIndex )->lpszData; 

  0012a	8b 40 04	 mov	 eax, DWORD PTR [eax+4]
  0012d	eb 05		 jmp	 SHORT $LN33@Process
$LN67@Process:

; 1429 : 		return "";

  0012f	b8 00 00 00 00	 mov	 eax, OFFSET ??_C@_00CNPNBAHC@@
$LN33@Process:
; File C:\IAGOS\server\v18\Source\Source\_Common\SecretRoom.cpp

; 737  : 					strTemp.Format( prj.GetText( TID_GAME_SECRETROOM_NOWINNER ), CContinent::GetInstance()->GetContinentName( m_nContinent ) );

  00134	ff 36		 push	 DWORD PTR [esi]
  00136	50		 push	 eax
  00137	8d 45 08	 lea	 eax, DWORD PTR _strTemp$3[ebp]
  0013a	50		 push	 eax
  0013b	e8 00 00 00 00	 call	 ?Format@?$CStringT@DV?$StrTraitMFC@DV?$ChTraitsCRT@D@ATL@@@@@ATL@@QAAXPBDZZ ; ATL::CStringT<char,StrTraitMFC<char,ATL::ChTraitsCRT<char> > >::Format
; File C:\Program Files\Microsoft Visual Studio\2022\Professional\VC\Tools\MSVC\14.44.35207\atlmfc\include\atlsimpstr.h

; 804  : 		return( reinterpret_cast< CStringData* >( m_pszData )-1 );

  00140	8b 55 f0	 mov	 edx, DWORD PTR $T2[ebp]

; 92   : 		if( _InterlockedDecrement( &nRefs ) <= 0 )

  00143	83 cb ff	 or	 ebx, -1
; File C:\IAGOS\server\v18\Source\Source\_Common\SecretRoom.cpp

; 737  : 					strTemp.Format( prj.GetText( TID_GAME_SECRETROOM_NOWINNER ), CContinent::GetInstance()->GetContinentName( m_nContinent ) );

  00146	83 c4 0c	 add	 esp, 12			; 0000000cH
  00149	c6 45 fc 00	 mov	 BYTE PTR __$EHRec$[ebp+8], 0
; File C:\Program Files\Microsoft Visual Studio\2022\Professional\VC\Tools\MSVC\14.44.35207\atlmfc\include\atlsimpstr.h

; 804  : 		return( reinterpret_cast< CStringData* >( m_pszData )-1 );

  0014d	83 c2 f0	 add	 edx, -16		; fffffff0H

; 92   : 		if( _InterlockedDecrement( &nRefs ) <= 0 )

  00150	8b c3		 mov	 eax, ebx
  00152	f0 0f c1 42 0c	 lock	  xadd	 DWORD PTR [edx+12], eax
  00157	48		 dec	 eax
  00158	85 c0		 test	 eax, eax
  0015a	7f 08		 jg	 SHORT $LN56@Process

; 93   : 		{
; 94   : 			pStringMgr->Free( this );

  0015c	8b 0a		 mov	 ecx, DWORD PTR [edx]
  0015e	52		 push	 edx
  0015f	8b 01		 mov	 eax, DWORD PTR [ecx]
  00161	ff 50 04	 call	 DWORD PTR [eax+4]
$LN56@Process:
; File C:\IAGOS\server\v18\Source\Source\_Common\SecretRoom.cpp

; 738  : 					g_DPCoreClient.SendCaption( strTemp );

  00164	8b 75 08	 mov	 esi, DWORD PTR _strTemp$3[ebp]
  00167	b9 00 00 00 00	 mov	 ecx, OFFSET ?g_DPCoreClient@@3VCDPCoreClient@@A ; g_DPCoreClient
  0016c	6a 00		 push	 0
  0016e	6a 00		 push	 0
  00170	56		 push	 esi
  00171	e8 00 00 00 00	 call	 ?SendCaption@CDPCoreClient@@QAEXPBDKH@Z ; CDPCoreClient::SendCaption

; 739  : 					SetContCloseWait();

  00176	8b cf		 mov	 ecx, edi
  00178	e8 00 00 00 00	 call	 ?SetContCloseWait@CSecretRoomContinent@@QAEXXZ ; CSecretRoomContinent::SetContCloseWait

; 740  : 				}

  0017d	c7 45 fc ff ff
	ff ff		 mov	 DWORD PTR __$EHRec$[ebp+8], -1
; File C:\Program Files\Microsoft Visual Studio\2022\Professional\VC\Tools\MSVC\14.44.35207\atlmfc\include\atlsimpstr.h

; 804  : 		return( reinterpret_cast< CStringData* >( m_pszData )-1 );

  00184	83 c6 f0	 add	 esi, -16		; fffffff0H

; 92   : 		if( _InterlockedDecrement( &nRefs ) <= 0 )

  00187	f0 0f c1 5e 0c	 lock	  xadd	 DWORD PTR [esi+12], ebx
  0018c	4b		 dec	 ebx
  0018d	85 db		 test	 ebx, ebx
  0018f	7f 67		 jg	 SHORT $LN11@Process

; 93   : 		{
; 94   : 			pStringMgr->Free( this );

  00191	8b 0e		 mov	 ecx, DWORD PTR [esi]
  00193	56		 push	 esi
  00194	8b 01		 mov	 eax, DWORD PTR [ecx]
  00196	ff 50 04	 call	 DWORD PTR [eax+4]
; File C:\IAGOS\server\v18\Source\Source\_Common\SecretRoom.cpp

; 756  : }

  00199	8b 4d f4	 mov	 ecx, DWORD PTR __$EHRec$[ebp]
  0019c	64 89 0d 00 00
	00 00		 mov	 DWORD PTR fs:0, ecx
  001a3	59		 pop	 ecx
  001a4	5f		 pop	 edi
  001a5	5e		 pop	 esi
  001a6	5b		 pop	 ebx
  001a7	8b e5		 mov	 esp, ebp
  001a9	5d		 pop	 ebp
  001aa	c2 04 00	 ret	 4
$LN5@Process:

; 702  : 	{
; 703  : 		case SRCONT_CLOSE :
; 704  : 			break;
; 705  : 
; 706  : 		case SRCONT_OPEN :
; 707  : 			{
; 708  : 				UpdateInfoToAllMember( SECRETROOM_GUILDLIST );

  001ad	6a ff		 push	 -1
  001af	6a 01		 push	 1
  001b1	e8 00 00 00 00	 call	 ?UpdateInfoToAllMember@CSecretRoomContinent@@QAEXEH@Z ; CSecretRoomContinent::UpdateInfoToAllMember

; 709  : 				m_nState = SRCONT_WAR;
; 710  : 				m_dwRemainTime = dwTick + (DWORD)CSecretRoomMng::GetInstance()->m_Lua.GetGlobalNumber( "WarTime" );

  001b6	68 00 00 00 00	 push	 OFFSET ??_C@_07HNCNCHMB@WarTime@
  001bb	c7 47 04 67 00
	00 00		 mov	 DWORD PTR [edi+4], 103	; 00000067H
  001c2	e8 00 00 00 00	 call	 ?GetInstance@CSecretRoomMng@@SAPAV1@XZ ; CSecretRoomMng::GetInstance
  001c7	8d 48 44	 lea	 ecx, DWORD PTR [eax+68]
  001ca	e8 00 00 00 00	 call	 ?GetGlobalNumber@CLuaBase@@QAENPAD@Z ; CLuaBase::GetGlobalNumber
  001cf	dd 5d e8	 fstp	 QWORD PTR tv382[ebp]
  001d2	f2 0f 10 45 e8	 movsd	 xmm0, QWORD PTR tv382[ebp]
  001d7	e8 00 00 00 00	 call	 __dtol3
  001dc	8b 4d 08	 mov	 ecx, DWORD PTR _dwTick$[ebp]
  001df	03 c8		 add	 ecx, eax

; 711  : 				CSecretRoomMng::GetInstance()->SendNowStateAllMember( m_nContinent, m_nState, m_dwRemainTime - dwTick );

  001e1	50		 push	 eax
  001e2	ff 77 04	 push	 DWORD PTR [edi+4]
  001e5	89 4f 08	 mov	 DWORD PTR [edi+8], ecx
  001e8	8a 4f 0c	 mov	 cl, BYTE PTR [edi+12]
  001eb	51		 push	 ecx
  001ec	e8 00 00 00 00	 call	 ?GetInstance@CSecretRoomMng@@SAPAV1@XZ ; CSecretRoomMng::GetInstance
  001f1	8b c8		 mov	 ecx, eax
  001f3	e8 00 00 00 00	 call	 ?SendNowStateAllMember@CSecretRoomMng@@QAEXEHK@Z ; CSecretRoomMng::SendNowStateAllMember
$LN11@Process:

; 756  : }

  001f8	8b 4d f4	 mov	 ecx, DWORD PTR __$EHRec$[ebp]
  001fb	64 89 0d 00 00
	00 00		 mov	 DWORD PTR fs:0, ecx
  00202	59		 pop	 ecx
  00203	5f		 pop	 edi
  00204	5e		 pop	 esi
  00205	5b		 pop	 ebx
  00206	8b e5		 mov	 esp, ebp
  00208	5d		 pop	 ebp
  00209	c2 04 00	 ret	 4
$LN71@Process:
; File C:\Program Files\Microsoft Visual Studio\2022\Professional\VC\Tools\MSVC\14.44.35207\atlmfc\include\atlsimpstr.h

; 209  : 		ATLENSURE( pStringMgr != NULL );

  0020c	68 05 40 00 80	 push	 -2147467259		; 80004005H
  00211	e8 00 00 00 00	 call	 ?AtlThrowImpl@ATL@@YGXJ@Z ; ATL::AtlThrowImpl
$LN69@Process:
  00216	cc		 int	 3
_TEXT	ENDS
;	COMDAT text$x
text$x	SEGMENT
__unwindfunclet$?Process@CSecretRoomContinent@@QAEXK@Z$0:
  00000	8d 4d 08	 lea	 ecx, DWORD PTR _strTemp$3[ebp]
  00003	e9 00 00 00 00	 jmp	 ??1?$CStringT@DV?$StrTraitMFC@DV?$ChTraitsCRT@D@ATL@@@@@ATL@@QAE@XZ ; ATL::CStringT<char,StrTraitMFC<char,ATL::ChTraitsCRT<char> > >::~CStringT<char,StrTraitMFC<char,ATL::ChTraitsCRT<char> > >
__unwindfunclet$?Process@CSecretRoomContinent@@QAEXK@Z$1:
  00008	8d 4d f0	 lea	 ecx, DWORD PTR $T2[ebp]
  0000b	e9 00 00 00 00	 jmp	 ??1?$CStringT@DV?$StrTraitMFC@DV?$ChTraitsCRT@D@ATL@@@@@ATL@@QAE@XZ ; ATL::CStringT<char,StrTraitMFC<char,ATL::ChTraitsCRT<char> > >::~CStringT<char,StrTraitMFC<char,ATL::ChTraitsCRT<char> > >
  00010	cc		 int	 3
  00011	cc		 int	 3
  00012	cc		 int	 3
  00013	cc		 int	 3
  00014	cc		 int	 3
__ehhandler$?Process@CSecretRoomContinent@@QAEXK@Z:
  00015	90		 npad	 1
  00016	90		 npad	 1
  00017	8b 54 24 08	 mov	 edx, DWORD PTR [esp+8]
  0001b	8d 42 0c	 lea	 eax, DWORD PTR [edx+12]
  0001e	8b 4a e4	 mov	 ecx, DWORD PTR [edx-28]
  00021	33 c8		 xor	 ecx, eax
  00023	e8 00 00 00 00	 call	 @__security_check_cookie@4
  00028	b8 00 00 00 00	 mov	 eax, OFFSET __ehfuncinfo$?Process@CSecretRoomContinent@@QAEXK@Z
  0002d	e9 00 00 00 00	 jmp	 ___CxxFrameHandler3
text$x	ENDS
?Process@CSecretRoomContinent@@QAEXK@Z ENDP		; CSecretRoomContinent::Process
; Function compile flags: /Ogtp
; File C:\IAGOS\server\v18\Source\Source\_Common\SecretRoom.cpp
; File C:\Program Files\Microsoft Visual Studio\2022\Professional\VC\Tools\MSVC\14.44.35207\include\vector
; File C:\IAGOS\server\v18\Source\Source\_Common\SecretRoom.cpp
; File C:\Program Files\Microsoft Visual Studio\2022\Professional\VC\Tools\MSVC\14.44.35207\include\vector
; File C:\IAGOS\server\v18\Source\Source\_Common\SecretRoom.cpp
;	COMDAT ?GetTenderGuild@CSecretRoomContinent@@QAEHK@Z
_TEXT	SEGMENT
_dwGuildId$ = 8						; size = 4
?GetTenderGuild@CSecretRoomContinent@@QAEHK@Z PROC	; CSecretRoomContinent::GetTenderGuild, COMDAT
; _this$ = ecx

; 688  : {

  00000	55		 push	 ebp
  00001	8b ec		 mov	 ebp, esp
  00003	56		 push	 esi
  00004	57		 push	 edi
; File C:\Program Files\Microsoft Visual Studio\2022\Professional\VC\Tools\MSVC\14.44.35207\include\vector

; 1915 :         return static_cast<size_type>(_My_data._Mylast - _My_data._Myfirst);

  00005	8b 79 10	 mov	 edi, DWORD PTR [ecx+16]
  00008	b8 e9 a2 8b 2e	 mov	 eax, 780903145		; 2e8ba2e9H
  0000d	8b 49 14	 mov	 ecx, DWORD PTR [ecx+20]
; File C:\IAGOS\server\v18\Source\Source\_Common\SecretRoom.cpp

; 689  : 	for( DWORD i=0; i<m_vecSecretRoomTender.size(); i++ )

  00010	33 f6		 xor	 esi, esi
; File C:\Program Files\Microsoft Visual Studio\2022\Professional\VC\Tools\MSVC\14.44.35207\include\vector

; 1915 :         return static_cast<size_type>(_My_data._Mylast - _My_data._Myfirst);

  00012	2b cf		 sub	 ecx, edi
  00014	f7 e9		 imul	 ecx
  00016	c1 fa 03	 sar	 edx, 3
  00019	8b c2		 mov	 eax, edx
  0001b	c1 e8 1f	 shr	 eax, 31			; 0000001fH
  0001e	03 c2		 add	 eax, edx
; File C:\IAGOS\server\v18\Source\Source\_Common\SecretRoom.cpp

; 689  : 	for( DWORD i=0; i<m_vecSecretRoomTender.size(); i++ )

  00020	74 0f		 je	 SHORT $LN3@GetTenderG
  00022	8b 4d 08	 mov	 ecx, DWORD PTR _dwGuildId$[ebp]
$LL4@GetTenderG:

; 690  : 	{
; 691  : 		if( m_vecSecretRoomTender[i].dwGuildId == dwGuildId )

  00025	39 0f		 cmp	 DWORD PTR [edi], ecx
  00027	74 11		 je	 SHORT $LN14@GetTenderG

; 689  : 	for( DWORD i=0; i<m_vecSecretRoomTender.size(); i++ )

  00029	46		 inc	 esi
  0002a	83 c7 2c	 add	 edi, 44			; 0000002cH
  0002d	3b f0		 cmp	 esi, eax
  0002f	72 f4		 jb	 SHORT $LL4@GetTenderG
$LN3@GetTenderG:
  00031	5f		 pop	 edi

; 693  : 	}
; 694  : 
; 695  : 	return NULL_ID;

  00032	83 c8 ff	 or	 eax, -1

; 696  : }

  00035	5e		 pop	 esi
  00036	5d		 pop	 ebp
  00037	c2 04 00	 ret	 4
$LN14@GetTenderG:
  0003a	5f		 pop	 edi

; 692  : 			return i;

  0003b	8b c6		 mov	 eax, esi

; 696  : }

  0003d	5e		 pop	 esi
  0003e	5d		 pop	 ebp
  0003f	c2 04 00	 ret	 4
?GetTenderGuild@CSecretRoomContinent@@QAEHK@Z ENDP	; CSecretRoomContinent::GetTenderGuild
_TEXT	ENDS
; Function compile flags: /Ogtp
; File C:\Program Files\Microsoft Visual Studio\2022\Professional\VC\Tools\MSVC\14.44.35207\include\vector
;	COMDAT ?_Xlength@?$vector@U__SECRETROOM_TENDER@@V?$allocator@U__SECRETROOM_TENDER@@@std@@@std@@CAXXZ
_TEXT	SEGMENT
?_Xlength@?$vector@U__SECRETROOM_TENDER@@V?$allocator@U__SECRETROOM_TENDER@@@std@@@std@@CAXXZ PROC ; std::vector<__SECRETROOM_TENDER,std::allocator<__SECRETROOM_TENDER> >::_Xlength, COMDAT

; 2184 :         _Xlength_error("vector too long");

  00000	68 00 00 00 00	 push	 OFFSET ??_C@_0BA@FOIKENOD@vector?5too?5long@
  00005	e8 00 00 00 00	 call	 ?_Xlength_error@std@@YAXPBD@Z ; std::_Xlength_error
$LN3@Xlength:
  0000a	cc		 int	 3
?_Xlength@?$vector@U__SECRETROOM_TENDER@@V?$allocator@U__SECRETROOM_TENDER@@@std@@@std@@CAXXZ ENDP ; std::vector<__SECRETROOM_TENDER,std::allocator<__SECRETROOM_TENDER> >::_Xlength
_TEXT	ENDS
; Function compile flags: /Ogtp
; File C:\Program Files\Microsoft Visual Studio\2022\Professional\VC\Tools\MSVC\14.44.35207\include\vector
; File C:\Program Files\Microsoft Visual Studio\2022\Professional\VC\Tools\MSVC\14.44.35207\include\xutility
; File C:\Program Files\Microsoft Visual Studio\2022\Professional\VC\Tools\MSVC\14.44.35207\include\vector
; File C:\Program Files\Microsoft Visual Studio\2022\Professional\VC\Tools\MSVC\14.44.35207\include\xutility
; File C:\Program Files\Microsoft Visual Studio\2022\Professional\VC\Tools\MSVC\14.44.35207\include\vector
;	COMDAT ?erase@?$vector@U__SECRETROOM_TENDER@@V?$allocator@U__SECRETROOM_TENDER@@@std@@@std@@QAE?AV?$_Vector_iterator@V?$_Vector_val@U?$_Simple_types@U__SECRETROOM_TENDER@@@std@@@std@@@2@V?$_Vector_const_iterator@V?$_Vector_val@U?$_Simple_types@U__SECRETROOM_TENDER@@@std@@@std@@@2@@Z
_TEXT	SEGMENT
__Whereptr$1$ = -16					; size = 4
_this$1$ = -12						; size = 4
__Last$1$ = -8						; size = 4
__First$1$ = -4						; size = 4
___$ReturnUdt$ = 8					; size = 4
__Where$ = 12						; size = 4
?erase@?$vector@U__SECRETROOM_TENDER@@V?$allocator@U__SECRETROOM_TENDER@@@std@@@std@@QAE?AV?$_Vector_iterator@V?$_Vector_val@U?$_Simple_types@U__SECRETROOM_TENDER@@@std@@@std@@@2@V?$_Vector_const_iterator@V?$_Vector_val@U?$_Simple_types@U__SECRETROOM_TENDER@@@std@@@std@@@2@@Z PROC ; std::vector<__SECRETROOM_TENDER,std::allocator<__SECRETROOM_TENDER> >::erase, COMDAT
; _this$ = ecx

; 1763 :         noexcept(is_nothrow_move_assignable_v<value_type>) /* strengthened */ {

  00000	55		 push	 ebp
  00001	8b ec		 mov	 ebp, esp
  00003	83 ec 10	 sub	 esp, 16			; 00000010H
  00006	53		 push	 ebx
  00007	8b d9		 mov	 ebx, ecx

; 1764 :         const pointer _Whereptr = _Where._Ptr;

  00009	8b 4d 0c	 mov	 ecx, DWORD PTR __Where$[ebp]
  0000c	56		 push	 esi
  0000d	57		 push	 edi
  0000e	89 5d f4	 mov	 DWORD PTR _this$1$[ebp], ebx

; 1767 : 
; 1768 : #if _ITERATOR_DEBUG_LEVEL == 2
; 1769 :         _STL_VERIFY(
; 1770 :             _Where._Getcont() == _STD addressof(_My_data) && _Whereptr >= _My_data._Myfirst && _Mylast > _Whereptr,
; 1771 :             "vector erase iterator outside range");
; 1772 : #endif // _ITERATOR_DEBUG_LEVEL == 2
; 1773 : 
; 1774 :         _Orphan_range(_Whereptr, _Mylast);
; 1775 :         _STD _Move_unchecked(_Whereptr + 1, _Mylast, _Whereptr);

  00011	8b 43 04	 mov	 eax, DWORD PTR [ebx+4]
  00014	8d 79 2c	 lea	 edi, DWORD PTR [ecx+44]
  00017	89 4d f0	 mov	 DWORD PTR __Whereptr$1$[ebp], ecx
  0001a	89 45 f8	 mov	 DWORD PTR __Last$1$[ebp], eax
  0001d	89 7d fc	 mov	 DWORD PTR __First$1$[ebp], edi
; File C:\Program Files\Microsoft Visual Studio\2022\Professional\VC\Tools\MSVC\14.44.35207\include\xutility

; 5151 :         for (; _First != _Last; ++_Dest, (void) ++_First) {

  00020	3b f8		 cmp	 edi, eax
  00022	0f 84 a8 00 00
	00		 je	 $LN6@erase
; File C:\Program Files\Microsoft Visual Studio\2022\Professional\VC\Tools\MSVC\14.44.35207\include\vector

; 1766 :         pointer& _Mylast        = _My_data._Mylast;

  00028	8d 77 1c	 lea	 esi, DWORD PTR [edi+28]
  0002b	8d 59 1c	 lea	 ebx, DWORD PTR [ecx+28]
  0002e	66 90		 npad	 2
$LL7@erase:
  00030	8b 07		 mov	 eax, DWORD PTR [edi]
  00032	89 43 e4	 mov	 DWORD PTR [ebx-28], eax
  00035	8b 46 e8	 mov	 eax, DWORD PTR [esi-24]
  00038	89 43 e8	 mov	 DWORD PTR [ebx-24], eax
  0003b	8b 46 ec	 mov	 eax, DWORD PTR [esi-20]
  0003e	89 43 ec	 mov	 DWORD PTR [ebx-20], eax
  00041	8b 46 f0	 mov	 eax, DWORD PTR [esi-16]
  00044	89 43 f0	 mov	 DWORD PTR [ebx-16], eax
  00047	8b 46 f4	 mov	 eax, DWORD PTR [esi-12]
  0004a	89 43 f4	 mov	 DWORD PTR [ebx-12], eax

; 800  :         if (this == _STD addressof(_Right)) {

  0004d	3b de		 cmp	 ebx, esi
  0004f	74 2f		 je	 SHORT $LN20@erase

; 801  :             return *this;
; 802  :         }
; 803  : 
; 804  :         _Alty& _Al                = _Getal();
; 805  :         _Alty& _Right_al          = _Right._Getal();
; 806  :         constexpr auto _Pocma_val = _Choose_pocma_v<_Alty>;
; 807  :         if constexpr (_Pocma_val == _Pocma_values::_No_propagate_allocators) {
; 808  :             if (_Al != _Right_al) {
; 809  :                 _Move_assign_unequal_alloc(_Right);
; 810  :                 return *this;
; 811  :             }
; 812  :         }
; 813  : 
; 814  :         _Tidy();

  00051	8d 4b f8	 lea	 ecx, DWORD PTR [ebx-8]
  00054	e8 00 00 00 00	 call	 ?_Tidy@?$vector@KV?$allocator@K@std@@@std@@AAEXXZ ; std::vector<unsigned long,std::allocator<unsigned long> >::_Tidy

; 427  :         _Myfirst = _Right._Myfirst;

  00059	8b 46 f8	 mov	 eax, DWORD PTR [esi-8]
  0005c	8b 7d fc	 mov	 edi, DWORD PTR __First$1$[ebp]
  0005f	89 43 f8	 mov	 DWORD PTR [ebx-8], eax

; 428  :         _Mylast  = _Right._Mylast;

  00062	8b 46 fc	 mov	 eax, DWORD PTR [esi-4]
  00065	89 43 fc	 mov	 DWORD PTR [ebx-4], eax

; 429  :         _Myend   = _Right._Myend;

  00068	8b 06		 mov	 eax, DWORD PTR [esi]
  0006a	89 03		 mov	 DWORD PTR [ebx], eax

; 430  : 
; 431  :         _Right._Myfirst = nullptr;

  0006c	c7 46 f8 00 00
	00 00		 mov	 DWORD PTR [esi-8], 0

; 432  :         _Right._Mylast  = nullptr;

  00073	c7 46 fc 00 00
	00 00		 mov	 DWORD PTR [esi-4], 0

; 433  :         _Right._Myend   = nullptr;

  0007a	c7 06 00 00 00
	00		 mov	 DWORD PTR [esi], 0
$LN20@erase:

; 800  :         if (this == _STD addressof(_Right)) {

  00080	8d 43 04	 lea	 eax, DWORD PTR [ebx+4]
  00083	8d 4e 04	 lea	 ecx, DWORD PTR [esi+4]
  00086	3b c1		 cmp	 eax, ecx
  00088	74 2e		 je	 SHORT $LN5@erase

; 801  :             return *this;
; 802  :         }
; 803  : 
; 804  :         _Alty& _Al                = _Getal();
; 805  :         _Alty& _Right_al          = _Right._Getal();
; 806  :         constexpr auto _Pocma_val = _Choose_pocma_v<_Alty>;
; 807  :         if constexpr (_Pocma_val == _Pocma_values::_No_propagate_allocators) {
; 808  :             if (_Al != _Right_al) {
; 809  :                 _Move_assign_unequal_alloc(_Right);
; 810  :                 return *this;
; 811  :             }
; 812  :         }
; 813  : 
; 814  :         _Tidy();

  0008a	8b c8		 mov	 ecx, eax
  0008c	e8 00 00 00 00	 call	 ?_Tidy@?$vector@U__SECRETROOM_MONSTER@@V?$allocator@U__SECRETROOM_MONSTER@@@std@@@std@@AAEXXZ ; std::vector<__SECRETROOM_MONSTER,std::allocator<__SECRETROOM_MONSTER> >::_Tidy

; 427  :         _Myfirst = _Right._Myfirst;

  00091	8b 46 04	 mov	 eax, DWORD PTR [esi+4]
  00094	89 43 04	 mov	 DWORD PTR [ebx+4], eax

; 428  :         _Mylast  = _Right._Mylast;

  00097	8b 46 08	 mov	 eax, DWORD PTR [esi+8]
  0009a	89 43 08	 mov	 DWORD PTR [ebx+8], eax

; 429  :         _Myend   = _Right._Myend;

  0009d	8b 46 0c	 mov	 eax, DWORD PTR [esi+12]
  000a0	89 43 0c	 mov	 DWORD PTR [ebx+12], eax

; 430  : 
; 431  :         _Right._Myfirst = nullptr;

  000a3	c7 46 04 00 00
	00 00		 mov	 DWORD PTR [esi+4], 0

; 432  :         _Right._Mylast  = nullptr;

  000aa	c7 46 08 00 00
	00 00		 mov	 DWORD PTR [esi+8], 0

; 433  :         _Right._Myend   = nullptr;

  000b1	c7 46 0c 00 00
	00 00		 mov	 DWORD PTR [esi+12], 0
$LN5@erase:
; File C:\Program Files\Microsoft Visual Studio\2022\Professional\VC\Tools\MSVC\14.44.35207\include\xutility

; 5151 :         for (; _First != _Last; ++_Dest, (void) ++_First) {

  000b8	83 c7 2c	 add	 edi, 44			; 0000002cH
  000bb	83 c3 2c	 add	 ebx, 44			; 0000002cH
  000be	83 c6 2c	 add	 esi, 44			; 0000002cH
  000c1	89 7d fc	 mov	 DWORD PTR __First$1$[ebp], edi
  000c4	3b 7d f8	 cmp	 edi, DWORD PTR __Last$1$[ebp]
  000c7	0f 85 63 ff ff
	ff		 jne	 $LL7@erase
  000cd	8b 5d f4	 mov	 ebx, DWORD PTR _this$1$[ebp]
$LN6@erase:
; File C:\Program Files\Microsoft Visual Studio\2022\Professional\VC\Tools\MSVC\14.44.35207\include\vector

; 1776 :         _Alty_traits::destroy(_Getal(), _Unfancy(_Mylast - 1));

  000d0	8b 73 04	 mov	 esi, DWORD PTR [ebx+4]
  000d3	8d 4e f4	 lea	 ecx, DWORD PTR [esi-12]

; 830  :         _Tidy();

  000d6	e8 00 00 00 00	 call	 ?_Tidy@?$vector@U__SECRETROOM_MONSTER@@V?$allocator@U__SECRETROOM_MONSTER@@@std@@@std@@AAEXXZ ; std::vector<__SECRETROOM_MONSTER,std::allocator<__SECRETROOM_MONSTER> >::_Tidy
  000db	8d 4e e8	 lea	 ecx, DWORD PTR [esi-24]
  000de	e8 00 00 00 00	 call	 ?_Tidy@?$vector@KV?$allocator@K@std@@@std@@AAEXXZ ; std::vector<unsigned long,std::allocator<unsigned long> >::_Tidy

; 46   :     _CONSTEXPR20 _Vector_const_iterator(_Tptr _Parg, const _Container_base* _Pvector) noexcept : _Ptr(_Parg) {

  000e3	8b 45 08	 mov	 eax, DWORD PTR ___$ReturnUdt$[ebp]

; 1777 :         _ASAN_VECTOR_MODIFY(-1);
; 1778 :         --_Mylast;

  000e6	83 43 04 d4	 add	 DWORD PTR [ebx+4], -44	; ffffffd4H

; 46   :     _CONSTEXPR20 _Vector_const_iterator(_Tptr _Parg, const _Container_base* _Pvector) noexcept : _Ptr(_Parg) {

  000ea	8b 4d f0	 mov	 ecx, DWORD PTR __Whereptr$1$[ebp]

; 1779 :         return iterator(_Whereptr, _STD addressof(_My_data));

  000ed	5f		 pop	 edi
  000ee	5e		 pop	 esi

; 46   :     _CONSTEXPR20 _Vector_const_iterator(_Tptr _Parg, const _Container_base* _Pvector) noexcept : _Ptr(_Parg) {

  000ef	89 08		 mov	 DWORD PTR [eax], ecx

; 1779 :         return iterator(_Whereptr, _STD addressof(_My_data));

  000f1	5b		 pop	 ebx

; 1780 :     }

  000f2	8b e5		 mov	 esp, ebp
  000f4	5d		 pop	 ebp
  000f5	c2 08 00	 ret	 8
?erase@?$vector@U__SECRETROOM_TENDER@@V?$allocator@U__SECRETROOM_TENDER@@@std@@@std@@QAE?AV?$_Vector_iterator@V?$_Vector_val@U?$_Simple_types@U__SECRETROOM_TENDER@@@std@@@std@@@2@V?$_Vector_const_iterator@V?$_Vector_val@U?$_Simple_types@U__SECRETROOM_TENDER@@@std@@@std@@@2@@Z ENDP ; std::vector<__SECRETROOM_TENDER,std::allocator<__SECRETROOM_TENDER> >::erase
_TEXT	ENDS
; Function compile flags: /Ogtp
; File C:\Program Files\Microsoft Visual Studio\2022\Professional\VC\Tools\MSVC\14.44.35207\include\vector
; File C:\Program Files\Microsoft Visual Studio\2022\Professional\VC\Tools\MSVC\14.44.35207\include\xmemory
; File C:\Program Files\Microsoft Visual Studio\2022\Professional\VC\Tools\MSVC\14.44.35207\include\vector
; File C:\Program Files\Microsoft Visual Studio\2022\Professional\VC\Tools\MSVC\14.44.35207\include\xmemory
; File C:\Program Files\Microsoft Visual Studio\2022\Professional\VC\Tools\MSVC\14.44.35207\include\vector
; File C:\Program Files\Microsoft Visual Studio\2022\Professional\VC\Tools\MSVC\14.44.35207\include\xmemory
; File C:\Program Files\Microsoft Visual Studio\2022\Professional\VC\Tools\MSVC\14.44.35207\include\vector
; File C:\Program Files\Microsoft Visual Studio\2022\Professional\VC\Tools\MSVC\14.44.35207\include\xmemory
; File C:\Program Files\Microsoft Visual Studio\2022\Professional\VC\Tools\MSVC\14.44.35207\include\vector
; File C:\Program Files\Microsoft Visual Studio\2022\Professional\VC\Tools\MSVC\14.44.35207\include\xmemory
; File C:\Program Files\Microsoft Visual Studio\2022\Professional\VC\Tools\MSVC\14.44.35207\include\vector
; File C:\Program Files\Microsoft Visual Studio\2022\Professional\VC\Tools\MSVC\14.44.35207\include\xmemory
; File C:\Program Files\Microsoft Visual Studio\2022\Professional\VC\Tools\MSVC\14.44.35207\include\vector
;	COMDAT ??1?$vector@U__SECRETROOM_TENDER@@V?$allocator@U__SECRETROOM_TENDER@@@std@@@std@@QAE@XZ
_TEXT	SEGMENT
??1?$vector@U__SECRETROOM_TENDER@@V?$allocator@U__SECRETROOM_TENDER@@@std@@@std@@QAE@XZ PROC ; std::vector<__SECRETROOM_TENDER,std::allocator<__SECRETROOM_TENDER> >::~vector<__SECRETROOM_TENDER,std::allocator<__SECRETROOM_TENDER> >, COMDAT
; _this$ = ecx

; 829  :     _CONSTEXPR20 ~vector() noexcept {

  00000	56		 push	 esi
  00001	57		 push	 edi
  00002	8b f9		 mov	 edi, ecx

; 2090 :         if (_Myfirst) { // destroy and deallocate old array

  00004	8b 37		 mov	 esi, DWORD PTR [edi]
  00006	85 f6		 test	 esi, esi
  00008	74 73		 je	 SHORT $LN5@vector
  0000a	53		 push	 ebx

; 2091 :             _STD _Destroy_range(_Myfirst, _Mylast, _Al);

  0000b	8b 5f 04	 mov	 ebx, DWORD PTR [edi+4]
; File C:\Program Files\Microsoft Visual Studio\2022\Professional\VC\Tools\MSVC\14.44.35207\include\xmemory

; 1102 :         for (; _First != _Last; ++_First) {

  0000e	3b f3		 cmp	 esi, ebx
  00010	74 17		 je	 SHORT $LN10@vector
$LL11@vector:
; File C:\Program Files\Microsoft Visual Studio\2022\Professional\VC\Tools\MSVC\14.44.35207\include\vector

; 830  :         _Tidy();

  00012	8d 4e 20	 lea	 ecx, DWORD PTR [esi+32]
  00015	e8 00 00 00 00	 call	 ?_Tidy@?$vector@U__SECRETROOM_MONSTER@@V?$allocator@U__SECRETROOM_MONSTER@@@std@@@std@@AAEXXZ ; std::vector<__SECRETROOM_MONSTER,std::allocator<__SECRETROOM_MONSTER> >::_Tidy
  0001a	8d 4e 14	 lea	 ecx, DWORD PTR [esi+20]
  0001d	e8 00 00 00 00	 call	 ?_Tidy@?$vector@KV?$allocator@K@std@@@std@@AAEXXZ ; std::vector<unsigned long,std::allocator<unsigned long> >::_Tidy
; File C:\Program Files\Microsoft Visual Studio\2022\Professional\VC\Tools\MSVC\14.44.35207\include\xmemory

; 1102 :         for (; _First != _Last; ++_First) {

  00022	83 c6 2c	 add	 esi, 44			; 0000002cH
  00025	3b f3		 cmp	 esi, ebx
  00027	75 e9		 jne	 SHORT $LL11@vector
$LN10@vector:
; File C:\Program Files\Microsoft Visual Studio\2022\Professional\VC\Tools\MSVC\14.44.35207\include\vector

; 2093 :             _Al.deallocate(_Myfirst, static_cast<size_type>(_Myend - _Myfirst));

  00029	8b 4f 08	 mov	 ecx, DWORD PTR [edi+8]
  0002c	b8 e9 a2 8b 2e	 mov	 eax, 780903145		; 2e8ba2e9H
  00031	8b 37		 mov	 esi, DWORD PTR [edi]
  00033	2b ce		 sub	 ecx, esi
  00035	f7 e9		 imul	 ecx
; File C:\Program Files\Microsoft Visual Studio\2022\Professional\VC\Tools\MSVC\14.44.35207\include\xmemory

; 985  :         _STD _Deallocate<_New_alignof<_Ty>>(_Ptr, sizeof(_Ty) * _Count);

  00037	5b		 pop	 ebx
; File C:\Program Files\Microsoft Visual Studio\2022\Professional\VC\Tools\MSVC\14.44.35207\include\vector

; 2093 :             _Al.deallocate(_Myfirst, static_cast<size_type>(_Myend - _Myfirst));

  00038	c1 fa 03	 sar	 edx, 3
  0003b	8b c2		 mov	 eax, edx
  0003d	c1 e8 1f	 shr	 eax, 31			; 0000001fH
  00040	03 c2		 add	 eax, edx
; File C:\Program Files\Microsoft Visual Studio\2022\Professional\VC\Tools\MSVC\14.44.35207\include\xmemory

; 985  :         _STD _Deallocate<_New_alignof<_Ty>>(_Ptr, sizeof(_Ty) * _Count);

  00042	6b c8 2c	 imul	 ecx, eax, 44

; 284  :         if (_Bytes >= _Big_allocation_threshold) {

  00045	81 f9 00 10 00
	00		 cmp	 ecx, 4096		; 00001000H
  0004b	72 12		 jb	 SHORT $LN41@vector

; 205  :     const uintptr_t _Ptr_container   = _Ptr_user[-1];

  0004d	8b 56 fc	 mov	 edx, DWORD PTR [esi-4]
  00050	83 c1 23	 add	 ecx, 35			; 00000023H

; 206  : 
; 207  :     // If the following asserts, it likely means that we are performing
; 208  :     // an aligned delete on memory coming from an unaligned allocation.
; 209  :     _STL_ASSERT(_Ptr_user[-2] == _Big_allocation_sentinel, "invalid argument");
; 210  : 
; 211  :     // Extra paranoia on aligned allocation/deallocation; ensure _Ptr_container is
; 212  :     // in range [_Min_back_shift, _Non_user_size]
; 213  : #ifdef _DEBUG
; 214  :     constexpr uintptr_t _Min_back_shift = 2 * sizeof(void*);
; 215  : #else // ^^^ defined(_DEBUG) / !defined(_DEBUG) vvv
; 216  :     constexpr uintptr_t _Min_back_shift = sizeof(void*);
; 217  : #endif // ^^^ !defined(_DEBUG) ^^^
; 218  :     const uintptr_t _Back_shift = reinterpret_cast<uintptr_t>(_Ptr) - _Ptr_container;

  00053	2b f2		 sub	 esi, edx

; 219  :     _STL_VERIFY(_Back_shift >= _Min_back_shift && _Back_shift <= _Non_user_size, "invalid argument");

  00055	8d 46 fc	 lea	 eax, DWORD PTR [esi-4]
  00058	83 f8 1f	 cmp	 eax, 31			; 0000001fH
  0005b	77 23		 ja	 SHORT $LN40@vector

; 220  :     _Ptr = reinterpret_cast<void*>(_Ptr_container);

  0005d	8b f2		 mov	 esi, edx
$LN41@vector:

; 289  :         ::operator delete(_Ptr, _Bytes);

  0005f	51		 push	 ecx
  00060	56		 push	 esi
  00061	e8 00 00 00 00	 call	 ??3@YAXPAXI@Z		; operator delete
; File C:\Program Files\Microsoft Visual Studio\2022\Professional\VC\Tools\MSVC\14.44.35207\include\vector

; 2095 :             _Myfirst = nullptr;

  00066	c7 07 00 00 00
	00		 mov	 DWORD PTR [edi], 0
; File C:\Program Files\Microsoft Visual Studio\2022\Professional\VC\Tools\MSVC\14.44.35207\include\xmemory

; 289  :         ::operator delete(_Ptr, _Bytes);

  0006c	83 c4 08	 add	 esp, 8
; File C:\Program Files\Microsoft Visual Studio\2022\Professional\VC\Tools\MSVC\14.44.35207\include\vector

; 2096 :             _Mylast  = nullptr;

  0006f	c7 47 04 00 00
	00 00		 mov	 DWORD PTR [edi+4], 0

; 2097 :             _Myend   = nullptr;

  00076	c7 47 08 00 00
	00 00		 mov	 DWORD PTR [edi+8], 0
$LN5@vector:
  0007d	5f		 pop	 edi

; 835  :     }

  0007e	5e		 pop	 esi
  0007f	c3		 ret	 0
$LN40@vector:
; File C:\Program Files\Microsoft Visual Studio\2022\Professional\VC\Tools\MSVC\14.44.35207\include\xmemory

; 219  :     _STL_VERIFY(_Back_shift >= _Min_back_shift && _Back_shift <= _Non_user_size, "invalid argument");

  00080	6a 00		 push	 0
  00082	6a 00		 push	 0
  00084	6a 00		 push	 0
  00086	6a 00		 push	 0
  00088	6a 00		 push	 0
  0008a	e8 00 00 00 00	 call	 __invoke_watson
$LN54@vector:
  0008f	cc		 int	 3
??1?$vector@U__SECRETROOM_TENDER@@V?$allocator@U__SECRETROOM_TENDER@@@std@@@std@@QAE@XZ ENDP ; std::vector<__SECRETROOM_TENDER,std::allocator<__SECRETROOM_TENDER> >::~vector<__SECRETROOM_TENDER,std::allocator<__SECRETROOM_TENDER> >
_TEXT	ENDS
; Function compile flags: /Ogtp
; File C:\IAGOS\server\v18\Source\Source\_Common\SecretRoom.cpp
;	COMDAT ??1CSecretRoomContinent@@UAE@XZ
_TEXT	SEGMENT
??1CSecretRoomContinent@@UAE@XZ PROC			; CSecretRoomContinent::~CSecretRoomContinent, COMDAT
; _this$ = ecx

; 683  : {

  00000	c7 01 00 00 00
	00		 mov	 DWORD PTR [ecx], OFFSET ??_7CSecretRoomContinent@@6B@

; 684  : 
; 685  : }

  00006	83 c1 10	 add	 ecx, 16			; 00000010H
  00009	e9 00 00 00 00	 jmp	 ??1?$vector@U__SECRETROOM_TENDER@@V?$allocator@U__SECRETROOM_TENDER@@@std@@@std@@QAE@XZ ; std::vector<__SECRETROOM_TENDER,std::allocator<__SECRETROOM_TENDER> >::~vector<__SECRETROOM_TENDER,std::allocator<__SECRETROOM_TENDER> >
??1CSecretRoomContinent@@UAE@XZ ENDP			; CSecretRoomContinent::~CSecretRoomContinent
_TEXT	ENDS
; Function compile flags: /Ogtp
; File C:\IAGOS\server\v18\Source\Source\_Common\SecretRoom.cpp
; File C:\Program Files\Microsoft Visual Studio\2022\Professional\VC\Tools\MSVC\14.44.35207\include\vector
; File C:\IAGOS\server\v18\Source\Source\_Common\SecretRoom.cpp
;	COMDAT ??0CSecretRoomContinent@@QAE@E@Z
_TEXT	SEGMENT
_this$ = -4						; size = 4
_nCont$ = 8						; size = 1
??0CSecretRoomContinent@@QAE@E@Z PROC			; CSecretRoomContinent::CSecretRoomContinent, COMDAT
; _this$ = ecx

; 673  : {

  00000	55		 push	 ebp
  00001	8b ec		 mov	 ebp, esp
  00003	51		 push	 ecx

; 676  : 	m_nContinent = nCont;

  00004	8a 45 08	 mov	 al, BYTE PTR _nCont$[ebp]
  00007	c7 01 00 00 00
	00		 mov	 DWORD PTR [ecx], OFFSET ??_7CSecretRoomContinent@@6B@
; File C:\Program Files\Microsoft Visual Studio\2022\Professional\VC\Tools\MSVC\14.44.35207\include\vector

; 400  :     _CONSTEXPR20 _Vector_val() noexcept : _Myfirst(), _Mylast(), _Myend() {}

  0000d	c7 41 10 00 00
	00 00		 mov	 DWORD PTR [ecx+16], 0
  00014	c7 41 14 00 00
	00 00		 mov	 DWORD PTR [ecx+20], 0
  0001b	c7 41 18 00 00
	00 00		 mov	 DWORD PTR [ecx+24], 0
; File C:\IAGOS\server\v18\Source\Source\_Common\SecretRoom.cpp

; 676  : 	m_nContinent = nCont;

  00022	88 41 0c	 mov	 BYTE PTR [ecx+12], al

; 677  : #ifdef __WORLDSERVER
; 678  : 	m_nFailedGuild = 0;
; 679  : #endif // __WORLDSERVER
; 680  : }

  00025	8b c1		 mov	 eax, ecx
  00027	89 4d fc	 mov	 DWORD PTR _this$[ebp], ecx
  0002a	c7 41 04 65 00
	00 00		 mov	 DWORD PTR [ecx+4], 101	; 00000065H
  00031	c7 41 08 00 00
	00 00		 mov	 DWORD PTR [ecx+8], 0
  00038	c7 41 1c 00 00
	00 00		 mov	 DWORD PTR [ecx+28], 0
  0003f	8b e5		 mov	 esp, ebp
  00041	5d		 pop	 ebp
  00042	c2 04 00	 ret	 4
??0CSecretRoomContinent@@QAE@E@Z ENDP			; CSecretRoomContinent::CSecretRoomContinent
_TEXT	ENDS
; Function compile flags: /Ogtp
;	COMDAT ??_GCSecretRoomMng@@UAEPAXI@Z
_TEXT	SEGMENT
___flags$ = 8						; size = 4
??_GCSecretRoomMng@@UAEPAXI@Z PROC			; CSecretRoomMng::`scalar deleting destructor', COMDAT
; _this$ = ecx
  00000	55		 push	 ebp
  00001	8b ec		 mov	 ebp, esp
  00003	56		 push	 esi
  00004	8b f1		 mov	 esi, ecx
  00006	e8 00 00 00 00	 call	 ??1CSecretRoomMng@@UAE@XZ ; CSecretRoomMng::~CSecretRoomMng
  0000b	f6 45 08 01	 test	 BYTE PTR ___flags$[ebp], 1
  0000f	74 0b		 je	 SHORT $LN5@scalar
  00011	6a 70		 push	 112			; 00000070H
  00013	56		 push	 esi
  00014	e8 00 00 00 00	 call	 ??3@YAXPAXI@Z		; operator delete
  00019	83 c4 08	 add	 esp, 8
$LN5@scalar:
  0001c	8b c6		 mov	 eax, esi
  0001e	5e		 pop	 esi
  0001f	5d		 pop	 ebp
  00020	c2 04 00	 ret	 4
??_GCSecretRoomMng@@UAEPAXI@Z ENDP			; CSecretRoomMng::`scalar deleting destructor'
_TEXT	ENDS
; Function compile flags: /Ogtp
; File C:\IAGOS\server\v18\Source\Source\_Common\SecretRoom.cpp
; File C:\IAGOS\server\v18\Source\Source\_Common\Obj.h
; File C:\IAGOS\server\v18\Source\Source\_Common\SecretRoom.cpp
; File C:\IAGOS\server\v18\Source\Source\_Common\Obj.h
; File C:\Program Files\Microsoft Visual Studio\2022\Professional\VC\Tools\MSVC\14.44.35207\include\xtree
; File C:\IAGOS\server\v18\Source\Source\_Common\SecretRoom.cpp
; File C:\Program Files\Microsoft Visual Studio\2022\Professional\VC\Tools\MSVC\14.44.35207\include\xtree
; File C:\IAGOS\server\v18\Source\Source\_Common\SecretRoom.cpp
;	COMDAT ?GetRevivalPos@CSecretRoomMng@@QAE?AUD3DXVECTOR3@@PAVCUser@@@Z
_TEXT	SEGMENT
___$ReturnUdt$ = 8					; size = 4
_pUser$ = 12						; size = 4
?GetRevivalPos@CSecretRoomMng@@QAE?AUD3DXVECTOR3@@PAVCUser@@@Z PROC ; CSecretRoomMng::GetRevivalPos, COMDAT
; _this$ = ecx

; 651  : {

  00000	55		 push	 ebp
  00001	8b ec		 mov	 ebp, esp
; File C:\IAGOS\server\v18\Source\Source\_Common\Obj.h

; 327  : 	return pObj && ( pObj->IsDelete() == FALSE ); 

  00003	8b 45 0c	 mov	 eax, DWORD PTR _pUser$[ebp]
; File C:\IAGOS\server\v18\Source\Source\_Common\SecretRoom.cpp

; 651  : {

  00006	56		 push	 esi
; File C:\IAGOS\server\v18\Source\Source\_Common\Obj.h

; 327  : 	return pObj && ( pObj->IsDelete() == FALSE ); 

  00007	85 c0		 test	 eax, eax
  00009	0f 84 97 00 00
	00		 je	 $LN85@GetRevival

; 180  : 	BOOL			IsDelete()	{ return (m_dwFlags & OBJ_FLAG_DELETE);  }

  0000f	f6 40 04 01	 test	 BYTE PTR [eax+4], 1

; 327  : 	return pObj && ( pObj->IsDelete() == FALSE ); 

  00013	0f 85 8d 00 00
	00		 jne	 $LN85@GetRevival
  00019	53		 push	 ebx
; File C:\Program Files\Microsoft Visual Studio\2022\Professional\VC\Tools\MSVC\14.44.35207\include\xtree

; 1142 :         return iterator(_Scary->_Myhead->_Left, _Scary);

  0001a	8b 59 04	 mov	 ebx, DWORD PTR [ecx+4]
  0001d	57		 push	 edi

; 37   :     _Tree_unchecked_const_iterator(_Nodeptr _Pnode, const _Mytree* _Plist) noexcept : _Ptr(_Pnode) {

  0001e	8b 33		 mov	 esi, DWORD PTR [ebx]

; 237  :         return !(*this == _Right);

  00020	3b f3		 cmp	 esi, ebx
; File C:\IAGOS\server\v18\Source\Source\_Common\SecretRoom.cpp

; 656  : 	for( ; it!=m_mapSecretRoomContinent.end(); it++ )

  00022	74 67		 je	 SHORT $LN78@GetRevival
$LL4@GetRevival:

; 657  : 	{
; 658  : 		CSecretRoomContinent* pSRCont = it->second;

  00024	8b 7e 14	 mov	 edi, DWORD PTR [esi+20]

; 659  : 		if( pSRCont && pSRCont->IsLineUpMember( pUser ) )

  00027	85 ff		 test	 edi, edi
  00029	74 0c		 je	 SHORT $LN2@GetRevival
  0002b	50		 push	 eax
  0002c	8b cf		 mov	 ecx, edi
  0002e	e8 00 00 00 00	 call	 ?IsLineUpMember@CSecretRoomContinent@@QAEHPAVCUser@@@Z ; CSecretRoomContinent::IsLineUpMember
  00033	85 c0		 test	 eax, eax
  00035	75 4e		 jne	 SHORT $LN74@GetRevival
$LN2@GetRevival:
; File C:\Program Files\Microsoft Visual Studio\2022\Professional\VC\Tools\MSVC\14.44.35207\include\xtree

; 50   :         if (_Ptr->_Right->_Isnil) { // climb looking for right subtree

  00037	8b 46 08	 mov	 eax, DWORD PTR [esi+8]
  0003a	80 78 0d 00	 cmp	 BYTE PTR [eax+13], 0
  0003e	74 24		 je	 SHORT $LN35@GetRevival

; 51   :             _Nodeptr _Pnode;
; 52   :             while (!(_Pnode = _Ptr->_Parent)->_Isnil && _Ptr == _Pnode->_Right) {

  00040	8b 46 04	 mov	 eax, DWORD PTR [esi+4]
  00043	80 78 0d 00	 cmp	 BYTE PTR [eax+13], 0
  00047	75 17		 jne	 SHORT $LN86@GetRevival
  00049	0f 1f 80 00 00
	00 00		 npad	 7
$LL33@GetRevival:
  00050	3b 70 08	 cmp	 esi, DWORD PTR [eax+8]
  00053	75 0b		 jne	 SHORT $LN86@GetRevival

; 53   :                 _Ptr = _Pnode; // ==> parent while right subtree

  00055	8b f0		 mov	 esi, eax
  00057	8b 40 04	 mov	 eax, DWORD PTR [eax+4]
  0005a	80 78 0d 00	 cmp	 BYTE PTR [eax+13], 0
  0005e	74 f0		 je	 SHORT $LL33@GetRevival
$LN86@GetRevival:

; 54   :             }
; 55   : 
; 56   :             _Ptr = _Pnode; // ==> parent (head if end())

  00060	8b f0		 mov	 esi, eax

; 57   :         } else {

  00062	eb 18		 jmp	 SHORT $LN41@GetRevival
$LN35@GetRevival:

; 58   :             _Ptr = _Mytree::_Min(_Ptr->_Right); // ==> smallest of right subtree

  00064	8b f0		 mov	 esi, eax

; 476  :         while (!_Pnode->_Left->_Isnil) {

  00066	8b 0e		 mov	 ecx, DWORD PTR [esi]
  00068	80 79 0d 00	 cmp	 BYTE PTR [ecx+13], 0
  0006c	75 0e		 jne	 SHORT $LN41@GetRevival
  0006e	66 90		 npad	 2
$LL40@GetRevival:
  00070	8b 01		 mov	 eax, DWORD PTR [ecx]

; 477  :             _Pnode = _Pnode->_Left;

  00072	8b f1		 mov	 esi, ecx
  00074	8b c8		 mov	 ecx, eax
  00076	80 78 0d 00	 cmp	 BYTE PTR [eax+13], 0
  0007a	74 f4		 je	 SHORT $LL40@GetRevival
$LN41@GetRevival:

; 237  :         return !(*this == _Right);

  0007c	3b f3		 cmp	 esi, ebx
; File C:\IAGOS\server\v18\Source\Source\_Common\SecretRoom.cpp

; 656  : 	for( ; it!=m_mapSecretRoomContinent.end(); it++ )

  0007e	74 0b		 je	 SHORT $LN78@GetRevival
  00080	8b 45 0c	 mov	 eax, DWORD PTR _pUser$[ebp]
  00083	eb 9f		 jmp	 SHORT $LL4@GetRevival
$LN74@GetRevival:

; 660  : 			return CContinent::GetInstance()->GetRevivalPos( pSRCont->m_nContinent );

  00085	8a 47 0c	 mov	 al, BYTE PTR [edi+12]
  00088	50		 push	 eax
  00089	eb 02		 jmp	 SHORT $LN98@GetRevival
$LN78@GetRevival:

; 661  : 	}
; 662  : 
; 663  : 	return CContinent::GetInstance()->GetRevivalPos( CONT_NODATA );

  0008b	6a 00		 push	 0
$LN98@GetRevival:
  0008d	8b 75 08	 mov	 esi, DWORD PTR ___$ReturnUdt$[ebp]
  00090	56		 push	 esi
  00091	e8 00 00 00 00	 call	 ?GetInstance@CContinent@@SAPAV1@XZ ; CContinent::GetInstance
  00096	8b c8		 mov	 ecx, eax
  00098	e8 00 00 00 00	 call	 ?GetRevivalPos@CContinent@@QAE?AUD3DXVECTOR3@@E@Z ; CContinent::GetRevivalPos
  0009d	5f		 pop	 edi
  0009e	5b		 pop	 ebx
  0009f	8b c6		 mov	 eax, esi
  000a1	5e		 pop	 esi

; 664  : }

  000a2	5d		 pop	 ebp
  000a3	c2 08 00	 ret	 8
$LN85@GetRevival:

; 652  : 	if( !IsValidObj( pUser ) )
; 653  : 		return CContinent::GetInstance()->GetRevivalPos( CONT_NODATA );

  000a6	8b 75 08	 mov	 esi, DWORD PTR ___$ReturnUdt$[ebp]
  000a9	6a 00		 push	 0
  000ab	56		 push	 esi
  000ac	e8 00 00 00 00	 call	 ?GetInstance@CContinent@@SAPAV1@XZ ; CContinent::GetInstance
  000b1	8b c8		 mov	 ecx, eax
  000b3	e8 00 00 00 00	 call	 ?GetRevivalPos@CContinent@@QAE?AUD3DXVECTOR3@@E@Z ; CContinent::GetRevivalPos
  000b8	8b c6		 mov	 eax, esi
  000ba	5e		 pop	 esi

; 664  : }

  000bb	5d		 pop	 ebp
  000bc	c2 08 00	 ret	 8
?GetRevivalPos@CSecretRoomMng@@QAE?AUD3DXVECTOR3@@PAVCUser@@@Z ENDP ; CSecretRoomMng::GetRevivalPos
_TEXT	ENDS
; Function compile flags: /Ogtp
; File C:\IAGOS\server\v18\Source\Source\_Common\SecretRoom.cpp
; File C:\IAGOS\server\v18\Source\Source\_Common\Obj.h
; File C:\Program Files\Microsoft Visual Studio\2022\Professional\VC\Tools\MSVC\14.44.35207\include\xtree
; File C:\IAGOS\server\v18\Source\Source\_Common\SecretRoom.cpp
; File C:\Program Files\Microsoft Visual Studio\2022\Professional\VC\Tools\MSVC\14.44.35207\include\xtree
; File C:\IAGOS\server\v18\Source\Source\_Common\SecretRoom.cpp
;	COMDAT ?SetFailGuild@CSecretRoomMng@@QAEXPAVCUser@@@Z
_TEXT	SEGMENT
_pUser$ = 8						; size = 4
?SetFailGuild@CSecretRoomMng@@QAEXPAVCUser@@@Z PROC	; CSecretRoomMng::SetFailGuild, COMDAT
; _this$ = ecx

; 634  : {

  00000	55		 push	 ebp
  00001	8b ec		 mov	 ebp, esp
  00003	57		 push	 edi
  00004	8b f9		 mov	 edi, ecx

; 635  : 	if( m_nState != SRMNG_WAR )

  00006	83 7f 34 06	 cmp	 DWORD PTR [edi+52], 6
  0000a	75 77		 jne	 SHORT $LN3@SetFailGui
  0000c	53		 push	 ebx
; File C:\IAGOS\server\v18\Source\Source\_Common\Obj.h

; 327  : 	return pObj && ( pObj->IsDelete() == FALSE ); 

  0000d	8b 5d 08	 mov	 ebx, DWORD PTR _pUser$[ebp]
  00010	85 db		 test	 ebx, ebx
  00012	74 6e		 je	 SHORT $LN96@SetFailGui

; 180  : 	BOOL			IsDelete()	{ return (m_dwFlags & OBJ_FLAG_DELETE);  }

  00014	f6 43 04 01	 test	 BYTE PTR [ebx+4], 1

; 327  : 	return pObj && ( pObj->IsDelete() == FALSE ); 

  00018	75 68		 jne	 SHORT $LN96@SetFailGui
; File C:\Program Files\Microsoft Visual Studio\2022\Professional\VC\Tools\MSVC\14.44.35207\include\xtree

; 1142 :         return iterator(_Scary->_Myhead->_Left, _Scary);

  0001a	8b 47 04	 mov	 eax, DWORD PTR [edi+4]
  0001d	56		 push	 esi

; 37   :     _Tree_unchecked_const_iterator(_Nodeptr _Pnode, const _Mytree* _Plist) noexcept : _Ptr(_Pnode) {

  0001e	8b 30		 mov	 esi, DWORD PTR [eax]

; 237  :         return !(*this == _Right);

  00020	3b f0		 cmp	 esi, eax
; File C:\IAGOS\server\v18\Source\Source\_Common\SecretRoom.cpp

; 642  : 	for( ; it!=m_mapSecretRoomContinent.end(); it++ )

  00022	74 5d		 je	 SHORT $LN97@SetFailGui
$LL4@SetFailGui:

; 643  : 	{
; 644  : 		CSecretRoomContinent* pSRCont = it->second;

  00024	8b 4e 14	 mov	 ecx, DWORD PTR [esi+20]

; 645  : 		if( pSRCont && pSRCont->m_nState == SRCONT_WAR )

  00027	85 c9		 test	 ecx, ecx
  00029	74 11		 je	 SHORT $LN2@SetFailGui
  0002b	83 79 04 67	 cmp	 DWORD PTR [ecx+4], 103	; 00000067H
  0002f	75 0b		 jne	 SHORT $LN2@SetFailGui

; 646  : 			pSRCont->SetContFailGuild( pUser->m_idGuild );

  00031	ff b3 14 07 00
	00		 push	 DWORD PTR [ebx+1812]
  00037	e8 00 00 00 00	 call	 ?SetContFailGuild@CSecretRoomContinent@@QAEXK@Z ; CSecretRoomContinent::SetContFailGuild
$LN2@SetFailGui:
; File C:\Program Files\Microsoft Visual Studio\2022\Professional\VC\Tools\MSVC\14.44.35207\include\xtree

; 50   :         if (_Ptr->_Right->_Isnil) { // climb looking for right subtree

  0003c	8b 46 08	 mov	 eax, DWORD PTR [esi+8]
  0003f	80 78 0d 00	 cmp	 BYTE PTR [eax+13], 0
  00043	74 1f		 je	 SHORT $LN36@SetFailGui

; 51   :             _Nodeptr _Pnode;
; 52   :             while (!(_Pnode = _Ptr->_Parent)->_Isnil && _Ptr == _Pnode->_Right) {

  00045	8b 46 04	 mov	 eax, DWORD PTR [esi+4]
  00048	80 78 0d 00	 cmp	 BYTE PTR [eax+13], 0
  0004c	75 12		 jne	 SHORT $LN85@SetFailGui
  0004e	66 90		 npad	 2
$LL34@SetFailGui:
  00050	3b 70 08	 cmp	 esi, DWORD PTR [eax+8]
  00053	75 0b		 jne	 SHORT $LN85@SetFailGui

; 53   :                 _Ptr = _Pnode; // ==> parent while right subtree

  00055	8b f0		 mov	 esi, eax
  00057	8b 40 04	 mov	 eax, DWORD PTR [eax+4]
  0005a	80 78 0d 00	 cmp	 BYTE PTR [eax+13], 0
  0005e	74 f0		 je	 SHORT $LL34@SetFailGui
$LN85@SetFailGui:

; 54   :             }
; 55   : 
; 56   :             _Ptr = _Pnode; // ==> parent (head if end())

  00060	8b f0		 mov	 esi, eax

; 57   :         } else {

  00062	eb 18		 jmp	 SHORT $LN42@SetFailGui
$LN36@SetFailGui:

; 58   :             _Ptr = _Mytree::_Min(_Ptr->_Right); // ==> smallest of right subtree

  00064	8b f0		 mov	 esi, eax

; 476  :         while (!_Pnode->_Left->_Isnil) {

  00066	8b 0e		 mov	 ecx, DWORD PTR [esi]
  00068	80 79 0d 00	 cmp	 BYTE PTR [ecx+13], 0
  0006c	75 0e		 jne	 SHORT $LN42@SetFailGui
  0006e	66 90		 npad	 2
$LL41@SetFailGui:
  00070	8b 01		 mov	 eax, DWORD PTR [ecx]

; 477  :             _Pnode = _Pnode->_Left;

  00072	8b f1		 mov	 esi, ecx
  00074	8b c8		 mov	 ecx, eax
  00076	80 78 0d 00	 cmp	 BYTE PTR [eax+13], 0
  0007a	74 f4		 je	 SHORT $LL41@SetFailGui
$LN42@SetFailGui:

; 237  :         return !(*this == _Right);

  0007c	3b 77 04	 cmp	 esi, DWORD PTR [edi+4]
; File C:\IAGOS\server\v18\Source\Source\_Common\SecretRoom.cpp

; 642  : 	for( ; it!=m_mapSecretRoomContinent.end(); it++ )

  0007f	75 a3		 jne	 SHORT $LL4@SetFailGui
$LN97@SetFailGui:
  00081	5e		 pop	 esi
$LN96@SetFailGui:
  00082	5b		 pop	 ebx
$LN3@SetFailGui:
  00083	5f		 pop	 edi

; 647  : 	}
; 648  : }

  00084	5d		 pop	 ebp
  00085	c2 04 00	 ret	 4
?SetFailGuild@CSecretRoomMng@@QAEXPAVCUser@@@Z ENDP	; CSecretRoomMng::SetFailGuild
_TEXT	ENDS
; Function compile flags: /Ogtp
; File C:\IAGOS\server\v18\Source\Source\_Common\SecretRoom.cpp
; File C:\Program Files\Microsoft Visual Studio\2022\Professional\VC\Tools\MSVC\14.44.35207\include\xtree
; File C:\IAGOS\server\v18\Source\Source\_Common\SecretRoom.cpp
; File C:\Program Files\Microsoft Visual Studio\2022\Professional\VC\Tools\MSVC\14.44.35207\include\xtree
; File C:\IAGOS\server\v18\Source\Source\_Common\SecretRoom.cpp
;	COMDAT ?SetSecretRoomKill@CSecretRoomMng@@QAEXKK@Z
_TEXT	SEGMENT
_dwWorldId$ = 8						; size = 4
_dwMonsterId$ = 12					; size = 4
?SetSecretRoomKill@CSecretRoomMng@@QAEXKK@Z PROC	; CSecretRoomMng::SetSecretRoomKill, COMDAT
; _this$ = ecx

; 620  : {

  00000	55		 push	 ebp
  00001	8b ec		 mov	 ebp, esp
  00003	57		 push	 edi
  00004	8b f9		 mov	 edi, ecx

; 621  : 	if( m_nState != SRMNG_WAR )

  00006	83 7f 34 06	 cmp	 DWORD PTR [edi+52], 6
  0000a	75 69		 jne	 SHORT $LN3@SetSecretR
; File C:\Program Files\Microsoft Visual Studio\2022\Professional\VC\Tools\MSVC\14.44.35207\include\xtree

; 1142 :         return iterator(_Scary->_Myhead->_Left, _Scary);

  0000c	8b 47 04	 mov	 eax, DWORD PTR [edi+4]
  0000f	56		 push	 esi

; 37   :     _Tree_unchecked_const_iterator(_Nodeptr _Pnode, const _Mytree* _Plist) noexcept : _Ptr(_Pnode) {

  00010	8b 30		 mov	 esi, DWORD PTR [eax]

; 237  :         return !(*this == _Right);

  00012	3b f0		 cmp	 esi, eax
; File C:\IAGOS\server\v18\Source\Source\_Common\SecretRoom.cpp

; 625  : 	for( ; it!=m_mapSecretRoomContinent.end(); it++ )

  00014	74 5e		 je	 SHORT $LN85@SetSecretR
  00016	53		 push	 ebx
  00017	8b 5d 0c	 mov	 ebx, DWORD PTR _dwMonsterId$[ebp]
  0001a	66 0f 1f 44 00
	00		 npad	 6
$LL4@SetSecretR:

; 626  : 	{
; 627  : 		CSecretRoomContinent* pSRCont = it->second;

  00020	8b 4e 14	 mov	 ecx, DWORD PTR [esi+20]

; 628  : 		if( pSRCont )

  00023	85 c9		 test	 ecx, ecx
  00025	74 0b		 je	 SHORT $LN2@SetSecretR

; 629  : 			pSRCont->SetSecretRoomContKill( dwWorldId, dwMonsterId );

  00027	6a 01		 push	 1
  00029	53		 push	 ebx
  0002a	ff 75 08	 push	 DWORD PTR _dwWorldId$[ebp]
  0002d	e8 00 00 00 00	 call	 ?SetSecretRoomContKill@CSecretRoomContinent@@QAEXKKH@Z ; CSecretRoomContinent::SetSecretRoomContKill
$LN2@SetSecretR:
; File C:\Program Files\Microsoft Visual Studio\2022\Professional\VC\Tools\MSVC\14.44.35207\include\xtree

; 50   :         if (_Ptr->_Right->_Isnil) { // climb looking for right subtree

  00032	8b 46 08	 mov	 eax, DWORD PTR [esi+8]
  00035	80 78 0d 00	 cmp	 BYTE PTR [eax+13], 0
  00039	74 1d		 je	 SHORT $LN29@SetSecretR

; 51   :             _Nodeptr _Pnode;
; 52   :             while (!(_Pnode = _Ptr->_Parent)->_Isnil && _Ptr == _Pnode->_Right) {

  0003b	8b 46 04	 mov	 eax, DWORD PTR [esi+4]
  0003e	80 78 0d 00	 cmp	 BYTE PTR [eax+13], 0
  00042	75 10		 jne	 SHORT $LN77@SetSecretR
$LL27@SetSecretR:
  00044	3b 70 08	 cmp	 esi, DWORD PTR [eax+8]
  00047	75 0b		 jne	 SHORT $LN77@SetSecretR

; 53   :                 _Ptr = _Pnode; // ==> parent while right subtree

  00049	8b f0		 mov	 esi, eax
  0004b	8b 40 04	 mov	 eax, DWORD PTR [eax+4]
  0004e	80 78 0d 00	 cmp	 BYTE PTR [eax+13], 0
  00052	74 f0		 je	 SHORT $LL27@SetSecretR
$LN77@SetSecretR:

; 54   :             }
; 55   : 
; 56   :             _Ptr = _Pnode; // ==> parent (head if end())

  00054	8b f0		 mov	 esi, eax

; 57   :         } else {

  00056	eb 16		 jmp	 SHORT $LN35@SetSecretR
$LN29@SetSecretR:

; 58   :             _Ptr = _Mytree::_Min(_Ptr->_Right); // ==> smallest of right subtree

  00058	8b f0		 mov	 esi, eax

; 476  :         while (!_Pnode->_Left->_Isnil) {

  0005a	8b 0e		 mov	 ecx, DWORD PTR [esi]
  0005c	80 79 0d 00	 cmp	 BYTE PTR [ecx+13], 0
  00060	75 0c		 jne	 SHORT $LN35@SetSecretR
$LL34@SetSecretR:
  00062	8b 01		 mov	 eax, DWORD PTR [ecx]

; 477  :             _Pnode = _Pnode->_Left;

  00064	8b f1		 mov	 esi, ecx
  00066	8b c8		 mov	 ecx, eax
  00068	80 78 0d 00	 cmp	 BYTE PTR [eax+13], 0
  0006c	74 f4		 je	 SHORT $LL34@SetSecretR
$LN35@SetSecretR:

; 237  :         return !(*this == _Right);

  0006e	3b 77 04	 cmp	 esi, DWORD PTR [edi+4]
; File C:\IAGOS\server\v18\Source\Source\_Common\SecretRoom.cpp

; 625  : 	for( ; it!=m_mapSecretRoomContinent.end(); it++ )

  00071	75 ad		 jne	 SHORT $LL4@SetSecretR
  00073	5b		 pop	 ebx
$LN85@SetSecretR:
  00074	5e		 pop	 esi
$LN3@SetSecretR:
  00075	5f		 pop	 edi

; 630  : 	}
; 631  : }

  00076	5d		 pop	 ebp
  00077	c2 08 00	 ret	 8
?SetSecretRoomKill@CSecretRoomMng@@QAEXKK@Z ENDP	; CSecretRoomMng::SetSecretRoomKill
_TEXT	ENDS
; Function compile flags: /Ogtp
; File C:\IAGOS\server\v18\Source\Source\_Common\SecretRoom.cpp
; File C:\Program Files\Microsoft Visual Studio\2022\Professional\VC\Tools\MSVC\14.44.35207\include\xtree
; File C:\Program Files\Microsoft Visual Studio\2022\Professional\VC\Tools\MSVC\14.44.35207\include\type_traits
; File C:\Program Files\Microsoft Visual Studio\2022\Professional\VC\Tools\MSVC\14.44.35207\include\xtree
; File C:\IAGOS\server\v18\Source\Source\_Common\SecretRoom.cpp
; File C:\Program Files\Microsoft Visual Studio\2022\Professional\VC\Tools\MSVC\14.44.35207\atlmfc\include\atlsimpstr.h
; File C:\IAGOS\server\v18\Source\Source\_Common\SecretRoom.cpp
; File C:\Program Files\Microsoft Visual Studio\2022\Professional\VC\Tools\MSVC\14.44.35207\atlmfc\include\atlsimpstr.h
; File C:\IAGOS\server\v18\Source\Source\_Common\SecretRoom.cpp
;	COMDAT ?SetTeleportSecretRoom@CSecretRoomMng@@QAEXPAVCUser@@@Z
_TEXT	SEGMENT
__Loc$2 = -24						; size = 12
__$EHRec$ = -12						; size = 12
_pUser$ = 8						; size = 4
$T3 = 8							; size = 4
_nCont$ = 8						; size = 1
?SetTeleportSecretRoom@CSecretRoomMng@@QAEXPAVCUser@@@Z PROC ; CSecretRoomMng::SetTeleportSecretRoom, COMDAT
; _this$ = ecx

; 601  : {

  00000	55		 push	 ebp
  00001	8b ec		 mov	 ebp, esp
  00003	6a ff		 push	 -1
  00005	68 00 00 00 00	 push	 __ehhandler$?SetTeleportSecretRoom@CSecretRoomMng@@QAEXPAVCUser@@@Z
  0000a	64 a1 00 00 00
	00		 mov	 eax, DWORD PTR fs:0
  00010	50		 push	 eax
  00011	83 ec 0c	 sub	 esp, 12			; 0000000cH
  00014	53		 push	 ebx
  00015	56		 push	 esi
  00016	57		 push	 edi
  00017	a1 00 00 00 00	 mov	 eax, DWORD PTR ___security_cookie
  0001c	33 c5		 xor	 eax, ebp
  0001e	50		 push	 eax
  0001f	8d 45 f4	 lea	 eax, DWORD PTR __$EHRec$[ebp]
  00022	64 a3 00 00 00
	00		 mov	 DWORD PTR fs:0, eax
  00028	8b f1		 mov	 esi, ecx

; 602  : 	if( m_nState != SRMNG_ENTRANCE && m_nState != SRMNG_WARWAIT && m_nState != SRMNG_WAR )

  0002a	8b 46 34	 mov	 eax, DWORD PTR [esi+52]
  0002d	83 f8 04	 cmp	 eax, 4
  00030	74 2b		 je	 SHORT $LN2@SetTelepor
  00032	83 f8 05	 cmp	 eax, 5
  00035	74 26		 je	 SHORT $LN2@SetTelepor
  00037	83 f8 06	 cmp	 eax, 6
  0003a	74 21		 je	 SHORT $LN2@SetTelepor

; 603  : 	{
; 604  : 		pUser->AddDefinedText( TID_GAME_SECRETROOM_NOENTRANCE );

  0003c	8b 4d 08	 mov	 ecx, DWORD PTR _pUser$[ebp]
  0003f	68 74 0e 00 00	 push	 3700			; 00000e74H
  00044	e8 00 00 00 00	 call	 ?AddDefinedText@CUser@@QAEXH@Z ; CUser::AddDefinedText

; 617  : }

  00049	8b 4d f4	 mov	 ecx, DWORD PTR __$EHRec$[ebp]
  0004c	64 89 0d 00 00
	00 00		 mov	 DWORD PTR fs:0, ecx
  00053	59		 pop	 ecx
  00054	5f		 pop	 edi
  00055	5e		 pop	 esi
  00056	5b		 pop	 ebx
  00057	8b e5		 mov	 esp, ebp
  00059	5d		 pop	 ebp
  0005a	c2 04 00	 ret	 4
$LN2@SetTelepor:

; 605  : 		return;
; 606  : 	}
; 607  : 
; 608  : 	BYTE nCont = GetContinent( (CMover*)pUser );

  0005d	8b 7d 08	 mov	 edi, DWORD PTR _pUser$[ebp]
  00060	57		 push	 edi
  00061	e8 00 00 00 00	 call	 ?GetContinent@CSecretRoomMng@@QAEEPAVCMover@@@Z ; CSecretRoomMng::GetContinent
  00066	8a d8		 mov	 bl, al
  00068	88 5d 08	 mov	 BYTE PTR _nCont$[ebp], bl
  0006b	84 db		 test	 bl, bl

; 609  : 	if( nCont == CONT_NODATA )

  0006d	0f 84 99 00 00
	00		 je	 $LN45@SetTelepor
; File C:\Program Files\Microsoft Visual Studio\2022\Professional\VC\Tools\MSVC\14.44.35207\include\xtree

; 1384 :         const _Tree_find_result<_Nodeptr> _Loc = _Find_lower_bound(_Keyval);

  00073	8d 45 08	 lea	 eax, DWORD PTR _nCont$[ebp]
  00076	50		 push	 eax
  00077	8d 45 e8	 lea	 eax, DWORD PTR __Loc$2[ebp]
  0007a	50		 push	 eax
  0007b	8d 4e 04	 lea	 ecx, DWORD PTR [esi+4]
  0007e	e8 00 00 00 00	 call	 ??$_Find_lower_bound@E@?$_Tree@V?$_Tmap_traits@EPAVCSecretRoomContinent@@U?$less@E@std@@V?$allocator@U?$pair@$$CBEPAVCSecretRoomContinent@@@std@@@3@$0A@@std@@@std@@IBE?AU?$_Tree_find_result@PAU?$_Tree_node@U?$pair@$$CBEPAVCSecretRoomContinent@@@std@@PAX@std@@@1@ABE@Z ; std::_Tree<std::_Tmap_traits<unsigned char,CSecretRoomContinent *,std::less<unsigned char>,std::allocator<std::pair<unsigned char const ,CSecretRoomContinent *> >,0> >::_Find_lower_bound<unsigned char>

; 1624 :         return !_Bound->_Isnil && !_DEBUG_LT_PRED(_Getcomp(), _Keyval, _Traits::_Kfn(_Bound->_Myval));

  00083	8b 4d f0	 mov	 ecx, DWORD PTR __Loc$2[ebp+8]
  00086	80 79 0d 00	 cmp	 BYTE PTR [ecx+13], 0
  0008a	75 05		 jne	 SHORT $LN11@SetTelepor
; File C:\Program Files\Microsoft Visual Studio\2022\Professional\VC\Tools\MSVC\14.44.35207\include\type_traits

; 2380 :         return _Left < _Right;

  0008c	3a 59 10	 cmp	 bl, BYTE PTR [ecx+16]
; File C:\Program Files\Microsoft Visual Studio\2022\Professional\VC\Tools\MSVC\14.44.35207\include\xtree

; 1624 :         return !_Bound->_Isnil && !_DEBUG_LT_PRED(_Getcomp(), _Keyval, _Traits::_Kfn(_Bound->_Myval));

  0008f	73 03		 jae	 SHORT $LN10@SetTelepor
$LN11@SetTelepor:

; 1389 :         return _Get_scary()->_Myhead;

  00091	8b 4e 04	 mov	 ecx, DWORD PTR [esi+4]
$LN10@SetTelepor:
; File C:\IAGOS\server\v18\Source\Source\_Common\SecretRoom.cpp

; 612  : 	CSecretRoomContinent* pSRCont = m_mapSecretRoomContinent.find(nCont)->second;

  00094	8b 49 14	 mov	 ecx, DWORD PTR [ecx+20]

; 613  : 	if( pSRCont && pSRCont->m_nState != SRCONT_CLOSE )

  00097	85 c9		 test	 ecx, ecx
  00099	74 20		 je	 SHORT $LN4@SetTelepor
  0009b	83 79 04 65	 cmp	 DWORD PTR [ecx+4], 101	; 00000065H
  0009f	74 1a		 je	 SHORT $LN4@SetTelepor

; 614  : 		pSRCont->SetTeleportSecretRoomCont( pUser );

  000a1	57		 push	 edi
  000a2	e8 00 00 00 00	 call	 ?SetTeleportSecretRoomCont@CSecretRoomContinent@@QAEXPAVCUser@@@Z ; CSecretRoomContinent::SetTeleportSecretRoomCont

; 617  : }

  000a7	8b 4d f4	 mov	 ecx, DWORD PTR __$EHRec$[ebp]
  000aa	64 89 0d 00 00
	00 00		 mov	 DWORD PTR fs:0, ecx
  000b1	59		 pop	 ecx
  000b2	5f		 pop	 edi
  000b3	5e		 pop	 esi
  000b4	5b		 pop	 ebx
  000b5	8b e5		 mov	 esp, ebp
  000b7	5d		 pop	 ebp
  000b8	c2 04 00	 ret	 4
$LN4@SetTelepor:

; 616  : 		pUser->AddDefinedText( TID_GAME_SECRETROOM_NOTOPENCONT, "\"%s\"", CContinent::GetInstance()->GetContinentName( nCont ) );

  000bb	ff 75 08	 push	 DWORD PTR _nCont$[ebp]
  000be	8d 45 08	 lea	 eax, DWORD PTR $T3[ebp]
  000c1	50		 push	 eax
  000c2	e8 00 00 00 00	 call	 ?GetInstance@CContinent@@SAPAV1@XZ ; CContinent::GetInstance
  000c7	8b c8		 mov	 ecx, eax
  000c9	e8 00 00 00 00	 call	 ?GetContinentName@CContinent@@QAE?AV?$CStringT@DV?$StrTraitMFC@DV?$ChTraitsCRT@D@ATL@@@@@ATL@@E@Z ; CContinent::GetContinentName
  000ce	ff 30		 push	 DWORD PTR [eax]
  000d0	c7 45 fc 00 00
	00 00		 mov	 DWORD PTR __$EHRec$[ebp+8], 0
  000d7	68 00 00 00 00	 push	 OFFSET ??_C@_04OEDFLLKD@?$CC?$CFs?$CC@
  000dc	68 72 0e 00 00	 push	 3698			; 00000e72H
  000e1	57		 push	 edi
  000e2	e8 00 00 00 00	 call	 ?AddDefinedText@CUser@@QAAXHPBDZZ ; CUser::AddDefinedText
; File C:\Program Files\Microsoft Visual Studio\2022\Professional\VC\Tools\MSVC\14.44.35207\atlmfc\include\atlsimpstr.h

; 804  : 		return( reinterpret_cast< CStringData* >( m_pszData )-1 );

  000e7	8b 55 08	 mov	 edx, DWORD PTR $T3[ebp]
; File C:\IAGOS\server\v18\Source\Source\_Common\SecretRoom.cpp

; 616  : 		pUser->AddDefinedText( TID_GAME_SECRETROOM_NOTOPENCONT, "\"%s\"", CContinent::GetInstance()->GetContinentName( nCont ) );

  000ea	83 c4 10	 add	 esp, 16			; 00000010H
  000ed	c7 45 fc ff ff
	ff ff		 mov	 DWORD PTR __$EHRec$[ebp+8], -1
; File C:\Program Files\Microsoft Visual Studio\2022\Professional\VC\Tools\MSVC\14.44.35207\atlmfc\include\atlsimpstr.h

; 804  : 		return( reinterpret_cast< CStringData* >( m_pszData )-1 );

  000f4	83 c2 f0	 add	 edx, -16		; fffffff0H

; 92   : 		if( _InterlockedDecrement( &nRefs ) <= 0 )

  000f7	83 c8 ff	 or	 eax, -1
  000fa	f0 0f c1 42 0c	 lock	  xadd	 DWORD PTR [edx+12], eax
  000ff	48		 dec	 eax
  00100	85 c0		 test	 eax, eax
  00102	7f 08		 jg	 SHORT $LN45@SetTelepor

; 93   : 		{
; 94   : 			pStringMgr->Free( this );

  00104	8b 0a		 mov	 ecx, DWORD PTR [edx]
  00106	52		 push	 edx
  00107	8b 01		 mov	 eax, DWORD PTR [ecx]
  00109	ff 50 04	 call	 DWORD PTR [eax+4]
$LN45@SetTelepor:
; File C:\IAGOS\server\v18\Source\Source\_Common\SecretRoom.cpp

; 617  : }

  0010c	8b 4d f4	 mov	 ecx, DWORD PTR __$EHRec$[ebp]
  0010f	64 89 0d 00 00
	00 00		 mov	 DWORD PTR fs:0, ecx
  00116	59		 pop	 ecx
  00117	5f		 pop	 edi
  00118	5e		 pop	 esi
  00119	5b		 pop	 ebx
  0011a	8b e5		 mov	 esp, ebp
  0011c	5d		 pop	 ebp
  0011d	c2 04 00	 ret	 4
_TEXT	ENDS
;	COMDAT text$x
text$x	SEGMENT
__unwindfunclet$?SetTeleportSecretRoom@CSecretRoomMng@@QAEXPAVCUser@@@Z$0:
  00000	8d 4d 08	 lea	 ecx, DWORD PTR $T3[ebp]
  00003	e9 00 00 00 00	 jmp	 ??1?$CStringT@DV?$StrTraitMFC@DV?$ChTraitsCRT@D@ATL@@@@@ATL@@QAE@XZ ; ATL::CStringT<char,StrTraitMFC<char,ATL::ChTraitsCRT<char> > >::~CStringT<char,StrTraitMFC<char,ATL::ChTraitsCRT<char> > >
  00008	cc		 int	 3
  00009	cc		 int	 3
  0000a	cc		 int	 3
  0000b	cc		 int	 3
  0000c	cc		 int	 3
__ehhandler$?SetTeleportSecretRoom@CSecretRoomMng@@QAEXPAVCUser@@@Z:
  0000d	90		 npad	 1
  0000e	90		 npad	 1
  0000f	8b 54 24 08	 mov	 edx, DWORD PTR [esp+8]
  00013	8d 42 0c	 lea	 eax, DWORD PTR [edx+12]
  00016	8b 4a e4	 mov	 ecx, DWORD PTR [edx-28]
  00019	33 c8		 xor	 ecx, eax
  0001b	e8 00 00 00 00	 call	 @__security_check_cookie@4
  00020	b8 00 00 00 00	 mov	 eax, OFFSET __ehfuncinfo$?SetTeleportSecretRoom@CSecretRoomMng@@QAEXPAVCUser@@@Z
  00025	e9 00 00 00 00	 jmp	 ___CxxFrameHandler3
text$x	ENDS
?SetTeleportSecretRoom@CSecretRoomMng@@QAEXPAVCUser@@@Z ENDP ; CSecretRoomMng::SetTeleportSecretRoom
; Function compile flags: /Ogtp
; File C:\IAGOS\server\v18\Source\Source\_Common\SecretRoom.cpp
; File C:\Program Files\Microsoft Visual Studio\2022\Professional\VC\Tools\MSVC\14.44.35207\include\xtree
; File C:\IAGOS\server\v18\Source\Source\_Common\SecretRoom.cpp
; File C:\Program Files\Microsoft Visual Studio\2022\Professional\VC\Tools\MSVC\14.44.35207\include\vector
; File C:\IAGOS\server\v18\Source\Source\_Common\SecretRoom.cpp
; File C:\Program Files\Microsoft Visual Studio\2022\Professional\VC\Tools\MSVC\14.44.35207\atlmfc\include\afxstr.h
; File C:\Program Files\Microsoft Visual Studio\2022\Professional\VC\Tools\MSVC\14.44.35207\atlmfc\include\atlsimpstr.h
; File C:\IAGOS\server\v18\Source\Source\_Common\SecretRoom.cpp
; File C:\IAGOS\server\v18\Source\Source\_Common\Project.h
; File C:\IAGOS\server\v18\Source\Source\_Common\SecretRoom.cpp
; File C:\IAGOS\server\v18\Source\Source\_Common\Project.h
; File C:\IAGOS\server\v18\Source\Source\_Common\data.h
; File C:\IAGOS\server\v18\Source\Source\_Common\Project.h
; File C:\IAGOS\server\v18\Source\Source\_Common\SecretRoom.cpp
; File C:\Program Files\Microsoft Visual Studio\2022\Professional\VC\Tools\MSVC\14.44.35207\atlmfc\include\atlsimpstr.h
; File C:\IAGOS\server\v18\Source\Source\_Common\SecretRoom.cpp
; File C:\Program Files\Microsoft Visual Studio\2022\Professional\VC\Tools\MSVC\14.44.35207\atlmfc\include\atlsimpstr.h
; File C:\IAGOS\server\v18\Source\Source\_Common\SecretRoom.cpp
; File C:\Program Files\Microsoft Visual Studio\2022\Professional\VC\Tools\MSVC\14.44.35207\atlmfc\include\atlsimpstr.h
; File C:\Program Files\Microsoft Visual Studio\2022\Professional\VC\Tools\MSVC\14.44.35207\include\xtree
; File C:\IAGOS\server\v18\Source\Source\_Common\SecretRoom.cpp
; File C:\IAGOS\server\v18\Source\Source\_Common\Project.h
; File C:\IAGOS\server\v18\Source\Source\_Common\data.h
; File C:\IAGOS\server\v18\Source\Source\_Common\Project.h
; File C:\IAGOS\server\v18\Source\Source\_Common\SecretRoom.cpp
; File C:\Program Files\Microsoft Visual Studio\2022\Professional\VC\Tools\MSVC\14.44.35207\atlmfc\include\atlsimpstr.h
; File C:\IAGOS\server\v18\Source\Source\_Common\SecretRoom.cpp
;	COMDAT ?SecretRoomOpen@CSecretRoomMng@@QAEXXZ
_TEXT	SEGMENT
$T2 = -28						; size = 4
_bOpen$1$ = -24						; size = 4
_this$1$ = -20						; size = 4
_strTemp$3 = -16					; size = 4
__$EHRec$ = -12						; size = 12
?SecretRoomOpen@CSecretRoomMng@@QAEXXZ PROC		; CSecretRoomMng::SecretRoomOpen, COMDAT
; _this$ = ecx

; 379  : {

  00000	55		 push	 ebp
  00001	8b ec		 mov	 ebp, esp
  00003	6a ff		 push	 -1
  00005	68 00 00 00 00	 push	 __ehhandler$?SecretRoomOpen@CSecretRoomMng@@QAEXXZ
  0000a	64 a1 00 00 00
	00		 mov	 eax, DWORD PTR fs:0
  00010	50		 push	 eax
  00011	83 ec 10	 sub	 esp, 16			; 00000010H
  00014	53		 push	 ebx
  00015	56		 push	 esi
  00016	57		 push	 edi
  00017	a1 00 00 00 00	 mov	 eax, DWORD PTR ___security_cookie
  0001c	33 c5		 xor	 eax, ebp
  0001e	50		 push	 eax
  0001f	8d 45 f4	 lea	 eax, DWORD PTR __$EHRec$[ebp]
  00022	64 a3 00 00 00
	00		 mov	 DWORD PTR fs:0, eax
  00028	8b f1		 mov	 esi, ecx
  0002a	89 75 ec	 mov	 DWORD PTR _this$1$[ebp], esi

; 380  : 	if( !g_eLocal.GetState( EVE_SECRETROOM ) )

  0002d	6a 18		 push	 24			; 00000018H
  0002f	b9 00 00 00 00	 mov	 ecx, OFFSET ?g_eLocal@@3VCFlyffEvent@@A ; g_eLocal
  00034	e8 00 00 00 00	 call	 ?GetState@CFlyffEvent@@QAEEH@Z ; CFlyffEvent::GetState
  00039	84 c0		 test	 al, al
  0003b	0f 84 fa 01 00
	00		 je	 $LN1@SecretRoom

; 381  : 		return;
; 382  : 
; 383  : 	if( m_nState != SRMNG_CLOSE )

  00041	83 7e 34 01	 cmp	 DWORD PTR [esi+52], 1
  00045	0f 85 f0 01 00
	00		 jne	 $LN1@SecretRoom

; 384  : 		return;
; 385  : 	
; 386  : 	BOOL bOpen = FALSE;

  0004b	33 c0		 xor	 eax, eax
  0004d	89 45 e8	 mov	 DWORD PTR _bOpen$1$[ebp], eax
; File C:\Program Files\Microsoft Visual Studio\2022\Professional\VC\Tools\MSVC\14.44.35207\include\xtree

; 1142 :         return iterator(_Scary->_Myhead->_Left, _Scary);

  00050	8b 46 04	 mov	 eax, DWORD PTR [esi+4]

; 37   :     _Tree_unchecked_const_iterator(_Nodeptr _Pnode, const _Mytree* _Plist) noexcept : _Ptr(_Pnode) {

  00053	8b 38		 mov	 edi, DWORD PTR [eax]

; 237  :         return !(*this == _Right);

  00055	3b f8		 cmp	 edi, eax
; File C:\IAGOS\server\v18\Source\Source\_Common\SecretRoom.cpp

; 389  : 	for( ; it!=m_mapSecretRoomContinent.end(); it++ )

  00057	0f 84 87 01 00
	00		 je	 $LN161@SecretRoom
  0005d	0f 1f 00	 npad	 3
$LL4@SecretRoom:

; 390  : 	{
; 391  : 		CSecretRoomContinent* pSRCont = it->second;

  00060	8b 5f 14	 mov	 ebx, DWORD PTR [edi+20]

; 392  : 		if( !pSRCont || pSRCont->m_vecSecretRoomTender.size() < (DWORD)( m_nMinGuildNum ) )

  00063	85 db		 test	 ebx, ebx
  00065	0f 84 15 01 00
	00		 je	 $LN2@SecretRoom
; File C:\Program Files\Microsoft Visual Studio\2022\Professional\VC\Tools\MSVC\14.44.35207\include\vector

; 1915 :         return static_cast<size_type>(_My_data._Mylast - _My_data._Myfirst);

  0006b	8b 4b 14	 mov	 ecx, DWORD PTR [ebx+20]
  0006e	b8 e9 a2 8b 2e	 mov	 eax, 780903145		; 2e8ba2e9H
  00073	2b 4b 10	 sub	 ecx, DWORD PTR [ebx+16]
  00076	f7 e9		 imul	 ecx
  00078	c1 fa 03	 sar	 edx, 3
  0007b	8b c2		 mov	 eax, edx
  0007d	c1 e8 1f	 shr	 eax, 31			; 0000001fH
  00080	03 c2		 add	 eax, edx
; File C:\IAGOS\server\v18\Source\Source\_Common\SecretRoom.cpp

; 392  : 		if( !pSRCont || pSRCont->m_vecSecretRoomTender.size() < (DWORD)( m_nMinGuildNum ) )

  00082	3b 46 18	 cmp	 eax, DWORD PTR [esi+24]
  00085	0f 82 f5 00 00
	00		 jb	 $LN2@SecretRoom
; File C:\Program Files\Microsoft Visual Studio\2022\Professional\VC\Tools\MSVC\14.44.35207\atlmfc\include\afxstr.h

; 56   : 		return( AfxGetStringManager() );

  0008b	e8 00 00 00 00	 call	 ?AfxGetStringManager@@YGPAUIAtlStringMgr@ATL@@XZ ; AfxGetStringManager
  00090	8b c8		 mov	 ecx, eax
; File C:\Program Files\Microsoft Visual Studio\2022\Professional\VC\Tools\MSVC\14.44.35207\atlmfc\include\atlsimpstr.h

; 209  : 		ATLENSURE( pStringMgr != NULL );

  00092	85 c9		 test	 ecx, ecx
  00094	0f 84 b3 01 00
	00		 je	 $LN150@SecretRoom

; 210  : 		CStringData* pData = pStringMgr->GetNilString();

  0009a	8b 01		 mov	 eax, DWORD PTR [ecx]
  0009c	ff 50 0c	 call	 DWORD PTR [eax+12]

; 211  : 		Attach( pData );

  0009f	83 c0 10	 add	 eax, 16			; 00000010H
  000a2	89 45 f0	 mov	 DWORD PTR _strTemp$3[ebp], eax
; File C:\IAGOS\server\v18\Source\Source\_Common\SecretRoom.cpp

; 396  : 		strTemp.Format( prj.GetText( TID_GAME_SECRETROOM_CONTOPEN ), CContinent::GetInstance()->GetContinentName( it->first ) );

  000a5	8a 47 10	 mov	 al, BYTE PTR [edi+16]
  000a8	50		 push	 eax
  000a9	8d 45 e4	 lea	 eax, DWORD PTR $T2[ebp]
  000ac	c7 45 fc 00 00
	00 00		 mov	 DWORD PTR __$EHRec$[ebp+8], 0
  000b3	50		 push	 eax
  000b4	e8 00 00 00 00	 call	 ?GetInstance@CContinent@@SAPAV1@XZ ; CContinent::GetInstance
  000b9	8b c8		 mov	 ecx, eax
  000bb	e8 00 00 00 00	 call	 ?GetContinentName@CContinent@@QAE?AV?$CStringT@DV?$StrTraitMFC@DV?$ChTraitsCRT@D@ATL@@@@@ATL@@E@Z ; CContinent::GetContinentName
  000c0	8b f0		 mov	 esi, eax
; File C:\IAGOS\server\v18\Source\Source\_Common\Project.h

; 1427 : 	VERIFY_RANGE( (int)( dwIndex ), 0, m_colorText.GetSize(), "GetText range_error", "error" );

  000c2	8b 0d ac 02 00
	00		 mov	 ecx, DWORD PTR ?prj@@3VCProject@@A+684
; File C:\IAGOS\server\v18\Source\Source\_Common\SecretRoom.cpp

; 396  : 		strTemp.Format( prj.GetText( TID_GAME_SECRETROOM_CONTOPEN ), CContinent::GetInstance()->GetContinentName( it->first ) );

  000c8	c6 45 fc 01	 mov	 BYTE PTR __$EHRec$[ebp+8], 1
; File C:\IAGOS\server\v18\Source\Source\_Common\Project.h

; 1427 : 	VERIFY_RANGE( (int)( dwIndex ), 0, m_colorText.GetSize(), "GetText range_error", "error" );

  000cc	81 f9 6a 0e 00
	00		 cmp	 ecx, 3690		; 00000e6aH
  000d2	7f 21		 jg	 SHORT $LN98@SecretRoom

; 579  : 	LPCTSTR szErr = Error( _T( "%s min:%d, max:%d, index:%d" ), szMsg, nMin, nMax, nIndex ); 

  000d4	68 6a 0e 00 00	 push	 3690			; 00000e6aH
  000d9	51		 push	 ecx
  000da	6a 00		 push	 0
  000dc	68 00 00 00 00	 push	 OFFSET ??_C@_0BE@OHDBLHOM@GetText?5range_error@
  000e1	68 00 00 00 00	 push	 OFFSET ??_C@_0BM@HMFGHCP@?$CFs?5min?3?$CFd?0?5max?3?$CFd?0?5index?3?$CFd@
  000e6	e8 00 00 00 00	 call	 ?Error@@YAPBDPBDZZ	; Error
  000eb	83 c4 14	 add	 esp, 20			; 00000014H

; 1427 : 	VERIFY_RANGE( (int)( dwIndex ), 0, m_colorText.GetSize(), "GetText range_error", "error" );

  000ee	b8 00 00 00 00	 mov	 eax, OFFSET ??_C@_05KKCIMGE@error@
  000f3	eb 1b		 jmp	 SHORT $LN97@SecretRoom
$LN98@SecretRoom:
; File C:\IAGOS\server\v18\Source\Source\_Common\data.h

; 270  : 	if( dwIndex >= (DWORD)m_nMaxIndex )

  000f5	76 14		 jbe	 SHORT $LN162@SecretRoom

; 271  : 		return NULL;
; 272  : 	return (T*) m_apOffset[ dwIndex ];

  000f7	a1 9c 02 00 00	 mov	 eax, DWORD PTR ?prj@@3VCProject@@A+668
  000fc	8b 80 a8 39 00
	00		 mov	 eax, DWORD PTR [eax+14760]
; File C:\IAGOS\server\v18\Source\Source\_Common\Project.h

; 1428 : 	if( m_colorText.GetAt( dwIndex ) == NULL )

  00102	85 c0		 test	 eax, eax
  00104	74 05		 je	 SHORT $LN162@SecretRoom

; 1430 : 	return m_colorText.GetAt( dwIndex )->lpszData; 

  00106	8b 40 04	 mov	 eax, DWORD PTR [eax+4]
  00109	eb 05		 jmp	 SHORT $LN97@SecretRoom
$LN162@SecretRoom:

; 1429 : 		return "";

  0010b	b8 00 00 00 00	 mov	 eax, OFFSET ??_C@_00CNPNBAHC@@
$LN97@SecretRoom:
; File C:\IAGOS\server\v18\Source\Source\_Common\SecretRoom.cpp

; 396  : 		strTemp.Format( prj.GetText( TID_GAME_SECRETROOM_CONTOPEN ), CContinent::GetInstance()->GetContinentName( it->first ) );

  00110	ff 36		 push	 DWORD PTR [esi]
  00112	50		 push	 eax
  00113	8d 45 f0	 lea	 eax, DWORD PTR _strTemp$3[ebp]
  00116	50		 push	 eax
  00117	e8 00 00 00 00	 call	 ?Format@?$CStringT@DV?$StrTraitMFC@DV?$ChTraitsCRT@D@ATL@@@@@ATL@@QAAXPBDZZ ; ATL::CStringT<char,StrTraitMFC<char,ATL::ChTraitsCRT<char> > >::Format
; File C:\Program Files\Microsoft Visual Studio\2022\Professional\VC\Tools\MSVC\14.44.35207\atlmfc\include\atlsimpstr.h

; 804  : 		return( reinterpret_cast< CStringData* >( m_pszData )-1 );

  0011c	8b 55 e4	 mov	 edx, DWORD PTR $T2[ebp]
; File C:\IAGOS\server\v18\Source\Source\_Common\SecretRoom.cpp

; 396  : 		strTemp.Format( prj.GetText( TID_GAME_SECRETROOM_CONTOPEN ), CContinent::GetInstance()->GetContinentName( it->first ) );

  0011f	83 c4 0c	 add	 esp, 12			; 0000000cH
  00122	c6 45 fc 00	 mov	 BYTE PTR __$EHRec$[ebp+8], 0
; File C:\Program Files\Microsoft Visual Studio\2022\Professional\VC\Tools\MSVC\14.44.35207\atlmfc\include\atlsimpstr.h

; 804  : 		return( reinterpret_cast< CStringData* >( m_pszData )-1 );

  00126	83 c2 f0	 add	 edx, -16		; fffffff0H

; 92   : 		if( _InterlockedDecrement( &nRefs ) <= 0 )

  00129	83 c8 ff	 or	 eax, -1
  0012c	f0 0f c1 42 0c	 lock	  xadd	 DWORD PTR [edx+12], eax
  00131	48		 dec	 eax
  00132	85 c0		 test	 eax, eax
  00134	7f 08		 jg	 SHORT $LN120@SecretRoom

; 93   : 		{
; 94   : 			pStringMgr->Free( this );

  00136	8b 0a		 mov	 ecx, DWORD PTR [edx]
  00138	52		 push	 edx
  00139	8b 01		 mov	 eax, DWORD PTR [ecx]
  0013b	ff 50 04	 call	 DWORD PTR [eax+4]
$LN120@SecretRoom:
; File C:\IAGOS\server\v18\Source\Source\_Common\SecretRoom.cpp

; 397  : 		g_DPCoreClient.SendCaption( strTemp );

  0013e	8b 75 f0	 mov	 esi, DWORD PTR _strTemp$3[ebp]
  00141	b9 00 00 00 00	 mov	 ecx, OFFSET ?g_DPCoreClient@@3VCDPCoreClient@@A ; g_DPCoreClient
  00146	6a 00		 push	 0
  00148	6a 00		 push	 0
  0014a	56		 push	 esi
  0014b	e8 00 00 00 00	 call	 ?SendCaption@CDPCoreClient@@QAEXPBDKH@Z ; CDPCoreClient::SendCaption

; 398  : 		
; 399  : 		bOpen = TRUE;
; 400  : 		pSRCont->SecretRoomContOpen();

  00150	8b cb		 mov	 ecx, ebx
  00152	c7 45 e8 01 00
	00 00		 mov	 DWORD PTR _bOpen$1$[ebp], 1
  00159	e8 00 00 00 00	 call	 ?SecretRoomContOpen@CSecretRoomContinent@@QAEXXZ ; CSecretRoomContinent::SecretRoomContOpen

; 401  : 	}

  0015e	c7 45 fc ff ff
	ff ff		 mov	 DWORD PTR __$EHRec$[ebp+8], -1
; File C:\Program Files\Microsoft Visual Studio\2022\Professional\VC\Tools\MSVC\14.44.35207\atlmfc\include\atlsimpstr.h

; 804  : 		return( reinterpret_cast< CStringData* >( m_pszData )-1 );

  00165	83 c6 f0	 add	 esi, -16		; fffffff0H

; 92   : 		if( _InterlockedDecrement( &nRefs ) <= 0 )

  00168	83 c8 ff	 or	 eax, -1
  0016b	f0 0f c1 46 0c	 lock	  xadd	 DWORD PTR [esi+12], eax
  00170	48		 dec	 eax
  00171	85 c0		 test	 eax, eax
  00173	7f 08		 jg	 SHORT $LN165@SecretRoom

; 93   : 		{
; 94   : 			pStringMgr->Free( this );

  00175	8b 0e		 mov	 ecx, DWORD PTR [esi]
  00177	56		 push	 esi
  00178	8b 01		 mov	 eax, DWORD PTR [ecx]
  0017a	ff 50 04	 call	 DWORD PTR [eax+4]
$LN165@SecretRoom:
; File C:\Program Files\Microsoft Visual Studio\2022\Professional\VC\Tools\MSVC\14.44.35207\include\xtree

; 50   :         if (_Ptr->_Right->_Isnil) { // climb looking for right subtree

  0017d	8b 75 ec	 mov	 esi, DWORD PTR _this$1$[ebp]
$LN2@SecretRoom:
  00180	8b 47 08	 mov	 eax, DWORD PTR [edi+8]
  00183	80 78 0d 00	 cmp	 BYTE PTR [eax+13], 0
  00187	74 1d		 je	 SHORT $LN34@SecretRoom

; 51   :             _Nodeptr _Pnode;
; 52   :             while (!(_Pnode = _Ptr->_Parent)->_Isnil && _Ptr == _Pnode->_Right) {

  00189	8b 47 04	 mov	 eax, DWORD PTR [edi+4]
  0018c	80 78 0d 00	 cmp	 BYTE PTR [eax+13], 0
  00190	75 10		 jne	 SHORT $LN33@SecretRoom
$LL32@SecretRoom:
  00192	3b 78 08	 cmp	 edi, DWORD PTR [eax+8]
  00195	75 0b		 jne	 SHORT $LN33@SecretRoom

; 53   :                 _Ptr = _Pnode; // ==> parent while right subtree

  00197	8b f8		 mov	 edi, eax
  00199	8b 40 04	 mov	 eax, DWORD PTR [eax+4]
  0019c	80 78 0d 00	 cmp	 BYTE PTR [eax+13], 0
  001a0	74 f0		 je	 SHORT $LL32@SecretRoom
$LN33@SecretRoom:

; 54   :             }
; 55   : 
; 56   :             _Ptr = _Pnode; // ==> parent (head if end())

  001a2	8b f8		 mov	 edi, eax

; 57   :         } else {

  001a4	eb 16		 jmp	 SHORT $LN153@SecretRoom
$LN34@SecretRoom:

; 58   :             _Ptr = _Mytree::_Min(_Ptr->_Right); // ==> smallest of right subtree

  001a6	8b f8		 mov	 edi, eax

; 476  :         while (!_Pnode->_Left->_Isnil) {

  001a8	8b 0f		 mov	 ecx, DWORD PTR [edi]
  001aa	80 79 0d 00	 cmp	 BYTE PTR [ecx+13], 0
  001ae	75 0c		 jne	 SHORT $LN153@SecretRoom
$LL39@SecretRoom:
  001b0	8b 01		 mov	 eax, DWORD PTR [ecx]

; 477  :             _Pnode = _Pnode->_Left;

  001b2	8b f9		 mov	 edi, ecx
  001b4	8b c8		 mov	 ecx, eax
  001b6	80 78 0d 00	 cmp	 BYTE PTR [eax+13], 0
  001ba	74 f4		 je	 SHORT $LL39@SecretRoom
$LN153@SecretRoom:

; 237  :         return !(*this == _Right);

  001bc	3b 7e 04	 cmp	 edi, DWORD PTR [esi+4]
; File C:\IAGOS\server\v18\Source\Source\_Common\SecretRoom.cpp

; 389  : 	for( ; it!=m_mapSecretRoomContinent.end(); it++ )

  001bf	0f 85 9b fe ff
	ff		 jne	 $LL4@SecretRoom

; 402  : 
; 403  : 	if( !bOpen )

  001c5	83 7d e8 00	 cmp	 DWORD PTR _bOpen$1$[ebp], 0
  001c9	74 19		 je	 SHORT $LN161@SecretRoom

; 406  : 		return;
; 407  : 	}
; 408  : 
; 409  : 	m_nState = SRMNG_OPEN;

  001cb	c7 46 34 02 00
	00 00		 mov	 DWORD PTR [esi+52], 2

; 410  : }

  001d2	8b 4d f4	 mov	 ecx, DWORD PTR __$EHRec$[ebp]
  001d5	64 89 0d 00 00
	00 00		 mov	 DWORD PTR fs:0, ecx
  001dc	59		 pop	 ecx
  001dd	5f		 pop	 edi
  001de	5e		 pop	 esi
  001df	5b		 pop	 ebx
  001e0	8b e5		 mov	 esp, ebp
  001e2	5d		 pop	 ebp
  001e3	c3		 ret	 0
$LN161@SecretRoom:
; File C:\IAGOS\server\v18\Source\Source\_Common\Project.h

; 1427 : 	VERIFY_RANGE( (int)( dwIndex ), 0, m_colorText.GetSize(), "GetText range_error", "error" );

  001e4	a1 ac 02 00 00	 mov	 eax, DWORD PTR ?prj@@3VCProject@@A+684
  001e9	3d 6b 0e 00 00	 cmp	 eax, 3691		; 00000e6bH
  001ee	7f 21		 jg	 SHORT $LN132@SecretRoom

; 579  : 	LPCTSTR szErr = Error( _T( "%s min:%d, max:%d, index:%d" ), szMsg, nMin, nMax, nIndex ); 

  001f0	68 6b 0e 00 00	 push	 3691			; 00000e6bH
  001f5	50		 push	 eax
  001f6	6a 00		 push	 0
  001f8	68 00 00 00 00	 push	 OFFSET ??_C@_0BE@OHDBLHOM@GetText?5range_error@
  001fd	68 00 00 00 00	 push	 OFFSET ??_C@_0BM@HMFGHCP@?$CFs?5min?3?$CFd?0?5max?3?$CFd?0?5index?3?$CFd@
  00202	e8 00 00 00 00	 call	 ?Error@@YAPBDPBDZZ	; Error
  00207	83 c4 14	 add	 esp, 20			; 00000014H

; 1427 : 	VERIFY_RANGE( (int)( dwIndex ), 0, m_colorText.GetSize(), "GetText range_error", "error" );

  0020a	b8 00 00 00 00	 mov	 eax, OFFSET ??_C@_05KKCIMGE@error@
  0020f	eb 1b		 jmp	 SHORT $LN131@SecretRoom
$LN132@SecretRoom:
; File C:\IAGOS\server\v18\Source\Source\_Common\data.h

; 270  : 	if( dwIndex >= (DWORD)m_nMaxIndex )

  00211	76 14		 jbe	 SHORT $LN163@SecretRoom

; 271  : 		return NULL;
; 272  : 	return (T*) m_apOffset[ dwIndex ];

  00213	a1 9c 02 00 00	 mov	 eax, DWORD PTR ?prj@@3VCProject@@A+668
  00218	8b 80 ac 39 00
	00		 mov	 eax, DWORD PTR [eax+14764]
; File C:\IAGOS\server\v18\Source\Source\_Common\Project.h

; 1428 : 	if( m_colorText.GetAt( dwIndex ) == NULL )

  0021e	85 c0		 test	 eax, eax
  00220	74 05		 je	 SHORT $LN163@SecretRoom

; 1430 : 	return m_colorText.GetAt( dwIndex )->lpszData; 

  00222	8b 40 04	 mov	 eax, DWORD PTR [eax+4]
  00225	eb 05		 jmp	 SHORT $LN131@SecretRoom
$LN163@SecretRoom:

; 1429 : 		return "";

  00227	b8 00 00 00 00	 mov	 eax, OFFSET ??_C@_00CNPNBAHC@@
$LN131@SecretRoom:
; File C:\IAGOS\server\v18\Source\Source\_Common\SecretRoom.cpp

; 405  : 		g_DPCoreClient.SendCaption( prj.GetText( TID_GAME_SECRETROOM_NOTOPEN ) );

  0022c	6a 00		 push	 0
  0022e	6a 00		 push	 0
  00230	50		 push	 eax
  00231	b9 00 00 00 00	 mov	 ecx, OFFSET ?g_DPCoreClient@@3VCDPCoreClient@@A ; g_DPCoreClient
  00236	e8 00 00 00 00	 call	 ?SendCaption@CDPCoreClient@@QAEXPBDKH@Z ; CDPCoreClient::SendCaption
$LN1@SecretRoom:

; 410  : }

  0023b	8b 4d f4	 mov	 ecx, DWORD PTR __$EHRec$[ebp]
  0023e	64 89 0d 00 00
	00 00		 mov	 DWORD PTR fs:0, ecx
  00245	59		 pop	 ecx
  00246	5f		 pop	 edi
  00247	5e		 pop	 esi
  00248	5b		 pop	 ebx
  00249	8b e5		 mov	 esp, ebp
  0024b	5d		 pop	 ebp
  0024c	c3		 ret	 0
$LN150@SecretRoom:
; File C:\Program Files\Microsoft Visual Studio\2022\Professional\VC\Tools\MSVC\14.44.35207\atlmfc\include\atlsimpstr.h

; 209  : 		ATLENSURE( pStringMgr != NULL );

  0024d	68 05 40 00 80	 push	 -2147467259		; 80004005H
  00252	e8 00 00 00 00	 call	 ?AtlThrowImpl@ATL@@YGXJ@Z ; ATL::AtlThrowImpl
$LN167@SecretRoom:
  00257	cc		 int	 3
_TEXT	ENDS
;	COMDAT text$x
text$x	SEGMENT
__unwindfunclet$?SecretRoomOpen@CSecretRoomMng@@QAEXXZ$0:
  00000	8d 4d f0	 lea	 ecx, DWORD PTR _strTemp$3[ebp]
  00003	e9 00 00 00 00	 jmp	 ??1?$CStringT@DV?$StrTraitMFC@DV?$ChTraitsCRT@D@ATL@@@@@ATL@@QAE@XZ ; ATL::CStringT<char,StrTraitMFC<char,ATL::ChTraitsCRT<char> > >::~CStringT<char,StrTraitMFC<char,ATL::ChTraitsCRT<char> > >
__unwindfunclet$?SecretRoomOpen@CSecretRoomMng@@QAEXXZ$1:
  00008	8d 4d e4	 lea	 ecx, DWORD PTR $T2[ebp]
  0000b	e9 00 00 00 00	 jmp	 ??1?$CStringT@DV?$StrTraitMFC@DV?$ChTraitsCRT@D@ATL@@@@@ATL@@QAE@XZ ; ATL::CStringT<char,StrTraitMFC<char,ATL::ChTraitsCRT<char> > >::~CStringT<char,StrTraitMFC<char,ATL::ChTraitsCRT<char> > >
  00010	cc		 int	 3
  00011	cc		 int	 3
  00012	cc		 int	 3
  00013	cc		 int	 3
  00014	cc		 int	 3
__ehhandler$?SecretRoomOpen@CSecretRoomMng@@QAEXXZ:
  00015	90		 npad	 1
  00016	90		 npad	 1
  00017	8b 54 24 08	 mov	 edx, DWORD PTR [esp+8]
  0001b	8d 42 0c	 lea	 eax, DWORD PTR [edx+12]
  0001e	8b 4a e0	 mov	 ecx, DWORD PTR [edx-32]
  00021	33 c8		 xor	 ecx, eax
  00023	e8 00 00 00 00	 call	 @__security_check_cookie@4
  00028	b8 00 00 00 00	 mov	 eax, OFFSET __ehfuncinfo$?SecretRoomOpen@CSecretRoomMng@@QAEXXZ
  0002d	e9 00 00 00 00	 jmp	 ___CxxFrameHandler3
text$x	ENDS
?SecretRoomOpen@CSecretRoomMng@@QAEXXZ ENDP		; CSecretRoomMng::SecretRoomOpen
; Function compile flags: /Ogtp
; File C:\IAGOS\server\v18\Source\Source\_Common\SecretRoom.cpp
; File C:\Program Files\Microsoft Visual Studio\2022\Professional\VC\Tools\MSVC\14.44.35207\include\xtree
; File C:\Program Files\Microsoft Visual Studio\2022\Professional\VC\Tools\MSVC\14.44.35207\include\type_traits
; File C:\Program Files\Microsoft Visual Studio\2022\Professional\VC\Tools\MSVC\14.44.35207\include\xtree
; File C:\IAGOS\server\v18\Source\Source\_Common\SecretRoom.cpp
; File C:\Program Files\Microsoft Visual Studio\2022\Professional\VC\Tools\MSVC\14.44.35207\include\vector
; File C:\IAGOS\server\v18\Source\Source\_Common\SecretRoom.cpp
; File C:\IAGOS\server\v18\Source\Source\_Common\LuaBase.h
; File C:\IAGOS\server\v18\Source\Source\_Common\SecretRoom.cpp
; File C:\IAGOS\server\v18\Source\Source\_Common\LuaBase.h
; File C:\IAGOS\server\v18\Source\Source\_Common\SecretRoom.cpp
;	COMDAT ?GetTenderView@CSecretRoomMng@@QAEXPAVCUser@@@Z
_TEXT	SEGMENT
__Loc$1 = -28						; size = 12
tv332 = -24						; size = 8
tv327 = -16						; size = 4
_nTenderPenya$1$ = -12					; size = 4
_nRanking$1$ = -8					; size = 4
_nCont$ = -1						; size = 1
_pUser$ = 8						; size = 4
_t$1$ = 8						; size = 4
?GetTenderView@CSecretRoomMng@@QAEXPAVCUser@@@Z PROC	; CSecretRoomMng::GetTenderView, COMDAT
; _this$ = ecx

; 564  : {

  00000	55		 push	 ebp
  00001	8b ec		 mov	 ebp, esp
  00003	83 ec 1c	 sub	 esp, 28			; 0000001cH
  00006	56		 push	 esi
  00007	8b f1		 mov	 esi, ecx

; 565  : 	if( m_nState != SRMNG_CLOSE )

  00009	83 7e 34 01	 cmp	 DWORD PTR [esi+52], 1
  0000d	74 14		 je	 SHORT $LN2@GetTenderV

; 566  : 	{
; 567  : 		pUser->AddDefinedText( TID_GAME_SECRETROOM_NOTENDERVIEW );

  0000f	8b 4d 08	 mov	 ecx, DWORD PTR _pUser$[ebp]
  00012	68 73 0e 00 00	 push	 3699			; 00000e73H
  00017	e8 00 00 00 00	 call	 ?AddDefinedText@CUser@@QAEXH@Z ; CUser::AddDefinedText
  0001c	5e		 pop	 esi

; 596  : 	}
; 597  : }

  0001d	8b e5		 mov	 esp, ebp
  0001f	5d		 pop	 ebp
  00020	c2 04 00	 ret	 4
$LN2@GetTenderV:
  00023	53		 push	 ebx

; 568  : 		return;
; 569  : 	}
; 570  : 
; 571  : 	BYTE nCont = GetContinent( (CMover*)pUser );

  00024	ff 75 08	 push	 DWORD PTR _pUser$[ebp]
  00027	e8 00 00 00 00	 call	 ?GetContinent@CSecretRoomMng@@QAEEPAVCMover@@@Z ; CSecretRoomMng::GetContinent
  0002c	8a d8		 mov	 bl, al
  0002e	88 5d ff	 mov	 BYTE PTR _nCont$[ebp], bl
  00031	84 db		 test	 bl, bl

; 572  : 	if( nCont == CONT_NODATA )

  00033	0f 84 c2 00 00
	00		 je	 $LN51@GetTenderV
  00039	57		 push	 edi
; File C:\Program Files\Microsoft Visual Studio\2022\Professional\VC\Tools\MSVC\14.44.35207\include\xtree

; 1384 :         const _Tree_find_result<_Nodeptr> _Loc = _Find_lower_bound(_Keyval);

  0003a	8d 45 ff	 lea	 eax, DWORD PTR _nCont$[ebp]
  0003d	50		 push	 eax
  0003e	8d 45 e4	 lea	 eax, DWORD PTR __Loc$1[ebp]
  00041	50		 push	 eax
  00042	8d 4e 04	 lea	 ecx, DWORD PTR [esi+4]
  00045	e8 00 00 00 00	 call	 ??$_Find_lower_bound@E@?$_Tree@V?$_Tmap_traits@EPAVCSecretRoomContinent@@U?$less@E@std@@V?$allocator@U?$pair@$$CBEPAVCSecretRoomContinent@@@std@@@3@$0A@@std@@@std@@IBE?AU?$_Tree_find_result@PAU?$_Tree_node@U?$pair@$$CBEPAVCSecretRoomContinent@@@std@@PAX@std@@@1@ABE@Z ; std::_Tree<std::_Tmap_traits<unsigned char,CSecretRoomContinent *,std::less<unsigned char>,std::allocator<std::pair<unsigned char const ,CSecretRoomContinent *> >,0> >::_Find_lower_bound<unsigned char>

; 1624 :         return !_Bound->_Isnil && !_DEBUG_LT_PRED(_Getcomp(), _Keyval, _Traits::_Kfn(_Bound->_Myval));

  0004a	8b 45 ec	 mov	 eax, DWORD PTR __Loc$1[ebp+8]
  0004d	80 78 0d 00	 cmp	 BYTE PTR [eax+13], 0
  00051	75 05		 jne	 SHORT $LN11@GetTenderV
; File C:\Program Files\Microsoft Visual Studio\2022\Professional\VC\Tools\MSVC\14.44.35207\include\type_traits

; 2380 :         return _Left < _Right;

  00053	3a 58 10	 cmp	 bl, BYTE PTR [eax+16]
; File C:\Program Files\Microsoft Visual Studio\2022\Professional\VC\Tools\MSVC\14.44.35207\include\xtree

; 1624 :         return !_Bound->_Isnil && !_DEBUG_LT_PRED(_Getcomp(), _Keyval, _Traits::_Kfn(_Bound->_Myval));

  00056	73 03		 jae	 SHORT $LN10@GetTenderV
$LN11@GetTenderV:

; 1389 :         return _Get_scary()->_Myhead;

  00058	8b 46 04	 mov	 eax, DWORD PTR [esi+4]
$LN10@GetTenderV:
; File C:\IAGOS\server\v18\Source\Source\_Common\SecretRoom.cpp

; 575  : 	CSecretRoomContinent* pSRCont = m_mapSecretRoomContinent.find(nCont)->second;

  0005b	8b 78 14	 mov	 edi, DWORD PTR [eax+20]

; 576  : 	if( pSRCont )

  0005e	85 ff		 test	 edi, edi
  00060	0f 84 94 00 00
	00		 je	 $LN52@GetTenderV

; 577  : 	{
; 578  : 		int nTenderPenya = 0;
; 579  : 		int nRanking = 0;
; 580  : 		int nIndex = pSRCont->GetTenderGuild( pUser->m_idGuild );

  00066	8b 5d 08	 mov	 ebx, DWORD PTR _pUser$[ebp]
  00069	8b cf		 mov	 ecx, edi
  0006b	c7 45 f4 00 00
	00 00		 mov	 DWORD PTR _nTenderPenya$1$[ebp], 0
  00072	c7 45 f8 00 00
	00 00		 mov	 DWORD PTR _nRanking$1$[ebp], 0
  00079	ff b3 14 07 00
	00		 push	 DWORD PTR [ebx+1812]
  0007f	e8 00 00 00 00	 call	 ?GetTenderGuild@CSecretRoomContinent@@QAEHK@Z ; CSecretRoomContinent::GetTenderGuild
  00084	8d 4f 10	 lea	 ecx, DWORD PTR [edi+16]
  00087	89 4d f0	 mov	 DWORD PTR tv327[ebp], ecx

; 581  : 		if( nIndex != NULL_ID )

  0008a	83 f8 ff	 cmp	 eax, -1
  0008d	74 10		 je	 SHORT $LN43@GetTenderV

; 582  : 		{
; 583  : 			nTenderPenya = pSRCont->m_vecSecretRoomTender[nIndex].nPenya;

  0008f	8b 09		 mov	 ecx, DWORD PTR [ecx]
; File C:\Program Files\Microsoft Visual Studio\2022\Professional\VC\Tools\MSVC\14.44.35207\include\vector

; 1934 :         return _My_data._Myfirst[_Pos];

  00091	6b d0 2c	 imul	 edx, eax, 44
; File C:\IAGOS\server\v18\Source\Source\_Common\SecretRoom.cpp

; 584  : 			nRanking = nIndex + 1;

  00094	40		 inc	 eax
  00095	89 45 f8	 mov	 DWORD PTR _nRanking$1$[ebp], eax
  00098	8b 4c 0a 04	 mov	 ecx, DWORD PTR [edx+ecx+4]
  0009c	89 4d f4	 mov	 DWORD PTR _nTenderPenya$1$[ebp], ecx
$LN43@GetTenderV:

; 585  : 		}
; 586  : 
; 587  : 		time_t t = 0;
; 588  : 		if( m_Lua.GetLuaFunction( "GetNextOpenTime" ) )

  0009f	68 00 00 00 00	 push	 OFFSET ??_C@_0BA@JLFDCLHJ@GetNextOpenTime@
  000a4	8d 4e 44	 lea	 ecx, DWORD PTR [esi+68]
  000a7	c7 45 08 00 00
	00 00		 mov	 DWORD PTR _t$1$[ebp], 0
  000ae	e8 00 00 00 00	 call	 ?GetLuaFunction@CLuaBase@@QAEHPAD@Z ; CLuaBase::GetLuaFunction
  000b3	85 c0		 test	 eax, eax
  000b5	74 26		 je	 SHORT $LN6@GetTenderV

; 589  : 		{
; 590  : 			m_Lua.CallLuaFunction( 0, 1 );

  000b7	6a 01		 push	 1
  000b9	6a 00		 push	 0
  000bb	8d 4e 44	 lea	 ecx, DWORD PTR [esi+68]
  000be	e8 00 00 00 00	 call	 ?CallLuaFunction@CLuaBase@@QAEXHH@Z ; CLuaBase::CallLuaFunction
; File C:\IAGOS\server\v18\Source\Source\_Common\LuaBase.h

; 43   : 	double		ToNumber( int nStackPos )					{  return lua_tonumber( m_pLuaState, nStackPos );  }

  000c3	6a 00		 push	 0
  000c5	6a ff		 push	 -1
  000c7	ff 76 48	 push	 DWORD PTR [esi+72]
  000ca	e8 00 00 00 00	 call	 _lua_tonumberx
  000cf	dd 5d e8	 fstp	 QWORD PTR tv332[ebp]
; File C:\IAGOS\server\v18\Source\Source\_Common\SecretRoom.cpp

; 591  : 			t = static_cast<time_t>(m_Lua.ToNumber( -1 ) );

  000d2	f2 0f 2c 45 e8	 cvttsd2si eax, QWORD PTR tv332[ebp]
; File C:\IAGOS\server\v18\Source\Source\_Common\LuaBase.h

; 43   : 	double		ToNumber( int nStackPos )					{  return lua_tonumber( m_pLuaState, nStackPos );  }

  000d7	83 c4 0c	 add	 esp, 12			; 0000000cH
; File C:\IAGOS\server\v18\Source\Source\_Common\SecretRoom.cpp

; 591  : 			t = static_cast<time_t>(m_Lua.ToNumber( -1 ) );

  000da	89 45 08	 mov	 DWORD PTR _t$1$[ebp], eax
$LN6@GetTenderV:

; 592  : 		}
; 593  : 		m_Lua.Pop(0);

  000dd	6a 00		 push	 0
  000df	8d 4e 44	 lea	 ecx, DWORD PTR [esi+68]
  000e2	e8 00 00 00 00	 call	 ?Pop@CLuaBase@@QAEXH@Z	; CLuaBase::Pop

; 594  : 		
; 595  : 		pUser->AddSecretRoomTenderView( nTenderPenya, nRanking, t, pSRCont->m_vecSecretRoomTender );

  000e7	ff 75 f0	 push	 DWORD PTR tv327[ebp]
  000ea	8b cb		 mov	 ecx, ebx
  000ec	ff 75 08	 push	 DWORD PTR _t$1$[ebp]
  000ef	ff 75 f8	 push	 DWORD PTR _nRanking$1$[ebp]
  000f2	ff 75 f4	 push	 DWORD PTR _nTenderPenya$1$[ebp]
  000f5	e8 00 00 00 00	 call	 ?AddSecretRoomTenderView@CUser@@QAEXHHJAAV?$vector@U__SECRETROOM_TENDER@@V?$allocator@U__SECRETROOM_TENDER@@@std@@@std@@@Z ; CUser::AddSecretRoomTenderView
$LN52@GetTenderV:
  000fa	5f		 pop	 edi
$LN51@GetTenderV:
  000fb	5b		 pop	 ebx
  000fc	5e		 pop	 esi

; 596  : 	}
; 597  : }

  000fd	8b e5		 mov	 esp, ebp
  000ff	5d		 pop	 ebp
  00100	c2 04 00	 ret	 4
?GetTenderView@CSecretRoomMng@@QAEXPAVCUser@@@Z ENDP	; CSecretRoomMng::GetTenderView
_TEXT	ENDS
; Function compile flags: /Ogtp
; File C:\IAGOS\server\v18\Source\Source\_Common\SecretRoom.cpp
; File C:\Program Files\Microsoft Visual Studio\2022\Professional\VC\Tools\MSVC\14.44.35207\include\xtree
; File C:\Program Files\Microsoft Visual Studio\2022\Professional\VC\Tools\MSVC\14.44.35207\include\type_traits
; File C:\Program Files\Microsoft Visual Studio\2022\Professional\VC\Tools\MSVC\14.44.35207\include\xtree
; File C:\IAGOS\server\v18\Source\Source\_Common\SecretRoom.cpp
; File C:\Program Files\Microsoft Visual Studio\2022\Professional\VC\Tools\MSVC\14.44.35207\atlmfc\include\atlsimpstr.h
; File C:\IAGOS\server\v18\Source\Source\_Common\SecretRoom.cpp
; File C:\Program Files\Microsoft Visual Studio\2022\Professional\VC\Tools\MSVC\14.44.35207\atlmfc\include\atlsimpstr.h
; File C:\Program Files\Microsoft Visual Studio\2022\Professional\VC\Tools\MSVC\14.44.35207\include\vector
; File C:\IAGOS\server\v18\Source\Source\_Common\SecretRoom.cpp
;	COMDAT ?SetLineUp@CSecretRoomMng@@QAEXPAVCUser@@V?$vector@KV?$allocator@K@std@@@std@@@Z
_TEXT	SEGMENT
__Loc$2 = -24						; size = 12
__$EHRec$ = -12						; size = 12
_pUser$ = 8						; size = 4
$T3 = 8							; size = 4
_nCont$ = 8						; size = 1
_vecLineUpMemeber$ = 12					; size = 12
?SetLineUp@CSecretRoomMng@@QAEXPAVCUser@@V?$vector@KV?$allocator@K@std@@@std@@@Z PROC ; CSecretRoomMng::SetLineUp, COMDAT
; _this$ = ecx

; 537  : {

  00000	55		 push	 ebp
  00001	8b ec		 mov	 ebp, esp
  00003	6a ff		 push	 -1
  00005	68 00 00 00 00	 push	 __ehhandler$?SetLineUp@CSecretRoomMng@@QAEXPAVCUser@@V?$vector@KV?$allocator@K@std@@@std@@@Z
  0000a	64 a1 00 00 00
	00		 mov	 eax, DWORD PTR fs:0
  00010	50		 push	 eax
  00011	83 ec 0c	 sub	 esp, 12			; 0000000cH
  00014	53		 push	 ebx
  00015	56		 push	 esi
  00016	57		 push	 edi
  00017	a1 00 00 00 00	 mov	 eax, DWORD PTR ___security_cookie
  0001c	33 c5		 xor	 eax, ebp
  0001e	50		 push	 eax
  0001f	8d 45 f4	 lea	 eax, DWORD PTR __$EHRec$[ebp]
  00022	64 a3 00 00 00
	00		 mov	 DWORD PTR fs:0, eax
  00028	8b f9		 mov	 edi, ecx

; 538  : 	if( m_nState != SRMNG_LINEUP )

  0002a	83 7f 34 03	 cmp	 DWORD PTR [edi+52], 3
  0002e	8b 75 08	 mov	 esi, DWORD PTR _pUser$[ebp]
  00031	c7 45 fc 00 00
	00 00		 mov	 DWORD PTR __$EHRec$[ebp+8], 0
  00038	74 12		 je	 SHORT $LN2@SetLineUp

; 539  : 	{
; 540  : 		pUser->AddDefinedText( TID_GAME_SECRETROOM_NOLINEUP );

  0003a	b8 70 0e 00 00	 mov	 eax, 3696		; 00000e70H
  0003f	8b ce		 mov	 ecx, esi
  00041	50		 push	 eax
  00042	e8 00 00 00 00	 call	 ?AddDefinedText@CUser@@QAEXH@Z ; CUser::AddDefinedText
  00047	e9 c4 00 00 00	 jmp	 $LN60@SetLineUp
$LN2@SetLineUp:

; 541  : 		return;
; 542  : 	}
; 543  : 
; 544  : 	if ( !IsGuildMaster( pUser ) )

  0004c	56		 push	 esi
  0004d	8b cf		 mov	 ecx, edi
  0004f	e8 00 00 00 00	 call	 ?IsGuildMaster@CSecretRoomMng@@QAEHPAVCUser@@@Z ; CSecretRoomMng::IsGuildMaster
  00054	85 c0		 test	 eax, eax
  00056	75 12		 jne	 SHORT $LN3@SetLineUp

; 545  : 	{
; 546  : 		pUser->AddDefinedText( TID_GAME_SECRETROOM_ISNOTGUILDMASTER );

  00058	b8 6e 0e 00 00	 mov	 eax, 3694		; 00000e6eH
  0005d	8b ce		 mov	 ecx, esi
  0005f	50		 push	 eax
  00060	e8 00 00 00 00	 call	 ?AddDefinedText@CUser@@QAEXH@Z ; CUser::AddDefinedText
  00065	e9 a6 00 00 00	 jmp	 $LN60@SetLineUp
$LN3@SetLineUp:

; 547  : 		return;
; 548  : 	}
; 549  : 
; 550  : 	BYTE nCont = GetContinent( (CMover*)pUser );

  0006a	56		 push	 esi
  0006b	8b cf		 mov	 ecx, edi
  0006d	e8 00 00 00 00	 call	 ?GetContinent@CSecretRoomMng@@QAEEPAVCMover@@@Z ; CSecretRoomMng::GetContinent
  00072	8a d8		 mov	 bl, al
  00074	88 5d 08	 mov	 BYTE PTR _nCont$[ebp], bl
  00077	84 db		 test	 bl, bl

; 551  : 	if( nCont == CONT_NODATA )

  00079	0f 84 91 00 00
	00		 je	 $LN60@SetLineUp
; File C:\Program Files\Microsoft Visual Studio\2022\Professional\VC\Tools\MSVC\14.44.35207\include\xtree

; 1384 :         const _Tree_find_result<_Nodeptr> _Loc = _Find_lower_bound(_Keyval);

  0007f	8d 45 08	 lea	 eax, DWORD PTR _nCont$[ebp]
  00082	50		 push	 eax
  00083	8d 45 e8	 lea	 eax, DWORD PTR __Loc$2[ebp]
  00086	50		 push	 eax
  00087	8d 4f 04	 lea	 ecx, DWORD PTR [edi+4]
  0008a	e8 00 00 00 00	 call	 ??$_Find_lower_bound@E@?$_Tree@V?$_Tmap_traits@EPAVCSecretRoomContinent@@U?$less@E@std@@V?$allocator@U?$pair@$$CBEPAVCSecretRoomContinent@@@std@@@3@$0A@@std@@@std@@IBE?AU?$_Tree_find_result@PAU?$_Tree_node@U?$pair@$$CBEPAVCSecretRoomContinent@@@std@@PAX@std@@@1@ABE@Z ; std::_Tree<std::_Tmap_traits<unsigned char,CSecretRoomContinent *,std::less<unsigned char>,std::allocator<std::pair<unsigned char const ,CSecretRoomContinent *> >,0> >::_Find_lower_bound<unsigned char>

; 1624 :         return !_Bound->_Isnil && !_DEBUG_LT_PRED(_Getcomp(), _Keyval, _Traits::_Kfn(_Bound->_Myval));

  0008f	8b 45 f0	 mov	 eax, DWORD PTR __Loc$2[ebp+8]
  00092	80 78 0d 00	 cmp	 BYTE PTR [eax+13], 0
  00096	75 05		 jne	 SHORT $LN26@SetLineUp
; File C:\Program Files\Microsoft Visual Studio\2022\Professional\VC\Tools\MSVC\14.44.35207\include\type_traits

; 2380 :         return _Left < _Right;

  00098	3a 58 10	 cmp	 bl, BYTE PTR [eax+16]
; File C:\Program Files\Microsoft Visual Studio\2022\Professional\VC\Tools\MSVC\14.44.35207\include\xtree

; 1624 :         return !_Bound->_Isnil && !_DEBUG_LT_PRED(_Getcomp(), _Keyval, _Traits::_Kfn(_Bound->_Myval));

  0009b	73 03		 jae	 SHORT $LN25@SetLineUp
$LN26@SetLineUp:

; 1389 :         return _Get_scary()->_Myhead;

  0009d	8b 47 04	 mov	 eax, DWORD PTR [edi+4]
$LN25@SetLineUp:
; File C:\IAGOS\server\v18\Source\Source\_Common\SecretRoom.cpp

; 554  : 	CSecretRoomContinent* pSRCont = m_mapSecretRoomContinent.find(nCont)->second;

  000a0	8b 78 14	 mov	 edi, DWORD PTR [eax+20]

; 555  : 	if( pSRCont && pSRCont->m_nState == SRCONT_OPEN )

  000a3	85 ff		 test	 edi, edi
  000a5	74 1e		 je	 SHORT $LN5@SetLineUp
  000a7	83 7f 04 66	 cmp	 DWORD PTR [edi+4], 102	; 00000066H
  000ab	75 18		 jne	 SHORT $LN5@SetLineUp

; 556  : 		pSRCont->SetContLineUp( pUser, vecLineUpMemeber );

  000ad	83 ec 0c	 sub	 esp, 12			; 0000000cH
  000b0	8d 45 0c	 lea	 eax, DWORD PTR _vecLineUpMemeber$[ebp]
  000b3	8b cc		 mov	 ecx, esp
  000b5	50		 push	 eax
  000b6	e8 00 00 00 00	 call	 ??0?$vector@KV?$allocator@K@std@@@std@@QAE@ABV01@@Z ; std::vector<unsigned long,std::allocator<unsigned long> >::vector<unsigned long,std::allocator<unsigned long> >
  000bb	56		 push	 esi
  000bc	8b cf		 mov	 ecx, edi
  000be	e8 00 00 00 00	 call	 ?SetContLineUp@CSecretRoomContinent@@QAEXPAVCUser@@V?$vector@KV?$allocator@K@std@@@std@@@Z ; CSecretRoomContinent::SetContLineUp
  000c3	eb 4b		 jmp	 SHORT $LN60@SetLineUp
$LN5@SetLineUp:

; 558  : 		pUser->AddDefinedText( TID_GAME_SECRETROOM_NOTOPENCONT, "\"%s\"", CContinent::GetInstance()->GetContinentName( nCont ) );

  000c5	ff 75 08	 push	 DWORD PTR _nCont$[ebp]
  000c8	8d 45 08	 lea	 eax, DWORD PTR $T3[ebp]
  000cb	50		 push	 eax
  000cc	e8 00 00 00 00	 call	 ?GetInstance@CContinent@@SAPAV1@XZ ; CContinent::GetInstance
  000d1	8b c8		 mov	 ecx, eax
  000d3	e8 00 00 00 00	 call	 ?GetContinentName@CContinent@@QAE?AV?$CStringT@DV?$StrTraitMFC@DV?$ChTraitsCRT@D@ATL@@@@@ATL@@E@Z ; CContinent::GetContinentName
  000d8	ff 30		 push	 DWORD PTR [eax]
  000da	c6 45 fc 01	 mov	 BYTE PTR __$EHRec$[ebp+8], 1
  000de	68 00 00 00 00	 push	 OFFSET ??_C@_04OEDFLLKD@?$CC?$CFs?$CC@
  000e3	68 72 0e 00 00	 push	 3698			; 00000e72H
  000e8	56		 push	 esi
  000e9	e8 00 00 00 00	 call	 ?AddDefinedText@CUser@@QAAXHPBDZZ ; CUser::AddDefinedText
; File C:\Program Files\Microsoft Visual Studio\2022\Professional\VC\Tools\MSVC\14.44.35207\atlmfc\include\atlsimpstr.h

; 804  : 		return( reinterpret_cast< CStringData* >( m_pszData )-1 );

  000ee	8b 55 08	 mov	 edx, DWORD PTR $T3[ebp]
; File C:\IAGOS\server\v18\Source\Source\_Common\SecretRoom.cpp

; 558  : 		pUser->AddDefinedText( TID_GAME_SECRETROOM_NOTOPENCONT, "\"%s\"", CContinent::GetInstance()->GetContinentName( nCont ) );

  000f1	83 c4 10	 add	 esp, 16			; 00000010H
  000f4	c6 45 fc 00	 mov	 BYTE PTR __$EHRec$[ebp+8], 0
; File C:\Program Files\Microsoft Visual Studio\2022\Professional\VC\Tools\MSVC\14.44.35207\atlmfc\include\atlsimpstr.h

; 804  : 		return( reinterpret_cast< CStringData* >( m_pszData )-1 );

  000f8	83 c2 f0	 add	 edx, -16		; fffffff0H

; 92   : 		if( _InterlockedDecrement( &nRefs ) <= 0 )

  000fb	83 c8 ff	 or	 eax, -1
  000fe	f0 0f c1 42 0c	 lock	  xadd	 DWORD PTR [edx+12], eax
  00103	48		 dec	 eax
  00104	85 c0		 test	 eax, eax
  00106	7f 08		 jg	 SHORT $LN60@SetLineUp

; 93   : 		{
; 94   : 			pStringMgr->Free( this );

  00108	8b 0a		 mov	 ecx, DWORD PTR [edx]
  0010a	52		 push	 edx
  0010b	8b 01		 mov	 eax, DWORD PTR [ecx]
  0010d	ff 50 04	 call	 DWORD PTR [eax+4]
$LN60@SetLineUp:
; File C:\Program Files\Microsoft Visual Studio\2022\Professional\VC\Tools\MSVC\14.44.35207\include\vector

; 830  :         _Tidy();

  00110	8d 4d 0c	 lea	 ecx, DWORD PTR _vecLineUpMemeber$[ebp]
  00113	e8 00 00 00 00	 call	 ?_Tidy@?$vector@KV?$allocator@K@std@@@std@@AAEXXZ ; std::vector<unsigned long,std::allocator<unsigned long> >::_Tidy
; File C:\IAGOS\server\v18\Source\Source\_Common\SecretRoom.cpp

; 560  : }

  00118	8b 4d f4	 mov	 ecx, DWORD PTR __$EHRec$[ebp]
  0011b	64 89 0d 00 00
	00 00		 mov	 DWORD PTR fs:0, ecx
  00122	59		 pop	 ecx
  00123	5f		 pop	 edi
  00124	5e		 pop	 esi
  00125	5b		 pop	 ebx
  00126	8b e5		 mov	 esp, ebp
  00128	5d		 pop	 ebp
  00129	c2 10 00	 ret	 16			; 00000010H
_TEXT	ENDS
;	COMDAT text$x
text$x	SEGMENT
__unwindfunclet$?SetLineUp@CSecretRoomMng@@QAEXPAVCUser@@V?$vector@KV?$allocator@K@std@@@std@@@Z$0:
  00000	8d 4d 0c	 lea	 ecx, DWORD PTR _vecLineUpMemeber$[ebp]
  00003	e9 00 00 00 00	 jmp	 ??1?$vector@KV?$allocator@K@std@@@std@@QAE@XZ ; std::vector<unsigned long,std::allocator<unsigned long> >::~vector<unsigned long,std::allocator<unsigned long> >
__unwindfunclet$?SetLineUp@CSecretRoomMng@@QAEXPAVCUser@@V?$vector@KV?$allocator@K@std@@@std@@@Z$2:
  00008	8d 4d 08	 lea	 ecx, DWORD PTR $T3[ebp]
  0000b	e9 00 00 00 00	 jmp	 ??1?$CStringT@DV?$StrTraitMFC@DV?$ChTraitsCRT@D@ATL@@@@@ATL@@QAE@XZ ; ATL::CStringT<char,StrTraitMFC<char,ATL::ChTraitsCRT<char> > >::~CStringT<char,StrTraitMFC<char,ATL::ChTraitsCRT<char> > >
  00010	cc		 int	 3
  00011	cc		 int	 3
  00012	cc		 int	 3
  00013	cc		 int	 3
  00014	cc		 int	 3
__ehhandler$?SetLineUp@CSecretRoomMng@@QAEXPAVCUser@@V?$vector@KV?$allocator@K@std@@@std@@@Z:
  00015	90		 npad	 1
  00016	90		 npad	 1
  00017	8b 54 24 08	 mov	 edx, DWORD PTR [esp+8]
  0001b	8d 42 0c	 lea	 eax, DWORD PTR [edx+12]
  0001e	8b 4a e4	 mov	 ecx, DWORD PTR [edx-28]
  00021	33 c8		 xor	 ecx, eax
  00023	e8 00 00 00 00	 call	 @__security_check_cookie@4
  00028	b8 00 00 00 00	 mov	 eax, OFFSET __ehfuncinfo$?SetLineUp@CSecretRoomMng@@QAEXPAVCUser@@V?$vector@KV?$allocator@K@std@@@std@@@Z
  0002d	e9 00 00 00 00	 jmp	 ___CxxFrameHandler3
text$x	ENDS
?SetLineUp@CSecretRoomMng@@QAEXPAVCUser@@V?$vector@KV?$allocator@K@std@@@std@@@Z ENDP ; CSecretRoomMng::SetLineUp
; Function compile flags: /Ogtp
; File C:\IAGOS\server\v18\Source\Source\_Common\SecretRoom.cpp
; File C:\Program Files\Microsoft Visual Studio\2022\Professional\VC\Tools\MSVC\14.44.35207\include\xtree
; File C:\IAGOS\server\v18\Source\Source\_Common\SecretRoom.cpp
; File C:\Program Files\Microsoft Visual Studio\2022\Professional\VC\Tools\MSVC\14.44.35207\include\xtree
; File C:\IAGOS\server\v18\Source\Source\_Common\SecretRoom.cpp
; File C:\Program Files\Microsoft Visual Studio\2022\Professional\VC\Tools\MSVC\14.44.35207\include\xtree
; File C:\Program Files\Microsoft Visual Studio\2022\Professional\VC\Tools\MSVC\14.44.35207\include\type_traits
; File C:\Program Files\Microsoft Visual Studio\2022\Professional\VC\Tools\MSVC\14.44.35207\include\xtree
; File C:\IAGOS\server\v18\Source\Source\_Common\SecretRoom.cpp
; File C:\Program Files\Microsoft Visual Studio\2022\Professional\VC\Tools\MSVC\14.44.35207\include\vector
; File C:\IAGOS\server\v18\Source\Source\_Common\SecretRoom.cpp
; File C:\Program Files\Microsoft Visual Studio\2022\Professional\VC\Tools\MSVC\14.44.35207\atlmfc\include\atlsimpstr.h
; File C:\IAGOS\server\v18\Source\Source\_Common\SecretRoom.cpp
; File C:\Program Files\Microsoft Visual Studio\2022\Professional\VC\Tools\MSVC\14.44.35207\atlmfc\include\atlsimpstr.h
; File C:\IAGOS\server\v18\Source\Source\_Common\SecretRoom.cpp
;	COMDAT ?SetLineUpOpenWnd@CSecretRoomMng@@QAEXPAVCUser@@@Z
_TEXT	SEGMENT
__Loc$2 = -28						; size = 12
$T3 = -16						; size = 4
_this$1$ = -16						; size = 4
__$EHRec$ = -12						; size = 12
_pUser$ = 8						; size = 4
$T4 = 8							; size = 4
_nCont$ = 8						; size = 1
?SetLineUpOpenWnd@CSecretRoomMng@@QAEXPAVCUser@@@Z PROC	; CSecretRoomMng::SetLineUpOpenWnd, COMDAT
; _this$ = ecx

; 505  : {

  00000	55		 push	 ebp
  00001	8b ec		 mov	 ebp, esp
  00003	6a ff		 push	 -1
  00005	68 00 00 00 00	 push	 __ehhandler$?SetLineUpOpenWnd@CSecretRoomMng@@QAEXPAVCUser@@@Z
  0000a	64 a1 00 00 00
	00		 mov	 eax, DWORD PTR fs:0
  00010	50		 push	 eax
  00011	83 ec 10	 sub	 esp, 16			; 00000010H
  00014	53		 push	 ebx
  00015	56		 push	 esi
  00016	57		 push	 edi
  00017	a1 00 00 00 00	 mov	 eax, DWORD PTR ___security_cookie
  0001c	33 c5		 xor	 eax, ebp
  0001e	50		 push	 eax
  0001f	8d 45 f4	 lea	 eax, DWORD PTR __$EHRec$[ebp]
  00022	64 a3 00 00 00
	00		 mov	 DWORD PTR fs:0, eax
  00028	8b f9		 mov	 edi, ecx

; 506  : 	if( m_nState != SRMNG_LINEUP )

  0002a	83 7f 34 03	 cmp	 DWORD PTR [edi+52], 3
  0002e	74 21		 je	 SHORT $LN2@SetLineUpO

; 507  : 	{
; 508  : 		pUser->AddDefinedText( TID_GAME_SECRETROOM_NOLINEUP );

  00030	8b 4d 08	 mov	 ecx, DWORD PTR _pUser$[ebp]
  00033	68 70 0e 00 00	 push	 3696			; 00000e70H
  00038	e8 00 00 00 00	 call	 ?AddDefinedText@CUser@@QAEXH@Z ; CUser::AddDefinedText

; 533  : }

  0003d	8b 4d f4	 mov	 ecx, DWORD PTR __$EHRec$[ebp]
  00040	64 89 0d 00 00
	00 00		 mov	 DWORD PTR fs:0, ecx
  00047	59		 pop	 ecx
  00048	5f		 pop	 edi
  00049	5e		 pop	 esi
  0004a	5b		 pop	 ebx
  0004b	8b e5		 mov	 esp, ebp
  0004d	5d		 pop	 ebp
  0004e	c2 04 00	 ret	 4
$LN2@SetLineUpO:

; 509  : 		return;
; 510  : 	}
; 511  : 
; 512  : 	if ( !IsGuildMaster( pUser ) )

  00051	8b 75 08	 mov	 esi, DWORD PTR _pUser$[ebp]
  00054	56		 push	 esi
  00055	e8 00 00 00 00	 call	 ?IsGuildMaster@CSecretRoomMng@@QAEHPAVCUser@@@Z ; CSecretRoomMng::IsGuildMaster
  0005a	85 c0		 test	 eax, eax
  0005c	75 20		 jne	 SHORT $LN3@SetLineUpO

; 513  : 	{
; 514  : 		pUser->AddDefinedText( TID_GAME_SECRETROOM_ISNOTGUILDMASTER );

  0005e	68 6e 0e 00 00	 push	 3694			; 00000e6eH
  00063	8b ce		 mov	 ecx, esi
  00065	e8 00 00 00 00	 call	 ?AddDefinedText@CUser@@QAEXH@Z ; CUser::AddDefinedText

; 533  : }

  0006a	8b 4d f4	 mov	 ecx, DWORD PTR __$EHRec$[ebp]
  0006d	64 89 0d 00 00
	00 00		 mov	 DWORD PTR fs:0, ecx
  00074	59		 pop	 ecx
  00075	5f		 pop	 edi
  00076	5e		 pop	 esi
  00077	5b		 pop	 ebx
  00078	8b e5		 mov	 esp, ebp
  0007a	5d		 pop	 ebp
  0007b	c2 04 00	 ret	 4
$LN3@SetLineUpO:

; 515  : 		return;
; 516  : 	}
; 517  : 
; 518  : 	BYTE nCont = GetContinent( (CMover*)pUser );

  0007e	56		 push	 esi
  0007f	8b cf		 mov	 ecx, edi
  00081	e8 00 00 00 00	 call	 ?GetContinent@CSecretRoomMng@@QAEEPAVCMover@@@Z ; CSecretRoomMng::GetContinent
  00086	8a d8		 mov	 bl, al
  00088	88 5d 08	 mov	 BYTE PTR _nCont$[ebp], bl
  0008b	84 db		 test	 bl, bl

; 519  : 	if( nCont == CONT_NODATA )

  0008d	0f 84 12 01 00
	00		 je	 $LN52@SetLineUpO
; File C:\Program Files\Microsoft Visual Studio\2022\Professional\VC\Tools\MSVC\14.44.35207\include\xtree

; 1384 :         const _Tree_find_result<_Nodeptr> _Loc = _Find_lower_bound(_Keyval);

  00093	8d 4d 08	 lea	 ecx, DWORD PTR _nCont$[ebp]
  00096	51		 push	 ecx
; File C:\IAGOS\server\v18\Source\Source\_Common\SecretRoom.cpp

; 522  : 	CSecretRoomContinent* pSRCont = m_mapSecretRoomContinent.find(nCont)->second;

  00097	8d 47 04	 lea	 eax, DWORD PTR [edi+4]
; File C:\Program Files\Microsoft Visual Studio\2022\Professional\VC\Tools\MSVC\14.44.35207\include\xtree

; 1384 :         const _Tree_find_result<_Nodeptr> _Loc = _Find_lower_bound(_Keyval);

  0009a	8d 4d e4	 lea	 ecx, DWORD PTR __Loc$2[ebp]
; File C:\IAGOS\server\v18\Source\Source\_Common\SecretRoom.cpp

; 522  : 	CSecretRoomContinent* pSRCont = m_mapSecretRoomContinent.find(nCont)->second;

  0009d	89 45 f0	 mov	 DWORD PTR _this$1$[ebp], eax
; File C:\Program Files\Microsoft Visual Studio\2022\Professional\VC\Tools\MSVC\14.44.35207\include\xtree

; 1384 :         const _Tree_find_result<_Nodeptr> _Loc = _Find_lower_bound(_Keyval);

  000a0	51		 push	 ecx
  000a1	8b c8		 mov	 ecx, eax
  000a3	e8 00 00 00 00	 call	 ??$_Find_lower_bound@E@?$_Tree@V?$_Tmap_traits@EPAVCSecretRoomContinent@@U?$less@E@std@@V?$allocator@U?$pair@$$CBEPAVCSecretRoomContinent@@@std@@@3@$0A@@std@@@std@@IBE?AU?$_Tree_find_result@PAU?$_Tree_node@U?$pair@$$CBEPAVCSecretRoomContinent@@@std@@PAX@std@@@1@ABE@Z ; std::_Tree<std::_Tmap_traits<unsigned char,CSecretRoomContinent *,std::less<unsigned char>,std::allocator<std::pair<unsigned char const ,CSecretRoomContinent *> >,0> >::_Find_lower_bound<unsigned char>

; 1624 :         return !_Bound->_Isnil && !_DEBUG_LT_PRED(_Getcomp(), _Keyval, _Traits::_Kfn(_Bound->_Myval));

  000a8	8b 7d ec	 mov	 edi, DWORD PTR __Loc$2[ebp+8]
  000ab	80 7f 0d 00	 cmp	 BYTE PTR [edi+13], 0
  000af	75 05		 jne	 SHORT $LN15@SetLineUpO
; File C:\Program Files\Microsoft Visual Studio\2022\Professional\VC\Tools\MSVC\14.44.35207\include\type_traits

; 2380 :         return _Left < _Right;

  000b1	3a 5f 10	 cmp	 bl, BYTE PTR [edi+16]
; File C:\Program Files\Microsoft Visual Studio\2022\Professional\VC\Tools\MSVC\14.44.35207\include\xtree

; 1624 :         return !_Bound->_Isnil && !_DEBUG_LT_PRED(_Getcomp(), _Keyval, _Traits::_Kfn(_Bound->_Myval));

  000b4	73 05		 jae	 SHORT $LN14@SetLineUpO
$LN15@SetLineUpO:

; 1389 :         return _Get_scary()->_Myhead;

  000b6	8b 7d f0	 mov	 edi, DWORD PTR _this$1$[ebp]
  000b9	8b 3f		 mov	 edi, DWORD PTR [edi]
$LN14@SetLineUpO:
; File C:\IAGOS\server\v18\Source\Source\_Common\SecretRoom.cpp

; 522  : 	CSecretRoomContinent* pSRCont = m_mapSecretRoomContinent.find(nCont)->second;

  000bb	8b 7f 14	 mov	 edi, DWORD PTR [edi+20]

; 523  : 	if( pSRCont && pSRCont->m_nState == SRCONT_OPEN )

  000be	85 ff		 test	 edi, edi
  000c0	0f 84 8e 00 00
	00		 je	 $LN5@SetLineUpO
  000c6	83 7f 04 66	 cmp	 DWORD PTR [edi+4], 102	; 00000066H
  000ca	0f 85 84 00 00
	00		 jne	 $LN5@SetLineUpO

; 524  : 	{
; 525  : 		int nIndex = pSRCont->GetTenderGuild( pUser->m_idGuild );

  000d0	ff b6 14 07 00
	00		 push	 DWORD PTR [esi+1812]
  000d6	8b cf		 mov	 ecx, edi
  000d8	e8 00 00 00 00	 call	 ?GetTenderGuild@CSecretRoomContinent@@QAEHK@Z ; CSecretRoomContinent::GetTenderGuild

; 526  : 		if( nIndex != NULL_ID )

  000dd	83 f8 ff	 cmp	 eax, -1
  000e0	74 27		 je	 SHORT $LN7@SetLineUpO
; File C:\Program Files\Microsoft Visual Studio\2022\Professional\VC\Tools\MSVC\14.44.35207\include\vector

; 1934 :         return _My_data._Myfirst[_Pos];

  000e2	6b c8 2c	 imul	 ecx, eax, 44
; File C:\IAGOS\server\v18\Source\Source\_Common\SecretRoom.cpp

; 527  : 			pUser->AddSecretRoomLineUpOpenWnd( pSRCont->m_vecSecretRoomTender[nIndex].vecLineUpMember );

  000e5	8b 47 10	 mov	 eax, DWORD PTR [edi+16]
  000e8	83 c1 14	 add	 ecx, 20			; 00000014H
  000eb	03 c1		 add	 eax, ecx
  000ed	8b ce		 mov	 ecx, esi
  000ef	50		 push	 eax
  000f0	e8 00 00 00 00	 call	 ?AddSecretRoomLineUpOpenWnd@CUser@@QAEXAAV?$vector@KV?$allocator@K@std@@@std@@@Z ; CUser::AddSecretRoomLineUpOpenWnd

; 533  : }

  000f5	8b 4d f4	 mov	 ecx, DWORD PTR __$EHRec$[ebp]
  000f8	64 89 0d 00 00
	00 00		 mov	 DWORD PTR fs:0, ecx
  000ff	59		 pop	 ecx
  00100	5f		 pop	 edi
  00101	5e		 pop	 esi
  00102	5b		 pop	 ebx
  00103	8b e5		 mov	 esp, ebp
  00105	5d		 pop	 ebp
  00106	c2 04 00	 ret	 4
$LN7@SetLineUpO:

; 528  : 		else
; 529  : 			pUser->AddDefinedText( TID_GAME_SECRETROOM_NOTENDERGUILD, "\"%s\"", CContinent::GetInstance()->GetContinentName( nCont ) );

  00109	ff 75 08	 push	 DWORD PTR _nCont$[ebp]
  0010c	8d 45 08	 lea	 eax, DWORD PTR $T4[ebp]
  0010f	50		 push	 eax
  00110	e8 00 00 00 00	 call	 ?GetInstance@CContinent@@SAPAV1@XZ ; CContinent::GetInstance
  00115	8b c8		 mov	 ecx, eax
  00117	e8 00 00 00 00	 call	 ?GetContinentName@CContinent@@QAE?AV?$CStringT@DV?$StrTraitMFC@DV?$ChTraitsCRT@D@ATL@@@@@ATL@@E@Z ; CContinent::GetContinentName
  0011c	ff 30		 push	 DWORD PTR [eax]
  0011e	c7 45 fc 00 00
	00 00		 mov	 DWORD PTR __$EHRec$[ebp+8], 0
  00125	68 00 00 00 00	 push	 OFFSET ??_C@_04OEDFLLKD@?$CC?$CFs?$CC@
  0012a	68 71 0e 00 00	 push	 3697			; 00000e71H
  0012f	56		 push	 esi
  00130	e8 00 00 00 00	 call	 ?AddDefinedText@CUser@@QAAXHPBDZZ ; CUser::AddDefinedText
  00135	83 c4 10	 add	 esp, 16			; 00000010H
  00138	8d 4d 08	 lea	 ecx, DWORD PTR $T4[ebp]
  0013b	e8 00 00 00 00	 call	 ??1?$CStringT@DV?$StrTraitMFC@DV?$ChTraitsCRT@D@ATL@@@@@ATL@@QAE@XZ ; ATL::CStringT<char,StrTraitMFC<char,ATL::ChTraitsCRT<char> > >::~CStringT<char,StrTraitMFC<char,ATL::ChTraitsCRT<char> > >

; 533  : }

  00140	8b 4d f4	 mov	 ecx, DWORD PTR __$EHRec$[ebp]
  00143	64 89 0d 00 00
	00 00		 mov	 DWORD PTR fs:0, ecx
  0014a	59		 pop	 ecx
  0014b	5f		 pop	 edi
  0014c	5e		 pop	 esi
  0014d	5b		 pop	 ebx
  0014e	8b e5		 mov	 esp, ebp
  00150	5d		 pop	 ebp
  00151	c2 04 00	 ret	 4
$LN5@SetLineUpO:

; 532  : 		pUser->AddDefinedText( TID_GAME_SECRETROOM_NOTOPENCONT, "\"%s\"", CContinent::GetInstance()->GetContinentName( nCont ) );

  00154	ff 75 08	 push	 DWORD PTR _nCont$[ebp]
  00157	8d 45 f0	 lea	 eax, DWORD PTR $T3[ebp]
  0015a	50		 push	 eax
  0015b	e8 00 00 00 00	 call	 ?GetInstance@CContinent@@SAPAV1@XZ ; CContinent::GetInstance
  00160	8b c8		 mov	 ecx, eax
  00162	e8 00 00 00 00	 call	 ?GetContinentName@CContinent@@QAE?AV?$CStringT@DV?$StrTraitMFC@DV?$ChTraitsCRT@D@ATL@@@@@ATL@@E@Z ; CContinent::GetContinentName
  00167	ff 30		 push	 DWORD PTR [eax]
  00169	c7 45 fc 01 00
	00 00		 mov	 DWORD PTR __$EHRec$[ebp+8], 1
  00170	68 00 00 00 00	 push	 OFFSET ??_C@_04OEDFLLKD@?$CC?$CFs?$CC@
  00175	68 72 0e 00 00	 push	 3698			; 00000e72H
  0017a	56		 push	 esi
  0017b	e8 00 00 00 00	 call	 ?AddDefinedText@CUser@@QAAXHPBDZZ ; CUser::AddDefinedText
; File C:\Program Files\Microsoft Visual Studio\2022\Professional\VC\Tools\MSVC\14.44.35207\atlmfc\include\atlsimpstr.h

; 804  : 		return( reinterpret_cast< CStringData* >( m_pszData )-1 );

  00180	8b 55 f0	 mov	 edx, DWORD PTR $T3[ebp]
; File C:\IAGOS\server\v18\Source\Source\_Common\SecretRoom.cpp

; 532  : 		pUser->AddDefinedText( TID_GAME_SECRETROOM_NOTOPENCONT, "\"%s\"", CContinent::GetInstance()->GetContinentName( nCont ) );

  00183	83 c4 10	 add	 esp, 16			; 00000010H
  00186	c7 45 fc ff ff
	ff ff		 mov	 DWORD PTR __$EHRec$[ebp+8], -1
; File C:\Program Files\Microsoft Visual Studio\2022\Professional\VC\Tools\MSVC\14.44.35207\atlmfc\include\atlsimpstr.h

; 804  : 		return( reinterpret_cast< CStringData* >( m_pszData )-1 );

  0018d	83 c2 f0	 add	 edx, -16		; fffffff0H

; 92   : 		if( _InterlockedDecrement( &nRefs ) <= 0 )

  00190	83 c8 ff	 or	 eax, -1
  00193	f0 0f c1 42 0c	 lock	  xadd	 DWORD PTR [edx+12], eax
  00198	48		 dec	 eax
  00199	85 c0		 test	 eax, eax
  0019b	7f 08		 jg	 SHORT $LN52@SetLineUpO

; 93   : 		{
; 94   : 			pStringMgr->Free( this );

  0019d	8b 0a		 mov	 ecx, DWORD PTR [edx]
  0019f	52		 push	 edx
  001a0	8b 01		 mov	 eax, DWORD PTR [ecx]
  001a2	ff 50 04	 call	 DWORD PTR [eax+4]
$LN52@SetLineUpO:
; File C:\IAGOS\server\v18\Source\Source\_Common\SecretRoom.cpp

; 533  : }

  001a5	8b 4d f4	 mov	 ecx, DWORD PTR __$EHRec$[ebp]
  001a8	64 89 0d 00 00
	00 00		 mov	 DWORD PTR fs:0, ecx
  001af	59		 pop	 ecx
  001b0	5f		 pop	 edi
  001b1	5e		 pop	 esi
  001b2	5b		 pop	 ebx
  001b3	8b e5		 mov	 esp, ebp
  001b5	5d		 pop	 ebp
  001b6	c2 04 00	 ret	 4
_TEXT	ENDS
;	COMDAT text$x
text$x	SEGMENT
__unwindfunclet$?SetLineUpOpenWnd@CSecretRoomMng@@QAEXPAVCUser@@@Z$0:
  00000	8d 4d 08	 lea	 ecx, DWORD PTR $T4[ebp]
  00003	e9 00 00 00 00	 jmp	 ??1?$CStringT@DV?$StrTraitMFC@DV?$ChTraitsCRT@D@ATL@@@@@ATL@@QAE@XZ ; ATL::CStringT<char,StrTraitMFC<char,ATL::ChTraitsCRT<char> > >::~CStringT<char,StrTraitMFC<char,ATL::ChTraitsCRT<char> > >
__unwindfunclet$?SetLineUpOpenWnd@CSecretRoomMng@@QAEXPAVCUser@@@Z$1:
  00008	8d 4d f0	 lea	 ecx, DWORD PTR $T3[ebp]
  0000b	e9 00 00 00 00	 jmp	 ??1?$CStringT@DV?$StrTraitMFC@DV?$ChTraitsCRT@D@ATL@@@@@ATL@@QAE@XZ ; ATL::CStringT<char,StrTraitMFC<char,ATL::ChTraitsCRT<char> > >::~CStringT<char,StrTraitMFC<char,ATL::ChTraitsCRT<char> > >
  00010	cc		 int	 3
  00011	cc		 int	 3
  00012	cc		 int	 3
  00013	cc		 int	 3
  00014	cc		 int	 3
__ehhandler$?SetLineUpOpenWnd@CSecretRoomMng@@QAEXPAVCUser@@@Z:
  00015	90		 npad	 1
  00016	90		 npad	 1
  00017	8b 54 24 08	 mov	 edx, DWORD PTR [esp+8]
  0001b	8d 42 0c	 lea	 eax, DWORD PTR [edx+12]
  0001e	8b 4a e0	 mov	 ecx, DWORD PTR [edx-32]
  00021	33 c8		 xor	 ecx, eax
  00023	e8 00 00 00 00	 call	 @__security_check_cookie@4
  00028	b8 00 00 00 00	 mov	 eax, OFFSET __ehfuncinfo$?SetLineUpOpenWnd@CSecretRoomMng@@QAEXPAVCUser@@@Z
  0002d	e9 00 00 00 00	 jmp	 ___CxxFrameHandler3
text$x	ENDS
?SetLineUpOpenWnd@CSecretRoomMng@@QAEXPAVCUser@@@Z ENDP	; CSecretRoomMng::SetLineUpOpenWnd
; Function compile flags: /Ogtp
; File C:\IAGOS\server\v18\Source\Source\_Common\SecretRoom.cpp
; File C:\Program Files\Microsoft Visual Studio\2022\Professional\VC\Tools\MSVC\14.44.35207\include\xtree
; File C:\Program Files\Microsoft Visual Studio\2022\Professional\VC\Tools\MSVC\14.44.35207\include\type_traits
; File C:\Program Files\Microsoft Visual Studio\2022\Professional\VC\Tools\MSVC\14.44.35207\include\xtree
; File C:\IAGOS\server\v18\Source\Source\_Common\SecretRoom.cpp
;	COMDAT ?SetTenderCancelReturn@CSecretRoomMng@@QAEXPAVCUser@@@Z
_TEXT	SEGMENT
__Loc$1 = -12						; size = 12
_pUser$ = 8						; size = 4
_nCont$ = 11						; size = 1
?SetTenderCancelReturn@CSecretRoomMng@@QAEXPAVCUser@@@Z PROC ; CSecretRoomMng::SetTenderCancelReturn, COMDAT
; _this$ = ecx

; 481  : {

  00000	55		 push	 ebp
  00001	8b ec		 mov	 ebp, esp
  00003	83 ec 0c	 sub	 esp, 12			; 0000000cH
  00006	57		 push	 edi
  00007	8b f9		 mov	 edi, ecx

; 482  : 	if( m_nState != SRMNG_CLOSE )

  00009	83 7f 34 01	 cmp	 DWORD PTR [edi+52], 1
  0000d	74 14		 je	 SHORT $LN2@SetTenderC

; 483  : 	{
; 484  : 		pUser->AddDefinedText( TID_GAME_SECRETROOM_NOTENDERCANCEL );

  0000f	8b 4d 08	 mov	 ecx, DWORD PTR _pUser$[ebp]
  00012	68 6f 0e 00 00	 push	 3695			; 00000e6fH
  00017	e8 00 00 00 00	 call	 ?AddDefinedText@CUser@@QAEXH@Z ; CUser::AddDefinedText
  0001c	5f		 pop	 edi

; 501  : }

  0001d	8b e5		 mov	 esp, ebp
  0001f	5d		 pop	 ebp
  00020	c2 04 00	 ret	 4
$LN2@SetTenderC:
  00023	56		 push	 esi

; 485  : 		return;
; 486  : 	}
; 487  : 
; 488  : 	if( !IsGuildMaster( pUser ) )

  00024	8b 75 08	 mov	 esi, DWORD PTR _pUser$[ebp]
  00027	56		 push	 esi
  00028	e8 00 00 00 00	 call	 ?IsGuildMaster@CSecretRoomMng@@QAEHPAVCUser@@@Z ; CSecretRoomMng::IsGuildMaster
  0002d	85 c0		 test	 eax, eax
  0002f	75 14		 jne	 SHORT $LN3@SetTenderC

; 489  : 	{
; 490  : 		pUser->AddDefinedText( TID_GAME_SECRETROOM_ISNOTGUILDMASTER );

  00031	68 6e 0e 00 00	 push	 3694			; 00000e6eH
  00036	8b ce		 mov	 ecx, esi
  00038	e8 00 00 00 00	 call	 ?AddDefinedText@CUser@@QAEXH@Z ; CUser::AddDefinedText
  0003d	5e		 pop	 esi
  0003e	5f		 pop	 edi

; 501  : }

  0003f	8b e5		 mov	 esp, ebp
  00041	5d		 pop	 ebp
  00042	c2 04 00	 ret	 4
$LN3@SetTenderC:
  00045	53		 push	 ebx

; 491  : 		return;
; 492  : 	}
; 493  : 
; 494  : 	BYTE nCont = GetContinent( (CMover*)pUser );

  00046	56		 push	 esi
  00047	8b cf		 mov	 ecx, edi
  00049	e8 00 00 00 00	 call	 ?GetContinent@CSecretRoomMng@@QAEEPAVCMover@@@Z ; CSecretRoomMng::GetContinent
  0004e	8a d8		 mov	 bl, al
  00050	88 5d 0b	 mov	 BYTE PTR _nCont$[ebp], bl
  00053	84 db		 test	 bl, bl

; 495  : 	if( nCont == CONT_NODATA )

  00055	74 2e		 je	 SHORT $LN44@SetTenderC
; File C:\Program Files\Microsoft Visual Studio\2022\Professional\VC\Tools\MSVC\14.44.35207\include\xtree

; 1384 :         const _Tree_find_result<_Nodeptr> _Loc = _Find_lower_bound(_Keyval);

  00057	8d 45 0b	 lea	 eax, DWORD PTR _nCont$[ebp]
  0005a	50		 push	 eax
  0005b	8d 45 f4	 lea	 eax, DWORD PTR __Loc$1[ebp]
  0005e	50		 push	 eax
  0005f	8d 4f 04	 lea	 ecx, DWORD PTR [edi+4]
  00062	e8 00 00 00 00	 call	 ??$_Find_lower_bound@E@?$_Tree@V?$_Tmap_traits@EPAVCSecretRoomContinent@@U?$less@E@std@@V?$allocator@U?$pair@$$CBEPAVCSecretRoomContinent@@@std@@@3@$0A@@std@@@std@@IBE?AU?$_Tree_find_result@PAU?$_Tree_node@U?$pair@$$CBEPAVCSecretRoomContinent@@@std@@PAX@std@@@1@ABE@Z ; std::_Tree<std::_Tmap_traits<unsigned char,CSecretRoomContinent *,std::less<unsigned char>,std::allocator<std::pair<unsigned char const ,CSecretRoomContinent *> >,0> >::_Find_lower_bound<unsigned char>

; 1624 :         return !_Bound->_Isnil && !_DEBUG_LT_PRED(_Getcomp(), _Keyval, _Traits::_Kfn(_Bound->_Myval));

  00067	8b 45 fc	 mov	 eax, DWORD PTR __Loc$1[ebp+8]
  0006a	80 78 0d 00	 cmp	 BYTE PTR [eax+13], 0
  0006e	75 05		 jne	 SHORT $LN10@SetTenderC
; File C:\Program Files\Microsoft Visual Studio\2022\Professional\VC\Tools\MSVC\14.44.35207\include\type_traits

; 2380 :         return _Left < _Right;

  00070	3a 58 10	 cmp	 bl, BYTE PTR [eax+16]
; File C:\Program Files\Microsoft Visual Studio\2022\Professional\VC\Tools\MSVC\14.44.35207\include\xtree

; 1624 :         return !_Bound->_Isnil && !_DEBUG_LT_PRED(_Getcomp(), _Keyval, _Traits::_Kfn(_Bound->_Myval));

  00073	73 03		 jae	 SHORT $LN9@SetTenderC
$LN10@SetTenderC:

; 1389 :         return _Get_scary()->_Myhead;

  00075	8b 47 04	 mov	 eax, DWORD PTR [edi+4]
$LN9@SetTenderC:
; File C:\IAGOS\server\v18\Source\Source\_Common\SecretRoom.cpp

; 498  : 	CSecretRoomContinent* pSRCont = m_mapSecretRoomContinent.find(nCont)->second;

  00078	8b 48 14	 mov	 ecx, DWORD PTR [eax+20]

; 499  : 	if( pSRCont )

  0007b	85 c9		 test	 ecx, ecx
  0007d	74 06		 je	 SHORT $LN44@SetTenderC

; 500  : 		pSRCont->SetContTenderCancelReturn( pUser );

  0007f	56		 push	 esi
  00080	e8 00 00 00 00	 call	 ?SetContTenderCancelReturn@CSecretRoomContinent@@QAEXPAVCUser@@@Z ; CSecretRoomContinent::SetContTenderCancelReturn
$LN44@SetTenderC:
  00085	5b		 pop	 ebx
  00086	5e		 pop	 esi
  00087	5f		 pop	 edi

; 501  : }

  00088	8b e5		 mov	 esp, ebp
  0008a	5d		 pop	 ebp
  0008b	c2 04 00	 ret	 4
?SetTenderCancelReturn@CSecretRoomMng@@QAEXPAVCUser@@@Z ENDP ; CSecretRoomMng::SetTenderCancelReturn
_TEXT	ENDS
; Function compile flags: /Ogtp
; File C:\IAGOS\server\v18\Source\Source\_Common\SecretRoom.cpp
;	COMDAT ?SetTender@CSecretRoomMng@@QAEXPAVCUser@@H@Z
_TEXT	SEGMENT
$T1 = -4						; size = 4
_pUser$ = 8						; size = 4
_nCont$ = 11						; size = 1
_nPenya$ = 12						; size = 4
?SetTender@CSecretRoomMng@@QAEXPAVCUser@@H@Z PROC	; CSecretRoomMng::SetTender, COMDAT
; _this$ = ecx

; 450  : {

  00000	55		 push	 ebp
  00001	8b ec		 mov	 ebp, esp
  00003	51		 push	 ecx
  00004	57		 push	 edi
  00005	8b f9		 mov	 edi, ecx

; 451  : 	if( m_nState != SRMNG_CLOSE )

  00007	83 7f 34 01	 cmp	 DWORD PTR [edi+52], 1
  0000b	74 14		 je	 SHORT $LN2@SetTender

; 452  : 	{
; 453  : 		pUser->AddDefinedText( TID_GAME_SECRETROOM_NOTENDER );

  0000d	8b 4d 08	 mov	 ecx, DWORD PTR _pUser$[ebp]
  00010	68 6c 0e 00 00	 push	 3692			; 00000e6cH
  00015	e8 00 00 00 00	 call	 ?AddDefinedText@CUser@@QAEXH@Z ; CUser::AddDefinedText
  0001a	5f		 pop	 edi

; 477  : }

  0001b	8b e5		 mov	 esp, ebp
  0001d	5d		 pop	 ebp
  0001e	c2 08 00	 ret	 8
$LN2@SetTender:
  00021	56		 push	 esi

; 454  : 		return;
; 455  : 	}
; 456  : 	
; 457  : 	if( !IsGuildMaster( pUser ) )

  00022	8b 75 08	 mov	 esi, DWORD PTR _pUser$[ebp]
  00025	56		 push	 esi
  00026	e8 00 00 00 00	 call	 ?IsGuildMaster@CSecretRoomMng@@QAEHPAVCUser@@@Z ; CSecretRoomMng::IsGuildMaster
  0002b	85 c0		 test	 eax, eax
  0002d	75 14		 jne	 SHORT $LN3@SetTender

; 458  : 	{
; 459  : 		pUser->AddDefinedText( TID_GAME_SECRETROOM_ISNOTGUILDMASTER );

  0002f	68 6e 0e 00 00	 push	 3694			; 00000e6eH
  00034	8b ce		 mov	 ecx, esi
  00036	e8 00 00 00 00	 call	 ?AddDefinedText@CUser@@QAEXH@Z ; CUser::AddDefinedText
  0003b	5e		 pop	 esi
  0003c	5f		 pop	 edi

; 477  : }

  0003d	8b e5		 mov	 esp, ebp
  0003f	5d		 pop	 ebp
  00040	c2 08 00	 ret	 8
$LN3@SetTender:

; 460  : 		return;
; 461  : 	}
; 462  : 
; 463  : 	if( !IsPossibleGuild( pUser ) )

  00043	56		 push	 esi
  00044	8b cf		 mov	 ecx, edi
  00046	e8 00 00 00 00	 call	 ?IsPossibleGuild@CSecretRoomMng@@QAEHPAVCUser@@@Z ; CSecretRoomMng::IsPossibleGuild
  0004b	85 c0		 test	 eax, eax
  0004d	75 14		 jne	 SHORT $LN4@SetTender

; 464  : 	{
; 465  : 		pUser->AddDefinedText( TID_GAME_SECRETROOM_LOWGUILDLEVEL );

  0004f	68 6d 0e 00 00	 push	 3693			; 00000e6dH
  00054	8b ce		 mov	 ecx, esi
  00056	e8 00 00 00 00	 call	 ?AddDefinedText@CUser@@QAEXH@Z ; CUser::AddDefinedText
  0005b	5e		 pop	 esi
  0005c	5f		 pop	 edi

; 477  : }

  0005d	8b e5		 mov	 esp, ebp
  0005f	5d		 pop	 ebp
  00060	c2 08 00	 ret	 8
$LN4@SetTender:

; 466  : 		return;
; 467  : 	}
; 468  : 	
; 469  : 	BYTE nCont = GetContinent( (CMover*)pUser );

  00063	56		 push	 esi
  00064	8b cf		 mov	 ecx, edi
  00066	e8 00 00 00 00	 call	 ?GetContinent@CSecretRoomMng@@QAEEPAVCMover@@@Z ; CSecretRoomMng::GetContinent
  0006b	88 45 0b	 mov	 BYTE PTR _nCont$[ebp], al
  0006e	84 c0		 test	 al, al

; 470  : 	if( nCont == CONT_NODATA )

  00070	74 22		 je	 SHORT $LN22@SetTender

; 471  : 		return;
; 472  : 	
; 473  : 	CSecretRoomContinent* pSRCont = m_mapSecretRoomContinent.find(nCont)->second;

  00072	8d 45 0b	 lea	 eax, DWORD PTR _nCont$[ebp]
  00075	50		 push	 eax
  00076	8d 45 fc	 lea	 eax, DWORD PTR $T1[ebp]
  00079	50		 push	 eax
  0007a	8d 4f 04	 lea	 ecx, DWORD PTR [edi+4]
  0007d	e8 00 00 00 00	 call	 ?find@?$_Tree@V?$_Tmap_traits@EPAVCSecretRoomContinent@@U?$less@E@std@@V?$allocator@U?$pair@$$CBEPAVCSecretRoomContinent@@@std@@@3@$0A@@std@@@std@@QAE?AV?$_Tree_iterator@V?$_Tree_val@U?$_Tree_simple_types@U?$pair@$$CBEPAVCSecretRoomContinent@@@std@@@std@@@std@@@2@ABE@Z ; std::_Tree<std::_Tmap_traits<unsigned char,CSecretRoomContinent *,std::less<unsigned char>,std::allocator<std::pair<unsigned char const ,CSecretRoomContinent *> >,0> >::find
  00082	8b 00		 mov	 eax, DWORD PTR [eax]
  00084	8b 48 14	 mov	 ecx, DWORD PTR [eax+20]

; 474  : 
; 475  : 	if( pSRCont )

  00087	85 c9		 test	 ecx, ecx
  00089	74 09		 je	 SHORT $LN22@SetTender

; 476  : 		pSRCont->SetContTender( pUser, nPenya );

  0008b	ff 75 0c	 push	 DWORD PTR _nPenya$[ebp]
  0008e	56		 push	 esi
  0008f	e8 00 00 00 00	 call	 ?SetContTender@CSecretRoomContinent@@QAEXPAVCUser@@H@Z ; CSecretRoomContinent::SetContTender
$LN22@SetTender:
  00094	5e		 pop	 esi
  00095	5f		 pop	 edi

; 477  : }

  00096	8b e5		 mov	 esp, ebp
  00098	5d		 pop	 ebp
  00099	c2 08 00	 ret	 8
?SetTender@CSecretRoomMng@@QAEXPAVCUser@@H@Z ENDP	; CSecretRoomMng::SetTender
_TEXT	ENDS
; Function compile flags: /Ogtp
; File C:\IAGOS\server\v18\Source\Source\_Common\SecretRoom.cpp
; File C:\Program Files\Microsoft Visual Studio\2022\Professional\VC\Tools\MSVC\14.44.35207\include\vector
; File C:\IAGOS\server\v18\Source\Source\_Common\SecretRoom.cpp
;	COMDAT ?SetTenderOpenWnd@CSecretRoomMng@@QAEXPAVCUser@@@Z
_TEXT	SEGMENT
$T1 = -4						; size = 4
_pUser$ = 8						; size = 4
_nCont$ = 11						; size = 1
?SetTenderOpenWnd@CSecretRoomMng@@QAEXPAVCUser@@@Z PROC	; CSecretRoomMng::SetTenderOpenWnd, COMDAT
; _this$ = ecx

; 413  : {

  00000	55		 push	 ebp
  00001	8b ec		 mov	 ebp, esp
  00003	51		 push	 ecx
  00004	57		 push	 edi
  00005	8b f9		 mov	 edi, ecx

; 414  : 	if( m_nState != SRMNG_CLOSE )

  00007	83 7f 34 01	 cmp	 DWORD PTR [edi+52], 1
  0000b	74 14		 je	 SHORT $LN2@SetTenderO

; 415  : 	{
; 416  : 		pUser->AddDefinedText( TID_GAME_SECRETROOM_NOTENDER );

  0000d	8b 4d 08	 mov	 ecx, DWORD PTR _pUser$[ebp]
  00010	68 6c 0e 00 00	 push	 3692			; 00000e6cH
  00015	e8 00 00 00 00	 call	 ?AddDefinedText@CUser@@QAEXH@Z ; CUser::AddDefinedText
  0001a	5f		 pop	 edi

; 446  : }

  0001b	8b e5		 mov	 esp, ebp
  0001d	5d		 pop	 ebp
  0001e	c2 04 00	 ret	 4
$LN2@SetTenderO:
  00021	56		 push	 esi

; 417  : 		return;
; 418  : 	}
; 419  : 
; 420  : 	if( !IsGuildMaster( pUser ) )

  00022	8b 75 08	 mov	 esi, DWORD PTR _pUser$[ebp]
  00025	56		 push	 esi
  00026	e8 00 00 00 00	 call	 ?IsGuildMaster@CSecretRoomMng@@QAEHPAVCUser@@@Z ; CSecretRoomMng::IsGuildMaster
  0002b	85 c0		 test	 eax, eax
  0002d	75 14		 jne	 SHORT $LN3@SetTenderO

; 421  : 	{
; 422  : 		pUser->AddDefinedText( TID_GAME_SECRETROOM_ISNOTGUILDMASTER );

  0002f	68 6e 0e 00 00	 push	 3694			; 00000e6eH
  00034	8b ce		 mov	 ecx, esi
  00036	e8 00 00 00 00	 call	 ?AddDefinedText@CUser@@QAEXH@Z ; CUser::AddDefinedText
  0003b	5e		 pop	 esi
  0003c	5f		 pop	 edi

; 446  : }

  0003d	8b e5		 mov	 esp, ebp
  0003f	5d		 pop	 ebp
  00040	c2 04 00	 ret	 4
$LN3@SetTenderO:

; 423  : 		return;
; 424  : 	}
; 425  : 
; 426  : 	if( !IsPossibleGuild( pUser ) )

  00043	56		 push	 esi
  00044	8b cf		 mov	 ecx, edi
  00046	e8 00 00 00 00	 call	 ?IsPossibleGuild@CSecretRoomMng@@QAEHPAVCUser@@@Z ; CSecretRoomMng::IsPossibleGuild
  0004b	85 c0		 test	 eax, eax
  0004d	75 14		 jne	 SHORT $LN4@SetTenderO

; 427  : 	{
; 428  : 		pUser->AddDefinedText( TID_GAME_SECRETROOM_LOWGUILDLEVEL );

  0004f	68 6d 0e 00 00	 push	 3693			; 00000e6dH
  00054	8b ce		 mov	 ecx, esi
  00056	e8 00 00 00 00	 call	 ?AddDefinedText@CUser@@QAEXH@Z ; CUser::AddDefinedText
  0005b	5e		 pop	 esi
  0005c	5f		 pop	 edi

; 446  : }

  0005d	8b e5		 mov	 esp, ebp
  0005f	5d		 pop	 ebp
  00060	c2 04 00	 ret	 4
$LN4@SetTenderO:

; 429  : 		return;
; 430  : 	}
; 431  : 
; 432  : 	BYTE nCont = GetContinent( (CMover*)pUser );

  00063	56		 push	 esi
  00064	8b cf		 mov	 ecx, edi
  00066	e8 00 00 00 00	 call	 ?GetContinent@CSecretRoomMng@@QAEEPAVCMover@@@Z ; CSecretRoomMng::GetContinent
  0006b	88 45 0b	 mov	 BYTE PTR _nCont$[ebp], al
  0006e	84 c0		 test	 al, al

; 433  : 	if( nCont == CONT_NODATA )

  00070	74 41		 je	 SHORT $LN27@SetTenderO

; 434  : 		return;
; 435  : 
; 436  : 	int nTenderPenya = 0;
; 437  : 	CSecretRoomContinent* pSRCont = m_mapSecretRoomContinent.find(nCont)->second;

  00072	53		 push	 ebx
  00073	8d 45 0b	 lea	 eax, DWORD PTR _nCont$[ebp]
  00076	33 db		 xor	 ebx, ebx
  00078	50		 push	 eax
  00079	8d 45 fc	 lea	 eax, DWORD PTR $T1[ebp]
  0007c	50		 push	 eax
  0007d	8d 4f 04	 lea	 ecx, DWORD PTR [edi+4]
  00080	e8 00 00 00 00	 call	 ?find@?$_Tree@V?$_Tmap_traits@EPAVCSecretRoomContinent@@U?$less@E@std@@V?$allocator@U?$pair@$$CBEPAVCSecretRoomContinent@@@std@@@3@$0A@@std@@@std@@QAE?AV?$_Tree_iterator@V?$_Tree_val@U?$_Tree_simple_types@U?$pair@$$CBEPAVCSecretRoomContinent@@@std@@@std@@@std@@@2@ABE@Z ; std::_Tree<std::_Tmap_traits<unsigned char,CSecretRoomContinent *,std::less<unsigned char>,std::allocator<std::pair<unsigned char const ,CSecretRoomContinent *> >,0> >::find
  00085	8b 00		 mov	 eax, DWORD PTR [eax]
  00087	8b 78 14	 mov	 edi, DWORD PTR [eax+20]

; 438  : 	if( pSRCont )

  0008a	85 ff		 test	 edi, edi
  0008c	74 1c		 je	 SHORT $LN7@SetTenderO

; 439  : 	{
; 440  : 		int nIndex = pSRCont->GetTenderGuild( pUser->m_idGuild );

  0008e	ff b6 14 07 00
	00		 push	 DWORD PTR [esi+1812]
  00094	8b cf		 mov	 ecx, edi
  00096	e8 00 00 00 00	 call	 ?GetTenderGuild@CSecretRoomContinent@@QAEHK@Z ; CSecretRoomContinent::GetTenderGuild

; 441  : 		if( nIndex != NULL_ID )

  0009b	83 f8 ff	 cmp	 eax, -1
  0009e	74 0a		 je	 SHORT $LN7@SetTenderO
; File C:\Program Files\Microsoft Visual Studio\2022\Professional\VC\Tools\MSVC\14.44.35207\include\vector

; 1934 :         return _My_data._Myfirst[_Pos];

  000a0	6b c8 2c	 imul	 ecx, eax, 44
; File C:\IAGOS\server\v18\Source\Source\_Common\SecretRoom.cpp

; 442  : 			nTenderPenya = pSRCont->m_vecSecretRoomTender[nIndex].nPenya;

  000a3	8b 47 10	 mov	 eax, DWORD PTR [edi+16]
  000a6	8b 5c 01 04	 mov	 ebx, DWORD PTR [ecx+eax+4]
$LN7@SetTenderO:

; 443  : 	}
; 444  : 
; 445  : 	pUser->AddSecretRoomTenderOpenWnd( nTenderPenya );

  000aa	53		 push	 ebx
  000ab	8b ce		 mov	 ecx, esi
  000ad	e8 00 00 00 00	 call	 ?AddSecretRoomTenderOpenWnd@CUser@@QAEXH@Z ; CUser::AddSecretRoomTenderOpenWnd
  000b2	5b		 pop	 ebx
$LN27@SetTenderO:
  000b3	5e		 pop	 esi
  000b4	5f		 pop	 edi

; 446  : }

  000b5	8b e5		 mov	 esp, ebp
  000b7	5d		 pop	 ebp
  000b8	c2 04 00	 ret	 4
?SetTenderOpenWnd@CSecretRoomMng@@QAEXPAVCUser@@@Z ENDP	; CSecretRoomMng::SetTenderOpenWnd
_TEXT	ENDS
; Function compile flags: /Ogtp
; File C:\IAGOS\server\v18\Source\Source\_Common\SecretRoom.cpp
; File C:\Program Files\Microsoft Visual Studio\2022\Professional\VC\Tools\MSVC\14.44.35207\include\xtree
; File C:\IAGOS\server\v18\Source\Source\_Common\SecretRoom.cpp
; File C:\Program Files\Microsoft Visual Studio\2022\Professional\VC\Tools\MSVC\14.44.35207\include\xtree
; File C:\IAGOS\server\v18\Source\Source\_Common\SecretRoom.cpp
;	COMDAT ?IsOtherTenderGuild@CSecretRoomMng@@QAEHPAVCUser@@@Z
_TEXT	SEGMENT
_pUser$ = 8						; size = 4
?IsOtherTenderGuild@CSecretRoomMng@@QAEHPAVCUser@@@Z PROC ; CSecretRoomMng::IsOtherTenderGuild, COMDAT
; _this$ = ecx

; 274  : {

  00000	55		 push	 ebp
  00001	8b ec		 mov	 ebp, esp
  00003	53		 push	 ebx
  00004	56		 push	 esi
  00005	57		 push	 edi
  00006	8b f9		 mov	 edi, ecx
; File C:\Program Files\Microsoft Visual Studio\2022\Professional\VC\Tools\MSVC\14.44.35207\include\xtree

; 1142 :         return iterator(_Scary->_Myhead->_Left, _Scary);

  00008	8b 47 04	 mov	 eax, DWORD PTR [edi+4]

; 37   :     _Tree_unchecked_const_iterator(_Nodeptr _Pnode, const _Mytree* _Plist) noexcept : _Ptr(_Pnode) {

  0000b	8b 30		 mov	 esi, DWORD PTR [eax]

; 237  :         return !(*this == _Right);

  0000d	3b f0		 cmp	 esi, eax
; File C:\IAGOS\server\v18\Source\Source\_Common\SecretRoom.cpp

; 276  : 	for( ; it!=m_mapSecretRoomContinent.end(); it++ )

  0000f	74 70		 je	 SHORT $LN90@IsOtherTen
$LL4@IsOtherTen:

; 277  : 	{
; 278  : 		if( it->first != GetContinent( (CMover*)pUser ) )

  00011	ff 75 08	 push	 DWORD PTR _pUser$[ebp]
  00014	8a 5e 10	 mov	 bl, BYTE PTR [esi+16]
  00017	8b cf		 mov	 ecx, edi
  00019	e8 00 00 00 00	 call	 ?GetContinent@CSecretRoomMng@@QAEEPAVCMover@@@Z ; CSecretRoomMng::GetContinent
  0001e	3a d8		 cmp	 bl, al
  00020	74 1a		 je	 SHORT $LN2@IsOtherTen

; 279  : 			if( it->second && it->second->GetTenderGuild( pUser->m_idGuild ) != NULL_ID )

  00022	8b 4e 14	 mov	 ecx, DWORD PTR [esi+20]
  00025	85 c9		 test	 ecx, ecx
  00027	74 13		 je	 SHORT $LN2@IsOtherTen
  00029	8b 45 08	 mov	 eax, DWORD PTR _pUser$[ebp]
  0002c	ff b0 14 07 00
	00		 push	 DWORD PTR [eax+1812]
  00032	e8 00 00 00 00	 call	 ?GetTenderGuild@CSecretRoomContinent@@QAEHK@Z ; CSecretRoomContinent::GetTenderGuild
  00037	83 f8 ff	 cmp	 eax, -1
  0003a	75 4e		 jne	 SHORT $LN86@IsOtherTen
$LN2@IsOtherTen:
; File C:\Program Files\Microsoft Visual Studio\2022\Professional\VC\Tools\MSVC\14.44.35207\include\xtree

; 50   :         if (_Ptr->_Right->_Isnil) { // climb looking for right subtree

  0003c	8b 46 08	 mov	 eax, DWORD PTR [esi+8]
  0003f	80 78 0d 00	 cmp	 BYTE PTR [eax+13], 0
  00043	74 1f		 je	 SHORT $LN29@IsOtherTen

; 51   :             _Nodeptr _Pnode;
; 52   :             while (!(_Pnode = _Ptr->_Parent)->_Isnil && _Ptr == _Pnode->_Right) {

  00045	8b 46 04	 mov	 eax, DWORD PTR [esi+4]
  00048	80 78 0d 00	 cmp	 BYTE PTR [eax+13], 0
  0004c	75 12		 jne	 SHORT $LN97@IsOtherTen
  0004e	66 90		 npad	 2
$LL27@IsOtherTen:
  00050	3b 70 08	 cmp	 esi, DWORD PTR [eax+8]
  00053	75 0b		 jne	 SHORT $LN97@IsOtherTen

; 53   :                 _Ptr = _Pnode; // ==> parent while right subtree

  00055	8b f0		 mov	 esi, eax
  00057	8b 40 04	 mov	 eax, DWORD PTR [eax+4]
  0005a	80 78 0d 00	 cmp	 BYTE PTR [eax+13], 0
  0005e	74 f0		 je	 SHORT $LL27@IsOtherTen
$LN97@IsOtherTen:

; 54   :             }
; 55   : 
; 56   :             _Ptr = _Pnode; // ==> parent (head if end())

  00060	8b f0		 mov	 esi, eax

; 57   :         } else {

  00062	eb 18		 jmp	 SHORT $LN35@IsOtherTen
$LN29@IsOtherTen:

; 58   :             _Ptr = _Mytree::_Min(_Ptr->_Right); // ==> smallest of right subtree

  00064	8b f0		 mov	 esi, eax

; 476  :         while (!_Pnode->_Left->_Isnil) {

  00066	8b 0e		 mov	 ecx, DWORD PTR [esi]
  00068	80 79 0d 00	 cmp	 BYTE PTR [ecx+13], 0
  0006c	75 0e		 jne	 SHORT $LN35@IsOtherTen
  0006e	66 90		 npad	 2
$LL34@IsOtherTen:
  00070	8b 01		 mov	 eax, DWORD PTR [ecx]

; 477  :             _Pnode = _Pnode->_Left;

  00072	8b f1		 mov	 esi, ecx
  00074	8b c8		 mov	 ecx, eax
  00076	80 78 0d 00	 cmp	 BYTE PTR [eax+13], 0
  0007a	74 f4		 je	 SHORT $LL34@IsOtherTen
$LN35@IsOtherTen:

; 237  :         return !(*this == _Right);

  0007c	3b 77 04	 cmp	 esi, DWORD PTR [edi+4]
; File C:\IAGOS\server\v18\Source\Source\_Common\SecretRoom.cpp

; 276  : 	for( ; it!=m_mapSecretRoomContinent.end(); it++ )

  0007f	75 90		 jne	 SHORT $LL4@IsOtherTen
$LN90@IsOtherTen:
  00081	5f		 pop	 edi

; 280  : 				return TRUE;
; 281  : 	}
; 282  : 	
; 283  : 	return FALSE;
; 284  : }

  00082	5e		 pop	 esi
  00083	33 c0		 xor	 eax, eax
  00085	5b		 pop	 ebx
  00086	5d		 pop	 ebp
  00087	c2 04 00	 ret	 4
$LN86@IsOtherTen:
  0008a	5f		 pop	 edi
  0008b	5e		 pop	 esi
  0008c	b8 01 00 00 00	 mov	 eax, 1
  00091	5b		 pop	 ebx
  00092	5d		 pop	 ebp
  00093	c2 04 00	 ret	 4
?IsOtherTenderGuild@CSecretRoomMng@@QAEHPAVCUser@@@Z ENDP ; CSecretRoomMng::IsOtherTenderGuild
_TEXT	ENDS
; Function compile flags: /Ogtp
; File C:\IAGOS\server\v18\Source\Source\_Common\SecretRoom.cpp
; File C:\IAGOS\server\v18\Source\Source\_Common\guild.h
; File C:\IAGOS\server\v18\Source\Source\_Common\SecretRoom.cpp
;	COMDAT ?IsGuildMaster@CSecretRoomMng@@QAEHPAVCUser@@@Z
_TEXT	SEGMENT
_pUser$ = 8						; size = 4
?IsGuildMaster@CSecretRoomMng@@QAEHPAVCUser@@@Z PROC	; CSecretRoomMng::IsGuildMaster, COMDAT
; _this$ = ecx

; 264  : {

  00000	55		 push	 ebp
  00001	8b ec		 mov	 ebp, esp
  00003	56		 push	 esi

; 265  : 	CGuild* pGuild = pUser->GetGuild();

  00004	8b 75 08	 mov	 esi, DWORD PTR _pUser$[ebp]
  00007	8b ce		 mov	 ecx, esi
  00009	e8 00 00 00 00	 call	 ?GetGuild@CMover@@QAEPAVCGuild@@XZ ; CMover::GetGuild

; 266  : 	if( pGuild && pGuild->IsMaster( pUser->m_idPlayer ) )

  0000e	85 c0		 test	 eax, eax
  00010	74 13		 je	 SHORT $LN2@IsGuildMas
; File C:\IAGOS\server\v18\Source\Source\_Common\guild.h

; 309  : 	BOOL	IsMaster( u_long idPlayer )	{	return( m_idMaster == idPlayer );	}

  00012	8b 48 40	 mov	 ecx, DWORD PTR [eax+64]
  00015	33 c0		 xor	 eax, eax
  00017	3b 8e 34 02 00
	00		 cmp	 ecx, DWORD PTR [esi+564]
  0001d	5e		 pop	 esi
  0001e	0f 94 c0	 sete	 al
; File C:\IAGOS\server\v18\Source\Source\_Common\SecretRoom.cpp

; 270  : }

  00021	5d		 pop	 ebp
  00022	c2 04 00	 ret	 4
$LN2@IsGuildMas:

; 267  : 		return TRUE;
; 268  : 	
; 269  : 	return FALSE;

  00025	33 c0		 xor	 eax, eax
  00027	5e		 pop	 esi

; 270  : }

  00028	5d		 pop	 ebp
  00029	c2 04 00	 ret	 4
?IsGuildMaster@CSecretRoomMng@@QAEHPAVCUser@@@Z ENDP	; CSecretRoomMng::IsGuildMaster
_TEXT	ENDS
; Function compile flags: /Ogtp
; File C:\IAGOS\server\v18\Source\Source\_Common\SecretRoom.cpp
;	COMDAT ?IsPossibleGuild@CSecretRoomMng@@QAEHPAVCUser@@@Z
_TEXT	SEGMENT
_pUser$ = 8						; size = 4
?IsPossibleGuild@CSecretRoomMng@@QAEHPAVCUser@@@Z PROC	; CSecretRoomMng::IsPossibleGuild, COMDAT
; _this$ = ecx

; 254  : {

  00000	55		 push	 ebp
  00001	8b ec		 mov	 ebp, esp
  00003	56		 push	 esi
  00004	8b f1		 mov	 esi, ecx

; 255  : 	CGuild* pGuild = pUser->GetGuild();

  00006	8b 4d 08	 mov	 ecx, DWORD PTR _pUser$[ebp]
  00009	e8 00 00 00 00	 call	 ?GetGuild@CMover@@QAEPAVCGuild@@XZ ; CMover::GetGuild

; 256  : 	if( pGuild && pGuild->m_nLevel >= m_nMinGuildLevel )

  0000e	85 c0		 test	 eax, eax
  00010	74 10		 je	 SHORT $LN2@IsPossible
  00012	8b 50 44	 mov	 edx, DWORD PTR [eax+68]
  00015	33 c0		 xor	 eax, eax
  00017	3b 56 0c	 cmp	 edx, DWORD PTR [esi+12]
  0001a	5e		 pop	 esi
  0001b	0f 9d c0	 setge	 al

; 260  : }

  0001e	5d		 pop	 ebp
  0001f	c2 04 00	 ret	 4
$LN2@IsPossible:

; 257  : 		return TRUE;
; 258  : 	
; 259  : 	return FALSE;

  00022	33 c0		 xor	 eax, eax
  00024	5e		 pop	 esi

; 260  : }

  00025	5d		 pop	 ebp
  00026	c2 04 00	 ret	 4
?IsPossibleGuild@CSecretRoomMng@@QAEHPAVCUser@@@Z ENDP	; CSecretRoomMng::IsPossibleGuild
_TEXT	ENDS
; Function compile flags: /Ogtp
; File C:\IAGOS\server\v18\Source\Source\_Common\SecretRoom.cpp
; File C:\Program Files\Microsoft Visual Studio\2022\Professional\VC\Tools\MSVC\14.44.35207\include\xtree
; File C:\IAGOS\server\v18\Source\Source\_Common\SecretRoom.cpp
; File C:\Program Files\Microsoft Visual Studio\2022\Professional\VC\Tools\MSVC\14.44.35207\include\vector
; File C:\IAGOS\server\v18\Source\Source\_Common\SecretRoom.cpp
; File C:\Program Files\Microsoft Visual Studio\2022\Professional\VC\Tools\MSVC\14.44.35207\include\xtree
; File C:\IAGOS\server\v18\Source\Source\_Common\SecretRoom.cpp
;	COMDAT ?GetAllInfo@CSecretRoomMng@@QAEXPAVCUser@@@Z
_TEXT	SEGMENT
_nIndex$1$ = -4						; size = 4
_pUser$ = 8						; size = 4
?GetAllInfo@CSecretRoomMng@@QAEXPAVCUser@@@Z PROC	; CSecretRoomMng::GetAllInfo, COMDAT
; _this$ = ecx

; 327  : {

  00000	55		 push	 ebp
  00001	8b ec		 mov	 ebp, esp
  00003	51		 push	 ecx
  00004	53		 push	 ebx
  00005	8b d9		 mov	 ebx, ecx

; 328  : 	if( m_nState == SRMNG_CLOSE )

  00007	83 7b 34 01	 cmp	 DWORD PTR [ebx+52], 1
  0000b	75 13		 jne	 SHORT $LN5@GetAllInfo

; 329  : 	{
; 330  : 		SendNowState( pUser, m_nState, 0 );

  0000d	6a 00		 push	 0
  0000f	6a 01		 push	 1
  00011	ff 75 08	 push	 DWORD PTR _pUser$[ebp]
  00014	e8 00 00 00 00	 call	 ?SendNowState@CSecretRoomMng@@QAEXPAVCUser@@HK@Z ; CSecretRoomMng::SendNowState
  00019	5b		 pop	 ebx

; 356  : 					return;
; 357  : 				}
; 358  : 			}
; 359  : 		}
; 360  : 	}
; 361  : }

  0001a	8b e5		 mov	 esp, ebp
  0001c	5d		 pop	 ebp
  0001d	c2 04 00	 ret	 4
$LN5@GetAllInfo:
; File C:\Program Files\Microsoft Visual Studio\2022\Professional\VC\Tools\MSVC\14.44.35207\include\xtree

; 1142 :         return iterator(_Scary->_Myhead->_Left, _Scary);

  00020	8b 43 04	 mov	 eax, DWORD PTR [ebx+4]
  00023	56		 push	 esi

; 37   :     _Tree_unchecked_const_iterator(_Nodeptr _Pnode, const _Mytree* _Plist) noexcept : _Ptr(_Pnode) {

  00024	8b 30		 mov	 esi, DWORD PTR [eax]

; 237  :         return !(*this == _Right);

  00026	3b f0		 cmp	 esi, eax
; File C:\IAGOS\server\v18\Source\Source\_Common\SecretRoom.cpp

; 335  : 	for( ; it!=m_mapSecretRoomContinent.end(); it++ )

  00028	0f 84 07 01 00
	00		 je	 $LN103@GetAllInfo
  0002e	57		 push	 edi
  0002f	90		 npad	 1
$LL4@GetAllInfo:

; 336  : 	{
; 337  : 		CSecretRoomContinent* pSRCont = it->second;

  00030	8b 7e 14	 mov	 edi, DWORD PTR [esi+20]

; 338  : 		if( pSRCont )

  00033	85 ff		 test	 edi, edi
  00035	0f 84 7e 00 00
	00		 je	 $LN2@GetAllInfo

; 339  : 		{
; 340  : 			int nIndex = pSRCont->GetTenderGuild( pUser->m_idGuild );

  0003b	8b 45 08	 mov	 eax, DWORD PTR _pUser$[ebp]
  0003e	8b cf		 mov	 ecx, edi
  00040	ff b0 14 07 00
	00		 push	 DWORD PTR [eax+1812]
  00046	e8 00 00 00 00	 call	 ?GetTenderGuild@CSecretRoomContinent@@QAEHK@Z ; CSecretRoomContinent::GetTenderGuild

; 341  : 			if( m_nState == SRMNG_LINEUP )

  0004b	83 7b 34 03	 cmp	 DWORD PTR [ebx+52], 3
  0004f	89 45 fc	 mov	 DWORD PTR _nIndex$1$[ebp], eax
  00052	75 24		 jne	 SHORT $LN7@GetAllInfo

; 342  : 			{
; 343  : 				if( nIndex != NULL_ID && IsGuildMaster( pUser ) )

  00054	83 f8 ff	 cmp	 eax, -1
  00057	74 60		 je	 SHORT $LN2@GetAllInfo
  00059	ff 75 08	 push	 DWORD PTR _pUser$[ebp]
  0005c	8b cb		 mov	 ecx, ebx
  0005e	e8 00 00 00 00	 call	 ?IsGuildMaster@CSecretRoomMng@@QAEHPAVCUser@@@Z ; CSecretRoomMng::IsGuildMaster
  00063	85 c0		 test	 eax, eax
  00065	74 52		 je	 SHORT $LN2@GetAllInfo

; 344  : 					SendNowState( pUser, m_nState, m_dwRemainTime - GetTickCount() );

  00067	8b 7b 38	 mov	 edi, DWORD PTR [ebx+56]
  0006a	ff 15 00 00 00
	00		 call	 DWORD PTR __imp__GetTickCount@0
  00070	2b f8		 sub	 edi, eax
  00072	57		 push	 edi
  00073	ff 73 34	 push	 DWORD PTR [ebx+52]

; 345  : 			}

  00076	eb 37		 jmp	 SHORT $LN105@GetAllInfo
$LN7@GetAllInfo:

; 346  : 			else if( pSRCont->IsLineUpMember( pUser ) )

  00078	ff 75 08	 push	 DWORD PTR _pUser$[ebp]
  0007b	8b cf		 mov	 ecx, edi
  0007d	e8 00 00 00 00	 call	 ?IsLineUpMember@CSecretRoomContinent@@QAEHPAVCUser@@@Z ; CSecretRoomContinent::IsLineUpMember
  00082	85 c0		 test	 eax, eax
  00084	74 33		 je	 SHORT $LN2@GetAllInfo

; 347  : 			{
; 348  : 				if( m_nState != SRMNG_WAR )

  00086	83 7b 34 06	 cmp	 DWORD PTR [ebx+52], 6
  0008a	74 11		 je	 SHORT $LN11@GetAllInfo

; 349  : 					SendNowState( pUser, m_nState, m_dwRemainTime - GetTickCount() );

  0008c	8b 7b 38	 mov	 edi, DWORD PTR [ebx+56]
  0008f	ff 15 00 00 00
	00		 call	 DWORD PTR __imp__GetTickCount@0
  00095	2b f8		 sub	 edi, eax
  00097	57		 push	 edi
  00098	ff 73 34	 push	 DWORD PTR [ebx+52]
  0009b	eb 12		 jmp	 SHORT $LN105@GetAllInfo
$LN11@GetAllInfo:
; File C:\Program Files\Microsoft Visual Studio\2022\Professional\VC\Tools\MSVC\14.44.35207\include\vector

; 1934 :         return _My_data._Myfirst[_Pos];

  0009d	6b 4d fc 2c	 imul	 ecx, DWORD PTR _nIndex$1$[ebp], 44
; File C:\IAGOS\server\v18\Source\Source\_Common\SecretRoom.cpp

; 350  : 				else if( pSRCont->m_vecSecretRoomTender[nIndex].nWarState == MONSTER_FAILED )

  000a1	8b 47 10	 mov	 eax, DWORD PTR [edi+16]
  000a4	83 7c 01 10 00	 cmp	 DWORD PTR [ecx+eax+16], 0
  000a9	75 63		 jne	 SHORT $LN13@GetAllInfo

; 351  : 					SendNowState( pUser, SRCONT_CLOSE, 0 );

  000ab	6a 00		 push	 0
  000ad	6a 65		 push	 101			; 00000065H
$LN105@GetAllInfo:
; File C:\Program Files\Microsoft Visual Studio\2022\Professional\VC\Tools\MSVC\14.44.35207\include\xtree

; 50   :         if (_Ptr->_Right->_Isnil) { // climb looking for right subtree

  000af	ff 75 08	 push	 DWORD PTR _pUser$[ebp]
  000b2	8b cb		 mov	 ecx, ebx
  000b4	e8 00 00 00 00	 call	 ?SendNowState@CSecretRoomMng@@QAEXPAVCUser@@HK@Z ; CSecretRoomMng::SendNowState
$LN2@GetAllInfo:
  000b9	8b 46 08	 mov	 eax, DWORD PTR [esi+8]
  000bc	80 78 0d 00	 cmp	 BYTE PTR [eax+13], 0
  000c0	74 22		 je	 SHORT $LN37@GetAllInfo

; 51   :             _Nodeptr _Pnode;
; 52   :             while (!(_Pnode = _Ptr->_Parent)->_Isnil && _Ptr == _Pnode->_Right) {

  000c2	8b 46 04	 mov	 eax, DWORD PTR [esi+4]
  000c5	80 78 0d 00	 cmp	 BYTE PTR [eax+13], 0
  000c9	75 15		 jne	 SHORT $LN89@GetAllInfo
  000cb	0f 1f 44 00 00	 npad	 5
$LL35@GetAllInfo:
  000d0	3b 70 08	 cmp	 esi, DWORD PTR [eax+8]
  000d3	75 0b		 jne	 SHORT $LN89@GetAllInfo

; 53   :                 _Ptr = _Pnode; // ==> parent while right subtree

  000d5	8b f0		 mov	 esi, eax
  000d7	8b 40 04	 mov	 eax, DWORD PTR [eax+4]
  000da	80 78 0d 00	 cmp	 BYTE PTR [eax+13], 0
  000de	74 f0		 je	 SHORT $LL35@GetAllInfo
$LN89@GetAllInfo:

; 54   :             }
; 55   : 
; 56   :             _Ptr = _Pnode; // ==> parent (head if end())

  000e0	8b f0		 mov	 esi, eax

; 57   :         } else {

  000e2	eb 18		 jmp	 SHORT $LN43@GetAllInfo
$LN37@GetAllInfo:

; 58   :             _Ptr = _Mytree::_Min(_Ptr->_Right); // ==> smallest of right subtree

  000e4	8b f0		 mov	 esi, eax

; 476  :         while (!_Pnode->_Left->_Isnil) {

  000e6	8b 0e		 mov	 ecx, DWORD PTR [esi]
  000e8	80 79 0d 00	 cmp	 BYTE PTR [ecx+13], 0
  000ec	75 0e		 jne	 SHORT $LN43@GetAllInfo
  000ee	66 90		 npad	 2
$LL42@GetAllInfo:
  000f0	8b 01		 mov	 eax, DWORD PTR [ecx]

; 477  :             _Pnode = _Pnode->_Left;

  000f2	8b f1		 mov	 esi, ecx
  000f4	8b c8		 mov	 ecx, eax
  000f6	80 78 0d 00	 cmp	 BYTE PTR [eax+13], 0
  000fa	74 f4		 je	 SHORT $LL42@GetAllInfo
$LN43@GetAllInfo:

; 237  :         return !(*this == _Right);

  000fc	3b 73 04	 cmp	 esi, DWORD PTR [ebx+4]
; File C:\IAGOS\server\v18\Source\Source\_Common\SecretRoom.cpp

; 335  : 	for( ; it!=m_mapSecretRoomContinent.end(); it++ )

  000ff	0f 85 2b ff ff
	ff		 jne	 $LL4@GetAllInfo
  00105	5f		 pop	 edi
  00106	5e		 pop	 esi
  00107	5b		 pop	 ebx

; 356  : 					return;
; 357  : 				}
; 358  : 			}
; 359  : 		}
; 360  : 	}
; 361  : }

  00108	8b e5		 mov	 esp, ebp
  0010a	5d		 pop	 ebp
  0010b	c2 04 00	 ret	 4
$LN13@GetAllInfo:

; 352  : 				else
; 353  : 				{
; 354  : 					SendNowState( pUser, pSRCont->m_nState, pSRCont->m_dwRemainTime - GetTickCount() );

  0010e	8b 77 08	 mov	 esi, DWORD PTR [edi+8]
  00111	ff 15 00 00 00
	00		 call	 DWORD PTR __imp__GetTickCount@0
  00117	2b f0		 sub	 esi, eax
  00119	8b cb		 mov	 ecx, ebx
  0011b	56		 push	 esi
  0011c	ff 77 04	 push	 DWORD PTR [edi+4]
  0011f	8b 75 08	 mov	 esi, DWORD PTR _pUser$[ebp]
  00122	56		 push	 esi
  00123	e8 00 00 00 00	 call	 ?SendNowState@CSecretRoomMng@@QAEXPAVCUser@@HK@Z ; CSecretRoomMng::SendNowState

; 355  : 					pSRCont->UpdateInfoToMember( pUser, SECRETROOM_GUILDLIST );

  00128	6a ff		 push	 -1
  0012a	6a 01		 push	 1
  0012c	56		 push	 esi
  0012d	8b cf		 mov	 ecx, edi
  0012f	e8 00 00 00 00	 call	 ?UpdateInfoToMember@CSecretRoomContinent@@QAEXPAVCUser@@EH@Z ; CSecretRoomContinent::UpdateInfoToMember
  00134	5f		 pop	 edi
$LN103@GetAllInfo:
  00135	5e		 pop	 esi
  00136	5b		 pop	 ebx

; 356  : 					return;
; 357  : 				}
; 358  : 			}
; 359  : 		}
; 360  : 	}
; 361  : }

  00137	8b e5		 mov	 esp, ebp
  00139	5d		 pop	 ebp
  0013a	c2 04 00	 ret	 4
?GetAllInfo@CSecretRoomMng@@QAEXPAVCUser@@@Z ENDP	; CSecretRoomMng::GetAllInfo
_TEXT	ENDS
; Function compile flags: /Ogtp
; File C:\IAGOS\server\v18\Source\Source\_Common\SecretRoom.cpp
; File C:\Program Files\Microsoft Visual Studio\2022\Professional\VC\Tools\MSVC\14.44.35207\include\xtree
; File C:\IAGOS\server\v18\Source\Source\_Common\SecretRoom.cpp
; File C:\Program Files\Microsoft Visual Studio\2022\Professional\VC\Tools\MSVC\14.44.35207\include\vector
; File C:\IAGOS\server\v18\Source\Source\_Common\SecretRoom.cpp
; File C:\Program Files\Microsoft Visual Studio\2022\Professional\VC\Tools\MSVC\14.44.35207\include\vector
; File C:\IAGOS\server\v18\Source\Source\_Common\SecretRoom.cpp
; File C:\Program Files\Microsoft Visual Studio\2022\Professional\VC\Tools\MSVC\14.44.35207\include\vector
; File C:\IAGOS\server\v18\Source\Source\_Common\SecretRoom.cpp
; File C:\Program Files\Microsoft Visual Studio\2022\Professional\VC\Tools\MSVC\14.44.35207\include\vector
; File C:\IAGOS\server\v18\Source\Source\_Common\SecretRoom.cpp
; File C:\Program Files\Microsoft Visual Studio\2022\Professional\VC\Tools\MSVC\14.44.35207\include\xtree
; File C:\Program Files\Microsoft Visual Studio\2022\Professional\VC\Tools\MSVC\14.44.35207\include\type_traits
; File C:\Program Files\Microsoft Visual Studio\2022\Professional\VC\Tools\MSVC\14.44.35207\include\xtree
; File C:\Program Files\Microsoft Visual Studio\2022\Professional\VC\Tools\MSVC\14.44.35207\include\type_traits
; File C:\Program Files\Microsoft Visual Studio\2022\Professional\VC\Tools\MSVC\14.44.35207\include\xtree
; File C:\IAGOS\server\v18\Source\Source\_Common\Project.h
; File C:\IAGOS\server\v18\Source\Source\_Common\Obj.h
; File C:\IAGOS\server\v18\Source\Source\_Common\SecretRoom.cpp
; File C:\Program Files\Microsoft Visual Studio\2022\Professional\VC\Tools\MSVC\14.44.35207\include\vector
; File C:\IAGOS\server\v18\Source\Source\_Common\SecretRoom.cpp
; File C:\Program Files\Microsoft Visual Studio\2022\Professional\VC\Tools\MSVC\14.44.35207\include\vector
; File C:\IAGOS\server\v18\Source\Source\_Common\SecretRoom.cpp
; File C:\Program Files\Microsoft Visual Studio\2022\Professional\VC\Tools\MSVC\14.44.35207\include\vector
; File C:\IAGOS\server\v18\Source\Source\_Common\SecretRoom.cpp
; File C:\Program Files\Microsoft Visual Studio\2022\Professional\VC\Tools\MSVC\14.44.35207\include\vector
; File C:\IAGOS\server\v18\Source\Source\_Common\SecretRoom.cpp
; File C:\Program Files\Microsoft Visual Studio\2022\Professional\VC\Tools\MSVC\14.44.35207\include\xtree
; File C:\IAGOS\server\v18\Source\Source\_Common\SecretRoom.cpp
;	COMDAT ?SendNowStateAllMember@CSecretRoomMng@@QAEXEHK@Z
_TEXT	SEGMENT
_pSRCont$1$ = -24					; size = 4
_i$1$ = -20						; size = 4
_j$1$ = -16						; size = 4
_it$1$ = -12						; size = 4
_this$1$ = -8						; size = 4
tv1067 = -4						; size = 4
_nCont$ = 8						; size = 1
_nState$ = 12						; size = 4
_dwRemainTime$ = 16					; size = 4
?SendNowStateAllMember@CSecretRoomMng@@QAEXEHK@Z PROC	; CSecretRoomMng::SendNowStateAllMember, COMDAT
; _this$ = ecx

; 294  : {

  00000	55		 push	 ebp
  00001	8b ec		 mov	 ebp, esp
  00003	83 ec 18	 sub	 esp, 24			; 00000018H
  00006	8b d1		 mov	 edx, ecx
  00008	56		 push	 esi
  00009	89 55 f8	 mov	 DWORD PTR _this$1$[ebp], edx
; File C:\Program Files\Microsoft Visual Studio\2022\Professional\VC\Tools\MSVC\14.44.35207\include\xtree

; 1142 :         return iterator(_Scary->_Myhead->_Left, _Scary);

  0000c	8b 42 04	 mov	 eax, DWORD PTR [edx+4]

; 37   :     _Tree_unchecked_const_iterator(_Nodeptr _Pnode, const _Mytree* _Plist) noexcept : _Ptr(_Pnode) {

  0000f	8b 30		 mov	 esi, DWORD PTR [eax]
  00011	89 75 f4	 mov	 DWORD PTR _it$1$[ebp], esi

; 237  :         return !(*this == _Right);

  00014	3b f0		 cmp	 esi, eax
; File C:\IAGOS\server\v18\Source\Source\_Common\SecretRoom.cpp

; 296  : 	for( ; it!=m_mapSecretRoomContinent.end(); it++ )

  00016	0f 84 a2 01 00
	00		 je	 $LN3@SendNowSta
  0001c	53		 push	 ebx
  0001d	57		 push	 edi
  0001e	66 90		 npad	 2
$LL4@SendNowSta:

; 297  : 	{
; 298  : 		if( nCont != CONT_NODATA && it->first != nCont )

  00020	8a 45 08	 mov	 al, BYTE PTR _nCont$[ebp]
  00023	84 c0		 test	 al, al
  00025	74 09		 je	 SHORT $LN11@SendNowSta
  00027	38 46 10	 cmp	 BYTE PTR [esi+16], al
  0002a	0f 85 39 01 00
	00		 jne	 $LN2@SendNowSta
$LN11@SendNowSta:

; 299  : 			continue;
; 300  : 
; 301  : 		CSecretRoomContinent* pSRCont = it->second;

  00030	8b 46 14	 mov	 eax, DWORD PTR [esi+20]
  00033	89 45 e8	 mov	 DWORD PTR _pSRCont$1$[ebp], eax

; 302  : 		if( pSRCont )

  00036	85 c0		 test	 eax, eax
  00038	0f 84 2b 01 00
	00		 je	 $LN2@SendNowSta
; File C:\Program Files\Microsoft Visual Studio\2022\Professional\VC\Tools\MSVC\14.44.35207\include\vector

; 1915 :         return static_cast<size_type>(_My_data._Mylast - _My_data._Myfirst);

  0003e	8b 78 10	 mov	 edi, DWORD PTR [eax+16]
; File C:\IAGOS\server\v18\Source\Source\_Common\SecretRoom.cpp

; 304  : 			for( DWORD i=0; i<pSRCont->m_vecSecretRoomTender.size(); i++ )

  00041	33 c9		 xor	 ecx, ecx
  00043	89 4d ec	 mov	 DWORD PTR _i$1$[ebp], ecx
; File C:\Program Files\Microsoft Visual Studio\2022\Professional\VC\Tools\MSVC\14.44.35207\include\vector

; 1915 :         return static_cast<size_type>(_My_data._Mylast - _My_data._Myfirst);

  00046	8b 48 14	 mov	 ecx, DWORD PTR [eax+20]
  00049	b8 e9 a2 8b 2e	 mov	 eax, 780903145		; 2e8ba2e9H
  0004e	2b cf		 sub	 ecx, edi
  00050	f7 e9		 imul	 ecx
  00052	c1 fa 03	 sar	 edx, 3
  00055	8b c2		 mov	 eax, edx
  00057	c1 e8 1f	 shr	 eax, 31			; 0000001fH
  0005a	03 c2		 add	 eax, edx
; File C:\IAGOS\server\v18\Source\Source\_Common\SecretRoom.cpp

; 304  : 			for( DWORD i=0; i<pSRCont->m_vecSecretRoomTender.size(); i++ )

  0005c	0f 84 04 01 00
	00		 je	 $LN198@SendNowSta
  00062	8b 35 28 00 00
	00		 mov	 esi, DWORD PTR ?prj@@3VCProject@@A+40
  00068	33 db		 xor	 ebx, ebx
  0006a	89 5d fc	 mov	 DWORD PTR tv1067[ebp], ebx
  0006d	0f 1f 00	 npad	 3
$LL7@SendNowSta:
; File C:\Program Files\Microsoft Visual Studio\2022\Professional\VC\Tools\MSVC\14.44.35207\include\vector

; 1915 :         return static_cast<size_type>(_My_data._Mylast - _My_data._Myfirst);

  00070	8b 44 1f 18	 mov	 eax, DWORD PTR [edi+ebx+24]
; File C:\IAGOS\server\v18\Source\Source\_Common\SecretRoom.cpp

; 306  : 				for( DWORD j=0; j<pSRCont->m_vecSecretRoomTender[i].vecLineUpMember.size(); j++ )

  00074	33 c9		 xor	 ecx, ecx
; File C:\Program Files\Microsoft Visual Studio\2022\Professional\VC\Tools\MSVC\14.44.35207\include\vector

; 1915 :         return static_cast<size_type>(_My_data._Mylast - _My_data._Myfirst);

  00076	2b 44 1f 14	 sub	 eax, DWORD PTR [edi+ebx+20]
  0007a	8b d7		 mov	 edx, edi
  0007c	c1 f8 02	 sar	 eax, 2
; File C:\IAGOS\server\v18\Source\Source\_Common\SecretRoom.cpp

; 306  : 				for( DWORD j=0; j<pSRCont->m_vecSecretRoomTender[i].vecLineUpMember.size(); j++ )

  0007f	89 4d f0	 mov	 DWORD PTR _j$1$[ebp], ecx
  00082	85 c0		 test	 eax, eax
  00084	0f 84 ac 00 00
	00		 je	 $LN5@SendNowSta
  0008a	66 0f 1f 44 00
	00		 npad	 6
$LL10@SendNowSta:

; 307  : 				{
; 308  : 					if( nState && pSRCont->m_vecSecretRoomTender[i].nWarState == MONSTER_FAILED )

  00090	83 7d 0c 00	 cmp	 DWORD PTR _nState$[ebp], 0
  00094	74 07		 je	 SHORT $LN193@SendNowSta
  00096	83 7c 1f 10 00	 cmp	 DWORD PTR [edi+ebx+16], 0
  0009b	74 78		 je	 SHORT $LN8@SendNowSta
$LN193@SendNowSta:

; 309  : 						continue;
; 310  : 
; 311  : 					CUser* pUserTemp = (CUser*)prj.GetUserByID( pSRCont->m_vecSecretRoomTender[i].vecLineUpMember[j] );

  0009d	8b 44 1f 14	 mov	 eax, DWORD PTR [edi+ebx+20]
  000a1	8b 14 88	 mov	 edx, DWORD PTR [eax+ecx*4]
; File C:\Program Files\Microsoft Visual Studio\2022\Professional\VC\Tools\MSVC\14.44.35207\include\xtree

; 1630 :         _Tree_find_result<_Nodeptr> _Result{{_Scary->_Myhead->_Parent, _Tree_child::_Right}, _Scary->_Myhead};

  000a4	8b ce		 mov	 ecx, esi
  000a6	8b 46 04	 mov	 eax, DWORD PTR [esi+4]

; 1631 :         _Nodeptr _Trynode = _Result._Location._Parent;
; 1632 :         while (!_Trynode->_Isnil) {

  000a9	80 78 0d 00	 cmp	 BYTE PTR [eax+13], 0
  000ad	75 15		 jne	 SHORT $LN43@SendNowSta
  000af	90		 npad	 1
$LL42@SendNowSta:
; File C:\Program Files\Microsoft Visual Studio\2022\Professional\VC\Tools\MSVC\14.44.35207\include\type_traits

; 2380 :         return _Left < _Right;

  000b0	39 50 10	 cmp	 DWORD PTR [eax+16], edx
; File C:\Program Files\Microsoft Visual Studio\2022\Professional\VC\Tools\MSVC\14.44.35207\include\xtree

; 1634 :             if (_DEBUG_LT_PRED(_Getcomp(), _Traits::_Kfn(_Trynode->_Myval), _Keyval)) {

  000b3	73 05		 jae	 SHORT $LN44@SendNowSta

; 1635 :                 _Result._Location._Child = _Tree_child::_Right;
; 1636 :                 _Trynode                 = _Trynode->_Right;

  000b5	8b 40 08	 mov	 eax, DWORD PTR [eax+8]

; 1637 :             } else {

  000b8	eb 04		 jmp	 SHORT $LN45@SendNowSta
$LN44@SendNowSta:

; 1638 :                 _Result._Location._Child = _Tree_child::_Left;
; 1639 :                 _Result._Bound           = _Trynode;

  000ba	8b c8		 mov	 ecx, eax

; 1640 :                 _Trynode                 = _Trynode->_Left;

  000bc	8b 00		 mov	 eax, DWORD PTR [eax]
$LN45@SendNowSta:

; 1631 :         _Nodeptr _Trynode = _Result._Location._Parent;
; 1632 :         while (!_Trynode->_Isnil) {

  000be	80 78 0d 00	 cmp	 BYTE PTR [eax+13], 0
  000c2	74 ec		 je	 SHORT $LL42@SendNowSta
$LN43@SendNowSta:

; 1624 :         return !_Bound->_Isnil && !_DEBUG_LT_PRED(_Getcomp(), _Keyval, _Traits::_Kfn(_Bound->_Myval));

  000c4	80 79 0d 00	 cmp	 BYTE PTR [ecx+13], 0
  000c8	75 05		 jne	 SHORT $LN39@SendNowSta
; File C:\Program Files\Microsoft Visual Studio\2022\Professional\VC\Tools\MSVC\14.44.35207\include\type_traits

; 2380 :         return _Left < _Right;

  000ca	3b 51 10	 cmp	 edx, DWORD PTR [ecx+16]
; File C:\Program Files\Microsoft Visual Studio\2022\Professional\VC\Tools\MSVC\14.44.35207\include\xtree

; 1624 :         return !_Bound->_Isnil && !_DEBUG_LT_PRED(_Getcomp(), _Keyval, _Traits::_Kfn(_Bound->_Myval));

  000cd	73 02		 jae	 SHORT $LN38@SendNowSta
$LN39@SendNowSta:

; 1389 :         return _Get_scary()->_Myhead;

  000cf	8b ce		 mov	 ecx, esi
$LN38@SendNowSta:

; 37   :     _Tree_unchecked_const_iterator(_Nodeptr _Pnode, const _Mytree* _Plist) noexcept : _Ptr(_Pnode) {

  000d1	3b ce		 cmp	 ecx, esi
; File C:\IAGOS\server\v18\Source\Source\_Common\Project.h

; 1436 : 	if( i != m_idPlayerToUserPtr.end() )

  000d3	74 40		 je	 SHORT $LN8@SendNowSta

; 1437 : 		return i->second;

  000d5	8b 59 14	 mov	 ebx, DWORD PTR [ecx+20]
; File C:\IAGOS\server\v18\Source\Source\_Common\Obj.h

; 327  : 	return pObj && ( pObj->IsDelete() == FALSE ); 

  000d8	85 db		 test	 ebx, ebx
  000da	74 36		 je	 SHORT $LN197@SendNowSta

; 180  : 	BOOL			IsDelete()	{ return (m_dwFlags & OBJ_FLAG_DELETE);  }

  000dc	f6 43 04 01	 test	 BYTE PTR [ebx+4], 1

; 327  : 	return pObj && ( pObj->IsDelete() == FALSE ); 

  000e0	75 30		 jne	 SHORT $LN197@SendNowSta
; File C:\IAGOS\server\v18\Source\Source\_Common\SecretRoom.cpp

; 314  : 						if( nState )

  000e2	8b 45 0c	 mov	 eax, DWORD PTR _nState$[ebp]
  000e5	85 c0		 test	 eax, eax
  000e7	74 09		 je	 SHORT $LN15@SendNowSta

; 315  : 							SendNowState( pUserTemp, nState, dwRemainTime );

  000e9	ff 75 10	 push	 DWORD PTR _dwRemainTime$[ebp]
  000ec	8b 4d f8	 mov	 ecx, DWORD PTR _this$1$[ebp]
  000ef	50		 push	 eax
  000f0	eb 14		 jmp	 SHORT $LN218@SendNowSta
$LN15@SendNowSta:

; 316  : 						else
; 317  : 							SendNowState( pUserTemp, m_nState, m_dwRemainTime - GetTickCount() );

  000f2	8b 75 f8	 mov	 esi, DWORD PTR _this$1$[ebp]
  000f5	8b 7e 38	 mov	 edi, DWORD PTR [esi+56]
  000f8	ff 15 00 00 00
	00		 call	 DWORD PTR __imp__GetTickCount@0
  000fe	2b f8		 sub	 edi, eax
  00100	8b ce		 mov	 ecx, esi
  00102	57		 push	 edi
  00103	ff 76 34	 push	 DWORD PTR [esi+52]
$LN218@SendNowSta:

; 306  : 				for( DWORD j=0; j<pSRCont->m_vecSecretRoomTender[i].vecLineUpMember.size(); j++ )

  00106	53		 push	 ebx
  00107	e8 00 00 00 00	 call	 ?SendNowState@CSecretRoomMng@@QAEXPAVCUser@@HK@Z ; CSecretRoomMng::SendNowState
  0010c	8b 35 28 00 00
	00		 mov	 esi, DWORD PTR ?prj@@3VCProject@@A+40
$LN197@SendNowSta:
  00112	8b 5d fc	 mov	 ebx, DWORD PTR tv1067[ebp]
$LN8@SendNowSta:
; File C:\Program Files\Microsoft Visual Studio\2022\Professional\VC\Tools\MSVC\14.44.35207\include\vector

; 1914 :         auto& _My_data = _Mypair._Myval2;

  00115	8b 45 e8	 mov	 eax, DWORD PTR _pSRCont$1$[ebp]
; File C:\IAGOS\server\v18\Source\Source\_Common\SecretRoom.cpp

; 306  : 				for( DWORD j=0; j<pSRCont->m_vecSecretRoomTender[i].vecLineUpMember.size(); j++ )

  00118	ff 45 f0	 inc	 DWORD PTR _j$1$[ebp]
  0011b	8b 4d f0	 mov	 ecx, DWORD PTR _j$1$[ebp]
; File C:\Program Files\Microsoft Visual Studio\2022\Professional\VC\Tools\MSVC\14.44.35207\include\vector

; 1914 :         auto& _My_data = _Mypair._Myval2;

  0011e	8b 50 10	 mov	 edx, DWORD PTR [eax+16]

; 1915 :         return static_cast<size_type>(_My_data._Mylast - _My_data._Myfirst);

  00121	8b fa		 mov	 edi, edx
  00123	8b 44 1a 18	 mov	 eax, DWORD PTR [edx+ebx+24]
  00127	2b 44 1a 14	 sub	 eax, DWORD PTR [edx+ebx+20]
  0012b	c1 f8 02	 sar	 eax, 2
; File C:\IAGOS\server\v18\Source\Source\_Common\SecretRoom.cpp

; 306  : 				for( DWORD j=0; j<pSRCont->m_vecSecretRoomTender[i].vecLineUpMember.size(); j++ )

  0012e	3b c8		 cmp	 ecx, eax
  00130	0f 82 5a ff ff
	ff		 jb	 $LL10@SendNowSta
$LN5@SendNowSta:
; File C:\Program Files\Microsoft Visual Studio\2022\Professional\VC\Tools\MSVC\14.44.35207\include\vector

; 1915 :         return static_cast<size_type>(_My_data._Mylast - _My_data._Myfirst);

  00136	8b 45 e8	 mov	 eax, DWORD PTR _pSRCont$1$[ebp]
  00139	8b fa		 mov	 edi, edx
; File C:\IAGOS\server\v18\Source\Source\_Common\SecretRoom.cpp

; 304  : 			for( DWORD i=0; i<pSRCont->m_vecSecretRoomTender.size(); i++ )

  0013b	ff 45 ec	 inc	 DWORD PTR _i$1$[ebp]
  0013e	83 c3 2c	 add	 ebx, 44			; 0000002cH
  00141	89 5d fc	 mov	 DWORD PTR tv1067[ebp], ebx
; File C:\Program Files\Microsoft Visual Studio\2022\Professional\VC\Tools\MSVC\14.44.35207\include\vector

; 1915 :         return static_cast<size_type>(_My_data._Mylast - _My_data._Myfirst);

  00144	8b 48 14	 mov	 ecx, DWORD PTR [eax+20]
  00147	b8 e9 a2 8b 2e	 mov	 eax, 780903145		; 2e8ba2e9H
  0014c	2b ca		 sub	 ecx, edx
  0014e	f7 e9		 imul	 ecx
  00150	c1 fa 03	 sar	 edx, 3
  00153	8b c2		 mov	 eax, edx
  00155	c1 e8 1f	 shr	 eax, 31			; 0000001fH
  00158	03 c2		 add	 eax, edx
; File C:\IAGOS\server\v18\Source\Source\_Common\SecretRoom.cpp

; 304  : 			for( DWORD i=0; i<pSRCont->m_vecSecretRoomTender.size(); i++ )

  0015a	39 45 ec	 cmp	 DWORD PTR _i$1$[ebp], eax
  0015d	0f 82 0d ff ff
	ff		 jb	 $LL7@SendNowSta
  00163	8b 75 f4	 mov	 esi, DWORD PTR _it$1$[ebp]
$LN198@SendNowSta:
; File C:\Program Files\Microsoft Visual Studio\2022\Professional\VC\Tools\MSVC\14.44.35207\include\xtree

; 50   :         if (_Ptr->_Right->_Isnil) { // climb looking for right subtree

  00166	8b 55 f8	 mov	 edx, DWORD PTR _this$1$[ebp]
$LN2@SendNowSta:
  00169	8b 46 08	 mov	 eax, DWORD PTR [esi+8]
  0016c	80 78 0d 00	 cmp	 BYTE PTR [eax+13], 0
  00170	74 25		 je	 SHORT $LN129@SendNowSta

; 51   :             _Nodeptr _Pnode;
; 52   :             while (!(_Pnode = _Ptr->_Parent)->_Isnil && _Ptr == _Pnode->_Right) {

  00172	8b 46 04	 mov	 eax, DWORD PTR [esi+4]
  00175	80 78 0d 00	 cmp	 BYTE PTR [eax+13], 0
  00179	75 15		 jne	 SHORT $LN195@SendNowSta
  0017b	0f 1f 44 00 00	 npad	 5
$LL127@SendNowSta:
  00180	3b 70 08	 cmp	 esi, DWORD PTR [eax+8]
  00183	75 0b		 jne	 SHORT $LN195@SendNowSta

; 53   :                 _Ptr = _Pnode; // ==> parent while right subtree

  00185	8b f0		 mov	 esi, eax
  00187	8b 40 04	 mov	 eax, DWORD PTR [eax+4]
  0018a	80 78 0d 00	 cmp	 BYTE PTR [eax+13], 0
  0018e	74 f0		 je	 SHORT $LL127@SendNowSta
$LN195@SendNowSta:

; 54   :             }
; 55   : 
; 56   :             _Ptr = _Pnode; // ==> parent (head if end())

  00190	8b f0		 mov	 esi, eax
  00192	89 75 f4	 mov	 DWORD PTR _it$1$[ebp], esi

; 57   :         } else {

  00195	eb 1c		 jmp	 SHORT $LN135@SendNowSta
$LN129@SendNowSta:

; 58   :             _Ptr = _Mytree::_Min(_Ptr->_Right); // ==> smallest of right subtree

  00197	8b f0		 mov	 esi, eax
  00199	89 75 f4	 mov	 DWORD PTR _it$1$[ebp], esi

; 476  :         while (!_Pnode->_Left->_Isnil) {

  0019c	8b 0e		 mov	 ecx, DWORD PTR [esi]
  0019e	80 79 0d 00	 cmp	 BYTE PTR [ecx+13], 0
  001a2	75 0f		 jne	 SHORT $LN135@SendNowSta
$LL134@SendNowSta:
  001a4	8b 01		 mov	 eax, DWORD PTR [ecx]

; 477  :             _Pnode = _Pnode->_Left;

  001a6	8b f1		 mov	 esi, ecx
  001a8	89 75 f4	 mov	 DWORD PTR _it$1$[ebp], esi
  001ab	8b c8		 mov	 ecx, eax
  001ad	80 78 0d 00	 cmp	 BYTE PTR [eax+13], 0
  001b1	74 f1		 je	 SHORT $LL134@SendNowSta
$LN135@SendNowSta:

; 237  :         return !(*this == _Right);

  001b3	3b 72 04	 cmp	 esi, DWORD PTR [edx+4]
; File C:\IAGOS\server\v18\Source\Source\_Common\SecretRoom.cpp

; 296  : 	for( ; it!=m_mapSecretRoomContinent.end(); it++ )

  001b6	0f 85 64 fe ff
	ff		 jne	 $LL4@SendNowSta
  001bc	5f		 pop	 edi
  001bd	5b		 pop	 ebx
$LN3@SendNowSta:
  001be	5e		 pop	 esi

; 318  : 					}
; 319  : 				}
; 320  : 			}
; 321  : 		}
; 322  : 	}	
; 323  : }

  001bf	8b e5		 mov	 esp, ebp
  001c1	5d		 pop	 ebp
  001c2	c2 0c 00	 ret	 12			; 0000000cH
?SendNowStateAllMember@CSecretRoomMng@@QAEXEHK@Z ENDP	; CSecretRoomMng::SendNowStateAllMember
_TEXT	ENDS
; Function compile flags: /Ogtp
; File C:\IAGOS\server\v18\Source\Source\_Common\SecretRoom.cpp
;	COMDAT ?SendNowState@CSecretRoomMng@@QAEXPAVCUser@@HK@Z
_TEXT	SEGMENT
_pUser$ = 8						; size = 4
_nState$ = 12						; size = 4
_dwRemainTime$ = 16					; size = 4
?SendNowState@CSecretRoomMng@@QAEXPAVCUser@@HK@Z PROC	; CSecretRoomMng::SendNowState, COMDAT
; _this$ = ecx

; 288  : {

  00000	55		 push	 ebp
  00001	8b ec		 mov	 ebp, esp

; 289  : 	pUser->AddSecretRoomMngState( nState, dwRemainTime );

  00003	ff 75 10	 push	 DWORD PTR _dwRemainTime$[ebp]
  00006	8b 4d 08	 mov	 ecx, DWORD PTR _pUser$[ebp]
  00009	ff 75 0c	 push	 DWORD PTR _nState$[ebp]
  0000c	e8 00 00 00 00	 call	 ?AddSecretRoomMngState@CUser@@QAEXHK@Z ; CUser::AddSecretRoomMngState

; 290  : }

  00011	5d		 pop	 ebp
  00012	c2 0c 00	 ret	 12			; 0000000cH
?SendNowState@CSecretRoomMng@@QAEXPAVCUser@@HK@Z ENDP	; CSecretRoomMng::SendNowState
_TEXT	ENDS
; Function compile flags: /Ogtp
; File C:\IAGOS\server\v18\Source\Source\_Common\SecretRoom.cpp
; File C:\IAGOS\server\v18\Source\Source\_Common\LuaBase.h
; File C:\IAGOS\server\v18\Source\Source\_Common\SecretRoom.cpp
;	COMDAT ?CheckOpenTime@CSecretRoomMng@@QAEHXZ
_TEXT	SEGMENT
?CheckOpenTime@CSecretRoomMng@@QAEHXZ PROC		; CSecretRoomMng::CheckOpenTime, COMDAT
; _this$ = ecx

; 365  : {

  00000	53		 push	 ebx
  00001	56		 push	 esi
  00002	8b d9		 mov	 ebx, ecx
  00004	57		 push	 edi

; 366  : 	BOOL bOpen = FALSE;
; 367  : 	if( m_Lua.GetLuaFunction( "CheckOpenTime" ) )

  00005	68 00 00 00 00	 push	 OFFSET ??_C@_0O@ICJPAPLK@CheckOpenTime@
  0000a	33 ff		 xor	 edi, edi
  0000c	8d 4b 44	 lea	 ecx, DWORD PTR [ebx+68]
  0000f	e8 00 00 00 00	 call	 ?GetLuaFunction@CLuaBase@@QAEHPAD@Z ; CLuaBase::GetLuaFunction
  00014	85 c0		 test	 eax, eax
  00016	74 1a		 je	 SHORT $LN2@CheckOpenT

; 368  : 	{
; 369  : 		m_Lua.CallLuaFunction( 0, 1 );

  00018	6a 01		 push	 1
  0001a	57		 push	 edi
  0001b	8d 4b 44	 lea	 ecx, DWORD PTR [ebx+68]
  0001e	e8 00 00 00 00	 call	 ?CallLuaFunction@CLuaBase@@QAEXHH@Z ; CLuaBase::CallLuaFunction
; File C:\IAGOS\server\v18\Source\Source\_Common\LuaBase.h

; 45   : 	BOOL		ToBool( int nStackPos )						{  return static_cast<BOOL>( lua_toboolean( m_pLuaState, nStackPos ) );  }

  00023	6a ff		 push	 -1
  00025	ff 73 48	 push	 DWORD PTR [ebx+72]
  00028	e8 00 00 00 00	 call	 _lua_toboolean
  0002d	83 c4 08	 add	 esp, 8
; File C:\IAGOS\server\v18\Source\Source\_Common\SecretRoom.cpp

; 370  : 		bOpen = static_cast<BOOL>( m_Lua.ToBool( -1 ) );

  00030	8b f8		 mov	 edi, eax
$LN2@CheckOpenT:

; 371  : 	}
; 372  : 	m_Lua.Pop(0);

  00032	6a 00		 push	 0
  00034	8d 4b 44	 lea	 ecx, DWORD PTR [ebx+68]
  00037	e8 00 00 00 00	 call	 ?Pop@CLuaBase@@QAEXH@Z	; CLuaBase::Pop

; 373  : 
; 374  : 	return bOpen;

  0003c	8b c7		 mov	 eax, edi
  0003e	5f		 pop	 edi
  0003f	5e		 pop	 esi
  00040	5b		 pop	 ebx

; 375  : }

  00041	c3		 ret	 0
?CheckOpenTime@CSecretRoomMng@@QAEHXZ ENDP		; CSecretRoomMng::CheckOpenTime
_TEXT	ENDS
; Function compile flags: /Ogtp
; File C:\IAGOS\server\v18\Source\Source\_Common\SecretRoom.cpp
; File C:\Program Files\Microsoft Visual Studio\2022\Professional\VC\Tools\MSVC\14.44.35207\include\xtree
; File C:\IAGOS\server\v18\Source\Source\_Common\SecretRoom.cpp
; File C:\Program Files\Microsoft Visual Studio\2022\Professional\VC\Tools\MSVC\14.44.35207\include\vector
; File C:\IAGOS\server\v18\Source\Source\_Common\SecretRoom.cpp
; File C:\Program Files\Microsoft Visual Studio\2022\Professional\VC\Tools\MSVC\14.44.35207\include\vector
; File C:\IAGOS\server\v18\Source\Source\_Common\SecretRoom.cpp
; File C:\Program Files\Microsoft Visual Studio\2022\Professional\VC\Tools\MSVC\14.44.35207\include\vector
; File C:\IAGOS\server\v18\Source\Source\_Common\SecretRoom.cpp
; File C:\Program Files\Microsoft Visual Studio\2022\Professional\VC\Tools\MSVC\14.44.35207\include\xtree
; File C:\IAGOS\server\v18\Source\Source\_Common\SecretRoom.cpp
; File C:\Program Files\Microsoft Visual Studio\2022\Professional\VC\Tools\MSVC\14.44.35207\include\xtree
; File C:\Program Files\Microsoft Visual Studio\2022\Professional\VC\Tools\MSVC\14.44.35207\include\type_traits
; File C:\Program Files\Microsoft Visual Studio\2022\Professional\VC\Tools\MSVC\14.44.35207\include\xtree
; File C:\Program Files\Microsoft Visual Studio\2022\Professional\VC\Tools\MSVC\14.44.35207\include\type_traits
; File C:\Program Files\Microsoft Visual Studio\2022\Professional\VC\Tools\MSVC\14.44.35207\include\xtree
; File C:\IAGOS\server\v18\Source\Source\_Common\Project.h
; File C:\IAGOS\server\v18\Source\Source\_Common\Obj.h
; File C:\IAGOS\server\v18\Source\Source\_Common\SecretRoom.cpp
; File C:\Program Files\Microsoft Visual Studio\2022\Professional\VC\Tools\MSVC\14.44.35207\include\vector
; File C:\IAGOS\server\v18\Source\Source\_Common\SecretRoom.cpp
; File C:\Program Files\Microsoft Visual Studio\2022\Professional\VC\Tools\MSVC\14.44.35207\include\vector
; File C:\IAGOS\server\v18\Source\Source\_Common\SecretRoom.cpp
; File C:\Program Files\Microsoft Visual Studio\2022\Professional\VC\Tools\MSVC\14.44.35207\include\xtree
; File C:\IAGOS\server\v18\Source\Source\_Common\SecretRoom.cpp
; File C:\Program Files\Microsoft Visual Studio\2022\Professional\VC\Tools\MSVC\14.44.35207\include\xtree
; File C:\IAGOS\server\v18\Source\Source\_Common\SecretRoom.cpp
; File C:\Program Files\Microsoft Visual Studio\2022\Professional\VC\Tools\MSVC\14.44.35207\include\xtree
; File C:\IAGOS\server\v18\Source\Source\_Common\SecretRoom.cpp
; File C:\Program Files\Microsoft Visual Studio\2022\Professional\VC\Tools\MSVC\14.44.35207\include\xtree
; File C:\IAGOS\server\v18\Source\Source\_Common\SecretRoom.cpp
; File C:\Program Files\Microsoft Visual Studio\2022\Professional\VC\Tools\MSVC\14.44.35207\include\xtree
; File C:\IAGOS\server\v18\Source\Source\_Common\SecretRoom.cpp
; File C:\Program Files\Microsoft Visual Studio\2022\Professional\VC\Tools\MSVC\14.44.35207\include\xtree
; File C:\IAGOS\server\v18\Source\Source\_Common\SecretRoom.cpp
; File C:\Program Files\Microsoft Visual Studio\2022\Professional\VC\Tools\MSVC\14.44.35207\include\xtree
; File C:\IAGOS\server\v18\Source\Source\_Common\SecretRoom.cpp
; File C:\IAGOS\server\v18\Source\Source\_Common\Project.h
; File C:\IAGOS\server\v18\Source\Source\_Common\data.h
; File C:\IAGOS\server\v18\Source\Source\_Common\Project.h
; File C:\IAGOS\server\v18\Source\Source\_Common\SecretRoom.cpp
;	COMDAT ?Process@CSecretRoomMng@@QAEXXZ
_TEXT	SEGMENT
tv1342 = -20						; size = 8
tv1350 = -20						; size = 8
tv1371 = -20						; size = 8
$T2 = -16						; size = 4
$T3 = -16						; size = 4
$T4 = -16						; size = 4
_pSRCont$1$ = -16					; size = 4
_it$5 = -12						; size = 4
_it$6 = -12						; size = 4
_it$7 = -12						; size = 4
tv1290 = -8						; size = 4
_i$1$ = -4						; size = 4
?Process@CSecretRoomMng@@QAEXXZ PROC			; CSecretRoomMng::Process, COMDAT
; _this$ = ecx

; 127  : {

  00000	55		 push	 ebp
  00001	8b ec		 mov	 ebp, esp
  00003	83 ec 14	 sub	 esp, 20			; 00000014H
  00006	53		 push	 ebx
  00007	57		 push	 edi
  00008	8b d9		 mov	 ebx, ecx

; 128  : 	DWORD dwTick = GetTickCount();

  0000a	ff 15 00 00 00
	00		 call	 DWORD PTR __imp__GetTickCount@0

; 129  : 	
; 130  : 	switch( m_nState )		// ÇöŔç StateżˇĽ­ ´ŮŔ˝ State·Î łŃľî°Ą¶§ Ăł¸®, m_nState´Â ÇöŔç State

  00010	8b 53 34	 mov	 edx, DWORD PTR [ebx+52]
  00013	8b f8		 mov	 edi, eax
  00015	4a		 dec	 edx
  00016	83 fa 05	 cmp	 edx, 5
  00019	0f 87 07 03 00
	00		 ja	 $LN32@Process
  0001f	56		 push	 esi
  00020	ff 24 95 00 00
	00 00		 jmp	 DWORD PTR $LN288@Process[edx*4]
$LN16@Process:

; 131  : 	{
; 132  : 		case SRMNG_CLOSE:
; 133  : 			{
; 134  : 				if( CheckOpenTime() )

  00027	8b cb		 mov	 ecx, ebx
  00029	e8 00 00 00 00	 call	 ?CheckOpenTime@CSecretRoomMng@@QAEHXZ ; CSecretRoomMng::CheckOpenTime
  0002e	85 c0		 test	 eax, eax
  00030	0f 84 ef 02 00
	00		 je	 $LN315@Process

; 135  : 					SecretRoomOpen();

  00036	8b cb		 mov	 ecx, ebx
  00038	e8 00 00 00 00	 call	 ?SecretRoomOpen@CSecretRoomMng@@QAEXXZ ; CSecretRoomMng::SecretRoomOpen
  0003d	5e		 pop	 esi
  0003e	5f		 pop	 edi

; 246  : 				}
; 247  : 			}
; 248  : 			break;		
; 249  : 	}
; 250  : }

  0003f	5b		 pop	 ebx
  00040	8b e5		 mov	 esp, ebp
  00042	5d		 pop	 ebp
  00043	c3		 ret	 0
$LN18@Process:

; 136  : 			}
; 137  : 			break;
; 138  : 	
; 139  : 		case SRMNG_OPEN :
; 140  : 			{
; 141  : 				m_nState = SRMNG_LINEUP;
; 142  : 				m_dwRemainTime = dwTick + (DWORD)m_Lua.GetGlobalNumber( "LineUpTime" );

  00044	68 00 00 00 00	 push	 OFFSET ??_C@_0L@MAIFMDKK@LineUpTime@
  00049	8d 4b 44	 lea	 ecx, DWORD PTR [ebx+68]
  0004c	c7 43 34 03 00
	00 00		 mov	 DWORD PTR [ebx+52], 3
  00053	e8 00 00 00 00	 call	 ?GetGlobalNumber@CLuaBase@@QAENPAD@Z ; CLuaBase::GetGlobalNumber
  00058	dd 5d ec	 fstp	 QWORD PTR tv1371[ebp]
  0005b	f2 0f 10 45 ec	 movsd	 xmm0, QWORD PTR tv1371[ebp]
  00060	e8 00 00 00 00	 call	 __dtol3
  00065	03 c7		 add	 eax, edi
  00067	89 43 38	 mov	 DWORD PTR [ebx+56], eax
; File C:\Program Files\Microsoft Visual Studio\2022\Professional\VC\Tools\MSVC\14.44.35207\include\xtree

; 1142 :         return iterator(_Scary->_Myhead->_Left, _Scary);

  0006a	8b 4b 04	 mov	 ecx, DWORD PTR [ebx+4]

; 37   :     _Tree_unchecked_const_iterator(_Nodeptr _Pnode, const _Mytree* _Plist) noexcept : _Ptr(_Pnode) {

  0006d	8b 01		 mov	 eax, DWORD PTR [ecx]
  0006f	89 45 f4	 mov	 DWORD PTR _it$5[ebp], eax

; 237  :         return !(*this == _Right);

  00072	3b c1		 cmp	 eax, ecx
; File C:\IAGOS\server\v18\Source\Source\_Common\SecretRoom.cpp

; 145  : 				for( ; it!=m_mapSecretRoomContinent.end(); it++ )

  00074	0f 84 ab 02 00
	00		 je	 $LN315@Process
  0007a	66 0f 1f 44 00
	00		 npad	 6
$LL6@Process:

; 146  : 				{
; 147  : 					CSecretRoomContinent* pSRCont = it->second;

  00080	8b 40 14	 mov	 eax, DWORD PTR [eax+20]
  00083	89 45 f0	 mov	 DWORD PTR _pSRCont$1$[ebp], eax

; 148  : 					if( pSRCont && pSRCont->m_nState == SRCONT_OPEN )

  00086	85 c0		 test	 eax, eax
  00088	0f 84 d0 00 00
	00		 je	 $LN4@Process
  0008e	83 78 04 66	 cmp	 DWORD PTR [eax+4], 102	; 00000066H
  00092	0f 85 c6 00 00
	00		 jne	 $LN4@Process
; File C:\Program Files\Microsoft Visual Studio\2022\Professional\VC\Tools\MSVC\14.44.35207\include\vector

; 1915 :         return static_cast<size_type>(_My_data._Mylast - _My_data._Myfirst);

  00098	8b 70 10	 mov	 esi, DWORD PTR [eax+16]
; File C:\IAGOS\server\v18\Source\Source\_Common\SecretRoom.cpp

; 150  : 						for( DWORD i=0; i<pSRCont->m_vecSecretRoomTender.size(); i++ )

  0009b	33 c9		 xor	 ecx, ecx
  0009d	89 4d fc	 mov	 DWORD PTR _i$1$[ebp], ecx
; File C:\Program Files\Microsoft Visual Studio\2022\Professional\VC\Tools\MSVC\14.44.35207\include\vector

; 1915 :         return static_cast<size_type>(_My_data._Mylast - _My_data._Myfirst);

  000a0	8b 48 14	 mov	 ecx, DWORD PTR [eax+20]
  000a3	b8 e9 a2 8b 2e	 mov	 eax, 780903145		; 2e8ba2e9H
  000a8	2b ce		 sub	 ecx, esi
  000aa	f7 e9		 imul	 ecx
  000ac	c1 fa 03	 sar	 edx, 3
  000af	8b c2		 mov	 eax, edx
  000b1	c1 e8 1f	 shr	 eax, 31			; 0000001fH
  000b4	03 c2		 add	 eax, edx
; File C:\IAGOS\server\v18\Source\Source\_Common\SecretRoom.cpp

; 150  : 						for( DWORD i=0; i<pSRCont->m_vecSecretRoomTender.size(); i++ )

  000b6	0f 84 a2 00 00
	00		 je	 $LN4@Process
; File C:\Program Files\Microsoft Visual Studio\2022\Professional\VC\Tools\MSVC\14.44.35207\include\vector

; 1914 :         auto& _My_data = _Mypair._Myval2;

  000bc	33 c0		 xor	 eax, eax
  000be	89 45 f8	 mov	 DWORD PTR tv1290[ebp], eax
$LL9@Process:
; File C:\IAGOS\server\v18\Source\Source\_Common\SecretRoom.cpp

; 152  : 							CGuild* pGuild  = g_GuildMng.GetGuild( pSRCont->m_vecSecretRoomTender[i].dwGuildId );

  000c1	ff 34 06	 push	 DWORD PTR [esi+eax]
  000c4	b9 00 00 00 00	 mov	 ecx, OFFSET ?g_GuildMng@@3VCGuildMng@@A ; g_GuildMng
  000c9	e8 00 00 00 00	 call	 ?GetGuild@CGuildMng@@QAEPAVCGuild@@K@Z ; CGuildMng::GetGuild

; 153  : 							if( pGuild )

  000ce	85 c0		 test	 eax, eax
  000d0	74 5d		 je	 SHORT $LN7@Process
; File C:\Program Files\Microsoft Visual Studio\2022\Professional\VC\Tools\MSVC\14.44.35207\include\xtree

; 1630 :         _Tree_find_result<_Nodeptr> _Result{{_Scary->_Myhead->_Parent, _Tree_child::_Right}, _Scary->_Myhead};

  000d2	8b 35 28 00 00
	00		 mov	 esi, DWORD PTR ?prj@@3VCProject@@A+40
  000d8	8b ce		 mov	 ecx, esi
; File C:\IAGOS\server\v18\Source\Source\_Common\SecretRoom.cpp

; 173  : 								CUser* pUserTemp = (CUser*)prj.GetUserByID( pGuild->m_idMaster );

  000da	8b 50 40	 mov	 edx, DWORD PTR [eax+64]
; File C:\Program Files\Microsoft Visual Studio\2022\Professional\VC\Tools\MSVC\14.44.35207\include\xtree

; 1630 :         _Tree_find_result<_Nodeptr> _Result{{_Scary->_Myhead->_Parent, _Tree_child::_Right}, _Scary->_Myhead};

  000dd	8b 46 04	 mov	 eax, DWORD PTR [esi+4]

; 1631 :         _Nodeptr _Trynode = _Result._Location._Parent;
; 1632 :         while (!_Trynode->_Isnil) {

  000e0	80 78 0d 00	 cmp	 BYTE PTR [eax+13], 0
  000e4	75 14		 jne	 SHORT $LN113@Process
$LL112@Process:
; File C:\Program Files\Microsoft Visual Studio\2022\Professional\VC\Tools\MSVC\14.44.35207\include\type_traits

; 2380 :         return _Left < _Right;

  000e6	39 50 10	 cmp	 DWORD PTR [eax+16], edx
; File C:\Program Files\Microsoft Visual Studio\2022\Professional\VC\Tools\MSVC\14.44.35207\include\xtree

; 1634 :             if (_DEBUG_LT_PRED(_Getcomp(), _Traits::_Kfn(_Trynode->_Myval), _Keyval)) {

  000e9	73 05		 jae	 SHORT $LN114@Process

; 1635 :                 _Result._Location._Child = _Tree_child::_Right;
; 1636 :                 _Trynode                 = _Trynode->_Right;

  000eb	8b 40 08	 mov	 eax, DWORD PTR [eax+8]

; 1637 :             } else {

  000ee	eb 04		 jmp	 SHORT $LN115@Process
$LN114@Process:

; 1638 :                 _Result._Location._Child = _Tree_child::_Left;
; 1639 :                 _Result._Bound           = _Trynode;

  000f0	8b c8		 mov	 ecx, eax

; 1640 :                 _Trynode                 = _Trynode->_Left;

  000f2	8b 00		 mov	 eax, DWORD PTR [eax]
$LN115@Process:

; 1631 :         _Nodeptr _Trynode = _Result._Location._Parent;
; 1632 :         while (!_Trynode->_Isnil) {

  000f4	80 78 0d 00	 cmp	 BYTE PTR [eax+13], 0
  000f8	74 ec		 je	 SHORT $LL112@Process
$LN113@Process:

; 1624 :         return !_Bound->_Isnil && !_DEBUG_LT_PRED(_Getcomp(), _Keyval, _Traits::_Kfn(_Bound->_Myval));

  000fa	80 79 0d 00	 cmp	 BYTE PTR [ecx+13], 0
  000fe	75 05		 jne	 SHORT $LN109@Process
; File C:\Program Files\Microsoft Visual Studio\2022\Professional\VC\Tools\MSVC\14.44.35207\include\type_traits

; 2380 :         return _Left < _Right;

  00100	3b 51 10	 cmp	 edx, DWORD PTR [ecx+16]
; File C:\Program Files\Microsoft Visual Studio\2022\Professional\VC\Tools\MSVC\14.44.35207\include\xtree

; 1624 :         return !_Bound->_Isnil && !_DEBUG_LT_PRED(_Getcomp(), _Keyval, _Traits::_Kfn(_Bound->_Myval));

  00103	73 02		 jae	 SHORT $LN108@Process
$LN109@Process:

; 1389 :         return _Get_scary()->_Myhead;

  00105	8b ce		 mov	 ecx, esi
$LN108@Process:

; 37   :     _Tree_unchecked_const_iterator(_Nodeptr _Pnode, const _Mytree* _Plist) noexcept : _Ptr(_Pnode) {

  00107	3b ce		 cmp	 ecx, esi
; File C:\IAGOS\server\v18\Source\Source\_Common\Project.h

; 1436 : 	if( i != m_idPlayerToUserPtr.end() )

  00109	74 24		 je	 SHORT $LN7@Process

; 1437 : 		return i->second;

  0010b	8b 79 14	 mov	 edi, DWORD PTR [ecx+20]
; File C:\IAGOS\server\v18\Source\Source\_Common\Obj.h

; 327  : 	return pObj && ( pObj->IsDelete() == FALSE ); 

  0010e	85 ff		 test	 edi, edi
  00110	74 1d		 je	 SHORT $LN7@Process

; 180  : 	BOOL			IsDelete()	{ return (m_dwFlags & OBJ_FLAG_DELETE);  }

  00112	f6 47 04 01	 test	 BYTE PTR [edi+4], 1

; 327  : 	return pObj && ( pObj->IsDelete() == FALSE ); 

  00116	75 17		 jne	 SHORT $LN7@Process
; File C:\IAGOS\server\v18\Source\Source\_Common\SecretRoom.cpp

; 175  : 									SendNowState( pUserTemp, m_nState, m_dwRemainTime - GetTickCount() );

  00118	8b 73 38	 mov	 esi, DWORD PTR [ebx+56]
  0011b	ff 15 00 00 00
	00		 call	 DWORD PTR __imp__GetTickCount@0
  00121	2b f0		 sub	 esi, eax
  00123	8b cb		 mov	 ecx, ebx
  00125	56		 push	 esi
  00126	ff 73 34	 push	 DWORD PTR [ebx+52]
  00129	57		 push	 edi
  0012a	e8 00 00 00 00	 call	 ?SendNowState@CSecretRoomMng@@QAEXPAVCUser@@HK@Z ; CSecretRoomMng::SendNowState
$LN7@Process:
; File C:\Program Files\Microsoft Visual Studio\2022\Professional\VC\Tools\MSVC\14.44.35207\include\vector

; 1915 :         return static_cast<size_type>(_My_data._Mylast - _My_data._Myfirst);

  0012f	8b 45 f0	 mov	 eax, DWORD PTR _pSRCont$1$[ebp]
; File C:\IAGOS\server\v18\Source\Source\_Common\SecretRoom.cpp

; 150  : 						for( DWORD i=0; i<pSRCont->m_vecSecretRoomTender.size(); i++ )

  00132	ff 45 fc	 inc	 DWORD PTR _i$1$[ebp]
  00135	83 45 f8 2c	 add	 DWORD PTR tv1290[ebp], 44 ; 0000002cH
; File C:\Program Files\Microsoft Visual Studio\2022\Professional\VC\Tools\MSVC\14.44.35207\include\vector

; 1915 :         return static_cast<size_type>(_My_data._Mylast - _My_data._Myfirst);

  00139	8b 48 14	 mov	 ecx, DWORD PTR [eax+20]
  0013c	8b 70 10	 mov	 esi, DWORD PTR [eax+16]
  0013f	2b ce		 sub	 ecx, esi
  00141	b8 e9 a2 8b 2e	 mov	 eax, 780903145		; 2e8ba2e9H
  00146	f7 e9		 imul	 ecx
  00148	c1 fa 03	 sar	 edx, 3
  0014b	8b c2		 mov	 eax, edx
  0014d	c1 e8 1f	 shr	 eax, 31			; 0000001fH
  00150	03 c2		 add	 eax, edx
; File C:\IAGOS\server\v18\Source\Source\_Common\SecretRoom.cpp

; 150  : 						for( DWORD i=0; i<pSRCont->m_vecSecretRoomTender.size(); i++ )

  00152	39 45 fc	 cmp	 DWORD PTR _i$1$[ebp], eax
  00155	8b 45 f8	 mov	 eax, DWORD PTR tv1290[ebp]
  00158	0f 82 63 ff ff
	ff		 jb	 $LL9@Process
$LN4@Process:

; 145  : 				for( ; it!=m_mapSecretRoomContinent.end(); it++ )

  0015e	6a 00		 push	 0
  00160	8d 45 f0	 lea	 eax, DWORD PTR $T2[ebp]
  00163	50		 push	 eax
  00164	8d 4d f4	 lea	 ecx, DWORD PTR _it$5[ebp]
  00167	e8 00 00 00 00	 call	 ??E?$_Tree_iterator@V?$_Tree_val@U?$_Tree_simple_types@U?$pair@$$CBEPAVCSecretRoomContinent@@@std@@@std@@@std@@@std@@QAE?AV01@H@Z ; std::_Tree_iterator<std::_Tree_val<std::_Tree_simple_types<std::pair<unsigned char const ,CSecretRoomContinent *> > > >::operator++
; File C:\Program Files\Microsoft Visual Studio\2022\Professional\VC\Tools\MSVC\14.44.35207\include\xtree

; 237  :         return !(*this == _Right);

  0016c	8b 45 f4	 mov	 eax, DWORD PTR _it$5[ebp]
  0016f	3b 43 04	 cmp	 eax, DWORD PTR [ebx+4]
; File C:\IAGOS\server\v18\Source\Source\_Common\SecretRoom.cpp

; 145  : 				for( ; it!=m_mapSecretRoomContinent.end(); it++ )

  00172	0f 85 08 ff ff
	ff		 jne	 $LL6@Process

; 246  : 				}
; 247  : 			}
; 248  : 			break;		
; 249  : 	}
; 250  : }

  00178	5e		 pop	 esi
  00179	5f		 pop	 edi
  0017a	5b		 pop	 ebx
  0017b	8b e5		 mov	 esp, ebp
  0017d	5d		 pop	 ebp
  0017e	c3		 ret	 0
$LN22@Process:

; 176  : 							}
; 177  : 						}
; 178  : 					}
; 179  : 				}
; 180  : 			}
; 181  : 			break;
; 182  : 		
; 183  : 		case SRMNG_LINEUP :
; 184  : 			{
; 185  : 				if( m_dwRemainTime < dwTick )

  0017f	39 7b 38	 cmp	 DWORD PTR [ebx+56], edi
  00182	0f 83 9d 01 00
	00		 jae	 $LN315@Process

; 186  : 				{
; 187  : 					m_nState = SRMNG_ENTRANCE;
; 188  : 					m_dwRemainTime = dwTick + (DWORD)m_Lua.GetGlobalNumber( "EntranceTime" );

  00188	68 00 00 00 00	 push	 OFFSET ??_C@_0N@JCCLKJOL@EntranceTime@
  0018d	8d 4b 44	 lea	 ecx, DWORD PTR [ebx+68]
  00190	c7 43 34 04 00
	00 00		 mov	 DWORD PTR [ebx+52], 4
  00197	e8 00 00 00 00	 call	 ?GetGlobalNumber@CLuaBase@@QAENPAD@Z ; CLuaBase::GetGlobalNumber
  0019c	dd 5d ec	 fstp	 QWORD PTR tv1350[ebp]
  0019f	f2 0f 10 45 ec	 movsd	 xmm0, QWORD PTR tv1350[ebp]
  001a4	e8 00 00 00 00	 call	 __dtol3
  001a9	03 c7		 add	 eax, edi

; 191  : 					for( int nContCount=0; it!=m_mapSecretRoomContinent.end(); it++, nContCount++ )

  001ab	33 f6		 xor	 esi, esi
  001ad	89 43 38	 mov	 DWORD PTR [ebx+56], eax
; File C:\Program Files\Microsoft Visual Studio\2022\Professional\VC\Tools\MSVC\14.44.35207\include\xtree

; 1142 :         return iterator(_Scary->_Myhead->_Left, _Scary);

  001b0	8b 4b 04	 mov	 ecx, DWORD PTR [ebx+4]

; 37   :     _Tree_unchecked_const_iterator(_Nodeptr _Pnode, const _Mytree* _Plist) noexcept : _Ptr(_Pnode) {

  001b3	8b 01		 mov	 eax, DWORD PTR [ecx]
  001b5	89 45 f4	 mov	 DWORD PTR _it$6[ebp], eax

; 237  :         return !(*this == _Right);

  001b8	3b c1		 cmp	 eax, ecx
; File C:\IAGOS\server\v18\Source\Source\_Common\SecretRoom.cpp

; 191  : 					for( int nContCount=0; it!=m_mapSecretRoomContinent.end(); it++, nContCount++ )

  001ba	74 28		 je	 SHORT $LN11@Process
  001bc	0f 1f 40 00	 npad	 4
$LL12@Process:

; 192  : 					{
; 193  : 						if( it->second )

  001c0	8b 48 14	 mov	 ecx, DWORD PTR [eax+20]
  001c3	85 c9		 test	 ecx, ecx
  001c5	74 06		 je	 SHORT $LN10@Process

; 194  : 						{
; 195  : 							it->second->SetSecretRoomWorld( nContCount );

  001c7	56		 push	 esi
  001c8	e8 00 00 00 00	 call	 ?SetSecretRoomWorld@CSecretRoomContinent@@QAEXH@Z ; CSecretRoomContinent::SetSecretRoomWorld
$LN10@Process:

; 191  : 					for( int nContCount=0; it!=m_mapSecretRoomContinent.end(); it++, nContCount++ )

  001cd	6a 00		 push	 0
  001cf	8d 45 f0	 lea	 eax, DWORD PTR $T3[ebp]
  001d2	50		 push	 eax
  001d3	8d 4d f4	 lea	 ecx, DWORD PTR _it$6[ebp]
  001d6	e8 00 00 00 00	 call	 ??E?$_Tree_iterator@V?$_Tree_val@U?$_Tree_simple_types@U?$pair@$$CBEPAVCSecretRoomContinent@@@std@@@std@@@std@@@std@@QAE?AV01@H@Z ; std::_Tree_iterator<std::_Tree_val<std::_Tree_simple_types<std::pair<unsigned char const ,CSecretRoomContinent *> > > >::operator++
; File C:\Program Files\Microsoft Visual Studio\2022\Professional\VC\Tools\MSVC\14.44.35207\include\xtree

; 237  :         return !(*this == _Right);

  001db	8b 45 f4	 mov	 eax, DWORD PTR _it$6[ebp]
; File C:\IAGOS\server\v18\Source\Source\_Common\SecretRoom.cpp

; 191  : 					for( int nContCount=0; it!=m_mapSecretRoomContinent.end(); it++, nContCount++ )

  001de	46		 inc	 esi
; File C:\Program Files\Microsoft Visual Studio\2022\Professional\VC\Tools\MSVC\14.44.35207\include\xtree

; 237  :         return !(*this == _Right);

  001df	3b 43 04	 cmp	 eax, DWORD PTR [ebx+4]
; File C:\IAGOS\server\v18\Source\Source\_Common\SecretRoom.cpp

; 191  : 					for( int nContCount=0; it!=m_mapSecretRoomContinent.end(); it++, nContCount++ )

  001e2	75 dc		 jne	 SHORT $LL12@Process
$LN11@Process:

; 196  : 						}	
; 197  : 					}
; 198  : 					SendNowStateAllMember();

  001e4	6a 00		 push	 0
  001e6	6a 00		 push	 0
  001e8	6a 00		 push	 0
  001ea	8b cb		 mov	 ecx, ebx
  001ec	e8 00 00 00 00	 call	 ?SendNowStateAllMember@CSecretRoomMng@@QAEXEHK@Z ; CSecretRoomMng::SendNowStateAllMember
  001f1	5e		 pop	 esi
  001f2	5f		 pop	 edi

; 246  : 				}
; 247  : 			}
; 248  : 			break;		
; 249  : 	}
; 250  : }

  001f3	5b		 pop	 ebx
  001f4	8b e5		 mov	 esp, ebp
  001f6	5d		 pop	 ebp
  001f7	c3		 ret	 0
$LN25@Process:

; 199  : 				}
; 200  : 			}
; 201  : 			break;
; 202  : 
; 203  : 		case SRMNG_ENTRANCE :
; 204  : 			{
; 205  : 				if( m_dwRemainTime < dwTick )

  001f8	39 7b 38	 cmp	 DWORD PTR [ebx+56], edi
  001fb	0f 83 24 01 00
	00		 jae	 $LN315@Process

; 206  : 				{
; 207  : 					m_nState = SRMNG_WARWAIT;
; 208  : 					m_dwRemainTime = dwTick + (DWORD)m_Lua.GetGlobalNumber( "WarWaitTime" );

  00201	68 00 00 00 00	 push	 OFFSET ??_C@_0M@PIPIEKCG@WarWaitTime@
  00206	8d 4b 44	 lea	 ecx, DWORD PTR [ebx+68]
  00209	c7 43 34 05 00
	00 00		 mov	 DWORD PTR [ebx+52], 5
  00210	e8 00 00 00 00	 call	 ?GetGlobalNumber@CLuaBase@@QAENPAD@Z ; CLuaBase::GetGlobalNumber
  00215	dd 5d ec	 fstp	 QWORD PTR tv1342[ebp]
  00218	f2 0f 10 45 ec	 movsd	 xmm0, QWORD PTR tv1342[ebp]
  0021d	e8 00 00 00 00	 call	 __dtol3

; 209  : 					SendNowStateAllMember();

  00222	6a 00		 push	 0
  00224	6a 00		 push	 0
  00226	03 c7		 add	 eax, edi
  00228	8b cb		 mov	 ecx, ebx
  0022a	6a 00		 push	 0
  0022c	89 43 38	 mov	 DWORD PTR [ebx+56], eax
  0022f	e8 00 00 00 00	 call	 ?SendNowStateAllMember@CSecretRoomMng@@QAEXEHK@Z ; CSecretRoomMng::SendNowStateAllMember
  00234	5e		 pop	 esi
  00235	5f		 pop	 edi

; 246  : 				}
; 247  : 			}
; 248  : 			break;		
; 249  : 	}
; 250  : }

  00236	5b		 pop	 ebx
  00237	8b e5		 mov	 esp, ebp
  00239	5d		 pop	 ebp
  0023a	c3		 ret	 0
$LN27@Process:

; 210  : 				}
; 211  : 			}
; 212  : 			break;
; 213  : 
; 214  : 		case SRMNG_WARWAIT :
; 215  : 			{
; 216  : 				if( m_dwRemainTime < dwTick )

  0023b	39 7b 38	 cmp	 DWORD PTR [ebx+56], edi
  0023e	0f 83 e1 00 00
	00		 jae	 $LN315@Process

; 217  : 				{
; 218  : 					m_nState = SRMNG_WAR;
; 219  : 					m_dwRemainTime = 0;
; 220  : 					SendNowStateAllMember();

  00244	6a 00		 push	 0
  00246	6a 00		 push	 0
  00248	6a 00		 push	 0
  0024a	8b cb		 mov	 ecx, ebx
  0024c	c7 43 34 06 00
	00 00		 mov	 DWORD PTR [ebx+52], 6
  00253	c7 43 38 00 00
	00 00		 mov	 DWORD PTR [ebx+56], 0
  0025a	e8 00 00 00 00	 call	 ?SendNowStateAllMember@CSecretRoomMng@@QAEXEHK@Z ; CSecretRoomMng::SendNowStateAllMember
  0025f	5e		 pop	 esi
  00260	5f		 pop	 edi

; 246  : 				}
; 247  : 			}
; 248  : 			break;		
; 249  : 	}
; 250  : }

  00261	5b		 pop	 ebx
  00262	8b e5		 mov	 esp, ebp
  00264	5d		 pop	 ebp
  00265	c3		 ret	 0
$LN29@Process:
; File C:\Program Files\Microsoft Visual Studio\2022\Professional\VC\Tools\MSVC\14.44.35207\include\xtree

; 1142 :         return iterator(_Scary->_Myhead->_Left, _Scary);

  00266	8b 4b 04	 mov	 ecx, DWORD PTR [ebx+4]
; File C:\IAGOS\server\v18\Source\Source\_Common\SecretRoom.cpp

; 227  : 				int nCloseConut = 0;

  00269	33 f6		 xor	 esi, esi
; File C:\Program Files\Microsoft Visual Studio\2022\Professional\VC\Tools\MSVC\14.44.35207\include\xtree

; 37   :     _Tree_unchecked_const_iterator(_Nodeptr _Pnode, const _Mytree* _Plist) noexcept : _Ptr(_Pnode) {

  0026b	8b 01		 mov	 eax, DWORD PTR [ecx]
  0026d	89 45 f4	 mov	 DWORD PTR _it$7[ebp], eax

; 237  :         return !(*this == _Right);

  00270	3b c1		 cmp	 eax, ecx
; File C:\IAGOS\server\v18\Source\Source\_Common\SecretRoom.cpp

; 229  : 				for( ; it != m_mapSecretRoomContinent.end(); it++ )

  00272	74 2c		 je	 SHORT $LN14@Process
$LL15@Process:

; 230  : 				{
; 231  : 					if( it->second && it->second->m_nState == SRCONT_CLOSE )

  00274	8b 48 14	 mov	 ecx, DWORD PTR [eax+20]
  00277	85 c9		 test	 ecx, ecx
  00279	74 09		 je	 SHORT $LN30@Process
  0027b	83 79 04 65	 cmp	 DWORD PTR [ecx+4], 101	; 00000065H
  0027f	75 03		 jne	 SHORT $LN30@Process

; 232  : 					{
; 233  : 						nCloseConut++;

  00281	46		 inc	 esi

; 234  : 					}

  00282	eb 06		 jmp	 SHORT $LN13@Process
$LN30@Process:

; 235  : 					else
; 236  : 						it->second->Process( dwTick );			

  00284	57		 push	 edi
  00285	e8 00 00 00 00	 call	 ?Process@CSecretRoomContinent@@QAEXK@Z ; CSecretRoomContinent::Process
$LN13@Process:

; 229  : 				for( ; it != m_mapSecretRoomContinent.end(); it++ )

  0028a	6a 00		 push	 0
  0028c	8d 45 f0	 lea	 eax, DWORD PTR $T4[ebp]
  0028f	50		 push	 eax
  00290	8d 4d f4	 lea	 ecx, DWORD PTR _it$7[ebp]
  00293	e8 00 00 00 00	 call	 ??E?$_Tree_iterator@V?$_Tree_val@U?$_Tree_simple_types@U?$pair@$$CBEPAVCSecretRoomContinent@@@std@@@std@@@std@@@std@@QAE?AV01@H@Z ; std::_Tree_iterator<std::_Tree_val<std::_Tree_simple_types<std::pair<unsigned char const ,CSecretRoomContinent *> > > >::operator++
; File C:\Program Files\Microsoft Visual Studio\2022\Professional\VC\Tools\MSVC\14.44.35207\include\xtree

; 237  :         return !(*this == _Right);

  00298	8b 45 f4	 mov	 eax, DWORD PTR _it$7[ebp]
  0029b	3b 43 04	 cmp	 eax, DWORD PTR [ebx+4]
; File C:\IAGOS\server\v18\Source\Source\_Common\SecretRoom.cpp

; 229  : 				for( ; it != m_mapSecretRoomContinent.end(); it++ )

  0029e	75 d4		 jne	 SHORT $LL15@Process
$LN14@Process:

; 237  : 				}
; 238  : 
; 239  : 				if( (DWORD)( nCloseConut ) >= m_mapSecretRoomContinent.size() )

  002a0	3b 73 08	 cmp	 esi, DWORD PTR [ebx+8]
  002a3	0f 82 7c 00 00
	00		 jb	 $LN315@Process

; 240  : 				{
; 241  : 					m_nState = SRMNG_CLOSE;
; 242  : 					m_dwRemainTime = 0;
; 243  : 					SendNowStateAllMember();

  002a9	6a 00		 push	 0
  002ab	6a 00		 push	 0
  002ad	6a 00		 push	 0
  002af	8b cb		 mov	 ecx, ebx
  002b1	c7 43 34 01 00
	00 00		 mov	 DWORD PTR [ebx+52], 1
  002b8	c7 43 38 00 00
	00 00		 mov	 DWORD PTR [ebx+56], 0
  002bf	e8 00 00 00 00	 call	 ?SendNowStateAllMember@CSecretRoomMng@@QAEXEHK@Z ; CSecretRoomMng::SendNowStateAllMember
; File C:\IAGOS\server\v18\Source\Source\_Common\Project.h

; 1427 : 	VERIFY_RANGE( (int)( dwIndex ), 0, m_colorText.GetSize(), "GetText range_error", "error" );

  002c4	a1 ac 02 00 00	 mov	 eax, DWORD PTR ?prj@@3VCProject@@A+684
  002c9	3d 69 0e 00 00	 cmp	 eax, 3689		; 00000e69H
  002ce	7f 21		 jg	 SHORT $LN206@Process

; 579  : 	LPCTSTR szErr = Error( _T( "%s min:%d, max:%d, index:%d" ), szMsg, nMin, nMax, nIndex ); 

  002d0	68 69 0e 00 00	 push	 3689			; 00000e69H
  002d5	50		 push	 eax
  002d6	6a 00		 push	 0
  002d8	68 00 00 00 00	 push	 OFFSET ??_C@_0BE@OHDBLHOM@GetText?5range_error@
  002dd	68 00 00 00 00	 push	 OFFSET ??_C@_0BM@HMFGHCP@?$CFs?5min?3?$CFd?0?5max?3?$CFd?0?5index?3?$CFd@
  002e2	e8 00 00 00 00	 call	 ?Error@@YAPBDPBDZZ	; Error
  002e7	83 c4 14	 add	 esp, 20			; 00000014H

; 1427 : 	VERIFY_RANGE( (int)( dwIndex ), 0, m_colorText.GetSize(), "GetText range_error", "error" );

  002ea	b8 00 00 00 00	 mov	 eax, OFFSET ??_C@_05KKCIMGE@error@
  002ef	eb 1b		 jmp	 SHORT $LN205@Process
$LN206@Process:
; File C:\IAGOS\server\v18\Source\Source\_Common\data.h

; 270  : 	if( dwIndex >= (DWORD)m_nMaxIndex )

  002f1	76 14		 jbe	 SHORT $LN286@Process

; 271  : 		return NULL;
; 272  : 	return (T*) m_apOffset[ dwIndex ];

  002f3	a1 9c 02 00 00	 mov	 eax, DWORD PTR ?prj@@3VCProject@@A+668
  002f8	8b 80 a4 39 00
	00		 mov	 eax, DWORD PTR [eax+14756]
; File C:\IAGOS\server\v18\Source\Source\_Common\Project.h

; 1428 : 	if( m_colorText.GetAt( dwIndex ) == NULL )

  002fe	85 c0		 test	 eax, eax
  00300	74 05		 je	 SHORT $LN286@Process

; 1430 : 	return m_colorText.GetAt( dwIndex )->lpszData; 

  00302	8b 40 04	 mov	 eax, DWORD PTR [eax+4]
  00305	eb 05		 jmp	 SHORT $LN205@Process
$LN286@Process:

; 1429 : 		return "";

  00307	b8 00 00 00 00	 mov	 eax, OFFSET ??_C@_00CNPNBAHC@@
$LN205@Process:
; File C:\IAGOS\server\v18\Source\Source\_Common\SecretRoom.cpp

; 244  : 					g_DPCoreClient.SendCaption( prj.GetText( TID_GAME_SECRETROOM_ALLCLOSE ) );

  0030c	6a 00		 push	 0
  0030e	6a 00		 push	 0
  00310	50		 push	 eax
  00311	b9 00 00 00 00	 mov	 ecx, OFFSET ?g_DPCoreClient@@3VCDPCoreClient@@A ; g_DPCoreClient
  00316	e8 00 00 00 00	 call	 ?SendCaption@CDPCoreClient@@QAEXPBDKH@Z ; CDPCoreClient::SendCaption

; 245  : 					g_dpDBClient.SendSecretRoomClosed();

  0031b	b9 00 00 00 00	 mov	 ecx, OFFSET ?g_dpDBClient@@3VCDPDatabaseClient@@A ; g_dpDBClient
  00320	e8 00 00 00 00	 call	 ?SendSecretRoomClosed@CDPDatabaseClient@@QAEXXZ ; CDPDatabaseClient::SendSecretRoomClosed
$LN315@Process:
  00325	5e		 pop	 esi
$LN32@Process:
  00326	5f		 pop	 edi

; 246  : 				}
; 247  : 			}
; 248  : 			break;		
; 249  : 	}
; 250  : }

  00327	5b		 pop	 ebx
  00328	8b e5		 mov	 esp, ebp
  0032a	5d		 pop	 ebp
  0032b	c3		 ret	 0
$LN288@Process:
  0032c	00 00 00 00	 DD	 $LN16@Process
  00330	00 00 00 00	 DD	 $LN18@Process
  00334	00 00 00 00	 DD	 $LN22@Process
  00338	00 00 00 00	 DD	 $LN25@Process
  0033c	00 00 00 00	 DD	 $LN27@Process
  00340	00 00 00 00	 DD	 $LN29@Process
?Process@CSecretRoomMng@@QAEXXZ ENDP			; CSecretRoomMng::Process
_TEXT	ENDS
; Function compile flags: /Ogtp
; File C:\IAGOS\server\v18\Source\Source\_Common\SecretRoom.cpp
; File C:\Program Files\Microsoft Visual Studio\2022\Professional\VC\Tools\MSVC\14.44.35207\include\utility
; File C:\IAGOS\server\v18\Source\Source\_Common\SecretRoom.cpp
; File C:\Program Files\Microsoft Visual Studio\2022\Professional\VC\Tools\MSVC\14.44.35207\include\utility
; File C:\IAGOS\server\v18\Source\Source\_Common\SecretRoom.cpp
; File C:\Program Files\Microsoft Visual Studio\2022\Professional\VC\Tools\MSVC\14.44.35207\include\utility
; File C:\IAGOS\server\v18\Source\Source\_Common\SecretRoom.cpp
; File C:\Program Files\Microsoft Visual Studio\2022\Professional\VC\Tools\MSVC\14.44.35207\include\utility
; File C:\IAGOS\server\v18\Source\Source\_Common\SecretRoom.cpp
; File C:\Program Files\Microsoft Visual Studio\2022\Professional\VC\Tools\MSVC\14.44.35207\include\utility
; File C:\IAGOS\server\v18\Source\Source\_Common\SecretRoom.cpp
; File C:\Program Files\Microsoft Visual Studio\2022\Professional\VC\Tools\MSVC\14.44.35207\include\utility
; File C:\IAGOS\server\v18\Source\Source\_Common\SecretRoom.cpp
; File C:\IAGOS\server\v18\Source\Source\_Common\LuaBase.h
; File C:\IAGOS\server\v18\Source\Source\_Common\SecretRoom.cpp
; File C:\Program Files\Microsoft Visual Studio\2022\Professional\VC\Tools\MSVC\14.44.35207\include\xtree
; File C:\IAGOS\server\v18\Source\Source\_Common\SecretRoom.cpp
; File C:\Program Files\Microsoft Visual Studio\2022\Professional\VC\Tools\MSVC\14.44.35207\include\xtree
; File C:\IAGOS\server\v18\Source\Source\_Common\SecretRoom.cpp
; File C:\Program Files\Microsoft Visual Studio\2022\Professional\VC\Tools\MSVC\14.44.35207\include\xtree
; File C:\Program Files\Microsoft Visual Studio\2022\Professional\VC\Tools\MSVC\14.44.35207\include\type_traits
; File C:\Program Files\Microsoft Visual Studio\2022\Professional\VC\Tools\MSVC\14.44.35207\include\xtree
; File C:\IAGOS\server\v18\Source\Source\_Common\SecretRoom.cpp
; File C:\Program Files\Microsoft Visual Studio\2022\Professional\VC\Tools\MSVC\14.44.35207\include\vector
; File C:\IAGOS\server\v18\Source\Source\_Common\SecretRoom.cpp
; File C:\IAGOS\server\v18\Source\Source\_Common\LuaBase.h
; File C:\IAGOS\server\v18\Source\Source\_Common\SecretRoom.cpp
;	COMDAT ?LoadScript@CSecretRoomMng@@QAEHXZ
_TEXT	SEGMENT
_srMonster$1 = -108					; size = 32
__Loc$2 = -76						; size = 12
$T3 = -64						; size = 8
$T4 = -64						; size = 8
$T5 = -64						; size = 8
tv868 = -64						; size = 8
tv900 = -64						; size = 8
$T6 = -56						; size = 8
$T7 = -56						; size = 8
$T8 = -56						; size = 8
tv874 = -56						; size = 8
tv880 = -48						; size = 8
tv886 = -40						; size = 8
tv892 = -32						; size = 8
tv862 = -24						; size = 8
_nType$9 = -20						; size = 4
_this$1$ = -16						; size = 4
tv844 = -12						; size = 4
tv845 = -8						; size = 4
_this$1$ = -4						; size = 4
?LoadScript@CSecretRoomMng@@QAEHXZ PROC			; CSecretRoomMng::LoadScript, COMDAT
; _this$ = ecx

; 75   : {

  00000	55		 push	 ebp
  00001	8b ec		 mov	 ebp, esp
  00003	83 ec 6c	 sub	 esp, 108		; 0000006cH
  00006	53		 push	 ebx
  00007	8b d9		 mov	 ebx, ecx
  00009	56		 push	 esi
  0000a	57		 push	 edi

; 76   : 	if( m_Lua.RunScript( "SecretRoom.lua" ) != 0 )

  0000b	68 00 00 00 00	 push	 OFFSET ??_C@_0P@KHPJPHJI@SecretRoom?4lua@
  00010	8d 7b 44	 lea	 edi, DWORD PTR [ebx+68]
  00013	89 5d fc	 mov	 DWORD PTR _this$1$[ebp], ebx
  00016	8b cf		 mov	 ecx, edi
  00018	e8 00 00 00 00	 call	 ?RunScript@CLuaBase@@QAEHPBD@Z ; CLuaBase::RunScript
  0001d	85 c0		 test	 eax, eax
  0001f	74 0d		 je	 SHORT $LN6@LoadScript

; 77   : 	{
; 78   : 		Error( "SecretRoom.lua Run Failed!!!" );

  00021	68 00 00 00 00	 push	 OFFSET ??_C@_0BN@NMIIOGMP@SecretRoom?4lua?5Run?5Failed?$CB?$CB?$CB@
  00026	e8 00 00 00 00	 call	 ?Error@@YAPBDPBDZZ	; Error
  0002b	83 c4 04	 add	 esp, 4
$LN6@LoadScript:

; 79   : 		ASSERT(0);
; 80   : 	}
; 81   : 	
; 82   : 	m_nMinGuildLevel		= static_cast<int>( m_Lua.GetGlobalNumber( "MinGuildLevel" ) );

  0002e	68 00 00 00 00	 push	 OFFSET ??_C@_0O@JHCECGHF@MinGuildLevel@
  00033	8b cf		 mov	 ecx, edi
  00035	e8 00 00 00 00	 call	 ?GetGlobalNumber@CLuaBase@@QAENPAD@Z ; CLuaBase::GetGlobalNumber
  0003a	e8 00 00 00 00	 call	 __ftol2_sse

; 83   : 	m_nMinGuildMemberLevel	= static_cast<int>( m_Lua.GetGlobalNumber( "MinGuildMemberLevel" ) );

  0003f	68 00 00 00 00	 push	 OFFSET ??_C@_0BE@GGBILBFA@MinGuildMemberLevel@
  00044	8b cf		 mov	 ecx, edi
  00046	89 43 0c	 mov	 DWORD PTR [ebx+12], eax
  00049	e8 00 00 00 00	 call	 ?GetGlobalNumber@CLuaBase@@QAENPAD@Z ; CLuaBase::GetGlobalNumber
  0004e	e8 00 00 00 00	 call	 __ftol2_sse

; 84   : 	m_nMinPenya				= static_cast<int>( m_Lua.GetGlobalNumber( "MinPenya" ) );

  00053	68 00 00 00 00	 push	 OFFSET ??_C@_08IDGFPKOK@MinPenya@
  00058	8b cf		 mov	 ecx, edi
  0005a	89 43 10	 mov	 DWORD PTR [ebx+16], eax
  0005d	e8 00 00 00 00	 call	 ?GetGlobalNumber@CLuaBase@@QAENPAD@Z ; CLuaBase::GetGlobalNumber
  00062	e8 00 00 00 00	 call	 __ftol2_sse

; 85   : 	m_nMinGuildMemberNum	= static_cast<int>( m_Lua.GetGlobalNumber( "MinGuildMemberNum" ) );

  00067	68 00 00 00 00	 push	 OFFSET ??_C@_0BC@KJKJIHEI@MinGuildMemberNum@
  0006c	8b cf		 mov	 ecx, edi
  0006e	89 43 14	 mov	 DWORD PTR [ebx+20], eax
  00071	e8 00 00 00 00	 call	 ?GetGlobalNumber@CLuaBase@@QAENPAD@Z ; CLuaBase::GetGlobalNumber
  00076	e8 00 00 00 00	 call	 __ftol2_sse

; 86   : 	m_nMaxGuildMemberNum	= static_cast<int>( m_Lua.GetGlobalNumber( "MaxGuildMemberNum" ) );

  0007b	68 00 00 00 00	 push	 OFFSET ??_C@_0BC@PKAPJPKM@MaxGuildMemberNum@
  00080	8b cf		 mov	 ecx, edi
  00082	89 43 20	 mov	 DWORD PTR [ebx+32], eax
  00085	e8 00 00 00 00	 call	 ?GetGlobalNumber@CLuaBase@@QAENPAD@Z ; CLuaBase::GetGlobalNumber
  0008a	e8 00 00 00 00	 call	 __ftol2_sse

; 87   : 	m_nMinGuildNum			= static_cast<int>( m_Lua.GetGlobalNumber( "MinGuildNum" ) );

  0008f	68 00 00 00 00	 push	 OFFSET ??_C@_0M@GEBKGFAP@MinGuildNum@
  00094	8b cf		 mov	 ecx, edi
  00096	89 43 24	 mov	 DWORD PTR [ebx+36], eax
  00099	e8 00 00 00 00	 call	 ?GetGlobalNumber@CLuaBase@@QAENPAD@Z ; CLuaBase::GetGlobalNumber
  0009e	e8 00 00 00 00	 call	 __ftol2_sse

; 88   : 	m_nMaxGuildNum			= static_cast<int>( m_Lua.GetGlobalNumber( "MaxGuildNum" ) );

  000a3	68 00 00 00 00	 push	 OFFSET ??_C@_0M@PEGJHFOF@MaxGuildNum@
  000a8	8b cf		 mov	 ecx, edi
  000aa	89 43 18	 mov	 DWORD PTR [ebx+24], eax
  000ad	e8 00 00 00 00	 call	 ?GetGlobalNumber@CLuaBase@@QAENPAD@Z ; CLuaBase::GetGlobalNumber
  000b2	e8 00 00 00 00	 call	 __ftol2_sse

; 89   : 	m_nMonsterGenNum		= static_cast<int>( m_Lua.GetGlobalNumber( "MonsterGenNum" ) );

  000b7	68 00 00 00 00	 push	 OFFSET ??_C@_0O@FGDBHOJE@MonsterGenNum@
  000bc	8b cf		 mov	 ecx, edi
  000be	89 43 1c	 mov	 DWORD PTR [ebx+28], eax
  000c1	e8 00 00 00 00	 call	 ?GetGlobalNumber@CLuaBase@@QAENPAD@Z ; CLuaBase::GetGlobalNumber
  000c6	e8 00 00 00 00	 call	 __ftol2_sse

; 90   : 	m_nCancelReturnRate		= static_cast<int>( m_Lua.GetGlobalNumber( "CancelReturnRate" ) );

  000cb	68 00 00 00 00	 push	 OFFSET ??_C@_0BB@FDEBMJPD@CancelReturnRate@
  000d0	8b cf		 mov	 ecx, edi
  000d2	89 43 30	 mov	 DWORD PTR [ebx+48], eax
  000d5	e8 00 00 00 00	 call	 ?GetGlobalNumber@CLuaBase@@QAENPAD@Z ; CLuaBase::GetGlobalNumber
  000da	e8 00 00 00 00	 call	 __ftol2_sse

; 91   : 	m_nDropoutReturnRate	= static_cast<int>( m_Lua.GetGlobalNumber( "DropoutReturnRate" ) );

  000df	68 00 00 00 00	 push	 OFFSET ??_C@_0BC@OPLBONMF@DropoutReturnRate@
  000e4	8b cf		 mov	 ecx, edi
  000e6	89 43 28	 mov	 DWORD PTR [ebx+40], eax
  000e9	e8 00 00 00 00	 call	 ?GetGlobalNumber@CLuaBase@@QAENPAD@Z ; CLuaBase::GetGlobalNumber
  000ee	e8 00 00 00 00	 call	 __ftol2_sse
  000f3	89 43 2c	 mov	 DWORD PTR [ebx+44], eax

; 93   : 	m_mapMonsterNum.insert( make_pair( MONSTER_NORMAL, 0 ) );

  000f6	8d 73 3c	 lea	 esi, DWORD PTR [ebx+60]
  000f9	8d 45 c0	 lea	 eax, DWORD PTR $T3[ebp]
; File C:\Program Files\Microsoft Visual Studio\2022\Professional\VC\Tools\MSVC\14.44.35207\include\utility

; 274  :         : first(_STD forward<_Other1>(_Val1)), second(_STD forward<_Other2>(_Val2)) {

  000fc	c7 45 c0 01 00
	00 00		 mov	 DWORD PTR $T3[ebp], 1
; File C:\IAGOS\server\v18\Source\Source\_Common\SecretRoom.cpp

; 93   : 	m_mapMonsterNum.insert( make_pair( MONSTER_NORMAL, 0 ) );

  00103	50		 push	 eax
  00104	8d 45 c8	 lea	 eax, DWORD PTR $T6[ebp]
; File C:\Program Files\Microsoft Visual Studio\2022\Professional\VC\Tools\MSVC\14.44.35207\include\utility

; 274  :         : first(_STD forward<_Other1>(_Val1)), second(_STD forward<_Other2>(_Val2)) {

  00107	c7 45 c4 00 00
	00 00		 mov	 DWORD PTR $T3[ebp+4], 0
; File C:\IAGOS\server\v18\Source\Source\_Common\SecretRoom.cpp

; 93   : 	m_mapMonsterNum.insert( make_pair( MONSTER_NORMAL, 0 ) );

  0010e	50		 push	 eax
  0010f	8b ce		 mov	 ecx, esi
  00111	89 75 f0	 mov	 DWORD PTR _this$1$[ebp], esi
  00114	e8 00 00 00 00	 call	 ??$insert@U?$pair@HH@std@@$0A@@?$map@HHU?$less@H@std@@V?$allocator@U?$pair@$$CBHH@std@@@2@@std@@QAE?AU?$pair@V?$_Tree_iterator@V?$_Tree_val@U?$_Tree_simple_types@U?$pair@$$CBHH@std@@@std@@@std@@@std@@_N@1@$$QAU?$pair@HH@1@@Z ; std::map<int,int,std::less<int>,std::allocator<std::pair<int const ,int> > >::insert<std::pair<int,int>,0>

; 94   : 	m_mapMonsterNum.insert( make_pair( MONSTER_MIDBOSS, 0 ) );

  00119	8d 45 c0	 lea	 eax, DWORD PTR $T4[ebp]
; File C:\Program Files\Microsoft Visual Studio\2022\Professional\VC\Tools\MSVC\14.44.35207\include\utility

; 274  :         : first(_STD forward<_Other1>(_Val1)), second(_STD forward<_Other2>(_Val2)) {

  0011c	c7 45 c0 02 00
	00 00		 mov	 DWORD PTR $T4[ebp], 2
; File C:\IAGOS\server\v18\Source\Source\_Common\SecretRoom.cpp

; 94   : 	m_mapMonsterNum.insert( make_pair( MONSTER_MIDBOSS, 0 ) );

  00123	50		 push	 eax
  00124	8d 45 c8	 lea	 eax, DWORD PTR $T7[ebp]
; File C:\Program Files\Microsoft Visual Studio\2022\Professional\VC\Tools\MSVC\14.44.35207\include\utility

; 274  :         : first(_STD forward<_Other1>(_Val1)), second(_STD forward<_Other2>(_Val2)) {

  00127	c7 45 c4 00 00
	00 00		 mov	 DWORD PTR $T4[ebp+4], 0
; File C:\IAGOS\server\v18\Source\Source\_Common\SecretRoom.cpp

; 94   : 	m_mapMonsterNum.insert( make_pair( MONSTER_MIDBOSS, 0 ) );

  0012e	50		 push	 eax
  0012f	8b ce		 mov	 ecx, esi
  00131	e8 00 00 00 00	 call	 ??$insert@U?$pair@HH@std@@$0A@@?$map@HHU?$less@H@std@@V?$allocator@U?$pair@$$CBHH@std@@@2@@std@@QAE?AU?$pair@V?$_Tree_iterator@V?$_Tree_val@U?$_Tree_simple_types@U?$pair@$$CBHH@std@@@std@@@std@@@std@@_N@1@$$QAU?$pair@HH@1@@Z ; std::map<int,int,std::less<int>,std::allocator<std::pair<int const ,int> > >::insert<std::pair<int,int>,0>

; 95   : 	m_mapMonsterNum.insert( make_pair( MONSTER_BOSS, 0 ) );

  00136	8d 45 c0	 lea	 eax, DWORD PTR $T5[ebp]
; File C:\Program Files\Microsoft Visual Studio\2022\Professional\VC\Tools\MSVC\14.44.35207\include\utility

; 274  :         : first(_STD forward<_Other1>(_Val1)), second(_STD forward<_Other2>(_Val2)) {

  00139	c7 45 c0 03 00
	00 00		 mov	 DWORD PTR $T5[ebp], 3
; File C:\IAGOS\server\v18\Source\Source\_Common\SecretRoom.cpp

; 95   : 	m_mapMonsterNum.insert( make_pair( MONSTER_BOSS, 0 ) );

  00140	50		 push	 eax
  00141	8d 45 c8	 lea	 eax, DWORD PTR $T8[ebp]
; File C:\Program Files\Microsoft Visual Studio\2022\Professional\VC\Tools\MSVC\14.44.35207\include\utility

; 274  :         : first(_STD forward<_Other1>(_Val1)), second(_STD forward<_Other2>(_Val2)) {

  00144	c7 45 c4 00 00
	00 00		 mov	 DWORD PTR $T5[ebp+4], 0
; File C:\IAGOS\server\v18\Source\Source\_Common\SecretRoom.cpp

; 95   : 	m_mapMonsterNum.insert( make_pair( MONSTER_BOSS, 0 ) );

  0014b	50		 push	 eax
  0014c	8b ce		 mov	 ecx, esi
  0014e	e8 00 00 00 00	 call	 ??$insert@U?$pair@HH@std@@$0A@@?$map@HHU?$less@H@std@@V?$allocator@U?$pair@$$CBHH@std@@@2@@std@@QAE?AU?$pair@V?$_Tree_iterator@V?$_Tree_val@U?$_Tree_simple_types@U?$pair@$$CBHH@std@@@std@@@std@@@std@@_N@1@$$QAU?$pair@HH@1@@Z ; std::map<int,int,std::less<int>,std::allocator<std::pair<int const ,int> > >::insert<std::pair<int,int>,0>
; File C:\IAGOS\server\v18\Source\Source\_Common\LuaBase.h

; 47   : 	void		GetGloabal( char* szName )					{  lua_getglobal( m_pLuaState, szName );  }

  00153	68 00 00 00 00	 push	 OFFSET ??_C@_08EABLEDPJ@tMonster@
  00158	ff 73 48	 push	 DWORD PTR [ebx+72]
  0015b	e8 00 00 00 00	 call	 _lua_getglobal

; 40   : 	void		PushNil()									{  lua_pushnil( m_pLuaState );  }

  00160	ff 73 48	 push	 DWORD PTR [ebx+72]
  00163	e8 00 00 00 00	 call	 _lua_pushnil

; 46   : 	int			TableLoop( int nStackPos )					{  return lua_next( m_pLuaState, nStackPos );  }	

  00168	6a fe		 push	 -2			; fffffffeH
  0016a	ff 73 48	 push	 DWORD PTR [ebx+72]
  0016d	e8 00 00 00 00	 call	 _lua_next
  00172	83 c4 14	 add	 esp, 20			; 00000014H
; File C:\IAGOS\server\v18\Source\Source\_Common\SecretRoom.cpp

; 99   : 	while( m_Lua.TableLoop( -2 ) )

  00175	85 c0		 test	 eax, eax
  00177	0f 84 9d 01 00
	00		 je	 $LN3@LoadScript
  0017d	0f 1f 00	 npad	 3
$LL2@LoadScript:

; 100  : 	{
; 101  : 		__SECRETROOM_MONSTER srMonster;
; 102  : 		srMonster.dwId = CScript::GetDefineNum( m_Lua.GetFieldToString( -1, "dwId" ) );

  00180	68 00 00 00 00	 push	 OFFSET ??_C@_04NNFNFJKG@dwId@
  00185	6a ff		 push	 -1
  00187	8b cf		 mov	 ecx, edi
  00189	e8 00 00 00 00	 call	 ?GetFieldToString@CLuaBase@@QAEPBDHPAD@Z ; CLuaBase::GetFieldToString
  0018e	50		 push	 eax
  0018f	e8 00 00 00 00	 call	 ?GetDefineNum@CScript@@SAHPBD@Z ; CScript::GetDefineNum
  00194	83 c4 04	 add	 esp, 4
  00197	89 45 f8	 mov	 DWORD PTR tv845[ebp], eax

; 103  : 		srMonster.nNum = static_cast<int>( m_Lua.GetFieldToNumber( -1, "nNum" ) );

  0019a	8b cf		 mov	 ecx, edi
  0019c	89 45 94	 mov	 DWORD PTR _srMonster$1[ebp], eax
  0019f	68 00 00 00 00	 push	 OFFSET ??_C@_04OGHNFBJB@nNum@
  001a4	6a ff		 push	 -1
  001a6	e8 00 00 00 00	 call	 ?GetFieldToNumber@CLuaBase@@QAENHPAD@Z ; CLuaBase::GetFieldToNumber
  001ab	dd 5d c0	 fstp	 QWORD PTR tv900[ebp]
  001ae	f2 0f 2c 5d c0	 cvttsd2si ebx, QWORD PTR tv900[ebp]

; 104  : 		srMonster.bRed = static_cast<BOOL>( m_Lua.GetFieldToBool( -1, "bRed" ) );

  001b3	68 00 00 00 00	 push	 OFFSET ??_C@_04PEKGEMIO@bRed@
  001b8	6a ff		 push	 -1
  001ba	8b cf		 mov	 ecx, edi
  001bc	89 5d 98	 mov	 DWORD PTR _srMonster$1[ebp+4], ebx
  001bf	e8 00 00 00 00	 call	 ?GetFieldToBool@CLuaBase@@QAEHHPAD@Z ; CLuaBase::GetFieldToBool

; 105  : 		srMonster.x1 = static_cast<int>( m_Lua.GetFieldToNumber( -1, "x1" ) );

  001c4	68 00 00 00 00	 push	 OFFSET ??_C@_02JMABBILH@x1@
  001c9	6a ff		 push	 -1
  001cb	8b cf		 mov	 ecx, edi
  001cd	89 45 f4	 mov	 DWORD PTR tv844[ebp], eax
  001d0	89 45 9c	 mov	 DWORD PTR _srMonster$1[ebp+8], eax
  001d3	e8 00 00 00 00	 call	 ?GetFieldToNumber@CLuaBase@@QAENHPAD@Z ; CLuaBase::GetFieldToNumber
  001d8	dd 5d e0	 fstp	 QWORD PTR tv892[ebp]
  001db	f2 0f 2c 45 e0	 cvttsd2si eax, QWORD PTR tv892[ebp]

; 106  : 		srMonster.z1 = static_cast<int>( m_Lua.GetFieldToNumber( -1, "z1" ) );

  001e0	68 00 00 00 00	 push	 OFFSET ??_C@_02JPIFMMNJ@z1@
  001e5	6a ff		 push	 -1
  001e7	8b cf		 mov	 ecx, edi
  001e9	89 45 a0	 mov	 DWORD PTR _srMonster$1[ebp+12], eax
  001ec	e8 00 00 00 00	 call	 ?GetFieldToNumber@CLuaBase@@QAENHPAD@Z ; CLuaBase::GetFieldToNumber
  001f1	dd 5d d8	 fstp	 QWORD PTR tv886[ebp]
  001f4	f2 0f 2c 45 d8	 cvttsd2si eax, QWORD PTR tv886[ebp]

; 107  : 		srMonster.x2 = static_cast<int>( m_Lua.GetFieldToNumber( -1, "x2" ) );

  001f9	68 00 00 00 00	 push	 OFFSET ??_C@_02LHCMELHE@x2@
  001fe	6a ff		 push	 -1
  00200	8b cf		 mov	 ecx, edi
  00202	89 45 a4	 mov	 DWORD PTR _srMonster$1[ebp+16], eax
  00205	e8 00 00 00 00	 call	 ?GetFieldToNumber@CLuaBase@@QAENHPAD@Z ; CLuaBase::GetFieldToNumber
  0020a	dd 5d d0	 fstp	 QWORD PTR tv880[ebp]
  0020d	f2 0f 2c 45 d0	 cvttsd2si eax, QWORD PTR tv880[ebp]

; 108  : 		srMonster.z2 = static_cast<int>( m_Lua.GetFieldToNumber( -1, "z2" ) );

  00212	68 00 00 00 00	 push	 OFFSET ??_C@_02LEKIJPBK@z2@
  00217	6a ff		 push	 -1
  00219	8b cf		 mov	 ecx, edi
  0021b	89 45 a8	 mov	 DWORD PTR _srMonster$1[ebp+20], eax
  0021e	e8 00 00 00 00	 call	 ?GetFieldToNumber@CLuaBase@@QAENHPAD@Z ; CLuaBase::GetFieldToNumber
  00223	dd 5d c8	 fstp	 QWORD PTR tv874[ebp]
  00226	f2 0f 2c 45 c8	 cvttsd2si eax, QWORD PTR tv874[ebp]

; 109  : 		srMonster.y = static_cast<int>( m_Lua.GetFieldToNumber( -1, "y" ) );

  0022b	68 00 00 00 00	 push	 OFFSET ??_C@_01EANLCPLP@y@
  00230	6a ff		 push	 -1
  00232	8b cf		 mov	 ecx, edi
  00234	89 45 ac	 mov	 DWORD PTR _srMonster$1[ebp+24], eax
  00237	e8 00 00 00 00	 call	 ?GetFieldToNumber@CLuaBase@@QAENHPAD@Z ; CLuaBase::GetFieldToNumber
  0023c	dd 5d c0	 fstp	 QWORD PTR tv868[ebp]
  0023f	f2 0f 2c 45 c0	 cvttsd2si eax, QWORD PTR tv868[ebp]

; 111  : 		int nType = static_cast<int>( m_Lua.GetFieldToNumber(-1, "nType" ) );

  00244	68 00 00 00 00	 push	 OFFSET ??_C@_05OLBMEBNJ@nType@
  00249	6a ff		 push	 -1
  0024b	8b cf		 mov	 ecx, edi
  0024d	89 45 b0	 mov	 DWORD PTR _srMonster$1[ebp+28], eax
  00250	e8 00 00 00 00	 call	 ?GetFieldToNumber@CLuaBase@@QAENHPAD@Z ; CLuaBase::GetFieldToNumber
; File C:\Program Files\Microsoft Visual Studio\2022\Professional\VC\Tools\MSVC\14.44.35207\include\xtree

; 1384 :         const _Tree_find_result<_Nodeptr> _Loc = _Find_lower_bound(_Keyval);

  00255	8b 4d f0	 mov	 ecx, DWORD PTR _this$1$[ebp]
  00258	8d 45 ec	 lea	 eax, DWORD PTR _nType$9[ebp]
; File C:\IAGOS\server\v18\Source\Source\_Common\SecretRoom.cpp

; 111  : 		int nType = static_cast<int>( m_Lua.GetFieldToNumber(-1, "nType" ) );

  0025b	dd 5d e8	 fstp	 QWORD PTR tv862[ebp]
  0025e	f2 0f 2c 75 e8	 cvttsd2si esi, QWORD PTR tv862[ebp]
; File C:\Program Files\Microsoft Visual Studio\2022\Professional\VC\Tools\MSVC\14.44.35207\include\xtree

; 1384 :         const _Tree_find_result<_Nodeptr> _Loc = _Find_lower_bound(_Keyval);

  00263	50		 push	 eax
  00264	8d 45 b4	 lea	 eax, DWORD PTR __Loc$2[ebp]
  00267	50		 push	 eax
; File C:\IAGOS\server\v18\Source\Source\_Common\SecretRoom.cpp

; 111  : 		int nType = static_cast<int>( m_Lua.GetFieldToNumber(-1, "nType" ) );

  00268	89 75 ec	 mov	 DWORD PTR _nType$9[ebp], esi
; File C:\Program Files\Microsoft Visual Studio\2022\Professional\VC\Tools\MSVC\14.44.35207\include\xtree

; 1384 :         const _Tree_find_result<_Nodeptr> _Loc = _Find_lower_bound(_Keyval);

  0026b	e8 00 00 00 00	 call	 ??$_Find_lower_bound@H@?$_Tree@V?$_Tmap_traits@HHU?$less@H@std@@V?$allocator@U?$pair@$$CBHH@std@@@2@$0A@@std@@@std@@IBE?AU?$_Tree_find_result@PAU?$_Tree_node@U?$pair@$$CBHH@std@@PAX@std@@@1@ABH@Z ; std::_Tree<std::_Tmap_traits<int,int,std::less<int>,std::allocator<std::pair<int const ,int> >,0> >::_Find_lower_bound<int>

; 1624 :         return !_Bound->_Isnil && !_DEBUG_LT_PRED(_Getcomp(), _Keyval, _Traits::_Kfn(_Bound->_Myval));

  00270	8b 45 bc	 mov	 eax, DWORD PTR __Loc$2[ebp+8]
  00273	80 78 0d 00	 cmp	 BYTE PTR [eax+13], 0
  00277	75 05		 jne	 SHORT $LN18@LoadScript
; File C:\Program Files\Microsoft Visual Studio\2022\Professional\VC\Tools\MSVC\14.44.35207\include\type_traits

; 2380 :         return _Left < _Right;

  00279	3b 70 10	 cmp	 esi, DWORD PTR [eax+16]
; File C:\Program Files\Microsoft Visual Studio\2022\Professional\VC\Tools\MSVC\14.44.35207\include\xtree

; 1624 :         return !_Bound->_Isnil && !_DEBUG_LT_PRED(_Getcomp(), _Keyval, _Traits::_Kfn(_Bound->_Myval));

  0027c	7d 05		 jge	 SHORT $LN17@LoadScript
$LN18@LoadScript:

; 1389 :         return _Get_scary()->_Myhead;

  0027e	8b 45 f0	 mov	 eax, DWORD PTR _this$1$[ebp]
  00281	8b 00		 mov	 eax, DWORD PTR [eax]
$LN17@LoadScript:
; File C:\IAGOS\server\v18\Source\Source\_Common\SecretRoom.cpp

; 112  : 		m_mapMonsterNum.find(nType)->second += srMonster.nNum;

  00283	01 58 14	 add	 DWORD PTR [eax+20], ebx

; 113  : 		switch( nType )

  00286	83 ee 01	 sub	 esi, 1
  00289	74 1a		 je	 SHORT $LN7@LoadScript
  0028b	83 ee 01	 sub	 esi, 1
  0028e	74 0d		 je	 SHORT $LN8@LoadScript
  00290	83 ee 01	 sub	 esi, 1
  00293	75 64		 jne	 SHORT $LN47@LoadScript

; 117  : 			case MONSTER_BOSS : m_vecBossMonster.push_back( srMonster ); break;

  00295	8b 4d fc	 mov	 ecx, DWORD PTR _this$1$[ebp]
  00298	83 c1 64	 add	 ecx, 100		; 00000064H
; File C:\Program Files\Microsoft Visual Studio\2022\Professional\VC\Tools\MSVC\14.44.35207\include\vector

; 848  :         return *_Emplace_reallocate(_Mylast, _STD forward<_Valty>(_Val)...);

  0029b	eb 0e		 jmp	 SHORT $LN113@LoadScript
$LN8@LoadScript:
; File C:\IAGOS\server\v18\Source\Source\_Common\SecretRoom.cpp

; 116  : 			case MONSTER_MIDBOSS : m_vecMidBossMonster.push_back( srMonster ); break;

  0029d	8b 4d fc	 mov	 ecx, DWORD PTR _this$1$[ebp]
  002a0	83 c1 58	 add	 ecx, 88			; 00000058H
  002a3	eb 06		 jmp	 SHORT $LN113@LoadScript
$LN7@LoadScript:

; 114  : 		{
; 115  : 			case MONSTER_NORMAL : m_vecNormalMonster.push_back( srMonster ); break;

  002a5	8b 4d fc	 mov	 ecx, DWORD PTR _this$1$[ebp]
  002a8	83 c1 4c	 add	 ecx, 76			; 0000004cH
$LN113@LoadScript:

; 118  : 		}
; 119  : 		m_Lua.Pop(1);

  002ab	8b 41 04	 mov	 eax, DWORD PTR [ecx+4]
  002ae	3b 41 08	 cmp	 eax, DWORD PTR [ecx+8]
  002b1	74 3c		 je	 SHORT $LN48@LoadScript
  002b3	8b 55 f8	 mov	 edx, DWORD PTR tv845[ebp]
  002b6	89 10		 mov	 DWORD PTR [eax], edx
  002b8	8b 55 f4	 mov	 edx, DWORD PTR tv844[ebp]
  002bb	89 58 04	 mov	 DWORD PTR [eax+4], ebx
  002be	89 50 08	 mov	 DWORD PTR [eax+8], edx
  002c1	f2 0f 2c 55 e0	 cvttsd2si edx, QWORD PTR tv892[ebp]
  002c6	89 50 0c	 mov	 DWORD PTR [eax+12], edx
  002c9	f2 0f 2c 55 d8	 cvttsd2si edx, QWORD PTR tv886[ebp]
  002ce	89 50 10	 mov	 DWORD PTR [eax+16], edx
  002d1	f2 0f 2c 55 d0	 cvttsd2si edx, QWORD PTR tv880[ebp]
  002d6	89 50 14	 mov	 DWORD PTR [eax+20], edx
  002d9	f2 0f 2c 55 c8	 cvttsd2si edx, QWORD PTR tv874[ebp]
  002de	89 50 18	 mov	 DWORD PTR [eax+24], edx
  002e1	f2 0f 2c 55 c0	 cvttsd2si edx, QWORD PTR tv868[ebp]
  002e6	89 50 1c	 mov	 DWORD PTR [eax+28], edx
  002e9	83 41 04 20	 add	 DWORD PTR [ecx+4], 32	; 00000020H
  002ed	eb 0a		 jmp	 SHORT $LN47@LoadScript
$LN48@LoadScript:
  002ef	8d 55 94	 lea	 edx, DWORD PTR _srMonster$1[ebp]
  002f2	52		 push	 edx
  002f3	50		 push	 eax
  002f4	e8 00 00 00 00	 call	 ??$_Emplace_reallocate@ABU__SECRETROOM_MONSTER@@@?$vector@U__SECRETROOM_MONSTER@@V?$allocator@U__SECRETROOM_MONSTER@@@std@@@std@@AAEPAU__SECRETROOM_MONSTER@@QAU2@ABU2@@Z ; std::vector<__SECRETROOM_MONSTER,std::allocator<__SECRETROOM_MONSTER> >::_Emplace_reallocate<__SECRETROOM_MONSTER const &>
$LN47@LoadScript:
  002f9	6a 01		 push	 1
  002fb	8b cf		 mov	 ecx, edi
  002fd	e8 00 00 00 00	 call	 ?Pop@CLuaBase@@QAEXH@Z	; CLuaBase::Pop
; File C:\IAGOS\server\v18\Source\Source\_Common\LuaBase.h

; 46   : 	int			TableLoop( int nStackPos )					{  return lua_next( m_pLuaState, nStackPos );  }	

  00302	8b 45 fc	 mov	 eax, DWORD PTR _this$1$[ebp]
  00305	6a fe		 push	 -2			; fffffffeH
  00307	ff 70 48	 push	 DWORD PTR [eax+72]
  0030a	e8 00 00 00 00	 call	 _lua_next
  0030f	83 c4 08	 add	 esp, 8
; File C:\IAGOS\server\v18\Source\Source\_Common\SecretRoom.cpp

; 99   : 	while( m_Lua.TableLoop( -2 ) )

  00312	85 c0		 test	 eax, eax
  00314	0f 85 66 fe ff
	ff		 jne	 $LL2@LoadScript
$LN3@LoadScript:

; 120  : 	}
; 121  : 	m_Lua.Pop(0);

  0031a	6a 00		 push	 0
  0031c	8b cf		 mov	 ecx, edi
  0031e	e8 00 00 00 00	 call	 ?Pop@CLuaBase@@QAEXH@Z	; CLuaBase::Pop

; 122  : 
; 123  : 	return TRUE;

  00323	5f		 pop	 edi
  00324	5e		 pop	 esi
  00325	b8 01 00 00 00	 mov	 eax, 1
  0032a	5b		 pop	 ebx

; 124  : }

  0032b	8b e5		 mov	 esp, ebp
  0032d	5d		 pop	 ebp
  0032e	c3		 ret	 0
?LoadScript@CSecretRoomMng@@QAEHXZ ENDP			; CSecretRoomMng::LoadScript
_TEXT	ENDS
; Function compile flags: /Ogtp
;	COMDAT ??1?$map@EPAVCSecretRoomContinent@@U?$less@E@std@@V?$allocator@U?$pair@$$CBEPAVCSecretRoomContinent@@@std@@@3@@std@@QAE@XZ
_TEXT	SEGMENT
??1?$map@EPAVCSecretRoomContinent@@U?$less@E@std@@V?$allocator@U?$pair@$$CBEPAVCSecretRoomContinent@@@std@@@3@@std@@QAE@XZ PROC ; std::map<unsigned char,CSecretRoomContinent *,std::less<unsigned char>,std::allocator<std::pair<unsigned char const ,CSecretRoomContinent *> > >::~map<unsigned char,CSecretRoomContinent *,std::less<unsigned char>,std::allocator<std::pair<unsigned char const ,CSecretRoomContinent *> > >, COMDAT
; _this$ = ecx
  00000	e9 00 00 00 00	 jmp	 ??1?$_Tree@V?$_Tmap_traits@EPAVCSecretRoomContinent@@U?$less@E@std@@V?$allocator@U?$pair@$$CBEPAVCSecretRoomContinent@@@std@@@3@$0A@@std@@@std@@QAE@XZ ; std::_Tree<std::_Tmap_traits<unsigned char,CSecretRoomContinent *,std::less<unsigned char>,std::allocator<std::pair<unsigned char const ,CSecretRoomContinent *> >,0> >::~_Tree<std::_Tmap_traits<unsigned char,CSecretRoomContinent *,std::less<unsigned char>,std::allocator<std::pair<unsigned char const ,CSecretRoomContinent *> >,0> >
??1?$map@EPAVCSecretRoomContinent@@U?$less@E@std@@V?$allocator@U?$pair@$$CBEPAVCSecretRoomContinent@@@std@@@3@@std@@QAE@XZ ENDP ; std::map<unsigned char,CSecretRoomContinent *,std::less<unsigned char>,std::allocator<std::pair<unsigned char const ,CSecretRoomContinent *> > >::~map<unsigned char,CSecretRoomContinent *,std::less<unsigned char>,std::allocator<std::pair<unsigned char const ,CSecretRoomContinent *> > >
_TEXT	ENDS
; Function compile flags: /Ogtp
; File C:\Program Files\Microsoft Visual Studio\2022\Professional\VC\Tools\MSVC\14.44.35207\include\xtree
;	COMDAT ?_Insert_node@?$_Tree_val@U?$_Tree_simple_types@U?$pair@$$CBEPAVCSecretRoomContinent@@@std@@@std@@@std@@QAEPAU?$_Tree_node@U?$pair@$$CBEPAVCSecretRoomContinent@@@std@@PAX@2@U?$_Tree_id@PAU?$_Tree_node@U?$pair@$$CBEPAVCSecretRoomContinent@@@std@@PAX@std@@@2@QAU32@@Z
_TEXT	SEGMENT
__Head$1$ = -4						; size = 4
__Loc$ = 8						; size = 8
__Newnode$ = 16						; size = 4
?_Insert_node@?$_Tree_val@U?$_Tree_simple_types@U?$pair@$$CBEPAVCSecretRoomContinent@@@std@@@std@@@std@@QAEPAU?$_Tree_node@U?$pair@$$CBEPAVCSecretRoomContinent@@@std@@PAX@2@U?$_Tree_id@PAU?$_Tree_node@U?$pair@$$CBEPAVCSecretRoomContinent@@@std@@PAX@std@@@2@QAU32@@Z PROC ; std::_Tree_val<std::_Tree_simple_types<std::pair<unsigned char const ,CSecretRoomContinent *> > >::_Insert_node, COMDAT
; _this$ = ecx

; 669  :     _Nodeptr _Insert_node(const _Tree_id<_Nodeptr> _Loc, const _Nodeptr _Newnode) noexcept {

  00000	55		 push	 ebp
  00001	8b ec		 mov	 ebp, esp
  00003	51		 push	 ecx

; 670  :         ++_Mysize;
; 671  :         const auto _Head  = _Myhead;
; 672  :         _Newnode->_Parent = _Loc._Parent;

  00004	8b 55 08	 mov	 edx, DWORD PTR __Loc$[ebp]
  00007	53		 push	 ebx
  00008	8b d9		 mov	 ebx, ecx
  0000a	57		 push	 edi
  0000b	8b 7d 10	 mov	 edi, DWORD PTR __Newnode$[ebp]
  0000e	8b 03		 mov	 eax, DWORD PTR [ebx]
  00010	ff 43 04	 inc	 DWORD PTR [ebx+4]
  00013	89 45 fc	 mov	 DWORD PTR __Head$1$[ebp], eax
  00016	89 57 04	 mov	 DWORD PTR [edi+4], edx

; 673  :         if (_Loc._Parent == _Head) { // first node in tree, just set head values

  00019	3b d0		 cmp	 edx, eax
  0001b	75 16		 jne	 SHORT $LN5@Insert_nod

; 674  :             _Head->_Left     = _Newnode;

  0001d	89 38		 mov	 DWORD PTR [eax], edi

; 675  :             _Head->_Parent   = _Newnode;

  0001f	89 78 04	 mov	 DWORD PTR [eax+4], edi

; 676  :             _Head->_Right    = _Newnode;

  00022	89 78 08	 mov	 DWORD PTR [eax+8], edi

; 735  :         return _Newnode;
; 736  :     }

  00025	8b c7		 mov	 eax, edi
  00027	c6 47 0c 01	 mov	 BYTE PTR [edi+12], 1
  0002b	5f		 pop	 edi
  0002c	5b		 pop	 ebx
  0002d	8b e5		 mov	 esp, ebp
  0002f	5d		 pop	 ebp
  00030	c2 0c 00	 ret	 12			; 0000000cH
$LN5@Insert_nod:

; 677  :             _Newnode->_Color = _Black; // the root is black
; 678  :             return _Newnode;
; 679  :         }
; 680  : 
; 681  :         _STL_INTERNAL_CHECK(_Loc._Child != _Tree_child::_Unused);
; 682  :         if (_Loc._Child == _Tree_child::_Right) { // add to right of _Loc._Parent

  00033	83 7d 0c 00	 cmp	 DWORD PTR __Loc$[ebp+4], 0
  00037	75 0d		 jne	 SHORT $LN6@Insert_nod

; 683  :             _STL_INTERNAL_CHECK(_Loc._Parent->_Right->_Isnil);
; 684  :             _Loc._Parent->_Right = _Newnode;

  00039	89 7a 08	 mov	 DWORD PTR [edx+8], edi

; 685  :             if (_Loc._Parent == _Head->_Right) { // remember rightmost node

  0003c	3b 50 08	 cmp	 edx, DWORD PTR [eax+8]
  0003f	75 0d		 jne	 SHORT $LN9@Insert_nod

; 686  :                 _Head->_Right = _Newnode;

  00041	89 78 08	 mov	 DWORD PTR [eax+8], edi

; 687  :             }
; 688  :         } else { // add to left of _Loc._Parent

  00044	eb 08		 jmp	 SHORT $LN9@Insert_nod
$LN6@Insert_nod:

; 689  :             _STL_INTERNAL_CHECK(_Loc._Parent->_Left->_Isnil);
; 690  :             _Loc._Parent->_Left = _Newnode;

  00046	89 3a		 mov	 DWORD PTR [edx], edi

; 691  :             if (_Loc._Parent == _Head->_Left) { // remember leftmost node

  00048	3b 10		 cmp	 edx, DWORD PTR [eax]
  0004a	75 02		 jne	 SHORT $LN9@Insert_nod

; 692  :                 _Head->_Left = _Newnode;

  0004c	89 38		 mov	 DWORD PTR [eax], edi
$LN9@Insert_nod:

; 693  :             }
; 694  :         }
; 695  : 
; 696  :         for (_Nodeptr _Pnode = _Newnode; _Pnode->_Parent->_Color == _Red;) {

  0004e	8b 4f 04	 mov	 ecx, DWORD PTR [edi+4]
  00051	8b c7		 mov	 eax, edi
  00053	80 79 0c 00	 cmp	 BYTE PTR [ecx+12], 0
  00057	0f 85 7d 01 00
	00		 jne	 $LN3@Insert_nod
  0005d	56		 push	 esi
  0005e	66 90		 npad	 2
$LL4@Insert_nod:

; 697  :             if (_Pnode->_Parent == _Pnode->_Parent->_Parent->_Left) { // fixup red-red in left subtree

  00060	8b 50 04	 mov	 edx, DWORD PTR [eax+4]
  00063	8b 72 04	 mov	 esi, DWORD PTR [edx+4]
  00066	8b 0e		 mov	 ecx, DWORD PTR [esi]
  00068	3b d1		 cmp	 edx, ecx
  0006a	0f 85 aa 00 00
	00		 jne	 $LN10@Insert_nod

; 698  :                 const auto _Parent_sibling = _Pnode->_Parent->_Parent->_Right;

  00070	8b 4e 08	 mov	 ecx, DWORD PTR [esi+8]

; 699  :                 if (_Parent_sibling->_Color == _Red) { // parent's sibling has two red children, blacken both

  00073	80 79 0c 00	 cmp	 BYTE PTR [ecx+12], 0
  00077	0f 84 a3 00 00
	00		 je	 $LN82@Insert_nod

; 700  :                     _Pnode->_Parent->_Color          = _Black;
; 701  :                     _Parent_sibling->_Color          = _Black;
; 702  :                     _Pnode->_Parent->_Parent->_Color = _Red;
; 703  :                     _Pnode                           = _Pnode->_Parent->_Parent;
; 704  :                 } else { // parent's sibling has red and black children
; 705  :                     if (_Pnode == _Pnode->_Parent->_Right) { // rotate right child to left

  0007d	8b 72 08	 mov	 esi, DWORD PTR [edx+8]
  00080	3b c6		 cmp	 eax, esi
  00082	75 37		 jne	 SHORT $LN57@Insert_nod

; 485  :         _Wherenode->_Right = _Pnode->_Left;

  00084	8b 0e		 mov	 ecx, DWORD PTR [esi]

; 706  :                         _Pnode = _Pnode->_Parent;

  00086	8b c2		 mov	 eax, edx

; 485  :         _Wherenode->_Right = _Pnode->_Left;

  00088	89 4a 08	 mov	 DWORD PTR [edx+8], ecx

; 486  : 
; 487  :         if (!_Pnode->_Left->_Isnil) {

  0008b	8b 0e		 mov	 ecx, DWORD PTR [esi]
  0008d	80 79 0d 00	 cmp	 BYTE PTR [ecx+13], 0
  00091	75 03		 jne	 SHORT $LN21@Insert_nod

; 488  :             _Pnode->_Left->_Parent = _Wherenode;

  00093	89 41 04	 mov	 DWORD PTR [ecx+4], eax
$LN21@Insert_nod:

; 489  :         }
; 490  : 
; 491  :         _Pnode->_Parent = _Wherenode->_Parent;

  00096	8b 4a 04	 mov	 ecx, DWORD PTR [edx+4]
  00099	89 4e 04	 mov	 DWORD PTR [esi+4], ecx

; 492  : 
; 493  :         if (_Wherenode == _Myhead->_Parent) {

  0009c	8b 0b		 mov	 ecx, DWORD PTR [ebx]
  0009e	3b 41 04	 cmp	 eax, DWORD PTR [ecx+4]
  000a1	75 05		 jne	 SHORT $LN22@Insert_nod

; 494  :             _Myhead->_Parent = _Pnode;

  000a3	89 71 04	 mov	 DWORD PTR [ecx+4], esi
  000a6	eb 0e		 jmp	 SHORT $LN25@Insert_nod
$LN22@Insert_nod:

; 495  :         } else if (_Wherenode == _Wherenode->_Parent->_Left) {

  000a8	8b 4a 04	 mov	 ecx, DWORD PTR [edx+4]
  000ab	3b 01		 cmp	 eax, DWORD PTR [ecx]
  000ad	75 04		 jne	 SHORT $LN24@Insert_nod

; 496  :             _Wherenode->_Parent->_Left = _Pnode;

  000af	89 31		 mov	 DWORD PTR [ecx], esi

; 497  :         } else {

  000b1	eb 03		 jmp	 SHORT $LN25@Insert_nod
$LN24@Insert_nod:

; 498  :             _Wherenode->_Parent->_Right = _Pnode;

  000b3	89 71 08	 mov	 DWORD PTR [ecx+8], esi
$LN25@Insert_nod:

; 499  :         }
; 500  : 
; 501  :         _Pnode->_Left       = _Wherenode;

  000b6	89 06		 mov	 DWORD PTR [esi], eax

; 502  :         _Wherenode->_Parent = _Pnode;

  000b8	89 70 04	 mov	 DWORD PTR [eax+4], esi
$LN57@Insert_nod:

; 707  :                         _Lrotate(_Pnode);
; 708  :                     }
; 709  : 
; 710  :                     _Pnode->_Parent->_Color          = _Black; // propagate red up

  000bb	8b 48 04	 mov	 ecx, DWORD PTR [eax+4]
  000be	c6 41 0c 01	 mov	 BYTE PTR [ecx+12], 1

; 711  :                     _Pnode->_Parent->_Parent->_Color = _Red;

  000c2	8b 48 04	 mov	 ecx, DWORD PTR [eax+4]
  000c5	8b 49 04	 mov	 ecx, DWORD PTR [ecx+4]
  000c8	c6 41 0c 00	 mov	 BYTE PTR [ecx+12], 0

; 712  :                     _Rrotate(_Pnode->_Parent->_Parent);

  000cc	8b 48 04	 mov	 ecx, DWORD PTR [eax+4]
  000cf	8b 51 04	 mov	 edx, DWORD PTR [ecx+4]

; 506  :         _Nodeptr _Pnode   = _Wherenode->_Left;

  000d2	8b 32		 mov	 esi, DWORD PTR [edx]

; 507  :         _Wherenode->_Left = _Pnode->_Right;

  000d4	8b 4e 08	 mov	 ecx, DWORD PTR [esi+8]
  000d7	89 0a		 mov	 DWORD PTR [edx], ecx

; 508  : 
; 509  :         if (!_Pnode->_Right->_Isnil) {

  000d9	8b 4e 08	 mov	 ecx, DWORD PTR [esi+8]
  000dc	80 79 0d 00	 cmp	 BYTE PTR [ecx+13], 0
  000e0	75 03		 jne	 SHORT $LN29@Insert_nod

; 510  :             _Pnode->_Right->_Parent = _Wherenode;

  000e2	89 51 04	 mov	 DWORD PTR [ecx+4], edx
$LN29@Insert_nod:

; 511  :         }
; 512  : 
; 513  :         _Pnode->_Parent = _Wherenode->_Parent;

  000e5	8b 4a 04	 mov	 ecx, DWORD PTR [edx+4]
  000e8	89 4e 04	 mov	 DWORD PTR [esi+4], ecx

; 514  : 
; 515  :         if (_Wherenode == _Myhead->_Parent) {

  000eb	8b 0b		 mov	 ecx, DWORD PTR [ebx]
  000ed	3b 51 04	 cmp	 edx, DWORD PTR [ecx+4]
  000f0	75 0b		 jne	 SHORT $LN30@Insert_nod

; 516  :             _Myhead->_Parent = _Pnode;

  000f2	89 71 04	 mov	 DWORD PTR [ecx+4], esi

; 521  :         }
; 522  : 
; 523  :         _Pnode->_Right      = _Wherenode;

  000f5	89 56 08	 mov	 DWORD PTR [esi+8], edx

; 713  :                 }
; 714  :             } else { // fixup red-red in right subtree

  000f8	e9 cc 00 00 00	 jmp	 $LN81@Insert_nod
$LN30@Insert_nod:

; 517  :         } else if (_Wherenode == _Wherenode->_Parent->_Right) {

  000fd	8b 4a 04	 mov	 ecx, DWORD PTR [edx+4]
  00100	3b 51 08	 cmp	 edx, DWORD PTR [ecx+8]
  00103	75 0b		 jne	 SHORT $LN32@Insert_nod

; 518  :             _Wherenode->_Parent->_Right = _Pnode;

  00105	89 71 08	 mov	 DWORD PTR [ecx+8], esi

; 521  :         }
; 522  : 
; 523  :         _Pnode->_Right      = _Wherenode;

  00108	89 56 08	 mov	 DWORD PTR [esi+8], edx

; 713  :                 }
; 714  :             } else { // fixup red-red in right subtree

  0010b	e9 b9 00 00 00	 jmp	 $LN81@Insert_nod
$LN32@Insert_nod:

; 520  :             _Wherenode->_Parent->_Left = _Pnode;

  00110	89 31		 mov	 DWORD PTR [ecx], esi

; 521  :         }
; 522  : 
; 523  :         _Pnode->_Right      = _Wherenode;

  00112	89 56 08	 mov	 DWORD PTR [esi+8], edx

; 713  :                 }
; 714  :             } else { // fixup red-red in right subtree

  00115	e9 af 00 00 00	 jmp	 $LN81@Insert_nod
$LN10@Insert_nod:

; 715  :                 const auto _Parent_sibling = _Pnode->_Parent->_Parent->_Left;
; 716  :                 if (_Parent_sibling->_Color == _Red) { // parent's sibling has two red children, blacken both

  0011a	80 79 0c 00	 cmp	 BYTE PTR [ecx+12], 0
  0011e	75 1d		 jne	 SHORT $LN15@Insert_nod
$LN82@Insert_nod:

; 693  :             }
; 694  :         }
; 695  : 
; 696  :         for (_Nodeptr _Pnode = _Newnode; _Pnode->_Parent->_Color == _Red;) {

  00120	c6 42 0c 01	 mov	 BYTE PTR [edx+12], 1
  00124	c6 41 0c 01	 mov	 BYTE PTR [ecx+12], 1
  00128	8b 48 04	 mov	 ecx, DWORD PTR [eax+4]
  0012b	8b 49 04	 mov	 ecx, DWORD PTR [ecx+4]
  0012e	c6 41 0c 00	 mov	 BYTE PTR [ecx+12], 0
  00132	8b 48 04	 mov	 ecx, DWORD PTR [eax+4]
  00135	8b 41 04	 mov	 eax, DWORD PTR [ecx+4]
  00138	e9 8f 00 00 00	 jmp	 $LN2@Insert_nod
$LN15@Insert_nod:

; 717  :                     _Pnode->_Parent->_Color          = _Black;
; 718  :                     _Parent_sibling->_Color          = _Black;
; 719  :                     _Pnode->_Parent->_Parent->_Color = _Red;
; 720  :                     _Pnode                           = _Pnode->_Parent->_Parent;
; 721  :                 } else { // parent's sibling has red and black children
; 722  :                     if (_Pnode == _Pnode->_Parent->_Left) { // rotate left child to right

  0013d	8b 32		 mov	 esi, DWORD PTR [edx]
  0013f	3b c6		 cmp	 eax, esi
  00141	75 3a		 jne	 SHORT $LN42@Insert_nod

; 507  :         _Wherenode->_Left = _Pnode->_Right;

  00143	8b 4e 08	 mov	 ecx, DWORD PTR [esi+8]

; 723  :                         _Pnode = _Pnode->_Parent;

  00146	8b c2		 mov	 eax, edx

; 507  :         _Wherenode->_Left = _Pnode->_Right;

  00148	89 08		 mov	 DWORD PTR [eax], ecx

; 508  : 
; 509  :         if (!_Pnode->_Right->_Isnil) {

  0014a	8b 4e 08	 mov	 ecx, DWORD PTR [esi+8]
  0014d	80 79 0d 00	 cmp	 BYTE PTR [ecx+13], 0
  00151	75 03		 jne	 SHORT $LN37@Insert_nod

; 510  :             _Pnode->_Right->_Parent = _Wherenode;

  00153	89 41 04	 mov	 DWORD PTR [ecx+4], eax
$LN37@Insert_nod:

; 511  :         }
; 512  : 
; 513  :         _Pnode->_Parent = _Wherenode->_Parent;

  00156	8b 4a 04	 mov	 ecx, DWORD PTR [edx+4]
  00159	89 4e 04	 mov	 DWORD PTR [esi+4], ecx

; 514  : 
; 515  :         if (_Wherenode == _Myhead->_Parent) {

  0015c	8b 0b		 mov	 ecx, DWORD PTR [ebx]
  0015e	3b 41 04	 cmp	 eax, DWORD PTR [ecx+4]
  00161	75 05		 jne	 SHORT $LN38@Insert_nod

; 516  :             _Myhead->_Parent = _Pnode;

  00163	89 71 04	 mov	 DWORD PTR [ecx+4], esi
  00166	eb 0f		 jmp	 SHORT $LN41@Insert_nod
$LN38@Insert_nod:

; 517  :         } else if (_Wherenode == _Wherenode->_Parent->_Right) {

  00168	8b 4a 04	 mov	 ecx, DWORD PTR [edx+4]
  0016b	3b 41 08	 cmp	 eax, DWORD PTR [ecx+8]
  0016e	75 05		 jne	 SHORT $LN40@Insert_nod

; 518  :             _Wherenode->_Parent->_Right = _Pnode;

  00170	89 71 08	 mov	 DWORD PTR [ecx+8], esi

; 519  :         } else {

  00173	eb 02		 jmp	 SHORT $LN41@Insert_nod
$LN40@Insert_nod:

; 520  :             _Wherenode->_Parent->_Left = _Pnode;

  00175	89 31		 mov	 DWORD PTR [ecx], esi
$LN41@Insert_nod:

; 521  :         }
; 522  : 
; 523  :         _Pnode->_Right      = _Wherenode;

  00177	89 46 08	 mov	 DWORD PTR [esi+8], eax

; 524  :         _Wherenode->_Parent = _Pnode;

  0017a	89 70 04	 mov	 DWORD PTR [eax+4], esi
$LN42@Insert_nod:

; 724  :                         _Rrotate(_Pnode);
; 725  :                     }
; 726  : 
; 727  :                     _Pnode->_Parent->_Color          = _Black; // propagate red up

  0017d	8b 48 04	 mov	 ecx, DWORD PTR [eax+4]
  00180	c6 41 0c 01	 mov	 BYTE PTR [ecx+12], 1

; 728  :                     _Pnode->_Parent->_Parent->_Color = _Red;

  00184	8b 48 04	 mov	 ecx, DWORD PTR [eax+4]
  00187	8b 49 04	 mov	 ecx, DWORD PTR [ecx+4]
  0018a	c6 41 0c 00	 mov	 BYTE PTR [ecx+12], 0

; 729  :                     _Lrotate(_Pnode->_Parent->_Parent);

  0018e	8b 48 04	 mov	 ecx, DWORD PTR [eax+4]
  00191	8b 51 04	 mov	 edx, DWORD PTR [ecx+4]

; 484  :         _Nodeptr _Pnode    = _Wherenode->_Right;

  00194	8b 72 08	 mov	 esi, DWORD PTR [edx+8]

; 485  :         _Wherenode->_Right = _Pnode->_Left;

  00197	8b 0e		 mov	 ecx, DWORD PTR [esi]
  00199	89 4a 08	 mov	 DWORD PTR [edx+8], ecx

; 486  : 
; 487  :         if (!_Pnode->_Left->_Isnil) {

  0019c	8b 0e		 mov	 ecx, DWORD PTR [esi]
  0019e	80 79 0d 00	 cmp	 BYTE PTR [ecx+13], 0
  001a2	75 03		 jne	 SHORT $LN45@Insert_nod

; 488  :             _Pnode->_Left->_Parent = _Wherenode;

  001a4	89 51 04	 mov	 DWORD PTR [ecx+4], edx
$LN45@Insert_nod:

; 489  :         }
; 490  : 
; 491  :         _Pnode->_Parent = _Wherenode->_Parent;

  001a7	8b 4a 04	 mov	 ecx, DWORD PTR [edx+4]
  001aa	89 4e 04	 mov	 DWORD PTR [esi+4], ecx

; 492  : 
; 493  :         if (_Wherenode == _Myhead->_Parent) {

  001ad	8b 0b		 mov	 ecx, DWORD PTR [ebx]
  001af	3b 51 04	 cmp	 edx, DWORD PTR [ecx+4]
  001b2	75 05		 jne	 SHORT $LN46@Insert_nod

; 494  :             _Myhead->_Parent = _Pnode;

  001b4	89 71 04	 mov	 DWORD PTR [ecx+4], esi
  001b7	eb 0e		 jmp	 SHORT $LN49@Insert_nod
$LN46@Insert_nod:

; 495  :         } else if (_Wherenode == _Wherenode->_Parent->_Left) {

  001b9	8b 4a 04	 mov	 ecx, DWORD PTR [edx+4]
  001bc	3b 11		 cmp	 edx, DWORD PTR [ecx]
  001be	75 04		 jne	 SHORT $LN48@Insert_nod

; 496  :             _Wherenode->_Parent->_Left = _Pnode;

  001c0	89 31		 mov	 DWORD PTR [ecx], esi

; 497  :         } else {

  001c2	eb 03		 jmp	 SHORT $LN49@Insert_nod
$LN48@Insert_nod:

; 498  :             _Wherenode->_Parent->_Right = _Pnode;

  001c4	89 71 08	 mov	 DWORD PTR [ecx+8], esi
$LN49@Insert_nod:

; 499  :         }
; 500  : 
; 501  :         _Pnode->_Left       = _Wherenode;

  001c7	89 16		 mov	 DWORD PTR [esi], edx
$LN81@Insert_nod:

; 693  :             }
; 694  :         }
; 695  : 
; 696  :         for (_Nodeptr _Pnode = _Newnode; _Pnode->_Parent->_Color == _Red;) {

  001c9	89 72 04	 mov	 DWORD PTR [edx+4], esi
$LN2@Insert_nod:
  001cc	8b 48 04	 mov	 ecx, DWORD PTR [eax+4]
  001cf	80 79 0c 00	 cmp	 BYTE PTR [ecx+12], 0
  001d3	0f 84 87 fe ff
	ff		 je	 $LL4@Insert_nod
  001d9	5e		 pop	 esi
$LN3@Insert_nod:

; 730  :                 }
; 731  :             }
; 732  :         }
; 733  : 
; 734  :         _Head->_Parent->_Color = _Black; // root is always black

  001da	8b 45 fc	 mov	 eax, DWORD PTR __Head$1$[ebp]
  001dd	8b 40 04	 mov	 eax, DWORD PTR [eax+4]
  001e0	c6 40 0c 01	 mov	 BYTE PTR [eax+12], 1

; 735  :         return _Newnode;
; 736  :     }

  001e4	8b c7		 mov	 eax, edi
  001e6	5f		 pop	 edi
  001e7	5b		 pop	 ebx
  001e8	8b e5		 mov	 esp, ebp
  001ea	5d		 pop	 ebp
  001eb	c2 0c 00	 ret	 12			; 0000000cH
?_Insert_node@?$_Tree_val@U?$_Tree_simple_types@U?$pair@$$CBEPAVCSecretRoomContinent@@@std@@@std@@@std@@QAEPAU?$_Tree_node@U?$pair@$$CBEPAVCSecretRoomContinent@@@std@@PAX@2@U?$_Tree_id@PAU?$_Tree_node@U?$pair@$$CBEPAVCSecretRoomContinent@@@std@@PAX@std@@@2@QAU32@@Z ENDP ; std::_Tree_val<std::_Tree_simple_types<std::pair<unsigned char const ,CSecretRoomContinent *> > >::_Insert_node
_TEXT	ENDS
; Function compile flags: /Ogtp
; File C:\Program Files\Microsoft Visual Studio\2022\Professional\VC\Tools\MSVC\14.44.35207\include\xtree
; File C:\Program Files\Microsoft Visual Studio\2022\Professional\VC\Tools\MSVC\14.44.35207\include\type_traits
; File C:\Program Files\Microsoft Visual Studio\2022\Professional\VC\Tools\MSVC\14.44.35207\include\xtree
;	COMDAT ?find@?$_Tree@V?$_Tmap_traits@EPAVCSecretRoomContinent@@U?$less@E@std@@V?$allocator@U?$pair@$$CBEPAVCSecretRoomContinent@@@std@@@3@$0A@@std@@@std@@QAE?AV?$_Tree_iterator@V?$_Tree_val@U?$_Tree_simple_types@U?$pair@$$CBEPAVCSecretRoomContinent@@@std@@@std@@@std@@@2@ABE@Z
_TEXT	SEGMENT
__Loc$1 = -12						; size = 12
___$ReturnUdt$ = 8					; size = 4
__Keyval$ = 12						; size = 4
?find@?$_Tree@V?$_Tmap_traits@EPAVCSecretRoomContinent@@U?$less@E@std@@V?$allocator@U?$pair@$$CBEPAVCSecretRoomContinent@@@std@@@3@$0A@@std@@@std@@QAE?AV?$_Tree_iterator@V?$_Tree_val@U?$_Tree_simple_types@U?$pair@$$CBEPAVCSecretRoomContinent@@@std@@@std@@@std@@@2@ABE@Z PROC ; std::_Tree<std::_Tmap_traits<unsigned char,CSecretRoomContinent *,std::less<unsigned char>,std::allocator<std::pair<unsigned char const ,CSecretRoomContinent *> >,0> >::find, COMDAT
; _this$ = ecx

; 1393 :     _NODISCARD iterator find(const key_type& _Keyval) {

  00000	55		 push	 ebp
  00001	8b ec		 mov	 ebp, esp
  00003	83 ec 0c	 sub	 esp, 12			; 0000000cH
  00006	56		 push	 esi

; 1384 :         const _Tree_find_result<_Nodeptr> _Loc = _Find_lower_bound(_Keyval);

  00007	8b 75 0c	 mov	 esi, DWORD PTR __Keyval$[ebp]
  0000a	8d 45 f4	 lea	 eax, DWORD PTR __Loc$1[ebp]

; 1393 :     _NODISCARD iterator find(const key_type& _Keyval) {

  0000d	57		 push	 edi

; 1384 :         const _Tree_find_result<_Nodeptr> _Loc = _Find_lower_bound(_Keyval);

  0000e	56		 push	 esi
  0000f	50		 push	 eax

; 1393 :     _NODISCARD iterator find(const key_type& _Keyval) {

  00010	8b f9		 mov	 edi, ecx

; 1384 :         const _Tree_find_result<_Nodeptr> _Loc = _Find_lower_bound(_Keyval);

  00012	e8 00 00 00 00	 call	 ??$_Find_lower_bound@E@?$_Tree@V?$_Tmap_traits@EPAVCSecretRoomContinent@@U?$less@E@std@@V?$allocator@U?$pair@$$CBEPAVCSecretRoomContinent@@@std@@@3@$0A@@std@@@std@@IBE?AU?$_Tree_find_result@PAU?$_Tree_node@U?$pair@$$CBEPAVCSecretRoomContinent@@@std@@PAX@std@@@1@ABE@Z ; std::_Tree<std::_Tmap_traits<unsigned char,CSecretRoomContinent *,std::less<unsigned char>,std::allocator<std::pair<unsigned char const ,CSecretRoomContinent *> >,0> >::_Find_lower_bound<unsigned char>

; 1624 :         return !_Bound->_Isnil && !_DEBUG_LT_PRED(_Getcomp(), _Keyval, _Traits::_Kfn(_Bound->_Myval));

  00017	8b 55 fc	 mov	 edx, DWORD PTR __Loc$1[ebp+8]
  0001a	80 7a 0d 00	 cmp	 BYTE PTR [edx+13], 0
  0001e	75 14		 jne	 SHORT $LN4@find
; File C:\Program Files\Microsoft Visual Studio\2022\Professional\VC\Tools\MSVC\14.44.35207\include\type_traits

; 2380 :         return _Left < _Right;

  00020	8a 06		 mov	 al, BYTE PTR [esi]
  00022	3a 42 10	 cmp	 al, BYTE PTR [edx+16]
; File C:\Program Files\Microsoft Visual Studio\2022\Professional\VC\Tools\MSVC\14.44.35207\include\xtree

; 1624 :         return !_Bound->_Isnil && !_DEBUG_LT_PRED(_Getcomp(), _Keyval, _Traits::_Kfn(_Bound->_Myval));

  00025	72 0d		 jb	 SHORT $LN4@find

; 37   :     _Tree_unchecked_const_iterator(_Nodeptr _Pnode, const _Mytree* _Plist) noexcept : _Ptr(_Pnode) {

  00027	8b 45 08	 mov	 eax, DWORD PTR ___$ReturnUdt$[ebp]
  0002a	5f		 pop	 edi

; 1394 :         return iterator(_Find(_Keyval), _Get_scary());
; 1395 :     }

  0002b	5e		 pop	 esi

; 37   :     _Tree_unchecked_const_iterator(_Nodeptr _Pnode, const _Mytree* _Plist) noexcept : _Ptr(_Pnode) {

  0002c	89 10		 mov	 DWORD PTR [eax], edx

; 1394 :         return iterator(_Find(_Keyval), _Get_scary());
; 1395 :     }

  0002e	8b e5		 mov	 esp, ebp
  00030	5d		 pop	 ebp
  00031	c2 08 00	 ret	 8
$LN4@find:

; 37   :     _Tree_unchecked_const_iterator(_Nodeptr _Pnode, const _Mytree* _Plist) noexcept : _Ptr(_Pnode) {

  00034	8b 45 08	 mov	 eax, DWORD PTR ___$ReturnUdt$[ebp]

; 1389 :         return _Get_scary()->_Myhead;

  00037	8b 0f		 mov	 ecx, DWORD PTR [edi]
  00039	5f		 pop	 edi

; 1394 :         return iterator(_Find(_Keyval), _Get_scary());
; 1395 :     }

  0003a	5e		 pop	 esi

; 37   :     _Tree_unchecked_const_iterator(_Nodeptr _Pnode, const _Mytree* _Plist) noexcept : _Ptr(_Pnode) {

  0003b	89 08		 mov	 DWORD PTR [eax], ecx

; 1394 :         return iterator(_Find(_Keyval), _Get_scary());
; 1395 :     }

  0003d	8b e5		 mov	 esp, ebp
  0003f	5d		 pop	 ebp
  00040	c2 08 00	 ret	 8
?find@?$_Tree@V?$_Tmap_traits@EPAVCSecretRoomContinent@@U?$less@E@std@@V?$allocator@U?$pair@$$CBEPAVCSecretRoomContinent@@@std@@@3@$0A@@std@@@std@@QAE?AV?$_Tree_iterator@V?$_Tree_val@U?$_Tree_simple_types@U?$pair@$$CBEPAVCSecretRoomContinent@@@std@@@std@@@std@@@2@ABE@Z ENDP ; std::_Tree<std::_Tmap_traits<unsigned char,CSecretRoomContinent *,std::less<unsigned char>,std::allocator<std::pair<unsigned char const ,CSecretRoomContinent *> >,0> >::find
_TEXT	ENDS
; Function compile flags: /Ogtp
; File C:\Program Files\Microsoft Visual Studio\2022\Professional\VC\Tools\MSVC\14.44.35207\include\xtree
; File C:\Program Files\Microsoft Visual Studio\2022\Professional\VC\Tools\MSVC\14.44.35207\include\utility
; File C:\Program Files\Microsoft Visual Studio\2022\Professional\VC\Tools\MSVC\14.44.35207\include\xmemory
; File C:\Program Files\Microsoft Visual Studio\2022\Professional\VC\Tools\MSVC\14.44.35207\include\xtree
; File C:\Program Files\Microsoft Visual Studio\2022\Professional\VC\Tools\MSVC\14.44.35207\include\xmemory
; File C:\Program Files\Microsoft Visual Studio\2022\Professional\VC\Tools\MSVC\14.44.35207\include\xtree
;	COMDAT ??1?$_Tree@V?$_Tmap_traits@EPAVCSecretRoomContinent@@U?$less@E@std@@V?$allocator@U?$pair@$$CBEPAVCSecretRoomContinent@@@std@@@3@$0A@@std@@@std@@QAE@XZ
_TEXT	SEGMENT
??1?$_Tree@V?$_Tmap_traits@EPAVCSecretRoomContinent@@U?$less@E@std@@V?$allocator@U?$pair@$$CBEPAVCSecretRoomContinent@@@std@@@3@$0A@@std@@@std@@QAE@XZ PROC ; std::_Tree<std::_Tmap_traits<unsigned char,CSecretRoomContinent *,std::less<unsigned char>,std::allocator<std::pair<unsigned char const ,CSecretRoomContinent *> >,0> >::~_Tree<std::_Tmap_traits<unsigned char,CSecretRoomContinent *,std::less<unsigned char>,std::allocator<std::pair<unsigned char const ,CSecretRoomContinent *> >,0> >, COMDAT
; _this$ = ecx

; 1095 :     ~_Tree() noexcept {

  00000	56		 push	 esi
  00001	57		 push	 edi
  00002	8b f9		 mov	 edi, ecx

; 777  :         _Erase_tree(_Al, _Myhead->_Parent);

  00004	8b 37		 mov	 esi, DWORD PTR [edi]
  00006	8b 76 04	 mov	 esi, DWORD PTR [esi+4]

; 768  :         while (!_Rootnode->_Isnil) { // free subtrees, then node

  00009	80 7e 0d 00	 cmp	 BYTE PTR [esi+13], 0
  0000d	75 21		 jne	 SHORT $LN61@Tree
  0000f	90		 npad	 1
$LL8@Tree:

; 769  :             _Erase_tree(_Al, _Rootnode->_Right);

  00010	ff 76 08	 push	 DWORD PTR [esi+8]
  00013	8b cf		 mov	 ecx, edi
  00015	57		 push	 edi
  00016	e8 00 00 00 00	 call	 ??$_Erase_tree@V?$allocator@U?$_Tree_node@U?$pair@$$CBEPAVCSecretRoomContinent@@@std@@PAX@std@@@std@@@?$_Tree_val@U?$_Tree_simple_types@U?$pair@$$CBEPAVCSecretRoomContinent@@@std@@@std@@@std@@QAEXAAV?$allocator@U?$_Tree_node@U?$pair@$$CBEPAVCSecretRoomContinent@@@std@@PAX@std@@@1@PAU?$_Tree_node@U?$pair@$$CBEPAVCSecretRoomContinent@@@std@@PAX@1@@Z ; std::_Tree_val<std::_Tree_simple_types<std::pair<unsigned char const ,CSecretRoomContinent *> > >::_Erase_tree<std::allocator<std::_Tree_node<std::pair<unsigned char const ,CSecretRoomContinent *>,void *> > >
; File C:\Program Files\Microsoft Visual Studio\2022\Professional\VC\Tools\MSVC\14.44.35207\include\utility

; 773  :     _Ty _Old_val = static_cast<_Ty&&>(_Val);

  0001b	8b c6		 mov	 eax, esi

; 774  :     _Val         = static_cast<_Other&&>(_New_val);

  0001d	8b 36		 mov	 esi, DWORD PTR [esi]
; File C:\Program Files\Microsoft Visual Studio\2022\Professional\VC\Tools\MSVC\14.44.35207\include\xmemory

; 289  :         ::operator delete(_Ptr, _Bytes);

  0001f	6a 18		 push	 24			; 00000018H
  00021	50		 push	 eax
  00022	e8 00 00 00 00	 call	 ??3@YAXPAXI@Z		; operator delete
  00027	83 c4 08	 add	 esp, 8
; File C:\Program Files\Microsoft Visual Studio\2022\Professional\VC\Tools\MSVC\14.44.35207\include\xtree

; 768  :         while (!_Rootnode->_Isnil) { // free subtrees, then node

  0002a	80 7e 0d 00	 cmp	 BYTE PTR [esi+13], 0
  0002e	74 e0		 je	 SHORT $LL8@Tree
$LN61@Tree:
; File C:\Program Files\Microsoft Visual Studio\2022\Professional\VC\Tools\MSVC\14.44.35207\include\xmemory

; 289  :         ::operator delete(_Ptr, _Bytes);

  00030	6a 18		 push	 24			; 00000018H
  00032	ff 37		 push	 DWORD PTR [edi]
  00034	e8 00 00 00 00	 call	 ??3@YAXPAXI@Z		; operator delete
  00039	83 c4 08	 add	 esp, 8
  0003c	5f		 pop	 edi
  0003d	5e		 pop	 esi
; File C:\Program Files\Microsoft Visual Studio\2022\Professional\VC\Tools\MSVC\14.44.35207\include\xtree

; 1102 :     }

  0003e	c3		 ret	 0
??1?$_Tree@V?$_Tmap_traits@EPAVCSecretRoomContinent@@U?$less@E@std@@V?$allocator@U?$pair@$$CBEPAVCSecretRoomContinent@@@std@@@3@$0A@@std@@@std@@QAE@XZ ENDP ; std::_Tree<std::_Tmap_traits<unsigned char,CSecretRoomContinent *,std::less<unsigned char>,std::allocator<std::pair<unsigned char const ,CSecretRoomContinent *> >,0> >::~_Tree<std::_Tmap_traits<unsigned char,CSecretRoomContinent *,std::less<unsigned char>,std::allocator<std::pair<unsigned char const ,CSecretRoomContinent *> >,0> >
_TEXT	ENDS
; Function compile flags: /Ogtp
; File C:\IAGOS\server\v18\Source\Source\_Common\SecretRoom.cpp
;	COMDAT ?IsInTheSecretRoom@CSecretRoomMng@@QAEHPAVCMover@@@Z
_TEXT	SEGMENT
_pMover$ = 8						; size = 4
?IsInTheSecretRoom@CSecretRoomMng@@QAEHPAVCMover@@@Z PROC ; CSecretRoomMng::IsInTheSecretRoom, COMDAT
; _this$ = ecx

; 65   : {

  00000	55		 push	 ebp
  00001	8b ec		 mov	 ebp, esp

; 66   : 	CWorld* pWorld = pMover->GetWorld();

  00003	8b 45 08	 mov	 eax, DWORD PTR _pMover$[ebp]
  00006	8b 80 6c 01 00
	00		 mov	 eax, DWORD PTR [eax+364]

; 67   : 	if( pWorld && pWorld->GetID() >= WI_DUNGEON_SECRET_1 && pWorld->GetID() <= WI_DUNGEON_SECRET_L )

  0000c	85 c0		 test	 eax, eax
  0000e	74 15		 je	 SHORT $LN2@IsInTheSec
  00010	8b 00		 mov	 eax, DWORD PTR [eax]
  00012	b9 0f 00 00 00	 mov	 ecx, 15			; 0000000fH
  00017	2d 98 00 00 00	 sub	 eax, 152		; 00000098H
  0001c	3b c8		 cmp	 ecx, eax
  0001e	1b c0		 sbb	 eax, eax
  00020	40		 inc	 eax

; 71   : }

  00021	5d		 pop	 ebp
  00022	c2 04 00	 ret	 4
$LN2@IsInTheSec:

; 68   : 		return TRUE;
; 69   : 
; 70   : 	return FALSE;

  00025	33 c0		 xor	 eax, eax

; 71   : }

  00027	5d		 pop	 ebp
  00028	c2 04 00	 ret	 4
?IsInTheSecretRoom@CSecretRoomMng@@QAEHPAVCMover@@@Z ENDP ; CSecretRoomMng::IsInTheSecretRoom
_TEXT	ENDS
; Function compile flags: /Ogtp
; File C:\IAGOS\server\v18\Source\Source\_Common\SecretRoom.cpp
;	COMDAT ?GetContinent@CSecretRoomMng@@QAEEPAVCMover@@@Z
_TEXT	SEGMENT
_pMover$ = 8						; size = 4
?GetContinent@CSecretRoomMng@@QAEEPAVCMover@@@Z PROC	; CSecretRoomMng::GetContinent, COMDAT
; _this$ = ecx

; 60   : {

  00000	55		 push	 ebp
  00001	8b ec		 mov	 ebp, esp

; 61   : 	return CContinent::GetInstance()->GetArea( pMover );

  00003	ff 75 08	 push	 DWORD PTR _pMover$[ebp]
  00006	e8 00 00 00 00	 call	 ?GetInstance@CContinent@@SAPAV1@XZ ; CContinent::GetInstance
  0000b	8b c8		 mov	 ecx, eax
  0000d	e8 00 00 00 00	 call	 ?GetArea@CContinent@@QAEEPAVCMover@@@Z ; CContinent::GetArea

; 62   : }

  00012	5d		 pop	 ebp
  00013	c2 04 00	 ret	 4
?GetContinent@CSecretRoomMng@@QAEEPAVCMover@@@Z ENDP	; CSecretRoomMng::GetContinent
_TEXT	ENDS
; Function compile flags: /Ogtp
; File C:\IAGOS\server\v18\Source\Source\_Common\SecretRoom.cpp
;	COMDAT ?GetInstance@CSecretRoomMng@@SAPAV1@XZ
_TEXT	SEGMENT
__$EHRec$ = -12						; size = 12
?GetInstance@CSecretRoomMng@@SAPAV1@XZ PROC		; CSecretRoomMng::GetInstance, COMDAT

; 54   : {	

  00000	55		 push	 ebp
  00001	8b ec		 mov	 ebp, esp
  00003	6a ff		 push	 -1
  00005	68 00 00 00 00	 push	 __ehhandler$?GetInstance@CSecretRoomMng@@SAPAV1@XZ
  0000a	64 a1 00 00 00
	00		 mov	 eax, DWORD PTR fs:0
  00010	50		 push	 eax
  00011	a1 00 00 00 00	 mov	 eax, DWORD PTR ___security_cookie
  00016	33 c5		 xor	 eax, ebp
  00018	50		 push	 eax
  00019	8d 45 f4	 lea	 eax, DWORD PTR __$EHRec$[ebp]
  0001c	64 a3 00 00 00
	00		 mov	 DWORD PTR fs:0, eax

; 55   : 	static CSecretRoomMng sSecretRoomMng;

  00022	64 a1 00 00 00
	00		 mov	 eax, DWORD PTR fs:__tls_array
  00028	8b 0d 00 00 00
	00		 mov	 ecx, DWORD PTR __tls_index
  0002e	8b 0c 88	 mov	 ecx, DWORD PTR [eax+ecx*4]
  00031	a1 00 00 00 00	 mov	 eax, DWORD PTR ?$TSS0@?1??GetInstance@CSecretRoomMng@@SAPAV2@XZ@4HA
  00036	3b 81 00 00 00
	00		 cmp	 eax, DWORD PTR __Init_thread_epoch[ecx]
  0003c	7f 14		 jg	 SHORT $LN9@GetInstanc
$LN5@GetInstanc:

; 56   : 	return &sSecretRoomMng;
; 57   : }

  0003e	b8 00 00 00 00	 mov	 eax, OFFSET ?sSecretRoomMng@?1??GetInstance@CSecretRoomMng@@SAPAV2@XZ@4V2@A
  00043	8b 4d f4	 mov	 ecx, DWORD PTR __$EHRec$[ebp]
  00046	64 89 0d 00 00
	00 00		 mov	 DWORD PTR fs:0, ecx
  0004d	59		 pop	 ecx
  0004e	8b e5		 mov	 esp, ebp
  00050	5d		 pop	 ebp
  00051	c3		 ret	 0
$LN9@GetInstanc:

; 55   : 	static CSecretRoomMng sSecretRoomMng;

  00052	68 00 00 00 00	 push	 OFFSET ?$TSS0@?1??GetInstance@CSecretRoomMng@@SAPAV2@XZ@4HA
  00057	e8 00 00 00 00	 call	 __Init_thread_header
  0005c	83 c4 04	 add	 esp, 4
  0005f	83 3d 00 00 00
	00 ff		 cmp	 DWORD PTR ?$TSS0@?1??GetInstance@CSecretRoomMng@@SAPAV2@XZ@4HA, -1
  00066	75 d6		 jne	 SHORT $LN5@GetInstanc
  00068	b9 00 00 00 00	 mov	 ecx, OFFSET ?sSecretRoomMng@?1??GetInstance@CSecretRoomMng@@SAPAV2@XZ@4V2@A
  0006d	c7 45 fc 00 00
	00 00		 mov	 DWORD PTR __$EHRec$[ebp+8], 0
  00074	e8 00 00 00 00	 call	 ??0CSecretRoomMng@@QAE@XZ ; CSecretRoomMng::CSecretRoomMng
  00079	68 00 00 00 00	 push	 OFFSET ??__FsSecretRoomMng@?1??GetInstance@CSecretRoomMng@@SAPAV1@XZ@YAXXZ ; `CSecretRoomMng::GetInstance'::`2'::`dynamic atexit destructor for 'sSecretRoomMng''
  0007e	e8 00 00 00 00	 call	 _atexit
  00083	68 00 00 00 00	 push	 OFFSET ?$TSS0@?1??GetInstance@CSecretRoomMng@@SAPAV2@XZ@4HA
  00088	e8 00 00 00 00	 call	 __Init_thread_footer
  0008d	83 c4 08	 add	 esp, 8
  00090	eb ac		 jmp	 SHORT $LN5@GetInstanc
_TEXT	ENDS
;	COMDAT text$x
text$x	SEGMENT
__unwindfunclet$?GetInstance@CSecretRoomMng@@SAPAV1@XZ$0:
  00000	68 00 00 00 00	 push	 OFFSET ?$TSS0@?1??GetInstance@CSecretRoomMng@@SAPAV2@XZ@4HA
  00005	e8 00 00 00 00	 call	 __Init_thread_abort
  0000a	59		 pop	 ecx
  0000b	c3		 ret	 0
  0000c	cc		 int	 3
  0000d	cc		 int	 3
  0000e	cc		 int	 3
  0000f	cc		 int	 3
  00010	cc		 int	 3
__ehhandler$?GetInstance@CSecretRoomMng@@SAPAV1@XZ:
  00011	90		 npad	 1
  00012	90		 npad	 1
  00013	8b 54 24 08	 mov	 edx, DWORD PTR [esp+8]
  00017	8d 42 0c	 lea	 eax, DWORD PTR [edx+12]
  0001a	8b 4a fc	 mov	 ecx, DWORD PTR [edx-4]
  0001d	33 c8		 xor	 ecx, eax
  0001f	e8 00 00 00 00	 call	 @__security_check_cookie@4
  00024	b8 00 00 00 00	 mov	 eax, OFFSET __ehfuncinfo$?GetInstance@CSecretRoomMng@@SAPAV1@XZ
  00029	e9 00 00 00 00	 jmp	 ___CxxFrameHandler3
text$x	ENDS
?GetInstance@CSecretRoomMng@@SAPAV1@XZ ENDP		; CSecretRoomMng::GetInstance
; Function compile flags: /Ogtp
; File C:\IAGOS\server\v18\Source\Source\_Common\SecretRoom.cpp
; File C:\Program Files\Microsoft Visual Studio\2022\Professional\VC\Tools\MSVC\14.44.35207\include\xtree
; File C:\IAGOS\server\v18\Source\Source\_Common\SecretRoom.cpp
; File C:\Program Files\Microsoft Visual Studio\2022\Professional\VC\Tools\MSVC\14.44.35207\include\xtree
; File C:\IAGOS\server\v18\Source\Source\_Common\SecretRoom.cpp
; File C:\Program Files\Microsoft Visual Studio\2022\Professional\VC\Tools\MSVC\14.44.35207\include\vector
; File C:\IAGOS\server\v18\Source\Source\_Common\SecretRoom.cpp
; File C:\Program Files\Microsoft Visual Studio\2022\Professional\VC\Tools\MSVC\14.44.35207\include\vector
; File C:\IAGOS\server\v18\Source\Source\_Common\SecretRoom.cpp
; File C:\Program Files\Microsoft Visual Studio\2022\Professional\VC\Tools\MSVC\14.44.35207\include\vector
; File C:\IAGOS\server\v18\Source\Source\_Common\SecretRoom.cpp
;	COMDAT ??1CSecretRoomMng@@UAE@XZ
_TEXT	SEGMENT
??1CSecretRoomMng@@UAE@XZ PROC				; CSecretRoomMng::~CSecretRoomMng, COMDAT
; _this$ = ecx

; 44   : {

  00000	53		 push	 ebx
  00001	8b d9		 mov	 ebx, ecx
  00003	56		 push	 esi
  00004	57		 push	 edi
  00005	c7 03 00 00 00
	00		 mov	 DWORD PTR [ebx], OFFSET ??_7CSecretRoomMng@@6B@
; File C:\Program Files\Microsoft Visual Studio\2022\Professional\VC\Tools\MSVC\14.44.35207\include\xtree

; 1142 :         return iterator(_Scary->_Myhead->_Left, _Scary);

  0000b	8b 43 04	 mov	 eax, DWORD PTR [ebx+4]

; 37   :     _Tree_unchecked_const_iterator(_Nodeptr _Pnode, const _Mytree* _Plist) noexcept : _Ptr(_Pnode) {

  0000e	8b 30		 mov	 esi, DWORD PTR [eax]

; 237  :         return !(*this == _Right);

  00010	3b f0		 cmp	 esi, eax
; File C:\IAGOS\server\v18\Source\Source\_Common\SecretRoom.cpp

; 46   : 	for( ; it!=m_mapSecretRoomContinent.end(); it++ )

  00012	74 4e		 je	 SHORT $LN3@CSecretRoo
$LL4@CSecretRoo:

; 47   : 	{
; 48   : 		if( it->second )

  00014	8b 4e 14	 mov	 ecx, DWORD PTR [esi+20]
  00017	85 c9		 test	 ecx, ecx
  00019	74 06		 je	 SHORT $LN2@CSecretRoo

; 49   : 			safe_delete( it->second );

  0001b	8b 01		 mov	 eax, DWORD PTR [ecx]
  0001d	6a 01		 push	 1
  0001f	ff 10		 call	 DWORD PTR [eax]
$LN2@CSecretRoo:
; File C:\Program Files\Microsoft Visual Studio\2022\Professional\VC\Tools\MSVC\14.44.35207\include\xtree

; 50   :         if (_Ptr->_Right->_Isnil) { // climb looking for right subtree

  00021	8b 46 08	 mov	 eax, DWORD PTR [esi+8]
  00024	80 78 0d 00	 cmp	 BYTE PTR [eax+13], 0
  00028	74 1d		 je	 SHORT $LN31@CSecretRoo

; 51   :             _Nodeptr _Pnode;
; 52   :             while (!(_Pnode = _Ptr->_Parent)->_Isnil && _Ptr == _Pnode->_Right) {

  0002a	8b 46 04	 mov	 eax, DWORD PTR [esi+4]
  0002d	80 78 0d 00	 cmp	 BYTE PTR [eax+13], 0
  00031	75 10		 jne	 SHORT $LN107@CSecretRoo
$LL29@CSecretRoo:
  00033	3b 70 08	 cmp	 esi, DWORD PTR [eax+8]
  00036	75 0b		 jne	 SHORT $LN107@CSecretRoo

; 53   :                 _Ptr = _Pnode; // ==> parent while right subtree

  00038	8b f0		 mov	 esi, eax
  0003a	8b 40 04	 mov	 eax, DWORD PTR [eax+4]
  0003d	80 78 0d 00	 cmp	 BYTE PTR [eax+13], 0
  00041	74 f0		 je	 SHORT $LL29@CSecretRoo
$LN107@CSecretRoo:

; 54   :             }
; 55   : 
; 56   :             _Ptr = _Pnode; // ==> parent (head if end())

  00043	8b f0		 mov	 esi, eax

; 57   :         } else {

  00045	eb 16		 jmp	 SHORT $LN37@CSecretRoo
$LN31@CSecretRoo:

; 58   :             _Ptr = _Mytree::_Min(_Ptr->_Right); // ==> smallest of right subtree

  00047	8b f0		 mov	 esi, eax

; 476  :         while (!_Pnode->_Left->_Isnil) {

  00049	8b 0e		 mov	 ecx, DWORD PTR [esi]
  0004b	80 79 0d 00	 cmp	 BYTE PTR [ecx+13], 0
  0004f	75 0c		 jne	 SHORT $LN37@CSecretRoo
$LL36@CSecretRoo:
  00051	8b 01		 mov	 eax, DWORD PTR [ecx]

; 477  :             _Pnode = _Pnode->_Left;

  00053	8b f1		 mov	 esi, ecx
  00055	8b c8		 mov	 ecx, eax
  00057	80 78 0d 00	 cmp	 BYTE PTR [eax+13], 0
  0005b	74 f4		 je	 SHORT $LL36@CSecretRoo
$LN37@CSecretRoo:

; 237  :         return !(*this == _Right);

  0005d	3b 73 04	 cmp	 esi, DWORD PTR [ebx+4]
; File C:\IAGOS\server\v18\Source\Source\_Common\SecretRoom.cpp

; 46   : 	for( ; it!=m_mapSecretRoomContinent.end(); it++ )

  00060	75 b2		 jne	 SHORT $LL4@CSecretRoo
$LN3@CSecretRoo:

; 51   : }

  00062	8d 4b 64	 lea	 ecx, DWORD PTR [ebx+100]
; File C:\Program Files\Microsoft Visual Studio\2022\Professional\VC\Tools\MSVC\14.44.35207\include\vector

; 830  :         _Tidy();

  00065	e8 00 00 00 00	 call	 ?_Tidy@?$vector@U__SECRETROOM_MONSTER@@V?$allocator@U__SECRETROOM_MONSTER@@@std@@@std@@AAEXXZ ; std::vector<__SECRETROOM_MONSTER,std::allocator<__SECRETROOM_MONSTER> >::_Tidy
; File C:\IAGOS\server\v18\Source\Source\_Common\SecretRoom.cpp

; 51   : }

  0006a	8d 4b 58	 lea	 ecx, DWORD PTR [ebx+88]
; File C:\Program Files\Microsoft Visual Studio\2022\Professional\VC\Tools\MSVC\14.44.35207\include\vector

; 830  :         _Tidy();

  0006d	e8 00 00 00 00	 call	 ?_Tidy@?$vector@U__SECRETROOM_MONSTER@@V?$allocator@U__SECRETROOM_MONSTER@@@std@@@std@@AAEXXZ ; std::vector<__SECRETROOM_MONSTER,std::allocator<__SECRETROOM_MONSTER> >::_Tidy
; File C:\IAGOS\server\v18\Source\Source\_Common\SecretRoom.cpp

; 51   : }

  00072	8d 4b 4c	 lea	 ecx, DWORD PTR [ebx+76]
; File C:\Program Files\Microsoft Visual Studio\2022\Professional\VC\Tools\MSVC\14.44.35207\include\vector

; 830  :         _Tidy();

  00075	e8 00 00 00 00	 call	 ?_Tidy@?$vector@U__SECRETROOM_MONSTER@@V?$allocator@U__SECRETROOM_MONSTER@@@std@@@std@@AAEXXZ ; std::vector<__SECRETROOM_MONSTER,std::allocator<__SECRETROOM_MONSTER> >::_Tidy
; File C:\IAGOS\server\v18\Source\Source\_Common\SecretRoom.cpp

; 51   : }

  0007a	8d 4b 44	 lea	 ecx, DWORD PTR [ebx+68]
  0007d	e8 00 00 00 00	 call	 ??1CLuaBase@@UAE@XZ	; CLuaBase::~CLuaBase
  00082	8d 4b 3c	 lea	 ecx, DWORD PTR [ebx+60]
  00085	e8 00 00 00 00	 call	 ??1?$_Tree@V?$_Tmap_traits@HHU?$less@H@std@@V?$allocator@U?$pair@$$CBHH@std@@@2@$0A@@std@@@std@@QAE@XZ ; std::_Tree<std::_Tmap_traits<int,int,std::less<int>,std::allocator<std::pair<int const ,int> >,0> >::~_Tree<std::_Tmap_traits<int,int,std::less<int>,std::allocator<std::pair<int const ,int> >,0> >
  0008a	5f		 pop	 edi
  0008b	5e		 pop	 esi
  0008c	8d 4b 04	 lea	 ecx, DWORD PTR [ebx+4]
  0008f	5b		 pop	 ebx
  00090	e9 00 00 00 00	 jmp	 ??1?$_Tree@V?$_Tmap_traits@EPAVCSecretRoomContinent@@U?$less@E@std@@V?$allocator@U?$pair@$$CBEPAVCSecretRoomContinent@@@std@@@3@$0A@@std@@@std@@QAE@XZ ; std::_Tree<std::_Tmap_traits<unsigned char,CSecretRoomContinent *,std::less<unsigned char>,std::allocator<std::pair<unsigned char const ,CSecretRoomContinent *> >,0> >::~_Tree<std::_Tmap_traits<unsigned char,CSecretRoomContinent *,std::less<unsigned char>,std::allocator<std::pair<unsigned char const ,CSecretRoomContinent *> >,0> >
??1CSecretRoomMng@@UAE@XZ ENDP				; CSecretRoomMng::~CSecretRoomMng
_TEXT	ENDS
; Function compile flags: /Ogtp
; File C:\IAGOS\server\v18\Source\Source\_Common\SecretRoom.cpp
; File C:\Program Files\Microsoft Visual Studio\2022\Professional\VC\Tools\MSVC\14.44.35207\include\xmemory
; File C:\Program Files\Microsoft Visual Studio\2022\Professional\VC\Tools\MSVC\14.44.35207\include\xtree
; File C:\Program Files\Microsoft Visual Studio\2022\Professional\VC\Tools\MSVC\14.44.35207\include\xmemory
; File C:\Program Files\Microsoft Visual Studio\2022\Professional\VC\Tools\MSVC\14.44.35207\include\xtree
; File C:\IAGOS\server\v18\Source\Source\_Common\SecretRoom.cpp
; File C:\Program Files\Microsoft Visual Studio\2022\Professional\VC\Tools\MSVC\14.44.35207\include\xmemory
; File C:\Program Files\Microsoft Visual Studio\2022\Professional\VC\Tools\MSVC\14.44.35207\include\xtree
; File C:\Program Files\Microsoft Visual Studio\2022\Professional\VC\Tools\MSVC\14.44.35207\include\xmemory
; File C:\Program Files\Microsoft Visual Studio\2022\Professional\VC\Tools\MSVC\14.44.35207\include\xtree
; File C:\IAGOS\server\v18\Source\Source\_Common\SecretRoom.cpp
; File C:\Program Files\Microsoft Visual Studio\2022\Professional\VC\Tools\MSVC\14.44.35207\include\vector
; File C:\IAGOS\server\v18\Source\Source\_Common\SecretRoom.cpp
; File C:\Program Files\Microsoft Visual Studio\2022\Professional\VC\Tools\MSVC\14.44.35207\include\utility
; File C:\IAGOS\server\v18\Source\Source\_Common\SecretRoom.cpp
; File C:\Program Files\Microsoft Visual Studio\2022\Professional\VC\Tools\MSVC\14.44.35207\include\utility
; File C:\IAGOS\server\v18\Source\Source\_Common\SecretRoom.cpp
; File C:\Program Files\Microsoft Visual Studio\2022\Professional\VC\Tools\MSVC\14.44.35207\include\utility
; File C:\IAGOS\server\v18\Source\Source\_Common\SecretRoom.cpp
; File C:\Program Files\Microsoft Visual Studio\2022\Professional\VC\Tools\MSVC\14.44.35207\include\utility
; File C:\IAGOS\server\v18\Source\Source\_Common\SecretRoom.cpp
;	COMDAT ??0CSecretRoomMng@@QAE@XZ
_TEXT	SEGMENT
$T2 = -32						; size = 8
$T3 = -32						; size = 8
$T4 = -24						; size = 8
$T5 = -24						; size = 8
$T6 = -20						; size = 4
$T7 = -20						; size = 4
_this$ = -20						; size = 4
_this$ = -20						; size = 4
_this$ = -16						; size = 4
__$EHRec$ = -12						; size = 12
??0CSecretRoomMng@@QAE@XZ PROC				; CSecretRoomMng::CSecretRoomMng, COMDAT
; _this$ = ecx

; 31   : {

  00000	55		 push	 ebp
  00001	8b ec		 mov	 ebp, esp
  00003	6a ff		 push	 -1
  00005	68 00 00 00 00	 push	 __ehhandler$??0CSecretRoomMng@@QAE@XZ
  0000a	64 a1 00 00 00
	00		 mov	 eax, DWORD PTR fs:0
  00010	50		 push	 eax
  00011	83 ec 14	 sub	 esp, 20			; 00000014H
  00014	53		 push	 ebx
  00015	56		 push	 esi
  00016	57		 push	 edi
  00017	a1 00 00 00 00	 mov	 eax, DWORD PTR ___security_cookie
  0001c	33 c5		 xor	 eax, ebp
  0001e	50		 push	 eax
  0001f	8d 45 f4	 lea	 eax, DWORD PTR __$EHRec$[ebp]
  00022	64 a3 00 00 00
	00		 mov	 DWORD PTR fs:0, eax
  00028	8b f9		 mov	 edi, ecx
  0002a	89 7d f0	 mov	 DWORD PTR _this$[ebp], edi
  0002d	8d 5f 04	 lea	 ebx, DWORD PTR [edi+4]
  00030	c7 07 00 00 00
	00		 mov	 DWORD PTR [edi], OFFSET ??_7CSecretRoomMng@@6B@
  00036	89 5d ec	 mov	 DWORD PTR _this$[ebp], ebx
; File C:\Program Files\Microsoft Visual Studio\2022\Professional\VC\Tools\MSVC\14.44.35207\include\xmemory

; 136  :         return ::operator new(_Bytes);

  00039	6a 18		 push	 24			; 00000018H
; File C:\Program Files\Microsoft Visual Studio\2022\Professional\VC\Tools\MSVC\14.44.35207\include\xtree

; 450  :     _Tree_val() noexcept : _Myhead(), _Mysize(0) {}

  0003b	c7 03 00 00 00
	00		 mov	 DWORD PTR [ebx], 0
  00041	c7 43 04 00 00
	00 00		 mov	 DWORD PTR [ebx+4], 0
; File C:\Program Files\Microsoft Visual Studio\2022\Professional\VC\Tools\MSVC\14.44.35207\include\xmemory

; 136  :         return ::operator new(_Bytes);

  00048	e8 00 00 00 00	 call	 ??2@YAPAXI@Z		; operator new
; File C:\Program Files\Microsoft Visual Studio\2022\Professional\VC\Tools\MSVC\14.44.35207\include\xtree

; 346  :         _Construct_in_place(_Pnode->_Left, _Pnode);

  0004d	89 00		 mov	 DWORD PTR [eax], eax

; 347  :         _Construct_in_place(_Pnode->_Parent, _Pnode);

  0004f	89 40 04	 mov	 DWORD PTR [eax+4], eax

; 348  :         _Construct_in_place(_Pnode->_Right, _Pnode);

  00052	89 40 08	 mov	 DWORD PTR [eax+8], eax

; 349  :         _Pnode->_Color = _Black;

  00055	66 c7 40 0c 01
	01		 mov	 WORD PTR [eax+12], 257	; 00000101H

; 1957 :         _Scary->_Myhead = _Node::_Buyheadnode(_Getal());

  0005b	89 03		 mov	 DWORD PTR [ebx], eax
; File C:\IAGOS\server\v18\Source\Source\_Common\SecretRoom.cpp

; 31   : {

  0005d	8d 77 3c	 lea	 esi, DWORD PTR [edi+60]
  00060	c7 45 fc 00 00
	00 00		 mov	 DWORD PTR __$EHRec$[ebp+8], 0
  00067	89 75 ec	 mov	 DWORD PTR _this$[ebp], esi
; File C:\Program Files\Microsoft Visual Studio\2022\Professional\VC\Tools\MSVC\14.44.35207\include\xmemory

; 136  :         return ::operator new(_Bytes);

  0006a	6a 18		 push	 24			; 00000018H
; File C:\Program Files\Microsoft Visual Studio\2022\Professional\VC\Tools\MSVC\14.44.35207\include\xtree

; 450  :     _Tree_val() noexcept : _Myhead(), _Mysize(0) {}

  0006c	c7 06 00 00 00
	00		 mov	 DWORD PTR [esi], 0
  00072	c7 46 04 00 00
	00 00		 mov	 DWORD PTR [esi+4], 0
; File C:\Program Files\Microsoft Visual Studio\2022\Professional\VC\Tools\MSVC\14.44.35207\include\xmemory

; 136  :         return ::operator new(_Bytes);

  00079	e8 00 00 00 00	 call	 ??2@YAPAXI@Z		; operator new
  0007e	83 c4 08	 add	 esp, 8
; File C:\Program Files\Microsoft Visual Studio\2022\Professional\VC\Tools\MSVC\14.44.35207\include\xtree

; 346  :         _Construct_in_place(_Pnode->_Left, _Pnode);

  00081	89 00		 mov	 DWORD PTR [eax], eax

; 347  :         _Construct_in_place(_Pnode->_Parent, _Pnode);

  00083	89 40 04	 mov	 DWORD PTR [eax+4], eax

; 348  :         _Construct_in_place(_Pnode->_Right, _Pnode);

  00086	89 40 08	 mov	 DWORD PTR [eax+8], eax

; 349  :         _Pnode->_Color = _Black;

  00089	66 c7 40 0c 01
	01		 mov	 WORD PTR [eax+12], 257	; 00000101H

; 1957 :         _Scary->_Myhead = _Node::_Buyheadnode(_Getal());

  0008f	89 06		 mov	 DWORD PTR [esi], eax
; File C:\IAGOS\server\v18\Source\Source\_Common\SecretRoom.cpp

; 31   : {

  00091	8d 4f 44	 lea	 ecx, DWORD PTR [edi+68]
  00094	c6 45 fc 01	 mov	 BYTE PTR __$EHRec$[ebp+8], 1
  00098	e8 00 00 00 00	 call	 ??0CLuaBase@@QAE@XZ	; CLuaBase::CLuaBase
; File C:\Program Files\Microsoft Visual Studio\2022\Professional\VC\Tools\MSVC\14.44.35207\include\vector

; 400  :     _CONSTEXPR20 _Vector_val() noexcept : _Myfirst(), _Mylast(), _Myend() {}

  0009d	c7 47 4c 00 00
	00 00		 mov	 DWORD PTR [edi+76], 0
  000a4	c7 47 50 00 00
	00 00		 mov	 DWORD PTR [edi+80], 0
  000ab	c7 47 54 00 00
	00 00		 mov	 DWORD PTR [edi+84], 0
  000b2	c7 47 58 00 00
	00 00		 mov	 DWORD PTR [edi+88], 0
  000b9	c7 47 5c 00 00
	00 00		 mov	 DWORD PTR [edi+92], 0
  000c0	c7 47 60 00 00
	00 00		 mov	 DWORD PTR [edi+96], 0
  000c7	c7 47 64 00 00
	00 00		 mov	 DWORD PTR [edi+100], 0
  000ce	c7 47 68 00 00
	00 00		 mov	 DWORD PTR [edi+104], 0
  000d5	c7 47 6c 00 00
	00 00		 mov	 DWORD PTR [edi+108], 0
; File C:\IAGOS\server\v18\Source\Source\_Common\SecretRoom.cpp

; 32   : 	m_mapSecretRoomContinent.insert( make_pair( CONT_EAST, new CSecretRoomContinent(CONT_EAST) ) );

  000dc	6a 20		 push	 32			; 00000020H
  000de	c6 45 fc 05	 mov	 BYTE PTR __$EHRec$[ebp+8], 5
  000e2	e8 00 00 00 00	 call	 ??2@YAPAXI@Z		; operator new
  000e7	83 c4 04	 add	 esp, 4
  000ea	89 45 ec	 mov	 DWORD PTR $T6[ebp], eax
  000ed	85 c0		 test	 eax, eax
  000ef	74 0b		 je	 SHORT $LN3@CSecretRoo
  000f1	6a 0f		 push	 15			; 0000000fH
  000f3	8b c8		 mov	 ecx, eax
  000f5	e8 00 00 00 00	 call	 ??0CSecretRoomContinent@@QAE@E@Z ; CSecretRoomContinent::CSecretRoomContinent
  000fa	eb 02		 jmp	 SHORT $LN4@CSecretRoo
$LN3@CSecretRoo:
  000fc	33 c0		 xor	 eax, eax
$LN4@CSecretRoo:
; File C:\Program Files\Microsoft Visual Studio\2022\Professional\VC\Tools\MSVC\14.44.35207\include\utility

; 274  :         : first(_STD forward<_Other1>(_Val1)), second(_STD forward<_Other2>(_Val2)) {

  000fe	89 45 ec	 mov	 DWORD PTR $T4[ebp+4], eax
; File C:\IAGOS\server\v18\Source\Source\_Common\SecretRoom.cpp

; 32   : 	m_mapSecretRoomContinent.insert( make_pair( CONT_EAST, new CSecretRoomContinent(CONT_EAST) ) );

  00101	8b cb		 mov	 ecx, ebx
  00103	8d 45 e8	 lea	 eax, DWORD PTR $T4[ebp]
; File C:\Program Files\Microsoft Visual Studio\2022\Professional\VC\Tools\MSVC\14.44.35207\include\utility

; 274  :         : first(_STD forward<_Other1>(_Val1)), second(_STD forward<_Other2>(_Val2)) {

  00106	c7 45 e8 0f 00
	00 00		 mov	 DWORD PTR $T4[ebp], 15	; 0000000fH
; File C:\IAGOS\server\v18\Source\Source\_Common\SecretRoom.cpp

; 32   : 	m_mapSecretRoomContinent.insert( make_pair( CONT_EAST, new CSecretRoomContinent(CONT_EAST) ) );

  0010d	50		 push	 eax
  0010e	8d 45 e0	 lea	 eax, DWORD PTR $T2[ebp]
  00111	50		 push	 eax
  00112	e8 00 00 00 00	 call	 ??$insert@U?$pair@HPAVCSecretRoomContinent@@@std@@$0A@@?$map@EPAVCSecretRoomContinent@@U?$less@E@std@@V?$allocator@U?$pair@$$CBEPAVCSecretRoomContinent@@@std@@@3@@std@@QAE?AU?$pair@V?$_Tree_iterator@V?$_Tree_val@U?$_Tree_simple_types@U?$pair@$$CBEPAVCSecretRoomContinent@@@std@@@std@@@std@@@std@@_N@1@$$QAU?$pair@HPAVCSecretRoomContinent@@@1@@Z ; std::map<unsigned char,CSecretRoomContinent *,std::less<unsigned char>,std::allocator<std::pair<unsigned char const ,CSecretRoomContinent *> > >::insert<std::pair<int,CSecretRoomContinent *>,0>

; 33   : 	m_mapSecretRoomContinent.insert( make_pair( CONT_WEST, new CSecretRoomContinent(CONT_WEST) ) );

  00117	6a 20		 push	 32			; 00000020H
  00119	e8 00 00 00 00	 call	 ??2@YAPAXI@Z		; operator new
  0011e	83 c4 04	 add	 esp, 4
  00121	89 45 ec	 mov	 DWORD PTR $T7[ebp], eax
  00124	85 c0		 test	 eax, eax
  00126	74 0e		 je	 SHORT $LN5@CSecretRoo
  00128	68 f0 00 00 00	 push	 240			; 000000f0H
  0012d	8b c8		 mov	 ecx, eax
  0012f	e8 00 00 00 00	 call	 ??0CSecretRoomContinent@@QAE@E@Z ; CSecretRoomContinent::CSecretRoomContinent
  00134	eb 02		 jmp	 SHORT $LN6@CSecretRoo
$LN5@CSecretRoo:
  00136	33 c0		 xor	 eax, eax
$LN6@CSecretRoo:
; File C:\Program Files\Microsoft Visual Studio\2022\Professional\VC\Tools\MSVC\14.44.35207\include\utility

; 274  :         : first(_STD forward<_Other1>(_Val1)), second(_STD forward<_Other2>(_Val2)) {

  00138	89 45 ec	 mov	 DWORD PTR $T5[ebp+4], eax
; File C:\IAGOS\server\v18\Source\Source\_Common\SecretRoom.cpp

; 33   : 	m_mapSecretRoomContinent.insert( make_pair( CONT_WEST, new CSecretRoomContinent(CONT_WEST) ) );

  0013b	8b cb		 mov	 ecx, ebx
  0013d	8d 45 e8	 lea	 eax, DWORD PTR $T5[ebp]
; File C:\Program Files\Microsoft Visual Studio\2022\Professional\VC\Tools\MSVC\14.44.35207\include\utility

; 274  :         : first(_STD forward<_Other1>(_Val1)), second(_STD forward<_Other2>(_Val2)) {

  00140	c7 45 e8 f0 00
	00 00		 mov	 DWORD PTR $T5[ebp], 240	; 000000f0H
; File C:\IAGOS\server\v18\Source\Source\_Common\SecretRoom.cpp

; 33   : 	m_mapSecretRoomContinent.insert( make_pair( CONT_WEST, new CSecretRoomContinent(CONT_WEST) ) );

  00147	50		 push	 eax
  00148	8d 45 e0	 lea	 eax, DWORD PTR $T3[ebp]
  0014b	50		 push	 eax
  0014c	e8 00 00 00 00	 call	 ??$insert@U?$pair@HPAVCSecretRoomContinent@@@std@@$0A@@?$map@EPAVCSecretRoomContinent@@U?$less@E@std@@V?$allocator@U?$pair@$$CBEPAVCSecretRoomContinent@@@std@@@3@@std@@QAE?AU?$pair@V?$_Tree_iterator@V?$_Tree_val@U?$_Tree_simple_types@U?$pair@$$CBEPAVCSecretRoomContinent@@@std@@@std@@@std@@@std@@_N@1@$$QAU?$pair@HPAVCSecretRoomContinent@@@1@@Z ; std::map<unsigned char,CSecretRoomContinent *,std::less<unsigned char>,std::allocator<std::pair<unsigned char const ,CSecretRoomContinent *> > >::insert<std::pair<int,CSecretRoomContinent *>,0>

; 34   : 
; 35   : 	m_nState = SRMNG_CLOSE;

  00151	c7 47 34 01 00
	00 00		 mov	 DWORD PTR [edi+52], 1

; 36   : 	m_dwRemainTime = 0;
; 37   : 
; 38   : #ifdef __CLIENT
; 39   : 	m_pSRCont = NULL;
; 40   : #endif // __CLIENT
; 41   : }

  00158	8b c7		 mov	 eax, edi
  0015a	c7 47 38 00 00
	00 00		 mov	 DWORD PTR [edi+56], 0
  00161	8b 4d f4	 mov	 ecx, DWORD PTR __$EHRec$[ebp]
  00164	64 89 0d 00 00
	00 00		 mov	 DWORD PTR fs:0, ecx
  0016b	59		 pop	 ecx
  0016c	5f		 pop	 edi
  0016d	5e		 pop	 esi
  0016e	5b		 pop	 ebx
  0016f	8b e5		 mov	 esp, ebp
  00171	5d		 pop	 ebp
  00172	c3		 ret	 0
_TEXT	ENDS
;	COMDAT text$x
text$x	SEGMENT
__unwindfunclet$??0CSecretRoomMng@@QAE@XZ$0:
  00000	8b 4d f0	 mov	 ecx, DWORD PTR _this$[ebp]
  00003	83 c1 04	 add	 ecx, 4
  00006	e9 00 00 00 00	 jmp	 ??1?$map@EPAVCSecretRoomContinent@@U?$less@E@std@@V?$allocator@U?$pair@$$CBEPAVCSecretRoomContinent@@@std@@@3@@std@@QAE@XZ
__unwindfunclet$??0CSecretRoomMng@@QAE@XZ$1:
  0000b	8b 4d f0	 mov	 ecx, DWORD PTR _this$[ebp]
  0000e	83 c1 3c	 add	 ecx, 60			; 0000003cH
  00011	e9 00 00 00 00	 jmp	 ??1?$map@HHU?$less@H@std@@V?$allocator@U?$pair@$$CBHH@std@@@2@@std@@QAE@XZ
__unwindfunclet$??0CSecretRoomMng@@QAE@XZ$2:
  00016	8b 4d f0	 mov	 ecx, DWORD PTR _this$[ebp]
  00019	83 c1 44	 add	 ecx, 68			; 00000044H
  0001c	e9 00 00 00 00	 jmp	 ??1CLuaBase@@UAE@XZ	; CLuaBase::~CLuaBase
__unwindfunclet$??0CSecretRoomMng@@QAE@XZ$3:
  00021	8b 4d f0	 mov	 ecx, DWORD PTR _this$[ebp]
  00024	83 c1 4c	 add	 ecx, 76			; 0000004cH
  00027	e9 00 00 00 00	 jmp	 ??1?$vector@U__SECRETROOM_MONSTER@@V?$allocator@U__SECRETROOM_MONSTER@@@std@@@std@@QAE@XZ ; std::vector<__SECRETROOM_MONSTER,std::allocator<__SECRETROOM_MONSTER> >::~vector<__SECRETROOM_MONSTER,std::allocator<__SECRETROOM_MONSTER> >
__unwindfunclet$??0CSecretRoomMng@@QAE@XZ$4:
  0002c	8b 4d f0	 mov	 ecx, DWORD PTR _this$[ebp]
  0002f	83 c1 58	 add	 ecx, 88			; 00000058H
  00032	e9 00 00 00 00	 jmp	 ??1?$vector@U__SECRETROOM_MONSTER@@V?$allocator@U__SECRETROOM_MONSTER@@@std@@@std@@QAE@XZ ; std::vector<__SECRETROOM_MONSTER,std::allocator<__SECRETROOM_MONSTER> >::~vector<__SECRETROOM_MONSTER,std::allocator<__SECRETROOM_MONSTER> >
__unwindfunclet$??0CSecretRoomMng@@QAE@XZ$5:
  00037	8b 4d f0	 mov	 ecx, DWORD PTR _this$[ebp]
  0003a	83 c1 64	 add	 ecx, 100		; 00000064H
  0003d	e9 00 00 00 00	 jmp	 ??1?$vector@U__SECRETROOM_MONSTER@@V?$allocator@U__SECRETROOM_MONSTER@@@std@@@std@@QAE@XZ ; std::vector<__SECRETROOM_MONSTER,std::allocator<__SECRETROOM_MONSTER> >::~vector<__SECRETROOM_MONSTER,std::allocator<__SECRETROOM_MONSTER> >
  00042	cc		 int	 3
  00043	cc		 int	 3
  00044	cc		 int	 3
  00045	cc		 int	 3
  00046	cc		 int	 3
__ehhandler$??0CSecretRoomMng@@QAE@XZ:
  00047	90		 npad	 1
  00048	90		 npad	 1
  00049	8b 54 24 08	 mov	 edx, DWORD PTR [esp+8]
  0004d	8d 42 0c	 lea	 eax, DWORD PTR [edx+12]
  00050	8b 4a dc	 mov	 ecx, DWORD PTR [edx-36]
  00053	33 c8		 xor	 ecx, eax
  00055	e8 00 00 00 00	 call	 @__security_check_cookie@4
  0005a	b8 00 00 00 00	 mov	 eax, OFFSET __ehfuncinfo$??0CSecretRoomMng@@QAE@XZ
  0005f	e9 00 00 00 00	 jmp	 ___CxxFrameHandler3
text$x	ENDS
??0CSecretRoomMng@@QAE@XZ ENDP				; CSecretRoomMng::CSecretRoomMng
; Function compile flags: /Ogtp
; File C:\Program Files\Microsoft Visual Studio\2022\Professional\VC\Tools\MSVC\14.44.35207\include\vector
; File C:\Program Files\Microsoft Visual Studio\2022\Professional\VC\Tools\MSVC\14.44.35207\include\xmemory
; File C:\Program Files\Microsoft Visual Studio\2022\Professional\VC\Tools\MSVC\14.44.35207\include\vector
; File C:\Program Files\Microsoft Visual Studio\2022\Professional\VC\Tools\MSVC\14.44.35207\include\xmemory
; File C:\Program Files\Microsoft Visual Studio\2022\Professional\VC\Tools\MSVC\14.44.35207\include\vector
;	COMDAT ??0__SECRETROOM_TENDER@@QAE@ABU0@@Z
_TEXT	SEGMENT
_this$ = -16						; size = 4
__$EHRec$ = -12						; size = 12
___that$ = 8						; size = 4
??0__SECRETROOM_TENDER@@QAE@ABU0@@Z PROC		; __SECRETROOM_TENDER::__SECRETROOM_TENDER, COMDAT
; _this$ = ecx
  00000	55		 push	 ebp
  00001	8b ec		 mov	 ebp, esp
  00003	6a ff		 push	 -1
  00005	68 00 00 00 00	 push	 __ehhandler$??0__SECRETROOM_TENDER@@QAE@ABU0@@Z
  0000a	64 a1 00 00 00
	00		 mov	 eax, DWORD PTR fs:0
  00010	50		 push	 eax
  00011	51		 push	 ecx
  00012	53		 push	 ebx
  00013	56		 push	 esi
  00014	57		 push	 edi
  00015	a1 00 00 00 00	 mov	 eax, DWORD PTR ___security_cookie
  0001a	33 c5		 xor	 eax, ebp
  0001c	50		 push	 eax
  0001d	8d 45 f4	 lea	 eax, DWORD PTR __$EHRec$[ebp]
  00020	64 a3 00 00 00
	00		 mov	 DWORD PTR fs:0, eax
  00026	8b d9		 mov	 ebx, ecx
  00028	89 5d f0	 mov	 DWORD PTR _this$[ebp], ebx

; 400  :     _CONSTEXPR20 _Vector_val() noexcept : _Myfirst(), _Mylast(), _Myend() {}

  0002b	8b 7d 08	 mov	 edi, DWORD PTR ___that$[ebp]
  0002e	8d 4b 14	 lea	 ecx, DWORD PTR [ebx+20]
  00031	8b 07		 mov	 eax, DWORD PTR [edi]
  00033	89 03		 mov	 DWORD PTR [ebx], eax
  00035	8b 47 04	 mov	 eax, DWORD PTR [edi+4]
  00038	89 43 04	 mov	 DWORD PTR [ebx+4], eax
  0003b	8b 47 08	 mov	 eax, DWORD PTR [edi+8]
  0003e	89 43 08	 mov	 DWORD PTR [ebx+8], eax
  00041	8b 47 0c	 mov	 eax, DWORD PTR [edi+12]
  00044	89 43 0c	 mov	 DWORD PTR [ebx+12], eax
  00047	8b 47 10	 mov	 eax, DWORD PTR [edi+16]
  0004a	89 43 10	 mov	 DWORD PTR [ebx+16], eax
  0004d	8d 47 14	 lea	 eax, DWORD PTR [edi+20]
  00050	50		 push	 eax
  00051	e8 00 00 00 00	 call	 ??0?$vector@KV?$allocator@K@std@@@std@@QAE@ABV01@@Z ; std::vector<unsigned long,std::allocator<unsigned long> >::vector<unsigned long,std::allocator<unsigned long> >
  00056	c7 43 20 00 00
	00 00		 mov	 DWORD PTR [ebx+32], 0
  0005d	c7 43 24 00 00
	00 00		 mov	 DWORD PTR [ebx+36], 0
  00064	c7 43 28 00 00
	00 00		 mov	 DWORD PTR [ebx+40], 0

; 748  :         const auto _Count       = static_cast<size_type>(_Right_data._Mylast - _Right_data._Myfirst);

  0006b	8b 47 24	 mov	 eax, DWORD PTR [edi+36]
  0006e	2b 47 20	 sub	 eax, DWORD PTR [edi+32]
  00071	c1 f8 05	 sar	 eax, 5
  00074	c7 45 fc 00 00
	00 00		 mov	 DWORD PTR __$EHRec$[ebp+8], 0

; 2111 :         if (_Count != 0) {

  0007b	85 c0		 test	 eax, eax
  0007d	74 45		 je	 SHORT $LN40@SECRETROOM

; 2051 :         if (_Newcapacity > max_size()) {

  0007f	3d ff ff ff 07	 cmp	 eax, 134217727		; 07ffffffH
  00084	77 55		 ja	 SHORT $LN44@SECRETROOM

; 2053 :         }
; 2054 : 
; 2055 :         _Buy_raw(_Newcapacity);

  00086	50		 push	 eax
  00087	8d 4b 20	 lea	 ecx, DWORD PTR [ebx+32]
  0008a	e8 00 00 00 00	 call	 ?_Buy_raw@?$vector@U__SECRETROOM_MONSTER@@V?$allocator@U__SECRETROOM_MONSTER@@@std@@@std@@AAEXI@Z ; std::vector<__SECRETROOM_MONSTER,std::allocator<__SECRETROOM_MONSTER> >::_Buy_raw

; 2120 :                 _My_data._Mylast = _STD _Uninitialized_copy(_STD forward<_Valty>(_Val)..., _My_data._Myfirst, _Al);

  0008f	8b 5b 20	 mov	 ebx, DWORD PTR [ebx+32]
; File C:\Program Files\Microsoft Visual Studio\2022\Professional\VC\Tools\MSVC\14.44.35207\include\xmemory

; 1876 :     auto _UFirst = _STD _Get_unwrapped(_STD move(_First));

  00092	8b 77 20	 mov	 esi, DWORD PTR [edi+32]

; 1877 :     auto _ULast  = _STD _Get_unwrapped(_STD move(_Last));

  00095	8b 7f 24	 mov	 edi, DWORD PTR [edi+36]

; 1878 : #endif // ^^^ !_HAS_CXX20 ^^^
; 1879 : 
; 1880 :     constexpr bool _Can_memmove = _Sent_copy_cat<decltype(_UFirst), decltype(_ULast), _Ptrval>::_Bitcopy_constructible
; 1881 :                                && _Uses_default_construct<_Alloc, _Ptrval, decltype(*_UFirst)>::value;
; 1882 : 
; 1883 :     if constexpr (_Can_memmove) {
; 1884 : #if _HAS_CXX20
; 1885 :         if (!_STD is_constant_evaluated())
; 1886 : #endif // _HAS_CXX20
; 1887 :         {
; 1888 :             if constexpr (is_same_v<decltype(_UFirst), decltype(_ULast)>) {
; 1889 :                 _STD _Copy_memmove(_STD _To_address(_UFirst), _STD _To_address(_ULast), _STD _Unfancy(_Dest));

  00098	53		 push	 ebx
  00099	57		 push	 edi
  0009a	56		 push	 esi
  0009b	e8 00 00 00 00	 call	 ??$_Copy_memmove@PAU__SECRETROOM_MONSTER@@PAU1@@std@@YAPAU__SECRETROOM_MONSTER@@PAU1@00@Z ; std::_Copy_memmove<__SECRETROOM_MONSTER *,__SECRETROOM_MONSTER *>
; File C:\Program Files\Microsoft Visual Studio\2022\Professional\VC\Tools\MSVC\14.44.35207\include\vector

; 2120 :                 _My_data._Mylast = _STD _Uninitialized_copy(_STD forward<_Valty>(_Val)..., _My_data._Myfirst, _Al);

  000a0	8b 45 f0	 mov	 eax, DWORD PTR _this$[ebp]
; File C:\Program Files\Microsoft Visual Studio\2022\Professional\VC\Tools\MSVC\14.44.35207\include\xmemory

; 1890 :                 _Dest += _ULast - _UFirst;

  000a3	2b fe		 sub	 edi, esi
  000a5	83 e7 e0	 and	 edi, -32		; ffffffe0H
  000a8	83 c4 0c	 add	 esp, 12			; 0000000cH
  000ab	03 fb		 add	 edi, ebx
; File C:\Program Files\Microsoft Visual Studio\2022\Professional\VC\Tools\MSVC\14.44.35207\include\vector

; 2120 :                 _My_data._Mylast = _STD _Uninitialized_copy(_STD forward<_Valty>(_Val)..., _My_data._Myfirst, _Al);

  000ad	89 78 24	 mov	 DWORD PTR [eax+36], edi
  000b0	8b 4d f4	 mov	 ecx, DWORD PTR __$EHRec$[ebp]
  000b3	64 89 0d 00 00
	00 00		 mov	 DWORD PTR fs:0, ecx
  000ba	59		 pop	 ecx
  000bb	5f		 pop	 edi
  000bc	5e		 pop	 esi
  000bd	5b		 pop	 ebx
  000be	8b e5		 mov	 esp, ebp
  000c0	5d		 pop	 ebp
  000c1	c2 04 00	 ret	 4
$LN40@SECRETROOM:

; 2056 :     }
; 2057 : 
; 2058 :     _CONSTEXPR20 void _Change_array(
; 2059 :         const pointer _Newvec, const size_type _Newsize, const size_type _Newcapacity) noexcept {
; 2060 :         // orphan all iterators, discard old array, acquire new array
; 2061 :         auto& _Al         = _Getal();
; 2062 :         auto& _My_data    = _Mypair._Myval2;
; 2063 :         pointer& _Myfirst = _My_data._Myfirst;
; 2064 :         pointer& _Mylast  = _My_data._Mylast;
; 2065 :         pointer& _Myend   = _My_data._Myend;
; 2066 : 
; 2067 :         _My_data._Orphan_all();
; 2068 : 
; 2069 :         if (_Myfirst) { // destroy and deallocate old array
; 2070 :             _STD _Destroy_range(_Myfirst, _Mylast, _Al);
; 2071 :             _ASAN_VECTOR_REMOVE;
; 2072 :             _Al.deallocate(_Myfirst, static_cast<size_type>(_Myend - _Myfirst));
; 2073 :         }
; 2074 : 
; 2075 :         _Myfirst = _Newvec;
; 2076 :         _Mylast  = _Newvec + _Newsize;
; 2077 :         _Myend   = _Newvec + _Newcapacity;
; 2078 :         _ASAN_VECTOR_CREATE;
; 2079 :     }
; 2080 : 
; 2081 :     _CONSTEXPR20 void _Tidy() noexcept { // free all storage
; 2082 :         auto& _Al         = _Getal();
; 2083 :         auto& _My_data    = _Mypair._Myval2;
; 2084 :         pointer& _Myfirst = _My_data._Myfirst;
; 2085 :         pointer& _Mylast  = _My_data._Mylast;
; 2086 :         pointer& _Myend   = _My_data._Myend;
; 2087 : 
; 2088 :         _My_data._Orphan_all();
; 2089 : 
; 2090 :         if (_Myfirst) { // destroy and deallocate old array
; 2091 :             _STD _Destroy_range(_Myfirst, _Mylast, _Al);
; 2092 :             _ASAN_VECTOR_REMOVE;
; 2093 :             _Al.deallocate(_Myfirst, static_cast<size_type>(_Myend - _Myfirst));
; 2094 : 
; 2095 :             _Myfirst = nullptr;
; 2096 :             _Mylast  = nullptr;
; 2097 :             _Myend   = nullptr;
; 2098 :         }
; 2099 :     }
; 2100 : 
; 2101 :     template <class... _Valty>
; 2102 :     _CONSTEXPR20 void _Construct_n(_CRT_GUARDOVERFLOW const size_type _Count, _Valty&&... _Val) {
; 2103 :         // Dispatches between the three sized constructions.
; 2104 :         // 1-arg -> value-construction, e.g. vector(5)
; 2105 :         // 2-arg -> fill, e.g. vector(5, "meow")
; 2106 :         // 3-arg -> sized range construction, e.g. vector{"Hello", "Fluffy", "World"}
; 2107 :         auto& _Al       = _Getal();
; 2108 :         auto&& _Alproxy = _GET_PROXY_ALLOCATOR(_Alty, _Al);
; 2109 :         auto& _My_data  = _Mypair._Myval2;
; 2110 :         _Container_proxy_ptr<_Alty> _Proxy(_Alproxy, _My_data);
; 2111 :         if (_Count != 0) {

  000c4	8b 45 f0	 mov	 eax, DWORD PTR _this$[ebp]
  000c7	8b 4d f4	 mov	 ecx, DWORD PTR __$EHRec$[ebp]
  000ca	64 89 0d 00 00
	00 00		 mov	 DWORD PTR fs:0, ecx
  000d1	59		 pop	 ecx
  000d2	5f		 pop	 edi
  000d3	5e		 pop	 esi
  000d4	5b		 pop	 ebx
  000d5	8b e5		 mov	 esp, ebp
  000d7	5d		 pop	 ebp
  000d8	c2 04 00	 ret	 4
$LN44@SECRETROOM:

; 2052 :             _Xlength();

  000db	e8 00 00 00 00	 call	 ?_Xlength@?$vector@U__SECRETROOM_MONSTER@@V?$allocator@U__SECRETROOM_MONSTER@@@std@@@std@@CAXXZ ; std::vector<__SECRETROOM_MONSTER,std::allocator<__SECRETROOM_MONSTER> >::_Xlength
$LN42@SECRETROOM:
  000e0	cc		 int	 3
_TEXT	ENDS
;	COMDAT text$x
text$x	SEGMENT
__unwindfunclet$??0__SECRETROOM_TENDER@@QAE@ABU0@@Z$0:
  00000	8b 4d f0	 mov	 ecx, DWORD PTR _this$[ebp]
  00003	83 c1 14	 add	 ecx, 20			; 00000014H
  00006	e9 00 00 00 00	 jmp	 ??1?$vector@KV?$allocator@K@std@@@std@@QAE@XZ ; std::vector<unsigned long,std::allocator<unsigned long> >::~vector<unsigned long,std::allocator<unsigned long> >
  0000b	cc		 int	 3
  0000c	cc		 int	 3
  0000d	cc		 int	 3
  0000e	cc		 int	 3
  0000f	cc		 int	 3
__ehhandler$??0__SECRETROOM_TENDER@@QAE@ABU0@@Z:
  00010	90		 npad	 1
  00011	90		 npad	 1
  00012	8b 54 24 08	 mov	 edx, DWORD PTR [esp+8]
  00016	8d 42 0c	 lea	 eax, DWORD PTR [edx+12]
  00019	8b 4a ec	 mov	 ecx, DWORD PTR [edx-20]
  0001c	33 c8		 xor	 ecx, eax
  0001e	e8 00 00 00 00	 call	 @__security_check_cookie@4
  00023	b8 00 00 00 00	 mov	 eax, OFFSET __ehfuncinfo$??0__SECRETROOM_TENDER@@QAE@ABU0@@Z
  00028	e9 00 00 00 00	 jmp	 ___CxxFrameHandler3
text$x	ENDS
??0__SECRETROOM_TENDER@@QAE@ABU0@@Z ENDP		; __SECRETROOM_TENDER::__SECRETROOM_TENDER
; Function compile flags: /Ogtp
; File C:\Program Files\Microsoft Visual Studio\2022\Professional\VC\Tools\MSVC\14.44.35207\include\vector
;	COMDAT ??1__SECRETROOM_TENDER@@QAE@XZ
_TEXT	SEGMENT
??1__SECRETROOM_TENDER@@QAE@XZ PROC			; __SECRETROOM_TENDER::~__SECRETROOM_TENDER, COMDAT
; _this$ = ecx

; 830  :         _Tidy();

  00000	56		 push	 esi
  00001	8b f1		 mov	 esi, ecx
  00003	8d 4e 20	 lea	 ecx, DWORD PTR [esi+32]
  00006	e8 00 00 00 00	 call	 ?_Tidy@?$vector@U__SECRETROOM_MONSTER@@V?$allocator@U__SECRETROOM_MONSTER@@@std@@@std@@AAEXXZ ; std::vector<__SECRETROOM_MONSTER,std::allocator<__SECRETROOM_MONSTER> >::_Tidy
  0000b	8d 4e 14	 lea	 ecx, DWORD PTR [esi+20]
  0000e	5e		 pop	 esi
  0000f	e9 00 00 00 00	 jmp	 ?_Tidy@?$vector@KV?$allocator@K@std@@@std@@AAEXXZ ; std::vector<unsigned long,std::allocator<unsigned long> >::_Tidy
??1__SECRETROOM_TENDER@@QAE@XZ ENDP			; __SECRETROOM_TENDER::~__SECRETROOM_TENDER
_TEXT	ENDS
; Function compile flags: /Ogtp
; File C:\Program Files\Microsoft Visual Studio\2022\Professional\VC\Tools\MSVC\14.44.35207\include\vector
;	COMDAT ?_Xlength@?$vector@U__SECRETROOM_MONSTER@@V?$allocator@U__SECRETROOM_MONSTER@@@std@@@std@@CAXXZ
_TEXT	SEGMENT
?_Xlength@?$vector@U__SECRETROOM_MONSTER@@V?$allocator@U__SECRETROOM_MONSTER@@@std@@@std@@CAXXZ PROC ; std::vector<__SECRETROOM_MONSTER,std::allocator<__SECRETROOM_MONSTER> >::_Xlength, COMDAT

; 2184 :         _Xlength_error("vector too long");

  00000	68 00 00 00 00	 push	 OFFSET ??_C@_0BA@FOIKENOD@vector?5too?5long@
  00005	e8 00 00 00 00	 call	 ?_Xlength_error@std@@YAXPBD@Z ; std::_Xlength_error
$LN3@Xlength:
  0000a	cc		 int	 3
?_Xlength@?$vector@U__SECRETROOM_MONSTER@@V?$allocator@U__SECRETROOM_MONSTER@@@std@@@std@@CAXXZ ENDP ; std::vector<__SECRETROOM_MONSTER,std::allocator<__SECRETROOM_MONSTER> >::_Xlength
_TEXT	ENDS
; Function compile flags: /Ogtp
; File C:\Program Files\Microsoft Visual Studio\2022\Professional\VC\Tools\MSVC\14.44.35207\include\vector
; File C:\Program Files\Microsoft Visual Studio\2022\Professional\VC\Tools\MSVC\14.44.35207\include\xmemory
; File C:\Program Files\Microsoft Visual Studio\2022\Professional\VC\Tools\MSVC\14.44.35207\include\vector
; File C:\Program Files\Microsoft Visual Studio\2022\Professional\VC\Tools\MSVC\14.44.35207\include\xmemory
; File C:\Program Files\Microsoft Visual Studio\2022\Professional\VC\Tools\MSVC\14.44.35207\include\vector
; File C:\Program Files\Microsoft Visual Studio\2022\Professional\VC\Tools\MSVC\14.44.35207\include\xmemory
; File C:\Program Files\Microsoft Visual Studio\2022\Professional\VC\Tools\MSVC\14.44.35207\include\vector
;	COMDAT ?_Tidy@?$vector@U__SECRETROOM_MONSTER@@V?$allocator@U__SECRETROOM_MONSTER@@@std@@@std@@AAEXXZ
_TEXT	SEGMENT
?_Tidy@?$vector@U__SECRETROOM_MONSTER@@V?$allocator@U__SECRETROOM_MONSTER@@@std@@@std@@AAEXXZ PROC ; std::vector<__SECRETROOM_MONSTER,std::allocator<__SECRETROOM_MONSTER> >::_Tidy, COMDAT
; _this$ = ecx

; 2081 :     _CONSTEXPR20 void _Tidy() noexcept { // free all storage

  00000	56		 push	 esi
  00001	8b f1		 mov	 esi, ecx

; 2082 :         auto& _Al         = _Getal();
; 2083 :         auto& _My_data    = _Mypair._Myval2;
; 2084 :         pointer& _Myfirst = _My_data._Myfirst;
; 2085 :         pointer& _Mylast  = _My_data._Mylast;
; 2086 :         pointer& _Myend   = _My_data._Myend;
; 2087 : 
; 2088 :         _My_data._Orphan_all();
; 2089 : 
; 2090 :         if (_Myfirst) { // destroy and deallocate old array

  00003	8b 06		 mov	 eax, DWORD PTR [esi]
  00005	85 c0		 test	 eax, eax
  00007	74 40		 je	 SHORT $LN2@Tidy

; 2091 :             _STD _Destroy_range(_Myfirst, _Mylast, _Al);
; 2092 :             _ASAN_VECTOR_REMOVE;
; 2093 :             _Al.deallocate(_Myfirst, static_cast<size_type>(_Myend - _Myfirst));

  00009	8b 4e 08	 mov	 ecx, DWORD PTR [esi+8]
  0000c	2b c8		 sub	 ecx, eax
; File C:\Program Files\Microsoft Visual Studio\2022\Professional\VC\Tools\MSVC\14.44.35207\include\xmemory

; 985  :         _STD _Deallocate<_New_alignof<_Ty>>(_Ptr, sizeof(_Ty) * _Count);

  0000e	83 e1 e0	 and	 ecx, -32		; ffffffe0H

; 284  :         if (_Bytes >= _Big_allocation_threshold) {

  00011	81 f9 00 10 00
	00		 cmp	 ecx, 4096		; 00001000H
  00017	72 12		 jb	 SHORT $LN15@Tidy

; 205  :     const uintptr_t _Ptr_container   = _Ptr_user[-1];

  00019	8b 50 fc	 mov	 edx, DWORD PTR [eax-4]
  0001c	83 c1 23	 add	 ecx, 35			; 00000023H

; 206  : 
; 207  :     // If the following asserts, it likely means that we are performing
; 208  :     // an aligned delete on memory coming from an unaligned allocation.
; 209  :     _STL_ASSERT(_Ptr_user[-2] == _Big_allocation_sentinel, "invalid argument");
; 210  : 
; 211  :     // Extra paranoia on aligned allocation/deallocation; ensure _Ptr_container is
; 212  :     // in range [_Min_back_shift, _Non_user_size]
; 213  : #ifdef _DEBUG
; 214  :     constexpr uintptr_t _Min_back_shift = 2 * sizeof(void*);
; 215  : #else // ^^^ defined(_DEBUG) / !defined(_DEBUG) vvv
; 216  :     constexpr uintptr_t _Min_back_shift = sizeof(void*);
; 217  : #endif // ^^^ !defined(_DEBUG) ^^^
; 218  :     const uintptr_t _Back_shift = reinterpret_cast<uintptr_t>(_Ptr) - _Ptr_container;

  0001f	2b c2		 sub	 eax, edx

; 219  :     _STL_VERIFY(_Back_shift >= _Min_back_shift && _Back_shift <= _Non_user_size, "invalid argument");

  00021	83 c0 fc	 add	 eax, -4			; fffffffcH
  00024	83 f8 1f	 cmp	 eax, 31			; 0000001fH
  00027	77 22		 ja	 SHORT $LN14@Tidy

; 220  :     _Ptr = reinterpret_cast<void*>(_Ptr_container);

  00029	8b c2		 mov	 eax, edx
$LN15@Tidy:

; 289  :         ::operator delete(_Ptr, _Bytes);

  0002b	51		 push	 ecx
  0002c	50		 push	 eax
  0002d	e8 00 00 00 00	 call	 ??3@YAXPAXI@Z		; operator delete
; File C:\Program Files\Microsoft Visual Studio\2022\Professional\VC\Tools\MSVC\14.44.35207\include\vector

; 2095 :             _Myfirst = nullptr;

  00032	c7 06 00 00 00
	00		 mov	 DWORD PTR [esi], 0
; File C:\Program Files\Microsoft Visual Studio\2022\Professional\VC\Tools\MSVC\14.44.35207\include\xmemory

; 289  :         ::operator delete(_Ptr, _Bytes);

  00038	83 c4 08	 add	 esp, 8
; File C:\Program Files\Microsoft Visual Studio\2022\Professional\VC\Tools\MSVC\14.44.35207\include\vector

; 2096 :             _Mylast  = nullptr;

  0003b	c7 46 04 00 00
	00 00		 mov	 DWORD PTR [esi+4], 0

; 2097 :             _Myend   = nullptr;

  00042	c7 46 08 00 00
	00 00		 mov	 DWORD PTR [esi+8], 0
$LN2@Tidy:

; 2099 :     }

  00049	5e		 pop	 esi
  0004a	c3		 ret	 0
$LN14@Tidy:
; File C:\Program Files\Microsoft Visual Studio\2022\Professional\VC\Tools\MSVC\14.44.35207\include\xmemory

; 219  :     _STL_VERIFY(_Back_shift >= _Min_back_shift && _Back_shift <= _Non_user_size, "invalid argument");

  0004b	6a 00		 push	 0
  0004d	6a 00		 push	 0
  0004f	6a 00		 push	 0
  00051	6a 00		 push	 0
  00053	6a 00		 push	 0
  00055	e8 00 00 00 00	 call	 __invoke_watson
$LN22@Tidy:
  0005a	cc		 int	 3
?_Tidy@?$vector@U__SECRETROOM_MONSTER@@V?$allocator@U__SECRETROOM_MONSTER@@@std@@@std@@AAEXXZ ENDP ; std::vector<__SECRETROOM_MONSTER,std::allocator<__SECRETROOM_MONSTER> >::_Tidy
_TEXT	ENDS
; Function compile flags: /Ogtp
; File C:\Program Files\Microsoft Visual Studio\2022\Professional\VC\Tools\MSVC\14.44.35207\include\vector
; File C:\Program Files\Microsoft Visual Studio\2022\Professional\VC\Tools\MSVC\14.44.35207\include\xmemory
; File C:\Program Files\Microsoft Visual Studio\2022\Professional\VC\Tools\MSVC\14.44.35207\include\vector
; File C:\Program Files\Microsoft Visual Studio\2022\Professional\VC\Tools\MSVC\14.44.35207\include\xmemory
; File C:\Program Files\Microsoft Visual Studio\2022\Professional\VC\Tools\MSVC\14.44.35207\include\vector
; File C:\Program Files\Microsoft Visual Studio\2022\Professional\VC\Tools\MSVC\14.44.35207\include\xmemory
; File C:\Program Files\Microsoft Visual Studio\2022\Professional\VC\Tools\MSVC\14.44.35207\include\vector
; File C:\Program Files\Microsoft Visual Studio\2022\Professional\VC\Tools\MSVC\14.44.35207\include\xmemory
; File C:\Program Files\Microsoft Visual Studio\2022\Professional\VC\Tools\MSVC\14.44.35207\include\vector
; File C:\Program Files\Microsoft Visual Studio\2022\Professional\VC\Tools\MSVC\14.44.35207\include\xmemory
; File C:\Program Files\Microsoft Visual Studio\2022\Professional\VC\Tools\MSVC\14.44.35207\include\vector
;	COMDAT ?_Buy_raw@?$vector@U__SECRETROOM_MONSTER@@V?$allocator@U__SECRETROOM_MONSTER@@@std@@@std@@AAEXI@Z
_TEXT	SEGMENT
__Newcapacity$ = 8					; size = 4
?_Buy_raw@?$vector@U__SECRETROOM_MONSTER@@V?$allocator@U__SECRETROOM_MONSTER@@@std@@@std@@AAEXI@Z PROC ; std::vector<__SECRETROOM_MONSTER,std::allocator<__SECRETROOM_MONSTER> >::_Buy_raw, COMDAT
; _this$ = ecx

; 2024 :     _CONSTEXPR20 void _Buy_raw(size_type _Newcapacity) {

  00000	55		 push	 ebp
  00001	8b ec		 mov	 ebp, esp
  00003	56		 push	 esi
; File C:\Program Files\Microsoft Visual Studio\2022\Professional\VC\Tools\MSVC\14.44.35207\include\xmemory

; 117  :         if (_Count > _Max_possible) {

  00004	8b 75 08	 mov	 esi, DWORD PTR __Newcapacity$[ebp]
; File C:\Program Files\Microsoft Visual Studio\2022\Professional\VC\Tools\MSVC\14.44.35207\include\vector

; 2024 :     _CONSTEXPR20 void _Buy_raw(size_type _Newcapacity) {

  00007	57		 push	 edi
  00008	8b f9		 mov	 edi, ecx
; File C:\Program Files\Microsoft Visual Studio\2022\Professional\VC\Tools\MSVC\14.44.35207\include\xmemory

; 117  :         if (_Count > _Max_possible) {

  0000a	81 fe ff ff ff
	07		 cmp	 esi, 134217727		; 07ffffffH
  00010	77 52		 ja	 SHORT $LN25@Buy_raw

; 119  :         }
; 120  :     }
; 121  : 
; 122  :     return _Count * _Ty_size;

  00012	c1 e6 05	 shl	 esi, 5

; 227  :     if (_Bytes == 0) {

  00015	85 f6		 test	 esi, esi
  00017	75 12		 jne	 SHORT $LN12@Buy_raw

; 228  :         return nullptr;

  00019	33 c0		 xor	 eax, eax
; File C:\Program Files\Microsoft Visual Studio\2022\Professional\VC\Tools\MSVC\14.44.35207\include\vector

; 2035 :         _Myfirst              = _Newvec;

  0001b	89 07		 mov	 DWORD PTR [edi], eax

; 2036 :         _Mylast               = _Newvec;

  0001d	89 47 04	 mov	 DWORD PTR [edi+4], eax

; 2037 :         _Myend                = _Newvec + _Newcapacity;

  00020	8b c6		 mov	 eax, esi
  00022	89 47 08	 mov	 DWORD PTR [edi+8], eax

; 2038 :     }

  00025	5f		 pop	 edi
  00026	5e		 pop	 esi
  00027	5d		 pop	 ebp
  00028	c2 04 00	 ret	 4
$LN12@Buy_raw:
; File C:\Program Files\Microsoft Visual Studio\2022\Professional\VC\Tools\MSVC\14.44.35207\include\xmemory

; 251  :         if (_Bytes >= _Big_allocation_threshold) {

  0002b	56		 push	 esi
  0002c	81 fe 00 10 00
	00		 cmp	 esi, 4096		; 00001000H
  00032	72 18		 jb	 SHORT $LN13@Buy_raw

; 252  :             // boost the alignment of big allocations to help autovectorization
; 253  :             return _Allocate_manually_vector_aligned<_Traits>(_Bytes);

  00034	e8 00 00 00 00	 call	 ??$_Allocate_manually_vector_aligned@U_Default_allocate_traits@std@@@std@@YAPAXI@Z ; std::_Allocate_manually_vector_aligned<std::_Default_allocate_traits>
; File C:\Program Files\Microsoft Visual Studio\2022\Professional\VC\Tools\MSVC\14.44.35207\include\vector

; 2035 :         _Myfirst              = _Newvec;

  00039	89 07		 mov	 DWORD PTR [edi], eax
  0003b	83 c4 04	 add	 esp, 4

; 2036 :         _Mylast               = _Newvec;

  0003e	89 47 04	 mov	 DWORD PTR [edi+4], eax

; 2037 :         _Myend                = _Newvec + _Newcapacity;

  00041	03 c6		 add	 eax, esi
  00043	89 47 08	 mov	 DWORD PTR [edi+8], eax

; 2038 :     }

  00046	5f		 pop	 edi
  00047	5e		 pop	 esi
  00048	5d		 pop	 ebp
  00049	c2 04 00	 ret	 4
$LN13@Buy_raw:
; File C:\Program Files\Microsoft Visual Studio\2022\Professional\VC\Tools\MSVC\14.44.35207\include\xmemory

; 136  :         return ::operator new(_Bytes);

  0004c	e8 00 00 00 00	 call	 ??2@YAPAXI@Z		; operator new
; File C:\Program Files\Microsoft Visual Studio\2022\Professional\VC\Tools\MSVC\14.44.35207\include\vector

; 2035 :         _Myfirst              = _Newvec;

  00051	89 07		 mov	 DWORD PTR [edi], eax
  00053	83 c4 04	 add	 esp, 4

; 2036 :         _Mylast               = _Newvec;

  00056	89 47 04	 mov	 DWORD PTR [edi+4], eax

; 2037 :         _Myend                = _Newvec + _Newcapacity;

  00059	03 c6		 add	 eax, esi
  0005b	89 47 08	 mov	 DWORD PTR [edi+8], eax

; 2038 :     }

  0005e	5f		 pop	 edi
  0005f	5e		 pop	 esi
  00060	5d		 pop	 ebp
  00061	c2 04 00	 ret	 4
$LN25@Buy_raw:
; File C:\Program Files\Microsoft Visual Studio\2022\Professional\VC\Tools\MSVC\14.44.35207\include\xmemory

; 118  :             _Throw_bad_array_new_length(); // multiply overflow

  00064	e8 00 00 00 00	 call	 ?_Throw_bad_array_new_length@std@@YAXXZ ; std::_Throw_bad_array_new_length
$LN22@Buy_raw:
  00069	cc		 int	 3
?_Buy_raw@?$vector@U__SECRETROOM_MONSTER@@V?$allocator@U__SECRETROOM_MONSTER@@@std@@@std@@AAEXI@Z ENDP ; std::vector<__SECRETROOM_MONSTER,std::allocator<__SECRETROOM_MONSTER> >::_Buy_raw
_TEXT	ENDS
; Function compile flags: /Ogtp
; File C:\Program Files\Microsoft Visual Studio\2022\Professional\VC\Tools\MSVC\14.44.35207\include\vector
;	COMDAT ??1?$vector@U__SECRETROOM_MONSTER@@V?$allocator@U__SECRETROOM_MONSTER@@@std@@@std@@QAE@XZ
_TEXT	SEGMENT
??1?$vector@U__SECRETROOM_MONSTER@@V?$allocator@U__SECRETROOM_MONSTER@@@std@@@std@@QAE@XZ PROC ; std::vector<__SECRETROOM_MONSTER,std::allocator<__SECRETROOM_MONSTER> >::~vector<__SECRETROOM_MONSTER,std::allocator<__SECRETROOM_MONSTER> >, COMDAT
; _this$ = ecx

; 830  :         _Tidy();

  00000	e9 00 00 00 00	 jmp	 ?_Tidy@?$vector@U__SECRETROOM_MONSTER@@V?$allocator@U__SECRETROOM_MONSTER@@@std@@@std@@AAEXXZ ; std::vector<__SECRETROOM_MONSTER,std::allocator<__SECRETROOM_MONSTER> >::_Tidy
??1?$vector@U__SECRETROOM_MONSTER@@V?$allocator@U__SECRETROOM_MONSTER@@@std@@@std@@QAE@XZ ENDP ; std::vector<__SECRETROOM_MONSTER,std::allocator<__SECRETROOM_MONSTER> >::~vector<__SECRETROOM_MONSTER,std::allocator<__SECRETROOM_MONSTER> >
_TEXT	ENDS
; Function compile flags: /Ogtp
; File C:\Program Files\Microsoft Visual Studio\2022\Professional\VC\Tools\MSVC\14.44.35207\include\xmemory
;	COMDAT ?deallocate@?$allocator@U__SECRETROOM_MONSTER@@@std@@QAEXQAU__SECRETROOM_MONSTER@@I@Z
_TEXT	SEGMENT
__Ptr$ = 8						; size = 4
__Count$ = 12						; size = 4
?deallocate@?$allocator@U__SECRETROOM_MONSTER@@@std@@QAEXQAU__SECRETROOM_MONSTER@@I@Z PROC ; std::allocator<__SECRETROOM_MONSTER>::deallocate, COMDAT
; _this$ = ecx

; 982  :     _CONSTEXPR20 void deallocate(_Ty* const _Ptr, const size_t _Count) noexcept /* strengthened */ {

  00000	55		 push	 ebp
  00001	8b ec		 mov	 ebp, esp

; 983  :         _STL_ASSERT(_Ptr != nullptr || _Count == 0, "null pointer cannot point to a block of non-zero size");
; 984  :         // no overflow check on the following multiply; we assume _Allocate did that check
; 985  :         _STD _Deallocate<_New_alignof<_Ty>>(_Ptr, sizeof(_Ty) * _Count);

  00003	8b 4d 0c	 mov	 ecx, DWORD PTR __Count$[ebp]
  00006	8b 45 08	 mov	 eax, DWORD PTR __Ptr$[ebp]
  00009	c1 e1 05	 shl	 ecx, 5

; 284  :         if (_Bytes >= _Big_allocation_threshold) {

  0000c	81 f9 00 10 00
	00		 cmp	 ecx, 4096		; 00001000H
  00012	72 12		 jb	 SHORT $LN11@deallocate

; 205  :     const uintptr_t _Ptr_container   = _Ptr_user[-1];

  00014	8b 50 fc	 mov	 edx, DWORD PTR [eax-4]
  00017	83 c1 23	 add	 ecx, 35			; 00000023H

; 206  : 
; 207  :     // If the following asserts, it likely means that we are performing
; 208  :     // an aligned delete on memory coming from an unaligned allocation.
; 209  :     _STL_ASSERT(_Ptr_user[-2] == _Big_allocation_sentinel, "invalid argument");
; 210  : 
; 211  :     // Extra paranoia on aligned allocation/deallocation; ensure _Ptr_container is
; 212  :     // in range [_Min_back_shift, _Non_user_size]
; 213  : #ifdef _DEBUG
; 214  :     constexpr uintptr_t _Min_back_shift = 2 * sizeof(void*);
; 215  : #else // ^^^ defined(_DEBUG) / !defined(_DEBUG) vvv
; 216  :     constexpr uintptr_t _Min_back_shift = sizeof(void*);
; 217  : #endif // ^^^ !defined(_DEBUG) ^^^
; 218  :     const uintptr_t _Back_shift = reinterpret_cast<uintptr_t>(_Ptr) - _Ptr_container;

  0001a	2b c2		 sub	 eax, edx

; 219  :     _STL_VERIFY(_Back_shift >= _Min_back_shift && _Back_shift <= _Non_user_size, "invalid argument");

  0001c	83 c0 fc	 add	 eax, -4			; fffffffcH
  0001f	83 f8 1f	 cmp	 eax, 31			; 0000001fH
  00022	77 10		 ja	 SHORT $LN10@deallocate

; 220  :     _Ptr = reinterpret_cast<void*>(_Ptr_container);

  00024	8b c2		 mov	 eax, edx
$LN11@deallocate:

; 289  :         ::operator delete(_Ptr, _Bytes);

  00026	51		 push	 ecx
  00027	50		 push	 eax
  00028	e8 00 00 00 00	 call	 ??3@YAXPAXI@Z		; operator delete
  0002d	83 c4 08	 add	 esp, 8

; 986  :     }

  00030	5d		 pop	 ebp
  00031	c2 08 00	 ret	 8
$LN10@deallocate:

; 219  :     _STL_VERIFY(_Back_shift >= _Min_back_shift && _Back_shift <= _Non_user_size, "invalid argument");

  00034	6a 00		 push	 0
  00036	6a 00		 push	 0
  00038	6a 00		 push	 0
  0003a	6a 00		 push	 0
  0003c	6a 00		 push	 0
  0003e	e8 00 00 00 00	 call	 __invoke_watson
$LN14@deallocate:
  00043	cc		 int	 3
?deallocate@?$allocator@U__SECRETROOM_MONSTER@@@std@@QAEXQAU__SECRETROOM_MONSTER@@I@Z ENDP ; std::allocator<__SECRETROOM_MONSTER>::deallocate
_TEXT	ENDS
; Function compile flags: /Ogtp
; File C:\Program Files\Microsoft Visual Studio\2022\Professional\VC\Tools\MSVC\14.44.35207\include\xmemory
;	COMDAT ??$_Allocate_manually_vector_aligned@U_Default_allocate_traits@std@@@std@@YAPAXI@Z
_TEXT	SEGMENT
__Bytes$ = 8						; size = 4
??$_Allocate_manually_vector_aligned@U_Default_allocate_traits@std@@@std@@YAPAXI@Z PROC ; std::_Allocate_manually_vector_aligned<std::_Default_allocate_traits>, COMDAT

; 182  : __declspec(allocator) void* _Allocate_manually_vector_aligned(const size_t _Bytes) {

  00000	55		 push	 ebp
  00001	8b ec		 mov	 ebp, esp

; 183  :     // allocate _Bytes manually aligned to at least _Big_allocation_alignment
; 184  :     const size_t _Block_size = _Non_user_size + _Bytes;

  00003	8b 45 08	 mov	 eax, DWORD PTR __Bytes$[ebp]
  00006	8d 48 23	 lea	 ecx, DWORD PTR [eax+35]

; 185  :     if (_Block_size <= _Bytes) {

  00009	3b c8		 cmp	 ecx, eax
  0000b	0f 86 00 00 00
	00		 jbe	 ?_Throw_bad_array_new_length@std@@YAXXZ ; std::_Throw_bad_array_new_length

; 136  :         return ::operator new(_Bytes);

  00011	51		 push	 ecx
  00012	e8 00 00 00 00	 call	 ??2@YAPAXI@Z		; operator new

; 186  :         _Throw_bad_array_new_length(); // add overflow
; 187  :     }
; 188  : 
; 189  :     const uintptr_t _Ptr_container = reinterpret_cast<uintptr_t>(_Traits::_Allocate(_Block_size));

  00017	8b c8		 mov	 ecx, eax

; 136  :         return ::operator new(_Bytes);

  00019	83 c4 04	 add	 esp, 4

; 190  :     _STL_VERIFY(_Ptr_container != 0, "invalid argument"); // validate even in release since we're doing p[-1]

  0001c	85 c9		 test	 ecx, ecx
  0001e	74 0b		 je	 SHORT $LN9@Allocate_m

; 191  :     void* const _Ptr = reinterpret_cast<void*>((_Ptr_container + _Non_user_size) & ~(_Big_allocation_alignment - 1));

  00020	8d 41 23	 lea	 eax, DWORD PTR [ecx+35]
  00023	83 e0 e0	 and	 eax, -32		; ffffffe0H

; 192  :     static_cast<uintptr_t*>(_Ptr)[-1] = _Ptr_container;

  00026	89 48 fc	 mov	 DWORD PTR [eax-4], ecx

; 193  : 
; 194  : #ifdef _DEBUG
; 195  :     static_cast<uintptr_t*>(_Ptr)[-2] = _Big_allocation_sentinel;
; 196  : #endif // defined(_DEBUG)
; 197  :     return _Ptr;
; 198  : }

  00029	5d		 pop	 ebp
  0002a	c3		 ret	 0
$LN9@Allocate_m:

; 190  :     _STL_VERIFY(_Ptr_container != 0, "invalid argument"); // validate even in release since we're doing p[-1]

  0002b	6a 00		 push	 0
  0002d	6a 00		 push	 0
  0002f	6a 00		 push	 0
  00031	6a 00		 push	 0
  00033	6a 00		 push	 0
  00035	e8 00 00 00 00	 call	 __invoke_watson
$LN7@Allocate_m:
  0003a	cc		 int	 3
??$_Allocate_manually_vector_aligned@U_Default_allocate_traits@std@@@std@@YAPAXI@Z ENDP ; std::_Allocate_manually_vector_aligned<std::_Default_allocate_traits>
_TEXT	ENDS
; Function compile flags: /Ogtp
; File C:\Program Files\Microsoft Visual Studio\2022\Professional\VC\Tools\MSVC\14.44.35207\include\xtree
; File C:\Program Files\Microsoft Visual Studio\2022\Professional\VC\Tools\MSVC\14.44.35207\include\utility
; File C:\Program Files\Microsoft Visual Studio\2022\Professional\VC\Tools\MSVC\14.44.35207\include\xmemory
; File C:\Program Files\Microsoft Visual Studio\2022\Professional\VC\Tools\MSVC\14.44.35207\include\xtree
;	COMDAT ??$_Erase_tree@V?$allocator@U?$_Tree_node@U?$pair@$$CBHH@std@@PAX@std@@@std@@@?$_Tree_val@U?$_Tree_simple_types@U?$pair@$$CBHH@std@@@std@@@std@@QAEXAAV?$allocator@U?$_Tree_node@U?$pair@$$CBHH@std@@PAX@std@@@1@PAU?$_Tree_node@U?$pair@$$CBHH@std@@PAX@1@@Z
_TEXT	SEGMENT
__Al$ = 8						; size = 4
__Rootnode$ = 12					; size = 4
??$_Erase_tree@V?$allocator@U?$_Tree_node@U?$pair@$$CBHH@std@@PAX@std@@@std@@@?$_Tree_val@U?$_Tree_simple_types@U?$pair@$$CBHH@std@@@std@@@std@@QAEXAAV?$allocator@U?$_Tree_node@U?$pair@$$CBHH@std@@PAX@std@@@1@PAU?$_Tree_node@U?$pair@$$CBHH@std@@PAX@1@@Z PROC ; std::_Tree_val<std::_Tree_simple_types<std::pair<int const ,int> > >::_Erase_tree<std::allocator<std::_Tree_node<std::pair<int const ,int>,void *> > >, COMDAT
; _this$ = ecx

; 767  :     void _Erase_tree(_Alnode& _Al, _Nodeptr _Rootnode) noexcept {

  00000	55		 push	 ebp
  00001	8b ec		 mov	 ebp, esp
  00003	53		 push	 ebx
  00004	56		 push	 esi

; 768  :         while (!_Rootnode->_Isnil) { // free subtrees, then node

  00005	8b 75 0c	 mov	 esi, DWORD PTR __Rootnode$[ebp]
  00008	8b d9		 mov	 ebx, ecx
  0000a	80 7e 0d 00	 cmp	 BYTE PTR [esi+13], 0
  0000e	75 25		 jne	 SHORT $LN34@Erase_tree
  00010	57		 push	 edi
  00011	8b 7d 08	 mov	 edi, DWORD PTR __Al$[ebp]
$LL2@Erase_tree:

; 769  :             _Erase_tree(_Al, _Rootnode->_Right);

  00014	ff 76 08	 push	 DWORD PTR [esi+8]
  00017	8b cb		 mov	 ecx, ebx
  00019	57		 push	 edi
  0001a	e8 00 00 00 00	 call	 ??$_Erase_tree@V?$allocator@U?$_Tree_node@U?$pair@$$CBHH@std@@PAX@std@@@std@@@?$_Tree_val@U?$_Tree_simple_types@U?$pair@$$CBHH@std@@@std@@@std@@QAEXAAV?$allocator@U?$_Tree_node@U?$pair@$$CBHH@std@@PAX@std@@@1@PAU?$_Tree_node@U?$pair@$$CBHH@std@@PAX@1@@Z ; std::_Tree_val<std::_Tree_simple_types<std::pair<int const ,int> > >::_Erase_tree<std::allocator<std::_Tree_node<std::pair<int const ,int>,void *> > >
; File C:\Program Files\Microsoft Visual Studio\2022\Professional\VC\Tools\MSVC\14.44.35207\include\utility

; 773  :     _Ty _Old_val = static_cast<_Ty&&>(_Val);

  0001f	8b c6		 mov	 eax, esi

; 774  :     _Val         = static_cast<_Other&&>(_New_val);

  00021	8b 36		 mov	 esi, DWORD PTR [esi]
; File C:\Program Files\Microsoft Visual Studio\2022\Professional\VC\Tools\MSVC\14.44.35207\include\xmemory

; 289  :         ::operator delete(_Ptr, _Bytes);

  00023	6a 18		 push	 24			; 00000018H
  00025	50		 push	 eax
  00026	e8 00 00 00 00	 call	 ??3@YAXPAXI@Z		; operator delete
  0002b	83 c4 08	 add	 esp, 8
; File C:\Program Files\Microsoft Visual Studio\2022\Professional\VC\Tools\MSVC\14.44.35207\include\xtree

; 768  :         while (!_Rootnode->_Isnil) { // free subtrees, then node

  0002e	80 7e 0d 00	 cmp	 BYTE PTR [esi+13], 0
  00032	74 e0		 je	 SHORT $LL2@Erase_tree
  00034	5f		 pop	 edi
$LN34@Erase_tree:
  00035	5e		 pop	 esi

; 770  :             _Alnode::value_type::_Freenode(_Al, _STD exchange(_Rootnode, _Rootnode->_Left));
; 771  :         }
; 772  :     }

  00036	5b		 pop	 ebx
  00037	5d		 pop	 ebp
  00038	c2 08 00	 ret	 8
??$_Erase_tree@V?$allocator@U?$_Tree_node@U?$pair@$$CBHH@std@@PAX@std@@@std@@@?$_Tree_val@U?$_Tree_simple_types@U?$pair@$$CBHH@std@@@std@@@std@@QAEXAAV?$allocator@U?$_Tree_node@U?$pair@$$CBHH@std@@PAX@std@@@1@PAU?$_Tree_node@U?$pair@$$CBHH@std@@PAX@1@@Z ENDP ; std::_Tree_val<std::_Tree_simple_types<std::pair<int const ,int> > >::_Erase_tree<std::allocator<std::_Tree_node<std::pair<int const ,int>,void *> > >
_TEXT	ENDS
; Function compile flags: /Ogtp
;	COMDAT ??1?$map@HHU?$less@H@std@@V?$allocator@U?$pair@$$CBHH@std@@@2@@std@@QAE@XZ
_TEXT	SEGMENT
??1?$map@HHU?$less@H@std@@V?$allocator@U?$pair@$$CBHH@std@@@2@@std@@QAE@XZ PROC ; std::map<int,int,std::less<int>,std::allocator<std::pair<int const ,int> > >::~map<int,int,std::less<int>,std::allocator<std::pair<int const ,int> > >, COMDAT
; _this$ = ecx
  00000	e9 00 00 00 00	 jmp	 ??1?$_Tree@V?$_Tmap_traits@HHU?$less@H@std@@V?$allocator@U?$pair@$$CBHH@std@@@2@$0A@@std@@@std@@QAE@XZ ; std::_Tree<std::_Tmap_traits<int,int,std::less<int>,std::allocator<std::pair<int const ,int> >,0> >::~_Tree<std::_Tmap_traits<int,int,std::less<int>,std::allocator<std::pair<int const ,int> >,0> >
??1?$map@HHU?$less@H@std@@V?$allocator@U?$pair@$$CBHH@std@@@2@@std@@QAE@XZ ENDP ; std::map<int,int,std::less<int>,std::allocator<std::pair<int const ,int> > >::~map<int,int,std::less<int>,std::allocator<std::pair<int const ,int> > >
_TEXT	ENDS
; Function compile flags: /Ogtp
; File C:\Program Files\Microsoft Visual Studio\2022\Professional\VC\Tools\MSVC\14.44.35207\include\xtree
;	COMDAT ?_Insert_node@?$_Tree_val@U?$_Tree_simple_types@U?$pair@$$CBHH@std@@@std@@@std@@QAEPAU?$_Tree_node@U?$pair@$$CBHH@std@@PAX@2@U?$_Tree_id@PAU?$_Tree_node@U?$pair@$$CBHH@std@@PAX@std@@@2@QAU32@@Z
_TEXT	SEGMENT
__Head$1$ = -4						; size = 4
__Loc$ = 8						; size = 8
__Newnode$ = 16						; size = 4
?_Insert_node@?$_Tree_val@U?$_Tree_simple_types@U?$pair@$$CBHH@std@@@std@@@std@@QAEPAU?$_Tree_node@U?$pair@$$CBHH@std@@PAX@2@U?$_Tree_id@PAU?$_Tree_node@U?$pair@$$CBHH@std@@PAX@std@@@2@QAU32@@Z PROC ; std::_Tree_val<std::_Tree_simple_types<std::pair<int const ,int> > >::_Insert_node, COMDAT
; _this$ = ecx

; 669  :     _Nodeptr _Insert_node(const _Tree_id<_Nodeptr> _Loc, const _Nodeptr _Newnode) noexcept {

  00000	55		 push	 ebp
  00001	8b ec		 mov	 ebp, esp
  00003	51		 push	 ecx

; 670  :         ++_Mysize;
; 671  :         const auto _Head  = _Myhead;
; 672  :         _Newnode->_Parent = _Loc._Parent;

  00004	8b 55 08	 mov	 edx, DWORD PTR __Loc$[ebp]
  00007	53		 push	 ebx
  00008	8b d9		 mov	 ebx, ecx
  0000a	57		 push	 edi
  0000b	8b 7d 10	 mov	 edi, DWORD PTR __Newnode$[ebp]
  0000e	8b 03		 mov	 eax, DWORD PTR [ebx]
  00010	ff 43 04	 inc	 DWORD PTR [ebx+4]
  00013	89 45 fc	 mov	 DWORD PTR __Head$1$[ebp], eax
  00016	89 57 04	 mov	 DWORD PTR [edi+4], edx

; 673  :         if (_Loc._Parent == _Head) { // first node in tree, just set head values

  00019	3b d0		 cmp	 edx, eax
  0001b	75 16		 jne	 SHORT $LN5@Insert_nod

; 674  :             _Head->_Left     = _Newnode;

  0001d	89 38		 mov	 DWORD PTR [eax], edi

; 675  :             _Head->_Parent   = _Newnode;

  0001f	89 78 04	 mov	 DWORD PTR [eax+4], edi

; 676  :             _Head->_Right    = _Newnode;

  00022	89 78 08	 mov	 DWORD PTR [eax+8], edi

; 735  :         return _Newnode;
; 736  :     }

  00025	8b c7		 mov	 eax, edi
  00027	c6 47 0c 01	 mov	 BYTE PTR [edi+12], 1
  0002b	5f		 pop	 edi
  0002c	5b		 pop	 ebx
  0002d	8b e5		 mov	 esp, ebp
  0002f	5d		 pop	 ebp
  00030	c2 0c 00	 ret	 12			; 0000000cH
$LN5@Insert_nod:

; 677  :             _Newnode->_Color = _Black; // the root is black
; 678  :             return _Newnode;
; 679  :         }
; 680  : 
; 681  :         _STL_INTERNAL_CHECK(_Loc._Child != _Tree_child::_Unused);
; 682  :         if (_Loc._Child == _Tree_child::_Right) { // add to right of _Loc._Parent

  00033	83 7d 0c 00	 cmp	 DWORD PTR __Loc$[ebp+4], 0
  00037	75 0d		 jne	 SHORT $LN6@Insert_nod

; 683  :             _STL_INTERNAL_CHECK(_Loc._Parent->_Right->_Isnil);
; 684  :             _Loc._Parent->_Right = _Newnode;

  00039	89 7a 08	 mov	 DWORD PTR [edx+8], edi

; 685  :             if (_Loc._Parent == _Head->_Right) { // remember rightmost node

  0003c	3b 50 08	 cmp	 edx, DWORD PTR [eax+8]
  0003f	75 0d		 jne	 SHORT $LN9@Insert_nod

; 686  :                 _Head->_Right = _Newnode;

  00041	89 78 08	 mov	 DWORD PTR [eax+8], edi

; 687  :             }
; 688  :         } else { // add to left of _Loc._Parent

  00044	eb 08		 jmp	 SHORT $LN9@Insert_nod
$LN6@Insert_nod:

; 689  :             _STL_INTERNAL_CHECK(_Loc._Parent->_Left->_Isnil);
; 690  :             _Loc._Parent->_Left = _Newnode;

  00046	89 3a		 mov	 DWORD PTR [edx], edi

; 691  :             if (_Loc._Parent == _Head->_Left) { // remember leftmost node

  00048	3b 10		 cmp	 edx, DWORD PTR [eax]
  0004a	75 02		 jne	 SHORT $LN9@Insert_nod

; 692  :                 _Head->_Left = _Newnode;

  0004c	89 38		 mov	 DWORD PTR [eax], edi
$LN9@Insert_nod:

; 693  :             }
; 694  :         }
; 695  : 
; 696  :         for (_Nodeptr _Pnode = _Newnode; _Pnode->_Parent->_Color == _Red;) {

  0004e	8b 4f 04	 mov	 ecx, DWORD PTR [edi+4]
  00051	8b c7		 mov	 eax, edi
  00053	80 79 0c 00	 cmp	 BYTE PTR [ecx+12], 0
  00057	0f 85 7d 01 00
	00		 jne	 $LN3@Insert_nod
  0005d	56		 push	 esi
  0005e	66 90		 npad	 2
$LL4@Insert_nod:

; 697  :             if (_Pnode->_Parent == _Pnode->_Parent->_Parent->_Left) { // fixup red-red in left subtree

  00060	8b 50 04	 mov	 edx, DWORD PTR [eax+4]
  00063	8b 72 04	 mov	 esi, DWORD PTR [edx+4]
  00066	8b 0e		 mov	 ecx, DWORD PTR [esi]
  00068	3b d1		 cmp	 edx, ecx
  0006a	0f 85 aa 00 00
	00		 jne	 $LN10@Insert_nod

; 698  :                 const auto _Parent_sibling = _Pnode->_Parent->_Parent->_Right;

  00070	8b 4e 08	 mov	 ecx, DWORD PTR [esi+8]

; 699  :                 if (_Parent_sibling->_Color == _Red) { // parent's sibling has two red children, blacken both

  00073	80 79 0c 00	 cmp	 BYTE PTR [ecx+12], 0
  00077	0f 84 a3 00 00
	00		 je	 $LN82@Insert_nod

; 700  :                     _Pnode->_Parent->_Color          = _Black;
; 701  :                     _Parent_sibling->_Color          = _Black;
; 702  :                     _Pnode->_Parent->_Parent->_Color = _Red;
; 703  :                     _Pnode                           = _Pnode->_Parent->_Parent;
; 704  :                 } else { // parent's sibling has red and black children
; 705  :                     if (_Pnode == _Pnode->_Parent->_Right) { // rotate right child to left

  0007d	8b 72 08	 mov	 esi, DWORD PTR [edx+8]
  00080	3b c6		 cmp	 eax, esi
  00082	75 37		 jne	 SHORT $LN57@Insert_nod

; 485  :         _Wherenode->_Right = _Pnode->_Left;

  00084	8b 0e		 mov	 ecx, DWORD PTR [esi]

; 706  :                         _Pnode = _Pnode->_Parent;

  00086	8b c2		 mov	 eax, edx

; 485  :         _Wherenode->_Right = _Pnode->_Left;

  00088	89 4a 08	 mov	 DWORD PTR [edx+8], ecx

; 486  : 
; 487  :         if (!_Pnode->_Left->_Isnil) {

  0008b	8b 0e		 mov	 ecx, DWORD PTR [esi]
  0008d	80 79 0d 00	 cmp	 BYTE PTR [ecx+13], 0
  00091	75 03		 jne	 SHORT $LN21@Insert_nod

; 488  :             _Pnode->_Left->_Parent = _Wherenode;

  00093	89 41 04	 mov	 DWORD PTR [ecx+4], eax
$LN21@Insert_nod:

; 489  :         }
; 490  : 
; 491  :         _Pnode->_Parent = _Wherenode->_Parent;

  00096	8b 4a 04	 mov	 ecx, DWORD PTR [edx+4]
  00099	89 4e 04	 mov	 DWORD PTR [esi+4], ecx

; 492  : 
; 493  :         if (_Wherenode == _Myhead->_Parent) {

  0009c	8b 0b		 mov	 ecx, DWORD PTR [ebx]
  0009e	3b 41 04	 cmp	 eax, DWORD PTR [ecx+4]
  000a1	75 05		 jne	 SHORT $LN22@Insert_nod

; 494  :             _Myhead->_Parent = _Pnode;

  000a3	89 71 04	 mov	 DWORD PTR [ecx+4], esi
  000a6	eb 0e		 jmp	 SHORT $LN25@Insert_nod
$LN22@Insert_nod:

; 495  :         } else if (_Wherenode == _Wherenode->_Parent->_Left) {

  000a8	8b 4a 04	 mov	 ecx, DWORD PTR [edx+4]
  000ab	3b 01		 cmp	 eax, DWORD PTR [ecx]
  000ad	75 04		 jne	 SHORT $LN24@Insert_nod

; 496  :             _Wherenode->_Parent->_Left = _Pnode;

  000af	89 31		 mov	 DWORD PTR [ecx], esi

; 497  :         } else {

  000b1	eb 03		 jmp	 SHORT $LN25@Insert_nod
$LN24@Insert_nod:

; 498  :             _Wherenode->_Parent->_Right = _Pnode;

  000b3	89 71 08	 mov	 DWORD PTR [ecx+8], esi
$LN25@Insert_nod:

; 499  :         }
; 500  : 
; 501  :         _Pnode->_Left       = _Wherenode;

  000b6	89 06		 mov	 DWORD PTR [esi], eax

; 502  :         _Wherenode->_Parent = _Pnode;

  000b8	89 70 04	 mov	 DWORD PTR [eax+4], esi
$LN57@Insert_nod:

; 707  :                         _Lrotate(_Pnode);
; 708  :                     }
; 709  : 
; 710  :                     _Pnode->_Parent->_Color          = _Black; // propagate red up

  000bb	8b 48 04	 mov	 ecx, DWORD PTR [eax+4]
  000be	c6 41 0c 01	 mov	 BYTE PTR [ecx+12], 1

; 711  :                     _Pnode->_Parent->_Parent->_Color = _Red;

  000c2	8b 48 04	 mov	 ecx, DWORD PTR [eax+4]
  000c5	8b 49 04	 mov	 ecx, DWORD PTR [ecx+4]
  000c8	c6 41 0c 00	 mov	 BYTE PTR [ecx+12], 0

; 712  :                     _Rrotate(_Pnode->_Parent->_Parent);

  000cc	8b 48 04	 mov	 ecx, DWORD PTR [eax+4]
  000cf	8b 51 04	 mov	 edx, DWORD PTR [ecx+4]

; 506  :         _Nodeptr _Pnode   = _Wherenode->_Left;

  000d2	8b 32		 mov	 esi, DWORD PTR [edx]

; 507  :         _Wherenode->_Left = _Pnode->_Right;

  000d4	8b 4e 08	 mov	 ecx, DWORD PTR [esi+8]
  000d7	89 0a		 mov	 DWORD PTR [edx], ecx

; 508  : 
; 509  :         if (!_Pnode->_Right->_Isnil) {

  000d9	8b 4e 08	 mov	 ecx, DWORD PTR [esi+8]
  000dc	80 79 0d 00	 cmp	 BYTE PTR [ecx+13], 0
  000e0	75 03		 jne	 SHORT $LN29@Insert_nod

; 510  :             _Pnode->_Right->_Parent = _Wherenode;

  000e2	89 51 04	 mov	 DWORD PTR [ecx+4], edx
$LN29@Insert_nod:

; 511  :         }
; 512  : 
; 513  :         _Pnode->_Parent = _Wherenode->_Parent;

  000e5	8b 4a 04	 mov	 ecx, DWORD PTR [edx+4]
  000e8	89 4e 04	 mov	 DWORD PTR [esi+4], ecx

; 514  : 
; 515  :         if (_Wherenode == _Myhead->_Parent) {

  000eb	8b 0b		 mov	 ecx, DWORD PTR [ebx]
  000ed	3b 51 04	 cmp	 edx, DWORD PTR [ecx+4]
  000f0	75 0b		 jne	 SHORT $LN30@Insert_nod

; 516  :             _Myhead->_Parent = _Pnode;

  000f2	89 71 04	 mov	 DWORD PTR [ecx+4], esi

; 521  :         }
; 522  : 
; 523  :         _Pnode->_Right      = _Wherenode;

  000f5	89 56 08	 mov	 DWORD PTR [esi+8], edx

; 713  :                 }
; 714  :             } else { // fixup red-red in right subtree

  000f8	e9 cc 00 00 00	 jmp	 $LN81@Insert_nod
$LN30@Insert_nod:

; 517  :         } else if (_Wherenode == _Wherenode->_Parent->_Right) {

  000fd	8b 4a 04	 mov	 ecx, DWORD PTR [edx+4]
  00100	3b 51 08	 cmp	 edx, DWORD PTR [ecx+8]
  00103	75 0b		 jne	 SHORT $LN32@Insert_nod

; 518  :             _Wherenode->_Parent->_Right = _Pnode;

  00105	89 71 08	 mov	 DWORD PTR [ecx+8], esi

; 521  :         }
; 522  : 
; 523  :         _Pnode->_Right      = _Wherenode;

  00108	89 56 08	 mov	 DWORD PTR [esi+8], edx

; 713  :                 }
; 714  :             } else { // fixup red-red in right subtree

  0010b	e9 b9 00 00 00	 jmp	 $LN81@Insert_nod
$LN32@Insert_nod:

; 520  :             _Wherenode->_Parent->_Left = _Pnode;

  00110	89 31		 mov	 DWORD PTR [ecx], esi

; 521  :         }
; 522  : 
; 523  :         _Pnode->_Right      = _Wherenode;

  00112	89 56 08	 mov	 DWORD PTR [esi+8], edx

; 713  :                 }
; 714  :             } else { // fixup red-red in right subtree

  00115	e9 af 00 00 00	 jmp	 $LN81@Insert_nod
$LN10@Insert_nod:

; 715  :                 const auto _Parent_sibling = _Pnode->_Parent->_Parent->_Left;
; 716  :                 if (_Parent_sibling->_Color == _Red) { // parent's sibling has two red children, blacken both

  0011a	80 79 0c 00	 cmp	 BYTE PTR [ecx+12], 0
  0011e	75 1d		 jne	 SHORT $LN15@Insert_nod
$LN82@Insert_nod:

; 693  :             }
; 694  :         }
; 695  : 
; 696  :         for (_Nodeptr _Pnode = _Newnode; _Pnode->_Parent->_Color == _Red;) {

  00120	c6 42 0c 01	 mov	 BYTE PTR [edx+12], 1
  00124	c6 41 0c 01	 mov	 BYTE PTR [ecx+12], 1
  00128	8b 48 04	 mov	 ecx, DWORD PTR [eax+4]
  0012b	8b 49 04	 mov	 ecx, DWORD PTR [ecx+4]
  0012e	c6 41 0c 00	 mov	 BYTE PTR [ecx+12], 0
  00132	8b 48 04	 mov	 ecx, DWORD PTR [eax+4]
  00135	8b 41 04	 mov	 eax, DWORD PTR [ecx+4]
  00138	e9 8f 00 00 00	 jmp	 $LN2@Insert_nod
$LN15@Insert_nod:

; 717  :                     _Pnode->_Parent->_Color          = _Black;
; 718  :                     _Parent_sibling->_Color          = _Black;
; 719  :                     _Pnode->_Parent->_Parent->_Color = _Red;
; 720  :                     _Pnode                           = _Pnode->_Parent->_Parent;
; 721  :                 } else { // parent's sibling has red and black children
; 722  :                     if (_Pnode == _Pnode->_Parent->_Left) { // rotate left child to right

  0013d	8b 32		 mov	 esi, DWORD PTR [edx]
  0013f	3b c6		 cmp	 eax, esi
  00141	75 3a		 jne	 SHORT $LN42@Insert_nod

; 507  :         _Wherenode->_Left = _Pnode->_Right;

  00143	8b 4e 08	 mov	 ecx, DWORD PTR [esi+8]

; 723  :                         _Pnode = _Pnode->_Parent;

  00146	8b c2		 mov	 eax, edx

; 507  :         _Wherenode->_Left = _Pnode->_Right;

  00148	89 08		 mov	 DWORD PTR [eax], ecx

; 508  : 
; 509  :         if (!_Pnode->_Right->_Isnil) {

  0014a	8b 4e 08	 mov	 ecx, DWORD PTR [esi+8]
  0014d	80 79 0d 00	 cmp	 BYTE PTR [ecx+13], 0
  00151	75 03		 jne	 SHORT $LN37@Insert_nod

; 510  :             _Pnode->_Right->_Parent = _Wherenode;

  00153	89 41 04	 mov	 DWORD PTR [ecx+4], eax
$LN37@Insert_nod:

; 511  :         }
; 512  : 
; 513  :         _Pnode->_Parent = _Wherenode->_Parent;

  00156	8b 4a 04	 mov	 ecx, DWORD PTR [edx+4]
  00159	89 4e 04	 mov	 DWORD PTR [esi+4], ecx

; 514  : 
; 515  :         if (_Wherenode == _Myhead->_Parent) {

  0015c	8b 0b		 mov	 ecx, DWORD PTR [ebx]
  0015e	3b 41 04	 cmp	 eax, DWORD PTR [ecx+4]
  00161	75 05		 jne	 SHORT $LN38@Insert_nod

; 516  :             _Myhead->_Parent = _Pnode;

  00163	89 71 04	 mov	 DWORD PTR [ecx+4], esi
  00166	eb 0f		 jmp	 SHORT $LN41@Insert_nod
$LN38@Insert_nod:

; 517  :         } else if (_Wherenode == _Wherenode->_Parent->_Right) {

  00168	8b 4a 04	 mov	 ecx, DWORD PTR [edx+4]
  0016b	3b 41 08	 cmp	 eax, DWORD PTR [ecx+8]
  0016e	75 05		 jne	 SHORT $LN40@Insert_nod

; 518  :             _Wherenode->_Parent->_Right = _Pnode;

  00170	89 71 08	 mov	 DWORD PTR [ecx+8], esi

; 519  :         } else {

  00173	eb 02		 jmp	 SHORT $LN41@Insert_nod
$LN40@Insert_nod:

; 520  :             _Wherenode->_Parent->_Left = _Pnode;

  00175	89 31		 mov	 DWORD PTR [ecx], esi
$LN41@Insert_nod:

; 521  :         }
; 522  : 
; 523  :         _Pnode->_Right      = _Wherenode;

  00177	89 46 08	 mov	 DWORD PTR [esi+8], eax

; 524  :         _Wherenode->_Parent = _Pnode;

  0017a	89 70 04	 mov	 DWORD PTR [eax+4], esi
$LN42@Insert_nod:

; 724  :                         _Rrotate(_Pnode);
; 725  :                     }
; 726  : 
; 727  :                     _Pnode->_Parent->_Color          = _Black; // propagate red up

  0017d	8b 48 04	 mov	 ecx, DWORD PTR [eax+4]
  00180	c6 41 0c 01	 mov	 BYTE PTR [ecx+12], 1

; 728  :                     _Pnode->_Parent->_Parent->_Color = _Red;

  00184	8b 48 04	 mov	 ecx, DWORD PTR [eax+4]
  00187	8b 49 04	 mov	 ecx, DWORD PTR [ecx+4]
  0018a	c6 41 0c 00	 mov	 BYTE PTR [ecx+12], 0

; 729  :                     _Lrotate(_Pnode->_Parent->_Parent);

  0018e	8b 48 04	 mov	 ecx, DWORD PTR [eax+4]
  00191	8b 51 04	 mov	 edx, DWORD PTR [ecx+4]

; 484  :         _Nodeptr _Pnode    = _Wherenode->_Right;

  00194	8b 72 08	 mov	 esi, DWORD PTR [edx+8]

; 485  :         _Wherenode->_Right = _Pnode->_Left;

  00197	8b 0e		 mov	 ecx, DWORD PTR [esi]
  00199	89 4a 08	 mov	 DWORD PTR [edx+8], ecx

; 486  : 
; 487  :         if (!_Pnode->_Left->_Isnil) {

  0019c	8b 0e		 mov	 ecx, DWORD PTR [esi]
  0019e	80 79 0d 00	 cmp	 BYTE PTR [ecx+13], 0
  001a2	75 03		 jne	 SHORT $LN45@Insert_nod

; 488  :             _Pnode->_Left->_Parent = _Wherenode;

  001a4	89 51 04	 mov	 DWORD PTR [ecx+4], edx
$LN45@Insert_nod:

; 489  :         }
; 490  : 
; 491  :         _Pnode->_Parent = _Wherenode->_Parent;

  001a7	8b 4a 04	 mov	 ecx, DWORD PTR [edx+4]
  001aa	89 4e 04	 mov	 DWORD PTR [esi+4], ecx

; 492  : 
; 493  :         if (_Wherenode == _Myhead->_Parent) {

  001ad	8b 0b		 mov	 ecx, DWORD PTR [ebx]
  001af	3b 51 04	 cmp	 edx, DWORD PTR [ecx+4]
  001b2	75 05		 jne	 SHORT $LN46@Insert_nod

; 494  :             _Myhead->_Parent = _Pnode;

  001b4	89 71 04	 mov	 DWORD PTR [ecx+4], esi
  001b7	eb 0e		 jmp	 SHORT $LN49@Insert_nod
$LN46@Insert_nod:

; 495  :         } else if (_Wherenode == _Wherenode->_Parent->_Left) {

  001b9	8b 4a 04	 mov	 ecx, DWORD PTR [edx+4]
  001bc	3b 11		 cmp	 edx, DWORD PTR [ecx]
  001be	75 04		 jne	 SHORT $LN48@Insert_nod

; 496  :             _Wherenode->_Parent->_Left = _Pnode;

  001c0	89 31		 mov	 DWORD PTR [ecx], esi

; 497  :         } else {

  001c2	eb 03		 jmp	 SHORT $LN49@Insert_nod
$LN48@Insert_nod:

; 498  :             _Wherenode->_Parent->_Right = _Pnode;

  001c4	89 71 08	 mov	 DWORD PTR [ecx+8], esi
$LN49@Insert_nod:

; 499  :         }
; 500  : 
; 501  :         _Pnode->_Left       = _Wherenode;

  001c7	89 16		 mov	 DWORD PTR [esi], edx
$LN81@Insert_nod:

; 693  :             }
; 694  :         }
; 695  : 
; 696  :         for (_Nodeptr _Pnode = _Newnode; _Pnode->_Parent->_Color == _Red;) {

  001c9	89 72 04	 mov	 DWORD PTR [edx+4], esi
$LN2@Insert_nod:
  001cc	8b 48 04	 mov	 ecx, DWORD PTR [eax+4]
  001cf	80 79 0c 00	 cmp	 BYTE PTR [ecx+12], 0
  001d3	0f 84 87 fe ff
	ff		 je	 $LL4@Insert_nod
  001d9	5e		 pop	 esi
$LN3@Insert_nod:

; 730  :                 }
; 731  :             }
; 732  :         }
; 733  : 
; 734  :         _Head->_Parent->_Color = _Black; // root is always black

  001da	8b 45 fc	 mov	 eax, DWORD PTR __Head$1$[ebp]
  001dd	8b 40 04	 mov	 eax, DWORD PTR [eax+4]
  001e0	c6 40 0c 01	 mov	 BYTE PTR [eax+12], 1

; 735  :         return _Newnode;
; 736  :     }

  001e4	8b c7		 mov	 eax, edi
  001e6	5f		 pop	 edi
  001e7	5b		 pop	 ebx
  001e8	8b e5		 mov	 esp, ebp
  001ea	5d		 pop	 ebp
  001eb	c2 0c 00	 ret	 12			; 0000000cH
?_Insert_node@?$_Tree_val@U?$_Tree_simple_types@U?$pair@$$CBHH@std@@@std@@@std@@QAEPAU?$_Tree_node@U?$pair@$$CBHH@std@@PAX@2@U?$_Tree_id@PAU?$_Tree_node@U?$pair@$$CBHH@std@@PAX@std@@@2@QAU32@@Z ENDP ; std::_Tree_val<std::_Tree_simple_types<std::pair<int const ,int> > >::_Insert_node
_TEXT	ENDS
; Function compile flags: /Ogtp
; File C:\Program Files\Microsoft Visual Studio\2022\Professional\VC\Tools\MSVC\14.44.35207\include\xtree
; File C:\Program Files\Microsoft Visual Studio\2022\Professional\VC\Tools\MSVC\14.44.35207\include\utility
; File C:\Program Files\Microsoft Visual Studio\2022\Professional\VC\Tools\MSVC\14.44.35207\include\xmemory
; File C:\Program Files\Microsoft Visual Studio\2022\Professional\VC\Tools\MSVC\14.44.35207\include\xtree
; File C:\Program Files\Microsoft Visual Studio\2022\Professional\VC\Tools\MSVC\14.44.35207\include\xmemory
; File C:\Program Files\Microsoft Visual Studio\2022\Professional\VC\Tools\MSVC\14.44.35207\include\xtree
;	COMDAT ??1?$_Tree@V?$_Tmap_traits@HHU?$less@H@std@@V?$allocator@U?$pair@$$CBHH@std@@@2@$0A@@std@@@std@@QAE@XZ
_TEXT	SEGMENT
??1?$_Tree@V?$_Tmap_traits@HHU?$less@H@std@@V?$allocator@U?$pair@$$CBHH@std@@@2@$0A@@std@@@std@@QAE@XZ PROC ; std::_Tree<std::_Tmap_traits<int,int,std::less<int>,std::allocator<std::pair<int const ,int> >,0> >::~_Tree<std::_Tmap_traits<int,int,std::less<int>,std::allocator<std::pair<int const ,int> >,0> >, COMDAT
; _this$ = ecx

; 1095 :     ~_Tree() noexcept {

  00000	56		 push	 esi
  00001	57		 push	 edi
  00002	8b f9		 mov	 edi, ecx

; 777  :         _Erase_tree(_Al, _Myhead->_Parent);

  00004	8b 37		 mov	 esi, DWORD PTR [edi]
  00006	8b 76 04	 mov	 esi, DWORD PTR [esi+4]

; 768  :         while (!_Rootnode->_Isnil) { // free subtrees, then node

  00009	80 7e 0d 00	 cmp	 BYTE PTR [esi+13], 0
  0000d	75 21		 jne	 SHORT $LN61@Tree
  0000f	90		 npad	 1
$LL8@Tree:

; 769  :             _Erase_tree(_Al, _Rootnode->_Right);

  00010	ff 76 08	 push	 DWORD PTR [esi+8]
  00013	8b cf		 mov	 ecx, edi
  00015	57		 push	 edi
  00016	e8 00 00 00 00	 call	 ??$_Erase_tree@V?$allocator@U?$_Tree_node@U?$pair@$$CBHH@std@@PAX@std@@@std@@@?$_Tree_val@U?$_Tree_simple_types@U?$pair@$$CBHH@std@@@std@@@std@@QAEXAAV?$allocator@U?$_Tree_node@U?$pair@$$CBHH@std@@PAX@std@@@1@PAU?$_Tree_node@U?$pair@$$CBHH@std@@PAX@1@@Z ; std::_Tree_val<std::_Tree_simple_types<std::pair<int const ,int> > >::_Erase_tree<std::allocator<std::_Tree_node<std::pair<int const ,int>,void *> > >
; File C:\Program Files\Microsoft Visual Studio\2022\Professional\VC\Tools\MSVC\14.44.35207\include\utility

; 773  :     _Ty _Old_val = static_cast<_Ty&&>(_Val);

  0001b	8b c6		 mov	 eax, esi

; 774  :     _Val         = static_cast<_Other&&>(_New_val);

  0001d	8b 36		 mov	 esi, DWORD PTR [esi]
; File C:\Program Files\Microsoft Visual Studio\2022\Professional\VC\Tools\MSVC\14.44.35207\include\xmemory

; 289  :         ::operator delete(_Ptr, _Bytes);

  0001f	6a 18		 push	 24			; 00000018H
  00021	50		 push	 eax
  00022	e8 00 00 00 00	 call	 ??3@YAXPAXI@Z		; operator delete
  00027	83 c4 08	 add	 esp, 8
; File C:\Program Files\Microsoft Visual Studio\2022\Professional\VC\Tools\MSVC\14.44.35207\include\xtree

; 768  :         while (!_Rootnode->_Isnil) { // free subtrees, then node

  0002a	80 7e 0d 00	 cmp	 BYTE PTR [esi+13], 0
  0002e	74 e0		 je	 SHORT $LL8@Tree
$LN61@Tree:
; File C:\Program Files\Microsoft Visual Studio\2022\Professional\VC\Tools\MSVC\14.44.35207\include\xmemory

; 289  :         ::operator delete(_Ptr, _Bytes);

  00030	6a 18		 push	 24			; 00000018H
  00032	ff 37		 push	 DWORD PTR [edi]
  00034	e8 00 00 00 00	 call	 ??3@YAXPAXI@Z		; operator delete
  00039	83 c4 08	 add	 esp, 8
  0003c	5f		 pop	 edi
  0003d	5e		 pop	 esi
; File C:\Program Files\Microsoft Visual Studio\2022\Professional\VC\Tools\MSVC\14.44.35207\include\xtree

; 1102 :     }

  0003e	c3		 ret	 0
??1?$_Tree@V?$_Tmap_traits@HHU?$less@H@std@@V?$allocator@U?$pair@$$CBHH@std@@@2@$0A@@std@@@std@@QAE@XZ ENDP ; std::_Tree<std::_Tmap_traits<int,int,std::less<int>,std::allocator<std::pair<int const ,int> >,0> >::~_Tree<std::_Tmap_traits<int,int,std::less<int>,std::allocator<std::pair<int const ,int> >,0> >
_TEXT	ENDS
; Function compile flags: /Ogtp
; File C:\Program Files\Microsoft Visual Studio\2022\Professional\VC\Tools\MSVC\14.44.35207\include\vector
;	COMDAT ?_Xlength@?$vector@KV?$allocator@K@std@@@std@@CAXXZ
_TEXT	SEGMENT
?_Xlength@?$vector@KV?$allocator@K@std@@@std@@CAXXZ PROC ; std::vector<unsigned long,std::allocator<unsigned long> >::_Xlength, COMDAT

; 2184 :         _Xlength_error("vector too long");

  00000	68 00 00 00 00	 push	 OFFSET ??_C@_0BA@FOIKENOD@vector?5too?5long@
  00005	e8 00 00 00 00	 call	 ?_Xlength_error@std@@YAXPBD@Z ; std::_Xlength_error
$LN3@Xlength:
  0000a	cc		 int	 3
?_Xlength@?$vector@KV?$allocator@K@std@@@std@@CAXXZ ENDP ; std::vector<unsigned long,std::allocator<unsigned long> >::_Xlength
_TEXT	ENDS
; Function compile flags: /Ogtp
; File C:\Program Files\Microsoft Visual Studio\2022\Professional\VC\Tools\MSVC\14.44.35207\include\vector
; File C:\Program Files\Microsoft Visual Studio\2022\Professional\VC\Tools\MSVC\14.44.35207\include\xmemory
; File C:\Program Files\Microsoft Visual Studio\2022\Professional\VC\Tools\MSVC\14.44.35207\include\vector
; File C:\Program Files\Microsoft Visual Studio\2022\Professional\VC\Tools\MSVC\14.44.35207\include\xmemory
; File C:\Program Files\Microsoft Visual Studio\2022\Professional\VC\Tools\MSVC\14.44.35207\include\vector
; File C:\Program Files\Microsoft Visual Studio\2022\Professional\VC\Tools\MSVC\14.44.35207\include\xmemory
; File C:\Program Files\Microsoft Visual Studio\2022\Professional\VC\Tools\MSVC\14.44.35207\include\vector
;	COMDAT ?_Tidy@?$vector@KV?$allocator@K@std@@@std@@AAEXXZ
_TEXT	SEGMENT
?_Tidy@?$vector@KV?$allocator@K@std@@@std@@AAEXXZ PROC	; std::vector<unsigned long,std::allocator<unsigned long> >::_Tidy, COMDAT
; _this$ = ecx

; 2081 :     _CONSTEXPR20 void _Tidy() noexcept { // free all storage

  00000	56		 push	 esi
  00001	8b f1		 mov	 esi, ecx

; 2082 :         auto& _Al         = _Getal();
; 2083 :         auto& _My_data    = _Mypair._Myval2;
; 2084 :         pointer& _Myfirst = _My_data._Myfirst;
; 2085 :         pointer& _Mylast  = _My_data._Mylast;
; 2086 :         pointer& _Myend   = _My_data._Myend;
; 2087 : 
; 2088 :         _My_data._Orphan_all();
; 2089 : 
; 2090 :         if (_Myfirst) { // destroy and deallocate old array

  00003	8b 06		 mov	 eax, DWORD PTR [esi]
  00005	85 c0		 test	 eax, eax
  00007	74 40		 je	 SHORT $LN2@Tidy

; 2091 :             _STD _Destroy_range(_Myfirst, _Mylast, _Al);
; 2092 :             _ASAN_VECTOR_REMOVE;
; 2093 :             _Al.deallocate(_Myfirst, static_cast<size_type>(_Myend - _Myfirst));

  00009	8b 4e 08	 mov	 ecx, DWORD PTR [esi+8]
  0000c	2b c8		 sub	 ecx, eax
; File C:\Program Files\Microsoft Visual Studio\2022\Professional\VC\Tools\MSVC\14.44.35207\include\xmemory

; 985  :         _STD _Deallocate<_New_alignof<_Ty>>(_Ptr, sizeof(_Ty) * _Count);

  0000e	83 e1 fc	 and	 ecx, -4			; fffffffcH

; 284  :         if (_Bytes >= _Big_allocation_threshold) {

  00011	81 f9 00 10 00
	00		 cmp	 ecx, 4096		; 00001000H
  00017	72 12		 jb	 SHORT $LN15@Tidy

; 205  :     const uintptr_t _Ptr_container   = _Ptr_user[-1];

  00019	8b 50 fc	 mov	 edx, DWORD PTR [eax-4]
  0001c	83 c1 23	 add	 ecx, 35			; 00000023H

; 206  : 
; 207  :     // If the following asserts, it likely means that we are performing
; 208  :     // an aligned delete on memory coming from an unaligned allocation.
; 209  :     _STL_ASSERT(_Ptr_user[-2] == _Big_allocation_sentinel, "invalid argument");
; 210  : 
; 211  :     // Extra paranoia on aligned allocation/deallocation; ensure _Ptr_container is
; 212  :     // in range [_Min_back_shift, _Non_user_size]
; 213  : #ifdef _DEBUG
; 214  :     constexpr uintptr_t _Min_back_shift = 2 * sizeof(void*);
; 215  : #else // ^^^ defined(_DEBUG) / !defined(_DEBUG) vvv
; 216  :     constexpr uintptr_t _Min_back_shift = sizeof(void*);
; 217  : #endif // ^^^ !defined(_DEBUG) ^^^
; 218  :     const uintptr_t _Back_shift = reinterpret_cast<uintptr_t>(_Ptr) - _Ptr_container;

  0001f	2b c2		 sub	 eax, edx

; 219  :     _STL_VERIFY(_Back_shift >= _Min_back_shift && _Back_shift <= _Non_user_size, "invalid argument");

  00021	83 c0 fc	 add	 eax, -4			; fffffffcH
  00024	83 f8 1f	 cmp	 eax, 31			; 0000001fH
  00027	77 22		 ja	 SHORT $LN14@Tidy

; 220  :     _Ptr = reinterpret_cast<void*>(_Ptr_container);

  00029	8b c2		 mov	 eax, edx
$LN15@Tidy:

; 289  :         ::operator delete(_Ptr, _Bytes);

  0002b	51		 push	 ecx
  0002c	50		 push	 eax
  0002d	e8 00 00 00 00	 call	 ??3@YAXPAXI@Z		; operator delete
; File C:\Program Files\Microsoft Visual Studio\2022\Professional\VC\Tools\MSVC\14.44.35207\include\vector

; 2095 :             _Myfirst = nullptr;

  00032	c7 06 00 00 00
	00		 mov	 DWORD PTR [esi], 0
; File C:\Program Files\Microsoft Visual Studio\2022\Professional\VC\Tools\MSVC\14.44.35207\include\xmemory

; 289  :         ::operator delete(_Ptr, _Bytes);

  00038	83 c4 08	 add	 esp, 8
; File C:\Program Files\Microsoft Visual Studio\2022\Professional\VC\Tools\MSVC\14.44.35207\include\vector

; 2096 :             _Mylast  = nullptr;

  0003b	c7 46 04 00 00
	00 00		 mov	 DWORD PTR [esi+4], 0

; 2097 :             _Myend   = nullptr;

  00042	c7 46 08 00 00
	00 00		 mov	 DWORD PTR [esi+8], 0
$LN2@Tidy:

; 2099 :     }

  00049	5e		 pop	 esi
  0004a	c3		 ret	 0
$LN14@Tidy:
; File C:\Program Files\Microsoft Visual Studio\2022\Professional\VC\Tools\MSVC\14.44.35207\include\xmemory

; 219  :     _STL_VERIFY(_Back_shift >= _Min_back_shift && _Back_shift <= _Non_user_size, "invalid argument");

  0004b	6a 00		 push	 0
  0004d	6a 00		 push	 0
  0004f	6a 00		 push	 0
  00051	6a 00		 push	 0
  00053	6a 00		 push	 0
  00055	e8 00 00 00 00	 call	 __invoke_watson
$LN22@Tidy:
  0005a	cc		 int	 3
?_Tidy@?$vector@KV?$allocator@K@std@@@std@@AAEXXZ ENDP	; std::vector<unsigned long,std::allocator<unsigned long> >::_Tidy
_TEXT	ENDS
; Function compile flags: /Ogtp
; File C:\Program Files\Microsoft Visual Studio\2022\Professional\VC\Tools\MSVC\14.44.35207\include\vector
; File C:\Program Files\Microsoft Visual Studio\2022\Professional\VC\Tools\MSVC\14.44.35207\include\xmemory
; File C:\Program Files\Microsoft Visual Studio\2022\Professional\VC\Tools\MSVC\14.44.35207\include\vector
; File C:\Program Files\Microsoft Visual Studio\2022\Professional\VC\Tools\MSVC\14.44.35207\include\xmemory
; File C:\Program Files\Microsoft Visual Studio\2022\Professional\VC\Tools\MSVC\14.44.35207\include\vector
; File C:\Program Files\Microsoft Visual Studio\2022\Professional\VC\Tools\MSVC\14.44.35207\include\xmemory
; File C:\Program Files\Microsoft Visual Studio\2022\Professional\VC\Tools\MSVC\14.44.35207\include\vector
; File C:\Program Files\Microsoft Visual Studio\2022\Professional\VC\Tools\MSVC\14.44.35207\include\xmemory
; File C:\Program Files\Microsoft Visual Studio\2022\Professional\VC\Tools\MSVC\14.44.35207\include\vector
; File C:\Program Files\Microsoft Visual Studio\2022\Professional\VC\Tools\MSVC\14.44.35207\include\xmemory
; File C:\Program Files\Microsoft Visual Studio\2022\Professional\VC\Tools\MSVC\14.44.35207\include\vector
;	COMDAT ?_Buy_raw@?$vector@KV?$allocator@K@std@@@std@@AAEXI@Z
_TEXT	SEGMENT
__Newcapacity$ = 8					; size = 4
?_Buy_raw@?$vector@KV?$allocator@K@std@@@std@@AAEXI@Z PROC ; std::vector<unsigned long,std::allocator<unsigned long> >::_Buy_raw, COMDAT
; _this$ = ecx

; 2024 :     _CONSTEXPR20 void _Buy_raw(size_type _Newcapacity) {

  00000	55		 push	 ebp
  00001	8b ec		 mov	 ebp, esp
  00003	56		 push	 esi
; File C:\Program Files\Microsoft Visual Studio\2022\Professional\VC\Tools\MSVC\14.44.35207\include\xmemory

; 117  :         if (_Count > _Max_possible) {

  00004	8b 75 08	 mov	 esi, DWORD PTR __Newcapacity$[ebp]
; File C:\Program Files\Microsoft Visual Studio\2022\Professional\VC\Tools\MSVC\14.44.35207\include\vector

; 2024 :     _CONSTEXPR20 void _Buy_raw(size_type _Newcapacity) {

  00007	57		 push	 edi
  00008	8b f9		 mov	 edi, ecx
; File C:\Program Files\Microsoft Visual Studio\2022\Professional\VC\Tools\MSVC\14.44.35207\include\xmemory

; 117  :         if (_Count > _Max_possible) {

  0000a	81 fe ff ff ff
	3f		 cmp	 esi, 1073741823		; 3fffffffH
  00010	77 52		 ja	 SHORT $LN25@Buy_raw

; 119  :         }
; 120  :     }
; 121  : 
; 122  :     return _Count * _Ty_size;

  00012	c1 e6 02	 shl	 esi, 2

; 227  :     if (_Bytes == 0) {

  00015	85 f6		 test	 esi, esi
  00017	75 12		 jne	 SHORT $LN12@Buy_raw

; 228  :         return nullptr;

  00019	33 c0		 xor	 eax, eax
; File C:\Program Files\Microsoft Visual Studio\2022\Professional\VC\Tools\MSVC\14.44.35207\include\vector

; 2035 :         _Myfirst              = _Newvec;

  0001b	89 07		 mov	 DWORD PTR [edi], eax

; 2036 :         _Mylast               = _Newvec;

  0001d	89 47 04	 mov	 DWORD PTR [edi+4], eax

; 2037 :         _Myend                = _Newvec + _Newcapacity;

  00020	8b c6		 mov	 eax, esi
  00022	89 47 08	 mov	 DWORD PTR [edi+8], eax

; 2038 :     }

  00025	5f		 pop	 edi
  00026	5e		 pop	 esi
  00027	5d		 pop	 ebp
  00028	c2 04 00	 ret	 4
$LN12@Buy_raw:
; File C:\Program Files\Microsoft Visual Studio\2022\Professional\VC\Tools\MSVC\14.44.35207\include\xmemory

; 251  :         if (_Bytes >= _Big_allocation_threshold) {

  0002b	56		 push	 esi
  0002c	81 fe 00 10 00
	00		 cmp	 esi, 4096		; 00001000H
  00032	72 18		 jb	 SHORT $LN13@Buy_raw

; 252  :             // boost the alignment of big allocations to help autovectorization
; 253  :             return _Allocate_manually_vector_aligned<_Traits>(_Bytes);

  00034	e8 00 00 00 00	 call	 ??$_Allocate_manually_vector_aligned@U_Default_allocate_traits@std@@@std@@YAPAXI@Z ; std::_Allocate_manually_vector_aligned<std::_Default_allocate_traits>
; File C:\Program Files\Microsoft Visual Studio\2022\Professional\VC\Tools\MSVC\14.44.35207\include\vector

; 2035 :         _Myfirst              = _Newvec;

  00039	89 07		 mov	 DWORD PTR [edi], eax
  0003b	83 c4 04	 add	 esp, 4

; 2036 :         _Mylast               = _Newvec;

  0003e	89 47 04	 mov	 DWORD PTR [edi+4], eax

; 2037 :         _Myend                = _Newvec + _Newcapacity;

  00041	03 c6		 add	 eax, esi
  00043	89 47 08	 mov	 DWORD PTR [edi+8], eax

; 2038 :     }

  00046	5f		 pop	 edi
  00047	5e		 pop	 esi
  00048	5d		 pop	 ebp
  00049	c2 04 00	 ret	 4
$LN13@Buy_raw:
; File C:\Program Files\Microsoft Visual Studio\2022\Professional\VC\Tools\MSVC\14.44.35207\include\xmemory

; 136  :         return ::operator new(_Bytes);

  0004c	e8 00 00 00 00	 call	 ??2@YAPAXI@Z		; operator new
; File C:\Program Files\Microsoft Visual Studio\2022\Professional\VC\Tools\MSVC\14.44.35207\include\vector

; 2035 :         _Myfirst              = _Newvec;

  00051	89 07		 mov	 DWORD PTR [edi], eax
  00053	83 c4 04	 add	 esp, 4

; 2036 :         _Mylast               = _Newvec;

  00056	89 47 04	 mov	 DWORD PTR [edi+4], eax

; 2037 :         _Myend                = _Newvec + _Newcapacity;

  00059	03 c6		 add	 eax, esi
  0005b	89 47 08	 mov	 DWORD PTR [edi+8], eax

; 2038 :     }

  0005e	5f		 pop	 edi
  0005f	5e		 pop	 esi
  00060	5d		 pop	 ebp
  00061	c2 04 00	 ret	 4
$LN25@Buy_raw:
; File C:\Program Files\Microsoft Visual Studio\2022\Professional\VC\Tools\MSVC\14.44.35207\include\xmemory

; 118  :             _Throw_bad_array_new_length(); // multiply overflow

  00064	e8 00 00 00 00	 call	 ?_Throw_bad_array_new_length@std@@YAXXZ ; std::_Throw_bad_array_new_length
$LN22@Buy_raw:
  00069	cc		 int	 3
?_Buy_raw@?$vector@KV?$allocator@K@std@@@std@@AAEXI@Z ENDP ; std::vector<unsigned long,std::allocator<unsigned long> >::_Buy_raw
_TEXT	ENDS
; Function compile flags: /Ogtp
; File C:\Program Files\Microsoft Visual Studio\2022\Professional\VC\Tools\MSVC\14.44.35207\include\vector
; File C:\Program Files\Microsoft Visual Studio\2022\Professional\VC\Tools\MSVC\14.44.35207\include\xmemory
; File C:\Program Files\Microsoft Visual Studio\2022\Professional\VC\Tools\MSVC\14.44.35207\include\xutility
; File C:\Program Files\Microsoft Visual Studio\2022\Professional\VC\Tools\MSVC\14.44.35207\include\vector
; File C:\Program Files\Microsoft Visual Studio\2022\Professional\VC\Tools\MSVC\14.44.35207\include\xmemory
; File C:\Program Files\Microsoft Visual Studio\2022\Professional\VC\Tools\MSVC\14.44.35207\include\vector
; File C:\Program Files\Microsoft Visual Studio\2022\Professional\VC\Tools\MSVC\14.44.35207\include\xutility
; File C:\Program Files\Microsoft Visual Studio\2022\Professional\VC\Tools\MSVC\14.44.35207\include\vector
; File C:\Program Files\Microsoft Visual Studio\2022\Professional\VC\Tools\MSVC\14.44.35207\include\xutility
; File C:\Program Files\Microsoft Visual Studio\2022\Professional\VC\Tools\MSVC\14.44.35207\include\vector
;	COMDAT ??4?$vector@KV?$allocator@K@std@@@std@@QAEAAV01@ABV01@@Z
_TEXT	SEGMENT
tv519 = -8						; size = 4
__Oldsize$1$ = -4					; size = 4
__Right$ = 8						; size = 4
__First$2$ = 8						; size = 4
??4?$vector@KV?$allocator@K@std@@@std@@QAEAAV01@ABV01@@Z PROC ; std::vector<unsigned long,std::allocator<unsigned long> >::operator=, COMDAT
; _this$ = ecx

; 1523 :     _CONSTEXPR20 vector& operator=(const vector& _Right) {

  00000	55		 push	 ebp
  00001	8b ec		 mov	 ebp, esp
  00003	83 ec 08	 sub	 esp, 8
  00006	53		 push	 ebx

; 1524 :         if (this == _STD addressof(_Right)) {

  00007	8b 5d 08	 mov	 ebx, DWORD PTR __Right$[ebp]
  0000a	57		 push	 edi
  0000b	8b f9		 mov	 edi, ecx
  0000d	3b fb		 cmp	 edi, ebx
  0000f	0f 84 e5 00 00
	00		 je	 $LN10@operator

; 1525 :             return *this;
; 1526 :         }
; 1527 : 
; 1528 :         auto& _Al       = _Getal();
; 1529 :         auto& _Right_al = _Right._Getal();
; 1530 :         if constexpr (_Choose_pocca_v<_Alty>) {
; 1531 :             if (_Al != _Right_al) {
; 1532 :                 _Tidy();
; 1533 :                 _Mypair._Myval2._Reload_proxy(_GET_PROXY_ALLOCATOR(_Alty, _Al), _GET_PROXY_ALLOCATOR(_Alty, _Right_al));
; 1534 :             }
; 1535 :         }
; 1536 : 
; 1537 :         _Pocca(_Al, _Right_al);
; 1538 :         auto& _Right_data = _Right._Mypair._Myval2;
; 1539 :         _Assign_counted_range(_Right_data._Myfirst, static_cast<size_type>(_Right_data._Mylast - _Right_data._Myfirst));

  00015	8b 03		 mov	 eax, DWORD PTR [ebx]
  00017	8b 5b 04	 mov	 ebx, DWORD PTR [ebx+4]

; 1432 :         const auto _Oldcapacity = static_cast<size_type>(_Myend - _Myfirst);

  0001a	8b 0f		 mov	 ecx, DWORD PTR [edi]

; 1525 :             return *this;
; 1526 :         }
; 1527 : 
; 1528 :         auto& _Al       = _Getal();
; 1529 :         auto& _Right_al = _Right._Getal();
; 1530 :         if constexpr (_Choose_pocca_v<_Alty>) {
; 1531 :             if (_Al != _Right_al) {
; 1532 :                 _Tidy();
; 1533 :                 _Mypair._Myval2._Reload_proxy(_GET_PROXY_ALLOCATOR(_Alty, _Al), _GET_PROXY_ALLOCATOR(_Alty, _Right_al));
; 1534 :             }
; 1535 :         }
; 1536 : 
; 1537 :         _Pocca(_Al, _Right_al);
; 1538 :         auto& _Right_data = _Right._Mypair._Myval2;
; 1539 :         _Assign_counted_range(_Right_data._Myfirst, static_cast<size_type>(_Right_data._Mylast - _Right_data._Myfirst));

  0001c	2b d8		 sub	 ebx, eax

; 1432 :         const auto _Oldcapacity = static_cast<size_type>(_Myend - _Myfirst);

  0001e	8b 57 08	 mov	 edx, DWORD PTR [edi+8]
  00021	2b d1		 sub	 edx, ecx

; 1525 :             return *this;
; 1526 :         }
; 1527 : 
; 1528 :         auto& _Al       = _Getal();
; 1529 :         auto& _Right_al = _Right._Getal();
; 1530 :         if constexpr (_Choose_pocca_v<_Alty>) {
; 1531 :             if (_Al != _Right_al) {
; 1532 :                 _Tidy();
; 1533 :                 _Mypair._Myval2._Reload_proxy(_GET_PROXY_ALLOCATOR(_Alty, _Al), _GET_PROXY_ALLOCATOR(_Alty, _Right_al));
; 1534 :             }
; 1535 :         }
; 1536 : 
; 1537 :         _Pocca(_Al, _Right_al);
; 1538 :         auto& _Right_data = _Right._Mypair._Myval2;
; 1539 :         _Assign_counted_range(_Right_data._Myfirst, static_cast<size_type>(_Right_data._Mylast - _Right_data._Myfirst));

  00023	c1 fb 02	 sar	 ebx, 2

; 1432 :         const auto _Oldcapacity = static_cast<size_type>(_Myend - _Myfirst);

  00026	c1 fa 02	 sar	 edx, 2

; 1525 :             return *this;
; 1526 :         }
; 1527 : 
; 1528 :         auto& _Al       = _Getal();
; 1529 :         auto& _Right_al = _Right._Getal();
; 1530 :         if constexpr (_Choose_pocca_v<_Alty>) {
; 1531 :             if (_Al != _Right_al) {
; 1532 :                 _Tidy();
; 1533 :                 _Mypair._Myval2._Reload_proxy(_GET_PROXY_ALLOCATOR(_Alty, _Al), _GET_PROXY_ALLOCATOR(_Alty, _Right_al));
; 1534 :             }
; 1535 :         }
; 1536 : 
; 1537 :         _Pocca(_Al, _Right_al);
; 1538 :         auto& _Right_data = _Right._Mypair._Myval2;
; 1539 :         _Assign_counted_range(_Right_data._Myfirst, static_cast<size_type>(_Right_data._Mylast - _Right_data._Myfirst));

  00029	89 45 08	 mov	 DWORD PTR __First$2$[ebp], eax

; 1432 :         const auto _Oldcapacity = static_cast<size_type>(_Myend - _Myfirst);

  0002c	89 4d f8	 mov	 DWORD PTR tv519[ebp], ecx
  0002f	56		 push	 esi

; 1433 :         if (_Newsize > _Oldcapacity) {

  00030	3b da		 cmp	 ebx, edx
  00032	76 73		 jbe	 SHORT $LN8@operator

; 1703 :         if (_Newsize > max_size()) {

  00034	81 fb ff ff ff
	3f		 cmp	 ebx, 1073741823		; 3fffffffH
  0003a	0f 87 c4 00 00
	00		 ja	 $LN69@operator

; 2011 :         if (_Oldcapacity > _Max - _Oldcapacity / 2) {

  00040	8b f2		 mov	 esi, edx
  00042	b8 ff ff ff 3f	 mov	 eax, 1073741823		; 3fffffffH
  00047	d1 ee		 shr	 esi, 1
  00049	2b c6		 sub	 eax, esi
  0004b	3b d0		 cmp	 edx, eax
  0004d	76 07		 jbe	 SHORT $LN18@operator

; 2012 :             return _Max; // geometric growth would overflow

  0004f	be ff ff ff 3f	 mov	 esi, 1073741823		; 3fffffffH
  00054	eb 07		 jmp	 SHORT $LN19@operator
$LN18@operator:

; 2013 :         }
; 2014 : 
; 2015 :         const size_type _Geometric = _Oldcapacity + _Oldcapacity / 2;

  00056	03 f2		 add	 esi, edx

; 2016 : 
; 2017 :         if (_Geometric < _Newsize) {

  00058	3b f3		 cmp	 esi, ebx
  0005a	0f 42 f3	 cmovb	 esi, ebx
$LN19@operator:

; 1709 :         if (_Myfirst) { // destroy and deallocate old array

  0005d	85 c9		 test	 ecx, ecx
  0005f	74 1d		 je	 SHORT $LN15@operator

; 1710 :             _Destroy_range(_Myfirst, _Mylast, _Al);
; 1711 :             _ASAN_VECTOR_REMOVE;
; 1712 :             _Al.deallocate(_Myfirst, static_cast<size_type>(_Myend - _Myfirst));

  00061	52		 push	 edx
  00062	51		 push	 ecx
  00063	8b cf		 mov	 ecx, edi
  00065	e8 00 00 00 00	 call	 ?deallocate@?$allocator@K@std@@QAEXQAKI@Z ; std::allocator<unsigned long>::deallocate

; 1713 : 
; 1714 :             _Myfirst = nullptr;

  0006a	c7 07 00 00 00
	00		 mov	 DWORD PTR [edi], 0

; 1715 :             _Mylast  = nullptr;

  00070	c7 47 04 00 00
	00 00		 mov	 DWORD PTR [edi+4], 0

; 1716 :             _Myend   = nullptr;

  00077	c7 47 08 00 00
	00 00		 mov	 DWORD PTR [edi+8], 0
$LN15@operator:

; 1717 :         }
; 1718 : 
; 1719 :         _Buy_raw(_Newcapacity);

  0007e	56		 push	 esi
  0007f	8b cf		 mov	 ecx, edi
  00081	e8 00 00 00 00	 call	 ?_Buy_raw@?$vector@KV?$allocator@K@std@@@std@@AAEXI@Z ; std::vector<unsigned long,std::allocator<unsigned long> >::_Buy_raw

; 1436 :                 _Mylast = _STD _Uninitialized_copy_n(_STD move(_First), _Newsize, _Myfirst, _Al);

  00086	8b 37		 mov	 esi, DWORD PTR [edi]
; File C:\Program Files\Microsoft Visual Studio\2022\Professional\VC\Tools\MSVC\14.44.35207\include\xmemory

; 1930 :             _STD _Copy_memmove_n(_UFirst, _Count, _STD _Unfancy(_Dest));

  00088	8b 45 08	 mov	 eax, DWORD PTR __First$2$[ebp]
  0008b	56		 push	 esi
  0008c	53		 push	 ebx
  0008d	50		 push	 eax
  0008e	e8 00 00 00 00	 call	 ??$_Copy_memmove_n@PAKPAK@std@@YAPAKPAKI0@Z ; std::_Copy_memmove_n<unsigned long *,unsigned long *>

; 1931 :             _Dest += _Count;

  00093	8d 04 9e	 lea	 eax, DWORD PTR [esi+ebx*4]
; File C:\Program Files\Microsoft Visual Studio\2022\Professional\VC\Tools\MSVC\14.44.35207\include\xutility

; 4808 :             return _Copy_memmove_n(_First, static_cast<size_t>(_Count), _Dest);

  00096	83 c4 0c	 add	 esp, 12			; 0000000cH
; File C:\Program Files\Microsoft Visual Studio\2022\Professional\VC\Tools\MSVC\14.44.35207\include\vector

; 1478 :             _Mylast = _Newlast;

  00099	89 47 04	 mov	 DWORD PTR [edi+4], eax

; 1540 : 
; 1541 :         return *this;

  0009c	8b c7		 mov	 eax, edi
  0009e	5e		 pop	 esi

; 1542 :     }

  0009f	5f		 pop	 edi
  000a0	5b		 pop	 ebx
  000a1	8b e5		 mov	 esp, ebp
  000a3	5d		 pop	 ebp
  000a4	c2 04 00	 ret	 4
$LN8@operator:

; 1445 :         const auto _Oldsize = static_cast<size_type>(_Mylast - _Myfirst);

  000a7	8b 77 04	 mov	 esi, DWORD PTR [edi+4]
  000aa	2b f1		 sub	 esi, ecx
  000ac	c1 fe 02	 sar	 esi, 2
  000af	89 75 fc	 mov	 DWORD PTR __Oldsize$1$[ebp], esi

; 1446 :         if (_Newsize > _Oldsize) {

  000b2	51		 push	 ecx
  000b3	3b de		 cmp	 ebx, esi
  000b5	76 2f		 jbe	 SHORT $LN9@operator

; 1447 :             bool _Copied = false;
; 1448 :             if constexpr (_Iter_copy_cat<_Iter, pointer>::_Bitcopy_assignable) {
; 1449 : #if _HAS_CXX20
; 1450 :                 if (!_STD is_constant_evaluated())
; 1451 : #endif // _HAS_CXX20
; 1452 :                 {
; 1453 :                     _Copy_memmove_n(_First, static_cast<size_t>(_Oldsize), _Myfirst);

  000b7	56		 push	 esi
  000b8	50		 push	 eax
  000b9	e8 00 00 00 00	 call	 ??$_Copy_memmove_n@PAKPAK@std@@YAPAKPAKI0@Z ; std::_Copy_memmove_n<unsigned long *,unsigned long *>

; 1454 :                     _First += _Oldsize;

  000be	8b 45 08	 mov	 eax, DWORD PTR __First$2$[ebp]

; 1455 :                     _Copied = true;
; 1456 :                 }
; 1457 :             }
; 1458 : 
; 1459 :             if (!_Copied) {
; 1460 :                 for (auto _Mid = _Myfirst; _Mid != _Mylast; ++_Mid, (void) ++_First) {
; 1461 :                     *_Mid = *_First;
; 1462 :                 }
; 1463 :             }
; 1464 : 
; 1465 :             if constexpr (_Nothrow_construct) {
; 1466 :                 _ASAN_VECTOR_MODIFY(static_cast<difference_type>(_Newsize - _Oldsize));
; 1467 :                 _Mylast = _STD _Uninitialized_copy_n(_STD move(_First), _Newsize - _Oldsize, _Mylast, _Al);

  000c1	2b 5d fc	 sub	 ebx, DWORD PTR __Oldsize$1$[ebp]
  000c4	8d 04 b0	 lea	 eax, DWORD PTR [eax+esi*4]
  000c7	8b 77 04	 mov	 esi, DWORD PTR [edi+4]
; File C:\Program Files\Microsoft Visual Studio\2022\Professional\VC\Tools\MSVC\14.44.35207\include\xmemory

; 1930 :             _STD _Copy_memmove_n(_UFirst, _Count, _STD _Unfancy(_Dest));

  000ca	56		 push	 esi
  000cb	53		 push	 ebx
  000cc	50		 push	 eax
  000cd	e8 00 00 00 00	 call	 ??$_Copy_memmove_n@PAKPAK@std@@YAPAKPAKI0@Z ; std::_Copy_memmove_n<unsigned long *,unsigned long *>
  000d2	83 c4 18	 add	 esp, 24			; 00000018H

; 1931 :             _Dest += _Count;

  000d5	8d 04 9e	 lea	 eax, DWORD PTR [esi+ebx*4]
; File C:\Program Files\Microsoft Visual Studio\2022\Professional\VC\Tools\MSVC\14.44.35207\include\vector

; 1478 :             _Mylast = _Newlast;

  000d8	89 47 04	 mov	 DWORD PTR [edi+4], eax

; 1540 : 
; 1541 :         return *this;

  000db	8b c7		 mov	 eax, edi
  000dd	5e		 pop	 esi

; 1542 :     }

  000de	5f		 pop	 edi
  000df	5b		 pop	 ebx
  000e0	8b e5		 mov	 esp, ebp
  000e2	5d		 pop	 ebp
  000e3	c2 04 00	 ret	 4
$LN9@operator:
; File C:\Program Files\Microsoft Visual Studio\2022\Professional\VC\Tools\MSVC\14.44.35207\include\xutility

; 4808 :             return _Copy_memmove_n(_First, static_cast<size_t>(_Count), _Dest);

  000e6	53		 push	 ebx
  000e7	50		 push	 eax
  000e8	e8 00 00 00 00	 call	 ??$_Copy_memmove_n@PAKPAK@std@@YAPAKPAKI0@Z ; std::_Copy_memmove_n<unsigned long *,unsigned long *>
; File C:\Program Files\Microsoft Visual Studio\2022\Professional\VC\Tools\MSVC\14.44.35207\include\vector

; 1474 :             const pointer _Newlast = _Myfirst + _Newsize;

  000ed	8b 45 f8	 mov	 eax, DWORD PTR tv519[ebp]
; File C:\Program Files\Microsoft Visual Studio\2022\Professional\VC\Tools\MSVC\14.44.35207\include\xutility

; 4808 :             return _Copy_memmove_n(_First, static_cast<size_t>(_Count), _Dest);

  000f0	83 c4 0c	 add	 esp, 12			; 0000000cH
; File C:\Program Files\Microsoft Visual Studio\2022\Professional\VC\Tools\MSVC\14.44.35207\include\vector

; 1474 :             const pointer _Newlast = _Myfirst + _Newsize;

  000f3	8d 04 98	 lea	 eax, DWORD PTR [eax+ebx*4]

; 1478 :             _Mylast = _Newlast;

  000f6	89 47 04	 mov	 DWORD PTR [edi+4], eax
  000f9	5e		 pop	 esi
$LN10@operator:

; 1540 : 
; 1541 :         return *this;

  000fa	8b c7		 mov	 eax, edi

; 1542 :     }

  000fc	5f		 pop	 edi
  000fd	5b		 pop	 ebx
  000fe	8b e5		 mov	 esp, ebp
  00100	5d		 pop	 ebp
  00101	c2 04 00	 ret	 4
$LN69@operator:

; 1704 :             _Xlength();

  00104	e8 00 00 00 00	 call	 ?_Xlength@?$vector@KV?$allocator@K@std@@@std@@CAXXZ ; std::vector<unsigned long,std::allocator<unsigned long> >::_Xlength
$LN65@operator:
  00109	cc		 int	 3
??4?$vector@KV?$allocator@K@std@@@std@@QAEAAV01@ABV01@@Z ENDP ; std::vector<unsigned long,std::allocator<unsigned long> >::operator=
_TEXT	ENDS
; Function compile flags: /Ogtp
; File C:\Program Files\Microsoft Visual Studio\2022\Professional\VC\Tools\MSVC\14.44.35207\include\vector
;	COMDAT ??1?$vector@KV?$allocator@K@std@@@std@@QAE@XZ
_TEXT	SEGMENT
??1?$vector@KV?$allocator@K@std@@@std@@QAE@XZ PROC	; std::vector<unsigned long,std::allocator<unsigned long> >::~vector<unsigned long,std::allocator<unsigned long> >, COMDAT
; _this$ = ecx

; 830  :         _Tidy();

  00000	e9 00 00 00 00	 jmp	 ?_Tidy@?$vector@KV?$allocator@K@std@@@std@@AAEXXZ ; std::vector<unsigned long,std::allocator<unsigned long> >::_Tidy
??1?$vector@KV?$allocator@K@std@@@std@@QAE@XZ ENDP	; std::vector<unsigned long,std::allocator<unsigned long> >::~vector<unsigned long,std::allocator<unsigned long> >
_TEXT	ENDS
; Function compile flags: /Ogtp
; File C:\Program Files\Microsoft Visual Studio\2022\Professional\VC\Tools\MSVC\14.44.35207\include\vector
; File C:\Program Files\Microsoft Visual Studio\2022\Professional\VC\Tools\MSVC\14.44.35207\include\xmemory
; File C:\Program Files\Microsoft Visual Studio\2022\Professional\VC\Tools\MSVC\14.44.35207\include\vector
; File C:\Program Files\Microsoft Visual Studio\2022\Professional\VC\Tools\MSVC\14.44.35207\include\xmemory
; File C:\Program Files\Microsoft Visual Studio\2022\Professional\VC\Tools\MSVC\14.44.35207\include\vector
;	COMDAT ??0?$vector@KV?$allocator@K@std@@@std@@QAE@ABV01@@Z
_TEXT	SEGMENT
_this$1$ = -4						; size = 4
__Right$ = 8						; size = 4
??0?$vector@KV?$allocator@K@std@@@std@@QAE@ABV01@@Z PROC ; std::vector<unsigned long,std::allocator<unsigned long> >::vector<unsigned long,std::allocator<unsigned long> >, COMDAT
; _this$ = ecx

; 746  :         : _Mypair(_One_then_variadic_args_t{}, _Alty_traits::select_on_container_copy_construction(_Right._Getal())) {

  00000	55		 push	 ebp
  00001	8b ec		 mov	 ebp, esp
  00003	51		 push	 ecx
  00004	53		 push	 ebx
  00005	8b d9		 mov	 ebx, ecx
  00007	57		 push	 edi

; 747  :         const auto& _Right_data = _Right._Mypair._Myval2;
; 748  :         const auto _Count       = static_cast<size_type>(_Right_data._Mylast - _Right_data._Myfirst);

  00008	8b 7d 08	 mov	 edi, DWORD PTR __Right$[ebp]
  0000b	89 5d fc	 mov	 DWORD PTR _this$1$[ebp], ebx

; 400  :     _CONSTEXPR20 _Vector_val() noexcept : _Myfirst(), _Mylast(), _Myend() {}

  0000e	c7 03 00 00 00
	00		 mov	 DWORD PTR [ebx], 0
  00014	c7 43 04 00 00
	00 00		 mov	 DWORD PTR [ebx+4], 0
  0001b	c7 43 08 00 00
	00 00		 mov	 DWORD PTR [ebx+8], 0

; 747  :         const auto& _Right_data = _Right._Mypair._Myval2;
; 748  :         const auto _Count       = static_cast<size_type>(_Right_data._Mylast - _Right_data._Myfirst);

  00022	8b 47 04	 mov	 eax, DWORD PTR [edi+4]
  00025	2b 07		 sub	 eax, DWORD PTR [edi]
  00027	c1 f8 02	 sar	 eax, 2

; 2111 :         if (_Count != 0) {

  0002a	85 c0		 test	 eax, eax
  0002c	74 2f		 je	 SHORT $LN29@vector

; 2051 :         if (_Newcapacity > max_size()) {

  0002e	3d ff ff ff 3f	 cmp	 eax, 1073741823		; 3fffffffH
  00033	77 32		 ja	 SHORT $LN37@vector
  00035	56		 push	 esi

; 2053 :         }
; 2054 : 
; 2055 :         _Buy_raw(_Newcapacity);

  00036	50		 push	 eax
  00037	e8 00 00 00 00	 call	 ?_Buy_raw@?$vector@KV?$allocator@K@std@@@std@@AAEXI@Z ; std::vector<unsigned long,std::allocator<unsigned long> >::_Buy_raw

; 2120 :                 _My_data._Mylast = _STD _Uninitialized_copy(_STD forward<_Valty>(_Val)..., _My_data._Myfirst, _Al);

  0003c	8b 1b		 mov	 ebx, DWORD PTR [ebx]
; File C:\Program Files\Microsoft Visual Studio\2022\Professional\VC\Tools\MSVC\14.44.35207\include\xmemory

; 1876 :     auto _UFirst = _STD _Get_unwrapped(_STD move(_First));

  0003e	8b 37		 mov	 esi, DWORD PTR [edi]

; 1877 :     auto _ULast  = _STD _Get_unwrapped(_STD move(_Last));

  00040	8b 7f 04	 mov	 edi, DWORD PTR [edi+4]

; 1878 : #endif // ^^^ !_HAS_CXX20 ^^^
; 1879 : 
; 1880 :     constexpr bool _Can_memmove = _Sent_copy_cat<decltype(_UFirst), decltype(_ULast), _Ptrval>::_Bitcopy_constructible
; 1881 :                                && _Uses_default_construct<_Alloc, _Ptrval, decltype(*_UFirst)>::value;
; 1882 : 
; 1883 :     if constexpr (_Can_memmove) {
; 1884 : #if _HAS_CXX20
; 1885 :         if (!_STD is_constant_evaluated())
; 1886 : #endif // _HAS_CXX20
; 1887 :         {
; 1888 :             if constexpr (is_same_v<decltype(_UFirst), decltype(_ULast)>) {
; 1889 :                 _STD _Copy_memmove(_STD _To_address(_UFirst), _STD _To_address(_ULast), _STD _Unfancy(_Dest));

  00043	53		 push	 ebx
  00044	57		 push	 edi
  00045	56		 push	 esi
  00046	e8 00 00 00 00	 call	 ??$_Copy_memmove@PAKPAK@std@@YAPAKPAK00@Z ; std::_Copy_memmove<unsigned long *,unsigned long *>

; 1890 :                 _Dest += _ULast - _UFirst;

  0004b	2b fe		 sub	 edi, esi
  0004d	83 c4 0c	 add	 esp, 12			; 0000000cH
  00050	c1 ff 02	 sar	 edi, 2
; File C:\Program Files\Microsoft Visual Studio\2022\Professional\VC\Tools\MSVC\14.44.35207\include\vector

; 2120 :                 _My_data._Mylast = _STD _Uninitialized_copy(_STD forward<_Valty>(_Val)..., _My_data._Myfirst, _Al);

  00053	5e		 pop	 esi
; File C:\Program Files\Microsoft Visual Studio\2022\Professional\VC\Tools\MSVC\14.44.35207\include\xmemory

; 1890 :                 _Dest += _ULast - _UFirst;

  00054	8d 04 bb	 lea	 eax, DWORD PTR [ebx+edi*4]
; File C:\Program Files\Microsoft Visual Studio\2022\Professional\VC\Tools\MSVC\14.44.35207\include\vector

; 2120 :                 _My_data._Mylast = _STD _Uninitialized_copy(_STD forward<_Valty>(_Val)..., _My_data._Myfirst, _Al);

  00057	8b 5d fc	 mov	 ebx, DWORD PTR _this$1$[ebp]
  0005a	89 43 04	 mov	 DWORD PTR [ebx+4], eax
$LN29@vector:

; 749  :         _Construct_n(_Count, _Right_data._Myfirst, _Right_data._Mylast);
; 750  :     }

  0005d	5f		 pop	 edi
  0005e	8b c3		 mov	 eax, ebx
  00060	5b		 pop	 ebx
  00061	8b e5		 mov	 esp, ebp
  00063	5d		 pop	 ebp
  00064	c2 04 00	 ret	 4
$LN37@vector:

; 2052 :             _Xlength();

  00067	e8 00 00 00 00	 call	 ?_Xlength@?$vector@KV?$allocator@K@std@@@std@@CAXXZ ; std::vector<unsigned long,std::allocator<unsigned long> >::_Xlength
$LN35@vector:
  0006c	cc		 int	 3
??0?$vector@KV?$allocator@K@std@@@std@@QAE@ABV01@@Z ENDP ; std::vector<unsigned long,std::allocator<unsigned long> >::vector<unsigned long,std::allocator<unsigned long> >
_TEXT	ENDS
; Function compile flags: /Ogtp
; File C:\Program Files\Microsoft Visual Studio\2022\Professional\VC\Tools\MSVC\14.44.35207\include\xmemory
;	COMDAT ?deallocate@?$allocator@K@std@@QAEXQAKI@Z
_TEXT	SEGMENT
__Ptr$ = 8						; size = 4
__Count$ = 12						; size = 4
?deallocate@?$allocator@K@std@@QAEXQAKI@Z PROC		; std::allocator<unsigned long>::deallocate, COMDAT
; _this$ = ecx

; 982  :     _CONSTEXPR20 void deallocate(_Ty* const _Ptr, const size_t _Count) noexcept /* strengthened */ {

  00000	55		 push	 ebp
  00001	8b ec		 mov	 ebp, esp

; 983  :         _STL_ASSERT(_Ptr != nullptr || _Count == 0, "null pointer cannot point to a block of non-zero size");
; 984  :         // no overflow check on the following multiply; we assume _Allocate did that check
; 985  :         _STD _Deallocate<_New_alignof<_Ty>>(_Ptr, sizeof(_Ty) * _Count);

  00003	8b 45 0c	 mov	 eax, DWORD PTR __Count$[ebp]
  00006	8d 0c 85 00 00
	00 00		 lea	 ecx, DWORD PTR [eax*4]
  0000d	8b 45 08	 mov	 eax, DWORD PTR __Ptr$[ebp]

; 284  :         if (_Bytes >= _Big_allocation_threshold) {

  00010	81 f9 00 10 00
	00		 cmp	 ecx, 4096		; 00001000H
  00016	72 12		 jb	 SHORT $LN11@deallocate

; 205  :     const uintptr_t _Ptr_container   = _Ptr_user[-1];

  00018	8b 50 fc	 mov	 edx, DWORD PTR [eax-4]
  0001b	83 c1 23	 add	 ecx, 35			; 00000023H

; 206  : 
; 207  :     // If the following asserts, it likely means that we are performing
; 208  :     // an aligned delete on memory coming from an unaligned allocation.
; 209  :     _STL_ASSERT(_Ptr_user[-2] == _Big_allocation_sentinel, "invalid argument");
; 210  : 
; 211  :     // Extra paranoia on aligned allocation/deallocation; ensure _Ptr_container is
; 212  :     // in range [_Min_back_shift, _Non_user_size]
; 213  : #ifdef _DEBUG
; 214  :     constexpr uintptr_t _Min_back_shift = 2 * sizeof(void*);
; 215  : #else // ^^^ defined(_DEBUG) / !defined(_DEBUG) vvv
; 216  :     constexpr uintptr_t _Min_back_shift = sizeof(void*);
; 217  : #endif // ^^^ !defined(_DEBUG) ^^^
; 218  :     const uintptr_t _Back_shift = reinterpret_cast<uintptr_t>(_Ptr) - _Ptr_container;

  0001e	2b c2		 sub	 eax, edx

; 219  :     _STL_VERIFY(_Back_shift >= _Min_back_shift && _Back_shift <= _Non_user_size, "invalid argument");

  00020	83 c0 fc	 add	 eax, -4			; fffffffcH
  00023	83 f8 1f	 cmp	 eax, 31			; 0000001fH
  00026	77 10		 ja	 SHORT $LN10@deallocate

; 220  :     _Ptr = reinterpret_cast<void*>(_Ptr_container);

  00028	8b c2		 mov	 eax, edx
$LN11@deallocate:

; 289  :         ::operator delete(_Ptr, _Bytes);

  0002a	51		 push	 ecx
  0002b	50		 push	 eax
  0002c	e8 00 00 00 00	 call	 ??3@YAXPAXI@Z		; operator delete
  00031	83 c4 08	 add	 esp, 8

; 986  :     }

  00034	5d		 pop	 ebp
  00035	c2 08 00	 ret	 8
$LN10@deallocate:

; 219  :     _STL_VERIFY(_Back_shift >= _Min_back_shift && _Back_shift <= _Non_user_size, "invalid argument");

  00038	6a 00		 push	 0
  0003a	6a 00		 push	 0
  0003c	6a 00		 push	 0
  0003e	6a 00		 push	 0
  00040	6a 00		 push	 0
  00042	e8 00 00 00 00	 call	 __invoke_watson
$LN14@deallocate:
  00047	cc		 int	 3
?deallocate@?$allocator@K@std@@QAEXQAKI@Z ENDP		; std::allocator<unsigned long>::deallocate
_TEXT	ENDS
; Function compile flags: /Ogtp
; File C:\IAGOS\server\v18\Source\Source\_network\CmnHdr.h
;	COMDAT ??0_LogItemInfo@@QAE@XZ
_TEXT	SEGMENT
??0_LogItemInfo@@QAE@XZ PROC				; _LogItemInfo::_LogItemInfo, COMDAT
; _this$ = ecx

; 636  : 	{
; 637  : 		Action = _T("");

  00000	c7 01 00 00 00
	00		 mov	 DWORD PTR [ecx], OFFSET ??_C@_00CNPNBAHC@@
  00006	0f 57 c0	 xorps	 xmm0, xmm0

; 638  : 		SendName = _T("");

  00009	c7 41 04 00 00
	00 00		 mov	 DWORD PTR [ecx+4], OFFSET ??_C@_00CNPNBAHC@@

; 639  : 		RecvName = _T("");
; 640  : 		WorldId = Gold = Gold2 = 0;
; 641  : 		Negudo = 0;
; 642  : 		MaxNegudo = 0;
; 643  : 		ItemNo = 0;
; 644  : 		//ItemName = _T("");
; 645  : 		::memset( szItemName, 0, sizeof(szItemName) );
; 646  : 		itemNumber = 0;
; 647  : 		nAbilityOption = 0;
; 648  : 		Gold_1 = 0;
; 649  : 		nSlot = 100;
; 650  : 		nSlot1 = 100;
; 651  : 		nItemResist = 0;
; 652  : 		nResistAbilityOption = 0;
; 653  : 		m_bCharged = FALSE;
; 654  : 		m_dwKeepTime = 0;
; 655  : #if __VER >= 11 // __SYS_IDENTIFY
; 656  : 		m_iRandomOptItemId = 0;
; 657  : #else	//__SYS_IDENTIFY
; 658  : 		m_nRandomOptItemId = 0;
; 659  : #endif	// __SYS_IDENTIFY
; 660  : #if __VER >= 12 // __EXT_PIERCING
; 661  : 		nPiercedSize = 0;
; 662  : //		for( int i=0; i<MAX_PIERCING_WEAPON; i++ )
; 663  : //			adwItemId[i] = 0;
; 664  : 		memset( adwItemId, 0, sizeof(adwItemId) );
; 665  : 		nUMPiercedSize = 0;
; 666  : //		for( i=0; i<MAX_PIERCING_ULTIMATE; i++ )
; 667  : //	adwUMItemId[i] = 0;
; 668  : 		memset( adwUMItemId, 0, sizeof(adwUMItemId) );
; 669  : #else // __EXT_PIERCING
; 670  : 		nPiercedSize = 0;
; 671  : 		adwItemId0 = 0;
; 672  : 		adwItemId1 = 0;
; 673  : 		adwItemId2 = 0;
; 674  : 		adwItemId3 = 0;
; 675  : #if __VER >= 9 // __ULTIMATE
; 676  : 		adwItemId4 = 0;
; 677  : #endif // __ULTIMATE
; 678  : #endif // __EXT_PIERCING
; 679  : #if __VER >= 9 // __PET_0410
; 680  : 		nPetKind = 0;
; 681  : 		nPetLevel = 0;
; 682  : 		dwPetExp = 0;
; 683  : 		wPetEnergy = 0;

  00010	33 c0		 xor	 eax, eax
  00012	c7 41 08 00 00
	00 00		 mov	 DWORD PTR [ecx+8], OFFSET ??_C@_00CNPNBAHC@@
  00019	c7 41 14 00 00
	00 00		 mov	 DWORD PTR [ecx+20], 0
  00020	c7 41 10 00 00
	00 00		 mov	 DWORD PTR [ecx+16], 0
  00027	c7 41 0c 00 00
	00 00		 mov	 DWORD PTR [ecx+12], 0
  0002e	c7 41 1c 00 00
	00 00		 mov	 DWORD PTR [ecx+28], 0
  00035	c7 41 20 00 00
	00 00		 mov	 DWORD PTR [ecx+32], 0
  0003c	c7 41 18 00 00
	00 00		 mov	 DWORD PTR [ecx+24], 0
  00043	0f 11 41 24	 movups	 XMMWORD PTR [ecx+36], xmm0
  00047	0f 11 41 34	 movups	 XMMWORD PTR [ecx+52], xmm0
  0004b	c7 41 44 00 00
	00 00		 mov	 DWORD PTR [ecx+68], 0
  00052	c7 41 48 00 00
	00 00		 mov	 DWORD PTR [ecx+72], 0
  00059	c7 41 4c 00 00
	00 00		 mov	 DWORD PTR [ecx+76], 0
  00060	c7 41 50 64 00
	00 00		 mov	 DWORD PTR [ecx+80], 100	; 00000064H
  00067	c7 41 54 64 00
	00 00		 mov	 DWORD PTR [ecx+84], 100	; 00000064H
  0006e	c7 41 58 00 00
	00 00		 mov	 DWORD PTR [ecx+88], 0
  00075	c7 41 5c 00 00
	00 00		 mov	 DWORD PTR [ecx+92], 0
  0007c	c7 41 60 00 00
	00 00		 mov	 DWORD PTR [ecx+96], 0
  00083	c7 41 64 00 00
	00 00		 mov	 DWORD PTR [ecx+100], 0
  0008a	c7 41 68 00 00
	00 00		 mov	 DWORD PTR [ecx+104], 0
  00091	c7 41 6c 00 00
	00 00		 mov	 DWORD PTR [ecx+108], 0
  00098	c7 41 70 00 00
	00 00		 mov	 DWORD PTR [ecx+112], 0
  0009f	0f 11 41 74	 movups	 XMMWORD PTR [ecx+116], xmm0
  000a3	0f 11 81 84 00
	00 00		 movups	 XMMWORD PTR [ecx+132], xmm0
  000aa	66 0f d6 81 94
	00 00 00	 movq	 QWORD PTR [ecx+148], xmm0
  000b2	c7 81 9c 00 00
	00 00 00 00 00	 mov	 DWORD PTR [ecx+156], 0
  000bc	0f 11 81 a0 00
	00 00		 movups	 XMMWORD PTR [ecx+160], xmm0
  000c3	c7 81 b0 00 00
	00 00 00 00 00	 mov	 DWORD PTR [ecx+176], 0
  000cd	89 81 bc 00 00
	00		 mov	 DWORD PTR [ecx+188], eax

; 684  : 		wPetLife = 0;
; 685  : 		nPetAL_D = 0;

  000d3	89 81 c0 00 00
	00		 mov	 DWORD PTR [ecx+192], eax

; 686  : 		nPetAL_C = 0;
; 687  : 		nPetAL_B = 0;
; 688  : 		nPetAL_A = 0;
; 689  : 		nPetAL_S = 0;

  000d9	88 81 c4 00 00
	00		 mov	 BYTE PTR [ecx+196], al

; 690  : #endif // __PET_0410
; 691  : 	}

  000df	8b c1		 mov	 eax, ecx
  000e1	66 c7 81 b4 00
	00 00 00 00	 mov	 WORD PTR [ecx+180], 0
  000ea	c7 81 b8 00 00
	00 00 00 00 00	 mov	 DWORD PTR [ecx+184], 0
  000f4	c3		 ret	 0
??0_LogItemInfo@@QAE@XZ ENDP				; _LogItemInfo::_LogItemInfo
_TEXT	ENDS
; Function compile flags: /Ogtp
; File C:\IAGOS\server\v18\Source\Source\DX_SDK\d3dx9math.h
;	COMDAT ??0D3DXVECTOR3@@QAE@XZ
_TEXT	SEGMENT
??0D3DXVECTOR3@@QAE@XZ PROC				; D3DXVECTOR3::D3DXVECTOR3, COMDAT
; _this$ = ecx

; 165  :     D3DXVECTOR3() {};

  00000	8b c1		 mov	 eax, ecx
  00002	c3		 ret	 0
??0D3DXVECTOR3@@QAE@XZ ENDP				; D3DXVECTOR3::D3DXVECTOR3
_TEXT	ENDS
; Function compile flags: /Ogtp
; File C:\Program Files\Microsoft Visual Studio\2022\Professional\VC\Tools\MSVC\14.44.35207\include\xtree
;	COMDAT ?_Throw_tree_length_error@std@@YAXXZ
_TEXT	SEGMENT
?_Throw_tree_length_error@std@@YAXXZ PROC		; std::_Throw_tree_length_error, COMDAT

; 417  :     _Xlength_error("map/set too long");

  00000	68 00 00 00 00	 push	 OFFSET ??_C@_0BB@GCADKGJO@map?1set?5too?5long@
  00005	e8 00 00 00 00	 call	 ?_Xlength_error@std@@YAXPBD@Z ; std::_Xlength_error
$LN3@Throw_tree:
  0000a	cc		 int	 3
?_Throw_tree_length_error@std@@YAXXZ ENDP		; std::_Throw_tree_length_error
_TEXT	ENDS
; Function compile flags: /Ogtp
; File C:\Program Files\Microsoft Visual Studio\2022\Professional\VC\Tools\MSVC\14.44.35207\include\xmemory
;	COMDAT ?_Throw_bad_array_new_length@std@@YAXXZ
_TEXT	SEGMENT
$T1 = -12						; size = 12
?_Throw_bad_array_new_length@std@@YAXXZ PROC		; std::_Throw_bad_array_new_length, COMDAT

; 107  : [[noreturn]] inline void _Throw_bad_array_new_length() {

  00000	55		 push	 ebp
  00001	8b ec		 mov	 ebp, esp
  00003	83 ec 0c	 sub	 esp, 12			; 0000000cH

; 108  :     _THROW(bad_array_new_length{});

  00006	8d 4d f4	 lea	 ecx, DWORD PTR $T1[ebp]
  00009	e8 00 00 00 00	 call	 ??0bad_array_new_length@std@@QAE@XZ ; std::bad_array_new_length::bad_array_new_length
  0000e	68 00 00 00 00	 push	 OFFSET __TI3?AVbad_array_new_length@std@@
  00013	8d 45 f4	 lea	 eax, DWORD PTR $T1[ebp]
  00016	50		 push	 eax
  00017	e8 00 00 00 00	 call	 __CxxThrowException@8
$LN3@Throw_bad_:
  0001c	cc		 int	 3
?_Throw_bad_array_new_length@std@@YAXXZ ENDP		; std::_Throw_bad_array_new_length
_TEXT	ENDS
; Function compile flags: /Ogtp
; File C:\Program Files\Microsoft Visual Studio\2022\Professional\VC\Tools\MSVC\14.44.35207\include\vcruntime_exception.h
;	COMDAT ??_Gbad_array_new_length@std@@UAEPAXI@Z
_TEXT	SEGMENT
___flags$ = 8						; size = 4
??_Gbad_array_new_length@std@@UAEPAXI@Z PROC		; std::bad_array_new_length::`scalar deleting destructor', COMDAT
; _this$ = ecx
  00000	55		 push	 ebp
  00001	8b ec		 mov	 ebp, esp

; 90   :     {

  00003	56		 push	 esi
  00004	8b f1		 mov	 esi, ecx

; 91   :         __std_exception_destroy(&_Data);

  00006	8d 46 04	 lea	 eax, DWORD PTR [esi+4]
  00009	c7 06 00 00 00
	00		 mov	 DWORD PTR [esi], OFFSET ??_7exception@std@@6B@
  0000f	50		 push	 eax
  00010	e8 00 00 00 00	 call	 ___std_exception_destroy
  00015	83 c4 04	 add	 esp, 4
  00018	f6 45 08 01	 test	 BYTE PTR ___flags$[ebp], 1
  0001c	74 0b		 je	 SHORT $LN18@scalar
  0001e	6a 0c		 push	 12			; 0000000cH
  00020	56		 push	 esi
  00021	e8 00 00 00 00	 call	 ??3@YAXPAXI@Z		; operator delete
  00026	83 c4 08	 add	 esp, 8
$LN18@scalar:
  00029	8b c6		 mov	 eax, esi
  0002b	5e		 pop	 esi
  0002c	5d		 pop	 ebp
  0002d	c2 04 00	 ret	 4
??_Gbad_array_new_length@std@@UAEPAXI@Z ENDP		; std::bad_array_new_length::`scalar deleting destructor'
_TEXT	ENDS
; Function compile flags: /Ogtp
; File C:\Program Files\Microsoft Visual Studio\2022\Professional\VC\Tools\MSVC\14.44.35207\include\vcruntime_exception.h
;	COMDAT ??0bad_array_new_length@std@@QAE@ABV01@@Z
_TEXT	SEGMENT
___that$ = 8						; size = 4
??0bad_array_new_length@std@@QAE@ABV01@@Z PROC		; std::bad_array_new_length::bad_array_new_length, COMDAT
; _this$ = ecx
  00000	55		 push	 ebp
  00001	8b ec		 mov	 ebp, esp

; 73   :     {

  00003	56		 push	 esi
  00004	8b f1		 mov	 esi, ecx
  00006	0f 57 c0	 xorps	 xmm0, xmm0

; 72   :         : _Data()

  00009	8d 46 04	 lea	 eax, DWORD PTR [esi+4]

; 74   :         __std_exception_copy(&_Other._Data, &_Data);

  0000c	50		 push	 eax
  0000d	c7 06 00 00 00
	00		 mov	 DWORD PTR [esi], OFFSET ??_7exception@std@@6B@
  00013	66 0f d6 00	 movq	 QWORD PTR [eax], xmm0
  00017	8b 45 08	 mov	 eax, DWORD PTR ___that$[ebp]
  0001a	83 c0 04	 add	 eax, 4
  0001d	50		 push	 eax
  0001e	e8 00 00 00 00	 call	 ___std_exception_copy
  00023	83 c4 08	 add	 esp, 8
  00026	c7 06 00 00 00
	00		 mov	 DWORD PTR [esi], OFFSET ??_7bad_array_new_length@std@@6B@
  0002c	8b c6		 mov	 eax, esi
  0002e	5e		 pop	 esi
  0002f	5d		 pop	 ebp
  00030	c2 04 00	 ret	 4
??0bad_array_new_length@std@@QAE@ABV01@@Z ENDP		; std::bad_array_new_length::bad_array_new_length
_TEXT	ENDS
; Function compile flags: /Ogtp
; File C:\Program Files\Microsoft Visual Studio\2022\Professional\VC\Tools\MSVC\14.44.35207\include\vcruntime_exception.h
;	COMDAT ??1bad_array_new_length@std@@UAE@XZ
_TEXT	SEGMENT
??1bad_array_new_length@std@@UAE@XZ PROC		; std::bad_array_new_length::~bad_array_new_length, COMDAT
; _this$ = ecx

; 91   :         __std_exception_destroy(&_Data);

  00000	8d 41 04	 lea	 eax, DWORD PTR [ecx+4]
  00003	c7 01 00 00 00
	00		 mov	 DWORD PTR [ecx], OFFSET ??_7exception@std@@6B@
  00009	50		 push	 eax
  0000a	e8 00 00 00 00	 call	 ___std_exception_destroy
  0000f	59		 pop	 ecx
  00010	c3		 ret	 0
??1bad_array_new_length@std@@UAE@XZ ENDP		; std::bad_array_new_length::~bad_array_new_length
_TEXT	ENDS
; Function compile flags: /Ogtp
; File C:\Program Files\Microsoft Visual Studio\2022\Professional\VC\Tools\MSVC\14.44.35207\include\vcruntime_exception.h
;	COMDAT ??0bad_array_new_length@std@@QAE@XZ
_TEXT	SEGMENT
??0bad_array_new_length@std@@QAE@XZ PROC		; std::bad_array_new_length::bad_array_new_length, COMDAT
; _this$ = ecx

; 144  :     {

  00000	0f 57 c0	 xorps	 xmm0, xmm0

; 145  :     }

  00003	8b c1		 mov	 eax, ecx

; 66   :         : _Data()

  00005	66 0f d6 41 04	 movq	 QWORD PTR [ecx+4], xmm0

; 67   :     {
; 68   :         _Data._What = _Message;

  0000a	c7 41 04 00 00
	00 00		 mov	 DWORD PTR [ecx+4], OFFSET ??_C@_0BF@KINCDENJ@bad?5array?5new?5length@

; 144  :     {

  00011	c7 01 00 00 00
	00		 mov	 DWORD PTR [ecx], OFFSET ??_7bad_array_new_length@std@@6B@

; 145  :     }

  00017	c3		 ret	 0
??0bad_array_new_length@std@@QAE@XZ ENDP		; std::bad_array_new_length::bad_array_new_length
_TEXT	ENDS
; Function compile flags: /Ogtp
; File C:\Program Files\Microsoft Visual Studio\2022\Professional\VC\Tools\MSVC\14.44.35207\include\vcruntime_exception.h
;	COMDAT ??_Gbad_alloc@std@@UAEPAXI@Z
_TEXT	SEGMENT
___flags$ = 8						; size = 4
??_Gbad_alloc@std@@UAEPAXI@Z PROC			; std::bad_alloc::`scalar deleting destructor', COMDAT
; _this$ = ecx
  00000	55		 push	 ebp
  00001	8b ec		 mov	 ebp, esp

; 90   :     {

  00003	56		 push	 esi
  00004	8b f1		 mov	 esi, ecx

; 91   :         __std_exception_destroy(&_Data);

  00006	8d 46 04	 lea	 eax, DWORD PTR [esi+4]
  00009	c7 06 00 00 00
	00		 mov	 DWORD PTR [esi], OFFSET ??_7exception@std@@6B@
  0000f	50		 push	 eax
  00010	e8 00 00 00 00	 call	 ___std_exception_destroy
  00015	83 c4 04	 add	 esp, 4
  00018	f6 45 08 01	 test	 BYTE PTR ___flags$[ebp], 1
  0001c	74 0b		 je	 SHORT $LN13@scalar
  0001e	6a 0c		 push	 12			; 0000000cH
  00020	56		 push	 esi
  00021	e8 00 00 00 00	 call	 ??3@YAXPAXI@Z		; operator delete
  00026	83 c4 08	 add	 esp, 8
$LN13@scalar:
  00029	8b c6		 mov	 eax, esi
  0002b	5e		 pop	 esi
  0002c	5d		 pop	 ebp
  0002d	c2 04 00	 ret	 4
??_Gbad_alloc@std@@UAEPAXI@Z ENDP			; std::bad_alloc::`scalar deleting destructor'
_TEXT	ENDS
; Function compile flags: /Ogtp
; File C:\Program Files\Microsoft Visual Studio\2022\Professional\VC\Tools\MSVC\14.44.35207\include\vcruntime_exception.h
;	COMDAT ??0bad_alloc@std@@QAE@ABV01@@Z
_TEXT	SEGMENT
___that$ = 8						; size = 4
??0bad_alloc@std@@QAE@ABV01@@Z PROC			; std::bad_alloc::bad_alloc, COMDAT
; _this$ = ecx
  00000	55		 push	 ebp
  00001	8b ec		 mov	 ebp, esp

; 73   :     {

  00003	56		 push	 esi
  00004	8b f1		 mov	 esi, ecx
  00006	0f 57 c0	 xorps	 xmm0, xmm0

; 72   :         : _Data()

  00009	8d 46 04	 lea	 eax, DWORD PTR [esi+4]

; 74   :         __std_exception_copy(&_Other._Data, &_Data);

  0000c	50		 push	 eax
  0000d	c7 06 00 00 00
	00		 mov	 DWORD PTR [esi], OFFSET ??_7exception@std@@6B@
  00013	66 0f d6 00	 movq	 QWORD PTR [eax], xmm0
  00017	8b 45 08	 mov	 eax, DWORD PTR ___that$[ebp]
  0001a	83 c0 04	 add	 eax, 4
  0001d	50		 push	 eax
  0001e	e8 00 00 00 00	 call	 ___std_exception_copy
  00023	83 c4 08	 add	 esp, 8
  00026	c7 06 00 00 00
	00		 mov	 DWORD PTR [esi], OFFSET ??_7bad_alloc@std@@6B@
  0002c	8b c6		 mov	 eax, esi
  0002e	5e		 pop	 esi
  0002f	5d		 pop	 ebp
  00030	c2 04 00	 ret	 4
??0bad_alloc@std@@QAE@ABV01@@Z ENDP			; std::bad_alloc::bad_alloc
_TEXT	ENDS
; Function compile flags: /Ogtp
; File C:\Program Files\Microsoft Visual Studio\2022\Professional\VC\Tools\MSVC\14.44.35207\include\vcruntime_exception.h
;	COMDAT ??_Gexception@std@@UAEPAXI@Z
_TEXT	SEGMENT
___flags$ = 8						; size = 4
??_Gexception@std@@UAEPAXI@Z PROC			; std::exception::`scalar deleting destructor', COMDAT
; _this$ = ecx
  00000	55		 push	 ebp
  00001	8b ec		 mov	 ebp, esp

; 90   :     {

  00003	56		 push	 esi
  00004	8b f1		 mov	 esi, ecx

; 91   :         __std_exception_destroy(&_Data);

  00006	8d 46 04	 lea	 eax, DWORD PTR [esi+4]
  00009	c7 06 00 00 00
	00		 mov	 DWORD PTR [esi], OFFSET ??_7exception@std@@6B@
  0000f	50		 push	 eax
  00010	e8 00 00 00 00	 call	 ___std_exception_destroy
  00015	83 c4 04	 add	 esp, 4
  00018	f6 45 08 01	 test	 BYTE PTR ___flags$[ebp], 1
  0001c	74 0b		 je	 SHORT $LN8@scalar
  0001e	6a 0c		 push	 12			; 0000000cH
  00020	56		 push	 esi
  00021	e8 00 00 00 00	 call	 ??3@YAXPAXI@Z		; operator delete
  00026	83 c4 08	 add	 esp, 8
$LN8@scalar:
  00029	8b c6		 mov	 eax, esi
  0002b	5e		 pop	 esi
  0002c	5d		 pop	 ebp
  0002d	c2 04 00	 ret	 4
??_Gexception@std@@UAEPAXI@Z ENDP			; std::exception::`scalar deleting destructor'
_TEXT	ENDS
; Function compile flags: /Ogtp
; File C:\Program Files\Microsoft Visual Studio\2022\Professional\VC\Tools\MSVC\14.44.35207\include\vcruntime_exception.h
;	COMDAT ?what@exception@std@@UBEPBDXZ
_TEXT	SEGMENT
?what@exception@std@@UBEPBDXZ PROC			; std::exception::what, COMDAT
; _this$ = ecx

; 96   :         return _Data._What ? _Data._What : "Unknown exception";

  00000	8b 49 04	 mov	 ecx, DWORD PTR [ecx+4]
  00003	b8 00 00 00 00	 mov	 eax, OFFSET ??_C@_0BC@EOODALEL@Unknown?5exception@
  00008	85 c9		 test	 ecx, ecx
  0000a	0f 45 c1	 cmovne	 eax, ecx

; 97   :     }

  0000d	c3		 ret	 0
?what@exception@std@@UBEPBDXZ ENDP			; std::exception::what
_TEXT	ENDS
; Function compile flags: /Ogtp
; File C:\Program Files\Microsoft Visual Studio\2022\Professional\VC\Tools\MSVC\14.44.35207\include\vcruntime_exception.h
;	COMDAT ??1exception@std@@UAE@XZ
_TEXT	SEGMENT
??1exception@std@@UAE@XZ PROC				; std::exception::~exception, COMDAT
; _this$ = ecx

; 91   :         __std_exception_destroy(&_Data);

  00000	8d 41 04	 lea	 eax, DWORD PTR [ecx+4]
  00003	c7 01 00 00 00
	00		 mov	 DWORD PTR [ecx], OFFSET ??_7exception@std@@6B@
  00009	50		 push	 eax
  0000a	e8 00 00 00 00	 call	 ___std_exception_destroy
  0000f	59		 pop	 ecx

; 92   :     }

  00010	c3		 ret	 0
??1exception@std@@UAE@XZ ENDP				; std::exception::~exception
_TEXT	ENDS
; Function compile flags: /Ogtp
; File C:\Program Files\Microsoft Visual Studio\2022\Professional\VC\Tools\MSVC\14.44.35207\include\vcruntime_exception.h
;	COMDAT ??0exception@std@@QAE@ABV01@@Z
_TEXT	SEGMENT
__Other$ = 8						; size = 4
??0exception@std@@QAE@ABV01@@Z PROC			; std::exception::exception, COMDAT
; _this$ = ecx

; 73   :     {

  00000	55		 push	 ebp
  00001	8b ec		 mov	 ebp, esp
  00003	56		 push	 esi
  00004	8b f1		 mov	 esi, ecx
  00006	0f 57 c0	 xorps	 xmm0, xmm0
  00009	8d 46 04	 lea	 eax, DWORD PTR [esi+4]

; 74   :         __std_exception_copy(&_Other._Data, &_Data);

  0000c	50		 push	 eax
  0000d	c7 06 00 00 00
	00		 mov	 DWORD PTR [esi], OFFSET ??_7exception@std@@6B@
  00013	66 0f d6 00	 movq	 QWORD PTR [eax], xmm0
  00017	8b 45 08	 mov	 eax, DWORD PTR __Other$[ebp]
  0001a	83 c0 04	 add	 eax, 4
  0001d	50		 push	 eax
  0001e	e8 00 00 00 00	 call	 ___std_exception_copy
  00023	83 c4 08	 add	 esp, 8

; 75   :     }

  00026	8b c6		 mov	 eax, esi
  00028	5e		 pop	 esi
  00029	5d		 pop	 ebp
  0002a	c2 04 00	 ret	 4
??0exception@std@@QAE@ABV01@@Z ENDP			; std::exception::exception
_TEXT	ENDS
; Function compile flags: /Ogtp
; File C:\Program Files\Microsoft Visual Studio\2022\Professional\VC\Tools\MSVC\14.44.35207\atlmfc\include\cstringt.h
; File C:\Program Files\Microsoft Visual Studio\2022\Professional\VC\Tools\MSVC\14.44.35207\atlmfc\include\afxstr.h
; File C:\Program Files\Microsoft Visual Studio\2022\Professional\VC\Tools\MSVC\14.44.35207\atlmfc\include\cstringt.h
; File C:\Program Files\Microsoft Visual Studio\2022\Professional\VC\Tools\MSVC\14.44.35207\atlmfc\include\afxstr.h
; File C:\Program Files\Microsoft Visual Studio\2022\Professional\VC\Tools\MSVC\14.44.35207\atlmfc\include\cstringt.h
; File C:\Program Files\Microsoft Visual Studio\2022\Professional\VC\Tools\MSVC\14.44.35207\atlmfc\include\atlcore.h
; File C:\Program Files\Microsoft Visual Studio\2022\Professional\VC\Tools\MSVC\14.44.35207\atlmfc\include\cstringt.h
; File C:\Program Files\Microsoft Visual Studio\2022\Professional\VC\Tools\MSVC\14.44.35207\atlmfc\include\atlsimpstr.h
; File C:\Program Files\Microsoft Visual Studio\2022\Professional\VC\Tools\MSVC\14.44.35207\atlmfc\include\cstringt.h
; File C:\Program Files\Microsoft Visual Studio\2022\Professional\VC\Tools\MSVC\14.44.35207\atlmfc\include\atlsimpstr.h
; File C:\Program Files\Microsoft Visual Studio\2022\Professional\VC\Tools\MSVC\14.44.35207\atlmfc\include\cstringt.h
; File C:\Program Files\Microsoft Visual Studio\2022\Professional\VC\Tools\MSVC\14.44.35207\atlmfc\include\atlsimpstr.h
; File C:\Program Files\Microsoft Visual Studio\2022\Professional\VC\Tools\MSVC\14.44.35207\atlmfc\include\cstringt.h
; File C:\Program Files\Microsoft Visual Studio\2022\Professional\VC\Tools\MSVC\14.44.35207\atlmfc\include\atlsimpstr.h
; File C:\Program Files\Microsoft Visual Studio\2022\Professional\VC\Tools\MSVC\14.44.35207\atlmfc\include\cstringt.h
;	COMDAT ?LoadStringA@?$CStringT@DV?$StrTraitMFC@DV?$ChTraitsCRT@D@ATL@@@@@ATL@@QAEHI@Z
_TEXT	SEGMENT
_this$1$ = -4						; size = 4
_nID$ = 8						; size = 4
_hResource$1$ = 8					; size = 4
?LoadStringA@?$CStringT@DV?$StrTraitMFC@DV?$ChTraitsCRT@D@ATL@@@@@ATL@@QAEHI@Z PROC ; ATL::CStringT<char,StrTraitMFC<char,ATL::ChTraitsCRT<char> > >::LoadStringA, COMDAT
; _this$ = ecx

; 2340 : 	{

  00000	55		 push	 ebp
  00001	8b ec		 mov	 ebp, esp
  00003	51		 push	 ecx
  00004	53		 push	 ebx
  00005	57		 push	 edi
; File C:\Program Files\Microsoft Visual Studio\2022\Professional\VC\Tools\MSVC\14.44.35207\atlmfc\include\afxstr.h

; 51   : 		return( AfxFindStringResourceHandle( nID ) );

  00006	8b 7d 08	 mov	 edi, DWORD PTR _nID$[ebp]
  00009	57		 push	 edi
; File C:\Program Files\Microsoft Visual Studio\2022\Professional\VC\Tools\MSVC\14.44.35207\atlmfc\include\cstringt.h

; 2340 : 	{

  0000a	89 4d fc	 mov	 DWORD PTR _this$1$[ebp], ecx
; File C:\Program Files\Microsoft Visual Studio\2022\Professional\VC\Tools\MSVC\14.44.35207\atlmfc\include\afxstr.h

; 51   : 		return( AfxFindStringResourceHandle( nID ) );

  0000d	e8 00 00 00 00	 call	 ?AfxFindStringResourceHandle@@YGPAUHINSTANCE__@@I@Z ; AfxFindStringResourceHandle
; File C:\Program Files\Microsoft Visual Studio\2022\Professional\VC\Tools\MSVC\14.44.35207\atlmfc\include\cstringt.h

; 2341 : 		HINSTANCE hInstance = StringTraits::FindStringResourceInstance( nID );

  00012	8b d8		 mov	 ebx, eax

; 2342 : 		if( hInstance == NULL )

  00014	85 db		 test	 ebx, ebx
  00016	75 08		 jne	 SHORT $LN2@LoadString

; 2348 : 	}

  00018	5f		 pop	 edi
  00019	5b		 pop	 ebx
  0001a	8b e5		 mov	 esp, ebp
  0001c	5d		 pop	 ebp
  0001d	c2 04 00	 ret	 4
$LN2@LoadString:
; File C:\Program Files\Microsoft Visual Studio\2022\Professional\VC\Tools\MSVC\14.44.35207\atlmfc\include\atlcore.h

; 380  : 	hResource = ::FindResourceW(hInstance, MAKEINTRESOURCEW( (((id>>4)+1) & static_cast<WORD>(~0)) ), (LPWSTR) RT_STRING);

  00020	8b c7		 mov	 eax, edi
  00022	c1 e8 04	 shr	 eax, 4
  00025	56		 push	 esi
  00026	40		 inc	 eax
  00027	6a 06		 push	 6
  00029	0f b7 c0	 movzx	 eax, ax
  0002c	50		 push	 eax
  0002d	53		 push	 ebx
  0002e	ff 15 00 00 00
	00		 call	 DWORD PTR __imp__FindResourceW@12
  00034	89 45 08	 mov	 DWORD PTR _hResource$1$[ebp], eax

; 381  : 	if( hResource == NULL )

  00037	85 c0		 test	 eax, eax
  00039	0f 84 cc 00 00
	00		 je	 $LN51@LoadString

; 338  : 	hGlobal = ::LoadResource( hInstance, hResource );

  0003f	50		 push	 eax
  00040	53		 push	 ebx
  00041	ff 15 00 00 00
	00		 call	 DWORD PTR __imp__LoadResource@8

; 339  : 	if( hGlobal == NULL )

  00047	85 c0		 test	 eax, eax
  00049	75 04		 jne	 SHORT $LN15@LoadString

; 340  : 	{
; 341  : 		return( NULL );

  0004b	33 f6		 xor	 esi, esi
  0004d	eb 43		 jmp	 SHORT $LN18@LoadString
$LN15@LoadString:

; 342  : 	}
; 343  : 
; 344  : 	pImage = (const ATLSTRINGRESOURCEIMAGE*)::LockResource( hGlobal );

  0004f	50		 push	 eax
  00050	ff 15 00 00 00
	00		 call	 DWORD PTR __imp__LockResource@4
  00056	8b f0		 mov	 esi, eax

; 345  : 	if( pImage == NULL )

  00058	85 f6		 test	 esi, esi
  0005a	74 36		 je	 SHORT $LN18@LoadString
$LN16@LoadString:

; 346  : 	{
; 347  : 		return( NULL );
; 348  : 	}
; 349  : 
; 350  : 	nResourceSize = ::SizeofResource( hInstance, hResource );

  0005c	ff 75 08	 push	 DWORD PTR _hResource$1$[ebp]
  0005f	53		 push	 ebx
  00060	ff 15 00 00 00
	00		 call	 DWORD PTR __imp__SizeofResource@8

; 351  : 	pImageEnd = (const ATLSTRINGRESOURCEIMAGE*)(LPBYTE( pImage )+nResourceSize);

  00066	8d 0c 06	 lea	 ecx, DWORD PTR [esi+eax]

; 352  : 	iIndex = id&0x000f;

  00069	83 e7 0f	 and	 edi, 15			; 0000000fH

; 353  : 
; 354  : 	while( (iIndex > 0) && (pImage < pImageEnd) )

  0006c	76 14		 jbe	 SHORT $LN14@LoadString
  0006e	66 90		 npad	 2
$LL13@LoadString:
  00070	3b f1		 cmp	 esi, ecx
  00072	73 12		 jae	 SHORT $LN50@LoadString

; 355  : 	{
; 356  : 		pImage = (const ATLSTRINGRESOURCEIMAGE*)(LPBYTE( pImage )+(sizeof( ATLSTRINGRESOURCEIMAGE )+(pImage->nLength*sizeof( WCHAR ))));

  00074	0f b7 06	 movzx	 eax, WORD PTR [esi]
  00077	8d 34 46	 lea	 esi, DWORD PTR [esi+eax*2]
  0007a	83 c6 02	 add	 esi, 2

; 357  : 		iIndex--;

  0007d	83 ef 01	 sub	 edi, 1
  00080	75 ee		 jne	 SHORT $LL13@LoadString
$LN14@LoadString:

; 358  : 	}
; 359  : 	if( pImage >= pImageEnd )

  00082	3b f1		 cmp	 esi, ecx
  00084	72 04		 jb	 SHORT $LN17@LoadString
$LN50@LoadString:

; 360  : 	{
; 361  : 		return( NULL );

  00086	33 f6		 xor	 esi, esi
  00088	eb 08		 jmp	 SHORT $LN18@LoadString
$LN17@LoadString:

; 362  : 	}
; 363  : 	if( pImage->nLength == 0 )

  0008a	33 c0		 xor	 eax, eax
  0008c	66 39 06	 cmp	 WORD PTR [esi], ax
  0008f	0f 44 f0	 cmove	 esi, eax
$LN18@LoadString:
; File C:\Program Files\Microsoft Visual Studio\2022\Professional\VC\Tools\MSVC\14.44.35207\atlmfc\include\cstringt.h

; 2356 : 		if( pImage == NULL )

  00092	85 f6		 test	 esi, esi
  00094	74 75		 je	 SHORT $LN51@LoadString

; 2359 : 		}
; 2360 : 
; 2361 : 		int nLength = StringTraits::GetBaseTypeLength( pImage->achString, pImage->nLength );

  00096	0f b7 06	 movzx	 eax, WORD PTR [esi]
  00099	8d 4e 02	 lea	 ecx, DWORD PTR [esi+2]

; 350  : 		return ::WideCharToMultiByte( _AtlGetConversionACP(), 0, pszSource, nLength, NULL, 0, NULL, NULL );

  0009c	6a 00		 push	 0
  0009e	6a 00		 push	 0
  000a0	6a 00		 push	 0
  000a2	6a 00		 push	 0
  000a4	50		 push	 eax
  000a5	51		 push	 ecx
  000a6	6a 00		 push	 0
  000a8	6a 03		 push	 3
  000aa	ff 15 00 00 00
	00		 call	 DWORD PTR __imp__WideCharToMultiByte@32

; 2361 : 		int nLength = StringTraits::GetBaseTypeLength( pImage->achString, pImage->nLength );

  000b0	8b f8		 mov	 edi, eax
; File C:\Program Files\Microsoft Visual Studio\2022\Professional\VC\Tools\MSVC\14.44.35207\atlmfc\include\atlsimpstr.h

; 808  : 		if (nLength < 0)

  000b2	85 ff		 test	 edi, edi
  000b4	78 60		 js	 SHORT $LN38@LoadString

; 804  : 		return( reinterpret_cast< CStringData* >( m_pszData )-1 );

  000b6	8b 5d fc	 mov	 ebx, DWORD PTR _this$1$[ebp]

; 812  : 		int nShared = 1-pOldData->nRefs;  // nShared < 0 means true, >= 0 means false

  000b9	ba 01 00 00 00	 mov	 edx, 1

; 804  : 		return( reinterpret_cast< CStringData* >( m_pszData )-1 );

  000be	8b 0b		 mov	 ecx, DWORD PTR [ebx]

; 812  : 		int nShared = 1-pOldData->nRefs;  // nShared < 0 means true, >= 0 means false

  000c0	2b 51 fc	 sub	 edx, DWORD PTR [ecx-4]

; 813  : 		int nTooShort = pOldData->nAllocLength-nLength;  // nTooShort < 0 means true, >= 0 means false

  000c3	8b 49 f8	 mov	 ecx, DWORD PTR [ecx-8]
  000c6	2b cf		 sub	 ecx, edi

; 814  : 		if( (nShared|nTooShort) < 0 )  // If either sign bit is set (i.e. either is less than zero), we need to copy data

  000c8	0b d1		 or	 edx, ecx
  000ca	7d 08		 jge	 SHORT $LN26@LoadString

; 815  : 		{
; 816  : 			PrepareWrite2( nLength );

  000cc	57		 push	 edi
  000cd	8b cb		 mov	 ecx, ebx
  000cf	e8 00 00 00 00	 call	 ?PrepareWrite2@?$CSimpleStringT@D$0A@@ATL@@AAEXH@Z ; ATL::CSimpleStringT<char,0>::PrepareWrite2
$LN26@LoadString:
; File C:\Program Files\Microsoft Visual Studio\2022\Professional\VC\Tools\MSVC\14.44.35207\atlmfc\include\cstringt.h

; 2363 : 		StringTraits::ConvertToBaseType( pszBuffer, nLength, pImage->achString, pImage->nLength );

  000d4	0f b7 06	 movzx	 eax, WORD PTR [esi]

; 372  : 		::WideCharToMultiByte( _AtlGetConversionACP(), 0, pszSrc, nSrcLength, pszDest, nDestLength, NULL, NULL );

  000d7	6a 00		 push	 0
  000d9	6a 00		 push	 0
  000db	57		 push	 edi
  000dc	ff 33		 push	 DWORD PTR [ebx]
  000de	50		 push	 eax
  000df	8d 46 02	 lea	 eax, DWORD PTR [esi+2]
  000e2	50		 push	 eax
  000e3	6a 00		 push	 0
  000e5	6a 03		 push	 3
  000e7	ff 15 00 00 00
	00		 call	 DWORD PTR __imp__WideCharToMultiByte@32
; File C:\Program Files\Microsoft Visual Studio\2022\Professional\VC\Tools\MSVC\14.44.35207\atlmfc\include\atlsimpstr.h

; 875  : 		if( nLength < 0 || nLength > GetData()->nAllocLength)

  000ed	8b 03		 mov	 eax, DWORD PTR [ebx]
  000ef	3b 78 f8	 cmp	 edi, DWORD PTR [eax-8]
  000f2	7f 22		 jg	 SHORT $LN38@LoadString

; 877  : 
; 878  : 		GetData()->nDataLength = nLength;

  000f4	89 78 f4	 mov	 DWORD PTR [eax-12], edi

; 879  : 		m_pszData[nLength] = 0;

  000f7	8b 03		 mov	 eax, DWORD PTR [ebx]
; File C:\Program Files\Microsoft Visual Studio\2022\Professional\VC\Tools\MSVC\14.44.35207\atlmfc\include\cstringt.h

; 2347 : 		return( LoadString( hInstance, nID ) );

  000f9	5e		 pop	 esi
; File C:\Program Files\Microsoft Visual Studio\2022\Professional\VC\Tools\MSVC\14.44.35207\atlmfc\include\atlsimpstr.h

; 879  : 		m_pszData[nLength] = 0;

  000fa	c6 04 07 00	 mov	 BYTE PTR [edi+eax], 0
; File C:\Program Files\Microsoft Visual Studio\2022\Professional\VC\Tools\MSVC\14.44.35207\atlmfc\include\cstringt.h

; 2366 : 		return( TRUE );

  000fe	b8 01 00 00 00	 mov	 eax, 1
  00103	5f		 pop	 edi

; 2348 : 	}

  00104	5b		 pop	 ebx
  00105	8b e5		 mov	 esp, ebp
  00107	5d		 pop	 ebp
  00108	c2 04 00	 ret	 4
$LN51@LoadString:

; 2347 : 		return( LoadString( hInstance, nID ) );

  0010b	5e		 pop	 esi
  0010c	5f		 pop	 edi

; 2358 : 			return( FALSE );

  0010d	33 c0		 xor	 eax, eax

; 2348 : 	}

  0010f	5b		 pop	 ebx
  00110	8b e5		 mov	 esp, ebp
  00112	5d		 pop	 ebp
  00113	c2 04 00	 ret	 4
$LN38@LoadString:
; File C:\Program Files\Microsoft Visual Studio\2022\Professional\VC\Tools\MSVC\14.44.35207\atlmfc\include\atlsimpstr.h

; 876  : 			AtlThrow(E_INVALIDARG);

  00116	68 57 00 07 80	 push	 -2147024809		; 80070057H
  0011b	e8 00 00 00 00	 call	 ?AtlThrowImpl@ATL@@YGXJ@Z ; ATL::AtlThrowImpl
$LN63@LoadString:
  00120	cc		 int	 3
?LoadStringA@?$CStringT@DV?$StrTraitMFC@DV?$ChTraitsCRT@D@ATL@@@@@ATL@@QAEHI@Z ENDP ; ATL::CStringT<char,StrTraitMFC<char,ATL::ChTraitsCRT<char> > >::LoadStringA
_TEXT	ENDS
; Function compile flags: /Ogtp
; File C:\Program Files\Microsoft Visual Studio\2022\Professional\VC\Tools\MSVC\14.44.35207\atlmfc\include\cstringt.h
; File C:\Program Files (x86)\Windows Kits\10\Include\10.0.26100.0\ucrt\stdio.h
; File C:\Program Files\Microsoft Visual Studio\2022\Professional\VC\Tools\MSVC\14.44.35207\atlmfc\include\cstringt.h
; File C:\Program Files\Microsoft Visual Studio\2022\Professional\VC\Tools\MSVC\14.44.35207\atlmfc\include\atlsimpstr.h
; File C:\Program Files\Microsoft Visual Studio\2022\Professional\VC\Tools\MSVC\14.44.35207\atlmfc\include\cstringt.h
; File C:\Program Files\Microsoft Visual Studio\2022\Professional\VC\Tools\MSVC\14.44.35207\atlmfc\include\afxstr.h
; File C:\Program Files\Microsoft Visual Studio\2022\Professional\VC\Tools\MSVC\14.44.35207\atlmfc\include\cstringt.h
; File C:\Program Files\Microsoft Visual Studio\2022\Professional\VC\Tools\MSVC\14.44.35207\atlmfc\include\atlsimpstr.h
; File C:\Program Files\Microsoft Visual Studio\2022\Professional\VC\Tools\MSVC\14.44.35207\atlmfc\include\cstringt.h
; File C:\Program Files\Microsoft Visual Studio\2022\Professional\VC\Tools\MSVC\14.44.35207\atlmfc\include\atlsimpstr.h
; File C:\Program Files\Microsoft Visual Studio\2022\Professional\VC\Tools\MSVC\14.44.35207\atlmfc\include\cstringt.h
; File C:\Program Files\Microsoft Visual Studio\2022\Professional\VC\Tools\MSVC\14.44.35207\atlmfc\include\atlsimpstr.h
; File C:\Program Files (x86)\Windows Kits\10\Include\10.0.26100.0\ucrt\stdio.h
; File C:\Program Files\Microsoft Visual Studio\2022\Professional\VC\Tools\MSVC\14.44.35207\atlmfc\include\cstringt.h
; File C:\Program Files (x86)\Windows Kits\10\Include\10.0.26100.0\ucrt\stdio.h
; File C:\Program Files\Microsoft Visual Studio\2022\Professional\VC\Tools\MSVC\14.44.35207\atlmfc\include\atlsimpstr.h
; File C:\Program Files (x86)\Windows Kits\10\Include\10.0.26100.0\ucrt\stdio.h
; File C:\Program Files\Microsoft Visual Studio\2022\Professional\VC\Tools\MSVC\14.44.35207\atlmfc\include\atlsimpstr.h
; File C:\Program Files\Microsoft Visual Studio\2022\Professional\VC\Tools\MSVC\14.44.35207\atlmfc\include\cstringt.h
; File C:\Program Files\Microsoft Visual Studio\2022\Professional\VC\Tools\MSVC\14.44.35207\atlmfc\include\atlsimpstr.h
; File C:\Program Files\Microsoft Visual Studio\2022\Professional\VC\Tools\MSVC\14.44.35207\atlmfc\include\cstringt.h
; File C:\Program Files\Microsoft Visual Studio\2022\Professional\VC\Tools\MSVC\14.44.35207\atlmfc\include\atlsimpstr.h
; File C:\Program Files\Microsoft Visual Studio\2022\Professional\VC\Tools\MSVC\14.44.35207\atlmfc\include\cstringt.h
;	COMDAT ?FormatV@?$CStringT@DV?$StrTraitMFC@DV?$ChTraitsCRT@D@ATL@@@@@ATL@@QAEXPBDPAD@Z
_TEXT	SEGMENT
tv456 = -16						; size = 4
__$EHRec$ = -12						; size = 12
_pszFormat$ = 8						; size = 4
_temp$ = 8						; size = 4
_args$ = 12						; size = 4
?FormatV@?$CStringT@DV?$StrTraitMFC@DV?$ChTraitsCRT@D@ATL@@@@@ATL@@QAEXPBDPAD@Z PROC ; ATL::CStringT<char,StrTraitMFC<char,ATL::ChTraitsCRT<char> > >::FormatV, COMDAT
; _this$ = ecx

; 2225 : 	{

  00000	55		 push	 ebp
  00001	8b ec		 mov	 ebp, esp
  00003	6a ff		 push	 -1
  00005	68 00 00 00 00	 push	 __ehhandler$?FormatV@?$CStringT@DV?$StrTraitMFC@DV?$ChTraitsCRT@D@ATL@@@@@ATL@@QAEXPBDPAD@Z
  0000a	64 a1 00 00 00
	00		 mov	 eax, DWORD PTR fs:0
  00010	50		 push	 eax
  00011	51		 push	 ecx
  00012	53		 push	 ebx
  00013	56		 push	 esi
  00014	57		 push	 edi
  00015	a1 00 00 00 00	 mov	 eax, DWORD PTR ___security_cookie
  0001a	33 c5		 xor	 eax, ebp
  0001c	50		 push	 eax
  0001d	8d 45 f4	 lea	 eax, DWORD PTR __$EHRec$[ebp]
  00020	64 a3 00 00 00
	00		 mov	 DWORD PTR fs:0, eax
  00026	8b d9		 mov	 ebx, ecx

; 2226 : 		ATLASSERT( AtlIsValidString( pszFormat ) );
; 2227 : 		if(pszFormat == NULL)

  00028	8b 75 08	 mov	 esi, DWORD PTR _pszFormat$[ebp]
  0002b	85 f6		 test	 esi, esi
  0002d	0f 84 2e 01 00
	00		 je	 $LN70@FormatV
; File C:\Program Files (x86)\Windows Kits\10\Include\10.0.26100.0\ucrt\stdio.h

; 1652 :         int const _Result = __stdio_common_vsprintf(

  00033	e8 00 00 00 00	 call	 ___local_stdio_printf_options
  00038	ff 75 0c	 push	 DWORD PTR _args$[ebp]
  0003b	89 45 f0	 mov	 DWORD PTR tv456[ebp], eax
  0003e	6a 00		 push	 0
  00040	8b 08		 mov	 ecx, DWORD PTR [eax]
  00042	56		 push	 esi
  00043	6a 00		 push	 0
  00045	6a 00		 push	 0
  00047	ff 70 04	 push	 DWORD PTR [eax+4]
  0004a	83 c9 02	 or	 ecx, 2
  0004d	51		 push	 ecx
  0004e	e8 00 00 00 00	 call	 ___stdio_common_vsprintf
  00053	8b f8		 mov	 edi, eax
  00055	83 c4 1c	 add	 esp, 28			; 0000001cH

; 1653 :             _CRT_INTERNAL_LOCAL_PRINTF_OPTIONS | _CRT_INTERNAL_PRINTF_STANDARD_SNPRINTF_BEHAVIOR,
; 1654 :             NULL, 0, _Format, _Locale, _ArgList);
; 1655 : 
; 1656 :         return _Result < 0 ? -1 : _Result;

  00058	83 c8 ff	 or	 eax, -1
  0005b	85 ff		 test	 edi, edi
  0005d	0f 48 f8	 cmovs	 edi, eax
; File C:\Program Files\Microsoft Visual Studio\2022\Professional\VC\Tools\MSVC\14.44.35207\atlmfc\include\cstringt.h

; 2232 : 		if (nLength < 0)

  00060	85 ff		 test	 edi, edi
  00062	0f 88 ef 00 00
	00		 js	 $LN87@FormatV
; File C:\Program Files\Microsoft Visual Studio\2022\Professional\VC\Tools\MSVC\14.44.35207\atlmfc\include\atlsimpstr.h

; 527  : 		IAtlStringMgr* pStringMgr = GetData()->pStringMgr;

  00068	8b 03		 mov	 eax, DWORD PTR [ebx]
  0006a	8b 48 f0	 mov	 ecx, DWORD PTR [eax-16]

; 528  : 		return pStringMgr ? pStringMgr->Clone() : NULL;

  0006d	85 c9		 test	 ecx, ecx
  0006f	74 0b		 je	 SHORT $LN13@FormatV
  00071	8b 01		 mov	 eax, DWORD PTR [ecx]
  00073	ff 50 10	 call	 DWORD PTR [eax+16]
  00076	8b c8		 mov	 ecx, eax
; File C:\Program Files\Microsoft Visual Studio\2022\Professional\VC\Tools\MSVC\14.44.35207\atlmfc\include\cstringt.h

; 1442 : 		if(pStringMgr) { return pStringMgr; }

  00078	85 c9		 test	 ecx, ecx
  0007a	75 16		 jne	 SHORT $LN28@FormatV
$LN13@FormatV:
; File C:\Program Files\Microsoft Visual Studio\2022\Professional\VC\Tools\MSVC\14.44.35207\atlmfc\include\afxstr.h

; 56   : 		return( AfxGetStringManager() );

  0007c	e8 00 00 00 00	 call	 ?AfxGetStringManager@@YGPAUIAtlStringMgr@ATL@@XZ ; AfxGetStringManager
; File C:\Program Files\Microsoft Visual Studio\2022\Professional\VC\Tools\MSVC\14.44.35207\atlmfc\include\cstringt.h

; 1445 : 		return pStringMgr->Clone();

  00081	8b c8		 mov	 ecx, eax
  00083	8b 10		 mov	 edx, DWORD PTR [eax]
  00085	ff 52 10	 call	 DWORD PTR [edx+16]
  00088	8b c8		 mov	 ecx, eax
; File C:\Program Files\Microsoft Visual Studio\2022\Professional\VC\Tools\MSVC\14.44.35207\atlmfc\include\atlsimpstr.h

; 209  : 		ATLENSURE( pStringMgr != NULL );

  0008a	85 c9		 test	 ecx, ecx
  0008c	0f 84 c5 00 00
	00		 je	 $LN87@FormatV
$LN28@FormatV:

; 210  : 		CStringData* pData = pStringMgr->GetNilString();

  00092	8b 01		 mov	 eax, DWORD PTR [ecx]
  00094	ff 50 0c	 call	 DWORD PTR [eax+12]

; 211  : 		Attach( pData );

  00097	83 c0 10	 add	 eax, 16			; 00000010H
  0009a	89 45 08	 mov	 DWORD PTR _temp$[ebp], eax
; File C:\Program Files\Microsoft Visual Studio\2022\Professional\VC\Tools\MSVC\14.44.35207\atlmfc\include\cstringt.h

; 1063 : 		CThisSimpleString( pStringMgr )

  0009d	c7 45 fc 00 00
	00 00		 mov	 DWORD PTR __$EHRec$[ebp+8], 0

; 2712 : 		if( (pv != NULL) && IS_INTRESOURCE( pv ) )

  000a4	f7 c6 00 00 ff
	ff		 test	 esi, -65536		; ffff0000H
  000aa	75 0e		 jne	 SHORT $LN86@FormatV

; 2713 : 		{
; 2714 : 			UINT nID = LOWORD( reinterpret_cast< DWORD_PTR >( pv ) );

  000ac	0f b7 c6	 movzx	 eax, si

; 2715 : 			(nID);
; 2716 : #ifdef _ATL_USE_WINAPI_FAMILY_DESKTOP_APP
; 2717 : 			if( !LoadString( nID ) )

  000af	8d 4d 08	 lea	 ecx, DWORD PTR _temp$[ebp]
  000b2	50		 push	 eax
  000b3	e8 00 00 00 00	 call	 ?LoadStringA@?$CStringT@DV?$StrTraitMFC@DV?$ChTraitsCRT@D@ATL@@@@@ATL@@QAEHI@Z ; ATL::CStringT<char,StrTraitMFC<char,ATL::ChTraitsCRT<char> > >::LoadStringA

; 1065 : 		if( !CheckImplicitLoad( pszSrc ) )

  000b8	eb 19		 jmp	 SHORT $LN24@FormatV
$LN86@FormatV:
; File C:\Program Files\Microsoft Visual Studio\2022\Professional\VC\Tools\MSVC\14.44.35207\atlmfc\include\atlsimpstr.h

; 730  : 		return( int( strlen( psz ) ) );

  000ba	8b ce		 mov	 ecx, esi
  000bc	8d 51 01	 lea	 edx, DWORD PTR [ecx+1]
  000bf	90		 npad	 1
$LL89@FormatV:
  000c0	8a 01		 mov	 al, BYTE PTR [ecx]
  000c2	41		 inc	 ecx
  000c3	84 c0		 test	 al, al
  000c5	75 f9		 jne	 SHORT $LL89@FormatV
  000c7	2b ca		 sub	 ecx, edx

; 606  : 		SetString( pszSrc, StringLength( pszSrc ) );

  000c9	51		 push	 ecx
  000ca	56		 push	 esi
  000cb	8d 4d 08	 lea	 ecx, DWORD PTR _temp$[ebp]
  000ce	e8 00 00 00 00	 call	 ?SetString@?$CSimpleStringT@D$0A@@ATL@@QAEXPBDH@Z ; ATL::CSimpleStringT<char,0>::SetString
$LN24@FormatV:

; 804  : 		return( reinterpret_cast< CStringData* >( m_pszData )-1 );

  000d3	8b 03		 mov	 eax, DWORD PTR [ebx]

; 812  : 		int nShared = 1-pOldData->nRefs;  // nShared < 0 means true, >= 0 means false

  000d5	b9 01 00 00 00	 mov	 ecx, 1
; File C:\Program Files\Microsoft Visual Studio\2022\Professional\VC\Tools\MSVC\14.44.35207\atlmfc\include\cstringt.h

; 2235 : 		CStringT temp(pszFormat, this->GetManager());

  000da	c7 45 fc 01 00
	00 00		 mov	 DWORD PTR __$EHRec$[ebp+8], 1
; File C:\Program Files\Microsoft Visual Studio\2022\Professional\VC\Tools\MSVC\14.44.35207\atlmfc\include\atlsimpstr.h

; 812  : 		int nShared = 1-pOldData->nRefs;  // nShared < 0 means true, >= 0 means false

  000e1	2b 48 fc	 sub	 ecx, DWORD PTR [eax-4]

; 813  : 		int nTooShort = pOldData->nAllocLength-nLength;  // nTooShort < 0 means true, >= 0 means false

  000e4	8b 40 f8	 mov	 eax, DWORD PTR [eax-8]
  000e7	2b c7		 sub	 eax, edi

; 814  : 		if( (nShared|nTooShort) < 0 )  // If either sign bit is set (i.e. either is less than zero), we need to copy data

  000e9	0b c8		 or	 ecx, eax
  000eb	7d 08		 jge	 SHORT $LN55@FormatV

; 815  : 		{
; 816  : 			PrepareWrite2( nLength );

  000ed	57		 push	 edi
  000ee	8b cb		 mov	 ecx, ebx
  000f0	e8 00 00 00 00	 call	 ?PrepareWrite2@?$CSimpleStringT@D$0A@@ATL@@AAEXH@Z ; ATL::CSimpleStringT<char,0>::PrepareWrite2
$LN55@FormatV:
; File C:\Program Files (x86)\Windows Kits\10\Include\10.0.26100.0\ucrt\stdio.h

; 1491 :         int const _Result = __stdio_common_vsprintf_s(

  000f5	ff 75 0c	 push	 DWORD PTR _args$[ebp]
  000f8	8b 75 08	 mov	 esi, DWORD PTR _temp$[ebp]
; File C:\Program Files\Microsoft Visual Studio\2022\Professional\VC\Tools\MSVC\14.44.35207\atlmfc\include\cstringt.h

; 2237 : 		StringTraits::Format( pszBuffer, nLength+1, temp, args );

  000fb	8d 47 01	 lea	 eax, DWORD PTR [edi+1]
; File C:\Program Files (x86)\Windows Kits\10\Include\10.0.26100.0\ucrt\stdio.h

; 1491 :         int const _Result = __stdio_common_vsprintf_s(

  000fe	6a 00		 push	 0
  00100	56		 push	 esi
  00101	50		 push	 eax
  00102	8b 45 f0	 mov	 eax, DWORD PTR tv456[ebp]
  00105	ff 33		 push	 DWORD PTR [ebx]
  00107	ff 70 04	 push	 DWORD PTR [eax+4]
  0010a	ff 30		 push	 DWORD PTR [eax]
  0010c	e8 00 00 00 00	 call	 ___stdio_common_vsprintf_s
; File C:\Program Files\Microsoft Visual Studio\2022\Professional\VC\Tools\MSVC\14.44.35207\atlmfc\include\atlsimpstr.h

; 875  : 		if( nLength < 0 || nLength > GetData()->nAllocLength)

  00111	8b 03		 mov	 eax, DWORD PTR [ebx]
; File C:\Program Files (x86)\Windows Kits\10\Include\10.0.26100.0\ucrt\stdio.h

; 1491 :         int const _Result = __stdio_common_vsprintf_s(

  00113	83 c4 1c	 add	 esp, 28			; 0000001cH
; File C:\Program Files\Microsoft Visual Studio\2022\Professional\VC\Tools\MSVC\14.44.35207\atlmfc\include\atlsimpstr.h

; 875  : 		if( nLength < 0 || nLength > GetData()->nAllocLength)

  00116	3b 78 f8	 cmp	 edi, DWORD PTR [eax-8]
  00119	7f 46		 jg	 SHORT $LN70@FormatV

; 876  : 			AtlThrow(E_INVALIDARG);
; 877  : 
; 878  : 		GetData()->nDataLength = nLength;

  0011b	89 78 f4	 mov	 DWORD PTR [eax-12], edi

; 804  : 		return( reinterpret_cast< CStringData* >( m_pszData )-1 );

  0011e	83 c6 f0	 add	 esi, -16		; fffffff0H

; 879  : 		m_pszData[nLength] = 0;

  00121	8b 03		 mov	 eax, DWORD PTR [ebx]
; File C:\Program Files\Microsoft Visual Studio\2022\Professional\VC\Tools\MSVC\14.44.35207\atlmfc\include\cstringt.h

; 2239 : 	}

  00123	c7 45 fc ff ff
	ff ff		 mov	 DWORD PTR __$EHRec$[ebp+8], -1
; File C:\Program Files\Microsoft Visual Studio\2022\Professional\VC\Tools\MSVC\14.44.35207\atlmfc\include\atlsimpstr.h

; 879  : 		m_pszData[nLength] = 0;

  0012a	c6 04 07 00	 mov	 BYTE PTR [edi+eax], 0

; 92   : 		if( _InterlockedDecrement( &nRefs ) <= 0 )

  0012e	83 c8 ff	 or	 eax, -1
  00131	f0 0f c1 46 0c	 lock	  xadd	 DWORD PTR [esi+12], eax
  00136	48		 dec	 eax
  00137	85 c0		 test	 eax, eax
  00139	7f 08		 jg	 SHORT $LN84@FormatV

; 93   : 		{
; 94   : 			pStringMgr->Free( this );

  0013b	8b 0e		 mov	 ecx, DWORD PTR [esi]
  0013d	56		 push	 esi
  0013e	8b 01		 mov	 eax, DWORD PTR [ecx]
  00140	ff 50 04	 call	 DWORD PTR [eax+4]
$LN84@FormatV:
; File C:\Program Files\Microsoft Visual Studio\2022\Professional\VC\Tools\MSVC\14.44.35207\atlmfc\include\cstringt.h

; 2239 : 	}

  00143	8b 4d f4	 mov	 ecx, DWORD PTR __$EHRec$[ebp]
  00146	64 89 0d 00 00
	00 00		 mov	 DWORD PTR fs:0, ecx
  0014d	59		 pop	 ecx
  0014e	5f		 pop	 edi
  0014f	5e		 pop	 esi
  00150	5b		 pop	 ebx
  00151	8b e5		 mov	 esp, ebp
  00153	5d		 pop	 ebp
  00154	c2 08 00	 ret	 8
$LN87@FormatV:
; File C:\Program Files\Microsoft Visual Studio\2022\Professional\VC\Tools\MSVC\14.44.35207\atlmfc\include\atlsimpstr.h

; 209  : 		ATLENSURE( pStringMgr != NULL );

  00157	68 05 40 00 80	 push	 -2147467259		; 80004005H
  0015c	e8 00 00 00 00	 call	 ?AtlThrowImpl@ATL@@YGXJ@Z ; ATL::AtlThrowImpl
$LN70@FormatV:
; File C:\Program Files\Microsoft Visual Studio\2022\Professional\VC\Tools\MSVC\14.44.35207\atlmfc\include\cstringt.h

; 2239 : 	}

  00161	68 57 00 07 80	 push	 -2147024809		; 80070057H
  00166	e8 00 00 00 00	 call	 ?AtlThrowImpl@ATL@@YGXJ@Z ; ATL::AtlThrowImpl
$LN91@FormatV:
  0016b	cc		 int	 3
_TEXT	ENDS
;	COMDAT text$x
text$x	SEGMENT
__unwindfunclet$?FormatV@?$CStringT@DV?$StrTraitMFC@DV?$ChTraitsCRT@D@ATL@@@@@ATL@@QAEXPBDPAD@Z$1:
  00000	8d 4d 08	 lea	 ecx, DWORD PTR _temp$[ebp]
  00003	e9 00 00 00 00	 jmp	 ??1?$CSimpleStringT@D$0A@@ATL@@QAE@XZ ; ATL::CSimpleStringT<char,0>::~CSimpleStringT<char,0>
__unwindfunclet$?FormatV@?$CStringT@DV?$StrTraitMFC@DV?$ChTraitsCRT@D@ATL@@@@@ATL@@QAEXPBDPAD@Z$0:
  00008	8d 4d 08	 lea	 ecx, DWORD PTR _temp$[ebp]
  0000b	e9 00 00 00 00	 jmp	 ??1?$CStringT@DV?$StrTraitMFC@DV?$ChTraitsCRT@D@ATL@@@@@ATL@@QAE@XZ ; ATL::CStringT<char,StrTraitMFC<char,ATL::ChTraitsCRT<char> > >::~CStringT<char,StrTraitMFC<char,ATL::ChTraitsCRT<char> > >
  00010	cc		 int	 3
  00011	cc		 int	 3
  00012	cc		 int	 3
  00013	cc		 int	 3
  00014	cc		 int	 3
__ehhandler$?FormatV@?$CStringT@DV?$StrTraitMFC@DV?$ChTraitsCRT@D@ATL@@@@@ATL@@QAEXPBDPAD@Z:
  00015	90		 npad	 1
  00016	90		 npad	 1
  00017	8b 54 24 08	 mov	 edx, DWORD PTR [esp+8]
  0001b	8d 42 0c	 lea	 eax, DWORD PTR [edx+12]
  0001e	8b 4a ec	 mov	 ecx, DWORD PTR [edx-20]
  00021	33 c8		 xor	 ecx, eax
  00023	e8 00 00 00 00	 call	 @__security_check_cookie@4
  00028	b8 00 00 00 00	 mov	 eax, OFFSET __ehfuncinfo$?FormatV@?$CStringT@DV?$StrTraitMFC@DV?$ChTraitsCRT@D@ATL@@@@@ATL@@QAEXPBDPAD@Z
  0002d	e9 00 00 00 00	 jmp	 ___CxxFrameHandler3
text$x	ENDS
?FormatV@?$CStringT@DV?$StrTraitMFC@DV?$ChTraitsCRT@D@ATL@@@@@ATL@@QAEXPBDPAD@Z ENDP ; ATL::CStringT<char,StrTraitMFC<char,ATL::ChTraitsCRT<char> > >::FormatV
; Function compile flags: /Ogtp
; File C:\Program Files\Microsoft Visual Studio\2022\Professional\VC\Tools\MSVC\14.44.35207\atlmfc\include\cstringt.h
;	COMDAT ?Format@?$CStringT@DV?$StrTraitMFC@DV?$ChTraitsCRT@D@ATL@@@@@ATL@@QAAXPBDZZ
_TEXT	SEGMENT
_this$ = 8						; size = 4
_pszFormat$ = 12					; size = 4
?Format@?$CStringT@DV?$StrTraitMFC@DV?$ChTraitsCRT@D@ATL@@@@@ATL@@QAAXPBDZZ PROC ; ATL::CStringT<char,StrTraitMFC<char,ATL::ChTraitsCRT<char> > >::Format, COMDAT

; 2745 : {

  00000	55		 push	 ebp
  00001	8b ec		 mov	 ebp, esp

; 2746 : 	ATLASSERT( AtlIsValidString( pszFormat ) );
; 2747 : 
; 2748 : 	va_list argList;
; 2749 : 	va_start( argList, pszFormat );
; 2750 : 	FormatV( pszFormat, argList );

  00003	8b 4d 08	 mov	 ecx, DWORD PTR _this$[ebp]
  00006	8d 45 10	 lea	 eax, DWORD PTR _pszFormat$[ebp+4]
  00009	50		 push	 eax
  0000a	ff 75 0c	 push	 DWORD PTR _pszFormat$[ebp]
  0000d	e8 00 00 00 00	 call	 ?FormatV@?$CStringT@DV?$StrTraitMFC@DV?$ChTraitsCRT@D@ATL@@@@@ATL@@QAEXPBDPAD@Z ; ATL::CStringT<char,StrTraitMFC<char,ATL::ChTraitsCRT<char> > >::FormatV

; 2751 : 	va_end( argList );
; 2752 : }

  00012	5d		 pop	 ebp
  00013	c3		 ret	 0
?Format@?$CStringT@DV?$StrTraitMFC@DV?$ChTraitsCRT@D@ATL@@@@@ATL@@QAAXPBDZZ ENDP ; ATL::CStringT<char,StrTraitMFC<char,ATL::ChTraitsCRT<char> > >::Format
_TEXT	ENDS
; Function compile flags: /Ogtp
; File C:\Program Files\Microsoft Visual Studio\2022\Professional\VC\Tools\MSVC\14.44.35207\atlmfc\include\cstringt.h
; File C:\Program Files\Microsoft Visual Studio\2022\Professional\VC\Tools\MSVC\14.44.35207\atlmfc\include\atlsimpstr.h
; File C:\Program Files\Microsoft Visual Studio\2022\Professional\VC\Tools\MSVC\14.44.35207\atlmfc\include\cstringt.h
;	COMDAT ??1?$CStringT@DV?$StrTraitMFC@DV?$ChTraitsCRT@D@ATL@@@@@ATL@@QAE@XZ
_TEXT	SEGMENT
??1?$CStringT@DV?$StrTraitMFC@DV?$ChTraitsCRT@D@ATL@@@@@ATL@@QAE@XZ PROC ; ATL::CStringT<char,StrTraitMFC<char,ATL::ChTraitsCRT<char> > >::~CStringT<char,StrTraitMFC<char,ATL::ChTraitsCRT<char> > >, COMDAT
; _this$ = ecx
; File C:\Program Files\Microsoft Visual Studio\2022\Professional\VC\Tools\MSVC\14.44.35207\atlmfc\include\atlsimpstr.h

; 804  : 		return( reinterpret_cast< CStringData* >( m_pszData )-1 );

  00000	8b 11		 mov	 edx, DWORD PTR [ecx]

; 92   : 		if( _InterlockedDecrement( &nRefs ) <= 0 )

  00002	83 c8 ff	 or	 eax, -1

; 804  : 		return( reinterpret_cast< CStringData* >( m_pszData )-1 );

  00005	83 ea 10	 sub	 edx, 16			; 00000010H

; 92   : 		if( _InterlockedDecrement( &nRefs ) <= 0 )

  00008	f0 0f c1 42 0c	 lock	  xadd	 DWORD PTR [edx+12], eax
  0000d	48		 dec	 eax
  0000e	85 c0		 test	 eax, eax
  00010	7f 08		 jg	 SHORT $LN8@CStringT

; 93   : 		{
; 94   : 			pStringMgr->Free( this );

  00012	8b 0a		 mov	 ecx, DWORD PTR [edx]
  00014	52		 push	 edx
  00015	8b 01		 mov	 eax, DWORD PTR [ecx]
  00017	ff 50 04	 call	 DWORD PTR [eax+4]
$LN8@CStringT:
; File C:\Program Files\Microsoft Visual Studio\2022\Professional\VC\Tools\MSVC\14.44.35207\atlmfc\include\cstringt.h

; 1303 : 	}

  0001a	c3		 ret	 0
??1?$CStringT@DV?$StrTraitMFC@DV?$ChTraitsCRT@D@ATL@@@@@ATL@@QAE@XZ ENDP ; ATL::CStringT<char,StrTraitMFC<char,ATL::ChTraitsCRT<char> > >::~CStringT<char,StrTraitMFC<char,ATL::ChTraitsCRT<char> > >
_TEXT	ENDS
; Function compile flags: /Ogtp
; File C:\Program Files\Microsoft Visual Studio\2022\Professional\VC\Tools\MSVC\14.44.35207\atlmfc\include\atlsimpstr.h
;	COMDAT ?Reallocate@?$CSimpleStringT@D$0A@@ATL@@AAEXH@Z
_TEXT	SEGMENT
_nLength$ = 8						; size = 4
?Reallocate@?$CSimpleStringT@D$0A@@ATL@@AAEXH@Z PROC	; ATL::CSimpleStringT<char,0>::Reallocate, COMDAT
; _this$ = ecx

; 853  : 	{

  00000	55		 push	 ebp
  00001	8b ec		 mov	 ebp, esp
  00003	56		 push	 esi

; 854  : 		CStringData* pOldData = GetData();
; 855  : 		ATLASSERT( pOldData->nAllocLength < nLength );
; 856  : 		IAtlStringMgr* pStringMgr = pOldData->pStringMgr;
; 857  : 		if ( pOldData->nAllocLength >= nLength || nLength <= 0)

  00004	8b 75 08	 mov	 esi, DWORD PTR _nLength$[ebp]
  00007	57		 push	 edi
  00008	8b f9		 mov	 edi, ecx

; 804  : 		return( reinterpret_cast< CStringData* >( m_pszData )-1 );

  0000a	8b 17		 mov	 edx, DWORD PTR [edi]
  0000c	83 ea 10	 sub	 edx, 16			; 00000010H

; 854  : 		CStringData* pOldData = GetData();
; 855  : 		ATLASSERT( pOldData->nAllocLength < nLength );
; 856  : 		IAtlStringMgr* pStringMgr = pOldData->pStringMgr;
; 857  : 		if ( pOldData->nAllocLength >= nLength || nLength <= 0)

  0000f	39 72 08	 cmp	 DWORD PTR [edx+8], esi
  00012	7d 1e		 jge	 SHORT $LN3@Reallocate
  00014	85 f6		 test	 esi, esi
  00016	7e 1a		 jle	 SHORT $LN3@Reallocate

; 860  : 			return;
; 861  : 		}
; 862  : 		CStringData* pNewData = pStringMgr->Reallocate( pOldData, nLength, sizeof( XCHAR ) );

  00018	8b 0a		 mov	 ecx, DWORD PTR [edx]
  0001a	6a 01		 push	 1
  0001c	56		 push	 esi
  0001d	52		 push	 edx
  0001e	8b 01		 mov	 eax, DWORD PTR [ecx]
  00020	ff 50 08	 call	 DWORD PTR [eax+8]

; 863  : 		if( pNewData == NULL )

  00023	85 c0		 test	 eax, eax
  00025	74 0b		 je	 SHORT $LN3@Reallocate

; 864  : 		{
; 865  : 			ThrowMemoryException();
; 866  : 		}
; 867  : 		Attach( pNewData );

  00027	83 c0 10	 add	 eax, 16			; 00000010H
  0002a	89 07		 mov	 DWORD PTR [edi], eax
  0002c	5f		 pop	 edi
  0002d	5e		 pop	 esi

; 868  : 	}

  0002e	5d		 pop	 ebp
  0002f	c2 04 00	 ret	 4
$LN3@Reallocate:

; 858  : 		{
; 859  : 			ThrowMemoryException();

  00032	e8 00 00 00 00	 call	 ?ThrowMemoryException@?$CSimpleStringT@D$0A@@ATL@@KAXXZ ; ATL::CSimpleStringT<char,0>::ThrowMemoryException
$LN12@Reallocate:
  00037	cc		 int	 3
?Reallocate@?$CSimpleStringT@D$0A@@ATL@@AAEXH@Z ENDP	; ATL::CSimpleStringT<char,0>::Reallocate
_TEXT	ENDS
; Function compile flags: /Ogtp
; File C:\Program Files\Microsoft Visual Studio\2022\Professional\VC\Tools\MSVC\14.44.35207\atlmfc\include\atlsimpstr.h
;	COMDAT ?PrepareWrite2@?$CSimpleStringT@D$0A@@ATL@@AAEXH@Z
_TEXT	SEGMENT
_nLength$ = 8						; size = 4
?PrepareWrite2@?$CSimpleStringT@D$0A@@ATL@@AAEXH@Z PROC	; ATL::CSimpleStringT<char,0>::PrepareWrite2, COMDAT
; _this$ = ecx

; 822  : 	{

  00000	55		 push	 ebp
  00001	8b ec		 mov	 ebp, esp
  00003	56		 push	 esi

; 823  : 		CStringData* pOldData = GetData();
; 824  : 		if( pOldData->nDataLength > nLength )

  00004	8b 75 08	 mov	 esi, DWORD PTR _nLength$[ebp]
  00007	57		 push	 edi
  00008	8b f9		 mov	 edi, ecx

; 804  : 		return( reinterpret_cast< CStringData* >( m_pszData )-1 );

  0000a	8b 0f		 mov	 ecx, DWORD PTR [edi]

; 823  : 		CStringData* pOldData = GetData();
; 824  : 		if( pOldData->nDataLength > nLength )

  0000c	39 71 f4	 cmp	 DWORD PTR [ecx-12], esi
  0000f	0f 4f 71 f4	 cmovg	 esi, DWORD PTR [ecx-12]

; 77   : 		return( nRefs > 1 );

  00013	83 79 fc 01	 cmp	 DWORD PTR [ecx-4], 1

; 825  : 		{
; 826  : 			nLength = pOldData->nDataLength;
; 827  : 		}
; 828  : 		if( pOldData->IsShared() )

  00017	7e 0e		 jle	 SHORT $LN3@PrepareWri

; 829  : 		{
; 830  : 			Fork( nLength );

  00019	56		 push	 esi
  0001a	8b cf		 mov	 ecx, edi
  0001c	e8 00 00 00 00	 call	 ?Fork@?$CSimpleStringT@D$0A@@ATL@@AAEXH@Z ; ATL::CSimpleStringT<char,0>::Fork
  00021	5f		 pop	 edi

; 850  : 		}
; 851  : 	}

  00022	5e		 pop	 esi
  00023	5d		 pop	 ebp
  00024	c2 04 00	 ret	 4
$LN3@PrepareWri:

; 831  : 		}
; 832  : 		else if( pOldData->nAllocLength < nLength )

  00027	8b 49 f8	 mov	 ecx, DWORD PTR [ecx-8]
  0002a	3b ce		 cmp	 ecx, esi
  0002c	7d 25		 jge	 SHORT $LN5@PrepareWri

; 833  : 		{
; 834  : 			// Grow exponentially, until we hit 1G, then by 1M thereafter.
; 835  : 			int nNewLength = pOldData->nAllocLength;
; 836  : 			if( nNewLength > 1024 * 1024 * 1024 )

  0002e	81 f9 00 00 00
	40		 cmp	 ecx, 1073741824		; 40000000H
  00034	7e 07		 jle	 SHORT $LN6@PrepareWri

; 837  : 			{
; 838  : 				nNewLength += 1024 * 1024;

  00036	b8 00 00 10 00	 mov	 eax, 1048576		; 00100000H

; 839  : 			}

  0003b	eb 07		 jmp	 SHORT $LN7@PrepareWri
$LN6@PrepareWri:

; 840  : 			else
; 841  : 			{
; 842  : 				// Exponential growth factor is 1.5.
; 843  : 				nNewLength = nNewLength + nNewLength / 2;

  0003d	8b c1		 mov	 eax, ecx
  0003f	99		 cdq
  00040	2b c2		 sub	 eax, edx
  00042	d1 f8		 sar	 eax, 1
$LN7@PrepareWri:

; 844  : 			}
; 845  : 			if( nNewLength < nLength )

  00044	03 c1		 add	 eax, ecx

; 846  : 			{
; 847  : 				nNewLength = nLength;
; 848  : 			}
; 849  : 			Reallocate( nNewLength );

  00046	8b cf		 mov	 ecx, edi
  00048	3b c6		 cmp	 eax, esi
  0004a	0f 4d f0	 cmovge	 esi, eax
  0004d	56		 push	 esi
  0004e	e8 00 00 00 00	 call	 ?Reallocate@?$CSimpleStringT@D$0A@@ATL@@AAEXH@Z ; ATL::CSimpleStringT<char,0>::Reallocate
$LN5@PrepareWri:

; 850  : 		}
; 851  : 	}

  00053	5f		 pop	 edi
  00054	5e		 pop	 esi
  00055	5d		 pop	 ebp
  00056	c2 04 00	 ret	 4
?PrepareWrite2@?$CSimpleStringT@D$0A@@ATL@@AAEXH@Z ENDP	; ATL::CSimpleStringT<char,0>::PrepareWrite2
_TEXT	ENDS
; Function compile flags: /Ogtp
; File C:\Program Files\Microsoft Visual Studio\2022\Professional\VC\Tools\MSVC\14.44.35207\atlmfc\include\atlsimpstr.h
; File C:\Program Files (x86)\Windows Kits\10\Include\10.0.26100.0\ucrt\corecrt_memcpy_s.h
; File C:\Program Files\Microsoft Visual Studio\2022\Professional\VC\Tools\MSVC\14.44.35207\atlmfc\include\atlsimpstr.h
;	COMDAT ?Fork@?$CSimpleStringT@D$0A@@ATL@@AAEXH@Z
_TEXT	SEGMENT
_this$1$ = -12						; size = 4
_nOldLength$1$ = -8					; size = 4
__Source$1$ = -4					; size = 4
_nLength$ = 8						; size = 4
_pNewData$1$ = 8					; size = 4
?Fork@?$CSimpleStringT@D$0A@@ATL@@AAEXH@Z PROC		; ATL::CSimpleStringT<char,0>::Fork, COMDAT
; _this$ = ecx

; 787  : 	{

  00000	55		 push	 ebp
  00001	8b ec		 mov	 ebp, esp
  00003	83 ec 0c	 sub	 esp, 12			; 0000000cH
  00006	8b c1		 mov	 eax, ecx
  00008	89 45 f4	 mov	 DWORD PTR _this$1$[ebp], eax
  0000b	53		 push	 ebx
  0000c	56		 push	 esi

; 804  : 		return( reinterpret_cast< CStringData* >( m_pszData )-1 );

  0000d	8b 00		 mov	 eax, DWORD PTR [eax]

; 790  : 		CStringData* pNewData = pOldData->pStringMgr->Clone()->Allocate( nLength, sizeof( XCHAR ) );

  0000f	8b 48 f0	 mov	 ecx, DWORD PTR [eax-16]

; 804  : 		return( reinterpret_cast< CStringData* >( m_pszData )-1 );

  00012	8d 58 f0	 lea	 ebx, DWORD PTR [eax-16]
  00015	89 45 fc	 mov	 DWORD PTR __Source$1$[ebp], eax

; 787  : 	{

  00018	57		 push	 edi

; 788  : 		CStringData* pOldData = GetData();
; 789  : 		int nOldLength = pOldData->nDataLength;

  00019	8b 7b 04	 mov	 edi, DWORD PTR [ebx+4]

; 790  : 		CStringData* pNewData = pOldData->pStringMgr->Clone()->Allocate( nLength, sizeof( XCHAR ) );

  0001c	8b 01		 mov	 eax, DWORD PTR [ecx]
  0001e	89 7d f8	 mov	 DWORD PTR _nOldLength$1$[ebp], edi
  00021	ff 50 10	 call	 DWORD PTR [eax+16]
  00024	8b 75 08	 mov	 esi, DWORD PTR _nLength$[ebp]
  00027	8b c8		 mov	 ecx, eax
  00029	6a 01		 push	 1
  0002b	56		 push	 esi
  0002c	8b 10		 mov	 edx, DWORD PTR [eax]
  0002e	ff 12		 call	 DWORD PTR [edx]
  00030	89 45 08	 mov	 DWORD PTR _pNewData$1$[ebp], eax

; 791  : 		if( pNewData == NULL )

  00033	85 c0		 test	 eax, eax
  00035	74 6c		 je	 SHORT $LN25@Fork

; 794  : 		}
; 795  : 		int nCharsToCopy = ((nOldLength < nLength) ? nOldLength : nLength)+1;  // Copy '\0'

  00037	3b fe		 cmp	 edi, esi
  00039	0f 4c f7	 cmovl	 esi, edi

; 796  : 		memcpy_s( PXSTR( pNewData->data() ), nCharsToCopy * sizeof( XCHAR ),

  0003c	8d 78 10	 lea	 edi, DWORD PTR [eax+16]
  0003f	83 c6 01	 add	 esi, 1
; File C:\Program Files (x86)\Windows Kits\10\Include\10.0.26100.0\ucrt\corecrt_memcpy_s.h

; 47   :         if (_SourceSize == 0)

  00042	74 33		 je	 SHORT $LN11@Fork

; 48   :         {
; 49   :             return 0;
; 50   :         }
; 51   : 
; 52   :         _CRT_MEMCPY_S_VALIDATE_RETURN_ERRCODE(_Destination != NULL, EINVAL);

  00044	85 ff		 test	 edi, edi
  00046	74 1f		 je	 SHORT $LN23@Fork

; 53   :         if (_Source == NULL || _DestinationSize < _SourceSize)

  00048	8b 45 fc	 mov	 eax, DWORD PTR __Source$1$[ebp]
  0004b	56		 push	 esi
  0004c	85 c0		 test	 eax, eax
  0004e	74 0c		 je	 SHORT $LN10@Fork

; 56   : 
; 57   :             _CRT_MEMCPY_S_VALIDATE_RETURN_ERRCODE(_Source != NULL,                 EINVAL);
; 58   :             _CRT_MEMCPY_S_VALIDATE_RETURN_ERRCODE(_DestinationSize >= _SourceSize, ERANGE);
; 59   : 
; 60   :             // Unreachable, but required to suppress /analyze warnings:
; 61   :             return EINVAL;
; 62   :         }
; 63   :         memcpy(_Destination, _Source, _SourceSize);

  00050	50		 push	 eax
  00051	57		 push	 edi
  00052	e8 00 00 00 00	 call	 _memcpy
  00057	83 c4 0c	 add	 esp, 12			; 0000000cH
  0005a	eb 1b		 jmp	 SHORT $LN11@Fork
$LN10@Fork:

; 54   :         {
; 55   :             memset(_Destination, 0, _DestinationSize);

  0005c	6a 00		 push	 0
  0005e	57		 push	 edi
  0005f	e8 00 00 00 00	 call	 _memset
  00064	83 c4 0c	 add	 esp, 12			; 0000000cH
$LN23@Fork:
; File C:\Program Files\Microsoft Visual Studio\2022\Professional\VC\Tools\MSVC\14.44.35207\atlmfc\include\atlsimpstr.h

; 798  : 		pNewData->nDataLength = nOldLength;

  00067	e8 00 00 00 00	 call	 __errno
  0006c	c7 00 16 00 00
	00		 mov	 DWORD PTR [eax], 22	; 00000016H
  00072	e8 00 00 00 00	 call	 __invalid_parameter_noinfo
$LN11@Fork:
  00077	8b 4d 08	 mov	 ecx, DWORD PTR _pNewData$1$[ebp]
  0007a	8b 45 f8	 mov	 eax, DWORD PTR _nOldLength$1$[ebp]
  0007d	89 41 04	 mov	 DWORD PTR [ecx+4], eax

; 92   : 		if( _InterlockedDecrement( &nRefs ) <= 0 )

  00080	83 c8 ff	 or	 eax, -1
  00083	f0 0f c1 43 0c	 lock	  xadd	 DWORD PTR [ebx+12], eax
  00088	48		 dec	 eax
  00089	85 c0		 test	 eax, eax
  0008b	7f 08		 jg	 SHORT $LN15@Fork

; 93   : 		{
; 94   : 			pStringMgr->Free( this );

  0008d	8b 0b		 mov	 ecx, DWORD PTR [ebx]
  0008f	53		 push	 ebx
  00090	8b 01		 mov	 eax, DWORD PTR [ecx]
  00092	ff 50 04	 call	 DWORD PTR [eax+4]
$LN15@Fork:

; 799  : 		pOldData->Release();
; 800  : 		Attach( pNewData );

  00095	8b 45 f4	 mov	 eax, DWORD PTR _this$1$[ebp]
  00098	89 38		 mov	 DWORD PTR [eax], edi

; 801  : 	}

  0009a	5f		 pop	 edi
  0009b	5e		 pop	 esi
  0009c	5b		 pop	 ebx
  0009d	8b e5		 mov	 esp, ebp
  0009f	5d		 pop	 ebp
  000a0	c2 04 00	 ret	 4
$LN25@Fork:

; 792  : 		{
; 793  : 			ThrowMemoryException();

  000a3	e8 00 00 00 00	 call	 ?ThrowMemoryException@?$CSimpleStringT@D$0A@@ATL@@KAXXZ ; ATL::CSimpleStringT<char,0>::ThrowMemoryException
$LN22@Fork:
  000a8	cc		 int	 3
?Fork@?$CSimpleStringT@D$0A@@ATL@@AAEXH@Z ENDP		; ATL::CSimpleStringT<char,0>::Fork
_TEXT	ENDS
; Function compile flags: /Ogtp
; File C:\Program Files\Microsoft Visual Studio\2022\Professional\VC\Tools\MSVC\14.44.35207\atlmfc\include\atlsimpstr.h
;	COMDAT ?ThrowMemoryException@?$CSimpleStringT@D$0A@@ATL@@KAXXZ
_TEXT	SEGMENT
?ThrowMemoryException@?$CSimpleStringT@D$0A@@ATL@@KAXXZ PROC ; ATL::CSimpleStringT<char,0>::ThrowMemoryException, COMDAT

; 777  : 		AtlThrow( E_OUTOFMEMORY );

  00000	68 0e 00 07 80	 push	 -2147024882		; 8007000eH
  00005	e8 00 00 00 00	 call	 ?AtlThrowImpl@ATL@@YGXJ@Z ; ATL::AtlThrowImpl
$LN3@ThrowMemor:
  0000a	cc		 int	 3
?ThrowMemoryException@?$CSimpleStringT@D$0A@@ATL@@KAXXZ ENDP ; ATL::CSimpleStringT<char,0>::ThrowMemoryException
_TEXT	ENDS
; Function compile flags: /Ogtp
; File C:\Program Files\Microsoft Visual Studio\2022\Professional\VC\Tools\MSVC\14.44.35207\atlmfc\include\atlsimpstr.h
; File C:\Program Files (x86)\Windows Kits\10\Include\10.0.26100.0\ucrt\corecrt_memcpy_s.h
; File C:\Program Files\Microsoft Visual Studio\2022\Professional\VC\Tools\MSVC\14.44.35207\atlmfc\include\atlsimpstr.h
; File C:\Program Files (x86)\Windows Kits\10\Include\10.0.26100.0\ucrt\corecrt_memcpy_s.h
; File C:\Program Files\Microsoft Visual Studio\2022\Professional\VC\Tools\MSVC\14.44.35207\atlmfc\include\atlsimpstr.h
;	COMDAT ?SetString@?$CSimpleStringT@D$0A@@ATL@@QAEXPBDH@Z
_TEXT	SEGMENT
_pszSrc$ = 8						; size = 4
_nOldLength$1$ = 8					; size = 4
_nLength$ = 12						; size = 4
_nOffset$1$ = 12					; size = 4
?SetString@?$CSimpleStringT@D$0A@@ATL@@QAEXPBDH@Z PROC	; ATL::CSimpleStringT<char,0>::SetString, COMDAT
; _this$ = ecx

; 611  : 	{

  00000	55		 push	 ebp
  00001	8b ec		 mov	 ebp, esp
  00003	56		 push	 esi

; 612  : 		if( nLength == 0 )

  00004	8b 75 0c	 mov	 esi, DWORD PTR _nLength$[ebp]
  00007	57		 push	 edi
  00008	8b f9		 mov	 edi, ecx
  0000a	85 f6		 test	 esi, esi
  0000c	75 58		 jne	 SHORT $LN2@SetString

; 804  : 		return( reinterpret_cast< CStringData* >( m_pszData )-1 );

  0000e	8b 07		 mov	 eax, DWORD PTR [edi]

; 443  : 		if( pOldData->nDataLength == 0 )

  00010	83 78 f4 00	 cmp	 DWORD PTR [eax-12], 0

; 804  : 		return( reinterpret_cast< CStringData* >( m_pszData )-1 );

  00014	8d 50 f0	 lea	 edx, DWORD PTR [eax-16]

; 442  : 		IAtlStringMgr* pStringMgr = pOldData->pStringMgr;

  00017	8b 32		 mov	 esi, DWORD PTR [edx]

; 443  : 		if( pOldData->nDataLength == 0 )

  00019	74 1f		 je	 SHORT $LN72@SetString

; 73   : 		return nRefs < 0;

  0001b	83 7a 0c 00	 cmp	 DWORD PTR [edx+12], 0
  0001f	8d 4a 0c	 lea	 ecx, DWORD PTR [edx+12]

; 448  : 		if( pOldData->IsLocked() )

  00022	7d 1c		 jge	 SHORT $LN10@SetString

; 875  : 		if( nLength < 0 || nLength > GetData()->nAllocLength)

  00024	83 78 f8 00	 cmp	 DWORD PTR [eax-8], 0
  00028	0f 8c 0b 01 00
	00		 jl	 $LN71@SetString

; 877  : 
; 878  : 		GetData()->nDataLength = nLength;

  0002e	c7 40 f4 00 00
	00 00		 mov	 DWORD PTR [eax-12], 0

; 879  : 		m_pszData[nLength] = 0;

  00035	8b 07		 mov	 eax, DWORD PTR [edi]
  00037	c6 00 00	 mov	 BYTE PTR [eax], 0
$LN72@SetString:
  0003a	5f		 pop	 edi

; 638  : 			else
; 639  : 			{
; 640  : 				memcpy_s( pszBuffer, GetAllocLength() * sizeof( XCHAR ), pszSrc, nLength * sizeof( XCHAR ));
; 641  : 			}
; 642  : 			ReleaseBufferSetLength( nLength );
; 643  : 		}
; 644  : 	}

  0003b	5e		 pop	 esi
  0003c	5d		 pop	 ebp
  0003d	c2 08 00	 ret	 8
$LN10@SetString:

; 92   : 		if( _InterlockedDecrement( &nRefs ) <= 0 )

  00040	83 c8 ff	 or	 eax, -1
  00043	f0 0f c1 01	 lock	  xadd	 DWORD PTR [ecx], eax
  00047	48		 dec	 eax
  00048	85 c0		 test	 eax, eax
  0004a	7f 08		 jg	 SHORT $LN27@SetString

; 93   : 		{
; 94   : 			pStringMgr->Free( this );

  0004c	8b 0a		 mov	 ecx, DWORD PTR [edx]
  0004e	52		 push	 edx
  0004f	8b 01		 mov	 eax, DWORD PTR [ecx]
  00051	ff 50 04	 call	 DWORD PTR [eax+4]
$LN27@SetString:

; 456  : 			CStringData* pNewData = pStringMgr->GetNilString();

  00054	8b 06		 mov	 eax, DWORD PTR [esi]
  00056	8b ce		 mov	 ecx, esi
  00058	ff 50 0c	 call	 DWORD PTR [eax+12]

; 457  : 			Attach( pNewData );

  0005b	83 c0 10	 add	 eax, 16			; 00000010H
  0005e	89 07		 mov	 DWORD PTR [edi], eax
  00060	5f		 pop	 edi

; 638  : 			else
; 639  : 			{
; 640  : 				memcpy_s( pszBuffer, GetAllocLength() * sizeof( XCHAR ), pszSrc, nLength * sizeof( XCHAR ));
; 641  : 			}
; 642  : 			ReleaseBufferSetLength( nLength );
; 643  : 		}
; 644  : 	}

  00061	5e		 pop	 esi
  00062	5d		 pop	 ebp
  00063	c2 08 00	 ret	 8
$LN2@SetString:
  00066	53		 push	 ebx

; 613  : 		{
; 614  : 			Empty();
; 615  : 		}
; 616  : 		else
; 617  : 		{
; 618  : 			// It is possible that pszSrc points to a location inside of our
; 619  : 			// buffer.  GetBuffer() might change m_pszData if (1) the buffer
; 620  : 			// is shared or (2) the buffer is too small to hold the new
; 621  : 			// string.  We detect this aliasing, and modify pszSrc to point
; 622  : 			// into the newly allocated buffer instead.
; 623  : 
; 624  : 			if(pszSrc == NULL)

  00067	8b 5d 08	 mov	 ebx, DWORD PTR _pszSrc$[ebp]
  0006a	85 db		 test	 ebx, ebx
  0006c	0f 84 c7 00 00
	00		 je	 $LN71@SetString

; 523  : 		return( GetData()->nDataLength );

  00072	8b 07		 mov	 eax, DWORD PTR [edi]

; 625  : 				AtlThrow(E_INVALIDARG);
; 626  : 
; 627  : 			UINT nOldLength = GetLength();
; 628  : 			UINT_PTR nOffset = pszSrc-GetString();

  00074	8b d3		 mov	 edx, ebx
  00076	2b d0		 sub	 edx, eax
  00078	89 55 0c	 mov	 DWORD PTR _nOffset$1$[ebp], edx
  0007b	8b 48 f4	 mov	 ecx, DWORD PTR [eax-12]
  0007e	89 4d 08	 mov	 DWORD PTR _nOldLength$1$[ebp], ecx

; 808  : 		if (nLength < 0)

  00081	85 f6		 test	 esi, esi
  00083	0f 88 b0 00 00
	00		 js	 $LN71@SetString

; 809  : 			AtlThrow(E_INVALIDARG);
; 810  : 
; 811  : 		CStringData* pOldData = GetData();
; 812  : 		int nShared = 1-pOldData->nRefs;  // nShared < 0 means true, >= 0 means false

  00089	b9 01 00 00 00	 mov	 ecx, 1
  0008e	2b 48 fc	 sub	 ecx, DWORD PTR [eax-4]

; 813  : 		int nTooShort = pOldData->nAllocLength-nLength;  // nTooShort < 0 means true, >= 0 means false

  00091	8b 40 f8	 mov	 eax, DWORD PTR [eax-8]
  00094	2b c6		 sub	 eax, esi

; 814  : 		if( (nShared|nTooShort) < 0 )  // If either sign bit is set (i.e. either is less than zero), we need to copy data

  00096	0b c8		 or	 ecx, eax
  00098	7d 0b		 jge	 SHORT $LN38@SetString

; 815  : 		{
; 816  : 			PrepareWrite2( nLength );

  0009a	56		 push	 esi
  0009b	8b cf		 mov	 ecx, edi
  0009d	e8 00 00 00 00	 call	 ?PrepareWrite2@?$CSimpleStringT@D$0A@@ATL@@AAEXH@Z ; ATL::CSimpleStringT<char,0>::PrepareWrite2
  000a2	8b 55 0c	 mov	 edx, DWORD PTR _nOffset$1$[ebp]
$LN38@SetString:

; 629  : 			// If 0 <= nOffset <= nOldLength, then pszSrc points into our
; 630  : 			// buffer
; 631  : 
; 632  : 			PXSTR pszBuffer = GetBuffer( nLength );

  000a5	8b 07		 mov	 eax, DWORD PTR [edi]
  000a7	8b 48 f8	 mov	 ecx, DWORD PTR [eax-8]

; 633  : 			if( nOffset <= nOldLength )

  000aa	3b 55 08	 cmp	 edx, DWORD PTR _nOldLength$1$[ebp]
  000ad	77 35		 ja	 SHORT $LN5@SetString

; 634  : 			{
; 635  : 				CopyCharsOverlapped( pszBuffer, GetAllocLength(),

  000af	03 d0		 add	 edx, eax
; File C:\Program Files (x86)\Windows Kits\10\Include\10.0.26100.0\ucrt\corecrt_memcpy_s.h

; 81   :         _CRT_MEMCPY_S_VALIDATE_RETURN_ERRCODE(_Destination != NULL,            EINVAL);

  000b1	85 c0		 test	 eax, eax
  000b3	75 0d		 jne	 SHORT $LN51@SetString
  000b5	e8 00 00 00 00	 call	 __errno
  000ba	c7 00 16 00 00
	00		 mov	 DWORD PTR [eax], 22	; 00000016H
  000c0	eb 5b		 jmp	 SHORT $LN97@SetString
$LN51@SetString:

; 82   :         _CRT_MEMCPY_S_VALIDATE_RETURN_ERRCODE(_Source != NULL,                 EINVAL);

  000c2	85 d2		 test	 edx, edx
  000c4	75 0d		 jne	 SHORT $LN52@SetString
  000c6	e8 00 00 00 00	 call	 __errno
  000cb	c7 00 16 00 00
	00		 mov	 DWORD PTR [eax], 22	; 00000016H
  000d1	eb 4a		 jmp	 SHORT $LN97@SetString
$LN52@SetString:

; 83   :         _CRT_MEMCPY_S_VALIDATE_RETURN_ERRCODE(_DestinationSize >= _SourceSize, ERANGE);

  000d3	3b ce		 cmp	 ecx, esi
  000d5	72 3b		 jb	 SHORT $LN98@SetString

; 84   : 
; 85   :         memmove(_Destination, _Source, _SourceSize);

  000d7	56		 push	 esi
  000d8	52		 push	 edx
  000d9	50		 push	 eax
  000da	e8 00 00 00 00	 call	 _memmove
  000df	83 c4 0c	 add	 esp, 12			; 0000000cH
; File C:\Program Files\Microsoft Visual Studio\2022\Professional\VC\Tools\MSVC\14.44.35207\atlmfc\include\atlsimpstr.h

; 637  : 			}

  000e2	eb 3e		 jmp	 SHORT $LN65@SetString
$LN5@SetString:
; File C:\Program Files (x86)\Windows Kits\10\Include\10.0.26100.0\ucrt\corecrt_memcpy_s.h

; 52   :         _CRT_MEMCPY_S_VALIDATE_RETURN_ERRCODE(_Destination != NULL, EINVAL);

  000e4	85 c0		 test	 eax, eax
  000e6	75 0d		 jne	 SHORT $LN61@SetString
  000e8	e8 00 00 00 00	 call	 __errno
  000ed	c7 00 16 00 00
	00		 mov	 DWORD PTR [eax], 22	; 00000016H
  000f3	eb 28		 jmp	 SHORT $LN97@SetString
$LN61@SetString:

; 53   :         if (_Source == NULL || _DestinationSize < _SourceSize)

  000f5	3b ce		 cmp	 ecx, esi
  000f7	72 0d		 jb	 SHORT $LN63@SetString

; 56   : 
; 57   :             _CRT_MEMCPY_S_VALIDATE_RETURN_ERRCODE(_Source != NULL,                 EINVAL);
; 58   :             _CRT_MEMCPY_S_VALIDATE_RETURN_ERRCODE(_DestinationSize >= _SourceSize, ERANGE);
; 59   : 
; 60   :             // Unreachable, but required to suppress /analyze warnings:
; 61   :             return EINVAL;
; 62   :         }
; 63   :         memcpy(_Destination, _Source, _SourceSize);

  000f9	56		 push	 esi
  000fa	53		 push	 ebx
  000fb	50		 push	 eax
  000fc	e8 00 00 00 00	 call	 _memcpy
  00101	83 c4 0c	 add	 esp, 12			; 0000000cH
  00104	eb 1c		 jmp	 SHORT $LN65@SetString
$LN63@SetString:

; 54   :         {
; 55   :             memset(_Destination, 0, _DestinationSize);

  00106	51		 push	 ecx
  00107	6a 00		 push	 0
  00109	50		 push	 eax
  0010a	e8 00 00 00 00	 call	 _memset
  0010f	83 c4 0c	 add	 esp, 12			; 0000000cH
$LN98@SetString:
; File C:\Program Files\Microsoft Visual Studio\2022\Professional\VC\Tools\MSVC\14.44.35207\atlmfc\include\atlsimpstr.h

; 875  : 		if( nLength < 0 || nLength > GetData()->nAllocLength)

  00112	e8 00 00 00 00	 call	 __errno
  00117	c7 00 22 00 00
	00		 mov	 DWORD PTR [eax], 34	; 00000022H
$LN97@SetString:
  0011d	e8 00 00 00 00	 call	 __invalid_parameter_noinfo
$LN65@SetString:
  00122	8b 07		 mov	 eax, DWORD PTR [edi]
  00124	5b		 pop	 ebx
  00125	3b 70 f8	 cmp	 esi, DWORD PTR [eax-8]
  00128	7f 0f		 jg	 SHORT $LN71@SetString

; 877  : 
; 878  : 		GetData()->nDataLength = nLength;

  0012a	89 70 f4	 mov	 DWORD PTR [eax-12], esi

; 879  : 		m_pszData[nLength] = 0;

  0012d	8b 07		 mov	 eax, DWORD PTR [edi]
  0012f	5f		 pop	 edi
  00130	c6 04 06 00	 mov	 BYTE PTR [esi+eax], 0

; 638  : 			else
; 639  : 			{
; 640  : 				memcpy_s( pszBuffer, GetAllocLength() * sizeof( XCHAR ), pszSrc, nLength * sizeof( XCHAR ));
; 641  : 			}
; 642  : 			ReleaseBufferSetLength( nLength );
; 643  : 		}
; 644  : 	}

  00134	5e		 pop	 esi
  00135	5d		 pop	 ebp
  00136	c2 08 00	 ret	 8
$LN71@SetString:

; 876  : 			AtlThrow(E_INVALIDARG);

  00139	68 57 00 07 80	 push	 -2147024809		; 80070057H
  0013e	e8 00 00 00 00	 call	 ?AtlThrowImpl@ATL@@YGXJ@Z ; ATL::AtlThrowImpl
$LN96@SetString:
  00143	cc		 int	 3
?SetString@?$CSimpleStringT@D$0A@@ATL@@QAEXPBDH@Z ENDP	; ATL::CSimpleStringT<char,0>::SetString
_TEXT	ENDS
; Function compile flags: /Ogtp
; File C:\Program Files\Microsoft Visual Studio\2022\Professional\VC\Tools\MSVC\14.44.35207\atlmfc\include\atlsimpstr.h
;	COMDAT ??1?$CSimpleStringT@D$0A@@ATL@@QAE@XZ
_TEXT	SEGMENT
??1?$CSimpleStringT@D$0A@@ATL@@QAE@XZ PROC		; ATL::CSimpleStringT<char,0>::~CSimpleStringT<char,0>, COMDAT
; _this$ = ecx

; 804  : 		return( reinterpret_cast< CStringData* >( m_pszData )-1 );

  00000	8b 11		 mov	 edx, DWORD PTR [ecx]

; 92   : 		if( _InterlockedDecrement( &nRefs ) <= 0 )

  00002	83 c8 ff	 or	 eax, -1

; 804  : 		return( reinterpret_cast< CStringData* >( m_pszData )-1 );

  00005	83 ea 10	 sub	 edx, 16			; 00000010H

; 92   : 		if( _InterlockedDecrement( &nRefs ) <= 0 )

  00008	f0 0f c1 42 0c	 lock	  xadd	 DWORD PTR [edx+12], eax
  0000d	48		 dec	 eax
  0000e	85 c0		 test	 eax, eax
  00010	7f 08		 jg	 SHORT $LN6@CSimpleStr

; 93   : 		{
; 94   : 			pStringMgr->Free( this );

  00012	8b 0a		 mov	 ecx, DWORD PTR [edx]
  00014	52		 push	 edx
  00015	8b 01		 mov	 eax, DWORD PTR [ecx]
  00017	ff 50 04	 call	 DWORD PTR [eax+4]
$LN6@CSimpleStr:

; 265  : 		CStringData* pData = GetData();
; 266  : 		pData->Release();
; 267  : 	}

  0001a	c3		 ret	 0
??1?$CSimpleStringT@D$0A@@ATL@@QAE@XZ ENDP		; ATL::CSimpleStringT<char,0>::~CSimpleStringT<char,0>
_TEXT	ENDS
; Function compile flags: /Ogtp
; File C:\Program Files\Microsoft Visual Studio\2022\Professional\VC\Tools\MSVC\14.44.35207\atlmfc\include\atlexcept.h
;	COMDAT ?AtlThrowImpl@ATL@@YGXJ@Z
_TEXT	SEGMENT
_hr$ = 8						; size = 4
?AtlThrowImpl@ATL@@YGXJ@Z PROC				; ATL::AtlThrowImpl, COMDAT

; 69   : {

  00000	55		 push	 ebp
  00001	8b ec		 mov	 ebp, esp

; 70   : 	ATLTRACE(atlTraceException, 0, _T("AtlThrow: hr = 0x%x\n"), hr );
; 71   : #ifdef _AFX
; 72   : 	if( hr == E_OUTOFMEMORY )

  00003	8b 45 08	 mov	 eax, DWORD PTR _hr$[ebp]
  00006	3d 0e 00 07 80	 cmp	 eax, -2147024882	; 8007000eH
  0000b	75 05		 jne	 SHORT $LN2@AtlThrowIm

; 73   : 	{
; 74   : 		AfxThrowMemoryException();

  0000d	e8 00 00 00 00	 call	 ?AfxThrowMemoryException@@YGXXZ ; AfxThrowMemoryException
$LN2@AtlThrowIm:

; 75   : 	}
; 76   : 	else
; 77   : 	{
; 78   : 		AfxThrowOleException( hr );

  00012	50		 push	 eax
  00013	e8 00 00 00 00	 call	 ?AfxThrowOleException@@YGXJ@Z ; AfxThrowOleException
$LN5@AtlThrowIm:
  00018	cc		 int	 3
?AtlThrowImpl@ATL@@YGXJ@Z ENDP				; ATL::AtlThrowImpl
_TEXT	ENDS
; Function compile flags: /Ogtp
; File C:\Program Files (x86)\Windows Kits\10\Include\10.0.26100.0\ucrt\stdio.h
;	COMDAT _sprintf
_TEXT	SEGMENT
__Buffer$ = 8						; size = 4
__Format$ = 12						; size = 4
_sprintf PROC						; COMDAT

; 1771 :     {

  00000	55		 push	 ebp
  00001	8b ec		 mov	 ebp, esp

; 1392 :         int const _Result = __stdio_common_vsprintf(

  00003	8d 45 10	 lea	 eax, DWORD PTR __Format$[ebp+4]
  00006	50		 push	 eax
  00007	6a 00		 push	 0
  00009	ff 75 0c	 push	 DWORD PTR __Format$[ebp]
  0000c	6a ff		 push	 -1
  0000e	ff 75 08	 push	 DWORD PTR __Buffer$[ebp]
  00011	e8 00 00 00 00	 call	 ___local_stdio_printf_options
  00016	8b 08		 mov	 ecx, DWORD PTR [eax]
  00018	ff 70 04	 push	 DWORD PTR [eax+4]
  0001b	83 c9 01	 or	 ecx, 1
  0001e	51		 push	 ecx
  0001f	e8 00 00 00 00	 call	 ___stdio_common_vsprintf

; 1393 :             _CRT_INTERNAL_LOCAL_PRINTF_OPTIONS | _CRT_INTERNAL_PRINTF_LEGACY_VSPRINTF_NULL_TERMINATION,
; 1394 :             _Buffer, _BufferCount, _Format, _Locale, _ArgList);
; 1395 : 
; 1396 :         return _Result < 0 ? -1 : _Result;

  00024	83 c9 ff	 or	 ecx, -1
  00027	83 c4 1c	 add	 esp, 28			; 0000001cH
  0002a	85 c0		 test	 eax, eax
  0002c	0f 48 c1	 cmovs	 eax, ecx

; 1772 :         int _Result;
; 1773 :         va_list _ArgList;
; 1774 :         __crt_va_start(_ArgList, _Format);
; 1775 : 
; 1776 :         _Result = _vsprintf_l(_Buffer, _Format, NULL, _ArgList);
; 1777 : 
; 1778 :         __crt_va_end(_ArgList);
; 1779 :         return _Result;
; 1780 :     }

  0002f	5d		 pop	 ebp
  00030	c3		 ret	 0
_sprintf ENDP
_TEXT	ENDS
; Function compile flags: /Ogtp
; File C:\Program Files (x86)\Windows Kits\10\Include\10.0.26100.0\ucrt\corecrt_stdio_config.h
;	COMDAT ___local_stdio_printf_options
_TEXT	SEGMENT
___local_stdio_printf_options PROC			; COMDAT

; 91   :         static unsigned __int64 _OptionsStorage;
; 92   :         return &_OptionsStorage;

  00000	b8 00 00 00 00	 mov	 eax, OFFSET ?_OptionsStorage@?1??__local_stdio_printf_options@@9@4_KA ; `__local_stdio_printf_options'::`2'::_OptionsStorage

; 93   :     }

  00005	c3		 ret	 0
___local_stdio_printf_options ENDP
_TEXT	ENDS
; Function compile flags: /Ogtp
; File C:\IAGOS\server\v18\Source\Source\_Common\SecretRoom.cpp
;	COMDAT ?__empty_global_delete@@YAXPAXI@Z
_TEXT	SEGMENT
___formal$ = 8						; size = 4
___formal$ = 12						; size = 4
?__empty_global_delete@@YAXPAXI@Z PROC			; __empty_global_delete, COMDAT

  00000	c2 00 00	 ret	 0
?__empty_global_delete@@YAXPAXI@Z ENDP			; __empty_global_delete
_TEXT	ENDS
; Function compile flags: /Ogtp
; File C:\IAGOS\server\v18\Source\Source\_Common\SecretRoom.cpp
;	COMDAT ?__empty_global_delete@@YAXPAX@Z
_TEXT	SEGMENT
___formal$ = 8						; size = 4
?__empty_global_delete@@YAXPAX@Z PROC			; __empty_global_delete, COMDAT

  00000	c2 00 00	 ret	 0
?__empty_global_delete@@YAXPAX@Z ENDP			; __empty_global_delete
_TEXT	ENDS
END
