; Listing generated by Microsoft (R) Optimizing Compiler Version 19.44.35225.0 

	TITLE	C:\IAGOS\server\v18\Source\Output\WorldServer\Release\serversocke.obj
	.686P
	.XMM
	include listing.inc
	.model	flat

INCLUDELIB LIBCMT
INCLUDELIB OLDNAMES

PUBLIC	?__empty_global_delete@@YAXPAX@Z		; __empty_global_delete
PUBLIC	?__empty_global_delete@@YAXPAXI@Z		; __empty_global_delete
PUBLIC	___local_stdio_printf_options
PUBLIC	_sprintf
PUBLIC	??0exception@std@@QAE@ABV01@@Z			; std::exception::exception
PUBLIC	??1exception@std@@UAE@XZ			; std::exception::~exception
PUBLIC	?what@exception@std@@UBEPBDXZ			; std::exception::what
PUBLIC	??_Gexception@std@@UAEPAXI@Z			; std::exception::`scalar deleting destructor'
PUBLIC	??0bad_alloc@std@@QAE@ABV01@@Z			; std::bad_alloc::bad_alloc
PUBLIC	??_Gbad_alloc@std@@UAEPAXI@Z			; std::bad_alloc::`scalar deleting destructor'
PUBLIC	??0bad_array_new_length@std@@QAE@XZ		; std::bad_array_new_length::bad_array_new_length
PUBLIC	??1bad_array_new_length@std@@UAE@XZ		; std::bad_array_new_length::~bad_array_new_length
PUBLIC	??0bad_array_new_length@std@@QAE@ABV01@@Z	; std::bad_array_new_length::bad_array_new_length
PUBLIC	??_Gbad_array_new_length@std@@UAEPAXI@Z		; std::bad_array_new_length::`scalar deleting destructor'
PUBLIC	?_Throw_bad_array_new_length@std@@YAXXZ		; std::_Throw_bad_array_new_length
PUBLIC	?_Throw_tree_length_error@std@@YAXXZ		; std::_Throw_tree_length_error
PUBLIC	??1CMclCritSec@@UAE@XZ				; CMclCritSec::~CMclCritSec
PUBLIC	??_GCMclCritSec@@UAEPAXI@Z			; CMclCritSec::`scalar deleting destructor'
PUBLIC	??1CMclAutoLock@@QAE@XZ				; CMclAutoLock::~CMclAutoLock
PUBLIC	??$_Allocate_manually_vector_aligned@U_Default_allocate_traits@std@@@std@@YAPAXI@Z ; std::_Allocate_manually_vector_aligned<std::_Default_allocate_traits>
PUBLIC	?GetPeerAddr@CSock@@UAEKK@Z			; CSock::GetPeerAddr
PUBLIC	??1?$_Tree@V?$_Tmap_traits@KPAVCClientSockE@@U?$less@K@std@@V?$allocator@U?$pair@$$CBKPAVCClientSockE@@@std@@@3@$0A@@std@@@std@@QAE@XZ ; std::_Tree<std::_Tmap_traits<unsigned long,CClientSockE *,std::less<unsigned long>,std::allocator<std::pair<unsigned long const ,CClientSockE *> >,0> >::~_Tree<std::_Tmap_traits<unsigned long,CClientSockE *,std::less<unsigned long>,std::allocator<std::pair<unsigned long const ,CClientSockE *> >,0> >
PUBLIC	?_Lrotate@?$_Tree_val@U?$_Tree_simple_types@U?$pair@$$CBKPAVCClientSockE@@@std@@@std@@@std@@QAEXPAU?$_Tree_node@U?$pair@$$CBKPAVCClientSockE@@@std@@PAX@2@@Z ; std::_Tree_val<std::_Tree_simple_types<std::pair<unsigned long const ,CClientSockE *> > >::_Lrotate
PUBLIC	?_Rrotate@?$_Tree_val@U?$_Tree_simple_types@U?$pair@$$CBKPAVCClientSockE@@@std@@@std@@@std@@QAEXPAU?$_Tree_node@U?$pair@$$CBKPAVCClientSockE@@@std@@PAX@2@@Z ; std::_Tree_val<std::_Tree_simple_types<std::pair<unsigned long const ,CClientSockE *> > >::_Rrotate
PUBLIC	?_Extract@?$_Tree_val@U?$_Tree_simple_types@U?$pair@$$CBKPAVCClientSockE@@@std@@@std@@@std@@QAEPAU?$_Tree_node@U?$pair@$$CBKPAVCClientSockE@@@std@@PAX@2@V?$_Tree_unchecked_const_iterator@V?$_Tree_val@U?$_Tree_simple_types@U?$pair@$$CBKPAVCClientSockE@@@std@@@std@@@std@@U_Iterator_base0@2@@2@@Z ; std::_Tree_val<std::_Tree_simple_types<std::pair<unsigned long const ,CClientSockE *> > >::_Extract
PUBLIC	?_Insert_node@?$_Tree_val@U?$_Tree_simple_types@U?$pair@$$CBKPAVCClientSockE@@@std@@@std@@@std@@QAEPAU?$_Tree_node@U?$pair@$$CBKPAVCClientSockE@@@std@@PAX@2@U?$_Tree_id@PAU?$_Tree_node@U?$pair@$$CBKPAVCClientSockE@@@std@@PAX@std@@@2@QAU32@@Z ; std::_Tree_val<std::_Tree_simple_types<std::pair<unsigned long const ,CClientSockE *> > >::_Insert_node
PUBLIC	??1CMapChildE@@UAE@XZ				; CMapChildE::~CMapChildE
PUBLIC	??_GCMapChildE@@UAEPAXI@Z			; CMapChildE::`scalar deleting destructor'
PUBLIC	??0CServerSockE@@QAE@W4BUFFER_TYPE@@@Z		; CServerSockE::CServerSockE
PUBLIC	??1CServerSockE@@UAE@XZ				; CServerSockE::~CServerSockE
PUBLIC	?Listen@CServerSockE@@QAEHXZ			; CServerSockE::Listen
PUBLIC	?AddChild@CServerSockE@@QAEPAVCClientSockE@@I@Z	; CServerSockE::AddChild
PUBLIC	?CloseChild@CServerSockE@@QAEHI@Z		; CServerSockE::CloseChild
PUBLIC	?CloseAllChild@CServerSockE@@QAEXXZ		; CServerSockE::CloseAllChild
PUBLIC	?StartServer@CServerSockE@@QAEHPAVCDPSock@@@Z	; CServerSockE::StartServer
PUBLIC	?Close@CServerSockE@@UAEXXZ			; CServerSockE::Close
PUBLIC	?CloseConnection@CServerSockE@@UAEHI@Z		; CServerSockE::CloseConnection
PUBLIC	?Shutdown@CServerSockE@@UAEHI@Z			; CServerSockE::Shutdown
PUBLIC	?Send@CServerSockE@@UAEXPADKK@Z			; CServerSockE::Send
PUBLIC	?GetPeerAddr@CServerSockE@@UAEJKPAXPAK@Z	; CServerSockE::GetPeerAddr
PUBLIC	?Get@CServerSockE@@UAEPAVCSock@@I@Z		; CServerSockE::Get
PUBLIC	??_GCServerSockE@@UAEPAXI@Z			; CServerSockE::`scalar deleting destructor'
PUBLIC	??E?$_Tree_unchecked_const_iterator@V?$_Tree_val@U?$_Tree_simple_types@U?$pair@$$CBKPAVCClientSockE@@@std@@@std@@@std@@U_Iterator_base0@2@@std@@QAEAAV01@XZ ; std::_Tree_unchecked_const_iterator<std::_Tree_val<std::_Tree_simple_types<std::pair<unsigned long const ,CClientSockE *> > >,std::_Iterator_base0>::operator++
PUBLIC	?ListenThreadE@@YGIPAX@Z			; ListenThreadE
PUBLIC	??$_Erase_tree@V?$allocator@U?$_Tree_node@U?$pair@$$CBKPAVCClientSockE@@@std@@PAX@std@@@std@@@?$_Tree_val@U?$_Tree_simple_types@U?$pair@$$CBKPAVCClientSockE@@@std@@@std@@@std@@QAEXAAV?$allocator@U?$_Tree_node@U?$pair@$$CBKPAVCClientSockE@@@std@@PAX@std@@@1@PAU?$_Tree_node@U?$pair@$$CBKPAVCClientSockE@@@std@@PAX@1@@Z ; std::_Tree_val<std::_Tree_simple_types<std::pair<unsigned long const ,CClientSockE *> > >::_Erase_tree<std::allocator<std::_Tree_node<std::pair<unsigned long const ,CClientSockE *>,void *> > >
PUBLIC	??$_Find_lower_bound@K@?$_Tree@V?$_Tmap_traits@KPAVCClientSockE@@U?$less@K@std@@V?$allocator@U?$pair@$$CBKPAVCClientSockE@@@std@@@3@$0A@@std@@@std@@IBE?AU?$_Tree_find_result@PAU?$_Tree_node@U?$pair@$$CBKPAVCClientSockE@@@std@@PAX@std@@@1@ABK@Z ; std::_Tree<std::_Tmap_traits<unsigned long,CClientSockE *,std::less<unsigned long>,std::allocator<std::pair<unsigned long const ,CClientSockE *> >,0> >::_Find_lower_bound<unsigned long>
PUBLIC	??1?$_Alloc_construct_ptr@V?$allocator@U?$_Tree_node@U?$pair@$$CBKPAVCClientSockE@@@std@@PAX@std@@@std@@@std@@QAE@XZ ; std::_Alloc_construct_ptr<std::allocator<std::_Tree_node<std::pair<unsigned long const ,CClientSockE *>,void *> > >::~_Alloc_construct_ptr<std::allocator<std::_Tree_node<std::pair<unsigned long const ,CClientSockE *>,void *> > >
PUBLIC	?_OptionsStorage@?1??__local_stdio_printf_options@@9@4_KA ; `__local_stdio_printf_options'::`2'::_OptionsStorage
PUBLIC	??_7exception@std@@6B@				; std::exception::`vftable'
PUBLIC	??_C@_0BC@EOODALEL@Unknown?5exception@		; `string'
PUBLIC	??_7bad_alloc@std@@6B@				; std::bad_alloc::`vftable'
PUBLIC	??_7bad_array_new_length@std@@6B@		; std::bad_array_new_length::`vftable'
PUBLIC	??_C@_0BF@KINCDENJ@bad?5array?5new?5length@	; `string'
PUBLIC	??_R0?AVexception@std@@@8			; std::exception `RTTI Type Descriptor'
PUBLIC	__CT??_R0?AVexception@std@@@8??0exception@std@@QAE@ABV01@@Z12
PUBLIC	__TI3?AVbad_array_new_length@std@@
PUBLIC	__CTA3?AVbad_array_new_length@std@@
PUBLIC	??_R0?AVbad_array_new_length@std@@@8		; std::bad_array_new_length `RTTI Type Descriptor'
PUBLIC	__CT??_R0?AVbad_array_new_length@std@@@8??0bad_array_new_length@std@@QAE@ABV01@@Z12
PUBLIC	??_R0?AVbad_alloc@std@@@8			; std::bad_alloc `RTTI Type Descriptor'
PUBLIC	__CT??_R0?AVbad_alloc@std@@@8??0bad_alloc@std@@QAE@ABV01@@Z12
PUBLIC	??_C@_0BB@GCADKGJO@map?1set?5too?5long@		; `string'
PUBLIC	??_7CMclCritSec@@6B@				; CMclCritSec::`vftable'
PUBLIC	??_R4exception@std@@6B@				; std::exception::`RTTI Complete Object Locator'
PUBLIC	??_R3exception@std@@8				; std::exception::`RTTI Class Hierarchy Descriptor'
PUBLIC	??_R2exception@std@@8				; std::exception::`RTTI Base Class Array'
PUBLIC	??_R1A@?0A@EA@exception@std@@8			; std::exception::`RTTI Base Class Descriptor at (0,-1,0,64)'
PUBLIC	??_R4bad_array_new_length@std@@6B@		; std::bad_array_new_length::`RTTI Complete Object Locator'
PUBLIC	??_R3bad_array_new_length@std@@8		; std::bad_array_new_length::`RTTI Class Hierarchy Descriptor'
PUBLIC	??_R2bad_array_new_length@std@@8		; std::bad_array_new_length::`RTTI Base Class Array'
PUBLIC	??_R1A@?0A@EA@bad_array_new_length@std@@8	; std::bad_array_new_length::`RTTI Base Class Descriptor at (0,-1,0,64)'
PUBLIC	??_R1A@?0A@EA@bad_alloc@std@@8			; std::bad_alloc::`RTTI Base Class Descriptor at (0,-1,0,64)'
PUBLIC	??_R3bad_alloc@std@@8				; std::bad_alloc::`RTTI Class Hierarchy Descriptor'
PUBLIC	??_R2bad_alloc@std@@8				; std::bad_alloc::`RTTI Base Class Array'
PUBLIC	??_R4bad_alloc@std@@6B@				; std::bad_alloc::`RTTI Complete Object Locator'
PUBLIC	??_R4CMclCritSec@@6B@				; CMclCritSec::`RTTI Complete Object Locator'
PUBLIC	??_R0?AVCMclCritSec@@@8				; CMclCritSec `RTTI Type Descriptor'
PUBLIC	??_R3CMclCritSec@@8				; CMclCritSec::`RTTI Class Hierarchy Descriptor'
PUBLIC	??_R2CMclCritSec@@8				; CMclCritSec::`RTTI Base Class Array'
PUBLIC	??_R1A@?0A@EA@CMclCritSec@@8			; CMclCritSec::`RTTI Base Class Descriptor at (0,-1,0,64)'
PUBLIC	??_7CMapChildE@@6B@				; CMapChildE::`vftable'
PUBLIC	??_7CServerSockE@@6B@				; CServerSockE::`vftable'
PUBLIC	??_C@_0M@PCENNPGA@?$CFd?4?$CFd?4?$CFd?4?$CFd@	; `string'
PUBLIC	??_R4CMapChildE@@6B@				; CMapChildE::`RTTI Complete Object Locator'
PUBLIC	??_R0?AVCMapChildE@@@8				; CMapChildE `RTTI Type Descriptor'
PUBLIC	??_R3CMapChildE@@8				; CMapChildE::`RTTI Class Hierarchy Descriptor'
PUBLIC	??_R2CMapChildE@@8				; CMapChildE::`RTTI Base Class Array'
PUBLIC	??_R1A@?0A@EA@CMapChildE@@8			; CMapChildE::`RTTI Base Class Descriptor at (0,-1,0,64)'
PUBLIC	??_R13?0A@EA@?$map@KPAVCClientSockE@@U?$less@K@std@@V?$allocator@U?$pair@$$CBKPAVCClientSockE@@@std@@@3@@std@@8 ; std::map<unsigned long,CClientSockE *,std::less<unsigned long>,std::allocator<std::pair<unsigned long const ,CClientSockE *> > >::`RTTI Base Class Descriptor at (4,-1,0,64)'
PUBLIC	??_R0?AV?$map@KPAVCClientSockE@@U?$less@K@std@@V?$allocator@U?$pair@$$CBKPAVCClientSockE@@@std@@@3@@std@@@8 ; std::map<unsigned long,CClientSockE *,std::less<unsigned long>,std::allocator<std::pair<unsigned long const ,CClientSockE *> > > `RTTI Type Descriptor'
PUBLIC	??_R3?$map@KPAVCClientSockE@@U?$less@K@std@@V?$allocator@U?$pair@$$CBKPAVCClientSockE@@@std@@@3@@std@@8 ; std::map<unsigned long,CClientSockE *,std::less<unsigned long>,std::allocator<std::pair<unsigned long const ,CClientSockE *> > >::`RTTI Class Hierarchy Descriptor'
PUBLIC	??_R2?$map@KPAVCClientSockE@@U?$less@K@std@@V?$allocator@U?$pair@$$CBKPAVCClientSockE@@@std@@@3@@std@@8 ; std::map<unsigned long,CClientSockE *,std::less<unsigned long>,std::allocator<std::pair<unsigned long const ,CClientSockE *> > >::`RTTI Base Class Array'
PUBLIC	??_R1A@?0A@EA@?$map@KPAVCClientSockE@@U?$less@K@std@@V?$allocator@U?$pair@$$CBKPAVCClientSockE@@@std@@@3@@std@@8 ; std::map<unsigned long,CClientSockE *,std::less<unsigned long>,std::allocator<std::pair<unsigned long const ,CClientSockE *> > >::`RTTI Base Class Descriptor at (0,-1,0,64)'
PUBLIC	??_R1A@?0A@EA@?$_Tree@V?$_Tmap_traits@KPAVCClientSockE@@U?$less@K@std@@V?$allocator@U?$pair@$$CBKPAVCClientSockE@@@std@@@3@$0A@@std@@@std@@8 ; std::_Tree<std::_Tmap_traits<unsigned long,CClientSockE *,std::less<unsigned long>,std::allocator<std::pair<unsigned long const ,CClientSockE *> >,0> >::`RTTI Base Class Descriptor at (0,-1,0,64)'
PUBLIC	??_R0?AV?$_Tree@V?$_Tmap_traits@KPAVCClientSockE@@U?$less@K@std@@V?$allocator@U?$pair@$$CBKPAVCClientSockE@@@std@@@3@$0A@@std@@@std@@@8 ; std::_Tree<std::_Tmap_traits<unsigned long,CClientSockE *,std::less<unsigned long>,std::allocator<std::pair<unsigned long const ,CClientSockE *> >,0> > `RTTI Type Descriptor'
PUBLIC	??_R3?$_Tree@V?$_Tmap_traits@KPAVCClientSockE@@U?$less@K@std@@V?$allocator@U?$pair@$$CBKPAVCClientSockE@@@std@@@3@$0A@@std@@@std@@8 ; std::_Tree<std::_Tmap_traits<unsigned long,CClientSockE *,std::less<unsigned long>,std::allocator<std::pair<unsigned long const ,CClientSockE *> >,0> >::`RTTI Class Hierarchy Descriptor'
PUBLIC	??_R2?$_Tree@V?$_Tmap_traits@KPAVCClientSockE@@U?$less@K@std@@V?$allocator@U?$pair@$$CBKPAVCClientSockE@@@std@@@3@$0A@@std@@@std@@8 ; std::_Tree<std::_Tmap_traits<unsigned long,CClientSockE *,std::less<unsigned long>,std::allocator<std::pair<unsigned long const ,CClientSockE *> >,0> >::`RTTI Base Class Array'
PUBLIC	??_R13?0A@EA@?$_Tree@V?$_Tmap_traits@KPAVCClientSockE@@U?$less@K@std@@V?$allocator@U?$pair@$$CBKPAVCClientSockE@@@std@@@3@$0A@@std@@@std@@8 ; std::_Tree<std::_Tmap_traits<unsigned long,CClientSockE *,std::less<unsigned long>,std::allocator<std::pair<unsigned long const ,CClientSockE *> >,0> >::`RTTI Base Class Descriptor at (4,-1,0,64)'
PUBLIC	??_R4CServerSockE@@6B@				; CServerSockE::`RTTI Complete Object Locator'
PUBLIC	??_R0?AVCServerSockE@@@8			; CServerSockE `RTTI Type Descriptor'
PUBLIC	??_R3CServerSockE@@8				; CServerSockE::`RTTI Class Hierarchy Descriptor'
PUBLIC	??_R2CServerSockE@@8				; CServerSockE::`RTTI Base Class Array'
PUBLIC	??_R1A@?0A@EA@CServerSockE@@8			; CServerSockE::`RTTI Base Class Descriptor at (0,-1,0,64)'
PUBLIC	??_R1A@?0A@EA@CSock@@8				; CSock::`RTTI Base Class Descriptor at (0,-1,0,64)'
PUBLIC	??_R0?AVCSock@@@8				; CSock `RTTI Type Descriptor'
PUBLIC	??_R3CSock@@8					; CSock::`RTTI Class Hierarchy Descriptor'
PUBLIC	??_R2CSock@@8					; CSock::`RTTI Base Class Array'
EXTRN	??2@YAPAXI@Z:PROC				; operator new
EXTRN	??3@YAXPAXI@Z:PROC				; operator delete
EXTRN	__invoke_watson:PROC
EXTRN	__imp__CloseHandle@4:PROC
EXTRN	__imp__InitializeCriticalSection@4:PROC
EXTRN	__imp__EnterCriticalSection@4:PROC
EXTRN	__imp__LeaveCriticalSection@4:PROC
EXTRN	__imp__DeleteCriticalSection@4:PROC
EXTRN	__imp__SetEvent@4:PROC
EXTRN	__imp__WaitForSingleObject@8:PROC
EXTRN	__imp__CreateEventA@16:PROC
EXTRN	__imp__WaitForMultipleObjects@16:PROC
EXTRN	__imp__SetThreadPriority@8:PROC
EXTRN	___stdio_common_vsprintf:PROC
EXTRN	__imp__getpeername@12:PROC
EXTRN	__imp__listen@8:PROC
EXTRN	__imp__setsockopt@20:PROC
EXTRN	__imp__WSAAccept@20:PROC
EXTRN	__imp__WSACloseEvent@4:PROC
EXTRN	__imp__WSACreateEvent@0:PROC
EXTRN	__imp__WSAEnumNetworkEvents@12:PROC
EXTRN	__imp__WSAEventSelect@12:PROC
EXTRN	__beginthreadex:PROC
EXTRN	___std_exception_copy:PROC
EXTRN	___std_exception_destroy:PROC
EXTRN	??_Eexception@std@@UAEPAXI@Z:PROC		; std::exception::`vector deleting destructor'
EXTRN	??_Ebad_alloc@std@@UAEPAXI@Z:PROC		; std::bad_alloc::`vector deleting destructor'
EXTRN	??_Ebad_array_new_length@std@@UAEPAXI@Z:PROC	; std::bad_array_new_length::`vector deleting destructor'
EXTRN	?_Xlength_error@std@@YAXPBD@Z:PROC		; std::_Xlength_error
EXTRN	??_ECMclCritSec@@UAEPAXI@Z:PROC			; CMclCritSec::`vector deleting destructor'
EXTRN	??0CSock@@QAE@XZ:PROC				; CSock::CSock
EXTRN	??1CSock@@UAE@XZ:PROC				; CSock::~CSock
EXTRN	?Create@CSock@@UAEHGH@Z:PROC			; CSock::Create
EXTRN	?Attach@CSock@@UAEXI@Z:PROC			; CSock::Attach
EXTRN	?Detach@CSock@@UAEXXZ:PROC			; CSock::Detach
EXTRN	?GetHostAddr@CSock@@UAEJPAXPAK@Z:PROC		; CSock::GetHostAddr
EXTRN	??0CClientSockE@@QAE@W4BUFFER_TYPE@@@Z:PROC	; CClientSockE::CClientSockE
EXTRN	?Recv@CClientSockE@@QAEHXZ:PROC			; CClientSockE::Recv
EXTRN	??_ECMapChildE@@UAEPAXI@Z:PROC			; CMapChildE::`vector deleting destructor'
EXTRN	??_ECServerSockE@@UAEPAXI@Z:PROC		; CServerSockE::`vector deleting destructor'
EXTRN	?CreateEventWorker@CDPSock@@QAEHPAVCSock@@@Z:PROC ; CDPSock::CreateEventWorker
EXTRN	@__security_check_cookie@4:PROC
EXTRN	__CxxThrowException@8:PROC
EXTRN	___CxxFrameHandler3:PROC
EXTRN	??_7type_info@@6B@:QWORD			; type_info::`vftable'
EXTRN	___security_cookie:DWORD
;	COMDAT ?_OptionsStorage@?1??__local_stdio_printf_options@@9@4_KA
_BSS	SEGMENT
?_OptionsStorage@?1??__local_stdio_printf_options@@9@4_KA DQ 01H DUP (?) ; `__local_stdio_printf_options'::`2'::_OptionsStorage
_BSS	ENDS
;	COMDAT ??_R2CSock@@8
rdata$r	SEGMENT
??_R2CSock@@8 DD FLAT:??_R1A@?0A@EA@CSock@@8		; CSock::`RTTI Base Class Array'
rdata$r	ENDS
;	COMDAT ??_R3CSock@@8
rdata$r	SEGMENT
??_R3CSock@@8 DD 00H					; CSock::`RTTI Class Hierarchy Descriptor'
	DD	00H
	DD	01H
	DD	FLAT:??_R2CSock@@8
rdata$r	ENDS
;	COMDAT ??_R0?AVCSock@@@8
data$rs	SEGMENT
??_R0?AVCSock@@@8 DD FLAT:??_7type_info@@6B@		; CSock `RTTI Type Descriptor'
	DD	00H
	DB	'.?AVCSock@@', 00H
data$rs	ENDS
;	COMDAT ??_R1A@?0A@EA@CSock@@8
rdata$r	SEGMENT
??_R1A@?0A@EA@CSock@@8 DD FLAT:??_R0?AVCSock@@@8	; CSock::`RTTI Base Class Descriptor at (0,-1,0,64)'
	DD	00H
	DD	00H
	DD	0ffffffffH
	DD	00H
	DD	040H
	DD	FLAT:??_R3CSock@@8
rdata$r	ENDS
;	COMDAT ??_R1A@?0A@EA@CServerSockE@@8
rdata$r	SEGMENT
??_R1A@?0A@EA@CServerSockE@@8 DD FLAT:??_R0?AVCServerSockE@@@8 ; CServerSockE::`RTTI Base Class Descriptor at (0,-1,0,64)'
	DD	01H
	DD	00H
	DD	0ffffffffH
	DD	00H
	DD	040H
	DD	FLAT:??_R3CServerSockE@@8
rdata$r	ENDS
;	COMDAT ??_R2CServerSockE@@8
rdata$r	SEGMENT
??_R2CServerSockE@@8 DD FLAT:??_R1A@?0A@EA@CServerSockE@@8 ; CServerSockE::`RTTI Base Class Array'
	DD	FLAT:??_R1A@?0A@EA@CSock@@8
rdata$r	ENDS
;	COMDAT ??_R3CServerSockE@@8
rdata$r	SEGMENT
??_R3CServerSockE@@8 DD 00H				; CServerSockE::`RTTI Class Hierarchy Descriptor'
	DD	00H
	DD	02H
	DD	FLAT:??_R2CServerSockE@@8
rdata$r	ENDS
;	COMDAT ??_R0?AVCServerSockE@@@8
data$rs	SEGMENT
??_R0?AVCServerSockE@@@8 DD FLAT:??_7type_info@@6B@	; CServerSockE `RTTI Type Descriptor'
	DD	00H
	DB	'.?AVCServerSockE@@', 00H
data$rs	ENDS
;	COMDAT ??_R4CServerSockE@@6B@
rdata$r	SEGMENT
??_R4CServerSockE@@6B@ DD 00H				; CServerSockE::`RTTI Complete Object Locator'
	DD	00H
	DD	00H
	DD	FLAT:??_R0?AVCServerSockE@@@8
	DD	FLAT:??_R3CServerSockE@@8
rdata$r	ENDS
;	COMDAT ??_R13?0A@EA@?$_Tree@V?$_Tmap_traits@KPAVCClientSockE@@U?$less@K@std@@V?$allocator@U?$pair@$$CBKPAVCClientSockE@@@std@@@3@$0A@@std@@@std@@8
rdata$r	SEGMENT
??_R13?0A@EA@?$_Tree@V?$_Tmap_traits@KPAVCClientSockE@@U?$less@K@std@@V?$allocator@U?$pair@$$CBKPAVCClientSockE@@@std@@@3@$0A@@std@@@std@@8 DD FLAT:??_R0?AV?$_Tree@V?$_Tmap_traits@KPAVCClientSockE@@U?$less@K@std@@V?$allocator@U?$pair@$$CBKPAVCClientSockE@@@std@@@3@$0A@@std@@@std@@@8 ; std::_Tree<std::_Tmap_traits<unsigned long,CClientSockE *,std::less<unsigned long>,std::allocator<std::pair<unsigned long const ,CClientSockE *> >,0> >::`RTTI Base Class Descriptor at (4,-1,0,64)'
	DD	00H
	DD	04H
	DD	0ffffffffH
	DD	00H
	DD	040H
	DD	FLAT:??_R3?$_Tree@V?$_Tmap_traits@KPAVCClientSockE@@U?$less@K@std@@V?$allocator@U?$pair@$$CBKPAVCClientSockE@@@std@@@3@$0A@@std@@@std@@8
rdata$r	ENDS
;	COMDAT ??_R2?$_Tree@V?$_Tmap_traits@KPAVCClientSockE@@U?$less@K@std@@V?$allocator@U?$pair@$$CBKPAVCClientSockE@@@std@@@3@$0A@@std@@@std@@8
rdata$r	SEGMENT
??_R2?$_Tree@V?$_Tmap_traits@KPAVCClientSockE@@U?$less@K@std@@V?$allocator@U?$pair@$$CBKPAVCClientSockE@@@std@@@3@$0A@@std@@@std@@8 DD FLAT:??_R1A@?0A@EA@?$_Tree@V?$_Tmap_traits@KPAVCClientSockE@@U?$less@K@std@@V?$allocator@U?$pair@$$CBKPAVCClientSockE@@@std@@@3@$0A@@std@@@std@@8 ; std::_Tree<std::_Tmap_traits<unsigned long,CClientSockE *,std::less<unsigned long>,std::allocator<std::pair<unsigned long const ,CClientSockE *> >,0> >::`RTTI Base Class Array'
rdata$r	ENDS
;	COMDAT ??_R3?$_Tree@V?$_Tmap_traits@KPAVCClientSockE@@U?$less@K@std@@V?$allocator@U?$pair@$$CBKPAVCClientSockE@@@std@@@3@$0A@@std@@@std@@8
rdata$r	SEGMENT
??_R3?$_Tree@V?$_Tmap_traits@KPAVCClientSockE@@U?$less@K@std@@V?$allocator@U?$pair@$$CBKPAVCClientSockE@@@std@@@3@$0A@@std@@@std@@8 DD 00H ; std::_Tree<std::_Tmap_traits<unsigned long,CClientSockE *,std::less<unsigned long>,std::allocator<std::pair<unsigned long const ,CClientSockE *> >,0> >::`RTTI Class Hierarchy Descriptor'
	DD	00H
	DD	01H
	DD	FLAT:??_R2?$_Tree@V?$_Tmap_traits@KPAVCClientSockE@@U?$less@K@std@@V?$allocator@U?$pair@$$CBKPAVCClientSockE@@@std@@@3@$0A@@std@@@std@@8
rdata$r	ENDS
;	COMDAT ??_R0?AV?$_Tree@V?$_Tmap_traits@KPAVCClientSockE@@U?$less@K@std@@V?$allocator@U?$pair@$$CBKPAVCClientSockE@@@std@@@3@$0A@@std@@@std@@@8
data$rs	SEGMENT
??_R0?AV?$_Tree@V?$_Tmap_traits@KPAVCClientSockE@@U?$less@K@std@@V?$allocator@U?$pair@$$CBKPAVCClientSockE@@@std@@@3@$0A@@std@@@std@@@8 DD FLAT:??_7type_info@@6B@ ; std::_Tree<std::_Tmap_traits<unsigned long,CClientSockE *,std::less<unsigned long>,std::allocator<std::pair<unsigned long const ,CClientSockE *> >,0> > `RTTI Type Descriptor'
	DD	00H
	DB	'.?AV?$_Tree@V?$_Tmap_traits@KPAVCClientSockE@@U?$less@K@'
	DB	'std@@V?$allocator@U?$pair@$$CBKPAVCClientSockE@@@std@@@3@$0A@'
	DB	'@std@@@std@@', 00H
data$rs	ENDS
;	COMDAT ??_R1A@?0A@EA@?$_Tree@V?$_Tmap_traits@KPAVCClientSockE@@U?$less@K@std@@V?$allocator@U?$pair@$$CBKPAVCClientSockE@@@std@@@3@$0A@@std@@@std@@8
rdata$r	SEGMENT
??_R1A@?0A@EA@?$_Tree@V?$_Tmap_traits@KPAVCClientSockE@@U?$less@K@std@@V?$allocator@U?$pair@$$CBKPAVCClientSockE@@@std@@@3@$0A@@std@@@std@@8 DD FLAT:??_R0?AV?$_Tree@V?$_Tmap_traits@KPAVCClientSockE@@U?$less@K@std@@V?$allocator@U?$pair@$$CBKPAVCClientSockE@@@std@@@3@$0A@@std@@@std@@@8 ; std::_Tree<std::_Tmap_traits<unsigned long,CClientSockE *,std::less<unsigned long>,std::allocator<std::pair<unsigned long const ,CClientSockE *> >,0> >::`RTTI Base Class Descriptor at (0,-1,0,64)'
	DD	00H
	DD	00H
	DD	0ffffffffH
	DD	00H
	DD	040H
	DD	FLAT:??_R3?$_Tree@V?$_Tmap_traits@KPAVCClientSockE@@U?$less@K@std@@V?$allocator@U?$pair@$$CBKPAVCClientSockE@@@std@@@3@$0A@@std@@@std@@8
rdata$r	ENDS
;	COMDAT ??_R1A@?0A@EA@?$map@KPAVCClientSockE@@U?$less@K@std@@V?$allocator@U?$pair@$$CBKPAVCClientSockE@@@std@@@3@@std@@8
rdata$r	SEGMENT
??_R1A@?0A@EA@?$map@KPAVCClientSockE@@U?$less@K@std@@V?$allocator@U?$pair@$$CBKPAVCClientSockE@@@std@@@3@@std@@8 DD FLAT:??_R0?AV?$map@KPAVCClientSockE@@U?$less@K@std@@V?$allocator@U?$pair@$$CBKPAVCClientSockE@@@std@@@3@@std@@@8 ; std::map<unsigned long,CClientSockE *,std::less<unsigned long>,std::allocator<std::pair<unsigned long const ,CClientSockE *> > >::`RTTI Base Class Descriptor at (0,-1,0,64)'
	DD	01H
	DD	00H
	DD	0ffffffffH
	DD	00H
	DD	040H
	DD	FLAT:??_R3?$map@KPAVCClientSockE@@U?$less@K@std@@V?$allocator@U?$pair@$$CBKPAVCClientSockE@@@std@@@3@@std@@8
rdata$r	ENDS
;	COMDAT ??_R2?$map@KPAVCClientSockE@@U?$less@K@std@@V?$allocator@U?$pair@$$CBKPAVCClientSockE@@@std@@@3@@std@@8
rdata$r	SEGMENT
??_R2?$map@KPAVCClientSockE@@U?$less@K@std@@V?$allocator@U?$pair@$$CBKPAVCClientSockE@@@std@@@3@@std@@8 DD FLAT:??_R1A@?0A@EA@?$map@KPAVCClientSockE@@U?$less@K@std@@V?$allocator@U?$pair@$$CBKPAVCClientSockE@@@std@@@3@@std@@8 ; std::map<unsigned long,CClientSockE *,std::less<unsigned long>,std::allocator<std::pair<unsigned long const ,CClientSockE *> > >::`RTTI Base Class Array'
	DD	FLAT:??_R1A@?0A@EA@?$_Tree@V?$_Tmap_traits@KPAVCClientSockE@@U?$less@K@std@@V?$allocator@U?$pair@$$CBKPAVCClientSockE@@@std@@@3@$0A@@std@@@std@@8
rdata$r	ENDS
;	COMDAT ??_R3?$map@KPAVCClientSockE@@U?$less@K@std@@V?$allocator@U?$pair@$$CBKPAVCClientSockE@@@std@@@3@@std@@8
rdata$r	SEGMENT
??_R3?$map@KPAVCClientSockE@@U?$less@K@std@@V?$allocator@U?$pair@$$CBKPAVCClientSockE@@@std@@@3@@std@@8 DD 00H ; std::map<unsigned long,CClientSockE *,std::less<unsigned long>,std::allocator<std::pair<unsigned long const ,CClientSockE *> > >::`RTTI Class Hierarchy Descriptor'
	DD	00H
	DD	02H
	DD	FLAT:??_R2?$map@KPAVCClientSockE@@U?$less@K@std@@V?$allocator@U?$pair@$$CBKPAVCClientSockE@@@std@@@3@@std@@8
rdata$r	ENDS
;	COMDAT ??_R0?AV?$map@KPAVCClientSockE@@U?$less@K@std@@V?$allocator@U?$pair@$$CBKPAVCClientSockE@@@std@@@3@@std@@@8
data$rs	SEGMENT
??_R0?AV?$map@KPAVCClientSockE@@U?$less@K@std@@V?$allocator@U?$pair@$$CBKPAVCClientSockE@@@std@@@3@@std@@@8 DD FLAT:??_7type_info@@6B@ ; std::map<unsigned long,CClientSockE *,std::less<unsigned long>,std::allocator<std::pair<unsigned long const ,CClientSockE *> > > `RTTI Type Descriptor'
	DD	00H
	DB	'.?AV?$map@KPAVCClientSockE@@U?$less@K@std@@V?$allocator@'
	DB	'U?$pair@$$CBKPAVCClientSockE@@@std@@@3@@std@@', 00H
data$rs	ENDS
;	COMDAT ??_R13?0A@EA@?$map@KPAVCClientSockE@@U?$less@K@std@@V?$allocator@U?$pair@$$CBKPAVCClientSockE@@@std@@@3@@std@@8
rdata$r	SEGMENT
??_R13?0A@EA@?$map@KPAVCClientSockE@@U?$less@K@std@@V?$allocator@U?$pair@$$CBKPAVCClientSockE@@@std@@@3@@std@@8 DD FLAT:??_R0?AV?$map@KPAVCClientSockE@@U?$less@K@std@@V?$allocator@U?$pair@$$CBKPAVCClientSockE@@@std@@@3@@std@@@8 ; std::map<unsigned long,CClientSockE *,std::less<unsigned long>,std::allocator<std::pair<unsigned long const ,CClientSockE *> > >::`RTTI Base Class Descriptor at (4,-1,0,64)'
	DD	01H
	DD	04H
	DD	0ffffffffH
	DD	00H
	DD	040H
	DD	FLAT:??_R3?$map@KPAVCClientSockE@@U?$less@K@std@@V?$allocator@U?$pair@$$CBKPAVCClientSockE@@@std@@@3@@std@@8
rdata$r	ENDS
;	COMDAT ??_R1A@?0A@EA@CMapChildE@@8
rdata$r	SEGMENT
??_R1A@?0A@EA@CMapChildE@@8 DD FLAT:??_R0?AVCMapChildE@@@8 ; CMapChildE::`RTTI Base Class Descriptor at (0,-1,0,64)'
	DD	02H
	DD	00H
	DD	0ffffffffH
	DD	00H
	DD	040H
	DD	FLAT:??_R3CMapChildE@@8
rdata$r	ENDS
;	COMDAT ??_R2CMapChildE@@8
rdata$r	SEGMENT
??_R2CMapChildE@@8 DD FLAT:??_R1A@?0A@EA@CMapChildE@@8	; CMapChildE::`RTTI Base Class Array'
	DD	FLAT:??_R13?0A@EA@?$map@KPAVCClientSockE@@U?$less@K@std@@V?$allocator@U?$pair@$$CBKPAVCClientSockE@@@std@@@3@@std@@8
	DD	FLAT:??_R13?0A@EA@?$_Tree@V?$_Tmap_traits@KPAVCClientSockE@@U?$less@K@std@@V?$allocator@U?$pair@$$CBKPAVCClientSockE@@@std@@@3@$0A@@std@@@std@@8
rdata$r	ENDS
;	COMDAT ??_R3CMapChildE@@8
rdata$r	SEGMENT
??_R3CMapChildE@@8 DD 00H				; CMapChildE::`RTTI Class Hierarchy Descriptor'
	DD	00H
	DD	03H
	DD	FLAT:??_R2CMapChildE@@8
rdata$r	ENDS
;	COMDAT ??_R0?AVCMapChildE@@@8
data$rs	SEGMENT
??_R0?AVCMapChildE@@@8 DD FLAT:??_7type_info@@6B@	; CMapChildE `RTTI Type Descriptor'
	DD	00H
	DB	'.?AVCMapChildE@@', 00H
data$rs	ENDS
;	COMDAT ??_R4CMapChildE@@6B@
rdata$r	SEGMENT
??_R4CMapChildE@@6B@ DD 00H				; CMapChildE::`RTTI Complete Object Locator'
	DD	00H
	DD	00H
	DD	FLAT:??_R0?AVCMapChildE@@@8
	DD	FLAT:??_R3CMapChildE@@8
rdata$r	ENDS
;	COMDAT ??_C@_0M@PCENNPGA@?$CFd?4?$CFd?4?$CFd?4?$CFd@
CONST	SEGMENT
??_C@_0M@PCENNPGA@?$CFd?4?$CFd?4?$CFd?4?$CFd@ DB '%d.%d.%d.%d', 00H ; `string'
CONST	ENDS
;	COMDAT ??_7CServerSockE@@6B@
CONST	SEGMENT
??_7CServerSockE@@6B@ DD FLAT:??_R4CServerSockE@@6B@	; CServerSockE::`vftable'
	DD	FLAT:??_ECServerSockE@@UAEPAXI@Z
	DD	FLAT:?Create@CSock@@UAEHGH@Z
	DD	FLAT:?Attach@CSock@@UAEXI@Z
	DD	FLAT:?Detach@CSock@@UAEXXZ
	DD	FLAT:?GetHostAddr@CSock@@UAEJPAXPAK@Z
	DD	FLAT:?GetPeerAddr@CSock@@UAEKK@Z
	DD	FLAT:?GetPeerAddr@CServerSockE@@UAEJKPAXPAK@Z
	DD	FLAT:?Close@CServerSockE@@UAEXXZ
	DD	FLAT:?CloseConnection@CServerSockE@@UAEHI@Z
	DD	FLAT:?Shutdown@CServerSockE@@UAEHI@Z
	DD	FLAT:?Send@CServerSockE@@UAEXPADKK@Z
	DD	FLAT:?Get@CServerSockE@@UAEPAVCSock@@I@Z
CONST	ENDS
;	COMDAT ??_7CMapChildE@@6B@
CONST	SEGMENT
??_7CMapChildE@@6B@ DD FLAT:??_R4CMapChildE@@6B@	; CMapChildE::`vftable'
	DD	FLAT:??_ECMapChildE@@UAEPAXI@Z
CONST	ENDS
;	COMDAT ??_R1A@?0A@EA@CMclCritSec@@8
rdata$r	SEGMENT
??_R1A@?0A@EA@CMclCritSec@@8 DD FLAT:??_R0?AVCMclCritSec@@@8 ; CMclCritSec::`RTTI Base Class Descriptor at (0,-1,0,64)'
	DD	00H
	DD	00H
	DD	0ffffffffH
	DD	00H
	DD	040H
	DD	FLAT:??_R3CMclCritSec@@8
rdata$r	ENDS
;	COMDAT ??_R2CMclCritSec@@8
rdata$r	SEGMENT
??_R2CMclCritSec@@8 DD FLAT:??_R1A@?0A@EA@CMclCritSec@@8 ; CMclCritSec::`RTTI Base Class Array'
rdata$r	ENDS
;	COMDAT ??_R3CMclCritSec@@8
rdata$r	SEGMENT
??_R3CMclCritSec@@8 DD 00H				; CMclCritSec::`RTTI Class Hierarchy Descriptor'
	DD	00H
	DD	01H
	DD	FLAT:??_R2CMclCritSec@@8
rdata$r	ENDS
;	COMDAT ??_R0?AVCMclCritSec@@@8
data$rs	SEGMENT
??_R0?AVCMclCritSec@@@8 DD FLAT:??_7type_info@@6B@	; CMclCritSec `RTTI Type Descriptor'
	DD	00H
	DB	'.?AVCMclCritSec@@', 00H
data$rs	ENDS
;	COMDAT ??_R4CMclCritSec@@6B@
rdata$r	SEGMENT
??_R4CMclCritSec@@6B@ DD 00H				; CMclCritSec::`RTTI Complete Object Locator'
	DD	00H
	DD	00H
	DD	FLAT:??_R0?AVCMclCritSec@@@8
	DD	FLAT:??_R3CMclCritSec@@8
rdata$r	ENDS
;	COMDAT ??_R4bad_alloc@std@@6B@
rdata$r	SEGMENT
??_R4bad_alloc@std@@6B@ DD 00H				; std::bad_alloc::`RTTI Complete Object Locator'
	DD	00H
	DD	00H
	DD	FLAT:??_R0?AVbad_alloc@std@@@8
	DD	FLAT:??_R3bad_alloc@std@@8
rdata$r	ENDS
;	COMDAT ??_R2bad_alloc@std@@8
rdata$r	SEGMENT
??_R2bad_alloc@std@@8 DD FLAT:??_R1A@?0A@EA@bad_alloc@std@@8 ; std::bad_alloc::`RTTI Base Class Array'
	DD	FLAT:??_R1A@?0A@EA@exception@std@@8
rdata$r	ENDS
;	COMDAT ??_R3bad_alloc@std@@8
rdata$r	SEGMENT
??_R3bad_alloc@std@@8 DD 00H				; std::bad_alloc::`RTTI Class Hierarchy Descriptor'
	DD	00H
	DD	02H
	DD	FLAT:??_R2bad_alloc@std@@8
rdata$r	ENDS
;	COMDAT ??_R1A@?0A@EA@bad_alloc@std@@8
rdata$r	SEGMENT
??_R1A@?0A@EA@bad_alloc@std@@8 DD FLAT:??_R0?AVbad_alloc@std@@@8 ; std::bad_alloc::`RTTI Base Class Descriptor at (0,-1,0,64)'
	DD	01H
	DD	00H
	DD	0ffffffffH
	DD	00H
	DD	040H
	DD	FLAT:??_R3bad_alloc@std@@8
rdata$r	ENDS
;	COMDAT ??_R1A@?0A@EA@bad_array_new_length@std@@8
rdata$r	SEGMENT
??_R1A@?0A@EA@bad_array_new_length@std@@8 DD FLAT:??_R0?AVbad_array_new_length@std@@@8 ; std::bad_array_new_length::`RTTI Base Class Descriptor at (0,-1,0,64)'
	DD	02H
	DD	00H
	DD	0ffffffffH
	DD	00H
	DD	040H
	DD	FLAT:??_R3bad_array_new_length@std@@8
rdata$r	ENDS
;	COMDAT ??_R2bad_array_new_length@std@@8
rdata$r	SEGMENT
??_R2bad_array_new_length@std@@8 DD FLAT:??_R1A@?0A@EA@bad_array_new_length@std@@8 ; std::bad_array_new_length::`RTTI Base Class Array'
	DD	FLAT:??_R1A@?0A@EA@bad_alloc@std@@8
	DD	FLAT:??_R1A@?0A@EA@exception@std@@8
rdata$r	ENDS
;	COMDAT ??_R3bad_array_new_length@std@@8
rdata$r	SEGMENT
??_R3bad_array_new_length@std@@8 DD 00H			; std::bad_array_new_length::`RTTI Class Hierarchy Descriptor'
	DD	00H
	DD	03H
	DD	FLAT:??_R2bad_array_new_length@std@@8
rdata$r	ENDS
;	COMDAT ??_R4bad_array_new_length@std@@6B@
rdata$r	SEGMENT
??_R4bad_array_new_length@std@@6B@ DD 00H		; std::bad_array_new_length::`RTTI Complete Object Locator'
	DD	00H
	DD	00H
	DD	FLAT:??_R0?AVbad_array_new_length@std@@@8
	DD	FLAT:??_R3bad_array_new_length@std@@8
rdata$r	ENDS
;	COMDAT ??_R1A@?0A@EA@exception@std@@8
rdata$r	SEGMENT
??_R1A@?0A@EA@exception@std@@8 DD FLAT:??_R0?AVexception@std@@@8 ; std::exception::`RTTI Base Class Descriptor at (0,-1,0,64)'
	DD	00H
	DD	00H
	DD	0ffffffffH
	DD	00H
	DD	040H
	DD	FLAT:??_R3exception@std@@8
rdata$r	ENDS
;	COMDAT ??_R2exception@std@@8
rdata$r	SEGMENT
??_R2exception@std@@8 DD FLAT:??_R1A@?0A@EA@exception@std@@8 ; std::exception::`RTTI Base Class Array'
rdata$r	ENDS
;	COMDAT ??_R3exception@std@@8
rdata$r	SEGMENT
??_R3exception@std@@8 DD 00H				; std::exception::`RTTI Class Hierarchy Descriptor'
	DD	00H
	DD	01H
	DD	FLAT:??_R2exception@std@@8
rdata$r	ENDS
;	COMDAT ??_R4exception@std@@6B@
rdata$r	SEGMENT
??_R4exception@std@@6B@ DD 00H				; std::exception::`RTTI Complete Object Locator'
	DD	00H
	DD	00H
	DD	FLAT:??_R0?AVexception@std@@@8
	DD	FLAT:??_R3exception@std@@8
rdata$r	ENDS
;	COMDAT ??_7CMclCritSec@@6B@
CONST	SEGMENT
??_7CMclCritSec@@6B@ DD FLAT:??_R4CMclCritSec@@6B@	; CMclCritSec::`vftable'
	DD	FLAT:??_ECMclCritSec@@UAEPAXI@Z
CONST	ENDS
;	COMDAT ??_C@_0BB@GCADKGJO@map?1set?5too?5long@
CONST	SEGMENT
??_C@_0BB@GCADKGJO@map?1set?5too?5long@ DB 'map/set too long', 00H ; `string'
CONST	ENDS
;	COMDAT __CT??_R0?AVbad_alloc@std@@@8??0bad_alloc@std@@QAE@ABV01@@Z12
xdata$x	SEGMENT
__CT??_R0?AVbad_alloc@std@@@8??0bad_alloc@std@@QAE@ABV01@@Z12 DD 010H
	DD	FLAT:??_R0?AVbad_alloc@std@@@8
	DD	00H
	DD	0ffffffffH
	ORG $+4
	DD	0cH
	DD	FLAT:??0bad_alloc@std@@QAE@ABV01@@Z
xdata$x	ENDS
;	COMDAT ??_R0?AVbad_alloc@std@@@8
data$r	SEGMENT
??_R0?AVbad_alloc@std@@@8 DD FLAT:??_7type_info@@6B@	; std::bad_alloc `RTTI Type Descriptor'
	DD	00H
	DB	'.?AVbad_alloc@std@@', 00H
data$r	ENDS
;	COMDAT __CT??_R0?AVbad_array_new_length@std@@@8??0bad_array_new_length@std@@QAE@ABV01@@Z12
xdata$x	SEGMENT
__CT??_R0?AVbad_array_new_length@std@@@8??0bad_array_new_length@std@@QAE@ABV01@@Z12 DD 00H
	DD	FLAT:??_R0?AVbad_array_new_length@std@@@8
	DD	00H
	DD	0ffffffffH
	ORG $+4
	DD	0cH
	DD	FLAT:??0bad_array_new_length@std@@QAE@ABV01@@Z
xdata$x	ENDS
;	COMDAT ??_R0?AVbad_array_new_length@std@@@8
data$r	SEGMENT
??_R0?AVbad_array_new_length@std@@@8 DD FLAT:??_7type_info@@6B@ ; std::bad_array_new_length `RTTI Type Descriptor'
	DD	00H
	DB	'.?AVbad_array_new_length@std@@', 00H
data$r	ENDS
;	COMDAT __CTA3?AVbad_array_new_length@std@@
xdata$x	SEGMENT
__CTA3?AVbad_array_new_length@std@@ DD 03H
	DD	FLAT:__CT??_R0?AVbad_array_new_length@std@@@8??0bad_array_new_length@std@@QAE@ABV01@@Z12
	DD	FLAT:__CT??_R0?AVbad_alloc@std@@@8??0bad_alloc@std@@QAE@ABV01@@Z12
	DD	FLAT:__CT??_R0?AVexception@std@@@8??0exception@std@@QAE@ABV01@@Z12
xdata$x	ENDS
;	COMDAT __TI3?AVbad_array_new_length@std@@
xdata$x	SEGMENT
__TI3?AVbad_array_new_length@std@@ DD 00H
	DD	FLAT:??1bad_array_new_length@std@@UAE@XZ
	DD	00H
	DD	FLAT:__CTA3?AVbad_array_new_length@std@@
xdata$x	ENDS
;	COMDAT __CT??_R0?AVexception@std@@@8??0exception@std@@QAE@ABV01@@Z12
xdata$x	SEGMENT
__CT??_R0?AVexception@std@@@8??0exception@std@@QAE@ABV01@@Z12 DD 00H
	DD	FLAT:??_R0?AVexception@std@@@8
	DD	00H
	DD	0ffffffffH
	ORG $+4
	DD	0cH
	DD	FLAT:??0exception@std@@QAE@ABV01@@Z
xdata$x	ENDS
;	COMDAT ??_R0?AVexception@std@@@8
data$r	SEGMENT
??_R0?AVexception@std@@@8 DD FLAT:??_7type_info@@6B@	; std::exception `RTTI Type Descriptor'
	DD	00H
	DB	'.?AVexception@std@@', 00H
data$r	ENDS
;	COMDAT ??_C@_0BF@KINCDENJ@bad?5array?5new?5length@
CONST	SEGMENT
??_C@_0BF@KINCDENJ@bad?5array?5new?5length@ DB 'bad array new length', 00H ; `string'
CONST	ENDS
;	COMDAT ??_7bad_array_new_length@std@@6B@
CONST	SEGMENT
??_7bad_array_new_length@std@@6B@ DD FLAT:??_R4bad_array_new_length@std@@6B@ ; std::bad_array_new_length::`vftable'
	DD	FLAT:??_Ebad_array_new_length@std@@UAEPAXI@Z
	DD	FLAT:?what@exception@std@@UBEPBDXZ
CONST	ENDS
;	COMDAT ??_7bad_alloc@std@@6B@
CONST	SEGMENT
??_7bad_alloc@std@@6B@ DD FLAT:??_R4bad_alloc@std@@6B@	; std::bad_alloc::`vftable'
	DD	FLAT:??_Ebad_alloc@std@@UAEPAXI@Z
	DD	FLAT:?what@exception@std@@UBEPBDXZ
CONST	ENDS
;	COMDAT ??_C@_0BC@EOODALEL@Unknown?5exception@
CONST	SEGMENT
??_C@_0BC@EOODALEL@Unknown?5exception@ DB 'Unknown exception', 00H ; `string'
CONST	ENDS
;	COMDAT ??_7exception@std@@6B@
CONST	SEGMENT
??_7exception@std@@6B@ DD FLAT:??_R4exception@std@@6B@	; std::exception::`vftable'
	DD	FLAT:??_Eexception@std@@UAEPAXI@Z
	DD	FLAT:?what@exception@std@@UBEPBDXZ
CONST	ENDS
;	COMDAT xdata$x
xdata$x	SEGMENT
__unwindtable$??$?0U?$pair@$$CBKPAVCClientSockE@@@std@@@?$_Tree_temp_node@V?$allocator@U?$_Tree_node@U?$pair@$$CBKPAVCClientSockE@@@std@@PAX@std@@@std@@@std@@QAE@AAV?$allocator@U?$_Tree_node@U?$pair@$$CBKPAVCClientSockE@@@std@@PAX@std@@@1@PAU?$_Tree_node@U?$pair@$$CBKPAVCClientSockE@@@std@@PAX@1@$$QAU?$pair@$$CBKPAVCClientSockE@@@1@@Z DD 0ffffffffH
	DD	FLAT:__unwindfunclet$??$?0U?$pair@$$CBKPAVCClientSockE@@@std@@@?$_Tree_temp_node@V?$allocator@U?$_Tree_node@U?$pair@$$CBKPAVCClientSockE@@@std@@PAX@std@@@std@@@std@@QAE@AAV?$allocator@U?$_Tree_node@U?$pair@$$CBKPAVCClientSockE@@@std@@PAX@std@@@1@PAU?$_Tree_node@U?$pair@$$CBKPAVCClientSockE@@@std@@PAX@1@$$QAU?$pair@$$CBKPAVCClientSockE@@@1@@Z$1
__ehfuncinfo$??$?0U?$pair@$$CBKPAVCClientSockE@@@std@@@?$_Tree_temp_node@V?$allocator@U?$_Tree_node@U?$pair@$$CBKPAVCClientSockE@@@std@@PAX@std@@@std@@@std@@QAE@AAV?$allocator@U?$_Tree_node@U?$pair@$$CBKPAVCClientSockE@@@std@@PAX@std@@@1@PAU?$_Tree_node@U?$pair@$$CBKPAVCClientSockE@@@std@@PAX@1@$$QAU?$pair@$$CBKPAVCClientSockE@@@1@@Z DD 019930522H
	DD	01H
	DD	FLAT:__unwindtable$??$?0U?$pair@$$CBKPAVCClientSockE@@@std@@@?$_Tree_temp_node@V?$allocator@U?$_Tree_node@U?$pair@$$CBKPAVCClientSockE@@@std@@PAX@std@@@std@@@std@@QAE@AAV?$allocator@U?$_Tree_node@U?$pair@$$CBKPAVCClientSockE@@@std@@PAX@std@@@1@PAU?$_Tree_node@U?$pair@$$CBKPAVCClientSockE@@@std@@PAX@1@$$QAU?$pair@$$CBKPAVCClientSockE@@@1@@Z
	DD	2 DUP(00H)
	DD	2 DUP(00H)
	DD	00H
	DD	01H
xdata$x	ENDS
;	COMDAT xdata$x
xdata$x	SEGMENT
__unwindtable$??0?$_Tree_temp_node_alloc@V?$allocator@U?$_Tree_node@U?$pair@$$CBKPAVCClientSockE@@@std@@PAX@std@@@std@@@std@@QAE@AAV?$allocator@U?$_Tree_node@U?$pair@$$CBKPAVCClientSockE@@@std@@PAX@std@@@1@@Z DD 0ffffffffH
	DD	FLAT:__unwindfunclet$??0?$_Tree_temp_node_alloc@V?$allocator@U?$_Tree_node@U?$pair@$$CBKPAVCClientSockE@@@std@@PAX@std@@@std@@@std@@QAE@AAV?$allocator@U?$_Tree_node@U?$pair@$$CBKPAVCClientSockE@@@std@@PAX@std@@@1@@Z$0
__ehfuncinfo$??0?$_Tree_temp_node_alloc@V?$allocator@U?$_Tree_node@U?$pair@$$CBKPAVCClientSockE@@@std@@PAX@std@@@std@@@std@@QAE@AAV?$allocator@U?$_Tree_node@U?$pair@$$CBKPAVCClientSockE@@@std@@PAX@std@@@1@@Z DD 019930522H
	DD	01H
	DD	FLAT:__unwindtable$??0?$_Tree_temp_node_alloc@V?$allocator@U?$_Tree_node@U?$pair@$$CBKPAVCClientSockE@@@std@@PAX@std@@@std@@@std@@QAE@AAV?$allocator@U?$_Tree_node@U?$pair@$$CBKPAVCClientSockE@@@std@@PAX@std@@@1@@Z
	DD	2 DUP(00H)
	DD	2 DUP(00H)
	DD	00H
	DD	01H
xdata$x	ENDS
;	COMDAT xdata$x
xdata$x	SEGMENT
__unwindtable$??$_Emplace@U?$pair@$$CBKPAVCClientSockE@@@std@@@?$_Tree@V?$_Tmap_traits@KPAVCClientSockE@@U?$less@K@std@@V?$allocator@U?$pair@$$CBKPAVCClientSockE@@@std@@@3@$0A@@std@@@std@@IAE?AU?$pair@PAU?$_Tree_node@U?$pair@$$CBKPAVCClientSockE@@@std@@PAX@std@@_N@1@$$QAU?$pair@$$CBKPAVCClientSockE@@@1@@Z DD 0ffffffffH
	DD	FLAT:__unwindfunclet$??$_Emplace@U?$pair@$$CBKPAVCClientSockE@@@std@@@?$_Tree@V?$_Tmap_traits@KPAVCClientSockE@@U?$less@K@std@@V?$allocator@U?$pair@$$CBKPAVCClientSockE@@@std@@@3@$0A@@std@@@std@@IAE?AU?$pair@PAU?$_Tree_node@U?$pair@$$CBKPAVCClientSockE@@@std@@PAX@std@@_N@1@$$QAU?$pair@$$CBKPAVCClientSockE@@@1@@Z$2
__ehfuncinfo$??$_Emplace@U?$pair@$$CBKPAVCClientSockE@@@std@@@?$_Tree@V?$_Tmap_traits@KPAVCClientSockE@@U?$less@K@std@@V?$allocator@U?$pair@$$CBKPAVCClientSockE@@@std@@@3@$0A@@std@@@std@@IAE?AU?$pair@PAU?$_Tree_node@U?$pair@$$CBKPAVCClientSockE@@@std@@PAX@std@@_N@1@$$QAU?$pair@$$CBKPAVCClientSockE@@@1@@Z DD 019930522H
	DD	01H
	DD	FLAT:__unwindtable$??$_Emplace@U?$pair@$$CBKPAVCClientSockE@@@std@@@?$_Tree@V?$_Tmap_traits@KPAVCClientSockE@@U?$less@K@std@@V?$allocator@U?$pair@$$CBKPAVCClientSockE@@@std@@@3@$0A@@std@@@std@@IAE?AU?$pair@PAU?$_Tree_node@U?$pair@$$CBKPAVCClientSockE@@@std@@PAX@std@@_N@1@$$QAU?$pair@$$CBKPAVCClientSockE@@@1@@Z
	DD	2 DUP(00H)
	DD	2 DUP(00H)
	DD	00H
	DD	01H
xdata$x	ENDS
;	COMDAT xdata$x
xdata$x	SEGMENT
__unwindtable$??$insert@$0A@$0A@@?$_Tree@V?$_Tmap_traits@KPAVCClientSockE@@U?$less@K@std@@V?$allocator@U?$pair@$$CBKPAVCClientSockE@@@std@@@3@$0A@@std@@@std@@QAE?AU?$pair@V?$_Tree_iterator@V?$_Tree_val@U?$_Tree_simple_types@U?$pair@$$CBKPAVCClientSockE@@@std@@@std@@@std@@@std@@_N@1@$$QAU?$pair@$$CBKPAVCClientSockE@@@1@@Z DD 0ffffffffH
	DD	FLAT:__unwindfunclet$??$insert@$0A@$0A@@?$_Tree@V?$_Tmap_traits@KPAVCClientSockE@@U?$less@K@std@@V?$allocator@U?$pair@$$CBKPAVCClientSockE@@@std@@@3@$0A@@std@@@std@@QAE?AU?$pair@V?$_Tree_iterator@V?$_Tree_val@U?$_Tree_simple_types@U?$pair@$$CBKPAVCClientSockE@@@std@@@std@@@std@@@std@@_N@1@$$QAU?$pair@$$CBKPAVCClientSockE@@@1@@Z$2
__ehfuncinfo$??$insert@$0A@$0A@@?$_Tree@V?$_Tmap_traits@KPAVCClientSockE@@U?$less@K@std@@V?$allocator@U?$pair@$$CBKPAVCClientSockE@@@std@@@3@$0A@@std@@@std@@QAE?AU?$pair@V?$_Tree_iterator@V?$_Tree_val@U?$_Tree_simple_types@U?$pair@$$CBKPAVCClientSockE@@@std@@@std@@@std@@@std@@_N@1@$$QAU?$pair@$$CBKPAVCClientSockE@@@1@@Z DD 019930522H
	DD	01H
	DD	FLAT:__unwindtable$??$insert@$0A@$0A@@?$_Tree@V?$_Tmap_traits@KPAVCClientSockE@@U?$less@K@std@@V?$allocator@U?$pair@$$CBKPAVCClientSockE@@@std@@@3@$0A@@std@@@std@@QAE?AU?$pair@V?$_Tree_iterator@V?$_Tree_val@U?$_Tree_simple_types@U?$pair@$$CBKPAVCClientSockE@@@std@@@std@@@std@@@std@@_N@1@$$QAU?$pair@$$CBKPAVCClientSockE@@@1@@Z
	DD	2 DUP(00H)
	DD	2 DUP(00H)
	DD	00H
	DD	01H
xdata$x	ENDS
;	COMDAT xdata$x
xdata$x	SEGMENT
__unwindtable$?Send@CServerSockE@@UAEXPADKK@Z DD 0ffffffffH
	DD	FLAT:__unwindfunclet$?Send@CServerSockE@@UAEXPADKK@Z$0
	DD	0ffffffffH
	DD	FLAT:__unwindfunclet$?Send@CServerSockE@@UAEXPADKK@Z$1
__ehfuncinfo$?Send@CServerSockE@@UAEXPADKK@Z DD 019930522H
	DD	02H
	DD	FLAT:__unwindtable$?Send@CServerSockE@@UAEXPADKK@Z
	DD	2 DUP(00H)
	DD	2 DUP(00H)
	DD	00H
	DD	01H
xdata$x	ENDS
;	COMDAT xdata$x
xdata$x	SEGMENT
__unwindtable$?CloseChild@CServerSockE@@QAEHI@Z DD 0ffffffffH
	DD	FLAT:__unwindfunclet$?CloseChild@CServerSockE@@QAEHI@Z$0
__ehfuncinfo$?CloseChild@CServerSockE@@QAEHI@Z DD 019930522H
	DD	01H
	DD	FLAT:__unwindtable$?CloseChild@CServerSockE@@QAEHI@Z
	DD	2 DUP(00H)
	DD	2 DUP(00H)
	DD	00H
	DD	01H
xdata$x	ENDS
;	COMDAT xdata$x
xdata$x	SEGMENT
__unwindtable$?AddChild@CServerSockE@@QAEPAVCClientSockE@@I@Z DD 0ffffffffH
	DD	FLAT:__unwindfunclet$?AddChild@CServerSockE@@QAEPAVCClientSockE@@I@Z$0
	DD	0ffffffffH
	DD	FLAT:__unwindfunclet$?AddChild@CServerSockE@@QAEPAVCClientSockE@@I@Z$3
__ehfuncinfo$?AddChild@CServerSockE@@QAEPAVCClientSockE@@I@Z DD 019930522H
	DD	02H
	DD	FLAT:__unwindtable$?AddChild@CServerSockE@@QAEPAVCClientSockE@@I@Z
	DD	2 DUP(00H)
	DD	2 DUP(00H)
	DD	00H
	DD	01H
xdata$x	ENDS
;	COMDAT xdata$x
xdata$x	SEGMENT
__unwindtable$??0CServerSockE@@QAE@W4BUFFER_TYPE@@@Z DD 0ffffffffH
	DD	FLAT:__unwindfunclet$??0CServerSockE@@QAE@W4BUFFER_TYPE@@@Z$0
__ehfuncinfo$??0CServerSockE@@QAE@W4BUFFER_TYPE@@@Z DD 019930522H
	DD	01H
	DD	FLAT:__unwindtable$??0CServerSockE@@QAE@W4BUFFER_TYPE@@@Z
	DD	2 DUP(00H)
	DD	2 DUP(00H)
	DD	00H
	DD	01H
xdata$x	ENDS
; Function compile flags: /Ogtp
; File C:\Program Files\Microsoft Visual Studio\2022\Professional\VC\Tools\MSVC\14.44.35207\include\xmemory
;	COMDAT ??1?$_Alloc_construct_ptr@V?$allocator@U?$_Tree_node@U?$pair@$$CBKPAVCClientSockE@@@std@@PAX@std@@@std@@@std@@QAE@XZ
_TEXT	SEGMENT
??1?$_Alloc_construct_ptr@V?$allocator@U?$_Tree_node@U?$pair@$$CBKPAVCClientSockE@@@std@@PAX@std@@@std@@@std@@QAE@XZ PROC ; std::_Alloc_construct_ptr<std::allocator<std::_Tree_node<std::pair<unsigned long const ,CClientSockE *>,void *> > >::~_Alloc_construct_ptr<std::allocator<std::_Tree_node<std::pair<unsigned long const ,CClientSockE *>,void *> > >, COMDAT
; _this$ = ecx

; 1172 :         if (_Ptr) {

  00000	8b 41 04	 mov	 eax, DWORD PTR [ecx+4]
  00003	85 c0		 test	 eax, eax
  00005	74 0b		 je	 SHORT $LN10@Alloc_cons

; 289  :         ::operator delete(_Ptr, _Bytes);

  00007	6a 18		 push	 24			; 00000018H
  00009	50		 push	 eax
  0000a	e8 00 00 00 00	 call	 ??3@YAXPAXI@Z		; operator delete
  0000f	83 c4 08	 add	 esp, 8
$LN10@Alloc_cons:

; 1173 :             _Al.deallocate(_Ptr, 1);
; 1174 :         }
; 1175 :     }

  00012	c3		 ret	 0
??1?$_Alloc_construct_ptr@V?$allocator@U?$_Tree_node@U?$pair@$$CBKPAVCClientSockE@@@std@@PAX@std@@@std@@@std@@QAE@XZ ENDP ; std::_Alloc_construct_ptr<std::allocator<std::_Tree_node<std::pair<unsigned long const ,CClientSockE *>,void *> > >::~_Alloc_construct_ptr<std::allocator<std::_Tree_node<std::pair<unsigned long const ,CClientSockE *>,void *> > >
_TEXT	ENDS
; Function compile flags: /Ogtp
; File C:\Program Files\Microsoft Visual Studio\2022\Professional\VC\Tools\MSVC\14.44.35207\include\xtree
; File C:\Program Files\Microsoft Visual Studio\2022\Professional\VC\Tools\MSVC\14.44.35207\include\type_traits
; File C:\Program Files\Microsoft Visual Studio\2022\Professional\VC\Tools\MSVC\14.44.35207\include\xtree
; File C:\Program Files\Microsoft Visual Studio\2022\Professional\VC\Tools\MSVC\14.44.35207\include\type_traits
; File C:\Program Files\Microsoft Visual Studio\2022\Professional\VC\Tools\MSVC\14.44.35207\include\xtree
;	COMDAT ??$_Find_lower_bound@K@?$_Tree@V?$_Tmap_traits@KPAVCClientSockE@@U?$less@K@std@@V?$allocator@U?$pair@$$CBKPAVCClientSockE@@@std@@@3@$0A@@std@@@std@@IBE?AU?$_Tree_find_result@PAU?$_Tree_node@U?$pair@$$CBKPAVCClientSockE@@@std@@PAX@std@@@1@ABK@Z
_TEXT	SEGMENT
___$ReturnUdt$ = 8					; size = 4
__Keyval$ = 12						; size = 4
??$_Find_lower_bound@K@?$_Tree@V?$_Tmap_traits@KPAVCClientSockE@@U?$less@K@std@@V?$allocator@U?$pair@$$CBKPAVCClientSockE@@@std@@@3@$0A@@std@@@std@@IBE?AU?$_Tree_find_result@PAU?$_Tree_node@U?$pair@$$CBKPAVCClientSockE@@@std@@PAX@std@@@1@ABK@Z PROC ; std::_Tree<std::_Tmap_traits<unsigned long,CClientSockE *,std::less<unsigned long>,std::allocator<std::pair<unsigned long const ,CClientSockE *> >,0> >::_Find_lower_bound<unsigned long>, COMDAT
; _this$ = ecx

; 1628 :     _Tree_find_result<_Nodeptr> _Find_lower_bound(const _Keyty& _Keyval) const {

  00000	55		 push	 ebp
  00001	8b ec		 mov	 ebp, esp

; 1629 :         const auto _Scary = _Get_scary();
; 1630 :         _Tree_find_result<_Nodeptr> _Result{{_Scary->_Myhead->_Parent, _Tree_child::_Right}, _Scary->_Myhead};

  00003	8b 09		 mov	 ecx, DWORD PTR [ecx]
  00005	8b 55 08	 mov	 edx, DWORD PTR ___$ReturnUdt$[ebp]
  00008	8b 41 04	 mov	 eax, DWORD PTR [ecx+4]
  0000b	89 02		 mov	 DWORD PTR [edx], eax
  0000d	c7 42 04 00 00
	00 00		 mov	 DWORD PTR [edx+4], 0
  00014	89 4a 08	 mov	 DWORD PTR [edx+8], ecx

; 1631 :         _Nodeptr _Trynode = _Result._Location._Parent;
; 1632 :         while (!_Trynode->_Isnil) {

  00017	80 78 0d 00	 cmp	 BYTE PTR [eax+13], 0
  0001b	75 28		 jne	 SHORT $LN13@Find_lower
; File C:\Program Files\Microsoft Visual Studio\2022\Professional\VC\Tools\MSVC\14.44.35207\include\type_traits

; 2380 :         return _Left < _Right;

  0001d	8b 4d 0c	 mov	 ecx, DWORD PTR __Keyval$[ebp]
  00020	56		 push	 esi
  00021	8b 31		 mov	 esi, DWORD PTR [ecx]
$LL2@Find_lower:
; File C:\Program Files\Microsoft Visual Studio\2022\Professional\VC\Tools\MSVC\14.44.35207\include\xtree

; 1633 :             _Result._Location._Parent = _Trynode;

  00023	89 02		 mov	 DWORD PTR [edx], eax
; File C:\Program Files\Microsoft Visual Studio\2022\Professional\VC\Tools\MSVC\14.44.35207\include\type_traits

; 2380 :         return _Left < _Right;

  00025	39 70 10	 cmp	 DWORD PTR [eax+16], esi
; File C:\Program Files\Microsoft Visual Studio\2022\Professional\VC\Tools\MSVC\14.44.35207\include\xtree

; 1634 :             if (_DEBUG_LT_PRED(_Getcomp(), _Traits::_Kfn(_Trynode->_Myval), _Keyval)) {

  00028	73 07		 jae	 SHORT $LN4@Find_lower

; 1635 :                 _Result._Location._Child = _Tree_child::_Right;
; 1636 :                 _Trynode                 = _Trynode->_Right;

  0002a	8b 40 08	 mov	 eax, DWORD PTR [eax+8]
  0002d	33 c9		 xor	 ecx, ecx

; 1637 :             } else {

  0002f	eb 0a		 jmp	 SHORT $LN5@Find_lower
$LN4@Find_lower:

; 1638 :                 _Result._Location._Child = _Tree_child::_Left;
; 1639 :                 _Result._Bound           = _Trynode;

  00031	89 42 08	 mov	 DWORD PTR [edx+8], eax

; 1640 :                 _Trynode                 = _Trynode->_Left;

  00034	b9 01 00 00 00	 mov	 ecx, 1
  00039	8b 00		 mov	 eax, DWORD PTR [eax]
$LN5@Find_lower:

; 1631 :         _Nodeptr _Trynode = _Result._Location._Parent;
; 1632 :         while (!_Trynode->_Isnil) {

  0003b	89 4a 04	 mov	 DWORD PTR [edx+4], ecx
  0003e	80 78 0d 00	 cmp	 BYTE PTR [eax+13], 0
  00042	74 df		 je	 SHORT $LL2@Find_lower
  00044	5e		 pop	 esi
$LN13@Find_lower:

; 1641 :             }
; 1642 :         }
; 1643 : 
; 1644 :         return _Result;
; 1645 :     }

  00045	8b c2		 mov	 eax, edx
  00047	5d		 pop	 ebp
  00048	c2 08 00	 ret	 8
??$_Find_lower_bound@K@?$_Tree@V?$_Tmap_traits@KPAVCClientSockE@@U?$less@K@std@@V?$allocator@U?$pair@$$CBKPAVCClientSockE@@@std@@@3@$0A@@std@@@std@@IBE?AU?$_Tree_find_result@PAU?$_Tree_node@U?$pair@$$CBKPAVCClientSockE@@@std@@PAX@std@@@1@ABK@Z ENDP ; std::_Tree<std::_Tmap_traits<unsigned long,CClientSockE *,std::less<unsigned long>,std::allocator<std::pair<unsigned long const ,CClientSockE *> >,0> >::_Find_lower_bound<unsigned long>
_TEXT	ENDS
; Function compile flags: /Ogtp
; File C:\Program Files\Microsoft Visual Studio\2022\Professional\VC\Tools\MSVC\14.44.35207\include\xtree
; File C:\Program Files\Microsoft Visual Studio\2022\Professional\VC\Tools\MSVC\14.44.35207\include\utility
; File C:\Program Files\Microsoft Visual Studio\2022\Professional\VC\Tools\MSVC\14.44.35207\include\xmemory
; File C:\Program Files\Microsoft Visual Studio\2022\Professional\VC\Tools\MSVC\14.44.35207\include\xtree
;	COMDAT ??$_Erase_tree@V?$allocator@U?$_Tree_node@U?$pair@$$CBKPAVCClientSockE@@@std@@PAX@std@@@std@@@?$_Tree_val@U?$_Tree_simple_types@U?$pair@$$CBKPAVCClientSockE@@@std@@@std@@@std@@QAEXAAV?$allocator@U?$_Tree_node@U?$pair@$$CBKPAVCClientSockE@@@std@@PAX@std@@@1@PAU?$_Tree_node@U?$pair@$$CBKPAVCClientSockE@@@std@@PAX@1@@Z
_TEXT	SEGMENT
__Al$ = 8						; size = 4
__Rootnode$ = 12					; size = 4
??$_Erase_tree@V?$allocator@U?$_Tree_node@U?$pair@$$CBKPAVCClientSockE@@@std@@PAX@std@@@std@@@?$_Tree_val@U?$_Tree_simple_types@U?$pair@$$CBKPAVCClientSockE@@@std@@@std@@@std@@QAEXAAV?$allocator@U?$_Tree_node@U?$pair@$$CBKPAVCClientSockE@@@std@@PAX@std@@@1@PAU?$_Tree_node@U?$pair@$$CBKPAVCClientSockE@@@std@@PAX@1@@Z PROC ; std::_Tree_val<std::_Tree_simple_types<std::pair<unsigned long const ,CClientSockE *> > >::_Erase_tree<std::allocator<std::_Tree_node<std::pair<unsigned long const ,CClientSockE *>,void *> > >, COMDAT
; _this$ = ecx

; 767  :     void _Erase_tree(_Alnode& _Al, _Nodeptr _Rootnode) noexcept {

  00000	55		 push	 ebp
  00001	8b ec		 mov	 ebp, esp
  00003	53		 push	 ebx
  00004	56		 push	 esi

; 768  :         while (!_Rootnode->_Isnil) { // free subtrees, then node

  00005	8b 75 0c	 mov	 esi, DWORD PTR __Rootnode$[ebp]
  00008	8b d9		 mov	 ebx, ecx
  0000a	80 7e 0d 00	 cmp	 BYTE PTR [esi+13], 0
  0000e	75 25		 jne	 SHORT $LN34@Erase_tree
  00010	57		 push	 edi
  00011	8b 7d 08	 mov	 edi, DWORD PTR __Al$[ebp]
$LL2@Erase_tree:

; 769  :             _Erase_tree(_Al, _Rootnode->_Right);

  00014	ff 76 08	 push	 DWORD PTR [esi+8]
  00017	8b cb		 mov	 ecx, ebx
  00019	57		 push	 edi
  0001a	e8 00 00 00 00	 call	 ??$_Erase_tree@V?$allocator@U?$_Tree_node@U?$pair@$$CBKPAVCClientSockE@@@std@@PAX@std@@@std@@@?$_Tree_val@U?$_Tree_simple_types@U?$pair@$$CBKPAVCClientSockE@@@std@@@std@@@std@@QAEXAAV?$allocator@U?$_Tree_node@U?$pair@$$CBKPAVCClientSockE@@@std@@PAX@std@@@1@PAU?$_Tree_node@U?$pair@$$CBKPAVCClientSockE@@@std@@PAX@1@@Z ; std::_Tree_val<std::_Tree_simple_types<std::pair<unsigned long const ,CClientSockE *> > >::_Erase_tree<std::allocator<std::_Tree_node<std::pair<unsigned long const ,CClientSockE *>,void *> > >
; File C:\Program Files\Microsoft Visual Studio\2022\Professional\VC\Tools\MSVC\14.44.35207\include\utility

; 773  :     _Ty _Old_val = static_cast<_Ty&&>(_Val);

  0001f	8b c6		 mov	 eax, esi

; 774  :     _Val         = static_cast<_Other&&>(_New_val);

  00021	8b 36		 mov	 esi, DWORD PTR [esi]
; File C:\Program Files\Microsoft Visual Studio\2022\Professional\VC\Tools\MSVC\14.44.35207\include\xmemory

; 289  :         ::operator delete(_Ptr, _Bytes);

  00023	6a 18		 push	 24			; 00000018H
  00025	50		 push	 eax
  00026	e8 00 00 00 00	 call	 ??3@YAXPAXI@Z		; operator delete
  0002b	83 c4 08	 add	 esp, 8
; File C:\Program Files\Microsoft Visual Studio\2022\Professional\VC\Tools\MSVC\14.44.35207\include\xtree

; 768  :         while (!_Rootnode->_Isnil) { // free subtrees, then node

  0002e	80 7e 0d 00	 cmp	 BYTE PTR [esi+13], 0
  00032	74 e0		 je	 SHORT $LL2@Erase_tree
  00034	5f		 pop	 edi
$LN34@Erase_tree:
  00035	5e		 pop	 esi

; 770  :             _Alnode::value_type::_Freenode(_Al, _STD exchange(_Rootnode, _Rootnode->_Left));
; 771  :         }
; 772  :     }

  00036	5b		 pop	 ebx
  00037	5d		 pop	 ebp
  00038	c2 08 00	 ret	 8
??$_Erase_tree@V?$allocator@U?$_Tree_node@U?$pair@$$CBKPAVCClientSockE@@@std@@PAX@std@@@std@@@?$_Tree_val@U?$_Tree_simple_types@U?$pair@$$CBKPAVCClientSockE@@@std@@@std@@@std@@QAEXAAV?$allocator@U?$_Tree_node@U?$pair@$$CBKPAVCClientSockE@@@std@@PAX@std@@@1@PAU?$_Tree_node@U?$pair@$$CBKPAVCClientSockE@@@std@@PAX@1@@Z ENDP ; std::_Tree_val<std::_Tree_simple_types<std::pair<unsigned long const ,CClientSockE *> > >::_Erase_tree<std::allocator<std::_Tree_node<std::pair<unsigned long const ,CClientSockE *>,void *> > >
_TEXT	ENDS
; Function compile flags: /Ogtp
; File C:\IAGOS\server\v18\Source\Source\_network\net\src\serversocke.cpp
;	COMDAT ?ListenThreadE@@YGIPAX@Z
_TEXT	SEGMENT
_nSize$1 = -84						; size = 4
_zero$2 = -80						; size = 4
_ne$ = -76						; size = 44
_addr$3 = -32						; size = 16
_handle$ = -16						; size = 12
__$ArrayPad$ = -4					; size = 4
_lpvThreadParameter$ = 8				; size = 4
?ListenThreadE@@YGIPAX@Z PROC				; ListenThreadE, COMDAT

; 229  : {

  00000	55		 push	 ebp
  00001	8b ec		 mov	 ebp, esp
  00003	83 ec 54	 sub	 esp, 84			; 00000054H
  00006	a1 00 00 00 00	 mov	 eax, DWORD PTR ___security_cookie
  0000b	33 c5		 xor	 eax, ebp
  0000d	89 45 fc	 mov	 DWORD PTR __$ArrayPad$[ebp], eax
  00010	53		 push	 ebx
  00011	56		 push	 esi
  00012	57		 push	 edi
  00013	8b 7d 08	 mov	 edi, DWORD PTR _lpvThreadParameter$[ebp]

; 230  : 	CServerSockE* pSock	= (CServerSockE*) lpvThreadParameter;
; 231  : 	HANDLE handle[3];
; 232  : 	DWORD dw;
; 233  : 	WSANETWORKEVENTS ne;
; 234  : 	
; 235  : 	handle[0]	= pSock->GetCloseHandle();
; 236  : 	handle[1]	= pSock->GetListenHandle();
; 237  : 	handle[2]	= NULL;

  00016	c7 45 f8 00 00
	00 00		 mov	 DWORD PTR _handle$[ebp+8], 0
  0001d	8b 47 14	 mov	 eax, DWORD PTR [edi+20]
  00020	89 45 f0	 mov	 DWORD PTR _handle$[ebp], eax
  00023	8b 47 18	 mov	 eax, DWORD PTR [edi+24]
  00026	89 45 f4	 mov	 DWORD PTR _handle$[ebp+4], eax
  00029	0f 1f 80 00 00
	00 00		 npad	 7
$LL2@ListenThre:

; 238  : 	while( 1 )
; 239  : 	{
; 240  : 		dw	= WaitForMultipleObjects( 2, handle, FALSE, INFINITE );

  00030	6a ff		 push	 -1
  00032	6a 00		 push	 0
  00034	8d 45 f0	 lea	 eax, DWORD PTR _handle$[ebp]
  00037	50		 push	 eax
  00038	6a 02		 push	 2
  0003a	ff 15 00 00 00
	00		 call	 DWORD PTR __imp__WaitForMultipleObjects@16

; 241  : 		switch( dw )

  00040	83 e8 00	 sub	 eax, 0
  00043	0f 84 b0 00 00
	00		 je	 $LN16@ListenThre
  00049	83 e8 01	 sub	 eax, 1
  0004c	75 e2		 jne	 SHORT $LL2@ListenThre

; 242  : 		{
; 243  : 			case ( WAIT_OBJECT_0 ):
; 244  : 				return( 0 );
; 245  : 			case ( WAIT_OBJECT_0+1 ) :
; 246  : 				{
; 247  : 					int nSize;
; 248  : 					SOCKADDR addr;
; 249  : 					SOCKET hSocket;
; 250  : 					
; 251  : 					nSize	= sizeof(SOCKADDR);
; 252  : 					WSAEnumNetworkEvents( pSock->GetHandle(), pSock->GetListenHandle(), &ne );

  0004e	8d 45 b4	 lea	 eax, DWORD PTR _ne$[ebp]
  00051	c7 45 ac 10 00
	00 00		 mov	 DWORD PTR _nSize$1[ebp], 16 ; 00000010H
  00058	50		 push	 eax
  00059	ff 77 18	 push	 DWORD PTR [edi+24]
  0005c	ff 77 04	 push	 DWORD PTR [edi+4]
  0005f	ff 15 00 00 00
	00		 call	 DWORD PTR __imp__WSAEnumNetworkEvents@12

; 253  : 					if( ne.lNetworkEvents != FD_ACCEPT )

  00065	83 7d b4 08	 cmp	 DWORD PTR _ne$[ebp], 8
  00069	75 c5		 jne	 SHORT $LL2@ListenThre

; 254  : 						break;
; 255  : 
; 256  : 					if( ( hSocket	= WSAAccept( pSock->GetHandle(), &addr, &nSize, NULL, 0 ) ) == INVALID_SOCKET )

  0006b	6a 00		 push	 0
  0006d	6a 00		 push	 0
  0006f	8d 45 ac	 lea	 eax, DWORD PTR _nSize$1[ebp]
  00072	50		 push	 eax
  00073	8d 45 e0	 lea	 eax, DWORD PTR _addr$3[ebp]
  00076	50		 push	 eax
  00077	ff 77 04	 push	 DWORD PTR [edi+4]
  0007a	ff 15 00 00 00
	00		 call	 DWORD PTR __imp__WSAAccept@20
  00080	8b d8		 mov	 ebx, eax
  00082	83 fb ff	 cmp	 ebx, -1
  00085	74 a9		 je	 SHORT $LL2@ListenThre

; 257  : 					{
; 258  : 						TRACE( "Accept failed with error %d\n", WSAGetLastError() );
; 259  : 						break;
; 260  : 					}
; 261  : 					CClientSockE* pChild	= pSock->AddChild( hSocket );

  00087	53		 push	 ebx
  00088	8b cf		 mov	 ecx, edi
  0008a	e8 00 00 00 00	 call	 ?AddChild@CServerSockE@@QAEPAVCClientSockE@@I@Z ; CServerSockE::AddChild
  0008f	8b f0		 mov	 esi, eax

; 262  : 					pChild->SetID( DPID_SERVERPLAYER );
; 263  : 					pChild->SetPeerID( hSocket );
; 264  : 
; 265  : 					ASSERT( pSock->m_pDPSock );
; 266  : 					pSock->m_pDPSock->CreateEventWorker( pChild );

  00091	56		 push	 esi
  00092	c7 46 08 01 00
	00 00		 mov	 DWORD PTR [esi+8], 1
  00099	89 5e 0c	 mov	 DWORD PTR [esi+12], ebx
  0009c	8b 4f 44	 mov	 ecx, DWORD PTR [edi+68]
  0009f	e8 00 00 00 00	 call	 ?CreateEventWorker@CDPSock@@QAEHPAVCSock@@@Z ; CDPSock::CreateEventWorker

; 267  : 
; 268  : 					int zero	= 0;
; 269  : 					setsockopt( hSocket, SOL_SOCKET, SO_SNDBUF, (char*)&zero, sizeof(zero) );

  000a4	6a 04		 push	 4
  000a6	8d 45 b0	 lea	 eax, DWORD PTR _zero$2[ebp]
  000a9	c7 45 b0 00 00
	00 00		 mov	 DWORD PTR _zero$2[ebp], 0
  000b0	50		 push	 eax
  000b1	68 01 10 00 00	 push	 4097			; 00001001H
  000b6	68 ff ff 00 00	 push	 65535			; 0000ffffH
  000bb	53		 push	 ebx
  000bc	ff 15 00 00 00
	00		 call	 DWORD PTR __imp__setsockopt@20

; 270  : 					setsockopt( hSocket, SOL_SOCKET, SO_RCVBUF, (char*)&zero, sizeof(zero) );

  000c2	6a 04		 push	 4
  000c4	8d 45 b0	 lea	 eax, DWORD PTR _zero$2[ebp]
  000c7	50		 push	 eax
  000c8	68 02 10 00 00	 push	 4098			; 00001002H
  000cd	68 ff ff 00 00	 push	 65535			; 0000ffffH
  000d2	53		 push	 ebx
  000d3	ff 15 00 00 00
	00		 call	 DWORD PTR __imp__setsockopt@20

; 271  : 					InterlockedIncrement( &pChild->m_l );

  000d9	f0 ff 46 48	 lock	  inc	 DWORD PTR [esi+72]

; 272  : 
; 273  : #ifdef __PROTOCOL0910
; 274  : 					if( pSock->m_dwcrc & CSock::crcRead )
; 275  : 						pChild->SendProtocolId();
; 276  : #endif	// __PROTOCOL0910
; 277  : 
; 278  : 					if( pChild->Recv() != 0 )

  000dd	8b ce		 mov	 ecx, esi
  000df	e8 00 00 00 00	 call	 ?Recv@CClientSockE@@QAEHXZ ; CClientSockE::Recv
  000e4	85 c0		 test	 eax, eax
  000e6	0f 84 44 ff ff
	ff		 je	 $LL2@ListenThre

; 279  : 					{
; 280  : 						TRACE( "I/0 error %d\n", WSAGetLastError() );
; 281  : 						pSock->CloseChild( hSocket );

  000ec	53		 push	 ebx
  000ed	8b cf		 mov	 ecx, edi
  000ef	e8 00 00 00 00	 call	 ?CloseChild@CServerSockE@@QAEHI@Z ; CServerSockE::CloseChild

; 282  : 					}
; 283  : 					break;
; 284  : 				}
; 285  : 			case WAIT_TIMEOUT :
; 286  : 				break;
; 287  : 		}
; 288  : 	}

  000f4	e9 37 ff ff ff	 jmp	 $LL2@ListenThre
$LN16@ListenThre:

; 289  : 	return( 0 );
; 290  : }

  000f9	8b 4d fc	 mov	 ecx, DWORD PTR __$ArrayPad$[ebp]
  000fc	33 c0		 xor	 eax, eax
  000fe	5f		 pop	 edi
  000ff	5e		 pop	 esi
  00100	33 cd		 xor	 ecx, ebp
  00102	5b		 pop	 ebx
  00103	e8 00 00 00 00	 call	 @__security_check_cookie@4
  00108	8b e5		 mov	 esp, ebp
  0010a	5d		 pop	 ebp
  0010b	c2 04 00	 ret	 4
?ListenThreadE@@YGIPAX@Z ENDP				; ListenThreadE
_TEXT	ENDS
; Function compile flags: /Ogtp
; File C:\Program Files\Microsoft Visual Studio\2022\Professional\VC\Tools\MSVC\14.44.35207\include\xtree
;	COMDAT ??E?$_Tree_unchecked_const_iterator@V?$_Tree_val@U?$_Tree_simple_types@U?$pair@$$CBKPAVCClientSockE@@@std@@@std@@@std@@U_Iterator_base0@2@@std@@QAEAAV01@XZ
_TEXT	SEGMENT
??E?$_Tree_unchecked_const_iterator@V?$_Tree_val@U?$_Tree_simple_types@U?$pair@$$CBKPAVCClientSockE@@@std@@@std@@@std@@U_Iterator_base0@2@@std@@QAEAAV01@XZ PROC ; std::_Tree_unchecked_const_iterator<std::_Tree_val<std::_Tree_simple_types<std::pair<unsigned long const ,CClientSockE *> > >,std::_Iterator_base0>::operator++, COMDAT
; _this$ = ecx

; 49   :     _Tree_unchecked_const_iterator& operator++() noexcept {

  00000	56		 push	 esi
  00001	8b f1		 mov	 esi, ecx
  00003	57		 push	 edi

; 50   :         if (_Ptr->_Right->_Isnil) { // climb looking for right subtree

  00004	8b 16		 mov	 edx, DWORD PTR [esi]
  00006	8b 7a 08	 mov	 edi, DWORD PTR [edx+8]
  00009	80 7f 0d 00	 cmp	 BYTE PTR [edi+13], 0
  0000d	74 22		 je	 SHORT $LN4@operator

; 51   :             _Nodeptr _Pnode;
; 52   :             while (!(_Pnode = _Ptr->_Parent)->_Isnil && _Ptr == _Pnode->_Right) {

  0000f	8b 42 04	 mov	 eax, DWORD PTR [edx+4]
  00012	80 78 0d 00	 cmp	 BYTE PTR [eax+13], 0
  00016	75 12		 jne	 SHORT $LN21@operator
$LL2@operator:
  00018	3b 50 08	 cmp	 edx, DWORD PTR [eax+8]
  0001b	75 0d		 jne	 SHORT $LN21@operator

; 53   :                 _Ptr = _Pnode; // ==> parent while right subtree

  0001d	89 06		 mov	 DWORD PTR [esi], eax
  0001f	8b d0		 mov	 edx, eax
  00021	8b 40 04	 mov	 eax, DWORD PTR [eax+4]
  00024	80 78 0d 00	 cmp	 BYTE PTR [eax+13], 0
  00028	74 ee		 je	 SHORT $LL2@operator
$LN21@operator:

; 54   :             }
; 55   : 
; 56   :             _Ptr = _Pnode; // ==> parent (head if end())
; 57   :         } else {
; 58   :             _Ptr = _Mytree::_Min(_Ptr->_Right); // ==> smallest of right subtree
; 59   :         }
; 60   : 
; 61   :         return *this;

  0002a	89 06		 mov	 DWORD PTR [esi], eax

; 62   :     }

  0002c	8b c6		 mov	 eax, esi
  0002e	5f		 pop	 edi
  0002f	5e		 pop	 esi
  00030	c3		 ret	 0
$LN4@operator:

; 476  :         while (!_Pnode->_Left->_Isnil) {

  00031	8b 0f		 mov	 ecx, DWORD PTR [edi]
  00033	80 79 0d 00	 cmp	 BYTE PTR [ecx+13], 0
  00037	75 13		 jne	 SHORT $LN10@operator
  00039	0f 1f 80 00 00
	00 00		 npad	 7
$LL9@operator:
  00040	8b 01		 mov	 eax, DWORD PTR [ecx]

; 477  :             _Pnode = _Pnode->_Left;

  00042	8b f9		 mov	 edi, ecx
  00044	8b c8		 mov	 ecx, eax
  00046	80 78 0d 00	 cmp	 BYTE PTR [eax+13], 0
  0004a	74 f4		 je	 SHORT $LL9@operator
$LN10@operator:

; 54   :             }
; 55   : 
; 56   :             _Ptr = _Pnode; // ==> parent (head if end())
; 57   :         } else {
; 58   :             _Ptr = _Mytree::_Min(_Ptr->_Right); // ==> smallest of right subtree
; 59   :         }
; 60   : 
; 61   :         return *this;

  0004c	89 3e		 mov	 DWORD PTR [esi], edi

; 62   :     }

  0004e	8b c6		 mov	 eax, esi
  00050	5f		 pop	 edi
  00051	5e		 pop	 esi
  00052	c3		 ret	 0
??E?$_Tree_unchecked_const_iterator@V?$_Tree_val@U?$_Tree_simple_types@U?$pair@$$CBKPAVCClientSockE@@@std@@@std@@@std@@U_Iterator_base0@2@@std@@QAEAAV01@XZ ENDP ; std::_Tree_unchecked_const_iterator<std::_Tree_val<std::_Tree_simple_types<std::pair<unsigned long const ,CClientSockE *> > >,std::_Iterator_base0>::operator++
_TEXT	ENDS
; Function compile flags: /Ogtp
;	COMDAT ??_GCServerSockE@@UAEPAXI@Z
_TEXT	SEGMENT
___flags$ = 8						; size = 4
??_GCServerSockE@@UAEPAXI@Z PROC			; CServerSockE::`scalar deleting destructor', COMDAT
; _this$ = ecx
  00000	55		 push	 ebp
  00001	8b ec		 mov	 ebp, esp
  00003	56		 push	 esi
  00004	8b f1		 mov	 esi, ecx
  00006	e8 00 00 00 00	 call	 ??1CServerSockE@@UAE@XZ	; CServerSockE::~CServerSockE
  0000b	f6 45 08 01	 test	 BYTE PTR ___flags$[ebp], 1
  0000f	74 0b		 je	 SHORT $LN5@scalar
  00011	6a 4c		 push	 76			; 0000004cH
  00013	56		 push	 esi
  00014	e8 00 00 00 00	 call	 ??3@YAXPAXI@Z		; operator delete
  00019	83 c4 08	 add	 esp, 8
$LN5@scalar:
  0001c	8b c6		 mov	 eax, esi
  0001e	5e		 pop	 esi
  0001f	5d		 pop	 ebp
  00020	c2 04 00	 ret	 4
??_GCServerSockE@@UAEPAXI@Z ENDP			; CServerSockE::`scalar deleting destructor'
_TEXT	ENDS
; Function compile flags: /Ogtp
; File C:\IAGOS\server\v18\Source\Source\_Network\Net\Include\serversocke.h
; File C:\Program Files\Microsoft Visual Studio\2022\Professional\VC\Tools\MSVC\14.44.35207\include\xtree
; File C:\IAGOS\server\v18\Source\Source\_Network\Net\Include\serversocke.h
; File C:\Program Files\Microsoft Visual Studio\2022\Professional\VC\Tools\MSVC\14.44.35207\include\xtree
; File C:\IAGOS\server\v18\Source\Source\_Network\Net\Include\serversocke.h
; File C:\Program Files\Microsoft Visual Studio\2022\Professional\VC\Tools\MSVC\14.44.35207\include\xtree
; File C:\Program Files\Microsoft Visual Studio\2022\Professional\VC\Tools\MSVC\14.44.35207\include\type_traits
; File C:\Program Files\Microsoft Visual Studio\2022\Professional\VC\Tools\MSVC\14.44.35207\include\xtree
; File C:\IAGOS\server\v18\Source\Source\_Network\Net\Include\serversocke.h
;	COMDAT ?Get@CServerSockE@@UAEPAVCSock@@I@Z
_TEXT	SEGMENT
__Loc$1 = -12						; size = 12
_hSocket$ = 8						; size = 4
$T2 = 8							; size = 4
?Get@CServerSockE@@UAEPAVCSock@@I@Z PROC		; CServerSockE::Get, COMDAT
; _this$ = ecx

; 69   : {

  00000	55		 push	 ebp
  00001	8b ec		 mov	 ebp, esp
  00003	83 ec 0c	 sub	 esp, 12			; 0000000cH
  00006	56		 push	 esi

; 71   : 	CMapChildE::iterator i	= m_mapChild.find( hSocket );

  00007	8b 75 08	 mov	 esi, DWORD PTR _hSocket$[ebp]
; File C:\Program Files\Microsoft Visual Studio\2022\Professional\VC\Tools\MSVC\14.44.35207\include\xtree

; 1384 :         const _Tree_find_result<_Nodeptr> _Loc = _Find_lower_bound(_Keyval);

  0000a	8d 45 08	 lea	 eax, DWORD PTR $T2[ebp]
; File C:\IAGOS\server\v18\Source\Source\_Network\Net\Include\serversocke.h

; 69   : {

  0000d	57		 push	 edi
; File C:\Program Files\Microsoft Visual Studio\2022\Professional\VC\Tools\MSVC\14.44.35207\include\xtree

; 1384 :         const _Tree_find_result<_Nodeptr> _Loc = _Find_lower_bound(_Keyval);

  0000e	50		 push	 eax
; File C:\IAGOS\server\v18\Source\Source\_Network\Net\Include\serversocke.h

; 71   : 	CMapChildE::iterator i	= m_mapChild.find( hSocket );

  0000f	8d 79 20	 lea	 edi, DWORD PTR [ecx+32]
  00012	89 75 08	 mov	 DWORD PTR $T2[ebp], esi
; File C:\Program Files\Microsoft Visual Studio\2022\Professional\VC\Tools\MSVC\14.44.35207\include\xtree

; 1384 :         const _Tree_find_result<_Nodeptr> _Loc = _Find_lower_bound(_Keyval);

  00015	8d 45 f4	 lea	 eax, DWORD PTR __Loc$1[ebp]
  00018	8b cf		 mov	 ecx, edi
  0001a	50		 push	 eax
  0001b	e8 00 00 00 00	 call	 ??$_Find_lower_bound@K@?$_Tree@V?$_Tmap_traits@KPAVCClientSockE@@U?$less@K@std@@V?$allocator@U?$pair@$$CBKPAVCClientSockE@@@std@@@3@$0A@@std@@@std@@IBE?AU?$_Tree_find_result@PAU?$_Tree_node@U?$pair@$$CBKPAVCClientSockE@@@std@@PAX@std@@@1@ABK@Z ; std::_Tree<std::_Tmap_traits<unsigned long,CClientSockE *,std::less<unsigned long>,std::allocator<std::pair<unsigned long const ,CClientSockE *> >,0> >::_Find_lower_bound<unsigned long>

; 1624 :         return !_Bound->_Isnil && !_DEBUG_LT_PRED(_Getcomp(), _Keyval, _Traits::_Kfn(_Bound->_Myval));

  00020	8b 45 fc	 mov	 eax, DWORD PTR __Loc$1[ebp+8]
  00023	80 78 0d 00	 cmp	 BYTE PTR [eax+13], 0
  00027	75 14		 jne	 SHORT $LN2@Get
; File C:\Program Files\Microsoft Visual Studio\2022\Professional\VC\Tools\MSVC\14.44.35207\include\type_traits

; 2380 :         return _Left < _Right;

  00029	3b 70 10	 cmp	 esi, DWORD PTR [eax+16]
; File C:\Program Files\Microsoft Visual Studio\2022\Professional\VC\Tools\MSVC\14.44.35207\include\xtree

; 1624 :         return !_Bound->_Isnil && !_DEBUG_LT_PRED(_Getcomp(), _Keyval, _Traits::_Kfn(_Bound->_Myval));

  0002c	72 0f		 jb	 SHORT $LN2@Get

; 37   :     _Tree_unchecked_const_iterator(_Nodeptr _Pnode, const _Mytree* _Plist) noexcept : _Ptr(_Pnode) {

  0002e	3b 07		 cmp	 eax, DWORD PTR [edi]
; File C:\IAGOS\server\v18\Source\Source\_Network\Net\Include\serversocke.h

; 72   : 	if( i != m_mapChild.end() )

  00030	74 0b		 je	 SHORT $LN2@Get

; 73   : 		return i->second;

  00032	8b 40 14	 mov	 eax, DWORD PTR [eax+20]
  00035	5f		 pop	 edi

; 75   : #else	// __STL_0402
; 76   : 	CClientSockE* pChild;
; 77   : 	if( m_mapChild.Lookup( hSocket, pChild ) )
; 78   : 		return pChild;
; 79   : 	return NULL;
; 80   : #endif	// __STL_0402
; 81   : }

  00036	5e		 pop	 esi
  00037	8b e5		 mov	 esp, ebp
  00039	5d		 pop	 ebp
  0003a	c2 04 00	 ret	 4
$LN2@Get:
  0003d	5f		 pop	 edi

; 74   : 	return NULL;

  0003e	33 c0		 xor	 eax, eax

; 75   : #else	// __STL_0402
; 76   : 	CClientSockE* pChild;
; 77   : 	if( m_mapChild.Lookup( hSocket, pChild ) )
; 78   : 		return pChild;
; 79   : 	return NULL;
; 80   : #endif	// __STL_0402
; 81   : }

  00040	5e		 pop	 esi
  00041	8b e5		 mov	 esp, ebp
  00043	5d		 pop	 ebp
  00044	c2 04 00	 ret	 4
?Get@CServerSockE@@UAEPAVCSock@@I@Z ENDP		; CServerSockE::Get
_TEXT	ENDS
; Function compile flags: /Ogtp
; File C:\IAGOS\server\v18\Source\Source\_network\net\src\serversocke.cpp
;	COMDAT ?GetPeerAddr@CServerSockE@@UAEJKPAXPAK@Z
_TEXT	SEGMENT
_namelen$ = -24						; size = 4
_sin$ = -20						; size = 16
__$ArrayPad$ = -4					; size = 4
_dpid$ = 8						; size = 4
_lpAddr$ = 12						; size = 4
_lpdwSize$ = 16						; size = 4
?GetPeerAddr@CServerSockE@@UAEJKPAXPAK@Z PROC		; CServerSockE::GetPeerAddr, COMDAT
; _this$ = ecx

; 200  : {

  00000	55		 push	 ebp
  00001	8b ec		 mov	 ebp, esp
  00003	83 ec 18	 sub	 esp, 24			; 00000018H
  00006	a1 00 00 00 00	 mov	 eax, DWORD PTR ___security_cookie
  0000b	33 c5		 xor	 eax, ebp
  0000d	89 45 fc	 mov	 DWORD PTR __$ArrayPad$[ebp], eax

; 201  : 	ASSERT( lpAddr );
; 202  : 
; 203  : 	CClientSockE* pSock;
; 204  : 	SOCKET hSocket	= (SOCKET)dpid;
; 205  : 	SOCKADDR_IN sin;
; 206  : 
; 207  : 	ZeroMemory( &sin, sizeof(SOCKADDR_IN) );
; 208  : 
; 209  : #ifdef __STL_0402
; 210  : 	pSock	= (CClientSockE*)Get( hSocket );

  00010	8b 01		 mov	 eax, DWORD PTR [ecx]
  00012	0f 57 c0	 xorps	 xmm0, xmm0
  00015	57		 push	 edi
  00016	ff 75 08	 push	 DWORD PTR _dpid$[ebp]
  00019	8b 7d 0c	 mov	 edi, DWORD PTR _lpAddr$[ebp]
  0001c	0f 11 45 ec	 movups	 XMMWORD PTR _sin$[ebp], xmm0
  00020	ff 50 2c	 call	 DWORD PTR [eax+44]

; 211  : #else	// __STL_0402
; 212  : 	m_mapChild.Lookup( hSocket, pSock );
; 213  : #endif	// __STL_0402
; 214  : 	if( !pSock )

  00023	85 c0		 test	 eax, eax
  00025	75 16		 jne	 SHORT $LN2@GetPeerAdd

; 215  : 		return DPERR_INVALIDPARAM;

  00027	b8 57 00 07 80	 mov	 eax, -2147024809	; 80070057H
  0002c	5f		 pop	 edi

; 222  : 																	, sin.sin_addr.s_host
; 223  : 																	, sin.sin_addr.s_lh
; 224  : 																	, sin.sin_addr.s_impno );
; 225  : 	return DP_OK;
; 226  : }

  0002d	8b 4d fc	 mov	 ecx, DWORD PTR __$ArrayPad$[ebp]
  00030	33 cd		 xor	 ecx, ebp
  00032	e8 00 00 00 00	 call	 @__security_check_cookie@4
  00037	8b e5		 mov	 esp, ebp
  00039	5d		 pop	 ebp
  0003a	c2 0c 00	 ret	 12			; 0000000cH
$LN2@GetPeerAdd:

; 216  : 
; 217  : 	int namelen	= sizeof(sin);
; 218  : 	if( getpeername( hSocket, (SOCKADDR *)&sin, &namelen ) == SOCKET_ERROR )

  0003d	8d 45 e8	 lea	 eax, DWORD PTR _namelen$[ebp]
  00040	c7 45 e8 10 00
	00 00		 mov	 DWORD PTR _namelen$[ebp], 16 ; 00000010H
  00047	50		 push	 eax
  00048	8d 45 ec	 lea	 eax, DWORD PTR _sin$[ebp]
  0004b	50		 push	 eax
  0004c	ff 75 08	 push	 DWORD PTR _dpid$[ebp]
  0004f	ff 15 00 00 00
	00		 call	 DWORD PTR __imp__getpeername@12
  00055	83 f8 ff	 cmp	 eax, -1
  00058	75 16		 jne	 SHORT $LN3@GetPeerAdd

; 219  : 		return DPERR_GENERIC;

  0005a	b8 05 40 00 80	 mov	 eax, -2147467259	; 80004005H
  0005f	5f		 pop	 edi

; 222  : 																	, sin.sin_addr.s_host
; 223  : 																	, sin.sin_addr.s_lh
; 224  : 																	, sin.sin_addr.s_impno );
; 225  : 	return DP_OK;
; 226  : }

  00060	8b 4d fc	 mov	 ecx, DWORD PTR __$ArrayPad$[ebp]
  00063	33 cd		 xor	 ecx, ebp
  00065	e8 00 00 00 00	 call	 @__security_check_cookie@4
  0006a	8b e5		 mov	 esp, ebp
  0006c	5d		 pop	 ebp
  0006d	c2 0c 00	 ret	 12			; 0000000cH
$LN3@GetPeerAdd:

; 220  : 
; 221  : 	sprintf( (char *)lpAddr, "%d.%d.%d.%d", sin.sin_addr.s_net

  00070	0f b6 45 f3	 movzx	 eax, BYTE PTR _sin$[ebp+7]
  00074	50		 push	 eax
  00075	0f b6 45 f2	 movzx	 eax, BYTE PTR _sin$[ebp+6]
  00079	50		 push	 eax
  0007a	0f b6 45 f1	 movzx	 eax, BYTE PTR _sin$[ebp+5]
  0007e	50		 push	 eax
  0007f	0f b6 45 f0	 movzx	 eax, BYTE PTR _sin$[ebp+4]
  00083	50		 push	 eax
  00084	68 00 00 00 00	 push	 OFFSET ??_C@_0M@PCENNPGA@?$CFd?4?$CFd?4?$CFd?4?$CFd@
  00089	57		 push	 edi
  0008a	e8 00 00 00 00	 call	 _sprintf

; 222  : 																	, sin.sin_addr.s_host
; 223  : 																	, sin.sin_addr.s_lh
; 224  : 																	, sin.sin_addr.s_impno );
; 225  : 	return DP_OK;
; 226  : }

  0008f	8b 4d fc	 mov	 ecx, DWORD PTR __$ArrayPad$[ebp]
  00092	83 c4 18	 add	 esp, 24			; 00000018H
  00095	33 cd		 xor	 ecx, ebp
  00097	33 c0		 xor	 eax, eax
  00099	5f		 pop	 edi
  0009a	e8 00 00 00 00	 call	 @__security_check_cookie@4
  0009f	8b e5		 mov	 esp, ebp
  000a1	5d		 pop	 ebp
  000a2	c2 0c 00	 ret	 12			; 0000000cH
?GetPeerAddr@CServerSockE@@UAEJKPAXPAK@Z ENDP		; CServerSockE::GetPeerAddr
_TEXT	ENDS
; Function compile flags: /Ogtp
; File C:\IAGOS\server\v18\Source\Source\_network\net\src\serversocke.cpp
; File C:\IAGOS\server\v18\Source\Source\_Network\Mcl\Include\CMclAutoLock.h
; File C:\IAGOS\server\v18\Source\Source\_Network\Mcl\Include\CMclCritSec.h
; File C:\Program Files\Microsoft Visual Studio\2022\Professional\VC\Tools\MSVC\14.44.35207\include\xtree
; File C:\IAGOS\server\v18\Source\Source\_network\net\src\serversocke.cpp
; File C:\Program Files\Microsoft Visual Studio\2022\Professional\VC\Tools\MSVC\14.44.35207\include\xtree
; File C:\IAGOS\server\v18\Source\Source\_network\net\src\serversocke.cpp
; File C:\Program Files\Microsoft Visual Studio\2022\Professional\VC\Tools\MSVC\14.44.35207\include\xtree
; File C:\IAGOS\server\v18\Source\Source\_network\net\src\serversocke.cpp
; File C:\IAGOS\server\v18\Source\Source\_Network\Mcl\Include\CMclCritSec.h
; File C:\IAGOS\server\v18\Source\Source\_network\net\src\serversocke.cpp
; File C:\IAGOS\server\v18\Source\Source\_Network\Mcl\Include\CMclCritSec.h
; File C:\IAGOS\server\v18\Source\Source\_Network\Mcl\Include\CMclAutoLock.h
; File C:\IAGOS\server\v18\Source\Source\_Network\Mcl\Include\CMclCritSec.h
; File C:\IAGOS\server\v18\Source\Source\_network\net\src\serversocke.cpp
; File C:\IAGOS\server\v18\Source\Source\_Network\Mcl\Include\CMclCritSec.h
; File C:\IAGOS\server\v18\Source\Source\_network\net\src\serversocke.cpp
;	COMDAT ?Send@CServerSockE@@UAEXPADKK@Z
_TEXT	SEGMENT
_Lock$2 = -20						; size = 4
tv381 = -16						; size = 4
__$EHRec$ = -12						; size = 12
_lpData$ = 8						; size = 4
_dwDataSize$ = 12					; size = 4
_dpidTo$ = 16						; size = 4
_i$3 = 16						; size = 4
_Lock$4 = 16						; size = 4
?Send@CServerSockE@@UAEXPADKK@Z PROC			; CServerSockE::Send, COMDAT
; _this$ = ecx

; 150  : {

  00000	55		 push	 ebp
  00001	8b ec		 mov	 ebp, esp
  00003	6a ff		 push	 -1
  00005	68 00 00 00 00	 push	 __ehhandler$?Send@CServerSockE@@UAEXPADKK@Z
  0000a	64 a1 00 00 00
	00		 mov	 eax, DWORD PTR fs:0
  00010	50		 push	 eax
  00011	83 ec 08	 sub	 esp, 8
  00014	53		 push	 ebx
  00015	56		 push	 esi
  00016	57		 push	 edi
  00017	a1 00 00 00 00	 mov	 eax, DWORD PTR ___security_cookie
  0001c	33 c5		 xor	 eax, ebp
  0001e	50		 push	 eax
  0001f	8d 45 f4	 lea	 eax, DWORD PTR __$EHRec$[ebp]
  00022	64 a3 00 00 00
	00		 mov	 DWORD PTR fs:0, eax
  00028	8b f1		 mov	 esi, ecx

; 151  : 	if( dpidTo == DPID_ALLPLAYERS )

  0002a	8b 7d 10	 mov	 edi, DWORD PTR _dpidTo$[ebp]
  0002d	8d 46 28	 lea	 eax, DWORD PTR [esi+40]
  00030	85 ff		 test	 edi, edi
  00032	75 4e		 jne	 SHORT $LN5@Send
; File C:\IAGOS\server\v18\Source\Source\_Network\Mcl\Include\CMclAutoLock.h

; 21   : 		m_pcCritSec = &rCMclCritSec;

  00034	89 45 ec	 mov	 DWORD PTR _Lock$2[ebp], eax
; File C:\IAGOS\server\v18\Source\Source\_Network\Mcl\Include\CMclCritSec.h

; 33   : 		::EnterCriticalSection( &m_CritSec );

  00037	83 c0 04	 add	 eax, 4
  0003a	50		 push	 eax
  0003b	89 45 f0	 mov	 DWORD PTR tv381[ebp], eax
  0003e	ff 15 00 00 00
	00		 call	 DWORD PTR __imp__EnterCriticalSection@4
; File C:\Program Files\Microsoft Visual Studio\2022\Professional\VC\Tools\MSVC\14.44.35207\include\xtree

; 1142 :         return iterator(_Scary->_Myhead->_Left, _Scary);

  00044	8b 4e 20	 mov	 ecx, DWORD PTR [esi+32]
; File C:\IAGOS\server\v18\Source\Source\_network\net\src\serversocke.cpp

; 153  : 		CMclAutoLock	Lock( m_mapChild.m_AddRemoveLock );

  00047	89 7d fc	 mov	 DWORD PTR __$EHRec$[ebp+8], edi
; File C:\Program Files\Microsoft Visual Studio\2022\Professional\VC\Tools\MSVC\14.44.35207\include\xtree

; 37   :     _Tree_unchecked_const_iterator(_Nodeptr _Pnode, const _Mytree* _Plist) noexcept : _Ptr(_Pnode) {

  0004a	8b 01		 mov	 eax, DWORD PTR [ecx]
  0004c	89 45 10	 mov	 DWORD PTR _i$3[ebp], eax

; 237  :         return !(*this == _Right);

  0004f	3b c1		 cmp	 eax, ecx
; File C:\IAGOS\server\v18\Source\Source\_network\net\src\serversocke.cpp

; 156  : 		for( CMapChildE::iterator i = m_mapChild.begin(); i != m_mapChild.end(); ++i )

  00051	74 2a		 je	 SHORT $LN3@Send
  00053	8b 7d 0c	 mov	 edi, DWORD PTR _dwDataSize$[ebp]
  00056	8b 5d 08	 mov	 ebx, DWORD PTR _lpData$[ebp]
  00059	0f 1f 80 00 00
	00 00		 npad	 7
$LL4@Send:

; 157  : 		{
; 158  : 			CClientSockE* pChild	= i->second;

  00060	8b 48 14	 mov	 ecx, DWORD PTR [eax+20]

; 159  : 			pChild->Send( lpData, dwDataSize, pChild->GetHandle() );

  00063	ff 71 04	 push	 DWORD PTR [ecx+4]
  00066	8b 01		 mov	 eax, DWORD PTR [ecx]
  00068	57		 push	 edi
  00069	53		 push	 ebx
  0006a	ff 50 28	 call	 DWORD PTR [eax+40]
; File C:\Program Files\Microsoft Visual Studio\2022\Professional\VC\Tools\MSVC\14.44.35207\include\xtree

; 198  :         _Mybase::operator++();

  0006d	8d 4d 10	 lea	 ecx, DWORD PTR _i$3[ebp]
  00070	e8 00 00 00 00	 call	 ??E?$_Tree_unchecked_const_iterator@V?$_Tree_val@U?$_Tree_simple_types@U?$pair@$$CBKPAVCClientSockE@@@std@@@std@@@std@@U_Iterator_base0@2@@std@@QAEAAV01@XZ ; std::_Tree_unchecked_const_iterator<std::_Tree_val<std::_Tree_simple_types<std::pair<unsigned long const ,CClientSockE *> > >,std::_Iterator_base0>::operator++

; 237  :         return !(*this == _Right);

  00075	8b 45 10	 mov	 eax, DWORD PTR _i$3[ebp]
  00078	3b 46 20	 cmp	 eax, DWORD PTR [esi+32]
; File C:\IAGOS\server\v18\Source\Source\_network\net\src\serversocke.cpp

; 156  : 		for( CMapChildE::iterator i = m_mapChild.begin(); i != m_mapChild.end(); ++i )

  0007b	75 e3		 jne	 SHORT $LL4@Send
$LN3@Send:
; File C:\IAGOS\server\v18\Source\Source\_Network\Mcl\Include\CMclCritSec.h

; 39   : 		::LeaveCriticalSection( &m_CritSec );

  0007d	ff 75 f0	 push	 DWORD PTR tv381[ebp]
; File C:\IAGOS\server\v18\Source\Source\_network\net\src\serversocke.cpp

; 171  : 	}

  00080	eb 2f		 jmp	 SHORT $LN79@Send
$LN5@Send:
; File C:\IAGOS\server\v18\Source\Source\_Network\Mcl\Include\CMclCritSec.h

; 33   : 		::EnterCriticalSection( &m_CritSec );

  00082	8d 58 04	 lea	 ebx, DWORD PTR [eax+4]
; File C:\IAGOS\server\v18\Source\Source\_Network\Mcl\Include\CMclAutoLock.h

; 21   : 		m_pcCritSec = &rCMclCritSec;

  00085	89 45 10	 mov	 DWORD PTR _Lock$4[ebp], eax
; File C:\IAGOS\server\v18\Source\Source\_Network\Mcl\Include\CMclCritSec.h

; 33   : 		::EnterCriticalSection( &m_CritSec );

  00088	53		 push	 ebx
  00089	ff 15 00 00 00
	00		 call	 DWORD PTR __imp__EnterCriticalSection@4
; File C:\IAGOS\server\v18\Source\Source\_network\net\src\serversocke.cpp

; 177  : 		CClientSockE* pChild	= (CClientSockE*)Get( dpidTo );

  0008f	8b 06		 mov	 eax, DWORD PTR [esi]
  00091	8b ce		 mov	 ecx, esi
  00093	57		 push	 edi
  00094	c7 45 fc 01 00
	00 00		 mov	 DWORD PTR __$EHRec$[ebp+8], 1
  0009b	ff 50 2c	 call	 DWORD PTR [eax+44]

; 178  : 		if( pChild )

  0009e	85 c0		 test	 eax, eax
  000a0	74 0e		 je	 SHORT $LN7@Send

; 179  : 			pChild->Send( lpData, dwDataSize, dpidTo );

  000a2	8b 10		 mov	 edx, DWORD PTR [eax]
  000a4	8b c8		 mov	 ecx, eax
  000a6	57		 push	 edi
  000a7	ff 75 0c	 push	 DWORD PTR _dwDataSize$[ebp]
  000aa	ff 75 08	 push	 DWORD PTR _lpData$[ebp]
  000ad	ff 52 28	 call	 DWORD PTR [edx+40]
$LN7@Send:
; File C:\IAGOS\server\v18\Source\Source\_Network\Mcl\Include\CMclCritSec.h

; 39   : 		::LeaveCriticalSection( &m_CritSec );

  000b0	53		 push	 ebx
$LN79@Send:
; File C:\IAGOS\server\v18\Source\Source\_network\net\src\serversocke.cpp

; 187  : }

  000b1	ff 15 00 00 00
	00		 call	 DWORD PTR __imp__LeaveCriticalSection@4
  000b7	8b 4d f4	 mov	 ecx, DWORD PTR __$EHRec$[ebp]
  000ba	64 89 0d 00 00
	00 00		 mov	 DWORD PTR fs:0, ecx
  000c1	59		 pop	 ecx
  000c2	5f		 pop	 edi
  000c3	5e		 pop	 esi
  000c4	5b		 pop	 ebx
  000c5	8b e5		 mov	 esp, ebp
  000c7	5d		 pop	 ebp
  000c8	c2 0c 00	 ret	 12			; 0000000cH
_TEXT	ENDS
;	COMDAT text$x
text$x	SEGMENT
__unwindfunclet$?Send@CServerSockE@@UAEXPADKK@Z$0:
  00000	8d 4d ec	 lea	 ecx, DWORD PTR _Lock$2[ebp]
  00003	e9 00 00 00 00	 jmp	 ??1CMclAutoLock@@QAE@XZ	; CMclAutoLock::~CMclAutoLock
__unwindfunclet$?Send@CServerSockE@@UAEXPADKK@Z$1:
  00008	8d 4d 10	 lea	 ecx, DWORD PTR _Lock$4[ebp]
  0000b	e9 00 00 00 00	 jmp	 ??1CMclAutoLock@@QAE@XZ	; CMclAutoLock::~CMclAutoLock
  00010	cc		 int	 3
  00011	cc		 int	 3
  00012	cc		 int	 3
  00013	cc		 int	 3
  00014	cc		 int	 3
__ehhandler$?Send@CServerSockE@@UAEXPADKK@Z:
  00015	90		 npad	 1
  00016	90		 npad	 1
  00017	8b 54 24 08	 mov	 edx, DWORD PTR [esp+8]
  0001b	8d 42 0c	 lea	 eax, DWORD PTR [edx+12]
  0001e	8b 4a e8	 mov	 ecx, DWORD PTR [edx-24]
  00021	33 c8		 xor	 ecx, eax
  00023	e8 00 00 00 00	 call	 @__security_check_cookie@4
  00028	b8 00 00 00 00	 mov	 eax, OFFSET __ehfuncinfo$?Send@CServerSockE@@UAEXPADKK@Z
  0002d	e9 00 00 00 00	 jmp	 ___CxxFrameHandler3
text$x	ENDS
?Send@CServerSockE@@UAEXPADKK@Z ENDP			; CServerSockE::Send
; Function compile flags: /Ogtp
; File C:\IAGOS\server\v18\Source\Source\_network\net\src\serversocke.cpp
;	COMDAT ?Shutdown@CServerSockE@@UAEHI@Z
_TEXT	SEGMENT
_hSocket$ = 8						; size = 4
?Shutdown@CServerSockE@@UAEHI@Z PROC			; CServerSockE::Shutdown, COMDAT
; _this$ = ecx

; 196  : 	return FALSE;

  00000	33 c0		 xor	 eax, eax

; 197  : }

  00002	c2 04 00	 ret	 4
?Shutdown@CServerSockE@@UAEHI@Z ENDP			; CServerSockE::Shutdown
_TEXT	ENDS
; Function compile flags: /Ogtp
; File C:\IAGOS\server\v18\Source\Source\_network\net\src\serversocke.cpp
;	COMDAT ?CloseConnection@CServerSockE@@UAEHI@Z
_TEXT	SEGMENT
_hSocket$ = 8						; size = 4
?CloseConnection@CServerSockE@@UAEHI@Z PROC		; CServerSockE::CloseConnection, COMDAT
; _this$ = ecx

; 190  : {

  00000	55		 push	 ebp
  00001	8b ec		 mov	 ebp, esp

; 192  : }

  00003	5d		 pop	 ebp

; 191  : 	return CloseChild( hSocket );

  00004	e9 00 00 00 00	 jmp	 ?CloseChild@CServerSockE@@QAEHI@Z ; CServerSockE::CloseChild
?CloseConnection@CServerSockE@@UAEHI@Z ENDP		; CServerSockE::CloseConnection
_TEXT	ENDS
; Function compile flags: /Ogtp
; File C:\IAGOS\server\v18\Source\Source\_network\net\src\serversocke.cpp
;	COMDAT ?Close@CServerSockE@@UAEXXZ
_TEXT	SEGMENT
?Close@CServerSockE@@UAEXXZ PROC			; CServerSockE::Close, COMDAT
; _this$ = ecx

; 68   : {

  00000	57		 push	 edi
  00001	8b f9		 mov	 edi, ecx

; 69   : 	CLOSE_WSAEVENT( m_hListen );

  00003	8b 47 18	 mov	 eax, DWORD PTR [edi+24]
  00006	85 c0		 test	 eax, eax
  00008	74 0e		 je	 SHORT $LN2@Close
  0000a	50		 push	 eax
  0000b	ff 15 00 00 00
	00		 call	 DWORD PTR __imp__WSACloseEvent@4
  00011	c7 47 18 00 00
	00 00		 mov	 DWORD PTR [edi+24], 0
$LN2@Close:

; 70   : 	CLOSE_THREAD( m_hListenThread, m_hClose );

  00018	83 7f 10 00	 cmp	 DWORD PTR [edi+16], 0
  0001c	74 34		 je	 SHORT $LN3@Close
  0001e	ff 77 14	 push	 DWORD PTR [edi+20]
  00021	ff 15 00 00 00
	00		 call	 DWORD PTR __imp__SetEvent@4
  00027	6a ff		 push	 -1
  00029	ff 77 10	 push	 DWORD PTR [edi+16]
  0002c	ff 15 00 00 00
	00		 call	 DWORD PTR __imp__WaitForSingleObject@8
  00032	ff 77 10	 push	 DWORD PTR [edi+16]
  00035	ff 15 00 00 00
	00		 call	 DWORD PTR __imp__CloseHandle@4
  0003b	ff 77 14	 push	 DWORD PTR [edi+20]
  0003e	ff 15 00 00 00
	00		 call	 DWORD PTR __imp__CloseHandle@4
  00044	c7 47 14 00 00
	00 00		 mov	 DWORD PTR [edi+20], 0
  0004b	c7 47 10 00 00
	00 00		 mov	 DWORD PTR [edi+16], 0
$LN3@Close:

; 71   : 	CloseAllChild();

  00052	8b cf		 mov	 ecx, edi
  00054	5f		 pop	 edi
  00055	e9 00 00 00 00	 jmp	 ?CloseAllChild@CServerSockE@@QAEXXZ ; CServerSockE::CloseAllChild
?Close@CServerSockE@@UAEXXZ ENDP			; CServerSockE::Close
_TEXT	ENDS
; Function compile flags: /Ogtp
; File C:\IAGOS\server\v18\Source\Source\_network\net\src\serversocke.cpp
;	COMDAT ?StartServer@CServerSockE@@QAEHPAVCDPSock@@@Z
_TEXT	SEGMENT
_dwThreadId$ = -4					; size = 4
_pDPSock$ = 8						; size = 4
?StartServer@CServerSockE@@QAEHPAVCDPSock@@@Z PROC	; CServerSockE::StartServer, COMDAT
; _this$ = ecx

; 53   : {

  00000	55		 push	 ebp
  00001	8b ec		 mov	 ebp, esp
  00003	51		 push	 ecx
  00004	56		 push	 esi
  00005	8b f1		 mov	 esi, ecx

; 54   : 	Close();

  00007	8b 06		 mov	 eax, DWORD PTR [esi]
  00009	ff 50 1c	 call	 DWORD PTR [eax+28]

; 55   : 	m_pDPSock	= pDPSock;

  0000c	8b 45 08	 mov	 eax, DWORD PTR _pDPSock$[ebp]
  0000f	89 46 44	 mov	 DWORD PTR [esi+68], eax

; 56   : 	m_hListen	= WSACreateEvent();

  00012	ff 15 00 00 00
	00		 call	 DWORD PTR __imp__WSACreateEvent@0

; 57   : 	ASSERT( m_hListen != WSA_INVALID_EVENT );
; 58   : 	m_hClose	= CreateEvent( NULL, FALSE, FALSE, NULL );

  00018	6a 00		 push	 0
  0001a	6a 00		 push	 0
  0001c	6a 00		 push	 0
  0001e	6a 00		 push	 0
  00020	89 46 18	 mov	 DWORD PTR [esi+24], eax
  00023	ff 15 00 00 00
	00		 call	 DWORD PTR __imp__CreateEventA@16
  00029	89 46 14	 mov	 DWORD PTR [esi+20], eax

; 59   : 	ASSERT( m_hClose );
; 60   : 	DWORD dwThreadId;
; 61   : 	m_hListenThread		= chBEGINTHREADEX( NULL, 0, ListenThreadE, this, NULL, &dwThreadId );

  0002c	8d 45 fc	 lea	 eax, DWORD PTR _dwThreadId$[ebp]
  0002f	50		 push	 eax
  00030	6a 00		 push	 0
  00032	56		 push	 esi
  00033	68 00 00 00 00	 push	 OFFSET ?ListenThreadE@@YGIPAX@Z ; ListenThreadE
  00038	6a 00		 push	 0
  0003a	6a 00		 push	 0
  0003c	e8 00 00 00 00	 call	 __beginthreadex
  00041	83 c4 18	 add	 esp, 24			; 00000018H
  00044	89 46 10	 mov	 DWORD PTR [esi+16], eax

; 62   : 	ASSERT( m_hListenThread );
; 63   : 	SetThreadPriority( m_hListenThread, THREAD_PRIORITY_BELOW_NORMAL );

  00047	6a ff		 push	 -1
  00049	50		 push	 eax
  0004a	ff 15 00 00 00
	00		 call	 DWORD PTR __imp__SetThreadPriority@8

; 64   : 	return TRUE;

  00050	b8 01 00 00 00	 mov	 eax, 1
  00055	5e		 pop	 esi

; 65   : }

  00056	8b e5		 mov	 esp, ebp
  00058	5d		 pop	 ebp
  00059	c2 04 00	 ret	 4
?StartServer@CServerSockE@@QAEHPAVCDPSock@@@Z ENDP	; CServerSockE::StartServer
_TEXT	ENDS
; Function compile flags: /Ogtp
; File C:\IAGOS\server\v18\Source\Source\_network\net\src\serversocke.cpp
; File C:\IAGOS\server\v18\Source\Source\_Network\Mcl\Include\CMclCritSec.h
; File C:\Program Files\Microsoft Visual Studio\2022\Professional\VC\Tools\MSVC\14.44.35207\include\xtree
; File C:\IAGOS\server\v18\Source\Source\_network\net\src\serversocke.cpp
; File C:\Program Files\Microsoft Visual Studio\2022\Professional\VC\Tools\MSVC\14.44.35207\include\xtree
; File C:\IAGOS\server\v18\Source\Source\_network\net\src\serversocke.cpp
; File C:\Program Files\Microsoft Visual Studio\2022\Professional\VC\Tools\MSVC\14.44.35207\include\xtree
; File C:\Program Files\Microsoft Visual Studio\2022\Professional\VC\Tools\MSVC\14.44.35207\include\utility
; File C:\Program Files\Microsoft Visual Studio\2022\Professional\VC\Tools\MSVC\14.44.35207\include\xmemory
; File C:\Program Files\Microsoft Visual Studio\2022\Professional\VC\Tools\MSVC\14.44.35207\include\xtree
; File C:\IAGOS\server\v18\Source\Source\_Network\Mcl\Include\CMclCritSec.h
; File C:\Program Files\Microsoft Visual Studio\2022\Professional\VC\Tools\MSVC\14.44.35207\include\xtree
; File C:\IAGOS\server\v18\Source\Source\_Network\Mcl\Include\CMclCritSec.h
; File C:\IAGOS\server\v18\Source\Source\_network\net\src\serversocke.cpp
;	COMDAT ?CloseAllChild@CServerSockE@@QAEXXZ
_TEXT	SEGMENT
tv481 = -8						; size = 4
_i$1 = -4						; size = 4
?CloseAllChild@CServerSockE@@QAEXXZ PROC		; CServerSockE::CloseAllChild, COMDAT
; _this$ = ecx

; 123  : {

  00000	55		 push	 ebp
  00001	8b ec		 mov	 ebp, esp
  00003	83 ec 08	 sub	 esp, 8
  00006	53		 push	 ebx
  00007	56		 push	 esi
  00008	8b f1		 mov	 esi, ecx
  0000a	57		 push	 edi
; File C:\IAGOS\server\v18\Source\Source\_Network\Mcl\Include\CMclCritSec.h

; 33   : 		::EnterCriticalSection( &m_CritSec );

  0000b	8d 46 2c	 lea	 eax, DWORD PTR [esi+44]
  0000e	50		 push	 eax
  0000f	89 45 f8	 mov	 DWORD PTR tv481[ebp], eax
  00012	ff 15 00 00 00
	00		 call	 DWORD PTR __imp__EnterCriticalSection@4
; File C:\Program Files\Microsoft Visual Studio\2022\Professional\VC\Tools\MSVC\14.44.35207\include\xtree

; 1142 :         return iterator(_Scary->_Myhead->_Left, _Scary);

  00018	8d 5e 20	 lea	 ebx, DWORD PTR [esi+32]
  0001b	8b 33		 mov	 esi, DWORD PTR [ebx]

; 37   :     _Tree_unchecked_const_iterator(_Nodeptr _Pnode, const _Mytree* _Plist) noexcept : _Ptr(_Pnode) {

  0001d	8b 06		 mov	 eax, DWORD PTR [esi]
  0001f	89 45 fc	 mov	 DWORD PTR _i$1[ebp], eax

; 237  :         return !(*this == _Right);

  00022	3b c6		 cmp	 eax, esi
; File C:\IAGOS\server\v18\Source\Source\_network\net\src\serversocke.cpp

; 127  : 	for( CMapChildE::iterator i = m_mapChild.begin(); i != m_mapChild.end(); ++i )

  00024	74 1e		 je	 SHORT $LN3@CloseAllCh
$LL4@CloseAllCh:

; 128  : 	{
; 129  : 		CClientSockE* pChild	= i->second;

  00026	8b 48 14	 mov	 ecx, DWORD PTR [eax+20]

; 130  : 		TRACE( "~%x, %d\n", pChild, pChild->GetHandle() );
; 131  : 		SAFE_DELETE( pChild );

  00029	85 c9		 test	 ecx, ecx
  0002b	74 06		 je	 SHORT $LN2@CloseAllCh
  0002d	8b 01		 mov	 eax, DWORD PTR [ecx]
  0002f	6a 01		 push	 1
  00031	ff 10		 call	 DWORD PTR [eax]
$LN2@CloseAllCh:
; File C:\Program Files\Microsoft Visual Studio\2022\Professional\VC\Tools\MSVC\14.44.35207\include\xtree

; 198  :         _Mybase::operator++();

  00033	8d 4d fc	 lea	 ecx, DWORD PTR _i$1[ebp]
  00036	e8 00 00 00 00	 call	 ??E?$_Tree_unchecked_const_iterator@V?$_Tree_val@U?$_Tree_simple_types@U?$pair@$$CBKPAVCClientSockE@@@std@@@std@@@std@@U_Iterator_base0@2@@std@@QAEAAV01@XZ ; std::_Tree_unchecked_const_iterator<std::_Tree_val<std::_Tree_simple_types<std::pair<unsigned long const ,CClientSockE *> > >,std::_Iterator_base0>::operator++

; 37   :     _Tree_unchecked_const_iterator(_Nodeptr _Pnode, const _Mytree* _Plist) noexcept : _Ptr(_Pnode) {

  0003b	8b 33		 mov	 esi, DWORD PTR [ebx]

; 237  :         return !(*this == _Right);

  0003d	8b 45 fc	 mov	 eax, DWORD PTR _i$1[ebp]
  00040	3b c6		 cmp	 eax, esi
; File C:\IAGOS\server\v18\Source\Source\_network\net\src\serversocke.cpp

; 127  : 	for( CMapChildE::iterator i = m_mapChild.begin(); i != m_mapChild.end(); ++i )

  00042	75 e2		 jne	 SHORT $LL4@CloseAllCh
$LN3@CloseAllCh:
; File C:\Program Files\Microsoft Visual Studio\2022\Professional\VC\Tools\MSVC\14.44.35207\include\xtree

; 1374 :         _Scary->_Erase_tree(_Getal(), _Head->_Parent);

  00044	8b 7e 04	 mov	 edi, DWORD PTR [esi+4]

; 768  :         while (!_Rootnode->_Isnil) { // free subtrees, then node

  00047	80 7f 0d 00	 cmp	 BYTE PTR [edi+13], 0
  0004b	75 23		 jne	 SHORT $LN104@CloseAllCh
  0004d	0f 1f 00	 npad	 3
$LL63@CloseAllCh:

; 769  :             _Erase_tree(_Al, _Rootnode->_Right);

  00050	ff 77 08	 push	 DWORD PTR [edi+8]
  00053	8b cb		 mov	 ecx, ebx
  00055	53		 push	 ebx
  00056	e8 00 00 00 00	 call	 ??$_Erase_tree@V?$allocator@U?$_Tree_node@U?$pair@$$CBKPAVCClientSockE@@@std@@PAX@std@@@std@@@?$_Tree_val@U?$_Tree_simple_types@U?$pair@$$CBKPAVCClientSockE@@@std@@@std@@@std@@QAEXAAV?$allocator@U?$_Tree_node@U?$pair@$$CBKPAVCClientSockE@@@std@@PAX@std@@@1@PAU?$_Tree_node@U?$pair@$$CBKPAVCClientSockE@@@std@@PAX@1@@Z ; std::_Tree_val<std::_Tree_simple_types<std::pair<unsigned long const ,CClientSockE *> > >::_Erase_tree<std::allocator<std::_Tree_node<std::pair<unsigned long const ,CClientSockE *>,void *> > >
; File C:\Program Files\Microsoft Visual Studio\2022\Professional\VC\Tools\MSVC\14.44.35207\include\utility

; 773  :     _Ty _Old_val = static_cast<_Ty&&>(_Val);

  0005b	8b c7		 mov	 eax, edi

; 774  :     _Val         = static_cast<_Other&&>(_New_val);

  0005d	8b 3f		 mov	 edi, DWORD PTR [edi]
; File C:\Program Files\Microsoft Visual Studio\2022\Professional\VC\Tools\MSVC\14.44.35207\include\xmemory

; 289  :         ::operator delete(_Ptr, _Bytes);

  0005f	6a 18		 push	 24			; 00000018H
  00061	50		 push	 eax
  00062	e8 00 00 00 00	 call	 ??3@YAXPAXI@Z		; operator delete
  00067	83 c4 08	 add	 esp, 8
; File C:\Program Files\Microsoft Visual Studio\2022\Professional\VC\Tools\MSVC\14.44.35207\include\xtree

; 768  :         while (!_Rootnode->_Isnil) { // free subtrees, then node

  0006a	80 7f 0d 00	 cmp	 BYTE PTR [edi+13], 0
  0006e	74 e0		 je	 SHORT $LL63@CloseAllCh
$LN104@CloseAllCh:
; File C:\IAGOS\server\v18\Source\Source\_Network\Mcl\Include\CMclCritSec.h

; 39   : 		::LeaveCriticalSection( &m_CritSec );

  00070	ff 75 f8	 push	 DWORD PTR tv481[ebp]
; File C:\Program Files\Microsoft Visual Studio\2022\Professional\VC\Tools\MSVC\14.44.35207\include\xtree

; 1375 :         _Head->_Parent  = _Head;

  00073	89 76 04	 mov	 DWORD PTR [esi+4], esi

; 1376 :         _Head->_Left    = _Head;

  00076	89 36		 mov	 DWORD PTR [esi], esi

; 1377 :         _Head->_Right   = _Head;

  00078	89 76 08	 mov	 DWORD PTR [esi+8], esi

; 1378 :         _Scary->_Mysize = 0;

  0007b	c7 43 04 00 00
	00 00		 mov	 DWORD PTR [ebx+4], 0
; File C:\IAGOS\server\v18\Source\Source\_Network\Mcl\Include\CMclCritSec.h

; 39   : 		::LeaveCriticalSection( &m_CritSec );

  00082	ff 15 00 00 00
	00		 call	 DWORD PTR __imp__LeaveCriticalSection@4
  00088	5f		 pop	 edi
  00089	5e		 pop	 esi
  0008a	5b		 pop	 ebx
; File C:\IAGOS\server\v18\Source\Source\_network\net\src\serversocke.cpp

; 147  : }

  0008b	8b e5		 mov	 esp, ebp
  0008d	5d		 pop	 ebp
  0008e	c3		 ret	 0
?CloseAllChild@CServerSockE@@QAEXXZ ENDP		; CServerSockE::CloseAllChild
_TEXT	ENDS
; Function compile flags: /Ogtp
; File C:\IAGOS\server\v18\Source\Source\_network\net\src\serversocke.cpp
; File C:\IAGOS\server\v18\Source\Source\_Network\Mcl\Include\CMclAutoLock.h
; File C:\IAGOS\server\v18\Source\Source\_Network\Mcl\Include\CMclCritSec.h
; File C:\IAGOS\server\v18\Source\Source\_network\net\src\serversocke.cpp
; File C:\Program Files\Microsoft Visual Studio\2022\Professional\VC\Tools\MSVC\14.44.35207\include\xtree
; File C:\IAGOS\server\v18\Source\Source\_network\net\src\serversocke.cpp
; File C:\Program Files\Microsoft Visual Studio\2022\Professional\VC\Tools\MSVC\14.44.35207\include\xtree
; File C:\Program Files\Microsoft Visual Studio\2022\Professional\VC\Tools\MSVC\14.44.35207\include\type_traits
; File C:\Program Files\Microsoft Visual Studio\2022\Professional\VC\Tools\MSVC\14.44.35207\include\xtree
; File C:\IAGOS\server\v18\Source\Source\_network\net\src\serversocke.cpp
; File C:\Program Files\Microsoft Visual Studio\2022\Professional\VC\Tools\MSVC\14.44.35207\include\xtree
; File C:\Program Files\Microsoft Visual Studio\2022\Professional\VC\Tools\MSVC\14.44.35207\include\xmemory
; File C:\IAGOS\server\v18\Source\Source\_network\net\src\serversocke.cpp
; File C:\Program Files\Microsoft Visual Studio\2022\Professional\VC\Tools\MSVC\14.44.35207\include\xmemory
; File C:\IAGOS\server\v18\Source\Source\_network\net\src\serversocke.cpp
; File C:\IAGOS\server\v18\Source\Source\_Network\Mcl\Include\CMclCritSec.h
; File C:\IAGOS\server\v18\Source\Source\_network\net\src\serversocke.cpp
;	COMDAT ?CloseChild@CServerSockE@@QAEHI@Z
_TEXT	SEGMENT
__Loc$2 = -32						; size = 12
_Lock$ = -20						; size = 4
tv505 = -16						; size = 4
__$EHRec$ = -12						; size = 12
_hSocket$ = 8						; size = 4
$T3 = 8							; size = 4
?CloseChild@CServerSockE@@QAEHI@Z PROC			; CServerSockE::CloseChild, COMDAT
; _this$ = ecx

; 94   : {

  00000	55		 push	 ebp
  00001	8b ec		 mov	 ebp, esp
  00003	6a ff		 push	 -1
  00005	68 00 00 00 00	 push	 __ehhandler$?CloseChild@CServerSockE@@QAEHI@Z
  0000a	64 a1 00 00 00
	00		 mov	 eax, DWORD PTR fs:0
  00010	50		 push	 eax
  00011	83 ec 14	 sub	 esp, 20			; 00000014H
  00014	53		 push	 ebx
  00015	56		 push	 esi
  00016	57		 push	 edi
  00017	a1 00 00 00 00	 mov	 eax, DWORD PTR ___security_cookie
  0001c	33 c5		 xor	 eax, ebp
  0001e	50		 push	 eax
  0001f	8d 45 f4	 lea	 eax, DWORD PTR __$EHRec$[ebp]
  00022	64 a3 00 00 00
	00		 mov	 DWORD PTR fs:0, eax
  00028	8b f1		 mov	 esi, ecx

; 95   : 	CMclAutoLock	Lock( m_mapChild.m_AddRemoveLock );

  0002a	8d 46 28	 lea	 eax, DWORD PTR [esi+40]
; File C:\IAGOS\server\v18\Source\Source\_Network\Mcl\Include\CMclAutoLock.h

; 21   : 		m_pcCritSec = &rCMclCritSec;

  0002d	89 45 ec	 mov	 DWORD PTR _Lock$[ebp], eax
; File C:\IAGOS\server\v18\Source\Source\_Network\Mcl\Include\CMclCritSec.h

; 33   : 		::EnterCriticalSection( &m_CritSec );

  00030	83 c0 04	 add	 eax, 4
  00033	50		 push	 eax
  00034	89 45 f0	 mov	 DWORD PTR tv505[ebp], eax
  00037	ff 15 00 00 00
	00		 call	 DWORD PTR __imp__EnterCriticalSection@4
; File C:\IAGOS\server\v18\Source\Source\_network\net\src\serversocke.cpp

; 97   : 	CMapChildE::iterator i	= m_mapChild.find( hSocket );

  0003d	8b 5d 08	 mov	 ebx, DWORD PTR _hSocket$[ebp]
; File C:\Program Files\Microsoft Visual Studio\2022\Professional\VC\Tools\MSVC\14.44.35207\include\xtree

; 1384 :         const _Tree_find_result<_Nodeptr> _Loc = _Find_lower_bound(_Keyval);

  00040	8d 45 08	 lea	 eax, DWORD PTR $T3[ebp]
  00043	50		 push	 eax
  00044	8d 45 e0	 lea	 eax, DWORD PTR __Loc$2[ebp]
; File C:\IAGOS\server\v18\Source\Source\_network\net\src\serversocke.cpp

; 95   : 	CMclAutoLock	Lock( m_mapChild.m_AddRemoveLock );

  00047	c7 45 fc 00 00
	00 00		 mov	 DWORD PTR __$EHRec$[ebp+8], 0

; 97   : 	CMapChildE::iterator i	= m_mapChild.find( hSocket );

  0004e	8d 7e 20	 lea	 edi, DWORD PTR [esi+32]
  00051	89 5d 08	 mov	 DWORD PTR $T3[ebp], ebx
; File C:\Program Files\Microsoft Visual Studio\2022\Professional\VC\Tools\MSVC\14.44.35207\include\xtree

; 1384 :         const _Tree_find_result<_Nodeptr> _Loc = _Find_lower_bound(_Keyval);

  00054	50		 push	 eax
  00055	8b cf		 mov	 ecx, edi
  00057	e8 00 00 00 00	 call	 ??$_Find_lower_bound@K@?$_Tree@V?$_Tmap_traits@KPAVCClientSockE@@U?$less@K@std@@V?$allocator@U?$pair@$$CBKPAVCClientSockE@@@std@@@3@$0A@@std@@@std@@IBE?AU?$_Tree_find_result@PAU?$_Tree_node@U?$pair@$$CBKPAVCClientSockE@@@std@@PAX@std@@@1@ABK@Z ; std::_Tree<std::_Tmap_traits<unsigned long,CClientSockE *,std::less<unsigned long>,std::allocator<std::pair<unsigned long const ,CClientSockE *> >,0> >::_Find_lower_bound<unsigned long>

; 1624 :         return !_Bound->_Isnil && !_DEBUG_LT_PRED(_Getcomp(), _Keyval, _Traits::_Kfn(_Bound->_Myval));

  0005c	8b 45 e8	 mov	 eax, DWORD PTR __Loc$2[ebp+8]
  0005f	80 78 0d 00	 cmp	 BYTE PTR [eax+13], 0
  00063	75 35		 jne	 SHORT $LN2@CloseChild
; File C:\Program Files\Microsoft Visual Studio\2022\Professional\VC\Tools\MSVC\14.44.35207\include\type_traits

; 2380 :         return _Left < _Right;

  00065	3b 58 10	 cmp	 ebx, DWORD PTR [eax+16]
; File C:\Program Files\Microsoft Visual Studio\2022\Professional\VC\Tools\MSVC\14.44.35207\include\xtree

; 1624 :         return !_Bound->_Isnil && !_DEBUG_LT_PRED(_Getcomp(), _Keyval, _Traits::_Kfn(_Bound->_Myval));

  00068	72 30		 jb	 SHORT $LN2@CloseChild

; 37   :     _Tree_unchecked_const_iterator(_Nodeptr _Pnode, const _Mytree* _Plist) noexcept : _Ptr(_Pnode) {

  0006a	3b 07		 cmp	 eax, DWORD PTR [edi]
; File C:\IAGOS\server\v18\Source\Source\_network\net\src\serversocke.cpp

; 98   : 	if( i != m_mapChild.end() )

  0006c	74 2c		 je	 SHORT $LN2@CloseChild

; 99   : 	{
; 100  : 		CClientSockE* pChild	= i->second;

  0006e	8b 70 14	 mov	 esi, DWORD PTR [eax+20]
; File C:\Program Files\Microsoft Visual Studio\2022\Professional\VC\Tools\MSVC\14.44.35207\include\xtree

; 1303 :         _Nodeptr _Erasednode = _Scary->_Extract(_Where); // node to erase

  00071	8b cf		 mov	 ecx, edi
  00073	50		 push	 eax
  00074	e8 00 00 00 00	 call	 ?_Extract@?$_Tree_val@U?$_Tree_simple_types@U?$pair@$$CBKPAVCClientSockE@@@std@@@std@@@std@@QAEPAU?$_Tree_node@U?$pair@$$CBKPAVCClientSockE@@@std@@PAX@2@V?$_Tree_unchecked_const_iterator@V?$_Tree_val@U?$_Tree_simple_types@U?$pair@$$CBKPAVCClientSockE@@@std@@@std@@@std@@U_Iterator_base0@2@@2@@Z ; std::_Tree_val<std::_Tree_simple_types<std::pair<unsigned long const ,CClientSockE *> > >::_Extract
; File C:\Program Files\Microsoft Visual Studio\2022\Professional\VC\Tools\MSVC\14.44.35207\include\xmemory

; 289  :         ::operator delete(_Ptr, _Bytes);

  00079	6a 18		 push	 24			; 00000018H
  0007b	50		 push	 eax
  0007c	e8 00 00 00 00	 call	 ??3@YAXPAXI@Z		; operator delete
; File C:\IAGOS\server\v18\Source\Source\_network\net\src\serversocke.cpp

; 102  : 		pChild->Close();

  00081	8b 06		 mov	 eax, DWORD PTR [esi]
; File C:\Program Files\Microsoft Visual Studio\2022\Professional\VC\Tools\MSVC\14.44.35207\include\xmemory

; 289  :         ::operator delete(_Ptr, _Bytes);

  00083	83 c4 08	 add	 esp, 8
; File C:\IAGOS\server\v18\Source\Source\_network\net\src\serversocke.cpp

; 102  : 		pChild->Close();

  00086	8b ce		 mov	 ecx, esi
  00088	ff 50 1c	 call	 DWORD PTR [eax+28]

; 103  : 		SAFE_DELETE( pChild );

  0008b	8b 06		 mov	 eax, DWORD PTR [esi]
  0008d	8b ce		 mov	 ecx, esi
  0008f	6a 01		 push	 1
  00091	ff 10		 call	 DWORD PTR [eax]
  00093	be 01 00 00 00	 mov	 esi, 1
  00098	eb 02		 jmp	 SHORT $LN8@CloseChild
$LN2@CloseChild:

; 106  : 	return FALSE;

  0009a	33 f6		 xor	 esi, esi
$LN8@CloseChild:
; File C:\IAGOS\server\v18\Source\Source\_Network\Mcl\Include\CMclCritSec.h

; 39   : 		::LeaveCriticalSection( &m_CritSec );

  0009c	ff 75 f0	 push	 DWORD PTR tv505[ebp]
  0009f	ff 15 00 00 00
	00		 call	 DWORD PTR __imp__LeaveCriticalSection@4
; File C:\IAGOS\server\v18\Source\Source\_network\net\src\serversocke.cpp

; 106  : 	return FALSE;

  000a5	8b c6		 mov	 eax, esi

; 107  : #else	// __STL_0402
; 108  : 	CClientSockE* pChild;
; 109  : 	if( m_mapChild.Lookup( hSocket, pChild ) )
; 110  : 	{
; 111  : 		m_mapChild.RemoveKey( hSocket );
; 112  : 		if( pChild ) {
; 113  : 			pChild->Close();
; 114  : 			SAFE_DELETE( pChild );
; 115  : 			return( TRUE );
; 116  : 		}
; 117  : 	}
; 118  : 	return( FALSE );
; 119  : #endif	// __STL_0402
; 120  : }

  000a7	8b 4d f4	 mov	 ecx, DWORD PTR __$EHRec$[ebp]
  000aa	64 89 0d 00 00
	00 00		 mov	 DWORD PTR fs:0, ecx
  000b1	59		 pop	 ecx
  000b2	5f		 pop	 edi
  000b3	5e		 pop	 esi
  000b4	5b		 pop	 ebx
  000b5	8b e5		 mov	 esp, ebp
  000b7	5d		 pop	 ebp
  000b8	c2 04 00	 ret	 4
_TEXT	ENDS
;	COMDAT text$x
text$x	SEGMENT
__unwindfunclet$?CloseChild@CServerSockE@@QAEHI@Z$0:
  00000	8d 4d ec	 lea	 ecx, DWORD PTR _Lock$[ebp]
  00003	e9 00 00 00 00	 jmp	 ??1CMclAutoLock@@QAE@XZ	; CMclAutoLock::~CMclAutoLock
  00008	cc		 int	 3
  00009	cc		 int	 3
  0000a	cc		 int	 3
  0000b	cc		 int	 3
  0000c	cc		 int	 3
__ehhandler$?CloseChild@CServerSockE@@QAEHI@Z:
  0000d	90		 npad	 1
  0000e	90		 npad	 1
  0000f	8b 54 24 08	 mov	 edx, DWORD PTR [esp+8]
  00013	8d 42 0c	 lea	 eax, DWORD PTR [edx+12]
  00016	8b 4a dc	 mov	 ecx, DWORD PTR [edx-36]
  00019	33 c8		 xor	 ecx, eax
  0001b	e8 00 00 00 00	 call	 @__security_check_cookie@4
  00020	b8 00 00 00 00	 mov	 eax, OFFSET __ehfuncinfo$?CloseChild@CServerSockE@@QAEHI@Z
  00025	e9 00 00 00 00	 jmp	 ___CxxFrameHandler3
text$x	ENDS
?CloseChild@CServerSockE@@QAEHI@Z ENDP			; CServerSockE::CloseChild
; Function compile flags: /Ogtp
; File C:\IAGOS\server\v18\Source\Source\_network\net\src\serversocke.cpp
; File C:\IAGOS\server\v18\Source\Source\_Network\Mcl\Include\CMclCritSec.h
; File C:\Program Files\Microsoft Visual Studio\2022\Professional\VC\Tools\MSVC\14.44.35207\include\xtree
; File C:\Program Files\Microsoft Visual Studio\2022\Professional\VC\Tools\MSVC\14.44.35207\include\utility
; File C:\Program Files\Microsoft Visual Studio\2022\Professional\VC\Tools\MSVC\14.44.35207\include\xtree
; File C:\Program Files\Microsoft Visual Studio\2022\Professional\VC\Tools\MSVC\14.44.35207\include\utility
; File C:\IAGOS\server\v18\Source\Source\_network\net\src\serversocke.cpp
; File C:\Program Files\Microsoft Visual Studio\2022\Professional\VC\Tools\MSVC\14.44.35207\include\xtree
; File C:\Program Files\Microsoft Visual Studio\2022\Professional\VC\Tools\MSVC\14.44.35207\include\type_traits
; File C:\Program Files\Microsoft Visual Studio\2022\Professional\VC\Tools\MSVC\14.44.35207\include\xtree
; File C:\Program Files\Microsoft Visual Studio\2022\Professional\VC\Tools\MSVC\14.44.35207\include\xmemory
; File C:\Program Files\Microsoft Visual Studio\2022\Professional\VC\Tools\MSVC\14.44.35207\include\xtree
; File C:\Program Files\Microsoft Visual Studio\2022\Professional\VC\Tools\MSVC\14.44.35207\include\xmemory
; File C:\Program Files\Microsoft Visual Studio\2022\Professional\VC\Tools\MSVC\14.44.35207\include\xtree
; File C:\Program Files\Microsoft Visual Studio\2022\Professional\VC\Tools\MSVC\14.44.35207\include\xmemory
; File C:\Program Files\Microsoft Visual Studio\2022\Professional\VC\Tools\MSVC\14.44.35207\include\xtree
; File C:\IAGOS\server\v18\Source\Source\_Network\Mcl\Include\CMclCritSec.h
; File C:\IAGOS\server\v18\Source\Source\_network\net\src\serversocke.cpp
; File C:\Program Files\Microsoft Visual Studio\2022\Professional\VC\Tools\MSVC\14.44.35207\include\xtree
; File C:\IAGOS\server\v18\Source\Source\_network\net\src\serversocke.cpp
;	COMDAT ?AddChild@CServerSockE@@QAEPAVCClientSockE@@I@Z
_TEXT	SEGMENT
$T2 = -48						; size = 12
__Loc$3 = -36						; size = 12
$T4 = -24						; size = 8
$T5 = -24						; size = 8
$T6 = -16						; size = 4
tv637 = -16						; size = 4
__$EHRec$ = -12						; size = 12
_hSocket$ = 8						; size = 4
?AddChild@CServerSockE@@QAEPAVCClientSockE@@I@Z PROC	; CServerSockE::AddChild, COMDAT
; _this$ = ecx

; 75   : {

  00000	55		 push	 ebp
  00001	8b ec		 mov	 ebp, esp
  00003	6a ff		 push	 -1
  00005	68 00 00 00 00	 push	 __ehhandler$?AddChild@CServerSockE@@QAEPAVCClientSockE@@I@Z
  0000a	64 a1 00 00 00
	00		 mov	 eax, DWORD PTR fs:0
  00010	50		 push	 eax
  00011	83 ec 24	 sub	 esp, 36			; 00000024H
  00014	53		 push	 ebx
  00015	56		 push	 esi
  00016	57		 push	 edi
  00017	a1 00 00 00 00	 mov	 eax, DWORD PTR ___security_cookie
  0001c	33 c5		 xor	 eax, ebp
  0001e	50		 push	 eax
  0001f	8d 45 f4	 lea	 eax, DWORD PTR __$EHRec$[ebp]
  00022	64 a3 00 00 00
	00		 mov	 DWORD PTR fs:0, eax
  00028	8b d9		 mov	 ebx, ecx

; 76   : #ifdef __CRC
; 77   : 	CClientSockE* pChild		= new CClientSockE( m_dwcrc );
; 78   : #else	// __CRC
; 79   : 	CClientSockE* pChild		= new CClientSockE( m_nBufferType );

  0002a	68 7c 04 00 00	 push	 1148			; 0000047cH
  0002f	e8 00 00 00 00	 call	 ??2@YAPAXI@Z		; operator new
  00034	83 c4 04	 add	 esp, 4
  00037	89 45 f0	 mov	 DWORD PTR $T6[ebp], eax
  0003a	c7 45 fc 00 00
	00 00		 mov	 DWORD PTR __$EHRec$[ebp+8], 0
  00041	85 c0		 test	 eax, eax
  00043	74 0e		 je	 SHORT $LN3@AddChild
  00045	ff 73 48	 push	 DWORD PTR [ebx+72]
  00048	8b c8		 mov	 ecx, eax
  0004a	e8 00 00 00 00	 call	 ??0CClientSockE@@QAE@W4BUFFER_TYPE@@@Z ; CClientSockE::CClientSockE
  0004f	8b f8		 mov	 edi, eax
  00051	eb 02		 jmp	 SHORT $LN4@AddChild
$LN3@AddChild:
  00053	33 ff		 xor	 edi, edi
$LN4@AddChild:

; 80   : #endif	// __CRC
; 81   : 	pChild->Attach( hSocket );

  00055	8b 07		 mov	 eax, DWORD PTR [edi]
  00057	8b cf		 mov	 ecx, edi
  00059	8b 75 08	 mov	 esi, DWORD PTR _hSocket$[ebp]
  0005c	56		 push	 esi
  0005d	c7 45 fc ff ff
	ff ff		 mov	 DWORD PTR __$EHRec$[ebp+8], -1
  00064	ff 50 08	 call	 DWORD PTR [eax+8]
; File C:\IAGOS\server\v18\Source\Source\_Network\Mcl\Include\CMclCritSec.h

; 33   : 		::EnterCriticalSection( &m_CritSec );

  00067	8d 43 2c	 lea	 eax, DWORD PTR [ebx+44]
  0006a	50		 push	 eax
  0006b	89 45 f0	 mov	 DWORD PTR tv637[ebp], eax
  0006e	ff 15 00 00 00
	00		 call	 DWORD PTR __imp__EnterCriticalSection@4
; File C:\Program Files\Microsoft Visual Studio\2022\Professional\VC\Tools\MSVC\14.44.35207\include\xtree

; 1017 :             _Loc                = _Find_lower_bound(_Keyval);

  00074	8d 45 e8	 lea	 eax, DWORD PTR $T4[ebp]
; File C:\Program Files\Microsoft Visual Studio\2022\Professional\VC\Tools\MSVC\14.44.35207\include\utility

; 274  :         : first(_STD forward<_Other1>(_Val1)), second(_STD forward<_Other2>(_Val2)) {

  00077	89 75 e8	 mov	 DWORD PTR $T4[ebp], esi
; File C:\Program Files\Microsoft Visual Studio\2022\Professional\VC\Tools\MSVC\14.44.35207\include\xtree

; 1017 :             _Loc                = _Find_lower_bound(_Keyval);

  0007a	50		 push	 eax
  0007b	8d 45 d0	 lea	 eax, DWORD PTR $T2[ebp]
; File C:\Program Files\Microsoft Visual Studio\2022\Professional\VC\Tools\MSVC\14.44.35207\include\utility

; 274  :         : first(_STD forward<_Other1>(_Val1)), second(_STD forward<_Other2>(_Val2)) {

  0007e	89 7d ec	 mov	 DWORD PTR $T4[ebp+4], edi
; File C:\IAGOS\server\v18\Source\Source\_network\net\src\serversocke.cpp

; 84   : 	bool bResult	= m_mapChild.insert( CMapChildE::value_type( hSocket, pChild ) ).second;

  00081	83 c3 20	 add	 ebx, 32			; 00000020H
; File C:\Program Files\Microsoft Visual Studio\2022\Professional\VC\Tools\MSVC\14.44.35207\include\xtree

; 1017 :             _Loc                = _Find_lower_bound(_Keyval);

  00084	50		 push	 eax
  00085	8b cb		 mov	 ecx, ebx
  00087	e8 00 00 00 00	 call	 ??$_Find_lower_bound@K@?$_Tree@V?$_Tmap_traits@KPAVCClientSockE@@U?$less@K@std@@V?$allocator@U?$pair@$$CBKPAVCClientSockE@@@std@@@3@$0A@@std@@@std@@IBE?AU?$_Tree_find_result@PAU?$_Tree_node@U?$pair@$$CBKPAVCClientSockE@@@std@@PAX@std@@@1@ABK@Z ; std::_Tree<std::_Tmap_traits<unsigned long,CClientSockE *,std::less<unsigned long>,std::allocator<std::pair<unsigned long const ,CClientSockE *> >,0> >::_Find_lower_bound<unsigned long>
  0008c	f3 0f 7e 00	 movq	 xmm0, QWORD PTR [eax]
  00090	8b 40 08	 mov	 eax, DWORD PTR [eax+8]
  00093	66 0f d6 45 dc	 movq	 QWORD PTR __Loc$3[ebp], xmm0

; 1624 :         return !_Bound->_Isnil && !_DEBUG_LT_PRED(_Getcomp(), _Keyval, _Traits::_Kfn(_Bound->_Myval));

  00098	80 78 0d 00	 cmp	 BYTE PTR [eax+13], 0
  0009c	75 05		 jne	 SHORT $LN21@AddChild
; File C:\Program Files\Microsoft Visual Studio\2022\Professional\VC\Tools\MSVC\14.44.35207\include\type_traits

; 2380 :         return _Left < _Right;

  0009e	3b 70 10	 cmp	 esi, DWORD PTR [eax+16]
; File C:\Program Files\Microsoft Visual Studio\2022\Professional\VC\Tools\MSVC\14.44.35207\include\xtree

; 1624 :         return !_Bound->_Isnil && !_DEBUG_LT_PRED(_Getcomp(), _Keyval, _Traits::_Kfn(_Bound->_Myval));

  000a1	73 4b		 jae	 SHORT $LN96@AddChild
$LN21@AddChild:

; 1648 :         if (max_size() == _Get_scary()->_Mysize) {

  000a3	81 7b 04 aa aa
	aa 0a		 cmp	 DWORD PTR [ebx+4], 178956970 ; 0aaaaaaaH
  000aa	74 61		 je	 SHORT $LN120@AddChild

; 1023 :             _Inserted = _Tree_temp_node<_Alnode>(_Getal(), _Scary->_Myhead, _STD forward<_Valtys>(_Vals)...)._Release();

  000ac	8b 33		 mov	 esi, DWORD PTR [ebx]
; File C:\Program Files\Microsoft Visual Studio\2022\Professional\VC\Tools\MSVC\14.44.35207\include\xmemory

; 1160 :     _CONSTEXPR20 explicit _Alloc_construct_ptr(_Alloc& _Al_) : _Al(_Al_), _Ptr(nullptr) {}

  000ae	89 5d e8	 mov	 DWORD PTR $T5[ebp], ebx

; 136  :         return ::operator new(_Bytes);

  000b1	6a 18		 push	 24			; 00000018H
; File C:\Program Files\Microsoft Visual Studio\2022\Professional\VC\Tools\MSVC\14.44.35207\include\xtree

; 808  :     explicit _Tree_temp_node_alloc(_Alnode& _Al_) : _Alloc_construct_ptr<_Alnode>(_Al_) {

  000b3	c7 45 fc 01 00
	00 00		 mov	 DWORD PTR __$EHRec$[ebp+8], 1
; File C:\Program Files\Microsoft Visual Studio\2022\Professional\VC\Tools\MSVC\14.44.35207\include\xmemory

; 1167 :         _Ptr = nullptr; // if allocate throws, prevents double-free

  000ba	c7 45 ec 00 00
	00 00		 mov	 DWORD PTR $T5[ebp+4], 0

; 136  :         return ::operator new(_Bytes);

  000c1	e8 00 00 00 00	 call	 ??2@YAPAXI@Z		; operator new
; File C:\Program Files\Microsoft Visual Studio\2022\Professional\VC\Tools\MSVC\14.44.35207\include\xtree

; 830  :         _Alnode_traits::construct(this->_Al, _STD addressof(this->_Ptr->_Myval), _STD forward<_Valtys>(_Vals)...);

  000c6	8b 4d 08	 mov	 ecx, DWORD PTR _hSocket$[ebp]
; File C:\Program Files\Microsoft Visual Studio\2022\Professional\VC\Tools\MSVC\14.44.35207\include\xmemory

; 136  :         return ::operator new(_Bytes);

  000c9	83 c4 04	 add	 esp, 4
; File C:\Program Files\Microsoft Visual Studio\2022\Professional\VC\Tools\MSVC\14.44.35207\include\xtree

; 830  :         _Alnode_traits::construct(this->_Al, _STD addressof(this->_Ptr->_Myval), _STD forward<_Valtys>(_Vals)...);

  000cc	89 48 10	 mov	 DWORD PTR [eax+16], ecx

; 1042 :         return {_Scary->_Insert_node(_Loc._Location, _Inserted), true};

  000cf	8b cb		 mov	 ecx, ebx
  000d1	50		 push	 eax
  000d2	ff 75 e0	 push	 DWORD PTR __Loc$3[ebp+4]

; 830  :         _Alnode_traits::construct(this->_Al, _STD addressof(this->_Ptr->_Myval), _STD forward<_Valtys>(_Vals)...);

  000d5	89 78 14	 mov	 DWORD PTR [eax+20], edi

; 1042 :         return {_Scary->_Insert_node(_Loc._Location, _Inserted), true};

  000d8	ff 75 dc	 push	 DWORD PTR __Loc$3[ebp]

; 831  :         _Construct_in_place(this->_Ptr->_Left, _Myhead);

  000db	89 30		 mov	 DWORD PTR [eax], esi

; 832  :         _Construct_in_place(this->_Ptr->_Parent, _Myhead);

  000dd	89 70 04	 mov	 DWORD PTR [eax+4], esi

; 833  :         _Construct_in_place(this->_Ptr->_Right, _Myhead);

  000e0	89 70 08	 mov	 DWORD PTR [eax+8], esi

; 834  :         this->_Ptr->_Color = _Red;

  000e3	66 c7 40 0c 00
	00		 mov	 WORD PTR [eax+12], 0

; 1042 :         return {_Scary->_Insert_node(_Loc._Location, _Inserted), true};

  000e9	e8 00 00 00 00	 call	 ?_Insert_node@?$_Tree_val@U?$_Tree_simple_types@U?$pair@$$CBKPAVCClientSockE@@@std@@@std@@@std@@QAEPAU?$_Tree_node@U?$pair@$$CBKPAVCClientSockE@@@std@@PAX@2@U?$_Tree_id@PAU?$_Tree_node@U?$pair@$$CBKPAVCClientSockE@@@std@@PAX@std@@@2@QAU32@@Z ; std::_Tree_val<std::_Tree_simple_types<std::pair<unsigned long const ,CClientSockE *> > >::_Insert_node
$LN96@AddChild:
; File C:\IAGOS\server\v18\Source\Source\_Network\Mcl\Include\CMclCritSec.h

; 39   : 		::LeaveCriticalSection( &m_CritSec );

  000ee	ff 75 f0	 push	 DWORD PTR tv637[ebp]
  000f1	ff 15 00 00 00
	00		 call	 DWORD PTR __imp__LeaveCriticalSection@4
; File C:\IAGOS\server\v18\Source\Source\_network\net\src\serversocke.cpp

; 90   : 	return pChild;

  000f7	8b c7		 mov	 eax, edi

; 91   : }

  000f9	8b 4d f4	 mov	 ecx, DWORD PTR __$EHRec$[ebp]
  000fc	64 89 0d 00 00
	00 00		 mov	 DWORD PTR fs:0, ecx
  00103	59		 pop	 ecx
  00104	5f		 pop	 edi
  00105	5e		 pop	 esi
  00106	5b		 pop	 ebx
  00107	8b e5		 mov	 esp, ebp
  00109	5d		 pop	 ebp
  0010a	c2 04 00	 ret	 4
$LN120@AddChild:
; File C:\Program Files\Microsoft Visual Studio\2022\Professional\VC\Tools\MSVC\14.44.35207\include\xtree

; 1649 :             _Throw_tree_length_error();

  0010d	e8 00 00 00 00	 call	 ?_Throw_tree_length_error@std@@YAXXZ ; std::_Throw_tree_length_error
$LN118@AddChild:
  00112	cc		 int	 3
_TEXT	ENDS
;	COMDAT text$x
text$x	SEGMENT
__unwindfunclet$?AddChild@CServerSockE@@QAEPAVCClientSockE@@I@Z$0:
  00000	68 7c 04 00 00	 push	 1148			; 0000047cH
  00005	8b 45 f0	 mov	 eax, DWORD PTR $T6[ebp]
  00008	50		 push	 eax
  00009	e8 00 00 00 00	 call	 ??3@YAXPAXI@Z		; operator delete
  0000e	83 c4 08	 add	 esp, 8
  00011	c3		 ret	 0
__unwindfunclet$?AddChild@CServerSockE@@QAEPAVCClientSockE@@I@Z$3:
  00012	8d 4d e8	 lea	 ecx, DWORD PTR $T5[ebp]
  00015	e9 00 00 00 00	 jmp	 ??1?$_Alloc_construct_ptr@V?$allocator@U?$_Tree_node@U?$pair@$$CBKPAVCClientSockE@@@std@@PAX@std@@@std@@@std@@QAE@XZ ; std::_Alloc_construct_ptr<std::allocator<std::_Tree_node<std::pair<unsigned long const ,CClientSockE *>,void *> > >::~_Alloc_construct_ptr<std::allocator<std::_Tree_node<std::pair<unsigned long const ,CClientSockE *>,void *> > >
  0001a	cc		 int	 3
  0001b	cc		 int	 3
  0001c	cc		 int	 3
  0001d	cc		 int	 3
  0001e	cc		 int	 3
__ehhandler$?AddChild@CServerSockE@@QAEPAVCClientSockE@@I@Z:
  0001f	90		 npad	 1
  00020	90		 npad	 1
  00021	8b 54 24 08	 mov	 edx, DWORD PTR [esp+8]
  00025	8d 42 0c	 lea	 eax, DWORD PTR [edx+12]
  00028	8b 4a cc	 mov	 ecx, DWORD PTR [edx-52]
  0002b	33 c8		 xor	 ecx, eax
  0002d	e8 00 00 00 00	 call	 @__security_check_cookie@4
  00032	b8 00 00 00 00	 mov	 eax, OFFSET __ehfuncinfo$?AddChild@CServerSockE@@QAEPAVCClientSockE@@I@Z
  00037	e9 00 00 00 00	 jmp	 ___CxxFrameHandler3
text$x	ENDS
?AddChild@CServerSockE@@QAEPAVCClientSockE@@I@Z ENDP	; CServerSockE::AddChild
; Function compile flags: /Ogtp
; File C:\IAGOS\server\v18\Source\Source\_network\net\src\serversocke.cpp
;	COMDAT ?Listen@CServerSockE@@QAEHXZ
_TEXT	SEGMENT
?Listen@CServerSockE@@QAEHXZ PROC			; CServerSockE::Listen, COMDAT
; _this$ = ecx

; 35   : {

  00000	56		 push	 esi
  00001	8b f1		 mov	 esi, ecx

; 36   : 	if( m_hSocket == INVALID_SOCKET )

  00003	8b 46 04	 mov	 eax, DWORD PTR [esi+4]
  00006	83 f8 ff	 cmp	 eax, -1
  00009	74 28		 je	 SHORT $LN6@Listen

; 37   : 		return FALSE;
; 38   : 
; 39   : 	if( SOCKET_ERROR == WSAEventSelect( m_hSocket, m_hListen, FD_ACCEPT | FD_CONNECT ) )

  0000b	6a 18		 push	 24			; 00000018H
  0000d	ff 76 18	 push	 DWORD PTR [esi+24]
  00010	50		 push	 eax
  00011	ff 15 00 00 00
	00		 call	 DWORD PTR __imp__WSAEventSelect@12
  00017	83 f8 ff	 cmp	 eax, -1
  0001a	74 17		 je	 SHORT $LN6@Listen

; 40   : 	{
; 41   : 		TRACE( " Can't set event with error %d\n", WSAGetLastError() );
; 42   : 		return FALSE;
; 43   : 	}
; 44   : 	if( listen( m_hSocket, 5 ) == SOCKET_ERROR )

  0001c	6a 05		 push	 5
  0001e	ff 76 04	 push	 DWORD PTR [esi+4]
  00021	ff 15 00 00 00
	00		 call	 DWORD PTR __imp__listen@8
  00027	33 c9		 xor	 ecx, ecx
  00029	83 f8 ff	 cmp	 eax, -1
  0002c	5e		 pop	 esi
  0002d	0f 95 c1	 setne	 cl
  00030	8b c1		 mov	 eax, ecx

; 48   : 	}
; 49   : 	return TRUE;
; 50   : }

  00032	c3		 ret	 0
$LN6@Listen:

; 45   : 	{
; 46   : 		TRACE( "Listen failed with error %d\n", WSAGetLastError() );
; 47   : 		return FALSE;

  00033	33 c0		 xor	 eax, eax
  00035	5e		 pop	 esi

; 48   : 	}
; 49   : 	return TRUE;
; 50   : }

  00036	c3		 ret	 0
?Listen@CServerSockE@@QAEHXZ ENDP			; CServerSockE::Listen
_TEXT	ENDS
; Function compile flags: /Ogtp
; File C:\IAGOS\server\v18\Source\Source\_network\net\src\serversocke.cpp
; File C:\IAGOS\server\v18\Source\Source\_Network\Mcl\Include\CMclCritSec.h
; File C:\IAGOS\server\v18\Source\Source\_network\net\src\serversocke.cpp
; File C:\IAGOS\server\v18\Source\Source\_Network\Mcl\Include\CMclCritSec.h
; File C:\IAGOS\server\v18\Source\Source\_Network\Net\Include\serversocke.h
; File C:\IAGOS\server\v18\Source\Source\_Network\Mcl\Include\CMclCritSec.h
; File C:\IAGOS\server\v18\Source\Source\_Network\Net\Include\serversocke.h
; File C:\IAGOS\server\v18\Source\Source\_network\net\src\serversocke.cpp
;	COMDAT ??1CServerSockE@@UAE@XZ
_TEXT	SEGMENT
??1CServerSockE@@UAE@XZ PROC				; CServerSockE::~CServerSockE, COMDAT
; _this$ = ecx

; 30   : {

  00000	56		 push	 esi
  00001	8b f1		 mov	 esi, ecx
; File C:\IAGOS\server\v18\Source\Source\_Network\Mcl\Include\CMclCritSec.h

; 27   : 		::DeleteCriticalSection( &m_CritSec );

  00003	8d 46 2c	 lea	 eax, DWORD PTR [esi+44]
; File C:\IAGOS\server\v18\Source\Source\_network\net\src\serversocke.cpp

; 30   : {

  00006	c7 06 00 00 00
	00		 mov	 DWORD PTR [esi], OFFSET ??_7CServerSockE@@6B@
; File C:\IAGOS\server\v18\Source\Source\_Network\Mcl\Include\CMclCritSec.h

; 27   : 		::DeleteCriticalSection( &m_CritSec );

  0000c	50		 push	 eax
; File C:\IAGOS\server\v18\Source\Source\_Network\Net\Include\serversocke.h

; 14   : 	virtual	~CMapChildE()	{}

  0000d	c7 46 1c 00 00
	00 00		 mov	 DWORD PTR [esi+28], OFFSET ??_7CMapChildE@@6B@
; File C:\IAGOS\server\v18\Source\Source\_Network\Mcl\Include\CMclCritSec.h

; 26   : 	{

  00014	c7 46 28 00 00
	00 00		 mov	 DWORD PTR [esi+40], OFFSET ??_7CMclCritSec@@6B@

; 27   : 		::DeleteCriticalSection( &m_CritSec );

  0001b	ff 15 00 00 00
	00		 call	 DWORD PTR __imp__DeleteCriticalSection@4
; File C:\IAGOS\server\v18\Source\Source\_Network\Net\Include\serversocke.h

; 14   : 	virtual	~CMapChildE()	{}

  00021	8d 4e 20	 lea	 ecx, DWORD PTR [esi+32]
  00024	e8 00 00 00 00	 call	 ??1?$_Tree@V?$_Tmap_traits@KPAVCClientSockE@@U?$less@K@std@@V?$allocator@U?$pair@$$CBKPAVCClientSockE@@@std@@@3@$0A@@std@@@std@@QAE@XZ ; std::_Tree<std::_Tmap_traits<unsigned long,CClientSockE *,std::less<unsigned long>,std::allocator<std::pair<unsigned long const ,CClientSockE *> >,0> >::~_Tree<std::_Tmap_traits<unsigned long,CClientSockE *,std::less<unsigned long>,std::allocator<std::pair<unsigned long const ,CClientSockE *> >,0> >
; File C:\IAGOS\server\v18\Source\Source\_network\net\src\serversocke.cpp

; 32   : }

  00029	8b ce		 mov	 ecx, esi
  0002b	5e		 pop	 esi
  0002c	e9 00 00 00 00	 jmp	 ??1CSock@@UAE@XZ	; CSock::~CSock
??1CServerSockE@@UAE@XZ ENDP				; CServerSockE::~CServerSockE
_TEXT	ENDS
; Function compile flags: /Ogtp
; File C:\IAGOS\server\v18\Source\Source\_network\net\src\serversocke.cpp
; File C:\IAGOS\server\v18\Source\Source\_Network\Net\Include\serversocke.h
; File C:\IAGOS\server\v18\Source\Source\_network\net\src\serversocke.cpp
; File C:\Program Files\Microsoft Visual Studio\2022\Professional\VC\Tools\MSVC\14.44.35207\include\xmemory
; File C:\IAGOS\server\v18\Source\Source\_network\net\src\serversocke.cpp
; File C:\IAGOS\server\v18\Source\Source\_Network\Net\Include\serversocke.h
; File C:\Program Files\Microsoft Visual Studio\2022\Professional\VC\Tools\MSVC\14.44.35207\include\xtree
; File C:\Program Files\Microsoft Visual Studio\2022\Professional\VC\Tools\MSVC\14.44.35207\include\xmemory
; File C:\Program Files\Microsoft Visual Studio\2022\Professional\VC\Tools\MSVC\14.44.35207\include\xtree
; File C:\IAGOS\server\v18\Source\Source\_Network\Mcl\Include\CMclCritSec.h
; File C:\IAGOS\server\v18\Source\Source\_Network\Net\Include\serversocke.h
; File C:\IAGOS\server\v18\Source\Source\_Network\Mcl\Include\CMclCritSec.h
; File C:\IAGOS\server\v18\Source\Source\_network\net\src\serversocke.cpp
;	COMDAT ??0CServerSockE@@QAE@W4BUFFER_TYPE@@@Z
_TEXT	SEGMENT
_this$ = -20						; size = 4
_this$ = -20						; size = 4
_this$ = -16						; size = 4
__$EHRec$ = -12						; size = 12
_nBufferType$ = 8					; size = 4
??0CServerSockE@@QAE@W4BUFFER_TYPE@@@Z PROC		; CServerSockE::CServerSockE, COMDAT
; _this$ = ecx

; 12   : {

  00000	55		 push	 ebp
  00001	8b ec		 mov	 ebp, esp
  00003	6a ff		 push	 -1
  00005	68 00 00 00 00	 push	 __ehhandler$??0CServerSockE@@QAE@W4BUFFER_TYPE@@@Z
  0000a	64 a1 00 00 00
	00		 mov	 eax, DWORD PTR fs:0
  00010	50		 push	 eax
  00011	83 ec 08	 sub	 esp, 8
  00014	53		 push	 ebx
  00015	56		 push	 esi
  00016	57		 push	 edi
  00017	a1 00 00 00 00	 mov	 eax, DWORD PTR ___security_cookie
  0001c	33 c5		 xor	 eax, ebp
  0001e	50		 push	 eax
  0001f	8d 45 f4	 lea	 eax, DWORD PTR __$EHRec$[ebp]
  00022	64 a3 00 00 00
	00		 mov	 DWORD PTR fs:0, eax
  00028	8b d9		 mov	 ebx, ecx
  0002a	89 5d f0	 mov	 DWORD PTR _this$[ebp], ebx
  0002d	e8 00 00 00 00	 call	 ??0CSock@@QAE@XZ	; CSock::CSock
  00032	8d 7b 1c	 lea	 edi, DWORD PTR [ebx+28]
  00035	c7 03 00 00 00
	00		 mov	 DWORD PTR [ebx], OFFSET ??_7CServerSockE@@6B@
; File C:\IAGOS\server\v18\Source\Source\_Network\Net\Include\serversocke.h

; 13   : 	CMapChildE()	{}

  0003b	8d 77 04	 lea	 esi, DWORD PTR [edi+4]
; File C:\IAGOS\server\v18\Source\Source\_network\net\src\serversocke.cpp

; 12   : {

  0003e	89 7d ec	 mov	 DWORD PTR _this$[ebp], edi
; File C:\Program Files\Microsoft Visual Studio\2022\Professional\VC\Tools\MSVC\14.44.35207\include\xmemory

; 136  :         return ::operator new(_Bytes);

  00041	6a 18		 push	 24			; 00000018H
; File C:\IAGOS\server\v18\Source\Source\_network\net\src\serversocke.cpp

; 12   : {

  00043	c7 45 fc 00 00
	00 00		 mov	 DWORD PTR __$EHRec$[ebp+8], 0
; File C:\IAGOS\server\v18\Source\Source\_Network\Net\Include\serversocke.h

; 13   : 	CMapChildE()	{}

  0004a	89 75 ec	 mov	 DWORD PTR _this$[ebp], esi
; File C:\Program Files\Microsoft Visual Studio\2022\Professional\VC\Tools\MSVC\14.44.35207\include\xtree

; 450  :     _Tree_val() noexcept : _Myhead(), _Mysize(0) {}

  0004d	c7 06 00 00 00
	00		 mov	 DWORD PTR [esi], 0
  00053	c7 46 04 00 00
	00 00		 mov	 DWORD PTR [esi+4], 0
; File C:\Program Files\Microsoft Visual Studio\2022\Professional\VC\Tools\MSVC\14.44.35207\include\xmemory

; 136  :         return ::operator new(_Bytes);

  0005a	e8 00 00 00 00	 call	 ??2@YAPAXI@Z		; operator new
  0005f	83 c4 04	 add	 esp, 4
; File C:\Program Files\Microsoft Visual Studio\2022\Professional\VC\Tools\MSVC\14.44.35207\include\xtree

; 346  :         _Construct_in_place(_Pnode->_Left, _Pnode);

  00062	89 00		 mov	 DWORD PTR [eax], eax

; 347  :         _Construct_in_place(_Pnode->_Parent, _Pnode);

  00064	89 40 04	 mov	 DWORD PTR [eax+4], eax

; 348  :         _Construct_in_place(_Pnode->_Right, _Pnode);

  00067	89 40 08	 mov	 DWORD PTR [eax+8], eax

; 349  :         _Pnode->_Color = _Black;

  0006a	66 c7 40 0c 01
	01		 mov	 WORD PTR [eax+12], 257	; 00000101H

; 1957 :         _Scary->_Myhead = _Node::_Buyheadnode(_Getal());

  00070	89 06		 mov	 DWORD PTR [esi], eax
; File C:\IAGOS\server\v18\Source\Source\_Network\Mcl\Include\CMclCritSec.h

; 21   : 		::InitializeCriticalSection( &m_CritSec );

  00072	8d 47 10	 lea	 eax, DWORD PTR [edi+16]
; File C:\IAGOS\server\v18\Source\Source\_Network\Net\Include\serversocke.h

; 13   : 	CMapChildE()	{}

  00075	c7 07 00 00 00
	00		 mov	 DWORD PTR [edi], OFFSET ??_7CMapChildE@@6B@
; File C:\IAGOS\server\v18\Source\Source\_Network\Mcl\Include\CMclCritSec.h

; 21   : 		::InitializeCriticalSection( &m_CritSec );

  0007b	50		 push	 eax
  0007c	c7 47 0c 00 00
	00 00		 mov	 DWORD PTR [edi+12], OFFSET ??_7CMclCritSec@@6B@
  00083	ff 15 00 00 00
	00		 call	 DWORD PTR __imp__InitializeCriticalSection@4
; File C:\IAGOS\server\v18\Source\Source\_network\net\src\serversocke.cpp

; 25   : 	m_nBufferType = nBufferType;

  00089	8b 45 08	 mov	 eax, DWORD PTR _nBufferType$[ebp]
  0008c	89 43 48	 mov	 DWORD PTR [ebx+72], eax

; 26   : #endif	// __CRC
; 27   : }

  0008f	8b c3		 mov	 eax, ebx
  00091	c7 43 10 00 00
	00 00		 mov	 DWORD PTR [ebx+16], 0
  00098	c7 43 14 00 00
	00 00		 mov	 DWORD PTR [ebx+20], 0
  0009f	c7 43 18 00 00
	00 00		 mov	 DWORD PTR [ebx+24], 0
  000a6	c7 43 44 00 00
	00 00		 mov	 DWORD PTR [ebx+68], 0
  000ad	8b 4d f4	 mov	 ecx, DWORD PTR __$EHRec$[ebp]
  000b0	64 89 0d 00 00
	00 00		 mov	 DWORD PTR fs:0, ecx
  000b7	59		 pop	 ecx
  000b8	5f		 pop	 edi
  000b9	5e		 pop	 esi
  000ba	5b		 pop	 ebx
  000bb	8b e5		 mov	 esp, ebp
  000bd	5d		 pop	 ebp
  000be	c2 04 00	 ret	 4
_TEXT	ENDS
;	COMDAT text$x
text$x	SEGMENT
__unwindfunclet$??0CServerSockE@@QAE@W4BUFFER_TYPE@@@Z$0:
  00000	8b 4d f0	 mov	 ecx, DWORD PTR _this$[ebp]
  00003	e9 00 00 00 00	 jmp	 ??1CSock@@UAE@XZ	; CSock::~CSock
  00008	cc		 int	 3
  00009	cc		 int	 3
  0000a	cc		 int	 3
  0000b	cc		 int	 3
  0000c	cc		 int	 3
__ehhandler$??0CServerSockE@@QAE@W4BUFFER_TYPE@@@Z:
  0000d	90		 npad	 1
  0000e	90		 npad	 1
  0000f	8b 54 24 08	 mov	 edx, DWORD PTR [esp+8]
  00013	8d 42 0c	 lea	 eax, DWORD PTR [edx+12]
  00016	8b 4a e8	 mov	 ecx, DWORD PTR [edx-24]
  00019	33 c8		 xor	 ecx, eax
  0001b	e8 00 00 00 00	 call	 @__security_check_cookie@4
  00020	b8 00 00 00 00	 mov	 eax, OFFSET __ehfuncinfo$??0CServerSockE@@QAE@W4BUFFER_TYPE@@@Z
  00025	e9 00 00 00 00	 jmp	 ___CxxFrameHandler3
text$x	ENDS
??0CServerSockE@@QAE@W4BUFFER_TYPE@@@Z ENDP		; CServerSockE::CServerSockE
; Function compile flags: /Ogtp
; File C:\IAGOS\server\v18\Source\Source\_Network\Net\Include\serversocke.h
; File C:\IAGOS\server\v18\Source\Source\_Network\Mcl\Include\CMclCritSec.h
; File C:\IAGOS\server\v18\Source\Source\_Network\Net\Include\serversocke.h
; File C:\IAGOS\server\v18\Source\Source\_Network\Mcl\Include\CMclCritSec.h
; File C:\IAGOS\server\v18\Source\Source\_Network\Net\Include\serversocke.h
;	COMDAT ??_GCMapChildE@@UAEPAXI@Z
_TEXT	SEGMENT
___flags$ = 8						; size = 4
??_GCMapChildE@@UAEPAXI@Z PROC				; CMapChildE::`scalar deleting destructor', COMDAT
; _this$ = ecx
  00000	55		 push	 ebp
  00001	8b ec		 mov	 ebp, esp

; 14   : 	virtual	~CMapChildE()	{}

  00003	56		 push	 esi
  00004	8b f1		 mov	 esi, ecx
; File C:\IAGOS\server\v18\Source\Source\_Network\Mcl\Include\CMclCritSec.h

; 27   : 		::DeleteCriticalSection( &m_CritSec );

  00006	8d 46 10	 lea	 eax, DWORD PTR [esi+16]
; File C:\IAGOS\server\v18\Source\Source\_Network\Net\Include\serversocke.h

; 14   : 	virtual	~CMapChildE()	{}

  00009	c7 06 00 00 00
	00		 mov	 DWORD PTR [esi], OFFSET ??_7CMapChildE@@6B@
; File C:\IAGOS\server\v18\Source\Source\_Network\Mcl\Include\CMclCritSec.h

; 27   : 		::DeleteCriticalSection( &m_CritSec );

  0000f	50		 push	 eax
  00010	c7 46 0c 00 00
	00 00		 mov	 DWORD PTR [esi+12], OFFSET ??_7CMclCritSec@@6B@
  00017	ff 15 00 00 00
	00		 call	 DWORD PTR __imp__DeleteCriticalSection@4
; File C:\IAGOS\server\v18\Source\Source\_Network\Net\Include\serversocke.h

; 14   : 	virtual	~CMapChildE()	{}

  0001d	8d 4e 04	 lea	 ecx, DWORD PTR [esi+4]
  00020	e8 00 00 00 00	 call	 ??1?$_Tree@V?$_Tmap_traits@KPAVCClientSockE@@U?$less@K@std@@V?$allocator@U?$pair@$$CBKPAVCClientSockE@@@std@@@3@$0A@@std@@@std@@QAE@XZ ; std::_Tree<std::_Tmap_traits<unsigned long,CClientSockE *,std::less<unsigned long>,std::allocator<std::pair<unsigned long const ,CClientSockE *> >,0> >::~_Tree<std::_Tmap_traits<unsigned long,CClientSockE *,std::less<unsigned long>,std::allocator<std::pair<unsigned long const ,CClientSockE *> >,0> >
  00025	f6 45 08 01	 test	 BYTE PTR ___flags$[ebp], 1
  00029	74 0b		 je	 SHORT $LN18@scalar
  0002b	6a 28		 push	 40			; 00000028H
  0002d	56		 push	 esi
  0002e	e8 00 00 00 00	 call	 ??3@YAXPAXI@Z		; operator delete
  00033	83 c4 08	 add	 esp, 8
$LN18@scalar:
  00036	8b c6		 mov	 eax, esi
  00038	5e		 pop	 esi
  00039	5d		 pop	 ebp
  0003a	c2 04 00	 ret	 4
??_GCMapChildE@@UAEPAXI@Z ENDP				; CMapChildE::`scalar deleting destructor'
_TEXT	ENDS
; Function compile flags: /Ogtp
; File C:\IAGOS\server\v18\Source\Source\_Network\Net\Include\serversocke.h
; File C:\IAGOS\server\v18\Source\Source\_Network\Mcl\Include\CMclCritSec.h
; File C:\IAGOS\server\v18\Source\Source\_Network\Net\Include\serversocke.h
; File C:\IAGOS\server\v18\Source\Source\_Network\Mcl\Include\CMclCritSec.h
; File C:\IAGOS\server\v18\Source\Source\_Network\Net\Include\serversocke.h
;	COMDAT ??1CMapChildE@@UAE@XZ
_TEXT	SEGMENT
??1CMapChildE@@UAE@XZ PROC				; CMapChildE::~CMapChildE, COMDAT
; _this$ = ecx

; 14   : 	virtual	~CMapChildE()	{}

  00000	56		 push	 esi
  00001	8b f1		 mov	 esi, ecx
; File C:\IAGOS\server\v18\Source\Source\_Network\Mcl\Include\CMclCritSec.h

; 27   : 		::DeleteCriticalSection( &m_CritSec );

  00003	8d 46 10	 lea	 eax, DWORD PTR [esi+16]
; File C:\IAGOS\server\v18\Source\Source\_Network\Net\Include\serversocke.h

; 14   : 	virtual	~CMapChildE()	{}

  00006	c7 06 00 00 00
	00		 mov	 DWORD PTR [esi], OFFSET ??_7CMapChildE@@6B@
; File C:\IAGOS\server\v18\Source\Source\_Network\Mcl\Include\CMclCritSec.h

; 27   : 		::DeleteCriticalSection( &m_CritSec );

  0000c	50		 push	 eax
  0000d	c7 46 0c 00 00
	00 00		 mov	 DWORD PTR [esi+12], OFFSET ??_7CMclCritSec@@6B@
  00014	ff 15 00 00 00
	00		 call	 DWORD PTR __imp__DeleteCriticalSection@4
; File C:\IAGOS\server\v18\Source\Source\_Network\Net\Include\serversocke.h

; 14   : 	virtual	~CMapChildE()	{}

  0001a	8d 4e 04	 lea	 ecx, DWORD PTR [esi+4]
  0001d	5e		 pop	 esi
  0001e	e9 00 00 00 00	 jmp	 ??1?$_Tree@V?$_Tmap_traits@KPAVCClientSockE@@U?$less@K@std@@V?$allocator@U?$pair@$$CBKPAVCClientSockE@@@std@@@3@$0A@@std@@@std@@QAE@XZ ; std::_Tree<std::_Tmap_traits<unsigned long,CClientSockE *,std::less<unsigned long>,std::allocator<std::pair<unsigned long const ,CClientSockE *> >,0> >::~_Tree<std::_Tmap_traits<unsigned long,CClientSockE *,std::less<unsigned long>,std::allocator<std::pair<unsigned long const ,CClientSockE *> >,0> >
??1CMapChildE@@UAE@XZ ENDP				; CMapChildE::~CMapChildE
_TEXT	ENDS
; Function compile flags: /Ogtp
; File C:\Program Files\Microsoft Visual Studio\2022\Professional\VC\Tools\MSVC\14.44.35207\include\xtree
;	COMDAT ?_Insert_node@?$_Tree_val@U?$_Tree_simple_types@U?$pair@$$CBKPAVCClientSockE@@@std@@@std@@@std@@QAEPAU?$_Tree_node@U?$pair@$$CBKPAVCClientSockE@@@std@@PAX@2@U?$_Tree_id@PAU?$_Tree_node@U?$pair@$$CBKPAVCClientSockE@@@std@@PAX@std@@@2@QAU32@@Z
_TEXT	SEGMENT
__Head$1$ = -4						; size = 4
__Loc$ = 8						; size = 8
__Newnode$ = 16						; size = 4
?_Insert_node@?$_Tree_val@U?$_Tree_simple_types@U?$pair@$$CBKPAVCClientSockE@@@std@@@std@@@std@@QAEPAU?$_Tree_node@U?$pair@$$CBKPAVCClientSockE@@@std@@PAX@2@U?$_Tree_id@PAU?$_Tree_node@U?$pair@$$CBKPAVCClientSockE@@@std@@PAX@std@@@2@QAU32@@Z PROC ; std::_Tree_val<std::_Tree_simple_types<std::pair<unsigned long const ,CClientSockE *> > >::_Insert_node, COMDAT
; _this$ = ecx

; 669  :     _Nodeptr _Insert_node(const _Tree_id<_Nodeptr> _Loc, const _Nodeptr _Newnode) noexcept {

  00000	55		 push	 ebp
  00001	8b ec		 mov	 ebp, esp
  00003	51		 push	 ecx

; 670  :         ++_Mysize;
; 671  :         const auto _Head  = _Myhead;
; 672  :         _Newnode->_Parent = _Loc._Parent;

  00004	8b 55 08	 mov	 edx, DWORD PTR __Loc$[ebp]
  00007	53		 push	 ebx
  00008	8b d9		 mov	 ebx, ecx
  0000a	57		 push	 edi
  0000b	8b 7d 10	 mov	 edi, DWORD PTR __Newnode$[ebp]
  0000e	8b 03		 mov	 eax, DWORD PTR [ebx]
  00010	ff 43 04	 inc	 DWORD PTR [ebx+4]
  00013	89 45 fc	 mov	 DWORD PTR __Head$1$[ebp], eax
  00016	89 57 04	 mov	 DWORD PTR [edi+4], edx

; 673  :         if (_Loc._Parent == _Head) { // first node in tree, just set head values

  00019	3b d0		 cmp	 edx, eax
  0001b	75 16		 jne	 SHORT $LN5@Insert_nod

; 674  :             _Head->_Left     = _Newnode;

  0001d	89 38		 mov	 DWORD PTR [eax], edi

; 675  :             _Head->_Parent   = _Newnode;

  0001f	89 78 04	 mov	 DWORD PTR [eax+4], edi

; 676  :             _Head->_Right    = _Newnode;

  00022	89 78 08	 mov	 DWORD PTR [eax+8], edi

; 735  :         return _Newnode;
; 736  :     }

  00025	8b c7		 mov	 eax, edi
  00027	c6 47 0c 01	 mov	 BYTE PTR [edi+12], 1
  0002b	5f		 pop	 edi
  0002c	5b		 pop	 ebx
  0002d	8b e5		 mov	 esp, ebp
  0002f	5d		 pop	 ebp
  00030	c2 0c 00	 ret	 12			; 0000000cH
$LN5@Insert_nod:

; 677  :             _Newnode->_Color = _Black; // the root is black
; 678  :             return _Newnode;
; 679  :         }
; 680  : 
; 681  :         _STL_INTERNAL_CHECK(_Loc._Child != _Tree_child::_Unused);
; 682  :         if (_Loc._Child == _Tree_child::_Right) { // add to right of _Loc._Parent

  00033	83 7d 0c 00	 cmp	 DWORD PTR __Loc$[ebp+4], 0
  00037	75 0d		 jne	 SHORT $LN6@Insert_nod

; 683  :             _STL_INTERNAL_CHECK(_Loc._Parent->_Right->_Isnil);
; 684  :             _Loc._Parent->_Right = _Newnode;

  00039	89 7a 08	 mov	 DWORD PTR [edx+8], edi

; 685  :             if (_Loc._Parent == _Head->_Right) { // remember rightmost node

  0003c	3b 50 08	 cmp	 edx, DWORD PTR [eax+8]
  0003f	75 0d		 jne	 SHORT $LN9@Insert_nod

; 686  :                 _Head->_Right = _Newnode;

  00041	89 78 08	 mov	 DWORD PTR [eax+8], edi

; 687  :             }
; 688  :         } else { // add to left of _Loc._Parent

  00044	eb 08		 jmp	 SHORT $LN9@Insert_nod
$LN6@Insert_nod:

; 689  :             _STL_INTERNAL_CHECK(_Loc._Parent->_Left->_Isnil);
; 690  :             _Loc._Parent->_Left = _Newnode;

  00046	89 3a		 mov	 DWORD PTR [edx], edi

; 691  :             if (_Loc._Parent == _Head->_Left) { // remember leftmost node

  00048	3b 10		 cmp	 edx, DWORD PTR [eax]
  0004a	75 02		 jne	 SHORT $LN9@Insert_nod

; 692  :                 _Head->_Left = _Newnode;

  0004c	89 38		 mov	 DWORD PTR [eax], edi
$LN9@Insert_nod:

; 693  :             }
; 694  :         }
; 695  : 
; 696  :         for (_Nodeptr _Pnode = _Newnode; _Pnode->_Parent->_Color == _Red;) {

  0004e	8b 4f 04	 mov	 ecx, DWORD PTR [edi+4]
  00051	8b c7		 mov	 eax, edi
  00053	80 79 0c 00	 cmp	 BYTE PTR [ecx+12], 0
  00057	0f 85 7d 01 00
	00		 jne	 $LN3@Insert_nod
  0005d	56		 push	 esi
  0005e	66 90		 npad	 2
$LL4@Insert_nod:

; 697  :             if (_Pnode->_Parent == _Pnode->_Parent->_Parent->_Left) { // fixup red-red in left subtree

  00060	8b 50 04	 mov	 edx, DWORD PTR [eax+4]
  00063	8b 72 04	 mov	 esi, DWORD PTR [edx+4]
  00066	8b 0e		 mov	 ecx, DWORD PTR [esi]
  00068	3b d1		 cmp	 edx, ecx
  0006a	0f 85 aa 00 00
	00		 jne	 $LN10@Insert_nod

; 698  :                 const auto _Parent_sibling = _Pnode->_Parent->_Parent->_Right;

  00070	8b 4e 08	 mov	 ecx, DWORD PTR [esi+8]

; 699  :                 if (_Parent_sibling->_Color == _Red) { // parent's sibling has two red children, blacken both

  00073	80 79 0c 00	 cmp	 BYTE PTR [ecx+12], 0
  00077	0f 84 a3 00 00
	00		 je	 $LN82@Insert_nod

; 700  :                     _Pnode->_Parent->_Color          = _Black;
; 701  :                     _Parent_sibling->_Color          = _Black;
; 702  :                     _Pnode->_Parent->_Parent->_Color = _Red;
; 703  :                     _Pnode                           = _Pnode->_Parent->_Parent;
; 704  :                 } else { // parent's sibling has red and black children
; 705  :                     if (_Pnode == _Pnode->_Parent->_Right) { // rotate right child to left

  0007d	8b 72 08	 mov	 esi, DWORD PTR [edx+8]
  00080	3b c6		 cmp	 eax, esi
  00082	75 37		 jne	 SHORT $LN57@Insert_nod

; 485  :         _Wherenode->_Right = _Pnode->_Left;

  00084	8b 0e		 mov	 ecx, DWORD PTR [esi]

; 706  :                         _Pnode = _Pnode->_Parent;

  00086	8b c2		 mov	 eax, edx

; 485  :         _Wherenode->_Right = _Pnode->_Left;

  00088	89 4a 08	 mov	 DWORD PTR [edx+8], ecx

; 486  : 
; 487  :         if (!_Pnode->_Left->_Isnil) {

  0008b	8b 0e		 mov	 ecx, DWORD PTR [esi]
  0008d	80 79 0d 00	 cmp	 BYTE PTR [ecx+13], 0
  00091	75 03		 jne	 SHORT $LN21@Insert_nod

; 488  :             _Pnode->_Left->_Parent = _Wherenode;

  00093	89 41 04	 mov	 DWORD PTR [ecx+4], eax
$LN21@Insert_nod:

; 489  :         }
; 490  : 
; 491  :         _Pnode->_Parent = _Wherenode->_Parent;

  00096	8b 4a 04	 mov	 ecx, DWORD PTR [edx+4]
  00099	89 4e 04	 mov	 DWORD PTR [esi+4], ecx

; 492  : 
; 493  :         if (_Wherenode == _Myhead->_Parent) {

  0009c	8b 0b		 mov	 ecx, DWORD PTR [ebx]
  0009e	3b 41 04	 cmp	 eax, DWORD PTR [ecx+4]
  000a1	75 05		 jne	 SHORT $LN22@Insert_nod

; 494  :             _Myhead->_Parent = _Pnode;

  000a3	89 71 04	 mov	 DWORD PTR [ecx+4], esi
  000a6	eb 0e		 jmp	 SHORT $LN25@Insert_nod
$LN22@Insert_nod:

; 495  :         } else if (_Wherenode == _Wherenode->_Parent->_Left) {

  000a8	8b 4a 04	 mov	 ecx, DWORD PTR [edx+4]
  000ab	3b 01		 cmp	 eax, DWORD PTR [ecx]
  000ad	75 04		 jne	 SHORT $LN24@Insert_nod

; 496  :             _Wherenode->_Parent->_Left = _Pnode;

  000af	89 31		 mov	 DWORD PTR [ecx], esi

; 497  :         } else {

  000b1	eb 03		 jmp	 SHORT $LN25@Insert_nod
$LN24@Insert_nod:

; 498  :             _Wherenode->_Parent->_Right = _Pnode;

  000b3	89 71 08	 mov	 DWORD PTR [ecx+8], esi
$LN25@Insert_nod:

; 499  :         }
; 500  : 
; 501  :         _Pnode->_Left       = _Wherenode;

  000b6	89 06		 mov	 DWORD PTR [esi], eax

; 502  :         _Wherenode->_Parent = _Pnode;

  000b8	89 70 04	 mov	 DWORD PTR [eax+4], esi
$LN57@Insert_nod:

; 707  :                         _Lrotate(_Pnode);
; 708  :                     }
; 709  : 
; 710  :                     _Pnode->_Parent->_Color          = _Black; // propagate red up

  000bb	8b 48 04	 mov	 ecx, DWORD PTR [eax+4]
  000be	c6 41 0c 01	 mov	 BYTE PTR [ecx+12], 1

; 711  :                     _Pnode->_Parent->_Parent->_Color = _Red;

  000c2	8b 48 04	 mov	 ecx, DWORD PTR [eax+4]
  000c5	8b 49 04	 mov	 ecx, DWORD PTR [ecx+4]
  000c8	c6 41 0c 00	 mov	 BYTE PTR [ecx+12], 0

; 712  :                     _Rrotate(_Pnode->_Parent->_Parent);

  000cc	8b 48 04	 mov	 ecx, DWORD PTR [eax+4]
  000cf	8b 51 04	 mov	 edx, DWORD PTR [ecx+4]

; 506  :         _Nodeptr _Pnode   = _Wherenode->_Left;

  000d2	8b 32		 mov	 esi, DWORD PTR [edx]

; 507  :         _Wherenode->_Left = _Pnode->_Right;

  000d4	8b 4e 08	 mov	 ecx, DWORD PTR [esi+8]
  000d7	89 0a		 mov	 DWORD PTR [edx], ecx

; 508  : 
; 509  :         if (!_Pnode->_Right->_Isnil) {

  000d9	8b 4e 08	 mov	 ecx, DWORD PTR [esi+8]
  000dc	80 79 0d 00	 cmp	 BYTE PTR [ecx+13], 0
  000e0	75 03		 jne	 SHORT $LN29@Insert_nod

; 510  :             _Pnode->_Right->_Parent = _Wherenode;

  000e2	89 51 04	 mov	 DWORD PTR [ecx+4], edx
$LN29@Insert_nod:

; 511  :         }
; 512  : 
; 513  :         _Pnode->_Parent = _Wherenode->_Parent;

  000e5	8b 4a 04	 mov	 ecx, DWORD PTR [edx+4]
  000e8	89 4e 04	 mov	 DWORD PTR [esi+4], ecx

; 514  : 
; 515  :         if (_Wherenode == _Myhead->_Parent) {

  000eb	8b 0b		 mov	 ecx, DWORD PTR [ebx]
  000ed	3b 51 04	 cmp	 edx, DWORD PTR [ecx+4]
  000f0	75 0b		 jne	 SHORT $LN30@Insert_nod

; 516  :             _Myhead->_Parent = _Pnode;

  000f2	89 71 04	 mov	 DWORD PTR [ecx+4], esi

; 521  :         }
; 522  : 
; 523  :         _Pnode->_Right      = _Wherenode;

  000f5	89 56 08	 mov	 DWORD PTR [esi+8], edx

; 713  :                 }
; 714  :             } else { // fixup red-red in right subtree

  000f8	e9 cc 00 00 00	 jmp	 $LN81@Insert_nod
$LN30@Insert_nod:

; 517  :         } else if (_Wherenode == _Wherenode->_Parent->_Right) {

  000fd	8b 4a 04	 mov	 ecx, DWORD PTR [edx+4]
  00100	3b 51 08	 cmp	 edx, DWORD PTR [ecx+8]
  00103	75 0b		 jne	 SHORT $LN32@Insert_nod

; 518  :             _Wherenode->_Parent->_Right = _Pnode;

  00105	89 71 08	 mov	 DWORD PTR [ecx+8], esi

; 521  :         }
; 522  : 
; 523  :         _Pnode->_Right      = _Wherenode;

  00108	89 56 08	 mov	 DWORD PTR [esi+8], edx

; 713  :                 }
; 714  :             } else { // fixup red-red in right subtree

  0010b	e9 b9 00 00 00	 jmp	 $LN81@Insert_nod
$LN32@Insert_nod:

; 520  :             _Wherenode->_Parent->_Left = _Pnode;

  00110	89 31		 mov	 DWORD PTR [ecx], esi

; 521  :         }
; 522  : 
; 523  :         _Pnode->_Right      = _Wherenode;

  00112	89 56 08	 mov	 DWORD PTR [esi+8], edx

; 713  :                 }
; 714  :             } else { // fixup red-red in right subtree

  00115	e9 af 00 00 00	 jmp	 $LN81@Insert_nod
$LN10@Insert_nod:

; 715  :                 const auto _Parent_sibling = _Pnode->_Parent->_Parent->_Left;
; 716  :                 if (_Parent_sibling->_Color == _Red) { // parent's sibling has two red children, blacken both

  0011a	80 79 0c 00	 cmp	 BYTE PTR [ecx+12], 0
  0011e	75 1d		 jne	 SHORT $LN15@Insert_nod
$LN82@Insert_nod:

; 693  :             }
; 694  :         }
; 695  : 
; 696  :         for (_Nodeptr _Pnode = _Newnode; _Pnode->_Parent->_Color == _Red;) {

  00120	c6 42 0c 01	 mov	 BYTE PTR [edx+12], 1
  00124	c6 41 0c 01	 mov	 BYTE PTR [ecx+12], 1
  00128	8b 48 04	 mov	 ecx, DWORD PTR [eax+4]
  0012b	8b 49 04	 mov	 ecx, DWORD PTR [ecx+4]
  0012e	c6 41 0c 00	 mov	 BYTE PTR [ecx+12], 0
  00132	8b 48 04	 mov	 ecx, DWORD PTR [eax+4]
  00135	8b 41 04	 mov	 eax, DWORD PTR [ecx+4]
  00138	e9 8f 00 00 00	 jmp	 $LN2@Insert_nod
$LN15@Insert_nod:

; 717  :                     _Pnode->_Parent->_Color          = _Black;
; 718  :                     _Parent_sibling->_Color          = _Black;
; 719  :                     _Pnode->_Parent->_Parent->_Color = _Red;
; 720  :                     _Pnode                           = _Pnode->_Parent->_Parent;
; 721  :                 } else { // parent's sibling has red and black children
; 722  :                     if (_Pnode == _Pnode->_Parent->_Left) { // rotate left child to right

  0013d	8b 32		 mov	 esi, DWORD PTR [edx]
  0013f	3b c6		 cmp	 eax, esi
  00141	75 3a		 jne	 SHORT $LN42@Insert_nod

; 507  :         _Wherenode->_Left = _Pnode->_Right;

  00143	8b 4e 08	 mov	 ecx, DWORD PTR [esi+8]

; 723  :                         _Pnode = _Pnode->_Parent;

  00146	8b c2		 mov	 eax, edx

; 507  :         _Wherenode->_Left = _Pnode->_Right;

  00148	89 08		 mov	 DWORD PTR [eax], ecx

; 508  : 
; 509  :         if (!_Pnode->_Right->_Isnil) {

  0014a	8b 4e 08	 mov	 ecx, DWORD PTR [esi+8]
  0014d	80 79 0d 00	 cmp	 BYTE PTR [ecx+13], 0
  00151	75 03		 jne	 SHORT $LN37@Insert_nod

; 510  :             _Pnode->_Right->_Parent = _Wherenode;

  00153	89 41 04	 mov	 DWORD PTR [ecx+4], eax
$LN37@Insert_nod:

; 511  :         }
; 512  : 
; 513  :         _Pnode->_Parent = _Wherenode->_Parent;

  00156	8b 4a 04	 mov	 ecx, DWORD PTR [edx+4]
  00159	89 4e 04	 mov	 DWORD PTR [esi+4], ecx

; 514  : 
; 515  :         if (_Wherenode == _Myhead->_Parent) {

  0015c	8b 0b		 mov	 ecx, DWORD PTR [ebx]
  0015e	3b 41 04	 cmp	 eax, DWORD PTR [ecx+4]
  00161	75 05		 jne	 SHORT $LN38@Insert_nod

; 516  :             _Myhead->_Parent = _Pnode;

  00163	89 71 04	 mov	 DWORD PTR [ecx+4], esi
  00166	eb 0f		 jmp	 SHORT $LN41@Insert_nod
$LN38@Insert_nod:

; 517  :         } else if (_Wherenode == _Wherenode->_Parent->_Right) {

  00168	8b 4a 04	 mov	 ecx, DWORD PTR [edx+4]
  0016b	3b 41 08	 cmp	 eax, DWORD PTR [ecx+8]
  0016e	75 05		 jne	 SHORT $LN40@Insert_nod

; 518  :             _Wherenode->_Parent->_Right = _Pnode;

  00170	89 71 08	 mov	 DWORD PTR [ecx+8], esi

; 519  :         } else {

  00173	eb 02		 jmp	 SHORT $LN41@Insert_nod
$LN40@Insert_nod:

; 520  :             _Wherenode->_Parent->_Left = _Pnode;

  00175	89 31		 mov	 DWORD PTR [ecx], esi
$LN41@Insert_nod:

; 521  :         }
; 522  : 
; 523  :         _Pnode->_Right      = _Wherenode;

  00177	89 46 08	 mov	 DWORD PTR [esi+8], eax

; 524  :         _Wherenode->_Parent = _Pnode;

  0017a	89 70 04	 mov	 DWORD PTR [eax+4], esi
$LN42@Insert_nod:

; 724  :                         _Rrotate(_Pnode);
; 725  :                     }
; 726  : 
; 727  :                     _Pnode->_Parent->_Color          = _Black; // propagate red up

  0017d	8b 48 04	 mov	 ecx, DWORD PTR [eax+4]
  00180	c6 41 0c 01	 mov	 BYTE PTR [ecx+12], 1

; 728  :                     _Pnode->_Parent->_Parent->_Color = _Red;

  00184	8b 48 04	 mov	 ecx, DWORD PTR [eax+4]
  00187	8b 49 04	 mov	 ecx, DWORD PTR [ecx+4]
  0018a	c6 41 0c 00	 mov	 BYTE PTR [ecx+12], 0

; 729  :                     _Lrotate(_Pnode->_Parent->_Parent);

  0018e	8b 48 04	 mov	 ecx, DWORD PTR [eax+4]
  00191	8b 51 04	 mov	 edx, DWORD PTR [ecx+4]

; 484  :         _Nodeptr _Pnode    = _Wherenode->_Right;

  00194	8b 72 08	 mov	 esi, DWORD PTR [edx+8]

; 485  :         _Wherenode->_Right = _Pnode->_Left;

  00197	8b 0e		 mov	 ecx, DWORD PTR [esi]
  00199	89 4a 08	 mov	 DWORD PTR [edx+8], ecx

; 486  : 
; 487  :         if (!_Pnode->_Left->_Isnil) {

  0019c	8b 0e		 mov	 ecx, DWORD PTR [esi]
  0019e	80 79 0d 00	 cmp	 BYTE PTR [ecx+13], 0
  001a2	75 03		 jne	 SHORT $LN45@Insert_nod

; 488  :             _Pnode->_Left->_Parent = _Wherenode;

  001a4	89 51 04	 mov	 DWORD PTR [ecx+4], edx
$LN45@Insert_nod:

; 489  :         }
; 490  : 
; 491  :         _Pnode->_Parent = _Wherenode->_Parent;

  001a7	8b 4a 04	 mov	 ecx, DWORD PTR [edx+4]
  001aa	89 4e 04	 mov	 DWORD PTR [esi+4], ecx

; 492  : 
; 493  :         if (_Wherenode == _Myhead->_Parent) {

  001ad	8b 0b		 mov	 ecx, DWORD PTR [ebx]
  001af	3b 51 04	 cmp	 edx, DWORD PTR [ecx+4]
  001b2	75 05		 jne	 SHORT $LN46@Insert_nod

; 494  :             _Myhead->_Parent = _Pnode;

  001b4	89 71 04	 mov	 DWORD PTR [ecx+4], esi
  001b7	eb 0e		 jmp	 SHORT $LN49@Insert_nod
$LN46@Insert_nod:

; 495  :         } else if (_Wherenode == _Wherenode->_Parent->_Left) {

  001b9	8b 4a 04	 mov	 ecx, DWORD PTR [edx+4]
  001bc	3b 11		 cmp	 edx, DWORD PTR [ecx]
  001be	75 04		 jne	 SHORT $LN48@Insert_nod

; 496  :             _Wherenode->_Parent->_Left = _Pnode;

  001c0	89 31		 mov	 DWORD PTR [ecx], esi

; 497  :         } else {

  001c2	eb 03		 jmp	 SHORT $LN49@Insert_nod
$LN48@Insert_nod:

; 498  :             _Wherenode->_Parent->_Right = _Pnode;

  001c4	89 71 08	 mov	 DWORD PTR [ecx+8], esi
$LN49@Insert_nod:

; 499  :         }
; 500  : 
; 501  :         _Pnode->_Left       = _Wherenode;

  001c7	89 16		 mov	 DWORD PTR [esi], edx
$LN81@Insert_nod:

; 693  :             }
; 694  :         }
; 695  : 
; 696  :         for (_Nodeptr _Pnode = _Newnode; _Pnode->_Parent->_Color == _Red;) {

  001c9	89 72 04	 mov	 DWORD PTR [edx+4], esi
$LN2@Insert_nod:
  001cc	8b 48 04	 mov	 ecx, DWORD PTR [eax+4]
  001cf	80 79 0c 00	 cmp	 BYTE PTR [ecx+12], 0
  001d3	0f 84 87 fe ff
	ff		 je	 $LL4@Insert_nod
  001d9	5e		 pop	 esi
$LN3@Insert_nod:

; 730  :                 }
; 731  :             }
; 732  :         }
; 733  : 
; 734  :         _Head->_Parent->_Color = _Black; // root is always black

  001da	8b 45 fc	 mov	 eax, DWORD PTR __Head$1$[ebp]
  001dd	8b 40 04	 mov	 eax, DWORD PTR [eax+4]
  001e0	c6 40 0c 01	 mov	 BYTE PTR [eax+12], 1

; 735  :         return _Newnode;
; 736  :     }

  001e4	8b c7		 mov	 eax, edi
  001e6	5f		 pop	 edi
  001e7	5b		 pop	 ebx
  001e8	8b e5		 mov	 esp, ebp
  001ea	5d		 pop	 ebp
  001eb	c2 0c 00	 ret	 12			; 0000000cH
?_Insert_node@?$_Tree_val@U?$_Tree_simple_types@U?$pair@$$CBKPAVCClientSockE@@@std@@@std@@@std@@QAEPAU?$_Tree_node@U?$pair@$$CBKPAVCClientSockE@@@std@@PAX@2@U?$_Tree_id@PAU?$_Tree_node@U?$pair@$$CBKPAVCClientSockE@@@std@@PAX@std@@@2@QAU32@@Z ENDP ; std::_Tree_val<std::_Tree_simple_types<std::pair<unsigned long const ,CClientSockE *> > >::_Insert_node
_TEXT	ENDS
; Function compile flags: /Ogtp
; File C:\Program Files\Microsoft Visual Studio\2022\Professional\VC\Tools\MSVC\14.44.35207\include\xtree
; File C:\Program Files\Microsoft Visual Studio\2022\Professional\VC\Tools\MSVC\14.44.35207\include\utility
; File C:\Program Files\Microsoft Visual Studio\2022\Professional\VC\Tools\MSVC\14.44.35207\include\xtree
;	COMDAT ?_Extract@?$_Tree_val@U?$_Tree_simple_types@U?$pair@$$CBKPAVCClientSockE@@@std@@@std@@@std@@QAEPAU?$_Tree_node@U?$pair@$$CBKPAVCClientSockE@@@std@@PAX@2@V?$_Tree_unchecked_const_iterator@V?$_Tree_val@U?$_Tree_simple_types@U?$pair@$$CBKPAVCClientSockE@@@std@@@std@@@std@@U_Iterator_base0@2@@2@@Z
_TEXT	SEGMENT
tv1039 = -16						; size = 4
tv1073 = -12						; size = 4
tv1093 = -12						; size = 4
$T1 = -12						; size = 4
__Erasednode$1$ = -8					; size = 4
_this$1$ = -4						; size = 4
__Where$ = 8						; size = 4
?_Extract@?$_Tree_val@U?$_Tree_simple_types@U?$pair@$$CBKPAVCClientSockE@@@std@@@std@@@std@@QAEPAU?$_Tree_node@U?$pair@$$CBKPAVCClientSockE@@@std@@PAX@2@V?$_Tree_unchecked_const_iterator@V?$_Tree_val@U?$_Tree_simple_types@U?$pair@$$CBKPAVCClientSockE@@@std@@@std@@@std@@U_Iterator_base0@2@@2@@Z PROC ; std::_Tree_val<std::_Tree_simple_types<std::pair<unsigned long const ,CClientSockE *> > >::_Extract, COMDAT
; _this$ = ecx

; 527  :     _Nodeptr _Extract(_Unchecked_const_iterator _Where) noexcept {

  00000	55		 push	 ebp
  00001	8b ec		 mov	 ebp, esp
  00003	83 ec 10	 sub	 esp, 16			; 00000010H

; 528  :         _Nodeptr _Erasednode = _Where._Ptr; // node to erase

  00006	8b 45 08	 mov	 eax, DWORD PTR __Where$[ebp]
  00009	53		 push	 ebx
  0000a	56		 push	 esi
  0000b	8b d9		 mov	 ebx, ecx
  0000d	89 45 f8	 mov	 DWORD PTR __Erasednode$1$[ebp], eax
  00010	57		 push	 edi

; 529  :         ++_Where; // save successor iterator for return

  00011	8d 4d 08	 lea	 ecx, DWORD PTR __Where$[ebp]
  00014	89 5d fc	 mov	 DWORD PTR _this$1$[ebp], ebx
  00017	e8 00 00 00 00	 call	 ??E?$_Tree_unchecked_const_iterator@V?$_Tree_val@U?$_Tree_simple_types@U?$pair@$$CBKPAVCClientSockE@@@std@@@std@@@std@@U_Iterator_base0@2@@std@@QAEAAV01@XZ ; std::_Tree_unchecked_const_iterator<std::_Tree_val<std::_Tree_simple_types<std::pair<unsigned long const ,CClientSockE *> > >,std::_Iterator_base0>::operator++

; 530  : 
; 531  :         _Nodeptr _Fixnode; // the node to recolor as needed
; 532  :         _Nodeptr _Fixnodeparent; // parent of _Fixnode (which may be nil)
; 533  :         _Nodeptr _Pnode = _Erasednode;
; 534  : 
; 535  :         if (_Pnode->_Left->_Isnil) {

  0001c	8b 4d f8	 mov	 ecx, DWORD PTR __Erasednode$1$[ebp]
  0001f	8b 01		 mov	 eax, DWORD PTR [ecx]
  00021	8b 79 08	 mov	 edi, DWORD PTR [ecx+8]
  00024	80 78 0d 00	 cmp	 BYTE PTR [eax+13], 0
  00028	75 18		 jne	 SHORT $LN94@Extract

; 536  :             _Fixnode = _Pnode->_Right; // stitch up right subtree
; 537  :         } else if (_Pnode->_Right->_Isnil) {

  0002a	80 7f 0d 00	 cmp	 BYTE PTR [edi+13], 0
  0002e	74 04		 je	 SHORT $LN7@Extract

; 538  :             _Fixnode = _Pnode->_Left; // stitch up left subtree

  00030	8b f8		 mov	 edi, eax

; 539  :         } else { // two subtrees, must lift successor node to replace erased

  00032	eb 0e		 jmp	 SHORT $LN94@Extract
$LN7@Extract:

; 540  :             _Pnode   = _Where._Ptr; // _Pnode is successor node

  00034	8b 55 08	 mov	 edx, DWORD PTR __Where$[ebp]

; 541  :             _Fixnode = _Pnode->_Right; // _Fixnode is only subtree

  00037	8b 7a 08	 mov	 edi, DWORD PTR [edx+8]
  0003a	3b d1		 cmp	 edx, ecx

; 542  :         }
; 543  : 
; 544  :         if (_Pnode == _Erasednode) { // at most one subtree, relink it

  0003c	0f 85 91 00 00
	00		 jne	 $LN9@Extract
$LN94@Extract:

; 545  :             _Fixnodeparent = _Erasednode->_Parent;
; 546  :             if (!_Fixnode->_Isnil) {

  00042	80 7f 0d 00	 cmp	 BYTE PTR [edi+13], 0
  00046	8b 71 04	 mov	 esi, DWORD PTR [ecx+4]
  00049	75 03		 jne	 SHORT $LN11@Extract

; 547  :                 _Fixnode->_Parent = _Fixnodeparent; // link up

  0004b	89 77 04	 mov	 DWORD PTR [edi+4], esi
$LN11@Extract:

; 548  :             }
; 549  : 
; 550  :             if (_Myhead->_Parent == _Erasednode) {

  0004e	8b 03		 mov	 eax, DWORD PTR [ebx]
  00050	39 48 04	 cmp	 DWORD PTR [eax+4], ecx
  00053	75 05		 jne	 SHORT $LN12@Extract

; 551  :                 _Myhead->_Parent = _Fixnode; // link down from root

  00055	89 78 04	 mov	 DWORD PTR [eax+4], edi
  00058	eb 0b		 jmp	 SHORT $LN15@Extract
$LN12@Extract:

; 552  :             } else if (_Fixnodeparent->_Left == _Erasednode) {

  0005a	39 0e		 cmp	 DWORD PTR [esi], ecx
  0005c	75 04		 jne	 SHORT $LN14@Extract

; 553  :                 _Fixnodeparent->_Left = _Fixnode; // link down to left

  0005e	89 3e		 mov	 DWORD PTR [esi], edi

; 554  :             } else {

  00060	eb 03		 jmp	 SHORT $LN15@Extract
$LN14@Extract:

; 555  :                 _Fixnodeparent->_Right = _Fixnode; // link down to right

  00062	89 7e 08	 mov	 DWORD PTR [esi+8], edi
$LN15@Extract:

; 556  :             }
; 557  : 
; 558  :             if (_Myhead->_Left == _Erasednode) {

  00065	8b 03		 mov	 eax, DWORD PTR [ebx]
  00067	39 08		 cmp	 DWORD PTR [eax], ecx
  00069	75 28		 jne	 SHORT $LN16@Extract

; 559  :                 _Myhead->_Left = _Fixnode->_Isnil ? _Fixnodeparent // smallest is parent of erased node

  0006b	80 7f 0d 00	 cmp	 BYTE PTR [edi+13], 0
  0006f	74 04		 je	 SHORT $LN42@Extract
  00071	8b d6		 mov	 edx, esi
  00073	eb 1c		 jmp	 SHORT $LN43@Extract
$LN42@Extract:

; 476  :         while (!_Pnode->_Left->_Isnil) {

  00075	8b 0f		 mov	 ecx, DWORD PTR [edi]

; 559  :                 _Myhead->_Left = _Fixnode->_Isnil ? _Fixnodeparent // smallest is parent of erased node

  00077	8b d7		 mov	 edx, edi

; 476  :         while (!_Pnode->_Left->_Isnil) {

  00079	80 79 0d 00	 cmp	 BYTE PTR [ecx+13], 0
  0007d	75 0f		 jne	 SHORT $LN49@Extract
  0007f	90		 npad	 1
$LL48@Extract:
  00080	8b 01		 mov	 eax, DWORD PTR [ecx]

; 477  :             _Pnode = _Pnode->_Left;

  00082	8b d1		 mov	 edx, ecx
  00084	8b c8		 mov	 ecx, eax
  00086	80 78 0d 00	 cmp	 BYTE PTR [eax+13], 0
  0008a	74 f4		 je	 SHORT $LL48@Extract
  0008c	8b 03		 mov	 eax, DWORD PTR [ebx]
$LN49@Extract:
  0008e	8b 4d f8	 mov	 ecx, DWORD PTR __Erasednode$1$[ebp]
$LN43@Extract:

; 559  :                 _Myhead->_Left = _Fixnode->_Isnil ? _Fixnodeparent // smallest is parent of erased node

  00091	89 10		 mov	 DWORD PTR [eax], edx
$LN16@Extract:

; 560  :                                                   : _Min(_Fixnode); // smallest in relinked subtree
; 561  :             }
; 562  : 
; 563  :             if (_Myhead->_Right == _Erasednode) {

  00093	8b 13		 mov	 edx, DWORD PTR [ebx]
  00095	39 4a 08	 cmp	 DWORD PTR [edx+8], ecx
  00098	75 34		 jne	 SHORT $LN17@Extract

; 564  :                 _Myhead->_Right = _Fixnode->_Isnil ? _Fixnodeparent // largest is parent of erased node

  0009a	80 7f 0d 00	 cmp	 BYTE PTR [edi+13], 0
  0009e	74 0d		 je	 SHORT $LN44@Extract

; 565  :                                                    : _Max(_Fixnode); // largest in relinked subtree
; 566  :             }
; 567  :         } else { // erased has two subtrees, _Pnode is successor to erased

  000a0	8b 45 f8	 mov	 eax, DWORD PTR __Erasednode$1$[ebp]
  000a3	8b ce		 mov	 ecx, esi
  000a5	89 4a 08	 mov	 DWORD PTR [edx+8], ecx
  000a8	e9 94 00 00 00	 jmp	 $LN58@Extract
$LN44@Extract:

; 468  :         while (!_Pnode->_Right->_Isnil) {

  000ad	8b 47 08	 mov	 eax, DWORD PTR [edi+8]

; 564  :                 _Myhead->_Right = _Fixnode->_Isnil ? _Fixnodeparent // largest is parent of erased node

  000b0	8b cf		 mov	 ecx, edi

; 468  :         while (!_Pnode->_Right->_Isnil) {

  000b2	80 78 0d 00	 cmp	 BYTE PTR [eax+13], 0
  000b6	75 13		 jne	 SHORT $LN54@Extract
  000b8	0f 1f 84 00 00
	00 00 00	 npad	 8
$LL53@Extract:

; 469  :             _Pnode = _Pnode->_Right;

  000c0	8b c8		 mov	 ecx, eax
  000c2	8b 41 08	 mov	 eax, DWORD PTR [ecx+8]
  000c5	80 78 0d 00	 cmp	 BYTE PTR [eax+13], 0
  000c9	74 f5		 je	 SHORT $LL53@Extract
$LN54@Extract:

; 564  :                 _Myhead->_Right = _Fixnode->_Isnil ? _Fixnodeparent // largest is parent of erased node

  000cb	89 4a 08	 mov	 DWORD PTR [edx+8], ecx
$LN17@Extract:

; 565  :                                                    : _Max(_Fixnode); // largest in relinked subtree
; 566  :             }
; 567  :         } else { // erased has two subtrees, _Pnode is successor to erased

  000ce	8b 45 f8	 mov	 eax, DWORD PTR __Erasednode$1$[ebp]
  000d1	eb 6e		 jmp	 SHORT $LN58@Extract
$LN9@Extract:

; 568  :             _Erasednode->_Left->_Parent = _Pnode; // link left up

  000d3	89 50 04	 mov	 DWORD PTR [eax+4], edx

; 569  :             _Pnode->_Left               = _Erasednode->_Left; // link successor down

  000d6	8b 01		 mov	 eax, DWORD PTR [ecx]
  000d8	89 02		 mov	 DWORD PTR [edx], eax

; 570  : 
; 571  :             if (_Pnode == _Erasednode->_Right) {

  000da	8d 42 04	 lea	 eax, DWORD PTR [edx+4]
  000dd	89 45 f4	 mov	 DWORD PTR $T1[ebp], eax
  000e0	3b 51 08	 cmp	 edx, DWORD PTR [ecx+8]
  000e3	75 04		 jne	 SHORT $LN18@Extract

; 572  :                 _Fixnodeparent = _Pnode; // successor is next to erased

  000e5	8b f2		 mov	 esi, edx

; 573  :             } else { // successor further down, link in place of erased

  000e7	eb 1f		 jmp	 SHORT $LN19@Extract
$LN18@Extract:

; 574  :                 _Fixnodeparent = _Pnode->_Parent; // parent is successor's
; 575  :                 if (!_Fixnode->_Isnil) {

  000e9	80 7f 0d 00	 cmp	 BYTE PTR [edi+13], 0
  000ed	8b 30		 mov	 esi, DWORD PTR [eax]
  000ef	75 03		 jne	 SHORT $LN20@Extract

; 576  :                     _Fixnode->_Parent = _Fixnodeparent; // link fix up

  000f1	89 77 04	 mov	 DWORD PTR [edi+4], esi
$LN20@Extract:

; 577  :                 }
; 578  : 
; 579  :                 _Fixnodeparent->_Left        = _Fixnode; // link fix down

  000f4	89 3e		 mov	 DWORD PTR [esi], edi

; 580  :                 _Pnode->_Right               = _Erasednode->_Right; // link next down

  000f6	8b 41 08	 mov	 eax, DWORD PTR [ecx+8]
  000f9	89 42 08	 mov	 DWORD PTR [edx+8], eax

; 581  :                 _Erasednode->_Right->_Parent = _Pnode; // right up

  000fc	8b 41 08	 mov	 eax, DWORD PTR [ecx+8]
  000ff	89 50 04	 mov	 DWORD PTR [eax+4], edx
  00102	8d 42 04	 lea	 eax, DWORD PTR [edx+4]
  00105	89 45 f4	 mov	 DWORD PTR $T1[ebp], eax
$LN19@Extract:

; 582  :             }
; 583  : 
; 584  :             if (_Myhead->_Parent == _Erasednode) {

  00108	8b 03		 mov	 eax, DWORD PTR [ebx]
  0010a	39 48 04	 cmp	 DWORD PTR [eax+4], ecx
  0010d	75 05		 jne	 SHORT $LN21@Extract

; 585  :                 _Myhead->_Parent = _Pnode; // link down from root

  0010f	89 50 04	 mov	 DWORD PTR [eax+4], edx
  00112	eb 0e		 jmp	 SHORT $LN141@Extract
$LN21@Extract:

; 586  :             } else if (_Erasednode->_Parent->_Left == _Erasednode) {

  00114	8b 41 04	 mov	 eax, DWORD PTR [ecx+4]
  00117	39 08		 cmp	 DWORD PTR [eax], ecx
  00119	75 04		 jne	 SHORT $LN23@Extract

; 587  :                 _Erasednode->_Parent->_Left = _Pnode; // link down to left

  0011b	89 10		 mov	 DWORD PTR [eax], edx

; 588  :             } else {

  0011d	eb 03		 jmp	 SHORT $LN141@Extract
$LN23@Extract:

; 589  :                 _Erasednode->_Parent->_Right = _Pnode; // link down to right

  0011f	89 50 08	 mov	 DWORD PTR [eax+8], edx
$LN141@Extract:

; 590  :             }
; 591  : 
; 592  :             _Pnode->_Parent = _Erasednode->_Parent; // link successor up

  00122	b8 04 00 00 00	 mov	 eax, 4
  00127	8b 04 08	 mov	 eax, DWORD PTR [eax+ecx]
  0012a	8b 4d f4	 mov	 ecx, DWORD PTR $T1[ebp]
  0012d	89 01		 mov	 DWORD PTR [ecx], eax
; File C:\Program Files\Microsoft Visual Studio\2022\Professional\VC\Tools\MSVC\14.44.35207\include\utility

; 140  :     _Left    = _STD move(_Right);

  0012f	8b 45 f8	 mov	 eax, DWORD PTR __Erasednode$1$[ebp]
  00132	8a 4a 0c	 mov	 cl, BYTE PTR [edx+12]
  00135	8a 40 0c	 mov	 al, BYTE PTR [eax+12]
  00138	88 42 0c	 mov	 BYTE PTR [edx+12], al

; 141  :     _Right   = _STD move(_Tmp);

  0013b	8b 45 f8	 mov	 eax, DWORD PTR __Erasednode$1$[ebp]
  0013e	88 48 0c	 mov	 BYTE PTR [eax+12], cl
$LN58@Extract:
; File C:\Program Files\Microsoft Visual Studio\2022\Professional\VC\Tools\MSVC\14.44.35207\include\xtree

; 596  :         if (_Erasednode->_Color == _Black) { // erasing black link, must recolor/rebalance tree

  00141	80 78 0c 01	 cmp	 BYTE PTR [eax+12], 1
  00145	0f 85 ba 01 00
	00		 jne	 $LN25@Extract

; 597  :             for (; _Fixnode != _Myhead->_Parent && _Fixnode->_Color == _Black; _Fixnodeparent = _Fixnode->_Parent) {

  0014b	8b 03		 mov	 eax, DWORD PTR [ebx]
  0014d	3b 78 04	 cmp	 edi, DWORD PTR [eax+4]
  00150	0f 84 a8 01 00
	00		 je	 $LN3@Extract
  00156	80 7f 0c 01	 cmp	 BYTE PTR [edi+12], 1
  0015a	89 75 f4	 mov	 DWORD PTR tv1093[ebp], esi
  0015d	0f 85 9b 01 00
	00		 jne	 $LN3@Extract
$LL4@Extract:

; 598  :                 if (_Fixnode == _Fixnodeparent->_Left) { // fixup left subtree

  00163	8b 0e		 mov	 ecx, DWORD PTR [esi]
  00165	3b f9		 cmp	 edi, ecx
  00167	0f 85 be 00 00
	00		 jne	 $LN26@Extract

; 599  :                     _Pnode = _Fixnodeparent->_Right;

  0016d	8b 4e 08	 mov	 ecx, DWORD PTR [esi+8]

; 600  :                     if (_Pnode->_Color == _Red) { // rotate red up from right subtree

  00170	80 79 0c 00	 cmp	 BYTE PTR [ecx+12], 0
  00174	75 54		 jne	 SHORT $LN95@Extract

; 601  :                         _Pnode->_Color         = _Black;

  00176	c6 41 0c 01	 mov	 BYTE PTR [ecx+12], 1

; 484  :         _Nodeptr _Pnode    = _Wherenode->_Right;

  0017a	8b 4e 08	 mov	 ecx, DWORD PTR [esi+8]

; 602  :                         _Fixnodeparent->_Color = _Red;

  0017d	c6 46 0c 00	 mov	 BYTE PTR [esi+12], 0

; 485  :         _Wherenode->_Right = _Pnode->_Left;

  00181	8b 01		 mov	 eax, DWORD PTR [ecx]
  00183	89 46 08	 mov	 DWORD PTR [esi+8], eax

; 486  : 
; 487  :         if (!_Pnode->_Left->_Isnil) {

  00186	8b 01		 mov	 eax, DWORD PTR [ecx]
  00188	80 78 0d 00	 cmp	 BYTE PTR [eax+13], 0
  0018c	75 03		 jne	 SHORT $LN61@Extract

; 488  :             _Pnode->_Left->_Parent = _Wherenode;

  0018e	89 70 04	 mov	 DWORD PTR [eax+4], esi
$LN61@Extract:

; 489  :         }
; 490  : 
; 491  :         _Pnode->_Parent = _Wherenode->_Parent;

  00191	8b 46 04	 mov	 eax, DWORD PTR [esi+4]
  00194	8d 56 04	 lea	 edx, DWORD PTR [esi+4]
  00197	89 41 04	 mov	 DWORD PTR [ecx+4], eax

; 492  : 
; 493  :         if (_Wherenode == _Myhead->_Parent) {

  0019a	8b 03		 mov	 eax, DWORD PTR [ebx]
  0019c	3b 70 04	 cmp	 esi, DWORD PTR [eax+4]
  0019f	75 0c		 jne	 SHORT $LN62@Extract

; 494  :             _Myhead->_Parent = _Pnode;

  001a1	89 48 04	 mov	 DWORD PTR [eax+4], ecx

; 499  :         }
; 500  : 
; 501  :         _Pnode->_Left       = _Wherenode;

  001a4	89 31		 mov	 DWORD PTR [ecx], esi

; 502  :         _Wherenode->_Parent = _Pnode;

  001a6	89 0a		 mov	 DWORD PTR [edx], ecx

; 603  :                         _Lrotate(_Fixnodeparent);
; 604  :                         _Pnode = _Fixnodeparent->_Right;

  001a8	8b 4e 08	 mov	 ecx, DWORD PTR [esi+8]
  001ab	eb 20		 jmp	 SHORT $LN87@Extract
$LN62@Extract:

; 495  :         } else if (_Wherenode == _Wherenode->_Parent->_Left) {

  001ad	8b 02		 mov	 eax, DWORD PTR [edx]
  001af	3b 30		 cmp	 esi, DWORD PTR [eax]
  001b1	75 0b		 jne	 SHORT $LN64@Extract

; 496  :             _Wherenode->_Parent->_Left = _Pnode;

  001b3	89 08		 mov	 DWORD PTR [eax], ecx

; 499  :         }
; 500  : 
; 501  :         _Pnode->_Left       = _Wherenode;

  001b5	89 31		 mov	 DWORD PTR [ecx], esi

; 502  :         _Wherenode->_Parent = _Pnode;

  001b7	89 0a		 mov	 DWORD PTR [edx], ecx

; 603  :                         _Lrotate(_Fixnodeparent);
; 604  :                         _Pnode = _Fixnodeparent->_Right;

  001b9	8b 4e 08	 mov	 ecx, DWORD PTR [esi+8]
  001bc	eb 0f		 jmp	 SHORT $LN87@Extract
$LN64@Extract:

; 498  :             _Wherenode->_Parent->_Right = _Pnode;

  001be	89 48 08	 mov	 DWORD PTR [eax+8], ecx

; 499  :         }
; 500  : 
; 501  :         _Pnode->_Left       = _Wherenode;

  001c1	89 31		 mov	 DWORD PTR [ecx], esi

; 502  :         _Wherenode->_Parent = _Pnode;

  001c3	89 0a		 mov	 DWORD PTR [edx], ecx

; 603  :                         _Lrotate(_Fixnodeparent);
; 604  :                         _Pnode = _Fixnodeparent->_Right;

  001c5	8b 4e 08	 mov	 ecx, DWORD PTR [esi+8]
  001c8	eb 03		 jmp	 SHORT $LN87@Extract
$LN95@Extract:
  001ca	8d 56 04	 lea	 edx, DWORD PTR [esi+4]
$LN87@Extract:

; 605  :                     }
; 606  : 
; 607  :                     if (_Pnode->_Isnil) {

  001cd	80 79 0d 00	 cmp	 BYTE PTR [ecx+13], 0
  001d1	0f 85 d0 00 00
	00		 jne	 $LN2@Extract

; 608  :                         _Fixnode = _Fixnodeparent; // shouldn't happen
; 609  :                     } else if (_Pnode->_Left->_Color == _Black
; 610  :                                && _Pnode->_Right->_Color == _Black) { // redden right subtree with black children

  001d7	8b 01		 mov	 eax, DWORD PTR [ecx]
  001d9	80 78 0c 01	 cmp	 BYTE PTR [eax+12], 1
  001dd	75 0d		 jne	 SHORT $LN97@Extract
  001df	8b 41 08	 mov	 eax, DWORD PTR [ecx+8]
  001e2	80 78 0c 01	 cmp	 BYTE PTR [eax+12], 1
  001e6	0f 84 b4 00 00
	00		 je	 $LN142@Extract
$LN97@Extract:

; 611  :                         _Pnode->_Color = _Red;
; 612  :                         _Fixnode       = _Fixnodeparent;
; 613  :                     } else { // must rearrange right subtree
; 614  :                         if (_Pnode->_Right->_Color == _Black) { // rotate red up from left sub-subtree

  001ec	8b 41 08	 mov	 eax, DWORD PTR [ecx+8]
  001ef	8b 5d fc	 mov	 ebx, DWORD PTR _this$1$[ebp]
  001f2	80 78 0c 01	 cmp	 BYTE PTR [eax+12], 1
  001f6	75 15		 jne	 SHORT $LN33@Extract

; 615  :                             _Pnode->_Left->_Color = _Black;

  001f8	8b 01		 mov	 eax, DWORD PTR [ecx]

; 616  :                             _Pnode->_Color        = _Red;
; 617  :                             _Rrotate(_Pnode);

  001fa	51		 push	 ecx
  001fb	c6 40 0c 01	 mov	 BYTE PTR [eax+12], 1
  001ff	c6 41 0c 00	 mov	 BYTE PTR [ecx+12], 0
  00203	8b cb		 mov	 ecx, ebx
  00205	e8 00 00 00 00	 call	 ?_Rrotate@?$_Tree_val@U?$_Tree_simple_types@U?$pair@$$CBKPAVCClientSockE@@@std@@@std@@@std@@QAEXPAU?$_Tree_node@U?$pair@$$CBKPAVCClientSockE@@@std@@PAX@2@@Z ; std::_Tree_val<std::_Tree_simple_types<std::pair<unsigned long const ,CClientSockE *> > >::_Rrotate

; 618  :                             _Pnode = _Fixnodeparent->_Right;

  0020a	8b 4e 08	 mov	 ecx, DWORD PTR [esi+8]
$LN33@Extract:

; 619  :                         }
; 620  : 
; 621  :                         _Pnode->_Color         = _Fixnodeparent->_Color;

  0020d	8a 46 0c	 mov	 al, BYTE PTR [esi+12]
  00210	88 41 0c	 mov	 BYTE PTR [ecx+12], al

; 622  :                         _Fixnodeparent->_Color = _Black;

  00213	c6 46 0c 01	 mov	 BYTE PTR [esi+12], 1

; 623  :                         _Pnode->_Right->_Color = _Black;

  00217	8b 41 08	 mov	 eax, DWORD PTR [ecx+8]

; 624  :                         _Lrotate(_Fixnodeparent);

  0021a	8b cb		 mov	 ecx, ebx
  0021c	56		 push	 esi
  0021d	c6 40 0c 01	 mov	 BYTE PTR [eax+12], 1
  00221	e8 00 00 00 00	 call	 ?_Lrotate@?$_Tree_val@U?$_Tree_simple_types@U?$pair@$$CBKPAVCClientSockE@@@std@@@std@@@std@@QAEXPAU?$_Tree_node@U?$pair@$$CBKPAVCClientSockE@@@std@@PAX@2@@Z ; std::_Tree_val<std::_Tree_simple_types<std::pair<unsigned long const ,CClientSockE *> > >::_Lrotate

; 625  :                         break; // tree now recolored/rebalanced

  00226	e9 d3 00 00 00	 jmp	 $LN3@Extract
$LN26@Extract:

; 626  :                     }
; 627  :                 } else { // fixup right subtree
; 628  :                     _Pnode = _Fixnodeparent->_Left;
; 629  :                     if (_Pnode->_Color == _Red) { // rotate red up from left subtree

  0022b	80 79 0c 00	 cmp	 BYTE PTR [ecx+12], 0
  0022f	75 55		 jne	 SHORT $LN96@Extract

; 630  :                         _Pnode->_Color         = _Black;

  00231	c6 41 0c 01	 mov	 BYTE PTR [ecx+12], 1

; 506  :         _Nodeptr _Pnode   = _Wherenode->_Left;

  00235	8b 0e		 mov	 ecx, DWORD PTR [esi]

; 631  :                         _Fixnodeparent->_Color = _Red;

  00237	c6 46 0c 00	 mov	 BYTE PTR [esi+12], 0

; 507  :         _Wherenode->_Left = _Pnode->_Right;

  0023b	8b 41 08	 mov	 eax, DWORD PTR [ecx+8]
  0023e	89 06		 mov	 DWORD PTR [esi], eax

; 508  : 
; 509  :         if (!_Pnode->_Right->_Isnil) {

  00240	8b 41 08	 mov	 eax, DWORD PTR [ecx+8]
  00243	80 78 0d 00	 cmp	 BYTE PTR [eax+13], 0
  00247	75 03		 jne	 SHORT $LN69@Extract

; 510  :             _Pnode->_Right->_Parent = _Wherenode;

  00249	89 70 04	 mov	 DWORD PTR [eax+4], esi
$LN69@Extract:

; 511  :         }
; 512  : 
; 513  :         _Pnode->_Parent = _Wherenode->_Parent;

  0024c	8b 46 04	 mov	 eax, DWORD PTR [esi+4]
  0024f	8d 56 04	 lea	 edx, DWORD PTR [esi+4]
  00252	89 41 04	 mov	 DWORD PTR [ecx+4], eax

; 514  : 
; 515  :         if (_Wherenode == _Myhead->_Parent) {

  00255	8b 03		 mov	 eax, DWORD PTR [ebx]
  00257	3b 70 04	 cmp	 esi, DWORD PTR [eax+4]
  0025a	75 0c		 jne	 SHORT $LN70@Extract

; 516  :             _Myhead->_Parent = _Pnode;

  0025c	89 48 04	 mov	 DWORD PTR [eax+4], ecx

; 521  :         }
; 522  : 
; 523  :         _Pnode->_Right      = _Wherenode;

  0025f	89 71 08	 mov	 DWORD PTR [ecx+8], esi

; 524  :         _Wherenode->_Parent = _Pnode;

  00262	89 0a		 mov	 DWORD PTR [edx], ecx

; 632  :                         _Rrotate(_Fixnodeparent);
; 633  :                         _Pnode = _Fixnodeparent->_Left;

  00264	8b 0e		 mov	 ecx, DWORD PTR [esi]
  00266	eb 21		 jmp	 SHORT $LN86@Extract
$LN70@Extract:

; 517  :         } else if (_Wherenode == _Wherenode->_Parent->_Right) {

  00268	8b 02		 mov	 eax, DWORD PTR [edx]
  0026a	3b 70 08	 cmp	 esi, DWORD PTR [eax+8]
  0026d	75 0c		 jne	 SHORT $LN72@Extract

; 518  :             _Wherenode->_Parent->_Right = _Pnode;

  0026f	89 48 08	 mov	 DWORD PTR [eax+8], ecx

; 521  :         }
; 522  : 
; 523  :         _Pnode->_Right      = _Wherenode;

  00272	89 71 08	 mov	 DWORD PTR [ecx+8], esi

; 524  :         _Wherenode->_Parent = _Pnode;

  00275	89 0a		 mov	 DWORD PTR [edx], ecx

; 632  :                         _Rrotate(_Fixnodeparent);
; 633  :                         _Pnode = _Fixnodeparent->_Left;

  00277	8b 0e		 mov	 ecx, DWORD PTR [esi]
  00279	eb 0e		 jmp	 SHORT $LN86@Extract
$LN72@Extract:

; 520  :             _Wherenode->_Parent->_Left = _Pnode;

  0027b	89 08		 mov	 DWORD PTR [eax], ecx

; 521  :         }
; 522  : 
; 523  :         _Pnode->_Right      = _Wherenode;

  0027d	89 71 08	 mov	 DWORD PTR [ecx+8], esi

; 524  :         _Wherenode->_Parent = _Pnode;

  00280	89 0a		 mov	 DWORD PTR [edx], ecx

; 632  :                         _Rrotate(_Fixnodeparent);
; 633  :                         _Pnode = _Fixnodeparent->_Left;

  00282	8b 0e		 mov	 ecx, DWORD PTR [esi]
  00284	eb 03		 jmp	 SHORT $LN86@Extract
$LN96@Extract:
  00286	8d 56 04	 lea	 edx, DWORD PTR [esi+4]
$LN86@Extract:

; 634  :                     }
; 635  : 
; 636  :                     if (_Pnode->_Isnil) {

  00289	80 79 0d 00	 cmp	 BYTE PTR [ecx+13], 0
  0028d	75 18		 jne	 SHORT $LN2@Extract

; 637  :                         _Fixnode = _Fixnodeparent; // shouldn't happen
; 638  :                     } else if (_Pnode->_Right->_Color == _Black
; 639  :                                && _Pnode->_Left->_Color == _Black) { // redden left subtree with black children

  0028f	8b 59 08	 mov	 ebx, DWORD PTR [ecx+8]
  00292	80 7b 0c 01	 cmp	 BYTE PTR [ebx+12], 1
  00296	75 2c		 jne	 SHORT $LN98@Extract
  00298	8b 01		 mov	 eax, DWORD PTR [ecx]
  0029a	80 78 0c 01	 cmp	 BYTE PTR [eax+12], 1
  0029e	75 24		 jne	 SHORT $LN98@Extract
$LN142@Extract:

; 597  :             for (; _Fixnode != _Myhead->_Parent && _Fixnode->_Color == _Black; _Fixnodeparent = _Fixnode->_Parent) {

  002a0	8b 5d fc	 mov	 ebx, DWORD PTR _this$1$[ebp]
  002a3	c6 41 0c 00	 mov	 BYTE PTR [ecx+12], 0
$LN2@Extract:
  002a7	8b 03		 mov	 eax, DWORD PTR [ebx]
  002a9	8b 4d f4	 mov	 ecx, DWORD PTR tv1093[ebp]
  002ac	8b f9		 mov	 edi, ecx
  002ae	8b 32		 mov	 esi, DWORD PTR [edx]
  002b0	3b 48 04	 cmp	 ecx, DWORD PTR [eax+4]
  002b3	74 49		 je	 SHORT $LN3@Extract
  002b5	80 7f 0c 01	 cmp	 BYTE PTR [edi+12], 1
  002b9	89 75 f4	 mov	 DWORD PTR tv1093[ebp], esi
  002bc	0f 84 a1 fe ff
	ff		 je	 $LL4@Extract
  002c2	eb 3a		 jmp	 SHORT $LN3@Extract
$LN98@Extract:

; 640  :                         _Pnode->_Color = _Red;
; 641  :                         _Fixnode       = _Fixnodeparent;
; 642  :                     } else { // must rearrange left subtree
; 643  :                         if (_Pnode->_Left->_Color == _Black) { // rotate red up from right sub-subtree

  002c4	8b 01		 mov	 eax, DWORD PTR [ecx]
  002c6	80 78 0c 01	 cmp	 BYTE PTR [eax+12], 1
  002ca	75 17		 jne	 SHORT $LN101@Extract

; 644  :                             _Pnode->_Right->_Color = _Black;

  002cc	c6 43 0c 01	 mov	 BYTE PTR [ebx+12], 1

; 645  :                             _Pnode->_Color         = _Red;
; 646  :                             _Lrotate(_Pnode);

  002d0	8b 5d fc	 mov	 ebx, DWORD PTR _this$1$[ebp]
  002d3	c6 41 0c 00	 mov	 BYTE PTR [ecx+12], 0
  002d7	51		 push	 ecx
  002d8	8b cb		 mov	 ecx, ebx
  002da	e8 00 00 00 00	 call	 ?_Lrotate@?$_Tree_val@U?$_Tree_simple_types@U?$pair@$$CBKPAVCClientSockE@@@std@@@std@@@std@@QAEXPAU?$_Tree_node@U?$pair@$$CBKPAVCClientSockE@@@std@@PAX@2@@Z ; std::_Tree_val<std::_Tree_simple_types<std::pair<unsigned long const ,CClientSockE *> > >::_Lrotate

; 647  :                             _Pnode = _Fixnodeparent->_Left;

  002df	8b 0e		 mov	 ecx, DWORD PTR [esi]
  002e1	eb 03		 jmp	 SHORT $LN39@Extract
$LN101@Extract:

; 640  :                         _Pnode->_Color = _Red;
; 641  :                         _Fixnode       = _Fixnodeparent;
; 642  :                     } else { // must rearrange left subtree
; 643  :                         if (_Pnode->_Left->_Color == _Black) { // rotate red up from right sub-subtree

  002e3	8b 5d fc	 mov	 ebx, DWORD PTR _this$1$[ebp]
$LN39@Extract:

; 648  :                         }
; 649  : 
; 650  :                         _Pnode->_Color         = _Fixnodeparent->_Color;

  002e6	8a 46 0c	 mov	 al, BYTE PTR [esi+12]
  002e9	88 41 0c	 mov	 BYTE PTR [ecx+12], al

; 651  :                         _Fixnodeparent->_Color = _Black;

  002ec	c6 46 0c 01	 mov	 BYTE PTR [esi+12], 1

; 652  :                         _Pnode->_Left->_Color  = _Black;

  002f0	8b 01		 mov	 eax, DWORD PTR [ecx]

; 653  :                         _Rrotate(_Fixnodeparent);

  002f2	8b cb		 mov	 ecx, ebx
  002f4	56		 push	 esi
  002f5	c6 40 0c 01	 mov	 BYTE PTR [eax+12], 1
  002f9	e8 00 00 00 00	 call	 ?_Rrotate@?$_Tree_val@U?$_Tree_simple_types@U?$pair@$$CBKPAVCClientSockE@@@std@@@std@@@std@@QAEXPAU?$_Tree_node@U?$pair@$$CBKPAVCClientSockE@@@std@@PAX@2@@Z ; std::_Tree_val<std::_Tree_simple_types<std::pair<unsigned long const ,CClientSockE *> > >::_Rrotate
$LN3@Extract:

; 654  :                         break; // tree now recolored/rebalanced
; 655  :                     }
; 656  :                 }
; 657  :             }
; 658  : 
; 659  :             _Fixnode->_Color = _Black; // stopping node is black

  002fe	8b 45 f8	 mov	 eax, DWORD PTR __Erasednode$1$[ebp]
  00301	c6 47 0c 01	 mov	 BYTE PTR [edi+12], 1
$LN25@Extract:

; 660  :         }
; 661  : 
; 662  :         if (0 < _Mysize) {

  00305	8b 4b 04	 mov	 ecx, DWORD PTR [ebx+4]
  00308	85 c9		 test	 ecx, ecx
  0030a	74 04		 je	 SHORT $LN40@Extract

; 663  :             --_Mysize;

  0030c	49		 dec	 ecx
  0030d	89 4b 04	 mov	 DWORD PTR [ebx+4], ecx
$LN40@Extract:

; 664  :         }
; 665  : 
; 666  :         return _Erasednode;
; 667  :     }

  00310	5f		 pop	 edi
  00311	5e		 pop	 esi
  00312	5b		 pop	 ebx
  00313	8b e5		 mov	 esp, ebp
  00315	5d		 pop	 ebp
  00316	c2 04 00	 ret	 4
?_Extract@?$_Tree_val@U?$_Tree_simple_types@U?$pair@$$CBKPAVCClientSockE@@@std@@@std@@@std@@QAEPAU?$_Tree_node@U?$pair@$$CBKPAVCClientSockE@@@std@@PAX@2@V?$_Tree_unchecked_const_iterator@V?$_Tree_val@U?$_Tree_simple_types@U?$pair@$$CBKPAVCClientSockE@@@std@@@std@@@std@@U_Iterator_base0@2@@2@@Z ENDP ; std::_Tree_val<std::_Tree_simple_types<std::pair<unsigned long const ,CClientSockE *> > >::_Extract
_TEXT	ENDS
; Function compile flags: /Ogtp
; File C:\Program Files\Microsoft Visual Studio\2022\Professional\VC\Tools\MSVC\14.44.35207\include\xtree
;	COMDAT ?_Rrotate@?$_Tree_val@U?$_Tree_simple_types@U?$pair@$$CBKPAVCClientSockE@@@std@@@std@@@std@@QAEXPAU?$_Tree_node@U?$pair@$$CBKPAVCClientSockE@@@std@@PAX@2@@Z
_TEXT	SEGMENT
__Wherenode$ = 8					; size = 4
?_Rrotate@?$_Tree_val@U?$_Tree_simple_types@U?$pair@$$CBKPAVCClientSockE@@@std@@@std@@@std@@QAEXPAU?$_Tree_node@U?$pair@$$CBKPAVCClientSockE@@@std@@PAX@2@@Z PROC ; std::_Tree_val<std::_Tree_simple_types<std::pair<unsigned long const ,CClientSockE *> > >::_Rrotate, COMDAT
; _this$ = ecx

; 505  :     void _Rrotate(_Nodeptr _Wherenode) noexcept { // promote left node to root of subtree

  00000	55		 push	 ebp
  00001	8b ec		 mov	 ebp, esp

; 506  :         _Nodeptr _Pnode   = _Wherenode->_Left;

  00003	8b 55 08	 mov	 edx, DWORD PTR __Wherenode$[ebp]
  00006	56		 push	 esi
  00007	8b 32		 mov	 esi, DWORD PTR [edx]

; 507  :         _Wherenode->_Left = _Pnode->_Right;

  00009	8b 46 08	 mov	 eax, DWORD PTR [esi+8]
  0000c	89 02		 mov	 DWORD PTR [edx], eax

; 508  : 
; 509  :         if (!_Pnode->_Right->_Isnil) {

  0000e	8b 46 08	 mov	 eax, DWORD PTR [esi+8]
  00011	80 78 0d 00	 cmp	 BYTE PTR [eax+13], 0
  00015	75 03		 jne	 SHORT $LN2@Rrotate

; 510  :             _Pnode->_Right->_Parent = _Wherenode;

  00017	89 50 04	 mov	 DWORD PTR [eax+4], edx
$LN2@Rrotate:

; 511  :         }
; 512  : 
; 513  :         _Pnode->_Parent = _Wherenode->_Parent;

  0001a	8b 42 04	 mov	 eax, DWORD PTR [edx+4]
  0001d	89 46 04	 mov	 DWORD PTR [esi+4], eax

; 514  : 
; 515  :         if (_Wherenode == _Myhead->_Parent) {

  00020	8b 01		 mov	 eax, DWORD PTR [ecx]
  00022	3b 50 04	 cmp	 edx, DWORD PTR [eax+4]
  00025	75 0e		 jne	 SHORT $LN3@Rrotate

; 516  :             _Myhead->_Parent = _Pnode;

  00027	89 70 04	 mov	 DWORD PTR [eax+4], esi

; 521  :         }
; 522  : 
; 523  :         _Pnode->_Right      = _Wherenode;
; 524  :         _Wherenode->_Parent = _Pnode;
; 525  :     }

  0002a	89 56 08	 mov	 DWORD PTR [esi+8], edx
  0002d	89 72 04	 mov	 DWORD PTR [edx+4], esi
  00030	5e		 pop	 esi
  00031	5d		 pop	 ebp
  00032	c2 04 00	 ret	 4
$LN3@Rrotate:

; 517  :         } else if (_Wherenode == _Wherenode->_Parent->_Right) {

  00035	8b 42 04	 mov	 eax, DWORD PTR [edx+4]
  00038	3b 50 08	 cmp	 edx, DWORD PTR [eax+8]
  0003b	75 0e		 jne	 SHORT $LN5@Rrotate

; 518  :             _Wherenode->_Parent->_Right = _Pnode;

  0003d	89 70 08	 mov	 DWORD PTR [eax+8], esi

; 521  :         }
; 522  : 
; 523  :         _Pnode->_Right      = _Wherenode;
; 524  :         _Wherenode->_Parent = _Pnode;
; 525  :     }

  00040	89 56 08	 mov	 DWORD PTR [esi+8], edx
  00043	89 72 04	 mov	 DWORD PTR [edx+4], esi
  00046	5e		 pop	 esi
  00047	5d		 pop	 ebp
  00048	c2 04 00	 ret	 4
$LN5@Rrotate:

; 519  :         } else {
; 520  :             _Wherenode->_Parent->_Left = _Pnode;

  0004b	89 30		 mov	 DWORD PTR [eax], esi

; 521  :         }
; 522  : 
; 523  :         _Pnode->_Right      = _Wherenode;
; 524  :         _Wherenode->_Parent = _Pnode;
; 525  :     }

  0004d	89 56 08	 mov	 DWORD PTR [esi+8], edx
  00050	89 72 04	 mov	 DWORD PTR [edx+4], esi
  00053	5e		 pop	 esi
  00054	5d		 pop	 ebp
  00055	c2 04 00	 ret	 4
?_Rrotate@?$_Tree_val@U?$_Tree_simple_types@U?$pair@$$CBKPAVCClientSockE@@@std@@@std@@@std@@QAEXPAU?$_Tree_node@U?$pair@$$CBKPAVCClientSockE@@@std@@PAX@2@@Z ENDP ; std::_Tree_val<std::_Tree_simple_types<std::pair<unsigned long const ,CClientSockE *> > >::_Rrotate
_TEXT	ENDS
; Function compile flags: /Ogtp
; File C:\Program Files\Microsoft Visual Studio\2022\Professional\VC\Tools\MSVC\14.44.35207\include\xtree
;	COMDAT ?_Lrotate@?$_Tree_val@U?$_Tree_simple_types@U?$pair@$$CBKPAVCClientSockE@@@std@@@std@@@std@@QAEXPAU?$_Tree_node@U?$pair@$$CBKPAVCClientSockE@@@std@@PAX@2@@Z
_TEXT	SEGMENT
__Wherenode$ = 8					; size = 4
?_Lrotate@?$_Tree_val@U?$_Tree_simple_types@U?$pair@$$CBKPAVCClientSockE@@@std@@@std@@@std@@QAEXPAU?$_Tree_node@U?$pair@$$CBKPAVCClientSockE@@@std@@PAX@2@@Z PROC ; std::_Tree_val<std::_Tree_simple_types<std::pair<unsigned long const ,CClientSockE *> > >::_Lrotate, COMDAT
; _this$ = ecx

; 483  :     void _Lrotate(_Nodeptr _Wherenode) noexcept { // promote right node to root of subtree

  00000	55		 push	 ebp
  00001	8b ec		 mov	 ebp, esp

; 484  :         _Nodeptr _Pnode    = _Wherenode->_Right;

  00003	8b 55 08	 mov	 edx, DWORD PTR __Wherenode$[ebp]
  00006	56		 push	 esi
  00007	8b 72 08	 mov	 esi, DWORD PTR [edx+8]

; 485  :         _Wherenode->_Right = _Pnode->_Left;

  0000a	8b 06		 mov	 eax, DWORD PTR [esi]
  0000c	89 42 08	 mov	 DWORD PTR [edx+8], eax

; 486  : 
; 487  :         if (!_Pnode->_Left->_Isnil) {

  0000f	8b 06		 mov	 eax, DWORD PTR [esi]
  00011	80 78 0d 00	 cmp	 BYTE PTR [eax+13], 0
  00015	75 03		 jne	 SHORT $LN2@Lrotate

; 488  :             _Pnode->_Left->_Parent = _Wherenode;

  00017	89 50 04	 mov	 DWORD PTR [eax+4], edx
$LN2@Lrotate:

; 489  :         }
; 490  : 
; 491  :         _Pnode->_Parent = _Wherenode->_Parent;

  0001a	8b 42 04	 mov	 eax, DWORD PTR [edx+4]
  0001d	89 46 04	 mov	 DWORD PTR [esi+4], eax

; 492  : 
; 493  :         if (_Wherenode == _Myhead->_Parent) {

  00020	8b 01		 mov	 eax, DWORD PTR [ecx]
  00022	3b 50 04	 cmp	 edx, DWORD PTR [eax+4]
  00025	75 0d		 jne	 SHORT $LN3@Lrotate

; 494  :             _Myhead->_Parent = _Pnode;

  00027	89 70 04	 mov	 DWORD PTR [eax+4], esi

; 499  :         }
; 500  : 
; 501  :         _Pnode->_Left       = _Wherenode;
; 502  :         _Wherenode->_Parent = _Pnode;
; 503  :     }

  0002a	89 16		 mov	 DWORD PTR [esi], edx
  0002c	89 72 04	 mov	 DWORD PTR [edx+4], esi
  0002f	5e		 pop	 esi
  00030	5d		 pop	 ebp
  00031	c2 04 00	 ret	 4
$LN3@Lrotate:

; 495  :         } else if (_Wherenode == _Wherenode->_Parent->_Left) {

  00034	8b 42 04	 mov	 eax, DWORD PTR [edx+4]
  00037	3b 10		 cmp	 edx, DWORD PTR [eax]
  00039	75 0c		 jne	 SHORT $LN5@Lrotate

; 496  :             _Wherenode->_Parent->_Left = _Pnode;

  0003b	89 30		 mov	 DWORD PTR [eax], esi

; 499  :         }
; 500  : 
; 501  :         _Pnode->_Left       = _Wherenode;
; 502  :         _Wherenode->_Parent = _Pnode;
; 503  :     }

  0003d	89 16		 mov	 DWORD PTR [esi], edx
  0003f	89 72 04	 mov	 DWORD PTR [edx+4], esi
  00042	5e		 pop	 esi
  00043	5d		 pop	 ebp
  00044	c2 04 00	 ret	 4
$LN5@Lrotate:

; 497  :         } else {
; 498  :             _Wherenode->_Parent->_Right = _Pnode;

  00047	89 70 08	 mov	 DWORD PTR [eax+8], esi

; 499  :         }
; 500  : 
; 501  :         _Pnode->_Left       = _Wherenode;
; 502  :         _Wherenode->_Parent = _Pnode;
; 503  :     }

  0004a	89 16		 mov	 DWORD PTR [esi], edx
  0004c	89 72 04	 mov	 DWORD PTR [edx+4], esi
  0004f	5e		 pop	 esi
  00050	5d		 pop	 ebp
  00051	c2 04 00	 ret	 4
?_Lrotate@?$_Tree_val@U?$_Tree_simple_types@U?$pair@$$CBKPAVCClientSockE@@@std@@@std@@@std@@QAEXPAU?$_Tree_node@U?$pair@$$CBKPAVCClientSockE@@@std@@PAX@2@@Z ENDP ; std::_Tree_val<std::_Tree_simple_types<std::pair<unsigned long const ,CClientSockE *> > >::_Lrotate
_TEXT	ENDS
; Function compile flags: /Ogtp
; File C:\Program Files\Microsoft Visual Studio\2022\Professional\VC\Tools\MSVC\14.44.35207\include\xtree
; File C:\Program Files\Microsoft Visual Studio\2022\Professional\VC\Tools\MSVC\14.44.35207\include\utility
; File C:\Program Files\Microsoft Visual Studio\2022\Professional\VC\Tools\MSVC\14.44.35207\include\xmemory
; File C:\Program Files\Microsoft Visual Studio\2022\Professional\VC\Tools\MSVC\14.44.35207\include\xtree
; File C:\Program Files\Microsoft Visual Studio\2022\Professional\VC\Tools\MSVC\14.44.35207\include\xmemory
; File C:\Program Files\Microsoft Visual Studio\2022\Professional\VC\Tools\MSVC\14.44.35207\include\xtree
;	COMDAT ??1?$_Tree@V?$_Tmap_traits@KPAVCClientSockE@@U?$less@K@std@@V?$allocator@U?$pair@$$CBKPAVCClientSockE@@@std@@@3@$0A@@std@@@std@@QAE@XZ
_TEXT	SEGMENT
??1?$_Tree@V?$_Tmap_traits@KPAVCClientSockE@@U?$less@K@std@@V?$allocator@U?$pair@$$CBKPAVCClientSockE@@@std@@@3@$0A@@std@@@std@@QAE@XZ PROC ; std::_Tree<std::_Tmap_traits<unsigned long,CClientSockE *,std::less<unsigned long>,std::allocator<std::pair<unsigned long const ,CClientSockE *> >,0> >::~_Tree<std::_Tmap_traits<unsigned long,CClientSockE *,std::less<unsigned long>,std::allocator<std::pair<unsigned long const ,CClientSockE *> >,0> >, COMDAT
; _this$ = ecx

; 1095 :     ~_Tree() noexcept {

  00000	56		 push	 esi
  00001	57		 push	 edi
  00002	8b f9		 mov	 edi, ecx

; 777  :         _Erase_tree(_Al, _Myhead->_Parent);

  00004	8b 37		 mov	 esi, DWORD PTR [edi]
  00006	8b 76 04	 mov	 esi, DWORD PTR [esi+4]

; 768  :         while (!_Rootnode->_Isnil) { // free subtrees, then node

  00009	80 7e 0d 00	 cmp	 BYTE PTR [esi+13], 0
  0000d	75 21		 jne	 SHORT $LN61@Tree
  0000f	90		 npad	 1
$LL8@Tree:

; 769  :             _Erase_tree(_Al, _Rootnode->_Right);

  00010	ff 76 08	 push	 DWORD PTR [esi+8]
  00013	8b cf		 mov	 ecx, edi
  00015	57		 push	 edi
  00016	e8 00 00 00 00	 call	 ??$_Erase_tree@V?$allocator@U?$_Tree_node@U?$pair@$$CBKPAVCClientSockE@@@std@@PAX@std@@@std@@@?$_Tree_val@U?$_Tree_simple_types@U?$pair@$$CBKPAVCClientSockE@@@std@@@std@@@std@@QAEXAAV?$allocator@U?$_Tree_node@U?$pair@$$CBKPAVCClientSockE@@@std@@PAX@std@@@1@PAU?$_Tree_node@U?$pair@$$CBKPAVCClientSockE@@@std@@PAX@1@@Z ; std::_Tree_val<std::_Tree_simple_types<std::pair<unsigned long const ,CClientSockE *> > >::_Erase_tree<std::allocator<std::_Tree_node<std::pair<unsigned long const ,CClientSockE *>,void *> > >
; File C:\Program Files\Microsoft Visual Studio\2022\Professional\VC\Tools\MSVC\14.44.35207\include\utility

; 773  :     _Ty _Old_val = static_cast<_Ty&&>(_Val);

  0001b	8b c6		 mov	 eax, esi

; 774  :     _Val         = static_cast<_Other&&>(_New_val);

  0001d	8b 36		 mov	 esi, DWORD PTR [esi]
; File C:\Program Files\Microsoft Visual Studio\2022\Professional\VC\Tools\MSVC\14.44.35207\include\xmemory

; 289  :         ::operator delete(_Ptr, _Bytes);

  0001f	6a 18		 push	 24			; 00000018H
  00021	50		 push	 eax
  00022	e8 00 00 00 00	 call	 ??3@YAXPAXI@Z		; operator delete
  00027	83 c4 08	 add	 esp, 8
; File C:\Program Files\Microsoft Visual Studio\2022\Professional\VC\Tools\MSVC\14.44.35207\include\xtree

; 768  :         while (!_Rootnode->_Isnil) { // free subtrees, then node

  0002a	80 7e 0d 00	 cmp	 BYTE PTR [esi+13], 0
  0002e	74 e0		 je	 SHORT $LL8@Tree
$LN61@Tree:
; File C:\Program Files\Microsoft Visual Studio\2022\Professional\VC\Tools\MSVC\14.44.35207\include\xmemory

; 289  :         ::operator delete(_Ptr, _Bytes);

  00030	6a 18		 push	 24			; 00000018H
  00032	ff 37		 push	 DWORD PTR [edi]
  00034	e8 00 00 00 00	 call	 ??3@YAXPAXI@Z		; operator delete
  00039	83 c4 08	 add	 esp, 8
  0003c	5f		 pop	 edi
  0003d	5e		 pop	 esi
; File C:\Program Files\Microsoft Visual Studio\2022\Professional\VC\Tools\MSVC\14.44.35207\include\xtree

; 1102 :     }

  0003e	c3		 ret	 0
??1?$_Tree@V?$_Tmap_traits@KPAVCClientSockE@@U?$less@K@std@@V?$allocator@U?$pair@$$CBKPAVCClientSockE@@@std@@@3@$0A@@std@@@std@@QAE@XZ ENDP ; std::_Tree<std::_Tmap_traits<unsigned long,CClientSockE *,std::less<unsigned long>,std::allocator<std::pair<unsigned long const ,CClientSockE *> >,0> >::~_Tree<std::_Tmap_traits<unsigned long,CClientSockE *,std::less<unsigned long>,std::allocator<std::pair<unsigned long const ,CClientSockE *> >,0> >
_TEXT	ENDS
; Function compile flags: /Ogtp
; File C:\IAGOS\server\v18\Source\Source\_Network\Net\Include\sock.h
;	COMDAT ?GetPeerAddr@CSock@@UAEKK@Z
_TEXT	SEGMENT
_dpid$ = 8						; size = 4
?GetPeerAddr@CSock@@UAEKK@Z PROC			; CSock::GetPeerAddr, COMDAT
; _this$ = ecx

; 37   : 	virtual	DWORD	GetPeerAddr( DPID dpid ) { return 0; }

  00000	33 c0		 xor	 eax, eax
  00002	c2 04 00	 ret	 4
?GetPeerAddr@CSock@@UAEKK@Z ENDP			; CSock::GetPeerAddr
_TEXT	ENDS
; Function compile flags: /Ogtp
; File C:\Program Files\Microsoft Visual Studio\2022\Professional\VC\Tools\MSVC\14.44.35207\include\xmemory
;	COMDAT ??$_Allocate_manually_vector_aligned@U_Default_allocate_traits@std@@@std@@YAPAXI@Z
_TEXT	SEGMENT
__Bytes$ = 8						; size = 4
??$_Allocate_manually_vector_aligned@U_Default_allocate_traits@std@@@std@@YAPAXI@Z PROC ; std::_Allocate_manually_vector_aligned<std::_Default_allocate_traits>, COMDAT

; 182  : __declspec(allocator) void* _Allocate_manually_vector_aligned(const size_t _Bytes) {

  00000	55		 push	 ebp
  00001	8b ec		 mov	 ebp, esp

; 183  :     // allocate _Bytes manually aligned to at least _Big_allocation_alignment
; 184  :     const size_t _Block_size = _Non_user_size + _Bytes;

  00003	8b 45 08	 mov	 eax, DWORD PTR __Bytes$[ebp]
  00006	8d 48 23	 lea	 ecx, DWORD PTR [eax+35]

; 185  :     if (_Block_size <= _Bytes) {

  00009	3b c8		 cmp	 ecx, eax
  0000b	0f 86 00 00 00
	00		 jbe	 ?_Throw_bad_array_new_length@std@@YAXXZ ; std::_Throw_bad_array_new_length

; 136  :         return ::operator new(_Bytes);

  00011	51		 push	 ecx
  00012	e8 00 00 00 00	 call	 ??2@YAPAXI@Z		; operator new

; 186  :         _Throw_bad_array_new_length(); // add overflow
; 187  :     }
; 188  : 
; 189  :     const uintptr_t _Ptr_container = reinterpret_cast<uintptr_t>(_Traits::_Allocate(_Block_size));

  00017	8b c8		 mov	 ecx, eax

; 136  :         return ::operator new(_Bytes);

  00019	83 c4 04	 add	 esp, 4

; 190  :     _STL_VERIFY(_Ptr_container != 0, "invalid argument"); // validate even in release since we're doing p[-1]

  0001c	85 c9		 test	 ecx, ecx
  0001e	74 0b		 je	 SHORT $LN9@Allocate_m

; 191  :     void* const _Ptr = reinterpret_cast<void*>((_Ptr_container + _Non_user_size) & ~(_Big_allocation_alignment - 1));

  00020	8d 41 23	 lea	 eax, DWORD PTR [ecx+35]
  00023	83 e0 e0	 and	 eax, -32		; ffffffe0H

; 192  :     static_cast<uintptr_t*>(_Ptr)[-1] = _Ptr_container;

  00026	89 48 fc	 mov	 DWORD PTR [eax-4], ecx

; 193  : 
; 194  : #ifdef _DEBUG
; 195  :     static_cast<uintptr_t*>(_Ptr)[-2] = _Big_allocation_sentinel;
; 196  : #endif // defined(_DEBUG)
; 197  :     return _Ptr;
; 198  : }

  00029	5d		 pop	 ebp
  0002a	c3		 ret	 0
$LN9@Allocate_m:

; 190  :     _STL_VERIFY(_Ptr_container != 0, "invalid argument"); // validate even in release since we're doing p[-1]

  0002b	6a 00		 push	 0
  0002d	6a 00		 push	 0
  0002f	6a 00		 push	 0
  00031	6a 00		 push	 0
  00033	6a 00		 push	 0
  00035	e8 00 00 00 00	 call	 __invoke_watson
$LN7@Allocate_m:
  0003a	cc		 int	 3
??$_Allocate_manually_vector_aligned@U_Default_allocate_traits@std@@@std@@YAPAXI@Z ENDP ; std::_Allocate_manually_vector_aligned<std::_Default_allocate_traits>
_TEXT	ENDS
; Function compile flags: /Ogtp
; File C:\IAGOS\server\v18\Source\Source\_Network\Mcl\Include\CMclAutoLock.h
; File C:\IAGOS\server\v18\Source\Source\_Network\Mcl\Include\CMclCritSec.h
; File C:\IAGOS\server\v18\Source\Source\_Network\Mcl\Include\CMclAutoLock.h
;	COMDAT ??1CMclAutoLock@@QAE@XZ
_TEXT	SEGMENT
??1CMclAutoLock@@QAE@XZ PROC				; CMclAutoLock::~CMclAutoLock, COMDAT
; _this$ = ecx
; File C:\IAGOS\server\v18\Source\Source\_Network\Mcl\Include\CMclCritSec.h

; 39   : 		::LeaveCriticalSection( &m_CritSec );

  00000	8b 01		 mov	 eax, DWORD PTR [ecx]
  00002	83 c0 04	 add	 eax, 4
  00005	50		 push	 eax
  00006	ff 15 00 00 00
	00		 call	 DWORD PTR __imp__LeaveCriticalSection@4
; File C:\IAGOS\server\v18\Source\Source\_Network\Mcl\Include\CMclAutoLock.h

; 29   : 	}

  0000c	c3		 ret	 0
??1CMclAutoLock@@QAE@XZ ENDP				; CMclAutoLock::~CMclAutoLock
_TEXT	ENDS
; Function compile flags: /Ogtp
; File C:\IAGOS\server\v18\Source\Source\_Network\Mcl\Include\CMclCritSec.h
;	COMDAT ??_GCMclCritSec@@UAEPAXI@Z
_TEXT	SEGMENT
___flags$ = 8						; size = 4
??_GCMclCritSec@@UAEPAXI@Z PROC				; CMclCritSec::`scalar deleting destructor', COMDAT
; _this$ = ecx
  00000	55		 push	 ebp
  00001	8b ec		 mov	 ebp, esp

; 26   : 	{

  00003	56		 push	 esi
  00004	8b f1		 mov	 esi, ecx

; 27   : 		::DeleteCriticalSection( &m_CritSec );

  00006	8d 46 04	 lea	 eax, DWORD PTR [esi+4]
  00009	c7 06 00 00 00
	00		 mov	 DWORD PTR [esi], OFFSET ??_7CMclCritSec@@6B@
  0000f	50		 push	 eax
  00010	ff 15 00 00 00
	00		 call	 DWORD PTR __imp__DeleteCriticalSection@4
  00016	f6 45 08 01	 test	 BYTE PTR ___flags$[ebp], 1
  0001a	74 0b		 je	 SHORT $LN8@scalar
  0001c	6a 1c		 push	 28			; 0000001cH
  0001e	56		 push	 esi
  0001f	e8 00 00 00 00	 call	 ??3@YAXPAXI@Z		; operator delete
  00024	83 c4 08	 add	 esp, 8
$LN8@scalar:
  00027	8b c6		 mov	 eax, esi
  00029	5e		 pop	 esi
  0002a	5d		 pop	 ebp
  0002b	c2 04 00	 ret	 4
??_GCMclCritSec@@UAEPAXI@Z ENDP				; CMclCritSec::`scalar deleting destructor'
_TEXT	ENDS
; Function compile flags: /Ogtp
; File C:\IAGOS\server\v18\Source\Source\_Network\Mcl\Include\CMclCritSec.h
;	COMDAT ??1CMclCritSec@@UAE@XZ
_TEXT	SEGMENT
??1CMclCritSec@@UAE@XZ PROC				; CMclCritSec::~CMclCritSec, COMDAT
; _this$ = ecx

; 27   : 		::DeleteCriticalSection( &m_CritSec );

  00000	8d 41 04	 lea	 eax, DWORD PTR [ecx+4]
  00003	c7 01 00 00 00
	00		 mov	 DWORD PTR [ecx], OFFSET ??_7CMclCritSec@@6B@
  00009	50		 push	 eax
  0000a	ff 15 00 00 00
	00		 call	 DWORD PTR __imp__DeleteCriticalSection@4

; 28   : 	}

  00010	c3		 ret	 0
??1CMclCritSec@@UAE@XZ ENDP				; CMclCritSec::~CMclCritSec
_TEXT	ENDS
; Function compile flags: /Ogtp
; File C:\Program Files\Microsoft Visual Studio\2022\Professional\VC\Tools\MSVC\14.44.35207\include\xtree
;	COMDAT ?_Throw_tree_length_error@std@@YAXXZ
_TEXT	SEGMENT
?_Throw_tree_length_error@std@@YAXXZ PROC		; std::_Throw_tree_length_error, COMDAT

; 417  :     _Xlength_error("map/set too long");

  00000	68 00 00 00 00	 push	 OFFSET ??_C@_0BB@GCADKGJO@map?1set?5too?5long@
  00005	e8 00 00 00 00	 call	 ?_Xlength_error@std@@YAXPBD@Z ; std::_Xlength_error
$LN3@Throw_tree:
  0000a	cc		 int	 3
?_Throw_tree_length_error@std@@YAXXZ ENDP		; std::_Throw_tree_length_error
_TEXT	ENDS
; Function compile flags: /Ogtp
; File C:\Program Files\Microsoft Visual Studio\2022\Professional\VC\Tools\MSVC\14.44.35207\include\xmemory
;	COMDAT ?_Throw_bad_array_new_length@std@@YAXXZ
_TEXT	SEGMENT
$T1 = -12						; size = 12
?_Throw_bad_array_new_length@std@@YAXXZ PROC		; std::_Throw_bad_array_new_length, COMDAT

; 107  : [[noreturn]] inline void _Throw_bad_array_new_length() {

  00000	55		 push	 ebp
  00001	8b ec		 mov	 ebp, esp
  00003	83 ec 0c	 sub	 esp, 12			; 0000000cH

; 108  :     _THROW(bad_array_new_length{});

  00006	8d 4d f4	 lea	 ecx, DWORD PTR $T1[ebp]
  00009	e8 00 00 00 00	 call	 ??0bad_array_new_length@std@@QAE@XZ ; std::bad_array_new_length::bad_array_new_length
  0000e	68 00 00 00 00	 push	 OFFSET __TI3?AVbad_array_new_length@std@@
  00013	8d 45 f4	 lea	 eax, DWORD PTR $T1[ebp]
  00016	50		 push	 eax
  00017	e8 00 00 00 00	 call	 __CxxThrowException@8
$LN3@Throw_bad_:
  0001c	cc		 int	 3
?_Throw_bad_array_new_length@std@@YAXXZ ENDP		; std::_Throw_bad_array_new_length
_TEXT	ENDS
; Function compile flags: /Ogtp
; File C:\Program Files\Microsoft Visual Studio\2022\Professional\VC\Tools\MSVC\14.44.35207\include\vcruntime_exception.h
;	COMDAT ??_Gbad_array_new_length@std@@UAEPAXI@Z
_TEXT	SEGMENT
___flags$ = 8						; size = 4
??_Gbad_array_new_length@std@@UAEPAXI@Z PROC		; std::bad_array_new_length::`scalar deleting destructor', COMDAT
; _this$ = ecx
  00000	55		 push	 ebp
  00001	8b ec		 mov	 ebp, esp

; 90   :     {

  00003	56		 push	 esi
  00004	8b f1		 mov	 esi, ecx

; 91   :         __std_exception_destroy(&_Data);

  00006	8d 46 04	 lea	 eax, DWORD PTR [esi+4]
  00009	c7 06 00 00 00
	00		 mov	 DWORD PTR [esi], OFFSET ??_7exception@std@@6B@
  0000f	50		 push	 eax
  00010	e8 00 00 00 00	 call	 ___std_exception_destroy
  00015	83 c4 04	 add	 esp, 4
  00018	f6 45 08 01	 test	 BYTE PTR ___flags$[ebp], 1
  0001c	74 0b		 je	 SHORT $LN18@scalar
  0001e	6a 0c		 push	 12			; 0000000cH
  00020	56		 push	 esi
  00021	e8 00 00 00 00	 call	 ??3@YAXPAXI@Z		; operator delete
  00026	83 c4 08	 add	 esp, 8
$LN18@scalar:
  00029	8b c6		 mov	 eax, esi
  0002b	5e		 pop	 esi
  0002c	5d		 pop	 ebp
  0002d	c2 04 00	 ret	 4
??_Gbad_array_new_length@std@@UAEPAXI@Z ENDP		; std::bad_array_new_length::`scalar deleting destructor'
_TEXT	ENDS
; Function compile flags: /Ogtp
; File C:\Program Files\Microsoft Visual Studio\2022\Professional\VC\Tools\MSVC\14.44.35207\include\vcruntime_exception.h
;	COMDAT ??0bad_array_new_length@std@@QAE@ABV01@@Z
_TEXT	SEGMENT
___that$ = 8						; size = 4
??0bad_array_new_length@std@@QAE@ABV01@@Z PROC		; std::bad_array_new_length::bad_array_new_length, COMDAT
; _this$ = ecx
  00000	55		 push	 ebp
  00001	8b ec		 mov	 ebp, esp

; 73   :     {

  00003	56		 push	 esi
  00004	8b f1		 mov	 esi, ecx
  00006	0f 57 c0	 xorps	 xmm0, xmm0

; 72   :         : _Data()

  00009	8d 46 04	 lea	 eax, DWORD PTR [esi+4]

; 74   :         __std_exception_copy(&_Other._Data, &_Data);

  0000c	50		 push	 eax
  0000d	c7 06 00 00 00
	00		 mov	 DWORD PTR [esi], OFFSET ??_7exception@std@@6B@
  00013	66 0f d6 00	 movq	 QWORD PTR [eax], xmm0
  00017	8b 45 08	 mov	 eax, DWORD PTR ___that$[ebp]
  0001a	83 c0 04	 add	 eax, 4
  0001d	50		 push	 eax
  0001e	e8 00 00 00 00	 call	 ___std_exception_copy
  00023	83 c4 08	 add	 esp, 8
  00026	c7 06 00 00 00
	00		 mov	 DWORD PTR [esi], OFFSET ??_7bad_array_new_length@std@@6B@
  0002c	8b c6		 mov	 eax, esi
  0002e	5e		 pop	 esi
  0002f	5d		 pop	 ebp
  00030	c2 04 00	 ret	 4
??0bad_array_new_length@std@@QAE@ABV01@@Z ENDP		; std::bad_array_new_length::bad_array_new_length
_TEXT	ENDS
; Function compile flags: /Ogtp
; File C:\Program Files\Microsoft Visual Studio\2022\Professional\VC\Tools\MSVC\14.44.35207\include\vcruntime_exception.h
;	COMDAT ??1bad_array_new_length@std@@UAE@XZ
_TEXT	SEGMENT
??1bad_array_new_length@std@@UAE@XZ PROC		; std::bad_array_new_length::~bad_array_new_length, COMDAT
; _this$ = ecx

; 91   :         __std_exception_destroy(&_Data);

  00000	8d 41 04	 lea	 eax, DWORD PTR [ecx+4]
  00003	c7 01 00 00 00
	00		 mov	 DWORD PTR [ecx], OFFSET ??_7exception@std@@6B@
  00009	50		 push	 eax
  0000a	e8 00 00 00 00	 call	 ___std_exception_destroy
  0000f	59		 pop	 ecx
  00010	c3		 ret	 0
??1bad_array_new_length@std@@UAE@XZ ENDP		; std::bad_array_new_length::~bad_array_new_length
_TEXT	ENDS
; Function compile flags: /Ogtp
; File C:\Program Files\Microsoft Visual Studio\2022\Professional\VC\Tools\MSVC\14.44.35207\include\vcruntime_exception.h
;	COMDAT ??0bad_array_new_length@std@@QAE@XZ
_TEXT	SEGMENT
??0bad_array_new_length@std@@QAE@XZ PROC		; std::bad_array_new_length::bad_array_new_length, COMDAT
; _this$ = ecx

; 144  :     {

  00000	0f 57 c0	 xorps	 xmm0, xmm0

; 145  :     }

  00003	8b c1		 mov	 eax, ecx

; 66   :         : _Data()

  00005	66 0f d6 41 04	 movq	 QWORD PTR [ecx+4], xmm0

; 67   :     {
; 68   :         _Data._What = _Message;

  0000a	c7 41 04 00 00
	00 00		 mov	 DWORD PTR [ecx+4], OFFSET ??_C@_0BF@KINCDENJ@bad?5array?5new?5length@

; 144  :     {

  00011	c7 01 00 00 00
	00		 mov	 DWORD PTR [ecx], OFFSET ??_7bad_array_new_length@std@@6B@

; 145  :     }

  00017	c3		 ret	 0
??0bad_array_new_length@std@@QAE@XZ ENDP		; std::bad_array_new_length::bad_array_new_length
_TEXT	ENDS
; Function compile flags: /Ogtp
; File C:\Program Files\Microsoft Visual Studio\2022\Professional\VC\Tools\MSVC\14.44.35207\include\vcruntime_exception.h
;	COMDAT ??_Gbad_alloc@std@@UAEPAXI@Z
_TEXT	SEGMENT
___flags$ = 8						; size = 4
??_Gbad_alloc@std@@UAEPAXI@Z PROC			; std::bad_alloc::`scalar deleting destructor', COMDAT
; _this$ = ecx
  00000	55		 push	 ebp
  00001	8b ec		 mov	 ebp, esp

; 90   :     {

  00003	56		 push	 esi
  00004	8b f1		 mov	 esi, ecx

; 91   :         __std_exception_destroy(&_Data);

  00006	8d 46 04	 lea	 eax, DWORD PTR [esi+4]
  00009	c7 06 00 00 00
	00		 mov	 DWORD PTR [esi], OFFSET ??_7exception@std@@6B@
  0000f	50		 push	 eax
  00010	e8 00 00 00 00	 call	 ___std_exception_destroy
  00015	83 c4 04	 add	 esp, 4
  00018	f6 45 08 01	 test	 BYTE PTR ___flags$[ebp], 1
  0001c	74 0b		 je	 SHORT $LN13@scalar
  0001e	6a 0c		 push	 12			; 0000000cH
  00020	56		 push	 esi
  00021	e8 00 00 00 00	 call	 ??3@YAXPAXI@Z		; operator delete
  00026	83 c4 08	 add	 esp, 8
$LN13@scalar:
  00029	8b c6		 mov	 eax, esi
  0002b	5e		 pop	 esi
  0002c	5d		 pop	 ebp
  0002d	c2 04 00	 ret	 4
??_Gbad_alloc@std@@UAEPAXI@Z ENDP			; std::bad_alloc::`scalar deleting destructor'
_TEXT	ENDS
; Function compile flags: /Ogtp
; File C:\Program Files\Microsoft Visual Studio\2022\Professional\VC\Tools\MSVC\14.44.35207\include\vcruntime_exception.h
;	COMDAT ??0bad_alloc@std@@QAE@ABV01@@Z
_TEXT	SEGMENT
___that$ = 8						; size = 4
??0bad_alloc@std@@QAE@ABV01@@Z PROC			; std::bad_alloc::bad_alloc, COMDAT
; _this$ = ecx
  00000	55		 push	 ebp
  00001	8b ec		 mov	 ebp, esp

; 73   :     {

  00003	56		 push	 esi
  00004	8b f1		 mov	 esi, ecx
  00006	0f 57 c0	 xorps	 xmm0, xmm0

; 72   :         : _Data()

  00009	8d 46 04	 lea	 eax, DWORD PTR [esi+4]

; 74   :         __std_exception_copy(&_Other._Data, &_Data);

  0000c	50		 push	 eax
  0000d	c7 06 00 00 00
	00		 mov	 DWORD PTR [esi], OFFSET ??_7exception@std@@6B@
  00013	66 0f d6 00	 movq	 QWORD PTR [eax], xmm0
  00017	8b 45 08	 mov	 eax, DWORD PTR ___that$[ebp]
  0001a	83 c0 04	 add	 eax, 4
  0001d	50		 push	 eax
  0001e	e8 00 00 00 00	 call	 ___std_exception_copy
  00023	83 c4 08	 add	 esp, 8
  00026	c7 06 00 00 00
	00		 mov	 DWORD PTR [esi], OFFSET ??_7bad_alloc@std@@6B@
  0002c	8b c6		 mov	 eax, esi
  0002e	5e		 pop	 esi
  0002f	5d		 pop	 ebp
  00030	c2 04 00	 ret	 4
??0bad_alloc@std@@QAE@ABV01@@Z ENDP			; std::bad_alloc::bad_alloc
_TEXT	ENDS
; Function compile flags: /Ogtp
; File C:\Program Files\Microsoft Visual Studio\2022\Professional\VC\Tools\MSVC\14.44.35207\include\vcruntime_exception.h
;	COMDAT ??_Gexception@std@@UAEPAXI@Z
_TEXT	SEGMENT
___flags$ = 8						; size = 4
??_Gexception@std@@UAEPAXI@Z PROC			; std::exception::`scalar deleting destructor', COMDAT
; _this$ = ecx
  00000	55		 push	 ebp
  00001	8b ec		 mov	 ebp, esp

; 90   :     {

  00003	56		 push	 esi
  00004	8b f1		 mov	 esi, ecx

; 91   :         __std_exception_destroy(&_Data);

  00006	8d 46 04	 lea	 eax, DWORD PTR [esi+4]
  00009	c7 06 00 00 00
	00		 mov	 DWORD PTR [esi], OFFSET ??_7exception@std@@6B@
  0000f	50		 push	 eax
  00010	e8 00 00 00 00	 call	 ___std_exception_destroy
  00015	83 c4 04	 add	 esp, 4
  00018	f6 45 08 01	 test	 BYTE PTR ___flags$[ebp], 1
  0001c	74 0b		 je	 SHORT $LN8@scalar
  0001e	6a 0c		 push	 12			; 0000000cH
  00020	56		 push	 esi
  00021	e8 00 00 00 00	 call	 ??3@YAXPAXI@Z		; operator delete
  00026	83 c4 08	 add	 esp, 8
$LN8@scalar:
  00029	8b c6		 mov	 eax, esi
  0002b	5e		 pop	 esi
  0002c	5d		 pop	 ebp
  0002d	c2 04 00	 ret	 4
??_Gexception@std@@UAEPAXI@Z ENDP			; std::exception::`scalar deleting destructor'
_TEXT	ENDS
; Function compile flags: /Ogtp
; File C:\Program Files\Microsoft Visual Studio\2022\Professional\VC\Tools\MSVC\14.44.35207\include\vcruntime_exception.h
;	COMDAT ?what@exception@std@@UBEPBDXZ
_TEXT	SEGMENT
?what@exception@std@@UBEPBDXZ PROC			; std::exception::what, COMDAT
; _this$ = ecx

; 96   :         return _Data._What ? _Data._What : "Unknown exception";

  00000	8b 49 04	 mov	 ecx, DWORD PTR [ecx+4]
  00003	b8 00 00 00 00	 mov	 eax, OFFSET ??_C@_0BC@EOODALEL@Unknown?5exception@
  00008	85 c9		 test	 ecx, ecx
  0000a	0f 45 c1	 cmovne	 eax, ecx

; 97   :     }

  0000d	c3		 ret	 0
?what@exception@std@@UBEPBDXZ ENDP			; std::exception::what
_TEXT	ENDS
; Function compile flags: /Ogtp
; File C:\Program Files\Microsoft Visual Studio\2022\Professional\VC\Tools\MSVC\14.44.35207\include\vcruntime_exception.h
;	COMDAT ??1exception@std@@UAE@XZ
_TEXT	SEGMENT
??1exception@std@@UAE@XZ PROC				; std::exception::~exception, COMDAT
; _this$ = ecx

; 91   :         __std_exception_destroy(&_Data);

  00000	8d 41 04	 lea	 eax, DWORD PTR [ecx+4]
  00003	c7 01 00 00 00
	00		 mov	 DWORD PTR [ecx], OFFSET ??_7exception@std@@6B@
  00009	50		 push	 eax
  0000a	e8 00 00 00 00	 call	 ___std_exception_destroy
  0000f	59		 pop	 ecx

; 92   :     }

  00010	c3		 ret	 0
??1exception@std@@UAE@XZ ENDP				; std::exception::~exception
_TEXT	ENDS
; Function compile flags: /Ogtp
; File C:\Program Files\Microsoft Visual Studio\2022\Professional\VC\Tools\MSVC\14.44.35207\include\vcruntime_exception.h
;	COMDAT ??0exception@std@@QAE@ABV01@@Z
_TEXT	SEGMENT
__Other$ = 8						; size = 4
??0exception@std@@QAE@ABV01@@Z PROC			; std::exception::exception, COMDAT
; _this$ = ecx

; 73   :     {

  00000	55		 push	 ebp
  00001	8b ec		 mov	 ebp, esp
  00003	56		 push	 esi
  00004	8b f1		 mov	 esi, ecx
  00006	0f 57 c0	 xorps	 xmm0, xmm0
  00009	8d 46 04	 lea	 eax, DWORD PTR [esi+4]

; 74   :         __std_exception_copy(&_Other._Data, &_Data);

  0000c	50		 push	 eax
  0000d	c7 06 00 00 00
	00		 mov	 DWORD PTR [esi], OFFSET ??_7exception@std@@6B@
  00013	66 0f d6 00	 movq	 QWORD PTR [eax], xmm0
  00017	8b 45 08	 mov	 eax, DWORD PTR __Other$[ebp]
  0001a	83 c0 04	 add	 eax, 4
  0001d	50		 push	 eax
  0001e	e8 00 00 00 00	 call	 ___std_exception_copy
  00023	83 c4 08	 add	 esp, 8

; 75   :     }

  00026	8b c6		 mov	 eax, esi
  00028	5e		 pop	 esi
  00029	5d		 pop	 ebp
  0002a	c2 04 00	 ret	 4
??0exception@std@@QAE@ABV01@@Z ENDP			; std::exception::exception
_TEXT	ENDS
; Function compile flags: /Ogtp
; File C:\Program Files (x86)\Windows Kits\10\Include\10.0.26100.0\ucrt\stdio.h
;	COMDAT _sprintf
_TEXT	SEGMENT
__Buffer$ = 8						; size = 4
__Format$ = 12						; size = 4
_sprintf PROC						; COMDAT

; 1771 :     {

  00000	55		 push	 ebp
  00001	8b ec		 mov	 ebp, esp

; 1392 :         int const _Result = __stdio_common_vsprintf(

  00003	8d 45 10	 lea	 eax, DWORD PTR __Format$[ebp+4]
  00006	50		 push	 eax
  00007	6a 00		 push	 0
  00009	ff 75 0c	 push	 DWORD PTR __Format$[ebp]
  0000c	6a ff		 push	 -1
  0000e	ff 75 08	 push	 DWORD PTR __Buffer$[ebp]
  00011	e8 00 00 00 00	 call	 ___local_stdio_printf_options
  00016	8b 08		 mov	 ecx, DWORD PTR [eax]
  00018	ff 70 04	 push	 DWORD PTR [eax+4]
  0001b	83 c9 01	 or	 ecx, 1
  0001e	51		 push	 ecx
  0001f	e8 00 00 00 00	 call	 ___stdio_common_vsprintf

; 1393 :             _CRT_INTERNAL_LOCAL_PRINTF_OPTIONS | _CRT_INTERNAL_PRINTF_LEGACY_VSPRINTF_NULL_TERMINATION,
; 1394 :             _Buffer, _BufferCount, _Format, _Locale, _ArgList);
; 1395 : 
; 1396 :         return _Result < 0 ? -1 : _Result;

  00024	83 c9 ff	 or	 ecx, -1
  00027	83 c4 1c	 add	 esp, 28			; 0000001cH
  0002a	85 c0		 test	 eax, eax
  0002c	0f 48 c1	 cmovs	 eax, ecx

; 1772 :         int _Result;
; 1773 :         va_list _ArgList;
; 1774 :         __crt_va_start(_ArgList, _Format);
; 1775 : 
; 1776 :         _Result = _vsprintf_l(_Buffer, _Format, NULL, _ArgList);
; 1777 : 
; 1778 :         __crt_va_end(_ArgList);
; 1779 :         return _Result;
; 1780 :     }

  0002f	5d		 pop	 ebp
  00030	c3		 ret	 0
_sprintf ENDP
_TEXT	ENDS
; Function compile flags: /Ogtp
; File C:\Program Files (x86)\Windows Kits\10\Include\10.0.26100.0\ucrt\corecrt_stdio_config.h
;	COMDAT ___local_stdio_printf_options
_TEXT	SEGMENT
___local_stdio_printf_options PROC			; COMDAT

; 91   :         static unsigned __int64 _OptionsStorage;
; 92   :         return &_OptionsStorage;

  00000	b8 00 00 00 00	 mov	 eax, OFFSET ?_OptionsStorage@?1??__local_stdio_printf_options@@9@4_KA ; `__local_stdio_printf_options'::`2'::_OptionsStorage

; 93   :     }

  00005	c3		 ret	 0
___local_stdio_printf_options ENDP
_TEXT	ENDS
; Function compile flags: /Ogtp
; File C:\IAGOS\server\v18\Source\Source\_network\net\src\serversocke.cpp
;	COMDAT ?__empty_global_delete@@YAXPAXI@Z
_TEXT	SEGMENT
___formal$ = 8						; size = 4
___formal$ = 12						; size = 4
?__empty_global_delete@@YAXPAXI@Z PROC			; __empty_global_delete, COMDAT

  00000	c2 00 00	 ret	 0
?__empty_global_delete@@YAXPAXI@Z ENDP			; __empty_global_delete
_TEXT	ENDS
; Function compile flags: /Ogtp
; File C:\IAGOS\server\v18\Source\Source\_network\net\src\serversocke.cpp
;	COMDAT ?__empty_global_delete@@YAXPAX@Z
_TEXT	SEGMENT
___formal$ = 8						; size = 4
?__empty_global_delete@@YAXPAX@Z PROC			; __empty_global_delete, COMDAT

  00000	c2 00 00	 ret	 0
?__empty_global_delete@@YAXPAX@Z ENDP			; __empty_global_delete
_TEXT	ENDS
END
