; Listing generated by Microsoft (R) Optimizing Compiler Version 19.44.35225.0 

	TITLE	C:\IAGOS\server\v18\Source\Output\WorldServer\Release\ServerDesc.obj
	.686P
	.XMM
	include listing.inc
	.model	flat

INCLUDELIB LIBCMT
INCLUDELIB OLDNAMES

PUBLIC	?__empty_global_delete@@YAXPAX@Z		; __empty_global_delete
PUBLIC	?__empty_global_delete@@YAXPAXI@Z		; __empty_global_delete
PUBLIC	??0exception@std@@QAE@ABV01@@Z			; std::exception::exception
PUBLIC	??1exception@std@@UAE@XZ			; std::exception::~exception
PUBLIC	?what@exception@std@@UBEPBDXZ			; std::exception::what
PUBLIC	??_Gexception@std@@UAEPAXI@Z			; std::exception::`scalar deleting destructor'
PUBLIC	??0bad_alloc@std@@QAE@ABV01@@Z			; std::bad_alloc::bad_alloc
PUBLIC	??_Gbad_alloc@std@@UAEPAXI@Z			; std::bad_alloc::`scalar deleting destructor'
PUBLIC	??0bad_array_new_length@std@@QAE@XZ		; std::bad_array_new_length::bad_array_new_length
PUBLIC	??1bad_array_new_length@std@@UAE@XZ		; std::bad_array_new_length::~bad_array_new_length
PUBLIC	??0bad_array_new_length@std@@QAE@ABV01@@Z	; std::bad_array_new_length::bad_array_new_length
PUBLIC	??_Gbad_array_new_length@std@@UAEPAXI@Z		; std::bad_array_new_length::`scalar deleting destructor'
PUBLIC	?_Throw_bad_array_new_length@std@@YAXXZ		; std::_Throw_bad_array_new_length
PUBLIC	??1CMclCritSec@@UAE@XZ				; CMclCritSec::~CMclCritSec
PUBLIC	??_GCMclCritSec@@UAEPAXI@Z			; CMclCritSec::`scalar deleting destructor'
PUBLIC	??1CJurisdiction@@UAE@XZ			; CJurisdiction::~CJurisdiction
PUBLIC	??_GCJurisdiction@@UAEPAXI@Z			; CJurisdiction::`scalar deleting destructor'
PUBLIC	??0CServerDesc@@QAE@XZ				; CServerDesc::CServerDesc
PUBLIC	??1CServerDesc@@UAE@XZ				; CServerDesc::~CServerDesc
PUBLIC	?IsUnderJurisdiction@CServerDesc@@QAEHKABU_D3DVECTOR@@@Z ; CServerDesc::IsUnderJurisdiction
PUBLIC	?IsIntersected@CServerDesc@@QAEHK@Z		; CServerDesc::IsIntersected
PUBLIC	?Serialize@CServerDesc@@QAEXAAVCAr@@@Z		; CServerDesc::Serialize
PUBLIC	??_GCServerDesc@@UAEPAXI@Z			; CServerDesc::`scalar deleting destructor'
PUBLIC	??1?$_Tree@V?$_Tmap_traits@KPAVCServerDesc@@U?$less@K@std@@V?$allocator@U?$pair@$$CBKPAVCServerDesc@@@std@@@3@$0A@@std@@@std@@QAE@XZ ; std::_Tree<std::_Tmap_traits<unsigned long,CServerDesc *,std::less<unsigned long>,std::allocator<std::pair<unsigned long const ,CServerDesc *> >,0> >::~_Tree<std::_Tmap_traits<unsigned long,CServerDesc *,std::less<unsigned long>,std::allocator<std::pair<unsigned long const ,CServerDesc *> >,0> >
PUBLIC	??0CServerDescArray@@QAE@XZ			; CServerDescArray::CServerDescArray
PUBLIC	??1CServerDescArray@@UAE@XZ			; CServerDescArray::~CServerDescArray
PUBLIC	?Free@CServerDescArray@@QAEXXZ			; CServerDescArray::Free
PUBLIC	?GetAt@CServerDescArray@@QAEPAVCServerDesc@@K@Z	; CServerDescArray::GetAt
PUBLIC	??_GCServerDescArray@@UAEPAXI@Z			; CServerDescArray::`scalar deleting destructor'
PUBLIC	??$_Allocate_manually_vector_aligned@U_Default_allocate_traits@std@@@std@@YAPAXI@Z ; std::_Allocate_manually_vector_aligned<std::_Default_allocate_traits>
PUBLIC	??$?6K@CAr@@QAEAAV0@ABK@Z			; CAr::operator<<<unsigned long>
PUBLIC	??$?6F@CAr@@QAEAAV0@ABF@Z			; CAr::operator<<<short>
PUBLIC	??$?6VCRect@@@CAr@@QAEAAV0@ABVCRect@@@Z		; CAr::operator<<<CRect>
PUBLIC	??$?6G@CAr@@QAEAAV0@ABG@Z			; CAr::operator<<<unsigned short>
PUBLIC	??$?5K@CAr@@QAEAAV0@AAK@Z			; CAr::operator>><unsigned long>
PUBLIC	??$?5F@CAr@@QAEAAV0@AAF@Z			; CAr::operator>><short>
PUBLIC	??$?5VCRect@@@CAr@@QAEAAV0@AAVCRect@@@Z		; CAr::operator>><CRect>
PUBLIC	??$?5G@CAr@@QAEAAV0@AAG@Z			; CAr::operator>><unsigned short>
PUBLIC	??$_Erase_tree@V?$allocator@U?$_Tree_node@U?$pair@$$CBKPAVCServerDesc@@@std@@PAX@std@@@std@@@?$_Tree_val@U?$_Tree_simple_types@U?$pair@$$CBKPAVCServerDesc@@@std@@@std@@@std@@QAEXAAV?$allocator@U?$_Tree_node@U?$pair@$$CBKPAVCServerDesc@@@std@@PAX@std@@@1@PAU?$_Tree_node@U?$pair@$$CBKPAVCServerDesc@@@std@@PAX@1@@Z ; std::_Tree_val<std::_Tree_simple_types<std::pair<unsigned long const ,CServerDesc *> > >::_Erase_tree<std::allocator<std::_Tree_node<std::pair<unsigned long const ,CServerDesc *>,void *> > >
PUBLIC	??1?$_Alloc_construct_ptr@V?$allocator@U?$_List_node@PAVCJurisdiction@@PAX@std@@@std@@@std@@QAE@XZ ; std::_Alloc_construct_ptr<std::allocator<std::_List_node<CJurisdiction *,void *> > >::~_Alloc_construct_ptr<std::allocator<std::_List_node<CJurisdiction *,void *> > >
PUBLIC	??_7exception@std@@6B@				; std::exception::`vftable'
PUBLIC	??_C@_0BC@EOODALEL@Unknown?5exception@		; `string'
PUBLIC	??_7bad_alloc@std@@6B@				; std::bad_alloc::`vftable'
PUBLIC	??_7bad_array_new_length@std@@6B@		; std::bad_array_new_length::`vftable'
PUBLIC	??_C@_0BF@KINCDENJ@bad?5array?5new?5length@	; `string'
PUBLIC	??_R0?AVexception@std@@@8			; std::exception `RTTI Type Descriptor'
PUBLIC	__CT??_R0?AVexception@std@@@8??0exception@std@@QAE@ABV01@@Z12
PUBLIC	__TI3?AVbad_array_new_length@std@@
PUBLIC	__CTA3?AVbad_array_new_length@std@@
PUBLIC	??_R0?AVbad_array_new_length@std@@@8		; std::bad_array_new_length `RTTI Type Descriptor'
PUBLIC	__CT??_R0?AVbad_array_new_length@std@@@8??0bad_array_new_length@std@@QAE@ABV01@@Z12
PUBLIC	??_R0?AVbad_alloc@std@@@8			; std::bad_alloc `RTTI Type Descriptor'
PUBLIC	__CT??_R0?AVbad_alloc@std@@@8??0bad_alloc@std@@QAE@ABV01@@Z12
PUBLIC	??_7CMclCritSec@@6B@				; CMclCritSec::`vftable'
PUBLIC	??_7CJurisdiction@@6B@				; CJurisdiction::`vftable'
PUBLIC	??_7CServerDesc@@6B@				; CServerDesc::`vftable'
PUBLIC	??_7CServerDescArray@@6B@			; CServerDescArray::`vftable'
PUBLIC	??_R4exception@std@@6B@				; std::exception::`RTTI Complete Object Locator'
PUBLIC	??_R3exception@std@@8				; std::exception::`RTTI Class Hierarchy Descriptor'
PUBLIC	??_R2exception@std@@8				; std::exception::`RTTI Base Class Array'
PUBLIC	??_R1A@?0A@EA@exception@std@@8			; std::exception::`RTTI Base Class Descriptor at (0,-1,0,64)'
PUBLIC	??_R4bad_array_new_length@std@@6B@		; std::bad_array_new_length::`RTTI Complete Object Locator'
PUBLIC	??_R3bad_array_new_length@std@@8		; std::bad_array_new_length::`RTTI Class Hierarchy Descriptor'
PUBLIC	??_R2bad_array_new_length@std@@8		; std::bad_array_new_length::`RTTI Base Class Array'
PUBLIC	??_R1A@?0A@EA@bad_array_new_length@std@@8	; std::bad_array_new_length::`RTTI Base Class Descriptor at (0,-1,0,64)'
PUBLIC	??_R1A@?0A@EA@bad_alloc@std@@8			; std::bad_alloc::`RTTI Base Class Descriptor at (0,-1,0,64)'
PUBLIC	??_R3bad_alloc@std@@8				; std::bad_alloc::`RTTI Class Hierarchy Descriptor'
PUBLIC	??_R2bad_alloc@std@@8				; std::bad_alloc::`RTTI Base Class Array'
PUBLIC	??_R4bad_alloc@std@@6B@				; std::bad_alloc::`RTTI Complete Object Locator'
PUBLIC	??_R4CMclCritSec@@6B@				; CMclCritSec::`RTTI Complete Object Locator'
PUBLIC	??_R0?AVCMclCritSec@@@8				; CMclCritSec `RTTI Type Descriptor'
PUBLIC	??_R3CMclCritSec@@8				; CMclCritSec::`RTTI Class Hierarchy Descriptor'
PUBLIC	??_R2CMclCritSec@@8				; CMclCritSec::`RTTI Base Class Array'
PUBLIC	??_R1A@?0A@EA@CMclCritSec@@8			; CMclCritSec::`RTTI Base Class Descriptor at (0,-1,0,64)'
PUBLIC	??_R4CJurisdiction@@6B@				; CJurisdiction::`RTTI Complete Object Locator'
PUBLIC	??_R0?AVCJurisdiction@@@8			; CJurisdiction `RTTI Type Descriptor'
PUBLIC	??_R3CJurisdiction@@8				; CJurisdiction::`RTTI Class Hierarchy Descriptor'
PUBLIC	??_R2CJurisdiction@@8				; CJurisdiction::`RTTI Base Class Array'
PUBLIC	??_R1A@?0A@EA@CJurisdiction@@8			; CJurisdiction::`RTTI Base Class Descriptor at (0,-1,0,64)'
PUBLIC	??_C@_0O@NKNMEGII@list?5too?5long@		; `string'
PUBLIC	??_R4CServerDesc@@6B@				; CServerDesc::`RTTI Complete Object Locator'
PUBLIC	??_R0?AVCServerDesc@@@8				; CServerDesc `RTTI Type Descriptor'
PUBLIC	??_R3CServerDesc@@8				; CServerDesc::`RTTI Class Hierarchy Descriptor'
PUBLIC	??_R2CServerDesc@@8				; CServerDesc::`RTTI Base Class Array'
PUBLIC	??_R1A@?0A@EA@CServerDesc@@8			; CServerDesc::`RTTI Base Class Descriptor at (0,-1,0,64)'
PUBLIC	??_R4CServerDescArray@@6B@			; CServerDescArray::`RTTI Complete Object Locator'
PUBLIC	??_R0?AVCServerDescArray@@@8			; CServerDescArray `RTTI Type Descriptor'
PUBLIC	??_R3CServerDescArray@@8			; CServerDescArray::`RTTI Class Hierarchy Descriptor'
PUBLIC	??_R2CServerDescArray@@8			; CServerDescArray::`RTTI Base Class Array'
PUBLIC	??_R1A@?0A@EA@CServerDescArray@@8		; CServerDescArray::`RTTI Base Class Descriptor at (0,-1,0,64)'
PUBLIC	??_R13?0A@EA@?$map@KPAVCServerDesc@@U?$less@K@std@@V?$allocator@U?$pair@$$CBKPAVCServerDesc@@@std@@@3@@std@@8 ; std::map<unsigned long,CServerDesc *,std::less<unsigned long>,std::allocator<std::pair<unsigned long const ,CServerDesc *> > >::`RTTI Base Class Descriptor at (4,-1,0,64)'
PUBLIC	??_R0?AV?$map@KPAVCServerDesc@@U?$less@K@std@@V?$allocator@U?$pair@$$CBKPAVCServerDesc@@@std@@@3@@std@@@8 ; std::map<unsigned long,CServerDesc *,std::less<unsigned long>,std::allocator<std::pair<unsigned long const ,CServerDesc *> > > `RTTI Type Descriptor'
PUBLIC	??_R3?$map@KPAVCServerDesc@@U?$less@K@std@@V?$allocator@U?$pair@$$CBKPAVCServerDesc@@@std@@@3@@std@@8 ; std::map<unsigned long,CServerDesc *,std::less<unsigned long>,std::allocator<std::pair<unsigned long const ,CServerDesc *> > >::`RTTI Class Hierarchy Descriptor'
PUBLIC	??_R2?$map@KPAVCServerDesc@@U?$less@K@std@@V?$allocator@U?$pair@$$CBKPAVCServerDesc@@@std@@@3@@std@@8 ; std::map<unsigned long,CServerDesc *,std::less<unsigned long>,std::allocator<std::pair<unsigned long const ,CServerDesc *> > >::`RTTI Base Class Array'
PUBLIC	??_R1A@?0A@EA@?$map@KPAVCServerDesc@@U?$less@K@std@@V?$allocator@U?$pair@$$CBKPAVCServerDesc@@@std@@@3@@std@@8 ; std::map<unsigned long,CServerDesc *,std::less<unsigned long>,std::allocator<std::pair<unsigned long const ,CServerDesc *> > >::`RTTI Base Class Descriptor at (0,-1,0,64)'
PUBLIC	??_R1A@?0A@EA@?$_Tree@V?$_Tmap_traits@KPAVCServerDesc@@U?$less@K@std@@V?$allocator@U?$pair@$$CBKPAVCServerDesc@@@std@@@3@$0A@@std@@@std@@8 ; std::_Tree<std::_Tmap_traits<unsigned long,CServerDesc *,std::less<unsigned long>,std::allocator<std::pair<unsigned long const ,CServerDesc *> >,0> >::`RTTI Base Class Descriptor at (0,-1,0,64)'
PUBLIC	??_R0?AV?$_Tree@V?$_Tmap_traits@KPAVCServerDesc@@U?$less@K@std@@V?$allocator@U?$pair@$$CBKPAVCServerDesc@@@std@@@3@$0A@@std@@@std@@@8 ; std::_Tree<std::_Tmap_traits<unsigned long,CServerDesc *,std::less<unsigned long>,std::allocator<std::pair<unsigned long const ,CServerDesc *> >,0> > `RTTI Type Descriptor'
PUBLIC	??_R3?$_Tree@V?$_Tmap_traits@KPAVCServerDesc@@U?$less@K@std@@V?$allocator@U?$pair@$$CBKPAVCServerDesc@@@std@@@3@$0A@@std@@@std@@8 ; std::_Tree<std::_Tmap_traits<unsigned long,CServerDesc *,std::less<unsigned long>,std::allocator<std::pair<unsigned long const ,CServerDesc *> >,0> >::`RTTI Class Hierarchy Descriptor'
PUBLIC	??_R2?$_Tree@V?$_Tmap_traits@KPAVCServerDesc@@U?$less@K@std@@V?$allocator@U?$pair@$$CBKPAVCServerDesc@@@std@@@3@$0A@@std@@@std@@8 ; std::_Tree<std::_Tmap_traits<unsigned long,CServerDesc *,std::less<unsigned long>,std::allocator<std::pair<unsigned long const ,CServerDesc *> >,0> >::`RTTI Base Class Array'
PUBLIC	??_R13?0A@EA@?$_Tree@V?$_Tmap_traits@KPAVCServerDesc@@U?$less@K@std@@V?$allocator@U?$pair@$$CBKPAVCServerDesc@@@std@@@3@$0A@@std@@@std@@8 ; std::_Tree<std::_Tmap_traits<unsigned long,CServerDesc *,std::less<unsigned long>,std::allocator<std::pair<unsigned long const ,CServerDesc *> >,0> >::`RTTI Base Class Descriptor at (4,-1,0,64)'
EXTRN	??2@YAPAXI@Z:PROC				; operator new
EXTRN	??3@YAXPAXI@Z:PROC				; operator delete
EXTRN	__invoke_watson:PROC
EXTRN	__imp__InitializeCriticalSection@4:PROC
EXTRN	__imp__EnterCriticalSection@4:PROC
EXTRN	__imp__LeaveCriticalSection@4:PROC
EXTRN	__imp__DeleteCriticalSection@4:PROC
EXTRN	__imp__SetRect@20:PROC
EXTRN	___std_exception_copy:PROC
EXTRN	___std_exception_destroy:PROC
EXTRN	??_Eexception@std@@UAEPAXI@Z:PROC		; std::exception::`vector deleting destructor'
EXTRN	??_Ebad_alloc@std@@UAEPAXI@Z:PROC		; std::bad_alloc::`vector deleting destructor'
EXTRN	??_Ebad_array_new_length@std@@UAEPAXI@Z:PROC	; std::bad_array_new_length::`vector deleting destructor'
EXTRN	?_Xlength_error@std@@YAXPBD@Z:PROC		; std::_Xlength_error
EXTRN	??_ECMclCritSec@@UAEPAXI@Z:PROC			; CMclCritSec::`vector deleting destructor'
EXTRN	?CheckBuf@CAr@@QAEXI@Z:PROC			; CAr::CheckBuf
EXTRN	?WriteString@CAr@@QAEXPBD@Z:PROC		; CAr::WriteString
EXTRN	?ReadString@CAr@@QAEPADPAD@Z:PROC		; CAr::ReadString
EXTRN	??_ECJurisdiction@@UAEPAXI@Z:PROC		; CJurisdiction::`vector deleting destructor'
EXTRN	??_ECServerDesc@@UAEPAXI@Z:PROC			; CServerDesc::`vector deleting destructor'
EXTRN	??_ECServerDescArray@@UAEPAXI@Z:PROC		; CServerDescArray::`vector deleting destructor'
EXTRN	@__security_check_cookie@4:PROC
EXTRN	__CxxThrowException@8:PROC
EXTRN	___CxxFrameHandler3:PROC
EXTRN	??_7type_info@@6B@:QWORD			; type_info::`vftable'
EXTRN	___security_cookie:DWORD
EXTRN	__fltused:DWORD
;	COMDAT ??_R13?0A@EA@?$_Tree@V?$_Tmap_traits@KPAVCServerDesc@@U?$less@K@std@@V?$allocator@U?$pair@$$CBKPAVCServerDesc@@@std@@@3@$0A@@std@@@std@@8
rdata$r	SEGMENT
??_R13?0A@EA@?$_Tree@V?$_Tmap_traits@KPAVCServerDesc@@U?$less@K@std@@V?$allocator@U?$pair@$$CBKPAVCServerDesc@@@std@@@3@$0A@@std@@@std@@8 DD FLAT:??_R0?AV?$_Tree@V?$_Tmap_traits@KPAVCServerDesc@@U?$less@K@std@@V?$allocator@U?$pair@$$CBKPAVCServerDesc@@@std@@@3@$0A@@std@@@std@@@8 ; std::_Tree<std::_Tmap_traits<unsigned long,CServerDesc *,std::less<unsigned long>,std::allocator<std::pair<unsigned long const ,CServerDesc *> >,0> >::`RTTI Base Class Descriptor at (4,-1,0,64)'
	DD	00H
	DD	04H
	DD	0ffffffffH
	DD	00H
	DD	040H
	DD	FLAT:??_R3?$_Tree@V?$_Tmap_traits@KPAVCServerDesc@@U?$less@K@std@@V?$allocator@U?$pair@$$CBKPAVCServerDesc@@@std@@@3@$0A@@std@@@std@@8
rdata$r	ENDS
;	COMDAT ??_R2?$_Tree@V?$_Tmap_traits@KPAVCServerDesc@@U?$less@K@std@@V?$allocator@U?$pair@$$CBKPAVCServerDesc@@@std@@@3@$0A@@std@@@std@@8
rdata$r	SEGMENT
??_R2?$_Tree@V?$_Tmap_traits@KPAVCServerDesc@@U?$less@K@std@@V?$allocator@U?$pair@$$CBKPAVCServerDesc@@@std@@@3@$0A@@std@@@std@@8 DD FLAT:??_R1A@?0A@EA@?$_Tree@V?$_Tmap_traits@KPAVCServerDesc@@U?$less@K@std@@V?$allocator@U?$pair@$$CBKPAVCServerDesc@@@std@@@3@$0A@@std@@@std@@8 ; std::_Tree<std::_Tmap_traits<unsigned long,CServerDesc *,std::less<unsigned long>,std::allocator<std::pair<unsigned long const ,CServerDesc *> >,0> >::`RTTI Base Class Array'
rdata$r	ENDS
;	COMDAT ??_R3?$_Tree@V?$_Tmap_traits@KPAVCServerDesc@@U?$less@K@std@@V?$allocator@U?$pair@$$CBKPAVCServerDesc@@@std@@@3@$0A@@std@@@std@@8
rdata$r	SEGMENT
??_R3?$_Tree@V?$_Tmap_traits@KPAVCServerDesc@@U?$less@K@std@@V?$allocator@U?$pair@$$CBKPAVCServerDesc@@@std@@@3@$0A@@std@@@std@@8 DD 00H ; std::_Tree<std::_Tmap_traits<unsigned long,CServerDesc *,std::less<unsigned long>,std::allocator<std::pair<unsigned long const ,CServerDesc *> >,0> >::`RTTI Class Hierarchy Descriptor'
	DD	00H
	DD	01H
	DD	FLAT:??_R2?$_Tree@V?$_Tmap_traits@KPAVCServerDesc@@U?$less@K@std@@V?$allocator@U?$pair@$$CBKPAVCServerDesc@@@std@@@3@$0A@@std@@@std@@8
rdata$r	ENDS
;	COMDAT ??_R0?AV?$_Tree@V?$_Tmap_traits@KPAVCServerDesc@@U?$less@K@std@@V?$allocator@U?$pair@$$CBKPAVCServerDesc@@@std@@@3@$0A@@std@@@std@@@8
data$rs	SEGMENT
??_R0?AV?$_Tree@V?$_Tmap_traits@KPAVCServerDesc@@U?$less@K@std@@V?$allocator@U?$pair@$$CBKPAVCServerDesc@@@std@@@3@$0A@@std@@@std@@@8 DD FLAT:??_7type_info@@6B@ ; std::_Tree<std::_Tmap_traits<unsigned long,CServerDesc *,std::less<unsigned long>,std::allocator<std::pair<unsigned long const ,CServerDesc *> >,0> > `RTTI Type Descriptor'
	DD	00H
	DB	'.?AV?$_Tree@V?$_Tmap_traits@KPAVCServerDesc@@U?$less@K@s'
	DB	'td@@V?$allocator@U?$pair@$$CBKPAVCServerDesc@@@std@@@3@$0A@@s'
	DB	'td@@@std@@', 00H
data$rs	ENDS
;	COMDAT ??_R1A@?0A@EA@?$_Tree@V?$_Tmap_traits@KPAVCServerDesc@@U?$less@K@std@@V?$allocator@U?$pair@$$CBKPAVCServerDesc@@@std@@@3@$0A@@std@@@std@@8
rdata$r	SEGMENT
??_R1A@?0A@EA@?$_Tree@V?$_Tmap_traits@KPAVCServerDesc@@U?$less@K@std@@V?$allocator@U?$pair@$$CBKPAVCServerDesc@@@std@@@3@$0A@@std@@@std@@8 DD FLAT:??_R0?AV?$_Tree@V?$_Tmap_traits@KPAVCServerDesc@@U?$less@K@std@@V?$allocator@U?$pair@$$CBKPAVCServerDesc@@@std@@@3@$0A@@std@@@std@@@8 ; std::_Tree<std::_Tmap_traits<unsigned long,CServerDesc *,std::less<unsigned long>,std::allocator<std::pair<unsigned long const ,CServerDesc *> >,0> >::`RTTI Base Class Descriptor at (0,-1,0,64)'
	DD	00H
	DD	00H
	DD	0ffffffffH
	DD	00H
	DD	040H
	DD	FLAT:??_R3?$_Tree@V?$_Tmap_traits@KPAVCServerDesc@@U?$less@K@std@@V?$allocator@U?$pair@$$CBKPAVCServerDesc@@@std@@@3@$0A@@std@@@std@@8
rdata$r	ENDS
;	COMDAT ??_R1A@?0A@EA@?$map@KPAVCServerDesc@@U?$less@K@std@@V?$allocator@U?$pair@$$CBKPAVCServerDesc@@@std@@@3@@std@@8
rdata$r	SEGMENT
??_R1A@?0A@EA@?$map@KPAVCServerDesc@@U?$less@K@std@@V?$allocator@U?$pair@$$CBKPAVCServerDesc@@@std@@@3@@std@@8 DD FLAT:??_R0?AV?$map@KPAVCServerDesc@@U?$less@K@std@@V?$allocator@U?$pair@$$CBKPAVCServerDesc@@@std@@@3@@std@@@8 ; std::map<unsigned long,CServerDesc *,std::less<unsigned long>,std::allocator<std::pair<unsigned long const ,CServerDesc *> > >::`RTTI Base Class Descriptor at (0,-1,0,64)'
	DD	01H
	DD	00H
	DD	0ffffffffH
	DD	00H
	DD	040H
	DD	FLAT:??_R3?$map@KPAVCServerDesc@@U?$less@K@std@@V?$allocator@U?$pair@$$CBKPAVCServerDesc@@@std@@@3@@std@@8
rdata$r	ENDS
;	COMDAT ??_R2?$map@KPAVCServerDesc@@U?$less@K@std@@V?$allocator@U?$pair@$$CBKPAVCServerDesc@@@std@@@3@@std@@8
rdata$r	SEGMENT
??_R2?$map@KPAVCServerDesc@@U?$less@K@std@@V?$allocator@U?$pair@$$CBKPAVCServerDesc@@@std@@@3@@std@@8 DD FLAT:??_R1A@?0A@EA@?$map@KPAVCServerDesc@@U?$less@K@std@@V?$allocator@U?$pair@$$CBKPAVCServerDesc@@@std@@@3@@std@@8 ; std::map<unsigned long,CServerDesc *,std::less<unsigned long>,std::allocator<std::pair<unsigned long const ,CServerDesc *> > >::`RTTI Base Class Array'
	DD	FLAT:??_R1A@?0A@EA@?$_Tree@V?$_Tmap_traits@KPAVCServerDesc@@U?$less@K@std@@V?$allocator@U?$pair@$$CBKPAVCServerDesc@@@std@@@3@$0A@@std@@@std@@8
rdata$r	ENDS
;	COMDAT ??_R3?$map@KPAVCServerDesc@@U?$less@K@std@@V?$allocator@U?$pair@$$CBKPAVCServerDesc@@@std@@@3@@std@@8
rdata$r	SEGMENT
??_R3?$map@KPAVCServerDesc@@U?$less@K@std@@V?$allocator@U?$pair@$$CBKPAVCServerDesc@@@std@@@3@@std@@8 DD 00H ; std::map<unsigned long,CServerDesc *,std::less<unsigned long>,std::allocator<std::pair<unsigned long const ,CServerDesc *> > >::`RTTI Class Hierarchy Descriptor'
	DD	00H
	DD	02H
	DD	FLAT:??_R2?$map@KPAVCServerDesc@@U?$less@K@std@@V?$allocator@U?$pair@$$CBKPAVCServerDesc@@@std@@@3@@std@@8
rdata$r	ENDS
;	COMDAT ??_R0?AV?$map@KPAVCServerDesc@@U?$less@K@std@@V?$allocator@U?$pair@$$CBKPAVCServerDesc@@@std@@@3@@std@@@8
data$rs	SEGMENT
??_R0?AV?$map@KPAVCServerDesc@@U?$less@K@std@@V?$allocator@U?$pair@$$CBKPAVCServerDesc@@@std@@@3@@std@@@8 DD FLAT:??_7type_info@@6B@ ; std::map<unsigned long,CServerDesc *,std::less<unsigned long>,std::allocator<std::pair<unsigned long const ,CServerDesc *> > > `RTTI Type Descriptor'
	DD	00H
	DB	'.?AV?$map@KPAVCServerDesc@@U?$less@K@std@@V?$allocator@U'
	DB	'?$pair@$$CBKPAVCServerDesc@@@std@@@3@@std@@', 00H
data$rs	ENDS
;	COMDAT ??_R13?0A@EA@?$map@KPAVCServerDesc@@U?$less@K@std@@V?$allocator@U?$pair@$$CBKPAVCServerDesc@@@std@@@3@@std@@8
rdata$r	SEGMENT
??_R13?0A@EA@?$map@KPAVCServerDesc@@U?$less@K@std@@V?$allocator@U?$pair@$$CBKPAVCServerDesc@@@std@@@3@@std@@8 DD FLAT:??_R0?AV?$map@KPAVCServerDesc@@U?$less@K@std@@V?$allocator@U?$pair@$$CBKPAVCServerDesc@@@std@@@3@@std@@@8 ; std::map<unsigned long,CServerDesc *,std::less<unsigned long>,std::allocator<std::pair<unsigned long const ,CServerDesc *> > >::`RTTI Base Class Descriptor at (4,-1,0,64)'
	DD	01H
	DD	04H
	DD	0ffffffffH
	DD	00H
	DD	040H
	DD	FLAT:??_R3?$map@KPAVCServerDesc@@U?$less@K@std@@V?$allocator@U?$pair@$$CBKPAVCServerDesc@@@std@@@3@@std@@8
rdata$r	ENDS
;	COMDAT ??_R1A@?0A@EA@CServerDescArray@@8
rdata$r	SEGMENT
??_R1A@?0A@EA@CServerDescArray@@8 DD FLAT:??_R0?AVCServerDescArray@@@8 ; CServerDescArray::`RTTI Base Class Descriptor at (0,-1,0,64)'
	DD	02H
	DD	00H
	DD	0ffffffffH
	DD	00H
	DD	040H
	DD	FLAT:??_R3CServerDescArray@@8
rdata$r	ENDS
;	COMDAT ??_R2CServerDescArray@@8
rdata$r	SEGMENT
??_R2CServerDescArray@@8 DD FLAT:??_R1A@?0A@EA@CServerDescArray@@8 ; CServerDescArray::`RTTI Base Class Array'
	DD	FLAT:??_R13?0A@EA@?$map@KPAVCServerDesc@@U?$less@K@std@@V?$allocator@U?$pair@$$CBKPAVCServerDesc@@@std@@@3@@std@@8
	DD	FLAT:??_R13?0A@EA@?$_Tree@V?$_Tmap_traits@KPAVCServerDesc@@U?$less@K@std@@V?$allocator@U?$pair@$$CBKPAVCServerDesc@@@std@@@3@$0A@@std@@@std@@8
rdata$r	ENDS
;	COMDAT ??_R3CServerDescArray@@8
rdata$r	SEGMENT
??_R3CServerDescArray@@8 DD 00H				; CServerDescArray::`RTTI Class Hierarchy Descriptor'
	DD	00H
	DD	03H
	DD	FLAT:??_R2CServerDescArray@@8
rdata$r	ENDS
;	COMDAT ??_R0?AVCServerDescArray@@@8
data$rs	SEGMENT
??_R0?AVCServerDescArray@@@8 DD FLAT:??_7type_info@@6B@	; CServerDescArray `RTTI Type Descriptor'
	DD	00H
	DB	'.?AVCServerDescArray@@', 00H
data$rs	ENDS
;	COMDAT ??_R4CServerDescArray@@6B@
rdata$r	SEGMENT
??_R4CServerDescArray@@6B@ DD 00H			; CServerDescArray::`RTTI Complete Object Locator'
	DD	00H
	DD	00H
	DD	FLAT:??_R0?AVCServerDescArray@@@8
	DD	FLAT:??_R3CServerDescArray@@8
rdata$r	ENDS
;	COMDAT ??_R1A@?0A@EA@CServerDesc@@8
rdata$r	SEGMENT
??_R1A@?0A@EA@CServerDesc@@8 DD FLAT:??_R0?AVCServerDesc@@@8 ; CServerDesc::`RTTI Base Class Descriptor at (0,-1,0,64)'
	DD	00H
	DD	00H
	DD	0ffffffffH
	DD	00H
	DD	040H
	DD	FLAT:??_R3CServerDesc@@8
rdata$r	ENDS
;	COMDAT ??_R2CServerDesc@@8
rdata$r	SEGMENT
??_R2CServerDesc@@8 DD FLAT:??_R1A@?0A@EA@CServerDesc@@8 ; CServerDesc::`RTTI Base Class Array'
rdata$r	ENDS
;	COMDAT ??_R3CServerDesc@@8
rdata$r	SEGMENT
??_R3CServerDesc@@8 DD 00H				; CServerDesc::`RTTI Class Hierarchy Descriptor'
	DD	00H
	DD	01H
	DD	FLAT:??_R2CServerDesc@@8
rdata$r	ENDS
;	COMDAT ??_R0?AVCServerDesc@@@8
data$rs	SEGMENT
??_R0?AVCServerDesc@@@8 DD FLAT:??_7type_info@@6B@	; CServerDesc `RTTI Type Descriptor'
	DD	00H
	DB	'.?AVCServerDesc@@', 00H
data$rs	ENDS
;	COMDAT ??_R4CServerDesc@@6B@
rdata$r	SEGMENT
??_R4CServerDesc@@6B@ DD 00H				; CServerDesc::`RTTI Complete Object Locator'
	DD	00H
	DD	00H
	DD	FLAT:??_R0?AVCServerDesc@@@8
	DD	FLAT:??_R3CServerDesc@@8
rdata$r	ENDS
;	COMDAT ??_C@_0O@NKNMEGII@list?5too?5long@
CONST	SEGMENT
??_C@_0O@NKNMEGII@list?5too?5long@ DB 'list too long', 00H ; `string'
CONST	ENDS
;	COMDAT ??_R1A@?0A@EA@CJurisdiction@@8
rdata$r	SEGMENT
??_R1A@?0A@EA@CJurisdiction@@8 DD FLAT:??_R0?AVCJurisdiction@@@8 ; CJurisdiction::`RTTI Base Class Descriptor at (0,-1,0,64)'
	DD	00H
	DD	00H
	DD	0ffffffffH
	DD	00H
	DD	040H
	DD	FLAT:??_R3CJurisdiction@@8
rdata$r	ENDS
;	COMDAT ??_R2CJurisdiction@@8
rdata$r	SEGMENT
??_R2CJurisdiction@@8 DD FLAT:??_R1A@?0A@EA@CJurisdiction@@8 ; CJurisdiction::`RTTI Base Class Array'
rdata$r	ENDS
;	COMDAT ??_R3CJurisdiction@@8
rdata$r	SEGMENT
??_R3CJurisdiction@@8 DD 00H				; CJurisdiction::`RTTI Class Hierarchy Descriptor'
	DD	00H
	DD	01H
	DD	FLAT:??_R2CJurisdiction@@8
rdata$r	ENDS
;	COMDAT ??_R0?AVCJurisdiction@@@8
data$rs	SEGMENT
??_R0?AVCJurisdiction@@@8 DD FLAT:??_7type_info@@6B@	; CJurisdiction `RTTI Type Descriptor'
	DD	00H
	DB	'.?AVCJurisdiction@@', 00H
data$rs	ENDS
;	COMDAT ??_R4CJurisdiction@@6B@
rdata$r	SEGMENT
??_R4CJurisdiction@@6B@ DD 00H				; CJurisdiction::`RTTI Complete Object Locator'
	DD	00H
	DD	00H
	DD	FLAT:??_R0?AVCJurisdiction@@@8
	DD	FLAT:??_R3CJurisdiction@@8
rdata$r	ENDS
;	COMDAT ??_R1A@?0A@EA@CMclCritSec@@8
rdata$r	SEGMENT
??_R1A@?0A@EA@CMclCritSec@@8 DD FLAT:??_R0?AVCMclCritSec@@@8 ; CMclCritSec::`RTTI Base Class Descriptor at (0,-1,0,64)'
	DD	00H
	DD	00H
	DD	0ffffffffH
	DD	00H
	DD	040H
	DD	FLAT:??_R3CMclCritSec@@8
rdata$r	ENDS
;	COMDAT ??_R2CMclCritSec@@8
rdata$r	SEGMENT
??_R2CMclCritSec@@8 DD FLAT:??_R1A@?0A@EA@CMclCritSec@@8 ; CMclCritSec::`RTTI Base Class Array'
rdata$r	ENDS
;	COMDAT ??_R3CMclCritSec@@8
rdata$r	SEGMENT
??_R3CMclCritSec@@8 DD 00H				; CMclCritSec::`RTTI Class Hierarchy Descriptor'
	DD	00H
	DD	01H
	DD	FLAT:??_R2CMclCritSec@@8
rdata$r	ENDS
;	COMDAT ??_R0?AVCMclCritSec@@@8
data$rs	SEGMENT
??_R0?AVCMclCritSec@@@8 DD FLAT:??_7type_info@@6B@	; CMclCritSec `RTTI Type Descriptor'
	DD	00H
	DB	'.?AVCMclCritSec@@', 00H
data$rs	ENDS
;	COMDAT ??_R4CMclCritSec@@6B@
rdata$r	SEGMENT
??_R4CMclCritSec@@6B@ DD 00H				; CMclCritSec::`RTTI Complete Object Locator'
	DD	00H
	DD	00H
	DD	FLAT:??_R0?AVCMclCritSec@@@8
	DD	FLAT:??_R3CMclCritSec@@8
rdata$r	ENDS
;	COMDAT ??_R4bad_alloc@std@@6B@
rdata$r	SEGMENT
??_R4bad_alloc@std@@6B@ DD 00H				; std::bad_alloc::`RTTI Complete Object Locator'
	DD	00H
	DD	00H
	DD	FLAT:??_R0?AVbad_alloc@std@@@8
	DD	FLAT:??_R3bad_alloc@std@@8
rdata$r	ENDS
;	COMDAT ??_R2bad_alloc@std@@8
rdata$r	SEGMENT
??_R2bad_alloc@std@@8 DD FLAT:??_R1A@?0A@EA@bad_alloc@std@@8 ; std::bad_alloc::`RTTI Base Class Array'
	DD	FLAT:??_R1A@?0A@EA@exception@std@@8
rdata$r	ENDS
;	COMDAT ??_R3bad_alloc@std@@8
rdata$r	SEGMENT
??_R3bad_alloc@std@@8 DD 00H				; std::bad_alloc::`RTTI Class Hierarchy Descriptor'
	DD	00H
	DD	02H
	DD	FLAT:??_R2bad_alloc@std@@8
rdata$r	ENDS
;	COMDAT ??_R1A@?0A@EA@bad_alloc@std@@8
rdata$r	SEGMENT
??_R1A@?0A@EA@bad_alloc@std@@8 DD FLAT:??_R0?AVbad_alloc@std@@@8 ; std::bad_alloc::`RTTI Base Class Descriptor at (0,-1,0,64)'
	DD	01H
	DD	00H
	DD	0ffffffffH
	DD	00H
	DD	040H
	DD	FLAT:??_R3bad_alloc@std@@8
rdata$r	ENDS
;	COMDAT ??_R1A@?0A@EA@bad_array_new_length@std@@8
rdata$r	SEGMENT
??_R1A@?0A@EA@bad_array_new_length@std@@8 DD FLAT:??_R0?AVbad_array_new_length@std@@@8 ; std::bad_array_new_length::`RTTI Base Class Descriptor at (0,-1,0,64)'
	DD	02H
	DD	00H
	DD	0ffffffffH
	DD	00H
	DD	040H
	DD	FLAT:??_R3bad_array_new_length@std@@8
rdata$r	ENDS
;	COMDAT ??_R2bad_array_new_length@std@@8
rdata$r	SEGMENT
??_R2bad_array_new_length@std@@8 DD FLAT:??_R1A@?0A@EA@bad_array_new_length@std@@8 ; std::bad_array_new_length::`RTTI Base Class Array'
	DD	FLAT:??_R1A@?0A@EA@bad_alloc@std@@8
	DD	FLAT:??_R1A@?0A@EA@exception@std@@8
rdata$r	ENDS
;	COMDAT ??_R3bad_array_new_length@std@@8
rdata$r	SEGMENT
??_R3bad_array_new_length@std@@8 DD 00H			; std::bad_array_new_length::`RTTI Class Hierarchy Descriptor'
	DD	00H
	DD	03H
	DD	FLAT:??_R2bad_array_new_length@std@@8
rdata$r	ENDS
;	COMDAT ??_R4bad_array_new_length@std@@6B@
rdata$r	SEGMENT
??_R4bad_array_new_length@std@@6B@ DD 00H		; std::bad_array_new_length::`RTTI Complete Object Locator'
	DD	00H
	DD	00H
	DD	FLAT:??_R0?AVbad_array_new_length@std@@@8
	DD	FLAT:??_R3bad_array_new_length@std@@8
rdata$r	ENDS
;	COMDAT ??_R1A@?0A@EA@exception@std@@8
rdata$r	SEGMENT
??_R1A@?0A@EA@exception@std@@8 DD FLAT:??_R0?AVexception@std@@@8 ; std::exception::`RTTI Base Class Descriptor at (0,-1,0,64)'
	DD	00H
	DD	00H
	DD	0ffffffffH
	DD	00H
	DD	040H
	DD	FLAT:??_R3exception@std@@8
rdata$r	ENDS
;	COMDAT ??_R2exception@std@@8
rdata$r	SEGMENT
??_R2exception@std@@8 DD FLAT:??_R1A@?0A@EA@exception@std@@8 ; std::exception::`RTTI Base Class Array'
rdata$r	ENDS
;	COMDAT ??_R3exception@std@@8
rdata$r	SEGMENT
??_R3exception@std@@8 DD 00H				; std::exception::`RTTI Class Hierarchy Descriptor'
	DD	00H
	DD	01H
	DD	FLAT:??_R2exception@std@@8
rdata$r	ENDS
;	COMDAT ??_R4exception@std@@6B@
rdata$r	SEGMENT
??_R4exception@std@@6B@ DD 00H				; std::exception::`RTTI Complete Object Locator'
	DD	00H
	DD	00H
	DD	FLAT:??_R0?AVexception@std@@@8
	DD	FLAT:??_R3exception@std@@8
rdata$r	ENDS
;	COMDAT ??_7CServerDescArray@@6B@
CONST	SEGMENT
??_7CServerDescArray@@6B@ DD FLAT:??_R4CServerDescArray@@6B@ ; CServerDescArray::`vftable'
	DD	FLAT:??_ECServerDescArray@@UAEPAXI@Z
CONST	ENDS
;	COMDAT ??_7CServerDesc@@6B@
CONST	SEGMENT
??_7CServerDesc@@6B@ DD FLAT:??_R4CServerDesc@@6B@	; CServerDesc::`vftable'
	DD	FLAT:??_ECServerDesc@@UAEPAXI@Z
CONST	ENDS
;	COMDAT ??_7CJurisdiction@@6B@
CONST	SEGMENT
??_7CJurisdiction@@6B@ DD FLAT:??_R4CJurisdiction@@6B@	; CJurisdiction::`vftable'
	DD	FLAT:??_ECJurisdiction@@UAEPAXI@Z
CONST	ENDS
;	COMDAT ??_7CMclCritSec@@6B@
CONST	SEGMENT
??_7CMclCritSec@@6B@ DD FLAT:??_R4CMclCritSec@@6B@	; CMclCritSec::`vftable'
	DD	FLAT:??_ECMclCritSec@@UAEPAXI@Z
CONST	ENDS
;	COMDAT __CT??_R0?AVbad_alloc@std@@@8??0bad_alloc@std@@QAE@ABV01@@Z12
xdata$x	SEGMENT
__CT??_R0?AVbad_alloc@std@@@8??0bad_alloc@std@@QAE@ABV01@@Z12 DD 010H
	DD	FLAT:??_R0?AVbad_alloc@std@@@8
	DD	00H
	DD	0ffffffffH
	ORG $+4
	DD	0cH
	DD	FLAT:??0bad_alloc@std@@QAE@ABV01@@Z
xdata$x	ENDS
;	COMDAT ??_R0?AVbad_alloc@std@@@8
data$r	SEGMENT
??_R0?AVbad_alloc@std@@@8 DD FLAT:??_7type_info@@6B@	; std::bad_alloc `RTTI Type Descriptor'
	DD	00H
	DB	'.?AVbad_alloc@std@@', 00H
data$r	ENDS
;	COMDAT __CT??_R0?AVbad_array_new_length@std@@@8??0bad_array_new_length@std@@QAE@ABV01@@Z12
xdata$x	SEGMENT
__CT??_R0?AVbad_array_new_length@std@@@8??0bad_array_new_length@std@@QAE@ABV01@@Z12 DD 00H
	DD	FLAT:??_R0?AVbad_array_new_length@std@@@8
	DD	00H
	DD	0ffffffffH
	ORG $+4
	DD	0cH
	DD	FLAT:??0bad_array_new_length@std@@QAE@ABV01@@Z
xdata$x	ENDS
;	COMDAT ??_R0?AVbad_array_new_length@std@@@8
data$r	SEGMENT
??_R0?AVbad_array_new_length@std@@@8 DD FLAT:??_7type_info@@6B@ ; std::bad_array_new_length `RTTI Type Descriptor'
	DD	00H
	DB	'.?AVbad_array_new_length@std@@', 00H
data$r	ENDS
;	COMDAT __CTA3?AVbad_array_new_length@std@@
xdata$x	SEGMENT
__CTA3?AVbad_array_new_length@std@@ DD 03H
	DD	FLAT:__CT??_R0?AVbad_array_new_length@std@@@8??0bad_array_new_length@std@@QAE@ABV01@@Z12
	DD	FLAT:__CT??_R0?AVbad_alloc@std@@@8??0bad_alloc@std@@QAE@ABV01@@Z12
	DD	FLAT:__CT??_R0?AVexception@std@@@8??0exception@std@@QAE@ABV01@@Z12
xdata$x	ENDS
;	COMDAT __TI3?AVbad_array_new_length@std@@
xdata$x	SEGMENT
__TI3?AVbad_array_new_length@std@@ DD 00H
	DD	FLAT:??1bad_array_new_length@std@@UAE@XZ
	DD	00H
	DD	FLAT:__CTA3?AVbad_array_new_length@std@@
xdata$x	ENDS
;	COMDAT __CT??_R0?AVexception@std@@@8??0exception@std@@QAE@ABV01@@Z12
xdata$x	SEGMENT
__CT??_R0?AVexception@std@@@8??0exception@std@@QAE@ABV01@@Z12 DD 00H
	DD	FLAT:??_R0?AVexception@std@@@8
	DD	00H
	DD	0ffffffffH
	ORG $+4
	DD	0cH
	DD	FLAT:??0exception@std@@QAE@ABV01@@Z
xdata$x	ENDS
;	COMDAT ??_R0?AVexception@std@@@8
data$r	SEGMENT
??_R0?AVexception@std@@@8 DD FLAT:??_7type_info@@6B@	; std::exception `RTTI Type Descriptor'
	DD	00H
	DB	'.?AVexception@std@@', 00H
data$r	ENDS
;	COMDAT ??_C@_0BF@KINCDENJ@bad?5array?5new?5length@
CONST	SEGMENT
??_C@_0BF@KINCDENJ@bad?5array?5new?5length@ DB 'bad array new length', 00H ; `string'
CONST	ENDS
;	COMDAT ??_7bad_array_new_length@std@@6B@
CONST	SEGMENT
??_7bad_array_new_length@std@@6B@ DD FLAT:??_R4bad_array_new_length@std@@6B@ ; std::bad_array_new_length::`vftable'
	DD	FLAT:??_Ebad_array_new_length@std@@UAEPAXI@Z
	DD	FLAT:?what@exception@std@@UBEPBDXZ
CONST	ENDS
;	COMDAT ??_7bad_alloc@std@@6B@
CONST	SEGMENT
??_7bad_alloc@std@@6B@ DD FLAT:??_R4bad_alloc@std@@6B@	; std::bad_alloc::`vftable'
	DD	FLAT:??_Ebad_alloc@std@@UAEPAXI@Z
	DD	FLAT:?what@exception@std@@UBEPBDXZ
CONST	ENDS
;	COMDAT ??_C@_0BC@EOODALEL@Unknown?5exception@
CONST	SEGMENT
??_C@_0BC@EOODALEL@Unknown?5exception@ DB 'Unknown exception', 00H ; `string'
CONST	ENDS
;	COMDAT ??_7exception@std@@6B@
CONST	SEGMENT
??_7exception@std@@6B@ DD FLAT:??_R4exception@std@@6B@	; std::exception::`vftable'
	DD	FLAT:??_Eexception@std@@UAEPAXI@Z
	DD	FLAT:?what@exception@std@@UBEPBDXZ
CONST	ENDS
;	COMDAT xdata$x
xdata$x	SEGMENT
__unwindtable$??$?0ABQAVCJurisdiction@@@?$_List_node_emplace_op2@V?$allocator@U?$_List_node@PAVCJurisdiction@@PAX@std@@@std@@@std@@QAE@AAV?$allocator@U?$_List_node@PAVCJurisdiction@@PAX@std@@@1@ABQAVCJurisdiction@@@Z DD 0ffffffffH
	DD	FLAT:__unwindfunclet$??$?0ABQAVCJurisdiction@@@?$_List_node_emplace_op2@V?$allocator@U?$_List_node@PAVCJurisdiction@@PAX@std@@@std@@@std@@QAE@AAV?$allocator@U?$_List_node@PAVCJurisdiction@@PAX@std@@@1@ABQAVCJurisdiction@@@Z$0
__ehfuncinfo$??$?0ABQAVCJurisdiction@@@?$_List_node_emplace_op2@V?$allocator@U?$_List_node@PAVCJurisdiction@@PAX@std@@@std@@@std@@QAE@AAV?$allocator@U?$_List_node@PAVCJurisdiction@@PAX@std@@@1@ABQAVCJurisdiction@@@Z DD 019930522H
	DD	01H
	DD	FLAT:__unwindtable$??$?0ABQAVCJurisdiction@@@?$_List_node_emplace_op2@V?$allocator@U?$_List_node@PAVCJurisdiction@@PAX@std@@@std@@@std@@QAE@AAV?$allocator@U?$_List_node@PAVCJurisdiction@@PAX@std@@@1@ABQAVCJurisdiction@@@Z
	DD	2 DUP(00H)
	DD	2 DUP(00H)
	DD	00H
	DD	01H
xdata$x	ENDS
;	COMDAT xdata$x
xdata$x	SEGMENT
__unwindtable$??$_Emplace@ABQAVCJurisdiction@@@?$list@PAVCJurisdiction@@V?$allocator@PAVCJurisdiction@@@std@@@std@@QAEPAU?$_List_node@PAVCJurisdiction@@PAX@1@QAU21@ABQAVCJurisdiction@@@Z DD 0ffffffffH
	DD	FLAT:__unwindfunclet$??$_Emplace@ABQAVCJurisdiction@@@?$list@PAVCJurisdiction@@V?$allocator@PAVCJurisdiction@@@std@@@std@@QAEPAU?$_List_node@PAVCJurisdiction@@PAX@1@QAU21@ABQAVCJurisdiction@@@Z$1
__ehfuncinfo$??$_Emplace@ABQAVCJurisdiction@@@?$list@PAVCJurisdiction@@V?$allocator@PAVCJurisdiction@@@std@@@std@@QAEPAU?$_List_node@PAVCJurisdiction@@PAX@1@QAU21@ABQAVCJurisdiction@@@Z DD 019930522H
	DD	01H
	DD	FLAT:__unwindtable$??$_Emplace@ABQAVCJurisdiction@@@?$list@PAVCJurisdiction@@V?$allocator@PAVCJurisdiction@@@std@@@std@@QAEPAU?$_List_node@PAVCJurisdiction@@PAX@1@QAU21@ABQAVCJurisdiction@@@Z
	DD	2 DUP(00H)
	DD	2 DUP(00H)
	DD	00H
	DD	01H
xdata$x	ENDS
;	COMDAT xdata$x
xdata$x	SEGMENT
__unwindtable$?Serialize@CServerDesc@@QAEXAAVCAr@@@Z DD 0ffffffffH
	DD	FLAT:__unwindfunclet$?Serialize@CServerDesc@@QAEXAAVCAr@@@Z$2
__ehfuncinfo$?Serialize@CServerDesc@@QAEXAAVCAr@@@Z DD 019930522H
	DD	01H
	DD	FLAT:__unwindtable$?Serialize@CServerDesc@@QAEXAAVCAr@@@Z
	DD	2 DUP(00H)
	DD	2 DUP(00H)
	DD	00H
	DD	01H
xdata$x	ENDS
;	COMDAT xdata$x
xdata$x	SEGMENT
__unwindtable$?push_back@?$list@PAVCJurisdiction@@V?$allocator@PAVCJurisdiction@@@std@@@std@@QAEXABQAVCJurisdiction@@@Z DD 0ffffffffH
	DD	FLAT:__unwindfunclet$?push_back@?$list@PAVCJurisdiction@@V?$allocator@PAVCJurisdiction@@@std@@@std@@QAEXABQAVCJurisdiction@@@Z$1
__ehfuncinfo$?push_back@?$list@PAVCJurisdiction@@V?$allocator@PAVCJurisdiction@@@std@@@std@@QAEXABQAVCJurisdiction@@@Z DD 019930522H
	DD	01H
	DD	FLAT:__unwindtable$?push_back@?$list@PAVCJurisdiction@@V?$allocator@PAVCJurisdiction@@@std@@@std@@QAEXABQAVCJurisdiction@@@Z
	DD	2 DUP(00H)
	DD	2 DUP(00H)
	DD	00H
	DD	01H
xdata$x	ENDS
; Function compile flags: /Ogtp
; File C:\Program Files\Microsoft Visual Studio\2022\Professional\VC\Tools\MSVC\14.44.35207\include\xmemory
;	COMDAT ??1?$_Alloc_construct_ptr@V?$allocator@U?$_List_node@PAVCJurisdiction@@PAX@std@@@std@@@std@@QAE@XZ
_TEXT	SEGMENT
??1?$_Alloc_construct_ptr@V?$allocator@U?$_List_node@PAVCJurisdiction@@PAX@std@@@std@@@std@@QAE@XZ PROC ; std::_Alloc_construct_ptr<std::allocator<std::_List_node<CJurisdiction *,void *> > >::~_Alloc_construct_ptr<std::allocator<std::_List_node<CJurisdiction *,void *> > >, COMDAT
; _this$ = ecx

; 1172 :         if (_Ptr) {

  00000	8b 41 04	 mov	 eax, DWORD PTR [ecx+4]
  00003	85 c0		 test	 eax, eax
  00005	74 0b		 je	 SHORT $LN10@Alloc_cons

; 289  :         ::operator delete(_Ptr, _Bytes);

  00007	6a 0c		 push	 12			; 0000000cH
  00009	50		 push	 eax
  0000a	e8 00 00 00 00	 call	 ??3@YAXPAXI@Z		; operator delete
  0000f	83 c4 08	 add	 esp, 8
$LN10@Alloc_cons:

; 1173 :             _Al.deallocate(_Ptr, 1);
; 1174 :         }
; 1175 :     }

  00012	c3		 ret	 0
??1?$_Alloc_construct_ptr@V?$allocator@U?$_List_node@PAVCJurisdiction@@PAX@std@@@std@@@std@@QAE@XZ ENDP ; std::_Alloc_construct_ptr<std::allocator<std::_List_node<CJurisdiction *,void *> > >::~_Alloc_construct_ptr<std::allocator<std::_List_node<CJurisdiction *,void *> > >
_TEXT	ENDS
; Function compile flags: /Ogtp
; File C:\Program Files\Microsoft Visual Studio\2022\Professional\VC\Tools\MSVC\14.44.35207\include\xtree
; File C:\Program Files\Microsoft Visual Studio\2022\Professional\VC\Tools\MSVC\14.44.35207\include\utility
; File C:\Program Files\Microsoft Visual Studio\2022\Professional\VC\Tools\MSVC\14.44.35207\include\xmemory
; File C:\Program Files\Microsoft Visual Studio\2022\Professional\VC\Tools\MSVC\14.44.35207\include\xtree
;	COMDAT ??$_Erase_tree@V?$allocator@U?$_Tree_node@U?$pair@$$CBKPAVCServerDesc@@@std@@PAX@std@@@std@@@?$_Tree_val@U?$_Tree_simple_types@U?$pair@$$CBKPAVCServerDesc@@@std@@@std@@@std@@QAEXAAV?$allocator@U?$_Tree_node@U?$pair@$$CBKPAVCServerDesc@@@std@@PAX@std@@@1@PAU?$_Tree_node@U?$pair@$$CBKPAVCServerDesc@@@std@@PAX@1@@Z
_TEXT	SEGMENT
__Al$ = 8						; size = 4
__Rootnode$ = 12					; size = 4
??$_Erase_tree@V?$allocator@U?$_Tree_node@U?$pair@$$CBKPAVCServerDesc@@@std@@PAX@std@@@std@@@?$_Tree_val@U?$_Tree_simple_types@U?$pair@$$CBKPAVCServerDesc@@@std@@@std@@@std@@QAEXAAV?$allocator@U?$_Tree_node@U?$pair@$$CBKPAVCServerDesc@@@std@@PAX@std@@@1@PAU?$_Tree_node@U?$pair@$$CBKPAVCServerDesc@@@std@@PAX@1@@Z PROC ; std::_Tree_val<std::_Tree_simple_types<std::pair<unsigned long const ,CServerDesc *> > >::_Erase_tree<std::allocator<std::_Tree_node<std::pair<unsigned long const ,CServerDesc *>,void *> > >, COMDAT
; _this$ = ecx

; 767  :     void _Erase_tree(_Alnode& _Al, _Nodeptr _Rootnode) noexcept {

  00000	55		 push	 ebp
  00001	8b ec		 mov	 ebp, esp
  00003	53		 push	 ebx
  00004	56		 push	 esi

; 768  :         while (!_Rootnode->_Isnil) { // free subtrees, then node

  00005	8b 75 0c	 mov	 esi, DWORD PTR __Rootnode$[ebp]
  00008	8b d9		 mov	 ebx, ecx
  0000a	80 7e 0d 00	 cmp	 BYTE PTR [esi+13], 0
  0000e	75 25		 jne	 SHORT $LN34@Erase_tree
  00010	57		 push	 edi
  00011	8b 7d 08	 mov	 edi, DWORD PTR __Al$[ebp]
$LL2@Erase_tree:

; 769  :             _Erase_tree(_Al, _Rootnode->_Right);

  00014	ff 76 08	 push	 DWORD PTR [esi+8]
  00017	8b cb		 mov	 ecx, ebx
  00019	57		 push	 edi
  0001a	e8 00 00 00 00	 call	 ??$_Erase_tree@V?$allocator@U?$_Tree_node@U?$pair@$$CBKPAVCServerDesc@@@std@@PAX@std@@@std@@@?$_Tree_val@U?$_Tree_simple_types@U?$pair@$$CBKPAVCServerDesc@@@std@@@std@@@std@@QAEXAAV?$allocator@U?$_Tree_node@U?$pair@$$CBKPAVCServerDesc@@@std@@PAX@std@@@1@PAU?$_Tree_node@U?$pair@$$CBKPAVCServerDesc@@@std@@PAX@1@@Z ; std::_Tree_val<std::_Tree_simple_types<std::pair<unsigned long const ,CServerDesc *> > >::_Erase_tree<std::allocator<std::_Tree_node<std::pair<unsigned long const ,CServerDesc *>,void *> > >
; File C:\Program Files\Microsoft Visual Studio\2022\Professional\VC\Tools\MSVC\14.44.35207\include\utility

; 773  :     _Ty _Old_val = static_cast<_Ty&&>(_Val);

  0001f	8b c6		 mov	 eax, esi

; 774  :     _Val         = static_cast<_Other&&>(_New_val);

  00021	8b 36		 mov	 esi, DWORD PTR [esi]
; File C:\Program Files\Microsoft Visual Studio\2022\Professional\VC\Tools\MSVC\14.44.35207\include\xmemory

; 289  :         ::operator delete(_Ptr, _Bytes);

  00023	6a 18		 push	 24			; 00000018H
  00025	50		 push	 eax
  00026	e8 00 00 00 00	 call	 ??3@YAXPAXI@Z		; operator delete
  0002b	83 c4 08	 add	 esp, 8
; File C:\Program Files\Microsoft Visual Studio\2022\Professional\VC\Tools\MSVC\14.44.35207\include\xtree

; 768  :         while (!_Rootnode->_Isnil) { // free subtrees, then node

  0002e	80 7e 0d 00	 cmp	 BYTE PTR [esi+13], 0
  00032	74 e0		 je	 SHORT $LL2@Erase_tree
  00034	5f		 pop	 edi
$LN34@Erase_tree:
  00035	5e		 pop	 esi

; 770  :             _Alnode::value_type::_Freenode(_Al, _STD exchange(_Rootnode, _Rootnode->_Left));
; 771  :         }
; 772  :     }

  00036	5b		 pop	 ebx
  00037	5d		 pop	 ebp
  00038	c2 08 00	 ret	 8
??$_Erase_tree@V?$allocator@U?$_Tree_node@U?$pair@$$CBKPAVCServerDesc@@@std@@PAX@std@@@std@@@?$_Tree_val@U?$_Tree_simple_types@U?$pair@$$CBKPAVCServerDesc@@@std@@@std@@@std@@QAEXAAV?$allocator@U?$_Tree_node@U?$pair@$$CBKPAVCServerDesc@@@std@@PAX@std@@@1@PAU?$_Tree_node@U?$pair@$$CBKPAVCServerDesc@@@std@@PAX@1@@Z ENDP ; std::_Tree_val<std::_Tree_simple_types<std::pair<unsigned long const ,CServerDesc *> > >::_Erase_tree<std::allocator<std::_Tree_node<std::pair<unsigned long const ,CServerDesc *>,void *> > >
_TEXT	ENDS
; Function compile flags: /Ogtp
; File C:\IAGOS\server\v18\Source\Source\_Network\Misc\Include\ar.h
;	COMDAT ??$?5G@CAr@@QAEAAV0@AAG@Z
_TEXT	SEGMENT
_t$ = 8							; size = 4
??$?5G@CAr@@QAEAAV0@AAG@Z PROC				; CAr::operator>><unsigned short>, COMDAT
; _this$ = ecx

; 302  : {

  00000	55		 push	 ebp
  00001	8b ec		 mov	 ebp, esp
  00003	8b d1		 mov	 edx, ecx

; 303  : 	if (m_lpBufCur + sizeof(T) <= m_lpBufMax)

  00005	8b 4a 08	 mov	 ecx, DWORD PTR [edx+8]
  00008	8d 41 02	 lea	 eax, DWORD PTR [ecx+2]
  0000b	3b 42 0c	 cmp	 eax, DWORD PTR [edx+12]
  0000e	8b 45 08	 mov	 eax, DWORD PTR _t$[ebp]
  00011	77 10		 ja	 SHORT $LN2@operator

; 304  : 	{
; 305  : 		t = *(UNALIGNED T*)m_lpBufCur;

  00013	66 8b 09	 mov	 cx, WORD PTR [ecx]
  00016	66 89 08	 mov	 WORD PTR [eax], cx

; 312  : 	}
; 313  : 	return *this;
; 314  : }

  00019	8b c2		 mov	 eax, edx
  0001b	83 42 08 02	 add	 DWORD PTR [edx+8], 2
  0001f	5d		 pop	 ebp
  00020	c2 04 00	 ret	 4
$LN2@operator:

; 306  : 		m_lpBufCur += sizeof(T);
; 307  : 	}
; 308  : 	else
; 309  : 	{
; 310  : 		t = T();

  00023	33 c9		 xor	 ecx, ecx
  00025	66 89 08	 mov	 WORD PTR [eax], cx

; 311  : 		m_lpBufCur = m_lpBufMax;

  00028	8b 42 0c	 mov	 eax, DWORD PTR [edx+12]
  0002b	89 42 08	 mov	 DWORD PTR [edx+8], eax

; 312  : 	}
; 313  : 	return *this;
; 314  : }

  0002e	8b c2		 mov	 eax, edx
  00030	5d		 pop	 ebp
  00031	c2 04 00	 ret	 4
??$?5G@CAr@@QAEAAV0@AAG@Z ENDP				; CAr::operator>><unsigned short>
_TEXT	ENDS
; Function compile flags: /Ogtp
; File C:\IAGOS\server\v18\Source\Source\_Network\Misc\Include\ar.h
;	COMDAT ??$?5VCRect@@@CAr@@QAEAAV0@AAVCRect@@@Z
_TEXT	SEGMENT
_t$ = 8							; size = 4
??$?5VCRect@@@CAr@@QAEAAV0@AAVCRect@@@Z PROC		; CAr::operator>><CRect>, COMDAT
; _this$ = ecx

; 302  : {

  00000	55		 push	 ebp
  00001	8b ec		 mov	 ebp, esp

; 303  : 	if (m_lpBufCur + sizeof(T) <= m_lpBufMax)

  00003	8b 51 08	 mov	 edx, DWORD PTR [ecx+8]
  00006	8d 42 10	 lea	 eax, DWORD PTR [edx+16]
  00009	3b 41 0c	 cmp	 eax, DWORD PTR [ecx+12]
  0000c	8b 45 08	 mov	 eax, DWORD PTR _t$[ebp]
  0000f	77 10		 ja	 SHORT $LN2@operator

; 304  : 	{
; 305  : 		t = *(UNALIGNED T*)m_lpBufCur;

  00011	0f 10 02	 movups	 xmm0, XMMWORD PTR [edx]
  00014	0f 11 00	 movups	 XMMWORD PTR [eax], xmm0

; 306  : 		m_lpBufCur += sizeof(T);

  00017	83 41 08 10	 add	 DWORD PTR [ecx+8], 16	; 00000010H

; 312  : 	}
; 313  : 	return *this;
; 314  : }

  0001b	8b c1		 mov	 eax, ecx
  0001d	5d		 pop	 ebp
  0001e	c2 04 00	 ret	 4
$LN2@operator:
  00021	0f 57 c0	 xorps	 xmm0, xmm0

; 307  : 	}
; 308  : 	else
; 309  : 	{
; 310  : 		t = T();

  00024	0f 11 00	 movups	 XMMWORD PTR [eax], xmm0

; 311  : 		m_lpBufCur = m_lpBufMax;

  00027	8b 41 0c	 mov	 eax, DWORD PTR [ecx+12]
  0002a	89 41 08	 mov	 DWORD PTR [ecx+8], eax

; 312  : 	}
; 313  : 	return *this;
; 314  : }

  0002d	8b c1		 mov	 eax, ecx
  0002f	5d		 pop	 ebp
  00030	c2 04 00	 ret	 4
??$?5VCRect@@@CAr@@QAEAAV0@AAVCRect@@@Z ENDP		; CAr::operator>><CRect>
_TEXT	ENDS
; Function compile flags: /Ogtp
; File C:\IAGOS\server\v18\Source\Source\_Network\Misc\Include\ar.h
;	COMDAT ??$?5F@CAr@@QAEAAV0@AAF@Z
_TEXT	SEGMENT
_t$ = 8							; size = 4
??$?5F@CAr@@QAEAAV0@AAF@Z PROC				; CAr::operator>><short>, COMDAT
; _this$ = ecx

; 302  : {

  00000	55		 push	 ebp
  00001	8b ec		 mov	 ebp, esp
  00003	8b d1		 mov	 edx, ecx

; 303  : 	if (m_lpBufCur + sizeof(T) <= m_lpBufMax)

  00005	8b 4a 08	 mov	 ecx, DWORD PTR [edx+8]
  00008	8d 41 02	 lea	 eax, DWORD PTR [ecx+2]
  0000b	3b 42 0c	 cmp	 eax, DWORD PTR [edx+12]
  0000e	8b 45 08	 mov	 eax, DWORD PTR _t$[ebp]
  00011	77 10		 ja	 SHORT $LN2@operator

; 304  : 	{
; 305  : 		t = *(UNALIGNED T*)m_lpBufCur;

  00013	66 8b 09	 mov	 cx, WORD PTR [ecx]
  00016	66 89 08	 mov	 WORD PTR [eax], cx

; 312  : 	}
; 313  : 	return *this;
; 314  : }

  00019	8b c2		 mov	 eax, edx
  0001b	83 42 08 02	 add	 DWORD PTR [edx+8], 2
  0001f	5d		 pop	 ebp
  00020	c2 04 00	 ret	 4
$LN2@operator:

; 306  : 		m_lpBufCur += sizeof(T);
; 307  : 	}
; 308  : 	else
; 309  : 	{
; 310  : 		t = T();

  00023	33 c9		 xor	 ecx, ecx
  00025	66 89 08	 mov	 WORD PTR [eax], cx

; 311  : 		m_lpBufCur = m_lpBufMax;

  00028	8b 42 0c	 mov	 eax, DWORD PTR [edx+12]
  0002b	89 42 08	 mov	 DWORD PTR [edx+8], eax

; 312  : 	}
; 313  : 	return *this;
; 314  : }

  0002e	8b c2		 mov	 eax, edx
  00030	5d		 pop	 ebp
  00031	c2 04 00	 ret	 4
??$?5F@CAr@@QAEAAV0@AAF@Z ENDP				; CAr::operator>><short>
_TEXT	ENDS
; Function compile flags: /Ogtp
; File C:\IAGOS\server\v18\Source\Source\_Network\Misc\Include\ar.h
;	COMDAT ??$?5K@CAr@@QAEAAV0@AAK@Z
_TEXT	SEGMENT
_t$ = 8							; size = 4
??$?5K@CAr@@QAEAAV0@AAK@Z PROC				; CAr::operator>><unsigned long>, COMDAT
; _this$ = ecx

; 302  : {

  00000	55		 push	 ebp
  00001	8b ec		 mov	 ebp, esp
  00003	8b d1		 mov	 edx, ecx

; 303  : 	if (m_lpBufCur + sizeof(T) <= m_lpBufMax)

  00005	8b 4a 08	 mov	 ecx, DWORD PTR [edx+8]
  00008	8d 41 04	 lea	 eax, DWORD PTR [ecx+4]
  0000b	3b 42 0c	 cmp	 eax, DWORD PTR [edx+12]
  0000e	8b 45 08	 mov	 eax, DWORD PTR _t$[ebp]
  00011	77 0e		 ja	 SHORT $LN2@operator

; 304  : 	{
; 305  : 		t = *(UNALIGNED T*)m_lpBufCur;

  00013	8b 09		 mov	 ecx, DWORD PTR [ecx]
  00015	89 08		 mov	 DWORD PTR [eax], ecx

; 312  : 	}
; 313  : 	return *this;
; 314  : }

  00017	8b c2		 mov	 eax, edx
  00019	83 42 08 04	 add	 DWORD PTR [edx+8], 4
  0001d	5d		 pop	 ebp
  0001e	c2 04 00	 ret	 4
$LN2@operator:

; 306  : 		m_lpBufCur += sizeof(T);
; 307  : 	}
; 308  : 	else
; 309  : 	{
; 310  : 		t = T();

  00021	c7 00 00 00 00
	00		 mov	 DWORD PTR [eax], 0

; 311  : 		m_lpBufCur = m_lpBufMax;

  00027	8b 42 0c	 mov	 eax, DWORD PTR [edx+12]
  0002a	89 42 08	 mov	 DWORD PTR [edx+8], eax

; 312  : 	}
; 313  : 	return *this;
; 314  : }

  0002d	8b c2		 mov	 eax, edx
  0002f	5d		 pop	 ebp
  00030	c2 04 00	 ret	 4
??$?5K@CAr@@QAEAAV0@AAK@Z ENDP				; CAr::operator>><unsigned long>
_TEXT	ENDS
; Function compile flags: /Ogtp
; File C:\IAGOS\server\v18\Source\Source\_Network\Misc\Include\ar.h
;	COMDAT ??$?6G@CAr@@QAEAAV0@ABG@Z
_TEXT	SEGMENT
_t$ = 8							; size = 4
??$?6G@CAr@@QAEAAV0@ABG@Z PROC				; CAr::operator<<<unsigned short>, COMDAT
; _this$ = ecx

; 255  : {

  00000	55		 push	 ebp
  00001	8b ec		 mov	 ebp, esp
  00003	56		 push	 esi

; 256  : 	CheckBuf(sizeof(T));

  00004	6a 02		 push	 2
  00006	8b f1		 mov	 esi, ecx
  00008	e8 00 00 00 00	 call	 ?CheckBuf@CAr@@QAEXI@Z	; CAr::CheckBuf

; 257  : 	*(UNALIGNED T*)m_lpBufCur = t;

  0000d	8b 45 08	 mov	 eax, DWORD PTR _t$[ebp]
  00010	8b 56 08	 mov	 edx, DWORD PTR [esi+8]
  00013	66 8b 00	 mov	 ax, WORD PTR [eax]
  00016	66 89 02	 mov	 WORD PTR [edx], ax

; 258  : 	m_lpBufCur += sizeof(T);
; 259  : 	return *this;

  00019	8b c6		 mov	 eax, esi
  0001b	83 46 08 02	 add	 DWORD PTR [esi+8], 2
  0001f	5e		 pop	 esi

; 260  : }

  00020	5d		 pop	 ebp
  00021	c2 04 00	 ret	 4
??$?6G@CAr@@QAEAAV0@ABG@Z ENDP				; CAr::operator<<<unsigned short>
_TEXT	ENDS
; Function compile flags: /Ogtp
; File C:\IAGOS\server\v18\Source\Source\_Network\Misc\Include\ar.h
;	COMDAT ??$?6VCRect@@@CAr@@QAEAAV0@ABVCRect@@@Z
_TEXT	SEGMENT
_t$ = 8							; size = 4
??$?6VCRect@@@CAr@@QAEAAV0@ABVCRect@@@Z PROC		; CAr::operator<<<CRect>, COMDAT
; _this$ = ecx

; 255  : {

  00000	55		 push	 ebp
  00001	8b ec		 mov	 ebp, esp
  00003	56		 push	 esi

; 256  : 	CheckBuf(sizeof(T));

  00004	6a 10		 push	 16			; 00000010H
  00006	8b f1		 mov	 esi, ecx
  00008	e8 00 00 00 00	 call	 ?CheckBuf@CAr@@QAEXI@Z	; CAr::CheckBuf

; 257  : 	*(UNALIGNED T*)m_lpBufCur = t;

  0000d	8b 45 08	 mov	 eax, DWORD PTR _t$[ebp]
  00010	8b 56 08	 mov	 edx, DWORD PTR [esi+8]
  00013	0f 10 00	 movups	 xmm0, XMMWORD PTR [eax]

; 258  : 	m_lpBufCur += sizeof(T);
; 259  : 	return *this;

  00016	8b c6		 mov	 eax, esi
  00018	0f 11 02	 movups	 XMMWORD PTR [edx], xmm0
  0001b	83 46 08 10	 add	 DWORD PTR [esi+8], 16	; 00000010H
  0001f	5e		 pop	 esi

; 260  : }

  00020	5d		 pop	 ebp
  00021	c2 04 00	 ret	 4
??$?6VCRect@@@CAr@@QAEAAV0@ABVCRect@@@Z ENDP		; CAr::operator<<<CRect>
_TEXT	ENDS
; Function compile flags: /Ogtp
; File C:\IAGOS\server\v18\Source\Source\_Network\Misc\Include\ar.h
;	COMDAT ??$?6F@CAr@@QAEAAV0@ABF@Z
_TEXT	SEGMENT
_t$ = 8							; size = 4
??$?6F@CAr@@QAEAAV0@ABF@Z PROC				; CAr::operator<<<short>, COMDAT
; _this$ = ecx

; 255  : {

  00000	55		 push	 ebp
  00001	8b ec		 mov	 ebp, esp
  00003	56		 push	 esi

; 256  : 	CheckBuf(sizeof(T));

  00004	6a 02		 push	 2
  00006	8b f1		 mov	 esi, ecx
  00008	e8 00 00 00 00	 call	 ?CheckBuf@CAr@@QAEXI@Z	; CAr::CheckBuf

; 257  : 	*(UNALIGNED T*)m_lpBufCur = t;

  0000d	8b 45 08	 mov	 eax, DWORD PTR _t$[ebp]
  00010	8b 56 08	 mov	 edx, DWORD PTR [esi+8]
  00013	66 8b 00	 mov	 ax, WORD PTR [eax]
  00016	66 89 02	 mov	 WORD PTR [edx], ax

; 258  : 	m_lpBufCur += sizeof(T);
; 259  : 	return *this;

  00019	8b c6		 mov	 eax, esi
  0001b	83 46 08 02	 add	 DWORD PTR [esi+8], 2
  0001f	5e		 pop	 esi

; 260  : }

  00020	5d		 pop	 ebp
  00021	c2 04 00	 ret	 4
??$?6F@CAr@@QAEAAV0@ABF@Z ENDP				; CAr::operator<<<short>
_TEXT	ENDS
; Function compile flags: /Ogtp
; File C:\IAGOS\server\v18\Source\Source\_Network\Misc\Include\ar.h
;	COMDAT ??$?6K@CAr@@QAEAAV0@ABK@Z
_TEXT	SEGMENT
_t$ = 8							; size = 4
??$?6K@CAr@@QAEAAV0@ABK@Z PROC				; CAr::operator<<<unsigned long>, COMDAT
; _this$ = ecx

; 255  : {

  00000	55		 push	 ebp
  00001	8b ec		 mov	 ebp, esp
  00003	56		 push	 esi

; 256  : 	CheckBuf(sizeof(T));

  00004	6a 04		 push	 4
  00006	8b f1		 mov	 esi, ecx
  00008	e8 00 00 00 00	 call	 ?CheckBuf@CAr@@QAEXI@Z	; CAr::CheckBuf

; 257  : 	*(UNALIGNED T*)m_lpBufCur = t;

  0000d	8b 56 08	 mov	 edx, DWORD PTR [esi+8]
  00010	8b 45 08	 mov	 eax, DWORD PTR _t$[ebp]
  00013	8b 00		 mov	 eax, DWORD PTR [eax]
  00015	89 02		 mov	 DWORD PTR [edx], eax

; 258  : 	m_lpBufCur += sizeof(T);
; 259  : 	return *this;

  00017	8b c6		 mov	 eax, esi
  00019	83 46 08 04	 add	 DWORD PTR [esi+8], 4
  0001d	5e		 pop	 esi

; 260  : }

  0001e	5d		 pop	 ebp
  0001f	c2 04 00	 ret	 4
??$?6K@CAr@@QAEAAV0@ABK@Z ENDP				; CAr::operator<<<unsigned long>
_TEXT	ENDS
; Function compile flags: /Ogtp
; File C:\Program Files\Microsoft Visual Studio\2022\Professional\VC\Tools\MSVC\14.44.35207\include\xmemory
;	COMDAT ??$_Allocate_manually_vector_aligned@U_Default_allocate_traits@std@@@std@@YAPAXI@Z
_TEXT	SEGMENT
__Bytes$ = 8						; size = 4
??$_Allocate_manually_vector_aligned@U_Default_allocate_traits@std@@@std@@YAPAXI@Z PROC ; std::_Allocate_manually_vector_aligned<std::_Default_allocate_traits>, COMDAT

; 182  : __declspec(allocator) void* _Allocate_manually_vector_aligned(const size_t _Bytes) {

  00000	55		 push	 ebp
  00001	8b ec		 mov	 ebp, esp

; 183  :     // allocate _Bytes manually aligned to at least _Big_allocation_alignment
; 184  :     const size_t _Block_size = _Non_user_size + _Bytes;

  00003	8b 45 08	 mov	 eax, DWORD PTR __Bytes$[ebp]
  00006	8d 48 23	 lea	 ecx, DWORD PTR [eax+35]

; 185  :     if (_Block_size <= _Bytes) {

  00009	3b c8		 cmp	 ecx, eax
  0000b	0f 86 00 00 00
	00		 jbe	 ?_Throw_bad_array_new_length@std@@YAXXZ ; std::_Throw_bad_array_new_length

; 136  :         return ::operator new(_Bytes);

  00011	51		 push	 ecx
  00012	e8 00 00 00 00	 call	 ??2@YAPAXI@Z		; operator new

; 186  :         _Throw_bad_array_new_length(); // add overflow
; 187  :     }
; 188  : 
; 189  :     const uintptr_t _Ptr_container = reinterpret_cast<uintptr_t>(_Traits::_Allocate(_Block_size));

  00017	8b c8		 mov	 ecx, eax

; 136  :         return ::operator new(_Bytes);

  00019	83 c4 04	 add	 esp, 4

; 190  :     _STL_VERIFY(_Ptr_container != 0, "invalid argument"); // validate even in release since we're doing p[-1]

  0001c	85 c9		 test	 ecx, ecx
  0001e	74 0b		 je	 SHORT $LN9@Allocate_m

; 191  :     void* const _Ptr = reinterpret_cast<void*>((_Ptr_container + _Non_user_size) & ~(_Big_allocation_alignment - 1));

  00020	8d 41 23	 lea	 eax, DWORD PTR [ecx+35]
  00023	83 e0 e0	 and	 eax, -32		; ffffffe0H

; 192  :     static_cast<uintptr_t*>(_Ptr)[-1] = _Ptr_container;

  00026	89 48 fc	 mov	 DWORD PTR [eax-4], ecx

; 193  : 
; 194  : #ifdef _DEBUG
; 195  :     static_cast<uintptr_t*>(_Ptr)[-2] = _Big_allocation_sentinel;
; 196  : #endif // defined(_DEBUG)
; 197  :     return _Ptr;
; 198  : }

  00029	5d		 pop	 ebp
  0002a	c3		 ret	 0
$LN9@Allocate_m:

; 190  :     _STL_VERIFY(_Ptr_container != 0, "invalid argument"); // validate even in release since we're doing p[-1]

  0002b	6a 00		 push	 0
  0002d	6a 00		 push	 0
  0002f	6a 00		 push	 0
  00031	6a 00		 push	 0
  00033	6a 00		 push	 0
  00035	e8 00 00 00 00	 call	 __invoke_watson
$LN7@Allocate_m:
  0003a	cc		 int	 3
??$_Allocate_manually_vector_aligned@U_Default_allocate_traits@std@@@std@@YAPAXI@Z ENDP ; std::_Allocate_manually_vector_aligned<std::_Default_allocate_traits>
_TEXT	ENDS
; Function compile flags: /Ogtp
;	COMDAT ??_GCServerDescArray@@UAEPAXI@Z
_TEXT	SEGMENT
___flags$ = 8						; size = 4
??_GCServerDescArray@@UAEPAXI@Z PROC			; CServerDescArray::`scalar deleting destructor', COMDAT
; _this$ = ecx
  00000	55		 push	 ebp
  00001	8b ec		 mov	 ebp, esp
  00003	56		 push	 esi
  00004	8b f1		 mov	 esi, ecx
  00006	e8 00 00 00 00	 call	 ??1CServerDescArray@@UAE@XZ ; CServerDescArray::~CServerDescArray
  0000b	f6 45 08 01	 test	 BYTE PTR ___flags$[ebp], 1
  0000f	74 0b		 je	 SHORT $LN5@scalar
  00011	6a 28		 push	 40			; 00000028H
  00013	56		 push	 esi
  00014	e8 00 00 00 00	 call	 ??3@YAXPAXI@Z		; operator delete
  00019	83 c4 08	 add	 esp, 8
$LN5@scalar:
  0001c	8b c6		 mov	 eax, esi
  0001e	5e		 pop	 esi
  0001f	5d		 pop	 ebp
  00020	c2 04 00	 ret	 4
??_GCServerDescArray@@UAEPAXI@Z ENDP			; CServerDescArray::`scalar deleting destructor'
_TEXT	ENDS
; Function compile flags: /Ogtp
; File C:\IAGOS\server\v18\Source\Source\_network\misc\src\ServerDesc.cpp
; File C:\Program Files\Microsoft Visual Studio\2022\Professional\VC\Tools\MSVC\14.44.35207\include\xtree
; File C:\IAGOS\server\v18\Source\Source\_network\misc\src\ServerDesc.cpp
; File C:\Program Files\Microsoft Visual Studio\2022\Professional\VC\Tools\MSVC\14.44.35207\include\xtree
; File C:\Program Files\Microsoft Visual Studio\2022\Professional\VC\Tools\MSVC\14.44.35207\include\type_traits
; File C:\Program Files\Microsoft Visual Studio\2022\Professional\VC\Tools\MSVC\14.44.35207\include\xtree
; File C:\Program Files\Microsoft Visual Studio\2022\Professional\VC\Tools\MSVC\14.44.35207\include\type_traits
; File C:\Program Files\Microsoft Visual Studio\2022\Professional\VC\Tools\MSVC\14.44.35207\include\xtree
; File C:\IAGOS\server\v18\Source\Source\_network\misc\src\ServerDesc.cpp
;	COMDAT ?GetAt@CServerDescArray@@QAEPAVCServerDesc@@K@Z
_TEXT	SEGMENT
_uKey$ = 8						; size = 4
?GetAt@CServerDescArray@@QAEPAVCServerDesc@@K@Z PROC	; CServerDescArray::GetAt, COMDAT
; _this$ = ecx

; 118  : {

  00000	55		 push	 ebp
  00001	8b ec		 mov	 ebp, esp
; File C:\Program Files\Microsoft Visual Studio\2022\Professional\VC\Tools\MSVC\14.44.35207\include\xtree

; 1630 :         _Tree_find_result<_Nodeptr> _Result{{_Scary->_Myhead->_Parent, _Tree_child::_Right}, _Scary->_Myhead};

  00003	8b 49 04	 mov	 ecx, DWORD PTR [ecx+4]

; 1632 :         while (!_Trynode->_Isnil) {

  00006	8b 55 08	 mov	 edx, DWORD PTR _uKey$[ebp]
; File C:\IAGOS\server\v18\Source\Source\_network\misc\src\ServerDesc.cpp

; 118  : {

  00009	56		 push	 esi
; File C:\Program Files\Microsoft Visual Studio\2022\Professional\VC\Tools\MSVC\14.44.35207\include\xtree

; 1632 :         while (!_Trynode->_Isnil) {

  0000a	8b f1		 mov	 esi, ecx
  0000c	8b 41 04	 mov	 eax, DWORD PTR [ecx+4]
  0000f	80 78 0d 00	 cmp	 BYTE PTR [eax+13], 0
  00013	75 14		 jne	 SHORT $LN11@GetAt
$LL10@GetAt:
; File C:\Program Files\Microsoft Visual Studio\2022\Professional\VC\Tools\MSVC\14.44.35207\include\type_traits

; 2380 :         return _Left < _Right;

  00015	39 50 10	 cmp	 DWORD PTR [eax+16], edx
; File C:\Program Files\Microsoft Visual Studio\2022\Professional\VC\Tools\MSVC\14.44.35207\include\xtree

; 1634 :             if (_DEBUG_LT_PRED(_Getcomp(), _Traits::_Kfn(_Trynode->_Myval), _Keyval)) {

  00018	73 05		 jae	 SHORT $LN12@GetAt

; 1635 :                 _Result._Location._Child = _Tree_child::_Right;
; 1636 :                 _Trynode                 = _Trynode->_Right;

  0001a	8b 40 08	 mov	 eax, DWORD PTR [eax+8]

; 1637 :             } else {

  0001d	eb 04		 jmp	 SHORT $LN13@GetAt
$LN12@GetAt:

; 1638 :                 _Result._Location._Child = _Tree_child::_Left;
; 1639 :                 _Result._Bound           = _Trynode;

  0001f	8b c8		 mov	 ecx, eax

; 1640 :                 _Trynode                 = _Trynode->_Left;

  00021	8b 00		 mov	 eax, DWORD PTR [eax]
$LN13@GetAt:

; 1632 :         while (!_Trynode->_Isnil) {

  00023	80 78 0d 00	 cmp	 BYTE PTR [eax+13], 0
  00027	74 ec		 je	 SHORT $LL10@GetAt
$LN11@GetAt:

; 1624 :         return !_Bound->_Isnil && !_DEBUG_LT_PRED(_Getcomp(), _Keyval, _Traits::_Kfn(_Bound->_Myval));

  00029	80 79 0d 00	 cmp	 BYTE PTR [ecx+13], 0
  0002d	75 11		 jne	 SHORT $LN2@GetAt
; File C:\Program Files\Microsoft Visual Studio\2022\Professional\VC\Tools\MSVC\14.44.35207\include\type_traits

; 2380 :         return _Left < _Right;

  0002f	3b 51 10	 cmp	 edx, DWORD PTR [ecx+16]
; File C:\Program Files\Microsoft Visual Studio\2022\Professional\VC\Tools\MSVC\14.44.35207\include\xtree

; 1624 :         return !_Bound->_Isnil && !_DEBUG_LT_PRED(_Getcomp(), _Keyval, _Traits::_Kfn(_Bound->_Myval));

  00032	72 0c		 jb	 SHORT $LN2@GetAt

; 37   :     _Tree_unchecked_const_iterator(_Nodeptr _Pnode, const _Mytree* _Plist) noexcept : _Ptr(_Pnode) {

  00034	3b ce		 cmp	 ecx, esi
; File C:\IAGOS\server\v18\Source\Source\_network\misc\src\ServerDesc.cpp

; 121  : 	if( i != end() )

  00036	74 08		 je	 SHORT $LN2@GetAt

; 122  : 		return i->second;

  00038	8b 41 14	 mov	 eax, DWORD PTR [ecx+20]
  0003b	5e		 pop	 esi

; 124  : #else	// __STL_0402
; 125  : 	CServerDesc* pDesc;
; 126  : 	if( Lookup( uKey, pDesc ) )
; 127  : 		return pDesc;
; 128  : 	return NULL;
; 129  : #endif	// __STL_0402
; 130  : }

  0003c	5d		 pop	 ebp
  0003d	c2 04 00	 ret	 4
$LN2@GetAt:

; 123  : 	return NULL;

  00040	33 c0		 xor	 eax, eax
  00042	5e		 pop	 esi

; 124  : #else	// __STL_0402
; 125  : 	CServerDesc* pDesc;
; 126  : 	if( Lookup( uKey, pDesc ) )
; 127  : 		return pDesc;
; 128  : 	return NULL;
; 129  : #endif	// __STL_0402
; 130  : }

  00043	5d		 pop	 ebp
  00044	c2 04 00	 ret	 4
?GetAt@CServerDescArray@@QAEPAVCServerDesc@@K@Z ENDP	; CServerDescArray::GetAt
_TEXT	ENDS
; Function compile flags: /Ogtp
; File C:\IAGOS\server\v18\Source\Source\_network\misc\src\ServerDesc.cpp
; File C:\IAGOS\server\v18\Source\Source\_Network\Mcl\Include\CMclCritSec.h
; File C:\Program Files\Microsoft Visual Studio\2022\Professional\VC\Tools\MSVC\14.44.35207\include\xtree
; File C:\IAGOS\server\v18\Source\Source\_network\misc\src\ServerDesc.cpp
; File C:\Program Files\Microsoft Visual Studio\2022\Professional\VC\Tools\MSVC\14.44.35207\include\xtree
; File C:\IAGOS\server\v18\Source\Source\_network\misc\src\ServerDesc.cpp
; File C:\Program Files\Microsoft Visual Studio\2022\Professional\VC\Tools\MSVC\14.44.35207\include\xtree
; File C:\Program Files\Microsoft Visual Studio\2022\Professional\VC\Tools\MSVC\14.44.35207\include\utility
; File C:\Program Files\Microsoft Visual Studio\2022\Professional\VC\Tools\MSVC\14.44.35207\include\xmemory
; File C:\Program Files\Microsoft Visual Studio\2022\Professional\VC\Tools\MSVC\14.44.35207\include\xtree
; File C:\IAGOS\server\v18\Source\Source\_Network\Mcl\Include\CMclCritSec.h
; File C:\Program Files\Microsoft Visual Studio\2022\Professional\VC\Tools\MSVC\14.44.35207\include\xtree
; File C:\IAGOS\server\v18\Source\Source\_Network\Mcl\Include\CMclCritSec.h
; File C:\IAGOS\server\v18\Source\Source\_network\misc\src\ServerDesc.cpp
;	COMDAT ?Free@CServerDescArray@@QAEXXZ
_TEXT	SEGMENT
tv611 = -4						; size = 4
?Free@CServerDescArray@@QAEXXZ PROC			; CServerDescArray::Free, COMDAT
; _this$ = ecx

; 96   : {

  00000	55		 push	 ebp
  00001	8b ec		 mov	 ebp, esp
  00003	51		 push	 ecx
  00004	53		 push	 ebx
  00005	56		 push	 esi
  00006	8b f1		 mov	 esi, ecx
  00008	57		 push	 edi
; File C:\IAGOS\server\v18\Source\Source\_Network\Mcl\Include\CMclCritSec.h

; 33   : 		::EnterCriticalSection( &m_CritSec );

  00009	8d 46 10	 lea	 eax, DWORD PTR [esi+16]
  0000c	50		 push	 eax
  0000d	89 45 fc	 mov	 DWORD PTR tv611[ebp], eax
  00010	ff 15 00 00 00
	00		 call	 DWORD PTR __imp__EnterCriticalSection@4
; File C:\Program Files\Microsoft Visual Studio\2022\Professional\VC\Tools\MSVC\14.44.35207\include\xtree

; 1142 :         return iterator(_Scary->_Myhead->_Left, _Scary);

  00016	8b 7e 04	 mov	 edi, DWORD PTR [esi+4]
  00019	8d 5e 04	 lea	 ebx, DWORD PTR [esi+4]

; 37   :     _Tree_unchecked_const_iterator(_Nodeptr _Pnode, const _Mytree* _Plist) noexcept : _Ptr(_Pnode) {

  0001c	8b 37		 mov	 esi, DWORD PTR [edi]

; 237  :         return !(*this == _Right);

  0001e	3b f7		 cmp	 esi, edi
; File C:\IAGOS\server\v18\Source\Source\_network\misc\src\ServerDesc.cpp

; 100  : 	for( CServerDescArray::iterator i = begin(); i != end(); ++i )

  00020	74 50		 je	 SHORT $LN3@Free
$LL4@Free:

; 101  : 	{
; 102  : 		CServerDesc* pServer	= i->second;

  00022	8b 4e 14	 mov	 ecx, DWORD PTR [esi+20]

; 103  : 		SAFE_DELETE( pServer );

  00025	85 c9		 test	 ecx, ecx
  00027	74 06		 je	 SHORT $LN2@Free
  00029	8b 01		 mov	 eax, DWORD PTR [ecx]
  0002b	6a 01		 push	 1
  0002d	ff 10		 call	 DWORD PTR [eax]
$LN2@Free:
; File C:\Program Files\Microsoft Visual Studio\2022\Professional\VC\Tools\MSVC\14.44.35207\include\xtree

; 50   :         if (_Ptr->_Right->_Isnil) { // climb looking for right subtree

  0002f	8b 46 08	 mov	 eax, DWORD PTR [esi+8]
  00032	80 78 0d 00	 cmp	 BYTE PTR [eax+13], 0
  00036	74 1d		 je	 SHORT $LN35@Free

; 51   :             _Nodeptr _Pnode;
; 52   :             while (!(_Pnode = _Ptr->_Parent)->_Isnil && _Ptr == _Pnode->_Right) {

  00038	8b 46 04	 mov	 eax, DWORD PTR [esi+4]
  0003b	80 78 0d 00	 cmp	 BYTE PTR [eax+13], 0
  0003f	75 10		 jne	 SHORT $LN129@Free
$LL33@Free:
  00041	3b 70 08	 cmp	 esi, DWORD PTR [eax+8]
  00044	75 0b		 jne	 SHORT $LN129@Free

; 53   :                 _Ptr = _Pnode; // ==> parent while right subtree

  00046	8b f0		 mov	 esi, eax
  00048	8b 40 04	 mov	 eax, DWORD PTR [eax+4]
  0004b	80 78 0d 00	 cmp	 BYTE PTR [eax+13], 0
  0004f	74 f0		 je	 SHORT $LL33@Free
$LN129@Free:

; 54   :             }
; 55   : 
; 56   :             _Ptr = _Pnode; // ==> parent (head if end())

  00051	8b f0		 mov	 esi, eax

; 57   :         } else {

  00053	eb 17		 jmp	 SHORT $LN41@Free
$LN35@Free:

; 58   :             _Ptr = _Mytree::_Min(_Ptr->_Right); // ==> smallest of right subtree

  00055	8b f0		 mov	 esi, eax

; 476  :         while (!_Pnode->_Left->_Isnil) {

  00057	8b 0e		 mov	 ecx, DWORD PTR [esi]
  00059	80 79 0d 00	 cmp	 BYTE PTR [ecx+13], 0
  0005d	75 0d		 jne	 SHORT $LN41@Free
  0005f	90		 npad	 1
$LL40@Free:
  00060	8b 01		 mov	 eax, DWORD PTR [ecx]

; 477  :             _Pnode = _Pnode->_Left;

  00062	8b f1		 mov	 esi, ecx
  00064	8b c8		 mov	 ecx, eax
  00066	80 78 0d 00	 cmp	 BYTE PTR [eax+13], 0
  0006a	74 f4		 je	 SHORT $LL40@Free
$LN41@Free:

; 37   :     _Tree_unchecked_const_iterator(_Nodeptr _Pnode, const _Mytree* _Plist) noexcept : _Ptr(_Pnode) {

  0006c	8b 3b		 mov	 edi, DWORD PTR [ebx]

; 237  :         return !(*this == _Right);

  0006e	3b f7		 cmp	 esi, edi
; File C:\IAGOS\server\v18\Source\Source\_network\misc\src\ServerDesc.cpp

; 100  : 	for( CServerDescArray::iterator i = begin(); i != end(); ++i )

  00070	75 b0		 jne	 SHORT $LL4@Free
$LN3@Free:
; File C:\Program Files\Microsoft Visual Studio\2022\Professional\VC\Tools\MSVC\14.44.35207\include\xtree

; 1374 :         _Scary->_Erase_tree(_Getal(), _Head->_Parent);

  00072	8b 77 04	 mov	 esi, DWORD PTR [edi+4]

; 768  :         while (!_Rootnode->_Isnil) { // free subtrees, then node

  00075	80 7e 0d 00	 cmp	 BYTE PTR [esi+13], 0
  00079	75 25		 jne	 SHORT $LN120@Free
  0007b	0f 1f 44 00 00	 npad	 5
$LL75@Free:

; 769  :             _Erase_tree(_Al, _Rootnode->_Right);

  00080	ff 76 08	 push	 DWORD PTR [esi+8]
  00083	8b cb		 mov	 ecx, ebx
  00085	53		 push	 ebx
  00086	e8 00 00 00 00	 call	 ??$_Erase_tree@V?$allocator@U?$_Tree_node@U?$pair@$$CBKPAVCServerDesc@@@std@@PAX@std@@@std@@@?$_Tree_val@U?$_Tree_simple_types@U?$pair@$$CBKPAVCServerDesc@@@std@@@std@@@std@@QAEXAAV?$allocator@U?$_Tree_node@U?$pair@$$CBKPAVCServerDesc@@@std@@PAX@std@@@1@PAU?$_Tree_node@U?$pair@$$CBKPAVCServerDesc@@@std@@PAX@1@@Z ; std::_Tree_val<std::_Tree_simple_types<std::pair<unsigned long const ,CServerDesc *> > >::_Erase_tree<std::allocator<std::_Tree_node<std::pair<unsigned long const ,CServerDesc *>,void *> > >
; File C:\Program Files\Microsoft Visual Studio\2022\Professional\VC\Tools\MSVC\14.44.35207\include\utility

; 773  :     _Ty _Old_val = static_cast<_Ty&&>(_Val);

  0008b	8b c6		 mov	 eax, esi

; 774  :     _Val         = static_cast<_Other&&>(_New_val);

  0008d	8b 36		 mov	 esi, DWORD PTR [esi]
; File C:\Program Files\Microsoft Visual Studio\2022\Professional\VC\Tools\MSVC\14.44.35207\include\xmemory

; 289  :         ::operator delete(_Ptr, _Bytes);

  0008f	6a 18		 push	 24			; 00000018H
  00091	50		 push	 eax
  00092	e8 00 00 00 00	 call	 ??3@YAXPAXI@Z		; operator delete
  00097	83 c4 08	 add	 esp, 8
; File C:\Program Files\Microsoft Visual Studio\2022\Professional\VC\Tools\MSVC\14.44.35207\include\xtree

; 768  :         while (!_Rootnode->_Isnil) { // free subtrees, then node

  0009a	80 7e 0d 00	 cmp	 BYTE PTR [esi+13], 0
  0009e	74 e0		 je	 SHORT $LL75@Free
$LN120@Free:
; File C:\IAGOS\server\v18\Source\Source\_Network\Mcl\Include\CMclCritSec.h

; 39   : 		::LeaveCriticalSection( &m_CritSec );

  000a0	ff 75 fc	 push	 DWORD PTR tv611[ebp]
; File C:\Program Files\Microsoft Visual Studio\2022\Professional\VC\Tools\MSVC\14.44.35207\include\xtree

; 1375 :         _Head->_Parent  = _Head;

  000a3	89 7f 04	 mov	 DWORD PTR [edi+4], edi

; 1376 :         _Head->_Left    = _Head;

  000a6	89 3f		 mov	 DWORD PTR [edi], edi

; 1377 :         _Head->_Right   = _Head;

  000a8	89 7f 08	 mov	 DWORD PTR [edi+8], edi

; 1378 :         _Scary->_Mysize = 0;

  000ab	c7 43 04 00 00
	00 00		 mov	 DWORD PTR [ebx+4], 0
; File C:\IAGOS\server\v18\Source\Source\_Network\Mcl\Include\CMclCritSec.h

; 39   : 		::LeaveCriticalSection( &m_CritSec );

  000b2	ff 15 00 00 00
	00		 call	 DWORD PTR __imp__LeaveCriticalSection@4
  000b8	5f		 pop	 edi
  000b9	5e		 pop	 esi
  000ba	5b		 pop	 ebx
; File C:\IAGOS\server\v18\Source\Source\_network\misc\src\ServerDesc.cpp

; 115  : }

  000bb	8b e5		 mov	 esp, ebp
  000bd	5d		 pop	 ebp
  000be	c3		 ret	 0
?Free@CServerDescArray@@QAEXXZ ENDP			; CServerDescArray::Free
_TEXT	ENDS
; Function compile flags: /Ogtp
; File C:\IAGOS\server\v18\Source\Source\_network\misc\src\ServerDesc.cpp
; File C:\IAGOS\server\v18\Source\Source\_Network\Mcl\Include\CMclCritSec.h
; File C:\IAGOS\server\v18\Source\Source\_network\misc\src\ServerDesc.cpp
;	COMDAT ??1CServerDescArray@@UAE@XZ
_TEXT	SEGMENT
??1CServerDescArray@@UAE@XZ PROC			; CServerDescArray::~CServerDescArray, COMDAT
; _this$ = ecx

; 91   : {

  00000	56		 push	 esi
  00001	8b f1		 mov	 esi, ecx
  00003	c7 06 00 00 00
	00		 mov	 DWORD PTR [esi], OFFSET ??_7CServerDescArray@@6B@

; 92   : 	Free();

  00009	e8 00 00 00 00	 call	 ?Free@CServerDescArray@@QAEXXZ ; CServerDescArray::Free
; File C:\IAGOS\server\v18\Source\Source\_Network\Mcl\Include\CMclCritSec.h

; 27   : 		::DeleteCriticalSection( &m_CritSec );

  0000e	8d 46 10	 lea	 eax, DWORD PTR [esi+16]
  00011	c7 46 0c 00 00
	00 00		 mov	 DWORD PTR [esi+12], OFFSET ??_7CMclCritSec@@6B@
  00018	50		 push	 eax
  00019	ff 15 00 00 00
	00		 call	 DWORD PTR __imp__DeleteCriticalSection@4
; File C:\IAGOS\server\v18\Source\Source\_network\misc\src\ServerDesc.cpp

; 93   : }

  0001f	8d 4e 04	 lea	 ecx, DWORD PTR [esi+4]
  00022	5e		 pop	 esi
  00023	e9 00 00 00 00	 jmp	 ??1?$_Tree@V?$_Tmap_traits@KPAVCServerDesc@@U?$less@K@std@@V?$allocator@U?$pair@$$CBKPAVCServerDesc@@@std@@@3@$0A@@std@@@std@@QAE@XZ ; std::_Tree<std::_Tmap_traits<unsigned long,CServerDesc *,std::less<unsigned long>,std::allocator<std::pair<unsigned long const ,CServerDesc *> >,0> >::~_Tree<std::_Tmap_traits<unsigned long,CServerDesc *,std::less<unsigned long>,std::allocator<std::pair<unsigned long const ,CServerDesc *> >,0> >
??1CServerDescArray@@UAE@XZ ENDP			; CServerDescArray::~CServerDescArray
_TEXT	ENDS
; Function compile flags: /Ogtp
; File C:\IAGOS\server\v18\Source\Source\_network\misc\src\ServerDesc.cpp
; File C:\Program Files\Microsoft Visual Studio\2022\Professional\VC\Tools\MSVC\14.44.35207\include\xmemory
; File C:\IAGOS\server\v18\Source\Source\_network\misc\src\ServerDesc.cpp
; File C:\Program Files\Microsoft Visual Studio\2022\Professional\VC\Tools\MSVC\14.44.35207\include\xtree
; File C:\Program Files\Microsoft Visual Studio\2022\Professional\VC\Tools\MSVC\14.44.35207\include\xmemory
; File C:\Program Files\Microsoft Visual Studio\2022\Professional\VC\Tools\MSVC\14.44.35207\include\xtree
; File C:\IAGOS\server\v18\Source\Source\_Network\Mcl\Include\CMclCritSec.h
; File C:\IAGOS\server\v18\Source\Source\_network\misc\src\ServerDesc.cpp
; File C:\IAGOS\server\v18\Source\Source\_Network\Mcl\Include\CMclCritSec.h
; File C:\IAGOS\server\v18\Source\Source\_network\misc\src\ServerDesc.cpp
;	COMDAT ??0CServerDescArray@@QAE@XZ
_TEXT	SEGMENT
_this$ = -4						; size = 4
_this$ = -4						; size = 4
??0CServerDescArray@@QAE@XZ PROC			; CServerDescArray::CServerDescArray, COMDAT
; _this$ = ecx

; 84   : {

  00000	55		 push	 ebp
  00001	8b ec		 mov	 ebp, esp
  00003	51		 push	 ecx
  00004	56		 push	 esi
  00005	57		 push	 edi
  00006	8b f9		 mov	 edi, ecx
  00008	8d 77 04	 lea	 esi, DWORD PTR [edi+4]
  0000b	89 7d fc	 mov	 DWORD PTR _this$[ebp], edi
; File C:\Program Files\Microsoft Visual Studio\2022\Professional\VC\Tools\MSVC\14.44.35207\include\xmemory

; 136  :         return ::operator new(_Bytes);

  0000e	6a 18		 push	 24			; 00000018H
; File C:\IAGOS\server\v18\Source\Source\_network\misc\src\ServerDesc.cpp

; 84   : {

  00010	89 75 fc	 mov	 DWORD PTR _this$[ebp], esi
; File C:\Program Files\Microsoft Visual Studio\2022\Professional\VC\Tools\MSVC\14.44.35207\include\xtree

; 450  :     _Tree_val() noexcept : _Myhead(), _Mysize(0) {}

  00013	c7 06 00 00 00
	00		 mov	 DWORD PTR [esi], 0
  00019	c7 46 04 00 00
	00 00		 mov	 DWORD PTR [esi+4], 0
; File C:\Program Files\Microsoft Visual Studio\2022\Professional\VC\Tools\MSVC\14.44.35207\include\xmemory

; 136  :         return ::operator new(_Bytes);

  00020	e8 00 00 00 00	 call	 ??2@YAPAXI@Z		; operator new
  00025	83 c4 04	 add	 esp, 4
; File C:\Program Files\Microsoft Visual Studio\2022\Professional\VC\Tools\MSVC\14.44.35207\include\xtree

; 346  :         _Construct_in_place(_Pnode->_Left, _Pnode);

  00028	89 00		 mov	 DWORD PTR [eax], eax

; 347  :         _Construct_in_place(_Pnode->_Parent, _Pnode);

  0002a	89 40 04	 mov	 DWORD PTR [eax+4], eax

; 348  :         _Construct_in_place(_Pnode->_Right, _Pnode);

  0002d	89 40 08	 mov	 DWORD PTR [eax+8], eax

; 349  :         _Pnode->_Color = _Black;

  00030	66 c7 40 0c 01
	01		 mov	 WORD PTR [eax+12], 257	; 00000101H

; 1957 :         _Scary->_Myhead = _Node::_Buyheadnode(_Getal());

  00036	89 06		 mov	 DWORD PTR [esi], eax
; File C:\IAGOS\server\v18\Source\Source\_Network\Mcl\Include\CMclCritSec.h

; 21   : 		::InitializeCriticalSection( &m_CritSec );

  00038	8d 47 10	 lea	 eax, DWORD PTR [edi+16]
; File C:\IAGOS\server\v18\Source\Source\_network\misc\src\ServerDesc.cpp

; 84   : {

  0003b	c7 07 00 00 00
	00		 mov	 DWORD PTR [edi], OFFSET ??_7CServerDescArray@@6B@
; File C:\IAGOS\server\v18\Source\Source\_Network\Mcl\Include\CMclCritSec.h

; 21   : 		::InitializeCriticalSection( &m_CritSec );

  00041	50		 push	 eax
  00042	c7 47 0c 00 00
	00 00		 mov	 DWORD PTR [edi+12], OFFSET ??_7CMclCritSec@@6B@
  00049	ff 15 00 00 00
	00		 call	 DWORD PTR __imp__InitializeCriticalSection@4
; File C:\IAGOS\server\v18\Source\Source\_network\misc\src\ServerDesc.cpp

; 88   : }

  0004f	8b c7		 mov	 eax, edi
  00051	5f		 pop	 edi
  00052	5e		 pop	 esi
  00053	8b e5		 mov	 esp, ebp
  00055	5d		 pop	 ebp
  00056	c3		 ret	 0
??0CServerDescArray@@QAE@XZ ENDP			; CServerDescArray::CServerDescArray
_TEXT	ENDS
; Function compile flags: /Ogtp
; File C:\Program Files\Microsoft Visual Studio\2022\Professional\VC\Tools\MSVC\14.44.35207\include\xtree
; File C:\Program Files\Microsoft Visual Studio\2022\Professional\VC\Tools\MSVC\14.44.35207\include\utility
; File C:\Program Files\Microsoft Visual Studio\2022\Professional\VC\Tools\MSVC\14.44.35207\include\xmemory
; File C:\Program Files\Microsoft Visual Studio\2022\Professional\VC\Tools\MSVC\14.44.35207\include\xtree
; File C:\Program Files\Microsoft Visual Studio\2022\Professional\VC\Tools\MSVC\14.44.35207\include\xmemory
; File C:\Program Files\Microsoft Visual Studio\2022\Professional\VC\Tools\MSVC\14.44.35207\include\xtree
;	COMDAT ??1?$_Tree@V?$_Tmap_traits@KPAVCServerDesc@@U?$less@K@std@@V?$allocator@U?$pair@$$CBKPAVCServerDesc@@@std@@@3@$0A@@std@@@std@@QAE@XZ
_TEXT	SEGMENT
??1?$_Tree@V?$_Tmap_traits@KPAVCServerDesc@@U?$less@K@std@@V?$allocator@U?$pair@$$CBKPAVCServerDesc@@@std@@@3@$0A@@std@@@std@@QAE@XZ PROC ; std::_Tree<std::_Tmap_traits<unsigned long,CServerDesc *,std::less<unsigned long>,std::allocator<std::pair<unsigned long const ,CServerDesc *> >,0> >::~_Tree<std::_Tmap_traits<unsigned long,CServerDesc *,std::less<unsigned long>,std::allocator<std::pair<unsigned long const ,CServerDesc *> >,0> >, COMDAT
; _this$ = ecx

; 1095 :     ~_Tree() noexcept {

  00000	56		 push	 esi
  00001	57		 push	 edi
  00002	8b f9		 mov	 edi, ecx

; 777  :         _Erase_tree(_Al, _Myhead->_Parent);

  00004	8b 37		 mov	 esi, DWORD PTR [edi]
  00006	8b 76 04	 mov	 esi, DWORD PTR [esi+4]

; 768  :         while (!_Rootnode->_Isnil) { // free subtrees, then node

  00009	80 7e 0d 00	 cmp	 BYTE PTR [esi+13], 0
  0000d	75 21		 jne	 SHORT $LN61@Tree
  0000f	90		 npad	 1
$LL8@Tree:

; 769  :             _Erase_tree(_Al, _Rootnode->_Right);

  00010	ff 76 08	 push	 DWORD PTR [esi+8]
  00013	8b cf		 mov	 ecx, edi
  00015	57		 push	 edi
  00016	e8 00 00 00 00	 call	 ??$_Erase_tree@V?$allocator@U?$_Tree_node@U?$pair@$$CBKPAVCServerDesc@@@std@@PAX@std@@@std@@@?$_Tree_val@U?$_Tree_simple_types@U?$pair@$$CBKPAVCServerDesc@@@std@@@std@@@std@@QAEXAAV?$allocator@U?$_Tree_node@U?$pair@$$CBKPAVCServerDesc@@@std@@PAX@std@@@1@PAU?$_Tree_node@U?$pair@$$CBKPAVCServerDesc@@@std@@PAX@1@@Z ; std::_Tree_val<std::_Tree_simple_types<std::pair<unsigned long const ,CServerDesc *> > >::_Erase_tree<std::allocator<std::_Tree_node<std::pair<unsigned long const ,CServerDesc *>,void *> > >
; File C:\Program Files\Microsoft Visual Studio\2022\Professional\VC\Tools\MSVC\14.44.35207\include\utility

; 773  :     _Ty _Old_val = static_cast<_Ty&&>(_Val);

  0001b	8b c6		 mov	 eax, esi

; 774  :     _Val         = static_cast<_Other&&>(_New_val);

  0001d	8b 36		 mov	 esi, DWORD PTR [esi]
; File C:\Program Files\Microsoft Visual Studio\2022\Professional\VC\Tools\MSVC\14.44.35207\include\xmemory

; 289  :         ::operator delete(_Ptr, _Bytes);

  0001f	6a 18		 push	 24			; 00000018H
  00021	50		 push	 eax
  00022	e8 00 00 00 00	 call	 ??3@YAXPAXI@Z		; operator delete
  00027	83 c4 08	 add	 esp, 8
; File C:\Program Files\Microsoft Visual Studio\2022\Professional\VC\Tools\MSVC\14.44.35207\include\xtree

; 768  :         while (!_Rootnode->_Isnil) { // free subtrees, then node

  0002a	80 7e 0d 00	 cmp	 BYTE PTR [esi+13], 0
  0002e	74 e0		 je	 SHORT $LL8@Tree
$LN61@Tree:
; File C:\Program Files\Microsoft Visual Studio\2022\Professional\VC\Tools\MSVC\14.44.35207\include\xmemory

; 289  :         ::operator delete(_Ptr, _Bytes);

  00030	6a 18		 push	 24			; 00000018H
  00032	ff 37		 push	 DWORD PTR [edi]
  00034	e8 00 00 00 00	 call	 ??3@YAXPAXI@Z		; operator delete
  00039	83 c4 08	 add	 esp, 8
  0003c	5f		 pop	 edi
  0003d	5e		 pop	 esi
; File C:\Program Files\Microsoft Visual Studio\2022\Professional\VC\Tools\MSVC\14.44.35207\include\xtree

; 1102 :     }

  0003e	c3		 ret	 0
??1?$_Tree@V?$_Tmap_traits@KPAVCServerDesc@@U?$less@K@std@@V?$allocator@U?$pair@$$CBKPAVCServerDesc@@@std@@@3@$0A@@std@@@std@@QAE@XZ ENDP ; std::_Tree<std::_Tmap_traits<unsigned long,CServerDesc *,std::less<unsigned long>,std::allocator<std::pair<unsigned long const ,CServerDesc *> >,0> >::~_Tree<std::_Tmap_traits<unsigned long,CServerDesc *,std::less<unsigned long>,std::allocator<std::pair<unsigned long const ,CServerDesc *> >,0> >
_TEXT	ENDS
; Function compile flags: /Ogtp
;	COMDAT ??_GCServerDesc@@UAEPAXI@Z
_TEXT	SEGMENT
___flags$ = 8						; size = 4
??_GCServerDesc@@UAEPAXI@Z PROC				; CServerDesc::`scalar deleting destructor', COMDAT
; _this$ = ecx
  00000	55		 push	 ebp
  00001	8b ec		 mov	 ebp, esp
  00003	56		 push	 esi
  00004	8b f1		 mov	 esi, ecx
  00006	e8 00 00 00 00	 call	 ??1CServerDesc@@UAE@XZ	; CServerDesc::~CServerDesc
  0000b	f6 45 08 01	 test	 BYTE PTR ___flags$[ebp], 1
  0000f	74 0b		 je	 SHORT $LN5@scalar
  00011	6a 24		 push	 36			; 00000024H
  00013	56		 push	 esi
  00014	e8 00 00 00 00	 call	 ??3@YAXPAXI@Z		; operator delete
  00019	83 c4 08	 add	 esp, 8
$LN5@scalar:
  0001c	8b c6		 mov	 eax, esi
  0001e	5e		 pop	 esi
  0001f	5d		 pop	 ebp
  00020	c2 04 00	 ret	 4
??_GCServerDesc@@UAEPAXI@Z ENDP				; CServerDesc::`scalar deleting destructor'
_TEXT	ENDS
; Function compile flags: /Ogtp
; File C:\IAGOS\server\v18\Source\Source\_network\misc\src\ServerDesc.cpp
; File C:\IAGOS\server\v18\Source\Source\_Network\Misc\Include\ar.h
; File C:\IAGOS\server\v18\Source\Source\_network\misc\src\ServerDesc.cpp
; File C:\IAGOS\server\v18\Source\Source\_Network\Misc\Include\ar.h
; File C:\IAGOS\server\v18\Source\Source\_network\misc\src\ServerDesc.cpp
; File C:\Program Files\Microsoft Visual Studio\2022\Professional\VC\Tools\MSVC\14.44.35207\include\list
; File C:\IAGOS\server\v18\Source\Source\_network\misc\src\ServerDesc.cpp
; File C:\Program Files\Microsoft Visual Studio\2022\Professional\VC\Tools\MSVC\14.44.35207\include\list
; File C:\IAGOS\server\v18\Source\Source\_network\misc\src\ServerDesc.cpp
; File C:\IAGOS\server\v18\Source\Source\_Network\Misc\Include\ServerDesc.h
; File C:\IAGOS\server\v18\Source\Source\_network\misc\src\ServerDesc.cpp
; File C:\IAGOS\server\v18\Source\Source\_Network\Misc\Include\ServerDesc.h
; File C:\IAGOS\server\v18\Source\Source\_network\misc\src\ServerDesc.cpp
; File C:\Program Files\Microsoft Visual Studio\2022\Professional\VC\Tools\MSVC\14.44.35207\atlmfc\include\atltypes.h
; File C:\IAGOS\server\v18\Source\Source\_Network\Misc\Include\ServerDesc.h
; File C:\Program Files\Microsoft Visual Studio\2022\Professional\VC\Tools\MSVC\14.44.35207\atlmfc\include\atltypes.h
; File C:\IAGOS\server\v18\Source\Source\_Network\Misc\Include\ServerDesc.h
; File C:\Program Files\Microsoft Visual Studio\2022\Professional\VC\Tools\MSVC\14.44.35207\atlmfc\include\atltypes.h
; File C:\IAGOS\server\v18\Source\Source\_Network\Misc\Include\ServerDesc.h
; File C:\IAGOS\server\v18\Source\Source\_network\misc\src\ServerDesc.cpp
; File C:\Program Files\Microsoft Visual Studio\2022\Professional\VC\Tools\MSVC\14.44.35207\include\list
; File C:\Program Files\Microsoft Visual Studio\2022\Professional\VC\Tools\MSVC\14.44.35207\include\xmemory
; File C:\Program Files\Microsoft Visual Studio\2022\Professional\VC\Tools\MSVC\14.44.35207\include\list
; File C:\Program Files\Microsoft Visual Studio\2022\Professional\VC\Tools\MSVC\14.44.35207\include\xmemory
; File C:\Program Files\Microsoft Visual Studio\2022\Professional\VC\Tools\MSVC\14.44.35207\include\list
; File C:\Program Files\Microsoft Visual Studio\2022\Professional\VC\Tools\MSVC\14.44.35207\include\xmemory
; File C:\Program Files\Microsoft Visual Studio\2022\Professional\VC\Tools\MSVC\14.44.35207\include\list
; File C:\IAGOS\server\v18\Source\Source\_network\misc\src\ServerDesc.cpp
; File C:\Program Files\Microsoft Visual Studio\2022\Professional\VC\Tools\MSVC\14.44.35207\include\xmemory
; File C:\IAGOS\server\v18\Source\Source\_network\misc\src\ServerDesc.cpp
; File C:\Program Files\Microsoft Visual Studio\2022\Professional\VC\Tools\MSVC\14.44.35207\include\list
; File C:\IAGOS\server\v18\Source\Source\_network\misc\src\ServerDesc.cpp
;	COMDAT ?Serialize@CServerDesc@@QAEXAAVCAr@@@Z
_TEXT	SEGMENT
__Op$2 = -32						; size = 8
_this$1$ = -24						; size = 4
$T3 = -20						; size = 4
__Where$1$ = -20					; size = 4
_i$1$ = -16						; size = 4
__$EHRec$ = -12						; size = 12
_ar$ = 8						; size = 4
_uKey$4 = 8						; size = 4
_nSize$5 = 8						; size = 2
$T6 = 8							; size = 2
?Serialize@CServerDesc@@QAEXAAVCAr@@@Z PROC		; CServerDesc::Serialize, COMDAT
; _this$ = ecx

; 49   : {

  00000	55		 push	 ebp
  00001	8b ec		 mov	 ebp, esp
  00003	6a ff		 push	 -1
  00005	68 00 00 00 00	 push	 __ehhandler$?Serialize@CServerDesc@@QAEXAAVCAr@@@Z
  0000a	64 a1 00 00 00
	00		 mov	 eax, DWORD PTR fs:0
  00010	50		 push	 eax
  00011	83 ec 14	 sub	 esp, 20			; 00000014H
  00014	53		 push	 ebx
  00015	56		 push	 esi
  00016	57		 push	 edi
  00017	a1 00 00 00 00	 mov	 eax, DWORD PTR ___security_cookie
  0001c	33 c5		 xor	 eax, ebp
  0001e	50		 push	 eax
  0001f	8d 45 f4	 lea	 eax, DWORD PTR __$EHRec$[ebp]
  00022	64 a3 00 00 00
	00		 mov	 DWORD PTR fs:0, eax
  00028	8b d9		 mov	 ebx, ecx
  0002a	89 5d e8	 mov	 DWORD PTR _this$1$[ebp], ebx
; File C:\IAGOS\server\v18\Source\Source\_Network\Misc\Include\ar.h

; 146  : 	return (m_nMode & CAr::load) == 0;

  0002d	8b 7d 08	 mov	 edi, DWORD PTR _ar$[ebp]
  00030	8d 73 08	 lea	 esi, DWORD PTR [ebx+8]
; File C:\IAGOS\server\v18\Source\Source\_network\misc\src\ServerDesc.cpp

; 50   : 	if( ar.IsStoring() )

  00033	8b cf		 mov	 ecx, edi
; File C:\IAGOS\server\v18\Source\Source\_Network\Misc\Include\ar.h

; 146  : 	return (m_nMode & CAr::load) == 0;

  00035	f6 07 01	 test	 BYTE PTR [edi], 1
; File C:\IAGOS\server\v18\Source\Source\_network\misc\src\ServerDesc.cpp

; 50   : 	if( ar.IsStoring() )

  00038	0f 85 82 00 00
	00		 jne	 $LN8@Serialize

; 51   : 	{
; 52   : 		ar << m_uKey;

  0003e	56		 push	 esi
  0003f	e8 00 00 00 00	 call	 ??$?6K@CAr@@QAEAAV0@ABK@Z ; CAr::operator<<<unsigned long>

; 53   : 		ar << (short)m_lspJurisdiction.size();

  00044	0f b7 43 20	 movzx	 eax, WORD PTR [ebx+32]
  00048	8b cf		 mov	 ecx, edi
  0004a	89 45 08	 mov	 DWORD PTR $T6[ebp], eax
  0004d	8d 45 08	 lea	 eax, DWORD PTR $T6[ebp]
  00050	50		 push	 eax
  00051	e8 00 00 00 00	 call	 ??$?6F@CAr@@QAEAAV0@ABF@Z ; CAr::operator<<<short>
; File C:\Program Files\Microsoft Visual Studio\2022\Professional\VC\Tools\MSVC\14.44.35207\include\list

; 1105 :         return iterator(_Mypair._Myval2._Myhead->_Next, _STD addressof(_Mypair._Myval2));

  00056	8b 43 1c	 mov	 eax, DWORD PTR [ebx+28]

; 37   :     _List_unchecked_const_iterator(_Nodeptr _Pnode, const _Mylist* _Plist) noexcept : _Ptr(_Pnode) {

  00059	8b 30		 mov	 esi, DWORD PTR [eax]

; 202  :         return !(*this == _Right);

  0005b	3b f0		 cmp	 esi, eax
; File C:\IAGOS\server\v18\Source\Source\_network\misc\src\ServerDesc.cpp

; 54   : 		for( list<CJurisdiction*>::iterator i = m_lspJurisdiction.begin(); i != m_lspJurisdiction.end(); ++i )

  0005d	74 42		 je	 SHORT $LN3@Serialize
  0005f	90		 npad	 1
$LL4@Serialize:

; 55   : 		{
; 56   : 			ar << (*i)->m_dwWorldID;

  00060	8b 46 08	 mov	 eax, DWORD PTR [esi+8]
  00063	8b cf		 mov	 ecx, edi
  00065	83 c0 04	 add	 eax, 4
  00068	50		 push	 eax
  00069	e8 00 00 00 00	 call	 ??$?6K@CAr@@QAEAAV0@ABK@Z ; CAr::operator<<<unsigned long>

; 57   : 			ar << (*i)->m_rect;

  0006e	8b 46 08	 mov	 eax, DWORD PTR [esi+8]
  00071	8b cf		 mov	 ecx, edi
  00073	83 c0 08	 add	 eax, 8
  00076	50		 push	 eax
  00077	e8 00 00 00 00	 call	 ??$?6VCRect@@@CAr@@QAEAAV0@ABVCRect@@@Z ; CAr::operator<<<CRect>

; 58   : 			ar << (*i)->m_wLeft;

  0007c	8b 46 08	 mov	 eax, DWORD PTR [esi+8]
  0007f	8b cf		 mov	 ecx, edi
  00081	83 c0 18	 add	 eax, 24			; 00000018H
  00084	50		 push	 eax
  00085	e8 00 00 00 00	 call	 ??$?6G@CAr@@QAEAAV0@ABG@Z ; CAr::operator<<<unsigned short>

; 59   : 			ar << (*i)->m_wRight;

  0008a	8b 46 08	 mov	 eax, DWORD PTR [esi+8]
  0008d	8b cf		 mov	 ecx, edi
  0008f	83 c0 1a	 add	 eax, 26			; 0000001aH
  00092	50		 push	 eax
  00093	e8 00 00 00 00	 call	 ??$?6G@CAr@@QAEAAV0@ABG@Z ; CAr::operator<<<unsigned short>
; File C:\Program Files\Microsoft Visual Studio\2022\Professional\VC\Tools\MSVC\14.44.35207\include\list

; 164  :         this->_Ptr = this->_Ptr->_Next;

  00098	8b 06		 mov	 eax, DWORD PTR [esi]
  0009a	8b f0		 mov	 esi, eax

; 202  :         return !(*this == _Right);

  0009c	3b 43 1c	 cmp	 eax, DWORD PTR [ebx+28]
; File C:\IAGOS\server\v18\Source\Source\_network\misc\src\ServerDesc.cpp

; 54   : 		for( list<CJurisdiction*>::iterator i = m_lspJurisdiction.begin(); i != m_lspJurisdiction.end(); ++i )

  0009f	75 bf		 jne	 SHORT $LL4@Serialize
$LN3@Serialize:

; 60   : 		}
; 61   : 		ar.WriteString( m_szAddr );

  000a1	8d 43 0c	 lea	 eax, DWORD PTR [ebx+12]
  000a4	8b cf		 mov	 ecx, edi
  000a6	50		 push	 eax
  000a7	e8 00 00 00 00	 call	 ?WriteString@CAr@@QAEXPBD@Z ; CAr::WriteString

; 81   : }

  000ac	8b 4d f4	 mov	 ecx, DWORD PTR __$EHRec$[ebp]
  000af	64 89 0d 00 00
	00 00		 mov	 DWORD PTR fs:0, ecx
  000b6	59		 pop	 ecx
  000b7	5f		 pop	 edi
  000b8	5e		 pop	 esi
  000b9	5b		 pop	 ebx
  000ba	8b e5		 mov	 esp, ebp
  000bc	5d		 pop	 ebp
  000bd	c2 04 00	 ret	 4
$LN8@Serialize:

; 62   : 	}
; 63   : 	else
; 64   : 	{
; 65   : 		u_long uKey;
; 66   : 		ar >> uKey;

  000c0	8d 45 08	 lea	 eax, DWORD PTR _uKey$4[ebp]
  000c3	50		 push	 eax
  000c4	e8 00 00 00 00	 call	 ??$?5K@CAr@@QAEAAV0@AAK@Z ; CAr::operator>><unsigned long>
; File C:\IAGOS\server\v18\Source\Source\_Network\Misc\Include\ServerDesc.h

; 60   : 	void	SetKey( u_long uKey )	{	m_uKey	= uKey;		m_uIdofMulti	= uKey % 100;	}

  000c9	8b 4d 08	 mov	 ecx, DWORD PTR _uKey$4[ebp]
  000cc	b8 1f 85 eb 51	 mov	 eax, 1374389535		; 51eb851fH
  000d1	f7 e1		 mul	 ecx
  000d3	89 0e		 mov	 DWORD PTR [esi], ecx
  000d5	c1 ea 05	 shr	 edx, 5
  000d8	6b c2 64	 imul	 eax, edx, 100
  000db	2b c8		 sub	 ecx, eax
; File C:\IAGOS\server\v18\Source\Source\_network\misc\src\ServerDesc.cpp

; 69   : 		ar >> nSize;

  000dd	8d 45 08	 lea	 eax, DWORD PTR _nSize$5[ebp]
; File C:\IAGOS\server\v18\Source\Source\_Network\Misc\Include\ServerDesc.h

; 60   : 	void	SetKey( u_long uKey )	{	m_uKey	= uKey;		m_uIdofMulti	= uKey % 100;	}

  000e0	89 4b 04	 mov	 DWORD PTR [ebx+4], ecx
; File C:\IAGOS\server\v18\Source\Source\_network\misc\src\ServerDesc.cpp

; 69   : 		ar >> nSize;

  000e3	8b cf		 mov	 ecx, edi
  000e5	50		 push	 eax
  000e6	e8 00 00 00 00	 call	 ??$?5F@CAr@@QAEAAV0@AAF@Z ; CAr::operator>><short>

; 70   : 		for( int i =0; i < nSize; i++ )

  000eb	0f bf 45 08	 movsx	 eax, WORD PTR _nSize$5[ebp]
  000ef	c7 45 f0 00 00
	00 00		 mov	 DWORD PTR _i$1$[ebp], 0
  000f6	85 c0		 test	 eax, eax
  000f8	0f 8e e8 00 00
	00		 jle	 $LN6@Serialize
  000fe	83 c3 1c	 add	 ebx, 28			; 0000001cH
$LL7@Serialize:

; 72   : 			CJurisdiction* pJurisdiction	= new CJurisdiction;

  00101	6a 1c		 push	 28			; 0000001cH
  00103	e8 00 00 00 00	 call	 ??2@YAPAXI@Z		; operator new
  00108	8b f0		 mov	 esi, eax
  0010a	83 c4 04	 add	 esp, 4
  0010d	89 75 ec	 mov	 DWORD PTR $T3[ebp], esi
  00110	85 f6		 test	 esi, esi
  00112	74 41		 je	 SHORT $LN11@Serialize
; File C:\Program Files\Microsoft Visual Studio\2022\Professional\VC\Tools\MSVC\14.44.35207\atlmfc\include\atltypes.h

; 661  : 	::SetRect(this, x1, y1, x2, y2);

  00114	6a 00		 push	 0
  00116	6a 00		 push	 0
; File C:\IAGOS\server\v18\Source\Source\_Network\Misc\Include\ServerDesc.h

; 19   : 		{

  00118	8d 46 08	 lea	 eax, DWORD PTR [esi+8]
  0011b	c7 06 00 00 00
	00		 mov	 DWORD PTR [esi], OFFSET ??_7CJurisdiction@@6B@
; File C:\Program Files\Microsoft Visual Studio\2022\Professional\VC\Tools\MSVC\14.44.35207\atlmfc\include\atltypes.h

; 661  : 	::SetRect(this, x1, y1, x2, y2);

  00121	6a 00		 push	 0
  00123	6a 00		 push	 0

; 532  : 	left = 0;

  00125	c7 00 00 00 00
	00		 mov	 DWORD PTR [eax], 0

; 533  : 	top = 0;

  0012b	c7 40 04 00 00
	00 00		 mov	 DWORD PTR [eax+4], 0

; 534  : 	right = 0;

  00132	c7 40 08 00 00
	00 00		 mov	 DWORD PTR [eax+8], 0

; 535  : 	bottom = 0;

  00139	c7 40 0c 00 00
	00 00		 mov	 DWORD PTR [eax+12], 0

; 661  : 	::SetRect(this, x1, y1, x2, y2);

  00140	50		 push	 eax
; File C:\IAGOS\server\v18\Source\Source\_Network\Misc\Include\ServerDesc.h

; 20   : 			m_dwWorldID	= NULL_ID;

  00141	c7 46 04 ff ff
	ff ff		 mov	 DWORD PTR [esi+4], -1
; File C:\Program Files\Microsoft Visual Studio\2022\Professional\VC\Tools\MSVC\14.44.35207\atlmfc\include\atltypes.h

; 661  : 	::SetRect(this, x1, y1, x2, y2);

  00148	ff 15 00 00 00
	00		 call	 DWORD PTR __imp__SetRect@20
; File C:\IAGOS\server\v18\Source\Source\_Network\Misc\Include\ServerDesc.h

; 22   : 			m_wLeft		= m_wRight	= 0;

  0014e	33 c0		 xor	 eax, eax
  00150	89 46 18	 mov	 DWORD PTR [esi+24], eax
; File C:\IAGOS\server\v18\Source\Source\_network\misc\src\ServerDesc.cpp

; 72   : 			CJurisdiction* pJurisdiction	= new CJurisdiction;

  00153	eb 02		 jmp	 SHORT $LN12@Serialize
$LN11@Serialize:
  00155	33 f6		 xor	 esi, esi
$LN12@Serialize:
  00157	8d 46 04	 lea	 eax, DWORD PTR [esi+4]

; 73   : 			ar >> pJurisdiction->m_dwWorldID;

  0015a	8b cf		 mov	 ecx, edi
  0015c	50		 push	 eax
  0015d	e8 00 00 00 00	 call	 ??$?5K@CAr@@QAEAAV0@AAK@Z ; CAr::operator>><unsigned long>
  00162	8d 46 08	 lea	 eax, DWORD PTR [esi+8]

; 74   : 			ar >> pJurisdiction->m_rect;

  00165	8b cf		 mov	 ecx, edi
  00167	50		 push	 eax
  00168	e8 00 00 00 00	 call	 ??$?5VCRect@@@CAr@@QAEAAV0@AAVCRect@@@Z ; CAr::operator>><CRect>
  0016d	8d 46 18	 lea	 eax, DWORD PTR [esi+24]

; 75   : 			ar >> pJurisdiction->m_wLeft;

  00170	8b cf		 mov	 ecx, edi
  00172	50		 push	 eax
  00173	e8 00 00 00 00	 call	 ??$?5G@CAr@@QAEAAV0@AAG@Z ; CAr::operator>><unsigned short>
  00178	8d 46 1a	 lea	 eax, DWORD PTR [esi+26]

; 76   : 			ar >> pJurisdiction->m_wRight;

  0017b	8b cf		 mov	 ecx, edi
  0017d	50		 push	 eax
  0017e	e8 00 00 00 00	 call	 ??$?5G@CAr@@QAEAAV0@AAG@Z ; CAr::operator>><unsigned short>
; File C:\Program Files\Microsoft Visual Studio\2022\Professional\VC\Tools\MSVC\14.44.35207\include\list

; 1030 :         if (_Mysize == max_size()) {

  00183	81 7b 04 55 55
	55 15		 cmp	 DWORD PTR [ebx+4], 357913941 ; 15555555H

; 1274 :         _Emplace(_Mypair._Myval2._Myhead, _Val);

  0018a	8b 03		 mov	 eax, DWORD PTR [ebx]
  0018c	89 45 ec	 mov	 DWORD PTR __Where$1$[ebp], eax

; 1030 :         if (_Mysize == max_size()) {

  0018f	74 74		 je	 SHORT $LN144@Serialize
; File C:\Program Files\Microsoft Visual Studio\2022\Professional\VC\Tools\MSVC\14.44.35207\include\xmemory

; 1160 :     _CONSTEXPR20 explicit _Alloc_construct_ptr(_Alloc& _Al_) : _Al(_Al_), _Ptr(nullptr) {}

  00191	89 5d e0	 mov	 DWORD PTR __Op$2[ebp], ebx

; 136  :         return ::operator new(_Bytes);

  00194	6a 0c		 push	 12			; 0000000cH
; File C:\Program Files\Microsoft Visual Studio\2022\Professional\VC\Tools\MSVC\14.44.35207\include\list

; 593  :     explicit _List_node_emplace_op2(_Alnode& _Al_, _Valtys&&... _Vals) : _Alloc_construct_ptr<_Alnode>(_Al_) {

  00196	c7 45 fc 00 00
	00 00		 mov	 DWORD PTR __$EHRec$[ebp+8], 0
; File C:\Program Files\Microsoft Visual Studio\2022\Professional\VC\Tools\MSVC\14.44.35207\include\xmemory

; 1167 :         _Ptr = nullptr; // if allocate throws, prevents double-free

  0019d	c7 45 e4 00 00
	00 00		 mov	 DWORD PTR __Op$2[ebp+4], 0

; 136  :         return ::operator new(_Bytes);

  001a4	e8 00 00 00 00	 call	 ??2@YAPAXI@Z		; operator new
; File C:\Program Files\Microsoft Visual Studio\2022\Professional\VC\Tools\MSVC\14.44.35207\include\list

; 608  :         const pointer _Insert_after = _Insert_before->_Prev;

  001a9	8b 55 ec	 mov	 edx, DWORD PTR __Where$1$[ebp]
; File C:\Program Files\Microsoft Visual Studio\2022\Professional\VC\Tools\MSVC\14.44.35207\include\xmemory

; 136  :         return ::operator new(_Bytes);

  001ac	83 c4 04	 add	 esp, 4
; File C:\Program Files\Microsoft Visual Studio\2022\Professional\VC\Tools\MSVC\14.44.35207\include\list

; 596  :     }

  001af	c7 45 fc ff ff
	ff ff		 mov	 DWORD PTR __$EHRec$[ebp+8], -1

; 612  :         this->_Ptr            = pointer{};

  001b6	c7 45 e4 00 00
	00 00		 mov	 DWORD PTR __Op$2[ebp+4], 0

; 595  :         _Alnode_traits::construct(this->_Al, _STD addressof(this->_Ptr->_Myval), _STD forward<_Valtys>(_Vals)...);

  001bd	89 70 08	 mov	 DWORD PTR [eax+8], esi

; 1035 :         ++_Mysize;

  001c0	ff 43 04	 inc	 DWORD PTR [ebx+4]

; 608  :         const pointer _Insert_after = _Insert_before->_Prev;

  001c3	8b 4a 04	 mov	 ecx, DWORD PTR [edx+4]

; 609  :         _Construct_in_place(this->_Ptr->_Next, _Insert_before);

  001c6	89 10		 mov	 DWORD PTR [eax], edx

; 610  :         _Construct_in_place(this->_Ptr->_Prev, _Insert_after);

  001c8	89 48 04	 mov	 DWORD PTR [eax+4], ecx

; 613  :         _Insert_before->_Prev = _Result;

  001cb	89 42 04	 mov	 DWORD PTR [edx+4], eax

; 614  :         _Insert_after->_Next  = _Result;

  001ce	89 01		 mov	 DWORD PTR [ecx], eax
; File C:\IAGOS\server\v18\Source\Source\_network\misc\src\ServerDesc.cpp

; 70   : 		for( int i =0; i < nSize; i++ )

  001d0	8b 45 f0	 mov	 eax, DWORD PTR _i$1$[ebp]
  001d3	0f bf 4d 08	 movsx	 ecx, WORD PTR _nSize$5[ebp]
  001d7	40		 inc	 eax
  001d8	89 45 f0	 mov	 DWORD PTR _i$1$[ebp], eax
  001db	3b c1		 cmp	 eax, ecx
  001dd	0f 8c 1e ff ff
	ff		 jl	 $LL7@Serialize
; File C:\Program Files\Microsoft Visual Studio\2022\Professional\VC\Tools\MSVC\14.44.35207\include\xmemory

; 219  :     _STL_VERIFY(_Back_shift >= _Min_back_shift && _Back_shift <= _Non_user_size, "invalid argument");

  001e3	8b 5d e8	 mov	 ebx, DWORD PTR _this$1$[ebp]
$LN6@Serialize:
; File C:\IAGOS\server\v18\Source\Source\_network\misc\src\ServerDesc.cpp

; 79   : 		ar.ReadString( m_szAddr );

  001e6	8d 43 0c	 lea	 eax, DWORD PTR [ebx+12]
  001e9	8b cf		 mov	 ecx, edi
  001eb	50		 push	 eax
  001ec	e8 00 00 00 00	 call	 ?ReadString@CAr@@QAEPADPAD@Z ; CAr::ReadString

; 81   : }

  001f1	8b 4d f4	 mov	 ecx, DWORD PTR __$EHRec$[ebp]
  001f4	64 89 0d 00 00
	00 00		 mov	 DWORD PTR fs:0, ecx
  001fb	59		 pop	 ecx
  001fc	5f		 pop	 edi
  001fd	5e		 pop	 esi
  001fe	5b		 pop	 ebx
  001ff	8b e5		 mov	 esp, ebp
  00201	5d		 pop	 ebp
  00202	c2 04 00	 ret	 4
$LN144@Serialize:
; File C:\Program Files\Microsoft Visual Studio\2022\Professional\VC\Tools\MSVC\14.44.35207\include\list

; 1031 :             _Xlength_error("list too long");

  00205	68 00 00 00 00	 push	 OFFSET ??_C@_0O@NKNMEGII@list?5too?5long@
  0020a	e8 00 00 00 00	 call	 ?_Xlength_error@std@@YAXPBD@Z ; std::_Xlength_error
$LN154@Serialize:
  0020f	cc		 int	 3
_TEXT	ENDS
;	COMDAT text$x
text$x	SEGMENT
__unwindfunclet$?Serialize@CServerDesc@@QAEXAAVCAr@@@Z$2:
  00000	8d 4d e0	 lea	 ecx, DWORD PTR __Op$2[ebp]
  00003	e9 00 00 00 00	 jmp	 ??1?$_Alloc_construct_ptr@V?$allocator@U?$_List_node@PAVCJurisdiction@@PAX@std@@@std@@@std@@QAE@XZ ; std::_Alloc_construct_ptr<std::allocator<std::_List_node<CJurisdiction *,void *> > >::~_Alloc_construct_ptr<std::allocator<std::_List_node<CJurisdiction *,void *> > >
  00008	cc		 int	 3
  00009	cc		 int	 3
  0000a	cc		 int	 3
  0000b	cc		 int	 3
  0000c	cc		 int	 3
__ehhandler$?Serialize@CServerDesc@@QAEXAAVCAr@@@Z:
  0000d	90		 npad	 1
  0000e	90		 npad	 1
  0000f	8b 54 24 08	 mov	 edx, DWORD PTR [esp+8]
  00013	8d 42 0c	 lea	 eax, DWORD PTR [edx+12]
  00016	8b 4a dc	 mov	 ecx, DWORD PTR [edx-36]
  00019	33 c8		 xor	 ecx, eax
  0001b	e8 00 00 00 00	 call	 @__security_check_cookie@4
  00020	b8 00 00 00 00	 mov	 eax, OFFSET __ehfuncinfo$?Serialize@CServerDesc@@QAEXAAVCAr@@@Z
  00025	e9 00 00 00 00	 jmp	 ___CxxFrameHandler3
text$x	ENDS
?Serialize@CServerDesc@@QAEXAAVCAr@@@Z ENDP		; CServerDesc::Serialize
; Function compile flags: /Ogtp
; File C:\IAGOS\server\v18\Source\Source\_network\misc\src\ServerDesc.cpp
; File C:\Program Files\Microsoft Visual Studio\2022\Professional\VC\Tools\MSVC\14.44.35207\include\list
; File C:\IAGOS\server\v18\Source\Source\_network\misc\src\ServerDesc.cpp
; File C:\Program Files\Microsoft Visual Studio\2022\Professional\VC\Tools\MSVC\14.44.35207\include\list
; File C:\IAGOS\server\v18\Source\Source\_network\misc\src\ServerDesc.cpp
; File C:\Program Files\Microsoft Visual Studio\2022\Professional\VC\Tools\MSVC\14.44.35207\include\list
; File C:\IAGOS\server\v18\Source\Source\_network\misc\src\ServerDesc.cpp
;	COMDAT ?IsIntersected@CServerDesc@@QAEHK@Z
_TEXT	SEGMENT
_dwWorldID$ = 8						; size = 4
?IsIntersected@CServerDesc@@QAEHK@Z PROC		; CServerDesc::IsIntersected, COMDAT
; _this$ = ecx

; 39   : {

  00000	55		 push	 ebp
  00001	8b ec		 mov	 ebp, esp
; File C:\Program Files\Microsoft Visual Studio\2022\Professional\VC\Tools\MSVC\14.44.35207\include\list

; 1105 :         return iterator(_Mypair._Myval2._Myhead->_Next, _STD addressof(_Mypair._Myval2));

  00003	8b 51 1c	 mov	 edx, DWORD PTR [ecx+28]
; File C:\IAGOS\server\v18\Source\Source\_network\misc\src\ServerDesc.cpp

; 39   : {

  00006	56		 push	 esi
; File C:\Program Files\Microsoft Visual Studio\2022\Professional\VC\Tools\MSVC\14.44.35207\include\list

; 37   :     _List_unchecked_const_iterator(_Nodeptr _Pnode, const _Mylist* _Plist) noexcept : _Ptr(_Pnode) {

  00007	8b 02		 mov	 eax, DWORD PTR [edx]

; 202  :         return !(*this == _Right);

  00009	3b c2		 cmp	 eax, edx
; File C:\IAGOS\server\v18\Source\Source\_network\misc\src\ServerDesc.cpp

; 40   : 	for( list<CJurisdiction*>::iterator i = m_lspJurisdiction.begin(); i != m_lspJurisdiction.end(); ++i )

  0000b	74 13		 je	 SHORT $LN3@IsIntersec
  0000d	8b 75 08	 mov	 esi, DWORD PTR _dwWorldID$[ebp]
$LL4@IsIntersec:

; 41   : 	{
; 42   : 		if( (*i)->m_dwWorldID == dwWorldID )

  00010	8b 48 08	 mov	 ecx, DWORD PTR [eax+8]
  00013	39 71 04	 cmp	 DWORD PTR [ecx+4], esi
  00016	74 0f		 je	 SHORT $LN50@IsIntersec
; File C:\Program Files\Microsoft Visual Studio\2022\Professional\VC\Tools\MSVC\14.44.35207\include\list

; 164  :         this->_Ptr = this->_Ptr->_Next;

  00018	8b 08		 mov	 ecx, DWORD PTR [eax]
  0001a	8b c1		 mov	 eax, ecx

; 202  :         return !(*this == _Right);

  0001c	3b ca		 cmp	 ecx, edx
; File C:\IAGOS\server\v18\Source\Source\_network\misc\src\ServerDesc.cpp

; 40   : 	for( list<CJurisdiction*>::iterator i = m_lspJurisdiction.begin(); i != m_lspJurisdiction.end(); ++i )

  0001e	75 f0		 jne	 SHORT $LL4@IsIntersec
$LN3@IsIntersec:

; 44   : 	}
; 45   : 	return FALSE;

  00020	33 c0		 xor	 eax, eax
  00022	5e		 pop	 esi

; 46   : }

  00023	5d		 pop	 ebp
  00024	c2 04 00	 ret	 4
$LN50@IsIntersec:

; 43   : 			return TRUE;

  00027	b8 01 00 00 00	 mov	 eax, 1
  0002c	5e		 pop	 esi

; 46   : }

  0002d	5d		 pop	 ebp
  0002e	c2 04 00	 ret	 4
?IsIntersected@CServerDesc@@QAEHK@Z ENDP		; CServerDesc::IsIntersected
_TEXT	ENDS
; Function compile flags: /Ogtp
; File C:\IAGOS\server\v18\Source\Source\_network\misc\src\ServerDesc.cpp
; File C:\Program Files\Microsoft Visual Studio\2022\Professional\VC\Tools\MSVC\14.44.35207\include\list
; File C:\IAGOS\server\v18\Source\Source\_network\misc\src\ServerDesc.cpp
; File C:\Program Files\Microsoft Visual Studio\2022\Professional\VC\Tools\MSVC\14.44.35207\include\list
; File C:\IAGOS\server\v18\Source\Source\_network\misc\src\ServerDesc.cpp
; File C:\Program Files\Microsoft Visual Studio\2022\Professional\VC\Tools\MSVC\14.44.35207\include\list
; File C:\IAGOS\server\v18\Source\Source\_network\misc\src\ServerDesc.cpp
;	COMDAT ?IsUnderJurisdiction@CServerDesc@@QAEHKABU_D3DVECTOR@@@Z
_TEXT	SEGMENT
_dwWorldID$ = 8						; size = 4
_vPos$ = 12						; size = 4
?IsUnderJurisdiction@CServerDesc@@QAEHKABU_D3DVECTOR@@@Z PROC ; CServerDesc::IsUnderJurisdiction, COMDAT
; _this$ = ecx

; 26   : {

  00000	55		 push	 ebp
  00001	8b ec		 mov	 ebp, esp
; File C:\Program Files\Microsoft Visual Studio\2022\Professional\VC\Tools\MSVC\14.44.35207\include\list

; 1105 :         return iterator(_Mypair._Myval2._Myhead->_Next, _STD addressof(_Mypair._Myval2));

  00003	8b 51 1c	 mov	 edx, DWORD PTR [ecx+28]
; File C:\IAGOS\server\v18\Source\Source\_network\misc\src\ServerDesc.cpp

; 26   : {

  00006	56		 push	 esi
; File C:\Program Files\Microsoft Visual Studio\2022\Professional\VC\Tools\MSVC\14.44.35207\include\list

; 37   :     _List_unchecked_const_iterator(_Nodeptr _Pnode, const _Mylist* _Plist) noexcept : _Ptr(_Pnode) {

  00007	8b 02		 mov	 eax, DWORD PTR [edx]

; 202  :         return !(*this == _Right);

  00009	3b c2		 cmp	 eax, edx
; File C:\IAGOS\server\v18\Source\Source\_network\misc\src\ServerDesc.cpp

; 30   : 	for( list<CJurisdiction*>::iterator i = m_lspJurisdiction.begin(); i != m_lspJurisdiction.end(); ++i )

  0000b	74 13		 je	 SHORT $LN3@IsUnderJur
  0000d	8b 75 08	 mov	 esi, DWORD PTR _dwWorldID$[ebp]
$LL4@IsUnderJur:

; 31   : 	{
; 32   : 		if( (*i)->m_dwWorldID == dwWorldID )

  00010	8b 48 08	 mov	 ecx, DWORD PTR [eax+8]
  00013	39 71 04	 cmp	 DWORD PTR [ecx+4], esi
  00016	74 0f		 je	 SHORT $LN50@IsUnderJur
; File C:\Program Files\Microsoft Visual Studio\2022\Professional\VC\Tools\MSVC\14.44.35207\include\list

; 164  :         this->_Ptr = this->_Ptr->_Next;

  00018	8b 08		 mov	 ecx, DWORD PTR [eax]
  0001a	8b c1		 mov	 eax, ecx

; 202  :         return !(*this == _Right);

  0001c	3b ca		 cmp	 ecx, edx
; File C:\IAGOS\server\v18\Source\Source\_network\misc\src\ServerDesc.cpp

; 30   : 	for( list<CJurisdiction*>::iterator i = m_lspJurisdiction.begin(); i != m_lspJurisdiction.end(); ++i )

  0001e	75 f0		 jne	 SHORT $LL4@IsUnderJur
$LN3@IsUnderJur:

; 34   : 	}
; 35   : 	return FALSE;

  00020	33 c0		 xor	 eax, eax
  00022	5e		 pop	 esi

; 36   : }

  00023	5d		 pop	 ebp
  00024	c2 08 00	 ret	 8
$LN50@IsUnderJur:

; 33   : 			return TRUE;

  00027	b8 01 00 00 00	 mov	 eax, 1
  0002c	5e		 pop	 esi

; 36   : }

  0002d	5d		 pop	 ebp
  0002e	c2 08 00	 ret	 8
?IsUnderJurisdiction@CServerDesc@@QAEHKABU_D3DVECTOR@@@Z ENDP ; CServerDesc::IsUnderJurisdiction
_TEXT	ENDS
; Function compile flags: /Ogtp
; File C:\IAGOS\server\v18\Source\Source\_network\misc\src\ServerDesc.cpp
; File C:\Program Files\Microsoft Visual Studio\2022\Professional\VC\Tools\MSVC\14.44.35207\include\list
; File C:\Program Files\Microsoft Visual Studio\2022\Professional\VC\Tools\MSVC\14.44.35207\include\xmemory
; File C:\Program Files\Microsoft Visual Studio\2022\Professional\VC\Tools\MSVC\14.44.35207\include\list
; File C:\Program Files\Microsoft Visual Studio\2022\Professional\VC\Tools\MSVC\14.44.35207\include\xmemory
; File C:\IAGOS\server\v18\Source\Source\_network\misc\src\ServerDesc.cpp
; File C:\Program Files\Microsoft Visual Studio\2022\Professional\VC\Tools\MSVC\14.44.35207\include\list
; File C:\Program Files\Microsoft Visual Studio\2022\Professional\VC\Tools\MSVC\14.44.35207\include\xmemory
; File C:\IAGOS\server\v18\Source\Source\_network\misc\src\ServerDesc.cpp
; File C:\Program Files\Microsoft Visual Studio\2022\Professional\VC\Tools\MSVC\14.44.35207\include\list
; File C:\Program Files\Microsoft Visual Studio\2022\Professional\VC\Tools\MSVC\14.44.35207\include\xmemory
; File C:\Program Files\Microsoft Visual Studio\2022\Professional\VC\Tools\MSVC\14.44.35207\include\list
; File C:\Program Files\Microsoft Visual Studio\2022\Professional\VC\Tools\MSVC\14.44.35207\include\xmemory
; File C:\IAGOS\server\v18\Source\Source\_network\misc\src\ServerDesc.cpp
;	COMDAT ??1CServerDesc@@UAE@XZ
_TEXT	SEGMENT
__My_data$1$ = -4					; size = 4
??1CServerDesc@@UAE@XZ PROC				; CServerDesc::~CServerDesc, COMDAT
; _this$ = ecx

; 15   : {

  00000	55		 push	 ebp
  00001	8b ec		 mov	 ebp, esp
  00003	51		 push	 ecx
  00004	53		 push	 ebx
  00005	8b d9		 mov	 ebx, ecx
  00007	56		 push	 esi
  00008	57		 push	 edi

; 16   : 	CJurisdiction* pJurisdiction;
; 17   : 	while( m_lspJurisdiction.size() > 0 )

  00009	8b 73 20	 mov	 esi, DWORD PTR [ebx+32]
  0000c	8d 7b 1c	 lea	 edi, DWORD PTR [ebx+28]
  0000f	c7 03 00 00 00
	00		 mov	 DWORD PTR [ebx], OFFSET ??_7CServerDesc@@6B@
  00015	89 7d fc	 mov	 DWORD PTR __My_data$1$[ebp], edi
  00018	85 f6		 test	 esi, esi
  0001a	74 42		 je	 SHORT $LN105@CServerDes
  0001c	0f 1f 40 00	 npad	 4
$LL2@CServerDes:
; File C:\Program Files\Microsoft Visual Studio\2022\Professional\VC\Tools\MSVC\14.44.35207\include\list

; 1225 :         return _Mypair._Myval2._Myhead->_Next->_Myval;

  00020	8b 07		 mov	 eax, DWORD PTR [edi]
; File C:\Program Files\Microsoft Visual Studio\2022\Professional\VC\Tools\MSVC\14.44.35207\include\xmemory

; 289  :         ::operator delete(_Ptr, _Bytes);

  00022	6a 0c		 push	 12			; 0000000cH
; File C:\Program Files\Microsoft Visual Studio\2022\Professional\VC\Tools\MSVC\14.44.35207\include\list

; 1225 :         return _Mypair._Myval2._Myhead->_Next->_Myval;

  00024	8b 10		 mov	 edx, DWORD PTR [eax]

; 1440 :         --_Mypair._Myval2._Mysize;

  00026	8d 46 ff	 lea	 eax, DWORD PTR [esi-1]
; File C:\Program Files\Microsoft Visual Studio\2022\Professional\VC\Tools\MSVC\14.44.35207\include\xmemory

; 289  :         ::operator delete(_Ptr, _Bytes);

  00029	52		 push	 edx
; File C:\IAGOS\server\v18\Source\Source\_network\misc\src\ServerDesc.cpp

; 19   : 		pJurisdiction	= m_lspJurisdiction.front();

  0002a	8b 7a 08	 mov	 edi, DWORD PTR [edx+8]
; File C:\Program Files\Microsoft Visual Studio\2022\Professional\VC\Tools\MSVC\14.44.35207\include\list

; 1438 :         const auto _Result = _Pnode->_Next;

  0002d	8b 0a		 mov	 ecx, DWORD PTR [edx]

; 1439 :         _Mypair._Myval2._Orphan_ptr2(_Pnode);
; 1440 :         --_Mypair._Myval2._Mysize;

  0002f	89 43 20	 mov	 DWORD PTR [ebx+32], eax

; 1441 :         _Pnode->_Prev->_Next = _Result;

  00032	8b 42 04	 mov	 eax, DWORD PTR [edx+4]
  00035	89 08		 mov	 DWORD PTR [eax], ecx

; 1442 :         _Result->_Prev       = _Pnode->_Prev;

  00037	8b 42 04	 mov	 eax, DWORD PTR [edx+4]
  0003a	89 41 04	 mov	 DWORD PTR [ecx+4], eax
; File C:\Program Files\Microsoft Visual Studio\2022\Professional\VC\Tools\MSVC\14.44.35207\include\xmemory

; 289  :         ::operator delete(_Ptr, _Bytes);

  0003d	e8 00 00 00 00	 call	 ??3@YAXPAXI@Z		; operator delete
  00042	83 c4 08	 add	 esp, 8
; File C:\IAGOS\server\v18\Source\Source\_network\misc\src\ServerDesc.cpp

; 21   : 		safe_delete( pJurisdiction );

  00045	85 ff		 test	 edi, edi
  00047	74 08		 je	 SHORT $LN5@CServerDes
  00049	8b 07		 mov	 eax, DWORD PTR [edi]
  0004b	8b cf		 mov	 ecx, edi
  0004d	6a 01		 push	 1
  0004f	ff 10		 call	 DWORD PTR [eax]
$LN5@CServerDes:

; 16   : 	CJurisdiction* pJurisdiction;
; 17   : 	while( m_lspJurisdiction.size() > 0 )

  00051	8b 73 20	 mov	 esi, DWORD PTR [ebx+32]
  00054	8d 7b 1c	 lea	 edi, DWORD PTR [ebx+28]
  00057	85 f6		 test	 esi, esi
  00059	75 c5		 jne	 SHORT $LL2@CServerDes
  0005b	8b 7d fc	 mov	 edi, DWORD PTR __My_data$1$[ebp]
$LN105@CServerDes:
; File C:\Program Files\Microsoft Visual Studio\2022\Professional\VC\Tools\MSVC\14.44.35207\include\list

; 1518 :         _Node::_Free_non_head(_Al, _My_data._Myhead);

  0005e	8b 0f		 mov	 ecx, DWORD PTR [edi]

; 324  :         _Head->_Prev->_Next = nullptr;

  00060	8b 41 04	 mov	 eax, DWORD PTR [ecx+4]
  00063	c7 00 00 00 00
	00		 mov	 DWORD PTR [eax], 0

; 325  : 
; 326  :         auto _Pnode = _Head->_Next;

  00069	8b 01		 mov	 eax, DWORD PTR [ecx]

; 327  :         for (_Nodeptr _Pnext; _Pnode; _Pnode = _Pnext) {

  0006b	85 c0		 test	 eax, eax
  0006d	74 14		 je	 SHORT $LN100@CServerDes
  0006f	90		 npad	 1
$LL50@CServerDes:

; 328  :             _Pnext = _Pnode->_Next;

  00070	8b 30		 mov	 esi, DWORD PTR [eax]
; File C:\Program Files\Microsoft Visual Studio\2022\Professional\VC\Tools\MSVC\14.44.35207\include\xmemory

; 289  :         ::operator delete(_Ptr, _Bytes);

  00072	6a 0c		 push	 12			; 0000000cH
  00074	50		 push	 eax
  00075	e8 00 00 00 00	 call	 ??3@YAXPAXI@Z		; operator delete
  0007a	83 c4 08	 add	 esp, 8
; File C:\Program Files\Microsoft Visual Studio\2022\Professional\VC\Tools\MSVC\14.44.35207\include\list

; 327  :         for (_Nodeptr _Pnext; _Pnode; _Pnode = _Pnext) {

  0007d	8b c6		 mov	 eax, esi
  0007f	85 f6		 test	 esi, esi
  00081	75 ed		 jne	 SHORT $LL50@CServerDes
$LN100@CServerDes:
; File C:\Program Files\Microsoft Visual Studio\2022\Professional\VC\Tools\MSVC\14.44.35207\include\xmemory

; 289  :         ::operator delete(_Ptr, _Bytes);

  00083	6a 0c		 push	 12			; 0000000cH
  00085	ff 37		 push	 DWORD PTR [edi]
  00087	e8 00 00 00 00	 call	 ??3@YAXPAXI@Z		; operator delete
  0008c	83 c4 08	 add	 esp, 8
  0008f	5f		 pop	 edi
  00090	5e		 pop	 esi
  00091	5b		 pop	 ebx
; File C:\IAGOS\server\v18\Source\Source\_network\misc\src\ServerDesc.cpp

; 23   : }

  00092	8b e5		 mov	 esp, ebp
  00094	5d		 pop	 ebp
  00095	c3		 ret	 0
??1CServerDesc@@UAE@XZ ENDP				; CServerDesc::~CServerDesc
_TEXT	ENDS
; Function compile flags: /Ogtp
; File C:\IAGOS\server\v18\Source\Source\_network\misc\src\ServerDesc.cpp
; File C:\Program Files\Microsoft Visual Studio\2022\Professional\VC\Tools\MSVC\14.44.35207\include\xmemory
; File C:\IAGOS\server\v18\Source\Source\_network\misc\src\ServerDesc.cpp
; File C:\Program Files\Microsoft Visual Studio\2022\Professional\VC\Tools\MSVC\14.44.35207\include\list
; File C:\Program Files\Microsoft Visual Studio\2022\Professional\VC\Tools\MSVC\14.44.35207\include\xmemory
; File C:\Program Files\Microsoft Visual Studio\2022\Professional\VC\Tools\MSVC\14.44.35207\include\list
; File C:\IAGOS\server\v18\Source\Source\_network\misc\src\ServerDesc.cpp
;	COMDAT ??0CServerDesc@@QAE@XZ
_TEXT	SEGMENT
_this$ = -4						; size = 4
??0CServerDesc@@QAE@XZ PROC				; CServerDesc::CServerDesc, COMDAT
; _this$ = ecx

; 7    : {

  00000	55		 push	 ebp
  00001	8b ec		 mov	 ebp, esp
  00003	51		 push	 ecx
  00004	56		 push	 esi
  00005	8b f1		 mov	 esi, ecx
; File C:\Program Files\Microsoft Visual Studio\2022\Professional\VC\Tools\MSVC\14.44.35207\include\xmemory

; 136  :         return ::operator new(_Bytes);

  00007	6a 0c		 push	 12			; 0000000cH
; File C:\IAGOS\server\v18\Source\Source\_network\misc\src\ServerDesc.cpp

; 7    : {

  00009	89 75 fc	 mov	 DWORD PTR _this$[ebp], esi
  0000c	c7 06 00 00 00
	00		 mov	 DWORD PTR [esi], OFFSET ??_7CServerDesc@@6B@
; File C:\Program Files\Microsoft Visual Studio\2022\Professional\VC\Tools\MSVC\14.44.35207\include\list

; 353  :     _List_val() noexcept : _Myhead(), _Mysize(0) {} // initialize data

  00012	c7 46 1c 00 00
	00 00		 mov	 DWORD PTR [esi+28], 0
  00019	c7 46 20 00 00
	00 00		 mov	 DWORD PTR [esi+32], 0
; File C:\Program Files\Microsoft Visual Studio\2022\Professional\VC\Tools\MSVC\14.44.35207\include\xmemory

; 136  :         return ::operator new(_Bytes);

  00020	e8 00 00 00 00	 call	 ??2@YAPAXI@Z		; operator new
  00025	83 c4 04	 add	 esp, 4
; File C:\Program Files\Microsoft Visual Studio\2022\Professional\VC\Tools\MSVC\14.44.35207\include\list

; 1852 :         _Construct_in_place(_Newhead->_Next, _Newhead);

  00028	89 00		 mov	 DWORD PTR [eax], eax

; 1853 :         _Construct_in_place(_Newhead->_Prev, _Newhead);

  0002a	89 40 04	 mov	 DWORD PTR [eax+4], eax

; 1854 :         _Mypair._Myval2._Myhead = _Newhead;

  0002d	89 46 1c	 mov	 DWORD PTR [esi+28], eax
; File C:\IAGOS\server\v18\Source\Source\_network\misc\src\ServerDesc.cpp

; 12   : }

  00030	8b c6		 mov	 eax, esi
  00032	c7 46 04 00 00
	00 00		 mov	 DWORD PTR [esi+4], 0
  00039	c7 46 08 00 00
	00 00		 mov	 DWORD PTR [esi+8], 0
  00040	c6 46 0c 00	 mov	 BYTE PTR [esi+12], 0
  00044	5e		 pop	 esi
  00045	8b e5		 mov	 esp, ebp
  00047	5d		 pop	 ebp
  00048	c3		 ret	 0
??0CServerDesc@@QAE@XZ ENDP				; CServerDesc::CServerDesc
_TEXT	ENDS
; Function compile flags: /Ogtp
;	COMDAT ??_GCJurisdiction@@UAEPAXI@Z
_TEXT	SEGMENT
___flags$ = 8						; size = 4
??_GCJurisdiction@@UAEPAXI@Z PROC			; CJurisdiction::`scalar deleting destructor', COMDAT
; _this$ = ecx
  00000	55		 push	 ebp
  00001	8b ec		 mov	 ebp, esp
  00003	f6 45 08 01	 test	 BYTE PTR ___flags$[ebp], 1
  00007	56		 push	 esi
  00008	8b f1		 mov	 esi, ecx
  0000a	c7 06 00 00 00
	00		 mov	 DWORD PTR [esi], OFFSET ??_7CJurisdiction@@6B@
  00010	74 0b		 je	 SHORT $LN5@scalar
  00012	6a 1c		 push	 28			; 0000001cH
  00014	56		 push	 esi
  00015	e8 00 00 00 00	 call	 ??3@YAXPAXI@Z		; operator delete
  0001a	83 c4 08	 add	 esp, 8
$LN5@scalar:
  0001d	8b c6		 mov	 eax, esi
  0001f	5e		 pop	 esi
  00020	5d		 pop	 ebp
  00021	c2 04 00	 ret	 4
??_GCJurisdiction@@UAEPAXI@Z ENDP			; CJurisdiction::`scalar deleting destructor'
_TEXT	ENDS
; Function compile flags: /Ogtp
; File C:\IAGOS\server\v18\Source\Source\_Network\Misc\Include\ServerDesc.h
;	COMDAT ??1CJurisdiction@@UAE@XZ
_TEXT	SEGMENT
??1CJurisdiction@@UAE@XZ PROC				; CJurisdiction::~CJurisdiction, COMDAT
; _this$ = ecx

; 32   : 		{

  00000	c7 01 00 00 00
	00		 mov	 DWORD PTR [ecx], OFFSET ??_7CJurisdiction@@6B@

; 33   : 		}

  00006	c3		 ret	 0
??1CJurisdiction@@UAE@XZ ENDP				; CJurisdiction::~CJurisdiction
_TEXT	ENDS
; Function compile flags: /Ogtp
; File C:\IAGOS\server\v18\Source\Source\_Network\Mcl\Include\CMclCritSec.h
;	COMDAT ??_GCMclCritSec@@UAEPAXI@Z
_TEXT	SEGMENT
___flags$ = 8						; size = 4
??_GCMclCritSec@@UAEPAXI@Z PROC				; CMclCritSec::`scalar deleting destructor', COMDAT
; _this$ = ecx
  00000	55		 push	 ebp
  00001	8b ec		 mov	 ebp, esp

; 26   : 	{

  00003	56		 push	 esi
  00004	8b f1		 mov	 esi, ecx

; 27   : 		::DeleteCriticalSection( &m_CritSec );

  00006	8d 46 04	 lea	 eax, DWORD PTR [esi+4]
  00009	c7 06 00 00 00
	00		 mov	 DWORD PTR [esi], OFFSET ??_7CMclCritSec@@6B@
  0000f	50		 push	 eax
  00010	ff 15 00 00 00
	00		 call	 DWORD PTR __imp__DeleteCriticalSection@4
  00016	f6 45 08 01	 test	 BYTE PTR ___flags$[ebp], 1
  0001a	74 0b		 je	 SHORT $LN8@scalar
  0001c	6a 1c		 push	 28			; 0000001cH
  0001e	56		 push	 esi
  0001f	e8 00 00 00 00	 call	 ??3@YAXPAXI@Z		; operator delete
  00024	83 c4 08	 add	 esp, 8
$LN8@scalar:
  00027	8b c6		 mov	 eax, esi
  00029	5e		 pop	 esi
  0002a	5d		 pop	 ebp
  0002b	c2 04 00	 ret	 4
??_GCMclCritSec@@UAEPAXI@Z ENDP				; CMclCritSec::`scalar deleting destructor'
_TEXT	ENDS
; Function compile flags: /Ogtp
; File C:\IAGOS\server\v18\Source\Source\_Network\Mcl\Include\CMclCritSec.h
;	COMDAT ??1CMclCritSec@@UAE@XZ
_TEXT	SEGMENT
??1CMclCritSec@@UAE@XZ PROC				; CMclCritSec::~CMclCritSec, COMDAT
; _this$ = ecx

; 27   : 		::DeleteCriticalSection( &m_CritSec );

  00000	8d 41 04	 lea	 eax, DWORD PTR [ecx+4]
  00003	c7 01 00 00 00
	00		 mov	 DWORD PTR [ecx], OFFSET ??_7CMclCritSec@@6B@
  00009	50		 push	 eax
  0000a	ff 15 00 00 00
	00		 call	 DWORD PTR __imp__DeleteCriticalSection@4

; 28   : 	}

  00010	c3		 ret	 0
??1CMclCritSec@@UAE@XZ ENDP				; CMclCritSec::~CMclCritSec
_TEXT	ENDS
; Function compile flags: /Ogtp
; File C:\Program Files\Microsoft Visual Studio\2022\Professional\VC\Tools\MSVC\14.44.35207\include\xmemory
;	COMDAT ?_Throw_bad_array_new_length@std@@YAXXZ
_TEXT	SEGMENT
$T1 = -12						; size = 12
?_Throw_bad_array_new_length@std@@YAXXZ PROC		; std::_Throw_bad_array_new_length, COMDAT

; 107  : [[noreturn]] inline void _Throw_bad_array_new_length() {

  00000	55		 push	 ebp
  00001	8b ec		 mov	 ebp, esp
  00003	83 ec 0c	 sub	 esp, 12			; 0000000cH

; 108  :     _THROW(bad_array_new_length{});

  00006	8d 4d f4	 lea	 ecx, DWORD PTR $T1[ebp]
  00009	e8 00 00 00 00	 call	 ??0bad_array_new_length@std@@QAE@XZ ; std::bad_array_new_length::bad_array_new_length
  0000e	68 00 00 00 00	 push	 OFFSET __TI3?AVbad_array_new_length@std@@
  00013	8d 45 f4	 lea	 eax, DWORD PTR $T1[ebp]
  00016	50		 push	 eax
  00017	e8 00 00 00 00	 call	 __CxxThrowException@8
$LN3@Throw_bad_:
  0001c	cc		 int	 3
?_Throw_bad_array_new_length@std@@YAXXZ ENDP		; std::_Throw_bad_array_new_length
_TEXT	ENDS
; Function compile flags: /Ogtp
; File C:\Program Files\Microsoft Visual Studio\2022\Professional\VC\Tools\MSVC\14.44.35207\include\vcruntime_exception.h
;	COMDAT ??_Gbad_array_new_length@std@@UAEPAXI@Z
_TEXT	SEGMENT
___flags$ = 8						; size = 4
??_Gbad_array_new_length@std@@UAEPAXI@Z PROC		; std::bad_array_new_length::`scalar deleting destructor', COMDAT
; _this$ = ecx
  00000	55		 push	 ebp
  00001	8b ec		 mov	 ebp, esp

; 90   :     {

  00003	56		 push	 esi
  00004	8b f1		 mov	 esi, ecx

; 91   :         __std_exception_destroy(&_Data);

  00006	8d 46 04	 lea	 eax, DWORD PTR [esi+4]
  00009	c7 06 00 00 00
	00		 mov	 DWORD PTR [esi], OFFSET ??_7exception@std@@6B@
  0000f	50		 push	 eax
  00010	e8 00 00 00 00	 call	 ___std_exception_destroy
  00015	83 c4 04	 add	 esp, 4
  00018	f6 45 08 01	 test	 BYTE PTR ___flags$[ebp], 1
  0001c	74 0b		 je	 SHORT $LN18@scalar
  0001e	6a 0c		 push	 12			; 0000000cH
  00020	56		 push	 esi
  00021	e8 00 00 00 00	 call	 ??3@YAXPAXI@Z		; operator delete
  00026	83 c4 08	 add	 esp, 8
$LN18@scalar:
  00029	8b c6		 mov	 eax, esi
  0002b	5e		 pop	 esi
  0002c	5d		 pop	 ebp
  0002d	c2 04 00	 ret	 4
??_Gbad_array_new_length@std@@UAEPAXI@Z ENDP		; std::bad_array_new_length::`scalar deleting destructor'
_TEXT	ENDS
; Function compile flags: /Ogtp
; File C:\Program Files\Microsoft Visual Studio\2022\Professional\VC\Tools\MSVC\14.44.35207\include\vcruntime_exception.h
;	COMDAT ??0bad_array_new_length@std@@QAE@ABV01@@Z
_TEXT	SEGMENT
___that$ = 8						; size = 4
??0bad_array_new_length@std@@QAE@ABV01@@Z PROC		; std::bad_array_new_length::bad_array_new_length, COMDAT
; _this$ = ecx
  00000	55		 push	 ebp
  00001	8b ec		 mov	 ebp, esp

; 73   :     {

  00003	56		 push	 esi
  00004	8b f1		 mov	 esi, ecx
  00006	0f 57 c0	 xorps	 xmm0, xmm0

; 72   :         : _Data()

  00009	8d 46 04	 lea	 eax, DWORD PTR [esi+4]

; 74   :         __std_exception_copy(&_Other._Data, &_Data);

  0000c	50		 push	 eax
  0000d	c7 06 00 00 00
	00		 mov	 DWORD PTR [esi], OFFSET ??_7exception@std@@6B@
  00013	66 0f d6 00	 movq	 QWORD PTR [eax], xmm0
  00017	8b 45 08	 mov	 eax, DWORD PTR ___that$[ebp]
  0001a	83 c0 04	 add	 eax, 4
  0001d	50		 push	 eax
  0001e	e8 00 00 00 00	 call	 ___std_exception_copy
  00023	83 c4 08	 add	 esp, 8
  00026	c7 06 00 00 00
	00		 mov	 DWORD PTR [esi], OFFSET ??_7bad_array_new_length@std@@6B@
  0002c	8b c6		 mov	 eax, esi
  0002e	5e		 pop	 esi
  0002f	5d		 pop	 ebp
  00030	c2 04 00	 ret	 4
??0bad_array_new_length@std@@QAE@ABV01@@Z ENDP		; std::bad_array_new_length::bad_array_new_length
_TEXT	ENDS
; Function compile flags: /Ogtp
; File C:\Program Files\Microsoft Visual Studio\2022\Professional\VC\Tools\MSVC\14.44.35207\include\vcruntime_exception.h
;	COMDAT ??1bad_array_new_length@std@@UAE@XZ
_TEXT	SEGMENT
??1bad_array_new_length@std@@UAE@XZ PROC		; std::bad_array_new_length::~bad_array_new_length, COMDAT
; _this$ = ecx

; 91   :         __std_exception_destroy(&_Data);

  00000	8d 41 04	 lea	 eax, DWORD PTR [ecx+4]
  00003	c7 01 00 00 00
	00		 mov	 DWORD PTR [ecx], OFFSET ??_7exception@std@@6B@
  00009	50		 push	 eax
  0000a	e8 00 00 00 00	 call	 ___std_exception_destroy
  0000f	59		 pop	 ecx
  00010	c3		 ret	 0
??1bad_array_new_length@std@@UAE@XZ ENDP		; std::bad_array_new_length::~bad_array_new_length
_TEXT	ENDS
; Function compile flags: /Ogtp
; File C:\Program Files\Microsoft Visual Studio\2022\Professional\VC\Tools\MSVC\14.44.35207\include\vcruntime_exception.h
;	COMDAT ??0bad_array_new_length@std@@QAE@XZ
_TEXT	SEGMENT
??0bad_array_new_length@std@@QAE@XZ PROC		; std::bad_array_new_length::bad_array_new_length, COMDAT
; _this$ = ecx

; 144  :     {

  00000	0f 57 c0	 xorps	 xmm0, xmm0

; 145  :     }

  00003	8b c1		 mov	 eax, ecx

; 66   :         : _Data()

  00005	66 0f d6 41 04	 movq	 QWORD PTR [ecx+4], xmm0

; 67   :     {
; 68   :         _Data._What = _Message;

  0000a	c7 41 04 00 00
	00 00		 mov	 DWORD PTR [ecx+4], OFFSET ??_C@_0BF@KINCDENJ@bad?5array?5new?5length@

; 144  :     {

  00011	c7 01 00 00 00
	00		 mov	 DWORD PTR [ecx], OFFSET ??_7bad_array_new_length@std@@6B@

; 145  :     }

  00017	c3		 ret	 0
??0bad_array_new_length@std@@QAE@XZ ENDP		; std::bad_array_new_length::bad_array_new_length
_TEXT	ENDS
; Function compile flags: /Ogtp
; File C:\Program Files\Microsoft Visual Studio\2022\Professional\VC\Tools\MSVC\14.44.35207\include\vcruntime_exception.h
;	COMDAT ??_Gbad_alloc@std@@UAEPAXI@Z
_TEXT	SEGMENT
___flags$ = 8						; size = 4
??_Gbad_alloc@std@@UAEPAXI@Z PROC			; std::bad_alloc::`scalar deleting destructor', COMDAT
; _this$ = ecx
  00000	55		 push	 ebp
  00001	8b ec		 mov	 ebp, esp

; 90   :     {

  00003	56		 push	 esi
  00004	8b f1		 mov	 esi, ecx

; 91   :         __std_exception_destroy(&_Data);

  00006	8d 46 04	 lea	 eax, DWORD PTR [esi+4]
  00009	c7 06 00 00 00
	00		 mov	 DWORD PTR [esi], OFFSET ??_7exception@std@@6B@
  0000f	50		 push	 eax
  00010	e8 00 00 00 00	 call	 ___std_exception_destroy
  00015	83 c4 04	 add	 esp, 4
  00018	f6 45 08 01	 test	 BYTE PTR ___flags$[ebp], 1
  0001c	74 0b		 je	 SHORT $LN13@scalar
  0001e	6a 0c		 push	 12			; 0000000cH
  00020	56		 push	 esi
  00021	e8 00 00 00 00	 call	 ??3@YAXPAXI@Z		; operator delete
  00026	83 c4 08	 add	 esp, 8
$LN13@scalar:
  00029	8b c6		 mov	 eax, esi
  0002b	5e		 pop	 esi
  0002c	5d		 pop	 ebp
  0002d	c2 04 00	 ret	 4
??_Gbad_alloc@std@@UAEPAXI@Z ENDP			; std::bad_alloc::`scalar deleting destructor'
_TEXT	ENDS
; Function compile flags: /Ogtp
; File C:\Program Files\Microsoft Visual Studio\2022\Professional\VC\Tools\MSVC\14.44.35207\include\vcruntime_exception.h
;	COMDAT ??0bad_alloc@std@@QAE@ABV01@@Z
_TEXT	SEGMENT
___that$ = 8						; size = 4
??0bad_alloc@std@@QAE@ABV01@@Z PROC			; std::bad_alloc::bad_alloc, COMDAT
; _this$ = ecx
  00000	55		 push	 ebp
  00001	8b ec		 mov	 ebp, esp

; 73   :     {

  00003	56		 push	 esi
  00004	8b f1		 mov	 esi, ecx
  00006	0f 57 c0	 xorps	 xmm0, xmm0

; 72   :         : _Data()

  00009	8d 46 04	 lea	 eax, DWORD PTR [esi+4]

; 74   :         __std_exception_copy(&_Other._Data, &_Data);

  0000c	50		 push	 eax
  0000d	c7 06 00 00 00
	00		 mov	 DWORD PTR [esi], OFFSET ??_7exception@std@@6B@
  00013	66 0f d6 00	 movq	 QWORD PTR [eax], xmm0
  00017	8b 45 08	 mov	 eax, DWORD PTR ___that$[ebp]
  0001a	83 c0 04	 add	 eax, 4
  0001d	50		 push	 eax
  0001e	e8 00 00 00 00	 call	 ___std_exception_copy
  00023	83 c4 08	 add	 esp, 8
  00026	c7 06 00 00 00
	00		 mov	 DWORD PTR [esi], OFFSET ??_7bad_alloc@std@@6B@
  0002c	8b c6		 mov	 eax, esi
  0002e	5e		 pop	 esi
  0002f	5d		 pop	 ebp
  00030	c2 04 00	 ret	 4
??0bad_alloc@std@@QAE@ABV01@@Z ENDP			; std::bad_alloc::bad_alloc
_TEXT	ENDS
; Function compile flags: /Ogtp
; File C:\Program Files\Microsoft Visual Studio\2022\Professional\VC\Tools\MSVC\14.44.35207\include\vcruntime_exception.h
;	COMDAT ??_Gexception@std@@UAEPAXI@Z
_TEXT	SEGMENT
___flags$ = 8						; size = 4
??_Gexception@std@@UAEPAXI@Z PROC			; std::exception::`scalar deleting destructor', COMDAT
; _this$ = ecx
  00000	55		 push	 ebp
  00001	8b ec		 mov	 ebp, esp

; 90   :     {

  00003	56		 push	 esi
  00004	8b f1		 mov	 esi, ecx

; 91   :         __std_exception_destroy(&_Data);

  00006	8d 46 04	 lea	 eax, DWORD PTR [esi+4]
  00009	c7 06 00 00 00
	00		 mov	 DWORD PTR [esi], OFFSET ??_7exception@std@@6B@
  0000f	50		 push	 eax
  00010	e8 00 00 00 00	 call	 ___std_exception_destroy
  00015	83 c4 04	 add	 esp, 4
  00018	f6 45 08 01	 test	 BYTE PTR ___flags$[ebp], 1
  0001c	74 0b		 je	 SHORT $LN8@scalar
  0001e	6a 0c		 push	 12			; 0000000cH
  00020	56		 push	 esi
  00021	e8 00 00 00 00	 call	 ??3@YAXPAXI@Z		; operator delete
  00026	83 c4 08	 add	 esp, 8
$LN8@scalar:
  00029	8b c6		 mov	 eax, esi
  0002b	5e		 pop	 esi
  0002c	5d		 pop	 ebp
  0002d	c2 04 00	 ret	 4
??_Gexception@std@@UAEPAXI@Z ENDP			; std::exception::`scalar deleting destructor'
_TEXT	ENDS
; Function compile flags: /Ogtp
; File C:\Program Files\Microsoft Visual Studio\2022\Professional\VC\Tools\MSVC\14.44.35207\include\vcruntime_exception.h
;	COMDAT ?what@exception@std@@UBEPBDXZ
_TEXT	SEGMENT
?what@exception@std@@UBEPBDXZ PROC			; std::exception::what, COMDAT
; _this$ = ecx

; 96   :         return _Data._What ? _Data._What : "Unknown exception";

  00000	8b 49 04	 mov	 ecx, DWORD PTR [ecx+4]
  00003	b8 00 00 00 00	 mov	 eax, OFFSET ??_C@_0BC@EOODALEL@Unknown?5exception@
  00008	85 c9		 test	 ecx, ecx
  0000a	0f 45 c1	 cmovne	 eax, ecx

; 97   :     }

  0000d	c3		 ret	 0
?what@exception@std@@UBEPBDXZ ENDP			; std::exception::what
_TEXT	ENDS
; Function compile flags: /Ogtp
; File C:\Program Files\Microsoft Visual Studio\2022\Professional\VC\Tools\MSVC\14.44.35207\include\vcruntime_exception.h
;	COMDAT ??1exception@std@@UAE@XZ
_TEXT	SEGMENT
??1exception@std@@UAE@XZ PROC				; std::exception::~exception, COMDAT
; _this$ = ecx

; 91   :         __std_exception_destroy(&_Data);

  00000	8d 41 04	 lea	 eax, DWORD PTR [ecx+4]
  00003	c7 01 00 00 00
	00		 mov	 DWORD PTR [ecx], OFFSET ??_7exception@std@@6B@
  00009	50		 push	 eax
  0000a	e8 00 00 00 00	 call	 ___std_exception_destroy
  0000f	59		 pop	 ecx

; 92   :     }

  00010	c3		 ret	 0
??1exception@std@@UAE@XZ ENDP				; std::exception::~exception
_TEXT	ENDS
; Function compile flags: /Ogtp
; File C:\Program Files\Microsoft Visual Studio\2022\Professional\VC\Tools\MSVC\14.44.35207\include\vcruntime_exception.h
;	COMDAT ??0exception@std@@QAE@ABV01@@Z
_TEXT	SEGMENT
__Other$ = 8						; size = 4
??0exception@std@@QAE@ABV01@@Z PROC			; std::exception::exception, COMDAT
; _this$ = ecx

; 73   :     {

  00000	55		 push	 ebp
  00001	8b ec		 mov	 ebp, esp
  00003	56		 push	 esi
  00004	8b f1		 mov	 esi, ecx
  00006	0f 57 c0	 xorps	 xmm0, xmm0
  00009	8d 46 04	 lea	 eax, DWORD PTR [esi+4]

; 74   :         __std_exception_copy(&_Other._Data, &_Data);

  0000c	50		 push	 eax
  0000d	c7 06 00 00 00
	00		 mov	 DWORD PTR [esi], OFFSET ??_7exception@std@@6B@
  00013	66 0f d6 00	 movq	 QWORD PTR [eax], xmm0
  00017	8b 45 08	 mov	 eax, DWORD PTR __Other$[ebp]
  0001a	83 c0 04	 add	 eax, 4
  0001d	50		 push	 eax
  0001e	e8 00 00 00 00	 call	 ___std_exception_copy
  00023	83 c4 08	 add	 esp, 8

; 75   :     }

  00026	8b c6		 mov	 eax, esi
  00028	5e		 pop	 esi
  00029	5d		 pop	 ebp
  0002a	c2 04 00	 ret	 4
??0exception@std@@QAE@ABV01@@Z ENDP			; std::exception::exception
_TEXT	ENDS
; Function compile flags: /Ogtp
; File C:\IAGOS\server\v18\Source\Source\_network\misc\src\ServerDesc.cpp
;	COMDAT ?__empty_global_delete@@YAXPAXI@Z
_TEXT	SEGMENT
___formal$ = 8						; size = 4
___formal$ = 12						; size = 4
?__empty_global_delete@@YAXPAXI@Z PROC			; __empty_global_delete, COMDAT

  00000	c2 00 00	 ret	 0
?__empty_global_delete@@YAXPAXI@Z ENDP			; __empty_global_delete
_TEXT	ENDS
; Function compile flags: /Ogtp
; File C:\IAGOS\server\v18\Source\Source\_network\misc\src\ServerDesc.cpp
;	COMDAT ?__empty_global_delete@@YAXPAX@Z
_TEXT	SEGMENT
___formal$ = 8						; size = 4
?__empty_global_delete@@YAXPAX@Z PROC			; __empty_global_delete, COMDAT

  00000	c2 00 00	 ret	 0
?__empty_global_delete@@YAXPAX@Z ENDP			; __empty_global_delete
_TEXT	ENDS
END
