; Listing generated by Microsoft (R) Optimizing Compiler Version 19.44.35225.0 

	TITLE	C:\IAGOS\server\v18\Source\Output\WorldServer\Release\SfxHitArray.obj
	.686P
	.XMM
	include listing.inc
	.model	flat

INCLUDELIB LIBCMT
INCLUDELIB OLDNAMES

PUBLIC	?__empty_global_delete@@YAXPAX@Z		; __empty_global_delete
PUBLIC	?__empty_global_delete@@YAXPAXI@Z		; __empty_global_delete
PUBLIC	??0CSfxHitArray@@QAE@XZ				; CSfxHitArray::CSfxHitArray
PUBLIC	??1CSfxHitArray@@QAE@XZ				; CSfxHitArray::~CSfxHitArray
PUBLIC	?Add@CSfxHitArray@@QAEHHKKKH@Z			; CSfxHitArray::Add
PUBLIC	?GetSfxHit@CSfxHitArray@@QAEPAUtagSfxHit@@H@Z	; CSfxHitArray::GetSfxHit
PUBLIC	?RemoveSfxHit@CSfxHitArray@@QAEHHH@Z		; CSfxHitArray::RemoveSfxHit
PUBLIC	?FindSfxHit@CSfxHitArray@@AAEHH@Z		; CSfxHitArray::FindSfxHit
PUBLIC	?GetAt@CSfxHitArray@@AAEPAUtagSfxHit@@H@Z	; CSfxHitArray::GetAt
PUBLIC	?RemoveAt@CSfxHitArray@@AAEHHH@Z		; CSfxHitArray::RemoveAt
EXTRN	_memset:PROC
; Function compile flags: /Ogtp
; File C:\IAGOS\server\v18\Source\Source\WorldServer\SfxHitArray.cpp
;	COMDAT ?RemoveAt@CSfxHitArray@@AAEHHH@Z
_TEXT	SEGMENT
_nIndex$ = 8						; size = 4
tv138 = 8						; size = 4
_bForce$ = 12						; size = 4
?RemoveAt@CSfxHitArray@@AAEHHH@Z PROC			; CSfxHitArray::RemoveAt, COMDAT
; _this$ = ecx

; 47   : {

  00000	55		 push	 ebp
  00001	8b ec		 mov	 ebp, esp

; 48   : 	if( nIndex < 0 || nIndex >= nMaxSizeOfSfxHit )

  00003	8b 45 08	 mov	 eax, DWORD PTR _nIndex$[ebp]
  00006	83 f8 1f	 cmp	 eax, 31			; 0000001fH
  00009	77 27		 ja	 SHORT $LN3@RemoveAt

; 50   : 	if( m_aSfxHit[nIndex].id != 0 )

  0000b	8d 04 80	 lea	 eax, DWORD PTR [eax+eax*4]
  0000e	83 3c 81 00	 cmp	 DWORD PTR [ecx+eax*4], 0
  00012	8d 0c 81	 lea	 ecx, DWORD PTR [ecx+eax*4]
  00015	74 1b		 je	 SHORT $LN3@RemoveAt

; 51   : 	{
; 52   : 		if( --m_aSfxHit[nIndex].nMaxDmgCnt == 0 || bForce )		// Ä«żîĆ®¸¦ ±đ°í 0ŔĚ µĆŔ»¶§¸¸ żĎŔüČ÷ »čÁ¦.

  00017	83 41 10 ff	 add	 DWORD PTR [ecx+16], -1
  0001b	74 06		 je	 SHORT $LN6@RemoveAt
  0001d	83 7d 0c 00	 cmp	 DWORD PTR _bForce$[ebp], 0
  00021	74 06		 je	 SHORT $LN5@RemoveAt
$LN6@RemoveAt:

; 53   : 			m_aSfxHit[nIndex].id	= 0;

  00023	c7 01 00 00 00
	00		 mov	 DWORD PTR [ecx], 0
$LN5@RemoveAt:

; 54   : 		return( TRUE );

  00029	b8 01 00 00 00	 mov	 eax, 1

; 55   : 	}
; 56   : 	return( FALSE );
; 57   : }

  0002e	5d		 pop	 ebp
  0002f	c2 08 00	 ret	 8
$LN3@RemoveAt:

; 49   : 		return( FALSE ); 

  00032	33 c0		 xor	 eax, eax

; 55   : 	}
; 56   : 	return( FALSE );
; 57   : }

  00034	5d		 pop	 ebp
  00035	c2 08 00	 ret	 8
?RemoveAt@CSfxHitArray@@AAEHHH@Z ENDP			; CSfxHitArray::RemoveAt
_TEXT	ENDS
; Function compile flags: /Ogtp
; File C:\IAGOS\server\v18\Source\Source\WorldServer\SfxHitArray.cpp
;	COMDAT ?GetAt@CSfxHitArray@@AAEPAUtagSfxHit@@H@Z
_TEXT	SEGMENT
_nIndex$ = 8						; size = 4
?GetAt@CSfxHitArray@@AAEPAUtagSfxHit@@H@Z PROC		; CSfxHitArray::GetAt, COMDAT
; _this$ = ecx

; 38   : {

  00000	55		 push	 ebp
  00001	8b ec		 mov	 ebp, esp

; 39   : 	if( nIndex < 0 || nIndex >= nMaxSizeOfSfxHit )

  00003	8b 45 08	 mov	 eax, DWORD PTR _nIndex$[ebp]
  00006	83 f8 1f	 cmp	 eax, 31			; 0000001fH
  00009	77 0c		 ja	 SHORT $LN3@GetAt

; 41   : 	if( m_aSfxHit[nIndex].id != 0 )

  0000b	8d 04 80	 lea	 eax, DWORD PTR [eax+eax*4]
  0000e	83 3c 81 00	 cmp	 DWORD PTR [ecx+eax*4], 0
  00012	8d 04 81	 lea	 eax, DWORD PTR [ecx+eax*4]
  00015	75 02		 jne	 SHORT $LN1@GetAt
$LN3@GetAt:

; 40   : 		return( NULL );

  00017	33 c0		 xor	 eax, eax
$LN1@GetAt:

; 42   : 		return( &m_aSfxHit[nIndex] );
; 43   : 	return( NULL );
; 44   : }

  00019	5d		 pop	 ebp
  0001a	c2 04 00	 ret	 4
?GetAt@CSfxHitArray@@AAEPAUtagSfxHit@@H@Z ENDP		; CSfxHitArray::GetAt
_TEXT	ENDS
; Function compile flags: /Ogtp
; File C:\IAGOS\server\v18\Source\Source\WorldServer\SfxHitArray.cpp
;	COMDAT ?FindSfxHit@CSfxHitArray@@AAEHH@Z
_TEXT	SEGMENT
_id$ = 8						; size = 4
?FindSfxHit@CSfxHitArray@@AAEHH@Z PROC			; CSfxHitArray::FindSfxHit, COMDAT
; _this$ = ecx

; 60   : {

  00000	55		 push	 ebp
  00001	8b ec		 mov	 ebp, esp

; 61   : 	for( int i = 0; i < nMaxSizeOfSfxHit; i++ ) {

  00003	8b 55 08	 mov	 edx, DWORD PTR _id$[ebp]
  00006	33 c0		 xor	 eax, eax
$LL4@FindSfxHit:

; 62   : 		if( m_aSfxHit[i].id == id )

  00008	39 11		 cmp	 DWORD PTR [ecx], edx
  0000a	74 0c		 je	 SHORT $LN1@FindSfxHit

; 61   : 	for( int i = 0; i < nMaxSizeOfSfxHit; i++ ) {

  0000c	40		 inc	 eax
  0000d	83 c1 14	 add	 ecx, 20			; 00000014H
  00010	83 f8 20	 cmp	 eax, 32			; 00000020H
  00013	7c f3		 jl	 SHORT $LL4@FindSfxHit

; 63   : 			return( i );
; 64   : 	}
; 65   : 	return( -1 );

  00015	83 c8 ff	 or	 eax, -1
$LN1@FindSfxHit:

; 66   : }

  00018	5d		 pop	 ebp
  00019	c2 04 00	 ret	 4
?FindSfxHit@CSfxHitArray@@AAEHH@Z ENDP			; CSfxHitArray::FindSfxHit
_TEXT	ENDS
; Function compile flags: /Ogtp
; File C:\IAGOS\server\v18\Source\Source\WorldServer\SfxHitArray.cpp
;	COMDAT ?RemoveSfxHit@CSfxHitArray@@QAEHHH@Z
_TEXT	SEGMENT
_id$ = 8						; size = 4
_bForce$ = 12						; size = 4
?RemoveSfxHit@CSfxHitArray@@QAEHHH@Z PROC		; CSfxHitArray::RemoveSfxHit, COMDAT
; _this$ = ecx

; 77   : {

  00000	55		 push	 ebp
  00001	8b ec		 mov	 ebp, esp
  00003	56		 push	 esi

; 78   : 	int nIndex	= FindSfxHit( id );

  00004	ff 75 08	 push	 DWORD PTR _id$[ebp]
  00007	8b f1		 mov	 esi, ecx
  00009	e8 00 00 00 00	 call	 ?FindSfxHit@CSfxHitArray@@AAEHH@Z ; CSfxHitArray::FindSfxHit

; 79   : 	if( nIndex < 0 )

  0000e	85 c0		 test	 eax, eax
  00010	79 07		 jns	 SHORT $LN2@RemoveSfxH

; 80   : 		return( FALSE );

  00012	33 c0		 xor	 eax, eax
  00014	5e		 pop	 esi

; 82   : }

  00015	5d		 pop	 ebp
  00016	c2 08 00	 ret	 8
$LN2@RemoveSfxH:

; 81   : 	return RemoveAt( nIndex, bForce );

  00019	ff 75 0c	 push	 DWORD PTR _bForce$[ebp]
  0001c	8b ce		 mov	 ecx, esi
  0001e	50		 push	 eax
  0001f	e8 00 00 00 00	 call	 ?RemoveAt@CSfxHitArray@@AAEHHH@Z ; CSfxHitArray::RemoveAt
  00024	5e		 pop	 esi

; 82   : }

  00025	5d		 pop	 ebp
  00026	c2 08 00	 ret	 8
?RemoveSfxHit@CSfxHitArray@@QAEHHH@Z ENDP		; CSfxHitArray::RemoveSfxHit
_TEXT	ENDS
; Function compile flags: /Ogtp
; File C:\IAGOS\server\v18\Source\Source\WorldServer\SfxHitArray.cpp
;	COMDAT ?GetSfxHit@CSfxHitArray@@QAEPAUtagSfxHit@@H@Z
_TEXT	SEGMENT
_id$ = 8						; size = 4
?GetSfxHit@CSfxHitArray@@QAEPAUtagSfxHit@@H@Z PROC	; CSfxHitArray::GetSfxHit, COMDAT
; _this$ = ecx

; 69   : {

  00000	55		 push	 ebp
  00001	8b ec		 mov	 ebp, esp
  00003	56		 push	 esi

; 70   : 	int nIndex	= FindSfxHit( id );

  00004	ff 75 08	 push	 DWORD PTR _id$[ebp]
  00007	8b f1		 mov	 esi, ecx
  00009	e8 00 00 00 00	 call	 ?FindSfxHit@CSfxHitArray@@AAEHH@Z ; CSfxHitArray::FindSfxHit

; 71   : 	if( nIndex < 0 )

  0000e	85 c0		 test	 eax, eax
  00010	79 07		 jns	 SHORT $LN2@GetSfxHit

; 72   : 		return( NULL );

  00012	33 c0		 xor	 eax, eax
  00014	5e		 pop	 esi

; 74   : }

  00015	5d		 pop	 ebp
  00016	c2 04 00	 ret	 4
$LN2@GetSfxHit:

; 73   : 	return GetAt( nIndex );

  00019	50		 push	 eax
  0001a	8b ce		 mov	 ecx, esi
  0001c	e8 00 00 00 00	 call	 ?GetAt@CSfxHitArray@@AAEPAUtagSfxHit@@H@Z ; CSfxHitArray::GetAt
  00021	5e		 pop	 esi

; 74   : }

  00022	5d		 pop	 ebp
  00023	c2 04 00	 ret	 4
?GetSfxHit@CSfxHitArray@@QAEPAUtagSfxHit@@H@Z ENDP	; CSfxHitArray::GetSfxHit
_TEXT	ENDS
; Function compile flags: /Ogtp
; File C:\IAGOS\server\v18\Source\Source\WorldServer\SfxHitArray.cpp
;	COMDAT ?Add@CSfxHitArray@@QAEHHKKKH@Z
_TEXT	SEGMENT
_id$ = 8						; size = 4
_objid$ = 12						; size = 4
_dwAtkFlags$ = 16					; size = 4
_dwSkill$ = 20						; size = 4
_nMaxDmgCnt$ = 24					; size = 4
?Add@CSfxHitArray@@QAEHHKKKH@Z PROC			; CSfxHitArray::Add, COMDAT
; _this$ = ecx

; 16   : {

  00000	55		 push	 ebp
  00001	8b ec		 mov	 ebp, esp
  00003	56		 push	 esi

; 17   : 	if( id == 0 )	

  00004	8b 75 08	 mov	 esi, DWORD PTR _id$[ebp]
  00007	8b d1		 mov	 edx, ecx
  00009	85 f6		 test	 esi, esi
  0000b	75 0c		 jne	 SHORT $LN5@Add

; 18   : 		id	= ++m_id;

  0000d	ff 82 80 02 00
	00		 inc	 DWORD PTR [edx+640]
  00013	8b b2 80 02 00
	00		 mov	 esi, DWORD PTR [edx+640]
$LN5@Add:

; 19   : 
; 20   : 	for( int i = 0; i < nMaxSizeOfSfxHit; i++ )

  00019	33 c0		 xor	 eax, eax
  0001b	0f 1f 44 00 00	 npad	 5
$LL4@Add:

; 21   : 	{
; 22   : 		if( m_aSfxHit[i].id == 0 )

  00020	83 39 00	 cmp	 DWORD PTR [ecx], 0
  00023	74 21		 je	 SHORT $LN9@Add

; 19   : 
; 20   : 	for( int i = 0; i < nMaxSizeOfSfxHit; i++ )

  00025	40		 inc	 eax
  00026	83 c1 14	 add	 ecx, 20			; 00000014H
  00029	83 f8 20	 cmp	 eax, 32			; 00000020H
  0002c	7c f2		 jl	 SHORT $LL4@Add

; 30   : 		}
; 31   : 	}
; 32   : 
; 33   : 	memset( m_aSfxHit, 0, sizeof(m_aSfxHit) );	// ˛ËÂ÷Ľ­ ´őŔĚ»ó »çżë ¸řÇĎąÇ·Î ŔĎ´Ü Ĺ¬¸®ľî ÇŘÁÜ.

  0002e	68 80 02 00 00	 push	 640			; 00000280H
  00033	6a 00		 push	 0
  00035	52		 push	 edx
  00036	e8 00 00 00 00	 call	 _memset
  0003b	83 c4 0c	 add	 esp, 12			; 0000000cH

; 34   : 	return( -1 );

  0003e	83 c8 ff	 or	 eax, -1
  00041	5e		 pop	 esi

; 35   : }

  00042	5d		 pop	 ebp
  00043	c2 14 00	 ret	 20			; 00000014H
$LN9@Add:

; 23   : 		{
; 24   : 			m_aSfxHit[i].id		= id;
; 25   : 			m_aSfxHit[i].objid		= objid;

  00046	8b 4d 0c	 mov	 ecx, DWORD PTR _objid$[ebp]
  00049	8d 04 80	 lea	 eax, DWORD PTR [eax+eax*4]
  0004c	89 4c 82 04	 mov	 DWORD PTR [edx+eax*4+4], ecx

; 26   : 			m_aSfxHit[i].dwAtkFlags		= dwAtkFlags;

  00050	8b 4d 10	 mov	 ecx, DWORD PTR _dwAtkFlags$[ebp]
  00053	89 4c 82 08	 mov	 DWORD PTR [edx+eax*4+8], ecx

; 27   : 			m_aSfxHit[i].dwSkill = dwSkill;

  00057	8b 4d 14	 mov	 ecx, DWORD PTR _dwSkill$[ebp]
  0005a	89 4c 82 0c	 mov	 DWORD PTR [edx+eax*4+12], ecx

; 28   : 			m_aSfxHit[i].nMaxDmgCnt = nMaxDmgCnt;

  0005e	8b 4d 18	 mov	 ecx, DWORD PTR _nMaxDmgCnt$[ebp]
  00061	89 34 82	 mov	 DWORD PTR [edx+eax*4], esi
  00064	89 4c 82 10	 mov	 DWORD PTR [edx+eax*4+16], ecx

; 29   : 			return( id );

  00068	8b c6		 mov	 eax, esi
  0006a	5e		 pop	 esi

; 35   : }

  0006b	5d		 pop	 ebp
  0006c	c2 14 00	 ret	 20			; 00000014H
?Add@CSfxHitArray@@QAEHHKKKH@Z ENDP			; CSfxHitArray::Add
_TEXT	ENDS
; Function compile flags: /Ogtp
; File C:\IAGOS\server\v18\Source\Source\WorldServer\SfxHitArray.cpp
;	COMDAT ??1CSfxHitArray@@QAE@XZ
_TEXT	SEGMENT
??1CSfxHitArray@@QAE@XZ PROC				; CSfxHitArray::~CSfxHitArray, COMDAT
; _this$ = ecx

; 12   : 
; 13   : }

  00000	c2 00 00	 ret	 0
??1CSfxHitArray@@QAE@XZ ENDP				; CSfxHitArray::~CSfxHitArray
_TEXT	ENDS
; Function compile flags: /Ogtp
; File C:\IAGOS\server\v18\Source\Source\WorldServer\SfxHitArray.cpp
;	COMDAT ??0CSfxHitArray@@QAE@XZ
_TEXT	SEGMENT
??0CSfxHitArray@@QAE@XZ PROC				; CSfxHitArray::CSfxHitArray, COMDAT
; _this$ = ecx

; 5    : {

  00000	56		 push	 esi
  00001	8b f1		 mov	 esi, ecx

; 6    : 	m_id	= 0;
; 7    : 	memset( m_aSfxHit, 0, sizeof(SfxHit) * nMaxSizeOfSfxHit );

  00003	68 80 02 00 00	 push	 640			; 00000280H
  00008	6a 00		 push	 0
  0000a	56		 push	 esi
  0000b	c7 86 80 02 00
	00 00 00 00 00	 mov	 DWORD PTR [esi+640], 0
  00015	e8 00 00 00 00	 call	 _memset
  0001a	83 c4 0c	 add	 esp, 12			; 0000000cH

; 8    : }

  0001d	8b c6		 mov	 eax, esi
  0001f	5e		 pop	 esi
  00020	c3		 ret	 0
??0CSfxHitArray@@QAE@XZ ENDP				; CSfxHitArray::CSfxHitArray
_TEXT	ENDS
; Function compile flags: /Ogtp
; File C:\IAGOS\server\v18\Source\Source\WorldServer\SfxHitArray.cpp
;	COMDAT ?__empty_global_delete@@YAXPAXI@Z
_TEXT	SEGMENT
___formal$ = 8						; size = 4
___formal$ = 12						; size = 4
?__empty_global_delete@@YAXPAXI@Z PROC			; __empty_global_delete, COMDAT

  00000	c2 00 00	 ret	 0
?__empty_global_delete@@YAXPAXI@Z ENDP			; __empty_global_delete
_TEXT	ENDS
; Function compile flags: /Ogtp
; File C:\IAGOS\server\v18\Source\Source\WorldServer\SfxHitArray.cpp
;	COMDAT ?__empty_global_delete@@YAXPAX@Z
_TEXT	SEGMENT
___formal$ = 8						; size = 4
?__empty_global_delete@@YAXPAX@Z PROC			; __empty_global_delete, COMDAT

  00000	c2 00 00	 ret	 0
?__empty_global_delete@@YAXPAX@Z ENDP			; __empty_global_delete
_TEXT	ENDS
END
