; Listing generated by Microsoft (R) Optimizing Compiler Version 19.44.35225.0 

	TITLE	C:\IAGOS\server\v18\Source\Output\WorldServer\Release\Ship.obj
	.686P
	.XMM
	include listing.inc
	.model	flat

INCLUDELIB LIBCMT
INCLUDELIB OLDNAMES

CONST	SEGMENT
?piecewise_construct@std@@3Upiecewise_construct_t@1@B	ORG $+1 ; std::piecewise_construct
CONST	ENDS
PUBLIC	?__empty_global_delete@@YAXPAX@Z		; __empty_global_delete
PUBLIC	?__empty_global_delete@@YAXPAXI@Z		; __empty_global_delete
PUBLIC	??0D3DXVECTOR3@@QAE@XZ				; D3DXVECTOR3::D3DXVECTOR3
PUBLIC	?SetMotion@CObj@@UAEHKHK@Z			; CObj::SetMotion
PUBLIC	?InitMotion@CObj@@UAEHK@Z			; CObj::InitMotion
PUBLIC	?GetName@CObj@@UAEPBDXZ				; CObj::GetName
PUBLIC	?SetIndex@CObj@@UAEHPAUIDirect3DDevice9@@KH@Z	; CObj::SetIndex
PUBLIC	?SendDamage@CCtrl@@UAEHKKHH@Z			; CCtrl::SendDamage
PUBLIC	?SendDamageForce@CCtrl@@UAEHKKHH@Z		; CCtrl::SendDamageForce
PUBLIC	?Init@CShip@@MAEXXZ				; CShip::Init
PUBLIC	?Destroy@CShip@@MAEXXZ				; CShip::Destroy
PUBLIC	??0CShip@@QAE@XZ				; CShip::CShip
PUBLIC	??1CShip@@UAE@XZ				; CShip::~CShip
PUBLIC	?AddCtrl@CShip@@QAEXK@Z				; CShip::AddCtrl
PUBLIC	?FindCtrl@CShip@@QAEPAKK@Z			; CShip::FindCtrl
PUBLIC	?RemoveCtrl@CShip@@QAEXK@Z			; CShip::RemoveCtrl
PUBLIC	?Control@CShip@@QAEXXZ				; CShip::Control
PUBLIC	?Process@CShip@@UAEXXZ				; CShip::Process
PUBLIC	??_GCShip@@UAEPAXI@Z				; CShip::`scalar deleting destructor'
PUBLIC	?Init@CShipLoop@@MAEXXZ				; CShipLoop::Init
PUBLIC	?Destroy@CShipLoop@@MAEXXZ			; CShipLoop::Destroy
PUBLIC	??0CShipLoop@@QAE@XZ				; CShipLoop::CShipLoop
PUBLIC	??1CShipLoop@@UAE@XZ				; CShipLoop::~CShipLoop
PUBLIC	?Process@CShipLoop@@UAEXXZ			; CShipLoop::Process
PUBLIC	??_GCShipLoop@@UAEPAXI@Z			; CShipLoop::`scalar deleting destructor'
PUBLIC	??_C@_05CJBACGMB@hello@				; `string'
PUBLIC	??_7CShip@@6B@					; CShip::`vftable'
PUBLIC	??_7CShipLoop@@6B@				; CShipLoop::`vftable'
PUBLIC	??_C@_0BK@EINDJDBL@CShip?3?3AddCtrl?5?3?5Add?$LN?G?F?P?4@ ; `string'
PUBLIC	??_R4CShip@@6B@					; CShip::`RTTI Complete Object Locator'
PUBLIC	??_R0?AVCShip@@@8				; CShip `RTTI Type Descriptor'
PUBLIC	??_R3CShip@@8					; CShip::`RTTI Class Hierarchy Descriptor'
PUBLIC	??_R2CShip@@8					; CShip::`RTTI Base Class Array'
PUBLIC	??_R1A@?0A@EA@CShip@@8				; CShip::`RTTI Base Class Descriptor at (0,-1,0,64)'
PUBLIC	??_R1A@?0A@EA@CCtrl@@8				; CCtrl::`RTTI Base Class Descriptor at (0,-1,0,64)'
PUBLIC	??_R0?AVCCtrl@@@8				; CCtrl `RTTI Type Descriptor'
PUBLIC	??_R3CCtrl@@8					; CCtrl::`RTTI Class Hierarchy Descriptor'
PUBLIC	??_R2CCtrl@@8					; CCtrl::`RTTI Base Class Array'
PUBLIC	??_R1A@?0A@EA@CObj@@8				; CObj::`RTTI Base Class Descriptor at (0,-1,0,64)'
PUBLIC	??_R0?AVCObj@@@8				; CObj `RTTI Type Descriptor'
PUBLIC	??_R3CObj@@8					; CObj::`RTTI Class Hierarchy Descriptor'
PUBLIC	??_R2CObj@@8					; CObj::`RTTI Base Class Array'
PUBLIC	??_R4CShipLoop@@6B@				; CShipLoop::`RTTI Complete Object Locator'
PUBLIC	??_R0?AVCShipLoop@@@8				; CShipLoop `RTTI Type Descriptor'
PUBLIC	??_R3CShipLoop@@8				; CShipLoop::`RTTI Class Hierarchy Descriptor'
PUBLIC	??_R2CShipLoop@@8				; CShipLoop::`RTTI Base Class Array'
PUBLIC	??_R1A@?0A@EA@CShipLoop@@8			; CShipLoop::`RTTI Base Class Descriptor at (0,-1,0,64)'
PUBLIC	__real@00000000
PUBLIC	__real@3c8efa35
PUBLIC	__real@3d4ccccd
PUBLIC	__real@3d8f5c29
PUBLIC	__real@3f7d2f1b
PUBLIC	__xmm@80000000800000008000000080000000
EXTRN	??3@YAXPAXI@Z:PROC				; operator delete
EXTRN	_D3DXMatrixInverse@12:PROC
EXTRN	?Error@@YAPBDPBDZZ:PROC				; Error
EXTRN	?LoadModel@CObj@@UAEPAVCModel@@PAUIDirect3DDevice9@@KK@Z:PROC ; CObj::LoadModel
EXTRN	?InitProp@CObj@@UAEXH@Z:PROC			; CObj::InitProp
EXTRN	?RenderName@CObj@@UAEXPAUIDirect3DDevice9@@PAVCD3DFont@@K@Z:PROC ; CObj::RenderName
EXTRN	?UpdateLocalMatrix@CObj@@QAEXXZ:PROC		; CObj::UpdateLocalMatrix
EXTRN	?SetTypeIndex@CObj@@QAEHPAUIDirect3DDevice9@@KKH@Z:PROC ; CObj::SetTypeIndex
EXTRN	?SetPos@CObj@@QAEXABUD3DXVECTOR3@@@Z:PROC	; CObj::SetPos
EXTRN	?SetAngle@CObj@@QAEXM@Z:PROC			; CObj::SetAngle
EXTRN	??0CCtrl@@QAE@XZ:PROC				; CCtrl::CCtrl
EXTRN	??1CCtrl@@UAE@XZ:PROC				; CCtrl::~CCtrl
EXTRN	?GetSkillProp@CCtrl@@UAEHPAPAUItemProp@@PAPAUAddSkillProp@@HKPBD@Z:PROC ; CCtrl::GetSkillProp
EXTRN	?AddItToGlobalId@CCtrl@@UAEXXZ:PROC		; CCtrl::AddItToGlobalId
EXTRN	?RemoveItFromGlobalId@CCtrl@@UAEXXZ:PROC	; CCtrl::RemoveItFromGlobalId
EXTRN	?Render@CCtrl@@UAEXPAUIDirect3DDevice9@@@Z:PROC	; CCtrl::Render
EXTRN	?Read@CCtrl@@UAEHPAVCFileIO@@@Z:PROC		; CCtrl::Read
EXTRN	?Serialize@CCtrl@@UAEXAAVCAr@@@Z:PROC		; CCtrl::Serialize
EXTRN	?GetCtrl@CProject@@QAEPAVCCtrl@@K@Z:PROC	; CProject::GetCtrl
EXTRN	??0CActionShip@@QAE@XZ:PROC			; CActionShip::CActionShip
EXTRN	??1CActionShip@@UAE@XZ:PROC			; CActionShip::~CActionShip
EXTRN	?Process@CActionShip@@QAEHXZ:PROC		; CActionShip::Process
EXTRN	??_ECShip@@UAEPAXI@Z:PROC			; CShip::`vector deleting destructor'
EXTRN	??_ECShipLoop@@UAEPAXI@Z:PROC			; CShipLoop::`vector deleting destructor'
EXTRN	?AddSetPosAngle@CUserMng@@QAEXPAVCCtrl@@ABUD3DXVECTOR3@@M@Z:PROC ; CUserMng::AddSetPosAngle
EXTRN	@__security_check_cookie@4:PROC
EXTRN	___CxxFrameHandler3:PROC
EXTRN	__libm_sse2_cos_precise:PROC
EXTRN	__libm_sse2_sin_precise:PROC
EXTRN	_memset:PROC
EXTRN	??_7type_info@@6B@:QWORD			; type_info::`vftable'
EXTRN	?prj@@3VCProject@@A:BYTE			; prj
EXTRN	?g_UserMng@@3VCUserMng@@A:BYTE			; g_UserMng
EXTRN	___security_cookie:DWORD
EXTRN	__fltused:DWORD
;	COMDAT __xmm@80000000800000008000000080000000
CONST	SEGMENT
__xmm@80000000800000008000000080000000 DB 00H, 00H, 00H, 080H, 00H, 00H, 00H
	DB	080H, 00H, 00H, 00H, 080H, 00H, 00H, 00H, 080H
CONST	ENDS
;	COMDAT __real@3f7d2f1b
CONST	SEGMENT
__real@3f7d2f1b DD 03f7d2f1br			; 0.989
CONST	ENDS
;	COMDAT __real@3d8f5c29
CONST	SEGMENT
__real@3d8f5c29 DD 03d8f5c29r			; 0.07
CONST	ENDS
;	COMDAT __real@3d4ccccd
CONST	SEGMENT
__real@3d4ccccd DD 03d4ccccdr			; 0.05
CONST	ENDS
;	COMDAT __real@3c8efa35
CONST	SEGMENT
__real@3c8efa35 DD 03c8efa35r			; 0.0174533
CONST	ENDS
;	COMDAT __real@00000000
CONST	SEGMENT
__real@00000000 DD 000000000r			; 0
CONST	ENDS
;	COMDAT ??_R1A@?0A@EA@CShipLoop@@8
rdata$r	SEGMENT
??_R1A@?0A@EA@CShipLoop@@8 DD FLAT:??_R0?AVCShipLoop@@@8 ; CShipLoop::`RTTI Base Class Descriptor at (0,-1,0,64)'
	DD	03H
	DD	00H
	DD	0ffffffffH
	DD	00H
	DD	040H
	DD	FLAT:??_R3CShipLoop@@8
rdata$r	ENDS
;	COMDAT ??_R2CShipLoop@@8
rdata$r	SEGMENT
??_R2CShipLoop@@8 DD FLAT:??_R1A@?0A@EA@CShipLoop@@8	; CShipLoop::`RTTI Base Class Array'
	DD	FLAT:??_R1A@?0A@EA@CShip@@8
	DD	FLAT:??_R1A@?0A@EA@CCtrl@@8
	DD	FLAT:??_R1A@?0A@EA@CObj@@8
rdata$r	ENDS
;	COMDAT ??_R3CShipLoop@@8
rdata$r	SEGMENT
??_R3CShipLoop@@8 DD 00H				; CShipLoop::`RTTI Class Hierarchy Descriptor'
	DD	00H
	DD	04H
	DD	FLAT:??_R2CShipLoop@@8
rdata$r	ENDS
;	COMDAT ??_R0?AVCShipLoop@@@8
data$rs	SEGMENT
??_R0?AVCShipLoop@@@8 DD FLAT:??_7type_info@@6B@	; CShipLoop `RTTI Type Descriptor'
	DD	00H
	DB	'.?AVCShipLoop@@', 00H
data$rs	ENDS
;	COMDAT ??_R4CShipLoop@@6B@
rdata$r	SEGMENT
??_R4CShipLoop@@6B@ DD 00H				; CShipLoop::`RTTI Complete Object Locator'
	DD	00H
	DD	00H
	DD	FLAT:??_R0?AVCShipLoop@@@8
	DD	FLAT:??_R3CShipLoop@@8
rdata$r	ENDS
;	COMDAT ??_R2CObj@@8
rdata$r	SEGMENT
??_R2CObj@@8 DD	FLAT:??_R1A@?0A@EA@CObj@@8		; CObj::`RTTI Base Class Array'
rdata$r	ENDS
;	COMDAT ??_R3CObj@@8
rdata$r	SEGMENT
??_R3CObj@@8 DD	00H					; CObj::`RTTI Class Hierarchy Descriptor'
	DD	00H
	DD	01H
	DD	FLAT:??_R2CObj@@8
rdata$r	ENDS
;	COMDAT ??_R0?AVCObj@@@8
data$rs	SEGMENT
??_R0?AVCObj@@@8 DD FLAT:??_7type_info@@6B@		; CObj `RTTI Type Descriptor'
	DD	00H
	DB	'.?AVCObj@@', 00H
data$rs	ENDS
;	COMDAT ??_R1A@?0A@EA@CObj@@8
rdata$r	SEGMENT
??_R1A@?0A@EA@CObj@@8 DD FLAT:??_R0?AVCObj@@@8		; CObj::`RTTI Base Class Descriptor at (0,-1,0,64)'
	DD	00H
	DD	00H
	DD	0ffffffffH
	DD	00H
	DD	040H
	DD	FLAT:??_R3CObj@@8
rdata$r	ENDS
;	COMDAT ??_R2CCtrl@@8
rdata$r	SEGMENT
??_R2CCtrl@@8 DD FLAT:??_R1A@?0A@EA@CCtrl@@8		; CCtrl::`RTTI Base Class Array'
	DD	FLAT:??_R1A@?0A@EA@CObj@@8
rdata$r	ENDS
;	COMDAT ??_R3CCtrl@@8
rdata$r	SEGMENT
??_R3CCtrl@@8 DD 00H					; CCtrl::`RTTI Class Hierarchy Descriptor'
	DD	00H
	DD	02H
	DD	FLAT:??_R2CCtrl@@8
rdata$r	ENDS
;	COMDAT ??_R0?AVCCtrl@@@8
data$rs	SEGMENT
??_R0?AVCCtrl@@@8 DD FLAT:??_7type_info@@6B@		; CCtrl `RTTI Type Descriptor'
	DD	00H
	DB	'.?AVCCtrl@@', 00H
data$rs	ENDS
;	COMDAT ??_R1A@?0A@EA@CCtrl@@8
rdata$r	SEGMENT
??_R1A@?0A@EA@CCtrl@@8 DD FLAT:??_R0?AVCCtrl@@@8	; CCtrl::`RTTI Base Class Descriptor at (0,-1,0,64)'
	DD	01H
	DD	00H
	DD	0ffffffffH
	DD	00H
	DD	040H
	DD	FLAT:??_R3CCtrl@@8
rdata$r	ENDS
;	COMDAT ??_R1A@?0A@EA@CShip@@8
rdata$r	SEGMENT
??_R1A@?0A@EA@CShip@@8 DD FLAT:??_R0?AVCShip@@@8	; CShip::`RTTI Base Class Descriptor at (0,-1,0,64)'
	DD	02H
	DD	00H
	DD	0ffffffffH
	DD	00H
	DD	040H
	DD	FLAT:??_R3CShip@@8
rdata$r	ENDS
;	COMDAT ??_R2CShip@@8
rdata$r	SEGMENT
??_R2CShip@@8 DD FLAT:??_R1A@?0A@EA@CShip@@8		; CShip::`RTTI Base Class Array'
	DD	FLAT:??_R1A@?0A@EA@CCtrl@@8
	DD	FLAT:??_R1A@?0A@EA@CObj@@8
rdata$r	ENDS
;	COMDAT ??_R3CShip@@8
rdata$r	SEGMENT
??_R3CShip@@8 DD 00H					; CShip::`RTTI Class Hierarchy Descriptor'
	DD	00H
	DD	03H
	DD	FLAT:??_R2CShip@@8
rdata$r	ENDS
;	COMDAT ??_R0?AVCShip@@@8
data$rs	SEGMENT
??_R0?AVCShip@@@8 DD FLAT:??_7type_info@@6B@		; CShip `RTTI Type Descriptor'
	DD	00H
	DB	'.?AVCShip@@', 00H
data$rs	ENDS
;	COMDAT ??_R4CShip@@6B@
rdata$r	SEGMENT
??_R4CShip@@6B@ DD 00H					; CShip::`RTTI Complete Object Locator'
	DD	00H
	DD	00H
	DD	FLAT:??_R0?AVCShip@@@8
	DD	FLAT:??_R3CShip@@8
rdata$r	ENDS
;	COMDAT ??_C@_0BK@EINDJDBL@CShip?3?3AddCtrl?5?3?5Add?$LN?G?F?P?4@
CONST	SEGMENT
??_C@_0BK@EINDJDBL@CShip?3?3AddCtrl?5?3?5Add?$LN?G?F?P?4@ DB 'CShip::AddC'
	DB	'trl : Add', 0bdH, 0c7H, 0c6H, 0d0H, '.', 00H ; `string'
CONST	ENDS
;	COMDAT ??_7CShipLoop@@6B@
CONST	SEGMENT
??_7CShipLoop@@6B@ DD FLAT:??_R4CShipLoop@@6B@		; CShipLoop::`vftable'
	DD	FLAT:??_ECShipLoop@@UAEPAXI@Z
	DD	FLAT:?SetMotion@CObj@@UAEHKHK@Z
	DD	FLAT:?InitMotion@CObj@@UAEHK@Z
	DD	FLAT:?LoadModel@CObj@@UAEPAVCModel@@PAUIDirect3DDevice9@@KK@Z
	DD	FLAT:?InitProp@CObj@@UAEXH@Z
	DD	FLAT:?GetName@CObj@@UAEPBDXZ
	DD	FLAT:?Process@CShipLoop@@UAEXXZ
	DD	FLAT:?Read@CCtrl@@UAEHPAVCFileIO@@@Z
	DD	FLAT:?Serialize@CCtrl@@UAEXAAVCAr@@@Z
	DD	FLAT:?Render@CCtrl@@UAEXPAUIDirect3DDevice9@@@Z
	DD	FLAT:?RenderName@CObj@@UAEXPAUIDirect3DDevice9@@PAVCD3DFont@@K@Z
	DD	FLAT:?SetIndex@CObj@@UAEHPAUIDirect3DDevice9@@KH@Z
	DD	FLAT:?GetSkillProp@CCtrl@@UAEHPAPAUItemProp@@PAPAUAddSkillProp@@HKPBD@Z
	DD	FLAT:?SendDamage@CCtrl@@UAEHKKHH@Z
	DD	FLAT:?SendDamageForce@CCtrl@@UAEHKKHH@Z
	DD	FLAT:?AddItToGlobalId@CCtrl@@UAEXXZ
	DD	FLAT:?RemoveItFromGlobalId@CCtrl@@UAEXXZ
	DD	FLAT:?Init@CShipLoop@@MAEXXZ
	DD	FLAT:?Destroy@CShipLoop@@MAEXXZ
CONST	ENDS
;	COMDAT ??_7CShip@@6B@
CONST	SEGMENT
??_7CShip@@6B@ DD FLAT:??_R4CShip@@6B@			; CShip::`vftable'
	DD	FLAT:??_ECShip@@UAEPAXI@Z
	DD	FLAT:?SetMotion@CObj@@UAEHKHK@Z
	DD	FLAT:?InitMotion@CObj@@UAEHK@Z
	DD	FLAT:?LoadModel@CObj@@UAEPAVCModel@@PAUIDirect3DDevice9@@KK@Z
	DD	FLAT:?InitProp@CObj@@UAEXH@Z
	DD	FLAT:?GetName@CObj@@UAEPBDXZ
	DD	FLAT:?Process@CShip@@UAEXXZ
	DD	FLAT:?Read@CCtrl@@UAEHPAVCFileIO@@@Z
	DD	FLAT:?Serialize@CCtrl@@UAEXAAVCAr@@@Z
	DD	FLAT:?Render@CCtrl@@UAEXPAUIDirect3DDevice9@@@Z
	DD	FLAT:?RenderName@CObj@@UAEXPAUIDirect3DDevice9@@PAVCD3DFont@@K@Z
	DD	FLAT:?SetIndex@CObj@@UAEHPAUIDirect3DDevice9@@KH@Z
	DD	FLAT:?GetSkillProp@CCtrl@@UAEHPAPAUItemProp@@PAPAUAddSkillProp@@HKPBD@Z
	DD	FLAT:?SendDamage@CCtrl@@UAEHKKHH@Z
	DD	FLAT:?SendDamageForce@CCtrl@@UAEHKKHH@Z
	DD	FLAT:?AddItToGlobalId@CCtrl@@UAEXXZ
	DD	FLAT:?RemoveItFromGlobalId@CCtrl@@UAEXXZ
	DD	FLAT:?Init@CShip@@MAEXXZ
	DD	FLAT:?Destroy@CShip@@MAEXXZ
CONST	ENDS
;	COMDAT ??_C@_05CJBACGMB@hello@
CONST	SEGMENT
??_C@_05CJBACGMB@hello@ DB 'hello', 00H			; `string'
CONST	ENDS
;	COMDAT xdata$x
xdata$x	SEGMENT
__ehfuncinfo$??1CShipLoop@@UAE@XZ DD 019930522H
	DD	00H
	DD	00H
	DD	2 DUP(00H)
	DD	2 DUP(00H)
	DD	00H
	DD	05H
xdata$x	ENDS
;	COMDAT xdata$x
xdata$x	SEGMENT
__ehfuncinfo$??1CShip@@UAE@XZ DD 019930522H
	DD	00H
	DD	00H
	DD	2 DUP(00H)
	DD	2 DUP(00H)
	DD	00H
	DD	05H
xdata$x	ENDS
;	COMDAT xdata$x
xdata$x	SEGMENT
__unwindtable$??0CShip@@QAE@XZ DD 0ffffffffH
	DD	FLAT:__unwindfunclet$??0CShip@@QAE@XZ$0
__ehfuncinfo$??0CShip@@QAE@XZ DD 019930522H
	DD	01H
	DD	FLAT:__unwindtable$??0CShip@@QAE@XZ
	DD	2 DUP(00H)
	DD	2 DUP(00H)
	DD	00H
	DD	01H
xdata$x	ENDS
; Function compile flags: /Ogtp
;	COMDAT ??_GCShipLoop@@UAEPAXI@Z
_TEXT	SEGMENT
___flags$ = 8						; size = 4
??_GCShipLoop@@UAEPAXI@Z PROC				; CShipLoop::`scalar deleting destructor', COMDAT
; _this$ = ecx
  00000	55		 push	 ebp
  00001	8b ec		 mov	 ebp, esp
  00003	56		 push	 esi
  00004	8b f1		 mov	 esi, ecx
  00006	e8 00 00 00 00	 call	 ??1CShipLoop@@UAE@XZ	; CShipLoop::~CShipLoop
  0000b	f6 45 08 01	 test	 BYTE PTR ___flags$[ebp], 1
  0000f	74 0e		 je	 SHORT $LN5@scalar
  00011	68 a8 04 00 00	 push	 1192			; 000004a8H
  00016	56		 push	 esi
  00017	e8 00 00 00 00	 call	 ??3@YAXPAXI@Z		; operator delete
  0001c	83 c4 08	 add	 esp, 8
$LN5@scalar:
  0001f	8b c6		 mov	 eax, esi
  00021	5e		 pop	 esi
  00022	5d		 pop	 ebp
  00023	c2 04 00	 ret	 4
??_GCShipLoop@@UAEPAXI@Z ENDP				; CShipLoop::`scalar deleting destructor'
_TEXT	ENDS
; Function compile flags: /Ogtp
; File C:\IAGOS\server\v18\Source\Source\_Common\Ship.cpp
; File C:\IAGOS\server\v18\Source\Source\_Common\Obj.h
; File C:\IAGOS\server\v18\Source\Source\_Common\Ship.cpp
; File C:\IAGOS\server\v18\Source\Source\_Common\Obj.h
; File C:\IAGOS\server\v18\Source\Source\_Common\Ship.cpp
; File C:\IAGOS\server\v18\Source\Source\_Common\Obj.h
; File C:\IAGOS\server\v18\Source\Source\_Common\Ship.cpp
; File C:\IAGOS\server\v18\Source\Source\_Common\XUtil3D.h
; File C:\Program Files (x86)\Windows Kits\10\Include\10.0.26100.0\ucrt\corecrt_math.h
; File C:\IAGOS\server\v18\Source\Source\_Common\XUtil3D.h
; File C:\Program Files (x86)\Windows Kits\10\Include\10.0.26100.0\ucrt\corecrt_math.h
; File C:\IAGOS\server\v18\Source\Source\DX_SDK\d3dx9math.inl
; File C:\Program Files (x86)\Windows Kits\10\Include\10.0.26100.0\ucrt\corecrt_math.h
; File C:\IAGOS\server\v18\Source\Source\DX_SDK\d3dx9math.inl
; File C:\IAGOS\server\v18\Source\Source\_Common\XUtil3D.h
; File C:\IAGOS\server\v18\Source\Source\DX_SDK\d3dx9math.inl
; File C:\Program Files (x86)\Windows Kits\10\Include\10.0.26100.0\ucrt\corecrt_math.h
; File C:\IAGOS\server\v18\Source\Source\_Common\Ship.cpp
; File C:\IAGOS\server\v18\Source\Source\_Common\XUtil3D.h
; File C:\IAGOS\server\v18\Source\Source\DX_SDK\d3dx9math.inl
; File C:\IAGOS\server\v18\Source\Source\_Common\XUtil3D.h
; File C:\IAGOS\server\v18\Source\Source\DX_SDK\d3dx9math.inl
; File C:\IAGOS\server\v18\Source\Source\_Common\Ship.cpp
; File C:\IAGOS\server\v18\Source\Source\DX_SDK\d3dx9math.inl
; File C:\IAGOS\server\v18\Source\Source\_Common\Ship.cpp
; File C:\IAGOS\server\v18\Source\Source\DX_SDK\d3dx9math.inl
; File C:\IAGOS\server\v18\Source\Source\_Common\Ship.cpp
; File C:\IAGOS\server\v18\Source\Source\_Common\Obj.h
; File C:\IAGOS\server\v18\Source\Source\_Common\Ship.cpp
; File C:\IAGOS\server\v18\Source\Source\_Common\Obj.h
; File C:\IAGOS\server\v18\Source\Source\_Common\Ship.cpp
; File C:\IAGOS\server\v18\Source\Source\_Common\Obj.h
; File C:\IAGOS\server\v18\Source\Source\_Common\Ship.cpp
; File C:\IAGOS\server\v18\Source\Source\_Common\Obj.h
; File C:\IAGOS\server\v18\Source\Source\_Common\Ship.cpp
; File C:\IAGOS\server\v18\Source\Source\_Common\Obj.h
; File C:\IAGOS\server\v18\Source\Source\_Common\Ship.cpp
; File C:\IAGOS\server\v18\Source\Source\_Common\Obj.h
; File C:\IAGOS\server\v18\Source\Source\_Common\Ship.cpp
; File C:\IAGOS\server\v18\Source\Source\_Common\Obj.h
; File C:\IAGOS\server\v18\Source\Source\_Common\Ship.cpp
; File C:\IAGOS\server\v18\Source\Source\_Common\Obj.h
; File C:\IAGOS\server\v18\Source\Source\_Common\Ship.cpp
;	COMDAT ?Process@CShipLoop@@UAEXXZ
_TEXT	SEGMENT
tv573 = -48						; size = 4
$T1 = -44						; size = 4
$T2 = -40						; size = 4
$T3 = -36						; size = 4
_fAng$1$ = -32						; size = 4
tv625 = -32						; size = 4
$T4 = -28						; size = 12
$T5 = -28						; size = 12
tv605 = -24						; size = 8
_vPos$ = -16						; size = 12
__$ArrayPad$ = -4					; size = 4
?Process@CShipLoop@@UAEXXZ PROC				; CShipLoop::Process, COMDAT
; _this$ = ecx

; 225  : {

  00000	55		 push	 ebp
  00001	8b ec		 mov	 ebp, esp
  00003	83 ec 30	 sub	 esp, 48			; 00000030H
  00006	a1 00 00 00 00	 mov	 eax, DWORD PTR ___security_cookie
  0000b	33 c5		 xor	 eax, ebp
  0000d	89 45 fc	 mov	 DWORD PTR __$ArrayPad$[ebp], eax
  00010	56		 push	 esi
  00011	8b f1		 mov	 esi, ecx
  00013	57		 push	 edi

; 226  : 	D3DXMatrixInverse( GetInvTM(), NULL, &m_matWorld );		// СТЧЅКЏШЏРЬ РЬЗяСіБтРќ ИХЦЎИЏНКЗЮ ПЊЧрЗФРЛ БИЧиГіОп ЧбДй.

  00014	8d 86 e4 00 00
	00		 lea	 eax, DWORD PTR [esi+228]
  0001a	50		 push	 eax
  0001b	6a 00		 push	 0
  0001d	8d 86 c4 01 00
	00		 lea	 eax, DWORD PTR [esi+452]
  00023	50		 push	 eax
  00024	e8 00 00 00 00	 call	 _D3DXMatrixInverse@12
; File C:\IAGOS\server\v18\Source\Source\_Common\Obj.h

; 215  : 	D3DXVECTOR3		GetPos()	{ return m_vPos; }

  00029	f3 0f 7e 86 60
	01 00 00	 movq	 xmm0, QWORD PTR [esi+352]
  00031	0f 57 c9	 xorps	 xmm1, xmm1
  00034	8b 86 68 01 00
	00		 mov	 eax, DWORD PTR [esi+360]
; File C:\IAGOS\server\v18\Source\Source\_Common\Ship.cpp

; 225  : {

  0003a	bf 04 00 00 00	 mov	 edi, 4
; File C:\IAGOS\server\v18\Source\Source\_Common\Obj.h

; 215  : 	D3DXVECTOR3		GetPos()	{ return m_vPos; }

  0003f	66 0f d6 45 f0	 movq	 QWORD PTR _vPos$[ebp], xmm0
; File C:\IAGOS\server\v18\Source\Source\_Common\Ship.cpp

; 230  : 	FLOAT fAng = GetAngle();

  00044	f3 0f 10 46 18	 movss	 xmm0, DWORD PTR [esi+24]
; File C:\IAGOS\server\v18\Source\Source\_Common\Obj.h

; 215  : 	D3DXVECTOR3		GetPos()	{ return m_vPos; }

  00049	89 45 f8	 mov	 DWORD PTR _vPos$[ebp+8], eax
; File C:\IAGOS\server\v18\Source\Source\_Common\Ship.cpp

; 233  : 	m_fDeltaAng = 0.07f;

  0004c	c7 86 a0 02 00
	00 29 5c 8f 3d	 mov	 DWORD PTR [esi+672], 1032805417 ; 3d8f5c29H
  00056	f3 0f 11 4d dc	 movss	 DWORD PTR $T3[ebp], xmm1
  0005b	f3 0f 11 4d d8	 movss	 DWORD PTR $T2[ebp], xmm1
  00060	f3 0f 11 4d d4	 movss	 DWORD PTR $T1[ebp], xmm1
  00065	66 66 66 0f 1f
	84 00 00 00 00
	00		 npad	 11
$LL4@Process:

; 237  : #endif	
; 238  : 	{
; 239  : 		fAng += m_fDeltaAng;		// ПоТЪРИЗЮ АшМг ШИРќ

  00070	f3 0f 58 05 00
	00 00 00	 addss	 xmm0, DWORD PTR __real@3d8f5c29
  00078	f3 0f 11 45 e0	 movss	 DWORD PTR _fAng$1$[ebp], xmm0
; File C:\IAGOS\server\v18\Source\Source\_Common\XUtil3D.h

; 39   : 	fAngXZ = D3DXToRadian(fAngXZ);

  0007d	f3 0f 59 05 00
	00 00 00	 mulss	 xmm0, DWORD PTR __real@3c8efa35
; File C:\Program Files (x86)\Windows Kits\10\Include\10.0.26100.0\ucrt\corecrt_math.h

; 789  :             return (float)sin(_X);

  00085	0f 5a c0	 cvtps2pd xmm0, xmm0
  00088	f2 0f 11 45 e8	 movsd	 QWORD PTR tv605[ebp], xmm0
  0008d	e8 00 00 00 00	 call	 __libm_sse2_sin_precise
  00092	f2 0f 5a c0	 cvtsd2ss xmm0, xmm0
; File C:\IAGOS\server\v18\Source\Source\_Common\XUtil3D.h

; 40   : 	vDelta->x = sinf(fAngXZ) * fSpeed;

  00096	f3 0f 59 05 00
	00 00 00	 mulss	 xmm0, DWORD PTR __real@3d4ccccd
  0009e	f3 0f 11 45 d0	 movss	 DWORD PTR tv573[ebp], xmm0
  000a3	f3 0f 11 86 94
	02 00 00	 movss	 DWORD PTR [esi+660], xmm0
; File C:\Program Files (x86)\Windows Kits\10\Include\10.0.26100.0\ucrt\corecrt_math.h

; 683  :             return (float)cos(_X);

  000ab	f2 0f 10 45 e8	 movsd	 xmm0, QWORD PTR tv605[ebp]
  000b0	e8 00 00 00 00	 call	 __libm_sse2_cos_precise
; File C:\IAGOS\server\v18\Source\Source\DX_SDK\d3dx9math.inl

; 325  :     y += v.y;

  000b5	f3 0f 10 55 d8	 movss	 xmm2, DWORD PTR $T2[ebp]
; File C:\Program Files (x86)\Windows Kits\10\Include\10.0.26100.0\ucrt\corecrt_math.h

; 683  :             return (float)cos(_X);

  000ba	0f 57 c9	 xorps	 xmm1, xmm1
; File C:\IAGOS\server\v18\Source\Source\DX_SDK\d3dx9math.inl

; 324  :     x += v.x;

  000bd	f3 0f 10 5d d0	 movss	 xmm3, DWORD PTR tv573[ebp]
; File C:\IAGOS\server\v18\Source\Source\_Common\XUtil3D.h

; 42   : 	vDelta->y = 0;

  000c2	c7 86 98 02 00
	00 00 00 00 00	 mov	 DWORD PTR [esi+664], 0
; File C:\IAGOS\server\v18\Source\Source\DX_SDK\d3dx9math.inl

; 324  :     x += v.x;

  000cc	f3 0f 58 5d dc	 addss	 xmm3, DWORD PTR $T3[ebp]

; 325  :     y += v.y;

  000d1	f3 0f 58 15 00
	00 00 00	 addss	 xmm2, DWORD PTR __real@00000000
; File C:\Program Files (x86)\Windows Kits\10\Include\10.0.26100.0\ucrt\corecrt_math.h

; 683  :             return (float)cos(_X);

  000d9	f2 0f 5a c8	 cvtsd2ss xmm1, xmm0
; File C:\IAGOS\server\v18\Source\Source\_Common\Ship.cpp

; 236  : 	for( i = 0; i < 4; i ++ )

  000dd	f3 0f 10 45 e0	 movss	 xmm0, DWORD PTR _fAng$1$[ebp]
; File C:\IAGOS\server\v18\Source\Source\_Common\XUtil3D.h

; 41   : 	vDelta->z = -cosf(fAngXZ) * fSpeed;

  000e2	0f 57 0d 00 00
	00 00		 xorps	 xmm1, DWORD PTR __xmm@80000000800000008000000080000000
  000e9	f3 0f 59 0d 00
	00 00 00	 mulss	 xmm1, DWORD PTR __real@3d4ccccd
; File C:\IAGOS\server\v18\Source\Source\DX_SDK\d3dx9math.inl

; 324  :     x += v.x;

  000f1	f3 0f 11 5d dc	 movss	 DWORD PTR $T3[ebp], xmm3

; 325  :     y += v.y;

  000f6	f3 0f 11 55 d8	 movss	 DWORD PTR $T2[ebp], xmm2
; File C:\IAGOS\server\v18\Source\Source\_Common\XUtil3D.h

; 41   : 	vDelta->z = -cosf(fAngXZ) * fSpeed;

  000fb	f3 0f 11 8e 9c
	02 00 00	 movss	 DWORD PTR [esi+668], xmm1
; File C:\IAGOS\server\v18\Source\Source\DX_SDK\d3dx9math.inl

; 326  :     z += v.z;

  00103	f3 0f 58 4d d4	 addss	 xmm1, DWORD PTR $T1[ebp]
  00108	f3 0f 11 4d d4	 movss	 DWORD PTR $T1[ebp], xmm1
; File C:\IAGOS\server\v18\Source\Source\_Common\Ship.cpp

; 236  : 	for( i = 0; i < 4; i ++ )

  0010d	83 ef 01	 sub	 edi, 1
  00110	0f 85 5a ff ff
	ff		 jne	 $LL4@Process

; 240  : 		AngleToVectorXZ( &m_vAcc, fAng, 0.05f );		// fAngЙцЧтРИЗЮ УпСјЗТЙпЛ§.
; 241  : 		vDeltaAccu += m_vAcc;		// М­Йі 15ЧСЗЙРгПЁМ­ИИ ЛчПыЕЧДТ АЭРИЗЮ 4ЙјРЛ ДЉРћЧд.
; 242  : 	}
; 243  : 	
; 244  : 	m_vDelta = vDeltaAccu;

  00116	f3 0f 11 9e 7c
	02 00 00	 movss	 DWORD PTR [esi+636], xmm3

; 246  : 	SetPos( vPos );

  0011e	8d 45 f0	 lea	 eax, DWORD PTR _vPos$[ebp]
  00121	f3 0f 11 96 80
	02 00 00	 movss	 DWORD PTR [esi+640], xmm2
  00129	8b ce		 mov	 ecx, esi
  0012b	f3 0f 11 8e 84
	02 00 00	 movss	 DWORD PTR [esi+644], xmm1
; File C:\IAGOS\server\v18\Source\Source\DX_SDK\d3dx9math.inl

; 324  :     x += v.x;

  00133	f3 0f 10 45 f0	 movss	 xmm0, DWORD PTR _vPos$[ebp]
  00138	f3 0f 58 86 7c
	02 00 00	 addss	 xmm0, DWORD PTR [esi+636]

; 325  :     y += v.y;

  00140	f3 0f 58 55 f4	 addss	 xmm2, DWORD PTR _vPos$[ebp+4]

; 326  :     z += v.z;

  00145	f3 0f 58 4d f8	 addss	 xmm1, DWORD PTR _vPos$[ebp+8]
; File C:\IAGOS\server\v18\Source\Source\_Common\Ship.cpp

; 246  : 	SetPos( vPos );

  0014a	50		 push	 eax
; File C:\IAGOS\server\v18\Source\Source\DX_SDK\d3dx9math.inl

; 324  :     x += v.x;

  0014b	f3 0f 11 45 f0	 movss	 DWORD PTR _vPos$[ebp], xmm0

; 325  :     y += v.y;

  00150	f3 0f 11 55 f4	 movss	 DWORD PTR _vPos$[ebp+4], xmm2

; 326  :     z += v.z;

  00155	f3 0f 11 4d f8	 movss	 DWORD PTR _vPos$[ebp+8], xmm1
; File C:\IAGOS\server\v18\Source\Source\_Common\Ship.cpp

; 246  : 	SetPos( vPos );

  0015a	e8 00 00 00 00	 call	 ?SetPos@CObj@@QAEXABUD3DXVECTOR3@@@Z ; CObj::SetPos

; 247  : 	SetAngle( fAng );

  0015f	f3 0f 10 45 e0	 movss	 xmm0, DWORD PTR _fAng$1$[ebp]
  00164	51		 push	 ecx
  00165	8b ce		 mov	 ecx, esi
  00167	f3 0f 11 04 24	 movss	 DWORD PTR [esp], xmm0
  0016c	e8 00 00 00 00	 call	 ?SetAngle@CObj@@QAEXM@Z	; CObj::SetAngle

; 248  : 	
; 249  : #ifdef __WORLDSERVER
; 250  : 	if( (m_nCount & 127) == 0 )

  00171	f6 86 78 02 00
	00 7f		 test	 BYTE PTR [esi+632], 127	; 0000007fH
  00178	0f 85 af 00 00
	00		 jne	 $LN6@Process
; File C:\IAGOS\server\v18\Source\Source\_Common\Obj.h

; 215  : 	D3DXVECTOR3		GetPos()	{ return m_vPos; }

  0017e	f3 0f 7e 86 60
	01 00 00	 movq	 xmm0, QWORD PTR [esi+352]
  00186	8b 86 68 01 00
	00		 mov	 eax, DWORD PTR [esi+360]
; File C:\IAGOS\server\v18\Source\Source\_Common\Ship.cpp

; 254  : 		g_UserMng.AddSetPosAngle( this, GetPos(), GetAngle() );		// ИеРњ this(Ship)РЧ РЇФЁИІ syncНУХД.

  0018c	51		 push	 ecx
; File C:\IAGOS\server\v18\Source\Source\_Common\Obj.h

; 215  : 	D3DXVECTOR3		GetPos()	{ return m_vPos; }

  0018d	66 0f d6 45 e4	 movq	 QWORD PTR $T4[ebp], xmm0
; File C:\IAGOS\server\v18\Source\Source\_Common\Ship.cpp

; 254  : 		g_UserMng.AddSetPosAngle( this, GetPos(), GetAngle() );		// ИеРњ this(Ship)РЧ РЇФЁИІ syncНУХД.

  00192	b9 00 00 00 00	 mov	 ecx, OFFSET ?g_UserMng@@3VCUserMng@@A ; g_UserMng
  00197	f3 0f 10 46 18	 movss	 xmm0, DWORD PTR [esi+24]
; File C:\IAGOS\server\v18\Source\Source\_Common\Obj.h

; 215  : 	D3DXVECTOR3		GetPos()	{ return m_vPos; }

  0019c	89 45 ec	 mov	 DWORD PTR $T4[ebp+8], eax
; File C:\IAGOS\server\v18\Source\Source\_Common\Ship.cpp

; 254  : 		g_UserMng.AddSetPosAngle( this, GetPos(), GetAngle() );		// ИеРњ this(Ship)РЧ РЇФЁИІ syncНУХД.

  0019f	8d 45 e4	 lea	 eax, DWORD PTR $T4[ebp]
  001a2	f3 0f 11 04 24	 movss	 DWORD PTR [esp], xmm0
  001a7	50		 push	 eax
  001a8	56		 push	 esi
  001a9	e8 00 00 00 00	 call	 ?AddSetPosAngle@CUserMng@@QAEXPAVCCtrl@@ABUD3DXVECTOR3@@M@Z ; CUserMng::AddSetPosAngle
; File C:\IAGOS\server\v18\Source\Source\_Common\Obj.h

; 215  : 	D3DXVECTOR3		GetPos()	{ return m_vPos; }

  001ae	8d be a8 02 00
	00		 lea	 edi, DWORD PTR [esi+680]
  001b4	c7 45 e0 80 00
	00 00		 mov	 DWORD PTR tv625[ebp], 128 ; 00000080H
  001bb	0f 1f 44 00 00	 npad	 5
$LL7@Process:
; File C:\IAGOS\server\v18\Source\Source\_Common\Ship.cpp

; 258  : 			if( m_LinkCtrl[i] == 0 )	continue;

  001c0	8b 07		 mov	 eax, DWORD PTR [edi]
  001c2	85 c0		 test	 eax, eax
  001c4	74 5e		 je	 SHORT $LN5@Process

; 259  : 			idCtrl = m_LinkCtrl[i];
; 260  : 			CCtrl *pCtrl = prj.GetCtrl( idCtrl );

  001c6	50		 push	 eax
  001c7	b9 00 00 00 00	 mov	 ecx, OFFSET ?prj@@3VCProject@@A ; prj
  001cc	e8 00 00 00 00	 call	 ?GetCtrl@CProject@@QAEPAVCCtrl@@K@Z ; CProject::GetCtrl
  001d1	8b c8		 mov	 ecx, eax
; File C:\IAGOS\server\v18\Source\Source\_Common\Obj.h

; 327  : 	return pObj && ( pObj->IsDelete() == FALSE ); 

  001d3	85 c9		 test	 ecx, ecx
  001d5	74 4d		 je	 SHORT $LN5@Process

; 180  : 	BOOL			IsDelete()	{ return (m_dwFlags & OBJ_FLAG_DELETE);  }

  001d7	f6 41 04 01	 test	 BYTE PTR [ecx+4], 1

; 327  : 	return pObj && ( pObj->IsDelete() == FALSE ); 

  001db	75 47		 jne	 SHORT $LN5@Process
; File C:\IAGOS\server\v18\Source\Source\_Common\Ship.cpp

; 263  : 				if( pCtrl->GetIAObjLink() == this )

  001dd	39 b1 c0 01 00
	00		 cmp	 DWORD PTR [ecx+448], esi
  001e3	75 32		 jne	 SHORT $LN11@Process
; File C:\IAGOS\server\v18\Source\Source\_Common\Obj.h

; 215  : 	D3DXVECTOR3		GetPos()	{ return m_vPos; }

  001e5	f3 0f 7e 81 60
	01 00 00	 movq	 xmm0, QWORD PTR [ecx+352]
  001ed	8b 81 68 01 00
	00		 mov	 eax, DWORD PTR [ecx+360]
; File C:\IAGOS\server\v18\Source\Source\_Common\Ship.cpp

; 264  : 					g_UserMng.AddSetPosAngle( pCtrl, pCtrl->GetPos(), pCtrl->GetAngle() );		// this(Ship)РЧ РЇФЁИІ syncНУХД.

  001f3	51		 push	 ecx
; File C:\IAGOS\server\v18\Source\Source\_Common\Obj.h

; 215  : 	D3DXVECTOR3		GetPos()	{ return m_vPos; }

  001f4	66 0f d6 45 e4	 movq	 QWORD PTR $T5[ebp], xmm0
; File C:\IAGOS\server\v18\Source\Source\_Common\Ship.cpp

; 264  : 					g_UserMng.AddSetPosAngle( pCtrl, pCtrl->GetPos(), pCtrl->GetAngle() );		// this(Ship)РЧ РЇФЁИІ syncНУХД.

  001f9	f3 0f 10 41 18	 movss	 xmm0, DWORD PTR [ecx+24]
; File C:\IAGOS\server\v18\Source\Source\_Common\Obj.h

; 215  : 	D3DXVECTOR3		GetPos()	{ return m_vPos; }

  001fe	89 45 ec	 mov	 DWORD PTR $T5[ebp+8], eax
; File C:\IAGOS\server\v18\Source\Source\_Common\Ship.cpp

; 264  : 					g_UserMng.AddSetPosAngle( pCtrl, pCtrl->GetPos(), pCtrl->GetAngle() );		// this(Ship)РЧ РЇФЁИІ syncНУХД.

  00201	8d 45 e4	 lea	 eax, DWORD PTR $T5[ebp]
  00204	f3 0f 11 04 24	 movss	 DWORD PTR [esp], xmm0
  00209	50		 push	 eax
  0020a	51		 push	 ecx
  0020b	b9 00 00 00 00	 mov	 ecx, OFFSET ?g_UserMng@@3VCUserMng@@A ; g_UserMng
  00210	e8 00 00 00 00	 call	 ?AddSetPosAngle@CUserMng@@QAEXPAVCCtrl@@ABUD3DXVECTOR3@@M@Z ; CUserMng::AddSetPosAngle
  00215	eb 0d		 jmp	 SHORT $LN5@Process
$LN11@Process:

; 265  : 				else
; 266  : 					RemoveCtrl( pCtrl->GetId() );

  00217	ff b1 bc 01 00
	00		 push	 DWORD PTR [ecx+444]
  0021d	8b ce		 mov	 ecx, esi
  0021f	e8 00 00 00 00	 call	 ?RemoveCtrl@CShip@@QAEXK@Z ; CShip::RemoveCtrl
$LN5@Process:

; 255  : 		// ИЕХЉЕЧОю РжДТ И№Еч ctrlРЧ РЇФЁИІ ДйНУ syncНУХД.
; 256  : 		for( i = 0; i < MAX_LINKCTRL; i ++ )		

  00224	83 c7 04	 add	 edi, 4
  00227	83 6d e0 01	 sub	 DWORD PTR tv625[ebp], 1
  0022b	75 93		 jne	 SHORT $LL7@Process
$LN6@Process:

; 267  : 			}
; 268  : 		}
; 269  : 	}
; 270  : #endif
; 271  : 	
; 272  : 	// IAПРКъСЇЦЎДТ ДйИЅ ПРКъСЇЦЎИІ ХТПьАэ ДйГрОп ЧЯЙЧЗЮ
; 273  : 	// НЧНУАЃРИЗЮ ИХЦЎИЏНКАЁ АЛНХЕЧОюОп ЧбДй.
; 274  : 	UpdateLocalMatrix();		

  0022d	8b ce		 mov	 ecx, esi
  0022f	e8 00 00 00 00	 call	 ?UpdateLocalMatrix@CObj@@QAEXXZ ; CObj::UpdateLocalMatrix

; 275  : 
; 276  : 	m_nCount ++;
; 277  : }

  00234	8b 4d fc	 mov	 ecx, DWORD PTR __$ArrayPad$[ebp]
  00237	ff 86 78 02 00
	00		 inc	 DWORD PTR [esi+632]
  0023d	33 cd		 xor	 ecx, ebp
  0023f	5f		 pop	 edi
  00240	5e		 pop	 esi
  00241	e8 00 00 00 00	 call	 @__security_check_cookie@4
  00246	8b e5		 mov	 esp, ebp
  00248	5d		 pop	 ebp
  00249	c3		 ret	 0
?Process@CShipLoop@@UAEXXZ ENDP				; CShipLoop::Process
_TEXT	ENDS
; Function compile flags: /Ogtp
; File C:\IAGOS\server\v18\Source\Source\_Common\Ship.cpp
;	COMDAT ??1CShipLoop@@UAE@XZ
_TEXT	SEGMENT
__$EHRec$ = -12						; size = 12
??1CShipLoop@@UAE@XZ PROC				; CShipLoop::~CShipLoop, COMDAT
; _this$ = ecx

; 208  : {

  00000	55		 push	 ebp
  00001	8b ec		 mov	 ebp, esp
  00003	6a ff		 push	 -1
  00005	68 00 00 00 00	 push	 __ehhandler$??1CShipLoop@@UAE@XZ
  0000a	64 a1 00 00 00
	00		 mov	 eax, DWORD PTR fs:0
  00010	50		 push	 eax
  00011	56		 push	 esi
  00012	a1 00 00 00 00	 mov	 eax, DWORD PTR ___security_cookie
  00017	33 c5		 xor	 eax, ebp
  00019	50		 push	 eax
  0001a	8d 45 f4	 lea	 eax, DWORD PTR __$EHRec$[ebp]
  0001d	64 a3 00 00 00
	00		 mov	 DWORD PTR fs:0, eax
  00023	8b f1		 mov	 esi, ecx
  00025	c7 06 00 00 00
	00		 mov	 DWORD PTR [esi], OFFSET ??_7CShipLoop@@6B@

; 209  : 	Destroy();

  0002b	e8 00 00 00 00	 call	 ?Destroy@CShipLoop@@MAEXXZ ; CShipLoop::Destroy

; 210  : }

  00030	8b ce		 mov	 ecx, esi
  00032	e8 00 00 00 00	 call	 ??1CShip@@UAE@XZ	; CShip::~CShip
  00037	8b 4d f4	 mov	 ecx, DWORD PTR __$EHRec$[ebp]
  0003a	64 89 0d 00 00
	00 00		 mov	 DWORD PTR fs:0, ecx
  00041	59		 pop	 ecx
  00042	5e		 pop	 esi
  00043	8b e5		 mov	 esp, ebp
  00045	5d		 pop	 ebp
  00046	c3		 ret	 0
  00047	cc		 int	 3
  00048	cc		 int	 3
  00049	cc		 int	 3
  0004a	cc		 int	 3
  0004b	cc		 int	 3
_TEXT	ENDS
;	COMDAT text$x
text$x	SEGMENT
__ehhandler$??1CShipLoop@@UAE@XZ:
  00000	90		 npad	 1
  00001	90		 npad	 1
  00002	8b 54 24 08	 mov	 edx, DWORD PTR [esp+8]
  00006	8d 42 0c	 lea	 eax, DWORD PTR [edx+12]
  00009	8b 4a f8	 mov	 ecx, DWORD PTR [edx-8]
  0000c	33 c8		 xor	 ecx, eax
  0000e	e8 00 00 00 00	 call	 @__security_check_cookie@4
  00013	b8 00 00 00 00	 mov	 eax, OFFSET __ehfuncinfo$??1CShipLoop@@UAE@XZ
  00018	e9 00 00 00 00	 jmp	 ___CxxFrameHandler3
text$x	ENDS
??1CShipLoop@@UAE@XZ ENDP				; CShipLoop::~CShipLoop
; Function compile flags: /Ogtp
; File C:\IAGOS\server\v18\Source\Source\_Common\Ship.cpp
;	COMDAT ??0CShipLoop@@QAE@XZ
_TEXT	SEGMENT
_this$ = -4						; size = 4
??0CShipLoop@@QAE@XZ PROC				; CShipLoop::CShipLoop, COMDAT
; _this$ = ecx

; 203  : {

  00000	55		 push	 ebp
  00001	8b ec		 mov	 ebp, esp
  00003	51		 push	 ecx
  00004	56		 push	 esi
  00005	8b f1		 mov	 esi, ecx
  00007	89 75 fc	 mov	 DWORD PTR _this$[ebp], esi
  0000a	e8 00 00 00 00	 call	 ??0CShip@@QAE@XZ	; CShip::CShip
  0000f	c7 06 00 00 00
	00		 mov	 DWORD PTR [esi], OFFSET ??_7CShipLoop@@6B@

; 204  : 	Init();
; 205  : }

  00015	8b c6		 mov	 eax, esi
  00017	5e		 pop	 esi
  00018	8b e5		 mov	 esp, ebp
  0001a	5d		 pop	 ebp
  0001b	c3		 ret	 0
??0CShipLoop@@QAE@XZ ENDP				; CShipLoop::CShipLoop
_TEXT	ENDS
; Function compile flags: /Ogtp
; File C:\IAGOS\server\v18\Source\Source\_Common\Ship.cpp
;	COMDAT ?Destroy@CShipLoop@@MAEXXZ
_TEXT	SEGMENT
?Destroy@CShipLoop@@MAEXXZ PROC				; CShipLoop::Destroy, COMDAT
; _this$ = ecx

; 218  : 	Init();

  00000	8b 01		 mov	 eax, DWORD PTR [ecx]
  00002	ff 60 44	 jmp	 DWORD PTR [eax+68]
?Destroy@CShipLoop@@MAEXXZ ENDP				; CShipLoop::Destroy
_TEXT	ENDS
; Function compile flags: /Ogtp
; File C:\IAGOS\server\v18\Source\Source\_Common\Ship.cpp
;	COMDAT ?Init@CShipLoop@@MAEXXZ
_TEXT	SEGMENT
?Init@CShipLoop@@MAEXXZ PROC				; CShipLoop::Init, COMDAT
; _this$ = ecx

; 214  : }

  00000	c2 00 00	 ret	 0
?Init@CShipLoop@@MAEXXZ ENDP				; CShipLoop::Init
_TEXT	ENDS
; Function compile flags: /Ogtp
;	COMDAT ??_GCShip@@UAEPAXI@Z
_TEXT	SEGMENT
___flags$ = 8						; size = 4
??_GCShip@@UAEPAXI@Z PROC				; CShip::`scalar deleting destructor', COMDAT
; _this$ = ecx
  00000	55		 push	 ebp
  00001	8b ec		 mov	 ebp, esp
  00003	56		 push	 esi
  00004	8b f1		 mov	 esi, ecx
  00006	e8 00 00 00 00	 call	 ??1CShip@@UAE@XZ	; CShip::~CShip
  0000b	f6 45 08 01	 test	 BYTE PTR ___flags$[ebp], 1
  0000f	74 0e		 je	 SHORT $LN5@scalar
  00011	68 a8 04 00 00	 push	 1192			; 000004a8H
  00016	56		 push	 esi
  00017	e8 00 00 00 00	 call	 ??3@YAXPAXI@Z		; operator delete
  0001c	83 c4 08	 add	 esp, 8
$LN5@scalar:
  0001f	8b c6		 mov	 eax, esi
  00021	5e		 pop	 esi
  00022	5d		 pop	 ebp
  00023	c2 04 00	 ret	 4
??_GCShip@@UAEPAXI@Z ENDP				; CShip::`scalar deleting destructor'
_TEXT	ENDS
; Function compile flags: /Ogtp
; File C:\IAGOS\server\v18\Source\Source\_Common\Ship.cpp
; File C:\IAGOS\server\v18\Source\Source\_Common\Obj.h
; File C:\IAGOS\server\v18\Source\Source\_Common\Ship.cpp
; File C:\IAGOS\server\v18\Source\Source\_Common\Obj.h
; File C:\IAGOS\server\v18\Source\Source\_Common\Ship.cpp
; File C:\IAGOS\server\v18\Source\Source\DX_SDK\d3dx9math.inl
; File C:\IAGOS\server\v18\Source\Source\_Common\Ship.cpp
; File C:\IAGOS\server\v18\Source\Source\DX_SDK\d3dx9math.inl
; File C:\IAGOS\server\v18\Source\Source\_Common\Ship.cpp
; File C:\IAGOS\server\v18\Source\Source\DX_SDK\d3dx9math.inl
; File C:\IAGOS\server\v18\Source\Source\_Common\Ship.cpp
; File C:\IAGOS\server\v18\Source\Source\DX_SDK\d3dx9math.inl
; File C:\IAGOS\server\v18\Source\Source\_Common\Ship.cpp
;	COMDAT ?Process@CShip@@UAEXXZ
_TEXT	SEGMENT
tv452 = -32						; size = 16
_vPos$ = -16						; size = 12
__$ArrayPad$ = -4					; size = 4
?Process@CShip@@UAEXXZ PROC				; CShip::Process, COMDAT
; _this$ = ecx

; 158  : {

  00000	53		 push	 ebx
  00001	8b dc		 mov	 ebx, esp
  00003	83 ec 08	 sub	 esp, 8
  00006	83 e4 f0	 and	 esp, -16		; fffffff0H
  00009	83 c4 04	 add	 esp, 4
  0000c	55		 push	 ebp
  0000d	8b 6b 04	 mov	 ebp, DWORD PTR [ebx+4]
  00010	89 6c 24 04	 mov	 DWORD PTR [esp+4], ebp
  00014	8b ec		 mov	 ebp, esp
  00016	83 ec 28	 sub	 esp, 40			; 00000028H
  00019	a1 00 00 00 00	 mov	 eax, DWORD PTR ___security_cookie
  0001e	33 c5		 xor	 eax, ebp
  00020	89 45 fc	 mov	 DWORD PTR __$ArrayPad$[ebp], eax
  00023	56		 push	 esi
  00024	8b f1		 mov	 esi, ecx
  00026	57		 push	 edi

; 159  : 	D3DXMatrixInverse( GetInvTM(), NULL, &m_matWorld );		// СТЧЅКЏШЏРЬ РЬЗяСіБтРќ ИХЦЎИЏНКЗЮ ПЊЧрЗФРЛ БИЧиГіОп ЧбДй.

  00027	8d 86 e4 00 00
	00		 lea	 eax, DWORD PTR [esi+228]
  0002d	50		 push	 eax
  0002e	6a 00		 push	 0
  00030	8d 86 c4 01 00
	00		 lea	 eax, DWORD PTR [esi+452]
  00036	50		 push	 eax
  00037	e8 00 00 00 00	 call	 _D3DXMatrixInverse@12
; File C:\IAGOS\server\v18\Source\Source\_Common\Obj.h

; 215  : 	D3DXVECTOR3		GetPos()	{ return m_vPos; }

  0003c	f3 0f 7e 86 60
	01 00 00	 movq	 xmm0, QWORD PTR [esi+352]
; File C:\IAGOS\server\v18\Source\Source\_Common\Ship.cpp

; 158  : {

  00044	bf 04 00 00 00	 mov	 edi, 4
; File C:\IAGOS\server\v18\Source\Source\_Common\Obj.h

; 215  : 	D3DXVECTOR3		GetPos()	{ return m_vPos; }

  00049	8b 86 68 01 00
	00		 mov	 eax, DWORD PTR [esi+360]
  0004f	66 0f d6 45 f0	 movq	 QWORD PTR _vPos$[ebp], xmm0
  00054	0f 57 c0	 xorps	 xmm0, xmm0
  00057	89 45 f8	 mov	 DWORD PTR _vPos$[ebp+8], eax
  0005a	8d 86 34 02 00
	00		 lea	 eax, DWORD PTR [esi+564]
; File C:\IAGOS\server\v18\Source\Source\_Common\Ship.cpp

; 158  : {

  00060	0f 29 45 e0	 movaps	 XMMWORD PTR tv452[ebp], xmm0
$LL4@Process:

; 169  : #endif	
; 170  : 	{
; 171  : 		m_Act.Process();			// ПРКъСЇЦЎРЧ ЧіРчПђСїРг ЛѓХТИІ МіЧр.

  00064	8b c8		 mov	 ecx, eax
  00066	e8 00 00 00 00	 call	 ?Process@CActionShip@@QAEHXZ ; CActionShip::Process
; File C:\IAGOS\server\v18\Source\Source\DX_SDK\d3dx9math.inl

; 324  :     x += v.x;

  0006b	f3 0f 10 9e 88
	02 00 00	 movss	 xmm3, DWORD PTR [esi+648]
; File C:\IAGOS\server\v18\Source\Source\_Common\Ship.cpp

; 168  : 	for( i = 0; i < 4; i ++ )

  00073	8d 86 34 02 00
	00		 lea	 eax, DWORD PTR [esi+564]
; File C:\IAGOS\server\v18\Source\Source\DX_SDK\d3dx9math.inl

; 325  :     y += v.y;

  00079	f3 0f 10 8e 8c
	02 00 00	 movss	 xmm1, DWORD PTR [esi+652]

; 342  :     x *= f;

  00081	f3 0f 10 15 00
	00 00 00	 movss	 xmm2, DWORD PTR __real@3f7d2f1b

; 324  :     x += v.x;

  00089	f3 0f 58 9e 94
	02 00 00	 addss	 xmm3, DWORD PTR [esi+660]
  00091	f3 0f 11 9e 88
	02 00 00	 movss	 DWORD PTR [esi+648], xmm3

; 342  :     x *= f;

  00099	f3 0f 59 da	 mulss	 xmm3, xmm2

; 325  :     y += v.y;

  0009d	f3 0f 58 8e 98
	02 00 00	 addss	 xmm1, DWORD PTR [esi+664]
  000a5	f3 0f 11 8e 8c
	02 00 00	 movss	 DWORD PTR [esi+652], xmm1

; 326  :     z += v.z;

  000ad	f3 0f 10 86 9c
	02 00 00	 movss	 xmm0, DWORD PTR [esi+668]

; 343  :     y *= f;

  000b5	f3 0f 59 ca	 mulss	 xmm1, xmm2
  000b9	f3 0f 11 9e 88
	02 00 00	 movss	 DWORD PTR [esi+648], xmm3

; 326  :     z += v.z;

  000c1	f3 0f 58 86 90
	02 00 00	 addss	 xmm0, DWORD PTR [esi+656]

; 343  :     y *= f;

  000c9	f3 0f 11 8e 8c
	02 00 00	 movss	 DWORD PTR [esi+652], xmm1

; 344  :     z *= f;

  000d1	f3 0f 59 c2	 mulss	 xmm0, xmm2

; 324  :     x += v.x;

  000d5	0f 14 d8	 unpcklps xmm3, xmm0

; 344  :     z *= f;

  000d8	f3 0f 11 86 90
	02 00 00	 movss	 DWORD PTR [esi+656], xmm0

; 324  :     x += v.x;

  000e0	0f 28 45 e0	 movaps	 xmm0, XMMWORD PTR tv452[ebp]
  000e4	0f 14 d9	 unpcklps xmm3, xmm1
  000e7	0f 58 c3	 addps	 xmm0, xmm3
  000ea	0f 29 45 e0	 movaps	 XMMWORD PTR tv452[ebp], xmm0
; File C:\IAGOS\server\v18\Source\Source\_Common\Ship.cpp

; 168  : 	for( i = 0; i < 4; i ++ )

  000ee	83 ef 01	 sub	 edi, 1
  000f1	0f 85 6d ff ff
	ff		 jne	 $LL4@Process

; 172  : 		
; 173  : 		m_vDeltaUnit += m_vAcc;			// ЧіРч МгЕЕПЁ ЛѕЗЮПю ШћРЛ ДѕЧд.
; 174  : 		m_vDeltaUnit *= (1.0f - FRIC_AIR);
; 175  : 		vDeltaAccu += m_vDeltaUnit;		// М­Йі 15ЧСЗЙРгПЁМ­ИИ ЛчПыЕЧДТ АЭРИЗЮ 4ЙјРЛ ДЉРћЧд.
; 176  : 	}
; 177  : #ifdef __CLIENT
; 178  : 	FLOAT fLenSq = D3DXVec3Length( &m_vDelta );		// 1/60 sec МгЕЕ
; 179  : 	extern int g_nFlySpeed;
; 180  : 	if( m_pMover->IsActiveMover() )
; 181  : 	{
; 182  : 		g_nFlySpeed = (int)( (fLenSq * 60.0f) * 60.0f * 60.0f );
; 183  : 		g_nFlySpeed	= (int)( g_nFlySpeed / 200.0f );
; 184  : 	}
; 185  : 	
; 186  : #endif	
; 187  : 
; 188  : 	m_vDelta = vDeltaAccu;		// РЬЙјЧСЗЙРгРЧ this РЬЕПЗЎРЬЕШДй.  ЧзЛѓ m_vDeltaПЁ УжСО РЬЕПЗЎРЬ ЕщОюАЁАд ЧЯРк.

  000f7	f3 0f 11 86 7c
	02 00 00	 movss	 DWORD PTR [esi+636], xmm0

; 190  : 	SetPos( vPos );

  000ff	8d 45 f0	 lea	 eax, DWORD PTR _vPos$[ebp]
  00102	0f 28 c8	 movaps	 xmm1, xmm0
  00105	0f 28 d0	 movaps	 xmm2, xmm0
  00108	0f c6 c8 55	 shufps	 xmm1, xmm0, 85		; 00000055H
  0010c	8b ce		 mov	 ecx, esi
  0010e	f3 0f 11 8e 80
	02 00 00	 movss	 DWORD PTR [esi+640], xmm1
  00116	0f c6 d0 aa	 shufps	 xmm2, xmm0, 170		; 000000aaH
  0011a	f3 0f 11 96 84
	02 00 00	 movss	 DWORD PTR [esi+644], xmm2
; File C:\IAGOS\server\v18\Source\Source\DX_SDK\d3dx9math.inl

; 324  :     x += v.x;

  00122	f3 0f 10 45 f0	 movss	 xmm0, DWORD PTR _vPos$[ebp]
  00127	f3 0f 58 86 7c
	02 00 00	 addss	 xmm0, DWORD PTR [esi+636]

; 325  :     y += v.y;

  0012f	f3 0f 58 4d f4	 addss	 xmm1, DWORD PTR _vPos$[ebp+4]

; 326  :     z += v.z;

  00134	f3 0f 58 55 f8	 addss	 xmm2, DWORD PTR _vPos$[ebp+8]
; File C:\IAGOS\server\v18\Source\Source\_Common\Ship.cpp

; 190  : 	SetPos( vPos );

  00139	50		 push	 eax
; File C:\IAGOS\server\v18\Source\Source\DX_SDK\d3dx9math.inl

; 324  :     x += v.x;

  0013a	f3 0f 11 45 f0	 movss	 DWORD PTR _vPos$[ebp], xmm0

; 325  :     y += v.y;

  0013f	f3 0f 11 4d f4	 movss	 DWORD PTR _vPos$[ebp+4], xmm1

; 326  :     z += v.z;

  00144	f3 0f 11 55 f8	 movss	 DWORD PTR _vPos$[ebp+8], xmm2
; File C:\IAGOS\server\v18\Source\Source\_Common\Ship.cpp

; 190  : 	SetPos( vPos );

  00149	e8 00 00 00 00	 call	 ?SetPos@CObj@@QAEXABUD3DXVECTOR3@@@Z ; CObj::SetPos

; 191  : 	m_fDeltaAng = m_fAccAng;

  0014e	8b 86 a4 02 00
	00		 mov	 eax, DWORD PTR [esi+676]

; 192  : 	
; 193  : 	// IAПРКъСЇЦЎДТ ДйИЅ ПРКъСЇЦЎИІ ХТПьАэ ДйГрОп ЧЯЙЧЗЮ
; 194  : 	// НЧНУАЃРИЗЮ ИХЦЎИЏНКАЁ АЛНХЕЧОюОп ЧбДй.
; 195  : 	UpdateLocalMatrix();		

  00154	8b ce		 mov	 ecx, esi
  00156	89 86 a0 02 00
	00		 mov	 DWORD PTR [esi+672], eax
  0015c	e8 00 00 00 00	 call	 ?UpdateLocalMatrix@CObj@@QAEXXZ ; CObj::UpdateLocalMatrix

; 196  : 
; 197  : 
; 198  : 	
; 199  : }

  00161	8b 4d fc	 mov	 ecx, DWORD PTR __$ArrayPad$[ebp]
  00164	5f		 pop	 edi
  00165	33 cd		 xor	 ecx, ebp
  00167	5e		 pop	 esi
  00168	e8 00 00 00 00	 call	 @__security_check_cookie@4
  0016d	8b e5		 mov	 esp, ebp
  0016f	5d		 pop	 ebp
  00170	8b e3		 mov	 esp, ebx
  00172	5b		 pop	 ebx
  00173	c3		 ret	 0
?Process@CShip@@UAEXXZ ENDP				; CShip::Process
_TEXT	ENDS
; Function compile flags: /Ogtp
; File C:\IAGOS\server\v18\Source\Source\_Common\Ship.cpp
;	COMDAT ?Control@CShip@@QAEXXZ
_TEXT	SEGMENT
?Control@CShip@@QAEXXZ PROC				; CShip::Control, COMDAT
; _this$ = ecx

; 100  : #ifdef __CLIENT
; 101  : 	static BOOL	s_bAcced = 0;
; 102  : 	static BOOL	s_bLefted = 0;
; 103  : 	static BOOL	s_bRighted = 0;
; 104  : 	static BOOL s_bBoarded = 0;
; 105  : 	
; 106  : 	BOOL bAcc = g_bKeyTable[ VK_SPACE ];
; 107  : 	BOOL bLeft = g_bKeyTable[g_Neuz.Key.chLeft];
; 108  : 	BOOL bDown = g_bKeyTable[ g_Neuz.Key.chUp ];
; 109  : 	BOOL bRight = g_bKeyTable[ 'D' ];
; 110  : 	BOOL bUp = g_bKeyTable[ 'S' ];
; 111  : 	BOOL bBoard = g_bKeyTable[ 'B' ];
; 112  : 	
; 113  : 	if( bAcc && !s_bAcced )		// АЁМг/СЄСі ХфБл.
; 114  : 	{
; 115  : 		if( m_Act.GetMoveState() == OBJSTA_FMOVE )		// РќСјСпРЬЖѓИщ
; 116  : 			SendActMsg( OBJMSG_STOP );		// ИиУпАэ
; 117  : 		else
; 118  : 			SendActMsg( OBJMSG_FORWARD );	// ОЦДЯЖѓИщ РќСјНУРл.
; 119  : 	}
; 120  : 	s_bAcced = bAcc;
; 121  : 
; 122  : 	if( bLeft )
; 123  : 	{
; 124  : 		SendActMsg( OBJMSG_LTURN );		// ПоТЪРИЗЮ ХЯ
; 125  : 	} else
; 126  : 	if( bRight )
; 127  : 	{
; 128  : 		SendActMsg( OBJMSG_RTURN );		// ПРИЅТЪРИЗЮ ХЯ.
; 129  : 	} else
; 130  : 	{
; 131  : 		SendActMsg( OBJMSG_STOP_TURN );	// СТ/ПьХААЁ ОШД­ЗССЎРжДйИщ ШИРќ СЄСі.
; 132  : 	}
; 133  : 
; 134  : 	if( bUp )
; 135  : 	{
; 136  : 		SendActMsg( OBJMSG_LOOKUP );
; 137  : 	} else
; 138  : 	if( bDown )
; 139  : 	{
; 140  : 		SendActMsg( OBJMSG_LOOKDOWN );
; 141  : 	} else
; 142  : 	{
; 143  : 		SendActMsg( OBJMSG_STOP_LOOK );	// РЇ/ОЦЗЁ ХААЁ ОШД­ЗССЎРжДйИщ ЛѓНТ/ЧЯА­ СЄСі.
; 144  : 	}
; 145  : 
; 146  : 	if( bBoard && !s_bBoarded )			// Йш СЖСОРЛ ЧиСІЧЯБт.
; 147  : 	{
; 148  : 		g_pShip = NULL;
; 149  : 		SetMover( NULL );
; 150  : 	}
; 151  : 	s_bBoarded = bBoard;
; 152  : 
; 153  : 	
; 154  : #endif // CLIENT
; 155  : }

  00000	c2 00 00	 ret	 0
?Control@CShip@@QAEXXZ ENDP				; CShip::Control
_TEXT	ENDS
; Function compile flags: /Ogtp
; File C:\IAGOS\server\v18\Source\Source\_Common\Ship.cpp
;	COMDAT ?RemoveCtrl@CShip@@QAEXK@Z
_TEXT	SEGMENT
_idCtrl$ = 8						; size = 4
?RemoveCtrl@CShip@@QAEXK@Z PROC				; CShip::RemoveCtrl, COMDAT
; _this$ = ecx

; 82   : {

  00000	55		 push	 ebp
  00001	8b ec		 mov	 ebp, esp

; 83   : 	int		i;
; 84   : 	OBJID *pList = m_LinkCtrl;

  00003	81 c1 a8 02 00
	00		 add	 ecx, 680		; 000002a8H

; 85   : 	OBJID *pNode;
; 86   : 	
; 87   : 	for( i = 0; i < MAX_LINKCTRL; i ++ )

  00009	33 c0		 xor	 eax, eax
  0000b	56		 push	 esi
  0000c	0f 1f 40 00	 npad	 4
$LL4@RemoveCtrl:

; 88   : 	{
; 89   : 		pNode = pList++;

  00010	8b d1		 mov	 edx, ecx
  00012	83 c1 04	 add	 ecx, 4

; 90   : 		if( *pNode == 0 ) continue;

  00015	8b 32		 mov	 esi, DWORD PTR [edx]
  00017	85 f6		 test	 esi, esi
  00019	75 0d		 jne	 SHORT $LN5@RemoveCtrl

; 85   : 	OBJID *pNode;
; 86   : 	
; 87   : 	for( i = 0; i < MAX_LINKCTRL; i ++ )

  0001b	40		 inc	 eax
  0001c	3d 80 00 00 00	 cmp	 eax, 128		; 00000080H
  00021	7c ed		 jl	 SHORT $LL4@RemoveCtrl
  00023	5e		 pop	 esi

; 93   : 		return;
; 94   : 	}
; 95   : }

  00024	5d		 pop	 ebp
  00025	c2 04 00	 ret	 4
$LN5@RemoveCtrl:

; 91   : 		if( *pNode == idCtrl )

  00028	3b 75 08	 cmp	 esi, DWORD PTR _idCtrl$[ebp]
  0002b	75 06		 jne	 SHORT $LN6@RemoveCtrl

; 92   : 			*pNode = 0;			// ГыЕхИІ СіПђ.

  0002d	c7 02 00 00 00
	00		 mov	 DWORD PTR [edx], 0
$LN6@RemoveCtrl:
  00033	5e		 pop	 esi

; 93   : 		return;
; 94   : 	}
; 95   : }

  00034	5d		 pop	 ebp
  00035	c2 04 00	 ret	 4
?RemoveCtrl@CShip@@QAEXK@Z ENDP				; CShip::RemoveCtrl
_TEXT	ENDS
; Function compile flags: /Ogtp
; File C:\IAGOS\server\v18\Source\Source\_Common\Ship.cpp
;	COMDAT ?FindCtrl@CShip@@QAEPAKK@Z
_TEXT	SEGMENT
_idCtrl$ = 8						; size = 4
?FindCtrl@CShip@@QAEPAKK@Z PROC				; CShip::FindCtrl, COMDAT
; _this$ = ecx

; 44   : {

  00000	55		 push	 ebp
  00001	8b ec		 mov	 ebp, esp
  00003	56		 push	 esi
  00004	57		 push	 edi

; 45   : 	int		i;
; 46   : 	OBJID *pList = m_LinkCtrl;
; 47   : 	OBJID *pNode;
; 48   : 	
; 49   : 	for( i = 0; i < MAX_LINKCTRL; i ++ )

  00005	8b 7d 08	 mov	 edi, DWORD PTR _idCtrl$[ebp]
  00008	8d 91 a8 02 00
	00		 lea	 edx, DWORD PTR [ecx+680]
  0000e	33 c0		 xor	 eax, eax
$LL4@FindCtrl:

; 50   : 	{
; 51   : 		pNode = pList++;

  00010	8b f2		 mov	 esi, edx
  00012	83 c2 04	 add	 edx, 4

; 52   : 		if( *pNode == 0 ) continue;		// Кѓ ГыЕхДТ АЫЛчЧвЧЪПф ОјРН.

  00015	8b 0e		 mov	 ecx, DWORD PTR [esi]
  00017	85 c9		 test	 ecx, ecx
  00019	74 04		 je	 SHORT $LN2@FindCtrl

; 53   : 		if( *pNode == idCtrl )

  0001b	3b cf		 cmp	 ecx, edi
  0001d	74 10		 je	 SHORT $LN9@FindCtrl
$LN2@FindCtrl:

; 45   : 	int		i;
; 46   : 	OBJID *pList = m_LinkCtrl;
; 47   : 	OBJID *pNode;
; 48   : 	
; 49   : 	for( i = 0; i < MAX_LINKCTRL; i ++ )

  0001f	40		 inc	 eax
  00020	3d 80 00 00 00	 cmp	 eax, 128		; 00000080H
  00025	7c e9		 jl	 SHORT $LL4@FindCtrl

; 55   : 	}
; 56   : 
; 57   : 	return NULL;

  00027	5f		 pop	 edi
  00028	33 c0		 xor	 eax, eax

; 58   : }

  0002a	5e		 pop	 esi
  0002b	5d		 pop	 ebp
  0002c	c2 04 00	 ret	 4
$LN9@FindCtrl:
  0002f	5f		 pop	 edi

; 54   : 			return pNode;

  00030	8b c6		 mov	 eax, esi

; 58   : }

  00032	5e		 pop	 esi
  00033	5d		 pop	 ebp
  00034	c2 04 00	 ret	 4
?FindCtrl@CShip@@QAEPAKK@Z ENDP				; CShip::FindCtrl
_TEXT	ENDS
; Function compile flags: /Ogtp
; File C:\IAGOS\server\v18\Source\Source\_Common\Ship.cpp
;	COMDAT ?AddCtrl@CShip@@QAEXK@Z
_TEXT	SEGMENT
_idCtrl$ = 8						; size = 4
?AddCtrl@CShip@@QAEXK@Z PROC				; CShip::AddCtrl, COMDAT
; _this$ = ecx

; 61   : {	

  00000	55		 push	 ebp
  00001	8b ec		 mov	 ebp, esp

; 62   : 	int		i;
; 63   : 	OBJID *pList = m_LinkCtrl;

  00003	81 c1 a8 02 00
	00		 add	 ecx, 680		; 000002a8H

; 64   : 	OBJID *pNode;
; 65   : 	BOOL	bSuccess = FALSE;
; 66   : 	
; 67   : 	for( i = 0; i < MAX_LINKCTRL; i ++ )

  00009	33 c0		 xor	 eax, eax
  0000b	0f 1f 44 00 00	 npad	 5
$LL4@AddCtrl:

; 68   : 	{
; 69   : 		pNode = pList++;

  00010	8b d1		 mov	 edx, ecx
  00012	83 c1 04	 add	 ecx, 4

; 70   : 		if( *pNode ) continue;		// КѓГыЕхАЁ ОЦДЯЖѓИщ ДйИЅ ГыЕхИІ УЃРН.

  00015	83 3a 00	 cmp	 DWORD PTR [edx], 0
  00018	74 19		 je	 SHORT $LN5@AddCtrl

; 64   : 	OBJID *pNode;
; 65   : 	BOOL	bSuccess = FALSE;
; 66   : 	
; 67   : 	for( i = 0; i < MAX_LINKCTRL; i ++ )

  0001a	40		 inc	 eax
  0001b	3d 80 00 00 00	 cmp	 eax, 128		; 00000080H
  00020	7c ee		 jl	 SHORT $LL4@AddCtrl

; 72   : 		bSuccess = TRUE;
; 73   : 		break;
; 74   : 	}
; 75   : 
; 76   : 	if( bSuccess == FALSE )
; 77   : 		Error( "CShip::AddCtrl : AddНЧЦа." );

  00022	68 00 00 00 00	 push	 OFFSET ??_C@_0BK@EINDJDBL@CShip?3?3AddCtrl?5?3?5Add?$LN?G?F?P?4@
  00027	e8 00 00 00 00	 call	 ?Error@@YAPBDPBDZZ	; Error
  0002c	83 c4 04	 add	 esp, 4

; 78   : }

  0002f	5d		 pop	 ebp
  00030	c2 04 00	 ret	 4
$LN5@AddCtrl:

; 71   : 		*pNode = idCtrl;			// Кѓ ГыЕхПЁ УЄПђ.

  00033	8b 45 08	 mov	 eax, DWORD PTR _idCtrl$[ebp]
  00036	89 02		 mov	 DWORD PTR [edx], eax

; 78   : }

  00038	5d		 pop	 ebp
  00039	c2 04 00	 ret	 4
?AddCtrl@CShip@@QAEXK@Z ENDP				; CShip::AddCtrl
_TEXT	ENDS
; Function compile flags: /Ogtp
; File C:\IAGOS\server\v18\Source\Source\_Common\Ship.cpp
;	COMDAT ??1CShip@@UAE@XZ
_TEXT	SEGMENT
__$EHRec$ = -12						; size = 12
??1CShip@@UAE@XZ PROC					; CShip::~CShip, COMDAT
; _this$ = ecx

; 21   : {

  00000	55		 push	 ebp
  00001	8b ec		 mov	 ebp, esp
  00003	6a ff		 push	 -1
  00005	68 00 00 00 00	 push	 __ehhandler$??1CShip@@UAE@XZ
  0000a	64 a1 00 00 00
	00		 mov	 eax, DWORD PTR fs:0
  00010	50		 push	 eax
  00011	56		 push	 esi
  00012	a1 00 00 00 00	 mov	 eax, DWORD PTR ___security_cookie
  00017	33 c5		 xor	 eax, ebp
  00019	50		 push	 eax
  0001a	8d 45 f4	 lea	 eax, DWORD PTR __$EHRec$[ebp]
  0001d	64 a3 00 00 00
	00		 mov	 DWORD PTR fs:0, eax
  00023	8b f1		 mov	 esi, ecx
  00025	c7 06 00 00 00
	00		 mov	 DWORD PTR [esi], OFFSET ??_7CShip@@6B@

; 22   : 	Destroy();

  0002b	e8 00 00 00 00	 call	 ?Destroy@CShip@@MAEXXZ	; CShip::Destroy

; 23   : }

  00030	8d 8e 34 02 00
	00		 lea	 ecx, DWORD PTR [esi+564]
  00036	e8 00 00 00 00	 call	 ??1CActionShip@@UAE@XZ	; CActionShip::~CActionShip
  0003b	8b ce		 mov	 ecx, esi
  0003d	e8 00 00 00 00	 call	 ??1CCtrl@@UAE@XZ	; CCtrl::~CCtrl
  00042	8b 4d f4	 mov	 ecx, DWORD PTR __$EHRec$[ebp]
  00045	64 89 0d 00 00
	00 00		 mov	 DWORD PTR fs:0, ecx
  0004c	59		 pop	 ecx
  0004d	5e		 pop	 esi
  0004e	8b e5		 mov	 esp, ebp
  00050	5d		 pop	 ebp
  00051	c3		 ret	 0
  00052	cc		 int	 3
  00053	cc		 int	 3
  00054	cc		 int	 3
  00055	cc		 int	 3
  00056	cc		 int	 3
_TEXT	ENDS
;	COMDAT text$x
text$x	SEGMENT
__ehhandler$??1CShip@@UAE@XZ:
  00000	90		 npad	 1
  00001	90		 npad	 1
  00002	8b 54 24 08	 mov	 edx, DWORD PTR [esp+8]
  00006	8d 42 0c	 lea	 eax, DWORD PTR [edx+12]
  00009	8b 4a f8	 mov	 ecx, DWORD PTR [edx-8]
  0000c	33 c8		 xor	 ecx, eax
  0000e	e8 00 00 00 00	 call	 @__security_check_cookie@4
  00013	b8 00 00 00 00	 mov	 eax, OFFSET __ehfuncinfo$??1CShip@@UAE@XZ
  00018	e9 00 00 00 00	 jmp	 ___CxxFrameHandler3
text$x	ENDS
??1CShip@@UAE@XZ ENDP					; CShip::~CShip
; Function compile flags: /Ogtp
; File C:\IAGOS\server\v18\Source\Source\_Common\Ship.cpp
;	COMDAT ??0CShip@@QAE@XZ
_TEXT	SEGMENT
_this$ = -16						; size = 4
__$EHRec$ = -12						; size = 12
??0CShip@@QAE@XZ PROC					; CShip::CShip, COMDAT
; _this$ = ecx

; 14   : {

  00000	55		 push	 ebp
  00001	8b ec		 mov	 ebp, esp
  00003	6a ff		 push	 -1
  00005	68 00 00 00 00	 push	 __ehhandler$??0CShip@@QAE@XZ
  0000a	64 a1 00 00 00
	00		 mov	 eax, DWORD PTR fs:0
  00010	50		 push	 eax
  00011	51		 push	 ecx
  00012	56		 push	 esi
  00013	a1 00 00 00 00	 mov	 eax, DWORD PTR ___security_cookie
  00018	33 c5		 xor	 eax, ebp
  0001a	50		 push	 eax
  0001b	8d 45 f4	 lea	 eax, DWORD PTR __$EHRec$[ebp]
  0001e	64 a3 00 00 00
	00		 mov	 DWORD PTR fs:0, eax
  00024	8b f1		 mov	 esi, ecx
  00026	89 75 f0	 mov	 DWORD PTR _this$[ebp], esi
  00029	e8 00 00 00 00	 call	 ??0CCtrl@@QAE@XZ	; CCtrl::CCtrl
  0002e	8d 8e 34 02 00
	00		 lea	 ecx, DWORD PTR [esi+564]
  00034	c7 45 fc 00 00
	00 00		 mov	 DWORD PTR __$EHRec$[ebp+8], 0
  0003b	c7 06 00 00 00
	00		 mov	 DWORD PTR [esi], OFFSET ??_7CShip@@6B@
  00041	e8 00 00 00 00	 call	 ??0CActionShip@@QAE@XZ	; CActionShip::CActionShip

; 15   : 	m_dwType	= OT_SHIP;
; 16   : 	m_Act.SetShip( this );
; 17   : 	Init();

  00046	8b ce		 mov	 ecx, esi
  00048	c7 86 70 01 00
	00 07 00 00 00	 mov	 DWORD PTR [esi+368], 7
  00052	89 b6 74 02 00
	00		 mov	 DWORD PTR [esi+628], esi
  00058	e8 00 00 00 00	 call	 ?Init@CShip@@MAEXXZ	; CShip::Init

; 18   : }

  0005d	8b c6		 mov	 eax, esi
  0005f	8b 4d f4	 mov	 ecx, DWORD PTR __$EHRec$[ebp]
  00062	64 89 0d 00 00
	00 00		 mov	 DWORD PTR fs:0, ecx
  00069	59		 pop	 ecx
  0006a	5e		 pop	 esi
  0006b	8b e5		 mov	 esp, ebp
  0006d	5d		 pop	 ebp
  0006e	c3		 ret	 0
_TEXT	ENDS
;	COMDAT text$x
text$x	SEGMENT
__unwindfunclet$??0CShip@@QAE@XZ$0:
  00000	8b 4d f0	 mov	 ecx, DWORD PTR _this$[ebp]
  00003	e9 00 00 00 00	 jmp	 ??1CCtrl@@UAE@XZ	; CCtrl::~CCtrl
  00008	cc		 int	 3
  00009	cc		 int	 3
  0000a	cc		 int	 3
  0000b	cc		 int	 3
  0000c	cc		 int	 3
__ehhandler$??0CShip@@QAE@XZ:
  0000d	90		 npad	 1
  0000e	90		 npad	 1
  0000f	8b 54 24 08	 mov	 edx, DWORD PTR [esp+8]
  00013	8d 42 0c	 lea	 eax, DWORD PTR [edx+12]
  00016	8b 4a f4	 mov	 ecx, DWORD PTR [edx-12]
  00019	33 c8		 xor	 ecx, eax
  0001b	e8 00 00 00 00	 call	 @__security_check_cookie@4
  00020	b8 00 00 00 00	 mov	 eax, OFFSET __ehfuncinfo$??0CShip@@QAE@XZ
  00025	e9 00 00 00 00	 jmp	 ___CxxFrameHandler3
text$x	ENDS
??0CShip@@QAE@XZ ENDP					; CShip::CShip
; Function compile flags: /Ogtp
; File C:\IAGOS\server\v18\Source\Source\_Common\Ship.cpp
;	COMDAT ?Destroy@CShip@@MAEXXZ
_TEXT	SEGMENT
?Destroy@CShip@@MAEXXZ PROC				; CShip::Destroy, COMDAT
; _this$ = ecx

; 40   : 	Init();

  00000	8b 01		 mov	 eax, DWORD PTR [ecx]
  00002	ff 60 44	 jmp	 DWORD PTR [eax+68]
?Destroy@CShip@@MAEXXZ ENDP				; CShip::Destroy
_TEXT	ENDS
; Function compile flags: /Ogtp
; File C:\IAGOS\server\v18\Source\Source\_Common\Ship.cpp
;	COMDAT ?Init@CShip@@MAEXXZ
_TEXT	SEGMENT
?Init@CShip@@MAEXXZ PROC				; CShip::Init, COMDAT
; _this$ = ecx

; 27   : 	m_pMover = NULL;
; 28   : 	m_vDelta.x = m_vDelta.y = m_vDelta.z = 0;
; 29   : 	m_vDeltaUnit.x = m_vDeltaUnit.y = m_vDeltaUnit.z = 0;
; 30   : 	m_vAcc.x = m_vAcc.y = m_vAcc.z = 0;
; 31   : 	m_fAccAng = 0;
; 32   : 	m_nCount = 0;
; 33   : 	m_fDeltaAng = 0;
; 34   : 	memset( m_LinkCtrl, 0, sizeof(m_LinkCtrl) );

  00000	68 00 02 00 00	 push	 512			; 00000200H
  00005	8d 81 a8 02 00
	00		 lea	 eax, DWORD PTR [ecx+680]
  0000b	c7 81 30 02 00
	00 00 00 00 00	 mov	 DWORD PTR [ecx+560], 0
  00015	6a 00		 push	 0
  00017	50		 push	 eax
  00018	c7 81 84 02 00
	00 00 00 00 00	 mov	 DWORD PTR [ecx+644], 0
  00022	c7 81 80 02 00
	00 00 00 00 00	 mov	 DWORD PTR [ecx+640], 0
  0002c	c7 81 7c 02 00
	00 00 00 00 00	 mov	 DWORD PTR [ecx+636], 0
  00036	c7 81 90 02 00
	00 00 00 00 00	 mov	 DWORD PTR [ecx+656], 0
  00040	c7 81 8c 02 00
	00 00 00 00 00	 mov	 DWORD PTR [ecx+652], 0
  0004a	c7 81 88 02 00
	00 00 00 00 00	 mov	 DWORD PTR [ecx+648], 0
  00054	c7 81 9c 02 00
	00 00 00 00 00	 mov	 DWORD PTR [ecx+668], 0
  0005e	c7 81 98 02 00
	00 00 00 00 00	 mov	 DWORD PTR [ecx+664], 0
  00068	c7 81 94 02 00
	00 00 00 00 00	 mov	 DWORD PTR [ecx+660], 0
  00072	c7 81 a4 02 00
	00 00 00 00 00	 mov	 DWORD PTR [ecx+676], 0
  0007c	c7 81 78 02 00
	00 00 00 00 00	 mov	 DWORD PTR [ecx+632], 0
  00086	c7 81 a0 02 00
	00 00 00 00 00	 mov	 DWORD PTR [ecx+672], 0
  00090	e8 00 00 00 00	 call	 _memset
  00095	83 c4 0c	 add	 esp, 12			; 0000000cH

; 35   : 	
; 36   : }

  00098	c3		 ret	 0
?Init@CShip@@MAEXXZ ENDP				; CShip::Init
_TEXT	ENDS
; Function compile flags: /Ogtp
; File C:\IAGOS\server\v18\Source\Source\_Common\Ctrl.h
;	COMDAT ?SendDamageForce@CCtrl@@UAEHKKHH@Z
_TEXT	SEGMENT
_dwAtkFlags$ = 8					; size = 4
_idSender$ = 12						; size = 4
_nParam$ = 16						; size = 4
_bTarget$ = 20						; size = 4
?SendDamageForce@CCtrl@@UAEHKKHH@Z PROC			; CCtrl::SendDamageForce, COMDAT
; _this$ = ecx

; 49   : 	virtual int		SendDamageForce( DWORD dwAtkFlags, OBJID idSender, int nParam = 0, BOOL bTarget = TRUE ) { return 0; }	// А­АјАн

  00000	33 c0		 xor	 eax, eax
  00002	c2 10 00	 ret	 16			; 00000010H
?SendDamageForce@CCtrl@@UAEHKKHH@Z ENDP			; CCtrl::SendDamageForce
_TEXT	ENDS
; Function compile flags: /Ogtp
; File C:\IAGOS\server\v18\Source\Source\_Common\Ctrl.h
;	COMDAT ?SendDamage@CCtrl@@UAEHKKHH@Z
_TEXT	SEGMENT
_dwAtkFlag$ = 8						; size = 4
_idAttacker$ = 12					; size = 4
_nParam$ = 16						; size = 4
_bTarget$ = 20						; size = 4
?SendDamage@CCtrl@@UAEHKKHH@Z PROC			; CCtrl::SendDamage, COMDAT
; _this$ = ecx

; 48   : 	virtual int		SendDamage( DWORD dwAtkFlag, OBJID idAttacker, int nParam = 0, BOOL bTarget = TRUE ) { return 0; }

  00000	33 c0		 xor	 eax, eax
  00002	c2 10 00	 ret	 16			; 00000010H
?SendDamage@CCtrl@@UAEHKKHH@Z ENDP			; CCtrl::SendDamage
_TEXT	ENDS
; Function compile flags: /Ogtp
; File C:\IAGOS\server\v18\Source\Source\_Common\Obj.h
;	COMDAT ?SetIndex@CObj@@UAEHPAUIDirect3DDevice9@@KH@Z
_TEXT	SEGMENT
_pd3dDevice$ = 8					; size = 4
_dwIndex$ = 12						; size = 4
_bInitProp$ = 16					; size = 4
?SetIndex@CObj@@UAEHPAUIDirect3DDevice9@@KH@Z PROC	; CObj::SetIndex, COMDAT
; _this$ = ecx

; 172  : 	virtual	BOOL	SetIndex( LPDIRECT3DDEVICE9 pd3dDevice, DWORD dwIndex, BOOL bInitProp = FALSE ) { return SetTypeIndex( pd3dDevice, m_dwType, dwIndex, bInitProp ); }

  00000	55		 push	 ebp
  00001	8b ec		 mov	 ebp, esp
  00003	ff 75 10	 push	 DWORD PTR _bInitProp$[ebp]
  00006	ff 75 0c	 push	 DWORD PTR _dwIndex$[ebp]
  00009	ff b1 70 01 00
	00		 push	 DWORD PTR [ecx+368]
  0000f	ff 75 08	 push	 DWORD PTR _pd3dDevice$[ebp]
  00012	e8 00 00 00 00	 call	 ?SetTypeIndex@CObj@@QAEHPAUIDirect3DDevice9@@KKH@Z ; CObj::SetTypeIndex
  00017	5d		 pop	 ebp
  00018	c2 0c 00	 ret	 12			; 0000000cH
?SetIndex@CObj@@UAEHPAUIDirect3DDevice9@@KH@Z ENDP	; CObj::SetIndex
_TEXT	ENDS
; Function compile flags: /Ogtp
; File C:\IAGOS\server\v18\Source\Source\_Common\Obj.h
;	COMDAT ?GetName@CObj@@UAEPBDXZ
_TEXT	SEGMENT
?GetName@CObj@@UAEPBDXZ PROC				; CObj::GetName, COMDAT
; _this$ = ecx

; 166  : 	virtual	LPCTSTR GetName() { return _T( "hello" ); }

  00000	b8 00 00 00 00	 mov	 eax, OFFSET ??_C@_05CJBACGMB@hello@
  00005	c3		 ret	 0
?GetName@CObj@@UAEPBDXZ ENDP				; CObj::GetName
_TEXT	ENDS
; Function compile flags: /Ogtp
; File C:\IAGOS\server\v18\Source\Source\_Common\Obj.h
;	COMDAT ?InitMotion@CObj@@UAEHK@Z
_TEXT	SEGMENT
_dwMotion$ = 8						; size = 4
?InitMotion@CObj@@UAEHK@Z PROC				; CObj::InitMotion, COMDAT
; _this$ = ecx

; 163  : 	virtual	BOOL	InitMotion(DWORD dwMotion) { return FALSE; }

  00000	33 c0		 xor	 eax, eax
  00002	c2 04 00	 ret	 4
?InitMotion@CObj@@UAEHK@Z ENDP				; CObj::InitMotion
_TEXT	ENDS
; Function compile flags: /Ogtp
; File C:\IAGOS\server\v18\Source\Source\_Common\Obj.h
;	COMDAT ?SetMotion@CObj@@UAEHKHK@Z
_TEXT	SEGMENT
_dwMotion$ = 8						; size = 4
_nLoop$ = 12						; size = 4
_dwOption$ = 16						; size = 4
?SetMotion@CObj@@UAEHKHK@Z PROC				; CObj::SetMotion, COMDAT
; _this$ = ecx

; 162  : 	virtual	BOOL	SetMotion(DWORD dwMotion, int nLoop = ANILOOP_LOOP, DWORD dwOption = 0 ) { return FALSE; }

  00000	33 c0		 xor	 eax, eax
  00002	c2 0c 00	 ret	 12			; 0000000cH
?SetMotion@CObj@@UAEHKHK@Z ENDP				; CObj::SetMotion
_TEXT	ENDS
; Function compile flags: /Ogtp
; File C:\IAGOS\server\v18\Source\Source\DX_SDK\d3dx9math.h
;	COMDAT ??0D3DXVECTOR3@@QAE@XZ
_TEXT	SEGMENT
??0D3DXVECTOR3@@QAE@XZ PROC				; D3DXVECTOR3::D3DXVECTOR3, COMDAT
; _this$ = ecx

; 165  :     D3DXVECTOR3() {};

  00000	8b c1		 mov	 eax, ecx
  00002	c3		 ret	 0
??0D3DXVECTOR3@@QAE@XZ ENDP				; D3DXVECTOR3::D3DXVECTOR3
_TEXT	ENDS
; Function compile flags: /Ogtp
; File C:\IAGOS\server\v18\Source\Source\_Common\Ship.cpp
;	COMDAT ?__empty_global_delete@@YAXPAXI@Z
_TEXT	SEGMENT
___formal$ = 8						; size = 4
___formal$ = 12						; size = 4
?__empty_global_delete@@YAXPAXI@Z PROC			; __empty_global_delete, COMDAT

  00000	c2 00 00	 ret	 0
?__empty_global_delete@@YAXPAXI@Z ENDP			; __empty_global_delete
_TEXT	ENDS
; Function compile flags: /Ogtp
; File C:\IAGOS\server\v18\Source\Source\_Common\Ship.cpp
;	COMDAT ?__empty_global_delete@@YAXPAX@Z
_TEXT	SEGMENT
___formal$ = 8						; size = 4
?__empty_global_delete@@YAXPAX@Z PROC			; __empty_global_delete, COMDAT

  00000	c2 00 00	 ret	 0
?__empty_global_delete@@YAXPAX@Z ENDP			; __empty_global_delete
_TEXT	ENDS
END
