; Listing generated by Microsoft (R) Optimizing Compiler Version 19.44.35225.0 

	TITLE	C:\IAGOS\server\v18\Source\Output\WorldServer\Release\slord.obj
	.686P
	.XMM
	include listing.inc
	.model	flat

INCLUDELIB LIBCMT
INCLUDELIB OLDNAMES

CONST	SEGMENT
?piecewise_construct@std@@3Upiecewise_construct_t@1@B	ORG $+1 ; std::piecewise_construct
CONST	ENDS
PUBLIC	?__empty_global_delete@@YAXPAX@Z		; __empty_global_delete
PUBLIC	?__empty_global_delete@@YAXPAXI@Z		; __empty_global_delete
PUBLIC	??1CLordSkillComponentExecutable@@UAE@XZ	; CLordSkillComponentExecutable::~CLordSkillComponentExecutable
PUBLIC	?Execute@CLordSkillComponentExecutable@@UAEXKKPAX@Z ; CLordSkillComponentExecutable::Execute
PUBLIC	??_GCLordSkillComponentExecutable@@UAEPAXI@Z	; CLordSkillComponentExecutable::`scalar deleting destructor'
PUBLIC	?DoReturnDeposit@IElection@@MAEXXZ		; IElection::DoReturnDeposit
PUBLIC	?DoTestAddDeposit@IElection@@MAEHK_JJ@Z		; IElection::DoTestAddDeposit
PUBLIC	?DoSetPlegeComplete@IElection@@MAEXXZ		; IElection::DoSetPlegeComplete
PUBLIC	?DoIncVoteComplete@IElection@@MAEXXZ		; IElection::DoIncVoteComplete
PUBLIC	?DoEndVoteComplete@IElection@@MAEXXZ		; IElection::DoEndVoteComplete
PUBLIC	?GetController@CLord@@UAEPAVCLController@@XZ	; CLord::GetController
PUBLIC	??0CSLord@@QAE@XZ				; CSLord::CSLord
PUBLIC	??1CSLord@@UAE@XZ				; CSLord::~CSLord
PUBLIC	?Instance@CSLord@@SAPAV1@XZ			; CSLord::Instance
PUBLIC	?CreateColleagues@CSLord@@UAEXXZ		; CSLord::CreateColleagues
PUBLIC	?DestroyColleagues@CSLord@@UAEXXZ		; CSLord::DestroyColleagues
PUBLIC	??_GCSLord@@UAEPAXI@Z				; CSLord::`scalar deleting destructor'
PUBLIC	??0CSElection@@QAE@PAVCLord@@@Z			; CSElection::CSElection
PUBLIC	??1CSElection@@UAE@XZ				; CSElection::~CSElection
PUBLIC	?DoTestBeginCandidacy@CSElection@@MAEHXZ	; CSElection::DoTestBeginCandidacy
PUBLIC	?DoTestBeginVote@CSElection@@MAEHAAH@Z		; CSElection::DoTestBeginVote
PUBLIC	?DoTestEndVote@CSElection@@MAEHK@Z		; CSElection::DoTestEndVote
PUBLIC	?DoAddDepositComplete@CSElection@@MAEXK_JJ@Z	; CSElection::DoAddDepositComplete
PUBLIC	?DoTestSetPledge@CSElection@@MAEHKPBD@Z		; CSElection::DoTestSetPledge
PUBLIC	?DoTestIncVote@CSElection@@MAEHKK@Z		; CSElection::DoTestIncVote
PUBLIC	??_GCSElection@@UAEPAXI@Z			; CSElection::`scalar deleting destructor'
PUBLIC	??0CLEvent@@QAE@PAVCLord@@@Z			; CLEvent::CLEvent
PUBLIC	??1CLEvent@@UAE@XZ				; CLEvent::~CLEvent
PUBLIC	?DoTestAddComponent@CLEvent@@MAEHPAVCLEComponent@@@Z ; CLEvent::DoTestAddComponent
PUBLIC	?DoTestInitialize@CLEvent@@MAEHXZ		; CLEvent::DoTestInitialize
PUBLIC	??_GCLEvent@@UAEPAXI@Z				; CLEvent::`scalar deleting destructor'
PUBLIC	??0CSLordSkill@@QAE@PAVCLord@@@Z		; CSLordSkill::CSLordSkill
PUBLIC	??1CSLordSkill@@UAE@XZ				; CSLordSkill::~CSLordSkill
PUBLIC	?CreateSkillComponent@CSLordSkill@@UAEPAVCLordSkillComponentExecutable@@H@Z ; CSLordSkill::CreateSkillComponent
PUBLIC	??_GCSLordSkill@@UAEPAXI@Z			; CSLordSkill::`scalar deleting destructor'
PUBLIC	?AddDepositRequirements@election@@YAHPAVCUser@@_JAA_J@Z ; election::AddDepositRequirements
PUBLIC	?SetPledgeRequirements@election@@YAHPAVCUser@@AAH@Z ; election::SetPledgeRequirements
PUBLIC	?IncVoteRequirements@election@@YAHPAVCUser@@K@Z	; election::IncVoteRequirements
PUBLIC	?CreateRequirements@lordevent@@YAHPAVCUser@@HH@Z ; lordevent::CreateRequirements
PUBLIC	??1CLordSkillComponentItemBuf@@UAE@XZ		; CLordSkillComponentItemBuf::~CLordSkillComponentItemBuf
PUBLIC	??_GCLordSkillComponentItemBuf@@UAEPAXI@Z	; CLordSkillComponentItemBuf::`scalar deleting destructor'
PUBLIC	??1CLordSkillComponentSummon@@UAE@XZ		; CLordSkillComponentSummon::~CLordSkillComponentSummon
PUBLIC	??_GCLordSkillComponentSummon@@UAEPAXI@Z	; CLordSkillComponentSummon::`scalar deleting destructor'
PUBLIC	??1CLordSkillComponentTeleport@@UAE@XZ		; CLordSkillComponentTeleport::~CLordSkillComponentTeleport
PUBLIC	??_GCLordSkillComponentTeleport@@UAEPAXI@Z	; CLordSkillComponentTeleport::`scalar deleting destructor'
PUBLIC	??_7CLordSkillComponentExecutable@@6B@		; CLordSkillComponentExecutable::`vftable'
PUBLIC	??_7CSLord@@6B@					; CSLord::`vftable'
PUBLIC	??_7CSElection@@6B@				; CSElection::`vftable'
PUBLIC	??_7CLEvent@@6B@				; CLEvent::`vftable'
PUBLIC	??_7CSLordSkill@@6B@				; CSLordSkill::`vftable'
PUBLIC	??_7CLordSkillComponentItemBuf@@6B@		; CLordSkillComponentItemBuf::`vftable'
PUBLIC	??_7CLordSkillComponentSummon@@6B@		; CLordSkillComponentSummon::`vftable'
PUBLIC	??_7CLordSkillComponentTeleport@@6B@		; CLordSkillComponentTeleport::`vftable'
PUBLIC	??_C@_0O@NKJDDJPP@lordevent?4inc@		; `string'
PUBLIC	??_C@_0O@DNECDNPA@lordskill?4txt@		; `string'
PUBLIC	??_R4CLordSkillComponentExecutable@@6B@		; CLordSkillComponentExecutable::`RTTI Complete Object Locator'
PUBLIC	??_R0?AVCLordSkillComponentExecutable@@@8	; CLordSkillComponentExecutable `RTTI Type Descriptor'
PUBLIC	??_R3CLordSkillComponentExecutable@@8		; CLordSkillComponentExecutable::`RTTI Class Hierarchy Descriptor'
PUBLIC	??_R2CLordSkillComponentExecutable@@8		; CLordSkillComponentExecutable::`RTTI Base Class Array'
PUBLIC	??_R1A@?0A@EA@CLordSkillComponentExecutable@@8	; CLordSkillComponentExecutable::`RTTI Base Class Descriptor at (0,-1,0,64)'
PUBLIC	??_R1A@?0A@EA@CLordSkillComponent@@8		; CLordSkillComponent::`RTTI Base Class Descriptor at (0,-1,0,64)'
PUBLIC	??_R0?AVCLordSkillComponent@@@8			; CLordSkillComponent `RTTI Type Descriptor'
PUBLIC	??_R3CLordSkillComponent@@8			; CLordSkillComponent::`RTTI Class Hierarchy Descriptor'
PUBLIC	??_R2CLordSkillComponent@@8			; CLordSkillComponent::`RTTI Base Class Array'
PUBLIC	??_R4CSLord@@6B@				; CSLord::`RTTI Complete Object Locator'
PUBLIC	??_R0?AVCSLord@@@8				; CSLord `RTTI Type Descriptor'
PUBLIC	??_R3CSLord@@8					; CSLord::`RTTI Class Hierarchy Descriptor'
PUBLIC	??_R2CSLord@@8					; CSLord::`RTTI Base Class Array'
PUBLIC	??_R1A@?0A@EA@CSLord@@8				; CSLord::`RTTI Base Class Descriptor at (0,-1,0,64)'
PUBLIC	??_R1A@?0A@EA@CLord@@8				; CLord::`RTTI Base Class Descriptor at (0,-1,0,64)'
PUBLIC	??_R0?AVCLord@@@8				; CLord `RTTI Type Descriptor'
PUBLIC	??_R3CLord@@8					; CLord::`RTTI Class Hierarchy Descriptor'
PUBLIC	??_R2CLord@@8					; CLord::`RTTI Base Class Array'
PUBLIC	??_R4CSElection@@6B@				; CSElection::`RTTI Complete Object Locator'
PUBLIC	??_R0?AVCSElection@@@8				; CSElection `RTTI Type Descriptor'
PUBLIC	??_R3CSElection@@8				; CSElection::`RTTI Class Hierarchy Descriptor'
PUBLIC	??_R2CSElection@@8				; CSElection::`RTTI Base Class Array'
PUBLIC	??_R1A@?0A@EA@CSElection@@8			; CSElection::`RTTI Base Class Descriptor at (0,-1,0,64)'
PUBLIC	??_R1A@?0A@EA@IElection@@8			; IElection::`RTTI Base Class Descriptor at (0,-1,0,64)'
PUBLIC	??_R0?AVIElection@@@8				; IElection `RTTI Type Descriptor'
PUBLIC	??_R3IElection@@8				; IElection::`RTTI Class Hierarchy Descriptor'
PUBLIC	??_R2IElection@@8				; IElection::`RTTI Base Class Array'
PUBLIC	??_R4CLEvent@@6B@				; CLEvent::`RTTI Complete Object Locator'
PUBLIC	??_R0?AVCLEvent@@@8				; CLEvent `RTTI Type Descriptor'
PUBLIC	??_R3CLEvent@@8					; CLEvent::`RTTI Class Hierarchy Descriptor'
PUBLIC	??_R2CLEvent@@8					; CLEvent::`RTTI Base Class Array'
PUBLIC	??_R1A@?0A@EA@CLEvent@@8			; CLEvent::`RTTI Base Class Descriptor at (0,-1,0,64)'
PUBLIC	??_R1A@?0A@EA@ILordEvent@@8			; ILordEvent::`RTTI Base Class Descriptor at (0,-1,0,64)'
PUBLIC	??_R0?AVILordEvent@@@8				; ILordEvent `RTTI Type Descriptor'
PUBLIC	??_R3ILordEvent@@8				; ILordEvent::`RTTI Class Hierarchy Descriptor'
PUBLIC	??_R2ILordEvent@@8				; ILordEvent::`RTTI Base Class Array'
PUBLIC	??_R4CSLordSkill@@6B@				; CSLordSkill::`RTTI Complete Object Locator'
PUBLIC	??_R0?AVCSLordSkill@@@8				; CSLordSkill `RTTI Type Descriptor'
PUBLIC	??_R3CSLordSkill@@8				; CSLordSkill::`RTTI Class Hierarchy Descriptor'
PUBLIC	??_R2CSLordSkill@@8				; CSLordSkill::`RTTI Base Class Array'
PUBLIC	??_R1A@?0A@EA@CSLordSkill@@8			; CSLordSkill::`RTTI Base Class Descriptor at (0,-1,0,64)'
PUBLIC	??_R1A@?0A@EA@CLordSkill@@8			; CLordSkill::`RTTI Base Class Descriptor at (0,-1,0,64)'
PUBLIC	??_R0?AVCLordSkill@@@8				; CLordSkill `RTTI Type Descriptor'
PUBLIC	??_R3CLordSkill@@8				; CLordSkill::`RTTI Class Hierarchy Descriptor'
PUBLIC	??_R2CLordSkill@@8				; CLordSkill::`RTTI Base Class Array'
PUBLIC	??_R4CLordSkillComponentItemBuf@@6B@		; CLordSkillComponentItemBuf::`RTTI Complete Object Locator'
PUBLIC	??_R0?AVCLordSkillComponentItemBuf@@@8		; CLordSkillComponentItemBuf `RTTI Type Descriptor'
PUBLIC	??_R3CLordSkillComponentItemBuf@@8		; CLordSkillComponentItemBuf::`RTTI Class Hierarchy Descriptor'
PUBLIC	??_R2CLordSkillComponentItemBuf@@8		; CLordSkillComponentItemBuf::`RTTI Base Class Array'
PUBLIC	??_R1A@?0A@EA@CLordSkillComponentItemBuf@@8	; CLordSkillComponentItemBuf::`RTTI Base Class Descriptor at (0,-1,0,64)'
PUBLIC	??_R4CLordSkillComponentSummon@@6B@		; CLordSkillComponentSummon::`RTTI Complete Object Locator'
PUBLIC	??_R0?AVCLordSkillComponentSummon@@@8		; CLordSkillComponentSummon `RTTI Type Descriptor'
PUBLIC	??_R3CLordSkillComponentSummon@@8		; CLordSkillComponentSummon::`RTTI Class Hierarchy Descriptor'
PUBLIC	??_R2CLordSkillComponentSummon@@8		; CLordSkillComponentSummon::`RTTI Base Class Array'
PUBLIC	??_R1A@?0A@EA@CLordSkillComponentSummon@@8	; CLordSkillComponentSummon::`RTTI Base Class Descriptor at (0,-1,0,64)'
PUBLIC	??_R4CLordSkillComponentTeleport@@6B@		; CLordSkillComponentTeleport::`RTTI Complete Object Locator'
PUBLIC	??_R0?AVCLordSkillComponentTeleport@@@8		; CLordSkillComponentTeleport `RTTI Type Descriptor'
PUBLIC	??_R3CLordSkillComponentTeleport@@8		; CLordSkillComponentTeleport::`RTTI Class Hierarchy Descriptor'
PUBLIC	??_R2CLordSkillComponentTeleport@@8		; CLordSkillComponentTeleport::`RTTI Base Class Array'
PUBLIC	??_R1A@?0A@EA@CLordSkillComponentTeleport@@8	; CLordSkillComponentTeleport::`RTTI Base Class Descriptor at (0,-1,0,64)'
EXTRN	??2@YAPAXI@Z:PROC				; operator new
EXTRN	??3@YAXPAXI@Z:PROC				; operator delete
EXTRN	_atexit:PROC
EXTRN	__Init_thread_header:PROC
EXTRN	__Init_thread_abort:PROC
EXTRN	__Init_thread_footer:PROC
EXTRN	__imp__lstrlenA@4:PROC
EXTRN	?GetTotalGold@CMover@@QAE_JXZ:PROC		; CMover::GetTotalGold
EXTRN	?IsMaster@CMover@@QAEHXZ:PROC			; CMover::IsMaster
EXTRN	?IsHero@CMover@@QAEHXZ:PROC			; CMover::IsHero
EXTRN	?IsLegendHero@CMover@@QAEHXZ:PROC		; CMover::IsLegendHero
EXTRN	??0CLordSkillComponent@@QAE@XZ:PROC		; CLordSkillComponent::CLordSkillComponent
EXTRN	??1CLordSkillComponent@@UAE@XZ:PROC		; CLordSkillComponent::~CLordSkillComponent
EXTRN	?IsExecutable@CLordSkillComponentExecutable@@UAEHPAVCUser@@PBDAAK@Z:PROC ; CLordSkillComponentExecutable::IsExecutable
EXTRN	??_ECLordSkillComponentExecutable@@UAEPAXI@Z:PROC ; CLordSkillComponentExecutable::`vector deleting destructor'
EXTRN	??0CLordSkill@@QAE@PAVCLord@@@Z:PROC		; CLordSkill::CLordSkill
EXTRN	??1CLordSkill@@UAE@XZ:PROC			; CLordSkill::~CLordSkill
EXTRN	?Initialize@CLordSkill@@QAEHPBD@Z:PROC		; CLordSkill::Initialize
EXTRN	??0IElection@@IAE@PAVCLord@@@Z:PROC		; IElection::IElection
EXTRN	??1IElection@@UAE@XZ:PROC			; IElection::~IElection
EXTRN	?GetCandidate@IElection@@QAEPAVCCandidate@@K@Z:PROC ; IElection::GetCandidate
EXTRN	??0ILordEvent@@IAE@PAVCLord@@@Z:PROC		; ILordEvent::ILordEvent
EXTRN	??1ILordEvent@@UAE@XZ:PROC			; ILordEvent::~ILordEvent
EXTRN	?GetComponent@ILordEvent@@QAEPAVCLEComponent@@K@Z:PROC ; ILordEvent::GetComponent
EXTRN	?GetCost@ILordEvent@@QAE_JHH@Z:PROC		; ILordEvent::GetCost
EXTRN	?Initialize@ILordEvent@@QAEHPBD@Z:PROC		; ILordEvent::Initialize
EXTRN	??1CLord@@QAE@XZ:PROC				; CLord::~CLord
EXTRN	??0CLord@@IAE@XZ:PROC				; CLord::CLord
EXTRN	??_ECSLord@@UAEPAXI@Z:PROC			; CSLord::`vector deleting destructor'
EXTRN	??_ECSElection@@UAEPAXI@Z:PROC			; CSElection::`vector deleting destructor'
EXTRN	??_ECLEvent@@UAEPAXI@Z:PROC			; CLEvent::`vector deleting destructor'
EXTRN	??_ECSLordSkill@@UAEPAXI@Z:PROC			; CSLordSkill::`vector deleting destructor'
EXTRN	?Execute@CLordSkillComponentItemBuf@@UAEXKKPAX@Z:PROC ; CLordSkillComponentItemBuf::Execute
EXTRN	??_ECLordSkillComponentItemBuf@@UAEPAXI@Z:PROC	; CLordSkillComponentItemBuf::`vector deleting destructor'
EXTRN	?Execute@CLordSkillComponentSummon@@UAEXKKPAX@Z:PROC ; CLordSkillComponentSummon::Execute
EXTRN	?IsExecutable@CLordSkillComponentSummon@@UAEHPAVCUser@@PBDAAK@Z:PROC ; CLordSkillComponentSummon::IsExecutable
EXTRN	??_ECLordSkillComponentSummon@@UAEPAXI@Z:PROC	; CLordSkillComponentSummon::`vector deleting destructor'
EXTRN	?Execute@CLordSkillComponentTeleport@@UAEXKKPAX@Z:PROC ; CLordSkillComponentTeleport::Execute
EXTRN	?IsExecutable@CLordSkillComponentTeleport@@UAEHPAVCUser@@PBDAAK@Z:PROC ; CLordSkillComponentTeleport::IsExecutable
EXTRN	??_ECLordSkillComponentTeleport@@UAEPAXI@Z:PROC	; CLordSkillComponentTeleport::`vector deleting destructor'
EXTRN	?AddElectionBeginCandidacy@CUserMng@@QAEXXZ:PROC ; CUserMng::AddElectionBeginCandidacy
EXTRN	?AddElectionBeginVote@CUserMng@@QAEXH@Z:PROC	; CUserMng::AddElectionBeginVote
EXTRN	?AddElectionEndVote@CUserMng@@QAEXK@Z:PROC	; CUserMng::AddElectionEndVote
EXTRN	?AddElectionAddDeposit@CUserMng@@QAEXK_JJ@Z:PROC ; CUserMng::AddElectionAddDeposit
EXTRN	?AddElectionSetPledge@CUserMng@@QAEXKPBD@Z:PROC	; CUserMng::AddElectionSetPledge
EXTRN	?AddElectionIncVote@CUserMng@@QAEXKK@Z:PROC	; CUserMng::AddElectionIncVote
EXTRN	?AddLEventCreate@CUserMng@@QAEXPAVCLEComponent@@@Z:PROC ; CUserMng::AddLEventCreate
EXTRN	?AddLEventInitialize@CUserMng@@QAEXXZ:PROC	; CUserMng::AddLEventInitialize
EXTRN	?AddQueryPlayerData@CUserMng@@QAEXK@Z:PROC	; CUserMng::AddQueryPlayerData
EXTRN	@__security_check_cookie@4:PROC
EXTRN	___CxxFrameHandler3:PROC
EXTRN	__Init_thread_epoch:DWORD
EXTRN	??_7type_info@@6B@:QWORD			; type_info::`vftable'
EXTRN	?g_UserMng@@3VCUserMng@@A:BYTE			; g_UserMng
EXTRN	___security_cookie:DWORD
EXTRN	__tls_array:DWORD
EXTRN	__tls_index:DWORD
;	COMDAT ?sLord@?1??Instance@CSLord@@SAPAV2@XZ@4V2@A
_BSS	SEGMENT
?sLord@?1??Instance@CSLord@@SAPAV2@XZ@4V2@A DB 014H DUP (?) ; `CSLord::Instance'::`2'::sLord
_BSS	ENDS
;	COMDAT ?$TSS0@?1??Instance@CSLord@@SAPAV2@XZ@4HA
_BSS	SEGMENT
?$TSS0@?1??Instance@CSLord@@SAPAV2@XZ@4HA DD 01H DUP (?) ; `CSLord::Instance'::`2'::$TSS0
_BSS	ENDS
;	COMDAT ??_R1A@?0A@EA@CLordSkillComponentTeleport@@8
rdata$r	SEGMENT
??_R1A@?0A@EA@CLordSkillComponentTeleport@@8 DD FLAT:??_R0?AVCLordSkillComponentTeleport@@@8 ; CLordSkillComponentTeleport::`RTTI Base Class Descriptor at (0,-1,0,64)'
	DD	02H
	DD	00H
	DD	0ffffffffH
	DD	00H
	DD	040H
	DD	FLAT:??_R3CLordSkillComponentTeleport@@8
rdata$r	ENDS
;	COMDAT ??_R2CLordSkillComponentTeleport@@8
rdata$r	SEGMENT
??_R2CLordSkillComponentTeleport@@8 DD FLAT:??_R1A@?0A@EA@CLordSkillComponentTeleport@@8 ; CLordSkillComponentTeleport::`RTTI Base Class Array'
	DD	FLAT:??_R1A@?0A@EA@CLordSkillComponentExecutable@@8
	DD	FLAT:??_R1A@?0A@EA@CLordSkillComponent@@8
rdata$r	ENDS
;	COMDAT ??_R3CLordSkillComponentTeleport@@8
rdata$r	SEGMENT
??_R3CLordSkillComponentTeleport@@8 DD 00H		; CLordSkillComponentTeleport::`RTTI Class Hierarchy Descriptor'
	DD	00H
	DD	03H
	DD	FLAT:??_R2CLordSkillComponentTeleport@@8
rdata$r	ENDS
;	COMDAT ??_R0?AVCLordSkillComponentTeleport@@@8
data$rs	SEGMENT
??_R0?AVCLordSkillComponentTeleport@@@8 DD FLAT:??_7type_info@@6B@ ; CLordSkillComponentTeleport `RTTI Type Descriptor'
	DD	00H
	DB	'.?AVCLordSkillComponentTeleport@@', 00H
data$rs	ENDS
;	COMDAT ??_R4CLordSkillComponentTeleport@@6B@
rdata$r	SEGMENT
??_R4CLordSkillComponentTeleport@@6B@ DD 00H		; CLordSkillComponentTeleport::`RTTI Complete Object Locator'
	DD	00H
	DD	00H
	DD	FLAT:??_R0?AVCLordSkillComponentTeleport@@@8
	DD	FLAT:??_R3CLordSkillComponentTeleport@@8
rdata$r	ENDS
;	COMDAT ??_R1A@?0A@EA@CLordSkillComponentSummon@@8
rdata$r	SEGMENT
??_R1A@?0A@EA@CLordSkillComponentSummon@@8 DD FLAT:??_R0?AVCLordSkillComponentSummon@@@8 ; CLordSkillComponentSummon::`RTTI Base Class Descriptor at (0,-1,0,64)'
	DD	02H
	DD	00H
	DD	0ffffffffH
	DD	00H
	DD	040H
	DD	FLAT:??_R3CLordSkillComponentSummon@@8
rdata$r	ENDS
;	COMDAT ??_R2CLordSkillComponentSummon@@8
rdata$r	SEGMENT
??_R2CLordSkillComponentSummon@@8 DD FLAT:??_R1A@?0A@EA@CLordSkillComponentSummon@@8 ; CLordSkillComponentSummon::`RTTI Base Class Array'
	DD	FLAT:??_R1A@?0A@EA@CLordSkillComponentExecutable@@8
	DD	FLAT:??_R1A@?0A@EA@CLordSkillComponent@@8
rdata$r	ENDS
;	COMDAT ??_R3CLordSkillComponentSummon@@8
rdata$r	SEGMENT
??_R3CLordSkillComponentSummon@@8 DD 00H		; CLordSkillComponentSummon::`RTTI Class Hierarchy Descriptor'
	DD	00H
	DD	03H
	DD	FLAT:??_R2CLordSkillComponentSummon@@8
rdata$r	ENDS
;	COMDAT ??_R0?AVCLordSkillComponentSummon@@@8
data$rs	SEGMENT
??_R0?AVCLordSkillComponentSummon@@@8 DD FLAT:??_7type_info@@6B@ ; CLordSkillComponentSummon `RTTI Type Descriptor'
	DD	00H
	DB	'.?AVCLordSkillComponentSummon@@', 00H
data$rs	ENDS
;	COMDAT ??_R4CLordSkillComponentSummon@@6B@
rdata$r	SEGMENT
??_R4CLordSkillComponentSummon@@6B@ DD 00H		; CLordSkillComponentSummon::`RTTI Complete Object Locator'
	DD	00H
	DD	00H
	DD	FLAT:??_R0?AVCLordSkillComponentSummon@@@8
	DD	FLAT:??_R3CLordSkillComponentSummon@@8
rdata$r	ENDS
;	COMDAT ??_R1A@?0A@EA@CLordSkillComponentItemBuf@@8
rdata$r	SEGMENT
??_R1A@?0A@EA@CLordSkillComponentItemBuf@@8 DD FLAT:??_R0?AVCLordSkillComponentItemBuf@@@8 ; CLordSkillComponentItemBuf::`RTTI Base Class Descriptor at (0,-1,0,64)'
	DD	02H
	DD	00H
	DD	0ffffffffH
	DD	00H
	DD	040H
	DD	FLAT:??_R3CLordSkillComponentItemBuf@@8
rdata$r	ENDS
;	COMDAT ??_R2CLordSkillComponentItemBuf@@8
rdata$r	SEGMENT
??_R2CLordSkillComponentItemBuf@@8 DD FLAT:??_R1A@?0A@EA@CLordSkillComponentItemBuf@@8 ; CLordSkillComponentItemBuf::`RTTI Base Class Array'
	DD	FLAT:??_R1A@?0A@EA@CLordSkillComponentExecutable@@8
	DD	FLAT:??_R1A@?0A@EA@CLordSkillComponent@@8
rdata$r	ENDS
;	COMDAT ??_R3CLordSkillComponentItemBuf@@8
rdata$r	SEGMENT
??_R3CLordSkillComponentItemBuf@@8 DD 00H		; CLordSkillComponentItemBuf::`RTTI Class Hierarchy Descriptor'
	DD	00H
	DD	03H
	DD	FLAT:??_R2CLordSkillComponentItemBuf@@8
rdata$r	ENDS
;	COMDAT ??_R0?AVCLordSkillComponentItemBuf@@@8
data$rs	SEGMENT
??_R0?AVCLordSkillComponentItemBuf@@@8 DD FLAT:??_7type_info@@6B@ ; CLordSkillComponentItemBuf `RTTI Type Descriptor'
	DD	00H
	DB	'.?AVCLordSkillComponentItemBuf@@', 00H
data$rs	ENDS
;	COMDAT ??_R4CLordSkillComponentItemBuf@@6B@
rdata$r	SEGMENT
??_R4CLordSkillComponentItemBuf@@6B@ DD 00H		; CLordSkillComponentItemBuf::`RTTI Complete Object Locator'
	DD	00H
	DD	00H
	DD	FLAT:??_R0?AVCLordSkillComponentItemBuf@@@8
	DD	FLAT:??_R3CLordSkillComponentItemBuf@@8
rdata$r	ENDS
;	COMDAT ??_R2CLordSkill@@8
rdata$r	SEGMENT
??_R2CLordSkill@@8 DD FLAT:??_R1A@?0A@EA@CLordSkill@@8	; CLordSkill::`RTTI Base Class Array'
rdata$r	ENDS
;	COMDAT ??_R3CLordSkill@@8
rdata$r	SEGMENT
??_R3CLordSkill@@8 DD 00H				; CLordSkill::`RTTI Class Hierarchy Descriptor'
	DD	00H
	DD	01H
	DD	FLAT:??_R2CLordSkill@@8
rdata$r	ENDS
;	COMDAT ??_R0?AVCLordSkill@@@8
data$rs	SEGMENT
??_R0?AVCLordSkill@@@8 DD FLAT:??_7type_info@@6B@	; CLordSkill `RTTI Type Descriptor'
	DD	00H
	DB	'.?AVCLordSkill@@', 00H
data$rs	ENDS
;	COMDAT ??_R1A@?0A@EA@CLordSkill@@8
rdata$r	SEGMENT
??_R1A@?0A@EA@CLordSkill@@8 DD FLAT:??_R0?AVCLordSkill@@@8 ; CLordSkill::`RTTI Base Class Descriptor at (0,-1,0,64)'
	DD	00H
	DD	00H
	DD	0ffffffffH
	DD	00H
	DD	040H
	DD	FLAT:??_R3CLordSkill@@8
rdata$r	ENDS
;	COMDAT ??_R1A@?0A@EA@CSLordSkill@@8
rdata$r	SEGMENT
??_R1A@?0A@EA@CSLordSkill@@8 DD FLAT:??_R0?AVCSLordSkill@@@8 ; CSLordSkill::`RTTI Base Class Descriptor at (0,-1,0,64)'
	DD	01H
	DD	00H
	DD	0ffffffffH
	DD	00H
	DD	040H
	DD	FLAT:??_R3CSLordSkill@@8
rdata$r	ENDS
;	COMDAT ??_R2CSLordSkill@@8
rdata$r	SEGMENT
??_R2CSLordSkill@@8 DD FLAT:??_R1A@?0A@EA@CSLordSkill@@8 ; CSLordSkill::`RTTI Base Class Array'
	DD	FLAT:??_R1A@?0A@EA@CLordSkill@@8
rdata$r	ENDS
;	COMDAT ??_R3CSLordSkill@@8
rdata$r	SEGMENT
??_R3CSLordSkill@@8 DD 00H				; CSLordSkill::`RTTI Class Hierarchy Descriptor'
	DD	00H
	DD	02H
	DD	FLAT:??_R2CSLordSkill@@8
rdata$r	ENDS
;	COMDAT ??_R0?AVCSLordSkill@@@8
data$rs	SEGMENT
??_R0?AVCSLordSkill@@@8 DD FLAT:??_7type_info@@6B@	; CSLordSkill `RTTI Type Descriptor'
	DD	00H
	DB	'.?AVCSLordSkill@@', 00H
data$rs	ENDS
;	COMDAT ??_R4CSLordSkill@@6B@
rdata$r	SEGMENT
??_R4CSLordSkill@@6B@ DD 00H				; CSLordSkill::`RTTI Complete Object Locator'
	DD	00H
	DD	00H
	DD	FLAT:??_R0?AVCSLordSkill@@@8
	DD	FLAT:??_R3CSLordSkill@@8
rdata$r	ENDS
;	COMDAT ??_R2ILordEvent@@8
rdata$r	SEGMENT
??_R2ILordEvent@@8 DD FLAT:??_R1A@?0A@EA@ILordEvent@@8	; ILordEvent::`RTTI Base Class Array'
rdata$r	ENDS
;	COMDAT ??_R3ILordEvent@@8
rdata$r	SEGMENT
??_R3ILordEvent@@8 DD 00H				; ILordEvent::`RTTI Class Hierarchy Descriptor'
	DD	00H
	DD	01H
	DD	FLAT:??_R2ILordEvent@@8
rdata$r	ENDS
;	COMDAT ??_R0?AVILordEvent@@@8
data$rs	SEGMENT
??_R0?AVILordEvent@@@8 DD FLAT:??_7type_info@@6B@	; ILordEvent `RTTI Type Descriptor'
	DD	00H
	DB	'.?AVILordEvent@@', 00H
data$rs	ENDS
;	COMDAT ??_R1A@?0A@EA@ILordEvent@@8
rdata$r	SEGMENT
??_R1A@?0A@EA@ILordEvent@@8 DD FLAT:??_R0?AVILordEvent@@@8 ; ILordEvent::`RTTI Base Class Descriptor at (0,-1,0,64)'
	DD	00H
	DD	00H
	DD	0ffffffffH
	DD	00H
	DD	040H
	DD	FLAT:??_R3ILordEvent@@8
rdata$r	ENDS
;	COMDAT ??_R1A@?0A@EA@CLEvent@@8
rdata$r	SEGMENT
??_R1A@?0A@EA@CLEvent@@8 DD FLAT:??_R0?AVCLEvent@@@8	; CLEvent::`RTTI Base Class Descriptor at (0,-1,0,64)'
	DD	01H
	DD	00H
	DD	0ffffffffH
	DD	00H
	DD	040H
	DD	FLAT:??_R3CLEvent@@8
rdata$r	ENDS
;	COMDAT ??_R2CLEvent@@8
rdata$r	SEGMENT
??_R2CLEvent@@8 DD FLAT:??_R1A@?0A@EA@CLEvent@@8	; CLEvent::`RTTI Base Class Array'
	DD	FLAT:??_R1A@?0A@EA@ILordEvent@@8
rdata$r	ENDS
;	COMDAT ??_R3CLEvent@@8
rdata$r	SEGMENT
??_R3CLEvent@@8 DD 00H					; CLEvent::`RTTI Class Hierarchy Descriptor'
	DD	00H
	DD	02H
	DD	FLAT:??_R2CLEvent@@8
rdata$r	ENDS
;	COMDAT ??_R0?AVCLEvent@@@8
data$rs	SEGMENT
??_R0?AVCLEvent@@@8 DD FLAT:??_7type_info@@6B@		; CLEvent `RTTI Type Descriptor'
	DD	00H
	DB	'.?AVCLEvent@@', 00H
data$rs	ENDS
;	COMDAT ??_R4CLEvent@@6B@
rdata$r	SEGMENT
??_R4CLEvent@@6B@ DD 00H				; CLEvent::`RTTI Complete Object Locator'
	DD	00H
	DD	00H
	DD	FLAT:??_R0?AVCLEvent@@@8
	DD	FLAT:??_R3CLEvent@@8
rdata$r	ENDS
;	COMDAT ??_R2IElection@@8
rdata$r	SEGMENT
??_R2IElection@@8 DD FLAT:??_R1A@?0A@EA@IElection@@8	; IElection::`RTTI Base Class Array'
rdata$r	ENDS
;	COMDAT ??_R3IElection@@8
rdata$r	SEGMENT
??_R3IElection@@8 DD 00H				; IElection::`RTTI Class Hierarchy Descriptor'
	DD	00H
	DD	01H
	DD	FLAT:??_R2IElection@@8
rdata$r	ENDS
;	COMDAT ??_R0?AVIElection@@@8
data$rs	SEGMENT
??_R0?AVIElection@@@8 DD FLAT:??_7type_info@@6B@	; IElection `RTTI Type Descriptor'
	DD	00H
	DB	'.?AVIElection@@', 00H
data$rs	ENDS
;	COMDAT ??_R1A@?0A@EA@IElection@@8
rdata$r	SEGMENT
??_R1A@?0A@EA@IElection@@8 DD FLAT:??_R0?AVIElection@@@8 ; IElection::`RTTI Base Class Descriptor at (0,-1,0,64)'
	DD	00H
	DD	00H
	DD	0ffffffffH
	DD	00H
	DD	040H
	DD	FLAT:??_R3IElection@@8
rdata$r	ENDS
;	COMDAT ??_R1A@?0A@EA@CSElection@@8
rdata$r	SEGMENT
??_R1A@?0A@EA@CSElection@@8 DD FLAT:??_R0?AVCSElection@@@8 ; CSElection::`RTTI Base Class Descriptor at (0,-1,0,64)'
	DD	01H
	DD	00H
	DD	0ffffffffH
	DD	00H
	DD	040H
	DD	FLAT:??_R3CSElection@@8
rdata$r	ENDS
;	COMDAT ??_R2CSElection@@8
rdata$r	SEGMENT
??_R2CSElection@@8 DD FLAT:??_R1A@?0A@EA@CSElection@@8	; CSElection::`RTTI Base Class Array'
	DD	FLAT:??_R1A@?0A@EA@IElection@@8
rdata$r	ENDS
;	COMDAT ??_R3CSElection@@8
rdata$r	SEGMENT
??_R3CSElection@@8 DD 00H				; CSElection::`RTTI Class Hierarchy Descriptor'
	DD	00H
	DD	02H
	DD	FLAT:??_R2CSElection@@8
rdata$r	ENDS
;	COMDAT ??_R0?AVCSElection@@@8
data$rs	SEGMENT
??_R0?AVCSElection@@@8 DD FLAT:??_7type_info@@6B@	; CSElection `RTTI Type Descriptor'
	DD	00H
	DB	'.?AVCSElection@@', 00H
data$rs	ENDS
;	COMDAT ??_R4CSElection@@6B@
rdata$r	SEGMENT
??_R4CSElection@@6B@ DD 00H				; CSElection::`RTTI Complete Object Locator'
	DD	00H
	DD	00H
	DD	FLAT:??_R0?AVCSElection@@@8
	DD	FLAT:??_R3CSElection@@8
rdata$r	ENDS
;	COMDAT ??_R2CLord@@8
rdata$r	SEGMENT
??_R2CLord@@8 DD FLAT:??_R1A@?0A@EA@CLord@@8		; CLord::`RTTI Base Class Array'
rdata$r	ENDS
;	COMDAT ??_R3CLord@@8
rdata$r	SEGMENT
??_R3CLord@@8 DD 00H					; CLord::`RTTI Class Hierarchy Descriptor'
	DD	00H
	DD	01H
	DD	FLAT:??_R2CLord@@8
rdata$r	ENDS
;	COMDAT ??_R0?AVCLord@@@8
data$rs	SEGMENT
??_R0?AVCLord@@@8 DD FLAT:??_7type_info@@6B@		; CLord `RTTI Type Descriptor'
	DD	00H
	DB	'.?AVCLord@@', 00H
data$rs	ENDS
;	COMDAT ??_R1A@?0A@EA@CLord@@8
rdata$r	SEGMENT
??_R1A@?0A@EA@CLord@@8 DD FLAT:??_R0?AVCLord@@@8	; CLord::`RTTI Base Class Descriptor at (0,-1,0,64)'
	DD	00H
	DD	00H
	DD	0ffffffffH
	DD	00H
	DD	040H
	DD	FLAT:??_R3CLord@@8
rdata$r	ENDS
;	COMDAT ??_R1A@?0A@EA@CSLord@@8
rdata$r	SEGMENT
??_R1A@?0A@EA@CSLord@@8 DD FLAT:??_R0?AVCSLord@@@8	; CSLord::`RTTI Base Class Descriptor at (0,-1,0,64)'
	DD	01H
	DD	00H
	DD	0ffffffffH
	DD	00H
	DD	040H
	DD	FLAT:??_R3CSLord@@8
rdata$r	ENDS
;	COMDAT ??_R2CSLord@@8
rdata$r	SEGMENT
??_R2CSLord@@8 DD FLAT:??_R1A@?0A@EA@CSLord@@8		; CSLord::`RTTI Base Class Array'
	DD	FLAT:??_R1A@?0A@EA@CLord@@8
rdata$r	ENDS
;	COMDAT ??_R3CSLord@@8
rdata$r	SEGMENT
??_R3CSLord@@8 DD 00H					; CSLord::`RTTI Class Hierarchy Descriptor'
	DD	00H
	DD	02H
	DD	FLAT:??_R2CSLord@@8
rdata$r	ENDS
;	COMDAT ??_R0?AVCSLord@@@8
data$rs	SEGMENT
??_R0?AVCSLord@@@8 DD FLAT:??_7type_info@@6B@		; CSLord `RTTI Type Descriptor'
	DD	00H
	DB	'.?AVCSLord@@', 00H
data$rs	ENDS
;	COMDAT ??_R4CSLord@@6B@
rdata$r	SEGMENT
??_R4CSLord@@6B@ DD 00H					; CSLord::`RTTI Complete Object Locator'
	DD	00H
	DD	00H
	DD	FLAT:??_R0?AVCSLord@@@8
	DD	FLAT:??_R3CSLord@@8
rdata$r	ENDS
;	COMDAT ??_R2CLordSkillComponent@@8
rdata$r	SEGMENT
??_R2CLordSkillComponent@@8 DD FLAT:??_R1A@?0A@EA@CLordSkillComponent@@8 ; CLordSkillComponent::`RTTI Base Class Array'
rdata$r	ENDS
;	COMDAT ??_R3CLordSkillComponent@@8
rdata$r	SEGMENT
??_R3CLordSkillComponent@@8 DD 00H			; CLordSkillComponent::`RTTI Class Hierarchy Descriptor'
	DD	00H
	DD	01H
	DD	FLAT:??_R2CLordSkillComponent@@8
rdata$r	ENDS
;	COMDAT ??_R0?AVCLordSkillComponent@@@8
data$rs	SEGMENT
??_R0?AVCLordSkillComponent@@@8 DD FLAT:??_7type_info@@6B@ ; CLordSkillComponent `RTTI Type Descriptor'
	DD	00H
	DB	'.?AVCLordSkillComponent@@', 00H
data$rs	ENDS
;	COMDAT ??_R1A@?0A@EA@CLordSkillComponent@@8
rdata$r	SEGMENT
??_R1A@?0A@EA@CLordSkillComponent@@8 DD FLAT:??_R0?AVCLordSkillComponent@@@8 ; CLordSkillComponent::`RTTI Base Class Descriptor at (0,-1,0,64)'
	DD	00H
	DD	00H
	DD	0ffffffffH
	DD	00H
	DD	040H
	DD	FLAT:??_R3CLordSkillComponent@@8
rdata$r	ENDS
;	COMDAT ??_R1A@?0A@EA@CLordSkillComponentExecutable@@8
rdata$r	SEGMENT
??_R1A@?0A@EA@CLordSkillComponentExecutable@@8 DD FLAT:??_R0?AVCLordSkillComponentExecutable@@@8 ; CLordSkillComponentExecutable::`RTTI Base Class Descriptor at (0,-1,0,64)'
	DD	01H
	DD	00H
	DD	0ffffffffH
	DD	00H
	DD	040H
	DD	FLAT:??_R3CLordSkillComponentExecutable@@8
rdata$r	ENDS
;	COMDAT ??_R2CLordSkillComponentExecutable@@8
rdata$r	SEGMENT
??_R2CLordSkillComponentExecutable@@8 DD FLAT:??_R1A@?0A@EA@CLordSkillComponentExecutable@@8 ; CLordSkillComponentExecutable::`RTTI Base Class Array'
	DD	FLAT:??_R1A@?0A@EA@CLordSkillComponent@@8
rdata$r	ENDS
;	COMDAT ??_R3CLordSkillComponentExecutable@@8
rdata$r	SEGMENT
??_R3CLordSkillComponentExecutable@@8 DD 00H		; CLordSkillComponentExecutable::`RTTI Class Hierarchy Descriptor'
	DD	00H
	DD	02H
	DD	FLAT:??_R2CLordSkillComponentExecutable@@8
rdata$r	ENDS
;	COMDAT ??_R0?AVCLordSkillComponentExecutable@@@8
data$rs	SEGMENT
??_R0?AVCLordSkillComponentExecutable@@@8 DD FLAT:??_7type_info@@6B@ ; CLordSkillComponentExecutable `RTTI Type Descriptor'
	DD	00H
	DB	'.?AVCLordSkillComponentExecutable@@', 00H
data$rs	ENDS
;	COMDAT ??_R4CLordSkillComponentExecutable@@6B@
rdata$r	SEGMENT
??_R4CLordSkillComponentExecutable@@6B@ DD 00H		; CLordSkillComponentExecutable::`RTTI Complete Object Locator'
	DD	00H
	DD	00H
	DD	FLAT:??_R0?AVCLordSkillComponentExecutable@@@8
	DD	FLAT:??_R3CLordSkillComponentExecutable@@8
rdata$r	ENDS
;	COMDAT ??_C@_0O@DNECDNPA@lordskill?4txt@
CONST	SEGMENT
??_C@_0O@DNECDNPA@lordskill?4txt@ DB 'lordskill.txt', 00H ; `string'
CONST	ENDS
;	COMDAT ??_C@_0O@NKJDDJPP@lordevent?4inc@
CONST	SEGMENT
??_C@_0O@NKJDDJPP@lordevent?4inc@ DB 'lordevent.inc', 00H ; `string'
CONST	ENDS
;	COMDAT ??_7CLordSkillComponentTeleport@@6B@
CONST	SEGMENT
??_7CLordSkillComponentTeleport@@6B@ DD FLAT:??_R4CLordSkillComponentTeleport@@6B@ ; CLordSkillComponentTeleport::`vftable'
	DD	FLAT:??_ECLordSkillComponentTeleport@@UAEPAXI@Z
	DD	FLAT:?Execute@CLordSkillComponentTeleport@@UAEXKKPAX@Z
	DD	FLAT:?IsExecutable@CLordSkillComponentTeleport@@UAEHPAVCUser@@PBDAAK@Z
CONST	ENDS
;	COMDAT ??_7CLordSkillComponentSummon@@6B@
CONST	SEGMENT
??_7CLordSkillComponentSummon@@6B@ DD FLAT:??_R4CLordSkillComponentSummon@@6B@ ; CLordSkillComponentSummon::`vftable'
	DD	FLAT:??_ECLordSkillComponentSummon@@UAEPAXI@Z
	DD	FLAT:?Execute@CLordSkillComponentSummon@@UAEXKKPAX@Z
	DD	FLAT:?IsExecutable@CLordSkillComponentSummon@@UAEHPAVCUser@@PBDAAK@Z
CONST	ENDS
;	COMDAT ??_7CLordSkillComponentItemBuf@@6B@
CONST	SEGMENT
??_7CLordSkillComponentItemBuf@@6B@ DD FLAT:??_R4CLordSkillComponentItemBuf@@6B@ ; CLordSkillComponentItemBuf::`vftable'
	DD	FLAT:??_ECLordSkillComponentItemBuf@@UAEPAXI@Z
	DD	FLAT:?Execute@CLordSkillComponentItemBuf@@UAEXKKPAX@Z
	DD	FLAT:?IsExecutable@CLordSkillComponentExecutable@@UAEHPAVCUser@@PBDAAK@Z
CONST	ENDS
;	COMDAT ??_7CSLordSkill@@6B@
CONST	SEGMENT
??_7CSLordSkill@@6B@ DD FLAT:??_R4CSLordSkill@@6B@	; CSLordSkill::`vftable'
	DD	FLAT:??_ECSLordSkill@@UAEPAXI@Z
	DD	FLAT:?CreateSkillComponent@CSLordSkill@@UAEPAVCLordSkillComponentExecutable@@H@Z
CONST	ENDS
;	COMDAT ??_7CLEvent@@6B@
CONST	SEGMENT
??_7CLEvent@@6B@ DD FLAT:??_R4CLEvent@@6B@		; CLEvent::`vftable'
	DD	FLAT:??_ECLEvent@@UAEPAXI@Z
	DD	FLAT:?DoTestAddComponent@CLEvent@@MAEHPAVCLEComponent@@@Z
	DD	FLAT:?DoTestInitialize@CLEvent@@MAEHXZ
CONST	ENDS
;	COMDAT ??_7CSElection@@6B@
CONST	SEGMENT
??_7CSElection@@6B@ DD FLAT:??_R4CSElection@@6B@	; CSElection::`vftable'
	DD	FLAT:??_ECSElection@@UAEPAXI@Z
	DD	FLAT:?DoTestBeginCandidacy@CSElection@@MAEHXZ
	DD	FLAT:?DoReturnDeposit@IElection@@MAEXXZ
	DD	FLAT:?DoTestBeginVote@CSElection@@MAEHAAH@Z
	DD	FLAT:?DoTestEndVote@CSElection@@MAEHK@Z
	DD	FLAT:?DoTestAddDeposit@IElection@@MAEHK_JJ@Z
	DD	FLAT:?DoAddDepositComplete@CSElection@@MAEXK_JJ@Z
	DD	FLAT:?DoTestSetPledge@CSElection@@MAEHKPBD@Z
	DD	FLAT:?DoSetPlegeComplete@IElection@@MAEXXZ
	DD	FLAT:?DoTestIncVote@CSElection@@MAEHKK@Z
	DD	FLAT:?DoIncVoteComplete@IElection@@MAEXXZ
	DD	FLAT:?DoEndVoteComplete@IElection@@MAEXXZ
CONST	ENDS
;	COMDAT ??_7CSLord@@6B@
CONST	SEGMENT
??_7CSLord@@6B@ DD FLAT:??_R4CSLord@@6B@		; CSLord::`vftable'
	DD	FLAT:?CreateColleagues@CSLord@@UAEXXZ
	DD	FLAT:?DestroyColleagues@CSLord@@UAEXXZ
	DD	FLAT:?GetController@CLord@@UAEPAVCLController@@XZ
	DD	FLAT:??_ECSLord@@UAEPAXI@Z
CONST	ENDS
;	COMDAT ??_7CLordSkillComponentExecutable@@6B@
CONST	SEGMENT
??_7CLordSkillComponentExecutable@@6B@ DD FLAT:??_R4CLordSkillComponentExecutable@@6B@ ; CLordSkillComponentExecutable::`vftable'
	DD	FLAT:??_ECLordSkillComponentExecutable@@UAEPAXI@Z
	DD	FLAT:?Execute@CLordSkillComponentExecutable@@UAEXKKPAX@Z
	DD	FLAT:?IsExecutable@CLordSkillComponentExecutable@@UAEHPAVCUser@@PBDAAK@Z
CONST	ENDS
;	COMDAT xdata$x
xdata$x	SEGMENT
__unwindtable$?CreateSkillComponent@CSLordSkill@@UAEPAVCLordSkillComponentExecutable@@H@Z DD 0ffffffffH
	DD	FLAT:__unwindfunclet$?CreateSkillComponent@CSLordSkill@@UAEPAVCLordSkillComponentExecutable@@H@Z$0
	DD	0ffffffffH
	DD	FLAT:__unwindfunclet$?CreateSkillComponent@CSLordSkill@@UAEPAVCLordSkillComponentExecutable@@H@Z$1
	DD	0ffffffffH
	DD	FLAT:__unwindfunclet$?CreateSkillComponent@CSLordSkill@@UAEPAVCLordSkillComponentExecutable@@H@Z$2
	DD	0ffffffffH
	DD	FLAT:__unwindfunclet$?CreateSkillComponent@CSLordSkill@@UAEPAVCLordSkillComponentExecutable@@H@Z$3
__ehfuncinfo$?CreateSkillComponent@CSLordSkill@@UAEPAVCLordSkillComponentExecutable@@H@Z DD 019930522H
	DD	04H
	DD	FLAT:__unwindtable$?CreateSkillComponent@CSLordSkill@@UAEPAVCLordSkillComponentExecutable@@H@Z
	DD	2 DUP(00H)
	DD	2 DUP(00H)
	DD	00H
	DD	01H
xdata$x	ENDS
;	COMDAT xdata$x
xdata$x	SEGMENT
__unwindtable$?CreateColleagues@CSLord@@UAEXXZ DD 0ffffffffH
	DD	FLAT:__unwindfunclet$?CreateColleagues@CSLord@@UAEXXZ$0
	DD	0ffffffffH
	DD	FLAT:__unwindfunclet$?CreateColleagues@CSLord@@UAEXXZ$1
	DD	0ffffffffH
	DD	FLAT:__unwindfunclet$?CreateColleagues@CSLord@@UAEXXZ$2
__ehfuncinfo$?CreateColleagues@CSLord@@UAEXXZ DD 019930522H
	DD	03H
	DD	FLAT:__unwindtable$?CreateColleagues@CSLord@@UAEXXZ
	DD	2 DUP(00H)
	DD	2 DUP(00H)
	DD	00H
	DD	01H
xdata$x	ENDS
;	COMDAT xdata$x
xdata$x	SEGMENT
__unwindtable$?Instance@CSLord@@SAPAV1@XZ DD 0ffffffffH
	DD	FLAT:__unwindfunclet$?Instance@CSLord@@SAPAV1@XZ$0
__ehfuncinfo$?Instance@CSLord@@SAPAV1@XZ DD 019930522H
	DD	01H
	DD	FLAT:__unwindtable$?Instance@CSLord@@SAPAV1@XZ
	DD	2 DUP(00H)
	DD	2 DUP(00H)
	DD	00H
	DD	01H
xdata$x	ENDS
; Function compile flags: /Ogtp
;	COMDAT ??__FsLord@?1??Instance@CSLord@@SAPAV1@XZ@YAXXZ
text$yd	SEGMENT
??__FsLord@?1??Instance@CSLord@@SAPAV1@XZ@YAXXZ PROC	; `CSLord::Instance'::`2'::`dynamic atexit destructor for 'sLord'', COMDAT
  00000	b9 00 00 00 00	 mov	 ecx, OFFSET ?sLord@?1??Instance@CSLord@@SAPAV2@XZ@4V2@A
  00005	e9 00 00 00 00	 jmp	 ??1CSLord@@UAE@XZ	; CSLord::~CSLord
??__FsLord@?1??Instance@CSLord@@SAPAV1@XZ@YAXXZ ENDP	; `CSLord::Instance'::`2'::`dynamic atexit destructor for 'sLord''
text$yd	ENDS
; Function compile flags: /Ogtp
; File C:\IAGOS\server\v18\Source\Source\_Common\lordskill.h
;	COMDAT ??_GCLordSkillComponentTeleport@@UAEPAXI@Z
_TEXT	SEGMENT
___flags$ = 8						; size = 4
??_GCLordSkillComponentTeleport@@UAEPAXI@Z PROC		; CLordSkillComponentTeleport::`scalar deleting destructor', COMDAT
; _this$ = ecx
  00000	55		 push	 ebp
  00001	8b ec		 mov	 ebp, esp

; 68   : 	virtual	~CLordSkillComponentExecutable()	{}

  00003	56		 push	 esi
  00004	8b f1		 mov	 esi, ecx
  00006	c7 06 00 00 00
	00		 mov	 DWORD PTR [esi], OFFSET ??_7CLordSkillComponentExecutable@@6B@
  0000c	e8 00 00 00 00	 call	 ??1CLordSkillComponent@@UAE@XZ ; CLordSkillComponent::~CLordSkillComponent
  00011	f6 45 08 01	 test	 BYTE PTR ___flags$[ebp], 1
  00015	74 0e		 je	 SHORT $LN15@scalar
  00017	68 00 01 00 00	 push	 256			; 00000100H
  0001c	56		 push	 esi
  0001d	e8 00 00 00 00	 call	 ??3@YAXPAXI@Z		; operator delete
  00022	83 c4 08	 add	 esp, 8
$LN15@scalar:
  00025	8b c6		 mov	 eax, esi
  00027	5e		 pop	 esi
  00028	5d		 pop	 ebp
  00029	c2 04 00	 ret	 4
??_GCLordSkillComponentTeleport@@UAEPAXI@Z ENDP		; CLordSkillComponentTeleport::`scalar deleting destructor'
_TEXT	ENDS
; Function compile flags: /Ogtp
; File C:\IAGOS\server\v18\Source\Source\WorldServer\lordskillexecutable.h
; File C:\IAGOS\server\v18\Source\Source\_Common\lordskill.h
; File C:\IAGOS\server\v18\Source\Source\WorldServer\lordskillexecutable.h
;	COMDAT ??1CLordSkillComponentTeleport@@UAE@XZ
_TEXT	SEGMENT
??1CLordSkillComponentTeleport@@UAE@XZ PROC		; CLordSkillComponentTeleport::~CLordSkillComponentTeleport, COMDAT
; _this$ = ecx
; File C:\IAGOS\server\v18\Source\Source\_Common\lordskill.h

; 68   : 	virtual	~CLordSkillComponentExecutable()	{}

  00000	c7 01 00 00 00
	00		 mov	 DWORD PTR [ecx], OFFSET ??_7CLordSkillComponentExecutable@@6B@
  00006	e9 00 00 00 00	 jmp	 ??1CLordSkillComponent@@UAE@XZ ; CLordSkillComponent::~CLordSkillComponent
??1CLordSkillComponentTeleport@@UAE@XZ ENDP		; CLordSkillComponentTeleport::~CLordSkillComponentTeleport
_TEXT	ENDS
; Function compile flags: /Ogtp
; File C:\IAGOS\server\v18\Source\Source\_Common\lordskill.h
;	COMDAT ??_GCLordSkillComponentSummon@@UAEPAXI@Z
_TEXT	SEGMENT
___flags$ = 8						; size = 4
??_GCLordSkillComponentSummon@@UAEPAXI@Z PROC		; CLordSkillComponentSummon::`scalar deleting destructor', COMDAT
; _this$ = ecx
  00000	55		 push	 ebp
  00001	8b ec		 mov	 ebp, esp

; 68   : 	virtual	~CLordSkillComponentExecutable()	{}

  00003	56		 push	 esi
  00004	8b f1		 mov	 esi, ecx
  00006	c7 06 00 00 00
	00		 mov	 DWORD PTR [esi], OFFSET ??_7CLordSkillComponentExecutable@@6B@
  0000c	e8 00 00 00 00	 call	 ??1CLordSkillComponent@@UAE@XZ ; CLordSkillComponent::~CLordSkillComponent
  00011	f6 45 08 01	 test	 BYTE PTR ___flags$[ebp], 1
  00015	74 0e		 je	 SHORT $LN15@scalar
  00017	68 00 01 00 00	 push	 256			; 00000100H
  0001c	56		 push	 esi
  0001d	e8 00 00 00 00	 call	 ??3@YAXPAXI@Z		; operator delete
  00022	83 c4 08	 add	 esp, 8
$LN15@scalar:
  00025	8b c6		 mov	 eax, esi
  00027	5e		 pop	 esi
  00028	5d		 pop	 ebp
  00029	c2 04 00	 ret	 4
??_GCLordSkillComponentSummon@@UAEPAXI@Z ENDP		; CLordSkillComponentSummon::`scalar deleting destructor'
_TEXT	ENDS
; Function compile flags: /Ogtp
; File C:\IAGOS\server\v18\Source\Source\WorldServer\lordskillexecutable.h
; File C:\IAGOS\server\v18\Source\Source\_Common\lordskill.h
; File C:\IAGOS\server\v18\Source\Source\WorldServer\lordskillexecutable.h
;	COMDAT ??1CLordSkillComponentSummon@@UAE@XZ
_TEXT	SEGMENT
??1CLordSkillComponentSummon@@UAE@XZ PROC		; CLordSkillComponentSummon::~CLordSkillComponentSummon, COMDAT
; _this$ = ecx
; File C:\IAGOS\server\v18\Source\Source\_Common\lordskill.h

; 68   : 	virtual	~CLordSkillComponentExecutable()	{}

  00000	c7 01 00 00 00
	00		 mov	 DWORD PTR [ecx], OFFSET ??_7CLordSkillComponentExecutable@@6B@
  00006	e9 00 00 00 00	 jmp	 ??1CLordSkillComponent@@UAE@XZ ; CLordSkillComponent::~CLordSkillComponent
??1CLordSkillComponentSummon@@UAE@XZ ENDP		; CLordSkillComponentSummon::~CLordSkillComponentSummon
_TEXT	ENDS
; Function compile flags: /Ogtp
; File C:\IAGOS\server\v18\Source\Source\_Common\lordskill.h
;	COMDAT ??_GCLordSkillComponentItemBuf@@UAEPAXI@Z
_TEXT	SEGMENT
___flags$ = 8						; size = 4
??_GCLordSkillComponentItemBuf@@UAEPAXI@Z PROC		; CLordSkillComponentItemBuf::`scalar deleting destructor', COMDAT
; _this$ = ecx
  00000	55		 push	 ebp
  00001	8b ec		 mov	 ebp, esp

; 68   : 	virtual	~CLordSkillComponentExecutable()	{}

  00003	56		 push	 esi
  00004	8b f1		 mov	 esi, ecx
  00006	c7 06 00 00 00
	00		 mov	 DWORD PTR [esi], OFFSET ??_7CLordSkillComponentExecutable@@6B@
  0000c	e8 00 00 00 00	 call	 ??1CLordSkillComponent@@UAE@XZ ; CLordSkillComponent::~CLordSkillComponent
  00011	f6 45 08 01	 test	 BYTE PTR ___flags$[ebp], 1
  00015	74 0e		 je	 SHORT $LN15@scalar
  00017	68 00 01 00 00	 push	 256			; 00000100H
  0001c	56		 push	 esi
  0001d	e8 00 00 00 00	 call	 ??3@YAXPAXI@Z		; operator delete
  00022	83 c4 08	 add	 esp, 8
$LN15@scalar:
  00025	8b c6		 mov	 eax, esi
  00027	5e		 pop	 esi
  00028	5d		 pop	 ebp
  00029	c2 04 00	 ret	 4
??_GCLordSkillComponentItemBuf@@UAEPAXI@Z ENDP		; CLordSkillComponentItemBuf::`scalar deleting destructor'
_TEXT	ENDS
; Function compile flags: /Ogtp
; File C:\IAGOS\server\v18\Source\Source\WorldServer\lordskillexecutable.h
; File C:\IAGOS\server\v18\Source\Source\_Common\lordskill.h
; File C:\IAGOS\server\v18\Source\Source\WorldServer\lordskillexecutable.h
;	COMDAT ??1CLordSkillComponentItemBuf@@UAE@XZ
_TEXT	SEGMENT
??1CLordSkillComponentItemBuf@@UAE@XZ PROC		; CLordSkillComponentItemBuf::~CLordSkillComponentItemBuf, COMDAT
; _this$ = ecx
; File C:\IAGOS\server\v18\Source\Source\_Common\lordskill.h

; 68   : 	virtual	~CLordSkillComponentExecutable()	{}

  00000	c7 01 00 00 00
	00		 mov	 DWORD PTR [ecx], OFFSET ??_7CLordSkillComponentExecutable@@6B@
  00006	e9 00 00 00 00	 jmp	 ??1CLordSkillComponent@@UAE@XZ ; CLordSkillComponent::~CLordSkillComponent
??1CLordSkillComponentItemBuf@@UAE@XZ ENDP		; CLordSkillComponentItemBuf::~CLordSkillComponentItemBuf
_TEXT	ENDS
; Function compile flags: /Ogtp
; File C:\IAGOS\server\v18\Source\Source\WorldServer\slord.cpp
; File C:\IAGOS\server\v18\Source\Source\_Common\lord.h
; File C:\IAGOS\server\v18\Source\Source\WorldServer\slord.cpp
;	COMDAT ?CreateRequirements@lordevent@@YAHPAVCUser@@HH@Z
_TEXT	SEGMENT
_pUser$ = 8						; size = 4
_iEEvent$ = 12						; size = 4
_iIEvent$ = 16						; size = 4
?CreateRequirements@lordevent@@YAHPAVCUser@@HH@Z PROC	; lordevent::CreateRequirements, COMDAT

; 222  : 	{

  00000	55		 push	 ebp
  00001	8b ec		 mov	 ebp, esp
  00003	53		 push	 ebx
  00004	56		 push	 esi
  00005	57		 push	 edi

; 223  : 		ILordEvent* pEvent		= CSLord::Instance()->GetEvent();

  00006	e8 00 00 00 00	 call	 ?Instance@CSLord@@SAPAV1@XZ ; CSLord::Instance

; 224  : 		if( !CSLord::Instance()->IsLord( pUser->m_idPlayer ) )	// is he lord?

  0000b	8b 7d 08	 mov	 edi, DWORD PTR _pUser$[ebp]
  0000e	8b 58 0c	 mov	 ebx, DWORD PTR [eax+12]
  00011	8b b7 34 02 00
	00		 mov	 esi, DWORD PTR [edi+564]
  00017	e8 00 00 00 00	 call	 ?Instance@CSLord@@SAPAV1@XZ ; CSLord::Instance
; File C:\IAGOS\server\v18\Source\Source\_Common\lord.h

; 257  : 	BOOL	IsLord( u_long idPlayer )	{	return m_idPlayer == idPlayer;	}

  0001c	39 70 04	 cmp	 DWORD PTR [eax+4], esi
; File C:\IAGOS\server\v18\Source\Source\WorldServer\slord.cpp

; 224  : 		if( !CSLord::Instance()->IsLord( pUser->m_idPlayer ) )	// is he lord?

  0001f	74 0a		 je	 SHORT $LN2@CreateRequ

; 238  : 	}

  00021	5f		 pop	 edi
  00022	5e		 pop	 esi
  00023	b8 ba 0e 00 00	 mov	 eax, 3770		; 00000ebaH
  00028	5b		 pop	 ebx
  00029	5d		 pop	 ebp
  0002a	c3		 ret	 0
$LN2@CreateRequ:

; 225  : 			 return TID_GAME_L_EVENT_CREATE_E001;
; 226  : 		if( pEvent->GetComponent( pUser->m_idPlayer ) )		// is there no event?

  0002b	ff b7 34 02 00
	00		 push	 DWORD PTR [edi+564]
  00031	8b cb		 mov	 ecx, ebx
  00033	e8 00 00 00 00	 call	 ?GetComponent@ILordEvent@@QAEPAVCLEComponent@@K@Z ; ILordEvent::GetComponent
  00038	85 c0		 test	 eax, eax
  0003a	74 0a		 je	 SHORT $LN3@CreateRequ

; 238  : 	}

  0003c	5f		 pop	 edi
  0003d	5e		 pop	 esi
  0003e	b8 bb 0e 00 00	 mov	 eax, 3771		; 00000ebbH
  00043	5b		 pop	 ebx
  00044	5d		 pop	 ebp
  00045	c3		 ret	 0
$LN3@CreateRequ:

; 227  : 			return TID_GAME_L_EVENT_CREATE_E002;
; 228  : 		if( pUser->IsQuerying() )

  00046	83 bf 38 8f 00
	00 00		 cmp	 DWORD PTR [edi+36664], 0
  0004d	74 0a		 je	 SHORT $LN4@CreateRequ

; 238  : 	}

  0004f	5f		 pop	 edi
  00050	5e		 pop	 esi
  00051	b8 6e 0f 00 00	 mov	 eax, 3950		; 00000f6eH
  00056	5b		 pop	 ebx
  00057	5d		 pop	 ebp
  00058	c3		 ret	 0
$LN4@CreateRequ:

; 229  : 			return TID_GAME_LORD_IS_QUERYING;
; 230  : 		__int64 iCost	= pEvent->GetCost( iEEvent, iIEvent );

  00059	ff 75 10	 push	 DWORD PTR _iIEvent$[ebp]
  0005c	8b cb		 mov	 ecx, ebx
  0005e	ff 75 0c	 push	 DWORD PTR _iEEvent$[ebp]
  00061	e8 00 00 00 00	 call	 ?GetCost@ILordEvent@@QAE_JHH@Z ; ILordEvent::GetCost
  00066	8b f0		 mov	 esi, eax
  00068	8b da		 mov	 ebx, edx

; 231  : 		if( iCost == 0 )

  0006a	8b ce		 mov	 ecx, esi
  0006c	0b cb		 or	 ecx, ebx
  0006e	75 0a		 jne	 SHORT $LN5@CreateRequ

; 238  : 	}

  00070	5f		 pop	 edi
  00071	5e		 pop	 esi
  00072	b8 bd 0e 00 00	 mov	 eax, 3773		; 00000ebdH
  00077	5b		 pop	 ebx
  00078	5d		 pop	 ebp
  00079	c3		 ret	 0
$LN5@CreateRequ:

; 232  : 			return TID_GAME_L_EVENT_CREATE_E004;
; 233  : 		if( iCost > pUser->GetTotalGold() )

  0007a	8b cf		 mov	 ecx, edi
  0007c	e8 00 00 00 00	 call	 ?GetTotalGold@CMover@@QAE_JXZ ; CMover::GetTotalGold
  00081	3b da		 cmp	 ebx, edx
  00083	7c 10		 jl	 SHORT $LN6@CreateRequ
  00085	7f 04		 jg	 SHORT $LN12@CreateRequ
  00087	3b f0		 cmp	 esi, eax
  00089	76 0a		 jbe	 SHORT $LN6@CreateRequ
$LN12@CreateRequ:
  0008b	5f		 pop	 edi

; 238  : 	}

  0008c	5e		 pop	 esi
  0008d	b8 bc 0e 00 00	 mov	 eax, 3772		; 00000ebcH
  00092	5b		 pop	 ebx
  00093	5d		 pop	 ebp
  00094	c3		 ret	 0
$LN6@CreateRequ:

; 234  : 			return TID_GAME_L_EVENT_CREATE_E003;
; 235  : 
; 236  : 		pUser->SetQuerying( TRUE );

  00095	c7 87 38 8f 00
	00 01 00 00 00	 mov	 DWORD PTR [edi+36664], 1

; 237  : 		return 0;

  0009f	33 c0		 xor	 eax, eax
  000a1	5f		 pop	 edi

; 238  : 	}

  000a2	5e		 pop	 esi
  000a3	5b		 pop	 ebx
  000a4	5d		 pop	 ebp
  000a5	c3		 ret	 0
?CreateRequirements@lordevent@@YAHPAVCUser@@HH@Z ENDP	; lordevent::CreateRequirements
_TEXT	ENDS
; Function compile flags: /Ogtp
; File C:\IAGOS\server\v18\Source\Source\WorldServer\slord.cpp
;	COMDAT ?IncVoteRequirements@election@@YAHPAVCUser@@K@Z
_TEXT	SEGMENT
_pUser$ = 8						; size = 4
_idPlayer$ = 12						; size = 4
?IncVoteRequirements@election@@YAHPAVCUser@@K@Z PROC	; election::IncVoteRequirements, COMDAT

; 199  : 	{

  00000	55		 push	 ebp
  00001	8b ec		 mov	 ebp, esp
  00003	56		 push	 esi

; 200  : 		IElection* pElection	= CSLord::Instance()->GetElection();

  00004	e8 00 00 00 00	 call	 ?Instance@CSLord@@SAPAV1@XZ ; CSLord::Instance

; 201  : 		CCandidate* pCandidate	= pElection->GetCandidate( idPlayer );

  00009	ff 75 0c	 push	 DWORD PTR _idPlayer$[ebp]
  0000c	8b 70 08	 mov	 esi, DWORD PTR [eax+8]
  0000f	8b ce		 mov	 ecx, esi
  00011	e8 00 00 00 00	 call	 ?GetCandidate@IElection@@QAEPAVCCandidate@@K@Z ; IElection::GetCandidate

; 202  : 		if( !pCandidate )

  00016	85 c0		 test	 eax, eax
  00018	75 08		 jne	 SHORT $LN2@IncVoteReq

; 203  : 			return TID_GAME_ELECTION_INC_VOTE_E001;		// ČÄş¸żˇ ľř°ĹłŞ ČÄş¸¸íŔ» Ŕß¸ř ŔÔ·Â ÇĎĽĚ˝Ŕ´Ď´Ů. Č®ŔÎ ČÄ ´Ů˝Ă ŔÔ·ÂÇŘ ÁÖ˝Ă±â ąŮ¶ř´Ď´Ů.

  0001a	b8 af 0e 00 00	 mov	 eax, 3759		; 00000eafH
  0001f	5e		 pop	 esi

; 215  : 	}

  00020	5d		 pop	 ebp
  00021	c3		 ret	 0
$LN2@IncVoteReq:

; 204  : 		if( pElection->GetState() != IElection::eVote )

  00022	83 7e 10 02	 cmp	 DWORD PTR [esi+16], 2
  00026	74 08		 je	 SHORT $LN3@IncVoteReq

; 205  : 			return TID_GAME_ELECTION_INC_VOTE_E002;		// ĹőÇĄ ±â°ŁŔĚ ľĆ´Ő´Ď´Ů.

  00028	b8 b0 0e 00 00	 mov	 eax, 3760		; 00000eb0H
  0002d	5e		 pop	 esi

; 215  : 	}

  0002e	5d		 pop	 ebp
  0002f	c3		 ret	 0
$LN3@IncVoteReq:

; 206  : 		if( pUser->GetLevel() < IElection::nLevelRequirements )

  00030	8b 4d 08	 mov	 ecx, DWORD PTR _pUser$[ebp]
  00033	83 b9 d8 05 00
	00 3c		 cmp	 DWORD PTR [ecx+1496], 60 ; 0000003cH
  0003a	7d 08		 jge	 SHORT $LN4@IncVoteReq

; 207  : 			return TID_GAME_ELECTION_INC_VOTE_E003;		// Č÷ľî·Î/¸¶˝şĹÍ µî±Ţ, Äł¸ŻĹÍ ·ąş§ 60ŔĚ»óŔÇ Äł¸ŻĹÍ¸¸ ĹőÇĄ±ÇŔ» °ˇÁý´Ď´Ů.

  0003c	b8 b1 0e 00 00	 mov	 eax, 3761		; 00000eb1H
  00041	5e		 pop	 esi

; 215  : 	}

  00042	5d		 pop	 ebp
  00043	c3		 ret	 0
$LN4@IncVoteReq:

; 208  : 		if( pUser->IsQuerying() )

  00044	83 b9 38 8f 00
	00 00		 cmp	 DWORD PTR [ecx+36664], 0
  0004b	74 08		 je	 SHORT $LN5@IncVoteReq

; 209  : 			return TID_GAME_LORD_IS_QUERYING;

  0004d	b8 6e 0f 00 00	 mov	 eax, 3950		; 00000f6eH
  00052	5e		 pop	 esi

; 215  : 	}

  00053	5d		 pop	 ebp
  00054	c3		 ret	 0
$LN5@IncVoteReq:

; 210  : 		if( pUser->GetElection() == pElection->GetId() )	// Ë¬

  00055	8b 81 34 8f 00
	00		 mov	 eax, DWORD PTR [ecx+36660]
  0005b	3b 46 08	 cmp	 eax, DWORD PTR [esi+8]
  0005e	75 08		 jne	 SHORT $LN6@IncVoteReq

; 211  : 			return TID_GAME_ELECTION_INC_VOTE_E004;		// ŔĚąĚ ĹőÇĄżˇ Âüż©ÇĎĽĚ˝Ŕ´Ď´Ů.

  00060	b8 b2 0e 00 00	 mov	 eax, 3762		; 00000eb2H
  00065	5e		 pop	 esi

; 215  : 	}

  00066	5d		 pop	 ebp
  00067	c3		 ret	 0
$LN6@IncVoteReq:

; 212  : 
; 213  : 		pUser->SetQuerying( TRUE );

  00068	c7 81 38 8f 00
	00 01 00 00 00	 mov	 DWORD PTR [ecx+36664], 1

; 214  : 		return 0;

  00072	33 c0		 xor	 eax, eax
  00074	5e		 pop	 esi

; 215  : 	}

  00075	5d		 pop	 ebp
  00076	c3		 ret	 0
?IncVoteRequirements@election@@YAHPAVCUser@@K@Z ENDP	; election::IncVoteRequirements
_TEXT	ENDS
; Function compile flags: /Ogtp
; File C:\IAGOS\server\v18\Source\Source\WorldServer\slord.cpp
;	COMDAT ?SetPledgeRequirements@election@@YAHPAVCUser@@AAH@Z
_TEXT	SEGMENT
_pUser$ = 8						; size = 4
_nCost$ = 12						; size = 4
?SetPledgeRequirements@election@@YAHPAVCUser@@AAH@Z PROC ; election::SetPledgeRequirements, COMDAT

; 174  : 	{

  00000	55		 push	 ebp
  00001	8b ec		 mov	 ebp, esp
  00003	53		 push	 ebx
  00004	56		 push	 esi
  00005	57		 push	 edi

; 175  : 		nCost	= 0;

  00006	8b 7d 0c	 mov	 edi, DWORD PTR _nCost$[ebp]
  00009	c7 07 00 00 00
	00		 mov	 DWORD PTR [edi], 0

; 176  : 		IElection* pElection	= CSLord::Instance()->GetElection();

  0000f	e8 00 00 00 00	 call	 ?Instance@CSLord@@SAPAV1@XZ ; CSLord::Instance

; 177  : 		CCandidate* pCandidate	= pElection->GetCandidate( pUser->m_idPlayer );

  00014	8b 75 08	 mov	 esi, DWORD PTR _pUser$[ebp]
  00017	8b 58 08	 mov	 ebx, DWORD PTR [eax+8]
  0001a	8b cb		 mov	 ecx, ebx
  0001c	ff b6 34 02 00
	00		 push	 DWORD PTR [esi+564]
  00022	e8 00 00 00 00	 call	 ?GetCandidate@IElection@@QAEPAVCCandidate@@K@Z ; IElection::GetCandidate

; 178  : 		if( pCandidate )

  00027	85 c0		 test	 eax, eax
  00029	74 5e		 je	 SHORT $LN2@SetPledgeR

; 179  : 		{
; 180  : 			if( pElection->GetState() != IElection::eVote )

  0002b	83 7b 10 02	 cmp	 DWORD PTR [ebx+16], 2
  0002f	74 0a		 je	 SHORT $LN3@SetPledgeR

; 194  : 		}
; 195  : 		return TID_GAME_ELECTION_SET_PLEDGE_E001;
; 196  : 	}

  00031	5f		 pop	 edi
  00032	5e		 pop	 esi
  00033	b8 9b 0e 00 00	 mov	 eax, 3739		; 00000e9bH
  00038	5b		 pop	 ebx
  00039	5d		 pop	 ebp
  0003a	c3		 ret	 0
$LN3@SetPledgeR:

; 181  : 				return TID_GAME_ELECTION_SET_PLEDGE_E003;
; 182  : 
; 183  : 			if( lstrlen( pCandidate->GetPledge() ) > 0 )

  0003b	83 c0 10	 add	 eax, 16			; 00000010H
  0003e	50		 push	 eax
  0003f	ff 15 00 00 00
	00		 call	 DWORD PTR __imp__lstrlenA@4
  00045	85 c0		 test	 eax, eax
  00047	7e 1c		 jle	 SHORT $LN4@SetPledgeR

; 184  : 			{
; 185  : 				if( pUser->GetGold() < CCandidate::nSetPledgeCost )

  00049	81 be e0 14 00
	00 40 42 0f 00	 cmp	 DWORD PTR [esi+5344], 1000000 ; 000f4240H
  00053	7d 0a		 jge	 SHORT $LN5@SetPledgeR

; 194  : 		}
; 195  : 		return TID_GAME_ELECTION_SET_PLEDGE_E001;
; 196  : 	}

  00055	5f		 pop	 edi
  00056	5e		 pop	 esi
  00057	b8 94 0e 00 00	 mov	 eax, 3732		; 00000e94H
  0005c	5b		 pop	 ebx
  0005d	5d		 pop	 ebp
  0005e	c3		 ret	 0
$LN5@SetPledgeR:

; 186  : 					return TID_GAME_ELECTION_SET_PLEDGE_E002;
; 187  : 				nCost	= CCandidate::nSetPledgeCost;

  0005f	c7 07 40 42 0f
	00		 mov	 DWORD PTR [edi], 1000000 ; 000f4240H
$LN4@SetPledgeR:

; 188  : 			}
; 189  : 			if( pUser->IsQuerying() )

  00065	83 be 38 8f 00
	00 00		 cmp	 DWORD PTR [esi+36664], 0
  0006c	74 0a		 je	 SHORT $LN6@SetPledgeR

; 194  : 		}
; 195  : 		return TID_GAME_ELECTION_SET_PLEDGE_E001;
; 196  : 	}

  0006e	5f		 pop	 edi
  0006f	5e		 pop	 esi
  00070	b8 6e 0f 00 00	 mov	 eax, 3950		; 00000f6eH
  00075	5b		 pop	 ebx
  00076	5d		 pop	 ebp
  00077	c3		 ret	 0
$LN6@SetPledgeR:
  00078	5f		 pop	 edi

; 190  : 				return TID_GAME_LORD_IS_QUERYING;
; 191  : 
; 192  : 			pUser->SetQuerying( TRUE );

  00079	c7 86 38 8f 00
	00 01 00 00 00	 mov	 DWORD PTR [esi+36664], 1

; 193  : 			return 0;

  00083	33 c0		 xor	 eax, eax

; 194  : 		}
; 195  : 		return TID_GAME_ELECTION_SET_PLEDGE_E001;
; 196  : 	}

  00085	5e		 pop	 esi
  00086	5b		 pop	 ebx
  00087	5d		 pop	 ebp
  00088	c3		 ret	 0
$LN2@SetPledgeR:
  00089	5f		 pop	 edi
  0008a	5e		 pop	 esi
  0008b	b8 93 0e 00 00	 mov	 eax, 3731		; 00000e93H
  00090	5b		 pop	 ebx
  00091	5d		 pop	 ebp
  00092	c3		 ret	 0
?SetPledgeRequirements@election@@YAHPAVCUser@@AAH@Z ENDP ; election::SetPledgeRequirements
_TEXT	ENDS
; Function compile flags: /Ogtp
; File C:\IAGOS\server\v18\Source\Source\WorldServer\slord.cpp
;	COMDAT ?AddDepositRequirements@election@@YAHPAVCUser@@_JAA_J@Z
_TEXT	SEGMENT
_iOld$ = -8						; size = 8
_pUser$ = 8						; size = 4
_iTotal$ = 12						; size = 8
_iDeposit$ = 20						; size = 4
?AddDepositRequirements@election@@YAHPAVCUser@@_JAA_J@Z PROC ; election::AddDepositRequirements, COMDAT

; 148  : 	{

  00000	55		 push	 ebp
  00001	8b ec		 mov	 ebp, esp
  00003	83 ec 08	 sub	 esp, 8
  00006	56		 push	 esi

; 149  : 		if (!pUser->IsMaster() && !pUser->IsHero() && !pUser->IsLegendHero())

  00007	8b 75 08	 mov	 esi, DWORD PTR _pUser$[ebp]
  0000a	8b ce		 mov	 ecx, esi
  0000c	e8 00 00 00 00	 call	 ?IsMaster@CMover@@QAEHXZ ; CMover::IsMaster
  00011	85 c0		 test	 eax, eax
  00013	75 20		 jne	 SHORT $LN2@AddDeposit
  00015	8b ce		 mov	 ecx, esi
  00017	e8 00 00 00 00	 call	 ?IsHero@CMover@@QAEHXZ	; CMover::IsHero
  0001c	85 c0		 test	 eax, eax
  0001e	75 15		 jne	 SHORT $LN2@AddDeposit
  00020	8b ce		 mov	 ecx, esi
  00022	e8 00 00 00 00	 call	 ?IsLegendHero@CMover@@QAEHXZ ; CMover::IsLegendHero
  00027	85 c0		 test	 eax, eax
  00029	75 0a		 jne	 SHORT $LN2@AddDeposit

; 150  : 			return TID_GAME_ELECTION_ADD_DEPOSIT_E001;	// "Č÷ľî·Î, ¸¶˝şĹÍ µî±ŢŔÇ Äł¸ŻĹÍ¸¸ ±şÁÖ ČÄş¸żˇ ŔÔÂűŔ» ÇĎ˝Ç Ľö ŔÖ˝Ŕ´Ď´Ů."

  0002b	b8 8d 0e 00 00	 mov	 eax, 3725		; 00000e8dH
  00030	5e		 pop	 esi

; 171  : 	}

  00031	8b e5		 mov	 esp, ebp
  00033	5d		 pop	 ebp
  00034	c3		 ret	 0
$LN2@AddDeposit:
  00035	53		 push	 ebx

; 151  : 		if( iTotal < CCandidate::nMinDeposit )

  00036	8b 5d 10	 mov	 ebx, DWORD PTR _iTotal$[ebp+4]
  00039	57		 push	 edi
  0003a	85 db		 test	 ebx, ebx
  0003c	0f 8c c8 00 00
	00		 jl	 $LN8@AddDeposit
  00042	8b 7d 0c	 mov	 edi, DWORD PTR _iTotal$[ebp]
  00045	7f 0c		 jg	 SHORT $LN16@AddDeposit
  00047	81 ff 00 e1 f5
	05		 cmp	 edi, 100000000		; 05f5e100H
  0004d	0f 82 b7 00 00
	00		 jb	 $LN8@AddDeposit
$LN16@AddDeposit:

; 152  : 			return TID_GAME_ELECTION_ADD_DEPOSIT_E002;	// "ŔÔÂű ±Ýľ×ŔĚ şÎÁ·ÇŐ´Ď´Ů."
; 153  : 		IElection* pElection	= CSLord::Instance()->GetElection();

  00053	e8 00 00 00 00	 call	 ?Instance@CSLord@@SAPAV1@XZ ; CSLord::Instance
  00058	8b 48 08	 mov	 ecx, DWORD PTR [eax+8]

; 154  : 
; 155  : 		if( pElection->GetState() != IElection::eCandidacy )

  0005b	83 79 10 01	 cmp	 DWORD PTR [ecx+16], 1
  0005f	74 0c		 je	 SHORT $LN4@AddDeposit

; 156  : 			return TID_GAME_ELECTION_ADD_DEPOSIT_E004;		//  ČÄş¸ µî·Ď ±â°ŁŔĚ ľĆ´Ő´Ď´Ů.

  00061	5f		 pop	 edi
  00062	5b		 pop	 ebx
  00063	b8 b9 0e 00 00	 mov	 eax, 3769		; 00000eb9H
  00068	5e		 pop	 esi

; 171  : 	}

  00069	8b e5		 mov	 esp, ebp
  0006b	5d		 pop	 ebp
  0006c	c3		 ret	 0
$LN4@AddDeposit:

; 157  : 
; 158  : 		CCandidate* pCandidate	= pElection->GetCandidate( pUser->m_idPlayer );

  0006d	ff b6 34 02 00
	00		 push	 DWORD PTR [esi+564]
  00073	e8 00 00 00 00	 call	 ?GetCandidate@IElection@@QAEPAVCCandidate@@K@Z ; IElection::GetCandidate

; 159  : 		__int64 iOld	= ( pCandidate? pCandidate->GetDeposit(): 0 );

  00078	85 c0		 test	 eax, eax
  0007a	74 1c		 je	 SHORT $LN11@AddDeposit
  0007c	8b 48 08	 mov	 ecx, DWORD PTR [eax+8]
  0007f	8b 40 0c	 mov	 eax, DWORD PTR [eax+12]

; 160  : 		if( iOld >= iTotal )

  00082	3b c3		 cmp	 eax, ebx
  00084	7c 20		 jl	 SHORT $LN5@AddDeposit
  00086	7f 04		 jg	 SHORT $LN17@AddDeposit
  00088	3b cf		 cmp	 ecx, edi
  0008a	72 1a		 jb	 SHORT $LN5@AddDeposit
$LN17@AddDeposit:
  0008c	5f		 pop	 edi
  0008d	5b		 pop	 ebx

; 161  : 			return TID_GAME_ELECTION_ADD_DEPOSIT_E003;	// "±âÁ¸ ĆäłÄş¸´Ů ´ő ¸ąŔş ±Ýľ×Ŕ» ˝ĹĂ»ÇĎ˝Ă±â ąŮ¶ř´Ď´Ů."

  0008e	b8 8f 0e 00 00	 mov	 eax, 3727		; 00000e8fH
  00093	5e		 pop	 esi

; 171  : 	}

  00094	8b e5		 mov	 esp, ebp
  00096	5d		 pop	 ebp
  00097	c3		 ret	 0
$LN11@AddDeposit:
  00098	0f 57 c0	 xorps	 xmm0, xmm0

; 159  : 		__int64 iOld	= ( pCandidate? pCandidate->GetDeposit(): 0 );

  0009b	66 0f 13 45 f8	 movlpd	 QWORD PTR _iOld$[ebp], xmm0
  000a0	8b 45 fc	 mov	 eax, DWORD PTR _iOld$[ebp+4]
  000a3	8b 4d f8	 mov	 ecx, DWORD PTR _iOld$[ebp]
$LN5@AddDeposit:

; 162  : 		if( pUser->IsQuerying() )

  000a6	83 be 38 8f 00
	00 00		 cmp	 DWORD PTR [esi+36664], 0
  000ad	74 0c		 je	 SHORT $LN6@AddDeposit

; 163  : 			return TID_GAME_LORD_IS_QUERYING;

  000af	5f		 pop	 edi
  000b0	5b		 pop	 ebx
  000b1	b8 6e 0f 00 00	 mov	 eax, 3950		; 00000f6eH
  000b6	5e		 pop	 esi

; 171  : 	}

  000b7	8b e5		 mov	 esp, ebp
  000b9	5d		 pop	 ebp
  000ba	c3		 ret	 0
$LN6@AddDeposit:

; 164  : 		iDeposit	= iTotal - iOld;

  000bb	2b f9		 sub	 edi, ecx
  000bd	1b d8		 sbb	 ebx, eax
  000bf	8b 45 14	 mov	 eax, DWORD PTR _iDeposit$[ebp]
  000c2	89 38		 mov	 DWORD PTR [eax], edi
  000c4	89 58 04	 mov	 DWORD PTR [eax+4], ebx

; 165  : 		if( iDeposit > INT_MAX || pUser->GetGold() < static_cast<int>( iDeposit ) )

  000c7	85 db		 test	 ebx, ebx
  000c9	7f 3f		 jg	 SHORT $LN8@AddDeposit
  000cb	7c 08		 jl	 SHORT $LN18@AddDeposit
  000cd	81 ff ff ff ff
	7f		 cmp	 edi, 2147483647		; 7fffffffH
  000d3	77 35		 ja	 SHORT $LN8@AddDeposit
$LN18@AddDeposit:
  000d5	39 be e0 14 00
	00		 cmp	 DWORD PTR [esi+5344], edi
  000db	7c 2d		 jl	 SHORT $LN8@AddDeposit

; 167  : 		if( iDeposit < static_cast<__int64>( 10000000 ) )

  000dd	85 db		 test	 ebx, ebx
  000df	7f 16		 jg	 SHORT $LN9@AddDeposit
  000e1	7c 08		 jl	 SHORT $LN19@AddDeposit
  000e3	81 ff 80 96 98
	00		 cmp	 edi, 10000000		; 00989680H
  000e9	73 0c		 jae	 SHORT $LN9@AddDeposit
$LN19@AddDeposit:
  000eb	5f		 pop	 edi
  000ec	5b		 pop	 ebx

; 168  : 			return TID_GAME_ELECTION_ADD_DEPOSIT_E005;	// Ăß°ˇ ŔÔÂűŔş ĂÖĽŇ 10,000,000 ĆäłÄ°ˇ ÇĘżäÇŐ´Ď´Ů.

  000ed	b8 6f 0f 00 00	 mov	 eax, 3951		; 00000f6fH
  000f2	5e		 pop	 esi

; 171  : 	}

  000f3	8b e5		 mov	 esp, ebp
  000f5	5d		 pop	 ebp
  000f6	c3		 ret	 0
$LN9@AddDeposit:
  000f7	5f		 pop	 edi
  000f8	5b		 pop	 ebx

; 169  : 		pUser->SetQuerying( TRUE );

  000f9	c7 86 38 8f 00
	00 01 00 00 00	 mov	 DWORD PTR [esi+36664], 1

; 170  : 		return 0;

  00103	33 c0		 xor	 eax, eax
  00105	5e		 pop	 esi

; 171  : 	}

  00106	8b e5		 mov	 esp, ebp
  00108	5d		 pop	 ebp
  00109	c3		 ret	 0
$LN8@AddDeposit:
  0010a	5f		 pop	 edi
  0010b	5b		 pop	 ebx

; 166  : 			return TID_GAME_ELECTION_ADD_DEPOSIT_E002;	// "ŔÔÂű ±Ýľ×ŔĚ şÎÁ·ÇŐ´Ď´Ů."

  0010c	b8 8e 0e 00 00	 mov	 eax, 3726		; 00000e8eH
  00111	5e		 pop	 esi

; 171  : 	}

  00112	8b e5		 mov	 esp, ebp
  00114	5d		 pop	 ebp
  00115	c3		 ret	 0
?AddDepositRequirements@election@@YAHPAVCUser@@_JAA_J@Z ENDP ; election::AddDepositRequirements
_TEXT	ENDS
; Function compile flags: /Ogtp
;	COMDAT ??_GCSLordSkill@@UAEPAXI@Z
_TEXT	SEGMENT
___flags$ = 8						; size = 4
??_GCSLordSkill@@UAEPAXI@Z PROC				; CSLordSkill::`scalar deleting destructor', COMDAT
; _this$ = ecx
  00000	55		 push	 ebp
  00001	8b ec		 mov	 ebp, esp
  00003	56		 push	 esi
  00004	8b f1		 mov	 esi, ecx
  00006	e8 00 00 00 00	 call	 ??1CSLordSkill@@UAE@XZ	; CSLordSkill::~CSLordSkill
  0000b	f6 45 08 01	 test	 BYTE PTR ___flags$[ebp], 1
  0000f	74 0b		 je	 SHORT $LN5@scalar
  00011	6a 14		 push	 20			; 00000014H
  00013	56		 push	 esi
  00014	e8 00 00 00 00	 call	 ??3@YAXPAXI@Z		; operator delete
  00019	83 c4 08	 add	 esp, 8
$LN5@scalar:
  0001c	8b c6		 mov	 eax, esi
  0001e	5e		 pop	 esi
  0001f	5d		 pop	 ebp
  00020	c2 04 00	 ret	 4
??_GCSLordSkill@@UAEPAXI@Z ENDP				; CSLordSkill::`scalar deleting destructor'
_TEXT	ENDS
; Function compile flags: /Ogtp
; File C:\IAGOS\server\v18\Source\Source\WorldServer\slord.cpp
; File C:\IAGOS\server\v18\Source\Source\_Common\lordskill.h
; File C:\IAGOS\server\v18\Source\Source\WorldServer\lordskillexecutable.h
; File C:\IAGOS\server\v18\Source\Source\WorldServer\slord.cpp
; File C:\IAGOS\server\v18\Source\Source\_Common\lordskill.h
; File C:\IAGOS\server\v18\Source\Source\WorldServer\lordskillexecutable.h
; File C:\IAGOS\server\v18\Source\Source\WorldServer\slord.cpp
; File C:\IAGOS\server\v18\Source\Source\_Common\lordskill.h
; File C:\IAGOS\server\v18\Source\Source\WorldServer\lordskillexecutable.h
; File C:\IAGOS\server\v18\Source\Source\WorldServer\slord.cpp
; File C:\IAGOS\server\v18\Source\Source\_Common\lordskill.h
; File C:\IAGOS\server\v18\Source\Source\WorldServer\slord.cpp
;	COMDAT ?CreateSkillComponent@CSLordSkill@@UAEPAVCLordSkillComponentExecutable@@H@Z
_TEXT	SEGMENT
__$EHRec$ = -12						; size = 12
_nType$ = 8						; size = 4
$T2 = 8							; size = 4
$T3 = 8							; size = 4
$T4 = 8							; size = 4
$T5 = 8							; size = 4
?CreateSkillComponent@CSLordSkill@@UAEPAVCLordSkillComponentExecutable@@H@Z PROC ; CSLordSkill::CreateSkillComponent, COMDAT
; _this$ = ecx

; 129  : {

  00000	55		 push	 ebp
  00001	8b ec		 mov	 ebp, esp
  00003	6a ff		 push	 -1
  00005	68 00 00 00 00	 push	 __ehhandler$?CreateSkillComponent@CSLordSkill@@UAEPAVCLordSkillComponentExecutable@@H@Z
  0000a	64 a1 00 00 00
	00		 mov	 eax, DWORD PTR fs:0
  00010	50		 push	 eax
  00011	56		 push	 esi
  00012	a1 00 00 00 00	 mov	 eax, DWORD PTR ___security_cookie
  00017	33 c5		 xor	 eax, ebp
  00019	50		 push	 eax
  0001a	8d 45 f4	 lea	 eax, DWORD PTR __$EHRec$[ebp]
  0001d	64 a3 00 00 00
	00		 mov	 DWORD PTR fs:0, eax

; 130  : 	switch( nType )

  00023	8b 45 08	 mov	 eax, DWORD PTR _nType$[ebp]
  00026	48		 dec	 eax
  00027	83 f8 03	 cmp	 eax, 3
  0002a	0f 87 c9 00 00
	00		 ja	 $LN7@CreateSkil
  00030	ff 24 85 00 00
	00 00		 jmp	 DWORD PTR $LN43@CreateSkil[eax*4]
$LN4@CreateSkil:

; 131  : 	{
; 132  : 		case LT_ITEMBUF:
; 133  : 			return new CLordSkillComponentItemBuf;

  00037	68 00 01 00 00	 push	 256			; 00000100H
  0003c	e8 00 00 00 00	 call	 ??2@YAPAXI@Z		; operator new
  00041	8b f0		 mov	 esi, eax
  00043	83 c4 04	 add	 esp, 4
  00046	89 75 08	 mov	 DWORD PTR $T2[ebp], esi
  00049	c7 45 fc 00 00
	00 00		 mov	 DWORD PTR __$EHRec$[ebp+8], 0
  00050	85 f6		 test	 esi, esi
  00052	0f 84 df 00 00
	00		 je	 $LN16@CreateSkil
; File C:\IAGOS\server\v18\Source\Source\_Common\lordskill.h

; 67   : 	CLordSkillComponentExecutable() : CLordSkillComponent()	{}

  00058	8b ce		 mov	 ecx, esi
  0005a	e8 00 00 00 00	 call	 ??0CLordSkillComponent@@QAE@XZ ; CLordSkillComponent::CLordSkillComponent
; File C:\IAGOS\server\v18\Source\Source\WorldServer\lordskillexecutable.h

; 10   : 	CLordSkillComponentItemBuf() : CLordSkillComponentExecutable()	{}

  0005f	c7 06 00 00 00
	00		 mov	 DWORD PTR [esi], OFFSET ??_7CLordSkillComponentItemBuf@@6B@
; File C:\IAGOS\server\v18\Source\Source\WorldServer\slord.cpp

; 142  : }

  00065	8b c6		 mov	 eax, esi
  00067	8b 4d f4	 mov	 ecx, DWORD PTR __$EHRec$[ebp]
  0006a	64 89 0d 00 00
	00 00		 mov	 DWORD PTR fs:0, ecx
  00071	59		 pop	 ecx
  00072	5e		 pop	 esi
  00073	8b e5		 mov	 esp, ebp
  00075	5d		 pop	 ebp
  00076	c2 04 00	 ret	 4
$LN5@CreateSkil:

; 134  : 		case LT_SUMMON:	
; 135  : 			return new CLordSkillComponentSummon;

  00079	68 00 01 00 00	 push	 256			; 00000100H
  0007e	e8 00 00 00 00	 call	 ??2@YAPAXI@Z		; operator new
  00083	8b f0		 mov	 esi, eax
  00085	83 c4 04	 add	 esp, 4
  00088	89 75 08	 mov	 DWORD PTR $T3[ebp], esi
  0008b	c7 45 fc 01 00
	00 00		 mov	 DWORD PTR __$EHRec$[ebp+8], 1
  00092	85 f6		 test	 esi, esi
  00094	0f 84 9d 00 00
	00		 je	 $LN16@CreateSkil
; File C:\IAGOS\server\v18\Source\Source\_Common\lordskill.h

; 67   : 	CLordSkillComponentExecutable() : CLordSkillComponent()	{}

  0009a	8b ce		 mov	 ecx, esi
  0009c	e8 00 00 00 00	 call	 ??0CLordSkillComponent@@QAE@XZ ; CLordSkillComponent::CLordSkillComponent
; File C:\IAGOS\server\v18\Source\Source\WorldServer\lordskillexecutable.h

; 19   : 	CLordSkillComponentSummon() : CLordSkillComponentExecutable()	{}

  000a1	c7 06 00 00 00
	00		 mov	 DWORD PTR [esi], OFFSET ??_7CLordSkillComponentSummon@@6B@
; File C:\IAGOS\server\v18\Source\Source\WorldServer\slord.cpp

; 142  : }

  000a7	8b c6		 mov	 eax, esi
  000a9	8b 4d f4	 mov	 ecx, DWORD PTR __$EHRec$[ebp]
  000ac	64 89 0d 00 00
	00 00		 mov	 DWORD PTR fs:0, ecx
  000b3	59		 pop	 ecx
  000b4	5e		 pop	 esi
  000b5	8b e5		 mov	 esp, ebp
  000b7	5d		 pop	 ebp
  000b8	c2 04 00	 ret	 4
$LN6@CreateSkil:

; 136  : 		case LT_TELEPORT:
; 137  : 			return new CLordSkillComponentTeleport;

  000bb	68 00 01 00 00	 push	 256			; 00000100H
  000c0	e8 00 00 00 00	 call	 ??2@YAPAXI@Z		; operator new
  000c5	8b f0		 mov	 esi, eax
  000c7	83 c4 04	 add	 esp, 4
  000ca	89 75 08	 mov	 DWORD PTR $T4[ebp], esi
  000cd	c7 45 fc 02 00
	00 00		 mov	 DWORD PTR __$EHRec$[ebp+8], 2
  000d4	85 f6		 test	 esi, esi
  000d6	74 5f		 je	 SHORT $LN16@CreateSkil
; File C:\IAGOS\server\v18\Source\Source\_Common\lordskill.h

; 67   : 	CLordSkillComponentExecutable() : CLordSkillComponent()	{}

  000d8	8b ce		 mov	 ecx, esi
  000da	e8 00 00 00 00	 call	 ??0CLordSkillComponent@@QAE@XZ ; CLordSkillComponent::CLordSkillComponent
; File C:\IAGOS\server\v18\Source\Source\WorldServer\lordskillexecutable.h

; 29   : 	CLordSkillComponentTeleport() : CLordSkillComponentExecutable()		{}

  000df	c7 06 00 00 00
	00		 mov	 DWORD PTR [esi], OFFSET ??_7CLordSkillComponentTeleport@@6B@
; File C:\IAGOS\server\v18\Source\Source\WorldServer\slord.cpp

; 142  : }

  000e5	8b c6		 mov	 eax, esi
  000e7	8b 4d f4	 mov	 ecx, DWORD PTR __$EHRec$[ebp]
  000ea	64 89 0d 00 00
	00 00		 mov	 DWORD PTR fs:0, ecx
  000f1	59		 pop	 ecx
  000f2	5e		 pop	 esi
  000f3	8b e5		 mov	 esp, ebp
  000f5	5d		 pop	 ebp
  000f6	c2 04 00	 ret	 4
$LN7@CreateSkil:

; 138  : 		case LT_PASSIVE:
; 139  : 		default:
; 140  : 			return new CLordSkillComponentExecutable;

  000f9	68 00 01 00 00	 push	 256			; 00000100H
  000fe	e8 00 00 00 00	 call	 ??2@YAPAXI@Z		; operator new
  00103	8b f0		 mov	 esi, eax
  00105	83 c4 04	 add	 esp, 4
  00108	89 75 08	 mov	 DWORD PTR $T5[ebp], esi
  0010b	c7 45 fc 03 00
	00 00		 mov	 DWORD PTR __$EHRec$[ebp+8], 3
  00112	85 f6		 test	 esi, esi
  00114	74 21		 je	 SHORT $LN16@CreateSkil
; File C:\IAGOS\server\v18\Source\Source\_Common\lordskill.h

; 67   : 	CLordSkillComponentExecutable() : CLordSkillComponent()	{}

  00116	8b ce		 mov	 ecx, esi
  00118	e8 00 00 00 00	 call	 ??0CLordSkillComponent@@QAE@XZ ; CLordSkillComponent::CLordSkillComponent
  0011d	c7 06 00 00 00
	00		 mov	 DWORD PTR [esi], OFFSET ??_7CLordSkillComponentExecutable@@6B@
; File C:\IAGOS\server\v18\Source\Source\WorldServer\slord.cpp

; 142  : }

  00123	8b c6		 mov	 eax, esi
  00125	8b 4d f4	 mov	 ecx, DWORD PTR __$EHRec$[ebp]
  00128	64 89 0d 00 00
	00 00		 mov	 DWORD PTR fs:0, ecx
  0012f	59		 pop	 ecx
  00130	5e		 pop	 esi
  00131	8b e5		 mov	 esp, ebp
  00133	5d		 pop	 ebp
  00134	c2 04 00	 ret	 4
$LN16@CreateSkil:
  00137	33 f6		 xor	 esi, esi
  00139	8b c6		 mov	 eax, esi
  0013b	8b 4d f4	 mov	 ecx, DWORD PTR __$EHRec$[ebp]
  0013e	64 89 0d 00 00
	00 00		 mov	 DWORD PTR fs:0, ecx
  00145	59		 pop	 ecx
  00146	5e		 pop	 esi
  00147	8b e5		 mov	 esp, ebp
  00149	5d		 pop	 ebp
  0014a	c2 04 00	 ret	 4
  0014d	0f 1f 00	 npad	 3
$LN43@CreateSkil:
  00150	00 00 00 00	 DD	 $LN7@CreateSkil
  00154	00 00 00 00	 DD	 $LN4@CreateSkil
  00158	00 00 00 00	 DD	 $LN5@CreateSkil
  0015c	00 00 00 00	 DD	 $LN6@CreateSkil
_TEXT	ENDS
;	COMDAT text$x
text$x	SEGMENT
__unwindfunclet$?CreateSkillComponent@CSLordSkill@@UAEPAVCLordSkillComponentExecutable@@H@Z$0:
  00000	68 00 01 00 00	 push	 256			; 00000100H
  00005	8b 45 08	 mov	 eax, DWORD PTR $T2[ebp]
  00008	50		 push	 eax
  00009	e8 00 00 00 00	 call	 ??3@YAXPAXI@Z		; operator delete
  0000e	83 c4 08	 add	 esp, 8
  00011	c3		 ret	 0
__unwindfunclet$?CreateSkillComponent@CSLordSkill@@UAEPAVCLordSkillComponentExecutable@@H@Z$1:
  00012	68 00 01 00 00	 push	 256			; 00000100H
  00017	8b 45 08	 mov	 eax, DWORD PTR $T3[ebp]
  0001a	50		 push	 eax
  0001b	e8 00 00 00 00	 call	 ??3@YAXPAXI@Z		; operator delete
  00020	83 c4 08	 add	 esp, 8
  00023	c3		 ret	 0
__unwindfunclet$?CreateSkillComponent@CSLordSkill@@UAEPAVCLordSkillComponentExecutable@@H@Z$2:
  00024	68 00 01 00 00	 push	 256			; 00000100H
  00029	8b 45 08	 mov	 eax, DWORD PTR $T4[ebp]
  0002c	50		 push	 eax
  0002d	e8 00 00 00 00	 call	 ??3@YAXPAXI@Z		; operator delete
  00032	83 c4 08	 add	 esp, 8
  00035	c3		 ret	 0
__unwindfunclet$?CreateSkillComponent@CSLordSkill@@UAEPAVCLordSkillComponentExecutable@@H@Z$3:
  00036	68 00 01 00 00	 push	 256			; 00000100H
  0003b	8b 45 08	 mov	 eax, DWORD PTR $T5[ebp]
  0003e	50		 push	 eax
  0003f	e8 00 00 00 00	 call	 ??3@YAXPAXI@Z		; operator delete
  00044	83 c4 08	 add	 esp, 8
  00047	c3		 ret	 0
  00048	cc		 int	 3
  00049	cc		 int	 3
  0004a	cc		 int	 3
  0004b	cc		 int	 3
  0004c	cc		 int	 3
__ehhandler$?CreateSkillComponent@CSLordSkill@@UAEPAVCLordSkillComponentExecutable@@H@Z:
  0004d	90		 npad	 1
  0004e	90		 npad	 1
  0004f	8b 54 24 08	 mov	 edx, DWORD PTR [esp+8]
  00053	8d 42 0c	 lea	 eax, DWORD PTR [edx+12]
  00056	8b 4a f8	 mov	 ecx, DWORD PTR [edx-8]
  00059	33 c8		 xor	 ecx, eax
  0005b	e8 00 00 00 00	 call	 @__security_check_cookie@4
  00060	b8 00 00 00 00	 mov	 eax, OFFSET __ehfuncinfo$?CreateSkillComponent@CSLordSkill@@UAEPAVCLordSkillComponentExecutable@@H@Z
  00065	e9 00 00 00 00	 jmp	 ___CxxFrameHandler3
text$x	ENDS
?CreateSkillComponent@CSLordSkill@@UAEPAVCLordSkillComponentExecutable@@H@Z ENDP ; CSLordSkill::CreateSkillComponent
; Function compile flags: /Ogtp
; File C:\IAGOS\server\v18\Source\Source\WorldServer\slord.cpp
;	COMDAT ??1CSLordSkill@@UAE@XZ
_TEXT	SEGMENT
??1CSLordSkill@@UAE@XZ PROC				; CSLordSkill::~CSLordSkill, COMDAT
; _this$ = ecx

; 125  : {

  00000	c7 01 00 00 00
	00		 mov	 DWORD PTR [ecx], OFFSET ??_7CSLordSkill@@6B@

; 126  : }

  00006	e9 00 00 00 00	 jmp	 ??1CLordSkill@@UAE@XZ	; CLordSkill::~CLordSkill
??1CSLordSkill@@UAE@XZ ENDP				; CSLordSkill::~CSLordSkill
_TEXT	ENDS
; Function compile flags: /Ogtp
; File C:\IAGOS\server\v18\Source\Source\WorldServer\slord.cpp
;	COMDAT ??0CSLordSkill@@QAE@PAVCLord@@@Z
_TEXT	SEGMENT
_this$ = -4						; size = 4
_pLord$ = 8						; size = 4
??0CSLordSkill@@QAE@PAVCLord@@@Z PROC			; CSLordSkill::CSLordSkill, COMDAT
; _this$ = ecx

; 121  : {

  00000	55		 push	 ebp
  00001	8b ec		 mov	 ebp, esp
  00003	51		 push	 ecx
  00004	56		 push	 esi
  00005	ff 75 08	 push	 DWORD PTR _pLord$[ebp]
  00008	8b f1		 mov	 esi, ecx
  0000a	89 75 fc	 mov	 DWORD PTR _this$[ebp], esi
  0000d	e8 00 00 00 00	 call	 ??0CLordSkill@@QAE@PAVCLord@@@Z ; CLordSkill::CLordSkill
  00012	c7 06 00 00 00
	00		 mov	 DWORD PTR [esi], OFFSET ??_7CSLordSkill@@6B@

; 122  : }

  00018	8b c6		 mov	 eax, esi
  0001a	5e		 pop	 esi
  0001b	8b e5		 mov	 esp, ebp
  0001d	5d		 pop	 ebp
  0001e	c2 04 00	 ret	 4
??0CSLordSkill@@QAE@PAVCLord@@@Z ENDP			; CSLordSkill::CSLordSkill
_TEXT	ENDS
; Function compile flags: /Ogtp
;	COMDAT ??_GCLEvent@@UAEPAXI@Z
_TEXT	SEGMENT
___flags$ = 8						; size = 4
??_GCLEvent@@UAEPAXI@Z PROC				; CLEvent::`scalar deleting destructor', COMDAT
; _this$ = ecx
  00000	55		 push	 ebp
  00001	8b ec		 mov	 ebp, esp
  00003	56		 push	 esi
  00004	8b f1		 mov	 esi, ecx
  00006	e8 00 00 00 00	 call	 ??1CLEvent@@UAE@XZ	; CLEvent::~CLEvent
  0000b	f6 45 08 01	 test	 BYTE PTR ___flags$[ebp], 1
  0000f	74 0b		 je	 SHORT $LN5@scalar
  00011	6a 2c		 push	 44			; 0000002cH
  00013	56		 push	 esi
  00014	e8 00 00 00 00	 call	 ??3@YAXPAXI@Z		; operator delete
  00019	83 c4 08	 add	 esp, 8
$LN5@scalar:
  0001c	8b c6		 mov	 eax, esi
  0001e	5e		 pop	 esi
  0001f	5d		 pop	 ebp
  00020	c2 04 00	 ret	 4
??_GCLEvent@@UAEPAXI@Z ENDP				; CLEvent::`scalar deleting destructor'
_TEXT	ENDS
; Function compile flags: /Ogtp
; File C:\IAGOS\server\v18\Source\Source\WorldServer\slord.cpp
;	COMDAT ?DoTestInitialize@CLEvent@@MAEHXZ
_TEXT	SEGMENT
?DoTestInitialize@CLEvent@@MAEHXZ PROC			; CLEvent::DoTestInitialize, COMDAT
; _this$ = ecx

; 114  : 	g_UserMng.AddLEventInitialize();

  00000	b9 00 00 00 00	 mov	 ecx, OFFSET ?g_UserMng@@3VCUserMng@@A ; g_UserMng
  00005	e8 00 00 00 00	 call	 ?AddLEventInitialize@CUserMng@@QAEXXZ ; CUserMng::AddLEventInitialize

; 115  : 	return TRUE;

  0000a	b8 01 00 00 00	 mov	 eax, 1

; 116  : }

  0000f	c3		 ret	 0
?DoTestInitialize@CLEvent@@MAEHXZ ENDP			; CLEvent::DoTestInitialize
_TEXT	ENDS
; Function compile flags: /Ogtp
; File C:\IAGOS\server\v18\Source\Source\WorldServer\slord.cpp
;	COMDAT ?DoTestAddComponent@CLEvent@@MAEHPAVCLEComponent@@@Z
_TEXT	SEGMENT
_pComponent$ = 8					; size = 4
?DoTestAddComponent@CLEvent@@MAEHPAVCLEComponent@@@Z PROC ; CLEvent::DoTestAddComponent, COMDAT
; _this$ = ecx

; 107  : {

  00000	55		 push	 ebp
  00001	8b ec		 mov	 ebp, esp

; 108  : 	g_UserMng.AddLEventCreate( pComponent );

  00003	ff 75 08	 push	 DWORD PTR _pComponent$[ebp]
  00006	b9 00 00 00 00	 mov	 ecx, OFFSET ?g_UserMng@@3VCUserMng@@A ; g_UserMng
  0000b	e8 00 00 00 00	 call	 ?AddLEventCreate@CUserMng@@QAEXPAVCLEComponent@@@Z ; CUserMng::AddLEventCreate

; 109  : 	return TRUE;

  00010	b8 01 00 00 00	 mov	 eax, 1

; 110  : }

  00015	5d		 pop	 ebp
  00016	c2 04 00	 ret	 4
?DoTestAddComponent@CLEvent@@MAEHPAVCLEComponent@@@Z ENDP ; CLEvent::DoTestAddComponent
_TEXT	ENDS
; Function compile flags: /Ogtp
; File C:\IAGOS\server\v18\Source\Source\WorldServer\slord.cpp
;	COMDAT ??1CLEvent@@UAE@XZ
_TEXT	SEGMENT
??1CLEvent@@UAE@XZ PROC					; CLEvent::~CLEvent, COMDAT
; _this$ = ecx

; 103  : {

  00000	c7 01 00 00 00
	00		 mov	 DWORD PTR [ecx], OFFSET ??_7CLEvent@@6B@

; 104  : }

  00006	e9 00 00 00 00	 jmp	 ??1ILordEvent@@UAE@XZ	; ILordEvent::~ILordEvent
??1CLEvent@@UAE@XZ ENDP					; CLEvent::~CLEvent
_TEXT	ENDS
; Function compile flags: /Ogtp
; File C:\IAGOS\server\v18\Source\Source\WorldServer\slord.cpp
;	COMDAT ??0CLEvent@@QAE@PAVCLord@@@Z
_TEXT	SEGMENT
_this$ = -4						; size = 4
_pLord$ = 8						; size = 4
??0CLEvent@@QAE@PAVCLord@@@Z PROC			; CLEvent::CLEvent, COMDAT
; _this$ = ecx

; 99   : {

  00000	55		 push	 ebp
  00001	8b ec		 mov	 ebp, esp
  00003	51		 push	 ecx
  00004	56		 push	 esi
  00005	ff 75 08	 push	 DWORD PTR _pLord$[ebp]
  00008	8b f1		 mov	 esi, ecx
  0000a	89 75 fc	 mov	 DWORD PTR _this$[ebp], esi
  0000d	e8 00 00 00 00	 call	 ??0ILordEvent@@IAE@PAVCLord@@@Z ; ILordEvent::ILordEvent
  00012	c7 06 00 00 00
	00		 mov	 DWORD PTR [esi], OFFSET ??_7CLEvent@@6B@

; 100  : }

  00018	8b c6		 mov	 eax, esi
  0001a	5e		 pop	 esi
  0001b	8b e5		 mov	 esp, ebp
  0001d	5d		 pop	 ebp
  0001e	c2 04 00	 ret	 4
??0CLEvent@@QAE@PAVCLord@@@Z ENDP			; CLEvent::CLEvent
_TEXT	ENDS
; Function compile flags: /Ogtp
;	COMDAT ??_GCSElection@@UAEPAXI@Z
_TEXT	SEGMENT
___flags$ = 8						; size = 4
??_GCSElection@@UAEPAXI@Z PROC				; CSElection::`scalar deleting destructor', COMDAT
; _this$ = ecx
  00000	55		 push	 ebp
  00001	8b ec		 mov	 ebp, esp
  00003	56		 push	 esi
  00004	8b f1		 mov	 esi, ecx
  00006	e8 00 00 00 00	 call	 ??1CSElection@@UAE@XZ	; CSElection::~CSElection
  0000b	f6 45 08 01	 test	 BYTE PTR ___flags$[ebp], 1
  0000f	74 0b		 je	 SHORT $LN5@scalar
  00011	6a 60		 push	 96			; 00000060H
  00013	56		 push	 esi
  00014	e8 00 00 00 00	 call	 ??3@YAXPAXI@Z		; operator delete
  00019	83 c4 08	 add	 esp, 8
$LN5@scalar:
  0001c	8b c6		 mov	 eax, esi
  0001e	5e		 pop	 esi
  0001f	5d		 pop	 ebp
  00020	c2 04 00	 ret	 4
??_GCSElection@@UAEPAXI@Z ENDP				; CSElection::`scalar deleting destructor'
_TEXT	ENDS
; Function compile flags: /Ogtp
; File C:\IAGOS\server\v18\Source\Source\WorldServer\slord.cpp
;	COMDAT ?DoTestIncVote@CSElection@@MAEHKK@Z
_TEXT	SEGMENT
_idPlayer$ = 8						; size = 4
_idElector$ = 12					; size = 4
?DoTestIncVote@CSElection@@MAEHKK@Z PROC		; CSElection::DoTestIncVote, COMDAT
; _this$ = ecx

; 90   : {

  00000	55		 push	 ebp
  00001	8b ec		 mov	 ebp, esp

; 91   : 	g_UserMng.AddElectionIncVote( idPlayer, idElector );

  00003	ff 75 0c	 push	 DWORD PTR _idElector$[ebp]
  00006	b9 00 00 00 00	 mov	 ecx, OFFSET ?g_UserMng@@3VCUserMng@@A ; g_UserMng
  0000b	ff 75 08	 push	 DWORD PTR _idPlayer$[ebp]
  0000e	e8 00 00 00 00	 call	 ?AddElectionIncVote@CUserMng@@QAEXKK@Z ; CUserMng::AddElectionIncVote

; 92   : 	return TRUE;

  00013	b8 01 00 00 00	 mov	 eax, 1

; 93   : }

  00018	5d		 pop	 ebp
  00019	c2 08 00	 ret	 8
?DoTestIncVote@CSElection@@MAEHKK@Z ENDP		; CSElection::DoTestIncVote
_TEXT	ENDS
; Function compile flags: /Ogtp
; File C:\IAGOS\server\v18\Source\Source\WorldServer\slord.cpp
;	COMDAT ?DoTestSetPledge@CSElection@@MAEHKPBD@Z
_TEXT	SEGMENT
_idPlayer$ = 8						; size = 4
_szPledge$ = 12						; size = 4
?DoTestSetPledge@CSElection@@MAEHKPBD@Z PROC		; CSElection::DoTestSetPledge, COMDAT
; _this$ = ecx

; 84   : {

  00000	55		 push	 ebp
  00001	8b ec		 mov	 ebp, esp

; 85   : 	g_UserMng.AddElectionSetPledge( idPlayer, szPledge );

  00003	ff 75 0c	 push	 DWORD PTR _szPledge$[ebp]
  00006	b9 00 00 00 00	 mov	 ecx, OFFSET ?g_UserMng@@3VCUserMng@@A ; g_UserMng
  0000b	ff 75 08	 push	 DWORD PTR _idPlayer$[ebp]
  0000e	e8 00 00 00 00	 call	 ?AddElectionSetPledge@CUserMng@@QAEXKPBD@Z ; CUserMng::AddElectionSetPledge

; 86   : 	return TRUE;

  00013	b8 01 00 00 00	 mov	 eax, 1

; 87   : }

  00018	5d		 pop	 ebp
  00019	c2 08 00	 ret	 8
?DoTestSetPledge@CSElection@@MAEHKPBD@Z ENDP		; CSElection::DoTestSetPledge
_TEXT	ENDS
; Function compile flags: /Ogtp
; File C:\IAGOS\server\v18\Source\Source\WorldServer\slord.cpp
;	COMDAT ?DoAddDepositComplete@CSElection@@MAEXK_JJ@Z
_TEXT	SEGMENT
_idPlayer$ = 8						; size = 4
_iDeposit$ = 12						; size = 8
_tCreate$ = 20						; size = 4
?DoAddDepositComplete@CSElection@@MAEXK_JJ@Z PROC	; CSElection::DoAddDepositComplete, COMDAT
; _this$ = ecx

; 79   : {

  00000	55		 push	 ebp
  00001	8b ec		 mov	 ebp, esp

; 80   : 	g_UserMng.AddElectionAddDeposit( idPlayer, iDeposit, tCreate );

  00003	ff 75 14	 push	 DWORD PTR _tCreate$[ebp]
  00006	b9 00 00 00 00	 mov	 ecx, OFFSET ?g_UserMng@@3VCUserMng@@A ; g_UserMng
  0000b	ff 75 10	 push	 DWORD PTR _iDeposit$[ebp+4]
  0000e	ff 75 0c	 push	 DWORD PTR _iDeposit$[ebp]
  00011	ff 75 08	 push	 DWORD PTR _idPlayer$[ebp]
  00014	e8 00 00 00 00	 call	 ?AddElectionAddDeposit@CUserMng@@QAEXK_JJ@Z ; CUserMng::AddElectionAddDeposit

; 81   : }

  00019	5d		 pop	 ebp
  0001a	c2 10 00	 ret	 16			; 00000010H
?DoAddDepositComplete@CSElection@@MAEXK_JJ@Z ENDP	; CSElection::DoAddDepositComplete
_TEXT	ENDS
; Function compile flags: /Ogtp
; File C:\IAGOS\server\v18\Source\Source\WorldServer\slord.cpp
;	COMDAT ?DoTestEndVote@CSElection@@MAEHK@Z
_TEXT	SEGMENT
_idPlayer$ = 8						; size = 4
?DoTestEndVote@CSElection@@MAEHK@Z PROC			; CSElection::DoTestEndVote, COMDAT
; _this$ = ecx

; 72   : {

  00000	55		 push	 ebp
  00001	8b ec		 mov	 ebp, esp

; 73   : 	g_UserMng.AddQueryPlayerData( idPlayer );

  00003	ff 75 08	 push	 DWORD PTR _idPlayer$[ebp]
  00006	b9 00 00 00 00	 mov	 ecx, OFFSET ?g_UserMng@@3VCUserMng@@A ; g_UserMng
  0000b	e8 00 00 00 00	 call	 ?AddQueryPlayerData@CUserMng@@QAEXK@Z ; CUserMng::AddQueryPlayerData

; 74   : 	g_UserMng.AddElectionEndVote( idPlayer );

  00010	ff 75 08	 push	 DWORD PTR _idPlayer$[ebp]
  00013	b9 00 00 00 00	 mov	 ecx, OFFSET ?g_UserMng@@3VCUserMng@@A ; g_UserMng
  00018	e8 00 00 00 00	 call	 ?AddElectionEndVote@CUserMng@@QAEXK@Z ; CUserMng::AddElectionEndVote

; 75   : 	return TRUE;

  0001d	b8 01 00 00 00	 mov	 eax, 1

; 76   : }

  00022	5d		 pop	 ebp
  00023	c2 04 00	 ret	 4
?DoTestEndVote@CSElection@@MAEHK@Z ENDP			; CSElection::DoTestEndVote
_TEXT	ENDS
; Function compile flags: /Ogtp
; File C:\IAGOS\server\v18\Source\Source\WorldServer\slord.cpp
;	COMDAT ?DoTestBeginVote@CSElection@@MAEHAAH@Z
_TEXT	SEGMENT
_nRequirement$ = 8					; size = 4
?DoTestBeginVote@CSElection@@MAEHAAH@Z PROC		; CSElection::DoTestBeginVote, COMDAT
; _this$ = ecx

; 66   : {

  00000	55		 push	 ebp
  00001	8b ec		 mov	 ebp, esp

; 67   : 	g_UserMng.AddElectionBeginVote( nRequirement );

  00003	8b 45 08	 mov	 eax, DWORD PTR _nRequirement$[ebp]
  00006	b9 00 00 00 00	 mov	 ecx, OFFSET ?g_UserMng@@3VCUserMng@@A ; g_UserMng
  0000b	ff 30		 push	 DWORD PTR [eax]
  0000d	e8 00 00 00 00	 call	 ?AddElectionBeginVote@CUserMng@@QAEXH@Z ; CUserMng::AddElectionBeginVote

; 68   : 	return TRUE;

  00012	b8 01 00 00 00	 mov	 eax, 1

; 69   : }

  00017	5d		 pop	 ebp
  00018	c2 04 00	 ret	 4
?DoTestBeginVote@CSElection@@MAEHAAH@Z ENDP		; CSElection::DoTestBeginVote
_TEXT	ENDS
; Function compile flags: /Ogtp
; File C:\IAGOS\server\v18\Source\Source\WorldServer\slord.cpp
;	COMDAT ?DoTestBeginCandidacy@CSElection@@MAEHXZ
_TEXT	SEGMENT
?DoTestBeginCandidacy@CSElection@@MAEHXZ PROC		; CSElection::DoTestBeginCandidacy, COMDAT
; _this$ = ecx

; 61   : 	g_UserMng.AddElectionBeginCandidacy();

  00000	b9 00 00 00 00	 mov	 ecx, OFFSET ?g_UserMng@@3VCUserMng@@A ; g_UserMng
  00005	e8 00 00 00 00	 call	 ?AddElectionBeginCandidacy@CUserMng@@QAEXXZ ; CUserMng::AddElectionBeginCandidacy

; 62   : 	return TRUE;

  0000a	b8 01 00 00 00	 mov	 eax, 1

; 63   : }

  0000f	c3		 ret	 0
?DoTestBeginCandidacy@CSElection@@MAEHXZ ENDP		; CSElection::DoTestBeginCandidacy
_TEXT	ENDS
; Function compile flags: /Ogtp
; File C:\IAGOS\server\v18\Source\Source\WorldServer\slord.cpp
;	COMDAT ??1CSElection@@UAE@XZ
_TEXT	SEGMENT
??1CSElection@@UAE@XZ PROC				; CSElection::~CSElection, COMDAT
; _this$ = ecx

; 56   : {

  00000	c7 01 00 00 00
	00		 mov	 DWORD PTR [ecx], OFFSET ??_7CSElection@@6B@

; 57   : }

  00006	e9 00 00 00 00	 jmp	 ??1IElection@@UAE@XZ	; IElection::~IElection
??1CSElection@@UAE@XZ ENDP				; CSElection::~CSElection
_TEXT	ENDS
; Function compile flags: /Ogtp
; File C:\IAGOS\server\v18\Source\Source\WorldServer\slord.cpp
;	COMDAT ??0CSElection@@QAE@PAVCLord@@@Z
_TEXT	SEGMENT
_this$ = -4						; size = 4
_pLord$ = 8						; size = 4
??0CSElection@@QAE@PAVCLord@@@Z PROC			; CSElection::CSElection, COMDAT
; _this$ = ecx

; 52   : {

  00000	55		 push	 ebp
  00001	8b ec		 mov	 ebp, esp
  00003	51		 push	 ecx
  00004	56		 push	 esi
  00005	ff 75 08	 push	 DWORD PTR _pLord$[ebp]
  00008	8b f1		 mov	 esi, ecx
  0000a	89 75 fc	 mov	 DWORD PTR _this$[ebp], esi
  0000d	e8 00 00 00 00	 call	 ??0IElection@@IAE@PAVCLord@@@Z ; IElection::IElection
  00012	c7 06 00 00 00
	00		 mov	 DWORD PTR [esi], OFFSET ??_7CSElection@@6B@

; 53   : }

  00018	8b c6		 mov	 eax, esi
  0001a	5e		 pop	 esi
  0001b	8b e5		 mov	 esp, ebp
  0001d	5d		 pop	 ebp
  0001e	c2 04 00	 ret	 4
??0CSElection@@QAE@PAVCLord@@@Z ENDP			; CSElection::CSElection
_TEXT	ENDS
; Function compile flags: /Ogtp
;	COMDAT ??_GCSLord@@UAEPAXI@Z
_TEXT	SEGMENT
___flags$ = 8						; size = 4
??_GCSLord@@UAEPAXI@Z PROC				; CSLord::`scalar deleting destructor', COMDAT
; _this$ = ecx
  00000	55		 push	 ebp
  00001	8b ec		 mov	 ebp, esp
  00003	56		 push	 esi
  00004	8b f1		 mov	 esi, ecx
  00006	e8 00 00 00 00	 call	 ??1CSLord@@UAE@XZ	; CSLord::~CSLord
  0000b	f6 45 08 01	 test	 BYTE PTR ___flags$[ebp], 1
  0000f	74 0b		 je	 SHORT $LN5@scalar
  00011	6a 14		 push	 20			; 00000014H
  00013	56		 push	 esi
  00014	e8 00 00 00 00	 call	 ??3@YAXPAXI@Z		; operator delete
  00019	83 c4 08	 add	 esp, 8
$LN5@scalar:
  0001c	8b c6		 mov	 eax, esi
  0001e	5e		 pop	 esi
  0001f	5d		 pop	 ebp
  00020	c2 04 00	 ret	 4
??_GCSLord@@UAEPAXI@Z ENDP				; CSLord::`scalar deleting destructor'
_TEXT	ENDS
; Function compile flags: /Ogtp
; File C:\IAGOS\server\v18\Source\Source\WorldServer\slord.cpp
;	COMDAT ?DestroyColleagues@CSLord@@UAEXXZ
_TEXT	SEGMENT
?DestroyColleagues@CSLord@@UAEXXZ PROC			; CSLord::DestroyColleagues, COMDAT
; _this$ = ecx

; 42   : {

  00000	56		 push	 esi
  00001	8b f1		 mov	 esi, ecx

; 43   : 	SAFE_DELETE( m_pElection );

  00003	8b 4e 08	 mov	 ecx, DWORD PTR [esi+8]
  00006	85 c9		 test	 ecx, ecx
  00008	74 0d		 je	 SHORT $LN2@DestroyCol
  0000a	8b 01		 mov	 eax, DWORD PTR [ecx]
  0000c	6a 01		 push	 1
  0000e	ff 10		 call	 DWORD PTR [eax]
  00010	c7 46 08 00 00
	00 00		 mov	 DWORD PTR [esi+8], 0
$LN2@DestroyCol:

; 44   : 	SAFE_DELETE( m_pEvent );

  00017	8b 4e 0c	 mov	 ecx, DWORD PTR [esi+12]
  0001a	85 c9		 test	 ecx, ecx
  0001c	74 0d		 je	 SHORT $LN3@DestroyCol
  0001e	8b 01		 mov	 eax, DWORD PTR [ecx]
  00020	6a 01		 push	 1
  00022	ff 10		 call	 DWORD PTR [eax]
  00024	c7 46 0c 00 00
	00 00		 mov	 DWORD PTR [esi+12], 0
$LN3@DestroyCol:

; 45   : 	SAFE_DELETE( m_pSkills );

  0002b	8b 4e 10	 mov	 ecx, DWORD PTR [esi+16]
  0002e	85 c9		 test	 ecx, ecx
  00030	74 0d		 je	 SHORT $LN4@DestroyCol
  00032	8b 01		 mov	 eax, DWORD PTR [ecx]
  00034	6a 01		 push	 1
  00036	ff 10		 call	 DWORD PTR [eax]
  00038	c7 46 10 00 00
	00 00		 mov	 DWORD PTR [esi+16], 0
$LN4@DestroyCol:

; 46   : }

  0003f	5e		 pop	 esi
  00040	c3		 ret	 0
?DestroyColleagues@CSLord@@UAEXXZ ENDP			; CSLord::DestroyColleagues
_TEXT	ENDS
; Function compile flags: /Ogtp
; File C:\IAGOS\server\v18\Source\Source\WorldServer\slord.cpp
;	COMDAT ?CreateColleagues@CSLord@@UAEXXZ
_TEXT	SEGMENT
$T2 = -20						; size = 4
$T3 = -20						; size = 4
$T4 = -16						; size = 4
$T5 = -16						; size = 4
__$EHRec$ = -12						; size = 12
?CreateColleagues@CSLord@@UAEXXZ PROC			; CSLord::CreateColleagues, COMDAT
; _this$ = ecx

; 30   : {

  00000	55		 push	 ebp
  00001	8b ec		 mov	 ebp, esp
  00003	6a ff		 push	 -1
  00005	68 00 00 00 00	 push	 __ehhandler$?CreateColleagues@CSLord@@UAEXXZ
  0000a	64 a1 00 00 00
	00		 mov	 eax, DWORD PTR fs:0
  00010	50		 push	 eax
  00011	83 ec 08	 sub	 esp, 8
  00014	53		 push	 ebx
  00015	56		 push	 esi
  00016	57		 push	 edi
  00017	a1 00 00 00 00	 mov	 eax, DWORD PTR ___security_cookie
  0001c	33 c5		 xor	 eax, ebp
  0001e	50		 push	 eax
  0001f	8d 45 f4	 lea	 eax, DWORD PTR __$EHRec$[ebp]
  00022	64 a3 00 00 00
	00		 mov	 DWORD PTR fs:0, eax
  00028	8b f1		 mov	 esi, ecx

; 31   : 	CSElection * pElection	= new CSElection( this );

  0002a	6a 60		 push	 96			; 00000060H
  0002c	e8 00 00 00 00	 call	 ??2@YAPAXI@Z		; operator new
  00031	83 c4 04	 add	 esp, 4
  00034	89 45 f0	 mov	 DWORD PTR $T4[ebp], eax
  00037	c7 45 fc 00 00
	00 00		 mov	 DWORD PTR __$EHRec$[ebp+8], 0
  0003e	85 c0		 test	 eax, eax
  00040	74 0d		 je	 SHORT $LN3@CreateColl
  00042	56		 push	 esi
  00043	8b c8		 mov	 ecx, eax
  00045	e8 00 00 00 00	 call	 ??0CSElection@@QAE@PAVCLord@@@Z ; CSElection::CSElection
  0004a	89 45 f0	 mov	 DWORD PTR $T5[ebp], eax
  0004d	eb 07		 jmp	 SHORT $LN4@CreateColl
$LN3@CreateColl:
  0004f	c7 45 f0 00 00
	00 00		 mov	 DWORD PTR $T5[ebp], 0
$LN4@CreateColl:

; 32   : 	CLEvent* pEvent		= new CLEvent( this );

  00056	6a 2c		 push	 44			; 0000002cH
  00058	c7 45 fc ff ff
	ff ff		 mov	 DWORD PTR __$EHRec$[ebp+8], -1
  0005f	e8 00 00 00 00	 call	 ??2@YAPAXI@Z		; operator new
  00064	83 c4 04	 add	 esp, 4
  00067	89 45 ec	 mov	 DWORD PTR $T2[ebp], eax
  0006a	c7 45 fc 01 00
	00 00		 mov	 DWORD PTR __$EHRec$[ebp+8], 1
  00071	85 c0		 test	 eax, eax
  00073	74 0c		 je	 SHORT $LN5@CreateColl
  00075	56		 push	 esi
  00076	8b c8		 mov	 ecx, eax
  00078	e8 00 00 00 00	 call	 ??0CLEvent@@QAE@PAVCLord@@@Z ; CLEvent::CLEvent
  0007d	8b f8		 mov	 edi, eax
  0007f	eb 02		 jmp	 SHORT $LN6@CreateColl
$LN5@CreateColl:
  00081	33 ff		 xor	 edi, edi
$LN6@CreateColl:

; 33   : 	CLordSkill* pSkills		= new CSLordSkill( this );

  00083	6a 14		 push	 20			; 00000014H
  00085	c7 45 fc ff ff
	ff ff		 mov	 DWORD PTR __$EHRec$[ebp+8], -1
  0008c	e8 00 00 00 00	 call	 ??2@YAPAXI@Z		; operator new
  00091	83 c4 04	 add	 esp, 4
  00094	89 45 ec	 mov	 DWORD PTR $T3[ebp], eax
  00097	c7 45 fc 02 00
	00 00		 mov	 DWORD PTR __$EHRec$[ebp+8], 2
  0009e	85 c0		 test	 eax, eax
  000a0	74 0c		 je	 SHORT $LN7@CreateColl
  000a2	56		 push	 esi
  000a3	8b c8		 mov	 ecx, eax
  000a5	e8 00 00 00 00	 call	 ??0CSLordSkill@@QAE@PAVCLord@@@Z ; CSLordSkill::CSLordSkill
  000aa	8b d8		 mov	 ebx, eax
  000ac	eb 02		 jmp	 SHORT $LN8@CreateColl
$LN7@CreateColl:
  000ae	33 db		 xor	 ebx, ebx
$LN8@CreateColl:

; 34   : 	pEvent->Initialize( "lordevent.inc" );

  000b0	68 00 00 00 00	 push	 OFFSET ??_C@_0O@NKJDDJPP@lordevent?4inc@
  000b5	8b cf		 mov	 ecx, edi
  000b7	c7 45 fc ff ff
	ff ff		 mov	 DWORD PTR __$EHRec$[ebp+8], -1
  000be	e8 00 00 00 00	 call	 ?Initialize@ILordEvent@@QAEHPBD@Z ; ILordEvent::Initialize

; 35   : 	pSkills->Initialize( "lordskill.txt" );

  000c3	68 00 00 00 00	 push	 OFFSET ??_C@_0O@DNECDNPA@lordskill?4txt@
  000c8	8b cb		 mov	 ecx, ebx
  000ca	e8 00 00 00 00	 call	 ?Initialize@CLordSkill@@QAEHPBD@Z ; CLordSkill::Initialize

; 36   : 	m_pElection		= pElection;

  000cf	8b 45 f0	 mov	 eax, DWORD PTR $T5[ebp]
  000d2	89 46 08	 mov	 DWORD PTR [esi+8], eax

; 37   : 	m_pEvent	= pEvent;

  000d5	89 7e 0c	 mov	 DWORD PTR [esi+12], edi

; 38   : 	m_pSkills	= pSkills;

  000d8	89 5e 10	 mov	 DWORD PTR [esi+16], ebx

; 39   : }

  000db	8b 4d f4	 mov	 ecx, DWORD PTR __$EHRec$[ebp]
  000de	64 89 0d 00 00
	00 00		 mov	 DWORD PTR fs:0, ecx
  000e5	59		 pop	 ecx
  000e6	5f		 pop	 edi
  000e7	5e		 pop	 esi
  000e8	5b		 pop	 ebx
  000e9	8b e5		 mov	 esp, ebp
  000eb	5d		 pop	 ebp
  000ec	c3		 ret	 0
_TEXT	ENDS
;	COMDAT text$x
text$x	SEGMENT
__unwindfunclet$?CreateColleagues@CSLord@@UAEXXZ$0:
  00000	6a 60		 push	 96			; 00000060H
  00002	8b 45 f0	 mov	 eax, DWORD PTR $T4[ebp]
  00005	50		 push	 eax
  00006	e8 00 00 00 00	 call	 ??3@YAXPAXI@Z		; operator delete
  0000b	83 c4 08	 add	 esp, 8
  0000e	c3		 ret	 0
__unwindfunclet$?CreateColleagues@CSLord@@UAEXXZ$1:
  0000f	6a 2c		 push	 44			; 0000002cH
  00011	8b 45 ec	 mov	 eax, DWORD PTR $T2[ebp]
  00014	50		 push	 eax
  00015	e8 00 00 00 00	 call	 ??3@YAXPAXI@Z		; operator delete
  0001a	83 c4 08	 add	 esp, 8
  0001d	c3		 ret	 0
__unwindfunclet$?CreateColleagues@CSLord@@UAEXXZ$2:
  0001e	6a 14		 push	 20			; 00000014H
  00020	8b 45 ec	 mov	 eax, DWORD PTR $T3[ebp]
  00023	50		 push	 eax
  00024	e8 00 00 00 00	 call	 ??3@YAXPAXI@Z		; operator delete
  00029	83 c4 08	 add	 esp, 8
  0002c	c3		 ret	 0
  0002d	cc		 int	 3
  0002e	cc		 int	 3
  0002f	cc		 int	 3
  00030	cc		 int	 3
  00031	cc		 int	 3
__ehhandler$?CreateColleagues@CSLord@@UAEXXZ:
  00032	90		 npad	 1
  00033	90		 npad	 1
  00034	8b 54 24 08	 mov	 edx, DWORD PTR [esp+8]
  00038	8d 42 0c	 lea	 eax, DWORD PTR [edx+12]
  0003b	8b 4a e8	 mov	 ecx, DWORD PTR [edx-24]
  0003e	33 c8		 xor	 ecx, eax
  00040	e8 00 00 00 00	 call	 @__security_check_cookie@4
  00045	b8 00 00 00 00	 mov	 eax, OFFSET __ehfuncinfo$?CreateColleagues@CSLord@@UAEXXZ
  0004a	e9 00 00 00 00	 jmp	 ___CxxFrameHandler3
text$x	ENDS
?CreateColleagues@CSLord@@UAEXXZ ENDP			; CSLord::CreateColleagues
; Function compile flags: /Ogtp
; File C:\IAGOS\server\v18\Source\Source\WorldServer\slord.cpp
;	COMDAT ?Instance@CSLord@@SAPAV1@XZ
_TEXT	SEGMENT
__$EHRec$ = -12						; size = 12
?Instance@CSLord@@SAPAV1@XZ PROC			; CSLord::Instance, COMDAT

; 24   : {

  00000	55		 push	 ebp
  00001	8b ec		 mov	 ebp, esp
  00003	6a ff		 push	 -1
  00005	68 00 00 00 00	 push	 __ehhandler$?Instance@CSLord@@SAPAV1@XZ
  0000a	64 a1 00 00 00
	00		 mov	 eax, DWORD PTR fs:0
  00010	50		 push	 eax
  00011	a1 00 00 00 00	 mov	 eax, DWORD PTR ___security_cookie
  00016	33 c5		 xor	 eax, ebp
  00018	50		 push	 eax
  00019	8d 45 f4	 lea	 eax, DWORD PTR __$EHRec$[ebp]
  0001c	64 a3 00 00 00
	00		 mov	 DWORD PTR fs:0, eax

; 25   : 	static CSLord sLord;

  00022	64 a1 00 00 00
	00		 mov	 eax, DWORD PTR fs:__tls_array
  00028	8b 0d 00 00 00
	00		 mov	 ecx, DWORD PTR __tls_index
  0002e	8b 0c 88	 mov	 ecx, DWORD PTR [eax+ecx*4]
  00031	a1 00 00 00 00	 mov	 eax, DWORD PTR ?$TSS0@?1??Instance@CSLord@@SAPAV2@XZ@4HA
  00036	3b 81 00 00 00
	00		 cmp	 eax, DWORD PTR __Init_thread_epoch[ecx]
  0003c	7f 14		 jg	 SHORT $LN9@Instance
$LN5@Instance:

; 26   : 	return &sLord;
; 27   : }

  0003e	b8 00 00 00 00	 mov	 eax, OFFSET ?sLord@?1??Instance@CSLord@@SAPAV2@XZ@4V2@A
  00043	8b 4d f4	 mov	 ecx, DWORD PTR __$EHRec$[ebp]
  00046	64 89 0d 00 00
	00 00		 mov	 DWORD PTR fs:0, ecx
  0004d	59		 pop	 ecx
  0004e	8b e5		 mov	 esp, ebp
  00050	5d		 pop	 ebp
  00051	c3		 ret	 0
$LN9@Instance:

; 25   : 	static CSLord sLord;

  00052	68 00 00 00 00	 push	 OFFSET ?$TSS0@?1??Instance@CSLord@@SAPAV2@XZ@4HA
  00057	e8 00 00 00 00	 call	 __Init_thread_header
  0005c	83 c4 04	 add	 esp, 4
  0005f	83 3d 00 00 00
	00 ff		 cmp	 DWORD PTR ?$TSS0@?1??Instance@CSLord@@SAPAV2@XZ@4HA, -1
  00066	75 d6		 jne	 SHORT $LN5@Instance
  00068	b9 00 00 00 00	 mov	 ecx, OFFSET ?sLord@?1??Instance@CSLord@@SAPAV2@XZ@4V2@A
  0006d	c7 45 fc 00 00
	00 00		 mov	 DWORD PTR __$EHRec$[ebp+8], 0
  00074	e8 00 00 00 00	 call	 ??0CSLord@@QAE@XZ	; CSLord::CSLord
  00079	68 00 00 00 00	 push	 OFFSET ??__FsLord@?1??Instance@CSLord@@SAPAV1@XZ@YAXXZ ; `CSLord::Instance'::`2'::`dynamic atexit destructor for 'sLord''
  0007e	e8 00 00 00 00	 call	 _atexit
  00083	68 00 00 00 00	 push	 OFFSET ?$TSS0@?1??Instance@CSLord@@SAPAV2@XZ@4HA
  00088	e8 00 00 00 00	 call	 __Init_thread_footer
  0008d	83 c4 08	 add	 esp, 8
  00090	eb ac		 jmp	 SHORT $LN5@Instance
_TEXT	ENDS
;	COMDAT text$x
text$x	SEGMENT
__unwindfunclet$?Instance@CSLord@@SAPAV1@XZ$0:
  00000	68 00 00 00 00	 push	 OFFSET ?$TSS0@?1??Instance@CSLord@@SAPAV2@XZ@4HA
  00005	e8 00 00 00 00	 call	 __Init_thread_abort
  0000a	59		 pop	 ecx
  0000b	c3		 ret	 0
  0000c	cc		 int	 3
  0000d	cc		 int	 3
  0000e	cc		 int	 3
  0000f	cc		 int	 3
  00010	cc		 int	 3
__ehhandler$?Instance@CSLord@@SAPAV1@XZ:
  00011	90		 npad	 1
  00012	90		 npad	 1
  00013	8b 54 24 08	 mov	 edx, DWORD PTR [esp+8]
  00017	8d 42 0c	 lea	 eax, DWORD PTR [edx+12]
  0001a	8b 4a fc	 mov	 ecx, DWORD PTR [edx-4]
  0001d	33 c8		 xor	 ecx, eax
  0001f	e8 00 00 00 00	 call	 @__security_check_cookie@4
  00024	b8 00 00 00 00	 mov	 eax, OFFSET __ehfuncinfo$?Instance@CSLord@@SAPAV1@XZ
  00029	e9 00 00 00 00	 jmp	 ___CxxFrameHandler3
text$x	ENDS
?Instance@CSLord@@SAPAV1@XZ ENDP			; CSLord::Instance
; Function compile flags: /Ogtp
; File C:\IAGOS\server\v18\Source\Source\WorldServer\slord.cpp
;	COMDAT ??1CSLord@@UAE@XZ
_TEXT	SEGMENT
??1CSLord@@UAE@XZ PROC					; CSLord::~CSLord, COMDAT
; _this$ = ecx

; 20   : {

  00000	c7 01 00 00 00
	00		 mov	 DWORD PTR [ecx], OFFSET ??_7CSLord@@6B@

; 21   : }

  00006	e9 00 00 00 00	 jmp	 ??1CLord@@QAE@XZ	; CLord::~CLord
??1CSLord@@UAE@XZ ENDP					; CSLord::~CSLord
_TEXT	ENDS
; Function compile flags: /Ogtp
; File C:\IAGOS\server\v18\Source\Source\WorldServer\slord.cpp
;	COMDAT ??0CSLord@@QAE@XZ
_TEXT	SEGMENT
_this$ = -4						; size = 4
??0CSLord@@QAE@XZ PROC					; CSLord::CSLord, COMDAT
; _this$ = ecx

; 16   : {

  00000	55		 push	 ebp
  00001	8b ec		 mov	 ebp, esp
  00003	51		 push	 ecx
  00004	56		 push	 esi
  00005	8b f1		 mov	 esi, ecx
  00007	89 75 fc	 mov	 DWORD PTR _this$[ebp], esi
  0000a	e8 00 00 00 00	 call	 ??0CLord@@IAE@XZ	; CLord::CLord
  0000f	c7 06 00 00 00
	00		 mov	 DWORD PTR [esi], OFFSET ??_7CSLord@@6B@

; 17   : }

  00015	8b c6		 mov	 eax, esi
  00017	5e		 pop	 esi
  00018	8b e5		 mov	 esp, ebp
  0001a	5d		 pop	 ebp
  0001b	c3		 ret	 0
??0CSLord@@QAE@XZ ENDP					; CSLord::CSLord
_TEXT	ENDS
; Function compile flags: /Ogtp
; File C:\IAGOS\server\v18\Source\Source\_Common\lord.h
;	COMDAT ?GetController@CLord@@UAEPAVCLController@@XZ
_TEXT	SEGMENT
?GetController@CLord@@UAEPAVCLController@@XZ PROC	; CLord::GetController, COMDAT
; _this$ = ecx

; 266  : 	virtual	CLController*	GetController( void )	{	return NULL;	}

  00000	33 c0		 xor	 eax, eax
  00002	c3		 ret	 0
?GetController@CLord@@UAEPAVCLController@@XZ ENDP	; CLord::GetController
_TEXT	ENDS
; Function compile flags: /Ogtp
; File C:\IAGOS\server\v18\Source\Source\_Common\lord.h
;	COMDAT ?DoEndVoteComplete@IElection@@MAEXXZ
_TEXT	SEGMENT
?DoEndVoteComplete@IElection@@MAEXXZ PROC		; IElection::DoEndVoteComplete, COMDAT
; _this$ = ecx

; 94   : 	virtual	void	DoEndVoteComplete( void )	{}

  00000	c2 00 00	 ret	 0
?DoEndVoteComplete@IElection@@MAEXXZ ENDP		; IElection::DoEndVoteComplete
_TEXT	ENDS
; Function compile flags: /Ogtp
; File C:\IAGOS\server\v18\Source\Source\_Common\lord.h
;	COMDAT ?DoIncVoteComplete@IElection@@MAEXXZ
_TEXT	SEGMENT
?DoIncVoteComplete@IElection@@MAEXXZ PROC		; IElection::DoIncVoteComplete, COMDAT
; _this$ = ecx

; 93   : 	virtual	void	DoIncVoteComplete( void )	{}

  00000	c2 00 00	 ret	 0
?DoIncVoteComplete@IElection@@MAEXXZ ENDP		; IElection::DoIncVoteComplete
_TEXT	ENDS
; Function compile flags: /Ogtp
; File C:\IAGOS\server\v18\Source\Source\_Common\lord.h
;	COMDAT ?DoSetPlegeComplete@IElection@@MAEXXZ
_TEXT	SEGMENT
?DoSetPlegeComplete@IElection@@MAEXXZ PROC		; IElection::DoSetPlegeComplete, COMDAT
; _this$ = ecx

; 91   : 	virtual	void	DoSetPlegeComplete( void )		{}

  00000	c2 00 00	 ret	 0
?DoSetPlegeComplete@IElection@@MAEXXZ ENDP		; IElection::DoSetPlegeComplete
_TEXT	ENDS
; Function compile flags: /Ogtp
; File C:\IAGOS\server\v18\Source\Source\_Common\lord.h
;	COMDAT ?DoTestAddDeposit@IElection@@MAEHK_JJ@Z
_TEXT	SEGMENT
_idPlayer$ = 8						; size = 4
_iDeposit$ = 12						; size = 8
_tCreate$ = 20						; size = 4
?DoTestAddDeposit@IElection@@MAEHK_JJ@Z PROC		; IElection::DoTestAddDeposit, COMDAT
; _this$ = ecx

; 88   : 	virtual	BOOL	DoTestAddDeposit( u_long idPlayer, __int64 iDeposit, time_t tCreate )		{	return TRUE;	}

  00000	b8 01 00 00 00	 mov	 eax, 1
  00005	c2 10 00	 ret	 16			; 00000010H
?DoTestAddDeposit@IElection@@MAEHK_JJ@Z ENDP		; IElection::DoTestAddDeposit
_TEXT	ENDS
; Function compile flags: /Ogtp
; File C:\IAGOS\server\v18\Source\Source\_Common\lord.h
;	COMDAT ?DoReturnDeposit@IElection@@MAEXXZ
_TEXT	SEGMENT
?DoReturnDeposit@IElection@@MAEXXZ PROC			; IElection::DoReturnDeposit, COMDAT
; _this$ = ecx

; 85   : 	virtual	void	DoReturnDeposit( void )		{}

  00000	c2 00 00	 ret	 0
?DoReturnDeposit@IElection@@MAEXXZ ENDP			; IElection::DoReturnDeposit
_TEXT	ENDS
; Function compile flags: /Ogtp
; File C:\IAGOS\server\v18\Source\Source\_Common\lordskill.h
;	COMDAT ??_GCLordSkillComponentExecutable@@UAEPAXI@Z
_TEXT	SEGMENT
___flags$ = 8						; size = 4
??_GCLordSkillComponentExecutable@@UAEPAXI@Z PROC	; CLordSkillComponentExecutable::`scalar deleting destructor', COMDAT
; _this$ = ecx
  00000	55		 push	 ebp
  00001	8b ec		 mov	 ebp, esp

; 68   : 	virtual	~CLordSkillComponentExecutable()	{}

  00003	56		 push	 esi
  00004	8b f1		 mov	 esi, ecx
  00006	c7 06 00 00 00
	00		 mov	 DWORD PTR [esi], OFFSET ??_7CLordSkillComponentExecutable@@6B@
  0000c	e8 00 00 00 00	 call	 ??1CLordSkillComponent@@UAE@XZ ; CLordSkillComponent::~CLordSkillComponent
  00011	f6 45 08 01	 test	 BYTE PTR ___flags$[ebp], 1
  00015	74 0e		 je	 SHORT $LN10@scalar
  00017	68 00 01 00 00	 push	 256			; 00000100H
  0001c	56		 push	 esi
  0001d	e8 00 00 00 00	 call	 ??3@YAXPAXI@Z		; operator delete
  00022	83 c4 08	 add	 esp, 8
$LN10@scalar:
  00025	8b c6		 mov	 eax, esi
  00027	5e		 pop	 esi
  00028	5d		 pop	 ebp
  00029	c2 04 00	 ret	 4
??_GCLordSkillComponentExecutable@@UAEPAXI@Z ENDP	; CLordSkillComponentExecutable::`scalar deleting destructor'
_TEXT	ENDS
; Function compile flags: /Ogtp
; File C:\IAGOS\server\v18\Source\Source\_Common\lordskill.h
;	COMDAT ?Execute@CLordSkillComponentExecutable@@UAEXKKPAX@Z
_TEXT	SEGMENT
_idPlayer$ = 8						; size = 4
_idTarget$ = 12						; size = 4
_pParam$ = 16						; size = 4
?Execute@CLordSkillComponentExecutable@@UAEXKKPAX@Z PROC ; CLordSkillComponentExecutable::Execute, COMDAT
; _this$ = ecx

; 72   : 	virtual	void	Execute( u_long idPlayer, u_long idTarget, VOID* pParam )	{	Use();	}

  00000	8b 41 08	 mov	 eax, DWORD PTR [ecx+8]
  00003	89 41 0c	 mov	 DWORD PTR [ecx+12], eax
  00006	c2 0c 00	 ret	 12			; 0000000cH
?Execute@CLordSkillComponentExecutable@@UAEXKKPAX@Z ENDP ; CLordSkillComponentExecutable::Execute
_TEXT	ENDS
; Function compile flags: /Ogtp
; File C:\IAGOS\server\v18\Source\Source\_Common\lordskill.h
;	COMDAT ??1CLordSkillComponentExecutable@@UAE@XZ
_TEXT	SEGMENT
??1CLordSkillComponentExecutable@@UAE@XZ PROC		; CLordSkillComponentExecutable::~CLordSkillComponentExecutable, COMDAT
; _this$ = ecx

; 68   : 	virtual	~CLordSkillComponentExecutable()	{}

  00000	c7 01 00 00 00
	00		 mov	 DWORD PTR [ecx], OFFSET ??_7CLordSkillComponentExecutable@@6B@
  00006	e9 00 00 00 00	 jmp	 ??1CLordSkillComponent@@UAE@XZ ; CLordSkillComponent::~CLordSkillComponent
??1CLordSkillComponentExecutable@@UAE@XZ ENDP		; CLordSkillComponentExecutable::~CLordSkillComponentExecutable
_TEXT	ENDS
; Function compile flags: /Ogtp
; File C:\IAGOS\server\v18\Source\Source\WorldServer\slord.cpp
;	COMDAT ?__empty_global_delete@@YAXPAXI@Z
_TEXT	SEGMENT
___formal$ = 8						; size = 4
___formal$ = 12						; size = 4
?__empty_global_delete@@YAXPAXI@Z PROC			; __empty_global_delete, COMDAT

  00000	c2 00 00	 ret	 0
?__empty_global_delete@@YAXPAXI@Z ENDP			; __empty_global_delete
_TEXT	ENDS
; Function compile flags: /Ogtp
; File C:\IAGOS\server\v18\Source\Source\WorldServer\slord.cpp
;	COMDAT ?__empty_global_delete@@YAXPAX@Z
_TEXT	SEGMENT
___formal$ = 8						; size = 4
?__empty_global_delete@@YAXPAX@Z PROC			; __empty_global_delete, COMDAT

  00000	c2 00 00	 ret	 0
?__empty_global_delete@@YAXPAX@Z ENDP			; __empty_global_delete
_TEXT	ENDS
END
