; Listing generated by Microsoft (R) Optimizing Compiler Version 19.44.35225.0 

	TITLE	C:\IAGOS\server\v18\Source\Output\WorldServer\Release\Snapshot.obj
	.686P
	.XMM
	include listing.inc
	.model	flat

INCLUDELIB LIBCMT
INCLUDELIB OLDNAMES

PUBLIC	?__empty_global_delete@@YAXPAX@Z		; __empty_global_delete
PUBLIC	?__empty_global_delete@@YAXPAXI@Z		; __empty_global_delete
PUBLIC	??0CSnapshot@@QAE@XZ				; CSnapshot::CSnapshot
PUBLIC	??0CSnapshot@@QAE@KKKK@Z			; CSnapshot::CSnapshot
PUBLIC	??1CSnapshot@@UAE@XZ				; CSnapshot::~CSnapshot
PUBLIC	?SetSnapshot@CSnapshot@@QAEXKK@Z		; CSnapshot::SetSnapshot
PUBLIC	??_GCSnapshot@@UAEPAXI@Z			; CSnapshot::`scalar deleting destructor'
PUBLIC	??$?6K@CAr@@QAEAAV0@ABK@Z			; CAr::operator<<<unsigned long>
PUBLIC	??$?6F@CAr@@QAEAAV0@ABF@Z			; CAr::operator<<<short>
PUBLIC	??_7CSnapshot@@6B@				; CSnapshot::`vftable'
PUBLIC	??_R4CSnapshot@@6B@				; CSnapshot::`RTTI Complete Object Locator'
PUBLIC	??_R0?AVCSnapshot@@@8				; CSnapshot `RTTI Type Descriptor'
PUBLIC	??_R3CSnapshot@@8				; CSnapshot::`RTTI Class Hierarchy Descriptor'
PUBLIC	??_R2CSnapshot@@8				; CSnapshot::`RTTI Base Class Array'
PUBLIC	??_R1A@?0A@EA@CSnapshot@@8			; CSnapshot::`RTTI Base Class Descriptor at (0,-1,0,64)'
EXTRN	??3@YAXPAXI@Z:PROC				; operator delete
EXTRN	??0CAr@@QAE@PAXI@Z:PROC				; CAr::CAr
EXTRN	??1CAr@@QAE@XZ:PROC				; CAr::~CAr
EXTRN	?CheckBuf@CAr@@QAEXI@Z:PROC			; CAr::CheckBuf
EXTRN	?Flush@CAr@@QAEXXZ:PROC				; CAr::Flush
EXTRN	??_ECSnapshot@@UAEPAXI@Z:PROC			; CSnapshot::`vector deleting destructor'
EXTRN	@__security_check_cookie@4:PROC
EXTRN	___CxxFrameHandler3:PROC
EXTRN	??_7type_info@@6B@:QWORD			; type_info::`vftable'
EXTRN	___security_cookie:DWORD
;	COMDAT ??_R1A@?0A@EA@CSnapshot@@8
rdata$r	SEGMENT
??_R1A@?0A@EA@CSnapshot@@8 DD FLAT:??_R0?AVCSnapshot@@@8 ; CSnapshot::`RTTI Base Class Descriptor at (0,-1,0,64)'
	DD	00H
	DD	00H
	DD	0ffffffffH
	DD	00H
	DD	040H
	DD	FLAT:??_R3CSnapshot@@8
rdata$r	ENDS
;	COMDAT ??_R2CSnapshot@@8
rdata$r	SEGMENT
??_R2CSnapshot@@8 DD FLAT:??_R1A@?0A@EA@CSnapshot@@8	; CSnapshot::`RTTI Base Class Array'
rdata$r	ENDS
;	COMDAT ??_R3CSnapshot@@8
rdata$r	SEGMENT
??_R3CSnapshot@@8 DD 00H				; CSnapshot::`RTTI Class Hierarchy Descriptor'
	DD	00H
	DD	01H
	DD	FLAT:??_R2CSnapshot@@8
rdata$r	ENDS
;	COMDAT ??_R0?AVCSnapshot@@@8
data$rs	SEGMENT
??_R0?AVCSnapshot@@@8 DD FLAT:??_7type_info@@6B@	; CSnapshot `RTTI Type Descriptor'
	DD	00H
	DB	'.?AVCSnapshot@@', 00H
data$rs	ENDS
;	COMDAT ??_R4CSnapshot@@6B@
rdata$r	SEGMENT
??_R4CSnapshot@@6B@ DD 00H				; CSnapshot::`RTTI Complete Object Locator'
	DD	00H
	DD	00H
	DD	FLAT:??_R0?AVCSnapshot@@@8
	DD	FLAT:??_R3CSnapshot@@8
rdata$r	ENDS
;	COMDAT ??_7CSnapshot@@6B@
CONST	SEGMENT
??_7CSnapshot@@6B@ DD FLAT:??_R4CSnapshot@@6B@		; CSnapshot::`vftable'
	DD	FLAT:??_ECSnapshot@@UAEPAXI@Z
CONST	ENDS
;	COMDAT xdata$x
xdata$x	SEGMENT
__ehfuncinfo$??1CSnapshot@@UAE@XZ DD 019930522H
	DD	00H
	DD	00H
	DD	2 DUP(00H)
	DD	2 DUP(00H)
	DD	00H
	DD	05H
xdata$x	ENDS
;	COMDAT xdata$x
xdata$x	SEGMENT
__unwindtable$??0CSnapshot@@QAE@KKKK@Z DD 0ffffffffH
	DD	FLAT:__unwindfunclet$??0CSnapshot@@QAE@KKKK@Z$0
__ehfuncinfo$??0CSnapshot@@QAE@KKKK@Z DD 019930522H
	DD	01H
	DD	FLAT:__unwindtable$??0CSnapshot@@QAE@KKKK@Z
	DD	2 DUP(00H)
	DD	2 DUP(00H)
	DD	00H
	DD	01H
xdata$x	ENDS
; Function compile flags: /Ogtp
; File C:\IAGOS\server\v18\Source\Source\_Network\Misc\Include\ar.h
;	COMDAT ??$?6F@CAr@@QAEAAV0@ABF@Z
_TEXT	SEGMENT
_t$ = 8							; size = 4
??$?6F@CAr@@QAEAAV0@ABF@Z PROC				; CAr::operator<<<short>, COMDAT
; _this$ = ecx

; 255  : {

  00000	55		 push	 ebp
  00001	8b ec		 mov	 ebp, esp
  00003	56		 push	 esi

; 256  : 	CheckBuf(sizeof(T));

  00004	6a 02		 push	 2
  00006	8b f1		 mov	 esi, ecx
  00008	e8 00 00 00 00	 call	 ?CheckBuf@CAr@@QAEXI@Z	; CAr::CheckBuf

; 257  : 	*(UNALIGNED T*)m_lpBufCur = t;

  0000d	8b 45 08	 mov	 eax, DWORD PTR _t$[ebp]
  00010	8b 56 08	 mov	 edx, DWORD PTR [esi+8]
  00013	66 8b 00	 mov	 ax, WORD PTR [eax]
  00016	66 89 02	 mov	 WORD PTR [edx], ax

; 258  : 	m_lpBufCur += sizeof(T);
; 259  : 	return *this;

  00019	8b c6		 mov	 eax, esi
  0001b	83 46 08 02	 add	 DWORD PTR [esi+8], 2
  0001f	5e		 pop	 esi

; 260  : }

  00020	5d		 pop	 ebp
  00021	c2 04 00	 ret	 4
??$?6F@CAr@@QAEAAV0@ABF@Z ENDP				; CAr::operator<<<short>
_TEXT	ENDS
; Function compile flags: /Ogtp
; File C:\IAGOS\server\v18\Source\Source\_Network\Misc\Include\ar.h
;	COMDAT ??$?6K@CAr@@QAEAAV0@ABK@Z
_TEXT	SEGMENT
_t$ = 8							; size = 4
??$?6K@CAr@@QAEAAV0@ABK@Z PROC				; CAr::operator<<<unsigned long>, COMDAT
; _this$ = ecx

; 255  : {

  00000	55		 push	 ebp
  00001	8b ec		 mov	 ebp, esp
  00003	56		 push	 esi

; 256  : 	CheckBuf(sizeof(T));

  00004	6a 04		 push	 4
  00006	8b f1		 mov	 esi, ecx
  00008	e8 00 00 00 00	 call	 ?CheckBuf@CAr@@QAEXI@Z	; CAr::CheckBuf

; 257  : 	*(UNALIGNED T*)m_lpBufCur = t;

  0000d	8b 56 08	 mov	 edx, DWORD PTR [esi+8]
  00010	8b 45 08	 mov	 eax, DWORD PTR _t$[ebp]
  00013	8b 00		 mov	 eax, DWORD PTR [eax]
  00015	89 02		 mov	 DWORD PTR [edx], eax

; 258  : 	m_lpBufCur += sizeof(T);
; 259  : 	return *this;

  00017	8b c6		 mov	 eax, esi
  00019	83 46 08 04	 add	 DWORD PTR [esi+8], 4
  0001d	5e		 pop	 esi

; 260  : }

  0001e	5d		 pop	 ebp
  0001f	c2 04 00	 ret	 4
??$?6K@CAr@@QAEAAV0@ABK@Z ENDP				; CAr::operator<<<unsigned long>
_TEXT	ENDS
; Function compile flags: /Ogtp
;	COMDAT ??_GCSnapshot@@UAEPAXI@Z
_TEXT	SEGMENT
___flags$ = 8						; size = 4
??_GCSnapshot@@UAEPAXI@Z PROC				; CSnapshot::`scalar deleting destructor', COMDAT
; _this$ = ecx
  00000	55		 push	 ebp
  00001	8b ec		 mov	 ebp, esp
  00003	56		 push	 esi
  00004	8b f1		 mov	 esi, ecx
  00006	e8 00 00 00 00	 call	 ??1CSnapshot@@UAE@XZ	; CSnapshot::~CSnapshot
  0000b	f6 45 08 01	 test	 BYTE PTR ___flags$[ebp], 1
  0000f	74 0e		 je	 SHORT $LN5@scalar
  00011	68 24 40 00 00	 push	 16420			; 00004024H
  00016	56		 push	 esi
  00017	e8 00 00 00 00	 call	 ??3@YAXPAXI@Z		; operator delete
  0001c	83 c4 08	 add	 esp, 8
$LN5@scalar:
  0001f	8b c6		 mov	 eax, esi
  00021	5e		 pop	 esi
  00022	5d		 pop	 ebp
  00023	c2 04 00	 ret	 4
??_GCSnapshot@@UAEPAXI@Z ENDP				; CSnapshot::`scalar deleting destructor'
_TEXT	ENDS
; Function compile flags: /Ogtp
; File C:\IAGOS\server\v18\Source\Source\WorldServer\Snapshot.cpp
;	COMDAT ?SetSnapshot@CSnapshot@@QAEXKK@Z
_TEXT	SEGMENT
_objid$ = 8						; size = 4
_dwHdr$ = 12						; size = 4
?SetSnapshot@CSnapshot@@QAEXKK@Z PROC			; CSnapshot::SetSnapshot, COMDAT
; _this$ = ecx

; 21   : {

  00000	55		 push	 ebp
  00001	8b ec		 mov	 ebp, esp
  00003	53		 push	 ebx
  00004	8b d9		 mov	 ebx, ecx

; 22   : 	ASSERT( DPID_UNKNOWN != dpidUser );
; 23   : 	cb	= 0;

  00006	33 c0		 xor	 eax, eax
  00008	56		 push	 esi
  00009	8d b3 20 40 00
	00		 lea	 esi, DWORD PTR [ebx+16416]
  0000f	66 89 06	 mov	 WORD PTR [esi], ax
  00012	57		 push	 edi

; 24   : 	ar.Flush();

  00013	8d 4b 0c	 lea	 ecx, DWORD PTR [ebx+12]
  00016	e8 00 00 00 00	 call	 ?Flush@CAr@@QAEXXZ	; CAr::Flush

; 25   : 	ar << dpidUser << dwHdr << objid << cb;

  0001b	56		 push	 esi
  0001c	8d 45 08	 lea	 eax, DWORD PTR _objid$[ebp]
  0001f	50		 push	 eax
  00020	8d 45 0c	 lea	 eax, DWORD PTR _dwHdr$[ebp]
  00023	50		 push	 eax
  00024	8d 43 08	 lea	 eax, DWORD PTR [ebx+8]
  00027	50		 push	 eax
  00028	8d 4b 0c	 lea	 ecx, DWORD PTR [ebx+12]
  0002b	e8 00 00 00 00	 call	 ??$?6K@CAr@@QAEAAV0@ABK@Z ; CAr::operator<<<unsigned long>
  00030	8b c8		 mov	 ecx, eax
  00032	e8 00 00 00 00	 call	 ??$?6K@CAr@@QAEAAV0@ABK@Z ; CAr::operator<<<unsigned long>
  00037	8b c8		 mov	 ecx, eax
  00039	e8 00 00 00 00	 call	 ??$?6K@CAr@@QAEAAV0@ABK@Z ; CAr::operator<<<unsigned long>
  0003e	8b c8		 mov	 ecx, eax
  00040	e8 00 00 00 00	 call	 ??$?6F@CAr@@QAEAAV0@ABF@Z ; CAr::operator<<<short>
  00045	5f		 pop	 edi
  00046	5e		 pop	 esi
  00047	5b		 pop	 ebx

; 26   : }

  00048	5d		 pop	 ebp
  00049	c2 08 00	 ret	 8
?SetSnapshot@CSnapshot@@QAEXKK@Z ENDP			; CSnapshot::SetSnapshot
_TEXT	ENDS
; Function compile flags: /Ogtp
; File C:\IAGOS\server\v18\Source\Source\WorldServer\Snapshot.cpp
;	COMDAT ??1CSnapshot@@UAE@XZ
_TEXT	SEGMENT
__$EHRec$ = -12						; size = 12
??1CSnapshot@@UAE@XZ PROC				; CSnapshot::~CSnapshot, COMDAT
; _this$ = ecx

; 16   : {

  00000	55		 push	 ebp
  00001	8b ec		 mov	 ebp, esp
  00003	6a ff		 push	 -1
  00005	68 00 00 00 00	 push	 __ehhandler$??1CSnapshot@@UAE@XZ
  0000a	64 a1 00 00 00
	00		 mov	 eax, DWORD PTR fs:0
  00010	50		 push	 eax
  00011	56		 push	 esi
  00012	a1 00 00 00 00	 mov	 eax, DWORD PTR ___security_cookie
  00017	33 c5		 xor	 eax, ebp
  00019	50		 push	 eax
  0001a	8d 45 f4	 lea	 eax, DWORD PTR __$EHRec$[ebp]
  0001d	64 a3 00 00 00
	00		 mov	 DWORD PTR fs:0, eax

; 17   : 	ar.Flush();

  00023	8d 71 0c	 lea	 esi, DWORD PTR [ecx+12]
  00026	c7 01 00 00 00
	00		 mov	 DWORD PTR [ecx], OFFSET ??_7CSnapshot@@6B@
  0002c	8b ce		 mov	 ecx, esi
  0002e	e8 00 00 00 00	 call	 ?Flush@CAr@@QAEXXZ	; CAr::Flush

; 18   : }

  00033	8b ce		 mov	 ecx, esi
  00035	e8 00 00 00 00	 call	 ??1CAr@@QAE@XZ		; CAr::~CAr
  0003a	8b 4d f4	 mov	 ecx, DWORD PTR __$EHRec$[ebp]
  0003d	64 89 0d 00 00
	00 00		 mov	 DWORD PTR fs:0, ecx
  00044	59		 pop	 ecx
  00045	5e		 pop	 esi
  00046	8b e5		 mov	 esp, ebp
  00048	5d		 pop	 ebp
  00049	c3		 ret	 0
  0004a	cc		 int	 3
  0004b	cc		 int	 3
  0004c	cc		 int	 3
  0004d	cc		 int	 3
  0004e	cc		 int	 3
_TEXT	ENDS
;	COMDAT text$x
text$x	SEGMENT
__ehhandler$??1CSnapshot@@UAE@XZ:
  00000	90		 npad	 1
  00001	90		 npad	 1
  00002	8b 54 24 08	 mov	 edx, DWORD PTR [esp+8]
  00006	8d 42 0c	 lea	 eax, DWORD PTR [edx+12]
  00009	8b 4a f8	 mov	 ecx, DWORD PTR [edx-8]
  0000c	33 c8		 xor	 ecx, eax
  0000e	e8 00 00 00 00	 call	 @__security_check_cookie@4
  00013	b8 00 00 00 00	 mov	 eax, OFFSET __ehfuncinfo$??1CSnapshot@@UAE@XZ
  00018	e9 00 00 00 00	 jmp	 ___CxxFrameHandler3
text$x	ENDS
??1CSnapshot@@UAE@XZ ENDP				; CSnapshot::~CSnapshot
; Function compile flags: /Ogtp
; File C:\IAGOS\server\v18\Source\Source\WorldServer\Snapshot.cpp
;	COMDAT ??0CSnapshot@@QAE@KKKK@Z
_TEXT	SEGMENT
_this$ = -16						; size = 4
__$EHRec$ = -12						; size = 12
_idCache$ = 8						; size = 4
_idUser$ = 12						; size = 4
_objid$ = 16						; size = 4
_dwHdr$ = 20						; size = 4
??0CSnapshot@@QAE@KKKK@Z PROC				; CSnapshot::CSnapshot, COMDAT
; _this$ = ecx

; 11   : {

  00000	55		 push	 ebp
  00001	8b ec		 mov	 ebp, esp
  00003	6a ff		 push	 -1
  00005	68 00 00 00 00	 push	 __ehhandler$??0CSnapshot@@QAE@KKKK@Z
  0000a	64 a1 00 00 00
	00		 mov	 eax, DWORD PTR fs:0
  00010	50		 push	 eax
  00011	51		 push	 ecx
  00012	56		 push	 esi
  00013	a1 00 00 00 00	 mov	 eax, DWORD PTR ___security_cookie
  00018	33 c5		 xor	 eax, ebp
  0001a	50		 push	 eax
  0001b	8d 45 f4	 lea	 eax, DWORD PTR __$EHRec$[ebp]
  0001e	64 a3 00 00 00
	00		 mov	 DWORD PTR fs:0, eax
  00024	8b f1		 mov	 esi, ecx
  00026	89 75 f0	 mov	 DWORD PTR _this$[ebp], esi
  00029	6a 00		 push	 0
  0002b	6a 00		 push	 0
  0002d	8d 4e 0c	 lea	 ecx, DWORD PTR [esi+12]
  00030	c7 06 00 00 00
	00		 mov	 DWORD PTR [esi], OFFSET ??_7CSnapshot@@6B@
  00036	e8 00 00 00 00	 call	 ??0CAr@@QAE@PAXI@Z	; CAr::CAr

; 12   : 	SetSnapshot( objid, dwHdr );	

  0003b	ff 75 14	 push	 DWORD PTR _dwHdr$[ebp]
  0003e	8b ce		 mov	 ecx, esi
  00040	c7 45 fc 00 00
	00 00		 mov	 DWORD PTR __$EHRec$[ebp+8], 0
  00047	ff 75 10	 push	 DWORD PTR _objid$[ebp]
  0004a	e8 00 00 00 00	 call	 ?SetSnapshot@CSnapshot@@QAEXKK@Z ; CSnapshot::SetSnapshot

; 13   : }

  0004f	8b c6		 mov	 eax, esi
  00051	8b 4d f4	 mov	 ecx, DWORD PTR __$EHRec$[ebp]
  00054	64 89 0d 00 00
	00 00		 mov	 DWORD PTR fs:0, ecx
  0005b	59		 pop	 ecx
  0005c	5e		 pop	 esi
  0005d	8b e5		 mov	 esp, ebp
  0005f	5d		 pop	 ebp
  00060	c2 10 00	 ret	 16			; 00000010H
_TEXT	ENDS
;	COMDAT text$x
text$x	SEGMENT
__unwindfunclet$??0CSnapshot@@QAE@KKKK@Z$0:
  00000	8b 4d f0	 mov	 ecx, DWORD PTR _this$[ebp]
  00003	83 c1 0c	 add	 ecx, 12			; 0000000cH
  00006	e9 00 00 00 00	 jmp	 ??1CAr@@QAE@XZ		; CAr::~CAr
  0000b	cc		 int	 3
  0000c	cc		 int	 3
  0000d	cc		 int	 3
  0000e	cc		 int	 3
  0000f	cc		 int	 3
__ehhandler$??0CSnapshot@@QAE@KKKK@Z:
  00010	90		 npad	 1
  00011	90		 npad	 1
  00012	8b 54 24 08	 mov	 edx, DWORD PTR [esp+8]
  00016	8d 42 0c	 lea	 eax, DWORD PTR [edx+12]
  00019	8b 4a f4	 mov	 ecx, DWORD PTR [edx-12]
  0001c	33 c8		 xor	 ecx, eax
  0001e	e8 00 00 00 00	 call	 @__security_check_cookie@4
  00023	b8 00 00 00 00	 mov	 eax, OFFSET __ehfuncinfo$??0CSnapshot@@QAE@KKKK@Z
  00028	e9 00 00 00 00	 jmp	 ___CxxFrameHandler3
text$x	ENDS
??0CSnapshot@@QAE@KKKK@Z ENDP				; CSnapshot::CSnapshot
; Function compile flags: /Ogtp
; File C:\IAGOS\server\v18\Source\Source\WorldServer\Snapshot.cpp
;	COMDAT ??0CSnapshot@@QAE@XZ
_TEXT	SEGMENT
_this$ = -4						; size = 4
??0CSnapshot@@QAE@XZ PROC				; CSnapshot::CSnapshot, COMDAT
; _this$ = ecx

; 5    : {

  00000	55		 push	 ebp
  00001	8b ec		 mov	 ebp, esp
  00003	51		 push	 ecx
  00004	56		 push	 esi
  00005	8b f1		 mov	 esi, ecx
  00007	6a 00		 push	 0
  00009	6a 00		 push	 0
  0000b	89 75 fc	 mov	 DWORD PTR _this$[ebp], esi
  0000e	8d 4e 0c	 lea	 ecx, DWORD PTR [esi+12]
  00011	c7 06 00 00 00
	00		 mov	 DWORD PTR [esi], OFFSET ??_7CSnapshot@@6B@
  00017	e8 00 00 00 00	 call	 ??0CAr@@QAE@PAXI@Z	; CAr::CAr

; 6    : 	dpidCache	= dpidUser	= DPID_UNKNOWN;
; 7    : 	cb	= 0;

  0001c	33 c0		 xor	 eax, eax
  0001e	c7 46 08 ff ff
	ff ff		 mov	 DWORD PTR [esi+8], -1
  00025	66 89 86 20 40
	00 00		 mov	 WORD PTR [esi+16416], ax

; 8    : }

  0002c	8b c6		 mov	 eax, esi
  0002e	c7 46 04 ff ff
	ff ff		 mov	 DWORD PTR [esi+4], -1
  00035	5e		 pop	 esi
  00036	8b e5		 mov	 esp, ebp
  00038	5d		 pop	 ebp
  00039	c3		 ret	 0
??0CSnapshot@@QAE@XZ ENDP				; CSnapshot::CSnapshot
_TEXT	ENDS
; Function compile flags: /Ogtp
; File C:\IAGOS\server\v18\Source\Source\WorldServer\Snapshot.cpp
;	COMDAT ?__empty_global_delete@@YAXPAXI@Z
_TEXT	SEGMENT
___formal$ = 8						; size = 4
___formal$ = 12						; size = 4
?__empty_global_delete@@YAXPAXI@Z PROC			; __empty_global_delete, COMDAT

  00000	c2 00 00	 ret	 0
?__empty_global_delete@@YAXPAXI@Z ENDP			; __empty_global_delete
_TEXT	ENDS
; Function compile flags: /Ogtp
; File C:\IAGOS\server\v18\Source\Source\WorldServer\Snapshot.cpp
;	COMDAT ?__empty_global_delete@@YAXPAX@Z
_TEXT	SEGMENT
___formal$ = 8						; size = 4
?__empty_global_delete@@YAXPAX@Z PROC			; __empty_global_delete, COMDAT

  00000	c2 00 00	 ret	 0
?__empty_global_delete@@YAXPAX@Z ENDP			; __empty_global_delete
_TEXT	ENDS
END
