; Listing generated by Microsoft (R) Optimizing Compiler Version 19.44.35225.0 

	TITLE	C:\IAGOS\server\v18\Source\Output\WorldServer\Release\Sock.obj
	.686P
	.XMM
	include listing.inc
	.model	flat

INCLUDELIB LIBCMT
INCLUDELIB OLDNAMES

PUBLIC	?__empty_global_delete@@YAXPAX@Z		; __empty_global_delete
PUBLIC	?__empty_global_delete@@YAXPAXI@Z		; __empty_global_delete
PUBLIC	___local_stdio_printf_options
PUBLIC	_sprintf
PUBLIC	??0CSock@@QAE@XZ				; CSock::CSock
PUBLIC	??1CSock@@UAE@XZ				; CSock::~CSock
PUBLIC	?Clear@CSock@@QAEXXZ				; CSock::Clear
PUBLIC	?Create@CSock@@UAEHGH@Z				; CSock::Create
PUBLIC	?Attach@CSock@@UAEXI@Z				; CSock::Attach
PUBLIC	?Detach@CSock@@UAEXXZ				; CSock::Detach
PUBLIC	?GetHostAddr@CSock@@UAEJPAXPAK@Z		; CSock::GetHostAddr
PUBLIC	?GetPeerAddr@CSock@@UAEKK@Z			; CSock::GetPeerAddr
PUBLIC	?Get@CSock@@UAEPAV1@I@Z				; CSock::Get
PUBLIC	??_GCSock@@UAEPAXI@Z				; CSock::`scalar deleting destructor'
PUBLIC	?_OptionsStorage@?1??__local_stdio_printf_options@@9@4_KA ; `__local_stdio_printf_options'::`2'::_OptionsStorage
PUBLIC	??_7CSock@@6B@					; CSock::`vftable'
PUBLIC	??_C@_0M@PCENNPGA@?$CFd?4?$CFd?4?$CFd?4?$CFd@	; `string'
PUBLIC	??_R4CSock@@6B@					; CSock::`RTTI Complete Object Locator'
PUBLIC	??_R0?AVCSock@@@8				; CSock `RTTI Type Descriptor'
PUBLIC	??_R3CSock@@8					; CSock::`RTTI Class Hierarchy Descriptor'
PUBLIC	??_R2CSock@@8					; CSock::`RTTI Base Class Array'
PUBLIC	??_R1A@?0A@EA@CSock@@8				; CSock::`RTTI Base Class Descriptor at (0,-1,0,64)'
EXTRN	__purecall:PROC
EXTRN	??3@YAXPAXI@Z:PROC				; operator delete
EXTRN	___stdio_common_vsprintf:PROC
EXTRN	__imp__bind@12:PROC
EXTRN	__imp__closesocket@4:PROC
EXTRN	__imp__htonl@4:PROC
EXTRN	__imp__htons@4:PROC
EXTRN	__imp__setsockopt@20:PROC
EXTRN	__imp__shutdown@8:PROC
EXTRN	__imp__gethostbyname@4:PROC
EXTRN	__imp__gethostname@8:PROC
EXTRN	__imp__WSASocketA@24:PROC
EXTRN	??_ECSock@@UAEPAXI@Z:PROC			; CSock::`vector deleting destructor'
EXTRN	@__security_check_cookie@4:PROC
EXTRN	??_7type_info@@6B@:QWORD			; type_info::`vftable'
EXTRN	___security_cookie:DWORD
;	COMDAT ?_OptionsStorage@?1??__local_stdio_printf_options@@9@4_KA
_BSS	SEGMENT
?_OptionsStorage@?1??__local_stdio_printf_options@@9@4_KA DQ 01H DUP (?) ; `__local_stdio_printf_options'::`2'::_OptionsStorage
_BSS	ENDS
;	COMDAT ??_R1A@?0A@EA@CSock@@8
rdata$r	SEGMENT
??_R1A@?0A@EA@CSock@@8 DD FLAT:??_R0?AVCSock@@@8	; CSock::`RTTI Base Class Descriptor at (0,-1,0,64)'
	DD	00H
	DD	00H
	DD	0ffffffffH
	DD	00H
	DD	040H
	DD	FLAT:??_R3CSock@@8
rdata$r	ENDS
;	COMDAT ??_R2CSock@@8
rdata$r	SEGMENT
??_R2CSock@@8 DD FLAT:??_R1A@?0A@EA@CSock@@8		; CSock::`RTTI Base Class Array'
rdata$r	ENDS
;	COMDAT ??_R3CSock@@8
rdata$r	SEGMENT
??_R3CSock@@8 DD 00H					; CSock::`RTTI Class Hierarchy Descriptor'
	DD	00H
	DD	01H
	DD	FLAT:??_R2CSock@@8
rdata$r	ENDS
;	COMDAT ??_R0?AVCSock@@@8
data$rs	SEGMENT
??_R0?AVCSock@@@8 DD FLAT:??_7type_info@@6B@		; CSock `RTTI Type Descriptor'
	DD	00H
	DB	'.?AVCSock@@', 00H
data$rs	ENDS
;	COMDAT ??_R4CSock@@6B@
rdata$r	SEGMENT
??_R4CSock@@6B@ DD 00H					; CSock::`RTTI Complete Object Locator'
	DD	00H
	DD	00H
	DD	FLAT:??_R0?AVCSock@@@8
	DD	FLAT:??_R3CSock@@8
rdata$r	ENDS
;	COMDAT ??_C@_0M@PCENNPGA@?$CFd?4?$CFd?4?$CFd?4?$CFd@
CONST	SEGMENT
??_C@_0M@PCENNPGA@?$CFd?4?$CFd?4?$CFd?4?$CFd@ DB '%d.%d.%d.%d', 00H ; `string'
CONST	ENDS
;	COMDAT ??_7CSock@@6B@
CONST	SEGMENT
??_7CSock@@6B@ DD FLAT:??_R4CSock@@6B@			; CSock::`vftable'
	DD	FLAT:??_ECSock@@UAEPAXI@Z
	DD	FLAT:?Create@CSock@@UAEHGH@Z
	DD	FLAT:?Attach@CSock@@UAEXI@Z
	DD	FLAT:?Detach@CSock@@UAEXXZ
	DD	FLAT:?GetHostAddr@CSock@@UAEJPAXPAK@Z
	DD	FLAT:?GetPeerAddr@CSock@@UAEKK@Z
	DD	FLAT:__purecall
	DD	FLAT:__purecall
	DD	FLAT:__purecall
	DD	FLAT:__purecall
	DD	FLAT:__purecall
	DD	FLAT:?Get@CSock@@UAEPAV1@I@Z
CONST	ENDS
; Function compile flags: /Ogtp
;	COMDAT ??_GCSock@@UAEPAXI@Z
_TEXT	SEGMENT
___flags$ = 8						; size = 4
??_GCSock@@UAEPAXI@Z PROC				; CSock::`scalar deleting destructor', COMDAT
; _this$ = ecx
  00000	55		 push	 ebp
  00001	8b ec		 mov	 ebp, esp
  00003	56		 push	 esi
  00004	8b f1		 mov	 esi, ecx
  00006	e8 00 00 00 00	 call	 ??1CSock@@UAE@XZ	; CSock::~CSock
  0000b	f6 45 08 01	 test	 BYTE PTR ___flags$[ebp], 1
  0000f	74 0b		 je	 SHORT $LN5@scalar
  00011	6a 10		 push	 16			; 00000010H
  00013	56		 push	 esi
  00014	e8 00 00 00 00	 call	 ??3@YAXPAXI@Z		; operator delete
  00019	83 c4 08	 add	 esp, 8
$LN5@scalar:
  0001c	8b c6		 mov	 eax, esi
  0001e	5e		 pop	 esi
  0001f	5d		 pop	 ebp
  00020	c2 04 00	 ret	 4
??_GCSock@@UAEPAXI@Z ENDP				; CSock::`scalar deleting destructor'
_TEXT	ENDS
; Function compile flags: /Ogtp
; File C:\IAGOS\server\v18\Source\Source\_Network\Net\Include\sock.h
;	COMDAT ?Get@CSock@@UAEPAV1@I@Z
_TEXT	SEGMENT
_hSocket$ = 8						; size = 4
?Get@CSock@@UAEPAV1@I@Z PROC				; CSock::Get, COMDAT
; _this$ = ecx

; 51   : inline CSock* CSock::Get( SOCKET hSocket )	{	return( m_hSocket == hSocket ? this : NULL );	}

  00000	55		 push	 ebp
  00001	8b ec		 mov	 ebp, esp
  00003	8b 51 04	 mov	 edx, DWORD PTR [ecx+4]
  00006	33 c0		 xor	 eax, eax
  00008	3b 55 08	 cmp	 edx, DWORD PTR _hSocket$[ebp]
  0000b	0f 44 c1	 cmove	 eax, ecx
  0000e	5d		 pop	 ebp
  0000f	c2 04 00	 ret	 4
?Get@CSock@@UAEPAV1@I@Z ENDP				; CSock::Get
_TEXT	ENDS
; Function compile flags: /Ogtp
; File C:\IAGOS\server\v18\Source\Source\_Network\Net\Include\sock.h
;	COMDAT ?GetPeerAddr@CSock@@UAEKK@Z
_TEXT	SEGMENT
_dpid$ = 8						; size = 4
?GetPeerAddr@CSock@@UAEKK@Z PROC			; CSock::GetPeerAddr, COMDAT
; _this$ = ecx

; 37   : 	virtual	DWORD	GetPeerAddr( DPID dpid ) { return 0; }

  00000	33 c0		 xor	 eax, eax
  00002	c2 04 00	 ret	 4
?GetPeerAddr@CSock@@UAEKK@Z ENDP			; CSock::GetPeerAddr
_TEXT	ENDS
; Function compile flags: /Ogtp
; File C:\IAGOS\server\v18\Source\Source\_Network\Net\Src\Sock.cpp
;	COMDAT ?GetHostAddr@CSock@@UAEJPAXPAK@Z
_TEXT	SEGMENT
_name$ = -260						; size = 255
__$ArrayPad$ = -4					; size = 4
_lpAddr$ = 8						; size = 4
_lpdwSize$ = 12						; size = 4
?GetHostAddr@CSock@@UAEJPAXPAK@Z PROC			; CSock::GetHostAddr, COMDAT
; _this$ = ecx

; 67   : {

  00000	55		 push	 ebp
  00001	8b ec		 mov	 ebp, esp
  00003	81 ec 04 01 00
	00		 sub	 esp, 260		; 00000104H
  00009	a1 00 00 00 00	 mov	 eax, DWORD PTR ___security_cookie
  0000e	33 c5		 xor	 eax, ebp
  00010	89 45 fc	 mov	 DWORD PTR __$ArrayPad$[ebp], eax
  00013	56		 push	 esi
  00014	8b 75 08	 mov	 esi, DWORD PTR _lpAddr$[ebp]

; 68   : 	ASSERT( lpAddr );
; 69   : 
; 70   : 	char name[255];
; 71   : 	LPHOSTENT lphost;
; 72   : 
; 73   : 	gethostname( name, sizeof(char)*255 );

  00017	8d 85 fc fe ff
	ff		 lea	 eax, DWORD PTR _name$[ebp]
  0001d	68 ff 00 00 00	 push	 255			; 000000ffH
  00022	50		 push	 eax
  00023	ff 15 00 00 00
	00		 call	 DWORD PTR __imp__gethostname@8

; 74   : 
; 75   : 	SOCKADDR_IN sin;
; 76   : 	ZeroMemory( &sin, sizeof(SOCKADDR_IN) );
; 77   : 
; 78   : 	sin.sin_family	= AF_INET;
; 79   : 	lphost	= gethostbyname( name );

  00029	8d 85 fc fe ff
	ff		 lea	 eax, DWORD PTR _name$[ebp]
  0002f	50		 push	 eax
  00030	ff 15 00 00 00
	00		 call	 DWORD PTR __imp__gethostbyname@4

; 80   : 
; 81   : 	if( lphost != NULL )

  00036	85 c0		 test	 eax, eax
  00038	74 44		 je	 SHORT $LN2@GetHostAdd

; 82   : 		sin.sin_addr.s_addr		= ( (LPIN_ADDR)lphost->h_addr )->s_addr;

  0003a	8b 40 0c	 mov	 eax, DWORD PTR [eax+12]
  0003d	8b 00		 mov	 eax, DWORD PTR [eax]
  0003f	8b 08		 mov	 ecx, DWORD PTR [eax]
  00041	8b c1		 mov	 eax, ecx
  00043	c1 e8 18	 shr	 eax, 24			; 00000018H

; 83   : 	else
; 84   : 		return DPERR_INVALIDPARAM;
; 85   : 
; 86   : 	sprintf( (char *)lpAddr, "%d.%d.%d.%d", sin.sin_addr.s_net

  00046	50		 push	 eax
  00047	8b c1		 mov	 eax, ecx
  00049	c1 e8 10	 shr	 eax, 16			; 00000010H
  0004c	0f b6 c0	 movzx	 eax, al
  0004f	50		 push	 eax
  00050	8b c1		 mov	 eax, ecx
  00052	c1 e8 08	 shr	 eax, 8
  00055	0f b6 c0	 movzx	 eax, al
  00058	50		 push	 eax
  00059	0f b6 c1	 movzx	 eax, cl
  0005c	50		 push	 eax
  0005d	68 00 00 00 00	 push	 OFFSET ??_C@_0M@PCENNPGA@?$CFd?4?$CFd?4?$CFd?4?$CFd@
  00062	56		 push	 esi
  00063	e8 00 00 00 00	 call	 _sprintf
  00068	83 c4 18	 add	 esp, 24			; 00000018H

; 87   : 																	, sin.sin_addr.s_host
; 88   : 																	, sin.sin_addr.s_lh
; 89   : 																	, sin.sin_addr.s_impno );
; 90   : 	return DP_OK;

  0006b	33 c0		 xor	 eax, eax
  0006d	5e		 pop	 esi

; 91   : }

  0006e	8b 4d fc	 mov	 ecx, DWORD PTR __$ArrayPad$[ebp]
  00071	33 cd		 xor	 ecx, ebp
  00073	e8 00 00 00 00	 call	 @__security_check_cookie@4
  00078	8b e5		 mov	 esp, ebp
  0007a	5d		 pop	 ebp
  0007b	c2 08 00	 ret	 8
$LN2@GetHostAdd:
  0007e	8b 4d fc	 mov	 ecx, DWORD PTR __$ArrayPad$[ebp]
  00081	b8 57 00 07 80	 mov	 eax, -2147024809	; 80070057H
  00086	33 cd		 xor	 ecx, ebp
  00088	5e		 pop	 esi
  00089	e8 00 00 00 00	 call	 @__security_check_cookie@4
  0008e	8b e5		 mov	 esp, ebp
  00090	5d		 pop	 ebp
  00091	c2 08 00	 ret	 8
?GetHostAddr@CSock@@UAEJPAXPAK@Z ENDP			; CSock::GetHostAddr
_TEXT	ENDS
; Function compile flags: /Ogtp
; File C:\IAGOS\server\v18\Source\Source\_Network\Net\Src\Sock.cpp
;	COMDAT ?Detach@CSock@@UAEXXZ
_TEXT	SEGMENT
?Detach@CSock@@UAEXXZ PROC				; CSock::Detach, COMDAT
; _this$ = ecx

; 62   : 	m_hSocket	= INVALID_SOCKET;

  00000	c7 41 04 ff ff
	ff ff		 mov	 DWORD PTR [ecx+4], -1

; 63   : 	m_dpid	= m_dpidpeer	= DPID_UNKNOWN;

  00007	c7 41 0c ff ff
	ff ff		 mov	 DWORD PTR [ecx+12], -1
  0000e	c7 41 08 ff ff
	ff ff		 mov	 DWORD PTR [ecx+8], -1

; 64   : }

  00015	c3		 ret	 0
?Detach@CSock@@UAEXXZ ENDP				; CSock::Detach
_TEXT	ENDS
; Function compile flags: /Ogtp
; File C:\IAGOS\server\v18\Source\Source\_Network\Net\Src\Sock.cpp
;	COMDAT ?Attach@CSock@@UAEXI@Z
_TEXT	SEGMENT
_hSocket$ = 8						; size = 4
?Attach@CSock@@UAEXI@Z PROC				; CSock::Attach, COMDAT
; _this$ = ecx

; 55   : {

  00000	55		 push	 ebp
  00001	8b ec		 mov	 ebp, esp
  00003	56		 push	 esi
  00004	8b f1		 mov	 esi, ecx

; 56   : 	Clear();

  00006	e8 00 00 00 00	 call	 ?Clear@CSock@@QAEXXZ	; CSock::Clear

; 57   : 	m_hSocket	= hSocket;

  0000b	8b 45 08	 mov	 eax, DWORD PTR _hSocket$[ebp]
  0000e	89 46 04	 mov	 DWORD PTR [esi+4], eax
  00011	5e		 pop	 esi

; 58   : }

  00012	5d		 pop	 ebp
  00013	c2 04 00	 ret	 4
?Attach@CSock@@UAEXI@Z ENDP				; CSock::Attach
_TEXT	ENDS
; Function compile flags: /Ogtp
; File C:\IAGOS\server\v18\Source\Source\_Network\Net\Src\Sock.cpp
;	COMDAT ?Create@CSock@@UAEHGH@Z
_TEXT	SEGMENT
_reuse$ = -28						; size = 4
_lLinger$ = -24						; size = 4
_sin$ = -20						; size = 16
__$ArrayPad$ = -4					; size = 4
_uPort$ = 8						; size = 2
_type$ = 12						; size = 4
?Create@CSock@@UAEHGH@Z PROC				; CSock::Create, COMDAT
; _this$ = ecx

; 16   : {

  00000	55		 push	 ebp
  00001	8b ec		 mov	 ebp, esp
  00003	83 ec 1c	 sub	 esp, 28			; 0000001cH
  00006	a1 00 00 00 00	 mov	 eax, DWORD PTR ___security_cookie
  0000b	33 c5		 xor	 eax, ebp
  0000d	89 45 fc	 mov	 DWORD PTR __$ArrayPad$[ebp], eax
  00010	57		 push	 edi
  00011	8b f9		 mov	 edi, ecx

; 17   : 	SOCKADDR_IN sin;
; 18   : 
; 19   : 	Clear();

  00013	e8 00 00 00 00	 call	 ?Clear@CSock@@QAEXXZ	; CSock::Clear

; 20   : 
; 21   : 	if( ( m_hSocket = WSASocket( AF_INET, type, 0, NULL, 0, WSA_FLAG_OVERLAPPED ) ) == INVALID_SOCKET )

  00018	6a 01		 push	 1
  0001a	6a 00		 push	 0
  0001c	6a 00		 push	 0
  0001e	6a 00		 push	 0
  00020	ff 75 0c	 push	 DWORD PTR _type$[ebp]
  00023	6a 02		 push	 2
  00025	ff 15 00 00 00
	00		 call	 DWORD PTR __imp__WSASocketA@24
  0002b	89 47 04	 mov	 DWORD PTR [edi+4], eax
  0002e	83 f8 ff	 cmp	 eax, -1
  00031	0f 84 84 00 00
	00		 je	 $LN5@Create

; 22   : 	{
; 23   : 		TRACE( "Can't create socket with error %d\n", WSAGetLastError() );
; 24   : 		return FALSE;
; 25   : 	}
; 26   : 
; 27   : 	int reuse	= 1;
; 28   : 	setsockopt( m_hSocket, SOL_SOCKET,SO_REUSEADDR, (char FAR*)&reuse, sizeof(int) );

  00037	6a 04		 push	 4
  00039	8d 4d e4	 lea	 ecx, DWORD PTR _reuse$[ebp]
  0003c	c7 45 e4 01 00
	00 00		 mov	 DWORD PTR _reuse$[ebp], 1
  00043	51		 push	 ecx
  00044	6a 04		 push	 4
  00046	68 ff ff 00 00	 push	 65535			; 0000ffffH
  0004b	50		 push	 eax
  0004c	ff 15 00 00 00
	00		 call	 DWORD PTR __imp__setsockopt@20

; 29   : 	
; 30   : 	LINGER lLinger;
; 31   : 	lLinger.l_onoff		= 0;

  00052	33 c0		 xor	 eax, eax

; 32   : 	lLinger.l_linger	= 0;
; 33   : 	setsockopt( m_hSocket, SOL_SOCKET, SO_LINGER, (const char *)&lLinger, sizeof(LINGER) );

  00054	6a 04		 push	 4
  00056	89 45 e8	 mov	 DWORD PTR _lLinger$[ebp], eax
  00059	8d 45 e8	 lea	 eax, DWORD PTR _lLinger$[ebp]
  0005c	50		 push	 eax
  0005d	68 80 00 00 00	 push	 128			; 00000080H
  00062	68 ff ff 00 00	 push	 65535			; 0000ffffH
  00067	ff 77 04	 push	 DWORD PTR [edi+4]
  0006a	ff 15 00 00 00
	00		 call	 DWORD PTR __imp__setsockopt@20

; 34   : 
; 35   : 	sin.sin_family	= PF_INET;

  00070	b8 02 00 00 00	 mov	 eax, 2

; 36   : 	sin.sin_addr.s_addr		= htonl( INADDR_ANY );

  00075	6a 00		 push	 0
  00077	66 89 45 ec	 mov	 WORD PTR _sin$[ebp], ax
  0007b	ff 15 00 00 00
	00		 call	 DWORD PTR __imp__htonl@4

; 37   : 	sin.sin_port	= htons( uPort );

  00081	ff 75 08	 push	 DWORD PTR _uPort$[ebp]
  00084	89 45 f0	 mov	 DWORD PTR _sin$[ebp+4], eax
  00087	ff 15 00 00 00
	00		 call	 DWORD PTR __imp__htons@4
  0008d	66 89 45 ee	 mov	 WORD PTR _sin$[ebp+2], ax

; 38   : 
; 39   : 	if( ::bind( m_hSocket, (LPSOCKADDR) &sin, sizeof(sin) ) == SOCKET_ERROR )

  00091	8d 45 ec	 lea	 eax, DWORD PTR _sin$[ebp]
  00094	6a 10		 push	 16			; 00000010H
  00096	50		 push	 eax
  00097	ff 77 04	 push	 DWORD PTR [edi+4]
  0009a	ff 15 00 00 00
	00		 call	 DWORD PTR __imp__bind@12
  000a0	33 c9		 xor	 ecx, ecx
  000a2	83 f8 ff	 cmp	 eax, -1
  000a5	5f		 pop	 edi
  000a6	0f 95 c1	 setne	 cl
  000a9	8b c1		 mov	 eax, ecx

; 40   : 	{
; 41   : 		TRACE( "Can't bind socket with error %d\n", WSAGetLastError() );
; 42   : 		return FALSE;
; 43   : 	}
; 44   : 
; 45   : 	return TRUE;
; 46   : }

  000ab	8b 4d fc	 mov	 ecx, DWORD PTR __$ArrayPad$[ebp]
  000ae	33 cd		 xor	 ecx, ebp
  000b0	e8 00 00 00 00	 call	 @__security_check_cookie@4
  000b5	8b e5		 mov	 esp, ebp
  000b7	5d		 pop	 ebp
  000b8	c2 08 00	 ret	 8
$LN5@Create:
  000bb	8b 4d fc	 mov	 ecx, DWORD PTR __$ArrayPad$[ebp]
  000be	33 c0		 xor	 eax, eax
  000c0	33 cd		 xor	 ecx, ebp
  000c2	5f		 pop	 edi
  000c3	e8 00 00 00 00	 call	 @__security_check_cookie@4
  000c8	8b e5		 mov	 esp, ebp
  000ca	5d		 pop	 ebp
  000cb	c2 08 00	 ret	 8
?Create@CSock@@UAEHGH@Z ENDP				; CSock::Create
_TEXT	ENDS
; Function compile flags: /Ogtp
; File C:\IAGOS\server\v18\Source\Source\_Network\Net\Src\Sock.cpp
;	COMDAT ?Clear@CSock@@QAEXXZ
_TEXT	SEGMENT
?Clear@CSock@@QAEXXZ PROC				; CSock::Clear, COMDAT
; _this$ = ecx

; 49   : {

  00000	56		 push	 esi
  00001	8b f1		 mov	 esi, ecx

; 50   : 	CLOSE_SOCKET( m_hSocket );

  00003	8b 46 04	 mov	 eax, DWORD PTR [esi+4]
  00006	83 f8 ff	 cmp	 eax, -1
  00009	74 19		 je	 SHORT $LN4@Clear
  0000b	6a 02		 push	 2
  0000d	50		 push	 eax
  0000e	ff 15 00 00 00
	00		 call	 DWORD PTR __imp__shutdown@8
  00014	ff 76 04	 push	 DWORD PTR [esi+4]
  00017	ff 15 00 00 00
	00		 call	 DWORD PTR __imp__closesocket@4
  0001d	c7 46 04 ff ff
	ff ff		 mov	 DWORD PTR [esi+4], -1
$LN4@Clear:

; 51   : 	m_dpid	= m_dpidpeer	= DPID_UNKNOWN;
; 52   : }

  00024	c7 46 08 ff ff
	ff ff		 mov	 DWORD PTR [esi+8], -1
  0002b	c7 46 0c ff ff
	ff ff		 mov	 DWORD PTR [esi+12], -1
  00032	5e		 pop	 esi
  00033	c3		 ret	 0
?Clear@CSock@@QAEXXZ ENDP				; CSock::Clear
_TEXT	ENDS
; Function compile flags: /Ogtp
; File C:\IAGOS\server\v18\Source\Source\_Network\Net\Src\Sock.cpp
;	COMDAT ??1CSock@@UAE@XZ
_TEXT	SEGMENT
??1CSock@@UAE@XZ PROC					; CSock::~CSock, COMDAT
; _this$ = ecx

; 11   : {

  00000	c7 01 00 00 00
	00		 mov	 DWORD PTR [ecx], OFFSET ??_7CSock@@6B@

; 12   : 	Clear();

  00006	e9 00 00 00 00	 jmp	 ?Clear@CSock@@QAEXXZ	; CSock::Clear
??1CSock@@UAE@XZ ENDP					; CSock::~CSock
_TEXT	ENDS
; Function compile flags: /Ogtp
; File C:\IAGOS\server\v18\Source\Source\_Network\Net\Src\Sock.cpp
;	COMDAT ??0CSock@@QAE@XZ
_TEXT	SEGMENT
??0CSock@@QAE@XZ PROC					; CSock::CSock, COMDAT
; _this$ = ecx

; 5    : {

  00000	c7 01 00 00 00
	00		 mov	 DWORD PTR [ecx], OFFSET ??_7CSock@@6B@

; 6    : 	m_hSocket	= INVALID_SOCKET;
; 7    : 	m_dpid	= m_dpidpeer	= DPID_UNKNOWN;
; 8    : }

  00006	8b c1		 mov	 eax, ecx
  00008	c7 41 04 ff ff
	ff ff		 mov	 DWORD PTR [ecx+4], -1
  0000f	c7 41 0c ff ff
	ff ff		 mov	 DWORD PTR [ecx+12], -1
  00016	c7 41 08 ff ff
	ff ff		 mov	 DWORD PTR [ecx+8], -1
  0001d	c3		 ret	 0
??0CSock@@QAE@XZ ENDP					; CSock::CSock
_TEXT	ENDS
; Function compile flags: /Ogtp
; File C:\Program Files (x86)\Windows Kits\10\Include\10.0.26100.0\ucrt\stdio.h
;	COMDAT _sprintf
_TEXT	SEGMENT
__Buffer$ = 8						; size = 4
__Format$ = 12						; size = 4
_sprintf PROC						; COMDAT

; 1771 :     {

  00000	55		 push	 ebp
  00001	8b ec		 mov	 ebp, esp

; 1392 :         int const _Result = __stdio_common_vsprintf(

  00003	8d 45 10	 lea	 eax, DWORD PTR __Format$[ebp+4]
  00006	50		 push	 eax
  00007	6a 00		 push	 0
  00009	ff 75 0c	 push	 DWORD PTR __Format$[ebp]
  0000c	6a ff		 push	 -1
  0000e	ff 75 08	 push	 DWORD PTR __Buffer$[ebp]
  00011	e8 00 00 00 00	 call	 ___local_stdio_printf_options
  00016	8b 08		 mov	 ecx, DWORD PTR [eax]
  00018	ff 70 04	 push	 DWORD PTR [eax+4]
  0001b	83 c9 01	 or	 ecx, 1
  0001e	51		 push	 ecx
  0001f	e8 00 00 00 00	 call	 ___stdio_common_vsprintf

; 1393 :             _CRT_INTERNAL_LOCAL_PRINTF_OPTIONS | _CRT_INTERNAL_PRINTF_LEGACY_VSPRINTF_NULL_TERMINATION,
; 1394 :             _Buffer, _BufferCount, _Format, _Locale, _ArgList);
; 1395 : 
; 1396 :         return _Result < 0 ? -1 : _Result;

  00024	83 c9 ff	 or	 ecx, -1
  00027	83 c4 1c	 add	 esp, 28			; 0000001cH
  0002a	85 c0		 test	 eax, eax
  0002c	0f 48 c1	 cmovs	 eax, ecx

; 1772 :         int _Result;
; 1773 :         va_list _ArgList;
; 1774 :         __crt_va_start(_ArgList, _Format);
; 1775 : 
; 1776 :         _Result = _vsprintf_l(_Buffer, _Format, NULL, _ArgList);
; 1777 : 
; 1778 :         __crt_va_end(_ArgList);
; 1779 :         return _Result;
; 1780 :     }

  0002f	5d		 pop	 ebp
  00030	c3		 ret	 0
_sprintf ENDP
_TEXT	ENDS
; Function compile flags: /Ogtp
; File C:\Program Files (x86)\Windows Kits\10\Include\10.0.26100.0\ucrt\corecrt_stdio_config.h
;	COMDAT ___local_stdio_printf_options
_TEXT	SEGMENT
___local_stdio_printf_options PROC			; COMDAT

; 91   :         static unsigned __int64 _OptionsStorage;
; 92   :         return &_OptionsStorage;

  00000	b8 00 00 00 00	 mov	 eax, OFFSET ?_OptionsStorage@?1??__local_stdio_printf_options@@9@4_KA ; `__local_stdio_printf_options'::`2'::_OptionsStorage

; 93   :     }

  00005	c3		 ret	 0
___local_stdio_printf_options ENDP
_TEXT	ENDS
; Function compile flags: /Ogtp
; File C:\IAGOS\server\v18\Source\Source\_Network\Net\Src\Sock.cpp
;	COMDAT ?__empty_global_delete@@YAXPAXI@Z
_TEXT	SEGMENT
___formal$ = 8						; size = 4
___formal$ = 12						; size = 4
?__empty_global_delete@@YAXPAXI@Z PROC			; __empty_global_delete, COMDAT

  00000	c2 00 00	 ret	 0
?__empty_global_delete@@YAXPAXI@Z ENDP			; __empty_global_delete
_TEXT	ENDS
; Function compile flags: /Ogtp
; File C:\IAGOS\server\v18\Source\Source\_Network\Net\Src\Sock.cpp
;	COMDAT ?__empty_global_delete@@YAXPAX@Z
_TEXT	SEGMENT
___formal$ = 8						; size = 4
?__empty_global_delete@@YAXPAX@Z PROC			; __empty_global_delete, COMDAT

  00000	c2 00 00	 ret	 0
?__empty_global_delete@@YAXPAX@Z ENDP			; __empty_global_delete
_TEXT	ENDS
END
