; Listing generated by Microsoft (R) Optimizing Compiler Version 19.44.35225.0 

	TITLE	C:\IAGOS\server\v18\Source\Output\WorldServer\Release\spevent.obj
	.686P
	.XMM
	include listing.inc
	.model	flat

INCLUDELIB LIBCMT
INCLUDELIB OLDNAMES

CONST	SEGMENT
?piecewise_construct@std@@3Upiecewise_construct_t@1@B	ORG $+1 ; std::piecewise_construct
CONST	ENDS
PUBLIC	?__empty_global_delete@@YAXPAX@Z		; __empty_global_delete
PUBLIC	?__empty_global_delete@@YAXPAXI@Z		; __empty_global_delete
PUBLIC	___local_stdio_printf_options
PUBLIC	_sprintf
PUBLIC	?AfxCrtErrorCheck@@YAHH@Z			; AfxCrtErrorCheck
PUBLIC	?AtlThrowImpl@ATL@@YGXJ@Z			; ATL::AtlThrowImpl
PUBLIC	??1?$CSimpleStringT@D$0A@@ATL@@QAE@XZ		; ATL::CSimpleStringT<char,0>::~CSimpleStringT<char,0>
PUBLIC	?SetString@?$CSimpleStringT@D$0A@@ATL@@QAEXPBDH@Z ; ATL::CSimpleStringT<char,0>::SetString
PUBLIC	?ThrowMemoryException@?$CSimpleStringT@D$0A@@ATL@@KAXXZ ; ATL::CSimpleStringT<char,0>::ThrowMemoryException
PUBLIC	?Fork@?$CSimpleStringT@D$0A@@ATL@@AAEXH@Z	; ATL::CSimpleStringT<char,0>::Fork
PUBLIC	?PrepareWrite2@?$CSimpleStringT@D$0A@@ATL@@AAEXH@Z ; ATL::CSimpleStringT<char,0>::PrepareWrite2
PUBLIC	?Reallocate@?$CSimpleStringT@D$0A@@ATL@@AAEXH@Z	; ATL::CSimpleStringT<char,0>::Reallocate
PUBLIC	??1?$CStringT@DV?$StrTraitMFC@DV?$ChTraitsCRT@D@ATL@@@@@ATL@@QAE@XZ ; ATL::CStringT<char,StrTraitMFC<char,ATL::ChTraitsCRT<char> > >::~CStringT<char,StrTraitMFC<char,ATL::ChTraitsCRT<char> > >
PUBLIC	?LoadStringA@?$CStringT@DV?$StrTraitMFC@DV?$ChTraitsCRT@D@ATL@@@@@ATL@@QAEHI@Z ; ATL::CStringT<char,StrTraitMFC<char,ATL::ChTraitsCRT<char> > >::LoadStringA
PUBLIC	??0exception@std@@QAE@ABV01@@Z			; std::exception::exception
PUBLIC	??1exception@std@@UAE@XZ			; std::exception::~exception
PUBLIC	?what@exception@std@@UBEPBDXZ			; std::exception::what
PUBLIC	??_Gexception@std@@UAEPAXI@Z			; std::exception::`scalar deleting destructor'
PUBLIC	??0bad_alloc@std@@QAE@ABV01@@Z			; std::bad_alloc::bad_alloc
PUBLIC	??_Gbad_alloc@std@@UAEPAXI@Z			; std::bad_alloc::`scalar deleting destructor'
PUBLIC	??0bad_array_new_length@std@@QAE@XZ		; std::bad_array_new_length::bad_array_new_length
PUBLIC	??1bad_array_new_length@std@@UAE@XZ		; std::bad_array_new_length::~bad_array_new_length
PUBLIC	??0bad_array_new_length@std@@QAE@ABV01@@Z	; std::bad_array_new_length::bad_array_new_length
PUBLIC	??_Gbad_array_new_length@std@@UAEPAXI@Z		; std::bad_array_new_length::`scalar deleting destructor'
PUBLIC	?_Throw_bad_array_new_length@std@@YAXXZ		; std::_Throw_bad_array_new_length
PUBLIC	?_Throw_tree_length_error@std@@YAXXZ		; std::_Throw_tree_length_error
PUBLIC	??0D3DXVECTOR3@@QAE@XZ				; D3DXVECTOR3::D3DXVECTOR3
PUBLIC	??$_Allocate_manually_vector_aligned@U_Default_allocate_traits@std@@@std@@YAPAXI@Z ; std::_Allocate_manually_vector_aligned<std::_Default_allocate_traits>
PUBLIC	??1CSPEvent@@UAE@XZ				; CSPEvent::~CSPEvent
PUBLIC	??_GCSPEvent@@UAEPAXI@Z				; CSPEvent::`scalar deleting destructor'
PUBLIC	??0CXMasEvent@@QAE@XZ				; CXMasEvent::CXMasEvent
PUBLIC	??1CXMasEvent@@UAE@XZ				; CXMasEvent::~CXMasEvent
PUBLIC	?LoadScript@CXMasEvent@@QAEHPBD@Z		; CXMasEvent::LoadScript
PUBLIC	?IsTimeout@CXMasEvent@@QAEHH@Z			; CXMasEvent::IsTimeout
PUBLIC	?Skip@CXMasEvent@@QAEXJ@Z			; CXMasEvent::Skip
PUBLIC	?GetInstance@CXMasEvent@@SAPAV1@XZ		; CXMasEvent::GetInstance
PUBLIC	??_GCXMasEvent@@UAEPAXI@Z			; CXMasEvent::`scalar deleting destructor'
PUBLIC	??0CEventItem@@QAE@XZ				; CEventItem::CEventItem
PUBLIC	??0CEventItem@@QAE@KHH@Z			; CEventItem::CEventItem
PUBLIC	??1CEventItem@@UAE@XZ				; CEventItem::~CEventItem
PUBLIC	?IsTimeout@CEventItem@@QAEHH@Z			; CEventItem::IsTimeout
PUBLIC	?Skip@CEventItem@@QAEXJ@Z			; CEventItem::Skip
PUBLIC	?Serialize@CEventItem@@QAEXAAVCAr@@@Z		; CEventItem::Serialize
PUBLIC	??_GCEventItem@@UAEPAXI@Z			; CEventItem::`scalar deleting destructor'
PUBLIC	??0CSpawn@@QAE@XZ				; CSpawn::CSpawn
PUBLIC	??0CSpawn@@QAE@KKHMK@Z				; CSpawn::CSpawn
PUBLIC	??1CSpawn@@UAE@XZ				; CSpawn::~CSpawn
PUBLIC	?IsTimeout@CSpawn@@QAEHXZ			; CSpawn::IsTimeout
PUBLIC	??_GCSpawn@@UAEPAXI@Z				; CSpawn::`scalar deleting destructor'
PUBLIC	??1?$list@PAU_EVENT_GENERIC@@V?$allocator@PAU_EVENT_GENERIC@@@std@@@std@@QAE@XZ ; std::list<_EVENT_GENERIC *,std::allocator<_EVENT_GENERIC *> >::~list<_EVENT_GENERIC *,std::allocator<_EVENT_GENERIC *> >
PUBLIC	??1?$_Tree@V?$_Tmap_traits@HPAV?$list@PAVCEventItem@@V?$allocator@PAVCEventItem@@@std@@@std@@U?$less@H@2@V?$allocator@U?$pair@$$CBHPAV?$list@PAVCEventItem@@V?$allocator@PAVCEventItem@@@std@@@std@@@std@@@2@$0A@@std@@@std@@QAE@XZ ; std::_Tree<std::_Tmap_traits<int,std::list<CEventItem *,std::allocator<CEventItem *> > *,std::less<int>,std::allocator<std::pair<int const ,std::list<CEventItem *,std::allocator<CEventItem *> > *> >,0> >::~_Tree<std::_Tmap_traits<int,std::list<CEventItem *,std::allocator<CEventItem *> > *,std::less<int>,std::allocator<std::pair<int const ,std::list<CEventItem *,std::allocator<CEventItem *> > *> >,0> >
PUBLIC	?_Insert_node@?$_Tree_val@U?$_Tree_simple_types@U?$pair@$$CBHPAV?$list@PAVCEventItem@@V?$allocator@PAVCEventItem@@@std@@@std@@@std@@@std@@@std@@QAEPAU?$_Tree_node@U?$pair@$$CBHPAV?$list@PAVCEventItem@@V?$allocator@PAVCEventItem@@@std@@@std@@@std@@PAX@2@U?$_Tree_id@PAU?$_Tree_node@U?$pair@$$CBHPAV?$list@PAVCEventItem@@V?$allocator@PAVCEventItem@@@std@@@std@@@std@@PAX@std@@@2@QAU32@@Z ; std::_Tree_val<std::_Tree_simple_types<std::pair<int const ,std::list<CEventItem *,std::allocator<CEventItem *> > *> > >::_Insert_node
PUBLIC	??1?$map@HPAV?$list@PAVCEventItem@@V?$allocator@PAVCEventItem@@@std@@@std@@U?$less@H@2@V?$allocator@U?$pair@$$CBHPAV?$list@PAVCEventItem@@V?$allocator@PAVCEventItem@@@std@@@std@@@std@@@2@@std@@QAE@XZ ; std::map<int,std::list<CEventItem *,std::allocator<CEventItem *> > *,std::less<int>,std::allocator<std::pair<int const ,std::list<CEventItem *,std::allocator<CEventItem *> > *> > >::~map<int,std::list<CEventItem *,std::allocator<CEventItem *> > *,std::less<int>,std::allocator<std::pair<int const ,std::list<CEventItem *,std::allocator<CEventItem *> > *> > >
PUBLIC	??1?$vector@U_REGION_GENERIC@@V?$allocator@U_REGION_GENERIC@@@std@@@std@@QAE@XZ ; std::vector<_REGION_GENERIC,std::allocator<_REGION_GENERIC> >::~vector<_REGION_GENERIC,std::allocator<_REGION_GENERIC> >
PUBLIC	?_Xlength@?$vector@U_REGION_GENERIC@@V?$allocator@U_REGION_GENERIC@@@std@@@std@@CAXXZ ; std::vector<_REGION_GENERIC,std::allocator<_REGION_GENERIC> >::_Xlength
PUBLIC	??1?$_Tree@V?$_Tmap_traits@HPAVCSpawn@@U?$less@H@std@@V?$allocator@U?$pair@$$CBHPAVCSpawn@@@std@@@3@$0A@@std@@@std@@QAE@XZ ; std::_Tree<std::_Tmap_traits<int,CSpawn *,std::less<int>,std::allocator<std::pair<int const ,CSpawn *> >,0> >::~_Tree<std::_Tmap_traits<int,CSpawn *,std::less<int>,std::allocator<std::pair<int const ,CSpawn *> >,0> >
PUBLIC	?_Insert_node@?$_Tree_val@U?$_Tree_simple_types@U?$pair@$$CBHPAVCSpawn@@@std@@@std@@@std@@QAEPAU?$_Tree_node@U?$pair@$$CBHPAVCSpawn@@@std@@PAX@2@U?$_Tree_id@PAU?$_Tree_node@U?$pair@$$CBHPAVCSpawn@@@std@@PAX@std@@@2@QAU32@@Z ; std::_Tree_val<std::_Tree_simple_types<std::pair<int const ,CSpawn *> > >::_Insert_node
PUBLIC	??0CEventGeneric@@QAE@XZ			; CEventGeneric::CEventGeneric
PUBLIC	??1CEventGeneric@@UAE@XZ			; CEventGeneric::~CEventGeneric
PUBLIC	?Clear@CEventGeneric@@QAEXH@Z			; CEventGeneric::Clear
PUBLIC	?LoadScript@CEventGeneric@@QAEHPBD@Z		; CEventGeneric::LoadScript
PUBLIC	?AddItem@CEventGeneric@@QAEHHKHH@Z		; CEventGeneric::AddItem
PUBLIC	?GetItem@CEventGeneric@@QAEPAVCEventItem@@PAH@Z	; CEventGeneric::GetItem
PUBLIC	?GetExpFactor@CEventGeneric@@QAEMXZ		; CEventGeneric::GetExpFactor
PUBLIC	?GetItemDropRateFactor@CEventGeneric@@QAEMXZ	; CEventGeneric::GetItemDropRateFactor
PUBLIC	?GetEventElapsed@CEventGeneric@@QAEJXZ		; CEventGeneric::GetEventElapsed
PUBLIC	?CallTheRoll@CEventGeneric@@QAEXXZ		; CEventGeneric::CallTheRoll
PUBLIC	?AddSpawn@CEventGeneric@@QAEXHKKHMK@Z		; CEventGeneric::AddSpawn
PUBLIC	?AddRegionGeneric@CEventGeneric@@QAEXHKPAVCRespawnInfo@@@Z ; CEventGeneric::AddRegionGeneric
PUBLIC	?SortRegionGeneric@CEventGeneric@@QAEXXZ	; CEventGeneric::SortRegionGeneric
PUBLIC	?Spawn@CEventGeneric@@QAEXXZ			; CEventGeneric::Spawn
PUBLIC	?GetInstance@CEventGeneric@@SAPAV1@XZ		; CEventGeneric::GetInstance
PUBLIC	?Serialize@CEventGeneric@@QAEXAAVCAr@@@Z	; CEventGeneric::Serialize
PUBLIC	?Run@CEventGeneric@@QAEHXZ			; CEventGeneric::Run
PUBLIC	?GetEvent@CEventGeneric@@QAEPAU_EVENT_GENERIC@@H@Z ; CEventGeneric::GetEvent
PUBLIC	??_GCEventGeneric@@UAEPAXI@Z			; CEventGeneric::`scalar deleting destructor'
PUBLIC	??$?6H@CAr@@QAEAAV0@ABH@Z			; CAr::operator<<<int>
PUBLIC	??$?5H@CAr@@QAEAAV0@AAH@Z			; CAr::operator>><int>
PUBLIC	??$?6K@CAr@@QAEAAV0@ABK@Z			; CAr::operator<<<unsigned long>
PUBLIC	??$?5K@CAr@@QAEAAV0@AAK@Z			; CAr::operator>><unsigned long>
PUBLIC	?push_back@?$list@PAVCEventItem@@V?$allocator@PAVCEventItem@@@std@@@std@@QAEXABQAVCEventItem@@@Z ; std::list<CEventItem *,std::allocator<CEventItem *> >::push_back
PUBLIC	??$insert@$0A@$0A@@?$_Tree@V?$_Tmap_traits@HPAV?$list@PAVCEventItem@@V?$allocator@PAVCEventItem@@@std@@@std@@U?$less@H@2@V?$allocator@U?$pair@$$CBHPAV?$list@PAVCEventItem@@V?$allocator@PAVCEventItem@@@std@@@std@@@std@@@2@$0A@@std@@@std@@QAE?AU?$pair@V?$_Tree_iterator@V?$_Tree_val@U?$_Tree_simple_types@U?$pair@$$CBHPAV?$list@PAVCEventItem@@V?$allocator@PAVCEventItem@@@std@@@std@@@std@@@std@@@std@@@std@@_N@1@$$QAU?$pair@$$CBHPAV?$list@PAVCEventItem@@V?$allocator@PAVCEventItem@@@std@@@std@@@1@@Z ; std::_Tree<std::_Tmap_traits<int,std::list<CEventItem *,std::allocator<CEventItem *> > *,std::less<int>,std::allocator<std::pair<int const ,std::list<CEventItem *,std::allocator<CEventItem *> > *> >,0> >::insert<0,0>
PUBLIC	?prRegionGeneric@@YA_NU_REGION_GENERIC@@0@Z	; prRegionGeneric
PUBLIC	??$_Sort_unchecked@PAU_REGION_GENERIC@@P6A_NU1@0@Z@std@@YAXPAU_REGION_GENERIC@@0HP6A_NU1@1@Z@Z ; std::_Sort_unchecked<_REGION_GENERIC *,bool (__cdecl*)(_REGION_GENERIC,_REGION_GENERIC)>
PUBLIC	??$_Erase_tree@V?$allocator@U?$_Tree_node@U?$pair@$$CBHPAVCSpawn@@@std@@PAX@std@@@std@@@?$_Tree_val@U?$_Tree_simple_types@U?$pair@$$CBHPAVCSpawn@@@std@@@std@@@std@@QAEXAAV?$allocator@U?$_Tree_node@U?$pair@$$CBHPAVCSpawn@@@std@@PAX@std@@@1@PAU?$_Tree_node@U?$pair@$$CBHPAVCSpawn@@@std@@PAX@1@@Z ; std::_Tree_val<std::_Tree_simple_types<std::pair<int const ,CSpawn *> > >::_Erase_tree<std::allocator<std::_Tree_node<std::pair<int const ,CSpawn *>,void *> > >
PUBLIC	??$_Erase_tree@V?$allocator@U?$_Tree_node@U?$pair@$$CBHPAV?$list@PAVCEventItem@@V?$allocator@PAVCEventItem@@@std@@@std@@@std@@PAX@std@@@std@@@?$_Tree_val@U?$_Tree_simple_types@U?$pair@$$CBHPAV?$list@PAVCEventItem@@V?$allocator@PAVCEventItem@@@std@@@std@@@std@@@std@@@std@@QAEXAAV?$allocator@U?$_Tree_node@U?$pair@$$CBHPAV?$list@PAVCEventItem@@V?$allocator@PAVCEventItem@@@std@@@std@@@std@@PAX@std@@@1@PAU?$_Tree_node@U?$pair@$$CBHPAV?$list@PAVCEventItem@@V?$allocator@PAVCEventItem@@@std@@@std@@@std@@PAX@1@@Z ; std::_Tree_val<std::_Tree_simple_types<std::pair<int const ,std::list<CEventItem *,std::allocator<CEventItem *> > *> > >::_Erase_tree<std::allocator<std::_Tree_node<std::pair<int const ,std::list<CEventItem *,std::allocator<CEventItem *> > *>,void *> > >
PUBLIC	??$_Find_lower_bound@H@?$_Tree@V?$_Tmap_traits@HPAV?$list@PAVCEventItem@@V?$allocator@PAVCEventItem@@@std@@@std@@U?$less@H@2@V?$allocator@U?$pair@$$CBHPAV?$list@PAVCEventItem@@V?$allocator@PAVCEventItem@@@std@@@std@@@std@@@2@$0A@@std@@@std@@IBE?AU?$_Tree_find_result@PAU?$_Tree_node@U?$pair@$$CBHPAV?$list@PAVCEventItem@@V?$allocator@PAVCEventItem@@@std@@@std@@@std@@PAX@std@@@1@ABH@Z ; std::_Tree<std::_Tmap_traits<int,std::list<CEventItem *,std::allocator<CEventItem *> > *,std::less<int>,std::allocator<std::pair<int const ,std::list<CEventItem *,std::allocator<CEventItem *> > *> >,0> >::_Find_lower_bound<int>
PUBLIC	??1?$_Alloc_construct_ptr@V?$allocator@U?$_Tree_node@U?$pair@$$CBHPAV?$list@PAVCEventItem@@V?$allocator@PAVCEventItem@@@std@@@std@@@std@@PAX@std@@@std@@@std@@QAE@XZ ; std::_Alloc_construct_ptr<std::allocator<std::_Tree_node<std::pair<int const ,std::list<CEventItem *,std::allocator<CEventItem *> > *>,void *> > >::~_Alloc_construct_ptr<std::allocator<std::_Tree_node<std::pair<int const ,std::list<CEventItem *,std::allocator<CEventItem *> > *>,void *> > >
PUBLIC	??1?$_Alloc_construct_ptr@V?$allocator@U?$_Tree_node@U?$pair@$$CBHPAVCSpawn@@@std@@PAX@std@@@std@@@std@@QAE@XZ ; std::_Alloc_construct_ptr<std::allocator<std::_Tree_node<std::pair<int const ,CSpawn *>,void *> > >::~_Alloc_construct_ptr<std::allocator<std::_Tree_node<std::pair<int const ,CSpawn *>,void *> > >
PUBLIC	??$_Make_heap_unchecked@PAU_REGION_GENERIC@@P6A_NU1@0@Z@std@@YAXPAU_REGION_GENERIC@@0P6A_NU1@1@Z@Z ; std::_Make_heap_unchecked<_REGION_GENERIC *,bool (__cdecl*)(_REGION_GENERIC,_REGION_GENERIC)>
PUBLIC	??$_Partition_by_median_guess_unchecked@PAU_REGION_GENERIC@@P6A_NU1@0@Z@std@@YA?AU?$pair@PAU_REGION_GENERIC@@PAU1@@0@PAU_REGION_GENERIC@@0P6A_NU2@1@Z@Z ; std::_Partition_by_median_guess_unchecked<_REGION_GENERIC *,bool (__cdecl*)(_REGION_GENERIC,_REGION_GENERIC)>
PUBLIC	??$_Emplace_reallocate@ABU_REGION_GENERIC@@@?$vector@U_REGION_GENERIC@@V?$allocator@U_REGION_GENERIC@@@std@@@std@@AAEPAU_REGION_GENERIC@@QAU2@ABU2@@Z ; std::vector<_REGION_GENERIC,std::allocator<_REGION_GENERIC> >::_Emplace_reallocate<_REGION_GENERIC const &>
PUBLIC	??1?$_Alloc_construct_ptr@V?$allocator@U?$_List_node@PAVCEventItem@@PAX@std@@@std@@@std@@QAE@XZ ; std::_Alloc_construct_ptr<std::allocator<std::_List_node<CEventItem *,void *> > >::~_Alloc_construct_ptr<std::allocator<std::_List_node<CEventItem *,void *> > >
PUBLIC	??1?$_Alloc_construct_ptr@V?$allocator@U?$_List_node@PAU_EVENT_GENERIC@@PAX@std@@@std@@@std@@QAE@XZ ; std::_Alloc_construct_ptr<std::allocator<std::_List_node<_EVENT_GENERIC *,void *> > >::~_Alloc_construct_ptr<std::allocator<std::_List_node<_EVENT_GENERIC *,void *> > >
PUBLIC	??$_Pop_heap_hole_by_index@PAU_REGION_GENERIC@@U1@P6A_NU1@0@Z@std@@YAXPAU_REGION_GENERIC@@HH$$QAU1@P6A_NU1@2@Z@Z ; std::_Pop_heap_hole_by_index<_REGION_GENERIC *,_REGION_GENERIC,bool (__cdecl*)(_REGION_GENERIC,_REGION_GENERIC)>
PUBLIC	??$_Copy_backward_memmove@PAU_REGION_GENERIC@@PAU1@@std@@YAPAU_REGION_GENERIC@@PAU1@00@Z ; std::_Copy_backward_memmove<_REGION_GENERIC *,_REGION_GENERIC *>
PUBLIC	??$_Med3_unchecked@PAU_REGION_GENERIC@@P6A_NU1@0@Z@std@@YAXPAU_REGION_GENERIC@@00P6A_NU1@1@Z@Z ; std::_Med3_unchecked<_REGION_GENERIC *,bool (__cdecl*)(_REGION_GENERIC,_REGION_GENERIC)>
PUBLIC	??$_Copy_memmove@PAU_REGION_GENERIC@@PAU1@@std@@YAPAU_REGION_GENERIC@@PAU1@00@Z ; std::_Copy_memmove<_REGION_GENERIC *,_REGION_GENERIC *>
PUBLIC	??$_Copy_memmove_tail@PAU_REGION_GENERIC@@@std@@YAPAU_REGION_GENERIC@@QBDQAU1@II@Z ; std::_Copy_memmove_tail<_REGION_GENERIC *>
PUBLIC	?_OptionsStorage@?1??__local_stdio_printf_options@@9@4_KA ; `__local_stdio_printf_options'::`2'::_OptionsStorage
PUBLIC	??_7exception@std@@6B@				; std::exception::`vftable'
PUBLIC	??_C@_0BC@EOODALEL@Unknown?5exception@		; `string'
PUBLIC	??_7bad_alloc@std@@6B@				; std::bad_alloc::`vftable'
PUBLIC	??_7bad_array_new_length@std@@6B@		; std::bad_array_new_length::`vftable'
PUBLIC	??_C@_0BF@KINCDENJ@bad?5array?5new?5length@	; `string'
PUBLIC	??_R0?AVexception@std@@@8			; std::exception `RTTI Type Descriptor'
PUBLIC	__CT??_R0?AVexception@std@@@8??0exception@std@@QAE@ABV01@@Z12
PUBLIC	__TI3?AVbad_array_new_length@std@@
PUBLIC	__CTA3?AVbad_array_new_length@std@@
PUBLIC	??_R0?AVbad_array_new_length@std@@@8		; std::bad_array_new_length `RTTI Type Descriptor'
PUBLIC	__CT??_R0?AVbad_array_new_length@std@@@8??0bad_array_new_length@std@@QAE@ABV01@@Z12
PUBLIC	??_R0?AVbad_alloc@std@@@8			; std::bad_alloc `RTTI Type Descriptor'
PUBLIC	__CT??_R0?AVbad_alloc@std@@@8??0bad_alloc@std@@QAE@ABV01@@Z12
PUBLIC	??_C@_0BB@GCADKGJO@map?1set?5too?5long@		; `string'
PUBLIC	??_C@_0BM@HMFGHCP@?$CFs?5min?3?$CFd?0?5max?3?$CFd?0?5index?3?$CFd@ ; `string'
PUBLIC	??_C@_0BI@BEIFNGEL@GetItemProp?5range_error@	; `string'
PUBLIC	??_C@_0BA@FOIKENOD@vector?5too?5long@		; `string'
PUBLIC	??_R4exception@std@@6B@				; std::exception::`RTTI Complete Object Locator'
PUBLIC	??_R3exception@std@@8				; std::exception::`RTTI Class Hierarchy Descriptor'
PUBLIC	??_R2exception@std@@8				; std::exception::`RTTI Base Class Array'
PUBLIC	??_R1A@?0A@EA@exception@std@@8			; std::exception::`RTTI Base Class Descriptor at (0,-1,0,64)'
PUBLIC	??_R4bad_array_new_length@std@@6B@		; std::bad_array_new_length::`RTTI Complete Object Locator'
PUBLIC	??_R3bad_array_new_length@std@@8		; std::bad_array_new_length::`RTTI Class Hierarchy Descriptor'
PUBLIC	??_R2bad_array_new_length@std@@8		; std::bad_array_new_length::`RTTI Base Class Array'
PUBLIC	??_R1A@?0A@EA@bad_array_new_length@std@@8	; std::bad_array_new_length::`RTTI Base Class Descriptor at (0,-1,0,64)'
PUBLIC	??_R1A@?0A@EA@bad_alloc@std@@8			; std::bad_alloc::`RTTI Base Class Descriptor at (0,-1,0,64)'
PUBLIC	??_R3bad_alloc@std@@8				; std::bad_alloc::`RTTI Class Hierarchy Descriptor'
PUBLIC	??_R2bad_alloc@std@@8				; std::bad_alloc::`RTTI Base Class Array'
PUBLIC	??_R4bad_alloc@std@@6B@				; std::bad_alloc::`RTTI Complete Object Locator'
PUBLIC	??_7CSPEvent@@6B@				; CSPEvent::`vftable'
PUBLIC	??_7CXMasEvent@@6B@				; CXMasEvent::`vftable'
PUBLIC	??_7CEventItem@@6B@				; CEventItem::`vftable'
PUBLIC	??_7CSpawn@@6B@					; CSpawn::`vftable'
PUBLIC	??_7CEventGeneric@@6B@				; CEventGeneric::`vftable'
PUBLIC	??_C@_05GCNIINAF@Event@				; `string'
PUBLIC	??_C@_05PABKJLOM@Title@				; `string'
PUBLIC	??_C@_01BJJEKLCA@?$CC@				; `string'
PUBLIC	??_C@_04OKOFBOPB@Time@				; `string'
PUBLIC	??_C@_04BGCMBJDA@Item@				; `string'
PUBLIC	??_C@_0L@DDJPBPFC@fExpFactor@			; `string'
PUBLIC	??_C@_0O@NDHJHAFN@fItemDropRate@		; `string'
PUBLIC	??_C@_05BEKPGMFA@Spawn@				; `string'
PUBLIC	??_C@_0DM@PNNFMCGB@m_dwFlag?$DN0x?$CF08x?0?5nId?$DN?$CFd?0?5tStart@ ; `string'
PUBLIC	??_C@_0DK@PJCDFLMA@spawn?3?5type?5?$DN?5?$CFd?0?5index?5?$DN?5?$CFd?0?5w@ ; `string'
PUBLIC	??_C@_0O@NKNMEGII@list?5too?5long@		; `string'
PUBLIC	??_R4CSPEvent@@6B@				; CSPEvent::`RTTI Complete Object Locator'
PUBLIC	??_R0?AVCSPEvent@@@8				; CSPEvent `RTTI Type Descriptor'
PUBLIC	??_R3CSPEvent@@8				; CSPEvent::`RTTI Class Hierarchy Descriptor'
PUBLIC	??_R2CSPEvent@@8				; CSPEvent::`RTTI Base Class Array'
PUBLIC	??_R1A@?0A@EA@CSPEvent@@8			; CSPEvent::`RTTI Base Class Descriptor at (0,-1,0,64)'
PUBLIC	??_R4CXMasEvent@@6B@				; CXMasEvent::`RTTI Complete Object Locator'
PUBLIC	??_R0?AVCXMasEvent@@@8				; CXMasEvent `RTTI Type Descriptor'
PUBLIC	??_R3CXMasEvent@@8				; CXMasEvent::`RTTI Class Hierarchy Descriptor'
PUBLIC	??_R2CXMasEvent@@8				; CXMasEvent::`RTTI Base Class Array'
PUBLIC	??_R1A@?0A@EA@CXMasEvent@@8			; CXMasEvent::`RTTI Base Class Descriptor at (0,-1,0,64)'
PUBLIC	??_R4CEventItem@@6B@				; CEventItem::`RTTI Complete Object Locator'
PUBLIC	??_R0?AVCEventItem@@@8				; CEventItem `RTTI Type Descriptor'
PUBLIC	??_R3CEventItem@@8				; CEventItem::`RTTI Class Hierarchy Descriptor'
PUBLIC	??_R2CEventItem@@8				; CEventItem::`RTTI Base Class Array'
PUBLIC	??_R1A@?0A@EA@CEventItem@@8			; CEventItem::`RTTI Base Class Descriptor at (0,-1,0,64)'
PUBLIC	??_R4CSpawn@@6B@				; CSpawn::`RTTI Complete Object Locator'
PUBLIC	??_R0?AVCSpawn@@@8				; CSpawn `RTTI Type Descriptor'
PUBLIC	??_R3CSpawn@@8					; CSpawn::`RTTI Class Hierarchy Descriptor'
PUBLIC	??_R2CSpawn@@8					; CSpawn::`RTTI Base Class Array'
PUBLIC	??_R1A@?0A@EA@CSpawn@@8				; CSpawn::`RTTI Base Class Descriptor at (0,-1,0,64)'
PUBLIC	??_R4CEventGeneric@@6B@				; CEventGeneric::`RTTI Complete Object Locator'
PUBLIC	??_R0?AVCEventGeneric@@@8			; CEventGeneric `RTTI Type Descriptor'
PUBLIC	??_R3CEventGeneric@@8				; CEventGeneric::`RTTI Class Hierarchy Descriptor'
PUBLIC	??_R2CEventGeneric@@8				; CEventGeneric::`RTTI Base Class Array'
PUBLIC	??_R1A@?0A@EA@CEventGeneric@@8			; CEventGeneric::`RTTI Base Class Descriptor at (0,-1,0,64)'
PUBLIC	__real@3f000000
PUBLIC	__real@3f800000
PUBLIC	__real@3ff0000000000000
PUBLIC	__real@40000000
PUBLIC	__real@4000000000000000
PUBLIC	__real@40800000
PUBLIC	__real@42480000
PUBLIC	__real@42c80000
PUBLIC	__real@4a5bba00
PUBLIC	__xmm@41f00000000000000000000000000000
PUBLIC	__xmm@80000000800000008000000080000000
EXTRN	??2@YAPAXI@Z:PROC				; operator new
EXTRN	??3@YAXPAXI@Z:PROC				; operator delete
EXTRN	_atexit:PROC
EXTRN	__Init_thread_header:PROC
EXTRN	__Init_thread_abort:PROC
EXTRN	__Init_thread_footer:PROC
EXTRN	__invalid_parameter_noinfo:PROC
EXTRN	__invoke_watson:PROC
EXTRN	__errno:PROC
EXTRN	__imp__OutputDebugStringA@4:PROC
EXTRN	__imp__GetTickCount@0:PROC
EXTRN	__imp__LoadResource@8:PROC
EXTRN	__imp__LockResource@4:PROC
EXTRN	__imp__SizeofResource@8:PROC
EXTRN	__imp__FindResourceW@12:PROC
EXTRN	__imp__lstrcpyA@8:PROC
EXTRN	__imp__WideCharToMultiByte@32:PROC
EXTRN	__mbscmp:PROC
EXTRN	__mbsstr:PROC
EXTRN	___stdio_common_vsprintf:PROC
EXTRN	__localtime64_s:PROC
EXTRN	__time64:PROC
EXTRN	?AfxThrowMemoryException@@YGXXZ:PROC		; AfxThrowMemoryException
EXTRN	?AfxThrowInvalidArgException@@YGXXZ:PROC	; AfxThrowInvalidArgException
EXTRN	?AfxThrowOleException@@YGXJ@Z:PROC		; AfxThrowOleException
EXTRN	?AfxFindStringResourceHandle@@YGPAUHINSTANCE__@@I@Z:PROC ; AfxFindStringResourceHandle
EXTRN	?AfxGetStringManager@@YGPAUIAtlStringMgr@ATL@@XZ:PROC ; AfxGetStringManager
EXTRN	___std_exception_copy:PROC
EXTRN	___std_exception_destroy:PROC
EXTRN	??_Eexception@std@@UAEPAXI@Z:PROC		; std::exception::`vector deleting destructor'
EXTRN	??_Ebad_alloc@std@@UAEPAXI@Z:PROC		; std::bad_alloc::`vector deleting destructor'
EXTRN	??_Ebad_array_new_length@std@@UAEPAXI@Z:PROC	; std::bad_array_new_length::`vector deleting destructor'
EXTRN	?_Xlength_error@std@@YAXPBD@Z:PROC		; std::_Xlength_error
EXTRN	?GetNumber@CScanner@@QAEHH@Z:PROC		; CScanner::GetNumber
EXTRN	?GetFloat@CScanner@@QAEMH@Z:PROC		; CScanner::GetFloat
EXTRN	??0CScript@@QAE@H@Z:PROC			; CScript::CScript
EXTRN	??1CScript@@UAE@XZ:PROC				; CScript::~CScript
EXTRN	?Load@CScript@@QAEHPBDHH@Z:PROC			; CScript::Load
EXTRN	?GetToken@CScript@@UAEHH@Z:PROC			; CScript::GetToken
EXTRN	?GetLastFull@CScript@@QAEXXZ:PROC		; CScript::GetLastFull
EXTRN	?xRandom@@YAKKK@Z:PROC				; xRandom
EXTRN	?Error@@YAPBDPBDZZ:PROC				; Error
EXTRN	?GetLanguage@@YAHXZ:PROC			; GetLanguage
EXTRN	?SetPos@CObj@@QAEXABUD3DXVECTOR3@@@Z:PROC	; CObj::SetPos
EXTRN	?SetSerialNumber@CItemBase@@QAEXXZ:PROC		; CItemBase::SetSerialNumber
EXTRN	??0CItemElem@@QAE@XZ:PROC			; CItemElem::CItemElem
EXTRN	?Read@CAr@@QAEXPAXI@Z:PROC			; CAr::Read
EXTRN	?Write@CAr@@QAEXPBXI@Z:PROC			; CAr::Write
EXTRN	?CheckBuf@CAr@@QAEXI@Z:PROC			; CAr::CheckBuf
EXTRN	?GetPos@CRespawnInfo@@QAEXAAUD3DXVECTOR3@@H@Z:PROC ; CRespawnInfo::GetPos
EXTRN	?AddObj@CWorld@@QAEHPAVCObj@@HH@Z:PROC		; CWorld::AddObj
EXTRN	?GetLandHeight@CWorld@@QAEMMM@Z:PROC		; CWorld::GetLandHeight
EXTRN	?CreateObj@@YAPAVCObj@@PAUIDirect3DDevice9@@KKH@Z:PROC ; CreateObj
EXTRN	?GetState@CFlyffEvent@@QAEEH@Z:PROC		; CFlyffEvent::GetState
EXTRN	??_ECSPEvent@@UAEPAXI@Z:PROC			; CSPEvent::`vector deleting destructor'
EXTRN	??_ECXMasEvent@@UAEPAXI@Z:PROC			; CXMasEvent::`vector deleting destructor'
EXTRN	??_ECEventItem@@UAEPAXI@Z:PROC			; CEventItem::`vector deleting destructor'
EXTRN	??_ECSpawn@@UAEPAXI@Z:PROC			; CSpawn::`vector deleting destructor'
EXTRN	??_ECEventGeneric@@UAEPAXI@Z:PROC		; CEventGeneric::`vector deleting destructor'
EXTRN	?CallTheRoll@CUserMng@@QAEXH@Z:PROC		; CUserMng::CallTheRoll
EXTRN	?GetWorld@CWorldMng@@QAEPAVCWorld@@K@Z:PROC	; CWorldMng::GetWorld
EXTRN	@__security_check_cookie@4:PROC
EXTRN	__CxxThrowException@8:PROC
EXTRN	___CxxFrameHandler3:PROC
EXTRN	__alldiv:PROC
EXTRN	__ftol3:PROC
EXTRN	__libm_sse2_pow_precise:PROC
EXTRN	__libm_sse2_sqrt_precise:PROC
EXTRN	_memcpy:PROC
EXTRN	_memmove:PROC
EXTRN	_memset:PROC
EXTRN	__Init_thread_epoch:DWORD
EXTRN	??_7type_info@@6B@:QWORD			; type_info::`vftable'
EXTRN	?g_tCurrent@@3JA:DWORD				; g_tCurrent
EXTRN	?g_next@@3KA:DWORD				; g_next
EXTRN	?prj@@3VCProject@@A:BYTE			; prj
EXTRN	?g_tmCurrent@@3KA:DWORD				; g_tmCurrent
EXTRN	?g_eLocal@@3VCFlyffEvent@@A:BYTE		; g_eLocal
EXTRN	?g_UserMng@@3VCUserMng@@A:BYTE			; g_UserMng
EXTRN	?g_WorldMng@@3VCWorldMng@@A:BYTE		; g_WorldMng
EXTRN	___security_cookie:DWORD
EXTRN	__fltused:DWORD
EXTRN	__tls_array:DWORD
EXTRN	__tls_index:DWORD
;	COMDAT ?_OptionsStorage@?1??__local_stdio_printf_options@@9@4_KA
_BSS	SEGMENT
?_OptionsStorage@?1??__local_stdio_printf_options@@9@4_KA DQ 01H DUP (?) ; `__local_stdio_printf_options'::`2'::_OptionsStorage
_BSS	ENDS
;	COMDAT ?sXMasEvent@?1??GetInstance@CXMasEvent@@SAPAV2@XZ@4V2@A
_BSS	SEGMENT
?sXMasEvent@?1??GetInstance@CXMasEvent@@SAPAV2@XZ@4V2@A DB 06cH DUP (?) ; `CXMasEvent::GetInstance'::`2'::sXMasEvent
_BSS	ENDS
;	COMDAT ?$TSS0@?1??GetInstance@CXMasEvent@@SAPAV2@XZ@4HA
_BSS	SEGMENT
?$TSS0@?1??GetInstance@CXMasEvent@@SAPAV2@XZ@4HA DD 01H DUP (?) ; `CXMasEvent::GetInstance'::`2'::$TSS0
_BSS	ENDS
;	COMDAT ?sEventGeneric@?1??GetInstance@CEventGeneric@@SAPAV2@XZ@4V2@A
_BSS	SEGMENT
?sEventGeneric@?1??GetInstance@CEventGeneric@@SAPAV2@XZ@4V2@A DB 02cH DUP (?) ; `CEventGeneric::GetInstance'::`2'::sEventGeneric
_BSS	ENDS
;	COMDAT ?$TSS0@?1??GetInstance@CEventGeneric@@SAPAV2@XZ@4HA
_BSS	SEGMENT
?$TSS0@?1??GetInstance@CEventGeneric@@SAPAV2@XZ@4HA DD 01H DUP (?) ; `CEventGeneric::GetInstance'::`2'::$TSS0
_BSS	ENDS
;	COMDAT __xmm@80000000800000008000000080000000
CONST	SEGMENT
__xmm@80000000800000008000000080000000 DB 00H, 00H, 00H, 080H, 00H, 00H, 00H
	DB	080H, 00H, 00H, 00H, 080H, 00H, 00H, 00H, 080H
CONST	ENDS
;	COMDAT __xmm@41f00000000000000000000000000000
CONST	SEGMENT
__xmm@41f00000000000000000000000000000 DB 00H, 00H, 00H, 00H, 00H, 00H, 00H
	DB	00H, 00H, 00H, 00H, 00H, 00H, 00H, 0f0H, 'A'
CONST	ENDS
;	COMDAT __real@4a5bba00
CONST	SEGMENT
__real@4a5bba00 DD 04a5bba00r			; 3.6e+06
CONST	ENDS
;	COMDAT __real@42c80000
CONST	SEGMENT
__real@42c80000 DD 042c80000r			; 100
CONST	ENDS
;	COMDAT __real@42480000
CONST	SEGMENT
__real@42480000 DD 042480000r			; 50
CONST	ENDS
;	COMDAT __real@40800000
CONST	SEGMENT
__real@40800000 DD 040800000r			; 4
CONST	ENDS
;	COMDAT __real@4000000000000000
CONST	SEGMENT
__real@4000000000000000 DQ 04000000000000000r	; 2
CONST	ENDS
;	COMDAT __real@40000000
CONST	SEGMENT
__real@40000000 DD 040000000r			; 2
CONST	ENDS
;	COMDAT __real@3ff0000000000000
CONST	SEGMENT
__real@3ff0000000000000 DQ 03ff0000000000000r	; 1
CONST	ENDS
;	COMDAT __real@3f800000
CONST	SEGMENT
__real@3f800000 DD 03f800000r			; 1
CONST	ENDS
;	COMDAT __real@3f000000
CONST	SEGMENT
__real@3f000000 DD 03f000000r			; 0.5
CONST	ENDS
;	COMDAT ??_R1A@?0A@EA@CEventGeneric@@8
rdata$r	SEGMENT
??_R1A@?0A@EA@CEventGeneric@@8 DD FLAT:??_R0?AVCEventGeneric@@@8 ; CEventGeneric::`RTTI Base Class Descriptor at (0,-1,0,64)'
	DD	00H
	DD	00H
	DD	0ffffffffH
	DD	00H
	DD	040H
	DD	FLAT:??_R3CEventGeneric@@8
rdata$r	ENDS
;	COMDAT ??_R2CEventGeneric@@8
rdata$r	SEGMENT
??_R2CEventGeneric@@8 DD FLAT:??_R1A@?0A@EA@CEventGeneric@@8 ; CEventGeneric::`RTTI Base Class Array'
rdata$r	ENDS
;	COMDAT ??_R3CEventGeneric@@8
rdata$r	SEGMENT
??_R3CEventGeneric@@8 DD 00H				; CEventGeneric::`RTTI Class Hierarchy Descriptor'
	DD	00H
	DD	01H
	DD	FLAT:??_R2CEventGeneric@@8
rdata$r	ENDS
;	COMDAT ??_R0?AVCEventGeneric@@@8
data$rs	SEGMENT
??_R0?AVCEventGeneric@@@8 DD FLAT:??_7type_info@@6B@	; CEventGeneric `RTTI Type Descriptor'
	DD	00H
	DB	'.?AVCEventGeneric@@', 00H
data$rs	ENDS
;	COMDAT ??_R4CEventGeneric@@6B@
rdata$r	SEGMENT
??_R4CEventGeneric@@6B@ DD 00H				; CEventGeneric::`RTTI Complete Object Locator'
	DD	00H
	DD	00H
	DD	FLAT:??_R0?AVCEventGeneric@@@8
	DD	FLAT:??_R3CEventGeneric@@8
rdata$r	ENDS
;	COMDAT ??_R1A@?0A@EA@CSpawn@@8
rdata$r	SEGMENT
??_R1A@?0A@EA@CSpawn@@8 DD FLAT:??_R0?AVCSpawn@@@8	; CSpawn::`RTTI Base Class Descriptor at (0,-1,0,64)'
	DD	00H
	DD	00H
	DD	0ffffffffH
	DD	00H
	DD	040H
	DD	FLAT:??_R3CSpawn@@8
rdata$r	ENDS
;	COMDAT ??_R2CSpawn@@8
rdata$r	SEGMENT
??_R2CSpawn@@8 DD FLAT:??_R1A@?0A@EA@CSpawn@@8		; CSpawn::`RTTI Base Class Array'
rdata$r	ENDS
;	COMDAT ??_R3CSpawn@@8
rdata$r	SEGMENT
??_R3CSpawn@@8 DD 00H					; CSpawn::`RTTI Class Hierarchy Descriptor'
	DD	00H
	DD	01H
	DD	FLAT:??_R2CSpawn@@8
rdata$r	ENDS
;	COMDAT ??_R0?AVCSpawn@@@8
data$rs	SEGMENT
??_R0?AVCSpawn@@@8 DD FLAT:??_7type_info@@6B@		; CSpawn `RTTI Type Descriptor'
	DD	00H
	DB	'.?AVCSpawn@@', 00H
data$rs	ENDS
;	COMDAT ??_R4CSpawn@@6B@
rdata$r	SEGMENT
??_R4CSpawn@@6B@ DD 00H					; CSpawn::`RTTI Complete Object Locator'
	DD	00H
	DD	00H
	DD	FLAT:??_R0?AVCSpawn@@@8
	DD	FLAT:??_R3CSpawn@@8
rdata$r	ENDS
;	COMDAT ??_R1A@?0A@EA@CEventItem@@8
rdata$r	SEGMENT
??_R1A@?0A@EA@CEventItem@@8 DD FLAT:??_R0?AVCEventItem@@@8 ; CEventItem::`RTTI Base Class Descriptor at (0,-1,0,64)'
	DD	00H
	DD	00H
	DD	0ffffffffH
	DD	00H
	DD	040H
	DD	FLAT:??_R3CEventItem@@8
rdata$r	ENDS
;	COMDAT ??_R2CEventItem@@8
rdata$r	SEGMENT
??_R2CEventItem@@8 DD FLAT:??_R1A@?0A@EA@CEventItem@@8	; CEventItem::`RTTI Base Class Array'
rdata$r	ENDS
;	COMDAT ??_R3CEventItem@@8
rdata$r	SEGMENT
??_R3CEventItem@@8 DD 00H				; CEventItem::`RTTI Class Hierarchy Descriptor'
	DD	00H
	DD	01H
	DD	FLAT:??_R2CEventItem@@8
rdata$r	ENDS
;	COMDAT ??_R0?AVCEventItem@@@8
data$rs	SEGMENT
??_R0?AVCEventItem@@@8 DD FLAT:??_7type_info@@6B@	; CEventItem `RTTI Type Descriptor'
	DD	00H
	DB	'.?AVCEventItem@@', 00H
data$rs	ENDS
;	COMDAT ??_R4CEventItem@@6B@
rdata$r	SEGMENT
??_R4CEventItem@@6B@ DD 00H				; CEventItem::`RTTI Complete Object Locator'
	DD	00H
	DD	00H
	DD	FLAT:??_R0?AVCEventItem@@@8
	DD	FLAT:??_R3CEventItem@@8
rdata$r	ENDS
;	COMDAT ??_R1A@?0A@EA@CXMasEvent@@8
rdata$r	SEGMENT
??_R1A@?0A@EA@CXMasEvent@@8 DD FLAT:??_R0?AVCXMasEvent@@@8 ; CXMasEvent::`RTTI Base Class Descriptor at (0,-1,0,64)'
	DD	01H
	DD	00H
	DD	0ffffffffH
	DD	00H
	DD	040H
	DD	FLAT:??_R3CXMasEvent@@8
rdata$r	ENDS
;	COMDAT ??_R2CXMasEvent@@8
rdata$r	SEGMENT
??_R2CXMasEvent@@8 DD FLAT:??_R1A@?0A@EA@CXMasEvent@@8	; CXMasEvent::`RTTI Base Class Array'
	DD	FLAT:??_R1A@?0A@EA@CSPEvent@@8
rdata$r	ENDS
;	COMDAT ??_R3CXMasEvent@@8
rdata$r	SEGMENT
??_R3CXMasEvent@@8 DD 00H				; CXMasEvent::`RTTI Class Hierarchy Descriptor'
	DD	00H
	DD	02H
	DD	FLAT:??_R2CXMasEvent@@8
rdata$r	ENDS
;	COMDAT ??_R0?AVCXMasEvent@@@8
data$rs	SEGMENT
??_R0?AVCXMasEvent@@@8 DD FLAT:??_7type_info@@6B@	; CXMasEvent `RTTI Type Descriptor'
	DD	00H
	DB	'.?AVCXMasEvent@@', 00H
data$rs	ENDS
;	COMDAT ??_R4CXMasEvent@@6B@
rdata$r	SEGMENT
??_R4CXMasEvent@@6B@ DD 00H				; CXMasEvent::`RTTI Complete Object Locator'
	DD	00H
	DD	00H
	DD	FLAT:??_R0?AVCXMasEvent@@@8
	DD	FLAT:??_R3CXMasEvent@@8
rdata$r	ENDS
;	COMDAT ??_R1A@?0A@EA@CSPEvent@@8
rdata$r	SEGMENT
??_R1A@?0A@EA@CSPEvent@@8 DD FLAT:??_R0?AVCSPEvent@@@8	; CSPEvent::`RTTI Base Class Descriptor at (0,-1,0,64)'
	DD	00H
	DD	00H
	DD	0ffffffffH
	DD	00H
	DD	040H
	DD	FLAT:??_R3CSPEvent@@8
rdata$r	ENDS
;	COMDAT ??_R2CSPEvent@@8
rdata$r	SEGMENT
??_R2CSPEvent@@8 DD FLAT:??_R1A@?0A@EA@CSPEvent@@8	; CSPEvent::`RTTI Base Class Array'
rdata$r	ENDS
;	COMDAT ??_R3CSPEvent@@8
rdata$r	SEGMENT
??_R3CSPEvent@@8 DD 00H					; CSPEvent::`RTTI Class Hierarchy Descriptor'
	DD	00H
	DD	01H
	DD	FLAT:??_R2CSPEvent@@8
rdata$r	ENDS
;	COMDAT ??_R0?AVCSPEvent@@@8
data$rs	SEGMENT
??_R0?AVCSPEvent@@@8 DD FLAT:??_7type_info@@6B@		; CSPEvent `RTTI Type Descriptor'
	DD	00H
	DB	'.?AVCSPEvent@@', 00H
data$rs	ENDS
;	COMDAT ??_R4CSPEvent@@6B@
rdata$r	SEGMENT
??_R4CSPEvent@@6B@ DD 00H				; CSPEvent::`RTTI Complete Object Locator'
	DD	00H
	DD	00H
	DD	FLAT:??_R0?AVCSPEvent@@@8
	DD	FLAT:??_R3CSPEvent@@8
rdata$r	ENDS
;	COMDAT ??_C@_0O@NKNMEGII@list?5too?5long@
CONST	SEGMENT
??_C@_0O@NKNMEGII@list?5too?5long@ DB 'list too long', 00H ; `string'
CONST	ENDS
;	COMDAT ??_C@_0DK@PJCDFLMA@spawn?3?5type?5?$DN?5?$CFd?0?5index?5?$DN?5?$CFd?0?5w@
CONST	SEGMENT
??_C@_0DK@PJCDFLMA@spawn?3?5type?5?$DN?5?$CFd?0?5index?5?$DN?5?$CFd?0?5w@ DB 's'
	DB	'pawn: type = %d, index = %d, world = %d, x = %f, z = %f', 0aH
	DB	00H						; `string'
CONST	ENDS
;	COMDAT ??_C@_0DM@PNNFMCGB@m_dwFlag?$DN0x?$CF08x?0?5nId?$DN?$CFd?0?5tStart@
CONST	SEGMENT
??_C@_0DM@PNNFMCGB@m_dwFlag?$DN0x?$CF08x?0?5nId?$DN?$CFd?0?5tStart@ DB 'm'
	DB	'_dwFlag=0x%08x, nId=%d, tStart=%d, tEnd=%d, t=%d, nFlag=%d', 00H ; `string'
CONST	ENDS
;	COMDAT ??_C@_05BEKPGMFA@Spawn@
CONST	SEGMENT
??_C@_05BEKPGMFA@Spawn@ DB 'Spawn', 00H			; `string'
CONST	ENDS
;	COMDAT ??_C@_0O@NDHJHAFN@fItemDropRate@
CONST	SEGMENT
??_C@_0O@NDHJHAFN@fItemDropRate@ DB 'fItemDropRate', 00H ; `string'
CONST	ENDS
;	COMDAT ??_C@_0L@DDJPBPFC@fExpFactor@
CONST	SEGMENT
??_C@_0L@DDJPBPFC@fExpFactor@ DB 'fExpFactor', 00H	; `string'
CONST	ENDS
;	COMDAT ??_C@_04BGCMBJDA@Item@
CONST	SEGMENT
??_C@_04BGCMBJDA@Item@ DB 'Item', 00H			; `string'
CONST	ENDS
;	COMDAT ??_C@_04OKOFBOPB@Time@
CONST	SEGMENT
??_C@_04OKOFBOPB@Time@ DB 'Time', 00H			; `string'
CONST	ENDS
;	COMDAT ??_C@_01BJJEKLCA@?$CC@
CONST	SEGMENT
??_C@_01BJJEKLCA@?$CC@ DB '"', 00H			; `string'
CONST	ENDS
;	COMDAT ??_C@_05PABKJLOM@Title@
CONST	SEGMENT
??_C@_05PABKJLOM@Title@ DB 'Title', 00H			; `string'
CONST	ENDS
;	COMDAT ??_C@_05GCNIINAF@Event@
CONST	SEGMENT
??_C@_05GCNIINAF@Event@ DB 'Event', 00H			; `string'
CONST	ENDS
;	COMDAT ?s_anHour@?1???0CEventItem@@QAE@KHH@Z@4PAHA
_DATA	SEGMENT
?s_anHour@?1???0CEventItem@@QAE@KHH@Z@4PAHA DD 01f9H	; `CEventItem::CEventItem'::`2'::s_anHour
	DD	0199H
	DD	0144H
	DD	0118H
	DD	0dcH
	DD	0cbH
	DD	0caH
	DD	0d4H
	DD	0e3H
	DD	0105H
	DD	012eH
	DD	015dH
	DD	023bH
	DD	02bdH
	DD	02fcH
	DD	0323H
	DD	0316H
	DD	0315H
	DD	02f2H
	DD	0351H
	DD	03a8H
	DD	03acH
	DD	0397H
	DD	02d0H
_DATA	ENDS
;	COMDAT ??_7CEventGeneric@@6B@
CONST	SEGMENT
??_7CEventGeneric@@6B@ DD FLAT:??_R4CEventGeneric@@6B@	; CEventGeneric::`vftable'
	DD	FLAT:??_ECEventGeneric@@UAEPAXI@Z
CONST	ENDS
;	COMDAT ??_7CSpawn@@6B@
CONST	SEGMENT
??_7CSpawn@@6B@ DD FLAT:??_R4CSpawn@@6B@		; CSpawn::`vftable'
	DD	FLAT:??_ECSpawn@@UAEPAXI@Z
CONST	ENDS
;	COMDAT ??_7CEventItem@@6B@
CONST	SEGMENT
??_7CEventItem@@6B@ DD FLAT:??_R4CEventItem@@6B@	; CEventItem::`vftable'
	DD	FLAT:??_ECEventItem@@UAEPAXI@Z
CONST	ENDS
;	COMDAT ??_7CXMasEvent@@6B@
CONST	SEGMENT
??_7CXMasEvent@@6B@ DD FLAT:??_R4CXMasEvent@@6B@	; CXMasEvent::`vftable'
	DD	FLAT:??_ECXMasEvent@@UAEPAXI@Z
CONST	ENDS
;	COMDAT ??_7CSPEvent@@6B@
CONST	SEGMENT
??_7CSPEvent@@6B@ DD FLAT:??_R4CSPEvent@@6B@		; CSPEvent::`vftable'
	DD	FLAT:??_ECSPEvent@@UAEPAXI@Z
CONST	ENDS
;	COMDAT ??_R4bad_alloc@std@@6B@
rdata$r	SEGMENT
??_R4bad_alloc@std@@6B@ DD 00H				; std::bad_alloc::`RTTI Complete Object Locator'
	DD	00H
	DD	00H
	DD	FLAT:??_R0?AVbad_alloc@std@@@8
	DD	FLAT:??_R3bad_alloc@std@@8
rdata$r	ENDS
;	COMDAT ??_R2bad_alloc@std@@8
rdata$r	SEGMENT
??_R2bad_alloc@std@@8 DD FLAT:??_R1A@?0A@EA@bad_alloc@std@@8 ; std::bad_alloc::`RTTI Base Class Array'
	DD	FLAT:??_R1A@?0A@EA@exception@std@@8
rdata$r	ENDS
;	COMDAT ??_R3bad_alloc@std@@8
rdata$r	SEGMENT
??_R3bad_alloc@std@@8 DD 00H				; std::bad_alloc::`RTTI Class Hierarchy Descriptor'
	DD	00H
	DD	02H
	DD	FLAT:??_R2bad_alloc@std@@8
rdata$r	ENDS
;	COMDAT ??_R1A@?0A@EA@bad_alloc@std@@8
rdata$r	SEGMENT
??_R1A@?0A@EA@bad_alloc@std@@8 DD FLAT:??_R0?AVbad_alloc@std@@@8 ; std::bad_alloc::`RTTI Base Class Descriptor at (0,-1,0,64)'
	DD	01H
	DD	00H
	DD	0ffffffffH
	DD	00H
	DD	040H
	DD	FLAT:??_R3bad_alloc@std@@8
rdata$r	ENDS
;	COMDAT ??_R1A@?0A@EA@bad_array_new_length@std@@8
rdata$r	SEGMENT
??_R1A@?0A@EA@bad_array_new_length@std@@8 DD FLAT:??_R0?AVbad_array_new_length@std@@@8 ; std::bad_array_new_length::`RTTI Base Class Descriptor at (0,-1,0,64)'
	DD	02H
	DD	00H
	DD	0ffffffffH
	DD	00H
	DD	040H
	DD	FLAT:??_R3bad_array_new_length@std@@8
rdata$r	ENDS
;	COMDAT ??_R2bad_array_new_length@std@@8
rdata$r	SEGMENT
??_R2bad_array_new_length@std@@8 DD FLAT:??_R1A@?0A@EA@bad_array_new_length@std@@8 ; std::bad_array_new_length::`RTTI Base Class Array'
	DD	FLAT:??_R1A@?0A@EA@bad_alloc@std@@8
	DD	FLAT:??_R1A@?0A@EA@exception@std@@8
rdata$r	ENDS
;	COMDAT ??_R3bad_array_new_length@std@@8
rdata$r	SEGMENT
??_R3bad_array_new_length@std@@8 DD 00H			; std::bad_array_new_length::`RTTI Class Hierarchy Descriptor'
	DD	00H
	DD	03H
	DD	FLAT:??_R2bad_array_new_length@std@@8
rdata$r	ENDS
;	COMDAT ??_R4bad_array_new_length@std@@6B@
rdata$r	SEGMENT
??_R4bad_array_new_length@std@@6B@ DD 00H		; std::bad_array_new_length::`RTTI Complete Object Locator'
	DD	00H
	DD	00H
	DD	FLAT:??_R0?AVbad_array_new_length@std@@@8
	DD	FLAT:??_R3bad_array_new_length@std@@8
rdata$r	ENDS
;	COMDAT ??_R1A@?0A@EA@exception@std@@8
rdata$r	SEGMENT
??_R1A@?0A@EA@exception@std@@8 DD FLAT:??_R0?AVexception@std@@@8 ; std::exception::`RTTI Base Class Descriptor at (0,-1,0,64)'
	DD	00H
	DD	00H
	DD	0ffffffffH
	DD	00H
	DD	040H
	DD	FLAT:??_R3exception@std@@8
rdata$r	ENDS
;	COMDAT ??_R2exception@std@@8
rdata$r	SEGMENT
??_R2exception@std@@8 DD FLAT:??_R1A@?0A@EA@exception@std@@8 ; std::exception::`RTTI Base Class Array'
rdata$r	ENDS
;	COMDAT ??_R3exception@std@@8
rdata$r	SEGMENT
??_R3exception@std@@8 DD 00H				; std::exception::`RTTI Class Hierarchy Descriptor'
	DD	00H
	DD	01H
	DD	FLAT:??_R2exception@std@@8
rdata$r	ENDS
;	COMDAT ??_R4exception@std@@6B@
rdata$r	SEGMENT
??_R4exception@std@@6B@ DD 00H				; std::exception::`RTTI Complete Object Locator'
	DD	00H
	DD	00H
	DD	FLAT:??_R0?AVexception@std@@@8
	DD	FLAT:??_R3exception@std@@8
rdata$r	ENDS
;	COMDAT ??_C@_0BA@FOIKENOD@vector?5too?5long@
CONST	SEGMENT
??_C@_0BA@FOIKENOD@vector?5too?5long@ DB 'vector too long', 00H ; `string'
CONST	ENDS
;	COMDAT ??_C@_0BI@BEIFNGEL@GetItemProp?5range_error@
CONST	SEGMENT
??_C@_0BI@BEIFNGEL@GetItemProp?5range_error@ DB 'GetItemProp range_error', 00H ; `string'
CONST	ENDS
;	COMDAT ??_C@_0BM@HMFGHCP@?$CFs?5min?3?$CFd?0?5max?3?$CFd?0?5index?3?$CFd@
CONST	SEGMENT
??_C@_0BM@HMFGHCP@?$CFs?5min?3?$CFd?0?5max?3?$CFd?0?5index?3?$CFd@ DB '%s'
	DB	' min:%d, max:%d, index:%d', 00H		; `string'
CONST	ENDS
;	COMDAT ??_C@_0BB@GCADKGJO@map?1set?5too?5long@
CONST	SEGMENT
??_C@_0BB@GCADKGJO@map?1set?5too?5long@ DB 'map/set too long', 00H ; `string'
CONST	ENDS
;	COMDAT __CT??_R0?AVbad_alloc@std@@@8??0bad_alloc@std@@QAE@ABV01@@Z12
xdata$x	SEGMENT
__CT??_R0?AVbad_alloc@std@@@8??0bad_alloc@std@@QAE@ABV01@@Z12 DD 010H
	DD	FLAT:??_R0?AVbad_alloc@std@@@8
	DD	00H
	DD	0ffffffffH
	ORG $+4
	DD	0cH
	DD	FLAT:??0bad_alloc@std@@QAE@ABV01@@Z
xdata$x	ENDS
;	COMDAT ??_R0?AVbad_alloc@std@@@8
data$r	SEGMENT
??_R0?AVbad_alloc@std@@@8 DD FLAT:??_7type_info@@6B@	; std::bad_alloc `RTTI Type Descriptor'
	DD	00H
	DB	'.?AVbad_alloc@std@@', 00H
data$r	ENDS
;	COMDAT __CT??_R0?AVbad_array_new_length@std@@@8??0bad_array_new_length@std@@QAE@ABV01@@Z12
xdata$x	SEGMENT
__CT??_R0?AVbad_array_new_length@std@@@8??0bad_array_new_length@std@@QAE@ABV01@@Z12 DD 00H
	DD	FLAT:??_R0?AVbad_array_new_length@std@@@8
	DD	00H
	DD	0ffffffffH
	ORG $+4
	DD	0cH
	DD	FLAT:??0bad_array_new_length@std@@QAE@ABV01@@Z
xdata$x	ENDS
;	COMDAT ??_R0?AVbad_array_new_length@std@@@8
data$r	SEGMENT
??_R0?AVbad_array_new_length@std@@@8 DD FLAT:??_7type_info@@6B@ ; std::bad_array_new_length `RTTI Type Descriptor'
	DD	00H
	DB	'.?AVbad_array_new_length@std@@', 00H
data$r	ENDS
;	COMDAT __CTA3?AVbad_array_new_length@std@@
xdata$x	SEGMENT
__CTA3?AVbad_array_new_length@std@@ DD 03H
	DD	FLAT:__CT??_R0?AVbad_array_new_length@std@@@8??0bad_array_new_length@std@@QAE@ABV01@@Z12
	DD	FLAT:__CT??_R0?AVbad_alloc@std@@@8??0bad_alloc@std@@QAE@ABV01@@Z12
	DD	FLAT:__CT??_R0?AVexception@std@@@8??0exception@std@@QAE@ABV01@@Z12
xdata$x	ENDS
;	COMDAT __TI3?AVbad_array_new_length@std@@
xdata$x	SEGMENT
__TI3?AVbad_array_new_length@std@@ DD 00H
	DD	FLAT:??1bad_array_new_length@std@@UAE@XZ
	DD	00H
	DD	FLAT:__CTA3?AVbad_array_new_length@std@@
xdata$x	ENDS
;	COMDAT __CT??_R0?AVexception@std@@@8??0exception@std@@QAE@ABV01@@Z12
xdata$x	SEGMENT
__CT??_R0?AVexception@std@@@8??0exception@std@@QAE@ABV01@@Z12 DD 00H
	DD	FLAT:??_R0?AVexception@std@@@8
	DD	00H
	DD	0ffffffffH
	ORG $+4
	DD	0cH
	DD	FLAT:??0exception@std@@QAE@ABV01@@Z
xdata$x	ENDS
;	COMDAT ??_R0?AVexception@std@@@8
data$r	SEGMENT
??_R0?AVexception@std@@@8 DD FLAT:??_7type_info@@6B@	; std::exception `RTTI Type Descriptor'
	DD	00H
	DB	'.?AVexception@std@@', 00H
data$r	ENDS
;	COMDAT ??_C@_0BF@KINCDENJ@bad?5array?5new?5length@
CONST	SEGMENT
??_C@_0BF@KINCDENJ@bad?5array?5new?5length@ DB 'bad array new length', 00H ; `string'
CONST	ENDS
;	COMDAT ??_7bad_array_new_length@std@@6B@
CONST	SEGMENT
??_7bad_array_new_length@std@@6B@ DD FLAT:??_R4bad_array_new_length@std@@6B@ ; std::bad_array_new_length::`vftable'
	DD	FLAT:??_Ebad_array_new_length@std@@UAEPAXI@Z
	DD	FLAT:?what@exception@std@@UBEPBDXZ
CONST	ENDS
;	COMDAT ??_7bad_alloc@std@@6B@
CONST	SEGMENT
??_7bad_alloc@std@@6B@ DD FLAT:??_R4bad_alloc@std@@6B@	; std::bad_alloc::`vftable'
	DD	FLAT:??_Ebad_alloc@std@@UAEPAXI@Z
	DD	FLAT:?what@exception@std@@UBEPBDXZ
CONST	ENDS
;	COMDAT ??_C@_0BC@EOODALEL@Unknown?5exception@
CONST	SEGMENT
??_C@_0BC@EOODALEL@Unknown?5exception@ DB 'Unknown exception', 00H ; `string'
CONST	ENDS
;	COMDAT ??_7exception@std@@6B@
CONST	SEGMENT
??_7exception@std@@6B@ DD FLAT:??_R4exception@std@@6B@	; std::exception::`vftable'
	DD	FLAT:??_Eexception@std@@UAEPAXI@Z
	DD	FLAT:?what@exception@std@@UBEPBDXZ
CONST	ENDS
;	COMDAT xdata$x
xdata$x	SEGMENT
__unwindtable$??$?0ABQAU_EVENT_GENERIC@@@?$_List_node_emplace_op2@V?$allocator@U?$_List_node@PAU_EVENT_GENERIC@@PAX@std@@@std@@@std@@QAE@AAV?$allocator@U?$_List_node@PAU_EVENT_GENERIC@@PAX@std@@@1@ABQAU_EVENT_GENERIC@@@Z DD 0ffffffffH
	DD	FLAT:__unwindfunclet$??$?0ABQAU_EVENT_GENERIC@@@?$_List_node_emplace_op2@V?$allocator@U?$_List_node@PAU_EVENT_GENERIC@@PAX@std@@@std@@@std@@QAE@AAV?$allocator@U?$_List_node@PAU_EVENT_GENERIC@@PAX@std@@@1@ABQAU_EVENT_GENERIC@@@Z$0
__ehfuncinfo$??$?0ABQAU_EVENT_GENERIC@@@?$_List_node_emplace_op2@V?$allocator@U?$_List_node@PAU_EVENT_GENERIC@@PAX@std@@@std@@@std@@QAE@AAV?$allocator@U?$_List_node@PAU_EVENT_GENERIC@@PAX@std@@@1@ABQAU_EVENT_GENERIC@@@Z DD 019930522H
	DD	01H
	DD	FLAT:__unwindtable$??$?0ABQAU_EVENT_GENERIC@@@?$_List_node_emplace_op2@V?$allocator@U?$_List_node@PAU_EVENT_GENERIC@@PAX@std@@@std@@@std@@QAE@AAV?$allocator@U?$_List_node@PAU_EVENT_GENERIC@@PAX@std@@@1@ABQAU_EVENT_GENERIC@@@Z
	DD	2 DUP(00H)
	DD	2 DUP(00H)
	DD	00H
	DD	01H
xdata$x	ENDS
;	COMDAT xdata$x
xdata$x	SEGMENT
__unwindtable$??$?0ABQAVCEventItem@@@?$_List_node_emplace_op2@V?$allocator@U?$_List_node@PAVCEventItem@@PAX@std@@@std@@@std@@QAE@AAV?$allocator@U?$_List_node@PAVCEventItem@@PAX@std@@@1@ABQAVCEventItem@@@Z DD 0ffffffffH
	DD	FLAT:__unwindfunclet$??$?0ABQAVCEventItem@@@?$_List_node_emplace_op2@V?$allocator@U?$_List_node@PAVCEventItem@@PAX@std@@@std@@@std@@QAE@AAV?$allocator@U?$_List_node@PAVCEventItem@@PAX@std@@@1@ABQAVCEventItem@@@Z$0
__ehfuncinfo$??$?0ABQAVCEventItem@@@?$_List_node_emplace_op2@V?$allocator@U?$_List_node@PAVCEventItem@@PAX@std@@@std@@@std@@QAE@AAV?$allocator@U?$_List_node@PAVCEventItem@@PAX@std@@@1@ABQAVCEventItem@@@Z DD 019930522H
	DD	01H
	DD	FLAT:__unwindtable$??$?0ABQAVCEventItem@@@?$_List_node_emplace_op2@V?$allocator@U?$_List_node@PAVCEventItem@@PAX@std@@@std@@@std@@QAE@AAV?$allocator@U?$_List_node@PAVCEventItem@@PAX@std@@@1@ABQAVCEventItem@@@Z
	DD	2 DUP(00H)
	DD	2 DUP(00H)
	DD	00H
	DD	01H
xdata$x	ENDS
;	COMDAT xdata$x
xdata$x	SEGMENT
__unwindtable$??$?0U?$pair@$$CBHPAVCSpawn@@@std@@@?$_Tree_temp_node@V?$allocator@U?$_Tree_node@U?$pair@$$CBHPAVCSpawn@@@std@@PAX@std@@@std@@@std@@QAE@AAV?$allocator@U?$_Tree_node@U?$pair@$$CBHPAVCSpawn@@@std@@PAX@std@@@1@PAU?$_Tree_node@U?$pair@$$CBHPAVCSpawn@@@std@@PAX@1@$$QAU?$pair@$$CBHPAVCSpawn@@@1@@Z DD 0ffffffffH
	DD	FLAT:__unwindfunclet$??$?0U?$pair@$$CBHPAVCSpawn@@@std@@@?$_Tree_temp_node@V?$allocator@U?$_Tree_node@U?$pair@$$CBHPAVCSpawn@@@std@@PAX@std@@@std@@@std@@QAE@AAV?$allocator@U?$_Tree_node@U?$pair@$$CBHPAVCSpawn@@@std@@PAX@std@@@1@PAU?$_Tree_node@U?$pair@$$CBHPAVCSpawn@@@std@@PAX@1@$$QAU?$pair@$$CBHPAVCSpawn@@@1@@Z$1
__ehfuncinfo$??$?0U?$pair@$$CBHPAVCSpawn@@@std@@@?$_Tree_temp_node@V?$allocator@U?$_Tree_node@U?$pair@$$CBHPAVCSpawn@@@std@@PAX@std@@@std@@@std@@QAE@AAV?$allocator@U?$_Tree_node@U?$pair@$$CBHPAVCSpawn@@@std@@PAX@std@@@1@PAU?$_Tree_node@U?$pair@$$CBHPAVCSpawn@@@std@@PAX@1@$$QAU?$pair@$$CBHPAVCSpawn@@@1@@Z DD 019930522H
	DD	01H
	DD	FLAT:__unwindtable$??$?0U?$pair@$$CBHPAVCSpawn@@@std@@@?$_Tree_temp_node@V?$allocator@U?$_Tree_node@U?$pair@$$CBHPAVCSpawn@@@std@@PAX@std@@@std@@@std@@QAE@AAV?$allocator@U?$_Tree_node@U?$pair@$$CBHPAVCSpawn@@@std@@PAX@std@@@1@PAU?$_Tree_node@U?$pair@$$CBHPAVCSpawn@@@std@@PAX@1@$$QAU?$pair@$$CBHPAVCSpawn@@@1@@Z
	DD	2 DUP(00H)
	DD	2 DUP(00H)
	DD	00H
	DD	01H
xdata$x	ENDS
;	COMDAT xdata$x
xdata$x	SEGMENT
__unwindtable$??0?$_Tree_temp_node_alloc@V?$allocator@U?$_Tree_node@U?$pair@$$CBHPAVCSpawn@@@std@@PAX@std@@@std@@@std@@QAE@AAV?$allocator@U?$_Tree_node@U?$pair@$$CBHPAVCSpawn@@@std@@PAX@std@@@1@@Z DD 0ffffffffH
	DD	FLAT:__unwindfunclet$??0?$_Tree_temp_node_alloc@V?$allocator@U?$_Tree_node@U?$pair@$$CBHPAVCSpawn@@@std@@PAX@std@@@std@@@std@@QAE@AAV?$allocator@U?$_Tree_node@U?$pair@$$CBHPAVCSpawn@@@std@@PAX@std@@@1@@Z$0
__ehfuncinfo$??0?$_Tree_temp_node_alloc@V?$allocator@U?$_Tree_node@U?$pair@$$CBHPAVCSpawn@@@std@@PAX@std@@@std@@@std@@QAE@AAV?$allocator@U?$_Tree_node@U?$pair@$$CBHPAVCSpawn@@@std@@PAX@std@@@1@@Z DD 019930522H
	DD	01H
	DD	FLAT:__unwindtable$??0?$_Tree_temp_node_alloc@V?$allocator@U?$_Tree_node@U?$pair@$$CBHPAVCSpawn@@@std@@PAX@std@@@std@@@std@@QAE@AAV?$allocator@U?$_Tree_node@U?$pair@$$CBHPAVCSpawn@@@std@@PAX@std@@@1@@Z
	DD	2 DUP(00H)
	DD	2 DUP(00H)
	DD	00H
	DD	01H
xdata$x	ENDS
;	COMDAT xdata$x
xdata$x	SEGMENT
__unwindtable$??$?0U?$pair@$$CBHPAV?$list@PAVCEventItem@@V?$allocator@PAVCEventItem@@@std@@@std@@@std@@@?$_Tree_temp_node@V?$allocator@U?$_Tree_node@U?$pair@$$CBHPAV?$list@PAVCEventItem@@V?$allocator@PAVCEventItem@@@std@@@std@@@std@@PAX@std@@@std@@@std@@QAE@AAV?$allocator@U?$_Tree_node@U?$pair@$$CBHPAV?$list@PAVCEventItem@@V?$allocator@PAVCEventItem@@@std@@@std@@@std@@PAX@std@@@1@PAU?$_Tree_node@U?$pair@$$CBHPAV?$list@PAVCEventItem@@V?$allocator@PAVCEventItem@@@std@@@std@@@std@@PAX@1@$$QAU?$pair@$$CBHPAV?$list@PAVCEventItem@@V?$allocator@PAVCEventItem@@@std@@@std@@@1@@Z DD 0ffffffffH
	DD	FLAT:__unwindfunclet$??$?0U?$pair@$$CBHPAV?$list@PAVCEventItem@@V?$allocator@PAVCEventItem@@@std@@@std@@@std@@@?$_Tree_temp_node@V?$allocator@U?$_Tree_node@U?$pair@$$CBHPAV?$list@PAVCEventItem@@V?$allocator@PAVCEventItem@@@std@@@std@@@std@@PAX@std@@@std@@@std@@QAE@AAV?$allocator@U?$_Tree_node@U?$pair@$$CBHPAV?$list@PAVCEventItem@@V?$allocator@PAVCEventItem@@@std@@@std@@@std@@PAX@std@@@1@PAU?$_Tree_node@U?$pair@$$CBHPAV?$list@PAVCEventItem@@V?$allocator@PAVCEventItem@@@std@@@std@@@std@@PAX@1@$$QAU?$pair@$$CBHPAV?$list@PAVCEventItem@@V?$allocator@PAVCEventItem@@@std@@@std@@@1@@Z$1
__ehfuncinfo$??$?0U?$pair@$$CBHPAV?$list@PAVCEventItem@@V?$allocator@PAVCEventItem@@@std@@@std@@@std@@@?$_Tree_temp_node@V?$allocator@U?$_Tree_node@U?$pair@$$CBHPAV?$list@PAVCEventItem@@V?$allocator@PAVCEventItem@@@std@@@std@@@std@@PAX@std@@@std@@@std@@QAE@AAV?$allocator@U?$_Tree_node@U?$pair@$$CBHPAV?$list@PAVCEventItem@@V?$allocator@PAVCEventItem@@@std@@@std@@@std@@PAX@std@@@1@PAU?$_Tree_node@U?$pair@$$CBHPAV?$list@PAVCEventItem@@V?$allocator@PAVCEventItem@@@std@@@std@@@std@@PAX@1@$$QAU?$pair@$$CBHPAV?$list@PAVCEventItem@@V?$allocator@PAVCEventItem@@@std@@@std@@@1@@Z DD 019930522H
	DD	01H
	DD	FLAT:__unwindtable$??$?0U?$pair@$$CBHPAV?$list@PAVCEventItem@@V?$allocator@PAVCEventItem@@@std@@@std@@@std@@@?$_Tree_temp_node@V?$allocator@U?$_Tree_node@U?$pair@$$CBHPAV?$list@PAVCEventItem@@V?$allocator@PAVCEventItem@@@std@@@std@@@std@@PAX@std@@@std@@@std@@QAE@AAV?$allocator@U?$_Tree_node@U?$pair@$$CBHPAV?$list@PAVCEventItem@@V?$allocator@PAVCEventItem@@@std@@@std@@@std@@PAX@std@@@1@PAU?$_Tree_node@U?$pair@$$CBHPAV?$list@PAVCEventItem@@V?$allocator@PAVCEventItem@@@std@@@std@@@std@@PAX@1@$$QAU?$pair@$$CBHPAV?$list@PAVCEventItem@@V?$allocator@PAVCEventItem@@@std@@@std@@@1@@Z
	DD	2 DUP(00H)
	DD	2 DUP(00H)
	DD	00H
	DD	01H
xdata$x	ENDS
;	COMDAT xdata$x
xdata$x	SEGMENT
__unwindtable$??0?$_Tree_temp_node_alloc@V?$allocator@U?$_Tree_node@U?$pair@$$CBHPAV?$list@PAVCEventItem@@V?$allocator@PAVCEventItem@@@std@@@std@@@std@@PAX@std@@@std@@@std@@QAE@AAV?$allocator@U?$_Tree_node@U?$pair@$$CBHPAV?$list@PAVCEventItem@@V?$allocator@PAVCEventItem@@@std@@@std@@@std@@PAX@std@@@1@@Z DD 0ffffffffH
	DD	FLAT:__unwindfunclet$??0?$_Tree_temp_node_alloc@V?$allocator@U?$_Tree_node@U?$pair@$$CBHPAV?$list@PAVCEventItem@@V?$allocator@PAVCEventItem@@@std@@@std@@@std@@PAX@std@@@std@@@std@@QAE@AAV?$allocator@U?$_Tree_node@U?$pair@$$CBHPAV?$list@PAVCEventItem@@V?$allocator@PAVCEventItem@@@std@@@std@@@std@@PAX@std@@@1@@Z$0
__ehfuncinfo$??0?$_Tree_temp_node_alloc@V?$allocator@U?$_Tree_node@U?$pair@$$CBHPAV?$list@PAVCEventItem@@V?$allocator@PAVCEventItem@@@std@@@std@@@std@@PAX@std@@@std@@@std@@QAE@AAV?$allocator@U?$_Tree_node@U?$pair@$$CBHPAV?$list@PAVCEventItem@@V?$allocator@PAVCEventItem@@@std@@@std@@@std@@PAX@std@@@1@@Z DD 019930522H
	DD	01H
	DD	FLAT:__unwindtable$??0?$_Tree_temp_node_alloc@V?$allocator@U?$_Tree_node@U?$pair@$$CBHPAV?$list@PAVCEventItem@@V?$allocator@PAVCEventItem@@@std@@@std@@@std@@PAX@std@@@std@@@std@@QAE@AAV?$allocator@U?$_Tree_node@U?$pair@$$CBHPAV?$list@PAVCEventItem@@V?$allocator@PAVCEventItem@@@std@@@std@@@std@@PAX@std@@@1@@Z
	DD	2 DUP(00H)
	DD	2 DUP(00H)
	DD	00H
	DD	01H
xdata$x	ENDS
;	COMDAT xdata$x
xdata$x	SEGMENT
__unwindtable$??$_Emplace@ABQAU_EVENT_GENERIC@@@?$list@PAU_EVENT_GENERIC@@V?$allocator@PAU_EVENT_GENERIC@@@std@@@std@@QAEPAU?$_List_node@PAU_EVENT_GENERIC@@PAX@1@QAU21@ABQAU_EVENT_GENERIC@@@Z DD 0ffffffffH
	DD	FLAT:__unwindfunclet$??$_Emplace@ABQAU_EVENT_GENERIC@@@?$list@PAU_EVENT_GENERIC@@V?$allocator@PAU_EVENT_GENERIC@@@std@@@std@@QAEPAU?$_List_node@PAU_EVENT_GENERIC@@PAX@1@QAU21@ABQAU_EVENT_GENERIC@@@Z$1
__ehfuncinfo$??$_Emplace@ABQAU_EVENT_GENERIC@@@?$list@PAU_EVENT_GENERIC@@V?$allocator@PAU_EVENT_GENERIC@@@std@@@std@@QAEPAU?$_List_node@PAU_EVENT_GENERIC@@PAX@1@QAU21@ABQAU_EVENT_GENERIC@@@Z DD 019930522H
	DD	01H
	DD	FLAT:__unwindtable$??$_Emplace@ABQAU_EVENT_GENERIC@@@?$list@PAU_EVENT_GENERIC@@V?$allocator@PAU_EVENT_GENERIC@@@std@@@std@@QAEPAU?$_List_node@PAU_EVENT_GENERIC@@PAX@1@QAU21@ABQAU_EVENT_GENERIC@@@Z
	DD	2 DUP(00H)
	DD	2 DUP(00H)
	DD	00H
	DD	01H
xdata$x	ENDS
;	COMDAT xdata$x
xdata$x	SEGMENT
__unwindtable$??$_Emplace@ABQAVCEventItem@@@?$list@PAVCEventItem@@V?$allocator@PAVCEventItem@@@std@@@std@@QAEPAU?$_List_node@PAVCEventItem@@PAX@1@QAU21@ABQAVCEventItem@@@Z DD 0ffffffffH
	DD	FLAT:__unwindfunclet$??$_Emplace@ABQAVCEventItem@@@?$list@PAVCEventItem@@V?$allocator@PAVCEventItem@@@std@@@std@@QAEPAU?$_List_node@PAVCEventItem@@PAX@1@QAU21@ABQAVCEventItem@@@Z$1
__ehfuncinfo$??$_Emplace@ABQAVCEventItem@@@?$list@PAVCEventItem@@V?$allocator@PAVCEventItem@@@std@@@std@@QAEPAU?$_List_node@PAVCEventItem@@PAX@1@QAU21@ABQAVCEventItem@@@Z DD 019930522H
	DD	01H
	DD	FLAT:__unwindtable$??$_Emplace@ABQAVCEventItem@@@?$list@PAVCEventItem@@V?$allocator@PAVCEventItem@@@std@@@std@@QAEPAU?$_List_node@PAVCEventItem@@PAX@1@QAU21@ABQAVCEventItem@@@Z
	DD	2 DUP(00H)
	DD	2 DUP(00H)
	DD	00H
	DD	01H
xdata$x	ENDS
;	COMDAT xdata$x
xdata$x	SEGMENT
__unwindtable$??$_Emplace@U?$pair@$$CBHPAVCSpawn@@@std@@@?$_Tree@V?$_Tmap_traits@HPAVCSpawn@@U?$less@H@std@@V?$allocator@U?$pair@$$CBHPAVCSpawn@@@std@@@3@$0A@@std@@@std@@IAE?AU?$pair@PAU?$_Tree_node@U?$pair@$$CBHPAVCSpawn@@@std@@PAX@std@@_N@1@$$QAU?$pair@$$CBHPAVCSpawn@@@1@@Z DD 0ffffffffH
	DD	FLAT:__unwindfunclet$??$_Emplace@U?$pair@$$CBHPAVCSpawn@@@std@@@?$_Tree@V?$_Tmap_traits@HPAVCSpawn@@U?$less@H@std@@V?$allocator@U?$pair@$$CBHPAVCSpawn@@@std@@@3@$0A@@std@@@std@@IAE?AU?$pair@PAU?$_Tree_node@U?$pair@$$CBHPAVCSpawn@@@std@@PAX@std@@_N@1@$$QAU?$pair@$$CBHPAVCSpawn@@@1@@Z$2
__ehfuncinfo$??$_Emplace@U?$pair@$$CBHPAVCSpawn@@@std@@@?$_Tree@V?$_Tmap_traits@HPAVCSpawn@@U?$less@H@std@@V?$allocator@U?$pair@$$CBHPAVCSpawn@@@std@@@3@$0A@@std@@@std@@IAE?AU?$pair@PAU?$_Tree_node@U?$pair@$$CBHPAVCSpawn@@@std@@PAX@std@@_N@1@$$QAU?$pair@$$CBHPAVCSpawn@@@1@@Z DD 019930522H
	DD	01H
	DD	FLAT:__unwindtable$??$_Emplace@U?$pair@$$CBHPAVCSpawn@@@std@@@?$_Tree@V?$_Tmap_traits@HPAVCSpawn@@U?$less@H@std@@V?$allocator@U?$pair@$$CBHPAVCSpawn@@@std@@@3@$0A@@std@@@std@@IAE?AU?$pair@PAU?$_Tree_node@U?$pair@$$CBHPAVCSpawn@@@std@@PAX@std@@_N@1@$$QAU?$pair@$$CBHPAVCSpawn@@@1@@Z
	DD	2 DUP(00H)
	DD	2 DUP(00H)
	DD	00H
	DD	01H
xdata$x	ENDS
;	COMDAT xdata$x
xdata$x	SEGMENT
__unwindtable$??$_Emplace@U?$pair@$$CBHPAV?$list@PAVCEventItem@@V?$allocator@PAVCEventItem@@@std@@@std@@@std@@@?$_Tree@V?$_Tmap_traits@HPAV?$list@PAVCEventItem@@V?$allocator@PAVCEventItem@@@std@@@std@@U?$less@H@2@V?$allocator@U?$pair@$$CBHPAV?$list@PAVCEventItem@@V?$allocator@PAVCEventItem@@@std@@@std@@@std@@@2@$0A@@std@@@std@@IAE?AU?$pair@PAU?$_Tree_node@U?$pair@$$CBHPAV?$list@PAVCEventItem@@V?$allocator@PAVCEventItem@@@std@@@std@@@std@@PAX@std@@_N@1@$$QAU?$pair@$$CBHPAV?$list@PAVCEventItem@@V?$allocator@PAVCEventItem@@@std@@@std@@@1@@Z DD 0ffffffffH
	DD	FLAT:__unwindfunclet$??$_Emplace@U?$pair@$$CBHPAV?$list@PAVCEventItem@@V?$allocator@PAVCEventItem@@@std@@@std@@@std@@@?$_Tree@V?$_Tmap_traits@HPAV?$list@PAVCEventItem@@V?$allocator@PAVCEventItem@@@std@@@std@@U?$less@H@2@V?$allocator@U?$pair@$$CBHPAV?$list@PAVCEventItem@@V?$allocator@PAVCEventItem@@@std@@@std@@@std@@@2@$0A@@std@@@std@@IAE?AU?$pair@PAU?$_Tree_node@U?$pair@$$CBHPAV?$list@PAVCEventItem@@V?$allocator@PAVCEventItem@@@std@@@std@@@std@@PAX@std@@_N@1@$$QAU?$pair@$$CBHPAV?$list@PAVCEventItem@@V?$allocator@PAVCEventItem@@@std@@@std@@@1@@Z$2
__ehfuncinfo$??$_Emplace@U?$pair@$$CBHPAV?$list@PAVCEventItem@@V?$allocator@PAVCEventItem@@@std@@@std@@@std@@@?$_Tree@V?$_Tmap_traits@HPAV?$list@PAVCEventItem@@V?$allocator@PAVCEventItem@@@std@@@std@@U?$less@H@2@V?$allocator@U?$pair@$$CBHPAV?$list@PAVCEventItem@@V?$allocator@PAVCEventItem@@@std@@@std@@@std@@@2@$0A@@std@@@std@@IAE?AU?$pair@PAU?$_Tree_node@U?$pair@$$CBHPAV?$list@PAVCEventItem@@V?$allocator@PAVCEventItem@@@std@@@std@@@std@@PAX@std@@_N@1@$$QAU?$pair@$$CBHPAV?$list@PAVCEventItem@@V?$allocator@PAVCEventItem@@@std@@@std@@@1@@Z DD 019930522H
	DD	01H
	DD	FLAT:__unwindtable$??$_Emplace@U?$pair@$$CBHPAV?$list@PAVCEventItem@@V?$allocator@PAVCEventItem@@@std@@@std@@@std@@@?$_Tree@V?$_Tmap_traits@HPAV?$list@PAVCEventItem@@V?$allocator@PAVCEventItem@@@std@@@std@@U?$less@H@2@V?$allocator@U?$pair@$$CBHPAV?$list@PAVCEventItem@@V?$allocator@PAVCEventItem@@@std@@@std@@@std@@@2@$0A@@std@@@std@@IAE?AU?$pair@PAU?$_Tree_node@U?$pair@$$CBHPAV?$list@PAVCEventItem@@V?$allocator@PAVCEventItem@@@std@@@std@@@std@@PAX@std@@_N@1@$$QAU?$pair@$$CBHPAV?$list@PAVCEventItem@@V?$allocator@PAVCEventItem@@@std@@@std@@@1@@Z
	DD	2 DUP(00H)
	DD	2 DUP(00H)
	DD	00H
	DD	01H
xdata$x	ENDS
;	COMDAT xdata$x
xdata$x	SEGMENT
__unwindtable$??$insert@$0A@$0A@@?$_Tree@V?$_Tmap_traits@HPAVCSpawn@@U?$less@H@std@@V?$allocator@U?$pair@$$CBHPAVCSpawn@@@std@@@3@$0A@@std@@@std@@QAE?AU?$pair@V?$_Tree_iterator@V?$_Tree_val@U?$_Tree_simple_types@U?$pair@$$CBHPAVCSpawn@@@std@@@std@@@std@@@std@@_N@1@$$QAU?$pair@$$CBHPAVCSpawn@@@1@@Z DD 0ffffffffH
	DD	FLAT:__unwindfunclet$??$insert@$0A@$0A@@?$_Tree@V?$_Tmap_traits@HPAVCSpawn@@U?$less@H@std@@V?$allocator@U?$pair@$$CBHPAVCSpawn@@@std@@@3@$0A@@std@@@std@@QAE?AU?$pair@V?$_Tree_iterator@V?$_Tree_val@U?$_Tree_simple_types@U?$pair@$$CBHPAVCSpawn@@@std@@@std@@@std@@@std@@_N@1@$$QAU?$pair@$$CBHPAVCSpawn@@@1@@Z$2
__ehfuncinfo$??$insert@$0A@$0A@@?$_Tree@V?$_Tmap_traits@HPAVCSpawn@@U?$less@H@std@@V?$allocator@U?$pair@$$CBHPAVCSpawn@@@std@@@3@$0A@@std@@@std@@QAE?AU?$pair@V?$_Tree_iterator@V?$_Tree_val@U?$_Tree_simple_types@U?$pair@$$CBHPAVCSpawn@@@std@@@std@@@std@@@std@@_N@1@$$QAU?$pair@$$CBHPAVCSpawn@@@1@@Z DD 019930522H
	DD	01H
	DD	FLAT:__unwindtable$??$insert@$0A@$0A@@?$_Tree@V?$_Tmap_traits@HPAVCSpawn@@U?$less@H@std@@V?$allocator@U?$pair@$$CBHPAVCSpawn@@@std@@@3@$0A@@std@@@std@@QAE?AU?$pair@V?$_Tree_iterator@V?$_Tree_val@U?$_Tree_simple_types@U?$pair@$$CBHPAVCSpawn@@@std@@@std@@@std@@@std@@_N@1@$$QAU?$pair@$$CBHPAVCSpawn@@@1@@Z
	DD	2 DUP(00H)
	DD	2 DUP(00H)
	DD	00H
	DD	01H
xdata$x	ENDS
;	COMDAT xdata$x
xdata$x	SEGMENT
__unwindtable$??$insert@$0A@$0A@@?$_Tree@V?$_Tmap_traits@HPAV?$list@PAVCEventItem@@V?$allocator@PAVCEventItem@@@std@@@std@@U?$less@H@2@V?$allocator@U?$pair@$$CBHPAV?$list@PAVCEventItem@@V?$allocator@PAVCEventItem@@@std@@@std@@@std@@@2@$0A@@std@@@std@@QAE?AU?$pair@V?$_Tree_iterator@V?$_Tree_val@U?$_Tree_simple_types@U?$pair@$$CBHPAV?$list@PAVCEventItem@@V?$allocator@PAVCEventItem@@@std@@@std@@@std@@@std@@@std@@@std@@_N@1@$$QAU?$pair@$$CBHPAV?$list@PAVCEventItem@@V?$allocator@PAVCEventItem@@@std@@@std@@@1@@Z DD 0ffffffffH
	DD	FLAT:__unwindfunclet$??$insert@$0A@$0A@@?$_Tree@V?$_Tmap_traits@HPAV?$list@PAVCEventItem@@V?$allocator@PAVCEventItem@@@std@@@std@@U?$less@H@2@V?$allocator@U?$pair@$$CBHPAV?$list@PAVCEventItem@@V?$allocator@PAVCEventItem@@@std@@@std@@@std@@@2@$0A@@std@@@std@@QAE?AU?$pair@V?$_Tree_iterator@V?$_Tree_val@U?$_Tree_simple_types@U?$pair@$$CBHPAV?$list@PAVCEventItem@@V?$allocator@PAVCEventItem@@@std@@@std@@@std@@@std@@@std@@@std@@_N@1@$$QAU?$pair@$$CBHPAV?$list@PAVCEventItem@@V?$allocator@PAVCEventItem@@@std@@@std@@@1@@Z$2
__ehfuncinfo$??$insert@$0A@$0A@@?$_Tree@V?$_Tmap_traits@HPAV?$list@PAVCEventItem@@V?$allocator@PAVCEventItem@@@std@@@std@@U?$less@H@2@V?$allocator@U?$pair@$$CBHPAV?$list@PAVCEventItem@@V?$allocator@PAVCEventItem@@@std@@@std@@@std@@@2@$0A@@std@@@std@@QAE?AU?$pair@V?$_Tree_iterator@V?$_Tree_val@U?$_Tree_simple_types@U?$pair@$$CBHPAV?$list@PAVCEventItem@@V?$allocator@PAVCEventItem@@@std@@@std@@@std@@@std@@@std@@@std@@_N@1@$$QAU?$pair@$$CBHPAV?$list@PAVCEventItem@@V?$allocator@PAVCEventItem@@@std@@@std@@@1@@Z DD 019930522H
	DD	01H
	DD	FLAT:__unwindtable$??$insert@$0A@$0A@@?$_Tree@V?$_Tmap_traits@HPAV?$list@PAVCEventItem@@V?$allocator@PAVCEventItem@@@std@@@std@@U?$less@H@2@V?$allocator@U?$pair@$$CBHPAV?$list@PAVCEventItem@@V?$allocator@PAVCEventItem@@@std@@@std@@@std@@@2@$0A@@std@@@std@@QAE?AU?$pair@V?$_Tree_iterator@V?$_Tree_val@U?$_Tree_simple_types@U?$pair@$$CBHPAV?$list@PAVCEventItem@@V?$allocator@PAVCEventItem@@@std@@@std@@@std@@@std@@@std@@@std@@_N@1@$$QAU?$pair@$$CBHPAV?$list@PAVCEventItem@@V?$allocator@PAVCEventItem@@@std@@@std@@@1@@Z
	DD	2 DUP(00H)
	DD	2 DUP(00H)
	DD	00H
	DD	01H
xdata$x	ENDS
;	COMDAT xdata$x
xdata$x	SEGMENT
__unwindtable$?push_back@?$list@PAVCEventItem@@V?$allocator@PAVCEventItem@@@std@@@std@@QAEXABQAVCEventItem@@@Z DD 0ffffffffH
	DD	FLAT:__unwindfunclet$?push_back@?$list@PAVCEventItem@@V?$allocator@PAVCEventItem@@@std@@@std@@QAEXABQAVCEventItem@@@Z$1
__ehfuncinfo$?push_back@?$list@PAVCEventItem@@V?$allocator@PAVCEventItem@@@std@@@std@@QAEXABQAVCEventItem@@@Z DD 019930522H
	DD	01H
	DD	FLAT:__unwindtable$?push_back@?$list@PAVCEventItem@@V?$allocator@PAVCEventItem@@@std@@@std@@QAEXABQAVCEventItem@@@Z
	DD	2 DUP(00H)
	DD	2 DUP(00H)
	DD	00H
	DD	01H
xdata$x	ENDS
;	COMDAT xdata$x
xdata$x	SEGMENT
__unwindtable$?Serialize@CEventGeneric@@QAEXAAVCAr@@@Z DD 0ffffffffH
	DD	FLAT:__unwindfunclet$?Serialize@CEventGeneric@@QAEXAAVCAr@@@Z$12
	DD	0ffffffffH
	DD	FLAT:__unwindfunclet$?Serialize@CEventGeneric@@QAEXAAVCAr@@@Z$1
	DD	0ffffffffH
	DD	FLAT:__unwindfunclet$?Serialize@CEventGeneric@@QAEXAAVCAr@@@Z$8
	DD	0ffffffffH
	DD	FLAT:__unwindfunclet$?Serialize@CEventGeneric@@QAEXAAVCAr@@@Z$4
__ehfuncinfo$?Serialize@CEventGeneric@@QAEXAAVCAr@@@Z DD 019930522H
	DD	04H
	DD	FLAT:__unwindtable$?Serialize@CEventGeneric@@QAEXAAVCAr@@@Z
	DD	2 DUP(00H)
	DD	2 DUP(00H)
	DD	00H
	DD	01H
xdata$x	ENDS
;	COMDAT xdata$x
xdata$x	SEGMENT
__unwindtable$?GetInstance@CEventGeneric@@SAPAV1@XZ DD 0ffffffffH
	DD	FLAT:__unwindfunclet$?GetInstance@CEventGeneric@@SAPAV1@XZ$0
__ehfuncinfo$?GetInstance@CEventGeneric@@SAPAV1@XZ DD 019930522H
	DD	01H
	DD	FLAT:__unwindtable$?GetInstance@CEventGeneric@@SAPAV1@XZ
	DD	2 DUP(00H)
	DD	2 DUP(00H)
	DD	00H
	DD	01H
xdata$x	ENDS
;	COMDAT xdata$x
xdata$x	SEGMENT
__unwindtable$?Spawn@CEventGeneric@@QAEXXZ DD 0ffffffffH
	DD	FLAT:__unwindfunclet$?Spawn@CEventGeneric@@QAEXXZ$0
__ehfuncinfo$?Spawn@CEventGeneric@@QAEXXZ DD 019930522H
	DD	01H
	DD	FLAT:__unwindtable$?Spawn@CEventGeneric@@QAEXXZ
	DD	2 DUP(00H)
	DD	2 DUP(00H)
	DD	00H
	DD	01H
xdata$x	ENDS
;	COMDAT xdata$x
xdata$x	SEGMENT
__unwindtable$?AddSpawn@CEventGeneric@@QAEXHKKHMK@Z DD 0ffffffffH
	DD	FLAT:__unwindfunclet$?AddSpawn@CEventGeneric@@QAEXHKKHMK@Z$3
__ehfuncinfo$?AddSpawn@CEventGeneric@@QAEXHKKHMK@Z DD 019930522H
	DD	01H
	DD	FLAT:__unwindtable$?AddSpawn@CEventGeneric@@QAEXHKKHMK@Z
	DD	2 DUP(00H)
	DD	2 DUP(00H)
	DD	00H
	DD	01H
xdata$x	ENDS
;	COMDAT xdata$x
xdata$x	SEGMENT
__unwindtable$?AddItem@CEventGeneric@@QAEHHKHH@Z DD 0ffffffffH
	DD	FLAT:__unwindfunclet$?AddItem@CEventGeneric@@QAEHHKHH@Z$0
__ehfuncinfo$?AddItem@CEventGeneric@@QAEHHKHH@Z DD 019930522H
	DD	01H
	DD	FLAT:__unwindtable$?AddItem@CEventGeneric@@QAEHHKHH@Z
	DD	2 DUP(00H)
	DD	2 DUP(00H)
	DD	00H
	DD	01H
xdata$x	ENDS
;	COMDAT xdata$x
xdata$x	SEGMENT
__unwindtable$?LoadScript@CEventGeneric@@QAEHPBD@Z DD 0ffffffffH
	DD	FLAT:__unwindfunclet$?LoadScript@CEventGeneric@@QAEHPBD@Z$0
	DD	00H
	DD	FLAT:__unwindfunclet$?LoadScript@CEventGeneric@@QAEHPBD@Z$7
	DD	00H
	DD	FLAT:__unwindfunclet$?LoadScript@CEventGeneric@@QAEHPBD@Z$4
	DD	00H
	DD	FLAT:__unwindfunclet$?LoadScript@CEventGeneric@@QAEHPBD@Z$2
__ehfuncinfo$?LoadScript@CEventGeneric@@QAEHPBD@Z DD 019930522H
	DD	04H
	DD	FLAT:__unwindtable$?LoadScript@CEventGeneric@@QAEHPBD@Z
	DD	2 DUP(00H)
	DD	2 DUP(00H)
	DD	00H
	DD	01H
xdata$x	ENDS
;	COMDAT xdata$x
xdata$x	SEGMENT
__unwindtable$??0CEventGeneric@@QAE@XZ DD 0ffffffffH
	DD	FLAT:__unwindfunclet$??0CEventGeneric@@QAE@XZ$0
	DD	00H
	DD	FLAT:__unwindfunclet$??0CEventGeneric@@QAE@XZ$1
	DD	01H
	DD	FLAT:__unwindfunclet$??0CEventGeneric@@QAE@XZ$2
__ehfuncinfo$??0CEventGeneric@@QAE@XZ DD 019930522H
	DD	03H
	DD	FLAT:__unwindtable$??0CEventGeneric@@QAE@XZ
	DD	2 DUP(00H)
	DD	2 DUP(00H)
	DD	00H
	DD	01H
xdata$x	ENDS
;	COMDAT xdata$x
xdata$x	SEGMENT
__unwindtable$?push_back@?$list@PAU_EVENT_GENERIC@@V?$allocator@PAU_EVENT_GENERIC@@@std@@@std@@QAEXABQAU_EVENT_GENERIC@@@Z DD 0ffffffffH
	DD	FLAT:__unwindfunclet$?push_back@?$list@PAU_EVENT_GENERIC@@V?$allocator@PAU_EVENT_GENERIC@@@std@@@std@@QAEXABQAU_EVENT_GENERIC@@@Z$1
__ehfuncinfo$?push_back@?$list@PAU_EVENT_GENERIC@@V?$allocator@PAU_EVENT_GENERIC@@@std@@@std@@QAEXABQAU_EVENT_GENERIC@@@Z DD 019930522H
	DD	01H
	DD	FLAT:__unwindtable$?push_back@?$list@PAU_EVENT_GENERIC@@V?$allocator@PAU_EVENT_GENERIC@@@std@@@std@@QAEXABQAU_EVENT_GENERIC@@@Z
	DD	2 DUP(00H)
	DD	2 DUP(00H)
	DD	00H
	DD	01H
xdata$x	ENDS
;	COMDAT xdata$x
xdata$x	SEGMENT
__unwindtable$?LoadScript@CXMasEvent@@QAEHPBD@Z DD 0ffffffffH
	DD	FLAT:__unwindfunclet$?LoadScript@CXMasEvent@@QAEHPBD@Z$0
__ehfuncinfo$?LoadScript@CXMasEvent@@QAEHPBD@Z DD 019930522H
	DD	01H
	DD	FLAT:__unwindtable$?LoadScript@CXMasEvent@@QAEHPBD@Z
	DD	2 DUP(00H)
	DD	2 DUP(00H)
	DD	00H
	DD	01H
xdata$x	ENDS
;	COMDAT xdata$x
xdata$x	SEGMENT
__unwindtable$??0?$CStringT@DV?$StrTraitMFC@DV?$ChTraitsCRT@D@ATL@@@@@ATL@@QAE@PBD@Z DD 0ffffffffH
	DD	FLAT:__unwindfunclet$??0?$CStringT@DV?$StrTraitMFC@DV?$ChTraitsCRT@D@ATL@@@@@ATL@@QAE@PBD@Z$0
__ehfuncinfo$??0?$CStringT@DV?$StrTraitMFC@DV?$ChTraitsCRT@D@ATL@@@@@ATL@@QAE@PBD@Z DD 019930522H
	DD	01H
	DD	FLAT:__unwindtable$??0?$CStringT@DV?$StrTraitMFC@DV?$ChTraitsCRT@D@ATL@@@@@ATL@@QAE@PBD@Z
	DD	2 DUP(00H)
	DD	2 DUP(00H)
	DD	00H
	DD	01H
xdata$x	ENDS
; Function compile flags: /Ogtp
; File C:\Program Files\Microsoft Visual Studio\2022\Professional\VC\Tools\MSVC\14.44.35207\include\xutility
;	COMDAT ??$_Copy_memmove_tail@PAU_REGION_GENERIC@@@std@@YAPAU_REGION_GENERIC@@QBDQAU1@II@Z
_TEXT	SEGMENT
__First_ch$ = 8						; size = 4
__Dest$ = 12						; size = 4
__Byte_count$ = 16					; size = 4
__Object_count$ = 20					; size = 4
??$_Copy_memmove_tail@PAU_REGION_GENERIC@@@std@@YAPAU_REGION_GENERIC@@QBDQAU1@II@Z PROC ; std::_Copy_memmove_tail<_REGION_GENERIC *>, COMDAT

; 4747 :     const char* const _First_ch, const _OutCtgIt _Dest, const size_t _Byte_count, const size_t _Object_count) {

  00000	55		 push	 ebp
  00001	8b ec		 mov	 ebp, esp
  00003	56		 push	 esi

; 4748 :     _STL_INTERNAL_CHECK(_Byte_count == _Object_count * sizeof(*_Dest));
; 4749 :     const auto _Dest_ptr = _STD _To_address(_Dest);
; 4750 :     const auto _Dest_ch  = const_cast<char*>(reinterpret_cast<const volatile char*>(_Dest_ptr));
; 4751 :     _CSTD memmove(_Dest_ch, _First_ch, _Byte_count);

  00004	8b 75 0c	 mov	 esi, DWORD PTR __Dest$[ebp]
  00007	57		 push	 edi
  00008	8b 7d 10	 mov	 edi, DWORD PTR __Byte_count$[ebp]
  0000b	57		 push	 edi
  0000c	ff 75 08	 push	 DWORD PTR __First_ch$[ebp]
  0000f	56		 push	 esi
  00010	e8 00 00 00 00	 call	 _memmove
  00015	83 c4 0c	 add	 esp, 12			; 0000000cH

; 4752 :     if constexpr (is_pointer_v<_OutCtgIt>) {
; 4753 :         (void) _Object_count;
; 4754 :         // CodeQL [SM02986] This cast is correct: we're bypassing pointer arithmetic for performance.
; 4755 :         return reinterpret_cast<_OutCtgIt>(_Dest_ch + _Byte_count);

  00018	8d 04 3e	 lea	 eax, DWORD PTR [esi+edi]
  0001b	5f		 pop	 edi
  0001c	5e		 pop	 esi

; 4756 :     } else {
; 4757 :         return _Dest + static_cast<_Iter_diff_t<_OutCtgIt>>(_Object_count);
; 4758 :     }
; 4759 : }

  0001d	5d		 pop	 ebp
  0001e	c3		 ret	 0
??$_Copy_memmove_tail@PAU_REGION_GENERIC@@@std@@YAPAU_REGION_GENERIC@@QBDQAU1@II@Z ENDP ; std::_Copy_memmove_tail<_REGION_GENERIC *>
_TEXT	ENDS
; Function compile flags: /Ogtp
; File C:\Program Files\Microsoft Visual Studio\2022\Professional\VC\Tools\MSVC\14.44.35207\include\xutility
;	COMDAT ??$_Copy_memmove@PAU_REGION_GENERIC@@PAU1@@std@@YAPAU_REGION_GENERIC@@PAU1@00@Z
_TEXT	SEGMENT
__First$ = 8						; size = 4
__Last$ = 12						; size = 4
__Dest$ = 16						; size = 4
??$_Copy_memmove@PAU_REGION_GENERIC@@PAU1@@std@@YAPAU_REGION_GENERIC@@PAU1@00@Z PROC ; std::_Copy_memmove<_REGION_GENERIC *,_REGION_GENERIC *>, COMDAT

; 4762 : _OutCtgIt _Copy_memmove(_CtgIt _First, _CtgIt _Last, _OutCtgIt _Dest) {

  00000	55		 push	 ebp
  00001	8b ec		 mov	 ebp, esp

; 4763 :     _STL_INTERNAL_CHECK(_First <= _Last);
; 4764 :     const auto _First_ptr    = _STD _To_address(_First);
; 4765 :     const auto _Last_ptr     = _STD _To_address(_Last);
; 4766 :     const auto _Object_count = static_cast<size_t>(_Last_ptr - _First_ptr);

  00003	8b 4d 0c	 mov	 ecx, DWORD PTR __Last$[ebp]
  00006	b8 ab aa aa 2a	 mov	 eax, 715827883		; 2aaaaaabH
  0000b	2b 4d 08	 sub	 ecx, DWORD PTR __First$[ebp]
  0000e	f7 e9		 imul	 ecx
  00010	d1 fa		 sar	 edx, 1
  00012	8b c2		 mov	 eax, edx
  00014	c1 e8 1f	 shr	 eax, 31			; 0000001fH
  00017	03 c2		 add	 eax, edx

; 4767 :     const auto _First_ch     = const_cast<const char*>(reinterpret_cast<const volatile char*>(_First_ptr));
; 4768 :     const auto _Last_ch      = const_cast<const char*>(reinterpret_cast<const volatile char*>(_Last_ptr));
; 4769 :     const auto _Byte_count   = static_cast<size_t>(_Last_ch - _First_ch);
; 4770 :     return _STD _Copy_memmove_tail(_First_ch, _STD move(_Dest), _Byte_count, _Object_count);

  00019	50		 push	 eax
  0001a	51		 push	 ecx
  0001b	ff 75 10	 push	 DWORD PTR __Dest$[ebp]
  0001e	ff 75 08	 push	 DWORD PTR __First$[ebp]
  00021	e8 00 00 00 00	 call	 ??$_Copy_memmove_tail@PAU_REGION_GENERIC@@@std@@YAPAU_REGION_GENERIC@@QBDQAU1@II@Z ; std::_Copy_memmove_tail<_REGION_GENERIC *>
  00026	83 c4 10	 add	 esp, 16			; 00000010H

; 4771 : }

  00029	5d		 pop	 ebp
  0002a	c3		 ret	 0
??$_Copy_memmove@PAU_REGION_GENERIC@@PAU1@@std@@YAPAU_REGION_GENERIC@@PAU1@00@Z ENDP ; std::_Copy_memmove<_REGION_GENERIC *,_REGION_GENERIC *>
_TEXT	ENDS
; Function compile flags: /Ogtp
; File C:\Program Files\Microsoft Visual Studio\2022\Professional\VC\Tools\MSVC\14.44.35207\include\algorithm
; File C:\Program Files\Microsoft Visual Studio\2022\Professional\VC\Tools\MSVC\14.44.35207\include\utility
; File C:\Program Files\Microsoft Visual Studio\2022\Professional\VC\Tools\MSVC\14.44.35207\include\algorithm
; File C:\Program Files\Microsoft Visual Studio\2022\Professional\VC\Tools\MSVC\14.44.35207\include\utility
; File C:\Program Files\Microsoft Visual Studio\2022\Professional\VC\Tools\MSVC\14.44.35207\include\algorithm
; File C:\Program Files\Microsoft Visual Studio\2022\Professional\VC\Tools\MSVC\14.44.35207\include\utility
; File C:\Program Files\Microsoft Visual Studio\2022\Professional\VC\Tools\MSVC\14.44.35207\include\algorithm
; File C:\Program Files\Microsoft Visual Studio\2022\Professional\VC\Tools\MSVC\14.44.35207\include\utility
; File C:\Program Files\Microsoft Visual Studio\2022\Professional\VC\Tools\MSVC\14.44.35207\include\algorithm
; File C:\Program Files\Microsoft Visual Studio\2022\Professional\VC\Tools\MSVC\14.44.35207\include\utility
; File C:\Program Files\Microsoft Visual Studio\2022\Professional\VC\Tools\MSVC\14.44.35207\include\algorithm
; File C:\Program Files\Microsoft Visual Studio\2022\Professional\VC\Tools\MSVC\14.44.35207\include\utility
; File C:\Program Files\Microsoft Visual Studio\2022\Professional\VC\Tools\MSVC\14.44.35207\include\algorithm
;	COMDAT ??$_Med3_unchecked@PAU_REGION_GENERIC@@P6A_NU1@0@Z@std@@YAXPAU_REGION_GENERIC@@00P6A_NU1@1@Z@Z
_TEXT	SEGMENT
__First$ = 8						; size = 4
__Mid$ = 12						; size = 4
__Last$ = 16						; size = 4
__Pred$ = 20						; size = 4
??$_Med3_unchecked@PAU_REGION_GENERIC@@P6A_NU1@0@Z@std@@YAXPAU_REGION_GENERIC@@00P6A_NU1@1@Z@Z PROC ; std::_Med3_unchecked<_REGION_GENERIC *,bool (__cdecl*)(_REGION_GENERIC,_REGION_GENERIC)>, COMDAT

; 8266 : _CONSTEXPR20 void _Med3_unchecked(_RanIt _First, _RanIt _Mid, _RanIt _Last, _Pr _Pred) {

  00000	55		 push	 ebp
  00001	8b ec		 mov	 ebp, esp
  00003	53		 push	 ebx
  00004	56		 push	 esi

; 8267 :     // sort median of three elements to middle
; 8268 :     if (_DEBUG_LT_PRED(_Pred, *_Mid, *_First)) {

  00005	8b 75 0c	 mov	 esi, DWORD PTR __Mid$[ebp]
  00008	57		 push	 edi
  00009	8b 7d 08	 mov	 edi, DWORD PTR __First$[ebp]
  0000c	83 ec 0c	 sub	 esp, 12			; 0000000cH
  0000f	8b cc		 mov	 ecx, esp
  00011	83 ec 0c	 sub	 esp, 12			; 0000000cH
  00014	f3 0f 7e 07	 movq	 xmm0, QWORD PTR [edi]
  00018	8b 47 08	 mov	 eax, DWORD PTR [edi+8]
  0001b	66 0f d6 01	 movq	 QWORD PTR [ecx], xmm0
  0001f	f3 0f 7e 06	 movq	 xmm0, QWORD PTR [esi]
  00023	89 41 08	 mov	 DWORD PTR [ecx+8], eax
  00026	8b cc		 mov	 ecx, esp
  00028	8b 46 08	 mov	 eax, DWORD PTR [esi+8]
  0002b	66 0f d6 01	 movq	 QWORD PTR [ecx], xmm0
  0002f	89 41 08	 mov	 DWORD PTR [ecx+8], eax
  00032	ff 55 14	 call	 DWORD PTR __Pred$[ebp]
  00035	83 c4 18	 add	 esp, 24			; 00000018H
  00038	84 c0		 test	 al, al
  0003a	74 1c		 je	 SHORT $LN7@Med3_unche
; File C:\Program Files\Microsoft Visual Studio\2022\Professional\VC\Tools\MSVC\14.44.35207\include\utility

; 140  :     _Left    = _STD move(_Right);

  0003c	f3 0f 7e 07	 movq	 xmm0, QWORD PTR [edi]
  00040	f3 0f 7e 0e	 movq	 xmm1, QWORD PTR [esi]
  00044	8b 4e 08	 mov	 ecx, DWORD PTR [esi+8]
  00047	66 0f d6 06	 movq	 QWORD PTR [esi], xmm0
  0004b	8b 47 08	 mov	 eax, DWORD PTR [edi+8]
  0004e	89 46 08	 mov	 DWORD PTR [esi+8], eax

; 141  :     _Right   = _STD move(_Tmp);

  00051	66 0f d6 0f	 movq	 QWORD PTR [edi], xmm1
  00055	89 4f 08	 mov	 DWORD PTR [edi+8], ecx
$LN7@Med3_unche:
; File C:\Program Files\Microsoft Visual Studio\2022\Professional\VC\Tools\MSVC\14.44.35207\include\algorithm

; 8272 :     if (_DEBUG_LT_PRED(_Pred, *_Last, *_Mid)) { // swap middle and last, then test first again

  00058	f3 0f 7e 06	 movq	 xmm0, QWORD PTR [esi]
  0005c	83 ec 0c	 sub	 esp, 12			; 0000000cH
  0005f	8b 46 08	 mov	 eax, DWORD PTR [esi+8]
  00062	8b cc		 mov	 ecx, esp
  00064	8b 5d 10	 mov	 ebx, DWORD PTR __Last$[ebp]
  00067	83 ec 0c	 sub	 esp, 12			; 0000000cH
  0006a	66 0f d6 01	 movq	 QWORD PTR [ecx], xmm0
  0006e	f3 0f 7e 03	 movq	 xmm0, QWORD PTR [ebx]
  00072	89 41 08	 mov	 DWORD PTR [ecx+8], eax
  00075	8b cc		 mov	 ecx, esp
  00077	8b 43 08	 mov	 eax, DWORD PTR [ebx+8]
  0007a	66 0f d6 01	 movq	 QWORD PTR [ecx], xmm0
  0007e	89 41 08	 mov	 DWORD PTR [ecx+8], eax
  00081	ff 55 14	 call	 DWORD PTR __Pred$[ebp]
  00084	83 c4 18	 add	 esp, 24			; 00000018H
  00087	84 c0		 test	 al, al
  00089	74 61		 je	 SHORT $LN13@Med3_unche
; File C:\Program Files\Microsoft Visual Studio\2022\Professional\VC\Tools\MSVC\14.44.35207\include\utility

; 140  :     _Left    = _STD move(_Right);

  0008b	f3 0f 7e 06	 movq	 xmm0, QWORD PTR [esi]
; File C:\Program Files\Microsoft Visual Studio\2022\Professional\VC\Tools\MSVC\14.44.35207\include\algorithm

; 8275 :         if (_DEBUG_LT_PRED(_Pred, *_Mid, *_First)) {

  0008f	83 ec 0c	 sub	 esp, 12			; 0000000cH
; File C:\Program Files\Microsoft Visual Studio\2022\Professional\VC\Tools\MSVC\14.44.35207\include\utility

; 139  :     _Ty _Tmp = _STD move(_Left);

  00092	f3 0f 7e 0b	 movq	 xmm1, QWORD PTR [ebx]
; File C:\Program Files\Microsoft Visual Studio\2022\Professional\VC\Tools\MSVC\14.44.35207\include\algorithm

; 8275 :         if (_DEBUG_LT_PRED(_Pred, *_Mid, *_First)) {

  00096	8b cc		 mov	 ecx, esp
; File C:\Program Files\Microsoft Visual Studio\2022\Professional\VC\Tools\MSVC\14.44.35207\include\utility

; 139  :     _Ty _Tmp = _STD move(_Left);

  00098	8b 53 08	 mov	 edx, DWORD PTR [ebx+8]
; File C:\Program Files\Microsoft Visual Studio\2022\Professional\VC\Tools\MSVC\14.44.35207\include\algorithm

; 8275 :         if (_DEBUG_LT_PRED(_Pred, *_Mid, *_First)) {

  0009b	83 ec 0c	 sub	 esp, 12			; 0000000cH
; File C:\Program Files\Microsoft Visual Studio\2022\Professional\VC\Tools\MSVC\14.44.35207\include\utility

; 140  :     _Left    = _STD move(_Right);

  0009e	66 0f d6 03	 movq	 QWORD PTR [ebx], xmm0
  000a2	8b 46 08	 mov	 eax, DWORD PTR [esi+8]
  000a5	89 43 08	 mov	 DWORD PTR [ebx+8], eax

; 141  :     _Right   = _STD move(_Tmp);

  000a8	66 0f d6 0e	 movq	 QWORD PTR [esi], xmm1
  000ac	89 56 08	 mov	 DWORD PTR [esi+8], edx
; File C:\Program Files\Microsoft Visual Studio\2022\Professional\VC\Tools\MSVC\14.44.35207\include\algorithm

; 8275 :         if (_DEBUG_LT_PRED(_Pred, *_Mid, *_First)) {

  000af	f3 0f 7e 07	 movq	 xmm0, QWORD PTR [edi]
  000b3	8b 47 08	 mov	 eax, DWORD PTR [edi+8]
  000b6	66 0f d6 01	 movq	 QWORD PTR [ecx], xmm0
  000ba	89 41 08	 mov	 DWORD PTR [ecx+8], eax
  000bd	8b c4		 mov	 eax, esp
  000bf	66 0f d6 08	 movq	 QWORD PTR [eax], xmm1
  000c3	89 50 08	 mov	 DWORD PTR [eax+8], edx
  000c6	ff 55 14	 call	 DWORD PTR __Pred$[ebp]
  000c9	83 c4 18	 add	 esp, 24			; 00000018H
  000cc	84 c0		 test	 al, al
  000ce	74 1c		 je	 SHORT $LN13@Med3_unche
; File C:\Program Files\Microsoft Visual Studio\2022\Professional\VC\Tools\MSVC\14.44.35207\include\utility

; 140  :     _Left    = _STD move(_Right);

  000d0	f3 0f 7e 07	 movq	 xmm0, QWORD PTR [edi]
  000d4	f3 0f 7e 0e	 movq	 xmm1, QWORD PTR [esi]
  000d8	8b 4e 08	 mov	 ecx, DWORD PTR [esi+8]
  000db	66 0f d6 06	 movq	 QWORD PTR [esi], xmm0
  000df	8b 47 08	 mov	 eax, DWORD PTR [edi+8]
  000e2	89 46 08	 mov	 DWORD PTR [esi+8], eax

; 141  :     _Right   = _STD move(_Tmp);

  000e5	66 0f d6 0f	 movq	 QWORD PTR [edi], xmm1
  000e9	89 4f 08	 mov	 DWORD PTR [edi+8], ecx
$LN13@Med3_unche:
; File C:\Program Files\Microsoft Visual Studio\2022\Professional\VC\Tools\MSVC\14.44.35207\include\algorithm

; 8279 : }

  000ec	5f		 pop	 edi
  000ed	5e		 pop	 esi
  000ee	5b		 pop	 ebx
  000ef	5d		 pop	 ebp
  000f0	c3		 ret	 0
??$_Med3_unchecked@PAU_REGION_GENERIC@@P6A_NU1@0@Z@std@@YAXPAU_REGION_GENERIC@@00P6A_NU1@1@Z@Z ENDP ; std::_Med3_unchecked<_REGION_GENERIC *,bool (__cdecl*)(_REGION_GENERIC,_REGION_GENERIC)>
_TEXT	ENDS
; Function compile flags: /Ogtp
; File C:\Program Files\Microsoft Visual Studio\2022\Professional\VC\Tools\MSVC\14.44.35207\include\xutility
;	COMDAT ??$_Copy_backward_memmove@PAU_REGION_GENERIC@@PAU1@@std@@YAPAU_REGION_GENERIC@@PAU1@00@Z
_TEXT	SEGMENT
__First$ = 8						; size = 4
__Last$ = 12						; size = 4
__Dest$ = 16						; size = 4
??$_Copy_backward_memmove@PAU_REGION_GENERIC@@PAU1@@std@@YAPAU_REGION_GENERIC@@PAU1@00@Z PROC ; std::_Copy_backward_memmove<_REGION_GENERIC *,_REGION_GENERIC *>, COMDAT

; 5083 : _CtgIt2 _Copy_backward_memmove(_CtgIt1 _First, _CtgIt1 _Last, _CtgIt2 _Dest) {

  00000	55		 push	 ebp
  00001	8b ec		 mov	 ebp, esp

; 5084 :     // implement copy_backward-like function as memmove
; 5085 :     const auto _First_ptr = _STD _To_address(_First);
; 5086 :     const auto _Last_ptr  = _STD _To_address(_Last);
; 5087 :     const auto _Dest_ptr  = _STD _To_address(_Dest);
; 5088 :     const auto _First_ch  = const_cast<const char*>(reinterpret_cast<const volatile char*>(_First_ptr));
; 5089 :     const auto _Last_ch   = const_cast<const char*>(reinterpret_cast<const volatile char*>(_Last_ptr));
; 5090 :     const auto _Dest_ch   = const_cast<char*>(reinterpret_cast<const volatile char*>(_Dest_ptr));
; 5091 :     const auto _Count     = static_cast<size_t>(_Last_ch - _First_ch);

  00003	8b 45 08	 mov	 eax, DWORD PTR __First$[ebp]
  00006	8b 4d 0c	 mov	 ecx, DWORD PTR __Last$[ebp]
  00009	2b c8		 sub	 ecx, eax

; 5092 :     const auto _Result    = _CSTD memmove(_Dest_ch - _Count, _First_ch, _Count);

  0000b	51		 push	 ecx
  0000c	50		 push	 eax
  0000d	8b 45 10	 mov	 eax, DWORD PTR __Dest$[ebp]
  00010	2b c1		 sub	 eax, ecx
  00012	50		 push	 eax
  00013	e8 00 00 00 00	 call	 _memmove
  00018	83 c4 0c	 add	 esp, 12			; 0000000cH

; 5093 :     if constexpr (is_pointer_v<_CtgIt2>) {
; 5094 :         return static_cast<_CtgIt2>(_Result);
; 5095 :     } else {
; 5096 :         return _Dest - static_cast<_Iter_diff_t<_CtgIt2>>(_Last_ptr - _First_ptr);
; 5097 :     }
; 5098 : }

  0001b	5d		 pop	 ebp
  0001c	c3		 ret	 0
??$_Copy_backward_memmove@PAU_REGION_GENERIC@@PAU1@@std@@YAPAU_REGION_GENERIC@@PAU1@00@Z ENDP ; std::_Copy_backward_memmove<_REGION_GENERIC *,_REGION_GENERIC *>
_TEXT	ENDS
; Function compile flags: /Ogtp
; File C:\Program Files\Microsoft Visual Studio\2022\Professional\VC\Tools\MSVC\14.44.35207\include\__msvc_heap_algorithms.hpp
;	COMDAT ??$_Pop_heap_hole_by_index@PAU_REGION_GENERIC@@U1@P6A_NU1@0@Z@std@@YAXPAU_REGION_GENERIC@@HH$$QAU1@P6A_NU1@2@Z@Z
_TEXT	SEGMENT
tv236 = -8						; size = 4
__Max_sequence_non_leaf$1$ = -4				; size = 4
__First$ = 8						; size = 4
__Hole$ = 12						; size = 4
__Top$1$ = 12						; size = 4
__Bottom$ = 16						; size = 4
__Val$ = 20						; size = 4
__Pred$ = 24						; size = 4
??$_Pop_heap_hole_by_index@PAU_REGION_GENERIC@@U1@P6A_NU1@0@Z@std@@YAXPAU_REGION_GENERIC@@HH$$QAU1@P6A_NU1@2@Z@Z PROC ; std::_Pop_heap_hole_by_index<_REGION_GENERIC *,_REGION_GENERIC,bool (__cdecl*)(_REGION_GENERIC,_REGION_GENERIC)>, COMDAT

; 58   :     _RanIt _First, _Iter_diff_t<_RanIt> _Hole, _Iter_diff_t<_RanIt> _Bottom, _Ty&& _Val, _Pr _Pred) {

  00000	55		 push	 ebp
  00001	8b ec		 mov	 ebp, esp
  00003	83 ec 08	 sub	 esp, 8

; 59   :     // percolate _Hole to _Bottom, then push _Val
; 60   :     _STL_INTERNAL_CHECK(_Bottom > 0);
; 61   : 
; 62   :     using _Diff      = _Iter_diff_t<_RanIt>;
; 63   :     const _Diff _Top = _Hole;
; 64   :     _Diff _Idx       = _Hole;
; 65   : 
; 66   :     // Check whether _Idx can have a child before calculating that child's index, since
; 67   :     // calculating the child's index can trigger integer overflows
; 68   :     const _Diff _Max_sequence_non_leaf = (_Bottom - 1) >> 1; // shift for codegen

  00006	8b 4d 10	 mov	 ecx, DWORD PTR __Bottom$[ebp]
  00009	53		 push	 ebx

; 69   :     while (_Idx < _Max_sequence_non_leaf) { // move _Hole down to larger child

  0000a	8b 5d 08	 mov	 ebx, DWORD PTR __First$[ebp]
  0000d	56		 push	 esi
  0000e	8b 75 0c	 mov	 esi, DWORD PTR __Hole$[ebp]
  00011	8d 41 ff	 lea	 eax, DWORD PTR [ecx-1]
  00014	89 45 f8	 mov	 DWORD PTR tv236[ebp], eax
  00017	d1 f8		 sar	 eax, 1
  00019	89 75 0c	 mov	 DWORD PTR __Top$1$[ebp], esi
  0001c	89 45 fc	 mov	 DWORD PTR __Max_sequence_non_leaf$1$[ebp], eax
  0001f	57		 push	 edi
  00020	8b fe		 mov	 edi, esi
  00022	3b f0		 cmp	 esi, eax
  00024	7d 6c		 jge	 SHORT $LN3@Pop_heap_h
$LL2@Pop_heap_h:

; 70   :         _Idx = 2 * _Idx + 2;

  00026	03 ff		 add	 edi, edi

; 71   :         if (_DEBUG_LT_PRED(_Pred, *(_First + _Idx), *(_First + (_Idx - 1)))) {

  00028	83 ec 0c	 sub	 esp, 12			; 0000000cH
  0002b	8b cc		 mov	 ecx, esp
  0002d	83 ec 0c	 sub	 esp, 12			; 0000000cH
  00030	8d 47 02	 lea	 eax, DWORD PTR [edi+2]
  00033	8d 04 40	 lea	 eax, DWORD PTR [eax+eax*2]
  00036	f3 0f 7e 44 83
	f4		 movq	 xmm0, QWORD PTR [ebx+eax*4-12]
  0003c	8d 14 83	 lea	 edx, DWORD PTR [ebx+eax*4]
  0003f	8b 42 fc	 mov	 eax, DWORD PTR [edx-4]
  00042	66 0f d6 01	 movq	 QWORD PTR [ecx], xmm0
  00046	f3 0f 7e 02	 movq	 xmm0, QWORD PTR [edx]
  0004a	89 41 08	 mov	 DWORD PTR [ecx+8], eax
  0004d	8b cc		 mov	 ecx, esp
  0004f	8b 42 08	 mov	 eax, DWORD PTR [edx+8]
  00052	66 0f d6 01	 movq	 QWORD PTR [ecx], xmm0
  00056	89 41 08	 mov	 DWORD PTR [ecx+8], eax
  00059	ff 55 18	 call	 DWORD PTR __Pred$[ebp]

; 72   :             --_Idx;
; 73   :         }
; 74   :         *(_First + _Hole) = _STD move(*(_First + _Idx));

  0005c	0f b6 c0	 movzx	 eax, al
  0005f	83 c4 18	 add	 esp, 24			; 00000018H
  00062	f7 d8		 neg	 eax
  00064	1b c0		 sbb	 eax, eax
  00066	83 c0 02	 add	 eax, 2
  00069	03 f8		 add	 edi, eax
  0006b	8d 04 7f	 lea	 eax, DWORD PTR [edi+edi*2]
  0006e	f3 0f 7e 04 83	 movq	 xmm0, QWORD PTR [ebx+eax*4]
  00073	8d 14 83	 lea	 edx, DWORD PTR [ebx+eax*4]
  00076	8d 04 76	 lea	 eax, DWORD PTR [esi+esi*2]

; 75   :         _Hole             = _Idx;

  00079	8b f7		 mov	 esi, edi
  0007b	8d 0c 83	 lea	 ecx, DWORD PTR [ebx+eax*4]
  0007e	66 0f d6 01	 movq	 QWORD PTR [ecx], xmm0
  00082	8b 42 08	 mov	 eax, DWORD PTR [edx+8]
  00085	89 41 08	 mov	 DWORD PTR [ecx+8], eax
  00088	8b 45 fc	 mov	 eax, DWORD PTR __Max_sequence_non_leaf$1$[ebp]
  0008b	3b f8		 cmp	 edi, eax
  0008d	7c 97		 jl	 SHORT $LL2@Pop_heap_h

; 69   :     while (_Idx < _Max_sequence_non_leaf) { // move _Hole down to larger child

  0008f	8b 4d 10	 mov	 ecx, DWORD PTR __Bottom$[ebp]
$LN3@Pop_heap_h:

; 76   :     }
; 77   : 
; 78   :     if (_Idx == _Max_sequence_non_leaf && _Bottom % 2 == 0) { // only child at bottom, move _Hole down to it

  00092	3b f8		 cmp	 edi, eax
  00094	75 24		 jne	 SHORT $LN5@Pop_heap_h
  00096	f6 c1 01	 test	 cl, 1
  00099	75 1f		 jne	 SHORT $LN5@Pop_heap_h

; 79   :         *(_First + _Hole) = _STD move(*(_First + (_Bottom - 1)));

  0009b	8d 04 49	 lea	 eax, DWORD PTR [ecx+ecx*2]
  0009e	f3 0f 7e 44 83
	f4		 movq	 xmm0, QWORD PTR [ebx+eax*4-12]
  000a4	8d 14 83	 lea	 edx, DWORD PTR [ebx+eax*4]
  000a7	8d 04 76	 lea	 eax, DWORD PTR [esi+esi*2]

; 80   :         _Hole             = _Bottom - 1;

  000aa	8b 75 f8	 mov	 esi, DWORD PTR tv236[ebp]
  000ad	8d 0c 83	 lea	 ecx, DWORD PTR [ebx+eax*4]
  000b0	66 0f d6 01	 movq	 QWORD PTR [ecx], xmm0
  000b4	8b 42 fc	 mov	 eax, DWORD PTR [edx-4]
  000b7	89 41 08	 mov	 DWORD PTR [ecx+8], eax
$LN5@Pop_heap_h:

; 27   :         _Top < _Hole && _DEBUG_LT_PRED(_Pred, *(_First + _Idx), _Val); _Idx = (_Hole - 1) >> 1) { // shift for codegen

  000ba	39 75 0c	 cmp	 DWORD PTR __Top$1$[ebp], esi
  000bd	7c 23		 jl	 SHORT $LN10@Pop_heap_h
  000bf	8b 55 08	 mov	 edx, DWORD PTR __First$[ebp]
$LN9@Pop_heap_h:

; 31   :     }
; 32   : 
; 33   :     *(_First + _Hole) = _STD forward<_Ty>(_Val); // drop _Val into final hole

  000c2	8d 04 76	 lea	 eax, DWORD PTR [esi+esi*2]
  000c5	8d 0c 82	 lea	 ecx, DWORD PTR [edx+eax*4]
  000c8	8b 45 14	 mov	 eax, DWORD PTR __Val$[ebp]

; 81   :     }
; 82   : 
; 83   :     _STD _Push_heap_by_index(_First, _Hole, _Top, _STD forward<_Ty>(_Val), _Pred);
; 84   : }

  000cb	5f		 pop	 edi
  000cc	5e		 pop	 esi
  000cd	5b		 pop	 ebx

; 33   :     *(_First + _Hole) = _STD forward<_Ty>(_Val); // drop _Val into final hole

  000ce	f3 0f 7e 00	 movq	 xmm0, QWORD PTR [eax]
  000d2	66 0f d6 01	 movq	 QWORD PTR [ecx], xmm0
  000d6	8b 40 08	 mov	 eax, DWORD PTR [eax+8]
  000d9	89 41 08	 mov	 DWORD PTR [ecx+8], eax

; 81   :     }
; 82   : 
; 83   :     _STD _Push_heap_by_index(_First, _Hole, _Top, _STD forward<_Ty>(_Val), _Pred);
; 84   : }

  000dc	8b e5		 mov	 esp, ebp
  000de	5d		 pop	 ebp
  000df	c3		 ret	 0
$LL23@Pop_heap_h:

; 27   :         _Top < _Hole && _DEBUG_LT_PRED(_Pred, *(_First + _Idx), _Val); _Idx = (_Hole - 1) >> 1) { // shift for codegen

  000e0	8b da		 mov	 ebx, edx
$LN10@Pop_heap_h:

; 26   :     for (_Diff _Idx                                                         = (_Hole - 1) >> 1; // shift for codegen

  000e2	8d 7e ff	 lea	 edi, DWORD PTR [esi-1]

; 27   :         _Top < _Hole && _DEBUG_LT_PRED(_Pred, *(_First + _Idx), _Val); _Idx = (_Hole - 1) >> 1) { // shift for codegen

  000e5	83 ec 0c	 sub	 esp, 12			; 0000000cH
  000e8	d1 ff		 sar	 edi, 1
  000ea	8b cc		 mov	 ecx, esp
  000ec	83 ec 0c	 sub	 esp, 12			; 0000000cH
  000ef	8d 04 7f	 lea	 eax, DWORD PTR [edi+edi*2]
  000f2	8d 1c 83	 lea	 ebx, DWORD PTR [ebx+eax*4]
  000f5	8b 45 14	 mov	 eax, DWORD PTR __Val$[ebp]
  000f8	f3 0f 7e 00	 movq	 xmm0, QWORD PTR [eax]
  000fc	8b 40 08	 mov	 eax, DWORD PTR [eax+8]
  000ff	66 0f d6 01	 movq	 QWORD PTR [ecx], xmm0
  00103	f3 0f 7e 03	 movq	 xmm0, QWORD PTR [ebx]
  00107	89 41 08	 mov	 DWORD PTR [ecx+8], eax
  0010a	8b cc		 mov	 ecx, esp
  0010c	8b 43 08	 mov	 eax, DWORD PTR [ebx+8]
  0010f	66 0f d6 01	 movq	 QWORD PTR [ecx], xmm0
  00113	89 41 08	 mov	 DWORD PTR [ecx+8], eax
  00116	ff 55 18	 call	 DWORD PTR __Pred$[ebp]
  00119	8b 55 08	 mov	 edx, DWORD PTR __First$[ebp]
  0011c	83 c4 18	 add	 esp, 24			; 00000018H
  0011f	84 c0		 test	 al, al
  00121	74 9f		 je	 SHORT $LN9@Pop_heap_h

; 28   :         // move _Hole up to parent
; 29   :         *(_First + _Hole) = _STD move(*(_First + _Idx));

  00123	8d 04 76	 lea	 eax, DWORD PTR [esi+esi*2]
  00126	f3 0f 7e 03	 movq	 xmm0, QWORD PTR [ebx]
  0012a	8d 0c 82	 lea	 ecx, DWORD PTR [edx+eax*4]

; 30   :         _Hole             = _Idx;

  0012d	8b f7		 mov	 esi, edi
  0012f	66 0f d6 01	 movq	 QWORD PTR [ecx], xmm0
  00133	8b 43 08	 mov	 eax, DWORD PTR [ebx+8]
  00136	89 41 08	 mov	 DWORD PTR [ecx+8], eax
  00139	39 7d 0c	 cmp	 DWORD PTR __Top$1$[ebp], edi
  0013c	7c a2		 jl	 SHORT $LL23@Pop_heap_h

; 27   :         _Top < _Hole && _DEBUG_LT_PRED(_Pred, *(_First + _Idx), _Val); _Idx = (_Hole - 1) >> 1) { // shift for codegen

  0013e	eb 82		 jmp	 SHORT $LN9@Pop_heap_h
??$_Pop_heap_hole_by_index@PAU_REGION_GENERIC@@U1@P6A_NU1@0@Z@std@@YAXPAU_REGION_GENERIC@@HH$$QAU1@P6A_NU1@2@Z@Z ENDP ; std::_Pop_heap_hole_by_index<_REGION_GENERIC *,_REGION_GENERIC,bool (__cdecl*)(_REGION_GENERIC,_REGION_GENERIC)>
_TEXT	ENDS
; Function compile flags: /Ogtp
; File C:\Program Files\Microsoft Visual Studio\2022\Professional\VC\Tools\MSVC\14.44.35207\include\xmemory
;	COMDAT ??1?$_Alloc_construct_ptr@V?$allocator@U?$_List_node@PAU_EVENT_GENERIC@@PAX@std@@@std@@@std@@QAE@XZ
_TEXT	SEGMENT
??1?$_Alloc_construct_ptr@V?$allocator@U?$_List_node@PAU_EVENT_GENERIC@@PAX@std@@@std@@@std@@QAE@XZ PROC ; std::_Alloc_construct_ptr<std::allocator<std::_List_node<_EVENT_GENERIC *,void *> > >::~_Alloc_construct_ptr<std::allocator<std::_List_node<_EVENT_GENERIC *,void *> > >, COMDAT
; _this$ = ecx

; 1172 :         if (_Ptr) {

  00000	8b 41 04	 mov	 eax, DWORD PTR [ecx+4]
  00003	85 c0		 test	 eax, eax
  00005	74 0b		 je	 SHORT $LN10@Alloc_cons

; 289  :         ::operator delete(_Ptr, _Bytes);

  00007	6a 0c		 push	 12			; 0000000cH
  00009	50		 push	 eax
  0000a	e8 00 00 00 00	 call	 ??3@YAXPAXI@Z		; operator delete
  0000f	83 c4 08	 add	 esp, 8
$LN10@Alloc_cons:

; 1173 :             _Al.deallocate(_Ptr, 1);
; 1174 :         }
; 1175 :     }

  00012	c3		 ret	 0
??1?$_Alloc_construct_ptr@V?$allocator@U?$_List_node@PAU_EVENT_GENERIC@@PAX@std@@@std@@@std@@QAE@XZ ENDP ; std::_Alloc_construct_ptr<std::allocator<std::_List_node<_EVENT_GENERIC *,void *> > >::~_Alloc_construct_ptr<std::allocator<std::_List_node<_EVENT_GENERIC *,void *> > >
_TEXT	ENDS
; Function compile flags: /Ogtp
; File C:\Program Files\Microsoft Visual Studio\2022\Professional\VC\Tools\MSVC\14.44.35207\include\xmemory
;	COMDAT ??1?$_Alloc_construct_ptr@V?$allocator@U?$_List_node@PAVCEventItem@@PAX@std@@@std@@@std@@QAE@XZ
_TEXT	SEGMENT
??1?$_Alloc_construct_ptr@V?$allocator@U?$_List_node@PAVCEventItem@@PAX@std@@@std@@@std@@QAE@XZ PROC ; std::_Alloc_construct_ptr<std::allocator<std::_List_node<CEventItem *,void *> > >::~_Alloc_construct_ptr<std::allocator<std::_List_node<CEventItem *,void *> > >, COMDAT
; _this$ = ecx

; 1172 :         if (_Ptr) {

  00000	8b 41 04	 mov	 eax, DWORD PTR [ecx+4]
  00003	85 c0		 test	 eax, eax
  00005	74 0b		 je	 SHORT $LN10@Alloc_cons

; 289  :         ::operator delete(_Ptr, _Bytes);

  00007	6a 0c		 push	 12			; 0000000cH
  00009	50		 push	 eax
  0000a	e8 00 00 00 00	 call	 ??3@YAXPAXI@Z		; operator delete
  0000f	83 c4 08	 add	 esp, 8
$LN10@Alloc_cons:

; 1173 :             _Al.deallocate(_Ptr, 1);
; 1174 :         }
; 1175 :     }

  00012	c3		 ret	 0
??1?$_Alloc_construct_ptr@V?$allocator@U?$_List_node@PAVCEventItem@@PAX@std@@@std@@@std@@QAE@XZ ENDP ; std::_Alloc_construct_ptr<std::allocator<std::_List_node<CEventItem *,void *> > >::~_Alloc_construct_ptr<std::allocator<std::_List_node<CEventItem *,void *> > >
_TEXT	ENDS
; Function compile flags: /Ogtp
; File C:\Program Files\Microsoft Visual Studio\2022\Professional\VC\Tools\MSVC\14.44.35207\include\vector
; File C:\Program Files\Microsoft Visual Studio\2022\Professional\VC\Tools\MSVC\14.44.35207\include\xmemory
; File C:\Program Files\Microsoft Visual Studio\2022\Professional\VC\Tools\MSVC\14.44.35207\include\vector
; File C:\Program Files\Microsoft Visual Studio\2022\Professional\VC\Tools\MSVC\14.44.35207\include\xmemory
; File C:\Program Files\Microsoft Visual Studio\2022\Professional\VC\Tools\MSVC\14.44.35207\include\vector
; File C:\Program Files\Microsoft Visual Studio\2022\Professional\VC\Tools\MSVC\14.44.35207\include\xmemory
; File C:\Program Files\Microsoft Visual Studio\2022\Professional\VC\Tools\MSVC\14.44.35207\include\vector
; File C:\Program Files\Microsoft Visual Studio\2022\Professional\VC\Tools\MSVC\14.44.35207\include\xmemory
; File C:\Program Files\Microsoft Visual Studio\2022\Professional\VC\Tools\MSVC\14.44.35207\include\vector
; File C:\Program Files\Microsoft Visual Studio\2022\Professional\VC\Tools\MSVC\14.44.35207\include\xmemory
; File C:\Program Files\Microsoft Visual Studio\2022\Professional\VC\Tools\MSVC\14.44.35207\include\vector
; File C:\Program Files\Microsoft Visual Studio\2022\Professional\VC\Tools\MSVC\14.44.35207\include\xmemory
; File C:\Program Files\Microsoft Visual Studio\2022\Professional\VC\Tools\MSVC\14.44.35207\include\vector
; File C:\Program Files\Microsoft Visual Studio\2022\Professional\VC\Tools\MSVC\14.44.35207\include\xmemory
; File C:\Program Files\Microsoft Visual Studio\2022\Professional\VC\Tools\MSVC\14.44.35207\include\vector
; File C:\Program Files\Microsoft Visual Studio\2022\Professional\VC\Tools\MSVC\14.44.35207\include\xmemory
; File C:\Program Files\Microsoft Visual Studio\2022\Professional\VC\Tools\MSVC\14.44.35207\include\vector
; File C:\Program Files\Microsoft Visual Studio\2022\Professional\VC\Tools\MSVC\14.44.35207\include\xmemory
; File C:\Program Files\Microsoft Visual Studio\2022\Professional\VC\Tools\MSVC\14.44.35207\include\vector
;	COMDAT ??$_Emplace_reallocate@ABU_REGION_GENERIC@@@?$vector@U_REGION_GENERIC@@V?$allocator@U_REGION_GENERIC@@@std@@@std@@AAEPAU_REGION_GENERIC@@QAU2@ABU2@@Z
_TEXT	SEGMENT
__Oldsize$1$ = -12					; size = 4
__Whereoff$1$ = -8					; size = 4
tv650 = -8						; size = 4
tv652 = -4						; size = 4
__Whereptr$ = 8						; size = 4
_<_Val_0>$ = 12						; size = 4
??$_Emplace_reallocate@ABU_REGION_GENERIC@@@?$vector@U_REGION_GENERIC@@V?$allocator@U_REGION_GENERIC@@@std@@@std@@AAEPAU_REGION_GENERIC@@QAU2@ABU2@@Z PROC ; std::vector<_REGION_GENERIC,std::allocator<_REGION_GENERIC> >::_Emplace_reallocate<_REGION_GENERIC const &>, COMDAT
; _this$ = ecx

; 875  :     _CONSTEXPR20 pointer _Emplace_reallocate(const pointer _Whereptr, _Valty&&... _Val) {

  00000	55		 push	 ebp
  00001	8b ec		 mov	 ebp, esp
  00003	83 ec 0c	 sub	 esp, 12			; 0000000cH

; 876  :         // reallocate and insert by perfectly forwarding _Val at _Whereptr
; 877  :         _Alty& _Al        = _Getal();
; 878  :         auto& _My_data    = _Mypair._Myval2;
; 879  :         pointer& _Myfirst = _My_data._Myfirst;
; 880  :         pointer& _Mylast  = _My_data._Mylast;
; 881  : 
; 882  :         _STL_INTERNAL_CHECK(_Mylast == _My_data._Myend); // check that we have no unused capacity
; 883  : 
; 884  :         const auto _Whereoff = static_cast<size_type>(_Whereptr - _Myfirst);

  00006	8b 55 08	 mov	 edx, DWORD PTR __Whereptr$[ebp]
  00009	b8 ab aa aa 2a	 mov	 eax, 715827883		; 2aaaaaabH
  0000e	53		 push	 ebx
  0000f	8b d9		 mov	 ebx, ecx
  00011	57		 push	 edi
  00012	8b 3b		 mov	 edi, DWORD PTR [ebx]
  00014	2b d7		 sub	 edx, edi

; 885  :         const auto _Oldsize  = static_cast<size_type>(_Mylast - _Myfirst);

  00016	8b 4b 04	 mov	 ecx, DWORD PTR [ebx+4]
  00019	f7 ea		 imul	 edx
  0001b	2b cf		 sub	 ecx, edi
  0001d	d1 fa		 sar	 edx, 1
  0001f	8b c2		 mov	 eax, edx
  00021	c1 e8 1f	 shr	 eax, 31			; 0000001fH
  00024	03 c2		 add	 eax, edx
  00026	89 45 f8	 mov	 DWORD PTR __Whereoff$1$[ebp], eax
  00029	b8 ab aa aa 2a	 mov	 eax, 715827883		; 2aaaaaabH
  0002e	f7 e9		 imul	 ecx
  00030	d1 fa		 sar	 edx, 1
  00032	8b c2		 mov	 eax, edx
  00034	c1 e8 1f	 shr	 eax, 31			; 0000001fH
  00037	03 c2		 add	 eax, edx
  00039	89 45 f4	 mov	 DWORD PTR __Oldsize$1$[ebp], eax

; 886  : 
; 887  :         if (_Oldsize == max_size()) {

  0003c	3d 55 55 55 15	 cmp	 eax, 357913941		; 15555555H
  00041	0f 84 42 01 00
	00		 je	 $LN119@Emplace_re

; 1924 :         return static_cast<size_type>(_My_data._Myend - _My_data._Myfirst);

  00047	8b 4b 08	 mov	 ecx, DWORD PTR [ebx+8]
  0004a	2b cf		 sub	 ecx, edi
  0004c	56		 push	 esi

; 889  :         }
; 890  : 
; 891  :         const size_type _Newsize = _Oldsize + 1;

  0004d	8d 70 01	 lea	 esi, DWORD PTR [eax+1]

; 1924 :         return static_cast<size_type>(_My_data._Myend - _My_data._Myfirst);

  00050	b8 ab aa aa 2a	 mov	 eax, 715827883		; 2aaaaaabH
  00055	f7 e9		 imul	 ecx

; 2011 :         if (_Oldcapacity > _Max - _Oldcapacity / 2) {

  00057	b8 55 55 55 15	 mov	 eax, 357913941		; 15555555H

; 1924 :         return static_cast<size_type>(_My_data._Myend - _My_data._Myfirst);

  0005c	d1 fa		 sar	 edx, 1
  0005e	8b ca		 mov	 ecx, edx
  00060	c1 e9 1f	 shr	 ecx, 31			; 0000001fH
  00063	03 ca		 add	 ecx, edx

; 2011 :         if (_Oldcapacity > _Max - _Oldcapacity / 2) {

  00065	8b d1		 mov	 edx, ecx
  00067	d1 ea		 shr	 edx, 1
  00069	2b c2		 sub	 eax, edx
  0006b	3b c8		 cmp	 ecx, eax
  0006d	76 14		 jbe	 SHORT $LN8@Emplace_re

; 2012 :             return _Max; // geometric growth would overflow

  0006f	b8 fc ff ff ff	 mov	 eax, -4			; fffffffcH
  00074	c7 45 fc fc ff
	ff ff		 mov	 DWORD PTR tv652[ebp], -4 ; fffffffcH
; File C:\Program Files\Microsoft Visual Studio\2022\Professional\VC\Tools\MSVC\14.44.35207\include\xmemory

; 253  :             return _Allocate_manually_vector_aligned<_Traits>(_Bytes);

  0007b	50		 push	 eax
  0007c	e8 00 00 00 00	 call	 ??$_Allocate_manually_vector_aligned@U_Default_allocate_traits@std@@@std@@YAPAXI@Z ; std::_Allocate_manually_vector_aligned<std::_Default_allocate_traits>
  00081	eb 3e		 jmp	 SHORT $LN117@Emplace_re
$LN8@Emplace_re:
; File C:\Program Files\Microsoft Visual Studio\2022\Professional\VC\Tools\MSVC\14.44.35207\include\vector

; 2015 :         const size_type _Geometric = _Oldcapacity + _Oldcapacity / 2;

  00083	8d 04 0a	 lea	 eax, DWORD PTR [edx+ecx]
; File C:\Program Files\Microsoft Visual Studio\2022\Professional\VC\Tools\MSVC\14.44.35207\include\xmemory

; 117  :         if (_Count > _Max_possible) {

  00086	8b ce		 mov	 ecx, esi
  00088	3b c6		 cmp	 eax, esi
  0008a	0f 43 c8	 cmovae	 ecx, eax
  0008d	81 f9 55 55 55
	15		 cmp	 ecx, 357913941		; 15555555H
  00093	0f 87 f5 00 00
	00		 ja	 $LN120@Emplace_re

; 119  :         }
; 120  :     }
; 121  : 
; 122  :     return _Count * _Ty_size;

  00099	8d 34 49	 lea	 esi, DWORD PTR [ecx+ecx*2]
  0009c	c1 e6 02	 shl	 esi, 2

; 990  :         return static_cast<_Ty*>(_STD _Allocate<_New_alignof<_Ty>>(_Get_size_of_n<sizeof(_Ty)>(_Count)));

  0009f	8b c6		 mov	 eax, esi

; 122  :     return _Count * _Ty_size;

  000a1	89 75 fc	 mov	 DWORD PTR tv652[ebp], esi

; 227  :     if (_Bytes == 0) {

  000a4	85 c0		 test	 eax, eax
  000a6	75 04		 jne	 SHORT $LN23@Emplace_re

; 228  :         return nullptr;

  000a8	33 ff		 xor	 edi, edi
  000aa	eb 1a		 jmp	 SHORT $LN22@Emplace_re
$LN23@Emplace_re:

; 229  :     }
; 230  : 
; 231  : #if _HAS_CXX20 // TRANSITION, GH-1532
; 232  :     if (_STD is_constant_evaluated()) {
; 233  :         return _Traits::_Allocate(_Bytes);
; 234  :     }
; 235  : #endif // _HAS_CXX20
; 236  : 
; 237  : #ifdef __cpp_aligned_new
; 238  :     if constexpr (_Align > __STDCPP_DEFAULT_NEW_ALIGNMENT__) {
; 239  :         size_t _Passed_align = _Align;
; 240  : #if defined(_M_IX86) || defined(_M_X64)
; 241  :         if (_Bytes >= _Big_allocation_threshold) {
; 242  :             // boost the alignment of big allocations to help autovectorization
; 243  :             _Passed_align = (_STD max)(_Align, _Big_allocation_alignment);
; 244  :         }
; 245  : #endif // defined(_M_IX86) || defined(_M_X64)
; 246  :         return _Traits::_Allocate_aligned(_Bytes, _Passed_align);
; 247  :     } else
; 248  : #endif // defined(__cpp_aligned_new)
; 249  :     {
; 250  : #if defined(_M_IX86) || defined(_M_X64)
; 251  :         if (_Bytes >= _Big_allocation_threshold) {

  000ac	3d 00 10 00 00	 cmp	 eax, 4096		; 00001000H
  000b1	72 08		 jb	 SHORT $LN24@Emplace_re

; 253  :             return _Allocate_manually_vector_aligned<_Traits>(_Bytes);

  000b3	50		 push	 eax
  000b4	e8 00 00 00 00	 call	 ??$_Allocate_manually_vector_aligned@U_Default_allocate_traits@std@@@std@@YAPAXI@Z ; std::_Allocate_manually_vector_aligned<std::_Default_allocate_traits>
  000b9	eb 06		 jmp	 SHORT $LN117@Emplace_re
$LN24@Emplace_re:

; 136  :         return ::operator new(_Bytes);

  000bb	50		 push	 eax
  000bc	e8 00 00 00 00	 call	 ??2@YAPAXI@Z		; operator new
$LN117@Emplace_re:
; File C:\Program Files\Microsoft Visual Studio\2022\Professional\VC\Tools\MSVC\14.44.35207\include\vector

; 900  :         _Alty_traits::construct(_Al, _STD _Unfancy(_Newvec + _Whereoff), _STD forward<_Valty>(_Val)...);

  000c1	8b f8		 mov	 edi, eax
  000c3	83 c4 04	 add	 esp, 4
$LN22@Emplace_re:
  000c6	8b 45 f8	 mov	 eax, DWORD PTR __Whereoff$1$[ebp]

; 903  :         if (_Whereptr == _Mylast) { // at back, provide strong guarantee

  000c9	8b 55 08	 mov	 edx, DWORD PTR __Whereptr$[ebp]
  000cc	8d 04 40	 lea	 eax, DWORD PTR [eax+eax*2]
  000cf	8d 34 87	 lea	 esi, DWORD PTR [edi+eax*4]
; File C:\Program Files\Microsoft Visual Studio\2022\Professional\VC\Tools\MSVC\14.44.35207\include\xmemory

; 732  :         ::new (const_cast<void*>(static_cast<const volatile void*>(_Ptr))) _Objty(_STD forward<_Types>(_Args)...);

  000d2	8b 45 0c	 mov	 eax, DWORD PTR _<_Val_0>$[ebp]
; File C:\Program Files\Microsoft Visual Studio\2022\Professional\VC\Tools\MSVC\14.44.35207\include\vector

; 900  :         _Alty_traits::construct(_Al, _STD _Unfancy(_Newvec + _Whereoff), _STD forward<_Valty>(_Val)...);

  000d5	89 75 f8	 mov	 DWORD PTR tv650[ebp], esi
; File C:\Program Files\Microsoft Visual Studio\2022\Professional\VC\Tools\MSVC\14.44.35207\include\xmemory

; 732  :         ::new (const_cast<void*>(static_cast<const volatile void*>(_Ptr))) _Objty(_STD forward<_Types>(_Args)...);

  000d8	f3 0f 7e 00	 movq	 xmm0, QWORD PTR [eax]
  000dc	66 0f d6 06	 movq	 QWORD PTR [esi], xmm0
  000e0	8b 40 08	 mov	 eax, DWORD PTR [eax+8]
  000e3	89 46 08	 mov	 DWORD PTR [esi+8], eax
; File C:\Program Files\Microsoft Visual Studio\2022\Professional\VC\Tools\MSVC\14.44.35207\include\vector

; 903  :         if (_Whereptr == _Mylast) { // at back, provide strong guarantee

  000e6	8b 4b 04	 mov	 ecx, DWORD PTR [ebx+4]
  000e9	8b 03		 mov	 eax, DWORD PTR [ebx]
  000eb	3b d1		 cmp	 edx, ecx
  000ed	75 04		 jne	 SHORT $LN3@Emplace_re
; File C:\Program Files\Microsoft Visual Studio\2022\Professional\VC\Tools\MSVC\14.44.35207\include\xmemory

; 1992 :             _STD _Copy_memmove(_UFirst, _ULast, _STD _Unfancy(_Dest));

  000ef	8b f7		 mov	 esi, edi
; File C:\Program Files\Microsoft Visual Studio\2022\Professional\VC\Tools\MSVC\14.44.35207\include\vector

; 909  :         } else { // provide basic guarantee

  000f1	eb 14		 jmp	 SHORT $LN58@Emplace_re
$LN3@Emplace_re:
; File C:\Program Files\Microsoft Visual Studio\2022\Professional\VC\Tools\MSVC\14.44.35207\include\xmemory

; 1992 :             _STD _Copy_memmove(_UFirst, _ULast, _STD _Unfancy(_Dest));

  000f3	57		 push	 edi
  000f4	52		 push	 edx
  000f5	50		 push	 eax
  000f6	e8 00 00 00 00	 call	 ??$_Copy_memmove@PAU_REGION_GENERIC@@PAU1@@std@@YAPAU_REGION_GENERIC@@PAU1@00@Z ; std::_Copy_memmove<_REGION_GENERIC *,_REGION_GENERIC *>
  000fb	8b 45 08	 mov	 eax, DWORD PTR __Whereptr$[ebp]
  000fe	83 c4 0c	 add	 esp, 12			; 0000000cH
  00101	8b 4b 04	 mov	 ecx, DWORD PTR [ebx+4]
; File C:\Program Files\Microsoft Visual Studio\2022\Professional\VC\Tools\MSVC\14.44.35207\include\vector

; 912  :             _STD _Uninitialized_move(_Whereptr, _Mylast, _Newvec + _Whereoff + 1, _Al);

  00104	83 c6 0c	 add	 esi, 12			; 0000000cH
$LN58@Emplace_re:

; 913  :         }
; 914  : 
; 915  :         _Guard._New_begin = nullptr;

  00107	56		 push	 esi
  00108	51		 push	 ecx
  00109	50		 push	 eax
  0010a	e8 00 00 00 00	 call	 ??$_Copy_memmove@PAU_REGION_GENERIC@@PAU1@@std@@YAPAU_REGION_GENERIC@@PAU1@00@Z ; std::_Copy_memmove<_REGION_GENERIC *,_REGION_GENERIC *>

; 2069 :         if (_Myfirst) { // destroy and deallocate old array

  0010f	8b 33		 mov	 esi, DWORD PTR [ebx]

; 913  :         }
; 914  : 
; 915  :         _Guard._New_begin = nullptr;

  00111	83 c4 0c	 add	 esp, 12			; 0000000cH

; 2069 :         if (_Myfirst) { // destroy and deallocate old array

  00114	85 f6		 test	 esi, esi
  00116	74 3f		 je	 SHORT $LN80@Emplace_re

; 2070 :             _STD _Destroy_range(_Myfirst, _Mylast, _Al);
; 2071 :             _ASAN_VECTOR_REMOVE;
; 2072 :             _Al.deallocate(_Myfirst, static_cast<size_type>(_Myend - _Myfirst));

  00118	8b 4b 08	 mov	 ecx, DWORD PTR [ebx+8]
  0011b	b8 ab aa aa 2a	 mov	 eax, 715827883		; 2aaaaaabH
  00120	2b ce		 sub	 ecx, esi
  00122	f7 e9		 imul	 ecx
  00124	d1 fa		 sar	 edx, 1
  00126	8b c2		 mov	 eax, edx
  00128	c1 e8 1f	 shr	 eax, 31			; 0000001fH
  0012b	03 c2		 add	 eax, edx
; File C:\Program Files\Microsoft Visual Studio\2022\Professional\VC\Tools\MSVC\14.44.35207\include\xmemory

; 985  :         _STD _Deallocate<_New_alignof<_Ty>>(_Ptr, sizeof(_Ty) * _Count);

  0012d	8d 0c 40	 lea	 ecx, DWORD PTR [eax+eax*2]
  00130	c1 e1 02	 shl	 ecx, 2

; 284  :         if (_Bytes >= _Big_allocation_threshold) {

  00133	81 f9 00 10 00
	00		 cmp	 ecx, 4096		; 00001000H
  00139	72 12		 jb	 SHORT $LN85@Emplace_re

; 205  :     const uintptr_t _Ptr_container   = _Ptr_user[-1];

  0013b	8b 56 fc	 mov	 edx, DWORD PTR [esi-4]
  0013e	83 c1 23	 add	 ecx, 35			; 00000023H

; 206  : 
; 207  :     // If the following asserts, it likely means that we are performing
; 208  :     // an aligned delete on memory coming from an unaligned allocation.
; 209  :     _STL_ASSERT(_Ptr_user[-2] == _Big_allocation_sentinel, "invalid argument");
; 210  : 
; 211  :     // Extra paranoia on aligned allocation/deallocation; ensure _Ptr_container is
; 212  :     // in range [_Min_back_shift, _Non_user_size]
; 213  : #ifdef _DEBUG
; 214  :     constexpr uintptr_t _Min_back_shift = 2 * sizeof(void*);
; 215  : #else // ^^^ defined(_DEBUG) / !defined(_DEBUG) vvv
; 216  :     constexpr uintptr_t _Min_back_shift = sizeof(void*);
; 217  : #endif // ^^^ !defined(_DEBUG) ^^^
; 218  :     const uintptr_t _Back_shift = reinterpret_cast<uintptr_t>(_Ptr) - _Ptr_container;

  00141	2b f2		 sub	 esi, edx

; 219  :     _STL_VERIFY(_Back_shift >= _Min_back_shift && _Back_shift <= _Non_user_size, "invalid argument");

  00143	8d 46 fc	 lea	 eax, DWORD PTR [esi-4]
  00146	83 f8 1f	 cmp	 eax, 31			; 0000001fH
  00149	77 2f		 ja	 SHORT $LN84@Emplace_re

; 220  :     _Ptr = reinterpret_cast<void*>(_Ptr_container);

  0014b	8b f2		 mov	 esi, edx
$LN85@Emplace_re:

; 289  :         ::operator delete(_Ptr, _Bytes);

  0014d	51		 push	 ecx
  0014e	56		 push	 esi
  0014f	e8 00 00 00 00	 call	 ??3@YAXPAXI@Z		; operator delete
  00154	83 c4 08	 add	 esp, 8
$LN80@Emplace_re:
; File C:\Program Files\Microsoft Visual Studio\2022\Professional\VC\Tools\MSVC\14.44.35207\include\vector

; 2076 :         _Mylast  = _Newvec + _Newsize;

  00157	8b 45 f4	 mov	 eax, DWORD PTR __Oldsize$1$[ebp]
  0015a	40		 inc	 eax
  0015b	89 3b		 mov	 DWORD PTR [ebx], edi

; 916  :         _Change_array(_Newvec, _Newsize, _Newcapacity);
; 917  :         return _Newvec + _Whereoff;

  0015d	5e		 pop	 esi

; 2076 :         _Mylast  = _Newvec + _Newsize;

  0015e	8d 0c 40	 lea	 ecx, DWORD PTR [eax+eax*2]

; 916  :         _Change_array(_Newvec, _Newsize, _Newcapacity);
; 917  :         return _Newvec + _Whereoff;

  00161	8b 45 f8	 mov	 eax, DWORD PTR tv650[ebp]

; 2076 :         _Mylast  = _Newvec + _Newsize;

  00164	8d 0c 8f	 lea	 ecx, DWORD PTR [edi+ecx*4]
  00167	89 4b 04	 mov	 DWORD PTR [ebx+4], ecx

; 2077 :         _Myend   = _Newvec + _Newcapacity;

  0016a	8b 4d fc	 mov	 ecx, DWORD PTR tv652[ebp]
  0016d	03 cf		 add	 ecx, edi

; 918  :     }

  0016f	5f		 pop	 edi

; 2077 :         _Myend   = _Newvec + _Newcapacity;

  00170	89 4b 08	 mov	 DWORD PTR [ebx+8], ecx

; 918  :     }

  00173	5b		 pop	 ebx
  00174	8b e5		 mov	 esp, ebp
  00176	5d		 pop	 ebp
  00177	c2 08 00	 ret	 8
$LN84@Emplace_re:
; File C:\Program Files\Microsoft Visual Studio\2022\Professional\VC\Tools\MSVC\14.44.35207\include\xmemory

; 219  :     _STL_VERIFY(_Back_shift >= _Min_back_shift && _Back_shift <= _Non_user_size, "invalid argument");

  0017a	6a 00		 push	 0
  0017c	6a 00		 push	 0
  0017e	6a 00		 push	 0
  00180	6a 00		 push	 0
  00182	6a 00		 push	 0
  00184	e8 00 00 00 00	 call	 __invoke_watson
$LN119@Emplace_re:
; File C:\Program Files\Microsoft Visual Studio\2022\Professional\VC\Tools\MSVC\14.44.35207\include\vector

; 888  :             _Xlength();

  00189	e8 00 00 00 00	 call	 ?_Xlength@?$vector@U_REGION_GENERIC@@V?$allocator@U_REGION_GENERIC@@@std@@@std@@CAXXZ ; std::vector<_REGION_GENERIC,std::allocator<_REGION_GENERIC> >::_Xlength
$LN120@Emplace_re:
; File C:\Program Files\Microsoft Visual Studio\2022\Professional\VC\Tools\MSVC\14.44.35207\include\xmemory

; 118  :             _Throw_bad_array_new_length(); // multiply overflow

  0018e	e8 00 00 00 00	 call	 ?_Throw_bad_array_new_length@std@@YAXXZ ; std::_Throw_bad_array_new_length
$LN116@Emplace_re:
  00193	cc		 int	 3
??$_Emplace_reallocate@ABU_REGION_GENERIC@@@?$vector@U_REGION_GENERIC@@V?$allocator@U_REGION_GENERIC@@@std@@@std@@AAEPAU_REGION_GENERIC@@QAU2@ABU2@@Z ENDP ; std::vector<_REGION_GENERIC,std::allocator<_REGION_GENERIC> >::_Emplace_reallocate<_REGION_GENERIC const &>
_TEXT	ENDS
; Function compile flags: /Ogtp
; File C:\Program Files\Microsoft Visual Studio\2022\Professional\VC\Tools\MSVC\14.44.35207\include\algorithm
; File C:\Program Files\Microsoft Visual Studio\2022\Professional\VC\Tools\MSVC\14.44.35207\include\utility
; File C:\Program Files\Microsoft Visual Studio\2022\Professional\VC\Tools\MSVC\14.44.35207\include\algorithm
; File C:\Program Files\Microsoft Visual Studio\2022\Professional\VC\Tools\MSVC\14.44.35207\include\utility
; File C:\Program Files\Microsoft Visual Studio\2022\Professional\VC\Tools\MSVC\14.44.35207\include\algorithm
; File C:\Program Files\Microsoft Visual Studio\2022\Professional\VC\Tools\MSVC\14.44.35207\include\utility
; File C:\Program Files\Microsoft Visual Studio\2022\Professional\VC\Tools\MSVC\14.44.35207\include\algorithm
; File C:\Program Files\Microsoft Visual Studio\2022\Professional\VC\Tools\MSVC\14.44.35207\include\utility
; File C:\Program Files\Microsoft Visual Studio\2022\Professional\VC\Tools\MSVC\14.44.35207\include\algorithm
; File C:\Program Files\Microsoft Visual Studio\2022\Professional\VC\Tools\MSVC\14.44.35207\include\utility
; File C:\Program Files\Microsoft Visual Studio\2022\Professional\VC\Tools\MSVC\14.44.35207\include\algorithm
; File C:\Program Files\Microsoft Visual Studio\2022\Professional\VC\Tools\MSVC\14.44.35207\include\utility
; File C:\Program Files\Microsoft Visual Studio\2022\Professional\VC\Tools\MSVC\14.44.35207\include\algorithm
; File C:\Program Files\Microsoft Visual Studio\2022\Professional\VC\Tools\MSVC\14.44.35207\include\utility
; File C:\Program Files\Microsoft Visual Studio\2022\Professional\VC\Tools\MSVC\14.44.35207\include\algorithm
; File C:\Program Files\Microsoft Visual Studio\2022\Professional\VC\Tools\MSVC\14.44.35207\include\utility
; File C:\Program Files\Microsoft Visual Studio\2022\Professional\VC\Tools\MSVC\14.44.35207\include\algorithm
; File C:\Program Files\Microsoft Visual Studio\2022\Professional\VC\Tools\MSVC\14.44.35207\include\utility
; File C:\Program Files\Microsoft Visual Studio\2022\Professional\VC\Tools\MSVC\14.44.35207\include\algorithm
; File C:\Program Files\Microsoft Visual Studio\2022\Professional\VC\Tools\MSVC\14.44.35207\include\utility
; File C:\Program Files\Microsoft Visual Studio\2022\Professional\VC\Tools\MSVC\14.44.35207\include\algorithm
; File C:\Program Files\Microsoft Visual Studio\2022\Professional\VC\Tools\MSVC\14.44.35207\include\utility
; File C:\Program Files\Microsoft Visual Studio\2022\Professional\VC\Tools\MSVC\14.44.35207\include\algorithm
; File C:\Program Files\Microsoft Visual Studio\2022\Professional\VC\Tools\MSVC\14.44.35207\include\utility
; File C:\Program Files\Microsoft Visual Studio\2022\Professional\VC\Tools\MSVC\14.44.35207\include\algorithm
; File C:\Program Files\Microsoft Visual Studio\2022\Professional\VC\Tools\MSVC\14.44.35207\include\utility
; File C:\Program Files\Microsoft Visual Studio\2022\Professional\VC\Tools\MSVC\14.44.35207\include\algorithm
;	COMDAT ??$_Partition_by_median_guess_unchecked@PAU_REGION_GENERIC@@P6A_NU1@0@Z@std@@YA?AU?$pair@PAU_REGION_GENERIC@@PAU1@@0@PAU_REGION_GENERIC@@0P6A_NU2@1@Z@Z
_TEXT	SEGMENT
tv252 = -12						; size = 4
__Gfirst$1$ = -12					; size = 4
__Last$1$ = -12						; size = 4
$T1 = -12						; size = 4
__Glast$1$ = -8						; size = 4
$T2 = -8						; size = 4
__Plast$1$ = -4						; size = 4
___$ReturnUdt$ = 8					; size = 4
__First$ = 12						; size = 4
__Last$ = 16						; size = 4
__Pred$ = 20						; size = 4
??$_Partition_by_median_guess_unchecked@PAU_REGION_GENERIC@@P6A_NU1@0@Z@std@@YA?AU?$pair@PAU_REGION_GENERIC@@PAU1@@0@PAU_REGION_GENERIC@@0P6A_NU2@1@Z@Z PROC ; std::_Partition_by_median_guess_unchecked<_REGION_GENERIC *,bool (__cdecl*)(_REGION_GENERIC,_REGION_GENERIC)>, COMDAT

; 8299 : _CONSTEXPR20 pair<_RanIt, _RanIt> _Partition_by_median_guess_unchecked(_RanIt _First, _RanIt _Last, _Pr _Pred) {

  00000	55		 push	 ebp
  00001	8b ec		 mov	 ebp, esp
  00003	83 ec 0c	 sub	 esp, 12			; 0000000cH
  00006	53		 push	 ebx

; 8300 :     // partition [_First, _Last)
; 8301 :     _RanIt _Mid = _First + ((_Last - _First) >> 1); // shift for codegen

  00007	8b 5d 10	 mov	 ebx, DWORD PTR __Last$[ebp]
  0000a	b8 ab aa aa 2a	 mov	 eax, 715827883		; 2aaaaaabH
  0000f	56		 push	 esi
  00010	57		 push	 edi
  00011	8b 7d 0c	 mov	 edi, DWORD PTR __First$[ebp]
  00014	8b cb		 mov	 ecx, ebx
  00016	2b cf		 sub	 ecx, edi

; 8302 :     _STD _Guess_median_unchecked(_First, _Mid, _STD _Prev_iter(_Last), _Pred);

  00018	83 c3 f4	 add	 ebx, -12		; fffffff4H
  0001b	f7 e9		 imul	 ecx

; 8285 :     const _Diff _Count = _Last - _First;

  0001d	b8 ab aa aa 2a	 mov	 eax, 715827883		; 2aaaaaabH

; 8302 :     _STD _Guess_median_unchecked(_First, _Mid, _STD _Prev_iter(_Last), _Pred);

  00022	89 5d f4	 mov	 DWORD PTR __Last$1$[ebp], ebx
  00025	d1 fa		 sar	 edx, 1
  00027	8b ca		 mov	 ecx, edx
  00029	c1 e9 1f	 shr	 ecx, 31			; 0000001fH
  0002c	03 ca		 add	 ecx, edx
  0002e	d1 f9		 sar	 ecx, 1
  00030	8d 0c 49	 lea	 ecx, DWORD PTR [ecx+ecx*2]
  00033	8d 34 8f	 lea	 esi, DWORD PTR [edi+ecx*4]

; 8285 :     const _Diff _Count = _Last - _First;

  00036	8b cb		 mov	 ecx, ebx
  00038	2b cf		 sub	 ecx, edi

; 8286 :     if (40 < _Count) { // Tukey's ninther

  0003a	8b 7d 14	 mov	 edi, DWORD PTR __Pred$[ebp]
  0003d	f7 e9		 imul	 ecx
  0003f	8b 4d 0c	 mov	 ecx, DWORD PTR __First$[ebp]
  00042	d1 fa		 sar	 edx, 1
  00044	8b c2		 mov	 eax, edx
  00046	c1 e8 1f	 shr	 eax, 31			; 0000001fH
  00049	03 c2		 add	 eax, edx
  0004b	83 f8 28	 cmp	 eax, 40			; 00000028H
  0004e	7e 59		 jle	 SHORT $LN35@Partition_

; 8287 :         const _Diff _Step     = (_Count + 1) >> 3; // +1 can't overflow because range was made inclusive in caller
; 8288 :         const _Diff _Two_step = _Step << 1; // note: intentionally discards low-order bit
; 8289 :         _STD _Med3_unchecked(_First, _First + _Step, _First + _Two_step, _Pred);

  00050	ff 75 14	 push	 DWORD PTR __Pred$[ebp]
  00053	40		 inc	 eax
  00054	c1 f8 03	 sar	 eax, 3
  00057	8d 1c 40	 lea	 ebx, DWORD PTR [eax+eax*2]
  0005a	8d 3c 40	 lea	 edi, DWORD PTR [eax+eax*2]
  0005d	c1 e3 03	 shl	 ebx, 3
  00060	c1 e7 02	 shl	 edi, 2
  00063	8d 04 0b	 lea	 eax, DWORD PTR [ebx+ecx]
  00066	8d 14 0f	 lea	 edx, DWORD PTR [edi+ecx]
  00069	50		 push	 eax
  0006a	52		 push	 edx
  0006b	51		 push	 ecx
  0006c	89 55 f8	 mov	 DWORD PTR $T2[ebp], edx
  0006f	e8 00 00 00 00	 call	 ??$_Med3_unchecked@PAU_REGION_GENERIC@@P6A_NU1@0@Z@std@@YAXPAU_REGION_GENERIC@@00P6A_NU1@1@Z@Z ; std::_Med3_unchecked<_REGION_GENERIC *,bool (__cdecl*)(_REGION_GENERIC,_REGION_GENERIC)>

; 8290 :         _STD _Med3_unchecked(_Mid - _Step, _Mid, _Mid + _Step, _Pred);

  00074	ff 75 14	 push	 DWORD PTR __Pred$[ebp]
  00077	8d 04 37	 lea	 eax, DWORD PTR [edi+esi]
  0007a	50		 push	 eax
  0007b	8b c6		 mov	 eax, esi
  0007d	2b c7		 sub	 eax, edi
  0007f	56		 push	 esi
  00080	50		 push	 eax
  00081	e8 00 00 00 00	 call	 ??$_Med3_unchecked@PAU_REGION_GENERIC@@P6A_NU1@0@Z@std@@YAXPAU_REGION_GENERIC@@00P6A_NU1@1@Z@Z ; std::_Med3_unchecked<_REGION_GENERIC *,bool (__cdecl*)(_REGION_GENERIC,_REGION_GENERIC)>

; 8291 :         _STD _Med3_unchecked(_Last - _Two_step, _Last - _Step, _Last, _Pred);

  00086	8b 4d f4	 mov	 ecx, DWORD PTR __Last$1$[ebp]
  00089	8b c1		 mov	 eax, ecx
  0008b	2b c7		 sub	 eax, edi
  0008d	8b 7d 14	 mov	 edi, DWORD PTR __Pred$[ebp]
  00090	57		 push	 edi
  00091	51		 push	 ecx
  00092	50		 push	 eax
  00093	2b cb		 sub	 ecx, ebx
  00095	89 45 f4	 mov	 DWORD PTR $T1[ebp], eax
  00098	51		 push	 ecx
  00099	e8 00 00 00 00	 call	 ??$_Med3_unchecked@PAU_REGION_GENERIC@@P6A_NU1@0@Z@std@@YAXPAU_REGION_GENERIC@@00P6A_NU1@1@Z@Z ; std::_Med3_unchecked<_REGION_GENERIC *,bool (__cdecl*)(_REGION_GENERIC,_REGION_GENERIC)>

; 8292 :         _STD _Med3_unchecked(_First + _Step, _Mid, _Last - _Step, _Pred);
; 8293 :     } else {

  0009e	8b 45 f4	 mov	 eax, DWORD PTR $T1[ebp]
  000a1	83 c4 30	 add	 esp, 48			; 00000030H
  000a4	8b 4d f8	 mov	 ecx, DWORD PTR $T2[ebp]
  000a7	eb 02		 jmp	 SHORT $LN36@Partition_
$LN35@Partition_:

; 8294 :         _STD _Med3_unchecked(_First, _Mid, _Last, _Pred);

  000a9	8b c3		 mov	 eax, ebx
$LN36@Partition_:

; 8303 :     _RanIt _Pfirst = _Mid;

  000ab	57		 push	 edi
  000ac	50		 push	 eax
  000ad	56		 push	 esi
  000ae	51		 push	 ecx
  000af	e8 00 00 00 00	 call	 ??$_Med3_unchecked@PAU_REGION_GENERIC@@P6A_NU1@0@Z@std@@YAXPAU_REGION_GENERIC@@00P6A_NU1@1@Z@Z ; std::_Med3_unchecked<_REGION_GENERIC *,bool (__cdecl*)(_REGION_GENERIC,_REGION_GENERIC)>
  000b4	83 c4 10	 add	 esp, 16			; 00000010H

; 8304 :     _RanIt _Plast  = _STD _Next_iter(_Pfirst);

  000b7	8d 5e 0c	 lea	 ebx, DWORD PTR [esi+12]
  000ba	89 5d fc	 mov	 DWORD PTR __Plast$1$[ebp], ebx

; 8305 : 
; 8306 :     while (_First < _Pfirst && !_DEBUG_LT_PRED(_Pred, *_STD _Prev_iter(_Pfirst), *_Pfirst)
; 8307 :            && !_Pred(*_Pfirst, *_STD _Prev_iter(_Pfirst))) {

  000bd	39 75 0c	 cmp	 DWORD PTR __First$[ebp], esi
  000c0	73 74		 jae	 SHORT $LN64@Partition_
  000c2	8b 5d 0c	 mov	 ebx, DWORD PTR __First$[ebp]
$LL2@Partition_:
  000c5	f3 0f 7e 06	 movq	 xmm0, QWORD PTR [esi]
  000c9	8d 56 f4	 lea	 edx, DWORD PTR [esi-12]
  000cc	8b 46 08	 mov	 eax, DWORD PTR [esi+8]
  000cf	83 ec 0c	 sub	 esp, 12			; 0000000cH
  000d2	8b cc		 mov	 ecx, esp
  000d4	89 55 f4	 mov	 DWORD PTR tv252[ebp], edx
  000d7	83 ec 0c	 sub	 esp, 12			; 0000000cH
  000da	66 0f d6 01	 movq	 QWORD PTR [ecx], xmm0
  000de	f3 0f 7e 02	 movq	 xmm0, QWORD PTR [edx]
  000e2	89 41 08	 mov	 DWORD PTR [ecx+8], eax
  000e5	8b cc		 mov	 ecx, esp
  000e7	8b 42 08	 mov	 eax, DWORD PTR [edx+8]
  000ea	66 0f d6 01	 movq	 QWORD PTR [ecx], xmm0
  000ee	89 41 08	 mov	 DWORD PTR [ecx+8], eax
  000f1	ff d7		 call	 edi
  000f3	83 c4 18	 add	 esp, 24			; 00000018H
  000f6	84 c0		 test	 al, al
  000f8	75 39		 jne	 SHORT $LN89@Partition_
  000fa	8b 45 f4	 mov	 eax, DWORD PTR tv252[ebp]
  000fd	83 ec 0c	 sub	 esp, 12			; 0000000cH
  00100	8b cc		 mov	 ecx, esp
  00102	83 ec 0c	 sub	 esp, 12			; 0000000cH
  00105	f3 0f 7e 00	 movq	 xmm0, QWORD PTR [eax]
  00109	8b 40 08	 mov	 eax, DWORD PTR [eax+8]
  0010c	66 0f d6 01	 movq	 QWORD PTR [ecx], xmm0
  00110	f3 0f 7e 06	 movq	 xmm0, QWORD PTR [esi]
  00114	89 41 08	 mov	 DWORD PTR [ecx+8], eax
  00117	8b cc		 mov	 ecx, esp
  00119	8b 46 08	 mov	 eax, DWORD PTR [esi+8]
  0011c	66 0f d6 01	 movq	 QWORD PTR [ecx], xmm0
  00120	89 41 08	 mov	 DWORD PTR [ecx+8], eax
  00123	ff d7		 call	 edi
  00125	83 c4 18	 add	 esp, 24			; 00000018H
  00128	84 c0		 test	 al, al
  0012a	75 07		 jne	 SHORT $LN89@Partition_

; 8308 :         --_Pfirst;

  0012c	8b 75 f4	 mov	 esi, DWORD PTR tv252[ebp]
  0012f	3b de		 cmp	 ebx, esi
  00131	72 92		 jb	 SHORT $LL2@Partition_
$LN89@Partition_:
  00133	8b 5d fc	 mov	 ebx, DWORD PTR __Plast$1$[ebp]
$LN64@Partition_:

; 8309 :     }
; 8310 : 
; 8311 :     while (_Plast < _Last && !_DEBUG_LT_PRED(_Pred, *_Plast, *_Pfirst) && !_Pred(*_Pfirst, *_Plast)) {

  00136	8b 45 10	 mov	 eax, DWORD PTR __Last$[ebp]
  00139	3b d8		 cmp	 ebx, eax
  0013b	73 73		 jae	 SHORT $LN5@Partition_
  0013d	0f 1f 00	 npad	 3
$LL4@Partition_:
  00140	f3 0f 7e 06	 movq	 xmm0, QWORD PTR [esi]
  00144	83 ec 0c	 sub	 esp, 12			; 0000000cH
  00147	8b 46 08	 mov	 eax, DWORD PTR [esi+8]
  0014a	8b cc		 mov	 ecx, esp
  0014c	83 ec 0c	 sub	 esp, 12			; 0000000cH
  0014f	66 0f d6 01	 movq	 QWORD PTR [ecx], xmm0
  00153	f3 0f 7e 03	 movq	 xmm0, QWORD PTR [ebx]
  00157	89 41 08	 mov	 DWORD PTR [ecx+8], eax
  0015a	8b cc		 mov	 ecx, esp
  0015c	8b 43 08	 mov	 eax, DWORD PTR [ebx+8]
  0015f	66 0f d6 01	 movq	 QWORD PTR [ecx], xmm0
  00163	89 41 08	 mov	 DWORD PTR [ecx+8], eax
  00166	ff d7		 call	 edi
  00168	83 c4 18	 add	 esp, 24			; 00000018H
  0016b	84 c0		 test	 al, al
  0016d	75 3b		 jne	 SHORT $LN94@Partition_
  0016f	f3 0f 7e 03	 movq	 xmm0, QWORD PTR [ebx]
  00173	83 ec 0c	 sub	 esp, 12			; 0000000cH
  00176	8b 43 08	 mov	 eax, DWORD PTR [ebx+8]
  00179	8b cc		 mov	 ecx, esp
  0017b	83 ec 0c	 sub	 esp, 12			; 0000000cH
  0017e	66 0f d6 01	 movq	 QWORD PTR [ecx], xmm0
  00182	f3 0f 7e 06	 movq	 xmm0, QWORD PTR [esi]
  00186	89 41 08	 mov	 DWORD PTR [ecx+8], eax
  00189	8b cc		 mov	 ecx, esp
  0018b	8b 46 08	 mov	 eax, DWORD PTR [esi+8]
  0018e	66 0f d6 01	 movq	 QWORD PTR [ecx], xmm0
  00192	89 41 08	 mov	 DWORD PTR [ecx+8], eax
  00195	ff d7		 call	 edi
  00197	83 c4 18	 add	 esp, 24			; 00000018H
  0019a	84 c0		 test	 al, al
  0019c	8b 45 10	 mov	 eax, DWORD PTR __Last$[ebp]
  0019f	75 0c		 jne	 SHORT $LN90@Partition_

; 8312 :         ++_Plast;

  001a1	83 c3 0c	 add	 ebx, 12			; 0000000cH
  001a4	3b d8		 cmp	 ebx, eax
  001a6	72 98		 jb	 SHORT $LL4@Partition_

; 8309 :     }
; 8310 : 
; 8311 :     while (_Plast < _Last && !_DEBUG_LT_PRED(_Pred, *_Plast, *_Pfirst) && !_Pred(*_Pfirst, *_Plast)) {

  001a8	eb 03		 jmp	 SHORT $LN90@Partition_
$LN94@Partition_:
  001aa	8b 45 10	 mov	 eax, DWORD PTR __Last$[ebp]
$LN90@Partition_:
  001ad	89 5d fc	 mov	 DWORD PTR __Plast$1$[ebp], ebx
$LN5@Partition_:

; 8313 :     }
; 8314 : 
; 8315 :     _RanIt _Gfirst = _Plast;

  001b0	8b fb		 mov	 edi, ebx

; 8316 :     _RanIt _Glast  = _Pfirst;

  001b2	8b d6		 mov	 edx, esi
$LN120@Partition_:

; 8319 :         for (; _Gfirst < _Last; ++_Gfirst) {

  001b4	89 55 f8	 mov	 DWORD PTR __Glast$1$[ebp], edx
$LN119@Partition_:
  001b7	89 7d f4	 mov	 DWORD PTR __Gfirst$1$[ebp], edi
  001ba	66 0f 1f 44 00
	00		 npad	 6
$LL8@Partition_:
  001c0	3b f8		 cmp	 edi, eax
  001c2	0f 83 a0 00 00
	00		 jae	 $LN68@Partition_
  001c8	0f 1f 84 00 00
	00 00 00	 npad	 8
$LL11@Partition_:

; 8320 :             if (_DEBUG_LT_PRED(_Pred, *_Pfirst, *_Gfirst)) {

  001d0	f3 0f 7e 07	 movq	 xmm0, QWORD PTR [edi]
  001d4	83 ec 0c	 sub	 esp, 12			; 0000000cH
  001d7	8b 47 08	 mov	 eax, DWORD PTR [edi+8]
  001da	8b cc		 mov	 ecx, esp
  001dc	83 ec 0c	 sub	 esp, 12			; 0000000cH
  001df	66 0f d6 01	 movq	 QWORD PTR [ecx], xmm0
  001e3	f3 0f 7e 06	 movq	 xmm0, QWORD PTR [esi]
  001e7	89 41 08	 mov	 DWORD PTR [ecx+8], eax
  001ea	8b cc		 mov	 ecx, esp
  001ec	8b 46 08	 mov	 eax, DWORD PTR [esi+8]
  001ef	66 0f d6 01	 movq	 QWORD PTR [ecx], xmm0
  001f3	89 41 08	 mov	 DWORD PTR [ecx+8], eax
  001f6	ff 55 14	 call	 DWORD PTR __Pred$[ebp]
  001f9	83 c4 18	 add	 esp, 24			; 00000018H
  001fc	84 c0		 test	 al, al
  001fe	75 53		 jne	 SHORT $LN9@Partition_

; 8321 :                 continue;
; 8322 :             } else if (_Pred(*_Gfirst, *_Pfirst)) {

  00200	f3 0f 7e 06	 movq	 xmm0, QWORD PTR [esi]
  00204	83 ec 0c	 sub	 esp, 12			; 0000000cH
  00207	8b 46 08	 mov	 eax, DWORD PTR [esi+8]
  0020a	8b cc		 mov	 ecx, esp
  0020c	83 ec 0c	 sub	 esp, 12			; 0000000cH
  0020f	66 0f d6 01	 movq	 QWORD PTR [ecx], xmm0
  00213	f3 0f 7e 07	 movq	 xmm0, QWORD PTR [edi]
  00217	89 41 08	 mov	 DWORD PTR [ecx+8], eax
  0021a	8b cc		 mov	 ecx, esp
  0021c	8b 47 08	 mov	 eax, DWORD PTR [edi+8]
  0021f	66 0f d6 01	 movq	 QWORD PTR [ecx], xmm0
  00223	89 41 08	 mov	 DWORD PTR [ecx+8], eax
  00226	ff 55 14	 call	 DWORD PTR __Pred$[ebp]
  00229	83 c4 18	 add	 esp, 24			; 00000018H
  0022c	84 c0		 test	 al, al
  0022e	75 2f		 jne	 SHORT $LN91@Partition_

; 8323 :                 break;
; 8324 :             } else if (_Plast != _Gfirst) {

  00230	3b df		 cmp	 ebx, edi
  00232	74 1c		 je	 SHORT $LN19@Partition_
; File C:\Program Files\Microsoft Visual Studio\2022\Professional\VC\Tools\MSVC\14.44.35207\include\utility

; 140  :     _Left    = _STD move(_Right);

  00234	f3 0f 7e 07	 movq	 xmm0, QWORD PTR [edi]
  00238	f3 0f 7e 0b	 movq	 xmm1, QWORD PTR [ebx]
  0023c	8b 4b 08	 mov	 ecx, DWORD PTR [ebx+8]
  0023f	66 0f d6 03	 movq	 QWORD PTR [ebx], xmm0
  00243	8b 47 08	 mov	 eax, DWORD PTR [edi+8]
  00246	89 43 08	 mov	 DWORD PTR [ebx+8], eax

; 141  :     _Right   = _STD move(_Tmp);

  00249	66 0f d6 0f	 movq	 QWORD PTR [edi], xmm1
  0024d	89 4f 08	 mov	 DWORD PTR [edi+8], ecx
$LN19@Partition_:
; File C:\Program Files\Microsoft Visual Studio\2022\Professional\VC\Tools\MSVC\14.44.35207\include\algorithm

; 8319 :         for (; _Gfirst < _Last; ++_Gfirst) {

  00250	83 c3 0c	 add	 ebx, 12			; 0000000cH
$LN9@Partition_:
  00253	83 c7 0c	 add	 edi, 12			; 0000000cH
  00256	3b 7d 10	 cmp	 edi, DWORD PTR __Last$[ebp]
  00259	0f 82 71 ff ff
	ff		 jb	 $LL11@Partition_
$LN91@Partition_:
  0025f	8b 55 f8	 mov	 edx, DWORD PTR __Glast$1$[ebp]
  00262	89 5d fc	 mov	 DWORD PTR __Plast$1$[ebp], ebx
  00265	89 7d f4	 mov	 DWORD PTR __Gfirst$1$[ebp], edi
$LN68@Partition_:

; 8332 :         for (; _First < _Glast; --_Glast) {

  00268	8b 45 0c	 mov	 eax, DWORD PTR __First$[ebp]
  0026b	3b d0		 cmp	 edx, eax
  0026d	0f 86 b4 00 00
	00		 jbe	 $LN118@Partition_
  00273	8b 5d f8	 mov	 ebx, DWORD PTR __Glast$1$[ebp]
  00276	8d 7b f4	 lea	 edi, DWORD PTR [ebx-12]
  00279	0f 1f 80 00 00
	00 00		 npad	 7
$LL14@Partition_:

; 8333 :             const auto _Glast_prev = _STD _Prev_iter(_Glast);
; 8334 :             if (_DEBUG_LT_PRED(_Pred, *_Glast_prev, *_Pfirst)) {

  00280	f3 0f 7e 06	 movq	 xmm0, QWORD PTR [esi]
  00284	83 ec 0c	 sub	 esp, 12			; 0000000cH
  00287	8b 46 08	 mov	 eax, DWORD PTR [esi+8]
  0028a	8b cc		 mov	 ecx, esp
  0028c	83 ec 0c	 sub	 esp, 12			; 0000000cH
  0028f	66 0f d6 01	 movq	 QWORD PTR [ecx], xmm0
  00293	f3 0f 7e 07	 movq	 xmm0, QWORD PTR [edi]
  00297	89 41 08	 mov	 DWORD PTR [ecx+8], eax
  0029a	8b cc		 mov	 ecx, esp
  0029c	8b 47 08	 mov	 eax, DWORD PTR [edi+8]
  0029f	66 0f d6 01	 movq	 QWORD PTR [ecx], xmm0
  002a3	89 41 08	 mov	 DWORD PTR [ecx+8], eax
  002a6	ff 55 14	 call	 DWORD PTR __Pred$[ebp]
  002a9	83 c4 18	 add	 esp, 24			; 00000018H
  002ac	84 c0		 test	 al, al
  002ae	75 53		 jne	 SHORT $LN12@Partition_

; 8335 :                 continue;
; 8336 :             } else if (_Pred(*_Pfirst, *_Glast_prev)) {

  002b0	f3 0f 7e 07	 movq	 xmm0, QWORD PTR [edi]
  002b4	83 ec 0c	 sub	 esp, 12			; 0000000cH
  002b7	8b 47 08	 mov	 eax, DWORD PTR [edi+8]
  002ba	8b cc		 mov	 ecx, esp
  002bc	83 ec 0c	 sub	 esp, 12			; 0000000cH
  002bf	66 0f d6 01	 movq	 QWORD PTR [ecx], xmm0
  002c3	f3 0f 7e 06	 movq	 xmm0, QWORD PTR [esi]
  002c7	89 41 08	 mov	 DWORD PTR [ecx+8], eax
  002ca	8b cc		 mov	 ecx, esp
  002cc	8b 46 08	 mov	 eax, DWORD PTR [esi+8]
  002cf	66 0f d6 01	 movq	 QWORD PTR [ecx], xmm0
  002d3	89 41 08	 mov	 DWORD PTR [ecx+8], eax
  002d6	ff 55 14	 call	 DWORD PTR __Pred$[ebp]
  002d9	83 c4 18	 add	 esp, 24			; 00000018H
  002dc	84 c0		 test	 al, al
  002de	75 36		 jne	 SHORT $LN95@Partition_

; 8337 :                 break;
; 8338 :             } else if (--_Pfirst != _Glast_prev) {

  002e0	83 ee 0c	 sub	 esi, 12			; 0000000cH
  002e3	3b f7		 cmp	 esi, edi
  002e5	74 1c		 je	 SHORT $LN12@Partition_
; File C:\Program Files\Microsoft Visual Studio\2022\Professional\VC\Tools\MSVC\14.44.35207\include\utility

; 140  :     _Left    = _STD move(_Right);

  002e7	f3 0f 7e 07	 movq	 xmm0, QWORD PTR [edi]
  002eb	f3 0f 7e 0e	 movq	 xmm1, QWORD PTR [esi]
  002ef	8b 4e 08	 mov	 ecx, DWORD PTR [esi+8]
  002f2	66 0f d6 06	 movq	 QWORD PTR [esi], xmm0
  002f6	8b 47 08	 mov	 eax, DWORD PTR [edi+8]
  002f9	89 46 08	 mov	 DWORD PTR [esi+8], eax

; 141  :     _Right   = _STD move(_Tmp);

  002fc	66 0f d6 0f	 movq	 QWORD PTR [edi], xmm1
  00300	89 4f 08	 mov	 DWORD PTR [edi+8], ecx
$LN12@Partition_:
; File C:\Program Files\Microsoft Visual Studio\2022\Professional\VC\Tools\MSVC\14.44.35207\include\algorithm

; 8332 :         for (; _First < _Glast; --_Glast) {

  00303	8b 45 0c	 mov	 eax, DWORD PTR __First$[ebp]
  00306	83 eb 0c	 sub	 ebx, 12			; 0000000cH
  00309	83 ef 0c	 sub	 edi, 12			; 0000000cH
  0030c	3b c3		 cmp	 eax, ebx
  0030e	0f 82 6c ff ff
	ff		 jb	 $LL14@Partition_

; 8335 :                 continue;
; 8336 :             } else if (_Pred(*_Pfirst, *_Glast_prev)) {

  00314	eb 03		 jmp	 SHORT $LN92@Partition_
$LN95@Partition_:
  00316	8b 45 0c	 mov	 eax, DWORD PTR __First$[ebp]
$LN92@Partition_:
  00319	8b 7d f4	 mov	 edi, DWORD PTR __Gfirst$1$[ebp]
  0031c	89 5d f8	 mov	 DWORD PTR __Glast$1$[ebp], ebx
  0031f	8b 55 f8	 mov	 edx, DWORD PTR __Glast$1$[ebp]

; 8339 :                 swap(*_Pfirst, *_Glast_prev); // intentional ADL
; 8340 :             }
; 8341 :         }
; 8342 : 
; 8343 :         if (_Glast == _First && _Gfirst == _Last) {

  00322	3b d0		 cmp	 edx, eax
  00324	8b 5d fc	 mov	 ebx, DWORD PTR __Plast$1$[ebp]
$LN118@Partition_:
  00327	75 59		 jne	 SHORT $LN27@Partition_
  00329	3b 7d 10	 cmp	 edi, DWORD PTR __Last$[ebp]
  0032c	0f 84 d0 00 00
	00		 je	 $LN70@Partition_

; 8344 :             return pair<_RanIt, _RanIt>(_Pfirst, _Plast);
; 8345 :         }
; 8346 : 
; 8347 :         if (_Glast == _First) { // no room at bottom, rotate pivot upward
; 8348 :             if (_Plast != _Gfirst) {

  00332	3b df		 cmp	 ebx, edi
  00334	74 1c		 je	 SHORT $LN48@Partition_
; File C:\Program Files\Microsoft Visual Studio\2022\Professional\VC\Tools\MSVC\14.44.35207\include\utility

; 140  :     _Left    = _STD move(_Right);

  00336	f3 0f 7e 03	 movq	 xmm0, QWORD PTR [ebx]
  0033a	f3 0f 7e 0e	 movq	 xmm1, QWORD PTR [esi]
  0033e	8b 4e 08	 mov	 ecx, DWORD PTR [esi+8]
  00341	66 0f d6 06	 movq	 QWORD PTR [esi], xmm0
  00345	8b 43 08	 mov	 eax, DWORD PTR [ebx+8]
  00348	89 46 08	 mov	 DWORD PTR [esi+8], eax

; 141  :     _Right   = _STD move(_Tmp);

  0034b	66 0f d6 0b	 movq	 QWORD PTR [ebx], xmm1
  0034f	89 4b 08	 mov	 DWORD PTR [ebx+8], ecx
$LN48@Partition_:

; 140  :     _Left    = _STD move(_Right);

  00352	f3 0f 7e 07	 movq	 xmm0, QWORD PTR [edi]
; File C:\Program Files\Microsoft Visual Studio\2022\Professional\VC\Tools\MSVC\14.44.35207\include\algorithm

; 8352 :             ++_Plast;

  00356	83 c3 0c	 add	 ebx, 12			; 0000000cH
; File C:\Program Files\Microsoft Visual Studio\2022\Professional\VC\Tools\MSVC\14.44.35207\include\utility

; 139  :     _Ty _Tmp = _STD move(_Left);

  00359	f3 0f 7e 0e	 movq	 xmm1, QWORD PTR [esi]
  0035d	8b 4e 08	 mov	 ecx, DWORD PTR [esi+8]

; 140  :     _Left    = _STD move(_Right);

  00360	66 0f d6 06	 movq	 QWORD PTR [esi], xmm0
  00364	8b 47 08	 mov	 eax, DWORD PTR [edi+8]
  00367	89 46 08	 mov	 DWORD PTR [esi+8], eax
; File C:\Program Files\Microsoft Visual Studio\2022\Professional\VC\Tools\MSVC\14.44.35207\include\algorithm

; 8354 :             ++_Pfirst;

  0036a	83 c6 0c	 add	 esi, 12			; 0000000cH

; 8355 :             ++_Gfirst;

  0036d	8b 45 10	 mov	 eax, DWORD PTR __Last$[ebp]
; File C:\Program Files\Microsoft Visual Studio\2022\Professional\VC\Tools\MSVC\14.44.35207\include\utility

; 141  :     _Right   = _STD move(_Tmp);

  00370	66 0f d6 0f	 movq	 QWORD PTR [edi], xmm1
  00374	89 4f 08	 mov	 DWORD PTR [edi+8], ecx
; File C:\Program Files\Microsoft Visual Studio\2022\Professional\VC\Tools\MSVC\14.44.35207\include\algorithm

; 8355 :             ++_Gfirst;

  00377	83 c7 0c	 add	 edi, 12			; 0000000cH
  0037a	89 5d fc	 mov	 DWORD PTR __Plast$1$[ebp], ebx
  0037d	e9 35 fe ff ff	 jmp	 $LN119@Partition_
$LN27@Partition_:

; 8356 :         } else if (_Gfirst == _Last) { // no room at top, rotate pivot downward

  00382	83 c2 f4	 add	 edx, -12		; fffffff4H
  00385	89 55 f8	 mov	 DWORD PTR __Glast$1$[ebp], edx
  00388	3b 7d 10	 cmp	 edi, DWORD PTR __Last$[ebp]
  0038b	75 4e		 jne	 SHORT $LN30@Partition_

; 8357 :             if (--_Glast != --_Pfirst) {

  0038d	83 ee 0c	 sub	 esi, 12			; 0000000cH
  00390	3b d6		 cmp	 edx, esi
  00392	74 1c		 je	 SHORT $LN54@Partition_
; File C:\Program Files\Microsoft Visual Studio\2022\Professional\VC\Tools\MSVC\14.44.35207\include\utility

; 140  :     _Left    = _STD move(_Right);

  00394	f3 0f 7e 06	 movq	 xmm0, QWORD PTR [esi]
  00398	f3 0f 7e 0a	 movq	 xmm1, QWORD PTR [edx]
  0039c	8b 4a 08	 mov	 ecx, DWORD PTR [edx+8]
  0039f	66 0f d6 02	 movq	 QWORD PTR [edx], xmm0
  003a3	8b 46 08	 mov	 eax, DWORD PTR [esi+8]
  003a6	89 42 08	 mov	 DWORD PTR [edx+8], eax

; 141  :     _Right   = _STD move(_Tmp);

  003a9	66 0f d6 0e	 movq	 QWORD PTR [esi], xmm1
  003ad	89 4e 08	 mov	 DWORD PTR [esi+8], ecx
$LN54@Partition_:

; 140  :     _Left    = _STD move(_Right);

  003b0	f3 0f 7e 43 f4	 movq	 xmm0, QWORD PTR [ebx-12]
; File C:\Program Files\Microsoft Visual Studio\2022\Professional\VC\Tools\MSVC\14.44.35207\include\algorithm

; 8361 :             swap(*_Pfirst, *--_Plast); // intentional ADL

  003b5	83 eb 0c	 sub	 ebx, 12			; 0000000cH
; File C:\Program Files\Microsoft Visual Studio\2022\Professional\VC\Tools\MSVC\14.44.35207\include\utility

; 139  :     _Ty _Tmp = _STD move(_Left);

  003b8	f3 0f 7e 0e	 movq	 xmm1, QWORD PTR [esi]
  003bc	8b 4e 08	 mov	 ecx, DWORD PTR [esi+8]

; 140  :     _Left    = _STD move(_Right);

  003bf	66 0f d6 06	 movq	 QWORD PTR [esi], xmm0
  003c3	8b 43 08	 mov	 eax, DWORD PTR [ebx+8]
  003c6	89 46 08	 mov	 DWORD PTR [esi+8], eax
; File C:\Program Files\Microsoft Visual Studio\2022\Professional\VC\Tools\MSVC\14.44.35207\include\algorithm

; 8362 :         } else {

  003c9	8b 45 10	 mov	 eax, DWORD PTR __Last$[ebp]
; File C:\Program Files\Microsoft Visual Studio\2022\Professional\VC\Tools\MSVC\14.44.35207\include\utility

; 141  :     _Right   = _STD move(_Tmp);

  003cc	66 0f d6 0b	 movq	 QWORD PTR [ebx], xmm1
; File C:\Program Files\Microsoft Visual Studio\2022\Professional\VC\Tools\MSVC\14.44.35207\include\algorithm

; 8361 :             swap(*_Pfirst, *--_Plast); // intentional ADL

  003d0	89 5d fc	 mov	 DWORD PTR __Plast$1$[ebp], ebx
; File C:\Program Files\Microsoft Visual Studio\2022\Professional\VC\Tools\MSVC\14.44.35207\include\utility

; 141  :     _Right   = _STD move(_Tmp);

  003d3	89 4b 08	 mov	 DWORD PTR [ebx+8], ecx
; File C:\Program Files\Microsoft Visual Studio\2022\Professional\VC\Tools\MSVC\14.44.35207\include\algorithm

; 8362 :         } else {

  003d6	e9 e5 fd ff ff	 jmp	 $LL8@Partition_
$LN30@Partition_:
; File C:\Program Files\Microsoft Visual Studio\2022\Professional\VC\Tools\MSVC\14.44.35207\include\utility

; 139  :     _Ty _Tmp = _STD move(_Left);

  003db	f3 0f 7e 0f	 movq	 xmm1, QWORD PTR [edi]
  003df	8b 4f 08	 mov	 ecx, DWORD PTR [edi+8]

; 140  :     _Left    = _STD move(_Right);

  003e2	f3 0f 7e 02	 movq	 xmm0, QWORD PTR [edx]
  003e6	66 0f d6 07	 movq	 QWORD PTR [edi], xmm0
  003ea	8b 42 08	 mov	 eax, DWORD PTR [edx+8]
  003ed	89 47 08	 mov	 DWORD PTR [edi+8], eax
; File C:\Program Files\Microsoft Visual Studio\2022\Professional\VC\Tools\MSVC\14.44.35207\include\algorithm

; 8364 :             ++_Gfirst;

  003f0	83 c7 0c	 add	 edi, 12			; 0000000cH
  003f3	8b 45 10	 mov	 eax, DWORD PTR __Last$[ebp]
; File C:\Program Files\Microsoft Visual Studio\2022\Professional\VC\Tools\MSVC\14.44.35207\include\utility

; 141  :     _Right   = _STD move(_Tmp);

  003f6	66 0f d6 0a	 movq	 QWORD PTR [edx], xmm1
  003fa	89 4a 08	 mov	 DWORD PTR [edx+8], ecx
  003fd	e9 b2 fd ff ff	 jmp	 $LN120@Partition_
$LN70@Partition_:

; 274  :         : first(_STD forward<_Other1>(_Val1)), second(_STD forward<_Other2>(_Val2)) {

  00402	8b 45 08	 mov	 eax, DWORD PTR ___$ReturnUdt$[ebp]
; File C:\Program Files\Microsoft Visual Studio\2022\Professional\VC\Tools\MSVC\14.44.35207\include\algorithm

; 8367 : }

  00405	5f		 pop	 edi
; File C:\Program Files\Microsoft Visual Studio\2022\Professional\VC\Tools\MSVC\14.44.35207\include\utility

; 274  :         : first(_STD forward<_Other1>(_Val1)), second(_STD forward<_Other2>(_Val2)) {

  00406	89 30		 mov	 DWORD PTR [eax], esi
; File C:\Program Files\Microsoft Visual Studio\2022\Professional\VC\Tools\MSVC\14.44.35207\include\algorithm

; 8367 : }

  00408	5e		 pop	 esi
; File C:\Program Files\Microsoft Visual Studio\2022\Professional\VC\Tools\MSVC\14.44.35207\include\utility

; 274  :         : first(_STD forward<_Other1>(_Val1)), second(_STD forward<_Other2>(_Val2)) {

  00409	89 58 04	 mov	 DWORD PTR [eax+4], ebx
; File C:\Program Files\Microsoft Visual Studio\2022\Professional\VC\Tools\MSVC\14.44.35207\include\algorithm

; 8367 : }

  0040c	5b		 pop	 ebx
  0040d	8b e5		 mov	 esp, ebp
  0040f	5d		 pop	 ebp
  00410	c3		 ret	 0
??$_Partition_by_median_guess_unchecked@PAU_REGION_GENERIC@@P6A_NU1@0@Z@std@@YA?AU?$pair@PAU_REGION_GENERIC@@PAU1@@0@PAU_REGION_GENERIC@@0P6A_NU2@1@Z@Z ENDP ; std::_Partition_by_median_guess_unchecked<_REGION_GENERIC *,bool (__cdecl*)(_REGION_GENERIC,_REGION_GENERIC)>
_TEXT	ENDS
; Function compile flags: /Ogtp
; File C:\Program Files\Microsoft Visual Studio\2022\Professional\VC\Tools\MSVC\14.44.35207\include\__msvc_heap_algorithms.hpp
;	COMDAT ??$_Make_heap_unchecked@PAU_REGION_GENERIC@@P6A_NU1@0@Z@std@@YAXPAU_REGION_GENERIC@@0P6A_NU1@1@Z@Z
_TEXT	SEGMENT
__Val$1$ = -32						; size = 8
tv208 = -24						; size = 4
tv271 = -20						; size = 4
__Idx$1$ = -16						; size = 4
__Bottom$1$ = -12					; size = 4
__Val$2$ = -8						; size = 4
__Max_sequence_non_leaf$1$ = -4				; size = 4
__First$ = 8						; size = 4
__Last$ = 12						; size = 4
__Hole$1$ = 12						; size = 4
__Pred$ = 16						; size = 4
??$_Make_heap_unchecked@PAU_REGION_GENERIC@@P6A_NU1@0@Z@std@@YAXPAU_REGION_GENERIC@@0P6A_NU1@1@Z@Z PROC ; std::_Make_heap_unchecked<_REGION_GENERIC *,bool (__cdecl*)(_REGION_GENERIC,_REGION_GENERIC)>, COMDAT

; 121  : _CONSTEXPR20 void _Make_heap_unchecked(_RanIt _First, _RanIt _Last, _Pr _Pred) {

  00000	55		 push	 ebp
  00001	8b ec		 mov	 ebp, esp
  00003	83 ec 20	 sub	 esp, 32			; 00000020H

; 122  :     // make [_First, _Last) into a heap
; 123  :     using _Diff   = _Iter_diff_t<_RanIt>;
; 124  :     _Diff _Bottom = _Last - _First;

  00006	8b 4d 0c	 mov	 ecx, DWORD PTR __Last$[ebp]
  00009	b8 ab aa aa 2a	 mov	 eax, 715827883		; 2aaaaaabH
  0000e	53		 push	 ebx
  0000f	56		 push	 esi
  00010	57		 push	 edi
  00011	8b 7d 08	 mov	 edi, DWORD PTR __First$[ebp]
  00014	2b cf		 sub	 ecx, edi
  00016	f7 e9		 imul	 ecx
  00018	d1 fa		 sar	 edx, 1
  0001a	8b ca		 mov	 ecx, edx
  0001c	c1 e9 1f	 shr	 ecx, 31			; 0000001fH
  0001f	03 ca		 add	 ecx, edx

; 125  :     for (_Diff _Hole = _Bottom >> 1; _Hole > 0;) { // shift for codegen

  00021	8b d9		 mov	 ebx, ecx
  00023	89 4d f4	 mov	 DWORD PTR __Bottom$1$[ebp], ecx
  00026	d1 fb		 sar	 ebx, 1
  00028	85 db		 test	 ebx, ebx
  0002a	0f 8e 6d 01 00
	00		 jle	 $LN3@Make_heap_

; 122  :     // make [_First, _Last) into a heap
; 123  :     using _Diff   = _Iter_diff_t<_RanIt>;
; 124  :     _Diff _Bottom = _Last - _First;

  00030	8d 41 ff	 lea	 eax, DWORD PTR [ecx-1]
  00033	89 45 ec	 mov	 DWORD PTR tv271[ebp], eax
  00036	d1 f8		 sar	 eax, 1
  00038	89 45 fc	 mov	 DWORD PTR __Max_sequence_non_leaf$1$[ebp], eax
  0003b	8d 04 5b	 lea	 eax, DWORD PTR [ebx+ebx*2]
  0003e	8d 04 87	 lea	 eax, DWORD PTR [edi+eax*4]
$LL4@Make_heap_:

; 126  :         // reheap top half, bottom to top
; 127  :         --_Hole;
; 128  :         _Iter_value_t<_RanIt> _Val(_STD move(*(_First + _Hole)));

  00041	f3 0f 7e 48 f4	 movq	 xmm1, QWORD PTR [eax-12]
  00046	83 e8 0c	 sub	 eax, 12			; 0000000cH
  00049	4b		 dec	 ebx
  0004a	89 45 e8	 mov	 DWORD PTR tv208[ebp], eax
  0004d	89 5d 0c	 mov	 DWORD PTR __Hole$1$[ebp], ebx

; 129  :         _STD _Pop_heap_hole_by_index(_First, _Hole, _Bottom, _STD move(_Val), _Pred);

  00050	8b f3		 mov	 esi, ebx
  00052	66 0f d6 4d e0	 movq	 QWORD PTR __Val$1$[ebp], xmm1
  00057	8b 40 08	 mov	 eax, DWORD PTR [eax+8]
  0005a	89 45 f8	 mov	 DWORD PTR __Val$2$[ebp], eax

; 69   :     while (_Idx < _Max_sequence_non_leaf) { // move _Hole down to larger child

  0005d	8b 45 fc	 mov	 eax, DWORD PTR __Max_sequence_non_leaf$1$[ebp]
  00060	89 5d f0	 mov	 DWORD PTR __Idx$1$[ebp], ebx
  00063	3b d8		 cmp	 ebx, eax
  00065	0f 8d 7c 00 00
	00		 jge	 $LN8@Make_heap_
  0006b	8b 5d 08	 mov	 ebx, DWORD PTR __First$[ebp]
  0006e	8b fe		 mov	 edi, esi
$LL7@Make_heap_:

; 70   :         _Idx = 2 * _Idx + 2;

  00070	03 ff		 add	 edi, edi

; 71   :         if (_DEBUG_LT_PRED(_Pred, *(_First + _Idx), *(_First + (_Idx - 1)))) {

  00072	83 ec 0c	 sub	 esp, 12			; 0000000cH
  00075	8b cc		 mov	 ecx, esp
  00077	83 ec 0c	 sub	 esp, 12			; 0000000cH
  0007a	8d 47 02	 lea	 eax, DWORD PTR [edi+2]
  0007d	8d 04 40	 lea	 eax, DWORD PTR [eax+eax*2]
  00080	f3 0f 7e 44 83
	f4		 movq	 xmm0, QWORD PTR [ebx+eax*4-12]
  00086	8d 14 83	 lea	 edx, DWORD PTR [ebx+eax*4]
  00089	8b 42 fc	 mov	 eax, DWORD PTR [edx-4]
  0008c	66 0f d6 01	 movq	 QWORD PTR [ecx], xmm0
  00090	f3 0f 7e 02	 movq	 xmm0, QWORD PTR [edx]
  00094	89 41 08	 mov	 DWORD PTR [ecx+8], eax
  00097	8b cc		 mov	 ecx, esp
  00099	8b 42 08	 mov	 eax, DWORD PTR [edx+8]
  0009c	66 0f d6 01	 movq	 QWORD PTR [ecx], xmm0
  000a0	89 41 08	 mov	 DWORD PTR [ecx+8], eax
  000a3	ff 55 10	 call	 DWORD PTR __Pred$[ebp]

; 72   :             --_Idx;
; 73   :         }
; 74   :         *(_First + _Hole) = _STD move(*(_First + _Idx));

  000a6	0f b6 c0	 movzx	 eax, al
  000a9	83 c4 18	 add	 esp, 24			; 00000018H
  000ac	f7 d8		 neg	 eax
  000ae	1b c0		 sbb	 eax, eax
  000b0	83 c0 02	 add	 eax, 2
  000b3	03 f8		 add	 edi, eax
  000b5	8d 04 7f	 lea	 eax, DWORD PTR [edi+edi*2]
  000b8	f3 0f 7e 04 83	 movq	 xmm0, QWORD PTR [ebx+eax*4]
  000bd	8d 14 83	 lea	 edx, DWORD PTR [ebx+eax*4]
  000c0	8d 04 76	 lea	 eax, DWORD PTR [esi+esi*2]

; 75   :         _Hole             = _Idx;

  000c3	8b f7		 mov	 esi, edi
  000c5	8d 0c 83	 lea	 ecx, DWORD PTR [ebx+eax*4]
  000c8	66 0f d6 01	 movq	 QWORD PTR [ecx], xmm0
  000cc	8b 42 08	 mov	 eax, DWORD PTR [edx+8]
  000cf	89 41 08	 mov	 DWORD PTR [ecx+8], eax
  000d2	8b 45 fc	 mov	 eax, DWORD PTR __Max_sequence_non_leaf$1$[ebp]
  000d5	3b f8		 cmp	 edi, eax
  000d7	7c 97		 jl	 SHORT $LL7@Make_heap_
  000d9	f3 0f 7e 4d e0	 movq	 xmm1, QWORD PTR __Val$1$[ebp]
  000de	8b 5d 0c	 mov	 ebx, DWORD PTR __Hole$1$[ebp]
  000e1	8b 7d 08	 mov	 edi, DWORD PTR __First$[ebp]
  000e4	8b 4d f4	 mov	 ecx, DWORD PTR __Bottom$1$[ebp]
$LN8@Make_heap_:

; 76   :     }
; 77   : 
; 78   :     if (_Idx == _Max_sequence_non_leaf && _Bottom % 2 == 0) { // only child at bottom, move _Hole down to it

  000e7	3b f0		 cmp	 esi, eax
  000e9	75 24		 jne	 SHORT $LN10@Make_heap_
  000eb	f6 c1 01	 test	 cl, 1
  000ee	75 1f		 jne	 SHORT $LN10@Make_heap_

; 79   :         *(_First + _Hole) = _STD move(*(_First + (_Bottom - 1)));

  000f0	8d 04 49	 lea	 eax, DWORD PTR [ecx+ecx*2]
  000f3	f3 0f 7e 44 87
	f4		 movq	 xmm0, QWORD PTR [edi+eax*4-12]
  000f9	8d 14 87	 lea	 edx, DWORD PTR [edi+eax*4]
  000fc	8d 04 76	 lea	 eax, DWORD PTR [esi+esi*2]

; 80   :         _Hole             = _Bottom - 1;

  000ff	8b 75 ec	 mov	 esi, DWORD PTR tv271[ebp]
  00102	8d 0c 87	 lea	 ecx, DWORD PTR [edi+eax*4]
  00105	66 0f d6 01	 movq	 QWORD PTR [ecx], xmm0
  00109	8b 42 fc	 mov	 eax, DWORD PTR [edx-4]
  0010c	89 41 08	 mov	 DWORD PTR [ecx+8], eax
$LN10@Make_heap_:

; 27   :         _Top < _Hole && _DEBUG_LT_PRED(_Pred, *(_First + _Idx), _Val); _Idx = (_Hole - 1) >> 1) { // shift for codegen

  0010f	3b de		 cmp	 ebx, esi
  00111	7d 68		 jge	 SHORT $LN14@Make_heap_
$LL15@Make_heap_:
  00113	8b 4d 08	 mov	 ecx, DWORD PTR __First$[ebp]
  00116	8d 7e ff	 lea	 edi, DWORD PTR [esi-1]
  00119	d1 ff		 sar	 edi, 1
  0011b	83 ec 0c	 sub	 esp, 12			; 0000000cH
  0011e	8d 04 7f	 lea	 eax, DWORD PTR [edi+edi*2]
  00121	f3 0f 7e 04 81	 movq	 xmm0, QWORD PTR [ecx+eax*4]
  00126	8d 1c 81	 lea	 ebx, DWORD PTR [ecx+eax*4]
  00129	8b 4d f8	 mov	 ecx, DWORD PTR __Val$2$[ebp]
  0012c	8b c4		 mov	 eax, esp
  0012e	83 ec 0c	 sub	 esp, 12			; 0000000cH
  00131	66 0f d6 08	 movq	 QWORD PTR [eax], xmm1
  00135	89 48 08	 mov	 DWORD PTR [eax+8], ecx
  00138	8b cc		 mov	 ecx, esp
  0013a	8b 43 08	 mov	 eax, DWORD PTR [ebx+8]
  0013d	66 0f d6 01	 movq	 QWORD PTR [ecx], xmm0
  00141	89 41 08	 mov	 DWORD PTR [ecx+8], eax
  00144	ff 55 10	 call	 DWORD PTR __Pred$[ebp]
  00147	83 c4 18	 add	 esp, 24			; 00000018H
  0014a	84 c0		 test	 al, al
  0014c	74 27		 je	 SHORT $LN30@Make_heap_

; 28   :         // move _Hole up to parent
; 29   :         *(_First + _Hole) = _STD move(*(_First + _Idx));

  0014e	8b 4d 08	 mov	 ecx, DWORD PTR __First$[ebp]
  00151	8d 04 76	 lea	 eax, DWORD PTR [esi+esi*2]
  00154	f3 0f 7e 03	 movq	 xmm0, QWORD PTR [ebx]
  00158	8d 0c 81	 lea	 ecx, DWORD PTR [ecx+eax*4]
  0015b	f3 0f 7e 4d e0	 movq	 xmm1, QWORD PTR __Val$1$[ebp]

; 30   :         _Hole             = _Idx;

  00160	8b f7		 mov	 esi, edi
  00162	66 0f d6 01	 movq	 QWORD PTR [ecx], xmm0
  00166	8b 43 08	 mov	 eax, DWORD PTR [ebx+8]
  00169	8b 5d 0c	 mov	 ebx, DWORD PTR __Hole$1$[ebp]
  0016c	89 41 08	 mov	 DWORD PTR [ecx+8], eax
  0016f	3b df		 cmp	 ebx, edi
  00171	7c a0		 jl	 SHORT $LL15@Make_heap_

; 27   :         _Top < _Hole && _DEBUG_LT_PRED(_Pred, *(_First + _Idx), _Val); _Idx = (_Hole - 1) >> 1) { // shift for codegen

  00173	eb 03		 jmp	 SHORT $LN29@Make_heap_
$LN30@Make_heap_:
  00175	8b 5d 0c	 mov	 ebx, DWORD PTR __Hole$1$[ebp]
$LN29@Make_heap_:
  00178	8b 7d 08	 mov	 edi, DWORD PTR __First$[ebp]
$LN14@Make_heap_:

; 31   :     }
; 32   : 
; 33   :     *(_First + _Hole) = _STD forward<_Ty>(_Val); // drop _Val into final hole

  0017b	f3 0f 7e 45 e0	 movq	 xmm0, QWORD PTR __Val$1$[ebp]
  00180	8d 04 76	 lea	 eax, DWORD PTR [esi+esi*2]
  00183	8b 4d f8	 mov	 ecx, DWORD PTR __Val$2$[ebp]
  00186	66 0f d6 04 87	 movq	 QWORD PTR [edi+eax*4], xmm0
  0018b	89 4c 87 08	 mov	 DWORD PTR [edi+eax*4+8], ecx

; 125  :     for (_Diff _Hole = _Bottom >> 1; _Hole > 0;) { // shift for codegen

  0018f	8b 4d f4	 mov	 ecx, DWORD PTR __Bottom$1$[ebp]
  00192	8b 45 e8	 mov	 eax, DWORD PTR tv208[ebp]
  00195	85 db		 test	 ebx, ebx
  00197	0f 8f a4 fe ff
	ff		 jg	 $LL4@Make_heap_
$LN3@Make_heap_:

; 130  :     }
; 131  : }

  0019d	5f		 pop	 edi
  0019e	5e		 pop	 esi
  0019f	5b		 pop	 ebx
  001a0	8b e5		 mov	 esp, ebp
  001a2	5d		 pop	 ebp
  001a3	c3		 ret	 0
??$_Make_heap_unchecked@PAU_REGION_GENERIC@@P6A_NU1@0@Z@std@@YAXPAU_REGION_GENERIC@@0P6A_NU1@1@Z@Z ENDP ; std::_Make_heap_unchecked<_REGION_GENERIC *,bool (__cdecl*)(_REGION_GENERIC,_REGION_GENERIC)>
_TEXT	ENDS
; Function compile flags: /Ogtp
; File C:\Program Files\Microsoft Visual Studio\2022\Professional\VC\Tools\MSVC\14.44.35207\include\xmemory
;	COMDAT ??1?$_Alloc_construct_ptr@V?$allocator@U?$_Tree_node@U?$pair@$$CBHPAVCSpawn@@@std@@PAX@std@@@std@@@std@@QAE@XZ
_TEXT	SEGMENT
??1?$_Alloc_construct_ptr@V?$allocator@U?$_Tree_node@U?$pair@$$CBHPAVCSpawn@@@std@@PAX@std@@@std@@@std@@QAE@XZ PROC ; std::_Alloc_construct_ptr<std::allocator<std::_Tree_node<std::pair<int const ,CSpawn *>,void *> > >::~_Alloc_construct_ptr<std::allocator<std::_Tree_node<std::pair<int const ,CSpawn *>,void *> > >, COMDAT
; _this$ = ecx

; 1172 :         if (_Ptr) {

  00000	8b 41 04	 mov	 eax, DWORD PTR [ecx+4]
  00003	85 c0		 test	 eax, eax
  00005	74 0b		 je	 SHORT $LN10@Alloc_cons

; 289  :         ::operator delete(_Ptr, _Bytes);

  00007	6a 18		 push	 24			; 00000018H
  00009	50		 push	 eax
  0000a	e8 00 00 00 00	 call	 ??3@YAXPAXI@Z		; operator delete
  0000f	83 c4 08	 add	 esp, 8
$LN10@Alloc_cons:

; 1173 :             _Al.deallocate(_Ptr, 1);
; 1174 :         }
; 1175 :     }

  00012	c3		 ret	 0
??1?$_Alloc_construct_ptr@V?$allocator@U?$_Tree_node@U?$pair@$$CBHPAVCSpawn@@@std@@PAX@std@@@std@@@std@@QAE@XZ ENDP ; std::_Alloc_construct_ptr<std::allocator<std::_Tree_node<std::pair<int const ,CSpawn *>,void *> > >::~_Alloc_construct_ptr<std::allocator<std::_Tree_node<std::pair<int const ,CSpawn *>,void *> > >
_TEXT	ENDS
; Function compile flags: /Ogtp
; File C:\Program Files\Microsoft Visual Studio\2022\Professional\VC\Tools\MSVC\14.44.35207\include\xmemory
;	COMDAT ??1?$_Alloc_construct_ptr@V?$allocator@U?$_Tree_node@U?$pair@$$CBHPAV?$list@PAVCEventItem@@V?$allocator@PAVCEventItem@@@std@@@std@@@std@@PAX@std@@@std@@@std@@QAE@XZ
_TEXT	SEGMENT
??1?$_Alloc_construct_ptr@V?$allocator@U?$_Tree_node@U?$pair@$$CBHPAV?$list@PAVCEventItem@@V?$allocator@PAVCEventItem@@@std@@@std@@@std@@PAX@std@@@std@@@std@@QAE@XZ PROC ; std::_Alloc_construct_ptr<std::allocator<std::_Tree_node<std::pair<int const ,std::list<CEventItem *,std::allocator<CEventItem *> > *>,void *> > >::~_Alloc_construct_ptr<std::allocator<std::_Tree_node<std::pair<int const ,std::list<CEventItem *,std::allocator<CEventItem *> > *>,void *> > >, COMDAT
; _this$ = ecx

; 1172 :         if (_Ptr) {

  00000	8b 41 04	 mov	 eax, DWORD PTR [ecx+4]
  00003	85 c0		 test	 eax, eax
  00005	74 0b		 je	 SHORT $LN10@Alloc_cons

; 289  :         ::operator delete(_Ptr, _Bytes);

  00007	6a 18		 push	 24			; 00000018H
  00009	50		 push	 eax
  0000a	e8 00 00 00 00	 call	 ??3@YAXPAXI@Z		; operator delete
  0000f	83 c4 08	 add	 esp, 8
$LN10@Alloc_cons:

; 1173 :             _Al.deallocate(_Ptr, 1);
; 1174 :         }
; 1175 :     }

  00012	c3		 ret	 0
??1?$_Alloc_construct_ptr@V?$allocator@U?$_Tree_node@U?$pair@$$CBHPAV?$list@PAVCEventItem@@V?$allocator@PAVCEventItem@@@std@@@std@@@std@@PAX@std@@@std@@@std@@QAE@XZ ENDP ; std::_Alloc_construct_ptr<std::allocator<std::_Tree_node<std::pair<int const ,std::list<CEventItem *,std::allocator<CEventItem *> > *>,void *> > >::~_Alloc_construct_ptr<std::allocator<std::_Tree_node<std::pair<int const ,std::list<CEventItem *,std::allocator<CEventItem *> > *>,void *> > >
_TEXT	ENDS
; Function compile flags: /Ogtp
; File C:\Program Files\Microsoft Visual Studio\2022\Professional\VC\Tools\MSVC\14.44.35207\include\xtree
; File C:\Program Files\Microsoft Visual Studio\2022\Professional\VC\Tools\MSVC\14.44.35207\include\type_traits
; File C:\Program Files\Microsoft Visual Studio\2022\Professional\VC\Tools\MSVC\14.44.35207\include\xtree
; File C:\Program Files\Microsoft Visual Studio\2022\Professional\VC\Tools\MSVC\14.44.35207\include\type_traits
; File C:\Program Files\Microsoft Visual Studio\2022\Professional\VC\Tools\MSVC\14.44.35207\include\xtree
;	COMDAT ??$_Find_lower_bound@H@?$_Tree@V?$_Tmap_traits@HPAV?$list@PAVCEventItem@@V?$allocator@PAVCEventItem@@@std@@@std@@U?$less@H@2@V?$allocator@U?$pair@$$CBHPAV?$list@PAVCEventItem@@V?$allocator@PAVCEventItem@@@std@@@std@@@std@@@2@$0A@@std@@@std@@IBE?AU?$_Tree_find_result@PAU?$_Tree_node@U?$pair@$$CBHPAV?$list@PAVCEventItem@@V?$allocator@PAVCEventItem@@@std@@@std@@@std@@PAX@std@@@1@ABH@Z
_TEXT	SEGMENT
___$ReturnUdt$ = 8					; size = 4
__Keyval$ = 12						; size = 4
??$_Find_lower_bound@H@?$_Tree@V?$_Tmap_traits@HPAV?$list@PAVCEventItem@@V?$allocator@PAVCEventItem@@@std@@@std@@U?$less@H@2@V?$allocator@U?$pair@$$CBHPAV?$list@PAVCEventItem@@V?$allocator@PAVCEventItem@@@std@@@std@@@std@@@2@$0A@@std@@@std@@IBE?AU?$_Tree_find_result@PAU?$_Tree_node@U?$pair@$$CBHPAV?$list@PAVCEventItem@@V?$allocator@PAVCEventItem@@@std@@@std@@@std@@PAX@std@@@1@ABH@Z PROC ; std::_Tree<std::_Tmap_traits<int,std::list<CEventItem *,std::allocator<CEventItem *> > *,std::less<int>,std::allocator<std::pair<int const ,std::list<CEventItem *,std::allocator<CEventItem *> > *> >,0> >::_Find_lower_bound<int>, COMDAT
; _this$ = ecx

; 1628 :     _Tree_find_result<_Nodeptr> _Find_lower_bound(const _Keyty& _Keyval) const {

  00000	55		 push	 ebp
  00001	8b ec		 mov	 ebp, esp

; 1629 :         const auto _Scary = _Get_scary();
; 1630 :         _Tree_find_result<_Nodeptr> _Result{{_Scary->_Myhead->_Parent, _Tree_child::_Right}, _Scary->_Myhead};

  00003	8b 09		 mov	 ecx, DWORD PTR [ecx]
  00005	8b 55 08	 mov	 edx, DWORD PTR ___$ReturnUdt$[ebp]
  00008	8b 41 04	 mov	 eax, DWORD PTR [ecx+4]
  0000b	89 02		 mov	 DWORD PTR [edx], eax
  0000d	c7 42 04 00 00
	00 00		 mov	 DWORD PTR [edx+4], 0
  00014	89 4a 08	 mov	 DWORD PTR [edx+8], ecx

; 1631 :         _Nodeptr _Trynode = _Result._Location._Parent;
; 1632 :         while (!_Trynode->_Isnil) {

  00017	80 78 0d 00	 cmp	 BYTE PTR [eax+13], 0
  0001b	75 28		 jne	 SHORT $LN13@Find_lower
; File C:\Program Files\Microsoft Visual Studio\2022\Professional\VC\Tools\MSVC\14.44.35207\include\type_traits

; 2380 :         return _Left < _Right;

  0001d	8b 4d 0c	 mov	 ecx, DWORD PTR __Keyval$[ebp]
  00020	56		 push	 esi
  00021	8b 31		 mov	 esi, DWORD PTR [ecx]
$LL2@Find_lower:
; File C:\Program Files\Microsoft Visual Studio\2022\Professional\VC\Tools\MSVC\14.44.35207\include\xtree

; 1633 :             _Result._Location._Parent = _Trynode;

  00023	89 02		 mov	 DWORD PTR [edx], eax
; File C:\Program Files\Microsoft Visual Studio\2022\Professional\VC\Tools\MSVC\14.44.35207\include\type_traits

; 2380 :         return _Left < _Right;

  00025	39 70 10	 cmp	 DWORD PTR [eax+16], esi
; File C:\Program Files\Microsoft Visual Studio\2022\Professional\VC\Tools\MSVC\14.44.35207\include\xtree

; 1634 :             if (_DEBUG_LT_PRED(_Getcomp(), _Traits::_Kfn(_Trynode->_Myval), _Keyval)) {

  00028	7d 07		 jge	 SHORT $LN4@Find_lower

; 1635 :                 _Result._Location._Child = _Tree_child::_Right;
; 1636 :                 _Trynode                 = _Trynode->_Right;

  0002a	8b 40 08	 mov	 eax, DWORD PTR [eax+8]
  0002d	33 c9		 xor	 ecx, ecx

; 1637 :             } else {

  0002f	eb 0a		 jmp	 SHORT $LN5@Find_lower
$LN4@Find_lower:

; 1638 :                 _Result._Location._Child = _Tree_child::_Left;
; 1639 :                 _Result._Bound           = _Trynode;

  00031	89 42 08	 mov	 DWORD PTR [edx+8], eax

; 1640 :                 _Trynode                 = _Trynode->_Left;

  00034	b9 01 00 00 00	 mov	 ecx, 1
  00039	8b 00		 mov	 eax, DWORD PTR [eax]
$LN5@Find_lower:

; 1631 :         _Nodeptr _Trynode = _Result._Location._Parent;
; 1632 :         while (!_Trynode->_Isnil) {

  0003b	89 4a 04	 mov	 DWORD PTR [edx+4], ecx
  0003e	80 78 0d 00	 cmp	 BYTE PTR [eax+13], 0
  00042	74 df		 je	 SHORT $LL2@Find_lower
  00044	5e		 pop	 esi
$LN13@Find_lower:

; 1641 :             }
; 1642 :         }
; 1643 : 
; 1644 :         return _Result;
; 1645 :     }

  00045	8b c2		 mov	 eax, edx
  00047	5d		 pop	 ebp
  00048	c2 08 00	 ret	 8
??$_Find_lower_bound@H@?$_Tree@V?$_Tmap_traits@HPAV?$list@PAVCEventItem@@V?$allocator@PAVCEventItem@@@std@@@std@@U?$less@H@2@V?$allocator@U?$pair@$$CBHPAV?$list@PAVCEventItem@@V?$allocator@PAVCEventItem@@@std@@@std@@@std@@@2@$0A@@std@@@std@@IBE?AU?$_Tree_find_result@PAU?$_Tree_node@U?$pair@$$CBHPAV?$list@PAVCEventItem@@V?$allocator@PAVCEventItem@@@std@@@std@@@std@@PAX@std@@@1@ABH@Z ENDP ; std::_Tree<std::_Tmap_traits<int,std::list<CEventItem *,std::allocator<CEventItem *> > *,std::less<int>,std::allocator<std::pair<int const ,std::list<CEventItem *,std::allocator<CEventItem *> > *> >,0> >::_Find_lower_bound<int>
_TEXT	ENDS
; Function compile flags: /Ogtp
; File C:\Program Files\Microsoft Visual Studio\2022\Professional\VC\Tools\MSVC\14.44.35207\include\xtree
; File C:\Program Files\Microsoft Visual Studio\2022\Professional\VC\Tools\MSVC\14.44.35207\include\utility
; File C:\Program Files\Microsoft Visual Studio\2022\Professional\VC\Tools\MSVC\14.44.35207\include\xmemory
; File C:\Program Files\Microsoft Visual Studio\2022\Professional\VC\Tools\MSVC\14.44.35207\include\xtree
;	COMDAT ??$_Erase_tree@V?$allocator@U?$_Tree_node@U?$pair@$$CBHPAV?$list@PAVCEventItem@@V?$allocator@PAVCEventItem@@@std@@@std@@@std@@PAX@std@@@std@@@?$_Tree_val@U?$_Tree_simple_types@U?$pair@$$CBHPAV?$list@PAVCEventItem@@V?$allocator@PAVCEventItem@@@std@@@std@@@std@@@std@@@std@@QAEXAAV?$allocator@U?$_Tree_node@U?$pair@$$CBHPAV?$list@PAVCEventItem@@V?$allocator@PAVCEventItem@@@std@@@std@@@std@@PAX@std@@@1@PAU?$_Tree_node@U?$pair@$$CBHPAV?$list@PAVCEventItem@@V?$allocator@PAVCEventItem@@@std@@@std@@@std@@PAX@1@@Z
_TEXT	SEGMENT
__Al$ = 8						; size = 4
__Rootnode$ = 12					; size = 4
??$_Erase_tree@V?$allocator@U?$_Tree_node@U?$pair@$$CBHPAV?$list@PAVCEventItem@@V?$allocator@PAVCEventItem@@@std@@@std@@@std@@PAX@std@@@std@@@?$_Tree_val@U?$_Tree_simple_types@U?$pair@$$CBHPAV?$list@PAVCEventItem@@V?$allocator@PAVCEventItem@@@std@@@std@@@std@@@std@@@std@@QAEXAAV?$allocator@U?$_Tree_node@U?$pair@$$CBHPAV?$list@PAVCEventItem@@V?$allocator@PAVCEventItem@@@std@@@std@@@std@@PAX@std@@@1@PAU?$_Tree_node@U?$pair@$$CBHPAV?$list@PAVCEventItem@@V?$allocator@PAVCEventItem@@@std@@@std@@@std@@PAX@1@@Z PROC ; std::_Tree_val<std::_Tree_simple_types<std::pair<int const ,std::list<CEventItem *,std::allocator<CEventItem *> > *> > >::_Erase_tree<std::allocator<std::_Tree_node<std::pair<int const ,std::list<CEventItem *,std::allocator<CEventItem *> > *>,void *> > >, COMDAT
; _this$ = ecx

; 767  :     void _Erase_tree(_Alnode& _Al, _Nodeptr _Rootnode) noexcept {

  00000	55		 push	 ebp
  00001	8b ec		 mov	 ebp, esp
  00003	53		 push	 ebx
  00004	56		 push	 esi

; 768  :         while (!_Rootnode->_Isnil) { // free subtrees, then node

  00005	8b 75 0c	 mov	 esi, DWORD PTR __Rootnode$[ebp]
  00008	8b d9		 mov	 ebx, ecx
  0000a	80 7e 0d 00	 cmp	 BYTE PTR [esi+13], 0
  0000e	75 25		 jne	 SHORT $LN34@Erase_tree
  00010	57		 push	 edi
  00011	8b 7d 08	 mov	 edi, DWORD PTR __Al$[ebp]
$LL2@Erase_tree:

; 769  :             _Erase_tree(_Al, _Rootnode->_Right);

  00014	ff 76 08	 push	 DWORD PTR [esi+8]
  00017	8b cb		 mov	 ecx, ebx
  00019	57		 push	 edi
  0001a	e8 00 00 00 00	 call	 ??$_Erase_tree@V?$allocator@U?$_Tree_node@U?$pair@$$CBHPAV?$list@PAVCEventItem@@V?$allocator@PAVCEventItem@@@std@@@std@@@std@@PAX@std@@@std@@@?$_Tree_val@U?$_Tree_simple_types@U?$pair@$$CBHPAV?$list@PAVCEventItem@@V?$allocator@PAVCEventItem@@@std@@@std@@@std@@@std@@@std@@QAEXAAV?$allocator@U?$_Tree_node@U?$pair@$$CBHPAV?$list@PAVCEventItem@@V?$allocator@PAVCEventItem@@@std@@@std@@@std@@PAX@std@@@1@PAU?$_Tree_node@U?$pair@$$CBHPAV?$list@PAVCEventItem@@V?$allocator@PAVCEventItem@@@std@@@std@@@std@@PAX@1@@Z ; std::_Tree_val<std::_Tree_simple_types<std::pair<int const ,std::list<CEventItem *,std::allocator<CEventItem *> > *> > >::_Erase_tree<std::allocator<std::_Tree_node<std::pair<int const ,std::list<CEventItem *,std::allocator<CEventItem *> > *>,void *> > >
; File C:\Program Files\Microsoft Visual Studio\2022\Professional\VC\Tools\MSVC\14.44.35207\include\utility

; 773  :     _Ty _Old_val = static_cast<_Ty&&>(_Val);

  0001f	8b c6		 mov	 eax, esi

; 774  :     _Val         = static_cast<_Other&&>(_New_val);

  00021	8b 36		 mov	 esi, DWORD PTR [esi]
; File C:\Program Files\Microsoft Visual Studio\2022\Professional\VC\Tools\MSVC\14.44.35207\include\xmemory

; 289  :         ::operator delete(_Ptr, _Bytes);

  00023	6a 18		 push	 24			; 00000018H
  00025	50		 push	 eax
  00026	e8 00 00 00 00	 call	 ??3@YAXPAXI@Z		; operator delete
  0002b	83 c4 08	 add	 esp, 8
; File C:\Program Files\Microsoft Visual Studio\2022\Professional\VC\Tools\MSVC\14.44.35207\include\xtree

; 768  :         while (!_Rootnode->_Isnil) { // free subtrees, then node

  0002e	80 7e 0d 00	 cmp	 BYTE PTR [esi+13], 0
  00032	74 e0		 je	 SHORT $LL2@Erase_tree
  00034	5f		 pop	 edi
$LN34@Erase_tree:
  00035	5e		 pop	 esi

; 770  :             _Alnode::value_type::_Freenode(_Al, _STD exchange(_Rootnode, _Rootnode->_Left));
; 771  :         }
; 772  :     }

  00036	5b		 pop	 ebx
  00037	5d		 pop	 ebp
  00038	c2 08 00	 ret	 8
??$_Erase_tree@V?$allocator@U?$_Tree_node@U?$pair@$$CBHPAV?$list@PAVCEventItem@@V?$allocator@PAVCEventItem@@@std@@@std@@@std@@PAX@std@@@std@@@?$_Tree_val@U?$_Tree_simple_types@U?$pair@$$CBHPAV?$list@PAVCEventItem@@V?$allocator@PAVCEventItem@@@std@@@std@@@std@@@std@@@std@@QAEXAAV?$allocator@U?$_Tree_node@U?$pair@$$CBHPAV?$list@PAVCEventItem@@V?$allocator@PAVCEventItem@@@std@@@std@@@std@@PAX@std@@@1@PAU?$_Tree_node@U?$pair@$$CBHPAV?$list@PAVCEventItem@@V?$allocator@PAVCEventItem@@@std@@@std@@@std@@PAX@1@@Z ENDP ; std::_Tree_val<std::_Tree_simple_types<std::pair<int const ,std::list<CEventItem *,std::allocator<CEventItem *> > *> > >::_Erase_tree<std::allocator<std::_Tree_node<std::pair<int const ,std::list<CEventItem *,std::allocator<CEventItem *> > *>,void *> > >
_TEXT	ENDS
; Function compile flags: /Ogtp
; File C:\Program Files\Microsoft Visual Studio\2022\Professional\VC\Tools\MSVC\14.44.35207\include\xtree
; File C:\Program Files\Microsoft Visual Studio\2022\Professional\VC\Tools\MSVC\14.44.35207\include\utility
; File C:\Program Files\Microsoft Visual Studio\2022\Professional\VC\Tools\MSVC\14.44.35207\include\xmemory
; File C:\Program Files\Microsoft Visual Studio\2022\Professional\VC\Tools\MSVC\14.44.35207\include\xtree
;	COMDAT ??$_Erase_tree@V?$allocator@U?$_Tree_node@U?$pair@$$CBHPAVCSpawn@@@std@@PAX@std@@@std@@@?$_Tree_val@U?$_Tree_simple_types@U?$pair@$$CBHPAVCSpawn@@@std@@@std@@@std@@QAEXAAV?$allocator@U?$_Tree_node@U?$pair@$$CBHPAVCSpawn@@@std@@PAX@std@@@1@PAU?$_Tree_node@U?$pair@$$CBHPAVCSpawn@@@std@@PAX@1@@Z
_TEXT	SEGMENT
__Al$ = 8						; size = 4
__Rootnode$ = 12					; size = 4
??$_Erase_tree@V?$allocator@U?$_Tree_node@U?$pair@$$CBHPAVCSpawn@@@std@@PAX@std@@@std@@@?$_Tree_val@U?$_Tree_simple_types@U?$pair@$$CBHPAVCSpawn@@@std@@@std@@@std@@QAEXAAV?$allocator@U?$_Tree_node@U?$pair@$$CBHPAVCSpawn@@@std@@PAX@std@@@1@PAU?$_Tree_node@U?$pair@$$CBHPAVCSpawn@@@std@@PAX@1@@Z PROC ; std::_Tree_val<std::_Tree_simple_types<std::pair<int const ,CSpawn *> > >::_Erase_tree<std::allocator<std::_Tree_node<std::pair<int const ,CSpawn *>,void *> > >, COMDAT
; _this$ = ecx

; 767  :     void _Erase_tree(_Alnode& _Al, _Nodeptr _Rootnode) noexcept {

  00000	55		 push	 ebp
  00001	8b ec		 mov	 ebp, esp
  00003	53		 push	 ebx
  00004	56		 push	 esi

; 768  :         while (!_Rootnode->_Isnil) { // free subtrees, then node

  00005	8b 75 0c	 mov	 esi, DWORD PTR __Rootnode$[ebp]
  00008	8b d9		 mov	 ebx, ecx
  0000a	80 7e 0d 00	 cmp	 BYTE PTR [esi+13], 0
  0000e	75 25		 jne	 SHORT $LN34@Erase_tree
  00010	57		 push	 edi
  00011	8b 7d 08	 mov	 edi, DWORD PTR __Al$[ebp]
$LL2@Erase_tree:

; 769  :             _Erase_tree(_Al, _Rootnode->_Right);

  00014	ff 76 08	 push	 DWORD PTR [esi+8]
  00017	8b cb		 mov	 ecx, ebx
  00019	57		 push	 edi
  0001a	e8 00 00 00 00	 call	 ??$_Erase_tree@V?$allocator@U?$_Tree_node@U?$pair@$$CBHPAVCSpawn@@@std@@PAX@std@@@std@@@?$_Tree_val@U?$_Tree_simple_types@U?$pair@$$CBHPAVCSpawn@@@std@@@std@@@std@@QAEXAAV?$allocator@U?$_Tree_node@U?$pair@$$CBHPAVCSpawn@@@std@@PAX@std@@@1@PAU?$_Tree_node@U?$pair@$$CBHPAVCSpawn@@@std@@PAX@1@@Z ; std::_Tree_val<std::_Tree_simple_types<std::pair<int const ,CSpawn *> > >::_Erase_tree<std::allocator<std::_Tree_node<std::pair<int const ,CSpawn *>,void *> > >
; File C:\Program Files\Microsoft Visual Studio\2022\Professional\VC\Tools\MSVC\14.44.35207\include\utility

; 773  :     _Ty _Old_val = static_cast<_Ty&&>(_Val);

  0001f	8b c6		 mov	 eax, esi

; 774  :     _Val         = static_cast<_Other&&>(_New_val);

  00021	8b 36		 mov	 esi, DWORD PTR [esi]
; File C:\Program Files\Microsoft Visual Studio\2022\Professional\VC\Tools\MSVC\14.44.35207\include\xmemory

; 289  :         ::operator delete(_Ptr, _Bytes);

  00023	6a 18		 push	 24			; 00000018H
  00025	50		 push	 eax
  00026	e8 00 00 00 00	 call	 ??3@YAXPAXI@Z		; operator delete
  0002b	83 c4 08	 add	 esp, 8
; File C:\Program Files\Microsoft Visual Studio\2022\Professional\VC\Tools\MSVC\14.44.35207\include\xtree

; 768  :         while (!_Rootnode->_Isnil) { // free subtrees, then node

  0002e	80 7e 0d 00	 cmp	 BYTE PTR [esi+13], 0
  00032	74 e0		 je	 SHORT $LL2@Erase_tree
  00034	5f		 pop	 edi
$LN34@Erase_tree:
  00035	5e		 pop	 esi

; 770  :             _Alnode::value_type::_Freenode(_Al, _STD exchange(_Rootnode, _Rootnode->_Left));
; 771  :         }
; 772  :     }

  00036	5b		 pop	 ebx
  00037	5d		 pop	 ebp
  00038	c2 08 00	 ret	 8
??$_Erase_tree@V?$allocator@U?$_Tree_node@U?$pair@$$CBHPAVCSpawn@@@std@@PAX@std@@@std@@@?$_Tree_val@U?$_Tree_simple_types@U?$pair@$$CBHPAVCSpawn@@@std@@@std@@@std@@QAEXAAV?$allocator@U?$_Tree_node@U?$pair@$$CBHPAVCSpawn@@@std@@PAX@std@@@1@PAU?$_Tree_node@U?$pair@$$CBHPAVCSpawn@@@std@@PAX@1@@Z ENDP ; std::_Tree_val<std::_Tree_simple_types<std::pair<int const ,CSpawn *> > >::_Erase_tree<std::allocator<std::_Tree_node<std::pair<int const ,CSpawn *>,void *> > >
_TEXT	ENDS
; Function compile flags: /Ogtp
; File C:\Program Files\Microsoft Visual Studio\2022\Professional\VC\Tools\MSVC\14.44.35207\include\algorithm
; File C:\Program Files\Microsoft Visual Studio\2022\Professional\VC\Tools\MSVC\14.44.35207\include\xutility
; File C:\Program Files\Microsoft Visual Studio\2022\Professional\VC\Tools\MSVC\14.44.35207\include\algorithm
; File C:\Program Files\Microsoft Visual Studio\2022\Professional\VC\Tools\MSVC\14.44.35207\include\xutility
; File C:\Program Files\Microsoft Visual Studio\2022\Professional\VC\Tools\MSVC\14.44.35207\include\algorithm
; File C:\Program Files\Microsoft Visual Studio\2022\Professional\VC\Tools\MSVC\14.44.35207\include\__msvc_heap_algorithms.hpp
; File C:\Program Files\Microsoft Visual Studio\2022\Professional\VC\Tools\MSVC\14.44.35207\include\algorithm
;	COMDAT ??$_Sort_unchecked@PAU_REGION_GENERIC@@P6A_NU1@0@Z@std@@YAXPAU_REGION_GENERIC@@0HP6A_NU1@1@Z@Z
_TEXT	SEGMENT
__Val$1 = -28						; size = 12
__Val$1$ = -24						; size = 8
__Mid$2 = -16						; size = 8
__Mid$1$ = -12						; size = 4
tv206 = -8						; size = 4
__Val$2$ = -4						; size = 4
__First$ = 8						; size = 4
__Last$ = 12						; size = 4
__Ideal$ = 16						; size = 4
__Pred$ = 20						; size = 4
??$_Sort_unchecked@PAU_REGION_GENERIC@@P6A_NU1@0@Z@std@@YAXPAU_REGION_GENERIC@@0HP6A_NU1@1@Z@Z PROC ; std::_Sort_unchecked<_REGION_GENERIC *,bool (__cdecl*)(_REGION_GENERIC,_REGION_GENERIC)>, COMDAT

; 8370 : _CONSTEXPR20 void _Sort_unchecked(_RanIt _First, _RanIt _Last, _Iter_diff_t<_RanIt> _Ideal, _Pr _Pred) {

  00000	55		 push	 ebp
  00001	8b ec		 mov	 ebp, esp

; 8371 :     // order [_First, _Last)
; 8372 :     for (;;) {
; 8373 :         if (_Last - _First <= _ISORT_MAX) { // small

  00003	8b 55 14	 mov	 edx, DWORD PTR __Pred$[ebp]
  00006	83 ec 1c	 sub	 esp, 28			; 0000001cH
  00009	53		 push	 ebx
  0000a	8b 5d 0c	 mov	 ebx, DWORD PTR __Last$[ebp]
  0000d	8b c3		 mov	 eax, ebx
  0000f	56		 push	 esi
  00010	8b 75 08	 mov	 esi, DWORD PTR __First$[ebp]
  00013	2b c6		 sub	 eax, esi
  00015	57		 push	 edi
  00016	3d 8c 01 00 00	 cmp	 eax, 396		; 0000018cH
  0001b	0f 8c 93 00 00
	00		 jl	 $LN40@Sort_unche
  00021	8b 7d 10	 mov	 edi, DWORD PTR __Ideal$[ebp]
$LL4@Sort_unche:

; 8374 :             _STD _Insertion_sort_unchecked(_First, _Last, _Pred);
; 8375 :             return;
; 8376 :         }
; 8377 : 
; 8378 :         if (_Ideal <= 0) { // heap sort if too many divisions

  00024	52		 push	 edx
  00025	53		 push	 ebx
  00026	56		 push	 esi
  00027	85 ff		 test	 edi, edi
  00029	0f 8e 06 01 00
	00		 jle	 $LN41@Sort_unche

; 8380 :             _STD _Sort_heap_unchecked(_First, _Last, _Pred);
; 8381 :             return;
; 8382 :         }
; 8383 : 
; 8384 :         // divide and conquer by quicksort
; 8385 :         auto _Mid = _STD _Partition_by_median_guess_unchecked(_First, _Last, _Pred);

  0002f	8d 45 f0	 lea	 eax, DWORD PTR __Mid$2[ebp]
  00032	50		 push	 eax
  00033	e8 00 00 00 00	 call	 ??$_Partition_by_median_guess_unchecked@PAU_REGION_GENERIC@@P6A_NU1@0@Z@std@@YA?AU?$pair@PAU_REGION_GENERIC@@PAU1@@0@PAU_REGION_GENERIC@@0P6A_NU2@1@Z@Z ; std::_Partition_by_median_guess_unchecked<_REGION_GENERIC *,bool (__cdecl*)(_REGION_GENERIC,_REGION_GENERIC)>

; 8386 : 
; 8387 :         _Ideal = (_Ideal >> 1) + (_Ideal >> 2); // allow 1.5 log2(N) divisions

  00038	8b c7		 mov	 eax, edi

; 8388 : 
; 8389 :         if (_Mid.first - _First < _Last - _Mid.second) { // loop on second half

  0003a	8b cb		 mov	 ecx, ebx
  0003c	2b 4d f4	 sub	 ecx, DWORD PTR __Mid$2[ebp+4]
  0003f	83 c4 10	 add	 esp, 16			; 00000010H
  00042	c1 f8 02	 sar	 eax, 2
  00045	d1 ff		 sar	 edi, 1
  00047	03 f8		 add	 edi, eax
  00049	b8 ab aa aa 2a	 mov	 eax, 715827883		; 2aaaaaabH
  0004e	f7 e9		 imul	 ecx
  00050	8b 4d f0	 mov	 ecx, DWORD PTR __Mid$2[ebp]
  00053	b8 ab aa aa 2a	 mov	 eax, 715827883		; 2aaaaaabH
  00058	d1 fa		 sar	 edx, 1
  0005a	2b ce		 sub	 ecx, esi
  0005c	89 7d 10	 mov	 DWORD PTR __Ideal$[ebp], edi
  0005f	8b fa		 mov	 edi, edx
  00061	c1 ef 1f	 shr	 edi, 31			; 0000001fH
  00064	03 fa		 add	 edi, edx
  00066	f7 e9		 imul	 ecx
  00068	d1 fa		 sar	 edx, 1
  0006a	8b c2		 mov	 eax, edx
  0006c	c1 e8 1f	 shr	 eax, 31			; 0000001fH
  0006f	03 c2		 add	 eax, edx
  00071	3b c7		 cmp	 eax, edi
  00073	8b 45 14	 mov	 eax, DWORD PTR __Pred$[ebp]
  00076	8b 7d 10	 mov	 edi, DWORD PTR __Ideal$[ebp]
  00079	50		 push	 eax
  0007a	57		 push	 edi
  0007b	7d 12		 jge	 SHORT $LN7@Sort_unche

; 8390 :             _STD _Sort_unchecked(_First, _Mid.first, _Ideal, _Pred);

  0007d	8b 45 f0	 mov	 eax, DWORD PTR __Mid$2[ebp]
  00080	50		 push	 eax
  00081	56		 push	 esi
  00082	e8 00 00 00 00	 call	 ??$_Sort_unchecked@PAU_REGION_GENERIC@@P6A_NU1@0@Z@std@@YAXPAU_REGION_GENERIC@@0HP6A_NU1@1@Z@Z ; std::_Sort_unchecked<_REGION_GENERIC *,bool (__cdecl*)(_REGION_GENERIC,_REGION_GENERIC)>

; 8391 :             _First = _Mid.second;

  00087	8b 75 f4	 mov	 esi, DWORD PTR __Mid$2[ebp+4]
  0008a	89 75 08	 mov	 DWORD PTR __First$[ebp], esi

; 8392 :         } else { // loop on first half

  0008d	eb 10		 jmp	 SHORT $LN67@Sort_unche
$LN7@Sort_unche:

; 8393 :             _STD _Sort_unchecked(_Mid.second, _Last, _Ideal, _Pred);

  0008f	8b 45 f4	 mov	 eax, DWORD PTR __Mid$2[ebp+4]
  00092	53		 push	 ebx
  00093	50		 push	 eax
  00094	e8 00 00 00 00	 call	 ??$_Sort_unchecked@PAU_REGION_GENERIC@@P6A_NU1@0@Z@std@@YAXPAU_REGION_GENERIC@@0HP6A_NU1@1@Z@Z ; std::_Sort_unchecked<_REGION_GENERIC *,bool (__cdecl*)(_REGION_GENERIC,_REGION_GENERIC)>

; 8394 :             _Last = _Mid.first;

  00099	8b 5d f0	 mov	 ebx, DWORD PTR __Mid$2[ebp]
  0009c	89 5d 0c	 mov	 DWORD PTR __Last$[ebp], ebx
$LN67@Sort_unche:

; 8371 :     // order [_First, _Last)
; 8372 :     for (;;) {
; 8373 :         if (_Last - _First <= _ISORT_MAX) { // small

  0009f	8b 55 14	 mov	 edx, DWORD PTR __Pred$[ebp]
  000a2	8b c3		 mov	 eax, ebx
  000a4	2b c6		 sub	 eax, esi
  000a6	83 c4 10	 add	 esp, 16			; 00000010H
  000a9	3d 8c 01 00 00	 cmp	 eax, 396		; 0000018cH
  000ae	0f 8d 70 ff ff
	ff		 jge	 $LL4@Sort_unche
$LN40@Sort_unche:

; 8244 :     if (_First != _Last) {

  000b4	3b f3		 cmp	 esi, ebx
  000b6	0f 84 a1 01 00
	00		 je	 $LN12@Sort_unche

; 8245 :         for (_BidIt _Mid = _First; ++_Mid != _Last;) { // order next element

  000bc	8d 7e 0c	 lea	 edi, DWORD PTR [esi+12]
  000bf	89 7d f4	 mov	 DWORD PTR __Mid$1$[ebp], edi
  000c2	3b fb		 cmp	 edi, ebx
  000c4	0f 84 93 01 00
	00		 je	 $LN12@Sort_unche
  000ca	89 75 f8	 mov	 DWORD PTR tv206[ebp], esi
  000cd	0f 1f 00	 npad	 3
$LL13@Sort_unche:

; 8246 :             _BidIt _Hole = _Mid;
; 8247 :             _Iter_value_t<_BidIt> _Val(_STD move(*_Mid));

  000d0	8b 47 08	 mov	 eax, DWORD PTR [edi+8]

; 8248 : 
; 8249 :             if (_DEBUG_LT_PRED(_Pred, _Val, *_First)) { // found new earliest element, move to front

  000d3	83 ec 0c	 sub	 esp, 12			; 0000000cH
  000d6	f3 0f 7e 06	 movq	 xmm0, QWORD PTR [esi]
  000da	8b cc		 mov	 ecx, esp
  000dc	f3 0f 7e 0f	 movq	 xmm1, QWORD PTR [edi]
  000e0	83 ec 0c	 sub	 esp, 12			; 0000000cH
  000e3	89 45 fc	 mov	 DWORD PTR __Val$2$[ebp], eax
  000e6	8b df		 mov	 ebx, edi
  000e8	8b 46 08	 mov	 eax, DWORD PTR [esi+8]
  000eb	66 0f d6 01	 movq	 QWORD PTR [ecx], xmm0
  000ef	89 41 08	 mov	 DWORD PTR [ecx+8], eax
  000f2	8b c4		 mov	 eax, esp
  000f4	8b 4d fc	 mov	 ecx, DWORD PTR __Val$2$[ebp]
  000f7	66 0f d6 4d e8	 movq	 QWORD PTR __Val$1$[ebp], xmm1
  000fc	66 0f d6 08	 movq	 QWORD PTR [eax], xmm1
  00100	89 48 08	 mov	 DWORD PTR [eax+8], ecx
  00103	ff d2		 call	 edx
  00105	83 c4 18	 add	 esp, 24			; 00000018H
  00108	84 c0		 test	 al, al
  0010a	8b 45 f8	 mov	 eax, DWORD PTR tv206[ebp]
  0010d	0f 84 a5 00 00
	00		 je	 $LN18@Sort_unche
; File C:\Program Files\Microsoft Visual Studio\2022\Professional\VC\Tools\MSVC\14.44.35207\include\xutility

; 5190 :             return _STD _Copy_backward_memmove(_First, _Last, _Dest);

  00113	83 c0 18	 add	 eax, 24			; 00000018H
  00116	50		 push	 eax
  00117	57		 push	 edi
  00118	56		 push	 esi
  00119	e8 00 00 00 00	 call	 ??$_Copy_backward_memmove@PAU_REGION_GENERIC@@PAU1@@std@@YAPAU_REGION_GENERIC@@PAU1@00@Z ; std::_Copy_backward_memmove<_REGION_GENERIC *,_REGION_GENERIC *>
; File C:\Program Files\Microsoft Visual Studio\2022\Professional\VC\Tools\MSVC\14.44.35207\include\algorithm

; 8251 :                 *_First = _STD move(_Val);

  0011e	f3 0f 7e 45 e8	 movq	 xmm0, QWORD PTR __Val$1$[ebp]
; File C:\Program Files\Microsoft Visual Studio\2022\Professional\VC\Tools\MSVC\14.44.35207\include\xutility

; 5190 :             return _STD _Copy_backward_memmove(_First, _Last, _Dest);

  00123	83 c4 0c	 add	 esp, 12			; 0000000cH
; File C:\Program Files\Microsoft Visual Studio\2022\Professional\VC\Tools\MSVC\14.44.35207\include\algorithm

; 8251 :                 *_First = _STD move(_Val);

  00126	8b 45 fc	 mov	 eax, DWORD PTR __Val$2$[ebp]
  00129	66 0f d6 06	 movq	 QWORD PTR [esi], xmm0
  0012d	89 46 08	 mov	 DWORD PTR [esi+8], eax

; 8252 :             } else { // look for insertion point after first

  00130	e9 12 01 00 00	 jmp	 $LN11@Sort_unche
$LN41@Sort_unche:

; 8379 :             _STD _Make_heap_unchecked(_First, _Last, _Pred);

  00135	e8 00 00 00 00	 call	 ??$_Make_heap_unchecked@PAU_REGION_GENERIC@@P6A_NU1@0@Z@std@@YAXPAU_REGION_GENERIC@@0P6A_NU1@1@Z@Z ; std::_Make_heap_unchecked<_REGION_GENERIC *,bool (__cdecl*)(_REGION_GENERIC,_REGION_GENERIC)>

; 7149 :     for (; _Last - _First >= 2; --_Last) {

  0013a	8b cb		 mov	 ecx, ebx

; 8379 :             _STD _Make_heap_unchecked(_First, _Last, _Pred);

  0013c	83 c4 0c	 add	 esp, 12			; 0000000cH

; 7149 :     for (; _Last - _First >= 2; --_Last) {

  0013f	2b ce		 sub	 ecx, esi
  00141	83 f9 18	 cmp	 ecx, 24			; 00000018H
  00144	0f 8c 13 01 00
	00		 jl	 $LN12@Sort_unche

; 8379 :             _STD _Make_heap_unchecked(_First, _Last, _Pred);

  0014a	8d 7b f4	 lea	 edi, DWORD PTR [ebx-12]
  0014d	0f 1f 00	 npad	 3
$LL28@Sort_unche:
; File C:\Program Files\Microsoft Visual Studio\2022\Professional\VC\Tools\MSVC\14.44.35207\include\__msvc_heap_algorithms.hpp

; 100  :     if (2 <= _Last - _First) {

  00150	b8 ab aa aa aa	 mov	 eax, -1431655765	; aaaaaaabH
  00155	8b df		 mov	 ebx, edi
  00157	f7 e1		 mul	 ecx
  00159	c1 ea 03	 shr	 edx, 3
  0015c	83 fa 02	 cmp	 edx, 2
  0015f	7c 44		 jl	 SHORT $LN26@Sort_unche

; 101  :         --_Last;
; 102  :         _Iter_value_t<_RanIt> _Val(_STD move(*_Last));

  00161	f3 0f 7e 07	 movq	 xmm0, QWORD PTR [edi]

; 93   :     _STD _Pop_heap_hole_by_index(

  00165	8b cf		 mov	 ecx, edi

; 102  :         _Iter_value_t<_RanIt> _Val(_STD move(*_Last));

  00167	8b 47 08	 mov	 eax, DWORD PTR [edi+8]

; 93   :     _STD _Pop_heap_hole_by_index(

  0016a	2b ce		 sub	 ecx, esi
  0016c	ff 75 14	 push	 DWORD PTR __Pred$[ebp]

; 102  :         _Iter_value_t<_RanIt> _Val(_STD move(*_Last));

  0016f	89 45 ec	 mov	 DWORD PTR __Val$1[ebp+8], eax
  00172	66 0f d6 45 e4	 movq	 QWORD PTR __Val$1[ebp], xmm0

; 91   :     *_Dest      = _STD move(*_First);

  00177	f3 0f 7e 06	 movq	 xmm0, QWORD PTR [esi]
  0017b	66 0f d6 07	 movq	 QWORD PTR [edi], xmm0
  0017f	8b 46 08	 mov	 eax, DWORD PTR [esi+8]
  00182	89 47 08	 mov	 DWORD PTR [edi+8], eax

; 92   :     using _Diff = _Iter_diff_t<_RanIt>;
; 93   :     _STD _Pop_heap_hole_by_index(

  00185	8d 45 e4	 lea	 eax, DWORD PTR __Val$1[ebp]
  00188	50		 push	 eax
  00189	b8 ab aa aa 2a	 mov	 eax, 715827883		; 2aaaaaabH
  0018e	f7 e9		 imul	 ecx
  00190	d1 fa		 sar	 edx, 1
  00192	8b c2		 mov	 eax, edx
  00194	c1 e8 1f	 shr	 eax, 31			; 0000001fH
  00197	03 c2		 add	 eax, edx
  00199	50		 push	 eax
  0019a	6a 00		 push	 0
  0019c	56		 push	 esi
  0019d	e8 00 00 00 00	 call	 ??$_Pop_heap_hole_by_index@PAU_REGION_GENERIC@@U1@P6A_NU1@0@Z@std@@YAXPAU_REGION_GENERIC@@HH$$QAU1@P6A_NU1@2@Z@Z ; std::_Pop_heap_hole_by_index<_REGION_GENERIC *,_REGION_GENERIC,bool (__cdecl*)(_REGION_GENERIC,_REGION_GENERIC)>
  001a2	83 c4 14	 add	 esp, 20			; 00000014H
$LN26@Sort_unche:
; File C:\Program Files\Microsoft Visual Studio\2022\Professional\VC\Tools\MSVC\14.44.35207\include\algorithm

; 7149 :     for (; _Last - _First >= 2; --_Last) {

  001a5	8b cb		 mov	 ecx, ebx
  001a7	83 ef 0c	 sub	 edi, 12			; 0000000cH
  001aa	2b ce		 sub	 ecx, esi
  001ac	83 f9 18	 cmp	 ecx, 24			; 00000018H
  001af	7d 9f		 jge	 SHORT $LL28@Sort_unche

; 8395 :         }
; 8396 :     }
; 8397 : }

  001b1	5f		 pop	 edi
  001b2	5e		 pop	 esi
  001b3	5b		 pop	 ebx
  001b4	8b e5		 mov	 esp, ebp
  001b6	5d		 pop	 ebp
  001b7	c3		 ret	 0
$LN18@Sort_unche:

; 8253 :                 for (_BidIt _Prev = _Hole; _DEBUG_LT_PRED(_Pred, _Val, *--_Prev); _Hole = _Prev) {

  001b8	f3 0f 7e 00	 movq	 xmm0, QWORD PTR [eax]
  001bc	83 ec 0c	 sub	 esp, 12			; 0000000cH
  001bf	8b cc		 mov	 ecx, esp
  001c1	8b f8		 mov	 edi, eax
  001c3	8b 40 08	 mov	 eax, DWORD PTR [eax+8]
  001c6	83 ec 0c	 sub	 esp, 12			; 0000000cH
  001c9	66 0f d6 01	 movq	 QWORD PTR [ecx], xmm0
  001cd	f3 0f 7e 45 e8	 movq	 xmm0, QWORD PTR __Val$1$[ebp]
  001d2	89 41 08	 mov	 DWORD PTR [ecx+8], eax
  001d5	8b c4		 mov	 eax, esp
  001d7	8b 4d fc	 mov	 ecx, DWORD PTR __Val$2$[ebp]
  001da	66 0f d6 00	 movq	 QWORD PTR [eax], xmm0
  001de	89 48 08	 mov	 DWORD PTR [eax+8], ecx
  001e1	ff 55 14	 call	 DWORD PTR __Pred$[ebp]
  001e4	83 c4 18	 add	 esp, 24			; 00000018H
  001e7	84 c0		 test	 al, al
  001e9	74 4a		 je	 SHORT $LN15@Sort_unche
  001eb	8b 75 fc	 mov	 esi, DWORD PTR __Val$2$[ebp]
  001ee	66 90		 npad	 2
$LL16@Sort_unche:

; 8254 :                     *_Hole = _STD move(*_Prev); // move hole down

  001f0	f3 0f 7e 07	 movq	 xmm0, QWORD PTR [edi]
  001f4	83 ec 0c	 sub	 esp, 12			; 0000000cH
  001f7	66 0f d6 03	 movq	 QWORD PTR [ebx], xmm0
  001fb	8b cc		 mov	 ecx, esp
  001fd	8b 47 08	 mov	 eax, DWORD PTR [edi+8]
  00200	83 ec 0c	 sub	 esp, 12			; 0000000cH
  00203	89 43 08	 mov	 DWORD PTR [ebx+8], eax
  00206	8b df		 mov	 ebx, edi
  00208	f3 0f 7e 47 f4	 movq	 xmm0, QWORD PTR [edi-12]
  0020d	83 ef 0c	 sub	 edi, 12			; 0000000cH
  00210	66 0f d6 01	 movq	 QWORD PTR [ecx], xmm0
  00214	f3 0f 7e 45 e8	 movq	 xmm0, QWORD PTR __Val$1$[ebp]
  00219	8b 47 08	 mov	 eax, DWORD PTR [edi+8]
  0021c	89 41 08	 mov	 DWORD PTR [ecx+8], eax
  0021f	8b c4		 mov	 eax, esp
  00221	66 0f d6 00	 movq	 QWORD PTR [eax], xmm0
  00225	89 70 08	 mov	 DWORD PTR [eax+8], esi
  00228	ff 55 14	 call	 DWORD PTR __Pred$[ebp]
  0022b	83 c4 18	 add	 esp, 24			; 00000018H
  0022e	84 c0		 test	 al, al
  00230	75 be		 jne	 SHORT $LL16@Sort_unche
  00232	8b 75 08	 mov	 esi, DWORD PTR __First$[ebp]
$LN15@Sort_unche:

; 8255 :                 }
; 8256 : 
; 8257 :                 *_Hole = _STD move(_Val); // insert element in hole

  00235	f3 0f 7e 45 e8	 movq	 xmm0, QWORD PTR __Val$1$[ebp]
  0023a	8b 45 fc	 mov	 eax, DWORD PTR __Val$2$[ebp]
  0023d	8b 7d f4	 mov	 edi, DWORD PTR __Mid$1$[ebp]
  00240	66 0f d6 03	 movq	 QWORD PTR [ebx], xmm0
  00244	89 43 08	 mov	 DWORD PTR [ebx+8], eax
$LN11@Sort_unche:

; 8245 :         for (_BidIt _Mid = _First; ++_Mid != _Last;) { // order next element

  00247	83 45 f8 0c	 add	 DWORD PTR tv206[ebp], 12 ; 0000000cH
  0024b	83 c7 0c	 add	 edi, 12			; 0000000cH
  0024e	8b 55 14	 mov	 edx, DWORD PTR __Pred$[ebp]
  00251	89 7d f4	 mov	 DWORD PTR __Mid$1$[ebp], edi
  00254	3b 7d 0c	 cmp	 edi, DWORD PTR __Last$[ebp]
  00257	0f 85 73 fe ff
	ff		 jne	 $LL13@Sort_unche
$LN12@Sort_unche:

; 8395 :         }
; 8396 :     }
; 8397 : }

  0025d	5f		 pop	 edi
  0025e	5e		 pop	 esi
  0025f	5b		 pop	 ebx
  00260	8b e5		 mov	 esp, ebp
  00262	5d		 pop	 ebp
  00263	c3		 ret	 0
??$_Sort_unchecked@PAU_REGION_GENERIC@@P6A_NU1@0@Z@std@@YAXPAU_REGION_GENERIC@@0HP6A_NU1@1@Z@Z ENDP ; std::_Sort_unchecked<_REGION_GENERIC *,bool (__cdecl*)(_REGION_GENERIC,_REGION_GENERIC)>
_TEXT	ENDS
; Function compile flags: /Ogtp
; File C:\IAGOS\server\v18\Source\Source\_Common\spevent.cpp
;	COMDAT ?prRegionGeneric@@YA_NU_REGION_GENERIC@@0@Z
_TEXT	SEGMENT
_r1$ = 8						; size = 12
_r2$ = 20						; size = 12
?prRegionGeneric@@YA_NU_REGION_GENERIC@@0@Z PROC	; prRegionGeneric, COMDAT

; 554  : {

  00000	55		 push	 ebp
  00001	8b ec		 mov	 ebp, esp

; 555  : 	return r2.nLevel > r1.nLevel;

  00003	8b 45 14	 mov	 eax, DWORD PTR _r2$[ebp]
  00006	3b 45 08	 cmp	 eax, DWORD PTR _r1$[ebp]
  00009	0f 9f c0	 setg	 al

; 556  : }

  0000c	5d		 pop	 ebp
  0000d	c3		 ret	 0
?prRegionGeneric@@YA_NU_REGION_GENERIC@@0@Z ENDP	; prRegionGeneric
_TEXT	ENDS
; Function compile flags: /Ogtp
;	COMDAT ??__FsEventGeneric@?1??GetInstance@CEventGeneric@@SAPAV1@XZ@YAXXZ
text$yd	SEGMENT
??__FsEventGeneric@?1??GetInstance@CEventGeneric@@SAPAV1@XZ@YAXXZ PROC ; `CEventGeneric::GetInstance'::`2'::`dynamic atexit destructor for 'sEventGeneric'', COMDAT
  00000	b9 00 00 00 00	 mov	 ecx, OFFSET ?sEventGeneric@?1??GetInstance@CEventGeneric@@SAPAV2@XZ@4V2@A
  00005	e9 00 00 00 00	 jmp	 ??1CEventGeneric@@UAE@XZ ; CEventGeneric::~CEventGeneric
??__FsEventGeneric@?1??GetInstance@CEventGeneric@@SAPAV1@XZ@YAXXZ ENDP ; `CEventGeneric::GetInstance'::`2'::`dynamic atexit destructor for 'sEventGeneric''
text$yd	ENDS
; Function compile flags: /Ogtp
; File C:\Program Files\Microsoft Visual Studio\2022\Professional\VC\Tools\MSVC\14.44.35207\include\xtree
; File C:\Program Files\Microsoft Visual Studio\2022\Professional\VC\Tools\MSVC\14.44.35207\include\type_traits
; File C:\Program Files\Microsoft Visual Studio\2022\Professional\VC\Tools\MSVC\14.44.35207\include\xtree
; File C:\Program Files\Microsoft Visual Studio\2022\Professional\VC\Tools\MSVC\14.44.35207\include\utility
; File C:\Program Files\Microsoft Visual Studio\2022\Professional\VC\Tools\MSVC\14.44.35207\include\xtree
; File C:\Program Files\Microsoft Visual Studio\2022\Professional\VC\Tools\MSVC\14.44.35207\include\xmemory
; File C:\Program Files\Microsoft Visual Studio\2022\Professional\VC\Tools\MSVC\14.44.35207\include\xtree
; File C:\Program Files\Microsoft Visual Studio\2022\Professional\VC\Tools\MSVC\14.44.35207\include\xmemory
; File C:\Program Files\Microsoft Visual Studio\2022\Professional\VC\Tools\MSVC\14.44.35207\include\xtree
; File C:\Program Files\Microsoft Visual Studio\2022\Professional\VC\Tools\MSVC\14.44.35207\include\xmemory
; File C:\Program Files\Microsoft Visual Studio\2022\Professional\VC\Tools\MSVC\14.44.35207\include\xtree
; File C:\Program Files\Microsoft Visual Studio\2022\Professional\VC\Tools\MSVC\14.44.35207\include\utility
; File C:\Program Files\Microsoft Visual Studio\2022\Professional\VC\Tools\MSVC\14.44.35207\include\xtree
;	COMDAT ??$insert@$0A@$0A@@?$_Tree@V?$_Tmap_traits@HPAV?$list@PAVCEventItem@@V?$allocator@PAVCEventItem@@@std@@@std@@U?$less@H@2@V?$allocator@U?$pair@$$CBHPAV?$list@PAVCEventItem@@V?$allocator@PAVCEventItem@@@std@@@std@@@std@@@2@$0A@@std@@@std@@QAE?AU?$pair@V?$_Tree_iterator@V?$_Tree_val@U?$_Tree_simple_types@U?$pair@$$CBHPAV?$list@PAVCEventItem@@V?$allocator@PAVCEventItem@@@std@@@std@@@std@@@std@@@std@@@std@@_N@1@$$QAU?$pair@$$CBHPAV?$list@PAVCEventItem@@V?$allocator@PAVCEventItem@@@std@@@std@@@1@@Z
_TEXT	SEGMENT
__Loc$2 = -36						; size = 12
$T3 = -24						; size = 12
$T4 = -20						; size = 8
__$EHRec$ = -12						; size = 12
___$ReturnUdt$ = 8					; size = 4
__Val$ = 12						; size = 4
??$insert@$0A@$0A@@?$_Tree@V?$_Tmap_traits@HPAV?$list@PAVCEventItem@@V?$allocator@PAVCEventItem@@@std@@@std@@U?$less@H@2@V?$allocator@U?$pair@$$CBHPAV?$list@PAVCEventItem@@V?$allocator@PAVCEventItem@@@std@@@std@@@std@@@2@$0A@@std@@@std@@QAE?AU?$pair@V?$_Tree_iterator@V?$_Tree_val@U?$_Tree_simple_types@U?$pair@$$CBHPAV?$list@PAVCEventItem@@V?$allocator@PAVCEventItem@@@std@@@std@@@std@@@std@@@std@@@std@@_N@1@$$QAU?$pair@$$CBHPAV?$list@PAVCEventItem@@V?$allocator@PAVCEventItem@@@std@@@std@@@1@@Z PROC ; std::_Tree<std::_Tmap_traits<int,std::list<CEventItem *,std::allocator<CEventItem *> > *,std::less<int>,std::allocator<std::pair<int const ,std::list<CEventItem *,std::allocator<CEventItem *> > *> >,0> >::insert<0,0>, COMDAT
; _this$ = ecx

; 1245 :     pair<iterator, bool> insert(value_type&& _Val) {

  00000	55		 push	 ebp
  00001	8b ec		 mov	 ebp, esp
  00003	6a ff		 push	 -1
  00005	68 00 00 00 00	 push	 __ehhandler$??$insert@$0A@$0A@@?$_Tree@V?$_Tmap_traits@HPAV?$list@PAVCEventItem@@V?$allocator@PAVCEventItem@@@std@@@std@@U?$less@H@2@V?$allocator@U?$pair@$$CBHPAV?$list@PAVCEventItem@@V?$allocator@PAVCEventItem@@@std@@@std@@@std@@@2@$0A@@std@@@std@@QAE?AU?$pair@V?$_Tree_iterator@V?$_Tree_val@U?$_Tree_simple_types@U?$pair@$$CBHPAV?$list@PAVCEventItem@@V?$allocator@PAVCEventItem@@@std@@@std@@@std@@@std@@@std@@@std@@_N@1@$$QAU?$pair@$$CBHPAV?$list@PAVCEventItem@@V?$allocator@PAVCEventItem@@@std@@@std@@@1@@Z
  0000a	64 a1 00 00 00
	00		 mov	 eax, DWORD PTR fs:0
  00010	50		 push	 eax
  00011	83 ec 18	 sub	 esp, 24			; 00000018H
  00014	53		 push	 ebx
  00015	56		 push	 esi
  00016	57		 push	 edi
  00017	a1 00 00 00 00	 mov	 eax, DWORD PTR ___security_cookie
  0001c	33 c5		 xor	 eax, ebp
  0001e	50		 push	 eax
  0001f	8d 45 f4	 lea	 eax, DWORD PTR __$EHRec$[ebp]
  00022	64 a3 00 00 00
	00		 mov	 DWORD PTR fs:0, eax
  00028	8b f9		 mov	 edi, ecx

; 1017 :             _Loc                = _Find_lower_bound(_Keyval);

  0002a	8b 5d 0c	 mov	 ebx, DWORD PTR __Val$[ebp]
  0002d	8d 45 e8	 lea	 eax, DWORD PTR $T3[ebp]
  00030	53		 push	 ebx
  00031	50		 push	 eax
  00032	e8 00 00 00 00	 call	 ??$_Find_lower_bound@H@?$_Tree@V?$_Tmap_traits@HPAV?$list@PAVCEventItem@@V?$allocator@PAVCEventItem@@@std@@@std@@U?$less@H@2@V?$allocator@U?$pair@$$CBHPAV?$list@PAVCEventItem@@V?$allocator@PAVCEventItem@@@std@@@std@@@std@@@2@$0A@@std@@@std@@IBE?AU?$_Tree_find_result@PAU?$_Tree_node@U?$pair@$$CBHPAV?$list@PAVCEventItem@@V?$allocator@PAVCEventItem@@@std@@@std@@@std@@PAX@std@@@1@ABH@Z ; std::_Tree<std::_Tmap_traits<int,std::list<CEventItem *,std::allocator<CEventItem *> > *,std::less<int>,std::allocator<std::pair<int const ,std::list<CEventItem *,std::allocator<CEventItem *> > *> >,0> >::_Find_lower_bound<int>
  00037	8b 48 08	 mov	 ecx, DWORD PTR [eax+8]
  0003a	f3 0f 7e 00	 movq	 xmm0, QWORD PTR [eax]
  0003e	66 0f d6 45 dc	 movq	 QWORD PTR __Loc$2[ebp], xmm0

; 1624 :         return !_Bound->_Isnil && !_DEBUG_LT_PRED(_Getcomp(), _Keyval, _Traits::_Kfn(_Bound->_Myval));

  00043	80 79 0d 00	 cmp	 BYTE PTR [ecx+13], 0
  00047	75 0b		 jne	 SHORT $LN4@insert
; File C:\Program Files\Microsoft Visual Studio\2022\Professional\VC\Tools\MSVC\14.44.35207\include\type_traits

; 2380 :         return _Left < _Right;

  00049	8b 03		 mov	 eax, DWORD PTR [ebx]
  0004b	3b 41 10	 cmp	 eax, DWORD PTR [ecx+16]
; File C:\Program Files\Microsoft Visual Studio\2022\Professional\VC\Tools\MSVC\14.44.35207\include\xtree

; 1624 :         return !_Bound->_Isnil && !_DEBUG_LT_PRED(_Getcomp(), _Keyval, _Traits::_Kfn(_Bound->_Myval));

  0004e	7c 04		 jl	 SHORT $LN4@insert
; File C:\Program Files\Microsoft Visual Studio\2022\Professional\VC\Tools\MSVC\14.44.35207\include\utility

; 274  :         : first(_STD forward<_Other1>(_Val1)), second(_STD forward<_Other2>(_Val2)) {

  00050	32 d2		 xor	 dl, dl
; File C:\Program Files\Microsoft Visual Studio\2022\Professional\VC\Tools\MSVC\14.44.35207\include\xtree

; 1019 :                 return {_Loc._Bound, false};

  00052	eb 51		 jmp	 SHORT $LN84@insert
$LN4@insert:

; 1648 :         if (max_size() == _Get_scary()->_Mysize) {

  00054	81 7f 04 aa aa
	aa 0a		 cmp	 DWORD PTR [edi+4], 178956970 ; 0aaaaaaaH
  0005b	74 64		 je	 SHORT $LN103@insert

; 1023 :             _Inserted = _Tree_temp_node<_Alnode>(_Getal(), _Scary->_Myhead, _STD forward<_Valtys>(_Vals)...)._Release();

  0005d	8b 37		 mov	 esi, DWORD PTR [edi]
; File C:\Program Files\Microsoft Visual Studio\2022\Professional\VC\Tools\MSVC\14.44.35207\include\xmemory

; 1160 :     _CONSTEXPR20 explicit _Alloc_construct_ptr(_Alloc& _Al_) : _Al(_Al_), _Ptr(nullptr) {}

  0005f	89 7d ec	 mov	 DWORD PTR $T4[ebp], edi

; 136  :         return ::operator new(_Bytes);

  00062	6a 18		 push	 24			; 00000018H
; File C:\Program Files\Microsoft Visual Studio\2022\Professional\VC\Tools\MSVC\14.44.35207\include\xtree

; 808  :     explicit _Tree_temp_node_alloc(_Alnode& _Al_) : _Alloc_construct_ptr<_Alnode>(_Al_) {

  00064	c7 45 fc 00 00
	00 00		 mov	 DWORD PTR __$EHRec$[ebp+8], 0
; File C:\Program Files\Microsoft Visual Studio\2022\Professional\VC\Tools\MSVC\14.44.35207\include\xmemory

; 1167 :         _Ptr = nullptr; // if allocate throws, prevents double-free

  0006b	c7 45 f0 00 00
	00 00		 mov	 DWORD PTR $T4[ebp+4], 0

; 136  :         return ::operator new(_Bytes);

  00072	e8 00 00 00 00	 call	 ??2@YAPAXI@Z		; operator new
; File C:\Program Files\Microsoft Visual Studio\2022\Professional\VC\Tools\MSVC\14.44.35207\include\xtree

; 830  :         _Alnode_traits::construct(this->_Al, _STD addressof(this->_Ptr->_Myval), _STD forward<_Valtys>(_Vals)...);

  00077	8b 0b		 mov	 ecx, DWORD PTR [ebx]
; File C:\Program Files\Microsoft Visual Studio\2022\Professional\VC\Tools\MSVC\14.44.35207\include\xmemory

; 136  :         return ::operator new(_Bytes);

  00079	83 c4 04	 add	 esp, 4
; File C:\Program Files\Microsoft Visual Studio\2022\Professional\VC\Tools\MSVC\14.44.35207\include\xtree

; 830  :         _Alnode_traits::construct(this->_Al, _STD addressof(this->_Ptr->_Myval), _STD forward<_Valtys>(_Vals)...);

  0007c	8b 53 04	 mov	 edx, DWORD PTR [ebx+4]
  0007f	89 48 10	 mov	 DWORD PTR [eax+16], ecx

; 1042 :         return {_Scary->_Insert_node(_Loc._Location, _Inserted), true};

  00082	8b cf		 mov	 ecx, edi
  00084	50		 push	 eax
  00085	ff 75 e0	 push	 DWORD PTR __Loc$2[ebp+4]

; 830  :         _Alnode_traits::construct(this->_Al, _STD addressof(this->_Ptr->_Myval), _STD forward<_Valtys>(_Vals)...);

  00088	89 50 14	 mov	 DWORD PTR [eax+20], edx

; 1042 :         return {_Scary->_Insert_node(_Loc._Location, _Inserted), true};

  0008b	ff 75 dc	 push	 DWORD PTR __Loc$2[ebp]

; 831  :         _Construct_in_place(this->_Ptr->_Left, _Myhead);

  0008e	89 30		 mov	 DWORD PTR [eax], esi

; 832  :         _Construct_in_place(this->_Ptr->_Parent, _Myhead);

  00090	89 70 04	 mov	 DWORD PTR [eax+4], esi

; 833  :         _Construct_in_place(this->_Ptr->_Right, _Myhead);

  00093	89 70 08	 mov	 DWORD PTR [eax+8], esi

; 834  :         this->_Ptr->_Color = _Red;

  00096	66 c7 40 0c 00
	00		 mov	 WORD PTR [eax+12], 0

; 1042 :         return {_Scary->_Insert_node(_Loc._Location, _Inserted), true};

  0009c	e8 00 00 00 00	 call	 ?_Insert_node@?$_Tree_val@U?$_Tree_simple_types@U?$pair@$$CBHPAV?$list@PAVCEventItem@@V?$allocator@PAVCEventItem@@@std@@@std@@@std@@@std@@@std@@QAEPAU?$_Tree_node@U?$pair@$$CBHPAV?$list@PAVCEventItem@@V?$allocator@PAVCEventItem@@@std@@@std@@@std@@PAX@2@U?$_Tree_id@PAU?$_Tree_node@U?$pair@$$CBHPAV?$list@PAVCEventItem@@V?$allocator@PAVCEventItem@@@std@@@std@@@std@@PAX@std@@@2@QAU32@@Z ; std::_Tree_val<std::_Tree_simple_types<std::pair<int const ,std::list<CEventItem *,std::allocator<CEventItem *> > *> > >::_Insert_node
; File C:\Program Files\Microsoft Visual Studio\2022\Professional\VC\Tools\MSVC\14.44.35207\include\utility

; 274  :         : first(_STD forward<_Other1>(_Val1)), second(_STD forward<_Other2>(_Val2)) {

  000a1	8b c8		 mov	 ecx, eax
  000a3	b2 01		 mov	 dl, 1
$LN84@insert:
  000a5	8b 45 08	 mov	 eax, DWORD PTR ___$ReturnUdt$[ebp]
  000a8	89 08		 mov	 DWORD PTR [eax], ecx
  000aa	88 50 04	 mov	 BYTE PTR [eax+4], dl
; File C:\Program Files\Microsoft Visual Studio\2022\Professional\VC\Tools\MSVC\14.44.35207\include\xtree

; 1248 :     }

  000ad	8b 4d f4	 mov	 ecx, DWORD PTR __$EHRec$[ebp]
  000b0	64 89 0d 00 00
	00 00		 mov	 DWORD PTR fs:0, ecx
  000b7	59		 pop	 ecx
  000b8	5f		 pop	 edi
  000b9	5e		 pop	 esi
  000ba	5b		 pop	 ebx
  000bb	8b e5		 mov	 esp, ebp
  000bd	5d		 pop	 ebp
  000be	c2 08 00	 ret	 8
$LN103@insert:

; 1649 :             _Throw_tree_length_error();

  000c1	e8 00 00 00 00	 call	 ?_Throw_tree_length_error@std@@YAXXZ ; std::_Throw_tree_length_error
$LN101@insert:
  000c6	cc		 int	 3
_TEXT	ENDS
;	COMDAT text$x
text$x	SEGMENT
__unwindfunclet$??$insert@$0A@$0A@@?$_Tree@V?$_Tmap_traits@HPAV?$list@PAVCEventItem@@V?$allocator@PAVCEventItem@@@std@@@std@@U?$less@H@2@V?$allocator@U?$pair@$$CBHPAV?$list@PAVCEventItem@@V?$allocator@PAVCEventItem@@@std@@@std@@@std@@@2@$0A@@std@@@std@@QAE?AU?$pair@V?$_Tree_iterator@V?$_Tree_val@U?$_Tree_simple_types@U?$pair@$$CBHPAV?$list@PAVCEventItem@@V?$allocator@PAVCEventItem@@@std@@@std@@@std@@@std@@@std@@@std@@_N@1@$$QAU?$pair@$$CBHPAV?$list@PAVCEventItem@@V?$allocator@PAVCEventItem@@@std@@@std@@@1@@Z$2:
  00000	8d 4d ec	 lea	 ecx, DWORD PTR $T4[ebp]
  00003	e9 00 00 00 00	 jmp	 ??1?$_Alloc_construct_ptr@V?$allocator@U?$_Tree_node@U?$pair@$$CBHPAV?$list@PAVCEventItem@@V?$allocator@PAVCEventItem@@@std@@@std@@@std@@PAX@std@@@std@@@std@@QAE@XZ ; std::_Alloc_construct_ptr<std::allocator<std::_Tree_node<std::pair<int const ,std::list<CEventItem *,std::allocator<CEventItem *> > *>,void *> > >::~_Alloc_construct_ptr<std::allocator<std::_Tree_node<std::pair<int const ,std::list<CEventItem *,std::allocator<CEventItem *> > *>,void *> > >
  00008	cc		 int	 3
  00009	cc		 int	 3
  0000a	cc		 int	 3
  0000b	cc		 int	 3
  0000c	cc		 int	 3
__ehhandler$??$insert@$0A@$0A@@?$_Tree@V?$_Tmap_traits@HPAV?$list@PAVCEventItem@@V?$allocator@PAVCEventItem@@@std@@@std@@U?$less@H@2@V?$allocator@U?$pair@$$CBHPAV?$list@PAVCEventItem@@V?$allocator@PAVCEventItem@@@std@@@std@@@std@@@2@$0A@@std@@@std@@QAE?AU?$pair@V?$_Tree_iterator@V?$_Tree_val@U?$_Tree_simple_types@U?$pair@$$CBHPAV?$list@PAVCEventItem@@V?$allocator@PAVCEventItem@@@std@@@std@@@std@@@std@@@std@@@std@@_N@1@$$QAU?$pair@$$CBHPAV?$list@PAVCEventItem@@V?$allocator@PAVCEventItem@@@std@@@std@@@1@@Z:
  0000d	90		 npad	 1
  0000e	90		 npad	 1
  0000f	8b 54 24 08	 mov	 edx, DWORD PTR [esp+8]
  00013	8d 42 0c	 lea	 eax, DWORD PTR [edx+12]
  00016	8b 4a d8	 mov	 ecx, DWORD PTR [edx-40]
  00019	33 c8		 xor	 ecx, eax
  0001b	e8 00 00 00 00	 call	 @__security_check_cookie@4
  00020	b8 00 00 00 00	 mov	 eax, OFFSET __ehfuncinfo$??$insert@$0A@$0A@@?$_Tree@V?$_Tmap_traits@HPAV?$list@PAVCEventItem@@V?$allocator@PAVCEventItem@@@std@@@std@@U?$less@H@2@V?$allocator@U?$pair@$$CBHPAV?$list@PAVCEventItem@@V?$allocator@PAVCEventItem@@@std@@@std@@@std@@@2@$0A@@std@@@std@@QAE?AU?$pair@V?$_Tree_iterator@V?$_Tree_val@U?$_Tree_simple_types@U?$pair@$$CBHPAV?$list@PAVCEventItem@@V?$allocator@PAVCEventItem@@@std@@@std@@@std@@@std@@@std@@@std@@_N@1@$$QAU?$pair@$$CBHPAV?$list@PAVCEventItem@@V?$allocator@PAVCEventItem@@@std@@@std@@@1@@Z
  00025	e9 00 00 00 00	 jmp	 ___CxxFrameHandler3
text$x	ENDS
??$insert@$0A@$0A@@?$_Tree@V?$_Tmap_traits@HPAV?$list@PAVCEventItem@@V?$allocator@PAVCEventItem@@@std@@@std@@U?$less@H@2@V?$allocator@U?$pair@$$CBHPAV?$list@PAVCEventItem@@V?$allocator@PAVCEventItem@@@std@@@std@@@std@@@2@$0A@@std@@@std@@QAE?AU?$pair@V?$_Tree_iterator@V?$_Tree_val@U?$_Tree_simple_types@U?$pair@$$CBHPAV?$list@PAVCEventItem@@V?$allocator@PAVCEventItem@@@std@@@std@@@std@@@std@@@std@@@std@@_N@1@$$QAU?$pair@$$CBHPAV?$list@PAVCEventItem@@V?$allocator@PAVCEventItem@@@std@@@std@@@1@@Z ENDP ; std::_Tree<std::_Tmap_traits<int,std::list<CEventItem *,std::allocator<CEventItem *> > *,std::less<int>,std::allocator<std::pair<int const ,std::list<CEventItem *,std::allocator<CEventItem *> > *> >,0> >::insert<0,0>
; Function compile flags: /Ogtp
; File C:\Program Files\Microsoft Visual Studio\2022\Professional\VC\Tools\MSVC\14.44.35207\include\list
; File C:\Program Files\Microsoft Visual Studio\2022\Professional\VC\Tools\MSVC\14.44.35207\include\xmemory
; File C:\Program Files\Microsoft Visual Studio\2022\Professional\VC\Tools\MSVC\14.44.35207\include\list
; File C:\Program Files\Microsoft Visual Studio\2022\Professional\VC\Tools\MSVC\14.44.35207\include\xmemory
; File C:\Program Files\Microsoft Visual Studio\2022\Professional\VC\Tools\MSVC\14.44.35207\include\list
; File C:\Program Files\Microsoft Visual Studio\2022\Professional\VC\Tools\MSVC\14.44.35207\include\xmemory
; File C:\Program Files\Microsoft Visual Studio\2022\Professional\VC\Tools\MSVC\14.44.35207\include\list
;	COMDAT ?push_back@?$list@PAVCEventItem@@V?$allocator@PAVCEventItem@@@std@@@std@@QAEXABQAVCEventItem@@@Z
_TEXT	SEGMENT
__Op$2 = -20						; size = 8
__$EHRec$ = -12						; size = 12
__Val$ = 8						; size = 4
?push_back@?$list@PAVCEventItem@@V?$allocator@PAVCEventItem@@@std@@@std@@QAEXABQAVCEventItem@@@Z PROC ; std::list<CEventItem *,std::allocator<CEventItem *> >::push_back, COMDAT
; _this$ = ecx

; 1273 :     void push_back(const _Ty& _Val) {

  00000	55		 push	 ebp
  00001	8b ec		 mov	 ebp, esp
  00003	6a ff		 push	 -1
  00005	68 00 00 00 00	 push	 __ehhandler$?push_back@?$list@PAVCEventItem@@V?$allocator@PAVCEventItem@@@std@@@std@@QAEXABQAVCEventItem@@@Z
  0000a	64 a1 00 00 00
	00		 mov	 eax, DWORD PTR fs:0
  00010	50		 push	 eax
  00011	83 ec 08	 sub	 esp, 8
  00014	56		 push	 esi
  00015	57		 push	 edi
  00016	a1 00 00 00 00	 mov	 eax, DWORD PTR ___security_cookie
  0001b	33 c5		 xor	 eax, ebp
  0001d	50		 push	 eax
  0001e	8d 45 f4	 lea	 eax, DWORD PTR __$EHRec$[ebp]
  00021	64 a3 00 00 00
	00		 mov	 DWORD PTR fs:0, eax
  00027	8b f1		 mov	 esi, ecx

; 1030 :         if (_Mysize == max_size()) {

  00029	81 7e 04 55 55
	55 15		 cmp	 DWORD PTR [esi+4], 357913941 ; 15555555H

; 1274 :         _Emplace(_Mypair._Myval2._Myhead, _Val);

  00030	8b 3e		 mov	 edi, DWORD PTR [esi]

; 1030 :         if (_Mysize == max_size()) {

  00032	74 46		 je	 SHORT $LN61@push_back
; File C:\Program Files\Microsoft Visual Studio\2022\Professional\VC\Tools\MSVC\14.44.35207\include\xmemory

; 1160 :     _CONSTEXPR20 explicit _Alloc_construct_ptr(_Alloc& _Al_) : _Al(_Al_), _Ptr(nullptr) {}

  00034	89 75 ec	 mov	 DWORD PTR __Op$2[ebp], esi

; 136  :         return ::operator new(_Bytes);

  00037	6a 0c		 push	 12			; 0000000cH
; File C:\Program Files\Microsoft Visual Studio\2022\Professional\VC\Tools\MSVC\14.44.35207\include\list

; 593  :     explicit _List_node_emplace_op2(_Alnode& _Al_, _Valtys&&... _Vals) : _Alloc_construct_ptr<_Alnode>(_Al_) {

  00039	c7 45 fc 00 00
	00 00		 mov	 DWORD PTR __$EHRec$[ebp+8], 0
; File C:\Program Files\Microsoft Visual Studio\2022\Professional\VC\Tools\MSVC\14.44.35207\include\xmemory

; 1167 :         _Ptr = nullptr; // if allocate throws, prevents double-free

  00040	c7 45 f0 00 00
	00 00		 mov	 DWORD PTR __Op$2[ebp+4], 0

; 136  :         return ::operator new(_Bytes);

  00047	e8 00 00 00 00	 call	 ??2@YAPAXI@Z		; operator new
; File C:\Program Files\Microsoft Visual Studio\2022\Professional\VC\Tools\MSVC\14.44.35207\include\list

; 595  :         _Alnode_traits::construct(this->_Al, _STD addressof(this->_Ptr->_Myval), _STD forward<_Valtys>(_Vals)...);

  0004c	8b 4d 08	 mov	 ecx, DWORD PTR __Val$[ebp]
; File C:\Program Files\Microsoft Visual Studio\2022\Professional\VC\Tools\MSVC\14.44.35207\include\xmemory

; 136  :         return ::operator new(_Bytes);

  0004f	83 c4 04	 add	 esp, 4
; File C:\Program Files\Microsoft Visual Studio\2022\Professional\VC\Tools\MSVC\14.44.35207\include\list

; 595  :         _Alnode_traits::construct(this->_Al, _STD addressof(this->_Ptr->_Myval), _STD forward<_Valtys>(_Vals)...);

  00052	8b 09		 mov	 ecx, DWORD PTR [ecx]
  00054	89 48 08	 mov	 DWORD PTR [eax+8], ecx

; 1035 :         ++_Mysize;

  00057	ff 46 04	 inc	 DWORD PTR [esi+4]

; 608  :         const pointer _Insert_after = _Insert_before->_Prev;

  0005a	8b 4f 04	 mov	 ecx, DWORD PTR [edi+4]

; 609  :         _Construct_in_place(this->_Ptr->_Next, _Insert_before);

  0005d	89 38		 mov	 DWORD PTR [eax], edi

; 610  :         _Construct_in_place(this->_Ptr->_Prev, _Insert_after);

  0005f	89 48 04	 mov	 DWORD PTR [eax+4], ecx

; 611  :         const auto _Result    = this->_Ptr;
; 612  :         this->_Ptr            = pointer{};
; 613  :         _Insert_before->_Prev = _Result;

  00062	89 47 04	 mov	 DWORD PTR [edi+4], eax

; 614  :         _Insert_after->_Next  = _Result;

  00065	89 01		 mov	 DWORD PTR [ecx], eax

; 1275 :     }

  00067	8b 4d f4	 mov	 ecx, DWORD PTR __$EHRec$[ebp]
  0006a	64 89 0d 00 00
	00 00		 mov	 DWORD PTR fs:0, ecx
  00071	59		 pop	 ecx
  00072	5f		 pop	 edi
  00073	5e		 pop	 esi
  00074	8b e5		 mov	 esp, ebp
  00076	5d		 pop	 ebp
  00077	c2 04 00	 ret	 4
$LN61@push_back:

; 1031 :             _Xlength_error("list too long");

  0007a	68 00 00 00 00	 push	 OFFSET ??_C@_0O@NKNMEGII@list?5too?5long@
  0007f	e8 00 00 00 00	 call	 ?_Xlength_error@std@@YAXPBD@Z ; std::_Xlength_error
$LN59@push_back:
  00084	cc		 int	 3
_TEXT	ENDS
;	COMDAT text$x
text$x	SEGMENT
__unwindfunclet$?push_back@?$list@PAVCEventItem@@V?$allocator@PAVCEventItem@@@std@@@std@@QAEXABQAVCEventItem@@@Z$1:
  00000	8d 4d ec	 lea	 ecx, DWORD PTR __Op$2[ebp]
  00003	e9 00 00 00 00	 jmp	 ??1?$_Alloc_construct_ptr@V?$allocator@U?$_List_node@PAVCEventItem@@PAX@std@@@std@@@std@@QAE@XZ ; std::_Alloc_construct_ptr<std::allocator<std::_List_node<CEventItem *,void *> > >::~_Alloc_construct_ptr<std::allocator<std::_List_node<CEventItem *,void *> > >
  00008	cc		 int	 3
  00009	cc		 int	 3
  0000a	cc		 int	 3
  0000b	cc		 int	 3
  0000c	cc		 int	 3
__ehhandler$?push_back@?$list@PAVCEventItem@@V?$allocator@PAVCEventItem@@@std@@@std@@QAEXABQAVCEventItem@@@Z:
  0000d	90		 npad	 1
  0000e	90		 npad	 1
  0000f	8b 54 24 08	 mov	 edx, DWORD PTR [esp+8]
  00013	8d 42 0c	 lea	 eax, DWORD PTR [edx+12]
  00016	8b 4a ec	 mov	 ecx, DWORD PTR [edx-20]
  00019	33 c8		 xor	 ecx, eax
  0001b	e8 00 00 00 00	 call	 @__security_check_cookie@4
  00020	b8 00 00 00 00	 mov	 eax, OFFSET __ehfuncinfo$?push_back@?$list@PAVCEventItem@@V?$allocator@PAVCEventItem@@@std@@@std@@QAEXABQAVCEventItem@@@Z
  00025	e9 00 00 00 00	 jmp	 ___CxxFrameHandler3
text$x	ENDS
?push_back@?$list@PAVCEventItem@@V?$allocator@PAVCEventItem@@@std@@@std@@QAEXABQAVCEventItem@@@Z ENDP ; std::list<CEventItem *,std::allocator<CEventItem *> >::push_back
; Function compile flags: /Ogtp
;	COMDAT ??__FsXMasEvent@?1??GetInstance@CXMasEvent@@SAPAV1@XZ@YAXXZ
text$yd	SEGMENT
??__FsXMasEvent@?1??GetInstance@CXMasEvent@@SAPAV1@XZ@YAXXZ PROC ; `CXMasEvent::GetInstance'::`2'::`dynamic atexit destructor for 'sXMasEvent'', COMDAT
  00000	b9 00 00 00 00	 mov	 ecx, OFFSET ?sXMasEvent@?1??GetInstance@CXMasEvent@@SAPAV2@XZ@4V2@A
  00005	e9 00 00 00 00	 jmp	 ??1CXMasEvent@@UAE@XZ	; CXMasEvent::~CXMasEvent
??__FsXMasEvent@?1??GetInstance@CXMasEvent@@SAPAV1@XZ@YAXXZ ENDP ; `CXMasEvent::GetInstance'::`2'::`dynamic atexit destructor for 'sXMasEvent''
text$yd	ENDS
; Function compile flags: /Ogtp
; File C:\IAGOS\server\v18\Source\Source\_Network\Misc\Include\ar.h
;	COMDAT ??$?5K@CAr@@QAEAAV0@AAK@Z
_TEXT	SEGMENT
_t$ = 8							; size = 4
??$?5K@CAr@@QAEAAV0@AAK@Z PROC				; CAr::operator>><unsigned long>, COMDAT
; _this$ = ecx

; 302  : {

  00000	55		 push	 ebp
  00001	8b ec		 mov	 ebp, esp
  00003	8b d1		 mov	 edx, ecx

; 303  : 	if (m_lpBufCur + sizeof(T) <= m_lpBufMax)

  00005	8b 4a 08	 mov	 ecx, DWORD PTR [edx+8]
  00008	8d 41 04	 lea	 eax, DWORD PTR [ecx+4]
  0000b	3b 42 0c	 cmp	 eax, DWORD PTR [edx+12]
  0000e	8b 45 08	 mov	 eax, DWORD PTR _t$[ebp]
  00011	77 0e		 ja	 SHORT $LN2@operator

; 304  : 	{
; 305  : 		t = *(UNALIGNED T*)m_lpBufCur;

  00013	8b 09		 mov	 ecx, DWORD PTR [ecx]
  00015	89 08		 mov	 DWORD PTR [eax], ecx

; 312  : 	}
; 313  : 	return *this;
; 314  : }

  00017	8b c2		 mov	 eax, edx
  00019	83 42 08 04	 add	 DWORD PTR [edx+8], 4
  0001d	5d		 pop	 ebp
  0001e	c2 04 00	 ret	 4
$LN2@operator:

; 306  : 		m_lpBufCur += sizeof(T);
; 307  : 	}
; 308  : 	else
; 309  : 	{
; 310  : 		t = T();

  00021	c7 00 00 00 00
	00		 mov	 DWORD PTR [eax], 0

; 311  : 		m_lpBufCur = m_lpBufMax;

  00027	8b 42 0c	 mov	 eax, DWORD PTR [edx+12]
  0002a	89 42 08	 mov	 DWORD PTR [edx+8], eax

; 312  : 	}
; 313  : 	return *this;
; 314  : }

  0002d	8b c2		 mov	 eax, edx
  0002f	5d		 pop	 ebp
  00030	c2 04 00	 ret	 4
??$?5K@CAr@@QAEAAV0@AAK@Z ENDP				; CAr::operator>><unsigned long>
_TEXT	ENDS
; Function compile flags: /Ogtp
; File C:\IAGOS\server\v18\Source\Source\_Network\Misc\Include\ar.h
;	COMDAT ??$?6K@CAr@@QAEAAV0@ABK@Z
_TEXT	SEGMENT
_t$ = 8							; size = 4
??$?6K@CAr@@QAEAAV0@ABK@Z PROC				; CAr::operator<<<unsigned long>, COMDAT
; _this$ = ecx

; 255  : {

  00000	55		 push	 ebp
  00001	8b ec		 mov	 ebp, esp
  00003	56		 push	 esi

; 256  : 	CheckBuf(sizeof(T));

  00004	6a 04		 push	 4
  00006	8b f1		 mov	 esi, ecx
  00008	e8 00 00 00 00	 call	 ?CheckBuf@CAr@@QAEXI@Z	; CAr::CheckBuf

; 257  : 	*(UNALIGNED T*)m_lpBufCur = t;

  0000d	8b 56 08	 mov	 edx, DWORD PTR [esi+8]
  00010	8b 45 08	 mov	 eax, DWORD PTR _t$[ebp]
  00013	8b 00		 mov	 eax, DWORD PTR [eax]
  00015	89 02		 mov	 DWORD PTR [edx], eax

; 258  : 	m_lpBufCur += sizeof(T);
; 259  : 	return *this;

  00017	8b c6		 mov	 eax, esi
  00019	83 46 08 04	 add	 DWORD PTR [esi+8], 4
  0001d	5e		 pop	 esi

; 260  : }

  0001e	5d		 pop	 ebp
  0001f	c2 04 00	 ret	 4
??$?6K@CAr@@QAEAAV0@ABK@Z ENDP				; CAr::operator<<<unsigned long>
_TEXT	ENDS
; Function compile flags: /Ogtp
; File C:\IAGOS\server\v18\Source\Source\_Network\Misc\Include\ar.h
;	COMDAT ??$?5H@CAr@@QAEAAV0@AAH@Z
_TEXT	SEGMENT
_t$ = 8							; size = 4
??$?5H@CAr@@QAEAAV0@AAH@Z PROC				; CAr::operator>><int>, COMDAT
; _this$ = ecx

; 302  : {

  00000	55		 push	 ebp
  00001	8b ec		 mov	 ebp, esp
  00003	8b d1		 mov	 edx, ecx

; 303  : 	if (m_lpBufCur + sizeof(T) <= m_lpBufMax)

  00005	8b 4a 08	 mov	 ecx, DWORD PTR [edx+8]
  00008	8d 41 04	 lea	 eax, DWORD PTR [ecx+4]
  0000b	3b 42 0c	 cmp	 eax, DWORD PTR [edx+12]
  0000e	8b 45 08	 mov	 eax, DWORD PTR _t$[ebp]
  00011	77 0e		 ja	 SHORT $LN2@operator

; 304  : 	{
; 305  : 		t = *(UNALIGNED T*)m_lpBufCur;

  00013	8b 09		 mov	 ecx, DWORD PTR [ecx]
  00015	89 08		 mov	 DWORD PTR [eax], ecx

; 312  : 	}
; 313  : 	return *this;
; 314  : }

  00017	8b c2		 mov	 eax, edx
  00019	83 42 08 04	 add	 DWORD PTR [edx+8], 4
  0001d	5d		 pop	 ebp
  0001e	c2 04 00	 ret	 4
$LN2@operator:

; 306  : 		m_lpBufCur += sizeof(T);
; 307  : 	}
; 308  : 	else
; 309  : 	{
; 310  : 		t = T();

  00021	c7 00 00 00 00
	00		 mov	 DWORD PTR [eax], 0

; 311  : 		m_lpBufCur = m_lpBufMax;

  00027	8b 42 0c	 mov	 eax, DWORD PTR [edx+12]
  0002a	89 42 08	 mov	 DWORD PTR [edx+8], eax

; 312  : 	}
; 313  : 	return *this;
; 314  : }

  0002d	8b c2		 mov	 eax, edx
  0002f	5d		 pop	 ebp
  00030	c2 04 00	 ret	 4
??$?5H@CAr@@QAEAAV0@AAH@Z ENDP				; CAr::operator>><int>
_TEXT	ENDS
; Function compile flags: /Ogtp
; File C:\IAGOS\server\v18\Source\Source\_Network\Misc\Include\ar.h
;	COMDAT ??$?6H@CAr@@QAEAAV0@ABH@Z
_TEXT	SEGMENT
_t$ = 8							; size = 4
??$?6H@CAr@@QAEAAV0@ABH@Z PROC				; CAr::operator<<<int>, COMDAT
; _this$ = ecx

; 255  : {

  00000	55		 push	 ebp
  00001	8b ec		 mov	 ebp, esp
  00003	56		 push	 esi

; 256  : 	CheckBuf(sizeof(T));

  00004	6a 04		 push	 4
  00006	8b f1		 mov	 esi, ecx
  00008	e8 00 00 00 00	 call	 ?CheckBuf@CAr@@QAEXI@Z	; CAr::CheckBuf

; 257  : 	*(UNALIGNED T*)m_lpBufCur = t;

  0000d	8b 56 08	 mov	 edx, DWORD PTR [esi+8]
  00010	8b 45 08	 mov	 eax, DWORD PTR _t$[ebp]
  00013	8b 00		 mov	 eax, DWORD PTR [eax]
  00015	89 02		 mov	 DWORD PTR [edx], eax

; 258  : 	m_lpBufCur += sizeof(T);
; 259  : 	return *this;

  00017	8b c6		 mov	 eax, esi
  00019	83 46 08 04	 add	 DWORD PTR [esi+8], 4
  0001d	5e		 pop	 esi

; 260  : }

  0001e	5d		 pop	 ebp
  0001f	c2 04 00	 ret	 4
??$?6H@CAr@@QAEAAV0@ABH@Z ENDP				; CAr::operator<<<int>
_TEXT	ENDS
; Function compile flags: /Ogtp
;	COMDAT ??_GCEventGeneric@@UAEPAXI@Z
_TEXT	SEGMENT
___flags$ = 8						; size = 4
??_GCEventGeneric@@UAEPAXI@Z PROC			; CEventGeneric::`scalar deleting destructor', COMDAT
; _this$ = ecx
  00000	55		 push	 ebp
  00001	8b ec		 mov	 ebp, esp
  00003	56		 push	 esi
  00004	8b f1		 mov	 esi, ecx
  00006	e8 00 00 00 00	 call	 ??1CEventGeneric@@UAE@XZ ; CEventGeneric::~CEventGeneric
  0000b	f6 45 08 01	 test	 BYTE PTR ___flags$[ebp], 1
  0000f	74 0b		 je	 SHORT $LN5@scalar
  00011	6a 2c		 push	 44			; 0000002cH
  00013	56		 push	 esi
  00014	e8 00 00 00 00	 call	 ??3@YAXPAXI@Z		; operator delete
  00019	83 c4 08	 add	 esp, 8
$LN5@scalar:
  0001c	8b c6		 mov	 eax, esi
  0001e	5e		 pop	 esi
  0001f	5d		 pop	 ebp
  00020	c2 04 00	 ret	 4
??_GCEventGeneric@@UAEPAXI@Z ENDP			; CEventGeneric::`scalar deleting destructor'
_TEXT	ENDS
; Function compile flags: /Ogtp
; File C:\IAGOS\server\v18\Source\Source\_Common\spevent.cpp
; File C:\Program Files\Microsoft Visual Studio\2022\Professional\VC\Tools\MSVC\14.44.35207\include\list
; File C:\IAGOS\server\v18\Source\Source\_Common\spevent.cpp
; File C:\Program Files\Microsoft Visual Studio\2022\Professional\VC\Tools\MSVC\14.44.35207\include\list
; File C:\IAGOS\server\v18\Source\Source\_Common\spevent.cpp
; File C:\Program Files\Microsoft Visual Studio\2022\Professional\VC\Tools\MSVC\14.44.35207\include\list
; File C:\IAGOS\server\v18\Source\Source\_Common\spevent.cpp
;	COMDAT ?GetEvent@CEventGeneric@@QAEPAU_EVENT_GENERIC@@H@Z
_TEXT	SEGMENT
_nEvent$ = 8						; size = 4
?GetEvent@CEventGeneric@@QAEPAU_EVENT_GENERIC@@H@Z PROC	; CEventGeneric::GetEvent, COMDAT
; _this$ = ecx

; 496  : {

  00000	55		 push	 ebp
  00001	8b ec		 mov	 ebp, esp
; File C:\Program Files\Microsoft Visual Studio\2022\Professional\VC\Tools\MSVC\14.44.35207\include\list

; 1105 :         return iterator(_Mypair._Myval2._Myhead->_Next, _STD addressof(_Mypair._Myval2));

  00003	8b 51 08	 mov	 edx, DWORD PTR [ecx+8]
; File C:\IAGOS\server\v18\Source\Source\_Common\spevent.cpp

; 496  : {

  00006	56		 push	 esi
; File C:\Program Files\Microsoft Visual Studio\2022\Professional\VC\Tools\MSVC\14.44.35207\include\list

; 37   :     _List_unchecked_const_iterator(_Nodeptr _Pnode, const _Mylist* _Plist) noexcept : _Ptr(_Pnode) {

  00007	8b 02		 mov	 eax, DWORD PTR [edx]

; 202  :         return !(*this == _Right);

  00009	3b c2		 cmp	 eax, edx
; File C:\IAGOS\server\v18\Source\Source\_Common\spevent.cpp

; 497  : 	for( list<EVENT_GENERIC*>::iterator i = m_lspEvent.begin(); i != m_lspEvent.end(); ++i )

  0000b	74 12		 je	 SHORT $LN3@GetEvent
  0000d	8b 75 08	 mov	 esi, DWORD PTR _nEvent$[ebp]
$LL4@GetEvent:

; 498  : 	{
; 499  : 		PEVENT_GENERIC pEvent	= *i;

  00010	8b 48 08	 mov	 ecx, DWORD PTR [eax+8]

; 500  : 		if( pEvent->nId == nEvent )

  00013	39 31		 cmp	 DWORD PTR [ecx], esi
  00015	74 0f		 je	 SHORT $LN50@GetEvent
; File C:\Program Files\Microsoft Visual Studio\2022\Professional\VC\Tools\MSVC\14.44.35207\include\list

; 164  :         this->_Ptr = this->_Ptr->_Next;

  00017	8b 08		 mov	 ecx, DWORD PTR [eax]
  00019	8b c1		 mov	 eax, ecx

; 202  :         return !(*this == _Right);

  0001b	3b ca		 cmp	 ecx, edx
; File C:\IAGOS\server\v18\Source\Source\_Common\spevent.cpp

; 497  : 	for( list<EVENT_GENERIC*>::iterator i = m_lspEvent.begin(); i != m_lspEvent.end(); ++i )

  0001d	75 f1		 jne	 SHORT $LL4@GetEvent
$LN3@GetEvent:

; 502  : 	}
; 503  : 	return NULL;

  0001f	33 c0		 xor	 eax, eax
  00021	5e		 pop	 esi

; 504  : }

  00022	5d		 pop	 ebp
  00023	c2 04 00	 ret	 4
$LN50@GetEvent:

; 501  : 			return pEvent;

  00026	8b c1		 mov	 eax, ecx
  00028	5e		 pop	 esi

; 504  : }

  00029	5d		 pop	 ebp
  0002a	c2 04 00	 ret	 4
?GetEvent@CEventGeneric@@QAEPAU_EVENT_GENERIC@@H@Z ENDP	; CEventGeneric::GetEvent
_TEXT	ENDS
; Function compile flags: /Ogtp
; File C:\IAGOS\server\v18\Source\Source\_Common\spevent.cpp
; File C:\Program Files\Microsoft Visual Studio\2022\Professional\VC\Tools\MSVC\14.44.35207\include\list
; File C:\IAGOS\server\v18\Source\Source\_Common\spevent.cpp
; File C:\Program Files\Microsoft Visual Studio\2022\Professional\VC\Tools\MSVC\14.44.35207\include\list
; File C:\IAGOS\server\v18\Source\Source\_Common\spevent.cpp
; File C:\Program Files\Microsoft Visual Studio\2022\Professional\VC\Tools\MSVC\14.44.35207\include\list
; File C:\IAGOS\server\v18\Source\Source\_Common\spevent.cpp
;	COMDAT ?Run@CEventGeneric@@QAEHXZ
_TEXT	SEGMENT
_t$1$ = -536						; size = 4
_this$GSCopy$1$ = -532					; size = 4
_bEvent$1$ = -528					; size = 4
_pEvent$1$ = -524					; size = 4
_f$1$ = -520						; size = 4
_lpOutputString$1 = -516				; size = 512
__$ArrayPad$ = -4					; size = 4
?Run@CEventGeneric@@QAEHXZ PROC				; CEventGeneric::Run, COMDAT
; _this$ = ecx

; 469  : {

  00000	55		 push	 ebp
  00001	8b ec		 mov	 ebp, esp
  00003	81 ec 18 02 00
	00		 sub	 esp, 536		; 00000218H
  00009	a1 00 00 00 00	 mov	 eax, DWORD PTR ___security_cookie
  0000e	33 c5		 xor	 eax, ebp
  00010	89 45 fc	 mov	 DWORD PTR __$ArrayPad$[ebp], eax

; 471  : 	time_t t	= time_null();

  00013	a1 00 00 00 00	 mov	 eax, DWORD PTR ?g_tCurrent@@3JA ; g_tCurrent
  00018	33 d2		 xor	 edx, edx
  0001a	89 85 e8 fd ff
	ff		 mov	 DWORD PTR _t$1$[ebp], eax
; File C:\Program Files\Microsoft Visual Studio\2022\Professional\VC\Tools\MSVC\14.44.35207\include\list

; 1105 :         return iterator(_Mypair._Myval2._Myhead->_Next, _STD addressof(_Mypair._Myval2));

  00020	8b 41 08	 mov	 eax, DWORD PTR [ecx+8]
; File C:\IAGOS\server\v18\Source\Source\_Common\spevent.cpp

; 469  : {

  00023	56		 push	 esi
  00024	89 8d ec fd ff
	ff		 mov	 DWORD PTR _this$GSCopy$1$[ebp], ecx

; 470  : 	BOOL f	= FALSE;

  0002a	89 95 f8 fd ff
	ff		 mov	 DWORD PTR _f$1$[ebp], edx
; File C:\Program Files\Microsoft Visual Studio\2022\Professional\VC\Tools\MSVC\14.44.35207\include\list

; 37   :     _List_unchecked_const_iterator(_Nodeptr _Pnode, const _Mylist* _Plist) noexcept : _Ptr(_Pnode) {

  00030	8b 30		 mov	 esi, DWORD PTR [eax]

; 202  :         return !(*this == _Right);

  00032	3b f0		 cmp	 esi, eax
; File C:\IAGOS\server\v18\Source\Source\_Common\spevent.cpp

; 472  : 	for( list<EVENT_GENERIC*>::iterator i = m_lspEvent.begin(); i != m_lspEvent.end(); ++i )

  00034	0f 84 c4 00 00
	00		 je	 $LN61@Run
  0003a	53		 push	 ebx
  0003b	57		 push	 edi
  0003c	8b 79 04	 mov	 edi, DWORD PTR [ecx+4]
  0003f	90		 npad	 1
$LL4@Run:

; 473  : 	{
; 474  : 		PEVENT_GENERIC pEvent	= *i;

  00040	8b 46 08	 mov	 eax, DWORD PTR [esi+8]

; 475  : 		BOOL bEvent	= ( t >= pEvent->tStart && t < pEvent->tEnd );

  00043	8b 8d e8 fd ff
	ff		 mov	 ecx, DWORD PTR _t$1$[ebp]
  00049	89 85 f4 fd ff
	ff		 mov	 DWORD PTR _pEvent$1$[ebp], eax
  0004f	8d 58 0c	 lea	 ebx, DWORD PTR [eax+12]
  00052	3b 48 08	 cmp	 ecx, DWORD PTR [eax+8]
  00055	7c 0e		 jl	 SHORT $LN59@Run
  00057	c7 85 f0 fd ff
	ff 01 00 00 00	 mov	 DWORD PTR _bEvent$1$[ebp], 1
  00061	3b 0b		 cmp	 ecx, DWORD PTR [ebx]
  00063	7c 0a		 jl	 SHORT $LN10@Run
$LN59@Run:
  00065	c7 85 f0 fd ff
	ff 00 00 00 00	 mov	 DWORD PTR _bEvent$1$[ebp], 0
$LN10@Run:

; 476  : 		// Ë¬
; 477  : 		char lpOutputString[512]	= { 0, };

  0006f	68 00 02 00 00	 push	 512			; 00000200H
  00074	8d 85 fc fd ff
	ff		 lea	 eax, DWORD PTR _lpOutputString$1[ebp]
  0007a	6a 00		 push	 0
  0007c	50		 push	 eax
  0007d	e8 00 00 00 00	 call	 _memset

; 478  : 		sprintf( lpOutputString, "m_dwFlag=0x%08x, nId=%d, tStart=%d, tEnd=%d, t=%d, nFlag=%d", m_dwFlag, pEvent->nId, pEvent->tStart, pEvent->tEnd, time_null(), pEvent->nFlag );

  00082	8b 85 f4 fd ff
	ff		 mov	 eax, DWORD PTR _pEvent$1$[ebp]
  00088	ff 70 04	 push	 DWORD PTR [eax+4]
  0008b	ff 35 00 00 00
	00		 push	 DWORD PTR ?g_tCurrent@@3JA ; g_tCurrent
  00091	ff 33		 push	 DWORD PTR [ebx]
  00093	8b d8		 mov	 ebx, eax
  00095	8d 85 fc fd ff
	ff		 lea	 eax, DWORD PTR _lpOutputString$1[ebp]
  0009b	ff 73 08	 push	 DWORD PTR [ebx+8]
  0009e	ff 33		 push	 DWORD PTR [ebx]
  000a0	57		 push	 edi
  000a1	68 00 00 00 00	 push	 OFFSET ??_C@_0DM@PNNFMCGB@m_dwFlag?$DN0x?$CF08x?0?5nId?$DN?$CFd?0?5tStart@
  000a6	50		 push	 eax
  000a7	e8 00 00 00 00	 call	 _sprintf
  000ac	83 c4 2c	 add	 esp, 44			; 0000002cH

; 479  : 		OutputDebugString( lpOutputString );

  000af	8d 85 fc fd ff
	ff		 lea	 eax, DWORD PTR _lpOutputString$1[ebp]
  000b5	50		 push	 eax
  000b6	ff 15 00 00 00
	00		 call	 DWORD PTR __imp__OutputDebugStringA@4

; 480  : 
; 481  : 		if( bEvent && !( m_dwFlag & pEvent->nFlag ) )

  000bc	83 bd f0 fd ff
	ff 00		 cmp	 DWORD PTR _bEvent$1$[ebp], 0
  000c3	8b 8d ec fd ff
	ff		 mov	 ecx, DWORD PTR _this$GSCopy$1$[ebp]
  000c9	74 44		 je	 SHORT $LN56@Run
  000cb	8b 41 04	 mov	 eax, DWORD PTR [ecx+4]
  000ce	8b 7b 04	 mov	 edi, DWORD PTR [ebx+4]
  000d1	85 f8		 test	 edi, eax
  000d3	75 12		 jne	 SHORT $LN5@Run

; 482  : 		{
; 483  : 			m_dwFlag	|= pEvent->nFlag;

  000d5	0b f8		 or	 edi, eax

; 484  : 			f	= TRUE;

  000d7	ba 01 00 00 00	 mov	 edx, 1
  000dc	89 79 04	 mov	 DWORD PTR [ecx+4], edi
  000df	89 95 f8 fd ff
	ff		 mov	 DWORD PTR _f$1$[ebp], edx

; 485  : 		}

  000e5	eb 08		 jmp	 SHORT $LN2@Run
$LN5@Run:

; 486  : 		else if( !bEvent && ( m_dwFlag & pEvent->nFlag ) )

  000e7	8b f8		 mov	 edi, eax
$LN66@Run:
; File C:\Program Files\Microsoft Visual Studio\2022\Professional\VC\Tools\MSVC\14.44.35207\include\list

; 164  :         this->_Ptr = this->_Ptr->_Next;

  000e9	8b 95 f8 fd ff
	ff		 mov	 edx, DWORD PTR _f$1$[ebp]
$LN2@Run:
  000ef	8b 06		 mov	 eax, DWORD PTR [esi]
  000f1	8b f0		 mov	 esi, eax

; 202  :         return !(*this == _Right);

  000f3	3b 41 08	 cmp	 eax, DWORD PTR [ecx+8]
; File C:\IAGOS\server\v18\Source\Source\_Common\spevent.cpp

; 472  : 	for( list<EVENT_GENERIC*>::iterator i = m_lspEvent.begin(); i != m_lspEvent.end(); ++i )

  000f6	0f 85 44 ff ff
	ff		 jne	 $LL4@Run
  000fc	5f		 pop	 edi
  000fd	5b		 pop	 ebx
$LN61@Run:

; 490  : 		}
; 491  : 	}
; 492  : 	return f;
; 493  : }

  000fe	8b 4d fc	 mov	 ecx, DWORD PTR __$ArrayPad$[ebp]
  00101	8b c2		 mov	 eax, edx
  00103	33 cd		 xor	 ecx, ebp
  00105	5e		 pop	 esi
  00106	e8 00 00 00 00	 call	 @__security_check_cookie@4
  0010b	8b e5		 mov	 esp, ebp
  0010d	5d		 pop	 ebp
  0010e	c3		 ret	 0
$LN56@Run:
  0010f	8b 43 04	 mov	 eax, DWORD PTR [ebx+4]
  00112	8b 79 04	 mov	 edi, DWORD PTR [ecx+4]

; 486  : 		else if( !bEvent && ( m_dwFlag & pEvent->nFlag ) )

  00115	85 c7		 test	 eax, edi
  00117	74 d0		 je	 SHORT $LN66@Run

; 487  : 		{
; 488  : 			m_dwFlag	&= ~pEvent->nFlag;

  00119	f7 d0		 not	 eax

; 489  : 			f	= TRUE;

  0011b	ba 01 00 00 00	 mov	 edx, 1
  00120	23 c7		 and	 eax, edi
  00122	89 95 f8 fd ff
	ff		 mov	 DWORD PTR _f$1$[ebp], edx
  00128	89 41 04	 mov	 DWORD PTR [ecx+4], eax
  0012b	8b f8		 mov	 edi, eax
  0012d	eb c0		 jmp	 SHORT $LN2@Run
?Run@CEventGeneric@@QAEHXZ ENDP				; CEventGeneric::Run
_TEXT	ENDS
; Function compile flags: /Ogtp
; File C:\IAGOS\server\v18\Source\Source\_Common\spevent.cpp
; File C:\IAGOS\server\v18\Source\Source\_Network\Misc\Include\ar.h
; File C:\IAGOS\server\v18\Source\Source\_Common\spevent.cpp
; File C:\Program Files\Microsoft Visual Studio\2022\Professional\VC\Tools\MSVC\14.44.35207\include\list
; File C:\IAGOS\server\v18\Source\Source\_Common\spevent.cpp
; File C:\Program Files\Microsoft Visual Studio\2022\Professional\VC\Tools\MSVC\14.44.35207\include\list
; File C:\IAGOS\server\v18\Source\Source\_Common\spevent.cpp
; File C:\Program Files\Microsoft Visual Studio\2022\Professional\VC\Tools\MSVC\14.44.35207\include\xtree
; File C:\IAGOS\server\v18\Source\Source\_Common\spevent.cpp
; File C:\Program Files\Microsoft Visual Studio\2022\Professional\VC\Tools\MSVC\14.44.35207\include\xtree
; File C:\IAGOS\server\v18\Source\Source\_Common\spevent.cpp
; File C:\Program Files\Microsoft Visual Studio\2022\Professional\VC\Tools\MSVC\14.44.35207\include\list
; File C:\IAGOS\server\v18\Source\Source\_Common\spevent.cpp
; File C:\Program Files\Microsoft Visual Studio\2022\Professional\VC\Tools\MSVC\14.44.35207\include\list
; File C:\IAGOS\server\v18\Source\Source\_Common\spevent.cpp
; File C:\Program Files\Microsoft Visual Studio\2022\Professional\VC\Tools\MSVC\14.44.35207\include\xtree
; File C:\IAGOS\server\v18\Source\Source\_Common\spevent.cpp
; File C:\IAGOS\server\v18\Source\Source\_Common\spevent.h
; File C:\IAGOS\server\v18\Source\Source\_Common\spevent.cpp
; File C:\Program Files\Microsoft Visual Studio\2022\Professional\VC\Tools\MSVC\14.44.35207\include\list
; File C:\Program Files\Microsoft Visual Studio\2022\Professional\VC\Tools\MSVC\14.44.35207\include\xmemory
; File C:\Program Files\Microsoft Visual Studio\2022\Professional\VC\Tools\MSVC\14.44.35207\include\list
; File C:\Program Files\Microsoft Visual Studio\2022\Professional\VC\Tools\MSVC\14.44.35207\include\xmemory
; File C:\Program Files\Microsoft Visual Studio\2022\Professional\VC\Tools\MSVC\14.44.35207\include\list
; File C:\Program Files\Microsoft Visual Studio\2022\Professional\VC\Tools\MSVC\14.44.35207\include\xmemory
; File C:\Program Files\Microsoft Visual Studio\2022\Professional\VC\Tools\MSVC\14.44.35207\include\list
; File C:\IAGOS\server\v18\Source\Source\_Common\spevent.cpp
; File C:\Program Files\Microsoft Visual Studio\2022\Professional\VC\Tools\MSVC\14.44.35207\include\xmemory
; File C:\Program Files\Microsoft Visual Studio\2022\Professional\VC\Tools\MSVC\14.44.35207\include\list
; File C:\Program Files\Microsoft Visual Studio\2022\Professional\VC\Tools\MSVC\14.44.35207\include\xmemory
; File C:\Program Files\Microsoft Visual Studio\2022\Professional\VC\Tools\MSVC\14.44.35207\include\list
; File C:\IAGOS\server\v18\Source\Source\_Common\spevent.cpp
; File C:\Program Files\Microsoft Visual Studio\2022\Professional\VC\Tools\MSVC\14.44.35207\include\utility
; File C:\Program Files\Microsoft Visual Studio\2022\Professional\VC\Tools\MSVC\14.44.35207\include\xtree
; File C:\IAGOS\server\v18\Source\Source\_Common\spevent.cpp
; File C:\Program Files\Microsoft Visual Studio\2022\Professional\VC\Tools\MSVC\14.44.35207\include\xtree
; File C:\Program Files\Microsoft Visual Studio\2022\Professional\VC\Tools\MSVC\14.44.35207\include\utility
; File C:\Program Files\Microsoft Visual Studio\2022\Professional\VC\Tools\MSVC\14.44.35207\include\xtree
; File C:\Program Files\Microsoft Visual Studio\2022\Professional\VC\Tools\MSVC\14.44.35207\include\type_traits
; File C:\Program Files\Microsoft Visual Studio\2022\Professional\VC\Tools\MSVC\14.44.35207\include\xtree
; File C:\Program Files\Microsoft Visual Studio\2022\Professional\VC\Tools\MSVC\14.44.35207\include\xmemory
; File C:\Program Files\Microsoft Visual Studio\2022\Professional\VC\Tools\MSVC\14.44.35207\include\xtree
; File C:\Program Files\Microsoft Visual Studio\2022\Professional\VC\Tools\MSVC\14.44.35207\include\xmemory
; File C:\Program Files\Microsoft Visual Studio\2022\Professional\VC\Tools\MSVC\14.44.35207\include\xtree
; File C:\Program Files\Microsoft Visual Studio\2022\Professional\VC\Tools\MSVC\14.44.35207\include\xmemory
; File C:\Program Files\Microsoft Visual Studio\2022\Professional\VC\Tools\MSVC\14.44.35207\include\xtree
; File C:\Program Files\Microsoft Visual Studio\2022\Professional\VC\Tools\MSVC\14.44.35207\include\utility
; File C:\Program Files\Microsoft Visual Studio\2022\Professional\VC\Tools\MSVC\14.44.35207\include\xtree
; File C:\IAGOS\server\v18\Source\Source\_Common\spevent.cpp
; File C:\Program Files\Microsoft Visual Studio\2022\Professional\VC\Tools\MSVC\14.44.35207\include\list
; File C:\Program Files\Microsoft Visual Studio\2022\Professional\VC\Tools\MSVC\14.44.35207\include\xmemory
; File C:\Program Files\Microsoft Visual Studio\2022\Professional\VC\Tools\MSVC\14.44.35207\include\list
; File C:\Program Files\Microsoft Visual Studio\2022\Professional\VC\Tools\MSVC\14.44.35207\include\xmemory
; File C:\Program Files\Microsoft Visual Studio\2022\Professional\VC\Tools\MSVC\14.44.35207\include\list
; File C:\Program Files\Microsoft Visual Studio\2022\Professional\VC\Tools\MSVC\14.44.35207\include\xmemory
; File C:\Program Files\Microsoft Visual Studio\2022\Professional\VC\Tools\MSVC\14.44.35207\include\list
; File C:\IAGOS\server\v18\Source\Source\_Common\spevent.cpp
; File C:\Program Files\Microsoft Visual Studio\2022\Professional\VC\Tools\MSVC\14.44.35207\include\list
; File C:\IAGOS\server\v18\Source\Source\_Common\spevent.cpp
; File C:\Program Files\Microsoft Visual Studio\2022\Professional\VC\Tools\MSVC\14.44.35207\include\list
; File C:\IAGOS\server\v18\Source\Source\_Common\spevent.cpp
; File C:\Program Files\Microsoft Visual Studio\2022\Professional\VC\Tools\MSVC\14.44.35207\include\xtree
; File C:\Program Files\Microsoft Visual Studio\2022\Professional\VC\Tools\MSVC\14.44.35207\include\list
; File C:\IAGOS\server\v18\Source\Source\_Common\spevent.cpp
;	COMDAT ?Serialize@CEventGeneric@@QAEXAAVCAr@@@Z
_TEXT	SEGMENT
$T2 = -92						; size = 12
__Loc$3 = -80						; size = 12
__Op$4 = -68						; size = 8
$T5 = -60						; size = 8
$T6 = -52						; size = 8
__Op$7 = -44						; size = 8
$T8 = -40						; size = 4
$T9 = -36						; size = 4
$T10 = -36						; size = 4
__Where$1$ = -36					; size = 4
$T11 = -32						; size = 4
_nEventItemListSize$12 = -32				; size = 4
__Where$1$ = -32					; size = 4
_pList$1$ = -28						; size = 4
_i$1$ = -28						; size = 4
_nEventItemSize$13 = -24				; size = 4
_nEvent$14 = -20					; size = 4
_this$1$ = -20						; size = 4
_nEventSize$15 = -16					; size = 4
_j$1$ = -16						; size = 4
__$EHRec$ = -12						; size = 12
_ar$ = 8						; size = 4
$T16 = 8						; size = 4
$T17 = 8						; size = 4
_i2$1$ = 8						; size = 4
_i$1$ = 8						; size = 4
_this$1$ = 8						; size = 4
?Serialize@CEventGeneric@@QAEXAAVCAr@@@Z PROC		; CEventGeneric::Serialize, COMDAT
; _this$ = ecx

; 411  : {

  00000	55		 push	 ebp
  00001	8b ec		 mov	 ebp, esp
  00003	6a ff		 push	 -1
  00005	68 00 00 00 00	 push	 __ehhandler$?Serialize@CEventGeneric@@QAEXAAVCAr@@@Z
  0000a	64 a1 00 00 00
	00		 mov	 eax, DWORD PTR fs:0
  00010	50		 push	 eax
  00011	83 ec 50	 sub	 esp, 80			; 00000050H
  00014	53		 push	 ebx
  00015	56		 push	 esi
  00016	57		 push	 edi
  00017	a1 00 00 00 00	 mov	 eax, DWORD PTR ___security_cookie
  0001c	33 c5		 xor	 eax, ebp
  0001e	50		 push	 eax
  0001f	8d 45 f4	 lea	 eax, DWORD PTR __$EHRec$[ebp]
  00022	64 a3 00 00 00
	00		 mov	 DWORD PTR fs:0, eax
  00028	8b f9		 mov	 edi, ecx
  0002a	89 7d ec	 mov	 DWORD PTR _this$1$[ebp], edi
; File C:\IAGOS\server\v18\Source\Source\_Network\Misc\Include\ar.h

; 146  : 	return (m_nMode & CAr::load) == 0;

  0002d	8b 5d 08	 mov	 ebx, DWORD PTR _ar$[ebp]
  00030	f6 03 01	 test	 BYTE PTR [ebx], 1
; File C:\IAGOS\server\v18\Source\Source\_Common\spevent.cpp

; 412  : 	if( ar.IsStoring() )

  00033	0f 85 06 01 00
	00		 jne	 $LN20@Serialize

; 413  : 	{
; 414  : 		ar << (int)m_lspEvent.size();

  00039	8b 47 0c	 mov	 eax, DWORD PTR [edi+12]
  0003c	8b cb		 mov	 ecx, ebx
  0003e	89 45 08	 mov	 DWORD PTR $T16[ebp], eax
  00041	8d 45 08	 lea	 eax, DWORD PTR $T16[ebp]
  00044	50		 push	 eax
  00045	e8 00 00 00 00	 call	 ??$?6H@CAr@@QAEAAV0@ABH@Z ; CAr::operator<<<int>
; File C:\Program Files\Microsoft Visual Studio\2022\Professional\VC\Tools\MSVC\14.44.35207\include\list

; 1105 :         return iterator(_Mypair._Myval2._Myhead->_Next, _STD addressof(_Mypair._Myval2));

  0004a	8b 47 08	 mov	 eax, DWORD PTR [edi+8]

; 37   :     _List_unchecked_const_iterator(_Nodeptr _Pnode, const _Mylist* _Plist) noexcept : _Ptr(_Pnode) {

  0004d	8b 30		 mov	 esi, DWORD PTR [eax]

; 202  :         return !(*this == _Right);

  0004f	3b f0		 cmp	 esi, eax
; File C:\IAGOS\server\v18\Source\Source\_Common\spevent.cpp

; 415  : 		for( list<EVENT_GENERIC*>::iterator i = m_lspEvent.begin(); i != m_lspEvent.end(); ++i )

  00051	74 15		 je	 SHORT $LN3@Serialize
$LL4@Serialize:

; 416  : 		{
; 417  : 			PEVENT_GENERIC pEvent	= *i;
; 418  : 			ar.Write( (const void*)pEvent, sizeof(EVENT_GENERIC) );

  00053	6a 7c		 push	 124			; 0000007cH
  00055	ff 76 08	 push	 DWORD PTR [esi+8]
  00058	8b cb		 mov	 ecx, ebx
  0005a	e8 00 00 00 00	 call	 ?Write@CAr@@QAEXPBXI@Z	; CAr::Write
; File C:\Program Files\Microsoft Visual Studio\2022\Professional\VC\Tools\MSVC\14.44.35207\include\list

; 164  :         this->_Ptr = this->_Ptr->_Next;

  0005f	8b 06		 mov	 eax, DWORD PTR [esi]
  00061	8b f0		 mov	 esi, eax

; 202  :         return !(*this == _Right);

  00063	3b 47 08	 cmp	 eax, DWORD PTR [edi+8]
; File C:\IAGOS\server\v18\Source\Source\_Common\spevent.cpp

; 415  : 		for( list<EVENT_GENERIC*>::iterator i = m_lspEvent.begin(); i != m_lspEvent.end(); ++i )

  00066	75 eb		 jne	 SHORT $LL4@Serialize
$LN3@Serialize:

; 419  : 		}
; 420  : 		ar << (int)m_mapEventItemList.size();

  00068	8b 47 14	 mov	 eax, DWORD PTR [edi+20]
  0006b	8b cb		 mov	 ecx, ebx
  0006d	89 45 08	 mov	 DWORD PTR $T17[ebp], eax
  00070	8d 45 08	 lea	 eax, DWORD PTR $T17[ebp]
  00073	50		 push	 eax
  00074	e8 00 00 00 00	 call	 ??$?6H@CAr@@QAEAAV0@ABH@Z ; CAr::operator<<<int>
; File C:\Program Files\Microsoft Visual Studio\2022\Professional\VC\Tools\MSVC\14.44.35207\include\xtree

; 1142 :         return iterator(_Scary->_Myhead->_Left, _Scary);

  00079	8b 47 10	 mov	 eax, DWORD PTR [edi+16]

; 37   :     _Tree_unchecked_const_iterator(_Nodeptr _Pnode, const _Mytree* _Plist) noexcept : _Ptr(_Pnode) {

  0007c	8b 30		 mov	 esi, DWORD PTR [eax]
  0007e	89 75 08	 mov	 DWORD PTR _i2$1$[ebp], esi

; 237  :         return !(*this == _Right);

  00081	3b f0		 cmp	 esi, eax
; File C:\IAGOS\server\v18\Source\Source\_Common\spevent.cpp

; 421  : 		for( map<int, list<CEventItem*>*>::iterator i2 = m_mapEventItemList.begin(); i2 != m_mapEventItemList.end(); ++i2 )

  00083	0f 84 a2 00 00
	00		 je	 $LN15@Serialize
  00089	0f 1f 80 00 00
	00 00		 npad	 7
$LL7@Serialize:
; File C:\Program Files\Microsoft Visual Studio\2022\Professional\VC\Tools\MSVC\14.44.35207\include\xtree

; 185  :         return this->_Ptr->_Myval;

  00090	8d 46 10	 lea	 eax, DWORD PTR [esi+16]
; File C:\IAGOS\server\v18\Source\Source\_Common\spevent.cpp

; 423  : 			ar << (int)i2->first;

  00093	8b cb		 mov	 ecx, ebx
  00095	50		 push	 eax
  00096	e8 00 00 00 00	 call	 ??$?6H@CAr@@QAEAAV0@ABH@Z ; CAr::operator<<<int>

; 424  : 			list<CEventItem*>* pList	= i2->second;

  0009b	8b 7e 14	 mov	 edi, DWORD PTR [esi+20]

; 425  : 			ar << (int)pList->size();

  0009e	8b cb		 mov	 ecx, ebx
  000a0	89 7d e4	 mov	 DWORD PTR _pList$1$[ebp], edi
  000a3	8b 47 04	 mov	 eax, DWORD PTR [edi+4]
  000a6	89 45 e0	 mov	 DWORD PTR $T11[ebp], eax
  000a9	8d 45 e0	 lea	 eax, DWORD PTR $T11[ebp]
  000ac	50		 push	 eax
  000ad	e8 00 00 00 00	 call	 ??$?6H@CAr@@QAEAAV0@ABH@Z ; CAr::operator<<<int>
; File C:\Program Files\Microsoft Visual Studio\2022\Professional\VC\Tools\MSVC\14.44.35207\include\list

; 1105 :         return iterator(_Mypair._Myval2._Myhead->_Next, _STD addressof(_Mypair._Myval2));

  000b2	8b 07		 mov	 eax, DWORD PTR [edi]

; 37   :     _List_unchecked_const_iterator(_Nodeptr _Pnode, const _Mylist* _Plist) noexcept : _Ptr(_Pnode) {

  000b4	8b 38		 mov	 edi, DWORD PTR [eax]

; 202  :         return !(*this == _Right);

  000b6	3b f8		 cmp	 edi, eax
; File C:\IAGOS\server\v18\Source\Source\_Common\spevent.cpp

; 426  : 			for( list<CEventItem*>::iterator i3 = pList->begin(); i3 != pList->end(); ++i3 )

  000b8	74 1a		 je	 SHORT $LN5@Serialize
  000ba	8b 75 e4	 mov	 esi, DWORD PTR _pList$1$[ebp]
  000bd	0f 1f 00	 npad	 3
$LL10@Serialize:

; 427  : 			{
; 428  : 				CEventItem* pEventItem	= *i3;
; 429  : 				pEventItem->Serialize( ar );

  000c0	8b 4f 08	 mov	 ecx, DWORD PTR [edi+8]
  000c3	53		 push	 ebx
  000c4	e8 00 00 00 00	 call	 ?Serialize@CEventItem@@QAEXAAVCAr@@@Z ; CEventItem::Serialize
; File C:\Program Files\Microsoft Visual Studio\2022\Professional\VC\Tools\MSVC\14.44.35207\include\list

; 164  :         this->_Ptr = this->_Ptr->_Next;

  000c9	8b 07		 mov	 eax, DWORD PTR [edi]
  000cb	8b f8		 mov	 edi, eax

; 202  :         return !(*this == _Right);

  000cd	3b 06		 cmp	 eax, DWORD PTR [esi]
; File C:\IAGOS\server\v18\Source\Source\_Common\spevent.cpp

; 426  : 			for( list<CEventItem*>::iterator i3 = pList->begin(); i3 != pList->end(); ++i3 )

  000cf	75 ef		 jne	 SHORT $LL10@Serialize
  000d1	8b 75 08	 mov	 esi, DWORD PTR _i2$1$[ebp]
$LN5@Serialize:
; File C:\Program Files\Microsoft Visual Studio\2022\Professional\VC\Tools\MSVC\14.44.35207\include\xtree

; 50   :         if (_Ptr->_Right->_Isnil) { // climb looking for right subtree

  000d4	8b 46 08	 mov	 eax, DWORD PTR [esi+8]
  000d7	80 78 0d 00	 cmp	 BYTE PTR [eax+13], 0
  000db	74 20		 je	 SHORT $LN78@Serialize

; 51   :             _Nodeptr _Pnode;
; 52   :             while (!(_Pnode = _Ptr->_Parent)->_Isnil && _Ptr == _Pnode->_Right) {

  000dd	8b 46 04	 mov	 eax, DWORD PTR [esi+4]
  000e0	80 78 0d 00	 cmp	 BYTE PTR [eax+13], 0
  000e4	75 10		 jne	 SHORT $LN469@Serialize
$LL76@Serialize:
  000e6	3b 70 08	 cmp	 esi, DWORD PTR [eax+8]
  000e9	75 0b		 jne	 SHORT $LN469@Serialize

; 53   :                 _Ptr = _Pnode; // ==> parent while right subtree

  000eb	8b f0		 mov	 esi, eax
  000ed	8b 40 04	 mov	 eax, DWORD PTR [eax+4]
  000f0	80 78 0d 00	 cmp	 BYTE PTR [eax+13], 0
  000f4	74 f0		 je	 SHORT $LL76@Serialize
$LN469@Serialize:

; 54   :             }
; 55   : 
; 56   :             _Ptr = _Pnode; // ==> parent (head if end())

  000f6	8b f0		 mov	 esi, eax
  000f8	89 75 08	 mov	 DWORD PTR _i2$1$[ebp], esi

; 57   :         } else {

  000fb	eb 22		 jmp	 SHORT $LN84@Serialize
$LN78@Serialize:

; 58   :             _Ptr = _Mytree::_Min(_Ptr->_Right); // ==> smallest of right subtree

  000fd	8b f0		 mov	 esi, eax
  000ff	89 75 08	 mov	 DWORD PTR _i2$1$[ebp], esi

; 476  :         while (!_Pnode->_Left->_Isnil) {

  00102	8b 0e		 mov	 ecx, DWORD PTR [esi]
  00104	80 79 0d 00	 cmp	 BYTE PTR [ecx+13], 0
  00108	75 15		 jne	 SHORT $LN84@Serialize
  0010a	66 0f 1f 44 00
	00		 npad	 6
$LL83@Serialize:
  00110	8b 01		 mov	 eax, DWORD PTR [ecx]

; 477  :             _Pnode = _Pnode->_Left;

  00112	8b f1		 mov	 esi, ecx
  00114	89 75 08	 mov	 DWORD PTR _i2$1$[ebp], esi
  00117	8b c8		 mov	 ecx, eax
  00119	80 78 0d 00	 cmp	 BYTE PTR [eax+13], 0
  0011d	74 f1		 je	 SHORT $LL83@Serialize
$LN84@Serialize:

; 237  :         return !(*this == _Right);

  0011f	8b 45 ec	 mov	 eax, DWORD PTR _this$1$[ebp]
  00122	3b 70 10	 cmp	 esi, DWORD PTR [eax+16]
; File C:\IAGOS\server\v18\Source\Source\_Common\spevent.cpp

; 421  : 		for( map<int, list<CEventItem*>*>::iterator i2 = m_mapEventItemList.begin(); i2 != m_mapEventItemList.end(); ++i2 )

  00125	0f 85 65 ff ff
	ff		 jne	 $LL7@Serialize
$LN15@Serialize:

; 466  : }

  0012b	8b 4d f4	 mov	 ecx, DWORD PTR __$EHRec$[ebp]
  0012e	64 89 0d 00 00
	00 00		 mov	 DWORD PTR fs:0, ecx
  00135	59		 pop	 ecx
  00136	5f		 pop	 edi
  00137	5e		 pop	 esi
  00138	5b		 pop	 ebx
  00139	8b e5		 mov	 esp, ebp
  0013b	5d		 pop	 ebp
  0013c	c2 04 00	 ret	 4
$LN20@Serialize:

; 430  : 			}
; 431  : 		}
; 432  : 	}
; 433  : 	else
; 434  : 	{
; 435  : 		Clear( FALSE );

  0013f	6a 00		 push	 0
  00141	e8 00 00 00 00	 call	 ?Clear@CEventGeneric@@QAEXH@Z ; CEventGeneric::Clear

; 436  : 		int nEventSize;
; 437  : 		ar >> nEventSize;

  00146	8d 45 f0	 lea	 eax, DWORD PTR _nEventSize$15[ebp]
  00149	8b cb		 mov	 ecx, ebx
  0014b	50		 push	 eax
  0014c	e8 00 00 00 00	 call	 ??$?5H@CAr@@QAEAAV0@AAH@Z ; CAr::operator>><int>

; 438  : 		for( int i = 0; i < nEventSize; i++ )

  00151	83 7d f0 00	 cmp	 DWORD PTR _nEventSize$15[ebp], 0
  00155	c7 45 08 00 00
	00 00		 mov	 DWORD PTR _i$1$[ebp], 0
  0015c	0f 8e b5 00 00
	00		 jle	 $LN12@Serialize
  00162	83 c7 08	 add	 edi, 8
$LL13@Serialize:

; 440  : 			PEVENT_GENERIC pEvent	= new EVENT_GENERIC;

  00165	6a 7c		 push	 124			; 0000007cH
  00167	e8 00 00 00 00	 call	 ??2@YAPAXI@Z		; operator new
  0016c	8b f0		 mov	 esi, eax
  0016e	83 c4 04	 add	 esp, 4
  00171	89 75 dc	 mov	 DWORD PTR $T9[ebp], esi
  00174	85 f6		 test	 esi, esi
  00176	74 2f		 je	 SHORT $LN24@Serialize
; File C:\IAGOS\server\v18\Source\Source\_Common\spevent.h

; 44   : 		nId	= 0;

  00178	c7 06 00 00 00
	00		 mov	 DWORD PTR [esi], 0

; 45   : 		nFlag	= 0;

  0017e	c7 46 04 00 00
	00 00		 mov	 DWORD PTR [esi+4], 0

; 46   : 		tStart	= 0;

  00185	c7 46 08 00 00
	00 00		 mov	 DWORD PTR [esi+8], 0

; 47   : 		tEnd	= 0;

  0018c	c7 46 0c 00 00
	00 00		 mov	 DWORD PTR [esi+12], 0

; 48   : 		*pszTitle	= '\0';

  00193	c6 46 18 00	 mov	 BYTE PTR [esi+24], 0

; 49   : 		fExpFactor	= 1.0f;

  00197	c7 46 10 00 00
	80 3f		 mov	 DWORD PTR [esi+16], 1065353216 ; 3f800000H

; 50   : #ifdef __ITEMDROPRATE
; 51   : 		fItemDropRate = 1.0f;

  0019e	c7 46 14 00 00
	80 3f		 mov	 DWORD PTR [esi+20], 1065353216 ; 3f800000H
; File C:\IAGOS\server\v18\Source\Source\_Common\spevent.cpp

; 440  : 			PEVENT_GENERIC pEvent	= new EVENT_GENERIC;

  001a5	eb 02		 jmp	 SHORT $LN25@Serialize
$LN24@Serialize:
  001a7	33 f6		 xor	 esi, esi
$LN25@Serialize:

; 441  : 			ar.Read( (void*)pEvent, sizeof(EVENT_GENERIC) );

  001a9	6a 7c		 push	 124			; 0000007cH
  001ab	56		 push	 esi
  001ac	8b cb		 mov	 ecx, ebx
  001ae	e8 00 00 00 00	 call	 ?Read@CAr@@QAEXPAXI@Z	; CAr::Read
; File C:\Program Files\Microsoft Visual Studio\2022\Professional\VC\Tools\MSVC\14.44.35207\include\list

; 1030 :         if (_Mysize == max_size()) {

  001b3	81 7f 04 55 55
	55 15		 cmp	 DWORD PTR [edi+4], 357913941 ; 15555555H

; 1274 :         _Emplace(_Mypair._Myval2._Myhead, _Val);

  001ba	8b 07		 mov	 eax, DWORD PTR [edi]
  001bc	89 45 e0	 mov	 DWORD PTR __Where$1$[ebp], eax

; 1030 :         if (_Mysize == max_size()) {

  001bf	0f 84 1a 02 00
	00		 je	 $LN437@Serialize
; File C:\Program Files\Microsoft Visual Studio\2022\Professional\VC\Tools\MSVC\14.44.35207\include\xmemory

; 1160 :     _CONSTEXPR20 explicit _Alloc_construct_ptr(_Alloc& _Al_) : _Al(_Al_), _Ptr(nullptr) {}

  001c5	89 7d d4	 mov	 DWORD PTR __Op$7[ebp], edi

; 136  :         return ::operator new(_Bytes);

  001c8	6a 0c		 push	 12			; 0000000cH
; File C:\Program Files\Microsoft Visual Studio\2022\Professional\VC\Tools\MSVC\14.44.35207\include\list

; 593  :     explicit _List_node_emplace_op2(_Alnode& _Al_, _Valtys&&... _Vals) : _Alloc_construct_ptr<_Alnode>(_Al_) {

  001ca	c7 45 fc 00 00
	00 00		 mov	 DWORD PTR __$EHRec$[ebp+8], 0
; File C:\Program Files\Microsoft Visual Studio\2022\Professional\VC\Tools\MSVC\14.44.35207\include\xmemory

; 1167 :         _Ptr = nullptr; // if allocate throws, prevents double-free

  001d1	c7 45 d8 00 00
	00 00		 mov	 DWORD PTR __Op$7[ebp+4], 0

; 136  :         return ::operator new(_Bytes);

  001d8	e8 00 00 00 00	 call	 ??2@YAPAXI@Z		; operator new
; File C:\Program Files\Microsoft Visual Studio\2022\Professional\VC\Tools\MSVC\14.44.35207\include\list

; 608  :         const pointer _Insert_after = _Insert_before->_Prev;

  001dd	8b 55 e0	 mov	 edx, DWORD PTR __Where$1$[ebp]
; File C:\Program Files\Microsoft Visual Studio\2022\Professional\VC\Tools\MSVC\14.44.35207\include\xmemory

; 136  :         return ::operator new(_Bytes);

  001e0	83 c4 04	 add	 esp, 4
; File C:\Program Files\Microsoft Visual Studio\2022\Professional\VC\Tools\MSVC\14.44.35207\include\list

; 596  :     }

  001e3	c7 45 fc ff ff
	ff ff		 mov	 DWORD PTR __$EHRec$[ebp+8], -1

; 612  :         this->_Ptr            = pointer{};

  001ea	c7 45 d8 00 00
	00 00		 mov	 DWORD PTR __Op$7[ebp+4], 0

; 595  :         _Alnode_traits::construct(this->_Al, _STD addressof(this->_Ptr->_Myval), _STD forward<_Valtys>(_Vals)...);

  001f1	89 70 08	 mov	 DWORD PTR [eax+8], esi

; 1035 :         ++_Mysize;

  001f4	ff 47 04	 inc	 DWORD PTR [edi+4]

; 608  :         const pointer _Insert_after = _Insert_before->_Prev;

  001f7	8b 4a 04	 mov	 ecx, DWORD PTR [edx+4]

; 609  :         _Construct_in_place(this->_Ptr->_Next, _Insert_before);

  001fa	89 10		 mov	 DWORD PTR [eax], edx

; 610  :         _Construct_in_place(this->_Ptr->_Prev, _Insert_after);

  001fc	89 48 04	 mov	 DWORD PTR [eax+4], ecx

; 613  :         _Insert_before->_Prev = _Result;

  001ff	89 42 04	 mov	 DWORD PTR [edx+4], eax

; 614  :         _Insert_after->_Next  = _Result;

  00202	89 01		 mov	 DWORD PTR [ecx], eax
; File C:\IAGOS\server\v18\Source\Source\_Common\spevent.cpp

; 438  : 		for( int i = 0; i < nEventSize; i++ )

  00204	8b 45 08	 mov	 eax, DWORD PTR _i$1$[ebp]
  00207	40		 inc	 eax
  00208	89 45 08	 mov	 DWORD PTR _i$1$[ebp], eax
  0020b	3b 45 f0	 cmp	 eax, DWORD PTR _nEventSize$15[ebp]
  0020e	0f 8c 51 ff ff
	ff		 jl	 $LL13@Serialize
  00214	8b 7d ec	 mov	 edi, DWORD PTR _this$1$[ebp]
$LN12@Serialize:

; 442  : 			m_lspEvent.push_back( pEvent );
; 443  : 		}
; 444  : 		int nEventItemListSize;
; 445  : 		ar >> nEventItemListSize;

  00217	8d 45 e0	 lea	 eax, DWORD PTR _nEventItemListSize$12[ebp]
  0021a	8b cb		 mov	 ecx, ebx
  0021c	50		 push	 eax
  0021d	e8 00 00 00 00	 call	 ??$?5H@CAr@@QAEAAV0@AAH@Z ; CAr::operator>><int>

; 446  : 		for( int i = 0; i < nEventItemListSize; i++ )

  00222	83 7d e0 00	 cmp	 DWORD PTR _nEventItemListSize$12[ebp], 0
  00226	c7 45 e4 00 00
	00 00		 mov	 DWORD PTR _i$1$[ebp], 0
  0022d	0f 8e f8 fe ff
	ff		 jle	 $LN15@Serialize
  00233	8d 47 10	 lea	 eax, DWORD PTR [edi+16]
  00236	89 45 08	 mov	 DWORD PTR _this$1$[ebp], eax
  00239	0f 1f 80 00 00
	00 00		 npad	 7
$LL16@Serialize:

; 447  : 		{
; 448  : 			int nEvent;
; 449  : 			ar >> nEvent;

  00240	8d 45 ec	 lea	 eax, DWORD PTR _nEvent$14[ebp]
  00243	8b cb		 mov	 ecx, ebx
  00245	50		 push	 eax
  00246	e8 00 00 00 00	 call	 ??$?5H@CAr@@QAEAAV0@AAH@Z ; CAr::operator>><int>

; 450  : 			list<CEventItem*>* pList	= new list<CEventItem*>;

  0024b	6a 08		 push	 8
  0024d	e8 00 00 00 00	 call	 ??2@YAPAXI@Z		; operator new
  00252	8b f8		 mov	 edi, eax
  00254	83 c4 04	 add	 esp, 4
  00257	89 7d d8	 mov	 DWORD PTR $T8[ebp], edi
  0025a	c7 45 fc 01 00
	00 00		 mov	 DWORD PTR __$EHRec$[ebp+8], 1
  00261	85 ff		 test	 edi, edi
  00263	74 20		 je	 SHORT $LN26@Serialize
; File C:\Program Files\Microsoft Visual Studio\2022\Professional\VC\Tools\MSVC\14.44.35207\include\xmemory

; 136  :         return ::operator new(_Bytes);

  00265	6a 0c		 push	 12			; 0000000cH
; File C:\Program Files\Microsoft Visual Studio\2022\Professional\VC\Tools\MSVC\14.44.35207\include\list

; 353  :     _List_val() noexcept : _Myhead(), _Mysize(0) {} // initialize data

  00267	c7 07 00 00 00
	00		 mov	 DWORD PTR [edi], 0
  0026d	c7 47 04 00 00
	00 00		 mov	 DWORD PTR [edi+4], 0
; File C:\Program Files\Microsoft Visual Studio\2022\Professional\VC\Tools\MSVC\14.44.35207\include\xmemory

; 136  :         return ::operator new(_Bytes);

  00274	e8 00 00 00 00	 call	 ??2@YAPAXI@Z		; operator new
  00279	83 c4 04	 add	 esp, 4
; File C:\Program Files\Microsoft Visual Studio\2022\Professional\VC\Tools\MSVC\14.44.35207\include\list

; 1852 :         _Construct_in_place(_Newhead->_Next, _Newhead);

  0027c	89 00		 mov	 DWORD PTR [eax], eax

; 1853 :         _Construct_in_place(_Newhead->_Prev, _Newhead);

  0027e	89 40 04	 mov	 DWORD PTR [eax+4], eax

; 1854 :         _Mypair._Myval2._Myhead = _Newhead;

  00281	89 07		 mov	 DWORD PTR [edi], eax
; File C:\IAGOS\server\v18\Source\Source\_Common\spevent.cpp

; 450  : 			list<CEventItem*>* pList	= new list<CEventItem*>;

  00283	eb 02		 jmp	 SHORT $LN27@Serialize
$LN26@Serialize:
  00285	33 ff		 xor	 edi, edi
$LN27@Serialize:
; File C:\Program Files\Microsoft Visual Studio\2022\Professional\VC\Tools\MSVC\14.44.35207\include\utility

; 274  :         : first(_STD forward<_Other1>(_Val1)), second(_STD forward<_Other2>(_Val2)) {

  00287	8b 75 ec	 mov	 esi, DWORD PTR _nEvent$14[ebp]
; File C:\Program Files\Microsoft Visual Studio\2022\Professional\VC\Tools\MSVC\14.44.35207\include\xtree

; 1017 :             _Loc                = _Find_lower_bound(_Keyval);

  0028a	8d 45 cc	 lea	 eax, DWORD PTR $T6[ebp]
  0028d	8b 4d 08	 mov	 ecx, DWORD PTR _this$1$[ebp]
  00290	50		 push	 eax
  00291	8d 45 a4	 lea	 eax, DWORD PTR $T2[ebp]
; File C:\IAGOS\server\v18\Source\Source\_Common\spevent.cpp

; 450  : 			list<CEventItem*>* pList	= new list<CEventItem*>;

  00294	c7 45 fc ff ff
	ff ff		 mov	 DWORD PTR __$EHRec$[ebp+8], -1
; File C:\Program Files\Microsoft Visual Studio\2022\Professional\VC\Tools\MSVC\14.44.35207\include\xtree

; 1017 :             _Loc                = _Find_lower_bound(_Keyval);

  0029b	50		 push	 eax
; File C:\Program Files\Microsoft Visual Studio\2022\Professional\VC\Tools\MSVC\14.44.35207\include\utility

; 274  :         : first(_STD forward<_Other1>(_Val1)), second(_STD forward<_Other2>(_Val2)) {

  0029c	89 75 cc	 mov	 DWORD PTR $T6[ebp], esi
  0029f	89 7d d0	 mov	 DWORD PTR $T6[ebp+4], edi
; File C:\Program Files\Microsoft Visual Studio\2022\Professional\VC\Tools\MSVC\14.44.35207\include\xtree

; 1017 :             _Loc                = _Find_lower_bound(_Keyval);

  002a2	e8 00 00 00 00	 call	 ??$_Find_lower_bound@H@?$_Tree@V?$_Tmap_traits@HPAV?$list@PAVCEventItem@@V?$allocator@PAVCEventItem@@@std@@@std@@U?$less@H@2@V?$allocator@U?$pair@$$CBHPAV?$list@PAVCEventItem@@V?$allocator@PAVCEventItem@@@std@@@std@@@std@@@2@$0A@@std@@@std@@IBE?AU?$_Tree_find_result@PAU?$_Tree_node@U?$pair@$$CBHPAV?$list@PAVCEventItem@@V?$allocator@PAVCEventItem@@@std@@@std@@@std@@PAX@std@@@1@ABH@Z ; std::_Tree<std::_Tmap_traits<int,std::list<CEventItem *,std::allocator<CEventItem *> > *,std::less<int>,std::allocator<std::pair<int const ,std::list<CEventItem *,std::allocator<CEventItem *> > *> >,0> >::_Find_lower_bound<int>
  002a7	f3 0f 7e 00	 movq	 xmm0, QWORD PTR [eax]
  002ab	8b 40 08	 mov	 eax, DWORD PTR [eax+8]
  002ae	66 0f d6 45 b0	 movq	 QWORD PTR __Loc$3[ebp], xmm0

; 1624 :         return !_Bound->_Isnil && !_DEBUG_LT_PRED(_Getcomp(), _Keyval, _Traits::_Kfn(_Bound->_Myval));

  002b3	80 78 0d 00	 cmp	 BYTE PTR [eax+13], 0
  002b7	75 05		 jne	 SHORT $LN193@Serialize
; File C:\Program Files\Microsoft Visual Studio\2022\Professional\VC\Tools\MSVC\14.44.35207\include\type_traits

; 2380 :         return _Left < _Right;

  002b9	3b 70 10	 cmp	 esi, DWORD PTR [eax+16]
; File C:\Program Files\Microsoft Visual Studio\2022\Professional\VC\Tools\MSVC\14.44.35207\include\xtree

; 1624 :         return !_Bound->_Isnil && !_DEBUG_LT_PRED(_Getcomp(), _Keyval, _Traits::_Kfn(_Bound->_Myval));

  002bc	7d 61		 jge	 SHORT $LN273@Serialize
$LN193@Serialize:

; 1648 :         if (max_size() == _Get_scary()->_Mysize) {

  002be	8b 45 08	 mov	 eax, DWORD PTR _this$1$[ebp]
  002c1	81 78 04 aa aa
	aa 0a		 cmp	 DWORD PTR [eax+4], 178956970 ; 0aaaaaaaH
  002c8	0f 84 0c 01 00
	00		 je	 $LN439@Serialize

; 1023 :             _Inserted = _Tree_temp_node<_Alnode>(_Getal(), _Scary->_Myhead, _STD forward<_Valtys>(_Vals)...)._Release();

  002ce	8b 30		 mov	 esi, DWORD PTR [eax]
; File C:\Program Files\Microsoft Visual Studio\2022\Professional\VC\Tools\MSVC\14.44.35207\include\xmemory

; 1160 :     _CONSTEXPR20 explicit _Alloc_construct_ptr(_Alloc& _Al_) : _Al(_Al_), _Ptr(nullptr) {}

  002d0	89 45 c4	 mov	 DWORD PTR $T5[ebp], eax

; 136  :         return ::operator new(_Bytes);

  002d3	6a 18		 push	 24			; 00000018H
; File C:\Program Files\Microsoft Visual Studio\2022\Professional\VC\Tools\MSVC\14.44.35207\include\xtree

; 808  :     explicit _Tree_temp_node_alloc(_Alnode& _Al_) : _Alloc_construct_ptr<_Alnode>(_Al_) {

  002d5	c7 45 fc 02 00
	00 00		 mov	 DWORD PTR __$EHRec$[ebp+8], 2
; File C:\Program Files\Microsoft Visual Studio\2022\Professional\VC\Tools\MSVC\14.44.35207\include\xmemory

; 1167 :         _Ptr = nullptr; // if allocate throws, prevents double-free

  002dc	c7 45 c8 00 00
	00 00		 mov	 DWORD PTR $T5[ebp+4], 0

; 136  :         return ::operator new(_Bytes);

  002e3	e8 00 00 00 00	 call	 ??2@YAPAXI@Z		; operator new
; File C:\Program Files\Microsoft Visual Studio\2022\Professional\VC\Tools\MSVC\14.44.35207\include\xtree

; 830  :         _Alnode_traits::construct(this->_Al, _STD addressof(this->_Ptr->_Myval), _STD forward<_Valtys>(_Vals)...);

  002e8	8b 4d ec	 mov	 ecx, DWORD PTR _nEvent$14[ebp]
; File C:\Program Files\Microsoft Visual Studio\2022\Professional\VC\Tools\MSVC\14.44.35207\include\xmemory

; 136  :         return ::operator new(_Bytes);

  002eb	83 c4 04	 add	 esp, 4
; File C:\Program Files\Microsoft Visual Studio\2022\Professional\VC\Tools\MSVC\14.44.35207\include\xtree

; 810  :     }

  002ee	c7 45 fc ff ff
	ff ff		 mov	 DWORD PTR __$EHRec$[ebp+8], -1
; File C:\Program Files\Microsoft Visual Studio\2022\Professional\VC\Tools\MSVC\14.44.35207\include\utility

; 774  :     _Val         = static_cast<_Other&&>(_New_val);

  002f5	c7 45 c8 00 00
	00 00		 mov	 DWORD PTR $T5[ebp+4], 0
; File C:\Program Files\Microsoft Visual Studio\2022\Professional\VC\Tools\MSVC\14.44.35207\include\xtree

; 830  :         _Alnode_traits::construct(this->_Al, _STD addressof(this->_Ptr->_Myval), _STD forward<_Valtys>(_Vals)...);

  002fc	89 48 10	 mov	 DWORD PTR [eax+16], ecx

; 1042 :         return {_Scary->_Insert_node(_Loc._Location, _Inserted), true};

  002ff	8b 4d 08	 mov	 ecx, DWORD PTR _this$1$[ebp]
  00302	50		 push	 eax
  00303	ff 75 b4	 push	 DWORD PTR __Loc$3[ebp+4]

; 830  :         _Alnode_traits::construct(this->_Al, _STD addressof(this->_Ptr->_Myval), _STD forward<_Valtys>(_Vals)...);

  00306	89 78 14	 mov	 DWORD PTR [eax+20], edi

; 1042 :         return {_Scary->_Insert_node(_Loc._Location, _Inserted), true};

  00309	ff 75 b0	 push	 DWORD PTR __Loc$3[ebp]

; 831  :         _Construct_in_place(this->_Ptr->_Left, _Myhead);

  0030c	89 30		 mov	 DWORD PTR [eax], esi

; 832  :         _Construct_in_place(this->_Ptr->_Parent, _Myhead);

  0030e	89 70 04	 mov	 DWORD PTR [eax+4], esi

; 833  :         _Construct_in_place(this->_Ptr->_Right, _Myhead);

  00311	89 70 08	 mov	 DWORD PTR [eax+8], esi

; 834  :         this->_Ptr->_Color = _Red;

  00314	66 c7 40 0c 00
	00		 mov	 WORD PTR [eax+12], 0

; 1042 :         return {_Scary->_Insert_node(_Loc._Location, _Inserted), true};

  0031a	e8 00 00 00 00	 call	 ?_Insert_node@?$_Tree_val@U?$_Tree_simple_types@U?$pair@$$CBHPAV?$list@PAVCEventItem@@V?$allocator@PAVCEventItem@@@std@@@std@@@std@@@std@@@std@@QAEPAU?$_Tree_node@U?$pair@$$CBHPAV?$list@PAVCEventItem@@V?$allocator@PAVCEventItem@@@std@@@std@@@std@@PAX@2@U?$_Tree_id@PAU?$_Tree_node@U?$pair@$$CBHPAV?$list@PAVCEventItem@@V?$allocator@PAVCEventItem@@@std@@@std@@@std@@PAX@std@@@2@QAU32@@Z ; std::_Tree_val<std::_Tree_simple_types<std::pair<int const ,std::list<CEventItem *,std::allocator<CEventItem *> > *> > >::_Insert_node
$LN273@Serialize:
; File C:\IAGOS\server\v18\Source\Source\_Common\spevent.cpp

; 457  : 			ar >> nEventItemSize;

  0031f	8d 45 e8	 lea	 eax, DWORD PTR _nEventItemSize$13[ebp]
  00322	8b cb		 mov	 ecx, ebx
  00324	50		 push	 eax
  00325	e8 00 00 00 00	 call	 ??$?5H@CAr@@QAEAAV0@AAH@Z ; CAr::operator>><int>

; 458  : 			for( int j = 0; j < nEventItemSize; j++ )

  0032a	83 7d e8 00	 cmp	 DWORD PTR _nEventItemSize$13[ebp], 0
  0032e	c7 45 f0 00 00
	00 00		 mov	 DWORD PTR _j$1$[ebp], 0
  00335	7e 7f		 jle	 SHORT $LN14@Serialize
$LL19@Serialize:

; 459  : 			{
; 460  : 				CEventItem* pEventItem	= new CEventItem;

  00337	6a 78		 push	 120			; 00000078H
  00339	e8 00 00 00 00	 call	 ??2@YAPAXI@Z		; operator new
  0033e	83 c4 04	 add	 esp, 4
  00341	89 45 dc	 mov	 DWORD PTR $T10[ebp], eax
  00344	85 c0		 test	 eax, eax
  00346	74 0b		 je	 SHORT $LN28@Serialize
  00348	8b c8		 mov	 ecx, eax
  0034a	e8 00 00 00 00	 call	 ??0CEventItem@@QAE@XZ	; CEventItem::CEventItem
  0034f	8b f0		 mov	 esi, eax
  00351	eb 02		 jmp	 SHORT $LN29@Serialize
$LN28@Serialize:
  00353	33 f6		 xor	 esi, esi
$LN29@Serialize:

; 461  : 				pEventItem->Serialize( ar );

  00355	53		 push	 ebx
  00356	8b ce		 mov	 ecx, esi
  00358	e8 00 00 00 00	 call	 ?Serialize@CEventItem@@QAEXAAVCAr@@@Z ; CEventItem::Serialize
; File C:\Program Files\Microsoft Visual Studio\2022\Professional\VC\Tools\MSVC\14.44.35207\include\list

; 1030 :         if (_Mysize == max_size()) {

  0035d	81 7f 04 55 55
	55 15		 cmp	 DWORD PTR [edi+4], 357913941 ; 15555555H

; 1274 :         _Emplace(_Mypair._Myval2._Myhead, _Val);

  00364	8b 07		 mov	 eax, DWORD PTR [edi]
  00366	89 45 dc	 mov	 DWORD PTR __Where$1$[ebp], eax

; 1030 :         if (_Mysize == max_size()) {

  00369	74 74		 je	 SHORT $LN437@Serialize
; File C:\Program Files\Microsoft Visual Studio\2022\Professional\VC\Tools\MSVC\14.44.35207\include\xmemory

; 1160 :     _CONSTEXPR20 explicit _Alloc_construct_ptr(_Alloc& _Al_) : _Al(_Al_), _Ptr(nullptr) {}

  0036b	89 7d bc	 mov	 DWORD PTR __Op$4[ebp], edi

; 136  :         return ::operator new(_Bytes);

  0036e	6a 0c		 push	 12			; 0000000cH
; File C:\Program Files\Microsoft Visual Studio\2022\Professional\VC\Tools\MSVC\14.44.35207\include\list

; 593  :     explicit _List_node_emplace_op2(_Alnode& _Al_, _Valtys&&... _Vals) : _Alloc_construct_ptr<_Alnode>(_Al_) {

  00370	c7 45 fc 03 00
	00 00		 mov	 DWORD PTR __$EHRec$[ebp+8], 3
; File C:\Program Files\Microsoft Visual Studio\2022\Professional\VC\Tools\MSVC\14.44.35207\include\xmemory

; 1167 :         _Ptr = nullptr; // if allocate throws, prevents double-free

  00377	c7 45 c0 00 00
	00 00		 mov	 DWORD PTR __Op$4[ebp+4], 0

; 136  :         return ::operator new(_Bytes);

  0037e	e8 00 00 00 00	 call	 ??2@YAPAXI@Z		; operator new
; File C:\Program Files\Microsoft Visual Studio\2022\Professional\VC\Tools\MSVC\14.44.35207\include\list

; 608  :         const pointer _Insert_after = _Insert_before->_Prev;

  00383	8b 55 dc	 mov	 edx, DWORD PTR __Where$1$[ebp]
; File C:\Program Files\Microsoft Visual Studio\2022\Professional\VC\Tools\MSVC\14.44.35207\include\xmemory

; 136  :         return ::operator new(_Bytes);

  00386	83 c4 04	 add	 esp, 4
; File C:\Program Files\Microsoft Visual Studio\2022\Professional\VC\Tools\MSVC\14.44.35207\include\list

; 596  :     }

  00389	c7 45 fc ff ff
	ff ff		 mov	 DWORD PTR __$EHRec$[ebp+8], -1

; 612  :         this->_Ptr            = pointer{};

  00390	c7 45 c0 00 00
	00 00		 mov	 DWORD PTR __Op$4[ebp+4], 0

; 595  :         _Alnode_traits::construct(this->_Al, _STD addressof(this->_Ptr->_Myval), _STD forward<_Valtys>(_Vals)...);

  00397	89 70 08	 mov	 DWORD PTR [eax+8], esi

; 1035 :         ++_Mysize;

  0039a	ff 47 04	 inc	 DWORD PTR [edi+4]

; 608  :         const pointer _Insert_after = _Insert_before->_Prev;

  0039d	8b 4a 04	 mov	 ecx, DWORD PTR [edx+4]
; File C:\IAGOS\server\v18\Source\Source\_Common\spevent.cpp

; 458  : 			for( int j = 0; j < nEventItemSize; j++ )

  003a0	8b 75 f0	 mov	 esi, DWORD PTR _j$1$[ebp]
; File C:\Program Files\Microsoft Visual Studio\2022\Professional\VC\Tools\MSVC\14.44.35207\include\list

; 609  :         _Construct_in_place(this->_Ptr->_Next, _Insert_before);

  003a3	89 10		 mov	 DWORD PTR [eax], edx
; File C:\IAGOS\server\v18\Source\Source\_Common\spevent.cpp

; 458  : 			for( int j = 0; j < nEventItemSize; j++ )

  003a5	46		 inc	 esi
; File C:\Program Files\Microsoft Visual Studio\2022\Professional\VC\Tools\MSVC\14.44.35207\include\list

; 610  :         _Construct_in_place(this->_Ptr->_Prev, _Insert_after);

  003a6	89 48 04	 mov	 DWORD PTR [eax+4], ecx

; 613  :         _Insert_before->_Prev = _Result;

  003a9	89 42 04	 mov	 DWORD PTR [edx+4], eax

; 614  :         _Insert_after->_Next  = _Result;

  003ac	89 01		 mov	 DWORD PTR [ecx], eax
; File C:\IAGOS\server\v18\Source\Source\_Common\spevent.cpp

; 458  : 			for( int j = 0; j < nEventItemSize; j++ )

  003ae	89 75 f0	 mov	 DWORD PTR _j$1$[ebp], esi
  003b1	3b 75 e8	 cmp	 esi, DWORD PTR _nEventItemSize$13[ebp]
  003b4	7c 81		 jl	 SHORT $LL19@Serialize
$LN14@Serialize:

; 446  : 		for( int i = 0; i < nEventItemListSize; i++ )

  003b6	8b 75 e4	 mov	 esi, DWORD PTR _i$1$[ebp]
  003b9	46		 inc	 esi
  003ba	89 75 e4	 mov	 DWORD PTR _i$1$[ebp], esi
  003bd	3b 75 e0	 cmp	 esi, DWORD PTR _nEventItemListSize$12[ebp]
  003c0	0f 8c 7a fe ff
	ff		 jl	 $LL16@Serialize

; 466  : }

  003c6	8b 4d f4	 mov	 ecx, DWORD PTR __$EHRec$[ebp]
  003c9	64 89 0d 00 00
	00 00		 mov	 DWORD PTR fs:0, ecx
  003d0	59		 pop	 ecx
  003d1	5f		 pop	 edi
  003d2	5e		 pop	 esi
  003d3	5b		 pop	 ebx
  003d4	8b e5		 mov	 esp, ebp
  003d6	5d		 pop	 ebp
  003d7	c2 04 00	 ret	 4
$LN439@Serialize:
; File C:\Program Files\Microsoft Visual Studio\2022\Professional\VC\Tools\MSVC\14.44.35207\include\xtree

; 1649 :             _Throw_tree_length_error();

  003da	e8 00 00 00 00	 call	 ?_Throw_tree_length_error@std@@YAXXZ ; std::_Throw_tree_length_error
$LN437@Serialize:
; File C:\Program Files\Microsoft Visual Studio\2022\Professional\VC\Tools\MSVC\14.44.35207\include\list

; 1031 :             _Xlength_error("list too long");

  003df	68 00 00 00 00	 push	 OFFSET ??_C@_0O@NKNMEGII@list?5too?5long@
  003e4	e8 00 00 00 00	 call	 ?_Xlength_error@std@@YAXPBD@Z ; std::_Xlength_error
$LN471@Serialize:
  003e9	cc		 int	 3
_TEXT	ENDS
;	COMDAT text$x
text$x	SEGMENT
__unwindfunclet$?Serialize@CEventGeneric@@QAEXAAVCAr@@@Z$12:
  00000	8d 4d d4	 lea	 ecx, DWORD PTR __Op$7[ebp]
  00003	e9 00 00 00 00	 jmp	 ??1?$_Alloc_construct_ptr@V?$allocator@U?$_List_node@PAU_EVENT_GENERIC@@PAX@std@@@std@@@std@@QAE@XZ ; std::_Alloc_construct_ptr<std::allocator<std::_List_node<_EVENT_GENERIC *,void *> > >::~_Alloc_construct_ptr<std::allocator<std::_List_node<_EVENT_GENERIC *,void *> > >
__unwindfunclet$?Serialize@CEventGeneric@@QAEXAAVCAr@@@Z$1:
  00008	6a 08		 push	 8
  0000a	8b 45 d8	 mov	 eax, DWORD PTR $T8[ebp]
  0000d	50		 push	 eax
  0000e	e8 00 00 00 00	 call	 ??3@YAXPAXI@Z		; operator delete
  00013	83 c4 08	 add	 esp, 8
  00016	c3		 ret	 0
__unwindfunclet$?Serialize@CEventGeneric@@QAEXAAVCAr@@@Z$8:
  00017	8d 4d c4	 lea	 ecx, DWORD PTR $T5[ebp]
  0001a	e9 00 00 00 00	 jmp	 ??1?$_Alloc_construct_ptr@V?$allocator@U?$_Tree_node@U?$pair@$$CBHPAV?$list@PAVCEventItem@@V?$allocator@PAVCEventItem@@@std@@@std@@@std@@PAX@std@@@std@@@std@@QAE@XZ ; std::_Alloc_construct_ptr<std::allocator<std::_Tree_node<std::pair<int const ,std::list<CEventItem *,std::allocator<CEventItem *> > *>,void *> > >::~_Alloc_construct_ptr<std::allocator<std::_Tree_node<std::pair<int const ,std::list<CEventItem *,std::allocator<CEventItem *> > *>,void *> > >
__unwindfunclet$?Serialize@CEventGeneric@@QAEXAAVCAr@@@Z$4:
  0001f	8d 4d bc	 lea	 ecx, DWORD PTR __Op$4[ebp]
  00022	e9 00 00 00 00	 jmp	 ??1?$_Alloc_construct_ptr@V?$allocator@U?$_List_node@PAVCEventItem@@PAX@std@@@std@@@std@@QAE@XZ ; std::_Alloc_construct_ptr<std::allocator<std::_List_node<CEventItem *,void *> > >::~_Alloc_construct_ptr<std::allocator<std::_List_node<CEventItem *,void *> > >
  00027	cc		 int	 3
  00028	cc		 int	 3
  00029	cc		 int	 3
  0002a	cc		 int	 3
  0002b	cc		 int	 3
__ehhandler$?Serialize@CEventGeneric@@QAEXAAVCAr@@@Z:
  0002c	90		 npad	 1
  0002d	90		 npad	 1
  0002e	8b 54 24 08	 mov	 edx, DWORD PTR [esp+8]
  00032	8d 42 0c	 lea	 eax, DWORD PTR [edx+12]
  00035	8b 4a a0	 mov	 ecx, DWORD PTR [edx-96]
  00038	33 c8		 xor	 ecx, eax
  0003a	e8 00 00 00 00	 call	 @__security_check_cookie@4
  0003f	b8 00 00 00 00	 mov	 eax, OFFSET __ehfuncinfo$?Serialize@CEventGeneric@@QAEXAAVCAr@@@Z
  00044	e9 00 00 00 00	 jmp	 ___CxxFrameHandler3
text$x	ENDS
?Serialize@CEventGeneric@@QAEXAAVCAr@@@Z ENDP		; CEventGeneric::Serialize
; Function compile flags: /Ogtp
; File C:\IAGOS\server\v18\Source\Source\_Common\spevent.cpp
;	COMDAT ?GetInstance@CEventGeneric@@SAPAV1@XZ
_TEXT	SEGMENT
__$EHRec$ = -12						; size = 12
?GetInstance@CEventGeneric@@SAPAV1@XZ PROC		; CEventGeneric::GetInstance, COMDAT

; 354  : {

  00000	55		 push	 ebp
  00001	8b ec		 mov	 ebp, esp
  00003	6a ff		 push	 -1
  00005	68 00 00 00 00	 push	 __ehhandler$?GetInstance@CEventGeneric@@SAPAV1@XZ
  0000a	64 a1 00 00 00
	00		 mov	 eax, DWORD PTR fs:0
  00010	50		 push	 eax
  00011	a1 00 00 00 00	 mov	 eax, DWORD PTR ___security_cookie
  00016	33 c5		 xor	 eax, ebp
  00018	50		 push	 eax
  00019	8d 45 f4	 lea	 eax, DWORD PTR __$EHRec$[ebp]
  0001c	64 a3 00 00 00
	00		 mov	 DWORD PTR fs:0, eax

; 355  : 	static CEventGeneric	sEventGeneric;

  00022	64 a1 00 00 00
	00		 mov	 eax, DWORD PTR fs:__tls_array
  00028	8b 0d 00 00 00
	00		 mov	 ecx, DWORD PTR __tls_index
  0002e	8b 0c 88	 mov	 ecx, DWORD PTR [eax+ecx*4]
  00031	a1 00 00 00 00	 mov	 eax, DWORD PTR ?$TSS0@?1??GetInstance@CEventGeneric@@SAPAV2@XZ@4HA
  00036	3b 81 00 00 00
	00		 cmp	 eax, DWORD PTR __Init_thread_epoch[ecx]
  0003c	7f 14		 jg	 SHORT $LN9@GetInstanc
$LN5@GetInstanc:

; 356  : 	return &sEventGeneric;
; 357  : }

  0003e	b8 00 00 00 00	 mov	 eax, OFFSET ?sEventGeneric@?1??GetInstance@CEventGeneric@@SAPAV2@XZ@4V2@A
  00043	8b 4d f4	 mov	 ecx, DWORD PTR __$EHRec$[ebp]
  00046	64 89 0d 00 00
	00 00		 mov	 DWORD PTR fs:0, ecx
  0004d	59		 pop	 ecx
  0004e	8b e5		 mov	 esp, ebp
  00050	5d		 pop	 ebp
  00051	c3		 ret	 0
$LN9@GetInstanc:

; 355  : 	static CEventGeneric	sEventGeneric;

  00052	68 00 00 00 00	 push	 OFFSET ?$TSS0@?1??GetInstance@CEventGeneric@@SAPAV2@XZ@4HA
  00057	e8 00 00 00 00	 call	 __Init_thread_header
  0005c	83 c4 04	 add	 esp, 4
  0005f	83 3d 00 00 00
	00 ff		 cmp	 DWORD PTR ?$TSS0@?1??GetInstance@CEventGeneric@@SAPAV2@XZ@4HA, -1
  00066	75 d6		 jne	 SHORT $LN5@GetInstanc
  00068	b9 00 00 00 00	 mov	 ecx, OFFSET ?sEventGeneric@?1??GetInstance@CEventGeneric@@SAPAV2@XZ@4V2@A
  0006d	c7 45 fc 00 00
	00 00		 mov	 DWORD PTR __$EHRec$[ebp+8], 0
  00074	e8 00 00 00 00	 call	 ??0CEventGeneric@@QAE@XZ ; CEventGeneric::CEventGeneric
  00079	68 00 00 00 00	 push	 OFFSET ??__FsEventGeneric@?1??GetInstance@CEventGeneric@@SAPAV1@XZ@YAXXZ ; `CEventGeneric::GetInstance'::`2'::`dynamic atexit destructor for 'sEventGeneric''
  0007e	e8 00 00 00 00	 call	 _atexit
  00083	68 00 00 00 00	 push	 OFFSET ?$TSS0@?1??GetInstance@CEventGeneric@@SAPAV2@XZ@4HA
  00088	e8 00 00 00 00	 call	 __Init_thread_footer
  0008d	83 c4 08	 add	 esp, 8
  00090	eb ac		 jmp	 SHORT $LN5@GetInstanc
_TEXT	ENDS
;	COMDAT text$x
text$x	SEGMENT
__unwindfunclet$?GetInstance@CEventGeneric@@SAPAV1@XZ$0:
  00000	68 00 00 00 00	 push	 OFFSET ?$TSS0@?1??GetInstance@CEventGeneric@@SAPAV2@XZ@4HA
  00005	e8 00 00 00 00	 call	 __Init_thread_abort
  0000a	59		 pop	 ecx
  0000b	c3		 ret	 0
  0000c	cc		 int	 3
  0000d	cc		 int	 3
  0000e	cc		 int	 3
  0000f	cc		 int	 3
  00010	cc		 int	 3
__ehhandler$?GetInstance@CEventGeneric@@SAPAV1@XZ:
  00011	90		 npad	 1
  00012	90		 npad	 1
  00013	8b 54 24 08	 mov	 edx, DWORD PTR [esp+8]
  00017	8d 42 0c	 lea	 eax, DWORD PTR [edx+12]
  0001a	8b 4a fc	 mov	 ecx, DWORD PTR [edx-4]
  0001d	33 c8		 xor	 ecx, eax
  0001f	e8 00 00 00 00	 call	 @__security_check_cookie@4
  00024	b8 00 00 00 00	 mov	 eax, OFFSET __ehfuncinfo$?GetInstance@CEventGeneric@@SAPAV1@XZ
  00029	e9 00 00 00 00	 jmp	 ___CxxFrameHandler3
text$x	ENDS
?GetInstance@CEventGeneric@@SAPAV1@XZ ENDP		; CEventGeneric::GetInstance
; Function compile flags: /Ogtp
; File C:\IAGOS\server\v18\Source\Source\_Common\spevent.cpp
; File C:\Program Files\Microsoft Visual Studio\2022\Professional\VC\Tools\MSVC\14.44.35207\include\vector
; File C:\IAGOS\server\v18\Source\Source\_Common\spevent.cpp
; File C:\Program Files\Microsoft Visual Studio\2022\Professional\VC\Tools\MSVC\14.44.35207\include\xtree
; File C:\IAGOS\server\v18\Source\Source\_Common\spevent.cpp
; File C:\Program Files\Microsoft Visual Studio\2022\Professional\VC\Tools\MSVC\14.44.35207\include\vector
; File C:\IAGOS\server\v18\Source\Source\_Common\xUtil.h
; File C:\Program Files\Microsoft Visual Studio\2022\Professional\VC\Tools\MSVC\14.44.35207\include\vector
; File C:\IAGOS\server\v18\Source\Source\_Common\spevent.h
; File C:\IAGOS\server\v18\Source\Source\_Common\xUtil.h
; File C:\Program Files\Microsoft Visual Studio\2022\Professional\VC\Tools\MSVC\14.44.35207\include\vector
; File C:\IAGOS\server\v18\Source\Source\_Common\xUtil.h
; File C:\Program Files\Microsoft Visual Studio\2022\Professional\VC\Tools\MSVC\14.44.35207\include\vector
; File C:\IAGOS\server\v18\Source\Source\_Common\spevent.h
; File C:\Program Files\Microsoft Visual Studio\2022\Professional\VC\Tools\MSVC\14.44.35207\include\vector
; File C:\IAGOS\server\v18\Source\Source\_Common\spevent.h
; File C:\Program Files\Microsoft Visual Studio\2022\Professional\VC\Tools\MSVC\14.44.35207\include\vector
; File C:\IAGOS\server\v18\Source\Source\_Common\spevent.h
; File C:\Program Files\Microsoft Visual Studio\2022\Professional\VC\Tools\MSVC\14.44.35207\include\vector
; File C:\IAGOS\server\v18\Source\Source\_Common\spevent.cpp
; File C:\Program Files\Microsoft Visual Studio\2022\Professional\VC\Tools\MSVC\14.44.35207\include\vector
; File C:\IAGOS\server\v18\Source\Source\_Common\spevent.cpp
; File C:\IAGOS\server\v18\Source\Source\_Common\Project.h
; File C:\IAGOS\server\v18\Source\Source\_Common\data.h
; File C:\IAGOS\server\v18\Source\Source\_Common\Project.h
; File C:\IAGOS\server\v18\Source\Source\_Common\spevent.cpp
; File C:\IAGOS\server\v18\Source\Source\_Common\Obj.h
; File C:\IAGOS\server\v18\Source\Source\_Common\spevent.cpp
; File C:\IAGOS\server\v18\Source\Source\_Common\Obj.h
; File C:\IAGOS\server\v18\Source\Source\_Common\spevent.cpp
; File C:\Program Files\Microsoft Visual Studio\2022\Professional\VC\Tools\MSVC\14.44.35207\include\xtree
; File C:\IAGOS\server\v18\Source\Source\_Common\spevent.cpp
;	COMDAT ?Spawn@CEventGeneric@@QAEXXZ
_TEXT	SEGMENT
$T2 = -216						; size = 12
$T3 = -204						; size = 12
tv926 = -192						; size = 8
tv869 = -184						; size = 8
$T4 = -172						; size = 4
tv878 = -168						; size = 4
_pSpawn$1$ = -164					; size = 4
tv927 = -160						; size = 8
$T5 = -156						; size = 4
_c$1$ = -156						; size = 4
_pWorld$1$ = -148					; size = 4
_nMax$1$ = -148						; size = 4
_this$GSCopy$1$ = -144					; size = 4
_v$6 = -140						; size = 12
_lpOutputString$7 = -128				; size = 100
__$ArrayPad$ = -20					; size = 4
__$EHRec$ = -12						; size = 12
?Spawn@CEventGeneric@@QAEXXZ PROC			; CEventGeneric::Spawn, COMDAT
; _this$ = ecx

; 564  : {

  00000	53		 push	 ebx
  00001	8b dc		 mov	 ebx, esp
  00003	83 ec 08	 sub	 esp, 8
  00006	83 e4 f8	 and	 esp, -8			; fffffff8H
  00009	83 c4 04	 add	 esp, 4
  0000c	55		 push	 ebp
  0000d	8b 6b 04	 mov	 ebp, DWORD PTR [ebx+4]
  00010	89 6c 24 04	 mov	 DWORD PTR [esp+4], ebp
  00014	8b ec		 mov	 ebp, esp
  00016	6a ff		 push	 -1
  00018	68 00 00 00 00	 push	 __ehhandler$?Spawn@CEventGeneric@@QAEXXZ
  0001d	64 a1 00 00 00
	00		 mov	 eax, DWORD PTR fs:0
  00023	50		 push	 eax
  00024	53		 push	 ebx
  00025	81 ec c8 00 00
	00		 sub	 esp, 200		; 000000c8H
  0002b	a1 00 00 00 00	 mov	 eax, DWORD PTR ___security_cookie
  00030	33 c5		 xor	 eax, ebp
  00032	89 45 ec	 mov	 DWORD PTR __$ArrayPad$[ebp], eax
  00035	56		 push	 esi
  00036	57		 push	 edi
  00037	50		 push	 eax
  00038	8d 45 f4	 lea	 eax, DWORD PTR __$EHRec$[ebp]
  0003b	64 a3 00 00 00
	00		 mov	 DWORD PTR fs:0, eax
  00041	8b f9		 mov	 edi, ecx
  00043	89 bd 70 ff ff
	ff		 mov	 DWORD PTR _this$GSCopy$1$[ebp], edi
; File C:\Program Files\Microsoft Visual Studio\2022\Professional\VC\Tools\MSVC\14.44.35207\include\vector

; 1915 :         return static_cast<size_type>(_My_data._Mylast - _My_data._Myfirst);

  00049	8b 57 1c	 mov	 edx, DWORD PTR [edi+28]
  0004c	b8 ab aa aa 2a	 mov	 eax, 715827883		; 2aaaaaabH
  00051	2b 57 18	 sub	 edx, DWORD PTR [edi+24]
  00054	f7 ea		 imul	 edx
  00056	d1 fa		 sar	 edx, 1
  00058	8b c2		 mov	 eax, edx
  0005a	c1 e8 1f	 shr	 eax, 31			; 0000001fH
  0005d	03 c2		 add	 eax, edx
; File C:\IAGOS\server\v18\Source\Source\_Common\spevent.cpp

; 565  : 	if( m_aRegionGeneric.size() == 0 )

  0005f	0f 84 40 04 00
	00		 je	 $LN3@Spawn
; File C:\Program Files\Microsoft Visual Studio\2022\Professional\VC\Tools\MSVC\14.44.35207\include\xtree

; 1142 :         return iterator(_Scary->_Myhead->_Left, _Scary);

  00065	8b 47 24	 mov	 eax, DWORD PTR [edi+36]

; 37   :     _Tree_unchecked_const_iterator(_Nodeptr _Pnode, const _Mytree* _Plist) noexcept : _Ptr(_Pnode) {

  00068	8b 30		 mov	 esi, DWORD PTR [eax]

; 237  :         return !(*this == _Right);

  0006a	3b f0		 cmp	 esi, eax
; File C:\IAGOS\server\v18\Source\Source\_Common\spevent.cpp

; 567  : 	for( map<int, CSpawn*>::iterator i	= m_mapSpawn.begin(); i != m_mapSpawn.end(); ++i )

  0006c	0f 84 33 04 00
	00		 je	 $LN3@Spawn
$LL4@Spawn:

; 568  : 	{
; 569  : 		if( g_eLocal.GetState( i->first ) )

  00072	ff 76 10	 push	 DWORD PTR [esi+16]
  00075	b9 00 00 00 00	 mov	 ecx, OFFSET ?g_eLocal@@3VCFlyffEvent@@A ; g_eLocal
  0007a	e8 00 00 00 00	 call	 ?GetState@CFlyffEvent@@QAEEH@Z ; CFlyffEvent::GetState
  0007f	84 c0		 test	 al, al
  00081	0f 84 d9 03 00
	00		 je	 $LN2@Spawn

; 570  : 		{
; 571  : 			CSpawn* pSpawn	= i->second;

  00087	8b 46 14	 mov	 eax, DWORD PTR [esi+20]

; 572  : 			if( pSpawn->IsTimeout() )

  0008a	8b c8		 mov	 ecx, eax
  0008c	89 85 5c ff ff
	ff		 mov	 DWORD PTR _pSpawn$1$[ebp], eax
  00092	e8 00 00 00 00	 call	 ?IsTimeout@CSpawn@@QAEHXZ ; CSpawn::IsTimeout
  00097	85 c0		 test	 eax, eax
  00099	0f 84 c1 03 00
	00		 je	 $LN2@Spawn
; File C:\Program Files\Microsoft Visual Studio\2022\Professional\VC\Tools\MSVC\14.44.35207\include\vector

; 1915 :         return static_cast<size_type>(_My_data._Mylast - _My_data._Myfirst);

  0009f	8b 4f 1c	 mov	 ecx, DWORD PTR [edi+28]
  000a2	b8 ab aa aa 2a	 mov	 eax, 715827883		; 2aaaaaabH
  000a7	2b 4f 18	 sub	 ecx, DWORD PTR [edi+24]
; File C:\IAGOS\server\v18\Source\Source\_Common\xUtil.h

; 16   : 	g_next = g_next * 1103515245 + 12345;// + nRandomSeed[ i++ ];

  000aa	69 3d 00 00 00
	00 6d 4e c6 41	 imul	 edi, DWORD PTR ?g_next@@3KA, 1103515245 ; g_next
; File C:\Program Files\Microsoft Visual Studio\2022\Professional\VC\Tools\MSVC\14.44.35207\include\vector

; 1915 :         return static_cast<size_type>(_My_data._Mylast - _My_data._Myfirst);

  000b4	f7 e9		 imul	 ecx
; File C:\IAGOS\server\v18\Source\Source\_Common\spevent.h

; 108  : 		return	( (DWORD)( ( nMax + ( m_fRatio - 1.0F ) * ( nMax - 1 ) / 2.0F ) * 100.0F ) );

  000b6	8b 85 5c ff ff
	ff		 mov	 eax, DWORD PTR _pSpawn$1$[ebp]
; File C:\IAGOS\server\v18\Source\Source\_Common\xUtil.h

; 16   : 	g_next = g_next * 1103515245 + 12345;// + nRandomSeed[ i++ ];

  000bc	81 c7 39 30 00
	00		 add	 edi, 12345		; 00003039H
; File C:\Program Files\Microsoft Visual Studio\2022\Professional\VC\Tools\MSVC\14.44.35207\include\vector

; 1915 :         return static_cast<size_type>(_My_data._Mylast - _My_data._Myfirst);

  000c2	d1 fa		 sar	 edx, 1
  000c4	8b ca		 mov	 ecx, edx
; File C:\IAGOS\server\v18\Source\Source\_Common\xUtil.h

; 16   : 	g_next = g_next * 1103515245 + 12345;// + nRandomSeed[ i++ ];

  000c6	89 3d 00 00 00
	00		 mov	 DWORD PTR ?g_next@@3KA, edi ; g_next
; File C:\Program Files\Microsoft Visual Studio\2022\Professional\VC\Tools\MSVC\14.44.35207\include\vector

; 1915 :         return static_cast<size_type>(_My_data._Mylast - _My_data._Myfirst);

  000cc	c1 e9 1f	 shr	 ecx, 31			; 0000001fH
; File C:\IAGOS\server\v18\Source\Source\_Common\spevent.h

; 108  : 		return	( (DWORD)( ( nMax + ( m_fRatio - 1.0F ) * ( nMax - 1 ) / 2.0F ) * 100.0F ) );

  000cf	f3 0f 10 50 08	 movss	 xmm2, DWORD PTR [eax+8]
; File C:\Program Files\Microsoft Visual Studio\2022\Professional\VC\Tools\MSVC\14.44.35207\include\vector

; 1915 :         return static_cast<size_type>(_My_data._Mylast - _My_data._Myfirst);

  000d4	03 ca		 add	 ecx, edx
; File C:\IAGOS\server\v18\Source\Source\_Common\spevent.h

; 108  : 		return	( (DWORD)( ( nMax + ( m_fRatio - 1.0F ) * ( nMax - 1 ) / 2.0F ) * 100.0F ) );

  000d6	f3 0f 5c 15 00
	00 00 00	 subss	 xmm2, DWORD PTR __real@3f800000
; File C:\Program Files\Microsoft Visual Studio\2022\Professional\VC\Tools\MSVC\14.44.35207\include\vector

; 1915 :         return static_cast<size_type>(_My_data._Mylast - _My_data._Myfirst);

  000de	89 8d 6c ff ff
	ff		 mov	 DWORD PTR _nMax$1$[ebp], ecx
  000e4	66 0f 6e c9	 movd	 xmm1, ecx
; File C:\IAGOS\server\v18\Source\Source\_Common\spevent.h

; 108  : 		return	( (DWORD)( ( nMax + ( m_fRatio - 1.0F ) * ( nMax - 1 ) / 2.0F ) * 100.0F ) );

  000e8	49		 dec	 ecx
  000e9	0f 5b c9	 cvtdq2ps xmm1, xmm1
  000ec	66 0f 6e c1	 movd	 xmm0, ecx
  000f0	0f 5b c0	 cvtdq2ps xmm0, xmm0
  000f3	f3 0f 11 95 64
	ff ff ff	 movss	 DWORD PTR _c$1$[ebp], xmm2
  000fb	f3 0f 59 c2	 mulss	 xmm0, xmm2
  000ff	f3 0f 59 05 00
	00 00 00	 mulss	 xmm0, DWORD PTR __real@3f000000
  00107	f3 0f 58 c1	 addss	 xmm0, xmm1
  0010b	f3 0f 59 05 00
	00 00 00	 mulss	 xmm0, DWORD PTR __real@42c80000
  00113	e8 00 00 00 00	 call	 __ftol3
  00118	66 0f 6e 85 6c
	ff ff ff	 movd	 xmm0, DWORD PTR _nMax$1$[ebp]
  00120	8b c8		 mov	 ecx, eax

; 115  : 		float c	= ( m_fRatio - 1.0F ) / (float)nMax;

  00122	f3 0f 10 8d 64
	ff ff ff	 movss	 xmm1, DWORD PTR _c$1$[ebp]

; 108  : 		return	( (DWORD)( ( nMax + ( m_fRatio - 1.0F ) * ( nMax - 1 ) / 2.0F ) * 100.0F ) );

  0012a	8b c7		 mov	 eax, edi

; 115  : 		float c	= ( m_fRatio - 1.0F ) / (float)nMax;

  0012c	0f 5b c0	 cvtdq2ps xmm0, xmm0

; 108  : 		return	( (DWORD)( ( nMax + ( m_fRatio - 1.0F ) * ( nMax - 1 ) / 2.0F ) * 100.0F ) );

  0012f	33 d2		 xor	 edx, edx
  00131	f7 f1		 div	 ecx

; 115  : 		float c	= ( m_fRatio - 1.0F ) / (float)nMax;

  00133	f3 0f 5e c8	 divss	 xmm1, xmm0
  00137	8b fa		 mov	 edi, edx

; 116  : 		float D	= pow( c + 2, 2 ) - 4 * c * ( 2 - dwProb / 50.0F );

  00139	0f 28 c1	 movaps	 xmm0, xmm1
  0013c	f3 0f 11 8d 64
	ff ff ff	 movss	 DWORD PTR _c$1$[ebp], xmm1
  00144	f3 0f 58 05 00
	00 00 00	 addss	 xmm0, DWORD PTR __real@40000000
  0014c	f2 0f 10 0d 00
	00 00 00	 movsd	 xmm1, QWORD PTR __real@4000000000000000
  00154	f3 0f 11 85 58
	ff ff ff	 movss	 DWORD PTR tv878[ebp], xmm0
  0015c	0f 5a c0	 cvtps2pd xmm0, xmm0
  0015f	f2 0f 11 85 40
	ff ff ff	 movsd	 QWORD PTR tv926[ebp], xmm0
  00167	e8 00 00 00 00	 call	 __libm_sse2_pow_precise
  0016c	66 0f 6e cf	 movd	 xmm1, edi
  00170	0f 28 d8	 movaps	 xmm3, xmm0
  00173	f3 0f e6 c9	 cvtdq2pd xmm1, xmm1
  00177	c1 ef 1f	 shr	 edi, 31			; 0000001fH
  0017a	f3 0f 10 15 00
	00 00 00	 movss	 xmm2, DWORD PTR __real@40000000
  00182	f2 0f 58 0c fd
	00 00 00 00	 addsd	 xmm1, QWORD PTR __xmm@41f00000000000000000000000000000[edi*8]
  0018b	66 0f 5a c9	 cvtpd2ps xmm1, xmm1
  0018f	f3 0f 5e 0d 00
	00 00 00	 divss	 xmm1, DWORD PTR __real@42480000
  00197	f3 0f 5c d1	 subss	 xmm2, xmm1
  0019b	f3 0f 10 8d 64
	ff ff ff	 movss	 xmm1, DWORD PTR _c$1$[ebp]
  001a3	0f 28 c1	 movaps	 xmm0, xmm1
  001a6	f3 0f 58 c9	 addss	 xmm1, xmm1
  001aa	f3 0f 59 05 00
	00 00 00	 mulss	 xmm0, DWORD PTR __real@40800000
  001b2	f3 0f 59 d0	 mulss	 xmm2, xmm0
  001b6	0f 5a c9	 cvtps2pd xmm1, xmm1
  001b9	0f 5a c2	 cvtps2pd xmm0, xmm2
  001bc	f2 0f 11 8d 60
	ff ff ff	 movsd	 QWORD PTR tv927[ebp], xmm1
  001c4	0f 57 c9	 xorps	 xmm1, xmm1
  001c7	f2 0f 5c d8	 subsd	 xmm3, xmm0
  001cb	0f 57 c0	 xorps	 xmm0, xmm0
  001ce	f2 0f 5a c3	 cvtsd2ss xmm0, xmm3
  001d2	f2 0f 11 9d 48
	ff ff ff	 movsd	 QWORD PTR tv869[ebp], xmm3
  001da	0f 5a c0	 cvtps2pd xmm0, xmm0
  001dd	66 0f 2e c8	 ucomisd xmm1, xmm0
  001e1	77 06		 ja	 SHORT $LN140@Spawn
  001e3	f2 0f 51 c0	 sqrtsd	 xmm0, xmm0
  001e7	eb 05		 jmp	 SHORT $LN141@Spawn
$LN140@Spawn:
  001e9	e8 00 00 00 00	 call	 __libm_sse2_sqrt_precise
$LN141@Spawn:
  001ee	0f 28 d0	 movaps	 xmm2, xmm0
  001f1	0f 57 db	 xorps	 xmm3, xmm3

; 117  : 		int nIndex	= 0;
; 118  : 		if( D > 0 )

  001f4	f2 0f 10 85 48
	ff ff ff	 movsd	 xmm0, QWORD PTR tv869[ebp]
  001fc	66 0f 5a c8	 cvtpd2ps xmm1, xmm0
  00200	0f 2f cb	 comiss	 xmm1, xmm3
  00203	76 12		 jbe	 SHORT $LN79@Spawn

; 119  : 			nIndex	= (int)( ( - ( 2 + c ) + sqrt( D ) ) / ( 2 * c ) + 1 );

  00205	f2 0f 5c 95 40
	ff ff ff	 subsd	 xmm2, QWORD PTR tv926[ebp]
  0020d	f2 0f 5e 95 60
	ff ff ff	 divsd	 xmm2, QWORD PTR tv927[ebp]
  00215	eb 22		 jmp	 SHORT $LN80@Spawn
$LN79@Spawn:

; 120  : 		else
; 121  : 			nIndex	= (int)( ( - ( 2 + c ) - sqrt( D ) ) / ( 2 * c ) + 1 );

  00217	f3 0f 10 85 58
	ff ff ff	 movss	 xmm0, DWORD PTR tv878[ebp]
  0021f	0f 57 05 00 00
	00 00		 xorps	 xmm0, DWORD PTR __xmm@80000000800000008000000080000000
  00226	f3 0f 5a c0	 cvtss2sd xmm0, xmm0
  0022a	f2 0f 5c c2	 subsd	 xmm0, xmm2
  0022e	f2 0f 5e 85 60
	ff ff ff	 divsd	 xmm0, QWORD PTR tv927[ebp]
  00236	0f 28 d0	 movaps	 xmm2, xmm0
$LN80@Spawn:

; 122  : 		if( nIndex < 0 || nIndex >= nMax )

  00239	f2 0f 58 15 00
	00 00 00	 addsd	 xmm2, QWORD PTR __real@3ff0000000000000
  00241	f2 0f 2c c2	 cvttsd2si eax, xmm2
  00245	85 c0		 test	 eax, eax
  00247	78 08		 js	 SHORT $LN82@Spawn
  00249	3b 85 6c ff ff
	ff		 cmp	 eax, DWORD PTR _nMax$1$[ebp]
  0024f	7c 02		 jl	 SHORT $LN81@Spawn
$LN82@Spawn:

; 123  : 		{
; 124  : 			// error
; 125  : 			nIndex	= 0;

  00251	33 c0		 xor	 eax, eax
$LN81@Spawn:
; File C:\Program Files\Microsoft Visual Studio\2022\Professional\VC\Tools\MSVC\14.44.35207\include\vector

; 1934 :         return _My_data._Myfirst[_Pos];

  00253	8d 3c 40	 lea	 edi, DWORD PTR [eax+eax*2]
; File C:\IAGOS\server\v18\Source\Source\_Common\spevent.cpp

; 575  : 				CWorld* pWorld	= g_WorldMng.GetWorld( m_aRegionGeneric[nIndex].dwWorldId );

  00256	b9 00 00 00 00	 mov	 ecx, OFFSET ?g_WorldMng@@3VCWorldMng@@A ; g_WorldMng
; File C:\Program Files\Microsoft Visual Studio\2022\Professional\VC\Tools\MSVC\14.44.35207\include\vector

; 1934 :         return _My_data._Myfirst[_Pos];

  0025b	8b 85 70 ff ff
	ff		 mov	 eax, DWORD PTR _this$GSCopy$1$[ebp]
  00261	8b 40 18	 mov	 eax, DWORD PTR [eax+24]
; File C:\IAGOS\server\v18\Source\Source\_Common\spevent.cpp

; 575  : 				CWorld* pWorld	= g_WorldMng.GetWorld( m_aRegionGeneric[nIndex].dwWorldId );

  00264	ff 74 b8 04	 push	 DWORD PTR [eax+edi*4+4]
  00268	e8 00 00 00 00	 call	 ?GetWorld@CWorldMng@@QAEPAVCWorld@@K@Z ; CWorldMng::GetWorld
  0026d	89 85 6c ff ff
	ff		 mov	 DWORD PTR _pWorld$1$[ebp], eax

; 576  : 				if( pWorld )

  00273	85 c0		 test	 eax, eax
  00275	0f 84 df 01 00
	00		 je	 $LN138@Spawn

; 577  : 				{
; 578  : 					D3DXVECTOR3 v;
; 579  : 					m_aRegionGeneric[nIndex].pi->GetPos( v );

  0027b	6a 01		 push	 1
  0027d	8d 85 74 ff ff
	ff		 lea	 eax, DWORD PTR _v$6[ebp]
  00283	50		 push	 eax
  00284	8b 85 70 ff ff
	ff		 mov	 eax, DWORD PTR _this$GSCopy$1$[ebp]
  0028a	8b 48 18	 mov	 ecx, DWORD PTR [eax+24]
  0028d	8b 4c b9 08	 mov	 ecx, DWORD PTR [ecx+edi*4+8]
  00291	e8 00 00 00 00	 call	 ?GetPos@CRespawnInfo@@QAEXAAUD3DXVECTOR3@@H@Z ; CRespawnInfo::GetPos

; 580  : 					v.y		=	pWorld->GetLandHeight( v.x, v.z ) + 1.0f;

  00296	f3 0f 10 85 7c
	ff ff ff	 movss	 xmm0, DWORD PTR _v$6[ebp+8]
  0029e	83 ec 08	 sub	 esp, 8
  002a1	8b 8d 6c ff ff
	ff		 mov	 ecx, DWORD PTR _pWorld$1$[ebp]
  002a7	f3 0f 11 44 24
	04		 movss	 DWORD PTR [esp+4], xmm0
  002ad	f3 0f 10 85 74
	ff ff ff	 movss	 xmm0, DWORD PTR _v$6[ebp]
  002b5	f3 0f 11 04 24	 movss	 DWORD PTR [esp], xmm0
  002ba	e8 00 00 00 00	 call	 ?GetLandHeight@CWorld@@QAEMMM@Z ; CWorld::GetLandHeight

; 581  : 					CObj* pObj	= CreateObj( D3DDEVICE, pSpawn->m_dwType, pSpawn->m_dwIndex );

  002bf	8b 85 5c ff ff
	ff		 mov	 eax, DWORD PTR _pSpawn$1$[ebp]
  002c5	d9 e8		 fld1
  002c7	6a 01		 push	 1
  002c9	de c1		 faddp	 ST(1), ST(0)
  002cb	ff 70 18	 push	 DWORD PTR [eax+24]
  002ce	ff 70 14	 push	 DWORD PTR [eax+20]
  002d1	6a 00		 push	 0
  002d3	d9 9d 78 ff ff
	ff		 fstp	 DWORD PTR _v$6[ebp+4]
  002d9	e8 00 00 00 00	 call	 ?CreateObj@@YAPAVCObj@@PAUIDirect3DDevice9@@KKH@Z ; CreateObj
  002de	8b f8		 mov	 edi, eax
  002e0	83 c4 10	 add	 esp, 16			; 00000010H

; 582  : 					if( pSpawn->m_dwType == OT_ITEM )

  002e3	8b 85 5c ff ff
	ff		 mov	 eax, DWORD PTR _pSpawn$1$[ebp]
  002e9	83 78 14 04	 cmp	 DWORD PTR [eax+20], 4
  002ed	0f 85 5b 01 00
	00		 jne	 $LN9@Spawn

; 583  : 					{
; 584  : 						CItemElem* pItemElem	= new CItemElem;

  002f3	68 b0 00 00 00	 push	 176			; 000000b0H
  002f8	e8 00 00 00 00	 call	 ??2@YAPAXI@Z		; operator new
  002fd	83 c4 04	 add	 esp, 4
  00300	89 85 54 ff ff
	ff		 mov	 DWORD PTR $T4[ebp], eax
  00306	c7 45 fc 00 00
	00 00		 mov	 DWORD PTR __$EHRec$[ebp+8], 0
  0030d	85 c0		 test	 eax, eax
  0030f	74 11		 je	 SHORT $LN13@Spawn
  00311	8b c8		 mov	 ecx, eax
  00313	e8 00 00 00 00	 call	 ??0CItemElem@@QAE@XZ	; CItemElem::CItemElem
  00318	8b d0		 mov	 edx, eax
  0031a	89 85 64 ff ff
	ff		 mov	 DWORD PTR $T5[ebp], eax
  00320	eb 08		 jmp	 SHORT $LN14@Spawn
$LN13@Spawn:
  00322	33 d2		 xor	 edx, edx
  00324	89 95 64 ff ff
	ff		 mov	 DWORD PTR $T5[ebp], edx
$LN14@Spawn:

; 585  : 						pItemElem->m_dwItemId	= pSpawn->m_dwIndex;

  0032a	8b 85 5c ff ff
	ff		 mov	 eax, DWORD PTR _pSpawn$1$[ebp]
  00330	c7 45 fc ff ff
	ff ff		 mov	 DWORD PTR __$EHRec$[ebp+8], -1
  00337	8b 48 18	 mov	 ecx, DWORD PTR [eax+24]

; 586  : 						pItemElem->m_nItemNum	= 1;

  0033a	b8 01 00 00 00	 mov	 eax, 1
  0033f	89 4a 0c	 mov	 DWORD PTR [edx+12], ecx
  00342	66 89 42 74	 mov	 WORD PTR [edx+116], ax
; File C:\IAGOS\server\v18\Source\Source\_Common\Project.h

; 1389 : 	VERIFY_RANGE_ASSERT( nIndex, 0, m_aPropItem.GetSize(), "GetItemProp range_error", NULL );

  00346	a1 40 02 00 00	 mov	 eax, DWORD PTR ?prj@@3VCProject@@A+576
  0034b	85 c9		 test	 ecx, ecx
  0034d	78 10		 js	 SHORT $LN113@Spawn
  0034f	3b c8		 cmp	 ecx, eax
  00351	7d 0c		 jge	 SHORT $LN113@Spawn
; File C:\IAGOS\server\v18\Source\Source\_Common\data.h

; 270  : 	if( dwIndex >= (DWORD)m_nMaxIndex )

  00353	73 26		 jae	 SHORT $LN142@Spawn

; 271  : 		return NULL;
; 272  : 	return (T*) m_apOffset[ dwIndex ];

  00355	a1 30 02 00 00	 mov	 eax, DWORD PTR ?prj@@3VCProject@@A+560
  0035a	8b 04 88	 mov	 eax, DWORD PTR [eax+ecx*4]
; File C:\IAGOS\server\v18\Source\Source\_Common\Project.h

; 1390 : 	return m_aPropItem.GetAt( nIndex ); 

  0035d	eb 1e		 jmp	 SHORT $LN108@Spawn
$LN113@Spawn:

; 579  : 	LPCTSTR szErr = Error( _T( "%s min:%d, max:%d, index:%d" ), szMsg, nMin, nMax, nIndex ); 

  0035f	51		 push	 ecx
  00360	50		 push	 eax
  00361	6a 00		 push	 0
  00363	68 00 00 00 00	 push	 OFFSET ??_C@_0BI@BEIFNGEL@GetItemProp?5range_error@
  00368	68 00 00 00 00	 push	 OFFSET ??_C@_0BM@HMFGHCP@?$CFs?5min?3?$CFd?0?5max?3?$CFd?0?5index?3?$CFd@
  0036d	e8 00 00 00 00	 call	 ?Error@@YAPBDPBDZZ	; Error
  00372	8b 95 64 ff ff
	ff		 mov	 edx, DWORD PTR $T5[ebp]
  00378	83 c4 14	 add	 esp, 20			; 00000014H
$LN142@Spawn:
; File C:\IAGOS\server\v18\Source\Source\_Common\spevent.cpp

; 588  : 						pItemElem->m_nHitPoint	= pItemProp->dwEndurance;

  0037b	33 c0		 xor	 eax, eax
$LN108@Spawn:
  0037d	8b 80 90 00 00
	00		 mov	 eax, DWORD PTR [eax+144]

; 589  : 						pItemElem->SetSerialNumber();

  00383	8b ca		 mov	 ecx, edx
  00385	89 42 70	 mov	 DWORD PTR [edx+112], eax
  00388	e8 00 00 00 00	 call	 ?SetSerialNumber@CItemBase@@QAEXXZ ; CItemBase::SetSerialNumber

; 590  : 						( (CItem*)pObj )->m_dwDropTime	= g_tmCurrent + MIN( 1440 );	// 24˝Ă°Ł ŔŻÁö

  0038d	a1 00 00 00 00	 mov	 eax, DWORD PTR ?g_tmCurrent@@3KA ; g_tmCurrent

; 591  : 						( (CItem*)pObj )->m_pItemBase	= pItemElem;
; 592  : 						pObj->SetPos( v );

  00392	8b cf		 mov	 ecx, edi
  00394	05 00 5c 26 05	 add	 eax, 86400000		; 05265c00H
  00399	89 87 3c 02 00
	00		 mov	 DWORD PTR [edi+572], eax
  0039f	8b 85 64 ff ff
	ff		 mov	 eax, DWORD PTR $T5[ebp]
  003a5	89 87 30 02 00
	00		 mov	 DWORD PTR [edi+560], eax
  003ab	8d 85 74 ff ff
	ff		 lea	 eax, DWORD PTR _v$6[ebp]
  003b1	50		 push	 eax
  003b2	e8 00 00 00 00	 call	 ?SetPos@CObj@@QAEXABUD3DXVECTOR3@@@Z ; CObj::SetPos

; 593  : //#ifdef _DEBUG
; 594  : 						char lpOutputString[100]	= { 0, };

  003b7	6a 64		 push	 100			; 00000064H
  003b9	8d 45 80	 lea	 eax, DWORD PTR _lpOutputString$7[ebp]
  003bc	6a 00		 push	 0
  003be	50		 push	 eax
  003bf	e8 00 00 00 00	 call	 _memset
; File C:\IAGOS\server\v18\Source\Source\_Common\Obj.h

; 215  : 	D3DXVECTOR3		GetPos()	{ return m_vPos; }

  003c4	f3 0f 7e 87 60
	01 00 00	 movq	 xmm0, QWORD PTR [edi+352]
  003cc	8b 87 68 01 00
	00		 mov	 eax, DWORD PTR [edi+360]
  003d2	66 0f d6 85 34
	ff ff ff	 movq	 QWORD PTR $T3[ebp], xmm0
  003da	f3 0f 7e c0	 movq	 xmm0, xmm0
  003de	89 85 3c ff ff
	ff		 mov	 DWORD PTR $T3[ebp+8], eax
; File C:\IAGOS\server\v18\Source\Source\_Common\spevent.cpp

; 595  : 						sprintf( lpOutputString, "spawn: type = %d, index = %d, world = %d, x = %f, z = %f\n", OT_ITEM, pItemElem->m_dwItemId, pWorld->GetID(), pObj->GetPos().x, pObj->GetPos().z );

  003e4	8b 85 6c ff ff
	ff		 mov	 eax, DWORD PTR _pWorld$1$[ebp]
; File C:\IAGOS\server\v18\Source\Source\_Common\Obj.h

; 215  : 	D3DXVECTOR3		GetPos()	{ return m_vPos; }

  003ea	66 0f d6 85 28
	ff ff ff	 movq	 QWORD PTR $T2[ebp], xmm0
  003f2	f3 0f 10 85 3c
	ff ff ff	 movss	 xmm0, DWORD PTR $T3[ebp+8]
; File C:\IAGOS\server\v18\Source\Source\_Common\spevent.cpp

; 595  : 						sprintf( lpOutputString, "spawn: type = %d, index = %d, world = %d, x = %f, z = %f\n", OT_ITEM, pItemElem->m_dwItemId, pWorld->GetID(), pObj->GetPos().x, pObj->GetPos().z );

  003fa	0f 5a c0	 cvtps2pd xmm0, xmm0
  003fd	51		 push	 ecx
  003fe	f2 0f 11 44 24
	08		 movsd	 QWORD PTR [esp+8], xmm0
  00404	f3 0f 10 85 28
	ff ff ff	 movss	 xmm0, DWORD PTR $T2[ebp]
  0040c	0f 5a c0	 cvtps2pd xmm0, xmm0
  0040f	f2 0f 11 04 24	 movsd	 QWORD PTR [esp], xmm0
  00414	ff 30		 push	 DWORD PTR [eax]
  00416	8b 85 64 ff ff
	ff		 mov	 eax, DWORD PTR $T5[ebp]
  0041c	ff 70 0c	 push	 DWORD PTR [eax+12]
  0041f	8d 45 80	 lea	 eax, DWORD PTR _lpOutputString$7[ebp]
  00422	6a 04		 push	 4
  00424	68 00 00 00 00	 push	 OFFSET ??_C@_0DK@PJCDFLMA@spawn?3?5type?5?$DN?5?$CFd?0?5index?5?$DN?5?$CFd?0?5w@
  00429	50		 push	 eax
  0042a	e8 00 00 00 00	 call	 _sprintf
  0042f	83 c4 24	 add	 esp, 36			; 00000024H

; 596  : 						//g_UserMng.AddWorldMsg( WI_WORLD_MADRIGAL, lpOutputString );
; 597  : 						OutputDebugString( lpOutputString );

  00432	8d 45 80	 lea	 eax, DWORD PTR _lpOutputString$7[ebp]
  00435	50		 push	 eax
  00436	ff 15 00 00 00
	00		 call	 DWORD PTR __imp__OutputDebugStringA@4

; 598  : //#endif	// _DEBUG
; 599  : 						pWorld->ADDOBJ( pObj, TRUE, nTempLayer );

  0043c	8b 8d 6c ff ff
	ff		 mov	 ecx, DWORD PTR _pWorld$1$[ebp]
  00442	6a 00		 push	 0
  00444	6a 01		 push	 1
  00446	57		 push	 edi
  00447	e8 00 00 00 00	 call	 ?AddObj@CWorld@@QAEHPAVCObj@@HH@Z ; CWorld::AddObj

; 600  : 					}

  0044c	eb 0c		 jmp	 SHORT $LN138@Spawn
$LN9@Spawn:

; 601  : 					else
; 602  : 					{
; 603  : 						// ¸ó˝şĹÍżÍ ÄÁĆ®·Ń ˝şĆůŔş ŔĚ ČÄ Ăß°ˇ żąÁ¤
; 604  : 						SAFE_DELETE( pObj );

  0044e	85 ff		 test	 edi, edi
  00450	74 08		 je	 SHORT $LN138@Spawn
  00452	8b 07		 mov	 eax, DWORD PTR [edi]
  00454	8b cf		 mov	 ecx, edi
  00456	6a 01		 push	 1
  00458	ff 10		 call	 DWORD PTR [eax]
$LN138@Spawn:
; File C:\Program Files\Microsoft Visual Studio\2022\Professional\VC\Tools\MSVC\14.44.35207\include\xtree

; 50   :         if (_Ptr->_Right->_Isnil) { // climb looking for right subtree

  0045a	8b bd 70 ff ff
	ff		 mov	 edi, DWORD PTR _this$GSCopy$1$[ebp]
$LN2@Spawn:
  00460	8b 46 08	 mov	 eax, DWORD PTR [esi+8]
  00463	80 78 0d 00	 cmp	 BYTE PTR [eax+13], 0
  00467	74 1d		 je	 SHORT $LN45@Spawn

; 51   :             _Nodeptr _Pnode;
; 52   :             while (!(_Pnode = _Ptr->_Parent)->_Isnil && _Ptr == _Pnode->_Right) {

  00469	8b 46 04	 mov	 eax, DWORD PTR [esi+4]
  0046c	80 78 0d 00	 cmp	 BYTE PTR [eax+13], 0
  00470	75 10		 jne	 SHORT $LN136@Spawn
$LL43@Spawn:
  00472	3b 70 08	 cmp	 esi, DWORD PTR [eax+8]
  00475	75 0b		 jne	 SHORT $LN136@Spawn

; 53   :                 _Ptr = _Pnode; // ==> parent while right subtree

  00477	8b f0		 mov	 esi, eax
  00479	8b 40 04	 mov	 eax, DWORD PTR [eax+4]
  0047c	80 78 0d 00	 cmp	 BYTE PTR [eax+13], 0
  00480	74 f0		 je	 SHORT $LL43@Spawn
$LN136@Spawn:

; 54   :             }
; 55   : 
; 56   :             _Ptr = _Pnode; // ==> parent (head if end())

  00482	8b f0		 mov	 esi, eax

; 57   :         } else {

  00484	eb 16		 jmp	 SHORT $LN51@Spawn
$LN45@Spawn:

; 58   :             _Ptr = _Mytree::_Min(_Ptr->_Right); // ==> smallest of right subtree

  00486	8b f0		 mov	 esi, eax

; 476  :         while (!_Pnode->_Left->_Isnil) {

  00488	8b 0e		 mov	 ecx, DWORD PTR [esi]
  0048a	80 79 0d 00	 cmp	 BYTE PTR [ecx+13], 0
  0048e	75 0c		 jne	 SHORT $LN51@Spawn
$LL50@Spawn:
  00490	8b 01		 mov	 eax, DWORD PTR [ecx]

; 477  :             _Pnode = _Pnode->_Left;

  00492	8b f1		 mov	 esi, ecx
  00494	8b c8		 mov	 ecx, eax
  00496	80 78 0d 00	 cmp	 BYTE PTR [eax+13], 0
  0049a	74 f4		 je	 SHORT $LL50@Spawn
$LN51@Spawn:

; 237  :         return !(*this == _Right);

  0049c	3b 77 24	 cmp	 esi, DWORD PTR [edi+36]
; File C:\IAGOS\server\v18\Source\Source\_Common\spevent.cpp

; 567  : 	for( map<int, CSpawn*>::iterator i	= m_mapSpawn.begin(); i != m_mapSpawn.end(); ++i )

  0049f	0f 85 cd fb ff
	ff		 jne	 $LL4@Spawn
$LN3@Spawn:

; 605  : 					}
; 606  : 				}	// pWorld
; 607  : 			}	// IsTimeout
; 608  : 		}
; 609  : 	}
; 610  : }

  004a5	8b 4d f4	 mov	 ecx, DWORD PTR __$EHRec$[ebp]
  004a8	64 89 0d 00 00
	00 00		 mov	 DWORD PTR fs:0, ecx
  004af	59		 pop	 ecx
  004b0	5f		 pop	 edi
  004b1	5e		 pop	 esi
  004b2	8b 4d ec	 mov	 ecx, DWORD PTR __$ArrayPad$[ebp]
  004b5	33 cd		 xor	 ecx, ebp
  004b7	e8 00 00 00 00	 call	 @__security_check_cookie@4
  004bc	8b e5		 mov	 esp, ebp
  004be	5d		 pop	 ebp
  004bf	8b e3		 mov	 esp, ebx
  004c1	5b		 pop	 ebx
  004c2	c3		 ret	 0
_TEXT	ENDS
;	COMDAT text$x
text$x	SEGMENT
__unwindfunclet$?Spawn@CEventGeneric@@QAEXXZ$0:
  00000	68 b0 00 00 00	 push	 176			; 000000b0H
  00005	8b 85 54 ff ff
	ff		 mov	 eax, DWORD PTR $T4[ebp]
  0000b	50		 push	 eax
  0000c	e8 00 00 00 00	 call	 ??3@YAXPAXI@Z		; operator delete
  00011	83 c4 08	 add	 esp, 8
  00014	c3		 ret	 0
  00015	cc		 int	 3
  00016	cc		 int	 3
  00017	cc		 int	 3
  00018	cc		 int	 3
  00019	cc		 int	 3
__ehhandler$?Spawn@CEventGeneric@@QAEXXZ:
  0001a	90		 npad	 1
  0001b	90		 npad	 1
  0001c	8b 54 24 08	 mov	 edx, DWORD PTR [esp+8]
  00020	8d 42 0c	 lea	 eax, DWORD PTR [edx+12]
  00023	8b 8a 28 ff ff
	ff		 mov	 ecx, DWORD PTR [edx-216]
  00029	33 c8		 xor	 ecx, eax
  0002b	e8 00 00 00 00	 call	 @__security_check_cookie@4
  00030	8b 4a f8	 mov	 ecx, DWORD PTR [edx-8]
  00033	33 c8		 xor	 ecx, eax
  00035	e8 00 00 00 00	 call	 @__security_check_cookie@4
  0003a	b8 00 00 00 00	 mov	 eax, OFFSET __ehfuncinfo$?Spawn@CEventGeneric@@QAEXXZ
  0003f	e9 00 00 00 00	 jmp	 ___CxxFrameHandler3
text$x	ENDS
?Spawn@CEventGeneric@@QAEXXZ ENDP			; CEventGeneric::Spawn
; Function compile flags: /Ogtp
; File C:\IAGOS\server\v18\Source\Source\_Common\spevent.cpp
; File C:\Program Files\Microsoft Visual Studio\2022\Professional\VC\Tools\MSVC\14.44.35207\include\vector
; File C:\Program Files\Microsoft Visual Studio\2022\Professional\VC\Tools\MSVC\14.44.35207\include\algorithm
; File C:\IAGOS\server\v18\Source\Source\_Common\spevent.cpp
; File C:\Program Files\Microsoft Visual Studio\2022\Professional\VC\Tools\MSVC\14.44.35207\include\vector
; File C:\Program Files\Microsoft Visual Studio\2022\Professional\VC\Tools\MSVC\14.44.35207\include\algorithm
; File C:\IAGOS\server\v18\Source\Source\_Common\spevent.cpp
;	COMDAT ?SortRegionGeneric@CEventGeneric@@QAEXXZ
_TEXT	SEGMENT
?SortRegionGeneric@CEventGeneric@@QAEXXZ PROC		; CEventGeneric::SortRegionGeneric, COMDAT
; _this$ = ecx

; 559  : {

  00000	56		 push	 esi
; File C:\Program Files\Microsoft Visual Studio\2022\Professional\VC\Tools\MSVC\14.44.35207\include\vector

; 46   :     _CONSTEXPR20 _Vector_const_iterator(_Tptr _Parg, const _Container_base* _Pvector) noexcept : _Ptr(_Parg) {

  00001	8b 71 1c	 mov	 esi, DWORD PTR [ecx+28]
; File C:\Program Files\Microsoft Visual Studio\2022\Professional\VC\Tools\MSVC\14.44.35207\include\algorithm

; 8404 :     _STD _Sort_unchecked(_UFirst, _ULast, _ULast - _UFirst, _STD _Pass_fn(_Pred));

  00004	b8 ab aa aa 2a	 mov	 eax, 715827883		; 2aaaaaabH
; File C:\IAGOS\server\v18\Source\Source\_Common\spevent.cpp

; 559  : {

  00009	57		 push	 edi
; File C:\Program Files\Microsoft Visual Studio\2022\Professional\VC\Tools\MSVC\14.44.35207\include\vector

; 46   :     _CONSTEXPR20 _Vector_const_iterator(_Tptr _Parg, const _Container_base* _Pvector) noexcept : _Ptr(_Parg) {

  0000a	8b 79 18	 mov	 edi, DWORD PTR [ecx+24]
; File C:\Program Files\Microsoft Visual Studio\2022\Professional\VC\Tools\MSVC\14.44.35207\include\algorithm

; 8404 :     _STD _Sort_unchecked(_UFirst, _ULast, _ULast - _UFirst, _STD _Pass_fn(_Pred));

  0000d	8b ce		 mov	 ecx, esi
  0000f	2b cf		 sub	 ecx, edi
  00011	f7 e9		 imul	 ecx
  00013	68 00 00 00 00	 push	 OFFSET ?prRegionGeneric@@YA_NU_REGION_GENERIC@@0@Z ; prRegionGeneric
  00018	d1 fa		 sar	 edx, 1
  0001a	8b c2		 mov	 eax, edx
  0001c	c1 e8 1f	 shr	 eax, 31			; 0000001fH
  0001f	03 c2		 add	 eax, edx
  00021	50		 push	 eax
  00022	56		 push	 esi
  00023	57		 push	 edi
  00024	e8 00 00 00 00	 call	 ??$_Sort_unchecked@PAU_REGION_GENERIC@@P6A_NU1@0@Z@std@@YAXPAU_REGION_GENERIC@@0HP6A_NU1@1@Z@Z ; std::_Sort_unchecked<_REGION_GENERIC *,bool (__cdecl*)(_REGION_GENERIC,_REGION_GENERIC)>
  00029	83 c4 10	 add	 esp, 16			; 00000010H
  0002c	5f		 pop	 edi
  0002d	5e		 pop	 esi
; File C:\IAGOS\server\v18\Source\Source\_Common\spevent.cpp

; 561  : }

  0002e	c3		 ret	 0
?SortRegionGeneric@CEventGeneric@@QAEXXZ ENDP		; CEventGeneric::SortRegionGeneric
_TEXT	ENDS
; Function compile flags: /Ogtp
; File C:\IAGOS\server\v18\Source\Source\_Common\spevent.cpp
; File C:\Program Files\Microsoft Visual Studio\2022\Professional\VC\Tools\MSVC\14.44.35207\include\vector
; File C:\IAGOS\server\v18\Source\Source\_Common\spevent.cpp
; File C:\Program Files\Microsoft Visual Studio\2022\Professional\VC\Tools\MSVC\14.44.35207\include\vector
; File C:\Program Files\Microsoft Visual Studio\2022\Professional\VC\Tools\MSVC\14.44.35207\include\xutility
; File C:\Program Files\Microsoft Visual Studio\2022\Professional\VC\Tools\MSVC\14.44.35207\include\vector
; File C:\IAGOS\server\v18\Source\Source\_Common\spevent.cpp
; File C:\Program Files\Microsoft Visual Studio\2022\Professional\VC\Tools\MSVC\14.44.35207\include\vector
; File C:\IAGOS\server\v18\Source\Source\_Common\spevent.cpp
;	COMDAT ?AddRegionGeneric@CEventGeneric@@QAEXHKPAVCRespawnInfo@@@Z
_TEXT	SEGMENT
_regionGeneric$ = -12					; size = 12
_nLevel$ = 8						; size = 4
_dwWorldId$ = 12					; size = 4
_pi$ = 16						; size = 4
?AddRegionGeneric@CEventGeneric@@QAEXHKPAVCRespawnInfo@@@Z PROC ; CEventGeneric::AddRegionGeneric, COMDAT
; _this$ = ecx

; 544  : {

  00000	55		 push	 ebp
  00001	8b ec		 mov	 ebp, esp
  00003	83 ec 0c	 sub	 esp, 12			; 0000000cH
; File C:\Program Files\Microsoft Visual Studio\2022\Professional\VC\Tools\MSVC\14.44.35207\include\vector

; 844  :         if (_Mylast != _My_data._Myend) {

  00006	8b 41 1c	 mov	 eax, DWORD PTR [ecx+28]
; File C:\IAGOS\server\v18\Source\Source\_Common\spevent.cpp

; 550  : 	m_aRegionGeneric.push_back( regionGeneric );

  00009	83 c1 18	 add	 ecx, 24			; 00000018H
  0000c	8b 55 08	 mov	 edx, DWORD PTR _nLevel$[ebp]
  0000f	56		 push	 esi
  00010	8b 75 0c	 mov	 esi, DWORD PTR _dwWorldId$[ebp]
  00013	57		 push	 edi
  00014	8b 7d 10	 mov	 edi, DWORD PTR _pi$[ebp]
  00017	89 55 f4	 mov	 DWORD PTR _regionGeneric$[ebp], edx
  0001a	89 75 f8	 mov	 DWORD PTR _regionGeneric$[ebp+4], esi
  0001d	89 7d fc	 mov	 DWORD PTR _regionGeneric$[ebp+8], edi
; File C:\Program Files\Microsoft Visual Studio\2022\Professional\VC\Tools\MSVC\14.44.35207\include\vector

; 844  :         if (_Mylast != _My_data._Myend) {

  00020	3b 41 08	 cmp	 eax, DWORD PTR [ecx+8]
  00023	74 14		 je	 SHORT $LN6@AddRegionG
; File C:\Program Files\Microsoft Visual Studio\2022\Professional\VC\Tools\MSVC\14.44.35207\include\xutility

; 476  :         ::new (static_cast<void*>(_STD addressof(_Obj))) _Ty(_STD forward<_Types>(_Args)...);

  00025	89 10		 mov	 DWORD PTR [eax], edx
  00027	89 70 04	 mov	 DWORD PTR [eax+4], esi
  0002a	89 78 08	 mov	 DWORD PTR [eax+8], edi
; File C:\Program Files\Microsoft Visual Studio\2022\Professional\VC\Tools\MSVC\14.44.35207\include\vector

; 869  :         ++_Mylast;

  0002d	83 41 04 0c	 add	 DWORD PTR [ecx+4], 12	; 0000000cH
  00031	5f		 pop	 edi
; File C:\IAGOS\server\v18\Source\Source\_Common\spevent.cpp

; 551  : }

  00032	5e		 pop	 esi
  00033	8b e5		 mov	 esp, ebp
  00035	5d		 pop	 ebp
  00036	c2 0c 00	 ret	 12			; 0000000cH
$LN6@AddRegionG:
; File C:\Program Files\Microsoft Visual Studio\2022\Professional\VC\Tools\MSVC\14.44.35207\include\vector

; 848  :         return *_Emplace_reallocate(_Mylast, _STD forward<_Valty>(_Val)...);

  00039	8d 55 f4	 lea	 edx, DWORD PTR _regionGeneric$[ebp]
  0003c	52		 push	 edx
  0003d	50		 push	 eax
  0003e	e8 00 00 00 00	 call	 ??$_Emplace_reallocate@ABU_REGION_GENERIC@@@?$vector@U_REGION_GENERIC@@V?$allocator@U_REGION_GENERIC@@@std@@@std@@AAEPAU_REGION_GENERIC@@QAU2@ABU2@@Z ; std::vector<_REGION_GENERIC,std::allocator<_REGION_GENERIC> >::_Emplace_reallocate<_REGION_GENERIC const &>
  00043	5f		 pop	 edi
; File C:\IAGOS\server\v18\Source\Source\_Common\spevent.cpp

; 551  : }

  00044	5e		 pop	 esi
  00045	8b e5		 mov	 esp, ebp
  00047	5d		 pop	 ebp
  00048	c2 0c 00	 ret	 12			; 0000000cH
?AddRegionGeneric@CEventGeneric@@QAEXHKPAVCRespawnInfo@@@Z ENDP ; CEventGeneric::AddRegionGeneric
_TEXT	ENDS
; Function compile flags: /Ogtp
; File C:\IAGOS\server\v18\Source\Source\_Common\spevent.cpp
; File C:\Program Files\Microsoft Visual Studio\2022\Professional\VC\Tools\MSVC\14.44.35207\include\xtree
; File C:\IAGOS\server\v18\Source\Source\_Common\spevent.cpp
; File C:\Program Files\Microsoft Visual Studio\2022\Professional\VC\Tools\MSVC\14.44.35207\include\utility
; File C:\Program Files\Microsoft Visual Studio\2022\Professional\VC\Tools\MSVC\14.44.35207\include\xtree
; File C:\IAGOS\server\v18\Source\Source\_Common\spevent.cpp
; File C:\Program Files\Microsoft Visual Studio\2022\Professional\VC\Tools\MSVC\14.44.35207\include\xtree
; File C:\Program Files\Microsoft Visual Studio\2022\Professional\VC\Tools\MSVC\14.44.35207\include\type_traits
; File C:\Program Files\Microsoft Visual Studio\2022\Professional\VC\Tools\MSVC\14.44.35207\include\xtree
; File C:\Program Files\Microsoft Visual Studio\2022\Professional\VC\Tools\MSVC\14.44.35207\include\type_traits
; File C:\Program Files\Microsoft Visual Studio\2022\Professional\VC\Tools\MSVC\14.44.35207\include\xtree
; File C:\Program Files\Microsoft Visual Studio\2022\Professional\VC\Tools\MSVC\14.44.35207\include\type_traits
; File C:\Program Files\Microsoft Visual Studio\2022\Professional\VC\Tools\MSVC\14.44.35207\include\xtree
; File C:\Program Files\Microsoft Visual Studio\2022\Professional\VC\Tools\MSVC\14.44.35207\include\xmemory
; File C:\Program Files\Microsoft Visual Studio\2022\Professional\VC\Tools\MSVC\14.44.35207\include\xtree
; File C:\Program Files\Microsoft Visual Studio\2022\Professional\VC\Tools\MSVC\14.44.35207\include\xmemory
; File C:\Program Files\Microsoft Visual Studio\2022\Professional\VC\Tools\MSVC\14.44.35207\include\xtree
; File C:\Program Files\Microsoft Visual Studio\2022\Professional\VC\Tools\MSVC\14.44.35207\include\xmemory
; File C:\Program Files\Microsoft Visual Studio\2022\Professional\VC\Tools\MSVC\14.44.35207\include\xtree
; File C:\IAGOS\server\v18\Source\Source\_Common\spevent.cpp
; File C:\Program Files\Microsoft Visual Studio\2022\Professional\VC\Tools\MSVC\14.44.35207\include\xtree
; File C:\IAGOS\server\v18\Source\Source\_Common\spevent.cpp
;	COMDAT ?AddSpawn@CEventGeneric@@QAEXHKKHMK@Z
_TEXT	SEGMENT
$T4 = -20						; size = 8
$T5 = -16						; size = 4
__$EHRec$ = -12						; size = 12
_nEvent$ = 8						; size = 4
_dwType$ = 12						; size = 4
_dwIndex$ = 16						; size = 4
_nMax$ = 20						; size = 4
__Myhead$1$ = 20					; size = 4
_fRatio$ = 24						; size = 4
_this$1$ = 24						; size = 4
_dwInterval$ = 28					; size = 4
$T6 = 28						; size = 4
?AddSpawn@CEventGeneric@@QAEXHKKHMK@Z PROC		; CEventGeneric::AddSpawn, COMDAT
; _this$ = ecx

; 538  : {

  00000	55		 push	 ebp
  00001	8b ec		 mov	 ebp, esp
  00003	6a ff		 push	 -1
  00005	68 00 00 00 00	 push	 __ehhandler$?AddSpawn@CEventGeneric@@QAEXHKKHMK@Z
  0000a	64 a1 00 00 00
	00		 mov	 eax, DWORD PTR fs:0
  00010	50		 push	 eax
  00011	83 ec 08	 sub	 esp, 8
  00014	53		 push	 ebx
  00015	56		 push	 esi
  00016	57		 push	 edi
  00017	a1 00 00 00 00	 mov	 eax, DWORD PTR ___security_cookie
  0001c	33 c5		 xor	 eax, ebp
  0001e	50		 push	 eax
  0001f	8d 45 f4	 lea	 eax, DWORD PTR __$EHRec$[ebp]
  00022	64 a3 00 00 00
	00		 mov	 DWORD PTR fs:0, eax
  00028	8b f1		 mov	 esi, ecx

; 539  : 	CSpawn* pSpawn	= new CSpawn( dwType, dwIndex, nMax, fRatio, dwInterval );

  0002a	6a 1c		 push	 28			; 0000001cH
  0002c	e8 00 00 00 00	 call	 ??2@YAPAXI@Z		; operator new
  00031	83 c4 04	 add	 esp, 4
  00034	89 45 f0	 mov	 DWORD PTR $T5[ebp], eax
  00037	85 c0		 test	 eax, eax
  00039	74 23		 je	 SHORT $LN3@AddSpawn
  0003b	ff 75 1c	 push	 DWORD PTR _dwInterval$[ebp]
  0003e	f3 0f 10 45 18	 movss	 xmm0, DWORD PTR _fRatio$[ebp]
  00043	51		 push	 ecx
  00044	f3 0f 11 04 24	 movss	 DWORD PTR [esp], xmm0
  00049	8b c8		 mov	 ecx, eax
  0004b	ff 75 14	 push	 DWORD PTR _nMax$[ebp]
  0004e	ff 75 10	 push	 DWORD PTR _dwIndex$[ebp]
  00051	ff 75 0c	 push	 DWORD PTR _dwType$[ebp]
  00054	e8 00 00 00 00	 call	 ??0CSpawn@@QAE@KKHMK@Z	; CSpawn::CSpawn
  00059	89 45 1c	 mov	 DWORD PTR $T6[ebp], eax
  0005c	eb 07		 jmp	 SHORT $LN4@AddSpawn
$LN3@AddSpawn:
  0005e	c7 45 1c 00 00
	00 00		 mov	 DWORD PTR $T6[ebp], 0
$LN4@AddSpawn:
; File C:\Program Files\Microsoft Visual Studio\2022\Professional\VC\Tools\MSVC\14.44.35207\include\xtree

; 1630 :         _Tree_find_result<_Nodeptr> _Result{{_Scary->_Myhead->_Parent, _Tree_child::_Right}, _Scary->_Myhead};

  00065	8b 4e 24	 mov	 ecx, DWORD PTR [esi+36]
; File C:\IAGOS\server\v18\Source\Source\_Common\spevent.cpp

; 540  : 	bool bResult	= m_mapSpawn.insert( map<int, CSpawn*>::value_type( nEvent, pSpawn ) ).second;

  00068	8d 46 24	 lea	 eax, DWORD PTR [esi+36]
; File C:\Program Files\Microsoft Visual Studio\2022\Professional\VC\Tools\MSVC\14.44.35207\include\utility

; 274  :         : first(_STD forward<_Other1>(_Val1)), second(_STD forward<_Other2>(_Val2)) {

  0006b	8b 5d 08	 mov	 ebx, DWORD PTR _nEvent$[ebp]
; File C:\Program Files\Microsoft Visual Studio\2022\Professional\VC\Tools\MSVC\14.44.35207\include\xtree

; 1630 :         _Tree_find_result<_Nodeptr> _Result{{_Scary->_Myhead->_Parent, _Tree_child::_Right}, _Scary->_Myhead};

  0006e	33 f6		 xor	 esi, esi
; File C:\IAGOS\server\v18\Source\Source\_Common\spevent.cpp

; 540  : 	bool bResult	= m_mapSpawn.insert( map<int, CSpawn*>::value_type( nEvent, pSpawn ) ).second;

  00070	89 45 18	 mov	 DWORD PTR _this$1$[ebp], eax
; File C:\Program Files\Microsoft Visual Studio\2022\Professional\VC\Tools\MSVC\14.44.35207\include\xtree

; 1630 :         _Tree_find_result<_Nodeptr> _Result{{_Scary->_Myhead->_Parent, _Tree_child::_Right}, _Scary->_Myhead};

  00073	89 4d 14	 mov	 DWORD PTR __Myhead$1$[ebp], ecx
  00076	8b 79 04	 mov	 edi, DWORD PTR [ecx+4]

; 1631 :         _Nodeptr _Trynode = _Result._Location._Parent;
; 1632 :         while (!_Trynode->_Isnil) {

  00079	80 7f 0d 00	 cmp	 BYTE PTR [edi+13], 0
  0007d	75 22		 jne	 SHORT $LN17@AddSpawn
; File C:\Program Files\Microsoft Visual Studio\2022\Professional\VC\Tools\MSVC\14.44.35207\include\type_traits

; 2380 :         return _Left < _Right;

  0007f	8b c7		 mov	 eax, edi
$LL16@AddSpawn:
; File C:\Program Files\Microsoft Visual Studio\2022\Professional\VC\Tools\MSVC\14.44.35207\include\xtree

; 1633 :             _Result._Location._Parent = _Trynode;

  00081	8b f8		 mov	 edi, eax
; File C:\Program Files\Microsoft Visual Studio\2022\Professional\VC\Tools\MSVC\14.44.35207\include\type_traits

; 2380 :         return _Left < _Right;

  00083	39 58 10	 cmp	 DWORD PTR [eax+16], ebx
; File C:\Program Files\Microsoft Visual Studio\2022\Professional\VC\Tools\MSVC\14.44.35207\include\xtree

; 1634 :             if (_DEBUG_LT_PRED(_Getcomp(), _Traits::_Kfn(_Trynode->_Myval), _Keyval)) {

  00086	7d 07		 jge	 SHORT $LN18@AddSpawn

; 1635 :                 _Result._Location._Child = _Tree_child::_Right;
; 1636 :                 _Trynode                 = _Trynode->_Right;

  00088	8b 40 08	 mov	 eax, DWORD PTR [eax+8]
  0008b	33 f6		 xor	 esi, esi

; 1637 :             } else {

  0008d	eb 09		 jmp	 SHORT $LN19@AddSpawn
$LN18@AddSpawn:

; 1638 :                 _Result._Location._Child = _Tree_child::_Left;
; 1639 :                 _Result._Bound           = _Trynode;

  0008f	8b c8		 mov	 ecx, eax
  00091	be 01 00 00 00	 mov	 esi, 1

; 1640 :                 _Trynode                 = _Trynode->_Left;

  00096	8b 00		 mov	 eax, DWORD PTR [eax]
$LN19@AddSpawn:

; 1631 :         _Nodeptr _Trynode = _Result._Location._Parent;
; 1632 :         while (!_Trynode->_Isnil) {

  00098	80 78 0d 00	 cmp	 BYTE PTR [eax+13], 0
  0009c	74 e3		 je	 SHORT $LL16@AddSpawn
  0009e	8b 45 18	 mov	 eax, DWORD PTR _this$1$[ebp]
$LN17@AddSpawn:

; 1624 :         return !_Bound->_Isnil && !_DEBUG_LT_PRED(_Getcomp(), _Keyval, _Traits::_Kfn(_Bound->_Myval));

  000a1	80 79 0d 00	 cmp	 BYTE PTR [ecx+13], 0
  000a5	75 05		 jne	 SHORT $LN26@AddSpawn
; File C:\Program Files\Microsoft Visual Studio\2022\Professional\VC\Tools\MSVC\14.44.35207\include\type_traits

; 2380 :         return _Left < _Right;

  000a7	3b 59 10	 cmp	 ebx, DWORD PTR [ecx+16]
; File C:\Program Files\Microsoft Visual Studio\2022\Professional\VC\Tools\MSVC\14.44.35207\include\xtree

; 1624 :         return !_Bound->_Isnil && !_DEBUG_LT_PRED(_Getcomp(), _Keyval, _Traits::_Kfn(_Bound->_Myval));

  000aa	7d 49		 jge	 SHORT $LN101@AddSpawn
$LN26@AddSpawn:

; 1648 :         if (max_size() == _Get_scary()->_Mysize) {

  000ac	81 78 04 aa aa
	aa 0a		 cmp	 DWORD PTR [eax+4], 178956970 ; 0aaaaaaaH
  000b3	74 54		 je	 SHORT $LN124@AddSpawn
; File C:\Program Files\Microsoft Visual Studio\2022\Professional\VC\Tools\MSVC\14.44.35207\include\xmemory

; 1160 :     _CONSTEXPR20 explicit _Alloc_construct_ptr(_Alloc& _Al_) : _Al(_Al_), _Ptr(nullptr) {}

  000b5	89 45 ec	 mov	 DWORD PTR $T4[ebp], eax

; 136  :         return ::operator new(_Bytes);

  000b8	6a 18		 push	 24			; 00000018H
; File C:\Program Files\Microsoft Visual Studio\2022\Professional\VC\Tools\MSVC\14.44.35207\include\xtree

; 808  :     explicit _Tree_temp_node_alloc(_Alnode& _Al_) : _Alloc_construct_ptr<_Alnode>(_Al_) {

  000ba	c7 45 fc 00 00
	00 00		 mov	 DWORD PTR __$EHRec$[ebp+8], 0
; File C:\Program Files\Microsoft Visual Studio\2022\Professional\VC\Tools\MSVC\14.44.35207\include\xmemory

; 1167 :         _Ptr = nullptr; // if allocate throws, prevents double-free

  000c1	c7 45 f0 00 00
	00 00		 mov	 DWORD PTR $T4[ebp+4], 0

; 136  :         return ::operator new(_Bytes);

  000c8	e8 00 00 00 00	 call	 ??2@YAPAXI@Z		; operator new
; File C:\Program Files\Microsoft Visual Studio\2022\Professional\VC\Tools\MSVC\14.44.35207\include\xtree

; 830  :         _Alnode_traits::construct(this->_Al, _STD addressof(this->_Ptr->_Myval), _STD forward<_Valtys>(_Vals)...);

  000cd	8b 4d 1c	 mov	 ecx, DWORD PTR $T6[ebp]
; File C:\Program Files\Microsoft Visual Studio\2022\Professional\VC\Tools\MSVC\14.44.35207\include\xmemory

; 136  :         return ::operator new(_Bytes);

  000d0	83 c4 04	 add	 esp, 4
; File C:\Program Files\Microsoft Visual Studio\2022\Professional\VC\Tools\MSVC\14.44.35207\include\xtree

; 830  :         _Alnode_traits::construct(this->_Al, _STD addressof(this->_Ptr->_Myval), _STD forward<_Valtys>(_Vals)...);

  000d3	89 58 10	 mov	 DWORD PTR [eax+16], ebx
  000d6	89 48 14	 mov	 DWORD PTR [eax+20], ecx

; 831  :         _Construct_in_place(this->_Ptr->_Left, _Myhead);

  000d9	8b 4d 14	 mov	 ecx, DWORD PTR __Myhead$1$[ebp]
  000dc	89 08		 mov	 DWORD PTR [eax], ecx

; 1042 :         return {_Scary->_Insert_node(_Loc._Location, _Inserted), true};

  000de	50		 push	 eax

; 832  :         _Construct_in_place(this->_Ptr->_Parent, _Myhead);

  000df	89 48 04	 mov	 DWORD PTR [eax+4], ecx

; 833  :         _Construct_in_place(this->_Ptr->_Right, _Myhead);

  000e2	89 48 08	 mov	 DWORD PTR [eax+8], ecx

; 1042 :         return {_Scary->_Insert_node(_Loc._Location, _Inserted), true};

  000e5	8b 4d 18	 mov	 ecx, DWORD PTR _this$1$[ebp]
  000e8	56		 push	 esi
  000e9	57		 push	 edi

; 834  :         this->_Ptr->_Color = _Red;

  000ea	66 c7 40 0c 00
	00		 mov	 WORD PTR [eax+12], 0

; 1042 :         return {_Scary->_Insert_node(_Loc._Location, _Inserted), true};

  000f0	e8 00 00 00 00	 call	 ?_Insert_node@?$_Tree_val@U?$_Tree_simple_types@U?$pair@$$CBHPAVCSpawn@@@std@@@std@@@std@@QAEPAU?$_Tree_node@U?$pair@$$CBHPAVCSpawn@@@std@@PAX@2@U?$_Tree_id@PAU?$_Tree_node@U?$pair@$$CBHPAVCSpawn@@@std@@PAX@std@@@2@QAU32@@Z ; std::_Tree_val<std::_Tree_simple_types<std::pair<int const ,CSpawn *> > >::_Insert_node
$LN101@AddSpawn:
; File C:\IAGOS\server\v18\Source\Source\_Common\spevent.cpp

; 541  : }

  000f5	8b 4d f4	 mov	 ecx, DWORD PTR __$EHRec$[ebp]
  000f8	64 89 0d 00 00
	00 00		 mov	 DWORD PTR fs:0, ecx
  000ff	59		 pop	 ecx
  00100	5f		 pop	 edi
  00101	5e		 pop	 esi
  00102	5b		 pop	 ebx
  00103	8b e5		 mov	 esp, ebp
  00105	5d		 pop	 ebp
  00106	c2 18 00	 ret	 24			; 00000018H
$LN124@AddSpawn:
; File C:\Program Files\Microsoft Visual Studio\2022\Professional\VC\Tools\MSVC\14.44.35207\include\xtree

; 1649 :             _Throw_tree_length_error();

  00109	e8 00 00 00 00	 call	 ?_Throw_tree_length_error@std@@YAXXZ ; std::_Throw_tree_length_error
$LN122@AddSpawn:
  0010e	cc		 int	 3
_TEXT	ENDS
;	COMDAT text$x
text$x	SEGMENT
__unwindfunclet$?AddSpawn@CEventGeneric@@QAEXHKKHMK@Z$3:
  00000	8d 4d ec	 lea	 ecx, DWORD PTR $T4[ebp]
  00003	e9 00 00 00 00	 jmp	 ??1?$_Alloc_construct_ptr@V?$allocator@U?$_Tree_node@U?$pair@$$CBHPAVCSpawn@@@std@@PAX@std@@@std@@@std@@QAE@XZ ; std::_Alloc_construct_ptr<std::allocator<std::_Tree_node<std::pair<int const ,CSpawn *>,void *> > >::~_Alloc_construct_ptr<std::allocator<std::_Tree_node<std::pair<int const ,CSpawn *>,void *> > >
  00008	cc		 int	 3
  00009	cc		 int	 3
  0000a	cc		 int	 3
  0000b	cc		 int	 3
  0000c	cc		 int	 3
__ehhandler$?AddSpawn@CEventGeneric@@QAEXHKKHMK@Z:
  0000d	90		 npad	 1
  0000e	90		 npad	 1
  0000f	8b 54 24 08	 mov	 edx, DWORD PTR [esp+8]
  00013	8d 42 0c	 lea	 eax, DWORD PTR [edx+12]
  00016	8b 4a e8	 mov	 ecx, DWORD PTR [edx-24]
  00019	33 c8		 xor	 ecx, eax
  0001b	e8 00 00 00 00	 call	 @__security_check_cookie@4
  00020	b8 00 00 00 00	 mov	 eax, OFFSET __ehfuncinfo$?AddSpawn@CEventGeneric@@QAEXHKKHMK@Z
  00025	e9 00 00 00 00	 jmp	 ___CxxFrameHandler3
text$x	ENDS
?AddSpawn@CEventGeneric@@QAEXHKKHMK@Z ENDP		; CEventGeneric::AddSpawn
; Function compile flags: /Ogtp
; File C:\IAGOS\server\v18\Source\Source\_Common\spevent.cpp
;	COMDAT ?CallTheRoll@CEventGeneric@@QAEXXZ
_TEXT	SEGMENT
?CallTheRoll@CEventGeneric@@QAEXXZ PROC			; CEventGeneric::CallTheRoll, COMDAT
; _this$ = ecx

; 522  : {

  00000	56		 push	 esi

; 523  : 	PEVENT_GENERIC pEvent	= GetEvent( 531 );	// ŔĚşĄĆ®°ˇ µî·ĎµÇľî ŔÖÁö ľĘŔ¸¸é

  00001	68 13 02 00 00	 push	 531			; 00000213H
  00006	8b f1		 mov	 esi, ecx
  00008	e8 00 00 00 00	 call	 ?GetEvent@CEventGeneric@@QAEPAU_EVENT_GENERIC@@H@Z ; CEventGeneric::GetEvent

; 524  : 	if( !pEvent )

  0000d	85 c0		 test	 eax, eax
  0000f	74 25		 je	 SHORT $LN1@CallTheRol

; 525  : 		return;
; 526  : 
; 527  : 	if( g_eLocal.GetState( 531 ) == 0 )	// ŔĚşĄĆ® ±â°ŁŔĚ ľĆ´Ď¸é

  00011	68 13 02 00 00	 push	 531			; 00000213H
  00016	b9 00 00 00 00	 mov	 ecx, OFFSET ?g_eLocal@@3VCFlyffEvent@@A ; g_eLocal
  0001b	e8 00 00 00 00	 call	 ?GetState@CFlyffEvent@@QAEEH@Z ; CFlyffEvent::GetState
  00020	84 c0		 test	 al, al
  00022	74 12		 je	 SHORT $LN1@CallTheRol

; 528  : 		return;
; 529  : 
; 530  : 	int nElapsed	= (int)GetEventElapsed();

  00024	8b ce		 mov	 ecx, esi
  00026	e8 00 00 00 00	 call	 ?GetEventElapsed@CEventGeneric@@QAEJXZ ; CEventGeneric::GetEventElapsed

; 531  : 	g_UserMng.CallTheRoll( nElapsed );

  0002b	50		 push	 eax
  0002c	b9 00 00 00 00	 mov	 ecx, OFFSET ?g_UserMng@@3VCUserMng@@A ; g_UserMng
  00031	e8 00 00 00 00	 call	 ?CallTheRoll@CUserMng@@QAEXH@Z ; CUserMng::CallTheRoll
$LN1@CallTheRol:

; 532  : }

  00036	5e		 pop	 esi
  00037	c3		 ret	 0
?CallTheRoll@CEventGeneric@@QAEXXZ ENDP			; CEventGeneric::CallTheRoll
_TEXT	ENDS
; Function compile flags: /Ogtp
; File C:\IAGOS\server\v18\Source\Source\_Common\spevent.cpp
; File C:\Program Files\Microsoft Visual Studio\2022\Professional\VC\Tools\MSVC\14.44.35207\atlmfc\include\atltime.h
; File C:\IAGOS\server\v18\Source\Source\_Common\spevent.cpp
;	COMDAT ?GetEventElapsed@CEventGeneric@@QAEJXZ
_TEXT	SEGMENT
?GetEventElapsed@CEventGeneric@@QAEJXZ PROC		; CEventGeneric::GetEventElapsed, COMDAT
; _this$ = ecx

; 509  : {

  00000	56		 push	 esi
  00001	57		 push	 edi

; 510  : 	PEVENT_GENERIC pEvent	= GetEvent( 531 );

  00002	68 13 02 00 00	 push	 531			; 00000213H
  00007	e8 00 00 00 00	 call	 ?GetEvent@CEventGeneric@@QAEPAU_EVENT_GENERIC@@H@Z ; CEventGeneric::GetEvent

; 511  : 	if( !pEvent )

  0000c	85 c0		 test	 eax, eax
  0000e	74 31		 je	 SHORT $LN21@GetEventEl

; 512  : 		return 0;
; 513  : 	CTime tStart	= CTime( pEvent->tStart );

  00010	8b 40 08	 mov	 eax, DWORD PTR [eax+8]
  00013	99		 cdq
; File C:\Program Files\Microsoft Visual Studio\2022\Professional\VC\Tools\MSVC\14.44.35207\atlmfc\include\atltime.h

; 377  : 	return( CTime( ::_time64( NULL ) ) );

  00014	6a 00		 push	 0

; 420  : 	m_time( time )

  00016	8b f0		 mov	 esi, eax
  00018	8b fa		 mov	 edi, edx

; 377  : 	return( CTime( ::_time64( NULL ) ) );

  0001a	e8 00 00 00 00	 call	 __time64
  0001f	83 c4 04	 add	 esp, 4

; 571  : 	return( m_time < time.m_time );

  00022	3b d7		 cmp	 edx, edi
  00024	7c 1b		 jl	 SHORT $LN21@GetEventEl
  00026	7f 04		 jg	 SHORT $LN23@GetEventEl
  00028	3b c6		 cmp	 eax, esi
  0002a	72 15		 jb	 SHORT $LN21@GetEventEl
$LN23@GetEventEl:

; 546  : 	return( CTimeSpan( m_time-time.m_time ) );

  0002c	2b c6		 sub	 eax, esi

; 281  : 	return( m_timeSpan/(24*3600) );

  0002e	6a 00		 push	 0
  00030	68 80 51 01 00	 push	 86400			; 00015180H

; 546  : 	return( CTimeSpan( m_time-time.m_time ) );

  00035	1b d7		 sbb	 edx, edi

; 281  : 	return( m_timeSpan/(24*3600) );

  00037	52		 push	 edx
  00038	50		 push	 eax
  00039	e8 00 00 00 00	 call	 __alldiv
  0003e	5f		 pop	 edi
; File C:\IAGOS\server\v18\Source\Source\_Common\spevent.cpp

; 519  : }

  0003f	5e		 pop	 esi
  00040	c3		 ret	 0
$LN21@GetEventEl:
  00041	5f		 pop	 edi

; 514  : 	CTime tCur	= CTime::GetCurrentTime();
; 515  : 	if( tCur < tStart )
; 516  : 		return 0;

  00042	33 c0		 xor	 eax, eax

; 519  : }

  00044	5e		 pop	 esi
  00045	c3		 ret	 0
?GetEventElapsed@CEventGeneric@@QAEJXZ ENDP		; CEventGeneric::GetEventElapsed
_TEXT	ENDS
; Function compile flags: /Ogtp
; File C:\IAGOS\server\v18\Source\Source\_Common\spevent.cpp
; File C:\Program Files\Microsoft Visual Studio\2022\Professional\VC\Tools\MSVC\14.44.35207\include\list
; File C:\IAGOS\server\v18\Source\Source\_Common\spevent.cpp
; File C:\Program Files\Microsoft Visual Studio\2022\Professional\VC\Tools\MSVC\14.44.35207\include\list
; File C:\IAGOS\server\v18\Source\Source\_Common\spevent.cpp
;	COMDAT ?GetItemDropRateFactor@CEventGeneric@@QAEMXZ
_TEXT	SEGMENT
_fFactor$ = -4						; size = 4
?GetItemDropRateFactor@CEventGeneric@@QAEMXZ PROC	; CEventGeneric::GetItemDropRateFactor, COMDAT
; _this$ = ecx

; 398  : {

  00000	55		 push	 ebp
  00001	8b ec		 mov	 ebp, esp
  00003	51		 push	 ecx

; 399  : 	FLOAT	fFactor	= 1.0f;

  00004	f3 0f 10 05 00
	00 00 00	 movss	 xmm0, DWORD PTR __real@3f800000
  0000c	53		 push	 ebx
  0000d	8b d9		 mov	 ebx, ecx
  0000f	f3 0f 11 45 fc	 movss	 DWORD PTR _fFactor$[ebp], xmm0
  00014	56		 push	 esi
; File C:\Program Files\Microsoft Visual Studio\2022\Professional\VC\Tools\MSVC\14.44.35207\include\list

; 1105 :         return iterator(_Mypair._Myval2._Myhead->_Next, _STD addressof(_Mypair._Myval2));

  00015	8b 43 08	 mov	 eax, DWORD PTR [ebx+8]

; 37   :     _List_unchecked_const_iterator(_Nodeptr _Pnode, const _Mylist* _Plist) noexcept : _Ptr(_Pnode) {

  00018	8b 30		 mov	 esi, DWORD PTR [eax]

; 202  :         return !(*this == _Right);

  0001a	3b f0		 cmp	 esi, eax
; File C:\IAGOS\server\v18\Source\Source\_Common\spevent.cpp

; 400  : 	for( list<EVENT_GENERIC*>::iterator i = m_lspEvent.begin(); i != m_lspEvent.end(); ++i )

  0001c	74 2e		 je	 SHORT $LN53@GetItemDro
  0001e	57		 push	 edi
  0001f	90		 npad	 1
$LL4@GetItemDro:

; 401  : 	{
; 402  : 		PEVENT_GENERIC pEvent	= *i;

  00020	8b 7e 08	 mov	 edi, DWORD PTR [esi+8]

; 403  : 		if( g_eLocal.GetState( pEvent->nId ) )

  00023	b9 00 00 00 00	 mov	 ecx, OFFSET ?g_eLocal@@3VCFlyffEvent@@A ; g_eLocal
  00028	ff 37		 push	 DWORD PTR [edi]
  0002a	e8 00 00 00 00	 call	 ?GetState@CFlyffEvent@@QAEEH@Z ; CFlyffEvent::GetState
  0002f	84 c0		 test	 al, al
  00031	74 0f		 je	 SHORT $LN2@GetItemDro

; 404  : 			fFactor	*= pEvent->fItemDropRate;

  00033	f3 0f 10 45 fc	 movss	 xmm0, DWORD PTR _fFactor$[ebp]
  00038	f3 0f 59 47 14	 mulss	 xmm0, DWORD PTR [edi+20]
  0003d	f3 0f 11 45 fc	 movss	 DWORD PTR _fFactor$[ebp], xmm0
$LN2@GetItemDro:
; File C:\Program Files\Microsoft Visual Studio\2022\Professional\VC\Tools\MSVC\14.44.35207\include\list

; 164  :         this->_Ptr = this->_Ptr->_Next;

  00042	8b 06		 mov	 eax, DWORD PTR [esi]
  00044	8b f0		 mov	 esi, eax

; 202  :         return !(*this == _Right);

  00046	3b 43 08	 cmp	 eax, DWORD PTR [ebx+8]
; File C:\IAGOS\server\v18\Source\Source\_Common\spevent.cpp

; 400  : 	for( list<EVENT_GENERIC*>::iterator i = m_lspEvent.begin(); i != m_lspEvent.end(); ++i )

  00049	75 d5		 jne	 SHORT $LL4@GetItemDro
  0004b	5f		 pop	 edi
$LN53@GetItemDro:

; 405  : 	}
; 406  : 	return fFactor;
; 407  : }

  0004c	d9 45 fc	 fld	 DWORD PTR _fFactor$[ebp]
  0004f	5e		 pop	 esi
  00050	5b		 pop	 ebx
  00051	8b e5		 mov	 esp, ebp
  00053	5d		 pop	 ebp
  00054	c3		 ret	 0
?GetItemDropRateFactor@CEventGeneric@@QAEMXZ ENDP	; CEventGeneric::GetItemDropRateFactor
_TEXT	ENDS
; Function compile flags: /Ogtp
; File C:\IAGOS\server\v18\Source\Source\_Common\spevent.cpp
; File C:\Program Files\Microsoft Visual Studio\2022\Professional\VC\Tools\MSVC\14.44.35207\include\list
; File C:\IAGOS\server\v18\Source\Source\_Common\spevent.cpp
; File C:\Program Files\Microsoft Visual Studio\2022\Professional\VC\Tools\MSVC\14.44.35207\include\list
; File C:\IAGOS\server\v18\Source\Source\_Common\spevent.cpp
;	COMDAT ?GetExpFactor@CEventGeneric@@QAEMXZ
_TEXT	SEGMENT
_fExpFactor$ = -4					; size = 4
?GetExpFactor@CEventGeneric@@QAEMXZ PROC		; CEventGeneric::GetExpFactor, COMDAT
; _this$ = ecx

; 385  : {

  00000	55		 push	 ebp
  00001	8b ec		 mov	 ebp, esp
  00003	51		 push	 ecx

; 386  : 	FLOAT	fExpFactor	= 1.0f;

  00004	f3 0f 10 05 00
	00 00 00	 movss	 xmm0, DWORD PTR __real@3f800000
  0000c	53		 push	 ebx
  0000d	8b d9		 mov	 ebx, ecx
  0000f	f3 0f 11 45 fc	 movss	 DWORD PTR _fExpFactor$[ebp], xmm0
  00014	56		 push	 esi
; File C:\Program Files\Microsoft Visual Studio\2022\Professional\VC\Tools\MSVC\14.44.35207\include\list

; 1105 :         return iterator(_Mypair._Myval2._Myhead->_Next, _STD addressof(_Mypair._Myval2));

  00015	8b 43 08	 mov	 eax, DWORD PTR [ebx+8]

; 37   :     _List_unchecked_const_iterator(_Nodeptr _Pnode, const _Mylist* _Plist) noexcept : _Ptr(_Pnode) {

  00018	8b 30		 mov	 esi, DWORD PTR [eax]

; 202  :         return !(*this == _Right);

  0001a	3b f0		 cmp	 esi, eax
; File C:\IAGOS\server\v18\Source\Source\_Common\spevent.cpp

; 387  : 	for( list<EVENT_GENERIC*>::iterator i = m_lspEvent.begin(); i != m_lspEvent.end(); ++i )

  0001c	74 2e		 je	 SHORT $LN53@GetExpFact
  0001e	57		 push	 edi
  0001f	90		 npad	 1
$LL4@GetExpFact:

; 388  : 	{
; 389  : 		PEVENT_GENERIC pEvent	= *i;

  00020	8b 7e 08	 mov	 edi, DWORD PTR [esi+8]

; 390  : 		if( g_eLocal.GetState( pEvent->nId ) )

  00023	b9 00 00 00 00	 mov	 ecx, OFFSET ?g_eLocal@@3VCFlyffEvent@@A ; g_eLocal
  00028	ff 37		 push	 DWORD PTR [edi]
  0002a	e8 00 00 00 00	 call	 ?GetState@CFlyffEvent@@QAEEH@Z ; CFlyffEvent::GetState
  0002f	84 c0		 test	 al, al
  00031	74 0f		 je	 SHORT $LN2@GetExpFact

; 391  : 			fExpFactor	*= pEvent->fExpFactor;

  00033	f3 0f 10 45 fc	 movss	 xmm0, DWORD PTR _fExpFactor$[ebp]
  00038	f3 0f 59 47 10	 mulss	 xmm0, DWORD PTR [edi+16]
  0003d	f3 0f 11 45 fc	 movss	 DWORD PTR _fExpFactor$[ebp], xmm0
$LN2@GetExpFact:
; File C:\Program Files\Microsoft Visual Studio\2022\Professional\VC\Tools\MSVC\14.44.35207\include\list

; 164  :         this->_Ptr = this->_Ptr->_Next;

  00042	8b 06		 mov	 eax, DWORD PTR [esi]
  00044	8b f0		 mov	 esi, eax

; 202  :         return !(*this == _Right);

  00046	3b 43 08	 cmp	 eax, DWORD PTR [ebx+8]
; File C:\IAGOS\server\v18\Source\Source\_Common\spevent.cpp

; 387  : 	for( list<EVENT_GENERIC*>::iterator i = m_lspEvent.begin(); i != m_lspEvent.end(); ++i )

  00049	75 d5		 jne	 SHORT $LL4@GetExpFact
  0004b	5f		 pop	 edi
$LN53@GetExpFact:

; 392  : 	}
; 393  : 	return fExpFactor;
; 394  : }

  0004c	d9 45 fc	 fld	 DWORD PTR _fExpFactor$[ebp]
  0004f	5e		 pop	 esi
  00050	5b		 pop	 ebx
  00051	8b e5		 mov	 esp, ebp
  00053	5d		 pop	 ebp
  00054	c3		 ret	 0
?GetExpFactor@CEventGeneric@@QAEMXZ ENDP		; CEventGeneric::GetExpFactor
_TEXT	ENDS
; Function compile flags: /Ogtp
; File C:\IAGOS\server\v18\Source\Source\_Common\spevent.cpp
; File C:\Program Files\Microsoft Visual Studio\2022\Professional\VC\Tools\MSVC\14.44.35207\atlmfc\include\atltime.h
; File C:\IAGOS\server\v18\Source\Source\_Common\spevent.cpp
; File C:\Program Files\Microsoft Visual Studio\2022\Professional\VC\Tools\MSVC\14.44.35207\atlmfc\include\atltime.h
; File C:\Program Files\Microsoft Visual Studio\2022\Professional\VC\Tools\MSVC\14.44.35207\include\xtree
; File C:\IAGOS\server\v18\Source\Source\_Common\spevent.cpp
; File C:\Program Files\Microsoft Visual Studio\2022\Professional\VC\Tools\MSVC\14.44.35207\include\list
; File C:\IAGOS\server\v18\Source\Source\_Common\spevent.cpp
; File C:\Program Files\Microsoft Visual Studio\2022\Professional\VC\Tools\MSVC\14.44.35207\include\list
; File C:\IAGOS\server\v18\Source\Source\_Common\spevent.cpp
; File C:\Program Files\Microsoft Visual Studio\2022\Professional\VC\Tools\MSVC\14.44.35207\include\xtree
; File C:\IAGOS\server\v18\Source\Source\_Common\spevent.cpp
;	COMDAT ?GetItem@CEventGeneric@@QAEPAVCEventItem@@PAH@Z
_TEXT	SEGMENT
_ttm$1 = -96						; size = 36
_pnNum$GSCopy$1$ = -60					; size = 4
_this$1$ = -56						; size = 4
$T2 = -52						; size = 8
_pList$1$ = -48						; size = 4
$T3 = -44						; size = 4
_ptmTemp$4 = -40					; size = 36
__$ArrayPad$ = -4					; size = 4
_pnNum$ = 8						; size = 4
?GetItem@CEventGeneric@@QAEPAVCEventItem@@PAH@Z PROC	; CEventGeneric::GetItem, COMDAT
; _this$ = ecx

; 361  : {

  00000	55		 push	 ebp
  00001	8b ec		 mov	 ebp, esp
  00003	83 ec 60	 sub	 esp, 96			; 00000060H
  00006	a1 00 00 00 00	 mov	 eax, DWORD PTR ___security_cookie
  0000b	33 c5		 xor	 eax, ebp
  0000d	89 45 fc	 mov	 DWORD PTR __$ArrayPad$[ebp], eax
  00010	8b 45 08	 mov	 eax, DWORD PTR _pnNum$[ebp]
  00013	53		 push	 ebx
  00014	56		 push	 esi
  00015	57		 push	 edi
  00016	8b d9		 mov	 ebx, ecx
  00018	89 45 c4	 mov	 DWORD PTR _pnNum$GSCopy$1$[ebp], eax
; File C:\Program Files\Microsoft Visual Studio\2022\Professional\VC\Tools\MSVC\14.44.35207\atlmfc\include\atltime.h

; 377  : 	return( CTime( ::_time64( NULL ) ) );

  0001b	6a 00		 push	 0
; File C:\IAGOS\server\v18\Source\Source\_Common\spevent.cpp

; 361  : {

  0001d	89 5d c8	 mov	 DWORD PTR _this$1$[ebp], ebx
; File C:\Program Files\Microsoft Visual Studio\2022\Professional\VC\Tools\MSVC\14.44.35207\atlmfc\include\atltime.h

; 377  : 	return( CTime( ::_time64( NULL ) ) );

  00020	e8 00 00 00 00	 call	 __time64

; 420  : 	m_time( time )

  00025	89 45 cc	 mov	 DWORD PTR $T2[ebp], eax

; 617  : 		errno_t err = _localtime64_s(&ptmTemp, &m_time);

  00028	8d 45 cc	 lea	 eax, DWORD PTR $T2[ebp]
  0002b	50		 push	 eax
  0002c	8d 45 d8	 lea	 eax, DWORD PTR _ptmTemp$4[ebp]

; 420  : 	m_time( time )

  0002f	89 55 d0	 mov	 DWORD PTR $T2[ebp+4], edx

; 617  : 		errno_t err = _localtime64_s(&ptmTemp, &m_time);

  00032	50		 push	 eax
  00033	e8 00 00 00 00	 call	 __localtime64_s
  00038	83 c4 0c	 add	 esp, 12			; 0000000cH

; 618  : 
; 619  : 		if (err != 0)

  0003b	85 c0		 test	 eax, eax
  0003d	74 09		 je	 SHORT $LN28@GetItem

; 692  : 	return ptm ? ptm->tm_hour : -1 ;

  0003f	c7 45 d4 ff ff
	ff ff		 mov	 DWORD PTR $T3[ebp], -1
  00046	eb 1f		 jmp	 SHORT $LN18@GetItem
$LN28@GetItem:

; 624  : 		*ptm = ptmTemp;

  00048	0f 10 45 d8	 movups	 xmm0, XMMWORD PTR _ptmTemp$4[ebp]
  0004c	8b 45 f8	 mov	 eax, DWORD PTR _ptmTemp$4[ebp+32]
  0004f	89 45 c0	 mov	 DWORD PTR _ttm$1[ebp+32], eax

; 625  : 		return ptm;

  00052	8d 45 a0	 lea	 eax, DWORD PTR _ttm$1[ebp]
  00055	0f 11 45 a0	 movups	 XMMWORD PTR _ttm$1[ebp], xmm0
  00059	0f 10 45 e8	 movups	 xmm0, XMMWORD PTR _ptmTemp$4[ebp+16]
  0005d	0f 11 45 b0	 movups	 XMMWORD PTR _ttm$1[ebp+16], xmm0

; 692  : 	return ptm ? ptm->tm_hour : -1 ;

  00061	8b 40 08	 mov	 eax, DWORD PTR [eax+8]
  00064	89 45 d4	 mov	 DWORD PTR $T3[ebp], eax
$LN18@GetItem:
; File C:\Program Files\Microsoft Visual Studio\2022\Professional\VC\Tools\MSVC\14.44.35207\include\xtree

; 1142 :         return iterator(_Scary->_Myhead->_Left, _Scary);

  00067	8b 43 10	 mov	 eax, DWORD PTR [ebx+16]

; 37   :     _Tree_unchecked_const_iterator(_Nodeptr _Pnode, const _Mytree* _Plist) noexcept : _Ptr(_Pnode) {

  0006a	8b 30		 mov	 esi, DWORD PTR [eax]

; 237  :         return !(*this == _Right);

  0006c	3b f0		 cmp	 esi, eax
; File C:\IAGOS\server\v18\Source\Source\_Common\spevent.cpp

; 363  : 	for( map<int, list<CEventItem*>*>::iterator i = m_mapEventItemList.begin(); i != m_mapEventItemList.end(); ++i )

  0006e	0f 84 91 00 00
	00		 je	 $LN149@GetItem
  00074	0f 1f 40 00 0f
	1f 84 00 00 00
	00 00		 npad	 12
$LL4@GetItem:

; 364  : 	{
; 365  : 		if( g_eLocal.GetState( i->first ) )

  00080	ff 76 10	 push	 DWORD PTR [esi+16]
  00083	b9 00 00 00 00	 mov	 ecx, OFFSET ?g_eLocal@@3VCFlyffEvent@@A ; g_eLocal
  00088	e8 00 00 00 00	 call	 ?GetState@CFlyffEvent@@QAEEH@Z ; CFlyffEvent::GetState
  0008d	84 c0		 test	 al, al
  0008f	74 2e		 je	 SHORT $LN2@GetItem

; 366  : 		{
; 367  : 			list<CEventItem*>* pList	= i->second;

  00091	8b 46 14	 mov	 eax, DWORD PTR [esi+20]
  00094	89 45 d0	 mov	 DWORD PTR _pList$1$[ebp], eax
; File C:\Program Files\Microsoft Visual Studio\2022\Professional\VC\Tools\MSVC\14.44.35207\include\list

; 1105 :         return iterator(_Mypair._Myval2._Myhead->_Next, _STD addressof(_Mypair._Myval2));

  00097	8b 00		 mov	 eax, DWORD PTR [eax]

; 37   :     _List_unchecked_const_iterator(_Nodeptr _Pnode, const _Mylist* _Plist) noexcept : _Ptr(_Pnode) {

  00099	8b 38		 mov	 edi, DWORD PTR [eax]

; 202  :         return !(*this == _Right);

  0009b	3b f8		 cmp	 edi, eax
; File C:\IAGOS\server\v18\Source\Source\_Common\spevent.cpp

; 368  : 			for( list<CEventItem*>::iterator i2 = pList->begin(); i2 != pList->end(); ++i2 )

  0009d	74 20		 je	 SHORT $LN2@GetItem
  0009f	90		 npad	 1
$LL7@GetItem:

; 369  : 			{
; 370  : 				CEventItem* pEventItem	= *i2;

  000a0	8b 5f 08	 mov	 ebx, DWORD PTR [edi+8]

; 371  : 				if( pEventItem->IsTimeout( nHour ) )

  000a3	8b cb		 mov	 ecx, ebx
  000a5	ff 75 d4	 push	 DWORD PTR $T3[ebp]
  000a8	e8 00 00 00 00	 call	 ?IsTimeout@CEventItem@@QAEHH@Z ; CEventItem::IsTimeout
  000ad	85 c0		 test	 eax, eax
  000af	75 69		 jne	 SHORT $LN144@GetItem
; File C:\Program Files\Microsoft Visual Studio\2022\Professional\VC\Tools\MSVC\14.44.35207\include\list

; 202  :         return !(*this == _Right);

  000b1	8b 4d d0	 mov	 ecx, DWORD PTR _pList$1$[ebp]

; 164  :         this->_Ptr = this->_Ptr->_Next;

  000b4	8b 07		 mov	 eax, DWORD PTR [edi]
  000b6	8b f8		 mov	 edi, eax

; 202  :         return !(*this == _Right);

  000b8	3b 01		 cmp	 eax, DWORD PTR [ecx]
; File C:\IAGOS\server\v18\Source\Source\_Common\spevent.cpp

; 368  : 			for( list<CEventItem*>::iterator i2 = pList->begin(); i2 != pList->end(); ++i2 )

  000ba	75 e4		 jne	 SHORT $LL7@GetItem
  000bc	8b 5d c8	 mov	 ebx, DWORD PTR _this$1$[ebp]
$LN2@GetItem:
; File C:\Program Files\Microsoft Visual Studio\2022\Professional\VC\Tools\MSVC\14.44.35207\include\xtree

; 50   :         if (_Ptr->_Right->_Isnil) { // climb looking for right subtree

  000bf	8b 46 08	 mov	 eax, DWORD PTR [esi+8]
  000c2	80 78 0d 00	 cmp	 BYTE PTR [eax+13], 0
  000c6	74 1d		 je	 SHORT $LN53@GetItem

; 51   :             _Nodeptr _Pnode;
; 52   :             while (!(_Pnode = _Ptr->_Parent)->_Isnil && _Ptr == _Pnode->_Right) {

  000c8	8b 46 04	 mov	 eax, DWORD PTR [esi+4]
  000cb	80 78 0d 00	 cmp	 BYTE PTR [eax+13], 0
  000cf	75 10		 jne	 SHORT $LN159@GetItem
$LL51@GetItem:
  000d1	3b 70 08	 cmp	 esi, DWORD PTR [eax+8]
  000d4	75 0b		 jne	 SHORT $LN159@GetItem

; 53   :                 _Ptr = _Pnode; // ==> parent while right subtree

  000d6	8b f0		 mov	 esi, eax
  000d8	8b 40 04	 mov	 eax, DWORD PTR [eax+4]
  000db	80 78 0d 00	 cmp	 BYTE PTR [eax+13], 0
  000df	74 f0		 je	 SHORT $LL51@GetItem
$LN159@GetItem:

; 54   :             }
; 55   : 
; 56   :             _Ptr = _Pnode; // ==> parent (head if end())

  000e1	8b f0		 mov	 esi, eax

; 57   :         } else {

  000e3	eb 17		 jmp	 SHORT $LN59@GetItem
$LN53@GetItem:

; 58   :             _Ptr = _Mytree::_Min(_Ptr->_Right); // ==> smallest of right subtree

  000e5	8b f0		 mov	 esi, eax

; 476  :         while (!_Pnode->_Left->_Isnil) {

  000e7	8b 0e		 mov	 ecx, DWORD PTR [esi]
  000e9	80 79 0d 00	 cmp	 BYTE PTR [ecx+13], 0
  000ed	75 0d		 jne	 SHORT $LN59@GetItem
  000ef	90		 npad	 1
$LL58@GetItem:
  000f0	8b 01		 mov	 eax, DWORD PTR [ecx]

; 477  :             _Pnode = _Pnode->_Left;

  000f2	8b f1		 mov	 esi, ecx
  000f4	8b c8		 mov	 ecx, eax
  000f6	80 78 0d 00	 cmp	 BYTE PTR [eax+13], 0
  000fa	74 f4		 je	 SHORT $LL58@GetItem
$LN59@GetItem:

; 237  :         return !(*this == _Right);

  000fc	3b 73 10	 cmp	 esi, DWORD PTR [ebx+16]
; File C:\IAGOS\server\v18\Source\Source\_Common\spevent.cpp

; 363  : 	for( map<int, list<CEventItem*>*>::iterator i = m_mapEventItemList.begin(); i != m_mapEventItemList.end(); ++i )

  000ff	0f 85 7b ff ff
	ff		 jne	 $LL4@GetItem
$LN149@GetItem:
  00105	5f		 pop	 edi

; 376  : 					return pEventItem;
; 377  : 				}
; 378  : 			}
; 379  : 		}
; 380  : 	}
; 381  : 	return NULL;
; 382  : }

  00106	5e		 pop	 esi
  00107	33 c0		 xor	 eax, eax
  00109	5b		 pop	 ebx
  0010a	8b 4d fc	 mov	 ecx, DWORD PTR __$ArrayPad$[ebp]
  0010d	33 cd		 xor	 ecx, ebp
  0010f	e8 00 00 00 00	 call	 @__security_check_cookie@4
  00114	8b e5		 mov	 esp, ebp
  00116	5d		 pop	 ebp
  00117	c2 04 00	 ret	 4
$LN144@GetItem:

; 372  : 				{
; 373  : 					int nNum	= xRandom( 1, pEventItem->m_nNum + 1 );

  0011a	8b 43 74	 mov	 eax, DWORD PTR [ebx+116]
  0011d	40		 inc	 eax
  0011e	50		 push	 eax
  0011f	6a 01		 push	 1
  00121	e8 00 00 00 00	 call	 ?xRandom@@YAKKK@Z	; xRandom
  00126	8b f0		 mov	 esi, eax
  00128	83 c4 08	 add	 esp, 8

; 374  : 					pEventItem->Skip( (LONG)( nNum - 1 ) );

  0012b	8d 4e ff	 lea	 ecx, DWORD PTR [esi-1]
  0012e	51		 push	 ecx
  0012f	8b cb		 mov	 ecx, ebx
  00131	e8 00 00 00 00	 call	 ?Skip@CEventItem@@QAEXJ@Z ; CEventItem::Skip

; 375  : 					*pnNum	= nNum;

  00136	8b 45 c4	 mov	 eax, DWORD PTR _pnNum$GSCopy$1$[ebp]

; 376  : 					return pEventItem;
; 377  : 				}
; 378  : 			}
; 379  : 		}
; 380  : 	}
; 381  : 	return NULL;
; 382  : }

  00139	8b 4d fc	 mov	 ecx, DWORD PTR __$ArrayPad$[ebp]
  0013c	5f		 pop	 edi
  0013d	33 cd		 xor	 ecx, ebp
  0013f	89 30		 mov	 DWORD PTR [eax], esi
  00141	8b c3		 mov	 eax, ebx
  00143	5e		 pop	 esi
  00144	5b		 pop	 ebx
  00145	e8 00 00 00 00	 call	 @__security_check_cookie@4
  0014a	8b e5		 mov	 esp, ebp
  0014c	5d		 pop	 ebp
  0014d	c2 04 00	 ret	 4
?GetItem@CEventGeneric@@QAEPAVCEventItem@@PAH@Z ENDP	; CEventGeneric::GetItem
_TEXT	ENDS
; Function compile flags: /Ogtp
; File C:\IAGOS\server\v18\Source\Source\_Common\spevent.cpp
; File C:\Program Files\Microsoft Visual Studio\2022\Professional\VC\Tools\MSVC\14.44.35207\include\xtree
; File C:\IAGOS\server\v18\Source\Source\_Common\spevent.cpp
; File C:\Program Files\Microsoft Visual Studio\2022\Professional\VC\Tools\MSVC\14.44.35207\include\xtree
; File C:\Program Files\Microsoft Visual Studio\2022\Professional\VC\Tools\MSVC\14.44.35207\include\type_traits
; File C:\Program Files\Microsoft Visual Studio\2022\Professional\VC\Tools\MSVC\14.44.35207\include\xtree
; File C:\IAGOS\server\v18\Source\Source\_Common\spevent.cpp
; File C:\Program Files\Microsoft Visual Studio\2022\Professional\VC\Tools\MSVC\14.44.35207\include\xmemory
; File C:\Program Files\Microsoft Visual Studio\2022\Professional\VC\Tools\MSVC\14.44.35207\include\list
; File C:\Program Files\Microsoft Visual Studio\2022\Professional\VC\Tools\MSVC\14.44.35207\include\xmemory
; File C:\Program Files\Microsoft Visual Studio\2022\Professional\VC\Tools\MSVC\14.44.35207\include\list
; File C:\IAGOS\server\v18\Source\Source\_Common\spevent.cpp
; File C:\Program Files\Microsoft Visual Studio\2022\Professional\VC\Tools\MSVC\14.44.35207\include\utility
; File C:\IAGOS\server\v18\Source\Source\_Common\spevent.cpp
; File C:\Program Files\Microsoft Visual Studio\2022\Professional\VC\Tools\MSVC\14.44.35207\include\utility
; File C:\IAGOS\server\v18\Source\Source\_Common\spevent.cpp
;	COMDAT ?AddItem@CEventGeneric@@QAEHHKHH@Z
_TEXT	SEGMENT
__Loc$2 = -32						; size = 12
$T3 = -28						; size = 8
$T4 = -20						; size = 8
__$EHRec$ = -12						; size = 12
_nEvent$ = 8						; size = 4
$T5 = 8							; size = 4
_pEventItem$ = 8					; size = 4
$T6 = 8							; size = 4
_dwItemId$ = 12						; size = 4
_nMax$ = 16						; size = 4
_nNum$ = 20						; size = 4
?AddItem@CEventGeneric@@QAEHHKHH@Z PROC			; CEventGeneric::AddItem, COMDAT
; _this$ = ecx

; 334  : {

  00000	55		 push	 ebp
  00001	8b ec		 mov	 ebp, esp
  00003	6a ff		 push	 -1
  00005	68 00 00 00 00	 push	 __ehhandler$?AddItem@CEventGeneric@@QAEHHKHH@Z
  0000a	64 a1 00 00 00
	00		 mov	 eax, DWORD PTR fs:0
  00010	50		 push	 eax
  00011	83 ec 14	 sub	 esp, 20			; 00000014H
  00014	53		 push	 ebx
  00015	56		 push	 esi
  00016	57		 push	 edi
  00017	a1 00 00 00 00	 mov	 eax, DWORD PTR ___security_cookie
  0001c	33 c5		 xor	 eax, ebp
  0001e	50		 push	 eax
  0001f	8d 45 f4	 lea	 eax, DWORD PTR __$EHRec$[ebp]
  00022	64 a3 00 00 00
	00		 mov	 DWORD PTR fs:0, eax
; File C:\Program Files\Microsoft Visual Studio\2022\Professional\VC\Tools\MSVC\14.44.35207\include\xtree

; 1384 :         const _Tree_find_result<_Nodeptr> _Loc = _Find_lower_bound(_Keyval);

  00028	8d 45 08	 lea	 eax, DWORD PTR _nEvent$[ebp]
  0002b	50		 push	 eax
; File C:\IAGOS\server\v18\Source\Source\_Common\spevent.cpp

; 336  : 	map<int, list<CEventItem*>*>::iterator i	= m_mapEventItemList.find( nEvent );

  0002c	8d 79 10	 lea	 edi, DWORD PTR [ecx+16]
; File C:\Program Files\Microsoft Visual Studio\2022\Professional\VC\Tools\MSVC\14.44.35207\include\xtree

; 1384 :         const _Tree_find_result<_Nodeptr> _Loc = _Find_lower_bound(_Keyval);

  0002f	8d 45 e0	 lea	 eax, DWORD PTR __Loc$2[ebp]
  00032	8b cf		 mov	 ecx, edi
  00034	50		 push	 eax
  00035	e8 00 00 00 00	 call	 ??$_Find_lower_bound@H@?$_Tree@V?$_Tmap_traits@HPAV?$list@PAVCEventItem@@V?$allocator@PAVCEventItem@@@std@@@std@@U?$less@H@2@V?$allocator@U?$pair@$$CBHPAV?$list@PAVCEventItem@@V?$allocator@PAVCEventItem@@@std@@@std@@@std@@@2@$0A@@std@@@std@@IBE?AU?$_Tree_find_result@PAU?$_Tree_node@U?$pair@$$CBHPAV?$list@PAVCEventItem@@V?$allocator@PAVCEventItem@@@std@@@std@@@std@@PAX@std@@@1@ABH@Z ; std::_Tree<std::_Tmap_traits<int,std::list<CEventItem *,std::allocator<CEventItem *> > *,std::less<int>,std::allocator<std::pair<int const ,std::list<CEventItem *,std::allocator<CEventItem *> > *> >,0> >::_Find_lower_bound<int>

; 1624 :         return !_Bound->_Isnil && !_DEBUG_LT_PRED(_Getcomp(), _Keyval, _Traits::_Kfn(_Bound->_Myval));

  0003a	8b 75 e8	 mov	 esi, DWORD PTR __Loc$2[ebp+8]
  0003d	8b 5d 08	 mov	 ebx, DWORD PTR _nEvent$[ebp]
  00040	80 7e 0d 00	 cmp	 BYTE PTR [esi+13], 0
  00044	75 33		 jne	 SHORT $LN86@AddItem
; File C:\Program Files\Microsoft Visual Studio\2022\Professional\VC\Tools\MSVC\14.44.35207\include\type_traits

; 2380 :         return _Left < _Right;

  00046	3b 5e 10	 cmp	 ebx, DWORD PTR [esi+16]
; File C:\Program Files\Microsoft Visual Studio\2022\Professional\VC\Tools\MSVC\14.44.35207\include\xtree

; 1624 :         return !_Bound->_Isnil && !_DEBUG_LT_PRED(_Getcomp(), _Keyval, _Traits::_Kfn(_Bound->_Myval));

  00049	7c 2e		 jl	 SHORT $LN86@AddItem

; 37   :     _Tree_unchecked_const_iterator(_Nodeptr _Pnode, const _Mytree* _Plist) noexcept : _Ptr(_Pnode) {

  0004b	3b 37		 cmp	 esi, DWORD PTR [edi]
; File C:\IAGOS\server\v18\Source\Source\_Common\spevent.cpp

; 337  : 	if( i == m_mapEventItemList.end() )

  0004d	74 2a		 je	 SHORT $LN86@AddItem

; 343  : 	}
; 344  : 	else
; 345  : 	{
; 346  : 		pList	= i->second;

  0004f	8b 76 14	 mov	 esi, DWORD PTR [esi+20]
$LN3@AddItem:

; 347  : 	}
; 348  : 	CEventItem* pEventItem	= new CEventItem( dwItemId, nMax, nNum );

  00052	6a 78		 push	 120			; 00000078H
  00054	e8 00 00 00 00	 call	 ??2@YAPAXI@Z		; operator new
  00059	83 c4 04	 add	 esp, 4
  0005c	89 45 08	 mov	 DWORD PTR $T6[ebp], eax
  0005f	85 c0		 test	 eax, eax
  00061	0f 84 8a 00 00
	00		 je	 $LN8@AddItem
  00067	ff 75 14	 push	 DWORD PTR _nNum$[ebp]
  0006a	8b c8		 mov	 ecx, eax
  0006c	ff 75 10	 push	 DWORD PTR _nMax$[ebp]
  0006f	ff 75 0c	 push	 DWORD PTR _dwItemId$[ebp]
  00072	e8 00 00 00 00	 call	 ??0CEventItem@@QAE@KHH@Z ; CEventItem::CEventItem
  00077	eb 7a		 jmp	 SHORT $LN9@AddItem
$LN86@AddItem:

; 339  : 		pList	= new list<CEventItem*>;

  00079	6a 08		 push	 8
  0007b	e8 00 00 00 00	 call	 ??2@YAPAXI@Z		; operator new
  00080	8b f0		 mov	 esi, eax
  00082	83 c4 04	 add	 esp, 4
  00085	89 75 08	 mov	 DWORD PTR $T5[ebp], esi
  00088	c7 45 fc 00 00
	00 00		 mov	 DWORD PTR __$EHRec$[ebp+8], 0
  0008f	85 f6		 test	 esi, esi
  00091	74 20		 je	 SHORT $LN6@AddItem
; File C:\Program Files\Microsoft Visual Studio\2022\Professional\VC\Tools\MSVC\14.44.35207\include\xmemory

; 136  :         return ::operator new(_Bytes);

  00093	6a 0c		 push	 12			; 0000000cH
; File C:\Program Files\Microsoft Visual Studio\2022\Professional\VC\Tools\MSVC\14.44.35207\include\list

; 353  :     _List_val() noexcept : _Myhead(), _Mysize(0) {} // initialize data

  00095	c7 06 00 00 00
	00		 mov	 DWORD PTR [esi], 0
  0009b	c7 46 04 00 00
	00 00		 mov	 DWORD PTR [esi+4], 0
; File C:\Program Files\Microsoft Visual Studio\2022\Professional\VC\Tools\MSVC\14.44.35207\include\xmemory

; 136  :         return ::operator new(_Bytes);

  000a2	e8 00 00 00 00	 call	 ??2@YAPAXI@Z		; operator new
  000a7	83 c4 04	 add	 esp, 4
; File C:\Program Files\Microsoft Visual Studio\2022\Professional\VC\Tools\MSVC\14.44.35207\include\list

; 1852 :         _Construct_in_place(_Newhead->_Next, _Newhead);

  000aa	89 00		 mov	 DWORD PTR [eax], eax

; 1853 :         _Construct_in_place(_Newhead->_Prev, _Newhead);

  000ac	89 40 04	 mov	 DWORD PTR [eax+4], eax

; 1854 :         _Mypair._Myval2._Myhead = _Newhead;

  000af	89 06		 mov	 DWORD PTR [esi], eax
; File C:\IAGOS\server\v18\Source\Source\_Common\spevent.cpp

; 339  : 		pList	= new list<CEventItem*>;

  000b1	eb 02		 jmp	 SHORT $LN7@AddItem
$LN6@AddItem:
  000b3	33 f6		 xor	 esi, esi
$LN7@AddItem:

; 340  : 		bool bResult	= m_mapEventItemList.insert( map<int, list<CEventItem*>*>::value_type( nEvent, pList ) ).second;

  000b5	8d 45 ec	 lea	 eax, DWORD PTR $T4[ebp]
  000b8	c7 45 fc ff ff
	ff ff		 mov	 DWORD PTR __$EHRec$[ebp+8], -1
  000bf	50		 push	 eax
  000c0	8d 45 e4	 lea	 eax, DWORD PTR $T3[ebp]
; File C:\Program Files\Microsoft Visual Studio\2022\Professional\VC\Tools\MSVC\14.44.35207\include\utility

; 274  :         : first(_STD forward<_Other1>(_Val1)), second(_STD forward<_Other2>(_Val2)) {

  000c3	89 5d ec	 mov	 DWORD PTR $T4[ebp], ebx
; File C:\IAGOS\server\v18\Source\Source\_Common\spevent.cpp

; 340  : 		bool bResult	= m_mapEventItemList.insert( map<int, list<CEventItem*>*>::value_type( nEvent, pList ) ).second;

  000c6	50		 push	 eax
  000c7	8b cf		 mov	 ecx, edi
; File C:\Program Files\Microsoft Visual Studio\2022\Professional\VC\Tools\MSVC\14.44.35207\include\utility

; 274  :         : first(_STD forward<_Other1>(_Val1)), second(_STD forward<_Other2>(_Val2)) {

  000c9	89 75 f0	 mov	 DWORD PTR $T4[ebp+4], esi
; File C:\IAGOS\server\v18\Source\Source\_Common\spevent.cpp

; 340  : 		bool bResult	= m_mapEventItemList.insert( map<int, list<CEventItem*>*>::value_type( nEvent, pList ) ).second;

  000cc	e8 00 00 00 00	 call	 ??$insert@$0A@$0A@@?$_Tree@V?$_Tmap_traits@HPAV?$list@PAVCEventItem@@V?$allocator@PAVCEventItem@@@std@@@std@@U?$less@H@2@V?$allocator@U?$pair@$$CBHPAV?$list@PAVCEventItem@@V?$allocator@PAVCEventItem@@@std@@@std@@@std@@@2@$0A@@std@@@std@@QAE?AU?$pair@V?$_Tree_iterator@V?$_Tree_val@U?$_Tree_simple_types@U?$pair@$$CBHPAV?$list@PAVCEventItem@@V?$allocator@PAVCEventItem@@@std@@@std@@@std@@@std@@@std@@@std@@_N@1@$$QAU?$pair@$$CBHPAV?$list@PAVCEventItem@@V?$allocator@PAVCEventItem@@@std@@@std@@@1@@Z ; std::_Tree<std::_Tmap_traits<int,std::list<CEventItem *,std::allocator<CEventItem *> > *,std::less<int>,std::allocator<std::pair<int const ,std::list<CEventItem *,std::allocator<CEventItem *> > *> >,0> >::insert<0,0>

; 341  : 		if( !bResult )	// ?

  000d1	80 78 04 00	 cmp	 BYTE PTR [eax+4], 0
  000d5	0f 85 77 ff ff
	ff		 jne	 $LN3@AddItem

; 342  : 			return FALSE;

  000db	33 c0		 xor	 eax, eax

; 351  : }

  000dd	8b 4d f4	 mov	 ecx, DWORD PTR __$EHRec$[ebp]
  000e0	64 89 0d 00 00
	00 00		 mov	 DWORD PTR fs:0, ecx
  000e7	59		 pop	 ecx
  000e8	5f		 pop	 edi
  000e9	5e		 pop	 esi
  000ea	5b		 pop	 ebx
  000eb	8b e5		 mov	 esp, ebp
  000ed	5d		 pop	 ebp
  000ee	c2 10 00	 ret	 16			; 00000010H
$LN8@AddItem:

; 347  : 	}
; 348  : 	CEventItem* pEventItem	= new CEventItem( dwItemId, nMax, nNum );

  000f1	33 c0		 xor	 eax, eax
$LN9@AddItem:
  000f3	89 45 08	 mov	 DWORD PTR _pEventItem$[ebp], eax

; 349  : 	pList->push_back( pEventItem );

  000f6	8b ce		 mov	 ecx, esi
  000f8	8d 45 08	 lea	 eax, DWORD PTR _pEventItem$[ebp]
  000fb	50		 push	 eax
  000fc	e8 00 00 00 00	 call	 ?push_back@?$list@PAVCEventItem@@V?$allocator@PAVCEventItem@@@std@@@std@@QAEXABQAVCEventItem@@@Z ; std::list<CEventItem *,std::allocator<CEventItem *> >::push_back

; 350  : 	return TRUE;

  00101	b8 01 00 00 00	 mov	 eax, 1

; 351  : }

  00106	8b 4d f4	 mov	 ecx, DWORD PTR __$EHRec$[ebp]
  00109	64 89 0d 00 00
	00 00		 mov	 DWORD PTR fs:0, ecx
  00110	59		 pop	 ecx
  00111	5f		 pop	 edi
  00112	5e		 pop	 esi
  00113	5b		 pop	 ebx
  00114	8b e5		 mov	 esp, ebp
  00116	5d		 pop	 ebp
  00117	c2 10 00	 ret	 16			; 00000010H
_TEXT	ENDS
;	COMDAT text$x
text$x	SEGMENT
__unwindfunclet$?AddItem@CEventGeneric@@QAEHHKHH@Z$0:
  00000	6a 08		 push	 8
  00002	8b 45 08	 mov	 eax, DWORD PTR $T5[ebp]
  00005	50		 push	 eax
  00006	e8 00 00 00 00	 call	 ??3@YAXPAXI@Z		; operator delete
  0000b	83 c4 08	 add	 esp, 8
  0000e	c3		 ret	 0
  0000f	cc		 int	 3
  00010	cc		 int	 3
  00011	cc		 int	 3
  00012	cc		 int	 3
  00013	cc		 int	 3
__ehhandler$?AddItem@CEventGeneric@@QAEHHKHH@Z:
  00014	90		 npad	 1
  00015	90		 npad	 1
  00016	8b 54 24 08	 mov	 edx, DWORD PTR [esp+8]
  0001a	8d 42 0c	 lea	 eax, DWORD PTR [edx+12]
  0001d	8b 4a dc	 mov	 ecx, DWORD PTR [edx-36]
  00020	33 c8		 xor	 ecx, eax
  00022	e8 00 00 00 00	 call	 @__security_check_cookie@4
  00027	b8 00 00 00 00	 mov	 eax, OFFSET __ehfuncinfo$?AddItem@CEventGeneric@@QAEHHKHH@Z
  0002c	e9 00 00 00 00	 jmp	 ___CxxFrameHandler3
text$x	ENDS
?AddItem@CEventGeneric@@QAEHHKHH@Z ENDP			; CEventGeneric::AddItem
; Function compile flags: /Ogtp
; File C:\IAGOS\server\v18\Source\Source\_Common\spevent.cpp
; File C:\Program Files\Microsoft Visual Studio\2022\Professional\VC\Tools\MSVC\14.44.35207\atlmfc\include\cstringt.h
; File C:\IAGOS\server\v18\Source\Source\_Common\spevent.cpp
; File C:\IAGOS\server\v18\Source\Source\_Common\spevent.h
; File C:\IAGOS\server\v18\Source\Source\_Common\spevent.cpp
; File C:\Program Files\Microsoft Visual Studio\2022\Professional\VC\Tools\MSVC\14.44.35207\include\list
; File C:\Program Files\Microsoft Visual Studio\2022\Professional\VC\Tools\MSVC\14.44.35207\include\xmemory
; File C:\Program Files\Microsoft Visual Studio\2022\Professional\VC\Tools\MSVC\14.44.35207\include\list
; File C:\Program Files\Microsoft Visual Studio\2022\Professional\VC\Tools\MSVC\14.44.35207\include\xmemory
; File C:\Program Files\Microsoft Visual Studio\2022\Professional\VC\Tools\MSVC\14.44.35207\include\list
; File C:\Program Files\Microsoft Visual Studio\2022\Professional\VC\Tools\MSVC\14.44.35207\include\xmemory
; File C:\Program Files\Microsoft Visual Studio\2022\Professional\VC\Tools\MSVC\14.44.35207\include\list
; File C:\IAGOS\server\v18\Source\Source\_Common\spevent.cpp
; File C:\Program Files\Microsoft Visual Studio\2022\Professional\VC\Tools\MSVC\14.44.35207\atlmfc\include\cstringt.h
; File C:\IAGOS\server\v18\Source\Source\_Common\spevent.cpp
; File C:\Program Files\Microsoft Visual Studio\2022\Professional\VC\Tools\MSVC\14.44.35207\atlmfc\include\afxstr.h
; File C:\Program Files\Microsoft Visual Studio\2022\Professional\VC\Tools\MSVC\14.44.35207\atlmfc\include\atlsimpstr.h
; File C:\Program Files\Microsoft Visual Studio\2022\Professional\VC\Tools\MSVC\14.44.35207\atlmfc\include\cstringt.h
; File C:\Program Files\Microsoft Visual Studio\2022\Professional\VC\Tools\MSVC\14.44.35207\atlmfc\include\atlsimpstr.h
; File C:\Program Files\Microsoft Visual Studio\2022\Professional\VC\Tools\MSVC\14.44.35207\atlmfc\include\cstringt.h
; File C:\IAGOS\server\v18\Source\Source\_Common\spevent.cpp
; File C:\Program Files\Microsoft Visual Studio\2022\Professional\VC\Tools\MSVC\14.44.35207\atlmfc\include\cstringt.h
; File C:\Program Files\Microsoft Visual Studio\2022\Professional\VC\Tools\MSVC\14.44.35207\atlmfc\include\atlsimpstr.h
; File C:\Program Files\Microsoft Visual Studio\2022\Professional\VC\Tools\MSVC\14.44.35207\atlmfc\include\cstringt.h
; File C:\Program Files (x86)\Windows Kits\10\Include\10.0.26100.0\ucrt\corecrt_memcpy_s.h
; File C:\Program Files\Microsoft Visual Studio\2022\Professional\VC\Tools\MSVC\14.44.35207\atlmfc\include\atlchecked.h
; File C:\Program Files\Microsoft Visual Studio\2022\Professional\VC\Tools\MSVC\14.44.35207\atlmfc\include\cstringt.h
; File C:\Program Files\Microsoft Visual Studio\2022\Professional\VC\Tools\MSVC\14.44.35207\atlmfc\include\atlsimpstr.h
; File C:\IAGOS\server\v18\Source\Source\_Common\spevent.cpp
; File C:\Program Files\Microsoft Visual Studio\2022\Professional\VC\Tools\MSVC\14.44.35207\atlmfc\include\atlsimpstr.h
; File C:\Program Files (x86)\Windows Kits\10\Include\10.0.26100.0\ucrt\corecrt_memcpy_s.h
; File C:\Program Files\Microsoft Visual Studio\2022\Professional\VC\Tools\MSVC\14.44.35207\atlmfc\include\atlsimpstr.h
; File C:\IAGOS\server\v18\Source\Source\_Common\spevent.cpp
; File C:\Program Files\Microsoft Visual Studio\2022\Professional\VC\Tools\MSVC\14.44.35207\atlmfc\include\atlsimpstr.h
; File C:\IAGOS\server\v18\Source\Source\_Common\spevent.cpp
; File C:\Program Files\Microsoft Visual Studio\2022\Professional\VC\Tools\MSVC\14.44.35207\atlmfc\include\atlsimpstr.h
; File C:\IAGOS\server\v18\Source\Source\_Common\spevent.cpp
; File C:\Program Files\Microsoft Visual Studio\2022\Professional\VC\Tools\MSVC\14.44.35207\atlmfc\include\atlsimpstr.h
; File C:\IAGOS\server\v18\Source\Source\_Common\spevent.cpp
; File C:\Program Files\Microsoft Visual Studio\2022\Professional\VC\Tools\MSVC\14.44.35207\atlmfc\include\cstringt.h
; File C:\IAGOS\server\v18\Source\Source\_Common\spevent.cpp
; File C:\Program Files\Microsoft Visual Studio\2022\Professional\VC\Tools\MSVC\14.44.35207\atlmfc\include\cstringt.h
; File C:\IAGOS\server\v18\Source\Source\_Common\spevent.cpp
; File C:\Program Files\Microsoft Visual Studio\2022\Professional\VC\Tools\MSVC\14.44.35207\atlmfc\include\cstringt.h
; File C:\IAGOS\server\v18\Source\Source\_Common\spevent.cpp
; File C:\Program Files\Microsoft Visual Studio\2022\Professional\VC\Tools\MSVC\14.44.35207\atlmfc\include\cstringt.h
; File C:\IAGOS\server\v18\Source\Source\_Common\spevent.cpp
; File C:\Program Files\Microsoft Visual Studio\2022\Professional\VC\Tools\MSVC\14.44.35207\atlmfc\include\cstringt.h
; File C:\IAGOS\server\v18\Source\Source\_Common\spevent.cpp
; File C:\Program Files\Microsoft Visual Studio\2022\Professional\VC\Tools\MSVC\14.44.35207\include\list
; File C:\Program Files\Microsoft Visual Studio\2022\Professional\VC\Tools\MSVC\14.44.35207\atlmfc\include\atlsimpstr.h
; File C:\IAGOS\server\v18\Source\Source\_Common\spevent.cpp
;	COMDAT ?LoadScript@CEventGeneric@@QAEHPBD@Z
_TEXT	SEGMENT
__Op$2 = -3616						; size = 8
_nLang$1$ = -3608					; size = 4
$T3 = -3604						; size = 4
_nOldLength$1$ = -3600					; size = 4
tv1610 = -3596						; size = 4
_pszEnd$1$ = -3596					; size = 4
__SourceSize$1$ = -3596					; size = 4
$T4 = -3592						; size = 4
_fRatio$5 = -3592					; size = 4
_nNewLength$1$ = -3592					; size = 4
__Source$1$ = -3592					; size = 4
_nCount$1$ = -3588					; size = 4
_pszStart$1$ = -3588					; size = 4
_token$6 = -3584					; size = 4
_this$GSCopy$1$ = -3580					; size = 4
_s$ = -3576						; size = 3560
__$ArrayPad$ = -16					; size = 4
__$EHRec$ = -12						; size = 12
_lpFilename$ = 8					; size = 4
?LoadScript@CEventGeneric@@QAEHPBD@Z PROC		; CEventGeneric::LoadScript, COMDAT
; _this$ = ecx

; 185  : {

  00000	55		 push	 ebp
  00001	8b ec		 mov	 ebp, esp
  00003	6a ff		 push	 -1
  00005	68 00 00 00 00	 push	 __ehhandler$?LoadScript@CEventGeneric@@QAEHPBD@Z
  0000a	64 a1 00 00 00
	00		 mov	 eax, DWORD PTR fs:0
  00010	50		 push	 eax
  00011	81 ec 14 0e 00
	00		 sub	 esp, 3604		; 00000e14H
  00017	a1 00 00 00 00	 mov	 eax, DWORD PTR ___security_cookie
  0001c	33 c5		 xor	 eax, ebp
  0001e	89 45 f0	 mov	 DWORD PTR __$ArrayPad$[ebp], eax
  00021	53		 push	 ebx
  00022	56		 push	 esi
  00023	57		 push	 edi
  00024	50		 push	 eax
  00025	8d 45 f4	 lea	 eax, DWORD PTR __$EHRec$[ebp]
  00028	64 a3 00 00 00
	00		 mov	 DWORD PTR fs:0, eax
  0002e	8b f9		 mov	 edi, ecx
  00030	89 bd 04 f2 ff
	ff		 mov	 DWORD PTR _this$GSCopy$1$[ebp], edi
  00036	8b 75 08	 mov	 esi, DWORD PTR _lpFilename$[ebp]

; 186  : 	CScript s;

  00039	8d 8d 08 f2 ff
	ff		 lea	 ecx, DWORD PTR _s$[ebp]
  0003f	6a 00		 push	 0
  00041	e8 00 00 00 00	 call	 ??0CScript@@QAE@H@Z	; CScript::CScript

; 187  : 	if( s.Load( lpFilename ) == FALSE )

  00046	6a 00		 push	 0
  00048	6a 01		 push	 1
  0004a	56		 push	 esi
  0004b	8d 8d 08 f2 ff
	ff		 lea	 ecx, DWORD PTR _s$[ebp]
  00051	c7 45 fc 00 00
	00 00		 mov	 DWORD PTR __$EHRec$[ebp+8], 0
  00058	e8 00 00 00 00	 call	 ?Load@CScript@@QAEHPBDHH@Z ; CScript::Load
  0005d	85 c0		 test	 eax, eax
  0005f	75 07		 jne	 SHORT $LN10@LoadScript
  00061	33 f6		 xor	 esi, esi
  00063	e9 25 07 00 00	 jmp	 $LN31@LoadScript
$LN10@LoadScript:

; 188  : 		return FALSE;
; 189  : 	s.GetToken();	// subject or FINISHED

  00068	6a 00		 push	 0
  0006a	8d 8d 08 f2 ff
	ff		 lea	 ecx, DWORD PTR _s$[ebp]
  00070	e8 00 00 00 00	 call	 ?GetToken@CScript@@UAEHH@Z ; CScript::GetToken

; 190  : 	
; 191  : //	int nEvent	= 500;
; 192  : 
; 193  : 	while( s.tok != FINISHED )

  00075	83 bd 4c fa ff
	ff 15		 cmp	 DWORD PTR _s$[ebp+2116], 21 ; 00000015H
  0007c	0f 84 06 07 00
	00		 je	 $LN388@LoadScript
  00082	0f 1f 40 00 66
	66 0f 1f 84 00
	00 00 00 00	 npad	 14
$LL2@LoadScript:
; File C:\Program Files\Microsoft Visual Studio\2022\Professional\VC\Tools\MSVC\14.44.35207\atlmfc\include\cstringt.h

; 184  : 		return _mbscmp( reinterpret_cast< const unsigned char* >( pszA ), reinterpret_cast< const unsigned char* >( pszB ) );

  00090	68 00 00 00 00	 push	 OFFSET ??_C@_05GCNIINAF@Event@
  00095	ff b5 28 f2 ff
	ff		 push	 DWORD PTR _s$[ebp+32]
  0009b	e8 00 00 00 00	 call	 __mbscmp
  000a0	83 c4 08	 add	 esp, 8

; 2490 : 		return(str1.Compare(psz2) == 0);

  000a3	85 c0		 test	 eax, eax
; File C:\IAGOS\server\v18\Source\Source\_Common\spevent.cpp

; 195  : 		if( s.Token == _T( "Event" ) )

  000a5	0f 85 c3 06 00
	00		 jne	 $LN419@LoadScript

; 197  : 			PEVENT_GENERIC pEvent	= new EVENT_GENERIC;

  000ab	6a 7c		 push	 124			; 0000007cH
  000ad	e8 00 00 00 00	 call	 ??2@YAPAXI@Z		; operator new
  000b2	8b d8		 mov	 ebx, eax
  000b4	89 85 ec f1 ff
	ff		 mov	 DWORD PTR $T3[ebp], eax
  000ba	83 c4 04	 add	 esp, 4
  000bd	89 9d f8 f1 ff
	ff		 mov	 DWORD PTR $T4[ebp], ebx
  000c3	85 db		 test	 ebx, ebx
  000c5	74 2f		 je	 SHORT $LN25@LoadScript
; File C:\IAGOS\server\v18\Source\Source\_Common\spevent.h

; 44   : 		nId	= 0;

  000c7	c7 03 00 00 00
	00		 mov	 DWORD PTR [ebx], 0

; 45   : 		nFlag	= 0;

  000cd	c7 43 04 00 00
	00 00		 mov	 DWORD PTR [ebx+4], 0

; 46   : 		tStart	= 0;

  000d4	c7 43 08 00 00
	00 00		 mov	 DWORD PTR [ebx+8], 0

; 47   : 		tEnd	= 0;

  000db	c7 43 0c 00 00
	00 00		 mov	 DWORD PTR [ebx+12], 0

; 48   : 		*pszTitle	= '\0';

  000e2	c6 43 18 00	 mov	 BYTE PTR [ebx+24], 0

; 49   : 		fExpFactor	= 1.0f;

  000e6	c7 43 10 00 00
	80 3f		 mov	 DWORD PTR [ebx+16], 1065353216 ; 3f800000H

; 50   : #ifdef __ITEMDROPRATE
; 51   : 		fItemDropRate = 1.0f;

  000ed	c7 43 14 00 00
	80 3f		 mov	 DWORD PTR [ebx+20], 1065353216 ; 3f800000H
; File C:\IAGOS\server\v18\Source\Source\_Common\spevent.cpp

; 197  : 			PEVENT_GENERIC pEvent	= new EVENT_GENERIC;

  000f4	eb 08		 jmp	 SHORT $LN26@LoadScript
$LN25@LoadScript:
  000f6	33 db		 xor	 ebx, ebx
  000f8	89 9d ec f1 ff
	ff		 mov	 DWORD PTR $T3[ebp], ebx
$LN26@LoadScript:

; 198  : 			pEvent->nId		= s.GetNumber();

  000fe	6a 00		 push	 0
  00100	8d 8d 08 f2 ff
	ff		 lea	 ecx, DWORD PTR _s$[ebp]
  00106	e8 00 00 00 00	 call	 ?GetNumber@CScanner@@QAEHH@Z ; CScanner::GetNumber
  0010b	89 03		 mov	 DWORD PTR [ebx], eax

; 199  : //			pEvent->nId	= nEvent++;
; 200  : 			pEvent->nFlag	= 0x00000001 << ( pEvent->nId - 500 );
; 201  : 			m_lspEvent.push_back( pEvent );

  0010d	8d 77 08	 lea	 esi, DWORD PTR [edi+8]
  00110	8d 88 0c fe ff
	ff		 lea	 ecx, DWORD PTR [eax-500]
  00116	b8 01 00 00 00	 mov	 eax, 1
  0011b	d3 e0		 shl	 eax, cl
  0011d	89 43 04	 mov	 DWORD PTR [ebx+4], eax
; File C:\Program Files\Microsoft Visual Studio\2022\Professional\VC\Tools\MSVC\14.44.35207\include\list

; 1030 :         if (_Mysize == max_size()) {

  00120	81 7e 04 55 55
	55 15		 cmp	 DWORD PTR [esi+4], 357913941 ; 15555555H

; 1274 :         _Emplace(_Mypair._Myval2._Myhead, _Val);

  00127	8b 3e		 mov	 edi, DWORD PTR [esi]

; 1030 :         if (_Mysize == max_size()) {

  00129	0f 84 89 06 00
	00		 je	 $LN377@LoadScript
; File C:\Program Files\Microsoft Visual Studio\2022\Professional\VC\Tools\MSVC\14.44.35207\include\xmemory

; 1160 :     _CONSTEXPR20 explicit _Alloc_construct_ptr(_Alloc& _Al_) : _Al(_Al_), _Ptr(nullptr) {}

  0012f	89 b5 e0 f1 ff
	ff		 mov	 DWORD PTR __Op$2[ebp], esi

; 136  :         return ::operator new(_Bytes);

  00135	6a 0c		 push	 12			; 0000000cH
; File C:\Program Files\Microsoft Visual Studio\2022\Professional\VC\Tools\MSVC\14.44.35207\include\list

; 593  :     explicit _List_node_emplace_op2(_Alnode& _Al_, _Valtys&&... _Vals) : _Alloc_construct_ptr<_Alnode>(_Al_) {

  00137	c6 45 fc 01	 mov	 BYTE PTR __$EHRec$[ebp+8], 1
; File C:\Program Files\Microsoft Visual Studio\2022\Professional\VC\Tools\MSVC\14.44.35207\include\xmemory

; 1167 :         _Ptr = nullptr; // if allocate throws, prevents double-free

  0013b	c7 85 e4 f1 ff
	ff 00 00 00 00	 mov	 DWORD PTR __Op$2[ebp+4], 0

; 136  :         return ::operator new(_Bytes);

  00145	e8 00 00 00 00	 call	 ??2@YAPAXI@Z		; operator new

; 256  :         return _Traits::_Allocate(_Bytes);

  0014a	8b c8		 mov	 ecx, eax
; File C:\Program Files\Microsoft Visual Studio\2022\Professional\VC\Tools\MSVC\14.44.35207\include\list

; 596  :     }

  0014c	c6 45 fc 00	 mov	 BYTE PTR __$EHRec$[ebp+8], 0
; File C:\Program Files\Microsoft Visual Studio\2022\Professional\VC\Tools\MSVC\14.44.35207\include\xmemory

; 136  :         return ::operator new(_Bytes);

  00150	83 c4 04	 add	 esp, 4
; File C:\Program Files\Microsoft Visual Studio\2022\Professional\VC\Tools\MSVC\14.44.35207\include\list

; 612  :         this->_Ptr            = pointer{};

  00153	c7 85 e4 f1 ff
	ff 00 00 00 00	 mov	 DWORD PTR __Op$2[ebp+4], 0

; 595  :         _Alnode_traits::construct(this->_Al, _STD addressof(this->_Ptr->_Myval), _STD forward<_Valtys>(_Vals)...);

  0015d	89 59 08	 mov	 DWORD PTR [ecx+8], ebx

; 1035 :         ++_Mysize;

  00160	ff 46 04	 inc	 DWORD PTR [esi+4]

; 608  :         const pointer _Insert_after = _Insert_before->_Prev;

  00163	8b 47 04	 mov	 eax, DWORD PTR [edi+4]

; 609  :         _Construct_in_place(this->_Ptr->_Next, _Insert_before);

  00166	89 39		 mov	 DWORD PTR [ecx], edi

; 610  :         _Construct_in_place(this->_Ptr->_Prev, _Insert_after);

  00168	89 41 04	 mov	 DWORD PTR [ecx+4], eax

; 613  :         _Insert_before->_Prev = _Result;

  0016b	89 4f 04	 mov	 DWORD PTR [edi+4], ecx

; 614  :         _Insert_after->_Next  = _Result;

  0016e	89 08		 mov	 DWORD PTR [eax], ecx
; File C:\IAGOS\server\v18\Source\Source\_Common\spevent.cpp

; 203  : 			s.GetToken();	// {

  00170	8d 8d 08 f2 ff
	ff		 lea	 ecx, DWORD PTR _s$[ebp]
  00176	6a 00		 push	 0
  00178	e8 00 00 00 00	 call	 ?GetToken@CScript@@UAEHH@Z ; CScript::GetToken

; 204  : 			s.GetToken();

  0017d	6a 00		 push	 0
  0017f	8d 8d 08 f2 ff
	ff		 lea	 ecx, DWORD PTR _s$[ebp]
  00185	e8 00 00 00 00	 call	 ?GetToken@CScript@@UAEHH@Z ; CScript::GetToken

; 205  : 			while( *s.token != '}' )

  0018a	8b 85 44 f2 ff
	ff		 mov	 eax, DWORD PTR _s$[ebp+60]
  00190	80 38 7d	 cmp	 BYTE PTR [eax], 125	; 0000007dH
  00193	0f 84 cf 05 00
	00		 je	 $LN420@LoadScript
  00199	0f 1f 80 00 00
	00 00		 npad	 7
$LL4@LoadScript:
; File C:\Program Files\Microsoft Visual Studio\2022\Professional\VC\Tools\MSVC\14.44.35207\atlmfc\include\cstringt.h

; 184  : 		return _mbscmp( reinterpret_cast< const unsigned char* >( pszA ), reinterpret_cast< const unsigned char* >( pszB ) );

  001a0	68 00 00 00 00	 push	 OFFSET ??_C@_05PABKJLOM@Title@
  001a5	ff b5 28 f2 ff
	ff		 push	 DWORD PTR _s$[ebp+32]
  001ab	e8 00 00 00 00	 call	 __mbscmp
  001b0	83 c4 08	 add	 esp, 8

; 2490 : 		return(str1.Compare(psz2) == 0);

  001b3	85 c0		 test	 eax, eax
; File C:\IAGOS\server\v18\Source\Source\_Common\spevent.cpp

; 207  : 				if( s.Token == _T( "Title" ) )

  001b5	0f 85 9a 03 00
	00		 jne	 $LN208@LoadScript

; 208  : 				{
; 209  : 					s.GetToken();	// {

  001bb	50		 push	 eax
  001bc	8d 8d 08 f2 ff
	ff		 lea	 ecx, DWORD PTR _s$[ebp]
  001c2	e8 00 00 00 00	 call	 ?GetToken@CScript@@UAEHH@Z ; CScript::GetToken

; 210  : 					int nLang	= s.GetNumber();

  001c7	6a 00		 push	 0
  001c9	8d 8d 08 f2 ff
	ff		 lea	 ecx, DWORD PTR _s$[ebp]
  001cf	e8 00 00 00 00	 call	 ?GetNumber@CScanner@@QAEHH@Z ; CScanner::GetNumber
  001d4	89 85 e8 f1 ff
	ff		 mov	 DWORD PTR _nLang$1$[ebp], eax

; 211  : 					while( *s.token != '}' )

  001da	8b 85 44 f2 ff
	ff		 mov	 eax, DWORD PTR _s$[ebp+60]
  001e0	80 38 7d	 cmp	 BYTE PTR [eax], 125	; 0000007dH
  001e3	0f 84 08 04 00
	00		 je	 $LN423@LoadScript
  001e9	0f 1f 80 00 00
	00 00		 npad	 7
$LL6@LoadScript:

; 212  : 					{
; 213  : 						s.GetLastFull();

  001f0	8d 8d 08 f2 ff
	ff		 lea	 ecx, DWORD PTR _s$[ebp]
  001f6	e8 00 00 00 00	 call	 ?GetLastFull@CScript@@QAEXXZ ; CScript::GetLastFull

; 214  : 						CString token	= s.token;

  001fb	8b b5 44 f2 ff
	ff		 mov	 esi, DWORD PTR _s$[ebp+60]
; File C:\Program Files\Microsoft Visual Studio\2022\Professional\VC\Tools\MSVC\14.44.35207\atlmfc\include\afxstr.h

; 56   : 		return( AfxGetStringManager() );

  00201	e8 00 00 00 00	 call	 ?AfxGetStringManager@@YGPAUIAtlStringMgr@ATL@@XZ ; AfxGetStringManager
  00206	8b c8		 mov	 ecx, eax
; File C:\Program Files\Microsoft Visual Studio\2022\Professional\VC\Tools\MSVC\14.44.35207\atlmfc\include\atlsimpstr.h

; 209  : 		ATLENSURE( pStringMgr != NULL );

  00208	85 c9		 test	 ecx, ecx
  0020a	0f 84 c1 05 00
	00		 je	 $LN366@LoadScript

; 210  : 		CStringData* pData = pStringMgr->GetNilString();

  00210	8b 01		 mov	 eax, DWORD PTR [ecx]
  00212	ff 50 0c	 call	 DWORD PTR [eax+12]

; 211  : 		Attach( pData );

  00215	83 c0 10	 add	 eax, 16			; 00000010H
  00218	89 85 00 f2 ff
	ff		 mov	 DWORD PTR _token$6[ebp], eax
; File C:\Program Files\Microsoft Visual Studio\2022\Professional\VC\Tools\MSVC\14.44.35207\atlmfc\include\cstringt.h

; 1052 : 		CThisSimpleString( StringTraits::GetDefaultManager() )

  0021e	c6 45 fc 02	 mov	 BYTE PTR __$EHRec$[ebp+8], 2

; 2712 : 		if( (pv != NULL) && IS_INTRESOURCE( pv ) )

  00222	85 f6		 test	 esi, esi
  00224	74 29		 je	 SHORT $LN406@LoadScript
  00226	f7 c6 00 00 ff
	ff		 test	 esi, -65536		; ffff0000H
  0022c	75 11		 jne	 SHORT $LN59@LoadScript

; 2713 : 		{
; 2714 : 			UINT nID = LOWORD( reinterpret_cast< DWORD_PTR >( pv ) );

  0022e	0f b7 c6	 movzx	 eax, si

; 2715 : 			(nID);
; 2716 : #ifdef _ATL_USE_WINAPI_FAMILY_DESKTOP_APP
; 2717 : 			if( !LoadString( nID ) )

  00231	8d 8d 00 f2 ff
	ff		 lea	 ecx, DWORD PTR _token$6[ebp]
  00237	50		 push	 eax
  00238	e8 00 00 00 00	 call	 ?LoadStringA@?$CStringT@DV?$StrTraitMFC@DV?$ChTraitsCRT@D@ATL@@@@@ATL@@QAEHI@Z ; ATL::CStringT<char,StrTraitMFC<char,ATL::ChTraitsCRT<char> > >::LoadStringA

; 1054 : 		if( !CheckImplicitLoad( pszSrc ) )

  0023d	eb 1f		 jmp	 SHORT $LN33@LoadScript
$LN59@LoadScript:
; File C:\Program Files\Microsoft Visual Studio\2022\Professional\VC\Tools\MSVC\14.44.35207\atlmfc\include\atlsimpstr.h

; 730  : 		return( int( strlen( psz ) ) );

  0023f	8b ce		 mov	 ecx, esi
  00241	8d 51 01	 lea	 edx, DWORD PTR [ecx+1]
$LL413@LoadScript:
  00244	8a 01		 mov	 al, BYTE PTR [ecx]
  00246	41		 inc	 ecx
  00247	84 c0		 test	 al, al
  00249	75 f9		 jne	 SHORT $LL413@LoadScript
  0024b	2b ca		 sub	 ecx, edx
  0024d	eb 02		 jmp	 SHORT $LN58@LoadScript
$LN406@LoadScript:

; 607  : 	}
; 608  : 	void SetString(
; 609  : 		_In_reads_opt_(nLength) PCXSTR pszSrc,
; 610  : 		_In_ int nLength)
; 611  : 	{
; 612  : 		if( nLength == 0 )
; 613  : 		{
; 614  : 			Empty();
; 615  : 		}
; 616  : 		else
; 617  : 		{
; 618  : 			// It is possible that pszSrc points to a location inside of our
; 619  : 			// buffer.  GetBuffer() might change m_pszData if (1) the buffer
; 620  : 			// is shared or (2) the buffer is too small to hold the new
; 621  : 			// string.  We detect this aliasing, and modify pszSrc to point
; 622  : 			// into the newly allocated buffer instead.
; 623  : 
; 624  : 			if(pszSrc == NULL)
; 625  : 				AtlThrow(E_INVALIDARG);
; 626  : 
; 627  : 			UINT nOldLength = GetLength();
; 628  : 			UINT_PTR nOffset = pszSrc-GetString();
; 629  : 			// If 0 <= nOffset <= nOldLength, then pszSrc points into our
; 630  : 			// buffer
; 631  : 
; 632  : 			PXSTR pszBuffer = GetBuffer( nLength );
; 633  : 			if( nOffset <= nOldLength )
; 634  : 			{
; 635  : 				CopyCharsOverlapped( pszBuffer, GetAllocLength(),
; 636  : 					pszBuffer+nOffset, nLength );
; 637  : 			}
; 638  : 			else
; 639  : 			{
; 640  : 				memcpy_s( pszBuffer, GetAllocLength() * sizeof( XCHAR ), pszSrc, nLength * sizeof( XCHAR ));
; 641  : 			}
; 642  : 			ReleaseBufferSetLength( nLength );
; 643  : 		}
; 644  : 	}
; 645  : 
; 646  : public:
; 647  : 	friend CSimpleStringT operator+(
; 648  : 		_In_ const CSimpleStringT& str1,
; 649  : 		_In_ const CSimpleStringT& str2)
; 650  : 	{
; 651  : 		CSimpleStringT s( str1.GetManager() );
; 652  : 
; 653  : 		Concatenate( s, str1, str1.GetLength(), str2, str2.GetLength() );
; 654  : 
; 655  : 		return( s );
; 656  : 	}
; 657  : 
; 658  : 	friend CSimpleStringT operator+(
; 659  : 		_In_ const CSimpleStringT& str1,
; 660  : 		_In_z_ PCXSTR psz2)
; 661  : 	{
; 662  : 		CSimpleStringT s( str1.GetManager() );
; 663  : 
; 664  : 		Concatenate( s, str1, str1.GetLength(), psz2, StringLength( psz2 ) );
; 665  : 
; 666  : 		return( s );
; 667  : 	}
; 668  : 
; 669  : 	friend CSimpleStringT operator+(
; 670  : 		_In_z_ PCXSTR psz1,
; 671  : 		_In_ const CSimpleStringT& str2)
; 672  : 	{
; 673  : 		CSimpleStringT s( str2.GetManager() );
; 674  : 
; 675  : 		Concatenate( s, psz1, StringLength( psz1 ), str2, str2.GetLength() );
; 676  : 
; 677  : 		return( s );
; 678  : 	}
; 679  : 
; 680  : 	_ATL_INSECURE_DEPRECATE("CSimpleStringT::CopyChars must be passed a buffer size")
; 681  : 	static void __cdecl CopyChars(
; 682  : 		_Out_writes_(nChars) XCHAR* pchDest,
; 683  : 		_In_reads_opt_(nChars) const XCHAR* pchSrc,
; 684  : 		_In_ int nChars) throw()
; 685  : 	{
; 686  : 		if (pchSrc != NULL)
; 687  : 		{
; 688  : 			#pragma warning (push)
; 689  : 			#pragma warning(disable : 4996)
; 690  : 			memcpy( pchDest, pchSrc, nChars*sizeof( XCHAR ) );
; 691  : 			#pragma warning (pop)
; 692  : 		}
; 693  : 	}
; 694  : 	static void __cdecl CopyChars(
; 695  : 		_Out_writes_to_(nDestLen,nChars) XCHAR* pchDest,
; 696  : 		_In_ size_t nDestLen,
; 697  : 		_In_reads_opt_(nChars) const XCHAR* pchSrc,
; 698  : 		_In_ int nChars) throw()
; 699  : 	{
; 700  : 		memcpy_s( pchDest, nDestLen*sizeof( XCHAR ),
; 701  : 			pchSrc, nChars*sizeof( XCHAR ) );
; 702  : 	}
; 703  : 
; 704  : 	_ATL_INSECURE_DEPRECATE("CSimpleStringT::CopyCharsOverlapped must be passed a buffer size")
; 705  : 	static void __cdecl CopyCharsOverlapped(
; 706  : 		_Out_writes_(nChars) XCHAR* pchDest,
; 707  : 		_In_reads_(nChars) const XCHAR* pchSrc,
; 708  : 		_In_ int nChars) throw()
; 709  : 	{
; 710  : 		#pragma warning (push)
; 711  : 		#pragma warning(disable : 4996)
; 712  : 		memmove( pchDest, pchSrc, nChars*sizeof( XCHAR ) );
; 713  : 		#pragma warning (pop)
; 714  : 	}
; 715  : 	static void __cdecl CopyCharsOverlapped(
; 716  : 		_Out_writes_to_(nDestLen, nDestLen) XCHAR* pchDest,
; 717  : 		_In_ size_t nDestLen,
; 718  : 		_In_reads_(nChars) const XCHAR* pchSrc,
; 719  : 		_In_ int nChars) throw()
; 720  : 	{
; 721  : 		memmove_s( pchDest, nDestLen*sizeof( XCHAR ),
; 722  : 			pchSrc, nChars*sizeof( XCHAR ) );
; 723  : 	}
; 724  : 	static int __cdecl StringLength(_In_opt_z_ const char* psz) throw()
; 725  : 	{
; 726  : 		if( psz == NULL )
; 727  : 		{
; 728  : 			return( 0 );

  0024f	33 c9		 xor	 ecx, ecx
$LN58@LoadScript:

; 606  : 		SetString( pszSrc, StringLength( pszSrc ) );

  00251	51		 push	 ecx
  00252	56		 push	 esi
  00253	8d 8d 00 f2 ff
	ff		 lea	 ecx, DWORD PTR _token$6[ebp]
  00259	e8 00 00 00 00	 call	 ?SetString@?$CSimpleStringT@D$0A@@ATL@@QAEXPBDH@Z ; ATL::CSimpleStringT<char,0>::SetString
$LN33@LoadScript:
; File C:\Program Files\Microsoft Visual Studio\2022\Professional\VC\Tools\MSVC\14.44.35207\atlmfc\include\cstringt.h

; 1622 : 			PCXSTR pszStart = this->GetString();

  0025e	8b b5 00 f2 ff
	ff		 mov	 esi, DWORD PTR _token$6[ebp]
  00264	33 db		 xor	 ebx, ebx
  00266	8b fe		 mov	 edi, esi
; File C:\IAGOS\server\v18\Source\Source\_Common\spevent.cpp

; 214  : 						CString token	= s.token;

  00268	c6 45 fc 03	 mov	 BYTE PTR __$EHRec$[ebp+8], 3
; File C:\Program Files\Microsoft Visual Studio\2022\Professional\VC\Tools\MSVC\14.44.35207\atlmfc\include\cstringt.h

; 1620 : 		int nCount = 0;

  0026c	89 9d fc f1 ff
	ff		 mov	 DWORD PTR _nCount$1$[ebp], ebx

; 1622 : 			PCXSTR pszStart = this->GetString();

  00272	8d 47 f4	 lea	 eax, DWORD PTR [edi-12]
  00275	89 85 f4 f1 ff
	ff		 mov	 DWORD PTR tv1610[ebp], eax

; 1623 : 			PCXSTR pszEnd = pszStart + this->GetLength();

  0027b	8b 00		 mov	 eax, DWORD PTR [eax]
  0027d	03 c7		 add	 eax, edi
  0027f	3b f8		 cmp	 edi, eax

; 1624 : 			while( pszStart < pszEnd )

  00281	0f 83 99 01 00
	00		 jae	 $LN137@LoadScript
  00287	8b f0		 mov	 esi, eax
  00289	0f 1f 80 00 00
	00 00		 npad	 7
$LL63@LoadScript:

; 212  : 		return reinterpret_cast< LPCSTR >( _mbsstr( reinterpret_cast< const unsigned char* >( pszBlock ),

  00290	68 00 00 00 00	 push	 OFFSET ??_C@_01BJJEKLCA@?$CC@
  00295	57		 push	 edi
  00296	e8 00 00 00 00	 call	 __mbsstr
  0029b	83 c4 08	 add	 esp, 8

; 1627 : 				while( (pszTarget = StringTraits::StringFindString( pszStart, pszOld ) ) != NULL)

  0029e	85 c0		 test	 eax, eax
  002a0	74 1c		 je	 SHORT $LN66@LoadScript
$LL65@LoadScript:

; 1628 : 				{
; 1629 : 					nCount++;
; 1630 : 					pszStart = pszTarget+nSourceLen;

  002a2	8d 78 01	 lea	 edi, DWORD PTR [eax+1]
  002a5	43		 inc	 ebx

; 212  : 		return reinterpret_cast< LPCSTR >( _mbsstr( reinterpret_cast< const unsigned char* >( pszBlock ),

  002a6	68 00 00 00 00	 push	 OFFSET ??_C@_01BJJEKLCA@?$CC@
  002ab	57		 push	 edi
  002ac	e8 00 00 00 00	 call	 __mbsstr
  002b1	83 c4 08	 add	 esp, 8

; 1627 : 				while( (pszTarget = StringTraits::StringFindString( pszStart, pszOld ) ) != NULL)

  002b4	85 c0		 test	 eax, eax
  002b6	75 ea		 jne	 SHORT $LL65@LoadScript
  002b8	89 9d fc f1 ff
	ff		 mov	 DWORD PTR _nCount$1$[ebp], ebx
$LN66@LoadScript:

; 495  : 		return (psz != NULL) ? int( strlen( psz ) ) : 0;

  002be	85 ff		 test	 edi, edi
  002c0	74 10		 je	 SHORT $LN90@LoadScript
  002c2	8b cf		 mov	 ecx, edi
  002c4	8d 51 01	 lea	 edx, DWORD PTR [ecx+1]
$LL414@LoadScript:
  002c7	8a 01		 mov	 al, BYTE PTR [ecx]
  002c9	41		 inc	 ecx
  002ca	84 c0		 test	 al, al
  002cc	75 f9		 jne	 SHORT $LL414@LoadScript
  002ce	2b ca		 sub	 ecx, edx
  002d0	eb 02		 jmp	 SHORT $LN91@LoadScript
$LN90@LoadScript:
  002d2	33 c9		 xor	 ecx, ecx
$LN91@LoadScript:

; 1632 : 				pszStart += StringTraits::SafeStringLen( pszStart )+1;

  002d4	47		 inc	 edi
  002d5	03 f9		 add	 edi, ecx
  002d7	3b fe		 cmp	 edi, esi
  002d9	72 b5		 jb	 SHORT $LL63@LoadScript
  002db	8b b5 00 f2 ff
	ff		 mov	 esi, DWORD PTR _token$6[ebp]

; 1633 : 			}
; 1634 : 		}
; 1635 : 
; 1636 : 		// if any changes were made, make them
; 1637 : 		if( nCount > 0 )

  002e1	85 db		 test	 ebx, ebx
  002e3	0f 8e 37 01 00
	00		 jle	 $LN137@LoadScript

; 1638 : 		{
; 1639 : 			// if the buffer is too small, just
; 1640 : 			//   allocate a new buffer (slow but sure)
; 1641 : 			int nOldLength = this->GetLength();

  002e9	8b 9d f4 f1 ff
	ff		 mov	 ebx, DWORD PTR tv1610[ebp]
  002ef	8b 1b		 mov	 ebx, DWORD PTR [ebx]

; 1642 : 			int nNewLength = nOldLength+(nReplacementLen-nSourceLen)*nCount;

  002f1	8b fb		 mov	 edi, ebx
  002f3	2b bd fc f1 ff
	ff		 sub	 edi, DWORD PTR _nCount$1$[ebp]

; 1643 : 
; 1644 : 			PXSTR pszBuffer = this->GetBuffer( __max( nNewLength, nOldLength ) );

  002f9	8b d3		 mov	 edx, ebx
  002fb	3b fb		 cmp	 edi, ebx
  002fd	89 9d f0 f1 ff
	ff		 mov	 DWORD PTR _nOldLength$1$[ebp], ebx
  00303	89 bd f8 f1 ff
	ff		 mov	 DWORD PTR _nNewLength$1$[ebp], edi
  00309	0f 4f d7	 cmovg	 edx, edi
; File C:\Program Files\Microsoft Visual Studio\2022\Professional\VC\Tools\MSVC\14.44.35207\atlmfc\include\atlsimpstr.h

; 808  : 		if (nLength < 0)

  0030c	85 d2		 test	 edx, edx
  0030e	0f 88 ae 04 00
	00		 js	 $LN367@LoadScript

; 810  : 
; 811  : 		CStringData* pOldData = GetData();
; 812  : 		int nShared = 1-pOldData->nRefs;  // nShared < 0 means true, >= 0 means false
; 813  : 		int nTooShort = pOldData->nAllocLength-nLength;  // nTooShort < 0 means true, >= 0 means false

  00314	8b 46 f8	 mov	 eax, DWORD PTR [esi-8]
  00317	b9 01 00 00 00	 mov	 ecx, 1
  0031c	2b 4e fc	 sub	 ecx, DWORD PTR [esi-4]
  0031f	2b c2		 sub	 eax, edx

; 814  : 		if( (nShared|nTooShort) < 0 )  // If either sign bit is set (i.e. either is less than zero), we need to copy data

  00321	0b c1		 or	 eax, ecx
  00323	7d 12		 jge	 SHORT $LN100@LoadScript

; 815  : 		{
; 816  : 			PrepareWrite2( nLength );

  00325	52		 push	 edx
  00326	8d 8d 00 f2 ff
	ff		 lea	 ecx, DWORD PTR _token$6[ebp]
  0032c	e8 00 00 00 00	 call	 ?PrepareWrite2@?$CSimpleStringT@D$0A@@ATL@@AAEXH@Z ; ATL::CSimpleStringT<char,0>::PrepareWrite2
  00331	8b b5 00 f2 ff
	ff		 mov	 esi, DWORD PTR _token$6[ebp]
$LN100@LoadScript:
; File C:\Program Files\Microsoft Visual Studio\2022\Professional\VC\Tools\MSVC\14.44.35207\atlmfc\include\cstringt.h

; 1646 : 			PXSTR pszStart = pszBuffer;

  00337	8b d6		 mov	 edx, esi
  00339	89 95 fc f1 ff
	ff		 mov	 DWORD PTR _pszStart$1$[ebp], edx
  0033f	8d 04 1a	 lea	 eax, DWORD PTR [edx+ebx]
  00342	89 85 f4 f1 ff
	ff		 mov	 DWORD PTR _pszEnd$1$[ebp], eax

; 1647 : 			PXSTR pszEnd = pszStart+nOldLength;

  00348	3b d0		 cmp	 edx, eax

; 1648 : 
; 1649 : 			// loop again to actually do the work
; 1650 : 			while( pszStart < pszEnd )

  0034a	0f 83 b8 00 00
	00		 jae	 $LN68@LoadScript
$LL67@LoadScript:

; 212  : 		return reinterpret_cast< LPCSTR >( _mbsstr( reinterpret_cast< const unsigned char* >( pszBlock ),

  00350	68 00 00 00 00	 push	 OFFSET ??_C@_01BJJEKLCA@?$CC@
  00355	52		 push	 edx
  00356	e8 00 00 00 00	 call	 __mbsstr

; 1653 : 				while( (pszTarget = StringTraits::StringFindString( pszStart, pszOld ) ) != NULL )

  0035b	8b f8		 mov	 edi, eax

; 212  : 		return reinterpret_cast< LPCSTR >( _mbsstr( reinterpret_cast< const unsigned char* >( pszBlock ),

  0035d	83 c4 08	 add	 esp, 8

; 1653 : 				while( (pszTarget = StringTraits::StringFindString( pszStart, pszOld ) ) != NULL )

  00360	85 ff		 test	 edi, edi
  00362	74 6a		 je	 SHORT $LN70@LoadScript
$LL69@LoadScript:

; 1654 : 				{
; 1655 : 					int nBalance = nOldLength-int(pszTarget-pszBuffer+nSourceLen);

  00364	2b df		 sub	 ebx, edi

; 1656 : 					Checked::memmove_s( pszTarget+nReplacementLen, nBalance*sizeof( XCHAR ),

  00366	8d 47 01	 lea	 eax, DWORD PTR [edi+1]
  00369	4b		 dec	 ebx
  0036a	03 de		 add	 ebx, esi
; File C:\Program Files (x86)\Windows Kits\10\Include\10.0.26100.0\ucrt\corecrt_memcpy_s.h

; 76   :         if (_SourceSize == 0)

  0036c	74 26		 je	 SHORT $LN426@LoadScript

; 77   :         {
; 78   :             return 0;
; 79   :         }
; 80   : 
; 81   :         _CRT_MEMCPY_S_VALIDATE_RETURN_ERRCODE(_Destination != NULL,            EINVAL);
; 82   :         _CRT_MEMCPY_S_VALIDATE_RETURN_ERRCODE(_Source != NULL,                 EINVAL);

  0036e	85 c0		 test	 eax, eax
  00370	75 17		 jne	 SHORT $LN115@LoadScript
  00372	e8 00 00 00 00	 call	 __errno
  00377	c7 00 16 00 00
	00		 mov	 DWORD PTR [eax], 22	; 00000016H
  0037d	e8 00 00 00 00	 call	 __invalid_parameter_noinfo
  00382	b8 16 00 00 00	 mov	 eax, 22			; 00000016H
  00387	eb 0d		 jmp	 SHORT $LN112@LoadScript
$LN115@LoadScript:

; 83   :         _CRT_MEMCPY_S_VALIDATE_RETURN_ERRCODE(_DestinationSize >= _SourceSize, ERANGE);
; 84   : 
; 85   :         memmove(_Destination, _Source, _SourceSize);

  00389	53		 push	 ebx
  0038a	50		 push	 eax
  0038b	57		 push	 edi
  0038c	e8 00 00 00 00	 call	 _memmove
  00391	83 c4 0c	 add	 esp, 12			; 0000000cH
$LN426@LoadScript:
; File C:\Program Files\Microsoft Visual Studio\2022\Professional\VC\Tools\MSVC\14.44.35207\atlmfc\include\atlchecked.h

; 91   : 	ATLMFC_CRT_ERRORCHECK(::memmove_s(_S1, _S1max, _S2, _N));

  00394	33 c0		 xor	 eax, eax
$LN112@LoadScript:
  00396	50		 push	 eax
  00397	e8 00 00 00 00	 call	 ?AfxCrtErrorCheck@@YAHH@Z ; AfxCrtErrorCheck

; 73   : 	ATLMFC_CRT_ERRORCHECK(::memcpy_s(_S1, _S1max, _S2, _N));

  0039c	6a 00		 push	 0
  0039e	e8 00 00 00 00	 call	 ?AfxCrtErrorCheck@@YAHH@Z ; AfxCrtErrorCheck
; File C:\Program Files\Microsoft Visual Studio\2022\Professional\VC\Tools\MSVC\14.44.35207\atlmfc\include\cstringt.h

; 1661 : 					pszTarget[nReplacementLen+nBalance] = 0;

  003a3	c6 04 3b 00	 mov	 BYTE PTR [ebx+edi], 0

; 1662 : 					nOldLength += (nReplacementLen-nSourceLen);

  003a7	8b 9d f0 f1 ff
	ff		 mov	 ebx, DWORD PTR _nOldLength$1$[ebp]

; 212  : 		return reinterpret_cast< LPCSTR >( _mbsstr( reinterpret_cast< const unsigned char* >( pszBlock ),

  003ad	68 00 00 00 00	 push	 OFFSET ??_C@_01BJJEKLCA@?$CC@

; 1662 : 					nOldLength += (nReplacementLen-nSourceLen);

  003b2	4b		 dec	 ebx
  003b3	89 bd fc f1 ff
	ff		 mov	 DWORD PTR _pszStart$1$[ebp], edi

; 212  : 		return reinterpret_cast< LPCSTR >( _mbsstr( reinterpret_cast< const unsigned char* >( pszBlock ),

  003b9	57		 push	 edi

; 1662 : 					nOldLength += (nReplacementLen-nSourceLen);

  003ba	89 9d f0 f1 ff
	ff		 mov	 DWORD PTR _nOldLength$1$[ebp], ebx

; 212  : 		return reinterpret_cast< LPCSTR >( _mbsstr( reinterpret_cast< const unsigned char* >( pszBlock ),

  003c0	e8 00 00 00 00	 call	 __mbsstr

; 1653 : 				while( (pszTarget = StringTraits::StringFindString( pszStart, pszOld ) ) != NULL )

  003c5	8b f8		 mov	 edi, eax

; 212  : 		return reinterpret_cast< LPCSTR >( _mbsstr( reinterpret_cast< const unsigned char* >( pszBlock ),

  003c7	83 c4 10	 add	 esp, 16			; 00000010H

; 1653 : 				while( (pszTarget = StringTraits::StringFindString( pszStart, pszOld ) ) != NULL )

  003ca	85 ff		 test	 edi, edi
  003cc	75 96		 jne	 SHORT $LL69@LoadScript
$LN70@LoadScript:

; 495  : 		return (psz != NULL) ? int( strlen( psz ) ) : 0;

  003ce	8b 95 fc f1 ff
	ff		 mov	 edx, DWORD PTR _pszStart$1$[ebp]
  003d4	85 d2		 test	 edx, edx
  003d6	74 13		 je	 SHORT $LN130@LoadScript
  003d8	8b ca		 mov	 ecx, edx
  003da	8d 79 01	 lea	 edi, DWORD PTR [ecx+1]
  003dd	0f 1f 00	 npad	 3
$LL415@LoadScript:
  003e0	8a 01		 mov	 al, BYTE PTR [ecx]
  003e2	41		 inc	 ecx
  003e3	84 c0		 test	 al, al
  003e5	75 f9		 jne	 SHORT $LL415@LoadScript
  003e7	2b cf		 sub	 ecx, edi
  003e9	eb 02		 jmp	 SHORT $LN131@LoadScript
$LN130@LoadScript:
  003eb	33 c9		 xor	 ecx, ecx
$LN131@LoadScript:

; 1664 : 				pszStart += StringTraits::SafeStringLen( pszStart )+1;

  003ed	42		 inc	 edx
  003ee	03 d1		 add	 edx, ecx
  003f0	89 95 fc f1 ff
	ff		 mov	 DWORD PTR _pszStart$1$[ebp], edx
  003f6	3b 95 f4 f1 ff
	ff		 cmp	 edx, DWORD PTR _pszEnd$1$[ebp]
  003fc	0f 82 4e ff ff
	ff		 jb	 $LL67@LoadScript
  00402	8b bd f8 f1 ff
	ff		 mov	 edi, DWORD PTR _nNewLength$1$[ebp]
$LN68@LoadScript:
; File C:\Program Files\Microsoft Visual Studio\2022\Professional\VC\Tools\MSVC\14.44.35207\atlmfc\include\atlsimpstr.h

; 875  : 		if( nLength < 0 || nLength > GetData()->nAllocLength)

  00408	85 ff		 test	 edi, edi
  0040a	0f 88 b2 03 00
	00		 js	 $LN367@LoadScript
  00410	3b 7e f8	 cmp	 edi, DWORD PTR [esi-8]
  00413	0f 8f a9 03 00
	00		 jg	 $LN367@LoadScript

; 876  : 			AtlThrow(E_INVALIDARG);
; 877  : 
; 878  : 		GetData()->nDataLength = nLength;

  00419	89 7e f4	 mov	 DWORD PTR [esi-12], edi

; 879  : 		m_pszData[nLength] = 0;

  0041c	c6 04 37 00	 mov	 BYTE PTR [edi+esi], 0
$LN137@LoadScript:
; File C:\IAGOS\server\v18\Source\Source\_Common\spevent.cpp

; 216  : 						if( nLang == ::GetLanguage() )

  00420	e8 00 00 00 00	 call	 ?GetLanguage@@YAHXZ	; GetLanguage
  00425	39 85 e8 f1 ff
	ff		 cmp	 DWORD PTR _nLang$1$[ebp], eax
  0042b	0f 85 e1 00 00
	00		 jne	 $LN185@LoadScript
; File C:\Program Files\Microsoft Visual Studio\2022\Professional\VC\Tools\MSVC\14.44.35207\atlmfc\include\atlsimpstr.h

; 886  : 		IAtlStringMgr* pNewStringMgr = pData->pStringMgr->Clone();

  00431	8b 4e f0	 mov	 ecx, DWORD PTR [esi-16]
  00434	8b 01		 mov	 eax, DWORD PTR [ecx]
  00436	ff 50 10	 call	 DWORD PTR [eax+16]

; 73   : 		return nRefs < 0;

  00439	83 7e fc 00	 cmp	 DWORD PTR [esi-4], 0

; 886  : 		IAtlStringMgr* pNewStringMgr = pData->pStringMgr->Clone();

  0043d	8b c8		 mov	 ecx, eax

; 73   : 		return nRefs < 0;

  0043f	8d 46 fc	 lea	 eax, DWORD PTR [esi-4]

; 887  : 		if( !pData->IsLocked() && (pNewStringMgr == pData->pStringMgr) )

  00442	7c 10		 jl	 SHORT $LN160@LoadScript
  00444	3b 4e f0	 cmp	 ecx, DWORD PTR [esi-16]
  00447	75 0b		 jne	 SHORT $LN160@LoadScript

; 888  : 		{
; 889  : 			pNewData = pData;

  00449	8d 7e f0	 lea	 edi, DWORD PTR [esi-16]

; 69   : 		_InterlockedIncrement(&nRefs);

  0044c	f0 ff 00	 lock	  inc	 DWORD PTR [eax]

; 891  : 		}

  0044f	e9 95 00 00 00	 jmp	 $LN174@LoadScript
$LN160@LoadScript:

; 892  : 		else
; 893  : 		{
; 894  : 			pNewData = pNewStringMgr->Allocate( pData->nDataLength, sizeof( XCHAR ) );

  00454	8b 01		 mov	 eax, DWORD PTR [ecx]
  00456	6a 01		 push	 1
  00458	ff 76 f4	 push	 DWORD PTR [esi-12]
  0045b	ff 10		 call	 DWORD PTR [eax]
  0045d	8b f8		 mov	 edi, eax

; 895  : 			if( pNewData == NULL )

  0045f	85 ff		 test	 edi, edi
  00461	0f 84 65 03 00
	00		 je	 $LN369@LoadScript

; 898  : 			}
; 899  : 			pNewData->nDataLength = pData->nDataLength;

  00467	8b 4e f4	 mov	 ecx, DWORD PTR [esi-12]

; 900  : 			memcpy_s( PXSTR( pNewData->data() ), (pNewData->nDataLength+1) * sizeof( XCHAR ),

  0046a	8b d6		 mov	 edx, esi
  0046c	89 4f 04	 mov	 DWORD PTR [edi+4], ecx
  0046f	8b 46 f4	 mov	 eax, DWORD PTR [esi-12]
  00472	83 c0 01	 add	 eax, 1
  00475	89 95 f8 f1 ff
	ff		 mov	 DWORD PTR __Source$1$[ebp], edx
  0047b	8d 59 01	 lea	 ebx, DWORD PTR [ecx+1]
  0047e	89 85 f4 f1 ff
	ff		 mov	 DWORD PTR __SourceSize$1$[ebp], eax
  00484	8d 4f 10	 lea	 ecx, DWORD PTR [edi+16]
; File C:\Program Files (x86)\Windows Kits\10\Include\10.0.26100.0\ucrt\corecrt_memcpy_s.h

; 47   :         if (_SourceSize == 0)

  00487	74 60		 je	 SHORT $LN174@LoadScript

; 48   :         {
; 49   :             return 0;
; 50   :         }
; 51   : 
; 52   :         _CRT_MEMCPY_S_VALIDATE_RETURN_ERRCODE(_Destination != NULL, EINVAL);

  00489	85 c9		 test	 ecx, ecx
  0048b	75 0d		 jne	 SHORT $LN170@LoadScript
  0048d	e8 00 00 00 00	 call	 __errno
  00492	c7 00 16 00 00
	00		 mov	 DWORD PTR [eax], 22	; 00000016H
  00498	eb 4a		 jmp	 SHORT $LN427@LoadScript
$LN170@LoadScript:

; 53   :         if (_Source == NULL || _DestinationSize < _SourceSize)

  0049a	85 d2		 test	 edx, edx
  0049c	74 11		 je	 SHORT $LN172@LoadScript
  0049e	3b d8		 cmp	 ebx, eax
  004a0	72 0d		 jb	 SHORT $LN172@LoadScript

; 59   : 
; 60   :             // Unreachable, but required to suppress /analyze warnings:
; 61   :             return EINVAL;
; 62   :         }
; 63   :         memcpy(_Destination, _Source, _SourceSize);

  004a2	50		 push	 eax
  004a3	52		 push	 edx
  004a4	51		 push	 ecx
  004a5	e8 00 00 00 00	 call	 _memcpy
  004aa	83 c4 0c	 add	 esp, 12			; 0000000cH
  004ad	eb 3a		 jmp	 SHORT $LN174@LoadScript
$LN172@LoadScript:

; 54   :         {
; 55   :             memset(_Destination, 0, _DestinationSize);

  004af	53		 push	 ebx
  004b0	6a 00		 push	 0
  004b2	51		 push	 ecx
  004b3	e8 00 00 00 00	 call	 _memset
  004b8	83 c4 0c	 add	 esp, 12			; 0000000cH

; 56   : 
; 57   :             _CRT_MEMCPY_S_VALIDATE_RETURN_ERRCODE(_Source != NULL,                 EINVAL);

  004bb	83 bd f8 f1 ff
	ff 00		 cmp	 DWORD PTR __Source$1$[ebp], 0
  004c2	75 0d		 jne	 SHORT $LN173@LoadScript
  004c4	e8 00 00 00 00	 call	 __errno
  004c9	c7 00 16 00 00
	00		 mov	 DWORD PTR [eax], 22	; 00000016H
  004cf	eb 13		 jmp	 SHORT $LN427@LoadScript
$LN173@LoadScript:

; 58   :             _CRT_MEMCPY_S_VALIDATE_RETURN_ERRCODE(_DestinationSize >= _SourceSize, ERANGE);

  004d1	3b 9d f4 f1 ff
	ff		 cmp	 ebx, DWORD PTR __SourceSize$1$[ebp]
  004d7	73 10		 jae	 SHORT $LN174@LoadScript
  004d9	e8 00 00 00 00	 call	 __errno
  004de	c7 00 22 00 00
	00		 mov	 DWORD PTR [eax], 34	; 00000022H
$LN427@LoadScript:
; File C:\Program Files\Microsoft Visual Studio\2022\Professional\VC\Tools\MSVC\14.44.35207\atlmfc\include\atlsimpstr.h

; 218  : 		Attach( pNewData );

  004e4	e8 00 00 00 00	 call	 __invalid_parameter_noinfo
$LN174@LoadScript:
  004e9	8d 47 10	 lea	 eax, DWORD PTR [edi+16]
; File C:\IAGOS\server\v18\Source\Source\_Common\spevent.cpp

; 221  : 							lstrcpy( pEvent->pszTitle, (LPCSTR)str );

  004ec	50		 push	 eax
  004ed	8b 85 ec f1 ff
	ff		 mov	 eax, DWORD PTR $T3[ebp]
  004f3	83 c0 18	 add	 eax, 24			; 00000018H
  004f6	50		 push	 eax
  004f7	ff 15 00 00 00
	00		 call	 DWORD PTR __imp__lstrcpyA@8
; File C:\Program Files\Microsoft Visual Studio\2022\Professional\VC\Tools\MSVC\14.44.35207\atlmfc\include\atlsimpstr.h

; 92   : 		if( _InterlockedDecrement( &nRefs ) <= 0 )

  004fd	83 c8 ff	 or	 eax, -1
  00500	f0 0f c1 47 0c	 lock	  xadd	 DWORD PTR [edi+12], eax
  00505	48		 dec	 eax
  00506	85 c0		 test	 eax, eax
  00508	7f 08		 jg	 SHORT $LN185@LoadScript

; 93   : 		{
; 94   : 			pStringMgr->Free( this );

  0050a	8b 0f		 mov	 ecx, DWORD PTR [edi]
  0050c	57		 push	 edi
  0050d	8b 01		 mov	 eax, DWORD PTR [ecx]
  0050f	ff 50 04	 call	 DWORD PTR [eax+4]
$LN185@LoadScript:
; File C:\IAGOS\server\v18\Source\Source\_Common\spevent.cpp

; 223  : 						nLang	= s.GetNumber();

  00512	6a 00		 push	 0
  00514	8d 8d 08 f2 ff
	ff		 lea	 ecx, DWORD PTR _s$[ebp]
  0051a	e8 00 00 00 00	 call	 ?GetNumber@CScanner@@QAEHH@Z ; CScanner::GetNumber
  0051f	89 85 e8 f1 ff
	ff		 mov	 DWORD PTR _nLang$1$[ebp], eax
; File C:\Program Files\Microsoft Visual Studio\2022\Professional\VC\Tools\MSVC\14.44.35207\atlmfc\include\atlsimpstr.h

; 804  : 		return( reinterpret_cast< CStringData* >( m_pszData )-1 );

  00525	83 c6 f0	 add	 esi, -16		; fffffff0H
; File C:\IAGOS\server\v18\Source\Source\_Common\spevent.cpp

; 224  : 					}

  00528	c6 45 fc 00	 mov	 BYTE PTR __$EHRec$[ebp+8], 0
; File C:\Program Files\Microsoft Visual Studio\2022\Professional\VC\Tools\MSVC\14.44.35207\atlmfc\include\atlsimpstr.h

; 92   : 		if( _InterlockedDecrement( &nRefs ) <= 0 )

  0052c	83 c8 ff	 or	 eax, -1
  0052f	f0 0f c1 46 0c	 lock	  xadd	 DWORD PTR [esi+12], eax
  00534	48		 dec	 eax
  00535	85 c0		 test	 eax, eax
  00537	7f 08		 jg	 SHORT $LN150@LoadScript

; 93   : 		{
; 94   : 			pStringMgr->Free( this );

  00539	8b 0e		 mov	 ecx, DWORD PTR [esi]
  0053b	56		 push	 esi
  0053c	8b 01		 mov	 eax, DWORD PTR [ecx]
  0053e	ff 50 04	 call	 DWORD PTR [eax+4]
$LN150@LoadScript:
; File C:\IAGOS\server\v18\Source\Source\_Common\spevent.cpp

; 211  : 					while( *s.token != '}' )

  00541	8b 85 44 f2 ff
	ff		 mov	 eax, DWORD PTR _s$[ebp+60]
  00547	80 38 7d	 cmp	 BYTE PTR [eax], 125	; 0000007dH
  0054a	0f 85 a0 fc ff
	ff		 jne	 $LL6@LoadScript

; 225  : 				}

  00550	e9 9c 00 00 00	 jmp	 $LN423@LoadScript
$LN208@LoadScript:
; File C:\Program Files\Microsoft Visual Studio\2022\Professional\VC\Tools\MSVC\14.44.35207\atlmfc\include\cstringt.h

; 184  : 		return _mbscmp( reinterpret_cast< const unsigned char* >( pszA ), reinterpret_cast< const unsigned char* >( pszB ) );

  00555	68 00 00 00 00	 push	 OFFSET ??_C@_04OKOFBOPB@Time@
  0055a	ff b5 28 f2 ff
	ff		 push	 DWORD PTR _s$[ebp+32]
  00560	e8 00 00 00 00	 call	 __mbscmp
  00565	83 c4 08	 add	 esp, 8

; 2490 : 		return(str1.Compare(psz2) == 0);

  00568	85 c0		 test	 eax, eax
; File C:\IAGOS\server\v18\Source\Source\_Common\spevent.cpp

; 227  : 				else if( s.Token == _T( "Time" ) )

  0056a	0f 85 a8 00 00
	00		 jne	 $LN224@LoadScript

; 228  : 				{
; 229  : #ifdef __DBSERVER
; 230  : 					s.GetToken();	// {
; 231  : 					int nYear	= s.GetNumber();
; 232  : 					int nMonth	= s.GetNumber();
; 233  : 					int nDay	= s.GetNumber();
; 234  : 					int nHour	= s.GetNumber();
; 235  : 					CTime t	= CTime( nYear, nMonth, nDay, nHour, 0, 0 );
; 236  : 					pEvent->tStart	= (time_t)( t.GetTime() );
; 237  : 					nYear	= s.GetNumber();
; 238  : 					nMonth	= s.GetNumber();
; 239  : 					nDay	= s.GetNumber();
; 240  : 					nHour	= s.GetNumber();
; 241  : 					t	= CTime( nYear, nMonth, nDay, nHour, 0, 0 );
; 242  : 					pEvent->tEnd	= (time_t)( t.GetTime() );
; 243  : 					s.GetToken();	// }
; 244  : #else	// __DBSERVER
; 245  : 					s.GetToken();

  00570	50		 push	 eax
  00571	8d 8d 08 f2 ff
	ff		 lea	 ecx, DWORD PTR _s$[ebp]
  00577	e8 00 00 00 00	 call	 ?GetToken@CScript@@UAEHH@Z ; CScript::GetToken

; 246  : 					s.GetToken();

  0057c	6a 00		 push	 0
  0057e	8d 8d 08 f2 ff
	ff		 lea	 ecx, DWORD PTR _s$[ebp]
  00584	e8 00 00 00 00	 call	 ?GetToken@CScript@@UAEHH@Z ; CScript::GetToken

; 247  : 					s.GetToken();

  00589	6a 00		 push	 0
  0058b	8d 8d 08 f2 ff
	ff		 lea	 ecx, DWORD PTR _s$[ebp]
  00591	e8 00 00 00 00	 call	 ?GetToken@CScript@@UAEHH@Z ; CScript::GetToken

; 248  : 					s.GetToken();

  00596	6a 00		 push	 0
  00598	8d 8d 08 f2 ff
	ff		 lea	 ecx, DWORD PTR _s$[ebp]
  0059e	e8 00 00 00 00	 call	 ?GetToken@CScript@@UAEHH@Z ; CScript::GetToken

; 249  : 					s.GetToken();

  005a3	6a 00		 push	 0
  005a5	8d 8d 08 f2 ff
	ff		 lea	 ecx, DWORD PTR _s$[ebp]
  005ab	e8 00 00 00 00	 call	 ?GetToken@CScript@@UAEHH@Z ; CScript::GetToken

; 250  : 					s.GetToken();

  005b0	6a 00		 push	 0
  005b2	8d 8d 08 f2 ff
	ff		 lea	 ecx, DWORD PTR _s$[ebp]
  005b8	e8 00 00 00 00	 call	 ?GetToken@CScript@@UAEHH@Z ; CScript::GetToken

; 251  : 					s.GetToken();

  005bd	6a 00		 push	 0
  005bf	8d 8d 08 f2 ff
	ff		 lea	 ecx, DWORD PTR _s$[ebp]
  005c5	e8 00 00 00 00	 call	 ?GetToken@CScript@@UAEHH@Z ; CScript::GetToken

; 252  : 					s.GetToken();

  005ca	6a 00		 push	 0
  005cc	8d 8d 08 f2 ff
	ff		 lea	 ecx, DWORD PTR _s$[ebp]
  005d2	e8 00 00 00 00	 call	 ?GetToken@CScript@@UAEHH@Z ; CScript::GetToken

; 253  : 					s.GetToken();

  005d7	6a 00		 push	 0
  005d9	8d 8d 08 f2 ff
	ff		 lea	 ecx, DWORD PTR _s$[ebp]
  005df	e8 00 00 00 00	 call	 ?GetToken@CScript@@UAEHH@Z ; CScript::GetToken
$LN407@LoadScript:

; 316  : #else	// __WORLDSERVER
; 317  : 					s.GetToken();
; 318  : 					s.GetToken();
; 319  : 					s.GetToken();
; 320  : 					s.GetToken();
; 321  : 					s.GetToken();
; 322  : 					s.GetToken();
; 323  : #endif	// __WORLDSERVER
; 324  : 				}
; 325  : 				s.GetToken();

  005e4	6a 00		 push	 0
  005e6	8d 8d 08 f2 ff
	ff		 lea	 ecx, DWORD PTR _s$[ebp]
  005ec	e8 00 00 00 00	 call	 ?GetToken@CScript@@UAEHH@Z ; CScript::GetToken
$LN423@LoadScript:
  005f1	8b bd 04 f2 ff
	ff		 mov	 edi, DWORD PTR _this$GSCopy$1$[ebp]
$LN23@LoadScript:
  005f7	6a 00		 push	 0
  005f9	8d 8d 08 f2 ff
	ff		 lea	 ecx, DWORD PTR _s$[ebp]
  005ff	e8 00 00 00 00	 call	 ?GetToken@CScript@@UAEHH@Z ; CScript::GetToken
  00604	8b 85 44 f2 ff
	ff		 mov	 eax, DWORD PTR _s$[ebp+60]
  0060a	80 38 7d	 cmp	 BYTE PTR [eax], 125	; 0000007dH
  0060d	0f 85 8d fb ff
	ff		 jne	 $LL4@LoadScript

; 205  : 			while( *s.token != '}' )

  00613	e9 56 01 00 00	 jmp	 $LN419@LoadScript
$LN224@LoadScript:
; File C:\Program Files\Microsoft Visual Studio\2022\Professional\VC\Tools\MSVC\14.44.35207\atlmfc\include\cstringt.h

; 184  : 		return _mbscmp( reinterpret_cast< const unsigned char* >( pszA ), reinterpret_cast< const unsigned char* >( pszB ) );

  00618	68 00 00 00 00	 push	 OFFSET ??_C@_04BGCMBJDA@Item@
  0061d	ff b5 28 f2 ff
	ff		 push	 DWORD PTR _s$[ebp+32]
  00623	e8 00 00 00 00	 call	 __mbscmp
  00628	83 c4 08	 add	 esp, 8

; 2490 : 		return(str1.Compare(psz2) == 0);

  0062b	85 c0		 test	 eax, eax
; File C:\IAGOS\server\v18\Source\Source\_Common\spevent.cpp

; 257  : 				else if( s.Token == _T( "Item" ) )

  0062d	75 5b		 jne	 SHORT $LN256@LoadScript

; 258  : 				{
; 259  : #ifdef __DBSERVER
; 260  : 					s.GetToken();	// {
; 261  : 					DWORD dwItemId	= s.GetNumber();
; 262  : 					while( *s.token != '}' )
; 263  : 					{
; 264  : 						if( dwItemId == 0 )
; 265  : 						{
; 266  : 							//
; 267  : 						}
; 268  : 						int nMax	= s.GetNumber();
; 269  : 						int nNum	= s.GetNumber();
; 270  : 						if( FALSE == AddItem( pEvent->nId, dwItemId, nMax, nNum ) )
; 271  : 						{
; 272  : 							//
; 273  : 						}
; 274  : 						dwItemId	= s.GetNumber();
; 275  : 					}
; 276  : #else	// __DBSERVER
; 277  : 					s.GetToken();

  0062f	50		 push	 eax
  00630	8d 8d 08 f2 ff
	ff		 lea	 ecx, DWORD PTR _s$[ebp]
  00636	e8 00 00 00 00	 call	 ?GetToken@CScript@@UAEHH@Z ; CScript::GetToken

; 278  : 					s.GetToken();

  0063b	6a 00		 push	 0
  0063d	8d 8d 08 f2 ff
	ff		 lea	 ecx, DWORD PTR _s$[ebp]
  00643	e8 00 00 00 00	 call	 ?GetToken@CScript@@UAEHH@Z ; CScript::GetToken

; 279  : 					while( *s.token != '}' )

  00648	8b 85 44 f2 ff
	ff		 mov	 eax, DWORD PTR _s$[ebp+60]
  0064e	80 38 7d	 cmp	 BYTE PTR [eax], 125	; 0000007dH
  00651	74 9e		 je	 SHORT $LN423@LoadScript
$LL8@LoadScript:

; 280  : 					{
; 281  : 						s.GetToken();

  00653	6a 00		 push	 0
  00655	8d 8d 08 f2 ff
	ff		 lea	 ecx, DWORD PTR _s$[ebp]
  0065b	e8 00 00 00 00	 call	 ?GetToken@CScript@@UAEHH@Z ; CScript::GetToken

; 282  : 						s.GetToken();

  00660	6a 00		 push	 0
  00662	8d 8d 08 f2 ff
	ff		 lea	 ecx, DWORD PTR _s$[ebp]
  00668	e8 00 00 00 00	 call	 ?GetToken@CScript@@UAEHH@Z ; CScript::GetToken

; 283  : 						s.GetToken();

  0066d	6a 00		 push	 0
  0066f	8d 8d 08 f2 ff
	ff		 lea	 ecx, DWORD PTR _s$[ebp]
  00675	e8 00 00 00 00	 call	 ?GetToken@CScript@@UAEHH@Z ; CScript::GetToken
  0067a	8b 85 44 f2 ff
	ff		 mov	 eax, DWORD PTR _s$[ebp+60]
  00680	80 38 7d	 cmp	 BYTE PTR [eax], 125	; 0000007dH
  00683	75 ce		 jne	 SHORT $LL8@LoadScript

; 284  : 					}
; 285  : #endif	// __DBSERVER
; 286  : 				}

  00685	e9 67 ff ff ff	 jmp	 $LN423@LoadScript
$LN256@LoadScript:
; File C:\Program Files\Microsoft Visual Studio\2022\Professional\VC\Tools\MSVC\14.44.35207\atlmfc\include\cstringt.h

; 184  : 		return _mbscmp( reinterpret_cast< const unsigned char* >( pszA ), reinterpret_cast< const unsigned char* >( pszB ) );

  0068a	68 00 00 00 00	 push	 OFFSET ??_C@_0L@DDJPBPFC@fExpFactor@
  0068f	ff b5 28 f2 ff
	ff		 push	 DWORD PTR _s$[ebp+32]
  00695	e8 00 00 00 00	 call	 __mbscmp
  0069a	83 c4 08	 add	 esp, 8

; 2490 : 		return(str1.Compare(psz2) == 0);

  0069d	85 c0		 test	 eax, eax
; File C:\IAGOS\server\v18\Source\Source\_Common\spevent.cpp

; 287  : 				else if( s.Token == _T( "fExpFactor" ) )

  0069f	0f 84 3f ff ff
	ff		 je	 $LN407@LoadScript
; File C:\Program Files\Microsoft Visual Studio\2022\Professional\VC\Tools\MSVC\14.44.35207\atlmfc\include\cstringt.h

; 184  : 		return _mbscmp( reinterpret_cast< const unsigned char* >( pszA ), reinterpret_cast< const unsigned char* >( pszB ) );

  006a5	68 00 00 00 00	 push	 OFFSET ??_C@_0O@NDHJHAFN@fItemDropRate@
  006aa	ff b5 28 f2 ff
	ff		 push	 DWORD PTR _s$[ebp+32]
  006b0	e8 00 00 00 00	 call	 __mbscmp
  006b5	83 c4 08	 add	 esp, 8

; 2490 : 		return(str1.Compare(psz2) == 0);

  006b8	85 c0		 test	 eax, eax
; File C:\IAGOS\server\v18\Source\Source\_Common\spevent.cpp

; 296  : 				else if( s.Token == _T( "fItemDropRate" ) )

  006ba	0f 84 24 ff ff
	ff		 je	 $LN407@LoadScript
; File C:\Program Files\Microsoft Visual Studio\2022\Professional\VC\Tools\MSVC\14.44.35207\atlmfc\include\cstringt.h

; 184  : 		return _mbscmp( reinterpret_cast< const unsigned char* >( pszA ), reinterpret_cast< const unsigned char* >( pszB ) );

  006c0	68 00 00 00 00	 push	 OFFSET ??_C@_05BEKPGMFA@Spawn@
  006c5	ff b5 28 f2 ff
	ff		 push	 DWORD PTR _s$[ebp+32]
  006cb	e8 00 00 00 00	 call	 __mbscmp
  006d0	83 c4 08	 add	 esp, 8

; 2490 : 		return(str1.Compare(psz2) == 0);

  006d3	85 c0		 test	 eax, eax
; File C:\IAGOS\server\v18\Source\Source\_Common\spevent.cpp

; 305  : 				else if( s.Token == _T( "Spawn" ) )

  006d5	0f 85 16 ff ff
	ff		 jne	 $LN423@LoadScript

; 306  : 				{
; 307  : #if defined(__WORLDSERVER ) && defined(__EVENT_0117)
; 308  : 					s.GetToken();	// {

  006db	50		 push	 eax
  006dc	8d 8d 08 f2 ff
	ff		 lea	 ecx, DWORD PTR _s$[ebp]
  006e2	e8 00 00 00 00	 call	 ?GetToken@CScript@@UAEHH@Z ; CScript::GetToken

; 309  : 					DWORD dwType	= s.GetNumber();

  006e7	6a 00		 push	 0
  006e9	8d 8d 08 f2 ff
	ff		 lea	 ecx, DWORD PTR _s$[ebp]
  006ef	e8 00 00 00 00	 call	 ?GetNumber@CScanner@@QAEHH@Z ; CScanner::GetNumber

; 310  : 					DWORD dwIndex	= s.GetNumber();

  006f4	6a 00		 push	 0
  006f6	8d 8d 08 f2 ff
	ff		 lea	 ecx, DWORD PTR _s$[ebp]
  006fc	8b d8		 mov	 ebx, eax
  006fe	e8 00 00 00 00	 call	 ?GetNumber@CScanner@@QAEHH@Z ; CScanner::GetNumber

; 311  : 					int nMax	= s.GetNumber();

  00703	6a 00		 push	 0
  00705	8d 8d 08 f2 ff
	ff		 lea	 ecx, DWORD PTR _s$[ebp]
  0070b	8b f8		 mov	 edi, eax
  0070d	e8 00 00 00 00	 call	 ?GetNumber@CScanner@@QAEHH@Z ; CScanner::GetNumber

; 312  : 					float fRatio	= s.GetFloat();

  00712	6a 00		 push	 0
  00714	8d 8d 08 f2 ff
	ff		 lea	 ecx, DWORD PTR _s$[ebp]
  0071a	8b f0		 mov	 esi, eax
  0071c	e8 00 00 00 00	 call	 ?GetFloat@CScanner@@QAEMH@Z ; CScanner::GetFloat

; 313  : 					DWORD dwInterval	= 86400000 / nMax;	// 86400000	= 1ŔĎ

  00721	b8 00 5c 26 05	 mov	 eax, 86400000		; 05265c00H
  00726	99		 cdq
  00727	f7 fe		 idiv	 esi
  00729	d9 9d f8 f1 ff
	ff		 fstp	 DWORD PTR _fRatio$5[ebp]

; 314  : 					AddSpawn( pEvent->nId, dwType, dwIndex, nMax, fRatio, dwInterval );

  0072f	f3 0f 10 85 f8
	f1 ff ff	 movss	 xmm0, DWORD PTR _fRatio$5[ebp]
  00737	50		 push	 eax
  00738	8b 85 ec f1 ff
	ff		 mov	 eax, DWORD PTR $T3[ebp]
  0073e	51		 push	 ecx
  0073f	f3 0f 11 04 24	 movss	 DWORD PTR [esp], xmm0
  00744	56		 push	 esi
  00745	57		 push	 edi
  00746	8b bd 04 f2 ff
	ff		 mov	 edi, DWORD PTR _this$GSCopy$1$[ebp]
  0074c	8b cf		 mov	 ecx, edi
  0074e	53		 push	 ebx
  0074f	ff 30		 push	 DWORD PTR [eax]
  00751	e8 00 00 00 00	 call	 ?AddSpawn@CEventGeneric@@QAEXHKKHMK@Z ; CEventGeneric::AddSpawn

; 315  : 					s.GetToken();	// }

  00756	6a 00		 push	 0
  00758	8d 8d 08 f2 ff
	ff		 lea	 ecx, DWORD PTR _s$[ebp]
  0075e	e8 00 00 00 00	 call	 ?GetToken@CScript@@UAEHH@Z ; CScript::GetToken
  00763	e9 8f fe ff ff	 jmp	 $LN23@LoadScript
$LN420@LoadScript:

; 205  : 			while( *s.token != '}' )

  00768	8b bd 04 f2 ff
	ff		 mov	 edi, DWORD PTR _this$GSCopy$1$[ebp]
$LN419@LoadScript:

; 326  : 			}
; 327  : 		}
; 328  : 		s.GetToken();

  0076e	6a 00		 push	 0
  00770	8d 8d 08 f2 ff
	ff		 lea	 ecx, DWORD PTR _s$[ebp]
  00776	e8 00 00 00 00	 call	 ?GetToken@CScript@@UAEHH@Z ; CScript::GetToken
  0077b	83 bd 4c fa ff
	ff 15		 cmp	 DWORD PTR _s$[ebp+2116], 21 ; 00000015H
  00782	0f 85 08 f9 ff
	ff		 jne	 $LL2@LoadScript
$LN388@LoadScript:

; 329  : 	}
; 330  : 	return TRUE;

  00788	be 01 00 00 00	 mov	 esi, 1
$LN31@LoadScript:
  0078d	8d 8d 08 f2 ff
	ff		 lea	 ecx, DWORD PTR _s$[ebp]
  00793	e8 00 00 00 00	 call	 ??1CScript@@UAE@XZ	; CScript::~CScript
  00798	8b c6		 mov	 eax, esi

; 331  : }

  0079a	8b 4d f4	 mov	 ecx, DWORD PTR __$EHRec$[ebp]
  0079d	64 89 0d 00 00
	00 00		 mov	 DWORD PTR fs:0, ecx
  007a4	59		 pop	 ecx
  007a5	5f		 pop	 edi
  007a6	5e		 pop	 esi
  007a7	5b		 pop	 ebx
  007a8	8b 4d f0	 mov	 ecx, DWORD PTR __$ArrayPad$[ebp]
  007ab	33 cd		 xor	 ecx, ebp
  007ad	e8 00 00 00 00	 call	 @__security_check_cookie@4
  007b2	8b e5		 mov	 esp, ebp
  007b4	5d		 pop	 ebp
  007b5	c2 04 00	 ret	 4
$LN377@LoadScript:
; File C:\Program Files\Microsoft Visual Studio\2022\Professional\VC\Tools\MSVC\14.44.35207\include\list

; 1031 :             _Xlength_error("list too long");

  007b8	68 00 00 00 00	 push	 OFFSET ??_C@_0O@NKNMEGII@list?5too?5long@
  007bd	e8 00 00 00 00	 call	 ?_Xlength_error@std@@YAXPBD@Z ; std::_Xlength_error
$LN367@LoadScript:
; File C:\Program Files\Microsoft Visual Studio\2022\Professional\VC\Tools\MSVC\14.44.35207\atlmfc\include\atlsimpstr.h

; 809  : 			AtlThrow(E_INVALIDARG);

  007c2	68 57 00 07 80	 push	 -2147024809		; 80070057H
  007c7	e8 00 00 00 00	 call	 ?AtlThrowImpl@ATL@@YGXJ@Z ; ATL::AtlThrowImpl
$LN369@LoadScript:

; 897  : 				ThrowMemoryException();

  007cc	e8 00 00 00 00	 call	 ?ThrowMemoryException@?$CSimpleStringT@D$0A@@ATL@@KAXXZ ; ATL::CSimpleStringT<char,0>::ThrowMemoryException
$LN366@LoadScript:

; 209  : 		ATLENSURE( pStringMgr != NULL );

  007d1	68 05 40 00 80	 push	 -2147467259		; 80004005H
  007d6	e8 00 00 00 00	 call	 ?AtlThrowImpl@ATL@@YGXJ@Z ; ATL::AtlThrowImpl
$LN425@LoadScript:
  007db	cc		 int	 3
_TEXT	ENDS
;	COMDAT text$x
text$x	SEGMENT
__unwindfunclet$?LoadScript@CEventGeneric@@QAEHPBD@Z$0:
  00000	8d 8d 08 f2 ff
	ff		 lea	 ecx, DWORD PTR _s$[ebp]
  00006	e9 00 00 00 00	 jmp	 ??1CScript@@UAE@XZ	; CScript::~CScript
__unwindfunclet$?LoadScript@CEventGeneric@@QAEHPBD@Z$7:
  0000b	8d 8d e0 f1 ff
	ff		 lea	 ecx, DWORD PTR __Op$2[ebp]
  00011	e9 00 00 00 00	 jmp	 ??1?$_Alloc_construct_ptr@V?$allocator@U?$_List_node@PAU_EVENT_GENERIC@@PAX@std@@@std@@@std@@QAE@XZ ; std::_Alloc_construct_ptr<std::allocator<std::_List_node<_EVENT_GENERIC *,void *> > >::~_Alloc_construct_ptr<std::allocator<std::_List_node<_EVENT_GENERIC *,void *> > >
__unwindfunclet$?LoadScript@CEventGeneric@@QAEHPBD@Z$4:
  00016	8d 8d 00 f2 ff
	ff		 lea	 ecx, DWORD PTR _token$6[ebp]
  0001c	e9 00 00 00 00	 jmp	 ??1?$CSimpleStringT@D$0A@@ATL@@QAE@XZ ; ATL::CSimpleStringT<char,0>::~CSimpleStringT<char,0>
__unwindfunclet$?LoadScript@CEventGeneric@@QAEHPBD@Z$2:
  00021	8d 8d 00 f2 ff
	ff		 lea	 ecx, DWORD PTR _token$6[ebp]
  00027	e9 00 00 00 00	 jmp	 ??1?$CStringT@DV?$StrTraitMFC@DV?$ChTraitsCRT@D@ATL@@@@@ATL@@QAE@XZ ; ATL::CStringT<char,StrTraitMFC<char,ATL::ChTraitsCRT<char> > >::~CStringT<char,StrTraitMFC<char,ATL::ChTraitsCRT<char> > >
  0002c	cc		 int	 3
  0002d	cc		 int	 3
  0002e	cc		 int	 3
  0002f	cc		 int	 3
  00030	cc		 int	 3
__ehhandler$?LoadScript@CEventGeneric@@QAEHPBD@Z:
  00031	90		 npad	 1
  00032	90		 npad	 1
  00033	8b 54 24 08	 mov	 edx, DWORD PTR [esp+8]
  00037	8d 42 0c	 lea	 eax, DWORD PTR [edx+12]
  0003a	8b 8a dc f1 ff
	ff		 mov	 ecx, DWORD PTR [edx-3620]
  00040	33 c8		 xor	 ecx, eax
  00042	e8 00 00 00 00	 call	 @__security_check_cookie@4
  00047	8b 4a fc	 mov	 ecx, DWORD PTR [edx-4]
  0004a	33 c8		 xor	 ecx, eax
  0004c	e8 00 00 00 00	 call	 @__security_check_cookie@4
  00051	b8 00 00 00 00	 mov	 eax, OFFSET __ehfuncinfo$?LoadScript@CEventGeneric@@QAEHPBD@Z
  00056	e9 00 00 00 00	 jmp	 ___CxxFrameHandler3
text$x	ENDS
?LoadScript@CEventGeneric@@QAEHPBD@Z ENDP		; CEventGeneric::LoadScript
; Function compile flags: /Ogtp
; File C:\IAGOS\server\v18\Source\Source\_Common\spevent.cpp
; File C:\Program Files\Microsoft Visual Studio\2022\Professional\VC\Tools\MSVC\14.44.35207\include\list
; File C:\IAGOS\server\v18\Source\Source\_Common\spevent.cpp
; File C:\Program Files\Microsoft Visual Studio\2022\Professional\VC\Tools\MSVC\14.44.35207\include\list
; File C:\IAGOS\server\v18\Source\Source\_Common\spevent.cpp
; File C:\Program Files\Microsoft Visual Studio\2022\Professional\VC\Tools\MSVC\14.44.35207\include\list
; File C:\IAGOS\server\v18\Source\Source\_Common\spevent.cpp
; File C:\Program Files\Microsoft Visual Studio\2022\Professional\VC\Tools\MSVC\14.44.35207\include\list
; File C:\Program Files\Microsoft Visual Studio\2022\Professional\VC\Tools\MSVC\14.44.35207\include\xmemory
; File C:\Program Files\Microsoft Visual Studio\2022\Professional\VC\Tools\MSVC\14.44.35207\include\list
; File C:\Program Files\Microsoft Visual Studio\2022\Professional\VC\Tools\MSVC\14.44.35207\include\xtree
; File C:\IAGOS\server\v18\Source\Source\_Common\spevent.cpp
; File C:\Program Files\Microsoft Visual Studio\2022\Professional\VC\Tools\MSVC\14.44.35207\include\list
; File C:\IAGOS\server\v18\Source\Source\_Common\spevent.cpp
; File C:\Program Files\Microsoft Visual Studio\2022\Professional\VC\Tools\MSVC\14.44.35207\include\list
; File C:\IAGOS\server\v18\Source\Source\_Common\spevent.cpp
; File C:\Program Files\Microsoft Visual Studio\2022\Professional\VC\Tools\MSVC\14.44.35207\include\list
; File C:\Program Files\Microsoft Visual Studio\2022\Professional\VC\Tools\MSVC\14.44.35207\include\xmemory
; File C:\Program Files\Microsoft Visual Studio\2022\Professional\VC\Tools\MSVC\14.44.35207\include\list
; File C:\Program Files\Microsoft Visual Studio\2022\Professional\VC\Tools\MSVC\14.44.35207\include\xmemory
; File C:\Program Files\Microsoft Visual Studio\2022\Professional\VC\Tools\MSVC\14.44.35207\include\list
; File C:\Program Files\Microsoft Visual Studio\2022\Professional\VC\Tools\MSVC\14.44.35207\include\xmemory
; File C:\Program Files\Microsoft Visual Studio\2022\Professional\VC\Tools\MSVC\14.44.35207\include\xtree
; File C:\IAGOS\server\v18\Source\Source\_Common\spevent.cpp
; File C:\Program Files\Microsoft Visual Studio\2022\Professional\VC\Tools\MSVC\14.44.35207\include\xtree
; File C:\Program Files\Microsoft Visual Studio\2022\Professional\VC\Tools\MSVC\14.44.35207\include\utility
; File C:\Program Files\Microsoft Visual Studio\2022\Professional\VC\Tools\MSVC\14.44.35207\include\xmemory
; File C:\Program Files\Microsoft Visual Studio\2022\Professional\VC\Tools\MSVC\14.44.35207\include\xtree
; File C:\IAGOS\server\v18\Source\Source\_Common\spevent.cpp
; File C:\Program Files\Microsoft Visual Studio\2022\Professional\VC\Tools\MSVC\14.44.35207\include\xtree
; File C:\IAGOS\server\v18\Source\Source\_Common\spevent.cpp
; File C:\Program Files\Microsoft Visual Studio\2022\Professional\VC\Tools\MSVC\14.44.35207\include\xtree
; File C:\IAGOS\server\v18\Source\Source\_Common\spevent.cpp
; File C:\Program Files\Microsoft Visual Studio\2022\Professional\VC\Tools\MSVC\14.44.35207\include\xtree
; File C:\IAGOS\server\v18\Source\Source\_Common\spevent.cpp
; File C:\Program Files\Microsoft Visual Studio\2022\Professional\VC\Tools\MSVC\14.44.35207\include\xtree
; File C:\Program Files\Microsoft Visual Studio\2022\Professional\VC\Tools\MSVC\14.44.35207\include\utility
; File C:\Program Files\Microsoft Visual Studio\2022\Professional\VC\Tools\MSVC\14.44.35207\include\xmemory
; File C:\Program Files\Microsoft Visual Studio\2022\Professional\VC\Tools\MSVC\14.44.35207\include\xtree
; File C:\IAGOS\server\v18\Source\Source\_Common\spevent.cpp
;	COMDAT ?Clear@CEventGeneric@@QAEXH@Z
_TEXT	SEGMENT
_this$1$ = -4						; size = 4
_bDestructor$ = 8					; size = 4
?Clear@CEventGeneric@@QAEXH@Z PROC			; CEventGeneric::Clear, COMDAT
; _this$ = ecx

; 160  : {

  00000	55		 push	 ebp
  00001	8b ec		 mov	 ebp, esp
  00003	51		 push	 ecx
  00004	53		 push	 ebx
  00005	8b d9		 mov	 ebx, ecx
  00007	56		 push	 esi
  00008	57		 push	 edi
  00009	89 5d fc	 mov	 DWORD PTR _this$1$[ebp], ebx
; File C:\Program Files\Microsoft Visual Studio\2022\Professional\VC\Tools\MSVC\14.44.35207\include\list

; 1105 :         return iterator(_Mypair._Myval2._Myhead->_Next, _STD addressof(_Mypair._Myval2));

  0000c	8b 53 08	 mov	 edx, DWORD PTR [ebx+8]

; 37   :     _List_unchecked_const_iterator(_Nodeptr _Pnode, const _Mylist* _Plist) noexcept : _Ptr(_Pnode) {

  0000f	8b 32		 mov	 esi, DWORD PTR [edx]

; 202  :         return !(*this == _Right);

  00011	3b f2		 cmp	 esi, edx
; File C:\IAGOS\server\v18\Source\Source\_Common\spevent.cpp

; 161  : 	for( list<EVENT_GENERIC*>::iterator i = m_lspEvent.begin(); i != m_lspEvent.end(); ++i )

  00013	74 18		 je	 SHORT $LN3@Clear
$LL4@Clear:

; 162  : 		safe_delete( *i );

  00015	6a 7c		 push	 124			; 0000007cH
  00017	ff 76 08	 push	 DWORD PTR [esi+8]
  0001a	e8 00 00 00 00	 call	 ??3@YAXPAXI@Z		; operator delete
; File C:\Program Files\Microsoft Visual Studio\2022\Professional\VC\Tools\MSVC\14.44.35207\include\list

; 164  :         this->_Ptr = this->_Ptr->_Next;

  0001f	8b 06		 mov	 eax, DWORD PTR [esi]
; File C:\IAGOS\server\v18\Source\Source\_Common\spevent.cpp

; 162  : 		safe_delete( *i );

  00021	83 c4 08	 add	 esp, 8
; File C:\Program Files\Microsoft Visual Studio\2022\Professional\VC\Tools\MSVC\14.44.35207\include\list

; 37   :     _List_unchecked_const_iterator(_Nodeptr _Pnode, const _Mylist* _Plist) noexcept : _Ptr(_Pnode) {

  00024	8b 53 08	 mov	 edx, DWORD PTR [ebx+8]

; 164  :         this->_Ptr = this->_Ptr->_Next;

  00027	8b f0		 mov	 esi, eax

; 202  :         return !(*this == _Right);

  00029	3b c2		 cmp	 eax, edx
; File C:\IAGOS\server\v18\Source\Source\_Common\spevent.cpp

; 161  : 	for( list<EVENT_GENERIC*>::iterator i = m_lspEvent.begin(); i != m_lspEvent.end(); ++i )

  0002b	75 e8		 jne	 SHORT $LL4@Clear
$LN3@Clear:
; File C:\Program Files\Microsoft Visual Studio\2022\Professional\VC\Tools\MSVC\14.44.35207\include\list

; 324  :         _Head->_Prev->_Next = nullptr;

  0002d	8b 42 04	 mov	 eax, DWORD PTR [edx+4]
  00030	c7 00 00 00 00
	00		 mov	 DWORD PTR [eax], 0

; 325  : 
; 326  :         auto _Pnode = _Head->_Next;

  00036	8b 02		 mov	 eax, DWORD PTR [edx]

; 327  :         for (_Nodeptr _Pnext; _Pnode; _Pnode = _Pnext) {

  00038	85 c0		 test	 eax, eax
  0003a	74 17		 je	 SHORT $LN443@Clear
  0003c	0f 1f 40 00	 npad	 4
$LL361@Clear:

; 328  :             _Pnext = _Pnode->_Next;

  00040	8b 30		 mov	 esi, DWORD PTR [eax]
; File C:\Program Files\Microsoft Visual Studio\2022\Professional\VC\Tools\MSVC\14.44.35207\include\xmemory

; 289  :         ::operator delete(_Ptr, _Bytes);

  00042	6a 0c		 push	 12			; 0000000cH
  00044	50		 push	 eax
  00045	e8 00 00 00 00	 call	 ??3@YAXPAXI@Z		; operator delete
  0004a	83 c4 08	 add	 esp, 8
; File C:\Program Files\Microsoft Visual Studio\2022\Professional\VC\Tools\MSVC\14.44.35207\include\list

; 327  :         for (_Nodeptr _Pnext; _Pnode; _Pnode = _Pnext) {

  0004d	8b c6		 mov	 eax, esi
  0004f	85 f6		 test	 esi, esi
  00051	75 ed		 jne	 SHORT $LL361@Clear
$LN443@Clear:

; 1508 :         _My_data._Myhead->_Next = _My_data._Myhead;

  00053	8b 43 08	 mov	 eax, DWORD PTR [ebx+8]
  00056	89 00		 mov	 DWORD PTR [eax], eax

; 1509 :         _My_data._Myhead->_Prev = _My_data._Myhead;

  00058	8b 43 08	 mov	 eax, DWORD PTR [ebx+8]
  0005b	89 40 04	 mov	 DWORD PTR [eax+4], eax

; 1510 :         _My_data._Mysize        = 0;

  0005e	c7 43 0c 00 00
	00 00		 mov	 DWORD PTR [ebx+12], 0
; File C:\Program Files\Microsoft Visual Studio\2022\Professional\VC\Tools\MSVC\14.44.35207\include\xtree

; 1142 :         return iterator(_Scary->_Myhead->_Left, _Scary);

  00065	83 c3 10	 add	 ebx, 16			; 00000010H
  00068	8b 3b		 mov	 edi, DWORD PTR [ebx]

; 37   :     _Tree_unchecked_const_iterator(_Nodeptr _Pnode, const _Mytree* _Plist) noexcept : _Ptr(_Pnode) {

  0006a	8b 37		 mov	 esi, DWORD PTR [edi]

; 237  :         return !(*this == _Right);

  0006c	3b f7		 cmp	 esi, edi
; File C:\IAGOS\server\v18\Source\Source\_Common\spevent.cpp

; 165  : 	for( map<int, list<CEventItem*>*>::iterator i2 = m_mapEventItemList.begin(); i2 != m_mapEventItemList.end(); ++i2 )

  0006e	0f 84 e8 00 00
	00		 je	 $LN444@Clear
$LL7@Clear:

; 166  : 	{
; 167  : 		list<CEventItem*>* pList	= i2->second;

  00074	8b 5e 14	 mov	 ebx, DWORD PTR [esi+20]
; File C:\Program Files\Microsoft Visual Studio\2022\Professional\VC\Tools\MSVC\14.44.35207\include\list

; 1105 :         return iterator(_Mypair._Myval2._Myhead->_Next, _STD addressof(_Mypair._Myval2));

  00077	8b 0b		 mov	 ecx, DWORD PTR [ebx]

; 37   :     _List_unchecked_const_iterator(_Nodeptr _Pnode, const _Mylist* _Plist) noexcept : _Ptr(_Pnode) {

  00079	8b 39		 mov	 edi, DWORD PTR [ecx]

; 202  :         return !(*this == _Right);

  0007b	3b f9		 cmp	 edi, ecx
; File C:\IAGOS\server\v18\Source\Source\_Common\spevent.cpp

; 168  : 		for( list<CEventItem*>::iterator i3 = pList->begin(); i3 != pList->end(); ++i3 )

  0007d	74 18		 je	 SHORT $LN9@Clear
  0007f	90		 npad	 1
$LL10@Clear:

; 169  : 			safe_delete( *i3 );

  00080	8b 4f 08	 mov	 ecx, DWORD PTR [edi+8]
  00083	85 c9		 test	 ecx, ecx
  00085	74 06		 je	 SHORT $LN8@Clear
  00087	8b 01		 mov	 eax, DWORD PTR [ecx]
  00089	6a 01		 push	 1
  0008b	ff 10		 call	 DWORD PTR [eax]
$LN8@Clear:
; File C:\Program Files\Microsoft Visual Studio\2022\Professional\VC\Tools\MSVC\14.44.35207\include\list

; 164  :         this->_Ptr = this->_Ptr->_Next;

  0008d	8b 07		 mov	 eax, DWORD PTR [edi]
  0008f	8b f8		 mov	 edi, eax

; 37   :     _List_unchecked_const_iterator(_Nodeptr _Pnode, const _Mylist* _Plist) noexcept : _Ptr(_Pnode) {

  00091	8b 0b		 mov	 ecx, DWORD PTR [ebx]

; 202  :         return !(*this == _Right);

  00093	3b c1		 cmp	 eax, ecx
; File C:\IAGOS\server\v18\Source\Source\_Common\spevent.cpp

; 168  : 		for( list<CEventItem*>::iterator i3 = pList->begin(); i3 != pList->end(); ++i3 )

  00095	75 e9		 jne	 SHORT $LL10@Clear
$LN9@Clear:
; File C:\Program Files\Microsoft Visual Studio\2022\Professional\VC\Tools\MSVC\14.44.35207\include\list

; 324  :         _Head->_Prev->_Next = nullptr;

  00097	8b 41 04	 mov	 eax, DWORD PTR [ecx+4]
  0009a	c7 00 00 00 00
	00		 mov	 DWORD PTR [eax], 0

; 325  : 
; 326  :         auto _Pnode = _Head->_Next;

  000a0	8b 01		 mov	 eax, DWORD PTR [ecx]

; 327  :         for (_Nodeptr _Pnext; _Pnode; _Pnode = _Pnext) {

  000a2	85 c0		 test	 eax, eax
  000a4	74 13		 je	 SHORT $LN93@Clear
$LL94@Clear:

; 328  :             _Pnext = _Pnode->_Next;

  000a6	8b 38		 mov	 edi, DWORD PTR [eax]
; File C:\Program Files\Microsoft Visual Studio\2022\Professional\VC\Tools\MSVC\14.44.35207\include\xmemory

; 289  :         ::operator delete(_Ptr, _Bytes);

  000a8	6a 0c		 push	 12			; 0000000cH
  000aa	50		 push	 eax
  000ab	e8 00 00 00 00	 call	 ??3@YAXPAXI@Z		; operator delete
  000b0	83 c4 08	 add	 esp, 8
; File C:\Program Files\Microsoft Visual Studio\2022\Professional\VC\Tools\MSVC\14.44.35207\include\list

; 327  :         for (_Nodeptr _Pnext; _Pnode; _Pnode = _Pnext) {

  000b3	8b c7		 mov	 eax, edi
  000b5	85 ff		 test	 edi, edi
  000b7	75 ed		 jne	 SHORT $LL94@Clear
$LN93@Clear:

; 1508 :         _My_data._Myhead->_Next = _My_data._Myhead;

  000b9	8b 03		 mov	 eax, DWORD PTR [ebx]
  000bb	89 00		 mov	 DWORD PTR [eax], eax

; 1509 :         _My_data._Myhead->_Prev = _My_data._Myhead;

  000bd	8b 03		 mov	 eax, DWORD PTR [ebx]
  000bf	89 40 04	 mov	 DWORD PTR [eax+4], eax

; 1510 :         _My_data._Mysize        = 0;

  000c2	c7 43 04 00 00
	00 00		 mov	 DWORD PTR [ebx+4], 0

; 1518 :         _Node::_Free_non_head(_Al, _My_data._Myhead);

  000c9	8b 0b		 mov	 ecx, DWORD PTR [ebx]

; 324  :         _Head->_Prev->_Next = nullptr;

  000cb	8b 41 04	 mov	 eax, DWORD PTR [ecx+4]
  000ce	c7 00 00 00 00
	00		 mov	 DWORD PTR [eax], 0

; 325  : 
; 326  :         auto _Pnode = _Head->_Next;

  000d4	8b 01		 mov	 eax, DWORD PTR [ecx]

; 327  :         for (_Nodeptr _Pnext; _Pnode; _Pnode = _Pnext) {

  000d6	85 c0		 test	 eax, eax
  000d8	74 19		 je	 SHORT $LN151@Clear
  000da	66 0f 1f 44 00
	00		 npad	 6
$LL152@Clear:

; 328  :             _Pnext = _Pnode->_Next;

  000e0	8b 38		 mov	 edi, DWORD PTR [eax]
; File C:\Program Files\Microsoft Visual Studio\2022\Professional\VC\Tools\MSVC\14.44.35207\include\xmemory

; 289  :         ::operator delete(_Ptr, _Bytes);

  000e2	6a 0c		 push	 12			; 0000000cH
  000e4	50		 push	 eax
  000e5	e8 00 00 00 00	 call	 ??3@YAXPAXI@Z		; operator delete
  000ea	83 c4 08	 add	 esp, 8
; File C:\Program Files\Microsoft Visual Studio\2022\Professional\VC\Tools\MSVC\14.44.35207\include\list

; 327  :         for (_Nodeptr _Pnext; _Pnode; _Pnode = _Pnext) {

  000ed	8b c7		 mov	 eax, edi
  000ef	85 ff		 test	 edi, edi
  000f1	75 ed		 jne	 SHORT $LL152@Clear
$LN151@Clear:
; File C:\Program Files\Microsoft Visual Studio\2022\Professional\VC\Tools\MSVC\14.44.35207\include\xmemory

; 289  :         ::operator delete(_Ptr, _Bytes);

  000f3	6a 0c		 push	 12			; 0000000cH
  000f5	ff 33		 push	 DWORD PTR [ebx]
  000f7	e8 00 00 00 00	 call	 ??3@YAXPAXI@Z		; operator delete
  000fc	6a 08		 push	 8
  000fe	53		 push	 ebx
  000ff	e8 00 00 00 00	 call	 ??3@YAXPAXI@Z		; operator delete
; File C:\Program Files\Microsoft Visual Studio\2022\Professional\VC\Tools\MSVC\14.44.35207\include\xtree

; 50   :         if (_Ptr->_Right->_Isnil) { // climb looking for right subtree

  00104	8b 46 08	 mov	 eax, DWORD PTR [esi+8]
  00107	83 c4 10	 add	 esp, 16			; 00000010H
  0010a	80 78 0d 00	 cmp	 BYTE PTR [eax+13], 0
  0010e	74 24		 je	 SHORT $LN67@Clear

; 51   :             _Nodeptr _Pnode;
; 52   :             while (!(_Pnode = _Ptr->_Parent)->_Isnil && _Ptr == _Pnode->_Right) {

  00110	8b 46 04	 mov	 eax, DWORD PTR [esi+4]
  00113	80 78 0d 00	 cmp	 BYTE PTR [eax+13], 0
  00117	75 17		 jne	 SHORT $LN473@Clear
  00119	0f 1f 80 00 00
	00 00		 npad	 7
$LL65@Clear:
  00120	3b 70 08	 cmp	 esi, DWORD PTR [eax+8]
  00123	75 0b		 jne	 SHORT $LN473@Clear

; 53   :                 _Ptr = _Pnode; // ==> parent while right subtree

  00125	8b f0		 mov	 esi, eax
  00127	8b 40 04	 mov	 eax, DWORD PTR [eax+4]
  0012a	80 78 0d 00	 cmp	 BYTE PTR [eax+13], 0
  0012e	74 f0		 je	 SHORT $LL65@Clear
$LN473@Clear:

; 54   :             }
; 55   : 
; 56   :             _Ptr = _Pnode; // ==> parent (head if end())

  00130	8b f0		 mov	 esi, eax

; 57   :         } else {

  00132	eb 18		 jmp	 SHORT $LN73@Clear
$LN67@Clear:

; 58   :             _Ptr = _Mytree::_Min(_Ptr->_Right); // ==> smallest of right subtree

  00134	8b f0		 mov	 esi, eax

; 476  :         while (!_Pnode->_Left->_Isnil) {

  00136	8b 0e		 mov	 ecx, DWORD PTR [esi]
  00138	80 79 0d 00	 cmp	 BYTE PTR [ecx+13], 0
  0013c	75 0e		 jne	 SHORT $LN73@Clear
  0013e	66 90		 npad	 2
$LL72@Clear:
  00140	8b 01		 mov	 eax, DWORD PTR [ecx]

; 477  :             _Pnode = _Pnode->_Left;

  00142	8b f1		 mov	 esi, ecx
  00144	8b c8		 mov	 ecx, eax
  00146	80 78 0d 00	 cmp	 BYTE PTR [eax+13], 0
  0014a	74 f4		 je	 SHORT $LL72@Clear
$LN73@Clear:

; 37   :     _Tree_unchecked_const_iterator(_Nodeptr _Pnode, const _Mytree* _Plist) noexcept : _Ptr(_Pnode) {

  0014c	8b 5d fc	 mov	 ebx, DWORD PTR _this$1$[ebp]
  0014f	83 c3 10	 add	 ebx, 16			; 00000010H
  00152	8b 3b		 mov	 edi, DWORD PTR [ebx]

; 237  :         return !(*this == _Right);

  00154	3b f7		 cmp	 esi, edi
; File C:\IAGOS\server\v18\Source\Source\_Common\spevent.cpp

; 165  : 	for( map<int, list<CEventItem*>*>::iterator i2 = m_mapEventItemList.begin(); i2 != m_mapEventItemList.end(); ++i2 )

  00156	0f 85 18 ff ff
	ff		 jne	 $LL7@Clear
$LN444@Clear:
; File C:\Program Files\Microsoft Visual Studio\2022\Professional\VC\Tools\MSVC\14.44.35207\include\xtree

; 1374 :         _Scary->_Erase_tree(_Getal(), _Head->_Parent);

  0015c	8b 77 04	 mov	 esi, DWORD PTR [edi+4]

; 768  :         while (!_Rootnode->_Isnil) { // free subtrees, then node

  0015f	80 7e 0d 00	 cmp	 BYTE PTR [esi+13], 0
  00163	75 20		 jne	 SHORT $LN445@Clear
$LL283@Clear:

; 769  :             _Erase_tree(_Al, _Rootnode->_Right);

  00165	ff 76 08	 push	 DWORD PTR [esi+8]
  00168	8b cb		 mov	 ecx, ebx
  0016a	53		 push	 ebx
  0016b	e8 00 00 00 00	 call	 ??$_Erase_tree@V?$allocator@U?$_Tree_node@U?$pair@$$CBHPAV?$list@PAVCEventItem@@V?$allocator@PAVCEventItem@@@std@@@std@@@std@@PAX@std@@@std@@@?$_Tree_val@U?$_Tree_simple_types@U?$pair@$$CBHPAV?$list@PAVCEventItem@@V?$allocator@PAVCEventItem@@@std@@@std@@@std@@@std@@@std@@QAEXAAV?$allocator@U?$_Tree_node@U?$pair@$$CBHPAV?$list@PAVCEventItem@@V?$allocator@PAVCEventItem@@@std@@@std@@@std@@PAX@std@@@1@PAU?$_Tree_node@U?$pair@$$CBHPAV?$list@PAVCEventItem@@V?$allocator@PAVCEventItem@@@std@@@std@@@std@@PAX@1@@Z ; std::_Tree_val<std::_Tree_simple_types<std::pair<int const ,std::list<CEventItem *,std::allocator<CEventItem *> > *> > >::_Erase_tree<std::allocator<std::_Tree_node<std::pair<int const ,std::list<CEventItem *,std::allocator<CEventItem *> > *>,void *> > >
; File C:\Program Files\Microsoft Visual Studio\2022\Professional\VC\Tools\MSVC\14.44.35207\include\utility

; 773  :     _Ty _Old_val = static_cast<_Ty&&>(_Val);

  00170	8b c6		 mov	 eax, esi

; 774  :     _Val         = static_cast<_Other&&>(_New_val);

  00172	8b 36		 mov	 esi, DWORD PTR [esi]
; File C:\Program Files\Microsoft Visual Studio\2022\Professional\VC\Tools\MSVC\14.44.35207\include\xmemory

; 289  :         ::operator delete(_Ptr, _Bytes);

  00174	6a 18		 push	 24			; 00000018H
  00176	50		 push	 eax
  00177	e8 00 00 00 00	 call	 ??3@YAXPAXI@Z		; operator delete
  0017c	83 c4 08	 add	 esp, 8
; File C:\Program Files\Microsoft Visual Studio\2022\Professional\VC\Tools\MSVC\14.44.35207\include\xtree

; 768  :         while (!_Rootnode->_Isnil) { // free subtrees, then node

  0017f	80 7e 0d 00	 cmp	 BYTE PTR [esi+13], 0
  00183	74 e0		 je	 SHORT $LL283@Clear
$LN445@Clear:
; File C:\IAGOS\server\v18\Source\Source\_Common\spevent.cpp

; 175  : 	if( bDestructor )

  00185	83 7d 08 00	 cmp	 DWORD PTR _bDestructor$[ebp], 0
; File C:\Program Files\Microsoft Visual Studio\2022\Professional\VC\Tools\MSVC\14.44.35207\include\xtree

; 1375 :         _Head->_Parent  = _Head;

  00189	89 7f 04	 mov	 DWORD PTR [edi+4], edi

; 1376 :         _Head->_Left    = _Head;

  0018c	89 3f		 mov	 DWORD PTR [edi], edi

; 1377 :         _Head->_Right   = _Head;

  0018e	89 7f 08	 mov	 DWORD PTR [edi+8], edi

; 1378 :         _Scary->_Mysize = 0;

  00191	c7 43 04 00 00
	00 00		 mov	 DWORD PTR [ebx+4], 0
; File C:\IAGOS\server\v18\Source\Source\_Common\spevent.cpp

; 175  : 	if( bDestructor )

  00198	0f 84 a1 00 00
	00		 je	 $LN225@Clear
; File C:\Program Files\Microsoft Visual Studio\2022\Professional\VC\Tools\MSVC\14.44.35207\include\xtree

; 1142 :         return iterator(_Scary->_Myhead->_Left, _Scary);

  0019e	8b 5d fc	 mov	 ebx, DWORD PTR _this$1$[ebp]
  001a1	83 c3 24	 add	 ebx, 36			; 00000024H
  001a4	8b 3b		 mov	 edi, DWORD PTR [ebx]

; 37   :     _Tree_unchecked_const_iterator(_Nodeptr _Pnode, const _Mytree* _Plist) noexcept : _Ptr(_Pnode) {

  001a6	8b 37		 mov	 esi, DWORD PTR [edi]

; 237  :         return !(*this == _Right);

  001a8	3b f7		 cmp	 esi, edi
; File C:\IAGOS\server\v18\Source\Source\_Common\spevent.cpp

; 177  : 		for( map<int, CSpawn*>::iterator i3	= m_mapSpawn.begin(); i3 != m_mapSpawn.end(); ++i3 )

  001aa	74 56		 je	 SHORT $LN12@Clear
  001ac	0f 1f 40 00	 npad	 4
$LL13@Clear:

; 178  : 			safe_delete( i3->second );

  001b0	8b 4e 14	 mov	 ecx, DWORD PTR [esi+20]
  001b3	85 c9		 test	 ecx, ecx
  001b5	74 06		 je	 SHORT $LN11@Clear
  001b7	8b 01		 mov	 eax, DWORD PTR [ecx]
  001b9	6a 01		 push	 1
  001bb	ff 10		 call	 DWORD PTR [eax]
$LN11@Clear:
; File C:\Program Files\Microsoft Visual Studio\2022\Professional\VC\Tools\MSVC\14.44.35207\include\xtree

; 50   :         if (_Ptr->_Right->_Isnil) { // climb looking for right subtree

  001bd	8b 46 08	 mov	 eax, DWORD PTR [esi+8]
  001c0	80 78 0d 00	 cmp	 BYTE PTR [eax+13], 0
  001c4	74 1e		 je	 SHORT $LN206@Clear

; 51   :             _Nodeptr _Pnode;
; 52   :             while (!(_Pnode = _Ptr->_Parent)->_Isnil && _Ptr == _Pnode->_Right) {

  001c6	8b 46 04	 mov	 eax, DWORD PTR [esi+4]
  001c9	80 78 0d 00	 cmp	 BYTE PTR [eax+13], 0
  001cd	75 11		 jne	 SHORT $LN474@Clear
  001cf	90		 npad	 1
$LL204@Clear:
  001d0	3b 70 08	 cmp	 esi, DWORD PTR [eax+8]
  001d3	75 0b		 jne	 SHORT $LN474@Clear

; 53   :                 _Ptr = _Pnode; // ==> parent while right subtree

  001d5	8b f0		 mov	 esi, eax
  001d7	8b 40 04	 mov	 eax, DWORD PTR [eax+4]
  001da	80 78 0d 00	 cmp	 BYTE PTR [eax+13], 0
  001de	74 f0		 je	 SHORT $LL204@Clear
$LN474@Clear:

; 54   :             }
; 55   : 
; 56   :             _Ptr = _Pnode; // ==> parent (head if end())

  001e0	8b f0		 mov	 esi, eax

; 57   :         } else {

  001e2	eb 18		 jmp	 SHORT $LN212@Clear
$LN206@Clear:

; 58   :             _Ptr = _Mytree::_Min(_Ptr->_Right); // ==> smallest of right subtree

  001e4	8b f0		 mov	 esi, eax

; 476  :         while (!_Pnode->_Left->_Isnil) {

  001e6	8b 0e		 mov	 ecx, DWORD PTR [esi]
  001e8	80 79 0d 00	 cmp	 BYTE PTR [ecx+13], 0
  001ec	75 0e		 jne	 SHORT $LN212@Clear
  001ee	66 90		 npad	 2
$LL211@Clear:
  001f0	8b 01		 mov	 eax, DWORD PTR [ecx]

; 477  :             _Pnode = _Pnode->_Left;

  001f2	8b f1		 mov	 esi, ecx
  001f4	8b c8		 mov	 ecx, eax
  001f6	80 78 0d 00	 cmp	 BYTE PTR [eax+13], 0
  001fa	74 f4		 je	 SHORT $LL211@Clear
$LN212@Clear:

; 37   :     _Tree_unchecked_const_iterator(_Nodeptr _Pnode, const _Mytree* _Plist) noexcept : _Ptr(_Pnode) {

  001fc	8b 3b		 mov	 edi, DWORD PTR [ebx]

; 237  :         return !(*this == _Right);

  001fe	3b f7		 cmp	 esi, edi
; File C:\IAGOS\server\v18\Source\Source\_Common\spevent.cpp

; 177  : 		for( map<int, CSpawn*>::iterator i3	= m_mapSpawn.begin(); i3 != m_mapSpawn.end(); ++i3 )

  00200	75 ae		 jne	 SHORT $LL13@Clear
$LN12@Clear:
; File C:\Program Files\Microsoft Visual Studio\2022\Professional\VC\Tools\MSVC\14.44.35207\include\xtree

; 1374 :         _Scary->_Erase_tree(_Getal(), _Head->_Parent);

  00202	8b 77 04	 mov	 esi, DWORD PTR [edi+4]

; 768  :         while (!_Rootnode->_Isnil) { // free subtrees, then node

  00205	80 7e 0d 00	 cmp	 BYTE PTR [esi+13], 0
  00209	75 25		 jne	 SHORT $LN446@Clear
  0020b	0f 1f 44 00 00	 npad	 5
$LL228@Clear:

; 769  :             _Erase_tree(_Al, _Rootnode->_Right);

  00210	ff 76 08	 push	 DWORD PTR [esi+8]
  00213	8b cb		 mov	 ecx, ebx
  00215	53		 push	 ebx
  00216	e8 00 00 00 00	 call	 ??$_Erase_tree@V?$allocator@U?$_Tree_node@U?$pair@$$CBHPAVCSpawn@@@std@@PAX@std@@@std@@@?$_Tree_val@U?$_Tree_simple_types@U?$pair@$$CBHPAVCSpawn@@@std@@@std@@@std@@QAEXAAV?$allocator@U?$_Tree_node@U?$pair@$$CBHPAVCSpawn@@@std@@PAX@std@@@1@PAU?$_Tree_node@U?$pair@$$CBHPAVCSpawn@@@std@@PAX@1@@Z ; std::_Tree_val<std::_Tree_simple_types<std::pair<int const ,CSpawn *> > >::_Erase_tree<std::allocator<std::_Tree_node<std::pair<int const ,CSpawn *>,void *> > >
; File C:\Program Files\Microsoft Visual Studio\2022\Professional\VC\Tools\MSVC\14.44.35207\include\utility

; 773  :     _Ty _Old_val = static_cast<_Ty&&>(_Val);

  0021b	8b c6		 mov	 eax, esi

; 774  :     _Val         = static_cast<_Other&&>(_New_val);

  0021d	8b 36		 mov	 esi, DWORD PTR [esi]
; File C:\Program Files\Microsoft Visual Studio\2022\Professional\VC\Tools\MSVC\14.44.35207\include\xmemory

; 289  :         ::operator delete(_Ptr, _Bytes);

  0021f	6a 18		 push	 24			; 00000018H
  00221	50		 push	 eax
  00222	e8 00 00 00 00	 call	 ??3@YAXPAXI@Z		; operator delete
  00227	83 c4 08	 add	 esp, 8
; File C:\Program Files\Microsoft Visual Studio\2022\Professional\VC\Tools\MSVC\14.44.35207\include\xtree

; 768  :         while (!_Rootnode->_Isnil) { // free subtrees, then node

  0022a	80 7e 0d 00	 cmp	 BYTE PTR [esi+13], 0
  0022e	74 e0		 je	 SHORT $LL228@Clear
$LN446@Clear:

; 1375 :         _Head->_Parent  = _Head;

  00230	89 7f 04	 mov	 DWORD PTR [edi+4], edi

; 1376 :         _Head->_Left    = _Head;

  00233	89 3f		 mov	 DWORD PTR [edi], edi

; 1377 :         _Head->_Right   = _Head;

  00235	89 7f 08	 mov	 DWORD PTR [edi+8], edi

; 1378 :         _Scary->_Mysize = 0;

  00238	c7 43 04 00 00
	00 00		 mov	 DWORD PTR [ebx+4], 0
$LN225@Clear:
  0023f	5f		 pop	 edi
; File C:\IAGOS\server\v18\Source\Source\_Common\spevent.cpp

; 182  : }

  00240	5e		 pop	 esi
  00241	5b		 pop	 ebx
  00242	8b e5		 mov	 esp, ebp
  00244	5d		 pop	 ebp
  00245	c2 04 00	 ret	 4
?Clear@CEventGeneric@@QAEXH@Z ENDP			; CEventGeneric::Clear
_TEXT	ENDS
; Function compile flags: /Ogtp
; File C:\IAGOS\server\v18\Source\Source\_Common\spevent.cpp
; File C:\Program Files\Microsoft Visual Studio\2022\Professional\VC\Tools\MSVC\14.44.35207\include\list
; File C:\Program Files\Microsoft Visual Studio\2022\Professional\VC\Tools\MSVC\14.44.35207\include\xmemory
; File C:\Program Files\Microsoft Visual Studio\2022\Professional\VC\Tools\MSVC\14.44.35207\include\list
; File C:\Program Files\Microsoft Visual Studio\2022\Professional\VC\Tools\MSVC\14.44.35207\include\xmemory
; File C:\IAGOS\server\v18\Source\Source\_Common\spevent.cpp
;	COMDAT ??1CEventGeneric@@UAE@XZ
_TEXT	SEGMENT
??1CEventGeneric@@UAE@XZ PROC				; CEventGeneric::~CEventGeneric, COMDAT
; _this$ = ecx

; 155  : {

  00000	57		 push	 edi
  00001	8b f9		 mov	 edi, ecx

; 156  : 	Clear();	// clear all

  00003	6a 01		 push	 1
  00005	c7 07 00 00 00
	00		 mov	 DWORD PTR [edi], OFFSET ??_7CEventGeneric@@6B@
  0000b	e8 00 00 00 00	 call	 ?Clear@CEventGeneric@@QAEXH@Z ; CEventGeneric::Clear

; 157  : }

  00010	8d 4f 24	 lea	 ecx, DWORD PTR [edi+36]
  00013	e8 00 00 00 00	 call	 ??1?$_Tree@V?$_Tmap_traits@HPAVCSpawn@@U?$less@H@std@@V?$allocator@U?$pair@$$CBHPAVCSpawn@@@std@@@3@$0A@@std@@@std@@QAE@XZ ; std::_Tree<std::_Tmap_traits<int,CSpawn *,std::less<int>,std::allocator<std::pair<int const ,CSpawn *> >,0> >::~_Tree<std::_Tmap_traits<int,CSpawn *,std::less<int>,std::allocator<std::pair<int const ,CSpawn *> >,0> >
  00018	8d 4f 18	 lea	 ecx, DWORD PTR [edi+24]
  0001b	e8 00 00 00 00	 call	 ??1?$vector@U_REGION_GENERIC@@V?$allocator@U_REGION_GENERIC@@@std@@@std@@QAE@XZ ; std::vector<_REGION_GENERIC,std::allocator<_REGION_GENERIC> >::~vector<_REGION_GENERIC,std::allocator<_REGION_GENERIC> >
  00020	8d 4f 10	 lea	 ecx, DWORD PTR [edi+16]
  00023	e8 00 00 00 00	 call	 ??1?$_Tree@V?$_Tmap_traits@HPAV?$list@PAVCEventItem@@V?$allocator@PAVCEventItem@@@std@@@std@@U?$less@H@2@V?$allocator@U?$pair@$$CBHPAV?$list@PAVCEventItem@@V?$allocator@PAVCEventItem@@@std@@@std@@@std@@@2@$0A@@std@@@std@@QAE@XZ ; std::_Tree<std::_Tmap_traits<int,std::list<CEventItem *,std::allocator<CEventItem *> > *,std::less<int>,std::allocator<std::pair<int const ,std::list<CEventItem *,std::allocator<CEventItem *> > *> >,0> >::~_Tree<std::_Tmap_traits<int,std::list<CEventItem *,std::allocator<CEventItem *> > *,std::less<int>,std::allocator<std::pair<int const ,std::list<CEventItem *,std::allocator<CEventItem *> > *> >,0> >
; File C:\Program Files\Microsoft Visual Studio\2022\Professional\VC\Tools\MSVC\14.44.35207\include\list

; 1518 :         _Node::_Free_non_head(_Al, _My_data._Myhead);

  00028	8b 4f 08	 mov	 ecx, DWORD PTR [edi+8]

; 324  :         _Head->_Prev->_Next = nullptr;

  0002b	8b 41 04	 mov	 eax, DWORD PTR [ecx+4]
  0002e	c7 00 00 00 00
	00		 mov	 DWORD PTR [eax], 0

; 325  : 
; 326  :         auto _Pnode = _Head->_Next;

  00034	8b 01		 mov	 eax, DWORD PTR [ecx]

; 327  :         for (_Nodeptr _Pnext; _Pnode; _Pnode = _Pnext) {

  00036	85 c0		 test	 eax, eax
  00038	74 1a		 je	 SHORT $LN71@CEventGene
  0003a	56		 push	 esi
  0003b	0f 1f 44 00 00	 npad	 5
$LL23@CEventGene:

; 328  :             _Pnext = _Pnode->_Next;

  00040	8b 30		 mov	 esi, DWORD PTR [eax]
; File C:\Program Files\Microsoft Visual Studio\2022\Professional\VC\Tools\MSVC\14.44.35207\include\xmemory

; 289  :         ::operator delete(_Ptr, _Bytes);

  00042	6a 0c		 push	 12			; 0000000cH
  00044	50		 push	 eax
  00045	e8 00 00 00 00	 call	 ??3@YAXPAXI@Z		; operator delete
  0004a	83 c4 08	 add	 esp, 8
; File C:\Program Files\Microsoft Visual Studio\2022\Professional\VC\Tools\MSVC\14.44.35207\include\list

; 327  :         for (_Nodeptr _Pnext; _Pnode; _Pnode = _Pnext) {

  0004d	8b c6		 mov	 eax, esi
  0004f	85 f6		 test	 esi, esi
  00051	75 ed		 jne	 SHORT $LL23@CEventGene
  00053	5e		 pop	 esi
$LN71@CEventGene:
; File C:\Program Files\Microsoft Visual Studio\2022\Professional\VC\Tools\MSVC\14.44.35207\include\xmemory

; 289  :         ::operator delete(_Ptr, _Bytes);

  00054	6a 0c		 push	 12			; 0000000cH
  00056	ff 77 08	 push	 DWORD PTR [edi+8]
  00059	e8 00 00 00 00	 call	 ??3@YAXPAXI@Z		; operator delete
  0005e	83 c4 08	 add	 esp, 8
  00061	5f		 pop	 edi
; File C:\IAGOS\server\v18\Source\Source\_Common\spevent.cpp

; 157  : }

  00062	c3		 ret	 0
??1CEventGeneric@@UAE@XZ ENDP				; CEventGeneric::~CEventGeneric
_TEXT	ENDS
; Function compile flags: /Ogtp
; File C:\IAGOS\server\v18\Source\Source\_Common\spevent.cpp
; File C:\Program Files\Microsoft Visual Studio\2022\Professional\VC\Tools\MSVC\14.44.35207\include\xmemory
; File C:\Program Files\Microsoft Visual Studio\2022\Professional\VC\Tools\MSVC\14.44.35207\include\list
; File C:\Program Files\Microsoft Visual Studio\2022\Professional\VC\Tools\MSVC\14.44.35207\include\xmemory
; File C:\Program Files\Microsoft Visual Studio\2022\Professional\VC\Tools\MSVC\14.44.35207\include\list
; File C:\IAGOS\server\v18\Source\Source\_Common\spevent.cpp
; File C:\Program Files\Microsoft Visual Studio\2022\Professional\VC\Tools\MSVC\14.44.35207\include\xmemory
; File C:\IAGOS\server\v18\Source\Source\_Common\spevent.cpp
; File C:\Program Files\Microsoft Visual Studio\2022\Professional\VC\Tools\MSVC\14.44.35207\include\xtree
; File C:\Program Files\Microsoft Visual Studio\2022\Professional\VC\Tools\MSVC\14.44.35207\include\xmemory
; File C:\Program Files\Microsoft Visual Studio\2022\Professional\VC\Tools\MSVC\14.44.35207\include\xtree
; File C:\Program Files\Microsoft Visual Studio\2022\Professional\VC\Tools\MSVC\14.44.35207\include\vector
; File C:\IAGOS\server\v18\Source\Source\_Common\spevent.cpp
; File C:\Program Files\Microsoft Visual Studio\2022\Professional\VC\Tools\MSVC\14.44.35207\include\xmemory
; File C:\IAGOS\server\v18\Source\Source\_Common\spevent.cpp
; File C:\Program Files\Microsoft Visual Studio\2022\Professional\VC\Tools\MSVC\14.44.35207\include\xtree
; File C:\Program Files\Microsoft Visual Studio\2022\Professional\VC\Tools\MSVC\14.44.35207\include\xmemory
; File C:\Program Files\Microsoft Visual Studio\2022\Professional\VC\Tools\MSVC\14.44.35207\include\xtree
; File C:\IAGOS\server\v18\Source\Source\_Common\spevent.cpp
;	COMDAT ??0CEventGeneric@@QAE@XZ
_TEXT	SEGMENT
_this$ = -20						; size = 4
_this$ = -20						; size = 4
_this$ = -16						; size = 4
__$EHRec$ = -12						; size = 12
??0CEventGeneric@@QAE@XZ PROC				; CEventGeneric::CEventGeneric, COMDAT
; _this$ = ecx

; 150  : {

  00000	55		 push	 ebp
  00001	8b ec		 mov	 ebp, esp
  00003	6a ff		 push	 -1
  00005	68 00 00 00 00	 push	 __ehhandler$??0CEventGeneric@@QAE@XZ
  0000a	64 a1 00 00 00
	00		 mov	 eax, DWORD PTR fs:0
  00010	50		 push	 eax
  00011	83 ec 08	 sub	 esp, 8
  00014	56		 push	 esi
  00015	57		 push	 edi
  00016	a1 00 00 00 00	 mov	 eax, DWORD PTR ___security_cookie
  0001b	33 c5		 xor	 eax, ebp
  0001d	50		 push	 eax
  0001e	8d 45 f4	 lea	 eax, DWORD PTR __$EHRec$[ebp]
  00021	64 a3 00 00 00
	00		 mov	 DWORD PTR fs:0, eax
  00027	8b f9		 mov	 edi, ecx
  00029	89 7d f0	 mov	 DWORD PTR _this$[ebp], edi
  0002c	c7 07 00 00 00
	00		 mov	 DWORD PTR [edi], OFFSET ??_7CEventGeneric@@6B@
; File C:\Program Files\Microsoft Visual Studio\2022\Professional\VC\Tools\MSVC\14.44.35207\include\xmemory

; 136  :         return ::operator new(_Bytes);

  00032	6a 0c		 push	 12			; 0000000cH
; File C:\Program Files\Microsoft Visual Studio\2022\Professional\VC\Tools\MSVC\14.44.35207\include\list

; 353  :     _List_val() noexcept : _Myhead(), _Mysize(0) {} // initialize data

  00034	c7 47 08 00 00
	00 00		 mov	 DWORD PTR [edi+8], 0
  0003b	c7 47 0c 00 00
	00 00		 mov	 DWORD PTR [edi+12], 0
; File C:\Program Files\Microsoft Visual Studio\2022\Professional\VC\Tools\MSVC\14.44.35207\include\xmemory

; 136  :         return ::operator new(_Bytes);

  00042	e8 00 00 00 00	 call	 ??2@YAPAXI@Z		; operator new
; File C:\Program Files\Microsoft Visual Studio\2022\Professional\VC\Tools\MSVC\14.44.35207\include\list

; 1852 :         _Construct_in_place(_Newhead->_Next, _Newhead);

  00047	89 00		 mov	 DWORD PTR [eax], eax

; 1853 :         _Construct_in_place(_Newhead->_Prev, _Newhead);

  00049	89 40 04	 mov	 DWORD PTR [eax+4], eax

; 1854 :         _Mypair._Myval2._Myhead = _Newhead;

  0004c	89 47 08	 mov	 DWORD PTR [edi+8], eax
; File C:\IAGOS\server\v18\Source\Source\_Common\spevent.cpp

; 150  : {

  0004f	8d 77 10	 lea	 esi, DWORD PTR [edi+16]
  00052	c7 45 fc 00 00
	00 00		 mov	 DWORD PTR __$EHRec$[ebp+8], 0
; File C:\Program Files\Microsoft Visual Studio\2022\Professional\VC\Tools\MSVC\14.44.35207\include\xmemory

; 136  :         return ::operator new(_Bytes);

  00059	6a 18		 push	 24			; 00000018H
; File C:\IAGOS\server\v18\Source\Source\_Common\spevent.cpp

; 150  : {

  0005b	89 75 ec	 mov	 DWORD PTR _this$[ebp], esi
; File C:\Program Files\Microsoft Visual Studio\2022\Professional\VC\Tools\MSVC\14.44.35207\include\xtree

; 450  :     _Tree_val() noexcept : _Myhead(), _Mysize(0) {}

  0005e	c7 06 00 00 00
	00		 mov	 DWORD PTR [esi], 0
  00064	c7 46 04 00 00
	00 00		 mov	 DWORD PTR [esi+4], 0
; File C:\Program Files\Microsoft Visual Studio\2022\Professional\VC\Tools\MSVC\14.44.35207\include\xmemory

; 136  :         return ::operator new(_Bytes);

  0006b	e8 00 00 00 00	 call	 ??2@YAPAXI@Z		; operator new
; File C:\Program Files\Microsoft Visual Studio\2022\Professional\VC\Tools\MSVC\14.44.35207\include\xtree

; 346  :         _Construct_in_place(_Pnode->_Left, _Pnode);

  00070	89 00		 mov	 DWORD PTR [eax], eax

; 347  :         _Construct_in_place(_Pnode->_Parent, _Pnode);

  00072	89 40 04	 mov	 DWORD PTR [eax+4], eax

; 348  :         _Construct_in_place(_Pnode->_Right, _Pnode);

  00075	89 40 08	 mov	 DWORD PTR [eax+8], eax

; 349  :         _Pnode->_Color = _Black;

  00078	66 c7 40 0c 01
	01		 mov	 WORD PTR [eax+12], 257	; 00000101H

; 1957 :         _Scary->_Myhead = _Node::_Buyheadnode(_Getal());

  0007e	89 06		 mov	 DWORD PTR [esi], eax
; File C:\Program Files\Microsoft Visual Studio\2022\Professional\VC\Tools\MSVC\14.44.35207\include\vector

; 400  :     _CONSTEXPR20 _Vector_val() noexcept : _Myfirst(), _Mylast(), _Myend() {}

  00080	c7 47 18 00 00
	00 00		 mov	 DWORD PTR [edi+24], 0
  00087	c7 47 1c 00 00
	00 00		 mov	 DWORD PTR [edi+28], 0
  0008e	c7 47 20 00 00
	00 00		 mov	 DWORD PTR [edi+32], 0
; File C:\IAGOS\server\v18\Source\Source\_Common\spevent.cpp

; 150  : {

  00095	8d 77 24	 lea	 esi, DWORD PTR [edi+36]
  00098	c6 45 fc 02	 mov	 BYTE PTR __$EHRec$[ebp+8], 2
; File C:\Program Files\Microsoft Visual Studio\2022\Professional\VC\Tools\MSVC\14.44.35207\include\xmemory

; 136  :         return ::operator new(_Bytes);

  0009c	6a 18		 push	 24			; 00000018H
; File C:\IAGOS\server\v18\Source\Source\_Common\spevent.cpp

; 150  : {

  0009e	89 75 ec	 mov	 DWORD PTR _this$[ebp], esi
; File C:\Program Files\Microsoft Visual Studio\2022\Professional\VC\Tools\MSVC\14.44.35207\include\xtree

; 450  :     _Tree_val() noexcept : _Myhead(), _Mysize(0) {}

  000a1	c7 06 00 00 00
	00		 mov	 DWORD PTR [esi], 0
  000a7	c7 46 04 00 00
	00 00		 mov	 DWORD PTR [esi+4], 0
; File C:\Program Files\Microsoft Visual Studio\2022\Professional\VC\Tools\MSVC\14.44.35207\include\xmemory

; 136  :         return ::operator new(_Bytes);

  000ae	e8 00 00 00 00	 call	 ??2@YAPAXI@Z		; operator new
  000b3	83 c4 0c	 add	 esp, 12			; 0000000cH
; File C:\Program Files\Microsoft Visual Studio\2022\Professional\VC\Tools\MSVC\14.44.35207\include\xtree

; 346  :         _Construct_in_place(_Pnode->_Left, _Pnode);

  000b6	89 00		 mov	 DWORD PTR [eax], eax

; 347  :         _Construct_in_place(_Pnode->_Parent, _Pnode);

  000b8	89 40 04	 mov	 DWORD PTR [eax+4], eax

; 348  :         _Construct_in_place(_Pnode->_Right, _Pnode);

  000bb	89 40 08	 mov	 DWORD PTR [eax+8], eax

; 349  :         _Pnode->_Color = _Black;

  000be	66 c7 40 0c 01
	01		 mov	 WORD PTR [eax+12], 257	; 00000101H

; 1957 :         _Scary->_Myhead = _Node::_Buyheadnode(_Getal());

  000c4	89 06		 mov	 DWORD PTR [esi], eax
; File C:\IAGOS\server\v18\Source\Source\_Common\spevent.cpp

; 152  : }

  000c6	8b c7		 mov	 eax, edi
  000c8	c7 47 04 00 00
	00 00		 mov	 DWORD PTR [edi+4], 0
  000cf	8b 4d f4	 mov	 ecx, DWORD PTR __$EHRec$[ebp]
  000d2	64 89 0d 00 00
	00 00		 mov	 DWORD PTR fs:0, ecx
  000d9	59		 pop	 ecx
  000da	5f		 pop	 edi
  000db	5e		 pop	 esi
  000dc	8b e5		 mov	 esp, ebp
  000de	5d		 pop	 ebp
  000df	c3		 ret	 0
_TEXT	ENDS
;	COMDAT text$x
text$x	SEGMENT
__unwindfunclet$??0CEventGeneric@@QAE@XZ$0:
  00000	8b 4d f0	 mov	 ecx, DWORD PTR _this$[ebp]
  00003	83 c1 08	 add	 ecx, 8
  00006	e9 00 00 00 00	 jmp	 ??1?$list@PAU_EVENT_GENERIC@@V?$allocator@PAU_EVENT_GENERIC@@@std@@@std@@QAE@XZ ; std::list<_EVENT_GENERIC *,std::allocator<_EVENT_GENERIC *> >::~list<_EVENT_GENERIC *,std::allocator<_EVENT_GENERIC *> >
__unwindfunclet$??0CEventGeneric@@QAE@XZ$1:
  0000b	8b 4d f0	 mov	 ecx, DWORD PTR _this$[ebp]
  0000e	83 c1 10	 add	 ecx, 16			; 00000010H
  00011	e9 00 00 00 00	 jmp	 ??1?$map@HPAV?$list@PAVCEventItem@@V?$allocator@PAVCEventItem@@@std@@@std@@U?$less@H@2@V?$allocator@U?$pair@$$CBHPAV?$list@PAVCEventItem@@V?$allocator@PAVCEventItem@@@std@@@std@@@std@@@2@@std@@QAE@XZ
__unwindfunclet$??0CEventGeneric@@QAE@XZ$2:
  00016	8b 4d f0	 mov	 ecx, DWORD PTR _this$[ebp]
  00019	83 c1 18	 add	 ecx, 24			; 00000018H
  0001c	e9 00 00 00 00	 jmp	 ??1?$vector@U_REGION_GENERIC@@V?$allocator@U_REGION_GENERIC@@@std@@@std@@QAE@XZ ; std::vector<_REGION_GENERIC,std::allocator<_REGION_GENERIC> >::~vector<_REGION_GENERIC,std::allocator<_REGION_GENERIC> >
  00021	cc		 int	 3
  00022	cc		 int	 3
  00023	cc		 int	 3
  00024	cc		 int	 3
  00025	cc		 int	 3
__ehhandler$??0CEventGeneric@@QAE@XZ:
  00026	90		 npad	 1
  00027	90		 npad	 1
  00028	8b 54 24 08	 mov	 edx, DWORD PTR [esp+8]
  0002c	8d 42 0c	 lea	 eax, DWORD PTR [edx+12]
  0002f	8b 4a ec	 mov	 ecx, DWORD PTR [edx-20]
  00032	33 c8		 xor	 ecx, eax
  00034	e8 00 00 00 00	 call	 @__security_check_cookie@4
  00039	b8 00 00 00 00	 mov	 eax, OFFSET __ehfuncinfo$??0CEventGeneric@@QAE@XZ
  0003e	e9 00 00 00 00	 jmp	 ___CxxFrameHandler3
text$x	ENDS
??0CEventGeneric@@QAE@XZ ENDP				; CEventGeneric::CEventGeneric
; Function compile flags: /Ogtp
; File C:\Program Files\Microsoft Visual Studio\2022\Professional\VC\Tools\MSVC\14.44.35207\include\xtree
;	COMDAT ?_Insert_node@?$_Tree_val@U?$_Tree_simple_types@U?$pair@$$CBHPAVCSpawn@@@std@@@std@@@std@@QAEPAU?$_Tree_node@U?$pair@$$CBHPAVCSpawn@@@std@@PAX@2@U?$_Tree_id@PAU?$_Tree_node@U?$pair@$$CBHPAVCSpawn@@@std@@PAX@std@@@2@QAU32@@Z
_TEXT	SEGMENT
__Head$1$ = -4						; size = 4
__Loc$ = 8						; size = 8
__Newnode$ = 16						; size = 4
?_Insert_node@?$_Tree_val@U?$_Tree_simple_types@U?$pair@$$CBHPAVCSpawn@@@std@@@std@@@std@@QAEPAU?$_Tree_node@U?$pair@$$CBHPAVCSpawn@@@std@@PAX@2@U?$_Tree_id@PAU?$_Tree_node@U?$pair@$$CBHPAVCSpawn@@@std@@PAX@std@@@2@QAU32@@Z PROC ; std::_Tree_val<std::_Tree_simple_types<std::pair<int const ,CSpawn *> > >::_Insert_node, COMDAT
; _this$ = ecx

; 669  :     _Nodeptr _Insert_node(const _Tree_id<_Nodeptr> _Loc, const _Nodeptr _Newnode) noexcept {

  00000	55		 push	 ebp
  00001	8b ec		 mov	 ebp, esp
  00003	51		 push	 ecx

; 670  :         ++_Mysize;
; 671  :         const auto _Head  = _Myhead;
; 672  :         _Newnode->_Parent = _Loc._Parent;

  00004	8b 55 08	 mov	 edx, DWORD PTR __Loc$[ebp]
  00007	53		 push	 ebx
  00008	8b d9		 mov	 ebx, ecx
  0000a	57		 push	 edi
  0000b	8b 7d 10	 mov	 edi, DWORD PTR __Newnode$[ebp]
  0000e	8b 03		 mov	 eax, DWORD PTR [ebx]
  00010	ff 43 04	 inc	 DWORD PTR [ebx+4]
  00013	89 45 fc	 mov	 DWORD PTR __Head$1$[ebp], eax
  00016	89 57 04	 mov	 DWORD PTR [edi+4], edx

; 673  :         if (_Loc._Parent == _Head) { // first node in tree, just set head values

  00019	3b d0		 cmp	 edx, eax
  0001b	75 16		 jne	 SHORT $LN5@Insert_nod

; 674  :             _Head->_Left     = _Newnode;

  0001d	89 38		 mov	 DWORD PTR [eax], edi

; 675  :             _Head->_Parent   = _Newnode;

  0001f	89 78 04	 mov	 DWORD PTR [eax+4], edi

; 676  :             _Head->_Right    = _Newnode;

  00022	89 78 08	 mov	 DWORD PTR [eax+8], edi

; 735  :         return _Newnode;
; 736  :     }

  00025	8b c7		 mov	 eax, edi
  00027	c6 47 0c 01	 mov	 BYTE PTR [edi+12], 1
  0002b	5f		 pop	 edi
  0002c	5b		 pop	 ebx
  0002d	8b e5		 mov	 esp, ebp
  0002f	5d		 pop	 ebp
  00030	c2 0c 00	 ret	 12			; 0000000cH
$LN5@Insert_nod:

; 677  :             _Newnode->_Color = _Black; // the root is black
; 678  :             return _Newnode;
; 679  :         }
; 680  : 
; 681  :         _STL_INTERNAL_CHECK(_Loc._Child != _Tree_child::_Unused);
; 682  :         if (_Loc._Child == _Tree_child::_Right) { // add to right of _Loc._Parent

  00033	83 7d 0c 00	 cmp	 DWORD PTR __Loc$[ebp+4], 0
  00037	75 0d		 jne	 SHORT $LN6@Insert_nod

; 683  :             _STL_INTERNAL_CHECK(_Loc._Parent->_Right->_Isnil);
; 684  :             _Loc._Parent->_Right = _Newnode;

  00039	89 7a 08	 mov	 DWORD PTR [edx+8], edi

; 685  :             if (_Loc._Parent == _Head->_Right) { // remember rightmost node

  0003c	3b 50 08	 cmp	 edx, DWORD PTR [eax+8]
  0003f	75 0d		 jne	 SHORT $LN9@Insert_nod

; 686  :                 _Head->_Right = _Newnode;

  00041	89 78 08	 mov	 DWORD PTR [eax+8], edi

; 687  :             }
; 688  :         } else { // add to left of _Loc._Parent

  00044	eb 08		 jmp	 SHORT $LN9@Insert_nod
$LN6@Insert_nod:

; 689  :             _STL_INTERNAL_CHECK(_Loc._Parent->_Left->_Isnil);
; 690  :             _Loc._Parent->_Left = _Newnode;

  00046	89 3a		 mov	 DWORD PTR [edx], edi

; 691  :             if (_Loc._Parent == _Head->_Left) { // remember leftmost node

  00048	3b 10		 cmp	 edx, DWORD PTR [eax]
  0004a	75 02		 jne	 SHORT $LN9@Insert_nod

; 692  :                 _Head->_Left = _Newnode;

  0004c	89 38		 mov	 DWORD PTR [eax], edi
$LN9@Insert_nod:

; 693  :             }
; 694  :         }
; 695  : 
; 696  :         for (_Nodeptr _Pnode = _Newnode; _Pnode->_Parent->_Color == _Red;) {

  0004e	8b 4f 04	 mov	 ecx, DWORD PTR [edi+4]
  00051	8b c7		 mov	 eax, edi
  00053	80 79 0c 00	 cmp	 BYTE PTR [ecx+12], 0
  00057	0f 85 7d 01 00
	00		 jne	 $LN3@Insert_nod
  0005d	56		 push	 esi
  0005e	66 90		 npad	 2
$LL4@Insert_nod:

; 697  :             if (_Pnode->_Parent == _Pnode->_Parent->_Parent->_Left) { // fixup red-red in left subtree

  00060	8b 50 04	 mov	 edx, DWORD PTR [eax+4]
  00063	8b 72 04	 mov	 esi, DWORD PTR [edx+4]
  00066	8b 0e		 mov	 ecx, DWORD PTR [esi]
  00068	3b d1		 cmp	 edx, ecx
  0006a	0f 85 aa 00 00
	00		 jne	 $LN10@Insert_nod

; 698  :                 const auto _Parent_sibling = _Pnode->_Parent->_Parent->_Right;

  00070	8b 4e 08	 mov	 ecx, DWORD PTR [esi+8]

; 699  :                 if (_Parent_sibling->_Color == _Red) { // parent's sibling has two red children, blacken both

  00073	80 79 0c 00	 cmp	 BYTE PTR [ecx+12], 0
  00077	0f 84 a3 00 00
	00		 je	 $LN82@Insert_nod

; 700  :                     _Pnode->_Parent->_Color          = _Black;
; 701  :                     _Parent_sibling->_Color          = _Black;
; 702  :                     _Pnode->_Parent->_Parent->_Color = _Red;
; 703  :                     _Pnode                           = _Pnode->_Parent->_Parent;
; 704  :                 } else { // parent's sibling has red and black children
; 705  :                     if (_Pnode == _Pnode->_Parent->_Right) { // rotate right child to left

  0007d	8b 72 08	 mov	 esi, DWORD PTR [edx+8]
  00080	3b c6		 cmp	 eax, esi
  00082	75 37		 jne	 SHORT $LN57@Insert_nod

; 485  :         _Wherenode->_Right = _Pnode->_Left;

  00084	8b 0e		 mov	 ecx, DWORD PTR [esi]

; 706  :                         _Pnode = _Pnode->_Parent;

  00086	8b c2		 mov	 eax, edx

; 485  :         _Wherenode->_Right = _Pnode->_Left;

  00088	89 4a 08	 mov	 DWORD PTR [edx+8], ecx

; 486  : 
; 487  :         if (!_Pnode->_Left->_Isnil) {

  0008b	8b 0e		 mov	 ecx, DWORD PTR [esi]
  0008d	80 79 0d 00	 cmp	 BYTE PTR [ecx+13], 0
  00091	75 03		 jne	 SHORT $LN21@Insert_nod

; 488  :             _Pnode->_Left->_Parent = _Wherenode;

  00093	89 41 04	 mov	 DWORD PTR [ecx+4], eax
$LN21@Insert_nod:

; 489  :         }
; 490  : 
; 491  :         _Pnode->_Parent = _Wherenode->_Parent;

  00096	8b 4a 04	 mov	 ecx, DWORD PTR [edx+4]
  00099	89 4e 04	 mov	 DWORD PTR [esi+4], ecx

; 492  : 
; 493  :         if (_Wherenode == _Myhead->_Parent) {

  0009c	8b 0b		 mov	 ecx, DWORD PTR [ebx]
  0009e	3b 41 04	 cmp	 eax, DWORD PTR [ecx+4]
  000a1	75 05		 jne	 SHORT $LN22@Insert_nod

; 494  :             _Myhead->_Parent = _Pnode;

  000a3	89 71 04	 mov	 DWORD PTR [ecx+4], esi
  000a6	eb 0e		 jmp	 SHORT $LN25@Insert_nod
$LN22@Insert_nod:

; 495  :         } else if (_Wherenode == _Wherenode->_Parent->_Left) {

  000a8	8b 4a 04	 mov	 ecx, DWORD PTR [edx+4]
  000ab	3b 01		 cmp	 eax, DWORD PTR [ecx]
  000ad	75 04		 jne	 SHORT $LN24@Insert_nod

; 496  :             _Wherenode->_Parent->_Left = _Pnode;

  000af	89 31		 mov	 DWORD PTR [ecx], esi

; 497  :         } else {

  000b1	eb 03		 jmp	 SHORT $LN25@Insert_nod
$LN24@Insert_nod:

; 498  :             _Wherenode->_Parent->_Right = _Pnode;

  000b3	89 71 08	 mov	 DWORD PTR [ecx+8], esi
$LN25@Insert_nod:

; 499  :         }
; 500  : 
; 501  :         _Pnode->_Left       = _Wherenode;

  000b6	89 06		 mov	 DWORD PTR [esi], eax

; 502  :         _Wherenode->_Parent = _Pnode;

  000b8	89 70 04	 mov	 DWORD PTR [eax+4], esi
$LN57@Insert_nod:

; 707  :                         _Lrotate(_Pnode);
; 708  :                     }
; 709  : 
; 710  :                     _Pnode->_Parent->_Color          = _Black; // propagate red up

  000bb	8b 48 04	 mov	 ecx, DWORD PTR [eax+4]
  000be	c6 41 0c 01	 mov	 BYTE PTR [ecx+12], 1

; 711  :                     _Pnode->_Parent->_Parent->_Color = _Red;

  000c2	8b 48 04	 mov	 ecx, DWORD PTR [eax+4]
  000c5	8b 49 04	 mov	 ecx, DWORD PTR [ecx+4]
  000c8	c6 41 0c 00	 mov	 BYTE PTR [ecx+12], 0

; 712  :                     _Rrotate(_Pnode->_Parent->_Parent);

  000cc	8b 48 04	 mov	 ecx, DWORD PTR [eax+4]
  000cf	8b 51 04	 mov	 edx, DWORD PTR [ecx+4]

; 506  :         _Nodeptr _Pnode   = _Wherenode->_Left;

  000d2	8b 32		 mov	 esi, DWORD PTR [edx]

; 507  :         _Wherenode->_Left = _Pnode->_Right;

  000d4	8b 4e 08	 mov	 ecx, DWORD PTR [esi+8]
  000d7	89 0a		 mov	 DWORD PTR [edx], ecx

; 508  : 
; 509  :         if (!_Pnode->_Right->_Isnil) {

  000d9	8b 4e 08	 mov	 ecx, DWORD PTR [esi+8]
  000dc	80 79 0d 00	 cmp	 BYTE PTR [ecx+13], 0
  000e0	75 03		 jne	 SHORT $LN29@Insert_nod

; 510  :             _Pnode->_Right->_Parent = _Wherenode;

  000e2	89 51 04	 mov	 DWORD PTR [ecx+4], edx
$LN29@Insert_nod:

; 511  :         }
; 512  : 
; 513  :         _Pnode->_Parent = _Wherenode->_Parent;

  000e5	8b 4a 04	 mov	 ecx, DWORD PTR [edx+4]
  000e8	89 4e 04	 mov	 DWORD PTR [esi+4], ecx

; 514  : 
; 515  :         if (_Wherenode == _Myhead->_Parent) {

  000eb	8b 0b		 mov	 ecx, DWORD PTR [ebx]
  000ed	3b 51 04	 cmp	 edx, DWORD PTR [ecx+4]
  000f0	75 0b		 jne	 SHORT $LN30@Insert_nod

; 516  :             _Myhead->_Parent = _Pnode;

  000f2	89 71 04	 mov	 DWORD PTR [ecx+4], esi

; 521  :         }
; 522  : 
; 523  :         _Pnode->_Right      = _Wherenode;

  000f5	89 56 08	 mov	 DWORD PTR [esi+8], edx

; 713  :                 }
; 714  :             } else { // fixup red-red in right subtree

  000f8	e9 cc 00 00 00	 jmp	 $LN81@Insert_nod
$LN30@Insert_nod:

; 517  :         } else if (_Wherenode == _Wherenode->_Parent->_Right) {

  000fd	8b 4a 04	 mov	 ecx, DWORD PTR [edx+4]
  00100	3b 51 08	 cmp	 edx, DWORD PTR [ecx+8]
  00103	75 0b		 jne	 SHORT $LN32@Insert_nod

; 518  :             _Wherenode->_Parent->_Right = _Pnode;

  00105	89 71 08	 mov	 DWORD PTR [ecx+8], esi

; 521  :         }
; 522  : 
; 523  :         _Pnode->_Right      = _Wherenode;

  00108	89 56 08	 mov	 DWORD PTR [esi+8], edx

; 713  :                 }
; 714  :             } else { // fixup red-red in right subtree

  0010b	e9 b9 00 00 00	 jmp	 $LN81@Insert_nod
$LN32@Insert_nod:

; 520  :             _Wherenode->_Parent->_Left = _Pnode;

  00110	89 31		 mov	 DWORD PTR [ecx], esi

; 521  :         }
; 522  : 
; 523  :         _Pnode->_Right      = _Wherenode;

  00112	89 56 08	 mov	 DWORD PTR [esi+8], edx

; 713  :                 }
; 714  :             } else { // fixup red-red in right subtree

  00115	e9 af 00 00 00	 jmp	 $LN81@Insert_nod
$LN10@Insert_nod:

; 715  :                 const auto _Parent_sibling = _Pnode->_Parent->_Parent->_Left;
; 716  :                 if (_Parent_sibling->_Color == _Red) { // parent's sibling has two red children, blacken both

  0011a	80 79 0c 00	 cmp	 BYTE PTR [ecx+12], 0
  0011e	75 1d		 jne	 SHORT $LN15@Insert_nod
$LN82@Insert_nod:

; 693  :             }
; 694  :         }
; 695  : 
; 696  :         for (_Nodeptr _Pnode = _Newnode; _Pnode->_Parent->_Color == _Red;) {

  00120	c6 42 0c 01	 mov	 BYTE PTR [edx+12], 1
  00124	c6 41 0c 01	 mov	 BYTE PTR [ecx+12], 1
  00128	8b 48 04	 mov	 ecx, DWORD PTR [eax+4]
  0012b	8b 49 04	 mov	 ecx, DWORD PTR [ecx+4]
  0012e	c6 41 0c 00	 mov	 BYTE PTR [ecx+12], 0
  00132	8b 48 04	 mov	 ecx, DWORD PTR [eax+4]
  00135	8b 41 04	 mov	 eax, DWORD PTR [ecx+4]
  00138	e9 8f 00 00 00	 jmp	 $LN2@Insert_nod
$LN15@Insert_nod:

; 717  :                     _Pnode->_Parent->_Color          = _Black;
; 718  :                     _Parent_sibling->_Color          = _Black;
; 719  :                     _Pnode->_Parent->_Parent->_Color = _Red;
; 720  :                     _Pnode                           = _Pnode->_Parent->_Parent;
; 721  :                 } else { // parent's sibling has red and black children
; 722  :                     if (_Pnode == _Pnode->_Parent->_Left) { // rotate left child to right

  0013d	8b 32		 mov	 esi, DWORD PTR [edx]
  0013f	3b c6		 cmp	 eax, esi
  00141	75 3a		 jne	 SHORT $LN42@Insert_nod

; 507  :         _Wherenode->_Left = _Pnode->_Right;

  00143	8b 4e 08	 mov	 ecx, DWORD PTR [esi+8]

; 723  :                         _Pnode = _Pnode->_Parent;

  00146	8b c2		 mov	 eax, edx

; 507  :         _Wherenode->_Left = _Pnode->_Right;

  00148	89 08		 mov	 DWORD PTR [eax], ecx

; 508  : 
; 509  :         if (!_Pnode->_Right->_Isnil) {

  0014a	8b 4e 08	 mov	 ecx, DWORD PTR [esi+8]
  0014d	80 79 0d 00	 cmp	 BYTE PTR [ecx+13], 0
  00151	75 03		 jne	 SHORT $LN37@Insert_nod

; 510  :             _Pnode->_Right->_Parent = _Wherenode;

  00153	89 41 04	 mov	 DWORD PTR [ecx+4], eax
$LN37@Insert_nod:

; 511  :         }
; 512  : 
; 513  :         _Pnode->_Parent = _Wherenode->_Parent;

  00156	8b 4a 04	 mov	 ecx, DWORD PTR [edx+4]
  00159	89 4e 04	 mov	 DWORD PTR [esi+4], ecx

; 514  : 
; 515  :         if (_Wherenode == _Myhead->_Parent) {

  0015c	8b 0b		 mov	 ecx, DWORD PTR [ebx]
  0015e	3b 41 04	 cmp	 eax, DWORD PTR [ecx+4]
  00161	75 05		 jne	 SHORT $LN38@Insert_nod

; 516  :             _Myhead->_Parent = _Pnode;

  00163	89 71 04	 mov	 DWORD PTR [ecx+4], esi
  00166	eb 0f		 jmp	 SHORT $LN41@Insert_nod
$LN38@Insert_nod:

; 517  :         } else if (_Wherenode == _Wherenode->_Parent->_Right) {

  00168	8b 4a 04	 mov	 ecx, DWORD PTR [edx+4]
  0016b	3b 41 08	 cmp	 eax, DWORD PTR [ecx+8]
  0016e	75 05		 jne	 SHORT $LN40@Insert_nod

; 518  :             _Wherenode->_Parent->_Right = _Pnode;

  00170	89 71 08	 mov	 DWORD PTR [ecx+8], esi

; 519  :         } else {

  00173	eb 02		 jmp	 SHORT $LN41@Insert_nod
$LN40@Insert_nod:

; 520  :             _Wherenode->_Parent->_Left = _Pnode;

  00175	89 31		 mov	 DWORD PTR [ecx], esi
$LN41@Insert_nod:

; 521  :         }
; 522  : 
; 523  :         _Pnode->_Right      = _Wherenode;

  00177	89 46 08	 mov	 DWORD PTR [esi+8], eax

; 524  :         _Wherenode->_Parent = _Pnode;

  0017a	89 70 04	 mov	 DWORD PTR [eax+4], esi
$LN42@Insert_nod:

; 724  :                         _Rrotate(_Pnode);
; 725  :                     }
; 726  : 
; 727  :                     _Pnode->_Parent->_Color          = _Black; // propagate red up

  0017d	8b 48 04	 mov	 ecx, DWORD PTR [eax+4]
  00180	c6 41 0c 01	 mov	 BYTE PTR [ecx+12], 1

; 728  :                     _Pnode->_Parent->_Parent->_Color = _Red;

  00184	8b 48 04	 mov	 ecx, DWORD PTR [eax+4]
  00187	8b 49 04	 mov	 ecx, DWORD PTR [ecx+4]
  0018a	c6 41 0c 00	 mov	 BYTE PTR [ecx+12], 0

; 729  :                     _Lrotate(_Pnode->_Parent->_Parent);

  0018e	8b 48 04	 mov	 ecx, DWORD PTR [eax+4]
  00191	8b 51 04	 mov	 edx, DWORD PTR [ecx+4]

; 484  :         _Nodeptr _Pnode    = _Wherenode->_Right;

  00194	8b 72 08	 mov	 esi, DWORD PTR [edx+8]

; 485  :         _Wherenode->_Right = _Pnode->_Left;

  00197	8b 0e		 mov	 ecx, DWORD PTR [esi]
  00199	89 4a 08	 mov	 DWORD PTR [edx+8], ecx

; 486  : 
; 487  :         if (!_Pnode->_Left->_Isnil) {

  0019c	8b 0e		 mov	 ecx, DWORD PTR [esi]
  0019e	80 79 0d 00	 cmp	 BYTE PTR [ecx+13], 0
  001a2	75 03		 jne	 SHORT $LN45@Insert_nod

; 488  :             _Pnode->_Left->_Parent = _Wherenode;

  001a4	89 51 04	 mov	 DWORD PTR [ecx+4], edx
$LN45@Insert_nod:

; 489  :         }
; 490  : 
; 491  :         _Pnode->_Parent = _Wherenode->_Parent;

  001a7	8b 4a 04	 mov	 ecx, DWORD PTR [edx+4]
  001aa	89 4e 04	 mov	 DWORD PTR [esi+4], ecx

; 492  : 
; 493  :         if (_Wherenode == _Myhead->_Parent) {

  001ad	8b 0b		 mov	 ecx, DWORD PTR [ebx]
  001af	3b 51 04	 cmp	 edx, DWORD PTR [ecx+4]
  001b2	75 05		 jne	 SHORT $LN46@Insert_nod

; 494  :             _Myhead->_Parent = _Pnode;

  001b4	89 71 04	 mov	 DWORD PTR [ecx+4], esi
  001b7	eb 0e		 jmp	 SHORT $LN49@Insert_nod
$LN46@Insert_nod:

; 495  :         } else if (_Wherenode == _Wherenode->_Parent->_Left) {

  001b9	8b 4a 04	 mov	 ecx, DWORD PTR [edx+4]
  001bc	3b 11		 cmp	 edx, DWORD PTR [ecx]
  001be	75 04		 jne	 SHORT $LN48@Insert_nod

; 496  :             _Wherenode->_Parent->_Left = _Pnode;

  001c0	89 31		 mov	 DWORD PTR [ecx], esi

; 497  :         } else {

  001c2	eb 03		 jmp	 SHORT $LN49@Insert_nod
$LN48@Insert_nod:

; 498  :             _Wherenode->_Parent->_Right = _Pnode;

  001c4	89 71 08	 mov	 DWORD PTR [ecx+8], esi
$LN49@Insert_nod:

; 499  :         }
; 500  : 
; 501  :         _Pnode->_Left       = _Wherenode;

  001c7	89 16		 mov	 DWORD PTR [esi], edx
$LN81@Insert_nod:

; 693  :             }
; 694  :         }
; 695  : 
; 696  :         for (_Nodeptr _Pnode = _Newnode; _Pnode->_Parent->_Color == _Red;) {

  001c9	89 72 04	 mov	 DWORD PTR [edx+4], esi
$LN2@Insert_nod:
  001cc	8b 48 04	 mov	 ecx, DWORD PTR [eax+4]
  001cf	80 79 0c 00	 cmp	 BYTE PTR [ecx+12], 0
  001d3	0f 84 87 fe ff
	ff		 je	 $LL4@Insert_nod
  001d9	5e		 pop	 esi
$LN3@Insert_nod:

; 730  :                 }
; 731  :             }
; 732  :         }
; 733  : 
; 734  :         _Head->_Parent->_Color = _Black; // root is always black

  001da	8b 45 fc	 mov	 eax, DWORD PTR __Head$1$[ebp]
  001dd	8b 40 04	 mov	 eax, DWORD PTR [eax+4]
  001e0	c6 40 0c 01	 mov	 BYTE PTR [eax+12], 1

; 735  :         return _Newnode;
; 736  :     }

  001e4	8b c7		 mov	 eax, edi
  001e6	5f		 pop	 edi
  001e7	5b		 pop	 ebx
  001e8	8b e5		 mov	 esp, ebp
  001ea	5d		 pop	 ebp
  001eb	c2 0c 00	 ret	 12			; 0000000cH
?_Insert_node@?$_Tree_val@U?$_Tree_simple_types@U?$pair@$$CBHPAVCSpawn@@@std@@@std@@@std@@QAEPAU?$_Tree_node@U?$pair@$$CBHPAVCSpawn@@@std@@PAX@2@U?$_Tree_id@PAU?$_Tree_node@U?$pair@$$CBHPAVCSpawn@@@std@@PAX@std@@@2@QAU32@@Z ENDP ; std::_Tree_val<std::_Tree_simple_types<std::pair<int const ,CSpawn *> > >::_Insert_node
_TEXT	ENDS
; Function compile flags: /Ogtp
; File C:\Program Files\Microsoft Visual Studio\2022\Professional\VC\Tools\MSVC\14.44.35207\include\xtree
; File C:\Program Files\Microsoft Visual Studio\2022\Professional\VC\Tools\MSVC\14.44.35207\include\utility
; File C:\Program Files\Microsoft Visual Studio\2022\Professional\VC\Tools\MSVC\14.44.35207\include\xmemory
; File C:\Program Files\Microsoft Visual Studio\2022\Professional\VC\Tools\MSVC\14.44.35207\include\xtree
; File C:\Program Files\Microsoft Visual Studio\2022\Professional\VC\Tools\MSVC\14.44.35207\include\xmemory
; File C:\Program Files\Microsoft Visual Studio\2022\Professional\VC\Tools\MSVC\14.44.35207\include\xtree
;	COMDAT ??1?$_Tree@V?$_Tmap_traits@HPAVCSpawn@@U?$less@H@std@@V?$allocator@U?$pair@$$CBHPAVCSpawn@@@std@@@3@$0A@@std@@@std@@QAE@XZ
_TEXT	SEGMENT
??1?$_Tree@V?$_Tmap_traits@HPAVCSpawn@@U?$less@H@std@@V?$allocator@U?$pair@$$CBHPAVCSpawn@@@std@@@3@$0A@@std@@@std@@QAE@XZ PROC ; std::_Tree<std::_Tmap_traits<int,CSpawn *,std::less<int>,std::allocator<std::pair<int const ,CSpawn *> >,0> >::~_Tree<std::_Tmap_traits<int,CSpawn *,std::less<int>,std::allocator<std::pair<int const ,CSpawn *> >,0> >, COMDAT
; _this$ = ecx

; 1095 :     ~_Tree() noexcept {

  00000	56		 push	 esi
  00001	57		 push	 edi
  00002	8b f9		 mov	 edi, ecx

; 777  :         _Erase_tree(_Al, _Myhead->_Parent);

  00004	8b 37		 mov	 esi, DWORD PTR [edi]
  00006	8b 76 04	 mov	 esi, DWORD PTR [esi+4]

; 768  :         while (!_Rootnode->_Isnil) { // free subtrees, then node

  00009	80 7e 0d 00	 cmp	 BYTE PTR [esi+13], 0
  0000d	75 21		 jne	 SHORT $LN61@Tree
  0000f	90		 npad	 1
$LL8@Tree:

; 769  :             _Erase_tree(_Al, _Rootnode->_Right);

  00010	ff 76 08	 push	 DWORD PTR [esi+8]
  00013	8b cf		 mov	 ecx, edi
  00015	57		 push	 edi
  00016	e8 00 00 00 00	 call	 ??$_Erase_tree@V?$allocator@U?$_Tree_node@U?$pair@$$CBHPAVCSpawn@@@std@@PAX@std@@@std@@@?$_Tree_val@U?$_Tree_simple_types@U?$pair@$$CBHPAVCSpawn@@@std@@@std@@@std@@QAEXAAV?$allocator@U?$_Tree_node@U?$pair@$$CBHPAVCSpawn@@@std@@PAX@std@@@1@PAU?$_Tree_node@U?$pair@$$CBHPAVCSpawn@@@std@@PAX@1@@Z ; std::_Tree_val<std::_Tree_simple_types<std::pair<int const ,CSpawn *> > >::_Erase_tree<std::allocator<std::_Tree_node<std::pair<int const ,CSpawn *>,void *> > >
; File C:\Program Files\Microsoft Visual Studio\2022\Professional\VC\Tools\MSVC\14.44.35207\include\utility

; 773  :     _Ty _Old_val = static_cast<_Ty&&>(_Val);

  0001b	8b c6		 mov	 eax, esi

; 774  :     _Val         = static_cast<_Other&&>(_New_val);

  0001d	8b 36		 mov	 esi, DWORD PTR [esi]
; File C:\Program Files\Microsoft Visual Studio\2022\Professional\VC\Tools\MSVC\14.44.35207\include\xmemory

; 289  :         ::operator delete(_Ptr, _Bytes);

  0001f	6a 18		 push	 24			; 00000018H
  00021	50		 push	 eax
  00022	e8 00 00 00 00	 call	 ??3@YAXPAXI@Z		; operator delete
  00027	83 c4 08	 add	 esp, 8
; File C:\Program Files\Microsoft Visual Studio\2022\Professional\VC\Tools\MSVC\14.44.35207\include\xtree

; 768  :         while (!_Rootnode->_Isnil) { // free subtrees, then node

  0002a	80 7e 0d 00	 cmp	 BYTE PTR [esi+13], 0
  0002e	74 e0		 je	 SHORT $LL8@Tree
$LN61@Tree:
; File C:\Program Files\Microsoft Visual Studio\2022\Professional\VC\Tools\MSVC\14.44.35207\include\xmemory

; 289  :         ::operator delete(_Ptr, _Bytes);

  00030	6a 18		 push	 24			; 00000018H
  00032	ff 37		 push	 DWORD PTR [edi]
  00034	e8 00 00 00 00	 call	 ??3@YAXPAXI@Z		; operator delete
  00039	83 c4 08	 add	 esp, 8
  0003c	5f		 pop	 edi
  0003d	5e		 pop	 esi
; File C:\Program Files\Microsoft Visual Studio\2022\Professional\VC\Tools\MSVC\14.44.35207\include\xtree

; 1102 :     }

  0003e	c3		 ret	 0
??1?$_Tree@V?$_Tmap_traits@HPAVCSpawn@@U?$less@H@std@@V?$allocator@U?$pair@$$CBHPAVCSpawn@@@std@@@3@$0A@@std@@@std@@QAE@XZ ENDP ; std::_Tree<std::_Tmap_traits<int,CSpawn *,std::less<int>,std::allocator<std::pair<int const ,CSpawn *> >,0> >::~_Tree<std::_Tmap_traits<int,CSpawn *,std::less<int>,std::allocator<std::pair<int const ,CSpawn *> >,0> >
_TEXT	ENDS
; Function compile flags: /Ogtp
; File C:\Program Files\Microsoft Visual Studio\2022\Professional\VC\Tools\MSVC\14.44.35207\include\vector
;	COMDAT ?_Xlength@?$vector@U_REGION_GENERIC@@V?$allocator@U_REGION_GENERIC@@@std@@@std@@CAXXZ
_TEXT	SEGMENT
?_Xlength@?$vector@U_REGION_GENERIC@@V?$allocator@U_REGION_GENERIC@@@std@@@std@@CAXXZ PROC ; std::vector<_REGION_GENERIC,std::allocator<_REGION_GENERIC> >::_Xlength, COMDAT

; 2184 :         _Xlength_error("vector too long");

  00000	68 00 00 00 00	 push	 OFFSET ??_C@_0BA@FOIKENOD@vector?5too?5long@
  00005	e8 00 00 00 00	 call	 ?_Xlength_error@std@@YAXPBD@Z ; std::_Xlength_error
$LN3@Xlength:
  0000a	cc		 int	 3
?_Xlength@?$vector@U_REGION_GENERIC@@V?$allocator@U_REGION_GENERIC@@@std@@@std@@CAXXZ ENDP ; std::vector<_REGION_GENERIC,std::allocator<_REGION_GENERIC> >::_Xlength
_TEXT	ENDS
; Function compile flags: /Ogtp
; File C:\Program Files\Microsoft Visual Studio\2022\Professional\VC\Tools\MSVC\14.44.35207\include\vector
; File C:\Program Files\Microsoft Visual Studio\2022\Professional\VC\Tools\MSVC\14.44.35207\include\xmemory
; File C:\Program Files\Microsoft Visual Studio\2022\Professional\VC\Tools\MSVC\14.44.35207\include\vector
; File C:\Program Files\Microsoft Visual Studio\2022\Professional\VC\Tools\MSVC\14.44.35207\include\xmemory
; File C:\Program Files\Microsoft Visual Studio\2022\Professional\VC\Tools\MSVC\14.44.35207\include\vector
; File C:\Program Files\Microsoft Visual Studio\2022\Professional\VC\Tools\MSVC\14.44.35207\include\xmemory
; File C:\Program Files\Microsoft Visual Studio\2022\Professional\VC\Tools\MSVC\14.44.35207\include\vector
;	COMDAT ??1?$vector@U_REGION_GENERIC@@V?$allocator@U_REGION_GENERIC@@@std@@@std@@QAE@XZ
_TEXT	SEGMENT
??1?$vector@U_REGION_GENERIC@@V?$allocator@U_REGION_GENERIC@@@std@@@std@@QAE@XZ PROC ; std::vector<_REGION_GENERIC,std::allocator<_REGION_GENERIC> >::~vector<_REGION_GENERIC,std::allocator<_REGION_GENERIC> >, COMDAT
; _this$ = ecx

; 829  :     _CONSTEXPR20 ~vector() noexcept {

  00000	56		 push	 esi
  00001	57		 push	 edi
  00002	8b f9		 mov	 edi, ecx

; 2090 :         if (_Myfirst) { // destroy and deallocate old array

  00004	8b 37		 mov	 esi, DWORD PTR [edi]
  00006	85 f6		 test	 esi, esi
  00008	74 53		 je	 SHORT $LN5@vector

; 2091 :             _STD _Destroy_range(_Myfirst, _Mylast, _Al);
; 2092 :             _ASAN_VECTOR_REMOVE;
; 2093 :             _Al.deallocate(_Myfirst, static_cast<size_type>(_Myend - _Myfirst));

  0000a	8b 4f 08	 mov	 ecx, DWORD PTR [edi+8]
  0000d	b8 ab aa aa 2a	 mov	 eax, 715827883		; 2aaaaaabH
  00012	2b ce		 sub	 ecx, esi
  00014	f7 e9		 imul	 ecx
  00016	d1 fa		 sar	 edx, 1
  00018	8b c2		 mov	 eax, edx
  0001a	c1 e8 1f	 shr	 eax, 31			; 0000001fH
  0001d	03 c2		 add	 eax, edx
; File C:\Program Files\Microsoft Visual Studio\2022\Professional\VC\Tools\MSVC\14.44.35207\include\xmemory

; 985  :         _STD _Deallocate<_New_alignof<_Ty>>(_Ptr, sizeof(_Ty) * _Count);

  0001f	8d 0c 40	 lea	 ecx, DWORD PTR [eax+eax*2]
  00022	c1 e1 02	 shl	 ecx, 2

; 284  :         if (_Bytes >= _Big_allocation_threshold) {

  00025	81 f9 00 10 00
	00		 cmp	 ecx, 4096		; 00001000H
  0002b	72 12		 jb	 SHORT $LN18@vector

; 205  :     const uintptr_t _Ptr_container   = _Ptr_user[-1];

  0002d	8b 56 fc	 mov	 edx, DWORD PTR [esi-4]
  00030	83 c1 23	 add	 ecx, 35			; 00000023H

; 206  : 
; 207  :     // If the following asserts, it likely means that we are performing
; 208  :     // an aligned delete on memory coming from an unaligned allocation.
; 209  :     _STL_ASSERT(_Ptr_user[-2] == _Big_allocation_sentinel, "invalid argument");
; 210  : 
; 211  :     // Extra paranoia on aligned allocation/deallocation; ensure _Ptr_container is
; 212  :     // in range [_Min_back_shift, _Non_user_size]
; 213  : #ifdef _DEBUG
; 214  :     constexpr uintptr_t _Min_back_shift = 2 * sizeof(void*);
; 215  : #else // ^^^ defined(_DEBUG) / !defined(_DEBUG) vvv
; 216  :     constexpr uintptr_t _Min_back_shift = sizeof(void*);
; 217  : #endif // ^^^ !defined(_DEBUG) ^^^
; 218  :     const uintptr_t _Back_shift = reinterpret_cast<uintptr_t>(_Ptr) - _Ptr_container;

  00033	2b f2		 sub	 esi, edx

; 219  :     _STL_VERIFY(_Back_shift >= _Min_back_shift && _Back_shift <= _Non_user_size, "invalid argument");

  00035	8d 46 fc	 lea	 eax, DWORD PTR [esi-4]
  00038	83 f8 1f	 cmp	 eax, 31			; 0000001fH
  0003b	77 23		 ja	 SHORT $LN17@vector

; 220  :     _Ptr = reinterpret_cast<void*>(_Ptr_container);

  0003d	8b f2		 mov	 esi, edx
$LN18@vector:

; 289  :         ::operator delete(_Ptr, _Bytes);

  0003f	51		 push	 ecx
  00040	56		 push	 esi
  00041	e8 00 00 00 00	 call	 ??3@YAXPAXI@Z		; operator delete
; File C:\Program Files\Microsoft Visual Studio\2022\Professional\VC\Tools\MSVC\14.44.35207\include\vector

; 2095 :             _Myfirst = nullptr;

  00046	c7 07 00 00 00
	00		 mov	 DWORD PTR [edi], 0
; File C:\Program Files\Microsoft Visual Studio\2022\Professional\VC\Tools\MSVC\14.44.35207\include\xmemory

; 289  :         ::operator delete(_Ptr, _Bytes);

  0004c	83 c4 08	 add	 esp, 8
; File C:\Program Files\Microsoft Visual Studio\2022\Professional\VC\Tools\MSVC\14.44.35207\include\vector

; 2096 :             _Mylast  = nullptr;

  0004f	c7 47 04 00 00
	00 00		 mov	 DWORD PTR [edi+4], 0

; 2097 :             _Myend   = nullptr;

  00056	c7 47 08 00 00
	00 00		 mov	 DWORD PTR [edi+8], 0
$LN5@vector:
  0005d	5f		 pop	 edi

; 835  :     }

  0005e	5e		 pop	 esi
  0005f	c3		 ret	 0
$LN17@vector:
; File C:\Program Files\Microsoft Visual Studio\2022\Professional\VC\Tools\MSVC\14.44.35207\include\xmemory

; 219  :     _STL_VERIFY(_Back_shift >= _Min_back_shift && _Back_shift <= _Non_user_size, "invalid argument");

  00060	6a 00		 push	 0
  00062	6a 00		 push	 0
  00064	6a 00		 push	 0
  00066	6a 00		 push	 0
  00068	6a 00		 push	 0
  0006a	e8 00 00 00 00	 call	 __invoke_watson
$LN26@vector:
  0006f	cc		 int	 3
??1?$vector@U_REGION_GENERIC@@V?$allocator@U_REGION_GENERIC@@@std@@@std@@QAE@XZ ENDP ; std::vector<_REGION_GENERIC,std::allocator<_REGION_GENERIC> >::~vector<_REGION_GENERIC,std::allocator<_REGION_GENERIC> >
_TEXT	ENDS
; Function compile flags: /Ogtp
;	COMDAT ??1?$map@HPAV?$list@PAVCEventItem@@V?$allocator@PAVCEventItem@@@std@@@std@@U?$less@H@2@V?$allocator@U?$pair@$$CBHPAV?$list@PAVCEventItem@@V?$allocator@PAVCEventItem@@@std@@@std@@@std@@@2@@std@@QAE@XZ
_TEXT	SEGMENT
??1?$map@HPAV?$list@PAVCEventItem@@V?$allocator@PAVCEventItem@@@std@@@std@@U?$less@H@2@V?$allocator@U?$pair@$$CBHPAV?$list@PAVCEventItem@@V?$allocator@PAVCEventItem@@@std@@@std@@@std@@@2@@std@@QAE@XZ PROC ; std::map<int,std::list<CEventItem *,std::allocator<CEventItem *> > *,std::less<int>,std::allocator<std::pair<int const ,std::list<CEventItem *,std::allocator<CEventItem *> > *> > >::~map<int,std::list<CEventItem *,std::allocator<CEventItem *> > *,std::less<int>,std::allocator<std::pair<int const ,std::list<CEventItem *,std::allocator<CEventItem *> > *> > >, COMDAT
; _this$ = ecx
  00000	e9 00 00 00 00	 jmp	 ??1?$_Tree@V?$_Tmap_traits@HPAV?$list@PAVCEventItem@@V?$allocator@PAVCEventItem@@@std@@@std@@U?$less@H@2@V?$allocator@U?$pair@$$CBHPAV?$list@PAVCEventItem@@V?$allocator@PAVCEventItem@@@std@@@std@@@std@@@2@$0A@@std@@@std@@QAE@XZ ; std::_Tree<std::_Tmap_traits<int,std::list<CEventItem *,std::allocator<CEventItem *> > *,std::less<int>,std::allocator<std::pair<int const ,std::list<CEventItem *,std::allocator<CEventItem *> > *> >,0> >::~_Tree<std::_Tmap_traits<int,std::list<CEventItem *,std::allocator<CEventItem *> > *,std::less<int>,std::allocator<std::pair<int const ,std::list<CEventItem *,std::allocator<CEventItem *> > *> >,0> >
??1?$map@HPAV?$list@PAVCEventItem@@V?$allocator@PAVCEventItem@@@std@@@std@@U?$less@H@2@V?$allocator@U?$pair@$$CBHPAV?$list@PAVCEventItem@@V?$allocator@PAVCEventItem@@@std@@@std@@@std@@@2@@std@@QAE@XZ ENDP ; std::map<int,std::list<CEventItem *,std::allocator<CEventItem *> > *,std::less<int>,std::allocator<std::pair<int const ,std::list<CEventItem *,std::allocator<CEventItem *> > *> > >::~map<int,std::list<CEventItem *,std::allocator<CEventItem *> > *,std::less<int>,std::allocator<std::pair<int const ,std::list<CEventItem *,std::allocator<CEventItem *> > *> > >
_TEXT	ENDS
; Function compile flags: /Ogtp
; File C:\Program Files\Microsoft Visual Studio\2022\Professional\VC\Tools\MSVC\14.44.35207\include\xtree
;	COMDAT ?_Insert_node@?$_Tree_val@U?$_Tree_simple_types@U?$pair@$$CBHPAV?$list@PAVCEventItem@@V?$allocator@PAVCEventItem@@@std@@@std@@@std@@@std@@@std@@QAEPAU?$_Tree_node@U?$pair@$$CBHPAV?$list@PAVCEventItem@@V?$allocator@PAVCEventItem@@@std@@@std@@@std@@PAX@2@U?$_Tree_id@PAU?$_Tree_node@U?$pair@$$CBHPAV?$list@PAVCEventItem@@V?$allocator@PAVCEventItem@@@std@@@std@@@std@@PAX@std@@@2@QAU32@@Z
_TEXT	SEGMENT
__Head$1$ = -4						; size = 4
__Loc$ = 8						; size = 8
__Newnode$ = 16						; size = 4
?_Insert_node@?$_Tree_val@U?$_Tree_simple_types@U?$pair@$$CBHPAV?$list@PAVCEventItem@@V?$allocator@PAVCEventItem@@@std@@@std@@@std@@@std@@@std@@QAEPAU?$_Tree_node@U?$pair@$$CBHPAV?$list@PAVCEventItem@@V?$allocator@PAVCEventItem@@@std@@@std@@@std@@PAX@2@U?$_Tree_id@PAU?$_Tree_node@U?$pair@$$CBHPAV?$list@PAVCEventItem@@V?$allocator@PAVCEventItem@@@std@@@std@@@std@@PAX@std@@@2@QAU32@@Z PROC ; std::_Tree_val<std::_Tree_simple_types<std::pair<int const ,std::list<CEventItem *,std::allocator<CEventItem *> > *> > >::_Insert_node, COMDAT
; _this$ = ecx

; 669  :     _Nodeptr _Insert_node(const _Tree_id<_Nodeptr> _Loc, const _Nodeptr _Newnode) noexcept {

  00000	55		 push	 ebp
  00001	8b ec		 mov	 ebp, esp
  00003	51		 push	 ecx

; 670  :         ++_Mysize;
; 671  :         const auto _Head  = _Myhead;
; 672  :         _Newnode->_Parent = _Loc._Parent;

  00004	8b 55 08	 mov	 edx, DWORD PTR __Loc$[ebp]
  00007	53		 push	 ebx
  00008	8b d9		 mov	 ebx, ecx
  0000a	57		 push	 edi
  0000b	8b 7d 10	 mov	 edi, DWORD PTR __Newnode$[ebp]
  0000e	8b 03		 mov	 eax, DWORD PTR [ebx]
  00010	ff 43 04	 inc	 DWORD PTR [ebx+4]
  00013	89 45 fc	 mov	 DWORD PTR __Head$1$[ebp], eax
  00016	89 57 04	 mov	 DWORD PTR [edi+4], edx

; 673  :         if (_Loc._Parent == _Head) { // first node in tree, just set head values

  00019	3b d0		 cmp	 edx, eax
  0001b	75 16		 jne	 SHORT $LN5@Insert_nod

; 674  :             _Head->_Left     = _Newnode;

  0001d	89 38		 mov	 DWORD PTR [eax], edi

; 675  :             _Head->_Parent   = _Newnode;

  0001f	89 78 04	 mov	 DWORD PTR [eax+4], edi

; 676  :             _Head->_Right    = _Newnode;

  00022	89 78 08	 mov	 DWORD PTR [eax+8], edi

; 735  :         return _Newnode;
; 736  :     }

  00025	8b c7		 mov	 eax, edi
  00027	c6 47 0c 01	 mov	 BYTE PTR [edi+12], 1
  0002b	5f		 pop	 edi
  0002c	5b		 pop	 ebx
  0002d	8b e5		 mov	 esp, ebp
  0002f	5d		 pop	 ebp
  00030	c2 0c 00	 ret	 12			; 0000000cH
$LN5@Insert_nod:

; 677  :             _Newnode->_Color = _Black; // the root is black
; 678  :             return _Newnode;
; 679  :         }
; 680  : 
; 681  :         _STL_INTERNAL_CHECK(_Loc._Child != _Tree_child::_Unused);
; 682  :         if (_Loc._Child == _Tree_child::_Right) { // add to right of _Loc._Parent

  00033	83 7d 0c 00	 cmp	 DWORD PTR __Loc$[ebp+4], 0
  00037	75 0d		 jne	 SHORT $LN6@Insert_nod

; 683  :             _STL_INTERNAL_CHECK(_Loc._Parent->_Right->_Isnil);
; 684  :             _Loc._Parent->_Right = _Newnode;

  00039	89 7a 08	 mov	 DWORD PTR [edx+8], edi

; 685  :             if (_Loc._Parent == _Head->_Right) { // remember rightmost node

  0003c	3b 50 08	 cmp	 edx, DWORD PTR [eax+8]
  0003f	75 0d		 jne	 SHORT $LN9@Insert_nod

; 686  :                 _Head->_Right = _Newnode;

  00041	89 78 08	 mov	 DWORD PTR [eax+8], edi

; 687  :             }
; 688  :         } else { // add to left of _Loc._Parent

  00044	eb 08		 jmp	 SHORT $LN9@Insert_nod
$LN6@Insert_nod:

; 689  :             _STL_INTERNAL_CHECK(_Loc._Parent->_Left->_Isnil);
; 690  :             _Loc._Parent->_Left = _Newnode;

  00046	89 3a		 mov	 DWORD PTR [edx], edi

; 691  :             if (_Loc._Parent == _Head->_Left) { // remember leftmost node

  00048	3b 10		 cmp	 edx, DWORD PTR [eax]
  0004a	75 02		 jne	 SHORT $LN9@Insert_nod

; 692  :                 _Head->_Left = _Newnode;

  0004c	89 38		 mov	 DWORD PTR [eax], edi
$LN9@Insert_nod:

; 693  :             }
; 694  :         }
; 695  : 
; 696  :         for (_Nodeptr _Pnode = _Newnode; _Pnode->_Parent->_Color == _Red;) {

  0004e	8b 4f 04	 mov	 ecx, DWORD PTR [edi+4]
  00051	8b c7		 mov	 eax, edi
  00053	80 79 0c 00	 cmp	 BYTE PTR [ecx+12], 0
  00057	0f 85 7d 01 00
	00		 jne	 $LN3@Insert_nod
  0005d	56		 push	 esi
  0005e	66 90		 npad	 2
$LL4@Insert_nod:

; 697  :             if (_Pnode->_Parent == _Pnode->_Parent->_Parent->_Left) { // fixup red-red in left subtree

  00060	8b 50 04	 mov	 edx, DWORD PTR [eax+4]
  00063	8b 72 04	 mov	 esi, DWORD PTR [edx+4]
  00066	8b 0e		 mov	 ecx, DWORD PTR [esi]
  00068	3b d1		 cmp	 edx, ecx
  0006a	0f 85 aa 00 00
	00		 jne	 $LN10@Insert_nod

; 698  :                 const auto _Parent_sibling = _Pnode->_Parent->_Parent->_Right;

  00070	8b 4e 08	 mov	 ecx, DWORD PTR [esi+8]

; 699  :                 if (_Parent_sibling->_Color == _Red) { // parent's sibling has two red children, blacken both

  00073	80 79 0c 00	 cmp	 BYTE PTR [ecx+12], 0
  00077	0f 84 a3 00 00
	00		 je	 $LN82@Insert_nod

; 700  :                     _Pnode->_Parent->_Color          = _Black;
; 701  :                     _Parent_sibling->_Color          = _Black;
; 702  :                     _Pnode->_Parent->_Parent->_Color = _Red;
; 703  :                     _Pnode                           = _Pnode->_Parent->_Parent;
; 704  :                 } else { // parent's sibling has red and black children
; 705  :                     if (_Pnode == _Pnode->_Parent->_Right) { // rotate right child to left

  0007d	8b 72 08	 mov	 esi, DWORD PTR [edx+8]
  00080	3b c6		 cmp	 eax, esi
  00082	75 37		 jne	 SHORT $LN57@Insert_nod

; 485  :         _Wherenode->_Right = _Pnode->_Left;

  00084	8b 0e		 mov	 ecx, DWORD PTR [esi]

; 706  :                         _Pnode = _Pnode->_Parent;

  00086	8b c2		 mov	 eax, edx

; 485  :         _Wherenode->_Right = _Pnode->_Left;

  00088	89 4a 08	 mov	 DWORD PTR [edx+8], ecx

; 486  : 
; 487  :         if (!_Pnode->_Left->_Isnil) {

  0008b	8b 0e		 mov	 ecx, DWORD PTR [esi]
  0008d	80 79 0d 00	 cmp	 BYTE PTR [ecx+13], 0
  00091	75 03		 jne	 SHORT $LN21@Insert_nod

; 488  :             _Pnode->_Left->_Parent = _Wherenode;

  00093	89 41 04	 mov	 DWORD PTR [ecx+4], eax
$LN21@Insert_nod:

; 489  :         }
; 490  : 
; 491  :         _Pnode->_Parent = _Wherenode->_Parent;

  00096	8b 4a 04	 mov	 ecx, DWORD PTR [edx+4]
  00099	89 4e 04	 mov	 DWORD PTR [esi+4], ecx

; 492  : 
; 493  :         if (_Wherenode == _Myhead->_Parent) {

  0009c	8b 0b		 mov	 ecx, DWORD PTR [ebx]
  0009e	3b 41 04	 cmp	 eax, DWORD PTR [ecx+4]
  000a1	75 05		 jne	 SHORT $LN22@Insert_nod

; 494  :             _Myhead->_Parent = _Pnode;

  000a3	89 71 04	 mov	 DWORD PTR [ecx+4], esi
  000a6	eb 0e		 jmp	 SHORT $LN25@Insert_nod
$LN22@Insert_nod:

; 495  :         } else if (_Wherenode == _Wherenode->_Parent->_Left) {

  000a8	8b 4a 04	 mov	 ecx, DWORD PTR [edx+4]
  000ab	3b 01		 cmp	 eax, DWORD PTR [ecx]
  000ad	75 04		 jne	 SHORT $LN24@Insert_nod

; 496  :             _Wherenode->_Parent->_Left = _Pnode;

  000af	89 31		 mov	 DWORD PTR [ecx], esi

; 497  :         } else {

  000b1	eb 03		 jmp	 SHORT $LN25@Insert_nod
$LN24@Insert_nod:

; 498  :             _Wherenode->_Parent->_Right = _Pnode;

  000b3	89 71 08	 mov	 DWORD PTR [ecx+8], esi
$LN25@Insert_nod:

; 499  :         }
; 500  : 
; 501  :         _Pnode->_Left       = _Wherenode;

  000b6	89 06		 mov	 DWORD PTR [esi], eax

; 502  :         _Wherenode->_Parent = _Pnode;

  000b8	89 70 04	 mov	 DWORD PTR [eax+4], esi
$LN57@Insert_nod:

; 707  :                         _Lrotate(_Pnode);
; 708  :                     }
; 709  : 
; 710  :                     _Pnode->_Parent->_Color          = _Black; // propagate red up

  000bb	8b 48 04	 mov	 ecx, DWORD PTR [eax+4]
  000be	c6 41 0c 01	 mov	 BYTE PTR [ecx+12], 1

; 711  :                     _Pnode->_Parent->_Parent->_Color = _Red;

  000c2	8b 48 04	 mov	 ecx, DWORD PTR [eax+4]
  000c5	8b 49 04	 mov	 ecx, DWORD PTR [ecx+4]
  000c8	c6 41 0c 00	 mov	 BYTE PTR [ecx+12], 0

; 712  :                     _Rrotate(_Pnode->_Parent->_Parent);

  000cc	8b 48 04	 mov	 ecx, DWORD PTR [eax+4]
  000cf	8b 51 04	 mov	 edx, DWORD PTR [ecx+4]

; 506  :         _Nodeptr _Pnode   = _Wherenode->_Left;

  000d2	8b 32		 mov	 esi, DWORD PTR [edx]

; 507  :         _Wherenode->_Left = _Pnode->_Right;

  000d4	8b 4e 08	 mov	 ecx, DWORD PTR [esi+8]
  000d7	89 0a		 mov	 DWORD PTR [edx], ecx

; 508  : 
; 509  :         if (!_Pnode->_Right->_Isnil) {

  000d9	8b 4e 08	 mov	 ecx, DWORD PTR [esi+8]
  000dc	80 79 0d 00	 cmp	 BYTE PTR [ecx+13], 0
  000e0	75 03		 jne	 SHORT $LN29@Insert_nod

; 510  :             _Pnode->_Right->_Parent = _Wherenode;

  000e2	89 51 04	 mov	 DWORD PTR [ecx+4], edx
$LN29@Insert_nod:

; 511  :         }
; 512  : 
; 513  :         _Pnode->_Parent = _Wherenode->_Parent;

  000e5	8b 4a 04	 mov	 ecx, DWORD PTR [edx+4]
  000e8	89 4e 04	 mov	 DWORD PTR [esi+4], ecx

; 514  : 
; 515  :         if (_Wherenode == _Myhead->_Parent) {

  000eb	8b 0b		 mov	 ecx, DWORD PTR [ebx]
  000ed	3b 51 04	 cmp	 edx, DWORD PTR [ecx+4]
  000f0	75 0b		 jne	 SHORT $LN30@Insert_nod

; 516  :             _Myhead->_Parent = _Pnode;

  000f2	89 71 04	 mov	 DWORD PTR [ecx+4], esi

; 521  :         }
; 522  : 
; 523  :         _Pnode->_Right      = _Wherenode;

  000f5	89 56 08	 mov	 DWORD PTR [esi+8], edx

; 713  :                 }
; 714  :             } else { // fixup red-red in right subtree

  000f8	e9 cc 00 00 00	 jmp	 $LN81@Insert_nod
$LN30@Insert_nod:

; 517  :         } else if (_Wherenode == _Wherenode->_Parent->_Right) {

  000fd	8b 4a 04	 mov	 ecx, DWORD PTR [edx+4]
  00100	3b 51 08	 cmp	 edx, DWORD PTR [ecx+8]
  00103	75 0b		 jne	 SHORT $LN32@Insert_nod

; 518  :             _Wherenode->_Parent->_Right = _Pnode;

  00105	89 71 08	 mov	 DWORD PTR [ecx+8], esi

; 521  :         }
; 522  : 
; 523  :         _Pnode->_Right      = _Wherenode;

  00108	89 56 08	 mov	 DWORD PTR [esi+8], edx

; 713  :                 }
; 714  :             } else { // fixup red-red in right subtree

  0010b	e9 b9 00 00 00	 jmp	 $LN81@Insert_nod
$LN32@Insert_nod:

; 520  :             _Wherenode->_Parent->_Left = _Pnode;

  00110	89 31		 mov	 DWORD PTR [ecx], esi

; 521  :         }
; 522  : 
; 523  :         _Pnode->_Right      = _Wherenode;

  00112	89 56 08	 mov	 DWORD PTR [esi+8], edx

; 713  :                 }
; 714  :             } else { // fixup red-red in right subtree

  00115	e9 af 00 00 00	 jmp	 $LN81@Insert_nod
$LN10@Insert_nod:

; 715  :                 const auto _Parent_sibling = _Pnode->_Parent->_Parent->_Left;
; 716  :                 if (_Parent_sibling->_Color == _Red) { // parent's sibling has two red children, blacken both

  0011a	80 79 0c 00	 cmp	 BYTE PTR [ecx+12], 0
  0011e	75 1d		 jne	 SHORT $LN15@Insert_nod
$LN82@Insert_nod:

; 693  :             }
; 694  :         }
; 695  : 
; 696  :         for (_Nodeptr _Pnode = _Newnode; _Pnode->_Parent->_Color == _Red;) {

  00120	c6 42 0c 01	 mov	 BYTE PTR [edx+12], 1
  00124	c6 41 0c 01	 mov	 BYTE PTR [ecx+12], 1
  00128	8b 48 04	 mov	 ecx, DWORD PTR [eax+4]
  0012b	8b 49 04	 mov	 ecx, DWORD PTR [ecx+4]
  0012e	c6 41 0c 00	 mov	 BYTE PTR [ecx+12], 0
  00132	8b 48 04	 mov	 ecx, DWORD PTR [eax+4]
  00135	8b 41 04	 mov	 eax, DWORD PTR [ecx+4]
  00138	e9 8f 00 00 00	 jmp	 $LN2@Insert_nod
$LN15@Insert_nod:

; 717  :                     _Pnode->_Parent->_Color          = _Black;
; 718  :                     _Parent_sibling->_Color          = _Black;
; 719  :                     _Pnode->_Parent->_Parent->_Color = _Red;
; 720  :                     _Pnode                           = _Pnode->_Parent->_Parent;
; 721  :                 } else { // parent's sibling has red and black children
; 722  :                     if (_Pnode == _Pnode->_Parent->_Left) { // rotate left child to right

  0013d	8b 32		 mov	 esi, DWORD PTR [edx]
  0013f	3b c6		 cmp	 eax, esi
  00141	75 3a		 jne	 SHORT $LN42@Insert_nod

; 507  :         _Wherenode->_Left = _Pnode->_Right;

  00143	8b 4e 08	 mov	 ecx, DWORD PTR [esi+8]

; 723  :                         _Pnode = _Pnode->_Parent;

  00146	8b c2		 mov	 eax, edx

; 507  :         _Wherenode->_Left = _Pnode->_Right;

  00148	89 08		 mov	 DWORD PTR [eax], ecx

; 508  : 
; 509  :         if (!_Pnode->_Right->_Isnil) {

  0014a	8b 4e 08	 mov	 ecx, DWORD PTR [esi+8]
  0014d	80 79 0d 00	 cmp	 BYTE PTR [ecx+13], 0
  00151	75 03		 jne	 SHORT $LN37@Insert_nod

; 510  :             _Pnode->_Right->_Parent = _Wherenode;

  00153	89 41 04	 mov	 DWORD PTR [ecx+4], eax
$LN37@Insert_nod:

; 511  :         }
; 512  : 
; 513  :         _Pnode->_Parent = _Wherenode->_Parent;

  00156	8b 4a 04	 mov	 ecx, DWORD PTR [edx+4]
  00159	89 4e 04	 mov	 DWORD PTR [esi+4], ecx

; 514  : 
; 515  :         if (_Wherenode == _Myhead->_Parent) {

  0015c	8b 0b		 mov	 ecx, DWORD PTR [ebx]
  0015e	3b 41 04	 cmp	 eax, DWORD PTR [ecx+4]
  00161	75 05		 jne	 SHORT $LN38@Insert_nod

; 516  :             _Myhead->_Parent = _Pnode;

  00163	89 71 04	 mov	 DWORD PTR [ecx+4], esi
  00166	eb 0f		 jmp	 SHORT $LN41@Insert_nod
$LN38@Insert_nod:

; 517  :         } else if (_Wherenode == _Wherenode->_Parent->_Right) {

  00168	8b 4a 04	 mov	 ecx, DWORD PTR [edx+4]
  0016b	3b 41 08	 cmp	 eax, DWORD PTR [ecx+8]
  0016e	75 05		 jne	 SHORT $LN40@Insert_nod

; 518  :             _Wherenode->_Parent->_Right = _Pnode;

  00170	89 71 08	 mov	 DWORD PTR [ecx+8], esi

; 519  :         } else {

  00173	eb 02		 jmp	 SHORT $LN41@Insert_nod
$LN40@Insert_nod:

; 520  :             _Wherenode->_Parent->_Left = _Pnode;

  00175	89 31		 mov	 DWORD PTR [ecx], esi
$LN41@Insert_nod:

; 521  :         }
; 522  : 
; 523  :         _Pnode->_Right      = _Wherenode;

  00177	89 46 08	 mov	 DWORD PTR [esi+8], eax

; 524  :         _Wherenode->_Parent = _Pnode;

  0017a	89 70 04	 mov	 DWORD PTR [eax+4], esi
$LN42@Insert_nod:

; 724  :                         _Rrotate(_Pnode);
; 725  :                     }
; 726  : 
; 727  :                     _Pnode->_Parent->_Color          = _Black; // propagate red up

  0017d	8b 48 04	 mov	 ecx, DWORD PTR [eax+4]
  00180	c6 41 0c 01	 mov	 BYTE PTR [ecx+12], 1

; 728  :                     _Pnode->_Parent->_Parent->_Color = _Red;

  00184	8b 48 04	 mov	 ecx, DWORD PTR [eax+4]
  00187	8b 49 04	 mov	 ecx, DWORD PTR [ecx+4]
  0018a	c6 41 0c 00	 mov	 BYTE PTR [ecx+12], 0

; 729  :                     _Lrotate(_Pnode->_Parent->_Parent);

  0018e	8b 48 04	 mov	 ecx, DWORD PTR [eax+4]
  00191	8b 51 04	 mov	 edx, DWORD PTR [ecx+4]

; 484  :         _Nodeptr _Pnode    = _Wherenode->_Right;

  00194	8b 72 08	 mov	 esi, DWORD PTR [edx+8]

; 485  :         _Wherenode->_Right = _Pnode->_Left;

  00197	8b 0e		 mov	 ecx, DWORD PTR [esi]
  00199	89 4a 08	 mov	 DWORD PTR [edx+8], ecx

; 486  : 
; 487  :         if (!_Pnode->_Left->_Isnil) {

  0019c	8b 0e		 mov	 ecx, DWORD PTR [esi]
  0019e	80 79 0d 00	 cmp	 BYTE PTR [ecx+13], 0
  001a2	75 03		 jne	 SHORT $LN45@Insert_nod

; 488  :             _Pnode->_Left->_Parent = _Wherenode;

  001a4	89 51 04	 mov	 DWORD PTR [ecx+4], edx
$LN45@Insert_nod:

; 489  :         }
; 490  : 
; 491  :         _Pnode->_Parent = _Wherenode->_Parent;

  001a7	8b 4a 04	 mov	 ecx, DWORD PTR [edx+4]
  001aa	89 4e 04	 mov	 DWORD PTR [esi+4], ecx

; 492  : 
; 493  :         if (_Wherenode == _Myhead->_Parent) {

  001ad	8b 0b		 mov	 ecx, DWORD PTR [ebx]
  001af	3b 51 04	 cmp	 edx, DWORD PTR [ecx+4]
  001b2	75 05		 jne	 SHORT $LN46@Insert_nod

; 494  :             _Myhead->_Parent = _Pnode;

  001b4	89 71 04	 mov	 DWORD PTR [ecx+4], esi
  001b7	eb 0e		 jmp	 SHORT $LN49@Insert_nod
$LN46@Insert_nod:

; 495  :         } else if (_Wherenode == _Wherenode->_Parent->_Left) {

  001b9	8b 4a 04	 mov	 ecx, DWORD PTR [edx+4]
  001bc	3b 11		 cmp	 edx, DWORD PTR [ecx]
  001be	75 04		 jne	 SHORT $LN48@Insert_nod

; 496  :             _Wherenode->_Parent->_Left = _Pnode;

  001c0	89 31		 mov	 DWORD PTR [ecx], esi

; 497  :         } else {

  001c2	eb 03		 jmp	 SHORT $LN49@Insert_nod
$LN48@Insert_nod:

; 498  :             _Wherenode->_Parent->_Right = _Pnode;

  001c4	89 71 08	 mov	 DWORD PTR [ecx+8], esi
$LN49@Insert_nod:

; 499  :         }
; 500  : 
; 501  :         _Pnode->_Left       = _Wherenode;

  001c7	89 16		 mov	 DWORD PTR [esi], edx
$LN81@Insert_nod:

; 693  :             }
; 694  :         }
; 695  : 
; 696  :         for (_Nodeptr _Pnode = _Newnode; _Pnode->_Parent->_Color == _Red;) {

  001c9	89 72 04	 mov	 DWORD PTR [edx+4], esi
$LN2@Insert_nod:
  001cc	8b 48 04	 mov	 ecx, DWORD PTR [eax+4]
  001cf	80 79 0c 00	 cmp	 BYTE PTR [ecx+12], 0
  001d3	0f 84 87 fe ff
	ff		 je	 $LL4@Insert_nod
  001d9	5e		 pop	 esi
$LN3@Insert_nod:

; 730  :                 }
; 731  :             }
; 732  :         }
; 733  : 
; 734  :         _Head->_Parent->_Color = _Black; // root is always black

  001da	8b 45 fc	 mov	 eax, DWORD PTR __Head$1$[ebp]
  001dd	8b 40 04	 mov	 eax, DWORD PTR [eax+4]
  001e0	c6 40 0c 01	 mov	 BYTE PTR [eax+12], 1

; 735  :         return _Newnode;
; 736  :     }

  001e4	8b c7		 mov	 eax, edi
  001e6	5f		 pop	 edi
  001e7	5b		 pop	 ebx
  001e8	8b e5		 mov	 esp, ebp
  001ea	5d		 pop	 ebp
  001eb	c2 0c 00	 ret	 12			; 0000000cH
?_Insert_node@?$_Tree_val@U?$_Tree_simple_types@U?$pair@$$CBHPAV?$list@PAVCEventItem@@V?$allocator@PAVCEventItem@@@std@@@std@@@std@@@std@@@std@@QAEPAU?$_Tree_node@U?$pair@$$CBHPAV?$list@PAVCEventItem@@V?$allocator@PAVCEventItem@@@std@@@std@@@std@@PAX@2@U?$_Tree_id@PAU?$_Tree_node@U?$pair@$$CBHPAV?$list@PAVCEventItem@@V?$allocator@PAVCEventItem@@@std@@@std@@@std@@PAX@std@@@2@QAU32@@Z ENDP ; std::_Tree_val<std::_Tree_simple_types<std::pair<int const ,std::list<CEventItem *,std::allocator<CEventItem *> > *> > >::_Insert_node
_TEXT	ENDS
; Function compile flags: /Ogtp
; File C:\Program Files\Microsoft Visual Studio\2022\Professional\VC\Tools\MSVC\14.44.35207\include\xtree
; File C:\Program Files\Microsoft Visual Studio\2022\Professional\VC\Tools\MSVC\14.44.35207\include\utility
; File C:\Program Files\Microsoft Visual Studio\2022\Professional\VC\Tools\MSVC\14.44.35207\include\xmemory
; File C:\Program Files\Microsoft Visual Studio\2022\Professional\VC\Tools\MSVC\14.44.35207\include\xtree
; File C:\Program Files\Microsoft Visual Studio\2022\Professional\VC\Tools\MSVC\14.44.35207\include\xmemory
; File C:\Program Files\Microsoft Visual Studio\2022\Professional\VC\Tools\MSVC\14.44.35207\include\xtree
;	COMDAT ??1?$_Tree@V?$_Tmap_traits@HPAV?$list@PAVCEventItem@@V?$allocator@PAVCEventItem@@@std@@@std@@U?$less@H@2@V?$allocator@U?$pair@$$CBHPAV?$list@PAVCEventItem@@V?$allocator@PAVCEventItem@@@std@@@std@@@std@@@2@$0A@@std@@@std@@QAE@XZ
_TEXT	SEGMENT
??1?$_Tree@V?$_Tmap_traits@HPAV?$list@PAVCEventItem@@V?$allocator@PAVCEventItem@@@std@@@std@@U?$less@H@2@V?$allocator@U?$pair@$$CBHPAV?$list@PAVCEventItem@@V?$allocator@PAVCEventItem@@@std@@@std@@@std@@@2@$0A@@std@@@std@@QAE@XZ PROC ; std::_Tree<std::_Tmap_traits<int,std::list<CEventItem *,std::allocator<CEventItem *> > *,std::less<int>,std::allocator<std::pair<int const ,std::list<CEventItem *,std::allocator<CEventItem *> > *> >,0> >::~_Tree<std::_Tmap_traits<int,std::list<CEventItem *,std::allocator<CEventItem *> > *,std::less<int>,std::allocator<std::pair<int const ,std::list<CEventItem *,std::allocator<CEventItem *> > *> >,0> >, COMDAT
; _this$ = ecx

; 1095 :     ~_Tree() noexcept {

  00000	56		 push	 esi
  00001	57		 push	 edi
  00002	8b f9		 mov	 edi, ecx

; 777  :         _Erase_tree(_Al, _Myhead->_Parent);

  00004	8b 37		 mov	 esi, DWORD PTR [edi]
  00006	8b 76 04	 mov	 esi, DWORD PTR [esi+4]

; 768  :         while (!_Rootnode->_Isnil) { // free subtrees, then node

  00009	80 7e 0d 00	 cmp	 BYTE PTR [esi+13], 0
  0000d	75 21		 jne	 SHORT $LN61@Tree
  0000f	90		 npad	 1
$LL8@Tree:

; 769  :             _Erase_tree(_Al, _Rootnode->_Right);

  00010	ff 76 08	 push	 DWORD PTR [esi+8]
  00013	8b cf		 mov	 ecx, edi
  00015	57		 push	 edi
  00016	e8 00 00 00 00	 call	 ??$_Erase_tree@V?$allocator@U?$_Tree_node@U?$pair@$$CBHPAV?$list@PAVCEventItem@@V?$allocator@PAVCEventItem@@@std@@@std@@@std@@PAX@std@@@std@@@?$_Tree_val@U?$_Tree_simple_types@U?$pair@$$CBHPAV?$list@PAVCEventItem@@V?$allocator@PAVCEventItem@@@std@@@std@@@std@@@std@@@std@@QAEXAAV?$allocator@U?$_Tree_node@U?$pair@$$CBHPAV?$list@PAVCEventItem@@V?$allocator@PAVCEventItem@@@std@@@std@@@std@@PAX@std@@@1@PAU?$_Tree_node@U?$pair@$$CBHPAV?$list@PAVCEventItem@@V?$allocator@PAVCEventItem@@@std@@@std@@@std@@PAX@1@@Z ; std::_Tree_val<std::_Tree_simple_types<std::pair<int const ,std::list<CEventItem *,std::allocator<CEventItem *> > *> > >::_Erase_tree<std::allocator<std::_Tree_node<std::pair<int const ,std::list<CEventItem *,std::allocator<CEventItem *> > *>,void *> > >
; File C:\Program Files\Microsoft Visual Studio\2022\Professional\VC\Tools\MSVC\14.44.35207\include\utility

; 773  :     _Ty _Old_val = static_cast<_Ty&&>(_Val);

  0001b	8b c6		 mov	 eax, esi

; 774  :     _Val         = static_cast<_Other&&>(_New_val);

  0001d	8b 36		 mov	 esi, DWORD PTR [esi]
; File C:\Program Files\Microsoft Visual Studio\2022\Professional\VC\Tools\MSVC\14.44.35207\include\xmemory

; 289  :         ::operator delete(_Ptr, _Bytes);

  0001f	6a 18		 push	 24			; 00000018H
  00021	50		 push	 eax
  00022	e8 00 00 00 00	 call	 ??3@YAXPAXI@Z		; operator delete
  00027	83 c4 08	 add	 esp, 8
; File C:\Program Files\Microsoft Visual Studio\2022\Professional\VC\Tools\MSVC\14.44.35207\include\xtree

; 768  :         while (!_Rootnode->_Isnil) { // free subtrees, then node

  0002a	80 7e 0d 00	 cmp	 BYTE PTR [esi+13], 0
  0002e	74 e0		 je	 SHORT $LL8@Tree
$LN61@Tree:
; File C:\Program Files\Microsoft Visual Studio\2022\Professional\VC\Tools\MSVC\14.44.35207\include\xmemory

; 289  :         ::operator delete(_Ptr, _Bytes);

  00030	6a 18		 push	 24			; 00000018H
  00032	ff 37		 push	 DWORD PTR [edi]
  00034	e8 00 00 00 00	 call	 ??3@YAXPAXI@Z		; operator delete
  00039	83 c4 08	 add	 esp, 8
  0003c	5f		 pop	 edi
  0003d	5e		 pop	 esi
; File C:\Program Files\Microsoft Visual Studio\2022\Professional\VC\Tools\MSVC\14.44.35207\include\xtree

; 1102 :     }

  0003e	c3		 ret	 0
??1?$_Tree@V?$_Tmap_traits@HPAV?$list@PAVCEventItem@@V?$allocator@PAVCEventItem@@@std@@@std@@U?$less@H@2@V?$allocator@U?$pair@$$CBHPAV?$list@PAVCEventItem@@V?$allocator@PAVCEventItem@@@std@@@std@@@std@@@2@$0A@@std@@@std@@QAE@XZ ENDP ; std::_Tree<std::_Tmap_traits<int,std::list<CEventItem *,std::allocator<CEventItem *> > *,std::less<int>,std::allocator<std::pair<int const ,std::list<CEventItem *,std::allocator<CEventItem *> > *> >,0> >::~_Tree<std::_Tmap_traits<int,std::list<CEventItem *,std::allocator<CEventItem *> > *,std::less<int>,std::allocator<std::pair<int const ,std::list<CEventItem *,std::allocator<CEventItem *> > *> >,0> >
_TEXT	ENDS
; Function compile flags: /Ogtp
; File C:\Program Files\Microsoft Visual Studio\2022\Professional\VC\Tools\MSVC\14.44.35207\include\list
; File C:\Program Files\Microsoft Visual Studio\2022\Professional\VC\Tools\MSVC\14.44.35207\include\xmemory
; File C:\Program Files\Microsoft Visual Studio\2022\Professional\VC\Tools\MSVC\14.44.35207\include\list
; File C:\Program Files\Microsoft Visual Studio\2022\Professional\VC\Tools\MSVC\14.44.35207\include\xmemory
; File C:\Program Files\Microsoft Visual Studio\2022\Professional\VC\Tools\MSVC\14.44.35207\include\list
;	COMDAT ??1?$list@PAU_EVENT_GENERIC@@V?$allocator@PAU_EVENT_GENERIC@@@std@@@std@@QAE@XZ
_TEXT	SEGMENT
??1?$list@PAU_EVENT_GENERIC@@V?$allocator@PAU_EVENT_GENERIC@@@std@@@std@@QAE@XZ PROC ; std::list<_EVENT_GENERIC *,std::allocator<_EVENT_GENERIC *> >::~list<_EVENT_GENERIC *,std::allocator<_EVENT_GENERIC *> >, COMDAT
; _this$ = ecx

; 1060 :     ~list() noexcept {

  00000	57		 push	 edi
  00001	8b f9		 mov	 edi, ecx

; 1518 :         _Node::_Free_non_head(_Al, _My_data._Myhead);

  00003	8b 17		 mov	 edx, DWORD PTR [edi]

; 324  :         _Head->_Prev->_Next = nullptr;

  00005	8b 42 04	 mov	 eax, DWORD PTR [edx+4]
  00008	c7 00 00 00 00
	00		 mov	 DWORD PTR [eax], 0

; 325  : 
; 326  :         auto _Pnode = _Head->_Next;

  0000e	8b 02		 mov	 eax, DWORD PTR [edx]

; 327  :         for (_Nodeptr _Pnext; _Pnode; _Pnode = _Pnext) {

  00010	85 c0		 test	 eax, eax
  00012	74 15		 je	 SHORT $LN57@list
  00014	56		 push	 esi
$LL10@list:

; 328  :             _Pnext = _Pnode->_Next;

  00015	8b 30		 mov	 esi, DWORD PTR [eax]
; File C:\Program Files\Microsoft Visual Studio\2022\Professional\VC\Tools\MSVC\14.44.35207\include\xmemory

; 289  :         ::operator delete(_Ptr, _Bytes);

  00017	6a 0c		 push	 12			; 0000000cH
  00019	50		 push	 eax
  0001a	e8 00 00 00 00	 call	 ??3@YAXPAXI@Z		; operator delete
  0001f	83 c4 08	 add	 esp, 8
; File C:\Program Files\Microsoft Visual Studio\2022\Professional\VC\Tools\MSVC\14.44.35207\include\list

; 327  :         for (_Nodeptr _Pnext; _Pnode; _Pnode = _Pnext) {

  00022	8b c6		 mov	 eax, esi
  00024	85 f6		 test	 esi, esi
  00026	75 ed		 jne	 SHORT $LL10@list
  00028	5e		 pop	 esi
$LN57@list:
; File C:\Program Files\Microsoft Visual Studio\2022\Professional\VC\Tools\MSVC\14.44.35207\include\xmemory

; 289  :         ::operator delete(_Ptr, _Bytes);

  00029	6a 0c		 push	 12			; 0000000cH
  0002b	ff 37		 push	 DWORD PTR [edi]
  0002d	e8 00 00 00 00	 call	 ??3@YAXPAXI@Z		; operator delete
  00032	83 c4 08	 add	 esp, 8
  00035	5f		 pop	 edi
; File C:\Program Files\Microsoft Visual Studio\2022\Professional\VC\Tools\MSVC\14.44.35207\include\list

; 1066 :     }

  00036	c3		 ret	 0
??1?$list@PAU_EVENT_GENERIC@@V?$allocator@PAU_EVENT_GENERIC@@@std@@@std@@QAE@XZ ENDP ; std::list<_EVENT_GENERIC *,std::allocator<_EVENT_GENERIC *> >::~list<_EVENT_GENERIC *,std::allocator<_EVENT_GENERIC *> >
_TEXT	ENDS
; Function compile flags: /Ogtp
;	COMDAT ??_GCSpawn@@UAEPAXI@Z
_TEXT	SEGMENT
___flags$ = 8						; size = 4
??_GCSpawn@@UAEPAXI@Z PROC				; CSpawn::`scalar deleting destructor', COMDAT
; _this$ = ecx
  00000	55		 push	 ebp
  00001	8b ec		 mov	 ebp, esp
  00003	f6 45 08 01	 test	 BYTE PTR ___flags$[ebp], 1
  00007	56		 push	 esi
  00008	8b f1		 mov	 esi, ecx
  0000a	c7 06 00 00 00
	00		 mov	 DWORD PTR [esi], OFFSET ??_7CSpawn@@6B@
  00010	74 0b		 je	 SHORT $LN5@scalar
  00012	6a 1c		 push	 28			; 0000001cH
  00014	56		 push	 esi
  00015	e8 00 00 00 00	 call	 ??3@YAXPAXI@Z		; operator delete
  0001a	83 c4 08	 add	 esp, 8
$LN5@scalar:
  0001d	8b c6		 mov	 eax, esi
  0001f	5e		 pop	 esi
  00020	5d		 pop	 ebp
  00021	c2 04 00	 ret	 4
??_GCSpawn@@UAEPAXI@Z ENDP				; CSpawn::`scalar deleting destructor'
_TEXT	ENDS
; Function compile flags: /Ogtp
; File C:\IAGOS\server\v18\Source\Source\_Common\spevent.cpp
;	COMDAT ?IsTimeout@CSpawn@@QAEHXZ
_TEXT	SEGMENT
?IsTimeout@CSpawn@@QAEHXZ PROC				; CSpawn::IsTimeout, COMDAT
; _this$ = ecx

; 634  : 	if( g_tmCurrent >= m_dwTimeout )

  00000	8b 15 00 00 00
	00		 mov	 edx, DWORD PTR ?g_tmCurrent@@3KA ; g_tmCurrent
  00006	3b 51 10	 cmp	 edx, DWORD PTR [ecx+16]
  00009	72 0e		 jb	 SHORT $LN2@IsTimeout

; 635  : 	{
; 636  : 		m_dwTimeout		= g_tmCurrent + m_dwInterval;

  0000b	8b 41 0c	 mov	 eax, DWORD PTR [ecx+12]
  0000e	03 c2		 add	 eax, edx
  00010	89 41 10	 mov	 DWORD PTR [ecx+16], eax

; 637  : 		return TRUE;

  00013	b8 01 00 00 00	 mov	 eax, 1

; 640  : }

  00018	c3		 ret	 0
$LN2@IsTimeout:

; 638  : 	}
; 639  : 	return FALSE;

  00019	33 c0		 xor	 eax, eax

; 640  : }

  0001b	c3		 ret	 0
?IsTimeout@CSpawn@@QAEHXZ ENDP				; CSpawn::IsTimeout
_TEXT	ENDS
; Function compile flags: /Ogtp
; File C:\IAGOS\server\v18\Source\Source\_Common\spevent.h
;	COMDAT ??1CSpawn@@UAE@XZ
_TEXT	SEGMENT
??1CSpawn@@UAE@XZ PROC					; CSpawn::~CSpawn, COMDAT
; _this$ = ecx

; 101  : 	virtual	~CSpawn()	{}

  00000	c7 01 00 00 00
	00		 mov	 DWORD PTR [ecx], OFFSET ??_7CSpawn@@6B@
  00006	c3		 ret	 0
??1CSpawn@@UAE@XZ ENDP					; CSpawn::~CSpawn
_TEXT	ENDS
; Function compile flags: /Ogtp
; File C:\IAGOS\server\v18\Source\Source\_Common\spevent.cpp
;	COMDAT ??0CSpawn@@QAE@KKHMK@Z
_TEXT	SEGMENT
_dwType$ = 8						; size = 4
_dwIndex$ = 12						; size = 4
_nMax$ = 16						; size = 4
_fRatio$ = 20						; size = 4
_dwInterval$ = 24					; size = 4
??0CSpawn@@QAE@KKHMK@Z PROC				; CSpawn::CSpawn, COMDAT
; _this$ = ecx

; 623  : {

  00000	55		 push	 ebp
  00001	8b ec		 mov	 ebp, esp

; 624  : 	m_dwType	= dwType;

  00003	8b 45 08	 mov	 eax, DWORD PTR _dwType$[ebp]

; 625  : 	m_dwIndex	= dwIndex;
; 626  : 	m_nMax	= nMax;
; 627  : 	m_fRatio	= fRatio;

  00006	f3 0f 10 45 14	 movss	 xmm0, DWORD PTR _fRatio$[ebp]
  0000b	89 41 14	 mov	 DWORD PTR [ecx+20], eax
  0000e	8b 45 0c	 mov	 eax, DWORD PTR _dwIndex$[ebp]
  00011	89 41 18	 mov	 DWORD PTR [ecx+24], eax
  00014	8b 45 10	 mov	 eax, DWORD PTR _nMax$[ebp]
  00017	89 41 04	 mov	 DWORD PTR [ecx+4], eax

; 628  : 	m_dwInterval	= dwInterval;

  0001a	8b 45 18	 mov	 eax, DWORD PTR _dwInterval$[ebp]
  0001d	89 41 0c	 mov	 DWORD PTR [ecx+12], eax

; 629  : 	m_dwTimeout		= 0;
; 630  : }

  00020	8b c1		 mov	 eax, ecx
  00022	c7 01 00 00 00
	00		 mov	 DWORD PTR [ecx], OFFSET ??_7CSpawn@@6B@
  00028	f3 0f 11 41 08	 movss	 DWORD PTR [ecx+8], xmm0
  0002d	c7 41 10 00 00
	00 00		 mov	 DWORD PTR [ecx+16], 0
  00034	5d		 pop	 ebp
  00035	c2 14 00	 ret	 20			; 00000014H
??0CSpawn@@QAE@KKHMK@Z ENDP				; CSpawn::CSpawn
_TEXT	ENDS
; Function compile flags: /Ogtp
; File C:\IAGOS\server\v18\Source\Source\_Common\spevent.cpp
;	COMDAT ??0CSpawn@@QAE@XZ
_TEXT	SEGMENT
??0CSpawn@@QAE@XZ PROC					; CSpawn::CSpawn, COMDAT
; _this$ = ecx

; 613  : {

  00000	c7 01 00 00 00
	00		 mov	 DWORD PTR [ecx], OFFSET ??_7CSpawn@@6B@

; 614  : 	m_nMax	= 0;
; 615  : 	m_fRatio	= 0.0F;
; 616  : 	m_dwType	= 0;
; 617  : 	m_dwIndex	= 0;
; 618  : 	m_dwInterval	= 0;
; 619  : 	m_dwTimeout		= 0;
; 620  : }

  00006	8b c1		 mov	 eax, ecx
  00008	c7 41 04 00 00
	00 00		 mov	 DWORD PTR [ecx+4], 0
  0000f	c7 41 08 00 00
	00 00		 mov	 DWORD PTR [ecx+8], 0
  00016	c7 41 14 00 00
	00 00		 mov	 DWORD PTR [ecx+20], 0
  0001d	c7 41 18 00 00
	00 00		 mov	 DWORD PTR [ecx+24], 0
  00024	c7 41 0c 00 00
	00 00		 mov	 DWORD PTR [ecx+12], 0
  0002b	c7 41 10 00 00
	00 00		 mov	 DWORD PTR [ecx+16], 0
  00032	c3		 ret	 0
??0CSpawn@@QAE@XZ ENDP					; CSpawn::CSpawn
_TEXT	ENDS
; Function compile flags: /Ogtp
;	COMDAT ??_GCEventItem@@UAEPAXI@Z
_TEXT	SEGMENT
___flags$ = 8						; size = 4
??_GCEventItem@@UAEPAXI@Z PROC				; CEventItem::`scalar deleting destructor', COMDAT
; _this$ = ecx
  00000	55		 push	 ebp
  00001	8b ec		 mov	 ebp, esp
  00003	f6 45 08 01	 test	 BYTE PTR ___flags$[ebp], 1
  00007	56		 push	 esi
  00008	8b f1		 mov	 esi, ecx
  0000a	c7 06 00 00 00
	00		 mov	 DWORD PTR [esi], OFFSET ??_7CEventItem@@6B@
  00010	74 0b		 je	 SHORT $LN5@scalar
  00012	6a 78		 push	 120			; 00000078H
  00014	56		 push	 esi
  00015	e8 00 00 00 00	 call	 ??3@YAXPAXI@Z		; operator delete
  0001a	83 c4 08	 add	 esp, 8
$LN5@scalar:
  0001d	8b c6		 mov	 eax, esi
  0001f	5e		 pop	 esi
  00020	5d		 pop	 ebp
  00021	c2 04 00	 ret	 4
??_GCEventItem@@UAEPAXI@Z ENDP				; CEventItem::`scalar deleting destructor'
_TEXT	ENDS
; Function compile flags: /Ogtp
; File C:\IAGOS\server\v18\Source\Source\_Common\spevent.cpp
; File C:\IAGOS\server\v18\Source\Source\_Network\Misc\Include\ar.h
; File C:\IAGOS\server\v18\Source\Source\_Common\spevent.cpp
; File C:\IAGOS\server\v18\Source\Source\_Network\Misc\Include\ar.h
; File C:\IAGOS\server\v18\Source\Source\_Common\spevent.cpp
;	COMDAT ?Serialize@CEventItem@@QAEXAAVCAr@@@Z
_TEXT	SEGMENT
tv187 = -8						; size = 4
tv189 = -4						; size = 4
_ar$ = 8						; size = 4
?Serialize@CEventItem@@QAEXAAVCAr@@@Z PROC		; CEventItem::Serialize, COMDAT
; _this$ = ecx

; 131  : {

  00000	55		 push	 ebp
  00001	8b ec		 mov	 ebp, esp
  00003	83 ec 08	 sub	 esp, 8
  00006	53		 push	 ebx
  00007	56		 push	 esi
; File C:\IAGOS\server\v18\Source\Source\_Network\Misc\Include\ar.h

; 146  : 	return (m_nMode & CAr::load) == 0;

  00008	8b 75 08	 mov	 esi, DWORD PTR _ar$[ebp]
; File C:\IAGOS\server\v18\Source\Source\_Common\spevent.cpp

; 131  : {

  0000b	57		 push	 edi
  0000c	8b f9		 mov	 edi, ecx
; File C:\IAGOS\server\v18\Source\Source\_Network\Misc\Include\ar.h

; 146  : 	return (m_nMode & CAr::load) == 0;

  0000e	f6 06 01	 test	 BYTE PTR [esi], 1
  00011	8d 4f 74	 lea	 ecx, DWORD PTR [edi+116]
  00014	89 4d fc	 mov	 DWORD PTR tv189[ebp], ecx
  00017	8d 47 70	 lea	 eax, DWORD PTR [edi+112]
  0001a	8d 4f 08	 lea	 ecx, DWORD PTR [edi+8]
  0001d	89 4d f8	 mov	 DWORD PTR tv187[ebp], ecx
  00020	8d 5f 04	 lea	 ebx, DWORD PTR [edi+4]
; File C:\IAGOS\server\v18\Source\Source\_Common\spevent.cpp

; 132  : 	if( ar.IsStoring() )

  00023	50		 push	 eax
  00024	8b ce		 mov	 ecx, esi
  00026	75 2e		 jne	 SHORT $LN2@Serialize

; 133  : 	{
; 134  : 		ar << m_dwItemId;

  00028	e8 00 00 00 00	 call	 ??$?6K@CAr@@QAEAAV0@ABK@Z ; CAr::operator<<<unsigned long>

; 135  : 		ar << m_nMax;

  0002d	53		 push	 ebx
  0002e	8b ce		 mov	 ecx, esi
  00030	e8 00 00 00 00	 call	 ??$?6H@CAr@@QAEAAV0@ABH@Z ; CAr::operator<<<int>

; 136  : 		ar << m_nNum;

  00035	8b 45 fc	 mov	 eax, DWORD PTR tv189[ebp]
  00038	8b ce		 mov	 ecx, esi
  0003a	50		 push	 eax
  0003b	e8 00 00 00 00	 call	 ??$?6H@CAr@@QAEAAV0@ABH@Z ; CAr::operator<<<int>

; 137  : 		ar.Write( (const void*)m_adwInterval, sizeof(m_adwInterval) );

  00040	8b 45 f8	 mov	 eax, DWORD PTR tv187[ebp]
  00043	8b ce		 mov	 ecx, esi
  00045	6a 60		 push	 96			; 00000060H
  00047	50		 push	 eax
  00048	e8 00 00 00 00	 call	 ?Write@CAr@@QAEXPBXI@Z	; CAr::Write
  0004d	5f		 pop	 edi

; 146  : 	}
; 147  : }

  0004e	5e		 pop	 esi
  0004f	5b		 pop	 ebx
  00050	8b e5		 mov	 esp, ebp
  00052	5d		 pop	 ebp
  00053	c2 04 00	 ret	 4
$LN2@Serialize:

; 138  : 	}
; 139  : 	else
; 140  : 	{
; 141  : 		ar >> m_dwItemId;

  00056	e8 00 00 00 00	 call	 ??$?5K@CAr@@QAEAAV0@AAK@Z ; CAr::operator>><unsigned long>

; 142  : 		ar >> m_nMax;

  0005b	53		 push	 ebx
  0005c	8b ce		 mov	 ecx, esi
  0005e	e8 00 00 00 00	 call	 ??$?5H@CAr@@QAEAAV0@AAH@Z ; CAr::operator>><int>

; 143  : 		ar >> m_nNum;

  00063	8d 47 74	 lea	 eax, DWORD PTR [edi+116]
  00066	8b ce		 mov	 ecx, esi
  00068	50		 push	 eax
  00069	e8 00 00 00 00	 call	 ??$?5H@CAr@@QAEAAV0@AAH@Z ; CAr::operator>><int>

; 144  : 		ar.Read( (void*)m_adwInterval, sizeof(m_adwInterval) );

  0006e	6a 60		 push	 96			; 00000060H
  00070	8d 47 08	 lea	 eax, DWORD PTR [edi+8]
  00073	8b ce		 mov	 ecx, esi
  00075	50		 push	 eax
  00076	e8 00 00 00 00	 call	 ?Read@CAr@@QAEXPAXI@Z	; CAr::Read

; 145  : 		m_dwTimeout		= GetTickCount();

  0007b	ff 15 00 00 00
	00		 call	 DWORD PTR __imp__GetTickCount@0
  00081	89 47 68	 mov	 DWORD PTR [edi+104], eax
  00084	5f		 pop	 edi

; 146  : 	}
; 147  : }

  00085	5e		 pop	 esi
  00086	5b		 pop	 ebx
  00087	8b e5		 mov	 esp, ebp
  00089	5d		 pop	 ebp
  0008a	c2 04 00	 ret	 4
?Serialize@CEventItem@@QAEXAAVCAr@@@Z ENDP		; CEventItem::Serialize
_TEXT	ENDS
; Function compile flags: /Ogtp
; File C:\IAGOS\server\v18\Source\Source\_Common\spevent.cpp
;	COMDAT ?Skip@CEventItem@@QAEXJ@Z
_TEXT	SEGMENT
_lSkip$ = 8						; size = 4
?Skip@CEventItem@@QAEXJ@Z PROC				; CEventItem::Skip, COMDAT
; _this$ = ecx

; 126  : {

  00000	55		 push	 ebp
  00001	8b ec		 mov	 ebp, esp

; 127  : 	m_lSkip		= lSkip;

  00003	8b 45 08	 mov	 eax, DWORD PTR _lSkip$[ebp]
  00006	89 41 6c	 mov	 DWORD PTR [ecx+108], eax

; 128  : }

  00009	5d		 pop	 ebp
  0000a	c2 04 00	 ret	 4
?Skip@CEventItem@@QAEXJ@Z ENDP				; CEventItem::Skip
_TEXT	ENDS
; Function compile flags: /Ogtp
; File C:\IAGOS\server\v18\Source\Source\_Common\spevent.cpp
;	COMDAT ?IsTimeout@CEventItem@@QAEHH@Z
_TEXT	SEGMENT
_nHour$ = 8						; size = 4
?IsTimeout@CEventItem@@QAEHH@Z PROC			; CEventItem::IsTimeout, COMDAT
; _this$ = ecx

; 109  : {

  00000	55		 push	 ebp
  00001	8b ec		 mov	 ebp, esp
  00003	56		 push	 esi
  00004	8b f1		 mov	 esi, ecx

; 110  : 	DWORD dwTickCount	= GetTickCount();

  00006	ff 15 00 00 00
	00		 call	 DWORD PTR __imp__GetTickCount@0

; 111  : 	if( dwTickCount >= m_dwTimeout )

  0000c	3b 46 68	 cmp	 eax, DWORD PTR [esi+104]
  0000f	72 17		 jb	 SHORT $LN2@IsTimeout

; 112  : 	{
; 113  : 		m_dwTimeout	= dwTickCount + m_adwInterval[nHour];

  00011	8b 55 08	 mov	 edx, DWORD PTR _nHour$[ebp]
  00014	8b 4c 96 08	 mov	 ecx, DWORD PTR [esi+edx*4+8]
  00018	03 c8		 add	 ecx, eax

; 114  : 
; 115  : 		if( m_lSkip > 0 )

  0001a	8b 46 6c	 mov	 eax, DWORD PTR [esi+108]
  0001d	89 4e 68	 mov	 DWORD PTR [esi+104], ecx
  00020	85 c0		 test	 eax, eax
  00022	7e 0b		 jle	 SHORT $LN3@IsTimeout

; 116  : 		{
; 117  : 			m_lSkip--;

  00024	48		 dec	 eax
  00025	89 46 6c	 mov	 DWORD PTR [esi+108], eax
$LN2@IsTimeout:

; 121  : 	}
; 122  : 	return FALSE;
; 123  : }

  00028	33 c0		 xor	 eax, eax
  0002a	5e		 pop	 esi
  0002b	5d		 pop	 ebp
  0002c	c2 04 00	 ret	 4
$LN3@IsTimeout:

; 118  : 			return FALSE;
; 119  : 		}
; 120  : 		return TRUE;

  0002f	b8 01 00 00 00	 mov	 eax, 1
  00034	5e		 pop	 esi

; 121  : 	}
; 122  : 	return FALSE;
; 123  : }

  00035	5d		 pop	 ebp
  00036	c2 04 00	 ret	 4
?IsTimeout@CEventItem@@QAEHH@Z ENDP			; CEventItem::IsTimeout
_TEXT	ENDS
; Function compile flags: /Ogtp
; File C:\IAGOS\server\v18\Source\Source\_Common\spevent.h
;	COMDAT ??1CEventItem@@UAE@XZ
_TEXT	SEGMENT
??1CEventItem@@UAE@XZ PROC				; CEventItem::~CEventItem, COMDAT
; _this$ = ecx

; 70   : 	virtual	~CEventItem()	{}

  00000	c7 01 00 00 00
	00		 mov	 DWORD PTR [ecx], OFFSET ??_7CEventItem@@6B@
  00006	c3		 ret	 0
??1CEventItem@@UAE@XZ ENDP				; CEventItem::~CEventItem
_TEXT	ENDS
; Function compile flags: /Ogtp
; File C:\IAGOS\server\v18\Source\Source\_Common\spevent.cpp
;	COMDAT ??0CEventItem@@QAE@KHH@Z
_TEXT	SEGMENT
_dwItemId$ = 8						; size = 4
tv377 = 8						; size = 4
_nMax$ = 12						; size = 4
tv378 = 12						; size = 4
_nNum$ = 16						; size = 4
??0CEventItem@@QAE@KHH@Z PROC				; CEventItem::CEventItem, COMDAT
; _this$ = ecx

; 89   : {

  00000	55		 push	 ebp
  00001	8b ec		 mov	 ebp, esp

; 90   : 	m_dwItemId	= dwItemId;

  00003	8b 45 08	 mov	 eax, DWORD PTR _dwItemId$[ebp]
  00006	53		 push	 ebx
  00007	8b d9		 mov	 ebx, ecx
  00009	56		 push	 esi

; 91   : 	m_nMax	= nMax;

  0000a	8b 75 0c	 mov	 esi, DWORD PTR _nMax$[ebp]
  0000d	89 43 70	 mov	 DWORD PTR [ebx+112], eax

; 92   : 	m_nNum	= nNum;

  00010	8b 45 10	 mov	 eax, DWORD PTR _nNum$[ebp]
  00013	c7 03 00 00 00
	00		 mov	 DWORD PTR [ebx], OFFSET ??_7CEventItem@@6B@
  00019	89 73 04	 mov	 DWORD PTR [ebx+4], esi
  0001c	89 43 74	 mov	 DWORD PTR [ebx+116], eax

; 93   : 	m_dwTimeout	= GetTickCount();

  0001f	ff 15 00 00 00
	00		 call	 DWORD PTR __imp__GetTickCount@0
  00025	89 43 68	 mov	 DWORD PTR [ebx+104], eax
  00028	0f 57 d2	 xorps	 xmm2, xmm2

; 94   : 	m_lSkip	= 0;

  0002b	c7 43 6c 00 00
	00 00		 mov	 DWORD PTR [ebx+108], 0
  00032	0f 57 c9	 xorps	 xmm1, xmm1
  00035	b8 10 00 00 00	 mov	 eax, OFFSET ?s_anHour@?1???0CEventItem@@QAE@KHH@Z@4PAHA+16
  0003a	66 0f 1f 44 00
	00		 npad	 6
$LL4@CEventItem:

; 95   : 
; 96   : 	static	int	s_anHour[24]	=
; 97   : 		{	505, 409, 324, 280, 220, 203, 202, 212,
; 98   : 			227, 261, 302, 349, 571, 701, 764, 803,
; 99   : 			790, 789, 754, 849, 936, 940, 919, 720	};
; 100  : 	int nTotal	= 0;
; 101  : 
; 102  : 	for( int i = 0; i < 24; i++ )
; 103  : 		nTotal	+= s_anHour[i];

  00040	0f 10 40 f0	 movups	 xmm0, XMMWORD PTR [eax-16]
  00044	66 0f fe d0	 paddd	 xmm2, xmm0
  00048	0f 10 00	 movups	 xmm0, XMMWORD PTR [eax]
  0004b	83 c0 20	 add	 eax, 32			; 00000020H
  0004e	66 0f fe c8	 paddd	 xmm1, xmm0
  00052	3d 70 00 00 00	 cmp	 eax, OFFSET ?s_anHour@?1???0CEventItem@@QAE@KHH@Z@4PAHA+112
  00057	7c e7		 jl	 SHORT $LL4@CEventItem

; 89   : {

  00059	66 0f fe ca	 paddd	 xmm1, xmm2
  0005d	0f 28 c1	 movaps	 xmm0, xmm1
  00060	66 0f 73 d8 08	 psrldq	 xmm0, 8
  00065	66 0f fe c8	 paddd	 xmm1, xmm0
  00069	0f 10 c1	 movups	 xmm0, xmm1
  0006c	66 0f 73 d8 04	 psrldq	 xmm0, 4
  00071	66 0f fe c8	 paddd	 xmm1, xmm0
  00075	66 0f 6e c6	 movd	 xmm0, esi
  00079	66 0f 7e c8	 movd	 eax, xmm1
  0007d	be 00 00 00 00	 mov	 esi, OFFSET ?s_anHour@?1???0CEventItem@@QAE@KHH@Z@4PAHA
  00082	0f 5b c0	 cvtdq2ps xmm0, xmm0
  00085	57		 push	 edi
  00086	8d 7b 08	 lea	 edi, DWORD PTR [ebx+8]
  00089	66 0f 6e d0	 movd	 xmm2, eax
  0008d	0f 5b d2	 cvtdq2ps xmm2, xmm2
  00090	f3 0f 11 45 08	 movss	 DWORD PTR tv377[ebp], xmm0
  00095	f3 0f 11 55 0c	 movss	 DWORD PTR tv378[ebp], xmm2
  0009a	66 0f 1f 44 00
	00		 npad	 6
$LL7@CEventItem:

; 104  : 	for( int i = 0; i < 24; i++ )
; 105  : 		m_adwInterval[i]	= (DWORD)( (float)MIN( 60 ) / ( nMax * (float)s_anHour[i] / (float)nTotal ) );

  000a0	66 0f 6e 0e	 movd	 xmm1, DWORD PTR [esi]
  000a4	0f 5b c9	 cvtdq2ps xmm1, xmm1
  000a7	f3 0f 59 c8	 mulss	 xmm1, xmm0
  000ab	f3 0f 10 05 00
	00 00 00	 movss	 xmm0, DWORD PTR __real@4a5bba00
  000b3	f3 0f 5e ca	 divss	 xmm1, xmm2
  000b7	f3 0f 5e c1	 divss	 xmm0, xmm1
  000bb	e8 00 00 00 00	 call	 __ftol3
  000c0	f3 0f 10 45 08	 movss	 xmm0, DWORD PTR tv377[ebp]
  000c5	8d 7f 04	 lea	 edi, DWORD PTR [edi+4]
  000c8	f3 0f 10 55 0c	 movss	 xmm2, DWORD PTR tv378[ebp]
  000cd	83 c6 04	 add	 esi, 4
  000d0	89 47 fc	 mov	 DWORD PTR [edi-4], eax
  000d3	81 fe 60 00 00
	00		 cmp	 esi, OFFSET ?s_anHour@?1???0CEventItem@@QAE@KHH@Z@4PAHA+96
  000d9	7c c5		 jl	 SHORT $LL7@CEventItem

; 106  : }

  000db	5f		 pop	 edi
  000dc	5e		 pop	 esi
  000dd	8b c3		 mov	 eax, ebx
  000df	5b		 pop	 ebx
  000e0	5d		 pop	 ebp
  000e1	c2 0c 00	 ret	 12			; 0000000cH
??0CEventItem@@QAE@KHH@Z ENDP				; CEventItem::CEventItem
_TEXT	ENDS
; Function compile flags: /Ogtp
; File C:\IAGOS\server\v18\Source\Source\_Common\spevent.cpp
;	COMDAT ??0CEventItem@@QAE@XZ
_TEXT	SEGMENT
??0CEventItem@@QAE@XZ PROC				; CEventItem::CEventItem, COMDAT
; _this$ = ecx

; 79   : {

  00000	56		 push	 esi
  00001	8b f1		 mov	 esi, ecx

; 80   : 	m_dwItemId	= 0;
; 81   : 	m_nMax	= 0;
; 82   : 	m_nNum	= 0;
; 83   : 	m_dwTimeout	= 0;
; 84   : 	m_lSkip	= 0;
; 85   : 	memset( (void*)m_adwInterval, 0, sizeof(m_adwInterval) );

  00003	6a 60		 push	 96			; 00000060H
  00005	6a 00		 push	 0
  00007	8d 46 08	 lea	 eax, DWORD PTR [esi+8]
  0000a	c7 06 00 00 00
	00		 mov	 DWORD PTR [esi], OFFSET ??_7CEventItem@@6B@
  00010	50		 push	 eax
  00011	c7 46 70 00 00
	00 00		 mov	 DWORD PTR [esi+112], 0
  00018	c7 46 04 00 00
	00 00		 mov	 DWORD PTR [esi+4], 0
  0001f	c7 46 74 00 00
	00 00		 mov	 DWORD PTR [esi+116], 0
  00026	c7 46 68 00 00
	00 00		 mov	 DWORD PTR [esi+104], 0
  0002d	c7 46 6c 00 00
	00 00		 mov	 DWORD PTR [esi+108], 0
  00034	e8 00 00 00 00	 call	 _memset
  00039	83 c4 0c	 add	 esp, 12			; 0000000cH

; 86   : }

  0003c	8b c6		 mov	 eax, esi
  0003e	5e		 pop	 esi
  0003f	c3		 ret	 0
??0CEventItem@@QAE@XZ ENDP				; CEventItem::CEventItem
_TEXT	ENDS
; Function compile flags: /Ogtp
;	COMDAT ??_GCXMasEvent@@UAEPAXI@Z
_TEXT	SEGMENT
___flags$ = 8						; size = 4
??_GCXMasEvent@@UAEPAXI@Z PROC				; CXMasEvent::`scalar deleting destructor', COMDAT
; _this$ = ecx
  00000	55		 push	 ebp
  00001	8b ec		 mov	 ebp, esp
  00003	56		 push	 esi
  00004	8b f1		 mov	 esi, ecx
  00006	e8 00 00 00 00	 call	 ??1CXMasEvent@@UAE@XZ	; CXMasEvent::~CXMasEvent
  0000b	f6 45 08 01	 test	 BYTE PTR ___flags$[ebp], 1
  0000f	74 0b		 je	 SHORT $LN5@scalar
  00011	6a 6c		 push	 108			; 0000006cH
  00013	56		 push	 esi
  00014	e8 00 00 00 00	 call	 ??3@YAXPAXI@Z		; operator delete
  00019	83 c4 08	 add	 esp, 8
$LN5@scalar:
  0001c	8b c6		 mov	 eax, esi
  0001e	5e		 pop	 esi
  0001f	5d		 pop	 ebp
  00020	c2 04 00	 ret	 4
??_GCXMasEvent@@UAEPAXI@Z ENDP				; CXMasEvent::`scalar deleting destructor'
_TEXT	ENDS
; Function compile flags: /Ogtp
; File C:\IAGOS\server\v18\Source\Source\_Common\spevent.cpp
;	COMDAT ?GetInstance@CXMasEvent@@SAPAV1@XZ
_TEXT	SEGMENT
?GetInstance@CXMasEvent@@SAPAV1@XZ PROC			; CXMasEvent::GetInstance, COMDAT

; 74   : 	static	CXMasEvent	sXMasEvent;

  00000	64 a1 00 00 00
	00		 mov	 eax, DWORD PTR fs:__tls_array
  00006	8b 0d 00 00 00
	00		 mov	 ecx, DWORD PTR __tls_index
  0000c	8b 0c 88	 mov	 ecx, DWORD PTR [eax+ecx*4]
  0000f	a1 00 00 00 00	 mov	 eax, DWORD PTR ?$TSS0@?1??GetInstance@CXMasEvent@@SAPAV2@XZ@4HA
  00014	3b 81 00 00 00
	00		 cmp	 eax, DWORD PTR __Init_thread_epoch[ecx]
  0001a	7f 06		 jg	 SHORT $LN8@GetInstanc
$LN5@GetInstanc:

; 75   : 	return	&sXMasEvent;
; 76   : }

  0001c	b8 00 00 00 00	 mov	 eax, OFFSET ?sXMasEvent@?1??GetInstance@CXMasEvent@@SAPAV2@XZ@4V2@A
  00021	c3		 ret	 0
$LN8@GetInstanc:

; 74   : 	static	CXMasEvent	sXMasEvent;

  00022	68 00 00 00 00	 push	 OFFSET ?$TSS0@?1??GetInstance@CXMasEvent@@SAPAV2@XZ@4HA
  00027	e8 00 00 00 00	 call	 __Init_thread_header
  0002c	83 c4 04	 add	 esp, 4
  0002f	83 3d 00 00 00
	00 ff		 cmp	 DWORD PTR ?$TSS0@?1??GetInstance@CXMasEvent@@SAPAV2@XZ@4HA, -1
  00036	75 e4		 jne	 SHORT $LN5@GetInstanc
  00038	b9 00 00 00 00	 mov	 ecx, OFFSET ?sXMasEvent@?1??GetInstance@CXMasEvent@@SAPAV2@XZ@4V2@A
  0003d	e8 00 00 00 00	 call	 ??0CXMasEvent@@QAE@XZ	; CXMasEvent::CXMasEvent
  00042	68 00 00 00 00	 push	 OFFSET ??__FsXMasEvent@?1??GetInstance@CXMasEvent@@SAPAV1@XZ@YAXXZ ; `CXMasEvent::GetInstance'::`2'::`dynamic atexit destructor for 'sXMasEvent''
  00047	e8 00 00 00 00	 call	 _atexit
  0004c	68 00 00 00 00	 push	 OFFSET ?$TSS0@?1??GetInstance@CXMasEvent@@SAPAV2@XZ@4HA
  00051	e8 00 00 00 00	 call	 __Init_thread_footer
  00056	83 c4 08	 add	 esp, 8
  00059	eb c1		 jmp	 SHORT $LN5@GetInstanc
?GetInstance@CXMasEvent@@SAPAV1@XZ ENDP			; CXMasEvent::GetInstance
_TEXT	ENDS
; Function compile flags: /Ogtp
; File C:\IAGOS\server\v18\Source\Source\_Common\spevent.cpp
;	COMDAT ?Skip@CXMasEvent@@QAEXJ@Z
_TEXT	SEGMENT
_lSkip$ = 8						; size = 4
?Skip@CXMasEvent@@QAEXJ@Z PROC				; CXMasEvent::Skip, COMDAT
; _this$ = ecx

; 68   : {

  00000	55		 push	 ebp
  00001	8b ec		 mov	 ebp, esp

; 69   : 	m_lSkip		= lSkip;

  00003	8b 45 08	 mov	 eax, DWORD PTR _lSkip$[ebp]
  00006	89 41 68	 mov	 DWORD PTR [ecx+104], eax

; 70   : }

  00009	5d		 pop	 ebp
  0000a	c2 04 00	 ret	 4
?Skip@CXMasEvent@@QAEXJ@Z ENDP				; CXMasEvent::Skip
_TEXT	ENDS
; Function compile flags: /Ogtp
; File C:\IAGOS\server\v18\Source\Source\_Common\spevent.cpp
;	COMDAT ?IsTimeout@CXMasEvent@@QAEHH@Z
_TEXT	SEGMENT
_nHour$ = 8						; size = 4
?IsTimeout@CXMasEvent@@QAEHH@Z PROC			; CXMasEvent::IsTimeout, COMDAT
; _this$ = ecx

; 29   : {

  00000	55		 push	 ebp
  00001	8b ec		 mov	 ebp, esp
  00003	56		 push	 esi
  00004	8b f1		 mov	 esi, ecx

; 30   : 	DWORD dwTickCount	= GetTickCount();

  00006	ff 15 00 00 00
	00		 call	 DWORD PTR __imp__GetTickCount@0

; 31   : 	if( dwTickCount >= m_dwTimeout )

  0000c	3b 46 64	 cmp	 eax, DWORD PTR [esi+100]
  0000f	72 17		 jb	 SHORT $LN2@IsTimeout

; 32   : 	{
; 33   : 		m_dwTimeout	= dwTickCount + m_adwInterval[nHour];

  00011	8b 55 08	 mov	 edx, DWORD PTR _nHour$[ebp]
  00014	8b 4c 96 04	 mov	 ecx, DWORD PTR [esi+edx*4+4]
  00018	03 c8		 add	 ecx, eax

; 34   : 
; 35   : 		if( m_lSkip > 0 )

  0001a	8b 46 68	 mov	 eax, DWORD PTR [esi+104]
  0001d	89 4e 64	 mov	 DWORD PTR [esi+100], ecx
  00020	85 c0		 test	 eax, eax
  00022	7e 0b		 jle	 SHORT $LN3@IsTimeout

; 36   : 		{
; 37   : 			m_lSkip--;

  00024	48		 dec	 eax
  00025	89 46 68	 mov	 DWORD PTR [esi+104], eax
$LN2@IsTimeout:

; 41   : 	}
; 42   : 	return FALSE;
; 43   : }

  00028	33 c0		 xor	 eax, eax
  0002a	5e		 pop	 esi
  0002b	5d		 pop	 ebp
  0002c	c2 04 00	 ret	 4
$LN3@IsTimeout:

; 38   : 			return FALSE;
; 39   : 		}
; 40   : 		return TRUE;

  0002f	b8 01 00 00 00	 mov	 eax, 1
  00034	5e		 pop	 esi

; 41   : 	}
; 42   : 	return FALSE;
; 43   : }

  00035	5d		 pop	 ebp
  00036	c2 04 00	 ret	 4
?IsTimeout@CXMasEvent@@QAEHH@Z ENDP			; CXMasEvent::IsTimeout
_TEXT	ENDS
; Function compile flags: /Ogtp
; File C:\IAGOS\server\v18\Source\Source\_Common\spevent.cpp
;	COMDAT ?LoadScript@CXMasEvent@@QAEHPBD@Z
_TEXT	SEGMENT
_an$ = -3684						; size = 96
tv279 = -3588						; size = 4
tv278 = -3584						; size = 4
_this$GSCopy$1$ = -3580					; size = 4
_s$ = -3576						; size = 3560
__$ArrayPad$ = -16					; size = 4
__$EHRec$ = -12						; size = 12
_lpFilename$ = 8					; size = 4
?LoadScript@CXMasEvent@@QAEHPBD@Z PROC			; CXMasEvent::LoadScript, COMDAT
; _this$ = ecx

; 46   : {

  00000	55		 push	 ebp
  00001	8b ec		 mov	 ebp, esp
  00003	6a ff		 push	 -1
  00005	68 00 00 00 00	 push	 __ehhandler$?LoadScript@CXMasEvent@@QAEHPBD@Z
  0000a	64 a1 00 00 00
	00		 mov	 eax, DWORD PTR fs:0
  00010	50		 push	 eax
  00011	81 ec 58 0e 00
	00		 sub	 esp, 3672		; 00000e58H
  00017	a1 00 00 00 00	 mov	 eax, DWORD PTR ___security_cookie
  0001c	33 c5		 xor	 eax, ebp
  0001e	89 45 f0	 mov	 DWORD PTR __$ArrayPad$[ebp], eax
  00021	53		 push	 ebx
  00022	56		 push	 esi
  00023	57		 push	 edi
  00024	50		 push	 eax
  00025	8d 45 f4	 lea	 eax, DWORD PTR __$EHRec$[ebp]
  00028	64 a3 00 00 00
	00		 mov	 DWORD PTR fs:0, eax
  0002e	89 8d 04 f2 ff
	ff		 mov	 DWORD PTR _this$GSCopy$1$[ebp], ecx
  00034	8b 75 08	 mov	 esi, DWORD PTR _lpFilename$[ebp]

; 47   : 	CScript s;

  00037	8d 8d 08 f2 ff
	ff		 lea	 ecx, DWORD PTR _s$[ebp]
  0003d	6a 00		 push	 0
  0003f	e8 00 00 00 00	 call	 ??0CScript@@QAE@H@Z	; CScript::CScript

; 48   : 	if( s.Load( lpFilename ) == FALSE )

  00044	6a 00		 push	 0
  00046	6a 01		 push	 1
  00048	56		 push	 esi
  00049	8d 8d 08 f2 ff
	ff		 lea	 ecx, DWORD PTR _s$[ebp]
  0004f	c7 45 fc 00 00
	00 00		 mov	 DWORD PTR __$EHRec$[ebp+8], 0
  00056	e8 00 00 00 00	 call	 ?Load@CScript@@QAEHPBDHH@Z ; CScript::Load
  0005b	85 c0		 test	 eax, eax
  0005d	75 07		 jne	 SHORT $LN8@LoadScript
  0005f	33 f6		 xor	 esi, esi
  00061	e9 c0 00 00 00	 jmp	 $LN11@LoadScript
$LN8@LoadScript:

; 49   : 		return FALSE;
; 50   : 	
; 51   : 	int an[24]	= { 0, };

  00066	6a 60		 push	 96			; 00000060H
  00068	8d 85 9c f1 ff
	ff		 lea	 eax, DWORD PTR _an$[ebp]
  0006e	6a 00		 push	 0
  00070	50		 push	 eax
  00071	e8 00 00 00 00	 call	 _memset
  00076	83 c4 0c	 add	 esp, 12			; 0000000cH

; 52   : 	int nTotal	= 0;
; 53   : 	
; 54   : 	int nMax	= s.GetNumber();	// drop num a day

  00079	8d 8d 08 f2 ff
	ff		 lea	 ecx, DWORD PTR _s$[ebp]
  0007f	33 ff		 xor	 edi, edi
  00081	57		 push	 edi
  00082	e8 00 00 00 00	 call	 ?GetNumber@CScanner@@QAEHH@Z ; CScanner::GetNumber
  00087	8b d8		 mov	 ebx, eax
  00089	33 f6		 xor	 esi, esi
  0008b	0f 1f 44 00 00	 npad	 5
$LL4@LoadScript:

; 55   : 
; 56   : 	for( int i = 0; i < 24; i++ )
; 57   : 	{
; 58   : 		an[i]	= s.GetNumber();

  00090	6a 00		 push	 0
  00092	8d 8d 08 f2 ff
	ff		 lea	 ecx, DWORD PTR _s$[ebp]
  00098	e8 00 00 00 00	 call	 ?GetNumber@CScanner@@QAEHH@Z ; CScanner::GetNumber
  0009d	89 84 b5 9c f1
	ff ff		 mov	 DWORD PTR _an$[ebp+esi*4], eax

; 59   : 		nTotal	+= an[i];

  000a4	03 f8		 add	 edi, eax
  000a6	46		 inc	 esi
  000a7	83 fe 18	 cmp	 esi, 24			; 00000018H
  000aa	7c e4		 jl	 SHORT $LL4@LoadScript

; 60   : 	}
; 61   : 	for( int i = 0; i < 24; i++ )

  000ac	66 0f 6e d7	 movd	 xmm2, edi
  000b0	33 f6		 xor	 esi, esi
  000b2	8b bd 04 f2 ff
	ff		 mov	 edi, DWORD PTR _this$GSCopy$1$[ebp]
  000b8	66 0f 6e c3	 movd	 xmm0, ebx
  000bc	83 c7 04	 add	 edi, 4
  000bf	0f 5b c0	 cvtdq2ps xmm0, xmm0
  000c2	0f 5b d2	 cvtdq2ps xmm2, xmm2
  000c5	f3 0f 11 85 00
	f2 ff ff	 movss	 DWORD PTR tv278[ebp], xmm0
  000cd	f3 0f 11 95 fc
	f1 ff ff	 movss	 DWORD PTR tv279[ebp], xmm2
  000d5	66 66 66 0f 1f
	84 00 00 00 00
	00		 npad	 11
$LL7@LoadScript:

; 62   : 		m_adwInterval[i]	= (DWORD)( (float)MIN( 60 ) / ( nMax * (float)an[i] / (float)nTotal ) );

  000e0	66 0f 6e 8c b5
	9c f1 ff ff	 movd	 xmm1, DWORD PTR _an$[ebp+esi*4]
  000e9	0f 5b c9	 cvtdq2ps xmm1, xmm1
  000ec	f3 0f 59 c8	 mulss	 xmm1, xmm0
  000f0	f3 0f 10 05 00
	00 00 00	 movss	 xmm0, DWORD PTR __real@4a5bba00
  000f8	f3 0f 5e ca	 divss	 xmm1, xmm2
  000fc	f3 0f 5e c1	 divss	 xmm0, xmm1
  00100	e8 00 00 00 00	 call	 __ftol3
  00105	f3 0f 10 85 00
	f2 ff ff	 movss	 xmm0, DWORD PTR tv278[ebp]
  0010d	8d 7f 04	 lea	 edi, DWORD PTR [edi+4]
  00110	f3 0f 10 95 fc
	f1 ff ff	 movss	 xmm2, DWORD PTR tv279[ebp]
  00118	46		 inc	 esi
  00119	89 47 fc	 mov	 DWORD PTR [edi-4], eax
  0011c	83 fe 18	 cmp	 esi, 24			; 00000018H
  0011f	7c bf		 jl	 SHORT $LL7@LoadScript

; 63   : 
; 64   : 	return TRUE;

  00121	be 01 00 00 00	 mov	 esi, 1
$LN11@LoadScript:
  00126	8d 8d 08 f2 ff
	ff		 lea	 ecx, DWORD PTR _s$[ebp]
  0012c	e8 00 00 00 00	 call	 ??1CScript@@UAE@XZ	; CScript::~CScript
  00131	8b c6		 mov	 eax, esi

; 65   : }

  00133	8b 4d f4	 mov	 ecx, DWORD PTR __$EHRec$[ebp]
  00136	64 89 0d 00 00
	00 00		 mov	 DWORD PTR fs:0, ecx
  0013d	59		 pop	 ecx
  0013e	5f		 pop	 edi
  0013f	5e		 pop	 esi
  00140	5b		 pop	 ebx
  00141	8b 4d f0	 mov	 ecx, DWORD PTR __$ArrayPad$[ebp]
  00144	33 cd		 xor	 ecx, ebp
  00146	e8 00 00 00 00	 call	 @__security_check_cookie@4
  0014b	8b e5		 mov	 esp, ebp
  0014d	5d		 pop	 ebp
  0014e	c2 04 00	 ret	 4
_TEXT	ENDS
;	COMDAT text$x
text$x	SEGMENT
__unwindfunclet$?LoadScript@CXMasEvent@@QAEHPBD@Z$0:
  00000	8d 8d 08 f2 ff
	ff		 lea	 ecx, DWORD PTR _s$[ebp]
  00006	e9 00 00 00 00	 jmp	 ??1CScript@@UAE@XZ	; CScript::~CScript
  0000b	cc		 int	 3
  0000c	cc		 int	 3
  0000d	cc		 int	 3
  0000e	cc		 int	 3
  0000f	cc		 int	 3
__ehhandler$?LoadScript@CXMasEvent@@QAEHPBD@Z:
  00010	90		 npad	 1
  00011	90		 npad	 1
  00012	8b 54 24 08	 mov	 edx, DWORD PTR [esp+8]
  00016	8d 42 0c	 lea	 eax, DWORD PTR [edx+12]
  00019	8b 8a 98 f1 ff
	ff		 mov	 ecx, DWORD PTR [edx-3688]
  0001f	33 c8		 xor	 ecx, eax
  00021	e8 00 00 00 00	 call	 @__security_check_cookie@4
  00026	8b 4a fc	 mov	 ecx, DWORD PTR [edx-4]
  00029	33 c8		 xor	 ecx, eax
  0002b	e8 00 00 00 00	 call	 @__security_check_cookie@4
  00030	b8 00 00 00 00	 mov	 eax, OFFSET __ehfuncinfo$?LoadScript@CXMasEvent@@QAEHPBD@Z
  00035	e9 00 00 00 00	 jmp	 ___CxxFrameHandler3
text$x	ENDS
?LoadScript@CXMasEvent@@QAEHPBD@Z ENDP			; CXMasEvent::LoadScript
; Function compile flags: /Ogtp
; File C:\IAGOS\server\v18\Source\Source\_Common\spevent.cpp
;	COMDAT ??1CXMasEvent@@UAE@XZ
_TEXT	SEGMENT
??1CXMasEvent@@UAE@XZ PROC				; CXMasEvent::~CXMasEvent, COMDAT
; _this$ = ecx

; 25   : 
; 26   : }

  00000	c7 01 00 00 00
	00		 mov	 DWORD PTR [ecx], OFFSET ??_7CSPEvent@@6B@
  00006	c3		 ret	 0
??1CXMasEvent@@UAE@XZ ENDP				; CXMasEvent::~CXMasEvent
_TEXT	ENDS
; Function compile flags: /Ogtp
; File C:\IAGOS\server\v18\Source\Source\_Common\spevent.cpp
;	COMDAT ??0CXMasEvent@@QAE@XZ
_TEXT	SEGMENT
_this$ = -4						; size = 4
??0CXMasEvent@@QAE@XZ PROC				; CXMasEvent::CXMasEvent, COMDAT
; _this$ = ecx

; 17   : {

  00000	55		 push	 ebp
  00001	8b ec		 mov	 ebp, esp
  00003	51		 push	 ecx
  00004	56		 push	 esi
  00005	8b f1		 mov	 esi, ecx
  00007	89 75 fc	 mov	 DWORD PTR _this$[ebp], esi
  0000a	c7 06 00 00 00
	00		 mov	 DWORD PTR [esi], OFFSET ??_7CXMasEvent@@6B@

; 18   : 	m_dwTimeout	= GetTickCount();

  00010	ff 15 00 00 00
	00		 call	 DWORD PTR __imp__GetTickCount@0

; 19   : 	memset( (void*)m_adwInterval, 0, sizeof(DWORD) * 24 );

  00016	6a 60		 push	 96			; 00000060H
  00018	89 46 64	 mov	 DWORD PTR [esi+100], eax
  0001b	8d 46 04	 lea	 eax, DWORD PTR [esi+4]
  0001e	6a 00		 push	 0
  00020	50		 push	 eax
  00021	e8 00 00 00 00	 call	 _memset
  00026	83 c4 0c	 add	 esp, 12			; 0000000cH

; 20   : 	m_lSkip		= 0;

  00029	c7 46 68 00 00
	00 00		 mov	 DWORD PTR [esi+104], 0

; 21   : }

  00030	8b c6		 mov	 eax, esi
  00032	5e		 pop	 esi
  00033	8b e5		 mov	 esp, ebp
  00035	5d		 pop	 ebp
  00036	c3		 ret	 0
??0CXMasEvent@@QAE@XZ ENDP				; CXMasEvent::CXMasEvent
_TEXT	ENDS
; Function compile flags: /Ogtp
;	COMDAT ??_GCSPEvent@@UAEPAXI@Z
_TEXT	SEGMENT
___flags$ = 8						; size = 4
??_GCSPEvent@@UAEPAXI@Z PROC				; CSPEvent::`scalar deleting destructor', COMDAT
; _this$ = ecx
  00000	55		 push	 ebp
  00001	8b ec		 mov	 ebp, esp
  00003	f6 45 08 01	 test	 BYTE PTR ___flags$[ebp], 1
  00007	56		 push	 esi
  00008	8b f1		 mov	 esi, ecx
  0000a	c7 06 00 00 00
	00		 mov	 DWORD PTR [esi], OFFSET ??_7CSPEvent@@6B@
  00010	74 0b		 je	 SHORT $LN5@scalar
  00012	6a 04		 push	 4
  00014	56		 push	 esi
  00015	e8 00 00 00 00	 call	 ??3@YAXPAXI@Z		; operator delete
  0001a	83 c4 08	 add	 esp, 8
$LN5@scalar:
  0001d	8b c6		 mov	 eax, esi
  0001f	5e		 pop	 esi
  00020	5d		 pop	 ebp
  00021	c2 04 00	 ret	 4
??_GCSPEvent@@UAEPAXI@Z ENDP				; CSPEvent::`scalar deleting destructor'
_TEXT	ENDS
; Function compile flags: /Ogtp
; File C:\IAGOS\server\v18\Source\Source\_Common\spevent.h
;	COMDAT ??1CSPEvent@@UAE@XZ
_TEXT	SEGMENT
??1CSPEvent@@UAE@XZ PROC				; CSPEvent::~CSPEvent, COMDAT
; _this$ = ecx

; 10   : 	virtual	~CSPEvent()	{}

  00000	c7 01 00 00 00
	00		 mov	 DWORD PTR [ecx], OFFSET ??_7CSPEvent@@6B@
  00006	c3		 ret	 0
??1CSPEvent@@UAE@XZ ENDP				; CSPEvent::~CSPEvent
_TEXT	ENDS
; Function compile flags: /Ogtp
; File C:\Program Files\Microsoft Visual Studio\2022\Professional\VC\Tools\MSVC\14.44.35207\include\xmemory
;	COMDAT ??$_Allocate_manually_vector_aligned@U_Default_allocate_traits@std@@@std@@YAPAXI@Z
_TEXT	SEGMENT
__Bytes$ = 8						; size = 4
??$_Allocate_manually_vector_aligned@U_Default_allocate_traits@std@@@std@@YAPAXI@Z PROC ; std::_Allocate_manually_vector_aligned<std::_Default_allocate_traits>, COMDAT

; 182  : __declspec(allocator) void* _Allocate_manually_vector_aligned(const size_t _Bytes) {

  00000	55		 push	 ebp
  00001	8b ec		 mov	 ebp, esp

; 183  :     // allocate _Bytes manually aligned to at least _Big_allocation_alignment
; 184  :     const size_t _Block_size = _Non_user_size + _Bytes;

  00003	8b 45 08	 mov	 eax, DWORD PTR __Bytes$[ebp]
  00006	8d 48 23	 lea	 ecx, DWORD PTR [eax+35]

; 185  :     if (_Block_size <= _Bytes) {

  00009	3b c8		 cmp	 ecx, eax
  0000b	0f 86 00 00 00
	00		 jbe	 ?_Throw_bad_array_new_length@std@@YAXXZ ; std::_Throw_bad_array_new_length

; 136  :         return ::operator new(_Bytes);

  00011	51		 push	 ecx
  00012	e8 00 00 00 00	 call	 ??2@YAPAXI@Z		; operator new

; 186  :         _Throw_bad_array_new_length(); // add overflow
; 187  :     }
; 188  : 
; 189  :     const uintptr_t _Ptr_container = reinterpret_cast<uintptr_t>(_Traits::_Allocate(_Block_size));

  00017	8b c8		 mov	 ecx, eax

; 136  :         return ::operator new(_Bytes);

  00019	83 c4 04	 add	 esp, 4

; 190  :     _STL_VERIFY(_Ptr_container != 0, "invalid argument"); // validate even in release since we're doing p[-1]

  0001c	85 c9		 test	 ecx, ecx
  0001e	74 0b		 je	 SHORT $LN9@Allocate_m

; 191  :     void* const _Ptr = reinterpret_cast<void*>((_Ptr_container + _Non_user_size) & ~(_Big_allocation_alignment - 1));

  00020	8d 41 23	 lea	 eax, DWORD PTR [ecx+35]
  00023	83 e0 e0	 and	 eax, -32		; ffffffe0H

; 192  :     static_cast<uintptr_t*>(_Ptr)[-1] = _Ptr_container;

  00026	89 48 fc	 mov	 DWORD PTR [eax-4], ecx

; 193  : 
; 194  : #ifdef _DEBUG
; 195  :     static_cast<uintptr_t*>(_Ptr)[-2] = _Big_allocation_sentinel;
; 196  : #endif // defined(_DEBUG)
; 197  :     return _Ptr;
; 198  : }

  00029	5d		 pop	 ebp
  0002a	c3		 ret	 0
$LN9@Allocate_m:

; 190  :     _STL_VERIFY(_Ptr_container != 0, "invalid argument"); // validate even in release since we're doing p[-1]

  0002b	6a 00		 push	 0
  0002d	6a 00		 push	 0
  0002f	6a 00		 push	 0
  00031	6a 00		 push	 0
  00033	6a 00		 push	 0
  00035	e8 00 00 00 00	 call	 __invoke_watson
$LN7@Allocate_m:
  0003a	cc		 int	 3
??$_Allocate_manually_vector_aligned@U_Default_allocate_traits@std@@@std@@YAPAXI@Z ENDP ; std::_Allocate_manually_vector_aligned<std::_Default_allocate_traits>
_TEXT	ENDS
; Function compile flags: /Ogtp
; File C:\IAGOS\server\v18\Source\Source\DX_SDK\d3dx9math.h
;	COMDAT ??0D3DXVECTOR3@@QAE@XZ
_TEXT	SEGMENT
??0D3DXVECTOR3@@QAE@XZ PROC				; D3DXVECTOR3::D3DXVECTOR3, COMDAT
; _this$ = ecx

; 165  :     D3DXVECTOR3() {};

  00000	8b c1		 mov	 eax, ecx
  00002	c3		 ret	 0
??0D3DXVECTOR3@@QAE@XZ ENDP				; D3DXVECTOR3::D3DXVECTOR3
_TEXT	ENDS
; Function compile flags: /Ogtp
; File C:\Program Files\Microsoft Visual Studio\2022\Professional\VC\Tools\MSVC\14.44.35207\include\xtree
;	COMDAT ?_Throw_tree_length_error@std@@YAXXZ
_TEXT	SEGMENT
?_Throw_tree_length_error@std@@YAXXZ PROC		; std::_Throw_tree_length_error, COMDAT

; 417  :     _Xlength_error("map/set too long");

  00000	68 00 00 00 00	 push	 OFFSET ??_C@_0BB@GCADKGJO@map?1set?5too?5long@
  00005	e8 00 00 00 00	 call	 ?_Xlength_error@std@@YAXPBD@Z ; std::_Xlength_error
$LN3@Throw_tree:
  0000a	cc		 int	 3
?_Throw_tree_length_error@std@@YAXXZ ENDP		; std::_Throw_tree_length_error
_TEXT	ENDS
; Function compile flags: /Ogtp
; File C:\Program Files\Microsoft Visual Studio\2022\Professional\VC\Tools\MSVC\14.44.35207\include\xmemory
;	COMDAT ?_Throw_bad_array_new_length@std@@YAXXZ
_TEXT	SEGMENT
$T1 = -12						; size = 12
?_Throw_bad_array_new_length@std@@YAXXZ PROC		; std::_Throw_bad_array_new_length, COMDAT

; 107  : [[noreturn]] inline void _Throw_bad_array_new_length() {

  00000	55		 push	 ebp
  00001	8b ec		 mov	 ebp, esp
  00003	83 ec 0c	 sub	 esp, 12			; 0000000cH

; 108  :     _THROW(bad_array_new_length{});

  00006	8d 4d f4	 lea	 ecx, DWORD PTR $T1[ebp]
  00009	e8 00 00 00 00	 call	 ??0bad_array_new_length@std@@QAE@XZ ; std::bad_array_new_length::bad_array_new_length
  0000e	68 00 00 00 00	 push	 OFFSET __TI3?AVbad_array_new_length@std@@
  00013	8d 45 f4	 lea	 eax, DWORD PTR $T1[ebp]
  00016	50		 push	 eax
  00017	e8 00 00 00 00	 call	 __CxxThrowException@8
$LN3@Throw_bad_:
  0001c	cc		 int	 3
?_Throw_bad_array_new_length@std@@YAXXZ ENDP		; std::_Throw_bad_array_new_length
_TEXT	ENDS
; Function compile flags: /Ogtp
; File C:\Program Files\Microsoft Visual Studio\2022\Professional\VC\Tools\MSVC\14.44.35207\include\vcruntime_exception.h
;	COMDAT ??_Gbad_array_new_length@std@@UAEPAXI@Z
_TEXT	SEGMENT
___flags$ = 8						; size = 4
??_Gbad_array_new_length@std@@UAEPAXI@Z PROC		; std::bad_array_new_length::`scalar deleting destructor', COMDAT
; _this$ = ecx
  00000	55		 push	 ebp
  00001	8b ec		 mov	 ebp, esp

; 90   :     {

  00003	56		 push	 esi
  00004	8b f1		 mov	 esi, ecx

; 91   :         __std_exception_destroy(&_Data);

  00006	8d 46 04	 lea	 eax, DWORD PTR [esi+4]
  00009	c7 06 00 00 00
	00		 mov	 DWORD PTR [esi], OFFSET ??_7exception@std@@6B@
  0000f	50		 push	 eax
  00010	e8 00 00 00 00	 call	 ___std_exception_destroy
  00015	83 c4 04	 add	 esp, 4
  00018	f6 45 08 01	 test	 BYTE PTR ___flags$[ebp], 1
  0001c	74 0b		 je	 SHORT $LN18@scalar
  0001e	6a 0c		 push	 12			; 0000000cH
  00020	56		 push	 esi
  00021	e8 00 00 00 00	 call	 ??3@YAXPAXI@Z		; operator delete
  00026	83 c4 08	 add	 esp, 8
$LN18@scalar:
  00029	8b c6		 mov	 eax, esi
  0002b	5e		 pop	 esi
  0002c	5d		 pop	 ebp
  0002d	c2 04 00	 ret	 4
??_Gbad_array_new_length@std@@UAEPAXI@Z ENDP		; std::bad_array_new_length::`scalar deleting destructor'
_TEXT	ENDS
; Function compile flags: /Ogtp
; File C:\Program Files\Microsoft Visual Studio\2022\Professional\VC\Tools\MSVC\14.44.35207\include\vcruntime_exception.h
;	COMDAT ??0bad_array_new_length@std@@QAE@ABV01@@Z
_TEXT	SEGMENT
___that$ = 8						; size = 4
??0bad_array_new_length@std@@QAE@ABV01@@Z PROC		; std::bad_array_new_length::bad_array_new_length, COMDAT
; _this$ = ecx
  00000	55		 push	 ebp
  00001	8b ec		 mov	 ebp, esp

; 73   :     {

  00003	56		 push	 esi
  00004	8b f1		 mov	 esi, ecx
  00006	0f 57 c0	 xorps	 xmm0, xmm0

; 72   :         : _Data()

  00009	8d 46 04	 lea	 eax, DWORD PTR [esi+4]

; 74   :         __std_exception_copy(&_Other._Data, &_Data);

  0000c	50		 push	 eax
  0000d	c7 06 00 00 00
	00		 mov	 DWORD PTR [esi], OFFSET ??_7exception@std@@6B@
  00013	66 0f d6 00	 movq	 QWORD PTR [eax], xmm0
  00017	8b 45 08	 mov	 eax, DWORD PTR ___that$[ebp]
  0001a	83 c0 04	 add	 eax, 4
  0001d	50		 push	 eax
  0001e	e8 00 00 00 00	 call	 ___std_exception_copy
  00023	83 c4 08	 add	 esp, 8
  00026	c7 06 00 00 00
	00		 mov	 DWORD PTR [esi], OFFSET ??_7bad_array_new_length@std@@6B@
  0002c	8b c6		 mov	 eax, esi
  0002e	5e		 pop	 esi
  0002f	5d		 pop	 ebp
  00030	c2 04 00	 ret	 4
??0bad_array_new_length@std@@QAE@ABV01@@Z ENDP		; std::bad_array_new_length::bad_array_new_length
_TEXT	ENDS
; Function compile flags: /Ogtp
; File C:\Program Files\Microsoft Visual Studio\2022\Professional\VC\Tools\MSVC\14.44.35207\include\vcruntime_exception.h
;	COMDAT ??1bad_array_new_length@std@@UAE@XZ
_TEXT	SEGMENT
??1bad_array_new_length@std@@UAE@XZ PROC		; std::bad_array_new_length::~bad_array_new_length, COMDAT
; _this$ = ecx

; 91   :         __std_exception_destroy(&_Data);

  00000	8d 41 04	 lea	 eax, DWORD PTR [ecx+4]
  00003	c7 01 00 00 00
	00		 mov	 DWORD PTR [ecx], OFFSET ??_7exception@std@@6B@
  00009	50		 push	 eax
  0000a	e8 00 00 00 00	 call	 ___std_exception_destroy
  0000f	59		 pop	 ecx
  00010	c3		 ret	 0
??1bad_array_new_length@std@@UAE@XZ ENDP		; std::bad_array_new_length::~bad_array_new_length
_TEXT	ENDS
; Function compile flags: /Ogtp
; File C:\Program Files\Microsoft Visual Studio\2022\Professional\VC\Tools\MSVC\14.44.35207\include\vcruntime_exception.h
;	COMDAT ??0bad_array_new_length@std@@QAE@XZ
_TEXT	SEGMENT
??0bad_array_new_length@std@@QAE@XZ PROC		; std::bad_array_new_length::bad_array_new_length, COMDAT
; _this$ = ecx

; 144  :     {

  00000	0f 57 c0	 xorps	 xmm0, xmm0

; 145  :     }

  00003	8b c1		 mov	 eax, ecx

; 66   :         : _Data()

  00005	66 0f d6 41 04	 movq	 QWORD PTR [ecx+4], xmm0

; 67   :     {
; 68   :         _Data._What = _Message;

  0000a	c7 41 04 00 00
	00 00		 mov	 DWORD PTR [ecx+4], OFFSET ??_C@_0BF@KINCDENJ@bad?5array?5new?5length@

; 144  :     {

  00011	c7 01 00 00 00
	00		 mov	 DWORD PTR [ecx], OFFSET ??_7bad_array_new_length@std@@6B@

; 145  :     }

  00017	c3		 ret	 0
??0bad_array_new_length@std@@QAE@XZ ENDP		; std::bad_array_new_length::bad_array_new_length
_TEXT	ENDS
; Function compile flags: /Ogtp
; File C:\Program Files\Microsoft Visual Studio\2022\Professional\VC\Tools\MSVC\14.44.35207\include\vcruntime_exception.h
;	COMDAT ??_Gbad_alloc@std@@UAEPAXI@Z
_TEXT	SEGMENT
___flags$ = 8						; size = 4
??_Gbad_alloc@std@@UAEPAXI@Z PROC			; std::bad_alloc::`scalar deleting destructor', COMDAT
; _this$ = ecx
  00000	55		 push	 ebp
  00001	8b ec		 mov	 ebp, esp

; 90   :     {

  00003	56		 push	 esi
  00004	8b f1		 mov	 esi, ecx

; 91   :         __std_exception_destroy(&_Data);

  00006	8d 46 04	 lea	 eax, DWORD PTR [esi+4]
  00009	c7 06 00 00 00
	00		 mov	 DWORD PTR [esi], OFFSET ??_7exception@std@@6B@
  0000f	50		 push	 eax
  00010	e8 00 00 00 00	 call	 ___std_exception_destroy
  00015	83 c4 04	 add	 esp, 4
  00018	f6 45 08 01	 test	 BYTE PTR ___flags$[ebp], 1
  0001c	74 0b		 je	 SHORT $LN13@scalar
  0001e	6a 0c		 push	 12			; 0000000cH
  00020	56		 push	 esi
  00021	e8 00 00 00 00	 call	 ??3@YAXPAXI@Z		; operator delete
  00026	83 c4 08	 add	 esp, 8
$LN13@scalar:
  00029	8b c6		 mov	 eax, esi
  0002b	5e		 pop	 esi
  0002c	5d		 pop	 ebp
  0002d	c2 04 00	 ret	 4
??_Gbad_alloc@std@@UAEPAXI@Z ENDP			; std::bad_alloc::`scalar deleting destructor'
_TEXT	ENDS
; Function compile flags: /Ogtp
; File C:\Program Files\Microsoft Visual Studio\2022\Professional\VC\Tools\MSVC\14.44.35207\include\vcruntime_exception.h
;	COMDAT ??0bad_alloc@std@@QAE@ABV01@@Z
_TEXT	SEGMENT
___that$ = 8						; size = 4
??0bad_alloc@std@@QAE@ABV01@@Z PROC			; std::bad_alloc::bad_alloc, COMDAT
; _this$ = ecx
  00000	55		 push	 ebp
  00001	8b ec		 mov	 ebp, esp

; 73   :     {

  00003	56		 push	 esi
  00004	8b f1		 mov	 esi, ecx
  00006	0f 57 c0	 xorps	 xmm0, xmm0

; 72   :         : _Data()

  00009	8d 46 04	 lea	 eax, DWORD PTR [esi+4]

; 74   :         __std_exception_copy(&_Other._Data, &_Data);

  0000c	50		 push	 eax
  0000d	c7 06 00 00 00
	00		 mov	 DWORD PTR [esi], OFFSET ??_7exception@std@@6B@
  00013	66 0f d6 00	 movq	 QWORD PTR [eax], xmm0
  00017	8b 45 08	 mov	 eax, DWORD PTR ___that$[ebp]
  0001a	83 c0 04	 add	 eax, 4
  0001d	50		 push	 eax
  0001e	e8 00 00 00 00	 call	 ___std_exception_copy
  00023	83 c4 08	 add	 esp, 8
  00026	c7 06 00 00 00
	00		 mov	 DWORD PTR [esi], OFFSET ??_7bad_alloc@std@@6B@
  0002c	8b c6		 mov	 eax, esi
  0002e	5e		 pop	 esi
  0002f	5d		 pop	 ebp
  00030	c2 04 00	 ret	 4
??0bad_alloc@std@@QAE@ABV01@@Z ENDP			; std::bad_alloc::bad_alloc
_TEXT	ENDS
; Function compile flags: /Ogtp
; File C:\Program Files\Microsoft Visual Studio\2022\Professional\VC\Tools\MSVC\14.44.35207\include\vcruntime_exception.h
;	COMDAT ??_Gexception@std@@UAEPAXI@Z
_TEXT	SEGMENT
___flags$ = 8						; size = 4
??_Gexception@std@@UAEPAXI@Z PROC			; std::exception::`scalar deleting destructor', COMDAT
; _this$ = ecx
  00000	55		 push	 ebp
  00001	8b ec		 mov	 ebp, esp

; 90   :     {

  00003	56		 push	 esi
  00004	8b f1		 mov	 esi, ecx

; 91   :         __std_exception_destroy(&_Data);

  00006	8d 46 04	 lea	 eax, DWORD PTR [esi+4]
  00009	c7 06 00 00 00
	00		 mov	 DWORD PTR [esi], OFFSET ??_7exception@std@@6B@
  0000f	50		 push	 eax
  00010	e8 00 00 00 00	 call	 ___std_exception_destroy
  00015	83 c4 04	 add	 esp, 4
  00018	f6 45 08 01	 test	 BYTE PTR ___flags$[ebp], 1
  0001c	74 0b		 je	 SHORT $LN8@scalar
  0001e	6a 0c		 push	 12			; 0000000cH
  00020	56		 push	 esi
  00021	e8 00 00 00 00	 call	 ??3@YAXPAXI@Z		; operator delete
  00026	83 c4 08	 add	 esp, 8
$LN8@scalar:
  00029	8b c6		 mov	 eax, esi
  0002b	5e		 pop	 esi
  0002c	5d		 pop	 ebp
  0002d	c2 04 00	 ret	 4
??_Gexception@std@@UAEPAXI@Z ENDP			; std::exception::`scalar deleting destructor'
_TEXT	ENDS
; Function compile flags: /Ogtp
; File C:\Program Files\Microsoft Visual Studio\2022\Professional\VC\Tools\MSVC\14.44.35207\include\vcruntime_exception.h
;	COMDAT ?what@exception@std@@UBEPBDXZ
_TEXT	SEGMENT
?what@exception@std@@UBEPBDXZ PROC			; std::exception::what, COMDAT
; _this$ = ecx

; 96   :         return _Data._What ? _Data._What : "Unknown exception";

  00000	8b 49 04	 mov	 ecx, DWORD PTR [ecx+4]
  00003	b8 00 00 00 00	 mov	 eax, OFFSET ??_C@_0BC@EOODALEL@Unknown?5exception@
  00008	85 c9		 test	 ecx, ecx
  0000a	0f 45 c1	 cmovne	 eax, ecx

; 97   :     }

  0000d	c3		 ret	 0
?what@exception@std@@UBEPBDXZ ENDP			; std::exception::what
_TEXT	ENDS
; Function compile flags: /Ogtp
; File C:\Program Files\Microsoft Visual Studio\2022\Professional\VC\Tools\MSVC\14.44.35207\include\vcruntime_exception.h
;	COMDAT ??1exception@std@@UAE@XZ
_TEXT	SEGMENT
??1exception@std@@UAE@XZ PROC				; std::exception::~exception, COMDAT
; _this$ = ecx

; 91   :         __std_exception_destroy(&_Data);

  00000	8d 41 04	 lea	 eax, DWORD PTR [ecx+4]
  00003	c7 01 00 00 00
	00		 mov	 DWORD PTR [ecx], OFFSET ??_7exception@std@@6B@
  00009	50		 push	 eax
  0000a	e8 00 00 00 00	 call	 ___std_exception_destroy
  0000f	59		 pop	 ecx

; 92   :     }

  00010	c3		 ret	 0
??1exception@std@@UAE@XZ ENDP				; std::exception::~exception
_TEXT	ENDS
; Function compile flags: /Ogtp
; File C:\Program Files\Microsoft Visual Studio\2022\Professional\VC\Tools\MSVC\14.44.35207\include\vcruntime_exception.h
;	COMDAT ??0exception@std@@QAE@ABV01@@Z
_TEXT	SEGMENT
__Other$ = 8						; size = 4
??0exception@std@@QAE@ABV01@@Z PROC			; std::exception::exception, COMDAT
; _this$ = ecx

; 73   :     {

  00000	55		 push	 ebp
  00001	8b ec		 mov	 ebp, esp
  00003	56		 push	 esi
  00004	8b f1		 mov	 esi, ecx
  00006	0f 57 c0	 xorps	 xmm0, xmm0
  00009	8d 46 04	 lea	 eax, DWORD PTR [esi+4]

; 74   :         __std_exception_copy(&_Other._Data, &_Data);

  0000c	50		 push	 eax
  0000d	c7 06 00 00 00
	00		 mov	 DWORD PTR [esi], OFFSET ??_7exception@std@@6B@
  00013	66 0f d6 00	 movq	 QWORD PTR [eax], xmm0
  00017	8b 45 08	 mov	 eax, DWORD PTR __Other$[ebp]
  0001a	83 c0 04	 add	 eax, 4
  0001d	50		 push	 eax
  0001e	e8 00 00 00 00	 call	 ___std_exception_copy
  00023	83 c4 08	 add	 esp, 8

; 75   :     }

  00026	8b c6		 mov	 eax, esi
  00028	5e		 pop	 esi
  00029	5d		 pop	 ebp
  0002a	c2 04 00	 ret	 4
??0exception@std@@QAE@ABV01@@Z ENDP			; std::exception::exception
_TEXT	ENDS
; Function compile flags: /Ogtp
; File C:\Program Files\Microsoft Visual Studio\2022\Professional\VC\Tools\MSVC\14.44.35207\atlmfc\include\cstringt.h
; File C:\Program Files\Microsoft Visual Studio\2022\Professional\VC\Tools\MSVC\14.44.35207\atlmfc\include\afxstr.h
; File C:\Program Files\Microsoft Visual Studio\2022\Professional\VC\Tools\MSVC\14.44.35207\atlmfc\include\cstringt.h
; File C:\Program Files\Microsoft Visual Studio\2022\Professional\VC\Tools\MSVC\14.44.35207\atlmfc\include\afxstr.h
; File C:\Program Files\Microsoft Visual Studio\2022\Professional\VC\Tools\MSVC\14.44.35207\atlmfc\include\cstringt.h
; File C:\Program Files\Microsoft Visual Studio\2022\Professional\VC\Tools\MSVC\14.44.35207\atlmfc\include\atlcore.h
; File C:\Program Files\Microsoft Visual Studio\2022\Professional\VC\Tools\MSVC\14.44.35207\atlmfc\include\cstringt.h
; File C:\Program Files\Microsoft Visual Studio\2022\Professional\VC\Tools\MSVC\14.44.35207\atlmfc\include\atlsimpstr.h
; File C:\Program Files\Microsoft Visual Studio\2022\Professional\VC\Tools\MSVC\14.44.35207\atlmfc\include\cstringt.h
; File C:\Program Files\Microsoft Visual Studio\2022\Professional\VC\Tools\MSVC\14.44.35207\atlmfc\include\atlsimpstr.h
; File C:\Program Files\Microsoft Visual Studio\2022\Professional\VC\Tools\MSVC\14.44.35207\atlmfc\include\cstringt.h
; File C:\Program Files\Microsoft Visual Studio\2022\Professional\VC\Tools\MSVC\14.44.35207\atlmfc\include\atlsimpstr.h
; File C:\Program Files\Microsoft Visual Studio\2022\Professional\VC\Tools\MSVC\14.44.35207\atlmfc\include\cstringt.h
; File C:\Program Files\Microsoft Visual Studio\2022\Professional\VC\Tools\MSVC\14.44.35207\atlmfc\include\atlsimpstr.h
; File C:\Program Files\Microsoft Visual Studio\2022\Professional\VC\Tools\MSVC\14.44.35207\atlmfc\include\cstringt.h
;	COMDAT ?LoadStringA@?$CStringT@DV?$StrTraitMFC@DV?$ChTraitsCRT@D@ATL@@@@@ATL@@QAEHI@Z
_TEXT	SEGMENT
_this$1$ = -4						; size = 4
_nID$ = 8						; size = 4
_hResource$1$ = 8					; size = 4
?LoadStringA@?$CStringT@DV?$StrTraitMFC@DV?$ChTraitsCRT@D@ATL@@@@@ATL@@QAEHI@Z PROC ; ATL::CStringT<char,StrTraitMFC<char,ATL::ChTraitsCRT<char> > >::LoadStringA, COMDAT
; _this$ = ecx

; 2340 : 	{

  00000	55		 push	 ebp
  00001	8b ec		 mov	 ebp, esp
  00003	51		 push	 ecx
  00004	53		 push	 ebx
  00005	57		 push	 edi
; File C:\Program Files\Microsoft Visual Studio\2022\Professional\VC\Tools\MSVC\14.44.35207\atlmfc\include\afxstr.h

; 51   : 		return( AfxFindStringResourceHandle( nID ) );

  00006	8b 7d 08	 mov	 edi, DWORD PTR _nID$[ebp]
  00009	57		 push	 edi
; File C:\Program Files\Microsoft Visual Studio\2022\Professional\VC\Tools\MSVC\14.44.35207\atlmfc\include\cstringt.h

; 2340 : 	{

  0000a	89 4d fc	 mov	 DWORD PTR _this$1$[ebp], ecx
; File C:\Program Files\Microsoft Visual Studio\2022\Professional\VC\Tools\MSVC\14.44.35207\atlmfc\include\afxstr.h

; 51   : 		return( AfxFindStringResourceHandle( nID ) );

  0000d	e8 00 00 00 00	 call	 ?AfxFindStringResourceHandle@@YGPAUHINSTANCE__@@I@Z ; AfxFindStringResourceHandle
; File C:\Program Files\Microsoft Visual Studio\2022\Professional\VC\Tools\MSVC\14.44.35207\atlmfc\include\cstringt.h

; 2341 : 		HINSTANCE hInstance = StringTraits::FindStringResourceInstance( nID );

  00012	8b d8		 mov	 ebx, eax

; 2342 : 		if( hInstance == NULL )

  00014	85 db		 test	 ebx, ebx
  00016	75 08		 jne	 SHORT $LN2@LoadString

; 2348 : 	}

  00018	5f		 pop	 edi
  00019	5b		 pop	 ebx
  0001a	8b e5		 mov	 esp, ebp
  0001c	5d		 pop	 ebp
  0001d	c2 04 00	 ret	 4
$LN2@LoadString:
; File C:\Program Files\Microsoft Visual Studio\2022\Professional\VC\Tools\MSVC\14.44.35207\atlmfc\include\atlcore.h

; 380  : 	hResource = ::FindResourceW(hInstance, MAKEINTRESOURCEW( (((id>>4)+1) & static_cast<WORD>(~0)) ), (LPWSTR) RT_STRING);

  00020	8b c7		 mov	 eax, edi
  00022	c1 e8 04	 shr	 eax, 4
  00025	56		 push	 esi
  00026	40		 inc	 eax
  00027	6a 06		 push	 6
  00029	0f b7 c0	 movzx	 eax, ax
  0002c	50		 push	 eax
  0002d	53		 push	 ebx
  0002e	ff 15 00 00 00
	00		 call	 DWORD PTR __imp__FindResourceW@12
  00034	89 45 08	 mov	 DWORD PTR _hResource$1$[ebp], eax

; 381  : 	if( hResource == NULL )

  00037	85 c0		 test	 eax, eax
  00039	0f 84 cc 00 00
	00		 je	 $LN51@LoadString

; 338  : 	hGlobal = ::LoadResource( hInstance, hResource );

  0003f	50		 push	 eax
  00040	53		 push	 ebx
  00041	ff 15 00 00 00
	00		 call	 DWORD PTR __imp__LoadResource@8

; 339  : 	if( hGlobal == NULL )

  00047	85 c0		 test	 eax, eax
  00049	75 04		 jne	 SHORT $LN15@LoadString

; 340  : 	{
; 341  : 		return( NULL );

  0004b	33 f6		 xor	 esi, esi
  0004d	eb 43		 jmp	 SHORT $LN18@LoadString
$LN15@LoadString:

; 342  : 	}
; 343  : 
; 344  : 	pImage = (const ATLSTRINGRESOURCEIMAGE*)::LockResource( hGlobal );

  0004f	50		 push	 eax
  00050	ff 15 00 00 00
	00		 call	 DWORD PTR __imp__LockResource@4
  00056	8b f0		 mov	 esi, eax

; 345  : 	if( pImage == NULL )

  00058	85 f6		 test	 esi, esi
  0005a	74 36		 je	 SHORT $LN18@LoadString
$LN16@LoadString:

; 346  : 	{
; 347  : 		return( NULL );
; 348  : 	}
; 349  : 
; 350  : 	nResourceSize = ::SizeofResource( hInstance, hResource );

  0005c	ff 75 08	 push	 DWORD PTR _hResource$1$[ebp]
  0005f	53		 push	 ebx
  00060	ff 15 00 00 00
	00		 call	 DWORD PTR __imp__SizeofResource@8

; 351  : 	pImageEnd = (const ATLSTRINGRESOURCEIMAGE*)(LPBYTE( pImage )+nResourceSize);

  00066	8d 0c 06	 lea	 ecx, DWORD PTR [esi+eax]

; 352  : 	iIndex = id&0x000f;

  00069	83 e7 0f	 and	 edi, 15			; 0000000fH

; 353  : 
; 354  : 	while( (iIndex > 0) && (pImage < pImageEnd) )

  0006c	76 14		 jbe	 SHORT $LN14@LoadString
  0006e	66 90		 npad	 2
$LL13@LoadString:
  00070	3b f1		 cmp	 esi, ecx
  00072	73 12		 jae	 SHORT $LN50@LoadString

; 355  : 	{
; 356  : 		pImage = (const ATLSTRINGRESOURCEIMAGE*)(LPBYTE( pImage )+(sizeof( ATLSTRINGRESOURCEIMAGE )+(pImage->nLength*sizeof( WCHAR ))));

  00074	0f b7 06	 movzx	 eax, WORD PTR [esi]
  00077	8d 34 46	 lea	 esi, DWORD PTR [esi+eax*2]
  0007a	83 c6 02	 add	 esi, 2

; 357  : 		iIndex--;

  0007d	83 ef 01	 sub	 edi, 1
  00080	75 ee		 jne	 SHORT $LL13@LoadString
$LN14@LoadString:

; 358  : 	}
; 359  : 	if( pImage >= pImageEnd )

  00082	3b f1		 cmp	 esi, ecx
  00084	72 04		 jb	 SHORT $LN17@LoadString
$LN50@LoadString:

; 360  : 	{
; 361  : 		return( NULL );

  00086	33 f6		 xor	 esi, esi
  00088	eb 08		 jmp	 SHORT $LN18@LoadString
$LN17@LoadString:

; 362  : 	}
; 363  : 	if( pImage->nLength == 0 )

  0008a	33 c0		 xor	 eax, eax
  0008c	66 39 06	 cmp	 WORD PTR [esi], ax
  0008f	0f 44 f0	 cmove	 esi, eax
$LN18@LoadString:
; File C:\Program Files\Microsoft Visual Studio\2022\Professional\VC\Tools\MSVC\14.44.35207\atlmfc\include\cstringt.h

; 2356 : 		if( pImage == NULL )

  00092	85 f6		 test	 esi, esi
  00094	74 75		 je	 SHORT $LN51@LoadString

; 2359 : 		}
; 2360 : 
; 2361 : 		int nLength = StringTraits::GetBaseTypeLength( pImage->achString, pImage->nLength );

  00096	0f b7 06	 movzx	 eax, WORD PTR [esi]
  00099	8d 4e 02	 lea	 ecx, DWORD PTR [esi+2]

; 350  : 		return ::WideCharToMultiByte( _AtlGetConversionACP(), 0, pszSource, nLength, NULL, 0, NULL, NULL );

  0009c	6a 00		 push	 0
  0009e	6a 00		 push	 0
  000a0	6a 00		 push	 0
  000a2	6a 00		 push	 0
  000a4	50		 push	 eax
  000a5	51		 push	 ecx
  000a6	6a 00		 push	 0
  000a8	6a 03		 push	 3
  000aa	ff 15 00 00 00
	00		 call	 DWORD PTR __imp__WideCharToMultiByte@32

; 2361 : 		int nLength = StringTraits::GetBaseTypeLength( pImage->achString, pImage->nLength );

  000b0	8b f8		 mov	 edi, eax
; File C:\Program Files\Microsoft Visual Studio\2022\Professional\VC\Tools\MSVC\14.44.35207\atlmfc\include\atlsimpstr.h

; 808  : 		if (nLength < 0)

  000b2	85 ff		 test	 edi, edi
  000b4	78 60		 js	 SHORT $LN38@LoadString

; 804  : 		return( reinterpret_cast< CStringData* >( m_pszData )-1 );

  000b6	8b 5d fc	 mov	 ebx, DWORD PTR _this$1$[ebp]

; 812  : 		int nShared = 1-pOldData->nRefs;  // nShared < 0 means true, >= 0 means false

  000b9	ba 01 00 00 00	 mov	 edx, 1

; 804  : 		return( reinterpret_cast< CStringData* >( m_pszData )-1 );

  000be	8b 0b		 mov	 ecx, DWORD PTR [ebx]

; 812  : 		int nShared = 1-pOldData->nRefs;  // nShared < 0 means true, >= 0 means false

  000c0	2b 51 fc	 sub	 edx, DWORD PTR [ecx-4]

; 813  : 		int nTooShort = pOldData->nAllocLength-nLength;  // nTooShort < 0 means true, >= 0 means false

  000c3	8b 49 f8	 mov	 ecx, DWORD PTR [ecx-8]
  000c6	2b cf		 sub	 ecx, edi

; 814  : 		if( (nShared|nTooShort) < 0 )  // If either sign bit is set (i.e. either is less than zero), we need to copy data

  000c8	0b d1		 or	 edx, ecx
  000ca	7d 08		 jge	 SHORT $LN26@LoadString

; 815  : 		{
; 816  : 			PrepareWrite2( nLength );

  000cc	57		 push	 edi
  000cd	8b cb		 mov	 ecx, ebx
  000cf	e8 00 00 00 00	 call	 ?PrepareWrite2@?$CSimpleStringT@D$0A@@ATL@@AAEXH@Z ; ATL::CSimpleStringT<char,0>::PrepareWrite2
$LN26@LoadString:
; File C:\Program Files\Microsoft Visual Studio\2022\Professional\VC\Tools\MSVC\14.44.35207\atlmfc\include\cstringt.h

; 2363 : 		StringTraits::ConvertToBaseType( pszBuffer, nLength, pImage->achString, pImage->nLength );

  000d4	0f b7 06	 movzx	 eax, WORD PTR [esi]

; 372  : 		::WideCharToMultiByte( _AtlGetConversionACP(), 0, pszSrc, nSrcLength, pszDest, nDestLength, NULL, NULL );

  000d7	6a 00		 push	 0
  000d9	6a 00		 push	 0
  000db	57		 push	 edi
  000dc	ff 33		 push	 DWORD PTR [ebx]
  000de	50		 push	 eax
  000df	8d 46 02	 lea	 eax, DWORD PTR [esi+2]
  000e2	50		 push	 eax
  000e3	6a 00		 push	 0
  000e5	6a 03		 push	 3
  000e7	ff 15 00 00 00
	00		 call	 DWORD PTR __imp__WideCharToMultiByte@32
; File C:\Program Files\Microsoft Visual Studio\2022\Professional\VC\Tools\MSVC\14.44.35207\atlmfc\include\atlsimpstr.h

; 875  : 		if( nLength < 0 || nLength > GetData()->nAllocLength)

  000ed	8b 03		 mov	 eax, DWORD PTR [ebx]
  000ef	3b 78 f8	 cmp	 edi, DWORD PTR [eax-8]
  000f2	7f 22		 jg	 SHORT $LN38@LoadString

; 877  : 
; 878  : 		GetData()->nDataLength = nLength;

  000f4	89 78 f4	 mov	 DWORD PTR [eax-12], edi

; 879  : 		m_pszData[nLength] = 0;

  000f7	8b 03		 mov	 eax, DWORD PTR [ebx]
; File C:\Program Files\Microsoft Visual Studio\2022\Professional\VC\Tools\MSVC\14.44.35207\atlmfc\include\cstringt.h

; 2347 : 		return( LoadString( hInstance, nID ) );

  000f9	5e		 pop	 esi
; File C:\Program Files\Microsoft Visual Studio\2022\Professional\VC\Tools\MSVC\14.44.35207\atlmfc\include\atlsimpstr.h

; 879  : 		m_pszData[nLength] = 0;

  000fa	c6 04 07 00	 mov	 BYTE PTR [edi+eax], 0
; File C:\Program Files\Microsoft Visual Studio\2022\Professional\VC\Tools\MSVC\14.44.35207\atlmfc\include\cstringt.h

; 2366 : 		return( TRUE );

  000fe	b8 01 00 00 00	 mov	 eax, 1
  00103	5f		 pop	 edi

; 2348 : 	}

  00104	5b		 pop	 ebx
  00105	8b e5		 mov	 esp, ebp
  00107	5d		 pop	 ebp
  00108	c2 04 00	 ret	 4
$LN51@LoadString:

; 2347 : 		return( LoadString( hInstance, nID ) );

  0010b	5e		 pop	 esi
  0010c	5f		 pop	 edi

; 2358 : 			return( FALSE );

  0010d	33 c0		 xor	 eax, eax

; 2348 : 	}

  0010f	5b		 pop	 ebx
  00110	8b e5		 mov	 esp, ebp
  00112	5d		 pop	 ebp
  00113	c2 04 00	 ret	 4
$LN38@LoadString:
; File C:\Program Files\Microsoft Visual Studio\2022\Professional\VC\Tools\MSVC\14.44.35207\atlmfc\include\atlsimpstr.h

; 876  : 			AtlThrow(E_INVALIDARG);

  00116	68 57 00 07 80	 push	 -2147024809		; 80070057H
  0011b	e8 00 00 00 00	 call	 ?AtlThrowImpl@ATL@@YGXJ@Z ; ATL::AtlThrowImpl
$LN63@LoadString:
  00120	cc		 int	 3
?LoadStringA@?$CStringT@DV?$StrTraitMFC@DV?$ChTraitsCRT@D@ATL@@@@@ATL@@QAEHI@Z ENDP ; ATL::CStringT<char,StrTraitMFC<char,ATL::ChTraitsCRT<char> > >::LoadStringA
_TEXT	ENDS
; Function compile flags: /Ogtp
; File C:\Program Files\Microsoft Visual Studio\2022\Professional\VC\Tools\MSVC\14.44.35207\atlmfc\include\cstringt.h
; File C:\Program Files\Microsoft Visual Studio\2022\Professional\VC\Tools\MSVC\14.44.35207\atlmfc\include\atlsimpstr.h
; File C:\Program Files\Microsoft Visual Studio\2022\Professional\VC\Tools\MSVC\14.44.35207\atlmfc\include\cstringt.h
;	COMDAT ??1?$CStringT@DV?$StrTraitMFC@DV?$ChTraitsCRT@D@ATL@@@@@ATL@@QAE@XZ
_TEXT	SEGMENT
??1?$CStringT@DV?$StrTraitMFC@DV?$ChTraitsCRT@D@ATL@@@@@ATL@@QAE@XZ PROC ; ATL::CStringT<char,StrTraitMFC<char,ATL::ChTraitsCRT<char> > >::~CStringT<char,StrTraitMFC<char,ATL::ChTraitsCRT<char> > >, COMDAT
; _this$ = ecx
; File C:\Program Files\Microsoft Visual Studio\2022\Professional\VC\Tools\MSVC\14.44.35207\atlmfc\include\atlsimpstr.h

; 804  : 		return( reinterpret_cast< CStringData* >( m_pszData )-1 );

  00000	8b 11		 mov	 edx, DWORD PTR [ecx]

; 92   : 		if( _InterlockedDecrement( &nRefs ) <= 0 )

  00002	83 c8 ff	 or	 eax, -1

; 804  : 		return( reinterpret_cast< CStringData* >( m_pszData )-1 );

  00005	83 ea 10	 sub	 edx, 16			; 00000010H

; 92   : 		if( _InterlockedDecrement( &nRefs ) <= 0 )

  00008	f0 0f c1 42 0c	 lock	  xadd	 DWORD PTR [edx+12], eax
  0000d	48		 dec	 eax
  0000e	85 c0		 test	 eax, eax
  00010	7f 08		 jg	 SHORT $LN8@CStringT

; 93   : 		{
; 94   : 			pStringMgr->Free( this );

  00012	8b 0a		 mov	 ecx, DWORD PTR [edx]
  00014	52		 push	 edx
  00015	8b 01		 mov	 eax, DWORD PTR [ecx]
  00017	ff 50 04	 call	 DWORD PTR [eax+4]
$LN8@CStringT:
; File C:\Program Files\Microsoft Visual Studio\2022\Professional\VC\Tools\MSVC\14.44.35207\atlmfc\include\cstringt.h

; 1303 : 	}

  0001a	c3		 ret	 0
??1?$CStringT@DV?$StrTraitMFC@DV?$ChTraitsCRT@D@ATL@@@@@ATL@@QAE@XZ ENDP ; ATL::CStringT<char,StrTraitMFC<char,ATL::ChTraitsCRT<char> > >::~CStringT<char,StrTraitMFC<char,ATL::ChTraitsCRT<char> > >
_TEXT	ENDS
; Function compile flags: /Ogtp
; File C:\Program Files\Microsoft Visual Studio\2022\Professional\VC\Tools\MSVC\14.44.35207\atlmfc\include\atlsimpstr.h
;	COMDAT ?Reallocate@?$CSimpleStringT@D$0A@@ATL@@AAEXH@Z
_TEXT	SEGMENT
_nLength$ = 8						; size = 4
?Reallocate@?$CSimpleStringT@D$0A@@ATL@@AAEXH@Z PROC	; ATL::CSimpleStringT<char,0>::Reallocate, COMDAT
; _this$ = ecx

; 853  : 	{

  00000	55		 push	 ebp
  00001	8b ec		 mov	 ebp, esp
  00003	56		 push	 esi

; 854  : 		CStringData* pOldData = GetData();
; 855  : 		ATLASSERT( pOldData->nAllocLength < nLength );
; 856  : 		IAtlStringMgr* pStringMgr = pOldData->pStringMgr;
; 857  : 		if ( pOldData->nAllocLength >= nLength || nLength <= 0)

  00004	8b 75 08	 mov	 esi, DWORD PTR _nLength$[ebp]
  00007	57		 push	 edi
  00008	8b f9		 mov	 edi, ecx

; 804  : 		return( reinterpret_cast< CStringData* >( m_pszData )-1 );

  0000a	8b 17		 mov	 edx, DWORD PTR [edi]
  0000c	83 ea 10	 sub	 edx, 16			; 00000010H

; 854  : 		CStringData* pOldData = GetData();
; 855  : 		ATLASSERT( pOldData->nAllocLength < nLength );
; 856  : 		IAtlStringMgr* pStringMgr = pOldData->pStringMgr;
; 857  : 		if ( pOldData->nAllocLength >= nLength || nLength <= 0)

  0000f	39 72 08	 cmp	 DWORD PTR [edx+8], esi
  00012	7d 1e		 jge	 SHORT $LN3@Reallocate
  00014	85 f6		 test	 esi, esi
  00016	7e 1a		 jle	 SHORT $LN3@Reallocate

; 860  : 			return;
; 861  : 		}
; 862  : 		CStringData* pNewData = pStringMgr->Reallocate( pOldData, nLength, sizeof( XCHAR ) );

  00018	8b 0a		 mov	 ecx, DWORD PTR [edx]
  0001a	6a 01		 push	 1
  0001c	56		 push	 esi
  0001d	52		 push	 edx
  0001e	8b 01		 mov	 eax, DWORD PTR [ecx]
  00020	ff 50 08	 call	 DWORD PTR [eax+8]

; 863  : 		if( pNewData == NULL )

  00023	85 c0		 test	 eax, eax
  00025	74 0b		 je	 SHORT $LN3@Reallocate

; 864  : 		{
; 865  : 			ThrowMemoryException();
; 866  : 		}
; 867  : 		Attach( pNewData );

  00027	83 c0 10	 add	 eax, 16			; 00000010H
  0002a	89 07		 mov	 DWORD PTR [edi], eax
  0002c	5f		 pop	 edi
  0002d	5e		 pop	 esi

; 868  : 	}

  0002e	5d		 pop	 ebp
  0002f	c2 04 00	 ret	 4
$LN3@Reallocate:

; 858  : 		{
; 859  : 			ThrowMemoryException();

  00032	e8 00 00 00 00	 call	 ?ThrowMemoryException@?$CSimpleStringT@D$0A@@ATL@@KAXXZ ; ATL::CSimpleStringT<char,0>::ThrowMemoryException
$LN12@Reallocate:
  00037	cc		 int	 3
?Reallocate@?$CSimpleStringT@D$0A@@ATL@@AAEXH@Z ENDP	; ATL::CSimpleStringT<char,0>::Reallocate
_TEXT	ENDS
; Function compile flags: /Ogtp
; File C:\Program Files\Microsoft Visual Studio\2022\Professional\VC\Tools\MSVC\14.44.35207\atlmfc\include\atlsimpstr.h
;	COMDAT ?PrepareWrite2@?$CSimpleStringT@D$0A@@ATL@@AAEXH@Z
_TEXT	SEGMENT
_nLength$ = 8						; size = 4
?PrepareWrite2@?$CSimpleStringT@D$0A@@ATL@@AAEXH@Z PROC	; ATL::CSimpleStringT<char,0>::PrepareWrite2, COMDAT
; _this$ = ecx

; 822  : 	{

  00000	55		 push	 ebp
  00001	8b ec		 mov	 ebp, esp
  00003	56		 push	 esi

; 823  : 		CStringData* pOldData = GetData();
; 824  : 		if( pOldData->nDataLength > nLength )

  00004	8b 75 08	 mov	 esi, DWORD PTR _nLength$[ebp]
  00007	57		 push	 edi
  00008	8b f9		 mov	 edi, ecx

; 804  : 		return( reinterpret_cast< CStringData* >( m_pszData )-1 );

  0000a	8b 0f		 mov	 ecx, DWORD PTR [edi]

; 823  : 		CStringData* pOldData = GetData();
; 824  : 		if( pOldData->nDataLength > nLength )

  0000c	39 71 f4	 cmp	 DWORD PTR [ecx-12], esi
  0000f	0f 4f 71 f4	 cmovg	 esi, DWORD PTR [ecx-12]

; 77   : 		return( nRefs > 1 );

  00013	83 79 fc 01	 cmp	 DWORD PTR [ecx-4], 1

; 825  : 		{
; 826  : 			nLength = pOldData->nDataLength;
; 827  : 		}
; 828  : 		if( pOldData->IsShared() )

  00017	7e 0e		 jle	 SHORT $LN3@PrepareWri

; 829  : 		{
; 830  : 			Fork( nLength );

  00019	56		 push	 esi
  0001a	8b cf		 mov	 ecx, edi
  0001c	e8 00 00 00 00	 call	 ?Fork@?$CSimpleStringT@D$0A@@ATL@@AAEXH@Z ; ATL::CSimpleStringT<char,0>::Fork
  00021	5f		 pop	 edi

; 850  : 		}
; 851  : 	}

  00022	5e		 pop	 esi
  00023	5d		 pop	 ebp
  00024	c2 04 00	 ret	 4
$LN3@PrepareWri:

; 831  : 		}
; 832  : 		else if( pOldData->nAllocLength < nLength )

  00027	8b 49 f8	 mov	 ecx, DWORD PTR [ecx-8]
  0002a	3b ce		 cmp	 ecx, esi
  0002c	7d 25		 jge	 SHORT $LN5@PrepareWri

; 833  : 		{
; 834  : 			// Grow exponentially, until we hit 1G, then by 1M thereafter.
; 835  : 			int nNewLength = pOldData->nAllocLength;
; 836  : 			if( nNewLength > 1024 * 1024 * 1024 )

  0002e	81 f9 00 00 00
	40		 cmp	 ecx, 1073741824		; 40000000H
  00034	7e 07		 jle	 SHORT $LN6@PrepareWri

; 837  : 			{
; 838  : 				nNewLength += 1024 * 1024;

  00036	b8 00 00 10 00	 mov	 eax, 1048576		; 00100000H

; 839  : 			}

  0003b	eb 07		 jmp	 SHORT $LN7@PrepareWri
$LN6@PrepareWri:

; 840  : 			else
; 841  : 			{
; 842  : 				// Exponential growth factor is 1.5.
; 843  : 				nNewLength = nNewLength + nNewLength / 2;

  0003d	8b c1		 mov	 eax, ecx
  0003f	99		 cdq
  00040	2b c2		 sub	 eax, edx
  00042	d1 f8		 sar	 eax, 1
$LN7@PrepareWri:

; 844  : 			}
; 845  : 			if( nNewLength < nLength )

  00044	03 c1		 add	 eax, ecx

; 846  : 			{
; 847  : 				nNewLength = nLength;
; 848  : 			}
; 849  : 			Reallocate( nNewLength );

  00046	8b cf		 mov	 ecx, edi
  00048	3b c6		 cmp	 eax, esi
  0004a	0f 4d f0	 cmovge	 esi, eax
  0004d	56		 push	 esi
  0004e	e8 00 00 00 00	 call	 ?Reallocate@?$CSimpleStringT@D$0A@@ATL@@AAEXH@Z ; ATL::CSimpleStringT<char,0>::Reallocate
$LN5@PrepareWri:

; 850  : 		}
; 851  : 	}

  00053	5f		 pop	 edi
  00054	5e		 pop	 esi
  00055	5d		 pop	 ebp
  00056	c2 04 00	 ret	 4
?PrepareWrite2@?$CSimpleStringT@D$0A@@ATL@@AAEXH@Z ENDP	; ATL::CSimpleStringT<char,0>::PrepareWrite2
_TEXT	ENDS
; Function compile flags: /Ogtp
; File C:\Program Files\Microsoft Visual Studio\2022\Professional\VC\Tools\MSVC\14.44.35207\atlmfc\include\atlsimpstr.h
; File C:\Program Files (x86)\Windows Kits\10\Include\10.0.26100.0\ucrt\corecrt_memcpy_s.h
; File C:\Program Files\Microsoft Visual Studio\2022\Professional\VC\Tools\MSVC\14.44.35207\atlmfc\include\atlsimpstr.h
;	COMDAT ?Fork@?$CSimpleStringT@D$0A@@ATL@@AAEXH@Z
_TEXT	SEGMENT
_this$1$ = -12						; size = 4
_nOldLength$1$ = -8					; size = 4
__Source$1$ = -4					; size = 4
_nLength$ = 8						; size = 4
_pNewData$1$ = 8					; size = 4
?Fork@?$CSimpleStringT@D$0A@@ATL@@AAEXH@Z PROC		; ATL::CSimpleStringT<char,0>::Fork, COMDAT
; _this$ = ecx

; 787  : 	{

  00000	55		 push	 ebp
  00001	8b ec		 mov	 ebp, esp
  00003	83 ec 0c	 sub	 esp, 12			; 0000000cH
  00006	8b c1		 mov	 eax, ecx
  00008	89 45 f4	 mov	 DWORD PTR _this$1$[ebp], eax
  0000b	53		 push	 ebx
  0000c	56		 push	 esi

; 804  : 		return( reinterpret_cast< CStringData* >( m_pszData )-1 );

  0000d	8b 00		 mov	 eax, DWORD PTR [eax]

; 790  : 		CStringData* pNewData = pOldData->pStringMgr->Clone()->Allocate( nLength, sizeof( XCHAR ) );

  0000f	8b 48 f0	 mov	 ecx, DWORD PTR [eax-16]

; 804  : 		return( reinterpret_cast< CStringData* >( m_pszData )-1 );

  00012	8d 58 f0	 lea	 ebx, DWORD PTR [eax-16]
  00015	89 45 fc	 mov	 DWORD PTR __Source$1$[ebp], eax

; 787  : 	{

  00018	57		 push	 edi

; 788  : 		CStringData* pOldData = GetData();
; 789  : 		int nOldLength = pOldData->nDataLength;

  00019	8b 7b 04	 mov	 edi, DWORD PTR [ebx+4]

; 790  : 		CStringData* pNewData = pOldData->pStringMgr->Clone()->Allocate( nLength, sizeof( XCHAR ) );

  0001c	8b 01		 mov	 eax, DWORD PTR [ecx]
  0001e	89 7d f8	 mov	 DWORD PTR _nOldLength$1$[ebp], edi
  00021	ff 50 10	 call	 DWORD PTR [eax+16]
  00024	8b 75 08	 mov	 esi, DWORD PTR _nLength$[ebp]
  00027	8b c8		 mov	 ecx, eax
  00029	6a 01		 push	 1
  0002b	56		 push	 esi
  0002c	8b 10		 mov	 edx, DWORD PTR [eax]
  0002e	ff 12		 call	 DWORD PTR [edx]
  00030	89 45 08	 mov	 DWORD PTR _pNewData$1$[ebp], eax

; 791  : 		if( pNewData == NULL )

  00033	85 c0		 test	 eax, eax
  00035	74 6c		 je	 SHORT $LN25@Fork

; 794  : 		}
; 795  : 		int nCharsToCopy = ((nOldLength < nLength) ? nOldLength : nLength)+1;  // Copy '\0'

  00037	3b fe		 cmp	 edi, esi
  00039	0f 4c f7	 cmovl	 esi, edi

; 796  : 		memcpy_s( PXSTR( pNewData->data() ), nCharsToCopy * sizeof( XCHAR ),

  0003c	8d 78 10	 lea	 edi, DWORD PTR [eax+16]
  0003f	83 c6 01	 add	 esi, 1
; File C:\Program Files (x86)\Windows Kits\10\Include\10.0.26100.0\ucrt\corecrt_memcpy_s.h

; 47   :         if (_SourceSize == 0)

  00042	74 33		 je	 SHORT $LN11@Fork

; 48   :         {
; 49   :             return 0;
; 50   :         }
; 51   : 
; 52   :         _CRT_MEMCPY_S_VALIDATE_RETURN_ERRCODE(_Destination != NULL, EINVAL);

  00044	85 ff		 test	 edi, edi
  00046	74 1f		 je	 SHORT $LN23@Fork

; 53   :         if (_Source == NULL || _DestinationSize < _SourceSize)

  00048	8b 45 fc	 mov	 eax, DWORD PTR __Source$1$[ebp]
  0004b	56		 push	 esi
  0004c	85 c0		 test	 eax, eax
  0004e	74 0c		 je	 SHORT $LN10@Fork

; 56   : 
; 57   :             _CRT_MEMCPY_S_VALIDATE_RETURN_ERRCODE(_Source != NULL,                 EINVAL);
; 58   :             _CRT_MEMCPY_S_VALIDATE_RETURN_ERRCODE(_DestinationSize >= _SourceSize, ERANGE);
; 59   : 
; 60   :             // Unreachable, but required to suppress /analyze warnings:
; 61   :             return EINVAL;
; 62   :         }
; 63   :         memcpy(_Destination, _Source, _SourceSize);

  00050	50		 push	 eax
  00051	57		 push	 edi
  00052	e8 00 00 00 00	 call	 _memcpy
  00057	83 c4 0c	 add	 esp, 12			; 0000000cH
  0005a	eb 1b		 jmp	 SHORT $LN11@Fork
$LN10@Fork:

; 54   :         {
; 55   :             memset(_Destination, 0, _DestinationSize);

  0005c	6a 00		 push	 0
  0005e	57		 push	 edi
  0005f	e8 00 00 00 00	 call	 _memset
  00064	83 c4 0c	 add	 esp, 12			; 0000000cH
$LN23@Fork:
; File C:\Program Files\Microsoft Visual Studio\2022\Professional\VC\Tools\MSVC\14.44.35207\atlmfc\include\atlsimpstr.h

; 798  : 		pNewData->nDataLength = nOldLength;

  00067	e8 00 00 00 00	 call	 __errno
  0006c	c7 00 16 00 00
	00		 mov	 DWORD PTR [eax], 22	; 00000016H
  00072	e8 00 00 00 00	 call	 __invalid_parameter_noinfo
$LN11@Fork:
  00077	8b 4d 08	 mov	 ecx, DWORD PTR _pNewData$1$[ebp]
  0007a	8b 45 f8	 mov	 eax, DWORD PTR _nOldLength$1$[ebp]
  0007d	89 41 04	 mov	 DWORD PTR [ecx+4], eax

; 92   : 		if( _InterlockedDecrement( &nRefs ) <= 0 )

  00080	83 c8 ff	 or	 eax, -1
  00083	f0 0f c1 43 0c	 lock	  xadd	 DWORD PTR [ebx+12], eax
  00088	48		 dec	 eax
  00089	85 c0		 test	 eax, eax
  0008b	7f 08		 jg	 SHORT $LN15@Fork

; 93   : 		{
; 94   : 			pStringMgr->Free( this );

  0008d	8b 0b		 mov	 ecx, DWORD PTR [ebx]
  0008f	53		 push	 ebx
  00090	8b 01		 mov	 eax, DWORD PTR [ecx]
  00092	ff 50 04	 call	 DWORD PTR [eax+4]
$LN15@Fork:

; 799  : 		pOldData->Release();
; 800  : 		Attach( pNewData );

  00095	8b 45 f4	 mov	 eax, DWORD PTR _this$1$[ebp]
  00098	89 38		 mov	 DWORD PTR [eax], edi

; 801  : 	}

  0009a	5f		 pop	 edi
  0009b	5e		 pop	 esi
  0009c	5b		 pop	 ebx
  0009d	8b e5		 mov	 esp, ebp
  0009f	5d		 pop	 ebp
  000a0	c2 04 00	 ret	 4
$LN25@Fork:

; 792  : 		{
; 793  : 			ThrowMemoryException();

  000a3	e8 00 00 00 00	 call	 ?ThrowMemoryException@?$CSimpleStringT@D$0A@@ATL@@KAXXZ ; ATL::CSimpleStringT<char,0>::ThrowMemoryException
$LN22@Fork:
  000a8	cc		 int	 3
?Fork@?$CSimpleStringT@D$0A@@ATL@@AAEXH@Z ENDP		; ATL::CSimpleStringT<char,0>::Fork
_TEXT	ENDS
; Function compile flags: /Ogtp
; File C:\Program Files\Microsoft Visual Studio\2022\Professional\VC\Tools\MSVC\14.44.35207\atlmfc\include\atlsimpstr.h
;	COMDAT ?ThrowMemoryException@?$CSimpleStringT@D$0A@@ATL@@KAXXZ
_TEXT	SEGMENT
?ThrowMemoryException@?$CSimpleStringT@D$0A@@ATL@@KAXXZ PROC ; ATL::CSimpleStringT<char,0>::ThrowMemoryException, COMDAT

; 777  : 		AtlThrow( E_OUTOFMEMORY );

  00000	68 0e 00 07 80	 push	 -2147024882		; 8007000eH
  00005	e8 00 00 00 00	 call	 ?AtlThrowImpl@ATL@@YGXJ@Z ; ATL::AtlThrowImpl
$LN3@ThrowMemor:
  0000a	cc		 int	 3
?ThrowMemoryException@?$CSimpleStringT@D$0A@@ATL@@KAXXZ ENDP ; ATL::CSimpleStringT<char,0>::ThrowMemoryException
_TEXT	ENDS
; Function compile flags: /Ogtp
; File C:\Program Files\Microsoft Visual Studio\2022\Professional\VC\Tools\MSVC\14.44.35207\atlmfc\include\atlsimpstr.h
; File C:\Program Files (x86)\Windows Kits\10\Include\10.0.26100.0\ucrt\corecrt_memcpy_s.h
; File C:\Program Files\Microsoft Visual Studio\2022\Professional\VC\Tools\MSVC\14.44.35207\atlmfc\include\atlsimpstr.h
; File C:\Program Files (x86)\Windows Kits\10\Include\10.0.26100.0\ucrt\corecrt_memcpy_s.h
; File C:\Program Files\Microsoft Visual Studio\2022\Professional\VC\Tools\MSVC\14.44.35207\atlmfc\include\atlsimpstr.h
;	COMDAT ?SetString@?$CSimpleStringT@D$0A@@ATL@@QAEXPBDH@Z
_TEXT	SEGMENT
_pszSrc$ = 8						; size = 4
_nOldLength$1$ = 8					; size = 4
_nLength$ = 12						; size = 4
_nOffset$1$ = 12					; size = 4
?SetString@?$CSimpleStringT@D$0A@@ATL@@QAEXPBDH@Z PROC	; ATL::CSimpleStringT<char,0>::SetString, COMDAT
; _this$ = ecx

; 611  : 	{

  00000	55		 push	 ebp
  00001	8b ec		 mov	 ebp, esp
  00003	56		 push	 esi

; 612  : 		if( nLength == 0 )

  00004	8b 75 0c	 mov	 esi, DWORD PTR _nLength$[ebp]
  00007	57		 push	 edi
  00008	8b f9		 mov	 edi, ecx
  0000a	85 f6		 test	 esi, esi
  0000c	75 58		 jne	 SHORT $LN2@SetString

; 804  : 		return( reinterpret_cast< CStringData* >( m_pszData )-1 );

  0000e	8b 07		 mov	 eax, DWORD PTR [edi]

; 443  : 		if( pOldData->nDataLength == 0 )

  00010	83 78 f4 00	 cmp	 DWORD PTR [eax-12], 0

; 804  : 		return( reinterpret_cast< CStringData* >( m_pszData )-1 );

  00014	8d 50 f0	 lea	 edx, DWORD PTR [eax-16]

; 442  : 		IAtlStringMgr* pStringMgr = pOldData->pStringMgr;

  00017	8b 32		 mov	 esi, DWORD PTR [edx]

; 443  : 		if( pOldData->nDataLength == 0 )

  00019	74 1f		 je	 SHORT $LN72@SetString

; 73   : 		return nRefs < 0;

  0001b	83 7a 0c 00	 cmp	 DWORD PTR [edx+12], 0
  0001f	8d 4a 0c	 lea	 ecx, DWORD PTR [edx+12]

; 448  : 		if( pOldData->IsLocked() )

  00022	7d 1c		 jge	 SHORT $LN10@SetString

; 875  : 		if( nLength < 0 || nLength > GetData()->nAllocLength)

  00024	83 78 f8 00	 cmp	 DWORD PTR [eax-8], 0
  00028	0f 8c 0b 01 00
	00		 jl	 $LN71@SetString

; 877  : 
; 878  : 		GetData()->nDataLength = nLength;

  0002e	c7 40 f4 00 00
	00 00		 mov	 DWORD PTR [eax-12], 0

; 879  : 		m_pszData[nLength] = 0;

  00035	8b 07		 mov	 eax, DWORD PTR [edi]
  00037	c6 00 00	 mov	 BYTE PTR [eax], 0
$LN72@SetString:
  0003a	5f		 pop	 edi

; 638  : 			else
; 639  : 			{
; 640  : 				memcpy_s( pszBuffer, GetAllocLength() * sizeof( XCHAR ), pszSrc, nLength * sizeof( XCHAR ));
; 641  : 			}
; 642  : 			ReleaseBufferSetLength( nLength );
; 643  : 		}
; 644  : 	}

  0003b	5e		 pop	 esi
  0003c	5d		 pop	 ebp
  0003d	c2 08 00	 ret	 8
$LN10@SetString:

; 92   : 		if( _InterlockedDecrement( &nRefs ) <= 0 )

  00040	83 c8 ff	 or	 eax, -1
  00043	f0 0f c1 01	 lock	  xadd	 DWORD PTR [ecx], eax
  00047	48		 dec	 eax
  00048	85 c0		 test	 eax, eax
  0004a	7f 08		 jg	 SHORT $LN27@SetString

; 93   : 		{
; 94   : 			pStringMgr->Free( this );

  0004c	8b 0a		 mov	 ecx, DWORD PTR [edx]
  0004e	52		 push	 edx
  0004f	8b 01		 mov	 eax, DWORD PTR [ecx]
  00051	ff 50 04	 call	 DWORD PTR [eax+4]
$LN27@SetString:

; 456  : 			CStringData* pNewData = pStringMgr->GetNilString();

  00054	8b 06		 mov	 eax, DWORD PTR [esi]
  00056	8b ce		 mov	 ecx, esi
  00058	ff 50 0c	 call	 DWORD PTR [eax+12]

; 457  : 			Attach( pNewData );

  0005b	83 c0 10	 add	 eax, 16			; 00000010H
  0005e	89 07		 mov	 DWORD PTR [edi], eax
  00060	5f		 pop	 edi

; 638  : 			else
; 639  : 			{
; 640  : 				memcpy_s( pszBuffer, GetAllocLength() * sizeof( XCHAR ), pszSrc, nLength * sizeof( XCHAR ));
; 641  : 			}
; 642  : 			ReleaseBufferSetLength( nLength );
; 643  : 		}
; 644  : 	}

  00061	5e		 pop	 esi
  00062	5d		 pop	 ebp
  00063	c2 08 00	 ret	 8
$LN2@SetString:
  00066	53		 push	 ebx

; 613  : 		{
; 614  : 			Empty();
; 615  : 		}
; 616  : 		else
; 617  : 		{
; 618  : 			// It is possible that pszSrc points to a location inside of our
; 619  : 			// buffer.  GetBuffer() might change m_pszData if (1) the buffer
; 620  : 			// is shared or (2) the buffer is too small to hold the new
; 621  : 			// string.  We detect this aliasing, and modify pszSrc to point
; 622  : 			// into the newly allocated buffer instead.
; 623  : 
; 624  : 			if(pszSrc == NULL)

  00067	8b 5d 08	 mov	 ebx, DWORD PTR _pszSrc$[ebp]
  0006a	85 db		 test	 ebx, ebx
  0006c	0f 84 c7 00 00
	00		 je	 $LN71@SetString

; 523  : 		return( GetData()->nDataLength );

  00072	8b 07		 mov	 eax, DWORD PTR [edi]

; 625  : 				AtlThrow(E_INVALIDARG);
; 626  : 
; 627  : 			UINT nOldLength = GetLength();
; 628  : 			UINT_PTR nOffset = pszSrc-GetString();

  00074	8b d3		 mov	 edx, ebx
  00076	2b d0		 sub	 edx, eax
  00078	89 55 0c	 mov	 DWORD PTR _nOffset$1$[ebp], edx
  0007b	8b 48 f4	 mov	 ecx, DWORD PTR [eax-12]
  0007e	89 4d 08	 mov	 DWORD PTR _nOldLength$1$[ebp], ecx

; 808  : 		if (nLength < 0)

  00081	85 f6		 test	 esi, esi
  00083	0f 88 b0 00 00
	00		 js	 $LN71@SetString

; 809  : 			AtlThrow(E_INVALIDARG);
; 810  : 
; 811  : 		CStringData* pOldData = GetData();
; 812  : 		int nShared = 1-pOldData->nRefs;  // nShared < 0 means true, >= 0 means false

  00089	b9 01 00 00 00	 mov	 ecx, 1
  0008e	2b 48 fc	 sub	 ecx, DWORD PTR [eax-4]

; 813  : 		int nTooShort = pOldData->nAllocLength-nLength;  // nTooShort < 0 means true, >= 0 means false

  00091	8b 40 f8	 mov	 eax, DWORD PTR [eax-8]
  00094	2b c6		 sub	 eax, esi

; 814  : 		if( (nShared|nTooShort) < 0 )  // If either sign bit is set (i.e. either is less than zero), we need to copy data

  00096	0b c8		 or	 ecx, eax
  00098	7d 0b		 jge	 SHORT $LN38@SetString

; 815  : 		{
; 816  : 			PrepareWrite2( nLength );

  0009a	56		 push	 esi
  0009b	8b cf		 mov	 ecx, edi
  0009d	e8 00 00 00 00	 call	 ?PrepareWrite2@?$CSimpleStringT@D$0A@@ATL@@AAEXH@Z ; ATL::CSimpleStringT<char,0>::PrepareWrite2
  000a2	8b 55 0c	 mov	 edx, DWORD PTR _nOffset$1$[ebp]
$LN38@SetString:

; 629  : 			// If 0 <= nOffset <= nOldLength, then pszSrc points into our
; 630  : 			// buffer
; 631  : 
; 632  : 			PXSTR pszBuffer = GetBuffer( nLength );

  000a5	8b 07		 mov	 eax, DWORD PTR [edi]
  000a7	8b 48 f8	 mov	 ecx, DWORD PTR [eax-8]

; 633  : 			if( nOffset <= nOldLength )

  000aa	3b 55 08	 cmp	 edx, DWORD PTR _nOldLength$1$[ebp]
  000ad	77 35		 ja	 SHORT $LN5@SetString

; 634  : 			{
; 635  : 				CopyCharsOverlapped( pszBuffer, GetAllocLength(),

  000af	03 d0		 add	 edx, eax
; File C:\Program Files (x86)\Windows Kits\10\Include\10.0.26100.0\ucrt\corecrt_memcpy_s.h

; 81   :         _CRT_MEMCPY_S_VALIDATE_RETURN_ERRCODE(_Destination != NULL,            EINVAL);

  000b1	85 c0		 test	 eax, eax
  000b3	75 0d		 jne	 SHORT $LN51@SetString
  000b5	e8 00 00 00 00	 call	 __errno
  000ba	c7 00 16 00 00
	00		 mov	 DWORD PTR [eax], 22	; 00000016H
  000c0	eb 5b		 jmp	 SHORT $LN97@SetString
$LN51@SetString:

; 82   :         _CRT_MEMCPY_S_VALIDATE_RETURN_ERRCODE(_Source != NULL,                 EINVAL);

  000c2	85 d2		 test	 edx, edx
  000c4	75 0d		 jne	 SHORT $LN52@SetString
  000c6	e8 00 00 00 00	 call	 __errno
  000cb	c7 00 16 00 00
	00		 mov	 DWORD PTR [eax], 22	; 00000016H
  000d1	eb 4a		 jmp	 SHORT $LN97@SetString
$LN52@SetString:

; 83   :         _CRT_MEMCPY_S_VALIDATE_RETURN_ERRCODE(_DestinationSize >= _SourceSize, ERANGE);

  000d3	3b ce		 cmp	 ecx, esi
  000d5	72 3b		 jb	 SHORT $LN98@SetString

; 84   : 
; 85   :         memmove(_Destination, _Source, _SourceSize);

  000d7	56		 push	 esi
  000d8	52		 push	 edx
  000d9	50		 push	 eax
  000da	e8 00 00 00 00	 call	 _memmove
  000df	83 c4 0c	 add	 esp, 12			; 0000000cH
; File C:\Program Files\Microsoft Visual Studio\2022\Professional\VC\Tools\MSVC\14.44.35207\atlmfc\include\atlsimpstr.h

; 637  : 			}

  000e2	eb 3e		 jmp	 SHORT $LN65@SetString
$LN5@SetString:
; File C:\Program Files (x86)\Windows Kits\10\Include\10.0.26100.0\ucrt\corecrt_memcpy_s.h

; 52   :         _CRT_MEMCPY_S_VALIDATE_RETURN_ERRCODE(_Destination != NULL, EINVAL);

  000e4	85 c0		 test	 eax, eax
  000e6	75 0d		 jne	 SHORT $LN61@SetString
  000e8	e8 00 00 00 00	 call	 __errno
  000ed	c7 00 16 00 00
	00		 mov	 DWORD PTR [eax], 22	; 00000016H
  000f3	eb 28		 jmp	 SHORT $LN97@SetString
$LN61@SetString:

; 53   :         if (_Source == NULL || _DestinationSize < _SourceSize)

  000f5	3b ce		 cmp	 ecx, esi
  000f7	72 0d		 jb	 SHORT $LN63@SetString

; 56   : 
; 57   :             _CRT_MEMCPY_S_VALIDATE_RETURN_ERRCODE(_Source != NULL,                 EINVAL);
; 58   :             _CRT_MEMCPY_S_VALIDATE_RETURN_ERRCODE(_DestinationSize >= _SourceSize, ERANGE);
; 59   : 
; 60   :             // Unreachable, but required to suppress /analyze warnings:
; 61   :             return EINVAL;
; 62   :         }
; 63   :         memcpy(_Destination, _Source, _SourceSize);

  000f9	56		 push	 esi
  000fa	53		 push	 ebx
  000fb	50		 push	 eax
  000fc	e8 00 00 00 00	 call	 _memcpy
  00101	83 c4 0c	 add	 esp, 12			; 0000000cH
  00104	eb 1c		 jmp	 SHORT $LN65@SetString
$LN63@SetString:

; 54   :         {
; 55   :             memset(_Destination, 0, _DestinationSize);

  00106	51		 push	 ecx
  00107	6a 00		 push	 0
  00109	50		 push	 eax
  0010a	e8 00 00 00 00	 call	 _memset
  0010f	83 c4 0c	 add	 esp, 12			; 0000000cH
$LN98@SetString:
; File C:\Program Files\Microsoft Visual Studio\2022\Professional\VC\Tools\MSVC\14.44.35207\atlmfc\include\atlsimpstr.h

; 875  : 		if( nLength < 0 || nLength > GetData()->nAllocLength)

  00112	e8 00 00 00 00	 call	 __errno
  00117	c7 00 22 00 00
	00		 mov	 DWORD PTR [eax], 34	; 00000022H
$LN97@SetString:
  0011d	e8 00 00 00 00	 call	 __invalid_parameter_noinfo
$LN65@SetString:
  00122	8b 07		 mov	 eax, DWORD PTR [edi]
  00124	5b		 pop	 ebx
  00125	3b 70 f8	 cmp	 esi, DWORD PTR [eax-8]
  00128	7f 0f		 jg	 SHORT $LN71@SetString

; 877  : 
; 878  : 		GetData()->nDataLength = nLength;

  0012a	89 70 f4	 mov	 DWORD PTR [eax-12], esi

; 879  : 		m_pszData[nLength] = 0;

  0012d	8b 07		 mov	 eax, DWORD PTR [edi]
  0012f	5f		 pop	 edi
  00130	c6 04 06 00	 mov	 BYTE PTR [esi+eax], 0

; 638  : 			else
; 639  : 			{
; 640  : 				memcpy_s( pszBuffer, GetAllocLength() * sizeof( XCHAR ), pszSrc, nLength * sizeof( XCHAR ));
; 641  : 			}
; 642  : 			ReleaseBufferSetLength( nLength );
; 643  : 		}
; 644  : 	}

  00134	5e		 pop	 esi
  00135	5d		 pop	 ebp
  00136	c2 08 00	 ret	 8
$LN71@SetString:

; 876  : 			AtlThrow(E_INVALIDARG);

  00139	68 57 00 07 80	 push	 -2147024809		; 80070057H
  0013e	e8 00 00 00 00	 call	 ?AtlThrowImpl@ATL@@YGXJ@Z ; ATL::AtlThrowImpl
$LN96@SetString:
  00143	cc		 int	 3
?SetString@?$CSimpleStringT@D$0A@@ATL@@QAEXPBDH@Z ENDP	; ATL::CSimpleStringT<char,0>::SetString
_TEXT	ENDS
; Function compile flags: /Ogtp
; File C:\Program Files\Microsoft Visual Studio\2022\Professional\VC\Tools\MSVC\14.44.35207\atlmfc\include\atlsimpstr.h
;	COMDAT ??1?$CSimpleStringT@D$0A@@ATL@@QAE@XZ
_TEXT	SEGMENT
??1?$CSimpleStringT@D$0A@@ATL@@QAE@XZ PROC		; ATL::CSimpleStringT<char,0>::~CSimpleStringT<char,0>, COMDAT
; _this$ = ecx

; 804  : 		return( reinterpret_cast< CStringData* >( m_pszData )-1 );

  00000	8b 11		 mov	 edx, DWORD PTR [ecx]

; 92   : 		if( _InterlockedDecrement( &nRefs ) <= 0 )

  00002	83 c8 ff	 or	 eax, -1

; 804  : 		return( reinterpret_cast< CStringData* >( m_pszData )-1 );

  00005	83 ea 10	 sub	 edx, 16			; 00000010H

; 92   : 		if( _InterlockedDecrement( &nRefs ) <= 0 )

  00008	f0 0f c1 42 0c	 lock	  xadd	 DWORD PTR [edx+12], eax
  0000d	48		 dec	 eax
  0000e	85 c0		 test	 eax, eax
  00010	7f 08		 jg	 SHORT $LN6@CSimpleStr

; 93   : 		{
; 94   : 			pStringMgr->Free( this );

  00012	8b 0a		 mov	 ecx, DWORD PTR [edx]
  00014	52		 push	 edx
  00015	8b 01		 mov	 eax, DWORD PTR [ecx]
  00017	ff 50 04	 call	 DWORD PTR [eax+4]
$LN6@CSimpleStr:

; 265  : 		CStringData* pData = GetData();
; 266  : 		pData->Release();
; 267  : 	}

  0001a	c3		 ret	 0
??1?$CSimpleStringT@D$0A@@ATL@@QAE@XZ ENDP		; ATL::CSimpleStringT<char,0>::~CSimpleStringT<char,0>
_TEXT	ENDS
; Function compile flags: /Ogtp
; File C:\Program Files\Microsoft Visual Studio\2022\Professional\VC\Tools\MSVC\14.44.35207\atlmfc\include\atlexcept.h
;	COMDAT ?AtlThrowImpl@ATL@@YGXJ@Z
_TEXT	SEGMENT
_hr$ = 8						; size = 4
?AtlThrowImpl@ATL@@YGXJ@Z PROC				; ATL::AtlThrowImpl, COMDAT

; 69   : {

  00000	55		 push	 ebp
  00001	8b ec		 mov	 ebp, esp

; 70   : 	ATLTRACE(atlTraceException, 0, _T("AtlThrow: hr = 0x%x\n"), hr );
; 71   : #ifdef _AFX
; 72   : 	if( hr == E_OUTOFMEMORY )

  00003	8b 45 08	 mov	 eax, DWORD PTR _hr$[ebp]
  00006	3d 0e 00 07 80	 cmp	 eax, -2147024882	; 8007000eH
  0000b	75 05		 jne	 SHORT $LN2@AtlThrowIm

; 73   : 	{
; 74   : 		AfxThrowMemoryException();

  0000d	e8 00 00 00 00	 call	 ?AfxThrowMemoryException@@YGXXZ ; AfxThrowMemoryException
$LN2@AtlThrowIm:

; 75   : 	}
; 76   : 	else
; 77   : 	{
; 78   : 		AfxThrowOleException( hr );

  00012	50		 push	 eax
  00013	e8 00 00 00 00	 call	 ?AfxThrowOleException@@YGXJ@Z ; AfxThrowOleException
$LN5@AtlThrowIm:
  00018	cc		 int	 3
?AtlThrowImpl@ATL@@YGXJ@Z ENDP				; ATL::AtlThrowImpl
_TEXT	ENDS
; Function compile flags: /Ogtp
; File C:\Program Files\Microsoft Visual Studio\2022\Professional\VC\Tools\MSVC\14.44.35207\atlmfc\include\afx.h
;	COMDAT ?AfxCrtErrorCheck@@YAHH@Z
_TEXT	SEGMENT
_error$ = 8						; size = 4
?AfxCrtErrorCheck@@YAHH@Z PROC				; AfxCrtErrorCheck, COMDAT

; 510  : {

  00000	55		 push	 ebp
  00001	8b ec		 mov	 ebp, esp

; 511  : 	switch(error)

  00003	8b 4d 08	 mov	 ecx, DWORD PTR _error$[ebp]
  00006	83 f9 50	 cmp	 ecx, 80			; 00000050H
  00009	77 17		 ja	 SHORT $LN9@AfxCrtErro
  0000b	0f b6 81 00 00
	00 00		 movzx	 eax, BYTE PTR $LN11@AfxCrtErro[ecx]
  00012	ff 24 85 00 00
	00 00		 jmp	 DWORD PTR $LN12@AfxCrtErro[eax*4]
$LN4@AfxCrtErro:

; 512  : 	{
; 513  : 	case ENOMEM:
; 514  : 		AfxThrowMemoryException();

  00019	e9 00 00 00 00	 jmp	 ?AfxThrowMemoryException@@YGXXZ ; AfxThrowMemoryException
$LN7@AfxCrtErro:

; 525  : 		break;
; 526  : 	}
; 527  : 	return error;

  0001e	8b c1		 mov	 eax, ecx

; 528  : }

  00020	5d		 pop	 ebp
  00021	c3		 ret	 0
$LN9@AfxCrtErro:

; 515  : 		break;
; 516  : 	case EINVAL:
; 517  : 	case ERANGE:
; 518  : 		AfxThrowInvalidArgException();
; 519  : 		break;
; 520  : 	case STRUNCATE:
; 521  : 	case 0:
; 522  : 		break;
; 523  : 	default:
; 524  : 		AfxThrowInvalidArgException();

  00022	e9 00 00 00 00	 jmp	 ?AfxThrowInvalidArgException@@YGXXZ ; AfxThrowInvalidArgException
  00027	90		 npad	 1
$LN12@AfxCrtErro:

; 528  : }

  00028	00 00 00 00	 DD	 $LN7@AfxCrtErro
  0002c	00 00 00 00	 DD	 $LN4@AfxCrtErro
  00030	00 00 00 00	 DD	 $LN9@AfxCrtErro
  00034	00 00 00 00	 DD	 $LN9@AfxCrtErro
$LN11@AfxCrtErro:
  00038	00		 DB	 0
  00039	03		 DB	 3
  0003a	03		 DB	 3
  0003b	03		 DB	 3
  0003c	03		 DB	 3
  0003d	03		 DB	 3
  0003e	03		 DB	 3
  0003f	03		 DB	 3
  00040	03		 DB	 3
  00041	03		 DB	 3
  00042	03		 DB	 3
  00043	03		 DB	 3
  00044	01		 DB	 1
  00045	03		 DB	 3
  00046	03		 DB	 3
  00047	03		 DB	 3
  00048	03		 DB	 3
  00049	03		 DB	 3
  0004a	03		 DB	 3
  0004b	03		 DB	 3
  0004c	03		 DB	 3
  0004d	03		 DB	 3
  0004e	02		 DB	 2
  0004f	03		 DB	 3
  00050	03		 DB	 3
  00051	03		 DB	 3
  00052	03		 DB	 3
  00053	03		 DB	 3
  00054	03		 DB	 3
  00055	03		 DB	 3
  00056	03		 DB	 3
  00057	03		 DB	 3
  00058	03		 DB	 3
  00059	03		 DB	 3
  0005a	02		 DB	 2
  0005b	03		 DB	 3
  0005c	03		 DB	 3
  0005d	03		 DB	 3
  0005e	03		 DB	 3
  0005f	03		 DB	 3
  00060	03		 DB	 3
  00061	03		 DB	 3
  00062	03		 DB	 3
  00063	03		 DB	 3
  00064	03		 DB	 3
  00065	03		 DB	 3
  00066	03		 DB	 3
  00067	03		 DB	 3
  00068	03		 DB	 3
  00069	03		 DB	 3
  0006a	03		 DB	 3
  0006b	03		 DB	 3
  0006c	03		 DB	 3
  0006d	03		 DB	 3
  0006e	03		 DB	 3
  0006f	03		 DB	 3
  00070	03		 DB	 3
  00071	03		 DB	 3
  00072	03		 DB	 3
  00073	03		 DB	 3
  00074	03		 DB	 3
  00075	03		 DB	 3
  00076	03		 DB	 3
  00077	03		 DB	 3
  00078	03		 DB	 3
  00079	03		 DB	 3
  0007a	03		 DB	 3
  0007b	03		 DB	 3
  0007c	03		 DB	 3
  0007d	03		 DB	 3
  0007e	03		 DB	 3
  0007f	03		 DB	 3
  00080	03		 DB	 3
  00081	03		 DB	 3
  00082	03		 DB	 3
  00083	03		 DB	 3
  00084	03		 DB	 3
  00085	03		 DB	 3
  00086	03		 DB	 3
  00087	03		 DB	 3
  00088	00		 DB	 0
?AfxCrtErrorCheck@@YAHH@Z ENDP				; AfxCrtErrorCheck
_TEXT	ENDS
; Function compile flags: /Ogtp
; File C:\Program Files (x86)\Windows Kits\10\Include\10.0.26100.0\ucrt\stdio.h
;	COMDAT _sprintf
_TEXT	SEGMENT
__Buffer$ = 8						; size = 4
__Format$ = 12						; size = 4
_sprintf PROC						; COMDAT

; 1771 :     {

  00000	55		 push	 ebp
  00001	8b ec		 mov	 ebp, esp

; 1392 :         int const _Result = __stdio_common_vsprintf(

  00003	8d 45 10	 lea	 eax, DWORD PTR __Format$[ebp+4]
  00006	50		 push	 eax
  00007	6a 00		 push	 0
  00009	ff 75 0c	 push	 DWORD PTR __Format$[ebp]
  0000c	6a ff		 push	 -1
  0000e	ff 75 08	 push	 DWORD PTR __Buffer$[ebp]
  00011	e8 00 00 00 00	 call	 ___local_stdio_printf_options
  00016	8b 08		 mov	 ecx, DWORD PTR [eax]
  00018	ff 70 04	 push	 DWORD PTR [eax+4]
  0001b	83 c9 01	 or	 ecx, 1
  0001e	51		 push	 ecx
  0001f	e8 00 00 00 00	 call	 ___stdio_common_vsprintf

; 1393 :             _CRT_INTERNAL_LOCAL_PRINTF_OPTIONS | _CRT_INTERNAL_PRINTF_LEGACY_VSPRINTF_NULL_TERMINATION,
; 1394 :             _Buffer, _BufferCount, _Format, _Locale, _ArgList);
; 1395 : 
; 1396 :         return _Result < 0 ? -1 : _Result;

  00024	83 c9 ff	 or	 ecx, -1
  00027	83 c4 1c	 add	 esp, 28			; 0000001cH
  0002a	85 c0		 test	 eax, eax
  0002c	0f 48 c1	 cmovs	 eax, ecx

; 1772 :         int _Result;
; 1773 :         va_list _ArgList;
; 1774 :         __crt_va_start(_ArgList, _Format);
; 1775 : 
; 1776 :         _Result = _vsprintf_l(_Buffer, _Format, NULL, _ArgList);
; 1777 : 
; 1778 :         __crt_va_end(_ArgList);
; 1779 :         return _Result;
; 1780 :     }

  0002f	5d		 pop	 ebp
  00030	c3		 ret	 0
_sprintf ENDP
_TEXT	ENDS
; Function compile flags: /Ogtp
; File C:\Program Files (x86)\Windows Kits\10\Include\10.0.26100.0\ucrt\corecrt_stdio_config.h
;	COMDAT ___local_stdio_printf_options
_TEXT	SEGMENT
___local_stdio_printf_options PROC			; COMDAT

; 91   :         static unsigned __int64 _OptionsStorage;
; 92   :         return &_OptionsStorage;

  00000	b8 00 00 00 00	 mov	 eax, OFFSET ?_OptionsStorage@?1??__local_stdio_printf_options@@9@4_KA ; `__local_stdio_printf_options'::`2'::_OptionsStorage

; 93   :     }

  00005	c3		 ret	 0
___local_stdio_printf_options ENDP
_TEXT	ENDS
; Function compile flags: /Ogtp
; File C:\IAGOS\server\v18\Source\Source\_Common\spevent.cpp
;	COMDAT ?__empty_global_delete@@YAXPAXI@Z
_TEXT	SEGMENT
___formal$ = 8						; size = 4
___formal$ = 12						; size = 4
?__empty_global_delete@@YAXPAXI@Z PROC			; __empty_global_delete, COMDAT

  00000	c2 00 00	 ret	 0
?__empty_global_delete@@YAXPAXI@Z ENDP			; __empty_global_delete
_TEXT	ENDS
; Function compile flags: /Ogtp
; File C:\IAGOS\server\v18\Source\Source\_Common\spevent.cpp
;	COMDAT ?__empty_global_delete@@YAXPAX@Z
_TEXT	SEGMENT
___formal$ = 8						; size = 4
?__empty_global_delete@@YAXPAX@Z PROC			; __empty_global_delete, COMDAT

  00000	c2 00 00	 ret	 0
?__empty_global_delete@@YAXPAX@Z ENDP			; __empty_global_delete
_TEXT	ENDS
END
