; Listing generated by Microsoft (R) Optimizing Compiler Version 19.44.35225.0 

	TITLE	C:\IAGOS\server\v18\Source\Output\WorldServer\Release\spevent.obj
	.686P
	.XMM
	include listing.inc
	.model	flat

INCLUDELIB LIBCMT
INCLUDELIB OLDNAMES

CONST	SEGMENT
?piecewise_construct@std@@3Upiecewise_construct_t@1@B	ORG $+1 ; std::piecewise_construct
CONST	ENDS
PUBLIC	?__empty_global_delete@@YAXPAX@Z		; __empty_global_delete
PUBLIC	?__empty_global_delete@@YAXPAXI@Z		; __empty_global_delete
PUBLIC	___local_stdio_printf_options
PUBLIC	_sprintf
PUBLIC	?AfxCrtErrorCheck@@YAHH@Z			; AfxCrtErrorCheck
PUBLIC	?AtlThrowImpl@ATL@@YGXJ@Z			; ATL::AtlThrowImpl
PUBLIC	??1?$CSimpleStringT@D$0A@@ATL@@QAE@XZ		; ATL::CSimpleStringT<char,0>::~CSimpleStringT<char,0>
PUBLIC	?SetString@?$CSimpleStringT@D$0A@@ATL@@QAEXPBDH@Z ; ATL::CSimpleStringT<char,0>::SetString
PUBLIC	?ThrowMemoryException@?$CSimpleStringT@D$0A@@ATL@@KAXXZ ; ATL::CSimpleStringT<char,0>::ThrowMemoryException
PUBLIC	?Fork@?$CSimpleStringT@D$0A@@ATL@@AAEXH@Z	; ATL::CSimpleStringT<char,0>::Fork
PUBLIC	?PrepareWrite2@?$CSimpleStringT@D$0A@@ATL@@AAEXH@Z ; ATL::CSimpleStringT<char,0>::PrepareWrite2
PUBLIC	?Reallocate@?$CSimpleStringT@D$0A@@ATL@@AAEXH@Z	; ATL::CSimpleStringT<char,0>::Reallocate
PUBLIC	??1?$CStringT@DV?$StrTraitMFC@DV?$ChTraitsCRT@D@ATL@@@@@ATL@@QAE@XZ ; ATL::CStringT<char,StrTraitMFC<char,ATL::ChTraitsCRT<char> > >::~CStringT<char,StrTraitMFC<char,ATL::ChTraitsCRT<char> > >
PUBLIC	?LoadStringA@?$CStringT@DV?$StrTraitMFC@DV?$ChTraitsCRT@D@ATL@@@@@ATL@@QAEHI@Z ; ATL::CStringT<char,StrTraitMFC<char,ATL::ChTraitsCRT<char> > >::LoadStringA
PUBLIC	??0exception@std@@QAE@ABV01@@Z			; std::exception::exception
PUBLIC	??1exception@std@@UAE@XZ			; std::exception::~exception
PUBLIC	?what@exception@std@@UBEPBDXZ			; std::exception::what
PUBLIC	??_Gexception@std@@UAEPAXI@Z			; std::exception::`scalar deleting destructor'
PUBLIC	??0bad_alloc@std@@QAE@ABV01@@Z			; std::bad_alloc::bad_alloc
PUBLIC	??_Gbad_alloc@std@@UAEPAXI@Z			; std::bad_alloc::`scalar deleting destructor'
PUBLIC	??0bad_array_new_length@std@@QAE@XZ		; std::bad_array_new_length::bad_array_new_length
PUBLIC	??1bad_array_new_length@std@@UAE@XZ		; std::bad_array_new_length::~bad_array_new_length
PUBLIC	??0bad_array_new_length@std@@QAE@ABV01@@Z	; std::bad_array_new_length::bad_array_new_length
PUBLIC	??_Gbad_array_new_length@std@@UAEPAXI@Z		; std::bad_array_new_length::`scalar deleting destructor'
PUBLIC	?_Throw_bad_array_new_length@std@@YAXXZ		; std::_Throw_bad_array_new_length
PUBLIC	?_Throw_tree_length_error@std@@YAXXZ		; std::_Throw_tree_length_error
PUBLIC	??0D3DXVECTOR3@@QAE@XZ				; D3DXVECTOR3::D3DXVECTOR3
PUBLIC	??$_Allocate_manually_vector_aligned@U_Default_allocate_traits@std@@@std@@YAPAXI@Z ; std::_Allocate_manually_vector_aligned<std::_Default_allocate_traits>
PUBLIC	??1CSPEvent@@UAE@XZ				; CSPEvent::~CSPEvent
PUBLIC	??_GCSPEvent@@UAEPAXI@Z				; CSPEvent::`scalar deleting destructor'
PUBLIC	??0CXMasEvent@@QAE@XZ				; CXMasEvent::CXMasEvent
PUBLIC	??1CXMasEvent@@UAE@XZ				; CXMasEvent::~CXMasEvent
PUBLIC	?LoadScript@CXMasEvent@@QAEHPBD@Z		; CXMasEvent::LoadScript
PUBLIC	?IsTimeout@CXMasEvent@@QAEHH@Z			; CXMasEvent::IsTimeout
PUBLIC	?Skip@CXMasEvent@@QAEXJ@Z			; CXMasEvent::Skip
PUBLIC	?GetInstance@CXMasEvent@@SAPAV1@XZ		; CXMasEvent::GetInstance
PUBLIC	??_GCXMasEvent@@UAEPAXI@Z			; CXMasEvent::`scalar deleting destructor'
PUBLIC	??0CEventItem@@QAE@XZ				; CEventItem::CEventItem
PUBLIC	??0CEventItem@@QAE@KHH@Z			; CEventItem::CEventItem
PUBLIC	??1CEventItem@@UAE@XZ				; CEventItem::~CEventItem
PUBLIC	?IsTimeout@CEventItem@@QAEHH@Z			; CEventItem::IsTimeout
PUBLIC	?Skip@CEventItem@@QAEXJ@Z			; CEventItem::Skip
PUBLIC	?Serialize@CEventItem@@QAEXAAVCAr@@@Z		; CEventItem::Serialize
PUBLIC	??_GCEventItem@@UAEPAXI@Z			; CEventItem::`scalar deleting destructor'
PUBLIC	??0CSpawn@@QAE@XZ				; CSpawn::CSpawn
PUBLIC	??0CSpawn@@QAE@KKHMK@Z				; CSpawn::CSpawn
PUBLIC	??1CSpawn@@UAE@XZ				; CSpawn::~CSpawn
PUBLIC	?IsTimeout@CSpawn@@QAEHXZ			; CSpawn::IsTimeout
PUBLIC	??_GCSpawn@@UAEPAXI@Z				; CSpawn::`scalar deleting destructor'
PUBLIC	??1?$list@PAU_EVENT_GENERIC@@V?$allocator@PAU_EVENT_GENERIC@@@std@@@std@@QAE@XZ ; std::list<_EVENT_GENERIC *,std::allocator<_EVENT_GENERIC *> >::~list<_EVENT_GENERIC *,std::allocator<_EVENT_GENERIC *> >
PUBLIC	??1?$_Tree@V?$_Tmap_traits@HPAV?$list@PAVCEventItem@@V?$allocator@PAVCEventItem@@@std@@@std@@U?$less@H@2@V?$allocator@U?$pair@$$CBHPAV?$list@PAVCEventItem@@V?$allocator@PAVCEventItem@@@std@@@std@@@std@@@2@$0A@@std@@@std@@QAE@XZ ; std::_Tree<std::_Tmap_traits<int,std::list<CEventItem *,std::allocator<CEventItem *> > *,std::less<int>,std::allocator<std::pair<int const ,std::list<CEventItem *,std::allocator<CEventItem *> > *> >,0> >::~_Tree<std::_Tmap_traits<int,std::list<CEventItem *,std::allocator<CEventItem *> > *,std::less<int>,std::allocator<std::pair<int const ,std::list<CEventItem *,std::allocator<CEventItem *> > *> >,0> >
PUBLIC	?_Insert_node@?$_Tree_val@U?$_Tree_simple_types@U?$pair@$$CBHPAV?$list@PAVCEventItem@@V?$allocator@PAVCEventItem@@@std@@@std@@@std@@@std@@@std@@QAEPAU?$_Tree_node@U?$pair@$$CBHPAV?$list@PAVCEventItem@@V?$allocator@PAVCEventItem@@@std@@@std@@@std@@PAX@2@U?$_Tree_id@PAU?$_Tree_node@U?$pair@$$CBHPAV?$list@PAVCEventItem@@V?$allocator@PAVCEventItem@@@std@@@std@@@std@@PAX@std@@@2@QAU32@@Z ; std::_Tree_val<std::_Tree_simple_types<std::pair<int const ,std::list<CEventItem *,std::allocator<CEventItem *> > *> > >::_Insert_node
PUBLIC	??1?$map@HPAV?$list@PAVCEventItem@@V?$allocator@PAVCEventItem@@@std@@@std@@U?$less@H@2@V?$allocator@U?$pair@$$CBHPAV?$list@PAVCEventItem@@V?$allocator@PAVCEventItem@@@std@@@std@@@std@@@2@@std@@QAE@XZ ; std::map<int,std::list<CEventItem *,std::allocator<CEventItem *> > *,std::less<int>,std::allocator<std::pair<int const ,std::list<CEventItem *,std::allocator<CEventItem *> > *> > >::~map<int,std::list<CEventItem *,std::allocator<CEventItem *> > *,std::less<int>,std::allocator<std::pair<int const ,std::list<CEventItem *,std::allocator<CEventItem *> > *> > >
PUBLIC	??1?$vector@U_REGION_GENERIC@@V?$allocator@U_REGION_GENERIC@@@std@@@std@@QAE@XZ ; std::vector<_REGION_GENERIC,std::allocator<_REGION_GENERIC> >::~vector<_REGION_GENERIC,std::allocator<_REGION_GENERIC> >
PUBLIC	?_Xlength@?$vector@U_REGION_GENERIC@@V?$allocator@U_REGION_GENERIC@@@std@@@std@@CAXXZ ; std::vector<_REGION_GENERIC,std::allocator<_REGION_GENERIC> >::_Xlength
PUBLIC	??1?$_Tree@V?$_Tmap_traits@HPAVCSpawn@@U?$less@H@std@@V?$allocator@U?$pair@$$CBHPAVCSpawn@@@std@@@3@$0A@@std@@@std@@QAE@XZ ; std::_Tree<std::_Tmap_traits<int,CSpawn *,std::less<int>,std::allocator<std::pair<int const ,CSpawn *> >,0> >::~_Tree<std::_Tmap_traits<int,CSpawn *,std::less<int>,std::allocator<std::pair<int const ,CSpawn *> >,0> >
PUBLIC	?_Insert_node@?$_Tree_val@U?$_Tree_simple_types@U?$pair@$$CBHPAVCSpawn@@@std@@@std@@@std@@QAEPAU?$_Tree_node@U?$pair@$$CBHPAVCSpawn@@@std@@PAX@2@U?$_Tree_id@PAU?$_Tree_node@U?$pair@$$CBHPAVCSpawn@@@std@@PAX@std@@@2@QAU32@@Z ; std::_Tree_val<std::_Tree_simple_types<std::pair<int const ,CSpawn *> > >::_Insert_node
PUBLIC	??0CEventGeneric@@QAE@XZ			; CEventGeneric::CEventGeneric
PUBLIC	??1CEventGeneric@@UAE@XZ			; CEventGeneric::~CEventGeneric
PUBLIC	?Clear@CEventGeneric@@QAEXH@Z			; CEventGeneric::Clear
PUBLIC	?LoadScript@CEventGeneric@@QAEHPBD@Z		; CEventGeneric::LoadScript
PUBLIC	?AddItem@CEventGeneric@@QAEHHKHH@Z		; CEventGeneric::AddItem
PUBLIC	?GetItem@CEventGeneric@@QAEPAVCEventItem@@PAH@Z	; CEventGeneric::GetItem
PUBLIC	?GetExpFactor@CEventGeneric@@QAEMXZ		; CEventGeneric::GetExpFactor
PUBLIC	?GetItemDropRateFactor@CEventGeneric@@QAEMXZ	; CEventGeneric::GetItemDropRateFactor
PUBLIC	?GetEventElapsed@CEventGeneric@@QAEJXZ		; CEventGeneric::GetEventElapsed
PUBLIC	?CallTheRoll@CEventGeneric@@QAEXXZ		; CEventGeneric::CallTheRoll
PUBLIC	?AddSpawn@CEventGeneric@@QAEXHKKHMK@Z		; CEventGeneric::AddSpawn
PUBLIC	?AddRegionGeneric@CEventGeneric@@QAEXHKPAVCRespawnInfo@@@Z ; CEventGeneric::AddRegionGeneric
PUBLIC	?SortRegionGeneric@CEventGeneric@@QAEXXZ	; CEventGeneric::SortRegionGeneric
PUBLIC	?Spawn@CEventGeneric@@QAEXXZ			; CEventGeneric::Spawn
PUBLIC	?GetInstance@CEventGeneric@@SAPAV1@XZ		; CEventGeneric::GetInstance
PUBLIC	?Serialize@CEventGeneric@@QAEXAAVCAr@@@Z	; CEventGeneric::Serialize
PUBLIC	?Run@CEventGeneric@@QAEHXZ			; CEventGeneric::Run
PUBLIC	?GetEvent@CEventGeneric@@QAEPAU_EVENT_GENERIC@@H@Z ; CEventGeneric::GetEvent
PUBLIC	??_GCEventGeneric@@UAEPAXI@Z			; CEventGeneric::`scalar deleting destructor'
PUBLIC	??$?6H@CAr@@QAEAAV0@ABH@Z			; CAr::operator<<<int>
PUBLIC	??$?5H@CAr@@QAEAAV0@AAH@Z			; CAr::operator>><int>
PUBLIC	??$?6K@CAr@@QAEAAV0@ABK@Z			; CAr::operator<<<unsigned long>
PUBLIC	??$?5K@CAr@@QAEAAV0@AAK@Z			; CAr::operator>><unsigned long>
PUBLIC	?push_back@?$list@PAVCEventItem@@V?$allocator@PAVCEventItem@@@std@@@std@@QAEXABQAVCEventItem@@@Z ; std::list<CEventItem *,std::allocator<CEventItem *> >::push_back
PUBLIC	??$insert@$0A@$0A@@?$_Tree@V?$_Tmap_traits@HPAV?$list@PAVCEventItem@@V?$allocator@PAVCEventItem@@@std@@@std@@U?$less@H@2@V?$allocator@U?$pair@$$CBHPAV?$list@PAVCEventItem@@V?$allocator@PAVCEventItem@@@std@@@std@@@std@@@2@$0A@@std@@@std@@QAE?AU?$pair@V?$_Tree_iterator@V?$_Tree_val@U?$_Tree_simple_types@U?$pair@$$CBHPAV?$list@PAVCEventItem@@V?$allocator@PAVCEventItem@@@std@@@std@@@std@@@std@@@std@@@std@@_N@1@$$QAU?$pair@$$CBHPAV?$list@PAVCEventItem@@V?$allocator@PAVCEventItem@@@std@@@std@@@1@@Z ; std::_Tree<std::_Tmap_traits<int,std::list<CEventItem *,std::allocator<CEventItem *> > *,std::less<int>,std::allocator<std::pair<int const ,std::list<CEventItem *,std::allocator<CEventItem *> > *> >,0> >::insert<0,0>
PUBLIC	?prRegionGeneric@@YA_NU_REGION_GENERIC@@0@Z	; prRegionGeneric
PUBLIC	??$_Sort_unchecked@PAU_REGION_GENERIC@@P6A_NU1@0@Z@std@@YAXPAU_REGION_GENERIC@@0HP6A_NU1@1@Z@Z ; std::_Sort_unchecked<_REGION_GENERIC *,bool (__cdecl*)(_REGION_GENERIC,_REGION_GENERIC)>
PUBLIC	??$_Erase_tree@V?$allocator@U?$_Tree_node@U?$pair@$$CBHPAVCSpawn@@@std@@PAX@std@@@std@@@?$_Tree_val@U?$_Tree_simple_types@U?$pair@$$CBHPAVCSpawn@@@std@@@std@@@std@@QAEXAAV?$allocator@U?$_Tree_node@U?$pair@$$CBHPAVCSpawn@@@std@@PAX@std@@@1@PAU?$_Tree_node@U?$pair@$$CBHPAVCSpawn@@@std@@PAX@1@@Z ; std::_Tree_val<std::_Tree_simple_types<std::pair<int const ,CSpawn *> > >::_Erase_tree<std::allocator<std::_Tree_node<std::pair<int const ,CSpawn *>,void *> > >
PUBLIC	??$_Erase_tree@V?$allocator@U?$_Tree_node@U?$pair@$$CBHPAV?$list@PAVCEventItem@@V?$allocator@PAVCEventItem@@@std@@@std@@@std@@PAX@std@@@std@@@?$_Tree_val@U?$_Tree_simple_types@U?$pair@$$CBHPAV?$list@PAVCEventItem@@V?$allocator@PAVCEventItem@@@std@@@std@@@std@@@std@@@std@@QAEXAAV?$allocator@U?$_Tree_node@U?$pair@$$CBHPAV?$list@PAVCEventItem@@V?$allocator@PAVCEventItem@@@std@@@std@@@std@@PAX@std@@@1@PAU?$_Tree_node@U?$pair@$$CBHPAV?$list@PAVCEventItem@@V?$allocator@PAVCEventItem@@@std@@@std@@@std@@PAX@1@@Z ; std::_Tree_val<std::_Tree_simple_types<std::pair<int const ,std::list<CEventItem *,std::allocator<CEventItem *> > *> > >::_Erase_tree<std::allocator<std::_Tree_node<std::pair<int const ,std::list<CEventItem *,std::allocator<CEventItem *> > *>,void *> > >
PUBLIC	??$_Find_lower_bound@H@?$_Tree@V?$_Tmap_traits@HPAV?$list@PAVCEventItem@@V?$allocator@PAVCEventItem@@@std@@@std@@U?$less@H@2@V?$allocator@U?$pair@$$CBHPAV?$list@PAVCEventItem@@V?$allocator@PAVCEventItem@@@std@@@std@@@std@@@2@$0A@@std@@@std@@IBE?AU?$_Tree_find_result@PAU?$_Tree_node@U?$pair@$$CBHPAV?$list@PAVCEventItem@@V?$allocator@PAVCEventItem@@@std@@@std@@@std@@PAX@std@@@1@ABH@Z ; std::_Tree<std::_Tmap_traits<int,std::list<CEventItem *,std::allocator<CEventItem *> > *,std::less<int>,std::allocator<std::pair<int const ,std::list<CEventItem *,std::allocator<CEventItem *> > *> >,0> >::_Find_lower_bound<int>
PUBLIC	??1?$_Alloc_construct_ptr@V?$allocator@U?$_Tree_node@U?$pair@$$CBHPAV?$list@PAVCEventItem@@V?$allocator@PAVCEventItem@@@std@@@std@@@std@@PAX@std@@@std@@@std@@QAE@XZ ; std::_Alloc_construct_ptr<std::allocator<std::_Tree_node<std::pair<int const ,std::list<CEventItem *,std::allocator<CEventItem *> > *>,void *> > >::~_Alloc_construct_ptr<std::allocator<std::_Tree_node<std::pair<int const ,std::list<CEventItem *,std::allocator<CEventItem *> > *>,void *> > >
PUBLIC	??1?$_Alloc_construct_ptr@V?$allocator@U?$_Tree_node@U?$pair@$$CBHPAVCSpawn@@@std@@PAX@std@@@std@@@std@@QAE@XZ ; std::_Alloc_construct_ptr<std::allocator<std::_Tree_node<std::pair<int const ,CSpawn *>,void *> > >::~_Alloc_construct_ptr<std::allocator<std::_Tree_node<std::pair<int const ,CSpawn *>,void *> > >
PUBLIC	??$_Make_heap_unchecked@PAU_REGION_GENERIC@@P6A_NU1@0@Z@std@@YAXPAU_REGION_GENERIC@@0P6A_NU1@1@Z@Z ; std::_Make_heap_unchecked<_REGION_GENERIC *,bool (__cdecl*)(_REGION_GENERIC,_REGION_GENERIC)>
PUBLIC	??$_Partition_by_median_guess_unchecked@PAU_REGION_GENERIC@@P6A_NU1@0@Z@std@@YA?AU?$pair@PAU_REGION_GENERIC@@PAU1@@0@PAU_REGION_GENERIC@@0P6A_NU2@1@Z@Z ; std::_Partition_by_median_guess_unchecked<_REGION_GENERIC *,bool (__cdecl*)(_REGION_GENERIC,_REGION_GENERIC)>
PUBLIC	??$_Emplace_reallocate@ABU_REGION_GENERIC@@@?$vector@U_REGION_GENERIC@@V?$allocator@U_REGION_GENERIC@@@std@@@std@@AAEPAU_REGION_GENERIC@@QAU2@ABU2@@Z ; std::vector<_REGION_GENERIC,std::allocator<_REGION_GENERIC> >::_Emplace_reallocate<_REGION_GENERIC const &>
PUBLIC	??1?$_Alloc_construct_ptr@V?$allocator@U?$_List_node@PAVCEventItem@@PAX@std@@@std@@@std@@QAE@XZ ; std::_Alloc_construct_ptr<std::allocator<std::_List_node<CEventItem *,void *> > >::~_Alloc_construct_ptr<std::allocator<std::_List_node<CEventItem *,void *> > >
PUBLIC	??1?$_Alloc_construct_ptr@V?$allocator@U?$_List_node@PAU_EVENT_GENERIC@@PAX@std@@@std@@@std@@QAE@XZ ; std::_Alloc_construct_ptr<std::allocator<std::_List_node<_EVENT_GENERIC *,void *> > >::~_Alloc_construct_ptr<std::allocator<std::_List_node<_EVENT_GENERIC *,void *> > >
PUBLIC	??$_Pop_heap_hole_by_index@PAU_REGION_GENERIC@@U1@P6A_NU1@0@Z@std@@YAXPAU_REGION_GENERIC@@HH$$QAU1@P6A_NU1@2@Z@Z ; std::_Pop_heap_hole_by_index<_REGION_GENERIC *,_REGION_GENERIC,bool (__cdecl*)(_REGION_GENERIC,_REGION_GENERIC)>
PUBLIC	??$_Copy_backward_memmove@PAU_REGION_GENERIC@@PAU1@@std@@YAPAU_REGION_GENERIC@@PAU1@00@Z ; std::_Copy_backward_memmove<_REGION_GENERIC *,_REGION_GENERIC *>
PUBLIC	??$_Med3_unchecked@PAU_REGION_GENERIC@@P6A_NU1@0@Z@std@@YAXPAU_REGION_GENERIC@@00P6A_NU1@1@Z@Z ; std::_Med3_unchecked<_REGION_GENERIC *,bool (__cdecl*)(_REGION_GENERIC,_REGION_GENERIC)>
PUBLIC	??$_Copy_memmove@PAU_REGION_GENERIC@@PAU1@@std@@YAPAU_REGION_GENERIC@@PAU1@00@Z ; std::_Copy_memmove<_REGION_GENERIC *,_REGION_GENERIC *>
PUBLIC	??$_Copy_memmove_tail@PAU_REGION_GENERIC@@@std@@YAPAU_REGION_GENERIC@@QBDQAU1@II@Z ; std::_Copy_memmove_tail<_REGION_GENERIC *>
PUBLIC	?_OptionsStorage@?1??__local_stdio_printf_options@@9@4_KA ; `__local_stdio_printf_options'::`2'::_OptionsStorage
PUBLIC	??_7exception@std@@6B@				; std::exception::`vftable'
PUBLIC	??_C@_0BC@EOODALEL@Unknown?5exception@		; `string'
PUBLIC	??_7bad_alloc@std@@6B@				; std::bad_alloc::`vftable'
PUBLIC	??_7bad_array_new_length@std@@6B@		; std::bad_array_new_length::`vftable'
PUBLIC	??_C@_0BF@KINCDENJ@bad?5array?5new?5length@	; `string'
PUBLIC	??_R0?AVexception@std@@@8			; std::exception `RTTI Type Descriptor'
PUBLIC	__CT??_R0?AVexception@std@@@8??0exception@std@@QAE@ABV01@@Z12
PUBLIC	__TI3?AVbad_array_new_length@std@@
PUBLIC	__CTA3?AVbad_array_new_length@std@@
PUBLIC	??_R0?AVbad_array_new_length@std@@@8		; std::bad_array_new_length `RTTI Type Descriptor'
PUBLIC	__CT??_R0?AVbad_array_new_length@std@@@8??0bad_array_new_length@std@@QAE@ABV01@@Z12
PUBLIC	??_R0?AVbad_alloc@std@@@8			; std::bad_alloc `RTTI Type Descriptor'
PUBLIC	__CT??_R0?AVbad_alloc@std@@@8??0bad_alloc@std@@QAE@ABV01@@Z12
PUBLIC	??_C@_0BB@GCADKGJO@map?1set?5too?5long@		; `string'
PUBLIC	??_C@_0BM@HMFGHCP@?$CFs?5min?3?$CFd?0?5max?3?$CFd?0?5index?3?$CFd@ ; `string'
PUBLIC	??_C@_0BI@BEIFNGEL@GetItemProp?5range_error@	; `string'
PUBLIC	??_C@_0BA@FOIKENOD@vector?5too?5long@		; `string'
PUBLIC	??_R4exception@std@@6B@				; std::exception::`RTTI Complete Object Locator'
PUBLIC	??_R3exception@std@@8				; std::exception::`RTTI Class Hierarchy Descriptor'
PUBLIC	??_R2exception@std@@8				; std::exception::`RTTI Base Class Array'
PUBLIC	??_R1A@?0A@EA@exception@std@@8			; std::exception::`RTTI Base Class Descriptor at (0,-1,0,64)'
PUBLIC	??_R4bad_array_new_length@std@@6B@		; std::bad_array_new_length::`RTTI Complete Object Locator'
PUBLIC	??_R3bad_array_new_length@std@@8		; std::bad_array_new_length::`RTTI Class Hierarchy Descriptor'
PUBLIC	??_R2bad_array_new_length@std@@8		; std::bad_array_new_length::`RTTI Base Class Array'
PUBLIC	??_R1A@?0A@EA@bad_array_new_length@std@@8	; std::bad_array_new_length::`RTTI Base Class Descriptor at (0,-1,0,64)'
PUBLIC	??_R1A@?0A@EA@bad_alloc@std@@8			; std::bad_alloc::`RTTI Base Class Descriptor at (0,-1,0,64)'
PUBLIC	??_R3bad_alloc@std@@8				; std::bad_alloc::`RTTI Class Hierarchy Descriptor'
PUBLIC	??_R2bad_alloc@std@@8				; std::bad_alloc::`RTTI Base Class Array'
PUBLIC	??_R4bad_alloc@std@@6B@				; std::bad_alloc::`RTTI Complete Object Locator'
PUBLIC	??_7CSPEvent@@6B@				; CSPEvent::`vftable'
PUBLIC	??_7CXMasEvent@@6B@				; CXMasEvent::`vftable'
PUBLIC	??_7CEventItem@@6B@				; CEventItem::`vftable'
PUBLIC	??_7CSpawn@@6B@					; CSpawn::`vftable'
PUBLIC	??_7CEventGeneric@@6B@				; CEventGeneric::`vftable'
PUBLIC	??_C@_05GCNIINAF@Event@				; `string'
PUBLIC	??_C@_05PABKJLOM@Title@				; `string'
PUBLIC	??_C@_01BJJEKLCA@?$CC@				; `string'
PUBLIC	??_C@_04OKOFBOPB@Time@				; `string'
PUBLIC	??_C@_04BGCMBJDA@Item@				; `string'
PUBLIC	??_C@_0L@DDJPBPFC@fExpFactor@			; `string'
PUBLIC	??_C@_0O@NDHJHAFN@fItemDropRate@		; `string'
PUBLIC	??_C@_05BEKPGMFA@Spawn@				; `string'
PUBLIC	??_C@_0DM@PNNFMCGB@m_dwFlag?$DN0x?$CF08x?0?5nId?$DN?$CFd?0?5tStart@ ; `string'
PUBLIC	??_C@_0DK@PJCDFLMA@spawn?3?5type?5?$DN?5?$CFd?0?5index?5?$DN?5?$CFd?0?5w@ ; `string'
PUBLIC	??_C@_0O@NKNMEGII@list?5too?5long@		; `string'
PUBLIC	??_R4CSPEvent@@6B@				; CSPEvent::`RTTI Complete Object Locator'
PUBLIC	??_R0?AVCSPEvent@@@8				; CSPEvent `RTTI Type Descriptor'
PUBLIC	??_R3CSPEvent@@8				; CSPEvent::`RTTI Class Hierarchy Descriptor'
PUBLIC	??_R2CSPEvent@@8				; CSPEvent::`RTTI Base Class Array'
PUBLIC	??_R1A@?0A@EA@CSPEvent@@8			; CSPEvent::`RTTI Base Class Descriptor at (0,-1,0,64)'
PUBLIC	??_R4CXMasEvent@@6B@				; CXMasEvent::`RTTI Complete Object Locator'
PUBLIC	??_R0?AVCXMasEvent@@@8				; CXMasEvent `RTTI Type Descriptor'
PUBLIC	??_R3CXMasEvent@@8				; CXMasEvent::`RTTI Class Hierarchy Descriptor'
PUBLIC	??_R2CXMasEvent@@8				; CXMasEvent::`RTTI Base Class Array'
PUBLIC	??_R1A@?0A@EA@CXMasEvent@@8			; CXMasEvent::`RTTI Base Class Descriptor at (0,-1,0,64)'
PUBLIC	??_R4CEventItem@@6B@				; CEventItem::`RTTI Complete Object Locator'
PUBLIC	??_R0?AVCEventItem@@@8				; CEventItem `RTTI Type Descriptor'
PUBLIC	??_R3CEventItem@@8				; CEventItem::`RTTI Class Hierarchy Descriptor'
PUBLIC	??_R2CEventItem@@8				; CEventItem::`RTTI Base Class Array'
PUBLIC	??_R1A@?0A@EA@CEventItem@@8			; CEventItem::`RTTI Base Class Descriptor at (0,-1,0,64)'
PUBLIC	??_R4CSpawn@@6B@				; CSpawn::`RTTI Complete Object Locator'
PUBLIC	??_R0?AVCSpawn@@@8				; CSpawn `RTTI Type Descriptor'
PUBLIC	??_R3CSpawn@@8					; CSpawn::`RTTI Class Hierarchy Descriptor'
PUBLIC	??_R2CSpawn@@8					; CSpawn::`RTTI Base Class Array'
PUBLIC	??_R1A@?0A@EA@CSpawn@@8				; CSpawn::`RTTI Base Class Descriptor at (0,-1,0,64)'
PUBLIC	??_R4CEventGeneric@@6B@				; CEventGeneric::`RTTI Complete Object Locator'
PUBLIC	??_R0?AVCEventGeneric@@@8			; CEventGeneric `RTTI Type Descriptor'
PUBLIC	??_R3CEventGeneric@@8				; CEventGeneric::`RTTI Class Hierarchy Descriptor'
PUBLIC	??_R2CEventGeneric@@8				; CEventGeneric::`RTTI Base Class Array'
PUBLIC	??_R1A@?0A@EA@CEventGeneric@@8			; CEventGeneric::`RTTI Base Class Descriptor at (0,-1,0,64)'
PUBLIC	__real@3f000000
PUBLIC	__real@3f800000
PUBLIC	__real@3ff0000000000000
PUBLIC	__real@40000000
PUBLIC	__real@4000000000000000
PUBLIC	__real@40800000
PUBLIC	__real@42480000
PUBLIC	__real@42c80000
PUBLIC	__real@4a5bba00
PUBLIC	__xmm@41f00000000000000000000000000000
PUBLIC	__xmm@80000000800000008000000080000000
EXTRN	??2@YAPAXI@Z:PROC				; operator new
EXTRN	??3@YAXPAXI@Z:PROC				; operator delete
EXTRN	_atexit:PROC
EXTRN	__Init_thread_header:PROC
EXTRN	__Init_thread_abort:PROC
EXTRN	__Init_thread_footer:PROC
EXTRN	__invalid_parameter_noinfo:PROC
EXTRN	__invoke_watson:PROC
EXTRN	__errno:PROC
EXTRN	__imp__OutputDebugStringA@4:PROC
EXTRN	__imp__GetTickCount@0:PROC
EXTRN	__imp__LoadResource@8:PROC
EXTRN	__imp__LockResource@4:PROC
EXTRN	__imp__SizeofResource@8:PROC
EXTRN	__imp__FindResourceW@12:PROC
EXTRN	__imp__lstrcpyA@8:PROC
EXTRN	__imp__WideCharToMultiByte@32:PROC
EXTRN	__mbscmp:PROC
EXTRN	__mbsstr:PROC
EXTRN	___stdio_common_vsprintf:PROC
EXTRN	__localtime64_s:PROC
EXTRN	__time64:PROC
EXTRN	?AfxThrowMemoryException@@YGXXZ:PROC		; AfxThrowMemoryException
EXTRN	?AfxThrowInvalidArgException@@YGXXZ:PROC	; AfxThrowInvalidArgException
EXTRN	?AfxThrowOleException@@YGXJ@Z:PROC		; AfxThrowOleException
EXTRN	?AfxFindStringResourceHandle@@YGPAUHINSTANCE__@@I@Z:PROC ; AfxFindStringResourceHandle
EXTRN	?AfxGetStringManager@@YGPAUIAtlStringMgr@ATL@@XZ:PROC ; AfxGetStringManager
EXTRN	___std_exception_copy:PROC
EXTRN	___std_exception_destroy:PROC
EXTRN	??_Eexception@std@@UAEPAXI@Z:PROC		; std::exception::`vector deleting destructor'
EXTRN	??_Ebad_alloc@std@@UAEPAXI@Z:PROC		; std::bad_alloc::`vector deleting destructor'
EXTRN	??_Ebad_array_new_length@std@@UAEPAXI@Z:PROC	; std::bad_array_new_length::`vector deleting destructor'
EXTRN	?_Xlength_error@std@@YAXPBD@Z:PROC		; std::_Xlength_error
EXTRN	?GetNumber@CScanner@@QAEHH@Z:PROC		; CScanner::GetNumber
EXTRN	?GetFloat@CScanner@@QAEMH@Z:PROC		; CScanner::GetFloat
EXTRN	??0CScript@@QAE@H@Z:PROC			; CScript::CScript
EXTRN	??1CScript@@UAE@XZ:PROC				; CScript::~CScript
EXTRN	?Load@CScript@@QAEHPBDHH@Z:PROC			; CScript::Load
EXTRN	?GetToken@CScript@@UAEHH@Z:PROC			; CScript::GetToken
EXTRN	?GetLastFull@CScript@@QAEXXZ:PROC		; CScript::GetLastFull
EXTRN	?xRandom@@YAKKK@Z:PROC				; xRandom
EXTRN	?Error@@YAPBDPBDZZ:PROC				; Error
EXTRN	?GetLanguage@@YAHXZ:PROC			; GetLanguage
EXTRN	?SetPos@CObj@@QAEXABUD3DXVECTOR3@@@Z:PROC	; CObj::SetPos
EXTRN	?SetSerialNumber@CItemBase@@QAEXXZ:PROC		; CItemBase::SetSerialNumber
EXTRN	??0CItemElem@@QAE@XZ:PROC			; CItemElem::CItemElem
EXTRN	?Read@CAr@@QAEXPAXI@Z:PROC			; CAr::Read
EXTRN	?Write@CAr@@QAEXPBXI@Z:PROC			; CAr::Write
EXTRN	?CheckBuf@CAr@@QAEXI@Z:PROC			; CAr::CheckBuf
EXTRN	?GetPos@CRespawnInfo@@QAEXAAUD3DXVECTOR3@@H@Z:PROC ; CRespawnInfo::GetPos
EXTRN	?AddObj@CWorld@@QAEHPAVCObj@@HH@Z:PROC		; CWorld::AddObj
EXTRN	?GetLandHeight@CWorld@@QAEMMM@Z:PROC		; CWorld::GetLandHeight
EXTRN	?CreateObj@@YAPAVCObj@@PAUIDirect3DDevice9@@KKH@Z:PROC ; CreateObj
EXTRN	?GetState@CFlyffEvent@@QAEEH@Z:PROC		; CFlyffEvent::GetState
EXTRN	??_ECSPEvent@@UAEPAXI@Z:PROC			; CSPEvent::`vector deleting destructor'
EXTRN	??_ECXMasEvent@@UAEPAXI@Z:PROC			; CXMasEvent::`vector deleting destructor'
EXTRN	??_ECEventItem@@UAEPAXI@Z:PROC			; CEventItem::`vector deleting destructor'
EXTRN	??_ECSpawn@@UAEPAXI@Z:PROC			; CSpawn::`vector deleting destructor'
EXTRN	??_ECEventGeneric@@UAEPAXI@Z:PROC		; CEventGeneric::`vector deleting destructor'
EXTRN	?CallTheRoll@CUserMng@@QAEXH@Z:PROC		; CUserMng::CallTheRoll
EXTRN	?GetWorld@CWorldMng@@QAEPAVCWorld@@K@Z:PROC	; CWorldMng::GetWorld
EXTRN	@__security_check_cookie@4:PROC
EXTRN	__CxxThrowException@8:PROC
EXTRN	___CxxFrameHandler3:PROC
EXTRN	__alldiv:PROC
EXTRN	__ftol3:PROC
EXTRN	__libm_sse2_pow_precise:PROC
EXTRN	__libm_sse2_sqrt_precise:PROC
EXTRN	_memcpy:PROC
EXTRN	_memmove:PROC
EXTRN	_memset:PROC
EXTRN	__Init_thread_epoch:DWORD
EXTRN	??_7type_info@@6B@:QWORD			; type_info::`vftable'
EXTRN	?g_tCurrent@@3JA:DWORD				; g_tCurrent
EXTRN	?g_next@@3KA:DWORD				; g_next
EXTRN	?prj@@3VCProject@@A:BYTE			; prj
EXTRN	?g_tmCurrent@@3KA:DWORD				; g_tmCurrent
EXTRN	?g_eLocal@@3VCFlyffEvent@@A:BYTE		; g_eLocal
EXTRN	?g_UserMng@@3VCUserMng@@A:BYTE			; g_UserMng
EXTRN	?g_WorldMng@@3VCWorldMng@@A:BYTE		; g_WorldMng
EXTRN	___security_cookie:DWORD
EXTRN	__fltused:DWORD
EXTRN	__tls_array:DWORD
EXTRN	__tls_index:DWORD
;	COMDAT ?_OptionsStorage@?1??__local_stdio_printf_options@@9@4_KA
_BSS	SEGMENT
?_OptionsStorage@?1??__local_stdio_printf_options@@9@4_KA DQ 01H DUP (?) ; `__local_stdio_printf_options'::`2'::_OptionsStorage
_BSS	ENDS
;	COMDAT ?sXMasEvent@?1??GetInstance@CXMasEvent@@SAPAV2@XZ@4V2@A
_BSS	SEGMENT
?sXMasEvent@?1??GetInstance@CXMasEvent@@SAPAV2@XZ@4V2@A DB 06cH DUP (?) ; `CXMasEvent::GetInstance'::`2'::sXMasEvent
_BSS	ENDS
;	COMDAT ?$TSS0@?1??GetInstance@CXMasEvent@@SAPAV2@XZ@4HA
_BSS	SEGMENT
?$TSS0@?1??GetInstance@CXMasEvent@@SAPAV2@XZ@4HA DD 01H DUP (?) ; `CXMasEvent::GetInstance'::`2'::$TSS0
_BSS	ENDS
;	COMDAT ?sEventGeneric@?1??GetInstance@CEventGeneric@@SAPAV2@XZ@4V2@A
_BSS	SEGMENT
?sEventGeneric@?1??GetInstance@CEventGeneric@@SAPAV2@XZ@4V2@A DB 02cH DUP (?) ; `CEventGeneric::GetInstance'::`2'::sEventGeneric
_BSS	ENDS
;	COMDAT ?$TSS0@?1??GetInstance@CEventGeneric@@SAPAV2@XZ@4HA
_BSS	SEGMENT
?$TSS0@?1??GetInstance@CEventGeneric@@SAPAV2@XZ@4HA DD 01H DUP (?) ; `CEventGeneric::GetInstance'::`2'::$TSS0
_BSS	ENDS
;	COMDAT __xmm@80000000800000008000000080000000
CONST	SEGMENT
__xmm@80000000800000008000000080000000 DB 00H, 00H, 00H, 080H, 00H, 00H, 00H
	DB	080H, 00H, 00H, 00H, 080H, 00H, 00H, 00H, 080H
CONST	ENDS
;	COMDAT __xmm@41f00000000000000000000000000000
CONST	SEGMENT
__xmm@41f00000000000000000000000000000 DB 00H, 00H, 00H, 00H, 00H, 00H, 00H
	DB	00H, 00H, 00H, 00H, 00H, 00H, 00H, 0f0H, 'A'
CONST	ENDS
;	COMDAT __real@4a5bba00
CONST	SEGMENT
__real@4a5bba00 DD 04a5bba00r			; 3.6e+06
CONST	ENDS
;	COMDAT __real@42c80000
CONST	SEGMENT
__real@42c80000 DD 042c80000r			; 100
CONST	ENDS
;	COMDAT __real@42480000
CONST	SEGMENT
__real@42480000 DD 042480000r			; 50
CONST	ENDS
;	COMDAT __real@40800000
CONST	SEGMENT
__real@40800000 DD 040800000r			; 4
CONST	ENDS
;	COMDAT __real@4000000000000000
CONST	SEGMENT
__real@4000000000000000 DQ 04000000000000000r	; 2
CONST	ENDS
;	COMDAT __real@40000000
CONST	SEGMENT
__real@40000000 DD 040000000r			; 2
CONST	ENDS
;	COMDAT __real@3ff0000000000000
CONST	SEGMENT
__real@3ff0000000000000 DQ 03ff0000000000000r	; 1
CONST	ENDS
;	COMDAT __real@3f800000
CONST	SEGMENT
__real@3f800000 DD 03f800000r			; 1
CONST	ENDS
;	COMDAT __real@3f000000
CONST	SEGMENT
__real@3f000000 DD 03f000000r			; 0.5
CONST	ENDS
;	COMDAT ??_R1A@?0A@EA@CEventGeneric@@8
rdata$r	SEGMENT
??_R1A@?0A@EA@CEventGeneric@@8 DD FLAT:??_R0?AVCEventGeneric@@@8 ; CEventGeneric::`RTTI Base Class Descriptor at (0,-1,0,64)'
	DD	00H
	DD	00H
	DD	0ffffffffH
	DD	00H
	DD	040H
	DD	FLAT:??_R3CEventGeneric@@8
rdata$r	ENDS
;	COMDAT ??_R2CEventGeneric@@8
rdata$r	SEGMENT
??_R2CEventGeneric@@8 DD FLAT:??_R1A@?0A@EA@CEventGeneric@@8 ; CEventGeneric::`RTTI Base Class Array'
rdata$r	ENDS
;	COMDAT ??_R3CEventGeneric@@8
rdata$r	SEGMENT
??_R3CEventGeneric@@8 DD 00H				; CEventGeneric::`RTTI Class Hierarchy Descriptor'
	DD	00H
	DD	01H
	DD	FLAT:??_R2CEventGeneric@@8
rdata$r	ENDS
;	COMDAT ??_R0?AVCEventGeneric@@@8
data$rs	SEGMENT
??_R0?AVCEventGeneric@@@8 DD FLAT:??_7type_info@@6B@	; CEventGeneric `RTTI Type Descriptor'
	DD	00H
	DB	'.?AVCEventGeneric@@', 00H
data$rs	ENDS
;	COMDAT ??_R4CEventGeneric@@6B@
rdata$r	SEGMENT
??_R4CEventGeneric@@6B@ DD 00H				; CEventGeneric::`RTTI Complete Object Locator'
	DD	00H
	DD	00H
	DD	FLAT:??_R0?AVCEventGeneric@@@8
	DD	FLAT:??_R3CEventGeneric@@8
rdata$r	ENDS
;	COMDAT ??_R1A@?0A@EA@CSpawn@@8
rdata$r	SEGMENT
??_R1A@?0A@EA@CSpawn@@8 DD FLAT:??_R0?AVCSpawn@@@8	; CSpawn::`RTTI Base Class Descriptor at (0,-1,0,64)'
	DD	00H
	DD	00H
	DD	0ffffffffH
	DD	00H
	DD	040H
	DD	FLAT:??_R3CSpawn@@8
rdata$r	ENDS
;	COMDAT ??_R2CSpawn@@8
rdata$r	SEGMENT
??_R2CSpawn@@8 DD FLAT:??_R1A@?0A@EA@CSpawn@@8		; CSpawn::`RTTI Base Class Array'
rdata$r	ENDS
;	COMDAT ??_R3CSpawn@@8
rdata$r	SEGMENT
??_R3CSpawn@@8 DD 00H					; CSpawn::`RTTI Class Hierarchy Descriptor'
	DD	00H
	DD	01H
	DD	FLAT:??_R2CSpawn@@8
rdata$r	ENDS
;	COMDAT ??_R0?AVCSpawn@@@8
data$rs	SEGMENT
??_R0?AVCSpawn@@@8 DD FLAT:??_7type_info@@6B@		; CSpawn `RTTI Type Descriptor'
	DD	00H
	DB	'.?AVCSpawn@@', 00H
data$rs	ENDS
;	COMDAT ??_R4CSpawn@@6B@
rdata$r	SEGMENT
??_R4CSpawn@@6B@ DD 00H					; CSpawn::`RTTI Complete Object Locator'
	DD	00H
	DD	00H
	DD	FLAT:??_R0?AVCSpawn@@@8
	DD	FLAT:??_R3CSpawn@@8
rdata$r	ENDS
;	COMDAT ??_R1A@?0A@EA@CEventItem@@8
rdata$r	SEGMENT
??_R1A@?0A@EA@CEventItem@@8 DD FLAT:??_R0?AVCEventItem@@@8 ; CEventItem::`RTTI Base Class Descriptor at (0,-1,0,64)'
	DD	00H
	DD	00H
	DD	0ffffffffH
	DD	00H
	DD	040H
	DD	FLAT:??_R3CEventItem@@8
rdata$r	ENDS
;	COMDAT ??_R2CEventItem@@8
rdata$r	SEGMENT
??_R2CEventItem@@8 DD FLAT:??_R1A@?0A@EA@CEventItem@@8	; CEventItem::`RTTI Base Class Array'
rdata$r	ENDS
;	COMDAT ??_R3CEventItem@@8
rdata$r	SEGMENT
??_R3CEventItem@@8 DD 00H				; CEventItem::`RTTI Class Hierarchy Descriptor'
	DD	00H
	DD	01H
	DD	FLAT:??_R2CEventItem@@8
rdata$r	ENDS
;	COMDAT ??_R0?AVCEventItem@@@8
data$rs	SEGMENT
??_R0?AVCEventItem@@@8 DD FLAT:??_7type_info@@6B@	; CEventItem `RTTI Type Descriptor'
	DD	00H
	DB	'.?AVCEventItem@@', 00H
data$rs	ENDS
;	COMDAT ??_R4CEventItem@@6B@
rdata$r	SEGMENT
??_R4CEventItem@@6B@ DD 00H				; CEventItem::`RTTI Complete Object Locator'
	DD	00H
	DD	00H
	DD	FLAT:??_R0?AVCEventItem@@@8
	DD	FLAT:??_R3CEventItem@@8
rdata$r	ENDS
;	COMDAT ??_R1A@?0A@EA@CXMasEvent@@8
rdata$r	SEGMENT
??_R1A@?0A@EA@CXMasEvent@@8 DD FLAT:??_R0?AVCXMasEvent@@@8 ; CXMasEvent::`RTTI Base Class Descriptor at (0,-1,0,64)'
	DD	01H
	DD	00H
	DD	0ffffffffH
	DD	00H
	DD	040H
	DD	FLAT:??_R3CXMasEvent@@8
rdata$r	ENDS
;	COMDAT ??_R2CXMasEvent@@8
rdata$r	SEGMENT
??_R2CXMasEvent@@8 DD FLAT:??_R1A@?0A@EA@CXMasEvent@@8	; CXMasEvent::`RTTI Base Class Array'
	DD	FLAT:??_R1A@?0A@EA@CSPEvent@@8
rdata$r	ENDS
;	COMDAT ??_R3CXMasEvent@@8
rdata$r	SEGMENT
??_R3CXMasEvent@@8 DD 00H				; CXMasEvent::`RTTI Class Hierarchy Descriptor'
	DD	00H
	DD	02H
	DD	FLAT:??_R2CXMasEvent@@8
rdata$r	ENDS
;	COMDAT ??_R0?AVCXMasEvent@@@8
data$rs	SEGMENT
??_R0?AVCXMasEvent@@@8 DD FLAT:??_7type_info@@6B@	; CXMasEvent `RTTI Type Descriptor'
	DD	00H
	DB	'.?AVCXMasEvent@@', 00H
data$rs	ENDS
;	COMDAT ??_R4CXMasEvent@@6B@
rdata$r	SEGMENT
??_R4CXMasEvent@@6B@ DD 00H				; CXMasEvent::`RTTI Complete Object Locator'
	DD	00H
	DD	00H
	DD	FLAT:??_R0?AVCXMasEvent@@@8
	DD	FLAT:??_R3CXMasEvent@@8
rdata$r	ENDS
;	COMDAT ??_R1A@?0A@EA@CSPEvent@@8
rdata$r	SEGMENT
??_R1A@?0A@EA@CSPEvent@@8 DD FLAT:??_R0?AVCSPEvent@@@8	; CSPEvent::`RTTI Base Class Descriptor at (0,-1,0,64)'
	DD	00H
	DD	00H
	DD	0ffffffffH
	DD	00H
	DD	040H
	DD	FLAT:??_R3CSPEvent@@8
rdata$r	ENDS
;	COMDAT ??_R2CSPEvent@@8
rdata$r	SEGMENT
??_R2CSPEvent@@8 DD FLAT:??_R1A@?0A@EA@CSPEvent@@8	; CSPEvent::`RTTI Base Class Array'
rdata$r	ENDS
;	COMDAT ??_R3CSPEvent@@8
rdata$r	SEGMENT
??_R3CSPEvent@@8 DD 00H					; CSPEvent::`RTTI Class Hierarchy Descriptor'
	DD	00H
	DD	01H
	DD	FLAT:??_R2CSPEvent@@8
rdata$r	ENDS
;	COMDAT ??_R0?AVCSPEvent@@@8
data$rs	SEGMENT
??_R0?AVCSPEvent@@@8 DD FLAT:??_7type_info@@6B@		; CSPEvent `RTTI Type Descriptor'
	DD	00H
	DB	'.?AVCSPEvent@@', 00H
data$rs	ENDS
;	COMDAT ??_R4CSPEvent@@6B@
rdata$r	SEGMENT
??_R4CSPEvent@@6B@ DD 00H				; CSPEvent::`RTTI Complete Object Locator'
	DD	00H
	DD	00H
	DD	FLAT:??_R0?AVCSPEvent@@@8
	DD	FLAT:??_R3CSPEvent@@8
rdata$r	ENDS
;	COMDAT ??_C@_0O@NKNMEGII@list?5too?5long@
CONST	SEGMENT
??_C@_0O@NKNMEGII@list?5too?5long@ DB 'list too long', 00H ; `string'
CONST	ENDS
;	COMDAT ??_C@_0DK@PJCDFLMA@spawn?3?5type?5?$DN?5?$CFd?0?5index?5?$DN?5?$CFd?0?5w@
CONST	SEGMENT
??_C@_0DK@PJCDFLMA@spawn?3?5type?5?$DN?5?$CFd?0?5index?5?$DN?5?$CFd?0?5w@ DB 's'
	DB	'pawn: type = %d, index = %d, world = %d, x = %f, z = %f', 0aH
	DB	00H						; `string'
CONST	ENDS
;	COMDAT ??_C@_0DM@PNNFMCGB@m_dwFlag?$DN0x?$CF08x?0?5nId?$DN?$CFd?0?5tStart@
CONST	SEGMENT
??_C@_0DM@PNNFMCGB@m_dwFlag?$DN0x?$CF08x?0?5nId?$DN?$CFd?0?5tStart@ DB 'm'
	DB	'_dwFlag=0x%08x, nId=%d, tStart=%d, tEnd=%d, t=%d, nFlag=%d', 00H ; `string'
CONST	ENDS
;	COMDAT ??_C@_05BEKPGMFA@Spawn@
CONST	SEGMENT
??_C@_05BEKPGMFA@Spawn@ DB 'Spawn', 00H			; `string'
CONST	ENDS
;	COMDAT ??_C@_0O@NDHJHAFN@fItemDropRate@
CONST	SEGMENT
??_C@_0O@NDHJHAFN@fItemDropRate@ DB 'fItemDropRate', 00H ; `string'
CONST	ENDS
;	COMDAT ??_C@_0L@DDJPBPFC@fExpFactor@
CONST	SEGMENT
??_C@_0L@DDJPBPFC@fExpFactor@ DB 'fExpFactor', 00H	; `string'
CONST	ENDS
;	COMDAT ??_C@_04BGCMBJDA@Item@
CONST	SEGMENT
??_C@_04BGCMBJDA@Item@ DB 'Item', 00H			; `string'
CONST	ENDS
;	COMDAT ??_C@_04OKOFBOPB@Time@
CONST	SEGMENT
??_C@_04OKOFBOPB@Time@ DB 'Time', 00H			; `string'
CONST	ENDS
;	COMDAT ??_C@_01BJJEKLCA@?$CC@
CONST	SEGMENT
??_C@_01BJJEKLCA@?$CC@ DB '"', 00H			; `string'
CONST	ENDS
;	COMDAT ??_C@_05PABKJLOM@Title@
CONST	SEGMENT
??_C@_05PABKJLOM@Title@ DB 'Title', 00H			; `string'
CONST	ENDS
;	COMDAT ??_C@_05GCNIINAF@Event@
CONST	SEGMENT
??_C@_05GCNIINAF@Event@ DB 'Event', 00H			; `string'
CONST	ENDS
;	COMDAT ?s_anHour@?1???0CEventItem@@QAE@KHH@Z@4PAHA
_DATA	SEGMENT
?s_anHour@?1???0CEventItem@@QAE@KHH@Z@4PAHA DD 01f9H	; `CEventItem::CEventItem'::`2'::s_anHour
	DD	0199H
	DD	0144H
	DD	0118H
	DD	0dcH
	DD	0cbH
	DD	0caH
	DD	0d4H
	DD	0e3H
	DD	0105H
	DD	012eH
	DD	015dH
	DD	023bH
	DD	02bdH
	DD	02fcH
	DD	0323H
	DD	0316H
	DD	0315H
	DD	02f2H
	DD	0351H
	DD	03a8H
	DD	03acH
	DD	0397H
	DD	02d0H
_DATA	ENDS
;	COMDAT ??_7CEventGeneric@@6B@
CONST	SEGMENT
??_7CEventGeneric@@6B@ DD FLAT:??_R4CEventGeneric@@6B@	; CEventGeneric::`vftable'
	DD	FLAT:??_ECEventGeneric@@UAEPAXI@Z
CONST	ENDS
;	COMDAT ??_7CSpawn@@6B@
CONST	SEGMENT
??_7CSpawn@@6B@ DD FLAT:??_R4CSpawn@@6B@		; CSpawn::`vftable'
	DD	FLAT:??_ECSpawn@@UAEPAXI@Z
CONST	ENDS
;	COMDAT ??_7CEventItem@@6B@
CONST	SEGMENT
??_7CEventItem@@6B@ DD FLAT:??_R4CEventItem@@6B@	; CEventItem::`vftable'
	DD	FLAT:??_ECEventItem@@UAEPAXI@Z
CONST	ENDS
;	COMDAT ??_7CXMasEvent@@6B@
CONST	SEGMENT
??_7CXMasEvent@@6B@ DD FLAT:??_R4CXMasEvent@@6B@	; CXMasEvent::`vftable'
	DD	FLAT:??_ECXMasEvent@@UAEPAXI@Z
CONST	ENDS
;	COMDAT ??_7CSPEvent@@6B@
CONST	SEGMENT
??_7CSPEvent@@6B@ DD FLAT:??_R4CSPEvent@@6B@		; CSPEvent::`vftable'
	DD	FLAT:??_ECSPEvent@@UAEPAXI@Z
CONST	ENDS
;	COMDAT ??_R4bad_alloc@std@@6B@
rdata$r	SEGMENT
??_R4bad_alloc@std@@6B@ DD 00H				; std::bad_alloc::`RTTI Complete Object Locator'
	DD	00H
	DD	00H
	DD	FLAT:??_R0?AVbad_alloc@std@@@8
	DD	FLAT:??_R3bad_alloc@std@@8
rdata$r	ENDS
;	COMDAT ??_R2bad_alloc@std@@8
rdata$r	SEGMENT
??_R2bad_alloc@std@@8 DD FLAT:??_R1A@?0A@EA@bad_alloc@std@@8 ; std::bad_alloc::`RTTI Base Class Array'
	DD	FLAT:??_R1A@?0A@EA@exception@std@@8
rdata$r	ENDS
;	COMDAT ??_R3bad_alloc@std@@8
rdata$r	SEGMENT
??_R3bad_alloc@std@@8 DD 00H				; std::bad_alloc::`RTTI Class Hierarchy Descriptor'
	DD	00H
	DD	02H
	DD	FLAT:??_R2bad_alloc@std@@8
rdata$r	ENDS
;	COMDAT ??_R1A@?0A@EA@bad_alloc@std@@8
rdata$r	SEGMENT
??_R1A@?0A@EA@bad_alloc@std@@8 DD FLAT:??_R0?AVbad_alloc@std@@@8 ; std::bad_alloc::`RTTI Base Class Descriptor at (0,-1,0,64)'
	DD	01H
	DD	00H
	DD	0ffffffffH
	DD	00H
	DD	040H
	DD	FLAT:??_R3bad_alloc@std@@8
rdata$r	ENDS
;	COMDAT ??_R1A@?0A@EA@bad_array_new_length@std@@8
rdata$r	SEGMENT
??_R1A@?0A@EA@bad_array_new_length@std@@8 DD FLAT:??_R0?AVbad_array_new_length@std@@@8 ; std::bad_array_new_length::`RTTI Base Class Descriptor at (0,-1,0,64)'
	DD	02H
	DD	00H
	DD	0ffffffffH
	DD	00H
	DD	040H
	DD	FLAT:??_R3bad_array_new_length@std@@8
rdata$r	ENDS
;	COMDAT ??_R2bad_array_new_length@std@@8
rdata$r	SEGMENT
??_R2bad_array_new_length@std@@8 DD FLAT:??_R1A@?0A@EA@bad_array_new_length@std@@8 ; std::bad_array_new_length::`RTTI Base Class Array'
	DD	FLAT:??_R1A@?0A@EA@bad_alloc@std@@8
	DD	FLAT:??_R1A@?0A@EA@exception@std@@8
rdata$r	ENDS
;	COMDAT ??_R3bad_array_new_length@std@@8
rdata$r	SEGMENT
??_R3bad_array_new_length@std@@8 DD 00H			; std::bad_array_new_length::`RTTI Class Hierarchy Descriptor'
	DD	00H
	DD	03H
	DD	FLAT:??_R2bad_array_new_length@std@@8
rdata$r	ENDS
;	COMDAT ??_R4bad_array_new_length@std@@6B@
rdata$r	SEGMENT
??_R4bad_array_new_length@std@@6B@ DD 00H		; std::bad_array_new_length::`RTTI Complete Object Locator'
	DD	00H
	DD	00H
	DD	FLAT:??_R0?AVbad_array_new_length@std@@@8
	DD	FLAT:??_R3bad_array_new_length@std@@8
rdata$r	ENDS
;	COMDAT ??_R1A@?0A@EA@exception@std@@8
rdata$r	SEGMENT
??_R1A@?0A@EA@exception@std@@8 DD FLAT:??_R0?AVexception@std@@@8 ; std::exception::`RTTI Base Class Descriptor at (0,-1,0,64)'
	DD	00H
	DD	00H
	DD	0ffffffffH
	DD	00H
	DD	040H
	DD	FLAT:??_R3exception@std@@8
rdata$r	ENDS
;	COMDAT ??_R2exception@std@@8
rdata$r	SEGMENT
??_R2exception@std@@8 DD FLAT:??_R1A@?0A@EA@exception@std@@8 ; std::exception::`RTTI Base Class Array'
rdata$r	ENDS
;	COMDAT ??_R3exception@std@@8
rdata$r	SEGMENT
??_R3exception@std@@8 DD 00H				; std::exception::`RTTI Class Hierarchy Descriptor'
	DD	00H
	DD	01H
	DD	FLAT:??_R2exception@std@@8
rdata$r	ENDS
;	COMDAT ??_R4exception@std@@6B@
rdata$r	SEGMENT
??_R4exception@std@@6B@ DD 00H				; std::exception::`RTTI Complete Object Locator'
	DD	00H
	DD	00H
	DD	FLAT:??_R0?AVexception@std@@@8
	DD	FLAT:??_R3exception@std@@8
rdata$r	ENDS
;	COMDAT ??_C@_0BA@FOIKENOD@vector?5too?5long@
CONST	SEGMENT
??_C@_0BA@FOIKENOD@vector?5too?5long@ DB 'vector too long', 00H ; `string'
CONST	ENDS
;	COMDAT ??_C@_0BI@BEIFNGEL@GetItemProp?5range_error@
CONST	SEGMENT
??_C@_0BI@BEIFNGEL@GetItemProp?5range_error@ DB 'GetItemProp range_error', 00H ; `string'
CONST	ENDS
;	COMDAT ??_C@_0BM@HMFGHCP@?$CFs?5min?3?$CFd?0?5max?3?$CFd?0?5index?3?$CFd@
CONST	SEGMENT
??_C@_0BM@HMFGHCP@?$CFs?5min?3?$CFd?0?5max?3?$CFd?0?5index?3?$CFd@ DB '%s'
	DB	' min:%d, max:%d, index:%d', 00H		; `string'
CONST	ENDS
;	COMDAT ??_C@_0BB@GCADKGJO@map?1set?5too?5long@
CONST	SEGMENT
??_C@_0BB@GCADKGJO@map?1set?5too?5long@ DB 'map/set too long', 00H ; `string'
CONST	ENDS
;	COMDAT __CT??_R0?AVbad_alloc@std@@@8??0bad_alloc@std@@QAE@ABV01@@Z12
xdata$x	SEGMENT
__CT??_R0?AVbad_alloc@std@@@8??0bad_alloc@std@@QAE@ABV01@@Z12 DD 010H
	DD	FLAT:??_R0?AVbad_alloc@std@@@8
	DD	00H
	DD	0ffffffffH
	ORG $+4
	DD	0cH
	DD	FLAT:??0bad_alloc@std@@QAE@ABV01@@Z
xdata$x	ENDS
;	COMDAT ??_R0?AVbad_alloc@std@@@8
data$r	SEGMENT
??_R0?AVbad_alloc@std@@@8 DD FLAT:??_7type_info@@6B@	; std::bad_alloc `RTTI Type Descriptor'
	DD	00H
	DB	'.?AVbad_alloc@std@@', 00H
data$r	ENDS
;	COMDAT __CT??_R0?AVbad_array_new_length@std@@@8??0bad_array_new_length@std@@QAE@ABV01@@Z12
xdata$x	SEGMENT
__CT??_R0?AVbad_array_new_length@std@@@8??0bad_array_new_length@std@@QAE@ABV01@@Z12 DD 00H
	DD	FLAT:??_R0?AVbad_array_new_length@std@@@8
	DD	00H
	DD	0ffffffffH
	ORG $+4
	DD	0cH
	DD	FLAT:??0bad_array_new_length@std@@QAE@ABV01@@Z
xdata$x	ENDS
;	COMDAT ??_R0?AVbad_array_new_length@std@@@8
data$r	SEGMENT
??_R0?AVbad_array_new_length@std@@@8 DD FLAT:??_7type_info@@6B@ ; std::bad_array_new_length `RTTI Type Descriptor'
	DD	00H
	DB	'.?AVbad_array_new_length@std@@', 00H
data$r	ENDS
;	COMDAT __CTA3?AVbad_array_new_length@std@@
xdata$x	SEGMENT
__CTA3?AVbad_array_new_length@std@@ DD 03H
	DD	FLAT:__CT??_R0?AVbad_array_new_length@std@@@8??0bad_array_new_length@std@@QAE@ABV01@@Z12
	DD	FLAT:__CT??_R0?AVbad_alloc@std@@@8??0bad_alloc@std@@QAE@ABV01@@Z12
	DD	FLAT:__CT??_R0?AVexception@std@@@8??0exception@std@@QAE@ABV01@@Z12
xdata$x	ENDS
;	COMDAT __TI3?AVbad_array_new_length@std@@
xdata$x	SEGMENT
__TI3?AVbad_array_new_length@std@@ DD 00H
	DD	FLAT:??1bad_array_new_length@std@@UAE@XZ
	DD	00H
	DD	FLAT:__CTA3?AVbad_array_new_length@std@@
xdata$x	ENDS
;	COMDAT __CT??_R0?AVexception@std@@@8??0exception@std@@QAE@ABV01@@Z12
xdata$x	SEGMENT
__CT??_R0?AVexception@std@@@8??0exception@std@@QAE@ABV01@@Z12 DD 00H
	DD	FLAT:??_R0?AVexception@std@@@8
	DD	00H
	DD	0ffffffffH
	ORG $+4
	DD	0cH
	DD	FLAT:??0exception@std@@QAE@ABV01@@Z
xdata$x	ENDS
;	COMDAT ??_R0?AVexception@std@@@8
data$r	SEGMENT
??_R0?AVexception@std@@@8 DD FLAT:??_7type_info@@6B@	; std::exception `RTTI Type Descriptor'
	DD	00H
	DB	'.?AVexception@std@@', 00H
data$r	ENDS
;	COMDAT ??_C@_0BF@KINCDENJ@bad?5array?5new?5length@
CONST	SEGMENT
??_C@_0BF@KINCDENJ@bad?5array?5new?5length@ DB 'bad array new length', 00H ; `string'
CONST	ENDS
;	COMDAT ??_7bad_array_new_length@std@@6B@
CONST	SEGMENT
??_7bad_array_new_length@std@@6B@ DD FLAT:??_R4bad_array_new_length@std@@6B@ ; std::bad_array_new_length::`vftable'
	DD	FLAT:??_Ebad_array_new_length@std@@UAEPAXI@Z
	DD	FLAT:?what@exception@std@@UBEPBDXZ
CONST	ENDS
;	COMDAT ??_7bad_alloc@std@@6B@
CONST	SEGMENT
??_7bad_alloc@std@@6B@ DD FLAT:??_R4bad_alloc@std@@6B@	; std::bad_alloc::`vftable'
	DD	FLAT:??_Ebad_alloc@std@@UAEPAXI@Z
	DD	FLAT:?what@exception@std@@UBEPBDXZ
CONST	ENDS
;	COMDAT ??_C@_0BC@EOODALEL@Unknown?5exception@
CONST	SEGMENT
??_C@_0BC@EOODALEL@Unknown?5exception@ DB 'Unknown exception', 00H ; `string'
CONST	ENDS
;	COMDAT ??_7exception@std@@6B@
CONST	SEGMENT
??_7exception@std@@6B@ DD FLAT:??_R4exception@std@@6B@	; std::exception::`vftable'
	DD	FLAT:??_Eexception@std@@UAEPAXI@Z
	DD	FLAT:?what@exception@std@@UBEPBDXZ
CONST	ENDS
;	COMDAT xdata$x
xdata$x	SEGMENT
__unwindtable$??$?0ABQAU_EVENT_GENERIC@@@?$_List_node_emplace_op2@V?$allocator@U?$_List_node@PAU_EVENT_GENERIC@@PAX@std@@@std@@@std@@QAE@AAV?$allocator@U?$_List_node@PAU_EVENT_GENERIC@@PAX@std@@@1@ABQAU_EVENT_GENERIC@@@Z DD 0ffffffffH
	DD	FLAT:__unwindfunclet$??$?0ABQAU_EVENT_GENERIC@@@?$_List_node_emplace_op2@V?$allocator@U?$_List_node@PAU_EVENT_GENERIC@@PAX@std@@@std@@@std@@QAE@AAV?$allocator@U?$_List_node@PAU_EVENT_GENERIC@@PAX@std@@@1@ABQAU_EVENT_GENERIC@@@Z$0
__ehfuncinfo$??$?0ABQAU_EVENT_GENERIC@@@?$_List_node_emplace_op2@V?$allocator@U?$_List_node@PAU_EVENT_GENERIC@@PAX@std@@@std@@@std@@QAE@AAV?$allocator@U?$_List_node@PAU_EVENT_GENERIC@@PAX@std@@@1@ABQAU_EVENT_GENERIC@@@Z DD 019930522H
	DD	01H
	DD	FLAT:__unwindtable$??$?0ABQAU_EVENT_GENERIC@@@?$_List_node_emplace_op2@V?$allocator@U?$_List_node@PAU_EVENT_GENERIC@@PAX@std@@@std@@@std@@QAE@AAV?$allocator@U?$_List_node@PAU_EVENT_GENERIC@@PAX@std@@@1@ABQAU_EVENT_GENERIC@@@Z
	DD	2 DUP(00H)
	DD	2 DUP(00H)
	DD	00H
	DD	01H
xdata$x	ENDS
;	COMDAT xdata$x
xdata$x	SEGMENT
__unwindtable$??$?0ABQAVCEventItem@@@?$_List_node_emplace_op2@V?$allocator@U?$_List_node@PAVCEventItem@@PAX@std@@@std@@@std@@QAE@AAV?$allocator@U?$_List_node@PAVCEventItem@@PAX@std@@@1@ABQAVCEventItem@@@Z DD 0ffffffffH
	DD	FLAT:__unwindfunclet$??$?0ABQAVCEventItem@@@?$_List_node_emplace_op2@V?$allocator@U?$_List_node@PAVCEventItem@@PAX@std@@@std@@@std@@QAE@AAV?$allocator@U?$_List_node@PAVCEventItem@@PAX@std@@@1@ABQAVCEventItem@@@Z$0
__ehfuncinfo$??$?0ABQAVCEventItem@@@?$_List_node_emplace_op2@V?$allocator@U?$_List_node@PAVCEventItem@@PAX@std@@@std@@@std@@QAE@AAV?$allocator@U?$_List_node@PAVCEventItem@@PAX@std@@@1@ABQAVCEventItem@@@Z DD 019930522H
	DD	01H
	DD	FLAT:__unwindtable$??$?0ABQAVCEventItem@@@?$_List_node_emplace_op2@V?$allocator@U?$_List_node@PAVCEventItem@@PAX@std@@@std@@@std@@QAE@AAV?$allocator@U?$_List_node@PAVCEventItem@@PAX@std@@@1@ABQAVCEventItem@@@Z
	DD	2 DUP(00H)
	DD	2 DUP(00H)
	DD	00H
	DD	01H
xdata$x	ENDS
;	COMDAT xdata$x
xdata$x	SEGMENT
__unwindtable$??$?0U?$pair@$$CBHPAVCSpawn@@@std@@@?$_Tree_temp_node@V?$allocator@U?$_Tree_node@U?$pair@$$CBHPAVCSpawn@@@std@@PAX@std@@@std@@@std@@QAE@AAV?$allocator@U?$_Tree_node@U?$pair@$$CBHPAVCSpawn@@@std@@PAX@std@@@1@PAU?$_Tree_node@U?$pair@$$CBHPAVCSpawn@@@std@@PAX@1@$$QAU?$pair@$$CBHPAVCSpawn@@@1@@Z DD 0ffffffffH
	DD	FLAT:__unwindfunclet$??$?0U?$pair@$$CBHPAVCSpawn@@@std@@@?$_Tree_temp_node@V?$allocator@U?$_Tree_node@U?$pair@$$CBHPAVCSpawn@@@std@@PAX@std@@@std@@@std@@QAE@AAV?$allocator@U?$_Tree_node@U?$pair@$$CBHPAVCSpawn@@@std@@PAX@std@@@1@PAU?$_Tree_node@U?$pair@$$CBHPAVCSpawn@@@std@@PAX@1@$$QAU?$pair@$$CBHPAVCSpawn@@@1@@Z$1
__ehfuncinfo$??$?0U?$pair@$$CBHPAVCSpawn@@@std@@@?$_Tree_temp_node@V?$allocator@U?$_Tree_node@U?$pair@$$CBHPAVCSpawn@@@std@@PAX@std@@@std@@@std@@QAE@AAV?$allocator@U?$_Tree_node@U?$pair@$$CBHPAVCSpawn@@@std@@PAX@std@@@1@PAU?$_Tree_node@U?$pair@$$CBHPAVCSpawn@@@std@@PAX@1@$$QAU?$pair@$$CBHPAVCSpawn@@@1@@Z DD 019930522H
	DD	01H
	DD	FLAT:__unwindtable$??$?0U?$pair@$$CBHPAVCSpawn@@@std@@@?$_Tree_temp_node@V?$allocator@U?$_Tree_node@U?$pair@$$CBHPAVCSpawn@@@std@@PAX@std@@@std@@@std@@QAE@AAV?$allocator@U?$_Tree_node@U?$pair@$$CBHPAVCSpawn@@@std@@PAX@std@@@1@PAU?$_Tree_node@U?$pair@$$CBHPAVCSpawn@@@std@@PAX@1@$$QAU?$pair@$$CBHPAVCSpawn@@@1@@Z
	DD	2 DUP(00H)
	DD	2 DUP(00H)
	DD	00H
	DD	01H
xdata$x	ENDS
;	COMDAT xdata$x
xdata$x	SEGMENT
__unwindtable$??0?$_Tree_temp_node_alloc@V?$allocator@U?$_Tree_node@U?$pair@$$CBHPAVCSpawn@@@std@@PAX@std@@@std@@@std@@QAE@AAV?$allocator@U?$_Tree_node@U?$pair@$$CBHPAVCSpawn@@@std@@PAX@std@@@1@@Z DD 0ffffffffH
	DD	FLAT:__unwindfunclet$??0?$_Tree_temp_node_alloc@V?$allocator@U?$_Tree_node@U?$pair@$$CBHPAVCSpawn@@@std@@PAX@std@@@std@@@std@@QAE@AAV?$allocator@U?$_Tree_node@U?$pair@$$CBHPAVCSpawn@@@std@@PAX@std@@@1@@Z$0
__ehfuncinfo$??0?$_Tree_temp_node_alloc@V?$allocator@U?$_Tree_node@U?$pair@$$CBHPAVCSpawn@@@std@@PAX@std@@@std@@@std@@QAE@AAV?$allocator@U?$_Tree_node@U?$pair@$$CBHPAVCSpawn@@@std@@PAX@std@@@1@@Z DD 019930522H
	DD	01H
	DD	FLAT:__unwindtable$??0?$_Tree_temp_node_alloc@V?$allocator@U?$_Tree_node@U?$pair@$$CBHPAVCSpawn@@@std@@PAX@std@@@std@@@std@@QAE@AAV?$allocator@U?$_Tree_node@U?$pair@$$CBHPAVCSpawn@@@std@@PAX@std@@@1@@Z
	DD	2 DUP(00H)
	DD	2 DUP(00H)
	DD	00H
	DD	01H
xdata$x	ENDS
;	COMDAT xdata$x
xdata$x	SEGMENT
__unwindtable$??$?0U?$pair@$$CBHPAV?$list@PAVCEventItem@@V?$allocator@PAVCEventItem@@@std@@@std@@@std@@@?$_Tree_temp_node@V?$allocator@U?$_Tree_node@U?$pair@$$CBHPAV?$list@PAVCEventItem@@V?$allocator@PAVCEventItem@@@std@@@std@@@std@@PAX@std@@@std@@@std@@QAE@AAV?$allocator@U?$_Tree_node@U?$pair@$$CBHPAV?$list@PAVCEventItem@@V?$allocator@PAVCEventItem@@@std@@@std@@@std@@PAX@std@@@1@PAU?$_Tree_node@U?$pair@$$CBHPAV?$list@PAVCEventItem@@V?$allocator@PAVCEventItem@@@std@@@std@@@std@@PAX@1@$$QAU?$pair@$$CBHPAV?$list@PAVCEventItem@@V?$allocator@PAVCEventItem@@@std@@@std@@@1@@Z DD 0ffffffffH
	DD	FLAT:__unwindfunclet$??$?0U?$pair@$$CBHPAV?$list@PAVCEventItem@@V?$allocator@PAVCEventItem@@@std@@@std@@@std@@@?$_Tree_temp_node@V?$allocator@U?$_Tree_node@U?$pair@$$CBHPAV?$list@PAVCEventItem@@V?$allocator@PAVCEventItem@@@std@@@std@@@std@@PAX@std@@@std@@@std@@QAE@AAV?$allocator@U?$_Tree_node@U?$pair@$$CBHPAV?$list@PAVCEventItem@@V?$allocator@PAVCEventItem@@@std@@@std@@@std@@PAX@std@@@1@PAU?$_Tree_node@U?$pair@$$CBHPAV?$list@PAVCEventItem@@V?$allocator@PAVCEventItem@@@std@@@std@@@std@@PAX@1@$$QAU?$pair@$$CBHPAV?$list@PAVCEventItem@@V?$allocator@PAVCEventItem@@@std@@@std@@@1@@Z$1
__ehfuncinfo$??$?0U?$pair@$$CBHPAV?$list@PAVCEventItem@@V?$allocator@PAVCEventItem@@@std@@@std@@@std@@@?$_Tree_temp_node@V?$allocator@U?$_Tree_node@U?$pair@$$CBHPAV?$list@PAVCEventItem@@V?$allocator@PAVCEventItem@@@std@@@std@@@std@@PAX@std@@@std@@@std@@QAE@AAV?$allocator@U?$_Tree_node@U?$pair@$$CBHPAV?$list@PAVCEventItem@@V?$allocator@PAVCEventItem@@@std@@@std@@@std@@PAX@std@@@1@PAU?$_Tree_node@U?$pair@$$CBHPAV?$list@PAVCEventItem@@V?$allocator@PAVCEventItem@@@std@@@std@@@std@@PAX@1@$$QAU?$pair@$$CBHPAV?$list@PAVCEventItem@@V?$allocator@PAVCEventItem@@@std@@@std@@@1@@Z DD 019930522H
	DD	01H
	DD	FLAT:__unwindtable$??$?0U?$pair@$$CBHPAV?$list@PAVCEventItem@@V?$allocator@PAVCEventItem@@@std@@@std@@@std@@@?$_Tree_temp_node@V?$allocator@U?$_Tree_node@U?$pair@$$CBHPAV?$list@PAVCEventItem@@V?$allocator@PAVCEventItem@@@std@@@std@@@std@@PAX@std@@@std@@@std@@QAE@AAV?$allocator@U?$_Tree_node@U?$pair@$$CBHPAV?$list@PAVCEventItem@@V?$allocator@PAVCEventItem@@@std@@@std@@@std@@PAX@std@@@1@PAU?$_Tree_node@U?$pair@$$CBHPAV?$list@PAVCEventItem@@V?$allocator@PAVCEventItem@@@std@@@std@@@std@@PAX@1@$$QAU?$pair@$$CBHPAV?$list@PAVCEventItem@@V?$allocator@PAVCEventItem@@@std@@@std@@@1@@Z
	DD	2 DUP(00H)
	DD	2 DUP(00H)
	DD	00H
	DD	01H
xdata$x	ENDS
;	COMDAT xdata$x
xdata$x	SEGMENT
__unwindtable$??0?$_Tree_temp_node_alloc@V?$allocator@U?$_Tree_node@U?$pair@$$CBHPAV?$list@PAVCEventItem@@V?$allocator@PAVCEventItem@@@std@@@std@@@std@@PAX@std@@@std@@@std@@QAE@AAV?$allocator@U?$_Tree_node@U?$pair@$$CBHPAV?$list@PAVCEventItem@@V?$allocator@PAVCEventItem@@@std@@@std@@@std@@PAX@std@@@1@@Z DD 0ffffffffH
	DD	FLAT:__unwindfunclet$??0?$_Tree_temp_node_alloc@V?$allocator@U?$_Tree_node@U?$pair@$$CBHPAV?$list@PAVCEventItem@@V?$allocator@PAVCEventItem@@@std@@@std@@@std@@PAX@std@@@std@@@std@@QAE@AAV?$allocator@U?$_Tree_node@U?$pair@$$CBHPAV?$list@PAVCEventItem@@V?$allocator@PAVCEventItem@@@std@@@std@@@std@@PAX@std@@@1@@Z$0
__ehfuncinfo$??0?$_Tree_temp_node_alloc@V?$allocator@U?$_Tree_node@U?$pair@$$CBHPAV?$list@PAVCEventItem@@V?$allocator@PAVCEventItem@@@std@@@std@@@std@@PAX@std@@@std@@@std@@QAE@AAV?$allocator@U?$_Tree_node@U?$pair@$$CBHPAV?$list@PAVCEventItem@@V?$allocator@PAVCEventItem@@@std@@@std@@@std@@PAX@std@@@1@@Z DD 019930522H
	DD	01H
	DD	FLAT:__unwindtable$??0?$_Tree_temp_node_alloc@V?$allocator@U?$_Tree_node@U?$pair@$$CBHPAV?$list@PAVCEventItem@@V?$allocator@PAVCEventItem@@@std@@@std@@@std@@PAX@std@@@std@@@std@@QAE@AAV?$allocator@U?$_Tree_node@U?$pair@$$CBHPAV?$list@PAVCEventItem@@V?$allocator@PAVCEventItem@@@std@@@std@@@std@@PAX@std@@@1@@Z
	DD	2 DUP(00H)
	DD	2 DUP(00H)
	DD	00H
	DD	01H
xdata$x	ENDS
;	COMDAT xdata$x
xdata$x	SEGMENT
__unwindtable$??$_Emplace@ABQAU_EVENT_GENERIC@@@?$list@PAU_EVENT_GENERIC@@V?$allocator@PAU_EVENT_GENERIC@@@std@@@std@@QAEPAU?$_List_node@PAU_EVENT_GENERIC@@PAX@1@QAU21@ABQAU_EVENT_GENERIC@@@Z DD 0ffffffffH
	DD	FLAT:__unwindfunclet$??$_Emplace@ABQAU_EVENT_GENERIC@@@?$list@PAU_EVENT_GENERIC@@V?$allocator@PAU_EVENT_GENERIC@@@std@@@std@@QAEPAU?$_List_node@PAU_EVENT_GENERIC@@PAX@1@QAU21@ABQAU_EVENT_GENERIC@@@Z$1
__ehfuncinfo$??$_Emplace@ABQAU_EVENT_GENERIC@@@?$list@PAU_EVENT_GENERIC@@V?$allocator@PAU_EVENT_GENERIC@@@std@@@std@@QAEPAU?$_List_node@PAU_EVENT_GENERIC@@PAX@1@QAU21@ABQAU_EVENT_GENERIC@@@Z DD 019930522H
	DD	01H
	DD	FLAT:__unwindtable$??$_Emplace@ABQAU_EVENT_GENERIC@@@?$list@PAU_EVENT_GENERIC@@V?$allocator@PAU_EVENT_GENERIC@@@std@@@std@@QAEPAU?$_List_node@PAU_EVENT_GENERIC@@PAX@1@QAU21@ABQAU_EVENT_GENERIC@@@Z
	DD	2 DUP(00H)
	DD	2 DUP(00H)
	DD	00H
	DD	01H
xdata$x	ENDS
;	COMDAT xdata$x
xdata$x	SEGMENT
__unwindtable$??$_Emplace@ABQAVCEventItem@@@?$list@PAVCEventItem@@V?$allocator@PAVCEventItem@@@std@@@std@@QAEPAU?$_List_node@PAVCEventItem@@PAX@1@QAU21@ABQAVCEventItem@@@Z DD 0ffffffffH
	DD	FLAT:__unwindfunclet$??$_Emplace@ABQAVCEventItem@@@?$list@PAVCEventItem@@V?$allocator@PAVCEventItem@@@std@@@std@@QAEPAU?$_List_node@PAVCEventItem@@PAX@1@QAU21@ABQAVCEventItem@@@Z$1
__ehfuncinfo$??$_Emplace@ABQAVCEventItem@@@?$list@PAVCEventItem@@V?$allocator@PAVCEventItem@@@std@@@std@@QAEPAU?$_List_node@PAVCEventItem@@PAX@1@QAU21@ABQAVCEventItem@@@Z DD 019930522H
	DD	01H
	DD	FLAT:__unwindtable$??$_Emplace@ABQAVCEventItem@@@?$list@PAVCEventItem@@V?$allocator@PAVCEventItem@@@std@@@std@@QAEPAU?$_List_node@PAVCEventItem@@PAX@1@QAU21@ABQAVCEventItem@@@Z
	DD	2 DUP(00H)
	DD	2 DUP(00H)
	DD	00H
	DD	01H
xdata$x	ENDS
;	COMDAT xdata$x
xdata$x	SEGMENT
__unwindtable$??$_Emplace@U?$pair@$$CBHPAVCSpawn@@@std@@@?$_Tree@V?$_Tmap_traits@HPAVCSpawn@@U?$less@H@std@@V?$allocator@U?$pair@$$CBHPAVCSpawn@@@std@@@3@$0A@@std@@@std@@IAE?AU?$pair@PAU?$_Tree_node@U?$pair@$$CBHPAVCSpawn@@@std@@PAX@std@@_N@1@$$QAU?$pair@$$CBHPAVCSpawn@@@1@@Z DD 0ffffffffH
	DD	FLAT:__unwindfunclet$??$_Emplace@U?$pair@$$CBHPAVCSpawn@@@std@@@?$_Tree@V?$_Tmap_traits@HPAVCSpawn@@U?$less@H@std@@V?$allocator@U?$pair@$$CBHPAVCSpawn@@@std@@@3@$0A@@std@@@std@@IAE?AU?$pair@PAU?$_Tree_node@U?$pair@$$CBHPAVCSpawn@@@std@@PAX@std@@_N@1@$$QAU?$pair@$$CBHPAVCSpawn@@@1@@Z$2
__ehfuncinfo$??$_Emplace@U?$pair@$$CBHPAVCSpawn@@@std@@@?$_Tree@V?$_Tmap_traits@HPAVCSpawn@@U?$less@H@std@@V?$allocator@U?$pair@$$CBHPAVCSpawn@@@std@@@3@$0A@@std@@@std@@IAE?AU?$pair@PAU?$_Tree_node@U?$pair@$$CBHPAVCSpawn@@@std@@PAX@std@@_N@1@$$QAU?$pair@$$CBHPAVCSpawn@@@1@@Z DD 019930522H
	DD	01H
	DD	FLAT:__unwindtable$??$_Emplace@U?$pair@$$CBHPAVCSpawn@@@std@@@?$_Tree@V?$_Tmap_traits@HPAVCSpawn@@U?$less@H@std@@V?$allocator@U?$pair@$$CBHPAVCSpawn@@@std@@@3@$0A@@std@@@std@@IAE?AU?$pair@PAU?$_Tree_node@U?$pair@$$CBHPAVCSpawn@@@std@@PAX@std@@_N@1@$$QAU?$pair@$$CBHPAVCSpawn@@@1@@Z
	DD	2 DUP(00H)
	DD	2 DUP(00H)
	DD	00H
	DD	01H
xdata$x	ENDS
;	COMDAT xdata$x
xdata$x	SEGMENT
__unwindtable$??$_Emplace@U?$pair@$$CBHPAV?$list@PAVCEventItem@@V?$allocator@PAVCEventItem@@@std@@@std@@@std@@@?$_Tree@V?$_Tmap_traits@HPAV?$list@PAVCEventItem@@V?$allocator@PAVCEventItem@@@std@@@std@@U?$less@H@2@V?$allocator@U?$pair@$$CBHPAV?$list@PAVCEventItem@@V?$allocator@PAVCEventItem@@@std@@@std@@@std@@@2@$0A@@std@@@std@@IAE?AU?$pair@PAU?$_Tree_node@U?$pair@$$CBHPAV?$list@PAVCEventItem@@V?$allocator@PAVCEventItem@@@std@@@std@@@std@@PAX@std@@_N@1@$$QAU?$pair@$$CBHPAV?$list@PAVCEventItem@@V?$allocator@PAVCEventItem@@@std@@@std@@@1@@Z DD 0ffffffffH
	DD	FLAT:__unwindfunclet$??$_Emplace@U?$pair@$$CBHPAV?$list@PAVCEventItem@@V?$allocator@PAVCEventItem@@@std@@@std@@@std@@@?$_Tree@V?$_Tmap_traits@HPAV?$list@PAVCEventItem@@V?$allocator@PAVCEventItem@@@std@@@std@@U?$less@H@2@V?$allocator@U?$pair@$$CBHPAV?$list@PAVCEventItem@@V?$allocator@PAVCEventItem@@@std@@@std@@@std@@@2@$0A@@std@@@std@@IAE?AU?$pair@PAU?$_Tree_node@U?$pair@$$CBHPAV?$list@PAVCEventItem@@V?$allocator@PAVCEventItem@@@std@@@std@@@std@@PAX@std@@_N@1@$$QAU?$pair@$$CBHPAV?$list@PAVCEventItem@@V?$allocator@PAVCEventItem@@@std@@@std@@@1@@Z$2
__ehfuncinfo$??$_Emplace@U?$pair@$$CBHPAV?$list@PAVCEventItem@@V?$allocator@PAVCEventItem@@@std@@@std@@@std@@@?$_Tree@V?$_Tmap_traits@HPAV?$list@PAVCEventItem@@V?$allocator@PAVCEventItem@@@std@@@std@@U?$less@H@2@V?$allocator@U?$pair@$$CBHPAV?$list@PAVCEventItem@@V?$allocator@PAVCEventItem@@@std@@@std@@@std@@@2@$0A@@std@@@std@@IAE?AU?$pair@PAU?$_Tree_node@U?$pair@$$CBHPAV?$list@PAVCEventItem@@V?$allocator@PAVCEventItem@@@std@@@std@@@std@@PAX@std@@_N@1@$$QAU?$pair@$$CBHPAV?$list@PAVCEventItem@@V?$allocator@PAVCEventItem@@@std@@@std@@@1@@Z DD 019930522H
	DD	01H
	DD	FLAT:__unwindtable$??$_Emplace@U?$pair@$$CBHPAV?$list@PAVCEventItem@@V?$allocator@PAVCEventItem@@@std@@@std@@@std@@@?$_Tree@V?$_Tmap_traits@HPAV?$list@PAVCEventItem@@V?$allocator@PAVCEventItem@@@std@@@std@@U?$less@H@2@V?$allocator@U?$pair@$$CBHPAV?$list@PAVCEventItem@@V?$allocator@PAVCEventItem@@@std@@@std@@@std@@@2@$0A@@std@@@std@@IAE?AU?$pair@PAU?$_Tree_node@U?$pair@$$CBHPAV?$list@PAVCEventItem@@V?$allocator@PAVCEventItem@@@std@@@std@@@std@@PAX@std@@_N@1@$$QAU?$pair@$$CBHPAV?$list@PAVCEventItem@@V?$allocator@PAVCEventItem@@@std@@@std@@@1@@Z
	DD	2 DUP(00H)
	DD	2 DUP(00H)
	DD	00H
	DD	01H
xdata$x	ENDS
;	COMDAT xdata$x
xdata$x	SEGMENT
__unwindtable$??$insert@$0A@$0A@@?$_Tree@V?$_Tmap_traits@HPAVCSpawn@@U?$less@H@std@@V?$allocator@U?$pair@$$CBHPAVCSpawn@@@std@@@3@$0A@@std@@@std@@QAE?AU?$pair@V?$_Tree_iterator@V?$_Tree_val@U?$_Tree_simple_types@U?$pair@$$CBHPAVCSpawn@@@std@@@std@@@std@@@std@@_N@1@$$QAU?$pair@$$CBHPAVCSpawn@@@1@@Z DD 0ffffffffH
	DD	FLAT:__unwindfunclet$??$insert@$0A@$0A@@?$_Tree@V?$_Tmap_traits@HPAVCSpawn@@U?$less@H@std@@V?$allocator@U?$pair@$$CBHPAVCSpawn@@@std@@@3@$0A@@std@@@std@@QAE?AU?$pair@V?$_Tree_iterator@V?$_Tree_val@U?$_Tree_simple_types@U?$pair@$$CBHPAVCSpawn@@@std@@@std@@@std@@@std@@_N@1@$$QAU?$pair@$$CBHPAVCSpawn@@@1@@Z$2
__ehfuncinfo$??$insert@$0A@$0A@@?$_Tree@V?$_Tmap_traits@HPAVCSpawn@@U?$less@H@std@@V?$allocator@U?$pair@$$CBHPAVCSpawn@@@std@@@3@$0A@@std@@@std@@QAE?AU?$pair@V?$_Tree_iterator@V?$_Tree_val@U?$_Tree_simple_types@U?$pair@$$CBHPAVCSpawn@@@std@@@std@@@std@@@std@@_N@1@$$QAU?$pair@$$CBHPAVCSpawn@@@1@@Z DD 019930522H
	DD	01H
	DD	FLAT:__unwindtable$??$insert@$0A@$0A@@?$_Tree@V?$_Tmap_traits@HPAVCSpawn@@U?$less@H@std@@V?$allocator@U?$pair@$$CBHPAVCSpawn@@@std@@@3@$0A@@std@@@std@@QAE?AU?$pair@V?$_Tree_iterator@V?$_Tree_val@U?$_Tree_simple_types@U?$pair@$$CBHPAVCSpawn@@@std@@@std@@@std@@@std@@_N@1@$$QAU?$pair@$$CBHPAVCSpawn@@@1@@Z
	DD	2 DUP(00H)
	DD	2 DUP(00H)
	DD	00H
	DD	01H
xdata$x	ENDS
;	COMDAT xdata$x
xdata$x	SEGMENT
__unwindtable$??$insert@$0A@$0A@@?$_Tree@V?$_Tmap_traits@HPAV?$list@PAVCEventItem@@V?$allocator@PAVCEventItem@@@std@@@std@@U?$less@H@2@V?$allocator@U?$pair@$$CBHPAV?$list@PAVCEventItem@@V?$allocator@PAVCEventItem@@@std@@@std@@@std@@@2@$0A@@std@@@std@@QAE?AU?$pair@V?$_Tree_iterator@V?$_Tree_val@U?$_Tree_simple_types@U?$pair@$$CBHPAV?$list@PAVCEventItem@@V?$allocator@PAVCEventItem@@@std@@@std@@@std@@@std@@@std@@@std@@_N@1@$$QAU?$pair@$$CBHPAV?$list@PAVCEventItem@@V?$allocator@PAVCEventItem@@@std@@@std@@@1@@Z DD 0ffffffffH
	DD	FLAT:__unwindfunclet$??$insert@$0A@$0A@@?$_Tree@V?$_Tmap_traits@HPAV?$list@PAVCEventItem@@V?$allocator@PAVCEventItem@@@std@@@std@@U?$less@H@2@V?$allocator@U?$pair@$$CBHPAV?$list@PAVCEventItem@@V?$allocator@PAVCEventItem@@@std@@@std@@@std@@@2@$0A@@std@@@std@@QAE?AU?$pair@V?$_Tree_iterator@V?$_Tree_val@U?$_Tree_simple_types@U?$pair@$$CBHPAV?$list@PAVCEventItem@@V?$allocator@PAVCEventItem@@@std@@@std@@@std@@@std@@@std@@@std@@_N@1@$$QAU?$pair@$$CBHPAV?$list@PAVCEventItem@@V?$allocator@PAVCEventItem@@@std@@@std@@@1@@Z$2
__ehfuncinfo$??$insert@$0A@$0A@@?$_Tree@V?$_Tmap_traits@HPAV?$list@PAVCEventItem@@V?$allocator@PAVCEventItem@@@std@@@std@@U?$less@H@2@V?$allocator@U?$pair@$$CBHPAV?$list@PAVCEventItem@@V?$allocator@PAVCEventItem@@@std@@@std@@@std@@@2@$0A@@std@@@std@@QAE?AU?$pair@V?$_Tree_iterator@V?$_Tree_val@U?$_Tree_simple_types@U?$pair@$$CBHPAV?$list@PAVCEventItem@@V?$allocator@PAVCEventItem@@@std@@@std@@@std@@@std@@@std@@@std@@_N@1@$$QAU?$pair@$$CBHPAV?$list@PAVCEventItem@@V?$allocator@PAVCEventItem@@@std@@@std@@@1@@Z DD 019930522H
	DD	01H
	DD	FLAT:__unwindtable$??$insert@$0A@$0A@@?$_Tree@V?$_Tmap_traits@HPAV?$list@PAVCEventItem@@V?$allocator@PAVCEventItem@@@std@@@std@@U?$less@H@2@V?$allocator@U?$pair@$$CBHPAV?$list@PAVCEventItem@@V?$allocator@PAVCEventItem@@@std@@@std@@@std@@@2@$0A@@std@@@std@@QAE?AU?$pair@V?$_Tree_iterator@V?$_Tree_val@U?$_Tree_simple_types@U?$pair@$$CBHPAV?$list@PAVCEventItem@@V?$allocator@PAVCEventItem@@@std@@@std@@@std@@@std@@@std@@@std@@_N@1@$$QAU?$pair@$$CBHPAV?$list@PAVCEventItem@@V?$allocator@PAVCEventItem@@@std@@@std@@@1@@Z
	DD	2 DUP(00H)
	DD	2 DUP(00H)
	DD	00H
	DD	01H
xdata$x	ENDS
;	COMDAT xdata$x
xdata$x	SEGMENT
__unwindtable$?push_back@?$list@PAVCEventItem@@V?$allocator@PAVCEventItem@@@std@@@std@@QAEXABQAVCEventItem@@@Z DD 0ffffffffH
	DD	FLAT:__unwindfunclet$?push_back@?$list@PAVCEventItem@@V?$allocator@PAVCEventItem@@@std@@@std@@QAEXABQAVCEventItem@@@Z$1
__ehfuncinfo$?push_back@?$list@PAVCEventItem@@V?$allocator@PAVCEventItem@@@std@@@std@@QAEXABQAVCEventItem@@@Z DD 019930522H
	DD	01H
	DD	FLAT:__unwindtable$?push_back@?$list@PAVCEventItem@@V?$allocator@PAVCEventItem@@@std@@@std@@QAEXABQAVCEventItem@@@Z
	DD	2 DUP(00H)
	DD	2 DUP(00H)
	DD	00H
	DD	01H
xdata$x	ENDS
;	COMDAT xdata$x
xdata$x	SEGMENT
__unwindtable$?Serialize@CEventGeneric@@QAEXAAVCAr@@@Z DD 0ffffffffH
	DD	FLAT:__unwindfunclet$?Serialize@CEventGeneric@@QAEXAAVCAr@@@Z$12
	DD	0ffffffffH
	DD	FLAT:__unwindfunclet$?Serialize@CEventGeneric@@QAEXAAVCAr@@@Z$1
	DD	0ffffffffH
	DD	FLAT:__unwindfunclet$?Serialize@CEventGeneric@@QAEXAAVCAr@@@Z$8
	DD	0ffffffffH
	DD	FLAT:__unwindfunclet$?Serialize@CEventGeneric@@QAEXAAVCAr@@@Z$4
__ehfuncinfo$?Serialize@CEventGeneric@@QAEXAAVCAr@@@Z DD 019930522H
	DD	04H
	DD	FLAT:__unwindtable$?Serialize@CEventGeneric@@QAEXAAVCAr@@@Z
	DD	2 DUP(00H)
	DD	2 DUP(00H)
	DD	00H
	DD	01H
xdata$x	ENDS
;	COMDAT xdata$x
xdata$x	SEGMENT
__unwindtable$?GetInstance@CEventGeneric@@SAPAV1@XZ DD 0ffffffffH
	DD	FLAT:__unwindfunclet$?GetInstance@CEventGeneric@@SAPAV1@XZ$0
__ehfuncinfo$?GetInstance@CEventGeneric@@SAPAV1@XZ DD 019930522H
	DD	01H
	DD	FLAT:__unwindtable$?GetInstance@CEventGeneric@@SAPAV1@XZ
	DD	2 DUP(00H)
	DD	2 DUP(00H)
	DD	00H
	DD	01H
xdata$x	ENDS
;	COMDAT xdata$x
xdata$x	SEGMENT
__unwindtable$?Spawn@CEventGeneric@@QAEXXZ DD 0ffffffffH
	DD	FLAT:__unwindfunclet$?Spawn@CEventGeneric@@QAEXXZ$0
__ehfuncinfo$?Spawn@CEventGeneric@@QAEXXZ DD 019930522H
	DD	01H
	DD	FLAT:__unwindtable$?Spawn@CEventGeneric@@QAEXXZ
	DD	2 DUP(00H)
	DD	2 DUP(00H)
	DD	00H
	DD	01H
xdata$x	ENDS
;	COMDAT xdata$x
xdata$x	SEGMENT
__unwindtable$?AddSpawn@CEventGeneric@@QAEXHKKHMK@Z DD 0ffffffffH
	DD	FLAT:__unwindfunclet$?AddSpawn@CEventGeneric@@QAEXHKKHMK@Z$3
__ehfuncinfo$?AddSpawn@CEventGeneric@@QAEXHKKHMK@Z DD 019930522H
	DD	01H
	DD	FLAT:__unwindtable$?AddSpawn@CEventGeneric@@QAEXHKKHMK@Z
	DD	2 DUP(00H)
	DD	2 DUP(00H)
	DD	00H
	DD	01H
xdata$x	ENDS
;	COMDAT xdata$x
xdata$x	SEGMENT
__unwindtable$?AddItem@CEventGeneric@@QAEHHKHH@Z DD 0ffffffffH
	DD	FLAT:__unwindfunclet$?AddItem@CEventGeneric@@QAEHHKHH@Z$0
__ehfuncinfo$?AddItem@CEventGeneric@@QAEHHKHH@Z DD 019930522H
	DD	01H
	DD	FLAT:__unwindtable$?AddItem@CEventGeneric@@QAEHHKHH@Z
	DD	2 DUP(00H)
	DD	2 DUP(00H)
	DD	00H
	DD	01H
xdata$x	ENDS
;	COMDAT xdata$x
xdata$x	SEGMENT
__unwindtable$?LoadScript@CEventGeneric@@QAEHPBD@Z DD 0ffffffffH
	DD	FLAT:__unwindfunclet$?LoadScript@CEventGeneric@@QAEHPBD@Z$0
	DD	00H
	DD	FLAT:__unwindfunclet$?LoadScript@CEventGeneric@@QAEHPBD@Z$7
	DD	00H
	DD	FLAT:__unwindfunclet$?LoadScript@CEventGeneric@@QAEHPBD@Z$4
	DD	00H
	DD	FLAT:__unwindfunclet$?LoadScript@CEventGeneric@@QAEHPBD@Z$2
__ehfuncinfo$?LoadScript@CEventGeneric@@QAEHPBD@Z DD 019930522H
	DD	04H
	DD	FLAT:__unwindtable$?LoadScript@CEventGeneric@@QAEHPBD@Z
	DD	2 DUP(00H)
	DD	2 DUP(00H)
	DD	00H
	DD	01H
xdata$x	ENDS
;	COMDAT xdata$x
xdata$x	SEGMENT
__unwindtable$??0CEventGeneric@@QAE@XZ DD 0ffffffffH
	DD	FLAT:__unwindfunclet$??0CEventGeneric@@QAE@XZ$0
	DD	00H
	DD	FLAT:__unwindfunclet$??0CEventGeneric@@QAE@XZ$1
	DD	01H
	DD	FLAT:__unwindfunclet$??0CEventGeneric@@QAE@XZ$2
__ehfuncinfo$??0CEventGeneric@@QAE@XZ DD 019930522H
	DD	03H
	DD	FLAT:__unwindtable$??0CEventGeneric@@QAE@XZ
	DD	2 DUP(00H)
	DD	2 DUP(00H)
	DD	00H
	DD	01H
xdata$x	ENDS
;	COMDAT xdata$x
xdata$x	SEGMENT
__unwindtable$?push_back@?$list@PAU_EVENT_GENERIC@@V?$allocator@PAU_EVENT_GENERIC@@@std@@@std@@QAEXABQAU_EVENT_GENERIC@@@Z DD 0ffffffffH
	DD	FLAT:__unwindfunclet$?push_back@?$list@PAU_EVENT_GENERIC@@V?$allocator@PAU_EVENT_GENERIC@@@std@@@std@@QAEXABQAU_EVENT_GENERIC@@@Z$1
__ehfuncinfo$?push_back@?$list@PAU_EVENT_GENERIC@@V?$allocator@PAU_EVENT_GENERIC@@@std@@@std@@QAEXABQAU_EVENT_GENERIC@@@Z DD 019930522H
	DD	01H
	DD	FLAT:__unwindtable$?push_back@?$list@PAU_EVENT_GENERIC@@V?$allocator@PAU_EVENT_GENERIC@@@std@@@std@@QAEXABQAU_EVENT_GENERIC@@@Z
	DD	2 DUP(00H)
	DD	2 DUP(00H)
	DD	00H
	DD	01H
xdata$x	ENDS
;	COMDAT xdata$x
xdata$x	SEGMENT
__unwindtable$?LoadScript@CXMasEvent@@QAEHPBD@Z DD 0ffffffffH
	DD	FLAT:__unwindfunclet$?LoadScript@CXMasEvent@@QAEHPBD@Z$0
__ehfuncinfo$?LoadScript@CXMasEvent@@QAEHPBD@Z DD 019930522H
	DD	01H
	DD	FLAT:__unwindtable$?LoadScript@CXMasEvent@@QAEHPBD@Z
	DD	2 DUP(00H)
	DD	2 DUP(00H)
	DD	00H
	DD	01H
xdata$x	ENDS
;	COMDAT xdata$x
xdata$x	SEGMENT
__unwindtable$??0?$CStringT@DV?$StrTraitMFC@DV?$ChTraitsCRT@D@ATL@@@@@ATL@@QAE@PBD@Z DD 0ffffffffH
	DD	FLAT:__unwindfunclet$??0?$CStringT@DV?$StrTraitMFC@DV?$ChTraitsCRT@D@ATL@@@@@ATL@@QAE@PBD@Z$0
__ehfuncinfo$??0?$CStringT@DV?$StrTraitMFC@DV?$ChTraitsCRT@D@ATL@@@@@ATL@@QAE@PBD@Z DD 019930522H
	DD	01H
	DD	FLAT:__unwindtable$??0?$CStringT@DV?$StrTraitMFC@DV?$ChTraitsCRT@D@ATL@@@@@ATL@@QAE@PBD@Z
	DD	2 DUP(00H)
	DD	2 DUP(00H)
	DD	00H
	DD	01H
xdata$x	ENDS
; Function compile flags: /Ogtp
; File C:\Program Files\Microsoft Visual Studio\2022\Professional\VC\Tools\MSVC\14.44.35207\include\xutility
;	COMDAT ??$_Copy_memmove_tail@PAU_REGION_GENERIC@@@std@@YAPAU_REGION_GENERIC@@QBDQAU1@II@Z
_TEXT	SEGMENT
__First_ch$ = 8						; size = 4
__Dest$ = 12						; size = 4
__Byte_count$ = 16					; size = 4
__Object_count$ = 20					; size = 4
??$_Copy_memmove_tail@PAU_REGION_GENERIC@@@std@@YAPAU_REGION_GENERIC@@QBDQAU1@II@Z PROC ; std::_Copy_memmove_tail<_REGION_GENERIC *>, COMDAT

; 4747 :     const char* const _First_ch, const _OutCtgIt _Dest, const size_t _Byte_count, const size_t _Object_count) {

  00000	55		 push	 ebp
  00001	8b ec		 mov	 ebp, esp
  00003	56		 push	 esi

; 4748 :     _STL_INTERNAL_CHECK(_Byte_count == _Object_count * sizeof(*_Dest));
; 4749 :     const auto _Dest_ptr = _STD _To_address(_Dest);
; 4750 :     const auto _Dest_ch  = const_cast<char*>(reinterpret_cast<const volatile char*>(_Dest_ptr));
; 4751 :     _CSTD memmove(_Dest_ch, _First_ch, _Byte_count);

  00004	8b 75 0c	 mov	 esi, DWORD PTR __Dest$[ebp]
  00007	57		 push	 edi
  00008	8b 7d 10	 mov	 edi, DWORD PTR __Byte_count$[ebp]
  0000b	57		 push	 edi
  0000c	ff 75 08	 push	 DWORD PTR __First_ch$[ebp]
  0000f	56		 push	 esi
  00010	e8 00 00 00 00	 call	 _memmove
  00015	83 c4 0c	 add	 esp, 12			; 0000000cH

; 4752 :     if constexpr (is_pointer_v<_OutCtgIt>) {
; 4753 :         (void) _Object_count;
; 4754 :         // CodeQL [SM02986] This cast is correct: we're bypassing pointer arithmetic for performance.
; 4755 :         return reinterpret_cast<_OutCtgIt>(_Dest_ch + _Byte_count);

  00018	8d 04 3e	 lea	 eax, DWORD PTR [esi+edi]
  0001b	5f		 pop	 edi
  0001c	5e		 pop	 esi

; 4756 :     } else {
; 4757 :         return _Dest + static_cast<_Iter_diff_t<_OutCtgIt>>(_Object_count);
; 4758 :     }
; 4759 : }

  0001d	5d		 pop	 ebp
  0001e	c3		 ret	 0
??$_Copy_memmove_tail@PAU_REGION_GENERIC@@@std@@YAPAU_REGION_GENERIC@@QBDQAU1@II@Z ENDP ; std::_Copy_memmove_tail<_REGION_GENERIC *>
_TEXT	ENDS
; Function compile flags: /Ogtp
; File C:\Program Files\Microsoft Visual Studio\2022\Professional\VC\Tools\MSVC\14.44.35207\include\xutility
;	COMDAT ??$_Copy_memmove@PAU_REGION_GENERIC@@PAU1@@std@@YAPAU_REGION_GENERIC@@PAU1@00@Z
_TEXT	SEGMENT
__First$ = 8						; size = 4
__Last$ = 12						; size = 4
__Dest$ = 16						; size = 4
??$_Copy_memmove@PAU_REGION_GENERIC@@PAU1@@std@@YAPAU_REGION_GENERIC@@PAU1@00@Z PROC ; std::_Copy_memmove<_REGION_GENERIC *,_REGION_GENERIC *>, COMDAT

; 4762 : _OutCtgIt _Copy_memmove(_CtgIt _First, _CtgIt _Last, _OutCtgIt _Dest) {

  00000	55		 push	 ebp
  00001	8b ec		 mov	 ebp, esp

; 4763 :     _STL_INTERNAL_CHECK(_First <= _Last);
; 4764 :     const auto _First_ptr    = _STD _To_address(_First);
; 4765 :     const auto _Last_ptr     = _STD _To_address(_Last);
; 4766 :     const auto _Object_count = static_cast<size_t>(_Last_ptr - _First_ptr);

  00003	8b 4d 0c	 mov	 ecx, DWORD PTR __Last$[ebp]
  00006	b8 ab aa aa 2a	 mov	 eax, 715827883		; 2aaaaaabH
  0000b	2b 4d 08	 sub	 ecx, DWORD PTR __First$[ebp]
  0000e	f7 e9		 imul	 ecx
  00010	d1 fa		 sar	 edx, 1
  00012	8b c2		 mov	 eax, edx
  00014	c1 e8 1f	 shr	 eax, 31			; 0000001fH
  00017	03 c2		 add	 eax, edx

; 4767 :     const auto _First_ch     = const_cast<const char*>(reinterpret_cast<const volatile char*>(_First_ptr));
; 4768 :     const auto _Last_ch      = const_cast<const char*>(reinterpret_cast<const volatile char*>(_Last_ptr));
; 4769 :     const auto _Byte_count   = static_cast<size_t>(_Last_ch - _First_ch);
; 4770 :     return _STD _Copy_memmove_tail(_First_ch, _STD move(_Dest), _Byte_count, _Object_count);

  00019	50		 push	 eax
  0001a	51		 push	 ecx
  0001b	ff 75 10	 push	 DWORD PTR __Dest$[ebp]
  0001e	ff 75 08	 push	 DWORD PTR __First$[ebp]
  00021	e8 00 00 00 00	 call	 ??$_Copy_memmove_tail@PAU_REGION_GENERIC@@@std@@YAPAU_REGION_GENERIC@@QBDQAU1@II@Z ; std::_Copy_memmove_tail<_REGION_GENERIC *>
  00026	83 c4 10	 add	 esp, 16			; 00000010H

; 4771 : }

  00029	5d		 pop	 ebp
  0002a	c3		 ret	 0
??$_Copy_memmove@PAU_REGION_GENERIC@@PAU1@@std@@YAPAU_REGION_GENERIC@@PAU1@00@Z ENDP ; std::_Copy_memmove<_REGION_GENERIC *,_REGION_GENERIC *>
_TEXT	ENDS
; Function compile flags: /Ogtp
; File C:\Program Files\Microsoft Visual Studio\2022\Professional\VC\Tools\MSVC\14.44.35207\include\algorithm
; File C:\Program Files\Microsoft Visual Studio\2022\Professional\VC\Tools\MSVC\14.44.35207\include\utility
; File C:\Program Files\Microsoft Visual Studio\2022\Professional\VC\Tools\MSVC\14.44.35207\include\algorithm
; File C:\Program Files\Microsoft Visual Studio\2022\Professional\VC\Tools\MSVC\14.44.35207\include\utility
; File C:\Program Files\Microsoft Visual Studio\2022\Professional\VC\Tools\MSVC\14.44.35207\include\algorithm
; File C:\Program Files\Microsoft Visual Studio\2022\Professional\VC\Tools\MSVC\14.44.35207\include\utility
; File C:\Program Files\Microsoft Visual Studio\2022\Professional\VC\Tools\MSVC\14.44.35207\include\algorithm
; File C:\Program Files\Microsoft Visual Studio\2022\Professional\VC\Tools\MSVC\14.44.35207\include\utility
; File C:\Program Files\Microsoft Visual Studio\2022\Professional\VC\Tools\MSVC\14.44.35207\include\algorithm
; File C:\Program Files\Microsoft Visual Studio\2022\Professional\VC\Tools\MSVC\14.44.35207\include\utility
; File C:\Program Files\Microsoft Visual Studio\2022\Professional\VC\Tools\MSVC\14.44.35207\include\algorithm
; File C:\Program Files\Microsoft Visual Studio\2022\Professional\VC\Tools\MSVC\14.44.35207\include\utility
; File C:\Program Files\Microsoft Visual Studio\2022\Professional\VC\Tools\MSVC\14.44.35207\include\algorithm
;	COMDAT ??$_Med3_unchecked@PAU_REGION_GENERIC@@P6A_NU1@0@Z@std@@YAXPAU_REGION_GENERIC@@00P6A_NU1@1@Z@Z
_TEXT	SEGMENT
__First$ = 8						; size = 4
__Mid$ = 12						; size = 4
__Last$ = 16						; size = 4
__Pred$ = 20						; size = 4
??$_Med3_unchecked@PAU_REGION_GENERIC@@P6A_NU1@0@Z@std@@YAXPAU_REGION_GENERIC@@00P6A_NU1@1@Z@Z PROC ; std::_Med3_unchecked<_REGION_GENERIC *,bool (__cdecl*)(_REGION_GENERIC,_REGION_GENERIC)>, COMDAT

; 8266 : _CONSTEXPR20 void _Med3_unchecked(_RanIt _First, _RanIt _Mid, _RanIt _Last, _Pr _Pred) {

  00000	55		 push	 ebp
  00001	8b ec		 mov	 ebp, esp
  00003	53		 push	 ebx
  00004	56		 push	 esi

; 8267 :     // sort median of three elements to middle
; 8268 :     if (_DEBUG_LT_PRED(_Pred, *_Mid, *_First)) {

  00005	8b 75 0c	 mov	 esi, DWORD PTR __Mid$[ebp]
  00008	57		 push	 edi
  00009	8b 7d 08	 mov	 edi, DWORD PTR __First$[ebp]
  0000c	83 ec 0c	 sub	 esp, 12			; 0000000cH
  0000f	8b cc		 mov	 ecx, esp
  00011	83 ec 0c	 sub	 esp, 12			; 0000000cH
  00014	f3 0f 7e 07	 movq	 xmm0, QWORD PTR [edi]
  00018	8b 47 08	 mov	 eax, DWORD PTR [edi+8]
  0001b	66 0f d6 01	 movq	 QWORD PTR [ecx], xmm0
  0001f	f3 0f 7e 06	 movq	 xmm0, QWORD PTR [esi]
  00023	89 41 08	 mov	 DWORD PTR [ecx+8], eax
  00026	8b cc		 mov	 ecx, esp
  00028	8b 46 08	 mov	 eax, DWORD PTR [esi+8]
  0002b	66 0f d6 01	 movq	 QWORD PTR [ecx], xmm0
  0002f	89 41 08	 mov	 DWORD PTR [ecx+8], eax
  00032	ff 55 14	 call	 DWORD PTR __Pred$[ebp]
  00035	83 c4 18	 add	 esp, 24			; 00000018H
  00038	84 c0		 test	 al, al
  0003a	74 1c		 je	 SHORT $LN7@Med3_unche
; File C:\Program Files\Microsoft Visual Studio\2022\Professional\VC\Tools\MSVC\14.44.35207\include\utility

; 140  :     _Left    = _STD move(_Right);

  0003c	f3 0f 7e 07	 movq	 xmm0, QWORD PTR [edi]
  00040	f3 0f 7e 0e	 movq	 xmm1, QWORD PTR [esi]
  00044	8b 4e 08	 mov	 ecx, DWORD PTR [esi+8]
  00047	66 0f d6 06	 movq	 QWORD PTR [esi], xmm0
  0004b	8b 47 08	 mov	 eax, DWORD PTR [edi+8]
  0004e	89 46 08	 mov	 DWORD PTR [esi+8], eax

; 141  :     _Right   = _STD move(_Tmp);

  00051	66 0f d6 0f	 movq	 QWORD PTR [edi], xmm1
  00055	89 4f 08	 mov	 DWORD PTR [edi+8], ecx
$LN7@Med3_unche:
; File C:\Program Files\Microsoft Visual Studio\2022\Professional\VC\Tools\MSVC\14.44.35207\include\algorithm

; 8272 :     if (_DEBUG_LT_PRED(_Pred, *_Last, *_Mid)) { // swap middle and last, then test first again

  00058	f3 0f 7e 06	 movq	 xmm0, QWORD PTR [esi]
  0005c	83 ec 0c	 sub	 esp, 12			; 0000000cH
  0005f	8b 46 08	 mov	 eax, DWORD PTR [esi+8]
  00062	8b cc		 mov	 ecx, esp
  00064	8b 5d 10	 mov	 ebx, DWORD PTR __Last$[ebp]
  00067	83 ec 0c	 sub	 esp, 12			; 0000000cH
  0006a	66 0f d6 01	 movq	 QWORD PTR [ecx], xmm0
  0006e	f3 0f 7e 03	 movq	 xmm0, QWORD PTR [ebx]
  00072	89 41 08	 mov	 DWORD PTR [ecx+8], eax
  00075	8b cc		 mov	 ecx, esp
  00077	8b 43 08	 mov	 eax, DWORD PTR [ebx+8]
  0007a	66 0f d6 01	 movq	 QWORD PTR [ecx], xmm0
  0007e	89 41 08	 mov	 DWORD PTR [ecx+8], eax
  00081	ff 55 14	 call	 DWORD PTR __Pred$[ebp]
  00084	83 c4 18	 add	 esp, 24			; 00000018H
  00087	84 c0		 test	 al, al
  00089	74 61		 je	 SHORT $LN13@Med3_unche
; File C:\Program Files\Microsoft Visual Studio\2022\Professional\VC\Tools\MSVC\14.44.35207\include\utility

; 140  :     _Left    = _STD move(_Right);

  0008b	f3 0f 7e 06	 movq	 xmm0, QWORD PTR [esi]
; File C:\Program Files\Microsoft Visual Studio\2022\Professional\VC\Tools\MSVC\14.44.35207\include\algorithm

; 8275 :         if (_DEBUG_LT_PRED(_Pred, *_Mid, *_First)) {

  0008f	83 ec 0c	 sub	 esp, 12			; 0000000cH
; File C:\Program Files\Microsoft Visual Studio\2022\Professional\VC\Tools\MSVC\14.44.35207\include\utility

; 139  :     _Ty _Tmp = _STD move(_Left);

  00092	f3 0f 7e 0b	 movq	 xmm1, QWORD PTR [ebx]
; File C:\Program Files\Microsoft Visual Studio\2022\Professional\VC\Tools\MSVC\14.44.35207\include\algorithm

; 8275 :         if (_DEBUG_LT_PRED(_Pred, *_Mid, *_First)) {

  00096	8b cc		 mov	 ecx, esp
; File C:\Program Files\Microsoft Visual Studio\2022\Professional\VC\Tools\MSVC\14.44.35207\include\utility

; 139  :     _Ty _Tmp = _STD move(_Left);

  00098	8b 53 08	 mov	 edx, DWORD PTR [ebx+8]
; File C:\Program Files\Microsoft Visual Studio\2022\Professional\VC\Tools\MSVC\14.44.35207\include\algorithm

; 8275 :         if (_DEBUG_LT_PRED(_Pred, *_Mid, *_First)) {

  0009b	83 ec 0c	 sub	 esp, 12			; 0000000cH
; File C:\Program Files\Microsoft Visual Studio\2022\Professional\VC\Tools\MSVC\14.44.35207\include\utility

; 140  :     _Left    = _STD move(_Right);

  0009e	66 0f d6 03	 movq	 QWORD PTR [ebx], xmm0
  000a2	8b 46 08	 mov	 eax, DWORD PTR [esi+8]
  000a5	89 43 08	 mov	 DWORD PTR [ebx+8], eax

; 141  :     _Right   = _STD move(_Tmp);

  000a8	66 0f d6 0e	 movq	 QWORD PTR [esi], xmm1
  000ac	89 56 08	 mov	 DWORD PTR [esi+8], edx
; File C:\Program Files\Microsoft Visual Studio\2022\Professional\VC\Tools\MSVC\14.44.35207\include\algorithm

; 8275 :         if (_DEBUG_LT_PRED(_Pred, *_Mid, *_First)) {

  000af	f3 0f 7e 07	 movq	 xmm0, QWORD PTR [edi]
  000b3	8b 47 08	 mov	 eax, DWORD PTR [edi+8]
  000b6	66 0f d6 01	 movq	 QWORD PTR [ecx], xmm0
  000ba	89 41 08	 mov	 DWORD PTR [ecx+8], eax
  000bd	8b c4		 mov	 eax, esp
  000bf	66 0f d6 08	 movq	 QWORD PTR [eax], xmm1
  000c3	89 50 08	 mov	 DWORD PTR [eax+8], edx
  000c6	ff 55 14	 call	 DWORD PTR __Pred$[ebp]
  000c9	83 c4 18	 add	 esp, 24			; 00000018H
  000cc	84 c0		 test	 al, al
  000ce	74 1c		 je	 SHORT $LN13@Med3_unche
; File C:\Program Files\Microsoft Visual Studio\2022\Professional\VC\Tools\MSVC\14.44.35207\include\utility

; 140  :     _Left    = _STD move(_Right);

  000d0	f3 0f 7e 07	 movq	 xmm0, QWORD PTR [edi]
  000d4	f3 0f 7e 0e	 movq	 xmm1, QWORD PTR [esi]
  000d8	8b 4e 08	 mov	 ecx, DWORD PTR [esi+8]
  000db	66 0f d6 06	 movq	 QWORD PTR [esi], xmm0
  000df	8b 47 08	 mov	 eax, DWORD PTR [edi+8]
  000e2	89 46 08	 mov	 DWORD PTR [esi+8], eax

; 141  :     _Right   = _STD move(_Tmp);

  000e5	66 0f d6 0f	 movq	 QWORD PTR [edi], xmm1
  000e9	89 4f 08	 mov	 DWORD PTR [edi+8], ecx
$LN13@Med3_unche:
; File C:\Program Files\Microsoft Visual Studio\2022\Professional\VC\Tools\MSVC\14.44.35207\include\algorithm

; 8279 : }

  000ec	5f		 pop	 edi
  000ed	5e		 pop	 esi
  000ee	5b		 pop	 ebx
  000ef	5d		 pop	 ebp
  000f0	c3		 ret	 0
??$_Med3_unchecked@PAU_REGION_GENERIC@@P6A_NU1@0@Z@std@@YAXPAU_REGION_GENERIC@@00P6A_NU1@1@Z@Z ENDP ; std::_Med3_unchecked<_REGION_GENERIC *,bool (__cdecl*)(_REGION_GENERIC,_REGION_GENERIC)>
_TEXT	ENDS
; Function compile flags: /Ogtp
; File C:\Program Files\Microsoft Visual Studio\2022\Professional\VC\Tools\MSVC\14.44.35207\include\xutility
;	COMDAT ??$_Copy_backward_memmove@PAU_REGION_GENERIC@@PAU1@@std@@YAPAU_REGION_GENERIC@@PAU1@00@Z
_TEXT	SEGMENT
__First$ = 8						; size = 4
__Last$ = 12						; size = 4
__Dest$ = 16						; size = 4
??$_Copy_backward_memmove@PAU_REGION_GENERIC@@PAU1@@std@@YAPAU_REGION_GENERIC@@PAU1@00@Z PROC ; std::_Copy_backward_memmove<_REGION_GENERIC *,_REGION_GENERIC *>, COMDAT

; 5083 : _CtgIt2 _Copy_backward_memmove(_CtgIt1 _First, _CtgIt1 _Last, _CtgIt2 _Dest) {

  00000	55		 push	 ebp
  00001	8b ec		 mov	 ebp, esp

; 5084 :     // implement copy_backward-like function as memmove
; 5085 :     const auto _First_ptr = _STD _To_address(_First);
; 5086 :     const auto _Last_ptr  = _STD _To_address(_Last);
; 5087 :     const auto _Dest_ptr  = _STD _To_address(_Dest);
; 5088 :     const auto _First_ch  = const_cast<const char*>(reinterpret_cast<const volatile char*>(_First_ptr));
; 5089 :     const auto _Last_ch   = const_cast<const char*>(reinterpret_cast<const volatile char*>(_Last_ptr));
; 5090 :     const auto _Dest_ch   = const_cast<char*>(reinterpret_cast<const volatile char*>(_Dest_ptr));
; 5091 :     const auto _Count     = static_cast<size_t>(_Last_ch - _First_ch);

  00003	8b 45 08	 mov	 eax, DWORD PTR __First$[ebp]
  00006	8b 4d 0c	 mov	 ecx, DWORD PTR __Last$[ebp]
  00009	2b c8		 sub	 ecx, eax

; 5092 :     const auto _Result    = _CSTD memmove(_Dest_ch - _Count, _First_ch, _Count);

  0000b	51		 push	 ecx
  0000c	50		 push	 eax
  0000d	8b 45 10	 mov	 eax, DWORD PTR __Dest$[ebp]
  00010	2b c1		 sub	 eax, ecx
  00012	50		 push	 eax
  00013	e8 00 00 00 00	 call	 _memmove
  00018	83 c4 0c	 add	 esp, 12			; 0000000cH

; 5093 :     if constexpr (is_pointer_v<_CtgIt2>) {
; 5094 :         return static_cast<_CtgIt2>(_Result);
; 5095 :     } else {
; 5096 :         return _Dest - static_cast<_Iter_diff_t<_CtgIt2>>(_Last_ptr - _First_ptr);
; 5097 :     }
; 5098 : }

  0001b	5d		 pop	 ebp
  0001c	c3		 ret	 0
??$_Copy_backward_memmove@PAU_REGION_GENERIC@@PAU1@@std@@YAPAU_REGION_GENERIC@@PAU1@00@Z ENDP ; std::_Copy_backward_memmove<_REGION_GENERIC *,_REGION_GENERIC *>
_TEXT	ENDS
; Function compile flags: /Ogtp
; File C:\Program Files\Microsoft Visual Studio\2022\Professional\VC\Tools\MSVC\14.44.35207\include\__msvc_heap_algorithms.hpp
;	COMDAT ??$_Pop_heap_hole_by_index@PAU_REGION_GENERIC@@U1@P6A_NU1@0@Z@std@@YAXPAU_REGION_GENERIC@@HH$$QAU1@P6A_NU1@2@Z@Z
_TEXT	SEGMENT
tv236 = -8						; size = 4
__Max_sequence_non_leaf$1$ = -4				; size = 4
__First$ = 8						; size = 4
__Hole$ = 12						; size = 4
__Top$1$ = 12						; size = 4
__Bottom$ = 16						; size = 4
__Val$ = 20						; size = 4
__Pred$ = 24						; size = 4
??$_Pop_heap_hole_by_index@PAU_REGION_GENERIC@@U1@P6A_NU1@0@Z@std@@YAXPAU_REGION_GENERIC@@HH$$QAU1@P6A_NU1@2@Z@Z PROC ; std::_Pop_heap_hole_by_index<_REGION_GENERIC *,_REGION_GENERIC,bool (__cdecl*)(_REGION_GENERIC,_REGION_GENERIC)>, COMDAT

; 58   :     _RanIt _First, _Iter_diff_t<_RanIt> _Hole, _Iter_diff_t<_RanIt> _Bottom, _Ty&& _Val, _Pr _Pred) {

  00000	55		 push	 ebp
  00001	8b ec		 mov	 ebp, esp
  00003	83 ec 08	 sub	 esp, 8

; 59   :     // percolate _Hole to _Bottom, then push _Val
; 60   :     _STL_INTERNAL_CHECK(_Bottom > 0);
; 61   : 
; 62   :     using _Diff      = _Iter_diff_t<_RanIt>;
; 63   :     const _Diff _Top = _Hole;
; 64   :     _Diff _Idx       = _Hole;
; 65   : 
; 66   :     // Check whether _Idx can have a child before calculating that child's index, since
; 67   :     // calculating the child's index can trigger integer overflows
; 68   :     const _Diff _Max_sequence_non_leaf = (_Bottom - 1) >> 1; // shift for codegen

  00006	8b 4d 10	 mov	 ecx, DWORD PTR __Bottom$[ebp]
  00009	53		 push	 ebx

; 69   :     while (_Idx < _Max_sequence_non_leaf) { // move _Hole down to larger child

  0000a	8b 5d 08	 mov	 ebx, DWORD PTR __First$[ebp]
  0000d	56		 push	 esi
  0000e	8b 75 0c	 mov	 esi, DWORD PTR __Hole$[ebp]
  00011	8d 41 ff	 lea	 eax, DWORD PTR [ecx-1]
  00014	89 45 f8	 mov	 DWORD PTR tv236[ebp], eax
  00017	d1 f8		 sar	 eax, 1
  00019	89 75 0c	 mov	 DWORD PTR __Top$1$[ebp], esi
  0001c	89 45 fc	 mov	 DWORD PTR __Max_sequence_non_leaf$1$[ebp], eax
  0001f	57		 push	 edi
  00020	8b fe		 mov	 edi, esi
  00022	3b f0		 cmp	 esi, eax
  00024	7d 6c		 jge	 SHORT $LN3@Pop_heap_h
$LL2@Pop_heap_h:

; 70   :         _Idx = 2 * _Idx + 2;

  00026	03 ff		 add	 edi, edi

; 71   :         if (_DEBUG_LT_PRED(_Pred, *(_First + _Idx), *(_First + (_Idx - 1)))) {

  00028	83 ec 0c	 sub	 esp, 12			; 0000000cH
  0002b	8b cc		 mov	 ecx, esp
  0002d	83 ec 0c	 sub	 esp, 12			; 0000000cH
  00030	8d 47 02	 lea	 eax, DWORD PTR [edi+2]
  00033	8d 04 40	 lea	 eax, DWORD PTR [eax+eax*2]
  00036	f3 0f 7e 44 83
	f4		 movq	 xmm0, QWORD PTR [ebx+eax*4-12]
  0003c	8d 14 83	 lea	 edx, DWORD PTR [ebx+eax*4]
  0003f	8b 42 fc	 mov	 eax, DWORD PTR [edx-4]
  00042	66 0f d6 01	 movq	 QWORD PTR [ecx], xmm0
  00046	f3 0f 7e 02	 movq	 xmm0, QWORD PTR [edx]
  0004a	89 41 08	 mov	 DWORD PTR [ecx+8], eax
  0004d	8b cc		 mov	 ecx, esp
  0004f	8b 42 08	 mov	 eax, DWORD PTR [edx+8]
  00052	66 0f d6 01	 movq	 QWORD PTR [ecx], xmm0
  00056	89 41 08	 mov	 DWORD PTR [ecx+8], eax
  00059	ff 55 18	 call	 DWORD PTR __Pred$[ebp]

; 72   :             --_Idx;
; 73   :         }
; 74   :         *(_First + _Hole) = _STD move(*(_First + _Idx));

  0005c	0f b6 c0	 movzx	 eax, al
  0005f	83 c4 18	 add	 esp, 24			; 00000018H
  00062	f7 d8		 neg	 eax
  00064	1b c0		 sbb	 eax, eax
  00066	83 c0 02	 add	 eax, 2
  00069	03 f8		 add	 edi, eax
  0006b	8d 04 7f	 lea	 eax, DWORD PTR [edi+edi*2]
  0006e	f3 0f 7e 04 83	 movq	 xmm0, QWORD PTR [ebx+eax*4]
  00073	8d 14 83	 lea	 edx, DWORD PTR [ebx+eax*4]
  00076	8d 04 76	 lea	 eax, DWORD PTR [esi+esi*2]

; 75   :         _Hole             = _Idx;

  00079	8b f7		 mov	 esi, edi
  0007b	8d 0c 83	 lea	 ecx, DWORD PTR [ebx+eax*4]
  0007e	66 0f d6 01	 movq	 QWORD PTR [ecx], xmm0
  00082	8b 42 08	 mov	 eax, DWORD PTR [edx+8]
  00085	89 41 08	 mov	 DWORD PTR [ecx+8], eax
  00088	8b 45 fc	 mov	 eax, DWORD PTR __Max_sequence_non_leaf$1$[ebp]
  0008b	3b f8		 cmp	 edi, eax
  0008d	7c 97		 jl	 SHORT $LL2@Pop_heap_h

; 69   :     while (_Idx < _Max_sequence_non_leaf) { // move _Hole down to larger child

  0008f	8b 4d 10	 mov	 ecx, DWORD PTR __Bottom$[ebp]
$LN3@Pop_heap_h:

; 76   :     }
; 77   : 
; 78   :     if (_Idx == _Max_sequence_non_leaf && _Bottom % 2 == 0) { // only child at bottom, move _Hole down to it

  00092	3b f8		 cmp	 edi, eax
  00094	75 24		 jne	 SHORT $LN5@Pop_heap_h
  00096	f6 c1 01	 test	 cl, 1
  00099	75 1f		 jne	 SHORT $LN5@Pop_heap_h

; 79   :         *(_First + _Hole) = _STD move(*(_First + (_Bottom - 1)));

  0009b	8d 04 49	 lea	 eax, DWORD PTR [ecx+ecx*2]
  0009e	f3 0f 7e 44 83
	f4		 movq	 xmm0, QWORD PTR [ebx+eax*4-12]
  000a4	8d 14 83	 lea	 edx, DWORD PTR [ebx+eax*4]
  000a7	8d 04 76	 lea	 eax, DWORD PTR [esi+esi*2]

; 80   :         _Hole             = _Bottom - 1;

  000aa	8b 75 f8	 mov	 esi, DWORD PTR tv236[ebp]
  000ad	8d 0c 83	 lea	 ecx, DWORD PTR [ebx+eax*4]
  000b0	66 0f d6 01	 movq	 QWORD PTR [ecx], xmm0
  000b4	8b 42 fc	 mov	 eax, DWORD PTR [edx-4]
  000b7	89 41 08	 mov	 DWORD PTR [ecx+8], eax
$LN5@Pop_heap_h:

; 27   :         _Top < _Hole && _DEBUG_LT_PRED(_Pred, *(_First + _Idx), _Val); _Idx = (_Hole - 1) >> 1) { // shift for codegen

  000ba	39 75 0c	 cmp	 DWORD PTR __Top$1$[ebp], esi
  000bd	7c 23		 jl	 SHORT $LN10@Pop_heap_h
  000bf	8b 55 08	 mov	 edx, DWORD PTR __First$[ebp]
$LN9@Pop_heap_h:

; 31   :     }
; 32   : 
; 33   :     *(_First + _Hole) = _STD forward<_Ty>(_Val); // drop _Val into final hole

  000c2	8d 04 76	 lea	 eax, DWORD PTR [esi+esi*2]
  000c5	8d 0c 82	 lea	 ecx, DWORD PTR [edx+eax*4]
  000c8	8b 45 14	 mov	 eax, DWORD PTR __Val$[ebp]

; 81   :     }
; 82   : 
; 83   :     _STD _Push_heap_by_index(_First, _Hole, _Top, _STD forward<_Ty>(_Val), _Pred);
; 84   : }

  000cb	5f		 pop	 edi
  000cc	5e		 pop	 esi
  000cd	5b		 pop	 ebx

; 33   :     *(_First + _Hole) = _STD forward<_Ty>(_Val); // drop _Val into final hole

  000ce	f3 0f 7e 00	 movq	 xmm0, QWORD PTR [eax]
  000d2	66 0f d6 01	 movq	 QWORD PTR [ecx], xmm0
  000d6	8b 40 08	 mov	 eax, DWORD PTR [eax+8]
  000d9	89 41 08	 mov	 DWORD PTR [ecx+8], eax

; 81   :     }
; 82   : 
; 83   :     _STD _Push_heap_by_index(_First, _Hole, _Top, _STD forward<_Ty>(_Val), _Pred);
; 84   : }

  000dc	8b e5		 mov	 esp, ebp
  000de	5d		 pop	 ebp
  000df	c3		 ret	 0
$LL23@Pop_heap_h:

; 27   :         _Top < _Hole && _DEBUG_LT_PRED(_Pred, *(_First + _Idx), _Val); _Idx = (_Hole - 1) >> 1) { // shift for codegen

  000e0	8b da		 mov	 ebx, edx
$LN10@Pop_heap_h:

; 26   :     for (_Diff _Idx                                                         = (_Hole - 1) >> 1; // shift for codegen

  000e2	8d 7e ff	 lea	 edi, DWORD PTR [esi-1]

; 27   :         _Top < _Hole && _DEBUG_LT_PRED(_Pred, *(_First + _Idx), _Val); _Idx = (_Hole - 1) >> 1) { // shift for codegen

  000e5	83 ec 0c	 sub	 esp, 12			; 0000000cH
  000e8	d1 ff		 sar	 edi, 1
  000ea	8b cc		 mov	 ecx, esp
  000ec	83 ec 0c	 sub	 esp, 12			; 0000000cH
  000ef	8d 04 7f	 lea	 eax, DWORD PTR [edi+edi*2]
  000f2	8d 1c 83	 lea	 ebx, DWORD PTR [ebx+eax*4]
  000f5	8b 45 14	 mov	 eax, DWORD PTR __Val$[ebp]
  000f8	f3 0f 7e 00	 movq	 xmm0, QWORD PTR [eax]
  000fc	8b 40 08	 mov	 eax, DWORD PTR [eax+8]
  000ff	66 0f d6 01	 movq	 QWORD PTR [ecx], xmm0
  00103	f3 0f 7e 03	 movq	 xmm0, QWORD PTR [ebx]
  00107	89 41 08	 mov	 DWORD PTR [ecx+8], eax
  0010a	8b cc		 mov	 ecx, esp
  0010c	8b 43 08	 mov	 eax, DWORD PTR [ebx+8]
  0010f	66 0f d6 01	 movq	 QWORD PTR [ecx], xmm0
  00113	89 41 08	 mov	 DWORD PTR [ecx+8], eax
  00116	ff 55 18	 call	 DWORD PTR __Pred$[ebp]
  00119	8b 55 08	 mov	 edx, DWORD PTR __First$[ebp]
  0011c	83 c4 18	 add	 esp, 24			; 00000018H
  0011f	84 c0		 test	 al, al
  00121	74 9f		 je	 SHORT $LN9@Pop_heap_h

; 28   :         // move _Hole up to parent
; 29   :         *(_First + _Hole) = _STD move(*(_First + _Idx));

  00123	8d 04 76	 lea	 eax, DWORD PTR [esi+esi*2]
  00126	f3 0f 7e 03	 movq	 xmm0, QWORD PTR [ebx]
  0012a	8d 0c 82	 lea	 ecx, DWORD PTR [edx+eax*4]

; 30   :         _Hole             = _Idx;

  0012d	8b f7		 mov	 esi, edi
  0012f	66 0f d6 01	 movq	 QWORD PTR [ecx], xmm0
  00133	8b 43 08	 mov	 eax, DWORD PTR [ebx+8]
  00136	89 41 08	 mov	 DWORD PTR [ecx+8], eax
  00139	39 7d 0c	 cmp	 DWORD PTR __Top$1$[ebp], edi
  0013c	7c a2		 jl	 SHORT $LL23@Pop_heap_h

; 27   :         _Top < _Hole && _DEBUG_LT_PRED(_Pred, *(_First + _Idx), _Val); _Idx = (_Hole - 1) >> 1) { // shift for codegen

  0013e	eb 82		 jmp	 SHORT $LN9@Pop_heap_h
??$_Pop_heap_hole_by_index@PAU_REGION_GENERIC@@U1@P6A_NU1@0@Z@std@@YAXPAU_REGION_GENERIC@@HH$$QAU1@P6A_NU1@2@Z@Z ENDP ; std::_Pop_heap_hole_by_index<_REGION_GENERIC *,_REGION_GENERIC,bool (__cdecl*)(_REGION_GENERIC,_REGION_GENERIC)>
_TEXT	ENDS
; Function compile flags: /Ogtp
; File C:\Program Files\Microsoft Visual Studio\2022\Professional\VC\Tools\MSVC\14.44.35207\include\xmemory
;	COMDAT ??1?$_Alloc_construct_ptr@V?$allocator@U?$_List_node@PAU_EVENT_GENERIC@@PAX@std@@@std@@@std@@QAE@XZ
_TEXT	SEGMENT
??1?$_Alloc_construct_ptr@V?$allocator@U?$_List_node@PAU_EVENT_GENERIC@@PAX@std@@@std@@@std@@QAE@XZ PROC ; std::_Alloc_construct_ptr<std::allocator<std::_List_node<_EVENT_GENERIC *,void *> > >::~_Alloc_construct_ptr<std::allocator<std::_List_node<_EVENT_GENERIC *,void *> > >, COMDAT
; _this$ = ecx

; 1172 :         if (_Ptr) {

  00000	8b 41 04	 mov	 eax, DWORD PTR [ecx+4]
  00003	85 c0		 test	 eax, eax
  00005	74 0b		 je	 SHORT $LN10@Alloc_cons

; 289  :         ::operator delete(_Ptr, _Bytes);

  00007	6a 0c		 push	 12			; 0000000cH
  00009	50		 push	 eax
  0000a	e8 00 00 00 00	 call	 ??3@YAXPAXI@Z		; operator delete
  0000f	83 c4 08	 add	 esp, 8
$LN10@Alloc_cons:

; 1173 :             _Al.deallocate(_Ptr, 1);
; 1174 :         }
; 1175 :     }

  00012	c3		 ret	 0
??1?$_Alloc_construct_ptr@V?$allocator@U?$_List_node@PAU_EVENT_GENERIC@@PAX@std@@@std@@@std@@QAE@XZ ENDP ; std::_Alloc_construct_ptr<std::allocator<std::_List_node<_EVENT_GENERIC *,void *> > >::~_Alloc_construct_ptr<std::allocator<std::_List_node<_EVENT_GENERIC *,void *> > >
_TEXT	ENDS
; Function compile flags: /Ogtp
; File C:\Program Files\Microsoft Visual Studio\2022\Professional\VC\Tools\MSVC\14.44.35207\include\xmemory
;	COMDAT ??1?$_Alloc_construct_ptr@V?$allocator@U?$_List_node@PAVCEventItem@@PAX@std@@@std@@@std@@QAE@XZ
_TEXT	SEGMENT
??1?$_Alloc_construct_ptr@V?$allocator@U?$_List_node@PAVCEventItem@@PAX@std@@@std@@@std@@QAE@XZ PROC ; std::_Alloc_construct_ptr<std::allocator<std::_List_node<CEventItem *,void *> > >::~_Alloc_construct_ptr<std::allocator<std::_List_node<CEventItem *,void *> > >, COMDAT
; _this$ = ecx

; 1172 :         if (_Ptr) {

  00000	8b 41 04	 mov	 eax, DWORD PTR [ecx+4]
  00003	85 c0		 test	 eax, eax
  00005	74 0b		 je	 SHORT $LN10@Alloc_cons

; 289  :         ::operator delete(_Ptr, _Bytes);

  00007	6a 0c		 push	 12			; 0000000cH
  00009	50		 push	 eax
  0000a	e8 00 00 00 00	 call	 ??3@YAXPAXI@Z		; operator delete
  0000f	83 c4 08	 add	 esp, 8
$LN10@Alloc_cons:

; 1173 :             _Al.deallocate(_Ptr, 1);
; 1174 :         }
; 1175 :     }

  00012	c3		 ret	 0
??1?$_Alloc_construct_ptr@V?$allocator@U?$_List_node@PAVCEventItem@@PAX@std@@@std@@@std@@QAE@XZ ENDP ; std::_Alloc_construct_ptr<std::allocator<std::_List_node<CEventItem *,void *> > >::~_Alloc_construct_ptr<std::allocator<std::_List_node<CEventItem *,void *> > >
_TEXT	ENDS
; Function compile flags: /Ogtp
; File C:\Program Files\Microsoft Visual Studio\2022\Professional\VC\Tools\MSVC\14.44.35207\include\vector
; File C:\Program Files\Microsoft Visual Studio\2022\Professional\VC\Tools\MSVC\14.44.35207\include\xmemory
; File C:\Program Files\Microsoft Visual Studio\2022\Professional\VC\Tools\MSVC\14.44.35207\include\vector
; File C:\Program Files\Microsoft Visual Studio\2022\Professional\VC\Tools\MSVC\14.44.35207\include\xmemory
; File C:\Program Files\Microsoft Visual Studio\2022\Professional\VC\Tools\MSVC\14.44.35207\include\vector
; File C:\Program Files\Microsoft Visual Studio\2022\Professional\VC\Tools\MSVC\14.44.35207\include\xmemory
; File C:\Program Files\Microsoft Visual Studio\2022\Professional\VC\Tools\MSVC\14.44.35207\include\vector
; File C:\Program Files\Microsoft Visual Studio\2022\Professional\VC\Tools\MSVC\14.44.35207\include\xmemory
; File C:\Program Files\Microsoft Visual Studio\2022\Professional\VC\Tools\MSVC\14.44.35207\include\vector
; File C:\Program Files\Microsoft Visual Studio\2022\Professional\VC\Tools\MSVC\14.44.35207\include\xmemory
; File C:\Program Files\Microsoft Visual Studio\2022\Professional\VC\Tools\MSVC\14.44.35207\include\vector
; File C:\Program Files\Microsoft Visual Studio\2022\Professional\VC\Tools\MSVC\14.44.35207\include\xmemory
; File C:\Program Files\Microsoft Visual Studio\2022\Professional\VC\Tools\MSVC\14.44.35207\include\vector
; File C:\Program Files\Microsoft Visual Studio\2022\Professional\VC\Tools\MSVC\14.44.35207\include\xmemory
; File C:\Program Files\Microsoft Visual Studio\2022\Professional\VC\Tools\MSVC\14.44.35207\include\vector
; File C:\Program Files\Microsoft Visual Studio\2022\Professional\VC\Tools\MSVC\14.44.35207\include\xmemory
; File C:\Program Files\Microsoft Visual Studio\2022\Professional\VC\Tools\MSVC\14.44.35207\include\vector
; File C:\Program Files\Microsoft Visual Studio\2022\Professional\VC\Tools\MSVC\14.44.35207\include\xmemory
; File C:\Program Files\Microsoft Visual Studio\2022\Professional\VC\Tools\MSVC\14.44.35207\include\vector
;	COMDAT ??$_Emplace_reallocate@ABU_REGION_GENERIC@@@?$vector@U_REGION_GENERIC@@V?$allocator@U_REGION_GENERIC@@@std@@@std@@AAEPAU_REGION_GENERIC@@QAU2@ABU2@@Z
_TEXT	SEGMENT
__Oldsize$1$ = -12					; size = 4
__Whereoff$1$ = -8					; size = 4
tv650 = -8						; size = 4
tv652 = -4						; size = 4
__Whereptr$ = 8						; size = 4
_<_Val_0>$ = 12						; size = 4
??$_Emplace_reallocate@ABU_REGION_GENERIC@@@?$vector@U_REGION_GENERIC@@V?$allocator@U_REGION_GENERIC@@@std@@@std@@AAEPAU_REGION_GENERIC@@QAU2@ABU2@@Z PROC ; std::vector<_REGION_GENERIC,std::allocator<_REGION_GENERIC> >::_Emplace_reallocate<_REGION_GENERIC const &>, COMDAT
; _this$ = ecx

; 875  :     _CONSTEXPR20 pointer _Emplace_reallocate(const pointer _Whereptr, _Valty&&... _Val) {

  00000	55		 push	 ebp
  00001	8b ec		 mov	 ebp, esp
  00003	83 ec 0c	 sub	 esp, 12			; 0000000cH

; 876  :         // reallocate and insert by perfectly forwarding _Val at _Whereptr
; 877  :         _Alty& _Al        = _Getal();
; 878  :         auto& _My_data    = _Mypair._Myval2;
; 879  :         pointer& _Myfirst = _My_data._Myfirst;
; 880  :         pointer& _Mylast  = _My_data._Mylast;
; 881  : 
; 882  :         _STL_INTERNAL_CHECK(_Mylast == _My_data._Myend); // check that we have no unused capacity
; 883  : 
; 884  :         const auto _Whereoff = static_cast<size_type>(_Whereptr - _Myfirst);

  00006	8b 55 08	 mov	 edx, DWORD PTR __Whereptr$[ebp]
  00009	b8 ab aa aa 2a	 mov	 eax, 715827883		; 2aaaaaabH
  0000e	53		 push	 ebx
  0000f	8b d9		 mov	 ebx, ecx
  00011	57		 push	 edi
  00012	8b 3b		 mov	 edi, DWORD PTR [ebx]
  00014	2b d7		 sub	 edx, edi

; 885  :         const auto _Oldsize  = static_cast<size_type>(_Mylast - _Myfirst);

  00016	8b 4b 04	 mov	 ecx, DWORD PTR [ebx+4]
  00019	f7 ea		 imul	 edx
  0001b	2b cf		 sub	 ecx, edi
  0001d	d1 fa		 sar	 edx, 1
  0001f	8b c2		 mov	 eax, edx
  00021	c1 e8 1f	 shr	 eax, 31			; 0000001fH
  00024	03 c2		 add	 eax, edx
  00026	89 45 f8	 mov	 DWORD PTR __Whereoff$1$[ebp], eax
  00029	b8 ab aa aa 2a	 mov	 eax, 715827883		; 2aaaaaabH
  0002e	f7 e9		 imul	 ecx
  00030	d1 fa		 sar	 edx, 1
  00032	8b c2		 mov	 eax, edx
  00034	c1 e8 1f	 shr	 eax, 31			; 0000001fH
  00037	03 c2		 add	 eax, edx
  00039	89 45 f4	 mov	 DWORD PTR __Oldsize$1$[ebp], eax

; 886  : 
; 887  :         if (_Oldsize == max_size()) {

  0003c	3d 55 55 55 15	 cmp	 eax, 357913941		; 15555555H
  00041	0f 84 42 01 00
	00		 je	 $LN119@Emplace_re

; 1924 :         return static_cast<size_type>(_My_data._Myend - _My_data._Myfirst);

  00047	8b 4b 08	 mov	 ecx, DWORD PTR [ebx+8]
  0004a	2b cf		 sub	 ecx, edi
  0004c	56		 push	 esi

; 889  :         }
; 890  : 
; 891  :         const size_type _Newsize = _Oldsize + 1;

  0004d	8d 70 01	 lea	 esi, DWORD PTR [eax+1]

; 1924 :         return static_cast<size_type>(_My_data._Myend - _My_data._Myfirst);

  00050	b8 ab aa aa 2a	 mov	 eax, 715827883		; 2aaaaaabH
  00055	f7 e9		 imul	 ecx

; 2011 :         if (_Oldcapacity > _Max - _Oldcapacity / 2) {

  00057	b8 55 55 55 15	 mov	 eax, 357913941		; 15555555H

; 1924 :         return static_cast<size_type>(_My_data._Myend - _My_data._Myfirst);

  0005c	d1 fa		 sar	 edx, 1
  0005e	8b ca		 mov	 ecx, edx
  00060	c1 e9 1f	 shr	 ecx, 31			; 0000001fH
  00063	03 ca		 add	 ecx, edx

; 2011 :         if (_Oldcapacity > _Max - _Oldcapacity / 2) {

  00065	8b d1		 mov	 edx, ecx
  00067	d1 ea		 shr	 edx, 1
  00069	2b c2		 sub	 eax, edx
  0006b	3b c8		 cmp	 ecx, eax
  0006d	76 14		 jbe	 SHORT $LN8@Emplace_re

; 2012 :             return _Max; // geometric growth would overflow

  0006f	b8 fc ff ff ff	 mov	 eax, -4			; fffffffcH
  00074	c7 45 fc fc ff
	ff ff		 mov	 DWORD PTR tv652[ebp], -4 ; fffffffcH
; File C:\Program Files\Microsoft Visual Studio\2022\Professional\VC\Tools\MSVC\14.44.35207\include\xmemory

; 253  :             return _Allocate_manually_vector_aligned<_Traits>(_Bytes);

  0007b	50		 push	 eax
  0007c	e8 00 00 00 00	 call	 ??$_Allocate_manually_vector_aligned@U_Default_allocate_traits@std@@@std@@YAPAXI@Z ; std::_Allocate_manually_vector_aligned<std::_Default_allocate_traits>
  00081	eb 3e		 jmp	 SHORT $LN117@Emplace_re
$LN8@Emplace_re:
; File C:\Program Files\Microsoft Visual Studio\2022\Professional\VC\Tools\MSVC\14.44.35207\include\vector

; 2015 :         const size_type _Geometric = _Oldcapacity + _Oldcapacity / 2;

  00083	8d 04 0a	 lea	 eax, DWORD PTR [edx+ecx]
; File C:\Program Files\Microsoft Visual Studio\2022\Professional\VC\Tools\MSVC\14.44.35207\include\xmemory

; 117  :         if (_Count > _Max_possible) {

  00086	8b ce		 mov	 ecx, esi
  00088	3b c6		 cmp	 eax, esi
  0008a	0f 43 c8	 cmovae	 ecx, eax
  0008d	81 f9 55 55 55
	15		 cmp	 ecx, 357913941		; 15555555H
  00093	0f 87 f5 00 00
	00		 ja	 $LN120@Emplace_re

; 119  :         }
; 120  :     }
; 121  : 
; 122  :     return _Count * _Ty_size;

  00099	8d 34 49	 lea	 esi, DWORD PTR [ecx+ecx*2]
  0009c	c1 e6 02	 shl	 esi, 2

; 990  :         return static_cast<_Ty*>(_STD _Allocate<_New_alignof<_Ty>>(_Get_size_of_n<sizeof(_Ty)>(_Count)));

  0009f	8b c6		 mov	 eax, esi

; 122  :     return _Count * _Ty_size;

  000a1	89 75 fc	 mov	 DWORD PTR tv652[ebp], esi

; 227  :     if (_Bytes == 0) {

  000a4	85 c0		 test	 eax, eax
  000a6	75 04		 jne	 SHORT $LN23@Emplace_re

; 228  :         return nullptr;

  000a8	33 ff		 xor	 edi, edi
  000aa	eb 1a		 jmp	 SHORT $LN22@Emplace_re
$LN23@Emplace_re:

; 229  :     }
; 230  : 
; 231  : #if _HAS_CXX20 // TRANSITION, GH-1532
; 232  :     if (_STD is_constant_evaluated()) {
; 233  :         return _Traits::_Allocate(_Bytes);
; 234  :     }
; 235  : #endif // _HAS_CXX20
; 236  : 
; 237  : #ifdef __cpp_aligned_new
; 238  :     if constexpr (_Align > __STDCPP_DEFAULT_NEW_ALIGNMENT__) {
; 239  :         size_t _Passed_align = _Align;
; 240  : #if defined(_M_IX86) || defined(_M_X64)
; 241  :         if (_Bytes >= _Big_allocation_threshold) {
; 242  :             // boost the alignment of big allocations to help autovectorization
; 243  :             _Passed_align = (_STD max)(_Align, _Big_allocation_alignment);
; 244  :         }
; 245  : #endif // defined(_M_IX86) || defined(_M_X64)
; 246  :         return _Traits::_Allocate_aligned(_Bytes, _Passed_align);
; 247  :     } else
; 248  : #endif // defined(__cpp_aligned_new)
; 249  :     {
; 250  : #if defined(_M_IX86) || defined(_M_X64)
; 251  :         if (_Bytes >= _Big_allocation_threshold) {

  000ac	3d 00 10 00 00	 cmp	 eax, 4096		; 00001000H
  000b1	72 08		 jb	 SHORT $LN24@Emplace_re

; 253  :             return _Allocate_manually_vector_aligned<_Traits>(_Bytes);

  000b3	50		 push	 eax
  000b4	e8 00 00 00 00	 call	 ??$_Allocate_manually_vector_aligned@U_Default_allocate_traits@std@@@std@@YAPAXI@Z ; std::_Allocate_manually_vector_aligned<std::_Default_allocate_traits>
  000b9	eb 06		 jmp	 SHORT $LN117@Emplace_re
$LN24@Emplace_re:

; 136  :         return ::operator new(_Bytes);

  000bb	50		 push	 eax
  000bc	e8 00 00 00 00	 call	 ??2@YAPAXI@Z		; operator new
$LN117@Emplace_re:
; File C:\Program Files\Microsoft Visual Studio\2022\Professional\VC\Tools\MSVC\14.44.35207\include\vector

; 900  :         _Alty_traits::construct(_Al, _STD _Unfancy(_Newvec + _Whereoff), _STD forward<_Valty>(_Val)...);

  000c1	8b f8		 mov	 edi, eax
  000c3	83 c4 04	 add	 esp, 4
$LN22@Emplace_re:
  000c6	8b 45 f8	 mov	 eax, DWORD PTR __Whereoff$1$[ebp]

; 903  :         if (_Whereptr == _Mylast) { // at back, provide strong guarantee

  000c9	8b 55 08	 mov	 edx, DWORD PTR __Whereptr$[ebp]
  000cc	8d 04 40	 lea	 eax, DWORD PTR [eax+eax*2]
  000cf	8d 34 87	 lea	 esi, DWORD PTR [edi+eax*4]
; File C:\Program Files\Microsoft Visual Studio\2022\Professional\VC\Tools\MSVC\14.44.35207\include\xmemory

; 732  :         ::new (const_cast<void*>(static_cast<const volatile void*>(_Ptr))) _Objty(_STD forward<_Types>(_Args)...);

  000d2	8b 45 0c	 mov	 eax, DWORD PTR _<_Val_0>$[ebp]
; File C:\Program Files\Microsoft Visual Studio\2022\Professional\VC\Tools\MSVC\14.44.35207\include\vector

; 900  :         _Alty_traits::construct(_Al, _STD _Unfancy(_Newvec + _Whereoff), _STD forward<_Valty>(_Val)...);

  000d5	89 75 f8	 mov	 DWORD PTR tv650[ebp], esi
; File C:\Program Files\Microsoft Visual Studio\2022\Professional\VC\Tools\MSVC\14.44.35207\include\xmemory

; 732  :         ::new (const_cast<void*>(static_cast<const volatile void*>(_Ptr))) _Objty(_STD forward<_Types>(_Args)...);

  000d8	f3 0f 7e 00	 movq	 xmm0, QWORD PTR [eax]
  000dc	66 0f d6 06	 movq	 QWORD PTR [esi], xmm0
  000e0	8b 40 08	 mov	 eax, DWORD PTR [eax+8]
  000e3	89 46 08	 mov	 DWORD PTR [esi+8], eax
; File C:\Program Files\Microsoft Visual Studio\2022\Professional\VC\Tools\MSVC\14.44.35207\include\vector

; 903  :         if (_Whereptr == _Mylast) { // at back, provide strong guarantee

  000e6	8b 4b 04	 mov	 ecx, DWORD PTR [ebx+4]
  000e9	8b 03		 mov	 eax, DWORD PTR [ebx]
  000eb	3b d1		 cmp	 edx, ecx
  000ed	75 04		 jne	 SHORT $LN3@Emplace_re
; File C:\Program Files\Microsoft Visual Studio\2022\Professional\VC\Tools\MSVC\14.44.35207\include\xmemory

; 1992 :             _STD _Copy_memmove(_UFirst, _ULast, _STD _Unfancy(_Dest));

  000ef	8b f7		 mov	 esi, edi
; File C:\Program Files\Microsoft Visual Studio\2022\Professional\VC\Tools\MSVC\14.44.35207\include\vector

; 909  :         } else { // provide basic guarantee

  000f1	eb 14		 jmp	 SHORT $LN58@Emplace_re
$LN3@Emplace_re:
; File C:\Program Files\Microsoft Visual Studio\2022\Professional\VC\Tools\MSVC\14.44.35207\include\xmemory

; 1992 :             _STD _Copy_memmove(_UFirst, _ULast, _STD _Unfancy(_Dest));

  000f3	57		 push	 edi
  000f4	52		 push	 edx
  000f5	50		 push	 eax
  000f6	e8 00 00 00 00	 call	 ??$_Copy_memmove@PAU_REGION_GENERIC@@PAU1@@std@@YAPAU_REGION_GENERIC@@PAU1@00@Z ; std::_Copy_memmove<_REGION_GENERIC *,_REGION_GENERIC *>
  000fb	8b 45 08	 mov	 eax, DWORD PTR __Whereptr$[ebp]
  000fe	83 c4 0c	 add	 esp, 12			; 0000000cH
  00101	8b 4b 04	 mov	 ecx, DWORD PTR [ebx+4]
; File C:\Program Files\Microsoft Visual Studio\2022\Professional\VC\Tools\MSVC\14.44.35207\include\vector

; 912  :             _STD _Uninitialized_move(_Whereptr, _Mylast, _Newvec + _Whereoff + 1, _Al);

  00104	83 c6 0c	 add	 esi, 12			; 0000000cH
$LN58@Emplace_re:

; 913  :         }
; 914  : 
; 915  :         _Guard._New_begin = nullptr;

  00107	56		 push	 esi
  00108	51		 push	 ecx
  00109	50		 push	 eax
  0010a	e8 00 00 00 00	 call	 ??$_Copy_memmove@PAU_REGION_GENERIC@@PAU1@@std@@YAPAU_REGION_GENERIC@@PAU1@00@Z ; std::_Copy_memmove<_REGION_GENERIC *,_REGION_GENERIC *>

; 2069 :         if (_Myfirst) { // destroy and deallocate old array

  0010f	8b 33		 mov	 esi, DWORD PTR [ebx]

; 913  :         }
; 914  : 
; 915  :         _Guard._New_begin = nullptr;

  00111	83 c4 0c	 add	 esp, 12			; 0000000cH

; 2069 :         if (_Myfirst) { // destroy and deallocate old array

  00114	85 f6		 test	 esi, esi
  00116	74 3f		 je	 SHORT $LN80@Emplace_re

; 2070 :             _STD _Destroy_range(_Myfirst, _Mylast, _Al);
; 2071 :             _ASAN_VECTOR_REMOVE;
; 2072 :             _Al.deallocate(_Myfirst, static_cast<size_type>(_Myend - _Myfirst));

  00118	8b 4b 08	 mov	 ecx, DWORD PTR [ebx+8]
  0011b	b8 ab aa aa 2a	 mov	 eax, 715827883		; 2aaaaaabH
  00120	2b ce		 sub	 ecx, esi
  00122	f7 e9		 imul	 ecx
  00124	d1 fa		 sar	 edx, 1
  00126	8b c2		 mov	 eax, edx
  00128	c1 e8 1f	 shr	 eax, 31			; 0000001fH
  0012b	03 c2		 add	 eax, edx
; File C:\Program Files\Microsoft Visual Studio\2022\Professional\VC\Tools\MSVC\14.44.35207\include\xmemory

; 985  :         _STD _Deallocate<_New_alignof<_Ty>>(_Ptr, sizeof(_Ty) * _Count);

  0012d	8d 0c 40	 lea	 ecx, DWORD PTR [eax+eax*2]
  00130	c1 e1 02	 shl	 ecx, 2

; 284  :         if (_Bytes >= _Big_allocation_threshold) {

  00133	81 f9 00 10 00
	00		 cmp	 ecx, 4096		; 00001000H
  00139	72 12		 jb	 SHORT $LN85@Emplace_re

; 205  :     const uintptr_t _Ptr_container   = _Ptr_user[-1];

  0013b	8b 56 fc	 mov	 edx, DWORD PTR [esi-4]
  0013e	83 c1 23	 add	 ecx, 35			; 00000023H

; 206  : 
; 207  :     // If the following asserts, it likely means that we are performing
; 208  :     // an aligned delete on memory coming from an unaligned allocation.
; 209  :     _STL_ASSERT(_Ptr_user[-2] == _Big_allocation_sentinel, "invalid argument");
; 210  : 
; 211  :     // Extra paranoia on aligned allocation/deallocation; ensure _Ptr_container is
; 212  :     // in range [_Min_back_shift, _Non_user_size]
; 213  : #ifdef _DEBUG
; 214  :     constexpr uintptr_t _Min_back_shift = 2 * sizeof(void*);
; 215  : #else // ^^^ defined(_DEBUG) / !defined(_DEBUG) vvv
; 216  :     constexpr uintptr_t _Min_back_shift = sizeof(void*);
; 217  : #endif // ^^^ !defined(_DEBUG) ^^^
; 218  :     const uintptr_t _Back_shift = reinterpret_cast<uintptr_t>(_Ptr) - _Ptr_container;

  00141	2b f2		 sub	 esi, edx

; 219  :     _STL_VERIFY(_Back_shift >= _Min_back_shift && _Back_shift <= _Non_user_size, "invalid argument");

  00143	8d 46 fc	 lea	 eax, DWORD PTR [esi-4]
  00146	83 f8 1f	 cmp	 eax, 31			; 0000001fH
  00149	77 2f		 ja	 SHORT $LN84@Emplace_re

; 220  :     _Ptr = reinterpret_cast<void*>(_Ptr_container);

  0014b	8b f2		 mov	 esi, edx
$LN85@Emplace_re:

; 289  :         ::operator delete(_Ptr, _Bytes);

  0014d	51		 push	 ecx
  0014e	56		 push	 esi
  0014f	e8 00 00 00 00	 call	 ??3@YAXPAXI@Z		; operator delete
  00154	83 c4 08	 add	 esp, 8
$LN80@Emplace_re:
; File C:\Program Files\Microsoft Visual Studio\2022\Professional\VC\Tools\MSVC\14.44.35207\include\vector

; 2076 :         _Mylast  = _Newvec + _Newsize;

  00157	8b 45 f4	 mov	 eax, DWORD PTR __Oldsize$1$[ebp]
  0015a	40		 inc	 eax
  0015b	89 3b		 mov	 DWORD PTR [ebx], edi

; 916  :         _Change_array(_Newvec, _Newsize, _Newcapacity);
; 917  :         return _Newvec + _Whereoff;

  0015d	5e		 pop	 esi

; 2076 :         _Mylast  = _Newvec + _Newsize;

  0015e	8d 0c 40	 lea	 ecx, DWORD PTR [eax+eax*2]

; 916  :         _Change_array(_Newvec, _Newsize, _Newcapacity);
; 917  :         return _Newvec + _Whereoff;

  00161	8b 45 f8	 mov	 eax, DWORD PTR tv650[ebp]

; 2076 :         _Mylast  = _Newvec + _Newsize;

  00164	8d 0c 8f	 lea	 ecx, DWORD PTR [edi+ecx*4]
  00167	89 4b 04	 mov	 DWORD PTR [ebx+4], ecx

; 2077 :         _Myend   = _Newvec + _Newcapacity;

  0016a	8b 4d fc	 mov	 ecx, DWORD PTR tv652[ebp]
  0016d	03 cf		 add	 ecx, edi

; 918  :     }

  0016f	5f		 pop	 edi

; 2077 :         _Myend   = _Newvec + _Newcapacity;

  00170	89 4b 08	 mov	 DWORD PTR [ebx+8], ecx

; 918  :     }

  00173	5b		 pop	 ebx
  00174	8b e5		 mov	 esp, ebp
  00176	5d		 pop	 ebp
  00177	c2 08 00	 ret	 8
$LN84@Emplace_re:
; File C:\Program Files\Microsoft Visual Studio\2022\Professional\VC\Tools\MSVC\14.44.35207\include\xmemory

; 219  :     _STL_VERIFY(_Back_shift >= _Min_back_shift && _Back_shift <= _Non_user_size, "invalid argument");

  0017a	6a 00		 push	 0
  0017c	6a 00		 push	 0
  0017e	6a 00		 push	 0
  00180	6a 00		 push	 0
  00182	6a 00		 push	 0
  00184	e8 00 00 00 00	 call	 __invoke_watson
$LN119@Emplace_re:
; File C:\Program Files\Microsoft Visual Studio\2022\Professional\VC\Tools\MSVC\14.44.35207\include\vector

; 888  :             _Xlength();

  00189	e8 00 00 00 00	 call	 ?_Xlength@?$vector@U_REGION_GENERIC@@V?$allocator@U_REGION_GENERIC@@@std@@@std@@CAXXZ ; std::vector<_REGION_GENERIC,std::allocator<_REGION_GENERIC> >::_Xlength
$LN120@Emplace_re:
; File C:\Program Files\Microsoft Visual Studio\2022\Professional\VC\Tools\MSVC\14.44.35207\include\xmemory

; 118  :             _Throw_bad_array_new_length(); // multiply overflow

  0018e	e8 00 00 00 00	 call	 ?_Throw_bad_array_new_length@std@@YAXXZ ; std::_Throw_bad_array_new_length
$LN116@Emplace_re:
  00193	cc		 int	 3
??$_Emplace_reallocate@ABU_REGION_GENERIC@@@?$vector@U_REGION_GENERIC@@V?$allocator@U_REGION_GENERIC@@@std@@@std@@AAEPAU_REGION_GENERIC@@QAU2@ABU2@@Z ENDP ; std::vector<_REGION_GENERIC,std::allocator<_REGION_GENERIC> >::_Emplace_reallocate<_REGION_GENERIC const &>
_TEXT	ENDS
; Function compile flags: /Ogtp
; File C:\Program Files\Microsoft Visual Studio\2022\Professional\VC\Tools\MSVC\14.44.35207\include\algorithm
; File C:\Program Files\Microsoft Visual Studio\2022\Professional\VC\Tools\MSVC\14.44.35207\include\utility
; File C:\Program Files\Microsoft Visual Studio\2022\Professional\VC\Tools\MSVC\14.44.35207\include\algorithm
; File C:\Program Files\Microsoft Visual Studio\2022\Professional\VC\Tools\MSVC\14.44.35207\include\utility
; File C:\Program Files\Microsoft Visual Studio\2022\Professional\VC\Tools\MSVC\14.44.35207\include\algorithm
; File C:\Program Files\Microsoft Visual Studio\2022\Professional\VC\Tools\MSVC\14.44.35207\include\utility
; File C:\Program Files\Microsoft Visual Studio\2022\Professional\VC\Tools\MSVC\14.44.35207\include\algorithm
; File C:\Program Files\Microsoft Visual Studio\2022\Professional\VC\Tools\MSVC\14.44.35207\include\utility
; File C:\Program Files\Microsoft Visual Studio\2022\Professional\VC\Tools\MSVC\14.44.35207\include\algorithm
; File C:\Program Files\Microsoft Visual Studio\2022\Professional\VC\Tools\MSVC\14.44.35207\include\utility
; File C:\Program Files\Microsoft Visual Studio\2022\Professional\VC\Tools\MSVC\14.44.35207\include\algorithm
; File C:\Program Files\Microsoft Visual Studio\2022\Professional\VC\Tools\MSVC\14.44.35207\include\utility
; File C:\Program Files\Microsoft Visual Studio\2022\Professional\VC\Tools\MSVC\14.44.35207\include\algorithm
; File C:\Program Files\Microsoft Visual Studio\2022\Professional\VC\Tools\MSVC\14.44.35207\include\utility
; File C:\Program Files\Microsoft Visual Studio\2022\Professional\VC\Tools\MSVC\14.44.35207\include\algorithm
; File C:\Program Files\Microsoft Visual Studio\2022\Professional\VC\Tools\MSVC\14.44.35207\include\utility
; File C:\Program Files\Microsoft Visual Studio\2022\Professional\VC\Tools\MSVC\14.44.35207\include\algorithm
; File C:\Program Files\Microsoft Visual Studio\2022\Professional\VC\Tools\MSVC\14.44.35207\include\utility
; File C:\Program Files\Microsoft Visual Studio\2022\Professional\VC\Tools\MSVC\14.44.35207\include\algorithm
; File C:\Program Files\Microsoft Visual Studio\2022\Professional\VC\Tools\MSVC\14.44.35207\include\utility
; File C:\Program Files\Microsoft Visual Studio\2022\Professional\VC\Tools\MSVC\14.44.35207\include\algorithm
; File C:\Program Files\Microsoft Visual Studio\2022\Professional\VC\Tools\MSVC\14.44.35207\include\utility
; File C:\Program Files\Microsoft Visual Studio\2022\Professional\VC\Tools\MSVC\14.44.35207\include\algorithm
; File C:\Program Files\Microsoft Visual Studio\2022\Professional\VC\Tools\MSVC\14.44.35207\include\utility
; File C:\Program Files\Microsoft Visual Studio\2022\Professional\VC\Tools\MSVC\14.44.35207\include\algorithm
; File C:\Program Files\Microsoft Visual Studio\2022\Professional\VC\Tools\MSVC\14.44.35207\include\utility
; File C:\Program Files\Microsoft Visual Studio\2022\Professional\VC\Tools\MSVC\14.44.35207\include\algorithm
;	COMDAT ??$_Partition_by_median_guess_unchecked@PAU_REGION_GENERIC@@P6A_NU1@0@Z@std@@YA?AU?$pair@PAU_REGION_GENERIC@@PAU1@@0@PAU_REGION_GENERIC@@0P6A_NU2@1@Z@Z
_TEXT	SEGMENT
tv252 = -12						; size = 4
__Gfirst$1$ = -12					; size = 4
__Last$1$ = -12						; size = 4
$T1 = -12						; size = 4
__Glast$1$ = -8						; size = 4
$T2 = -8						; size = 4
__Plast$1$ = -4						; size = 4
___$ReturnUdt$ = 8					; size = 4
__First$ = 12						; size = 4
__Last$ = 16						; size = 4
__Pred$ = 20						; size = 4
??$_Partition_by_median_guess_unchecked@PAU_REGION_GENERIC@@P6A_NU1@0@Z@std@@YA?AU?$pair@PAU_REGION_GENERIC@@PAU1@@0@PAU_REGION_GENERIC@@0P6A_NU2@1@Z@Z PROC ; std::_Partition_by_median_guess_unchecked<_REGION_GENERIC *,bool (__cdecl*)(_REGION_GENERIC,_REGION_GENERIC)>, COMDAT

; 8299 : _CONSTEXPR20 pair<_RanIt, _RanIt> _Partition_by_median_guess_unchecked(_RanIt _First, _RanIt _Last, _Pr _Pred) {

  00000	55		 push	 ebp
  00001	8b ec		 mov	 ebp, esp
  00003	83 ec 0c	 sub	 esp, 12			; 0000000cH
  00006	53		 push	 ebx

; 8300 :     // partition [_First, _Last)
; 8301 :     _RanIt _Mid = _First + ((_Last - _First) >> 1); // shift for codegen

  00007	8b 5d 10	 mov	 ebx, DWORD PTR __Last$[ebp]
  0000a	b8 ab aa aa 2a	 mov	 eax, 715827883		; 2aaaaaabH
  0000f	56		 push	 esi
  00010	57		 push	 edi
  00011	8b 7d 0c	 mov	 edi, DWORD PTR __First$[ebp]
  00014	8b cb		 mov	 ecx, ebx
  00016	2b cf		 sub	 ecx, edi

; 8302 :     _STD _Guess_median_unchecked(_First, _Mid, _STD _Prev_iter(_Last), _Pred);

  00018	83 c3 f4	 add	 ebx, -12		; fffffff4H
  0001b	f7 e9		 imul	 ecx

; 8285 :     const _Diff _Count = _Last - _First;

  0001d	b8 ab aa aa 2a	 mov	 eax, 715827883		; 2aaaaaabH

; 8302 :     _STD _Guess_median_unchecked(_First, _Mid, _STD _Prev_iter(_Last), _Pred);

  00022	89 5d f4	 mov	 DWORD PTR __Last$1$[ebp], ebx
  00025	d1 fa		 sar	 edx, 1
  00027	8b ca		 mov	 ecx, edx
  00029	c1 e9 1f	 shr	 ecx, 31			; 0000001fH
  0002c	03 ca		 add	 ecx, edx
  0002e	d1 f9		 sar	 ecx, 1
  00030	8d 0c 49	 lea	 ecx, DWORD PTR [ecx+ecx*2]
  00033	8d 34 8f	 lea	 esi, DWORD PTR [edi+ecx*4]

; 8285 :     const _Diff _Count = _Last - _First;

  00036	8b cb		 mov	 ecx, ebx
  00038	2b cf		 sub	 ecx, edi

; 8286 :     if (40 < _Count) { // Tukey's ninther

  0003a	8b 7d 14	 mov	 edi, DWORD PTR __Pred$[ebp]
  0003d	f7 e9		 imul	 ecx
  0003f	8b 4d 0c	 mov	 ecx, DWORD PTR __First$[ebp]
  00042	d1 fa		 sar	 edx, 1
  00044	8b c2		 mov	 eax, edx
  00046	c1 e8 1f	 shr	 eax, 31			; 0000001fH
  00049	03 c2		 add	 eax, edx
  0004b	83 f8 28	 cmp	 eax, 40			; 00000028H
  0004e	7e 59		 jle	 SHORT $LN35@Partition_

; 8287 :         const _Diff _Step     = (_Count + 1) >> 3; // +1 can't overflow because range was made inclusive in caller
; 8288 :         const _Diff _Two_step = _Step << 1; // note: intentionally discards low-order bit
; 8289 :         _STD _Med3_unchecked(_First, _First + _Step, _First + _Two_step, _Pred);

  00050	ff 75 14	 push	 DWORD PTR __Pred$[ebp]
  00053	40		 inc	 eax
  00054	c1 f8 03	 sar	 eax, 3
  00057	8d 1c 40	 lea	 ebx, DWORD PTR [eax+eax*2]
  0005a	8d 3c 40	 lea	 edi, DWORD PTR [eax+eax*2]
  0005d	c1 e3 03	 shl	 ebx, 3
  00060	c1 e7 02	 shl	 edi, 2
  00063	8d 04 0b	 lea	 eax, DWORD PTR [ebx+ecx]
  00066	8d 14 0f	 lea	 edx, DWORD PTR [edi+ecx]
  00069	50		 push	 eax
  0006a	52		 push	 edx
  0006b	51		 push	 ecx
  0006c	89 55 f8	 mov	 DWORD PTR $T2[ebp], edx
  0006f	e8 00 00 00 00	 call	 ??$_Med3_unchecked@PAU_REGION_GENERIC@@P6A_NU1@0@Z@std@@YAXPAU_REGION_GENERIC@@00P6A_NU1@1@Z@Z ; std::_Med3_unchecked<_REGION_GENERIC *,bool (__cdecl*)(_REGION_GENERIC,_REGION_GENERIC)>

; 8290 :         _STD _Med3_unchecked(_Mid - _Step, _Mid, _Mid + _Step, _Pred);

  00074	ff 75 14	 push	 DWORD PTR __Pred$[ebp]
  00077	8d 04 37	 lea	 eax, DWORD PTR [edi+esi]
  0007a	50		 push	 eax
  0007b	8b c6		 mov	 eax, esi
  0007d	2b c7		 sub	 eax, edi
  0007f	56		 push	 esi
  00080	50		 push	 eax
  00081	e8 00 00 00 00	 call	 ??$_Med3_unchecked@PAU_REGION_GENERIC@@P6A_NU1@0@Z@std@@YAXPAU_REGION_GENERIC@@00P6A_NU1@1@Z@Z ; std::_Med3_unchecked<_REGION_GENERIC *,bool (__cdecl*)(_REGION_GENERIC,_REGION_GENERIC)>

; 8291 :         _STD _Med3_unchecked(_Last - _Two_step, _Last - _Step, _Last, _Pred);

  00086	8b 4d f4	 mov	 ecx, DWORD PTR __Last$1$[ebp]
  00089	8b c1		 mov	 eax, ecx
  0008b	2b c7		 sub	 eax, edi
  0008d	8b 7d 14	 mov	 edi, DWORD PTR __Pred$[ebp]
  00090	57		 push	 edi
  00091	51		 push	 ecx
  00092	50		 push	 eax
  00093	2b cb		 sub	 ecx, ebx
  00095	89 45 f4	 mov	 DWORD PTR $T1[ebp], eax
  00098	51		 push	 ecx
  00099	e8 00 00 00 00	 call	 ??$_Med3_unchecked@PAU_REGION_GENERIC@@P6A_NU1@0@Z@std@@YAXPAU_REGION_GENERIC@@00P6A_NU1@1@Z@Z ; std::_Med3_unchecked<_REGION_GENERIC *,bool (__cdecl*)(_REGION_GENERIC,_REGION_GENERIC)>

; 8292 :         _STD _Med3_unchecked(_First + _Step, _Mid, _Last - _Step, _Pred);
; 8293 :     } else {

  0009e	8b 45 f4	 mov	 eax, DWORD PTR $T1[ebp]
  000a1	83 c4 30	 add	 esp, 48			; 00000030H
  000a4	8b 4d f8	 mov	 ecx, DWORD PTR $T2[ebp]
  000a7	eb 02		 jmp	 SHORT $LN36@Partition_
$LN35@Partition_:

; 8294 :         _STD _Med3_unchecked(_First, _Mid, _Last, _Pred);

  000a9	8b c3		 mov	 eax, ebx
$LN36@Partition_:

; 8303 :     _RanIt _Pfirst = _Mid;

  000ab	57		 push	 edi
  000ac	50		 push	 eax
  000ad	56		 push	 esi
  000ae	51		 push	 ecx
  000af	e8 00 00 00 00	 call	 ??$_Med3_unchecked@PAU_REGION_GENERIC@@P6A_NU1@0@Z@std@@YAXPAU_REGION_GENERIC@@00P6A_NU1@1@Z@Z ; std::_Med3_unchecked<_REGION_GENERIC *,bool (__cdecl*)(_REGION_GENERIC,_REGION_GENERIC)>
  000b4	83 c4 10	 add	 esp, 16			; 00000010H

; 8304 :     _RanIt _Plast  = _STD _Next_iter(_Pfirst);

  000b7	8d 5e 0c	 lea	 ebx, DWORD PTR [esi+12]
  000ba	89 5d fc	 mov	 DWORD PTR __Plast$1$[ebp], ebx

; 8305 : 
; 8306 :     while (_First < _Pfirst && !_DEBUG_LT_PRED(_Pred, *_STD _Prev_iter(_Pfirst), *_Pfirst)
; 8307 :            && !_Pred(*_Pfirst, *_STD _Prev_iter(_Pfirst))) {

  000bd	39 75 0c	 cmp	 DWORD PTR __First$[ebp], esi
  000c0	73 74		 jae	 SHORT $LN64@Partition_
  000c2	8b 5d 0c	 mov	 ebx, DWORD PTR __First$[ebp]
$LL2@Partition_:
  000c5	f3 0f 7e 06	 movq	 xmm0, QWORD PTR [esi]
  000c9	8d 56 f4	 lea	 edx, DWORD PTR [esi-12]
  000cc	8b 46 08	 mov	 eax, DWORD PTR [esi+8]
  000cf	83 ec 0c	 sub	 esp, 12			; 0000000cH
  000d2	8b cc		 mov	 ecx, esp
  000d4	89 55 f4	 mov	 DWORD PTR tv252[ebp], edx
  000d7	83 ec 0c	 sub	 esp, 12			; 0000000cH
  000da	66 0f d6 01	 movq	 QWORD PTR [ecx], xmm0
  000de	f3 0f 7e 02	 movq	 xmm0, QWORD PTR [edx]
  000e2	89 41 08	 mov	 DWORD PTR [ecx+8], eax
  000e5	8b cc		 mov	 ecx, esp
  000e7	8b 42 08	 mov	 eax, DWORD PTR [edx+8]
  000ea	66 0f d6 01	 movq	 QWORD PTR [ecx], xmm0
  000ee	89 41 08	 mov	 DWORD PTR [ecx+8], eax
  000f1	ff d7		 call	 edi
  000f3	83 c4 18	 add	 esp, 24			; 00000018H
  000f6	84 c0		 test	 al, al
  000f8	75 39		 jne	 SHORT $LN89@Partition_
  000fa	8b 45 f4	 mov	 eax, DWORD PTR tv252[ebp]
  000fd	83 ec 0c	 sub	 esp, 12			; 0000000cH
  00100	8b cc		 mov	 ecx, esp
  00102	83 ec 0c	 sub	 esp, 12			; 0000000cH
  00105	f3 0f 7e 00	 movq	 xmm0, QWORD PTR [eax]
  00109	8b 40 08	 mov	 eax, DWORD PTR [eax+8]
  0010c	66 0f d6 01	 movq	 QWORD PTR [ecx], xmm0
  00110	f3 0f 7e 06	 movq	 xmm0, QWORD PTR [esi]
  00114	89 41 08	 mov	 DWORD PTR [ecx+8], eax
  00117	8b cc		 mov	 ecx, esp
  00119	8b 46 08	 mov	 eax, DWORD PTR [esi+8]
  0011c	66 0f d6 01	 movq	 QWORD PTR [ecx], xmm0
  00120	89 41 08	 mov	 DWORD PTR [ecx+8], eax
  00123	ff d7		 call	 edi
  00125	83 c4 18	 add	 esp, 24			; 00000018H
  00128	84 c0		 test	 al, al
  0012a	75 07		 jne	 SHORT $LN89@Partition_

; 8308 :         --_Pfirst;

  0012c	8b 75 f4	 mov	 esi, DWORD PTR tv252[ebp]
  0012f	3b de		 cmp	 ebx, esi
  00131	72 92		 jb	 SHORT $LL2@Partition_
$LN89@Partition_:
  00133	8b 5d fc	 mov	 ebx, DWORD PTR __Plast$1$[ebp]
$LN64@Partition_:

; 8309 :     }
; 8310 : 
; 8311 :     while (_Plast < _Last && !_DEBUG_LT_PRED(_Pred, *_Plast, *_Pfirst) && !_Pred(*_Pfirst, *_Plast)) {

  00136	8b 45 10	 mov	 eax, DWORD PTR __Last$[ebp]
  00139	3b d8		 cmp	 ebx, eax
  0013b	73 73		 jae	 SHORT $LN5@Partition_
  0013d	0f 1f 00	 npad	 3
$LL4@Partition_:
  00140	f3 0f 7e 06	 movq	 xmm0, QWORD PTR [esi]
  00144	83 ec 0c	 sub	 esp, 12			; 0000000cH
  00147	8b 46 08	 mov	 eax, DWORD PTR [esi+8]
  0014a	8b cc		 mov	 ecx, esp
  0014c	83 ec 0c	 sub	 esp, 12			; 0000000cH
  0014f	66 0f d6 01	 movq	 QWORD PTR [ecx], xmm0
  00153	f3 0f 7e 03	 movq	 xmm0, QWORD PTR [ebx]
  00157	89 41 08	 mov	 DWORD PTR [ecx+8], eax
  0015a	8b cc		 mov	 ecx, esp
  0015c	8b 43 08	 mov	 eax, DWORD PTR [ebx+8]
  0015f	66 0f d6 01	 movq	 QWORD PTR [ecx], xmm0
  00163	89 41 08	 mov	 DWORD PTR [ecx+8], eax
  00166	ff d7		 call	 edi
  00168	83 c4 18	 add	 esp, 24			; 00000018H
  0016b	84 c0		 test	 al, al
  0016d	75 3b		 jne	 SHORT $LN94@Partition_
  0016f	f3 0f 7e 03	 movq	 xmm0, QWORD PTR [ebx]
  00173	83 ec 0c	 sub	 esp, 12			; 0000000cH
  00176	8b 43 08	 mov	 eax, DWORD PTR [ebx+8]
  00179	8b cc		 mov	 ecx, esp
  0017b	83 ec 0c	 sub	 esp, 12			; 0000000cH
  0017e	66 0f d6 01	 movq	 QWORD PTR [ecx], xmm0
  00182	f3 0f 7e 06	 movq	 xmm0, QWORD PTR [esi]
  00186	89 41 08	 mov	 DWORD PTR [ecx+8], eax
  00189	8b cc		 mov	 ecx, esp
  0018b	8b 46 08	 mov	 eax, DWORD PTR [esi+8]
  0018e	66 0f d6 01	 movq	 QWORD PTR [ecx], xmm0
  00192	89 41 08	 mov	 DWORD PTR [ecx+8], eax
  00195	ff d7		 call	 edi
  00197	83 c4 18	 add	 esp, 24			; 00000018H
  0019a	84 c0		 test	 al, al
  0019c	8b 45 10	 mov	 eax, DWORD PTR __Last$[ebp]
  0019f	75 0c		 jne	 SHORT $LN90@Partition_

; 8312 :         ++_Plast;

  001a1	83 c3 0c	 add	 ebx, 12			; 0000000cH
  001a4	3b d8		 cmp	 ebx, eax
  001a6	72 98		 jb	 SHORT $LL4@Partition_

; 8309 :     }
; 8310 : 
; 8311 :     while (_Plast < _Last && !_DEBUG_LT_PRED(_Pred, *_Plast, *_Pfirst) && !_Pred(*_Pfirst, *_Plast)) {

  001a8	eb 03		 jmp	 SHORT $LN90@Partition_
$LN94@Partition_:
  001aa	8b 45 10	 mov	 eax, DWORD PTR __Last$[ebp]
$LN90@Partition_:
  001ad	89 5d fc	 mov	 DWORD PTR __Plast$1$[ebp], ebx
$LN5@Partition_:

; 8313 :     }
; 8314 : 
; 8315 :     _RanIt _Gfirst = _Plast;

  001b0	8b fb		 mov	 edi, ebx

; 8316 :     _RanIt _Glast  = _Pfirst;

  001b2	8b d6		 mov	 edx, esi
$LN120@Partition_:

; 8319 :         for (; _Gfirst < _Last; ++_Gfirst) {

  001b4	89 55 f8	 mov	 DWORD PTR __Glast$1$[ebp], edx
$LN119@Partition_:
  001b7	89 7d f4	 mov	 DWORD PTR __Gfirst$1$[ebp], edi
  001ba	66 0f 1f 44 00
	00		 npad	 6
$LL8@Partition_:
  001c0	3b f8		 cmp	 edi, eax
  001c2	0f 83 a0 00 00
	00		 jae	 $LN68@Partition_
  001c8	0f 1f 84 00 00
	00 00 00	 npad	 8
$LL11@Partition_:

; 8320 :             if (_DEBUG_LT_PRED(_Pred, *_Pfirst, *_Gfirst)) {

  001d0	f3 0f 7e 07	 movq	 xmm0, QWORD PTR [edi]
  001d4	83 ec 0c	 sub	 esp, 12			; 0000000cH
  001d7	8b 47 08	 mov	 eax, DWORD PTR [edi+8]
  001da	8b cc		 mov	 ecx, esp
  001dc	83 ec 0c	 sub	 esp, 12			; 0000000cH
  001df	66 0f d6 01	 movq	 QWORD PTR [ecx], xmm0
  001e3	f3 0f 7e 06	 movq	 xmm0, QWORD PTR [esi]
  001e7	89 41 08	 mov	 DWORD PTR [ecx+8], eax
  001ea	8b cc		 mov	 ecx, esp
  001ec	8b 46 08	 mov	 eax, DWORD PTR [esi+8]
  001ef	66 0f d6 01	 movq	 QWORD PTR [ecx], xmm0
  001f3	89 41 08	 mov	 DWORD PTR [ecx+8], eax
  001f6	ff 55 14	 call	 DWORD PTR __Pred$[ebp]
  001f9	83 c4 18	 add	 esp, 24			; 00000018H
  001fc	84 c0		 test	 al, al
  001fe	75 53		 jne	 SHORT $LN9@Partition_

; 8321 :                 continue;
; 8322 :             } else if (_Pred(*_Gfirst, *_Pfirst)) {

  00200	f3 0f 7e 06	 movq	 xmm0, QWORD PTR [esi]
  00204	83 ec 0c	 sub	 esp, 12			; 0000000cH
  00207	8b 46 08	 mov	 eax, DWORD PTR [esi+8]
  0020a	8b cc		 mov	 ecx, esp
  0020c	83 ec 0c	 sub	 esp, 12			; 0000000cH
  0020f	66 0f d6 01	 movq	 QWORD PTR [ecx], xmm0
  00213	f3 0f 7e 07	 movq	 xmm0, QWORD PTR [edi]
  00217	89 41 08	 mov	 DWORD PTR [ecx+8], eax
  0021a	8b cc		 mov	 ecx, esp
  0021c	8b 47 08	 mov	 eax, DWORD PTR [edi+8]
  0021f	66 0f d6 01	 movq	 QWORD PTR [ecx], xmm0
  00223	89 41 08	 mov	 DWORD PTR [ecx+8], eax
  00226	ff 55 14	 call	 DWORD PTR __Pred$[ebp]
  00229	83 c4 18	 add	 esp, 24			; 00000018H
  0022c	84 c0		 test	 al, al
  0022e	75 2f		 jne	 SHORT $LN91@Partition_

; 8323 :                 break;
; 8324 :             } else if (_Plast != _Gfirst) {

  00230	3b df		 cmp	 ebx, edi
  00232	74 1c		 je	 SHORT $LN19@Partition_
; File C:\Program Files\Microsoft Visual Studio\2022\Professional\VC\Tools\MSVC\14.44.35207\include\utility

; 140  :     _Left    = _STD move(_Right);

  00234	f3 0f 7e 07	 movq	 xmm0, QWORD PTR [edi]
  00238	f3 0f 7e 0b	 movq	 xmm1, QWORD PTR [ebx]
  0023c	8b 4b 08	 mov	 ecx, DWORD PTR [ebx+8]
  0023f	66 0f d6 03	 movq	 QWORD PTR [ebx], xmm0
  00243	8b 47 08	 mov	 eax, DWORD PTR [edi+8]
  00246	89 43 08	 mov	 DWORD PTR [ebx+8], eax

; 141  :     _Right   = _STD move(_Tmp);

  00249	66 0f d6 0f	 movq	 QWORD PTR [edi], xmm1
  0024d	89 4f 08	 mov	 DWORD PTR [edi+8], ecx
$LN19@Partition_:
; File C:\Program Files\Microsoft Visual Studio\2022\Professional\VC\Tools\MSVC\14.44.35207\include\algorithm

; 8319 :         for (; _Gfirst < _Last; ++_Gfirst) {

  00250	83 c3 0c	 add	 ebx, 12			; 0000000cH
$LN9@Partition_:
  00253	83 c7 0c	 add	 edi, 12			; 0000000cH
  00256	3b 7d 10	 cmp	 edi, DWORD PTR __Last$[ebp]
  00259	0f 82 71 ff ff
	ff		 jb	 $LL11@Partition_
$LN91@Partition_:
  0025f	8b 55 f8	 mov	 edx, DWORD PTR __Glast$1$[ebp]
  00262	89 5d fc	 mov	 DWORD PTR __Plast$1$[ebp], ebx
  00265	89 7d f4	 mov	 DWORD PTR __Gfirst$1$[ebp], edi
$LN68@Partition_:

; 8332 :         for (; _First < _Glast; --_Glast) {

  00268	8b 45 0c	 mov	 eax, DWORD PTR __First$[ebp]
  0026b	3b d0		 cmp	 edx, eax
  0026d	0f 86 b4 00 00
	00		 jbe	 $LN118@Partition_
  00273	8b 5d f8	 mov	 ebx, DWORD PTR __Glast$1$[ebp]
  00276	8d 7b f4	 lea	 edi, DWORD PTR [ebx-12]
  00279	0f 1f 80 00 00
	00 00		 npad	 7
$LL14@Partition_:

; 8333 :             const auto _Glast_prev = _STD _Prev_iter(_Glast);
; 8334 :             if (_DEBUG_LT_PRED(_Pred, *_Glast_prev, *_Pfirst)) {

  00280	f3 0f 7e 06	 movq	 xmm0, QWORD PTR [esi]
  00284	83 ec 0c	 sub	 esp, 12			; 0000000cH
  00287	8b 46 08	 mov	 eax, DWORD PTR [esi+8]
  0028a	8b cc		 mov	 ecx, esp
  0028c	83 ec 0c	 sub	 esp, 12			; 0000000cH
  0028f	66 0f d6 01	 movq	 QWORD PTR [ecx], xmm0
  00293	f3 0f 7e 07	 movq	 xmm0, QWORD PTR [edi]
  00297	89 41 08	 mov	 DWORD PTR [ecx+8], eax
  0029a	8b cc		 mov	 ecx, esp
  0029c	8b 47 08	 mov	 eax, DWORD PTR [edi+8]
  0029f	66 0f d6 01	 movq	 QWORD PTR [ecx], xmm0
  002a3	89 41 08	 mov	 DWORD PTR [ecx+8], eax
  002a6	ff 55 14	 call	 DWORD PTR __Pred$[ebp]
  002a9	83 c4 18	 add	 esp, 24			; 00000018H
  002ac	84 c0		 test	 al, al
  002ae	75 53		 jne	 SHORT $LN12@Partition_

; 8335 :                 continue;
; 8336 :             } else if (_Pred(*_Pfirst, *_Glast_prev)) {

  002b0	f3 0f 7e 07	 movq	 xmm0, QWORD PTR [edi]
  002b4	83 ec 0c	 sub	 esp, 12			; 0000000cH
  002b7	8b 47 08	 mov	 eax, DWORD PTR [edi+8]
  002ba	8b cc		 mov	 ecx, esp
  002bc	83 ec 0c	 sub	 esp, 12			; 0000000cH
  002bf	66 0f d6 01	 movq	 QWORD PTR [ecx], xmm0
  002c3	f3 0f 7e 06	 movq	 xmm0, QWORD PTR [esi]
  002c7	89 41 08	 mov	 DWORD PTR [ecx+8], eax
  002ca	8b cc		 mov	 ecx, esp
  002cc	8b 46 08	 mov	 eax, DWORD PTR [esi+8]
  002cf	66 0f d6 01	 movq	 QWORD PTR [ecx], xmm0
  002d3	89 41 08	 mov	 DWORD PTR [ecx+8], eax
  002d6	ff 55 14	 call	 DWORD PTR __Pred$[ebp]
  002d9	83 c4 18	 add	 esp, 24			; 00000018H
  002dc	84 c0		 test	 al, al
  002de	75 36		 jne	 SHORT $LN95@Partition_

; 8337 :                 break;
; 8338 :             } else if (--_Pfirst != _Glast_prev) {

  002e0	83 ee 0c	 sub	 esi, 12			; 0000000cH
  002e3	3b f7		 cmp	 esi, edi
  002e5	74 1c		 je	 SHORT $LN12@Partition_
; File C:\Program Files\Microsoft Visual Studio\2022\Professional\VC\Tools\MSVC\14.44.35207\include\utility

; 140  :     _Left    = _STD move(_Right);

  002e7	f3 0f 7e 07	 movq	 xmm0, QWORD PTR [edi]
  002eb	f3 0f 7e 0e	 movq	 xmm1, QWORD PTR [esi]
  002ef	8b 4e 08	 mov	 ecx, DWORD PTR [esi+8]
  002f2	66 0f d6 06	 movq	 QWORD PTR [esi], xmm0
  002f6	8b 47 08	 mov	 eax, DWORD PTR [edi+8]
  002f9	89 46 08	 mov	 DWORD PTR [esi+8], eax

; 141  :     _Right   = _STD move(_Tmp);

  002fc	66 0f d6 0f	 movq	 QWORD PTR [edi], xmm1
  00300	89 4f 08	 mov	 DWORD PTR [edi+8], ecx
$LN12@Partition_:
; File C:\Program Files\Microsoft Visual Studio\2022\Professional\VC\Tools\MSVC\14.44.35207\include\algorithm

; 8332 :         for (; _First < _Glast; --_Glast) {

  00303	8b 45 0c	 mov	 eax, DWORD PTR __First$[ebp]
  00306	83 eb 0c	 sub	 ebx, 12			; 0000000cH
  00309	83 ef 0c	 sub	 edi, 12			; 0000000cH
  0030c	3b c3		 cmp	 eax, ebx
  0030e	0f 82 6c ff ff
	ff		 jb	 $LL14@Partition_

; 8335 :                 continue;
; 8336 :             } else if (_Pred(*_Pfirst, *_Glast_prev)) {

  00314	eb 03		 jmp	 SHORT $LN92@Partition_
$LN95@Partition_:
  00316	8b 45 0c	 mov	 eax, DWORD PTR __First$[ebp]
$LN92@Partition_:
  00319	8b 7d f4	 mov	 edi, DWORD PTR __Gfirst$1$[ebp]
  0031c	89 5d f8	 mov	 DWORD PTR __Glast$1$[ebp], ebx
  0031f	8b 55 f8	 mov	 edx, DWORD PTR __Glast$1$[ebp]

; 8339 :                 swap(*_Pfirst, *_Glast_prev); // intentional ADL
; 8340 :             }
; 8341 :         }
; 8342 : 
; 8343 :         if (_Glast == _First && _Gfirst == _Last) {

  00322	3b d0		 cmp	 edx, eax
  00324	8b 5d fc	 mov	 ebx, DWORD PTR __Plast$1$[ebp]
$LN118@Partition_:
  00327	75 59		 jne	 SHORT $LN27@Partition_
  00329	3b 7d 10	 cmp	 edi, DWORD PTR __Last$[ebp]
  0032c	0f 84 d0 00 00
	00		 je	 $LN70@Partition_

; 8344 :             return pair<_RanIt, _RanIt>(_Pfirst, _Plast);
; 8345 :         }
; 8346 : 
; 8347 :         if (_Glast == _First) { // no room at bottom, rotate pivot upward
; 8348 :             if (_Plast != _Gfirst) {

  00332	3b df		 cmp	 ebx, edi
  00334	74 1c		 je	 SHORT $LN48@Partition_
; File C:\Program Files\Microsoft Visual Studio\2022\Professional\VC\Tools\MSVC\14.44.35207\include\utility

; 140  :     _Left    = _STD move(_Right);

  00336	f3 0f 7e 03	 movq	 xmm0, QWORD PTR [ebx]
  0033a	f3 0f 7e 0e	 movq	 xmm1, QWORD PTR [esi]
  0033e	8b 4e 08	 mov	 ecx, DWORD PTR [esi+8]
  00341	66 0f d6 06	 movq	 QWORD PTR [esi], xmm0
  00345	8b 43 08	 mov	 eax, DWORD PTR [ebx+8]
  00348	89 46 08	 mov	 DWORD PTR [esi+8], eax

; 141  :     _Right   = _STD move(_Tmp);

  0034b	66 0f d6 0b	 movq	 QWORD PTR [ebx], xmm1
  0034f	89 4b 08	 mov	 DWORD PTR [ebx+8], ecx
$LN48@Partition_:

; 140  :     _Left    = _STD move(_Right);

  00352	f3 0f 7e 07	 movq	 xmm0, QWORD PTR [edi]
; File C:\Program Files\Microsoft Visual Studio\2022\Professional\VC\Tools\MSVC\14.44.35207\include\algorithm

; 8352 :             ++_Plast;

  00356	83 c3 0c	 add	 ebx, 12			; 0000000cH
; File C:\Program Files\Microsoft Visual Studio\2022\Professional\VC\Tools\MSVC\14.44.35207\include\utility

; 139  :     _Ty _Tmp = _STD move(_Left);

  00359	f3 0f 7e 0e	 movq	 xmm1, QWORD PTR [esi]
  0035d	8b 4e 08	 mov	 ecx, DWORD PTR [esi+8]

; 140  :     _Left    = _STD move(_Right);

  00360	66 0f d6 06	 movq	 QWORD PTR [esi], xmm0
  00364	8b 47 08	 mov	 eax, DWORD PTR [edi+8]
  00367	89 46 08	 mov	 DWORD PTR [esi+8], eax
; File C:\Program Files\Microsoft Visual Studio\2022\Professional\VC\Tools\MSVC\14.44.35207\include\algorithm

; 8354 :             ++_Pfirst;

  0036a	83 c6 0c	 add	 esi, 12			; 0000000cH

; 8355 :             ++_Gfirst;

  0036d	8b 45 10	 mov	 eax, DWORD PTR __Last$[ebp]
; File C:\Program Files\Microsoft Visual Studio\2022\Professional\VC\Tools\MSVC\14.44.35207\include\utility

; 141  :     _Right   = _STD move(_Tmp);

  00370	66 0f d6 0f	 movq	 QWORD PTR [edi], xmm1
  00374	89 4f 08	 mov	 DWORD PTR [edi+8], ecx
; File C:\Program Files\Microsoft Visual Studio\2022\Professional\VC\Tools\MSVC\14.44.35207\include\algorithm

; 8355 :             ++_Gfirst;

  00377	83 c7 0c	 add	 edi, 12			; 0000000cH
  0037a	89 5d fc	 mov	 DWORD PTR __Plast$1$[ebp], ebx
  0037d	e9 35 fe ff ff	 jmp	 $LN119@Partition_
$LN27@Partition_:

; 8356 :         } else if (_Gfirst == _Last) { // no room at top, rotate pivot downward

  00382	83 c2 f4	 add	 edx, -12		; fffffff4H
  00385	89 55 f8	 mov	 DWORD PTR __Glast$1$[ebp], edx
  00388	3b 7d 10	 cmp	 edi, DWORD PTR __Last$[ebp]
  0038b	75 4e		 jne	 SHORT $LN30@Partition_

; 8357 :             if (--_Glast != --_Pfirst) {

  0038d	83 ee 0c	 sub	 esi, 12			; 0000000cH
  00390	3b d6		 cmp	 edx, esi
  00392	74 1c		 je	 SHORT $LN54@Partition_
; File C:\Program Files\Microsoft Visual Studio\2022\Professional\VC\Tools\MSVC\14.44.35207\include\utility

; 140  :     _Left    = _STD move(_Right);

  00394	f3 0f 7e 06	 movq	 xmm0, QWORD PTR [esi]
  00398	f3 0f 7e 0a	 movq	 xmm1, QWORD PTR [edx]
  0039c	8b 4a 08	 mov	 ecx, DWORD PTR [edx+8]
  0039f	66 0f d6 02	 movq	 QWORD PTR [edx], xmm0
  003a3	8b 46 08	 mov	 eax, DWORD PTR [esi+8]
  003a6	89 42 08	 mov	 DWORD PTR [edx+8], eax

; 141  :     _Right   = _STD move(_Tmp);

  003a9	66 0f d6 0e	 movq	 QWORD PTR [esi], xmm1
  003ad	89 4e 08	 mov	 DWORD PTR [esi+8], ecx
$LN54@Partition_:

; 140  :     _Left    = _STD move(_Right);

  003b0	f3 0f 7e 43 f4	 movq	 xmm0, QWORD PTR [ebx-12]
; File C:\Program Files\Microsoft Visual Studio\2022\Professional\VC\Tools\MSVC\14.44.35207\include\algorithm

; 8361 :             swap(*_Pfirst, *--_Plast); // intentional ADL

  003b5	83 eb 0c	 sub	 ebx, 12			; 0000000cH
; File C:\Program Files\Microsoft Visual Studio\2022\Professional\VC\Tools\MSVC\14.44.35207\include\utility

; 139  :     _Ty _Tmp = _STD move(_Left);

  003b8	f3 0f 7e 0e	 movq	 xmm1, QWORD PTR [esi]
  003bc	8b 4e 08	 mov	 ecx, DWORD PTR [esi+8]

; 140  :     _Left    = _STD move(_Right);

  003bf	66 0f d6 06	 movq	 QWORD PTR [esi], xmm0
  003c3	8b 43 08	 mov	 eax, DWORD PTR [ebx+8]
  003c6	89 46 08	 mov	 DWORD PTR [esi+8], eax
; File C:\Program Files\Microsoft Visual Studio\2022\Professional\VC\Tools\MSVC\14.44.35207\include\algorithm

; 8362 :         } else {

  003c9	8b 45 10	 mov	 eax, DWORD PTR __Last$[ebp]
; File C:\Program Files\Microsoft Visual Studio\2022\Professional\VC\Tools\MSVC\14.44.35207\include\utility

; 141  :     _Right   = _STD move(_Tmp);

  003cc	66 0f d6 0b	 movq	 QWORD PTR [ebx], xmm1
; File C:\Program Files\Microsoft Visual Studio\2022\Professional\VC\Tools\MSVC\14.44.35207\include\algorithm

; 8361 :             swap(*_Pfirst, *--_Plast); // intentional ADL

  003d0	89 5d fc	 mov	 DWORD PTR __Plast$1$[ebp], ebx
; File C:\Program Files\Microsoft Visual Studio\2022\Professional\VC\Tools\MSVC\14.44.35207\include\utility

; 141  :     _Right   = _STD move(_Tmp);

  003d3	89 4b 08	 mov	 DWORD PTR [ebx+8], ecx
; File C:\Program Files\Microsoft Visual Studio\2022\Professional\VC\Tools\MSVC\14.44.35207\include\algorithm

; 8362 :         } else {

  003d6	e9 e5 fd ff ff	 jmp	 $LL8@Partition_
$LN30@Partition_:
; File C:\Program Files\Microsoft Visual Studio\2022\Professional\VC\Tools\MSVC\14.44.35207\include\utility

; 139  :     _Ty _Tmp = _STD move(_Left);

  003db	f3 0f 7e 0f	 movq	 xmm1, QWORD PTR [edi]
  003df	8b 4f 08	 mov	 ecx, DWORD PTR [edi+8]

; 140  :     _Left    = _STD move(_Right);

  003e2	f3 0f 7e 02	 movq	 xmm0, QWORD PTR [edx]
  003e6	66 0f d6 07	 movq	 QWORD PTR [edi], xmm0
  003ea	8b 42 08	 mov	 eax, DWORD PTR [edx+8]
  003ed	89 47 08	 mov	 DWORD PTR [edi+8], eax
; File C:\Program Files\Microsoft Visual Studio\2022\Professional\VC\Tools\MSVC\14.44.35207\include\algorithm

; 8364 :             ++_Gfirst;

  003f0	83 c7 0c	 add	 edi, 12			; 0000000cH
  003f3	8b 45 10	 mov	 eax, DWORD PTR __Last$[ebp]
; File C:\Program Files\Microsoft Visual Studio\2022\Professional\VC\Tools\MSVC\14.44.35207\include\utility

; 141  :     _Right   = _STD move(_Tmp);

  003f6	66 0f d6 0a	 movq	 QWORD PTR [edx], xmm1
  003fa	89 4a 08	 mov	 DWORD PTR [edx+8], ecx
  003fd	e9 b2 fd ff ff	 jmp	 $LN120@Partition_
$LN70@Partition_:

; 274  :         : first(_STD forward<_Other1>(_Val1)), second(_STD forward<_Other2>(_Val2)) {

  00402	8b 45 08	 mov	 eax, DWORD PTR ___$ReturnUdt$[ebp]
; File C:\Program Files\Microsoft Visual Studio\2022\Professional\VC\Tools\MSVC\14.44.35207\include\algorithm

; 8367 : }

  00405	5f		 pop	 edi
; File C:\Program Files\Microsoft Visual Studio\2022\Professional\VC\Tools\MSVC\14.44.35207\include\utility

; 274  :         : first(_STD forward<_Other1>(_Val1)), second(_STD forward<_Other2>(_Val2)) {

  00406	89 30		 mov	 DWORD PTR [eax], esi
; File C:\Program Files\Microsoft Visual Studio\2022\Professional\VC\Tools\MSVC\14.44.35207\include\algorithm

; 8367 : }

  00408	5e		 pop	 esi
; File C:\Program Files\Microsoft Visual Studio\2022\Professional\VC\Tools\MSVC\14.44.35207\include\utility

; 274  :         : first(_STD forward<_Other1>(_Val1)), second(_STD forward<_Other2>(_Val2)) {

  00409	89 58 04	 mov	 DWORD PTR [eax+4], ebx
; File C:\Program Files\Microsoft Visual Studio\2022\Professional\VC\Tools\MSVC\14.44.35207\include\algorithm

; 8367 : }

  0040c	5b		 pop	 ebx
  0040d	8b e5		 mov	 esp, ebp
  0040f	5d		 pop	 ebp
  00410	c3		 ret	 0
??$_Partition_by_median_guess_unchecked@PAU_REGION_GENERIC@@P6A_NU1@0@Z@std@@YA?AU?$pair@PAU_REGION_GENERIC@@PAU1@@0@PAU_REGION_GENERIC@@0P6A_NU2@1@Z@Z ENDP ; std::_Partition_by_median_guess_unchecked<_REGION_GENERIC *,bool (__cdecl*)(_REGION_GENERIC,_REGION_GENERIC)>
_TEXT	ENDS
; Function compile flags: /Ogtp
; File C:\Program Files\Microsoft Visual Studio\2022\Professional\VC\Tools\MSVC\14.44.35207\include\__msvc_heap_algorithms.hpp
;	COMDAT ??$_Make_heap_unchecked@PAU_REGION_GENERIC@@P6A_NU1@0@Z@std@@YAXPAU_REGION_GENERIC@@0P6A_NU1@1@Z@Z
_TEXT	SEGMENT
__Val$1$ = -32						; size = 8
tv208 = -24						; size = 4
tv271 = -20						; size = 4
__Idx$1$ = -16						; size = 4
__Bottom$1$ = -12					; size = 4
__Val$2$ = -8						; size = 4
__Max_sequence_non_leaf$1$ = -4				; size = 4
__First$ = 8						; size = 4
__Last$ = 12						; size = 4
__Hole$1$ = 12						; size = 4
__Pred$ = 16						; size = 4
??$_Make_heap_unchecked@PAU_REGION_GENERIC@@P6A_NU1@0@Z@std@@YAXPAU_REGION_GENERIC@@0P6A_NU1@1@Z@Z PROC ; std::_Make_heap_unchecked<_REGION_GENERIC *,bool (__cdecl*)(_REGION_GENERIC,_REGION_GENERIC)>, COMDAT

; 121  : _CONSTEXPR20 void _Make_heap_unchecked(_RanIt _First, _RanIt _Last, _Pr _Pred) {

  00000	55		 push	 ebp
  00001	8b ec		 mov	 ebp, esp
  00003	83 ec 20	 sub	 esp, 32			; 00000020H

; 122  :     // make [_First, _Last) into a heap
; 123  :     using _Diff   = _Iter_diff_t<_RanIt>;
; 124  :     _Diff _Bottom = _Last - _First;

  00006	8b 4d 0c	 mov	 ecx, DWORD PTR __Last$[ebp]
  00009	b8 ab aa aa 2a	 mov	 eax, 715827883		; 2aaaaaabH
  0000e	53		 push	 ebx
  0000f	56		 push	 esi
  00010	57		 push	 edi
  00011	8b 7d 08	 mov	 edi, DWORD PTR __First$[ebp]
  00014	2b cf		 sub	 ecx, edi
  00016	f7 e9		 imul	 ecx
  00018	d1 fa		 sar	 edx, 1
  0001a	8b ca		 mov	 ecx, edx
  0001c	c1 e9 1f	 shr	 ecx, 31			; 0000001fH
  0001f	03 ca		 add	 ecx, edx

; 125  :     for (_Diff _Hole = _Bottom >> 1; _Hole > 0;) { // shift for codegen

  00021	8b d9		 mov	 ebx, ecx
  00023	89 4d f4	 mov	 DWORD PTR __Bottom$1$[ebp], ecx
  00026	d1 fb		 sar	 ebx, 1
  00028	85 db		 test	 ebx, ebx
  0002a	0f 8e 6d 01 00
	00		 jle	 $LN3@Make_heap_

; 122  :     // make [_First, _Last) into a heap
; 123  :     using _Diff   = _Iter_diff_t<_RanIt>;
; 124  :     _Diff _Bottom = _Last - _First;

  00030	8d 41 ff	 lea	 eax, DWORD PTR [ecx-1]
  00033	89 45 ec	 mov	 DWORD PTR tv271[ebp], eax
  00036	d1 f8		 sar	 eax, 1
  00038	89 45 fc	 mov	 DWORD PTR __Max_sequence_non_leaf$1$[ebp], eax
  0003b	8d 04 5b	 lea	 eax, DWORD PTR [ebx+ebx*2]
  0003e	8d 04 87	 lea	 eax, DWORD PTR [edi+eax*4]
$LL4@Make_heap_:

; 126  :         // reheap top half, bottom to top
; 127  :         --_Hole;
; 128  :         _Iter_value_t<_RanIt> _Val(_STD move(*(_First + _Hole)));

  00041	f3 0f 7e 48 f4	 movq	 xmm1, QWORD PTR [eax-12]
  00046	83 e8 0c	 sub	 eax, 12			; 0000000cH
  00049	4b		 dec	 ebx
  0004a	89 45 e8	 mov	 DWORD PTR tv208[ebp], eax
  0004d	89 5d 0c	 mov	 DWORD PTR __Hole$1$[ebp], ebx

; 129  :         _STD _Pop_heap_hole_by_index(_First, _Hole, _Bottom, _STD move(_Val), _Pred);

  00050	8b f3		 mov	 esi, ebx
  00052	66 0f d6 4d e0	 movq	 QWORD PTR __Val$1$[ebp], xmm1
  00057	8b 40 08	 mov	 eax, DWORD PTR [eax+8]
  0005a	89 45 f8	 mov	 DWORD PTR __Val$2$[ebp], eax

; 69   :     while (_Idx < _Max_sequence_non_leaf) { // move _Hole down to larger child

  0005d	8b 45 fc	 mov	 eax, DWORD PTR __Max_sequence_non_leaf$1$[ebp]
  00060	89 5d f0	 mov	 DWORD PTR __Idx$1$[ebp], ebx
  00063	3b d8		 cmp	 ebx, eax
  00065	0f 8d 7c 00 00
	00		 jge	 $LN8@Make_heap_
  0006b	8b 5d 08	 mov	 ebx, DWORD PTR __First$[ebp]
  0006e	8b fe		 mov	 edi, esi
$LL7@Make_heap_:

; 70   :         _Idx = 2 * _Idx + 2;

  00070	03 ff		 add	 edi, edi

; 71   :         if (_DEBUG_LT_PRED(_Pred, *(_First + _Idx), *(_First + (_Idx - 1)))) {

  00072	83 ec 0c	 sub	 esp, 12			; 0000000cH
  00075	8b cc		 mov	 ecx, esp
  00077	83 ec 0c	 sub	 esp, 12			; 0000000cH
  0007a	8d 47 02	 lea	 eax, DWORD PTR [edi+2]
  0007d	8d 04 40	 lea	 eax, DWORD PTR [eax+eax*2]
  00080	f3 0f 7e 44 83
	f4		 movq	 xmm0, QWORD PTR [ebx+eax*4-12]
  00086	8d 14 83	 lea	 edx, DWORD PTR [ebx+eax*4]
  00089	8b 42 fc	 mov	 eax, DWORD PTR [edx-4]
  0008c	66 0f d6 01	 movq	 QWORD PTR [ecx], xmm0
  00090	f3 0f 7e 02	 movq	 xmm0, QWORD PTR [edx]
  00094	89 41 08	 mov	 DWORD PTR [ecx+8], eax
  00097	8b cc		 mov	 ecx, esp
  00099	8b 42 08	 mov	 eax, DWORD PTR [edx+8]
  0009c	66 0f d6 01	 movq	 QWORD PTR [ecx], xmm0
  000a0	89 41 08	 mov	 DWORD PTR [ecx+8], eax
  000a3	ff 55 10	 call	 DWORD PTR __Pred$[ebp]

; 72   :             --_Idx;
; 73   :         }
; 74   :         *(_First + _Hole) = _STD move(*(_First + _Idx));

  000a6	0f b6 c0	 movzx	 eax, al
  000a9	83 c4 18	 add	 esp, 24			; 00000018H
  000ac	f7 d8		 neg	 eax
  000ae	1b c0		 sbb	 eax, eax
  000b0	83 c0 02	 add	 eax, 2
  000b3	03 f8		 add	 edi, eax
  000b5	8d 04 7f	 lea	 eax, DWORD PTR [edi+edi*2]
  000b8	f3 0f 7e 04 83	 movq	 xmm0, QWORD PTR [ebx+eax*4]
  000bd	8d 14 83	 lea	 edx, DWORD PTR [ebx+eax*4]
  000c0	8d 04 76	 lea	 eax, DWORD PTR [esi+esi*2]

; 75   :         _Hole             = _Idx;

  000c3	8b f7		 mov	 esi, edi
  000c5	8d 0c 83	 lea	 ecx, DWORD PTR [ebx+eax*4]
  000c8	66 0f d6 01	 movq	 QWORD PTR [ecx], xmm0
  000cc	8b 42 08	 mov	 eax, DWORD PTR [edx+8]
  000cf	89 41 08	 mov	 DWORD PTR [ecx+8], eax
  000d2	8b 45 fc	 mov	 eax, DWORD PTR __Max_sequence_non_leaf$1$[ebp]
  000d5	3b f8		 cmp	 edi, eax
  000d7	7c 97		 jl	 SHORT $LL7@Make_heap_
  000d9	f3 0f 7e 4d e0	 movq	 xmm1, QWORD PTR __Val$1$[ebp]
  000de	8b 5d 0c	 mov	 ebx, DWORD PTR __Hole$1$[ebp]
  000e1	8b 7d 08	 mov	 edi, DWORD PTR __First$[ebp]
  000e4	8b 4d f4	 mov	 ecx, DWORD PTR __Bottom$1$[ebp]
$LN8@Make_heap_:

; 76   :     }
; 77   : 
; 78   :     if (_Idx == _Max_sequence_non_leaf && _Bottom % 2 == 0) { // only child at bottom, move _Hole down to it

  000e7	3b f0		 cmp	 esi, eax
  000e9	75 24		 jne	 SHORT $LN10@Make_heap_
  000eb	f6 c1 01	 test	 cl, 1
  000ee	75 1f		 jne	 SHORT $LN10@Make_heap_

; 79   :         *(_First + _Hole) = _STD move(*(_First + (_Bottom - 1)));

  000f0	8d 04 49	 lea	 eax, DWORD PTR [ecx+ecx*2]
  000f3	f3 0f 7e 44 87
	f4		 movq	 xmm0, QWORD PTR [edi+eax*4-12]
  000f9	8d 14 87	 lea	 edx, DWORD PTR [edi+eax*4]
  000fc	8d 04 76	 lea	 eax, DWORD PTR [esi+esi*2]

; 80   :         _Hole             = _Bottom - 1;

  000ff	8b 75 ec	 mov	 esi, DWORD PTR tv271[ebp]
  00102	8d 0c 87	 lea	 ecx, DWORD PTR [edi+eax*4]
  00105	66 0f d6 01	 movq	 QWORD PTR [ecx], xmm0
  00109	8b 42 fc	 mov	 eax, DWORD PTR [edx-4]
  0010c	89 41 08	 mov	 DWORD PTR [ecx+8], eax
$LN10@Make_heap_:

; 27   :         _Top < _Hole && _DEBUG_LT_PRED(_Pred, *(_First + _Idx), _Val); _Idx = (_Hole - 1) >> 1) { // shift for codegen

  0010f	3b de		 cmp	 ebx, esi
  00111	7d 68		 jge	 SHORT $LN14@Make_heap_
$LL15@Make_heap_:
  00113	8b 4d 08	 mov	 ecx, DWORD PTR __First$[ebp]
  00116	8d 7e ff	 lea	 edi, DWORD PTR [esi-1]
  00119	d1 ff		 sar	 edi, 1
  0011b	83 ec 0c	 sub	 esp, 12			; 0000000cH
  0011e	8d 04 7f	 lea	 eax, DWORD PTR [edi+edi*2]
  00121	f3 0f 7e 04 81	 movq	 xmm0, QWORD PTR [ecx+eax*4]
  00126	8d 1c 81	 lea	 ebx, DWORD PTR [ecx+eax*4]
  00129	8b 4d f8	 mov	 ecx, DWORD PTR __Val$2$[ebp]
  0012c	8b c4		 mov	 eax, esp
  0012e	83 ec 0c	 sub	 esp, 12			; 0000000cH
  00131	66 0f d6 08	 movq	 QWORD PTR [eax], xmm1
  00135	89 48 08	 mov	 DWORD PTR [eax+8], ecx
  00138	8b cc		 mov	 ecx, esp
  0013a	8b 43 08	 mov	 eax, DWORD PTR [ebx+8]
  0013d	66 0f d6 01	 movq	 QWORD PTR [ecx], xmm0
  00141	89 41 08	 mov	 DWORD PTR [ecx+8], eax
  00144	ff 55 10	 call	 DWORD PTR __Pred$[ebp]
  00147	83 c4 18	 add	 esp, 24			; 00000018H
  0014a	84 c0		 test	 al, al
  0014c	74 27		 je	 SHORT $LN30@Make_heap_

; 28   :         // move _Hole up to parent
; 29   :         *(_First + _Hole) = _STD move(*(_First + _Idx));

  0014e	8b 4d 08	 mov	 ecx, DWORD PTR __First$[ebp]
  00151	8d 04 76	 lea	 eax, DWORD PTR [esi+esi*2]
  00154	f3 0f 7e 03	 movq	 xmm0, QWORD PTR [ebx]
  00158	8d 0c 81	 lea	 ecx, DWORD PTR [ecx+eax*4]
  0015b	f3 0f 7e 4d e0	 movq	 xmm1, QWORD PTR __Val$1$[ebp]

; 30   :         _Hole             = _Idx;

  00160	8b f7		 mov	 esi, edi
  00162	66 0f d6 01	 movq	 QWORD PTR [ecx], xmm0
  00166	8b 43 08	 mov	 eax, DWORD PTR [ebx+8]
  00169	8b 5d 0c	 mov	 ebx, DWORD PTR __Hole$1$[ebp]
  0016c	89 41 08	 mov	 DWORD PTR [ecx+8], eax
  0016f	3b df		 cmp	 ebx, edi
  00171	7c a0		 jl	 SHORT $LL15@Make_heap_

; 27   :         _Top < _Hole && _DEBUG_LT_PRED(_Pred, *(_First + _Idx), _Val); _Idx = (_Hole - 1) >> 1) { // shift for codegen

  00173	eb 03		 jmp	 SHORT $LN29@Make_heap_
$LN30@Make_heap_:
  00175	8b 5d 0c	 mov	 ebx, DWORD PTR __Hole$1$[ebp]
$LN29@Make_heap_:
  00178	8b 7d 08	 mov	 edi, DWORD PTR __First$[ebp]
$LN14@Make_heap_:

; 31   :     }
; 32   : 
; 33   :     *(_First + _Hole) = _STD forward<_Ty>(_Val); // drop _Val into final hole

  0017b	f3 0f 7e 45 e0	 movq	 xmm0, QWORD PTR __Val$1$[ebp]
  00180	8d 04 76	 lea	 eax, DWORD PTR [esi+esi*2]
  00183	8b 4d f8	 mov	 ecx, DWORD PTR __Val$2$[ebp]
  00186	66 0f d6 04 87	 movq	 QWORD PTR [edi+eax*4], xmm0
  0018b	89 4c 87 08	 mov	 DWORD PTR [edi+eax*4+8], ecx

; 125  :     for (_Diff _Hole = _Bottom >> 1; _Hole > 0;) { // shift for codegen

  0018f	8b 4d f4	 mov	 ecx, DWORD PTR __Bottom$1$[ebp]
  00192	8b 45 e8	 mov	 eax, DWORD PTR tv208[ebp]
  00195	85 db		 test	 ebx, ebx
  00197	0f 8f a4 fe ff
	ff		 jg	 $LL4@Make_heap_
$LN3@Make_heap_:

; 130  :     }
; 131  : }

  0019d	5f		 pop	 edi
  0019e	5e		 pop	 esi
  0019f	5b		 pop	 ebx
  001a0	8b e5		 mov	 esp, ebp
  001a2	5d		 pop	 ebp
  001a3	c3		 ret	 0
??$_Make_heap_unchecked@PAU_REGION_GENERIC@@P6A_NU1@0@Z@std@@YAXPAU_REGION_GENERIC@@0P6A_NU1@1@Z@Z ENDP ; std::_Make_heap_unchecked<_REGION_GENERIC *,bool (__cdecl*)(_REGION_GENERIC,_REGION_GENERIC)>
_TEXT	ENDS
; Function compile flags: /Ogtp
; File C:\Program Files\Microsoft Visual Studio\2022\Professional\VC\Tools\MSVC\14.44.35207\include\xmemory
;	COMDAT ??1?$_Alloc_construct_ptr@V?$allocator@U?$_Tree_node@U?$pair@$$CBHPAVCSpawn@@@std@@PAX@std@@@std@@@std@@QAE@XZ
_TEXT	SEGMENT
??1?$_Alloc_construct_ptr@V?$allocator@U?$_Tree_node@U?$pair@$$CBHPAVCSpawn@@@std@@PAX@std@@@std@@@std@@QAE@XZ PROC ; std::_Alloc_construct_ptr<std::allocator<std::_Tree_node<std::pair<int const ,CSpawn *>,void *> > >::~_Alloc_construct_ptr<std::allocator<std::_Tree_node<std::pair<int const ,CSpawn *>,void *> > >, COMDAT
; _this$ = ecx

; 1172 :         if (_Ptr) {

  00000	8b 41 04	 mov	 eax, DWORD PTR [ecx+4]
  00003	85 c0		 test	 eax, eax
  00005	74 0b		 je	 SHORT $LN10@Alloc_cons

; 289  :         ::operator delete(_Ptr, _Bytes);

  00007	6a 18		 push	 24			; 00000018H
  00009	50		 push	 eax
  0000a	e8 00 00 00 00	 call	 ??3@YAXPAXI@Z		; operator delete
  0000f	83 c4 08	 add	 esp, 8
$LN10@Alloc_cons:

; 1173 :             _Al.deallocate(_Ptr, 1);
; 1174 :         }
; 1175 :     }

  00012	c3		 ret	 0
??1?$_Alloc_construct_ptr@V?$allocator@U?$_Tree_node@U?$pair@$$CBHPAVCSpawn@@@std@@PAX@std@@@std@@@std@@QAE@XZ ENDP ; std::_Alloc_construct_ptr<std::allocator<std::_Tree_node<std::pair<int const ,CSpawn *>,void *> > >::~_Alloc_construct_ptr<std::allocator<std::_Tree_node<std::pair<int const ,CSpawn *>,void *> > >
_TEXT	ENDS
; Function compile flags: /Ogtp
; File C:\Program Files\Microsoft Visual Studio\2022\Professional\VC\Tools\MSVC\14.44.35207\include\xmemory
;	COMDAT ??1?$_Alloc_construct_ptr@V?$allocator@U?$_Tree_node@U?$pair@$$CBHPAV?$list@PAVCEventItem@@V?$allocator@PAVCEventItem@@@std@@@std@@@std@@PAX@std@@@std@@@std@@QAE@XZ
_TEXT	SEGMENT
??1?$_Alloc_construct_ptr@V?$allocator@U?$_Tree_node@U?$pair@$$CBHPAV?$list@PAVCEventItem@@V?$allocator@PAVCEventItem@@@std@@@std@@@std@@PAX@std@@@std@@@std@@QAE@XZ PROC ; std::_Alloc_construct_ptr<std::allocator<std::_Tree_node<std::pair<int const ,std::list<CEventItem *,std::allocator<CEventItem *> > *>,void *> > >::~_Alloc_construct_ptr<std::allocator<std::_Tree_node<std::pair<int const ,std::list<CEventItem *,std::allocator<CEventItem *> > *>,void *> > >, COMDAT
; _this$ = ecx

; 1172 :         if (_Ptr) {

  00000	8b 41 04	 mov	 eax, DWORD PTR [ecx+4]
  00003	85 c0		 test	 eax, eax
  00005	74 0b		 je	 SHORT $LN10@Alloc_cons

; 289  :         ::operator delete(_Ptr, _Bytes);

  00007	6a 18		 push	 24			; 00000018H
  00009	50		 push	 eax
  0000a	e8 00 00 00 00	 call	 ??3@YAXPAXI@Z		; operator delete
  0000f	83 c4 08	 add	 esp, 8
$LN10@Alloc_cons:

; 1173 :             _Al.deallocate(_Ptr, 1);
; 1174 :         }
; 1175 :     }

  00012	c3		 ret	 0
??1?$_Alloc_construct_ptr@V?$allocator@U?$_Tree_node@U?$pair@$$CBHPAV?$list@PAVCEventItem@@V?$allocator@PAVCEventItem@@@std@@@std@@@std@@PAX@std@@@std@@@std@@QAE@XZ ENDP ; std::_Alloc_construct_ptr<std::allocator<std::_Tree_node<std::pair<int const ,std::list<CEventItem *,std::allocator<CEventItem *> > *>,void *> > >::~_Alloc_construct_ptr<std::allocator<std::_Tree_node<std::pair<int const ,std::list<CEventItem *,std::allocator<CEventItem *> > *>,void *> > >
_TEXT	ENDS
; Function compile flags: /Ogtp
; File C:\Program Files\Microsoft Visual Studio\2022\Professional\VC\Tools\MSVC\14.44.35207\include\xtree
; File C:\Program Files\Microsoft Visual Studio\2022\Professional\VC\Tools\MSVC\14.44.35207\include\type_traits
; File C:\Program Files\Microsoft Visual Studio\2022\Professional\VC\Tools\MSVC\14.44.35207\include\xtree
; File C:\Program Files\Microsoft Visual Studio\2022\Professional\VC\Tools\MSVC\14.44.35207\include\type_traits
; File C:\Program Files\Microsoft Visual Studio\2022\Professional\VC\Tools\MSVC\14.44.35207\include\xtree
;	COMDAT ??$_Find_lower_bound@H@?$_Tree@V?$_Tmap_traits@HPAV?$list@PAVCEventItem@@V?$allocator@PAVCEventItem@@@std@@@std@@U?$less@H@2@V?$allocator@U?$pair@$$CBHPAV?$list@PAVCEventItem@@V?$allocator@PAVCEventItem@@@std@@@std@@@std@@@2@$0A@@std@@@std@@IBE?AU?$_Tree_find_result@PAU?$_Tree_node@U?$pair@$$CBHPAV?$list@PAVCEventItem@@V?$allocator@PAVCEventItem@@@std@@@std@@@std@@PAX@std@@@1@ABH@Z
_TEXT	SEGMENT
___$ReturnUdt$ = 8					; size = 4
__Keyval$ = 12						; size = 4
??$_Find_lower_bound@H@?$_Tree@V?$_Tmap_traits@HPAV?$list@PAVCEventItem@@V?$allocator@PAVCEventItem@@@std@@@std@@U?$less@H@2@V?$allocator@U?$pair@$$CBHPAV?$list@PAVCEventItem@@V?$allocator@PAVCEventItem@@@std@@@std@@@std@@@2@$0A@@std@@@std@@IBE?AU?$_Tree_find_result@PAU?$_Tree_node@U?$pair@$$CBHPAV?$list@PAVCEventItem@@V?$allocator@PAVCEventItem@@@std@@@std@@@std@@PAX@std@@@1@ABH@Z PROC ; std::_Tree<std::_Tmap_traits<int,std::list<CEventItem *,std::allocator<CEventItem *> > *,std::less<int>,std::allocator<std::pair<int const ,std::list<CEventItem *,std::allocator<CEventItem *> > *> >,0> >::_Find_lower_bound<int>, COMDAT
; _this$ = ecx

; 1628 :     _Tree_find_result<_Nodeptr> _Find_lower_bound(const _Keyty& _Keyval) const {

  00000	55		 push	 ebp
  00001	8b ec		 mov	 ebp, esp

; 1629 :         const auto _Scary = _Get_scary();
; 1630 :         _Tree_find_result<_Nodeptr> _Result{{_Scary->_Myhead->_Parent, _Tree_child::_Right}, _Scary->_Myhead};

  00003	8b 09		 mov	 ecx, DWORD PTR [ecx]
  00005	8b 55 08	 mov	 edx, DWORD PTR ___$ReturnUdt$[ebp]
  00008	8b 41 04	 mov	 eax, DWORD PTR [ecx+4]
  0000b	89 02		 mov	 DWORD PTR [edx], eax
  0000d	c7 42 04 00 00
	00 00		 mov	 DWORD PTR [edx+4], 0
  00014	89 4a 08	 mov	 DWORD PTR [edx+8], ecx

; 1631 :         _Nodeptr _Trynode = _Result._Location._Parent;
; 1632 :         while (!_Trynode->_Isnil) {

  00017	80 78 0d 00	 cmp	 BYTE PTR [eax+13], 0
  0001b	75 28		 jne	 SHORT $LN13@Find_lower
; File C:\Program Files\Microsoft Visual Studio\2022\Professional\VC\Tools\MSVC\14.44.35207\include\type_traits

; 2380 :         return _Left < _Right;

  0001d	8b 4d 0c	 mov	 ecx, DWORD PTR __Keyval$[ebp]
  00020	56		 push	 esi
  00021	8b 31		 mov	 esi, DWORD PTR [ecx]
$LL2@Find_lower:
; File C:\Program Files\Microsoft Visual Studio\2022\Professional\VC\Tools\MSVC\14.44.35207\include\xtree

; 1633 :             _Result._Location._Parent = _Trynode;

  00023	89 02		 mov	 DWORD PTR [edx], eax
; File C:\Program Files\Microsoft Visual Studio\2022\Professional\VC\Tools\MSVC\14.44.35207\include\type_traits

; 2380 :         return _Left < _Right;

  00025	39 70 10	 cmp	 DWORD PTR [eax+16], esi
; File C:\Program Files\Microsoft Visual Studio\2022\Professional\VC\Tools\MSVC\14.44.35207\include\xtree

; 1634 :             if (_DEBUG_LT_PRED(_Getcomp(), _Traits::_Kfn(_Trynode->_Myval), _Keyval)) {

  00028	7d 07		 jge	 SHORT $LN4@Find_lower

; 1635 :                 _Result._Location._Child = _Tree_child::_Right;
; 1636 :                 _Trynode                 = _Trynode->_Right;

  0002a	8b 40 08	 mov	 eax, DWORD PTR [eax+8]
  0002d	33 c9		 xor	 ecx, ecx

; 1637 :             } else {

  0002f	eb 0a		 jmp	 SHORT $LN5@Find_lower
$LN4@Find_lower:

; 1638 :                 _Result._Location._Child = _Tree_child::_Left;
; 1639 :                 _Result._Bound           = _Trynode;

  00031	89 42 08	 mov	 DWORD PTR [edx+8], eax

; 1640 :                 _Trynode                 = _Trynode->_Left;

  00034	b9 01 00 00 00	 mov	 ecx, 1
  00039	8b 00		 mov	 eax, DWORD PTR [eax]
$LN5@Find_lower:

; 1631 :         _Nodeptr _Trynode = _Result._Location._Parent;
; 1632 :         while (!_Trynode->_Isnil) {

  0003b	89 4a 04	 mov	 DWORD PTR [edx+4], ecx
  0003e	80 78 0d 00	 cmp	 BYTE PTR [eax+13], 0
  00042	74 df		 je	 SHORT $LL2@Find_lower
  00044	5e		 pop	 esi
$LN13@Find_lower:

; 1641 :             }
; 1642 :         }
; 1643 : 
; 1644 :         return _Result;
; 1645 :     }

  00045	8b c2		 mov	 eax, edx
  00047	5d		 pop	 ebp
  00048	c2 08 00	 ret	 8
??$_Find_lower_bound@H@?$_Tree@V?$_Tmap_traits@HPAV?$list@PAVCEventItem@@V?$allocator@PAVCEventItem@@@std@@@std@@U?$less@H@2@V?$allocator@U?$pair@$$CBHPAV?$list@PAVCEventItem@@V?$allocator@PAVCEventItem@@@std@@@std@@@std@@@2@$0A@@std@@@std@@IBE?AU?$_Tree_find_result@PAU?$_Tree_node@U?$pair@$$CBHPAV?$list@PAVCEventItem@@V?$allocator@PAVCEventItem@@@std@@@std@@@std@@PAX@std@@@1@ABH@Z ENDP ; std::_Tree<std::_Tmap_traits<int,std::list<CEventItem *,std::allocator<CEventItem *> > *,std::less<int>,std::allocator<std::pair<int const ,std::list<CEventItem *,std::allocator<CEventItem *> > *> >,0> >::_Find_lower_bound<int>
_TEXT	ENDS
; Function compile flags: /Ogtp
; File C:\Program Files\Microsoft Visual Studio\2022\Professional\VC\Tools\MSVC\14.44.35207\include\xtree
; File C:\Program Files\Microsoft Visual Studio\2022\Professional\VC\Tools\MSVC\14.44.35207\include\utility
; File C:\Program Files\Microsoft Visual Studio\2022\Professional\VC\Tools\MSVC\14.44.35207\include\xmemory
; File C:\Program Files\Microsoft Visual Studio\2022\Professional\VC\Tools\MSVC\14.44.35207\include\xtree
;	COMDAT ??$_Erase_tree@V?$allocator@U?$_Tree_node@U?$pair@$$CBHPAV?$list@PAVCEventItem@@V?$allocator@PAVCEventItem@@@std@@@std@@@std@@PAX@std@@@std@@@?$_Tree_val@U?$_Tree_simple_types@U?$pair@$$CBHPAV?$list@PAVCEventItem@@V?$allocator@PAVCEventItem@@@std@@@std@@@std@@@std@@@std@@QAEXAAV?$allocator@U?$_Tree_node@U?$pair@$$CBHPAV?$list@PAVCEventItem@@V?$allocator@PAVCEventItem@@@std@@@std@@@std@@PAX@std@@@1@PAU?$_Tree_node@U?$pair@$$CBHPAV?$list@PAVCEventItem@@V?$allocator@PAVCEventItem@@@std@@@std@@@std@@PAX@1@@Z
_TEXT	SEGMENT
__Al$ = 8						; size = 4
__Rootnode$ = 12					; size = 4
??$_Erase_tree@V?$allocator@U?$_Tree_node@U?$pair@$$CBHPAV?$list@PAVCEventItem@@V?$allocator@PAVCEventItem@@@std@@@std@@@std@@PAX@std@@@std@@@?$_Tree_val@U?$_Tree_simple_types@U?$pair@$$CBHPAV?$list@PAVCEventItem@@V?$allocator@PAVCEventItem@@@std@@@std@@@std@@@std@@@std@@QAEXAAV?$allocator@U?$_Tree_node@U?$pair@$$CBHPAV?$list@PAVCEventItem@@V?$allocator@PAVCEventItem@@@std@@@std@@@std@@PAX@std@@@1@PAU?$_Tree_node@U?$pair@$$CBHPAV?$list@PAVCEventItem@@V?$allocator@PAVCEventItem@@@std@@@std@@@std@@PAX@1@@Z PROC ; std::_Tree_val<std::_Tree_simple_types<std::pair<int const ,std::list<CEventItem *,std::allocator<CEventItem *> > *> > >::_Erase_tree<std::allocator<std::_Tree_node<std::pair<int const ,std::list<CEventItem *,std::allocator<CEventItem *> > *>,void *> > >, COMDAT
; _this$ = ecx

; 767  :     void _Erase_tree(_Alnode& _Al, _Nodeptr _Rootnode) noexcept {

  00000	55		 push	 ebp
  00001	8b ec		 mov	 ebp, esp
  00003	53		 push	 ebx
  00004	56		 push	 esi

; 768  :         while (!_Rootnode->_Isnil) { // free subtrees, then node

  00005	8b 75 0c	 mov	 esi, DWORD PTR __Rootnode$[ebp]
  00008	8b d9		 mov	 ebx, ecx
  0000a	80 7e 0d 00	 cmp	 BYTE PTR [esi+13], 0
  0000e	75 25		 jne	 SHORT $LN34@Erase_tree
  00010	57		 push	 edi
  00011	8b 7d 08	 mov	 edi, DWORD PTR __Al$[ebp]
$LL2@Erase_tree:

; 769  :             _Erase_tree(_Al, _Rootnode->_Right);

  00014	ff 76 08	 push	 DWORD PTR [esi+8]
  00017	8b cb		 mov	 ecx, ebx
  00019	57		 push	 edi
  0001a	e8 00 00 00 00	 call	 ??$_Erase_tree@V?$allocator@U?$_Tree_node@U?$pair@$$CBHPAV?$list@PAVCEventItem@@V?$allocator@PAVCEventItem@@@std@@@std@@@std@@PAX@std@@@std@@@?$_Tree_val@U?$_Tree_simple_types@U?$pair@$$CBHPAV?$list@PAVCEventItem@@V?$allocator@PAVCEventItem@@@std@@@std@@@std@@@std@@@std@@QAEXAAV?$allocator@U?$_Tree_node@U?$pair@$$CBHPAV?$list@PAVCEventItem@@V?$allocator@PAVCEventItem@@@std@@@std@@@std@@PAX@std@@@1@PAU?$_Tree_node@U?$pair@$$CBHPAV?$list@PAVCEventItem@@V?$allocator@PAVCEventItem@@@std@@@std@@@std@@PAX@1@@Z ; std::_Tree_val<std::_Tree_simple_types<std::pair<int const ,std::list<CEventItem *,std::allocator<CEventItem *> > *> > >::_Erase_tree<std::allocator<std::_Tree_node<std::pair<int const ,std::list<CEventItem *,std::allocator<CEventItem *> > *>,void *> > >
; File C:\Program Files\Microsoft Visual Studio\2022\Professional\VC\Tools\MSVC\14.44.35207\include\utility

; 773  :     _Ty _Old_val = static_cast<_Ty&&>(_Val);

  0001f	8b c6		 mov	 eax, esi

; 774  :     _Val         = static_cast<_Other&&>(_New_val);

  00021	8b 36		 mov	 esi, DWORD PTR [esi]
; File C:\Program Files\Microsoft Visual Studio\2022\Professional\VC\Tools\MSVC\14.44.35207\include\xmemory

; 289  :         ::operator delete(_Ptr, _Bytes);

  00023	6a 18		 push	 24			; 00000018H
  00025	50		 push	 eax
  00026	e8 00 00 00 00	 call	 ??3@YAXPAXI@Z		; operator delete
  0002b	83 c4 08	 add	 esp, 8
; File C:\Program Files\Microsoft Visual Studio\2022\Professional\VC\Tools\MSVC\14.44.35207\include\xtree

; 768  :         while (!_Rootnode->_Isnil) { // free subtrees, then node

  0002e	80 7e 0d 00	 cmp	 BYTE PTR [esi+13], 0
  00032	74 e0		 je	 SHORT $LL2@Erase_tree
  00034	5f		 pop	 edi
$LN34@Erase_tree:
  00035	5e		 pop	 esi

; 770  :             _Alnode::value_type::_Freenode(_Al, _STD exchange(_Rootnode, _Rootnode->_Left));
; 771  :         }
; 772  :     }

  00036	5b		 pop	 ebx
  00037	5d		 pop	 ebp
  00038	c2 08 00	 ret	 8
??$_Erase_tree@V?$allocator@U?$_Tree_node@U?$pair@$$CBHPAV?$list@PAVCEventItem@@V?$allocator@PAVCEventItem@@@std@@@std@@@std@@PAX@std@@@std@@@?$_Tree_val@U?$_Tree_simple_types@U?$pair@$$CBHPAV?$list@PAVCEventItem@@V?$allocator@PAVCEventItem@@@std@@@std@@@std@@@std@@@std@@QAEXAAV?$allocator@U?$_Tree_node@U?$pair@$$CBHPAV?$list@PAVCEventItem@@V?$allocator@PAVCEventItem@@@std@@@std@@@std@@PAX@std@@@1@PAU?$_Tree_node@U?$pair@$$CBHPAV?$list@PAVCEventItem@@V?$allocator@PAVCEventItem@@@std@@@std@@@std@@PAX@1@@Z ENDP ; std::_Tree_val<std::_Tree_simple_types<std::pair<int const ,std::list<CEventItem *,std::allocator<CEventItem *> > *> > >::_Erase_tree<std::allocator<std::_Tree_node<std::pair<int const ,std::list<CEventItem *,std::allocator<CEventItem *> > *>,void *> > >
_TEXT	ENDS
; Function compile flags: /Ogtp
; File C:\Program Files\Microsoft Visual Studio\2022\Professional\VC\Tools\MSVC\14.44.35207\include\xtree
; File C:\Program Files\Microsoft Visual Studio\2022\Professional\VC\Tools\MSVC\14.44.35207\include\utility
; File C:\Program Files\Microsoft Visual Studio\2022\Professional\VC\Tools\MSVC\14.44.35207\include\xmemory
; File C:\Program Files\Microsoft Visual Studio\2022\Professional\VC\Tools\MSVC\14.44.35207\include\xtree
;	COMDAT ??$_Erase_tree@V?$allocator@U?$_Tree_node@U?$pair@$$CBHPAVCSpawn@@@std@@PAX@std@@@std@@@?$_Tree_val@U?$_Tree_simple_types@U?$pair@$$CBHPAVCSpawn@@@std@@@std@@@std@@QAEXAAV?$allocator@U?$_Tree_node@U?$pair@$$CBHPAVCSpawn@@@std@@PAX@std@@@1@PAU?$_Tree_node@U?$pair@$$CBHPAVCSpawn@@@std@@PAX@1@@Z
_TEXT	SEGMENT
__Al$ = 8						; size = 4
__Rootnode$ = 12					; size = 4
??$_Erase_tree@V?$allocator@U?$_Tree_node@U?$pair@$$CBHPAVCSpawn@@@std@@PAX@std@@@std@@@?$_Tree_val@U?$_Tree_simple_types@U?$pair@$$CBHPAVCSpawn@@@std@@@std@@@std@@QAEXAAV?$allocator@U?$_Tree_node@U?$pair@$$CBHPAVCSpawn@@@std@@PAX@std@@@1@PAU?$_Tree_node@U?$pair@$$CBHPAVCSpawn@@@std@@PAX@1@@Z PROC ; std::_Tree_val<std::_Tree_simple_types<std::pair<int const ,CSpawn *> > >::_Erase_tree<std::allocator<std::_Tree_node<std::pair<int const ,CSpawn *>,void *> > >, COMDAT
; _this$ = ecx

; 767  :     void _Erase_tree(_Alnode& _Al, _Nodeptr _Rootnode) noexcept {

  00000	55		 push	 ebp
  00001	8b ec		 mov	 ebp, esp
  00003	53		 push	 ebx
  00004	56		 push	 esi

; 768  :         while (!_Rootnode->_Isnil) { // free subtrees, then node

  00005	8b 75 0c	 mov	 esi, DWORD PTR __Rootnode$[ebp]
  00008	8b d9		 mov	 ebx, ecx
  0000a	80 7e 0d 00	 cmp	 BYTE PTR [esi+13], 0
  0000e	75 25		 jne	 SHORT $LN34@Erase_tree
  00010	57		 push	 edi
  00011	8b 7d 08	 mov	 edi, DWORD PTR __Al$[ebp]
$LL2@Erase_tree:

; 769  :             _Erase_tree(_Al, _Rootnode->_Right);

  00014	ff 76 08	 push	 DWORD PTR [esi+8]
  00017	8b cb		 mov	 ecx, ebx
  00019	57		 push	 edi
  0001a	e8 00 00 00 00	 call	 ??$_Erase_tree@V?$allocator@U?$_Tree_node@U?$pair@$$CBHPAVCSpawn@@@std@@PAX@std@@@std@@@?$_Tree_val@U?$_Tree_simple_types@U?$pair@$$CBHPAVCSpawn@@@std@@@std@@@std@@QAEXAAV?$allocator@U?$_Tree_node@U?$pair@$$CBHPAVCSpawn@@@std@@PAX@std@@@1@PAU?$_Tree_node@U?$pair@$$CBHPAVCSpawn@@@std@@PAX@1@@Z ; std::_Tree_val<std::_Tree_simple_types<std::pair<int const ,CSpawn *> > >::_Erase_tree<std::allocator<std::_Tree_node<std::pair<int const ,CSpawn *>,void *> > >
; File C:\Program Files\Microsoft Visual Studio\2022\Professional\VC\Tools\MSVC\14.44.35207\include\utility

; 773  :     _Ty _Old_val = static_cast<_Ty&&>(_Val);

  0001f	8b c6		 mov	 eax, esi

; 774  :     _Val         = static_cast<_Other&&>(_New_val);

  00021	8b 36		 mov	 esi, DWORD PTR [esi]
; File C:\Program Files\Microsoft Visual Studio\2022\Professional\VC\Tools\MSVC\14.44.35207\include\xmemory

; 289  :         ::operator delete(_Ptr, _Bytes);

  00023	6a 18		 push	 24			; 00000018H
  00025	50		 push	 eax
  00026	e8 00 00 00 00	 call	 ??3@YAXPAXI@Z		; operator delete
  0002b	83 c4 08	 add	 esp, 8
; File C:\Program Files\Microsoft Visual Studio\2022\Professional\VC\Tools\MSVC\14.44.35207\include\xtree

; 768  :         while (!_Rootnode->_Isnil) { // free subtrees, then node

  0002e	80 7e 0d 00	 cmp	 BYTE PTR [esi+13], 0
  00032	74 e0		 je	 SHORT $LL2@Erase_tree
  00034	5f		 pop	 edi
$LN34@Erase_tree:
  00035	5e		 pop	 esi

; 770  :             _Alnode::value_type::_Freenode(_Al, _STD exchange(_Rootnode, _Rootnode->_Left));
; 771  :         }
; 772  :     }

  00036	5b		 pop	 ebx
  00037	5d		 pop	 ebp
  00038	c2 08 00	 ret	 8
??$_Erase_tree@V?$allocator@U?$_Tree_node@U?$pair@$$CBHPAVCSpawn@@@std@@PAX@std@@@std@@@?$_Tree_val@U?$_Tree_simple_types@U?$pair@$$CBHPAVCSpawn@@@std@@@std@@@std@@QAEXAAV?$allocator@U?$_Tree_node@U?$pair@$$CBHPAVCSpawn@@@std@@PAX@std@@@1@PAU?$_Tree_node@U?$pair@$$CBHPAVCSpawn@@@std@@PAX@1@@Z ENDP ; std::_Tree_val<std::_Tree_simple_types<std::pair<int const ,CSpawn *> > >::_Erase_tree<std::allocator<std::_Tree_node<std::pair<int const ,CSpawn *>,void *> > >
_TEXT	ENDS
; Function compile flags: /Ogtp
; File C:\Program Files\Microsoft Visual Studio\2022\Professional\VC\Tools\MSVC\14.44.35207\include\algorithm
; File C:\Program Files\Microsoft Visual Studio\2022\Professional\VC\Tools\MSVC\14.44.35207\include\xutility
; File C:\Program Files\Microsoft Visual Studio\2022\Professional\VC\Tools\MSVC\14.44.35207\include\algorithm
; File C:\Program Files\Microsoft Visual Studio\2022\Professional\VC\Tools\MSVC\14.44.35207\include\xutility
; File C:\Program Files\Microsoft Visual Studio\2022\Professional\VC\Tools\MSVC\14.44.35207\include\algorithm
; File C:\Program Files\Microsoft Visual Studio\2022\Professional\VC\Tools\MSVC\14.44.35207\include\__msvc_heap_algorithms.hpp
; File C:\Program Files\Microsoft Visual Studio\2022\Professional\VC\Tools\MSVC\14.44.35207\include\algorithm
;	COMDAT ??$_Sort_unchecked@PAU_REGION_GENERIC@@P6A_NU1@0@Z@std@@YAXPAU_REGION_GENERIC@@0HP6A_NU1@1@Z@Z
_TEXT	SEGMENT
__Val$1 = -28						; size = 12
__Val$1$ = -24						; size = 8
__Mid$2 = -16						; size = 8
__Mid$1$ = -12						; size = 4
tv206 = -8						; size = 4
__Val$2$ = -4						; size = 4
__First$ = 8						; size = 4
__Last$ = 12						; size = 4
__Ideal$ = 16						; size = 4
__Pred$ = 20						; size = 4
??$_Sort_unchecked@PAU_REGION_GENERIC@@P6A_NU1@0@Z@std@@YAXPAU_REGION_GENERIC@@0HP6A_NU1@1@Z@Z PROC ; std::_Sort_unchecked<_REGION_GENERIC *,bool (__cdecl*)(_REGION_GENERIC,_REGION_GENERIC)>, COMDAT

; 8370 : _CONSTEXPR20 void _Sort_unchecked(_RanIt _First, _RanIt _Last, _Iter_diff_t<_RanIt> _Ideal, _Pr _Pred) {

  00000	55		 push	 ebp
  00001	8b ec		 mov	 ebp, esp

; 8371 :     // order [_First, _Last)
; 8372 :     for (;;) {
; 8373 :         if (_Last - _First <= _ISORT_MAX) { // small

  00003	8b 55 14	 mov	 edx, DWORD PTR __Pred$[ebp]
  00006	83 ec 1c	 sub	 esp, 28			; 0000001cH
  00009	53		 push	 ebx
  0000a	8b 5d 0c	 mov	 ebx, DWORD PTR __Last$[ebp]
  0000d	8b c3		 mov	 eax, ebx
  0000f	56		 push	 esi
  00010	8b 75 08	 mov	 esi, DWORD PTR __First$[ebp]
  00013	2b c6		 sub	 eax, esi
  00015	57		 push	 edi
  00016	3d 8c 01 00 00	 cmp	 eax, 396		; 0000018cH
  0001b	0f 8c 93 00 00
	00		 jl	 $LN40@Sort_unche
  00021	8b 7d 10	 mov	 edi, DWORD PTR __Ideal$[ebp]
$LL4@Sort_unche:

; 8374 :             _STD _Insertion_sort_unchecked(_First, _Last, _Pred);
; 8375 :             return;
; 8376 :         }
; 8377 : 
; 8378 :         if (_Ideal <= 0) { // heap sort if too many divisions

  00024	52		 push	 edx
  00025	53		 push	 ebx
  00026	56		 push	 esi
  00027	85 ff		 test	 edi, edi
  00029	0f 8e 06 01 00
	00		 jle	 $LN41@Sort_unche

; 8380 :             _STD _Sort_heap_unchecked(_First, _Last, _Pred);
; 8381 :             return;
; 8382 :         }
; 8383 : 
; 8384 :         // divide and conquer by quicksort
; 8385 :         auto _Mid = _STD _Partition_by_median_guess_unchecked(_First, _Last, _Pred);

  0002f	8d 45 f0	 lea	 eax, DWORD PTR __Mid$2[ebp]
  00032	50		 push	 eax
  00033	e8 00 00 00 00	 call	 ??$_Partition_by_median_guess_unchecked@PAU_REGION_GENERIC@@P6A_NU1@0@Z@std@@YA?AU?$pair@PAU_REGION_GENERIC@@PAU1@@0@PAU_REGION_GENERIC@@0P6A_NU2@1@Z@Z ; std::_Partition_by_median_guess_unchecked<_REGION_GENERIC *,bool (__cdecl*)(_REGION_GENERIC,_REGION_GENERIC)>

; 8386 : 
; 8387 :         _Ideal = (_Ideal >> 1) + (_Ideal >> 2); // allow 1.5 log2(N) divisions

  00038	8b c7		 mov	 eax, edi

; 8388 : 
; 8389 :         if (_Mid.first - _First < _Last - _Mid.second) { // loop on second half

  0003a	8b cb		 mov	 ecx, ebx
  0003c	2b 4d f4	 sub	 ecx, DWORD PTR __Mid$2[ebp+4]
  0003f	83 c4 10	 add	 esp, 16			; 00000010H
  00042	c1 f8 02	 sar	 eax, 2
  00045	d1 ff		 sar	 edi, 1
  00047	03 f8		 add	 edi, eax
  00049	b8 ab aa aa 2a	 mov	 eax, 715827883		; 2aaaaaabH
  0004e	f7 e9		 imul	 ecx
  00050	8b 4d f0	 mov	 ecx, DWORD PTR __Mid$2[ebp]
  00053	b8 ab aa aa 2a	 mov	 eax, 715827883		; 2aaaaaabH
  00058	d1 fa		 sar	 edx, 1
  0005a	2b ce		 sub	 ecx, esi
  0005c	89 7d 10	 mov	 DWORD PTR __Ideal$[ebp], edi
  0005f	8b fa		 mov	 edi, edx
  00061	c1 ef 1f	 shr	 edi, 31			; 0000001fH
  00064	03 fa		 add	 edi, edx
  00066	f7 e9		 imul	 ecx
  00068	d1 fa		 sar	 edx, 1
  0006a	8b c2		 mov	 eax, edx
  0006c	c1 e8 1f	 shr	 eax, 31			; 0000001fH
  0006f	03 c2		 add	 eax, edx
  00071	3b c7		 cmp	 eax, edi
  00073	8b 45 14	 mov	 eax, DWORD PTR __Pred$[ebp]
  00076	8b 7d 10	 mov	 edi, DWORD PTR __Ideal$[ebp]
  00079	50		 push	 eax
  0007a	57		 push	 edi
  0007b	7d 12		 jge	 SHORT $LN7@Sort_unche

; 8390 :             _STD _Sort_unchecked(_First, _Mid.first, _Ideal, _Pred);

  0007d	8b 45 f0	 mov	 eax, DWORD PTR __Mid$2[ebp]
  00080	50		 push	 eax
  00081	56		 push	 esi
  00082	e8 00 00 00 00	 call	 ??$_Sort_unchecked@PAU_REGION_GENERIC@@P6A_NU1@0@Z@std@@YAXPAU_REGION_GENERIC@@0HP6A_NU1@1@Z@Z ; std::_Sort_unchecked<_REGION_GENERIC *,bool (__cdecl*)(_REGION_GENERIC,_REGION_GENERIC)>

; 8391 :             _First = _Mid.second;

  00087	8b 75 f4	 mov	 esi, DWORD PTR __Mid$2[ebp+4]
  0008a	89 75 08	 mov	 DWORD PTR __First$[ebp], esi

; 8392 :         } else { // loop on first half

  0008d	eb 10		 jmp	 SHORT $LN67@Sort_unche
$LN7@Sort_unche:

; 8393 :             _STD _Sort_unchecked(_Mid.second, _Last, _Ideal, _Pred);

  0008f	8b 45 f4	 mov	 eax, DWORD PTR __Mid$2[ebp+4]
  00092	53		 push	 ebx
  00093	50		 push	 eax
  00094	e8 00 00 00 00	 call	 ??$_Sort_unchecked@PAU_REGION_GENERIC@@P6A_NU1@0@Z@std@@YAXPAU_REGION_GENERIC@@0HP6A_NU1@1@Z@Z ; std::_Sort_unchecked<_REGION_GENERIC *,bool (__cdecl*)(_REGION_GENERIC,_REGION_GENERIC)>

; 8394 :             _Last = _Mid.first;

  00099	8b 5d f0	 mov	 ebx, DWORD PTR __Mid$2[ebp]
  0009c	89 5d 0c	 mov	 DWORD PTR __Last$[ebp], ebx
$LN67@Sort_unche:

; 8371 :     // order [_First, _Last)
; 8372 :     for (;;) {
; 8373 :         if (_Last - _First <= _ISORT_MAX) { // small

  0009f	8b 55 14	 mov	 edx, DWORD PTR __Pred$[ebp]
  000a2	8b c3		 mov	 eax, ebx
  000a4	2b c6		 sub	 eax, esi
  000a6	83 c4 10	 add	 esp, 16			; 00000010H
  000a9	3d 8c 01 00 00	 cmp	 eax, 396		; 0000018cH
  000ae	0f 8d 70 ff ff
	ff		 jge	 $LL4@Sort_unche
$LN40@Sort_unche:

; 8244 :     if (_First != _Last) {

  000b4	3b f3		 cmp	 esi, ebx
  000b6	0f 84 a1 01 00
	00		 je	 $LN12@Sort_unche

; 8245 :         for (_BidIt _Mid = _First; ++_Mid != _Last;) { // order next element

  000bc	8d 7e 0c	 lea	 edi, DWORD PTR [esi+12]
  000bf	89 7d f4	 mov	 DWORD PTR __Mid$1$[ebp], edi
  000c2	3b fb		 cmp	 edi, ebx
  000c4	0f 84 93 01 00
	00		 je	 $LN12@Sort_unche
  000ca	89 75 f8	 mov	 DWORD PTR tv206[ebp], esi
  000cd	0f 1f 00	 npad	 3
$LL13@Sort_unche:

; 8246 :             _BidIt _Hole = _Mid;
; 8247 :             _Iter_value_t<_BidIt> _Val(_STD move(*_Mid));

  000d0	8b 47 08	 mov	 eax, DWORD PTR [edi+8]

; 8248 : 
; 8249 :             if (_DEBUG_LT_PRED(_Pred, _Val, *_First)) { // found new earliest element, move to front

  000d3	83 ec 0c	 sub	 esp, 12			; 0000000cH
  000d6	f3 0f 7e 06	 movq	 xmm0, QWORD PTR [esi]
  000da	8b cc		 mov	 ecx, esp
  000dc	f3 0f 7e 0f	 movq	 xmm1, QWORD PTR [edi]
  000e0	83 ec 0c	 sub	 esp, 12			; 0000000cH
  000e3	89 45 fc	 mov	 DWORD PTR __Val$2$[ebp], eax
  000e6	8b df		 mov	 ebx, edi
  000e8	8b 46 08	 mov	 eax, DWORD PTR [esi+8]
  000eb	66 0f d6 01	 movq	 QWORD PTR [ecx], xmm0
  000ef	89 41 08	 mov	 DWORD PTR [ecx+8], eax
  000f2	8b c4		 mov	 eax, esp
  000f4	8b 4d fc	 mov	 ecx, DWORD PTR __Val$2$[ebp]
  000f7	66 0f d6 4d e8	 movq	 QWORD PTR __Val$1$[ebp], xmm1
  000fc	66 0f d6 08	 movq	 QWORD PTR [eax], xmm1
  00100	89 48 08	 mov	 DWORD PTR [eax+8], ecx
  00103	ff d2		 call	 edx
  00105	83 c4 18	 add	 esp, 24			; 00000018H
  00108	84 c0		 test	 al, al
  0010a	8b 45 f8	 mov	 eax, DWORD PTR tv206[ebp]
  0010d	0f 84 a5 00 00
	00		 je	 $LN18@Sort_unche
; File C:\Program Files\Microsoft Visual Studio\2022\Professional\VC\Tools\MSVC\14.44.35207\include\xutility

; 5190 :             return _STD _Copy_backward_memmove(_First, _Last, _Dest);

  00113	83 c0 18	 add	 eax, 24			; 00000018H
  00116	50		 push	 eax
  00117	57		 push	 edi
  00118	56		 push	 esi
  00119	e8 00 00 00 00	 call	 ??$_Copy_backward_memmove@PAU_REGION_GENERIC@@PAU1@@std@@YAPAU_REGION_GENERIC@@PAU1@00@Z ; std::_Copy_backward_memmove<_REGION_GENERIC *,_REGION_GENERIC *>
; File C:\Program Files\Microsoft Visual Studio\2022\Professional\VC\Tools\MSVC\14.44.35207\include\algorithm

; 8251 :                 *_First = _STD move(_Val);

  0011e	f3 0f 7e 45 e8	 movq	 xmm0, QWORD PTR __Val$1$[ebp]
; File C:\Program Files\Microsoft Visual Studio\2022\Professional\VC\Tools\MSVC\14.44.35207\include\xutility

; 5190 :             return _STD _Copy_backward_memmove(_First, _Last, _Dest);

  00123	83 c4 0c	 add	 esp, 12			; 0000000cH
; File C:\Program Files\Microsoft Visual Studio\2022\Professional\VC\Tools\MSVC\14.44.35207\include\algorithm

; 8251 :                 *_First = _STD move(_Val);

  00126	8b 45 fc	 mov	 eax, DWORD PTR __Val$2$[ebp]
  00129	66 0f d6 06	 movq	 QWORD PTR [esi], xmm0
  0012d	89 46 08	 mov	 DWORD PTR [esi+8], eax

; 8252 :             } else { // look for insertion point after first

  00130	e9 12 01 00 00	 jmp	 $LN11@Sort_unche
$LN41@Sort_unche:

; 8379 :             _STD _Make_heap_unchecked(_First, _Last, _Pred);

  00135	e8 00 00 00 00	 call	 ??$_Make_heap_unchecked@PAU_REGION_GENERIC@@P6A_NU1@0@Z@std@@YAXPAU_REGION_GENERIC@@0P6A_NU1@1@Z@Z ; std::_Make_heap_unchecked<_REGION_GENERIC *,bool (__cdecl*)(_REGION_GENERIC,_REGION_GENERIC)>

; 7149 :     for (; _Last - _First >= 2; --_Last) {

  0013a	8b cb		 mov	 ecx, ebx

; 8379 :             _STD _Make_heap_unchecked(_First, _Last, _Pred);

  0013c	83 c4 0c	 add	 esp, 12			; 0000000cH

; 7149 :     for (; _Last - _First >= 2; --_Last) {

  0013f	2b ce		 sub	 ecx, esi
  00141	83 f9 18	 cmp	 ecx, 24			; 00000018H
  00144	0f 8c 13 01 00
	00		 jl	 $LN12@Sort_unche

; 8379 :             _STD _Make_heap_unchecked(_First, _Last, _Pred);

  0014a	8d 7b f4	 lea	 edi, DWORD PTR [ebx-12]
  0014d	0f 1f 00	 npad	 3
$LL28@Sort_unche:
; File C:\Program Files\Microsoft Visual Studio\2022\Professional\VC\Tools\MSVC\14.44.35207\include\__msvc_heap_algorithms.hpp

; 100  :     if (2 <= _Last - _First) {

  00150	b8 ab aa aa aa	 mov	 eax, -1431655765	; aaaaaaabH
  00155	8b df		 mov	 ebx, edi
  00157	f7 e1		 mul	 ecx
  00159	c1 ea 03	 shr	 edx, 3
  0015c	83 fa 02	 cmp	 edx, 2
  0015f	7c 44		 jl	 SHORT $LN26@Sort_unche

; 101  :         --_Last;
; 102  :         _Iter_value_t<_RanIt> _Val(_STD move(*_Last));

  00161	f3 0f 7e 07	 movq	 xmm0, QWORD PTR [edi]

; 93   :     _STD _Pop_heap_hole_by_index(

  00165	8b cf		 mov	 ecx, edi

; 102  :         _Iter_value_t<_RanIt> _Val(_STD move(*_Last));

  00167	8b 47 08	 mov	 eax, DWORD PTR [edi+8]

; 93   :     _STD _Pop_heap_hole_by_index(

  0016a	2b ce		 sub	 ecx, esi
  0016c	ff 75 14	 push	 DWORD PTR __Pred$[ebp]

; 102  :         _Iter_value_t<_RanIt> _Val(_STD move(*_Last));

  0016f	89 45 ec	 mov	 DWORD PTR __Val$1[ebp+8], eax
  00172	66 0f d6 45 e4	 movq	 QWORD PTR __Val$1[ebp], xmm0

; 91   :     *_Dest      = _STD move(*_First);

  00177	f3 0f 7e 06	 movq	 xmm0, QWORD PTR [esi]
  0017b	66 0f d6 07	 movq	 QWORD PTR [edi], xmm0
  0017f	8b 46 08	 mov	 eax, DWORD PTR [esi+8]
  00182	89 47 08	 mov	 DWORD PTR [edi+8], eax

; 92   :     using _Diff = _Iter_diff_t<_RanIt>;
; 93   :     _STD _Pop_heap_hole_by_index(

  00185	8d 45 e4	 lea	 eax, DWORD PTR __Val$1[ebp]
  00188	50		 push	 eax
  00189	b8 ab aa aa 2a	 mov	 eax, 715827883		; 2aaaaaabH
  0018e	f7 e9		 imul	 ecx
  00190	d1 fa		 sar	 edx, 1
  00192	8b c2		 mov	 eax, edx
  00194	c1 e8 1f	 shr	 eax, 31			; 0000001fH
  00197	03 c2		 add	 eax, edx
  00199	50		 push	 eax
  0019a	6a 00		 push	 0
  0019c	56		 push	 esi
  0019d	e8 00 00 00 00	 call	 ??$_Pop_heap_hole_by_index@PAU_REGION_GENERIC@@U1@P6A_NU1@0@Z@std@@YAXPAU_REGION_GENERIC@@HH$$QAU1@P6A_NU1@2@Z@Z ; std::_Pop_heap_hole_by_index<_REGION_GENERIC *,_REGION_GENERIC,bool (__cdecl*)(_REGION_GENERIC,_REGION_GENERIC)>
  001a2	83 c4 14	 add	 esp, 20			; 00000014H
$LN26@Sort_unche:
; File C:\Program Files\Microsoft Visual Studio\2022\Professional\VC\Tools\MSVC\14.44.35207\include\algorithm

; 7149 :     for (; _Last - _First >= 2; --_Last) {

  001a5	8b cb		 mov	 ecx, ebx
  001a7	83 ef 0c	 sub	 edi, 12			; 0000000cH
  001aa	2b ce		 sub	 ecx, esi
  001ac	83 f9 18	 cmp	 ecx, 24			; 00000018H
  001af	7d 9f		 jge	 SHORT $LL28@Sort_unche

; 8395 :         }
; 8396 :     }
; 8397 : }

  001b1	5f		 pop	 edi
  001b2	5e		 pop	 esi
  001b3	5b		 pop	 ebx
  001b4	8b e5		 mov	 esp, ebp
  001b6	5d		 pop	 ebp
  001b7	c3		 ret	 0
$LN18@Sort_unche:

; 8253 :                 for (_BidIt _Prev = _Hole; _DEBUG_LT_PRED(_Pred, _Val, *--_Prev); _Hole = _Prev) {

  001b8	f3 0f 7e 00	 movq	 xmm0, QWORD PTR [eax]
  001bc	83 ec 0c	 sub	 esp, 12			; 0000000cH
  001bf	8b cc		 mov	 ecx, esp
  001c1	8b f8		 mov	 edi, eax
  001c3	8b 40 08	 mov	 eax, DWORD PTR [eax+8]
  001c6	83 ec 0c	 sub	 esp, 12			; 0000000cH
  001c9	66 0f d6 01	 movq	 QWORD PTR [ecx], xmm0
  001cd	f3 0f 7e 45 e8	 movq	 xmm0, QWORD PTR __Val$1$[ebp]
  001d2	89 41 08	 mov	 DWORD PTR [ecx+8], eax
  001d5	8b c4		 mov	 eax, esp
  001d7	8b 4d fc	 mov	 ecx, DWORD PTR __Val$2$[ebp]
  001da	66 0f d6 00	 movq	 QWORD PTR [eax], xmm0
  001de	89 48 08	 mov	 DWORD PTR [eax+8], ecx
  001e1	ff 55 14	 call	 DWORD PTR __Pred$[ebp]
  001e4	83 c4 18	 add	 esp, 24			; 00000018H
  001e7	84 c0		 test	 al, al
  001e9	74 4a		 je	 SHORT $LN15@Sort_unche
  001eb	8b 75 fc	 mov	 esi, DWORD PTR __Val$2$[ebp]
  001ee	66 90		 npad	 2
$LL16@Sort_unche:

; 8254 :                     *_Hole = _STD move(*_Prev); // move hole down

  001f0	f3 0f 7e 07	 movq	 xmm0, QWORD PTR [edi]
  001f4	83 ec 0c	 sub	 esp, 12			; 0000000cH
  001f7	66 0f d6 03	 movq	 QWORD PTR [ebx], xmm0
  001fb	8b cc		 mov	 ecx, esp
  001fd	8b 47 08	 mov	 eax, DWORD PTR [edi+8]
  00200	83 ec 0c	 sub	 esp, 12			; 0000000cH
  00203	89 43 08	 mov	 DWORD PTR [ebx+8], eax
  00206	8b df		 mov	 ebx, edi
  00208	f3 0f 7e 47 f4	 movq	 xmm0, QWORD PTR [edi-12]
  0020d	83 ef 0c	 sub	 edi, 12			; 0000000cH
  00210	66 0f d6 01	 movq	 QWORD PTR [ecx], xmm0
  00214	f3 0f 7e 45 e8	 movq	 xmm0, QWORD PTR __Val$1$[ebp]
  00219	8b 47 08	 mov	 eax, DWORD PTR [edi+8]
  0021c	89 41 08	 mov	 DWORD PTR [ecx+8], eax
  0021f	8b c4		 mov	 eax, esp
  00221	66 0f d6 00	 movq	 QWORD PTR [eax], xmm0
  00225	89 70 08	 mov	 DWORD PTR [eax+8], esi
  00228	ff 55 14	 call	 DWORD PTR __Pred$[ebp]
  0022b	83 c4 18	 add	 esp, 24			; 00000018H
  0022e	84 c0		 test	 al, al
  00230	75 be		 jne	 SHORT $LL16@Sort_unche
  00232	8b 75 08	 mov	 esi, DWORD PTR __First$[ebp]
$LN15@Sort_unche:

; 8255 :                 }
; 8256 : 
; 8257 :                 *_Hole = _STD move(_Val); // insert element in hole

  00235	f3 0f 7e 45 e8	 movq	 xmm0, QWORD PTR __Val$1$[ebp]
  0023a	8b 45 fc	 mov	 eax, DWORD PTR __Val$2$[ebp]
  0023d	8b 7d f4	 mov	 edi, DWORD PTR __Mid$1$[ebp]
  00240	66 0f d6 03	 movq	 QWORD PTR [ebx], xmm0
  00244	89 43 08	 mov	 DWORD PTR [ebx+8], eax
$LN11@Sort_unche:

; 8245 :         for (_BidIt _Mid = _First; ++_Mid != _Last;) { // order next element

  00247	83 45 f8 0c	 add	 DWORD PTR tv206[ebp], 12 ; 0000000cH
  0024b	83 c7 0c	 add	 edi, 12			; 0000000cH
  0024e	8b 55 14	 mov	 edx, DWORD PTR __Pred$[ebp]
  00251	89 7d f4	 mov	 DWORD PTR __Mid$1$[ebp], edi
  00254	3b 7d 0c	 cmp	 edi, DWORD PTR __Last$[ebp]
  00257	0f 85 73 fe ff
	ff		 jne	 $LL13@Sort_unche
$LN12@Sort_unche:

; 8395 :         }
; 8396 :     }
; 8397 : }

  0025d	5f		 pop	 edi
  0025e	5e		 pop	 esi
  0025f	5b		 pop	 ebx
  00260	8b e5		 mov	 esp, ebp
  00262	5d		 pop	 ebp
  00263	c3		 ret	 0
??$_Sort_unchecked@PAU_REGION_GENERIC@@P6A_NU1@0@Z@std@@YAXPAU_REGION_GENERIC@@0HP6A_NU1@1@Z@Z ENDP ; std::_Sort_unchecked<_REGION_GENERIC *,bool (__cdecl*)(_REGION_GENERIC,_REGION_GENERIC)>
_TEXT	ENDS
; Function compile flags: /Ogtp
; File C:\IAGOS\server\v18\Source\Source\_Common\spevent.cpp
;	COMDAT ?prRegionGeneric@@YA_NU_REGION_GENERIC@@0@Z
_TEXT	SEGMENT
_r1$ = 8						; size = 12
_r2$ = 20						; size = 12
?prRegionGeneric@@YA_NU_REGION_GENERIC@@0@Z PROC	; prRegionGeneric, COMDAT

; 554  : {

  00000	55		 push	 ebp
  00001	8b ec		 mov	 ebp, esp

; 555  : 	return r2.nLevel > r1.nLevel;

  00003	8b 45 14	 mov	 eax, DWORD PTR _r2$[ebp]
  00006	3b 45 08	 cmp	 eax, DWORD PTR _r1$[ebp]
  00009	0f 9f c0	 setg	 al

; 556  : }

  0000c	5d		 pop	 ebp
  0000d	c3		 ret	 0
?prRegionGeneric@@YA_NU_REGION_GENERIC@@0@Z ENDP	; prRegionGeneric
_TEXT	ENDS
; Function compile flags: /Ogtp
;	COMDAT ??__FsEventGeneric@?1??GetInstance@CEventGeneric@@SAPAV1@XZ@YAXXZ
text$yd	SEGMENT
??__FsEventGeneric@?1??GetInstance@CEventGeneric@@SAPAV1@XZ@YAXXZ PROC ; `CEventGeneric::GetInstance'::`2'::`dynamic atexit destructor for 'sEventGeneric'', COMDAT
  00000	b9 00 00 00 00	 mov	 ecx, OFFSET ?sEventGeneric@?1??GetInstance@CEventGeneric@@SAPAV2@XZ@4V2@A
  00005	e9 00 00 00 00	 jmp	 ??1CEventGeneric@@UAE@XZ ; CEventGeneric::~CEventGeneric
??__FsEventGeneric@?1??GetInstance@CEventGeneric@@SAPAV1@XZ@YAXXZ ENDP ; `CEventGeneric::GetInstance'::`2'::`dynamic atexit destructor for 'sEventGeneric''
text$yd	ENDS
; Function compile flags: /Ogtp
; File C:\Program Files\Microsoft Visual Studio\2022\Professional\VC\Tools\MSVC\14.44.35207\include\xtree
; File C:\Program Files\Microsoft Visual Studio\2022\Professional\VC\Tools\MSVC\14.44.35207\include\type_traits
; File C:\Program Files\Microsoft Visual Studio\2022\Professional\VC\Tools\MSVC\14.44.35207\include\xtree
; File C:\Program Files\Microsoft Visual Studio\2022\Professional\VC\Tools\MSVC\14.44.35207\include\utility
; File C:\Program Files\Microsoft Visual Studio\2022\Professional\VC\Tools\MSVC\14.44.35207\include\xtree
; File C:\Program Files\Microsoft Visual Studio\2022\Professional\VC\Tools\MSVC\14.44.35207\include\xmemory
; File C:\Program Files\Microsoft Visual Studio\2022\Professional\VC\Tools\MSVC\14.44.35207\include\xtree
; File C:\Program Files\Microsoft Visual Studio\2022\Professional\VC\Tools\MSVC\14.44.35207\include\xmemory
; File C:\Program Files\Microsoft Visual Studio\2022\Professional\VC\Tools\MSVC\14.44.35207\include\xtree
; File C:\Program Files\Microsoft Visual Studio\2022\Professional\VC\Tools\MSVC\14.44.35207\include\xmemory
; File C:\Program Files\Microsoft Visual Studio\2022\Professional\VC\Tools\MSVC\14.44.35207\include\xtree
; File C:\Program Files\Microsoft Visual Studio\2022\Professional\VC\Tools\MSVC\14.44.35207\include\utility
; File C:\Program Files\Microsoft Visual Studio\2022\Professional\VC\Tools\MSVC\14.44.35207\include\xtree
;	COMDAT ??$insert@$0A@$0A@@?$_Tree@V?$_Tmap_traits@HPAV?$list@PAVCEventItem@@V?$allocator@PAVCEventItem@@@std@@@std@@U?$less@H@2@V?$allocator@U?$pair@$$CBHPAV?$list@PAVCEventItem@@V?$allocator@PAVCEventItem@@@std@@@std@@@std@@@2@$0A@@std@@@std@@QAE?AU?$pair@V?$_Tree_iterator@V?$_Tree_val@U?$_Tree_simple_types@U?$pair@$$CBHPAV?$list@PAVCEventItem@@V?$allocator@PAVCEventItem@@@std@@@std@@@std@@@std@@@std@@@std@@_N@1@$$QAU?$pair@$$CBHPAV?$list@PAVCEventItem@@V?$allocator@PAVCEventItem@@@std@@@std@@@1@@Z
_TEXT	SEGMENT
__Loc$2 = -36						; size = 12
$T3 = -24						; size = 12
$T4 = -20						; size = 8
__$EHRec$ = -12						; size = 12
___$ReturnUdt$ = 8					; size = 4
__Val$ = 12						; size = 4
??$insert@$0A@$0A@@?$_Tree@V?$_Tmap_traits@HPAV?$list@PAVCEventItem@@V?$allocator@PAVCEventItem@@@std@@@std@@U?$less@H@2@V?$allocator@U?$pair@$$CBHPAV?$list@PAVCEventItem@@V?$allocator@PAVCEventItem@@@std@@@std@@@std@@@2@$0A@@std@@@std@@QAE?AU?$pair@V?$_Tree_iterator@V?$_Tree_val@U?$_Tree_simple_types@U?$pair@$$CBHPAV?$list@PAVCEventItem@@V?$allocator@PAVCEventItem@@@std@@@std@@@std@@@std@@@std@@@std@@_N@1@$$QAU?$pair@$$CBHPAV?$list@PAVCEventItem@@V?$allocator@PAVCEventItem@@@std@@@std@@@1@@Z PROC ; std::_Tree<std::_Tmap_traits<int,std::list<CEventItem *,std::allocator<CEventItem *> > *,std::less<int>,std::allocator<std::pair<int const ,std::list<CEventItem *,std::allocator<CEventItem *> > *> >,0> >::insert<0,0>, COMDAT
; _this$ = ecx

; 1245 :     pair<iterator, bool> insert(value_type&& _Val) {

  00000	55		 push	 ebp
  00001	8b ec		 mov	 ebp, esp
  00003	6a ff		 push	 -1
  00005	68 00 00 00 00	 push	 __ehhandler$??$insert@$0A@$0A@@?$_Tree@V?$_Tmap_traits@HPAV?$list@PAVCEventItem@@V?$allocator@PAVCEventItem@@@std@@@std@@U?$less@H@2@V?$allocator@U?$pair@$$CBHPAV?$list@PAVCEventItem@@V?$allocator@PAVCEventItem@@@std@@@std@@@std@@@2@$0A@@std@@@std@@QAE?AU?$pair@V?$_Tree_iterator@V?$_Tree_val@U?$_Tree_simple_types@U?$pair@$$CBHPAV?$list@PAVCEventItem@@V?$allocator@PAVCEventItem@@@std@@@std@@@std@@@std@@@std@@@std@@_N@1@$$QAU?$pair@$$CBHPAV?$list@PAVCEventItem@@V?$allocator@PAVCEventItem@@@std@@@std@@@1@@Z
  0000a	64 a1 00 00 00
	00		 mov	 eax, DWORD PTR fs:0
  00010	50		 push	 eax
  00011	83 ec 18	 sub	 esp, 24			; 00000018H
  00014	53		 push	 ebx
  00015	56		 push	 esi
  00016	57		 push	 edi
  00017	a1 00 00 00 00	 mov	 eax, DWORD PTR ___security_cookie
  0001c	33 c5		 xor	 eax, ebp
  0001e	50		 push	 eax
  0001f	8d 45 f4	 lea	 eax, DWORD PTR __$EHRec$[ebp]
  00022	64 a3 00 00 00
	00		 mov	 DWORD PTR fs:0, eax
  00028	8b f9		 mov	 edi, ecx

; 1017 :             _Loc                = _Find_lower_bound(_Keyval);

  0002a	8b 5d 0c	 mov	 ebx, DWORD PTR __Val$[ebp]
  0002d	8d 45 e8	 lea	 eax, DWORD PTR $T3[ebp]
  00030	53		 push	 ebx
  00031	50		 push	 eax
  00032	e8 00 00 00 00	 call	 ??$_Find_lower_bound@H@?$_Tree@V?$_Tmap_traits@HPAV?$list@PAVCEventItem@@V?$allocator@PAVCEventItem@@@std@@@std@@U?$less@H@2@V?$allocator@U?$pair@$$CBHPAV?$list@PAVCEventItem@@V?$allocator@PAVCEventItem@@@std@@@std@@@std@@@2@$0A@@std@@@std@@IBE?AU?$_Tree_find_result@PAU?$_Tree_node@U?$pair@$$CBHPAV?$list@PAVCEventItem@@V?$allocator@PAVCEventItem@@@std@@@std@@@std@@PAX@std@@@1@ABH@Z ; std::_Tree<std::_Tmap_traits<int,std::list<CEventItem *,std::allocator<CEventItem *> > *,std::less<int>,std::allocator<std::pair<int const ,std::list<CEventItem *,std::allocator<CEventItem *> > *> >,0> >::_Find_lower_bound<int>
  00037	8b 48 08	 mov	 ecx, DWORD PTR [eax+8]
  0003a	f3 0f 7e 00	 movq	 xmm0, QWORD PTR [eax]
  0003e	66 0f d6 45 dc	 movq	 QWORD PTR __Loc$2[ebp], xmm0

; 1624 :         return !_Bound->_Isnil && !_DEBUG_LT_PRED(_Getcomp(), _Keyval, _Traits::_Kfn(_Bound->_Myval));

  00043	80 79 0d 00	 cmp	 BYTE PTR [ecx+13], 0
  00047	75 0b		 jne	 SHORT $LN4@insert
; File C:\Program Files\Microsoft Visual Studio\2022\Professional\VC\Tools\MSVC\14.44.35207\include\type_traits

; 2380 :         return _Left < _Right;

  00049	8b 03		 mov	 eax, DWORD PTR [ebx]
  0004b	3b 41 10	 cmp	 eax, DWORD PTR [ecx+16]
; File C:\Program Files\Microsoft Visual Studio\2022\Professional\VC\Tools\MSVC\14.44.35207\include\xtree

; 1624 :         return !_Bound->_Isnil && !_DEBUG_LT_PRED(_Getcomp(), _Keyval, _Traits::_Kfn(_Bound->_Myval));

  0004e	7c 04		 jl	 SHORT $LN4@insert
; File C:\Program Files\Microsoft Visual Studio\2022\Professional\VC\Tools\MSVC\14.44.35207\include\utility

; 274  :         : first(_STD forward<_Other1>(_Val1)), second(_STD forward<_Other2>(_Val2)) {

  00050	32 d2		 xor	 dl, dl
; File C:\Program Files\Microsoft Visual Studio\2022\Professional\VC\Tools\MSVC\14.44.35207\include\xtree

; 1019 :                 return {_Loc._Bound, false};

  00052	eb 51		 jmp	 SHORT $LN84@insert
$LN4@insert:

; 1648 :         if (max_size() == _Get_scary()->_Mysize) {

  00054	81 7f 04 aa aa
	aa 0a		 cmp	 DWORD PTR [edi+4], 178956970 ; 0aaaaaaaH
  0005b	74 64		 je	 SHORT $LN103@insert

; 1023 :             _Inserted = _Tree_temp_node<_Alnode>(_Getal(), _Scary->_Myhead, _STD forward<_Valtys>(_Vals)...)._Release();

  0005d	8b 37		 mov	 esi, DWORD PTR [edi]
; File C:\Program Files\Microsoft Visual Studio\2022\Professional\VC\Tools\MSVC\14.44.35207\include\xmemory

; 1160 :     _CONSTEXPR20 explicit _Alloc_construct_ptr(_Alloc& _Al_) : _Al(_Al_), _Ptr(nullptr) {}

  0005f	89 7d ec	 mov	 DWORD PTR $T4[ebp], edi

; 136  :         return ::operator new(_Bytes);

  00062	6a 18		 push	 24			; 00000018H
; File C:\Program Files\Microsoft Visual Studio\2022\Professional\VC\Tools\MSVC\14.44.35207\include\xtree

; 808  :     explicit _Tree_temp_node_alloc(_Alnode& _Al_) : _Alloc_construct_ptr<_Alnode>(_Al_) {

  00064	c7 45 fc 00 00
	00 00		 mov	 DWORD PTR __$EHRec$[ebp+8], 0
; File C:\Program Files\Microsoft Visual Studio\2022\Professional\VC\Tools\MSVC\14.44.35207\include\xmemory

; 1167 :         _Ptr = nullptr; // if allocate throws, prevents double-free

  0006b	c7 45 f0 00 00
	00 00		 mov	 DWORD PTR $T4[ebp+4], 0

; 136  :         return ::operator new(_Bytes);

  00072	e8 00 00 00 00	 call	 ??2@YAPAXI@Z		; operator new
; File C:\Program Files\Microsoft Visual Studio\2022\Professional\VC\Tools\MSVC\14.44.35207\include\xtree

; 830  :         _Alnode_traits::construct(this->_Al, _STD addressof(this->_Ptr->_Myval), _STD forward<_Valtys>(_Vals)...);

  00077	8b 0b		 mov	 ecx, DWORD PTR [ebx]
; File C:\Program Files\Microsoft Visual Studio\2022\Professional\VC\Tools\MSVC\14.44.35207\include\xmemory

; 136  :         return ::operator new(_Bytes);

  00079	83 c4 04	 add	 esp, 4
; File C:\Program Files\Microsoft Visual Studio\2022\Professional\VC\Tools\MSVC\14.44.35207\include\xtree

; 830  :         _Alnode_traits::construct(this->_Al, _STD addressof(this->_Ptr->_Myval), _STD forward<_Valtys>(_Vals)...);

  0007c	8b 53 04	 mov	 edx, DWORD PTR [ebx+4]
  0007f	89 48 10	 mov	 DWORD PTR [eax+16], ecx

; 1042 :         return {_Scary->_Insert_node(_Loc._Location, _Inserted), true};

  00082	8b cf		 mov	 ecx, edi
  00084	50		 push	 eax
  00085	ff 75 e0	 push	 DWORD PTR __Loc$2[ebp+4]

; 830  :         _Alnode_traits::construct(this->_Al, _STD addressof(this->_Ptr->_Myval), _STD forward<_Valtys>(_Vals)...);

  00088	89 50 14	 mov	 DWORD PTR [eax+20], edx

; 1042 :         return {_Scary->_Insert_node(_Loc._Location, _Inserted), true};

  0008b	ff 75 dc	 push	 DWORD PTR __Loc$2[ebp]

; 831  :         _Construct_in_place(this->_Ptr->_Left, _Myhead);

  0008e	89 30		 mov	 DWORD PTR [eax], esi

; 832  :         _Construct_in_place(this->_Ptr->_Parent, _Myhead);

  00090	89 70 04	 mov	 DWORD PTR [eax+4], esi

; 833  :         _Construct_in_place(this->_Ptr->_Right, _Myhead);

  00093	89 70 08	 mov	 DWORD PTR [eax+8], esi

; 834  :         this->_Ptr->_Color = _Red;

  00096	66 c7 40 0c 00
	00		 mov	 WORD PTR [eax+12], 0

; 1042 :         return {_Scary->_Insert_node(_Loc._Location, _Inserted), true};

  0009c	e8 00 00 00 00	 call	 ?_Insert_node@?$_Tree_val@U?$_Tree_simple_types@U?$pair@$$CBHPAV?$list@PAVCEventItem@@V?$allocator@PAVCEventItem@@@std@@@std@@@std@@@std@@@std@@QAEPAU?$_Tree_node@U?$pair@$$CBHPAV?$list@PAVCEventItem@@V?$allocator@PAVCEventItem@@@std@@@std@@@std@@PAX@2@U?$_Tree_id@PAU?$_Tree_node@U?$pair@$$CBHPAV?$list@PAVCEventItem@@V?$allocator@PAVCEventItem@@@std@@@std@@@std@@PAX@std@@@2@QAU32@@Z ; std::_Tree_val<std::_Tree_simple_types<std::pair<int const ,std::list<CEventItem *,std::allocator<CEventItem *> > *> > >::_Insert_node
; File C:\Program Files\Microsoft Visual Studio\2022\Professional\VC\Tools\MSVC\14.44.35207\include\utility

; 274  :         : first(_STD forward<_Other1>(_Val1)), second(_STD forward<_Other2>(_Val2)) {

  000a1	8b c8		 mov	 ecx, eax
  000a3	b2 01		 mov	 dl, 1
$LN84@insert:
  000a5	8b 45 08	 mov	 eax, DWORD PTR ___$ReturnUdt$[ebp]
  000a8	89 08		 mov	 DWORD PTR [eax], ecx
  000aa	88 50 04	 mov	 BYTE PTR [eax+4], dl
; File C:\Program Files\Microsoft Visual Studio\2022\Professional\VC\Tools\MSVC\14.44.35207\include\xtree

; 1248 :     }

  000ad	8b 4d f4	 mov	 ecx, DWORD PTR __$EHRec$[ebp]
  000b0	64 89 0d 00 00
	00 00		 mov	 DWORD PTR fs:0, ecx
  000b7	59		 pop	 ecx
  000b8	5f		 pop	 edi
  000b9	5e		 pop	 esi
  000ba	5b		 pop	 ebx
  000bb	8b e5		 mov	 esp, ebp
  000bd	5d		 pop	 ebp
  000be	c2 08 00	 ret	 8
$LN103@insert:

; 1649 :             _Throw_tree_length_error();

  000c1	e8 00 00 00 00	 call	 ?_Throw_tree_length_error@std@@YAXXZ ; std::_Throw_tree_length_error
$LN101@insert:
  000c6	cc		 int	 3
_TEXT	ENDS
;	COMDAT text$x
text$x	SEGMENT
__unwindfunclet$??$insert@$0A@$0A@@?$_Tree@V?$_Tmap_traits@HPAV?$list@PAVCEventItem@@V?$allocator@PAVCEventItem@@@std@@@std@@U?$less@H@2@V?$allocator@U?$pair@$$CBHPAV?$list@PAVCEventItem@@V?$allocator@PAVCEventItem@@@std@@@std@@@std@@@2@$0A@@std@@@std@@QAE?AU?$pair@V?$_Tree_iterator@V?$_Tree_val@U?$_Tree_simple_types@U?$pair@$$CBHPAV?$list@PAVCEventItem@@V?$allocator@PAVCEventItem@@@std@@@std@@@std@@@std@@@std@@@std@@_N@1@$$QAU?$pair@$$CBHPAV?$list@PAVCEventItem@@V?$allocator@PAVCEventItem@@@std@@@std@@@1@@Z$2:
  00000	8d 4d ec	 lea	 ecx, DWORD PTR $T4[ebp]
  00003	e9 00 00 00 00	 jmp	 ??1?$_Alloc_construct_ptr@V?$allocator@U?$_Tree_node@U?$pair@$$CBHPAV?$list@PAVCEventItem@@V?$allocator@PAVCEventItem@@@std@@@std@@@std@@PAX@std@@@std@@@std@@QAE@XZ ; std::_Alloc_construct_ptr<std::allocator<std::_Tree_node<std::pair<int const ,std::list<CEventItem *,std::allocator<CEventItem *> > *>,void *> > >::~_Alloc_construct_ptr<std::allocator<std::_Tree_node<std::pair<int const ,std::list<CEventItem *,std::allocator<CEventItem *> > *>,void *> > >
  00008	cc		 int	 3
  00009	cc		 int	 3
  0000a	cc		 int	 3
  0000b	cc		 int	 3
  0000c	cc		 int	 3
__ehhandler$??$insert@$0A@$0A@@?$_Tree@V?$_Tmap_traits@HPAV?$list@PAVCEventItem@@V?$allocator@PAVCEventItem@@@std@@@std@@U?$less@H@2@V?$allocator@U?$pair@$$CBHPAV?$list@PAVCEventItem@@V?$allocator@PAVCEventItem@@@std@@@std@@@std@@@2@$0A@@std@@@std@@QAE?AU?$pair@V?$_Tree_iterator@V?$_Tree_val@U?$_Tree_simple_types@U?$pair@$$CBHPAV?$list@PAVCEventItem@@V?$allocator@PAVCEventItem@@@std@@@std@@@std@@@std@@@std@@@std@@_N@1@$$QAU?$pair@$$CBHPAV?$list@PAVCEventItem@@V?$allocator@PAVCEventItem@@@std@@@std@@@1@@Z:
  0000d	90		 npad	 1
  0000e	90		 npad	 1
  0000f	8b 54 24 08	 mov	 edx, DWORD PTR [esp+8]
  00013	8d 42 0c	 lea	 eax, DWORD PTR [edx+12]
  00016	8b 4a d8	 mov	 ecx, DWORD PTR [edx-40]
  00019	33 c8		 xor	 ecx, eax
  0001b	e8 00 00 00 00	 call	 @__security_check_cookie@4
  00020	b8 00 00 00 00	 mov	 eax, OFFSET __ehfuncinfo$??$insert@$0A@$0A@@?$_Tree@V?$_Tmap_traits@HPAV?$list@PAVCEventItem@@V?$allocator@PAVCEventItem@@@std@@@std@@U?$less@H@2@V?$allocator@U?$pair@$$CBHPAV?$list@PAVCEventItem@@V?$allocator@PAVCEventItem@@@std@@@std@@@std@@@2@$0A@@std@@@std@@QAE?AU?$pair@V?$_Tree_iterator@V?$_Tree_val@U?$_Tree_simple_types@U?$pair@$$CBHPAV?$list@PAVCEventItem@@V?$allocator@PAVCEventItem@@@std@@@std@@@std@@@std@@@std@@@std@@_N@1@$$QAU?$pair@$$CBHPAV?$list@PAVCEventItem@@V?$allocator@PAVCEventItem@@@std@@@std@@@1@@Z
  00025	e9 00 00 00 00	 jmp	 ___CxxFrameHandler3
text$x	ENDS
??$insert@$0A@$0A@@?$_Tree@V?$_Tmap_traits@HPAV?$list@PAVCEventItem@@V?$allocator@PAVCEventItem@@@std@@@std@@U?$less@H@2@V?$allocator@U?$pair@$$CBHPAV?$list@PAVCEventItem@@V?$allocator@PAVCEventItem@@@std@@@std@@@std@@@2@$0A@@std@@@std@@QAE?AU?$pair@V?$_Tree_iterator@V?$_Tree_val@U?$_Tree_simple_types@U?$pair@$$CBHPAV?$list@PAVCEventItem@@V?$allocator@PAVCEventItem@@@std@@@std@@@std@@@std@@@std@@@std@@_N@1@$$QAU?$pair@$$CBHPAV?$list@PAVCEventItem@@V?$allocator@PAVCEventItem@@@std@@@std@@@1@@Z ENDP ; std::_Tree<std::_Tmap_traits<int,std::list<CEventItem *,std::allocator<CEventItem *> > *,std::less<int>,std::allocator<std::pair<int const ,std::list<CEventItem *,std::allocator<CEventItem *> > *> >,0> >::insert<0,0>
; Function compile flags: /Ogtp
; File C:\Program Files\Microsoft Visual Studio\2022\Professional\VC\Tools\MSVC\14.44.35207\include\list
; File C:\Program Files\Microsoft Visual Studio\2022\Professional\VC\Tools\MSVC\14.44.35207\include\xmemory
; File C:\Program Files\Microsoft Visual Studio\2022\Professional\VC\Tools\MSVC\14.44.35207\include\list
; File C:\Program Files\Microsoft Visual Studio\2022\Professional\VC\Tools\MSVC\14.44.35207\include\xmemory
; File C:\Program Files\Microsoft Visual Studio\2022\Professional\VC\Tools\MSVC\14.44.35207\include\list
; File C:\Program Files\Microsoft Visual Studio\2022\Professional\VC\Tools\MSVC\14.44.35207\include\xmemory
; File C:\Program Files\Microsoft Visual Studio\2022\Professional\VC\Tools\MSVC\14.44.35207\include\list
;	COMDAT ?push_back@?$list@PAVCEventItem@@V?$allocator@PAVCEventItem@@@std@@@std@@QAEXABQAVCEventItem@@@Z
_TEXT	SEGMENT
__Op$2 = -20						; size = 8
__$EHRec$ = -12						; size = 12
__Val$ = 8						; size = 4
?push_back@?$list@PAVCEventItem@@V?$allocator@PAVCEventItem@@@std@@@std@@QAEXABQAVCEventItem@@@Z PROC ; std::list<CEventItem *,std::allocator<CEventItem *> >::push_back, COMDAT
; _this$ = ecx

; 1273 :     void push_back(const _Ty& _Val) {

  00000	55		 push	 ebp
  00001	8b ec		 mov	 ebp, esp
  00003	6a ff		 push	 -1
  00005	68 00 00 00 00	 push	 __ehhandler$?push_back@?$list@PAVCEventItem@@V?$allocator@PAVCEventItem@@@std@@@std@@QAEXABQAVCEventItem@@@Z
  0000a	64 a1 00 00 00
	00		 mov	 eax, DWORD PTR fs:0
  00010	50		 push	 eax
  00011	83 ec 08	 sub	 esp, 8
  00014	56		 push	 esi
  00015	57		 push	 edi
  00016	a1 00 00 00 00	 mov	 eax, DWORD PTR ___security_cookie
  0001b	33 c5		 xor	 eax, ebp
  0001d	50		 push	 eax
  0001e	8d 45 f4	 lea	 eax, DWORD PTR __$EHRec$[ebp]
  00021	64 a3 00 00 00
	00		 mov	 DWORD PTR fs:0, eax
  00027	8b f1		 mov	 esi, ecx

; 1030 :         if (_Mysize == max_size()) {

  00029	81 7e 04 55 55
	55 15		 cmp	 DWORD PTR [esi+4], 357913941 ; 15555555H

; 1274 :         _Emplace(_Mypair._Myval2._Myhead, _Val);

  00030	8b 3e		 mov	 edi, DWORD PTR [esi]

; 1030 :         if (_Mysize == max_size()) {

  00032	74 46		 je	 SHORT $LN61@push_back
; File C:\Program Files\Microsoft Visual Studio\2022\Professional\VC\Tools\MSVC\14.44.35207\include\xmemory

; 1160 :     _CONSTEXPR20 explicit _Alloc_construct_ptr(_Alloc& _Al_) : _Al(_Al_), _Ptr(nullptr) {}

  00034	89 75 ec	 mov	 DWORD PTR __Op$2[ebp], esi

; 136  :         return ::operator new(_Bytes);

  00037	6a 0c		 push	 12			; 0000000cH
; File C:\Program Files\Microsoft Visual Studio\2022\Professional\VC\Tools\MSVC\14.44.35207\include\list

; 593  :     explicit _List_node_emplace_op2(_Alnode& _Al_, _Valtys&&... _Vals) : _Alloc_construct_ptr<_Alnode>(_Al_) {

  00039	c7 45 fc 00 00
	00 00		 mov	 DWORD PTR __$EHRec$[ebp+8], 0
; File C:\Program Files\Microsoft Visual Studio\2022\Professional\VC\Tools\MSVC\14.44.35207\include\xmemory

; 1167 :         _Ptr = nullptr; // if allocate throws, prevents double-free

  00040	c7 45 f0 00 00
	00 00		 mov	 DWORD PTR __Op$2[ebp+4], 0

; 136  :         return ::operator new(_Bytes);

  00047	e8 00 00 00 00	 call	 ??2@YAPAXI@Z		; operator new
; File C:\Program Files\Microsoft Visual Studio\2022\Professional\VC\Tools\MSVC\14.44.35207\include\list

; 595  :         _Alnode_traits::construct(this->_Al, _STD addressof(this->_Ptr->_Myval), _STD forward<_Valtys>(_Vals)...);

  0004c	8b 4d 08	 mov	 ecx, DWORD PTR __Val$[ebp]
; File C:\Program Files\Microsoft Visual Studio\2022\Professional\VC\Tools\MSVC\14.44.35207\include\xmemory

; 136  :         return ::operator new(_Bytes);

  0004f	83 c4 04	 add	 esp, 4
; File C:\Program Files\Microsoft Visual Studio\2022\Professional\VC\Tools\MSVC\14.44.35207\include\list

; 595  :         _Alnode_traits::construct(this->_Al, _STD addressof(this->_Ptr->_Myval), _STD forward<_Valtys>(_Vals)...);

  00052	8b 09		 mov	 ecx, DWORD PTR [ecx]
  00054	89 48 08	 mov	 DWORD PTR [eax+8], ecx

; 1035 :         ++_Mysize;

  00057	ff 46 04	 inc	 DWORD PTR [esi+4]

; 608  :         const pointer _Insert_after = _Insert_before->_Prev;

  0005a	8b 4f 04	 mov	 ecx, DWORD PTR [edi+4]

; 609  :         _Construct_in_place(this->_Ptr->_Next, _Insert_before);

  0005d	89 38		 mov	 DWORD PTR [eax], edi

; 610  :         _Construct_in_place(this->_Ptr->_Prev, _Insert_after);

  0005f	89 48 04	 mov	 DWORD PTR [eax+4], ecx

; 611  :         const auto _Result    = this->_Ptr;
; 612  :         this->_Ptr            = pointer{};
; 613  :         _Insert_before->_Prev = _Result;

  00062	89 47 04	 mov	 DWORD PTR [edi+4], eax

; 614  :         _Insert_after->_Next  = _Result;

  00065	89 01		 mov	 DWORD PTR [ecx], eax

; 1275 :     }

  00067	8b 4d f4	 mov	 ecx, DWORD PTR __$EHRec$[ebp]
  0006a	64 89 0d 00 00
	00 00		 mov	 DWORD PTR fs:0, ecx
  00071	59		 pop	 ecx
  00072	5f		 pop	 edi
  00073	5e		 pop	 esi
  00074	8b e5		 mov	 esp, ebp
  00076	5d		 pop	 ebp
  00077	c2 04 00	 ret	 4
$LN61@push_back:

; 1031 :             _Xlength_error("list too long");

  0007a	68 00 00 00 00	 push	 OFFSET ??_C@_0O@NKNMEGII@list?5too?5long@
  0007f	e8 00 00 00 00	 call	 ?_Xlength_error@std@@YAXPBD@Z ; std::_Xlength_error
$LN59@push_back:
  00084	cc		 int	 3
_TEXT	ENDS
;	COMDAT text$x
text$x	SEGMENT
__unwindfunclet$?push_back@?$list@PAVCEventItem@@V?$allocator@PAVCEventItem@@@std@@@std@@QAEXABQAVCEventItem@@@Z$1:
  00000	8d 4d ec	 lea	 ecx, DWORD PTR __Op$2[ebp]
  00003	e9 00 00 00 00	 jmp	 ??1?$_Alloc_construct_ptr@V?$allocator@U?$_List_node@PAVCEventItem@@PAX@std@@@std@@@std@@QAE@XZ ; std::_Alloc_construct_ptr<std::allocator<std::_List_node<CEventItem *,void *> > >::~_Alloc_construct_ptr<std::allocator<std::_List_node<CEventItem *,void *> > >
  00008	cc		 int	 3
  00009	cc		 int	 3
  0000a	cc		 int	 3
  0000b	cc		 int	 3
  0000c	cc		 int	 3
__ehhandler$?push_back@?$list@PAVCEventItem@@V?$allocator@PAVCEventItem@@@std@@@std@@QAEXABQAVCEventItem@@@Z:
  0000d	90		 npad	 1
  0000e	90		 npad	 1
  0000f	8b 54 24 08	 mov	 edx, DWORD PTR [esp+8]
  00013	8d 42 0c	 lea	 eax, DWORD PTR [edx+12]
  00016	8b 4a ec	 mov	 ecx, DWORD PTR [edx-20]
  00019	33 c8		 xor	 ecx, eax
  0001b	e8 00 00 00 00	 call	 @__security_check_cookie@4
  00020	b8 00 00 00 00	 mov	 eax, OFFSET __ehfuncinfo$?push_back@?$list@PAVCEventItem@@V?$allocator@PAVCEventItem@@@std@@@std@@QAEXABQAVCEventItem@@@Z
  00025	e9 00 00 00 00	 jmp	 ___CxxFrameHandler3
text$x	ENDS
?push_back@?$list@PAVCEventItem@@V?$allocator@PAVCEventItem@@@std@@@std@@QAEXABQAVCEventItem@@@Z ENDP ; std::list<CEventItem *,std::allocator<CEventItem *> >::push_back
; Function compile flags: /Ogtp
;	COMDAT ??__FsXMasEvent@?1??GetInstance@CXMasEvent@@SAPAV1@XZ@YAXXZ
text$yd	SEGMENT
??__FsXMasEvent@?1??GetInstance@CXMasEvent@@SAPAV1@XZ@YAXXZ PROC ; `CXMasEvent::GetInstance'::`2'::`dynamic atexit destructor for 'sXMasEvent'', COMDAT
  00000	b9 00 00 00 00	 mov	 ecx, OFFSET ?sXMasEvent@?1??GetInstance@CXMasEvent@@SAPAV2@XZ@4V2@A
  00005	e9 00 00 00 00	 jmp	 ??1CXMasEvent@@UAE@XZ	; CXMasEvent::~CXMasEvent
??__FsXMasEvent@?1??GetInstance@CXMasEvent@@SAPAV1@XZ@YAXXZ ENDP ; `CXMasEvent::GetInstance'::`2'::`dynamic atexit destructor for 'sXMasEvent''
text$yd	ENDS
; Function compile flags: /Ogtp
; File C:\IAGOS\server\v18\Source\Source\_Network\Misc\Include\ar.h
;	COMDAT ??$?5K@CAr@@QAEAAV0@AAK@Z
_TEXT	SEGMENT
_t$ = 8							; size = 4
??$?5K@CAr@@QAEAAV0@AAK@Z PROC				; CAr::operator>><unsigned long>, COMDAT
; _this$ = ecx

; 302  : {

  00000	55		 push	 ebp
  00001	8b ec		 mov	 ebp, esp
  00003	8b d1		 mov	 edx, ecx

; 303  : 	if (m_lpBufCur + sizeof(T) <= m_lpBufMax)

  00005	8b 4a 08	 mov	 ecx, DWORD PTR [edx+8]
  00008	8d 41 04	 lea	 eax, DWORD PTR [ecx+4]
  0000b	3b 42 0c	 cmp	 eax, DWORD PTR [edx+12]
  0000e	8b 45 08	 mov	 eax, DWORD PTR _t$[ebp]
  00011	77 0e		 ja	 SHORT $LN2@operator

; 304  : 	{
; 305  : 		t = *(UNALIGNED T*)m_lpBufCur;

  00013	8b 09		 mov	 ecx, DWORD PTR [ecx]
  00015	89 08		 mov	 DWORD PTR [eax], ecx

; 312  : 	}
; 313  : 	return *this;
; 314  : }

  00017	8b c2		 mov	 eax, edx
  00019	83 42 08 04	 add	 DWORD PTR [edx+8], 4
  0001d	5d		 pop	 ebp
  0001e	c2 04 00	 ret	 4
$LN2@operator:

; 306  : 		m_lpBufCur += sizeof(T);
; 307  : 	}
; 308  : 	else
; 309  : 	{
; 310  : 		t = T();

  00021	c7 00 00 00 00
	00		 mov	 DWORD PTR [eax], 0

; 311  : 		m_lpBufCur = m_lpBufMax;

  00027	8b 42 0c	 mov	 eax, DWORD PTR [edx+12]
  0002a	89 42 08	 mov	 DWORD PTR [edx+8], eax

; 312  : 	}
; 313  : 	return *this;
; 314  : }

  0002d	8b c2		 mov	 eax, edx
  0002f	5d		 pop	 ebp
  00030	c2 04 00	 ret	 4
??$?5K@CAr@@QAEAAV0@AAK@Z ENDP				; CAr::operator>><unsigned long>
_TEXT	ENDS
; Function compile flags: /Ogtp
; File C:\IAGOS\server\v18\Source\Source\_Network\Misc\Include\ar.h
;	COMDAT ??$?6K@CAr@@QAEAAV0@ABK@Z
_TEXT	SEGMENT
_t$ = 8							; size = 4
??$?6K@CAr@@QAEAAV0@ABK@Z PROC				; CAr::operator<<<unsigned long>, COMDAT
; _this$ = ecx

; 255  : {

  00000	55		 push	 ebp
  00001	8b ec		 mov	 ebp, esp
  00003	56		 push	 esi

; 256  : 	CheckBuf(sizeof(T));

  00004	6a 04		 push	 4
  00006	8b f1		 mov	 esi, ecx
  00008	e8 00 00 00 00	 call	 ?CheckBuf@CAr@@QAEXI@Z	; CAr::CheckBuf

; 257  : 	*(UNALIGNED T*)m_lpBufCur = t;

  0000d	8b 56 08	 mov	 edx, DWORD PTR [esi+8]
  00010	8b 45 08	 mov	 eax, DWORD PTR _t$[ebp]
  00013	8b 00		 mov	 eax, DWORD PTR [eax]
  00015	89 02		 mov	 DWORD PTR [edx], eax

; 258  : 	m_lpBufCur += sizeof(T);
; 259  : 	return *this;

  00017	8b c6		 mov	 eax, esi
  00019	83 46 08 04	 add	 DWORD PTR [esi+8], 4
  0001d	5e		 pop	 esi

; 260  : }

  0001e	5d		 pop	 ebp
  0001f	c2 04 00	 ret	 4
??$?6K@CAr@@QAEAAV0@ABK@Z ENDP				; CAr::operator<<<unsigned long>
_TEXT	ENDS
; Function compile flags: /Ogtp
; File C:\IAGOS\server\v18\Source\Source\_Network\Misc\Include\ar.h
;	COMDAT ??$?5H@CAr@@QAEAAV0@AAH@Z
_TEXT	SEGMENT
_t$ = 8							; size = 4
??$?5H@CAr@@QAEAAV0@AAH@Z PROC				; CAr::operator>><int>, COMDAT
; _this$ = ecx

; 302  : {

  00000	55		 push	 ebp
  00001	8b ec		 mov	 ebp, esp
  00003	8b d1		 mov	 edx, ecx

; 303  : 	if (m_lpBufCur + sizeof(T) <= m_lpBufMax)

  00005	8b 4a 08	 mov	 ecx, DWORD PTR [edx+8]
  00008	8d 41 04	 lea	 eax, DWORD PTR [ecx+4]
  0000b	3b 42 0c	 cmp	 eax, DWORD PTR [edx+12]
  0000e	8b 45 08	 mov	 eax, DWORD PTR _t$[ebp]
  00011	77 0e		 ja	 SHORT $LN2@operator

; 304  : 	{
; 305  : 		t = *(UNALIGNED T*)m_lpBufCur;

  00013	8b 09		 mov	 ecx, DWORD PTR [ecx]
  00015	89 08		 mov	 DWORD PTR [eax], ecx

; 312  : 	}
; 313  : 	return *this;
; 314  : }

  00017	8b c2		 mov	 eax, edx
  00019	83 42 08 04	 add	 DWORD PTR [edx+8], 4
  0001d	5d		 pop	 ebp
  0001e	c2 04 00	 ret	 4
$LN2@operator:

; 306  : 		m_lpBufCur += sizeof(T);
; 307  : 	}
; 308  : 	else
; 309  : 	{
; 310  : 		t = T();

  00021	c7 00 00 00 00
	00		 mov	 DWORD PTR [eax], 0

; 311  : 		m_lpBufCur = m_lpBufMax;

  00027	8b 42 0c	 mov	 eax, DWORD PTR [edx+12]
  0002a	89 42 08	 mov	 DWORD PTR [edx+8], eax

; 312  : 	}
; 313  : 	return *this;
; 314  : }

  0002d	8b c2		 mov	 eax, edx
  0002f	5d		 pop	 ebp
  00030	c2 04 00	 ret	 4
??$?5H@CAr@@QAEAAV0@AAH@Z ENDP				; CAr::operator>><int>
_TEXT	ENDS
; Function compile flags: /Ogtp
; File C:\IAGOS\server\v18\Source\Source\_Network\Misc\Include\ar.h
;	COMDAT ??$?6H@CAr@@QAEAAV0@ABH@Z
_TEXT	SEGMENT
_t$ = 8							; size = 4
??$?6H@CAr@@QAEAAV0@ABH@Z PROC				; CAr::operator<<<int>, COMDAT
; _this$ = ecx

; 255  : {

  00000	55		 push	 ebp
  00001	8b ec		 mov	 ebp, esp
  00003	56		 push	 esi

; 256  : 	CheckBuf(sizeof(T));

  00004	6a 04		 push	 4
  00006	8b f1		 mov	 esi, ecx
  00008	e8 00 00 00 00	 call	 ?CheckBuf@CAr@@QAEXI@Z	; CAr::CheckBuf

; 257  : 	*(UNALIGNED T*)m_lpBufCur = t;

  0000d	8b 56 08	 mov	 edx, DWORD PTR [esi+8]
  00010	8b 45 08	 mov	 eax, DWORD PTR _t$[ebp]
  00013	8b 00		 mov	 eax, DWORD PTR [eax]
  00015	89 02		 mov	 DWORD PTR [edx], eax

; 258  : 	m_lpBufCur += sizeof(T);
; 259  : 	return *this;

  00017	8b c6		 mov	 eax, esi
  00019	83 46 08 04	 add	 DWORD PTR [esi+8], 4
  0001d	5e		 pop	 esi

; 260  : }

  0001e	5d		 pop	 ebp
  0001f	c2 04 00	 ret	 4
??$?6H@CAr@@QAEAAV0@ABH@Z ENDP				; CAr::operator<<<int>
_TEXT	ENDS
; Function compile flags: /Ogtp
;	COMDAT ??_GCEventGeneric@@UAEPAXI@Z
_TEXT	SEGMENT
___flags$ = 8						; size = 4
??_GCEventGeneric@@UAEPAXI@Z PROC			; CEventGeneric::`scalar deleting destructor', COMDAT
; _this$ = ecx
  00000	55		 push	 ebp
  00001	8b ec		 mov	 ebp, esp
  00003	56		 push	 esi
  00004	8b f1		 mov	 esi, ecx
  00006	e8 00 00 00 00	 call	 ??1CEventGeneric@@UAE@XZ ; CEventGeneric::~CEventGeneric
  0000b	f6 45 08 01	 test	 BYTE PTR ___flags$[ebp], 1
  0000f	74 0b		 je	 SHORT $LN5@scalar
  00011	6a 2c		 push	 44			; 0000002cH
  00013	56		 push	 esi
  00014	e8 00 00 00 00	 call	 ??3@YAXPAXI@Z		; operator delete
  00019	83 c4 08	 add	 esp, 8
$LN5@scalar:
  0001c	8b c6		 mov	 eax, esi
  0001e	5e		 pop	 esi
  0001f	5d		 pop	 ebp
  00020	c2 04 00	 ret	 4
??_GCEventGeneric@@UAEPAXI@Z ENDP			; CEventGeneric::`scalar deleting destructor'
_TEXT	ENDS
; Function compile flags: /Ogtp
; File C:\IAGOS\server\v18\Source\Source\_Common\spevent.cpp
; File C:\Program Files\Microsoft Visual Studio\2022\Professional\VC\Tools\MSVC\14.44.35207\include\list
; File C:\IAGOS\server\v18\Source\Source\_Common\spevent.cpp
; File C:\Program Files\Microsoft Visual Studio\2022\Professional\VC\Tools\MSVC\14.44.35207\include\list
; File C:\IAGOS\server\v18\Source\Source\_Common\spevent.cpp
; File C:\Program Files\Microsoft Visual Studio\2022\Professional\VC\Tools\MSVC\14.44.35207\include\list
; File C:\IAGOS\server\v18\Source\Source\_Common\spevent.cpp
;	COMDAT ?GetEvent@CEventGeneric@@QAEPAU_EVENT_GENERIC@@H@Z
_TEXT	SEGMENT
_nEvent$ = 8						; size = 4
?GetEvent@CEventGeneric@@QAEPAU_EVENT_GENERIC@@H@Z PROC	; CEventGeneric::GetEvent, COMDAT
; _this$ = ecx

; 496  : {

  00000	55		 push	 ebp
  00001	8b ec		 mov	 ebp, esp
; File C:\Program Files\Microsoft Visual Studio\2022\Professional\VC\Tools\MSVC\14.44.35207\include\list

; 1105 :         return iterator(_Mypair._Myval2._Myhead->_Next, _STD addressof(_Mypair._Myval2));

  00003	8b 51 08	 mov	 edx, DWORD PTR [ecx+8]
; File C:\IAGOS\server\v18\Source\Source\_Common\spevent.cpp

; 496  : {

  00006	56		 push	 esi
; File C:\Program Files\Microsoft Visual Studio\2022\Professional\VC\Tools\MSVC\14.44.35207\include\list

; 37   :     _List_unchecked_const_iterator(_Nodeptr _Pnode, const _Mylist* _Plist) noexcept : _Ptr(_Pnode) {

  00007	8b 02		 mov	 eax, DWORD PTR [edx]

; 202  :         return !(*this == _Right);

  00009	3b c2		 cmp	 eax, edx
; File C:\IAGOS\server\v18\Source\Source\_Common\spevent.cpp

; 497  : 	for( list<EVENT_GENERIC*>::iterator i = m_lspEvent.begin(); i != m_lspEvent.end(); ++i )

  0000b	74 12		 je	 SHORT $LN3@GetEvent
  0000d	8b 75 08	 mov	 esi, DWORD PTR _nEvent$[ebp]
$LL4@GetEvent:

; 498  : 	{
; 499  : 		PEVENT_GENERIC pEvent	= *i;

  00010	8b 48 08	 mov	 ecx, DWORD PTR [eax+8]

; 500  : 		if( pEvent->nId == nEvent )

  00013	39 31		 cmp	 DWORD PTR [ecx], esi
  00015	74 0f		 je	 SHORT $LN50@GetEvent
; File C:\Program Files\Microsoft Visual Studio\2022\Professional\VC\Tools\MSVC\14.44.35207\include\list

; 164  :         this->_Ptr = this->_Ptr->_Next;

  00017	8b 08		 mov	 ecx, DWORD PTR [eax]
  00019	8b c1		 mov	 eax, ecx

; 202  :         return !(*this == _Right);

  0001b	3b ca		 cmp	 ecx, edx
; File C:\IAGOS\server\v18\Source\Source\_Common\spevent.cpp

; 497  : 	for( list<EVENT_GENERIC*>::iterator i = m_lspEvent.begin(); i != m_lspEvent.end(); ++i )

  0001d	75 f1		 jne	 SHORT $LL4@GetEvent
$LN3@GetEvent:

; 502  : 	}
; 503  : 	return NULL;

  0001f	33 c0		 xor	 eax, eax
  00021	5e		 pop	 esi

; 504  : }

  00022	5d		 pop	 ebp
  00023	c2 04 00	 ret	 4
$LN50@GetEvent:

; 501  : 			return pEvent;

  00026	8b c1		 mov	 eax, ecx
  00028	5e		 pop	 esi

; 504  : }

  00029	5d		 pop	 ebp
  0002a	c2 04 00	 ret	 4
?GetEvent@CEventGeneric@@QAEPAU_EVENT_GENERIC@@H@Z ENDP	; CEventGeneric::GetEvent
_TEXT	ENDS
; Function compile flags: /Ogtp
; File C:\IAGOS\server\v18\Source\Source\_Common\spevent.cpp
; File C:\Program Files\Microsoft Visual Studio\2022\Professional\VC\Tools\MSVC\14.44.35207\include\list
; File C:\IAGOS\server\v18\Source\Source\_Common\spevent.cpp
; File C:\Program Files\Microsoft Visual Studio\2022\Professional\VC\Tools\MSVC\14.44.35207\include\list
; File C:\IAGOS\server\v18\Source\Source\_Common\spevent.cpp
; File C:\Program Files\Microsoft Visual Studio\2022\Professional\VC\Tools\MSVC\14.44.35207\include\list
; File C:\IAGOS\server\v18\Source\Source\_Common\spevent.cpp
;	COMDAT ?Run@CEventGeneric@@QAEHXZ
_TEXT	SEGMENT
_t$1$ = -536						; size = 4
_this$GSCopy$1$ = -532					; size = 4
_bEvent$1$ = -528					; size = 4
_pEvent$1$ = -524					; size = 4
_f$1$ = -520						; size = 4
_lpOutputString$1 = -516				; size = 512
__$ArrayPad$ = -4					; size = 4
?Run@CEventGeneric@@QAEHXZ PROC				; CEventGeneric::Run, COMDAT
; _this$ = ecx

; 469  : {

  00000	55		 push	 ebp
  00001	8b ec		 mov	 ebp, esp
  00003	81 ec 18 02 00
	00		 sub	 esp, 536		; 00000218H
  00009	a1 00 00 00 00	 mov	 eax, DWORD PTR ___security_cookie
  0000e	33 c5		 xor	 eax, ebp
  00010	89 45 fc	 mov	 DWORD PTR __$ArrayPad$[ebp], eax

; 471  : 	time_t t	= time_null();

  00013	a1 00 00 00 00	 mov	 eax, DWORD PTR ?g_tCurrent@@3JA ; g_tCurrent
  00018	33 d2		 xor	 edx, edx
  0001a	89 85 e8 fd ff
	ff		 mov	 DWORD PTR _t$1$[ebp], eax
; File C:\Program Files\Microsoft Visual Studio\2022\Professional\VC\Tools\MSVC\14.44.35207\include\list

; 1105 :         return iterator(_Mypair._Myval2._Myhead->_Next, _STD addressof(_Mypair._Myval2));

  00020	8b 41 08	 mov	 eax, DWORD PTR [ecx+8]
; File C:\IAGOS\server\v18\Source\Source\_Common\spevent.cpp

; 469  : {

  00023	56		 push	 esi
  00024	89 8d ec fd ff
	ff		 mov	 DWORD PTR _this$GSCopy$1$[ebp], ecx

; 470  : 	BOOL f	= FALSE;

  0002a	89 95 f8 fd ff
	ff		 mov	 DWORD PTR _f$1$[ebp], edx
; File C:\Program Files\Microsoft Visual Studio\2022\Professional\VC\Tools\MSVC\14.44.35207\include\list

; 37   :     _List_unchecked_const_iterator(_Nodeptr _Pnode, const _Mylist* _Plist) noexcept : _Ptr(_Pnode) {

  00030	8b 30		 mov	 esi, DWORD PTR [eax]

; 202  :         return !(*this == _Right);

  00032	3b f0		 cmp	 esi, eax
; File C:\IAGOS\server\v18\Source\Source\_Common\spevent.cpp

; 472  : 	for( list<EVENT_GENERIC*>::iterator i = m_lspEvent.begin(); i != m_lspEvent.end(); ++i )

  00034	0f 84 c4 00 00
	00		 je	 $LN61@Run
  0003a	53		 push	 ebx
  0003b	57		 push	 edi
  0003c	8b 79 04	 mov	 edi, DWORD PTR [ecx+4]
  0003f	90		 npad	 1
$LL4@Run:

; 473  : 	{
; 474  : 		PEVENT_GENERIC pEvent	= *i;

  00040	8b 46 08	 mov	 eax, DWORD PTR [esi+8]

; 475  : 		BOOL bEvent	= ( t >= pEvent->tStart && t < pEvent->tEnd );

  00043	8b 8d e8 fd ff
	ff		 mov	 ecx, DWORD PTR _t$1$[ebp]
  00049	89 85 f4 fd ff
	ff		 mov	 DWORD PTR _pEvent$1$[ebp], eax
  0004f	8d 58 0c	 lea	 ebx, DWORD PTR [eax+12]
  00052	3b 48 08	 cmp	 ecx, DWORD PTR [eax+8]
  00055	7c 0e		 jl	 SHORT $LN59@Run
  00057	c7 85 f0 fd ff
	ff 01 00 00 00	 mov	 DWORD PTR _bEvent$1$[ebp], 1
  00061	3b 0b		 cmp	 ecx, DWORD PTR [ebx]
  00063	7c 0a		 jl	 SHORT $LN10@Run
$LN59@Run:
  00065	c7 85 f0 fd ff
	ff 00 00 00 00	 mov	 DWORD PTR _bEvent$1$[ebp], 0
$LN10@Run:

; 476  : 		// Ë¬
; 477  : 		char lpOutputString[512]	= { 0, };

  0006f	68 00 02 00 00	 push	 512			; 00000200H
  00074	8d 85 fc fd ff
	ff		 lea	 eax, DWORD PTR _lpOutputString$1[ebp]
  0007a	6a 00		 push	 0
  0007c	50		 push	 eax
  0007d	e8 00 00 00 00	 call	 _memset

; 478  : 		sprintf( lpOutputString, "m_dwFlag=0x%08x, nId=%d, tStart=%d, tEnd=%d, t=%d, nFlag=%d", m_dwFlag, pEvent->nId, pEvent->tStart, pEvent->tEnd, time_null(), pEvent->nFlag );

  00082	8b 85 f4 fd ff
	ff		 mov	 eax, DWORD PTR _pEvent$1$[ebp]
  00088	ff 70 04	 push	 DWORD PTR [eax+4]
  0008b	ff 35 00 00 00
	00		 push	 DWORD PTR ?g_tCurrent@@3JA ; g_tCurrent
  00091	ff 33		 push	 DWORD PTR [ebx]
  00093	8b d8		 mov	 ebx, eax
  00095	8d 85 fc fd ff
	ff		 lea	 eax, DWORD PTR _lpOutputString$1[ebp]
  0009b	ff 73 08	 push	 DWORD PTR [ebx+8]
  0009e	ff 33		 push	 DWORD PTR [ebx]
  000a0	57		 push	 edi
  000a1	68 00 00 00 00	 push	 OFFSET ??_C@_0DM@PNNFMCGB@m_dwFlag?$DN0x?$CF08x?0?5nId?$DN?$CFd?0?5tStart@
  000a6	50		 push	 eax
  000a7	e8 00 00 00 00	 call	 _sprintf
  000ac	83 c4 2c	 add	 esp, 44			; 0000002cH

; 479  : 		OutputDebugString( lpOutputString );

  000af	8d 85 fc fd ff
	ff		 lea	 eax, DWORD PTR _lpOutputString$1[ebp]
  000b5	50		 push	 eax
  000b6	ff 15 00 00 00
	00		 call	 DWORD PTR __imp__OutputDebugStringA@4

; 480  : 
; 481  : 		if( bEvent && !( m_dwFlag & pEvent->nFlag ) )

  000bc	83 bd f0 fd ff
	ff 00		 cmp	 DWORD PTR _bEvent$1$[ebp], 0
  000c3	8b 8d ec fd ff
	ff		 mov	 ecx, DWORD PTR _this$GSCopy$1$[ebp]
  000c9	74 44		 je	 SHORT $LN56@Run
  000cb	8b 41 04	 mov	 eax, DWORD PTR [ecx+4]
  000ce	8b 7b 04	 mov	 edi, DWORD PTR [ebx+4]
  000d1	85 f8		 test	 edi, eax
  000d3	75 12		 jne	 SHORT $LN5@Run

; 482  : 		{
; 483  : 			m_dwFlag	|= pEvent->nFlag;

  000d5	0b f8		 or	 edi, eax

; 484  : 			f	= TRUE;

  000d7	ba 01 00 00 00	 mov	 edx, 1
  000dc	89 79 04	 mov	 DWORD PTR [ecx+4], edi
  000df	89 95 f8 fd ff
	ff		 mov	 DWORD PTR _f$1$[ebp], edx

; 485  : 		}

  000e5	eb 08		 jmp	 SHORT $LN2@Run
$LN5@Run:

; 486  : 		else if( !bEvent && ( m_dwFlag & pEvent->nFlag ) )

  000e7	8b f8		 mov	 edi, eax
$LN66@Run:
; File C:\Program Files\Microsoft Visual Studio\2022\Professional\VC\Tools\MSVC\14.44.35207\include\list

; 164  :         this->_Ptr = this->_Ptr->_Next;

  000e9	8b 95 f8 fd ff
	ff		 mov	 edx, DWORD PTR _f$1$[ebp]
$LN2@Run:
  000ef	8b 06		 mov	 eax, DWORD PTR [esi]
  000f1	8b f0		 mov	 esi, eax

; 202  :         return !(*this == _Right);

  000f3	3b 41 08	 cmp	 eax, DWORD PTR [ecx+8]
; File C:\IAGOS\server\v18\Source\Source\_Common\spevent.cpp

; 472  : 	for( list<EVENT_GENERIC*>::iterator i = m_lspEvent.begin(); i != m_lspEvent.end(); ++i )

  000f6	0f 85 44 ff ff
	ff		 jne	 $LL4@Run
  000fc	5f		 pop	 edi
  000fd	5b		 pop	 ebx
$LN61@Run:

; 490  : 		}
; 491  : 	}
; 492  : 	return f;
; 493  : }

  000fe	8b 4d fc	 mov	 ecx, DWORD PTR __$ArrayPad$[ebp]
  00101	8b c2		 mov	 eax, edx
  00103	33 cd		 xor	 ecx, ebp
  00105	5e		 pop	 esi
  00106	e8 00 00 00 00	 call	 @__security_check_cookie@4
  0010b	8b e5		 mov	 esp, ebp
  0010d	5d		 pop	 ebp
  0010e	c3		 ret	 0
$LN56@Run:
  0010f	8b 43 04	 mov	 eax, DWORD PTR [ebx+4]
  00112	8b 79 04	 mov	 edi, DWORD PTR [ecx+4]

; 486  : 		else if( !bEvent && ( m_dwFlag & pEvent->nFlag ) )

  00115	85 c7		 test	 eax, edi
  00117	74 d0		 je	 SHORT $LN66@Run

; 487  : 		{
; 488  : 			m_dwFlag	&= ~pEvent->nFlag;

  00119	f7 d0		 not	 eax

; 489  : 			f	= TRUE;

  0011b	ba 01 00 00 00	 mov	 edx, 1
  00120	23 c7		 and	 eax, edi
  00122	89 95 f8 fd ff
	ff		 mov	 DWORD PTR _f$1$[ebp], edx
  00128	89 41 04	 mov	 DWORD PTR [ecx+4], eax
  0012b	8b f8		 mov	 edi, eax
  0012d	eb c0		 jmp	 SHORT $LN2@Run
?Run@CEventGeneric@@QAEHXZ ENDP				; CEventGeneric::Run
_TEXT	ENDS
; Function compile flags: /Ogtp
; File C:\IAGOS\server\v18\Source\Source\_Common\spevent.cpp
; File C:\IAGOS\server\v18\Source\Source\_Network\Misc\Include\ar.h
; File C:\IAGOS\server\v18\Source\Source\_Common\spevent.cpp
; File C:\Program Files\Microsoft Visual Studio\2022\Professional\VC\Tools\MSVC\14.44.35207\include\list
; File C:\IAGOS\server\v18\Source\Source\_Common\spevent.cpp
; File C:\Program Files\Microsoft Visual Studio\2022\Professional\VC\Tools\MSVC\14.44.35207\include\list
; File C:\IAGOS\server\v18\Source\Source\_Common\spevent.cpp
; File C:\Program Files\Microsoft Visual Studio\2022\Professional\VC\Tools\MSVC\14.44.35207\include\xtree
; File C:\IAGOS\server\v18\Source\Source\_Common\spevent.cpp
; File C:\Program Files\Microsoft Visual Studio\2022\Professional\VC\Tools\MSVC\14.44.35207\include\xtree
; File C:\IAGOS\server\v18\Source\Source\_Common\spevent.cpp
; File C:\Program Files\Microsoft Visual Studio\2022\Professional\VC\Tools\MSVC\14.44.35207\include\list
; File C:\IAGOS\server\v18\Source\Source\_Common\spevent.cpp
; File C:\Program Files\Microsoft Visual Studio\2022\Professional\VC\Tools\MSVC\14.44.35207\include\list
; File C:\IAGOS\server\v18\Source\Source\_Common\spevent.cpp
; File C:\Program Files\Microsoft Visual Studio\2022\Professional\VC\Tools\MSVC\14.44.35207\include\xtree
; File C:\IAGOS\server\v18\Source\Source\_Common\spevent.cpp
; File C:\IAGOS\server\v18\Source\Source\_Common\spevent.h
; File C:\IAGOS\server\v18\Source\Source\_Common\spevent.cpp
; File C:\Program Files\Microsoft Visual Studio\2022\Professional\VC\Tools\MSVC\14.44.35207\include\list
; File C:\Program Files\Microsoft Visual Studio\2022\Professional\VC\Tools\MSVC\14.44.35207\include\xmemory
; File C:\Program Files\Microsoft Visual Studio\2022\Professional\VC\Tools\MSVC\14.44.35207\include\list
; File C:\Program Files\Microsoft Visual Studio\2022\Professional\VC\Tools\MSVC\14.44.35207\include\xmemory
; File C:\Program Files\Microsoft Visual Studio\2022\Professional\VC\Tools\MSVC\14.44.35207\include\list
; File C:\Program Files\Microsoft Visual Studio\2022\Professional\VC\Tools\MSVC\14.44.35207\include\xmemory
; File C:\Program Files\Microsoft Visual Studio\2022\Professional\VC\Tools\MSVC\14.44.35207\include\list
; File C:\IAGOS\server\v18\Source\Source\_Common\spevent.cpp
; File C:\Program Files\Microsoft Visual Studio\2022\Professional\VC\Tools\MSVC\14.44.35207\include\xmemory
; File C:\Program Files\Microsoft Visual Studio\2022\Professional\VC\Tools\MSVC\14.44.35207\include\list
; File C:\Program Files\Microsoft Visual Studio\2022\Professional\VC\Tools\MSVC\14.44.35207\include\xmemory
; File C:\Program Files\Microsoft Visual Studio\2022\Professional\VC\Tools\MSVC\14.44.35207\include\list
; File C:\IAGOS\server\v18\Source\Source\_Common\spevent.cpp
; File C:\Program Files\Microsoft Visual Studio\2022\Professional\VC\Tools\MSVC\14.44.35207\include\utility
; File C:\Program Files\Microsoft Visual Studio\2022\Professional\VC\Tools\MSVC\14.44.35207\include\xtree
; File C:\IAGOS\server\v18\Source\Source\_Common\spevent.cpp
; File C:\Program Files\Microsoft Visual Studio\2022\Professional\VC\Tools\MSVC\14.44.35207\include\xtree
; File C:\Program Files\Microsoft Visual Studio\2022\Professional\VC\Tools\MSVC\14.44.35207\include\utility
; File C:\Program Files\Microsoft Visual Studio\2022\Professional\VC\Tools\MSVC\14.44.35207\include\xtree
; File C:\Program Files\Microsoft Visual Studio\2022\Professional\VC\Tools\MSVC\14.44.35207\include\type_traits
; File C:\Program Files\Microsoft Visual Studio\2022\Professional\VC\Tools\MSVC\14.44.35207\include\xtree
; File C:\Program Files\Microsoft Visual Studio\2022\Professional\VC\Tools\MSVC\14.44.35207\include\xmemory
; File C:\Program Files\Microsoft Visual Studio\2022\Professional\VC\Tools\MSVC\14.44.35207\include\xtree
; File C:\Program Files\Microsoft Visual Studio\2022\Professional\VC\Tools\MSVC\14.44.35207\include\xmemory
; File C:\Program Files\Microsoft Visual Studio\2022\Professional\VC\Tools\MSVC\14.44.35207\include\xtree
; File C:\Program Files\Microsoft Visual Studio\2022\Professional\VC\Tools\MSVC\14.44.35207\include\xmemory
; File C:\Program Files\Microsoft Visual Studio\2022\Professional\VC\Tools\MSVC\14.44.35207\include\xtree
; File C:\Program Files\Microsoft Visual Studio\2022\Professional\VC\Tools\MSVC\14.44.35207\include\utility
; File C:\Program Files\Microsoft Visual Studio\2022\Professional\VC\Tools\MSVC\14.44.35207\include\xtree
; File C:\IAGOS\server\v18\Source\Source\_Common\spevent.cpp
; File C:\Program Files\Microsoft Visual Studio\2022\Professional\VC\Tools\MSVC\14.44.35207\include\list
; File C:\Program Files\Microsoft Visual Studio\2022\Professional\VC\Tools\MSVC\14.44.35207\include\xmemory
; File C:\Program Files\Microsoft Visual Studio\2022\Professional\VC\Tools\MSVC\14.44.35207\include\list
; File C:\Program Files\Microsoft Visual Studio\2022\Professional\VC\Tools\MSVC\14.44.35207\include\xmemory
; File C:\Program Files\Microsoft Visual Studio\2022\Professional\VC\Tools\MSVC\14.44.35207\include\list
; File C:\Program Files\Microsoft Visual Studio\2022\Professional\VC\Tools\MSVC\14.44.35207\include\xmemory
; File C:\Program Files\Microsoft Visual Studio\2022\Professional\VC\Tools\MSVC\14.44.35207\include\list
; File C:\IAGOS\server\v18\Source\Source\_Common\spevent.cpp
; File C:\Program Files\Microsoft Visual Studio\2022\Professional\VC\Tools\MSVC\14.44.35207\include\list
; File C:\IAGOS\server\v18\Source\Source\_Common\spevent.cpp
; File C:\Program Files\Microsoft Visual Studio\2022\Professional\VC\Tools\MSVC\14.44.35207\include\list
; File C:\IAGOS\server\v18\Source\Source\_Common\spevent.cpp
; File C:\Program Files\Microsoft Visual Studio\2022\Professional\VC\Tools\MSVC\14.44.35207\include\xtree
; File C:\Program Files\Microsoft Visual Studio\2022\Professional\VC\Tools\MSVC\14.44.35207\include\list
; File C:\IAGOS\server\v18\Source\Source\_Common\spevent.cpp
;	COMDAT ?Serialize@CEventGeneric@@QAEXAAVCAr@@@Z
_TEXT	SEGMENT
$T2 = -92						; size = 12
__Loc$3 = -80						; size = 12
__Op$4 = -68						; size = 8
$T5 = -60						; size = 8
$T6 = -52						; size = 8
__Op$7 = -44						; size = 8
$T8 = -40						; size = 4
$T9 = -36						; size = 4
$T10 = -36						; size = 4
__Where$1$ = -36					; size = 4
$T11 = -32						; size = 4
_nEventItemListSize$12 = -32				; size = 4
__Where$1$ = -32					; size = 4
_pList$1$ = -28						; size = 4
_i$1$ = -28						; size = 4
_nEventItemSize$13 = -24				; size = 4
_nEvent$14 = -20					; size = 4
_this$1$ = -20						; size = 4
_nEventSize$15 = -16					; size = 4
_j$1$ = -16						; size = 4
__$EHRec$ = -12						; size = 12
_ar$ = 8						; size = 4
$T16 = 8						; size = 4
$T17 = 8						; size = 4
_i2$1$ = 8						; size = 4
_i$1$ = 8						; size = 4
_this$1$ = 8						; size = 4
?Serialize@CEventGeneric@@QAEXAAVCAr@@@Z PROC		; CEventGeneric::Serialize, COMDAT
; _this$ = ecx

; 411  : {

  00000	55		 push	 ebp
  00001	8b ec		 mov	 ebp, esp
  00003	6a ff		 push	 -1
  00005	68 00 00 00 00	 push	 __ehhandler$?Serialize@CEventGeneric@@QAEXAAVCAr@@@Z
  0000a	64 a1 00 00 00
	00		 mov	 eax, DWORD PTR fs:0
  00010	50		 push	 eax
  00011	83 ec 50	 sub	 esp, 80			; 00000050H
  00014	53		 push	 ebx
  00015	56		 push	 esi
  00016	57		 push	 edi
  00017	a1 00 00 00 00	 mov	 eax, DWORD PTR ___security_cookie
  0001c	33 c5		 xor	 eax, ebp
  0001e	50		 push	 eax
  0001f	8d 45 f4	 lea	 eax, DWORD PTR __$EHRec$[ebp]
  00022	64 a3 00 00 00
	00		 mov	 DWORD PTR fs:0, eax
  00028	8b f9		 mov	 edi, ecx
  0002a	89 7d ec	 mov	 DWORD PTR _this$1$[ebp], edi
; File C:\IAGOS\server\v18\Source\Source\_Network\Misc\Include\ar.h

; 146  : 	return (m_nMode & CAr::load) == 0;

  0002d	8b 5d 08	 mov	 ebx, DWORD PTR _ar$[ebp]
  00030	f6 03 01	 test	 BYTE PTR [ebx], 1
; File C:\IAGOS\server\v18\Source\Source\_Common\spevent.cpp

; 412  : 	if( ar.IsStoring() )

  00033	0f 85 06 01 00
	00		 jne	 $LN20@Serialize

; 413  : 	{
; 414  : 		ar << (int)m_lspEvent.size();

  00039	8b 47 0c	 mov	 eax, DWORD PTR [edi+12]
  0003c	8b cb		 mov	 ecx, ebx
  0003e	89 45 08	 mov	 DWORD PTR $T16[ebp], eax
  00041	8d 45 08	 lea	 eax, DWORD PTR $T16[ebp]
  00044	50		 push	 eax
  00045	e8 00 00 00 00	 call	 ??$?6H@CAr@@QAEAAV0@ABH@Z ; CAr::operator<<<int>
; File C:\Program Files\Microsoft Visual Studio\2022\Professional\VC\Tools\MSVC\14.44.35207\include\list

; 1105 :         return iterator(_Mypair._Myval2._Myhead->_Next, _STD addressof(_Mypair._Myval2));

  0004a	8b 47 08	 mov	 eax, DWORD PTR [edi+8]

; 37   :     _List_unchecked_const_iterator(_Nodeptr _Pnode, const _Mylist* _Plist) noexcept : _Ptr(_Pnode) {

  0004d	8b 30		 mov	 esi, DWORD PTR [eax]

; 202  :         return !(*this == _Right);

  0004f	3b f0		 cmp	 esi, eax
; File C:\IAGOS\server\v18\Source\Source\_Common\spevent.cpp

; 415  : 		for( list<EVENT_GENERIC*>::iterator i = m_lspEvent.begin(); i != m_lspEvent.end(); ++i )

  00051	74 15		 je	 SHORT $LN3@Serialize
$LL4@Serialize:

; 416  : 		{
; 417  : 			PEVENT_GENERIC pEvent	= *i;
; 418  : 			ar.Write( (const void*)pEvent, sizeof(EVENT_GENERIC) );

  00053	6a 7c		 push	 124			; 0000007cH
  00055	ff 76 08	 push	 DWORD PTR [esi+8]
  00058	8b cb		 mov	 ecx, ebx
  0005a	e8 00 00 00 00	 call	 ?Write@CAr@@QAEXPBXI@Z	; CAr::Write
; File C:\Program Files\Microsoft Visual Studio\2022\Professional\VC\Tools\MSVC\14.44.35207\include\list

; 164  :         this->_Ptr = this->_Ptr->_Next;

  0005f	8b 06		 mov	 eax, DWORD PTR [esi]
  00061	8b f0		 mov	 esi, eax

; 202  :         return !(*this == _Right);

  00063	3b 47 08	 cmp	 eax, DWORD PTR [edi+8]
; File C:\IAGOS\server\v18\Source\Source\_Common\spevent.cpp

; 415  : 		for( list<EVENT_GENERIC*>::iterator i = m_lspEvent.begin(); i != m_lspEvent.end(); ++i )

  00066	75 eb		 jne	 SHORT $LL4@Serialize
$LN3@Serialize:

; 419  : 		}
; 420  : 		ar << (int)m_mapEventItemList.size();

  00068	8b 47 14	 mov	 eax, DWORD PTR [edi+20]
  0006b	8b cb		 mov	 ecx, ebx
  0006d	89 45 08	 mov	 DWORD PTR $T17[ebp], eax
  00070	8d 45 08	 lea	 eax, DWORD PTR $T17[ebp]
  00073	50		 push	 eax
  00074	e8 00 00 00 00	 call	 ??$?6H@CAr@@QAEAAV0@ABH@Z ; CAr::operator<<<int>
; File C:\Program Files\Microsoft Visual Studio\2022\Professional\VC\Tools\MSVC\14.44.35207\include\xtree

; 1142 :         return iterator(_Scary->_Myhead->_Left, _Scary);

  00079	8b 47 10	 mov	 eax, DWORD PTR [edi+16]

; 37   :     _Tree_unchecked_const_iterator(_Nodeptr _Pnode, const _Mytree* _Plist) noexcept : _Ptr(_Pnode) {

  0007c	8b 30		 mov	 esi, DWORD PTR [eax]
  0007e	89 75 08	 mov	 DWORD PTR _i2$1$[ebp], esi

; 237  :         return !(*this == _Right);

  00081	3b f0		 cmp	 esi, eax
; File C:\IAGOS\server\v18\Source\Source\_Common\spevent.cpp

; 421  : 		for( map<int, list<CEventItem*>*>::iterator i2 = m_mapEventItemList.begin(); i2 != m_mapEventItemList.end(); ++i2 )

  00083	0f 84 a2 00 00
	00		 je	 $LN15@Serialize
  00089	0f 1f 80 00 00
	00 00		 npad	 7
$LL7@Serialize:
; File C:\Program Files\Microsoft Visual Studio\2022\Professional\VC\Tools\MSVC\14.44.35207\include\xtree

; 185  :         return this->_Ptr->_Myval;

  00090	8d 46 10	 lea	 eax, DWORD PTR [esi+16]
; File C:\IAGOS\server\v18\Source\Source\_Common\spevent.cpp

; 423  : 			ar << (int)i2->first;

  00093	8b cb		 mov	 ecx, ebx
  00095	50		 push	 eax
  00096	e8 00 00 00 00	 call	 ??$?6H@CAr@@QAEAAV0@ABH@Z ; CAr::operator<<<int>

; 424  : 			list<CEventItem*>* pList	= i2->second;

  0009b	8b 7e 14	 mov	 edi, DWORD PTR [esi+20]

; 425  : 			ar << (int)pList->size();

  0009e	8b cb		 mov	 ecx, ebx
  000a0	89 7d e4	 mov	 DWORD PTR _pList$1$[ebp], edi
  000a3	8b 47 04	 mov	 eax, DWORD PTR [edi+4]
  000a6	89 45 e0	 mov	 DWORD PTR $T11[ebp], eax
  000a9	8d 45 e0	 lea	 eax, DWORD PTR $T11[ebp]
  000ac	50		 push	 eax
  000ad	e8 00 00 00 00	 call	 ??$?6H@CAr@@QAEAAV0@ABH@Z ; CAr::operator<<<int>
; File C:\Program Files\Microsoft Visual Studio\2022\Professional\VC\Tools\MSVC\14.44.35207\include\list

; 1105 :         return iterator(_Mypair._Myval2._Myhead->_Next, _STD addressof(_Mypair._Myval2));

  000b2	8b 07		 mov	 eax, DWORD PTR [edi]

; 37   :     _List_unchecked_const_iterator(_Nodeptr _Pnode, const _Mylist* _Plist) noexcept : _Ptr(_Pnode) {

  000b4	8b 38		 mov	 edi, DWORD PTR [eax]

; 202  :         return !(*this == _Right);

  000b6	3b f8		 cmp	 edi, eax
; File C:\IAGOS\server\v18\Source\Source\_Common\spevent.cpp

; 426  : 			for( list<CEventItem*>::iterator i3 = pList->begin(); i3 != pList->end(); ++i3 )

  000b8	74 1a		 je	 SHORT $LN5@Serialize
  000ba	8b 75 e4	 mov	 esi, DWORD PTR _pList$1$[ebp]
  000bd	0f 1f 00	 npad	 3
$LL10@Serialize:

; 427  : 			{
; 428  : 				CEventItem* pEventItem	= *i3;
; 429  : 				pEventItem->Serialize( ar );

  000c0	8b 4f 08	 mov	 ecx, DWORD PTR [edi+8]
  000c3	53		 push	 ebx
  000c4	e8 00 00 00 00	 call	 ?Serialize@CEventItem@@QAEXAAVCAr@@@Z ; CEventItem::Serialize
; File C:\Program Files\Microsoft Visual Studio\2022\Professional\VC\Tools\MSVC\14.44.35207\include\list

; 164  :         this->_Ptr = this->_Ptr->_Next;

  000c9	8b 07		 mov	 eax, DWORD PTR [edi]
  000cb	8b f8		 mov	 edi, eax

; 202  :         return !(*this == _Right);

  000cd	3b 06		 cmp	 eax, DWORD PTR [esi]
; File C:\IAGOS\server\v18\Source\Source\_Common\spevent.cpp

; 426  : 			for( list<CEventItem*>::iterator i3 = pList->begin(); i3 != pList->end(); ++i3 )

  000cf	75 ef		 jne	 SHORT $LL10@Serialize
  000d1	8b 75 08	 mov	 esi, DWORD PTR _i2$1$[ebp]
$LN5@Serialize:
; File C:\Program Files\Microsoft Visual Studio\2022\Professional\VC\Tools\MSVC\14.44.35207\include\xtree

; 50   :         if (_Ptr->_Right->_Isnil) { // climb looking for right subtree

  000d4	8b 46 08	 mov	 eax, DWORD PTR [esi+8]
  000d7	80 78 0d 00	 cmp	 BYTE PTR [eax+13], 0
  000db	74 20		 je	 SHORT $LN78@Serialize

; 51   :             _Nodeptr _Pnode;
; 52   :             while (!(_Pnode = _Ptr->_Parent)->_Isnil && _Ptr == _Pnode->_Right) {

  000dd	8b 46 04	 mov	 eax, DWORD PTR [esi+4]
  000e0	80 78 0d 00	 cmp	 BYTE PTR [eax+13], 0
  000e4	75 10		 jne	 SHORT $LN469@Serialize
$LL76@Serialize:
  000e6	3b 70 08	 cmp	 esi, DWORD PTR [eax+8]
  000e9	75 0b		 jne	 SHORT $LN469@Serialize

; 53   :                 _Ptr = _Pnode; // ==> parent while right subtree

  000eb	8b f0		 mov	 esi, eax
  000ed	8b 40 04	 mov	 eax, DWORD PTR [eax+4]
  000f0	80 78 0d 00	 cmp	 BYTE PTR [eax+13], 0
  000f4	74 f0		 je	 SHORT $LL76@Serialize
$LN469@Serialize:

; 54   :             }
; 55   : 
; 56   :             _Ptr = _Pnode; // ==> parent (head if end())

  000f6	8b f0		 mov	 esi, eax
  000f8	89 75 08	 mov	 DWORD PTR _i2$1$[ebp], esi

; 57   :         } else {

  000fb	eb 22		 jmp	 SHORT $LN84@Serialize
$LN78@Serialize:

; 58   :             _Ptr = _Mytree::_Min(_Ptr->_Right); // ==> smallest of right subtree

  000fd	8b f0		 mov	 esi, eax
  000ff	89 75 08	 mov	 DWORD PTR _i2$1$[ebp], esi

; 476  :         while (!_Pnode->_Left->_Isnil) {

  00102	8b 0e		 mov	 ecx, DWORD PTR [esi]
  00104	80 79 0d 00	 cmp	 BYTE PTR [ecx+13], 0
  00108	75 15		 jne	 SHORT $LN84@Serialize
  0010a	66 0f 1f 44 00
	00		 npad	 6
$LL83@Serialize:
  00110	8b 01		 mov	 eax, DWORD PTR [ecx]

; 477  :             _Pnode = _Pnode->_Left;

  00112	8b f1		 mov	 esi, ecx
  00114	89 75 08	 mov	 DWORD PTR _i2$1$[ebp], esi
  00117	8b c8		 mov	 ecx, eax
  00119	80 78 0d 00	 cmp	 BYTE PTR [eax+13], 0
  0011d	74 f1		 je	 SHORT $LL83@Serialize
$LN84@Serialize:

; 237  :         return !(*this == _Right);

  0011f	8b 45 ec	 mov	 eax, DWORD PTR _this$1$[ebp]
  00122	3b 70 10	 cmp	 esi, DWORD PTR [eax+16]
; File C:\IAGOS\server\v18\Source\Source\_Common\spevent.cpp

; 421  : 		for( map<int, list<CEventItem*>*>::iterator i2 = m_mapEventItemList.begin(); i2 != m_mapEventItemList.end(); ++i2 )

  00125	0f 85 65 ff ff
	ff		 jne	 $LL7@Serialize
$LN15@Serialize:

; 466  : }

  0012b	8b 4d f4	 mov	 ecx, DWORD PTR __$EHRec$[ebp]
  0012e	64 89 0d 00 00
	00 00		 mov	 DWORD PTR fs:0, ecx
  00135	59		 pop	 ecx
  00136	5f		 pop	 edi
  00137	5e		 pop	 esi
  00138	5b		 pop	 ebx
  00139	8b e5		 mov	 esp, ebp
  0013b	5d		 pop	 ebp
  0013c	c2 04 00	 ret	 4
$LN20@Serialize:

; 430  : 			}
; 431  : 		}
; 432  : 	}
; 433  : 	else
; 434  : 	{
; 435  : 		Clear( FALSE );

  0013f	6a 00		 push	 0
  00141	e8 00 00 00 00	 call	 ?Clear@CEventGeneric@@QAEXH@Z ; CEventGeneric::Clear

; 436  : 		int nEventSize;
; 437  : 		ar >> nEventSize;

  00146	8d 45 f0	 lea	 eax, DWORD PTR _nEventSize$15[ebp]
  00149	8b cb		 mov	 ecx, ebx
  0014b	50		 push	 eax
  0014c	e8 00 00 00 00	 call	 ??$?5H@CAr@@QAEAAV0@AAH@Z ; CAr::operator>><int>

; 438  : 		for( int i = 0; i < nEventSize; i++ )

  00151	83 7d f0 00	 cmp	 DWORD PTR _nEventSize$15[ebp], 0
  00155	c7 45 08 00 00
	00 00		 mov	 DWORD PTR _i$1$[ebp], 0
  0015c	0f 8e b5 00 00
	00		 jle	 $LN12@Serialize
  00162	83 c7 08	 add	 edi, 8
$LL13@Serialize:

; 440  : 			PEVENT_GENERIC pEvent	= new EVENT_GENERIC;

  00165	6a 7c		 push	 124			; 0000007cH
  00167	e8 00 00 00 00	 call	 ??2@YAPAXI@Z		; operator new
  0016c	8b f0		 mov	 esi, eax
  0016e	83 c4 04	 add	 esp, 4
  00171	89 75 dc	 mov	 DWORD PTR $T9[ebp], esi
  00174	85 f6		 test	 esi, esi
  00176	74 2f		 je	 SHORT $LN24@Serialize
; File C:\IAGOS\server\v18\Source\Source\_Common\spevent.h

; 44   : 		nId	= 0;

  00178	c7 06 00 00 00
	00		 mov	 DWORD PTR [esi], 0

; 45   : 		nFlag	= 0;

  0017e	c7 46 04 00 00
	00 00		 mov	 DWORD PTR [esi+4], 0

; 46   : 		tStart	= 0;

  00185	c7 46 08 00 00
	00 00		 mov	 DWORD PTR [esi+8], 0

; 47   : 		tEnd	= 0;

  0018c	c7 46 0c 00 00
	00 00		 mov	 DWORD PTR [esi+12], 0

; 48   : 		*pszTitle	= '\0';

  00193	c6 46 18 00	 mov	 BYTE PTR [esi+24], 0

; 49   : 		fExpFactor	= 1.0f;

  00197	c7 46 10 00 00
	80 3f		 mov	 DWORD PTR [esi+16], 1065353216 ; 3f800000H

; 50   : #ifdef __ITEMDROPRATE
; 51   : 		fItemDropRate = 1.0f;

  0019e	c7 46 14 00 00
	80 3f		 mov	 DWORD PTR [esi+20], 1065353216 ; 3f800000H
; File C:\IAGOS\server\v18\Source\Source\_Common\spevent.cpp

; 440  : 			PEVENT_GENERIC pEvent	= new EVENT_GENERIC;

  001a5	eb 02		 jmp	 SHORT $LN25@Serialize
$LN24@Serialize:
  001a7	33 f6		 xor	 esi, esi
$LN25@Serialize:

; 441  : 			ar.Read( (void*)pEvent, sizeof(EVENT_GENERIC) );

  001a9	6a 7c		 push	 124			; 0000007cH
  001ab	56		 push	 esi
  001ac	8b cb		 mov	 ecx, ebx
  001ae	e8 00 00 00 00	 call	 ?Read@CAr@@QAEXPAXI@Z	; CAr::Read
; File C:\Program Files\Microsoft Visual Studio\2022\Professional\VC\Tools\MSVC\14.44.35207\include\list

; 1030 :         if (_Mysize == max_size()) {

  001b3	81 7f 04 55 55
	55 15		 cmp	 DWORD PTR [edi+4], 357913941 ; 15555555H

; 1274 :         _Emplace(_Mypair._Myval2._Myhead, _Val);

  001ba	8b 07		 mov	 eax, DWORD PTR [edi]
  001bc	89 45 e0	 mov	 DWORD PTR __Where$1$[ebp], eax

; 1030 :         if (_Mysize == max_size()) {

  001bf	0f 84 1a 02 00
	00		 je	 $LN437@Serialize
; File C:\Program Files\Microsoft Visual Studio\2022\Professional\VC\Tools\MSVC\14.44.35207\include\xmemory

; 1160 :     _CONSTEXPR20 explicit _Alloc_construct_ptr(_Alloc& _Al_) : _Al(_Al_), _Ptr(nullptr) {}

  001c5	89 7d d4	 mov	 DWORD PTR __Op$7[ebp], edi

; 136  :         return ::operator new(_Bytes);

  001c8	6a 0c		 push	 12			; 0000000cH
; File C:\Program Files\Microsoft Visual Studio\2022\Professional\VC\Tools\MSVC\14.44.35207\include\list

; 593  :     explicit _List_node_emplace_op2(_Alnode& _Al_, _Valtys&&... _Vals) : _Alloc_construct_ptr<_Alnode>(_Al_) {

  001ca	c7 45 fc 00 00
	00 00		 mov	 DWORD PTR __$EHRec$[ebp+8], 0
; File C:\Program Files\Microsoft Visual Studio\2022\Professional\VC\Tools\MSVC\14.44.35207\include\xmemory

; 1167 :         _Ptr = nullptr; // if allocate throws, prevents double-free

  001d1	c7 45 d8 00 00
	00 00		 mov	 DWORD PTR __Op$7[ebp+4], 0

; 136  :         return ::operator new(_Bytes);

  001d8	e8 00 00 00 00	 call	 ??2@YAPAXI@Z		; operator new
; File C:\Program Files\Microsoft Visual Studio\2022\Professional\VC\Tools\MSVC\14.44.35207\include\list

; 608  :         const pointer _Insert_after = _Insert_before->_Prev;

  001dd	8b 55 e0	 mov	 edx, DWORD PTR __Where$1$[ebp]
; File C:\Program Files\Microsoft Visual Studio\2022\Professional\VC\Tools\MSVC\14.44.35207\include\xmemory

; 136  :         return ::operator new(_Bytes);

  001e0	83 c4 04	 add	 esp, 4
; File C:\Program Files\Microsoft Visual Studio\2022\Professional\VC\Tools\MSVC\14.44.35207\include\list

; 596  :     }

  001e3	c7 45 fc ff ff
	ff ff		 mov	 DWORD PTR __$EHRec$[ebp+8], -1

; 612  :         this->_Ptr            = pointer{};

  001ea	c7 45 d8 00 00
	00 00		 mov	 DWORD PTR __Op$7[ebp+4], 0

; 595  :         _Alnode_traits::construct(this->_Al, _STD addressof(this->_Ptr->_Myval), _STD forward<_Valtys>(_Vals)...);

  001f1	89 70 08	 mov	 DWORD PTR [eax+8], esi

; 1035 :         ++_Mysize;

  001f4	ff 47 04	 inc	 DWORD PTR [edi+4]

; 608  :         const pointer _Insert_after = _Insert_before->_Prev;

  001f7	8b 4a 04	 mov	 ecx, DWORD PTR [edx+4]

; 609  :         _Construct_in_place(this->_Ptr->_Next, _Insert_before);

  001fa	89 10		 mov	 DWORD PTR [eax], edx

; 610  :         _Construct_in_place(this->_Ptr->_Prev, _Insert_after);

  001fc	89 48 04	 mov	 DWORD PTR [eax+4], ecx

; 613  :         _Insert_before->_Prev = _Result;

  001ff	89 42 04	 mov	 DWORD PTR [edx+4], eax

; 614  :         _Insert_after->_Next  = _Result;

  00202	89 01		 mov	 DWORD PTR [ecx], eax
; File C:\IAGOS\server\v18\Source\Source\_Common\spevent.cpp

; 438  : 		for( int i = 0; i < nEventSize; i++ )

  00204	8b 45 08	 mov	 eax, DWORD PTR _i$1$[ebp]
  00207	40		 inc	 eax
  00208	89 45 08	 mov	 DWORD PTR _i$1$[ebp], eax
  0020b	3b 45 f0	 cmp	 eax, DWORD PTR _nEventSize$15[ebp]
  0020e	0f 8c 51 ff ff
	ff		 jl	 $LL13@Serialize
  00214	8b 7d ec	 mov	 edi, DWORD PTR _this$1$[ebp]
$LN12@Serialize:

; 442  : 			m_lspEvent.push_back( pEvent );
; 443  : 		}
; 444  : 		int nEventItemListSize;
; 445  : 		ar >> nEventItemListSize;

  00217	8d 45 e0	 lea	 eax, DWORD PTR _nEventItemListSize$12[ebp]
  0021a	8b cb		 mov	 ecx, ebx
  0021c	50		 push	 eax
  0021d	e8 00 00 00 00	 call	 ??$?5H@CAr@@QAEAAV0@AAH@Z ; CAr::operator>><int>

; 446  : 		for( int i = 0; i < nEventItemListSize; i++ )

  00222	83 7d e0 00	 cmp	 DWORD PTR _nEventItemListSize$12[ebp], 0
  00226	c7 45 e4 00 00
	00 00		 mov	 DWORD PTR _i$1$[ebp], 0
  0022d	0f 8e f8 fe ff
	ff		 jle	 $LN15@Serialize
  00233	8d 47 10	 lea	 eax, DWORD PTR [edi+16]
  00236	89 45 08	 mov	 DWORD PTR _this$1$[ebp], eax
  00239	0f 1f 80 00 00
	00 00		 npad	 7
$LL16@Serialize:

; 447  : 		{
; 448  : 			int nEvent;
; 449  : 			ar >> nEvent;

  00240	8d 45 ec	 lea	 eax, DWORD PTR _nEvent$14[ebp]
  00243	8b cb		 mov	 ecx, ebx
  00245	50		 push	 eax
  00246	e8 00 00 00 00	 call	 ??$?5H@CAr@@QAEAAV0@AAH@Z ; CAr::operator>><int>

; 450  : 			list<CEventItem*>* pList	= new list<CEventItem*>;

  0024b	6a 08		 push	 8
  0024d	e8 00 00 00 00	 call	 ??2@YAPAXI@Z		; operator new
  00252	8b f8		 mov	 edi, eax
  00254	83 c4 04	 add	 esp, 4
  00257	89 7d d8	 mov	 DWORD PTR $T8[ebp], edi
  0025a	c7 45 fc 01 00
	00 00		 mov	 DWORD PTR __$EHRec$[ebp+8], 1
  00261	85 ff		 test	 edi, edi
  00263	74 20		 je	 SHORT $LN26@Serialize
; File C:\Program Files\Microsoft Visual Studio\2022\Professional\VC\Tools\MSVC\14.44.35207\include\xmemory

; 136  :         return ::operator new(_Bytes);

  00265	6a 0c		 push	 12			; 0000000cH
; File C:\Program Files\Microsoft Visual Studio\2022\Professional\VC\Tools\MSVC\14.44.35207\include\list

; 353  :     _List_val() noexcept : _Myhead(), _Mysize(0) {} // initialize data

  00267	c7 07 00 00 00
	00		 mov	 DWORD PTR [edi], 0
  0026d	c7 47 04 00 00
	00 00		 mov	 DWORD PTR [edi+4], 0
; File C:\Program Files\Microsoft Visual Studio\2022\Professional\VC\Tools\MSVC\14.44.35207\include\xmemory

; 136  :         return ::operator new(_Bytes);

  00274	e8 00 00 00 00	 call	 ??2@YAPAXI@Z		; operator new
  00279	83 c4 04	 add	 esp, 4
; File C:\Program Files\Microsoft Visual Studio\2022\Professional\VC\Tools\MSVC\14.44.35207\include\list

; 1852 :         _Construct_in_place(_Newhead->_Next, _Newhead);

  0027c	89 00		 mov	 DWORD PTR [eax], eax

; 1853 :         _Construct_in_place(_Newhead->_Prev, _Newhead);

  0027e	89 40 04	 mov	 DWORD PTR [eax+4], eax

; 1854 :         _Mypair._Myval2._Myhead = _Newhead;

  00281	89 07		 mov	 DWORD PTR [edi], eax
; File C:\IAGOS\server\v18\Source\Source\_Common\spevent.cpp

; 450  : 			list<CEventItem*>* pList	= new list<CEventItem*>;

  00283	eb 02		 jmp	 SHORT $LN27@Serialize
$LN26@Serialize:
  00285	33 ff		 xor	 edi, edi
$LN27@Serialize:
; File C:\Program Files\Microsoft Visual Studio\2022\Professional\VC\Tools\MSVC\14.44.35207\include\utility

; 274  :         : first(_STD forward<_Other1>(_Val1)), second(_STD forward<_Other2>(_Val2)) {

  00287	8b 75 ec	 mov	 esi, DWORD PTR _nEvent$14[ebp]
; File C:\Program Files\Microsoft Visual Studio\2022\Professional\VC\Tools\MSVC\14.44.35207\include\xtree

; 1017 :             _Loc                = _Find_lower_bound(_Keyval);

  0028a	8d 45 cc	 lea	 eax, DWORD PTR $T6[ebp]
  0028d	8b 4d 08	 mov	 ecx, DWORD PTR _this$1$[ebp]
  00290	50		 push	 eax
  00291	8d 45 a4	 lea	 eax, DWORD PTR $T2[ebp]
; File C:\IAGOS\server\v18\Source\Source\_Common\spevent.cpp

; 450  : 			list<CEventItem*>* pList	= new list<CEventItem*>;

  00294	c7 45 fc ff ff
	ff ff		 mov	 DWORD PTR __$EHRec$[ebp+8], -1
; File C:\Program Files\Microsoft Visual Studio\2022\Professional\VC\Tools\MSVC\14.44.35207\include\xtree

; 1017 :             _Loc                = _Find_lower_bound(_Keyval);

  0029b	50		 push	 eax
; File C:\Program Files\Microsoft Visual Studio\2022\Professional\VC\Tools\MSVC\14.44.35207\include\utility

; 274  :         : first(_STD forward<_Other1>(_Val1)), second(_STD forward<_Other2>(_Val2)) {

  0029c	89 75 cc	 mov	 DWORD PTR $T6[ebp], esi
  0029f	89 7d d0	 mov	 DWORD PTR $T6[ebp+4], edi
; File C:\Program Files\Microsoft Visual Studio\2022\Professional\VC\Tools\MSVC\14.44.35207\include\xtree

; 1017 :             _Loc                = _Find_lower_bound(_Keyval);

  002a2	e8 00 00 00 00	 call	 ??$_Find_lower_bound@H@?$_Tree@V?$_Tmap_traits@HPAV?$list@PAVCEventItem@@V?$allocator@PAVCEventItem@@@std@@@std@@U?$less@H@2@V?$allocator@U?$pair@$$CBHPAV?$list@PAVCEventItem@@V?$allocator@PAVCEventItem@@@std@@@std@@@std@@@2@$0A@@std@@@std@@IBE?AU?$_Tree_find_result@PAU?$_Tree_node@U?$pair@$$CBHPAV?$list@PAVCEventItem@@V?$allocator@PAVCEventItem@@@std@@@std@@@std@@PAX@std@@@1@ABH@Z ; std::_Tree<std::_Tmap_traits<int,std::list<CEventItem *,std::allocator<CEventItem *> > *,std::less<int>,std::allocator<std::pair<int const ,std::list<CEventItem *,std::allocator<CEventItem *> > *> >,0> >::_Find_lower_bound<int>
  002a7	f3 0f 7e 00	 movq	 xmm0, QWORD PTR [eax]
  002ab	8b 40 08	 mov	 eax, DWORD PTR [eax+8]
  002ae	66 0f d6 45 b0	 movq	 QWORD PTR __Loc$3[ebp], xmm0

; 1624 :         return !_Bound->_Isnil && !_DEBUG_LT_PRED(_Getcomp(), _Keyval, _Traits::_Kfn(_Bound->_Myval));

  002b3	80 78 0d 00	 cmp	 BYTE PTR [eax+13], 0
  002b7	75 05		 jne	 SHORT $LN193@Serialize
; File C:\Program Files\Microsoft Visual Studio\2022\Professional\VC\Tools\MSVC\14.44.35207\include\type_traits

; 2380 :         return _Left < _Right;

  002b9	3b 70 10	 cmp	 esi, DWORD PTR [eax+16]
; File C:\Program Files\Microsoft Visual Studio\2022\Professional\VC\Tools\MSVC\14.44.35207\include\xtree

; 1624 :         return !_Bound->_Isnil && !_DEBUG_LT_PRED(_Getcomp(), _Keyval, _Traits::_Kfn(_Bound->_Myval));

  002bc	7d 61		 jge	 SHORT $LN273@Serialize
$LN193@Serialize:

; 1648 :         if (max_size() == _Get_scary()->_Mysize) {

  002be	8b 45 08	 mov	 eax, DWORD PTR _this$1$[ebp]
  002c1	81 78 04 aa aa
	aa 0a		 cmp	 DWORD PTR [eax+4], 178956970 ; 0aaaaaaaH
  002c8	0f 84 0c 01 00
	00		 je	 $LN439@Serialize

; 1023 :             _Inserted = _Tree_temp_node<_Alnode>(_Getal(), _Scary->_Myhead, _STD forward<_Valtys>(_Vals)...)._Release();

  002ce	8b 30		 mov	 esi, DWORD PTR [eax]
; File C:\Program Files\Microsoft Visual Studio\2022\Professional\VC\Tools\MSVC\14.44.35207\include\xmemory

; 1160 :     _CONSTEXPR20 explicit _Alloc_construct_ptr(_Alloc& _Al_) : _Al(_Al_), _Ptr(nullptr) {}

  002d0	89 45 c4	 mov	 DWORD PTR $T5[ebp], eax

; 136  :         return ::operator new(_Bytes);

  002d3	6a 18		 push	 24			; 00000018H
; File C:\Program Files\Microsoft Visual Studio\2022\Professional\VC\Tools\MSVC\14.44.35207\include\xtree

; 808  :     explicit _Tree_temp_node_alloc(_Alnode& _Al_) : _Alloc_construct_ptr<_Alnode>(_Al_) {

  002d5	c7 45 fc 02 00
	00 00		 mov	 DWORD PTR __$EHRec$[ebp+8], 2
; File C:\Program Files\Microsoft Visual Studio\2022\Professional\VC\Tools\MSVC\14.44.35207\include\xmemory

; 1167 :         _Ptr = nullptr; // if allocate throws, prevents double-free

  002dc	c7 45 c8 00 00
	00 00		 mov	 DWORD PTR $T5[ebp+4], 0

; 136  :         return ::operator new(_Bytes);

  002e3	e8 00 00 00 00	 call	 ??2@YAPAXI@Z		; operator new
; File C:\Program Files\Microsoft Visual Studio\2022\Professional\VC\Tools\MSVC\14.44.35207\include\xtree

; 830  :         _Alnode_traits::construct(this->_Al, _STD addressof(this->_Ptr->_Myval), _STD forward<_Valtys>(_Vals)...);

  002e8	8b 4d ec	 mov	 ecx, DWORD PTR _nEvent$14[ebp]
; File C:\Program Files\Microsoft Visual Studio\2022\Professional\VC\Tools\MSVC\14.44.35207\include\xmemory

; 136  :         return ::operator new(_Bytes);

  002eb	83 c4 04	 add	 esp, 4
; File C:\Program Files\Microsoft Visual Studio\2022\Professional\VC\Tools\MSVC\14.44.35207\include\xtree

; 810  :     }

  002ee	c7 45 fc ff ff
	ff ff		 mov	 DWORD PTR __$EHRec$[ebp+8], -1
; File C:\Program Files\Microsoft Visual Studio\2022\Professional\VC\Tools\MSVC\14.44.35207\include\utility

; 774  :     _Val         = static_cast<_Other&&>(_New_val);

  002f5	c7 45 c8 00 00
	00 00		 mov	 DWORD PTR $T5[ebp+4], 0
; File C:\Program Files\Microsoft Visual Studio\2022\Professional\VC\Tools\MSVC\14.44.35207\include\xtree

; 830  :         _Alnode_traits::construct(this->_Al, _STD addressof(this->_Ptr->_Myval), _STD forward<_Valtys>(_Vals)...);

  002fc	89 48 10	 mov	 DWORD PTR [eax+16], ecx

; 1042 :         return {_Scary->_Insert_node(_Loc._Location, _Inserted), true};

  002ff	8b 4d 08	 mov	 ecx, DWORD PTR _this$1$[ebp]
  00302	50		 push	 eax
  00303	ff 75 b4	 push	 DWORD PTR __Loc$3[ebp+4]

; 830  :         _Alnode_traits::construct(this->_Al, _STD addressof(this->_Ptr->_Myval), _STD forward<_Valtys>(_Vals)...);

  00306	89 78 14	 mov	 DWORD PTR [eax+20], edi

; 1042 :         return {_Scary->_Insert_node(_Loc._Location, _Inserted), true};

  00309	ff 75 b0	 push	 DWORD PTR __Loc$3[ebp]

; 831  :         _Construct_in_place(this->_Ptr->_Left, _Myhead);

  0030c	89 30		 mov	 DWORD PTR [eax], esi

; 832  :         _Construct_in_place(this->_Ptr->_Parent, _Myhead);

  0030e	89 70 04	 mov	 DWORD PTR [eax+4], esi

; 833  :         _Construct_in_place(this->_Ptr->_Right, _Myhead);

  00311	89 70 08	 mov	 DWORD PTR [eax+8], esi

; 834  :         this->_Ptr->_Color = _Red;

  00314	66 c7 40 0c 00
	00		 mov	 WORD PTR [eax+12], 0

; 1042 :         return {_Scary->_Insert_node(_Loc._Location, _Inserted), true};

  0031a	e8 00 00 00 00	 call	 ?_Insert_node@?$_Tree_val@U?$_Tree_simple_types@U?$pair@$$CBHPAV?$list@PAVCEventItem@@V?$allocator@PAVCEventItem@@@std@@@std@@@std@@@std@@@std@@QAEPAU?$_Tree_node@U?$pair@$$CBHPAV?$list@PAVCEventItem@@V?$allocator@PAVCEventItem@@@std@@@std@@@std@@PAX@2@U?$_Tree_id@PAU?$_Tree_node@U?$pair@$$CBHPAV?$list@PAVCEventItem@@V?$allocator@PAVCEventItem@@@std@@@std@@@std@@PAX@std@@@2@QAU32@@Z ; std::_Tree_val<std::_Tree_simple_types<std::pair<int const ,std::list<CEventItem *,std::allocator<CEventItem *> > *> > >::_Insert_node
$LN273@Serialize:
; File C:\IAGOS\server\v18\Source\Source\_Common\spevent.cpp

; 457  : 			ar >> nEventItemSize;

  0031f	8d 45 e8	 lea	 eax, DWORD PTR _nEventItemSize$13[ebp]
  00322	8b cb		 mov	 ecx, ebx
  00324	50		 push	 eax
  00325	e8 00 00 00 00	 call	 ??$?5H@CAr@@QAEAAV0@AAH@Z ; CAr::operator>><int>

; 458  : 			for( int j = 0; j < nEventItemSize; j++ )

  0032a	83 7d e8 00	 cmp	 DWORD PTR _nEventItemSize$13[ebp], 0
  0032e	c7 45 f0 00 00
	00 00		 mov	 DWORD PTR _j$1$[ebp], 0
  00335	7e 7f		 jle	 SHORT $LN14@Serialize
$LL19@Serialize:

; 459  : 			{
; 460  : 				CEventItem* pEventItem	= new CEventItem;

  00337	6a 78		 push	 120			; 00000078H
  00339	e8 00 00 00 00	 call	 ??2@YAPAXI@Z		; operator new
  0033e	83 c4 04	 add	 esp, 4
  00341	89 45 dc	 mov	 DWORD PTR $T10[ebp], eax
  00344	85 c0		 test	 eax, eax
  00346	74 0b		 je	 SHORT $LN28@Serialize
  00348	8b c8		 mov	 ecx, eax
  0034a	e8 00 00 00 00	 call	 ??0CEventItem@@QAE@XZ	; CEventItem::CEventItem
  0034f	8b f0		 mov	 esi, eax
  00351	eb 02		 jmp	 SHORT $LN29@Serialize
$LN28@Serialize:
  00353	33 f6		 xor	 esi, esi
$LN29@Serialize:

; 461  : 				pEventItem->Serialize( ar );

  00355	53		 push	 ebx
  00356	8b ce		 mov	 ecx, esi
  00358	e8 00 00 00 00	 call	 ?Serialize@CEventItem@@QAEXAAVCAr@@@Z ; CEventItem::Serialize
; File C:\Program Files\Microsoft Visual Studio\2022\Professional\VC\Tools\MSVC\14.44.35207\include\list

; 1030 :         if (_Mysize == max_size()) {

  0035d	81 7f 04 55 55
	55 15		 cmp	 DWORD PTR [edi+4], 357913941 ; 15555555H

; 1274 :         _Emplace(_Mypair._Myval2._Myhead, _Val);

  00364	8b 07		 mov	 eax, DWORD PTR [edi]
  00366	89 45 dc	 mov	 DWORD PTR __Where$1$[ebp], eax

; 1030 :         if (_Mysize == max_size()) {

  00369	74 74		 je	 SHORT $LN437@Serialize
; File C:\Program Files\Microsoft Visual Studio\2022\Professional\VC\Tools\MSVC\14.44.35207\include\xmemory

; 1160 :     _CONSTEXPR20 explicit _Alloc_construct_ptr(_Alloc& _Al_) : _Al(_Al_), _Ptr(nullptr) {}

  0036b	89 7d bc	 mov	 DWORD PTR __Op$4[ebp], edi

; 136  :         return ::operator new(_Bytes);

