; Listing generated by Microsoft (R) Optimizing Compiler Version 19.44.35225.0 

	TITLE	C:\IAGOS\server\v18\Source\Output\WorldServer\Release\StdAfx.obj
	.686P
	.XMM
	include listing.inc
	.model	flat

INCLUDELIB LIBCMT
INCLUDELIB OLDNAMES

PUBLIC	___@@_PchSym_@00@UrztlhUhvieviUeBIUhlfixvUlfgkfgUdliowhvieviUivovzhvUhgwzucOlyq@4B2008FD98C1DD4
PUBLIC	_IID_IAxWinHostWindowLic
PUBLIC	?__vsnwprintf@@3P6AHPA_WIPB_WPAD@ZA		; __vsnwprintf
PUBLIC	??_R4CAtlStringMgr@ATL@@6B@			; ATL::CAtlStringMgr::`RTTI Complete Object Locator'
PUBLIC	??_R0?AVCAtlStringMgr@ATL@@@8			; ATL::CAtlStringMgr `RTTI Type Descriptor'
PUBLIC	??_R3CAtlStringMgr@ATL@@8			; ATL::CAtlStringMgr::`RTTI Class Hierarchy Descriptor'
PUBLIC	??_R2CAtlStringMgr@ATL@@8			; ATL::CAtlStringMgr::`RTTI Base Class Array'
PUBLIC	??_R1A@?0A@EA@CAtlStringMgr@ATL@@8		; ATL::CAtlStringMgr::`RTTI Base Class Descriptor at (0,-1,0,64)'
PUBLIC	?__vsnprintf@@3P6AHPADIPBD0@ZA			; __vsnprintf
PUBLIC	_IID_IAxWinAmbientDispatch
PUBLIC	?_OptionsStorage@?1??__local_stdio_printf_options@@9@4_KA ; `__local_stdio_printf_options'::`2'::_OptionsStorage
PUBLIC	_IID_IAxWinAmbientDispatchEx
PUBLIC	_IID_IInternalConnection
PUBLIC	?g_szDBAddr@@3PADA				; g_szDBAddr
PUBLIC	?g_fX3@@3HA					; g_fX3
PUBLIC	?g_sHeartbeat@@3PADA				; g_sHeartbeat
PUBLIC	__vsnwprintf
PUBLIC	?g_tCurrent@@3JA				; g_tCurrent
PUBLIC	?Allocate@CAtlStringMgr@ATL@@UAEPAUCStringData@2@HH@Z ; ATL::CAtlStringMgr::Allocate
PUBLIC	?Free@CAtlStringMgr@ATL@@UAEXPAUCStringData@2@@Z ; ATL::CAtlStringMgr::Free
PUBLIC	?Reallocate@CAtlStringMgr@ATL@@UAEPAUCStringData@2@PAU32@HH@Z ; ATL::CAtlStringMgr::Reallocate
PUBLIC	?GetNilString@CAtlStringMgr@ATL@@UAEPAUCStringData@2@XZ ; ATL::CAtlStringMgr::GetNilString
PUBLIC	?Clone@CAtlStringMgr@ATL@@UAEPAUIAtlStringMgr@2@XZ ; ATL::CAtlStringMgr::Clone
PUBLIC	??_7CAtlStringMgr@ATL@@6B@			; ATL::CAtlStringMgr::`vftable'
PUBLIC	??_GCAtlStringMgr@ATL@@UAEPAXI@Z		; ATL::CAtlStringMgr::`scalar deleting destructor'
PUBLIC	?strHeap@?1??GetInstance@CAtlStringMgr@ATL@@SAPAUIAtlStringMgr@3@XZ@4VCWin32Heap@3@A ; `ATL::CAtlStringMgr::GetInstance'::`2'::strHeap
PUBLIC	?$TSS0@?1??GetInstance@CAtlStringMgr@ATL@@SAPAUIAtlStringMgr@3@XZ@4HA ; `ATL::CAtlStringMgr::GetInstance'::`2'::$TSS0
PUBLIC	?strMgr@?1??GetInstance@CAtlStringMgr@ATL@@SAPAUIAtlStringMgr@3@XZ@4V23@A ; `ATL::CAtlStringMgr::GetInstance'::`2'::strMgr
PUBLIC	?$TSS1@?1??GetInstance@CAtlStringMgr@ATL@@SAPAUIAtlStringMgr@3@XZ@4HA ; `ATL::CAtlStringMgr::GetInstance'::`2'::$TSS1
PUBLIC	?szInvalidDateTime@ATL@@3QBDB			; ATL::szInvalidDateTime
PUBLIC	??_C@_0BB@KEKMKJPM@Invalid?5DateTime@		; `string'
PUBLIC	?szInvalidDateTimeSpan@ATL@@3QBDB		; ATL::szInvalidDateTimeSpan
PUBLIC	??_C@_0BF@GPPHKJFN@Invalid?5DateTimeSpan@	; `string'
PUBLIC	__vsnprintf
PUBLIC	?g_tmCurrent@@3KA				; g_tmCurrent
PUBLIC	?m_bInitFailed@CAtlBaseModule@ATL@@2_NA		; ATL::CAtlBaseModule::m_bInitFailed
PUBLIC	?g_nProcessCnt@@3HA				; g_nProcessCnt
PUBLIC	?Allocate@CWin32Heap@ATL@@UAEPAXI@Z		; ATL::CWin32Heap::Allocate
PUBLIC	?Free@CWin32Heap@ATL@@UAEXPAX@Z			; ATL::CWin32Heap::Free
PUBLIC	?Reallocate@CWin32Heap@ATL@@UAEPAXPAXI@Z	; ATL::CWin32Heap::Reallocate
PUBLIC	?GetSize@CWin32Heap@ATL@@UAEIPAX@Z		; ATL::CWin32Heap::GetSize
PUBLIC	??_7CWin32Heap@ATL@@6B@				; ATL::CWin32Heap::`vftable'
PUBLIC	??_GCWin32Heap@ATL@@UAEPAXI@Z			; ATL::CWin32Heap::`scalar deleting destructor'
PUBLIC	?_AfxInitManaged@@YAHXZ				; _AfxInitManaged
PUBLIC	?CLSID_WinFormsControl@@3U_GUID@@B		; CLSID_WinFormsControl
PUBLIC	_LIBID_ATLLib
PUBLIC	___pobjMapEntryFirst
PUBLIC	___pobjMapEntryLast
PUBLIC	?_pPerfRegFunc@ATL@@3P6AJPAUHINSTANCE__@@@ZA	; ATL::_pPerfRegFunc
PUBLIC	?_pPerfUnRegFunc@ATL@@3P6AJXZA			; ATL::_pPerfUnRegFunc
PUBLIC	?_AtlRegisterPerUser@ATL@@3_NA			; ATL::_AtlRegisterPerUser
PUBLIC	?_pAtlModule@ATL@@3PAVCAtlModule@1@A		; ATL::_pAtlModule
PUBLIC	??_C@_0BA@MKMIKKJB@atlTraceGeneral@		; `string'
PUBLIC	_c_DwmMaxQueuedBuffers
PUBLIC	_c_DwmMaxMonitors
PUBLIC	_c_DwmMaxAdapters
PUBLIC	??_C@_0M@DGPFJEBB@atlTraceCOM@			; `string'
PUBLIC	??_C@_0L@LHELAKBP@atlTraceQI@			; `string'
PUBLIC	??_C@_0BC@MALHFBAO@atlTraceRegistrar@		; `string'
PUBLIC	??_C@_0BB@ILPPDKFL@atlTraceRefcount@		; `string'
PUBLIC	?_pModule@ATL@@3PAVCComModule@1@A		; ATL::_pModule
PUBLIC	??_C@_0BC@DGHHNKDC@atlTraceWindowing@		; `string'
PUBLIC	??_C@_0BB@GHKJKKIE@atlTraceControls@		; `string'
PUBLIC	??_C@_0BA@DKOAAGGM@atlTraceHosting@		; `string'
PUBLIC	??_C@_0BB@BEBMGMDO@atlTraceDBClient@		; `string'
PUBLIC	??_C@_0BD@KOADKDIA@atlTraceDBProvider@		; `string'
PUBLIC	??_C@_0P@LNEGBOLO@atlTraceSnapin@		; `string'
PUBLIC	??_C@_0BA@MCBFIDIC@atlTraceNotImpl@		; `string'
PUBLIC	_CLSID_CUrlHistory
PUBLIC	_CLSID_CUrlHistoryBoth
PUBLIC	??_C@_0BD@PJPCCAKP@atlTraceAllocation@		; `string'
PUBLIC	??_C@_0BC@PGMFNIFA@atlTraceException@		; `string'
PUBLIC	__Avx2WmemEnabledWeakValue
PUBLIC	?_pAtlAutoThreadModule@ATL@@3PAUIAtlAutoThreadModule@1@A ; ATL::_pAtlAutoThreadModule
PUBLIC	??_C@_0N@BNNILHBE@atlTraceTime@			; `string'
PUBLIC	??_C@_0O@MEOJAOKK@atlTraceCache@		; `string'
PUBLIC	??_C@_0BA@IDBKCKK@atlTraceStencil@		; `string'
PUBLIC	??_C@_0P@MBNHGHMI@atlTraceString@		; `string'
PUBLIC	??_C@_0M@IOBBMAHG@atlTraceMap@			; `string'
PUBLIC	??_C@_0N@FEAAACHD@atlTraceUtil@			; `string'
PUBLIC	??_C@_0BB@DNJDADMG@atlTraceSecurity@		; `string'
PUBLIC	??_C@_0N@KLPNCFEE@atlTraceSync@			; `string'
PUBLIC	??_C@_0O@KHOBHOBJ@atlTraceISAPI@		; `string'
PUBLIC	_IID_IAMFilterGraphCallback
PUBLIC	__pAtlLcidToLocaleNameTable
PUBLIC	??_C@_15EMKDOKLE@?$AAa?$AAr@			; `string'
PUBLIC	??_C@_15KNPADPLH@?$AAb?$AAg@			; `string'
PUBLIC	??_C@_15EDMHLDMO@?$AAc?$AAa@			; `string'
PUBLIC	??_C@_1O@BPEAJADD@?$AAz?$AAh?$AA?9?$AAC?$AAH?$AAS@ ; `string'
PUBLIC	??_C@_15LJNHCMNK@?$AAc?$AAs@			; `string'
PUBLIC	??_C@_15FOMCIDHG@?$AAd?$AAa@			; `string'
PUBLIC	??_C@_15NBKABECB@?$AAd?$AAe@			; `string'
PUBLIC	??_C@_15GHPEIIAO@?$AAe?$AAl@			; `string'
PUBLIC	??_C@_15MNPNEAIF@?$AAe?$AAn@			; `string'
PUBLIC	??_C@_15GPIOMPMH@?$AAe?$AAs@			; `string'
PUBLIC	??_C@_15NGLOAKJC@?$AAf?$AAi@			; `string'
PUBLIC	??_C@_15FBKGNKAM@?$AAf?$AAr@			; `string'
PUBLIC	??_C@_15KGGCNEFK@?$AAh?$AAe@			; `string'
PUBLIC	??_C@_15PGHLIDMF@?$AAh?$AAu@			; `string'
PUBLIC	??_C@_15BIEMAPLM@?$AAi?$AAs@			; `string'
PUBLIC	??_C@_15IFJLDHAF@?$AAi?$AAt@			; `string'
PUBLIC	??_C@_15GEMIOCAG@?$AAj?$AAa@			; `string'
PUBLIC	??_C@_15EPELEGJA@?$AAk?$AAo@			; `string'
PUBLIC	??_C@_15NDDHIMN@?$AAn?$AAl@			; `string'
PUBLIC	??_C@_15BPIGNHCD@?$AAn?$AAo@			; `string'
PUBLIC	??_C@_15DEOPBLCG@?$AAp?$AAl@			; `string'
PUBLIC	??_C@_15KBECGEFG@?$AAp?$AAt@			; `string'
PUBLIC	??_C@_15GLJCBFMD@?$AAr?$AAo@			; `string'
PUBLIC	??_C@_15FEDGKCDI@?$AAr?$AAu@			; `string'
PUBLIC	??_C@_15GLKMLLHM@?$AAh?$AAr@			; `string'
PUBLIC	??_C@_15CPKMFBDB@?$AAs?$AAk@			; `string'
PUBLIC	??_C@_15BAAIOGMK@?$AAs?$AAq@			; `string'
PUBLIC	??_C@_15INNPNOHD@?$AAs?$AAv@			; `string'
PUBLIC	??_C@_15CABMMOGH@?$AAt?$AAh@			; `string'
PUBLIC	??_C@_15BPLIHJJM@?$AAt?$AAr@			; `string'
PUBLIC	??_C@_15NEOEKKDJ@?$AAu?$AAr@			; `string'
PUBLIC	??_C@_15NFICGAJK@?$AAi?$AAd@			; `string'
PUBLIC	??_C@_15PJPFLCCM@?$AAu?$AAk@			; `string'
PUBLIC	??_C@_15HPJPHDM@?$AAb?$AAe@			; `string'
PUBLIC	??_C@_15LCHLGJII@?$AAs?$AAl@			; `string'
PUBLIC	??_C@_15PCFJPHHO@?$AAe?$AAt@			; `string'
PUBLIC	??_C@_15HPFPGODN@?$AAl?$AAv@			; `string'
PUBLIC	??_C@_15NFFGKGLG@?$AAl?$AAt@			; `string'
PUBLIC	??_C@_15BDAKCCHN@?$AAf?$AAa@			; `string'
PUBLIC	??_C@_15NFGIAIAJ@?$AAv?$AAi@			; `string'
PUBLIC	??_C@_15LMKNDMHN@?$AAh?$AAy@			; `string'
PUBLIC	??_C@_15IJBHMCFL@?$AAa?$AAz@			; `string'
PUBLIC	??_C@_15EKOFJABL@?$AAe?$AAu@			; `string'
PUBLIC	??_C@_15BGHADCNK@?$AAm?$AAk@			; `string'
PUBLIC	??_C@_15JDNICKHM@?$AAa?$AAf@			; `string'
PUBLIC	??_C@_15KPJEDBKD@?$AAk?$AAa@			; `string'
PUBLIC	??_C@_15PDNFFFEO@?$AAf?$AAo@			; `string'
PUBLIC	??_C@_15OMLEGLOC@?$AAh?$AAi@			; `string'
PUBLIC	??_C@_15IDNNENKK@?$AAm?$AAs@			; `string'
PUBLIC	??_C@_15MACJNBMH@?$AAk?$AAk@			; `string'
PUBLIC	??_C@_15DKDJEOND@?$AAk?$AAy@			; `string'
PUBLIC	??_C@_15DFGDLJBG@?$AAs?$AAw@			; `string'
PUBLIC	??_C@_15BBFAICNG@?$AAu?$AAz@			; `string'
PUBLIC	??_C@_15DKNDCGEA@?$AAt?$AAt@			; `string'
PUBLIC	??_C@_15MGIFMDPL@?$AAp?$AAa@			; `string'
PUBLIC	??_C@_15HCNDBBA@?$AAg?$AAu@			; `string'
PUBLIC	??_C@_15FNBEIBON@?$AAt?$AAa@			; `string'
PUBLIC	??_C@_15NCHGBGLK@?$AAt?$AAe@			; `string'
PUBLIC	??_C@_15PHPHCBPF@?$AAk?$AAn@			; `string'
PUBLIC	??_C@_15DLGBCKMP@?$AAm?$AAr@			; `string'
PUBLIC	??_C@_15EABBLBFF@?$AAs?$AAa@			; `string'
PUBLIC	??_C@_15CBKOMCOI@?$AAm?$AAn@			; `string'
PUBLIC	??_C@_15CKDMCJAF@?$AAg?$AAl@			; `string'
PUBLIC	??_C@_17CNJFBPG@?$AAk?$AAo?$AAk@		; `string'
PUBLIC	??_C@_17FFBJICPL@?$AAs?$AAy?$AAr@		; `string'
PUBLIC	??_C@_17KPNDCPAF@?$AAd?$AAi?$AAv@		; `string'
PUBLIC	??_C@_11LOCGONAA@@				; `string'
PUBLIC	??_C@_1M@OKAHONE@?$AAa?$AAr?$AA?9?$AAS?$AAA@	; `string'
PUBLIC	??_C@_1M@FFFIGIGK@?$AAb?$AAg?$AA?9?$AAB?$AAG@	; `string'
PUBLIC	??_C@_1M@BJNKEDC@?$AAc?$AAa?$AA?9?$AAE?$AAS@	; `string'
PUBLIC	??_C@_1M@CLNBBOPM@?$AAz?$AAh?$AA?9?$AAT?$AAW@	; `string'
PUBLIC	??_C@_1M@IJJHFJHA@?$AAc?$AAs?$AA?9?$AAC?$AAZ@	; `string'
PUBLIC	??_C@_1M@CLPEOBGI@?$AAd?$AAa?$AA?9?$AAD?$AAK@	; `string'
PUBLIC	??_C@_1M@MCMADGCB@?$AAd?$AAe?$AA?9?$AAD?$AAE@	; `string'
PUBLIC	??_C@_1M@OOCKEMAM@?$AAe?$AAl?$AA?9?$AAG?$AAR@	; `string'
PUBLIC	??_C@_1M@BMHNFIME@?$AAe?$AAn?$AA?9?$AAU?$AAS@	; `string'
PUBLIC	??_C@_1M@DDNJFGID@?$AAf?$AAi?$AA?9?$AAF?$AAI@	; `string'
PUBLIC	??_C@_1M@GLIPPMAC@?$AAf?$AAr?$AA?9?$AAF?$AAR@	; `string'
PUBLIC	??_C@_1M@GFMCHPE@?$AAh?$AAe?$AA?9?$AAI?$AAL@	; `string'
PUBLIC	??_C@_1M@MHLPGNKM@?$AAh?$AAu?$AA?9?$AAH?$AAU@	; `string'
PUBLIC	??_C@_1M@LPDDNNPN@?$AAi?$AAs?$AA?9?$AAI?$AAS@	; `string'
PUBLIC	??_C@_1M@MADIPODN@?$AAi?$AAt?$AA?9?$AAI?$AAT@	; `string'
PUBLIC	??_C@_1M@HPNHIDJI@?$AAj?$AAa?$AA?9?$AAJ?$AAP@	; `string'
PUBLIC	??_C@_1M@JLOOOEGK@?$AAk?$AAo?$AA?9?$AAK?$AAR@	; `string'
PUBLIC	??_C@_1M@IHBJJGG@?$AAn?$AAl?$AA?9?$AAN?$AAL@	; `string'
PUBLIC	??_C@_1M@EANAGDL@?$AAn?$AAb?$AA?9?$AAN?$AAO@	; `string'
PUBLIC	??_C@_1M@NEIEMEGP@?$AAp?$AAl?$AA?9?$AAP?$AAL@	; `string'
PUBLIC	??_C@_1M@BOCFIGEP@?$AAp?$AAt?$AA?9?$AAB?$AAR@	; `string'
PUBLIC	??_C@_1M@IMPFOPBG@?$AAr?$AAo?$AA?9?$AAR?$AAO@	; `string'
PUBLIC	??_C@_1M@IDNNEJMM@?$AAr?$AAu?$AA?9?$AAR?$AAU@	; `string'
PUBLIC	??_C@_1M@LILEEOGM@?$AAh?$AAr?$AA?9?$AAH?$AAR@	; `string'
PUBLIC	??_C@_1M@FKIFEHPB@?$AAs?$AAk?$AA?9?$AAS?$AAK@	; `string'
PUBLIC	??_C@_1M@LJMAMNPJ@?$AAs?$AAq?$AA?9?$AAA?$AAL@	; `string'
PUBLIC	??_C@_1M@GIAKDKJK@?$AAs?$AAv?$AA?9?$AAS?$AAE@	; `string'
PUBLIC	??_C@_1M@MKJKIKCL@?$AAt?$AAh?$AA?9?$AAT?$AAH@	; `string'
PUBLIC	??_C@_1M@MFLCCMPB@?$AAt?$AAr?$AA?9?$AAT?$AAR@	; `string'
PUBLIC	??_C@_1M@OIJHDKJN@?$AAu?$AAr?$AA?9?$AAP?$AAK@	; `string'
PUBLIC	??_C@_1M@LHIPCIEK@?$AAi?$AAd?$AA?9?$AAI?$AAD@	; `string'
PUBLIC	??_C@_1M@MFMOBGI@?$AAu?$AAk?$AA?9?$AAU?$AAA@	; `string'
PUBLIC	??_C@_1M@OBGLJIPL@?$AAb?$AAe?$AA?9?$AAB?$AAY@	; `string'
PUBLIC	??_C@_1M@BCFAJEAD@?$AAs?$AAl?$AA?9?$AAS?$AAI@	; `string'
PUBLIC	??_C@_1M@FKFFEDDN@?$AAe?$AAt?$AA?9?$AAE?$AAE@	; `string'
PUBLIC	??_C@_1M@KGKKAACI@?$AAl?$AAv?$AA?9?$AAL?$AAV@	; `string'
PUBLIC	??_C@_1M@IFGBIJO@?$AAl?$AAt?$AA?9?$AAL?$AAT@	; `string'
PUBLIC	??_C@_1M@FGEAHEDM@?$AAf?$AAa?$AA?9?$AAI?$AAR@	; `string'
PUBLIC	??_C@_1M@KBMAIBFN@?$AAv?$AAi?$AA?9?$AAV?$AAN@	; `string'
PUBLIC	??_C@_1M@GPCBKDJK@?$AAh?$AAy?$AA?9?$AAA?$AAM@	; `string'
PUBLIC	??_C@_1BG@BECMDDJB@?$AAa?$AAz?$AA?9?$AAA?$AAZ?$AA?9?$AAL?$AAa?$AAt?$AAn@ ; `string'
PUBLIC	??_C@_1M@MAOFCAEA@?$AAe?$AAu?$AA?9?$AAE?$AAS@	; `string'
PUBLIC	??_C@_1M@IGHABKPI@?$AAm?$AAk?$AA?9?$AAM?$AAK@	; `string'
PUBLIC	??_C@_1M@IAIGNEJG@?$AAt?$AAn?$AA?9?$AAZ?$AAA@	; `string'
PUBLIC	??_C@_1M@IIJCOJFA@?$AAx?$AAh?$AA?9?$AAZ?$AAA@	; `string'
PUBLIC	??_C@_1M@LGPJHNJH@?$AAz?$AAu?$AA?9?$AAZ?$AAA@	; `string'
PUBLIC	??_C@_1M@HOKAOIO@?$AAa?$AAf?$AA?9?$AAZ?$AAA@	; `string'
PUBLIC	??_C@_1M@DPCLHLIE@?$AAk?$AAa?$AA?9?$AAG?$AAE@	; `string'
PUBLIC	??_C@_1M@BLKMHJBI@?$AAf?$AAo?$AA?9?$AAF?$AAO@	; `string'
PUBLIC	??_C@_1M@LGGJAPPB@?$AAh?$AAi?$AA?9?$AAI?$AAN@	; `string'
PUBLIC	??_C@_1M@FIKPIHFE@?$AAm?$AAt?$AA?9?$AAM?$AAT@	; `string'
PUBLIC	??_C@_1M@HEGGPBFA@?$AAs?$AAe?$AA?9?$AAN?$AAO@	; `string'
PUBLIC	??_C@_1M@EIBJEEPA@?$AAm?$AAs?$AA?9?$AAM?$AAY@	; `string'
PUBLIC	??_C@_1M@FHLBGMPP@?$AAk?$AAk?$AA?9?$AAK?$AAZ@	; `string'
PUBLIC	??_C@_1M@NGJJLCGI@?$AAk?$AAy?$AA?9?$AAK?$AAG@	; `string'
PUBLIC	??_C@_1M@GIENNBFC@?$AAs?$AAw?$AA?9?$AAK?$AAE@	; `string'
PUBLIC	??_C@_1BG@NDGMJIMJ@?$AAu?$AAz?$AA?9?$AAU?$AAZ?$AA?9?$AAL?$AAa?$AAt?$AAn@ ; `string'
PUBLIC	??_C@_1M@IDCCIHBC@?$AAt?$AAt?$AA?9?$AAR?$AAU@	; `string'
PUBLIC	??_C@_1M@LOICPMOJ@?$AAb?$AAn?$AA?9?$AAI?$AAN@	; `string'
PUBLIC	??_C@_1M@KPKKNEAH@?$AAp?$AAa?$AA?9?$AAI?$AAN@	; `string'
PUBLIC	??_C@_1M@PJGPPBOG@?$AAg?$AAu?$AA?9?$AAI?$AAN@	; `string'
PUBLIC	??_C@_1M@KMKMOPHI@?$AAt?$AAa?$AA?9?$AAI?$AAN@	; `string'
PUBLIC	??_C@_1M@KFEHEPAC@?$AAt?$AAe?$AA?9?$AAI?$AAN@	; `string'
PUBLIC	??_C@_1M@CDCLMGHI@?$AAk?$AAn?$AA?9?$AAI?$AAN@	; `string'
PUBLIC	??_C@_1M@MIODLDKF@?$AAm?$AAl?$AA?9?$AAI?$AAN@	; `string'
PUBLIC	??_C@_1M@PBIEACPO@?$AAm?$AAr?$AA?9?$AAI?$AAN@	; `string'
PUBLIC	??_C@_1M@NIDEAGPH@?$AAs?$AAa?$AA?9?$AAI?$AAN@	; `string'
PUBLIC	??_C@_1M@FHIHCBIO@?$AAm?$AAn?$AA?9?$AAM?$AAN@	; `string'
PUBLIC	??_C@_1M@JAIJPENP@?$AAc?$AAy?$AA?9?$AAG?$AAB@	; `string'
PUBLIC	??_C@_1M@PHGFBEPN@?$AAg?$AAl?$AA?9?$AAE?$AAS@	; `string'
PUBLIC	??_C@_1O@KPIPDNCP@?$AAk?$AAo?$AAk?$AA?9?$AAI?$AAN@ ; `string'
PUBLIC	??_C@_1O@KNHJLDJA@?$AAs?$AAy?$AAr?$AA?9?$AAS?$AAY@ ; `string'
PUBLIC	??_C@_1O@MKEKBLAH@?$AAd?$AAi?$AAv?$AA?9?$AAM?$AAV@ ; `string'
PUBLIC	??_C@_1O@OHDCKDDF@?$AAq?$AAu?$AAz?$AA?9?$AAB?$AAO@ ; `string'
PUBLIC	??_C@_1M@LEPJNLFD@?$AAn?$AAs?$AA?9?$AAZ?$AAA@	; `string'
PUBLIC	??_C@_1M@OMLEIIJB@?$AAm?$AAi?$AA?9?$AAN?$AAZ@	; `string'
PUBLIC	??_C@_1M@PMPEAILG@?$AAa?$AAr?$AA?9?$AAI?$AAQ@	; `string'
PUBLIC	??_C@_1M@BIBDDEMK@?$AAz?$AAh?$AA?9?$AAC?$AAN@	; `string'
PUBLIC	??_C@_1M@CNKPNOEE@?$AAd?$AAe?$AA?9?$AAC?$AAH@	; `string'
PUBLIC	??_C@_1M@LKMGMLKO@?$AAe?$AAn?$AA?9?$AAG?$AAB@	; `string'
PUBLIC	??_C@_1M@PGKJFFGL@?$AAe?$AAs?$AA?9?$AAM?$AAX@	; `string'
PUBLIC	??_C@_1M@DNNANBDC@?$AAf?$AAr?$AA?9?$AAB?$AAE@	; `string'
PUBLIC	??_C@_1M@HLGMDFHM@?$AAi?$AAt?$AA?9?$AAC?$AAH@	; `string'
PUBLIC	??_C@_1M@CLLBGJH@?$AAn?$AAl?$AA?9?$AAB?$AAE@	; `string'
PUBLIC	??_C@_1M@BODBOGLF@?$AAn?$AAn?$AA?9?$AAN?$AAO@	; `string'
PUBLIC	??_C@_1M@HFFAHKAD@?$AAp?$AAt?$AA?9?$AAP?$AAT@	; `string'
PUBLIC	??_C@_1BG@LNOAKHIE@?$AAs?$AAr?$AA?9?$AAS?$AAP?$AA?9?$AAL?$AAa?$AAt?$AAn@ ; `string'
PUBLIC	??_C@_1M@HBMHBGAK@?$AAs?$AAv?$AA?9?$AAF?$AAI@	; `string'
PUBLIC	??_C@_1BG@DGCJGJBE@?$AAa?$AAz?$AA?9?$AAA?$AAZ?$AA?9?$AAC?$AAy?$AAr?$AAl@ ; `string'
PUBLIC	??_C@_1M@KEJDAAHB@?$AAs?$AAe?$AA?9?$AAS?$AAE@	; `string'
PUBLIC	??_C@_1M@HEIBJJAD@?$AAm?$AAs?$AA?9?$AAB?$AAN@	; `string'
PUBLIC	??_C@_1BG@PBGJMCEM@?$AAu?$AAz?$AA?9?$AAU?$AAZ?$AA?9?$AAC?$AAy?$AAr?$AAl@ ; `string'
PUBLIC	??_C@_1O@LAOBCMDF@?$AAq?$AAu?$AAz?$AA?9?$AAE?$AAC@ ; `string'
PUBLIC	??_C@_1M@POEEMAIO@?$AAa?$AAr?$AA?9?$AAE?$AAG@	; `string'
PUBLIC	??_C@_1M@EFAKDEDL@?$AAz?$AAh?$AA?9?$AAH?$AAK@	; `string'
PUBLIC	??_C@_1M@HKKIJHGI@?$AAd?$AAe?$AA?9?$AAA?$AAT@	; `string'
PUBLIC	??_C@_1M@KBFBEHJF@?$AAe?$AAn?$AA?9?$AAA?$AAU@	; `string'
PUBLIC	??_C@_1M@MNPLFAAH@?$AAe?$AAs?$AA?9?$AAE?$AAS@	; `string'
PUBLIC	??_C@_1M@HJOOJFMA@?$AAf?$AAr?$AA?9?$AAC?$AAA@	; `string'
PUBLIC	??_C@_1BG@JPOFPNAB@?$AAs?$AAr?$AA?9?$AAS?$AAP?$AA?9?$AAC?$AAy?$AAr?$AAl@ ; `string'
PUBLIC	??_C@_1M@LNFOCMOB@?$AAs?$AAe?$AA?9?$AAF?$AAI@	; `string'
PUBLIC	??_C@_1O@MGJBOAMB@?$AAq?$AAu?$AAz?$AA?9?$AAP?$AAE@ ; `string'
PUBLIC	??_C@_1M@GJINLBOK@?$AAa?$AAr?$AA?9?$AAL?$AAY@	; `string'
PUBLIC	??_C@_1M@GGMNHJNL@?$AAz?$AAh?$AA?9?$AAS?$AAG@	; `string'
PUBLIC	??_C@_1M@HOIKODND@?$AAd?$AAe?$AA?9?$AAL?$AAU@	; `string'
PUBLIC	??_C@_1M@DDOCCGFG@?$AAe?$AAn?$AA?9?$AAC?$AAA@	; `string'
PUBLIC	??_C@_1M@BNOEMJLF@?$AAe?$AAs?$AA?9?$AAG?$AAT@	; `string'
PUBLIC	??_C@_1M@EOGNKEK@?$AAf?$AAr?$AA?9?$AAC?$AAH@	; `string'
PUBLIC	??_C@_1M@FLIDJFHL@?$AAh?$AAr?$AA?9?$AAB?$AAA@	; `string'
PUBLIC	??_C@_1O@FMCELNAJ@?$AAs?$AAm?$AAj?$AA?9?$AAN?$AAO@ ; `string'
PUBLIC	??_C@_1M@JHGLJMGJ@?$AAa?$AAr?$AA?9?$AAD?$AAZ@	; `string'
PUBLIC	??_C@_1M@JKKFDCNP@?$AAz?$AAh?$AA?9?$AAM?$AAO@	; `string'
PUBLIC	??_C@_1M@GEEFALPE@?$AAd?$AAe?$AA?9?$AAL?$AAI@	; `string'
PUBLIC	??_C@_1M@IGEOFBG@?$AAe?$AAn?$AA?9?$AAN?$AAZ@	; `string'
PUBLIC	??_C@_1M@KDBONEHP@?$AAe?$AAs?$AA?9?$AAC?$AAR@	; `string'
PUBLIC	??_C@_1M@FHMDOHNN@?$AAf?$AAr?$AA?9?$AAL?$AAU@	; `string'
PUBLIC	??_C@_1BG@NFKKMAFG@?$AAb?$AAs?$AA?9?$AAB?$AAA?$AA?9?$AAL?$AAa?$AAt?$AAn@ ; `string'
PUBLIC	??_C@_1O@IMNBEMCI@?$AAs?$AAm?$AAj?$AA?9?$AAS?$AAE@ ; `string'
PUBLIC	??_C@_1M@DHHMBNDP@?$AAa?$AAr?$AA?9?$AAM?$AAA@	; `string'
PUBLIC	??_C@_1M@BNBLJCGH@?$AAe?$AAn?$AA?9?$AAI?$AAE@	; `string'
PUBLIC	??_C@_1M@GEPAFMDL@?$AAe?$AAs?$AA?9?$AAP?$AAA@	; `string'
PUBLIC	??_C@_1M@OJONDMDL@?$AAf?$AAr?$AA?9?$AAM?$AAC@	; `string'
PUBLIC	??_C@_1BG@OBCNFJB@?$AAs?$AAr?$AA?9?$AAB?$AAA?$AA?9?$AAL?$AAa?$AAt?$AAn@ ; `string'
PUBLIC	??_C@_1O@KEMEEGPO@?$AAs?$AAm?$AAa?$AA?9?$AAN?$AAO@ ; `string'
PUBLIC	??_C@_1M@ELMGFODK@?$AAa?$AAr?$AA?9?$AAT?$AAN@	; `string'
PUBLIC	??_C@_1M@BHDLHFAF@?$AAe?$AAn?$AA?9?$AAZ?$AAA@	; `string'
PUBLIC	??_C@_1M@BMGIGLIF@?$AAe?$AAs?$AA?9?$AAD?$AAO@	; `string'
PUBLIC	??_C@_1BG@CMBHIPBE@?$AAs?$AAr?$AA?9?$AAB?$AAA?$AA?9?$AAC?$AAy?$AAr?$AAl@ ; `string'
PUBLIC	??_C@_1O@HEDBLHNP@?$AAs?$AAm?$AAa?$AA?9?$AAS?$AAE@ ; `string'
PUBLIC	??_C@_1M@DAGCADIM@?$AAa?$AAr?$AA?9?$AAO?$AAM@	; `string'
PUBLIC	??_C@_1M@FODLMICG@?$AAe?$AAn?$AA?9?$AAJ?$AAM@	; `string'
PUBLIC	??_C@_1M@DNMLCIHB@?$AAe?$AAs?$AA?9?$AAV?$AAE@	; `string'
PUBLIC	??_C@_1O@EOKHMKJK@?$AAs?$AAm?$AAs?$AA?9?$AAF?$AAI@ ; `string'
PUBLIC	??_C@_1M@CAFJMKOF@?$AAa?$AAr?$AA?9?$AAY?$AAE@	; `string'
PUBLIC	??_C@_1M@CBFHIJLI@?$AAe?$AAn?$AA?9?$AAC?$AAB@	; `string'
PUBLIC	??_C@_1M@BGNFLDN@?$AAe?$AAs?$AA?9?$AAC?$AAO@	; `string'
PUBLIC	??_C@_1O@JMPHMAMC@?$AAs?$AAm?$AAn?$AA?9?$AAF?$AAI@ ; `string'
PUBLIC	??_C@_1M@JLANABKE@?$AAa?$AAr?$AA?9?$AAS?$AAY@	; `string'
PUBLIC	??_C@_1M@HPKGCFGN@?$AAe?$AAn?$AA?9?$AAB?$AAZ@	; `string'
PUBLIC	??_C@_1M@OLJCMLGM@?$AAe?$AAs?$AA?9?$AAP?$AAE@	; `string'
PUBLIC	??_C@_1M@MKKGFKLE@?$AAa?$AAr?$AA?9?$AAJ?$AAO@	; `string'
PUBLIC	??_C@_1M@EKPGLDNI@?$AAe?$AAn?$AA?9?$AAT?$AAT@	; `string'
PUBLIC	??_C@_1M@OONGHFHE@?$AAe?$AAs?$AA?9?$AAA?$AAR@	; `string'
PUBLIC	??_C@_1M@OOJFGBHE@?$AAa?$AAr?$AA?9?$AAL?$AAB@	; `string'
PUBLIC	??_C@_1M@GCEJHNEG@?$AAe?$AAn?$AA?9?$AAZ?$AAW@	; `string'
PUBLIC	??_C@_1M@JNOCAHJI@?$AAe?$AAs?$AA?9?$AAE?$AAC@	; `string'
PUBLIC	??_C@_1M@JEFHPGGB@?$AAa?$AAr?$AA?9?$AAK?$AAW@	; `string'
PUBLIC	??_C@_1M@MLKIBJOJ@?$AAe?$AAn?$AA?9?$AAP?$AAH@	; `string'
PUBLIC	??_C@_1M@BDNIPEND@?$AAe?$AAs?$AA?9?$AAC?$AAL@	; `string'
PUBLIC	??_C@_1M@MPNMEKBD@?$AAa?$AAr?$AA?9?$AAA?$AAE@	; `string'
PUBLIC	??_C@_1M@KBJALCPI@?$AAe?$AAs?$AA?9?$AAU?$AAY@	; `string'
PUBLIC	??_C@_1M@LLCCOAGA@?$AAa?$AAr?$AA?9?$AAB?$AAH@	; `string'
PUBLIC	??_C@_1M@PBFNCDEL@?$AAe?$AAs?$AA?9?$AAP?$AAY@	; `string'
PUBLIC	??_C@_1M@EDGINPNP@?$AAa?$AAr?$AA?9?$AAQ?$AAA@	; `string'
PUBLIC	??_C@_1M@MKDBIIJI@?$AAe?$AAs?$AA?9?$AAB?$AAO@	; `string'
PUBLIC	??_C@_1M@CPKKEBLD@?$AAe?$AAs?$AA?9?$AAS?$AAV@	; `string'
PUBLIC	??_C@_1M@NDBGMMJL@?$AAe?$AAs?$AA?9?$AAH?$AAN@	; `string'
PUBLIC	??_C@_1M@JIJIBHDP@?$AAe?$AAs?$AA?9?$AAN?$AAI@	; `string'
PUBLIC	??_C@_1M@CGFMKEEK@?$AAe?$AAs?$AA?9?$AAP?$AAR@	; `string'
PUBLIC	??_C@_1O@ICJHKIIK@?$AAz?$AAh?$AA?9?$AAC?$AAH?$AAT@ ; `string'
PUBLIC	??_C@_15CLNEJCE@?$AAs?$AAr@			; `string'
PUBLIC	__pAtlLocaleNameToIndexTable
PUBLIC	??_C@_1M@KAHEKEIG@?$AAa?$AAf?$AA?9?$AAz?$AAa@	; `string'
PUBLIC	??_C@_1M@GIECOABL@?$AAa?$AAr?$AA?9?$AAa?$AAe@	; `string'
PUBLIC	??_C@_1M@BMLMEKGI@?$AAa?$AAr?$AA?9?$AAb?$AAh@	; `string'
PUBLIC	??_C@_1M@DAPFDGGB@?$AAa?$AAr?$AA?9?$AAd?$AAz@	; `string'
PUBLIC	??_C@_1M@FJNKGKIG@?$AAa?$AAr?$AA?9?$AAe?$AAg@	; `string'
PUBLIC	??_C@_1M@FLGKKCLO@?$AAa?$AAr?$AA?9?$AAi?$AAq@	; `string'
PUBLIC	??_C@_1M@GNDIPALM@?$AAa?$AAr?$AA?9?$AAj?$AAo@	; `string'
PUBLIC	??_C@_1M@DDMJFMGJ@?$AAa?$AAr?$AA?9?$AAk?$AAw@	; `string'
PUBLIC	??_C@_1M@EJALMLHM@?$AAa?$AAr?$AA?9?$AAl?$AAb@	; `string'
PUBLIC	??_C@_1M@MOBDBLOC@?$AAa?$AAr?$AA?9?$AAl?$AAy@	; `string'
PUBLIC	??_C@_1M@JAOCLHDH@?$AAa?$AAr?$AA?9?$AAm?$AAa@	; `string'
PUBLIC	??_C@_1M@JHPMKJIE@?$AAa?$AAr?$AA?9?$AAo?$AAm@	; `string'
PUBLIC	??_C@_1M@OEPGHFNH@?$AAa?$AAr?$AA?9?$AAq?$AAa@	; `string'
PUBLIC	??_C@_1M@KJDONENM@?$AAa?$AAr?$AA?9?$AAs?$AAa@	; `string'
PUBLIC	??_C@_1M@DMJDKLKM@?$AAa?$AAr?$AA?9?$AAs?$AAy@	; `string'
PUBLIC	??_C@_1M@OMFIPEDC@?$AAa?$AAr?$AA?9?$AAt?$AAn@	; `string'
PUBLIC	??_C@_1M@IHMHGAON@?$AAa?$AAr?$AA?9?$AAy?$AAe@	; `string'
PUBLIC	??_C@_1BG@KDCPGJGB@?$AAa?$AAz?$AA?9?$AAa?$AAz?$AA?9?$AAc?$AAy?$AAr?$AAl@ ; `string'
PUBLIC	??_C@_1BG@IBCKDDOE@?$AAa?$AAz?$AA?9?$AAa?$AAz?$AA?9?$AAl?$AAa?$AAt?$AAn@ ; `string'
PUBLIC	??_C@_1M@EGPFDCPD@?$AAb?$AAe?$AA?9?$AAb?$AAy@	; `string'
PUBLIC	??_C@_1M@PCMGMCGC@?$AAb?$AAg?$AA?9?$AAb?$AAg@	; `string'
PUBLIC	??_C@_1M@BJBMFGOB@?$AAb?$AAn?$AA?9?$AAi?$AAn@	; `string'
PUBLIC	??_C@_1BG@EAKMMACD@?$AAb?$AAs?$AA?9?$AAb?$AAa?$AA?9?$AAl?$AAa?$AAt?$AAn@ ; `string'
PUBLIC	??_C@_1M@KGADAODK@?$AAc?$AAa?$AA?9?$AAe?$AAs@	; `string'
PUBLIC	??_C@_1M@COAJPDHI@?$AAc?$AAs?$AA?9?$AAc?$AAz@	; `string'
PUBLIC	??_C@_1M@DHBHFONH@?$AAc?$AAy?$AA?9?$AAg?$AAb@	; `string'
PUBLIC	??_C@_1M@IMGKELGA@?$AAd?$AAa?$AA?9?$AAd?$AAk@	; `string'
PUBLIC	??_C@_1M@NNDGDNGA@?$AAd?$AAe?$AA?9?$AAa?$AAt@	; `string'
PUBLIC	??_C@_1M@IKDBHEEM@?$AAd?$AAe?$AA?9?$AAc?$AAh@	; `string'
PUBLIC	??_C@_1M@GFFOJMCJ@?$AAd?$AAe?$AA?9?$AAd?$AAe@	; `string'
PUBLIC	??_C@_1M@MDNLKBPM@?$AAd?$AAe?$AA?9?$AAl?$AAi@	; `string'
PUBLIC	??_C@_1M@NJBEEJNL@?$AAd?$AAe?$AA?9?$AAl?$AAu@	; `string'
PUBLIC	??_C@_1O@GNNELBAP@?$AAd?$AAi?$AAv?$AA?9?$AAm?$AAv@ ; `string'
PUBLIC	??_C@_1M@EJLEOGAE@?$AAe?$AAl?$AA?9?$AAg?$AAr@	; `string'
PUBLIC	??_C@_1M@GMPONJN@?$AAe?$AAn?$AA?9?$AAa?$AAu@	; `string'
PUBLIC	??_C@_1M@NIDIIPGF@?$AAe?$AAn?$AA?9?$AAb?$AAz@	; `string'
PUBLIC	??_C@_1M@JEHMIMFO@?$AAe?$AAn?$AA?9?$AAc?$AAa@	; `string'
PUBLIC	??_C@_1M@IGMJCDLA@?$AAe?$AAn?$AA?9?$AAc?$AAb@	; `string'
PUBLIC	??_C@_1M@BNFIGBKG@?$AAe?$AAn?$AA?9?$AAg?$AAb@	; `string'
PUBLIC	??_C@_1M@LKIFDIGP@?$AAe?$AAn?$AA?9?$AAi?$AAe@	; `string'
PUBLIC	??_C@_1M@PJKFGCCO@?$AAe?$AAn?$AA?9?$AAj?$AAm@	; `string'
PUBLIC	??_C@_1M@KPPKEPBO@?$AAe?$AAn?$AA?9?$AAn?$AAz@	; `string'
PUBLIC	??_C@_1M@GMDGLDOB@?$AAe?$AAn?$AA?9?$AAp?$AAh@	; `string'
PUBLIC	??_C@_1M@ONGIBJNA@?$AAe?$AAn?$AA?9?$AAt?$AAt@	; `string'
PUBLIC	??_C@_1M@LLODPCMM@?$AAe?$AAn?$AA?9?$AAu?$AAs@	; `string'
PUBLIC	??_C@_1M@LAKFNPAN@?$AAe?$AAn?$AA?9?$AAz?$AAa@	; `string'
PUBLIC	??_C@_1M@MFNHNHEO@?$AAe?$AAn?$AA?9?$AAz?$AAw@	; `string'
PUBLIC	??_C@_1M@EJEINPHM@?$AAe?$AAs?$AA?9?$AAa?$AAr@	; `string'
PUBLIC	??_C@_1M@GNKPCCJA@?$AAe?$AAs?$AA?9?$AAb?$AAo@	; `string'
PUBLIC	??_C@_1M@LEEGFONL@?$AAe?$AAs?$AA?9?$AAc?$AAl@	; `string'
PUBLIC	??_C@_1M@KGPDPBDF@?$AAe?$AAs?$AA?9?$AAc?$AAo@	; `string'
PUBLIC	??_C@_1M@EIAHOHH@?$AAe?$AAs?$AA?9?$AAc?$AAr@	; `string'
PUBLIC	??_C@_1M@LLPGMBIN@?$AAe?$AAs?$AA?9?$AAd?$AAo@	; `string'
PUBLIC	??_C@_1M@DKHMKNJA@?$AAe?$AAs?$AA?9?$AAe?$AAc@	; `string'
PUBLIC	??_C@_1M@GKGFPKAP@?$AAe?$AAs?$AA?9?$AAe?$AAs@	; `string'
PUBLIC	??_C@_1M@LKHKGDLN@?$AAe?$AAs?$AA?9?$AAg?$AAt@	; `string'
PUBLIC	??_C@_1M@HEIIGGJD@?$AAe?$AAs?$AA?9?$AAh?$AAn@	; `string'
PUBLIC	??_C@_1M@FBDHPPGD@?$AAe?$AAs?$AA?9?$AAm?$AAx@	; `string'
PUBLIC	??_C@_1M@DPAGLNDH@?$AAe?$AAs?$AA?9?$AAn?$AAi@	; `string'
PUBLIC	??_C@_1M@MDGOPGDD@?$AAe?$AAs?$AA?9?$AAp?$AAa@	; `string'
PUBLIC	??_C@_1M@EMAMGBGE@?$AAe?$AAs?$AA?9?$AAp?$AAe@	; `string'
PUBLIC	??_C@_1M@IBMCAOEC@?$AAe?$AAs?$AA?9?$AAp?$AAr@	; `string'
PUBLIC	??_C@_1M@FGMDIJED@?$AAe?$AAs?$AA?9?$AAp?$AAy@	; `string'
PUBLIC	??_C@_1M@IIDEOLLL@?$AAe?$AAs?$AA?9?$AAs?$AAv@	; `string'
PUBLIC	??_C@_1M@GAOBIPA@?$AAe?$AAs?$AA?9?$AAu?$AAy@	; `string'
PUBLIC	??_C@_1M@JKFFICHJ@?$AAe?$AAs?$AA?9?$AAv?$AAe@	; `string'
PUBLIC	??_C@_1M@PNMLOJDF@?$AAe?$AAt?$AA?9?$AAe?$AAe@	; `string'
PUBLIC	??_C@_1M@GHHLIKEI@?$AAe?$AAu?$AA?9?$AAe?$AAs@	; `string'
PUBLIC	??_C@_1M@PBNONODE@?$AAf?$AAa?$AA?9?$AAi?$AAr@	; `string'
PUBLIC	??_C@_1M@JEEHPMIL@?$AAf?$AAi?$AA?9?$AAf?$AAi@	; `string'
PUBLIC	??_C@_1M@LMDCNDBA@?$AAf?$AAo?$AA?9?$AAf?$AAo@	; `string'
PUBLIC	??_C@_1M@JKEOHLDK@?$AAf?$AAr?$AA?9?$AAb?$AAe@	; `string'
PUBLIC	??_C@_1M@NOHADPMI@?$AAf?$AAr?$AA?9?$AAc?$AAa@	; `string'
PUBLIC	??_C@_1M@KDHIHAEC@?$AAf?$AAr?$AA?9?$AAc?$AAh@	; `string'
PUBLIC	?chDirSep@ATL@@3DB				; ATL::chDirSep
PUBLIC	??_C@_1M@MMBBFGAK@?$AAf?$AAr?$AA?9?$AAf?$AAr@	; `string'
PUBLIC	?chRightBracket@ATL@@3DB			; ATL::chRightBracket
PUBLIC	??_C@_1M@PAFNENNF@?$AAf?$AAr?$AA?9?$AAl?$AAu@	; `string'
PUBLIC	?chLeftBracket@ATL@@3DB				; ATL::chLeftBracket
PUBLIC	??_C@_1M@EOHDJGDD@?$AAf?$AAr?$AA?9?$AAm?$AAc@	; `string'
PUBLIC	?chQuote@ATL@@3DB				; ATL::chQuote
PUBLIC	??_C@_1M@FAPLLOPF@?$AAg?$AAl?$AA?9?$AAe?$AAs@	; `string'
PUBLIC	?chEquals@ATL@@3DB				; ATL::chEquals
PUBLIC	??_C@_1M@FOPBFLOO@?$AAg?$AAu?$AA?9?$AAi?$AAn@	; `string'
PUBLIC	?szStringVal@ATL@@3QBDB				; ATL::szStringVal
PUBLIC	??_C@_1M@KBMCINPM@?$AAh?$AAe?$AA?9?$AAi?$AAl@	; `string'
PUBLIC	??_C@_01CPLAODJH@S@				; `string'
PUBLIC	??_C@_1M@BBPHKFPJ@?$AAh?$AAi?$AA?9?$AAi?$AAn@	; `string'
PUBLIC	?multiszStringVal@ATL@@3QBDB			; ATL::multiszStringVal
PUBLIC	??_C@_1M@PMBNDPHD@?$AAh?$AAr?$AA?9?$AAb?$AAa@	; `string'
PUBLIC	??_C@_01PLPBNMEI@M@				; `string'
PUBLIC	??_C@_1M@BPCKOEGE@?$AAh?$AAr?$AA?9?$AAh?$AAr@	; `string'
PUBLIC	?szDwordVal@ATL@@3QBDB				; ATL::szDwordVal
PUBLIC	??_C@_1M@GACBMHKE@?$AAh?$AAu?$AA?9?$AAh?$AAu@	; `string'
PUBLIC	??_C@_01CKDDGHAB@D@				; `string'
PUBLIC	??_C@_1M@MILPAJJC@?$AAh?$AAy?$AA?9?$AAa?$AAm@	; `string'
PUBLIC	?szBinaryVal@ATL@@3QBDB				; ATL::szBinaryVal
PUBLIC	??_C@_1M@BABBICEC@?$AAi?$AAd?$AA?9?$AAi?$AAd@	; `string'
PUBLIC	??_C@_01HMGJMAIH@B@				; `string'
PUBLIC	??_C@_1M@BIKNHHPF@?$AAi?$AAs?$AA?9?$AAi?$AAs@	; `string'
PUBLIC	?szValToken@ATL@@3QBDB				; ATL::szValToken
PUBLIC	??_C@_1M@NMPCJPHE@?$AAi?$AAt?$AA?9?$AAc?$AAh@	; `string'
PUBLIC	??_C@_03LAIAPFCB@Val@				; `string'
PUBLIC	??_C@_1M@GHKGFEDF@?$AAi?$AAt?$AA?9?$AAi?$AAt@	; `string'
PUBLIC	?szForceRemove@ATL@@3QBDB			; ATL::szForceRemove
PUBLIC	??_C@_1M@NIEJCJJA@?$AAj?$AAa?$AA?9?$AAj?$AAp@	; `string'
PUBLIC	??_C@_0M@DBGDLGLL@ForceRemove@			; `string'
PUBLIC	??_C@_1M@JILFNBIM@?$AAk?$AAa?$AA?9?$AAg?$AAe@	; `string'
PUBLIC	?szNoRemove@ATL@@3QBDB				; ATL::szNoRemove
PUBLIC	??_C@_1M@PACPMGPH@?$AAk?$AAk?$AA?9?$AAk?$AAz@	; `string'
PUBLIC	??_C@_08KAAPDIAN@NoRemove@			; `string'
PUBLIC	??_C@_1M@IELFGMHA@?$AAk?$AAn?$AA?9?$AAi?$AAn@	; `string'
PUBLIC	?szDelete@ATL@@3QBDB				; ATL::szDelete
PUBLIC	??_C@_1O@IBBJHCH@?$AAk?$AAo?$AAk?$AA?9?$AAi?$AAn@ ; `string'
PUBLIC	??_C@_06JBKGCNBB@Delete@			; `string'
PUBLIC	??_C@_1M@DMHAEOGC@?$AAk?$AAo?$AA?9?$AAk?$AAr@	; `string'
PUBLIC	??_C@_1M@HBAHBIGA@?$AAk?$AAy?$AA?9?$AAk?$AAg@	; `string'
PUBLIC	??_C@_1M@KPMILCJG@?$AAl?$AAt?$AA?9?$AAl?$AAt@	; `string'
PUBLIC	??_C@_1M@BDEKKCA@?$AAl?$AAv?$AA?9?$AAl?$AAv@	; `string'
PUBLIC	??_C@_1M@ELCKCCJJ@?$AAm?$AAi?$AA?9?$AAn?$AAz@	; `string'
PUBLIC	??_C@_1M@CBOOLAPA@?$AAm?$AAk?$AA?9?$AAm?$AAk@	; `string'
PUBLIC	??_C@_1M@GPHNBJKN@?$AAm?$AAl?$AA?9?$AAi?$AAn@	; `string'
PUBLIC	??_C@_1M@PABJILIG@?$AAm?$AAn?$AA?9?$AAm?$AAn@	; `string'
PUBLIC	??_C@_1M@FGBKKIPG@?$AAm?$AAr?$AA?9?$AAi?$AAn@	; `string'
PUBLIC	??_C@_1M@NDBPDDAL@?$AAm?$AAs?$AA?9?$AAb?$AAn@	; `string'
PUBLIC	??_C@_1M@OPIHOOPI@?$AAm?$AAs?$AA?9?$AAm?$AAy@	; `string'
PUBLIC	??_C@_1M@PPDBCNFM@?$AAm?$AAt?$AA?9?$AAm?$AAt@	; `string'
PUBLIC	??_C@_1M@KDJDKMDD@?$AAn?$AAb?$AA?9?$AAn?$AAo@	; `string'
PUBLIC	??_C@_1M@KFCFLMJP@?$AAn?$AAl?$AA?9?$AAb?$AAe@	; `string'
PUBLIC	??_C@_1M@KPOPDDGO@?$AAn?$AAl?$AA?9?$AAn?$AAl@	; `string'
PUBLIC	??_C@_1M@LJKPEMLN@?$AAn?$AAn?$AA?9?$AAn?$AAo@	; `string'
PUBLIC	??_C@_1M@BDGHHBFL@?$AAn?$AAs?$AA?9?$AAz?$AAa@	; `string'
PUBLIC	??_C@_1M@IDEHOAP@?$AAp?$AAa?$AA?9?$AAi?$AAn@	; `string'
PUBLIC	??_C@_1M@HDBKGOGH@?$AAp?$AAl?$AA?9?$AAp?$AAl@	; `string'
PUBLIC	??_C@_1M@LJLLCMEH@?$AAp?$AAt?$AA?9?$AAb?$AAr@	; `string'
PUBLIC	??_C@_1M@NCMONAAL@?$AAp?$AAt?$AA?9?$AAp?$AAt@	; `string'
PUBLIC	??_C@_1O@EAKMAJDN@?$AAq?$AAu?$AAz?$AA?9?$AAb?$AAo@ ; `string'
PUBLIC	??_C@_1O@BHHPIGDN@?$AAq?$AAu?$AAz?$AA?9?$AAe?$AAc@ ; `string'
PUBLIC	??_C@_1O@GBAPEKMJ@?$AAq?$AAu?$AAz?$AA?9?$AAp?$AAe@ ; `string'
PUBLIC	??_C@_1M@CLGLEFBO@?$AAr?$AAo?$AA?9?$AAr?$AAo@	; `string'
PUBLIC	??_C@_1M@CEEDODME@?$AAr?$AAu?$AA?9?$AAr?$AAu@	; `string'
PUBLIC	??_C@_1M@HPKKKMPP@?$AAs?$AAa?$AA?9?$AAi?$AAn@	; `string'
PUBLIC	??_C@_1M@BKMAIGOJ@?$AAs?$AAe?$AA?9?$AAf?$AAi@	; `string'
PUBLIC	??_C@_1M@NDPIFLFI@?$AAs?$AAe?$AA?9?$AAn?$AAo@	; `string'
PUBLIC	??_C@_1M@DANKKHJ@?$AAs?$AAe?$AA?9?$AAs?$AAe@	; `string'
PUBLIC	??_C@_1M@PNBLONPJ@?$AAs?$AAk?$AA?9?$AAs?$AAk@	; `string'
PUBLIC	??_C@_1M@LFMODOAL@?$AAs?$AAl?$AA?9?$AAs?$AAi@	; `string'
PUBLIC	??_C@_1O@DFKOMPG@?$AAs?$AAm?$AAa?$AA?9?$AAn?$AAo@ ; `string'
PUBLIC	??_C@_1O@NDKPBNNH@?$AAs?$AAm?$AAa?$AA?9?$AAs?$AAe@ ; `string'
PUBLIC	??_C@_1O@PLLKBHAB@?$AAs?$AAm?$AAj?$AA?9?$AAn?$AAo@ ; `string'
PUBLIC	??_C@_1O@CLEPOGCA@?$AAs?$AAm?$AAj?$AA?9?$AAs?$AAe@ ; `string'
PUBLIC	??_C@_1O@DLGJGKMK@?$AAs?$AAm?$AAn?$AA?9?$AAf?$AAi@ ; `string'
PUBLIC	??_C@_1O@OJDJGAJC@?$AAs?$AAm?$AAs?$AA?9?$AAf?$AAi@ ; `string'
PUBLIC	??_C@_1M@BOFOGHPB@?$AAs?$AAq?$AA?9?$AAa?$AAl@	; `string'
PUBLIC	??_C@_1BG@LJBBIPGB@?$AAs?$AAr?$AA?9?$AAb?$AAa?$AA?9?$AAc?$AAy?$AAr?$AAl@ ; `string'
PUBLIC	??_C@_1BG@JLBENFOE@?$AAs?$AAr?$AA?9?$AAb?$AAa?$AA?9?$AAl?$AAa?$AAt?$AAn@ ; `string'
PUBLIC	??_C@_1BG@KODPNHE@?$AAs?$AAr?$AA?9?$AAs?$AAp?$AA?9?$AAc?$AAy?$AAr?$AAl@ ; `string'
PUBLIC	??_C@_1BG@CIOGKHPB@?$AAs?$AAr?$AA?9?$AAs?$AAp?$AA?9?$AAl?$AAa?$AAt?$AAn@ ; `string'
PUBLIC	??_C@_1M@NGFJLMAC@?$AAs?$AAv?$AA?9?$AAf?$AAi@	; `string'
PUBLIC	??_C@_1M@MPJEJAJC@?$AAs?$AAv?$AA?9?$AAs?$AAe@	; `string'
PUBLIC	??_C@_1M@MPNDHLFK@?$AAs?$AAw?$AA?9?$AAk?$AAe@	; `string'
PUBLIC	??_C@_1O@KOHBJJI@?$AAs?$AAy?$AAr?$AA?9?$AAs?$AAy@ ; `string'
PUBLIC	??_C@_1M@LDCEFHA@?$AAt?$AAa?$AA?9?$AAi?$AAn@	; `string'
PUBLIC	??_C@_1M@CNJOFAK@?$AAt?$AAe?$AA?9?$AAi?$AAn@	; `string'
PUBLIC	??_C@_1M@GNAECACD@?$AAt?$AAh?$AA?9?$AAt?$AAh@	; `string'
PUBLIC	??_C@_1M@CHBIHOJO@?$AAt?$AAn?$AA?9?$AAz?$AAa@	; `string'
PUBLIC	??_C@_1M@GCCMIGPJ@?$AAt?$AAr?$AA?9?$AAt?$AAr@	; `string'
PUBLIC	??_C@_1M@CELMCNBK@?$AAt?$AAt?$AA?9?$AAr?$AAu@	; `string'
PUBLIC	??_C@_1M@KLMCELGA@?$AAu?$AAk?$AA?9?$AAu?$AAa@	; `string'
PUBLIC	??_C@_1M@EPAJJAJF@?$AAu?$AAr?$AA?9?$AAp?$AAk@	; `string'
PUBLIC	??_C@_1BG@GEGPMCDJ@?$AAu?$AAz?$AA?9?$AAu?$AAz?$AA?9?$AAc?$AAy?$AAr?$AAl@ ; `string'
PUBLIC	??_C@_1BG@EGGKJILM@?$AAu?$AAz?$AA?9?$AAu?$AAz?$AA?9?$AAl?$AAa?$AAt?$AAn@ ; `string'
PUBLIC	??_C@_1M@GFOCLFF@?$AAv?$AAi?$AA?9?$AAv?$AAn@	; `string'
PUBLIC	??_C@_1M@CPAMEDFI@?$AAx?$AAh?$AA?9?$AAz?$AAa@	; `string'
PUBLIC	??_C@_1O@EBKIFIGN@?$AAz?$AAh?$AA?9?$AAc?$AAh?$AAs@ ; `string'
PUBLIC	??_C@_1O@NMHPGANE@?$AAz?$AAh?$AA?9?$AAc?$AAh?$AAt@ ; `string'
PUBLIC	??_C@_1M@LPINJOMC@?$AAz?$AAh?$AA?9?$AAc?$AAn@	; `string'
PUBLIC	??_C@_1M@OCJEJODD@?$AAz?$AAh?$AA?9?$AAh?$AAk@	; `string'
PUBLIC	??_C@_1M@DNDLJINH@?$AAz?$AAh?$AA?9?$AAm?$AAo@	; `string'
PUBLIC	??_C@_1M@MBFDNDND@?$AAz?$AAh?$AA?9?$AAs?$AAg@	; `string'
PUBLIC	??_C@_1M@IMEPLEPE@?$AAz?$AAh?$AA?9?$AAt?$AAw@	; `string'
PUBLIC	??_C@_1M@BBGHNHJP@?$AAz?$AAu?$AA?9?$AAz?$AAa@	; `string'
PUBLIC	?g_uIdofMulti@@3KA				; g_uIdofMulti
PUBLIC	?g_uKey@@3KA					; g_uKey
PUBLIC	__pIncludeInitManaged
PUBLIC	_CLSID_Registrar
PUBLIC	_IID_IRegistrar
PUBLIC	_IID_IDocHostUIHandlerDispatch
PUBLIC	_IID_IAxWinHostWindow
PUBLIC	??_R4CWin32Heap@ATL@@6B@			; ATL::CWin32Heap::`RTTI Complete Object Locator'
PUBLIC	??_R0?AVCWin32Heap@ATL@@@8			; ATL::CWin32Heap `RTTI Type Descriptor'
PUBLIC	??_R3CWin32Heap@ATL@@8				; ATL::CWin32Heap::`RTTI Class Hierarchy Descriptor'
PUBLIC	??_R2CWin32Heap@ATL@@8				; ATL::CWin32Heap::`RTTI Base Class Array'
PUBLIC	??_R1A@?0A@EA@CWin32Heap@ATL@@8			; ATL::CWin32Heap::`RTTI Base Class Descriptor at (0,-1,0,64)'
PUBLIC	??_R1A@?0A@EA@IAtlMemMgr@ATL@@8			; ATL::IAtlMemMgr::`RTTI Base Class Descriptor at (0,-1,0,64)'
PUBLIC	??_R0?AUIAtlMemMgr@ATL@@@8			; ATL::IAtlMemMgr `RTTI Type Descriptor'
PUBLIC	??_R3IAtlMemMgr@ATL@@8				; ATL::IAtlMemMgr::`RTTI Class Hierarchy Descriptor'
PUBLIC	??_R2IAtlMemMgr@ATL@@8				; ATL::IAtlMemMgr::`RTTI Base Class Array'
PUBLIC	??_R1A@?0A@EA@IAtlStringMgr@ATL@@8		; ATL::IAtlStringMgr::`RTTI Base Class Descriptor at (0,-1,0,64)'
PUBLIC	??_R0?AUIAtlStringMgr@ATL@@@8			; ATL::IAtlStringMgr `RTTI Type Descriptor'
PUBLIC	??_R3IAtlStringMgr@ATL@@8			; ATL::IAtlStringMgr::`RTTI Class Hierarchy Descriptor'
PUBLIC	??_R2IAtlStringMgr@ATL@@8			; ATL::IAtlStringMgr::`RTTI Base Class Array'
EXTRN	__Init_thread_epoch:DWORD
EXTRN	??_ECAtlStringMgr@ATL@@UAEPAXI@Z:PROC		; ATL::CAtlStringMgr::`vector deleting destructor'
EXTRN	?_AtlBaseModule@ATL@@3VCAtlBaseModule@1@A:BYTE	; ATL::_AtlBaseModule
EXTRN	??_ECWin32Heap@ATL@@UAEPAXI@Z:PROC		; ATL::CWin32Heap::`vector deleting destructor'
EXTRN	___ImageBase:ZWORD
EXTRN	??_7type_info@@6B@:QWORD			; type_info::`vftable'
;	COMDAT ___@@_PchSym_@00@UrztlhUhvieviUeBIUhlfixvUlfgkfgUdliowhvieviUivovzhvUhgwzucOlyq@4B2008FD98C1DD4
_BSS	SEGMENT
___@@_PchSym_@00@UrztlhUhvieviUeBIUhlfixvUlfgkfgUdliowhvieviUivovzhvUhgwzucOlyq@4B2008FD98C1DD4 DD 01H DUP (?)
_BSS	ENDS
;	COMDAT ?_OptionsStorage@?1??__local_stdio_printf_options@@9@4_KA
_BSS	SEGMENT
?_OptionsStorage@?1??__local_stdio_printf_options@@9@4_KA DQ 01H DUP (?) ; `__local_stdio_printf_options'::`2'::_OptionsStorage
_BSS	ENDS
_BSS	SEGMENT
?g_szDBAddr@@3PADA DB 010H DUP (?)			; g_szDBAddr
?g_sHeartbeat@@3PADA DB 020H DUP (?)			; g_sHeartbeat
?g_tCurrent@@3JA DD 01H DUP (?)				; g_tCurrent
_BSS	ENDS
;	COMDAT ?strHeap@?1??GetInstance@CAtlStringMgr@ATL@@SAPAUIAtlStringMgr@3@XZ@4VCWin32Heap@3@A
_BSS	SEGMENT
?strHeap@?1??GetInstance@CAtlStringMgr@ATL@@SAPAUIAtlStringMgr@3@XZ@4VCWin32Heap@3@A DB 0cH DUP (?) ; `ATL::CAtlStringMgr::GetInstance'::`2'::strHeap
_BSS	ENDS
;	COMDAT ?$TSS0@?1??GetInstance@CAtlStringMgr@ATL@@SAPAUIAtlStringMgr@3@XZ@4HA
_BSS	SEGMENT
?$TSS0@?1??GetInstance@CAtlStringMgr@ATL@@SAPAUIAtlStringMgr@3@XZ@4HA DD 01H DUP (?) ; `ATL::CAtlStringMgr::GetInstance'::`2'::$TSS0
_BSS	ENDS
;	COMDAT ?strMgr@?1??GetInstance@CAtlStringMgr@ATL@@SAPAUIAtlStringMgr@3@XZ@4V23@A
_BSS	SEGMENT
?strMgr@?1??GetInstance@CAtlStringMgr@ATL@@SAPAUIAtlStringMgr@3@XZ@4V23@A DB 01cH DUP (?) ; `ATL::CAtlStringMgr::GetInstance'::`2'::strMgr
_BSS	ENDS
;	COMDAT ?$TSS1@?1??GetInstance@CAtlStringMgr@ATL@@SAPAUIAtlStringMgr@3@XZ@4HA
_BSS	SEGMENT
?$TSS1@?1??GetInstance@CAtlStringMgr@ATL@@SAPAUIAtlStringMgr@3@XZ@4HA DD 01H DUP (?) ; `ATL::CAtlStringMgr::GetInstance'::`2'::$TSS1
_BSS	ENDS
_BSS	SEGMENT
?g_tmCurrent@@3KA DD 01H DUP (?)			; g_tmCurrent
_BSS	ENDS
;	COMDAT ?m_bInitFailed@CAtlBaseModule@ATL@@2_NA
_BSS	SEGMENT
?m_bInitFailed@CAtlBaseModule@ATL@@2_NA DB 01H DUP (?)	; ATL::CAtlBaseModule::m_bInitFailed
_BSS	ENDS
_BSS	SEGMENT
?g_nProcessCnt@@3HA DD 01H DUP (?)			; g_nProcessCnt
_BSS	ENDS
;	COMDAT ?_pPerfRegFunc@ATL@@3P6AJPAUHINSTANCE__@@@ZA
_BSS	SEGMENT
?_pPerfRegFunc@ATL@@3P6AJPAUHINSTANCE__@@@ZA DD 01H DUP (?) ; ATL::_pPerfRegFunc
_BSS	ENDS
;	COMDAT ?_pPerfUnRegFunc@ATL@@3P6AJXZA
_BSS	SEGMENT
?_pPerfUnRegFunc@ATL@@3P6AJXZA DD 01H DUP (?)		; ATL::_pPerfUnRegFunc
_BSS	ENDS
;	COMDAT ?_AtlRegisterPerUser@ATL@@3_NA
_BSS	SEGMENT
?_AtlRegisterPerUser@ATL@@3_NA DB 01H DUP (?)		; ATL::_AtlRegisterPerUser
_BSS	ENDS
;	COMDAT ?_pAtlModule@ATL@@3PAVCAtlModule@1@A
_BSS	SEGMENT
?_pAtlModule@ATL@@3PAVCAtlModule@1@A DD 01H DUP (?)	; ATL::_pAtlModule
_BSS	ENDS
;	COMDAT ?_pModule@ATL@@3PAVCComModule@1@A
_BSS	SEGMENT
?_pModule@ATL@@3PAVCComModule@1@A DD 01H DUP (?)	; ATL::_pModule
_BSS	ENDS
;	COMDAT __Avx2WmemEnabledWeakValue
_BSS	SEGMENT
__Avx2WmemEnabledWeakValue DD 01H DUP (?)
_BSS	ENDS
;	COMDAT ?_pAtlAutoThreadModule@ATL@@3PAUIAtlAutoThreadModule@1@A
_BSS	SEGMENT
?_pAtlAutoThreadModule@ATL@@3PAUIAtlAutoThreadModule@1@A DD 01H DUP (?) ; ATL::_pAtlAutoThreadModule
_BSS	ENDS
_BSS	SEGMENT
?g_uIdofMulti@@3KA DD 01H DUP (?)			; g_uIdofMulti
?g_uKey@@3KA DD	01H DUP (?)				; g_uKey
_BSS	ENDS
;	COMDAT ??_R2IAtlStringMgr@ATL@@8
rdata$r	SEGMENT
??_R2IAtlStringMgr@ATL@@8 DD FLAT:??_R1A@?0A@EA@IAtlStringMgr@ATL@@8 ; ATL::IAtlStringMgr::`RTTI Base Class Array'
rdata$r	ENDS
;	COMDAT ??_R3IAtlStringMgr@ATL@@8
rdata$r	SEGMENT
??_R3IAtlStringMgr@ATL@@8 DD 00H			; ATL::IAtlStringMgr::`RTTI Class Hierarchy Descriptor'
	DD	00H
	DD	01H
	DD	FLAT:??_R2IAtlStringMgr@ATL@@8
rdata$r	ENDS
;	COMDAT ??_R0?AUIAtlStringMgr@ATL@@@8
data$rs	SEGMENT
??_R0?AUIAtlStringMgr@ATL@@@8 DD FLAT:??_7type_info@@6B@ ; ATL::IAtlStringMgr `RTTI Type Descriptor'
	DD	00H
	DB	'.?AUIAtlStringMgr@ATL@@', 00H
data$rs	ENDS
;	COMDAT ??_R1A@?0A@EA@IAtlStringMgr@ATL@@8
rdata$r	SEGMENT
??_R1A@?0A@EA@IAtlStringMgr@ATL@@8 DD FLAT:??_R0?AUIAtlStringMgr@ATL@@@8 ; ATL::IAtlStringMgr::`RTTI Base Class Descriptor at (0,-1,0,64)'
	DD	00H
	DD	00H
	DD	0ffffffffH
	DD	00H
	DD	040H
	DD	FLAT:??_R3IAtlStringMgr@ATL@@8
rdata$r	ENDS
;	COMDAT ??_R2IAtlMemMgr@ATL@@8
rdata$r	SEGMENT
??_R2IAtlMemMgr@ATL@@8 DD FLAT:??_R1A@?0A@EA@IAtlMemMgr@ATL@@8 ; ATL::IAtlMemMgr::`RTTI Base Class Array'
rdata$r	ENDS
;	COMDAT ??_R3IAtlMemMgr@ATL@@8
rdata$r	SEGMENT
??_R3IAtlMemMgr@ATL@@8 DD 00H				; ATL::IAtlMemMgr::`RTTI Class Hierarchy Descriptor'
	DD	00H
	DD	01H
	DD	FLAT:??_R2IAtlMemMgr@ATL@@8
rdata$r	ENDS
;	COMDAT ??_R0?AUIAtlMemMgr@ATL@@@8
data$rs	SEGMENT
??_R0?AUIAtlMemMgr@ATL@@@8 DD FLAT:??_7type_info@@6B@	; ATL::IAtlMemMgr `RTTI Type Descriptor'
	DD	00H
	DB	'.?AUIAtlMemMgr@ATL@@', 00H
data$rs	ENDS
;	COMDAT ??_R1A@?0A@EA@IAtlMemMgr@ATL@@8
rdata$r	SEGMENT
??_R1A@?0A@EA@IAtlMemMgr@ATL@@8 DD FLAT:??_R0?AUIAtlMemMgr@ATL@@@8 ; ATL::IAtlMemMgr::`RTTI Base Class Descriptor at (0,-1,0,64)'
	DD	00H
	DD	00H
	DD	0ffffffffH
	DD	00H
	DD	040H
	DD	FLAT:??_R3IAtlMemMgr@ATL@@8
rdata$r	ENDS
;	COMDAT ??_R1A@?0A@EA@CWin32Heap@ATL@@8
rdata$r	SEGMENT
??_R1A@?0A@EA@CWin32Heap@ATL@@8 DD FLAT:??_R0?AVCWin32Heap@ATL@@@8 ; ATL::CWin32Heap::`RTTI Base Class Descriptor at (0,-1,0,64)'
	DD	01H
	DD	00H
	DD	0ffffffffH
	DD	00H
	DD	040H
	DD	FLAT:??_R3CWin32Heap@ATL@@8
rdata$r	ENDS
;	COMDAT ??_R2CWin32Heap@ATL@@8
rdata$r	SEGMENT
??_R2CWin32Heap@ATL@@8 DD FLAT:??_R1A@?0A@EA@CWin32Heap@ATL@@8 ; ATL::CWin32Heap::`RTTI Base Class Array'
	DD	FLAT:??_R1A@?0A@EA@IAtlMemMgr@ATL@@8
rdata$r	ENDS
;	COMDAT ??_R3CWin32Heap@ATL@@8
rdata$r	SEGMENT
??_R3CWin32Heap@ATL@@8 DD 00H				; ATL::CWin32Heap::`RTTI Class Hierarchy Descriptor'
	DD	00H
	DD	02H
	DD	FLAT:??_R2CWin32Heap@ATL@@8
rdata$r	ENDS
;	COMDAT ??_R0?AVCWin32Heap@ATL@@@8
data$rs	SEGMENT
??_R0?AVCWin32Heap@ATL@@@8 DD FLAT:??_7type_info@@6B@	; ATL::CWin32Heap `RTTI Type Descriptor'
	DD	00H
	DB	'.?AVCWin32Heap@ATL@@', 00H
data$rs	ENDS
;	COMDAT ??_R4CWin32Heap@ATL@@6B@
rdata$r	SEGMENT
??_R4CWin32Heap@ATL@@6B@ DD 00H				; ATL::CWin32Heap::`RTTI Complete Object Locator'
	DD	00H
	DD	00H
	DD	FLAT:??_R0?AVCWin32Heap@ATL@@@8
	DD	FLAT:??_R3CWin32Heap@ATL@@8
rdata$r	ENDS
;	COMDAT _IID_IAxWinHostWindow
CONST	SEGMENT
_IID_IAxWinHostWindow DD 0b6ea2050H
	DW	048aH
	DW	011d1H
	DB	082H
	DB	0b9H
	DB	00H
	DB	0c0H
	DB	04fH
	DB	0b9H
	DB	094H
	DB	02eH
CONST	ENDS
;	COMDAT _IID_IDocHostUIHandlerDispatch
CONST	SEGMENT
_IID_IDocHostUIHandlerDispatch DD 0425b5af0H
	DW	065f1H
	DW	011d1H
	DB	096H
	DB	011H
	DB	00H
	DB	00H
	DB	0f8H
	DB	01eH
	DB	0dH
	DB	0dH
CONST	ENDS
;	COMDAT _IID_IRegistrar
CONST	SEGMENT
_IID_IRegistrar DD 044ec053bH
	DW	0400fH
	DW	011d0H
	DB	09dH
	DB	0cdH
	DB	00H
	DB	0a0H
	DB	0c9H
	DB	03H
	DB	091H
	DB	0d3H
CONST	ENDS
;	COMDAT _CLSID_Registrar
CONST	SEGMENT
_CLSID_Registrar DD 044ec053aH
	DW	0400fH
	DW	011d0H
	DB	09dH
	DB	0cdH
	DB	00H
	DB	0a0H
	DB	0c9H
	DB	03H
	DB	091H
	DB	0d3H
CONST	ENDS
;	COMDAT __pIncludeInitManaged
_DATA	SEGMENT
__pIncludeInitManaged DD FLAT:?_AfxInitManaged@@YAHXZ
_DATA	ENDS
;	COMDAT ??_C@_1M@BBGHNHJP@?$AAz?$AAu?$AA?9?$AAz?$AAa@
CONST	SEGMENT
??_C@_1M@BBGHNHJP@?$AAz?$AAu?$AA?9?$AAz?$AAa@ DB 'z', 00H, 'u', 00H, '-', 00H
	DB	'z', 00H, 'a', 00H, 00H, 00H			; `string'
CONST	ENDS
;	COMDAT ??_C@_1M@IMEPLEPE@?$AAz?$AAh?$AA?9?$AAt?$AAw@
CONST	SEGMENT
??_C@_1M@IMEPLEPE@?$AAz?$AAh?$AA?9?$AAt?$AAw@ DB 'z', 00H, 'h', 00H, '-', 00H
	DB	't', 00H, 'w', 00H, 00H, 00H			; `string'
CONST	ENDS
;	COMDAT ??_C@_1M@MBFDNDND@?$AAz?$AAh?$AA?9?$AAs?$AAg@
CONST	SEGMENT
??_C@_1M@MBFDNDND@?$AAz?$AAh?$AA?9?$AAs?$AAg@ DB 'z', 00H, 'h', 00H, '-', 00H
	DB	's', 00H, 'g', 00H, 00H, 00H			; `string'
CONST	ENDS
;	COMDAT ??_C@_1M@DNDLJINH@?$AAz?$AAh?$AA?9?$AAm?$AAo@
CONST	SEGMENT
??_C@_1M@DNDLJINH@?$AAz?$AAh?$AA?9?$AAm?$AAo@ DB 'z', 00H, 'h', 00H, '-', 00H
	DB	'm', 00H, 'o', 00H, 00H, 00H			; `string'
CONST	ENDS
;	COMDAT ??_C@_1M@OCJEJODD@?$AAz?$AAh?$AA?9?$AAh?$AAk@
CONST	SEGMENT
??_C@_1M@OCJEJODD@?$AAz?$AAh?$AA?9?$AAh?$AAk@ DB 'z', 00H, 'h', 00H, '-', 00H
	DB	'h', 00H, 'k', 00H, 00H, 00H			; `string'
CONST	ENDS
;	COMDAT ??_C@_1M@LPINJOMC@?$AAz?$AAh?$AA?9?$AAc?$AAn@
CONST	SEGMENT
??_C@_1M@LPINJOMC@?$AAz?$AAh?$AA?9?$AAc?$AAn@ DB 'z', 00H, 'h', 00H, '-', 00H
	DB	'c', 00H, 'n', 00H, 00H, 00H			; `string'
CONST	ENDS
;	COMDAT ??_C@_1O@NMHPGANE@?$AAz?$AAh?$AA?9?$AAc?$AAh?$AAt@
CONST	SEGMENT
??_C@_1O@NMHPGANE@?$AAz?$AAh?$AA?9?$AAc?$AAh?$AAt@ DB 'z', 00H, 'h', 00H, '-'
	DB	00H, 'c', 00H, 'h', 00H, 't', 00H, 00H, 00H	; `string'
CONST	ENDS
;	COMDAT ??_C@_1O@EBKIFIGN@?$AAz?$AAh?$AA?9?$AAc?$AAh?$AAs@
CONST	SEGMENT
??_C@_1O@EBKIFIGN@?$AAz?$AAh?$AA?9?$AAc?$AAh?$AAs@ DB 'z', 00H, 'h', 00H, '-'
	DB	00H, 'c', 00H, 'h', 00H, 's', 00H, 00H, 00H	; `string'
CONST	ENDS
;	COMDAT ??_C@_1M@CPAMEDFI@?$AAx?$AAh?$AA?9?$AAz?$AAa@
CONST	SEGMENT
??_C@_1M@CPAMEDFI@?$AAx?$AAh?$AA?9?$AAz?$AAa@ DB 'x', 00H, 'h', 00H, '-', 00H
	DB	'z', 00H, 'a', 00H, 00H, 00H			; `string'
CONST	ENDS
;	COMDAT ??_C@_1M@GFOCLFF@?$AAv?$AAi?$AA?9?$AAv?$AAn@
CONST	SEGMENT
??_C@_1M@GFOCLFF@?$AAv?$AAi?$AA?9?$AAv?$AAn@ DB 'v', 00H, 'i', 00H, '-', 00H
	DB	'v', 00H, 'n', 00H, 00H, 00H			; `string'
CONST	ENDS
;	COMDAT ??_C@_1BG@EGGKJILM@?$AAu?$AAz?$AA?9?$AAu?$AAz?$AA?9?$AAl?$AAa?$AAt?$AAn@
CONST	SEGMENT
??_C@_1BG@EGGKJILM@?$AAu?$AAz?$AA?9?$AAu?$AAz?$AA?9?$AAl?$AAa?$AAt?$AAn@ DB 'u'
	DB	00H, 'z', 00H, '-', 00H, 'u', 00H, 'z', 00H, '-', 00H, 'l', 00H
	DB	'a', 00H, 't', 00H, 'n', 00H, 00H, 00H	; `string'
CONST	ENDS
;	COMDAT ??_C@_1BG@GEGPMCDJ@?$AAu?$AAz?$AA?9?$AAu?$AAz?$AA?9?$AAc?$AAy?$AAr?$AAl@
CONST	SEGMENT
??_C@_1BG@GEGPMCDJ@?$AAu?$AAz?$AA?9?$AAu?$AAz?$AA?9?$AAc?$AAy?$AAr?$AAl@ DB 'u'
	DB	00H, 'z', 00H, '-', 00H, 'u', 00H, 'z', 00H, '-', 00H, 'c', 00H
	DB	'y', 00H, 'r', 00H, 'l', 00H, 00H, 00H	; `string'
CONST	ENDS
;	COMDAT ??_C@_1M@EPAJJAJF@?$AAu?$AAr?$AA?9?$AAp?$AAk@
CONST	SEGMENT
??_C@_1M@EPAJJAJF@?$AAu?$AAr?$AA?9?$AAp?$AAk@ DB 'u', 00H, 'r', 00H, '-', 00H
	DB	'p', 00H, 'k', 00H, 00H, 00H			; `string'
CONST	ENDS
;	COMDAT ??_C@_1M@KLMCELGA@?$AAu?$AAk?$AA?9?$AAu?$AAa@
CONST	SEGMENT
??_C@_1M@KLMCELGA@?$AAu?$AAk?$AA?9?$AAu?$AAa@ DB 'u', 00H, 'k', 00H, '-', 00H
	DB	'u', 00H, 'a', 00H, 00H, 00H			; `string'
CONST	ENDS
;	COMDAT ??_C@_1M@CELMCNBK@?$AAt?$AAt?$AA?9?$AAr?$AAu@
CONST	SEGMENT
??_C@_1M@CELMCNBK@?$AAt?$AAt?$AA?9?$AAr?$AAu@ DB 't', 00H, 't', 00H, '-', 00H
	DB	'r', 00H, 'u', 00H, 00H, 00H			; `string'
CONST	ENDS
;	COMDAT ??_C@_1M@GCCMIGPJ@?$AAt?$AAr?$AA?9?$AAt?$AAr@
CONST	SEGMENT
??_C@_1M@GCCMIGPJ@?$AAt?$AAr?$AA?9?$AAt?$AAr@ DB 't', 00H, 'r', 00H, '-', 00H
	DB	't', 00H, 'r', 00H, 00H, 00H			; `string'
CONST	ENDS
;	COMDAT ??_C@_1M@CHBIHOJO@?$AAt?$AAn?$AA?9?$AAz?$AAa@
CONST	SEGMENT
??_C@_1M@CHBIHOJO@?$AAt?$AAn?$AA?9?$AAz?$AAa@ DB 't', 00H, 'n', 00H, '-', 00H
	DB	'z', 00H, 'a', 00H, 00H, 00H			; `string'
CONST	ENDS
;	COMDAT ??_C@_1M@GNAECACD@?$AAt?$AAh?$AA?9?$AAt?$AAh@
CONST	SEGMENT
??_C@_1M@GNAECACD@?$AAt?$AAh?$AA?9?$AAt?$AAh@ DB 't', 00H, 'h', 00H, '-', 00H
	DB	't', 00H, 'h', 00H, 00H, 00H			; `string'
CONST	ENDS
;	COMDAT ??_C@_1M@CNJOFAK@?$AAt?$AAe?$AA?9?$AAi?$AAn@
CONST	SEGMENT
??_C@_1M@CNJOFAK@?$AAt?$AAe?$AA?9?$AAi?$AAn@ DB 't', 00H, 'e', 00H, '-', 00H
	DB	'i', 00H, 'n', 00H, 00H, 00H			; `string'
CONST	ENDS
;	COMDAT ??_C@_1M@LDCEFHA@?$AAt?$AAa?$AA?9?$AAi?$AAn@
CONST	SEGMENT
??_C@_1M@LDCEFHA@?$AAt?$AAa?$AA?9?$AAi?$AAn@ DB 't', 00H, 'a', 00H, '-', 00H
	DB	'i', 00H, 'n', 00H, 00H, 00H			; `string'
CONST	ENDS
;	COMDAT ??_C@_1O@KOHBJJI@?$AAs?$AAy?$AAr?$AA?9?$AAs?$AAy@
CONST	SEGMENT
??_C@_1O@KOHBJJI@?$AAs?$AAy?$AAr?$AA?9?$AAs?$AAy@ DB 's', 00H, 'y', 00H, 'r'
	DB	00H, '-', 00H, 's', 00H, 'y', 00H, 00H, 00H	; `string'
CONST	ENDS
;	COMDAT ??_C@_1M@MPNDHLFK@?$AAs?$AAw?$AA?9?$AAk?$AAe@
CONST	SEGMENT
??_C@_1M@MPNDHLFK@?$AAs?$AAw?$AA?9?$AAk?$AAe@ DB 's', 00H, 'w', 00H, '-', 00H
	DB	'k', 00H, 'e', 00H, 00H, 00H			; `string'
CONST	ENDS
;	COMDAT ??_C@_1M@MPJEJAJC@?$AAs?$AAv?$AA?9?$AAs?$AAe@
CONST	SEGMENT
??_C@_1M@MPJEJAJC@?$AAs?$AAv?$AA?9?$AAs?$AAe@ DB 's', 00H, 'v', 00H, '-', 00H
	DB	's', 00H, 'e', 00H, 00H, 00H			; `string'
CONST	ENDS
;	COMDAT ??_C@_1M@NGFJLMAC@?$AAs?$AAv?$AA?9?$AAf?$AAi@
CONST	SEGMENT
??_C@_1M@NGFJLMAC@?$AAs?$AAv?$AA?9?$AAf?$AAi@ DB 's', 00H, 'v', 00H, '-', 00H
	DB	'f', 00H, 'i', 00H, 00H, 00H			; `string'
CONST	ENDS
;	COMDAT ??_C@_1BG@CIOGKHPB@?$AAs?$AAr?$AA?9?$AAs?$AAp?$AA?9?$AAl?$AAa?$AAt?$AAn@
CONST	SEGMENT
??_C@_1BG@CIOGKHPB@?$AAs?$AAr?$AA?9?$AAs?$AAp?$AA?9?$AAl?$AAa?$AAt?$AAn@ DB 's'
	DB	00H, 'r', 00H, '-', 00H, 's', 00H, 'p', 00H, '-', 00H, 'l', 00H
	DB	'a', 00H, 't', 00H, 'n', 00H, 00H, 00H	; `string'
CONST	ENDS
;	COMDAT ??_C@_1BG@KODPNHE@?$AAs?$AAr?$AA?9?$AAs?$AAp?$AA?9?$AAc?$AAy?$AAr?$AAl@
CONST	SEGMENT
??_C@_1BG@KODPNHE@?$AAs?$AAr?$AA?9?$AAs?$AAp?$AA?9?$AAc?$AAy?$AAr?$AAl@ DB 's'
	DB	00H, 'r', 00H, '-', 00H, 's', 00H, 'p', 00H, '-', 00H, 'c', 00H
	DB	'y', 00H, 'r', 00H, 'l', 00H, 00H, 00H	; `string'
CONST	ENDS
;	COMDAT ??_C@_1BG@JLBENFOE@?$AAs?$AAr?$AA?9?$AAb?$AAa?$AA?9?$AAl?$AAa?$AAt?$AAn@
CONST	SEGMENT
??_C@_1BG@JLBENFOE@?$AAs?$AAr?$AA?9?$AAb?$AAa?$AA?9?$AAl?$AAa?$AAt?$AAn@ DB 's'
	DB	00H, 'r', 00H, '-', 00H, 'b', 00H, 'a', 00H, '-', 00H, 'l', 00H
	DB	'a', 00H, 't', 00H, 'n', 00H, 00H, 00H	; `string'
CONST	ENDS
;	COMDAT ??_C@_1BG@LJBBIPGB@?$AAs?$AAr?$AA?9?$AAb?$AAa?$AA?9?$AAc?$AAy?$AAr?$AAl@
CONST	SEGMENT
??_C@_1BG@LJBBIPGB@?$AAs?$AAr?$AA?9?$AAb?$AAa?$AA?9?$AAc?$AAy?$AAr?$AAl@ DB 's'
	DB	00H, 'r', 00H, '-', 00H, 'b', 00H, 'a', 00H, '-', 00H, 'c', 00H
	DB	'y', 00H, 'r', 00H, 'l', 00H, 00H, 00H	; `string'
CONST	ENDS
;	COMDAT ??_C@_1M@BOFOGHPB@?$AAs?$AAq?$AA?9?$AAa?$AAl@
CONST	SEGMENT
??_C@_1M@BOFOGHPB@?$AAs?$AAq?$AA?9?$AAa?$AAl@ DB 's', 00H, 'q', 00H, '-', 00H
	DB	'a', 00H, 'l', 00H, 00H, 00H			; `string'
CONST	ENDS
;	COMDAT ??_C@_1O@OJDJGAJC@?$AAs?$AAm?$AAs?$AA?9?$AAf?$AAi@
CONST	SEGMENT
??_C@_1O@OJDJGAJC@?$AAs?$AAm?$AAs?$AA?9?$AAf?$AAi@ DB 's', 00H, 'm', 00H, 's'
	DB	00H, '-', 00H, 'f', 00H, 'i', 00H, 00H, 00H	; `string'
CONST	ENDS
;	COMDAT ??_C@_1O@DLGJGKMK@?$AAs?$AAm?$AAn?$AA?9?$AAf?$AAi@
CONST	SEGMENT
??_C@_1O@DLGJGKMK@?$AAs?$AAm?$AAn?$AA?9?$AAf?$AAi@ DB 's', 00H, 'm', 00H, 'n'
	DB	00H, '-', 00H, 'f', 00H, 'i', 00H, 00H, 00H	; `string'
CONST	ENDS
;	COMDAT ??_C@_1O@CLEPOGCA@?$AAs?$AAm?$AAj?$AA?9?$AAs?$AAe@
CONST	SEGMENT
??_C@_1O@CLEPOGCA@?$AAs?$AAm?$AAj?$AA?9?$AAs?$AAe@ DB 's', 00H, 'm', 00H, 'j'
	DB	00H, '-', 00H, 's', 00H, 'e', 00H, 00H, 00H	; `string'
CONST	ENDS
;	COMDAT ??_C@_1O@PLLKBHAB@?$AAs?$AAm?$AAj?$AA?9?$AAn?$AAo@
CONST	SEGMENT
??_C@_1O@PLLKBHAB@?$AAs?$AAm?$AAj?$AA?9?$AAn?$AAo@ DB 's', 00H, 'm', 00H, 'j'
	DB	00H, '-', 00H, 'n', 00H, 'o', 00H, 00H, 00H	; `string'
CONST	ENDS
;	COMDAT ??_C@_1O@NDKPBNNH@?$AAs?$AAm?$AAa?$AA?9?$AAs?$AAe@
CONST	SEGMENT
??_C@_1O@NDKPBNNH@?$AAs?$AAm?$AAa?$AA?9?$AAs?$AAe@ DB 's', 00H, 'm', 00H, 'a'
	DB	00H, '-', 00H, 's', 00H, 'e', 00H, 00H, 00H	; `string'
CONST	ENDS
;	COMDAT ??_C@_1O@DFKOMPG@?$AAs?$AAm?$AAa?$AA?9?$AAn?$AAo@
CONST	SEGMENT
??_C@_1O@DFKOMPG@?$AAs?$AAm?$AAa?$AA?9?$AAn?$AAo@ DB 's', 00H, 'm', 00H, 'a'
	DB	00H, '-', 00H, 'n', 00H, 'o', 00H, 00H, 00H	; `string'
CONST	ENDS
;	COMDAT ??_C@_1M@LFMODOAL@?$AAs?$AAl?$AA?9?$AAs?$AAi@
CONST	SEGMENT
??_C@_1M@LFMODOAL@?$AAs?$AAl?$AA?9?$AAs?$AAi@ DB 's', 00H, 'l', 00H, '-', 00H
	DB	's', 00H, 'i', 00H, 00H, 00H			; `string'
CONST	ENDS
;	COMDAT ??_C@_1M@PNBLONPJ@?$AAs?$AAk?$AA?9?$AAs?$AAk@
CONST	SEGMENT
??_C@_1M@PNBLONPJ@?$AAs?$AAk?$AA?9?$AAs?$AAk@ DB 's', 00H, 'k', 00H, '-', 00H
	DB	's', 00H, 'k', 00H, 00H, 00H			; `string'
CONST	ENDS
;	COMDAT ??_C@_1M@DANKKHJ@?$AAs?$AAe?$AA?9?$AAs?$AAe@
CONST	SEGMENT
??_C@_1M@DANKKHJ@?$AAs?$AAe?$AA?9?$AAs?$AAe@ DB 's', 00H, 'e', 00H, '-', 00H
	DB	's', 00H, 'e', 00H, 00H, 00H			; `string'
CONST	ENDS
;	COMDAT ??_C@_1M@NDPIFLFI@?$AAs?$AAe?$AA?9?$AAn?$AAo@
CONST	SEGMENT
??_C@_1M@NDPIFLFI@?$AAs?$AAe?$AA?9?$AAn?$AAo@ DB 's', 00H, 'e', 00H, '-', 00H
	DB	'n', 00H, 'o', 00H, 00H, 00H			; `string'
CONST	ENDS
;	COMDAT ??_C@_1M@BKMAIGOJ@?$AAs?$AAe?$AA?9?$AAf?$AAi@
CONST	SEGMENT
??_C@_1M@BKMAIGOJ@?$AAs?$AAe?$AA?9?$AAf?$AAi@ DB 's', 00H, 'e', 00H, '-', 00H
	DB	'f', 00H, 'i', 00H, 00H, 00H			; `string'
CONST	ENDS
;	COMDAT ??_C@_1M@HPKKKMPP@?$AAs?$AAa?$AA?9?$AAi?$AAn@
CONST	SEGMENT
??_C@_1M@HPKKKMPP@?$AAs?$AAa?$AA?9?$AAi?$AAn@ DB 's', 00H, 'a', 00H, '-', 00H
	DB	'i', 00H, 'n', 00H, 00H, 00H			; `string'
CONST	ENDS
;	COMDAT ??_C@_1M@CEEDODME@?$AAr?$AAu?$AA?9?$AAr?$AAu@
CONST	SEGMENT
??_C@_1M@CEEDODME@?$AAr?$AAu?$AA?9?$AAr?$AAu@ DB 'r', 00H, 'u', 00H, '-', 00H
	DB	'r', 00H, 'u', 00H, 00H, 00H			; `string'
CONST	ENDS
;	COMDAT ??_C@_1M@CLGLEFBO@?$AAr?$AAo?$AA?9?$AAr?$AAo@
CONST	SEGMENT
??_C@_1M@CLGLEFBO@?$AAr?$AAo?$AA?9?$AAr?$AAo@ DB 'r', 00H, 'o', 00H, '-', 00H
	DB	'r', 00H, 'o', 00H, 00H, 00H			; `string'
CONST	ENDS
;	COMDAT ??_C@_1O@GBAPEKMJ@?$AAq?$AAu?$AAz?$AA?9?$AAp?$AAe@
CONST	SEGMENT
??_C@_1O@GBAPEKMJ@?$AAq?$AAu?$AAz?$AA?9?$AAp?$AAe@ DB 'q', 00H, 'u', 00H, 'z'
	DB	00H, '-', 00H, 'p', 00H, 'e', 00H, 00H, 00H	; `string'
CONST	ENDS
;	COMDAT ??_C@_1O@BHHPIGDN@?$AAq?$AAu?$AAz?$AA?9?$AAe?$AAc@
CONST	SEGMENT
??_C@_1O@BHHPIGDN@?$AAq?$AAu?$AAz?$AA?9?$AAe?$AAc@ DB 'q', 00H, 'u', 00H, 'z'
	DB	00H, '-', 00H, 'e', 00H, 'c', 00H, 00H, 00H	; `string'
CONST	ENDS
;	COMDAT ??_C@_1O@EAKMAJDN@?$AAq?$AAu?$AAz?$AA?9?$AAb?$AAo@
CONST	SEGMENT
??_C@_1O@EAKMAJDN@?$AAq?$AAu?$AAz?$AA?9?$AAb?$AAo@ DB 'q', 00H, 'u', 00H, 'z'
	DB	00H, '-', 00H, 'b', 00H, 'o', 00H, 00H, 00H	; `string'
CONST	ENDS
;	COMDAT ??_C@_1M@NCMONAAL@?$AAp?$AAt?$AA?9?$AAp?$AAt@
CONST	SEGMENT
??_C@_1M@NCMONAAL@?$AAp?$AAt?$AA?9?$AAp?$AAt@ DB 'p', 00H, 't', 00H, '-', 00H
	DB	'p', 00H, 't', 00H, 00H, 00H			; `string'
CONST	ENDS
;	COMDAT ??_C@_1M@LJLLCMEH@?$AAp?$AAt?$AA?9?$AAb?$AAr@
CONST	SEGMENT
??_C@_1M@LJLLCMEH@?$AAp?$AAt?$AA?9?$AAb?$AAr@ DB 'p', 00H, 't', 00H, '-', 00H
	DB	'b', 00H, 'r', 00H, 00H, 00H			; `string'
CONST	ENDS
;	COMDAT ??_C@_1M@HDBKGOGH@?$AAp?$AAl?$AA?9?$AAp?$AAl@
CONST	SEGMENT
??_C@_1M@HDBKGOGH@?$AAp?$AAl?$AA?9?$AAp?$AAl@ DB 'p', 00H, 'l', 00H, '-', 00H
	DB	'p', 00H, 'l', 00H, 00H, 00H			; `string'
CONST	ENDS
;	COMDAT ??_C@_1M@IDEHOAP@?$AAp?$AAa?$AA?9?$AAi?$AAn@
CONST	SEGMENT
??_C@_1M@IDEHOAP@?$AAp?$AAa?$AA?9?$AAi?$AAn@ DB 'p', 00H, 'a', 00H, '-', 00H
	DB	'i', 00H, 'n', 00H, 00H, 00H			; `string'
CONST	ENDS
;	COMDAT ??_C@_1M@BDGHHBFL@?$AAn?$AAs?$AA?9?$AAz?$AAa@
CONST	SEGMENT
??_C@_1M@BDGHHBFL@?$AAn?$AAs?$AA?9?$AAz?$AAa@ DB 'n', 00H, 's', 00H, '-', 00H
	DB	'z', 00H, 'a', 00H, 00H, 00H			; `string'
CONST	ENDS
;	COMDAT ??_C@_1M@LJKPEMLN@?$AAn?$AAn?$AA?9?$AAn?$AAo@
CONST	SEGMENT
??_C@_1M@LJKPEMLN@?$AAn?$AAn?$AA?9?$AAn?$AAo@ DB 'n', 00H, 'n', 00H, '-', 00H
	DB	'n', 00H, 'o', 00H, 00H, 00H			; `string'
CONST	ENDS
;	COMDAT ??_C@_1M@KPOPDDGO@?$AAn?$AAl?$AA?9?$AAn?$AAl@
CONST	SEGMENT
??_C@_1M@KPOPDDGO@?$AAn?$AAl?$AA?9?$AAn?$AAl@ DB 'n', 00H, 'l', 00H, '-', 00H
	DB	'n', 00H, 'l', 00H, 00H, 00H			; `string'
CONST	ENDS
;	COMDAT ??_C@_1M@KFCFLMJP@?$AAn?$AAl?$AA?9?$AAb?$AAe@
CONST	SEGMENT
??_C@_1M@KFCFLMJP@?$AAn?$AAl?$AA?9?$AAb?$AAe@ DB 'n', 00H, 'l', 00H, '-', 00H
	DB	'b', 00H, 'e', 00H, 00H, 00H			; `string'
CONST	ENDS
;	COMDAT ??_C@_1M@KDJDKMDD@?$AAn?$AAb?$AA?9?$AAn?$AAo@
CONST	SEGMENT
??_C@_1M@KDJDKMDD@?$AAn?$AAb?$AA?9?$AAn?$AAo@ DB 'n', 00H, 'b', 00H, '-', 00H
	DB	'n', 00H, 'o', 00H, 00H, 00H			; `string'
CONST	ENDS
;	COMDAT ??_C@_1M@PPDBCNFM@?$AAm?$AAt?$AA?9?$AAm?$AAt@
CONST	SEGMENT
??_C@_1M@PPDBCNFM@?$AAm?$AAt?$AA?9?$AAm?$AAt@ DB 'm', 00H, 't', 00H, '-', 00H
	DB	'm', 00H, 't', 00H, 00H, 00H			; `string'
CONST	ENDS
;	COMDAT ??_C@_1M@OPIHOOPI@?$AAm?$AAs?$AA?9?$AAm?$AAy@
CONST	SEGMENT
??_C@_1M@OPIHOOPI@?$AAm?$AAs?$AA?9?$AAm?$AAy@ DB 'm', 00H, 's', 00H, '-', 00H
	DB	'm', 00H, 'y', 00H, 00H, 00H			; `string'
CONST	ENDS
;	COMDAT ??_C@_1M@NDBPDDAL@?$AAm?$AAs?$AA?9?$AAb?$AAn@
CONST	SEGMENT
??_C@_1M@NDBPDDAL@?$AAm?$AAs?$AA?9?$AAb?$AAn@ DB 'm', 00H, 's', 00H, '-', 00H
	DB	'b', 00H, 'n', 00H, 00H, 00H			; `string'
CONST	ENDS
;	COMDAT ??_C@_1M@FGBKKIPG@?$AAm?$AAr?$AA?9?$AAi?$AAn@
CONST	SEGMENT
??_C@_1M@FGBKKIPG@?$AAm?$AAr?$AA?9?$AAi?$AAn@ DB 'm', 00H, 'r', 00H, '-', 00H
	DB	'i', 00H, 'n', 00H, 00H, 00H			; `string'
CONST	ENDS
;	COMDAT ??_C@_1M@PABJILIG@?$AAm?$AAn?$AA?9?$AAm?$AAn@
CONST	SEGMENT
??_C@_1M@PABJILIG@?$AAm?$AAn?$AA?9?$AAm?$AAn@ DB 'm', 00H, 'n', 00H, '-', 00H
	DB	'm', 00H, 'n', 00H, 00H, 00H			; `string'
CONST	ENDS
;	COMDAT ??_C@_1M@GPHNBJKN@?$AAm?$AAl?$AA?9?$AAi?$AAn@
CONST	SEGMENT
??_C@_1M@GPHNBJKN@?$AAm?$AAl?$AA?9?$AAi?$AAn@ DB 'm', 00H, 'l', 00H, '-', 00H
	DB	'i', 00H, 'n', 00H, 00H, 00H			; `string'
CONST	ENDS
;	COMDAT ??_C@_1M@CBOOLAPA@?$AAm?$AAk?$AA?9?$AAm?$AAk@
CONST	SEGMENT
??_C@_1M@CBOOLAPA@?$AAm?$AAk?$AA?9?$AAm?$AAk@ DB 'm', 00H, 'k', 00H, '-', 00H
	DB	'm', 00H, 'k', 00H, 00H, 00H			; `string'
CONST	ENDS
;	COMDAT ??_C@_1M@ELCKCCJJ@?$AAm?$AAi?$AA?9?$AAn?$AAz@
CONST	SEGMENT
??_C@_1M@ELCKCCJJ@?$AAm?$AAi?$AA?9?$AAn?$AAz@ DB 'm', 00H, 'i', 00H, '-', 00H
	DB	'n', 00H, 'z', 00H, 00H, 00H			; `string'
CONST	ENDS
;	COMDAT ??_C@_1M@BDEKKCA@?$AAl?$AAv?$AA?9?$AAl?$AAv@
CONST	SEGMENT
??_C@_1M@BDEKKCA@?$AAl?$AAv?$AA?9?$AAl?$AAv@ DB 'l', 00H, 'v', 00H, '-', 00H
	DB	'l', 00H, 'v', 00H, 00H, 00H			; `string'
CONST	ENDS
;	COMDAT ??_C@_1M@KPMILCJG@?$AAl?$AAt?$AA?9?$AAl?$AAt@
CONST	SEGMENT
??_C@_1M@KPMILCJG@?$AAl?$AAt?$AA?9?$AAl?$AAt@ DB 'l', 00H, 't', 00H, '-', 00H
	DB	'l', 00H, 't', 00H, 00H, 00H			; `string'
CONST	ENDS
;	COMDAT ??_C@_1M@HBAHBIGA@?$AAk?$AAy?$AA?9?$AAk?$AAg@
CONST	SEGMENT
??_C@_1M@HBAHBIGA@?$AAk?$AAy?$AA?9?$AAk?$AAg@ DB 'k', 00H, 'y', 00H, '-', 00H
	DB	'k', 00H, 'g', 00H, 00H, 00H			; `string'
CONST	ENDS
;	COMDAT ??_C@_1M@DMHAEOGC@?$AAk?$AAo?$AA?9?$AAk?$AAr@
CONST	SEGMENT
??_C@_1M@DMHAEOGC@?$AAk?$AAo?$AA?9?$AAk?$AAr@ DB 'k', 00H, 'o', 00H, '-', 00H
	DB	'k', 00H, 'r', 00H, 00H, 00H			; `string'
CONST	ENDS
;	COMDAT ??_C@_06JBKGCNBB@Delete@
CONST	SEGMENT
??_C@_06JBKGCNBB@Delete@ DB 'Delete', 00H		; `string'
CONST	ENDS
;	COMDAT ??_C@_1O@IBBJHCH@?$AAk?$AAo?$AAk?$AA?9?$AAi?$AAn@
CONST	SEGMENT
??_C@_1O@IBBJHCH@?$AAk?$AAo?$AAk?$AA?9?$AAi?$AAn@ DB 'k', 00H, 'o', 00H, 'k'
	DB	00H, '-', 00H, 'i', 00H, 'n', 00H, 00H, 00H	; `string'
CONST	ENDS
;	COMDAT ?szDelete@ATL@@3QBDB
CONST	SEGMENT
?szDelete@ATL@@3QBDB DD FLAT:??_C@_06JBKGCNBB@Delete@	; ATL::szDelete
CONST	ENDS
;	COMDAT ??_C@_1M@IELFGMHA@?$AAk?$AAn?$AA?9?$AAi?$AAn@
CONST	SEGMENT
??_C@_1M@IELFGMHA@?$AAk?$AAn?$AA?9?$AAi?$AAn@ DB 'k', 00H, 'n', 00H, '-', 00H
	DB	'i', 00H, 'n', 00H, 00H, 00H			; `string'
CONST	ENDS
;	COMDAT ??_C@_08KAAPDIAN@NoRemove@
CONST	SEGMENT
??_C@_08KAAPDIAN@NoRemove@ DB 'NoRemove', 00H		; `string'
CONST	ENDS
;	COMDAT ??_C@_1M@PACPMGPH@?$AAk?$AAk?$AA?9?$AAk?$AAz@
CONST	SEGMENT
??_C@_1M@PACPMGPH@?$AAk?$AAk?$AA?9?$AAk?$AAz@ DB 'k', 00H, 'k', 00H, '-', 00H
	DB	'k', 00H, 'z', 00H, 00H, 00H			; `string'
CONST	ENDS
;	COMDAT ?szNoRemove@ATL@@3QBDB
CONST	SEGMENT
?szNoRemove@ATL@@3QBDB DD FLAT:??_C@_08KAAPDIAN@NoRemove@ ; ATL::szNoRemove
CONST	ENDS
;	COMDAT ??_C@_1M@JILFNBIM@?$AAk?$AAa?$AA?9?$AAg?$AAe@
CONST	SEGMENT
??_C@_1M@JILFNBIM@?$AAk?$AAa?$AA?9?$AAg?$AAe@ DB 'k', 00H, 'a', 00H, '-', 00H
	DB	'g', 00H, 'e', 00H, 00H, 00H			; `string'
CONST	ENDS
;	COMDAT ??_C@_0M@DBGDLGLL@ForceRemove@
CONST	SEGMENT
??_C@_0M@DBGDLGLL@ForceRemove@ DB 'ForceRemove', 00H	; `string'
CONST	ENDS
;	COMDAT ??_C@_1M@NIEJCJJA@?$AAj?$AAa?$AA?9?$AAj?$AAp@
CONST	SEGMENT
??_C@_1M@NIEJCJJA@?$AAj?$AAa?$AA?9?$AAj?$AAp@ DB 'j', 00H, 'a', 00H, '-', 00H
	DB	'j', 00H, 'p', 00H, 00H, 00H			; `string'
CONST	ENDS
;	COMDAT ?szForceRemove@ATL@@3QBDB
CONST	SEGMENT
?szForceRemove@ATL@@3QBDB DD FLAT:??_C@_0M@DBGDLGLL@ForceRemove@ ; ATL::szForceRemove
CONST	ENDS
;	COMDAT ??_C@_1M@GHKGFEDF@?$AAi?$AAt?$AA?9?$AAi?$AAt@
CONST	SEGMENT
??_C@_1M@GHKGFEDF@?$AAi?$AAt?$AA?9?$AAi?$AAt@ DB 'i', 00H, 't', 00H, '-', 00H
	DB	'i', 00H, 't', 00H, 00H, 00H			; `string'
CONST	ENDS
;	COMDAT ??_C@_03LAIAPFCB@Val@
CONST	SEGMENT
??_C@_03LAIAPFCB@Val@ DB 'Val', 00H			; `string'
CONST	ENDS
;	COMDAT ??_C@_1M@NMPCJPHE@?$AAi?$AAt?$AA?9?$AAc?$AAh@
CONST	SEGMENT
??_C@_1M@NMPCJPHE@?$AAi?$AAt?$AA?9?$AAc?$AAh@ DB 'i', 00H, 't', 00H, '-', 00H
	DB	'c', 00H, 'h', 00H, 00H, 00H			; `string'
CONST	ENDS
;	COMDAT ?szValToken@ATL@@3QBDB
CONST	SEGMENT
?szValToken@ATL@@3QBDB DD FLAT:??_C@_03LAIAPFCB@Val@	; ATL::szValToken
CONST	ENDS
;	COMDAT ??_C@_1M@BIKNHHPF@?$AAi?$AAs?$AA?9?$AAi?$AAs@
CONST	SEGMENT
??_C@_1M@BIKNHHPF@?$AAi?$AAs?$AA?9?$AAi?$AAs@ DB 'i', 00H, 's', 00H, '-', 00H
	DB	'i', 00H, 's', 00H, 00H, 00H			; `string'
CONST	ENDS
;	COMDAT ??_C@_01HMGJMAIH@B@
CONST	SEGMENT
??_C@_01HMGJMAIH@B@ DB 'B', 00H				; `string'
CONST	ENDS
;	COMDAT ??_C@_1M@BABBICEC@?$AAi?$AAd?$AA?9?$AAi?$AAd@
CONST	SEGMENT
??_C@_1M@BABBICEC@?$AAi?$AAd?$AA?9?$AAi?$AAd@ DB 'i', 00H, 'd', 00H, '-', 00H
	DB	'i', 00H, 'd', 00H, 00H, 00H			; `string'
CONST	ENDS
;	COMDAT ?szBinaryVal@ATL@@3QBDB
CONST	SEGMENT
?szBinaryVal@ATL@@3QBDB DD FLAT:??_C@_01HMGJMAIH@B@	; ATL::szBinaryVal
CONST	ENDS
;	COMDAT ??_C@_1M@MILPAJJC@?$AAh?$AAy?$AA?9?$AAa?$AAm@
CONST	SEGMENT
??_C@_1M@MILPAJJC@?$AAh?$AAy?$AA?9?$AAa?$AAm@ DB 'h', 00H, 'y', 00H, '-', 00H
	DB	'a', 00H, 'm', 00H, 00H, 00H			; `string'
CONST	ENDS
;	COMDAT ??_C@_01CKDDGHAB@D@
CONST	SEGMENT
??_C@_01CKDDGHAB@D@ DB 'D', 00H				; `string'
CONST	ENDS
;	COMDAT ??_C@_1M@GACBMHKE@?$AAh?$AAu?$AA?9?$AAh?$AAu@
CONST	SEGMENT
??_C@_1M@GACBMHKE@?$AAh?$AAu?$AA?9?$AAh?$AAu@ DB 'h', 00H, 'u', 00H, '-', 00H
	DB	'h', 00H, 'u', 00H, 00H, 00H			; `string'
CONST	ENDS
;	COMDAT ?szDwordVal@ATL@@3QBDB
CONST	SEGMENT
?szDwordVal@ATL@@3QBDB DD FLAT:??_C@_01CKDDGHAB@D@	; ATL::szDwordVal
CONST	ENDS
;	COMDAT ??_C@_1M@BPCKOEGE@?$AAh?$AAr?$AA?9?$AAh?$AAr@
CONST	SEGMENT
??_C@_1M@BPCKOEGE@?$AAh?$AAr?$AA?9?$AAh?$AAr@ DB 'h', 00H, 'r', 00H, '-', 00H
	DB	'h', 00H, 'r', 00H, 00H, 00H			; `string'
CONST	ENDS
;	COMDAT ??_C@_01PLPBNMEI@M@
CONST	SEGMENT
??_C@_01PLPBNMEI@M@ DB 'M', 00H				; `string'
CONST	ENDS
;	COMDAT ??_C@_1M@PMBNDPHD@?$AAh?$AAr?$AA?9?$AAb?$AAa@
CONST	SEGMENT
??_C@_1M@PMBNDPHD@?$AAh?$AAr?$AA?9?$AAb?$AAa@ DB 'h', 00H, 'r', 00H, '-', 00H
	DB	'b', 00H, 'a', 00H, 00H, 00H			; `string'
CONST	ENDS
;	COMDAT ?multiszStringVal@ATL@@3QBDB
CONST	SEGMENT
?multiszStringVal@ATL@@3QBDB DD FLAT:??_C@_01PLPBNMEI@M@ ; ATL::multiszStringVal
CONST	ENDS
;	COMDAT ??_C@_1M@BBPHKFPJ@?$AAh?$AAi?$AA?9?$AAi?$AAn@
CONST	SEGMENT
??_C@_1M@BBPHKFPJ@?$AAh?$AAi?$AA?9?$AAi?$AAn@ DB 'h', 00H, 'i', 00H, '-', 00H
	DB	'i', 00H, 'n', 00H, 00H, 00H			; `string'
CONST	ENDS
;	COMDAT ??_C@_01CPLAODJH@S@
CONST	SEGMENT
??_C@_01CPLAODJH@S@ DB 'S', 00H				; `string'
CONST	ENDS
;	COMDAT ??_C@_1M@KBMCINPM@?$AAh?$AAe?$AA?9?$AAi?$AAl@
CONST	SEGMENT
??_C@_1M@KBMCINPM@?$AAh?$AAe?$AA?9?$AAi?$AAl@ DB 'h', 00H, 'e', 00H, '-', 00H
	DB	'i', 00H, 'l', 00H, 00H, 00H			; `string'
CONST	ENDS
;	COMDAT ?szStringVal@ATL@@3QBDB
CONST	SEGMENT
?szStringVal@ATL@@3QBDB DD FLAT:??_C@_01CPLAODJH@S@	; ATL::szStringVal
CONST	ENDS
;	COMDAT ??_C@_1M@FOPBFLOO@?$AAg?$AAu?$AA?9?$AAi?$AAn@
CONST	SEGMENT
??_C@_1M@FOPBFLOO@?$AAg?$AAu?$AA?9?$AAi?$AAn@ DB 'g', 00H, 'u', 00H, '-', 00H
	DB	'i', 00H, 'n', 00H, 00H, 00H			; `string'
CONST	ENDS
;	COMDAT ?chEquals@ATL@@3DB
CONST	SEGMENT
?chEquals@ATL@@3DB DB 03dH				; ATL::chEquals
CONST	ENDS
;	COMDAT ??_C@_1M@FAPLLOPF@?$AAg?$AAl?$AA?9?$AAe?$AAs@
CONST	SEGMENT
??_C@_1M@FAPLLOPF@?$AAg?$AAl?$AA?9?$AAe?$AAs@ DB 'g', 00H, 'l', 00H, '-', 00H
	DB	'e', 00H, 's', 00H, 00H, 00H			; `string'
CONST	ENDS
;	COMDAT ?chQuote@ATL@@3DB
CONST	SEGMENT
?chQuote@ATL@@3DB DB 027H				; ATL::chQuote
CONST	ENDS
;	COMDAT ??_C@_1M@EOHDJGDD@?$AAf?$AAr?$AA?9?$AAm?$AAc@
CONST	SEGMENT
??_C@_1M@EOHDJGDD@?$AAf?$AAr?$AA?9?$AAm?$AAc@ DB 'f', 00H, 'r', 00H, '-', 00H
	DB	'm', 00H, 'c', 00H, 00H, 00H			; `string'
CONST	ENDS
;	COMDAT ?chLeftBracket@ATL@@3DB
CONST	SEGMENT
?chLeftBracket@ATL@@3DB DB 07bH				; ATL::chLeftBracket
CONST	ENDS
;	COMDAT ??_C@_1M@PAFNENNF@?$AAf?$AAr?$AA?9?$AAl?$AAu@
CONST	SEGMENT
??_C@_1M@PAFNENNF@?$AAf?$AAr?$AA?9?$AAl?$AAu@ DB 'f', 00H, 'r', 00H, '-', 00H
	DB	'l', 00H, 'u', 00H, 00H, 00H			; `string'
CONST	ENDS
;	COMDAT ?chRightBracket@ATL@@3DB
CONST	SEGMENT
?chRightBracket@ATL@@3DB DB 07dH			; ATL::chRightBracket
CONST	ENDS
;	COMDAT ??_C@_1M@MMBBFGAK@?$AAf?$AAr?$AA?9?$AAf?$AAr@
CONST	SEGMENT
??_C@_1M@MMBBFGAK@?$AAf?$AAr?$AA?9?$AAf?$AAr@ DB 'f', 00H, 'r', 00H, '-', 00H
	DB	'f', 00H, 'r', 00H, 00H, 00H			; `string'
CONST	ENDS
;	COMDAT ?chDirSep@ATL@@3DB
CONST	SEGMENT
?chDirSep@ATL@@3DB DB 05cH				; ATL::chDirSep
CONST	ENDS
;	COMDAT ??_C@_1M@KDHIHAEC@?$AAf?$AAr?$AA?9?$AAc?$AAh@
CONST	SEGMENT
??_C@_1M@KDHIHAEC@?$AAf?$AAr?$AA?9?$AAc?$AAh@ DB 'f', 00H, 'r', 00H, '-', 00H
	DB	'c', 00H, 'h', 00H, 00H, 00H			; `string'
CONST	ENDS
;	COMDAT ??_C@_1M@NOHADPMI@?$AAf?$AAr?$AA?9?$AAc?$AAa@
CONST	SEGMENT
??_C@_1M@NOHADPMI@?$AAf?$AAr?$AA?9?$AAc?$AAa@ DB 'f', 00H, 'r', 00H, '-', 00H
	DB	'c', 00H, 'a', 00H, 00H, 00H			; `string'
CONST	ENDS
;	COMDAT ??_C@_1M@JKEOHLDK@?$AAf?$AAr?$AA?9?$AAb?$AAe@
CONST	SEGMENT
??_C@_1M@JKEOHLDK@?$AAf?$AAr?$AA?9?$AAb?$AAe@ DB 'f', 00H, 'r', 00H, '-', 00H
	DB	'b', 00H, 'e', 00H, 00H, 00H			; `string'
CONST	ENDS
;	COMDAT ??_C@_1M@LMDCNDBA@?$AAf?$AAo?$AA?9?$AAf?$AAo@
CONST	SEGMENT
??_C@_1M@LMDCNDBA@?$AAf?$AAo?$AA?9?$AAf?$AAo@ DB 'f', 00H, 'o', 00H, '-', 00H
	DB	'f', 00H, 'o', 00H, 00H, 00H			; `string'
CONST	ENDS
;	COMDAT ??_C@_1M@JEEHPMIL@?$AAf?$AAi?$AA?9?$AAf?$AAi@
CONST	SEGMENT
??_C@_1M@JEEHPMIL@?$AAf?$AAi?$AA?9?$AAf?$AAi@ DB 'f', 00H, 'i', 00H, '-', 00H
	DB	'f', 00H, 'i', 00H, 00H, 00H			; `string'
CONST	ENDS
;	COMDAT ??_C@_1M@PBNONODE@?$AAf?$AAa?$AA?9?$AAi?$AAr@
CONST	SEGMENT
??_C@_1M@PBNONODE@?$AAf?$AAa?$AA?9?$AAi?$AAr@ DB 'f', 00H, 'a', 00H, '-', 00H
	DB	'i', 00H, 'r', 00H, 00H, 00H			; `string'
CONST	ENDS
;	COMDAT ??_C@_1M@GHHLIKEI@?$AAe?$AAu?$AA?9?$AAe?$AAs@
CONST	SEGMENT
??_C@_1M@GHHLIKEI@?$AAe?$AAu?$AA?9?$AAe?$AAs@ DB 'e', 00H, 'u', 00H, '-', 00H
	DB	'e', 00H, 's', 00H, 00H, 00H			; `string'
CONST	ENDS
;	COMDAT ??_C@_1M@PNMLOJDF@?$AAe?$AAt?$AA?9?$AAe?$AAe@
CONST	SEGMENT
??_C@_1M@PNMLOJDF@?$AAe?$AAt?$AA?9?$AAe?$AAe@ DB 'e', 00H, 't', 00H, '-', 00H
	DB	'e', 00H, 'e', 00H, 00H, 00H			; `string'
CONST	ENDS
;	COMDAT ??_C@_1M@JKFFICHJ@?$AAe?$AAs?$AA?9?$AAv?$AAe@
CONST	SEGMENT
??_C@_1M@JKFFICHJ@?$AAe?$AAs?$AA?9?$AAv?$AAe@ DB 'e', 00H, 's', 00H, '-', 00H
	DB	'v', 00H, 'e', 00H, 00H, 00H			; `string'
CONST	ENDS
;	COMDAT ??_C@_1M@GAOBIPA@?$AAe?$AAs?$AA?9?$AAu?$AAy@
CONST	SEGMENT
??_C@_1M@GAOBIPA@?$AAe?$AAs?$AA?9?$AAu?$AAy@ DB 'e', 00H, 's', 00H, '-', 00H
	DB	'u', 00H, 'y', 00H, 00H, 00H			; `string'
CONST	ENDS
;	COMDAT ??_C@_1M@IIDEOLLL@?$AAe?$AAs?$AA?9?$AAs?$AAv@
CONST	SEGMENT
??_C@_1M@IIDEOLLL@?$AAe?$AAs?$AA?9?$AAs?$AAv@ DB 'e', 00H, 's', 00H, '-', 00H
	DB	's', 00H, 'v', 00H, 00H, 00H			; `string'
CONST	ENDS
;	COMDAT ??_C@_1M@FGMDIJED@?$AAe?$AAs?$AA?9?$AAp?$AAy@
CONST	SEGMENT
??_C@_1M@FGMDIJED@?$AAe?$AAs?$AA?9?$AAp?$AAy@ DB 'e', 00H, 's', 00H, '-', 00H
	DB	'p', 00H, 'y', 00H, 00H, 00H			; `string'
CONST	ENDS
;	COMDAT ??_C@_1M@IBMCAOEC@?$AAe?$AAs?$AA?9?$AAp?$AAr@
CONST	SEGMENT
??_C@_1M@IBMCAOEC@?$AAe?$AAs?$AA?9?$AAp?$AAr@ DB 'e', 00H, 's', 00H, '-', 00H
	DB	'p', 00H, 'r', 00H, 00H, 00H			; `string'
CONST	ENDS
;	COMDAT ??_C@_1M@EMAMGBGE@?$AAe?$AAs?$AA?9?$AAp?$AAe@
CONST	SEGMENT
??_C@_1M@EMAMGBGE@?$AAe?$AAs?$AA?9?$AAp?$AAe@ DB 'e', 00H, 's', 00H, '-', 00H
	DB	'p', 00H, 'e', 00H, 00H, 00H			; `string'
CONST	ENDS
;	COMDAT ??_C@_1M@MDGOPGDD@?$AAe?$AAs?$AA?9?$AAp?$AAa@
CONST	SEGMENT
??_C@_1M@MDGOPGDD@?$AAe?$AAs?$AA?9?$AAp?$AAa@ DB 'e', 00H, 's', 00H, '-', 00H
	DB	'p', 00H, 'a', 00H, 00H, 00H			; `string'
CONST	ENDS
;	COMDAT ??_C@_1M@DPAGLNDH@?$AAe?$AAs?$AA?9?$AAn?$AAi@
CONST	SEGMENT
??_C@_1M@DPAGLNDH@?$AAe?$AAs?$AA?9?$AAn?$AAi@ DB 'e', 00H, 's', 00H, '-', 00H
	DB	'n', 00H, 'i', 00H, 00H, 00H			; `string'
CONST	ENDS
;	COMDAT ??_C@_1M@FBDHPPGD@?$AAe?$AAs?$AA?9?$AAm?$AAx@
CONST	SEGMENT
??_C@_1M@FBDHPPGD@?$AAe?$AAs?$AA?9?$AAm?$AAx@ DB 'e', 00H, 's', 00H, '-', 00H
	DB	'm', 00H, 'x', 00H, 00H, 00H			; `string'
CONST	ENDS
;	COMDAT ??_C@_1M@HEIIGGJD@?$AAe?$AAs?$AA?9?$AAh?$AAn@
CONST	SEGMENT
??_C@_1M@HEIIGGJD@?$AAe?$AAs?$AA?9?$AAh?$AAn@ DB 'e', 00H, 's', 00H, '-', 00H
	DB	'h', 00H, 'n', 00H, 00H, 00H			; `string'
CONST	ENDS
;	COMDAT ??_C@_1M@LKHKGDLN@?$AAe?$AAs?$AA?9?$AAg?$AAt@
CONST	SEGMENT
??_C@_1M@LKHKGDLN@?$AAe?$AAs?$AA?9?$AAg?$AAt@ DB 'e', 00H, 's', 00H, '-', 00H
	DB	'g', 00H, 't', 00H, 00H, 00H			; `string'
CONST	ENDS
;	COMDAT ??_C@_1M@GKGFPKAP@?$AAe?$AAs?$AA?9?$AAe?$AAs@
CONST	SEGMENT
??_C@_1M@GKGFPKAP@?$AAe?$AAs?$AA?9?$AAe?$AAs@ DB 'e', 00H, 's', 00H, '-', 00H
	DB	'e', 00H, 's', 00H, 00H, 00H			; `string'
CONST	ENDS
;	COMDAT ??_C@_1M@DKHMKNJA@?$AAe?$AAs?$AA?9?$AAe?$AAc@
CONST	SEGMENT
??_C@_1M@DKHMKNJA@?$AAe?$AAs?$AA?9?$AAe?$AAc@ DB 'e', 00H, 's', 00H, '-', 00H
	DB	'e', 00H, 'c', 00H, 00H, 00H			; `string'
CONST	ENDS
;	COMDAT ??_C@_1M@LLPGMBIN@?$AAe?$AAs?$AA?9?$AAd?$AAo@
CONST	SEGMENT
??_C@_1M@LLPGMBIN@?$AAe?$AAs?$AA?9?$AAd?$AAo@ DB 'e', 00H, 's', 00H, '-', 00H
	DB	'd', 00H, 'o', 00H, 00H, 00H			; `string'
CONST	ENDS
;	COMDAT ??_C@_1M@EIAHOHH@?$AAe?$AAs?$AA?9?$AAc?$AAr@
CONST	SEGMENT
??_C@_1M@EIAHOHH@?$AAe?$AAs?$AA?9?$AAc?$AAr@ DB 'e', 00H, 's', 00H, '-', 00H
	DB	'c', 00H, 'r', 00H, 00H, 00H			; `string'
CONST	ENDS
;	COMDAT ??_C@_1M@KGPDPBDF@?$AAe?$AAs?$AA?9?$AAc?$AAo@
CONST	SEGMENT
??_C@_1M@KGPDPBDF@?$AAe?$AAs?$AA?9?$AAc?$AAo@ DB 'e', 00H, 's', 00H, '-', 00H
	DB	'c', 00H, 'o', 00H, 00H, 00H			; `string'
CONST	ENDS
;	COMDAT ??_C@_1M@LEEGFONL@?$AAe?$AAs?$AA?9?$AAc?$AAl@
CONST	SEGMENT
??_C@_1M@LEEGFONL@?$AAe?$AAs?$AA?9?$AAc?$AAl@ DB 'e', 00H, 's', 00H, '-', 00H
	DB	'c', 00H, 'l', 00H, 00H, 00H			; `string'
CONST	ENDS
;	COMDAT ??_C@_1M@GNKPCCJA@?$AAe?$AAs?$AA?9?$AAb?$AAo@
CONST	SEGMENT
??_C@_1M@GNKPCCJA@?$AAe?$AAs?$AA?9?$AAb?$AAo@ DB 'e', 00H, 's', 00H, '-', 00H
	DB	'b', 00H, 'o', 00H, 00H, 00H			; `string'
CONST	ENDS
;	COMDAT ??_C@_1M@EJEINPHM@?$AAe?$AAs?$AA?9?$AAa?$AAr@
CONST	SEGMENT
??_C@_1M@EJEINPHM@?$AAe?$AAs?$AA?9?$AAa?$AAr@ DB 'e', 00H, 's', 00H, '-', 00H
	DB	'a', 00H, 'r', 00H, 00H, 00H			; `string'
CONST	ENDS
;	COMDAT ??_C@_1M@MFNHNHEO@?$AAe?$AAn?$AA?9?$AAz?$AAw@
CONST	SEGMENT
??_C@_1M@MFNHNHEO@?$AAe?$AAn?$AA?9?$AAz?$AAw@ DB 'e', 00H, 'n', 00H, '-', 00H
	DB	'z', 00H, 'w', 00H, 00H, 00H			; `string'
CONST	ENDS
;	COMDAT ??_C@_1M@LAKFNPAN@?$AAe?$AAn?$AA?9?$AAz?$AAa@
CONST	SEGMENT
??_C@_1M@LAKFNPAN@?$AAe?$AAn?$AA?9?$AAz?$AAa@ DB 'e', 00H, 'n', 00H, '-', 00H
	DB	'z', 00H, 'a', 00H, 00H, 00H			; `string'
CONST	ENDS
;	COMDAT ??_C@_1M@LLODPCMM@?$AAe?$AAn?$AA?9?$AAu?$AAs@
CONST	SEGMENT
??_C@_1M@LLODPCMM@?$AAe?$AAn?$AA?9?$AAu?$AAs@ DB 'e', 00H, 'n', 00H, '-', 00H
	DB	'u', 00H, 's', 00H, 00H, 00H			; `string'
CONST	ENDS
;	COMDAT ??_C@_1M@ONGIBJNA@?$AAe?$AAn?$AA?9?$AAt?$AAt@
CONST	SEGMENT
??_C@_1M@ONGIBJNA@?$AAe?$AAn?$AA?9?$AAt?$AAt@ DB 'e', 00H, 'n', 00H, '-', 00H
	DB	't', 00H, 't', 00H, 00H, 00H			; `string'
CONST	ENDS
;	COMDAT ??_C@_1M@GMDGLDOB@?$AAe?$AAn?$AA?9?$AAp?$AAh@
CONST	SEGMENT
??_C@_1M@GMDGLDOB@?$AAe?$AAn?$AA?9?$AAp?$AAh@ DB 'e', 00H, 'n', 00H, '-', 00H
	DB	'p', 00H, 'h', 00H, 00H, 00H			; `string'
CONST	ENDS
;	COMDAT ??_C@_1M@KPPKEPBO@?$AAe?$AAn?$AA?9?$AAn?$AAz@
CONST	SEGMENT
??_C@_1M@KPPKEPBO@?$AAe?$AAn?$AA?9?$AAn?$AAz@ DB 'e', 00H, 'n', 00H, '-', 00H
	DB	'n', 00H, 'z', 00H, 00H, 00H			; `string'
CONST	ENDS
;	COMDAT ??_C@_1M@PJKFGCCO@?$AAe?$AAn?$AA?9?$AAj?$AAm@
CONST	SEGMENT
??_C@_1M@PJKFGCCO@?$AAe?$AAn?$AA?9?$AAj?$AAm@ DB 'e', 00H, 'n', 00H, '-', 00H
	DB	'j', 00H, 'm', 00H, 00H, 00H			; `string'
CONST	ENDS
;	COMDAT ??_C@_1M@LKIFDIGP@?$AAe?$AAn?$AA?9?$AAi?$AAe@
CONST	SEGMENT
??_C@_1M@LKIFDIGP@?$AAe?$AAn?$AA?9?$AAi?$AAe@ DB 'e', 00H, 'n', 00H, '-', 00H
	DB	'i', 00H, 'e', 00H, 00H, 00H			; `string'
CONST	ENDS
;	COMDAT ??_C@_1M@BNFIGBKG@?$AAe?$AAn?$AA?9?$AAg?$AAb@
CONST	SEGMENT
??_C@_1M@BNFIGBKG@?$AAe?$AAn?$AA?9?$AAg?$AAb@ DB 'e', 00H, 'n', 00H, '-', 00H
	DB	'g', 00H, 'b', 00H, 00H, 00H			; `string'
CONST	ENDS
;	COMDAT ??_C@_1M@IGMJCDLA@?$AAe?$AAn?$AA?9?$AAc?$AAb@
CONST	SEGMENT
??_C@_1M@IGMJCDLA@?$AAe?$AAn?$AA?9?$AAc?$AAb@ DB 'e', 00H, 'n', 00H, '-', 00H
	DB	'c', 00H, 'b', 00H, 00H, 00H			; `string'
CONST	ENDS
;	COMDAT ??_C@_1M@JEHMIMFO@?$AAe?$AAn?$AA?9?$AAc?$AAa@
CONST	SEGMENT
??_C@_1M@JEHMIMFO@?$AAe?$AAn?$AA?9?$AAc?$AAa@ DB 'e', 00H, 'n', 00H, '-', 00H
	DB	'c', 00H, 'a', 00H, 00H, 00H			; `string'
CONST	ENDS
;	COMDAT ??_C@_1M@NIDIIPGF@?$AAe?$AAn?$AA?9?$AAb?$AAz@
CONST	SEGMENT
??_C@_1M@NIDIIPGF@?$AAe?$AAn?$AA?9?$AAb?$AAz@ DB 'e', 00H, 'n', 00H, '-', 00H
	DB	'b', 00H, 'z', 00H, 00H, 00H			; `string'
CONST	ENDS
;	COMDAT ??_C@_1M@GMPONJN@?$AAe?$AAn?$AA?9?$AAa?$AAu@
CONST	SEGMENT
??_C@_1M@GMPONJN@?$AAe?$AAn?$AA?9?$AAa?$AAu@ DB 'e', 00H, 'n', 00H, '-', 00H
	DB	'a', 00H, 'u', 00H, 00H, 00H			; `string'
CONST	ENDS
;	COMDAT ??_C@_1M@EJLEOGAE@?$AAe?$AAl?$AA?9?$AAg?$AAr@
CONST	SEGMENT
??_C@_1M@EJLEOGAE@?$AAe?$AAl?$AA?9?$AAg?$AAr@ DB 'e', 00H, 'l', 00H, '-', 00H
	DB	'g', 00H, 'r', 00H, 00H, 00H			; `string'
CONST	ENDS
;	COMDAT ??_C@_1O@GNNELBAP@?$AAd?$AAi?$AAv?$AA?9?$AAm?$AAv@
CONST	SEGMENT
??_C@_1O@GNNELBAP@?$AAd?$AAi?$AAv?$AA?9?$AAm?$AAv@ DB 'd', 00H, 'i', 00H, 'v'
	DB	00H, '-', 00H, 'm', 00H, 'v', 00H, 00H, 00H	; `string'
CONST	ENDS
;	COMDAT ??_C@_1M@NJBEEJNL@?$AAd?$AAe?$AA?9?$AAl?$AAu@
CONST	SEGMENT
??_C@_1M@NJBEEJNL@?$AAd?$AAe?$AA?9?$AAl?$AAu@ DB 'd', 00H, 'e', 00H, '-', 00H
	DB	'l', 00H, 'u', 00H, 00H, 00H			; `string'
CONST	ENDS
;	COMDAT ??_C@_1M@MDNLKBPM@?$AAd?$AAe?$AA?9?$AAl?$AAi@
CONST	SEGMENT
??_C@_1M@MDNLKBPM@?$AAd?$AAe?$AA?9?$AAl?$AAi@ DB 'd', 00H, 'e', 00H, '-', 00H
	DB	'l', 00H, 'i', 00H, 00H, 00H			; `string'
CONST	ENDS
;	COMDAT ??_C@_1M@GFFOJMCJ@?$AAd?$AAe?$AA?9?$AAd?$AAe@
CONST	SEGMENT
??_C@_1M@GFFOJMCJ@?$AAd?$AAe?$AA?9?$AAd?$AAe@ DB 'd', 00H, 'e', 00H, '-', 00H
	DB	'd', 00H, 'e', 00H, 00H, 00H			; `string'
CONST	ENDS
;	COMDAT ??_C@_1M@IKDBHEEM@?$AAd?$AAe?$AA?9?$AAc?$AAh@
CONST	SEGMENT
??_C@_1M@IKDBHEEM@?$AAd?$AAe?$AA?9?$AAc?$AAh@ DB 'd', 00H, 'e', 00H, '-', 00H
	DB	'c', 00H, 'h', 00H, 00H, 00H			; `string'
CONST	ENDS
;	COMDAT ??_C@_1M@NNDGDNGA@?$AAd?$AAe?$AA?9?$AAa?$AAt@
CONST	SEGMENT
??_C@_1M@NNDGDNGA@?$AAd?$AAe?$AA?9?$AAa?$AAt@ DB 'd', 00H, 'e', 00H, '-', 00H
	DB	'a', 00H, 't', 00H, 00H, 00H			; `string'
CONST	ENDS
;	COMDAT ??_C@_1M@IMGKELGA@?$AAd?$AAa?$AA?9?$AAd?$AAk@
CONST	SEGMENT
??_C@_1M@IMGKELGA@?$AAd?$AAa?$AA?9?$AAd?$AAk@ DB 'd', 00H, 'a', 00H, '-', 00H
	DB	'd', 00H, 'k', 00H, 00H, 00H			; `string'
CONST	ENDS
;	COMDAT ??_C@_1M@DHBHFONH@?$AAc?$AAy?$AA?9?$AAg?$AAb@
CONST	SEGMENT
??_C@_1M@DHBHFONH@?$AAc?$AAy?$AA?9?$AAg?$AAb@ DB 'c', 00H, 'y', 00H, '-', 00H
	DB	'g', 00H, 'b', 00H, 00H, 00H			; `string'
CONST	ENDS
;	COMDAT ??_C@_1M@COAJPDHI@?$AAc?$AAs?$AA?9?$AAc?$AAz@
CONST	SEGMENT
??_C@_1M@COAJPDHI@?$AAc?$AAs?$AA?9?$AAc?$AAz@ DB 'c', 00H, 's', 00H, '-', 00H
	DB	'c', 00H, 'z', 00H, 00H, 00H			; `string'
CONST	ENDS
;	COMDAT ??_C@_1M@KGADAODK@?$AAc?$AAa?$AA?9?$AAe?$AAs@
CONST	SEGMENT
??_C@_1M@KGADAODK@?$AAc?$AAa?$AA?9?$AAe?$AAs@ DB 'c', 00H, 'a', 00H, '-', 00H
	DB	'e', 00H, 's', 00H, 00H, 00H			; `string'
CONST	ENDS
;	COMDAT ??_C@_1BG@EAKMMACD@?$AAb?$AAs?$AA?9?$AAb?$AAa?$AA?9?$AAl?$AAa?$AAt?$AAn@
CONST	SEGMENT
??_C@_1BG@EAKMMACD@?$AAb?$AAs?$AA?9?$AAb?$AAa?$AA?9?$AAl?$AAa?$AAt?$AAn@ DB 'b'
	DB	00H, 's', 00H, '-', 00H, 'b', 00H, 'a', 00H, '-', 00H, 'l', 00H
	DB	'a', 00H, 't', 00H, 'n', 00H, 00H, 00H	; `string'
CONST	ENDS
;	COMDAT ??_C@_1M@BJBMFGOB@?$AAb?$AAn?$AA?9?$AAi?$AAn@
CONST	SEGMENT
??_C@_1M@BJBMFGOB@?$AAb?$AAn?$AA?9?$AAi?$AAn@ DB 'b', 00H, 'n', 00H, '-', 00H
	DB	'i', 00H, 'n', 00H, 00H, 00H			; `string'
CONST	ENDS
;	COMDAT ??_C@_1M@PCMGMCGC@?$AAb?$AAg?$AA?9?$AAb?$AAg@
CONST	SEGMENT
??_C@_1M@PCMGMCGC@?$AAb?$AAg?$AA?9?$AAb?$AAg@ DB 'b', 00H, 'g', 00H, '-', 00H
	DB	'b', 00H, 'g', 00H, 00H, 00H			; `string'
CONST	ENDS
;	COMDAT ??_C@_1M@EGPFDCPD@?$AAb?$AAe?$AA?9?$AAb?$AAy@
CONST	SEGMENT
??_C@_1M@EGPFDCPD@?$AAb?$AAe?$AA?9?$AAb?$AAy@ DB 'b', 00H, 'e', 00H, '-', 00H
	DB	'b', 00H, 'y', 00H, 00H, 00H			; `string'
CONST	ENDS
;	COMDAT ??_C@_1BG@IBCKDDOE@?$AAa?$AAz?$AA?9?$AAa?$AAz?$AA?9?$AAl?$AAa?$AAt?$AAn@
CONST	SEGMENT
??_C@_1BG@IBCKDDOE@?$AAa?$AAz?$AA?9?$AAa?$AAz?$AA?9?$AAl?$AAa?$AAt?$AAn@ DB 'a'
	DB	00H, 'z', 00H, '-', 00H, 'a', 00H, 'z', 00H, '-', 00H, 'l', 00H
	DB	'a', 00H, 't', 00H, 'n', 00H, 00H, 00H	; `string'
CONST	ENDS
;	COMDAT ??_C@_1BG@KDCPGJGB@?$AAa?$AAz?$AA?9?$AAa?$AAz?$AA?9?$AAc?$AAy?$AAr?$AAl@
CONST	SEGMENT
??_C@_1BG@KDCPGJGB@?$AAa?$AAz?$AA?9?$AAa?$AAz?$AA?9?$AAc?$AAy?$AAr?$AAl@ DB 'a'
	DB	00H, 'z', 00H, '-', 00H, 'a', 00H, 'z', 00H, '-', 00H, 'c', 00H
	DB	'y', 00H, 'r', 00H, 'l', 00H, 00H, 00H	; `string'
CONST	ENDS
;	COMDAT ??_C@_1M@IHMHGAON@?$AAa?$AAr?$AA?9?$AAy?$AAe@
CONST	SEGMENT
??_C@_1M@IHMHGAON@?$AAa?$AAr?$AA?9?$AAy?$AAe@ DB 'a', 00H, 'r', 00H, '-', 00H
	DB	'y', 00H, 'e', 00H, 00H, 00H			; `string'
CONST	ENDS
;	COMDAT ??_C@_1M@OMFIPEDC@?$AAa?$AAr?$AA?9?$AAt?$AAn@
CONST	SEGMENT
??_C@_1M@OMFIPEDC@?$AAa?$AAr?$AA?9?$AAt?$AAn@ DB 'a', 00H, 'r', 00H, '-', 00H
	DB	't', 00H, 'n', 00H, 00H, 00H			; `string'
CONST	ENDS
;	COMDAT ??_C@_1M@DMJDKLKM@?$AAa?$AAr?$AA?9?$AAs?$AAy@
CONST	SEGMENT
??_C@_1M@DMJDKLKM@?$AAa?$AAr?$AA?9?$AAs?$AAy@ DB 'a', 00H, 'r', 00H, '-', 00H
	DB	's', 00H, 'y', 00H, 00H, 00H			; `string'
CONST	ENDS
;	COMDAT ??_C@_1M@KJDONENM@?$AAa?$AAr?$AA?9?$AAs?$AAa@
CONST	SEGMENT
??_C@_1M@KJDONENM@?$AAa?$AAr?$AA?9?$AAs?$AAa@ DB 'a', 00H, 'r', 00H, '-', 00H
	DB	's', 00H, 'a', 00H, 00H, 00H			; `string'
CONST	ENDS
;	COMDAT ??_C@_1M@OEPGHFNH@?$AAa?$AAr?$AA?9?$AAq?$AAa@
CONST	SEGMENT
??_C@_1M@OEPGHFNH@?$AAa?$AAr?$AA?9?$AAq?$AAa@ DB 'a', 00H, 'r', 00H, '-', 00H
	DB	'q', 00H, 'a', 00H, 00H, 00H			; `string'
CONST	ENDS
;	COMDAT ??_C@_1M@JHPMKJIE@?$AAa?$AAr?$AA?9?$AAo?$AAm@
CONST	SEGMENT
??_C@_1M@JHPMKJIE@?$AAa?$AAr?$AA?9?$AAo?$AAm@ DB 'a', 00H, 'r', 00H, '-', 00H
	DB	'o', 00H, 'm', 00H, 00H, 00H			; `string'
CONST	ENDS
;	COMDAT ??_C@_1M@JAOCLHDH@?$AAa?$AAr?$AA?9?$AAm?$AAa@
CONST	SEGMENT
??_C@_1M@JAOCLHDH@?$AAa?$AAr?$AA?9?$AAm?$AAa@ DB 'a', 00H, 'r', 00H, '-', 00H
	DB	'm', 00H, 'a', 00H, 00H, 00H			; `string'
CONST	ENDS
;	COMDAT ??_C@_1M@MOBDBLOC@?$AAa?$AAr?$AA?9?$AAl?$AAy@
CONST	SEGMENT
??_C@_1M@MOBDBLOC@?$AAa?$AAr?$AA?9?$AAl?$AAy@ DB 'a', 00H, 'r', 00H, '-', 00H
	DB	'l', 00H, 'y', 00H, 00H, 00H			; `string'
CONST	ENDS
;	COMDAT ??_C@_1M@EJALMLHM@?$AAa?$AAr?$AA?9?$AAl?$AAb@
CONST	SEGMENT
??_C@_1M@EJALMLHM@?$AAa?$AAr?$AA?9?$AAl?$AAb@ DB 'a', 00H, 'r', 00H, '-', 00H
	DB	'l', 00H, 'b', 00H, 00H, 00H			; `string'
CONST	ENDS
;	COMDAT ??_C@_1M@DDMJFMGJ@?$AAa?$AAr?$AA?9?$AAk?$AAw@
CONST	SEGMENT
??_C@_1M@DDMJFMGJ@?$AAa?$AAr?$AA?9?$AAk?$AAw@ DB 'a', 00H, 'r', 00H, '-', 00H
	DB	'k', 00H, 'w', 00H, 00H, 00H			; `string'
CONST	ENDS
;	COMDAT ??_C@_1M@GNDIPALM@?$AAa?$AAr?$AA?9?$AAj?$AAo@
CONST	SEGMENT
??_C@_1M@GNDIPALM@?$AAa?$AAr?$AA?9?$AAj?$AAo@ DB 'a', 00H, 'r', 00H, '-', 00H
	DB	'j', 00H, 'o', 00H, 00H, 00H			; `string'
CONST	ENDS
;	COMDAT ??_C@_1M@FLGKKCLO@?$AAa?$AAr?$AA?9?$AAi?$AAq@
CONST	SEGMENT
??_C@_1M@FLGKKCLO@?$AAa?$AAr?$AA?9?$AAi?$AAq@ DB 'a', 00H, 'r', 00H, '-', 00H
	DB	'i', 00H, 'q', 00H, 00H, 00H			; `string'
CONST	ENDS
;	COMDAT ??_C@_1M@FJNKGKIG@?$AAa?$AAr?$AA?9?$AAe?$AAg@
CONST	SEGMENT
??_C@_1M@FJNKGKIG@?$AAa?$AAr?$AA?9?$AAe?$AAg@ DB 'a', 00H, 'r', 00H, '-', 00H
	DB	'e', 00H, 'g', 00H, 00H, 00H			; `string'
CONST	ENDS
;	COMDAT ??_C@_1M@DAPFDGGB@?$AAa?$AAr?$AA?9?$AAd?$AAz@
CONST	SEGMENT
??_C@_1M@DAPFDGGB@?$AAa?$AAr?$AA?9?$AAd?$AAz@ DB 'a', 00H, 'r', 00H, '-', 00H
	DB	'd', 00H, 'z', 00H, 00H, 00H			; `string'
CONST	ENDS
;	COMDAT ??_C@_1M@BMLMEKGI@?$AAa?$AAr?$AA?9?$AAb?$AAh@
CONST	SEGMENT
??_C@_1M@BMLMEKGI@?$AAa?$AAr?$AA?9?$AAb?$AAh@ DB 'a', 00H, 'r', 00H, '-', 00H
	DB	'b', 00H, 'h', 00H, 00H, 00H			; `string'
CONST	ENDS
;	COMDAT ??_C@_1M@GIECOABL@?$AAa?$AAr?$AA?9?$AAa?$AAe@
CONST	SEGMENT
??_C@_1M@GIECOABL@?$AAa?$AAr?$AA?9?$AAa?$AAe@ DB 'a', 00H, 'r', 00H, '-', 00H
	DB	'a', 00H, 'e', 00H, 00H, 00H			; `string'
CONST	ENDS
;	COMDAT ??_C@_1M@KAHEKEIG@?$AAa?$AAf?$AA?9?$AAz?$AAa@
CONST	SEGMENT
??_C@_1M@KAHEKEIG@?$AAa?$AAf?$AA?9?$AAz?$AAa@ DB 'a', 00H, 'f', 00H, '-', 00H
	DB	'z', 00H, 'a', 00H, 00H, 00H			; `string'
CONST	ENDS
;	COMDAT __pAtlLocaleNameToIndexTable
CONST	SEGMENT
__pAtlLocaleNameToIndexTable DD FLAT:??_C@_11LOCGONAA@@
	DD	042H
	DD	FLAT:??_C@_15JDNICKHM@?$AAa?$AAf@
	DD	02cH
	DD	FLAT:??_C@_1M@KAHEKEIG@?$AAa?$AAf?$AA?9?$AAz?$AAa@
	DD	071H
	DD	FLAT:??_C@_15EMKDOKLE@?$AAa?$AAr@
	DD	00H
	DD	FLAT:??_C@_1M@GIECOABL@?$AAa?$AAr?$AA?9?$AAa?$AAe@
	DD	0d8H
	DD	FLAT:??_C@_1M@BMLMEKGI@?$AAa?$AAr?$AA?9?$AAb?$AAh@
	DD	0daH
	DD	FLAT:??_C@_1M@DAPFDGGB@?$AAa?$AAr?$AA?9?$AAd?$AAz@
	DD	0b1H
	DD	FLAT:??_C@_1M@FJNKGKIG@?$AAa?$AAr?$AA?9?$AAe?$AAg@
	DD	0a0H
	DD	FLAT:??_C@_1M@FLGKKCLO@?$AAa?$AAr?$AA?9?$AAi?$AAq@
	DD	08fH
	DD	FLAT:??_C@_1M@GNDIPALM@?$AAa?$AAr?$AA?9?$AAj?$AAo@
	DD	0cfH
	DD	FLAT:??_C@_1M@DDMJFMGJ@?$AAa?$AAr?$AA?9?$AAk?$AAw@
	DD	0d5H
	DD	FLAT:??_C@_1M@EJALMLHM@?$AAa?$AAr?$AA?9?$AAl?$AAb@
	DD	0d2H
	DD	FLAT:??_C@_1M@MOBDBLOC@?$AAa?$AAr?$AA?9?$AAl?$AAy@
	DD	0a9H
	DD	FLAT:??_C@_1M@JAOCLHDH@?$AAa?$AAr?$AA?9?$AAm?$AAa@
	DD	0b9H
	DD	FLAT:??_C@_1M@JHPMKJIE@?$AAa?$AAr?$AA?9?$AAo?$AAm@
	DD	0c4H
	DD	FLAT:??_C@_1M@OEPGHFNH@?$AAa?$AAr?$AA?9?$AAq?$AAa@
	DD	0dcH
	DD	FLAT:??_C@_1M@KJDONENM@?$AAa?$AAr?$AA?9?$AAs?$AAa@
	DD	043H
	DD	FLAT:??_C@_1M@DMJDKLKM@?$AAa?$AAr?$AA?9?$AAs?$AAy@
	DD	0ccH
	DD	FLAT:??_C@_1M@OMFIPEDC@?$AAa?$AAr?$AA?9?$AAt?$AAn@
	DD	0bfH
	DD	FLAT:??_C@_1M@IHMHGAON@?$AAa?$AAr?$AA?9?$AAy?$AAe@
	DD	0c8H
	DD	FLAT:??_C@_15IJBHMCFL@?$AAa?$AAz@
	DD	029H
	DD	FLAT:??_C@_1BG@KDCPGJGB@?$AAa?$AAz?$AA?9?$AAa?$AAz?$AA?9?$AAc?$AAy?$AAr?$AAl@
	DD	09bH
	DD	FLAT:??_C@_1BG@IBCKDDOE@?$AAa?$AAz?$AA?9?$AAa?$AAz?$AA?9?$AAl?$AAa?$AAt?$AAn@
	DD	06bH
	DD	FLAT:??_C@_15HPJPHDM@?$AAb?$AAe@
	DD	021H
	DD	FLAT:??_C@_1M@EGPFDCPD@?$AAb?$AAe?$AA?9?$AAb?$AAy@
	DD	063H
	DD	FLAT:??_C@_15KNPADPLH@?$AAb?$AAg@
	DD	01H
	DD	FLAT:??_C@_1M@PCMGMCGC@?$AAb?$AAg?$AA?9?$AAb?$AAg@
	DD	044H
	DD	FLAT:??_C@_1M@BJBMFGOB@?$AAb?$AAn?$AA?9?$AAi?$AAn@
	DD	07dH
	DD	FLAT:??_C@_1BG@EAKMMACD@?$AAb?$AAs?$AA?9?$AAb?$AAa?$AA?9?$AAl?$AAa?$AAt?$AAn@
	DD	0b7H
	DD	FLAT:??_C@_15EDMHLDMO@?$AAc?$AAa@
	DD	02H
	DD	FLAT:??_C@_1M@KGADAODK@?$AAc?$AAa?$AA?9?$AAe?$AAs@
	DD	045H
	DD	FLAT:??_C@_15LJNHCMNK@?$AAc?$AAs@
	DD	04H
	DD	FLAT:??_C@_1M@COAJPDHI@?$AAc?$AAs?$AA?9?$AAc?$AAz@
	DD	047H
	DD	FLAT:??_C@_1M@DHBHFONH@?$AAc?$AAy?$AA?9?$AAg?$AAb@
	DD	087H
	DD	FLAT:??_C@_15FOMCIDHG@?$AAd?$AAa@
	DD	05H
	DD	FLAT:??_C@_1M@IMGKELGA@?$AAd?$AAa?$AA?9?$AAd?$AAk@
	DD	048H
	DD	FLAT:??_C@_15NBKABECB@?$AAd?$AAe@
	DD	06H
	DD	FLAT:??_C@_1M@NNDGDNGA@?$AAd?$AAe?$AA?9?$AAa?$AAt@
	DD	0a2H
	DD	FLAT:??_C@_1M@IKDBHEEM@?$AAd?$AAe?$AA?9?$AAc?$AAh@
	DD	091H
	DD	FLAT:??_C@_1M@GFFOJMCJ@?$AAd?$AAe?$AA?9?$AAd?$AAe@
	DD	049H
	DD	FLAT:??_C@_1M@MDNLKBPM@?$AAd?$AAe?$AA?9?$AAl?$AAi@
	DD	0b3H
	DD	FLAT:??_C@_1M@NJBEEJNL@?$AAd?$AAe?$AA?9?$AAl?$AAu@
	DD	0abH
	DD	FLAT:??_C@_17KPNDCPAF@?$AAd?$AAi?$AAv@
	DD	041H
	DD	FLAT:??_C@_1O@GNNELBAP@?$AAd?$AAi?$AAv?$AA?9?$AAm?$AAv@
	DD	08bH
	DD	FLAT:??_C@_15GHPEIIAO@?$AAe?$AAl@
	DD	07H
	DD	FLAT:??_C@_1M@EJLEOGAE@?$AAe?$AAl?$AA?9?$AAg?$AAr@
	DD	04aH
	DD	FLAT:??_C@_15MNPNEAIF@?$AAe?$AAn@
	DD	08H
	DD	FLAT:??_C@_1M@GMPONJN@?$AAe?$AAn?$AA?9?$AAa?$AAu@
	DD	0a3H
	DD	FLAT:??_C@_1M@NIDIIPGF@?$AAe?$AAn?$AA?9?$AAb?$AAz@
	DD	0cdH
	DD	FLAT:??_C@_1M@JEHMIMFO@?$AAe?$AAn?$AA?9?$AAc?$AAa@
	DD	0acH
	DD	FLAT:??_C@_1M@IGMJCDLA@?$AAe?$AAn?$AA?9?$AAc?$AAb@
	DD	0c9H
	DD	FLAT:??_C@_1M@BNFIGBKG@?$AAe?$AAn?$AA?9?$AAg?$AAb@
	DD	092H
	DD	FLAT:??_C@_1M@LKIFDIGP@?$AAe?$AAn?$AA?9?$AAi?$AAe@
	DD	0baH
	DD	FLAT:??_C@_1M@PJKFGCCO@?$AAe?$AAn?$AA?9?$AAj?$AAm@
	DD	0c5H
	DD	FLAT:??_C@_1M@KPPKEPBO@?$AAe?$AAn?$AA?9?$AAn?$AAz@
	DD	0b4H
	DD	FLAT:??_C@_1M@GMDGLDOB@?$AAe?$AAn?$AA?9?$AAp?$AAh@
	DD	0d6H
	DD	FLAT:??_C@_1M@ONGIBJNA@?$AAe?$AAn?$AA?9?$AAt?$AAt@
	DD	0d0H
	DD	FLAT:??_C@_1M@LLODPCMM@?$AAe?$AAn?$AA?9?$AAu?$AAs@
	DD	04bH
	DD	FLAT:??_C@_1M@LAKFNPAN@?$AAe?$AAn?$AA?9?$AAz?$AAa@
	DD	0c0H
	DD	FLAT:??_C@_1M@MFNHNHEO@?$AAe?$AAn?$AA?9?$AAz?$AAw@
	DD	0d3H
	DD	FLAT:??_C@_15GPIOMPMH@?$AAe?$AAs@
	DD	09H
	DD	FLAT:??_C@_1M@EJEINPHM@?$AAe?$AAs?$AA?9?$AAa?$AAr@
	DD	0d1H
	DD	FLAT:??_C@_1M@GNKPCCJA@?$AAe?$AAs?$AA?9?$AAb?$AAo@
	DD	0ddH
	DD	FLAT:??_C@_1M@LEEGFONL@?$AAe?$AAs?$AA?9?$AAc?$AAl@
	DD	0d7H
	DD	FLAT:??_C@_1M@KGPDPBDF@?$AAe?$AAs?$AA?9?$AAc?$AAo@
	DD	0caH
	DD	FLAT:??_C@_1M@EIAHOHH@?$AAe?$AAs?$AA?9?$AAc?$AAr@
	DD	0b5H
	DD	FLAT:??_C@_1M@LLPGMBIN@?$AAe?$AAs?$AA?9?$AAd?$AAo@
	DD	0c1H
	DD	FLAT:??_C@_1M@DKHMKNJA@?$AAe?$AAs?$AA?9?$AAe?$AAc@
	DD	0d4H
	DD	FLAT:??_C@_1M@GKGFPKAP@?$AAe?$AAs?$AA?9?$AAe?$AAs@
	DD	0a4H
	DD	FLAT:??_C@_1M@LKHKGDLN@?$AAe?$AAs?$AA?9?$AAg?$AAt@
	DD	0adH
	DD	FLAT:??_C@_1M@HEIIGGJD@?$AAe?$AAs?$AA?9?$AAh?$AAn@
	DD	0dfH
	DD	FLAT:??_C@_1M@FBDHPPGD@?$AAe?$AAs?$AA?9?$AAm?$AAx@
	DD	093H
	DD	FLAT:??_C@_1M@DPAGLNDH@?$AAe?$AAs?$AA?9?$AAn?$AAi@
	DD	0e0H
	DD	FLAT:??_C@_1M@MDGOPGDD@?$AAe?$AAs?$AA?9?$AAp?$AAa@
	DD	0bbH
	DD	FLAT:??_C@_1M@EMAMGBGE@?$AAe?$AAs?$AA?9?$AAp?$AAe@
	DD	0ceH
	DD	FLAT:??_C@_1M@IBMCAOEC@?$AAe?$AAs?$AA?9?$AAp?$AAr@
	DD	0e1H
	DD	FLAT:??_C@_1M@FGMDIJED@?$AAe?$AAs?$AA?9?$AAp?$AAy@
	DD	0dbH
	DD	FLAT:??_C@_1M@IIDEOLLL@?$AAe?$AAs?$AA?9?$AAs?$AAv@
	DD	0deH
	DD	FLAT:??_C@_1M@GAOBIPA@?$AAe?$AAs?$AA?9?$AAu?$AAy@
	DD	0d9H
	DD	FLAT:??_C@_1M@JKFFICHJ@?$AAe?$AAs?$AA?9?$AAv?$AAe@
	DD	0c6H
	DD	FLAT:??_C@_15PCFJPHHO@?$AAe?$AAt@
	DD	023H
	DD	FLAT:??_C@_1M@PNMLOJDF@?$AAe?$AAt?$AA?9?$AAe?$AAe@
	DD	065H
	DD	FLAT:??_C@_15EKOFJABL@?$AAe?$AAu@
	DD	02aH
	DD	FLAT:??_C@_1M@GHHLIKEI@?$AAe?$AAu?$AA?9?$AAe?$AAs@
	DD	06cH
	DD	FLAT:??_C@_15BDAKCCHN@?$AAf?$AAa@
	DD	026H
	DD	FLAT:??_C@_1M@PBNONODE@?$AAf?$AAa?$AA?9?$AAi?$AAr@
	DD	068H
	DD	FLAT:??_C@_15NGLOAKJC@?$AAf?$AAi@
	DD	0aH
	DD	FLAT:??_C@_1M@JEEHPMIL@?$AAf?$AAi?$AA?9?$AAf?$AAi@
	DD	04cH
	DD	FLAT:??_C@_15PDNFFFEO@?$AAf?$AAo@
	DD	02eH
	DD	FLAT:??_C@_1M@LMDCNDBA@?$AAf?$AAo?$AA?9?$AAf?$AAo@
	DD	073H
	DD	FLAT:??_C@_15FBKGNKAM@?$AAf?$AAr@
	DD	0bH
	DD	FLAT:??_C@_1M@JKEOHLDK@?$AAf?$AAr?$AA?9?$AAb?$AAe@
	DD	094H
	DD	FLAT:??_C@_1M@NOHADPMI@?$AAf?$AAr?$AA?9?$AAc?$AAa@
	DD	0a5H
	DD	FLAT:??_C@_1M@KDHIHAEC@?$AAf?$AAr?$AA?9?$AAc?$AAh@
	DD	0aeH
	DD	FLAT:??_C@_1M@MMBBFGAK@?$AAf?$AAr?$AA?9?$AAf?$AAr@
	DD	04dH
	DD	FLAT:??_C@_1M@PAFNENNF@?$AAf?$AAr?$AA?9?$AAl?$AAu@
	DD	0b6H
	DD	FLAT:??_C@_1M@EOHDJGDD@?$AAf?$AAr?$AA?9?$AAm?$AAc@
	DD	0bcH
	DD	FLAT:??_C@_15CKDMCJAF@?$AAg?$AAl@
	DD	03eH
	DD	FLAT:??_C@_1M@FAPLLOPF@?$AAg?$AAl?$AA?9?$AAe?$AAs@
	DD	088H
	DD	FLAT:??_C@_15HCNDBBA@?$AAg?$AAu@
	DD	037H
	DD	FLAT:??_C@_1M@FOPBFLOO@?$AAg?$AAu?$AA?9?$AAi?$AAn@
	DD	07fH
	DD	FLAT:??_C@_15KGGCNEFK@?$AAh?$AAe@
	DD	0cH
	DD	FLAT:??_C@_1M@KBMCINPM@?$AAh?$AAe?$AA?9?$AAi?$AAl@
	DD	04eH
	DD	FLAT:??_C@_15OMLEGLOC@?$AAh?$AAi@
	DD	02fH
	DD	FLAT:??_C@_1M@BBPHKFPJ@?$AAh?$AAi?$AA?9?$AAi?$AAn@
	DD	074H
	DD	FLAT:??_C@_15GLKMLLHM@?$AAh?$AAr@
	DD	018H
	DD	FLAT:??_C@_1M@PMBNDPHD@?$AAh?$AAr?$AA?9?$AAb?$AAa@
	DD	0afH
	DD	FLAT:??_C@_1M@BPCKOEGE@?$AAh?$AAr?$AA?9?$AAh?$AAr@
	DD	05aH
	DD	FLAT:??_C@_15PGHLIDMF@?$AAh?$AAu@
	DD	0dH
	DD	FLAT:??_C@_1M@GACBMHKE@?$AAh?$AAu?$AA?9?$AAh?$AAu@
	DD	04fH
	DD	FLAT:??_C@_15LMKNDMHN@?$AAh?$AAy@
	DD	028H
	DD	FLAT:??_C@_1M@MILPAJJC@?$AAh?$AAy?$AA?9?$AAa?$AAm@
	DD	06aH
	DD	FLAT:??_C@_15NFICGAJK@?$AAi?$AAd@
	DD	01fH
	DD	FLAT:??_C@_1M@BABBICEC@?$AAi?$AAd?$AA?9?$AAi?$AAd@
	DD	061H
	DD	FLAT:??_C@_15BIEMAPLM@?$AAi?$AAs@
	DD	0eH
	DD	FLAT:??_C@_1M@BIKNHHPF@?$AAi?$AAs?$AA?9?$AAi?$AAs@
	DD	050H
	DD	FLAT:??_C@_15IFJLDHAF@?$AAi?$AAt@
	DD	0fH
	DD	FLAT:??_C@_1M@NMPCJPHE@?$AAi?$AAt?$AA?9?$AAc?$AAh@
	DD	095H
	DD	FLAT:??_C@_1M@GHKGFEDF@?$AAi?$AAt?$AA?9?$AAi?$AAt@
	DD	051H
	DD	FLAT:??_C@_15GEMIOCAG@?$AAj?$AAa@
	DD	010H
	DD	FLAT:??_C@_1M@NIEJCJJA@?$AAj?$AAa?$AA?9?$AAj?$AAp@
	DD	052H
	DD	FLAT:??_C@_15KPJEDBKD@?$AAk?$AAa@
	DD	02dH
	DD	FLAT:??_C@_1M@JILFNBIM@?$AAk?$AAa?$AA?9?$AAg?$AAe@
	DD	072H
	DD	FLAT:??_C@_15MACJNBMH@?$AAk?$AAk@
	DD	031H
	DD	FLAT:??_C@_1M@PACPMGPH@?$AAk?$AAk?$AA?9?$AAk?$AAz@
	DD	078H
	DD	FLAT:??_C@_15PHPHCBPF@?$AAk?$AAn@
	DD	03aH
	DD	FLAT:??_C@_1M@IELFGMHA@?$AAk?$AAn?$AA?9?$AAi?$AAn@
	DD	082H
	DD	FLAT:??_C@_15EPELEGJA@?$AAk?$AAo@
	DD	011H
	DD	FLAT:??_C@_17CNJFBPG@?$AAk?$AAo?$AAk@
	DD	03fH
	DD	FLAT:??_C@_1O@IBBJHCH@?$AAk?$AAo?$AAk?$AA?9?$AAi?$AAn@
	DD	089H
	DD	FLAT:??_C@_1M@DMHAEOGC@?$AAk?$AAo?$AA?9?$AAk?$AAr@
	DD	053H
	DD	FLAT:??_C@_15DKDJEOND@?$AAk?$AAy@
	DD	032H
	DD	FLAT:??_C@_1M@HBAHBIGA@?$AAk?$AAy?$AA?9?$AAk?$AAg@
	DD	079H
	DD	FLAT:??_C@_15NFFGKGLG@?$AAl?$AAt@
	DD	025H
	DD	FLAT:??_C@_1M@KPMILCJG@?$AAl?$AAt?$AA?9?$AAl?$AAt@
	DD	067H
	DD	FLAT:??_C@_15HPFPGODN@?$AAl?$AAv@
	DD	024H
	DD	FLAT:??_C@_1M@BDEKKCA@?$AAl?$AAv?$AA?9?$AAl?$AAv@
	DD	066H
	DD	FLAT:??_C@_1M@ELCKCCJJ@?$AAm?$AAi?$AA?9?$AAn?$AAz@
	DD	08eH
	DD	FLAT:??_C@_15BGHADCNK@?$AAm?$AAk@
	DD	02bH
	DD	FLAT:??_C@_1M@CBOOLAPA@?$AAm?$AAk?$AA?9?$AAm?$AAk@
	DD	06dH
	DD	FLAT:??_C@_1M@GPHNBJKN@?$AAm?$AAl?$AA?9?$AAi?$AAn@
	DD	083H
	DD	FLAT:??_C@_15CBKOMCOI@?$AAm?$AAn@
	DD	03dH
	DD	FLAT:??_C@_1M@PABJILIG@?$AAm?$AAn?$AA?9?$AAm?$AAn@
	DD	086H
	DD	FLAT:??_C@_15DLGBCKMP@?$AAm?$AAr@
	DD	03bH
	DD	FLAT:??_C@_1M@FGBKKIPG@?$AAm?$AAr?$AA?9?$AAi?$AAn@
	DD	084H
	DD	FLAT:??_C@_15IDNNENKK@?$AAm?$AAs@
	DD	030H
	DD	FLAT:??_C@_1M@NDBPDDAL@?$AAm?$AAs?$AA?9?$AAb?$AAn@
	DD	09dH
	DD	FLAT:??_C@_1M@OPIHOOPI@?$AAm?$AAs?$AA?9?$AAm?$AAy@
	DD	077H
	DD	FLAT:??_C@_1M@PPDBCNFM@?$AAm?$AAt?$AA?9?$AAm?$AAt@
	DD	075H
	DD	FLAT:??_C@_1M@KDJDKMDD@?$AAn?$AAb?$AA?9?$AAn?$AAo@
	DD	055H
	DD	FLAT:??_C@_15NDDHIMN@?$AAn?$AAl@
	DD	012H
	DD	FLAT:??_C@_1M@KFCFLMJP@?$AAn?$AAl?$AA?9?$AAb?$AAe@
	DD	096H
	DD	FLAT:??_C@_1M@KPOPDDGO@?$AAn?$AAl?$AA?9?$AAn?$AAl@
	DD	054H
	DD	FLAT:??_C@_1M@LJKPEMLN@?$AAn?$AAn?$AA?9?$AAn?$AAo@
	DD	097H
	DD	FLAT:??_C@_15BPIGNHCD@?$AAn?$AAo@
	DD	013H
	DD	FLAT:??_C@_1M@BDGHHBFL@?$AAn?$AAs?$AA?9?$AAz?$AAa@
	DD	08dH
	DD	FLAT:??_C@_15MGIFMDPL@?$AAp?$AAa@
	DD	036H
	DD	FLAT:??_C@_1M@IDEHOAP@?$AAp?$AAa?$AA?9?$AAi?$AAn@
	DD	07eH
	DD	FLAT:??_C@_15DEOPBLCG@?$AAp?$AAl@
	DD	014H
	DD	FLAT:??_C@_1M@HDBKGOGH@?$AAp?$AAl?$AA?9?$AAp?$AAl@
	DD	056H
	DD	FLAT:??_C@_15KBECGEFG@?$AAp?$AAt@
	DD	015H
	DD	FLAT:??_C@_1M@LJLLCMEH@?$AAp?$AAt?$AA?9?$AAb?$AAr@
	DD	057H
	DD	FLAT:??_C@_1M@NCMONAAL@?$AAp?$AAt?$AA?9?$AAp?$AAt@
	DD	098H
	DD	FLAT:??_C@_1O@EAKMAJDN@?$AAq?$AAu?$AAz?$AA?9?$AAb?$AAo@
	DD	08cH
	DD	FLAT:??_C@_1O@BHHPIGDN@?$AAq?$AAu?$AAz?$AA?9?$AAe?$AAc@
	DD	09fH
	DD	FLAT:??_C@_1O@GBAPEKMJ@?$AAq?$AAu?$AAz?$AA?9?$AAp?$AAe@
	DD	0a8H
	DD	FLAT:??_C@_15GLJCBFMD@?$AAr?$AAo@
	DD	016H
	DD	FLAT:??_C@_1M@CLGLEFBO@?$AAr?$AAo?$AA?9?$AAr?$AAo@
	DD	058H
	DD	FLAT:??_C@_15FEDGKCDI@?$AAr?$AAu@
	DD	017H
	DD	FLAT:??_C@_1M@CEEDODME@?$AAr?$AAu?$AA?9?$AAr?$AAu@
	DD	059H
	DD	FLAT:??_C@_15EABBLBFF@?$AAs?$AAa@
	DD	03cH
	DD	FLAT:??_C@_1M@HPKKKMPP@?$AAs?$AAa?$AA?9?$AAi?$AAn@
	DD	085H
	DD	FLAT:??_C@_1M@BKMAIGOJ@?$AAs?$AAe?$AA?9?$AAf?$AAi@
	DD	0a7H
	DD	FLAT:??_C@_1M@NDPIFLFI@?$AAs?$AAe?$AA?9?$AAn?$AAo@
	DD	076H
	DD	FLAT:??_C@_1M@DANKKHJ@?$AAs?$AAe?$AA?9?$AAs?$AAe@
	DD	09cH
	DD	FLAT:??_C@_15CPKMFBDB@?$AAs?$AAk@
	DD	019H
	DD	FLAT:??_C@_1M@PNBLONPJ@?$AAs?$AAk?$AA?9?$AAs?$AAk@
	DD	05bH
	DD	FLAT:??_C@_15LCHLGJII@?$AAs?$AAl@
	DD	022H
	DD	FLAT:??_C@_1M@LFMODOAL@?$AAs?$AAl?$AA?9?$AAs?$AAi@
	DD	064H
	DD	FLAT:??_C@_1O@DFKOMPG@?$AAs?$AAm?$AAa?$AA?9?$AAn?$AAo@
	DD	0beH
	DD	FLAT:??_C@_1O@NDKPBNNH@?$AAs?$AAm?$AAa?$AA?9?$AAs?$AAe@
	DD	0c3H
	DD	FLAT:??_C@_1O@PLLKBHAB@?$AAs?$AAm?$AAj?$AA?9?$AAn?$AAo@
	DD	0b0H
	DD	FLAT:??_C@_1O@CLEPOGCA@?$AAs?$AAm?$AAj?$AA?9?$AAs?$AAe@
	DD	0b8H
	DD	FLAT:??_C@_1O@DLGJGKMK@?$AAs?$AAm?$AAn?$AA?9?$AAf?$AAi@
	DD	0cbH
	DD	FLAT:??_C@_1O@OJDJGAJC@?$AAs?$AAm?$AAs?$AA?9?$AAf?$AAi@
	DD	0c7H
	DD	FLAT:??_C@_15BAAIOGMK@?$AAs?$AAq@
	DD	01aH
	DD	FLAT:??_C@_1M@BOFOGHPB@?$AAs?$AAq?$AA?9?$AAa?$AAl@
	DD	05cH
	DD	FLAT:??_C@_15CLNEJCE@?$AAs?$AAr@
	DD	0e3H
	DD	FLAT:??_C@_1BG@LJBBIPGB@?$AAs?$AAr?$AA?9?$AAb?$AAa?$AA?9?$AAc?$AAy?$AAr?$AAl@
	DD	0c2H
	DD	FLAT:??_C@_1BG@JLBENFOE@?$AAs?$AAr?$AA?9?$AAb?$AAa?$AA?9?$AAl?$AAa?$AAt?$AAn@
	DD	0bdH
	DD	FLAT:??_C@_1BG@KODPNHE@?$AAs?$AAr?$AA?9?$AAs?$AAp?$AA?9?$AAc?$AAy?$AAr?$AAl@
	DD	0a6H
	DD	FLAT:??_C@_1BG@CIOGKHPB@?$AAs?$AAr?$AA?9?$AAs?$AAp?$AA?9?$AAl?$AAa?$AAt?$AAn@
	DD	099H
	DD	FLAT:??_C@_15INNPNOHD@?$AAs?$AAv@
	DD	01bH
	DD	FLAT:??_C@_1M@NGFJLMAC@?$AAs?$AAv?$AA?9?$AAf?$AAi@
	DD	09aH
	DD	FLAT:??_C@_1M@MPJEJAJC@?$AAs?$AAv?$AA?9?$AAs?$AAe@
	DD	05dH
	DD	FLAT:??_C@_15DFGDLJBG@?$AAs?$AAw@
	DD	033H
	DD	FLAT:??_C@_1M@MPNDHLFK@?$AAs?$AAw?$AA?9?$AAk?$AAe@
	DD	07aH
	DD	FLAT:??_C@_17FFBJICPL@?$AAs?$AAy?$AAr@
	DD	040H
	DD	FLAT:??_C@_1O@KOHBJJI@?$AAs?$AAy?$AAr?$AA?9?$AAs?$AAy@
	DD	08aH
	DD	FLAT:??_C@_15FNBEIBON@?$AAt?$AAa@
	DD	038H
	DD	FLAT:??_C@_1M@LDCEFHA@?$AAt?$AAa?$AA?9?$AAi?$AAn@
	DD	080H
	DD	FLAT:??_C@_15NCHGBGLK@?$AAt?$AAe@
	DD	039H
	DD	FLAT:??_C@_1M@CNJOFAK@?$AAt?$AAe?$AA?9?$AAi?$AAn@
	DD	081H
	DD	FLAT:??_C@_15CABMMOGH@?$AAt?$AAh@
	DD	01cH
	DD	FLAT:??_C@_1M@GNAECACD@?$AAt?$AAh?$AA?9?$AAt?$AAh@
	DD	05eH
	DD	FLAT:??_C@_1M@CHBIHOJO@?$AAt?$AAn?$AA?9?$AAz?$AAa@
	DD	06eH
	DD	FLAT:??_C@_15BPLIHJJM@?$AAt?$AAr@
	DD	01dH
	DD	FLAT:??_C@_1M@GCCMIGPJ@?$AAt?$AAr?$AA?9?$AAt?$AAr@
	DD	05fH
	DD	FLAT:??_C@_15DKNDCGEA@?$AAt?$AAt@
	DD	035H
	DD	FLAT:??_C@_1M@CELMCNBK@?$AAt?$AAt?$AA?9?$AAr?$AAu@
	DD	07cH
	DD	FLAT:??_C@_15PJPFLCCM@?$AAu?$AAk@
	DD	020H
	DD	FLAT:??_C@_1M@KLMCELGA@?$AAu?$AAk?$AA?9?$AAu?$AAa@
	DD	062H
	DD	FLAT:??_C@_15NEOEKKDJ@?$AAu?$AAr@
	DD	01eH
	DD	FLAT:??_C@_1M@EPAJJAJF@?$AAu?$AAr?$AA?9?$AAp?$AAk@
	DD	060H
	DD	FLAT:??_C@_15BBFAICNG@?$AAu?$AAz@
	DD	034H
	DD	FLAT:??_C@_1BG@GEGPMCDJ@?$AAu?$AAz?$AA?9?$AAu?$AAz?$AA?9?$AAc?$AAy?$AAr?$AAl@
	DD	09eH
	DD	FLAT:??_C@_1BG@EGGKJILM@?$AAu?$AAz?$AA?9?$AAu?$AAz?$AA?9?$AAl?$AAa?$AAt?$AAn@
	DD	07bH
	DD	FLAT:??_C@_15NFGIAIAJ@?$AAv?$AAi@
	DD	027H
	DD	FLAT:??_C@_1M@GFOCLFF@?$AAv?$AAi?$AA?9?$AAv?$AAn@
	DD	069H
	DD	FLAT:??_C@_1M@CPAMEDFI@?$AAx?$AAh?$AA?9?$AAz?$AAa@
	DD	06fH
	DD	FLAT:??_C@_1O@EBKIFIGN@?$AAz?$AAh?$AA?9?$AAc?$AAh?$AAs@
	DD	03H
	DD	FLAT:??_C@_1O@NMHPGANE@?$AAz?$AAh?$AA?9?$AAc?$AAh?$AAt@
	DD	0e2H
	DD	FLAT:??_C@_1M@LPINJOMC@?$AAz?$AAh?$AA?9?$AAc?$AAn@
	DD	090H
	DD	FLAT:??_C@_1M@OCJEJODD@?$AAz?$AAh?$AA?9?$AAh?$AAk@
	DD	0a1H
	DD	FLAT:??_C@_1M@DNDLJINH@?$AAz?$AAh?$AA?9?$AAm?$AAo@
	DD	0b2H
	DD	FLAT:??_C@_1M@MBFDNDND@?$AAz?$AAh?$AA?9?$AAs?$AAg@
	DD	0aaH
	DD	FLAT:??_C@_1M@IMEPLEPE@?$AAz?$AAh?$AA?9?$AAt?$AAw@
	DD	046H
	DD	FLAT:??_C@_1M@BBGHNHJP@?$AAz?$AAu?$AA?9?$AAz?$AAa@
	DD	070H
CONST	ENDS
;	COMDAT ??_C@_15CLNEJCE@?$AAs?$AAr@
CONST	SEGMENT
??_C@_15CLNEJCE@?$AAs?$AAr@ DB 's', 00H, 'r', 00H, 00H, 00H ; `string'
CONST	ENDS
;	COMDAT ??_C@_1O@ICJHKIIK@?$AAz?$AAh?$AA?9?$AAC?$AAH?$AAT@
CONST	SEGMENT
??_C@_1O@ICJHKIIK@?$AAz?$AAh?$AA?9?$AAC?$AAH?$AAT@ DB 'z', 00H, 'h', 00H, '-'
	DB	00H, 'C', 00H, 'H', 00H, 'T', 00H, 00H, 00H	; `string'
CONST	ENDS
;	COMDAT ??_C@_1M@CGFMKEEK@?$AAe?$AAs?$AA?9?$AAP?$AAR@
CONST	SEGMENT
??_C@_1M@CGFMKEEK@?$AAe?$AAs?$AA?9?$AAP?$AAR@ DB 'e', 00H, 's', 00H, '-', 00H
	DB	'P', 00H, 'R', 00H, 00H, 00H			; `string'
CONST	ENDS
;	COMDAT ??_C@_1M@JIJIBHDP@?$AAe?$AAs?$AA?9?$AAN?$AAI@
CONST	SEGMENT
??_C@_1M@JIJIBHDP@?$AAe?$AAs?$AA?9?$AAN?$AAI@ DB 'e', 00H, 's', 00H, '-', 00H
	DB	'N', 00H, 'I', 00H, 00H, 00H			; `string'
CONST	ENDS
;	COMDAT ??_C@_1M@NDBGMMJL@?$AAe?$AAs?$AA?9?$AAH?$AAN@
CONST	SEGMENT
??_C@_1M@NDBGMMJL@?$AAe?$AAs?$AA?9?$AAH?$AAN@ DB 'e', 00H, 's', 00H, '-', 00H
	DB	'H', 00H, 'N', 00H, 00H, 00H			; `string'
CONST	ENDS
;	COMDAT ??_C@_1M@CPKKEBLD@?$AAe?$AAs?$AA?9?$AAS?$AAV@
CONST	SEGMENT
??_C@_1M@CPKKEBLD@?$AAe?$AAs?$AA?9?$AAS?$AAV@ DB 'e', 00H, 's', 00H, '-', 00H
	DB	'S', 00H, 'V', 00H, 00H, 00H			; `string'
CONST	ENDS
;	COMDAT ??_C@_1M@MKDBIIJI@?$AAe?$AAs?$AA?9?$AAB?$AAO@
CONST	SEGMENT
??_C@_1M@MKDBIIJI@?$AAe?$AAs?$AA?9?$AAB?$AAO@ DB 'e', 00H, 's', 00H, '-', 00H
	DB	'B', 00H, 'O', 00H, 00H, 00H			; `string'
CONST	ENDS
;	COMDAT ??_C@_1M@EDGINPNP@?$AAa?$AAr?$AA?9?$AAQ?$AAA@
CONST	SEGMENT
??_C@_1M@EDGINPNP@?$AAa?$AAr?$AA?9?$AAQ?$AAA@ DB 'a', 00H, 'r', 00H, '-', 00H
	DB	'Q', 00H, 'A', 00H, 00H, 00H			; `string'
CONST	ENDS
;	COMDAT ??_C@_1M@PBFNCDEL@?$AAe?$AAs?$AA?9?$AAP?$AAY@
CONST	SEGMENT
??_C@_1M@PBFNCDEL@?$AAe?$AAs?$AA?9?$AAP?$AAY@ DB 'e', 00H, 's', 00H, '-', 00H
	DB	'P', 00H, 'Y', 00H, 00H, 00H			; `string'
CONST	ENDS
;	COMDAT ??_C@_1M@LLCCOAGA@?$AAa?$AAr?$AA?9?$AAB?$AAH@
CONST	SEGMENT
??_C@_1M@LLCCOAGA@?$AAa?$AAr?$AA?9?$AAB?$AAH@ DB 'a', 00H, 'r', 00H, '-', 00H
	DB	'B', 00H, 'H', 00H, 00H, 00H			; `string'
CONST	ENDS
;	COMDAT ??_C@_1M@KBJALCPI@?$AAe?$AAs?$AA?9?$AAU?$AAY@
CONST	SEGMENT
??_C@_1M@KBJALCPI@?$AAe?$AAs?$AA?9?$AAU?$AAY@ DB 'e', 00H, 's', 00H, '-', 00H
	DB	'U', 00H, 'Y', 00H, 00H, 00H			; `string'
CONST	ENDS
;	COMDAT ??_C@_1M@MPNMEKBD@?$AAa?$AAr?$AA?9?$AAA?$AAE@
CONST	SEGMENT
??_C@_1M@MPNMEKBD@?$AAa?$AAr?$AA?9?$AAA?$AAE@ DB 'a', 00H, 'r', 00H, '-', 00H
	DB	'A', 00H, 'E', 00H, 00H, 00H			; `string'
CONST	ENDS
;	COMDAT ??_C@_1M@BDNIPEND@?$AAe?$AAs?$AA?9?$AAC?$AAL@
CONST	SEGMENT
??_C@_1M@BDNIPEND@?$AAe?$AAs?$AA?9?$AAC?$AAL@ DB 'e', 00H, 's', 00H, '-', 00H
	DB	'C', 00H, 'L', 00H, 00H, 00H			; `string'
CONST	ENDS
;	COMDAT ??_C@_1M@MLKIBJOJ@?$AAe?$AAn?$AA?9?$AAP?$AAH@
CONST	SEGMENT
??_C@_1M@MLKIBJOJ@?$AAe?$AAn?$AA?9?$AAP?$AAH@ DB 'e', 00H, 'n', 00H, '-', 00H
	DB	'P', 00H, 'H', 00H, 00H, 00H			; `string'
CONST	ENDS
;	COMDAT ??_C@_1M@JEFHPGGB@?$AAa?$AAr?$AA?9?$AAK?$AAW@
CONST	SEGMENT
??_C@_1M@JEFHPGGB@?$AAa?$AAr?$AA?9?$AAK?$AAW@ DB 'a', 00H, 'r', 00H, '-', 00H
	DB	'K', 00H, 'W', 00H, 00H, 00H			; `string'
CONST	ENDS
;	COMDAT ??_C@_1M@JNOCAHJI@?$AAe?$AAs?$AA?9?$AAE?$AAC@
CONST	SEGMENT
??_C@_1M@JNOCAHJI@?$AAe?$AAs?$AA?9?$AAE?$AAC@ DB 'e', 00H, 's', 00H, '-', 00H
	DB	'E', 00H, 'C', 00H, 00H, 00H			; `string'
CONST	ENDS
;	COMDAT ??_C@_1M@GCEJHNEG@?$AAe?$AAn?$AA?9?$AAZ?$AAW@
CONST	SEGMENT
??_C@_1M@GCEJHNEG@?$AAe?$AAn?$AA?9?$AAZ?$AAW@ DB 'e', 00H, 'n', 00H, '-', 00H
	DB	'Z', 00H, 'W', 00H, 00H, 00H			; `string'
CONST	ENDS
;	COMDAT ??_C@_1M@OOJFGBHE@?$AAa?$AAr?$AA?9?$AAL?$AAB@
CONST	SEGMENT
??_C@_1M@OOJFGBHE@?$AAa?$AAr?$AA?9?$AAL?$AAB@ DB 'a', 00H, 'r', 00H, '-', 00H
	DB	'L', 00H, 'B', 00H, 00H, 00H			; `string'
CONST	ENDS
;	COMDAT ??_C@_1M@OONGHFHE@?$AAe?$AAs?$AA?9?$AAA?$AAR@
CONST	SEGMENT
??_C@_1M@OONGHFHE@?$AAe?$AAs?$AA?9?$AAA?$AAR@ DB 'e', 00H, 's', 00H, '-', 00H
	DB	'A', 00H, 'R', 00H, 00H, 00H			; `string'
CONST	ENDS
;	COMDAT ??_C@_1M@EKPGLDNI@?$AAe?$AAn?$AA?9?$AAT?$AAT@
CONST	SEGMENT
??_C@_1M@EKPGLDNI@?$AAe?$AAn?$AA?9?$AAT?$AAT@ DB 'e', 00H, 'n', 00H, '-', 00H
	DB	'T', 00H, 'T', 00H, 00H, 00H			; `string'
CONST	ENDS
;	COMDAT ??_C@_1M@MKKGFKLE@?$AAa?$AAr?$AA?9?$AAJ?$AAO@
CONST	SEGMENT
??_C@_1M@MKKGFKLE@?$AAa?$AAr?$AA?9?$AAJ?$AAO@ DB 'a', 00H, 'r', 00H, '-', 00H
	DB	'J', 00H, 'O', 00H, 00H, 00H			; `string'
CONST	ENDS
;	COMDAT ??_C@_1M@OLJCMLGM@?$AAe?$AAs?$AA?9?$AAP?$AAE@
CONST	SEGMENT
??_C@_1M@OLJCMLGM@?$AAe?$AAs?$AA?9?$AAP?$AAE@ DB 'e', 00H, 's', 00H, '-', 00H
	DB	'P', 00H, 'E', 00H, 00H, 00H			; `string'
CONST	ENDS
;	COMDAT ??_C@_1M@HPKGCFGN@?$AAe?$AAn?$AA?9?$AAB?$AAZ@
CONST	SEGMENT
??_C@_1M@HPKGCFGN@?$AAe?$AAn?$AA?9?$AAB?$AAZ@ DB 'e', 00H, 'n', 00H, '-', 00H
	DB	'B', 00H, 'Z', 00H, 00H, 00H			; `string'
CONST	ENDS
;	COMDAT ??_C@_1M@JLANABKE@?$AAa?$AAr?$AA?9?$AAS?$AAY@
CONST	SEGMENT
??_C@_1M@JLANABKE@?$AAa?$AAr?$AA?9?$AAS?$AAY@ DB 'a', 00H, 'r', 00H, '-', 00H
	DB	'S', 00H, 'Y', 00H, 00H, 00H			; `string'
CONST	ENDS
;	COMDAT ??_C@_1O@JMPHMAMC@?$AAs?$AAm?$AAn?$AA?9?$AAF?$AAI@
CONST	SEGMENT
??_C@_1O@JMPHMAMC@?$AAs?$AAm?$AAn?$AA?9?$AAF?$AAI@ DB 's', 00H, 'm', 00H, 'n'
	DB	00H, '-', 00H, 'F', 00H, 'I', 00H, 00H, 00H	; `string'
CONST	ENDS
;	COMDAT ??_C@_1M@BGNFLDN@?$AAe?$AAs?$AA?9?$AAC?$AAO@
CONST	SEGMENT
??_C@_1M@BGNFLDN@?$AAe?$AAs?$AA?9?$AAC?$AAO@ DB 'e', 00H, 's', 00H, '-', 00H
	DB	'C', 00H, 'O', 00H, 00H, 00H			; `string'
CONST	ENDS
;	COMDAT ??_C@_1M@CBFHIJLI@?$AAe?$AAn?$AA?9?$AAC?$AAB@
CONST	SEGMENT
??_C@_1M@CBFHIJLI@?$AAe?$AAn?$AA?9?$AAC?$AAB@ DB 'e', 00H, 'n', 00H, '-', 00H
	DB	'C', 00H, 'B', 00H, 00H, 00H			; `string'
CONST	ENDS
;	COMDAT ??_C@_1M@CAFJMKOF@?$AAa?$AAr?$AA?9?$AAY?$AAE@
CONST	SEGMENT
??_C@_1M@CAFJMKOF@?$AAa?$AAr?$AA?9?$AAY?$AAE@ DB 'a', 00H, 'r', 00H, '-', 00H
	DB	'Y', 00H, 'E', 00H, 00H, 00H			; `string'
CONST	ENDS
;	COMDAT ??_C@_1O@EOKHMKJK@?$AAs?$AAm?$AAs?$AA?9?$AAF?$AAI@
CONST	SEGMENT
??_C@_1O@EOKHMKJK@?$AAs?$AAm?$AAs?$AA?9?$AAF?$AAI@ DB 's', 00H, 'm', 00H, 's'
	DB	00H, '-', 00H, 'F', 00H, 'I', 00H, 00H, 00H	; `string'
CONST	ENDS
;	COMDAT ??_C@_1M@DNMLCIHB@?$AAe?$AAs?$AA?9?$AAV?$AAE@
CONST	SEGMENT
??_C@_1M@DNMLCIHB@?$AAe?$AAs?$AA?9?$AAV?$AAE@ DB 'e', 00H, 's', 00H, '-', 00H
	DB	'V', 00H, 'E', 00H, 00H, 00H			; `string'
CONST	ENDS
;	COMDAT ??_C@_1M@FODLMICG@?$AAe?$AAn?$AA?9?$AAJ?$AAM@
CONST	SEGMENT
??_C@_1M@FODLMICG@?$AAe?$AAn?$AA?9?$AAJ?$AAM@ DB 'e', 00H, 'n', 00H, '-', 00H
	DB	'J', 00H, 'M', 00H, 00H, 00H			; `string'
CONST	ENDS
;	COMDAT ??_C@_1M@DAGCADIM@?$AAa?$AAr?$AA?9?$AAO?$AAM@
CONST	SEGMENT
??_C@_1M@DAGCADIM@?$AAa?$AAr?$AA?9?$AAO?$AAM@ DB 'a', 00H, 'r', 00H, '-', 00H
	DB	'O', 00H, 'M', 00H, 00H, 00H			; `string'
CONST	ENDS
;	COMDAT ??_C@_1O@HEDBLHNP@?$AAs?$AAm?$AAa?$AA?9?$AAS?$AAE@
CONST	SEGMENT
??_C@_1O@HEDBLHNP@?$AAs?$AAm?$AAa?$AA?9?$AAS?$AAE@ DB 's', 00H, 'm', 00H, 'a'
	DB	00H, '-', 00H, 'S', 00H, 'E', 00H, 00H, 00H	; `string'
CONST	ENDS
;	COMDAT ??_C@_1BG@CMBHIPBE@?$AAs?$AAr?$AA?9?$AAB?$AAA?$AA?9?$AAC?$AAy?$AAr?$AAl@
CONST	SEGMENT
??_C@_1BG@CMBHIPBE@?$AAs?$AAr?$AA?9?$AAB?$AAA?$AA?9?$AAC?$AAy?$AAr?$AAl@ DB 's'
	DB	00H, 'r', 00H, '-', 00H, 'B', 00H, 'A', 00H, '-', 00H, 'C', 00H
	DB	'y', 00H, 'r', 00H, 'l', 00H, 00H, 00H	; `string'
CONST	ENDS
;	COMDAT ??_C@_1M@BMGIGLIF@?$AAe?$AAs?$AA?9?$AAD?$AAO@
CONST	SEGMENT
??_C@_1M@BMGIGLIF@?$AAe?$AAs?$AA?9?$AAD?$AAO@ DB 'e', 00H, 's', 00H, '-', 00H
	DB	'D', 00H, 'O', 00H, 00H, 00H			; `string'
CONST	ENDS
;	COMDAT ??_C@_1M@BHDLHFAF@?$AAe?$AAn?$AA?9?$AAZ?$AAA@
CONST	SEGMENT
??_C@_1M@BHDLHFAF@?$AAe?$AAn?$AA?9?$AAZ?$AAA@ DB 'e', 00H, 'n', 00H, '-', 00H
	DB	'Z', 00H, 'A', 00H, 00H, 00H			; `string'
CONST	ENDS
;	COMDAT ??_C@_1M@ELMGFODK@?$AAa?$AAr?$AA?9?$AAT?$AAN@
CONST	SEGMENT
??_C@_1M@ELMGFODK@?$AAa?$AAr?$AA?9?$AAT?$AAN@ DB 'a', 00H, 'r', 00H, '-', 00H
	DB	'T', 00H, 'N', 00H, 00H, 00H			; `string'
CONST	ENDS
;	COMDAT ??_C@_1O@KEMEEGPO@?$AAs?$AAm?$AAa?$AA?9?$AAN?$AAO@
CONST	SEGMENT
??_C@_1O@KEMEEGPO@?$AAs?$AAm?$AAa?$AA?9?$AAN?$AAO@ DB 's', 00H, 'm', 00H, 'a'
	DB	00H, '-', 00H, 'N', 00H, 'O', 00H, 00H, 00H	; `string'
CONST	ENDS
;	COMDAT ??_C@_1BG@OBCNFJB@?$AAs?$AAr?$AA?9?$AAB?$AAA?$AA?9?$AAL?$AAa?$AAt?$AAn@
CONST	SEGMENT
??_C@_1BG@OBCNFJB@?$AAs?$AAr?$AA?9?$AAB?$AAA?$AA?9?$AAL?$AAa?$AAt?$AAn@ DB 's'
	DB	00H, 'r', 00H, '-', 00H, 'B', 00H, 'A', 00H, '-', 00H, 'L', 00H
	DB	'a', 00H, 't', 00H, 'n', 00H, 00H, 00H	; `string'
CONST	ENDS
;	COMDAT ??_C@_1M@OJONDMDL@?$AAf?$AAr?$AA?9?$AAM?$AAC@
CONST	SEGMENT
??_C@_1M@OJONDMDL@?$AAf?$AAr?$AA?9?$AAM?$AAC@ DB 'f', 00H, 'r', 00H, '-', 00H
	DB	'M', 00H, 'C', 00H, 00H, 00H			; `string'
CONST	ENDS
;	COMDAT ??_C@_1M@GEPAFMDL@?$AAe?$AAs?$AA?9?$AAP?$AAA@
CONST	SEGMENT
??_C@_1M@GEPAFMDL@?$AAe?$AAs?$AA?9?$AAP?$AAA@ DB 'e', 00H, 's', 00H, '-', 00H
	DB	'P', 00H, 'A', 00H, 00H, 00H			; `string'
CONST	ENDS
;	COMDAT ??_C@_1M@BNBLJCGH@?$AAe?$AAn?$AA?9?$AAI?$AAE@
CONST	SEGMENT
??_C@_1M@BNBLJCGH@?$AAe?$AAn?$AA?9?$AAI?$AAE@ DB 'e', 00H, 'n', 00H, '-', 00H
	DB	'I', 00H, 'E', 00H, 00H, 00H			; `string'
CONST	ENDS
;	COMDAT ??_C@_1M@DHHMBNDP@?$AAa?$AAr?$AA?9?$AAM?$AAA@
CONST	SEGMENT
??_C@_1M@DHHMBNDP@?$AAa?$AAr?$AA?9?$AAM?$AAA@ DB 'a', 00H, 'r', 00H, '-', 00H
	DB	'M', 00H, 'A', 00H, 00H, 00H			; `string'
CONST	ENDS
;	COMDAT ??_C@_1O@IMNBEMCI@?$AAs?$AAm?$AAj?$AA?9?$AAS?$AAE@
CONST	SEGMENT
??_C@_1O@IMNBEMCI@?$AAs?$AAm?$AAj?$AA?9?$AAS?$AAE@ DB 's', 00H, 'm', 00H, 'j'
	DB	00H, '-', 00H, 'S', 00H, 'E', 00H, 00H, 00H	; `string'
CONST	ENDS
;	COMDAT ??_C@_1BG@NFKKMAFG@?$AAb?$AAs?$AA?9?$AAB?$AAA?$AA?9?$AAL?$AAa?$AAt?$AAn@
CONST	SEGMENT
??_C@_1BG@NFKKMAFG@?$AAb?$AAs?$AA?9?$AAB?$AAA?$AA?9?$AAL?$AAa?$AAt?$AAn@ DB 'b'
	DB	00H, 's', 00H, '-', 00H, 'B', 00H, 'A', 00H, '-', 00H, 'L', 00H
	DB	'a', 00H, 't', 00H, 'n', 00H, 00H, 00H	; `string'
CONST	ENDS
;	COMDAT ??_C@_1M@FHMDOHNN@?$AAf?$AAr?$AA?9?$AAL?$AAU@
CONST	SEGMENT
??_C@_1M@FHMDOHNN@?$AAf?$AAr?$AA?9?$AAL?$AAU@ DB 'f', 00H, 'r', 00H, '-', 00H
	DB	'L', 00H, 'U', 00H, 00H, 00H			; `string'
CONST	ENDS
;	COMDAT ??_C@_1M@KDBONEHP@?$AAe?$AAs?$AA?9?$AAC?$AAR@
CONST	SEGMENT
??_C@_1M@KDBONEHP@?$AAe?$AAs?$AA?9?$AAC?$AAR@ DB 'e', 00H, 's', 00H, '-', 00H
	DB	'C', 00H, 'R', 00H, 00H, 00H			; `string'
CONST	ENDS
;	COMDAT ??_C@_1M@IGEOFBG@?$AAe?$AAn?$AA?9?$AAN?$AAZ@
CONST	SEGMENT
??_C@_1M@IGEOFBG@?$AAe?$AAn?$AA?9?$AAN?$AAZ@ DB 'e', 00H, 'n', 00H, '-', 00H
	DB	'N', 00H, 'Z', 00H, 00H, 00H			; `string'
CONST	ENDS
;	COMDAT ??_C@_1M@GEEFALPE@?$AAd?$AAe?$AA?9?$AAL?$AAI@
CONST	SEGMENT
??_C@_1M@GEEFALPE@?$AAd?$AAe?$AA?9?$AAL?$AAI@ DB 'd', 00H, 'e', 00H, '-', 00H
	DB	'L', 00H, 'I', 00H, 00H, 00H			; `string'
CONST	ENDS
;	COMDAT ??_C@_1M@JKKFDCNP@?$AAz?$AAh?$AA?9?$AAM?$AAO@
CONST	SEGMENT
??_C@_1M@JKKFDCNP@?$AAz?$AAh?$AA?9?$AAM?$AAO@ DB 'z', 00H, 'h', 00H, '-', 00H
	DB	'M', 00H, 'O', 00H, 00H, 00H			; `string'
CONST	ENDS
;	COMDAT ??_C@_1M@JHGLJMGJ@?$AAa?$AAr?$AA?9?$AAD?$AAZ@
CONST	SEGMENT
??_C@_1M@JHGLJMGJ@?$AAa?$AAr?$AA?9?$AAD?$AAZ@ DB 'a', 00H, 'r', 00H, '-', 00H
	DB	'D', 00H, 'Z', 00H, 00H, 00H			; `string'
CONST	ENDS
;	COMDAT ??_C@_1O@FMCELNAJ@?$AAs?$AAm?$AAj?$AA?9?$AAN?$AAO@
CONST	SEGMENT
??_C@_1O@FMCELNAJ@?$AAs?$AAm?$AAj?$AA?9?$AAN?$AAO@ DB 's', 00H, 'm', 00H, 'j'
	DB	00H, '-', 00H, 'N', 00H, 'O', 00H, 00H, 00H	; `string'
CONST	ENDS
;	COMDAT ??_C@_1M@FLIDJFHL@?$AAh?$AAr?$AA?9?$AAB?$AAA@
CONST	SEGMENT
??_C@_1M@FLIDJFHL@?$AAh?$AAr?$AA?9?$AAB?$AAA@ DB 'h', 00H, 'r', 00H, '-', 00H
	DB	'B', 00H, 'A', 00H, 00H, 00H			; `string'
CONST	ENDS
;	COMDAT ??_C@_1M@EOGNKEK@?$AAf?$AAr?$AA?9?$AAC?$AAH@
CONST	SEGMENT
??_C@_1M@EOGNKEK@?$AAf?$AAr?$AA?9?$AAC?$AAH@ DB 'f', 00H, 'r', 00H, '-', 00H
	DB	'C', 00H, 'H', 00H, 00H, 00H			; `string'
CONST	ENDS
;	COMDAT ??_C@_1M@BNOEMJLF@?$AAe?$AAs?$AA?9?$AAG?$AAT@
CONST	SEGMENT
??_C@_1M@BNOEMJLF@?$AAe?$AAs?$AA?9?$AAG?$AAT@ DB 'e', 00H, 's', 00H, '-', 00H
	DB	'G', 00H, 'T', 00H, 00H, 00H			; `string'
CONST	ENDS
;	COMDAT ??_C@_1M@DDOCCGFG@?$AAe?$AAn?$AA?9?$AAC?$AAA@
CONST	SEGMENT
??_C@_1M@DDOCCGFG@?$AAe?$AAn?$AA?9?$AAC?$AAA@ DB 'e', 00H, 'n', 00H, '-', 00H
	DB	'C', 00H, 'A', 00H, 00H, 00H			; `string'
CONST	ENDS
;	COMDAT ??_C@_1M@HOIKODND@?$AAd?$AAe?$AA?9?$AAL?$AAU@
CONST	SEGMENT
??_C@_1M@HOIKODND@?$AAd?$AAe?$AA?9?$AAL?$AAU@ DB 'd', 00H, 'e', 00H, '-', 00H
	DB	'L', 00H, 'U', 00H, 00H, 00H			; `string'
CONST	ENDS
;	COMDAT ??_C@_1M@GGMNHJNL@?$AAz?$AAh?$AA?9?$AAS?$AAG@
CONST	SEGMENT
??_C@_1M@GGMNHJNL@?$AAz?$AAh?$AA?9?$AAS?$AAG@ DB 'z', 00H, 'h', 00H, '-', 00H
	DB	'S', 00H, 'G', 00H, 00H, 00H			; `string'
CONST	ENDS
;	COMDAT ??_C@_1M@GJINLBOK@?$AAa?$AAr?$AA?9?$AAL?$AAY@
CONST	SEGMENT
??_C@_1M@GJINLBOK@?$AAa?$AAr?$AA?9?$AAL?$AAY@ DB 'a', 00H, 'r', 00H, '-', 00H
	DB	'L', 00H, 'Y', 00H, 00H, 00H			; `string'
CONST	ENDS
;	COMDAT ??_C@_1O@MGJBOAMB@?$AAq?$AAu?$AAz?$AA?9?$AAP?$AAE@
CONST	SEGMENT
??_C@_1O@MGJBOAMB@?$AAq?$AAu?$AAz?$AA?9?$AAP?$AAE@ DB 'q', 00H, 'u', 00H, 'z'
	DB	00H, '-', 00H, 'P', 00H, 'E', 00H, 00H, 00H	; `string'
CONST	ENDS
;	COMDAT ??_C@_1M@LNFOCMOB@?$AAs?$AAe?$AA?9?$AAF?$AAI@
CONST	SEGMENT
??_C@_1M@LNFOCMOB@?$AAs?$AAe?$AA?9?$AAF?$AAI@ DB 's', 00H, 'e', 00H, '-', 00H
	DB	'F', 00H, 'I', 00H, 00H, 00H			; `string'
CONST	ENDS
;	COMDAT ??_C@_1BG@JPOFPNAB@?$AAs?$AAr?$AA?9?$AAS?$AAP?$AA?9?$AAC?$AAy?$AAr?$AAl@
CONST	SEGMENT
??_C@_1BG@JPOFPNAB@?$AAs?$AAr?$AA?9?$AAS?$AAP?$AA?9?$AAC?$AAy?$AAr?$AAl@ DB 's'
	DB	00H, 'r', 00H, '-', 00H, 'S', 00H, 'P', 00H, '-', 00H, 'C', 00H
	DB	'y', 00H, 'r', 00H, 'l', 00H, 00H, 00H	; `string'
CONST	ENDS
;	COMDAT ??_C@_1M@HJOOJFMA@?$AAf?$AAr?$AA?9?$AAC?$AAA@
CONST	SEGMENT
??_C@_1M@HJOOJFMA@?$AAf?$AAr?$AA?9?$AAC?$AAA@ DB 'f', 00H, 'r', 00H, '-', 00H
	DB	'C', 00H, 'A', 00H, 00H, 00H			; `string'
CONST	ENDS
;	COMDAT ??_C@_1M@MNPLFAAH@?$AAe?$AAs?$AA?9?$AAE?$AAS@
CONST	SEGMENT
??_C@_1M@MNPLFAAH@?$AAe?$AAs?$AA?9?$AAE?$AAS@ DB 'e', 00H, 's', 00H, '-', 00H
	DB	'E', 00H, 'S', 00H, 00H, 00H			; `string'
CONST	ENDS
;	COMDAT ??_C@_1M@KBFBEHJF@?$AAe?$AAn?$AA?9?$AAA?$AAU@
CONST	SEGMENT
??_C@_1M@KBFBEHJF@?$AAe?$AAn?$AA?9?$AAA?$AAU@ DB 'e', 00H, 'n', 00H, '-', 00H
	DB	'A', 00H, 'U', 00H, 00H, 00H			; `string'
CONST	ENDS
;	COMDAT ??_C@_1M@HKKIJHGI@?$AAd?$AAe?$AA?9?$AAA?$AAT@
CONST	SEGMENT
??_C@_1M@HKKIJHGI@?$AAd?$AAe?$AA?9?$AAA?$AAT@ DB 'd', 00H, 'e', 00H, '-', 00H
	DB	'A', 00H, 'T', 00H, 00H, 00H			; `string'
CONST	ENDS
;	COMDAT ??_C@_1M@EFAKDEDL@?$AAz?$AAh?$AA?9?$AAH?$AAK@
CONST	SEGMENT
??_C@_1M@EFAKDEDL@?$AAz?$AAh?$AA?9?$AAH?$AAK@ DB 'z', 00H, 'h', 00H, '-', 00H
	DB	'H', 00H, 'K', 00H, 00H, 00H			; `string'
CONST	ENDS
;	COMDAT ??_C@_1M@POEEMAIO@?$AAa?$AAr?$AA?9?$AAE?$AAG@
CONST	SEGMENT
??_C@_1M@POEEMAIO@?$AAa?$AAr?$AA?9?$AAE?$AAG@ DB 'a', 00H, 'r', 00H, '-', 00H
	DB	'E', 00H, 'G', 00H, 00H, 00H			; `string'
CONST	ENDS
;	COMDAT ??_C@_1O@LAOBCMDF@?$AAq?$AAu?$AAz?$AA?9?$AAE?$AAC@
CONST	SEGMENT
??_C@_1O@LAOBCMDF@?$AAq?$AAu?$AAz?$AA?9?$AAE?$AAC@ DB 'q', 00H, 'u', 00H, 'z'
	DB	00H, '-', 00H, 'E', 00H, 'C', 00H, 00H, 00H	; `string'
CONST	ENDS
;	COMDAT ??_C@_1BG@PBGJMCEM@?$AAu?$AAz?$AA?9?$AAU?$AAZ?$AA?9?$AAC?$AAy?$AAr?$AAl@
CONST	SEGMENT
??_C@_1BG@PBGJMCEM@?$AAu?$AAz?$AA?9?$AAU?$AAZ?$AA?9?$AAC?$AAy?$AAr?$AAl@ DB 'u'
	DB	00H, 'z', 00H, '-', 00H, 'U', 00H, 'Z', 00H, '-', 00H, 'C', 00H
	DB	'y', 00H, 'r', 00H, 'l', 00H, 00H, 00H	; `string'
CONST	ENDS
;	COMDAT ??_C@_1M@HEIBJJAD@?$AAm?$AAs?$AA?9?$AAB?$AAN@
CONST	SEGMENT
??_C@_1M@HEIBJJAD@?$AAm?$AAs?$AA?9?$AAB?$AAN@ DB 'm', 00H, 's', 00H, '-', 00H
	DB	'B', 00H, 'N', 00H, 00H, 00H			; `string'
CONST	ENDS
;	COMDAT ??_C@_1M@KEJDAAHB@?$AAs?$AAe?$AA?9?$AAS?$AAE@
CONST	SEGMENT
??_C@_1M@KEJDAAHB@?$AAs?$AAe?$AA?9?$AAS?$AAE@ DB 's', 00H, 'e', 00H, '-', 00H
	DB	'S', 00H, 'E', 00H, 00H, 00H			; `string'
CONST	ENDS
;	COMDAT ??_C@_1BG@DGCJGJBE@?$AAa?$AAz?$AA?9?$AAA?$AAZ?$AA?9?$AAC?$AAy?$AAr?$AAl@
CONST	SEGMENT
??_C@_1BG@DGCJGJBE@?$AAa?$AAz?$AA?9?$AAA?$AAZ?$AA?9?$AAC?$AAy?$AAr?$AAl@ DB 'a'
	DB	00H, 'z', 00H, '-', 00H, 'A', 00H, 'Z', 00H, '-', 00H, 'C', 00H
	DB	'y', 00H, 'r', 00H, 'l', 00H, 00H, 00H	; `string'
CONST	ENDS
;	COMDAT ??_C@_1M@HBMHBGAK@?$AAs?$AAv?$AA?9?$AAF?$AAI@
CONST	SEGMENT
??_C@_1M@HBMHBGAK@?$AAs?$AAv?$AA?9?$AAF?$AAI@ DB 's', 00H, 'v', 00H, '-', 00H
	DB	'F', 00H, 'I', 00H, 00H, 00H			; `string'
CONST	ENDS
;	COMDAT ??_C@_1BG@LNOAKHIE@?$AAs?$AAr?$AA?9?$AAS?$AAP?$AA?9?$AAL?$AAa?$AAt?$AAn@
CONST	SEGMENT
??_C@_1BG@LNOAKHIE@?$AAs?$AAr?$AA?9?$AAS?$AAP?$AA?9?$AAL?$AAa?$AAt?$AAn@ DB 's'
	DB	00H, 'r', 00H, '-', 00H, 'S', 00H, 'P', 00H, '-', 00H, 'L', 00H
	DB	'a', 00H, 't', 00H, 'n', 00H, 00H, 00H	; `string'
CONST	ENDS
;	COMDAT ??_C@_1M@HFFAHKAD@?$AAp?$AAt?$AA?9?$AAP?$AAT@
CONST	SEGMENT
??_C@_1M@HFFAHKAD@?$AAp?$AAt?$AA?9?$AAP?$AAT@ DB 'p', 00H, 't', 00H, '-', 00H
	DB	'P', 00H, 'T', 00H, 00H, 00H			; `string'
CONST	ENDS
;	COMDAT ??_C@_1M@BODBOGLF@?$AAn?$AAn?$AA?9?$AAN?$AAO@
CONST	SEGMENT
??_C@_1M@BODBOGLF@?$AAn?$AAn?$AA?9?$AAN?$AAO@ DB 'n', 00H, 'n', 00H, '-', 00H
	DB	'N', 00H, 'O', 00H, 00H, 00H			; `string'
CONST	ENDS
;	COMDAT ??_C@_1M@CLLBGJH@?$AAn?$AAl?$AA?9?$AAB?$AAE@
CONST	SEGMENT
??_C@_1M@CLLBGJH@?$AAn?$AAl?$AA?9?$AAB?$AAE@ DB 'n', 00H, 'l', 00H, '-', 00H
	DB	'B', 00H, 'E', 00H, 00H, 00H			; `string'
CONST	ENDS
;	COMDAT ??_C@_1M@HLGMDFHM@?$AAi?$AAt?$AA?9?$AAC?$AAH@
CONST	SEGMENT
??_C@_1M@HLGMDFHM@?$AAi?$AAt?$AA?9?$AAC?$AAH@ DB 'i', 00H, 't', 00H, '-', 00H
	DB	'C', 00H, 'H', 00H, 00H, 00H			; `string'
CONST	ENDS
;	COMDAT ??_C@_1M@DNNANBDC@?$AAf?$AAr?$AA?9?$AAB?$AAE@
CONST	SEGMENT
??_C@_1M@DNNANBDC@?$AAf?$AAr?$AA?9?$AAB?$AAE@ DB 'f', 00H, 'r', 00H, '-', 00H
	DB	'B', 00H, 'E', 00H, 00H, 00H			; `string'
CONST	ENDS
;	COMDAT ??_C@_1M@PGKJFFGL@?$AAe?$AAs?$AA?9?$AAM?$AAX@
CONST	SEGMENT
??_C@_1M@PGKJFFGL@?$AAe?$AAs?$AA?9?$AAM?$AAX@ DB 'e', 00H, 's', 00H, '-', 00H
	DB	'M', 00H, 'X', 00H, 00H, 00H			; `string'
CONST	ENDS
;	COMDAT ??_C@_1M@LKMGMLKO@?$AAe?$AAn?$AA?9?$AAG?$AAB@
CONST	SEGMENT
??_C@_1M@LKMGMLKO@?$AAe?$AAn?$AA?9?$AAG?$AAB@ DB 'e', 00H, 'n', 00H, '-', 00H
	DB	'G', 00H, 'B', 00H, 00H, 00H			; `string'
CONST	ENDS
;	COMDAT ??_C@_1M@CNKPNOEE@?$AAd?$AAe?$AA?9?$AAC?$AAH@
CONST	SEGMENT
??_C@_1M@CNKPNOEE@?$AAd?$AAe?$AA?9?$AAC?$AAH@ DB 'd', 00H, 'e', 00H, '-', 00H
	DB	'C', 00H, 'H', 00H, 00H, 00H			; `string'
CONST	ENDS
;	COMDAT ??_C@_1M@BIBDDEMK@?$AAz?$AAh?$AA?9?$AAC?$AAN@
CONST	SEGMENT
??_C@_1M@BIBDDEMK@?$AAz?$AAh?$AA?9?$AAC?$AAN@ DB 'z', 00H, 'h', 00H, '-', 00H
	DB	'C', 00H, 'N', 00H, 00H, 00H			; `string'
CONST	ENDS
;	COMDAT ??_C@_1M@PMPEAILG@?$AAa?$AAr?$AA?9?$AAI?$AAQ@
CONST	SEGMENT
??_C@_1M@PMPEAILG@?$AAa?$AAr?$AA?9?$AAI?$AAQ@ DB 'a', 00H, 'r', 00H, '-', 00H
	DB	'I', 00H, 'Q', 00H, 00H, 00H			; `string'
CONST	ENDS
;	COMDAT ??_C@_1M@OMLEIIJB@?$AAm?$AAi?$AA?9?$AAN?$AAZ@
CONST	SEGMENT
??_C@_1M@OMLEIIJB@?$AAm?$AAi?$AA?9?$AAN?$AAZ@ DB 'm', 00H, 'i', 00H, '-', 00H
	DB	'N', 00H, 'Z', 00H, 00H, 00H			; `string'
CONST	ENDS
;	COMDAT ??_C@_1M@LEPJNLFD@?$AAn?$AAs?$AA?9?$AAZ?$AAA@
CONST	SEGMENT
??_C@_1M@LEPJNLFD@?$AAn?$AAs?$AA?9?$AAZ?$AAA@ DB 'n', 00H, 's', 00H, '-', 00H
	DB	'Z', 00H, 'A', 00H, 00H, 00H			; `string'
CONST	ENDS
;	COMDAT ??_C@_1O@OHDCKDDF@?$AAq?$AAu?$AAz?$AA?9?$AAB?$AAO@
CONST	SEGMENT
??_C@_1O@OHDCKDDF@?$AAq?$AAu?$AAz?$AA?9?$AAB?$AAO@ DB 'q', 00H, 'u', 00H, 'z'
	DB	00H, '-', 00H, 'B', 00H, 'O', 00H, 00H, 00H	; `string'
CONST	ENDS
;	COMDAT ??_C@_1O@MKEKBLAH@?$AAd?$AAi?$AAv?$AA?9?$AAM?$AAV@
CONST	SEGMENT
??_C@_1O@MKEKBLAH@?$AAd?$AAi?$AAv?$AA?9?$AAM?$AAV@ DB 'd', 00H, 'i', 00H, 'v'
	DB	00H, '-', 00H, 'M', 00H, 'V', 00H, 00H, 00H	; `string'
CONST	ENDS
;	COMDAT ??_C@_1O@KNHJLDJA@?$AAs?$AAy?$AAr?$AA?9?$AAS?$AAY@
CONST	SEGMENT
??_C@_1O@KNHJLDJA@?$AAs?$AAy?$AAr?$AA?9?$AAS?$AAY@ DB 's', 00H, 'y', 00H, 'r'
	DB	00H, '-', 00H, 'S', 00H, 'Y', 00H, 00H, 00H	; `string'
CONST	ENDS
;	COMDAT ??_C@_1O@KPIPDNCP@?$AAk?$AAo?$AAk?$AA?9?$AAI?$AAN@
CONST	SEGMENT
??_C@_1O@KPIPDNCP@?$AAk?$AAo?$AAk?$AA?9?$AAI?$AAN@ DB 'k', 00H, 'o', 00H, 'k'
	DB	00H, '-', 00H, 'I', 00H, 'N', 00H, 00H, 00H	; `string'
CONST	ENDS
;	COMDAT ??_C@_1M@PHGFBEPN@?$AAg?$AAl?$AA?9?$AAE?$AAS@
CONST	SEGMENT
??_C@_1M@PHGFBEPN@?$AAg?$AAl?$AA?9?$AAE?$AAS@ DB 'g', 00H, 'l', 00H, '-', 00H
	DB	'E', 00H, 'S', 00H, 00H, 00H			; `string'
CONST	ENDS
;	COMDAT ??_C@_1M@JAIJPENP@?$AAc?$AAy?$AA?9?$AAG?$AAB@
CONST	SEGMENT
??_C@_1M@JAIJPENP@?$AAc?$AAy?$AA?9?$AAG?$AAB@ DB 'c', 00H, 'y', 00H, '-', 00H
	DB	'G', 00H, 'B', 00H, 00H, 00H			; `string'
CONST	ENDS
;	COMDAT ??_C@_1M@FHIHCBIO@?$AAm?$AAn?$AA?9?$AAM?$AAN@
CONST	SEGMENT
??_C@_1M@FHIHCBIO@?$AAm?$AAn?$AA?9?$AAM?$AAN@ DB 'm', 00H, 'n', 00H, '-', 00H
	DB	'M', 00H, 'N', 00H, 00H, 00H			; `string'
CONST	ENDS
;	COMDAT ??_C@_1M@NIDEAGPH@?$AAs?$AAa?$AA?9?$AAI?$AAN@
CONST	SEGMENT
??_C@_1M@NIDEAGPH@?$AAs?$AAa?$AA?9?$AAI?$AAN@ DB 's', 00H, 'a', 00H, '-', 00H
	DB	'I', 00H, 'N', 00H, 00H, 00H			; `string'
CONST	ENDS
;	COMDAT ??_C@_1M@PBIEACPO@?$AAm?$AAr?$AA?9?$AAI?$AAN@
CONST	SEGMENT
??_C@_1M@PBIEACPO@?$AAm?$AAr?$AA?9?$AAI?$AAN@ DB 'm', 00H, 'r', 00H, '-', 00H
	DB	'I', 00H, 'N', 00H, 00H, 00H			; `string'
CONST	ENDS
;	COMDAT ??_C@_1M@MIODLDKF@?$AAm?$AAl?$AA?9?$AAI?$AAN@
CONST	SEGMENT
??_C@_1M@MIODLDKF@?$AAm?$AAl?$AA?9?$AAI?$AAN@ DB 'm', 00H, 'l', 00H, '-', 00H
	DB	'I', 00H, 'N', 00H, 00H, 00H			; `string'
CONST	ENDS
;	COMDAT ??_C@_1M@CDCLMGHI@?$AAk?$AAn?$AA?9?$AAI?$AAN@
CONST	SEGMENT
??_C@_1M@CDCLMGHI@?$AAk?$AAn?$AA?9?$AAI?$AAN@ DB 'k', 00H, 'n', 00H, '-', 00H
	DB	'I', 00H, 'N', 00H, 00H, 00H			; `string'
CONST	ENDS
;	COMDAT ??_C@_1M@KFEHEPAC@?$AAt?$AAe?$AA?9?$AAI?$AAN@
CONST	SEGMENT
??_C@_1M@KFEHEPAC@?$AAt?$AAe?$AA?9?$AAI?$AAN@ DB 't', 00H, 'e', 00H, '-', 00H
	DB	'I', 00H, 'N', 00H, 00H, 00H			; `string'
CONST	ENDS
;	COMDAT ??_C@_1M@KMKMOPHI@?$AAt?$AAa?$AA?9?$AAI?$AAN@
CONST	SEGMENT
??_C@_1M@KMKMOPHI@?$AAt?$AAa?$AA?9?$AAI?$AAN@ DB 't', 00H, 'a', 00H, '-', 00H
	DB	'I', 00H, 'N', 00H, 00H, 00H			; `string'
CONST	ENDS
;	COMDAT ??_C@_1M@PJGPPBOG@?$AAg?$AAu?$AA?9?$AAI?$AAN@
CONST	SEGMENT
??_C@_1M@PJGPPBOG@?$AAg?$AAu?$AA?9?$AAI?$AAN@ DB 'g', 00H, 'u', 00H, '-', 00H
	DB	'I', 00H, 'N', 00H, 00H, 00H			; `string'
CONST	ENDS
;	COMDAT ??_C@_1M@KPKKNEAH@?$AAp?$AAa?$AA?9?$AAI?$AAN@
CONST	SEGMENT
??_C@_1M@KPKKNEAH@?$AAp?$AAa?$AA?9?$AAI?$AAN@ DB 'p', 00H, 'a', 00H, '-', 00H
	DB	'I', 00H, 'N', 00H, 00H, 00H			; `string'
CONST	ENDS
;	COMDAT ??_C@_1M@LOICPMOJ@?$AAb?$AAn?$AA?9?$AAI?$AAN@
CONST	SEGMENT
??_C@_1M@LOICPMOJ@?$AAb?$AAn?$AA?9?$AAI?$AAN@ DB 'b', 00H, 'n', 00H, '-', 00H
	DB	'I', 00H, 'N', 00H, 00H, 00H			; `string'
CONST	ENDS
;	COMDAT ??_C@_1M@IDCCIHBC@?$AAt?$AAt?$AA?9?$AAR?$AAU@
CONST	SEGMENT
??_C@_1M@IDCCIHBC@?$AAt?$AAt?$AA?9?$AAR?$AAU@ DB 't', 00H, 't', 00H, '-', 00H
	DB	'R', 00H, 'U', 00H, 00H, 00H			; `string'
CONST	ENDS
;	COMDAT ??_C@_1BG@NDGMJIMJ@?$AAu?$AAz?$AA?9?$AAU?$AAZ?$AA?9?$AAL?$AAa?$AAt?$AAn@
CONST	SEGMENT
??_C@_1BG@NDGMJIMJ@?$AAu?$AAz?$AA?9?$AAU?$AAZ?$AA?9?$AAL?$AAa?$AAt?$AAn@ DB 'u'
	DB	00H, 'z', 00H, '-', 00H, 'U', 00H, 'Z', 00H, '-', 00H, 'L', 00H
	DB	'a', 00H, 't', 00H, 'n', 00H, 00H, 00H	; `string'
CONST	ENDS
;	COMDAT ??_C@_1M@GIENNBFC@?$AAs?$AAw?$AA?9?$AAK?$AAE@
CONST	SEGMENT
??_C@_1M@GIENNBFC@?$AAs?$AAw?$AA?9?$AAK?$AAE@ DB 's', 00H, 'w', 00H, '-', 00H
	DB	'K', 00H, 'E', 00H, 00H, 00H			; `string'
CONST	ENDS
;	COMDAT ??_C@_1M@NGJJLCGI@?$AAk?$AAy?$AA?9?$AAK?$AAG@
CONST	SEGMENT
??_C@_1M@NGJJLCGI@?$AAk?$AAy?$AA?9?$AAK?$AAG@ DB 'k', 00H, 'y', 00H, '-', 00H
	DB	'K', 00H, 'G', 00H, 00H, 00H			; `string'
CONST	ENDS
;	COMDAT ??_C@_1M@FHLBGMPP@?$AAk?$AAk?$AA?9?$AAK?$AAZ@
CONST	SEGMENT
??_C@_1M@FHLBGMPP@?$AAk?$AAk?$AA?9?$AAK?$AAZ@ DB 'k', 00H, 'k', 00H, '-', 00H
	DB	'K', 00H, 'Z', 00H, 00H, 00H			; `string'
CONST	ENDS
;	COMDAT ??_C@_1M@EIBJEEPA@?$AAm?$AAs?$AA?9?$AAM?$AAY@
CONST	SEGMENT
??_C@_1M@EIBJEEPA@?$AAm?$AAs?$AA?9?$AAM?$AAY@ DB 'm', 00H, 's', 00H, '-', 00H
	DB	'M', 00H, 'Y', 00H, 00H, 00H			; `string'
CONST	ENDS
;	COMDAT ??_C@_1M@HEGGPBFA@?$AAs?$AAe?$AA?9?$AAN?$AAO@
CONST	SEGMENT
??_C@_1M@HEGGPBFA@?$AAs?$AAe?$AA?9?$AAN?$AAO@ DB 's', 00H, 'e', 00H, '-', 00H
	DB	'N', 00H, 'O', 00H, 00H, 00H			; `string'
CONST	ENDS
;	COMDAT ??_C@_1M@FIKPIHFE@?$AAm?$AAt?$AA?9?$AAM?$AAT@
CONST	SEGMENT
??_C@_1M@FIKPIHFE@?$AAm?$AAt?$AA?9?$AAM?$AAT@ DB 'm', 00H, 't', 00H, '-', 00H
	DB	'M', 00H, 'T', 00H, 00H, 00H			; `string'
CONST	ENDS
;	COMDAT ??_C@_1M@LGGJAPPB@?$AAh?$AAi?$AA?9?$AAI?$AAN@
CONST	SEGMENT
??_C@_1M@LGGJAPPB@?$AAh?$AAi?$AA?9?$AAI?$AAN@ DB 'h', 00H, 'i', 00H, '-', 00H
	DB	'I', 00H, 'N', 00H, 00H, 00H			; `string'
CONST	ENDS
;	COMDAT ??_C@_1M@BLKMHJBI@?$AAf?$AAo?$AA?9?$AAF?$AAO@
CONST	SEGMENT
??_C@_1M@BLKMHJBI@?$AAf?$AAo?$AA?9?$AAF?$AAO@ DB 'f', 00H, 'o', 00H, '-', 00H
	DB	'F', 00H, 'O', 00H, 00H, 00H			; `string'
CONST	ENDS
;	COMDAT ??_C@_1M@DPCLHLIE@?$AAk?$AAa?$AA?9?$AAG?$AAE@
CONST	SEGMENT
??_C@_1M@DPCLHLIE@?$AAk?$AAa?$AA?9?$AAG?$AAE@ DB 'k', 00H, 'a', 00H, '-', 00H
	DB	'G', 00H, 'E', 00H, 00H, 00H			; `string'
CONST	ENDS
;	COMDAT ??_C@_1M@HOKAOIO@?$AAa?$AAf?$AA?9?$AAZ?$AAA@
CONST	SEGMENT
??_C@_1M@HOKAOIO@?$AAa?$AAf?$AA?9?$AAZ?$AAA@ DB 'a', 00H, 'f', 00H, '-', 00H
	DB	'Z', 00H, 'A', 00H, 00H, 00H			; `string'
CONST	ENDS
;	COMDAT ??_C@_1M@LGPJHNJH@?$AAz?$AAu?$AA?9?$AAZ?$AAA@
CONST	SEGMENT
??_C@_1M@LGPJHNJH@?$AAz?$AAu?$AA?9?$AAZ?$AAA@ DB 'z', 00H, 'u', 00H, '-', 00H
	DB	'Z', 00H, 'A', 00H, 00H, 00H			; `string'
CONST	ENDS
;	COMDAT ??_C@_1M@IIJCOJFA@?$AAx?$AAh?$AA?9?$AAZ?$AAA@
CONST	SEGMENT
??_C@_1M@IIJCOJFA@?$AAx?$AAh?$AA?9?$AAZ?$AAA@ DB 'x', 00H, 'h', 00H, '-', 00H
	DB	'Z', 00H, 'A', 00H, 00H, 00H			; `string'
CONST	ENDS
;	COMDAT ??_C@_1M@IAIGNEJG@?$AAt?$AAn?$AA?9?$AAZ?$AAA@
CONST	SEGMENT
??_C@_1M@IAIGNEJG@?$AAt?$AAn?$AA?9?$AAZ?$AAA@ DB 't', 00H, 'n', 00H, '-', 00H
	DB	'Z', 00H, 'A', 00H, 00H, 00H			; `string'
CONST	ENDS
;	COMDAT ??_C@_1M@IGHABKPI@?$AAm?$AAk?$AA?9?$AAM?$AAK@
CONST	SEGMENT
??_C@_1M@IGHABKPI@?$AAm?$AAk?$AA?9?$AAM?$AAK@ DB 'm', 00H, 'k', 00H, '-', 00H
	DB	'M', 00H, 'K', 00H, 00H, 00H			; `string'
CONST	ENDS
;	COMDAT ??_C@_1M@MAOFCAEA@?$AAe?$AAu?$AA?9?$AAE?$AAS@
CONST	SEGMENT
??_C@_1M@MAOFCAEA@?$AAe?$AAu?$AA?9?$AAE?$AAS@ DB 'e', 00H, 'u', 00H, '-', 00H
	DB	'E', 00H, 'S', 00H, 00H, 00H			; `string'
CONST	ENDS
;	COMDAT ??_C@_1BG@BECMDDJB@?$AAa?$AAz?$AA?9?$AAA?$AAZ?$AA?9?$AAL?$AAa?$AAt?$AAn@
CONST	SEGMENT
??_C@_1BG@BECMDDJB@?$AAa?$AAz?$AA?9?$AAA?$AAZ?$AA?9?$AAL?$AAa?$AAt?$AAn@ DB 'a'
	DB	00H, 'z', 00H, '-', 00H, 'A', 00H, 'Z', 00H, '-', 00H, 'L', 00H
	DB	'a', 00H, 't', 00H, 'n', 00H, 00H, 00H	; `string'
CONST	ENDS
;	COMDAT ??_C@_1M@GPCBKDJK@?$AAh?$AAy?$AA?9?$AAA?$AAM@
CONST	SEGMENT
??_C@_1M@GPCBKDJK@?$AAh?$AAy?$AA?9?$AAA?$AAM@ DB 'h', 00H, 'y', 00H, '-', 00H
	DB	'A', 00H, 'M', 00H, 00H, 00H			; `string'
CONST	ENDS
;	COMDAT ??_C@_1M@KBMAIBFN@?$AAv?$AAi?$AA?9?$AAV?$AAN@
CONST	SEGMENT
??_C@_1M@KBMAIBFN@?$AAv?$AAi?$AA?9?$AAV?$AAN@ DB 'v', 00H, 'i', 00H, '-', 00H
	DB	'V', 00H, 'N', 00H, 00H, 00H			; `string'
CONST	ENDS
;	COMDAT ??_C@_1M@FGEAHEDM@?$AAf?$AAa?$AA?9?$AAI?$AAR@
CONST	SEGMENT
??_C@_1M@FGEAHEDM@?$AAf?$AAa?$AA?9?$AAI?$AAR@ DB 'f', 00H, 'a', 00H, '-', 00H
	DB	'I', 00H, 'R', 00H, 00H, 00H			; `string'
CONST	ENDS
;	COMDAT ??_C@_1M@IFGBIJO@?$AAl?$AAt?$AA?9?$AAL?$AAT@
CONST	SEGMENT
??_C@_1M@IFGBIJO@?$AAl?$AAt?$AA?9?$AAL?$AAT@ DB 'l', 00H, 't', 00H, '-', 00H
	DB	'L', 00H, 'T', 00H, 00H, 00H			; `string'
CONST	ENDS
;	COMDAT ??_C@_1M@KGKKAACI@?$AAl?$AAv?$AA?9?$AAL?$AAV@
CONST	SEGMENT
??_C@_1M@KGKKAACI@?$AAl?$AAv?$AA?9?$AAL?$AAV@ DB 'l', 00H, 'v', 00H, '-', 00H
	DB	'L', 00H, 'V', 00H, 00H, 00H			; `string'
CONST	ENDS
;	COMDAT ??_C@_1M@FKFFEDDN@?$AAe?$AAt?$AA?9?$AAE?$AAE@
CONST	SEGMENT
??_C@_1M@FKFFEDDN@?$AAe?$AAt?$AA?9?$AAE?$AAE@ DB 'e', 00H, 't', 00H, '-', 00H
	DB	'E', 00H, 'E', 00H, 00H, 00H			; `string'
CONST	ENDS
;	COMDAT ??_C@_1M@BCFAJEAD@?$AAs?$AAl?$AA?9?$AAS?$AAI@
CONST	SEGMENT
??_C@_1M@BCFAJEAD@?$AAs?$AAl?$AA?9?$AAS?$AAI@ DB 's', 00H, 'l', 00H, '-', 00H
	DB	'S', 00H, 'I', 00H, 00H, 00H			; `string'
CONST	ENDS
;	COMDAT ??_C@_1M@OBGLJIPL@?$AAb?$AAe?$AA?9?$AAB?$AAY@
CONST	SEGMENT
??_C@_1M@OBGLJIPL@?$AAb?$AAe?$AA?9?$AAB?$AAY@ DB 'b', 00H, 'e', 00H, '-', 00H
	DB	'B', 00H, 'Y', 00H, 00H, 00H			; `string'
CONST	ENDS
;	COMDAT ??_C@_1M@MFMOBGI@?$AAu?$AAk?$AA?9?$AAU?$AAA@
CONST	SEGMENT
??_C@_1M@MFMOBGI@?$AAu?$AAk?$AA?9?$AAU?$AAA@ DB 'u', 00H, 'k', 00H, '-', 00H
	DB	'U', 00H, 'A', 00H, 00H, 00H			; `string'
CONST	ENDS
;	COMDAT ??_C@_1M@LHIPCIEK@?$AAi?$AAd?$AA?9?$AAI?$AAD@
CONST	SEGMENT
??_C@_1M@LHIPCIEK@?$AAi?$AAd?$AA?9?$AAI?$AAD@ DB 'i', 00H, 'd', 00H, '-', 00H
	DB	'I', 00H, 'D', 00H, 00H, 00H			; `string'
CONST	ENDS
;	COMDAT ??_C@_1M@OIJHDKJN@?$AAu?$AAr?$AA?9?$AAP?$AAK@
CONST	SEGMENT
??_C@_1M@OIJHDKJN@?$AAu?$AAr?$AA?9?$AAP?$AAK@ DB 'u', 00H, 'r', 00H, '-', 00H
	DB	'P', 00H, 'K', 00H, 00H, 00H			; `string'
CONST	ENDS
;	COMDAT ??_C@_1M@MFLCCMPB@?$AAt?$AAr?$AA?9?$AAT?$AAR@
CONST	SEGMENT
??_C@_1M@MFLCCMPB@?$AAt?$AAr?$AA?9?$AAT?$AAR@ DB 't', 00H, 'r', 00H, '-', 00H
	DB	'T', 00H, 'R', 00H, 00H, 00H			; `string'
CONST	ENDS
;	COMDAT ??_C@_1M@MKJKIKCL@?$AAt?$AAh?$AA?9?$AAT?$AAH@
CONST	SEGMENT
??_C@_1M@MKJKIKCL@?$AAt?$AAh?$AA?9?$AAT?$AAH@ DB 't', 00H, 'h', 00H, '-', 00H
	DB	'T', 00H, 'H', 00H, 00H, 00H			; `string'
CONST	ENDS
;	COMDAT ??_C@_1M@GIAKDKJK@?$AAs?$AAv?$AA?9?$AAS?$AAE@
CONST	SEGMENT
??_C@_1M@GIAKDKJK@?$AAs?$AAv?$AA?9?$AAS?$AAE@ DB 's', 00H, 'v', 00H, '-', 00H
	DB	'S', 00H, 'E', 00H, 00H, 00H			; `string'
CONST	ENDS
;	COMDAT ??_C@_1M@LJMAMNPJ@?$AAs?$AAq?$AA?9?$AAA?$AAL@
CONST	SEGMENT
??_C@_1M@LJMAMNPJ@?$AAs?$AAq?$AA?9?$AAA?$AAL@ DB 's', 00H, 'q', 00H, '-', 00H
	DB	'A', 00H, 'L', 00H, 00H, 00H			; `string'
CONST	ENDS
;	COMDAT ??_C@_1M@FKIFEHPB@?$AAs?$AAk?$AA?9?$AAS?$AAK@
CONST	SEGMENT
??_C@_1M@FKIFEHPB@?$AAs?$AAk?$AA?9?$AAS?$AAK@ DB 's', 00H, 'k', 00H, '-', 00H
	DB	'S', 00H, 'K', 00H, 00H, 00H			; `string'
CONST	ENDS
;	COMDAT ??_C@_1M@LILEEOGM@?$AAh?$AAr?$AA?9?$AAH?$AAR@
CONST	SEGMENT
??_C@_1M@LILEEOGM@?$AAh?$AAr?$AA?9?$AAH?$AAR@ DB 'h', 00H, 'r', 00H, '-', 00H
	DB	'H', 00H, 'R', 00H, 00H, 00H			; `string'
CONST	ENDS
;	COMDAT ??_C@_1M@IDNNEJMM@?$AAr?$AAu?$AA?9?$AAR?$AAU@
CONST	SEGMENT
??_C@_1M@IDNNEJMM@?$AAr?$AAu?$AA?9?$AAR?$AAU@ DB 'r', 00H, 'u', 00H, '-', 00H
	DB	'R', 00H, 'U', 00H, 00H, 00H			; `string'
CONST	ENDS
;	COMDAT ??_C@_1M@IMPFOPBG@?$AAr?$AAo?$AA?9?$AAR?$AAO@
CONST	SEGMENT
??_C@_1M@IMPFOPBG@?$AAr?$AAo?$AA?9?$AAR?$AAO@ DB 'r', 00H, 'o', 00H, '-', 00H
	DB	'R', 00H, 'O', 00H, 00H, 00H			; `string'
CONST	ENDS
;	COMDAT ??_C@_1M@BOCFIGEP@?$AAp?$AAt?$AA?9?$AAB?$AAR@
CONST	SEGMENT
??_C@_1M@BOCFIGEP@?$AAp?$AAt?$AA?9?$AAB?$AAR@ DB 'p', 00H, 't', 00H, '-', 00H
	DB	'B', 00H, 'R', 00H, 00H, 00H			; `string'
CONST	ENDS
;	COMDAT ??_C@_1M@NEIEMEGP@?$AAp?$AAl?$AA?9?$AAP?$AAL@
CONST	SEGMENT
??_C@_1M@NEIEMEGP@?$AAp?$AAl?$AA?9?$AAP?$AAL@ DB 'p', 00H, 'l', 00H, '-', 00H
	DB	'P', 00H, 'L', 00H, 00H, 00H			; `string'
CONST	ENDS
;	COMDAT ??_C@_1M@EANAGDL@?$AAn?$AAb?$AA?9?$AAN?$AAO@
CONST	SEGMENT
??_C@_1M@EANAGDL@?$AAn?$AAb?$AA?9?$AAN?$AAO@ DB 'n', 00H, 'b', 00H, '-', 00H
	DB	'N', 00H, 'O', 00H, 00H, 00H			; `string'
CONST	ENDS
;	COMDAT ??_C@_1M@IHBJJGG@?$AAn?$AAl?$AA?9?$AAN?$AAL@
CONST	SEGMENT
??_C@_1M@IHBJJGG@?$AAn?$AAl?$AA?9?$AAN?$AAL@ DB 'n', 00H, 'l', 00H, '-', 00H
	DB	'N', 00H, 'L', 00H, 00H, 00H			; `string'
CONST	ENDS
;	COMDAT ??_C@_1M@JLOOOEGK@?$AAk?$AAo?$AA?9?$AAK?$AAR@
CONST	SEGMENT
??_C@_1M@JLOOOEGK@?$AAk?$AAo?$AA?9?$AAK?$AAR@ DB 'k', 00H, 'o', 00H, '-', 00H
	DB	'K', 00H, 'R', 00H, 00H, 00H			; `string'
CONST	ENDS
;	COMDAT ??_C@_1M@HPNHIDJI@?$AAj?$AAa?$AA?9?$AAJ?$AAP@
CONST	SEGMENT
??_C@_1M@HPNHIDJI@?$AAj?$AAa?$AA?9?$AAJ?$AAP@ DB 'j', 00H, 'a', 00H, '-', 00H
	DB	'J', 00H, 'P', 00H, 00H, 00H			; `string'
CONST	ENDS
;	COMDAT ??_C@_1M@MADIPODN@?$AAi?$AAt?$AA?9?$AAI?$AAT@
CONST	SEGMENT
??_C@_1M@MADIPODN@?$AAi?$AAt?$AA?9?$AAI?$AAT@ DB 'i', 00H, 't', 00H, '-', 00H
	DB	'I', 00H, 'T', 00H, 00H, 00H			; `string'
CONST	ENDS
;	COMDAT ??_C@_1M@LPDDNNPN@?$AAi?$AAs?$AA?9?$AAI?$AAS@
CONST	SEGMENT
??_C@_1M@LPDDNNPN@?$AAi?$AAs?$AA?9?$AAI?$AAS@ DB 'i', 00H, 's', 00H, '-', 00H
	DB	'I', 00H, 'S', 00H, 00H, 00H			; `string'
CONST	ENDS
;	COMDAT ??_C@_1M@MHLPGNKM@?$AAh?$AAu?$AA?9?$AAH?$AAU@
CONST	SEGMENT
??_C@_1M@MHLPGNKM@?$AAh?$AAu?$AA?9?$AAH?$AAU@ DB 'h', 00H, 'u', 00H, '-', 00H
	DB	'H', 00H, 'U', 00H, 00H, 00H			; `string'
CONST	ENDS
;	COMDAT ??_C@_1M@GFMCHPE@?$AAh?$AAe?$AA?9?$AAI?$AAL@
CONST	SEGMENT
??_C@_1M@GFMCHPE@?$AAh?$AAe?$AA?9?$AAI?$AAL@ DB 'h', 00H, 'e', 00H, '-', 00H
	DB	'I', 00H, 'L', 00H, 00H, 00H			; `string'
CONST	ENDS
;	COMDAT ??_C@_1M@GLIPPMAC@?$AAf?$AAr?$AA?9?$AAF?$AAR@
CONST	SEGMENT
??_C@_1M@GLIPPMAC@?$AAf?$AAr?$AA?9?$AAF?$AAR@ DB 'f', 00H, 'r', 00H, '-', 00H
	DB	'F', 00H, 'R', 00H, 00H, 00H			; `string'
CONST	ENDS
;	COMDAT ??_C@_1M@DDNJFGID@?$AAf?$AAi?$AA?9?$AAF?$AAI@
CONST	SEGMENT
??_C@_1M@DDNJFGID@?$AAf?$AAi?$AA?9?$AAF?$AAI@ DB 'f', 00H, 'i', 00H, '-', 00H
	DB	'F', 00H, 'I', 00H, 00H, 00H			; `string'
CONST	ENDS
;	COMDAT ??_C@_1M@BMHNFIME@?$AAe?$AAn?$AA?9?$AAU?$AAS@
CONST	SEGMENT
??_C@_1M@BMHNFIME@?$AAe?$AAn?$AA?9?$AAU?$AAS@ DB 'e', 00H, 'n', 00H, '-', 00H
	DB	'U', 00H, 'S', 00H, 00H, 00H			; `string'
CONST	ENDS
;	COMDAT ??_C@_1M@OOCKEMAM@?$AAe?$AAl?$AA?9?$AAG?$AAR@
CONST	SEGMENT
??_C@_1M@OOCKEMAM@?$AAe?$AAl?$AA?9?$AAG?$AAR@ DB 'e', 00H, 'l', 00H, '-', 00H
	DB	'G', 00H, 'R', 00H, 00H, 00H			; `string'
CONST	ENDS
;	COMDAT ??_C@_1M@MCMADGCB@?$AAd?$AAe?$AA?9?$AAD?$AAE@
CONST	SEGMENT
??_C@_1M@MCMADGCB@?$AAd?$AAe?$AA?9?$AAD?$AAE@ DB 'd', 00H, 'e', 00H, '-', 00H
	DB	'D', 00H, 'E', 00H, 00H, 00H			; `string'
CONST	ENDS
;	COMDAT ??_C@_1M@CLPEOBGI@?$AAd?$AAa?$AA?9?$AAD?$AAK@
CONST	SEGMENT
??_C@_1M@CLPEOBGI@?$AAd?$AAa?$AA?9?$AAD?$AAK@ DB 'd', 00H, 'a', 00H, '-', 00H
	DB	'D', 00H, 'K', 00H, 00H, 00H			; `string'
CONST	ENDS
;	COMDAT ??_C@_1M@IJJHFJHA@?$AAc?$AAs?$AA?9?$AAC?$AAZ@
CONST	SEGMENT
??_C@_1M@IJJHFJHA@?$AAc?$AAs?$AA?9?$AAC?$AAZ@ DB 'c', 00H, 's', 00H, '-', 00H
	DB	'C', 00H, 'Z', 00H, 00H, 00H			; `string'
CONST	ENDS
;	COMDAT ??_C@_1M@CLNBBOPM@?$AAz?$AAh?$AA?9?$AAT?$AAW@
CONST	SEGMENT
??_C@_1M@CLNBBOPM@?$AAz?$AAh?$AA?9?$AAT?$AAW@ DB 'z', 00H, 'h', 00H, '-', 00H
	DB	'T', 00H, 'W', 00H, 00H, 00H			; `string'
CONST	ENDS
;	COMDAT ??_C@_1M@BJNKEDC@?$AAc?$AAa?$AA?9?$AAE?$AAS@
CONST	SEGMENT
??_C@_1M@BJNKEDC@?$AAc?$AAa?$AA?9?$AAE?$AAS@ DB 'c', 00H, 'a', 00H, '-', 00H
	DB	'E', 00H, 'S', 00H, 00H, 00H			; `string'
CONST	ENDS
;	COMDAT ??_C@_1M@FFFIGIGK@?$AAb?$AAg?$AA?9?$AAB?$AAG@
CONST	SEGMENT
??_C@_1M@FFFIGIGK@?$AAb?$AAg?$AA?9?$AAB?$AAG@ DB 'b', 00H, 'g', 00H, '-', 00H
	DB	'B', 00H, 'G', 00H, 00H, 00H			; `string'
CONST	ENDS
;	COMDAT ??_C@_1M@OKAHONE@?$AAa?$AAr?$AA?9?$AAS?$AAA@
CONST	SEGMENT
??_C@_1M@OKAHONE@?$AAa?$AAr?$AA?9?$AAS?$AAA@ DB 'a', 00H, 'r', 00H, '-', 00H
	DB	'S', 00H, 'A', 00H, 00H, 00H			; `string'
CONST	ENDS
;	COMDAT ??_C@_11LOCGONAA@@
CONST	SEGMENT
??_C@_11LOCGONAA@@ DB 00H, 00H				; `string'
CONST	ENDS
;	COMDAT ??_C@_17KPNDCPAF@?$AAd?$AAi?$AAv@
CONST	SEGMENT
??_C@_17KPNDCPAF@?$AAd?$AAi?$AAv@ DB 'd', 00H, 'i', 00H, 'v', 00H, 00H, 00H ; `string'
CONST	ENDS
;	COMDAT ??_C@_17FFBJICPL@?$AAs?$AAy?$AAr@
CONST	SEGMENT
??_C@_17FFBJICPL@?$AAs?$AAy?$AAr@ DB 's', 00H, 'y', 00H, 'r', 00H, 00H, 00H ; `string'
CONST	ENDS
;	COMDAT ??_C@_17CNJFBPG@?$AAk?$AAo?$AAk@
CONST	SEGMENT
??_C@_17CNJFBPG@?$AAk?$AAo?$AAk@ DB 'k', 00H, 'o', 00H, 'k', 00H, 00H, 00H ; `string'
CONST	ENDS
;	COMDAT ??_C@_15CKDMCJAF@?$AAg?$AAl@
CONST	SEGMENT
??_C@_15CKDMCJAF@?$AAg?$AAl@ DB 'g', 00H, 'l', 00H, 00H, 00H ; `string'
CONST	ENDS
;	COMDAT ??_C@_15CBKOMCOI@?$AAm?$AAn@
CONST	SEGMENT
??_C@_15CBKOMCOI@?$AAm?$AAn@ DB 'm', 00H, 'n', 00H, 00H, 00H ; `string'
CONST	ENDS
;	COMDAT ??_C@_15EABBLBFF@?$AAs?$AAa@
CONST	SEGMENT
??_C@_15EABBLBFF@?$AAs?$AAa@ DB 's', 00H, 'a', 00H, 00H, 00H ; `string'
CONST	ENDS
;	COMDAT ??_C@_15DLGBCKMP@?$AAm?$AAr@
CONST	SEGMENT
??_C@_15DLGBCKMP@?$AAm?$AAr@ DB 'm', 00H, 'r', 00H, 00H, 00H ; `string'
CONST	ENDS
;	COMDAT ??_C@_15PHPHCBPF@?$AAk?$AAn@
CONST	SEGMENT
??_C@_15PHPHCBPF@?$AAk?$AAn@ DB 'k', 00H, 'n', 00H, 00H, 00H ; `string'
CONST	ENDS
;	COMDAT ??_C@_15NCHGBGLK@?$AAt?$AAe@
CONST	SEGMENT
??_C@_15NCHGBGLK@?$AAt?$AAe@ DB 't', 00H, 'e', 00H, 00H, 00H ; `string'
CONST	ENDS
;	COMDAT ??_C@_15FNBEIBON@?$AAt?$AAa@
CONST	SEGMENT
??_C@_15FNBEIBON@?$AAt?$AAa@ DB 't', 00H, 'a', 00H, 00H, 00H ; `string'
CONST	ENDS
;	COMDAT ??_C@_15HCNDBBA@?$AAg?$AAu@
CONST	SEGMENT
??_C@_15HCNDBBA@?$AAg?$AAu@ DB 'g', 00H, 'u', 00H, 00H, 00H ; `string'
CONST	ENDS
;	COMDAT ??_C@_15MGIFMDPL@?$AAp?$AAa@
CONST	SEGMENT
??_C@_15MGIFMDPL@?$AAp?$AAa@ DB 'p', 00H, 'a', 00H, 00H, 00H ; `string'
CONST	ENDS
;	COMDAT ??_C@_15DKNDCGEA@?$AAt?$AAt@
CONST	SEGMENT
??_C@_15DKNDCGEA@?$AAt?$AAt@ DB 't', 00H, 't', 00H, 00H, 00H ; `string'
CONST	ENDS
;	COMDAT ??_C@_15BBFAICNG@?$AAu?$AAz@
CONST	SEGMENT
??_C@_15BBFAICNG@?$AAu?$AAz@ DB 'u', 00H, 'z', 00H, 00H, 00H ; `string'
CONST	ENDS
;	COMDAT ??_C@_15DFGDLJBG@?$AAs?$AAw@
CONST	SEGMENT
??_C@_15DFGDLJBG@?$AAs?$AAw@ DB 's', 00H, 'w', 00H, 00H, 00H ; `string'
CONST	ENDS
;	COMDAT ??_C@_15DKDJEOND@?$AAk?$AAy@
CONST	SEGMENT
??_C@_15DKDJEOND@?$AAk?$AAy@ DB 'k', 00H, 'y', 00H, 00H, 00H ; `string'
CONST	ENDS
;	COMDAT ??_C@_15MACJNBMH@?$AAk?$AAk@
CONST	SEGMENT
??_C@_15MACJNBMH@?$AAk?$AAk@ DB 'k', 00H, 'k', 00H, 00H, 00H ; `string'
CONST	ENDS
;	COMDAT ??_C@_15IDNNENKK@?$AAm?$AAs@
CONST	SEGMENT
??_C@_15IDNNENKK@?$AAm?$AAs@ DB 'm', 00H, 's', 00H, 00H, 00H ; `string'
CONST	ENDS
;	COMDAT ??_C@_15OMLEGLOC@?$AAh?$AAi@
CONST	SEGMENT
??_C@_15OMLEGLOC@?$AAh?$AAi@ DB 'h', 00H, 'i', 00H, 00H, 00H ; `string'
CONST	ENDS
;	COMDAT ??_C@_15PDNFFFEO@?$AAf?$AAo@
CONST	SEGMENT
??_C@_15PDNFFFEO@?$AAf?$AAo@ DB 'f', 00H, 'o', 00H, 00H, 00H ; `string'
CONST	ENDS
;	COMDAT ??_C@_15KPJEDBKD@?$AAk?$AAa@
CONST	SEGMENT
??_C@_15KPJEDBKD@?$AAk?$AAa@ DB 'k', 00H, 'a', 00H, 00H, 00H ; `string'
CONST	ENDS
;	COMDAT ??_C@_15JDNICKHM@?$AAa?$AAf@
CONST	SEGMENT
??_C@_15JDNICKHM@?$AAa?$AAf@ DB 'a', 00H, 'f', 00H, 00H, 00H ; `string'
CONST	ENDS
;	COMDAT ??_C@_15BGHADCNK@?$AAm?$AAk@
CONST	SEGMENT
??_C@_15BGHADCNK@?$AAm?$AAk@ DB 'm', 00H, 'k', 00H, 00H, 00H ; `string'
CONST	ENDS
;	COMDAT ??_C@_15EKOFJABL@?$AAe?$AAu@
CONST	SEGMENT
??_C@_15EKOFJABL@?$AAe?$AAu@ DB 'e', 00H, 'u', 00H, 00H, 00H ; `string'
CONST	ENDS
;	COMDAT ??_C@_15IJBHMCFL@?$AAa?$AAz@
CONST	SEGMENT
??_C@_15IJBHMCFL@?$AAa?$AAz@ DB 'a', 00H, 'z', 00H, 00H, 00H ; `string'
CONST	ENDS
;	COMDAT ??_C@_15LMKNDMHN@?$AAh?$AAy@
CONST	SEGMENT
??_C@_15LMKNDMHN@?$AAh?$AAy@ DB 'h', 00H, 'y', 00H, 00H, 00H ; `string'
CONST	ENDS
;	COMDAT ??_C@_15NFGIAIAJ@?$AAv?$AAi@
CONST	SEGMENT
??_C@_15NFGIAIAJ@?$AAv?$AAi@ DB 'v', 00H, 'i', 00H, 00H, 00H ; `string'
CONST	ENDS
;	COMDAT ??_C@_15BDAKCCHN@?$AAf?$AAa@
CONST	SEGMENT
??_C@_15BDAKCCHN@?$AAf?$AAa@ DB 'f', 00H, 'a', 00H, 00H, 00H ; `string'
CONST	ENDS
;	COMDAT ??_C@_15NFFGKGLG@?$AAl?$AAt@
CONST	SEGMENT
??_C@_15NFFGKGLG@?$AAl?$AAt@ DB 'l', 00H, 't', 00H, 00H, 00H ; `string'
CONST	ENDS
;	COMDAT ??_C@_15HPFPGODN@?$AAl?$AAv@
CONST	SEGMENT
??_C@_15HPFPGODN@?$AAl?$AAv@ DB 'l', 00H, 'v', 00H, 00H, 00H ; `string'
CONST	ENDS
;	COMDAT ??_C@_15PCFJPHHO@?$AAe?$AAt@
CONST	SEGMENT
??_C@_15PCFJPHHO@?$AAe?$AAt@ DB 'e', 00H, 't', 00H, 00H, 00H ; `string'
CONST	ENDS
;	COMDAT ??_C@_15LCHLGJII@?$AAs?$AAl@
CONST	SEGMENT
??_C@_15LCHLGJII@?$AAs?$AAl@ DB 's', 00H, 'l', 00H, 00H, 00H ; `string'
CONST	ENDS
;	COMDAT ??_C@_15HPJPHDM@?$AAb?$AAe@
CONST	SEGMENT
??_C@_15HPJPHDM@?$AAb?$AAe@ DB 'b', 00H, 'e', 00H, 00H, 00H ; `string'
CONST	ENDS
;	COMDAT ??_C@_15PJPFLCCM@?$AAu?$AAk@
CONST	SEGMENT
??_C@_15PJPFLCCM@?$AAu?$AAk@ DB 'u', 00H, 'k', 00H, 00H, 00H ; `string'
CONST	ENDS
;	COMDAT ??_C@_15NFICGAJK@?$AAi?$AAd@
CONST	SEGMENT
??_C@_15NFICGAJK@?$AAi?$AAd@ DB 'i', 00H, 'd', 00H, 00H, 00H ; `string'
CONST	ENDS
;	COMDAT ??_C@_15NEOEKKDJ@?$AAu?$AAr@
CONST	SEGMENT
??_C@_15NEOEKKDJ@?$AAu?$AAr@ DB 'u', 00H, 'r', 00H, 00H, 00H ; `string'
CONST	ENDS
;	COMDAT ??_C@_15BPLIHJJM@?$AAt?$AAr@
CONST	SEGMENT
??_C@_15BPLIHJJM@?$AAt?$AAr@ DB 't', 00H, 'r', 00H, 00H, 00H ; `string'
CONST	ENDS
;	COMDAT ??_C@_15CABMMOGH@?$AAt?$AAh@
CONST	SEGMENT
??_C@_15CABMMOGH@?$AAt?$AAh@ DB 't', 00H, 'h', 00H, 00H, 00H ; `string'
CONST	ENDS
;	COMDAT ??_C@_15INNPNOHD@?$AAs?$AAv@
CONST	SEGMENT
??_C@_15INNPNOHD@?$AAs?$AAv@ DB 's', 00H, 'v', 00H, 00H, 00H ; `string'
CONST	ENDS
;	COMDAT ??_C@_15BAAIOGMK@?$AAs?$AAq@
CONST	SEGMENT
??_C@_15BAAIOGMK@?$AAs?$AAq@ DB 's', 00H, 'q', 00H, 00H, 00H ; `string'
CONST	ENDS
;	COMDAT ??_C@_15CPKMFBDB@?$AAs?$AAk@
CONST	SEGMENT
??_C@_15CPKMFBDB@?$AAs?$AAk@ DB 's', 00H, 'k', 00H, 00H, 00H ; `string'
CONST	ENDS
;	COMDAT ??_C@_15GLKMLLHM@?$AAh?$AAr@
CONST	SEGMENT
??_C@_15GLKMLLHM@?$AAh?$AAr@ DB 'h', 00H, 'r', 00H, 00H, 00H ; `string'
CONST	ENDS
;	COMDAT ??_C@_15FEDGKCDI@?$AAr?$AAu@
CONST	SEGMENT
??_C@_15FEDGKCDI@?$AAr?$AAu@ DB 'r', 00H, 'u', 00H, 00H, 00H ; `string'
CONST	ENDS
;	COMDAT ??_C@_15GLJCBFMD@?$AAr?$AAo@
CONST	SEGMENT
??_C@_15GLJCBFMD@?$AAr?$AAo@ DB 'r', 00H, 'o', 00H, 00H, 00H ; `string'
CONST	ENDS
;	COMDAT ??_C@_15KBECGEFG@?$AAp?$AAt@
CONST	SEGMENT
??_C@_15KBECGEFG@?$AAp?$AAt@ DB 'p', 00H, 't', 00H, 00H, 00H ; `string'
CONST	ENDS
;	COMDAT ??_C@_15DEOPBLCG@?$AAp?$AAl@
CONST	SEGMENT
??_C@_15DEOPBLCG@?$AAp?$AAl@ DB 'p', 00H, 'l', 00H, 00H, 00H ; `string'
CONST	ENDS
;	COMDAT ??_C@_15BPIGNHCD@?$AAn?$AAo@
CONST	SEGMENT
??_C@_15BPIGNHCD@?$AAn?$AAo@ DB 'n', 00H, 'o', 00H, 00H, 00H ; `string'
CONST	ENDS
;	COMDAT ??_C@_15NDDHIMN@?$AAn?$AAl@
CONST	SEGMENT
??_C@_15NDDHIMN@?$AAn?$AAl@ DB 'n', 00H, 'l', 00H, 00H, 00H ; `string'
CONST	ENDS
;	COMDAT ??_C@_15EPELEGJA@?$AAk?$AAo@
CONST	SEGMENT
??_C@_15EPELEGJA@?$AAk?$AAo@ DB 'k', 00H, 'o', 00H, 00H, 00H ; `string'
CONST	ENDS
;	COMDAT ??_C@_15GEMIOCAG@?$AAj?$AAa@
CONST	SEGMENT
??_C@_15GEMIOCAG@?$AAj?$AAa@ DB 'j', 00H, 'a', 00H, 00H, 00H ; `string'
CONST	ENDS
;	COMDAT ??_C@_15IFJLDHAF@?$AAi?$AAt@
CONST	SEGMENT
??_C@_15IFJLDHAF@?$AAi?$AAt@ DB 'i', 00H, 't', 00H, 00H, 00H ; `string'
CONST	ENDS
;	COMDAT ??_C@_15BIEMAPLM@?$AAi?$AAs@
CONST	SEGMENT
??_C@_15BIEMAPLM@?$AAi?$AAs@ DB 'i', 00H, 's', 00H, 00H, 00H ; `string'
CONST	ENDS
;	COMDAT ??_C@_15PGHLIDMF@?$AAh?$AAu@
CONST	SEGMENT
??_C@_15PGHLIDMF@?$AAh?$AAu@ DB 'h', 00H, 'u', 00H, 00H, 00H ; `string'
CONST	ENDS
;	COMDAT ??_C@_15KGGCNEFK@?$AAh?$AAe@
CONST	SEGMENT
??_C@_15KGGCNEFK@?$AAh?$AAe@ DB 'h', 00H, 'e', 00H, 00H, 00H ; `string'
CONST	ENDS
;	COMDAT ??_C@_15FBKGNKAM@?$AAf?$AAr@
CONST	SEGMENT
??_C@_15FBKGNKAM@?$AAf?$AAr@ DB 'f', 00H, 'r', 00H, 00H, 00H ; `string'
CONST	ENDS
;	COMDAT ??_C@_15NGLOAKJC@?$AAf?$AAi@
CONST	SEGMENT
??_C@_15NGLOAKJC@?$AAf?$AAi@ DB 'f', 00H, 'i', 00H, 00H, 00H ; `string'
CONST	ENDS
;	COMDAT ??_C@_15GPIOMPMH@?$AAe?$AAs@
CONST	SEGMENT
??_C@_15GPIOMPMH@?$AAe?$AAs@ DB 'e', 00H, 's', 00H, 00H, 00H ; `string'
CONST	ENDS
;	COMDAT ??_C@_15MNPNEAIF@?$AAe?$AAn@
CONST	SEGMENT
??_C@_15MNPNEAIF@?$AAe?$AAn@ DB 'e', 00H, 'n', 00H, 00H, 00H ; `string'
CONST	ENDS
;	COMDAT ??_C@_15GHPEIIAO@?$AAe?$AAl@
CONST	SEGMENT
??_C@_15GHPEIIAO@?$AAe?$AAl@ DB 'e', 00H, 'l', 00H, 00H, 00H ; `string'
CONST	ENDS
;	COMDAT ??_C@_15NBKABECB@?$AAd?$AAe@
CONST	SEGMENT
??_C@_15NBKABECB@?$AAd?$AAe@ DB 'd', 00H, 'e', 00H, 00H, 00H ; `string'
CONST	ENDS
;	COMDAT ??_C@_15FOMCIDHG@?$AAd?$AAa@
CONST	SEGMENT
??_C@_15FOMCIDHG@?$AAd?$AAa@ DB 'd', 00H, 'a', 00H, 00H, 00H ; `string'
CONST	ENDS
;	COMDAT ??_C@_15LJNHCMNK@?$AAc?$AAs@
CONST	SEGMENT
??_C@_15LJNHCMNK@?$AAc?$AAs@ DB 'c', 00H, 's', 00H, 00H, 00H ; `string'
CONST	ENDS
;	COMDAT ??_C@_1O@BPEAJADD@?$AAz?$AAh?$AA?9?$AAC?$AAH?$AAS@
CONST	SEGMENT
??_C@_1O@BPEAJADD@?$AAz?$AAh?$AA?9?$AAC?$AAH?$AAS@ DB 'z', 00H, 'h', 00H, '-'
	DB	00H, 'C', 00H, 'H', 00H, 'S', 00H, 00H, 00H	; `string'
CONST	ENDS
;	COMDAT ??_C@_15EDMHLDMO@?$AAc?$AAa@
CONST	SEGMENT
??_C@_15EDMHLDMO@?$AAc?$AAa@ DB 'c', 00H, 'a', 00H, 00H, 00H ; `string'
CONST	ENDS
;	COMDAT ??_C@_15KNPADPLH@?$AAb?$AAg@
CONST	SEGMENT
??_C@_15KNPADPLH@?$AAb?$AAg@ DB 'b', 00H, 'g', 00H, 00H, 00H ; `string'
CONST	ENDS
;	COMDAT ??_C@_15EMKDOKLE@?$AAa?$AAr@
CONST	SEGMENT
??_C@_15EMKDOKLE@?$AAa?$AAr@ DB 'a', 00H, 'r', 00H, 00H, 00H ; `string'
CONST	ENDS
;	COMDAT __pAtlLcidToLocaleNameTable
CONST	SEGMENT
__pAtlLcidToLocaleNameTable DD 01H
	DD	FLAT:??_C@_15EMKDOKLE@?$AAa?$AAr@
	DD	02H
	DD	FLAT:??_C@_15KNPADPLH@?$AAb?$AAg@
	DD	03H
	DD	FLAT:??_C@_15EDMHLDMO@?$AAc?$AAa@
	DD	04H
	DD	FLAT:??_C@_1O@BPEAJADD@?$AAz?$AAh?$AA?9?$AAC?$AAH?$AAS@
	DD	05H
	DD	FLAT:??_C@_15LJNHCMNK@?$AAc?$AAs@
	DD	06H
	DD	FLAT:??_C@_15FOMCIDHG@?$AAd?$AAa@
	DD	07H
	DD	FLAT:??_C@_15NBKABECB@?$AAd?$AAe@
	DD	08H
	DD	FLAT:??_C@_15GHPEIIAO@?$AAe?$AAl@
	DD	09H
	DD	FLAT:??_C@_15MNPNEAIF@?$AAe?$AAn@
	DD	0aH
	DD	FLAT:??_C@_15GPIOMPMH@?$AAe?$AAs@
	DD	0bH
	DD	FLAT:??_C@_15NGLOAKJC@?$AAf?$AAi@
	DD	0cH
	DD	FLAT:??_C@_15FBKGNKAM@?$AAf?$AAr@
	DD	0dH
	DD	FLAT:??_C@_15KGGCNEFK@?$AAh?$AAe@
	DD	0eH
	DD	FLAT:??_C@_15PGHLIDMF@?$AAh?$AAu@
	DD	0fH
	DD	FLAT:??_C@_15BIEMAPLM@?$AAi?$AAs@
	DD	010H
	DD	FLAT:??_C@_15IFJLDHAF@?$AAi?$AAt@
	DD	011H
	DD	FLAT:??_C@_15GEMIOCAG@?$AAj?$AAa@
	DD	012H
	DD	FLAT:??_C@_15EPELEGJA@?$AAk?$AAo@
	DD	013H
	DD	FLAT:??_C@_15NDDHIMN@?$AAn?$AAl@
	DD	014H
	DD	FLAT:??_C@_15BPIGNHCD@?$AAn?$AAo@
	DD	015H
	DD	FLAT:??_C@_15DEOPBLCG@?$AAp?$AAl@
	DD	016H
	DD	FLAT:??_C@_15KBECGEFG@?$AAp?$AAt@
	DD	018H
	DD	FLAT:??_C@_15GLJCBFMD@?$AAr?$AAo@
	DD	019H
	DD	FLAT:??_C@_15FEDGKCDI@?$AAr?$AAu@
	DD	01aH
	DD	FLAT:??_C@_15GLKMLLHM@?$AAh?$AAr@
	DD	01bH
	DD	FLAT:??_C@_15CPKMFBDB@?$AAs?$AAk@
	DD	01cH
	DD	FLAT:??_C@_15BAAIOGMK@?$AAs?$AAq@
	DD	01dH
	DD	FLAT:??_C@_15INNPNOHD@?$AAs?$AAv@
	DD	01eH
	DD	FLAT:??_C@_15CABMMOGH@?$AAt?$AAh@
	DD	01fH
	DD	FLAT:??_C@_15BPLIHJJM@?$AAt?$AAr@
	DD	020H
	DD	FLAT:??_C@_15NEOEKKDJ@?$AAu?$AAr@
	DD	021H
	DD	FLAT:??_C@_15NFICGAJK@?$AAi?$AAd@
	DD	022H
	DD	FLAT:??_C@_15PJPFLCCM@?$AAu?$AAk@
	DD	023H
	DD	FLAT:??_C@_15HPJPHDM@?$AAb?$AAe@
	DD	024H
	DD	FLAT:??_C@_15LCHLGJII@?$AAs?$AAl@
	DD	025H
	DD	FLAT:??_C@_15PCFJPHHO@?$AAe?$AAt@
	DD	026H
	DD	FLAT:??_C@_15HPFPGODN@?$AAl?$AAv@
	DD	027H
	DD	FLAT:??_C@_15NFFGKGLG@?$AAl?$AAt@
	DD	029H
	DD	FLAT:??_C@_15BDAKCCHN@?$AAf?$AAa@
	DD	02aH
	DD	FLAT:??_C@_15NFGIAIAJ@?$AAv?$AAi@
	DD	02bH
	DD	FLAT:??_C@_15LMKNDMHN@?$AAh?$AAy@
	DD	02cH
	DD	FLAT:??_C@_15IJBHMCFL@?$AAa?$AAz@
	DD	02dH
	DD	FLAT:??_C@_15EKOFJABL@?$AAe?$AAu@
	DD	02fH
	DD	FLAT:??_C@_15BGHADCNK@?$AAm?$AAk@
	DD	036H
	DD	FLAT:??_C@_15JDNICKHM@?$AAa?$AAf@
	DD	037H
	DD	FLAT:??_C@_15KPJEDBKD@?$AAk?$AAa@
	DD	038H
	DD	FLAT:??_C@_15PDNFFFEO@?$AAf?$AAo@
	DD	039H
	DD	FLAT:??_C@_15OMLEGLOC@?$AAh?$AAi@
	DD	03eH
	DD	FLAT:??_C@_15IDNNENKK@?$AAm?$AAs@
	DD	03fH
	DD	FLAT:??_C@_15MACJNBMH@?$AAk?$AAk@
	DD	040H
	DD	FLAT:??_C@_15DKDJEOND@?$AAk?$AAy@
	DD	041H
	DD	FLAT:??_C@_15DFGDLJBG@?$AAs?$AAw@
	DD	043H
	DD	FLAT:??_C@_15BBFAICNG@?$AAu?$AAz@
	DD	044H
	DD	FLAT:??_C@_15DKNDCGEA@?$AAt?$AAt@
	DD	046H
	DD	FLAT:??_C@_15MGIFMDPL@?$AAp?$AAa@
	DD	047H
	DD	FLAT:??_C@_15HCNDBBA@?$AAg?$AAu@
	DD	049H
	DD	FLAT:??_C@_15FNBEIBON@?$AAt?$AAa@
	DD	04aH
	DD	FLAT:??_C@_15NCHGBGLK@?$AAt?$AAe@
	DD	04bH
	DD	FLAT:??_C@_15PHPHCBPF@?$AAk?$AAn@
	DD	04eH
	DD	FLAT:??_C@_15DLGBCKMP@?$AAm?$AAr@
	DD	04fH
	DD	FLAT:??_C@_15EABBLBFF@?$AAs?$AAa@
	DD	050H
	DD	FLAT:??_C@_15CBKOMCOI@?$AAm?$AAn@
	DD	056H
	DD	FLAT:??_C@_15CKDMCJAF@?$AAg?$AAl@
	DD	057H
	DD	FLAT:??_C@_17CNJFBPG@?$AAk?$AAo?$AAk@
	DD	05aH
	DD	FLAT:??_C@_17FFBJICPL@?$AAs?$AAy?$AAr@
	DD	065H
	DD	FLAT:??_C@_17KPNDCPAF@?$AAd?$AAi?$AAv@
	DD	07fH
	DD	FLAT:??_C@_11LOCGONAA@@
	DD	0401H
	DD	FLAT:??_C@_1M@OKAHONE@?$AAa?$AAr?$AA?9?$AAS?$AAA@
	DD	0402H
	DD	FLAT:??_C@_1M@FFFIGIGK@?$AAb?$AAg?$AA?9?$AAB?$AAG@
	DD	0403H
	DD	FLAT:??_C@_1M@BJNKEDC@?$AAc?$AAa?$AA?9?$AAE?$AAS@
	DD	0404H
	DD	FLAT:??_C@_1M@CLNBBOPM@?$AAz?$AAh?$AA?9?$AAT?$AAW@
	DD	0405H
	DD	FLAT:??_C@_1M@IJJHFJHA@?$AAc?$AAs?$AA?9?$AAC?$AAZ@
	DD	0406H
	DD	FLAT:??_C@_1M@CLPEOBGI@?$AAd?$AAa?$AA?9?$AAD?$AAK@
	DD	0407H
	DD	FLAT:??_C@_1M@MCMADGCB@?$AAd?$AAe?$AA?9?$AAD?$AAE@
	DD	0408H
	DD	FLAT:??_C@_1M@OOCKEMAM@?$AAe?$AAl?$AA?9?$AAG?$AAR@
	DD	0409H
	DD	FLAT:??_C@_1M@BMHNFIME@?$AAe?$AAn?$AA?9?$AAU?$AAS@
	DD	040bH
	DD	FLAT:??_C@_1M@DDNJFGID@?$AAf?$AAi?$AA?9?$AAF?$AAI@
	DD	040cH
	DD	FLAT:??_C@_1M@GLIPPMAC@?$AAf?$AAr?$AA?9?$AAF?$AAR@
	DD	040dH
	DD	FLAT:??_C@_1M@GFMCHPE@?$AAh?$AAe?$AA?9?$AAI?$AAL@
	DD	040eH
	DD	FLAT:??_C@_1M@MHLPGNKM@?$AAh?$AAu?$AA?9?$AAH?$AAU@
	DD	040fH
	DD	FLAT:??_C@_1M@LPDDNNPN@?$AAi?$AAs?$AA?9?$AAI?$AAS@
	DD	0410H
	DD	FLAT:??_C@_1M@MADIPODN@?$AAi?$AAt?$AA?9?$AAI?$AAT@
	DD	0411H
	DD	FLAT:??_C@_1M@HPNHIDJI@?$AAj?$AAa?$AA?9?$AAJ?$AAP@
	DD	0412H
	DD	FLAT:??_C@_1M@JLOOOEGK@?$AAk?$AAo?$AA?9?$AAK?$AAR@
	DD	0413H
	DD	FLAT:??_C@_1M@IHBJJGG@?$AAn?$AAl?$AA?9?$AAN?$AAL@
	DD	0414H
	DD	FLAT:??_C@_1M@EANAGDL@?$AAn?$AAb?$AA?9?$AAN?$AAO@
	DD	0415H
	DD	FLAT:??_C@_1M@NEIEMEGP@?$AAp?$AAl?$AA?9?$AAP?$AAL@
	DD	0416H
	DD	FLAT:??_C@_1M@BOCFIGEP@?$AAp?$AAt?$AA?9?$AAB?$AAR@
	DD	0418H
	DD	FLAT:??_C@_1M@IMPFOPBG@?$AAr?$AAo?$AA?9?$AAR?$AAO@
	DD	0419H
	DD	FLAT:??_C@_1M@IDNNEJMM@?$AAr?$AAu?$AA?9?$AAR?$AAU@
	DD	041aH
	DD	FLAT:??_C@_1M@LILEEOGM@?$AAh?$AAr?$AA?9?$AAH?$AAR@
	DD	041bH
	DD	FLAT:??_C@_1M@FKIFEHPB@?$AAs?$AAk?$AA?9?$AAS?$AAK@
	DD	041cH
	DD	FLAT:??_C@_1M@LJMAMNPJ@?$AAs?$AAq?$AA?9?$AAA?$AAL@
	DD	041dH
	DD	FLAT:??_C@_1M@GIAKDKJK@?$AAs?$AAv?$AA?9?$AAS?$AAE@
	DD	041eH
	DD	FLAT:??_C@_1M@MKJKIKCL@?$AAt?$AAh?$AA?9?$AAT?$AAH@
	DD	041fH
	DD	FLAT:??_C@_1M@MFLCCMPB@?$AAt?$AAr?$AA?9?$AAT?$AAR@
	DD	0420H
	DD	FLAT:??_C@_1M@OIJHDKJN@?$AAu?$AAr?$AA?9?$AAP?$AAK@
	DD	0421H
	DD	FLAT:??_C@_1M@LHIPCIEK@?$AAi?$AAd?$AA?9?$AAI?$AAD@
	DD	0422H
	DD	FLAT:??_C@_1M@MFMOBGI@?$AAu?$AAk?$AA?9?$AAU?$AAA@
	DD	0423H
	DD	FLAT:??_C@_1M@OBGLJIPL@?$AAb?$AAe?$AA?9?$AAB?$AAY@
	DD	0424H
	DD	FLAT:??_C@_1M@BCFAJEAD@?$AAs?$AAl?$AA?9?$AAS?$AAI@
	DD	0425H
	DD	FLAT:??_C@_1M@FKFFEDDN@?$AAe?$AAt?$AA?9?$AAE?$AAE@
	DD	0426H
	DD	FLAT:??_C@_1M@KGKKAACI@?$AAl?$AAv?$AA?9?$AAL?$AAV@
	DD	0427H
	DD	FLAT:??_C@_1M@IFGBIJO@?$AAl?$AAt?$AA?9?$AAL?$AAT@
	DD	0429H
	DD	FLAT:??_C@_1M@FGEAHEDM@?$AAf?$AAa?$AA?9?$AAI?$AAR@
	DD	042aH
	DD	FLAT:??_C@_1M@KBMAIBFN@?$AAv?$AAi?$AA?9?$AAV?$AAN@
	DD	042bH
	DD	FLAT:??_C@_1M@GPCBKDJK@?$AAh?$AAy?$AA?9?$AAA?$AAM@
	DD	042cH
	DD	FLAT:??_C@_1BG@BECMDDJB@?$AAa?$AAz?$AA?9?$AAA?$AAZ?$AA?9?$AAL?$AAa?$AAt?$AAn@
	DD	042dH
	DD	FLAT:??_C@_1M@MAOFCAEA@?$AAe?$AAu?$AA?9?$AAE?$AAS@
	DD	042fH
	DD	FLAT:??_C@_1M@IGHABKPI@?$AAm?$AAk?$AA?9?$AAM?$AAK@
	DD	0432H
	DD	FLAT:??_C@_1M@IAIGNEJG@?$AAt?$AAn?$AA?9?$AAZ?$AAA@
	DD	0434H
	DD	FLAT:??_C@_1M@IIJCOJFA@?$AAx?$AAh?$AA?9?$AAZ?$AAA@
	DD	0435H
	DD	FLAT:??_C@_1M@LGPJHNJH@?$AAz?$AAu?$AA?9?$AAZ?$AAA@
	DD	0436H
	DD	FLAT:??_C@_1M@HOKAOIO@?$AAa?$AAf?$AA?9?$AAZ?$AAA@
	DD	0437H
	DD	FLAT:??_C@_1M@DPCLHLIE@?$AAk?$AAa?$AA?9?$AAG?$AAE@
	DD	0438H
	DD	FLAT:??_C@_1M@BLKMHJBI@?$AAf?$AAo?$AA?9?$AAF?$AAO@
	DD	0439H
	DD	FLAT:??_C@_1M@LGGJAPPB@?$AAh?$AAi?$AA?9?$AAI?$AAN@
	DD	043aH
	DD	FLAT:??_C@_1M@FIKPIHFE@?$AAm?$AAt?$AA?9?$AAM?$AAT@
	DD	043bH
	DD	FLAT:??_C@_1M@HEGGPBFA@?$AAs?$AAe?$AA?9?$AAN?$AAO@
	DD	043eH
	DD	FLAT:??_C@_1M@EIBJEEPA@?$AAm?$AAs?$AA?9?$AAM?$AAY@
	DD	043fH
	DD	FLAT:??_C@_1M@FHLBGMPP@?$AAk?$AAk?$AA?9?$AAK?$AAZ@
	DD	0440H
	DD	FLAT:??_C@_1M@NGJJLCGI@?$AAk?$AAy?$AA?9?$AAK?$AAG@
	DD	0441H
	DD	FLAT:??_C@_1M@GIENNBFC@?$AAs?$AAw?$AA?9?$AAK?$AAE@
	DD	0443H
	DD	FLAT:??_C@_1BG@NDGMJIMJ@?$AAu?$AAz?$AA?9?$AAU?$AAZ?$AA?9?$AAL?$AAa?$AAt?$AAn@
	DD	0444H
	DD	FLAT:??_C@_1M@IDCCIHBC@?$AAt?$AAt?$AA?9?$AAR?$AAU@
	DD	0445H
	DD	FLAT:??_C@_1M@LOICPMOJ@?$AAb?$AAn?$AA?9?$AAI?$AAN@
	DD	0446H
	DD	FLAT:??_C@_1M@KPKKNEAH@?$AAp?$AAa?$AA?9?$AAI?$AAN@
	DD	0447H
	DD	FLAT:??_C@_1M@PJGPPBOG@?$AAg?$AAu?$AA?9?$AAI?$AAN@
	DD	0449H
	DD	FLAT:??_C@_1M@KMKMOPHI@?$AAt?$AAa?$AA?9?$AAI?$AAN@
	DD	044aH
	DD	FLAT:??_C@_1M@KFEHEPAC@?$AAt?$AAe?$AA?9?$AAI?$AAN@
	DD	044bH
	DD	FLAT:??_C@_1M@CDCLMGHI@?$AAk?$AAn?$AA?9?$AAI?$AAN@
	DD	044cH
	DD	FLAT:??_C@_1M@MIODLDKF@?$AAm?$AAl?$AA?9?$AAI?$AAN@
	DD	044eH
	DD	FLAT:??_C@_1M@PBIEACPO@?$AAm?$AAr?$AA?9?$AAI?$AAN@
	DD	044fH
	DD	FLAT:??_C@_1M@NIDEAGPH@?$AAs?$AAa?$AA?9?$AAI?$AAN@
	DD	0450H
	DD	FLAT:??_C@_1M@FHIHCBIO@?$AAm?$AAn?$AA?9?$AAM?$AAN@
	DD	0452H
	DD	FLAT:??_C@_1M@JAIJPENP@?$AAc?$AAy?$AA?9?$AAG?$AAB@
	DD	0456H
	DD	FLAT:??_C@_1M@PHGFBEPN@?$AAg?$AAl?$AA?9?$AAE?$AAS@
	DD	0457H
	DD	FLAT:??_C@_1O@KPIPDNCP@?$AAk?$AAo?$AAk?$AA?9?$AAI?$AAN@
	DD	045aH
	DD	FLAT:??_C@_1O@KNHJLDJA@?$AAs?$AAy?$AAr?$AA?9?$AAS?$AAY@
	DD	0465H
	DD	FLAT:??_C@_1O@MKEKBLAH@?$AAd?$AAi?$AAv?$AA?9?$AAM?$AAV@
	DD	046bH
	DD	FLAT:??_C@_1O@OHDCKDDF@?$AAq?$AAu?$AAz?$AA?9?$AAB?$AAO@
	DD	046cH
	DD	FLAT:??_C@_1M@LEPJNLFD@?$AAn?$AAs?$AA?9?$AAZ?$AAA@
	DD	0481H
	DD	FLAT:??_C@_1M@OMLEIIJB@?$AAm?$AAi?$AA?9?$AAN?$AAZ@
	DD	0801H
	DD	FLAT:??_C@_1M@PMPEAILG@?$AAa?$AAr?$AA?9?$AAI?$AAQ@
	DD	0804H
	DD	FLAT:??_C@_1M@BIBDDEMK@?$AAz?$AAh?$AA?9?$AAC?$AAN@
	DD	0807H
	DD	FLAT:??_C@_1M@CNKPNOEE@?$AAd?$AAe?$AA?9?$AAC?$AAH@
	DD	0809H
	DD	FLAT:??_C@_1M@LKMGMLKO@?$AAe?$AAn?$AA?9?$AAG?$AAB@
	DD	080aH
	DD	FLAT:??_C@_1M@PGKJFFGL@?$AAe?$AAs?$AA?9?$AAM?$AAX@
	DD	080cH
	DD	FLAT:??_C@_1M@DNNANBDC@?$AAf?$AAr?$AA?9?$AAB?$AAE@
	DD	0810H
	DD	FLAT:??_C@_1M@HLGMDFHM@?$AAi?$AAt?$AA?9?$AAC?$AAH@
	DD	0813H
	DD	FLAT:??_C@_1M@CLLBGJH@?$AAn?$AAl?$AA?9?$AAB?$AAE@
	DD	0814H
	DD	FLAT:??_C@_1M@BODBOGLF@?$AAn?$AAn?$AA?9?$AAN?$AAO@
	DD	0816H
	DD	FLAT:??_C@_1M@HFFAHKAD@?$AAp?$AAt?$AA?9?$AAP?$AAT@
	DD	081aH
	DD	FLAT:??_C@_1BG@LNOAKHIE@?$AAs?$AAr?$AA?9?$AAS?$AAP?$AA?9?$AAL?$AAa?$AAt?$AAn@
	DD	081dH
	DD	FLAT:??_C@_1M@HBMHBGAK@?$AAs?$AAv?$AA?9?$AAF?$AAI@
	DD	082cH
	DD	FLAT:??_C@_1BG@DGCJGJBE@?$AAa?$AAz?$AA?9?$AAA?$AAZ?$AA?9?$AAC?$AAy?$AAr?$AAl@
	DD	083bH
	DD	FLAT:??_C@_1M@KEJDAAHB@?$AAs?$AAe?$AA?9?$AAS?$AAE@
	DD	083eH
	DD	FLAT:??_C@_1M@HEIBJJAD@?$AAm?$AAs?$AA?9?$AAB?$AAN@
	DD	0843H
	DD	FLAT:??_C@_1BG@PBGJMCEM@?$AAu?$AAz?$AA?9?$AAU?$AAZ?$AA?9?$AAC?$AAy?$AAr?$AAl@
	DD	086bH
	DD	FLAT:??_C@_1O@LAOBCMDF@?$AAq?$AAu?$AAz?$AA?9?$AAE?$AAC@
	DD	0c01H
	DD	FLAT:??_C@_1M@POEEMAIO@?$AAa?$AAr?$AA?9?$AAE?$AAG@
	DD	0c04H
	DD	FLAT:??_C@_1M@EFAKDEDL@?$AAz?$AAh?$AA?9?$AAH?$AAK@
	DD	0c07H
	DD	FLAT:??_C@_1M@HKKIJHGI@?$AAd?$AAe?$AA?9?$AAA?$AAT@
	DD	0c09H
	DD	FLAT:??_C@_1M@KBFBEHJF@?$AAe?$AAn?$AA?9?$AAA?$AAU@
	DD	0c0aH
	DD	FLAT:??_C@_1M@MNPLFAAH@?$AAe?$AAs?$AA?9?$AAE?$AAS@
	DD	0c0cH
	DD	FLAT:??_C@_1M@HJOOJFMA@?$AAf?$AAr?$AA?9?$AAC?$AAA@
	DD	0c1aH
	DD	FLAT:??_C@_1BG@JPOFPNAB@?$AAs?$AAr?$AA?9?$AAS?$AAP?$AA?9?$AAC?$AAy?$AAr?$AAl@
	DD	0c3bH
	DD	FLAT:??_C@_1M@LNFOCMOB@?$AAs?$AAe?$AA?9?$AAF?$AAI@
	DD	0c6bH
	DD	FLAT:??_C@_1O@MGJBOAMB@?$AAq?$AAu?$AAz?$AA?9?$AAP?$AAE@
	DD	01001H
	DD	FLAT:??_C@_1M@GJINLBOK@?$AAa?$AAr?$AA?9?$AAL?$AAY@
	DD	01004H
	DD	FLAT:??_C@_1M@GGMNHJNL@?$AAz?$AAh?$AA?9?$AAS?$AAG@
	DD	01007H
	DD	FLAT:??_C@_1M@HOIKODND@?$AAd?$AAe?$AA?9?$AAL?$AAU@
	DD	01009H
	DD	FLAT:??_C@_1M@DDOCCGFG@?$AAe?$AAn?$AA?9?$AAC?$AAA@
	DD	0100aH
	DD	FLAT:??_C@_1M@BNOEMJLF@?$AAe?$AAs?$AA?9?$AAG?$AAT@
	DD	0100cH
	DD	FLAT:??_C@_1M@EOGNKEK@?$AAf?$AAr?$AA?9?$AAC?$AAH@
	DD	0101aH
	DD	FLAT:??_C@_1M@FLIDJFHL@?$AAh?$AAr?$AA?9?$AAB?$AAA@
	DD	0103bH
	DD	FLAT:??_C@_1O@FMCELNAJ@?$AAs?$AAm?$AAj?$AA?9?$AAN?$AAO@
	DD	01401H
	DD	FLAT:??_C@_1M@JHGLJMGJ@?$AAa?$AAr?$AA?9?$AAD?$AAZ@
	DD	01404H
	DD	FLAT:??_C@_1M@JKKFDCNP@?$AAz?$AAh?$AA?9?$AAM?$AAO@
	DD	01407H
	DD	FLAT:??_C@_1M@GEEFALPE@?$AAd?$AAe?$AA?9?$AAL?$AAI@
	DD	01409H
	DD	FLAT:??_C@_1M@IGEOFBG@?$AAe?$AAn?$AA?9?$AAN?$AAZ@
	DD	0140aH
	DD	FLAT:??_C@_1M@KDBONEHP@?$AAe?$AAs?$AA?9?$AAC?$AAR@
	DD	0140cH
	DD	FLAT:??_C@_1M@FHMDOHNN@?$AAf?$AAr?$AA?9?$AAL?$AAU@
	DD	0141aH
	DD	FLAT:??_C@_1BG@NFKKMAFG@?$AAb?$AAs?$AA?9?$AAB?$AAA?$AA?9?$AAL?$AAa?$AAt?$AAn@
	DD	0143bH
	DD	FLAT:??_C@_1O@IMNBEMCI@?$AAs?$AAm?$AAj?$AA?9?$AAS?$AAE@
	DD	01801H
	DD	FLAT:??_C@_1M@DHHMBNDP@?$AAa?$AAr?$AA?9?$AAM?$AAA@
	DD	01809H
	DD	FLAT:??_C@_1M@BNBLJCGH@?$AAe?$AAn?$AA?9?$AAI?$AAE@
	DD	0180aH
	DD	FLAT:??_C@_1M@GEPAFMDL@?$AAe?$AAs?$AA?9?$AAP?$AAA@
	DD	0180cH
	DD	FLAT:??_C@_1M@OJONDMDL@?$AAf?$AAr?$AA?9?$AAM?$AAC@
	DD	0181aH
	DD	FLAT:??_C@_1BG@OBCNFJB@?$AAs?$AAr?$AA?9?$AAB?$AAA?$AA?9?$AAL?$AAa?$AAt?$AAn@
	DD	0183bH
	DD	FLAT:??_C@_1O@KEMEEGPO@?$AAs?$AAm?$AAa?$AA?9?$AAN?$AAO@
	DD	01c01H
	DD	FLAT:??_C@_1M@ELMGFODK@?$AAa?$AAr?$AA?9?$AAT?$AAN@
	DD	01c09H
	DD	FLAT:??_C@_1M@BHDLHFAF@?$AAe?$AAn?$AA?9?$AAZ?$AAA@
	DD	01c0aH
	DD	FLAT:??_C@_1M@BMGIGLIF@?$AAe?$AAs?$AA?9?$AAD?$AAO@
	DD	01c1aH
	DD	FLAT:??_C@_1BG@CMBHIPBE@?$AAs?$AAr?$AA?9?$AAB?$AAA?$AA?9?$AAC?$AAy?$AAr?$AAl@
	DD	01c3bH
	DD	FLAT:??_C@_1O@HEDBLHNP@?$AAs?$AAm?$AAa?$AA?9?$AAS?$AAE@
	DD	02001H
	DD	FLAT:??_C@_1M@DAGCADIM@?$AAa?$AAr?$AA?9?$AAO?$AAM@
	DD	02009H
	DD	FLAT:??_C@_1M@FODLMICG@?$AAe?$AAn?$AA?9?$AAJ?$AAM@
	DD	0200aH
	DD	FLAT:??_C@_1M@DNMLCIHB@?$AAe?$AAs?$AA?9?$AAV?$AAE@
	DD	0203bH
	DD	FLAT:??_C@_1O@EOKHMKJK@?$AAs?$AAm?$AAs?$AA?9?$AAF?$AAI@
	DD	02401H
	DD	FLAT:??_C@_1M@CAFJMKOF@?$AAa?$AAr?$AA?9?$AAY?$AAE@
	DD	02409H
	DD	FLAT:??_C@_1M@CBFHIJLI@?$AAe?$AAn?$AA?9?$AAC?$AAB@
	DD	0240aH
	DD	FLAT:??_C@_1M@BGNFLDN@?$AAe?$AAs?$AA?9?$AAC?$AAO@
	DD	0243bH
	DD	FLAT:??_C@_1O@JMPHMAMC@?$AAs?$AAm?$AAn?$AA?9?$AAF?$AAI@
	DD	02801H
	DD	FLAT:??_C@_1M@JLANABKE@?$AAa?$AAr?$AA?9?$AAS?$AAY@
	DD	02809H
	DD	FLAT:??_C@_1M@HPKGCFGN@?$AAe?$AAn?$AA?9?$AAB?$AAZ@
	DD	0280aH
	DD	FLAT:??_C@_1M@OLJCMLGM@?$AAe?$AAs?$AA?9?$AAP?$AAE@
	DD	02c01H
	DD	FLAT:??_C@_1M@MKKGFKLE@?$AAa?$AAr?$AA?9?$AAJ?$AAO@
	DD	02c09H
	DD	FLAT:??_C@_1M@EKPGLDNI@?$AAe?$AAn?$AA?9?$AAT?$AAT@
	DD	02c0aH
	DD	FLAT:??_C@_1M@OONGHFHE@?$AAe?$AAs?$AA?9?$AAA?$AAR@
	DD	03001H
	DD	FLAT:??_C@_1M@OOJFGBHE@?$AAa?$AAr?$AA?9?$AAL?$AAB@
	DD	03009H
	DD	FLAT:??_C@_1M@GCEJHNEG@?$AAe?$AAn?$AA?9?$AAZ?$AAW@
	DD	0300aH
	DD	FLAT:??_C@_1M@JNOCAHJI@?$AAe?$AAs?$AA?9?$AAE?$AAC@
	DD	03401H
	DD	FLAT:??_C@_1M@JEFHPGGB@?$AAa?$AAr?$AA?9?$AAK?$AAW@
	DD	03409H
	DD	FLAT:??_C@_1M@MLKIBJOJ@?$AAe?$AAn?$AA?9?$AAP?$AAH@
	DD	0340aH
	DD	FLAT:??_C@_1M@BDNIPEND@?$AAe?$AAs?$AA?9?$AAC?$AAL@
	DD	03801H
	DD	FLAT:??_C@_1M@MPNMEKBD@?$AAa?$AAr?$AA?9?$AAA?$AAE@
	DD	0380aH
	DD	FLAT:??_C@_1M@KBJALCPI@?$AAe?$AAs?$AA?9?$AAU?$AAY@
	DD	03c01H
	DD	FLAT:??_C@_1M@LLCCOAGA@?$AAa?$AAr?$AA?9?$AAB?$AAH@
	DD	03c0aH
	DD	FLAT:??_C@_1M@PBFNCDEL@?$AAe?$AAs?$AA?9?$AAP?$AAY@
	DD	04001H
	DD	FLAT:??_C@_1M@EDGINPNP@?$AAa?$AAr?$AA?9?$AAQ?$AAA@
	DD	0400aH
	DD	FLAT:??_C@_1M@MKDBIIJI@?$AAe?$AAs?$AA?9?$AAB?$AAO@
	DD	0440aH
	DD	FLAT:??_C@_1M@CPKKEBLD@?$AAe?$AAs?$AA?9?$AAS?$AAV@
	DD	0480aH
	DD	FLAT:??_C@_1M@NDBGMMJL@?$AAe?$AAs?$AA?9?$AAH?$AAN@
	DD	04c0aH
	DD	FLAT:??_C@_1M@JIJIBHDP@?$AAe?$AAs?$AA?9?$AAN?$AAI@
	DD	0500aH
	DD	FLAT:??_C@_1M@CGFMKEEK@?$AAe?$AAs?$AA?9?$AAP?$AAR@
	DD	07c04H
	DD	FLAT:??_C@_1O@ICJHKIIK@?$AAz?$AAh?$AA?9?$AAC?$AAH?$AAT@
	DD	07c1aH
	DD	FLAT:??_C@_15CLNEJCE@?$AAs?$AAr@
CONST	ENDS
;	COMDAT _IID_IAMFilterGraphCallback
CONST	SEGMENT
_IID_IAMFilterGraphCallback DD 056a868fdH
	DW	0ad4H
	DW	011ceH
	DB	0b0H
	DB	0a3H
	DB	00H
	DB	020H
	DB	0afH
	DB	0bH
	DB	0a7H
	DB	070H
CONST	ENDS
;	COMDAT ??_C@_0O@KHOBHOBJ@atlTraceISAPI@
CONST	SEGMENT
??_C@_0O@KHOBHOBJ@atlTraceISAPI@ DB 'atlTraceISAPI', 00H ; `string'
CONST	ENDS
;	COMDAT ??_C@_0N@KLPNCFEE@atlTraceSync@
CONST	SEGMENT
??_C@_0N@KLPNCFEE@atlTraceSync@ DB 'atlTraceSync', 00H	; `string'
CONST	ENDS
;	COMDAT ??_C@_0BB@DNJDADMG@atlTraceSecurity@
CONST	SEGMENT
??_C@_0BB@DNJDADMG@atlTraceSecurity@ DB 'atlTraceSecurity', 00H ; `string'
CONST	ENDS
;	COMDAT ??_C@_0N@FEAAACHD@atlTraceUtil@
CONST	SEGMENT
??_C@_0N@FEAAACHD@atlTraceUtil@ DB 'atlTraceUtil', 00H	; `string'
CONST	ENDS
;	COMDAT ??_C@_0M@IOBBMAHG@atlTraceMap@
CONST	SEGMENT
??_C@_0M@IOBBMAHG@atlTraceMap@ DB 'atlTraceMap', 00H	; `string'
CONST	ENDS
;	COMDAT ??_C@_0P@MBNHGHMI@atlTraceString@
CONST	SEGMENT
??_C@_0P@MBNHGHMI@atlTraceString@ DB 'atlTraceString', 00H ; `string'
CONST	ENDS
;	COMDAT ??_C@_0BA@IDBKCKK@atlTraceStencil@
CONST	SEGMENT
??_C@_0BA@IDBKCKK@atlTraceStencil@ DB 'atlTraceStencil', 00H ; `string'
CONST	ENDS
;	COMDAT ??_C@_0O@MEOJAOKK@atlTraceCache@
CONST	SEGMENT
??_C@_0O@MEOJAOKK@atlTraceCache@ DB 'atlTraceCache', 00H ; `string'
CONST	ENDS
;	COMDAT ??_C@_0N@BNNILHBE@atlTraceTime@
CONST	SEGMENT
??_C@_0N@BNNILHBE@atlTraceTime@ DB 'atlTraceTime', 00H	; `string'
CONST	ENDS
;	COMDAT ??_C@_0BC@PGMFNIFA@atlTraceException@
CONST	SEGMENT
??_C@_0BC@PGMFNIFA@atlTraceException@ DB 'atlTraceException', 00H ; `string'
CONST	ENDS
;	COMDAT ??_C@_0BD@PJPCCAKP@atlTraceAllocation@
CONST	SEGMENT
??_C@_0BD@PJPCCAKP@atlTraceAllocation@ DB 'atlTraceAllocation', 00H ; `string'
CONST	ENDS
;	COMDAT _CLSID_CUrlHistoryBoth
CONST	SEGMENT
_CLSID_CUrlHistoryBoth DD 06659983cH
	DW	08476H
	DW	04eb4H
	DB	0b7H
	DB	08cH
	DB	0e5H
	DB	096H
	DB	08fH
	DB	032H
	DB	06bH
	DB	0a0H
CONST	ENDS
;	COMDAT _CLSID_CUrlHistory
CONST	SEGMENT
_CLSID_CUrlHistory DD 03c374a40H
	DW	0bae4H
	DW	011cfH
	DB	0bfH
	DB	07dH
	DB	00H
	DB	0aaH
	DB	00H
	DB	069H
	DB	046H
	DB	0eeH
CONST	ENDS
;	COMDAT ??_C@_0BA@MCBFIDIC@atlTraceNotImpl@
CONST	SEGMENT
??_C@_0BA@MCBFIDIC@atlTraceNotImpl@ DB 'atlTraceNotImpl', 00H ; `string'
CONST	ENDS
;	COMDAT ??_C@_0P@LNEGBOLO@atlTraceSnapin@
CONST	SEGMENT
??_C@_0P@LNEGBOLO@atlTraceSnapin@ DB 'atlTraceSnapin', 00H ; `string'
CONST	ENDS
;	COMDAT ??_C@_0BD@KOADKDIA@atlTraceDBProvider@
CONST	SEGMENT
??_C@_0BD@KOADKDIA@atlTraceDBProvider@ DB 'atlTraceDBProvider', 00H ; `string'
CONST	ENDS
;	COMDAT ??_C@_0BB@BEBMGMDO@atlTraceDBClient@
CONST	SEGMENT
??_C@_0BB@BEBMGMDO@atlTraceDBClient@ DB 'atlTraceDBClient', 00H ; `string'
CONST	ENDS
;	COMDAT ??_C@_0BA@DKOAAGGM@atlTraceHosting@
CONST	SEGMENT
??_C@_0BA@DKOAAGGM@atlTraceHosting@ DB 'atlTraceHosting', 00H ; `string'
CONST	ENDS
;	COMDAT ??_C@_0BB@GHKJKKIE@atlTraceControls@
CONST	SEGMENT
??_C@_0BB@GHKJKKIE@atlTraceControls@ DB 'atlTraceControls', 00H ; `string'
CONST	ENDS
CONST	SEGMENT
?piecewise_construct@std@@3Upiecewise_construct_t@1@B	ORG $+1 ; std::piecewise_construct
CONST	ENDS
;	COMDAT ??_C@_0BC@DGHHNKDC@atlTraceWindowing@
CONST	SEGMENT
??_C@_0BC@DGHHNKDC@atlTraceWindowing@ DB 'atlTraceWindowing', 00H ; `string'
CONST	ENDS
;	COMDAT ??_C@_0BB@ILPPDKFL@atlTraceRefcount@
CONST	SEGMENT
??_C@_0BB@ILPPDKFL@atlTraceRefcount@ DB 'atlTraceRefcount', 00H ; `string'
CONST	ENDS
;	COMDAT ??_C@_0BC@MALHFBAO@atlTraceRegistrar@
CONST	SEGMENT
??_C@_0BC@MALHFBAO@atlTraceRegistrar@ DB 'atlTraceRegistrar', 00H ; `string'
CONST	ENDS
;	COMDAT ??_C@_0L@LHELAKBP@atlTraceQI@
CONST	SEGMENT
??_C@_0L@LHELAKBP@atlTraceQI@ DB 'atlTraceQI', 00H	; `string'
CONST	ENDS
;	COMDAT ??_C@_0M@DGPFJEBB@atlTraceCOM@
CONST	SEGMENT
??_C@_0M@DGPFJEBB@atlTraceCOM@ DB 'atlTraceCOM', 00H	; `string'
CONST	ENDS
;	COMDAT _c_DwmMaxAdapters
CONST	SEGMENT
_c_DwmMaxAdapters DD 010H
CONST	ENDS
;	COMDAT _c_DwmMaxMonitors
CONST	SEGMENT
_c_DwmMaxMonitors DD 010H
CONST	ENDS
;	COMDAT _c_DwmMaxQueuedBuffers
CONST	SEGMENT
_c_DwmMaxQueuedBuffers DD 08H
CONST	ENDS
;	COMDAT ??_C@_0BA@MKMIKKJB@atlTraceGeneral@
CONST	SEGMENT
??_C@_0BA@MKMIKKJB@atlTraceGeneral@ DB 'atlTraceGeneral', 00H ; `string'
CONST	ENDS
;	COMDAT ___pobjMapEntryLast
ATL$__z	SEGMENT
___pobjMapEntryLast DD 00H
ATL$__z	ENDS
;	COMDAT ___pobjMapEntryFirst
ATL$__a	SEGMENT
___pobjMapEntryFirst DD 00H
ATL$__a	ENDS
;	COMDAT _LIBID_ATLLib
CONST	SEGMENT
_LIBID_ATLLib DD 044ec0535H
	DW	0400fH
	DW	011d0H
	DB	09dH
	DB	0cdH
	DB	00H
	DB	0a0H
	DB	0c9H
	DB	03H
	DB	091H
	DB	0d3H
CONST	ENDS
;	COMDAT ?CLSID_WinFormsControl@@3U_GUID@@B
CONST	SEGMENT
?CLSID_WinFormsControl@@3U_GUID@@B DD 0b7e7a666H	; CLSID_WinFormsControl
	DW	0d623H
	DW	0457fH
	DB	0a3H
	DB	0aH
	DB	06aH
	DB	049H
	DB	0a3H
	DB	0e5H
	DB	0b4H
	DB	070H
CONST	ENDS
;	COMDAT ??_7CWin32Heap@ATL@@6B@
CONST	SEGMENT
??_7CWin32Heap@ATL@@6B@ DD FLAT:??_R4CWin32Heap@ATL@@6B@ ; ATL::CWin32Heap::`vftable'
	DD	FLAT:?Allocate@CWin32Heap@ATL@@UAEPAXI@Z
	DD	FLAT:?Free@CWin32Heap@ATL@@UAEXPAX@Z
	DD	FLAT:?Reallocate@CWin32Heap@ATL@@UAEPAXPAXI@Z
	DD	FLAT:?GetSize@CWin32Heap@ATL@@UAEIPAX@Z
	DD	FLAT:??_ECWin32Heap@ATL@@UAEPAXI@Z
CONST	ENDS
;	COMDAT ??_C@_0BF@GPPHKJFN@Invalid?5DateTimeSpan@
CONST	SEGMENT
??_C@_0BF@GPPHKJFN@Invalid?5DateTimeSpan@ DB 'Invalid DateTimeSpan', 00H ; `string'
CONST	ENDS
;	COMDAT ?szInvalidDateTimeSpan@ATL@@3QBDB
CONST	SEGMENT
?szInvalidDateTimeSpan@ATL@@3QBDB DD FLAT:??_C@_0BF@GPPHKJFN@Invalid?5DateTimeSpan@ ; ATL::szInvalidDateTimeSpan
CONST	ENDS
;	COMDAT ??_C@_0BB@KEKMKJPM@Invalid?5DateTime@
CONST	SEGMENT
??_C@_0BB@KEKMKJPM@Invalid?5DateTime@ DB 'Invalid DateTime', 00H ; `string'
CONST	ENDS
;	COMDAT ?szInvalidDateTime@ATL@@3QBDB
CONST	SEGMENT
?szInvalidDateTime@ATL@@3QBDB DD FLAT:??_C@_0BB@KEKMKJPM@Invalid?5DateTime@ ; ATL::szInvalidDateTime
CONST	ENDS
;	COMDAT ??_7CAtlStringMgr@ATL@@6B@
CONST	SEGMENT
??_7CAtlStringMgr@ATL@@6B@ DD FLAT:??_R4CAtlStringMgr@ATL@@6B@ ; ATL::CAtlStringMgr::`vftable'
	DD	FLAT:?Allocate@CAtlStringMgr@ATL@@UAEPAUCStringData@2@HH@Z
	DD	FLAT:?Free@CAtlStringMgr@ATL@@UAEXPAUCStringData@2@@Z
	DD	FLAT:?Reallocate@CAtlStringMgr@ATL@@UAEPAUCStringData@2@PAU32@HH@Z
	DD	FLAT:?GetNilString@CAtlStringMgr@ATL@@UAEPAUCStringData@2@XZ
	DD	FLAT:?Clone@CAtlStringMgr@ATL@@UAEPAUIAtlStringMgr@2@XZ
	DD	FLAT:??_ECAtlStringMgr@ATL@@UAEPAXI@Z
CONST	ENDS
;	COMDAT _IID_IInternalConnection
CONST	SEGMENT
_IID_IInternalConnection DD 072ad0770H
	DW	06a9fH
	DW	011d1H
	DB	0bcH
	DB	0ecH
	DB	00H
	DB	060H
	DB	08H
	DB	08fH
	DB	044H
	DB	04eH
CONST	ENDS
;	COMDAT _IID_IAxWinAmbientDispatchEx
CONST	SEGMENT
_IID_IAxWinAmbientDispatchEx DD 0b2d0778bH
	DW	0ac99H
	DW	04c58H
	DB	0a5H
	DB	0c8H
	DB	0e7H
	DB	072H
	DB	04eH
	DB	053H
	DB	016H
	DB	0b5H
CONST	ENDS
;	COMDAT _IID_IAxWinAmbientDispatch
CONST	SEGMENT
_IID_IAxWinAmbientDispatch DD 0b6ea2051H
	DW	048aH
	DW	011d1H
	DB	082H
	DB	0b9H
	DB	00H
	DB	0c0H
	DB	04fH
	DB	0b9H
	DB	094H
	DB	02eH
CONST	ENDS
;	COMDAT ??_R1A@?0A@EA@CAtlStringMgr@ATL@@8
rdata$r	SEGMENT
??_R1A@?0A@EA@CAtlStringMgr@ATL@@8 DD FLAT:??_R0?AVCAtlStringMgr@ATL@@@8 ; ATL::CAtlStringMgr::`RTTI Base Class Descriptor at (0,-1,0,64)'
	DD	01H
	DD	00H
	DD	0ffffffffH
	DD	00H
	DD	040H
	DD	FLAT:??_R3CAtlStringMgr@ATL@@8
rdata$r	ENDS
;	COMDAT ??_R2CAtlStringMgr@ATL@@8
rdata$r	SEGMENT
??_R2CAtlStringMgr@ATL@@8 DD FLAT:??_R1A@?0A@EA@CAtlStringMgr@ATL@@8 ; ATL::CAtlStringMgr::`RTTI Base Class Array'
	DD	FLAT:??_R1A@?0A@EA@IAtlStringMgr@ATL@@8
rdata$r	ENDS
;	COMDAT ??_R3CAtlStringMgr@ATL@@8
rdata$r	SEGMENT
??_R3CAtlStringMgr@ATL@@8 DD 00H			; ATL::CAtlStringMgr::`RTTI Class Hierarchy Descriptor'
	DD	00H
	DD	02H
	DD	FLAT:??_R2CAtlStringMgr@ATL@@8
rdata$r	ENDS
;	COMDAT ??_R0?AVCAtlStringMgr@ATL@@@8
data$rs	SEGMENT
??_R0?AVCAtlStringMgr@ATL@@@8 DD FLAT:??_7type_info@@6B@ ; ATL::CAtlStringMgr `RTTI Type Descriptor'
	DD	00H
	DB	'.?AVCAtlStringMgr@ATL@@', 00H
data$rs	ENDS
;	COMDAT ??_R4CAtlStringMgr@ATL@@6B@
rdata$r	SEGMENT
??_R4CAtlStringMgr@ATL@@6B@ DD 00H			; ATL::CAtlStringMgr::`RTTI Complete Object Locator'
	DD	00H
	DD	00H
	DD	FLAT:??_R0?AVCAtlStringMgr@ATL@@@8
	DD	FLAT:??_R3CAtlStringMgr@ATL@@8
rdata$r	ENDS
_DATA	SEGMENT
?__vsnwprintf@@3P6AHPA_WIPB_WPAD@ZA DD FLAT:__vsnwprintf ; __vsnwprintf
?__vsnprintf@@3P6AHPADIPBD0@ZA DD FLAT:__vsnprintf	; __vsnprintf
?g_fX3@@3HA DD	01H					; g_fX3
_DATA	ENDS
;	COMDAT _IID_IAxWinHostWindowLic
CONST	SEGMENT
_IID_IAxWinHostWindowLic DD 03935bda8H
	DW	04ed9H
	DW	0495cH
	DB	086H
	DB	050H
	DB	0e0H
	DB	01fH
	DB	0c1H
	DB	0e3H
	DB	08aH
	DB	04bH
CONST	ENDS
PUBLIC	??_H@YGXPAXIIP6EPAX0@Z@Z			; `vector constructor iterator'
PUBLIC	?__empty_global_delete@@YAXPAX@Z		; __empty_global_delete
PUBLIC	?__empty_global_delete@@YAXPAXI@Z		; __empty_global_delete
PUBLIC	___local_stdio_printf_options
PUBLIC	?AfxCrtErrorCheck@@YAHH@Z			; AfxCrtErrorCheck
PUBLIC	?AtlThrowImpl@ATL@@YGXJ@Z			; ATL::AtlThrowImpl
PUBLIC	?_AtlInitializeCriticalSectionEx@ATL@@YAHPAU_RTL_CRITICAL_SECTION@@KK@Z ; ATL::_AtlInitializeCriticalSectionEx
PUBLIC	??1CWin32Heap@ATL@@UAE@XZ			; ATL::CWin32Heap::~CWin32Heap
PUBLIC	?Empty@?$CSimpleStringT@D$0A@@ATL@@QAEXXZ	; ATL::CSimpleStringT<char,0>::Empty
PUBLIC	?SetString@?$CSimpleStringT@D$0A@@ATL@@QAEXPBDH@Z ; ATL::CSimpleStringT<char,0>::SetString
PUBLIC	?ThrowMemoryException@?$CSimpleStringT@D$0A@@ATL@@KAXXZ ; ATL::CSimpleStringT<char,0>::ThrowMemoryException
PUBLIC	?Fork@?$CSimpleStringT@D$0A@@ATL@@AAEXH@Z	; ATL::CSimpleStringT<char,0>::Fork
PUBLIC	?PrepareWrite2@?$CSimpleStringT@D$0A@@ATL@@AAEXH@Z ; ATL::CSimpleStringT<char,0>::PrepareWrite2
PUBLIC	?Reallocate@?$CSimpleStringT@D$0A@@ATL@@AAEXH@Z	; ATL::CSimpleStringT<char,0>::Reallocate
PUBLIC	??1?$CStringT@DV?$StrTraitMFC@DV?$ChTraitsCRT@D@ATL@@@@@ATL@@QAE@XZ ; ATL::CStringT<char,StrTraitMFC<char,ATL::ChTraitsCRT<char> > >::~CStringT<char,StrTraitMFC<char,ATL::ChTraitsCRT<char> > >
PUBLIC	?MakeUpper@?$CStringT@DV?$StrTraitMFC@DV?$ChTraitsCRT@D@ATL@@@@@ATL@@QAEAAV12@XZ ; ATL::CStringT<char,StrTraitMFC<char,ATL::ChTraitsCRT<char> > >::MakeUpper
PUBLIC	??1CAtlStringMgr@ATL@@UAE@XZ			; ATL::CAtlStringMgr::~CAtlStringMgr
PUBLIC	??__FstrHeap@?1??GetInstance@CAtlStringMgr@ATL@@SAPAUIAtlStringMgr@2@XZ@YAXXZ ; `ATL::CAtlStringMgr::GetInstance'::`2'::`dynamic atexit destructor for 'strHeap''
PUBLIC	??__FstrMgr@?1??GetInstance@CAtlStringMgr@ATL@@SAPAUIAtlStringMgr@2@XZ@YAXXZ ; `ATL::CAtlStringMgr::GetInstance'::`2'::`dynamic atexit destructor for 'strMgr''
PUBLIC	?EnsureLinked@CAtlStringMgrStaticInitializer@ATLImplementationDetails@ATL@@QAEPAXXZ ; ATL::ATLImplementationDetails::CAtlStringMgrStaticInitializer::EnsureLinked
PUBLIC	?KillProcess@@YAHV?$CStringT@DV?$StrTraitMFC@DV?$ChTraitsCRT@D@ATL@@@@@ATL@@@Z ; KillProcess
PUBLIC	?atlTraceGeneral@ATL@@3V?$CTraceCategoryEx@$00$0A@@1@A ; ATL::atlTraceGeneral
PUBLIC	?atlTraceCOM@ATL@@3V?$CTraceCategoryEx@$01$0A@@1@A ; ATL::atlTraceCOM
PUBLIC	?atlTraceQI@ATL@@3V?$CTraceCategoryEx@$03$0A@@1@A ; ATL::atlTraceQI
PUBLIC	?atlTraceRegistrar@ATL@@3V?$CTraceCategoryEx@$07$0A@@1@A ; ATL::atlTraceRegistrar
PUBLIC	?atlTraceRefcount@ATL@@3V?$CTraceCategoryEx@$0BA@$0A@@1@A ; ATL::atlTraceRefcount
PUBLIC	?atlTraceWindowing@ATL@@3V?$CTraceCategoryEx@$0CA@$0A@@1@A ; ATL::atlTraceWindowing
PUBLIC	?atlTraceControls@ATL@@3V?$CTraceCategoryEx@$0EA@$0A@@1@A ; ATL::atlTraceControls
PUBLIC	?atlTraceHosting@ATL@@3V?$CTraceCategoryEx@$0IA@$0A@@1@A ; ATL::atlTraceHosting
PUBLIC	?atlTraceDBClient@ATL@@3V?$CTraceCategoryEx@$0BAA@$0A@@1@A ; ATL::atlTraceDBClient
PUBLIC	?atlTraceDBProvider@ATL@@3V?$CTraceCategoryEx@$0CAA@$0A@@1@A ; ATL::atlTraceDBProvider
PUBLIC	?atlTraceSnapin@ATL@@3V?$CTraceCategoryEx@$0EAA@$0A@@1@A ; ATL::atlTraceSnapin
PUBLIC	?atlTraceNotImpl@ATL@@3V?$CTraceCategoryEx@$0IAA@$0A@@1@A ; ATL::atlTraceNotImpl
PUBLIC	?atlTraceAllocation@ATL@@3V?$CTraceCategoryEx@$0BAAA@$0A@@1@A ; ATL::atlTraceAllocation
PUBLIC	?atlTraceException@ATL@@3V?$CTraceCategoryEx@$0CAAA@$0A@@1@A ; ATL::atlTraceException
PUBLIC	?atlTraceTime@ATL@@3V?$CTraceCategoryEx@$0EAAA@$0A@@1@A ; ATL::atlTraceTime
PUBLIC	?atlTraceCache@ATL@@3V?$CTraceCategoryEx@$0IAAA@$0A@@1@A ; ATL::atlTraceCache
PUBLIC	?atlTraceStencil@ATL@@3V?$CTraceCategoryEx@$0BAAAA@$0A@@1@A ; ATL::atlTraceStencil
PUBLIC	?atlTraceString@ATL@@3V?$CTraceCategoryEx@$0CAAAA@$0A@@1@A ; ATL::atlTraceString
PUBLIC	?atlTraceMap@ATL@@3V?$CTraceCategoryEx@$0EAAAA@$0A@@1@A ; ATL::atlTraceMap
PUBLIC	?atlTraceUtil@ATL@@3V?$CTraceCategoryEx@$0IAAAA@$0A@@1@A ; ATL::atlTraceUtil
PUBLIC	?atlTraceSecurity@ATL@@3V?$CTraceCategoryEx@$0BAAAAA@$0A@@1@A ; ATL::atlTraceSecurity
PUBLIC	?atlTraceSync@ATL@@3V?$CTraceCategoryEx@$0CAAAAA@$0A@@1@A ; ATL::atlTraceSync
PUBLIC	?atlTraceISAPI@ATL@@3V?$CTraceCategoryEx@$0EAAAAA@$0A@@1@A ; ATL::atlTraceISAPI
PUBLIC	?_AtlComModule@ATL@@3VCAtlComModule@1@A		; ATL::_AtlComModule
PUBLIC	?_AtlWinModule@ATL@@3VCAtlWinModule@1@A		; ATL::_AtlWinModule
PUBLIC	?isInitialized@CAtlStringMgr@ATL@@0_NA		; ATL::CAtlStringMgr::isInitialized
PUBLIC	?InitializeCAtlStringMgr@ATLImplementationDetails@ATL@@3UCAtlStringMgrStaticInitializer@12@A ; ATL::ATLImplementationDetails::InitializeCAtlStringMgr
PUBLIC	?prj@@3VCProject@@A				; prj
PUBLIC	?g_TickCount@@3VCTickCount@@A			; g_TickCount
PUBLIC	?g_GameTimer@@3VCGameTimer@@A			; g_GameTimer
PUBLIC	?g_eLocal@@3VCFlyffEvent@@A			; g_eLocal
PUBLIC	?g_AddSMMode@@3U_ADDSMMODE@@A			; g_AddSMMode
PUBLIC	?g_GuildCombat1to1Mng@@3VCGuildCombat1to1Mng@@A	; g_GuildCombat1to1Mng
PUBLIC	__xmm@000027e2000027e1000027e0000027df
EXTRN	??3@YAXPAXI@Z:PROC				; operator delete
EXTRN	_atexit:PROC
EXTRN	__Init_thread_header:PROC
EXTRN	__Init_thread_footer:PROC
EXTRN	___std_terminate:PROC
EXTRN	__invalid_parameter_noinfo:PROC
EXTRN	__errno:PROC
EXTRN	__imp__DecodePointer@4:PROC
EXTRN	__imp__CloseHandle@4:PROC
EXTRN	__imp__GetLastError@0:PROC
EXTRN	__imp__HeapDestroy@4:PROC
EXTRN	__imp__HeapAlloc@12:PROC
EXTRN	__imp__HeapReAlloc@16:PROC
EXTRN	__imp__HeapFree@12:PROC
EXTRN	__imp__HeapSize@12:PROC
EXTRN	__imp__GetProcessHeap@0:PROC
EXTRN	__imp__InitializeCriticalSectionAndSpinCount@8:PROC
EXTRN	__imp__DeleteCriticalSection@4:PROC
EXTRN	__imp__WaitForSingleObject@8:PROC
EXTRN	__imp__TerminateProcess@8:PROC
EXTRN	__imp__GetExitCodeProcess@8:PROC
EXTRN	__imp__OpenProcess@12:PROC
EXTRN	__imp__UnregisterClassA@8:PROC
EXTRN	__mbsstr:PROC
EXTRN	__mbsupr_s:PROC
EXTRN	___stdio_common_vswprintf:PROC
EXTRN	___stdio_common_vsprintf:PROC
EXTRN	_free:PROC
EXTRN	?AfxThrowMemoryException@@YGXXZ:PROC		; AfxThrowMemoryException
EXTRN	?AfxThrowInvalidArgException@@YGXXZ:PROC	; AfxThrowInvalidArgException
EXTRN	?AfxThrowOleException@@YGXJ@Z:PROC		; AfxThrowOleException
EXTRN	?AfxGetStringManager@@YGPAUIAtlStringMgr@ATL@@XZ:PROC ; AfxGetStringManager
EXTRN	_CreateToolhelp32Snapshot@8:PROC
EXTRN	_Process32First@8:PROC
EXTRN	_Process32Next@8:PROC
EXTRN	??0CGameTimer@@QAE@XZ:PROC			; CGameTimer::CGameTimer
EXTRN	??1CGameTimer@@QAE@XZ:PROC			; CGameTimer::~CGameTimer
EXTRN	??0CProject@@QAE@XZ:PROC			; CProject::CProject
EXTRN	??1CProject@@UAE@XZ:PROC			; CProject::~CProject
EXTRN	??0CFlyffEvent@@QAE@XZ:PROC			; CFlyffEvent::CFlyffEvent
EXTRN	??0CGuildCombat1to1Mng@@QAE@XZ:PROC		; CGuildCombat1to1Mng::CGuildCombat1to1Mng
EXTRN	??1CGuildCombat1to1Mng@@UAE@XZ:PROC		; CGuildCombat1to1Mng::~CGuildCombat1to1Mng
EXTRN	@__security_check_cookie@4:PROC
EXTRN	___CxxFrameHandler3:PROC
EXTRN	_memcpy:PROC
EXTRN	_memmove:PROC
EXTRN	_memset:PROC
EXTRN	___security_cookie:DWORD
EXTRN	__tls_array:DWORD
EXTRN	__tls_index:DWORD
;	COMDAT ?atlTraceGeneral@ATL@@3V?$CTraceCategoryEx@$00$0A@@1@A
_BSS	SEGMENT
?atlTraceGeneral@ATL@@3V?$CTraceCategoryEx@$00$0A@@1@A DD 01H DUP (?) ; ATL::atlTraceGeneral
_BSS	ENDS
;	COMDAT ?atlTraceCOM@ATL@@3V?$CTraceCategoryEx@$01$0A@@1@A
_BSS	SEGMENT
?atlTraceCOM@ATL@@3V?$CTraceCategoryEx@$01$0A@@1@A DD 01H DUP (?) ; ATL::atlTraceCOM
_BSS	ENDS
;	COMDAT ?atlTraceQI@ATL@@3V?$CTraceCategoryEx@$03$0A@@1@A
_BSS	SEGMENT
?atlTraceQI@ATL@@3V?$CTraceCategoryEx@$03$0A@@1@A DD 01H DUP (?) ; ATL::atlTraceQI
_BSS	ENDS
;	COMDAT ?atlTraceRegistrar@ATL@@3V?$CTraceCategoryEx@$07$0A@@1@A
_BSS	SEGMENT
?atlTraceRegistrar@ATL@@3V?$CTraceCategoryEx@$07$0A@@1@A DD 01H DUP (?) ; ATL::atlTraceRegistrar
_BSS	ENDS
;	COMDAT ?atlTraceRefcount@ATL@@3V?$CTraceCategoryEx@$0BA@$0A@@1@A
_BSS	SEGMENT
?atlTraceRefcount@ATL@@3V?$CTraceCategoryEx@$0BA@$0A@@1@A DD 01H DUP (?) ; ATL::atlTraceRefcount
_BSS	ENDS
;	COMDAT ?atlTraceWindowing@ATL@@3V?$CTraceCategoryEx@$0CA@$0A@@1@A
_BSS	SEGMENT
?atlTraceWindowing@ATL@@3V?$CTraceCategoryEx@$0CA@$0A@@1@A DD 01H DUP (?) ; ATL::atlTraceWindowing
_BSS	ENDS
;	COMDAT ?atlTraceControls@ATL@@3V?$CTraceCategoryEx@$0EA@$0A@@1@A
_BSS	SEGMENT
?atlTraceControls@ATL@@3V?$CTraceCategoryEx@$0EA@$0A@@1@A DD 01H DUP (?) ; ATL::atlTraceControls
_BSS	ENDS
;	COMDAT ?atlTraceHosting@ATL@@3V?$CTraceCategoryEx@$0IA@$0A@@1@A
_BSS	SEGMENT
?atlTraceHosting@ATL@@3V?$CTraceCategoryEx@$0IA@$0A@@1@A DD 01H DUP (?) ; ATL::atlTraceHosting
_BSS	ENDS
;	COMDAT ?atlTraceDBClient@ATL@@3V?$CTraceCategoryEx@$0BAA@$0A@@1@A
_BSS	SEGMENT
?atlTraceDBClient@ATL@@3V?$CTraceCategoryEx@$0BAA@$0A@@1@A DD 01H DUP (?) ; ATL::atlTraceDBClient
_BSS	ENDS
;	COMDAT ?atlTraceDBProvider@ATL@@3V?$CTraceCategoryEx@$0CAA@$0A@@1@A
_BSS	SEGMENT
?atlTraceDBProvider@ATL@@3V?$CTraceCategoryEx@$0CAA@$0A@@1@A DD 01H DUP (?) ; ATL::atlTraceDBProvider
_BSS	ENDS
;	COMDAT ?atlTraceSnapin@ATL@@3V?$CTraceCategoryEx@$0EAA@$0A@@1@A
_BSS	SEGMENT
?atlTraceSnapin@ATL@@3V?$CTraceCategoryEx@$0EAA@$0A@@1@A DD 01H DUP (?) ; ATL::atlTraceSnapin
_BSS	ENDS
;	COMDAT ?atlTraceNotImpl@ATL@@3V?$CTraceCategoryEx@$0IAA@$0A@@1@A
_BSS	SEGMENT
?atlTraceNotImpl@ATL@@3V?$CTraceCategoryEx@$0IAA@$0A@@1@A DD 01H DUP (?) ; ATL::atlTraceNotImpl
_BSS	ENDS
;	COMDAT ?atlTraceAllocation@ATL@@3V?$CTraceCategoryEx@$0BAAA@$0A@@1@A
_BSS	SEGMENT
?atlTraceAllocation@ATL@@3V?$CTraceCategoryEx@$0BAAA@$0A@@1@A DD 01H DUP (?) ; ATL::atlTraceAllocation
_BSS	ENDS
;	COMDAT ?atlTraceException@ATL@@3V?$CTraceCategoryEx@$0CAAA@$0A@@1@A
_BSS	SEGMENT
?atlTraceException@ATL@@3V?$CTraceCategoryEx@$0CAAA@$0A@@1@A DD 01H DUP (?) ; ATL::atlTraceException
_BSS	ENDS
;	COMDAT ?atlTraceTime@ATL@@3V?$CTraceCategoryEx@$0EAAA@$0A@@1@A
_BSS	SEGMENT
?atlTraceTime@ATL@@3V?$CTraceCategoryEx@$0EAAA@$0A@@1@A DD 01H DUP (?) ; ATL::atlTraceTime
_BSS	ENDS
;	COMDAT ?atlTraceCache@ATL@@3V?$CTraceCategoryEx@$0IAAA@$0A@@1@A
_BSS	SEGMENT
?atlTraceCache@ATL@@3V?$CTraceCategoryEx@$0IAAA@$0A@@1@A DD 01H DUP (?) ; ATL::atlTraceCache
_BSS	ENDS
;	COMDAT ?atlTraceStencil@ATL@@3V?$CTraceCategoryEx@$0BAAAA@$0A@@1@A
_BSS	SEGMENT
?atlTraceStencil@ATL@@3V?$CTraceCategoryEx@$0BAAAA@$0A@@1@A DD 01H DUP (?) ; ATL::atlTraceStencil
_BSS	ENDS
;	COMDAT ?atlTraceString@ATL@@3V?$CTraceCategoryEx@$0CAAAA@$0A@@1@A
_BSS	SEGMENT
?atlTraceString@ATL@@3V?$CTraceCategoryEx@$0CAAAA@$0A@@1@A DD 01H DUP (?) ; ATL::atlTraceString
_BSS	ENDS
;	COMDAT ?atlTraceMap@ATL@@3V?$CTraceCategoryEx@$0EAAAA@$0A@@1@A
_BSS	SEGMENT
?atlTraceMap@ATL@@3V?$CTraceCategoryEx@$0EAAAA@$0A@@1@A DD 01H DUP (?) ; ATL::atlTraceMap
_BSS	ENDS
;	COMDAT ?atlTraceUtil@ATL@@3V?$CTraceCategoryEx@$0IAAAA@$0A@@1@A
_BSS	SEGMENT
?atlTraceUtil@ATL@@3V?$CTraceCategoryEx@$0IAAAA@$0A@@1@A DD 01H DUP (?) ; ATL::atlTraceUtil
_BSS	ENDS
;	COMDAT ?atlTraceSecurity@ATL@@3V?$CTraceCategoryEx@$0BAAAAA@$0A@@1@A
_BSS	SEGMENT
?atlTraceSecurity@ATL@@3V?$CTraceCategoryEx@$0BAAAAA@$0A@@1@A DD 01H DUP (?) ; ATL::atlTraceSecurity
_BSS	ENDS
;	COMDAT ?atlTraceSync@ATL@@3V?$CTraceCategoryEx@$0CAAAAA@$0A@@1@A
_BSS	SEGMENT
?atlTraceSync@ATL@@3V?$CTraceCategoryEx@$0CAAAAA@$0A@@1@A DD 01H DUP (?) ; ATL::atlTraceSync
_BSS	ENDS
;	COMDAT ?atlTraceISAPI@ATL@@3V?$CTraceCategoryEx@$0EAAAAA@$0A@@1@A
_BSS	SEGMENT
?atlTraceISAPI@ATL@@3V?$CTraceCategoryEx@$0EAAAAA@$0A@@1@A DD 01H DUP (?) ; ATL::atlTraceISAPI
_BSS	ENDS
;	COMDAT ?isInitialized@CAtlStringMgr@ATL@@0_NA
_BSS	SEGMENT
?isInitialized@CAtlStringMgr@ATL@@0_NA DB 01H DUP (?)	; ATL::CAtlStringMgr::isInitialized
_BSS	ENDS
;	COMDAT ?InitializeCAtlStringMgr@ATLImplementationDetails@ATL@@3UCAtlStringMgrStaticInitializer@12@A
_BSS	SEGMENT
?InitializeCAtlStringMgr@ATLImplementationDetails@ATL@@3UCAtlStringMgrStaticInitializer@12@A DB 01H DUP (?) ; ATL::ATLImplementationDetails::InitializeCAtlStringMgr
_BSS	ENDS
_BSS	SEGMENT
?prj@@3VCProject@@A DB 0d9788H DUP (?)			; prj
?g_TickCount@@3VCTickCount@@A DB 010H DUP (?)		; g_TickCount
?g_GameTimer@@3VCGameTimer@@A DB 028H DUP (?)		; g_GameTimer
?g_eLocal@@3VCFlyffEvent@@A DB 0400H DUP (?)		; g_eLocal
?g_GuildCombat1to1Mng@@3VCGuildCombat1to1Mng@@A DB 064H DUP (?) ; g_GuildCombat1to1Mng
_BSS	ENDS
;	COMDAT CRT$XCU
CRT$XCU	SEGMENT
?_AtlComModule$initializer$@ATL@@3P6AXXZA DD FLAT:??__E_AtlComModule@ATL@@YAXXZ ; ATL::_AtlComModule$initializer$
CRT$XCU	ENDS
;	COMDAT __xmm@000027e2000027e1000027e0000027df
CONST	SEGMENT
__xmm@000027e2000027e1000027e0000027df DB 0dfH, '''', 00H, 00H, 0e0H, ''''
	DB	00H, 00H, 0e1H, '''', 00H, 00H, 0e2H, '''', 00H, 00H
CONST	ENDS
_DATA	SEGMENT
	ORG $+4
?g_AddSMMode@@3U_ADDSMMODE@@A DD 01H			; g_AddSMMode
	DD	01H
	DD	01H
	DD	01H
	DD	01H
	DD	01H
	DB	52 DUP(00H)
	DD	01H
	DB	8 DUP(00H)
	DD	01H
	DB	4 DUP(00H)
	DD	01H
	DD	01H
	DD	027e8H
	DD	027e9H
	DD	027e6H
	DD	027e7H
	DD	027e4H
	DD	027e5H
	DB	16 DUP(00H)
	DD	027eaH
	DD	0287eH
	DD	0287fH
	DD	02881H
	DD	02880H
	DD	0281eH
	DD	00H
	DD	00H
	DD	00H
	DD	028c3H
	DD	028beH
	DD	028c0H
	DD	07569H
	DD	0756aH
	DD	067bdH
	DD	067bfH
_DATA	ENDS
;	COMDAT ?_AtlWinModule@ATL@@3VCAtlWinModule@1@A
_DATA	SEGMENT
?_AtlWinModule@ATL@@3VCAtlWinModule@1@A DD 02cH		; ATL::_AtlWinModule
	DB	24 DUP(00H)
	DD	00H
_DATA	ENDS
;	COMDAT ?_AtlComModule@ATL@@3VCAtlComModule@1@A
_DATA	SEGMENT
?_AtlComModule@ATL@@3VCAtlComModule@1@A DB 04H DUP (?)
	DD	FLAT:___ImageBase			; ATL::_AtlComModule
	DD	FLAT:___pobjMapEntryFirst+4
	DD	FLAT:___pobjMapEntryLast
_DATA	ENDS
;	COMDAT xdata$x
xdata$x	SEGMENT
__unwindtable$?KillProcess@@YAHV?$CStringT@DV?$StrTraitMFC@DV?$ChTraitsCRT@D@ATL@@@@@ATL@@@Z DD 0ffffffffH
	DD	FLAT:__unwindfunclet$?KillProcess@@YAHV?$CStringT@DV?$StrTraitMFC@DV?$ChTraitsCRT@D@ATL@@@@@ATL@@@Z$0
	DD	00H
	DD	FLAT:__unwindfunclet$?KillProcess@@YAHV?$CStringT@DV?$StrTraitMFC@DV?$ChTraitsCRT@D@ATL@@@@@ATL@@@Z$1
__ehfuncinfo$?KillProcess@@YAHV?$CStringT@DV?$StrTraitMFC@DV?$ChTraitsCRT@D@ATL@@@@@ATL@@@Z DD 019930522H
	DD	02H
	DD	FLAT:__unwindtable$?KillProcess@@YAHV?$CStringT@DV?$StrTraitMFC@DV?$ChTraitsCRT@D@ATL@@@@@ATL@@@Z
	DD	2 DUP(00H)
	DD	2 DUP(00H)
	DD	00H
	DD	01H
xdata$x	ENDS
;	COMDAT xdata$x
xdata$x	SEGMENT
__ehfuncinfo$??1CAtlWinModule@ATL@@QAE@XZ DD 019930522H
	DD	00H
	DD	00H
	DD	2 DUP(00H)
	DD	2 DUP(00H)
	DD	00H
	DD	05H
xdata$x	ENDS
;	COMDAT xdata$x
xdata$x	SEGMENT
__unwindtable$??__F_AtlComModule@ATL@@YAXXZ DD 0ffffffffH
	DD	FLAT:___std_terminate
__ehfuncinfo$??__F_AtlComModule@ATL@@YAXXZ DD 019930522H
	DD	01H
	DD	FLAT:__unwindtable$??__F_AtlComModule@ATL@@YAXXZ
	DD	2 DUP(00H)
	DD	2 DUP(00H)
	DD	00H
	DD	01H
xdata$x	ENDS
;	COMDAT xdata$x
xdata$x	SEGMENT
__ehfuncinfo$??1CAtlComModule@ATL@@QAE@XZ DD 019930522H
	DD	00H
	DD	00H
	DD	2 DUP(00H)
	DD	2 DUP(00H)
	DD	00H
	DD	05H
xdata$x	ENDS
;	COMDAT CRT$XCU
CRT$XCU	SEGMENT
?_AtlWinModule$initializer$@ATL@@3P6AXXZA DD FLAT:??__E_AtlWinModule@ATL@@YAXXZ ; ATL::_AtlWinModule$initializer$
CRT$XCU	ENDS
;	COMDAT CRT$XCU
CRT$XCU	SEGMENT
?InitializeCAtlStringMgr$initializer$@ATLImplementationDetails@ATL@@3P6AXXZA DD FLAT:??__EInitializeCAtlStringMgr@ATLImplementationDetails@ATL@@YAXXZ ; ATL::ATLImplementationDetails::InitializeCAtlStringMgr$initializer$
CRT$XCU	ENDS
;	COMDAT CRT$XCU
CRT$XCU	SEGMENT
??isInitialized$initializer$@CAtlStringMgr@ATL@@0P6AXXZA@@3P6AXXZA DD FLAT:??__E?isInitialized@CAtlStringMgr@ATL@@0_NA@@YAXXZ ; ??isInitialized$initializer$@CAtlStringMgr@ATL@@0P6AXXZA@@3P6AXXZA
CRT$XCU	ENDS
CRT$XCU	SEGMENT
?prj$initializer$@@3P6AXXZA DD FLAT:??__Eprj@@YAXXZ	; prj$initializer$
CRT$XCU	ENDS
CRT$XCU	SEGMENT
?g_TickCount$initializer$@@3P6AXXZA DD FLAT:??__Eg_TickCount@@YAXXZ ; g_TickCount$initializer$
CRT$XCU	ENDS
CRT$XCU	SEGMENT
?g_GameTimer$initializer$@@3P6AXXZA DD FLAT:??__Eg_GameTimer@@YAXXZ ; g_GameTimer$initializer$
CRT$XCU	ENDS
CRT$XCU	SEGMENT
?g_eLocal$initializer$@@3P6AXXZA DD FLAT:??__Eg_eLocal@@YAXXZ ; g_eLocal$initializer$
CRT$XCU	ENDS
CRT$XCU	SEGMENT
?g_AddSMMode$initializer$@@3P6AXXZA DD FLAT:??__Eg_AddSMMode@@YAXXZ ; g_AddSMMode$initializer$
CRT$XCU	ENDS
CRT$XCU	SEGMENT
?g_GuildCombat1to1Mng$initializer$@@3P6AXXZA DD FLAT:??__Eg_GuildCombat1to1Mng@@YAXXZ ; g_GuildCombat1to1Mng$initializer$
CRT$XCU	ENDS
; Function compile flags: /Ogtp
;	COMDAT ??__Fg_GuildCombat1to1Mng@@YAXXZ
text$yd	SEGMENT
??__Fg_GuildCombat1to1Mng@@YAXXZ PROC			; `dynamic atexit destructor for 'g_GuildCombat1to1Mng'', COMDAT
  00000	b9 00 00 00 00	 mov	 ecx, OFFSET ?g_GuildCombat1to1Mng@@3VCGuildCombat1to1Mng@@A ; g_GuildCombat1to1Mng
  00005	e9 00 00 00 00	 jmp	 ??1CGuildCombat1to1Mng@@UAE@XZ ; CGuildCombat1to1Mng::~CGuildCombat1to1Mng
??__Fg_GuildCombat1to1Mng@@YAXXZ ENDP			; `dynamic atexit destructor for 'g_GuildCombat1to1Mng''
text$yd	ENDS
; Function compile flags: /Ogtp
; File C:\IAGOS\server\v18\Source\Source\WorldServer\StdAfx.cpp
;	COMDAT ??__Eg_GuildCombat1to1Mng@@YAXXZ
text$di	SEGMENT
??__Eg_GuildCombat1to1Mng@@YAXXZ PROC			; `dynamic initializer for 'g_GuildCombat1to1Mng'', COMDAT

; 22   : CGuildCombat1to1Mng	g_GuildCombat1to1Mng;

  00000	b9 00 00 00 00	 mov	 ecx, OFFSET ?g_GuildCombat1to1Mng@@3VCGuildCombat1to1Mng@@A ; g_GuildCombat1to1Mng
  00005	e8 00 00 00 00	 call	 ??0CGuildCombat1to1Mng@@QAE@XZ ; CGuildCombat1to1Mng::CGuildCombat1to1Mng
  0000a	68 00 00 00 00	 push	 OFFSET ??__Fg_GuildCombat1to1Mng@@YAXXZ ; `dynamic atexit destructor for 'g_GuildCombat1to1Mng''
  0000f	e8 00 00 00 00	 call	 _atexit
  00014	59		 pop	 ecx
  00015	c3		 ret	 0
??__Eg_GuildCombat1to1Mng@@YAXXZ ENDP			; `dynamic initializer for 'g_GuildCombat1to1Mng''
text$di	ENDS
; Function compile flags: /Ogtp
; File C:\IAGOS\server\v18\Source\Source\WorldServer\StdAfx.cpp
; File C:\IAGOS\server\v18\Source\Source\_network\CmnHdr.h
; File C:\IAGOS\server\v18\Source\Source\WorldServer\StdAfx.cpp
;	COMDAT ??__Eg_AddSMMode@@YAXXZ
text$di	SEGMENT
??__Eg_AddSMMode@@YAXXZ PROC				; `dynamic initializer for 'g_AddSMMode'', COMDAT
; File C:\IAGOS\server\v18\Source\Source\_network\CmnHdr.h

; 539  : 		dwSMItemID[SM_MAINTAIN_MP] = II_CHR_REF_REF_HOLD;

  00000	0f 28 05 00 00
	00 00		 movaps	 xmm0, XMMWORD PTR __xmm@000027e2000027e1000027e0000027df
  00007	0f 11 05 80 00
	00 00		 movups	 XMMWORD PTR ?g_AddSMMode@@3U_ADDSMMODE@@A+128, xmm0
; File C:\IAGOS\server\v18\Source\Source\WorldServer\StdAfx.cpp

; 15   : ADDSMMODE		g_AddSMMode;

  0000e	c3		 ret	 0
??__Eg_AddSMMode@@YAXXZ ENDP				; `dynamic initializer for 'g_AddSMMode''
text$di	ENDS
; Function compile flags: /Ogtp
;	COMDAT ??__Fg_eLocal@@YAXXZ
text$yd	SEGMENT
??__Fg_eLocal@@YAXXZ PROC				; `dynamic atexit destructor for 'g_eLocal'', COMDAT
  00000	c2 00 00	 ret	 0
??__Fg_eLocal@@YAXXZ ENDP				; `dynamic atexit destructor for 'g_eLocal''
text$yd	ENDS
; Function compile flags: /Ogtp
; File C:\IAGOS\server\v18\Source\Source\WorldServer\StdAfx.cpp
;	COMDAT ??__Eg_eLocal@@YAXXZ
text$di	SEGMENT
??__Eg_eLocal@@YAXXZ PROC				; `dynamic initializer for 'g_eLocal'', COMDAT

; 14   : CFlyffEvent		g_eLocal;

  00000	b9 00 00 00 00	 mov	 ecx, OFFSET ?g_eLocal@@3VCFlyffEvent@@A ; g_eLocal
  00005	e8 00 00 00 00	 call	 ??0CFlyffEvent@@QAE@XZ	; CFlyffEvent::CFlyffEvent
  0000a	68 00 00 00 00	 push	 OFFSET ??__Fg_eLocal@@YAXXZ ; `dynamic atexit destructor for 'g_eLocal''
  0000f	e8 00 00 00 00	 call	 _atexit
  00014	59		 pop	 ecx
  00015	c3		 ret	 0
??__Eg_eLocal@@YAXXZ ENDP				; `dynamic initializer for 'g_eLocal''
text$di	ENDS
; Function compile flags: /Ogtp
;	COMDAT ??__Fg_GameTimer@@YAXXZ
text$yd	SEGMENT
??__Fg_GameTimer@@YAXXZ PROC				; `dynamic atexit destructor for 'g_GameTimer'', COMDAT
  00000	b9 00 00 00 00	 mov	 ecx, OFFSET ?g_GameTimer@@3VCGameTimer@@A ; g_GameTimer
  00005	e9 00 00 00 00	 jmp	 ??1CGameTimer@@QAE@XZ	; CGameTimer::~CGameTimer
??__Fg_GameTimer@@YAXXZ ENDP				; `dynamic atexit destructor for 'g_GameTimer''
text$yd	ENDS
; Function compile flags: /Ogtp
; File C:\IAGOS\server\v18\Source\Source\WorldServer\StdAfx.cpp
;	COMDAT ??__Eg_GameTimer@@YAXXZ
text$di	SEGMENT
??__Eg_GameTimer@@YAXXZ PROC				; `dynamic initializer for 'g_GameTimer'', COMDAT

; 13   : CGameTimer		g_GameTimer;

  00000	b9 00 00 00 00	 mov	 ecx, OFFSET ?g_GameTimer@@3VCGameTimer@@A ; g_GameTimer
  00005	e8 00 00 00 00	 call	 ??0CGameTimer@@QAE@XZ	; CGameTimer::CGameTimer
  0000a	68 00 00 00 00	 push	 OFFSET ??__Fg_GameTimer@@YAXXZ ; `dynamic atexit destructor for 'g_GameTimer''
  0000f	e8 00 00 00 00	 call	 _atexit
  00014	59		 pop	 ecx
  00015	c3		 ret	 0
??__Eg_GameTimer@@YAXXZ ENDP				; `dynamic initializer for 'g_GameTimer''
text$di	ENDS
; Function compile flags: /Ogtp
;	COMDAT ??__Fg_TickCount@@YAXXZ
text$yd	SEGMENT
??__Fg_TickCount@@YAXXZ PROC				; `dynamic atexit destructor for 'g_TickCount'', COMDAT
  00000	c2 00 00	 ret	 0
??__Fg_TickCount@@YAXXZ ENDP				; `dynamic atexit destructor for 'g_TickCount''
text$yd	ENDS
; Function compile flags: /Ogtp
; File C:\IAGOS\server\v18\Source\Source\WorldServer\StdAfx.cpp
;	COMDAT ??__Eg_TickCount@@YAXXZ
text$di	SEGMENT
??__Eg_TickCount@@YAXXZ PROC				; `dynamic initializer for 'g_TickCount'', COMDAT

; 9    : CTickCount		g_TickCount;

  00000	68 00 00 00 00	 push	 OFFSET ??__Fg_TickCount@@YAXXZ ; `dynamic atexit destructor for 'g_TickCount''
  00005	e8 00 00 00 00	 call	 _atexit
  0000a	59		 pop	 ecx
  0000b	c3		 ret	 0
??__Eg_TickCount@@YAXXZ ENDP				; `dynamic initializer for 'g_TickCount''
text$di	ENDS
; Function compile flags: /Ogtp
;	COMDAT ??__Fprj@@YAXXZ
text$yd	SEGMENT
??__Fprj@@YAXXZ PROC					; `dynamic atexit destructor for 'prj'', COMDAT
  00000	b9 00 00 00 00	 mov	 ecx, OFFSET ?prj@@3VCProject@@A ; prj
  00005	e9 00 00 00 00	 jmp	 ??1CProject@@UAE@XZ	; CProject::~CProject
??__Fprj@@YAXXZ ENDP					; `dynamic atexit destructor for 'prj''
text$yd	ENDS
; Function compile flags: /Ogtp
; File C:\IAGOS\server\v18\Source\Source\WorldServer\StdAfx.cpp
;	COMDAT ??__Eprj@@YAXXZ
text$di	SEGMENT
??__Eprj@@YAXXZ PROC					; `dynamic initializer for 'prj'', COMDAT

; 8    : CProject		prj;

  00000	b9 00 00 00 00	 mov	 ecx, OFFSET ?prj@@3VCProject@@A ; prj
  00005	e8 00 00 00 00	 call	 ??0CProject@@QAE@XZ	; CProject::CProject
  0000a	68 00 00 00 00	 push	 OFFSET ??__Fprj@@YAXXZ	; `dynamic atexit destructor for 'prj''
  0000f	e8 00 00 00 00	 call	 _atexit
  00014	59		 pop	 ecx
  00015	c3		 ret	 0
??__Eprj@@YAXXZ ENDP					; `dynamic initializer for 'prj''
text$di	ENDS
; Function compile flags: /Ogtp
; File C:\IAGOS\server\v18\Source\Source\_network\CmnHdr.h
; File C:\Program Files\Microsoft Visual Studio\2022\Professional\VC\Tools\MSVC\14.44.35207\atlmfc\include\afxstr.h
; File C:\Program Files\Microsoft Visual Studio\2022\Professional\VC\Tools\MSVC\14.44.35207\atlmfc\include\atlsimpstr.h
; File C:\IAGOS\server\v18\Source\Source\_network\CmnHdr.h
; File C:\Program Files\Microsoft Visual Studio\2022\Professional\VC\Tools\MSVC\14.44.35207\atlmfc\include\atlsimpstr.h
; File C:\Program Files\Microsoft Visual Studio\2022\Professional\VC\Tools\MSVC\14.44.35207\atlmfc\include\cstringt.h
; File C:\Program Files\Microsoft Visual Studio\2022\Professional\VC\Tools\MSVC\14.44.35207\atlmfc\include\atlsimpstr.h
; File C:\Program Files\Microsoft Visual Studio\2022\Professional\VC\Tools\MSVC\14.44.35207\atlmfc\include\cstringt.h
; File C:\Program Files\Microsoft Visual Studio\2022\Professional\VC\Tools\MSVC\14.44.35207\atlmfc\include\atlchecked.h
; File C:\Program Files\Microsoft Visual Studio\2022\Professional\VC\Tools\MSVC\14.44.35207\atlmfc\include\atlsimpstr.h
; File C:\IAGOS\server\v18\Source\Source\_network\CmnHdr.h
; File C:\Program Files\Microsoft Visual Studio\2022\Professional\VC\Tools\MSVC\14.44.35207\atlmfc\include\cstringt.h
; File C:\IAGOS\server\v18\Source\Source\_network\CmnHdr.h
; File C:\Program Files\Microsoft Visual Studio\2022\Professional\VC\Tools\MSVC\14.44.35207\atlmfc\include\atlsimpstr.h
; File C:\IAGOS\server\v18\Source\Source\_network\CmnHdr.h
; File C:\Program Files\Microsoft Visual Studio\2022\Professional\VC\Tools\MSVC\14.44.35207\atlmfc\include\atlsimpstr.h
; File C:\IAGOS\server\v18\Source\Source\_network\CmnHdr.h
; File C:\Program Files\Microsoft Visual Studio\2022\Professional\VC\Tools\MSVC\14.44.35207\atlmfc\include\atlsimpstr.h
; File C:\IAGOS\server\v18\Source\Source\_network\CmnHdr.h
; File C:\Program Files\Microsoft Visual Studio\2022\Professional\VC\Tools\MSVC\14.44.35207\atlmfc\include\atlsimpstr.h
; File C:\IAGOS\server\v18\Source\Source\_network\CmnHdr.h
; File C:\Program Files\Microsoft Visual Studio\2022\Professional\VC\Tools\MSVC\14.44.35207\atlmfc\include\atlsimpstr.h
; File C:\IAGOS\server\v18\Source\Source\_network\CmnHdr.h
; File C:\Program Files\Microsoft Visual Studio\2022\Professional\VC\Tools\MSVC\14.44.35207\atlmfc\include\atlsimpstr.h
; File C:\IAGOS\server\v18\Source\Source\_network\CmnHdr.h
; File C:\Program Files\Microsoft Visual Studio\2022\Professional\VC\Tools\MSVC\14.44.35207\atlmfc\include\atlsimpstr.h
; File C:\IAGOS\server\v18\Source\Source\_network\CmnHdr.h
;	COMDAT ?KillProcess@@YAHV?$CStringT@DV?$StrTraitMFC@DV?$ChTraitsCRT@D@ATL@@@@@ATL@@@Z
_TEXT	SEGMENT
_strProcessName$2 = -316				; size = 4
_dwExitCode$3 = -316					; size = 4
_pe32$4 = -312						; size = 296
__$ArrayPad$ = -16					; size = 4
__$EHRec$ = -12						; size = 12
_sExeName$ = 8						; size = 4
?KillProcess@@YAHV?$CStringT@DV?$StrTraitMFC@DV?$ChTraitsCRT@D@ATL@@@@@ATL@@@Z PROC ; KillProcess, COMDAT

; 422  : {

  00000	55		 push	 ebp
  00001	8b ec		 mov	 ebp, esp
  00003	6a ff		 push	 -1
  00005	68 00 00 00 00	 push	 __ehhandler$?KillProcess@@YAHV?$CStringT@DV?$StrTraitMFC@DV?$ChTraitsCRT@D@ATL@@@@@ATL@@@Z
  0000a	64 a1 00 00 00
	00		 mov	 eax, DWORD PTR fs:0
  00010	50		 push	 eax
  00011	81 ec 30 01 00
	00		 sub	 esp, 304		; 00000130H
  00017	a1 00 00 00 00	 mov	 eax, DWORD PTR ___security_cookie
  0001c	33 c5		 xor	 eax, ebp
  0001e	89 45 f0	 mov	 DWORD PTR __$ArrayPad$[ebp], eax
  00021	53		 push	 ebx
  00022	56		 push	 esi
  00023	57		 push	 edi
  00024	50		 push	 eax
  00025	8d 45 f4	 lea	 eax, DWORD PTR __$EHRec$[ebp]
  00028	64 a3 00 00 00
	00		 mov	 DWORD PTR fs:0, eax

; 423  : 	sExeName.MakeUpper();

  0002e	8d 4d 08	 lea	 ecx, DWORD PTR _sExeName$[ebp]
  00031	c7 45 fc 00 00
	00 00		 mov	 DWORD PTR __$EHRec$[ebp+8], 0
  00038	e8 00 00 00 00	 call	 ?MakeUpper@?$CStringT@DV?$StrTraitMFC@DV?$ChTraitsCRT@D@ATL@@@@@ATL@@QAEAAV12@XZ ; ATL::CStringT<char,StrTraitMFC<char,ATL::ChTraitsCRT<char> > >::MakeUpper

; 424  : 	HANDLE hSnapshot	= CreateToolhelp32Snapshot( TH32CS_SNAPPROCESS, 0 );

  0003d	6a 00		 push	 0
  0003f	6a 02		 push	 2
  00041	e8 00 00 00 00	 call	 _CreateToolhelp32Snapshot@8
  00046	8b d8		 mov	 ebx, eax

; 425  : 	if( (int)hSnapshot != -1 )

  00048	83 fb ff	 cmp	 ebx, -1
  0004b	0f 84 99 01 00
	00		 je	 $LN119@KillProces

; 426  : 	{
; 427  : 		PROCESSENTRY32 pe32;
; 428  : 		pe32.dwSize		= sizeof( PROCESSENTRY32 );

  00051	c7 85 c8 fe ff
	ff 28 01 00 00	 mov	 DWORD PTR _pe32$4[ebp], 296 ; 00000128H
; File C:\Program Files\Microsoft Visual Studio\2022\Professional\VC\Tools\MSVC\14.44.35207\atlmfc\include\afxstr.h

; 56   : 		return( AfxGetStringManager() );

  0005b	e8 00 00 00 00	 call	 ?AfxGetStringManager@@YGPAUIAtlStringMgr@ATL@@XZ ; AfxGetStringManager
  00060	8b c8		 mov	 ecx, eax
; File C:\Program Files\Microsoft Visual Studio\2022\Professional\VC\Tools\MSVC\14.44.35207\atlmfc\include\atlsimpstr.h

; 209  : 		ATLENSURE( pStringMgr != NULL );

  00062	85 c9		 test	 ecx, ecx
  00064	0f 84 c2 01 00
	00		 je	 $LN123@KillProces

; 210  : 		CStringData* pData = pStringMgr->GetNilString();

  0006a	8b 01		 mov	 eax, DWORD PTR [ecx]
  0006c	ff 50 0c	 call	 DWORD PTR [eax+12]

; 211  : 		Attach( pData );

  0006f	8d 70 10	 lea	 esi, DWORD PTR [eax+16]
  00072	89 b5 c4 fe ff
	ff		 mov	 DWORD PTR _strProcessName$2[ebp], esi
; File C:\IAGOS\server\v18\Source\Source\_network\CmnHdr.h

; 431  : 		if( Process32First( hSnapshot, &pe32 ) )

  00078	8d 85 c8 fe ff
	ff		 lea	 eax, DWORD PTR _pe32$4[ebp]
  0007e	c6 45 fc 01	 mov	 BYTE PTR __$EHRec$[ebp+8], 1
  00082	50		 push	 eax
  00083	53		 push	 ebx
  00084	e8 00 00 00 00	 call	 _Process32First@8
  00089	85 c0		 test	 eax, eax
  0008b	0f 84 b9 00 00
	00		 je	 $LN3@KillProces
$LL4@KillProces:
; File C:\Program Files\Microsoft Visual Studio\2022\Professional\VC\Tools\MSVC\14.44.35207\atlmfc\include\atlsimpstr.h

; 730  : 		return( int( strlen( psz ) ) );

  00091	8d 8d ec fe ff
	ff		 lea	 ecx, DWORD PTR _pe32$4[ebp+36]
  00097	8d 51 01	 lea	 edx, DWORD PTR [ecx+1]
  0009a	66 0f 1f 44 00
	00		 npad	 6
$LL118@KillProces:
  000a0	8a 01		 mov	 al, BYTE PTR [ecx]
  000a2	41		 inc	 ecx
  000a3	84 c0		 test	 al, al
  000a5	75 f9		 jne	 SHORT $LL118@KillProces
  000a7	2b ca		 sub	 ecx, edx

; 606  : 		SetString( pszSrc, StringLength( pszSrc ) );

  000a9	8d 85 ec fe ff
	ff		 lea	 eax, DWORD PTR _pe32$4[ebp+36]
  000af	51		 push	 ecx
  000b0	50		 push	 eax
  000b1	8d 8d c4 fe ff
	ff		 lea	 ecx, DWORD PTR _strProcessName$2[ebp]
  000b7	e8 00 00 00 00	 call	 ?SetString@?$CSimpleStringT@D$0A@@ATL@@QAEXPBDH@Z ; ATL::CSimpleStringT<char,0>::SetString
; File C:\Program Files\Microsoft Visual Studio\2022\Professional\VC\Tools\MSVC\14.44.35207\atlmfc\include\cstringt.h

; 1830 : 		int nLength = this->GetLength();

  000bc	8b b5 c4 fe ff
	ff		 mov	 esi, DWORD PTR _strProcessName$2[ebp]
  000c2	8b 7e f4	 mov	 edi, DWORD PTR [esi-12]
; File C:\Program Files\Microsoft Visual Studio\2022\Professional\VC\Tools\MSVC\14.44.35207\atlmfc\include\atlsimpstr.h

; 808  : 		if (nLength < 0)

  000c5	85 ff		 test	 edi, edi
  000c7	0f 88 69 01 00
	00		 js	 $LN110@KillProces

; 810  : 
; 811  : 		CStringData* pOldData = GetData();
; 812  : 		int nShared = 1-pOldData->nRefs;  // nShared < 0 means true, >= 0 means false
; 813  : 		int nTooShort = pOldData->nAllocLength-nLength;  // nTooShort < 0 means true, >= 0 means false

  000cd	8b 46 f8	 mov	 eax, DWORD PTR [esi-8]
  000d0	b9 01 00 00 00	 mov	 ecx, 1
  000d5	2b 4e fc	 sub	 ecx, DWORD PTR [esi-4]
  000d8	2b c7		 sub	 eax, edi

; 814  : 		if( (nShared|nTooShort) < 0 )  // If either sign bit is set (i.e. either is less than zero), we need to copy data

  000da	0b c1		 or	 eax, ecx
  000dc	7d 12		 jge	 SHORT $LN33@KillProces

; 815  : 		{
; 816  : 			PrepareWrite2( nLength );

  000de	57		 push	 edi
  000df	8d 8d c4 fe ff
	ff		 lea	 ecx, DWORD PTR _strProcessName$2[ebp]
  000e5	e8 00 00 00 00	 call	 ?PrepareWrite2@?$CSimpleStringT@D$0A@@ATL@@AAEXH@Z ; ATL::CSimpleStringT<char,0>::PrepareWrite2
  000ea	8b b5 c4 fe ff
	ff		 mov	 esi, DWORD PTR _strProcessName$2[ebp]
$LN33@KillProces:
; File C:\Program Files\Microsoft Visual Studio\2022\Professional\VC\Tools\MSVC\14.44.35207\atlmfc\include\cstringt.h

; 1832 : 		StringTraits::StringUppercase( pszBuffer, nLength+1 );

  000f0	8d 47 01	 lea	 eax, DWORD PTR [edi+1]
; File C:\Program Files\Microsoft Visual Studio\2022\Professional\VC\Tools\MSVC\14.44.35207\atlmfc\include\atlchecked.h

; 218  : 	ATLMFC_CRT_ERRORCHECK(::_mbsupr_s(_Str, _SizeInChars));

  000f3	50		 push	 eax
  000f4	56		 push	 esi
  000f5	e8 00 00 00 00	 call	 __mbsupr_s
  000fa	50		 push	 eax
  000fb	e8 00 00 00 00	 call	 ?AfxCrtErrorCheck@@YAHH@Z ; AfxCrtErrorCheck
  00100	83 c4 0c	 add	 esp, 12			; 0000000cH
; File C:\Program Files\Microsoft Visual Studio\2022\Professional\VC\Tools\MSVC\14.44.35207\atlmfc\include\atlsimpstr.h

; 875  : 		if( nLength < 0 || nLength > GetData()->nAllocLength)

  00103	3b 7e f8	 cmp	 edi, DWORD PTR [esi-8]
  00106	0f 8f 2a 01 00
	00		 jg	 $LN110@KillProces

; 876  : 			AtlThrow(E_INVALIDARG);
; 877  : 
; 878  : 		GetData()->nDataLength = nLength;

  0010c	89 7e f4	 mov	 DWORD PTR [esi-12], edi

; 879  : 		m_pszData[nLength] = 0;

  0010f	c6 04 37 00	 mov	 BYTE PTR [edi+esi], 0
; File C:\IAGOS\server\v18\Source\Source\_network\CmnHdr.h

; 437  : 				if( (strProcessName.Find( sExeName, 0 ) != -1 ) )

  00113	8b 45 08	 mov	 eax, DWORD PTR _sExeName$[ebp]
  00116	85 c0		 test	 eax, eax
; File C:\Program Files\Microsoft Visual Studio\2022\Professional\VC\Tools\MSVC\14.44.35207\atlmfc\include\cstringt.h

; 1789 : 		if(pszSub == NULL)

  00118	74 1b		 je	 SHORT $LN116@KillProces

; 1790 : 		{
; 1791 : 			return( -1 );
; 1792 : 		}
; 1793 : 		// nLength is in XCHARs
; 1794 : 		int nLength = this->GetLength();
; 1795 : 		if( iStart < 0 || iStart > nLength )

  0011a	83 7e f4 00	 cmp	 DWORD PTR [esi-12], 0
  0011e	7c 15		 jl	 SHORT $LN116@KillProces

; 212  : 		return reinterpret_cast< LPCSTR >( _mbsstr( reinterpret_cast< const unsigned char* >( pszBlock ),

  00120	50		 push	 eax
  00121	56		 push	 esi
  00122	e8 00 00 00 00	 call	 __mbsstr
  00127	83 c4 08	 add	 esp, 8

; 1804 : 		return( (psz == NULL) ? -1 : int( psz - this->GetString() ) );

  0012a	85 c0		 test	 eax, eax
  0012c	74 07		 je	 SHORT $LN116@KillProces
  0012e	2b c6		 sub	 eax, esi
; File C:\IAGOS\server\v18\Source\Source\_network\CmnHdr.h

; 437  : 				if( (strProcessName.Find( sExeName, 0 ) != -1 ) )

  00130	83 f8 ff	 cmp	 eax, -1
  00133	75 40		 jne	 SHORT $LN113@KillProces
$LN116@KillProces:

; 451  : 				}
; 452  : 				fContinue	= Process32Next( hSnapshot, &pe32 );

  00135	8d 85 c8 fe ff
	ff		 lea	 eax, DWORD PTR _pe32$4[ebp]
  0013b	50		 push	 eax
  0013c	53		 push	 ebx
  0013d	e8 00 00 00 00	 call	 _Process32Next@8

; 453  : 			} while( fContinue );

  00142	85 c0		 test	 eax, eax
  00144	0f 85 47 ff ff
	ff		 jne	 $LL4@KillProces
$LN3@KillProces:

; 454  : 		}
; 455  : 		CloseHandle( hSnapshot );

  0014a	53		 push	 ebx
  0014b	ff 15 00 00 00
	00		 call	 DWORD PTR __imp__CloseHandle@4
; File C:\Program Files\Microsoft Visual Studio\2022\Professional\VC\Tools\MSVC\14.44.35207\atlmfc\include\atlsimpstr.h

; 92   : 		if( _InterlockedDecrement( &nRefs ) <= 0 )

  00151	83 cb ff	 or	 ebx, -1
; File C:\IAGOS\server\v18\Source\Source\_network\CmnHdr.h

; 456  : 	}

  00154	c6 45 fc 00	 mov	 BYTE PTR __$EHRec$[ebp+8], 0
; File C:\Program Files\Microsoft Visual Studio\2022\Professional\VC\Tools\MSVC\14.44.35207\atlmfc\include\atlsimpstr.h

; 804  : 		return( reinterpret_cast< CStringData* >( m_pszData )-1 );

  00158	83 c6 f0	 add	 esi, -16		; fffffff0H

; 92   : 		if( _InterlockedDecrement( &nRefs ) <= 0 )

  0015b	8b c3		 mov	 eax, ebx
  0015d	f0 0f c1 46 0c	 lock	  xadd	 DWORD PTR [esi+12], eax
  00162	48		 dec	 eax
  00163	85 c0		 test	 eax, eax
  00165	0f 8f 82 00 00
	00		 jg	 $LN98@KillProces

; 93   : 		{
; 94   : 			pStringMgr->Free( this );

  0016b	8b 0e		 mov	 ecx, DWORD PTR [esi]
  0016d	56		 push	 esi
  0016e	8b 01		 mov	 eax, DWORD PTR [ecx]
  00170	ff 50 04	 call	 DWORD PTR [eax+4]
; File C:\IAGOS\server\v18\Source\Source\_network\CmnHdr.h

; 425  : 	if( (int)hSnapshot != -1 )

  00173	eb 78		 jmp	 SHORT $LN98@KillProces
$LN113@KillProces:

; 438  : 				{
; 439  : 					HANDLE hProcess		= OpenProcess( PROCESS_ALL_ACCESS, 0, pe32.th32ParentProcessID );

  00175	ff b5 e0 fe ff
	ff		 push	 DWORD PTR _pe32$4[ebp+24]
  0017b	6a 00		 push	 0
  0017d	68 ff 0f 1f 00	 push	 2035711			; 001f0fffH
  00182	ff 15 00 00 00
	00		 call	 DWORD PTR __imp__OpenProcess@12
  00188	8b f8		 mov	 edi, eax

; 440  : 					if( hProcess )

  0018a	85 ff		 test	 edi, edi
  0018c	74 3a		 je	 SHORT $LN8@KillProces

; 441  : 					{
; 442  : 						DWORD dwExitCode;
; 443  : 						GetExitCodeProcess( hProcess, &dwExitCode );

  0018e	8d 85 c4 fe ff
	ff		 lea	 eax, DWORD PTR _dwExitCode$3[ebp]
  00194	50		 push	 eax
  00195	57		 push	 edi
  00196	ff 15 00 00 00
	00		 call	 DWORD PTR __imp__GetExitCodeProcess@8

; 444  : 						TerminateProcess( hProcess, dwExitCode );

  0019c	ff b5 c4 fe ff
	ff		 push	 DWORD PTR _dwExitCode$3[ebp]
  001a2	57		 push	 edi
  001a3	ff 15 00 00 00
	00		 call	 DWORD PTR __imp__TerminateProcess@8

; 445  : 						WaitForSingleObject( hProcess, 60 * 1000 );

  001a9	68 60 ea 00 00	 push	 60000			; 0000ea60H
  001ae	57		 push	 edi
  001af	ff 15 00 00 00
	00		 call	 DWORD PTR __imp__WaitForSingleObject@8

; 446  : 						CloseHandle( hProcess );

  001b5	57		 push	 edi
  001b6	8b 3d 00 00 00
	00		 mov	 edi, DWORD PTR __imp__CloseHandle@4
  001bc	ff d7		 call	 edi

; 447  : 						CloseHandle( hSnapshot );

  001be	53		 push	 ebx
  001bf	ff d7		 call	 edi
  001c1	bf 01 00 00 00	 mov	 edi, 1
  001c6	eb 02		 jmp	 SHORT $LN12@KillProces
$LN8@KillProces:

; 450  : 					return FALSE;

  001c8	33 ff		 xor	 edi, edi
$LN12@KillProces:
; File C:\Program Files\Microsoft Visual Studio\2022\Professional\VC\Tools\MSVC\14.44.35207\atlmfc\include\atlsimpstr.h

; 92   : 		if( _InterlockedDecrement( &nRefs ) <= 0 )

  001ca	83 cb ff	 or	 ebx, -1
; File C:\IAGOS\server\v18\Source\Source\_network\CmnHdr.h

; 450  : 					return FALSE;

  001cd	c6 45 fc 00	 mov	 BYTE PTR __$EHRec$[ebp+8], 0
; File C:\Program Files\Microsoft Visual Studio\2022\Professional\VC\Tools\MSVC\14.44.35207\atlmfc\include\atlsimpstr.h

; 804  : 		return( reinterpret_cast< CStringData* >( m_pszData )-1 );

  001d1	83 c6 f0	 add	 esi, -16		; fffffff0H

; 92   : 		if( _InterlockedDecrement( &nRefs ) <= 0 )

  001d4	8b c3		 mov	 eax, ebx
  001d6	f0 0f c1 46 0c	 lock	  xadd	 DWORD PTR [esi+12], eax
  001db	48		 dec	 eax
  001dc	85 c0		 test	 eax, eax
  001de	7f 0f		 jg	 SHORT $LN13@KillProces

; 93   : 		{
; 94   : 			pStringMgr->Free( this );

  001e0	8b 0e		 mov	 ecx, DWORD PTR [esi]
  001e2	56		 push	 esi
  001e3	8b 01		 mov	 eax, DWORD PTR [ecx]
  001e5	ff 50 04	 call	 DWORD PTR [eax+4]
  001e8	eb 05		 jmp	 SHORT $LN13@KillProces
$LN119@KillProces:
; File C:\IAGOS\server\v18\Source\Source\_network\CmnHdr.h

; 425  : 	if( (int)hSnapshot != -1 )

  001ea	83 cb ff	 or	 ebx, -1
$LN98@KillProces:

; 457  : 	return FALSE;

  001ed	33 ff		 xor	 edi, edi
$LN13@KillProces:
; File C:\Program Files\Microsoft Visual Studio\2022\Professional\VC\Tools\MSVC\14.44.35207\atlmfc\include\atlsimpstr.h

; 804  : 		return( reinterpret_cast< CStringData* >( m_pszData )-1 );

  001ef	8b 45 08	 mov	 eax, DWORD PTR _sExeName$[ebp]
; File C:\IAGOS\server\v18\Source\Source\_network\CmnHdr.h

; 457  : 	return FALSE;

  001f2	c7 45 fc ff ff
	ff ff		 mov	 DWORD PTR __$EHRec$[ebp+8], -1
; File C:\Program Files\Microsoft Visual Studio\2022\Professional\VC\Tools\MSVC\14.44.35207\atlmfc\include\atlsimpstr.h

; 804  : 		return( reinterpret_cast< CStringData* >( m_pszData )-1 );

  001f9	83 c0 f0	 add	 eax, -16		; fffffff0H

; 92   : 		if( _InterlockedDecrement( &nRefs ) <= 0 )

  001fc	f0 0f c1 58 0c	 lock	  xadd	 DWORD PTR [eax+12], ebx
  00201	4b		 dec	 ebx
  00202	85 db		 test	 ebx, ebx
  00204	7f 08		 jg	 SHORT $LN75@KillProces

; 93   : 		{
; 94   : 			pStringMgr->Free( this );

  00206	8b 08		 mov	 ecx, DWORD PTR [eax]
  00208	50		 push	 eax
  00209	8b 11		 mov	 edx, DWORD PTR [ecx]
  0020b	ff 52 04	 call	 DWORD PTR [edx+4]
$LN75@KillProces:
; File C:\IAGOS\server\v18\Source\Source\_network\CmnHdr.h

; 457  : 	return FALSE;

  0020e	8b c7		 mov	 eax, edi

; 458  : }

  00210	8b 4d f4	 mov	 ecx, DWORD PTR __$EHRec$[ebp]
  00213	64 89 0d 00 00
	00 00		 mov	 DWORD PTR fs:0, ecx
  0021a	59		 pop	 ecx
  0021b	5f		 pop	 edi
  0021c	5e		 pop	 esi
  0021d	5b		 pop	 ebx
  0021e	8b 4d f0	 mov	 ecx, DWORD PTR __$ArrayPad$[ebp]
  00221	33 cd		 xor	 ecx, ebp
  00223	e8 00 00 00 00	 call	 @__security_check_cookie@4
  00228	8b e5		 mov	 esp, ebp
  0022a	5d		 pop	 ebp
  0022b	c3		 ret	 0
$LN123@KillProces:
; File C:\Program Files\Microsoft Visual Studio\2022\Professional\VC\Tools\MSVC\14.44.35207\atlmfc\include\atlsimpstr.h

; 209  : 		ATLENSURE( pStringMgr != NULL );

  0022c	68 05 40 00 80	 push	 -2147467259		; 80004005H
  00231	e8 00 00 00 00	 call	 ?AtlThrowImpl@ATL@@YGXJ@Z ; ATL::AtlThrowImpl
$LN110@KillProces:

; 809  : 			AtlThrow(E_INVALIDARG);

  00236	68 57 00 07 80	 push	 -2147024809		; 80070057H
  0023b	e8 00 00 00 00	 call	 ?AtlThrowImpl@ATL@@YGXJ@Z ; ATL::AtlThrowImpl
$LN121@KillProces:
  00240	cc		 int	 3
_TEXT	ENDS
;	COMDAT text$x
text$x	SEGMENT
__unwindfunclet$?KillProcess@@YAHV?$CStringT@DV?$StrTraitMFC@DV?$ChTraitsCRT@D@ATL@@@@@ATL@@@Z$0:
  00000	8d 4d 08	 lea	 ecx, DWORD PTR _sExeName$[ebp]
  00003	e9 00 00 00 00	 jmp	 ??1?$CStringT@DV?$StrTraitMFC@DV?$ChTraitsCRT@D@ATL@@@@@ATL@@QAE@XZ ; ATL::CStringT<char,StrTraitMFC<char,ATL::ChTraitsCRT<char> > >::~CStringT<char,StrTraitMFC<char,ATL::ChTraitsCRT<char> > >
__unwindfunclet$?KillProcess@@YAHV?$CStringT@DV?$StrTraitMFC@DV?$ChTraitsCRT@D@ATL@@@@@ATL@@@Z$1:
  00008	8d 8d c4 fe ff
	ff		 lea	 ecx, DWORD PTR _strProcessName$2[ebp]
  0000e	e9 00 00 00 00	 jmp	 ??1?$CStringT@DV?$StrTraitMFC@DV?$ChTraitsCRT@D@ATL@@@@@ATL@@QAE@XZ ; ATL::CStringT<char,StrTraitMFC<char,ATL::ChTraitsCRT<char> > >::~CStringT<char,StrTraitMFC<char,ATL::ChTraitsCRT<char> > >
  00013	cc		 int	 3
  00014	cc		 int	 3
  00015	cc		 int	 3
  00016	cc		 int	 3
  00017	cc		 int	 3
__ehhandler$?KillProcess@@YAHV?$CStringT@DV?$StrTraitMFC@DV?$ChTraitsCRT@D@ATL@@@@@ATL@@@Z:
  00018	90		 npad	 1
  00019	90		 npad	 1
  0001a	8b 54 24 08	 mov	 edx, DWORD PTR [esp+8]
  0001e	8d 42 0c	 lea	 eax, DWORD PTR [edx+12]
  00021	8b 8a c0 fe ff
	ff		 mov	 ecx, DWORD PTR [edx-320]
  00027	33 c8		 xor	 ecx, eax
  00029	e8 00 00 00 00	 call	 @__security_check_cookie@4
  0002e	8b 4a fc	 mov	 ecx, DWORD PTR [edx-4]
  00031	33 c8		 xor	 ecx, eax
  00033	e8 00 00 00 00	 call	 @__security_check_cookie@4
  00038	b8 00 00 00 00	 mov	 eax, OFFSET __ehfuncinfo$?KillProcess@@YAHV?$CStringT@DV?$StrTraitMFC@DV?$ChTraitsCRT@D@ATL@@@@@ATL@@@Z
  0003d	e9 00 00 00 00	 jmp	 ___CxxFrameHandler3
text$x	ENDS
?KillProcess@@YAHV?$CStringT@DV?$StrTraitMFC@DV?$ChTraitsCRT@D@ATL@@@@@ATL@@@Z ENDP ; KillProcess
; Function compile flags: /Ogtp
; File C:\Program Files\Microsoft Visual Studio\2022\Professional\VC\Tools\MSVC\14.44.35207\atlmfc\include\atlstr.h
;	COMDAT ??__E?isInitialized@CAtlStringMgr@ATL@@0_NA@@YAXXZ
text$di	SEGMENT
??__E?isInitialized@CAtlStringMgr@ATL@@0_NA@@YAXXZ PROC	; `dynamic initializer for 'ATL::CAtlStringMgr::isInitialized'', COMDAT

; 182  : __declspec(selectany) bool CAtlStringMgr::isInitialized = ATLImplementationDetails::InitializeCAtlStringMgr.EnsureLinked() != nullptr;

  00000	b9 00 00 00 00	 mov	 ecx, OFFSET ?InitializeCAtlStringMgr@ATLImplementationDetails@ATL@@3UCAtlStringMgrStaticInitializer@12@A ; ATL::ATLImplementationDetails::InitializeCAtlStringMgr
  00005	e8 00 00 00 00	 call	 ?EnsureLinked@CAtlStringMgrStaticInitializer@ATLImplementationDetails@ATL@@QAEPAXXZ ; ATL::ATLImplementationDetails::CAtlStringMgrStaticInitializer::EnsureLinked
  0000a	85 c0		 test	 eax, eax
  0000c	0f 95 05 00 00
	00 00		 setne	 BYTE PTR ?isInitialized@CAtlStringMgr@ATL@@0_NA ; ATL::CAtlStringMgr::isInitialized
  00013	c3		 ret	 0
??__E?isInitialized@CAtlStringMgr@ATL@@0_NA@@YAXXZ ENDP	; `dynamic initializer for 'ATL::CAtlStringMgr::isInitialized''
text$di	ENDS
; Function compile flags: /Ogtp
; File C:\Program Files\Microsoft Visual Studio\2022\Professional\VC\Tools\MSVC\14.44.35207\atlmfc\include\atlstr.h
; File C:\Program Files\Microsoft Visual Studio\2022\Professional\VC\Tools\MSVC\14.44.35207\atlmfc\include\atlmem.h
; File C:\Program Files\Microsoft Visual Studio\2022\Professional\VC\Tools\MSVC\14.44.35207\atlmfc\include\atlstr.h
; File C:\Program Files\Microsoft Visual Studio\2022\Professional\VC\Tools\MSVC\14.44.35207\atlmfc\include\atlsimpstr.h
; File C:\Program Files\Microsoft Visual Studio\2022\Professional\VC\Tools\MSVC\14.44.35207\atlmfc\include\atlstr.h
; File C:\Program Files\Microsoft Visual Studio\2022\Professional\VC\Tools\MSVC\14.44.35207\atlmfc\include\atlsimpstr.h
; File C:\Program Files\Microsoft Visual Studio\2022\Professional\VC\Tools\MSVC\14.44.35207\atlmfc\include\atlstr.h
;	COMDAT ??__EInitializeCAtlStringMgr@ATLImplementationDetails@ATL@@YAXXZ
text$di	SEGMENT
??__EInitializeCAtlStringMgr@ATLImplementationDetails@ATL@@YAXXZ PROC ; ATL::ATLImplementationDetails::`dynamic initializer for 'InitializeCAtlStringMgr'', COMDAT

; 61   : 		static CWin32Heap strHeap( ::GetProcessHeap() );

  00000	64 a1 00 00 00
	00		 mov	 eax, DWORD PTR fs:__tls_array
  00006	8b 0d 00 00 00
	00		 mov	 ecx, DWORD PTR __tls_index

; 179  : __declspec(selectany) CAtlStringMgrStaticInitializer InitializeCAtlStringMgr;

  0000c	56		 push	 esi

; 61   : 		static CWin32Heap strHeap( ::GetProcessHeap() );

  0000d	8b 34 88	 mov	 esi, DWORD PTR [eax+ecx*4]
  00010	a1 00 00 00 00	 mov	 eax, DWORD PTR ?$TSS0@?1??GetInstance@CAtlStringMgr@ATL@@SAPAUIAtlStringMgr@3@XZ@4HA ; `ATL::CAtlStringMgr::GetInstance'::`2'::$TSS0
  00015	3b 86 00 00 00
	00		 cmp	 eax, DWORD PTR __Init_thread_epoch[esi]
  0001b	7f 0f		 jg	 SHORT $LN20@dynamic
$LN6@dynamic:

; 62   : 		static CAtlStringMgr strMgr(&strHeap);

  0001d	a1 00 00 00 00	 mov	 eax, DWORD PTR ?$TSS1@?1??GetInstance@CAtlStringMgr@ATL@@SAPAUIAtlStringMgr@3@XZ@4HA ; `ATL::CAtlStringMgr::GetInstance'::`2'::$TSS1
  00022	3b 86 00 00 00
	00		 cmp	 eax, DWORD PTR __Init_thread_epoch[esi]
  00028	5e		 pop	 esi
  00029	7f 4c		 jg	 SHORT $LN21@dynamic
$LN7@dynamic:

; 179  : __declspec(selectany) CAtlStringMgrStaticInitializer InitializeCAtlStringMgr;

  0002b	c3		 ret	 0
$LN20@dynamic:

; 61   : 		static CWin32Heap strHeap( ::GetProcessHeap() );

  0002c	68 00 00 00 00	 push	 OFFSET ?$TSS0@?1??GetInstance@CAtlStringMgr@ATL@@SAPAUIAtlStringMgr@3@XZ@4HA ; `ATL::CAtlStringMgr::GetInstance'::`2'::$TSS0
  00031	e8 00 00 00 00	 call	 __Init_thread_header
  00036	83 c4 04	 add	 esp, 4
  00039	83 3d 00 00 00
	00 ff		 cmp	 DWORD PTR ?$TSS0@?1??GetInstance@CAtlStringMgr@ATL@@SAPAUIAtlStringMgr@3@XZ@4HA, -1 ; `ATL::CAtlStringMgr::GetInstance'::`2'::$TSS0
  00040	75 db		 jne	 SHORT $LN6@dynamic
  00042	ff 15 00 00 00
	00		 call	 DWORD PTR __imp__GetProcessHeap@0
  00048	68 00 00 00 00	 push	 OFFSET ??__FstrHeap@?1??GetInstance@CAtlStringMgr@ATL@@SAPAUIAtlStringMgr@2@XZ@YAXXZ ; `ATL::CAtlStringMgr::GetInstance'::`2'::`dynamic atexit destructor for 'strHeap''
; File C:\Program Files\Microsoft Visual Studio\2022\Professional\VC\Tools\MSVC\14.44.35207\atlmfc\include\atlmem.h

; 93   : 	{

  0004d	c7 05 00 00 00
	00 00 00 00 00	 mov	 DWORD PTR ?strHeap@?1??GetInstance@CAtlStringMgr@ATL@@SAPAUIAtlStringMgr@3@XZ@4VCWin32Heap@3@A, OFFSET ??_7CWin32Heap@ATL@@6B@
  00057	a3 04 00 00 00	 mov	 DWORD PTR ?strHeap@?1??GetInstance@CAtlStringMgr@ATL@@SAPAUIAtlStringMgr@3@XZ@4VCWin32Heap@3@A+4, eax
  0005c	c6 05 08 00 00
	00 00		 mov	 BYTE PTR ?strHeap@?1??GetInstance@CAtlStringMgr@ATL@@SAPAUIAtlStringMgr@3@XZ@4VCWin32Heap@3@A+8, 0
; File C:\Program Files\Microsoft Visual Studio\2022\Professional\VC\Tools\MSVC\14.44.35207\atlmfc\include\atlstr.h

; 61   : 		static CWin32Heap strHeap( ::GetProcessHeap() );

  00063	e8 00 00 00 00	 call	 _atexit
  00068	68 00 00 00 00	 push	 OFFSET ?$TSS0@?1??GetInstance@CAtlStringMgr@ATL@@SAPAUIAtlStringMgr@3@XZ@4HA ; `ATL::CAtlStringMgr::GetInstance'::`2'::$TSS0
  0006d	e8 00 00 00 00	 call	 __Init_thread_footer
  00072	83 c4 08	 add	 esp, 8
  00075	eb a6		 jmp	 SHORT $LN6@dynamic
$LN21@dynamic:

; 62   : 		static CAtlStringMgr strMgr(&strHeap);

  00077	68 00 00 00 00	 push	 OFFSET ?$TSS1@?1??GetInstance@CAtlStringMgr@ATL@@SAPAUIAtlStringMgr@3@XZ@4HA ; `ATL::CAtlStringMgr::GetInstance'::`2'::$TSS1
  0007c	e8 00 00 00 00	 call	 __Init_thread_header
  00081	83 c4 04	 add	 esp, 4
  00084	83 3d 00 00 00
	00 ff		 cmp	 DWORD PTR ?$TSS1@?1??GetInstance@CAtlStringMgr@ATL@@SAPAUIAtlStringMgr@3@XZ@4HA, -1 ; `ATL::CAtlStringMgr::GetInstance'::`2'::$TSS1
  0008b	75 9e		 jne	 SHORT $LN7@dynamic
; File C:\Program Files\Microsoft Visual Studio\2022\Professional\VC\Tools\MSVC\14.44.35207\atlmfc\include\atlsimpstr.h

; 122  : 		achNil[0] = 0;

  0008d	33 c0		 xor	 eax, eax
; File C:\Program Files\Microsoft Visual Studio\2022\Professional\VC\Tools\MSVC\14.44.35207\atlmfc\include\atlstr.h

; 44   : 	{

  0008f	c7 05 00 00 00
	00 00 00 00 00	 mov	 DWORD PTR ?strMgr@?1??GetInstance@CAtlStringMgr@ATL@@SAPAUIAtlStringMgr@3@XZ@4V23@A, OFFSET ??_7CAtlStringMgr@ATL@@6B@

; 62   : 		static CAtlStringMgr strMgr(&strHeap);

  00099	68 00 00 00 00	 push	 OFFSET ??__FstrMgr@?1??GetInstance@CAtlStringMgr@ATL@@SAPAUIAtlStringMgr@2@XZ@YAXXZ ; `ATL::CAtlStringMgr::GetInstance'::`2'::`dynamic atexit destructor for 'strMgr''

; 43   : 		m_pMemMgr( pMemMgr )

  0009e	c7 05 04 00 00
	00 00 00 00 00	 mov	 DWORD PTR ?strMgr@?1??GetInstance@CAtlStringMgr@ATL@@SAPAUIAtlStringMgr@3@XZ@4V23@A+4, OFFSET ?strHeap@?1??GetInstance@CAtlStringMgr@ATL@@SAPAUIAtlStringMgr@3@XZ@4VCWin32Heap@3@A ; `ATL::CAtlStringMgr::GetInstance'::`2'::strHeap
; File C:\Program Files\Microsoft Visual Studio\2022\Professional\VC\Tools\MSVC\14.44.35207\atlmfc\include\atlsimpstr.h

; 119  : 		nRefs = 2;  // Never gets freed by IAtlStringMgr

  000a8	c7 05 14 00 00
	00 02 00 00 00	 mov	 DWORD PTR ?strMgr@?1??GetInstance@CAtlStringMgr@ATL@@SAPAUIAtlStringMgr@3@XZ@4V23@A+20, 2

; 120  : 		nDataLength = 0;

  000b2	c7 05 0c 00 00
	00 00 00 00 00	 mov	 DWORD PTR ?strMgr@?1??GetInstance@CAtlStringMgr@ATL@@SAPAUIAtlStringMgr@3@XZ@4V23@A+12, 0

; 121  : 		nAllocLength = 0;

  000bc	c7 05 10 00 00
	00 00 00 00 00	 mov	 DWORD PTR ?strMgr@?1??GetInstance@CAtlStringMgr@ATL@@SAPAUIAtlStringMgr@3@XZ@4V23@A+16, 0

; 122  : 		achNil[0] = 0;

  000c6	a3 18 00 00 00	 mov	 DWORD PTR ?strMgr@?1??GetInstance@CAtlStringMgr@ATL@@SAPAUIAtlStringMgr@3@XZ@4V23@A+24, eax
; File C:\Program Files\Microsoft Visual Studio\2022\Professional\VC\Tools\MSVC\14.44.35207\atlmfc\include\atlstr.h

; 45   : 		m_nil.SetManager( this );

  000cb	c7 05 08 00 00
	00 00 00 00 00	 mov	 DWORD PTR ?strMgr@?1??GetInstance@CAtlStringMgr@ATL@@SAPAUIAtlStringMgr@3@XZ@4V23@A+8, OFFSET ?strMgr@?1??GetInstance@CAtlStringMgr@ATL@@SAPAUIAtlStringMgr@3@XZ@4V23@A ; `ATL::CAtlStringMgr::GetInstance'::`2'::strMgr

; 62   : 		static CAtlStringMgr strMgr(&strHeap);

  000d5	e8 00 00 00 00	 call	 _atexit
  000da	68 00 00 00 00	 push	 OFFSET ?$TSS1@?1??GetInstance@CAtlStringMgr@ATL@@SAPAUIAtlStringMgr@3@XZ@4HA ; `ATL::CAtlStringMgr::GetInstance'::`2'::$TSS1
  000df	e8 00 00 00 00	 call	 __Init_thread_footer
  000e4	83 c4 08	 add	 esp, 8
  000e7	e9 3f ff ff ff	 jmp	 $LN7@dynamic
??__EInitializeCAtlStringMgr@ATLImplementationDetails@ATL@@YAXXZ ENDP ; ATL::ATLImplementationDetails::`dynamic initializer for 'InitializeCAtlStringMgr''
text$di	ENDS
; Function compile flags: /Ogtp
; File C:\Program Files\Microsoft Visual Studio\2022\Professional\VC\Tools\MSVC\14.44.35207\atlmfc\include\atlstr.h
;	COMDAT ?EnsureLinked@CAtlStringMgrStaticInitializer@ATLImplementationDetails@ATL@@QAEPAXXZ
_TEXT	SEGMENT
?EnsureLinked@CAtlStringMgrStaticInitializer@ATLImplementationDetails@ATL@@QAEPAXXZ PROC ; ATL::ATLImplementationDetails::CAtlStringMgrStaticInitializer::EnsureLinked, COMDAT
; _this$ = ecx

; 175  : 		return this;

  00000	8b c1		 mov	 eax, ecx

; 176  : 	}

  00002	c3		 ret	 0
?EnsureLinked@CAtlStringMgrStaticInitializer@ATLImplementationDetails@ATL@@QAEPAXXZ ENDP ; ATL::ATLImplementationDetails::CAtlStringMgrStaticInitializer::EnsureLinked
_TEXT	ENDS
; Function compile flags: /Ogtp
; File C:\Program Files\Microsoft Visual Studio\2022\Professional\VC\Tools\MSVC\14.44.35207\atlmfc\include\atlstr.h
;	COMDAT ??__FstrMgr@?1??GetInstance@CAtlStringMgr@ATL@@SAPAUIAtlStringMgr@2@XZ@YAXXZ
text$yd	SEGMENT
??__FstrMgr@?1??GetInstance@CAtlStringMgr@ATL@@SAPAUIAtlStringMgr@2@XZ@YAXXZ PROC ; `ATL::CAtlStringMgr::GetInstance'::`2'::`dynamic atexit destructor for 'strMgr'', COMDAT

; 48   : 	{

  00000	c7 05 00 00 00
	00 00 00 00 00	 mov	 DWORD PTR ?strMgr@?1??GetInstance@CAtlStringMgr@ATL@@SAPAUIAtlStringMgr@3@XZ@4V23@A, OFFSET ??_7CAtlStringMgr@ATL@@6B@

; 49   : 		isInitialized = false;

  0000a	c6 05 00 00 00
	00 00		 mov	 BYTE PTR ?isInitialized@CAtlStringMgr@ATL@@0_NA, 0 ; ATL::CAtlStringMgr::isInitialized
  00011	c3		 ret	 0
??__FstrMgr@?1??GetInstance@CAtlStringMgr@ATL@@SAPAUIAtlStringMgr@2@XZ@YAXXZ ENDP ; `ATL::CAtlStringMgr::GetInstance'::`2'::`dynamic atexit destructor for 'strMgr''
text$yd	ENDS
; Function compile flags: /Ogtp
; File C:\Program Files\Microsoft Visual Studio\2022\Professional\VC\Tools\MSVC\14.44.35207\atlmfc\include\atlmem.h
;	COMDAT ??__FstrHeap@?1??GetInstance@CAtlStringMgr@ATL@@SAPAUIAtlStringMgr@2@XZ@YAXXZ
text$yd	SEGMENT
??__FstrHeap@?1??GetInstance@CAtlStringMgr@ATL@@SAPAUIAtlStringMgr@2@XZ@YAXXZ PROC ; `ATL::CAtlStringMgr::GetInstance'::`2'::`dynamic atexit destructor for 'strHeap'', COMDAT

; 115  : 		if( m_bOwnHeap && (m_hHeap != NULL) )

  00000	80 3d 08 00 00
	00 00		 cmp	 BYTE PTR ?strHeap@?1??GetInstance@CAtlStringMgr@ATL@@SAPAUIAtlStringMgr@3@XZ@4VCWin32Heap@3@A+8, 0
  00007	c7 05 00 00 00
	00 00 00 00 00	 mov	 DWORD PTR ?strHeap@?1??GetInstance@CAtlStringMgr@ATL@@SAPAUIAtlStringMgr@3@XZ@4VCWin32Heap@3@A, OFFSET ??_7CWin32Heap@ATL@@6B@
  00011	74 10		 je	 SHORT $LN4@dynamic
  00013	a1 04 00 00 00	 mov	 eax, DWORD PTR ?strHeap@?1??GetInstance@CAtlStringMgr@ATL@@SAPAUIAtlStringMgr@3@XZ@4VCWin32Heap@3@A+4
  00018	85 c0		 test	 eax, eax
  0001a	74 07		 je	 SHORT $LN4@dynamic

; 116  : 		{
; 117  : 			BOOL bSuccess;
; 118  : 
; 119  : 			bSuccess = ::HeapDestroy( m_hHeap );

  0001c	50		 push	 eax
  0001d	ff 15 00 00 00
	00		 call	 DWORD PTR __imp__HeapDestroy@4
$LN4@dynamic:
  00023	c3		 ret	 0
??__FstrHeap@?1??GetInstance@CAtlStringMgr@ATL@@SAPAUIAtlStringMgr@2@XZ@YAXXZ ENDP ; `ATL::CAtlStringMgr::GetInstance'::`2'::`dynamic atexit destructor for 'strHeap''
text$yd	ENDS
; Function compile flags: /Ogtp
; File C:\Program Files\Microsoft Visual Studio\2022\Professional\VC\Tools\MSVC\14.44.35207\atlmfc\include\atlstr.h
;	COMDAT ??_GCAtlStringMgr@ATL@@UAEPAXI@Z
_TEXT	SEGMENT
___flags$ = 8						; size = 4
??_GCAtlStringMgr@ATL@@UAEPAXI@Z PROC			; ATL::CAtlStringMgr::`scalar deleting destructor', COMDAT
; _this$ = ecx
  00000	55		 push	 ebp
  00001	8b ec		 mov	 ebp, esp
  00003	f6 45 08 01	 test	 BYTE PTR ___flags$[ebp], 1

; 48   : 	{

  00007	56		 push	 esi
  00008	8b f1		 mov	 esi, ecx
  0000a	c7 06 00 00 00
	00		 mov	 DWORD PTR [esi], OFFSET ??_7CAtlStringMgr@ATL@@6B@

; 49   : 		isInitialized = false;

  00010	c6 05 00 00 00
	00 00		 mov	 BYTE PTR ?isInitialized@CAtlStringMgr@ATL@@0_NA, 0 ; ATL::CAtlStringMgr::isInitialized
  00017	74 0b		 je	 SHORT $LN6@scalar
  00019	6a 1c		 push	 28			; 0000001cH
  0001b	56		 push	 esi
  0001c	e8 00 00 00 00	 call	 ??3@YAXPAXI@Z		; operator delete
  00021	83 c4 08	 add	 esp, 8
$LN6@scalar:
  00024	8b c6		 mov	 eax, esi
  00026	5e		 pop	 esi
  00027	5d		 pop	 ebp
  00028	c2 04 00	 ret	 4
??_GCAtlStringMgr@ATL@@UAEPAXI@Z ENDP			; ATL::CAtlStringMgr::`scalar deleting destructor'
_TEXT	ENDS
; Function compile flags: /Ogtp
; File C:\Program Files\Microsoft Visual Studio\2022\Professional\VC\Tools\MSVC\14.44.35207\atlmfc\include\atlstr.h
;	COMDAT ?Clone@CAtlStringMgr@ATL@@UAEPAUIAtlStringMgr@2@XZ
_TEXT	SEGMENT
?Clone@CAtlStringMgr@ATL@@UAEPAUIAtlStringMgr@2@XZ PROC	; ATL::CAtlStringMgr::Clone, COMDAT
; _this$ = ecx

; 152  : 		return this;

  00000	8b c1		 mov	 eax, ecx

; 153  : 	}

  00002	c3		 ret	 0
?Clone@CAtlStringMgr@ATL@@UAEPAUIAtlStringMgr@2@XZ ENDP	; ATL::CAtlStringMgr::Clone
_TEXT	ENDS
; Function compile flags: /Ogtp
; File C:\Program Files\Microsoft Visual Studio\2022\Professional\VC\Tools\MSVC\14.44.35207\atlmfc\include\atlstr.h
; File C:\Program Files\Microsoft Visual Studio\2022\Professional\VC\Tools\MSVC\14.44.35207\atlmfc\include\atlsimpstr.h
; File C:\Program Files\Microsoft Visual Studio\2022\Professional\VC\Tools\MSVC\14.44.35207\atlmfc\include\atlstr.h
;	COMDAT ?GetNilString@CAtlStringMgr@ATL@@UAEPAUCStringData@2@XZ
_TEXT	SEGMENT
?GetNilString@CAtlStringMgr@ATL@@UAEPAUCStringData@2@XZ PROC ; ATL::CAtlStringMgr::GetNilString, COMDAT
; _this$ = ecx
; File C:\Program Files\Microsoft Visual Studio\2022\Professional\VC\Tools\MSVC\14.44.35207\atlmfc\include\atlsimpstr.h

; 69   : 		_InterlockedIncrement(&nRefs);

  00000	f0 ff 41 14	 lock	  inc	 DWORD PTR [ecx+20]
; File C:\Program Files\Microsoft Visual Studio\2022\Professional\VC\Tools\MSVC\14.44.35207\atlmfc\include\atlstr.h

; 148  : 		return &m_nil;

  00004	8d 41 08	 lea	 eax, DWORD PTR [ecx+8]

; 149  : 	}

  00007	c3		 ret	 0
?GetNilString@CAtlStringMgr@ATL@@UAEPAUCStringData@2@XZ ENDP ; ATL::CAtlStringMgr::GetNilString
_TEXT	ENDS
; Function compile flags: /Ogtp
; File C:\Program Files\Microsoft Visual Studio\2022\Professional\VC\Tools\MSVC\14.44.35207\atlmfc\include\atlstr.h
; File C:\Program Files\Microsoft Visual Studio\2022\Professional\VC\Tools\MSVC\14.44.35207\atlmfc\include\atlalloc.h
; File C:\Program Files\Microsoft Visual Studio\2022\Professional\VC\Tools\MSVC\14.44.35207\atlmfc\include\atlmem.h
; File C:\Program Files\Microsoft Visual Studio\2022\Professional\VC\Tools\MSVC\14.44.35207\atlmfc\include\atlstr.h
; File C:\Program Files\Microsoft Visual Studio\2022\Professional\VC\Tools\MSVC\14.44.35207\atlmfc\include\atlalloc.h
; File C:\Program Files\Microsoft Visual Studio\2022\Professional\VC\Tools\MSVC\14.44.35207\atlmfc\include\atlstr.h
; File C:\Program Files\Microsoft Visual Studio\2022\Professional\VC\Tools\MSVC\14.44.35207\atlmfc\include\atlalloc.h
; File C:\Program Files\Microsoft Visual Studio\2022\Professional\VC\Tools\MSVC\14.44.35207\atlmfc\include\atlstr.h
;	COMDAT ?Reallocate@CAtlStringMgr@ATL@@UAEPAUCStringData@2@PAU32@HH@Z
_TEXT	SEGMENT
_pData$ = 8						; size = 4
_nChars$ = 12						; size = 4
_nCharSize$ = 16					; size = 4
?Reallocate@CAtlStringMgr@ATL@@UAEPAUCStringData@2@PAU32@HH@Z PROC ; ATL::CAtlStringMgr::Reallocate, COMDAT
; _this$ = ecx

; 115  : 	{

  00000	55		 push	 ebp
  00001	8b ec		 mov	 ebp, esp

; 116  : 		ATLENSURE_RETURN_VAL( nChars>=0, NULL );

  00003	8b 55 0c	 mov	 edx, DWORD PTR _nChars$[ebp]
  00006	56		 push	 esi
  00007	85 d2		 test	 edx, edx
  00009	78 4a		 js	 SHORT $LN12@Reallocate
; File C:\Program Files\Microsoft Visual Studio\2022\Professional\VC\Tools\MSVC\14.44.35207\atlmfc\include\atlalloc.h

; 89   : 	if(::ATL::AtlLimits<T>::_Max-tLeft < tRight)

  0000b	b8 ff ff ff 7f	 mov	 eax, 2147483647		; 7fffffffH
  00010	2b c2		 sub	 eax, edx
  00012	83 f8 01	 cmp	 eax, 1
  00015	7c 3e		 jl	 SHORT $LN12@Reallocate

; 93   : 	*ptResult= tLeft + tRight;

  00017	42		 inc	 edx
; File C:\Program Files\Microsoft Visual Studio\2022\Professional\VC\Tools\MSVC\14.44.35207\atlmfc\include\atlmem.h

; 33   : 	return( N( (n+(nAlign-1))&~(N( nAlign )-1) ) );

  00018	8d 72 07	 lea	 esi, DWORD PTR [edx+7]
  0001b	83 e6 f8	 and	 esi, -8			; fffffff8H
; File C:\Program Files\Microsoft Visual Studio\2022\Professional\VC\Tools\MSVC\14.44.35207\atlmfc\include\atlstr.h

; 129  : 		ATLENSURE_RETURN_VAL( nChars<=nAlignedChars, NULL );

  0001e	3b d6		 cmp	 edx, esi
  00020	7f 33		 jg	 SHORT $LN12@Reallocate
; File C:\Program Files\Microsoft Visual Studio\2022\Professional\VC\Tools\MSVC\14.44.35207\atlmfc\include\atlalloc.h

; 170  : 	unsigned __int64 i64Result=static_cast<unsigned __int64>(iLeft) * static_cast<unsigned __int64>(iRight);

  00022	8b c6		 mov	 eax, esi
  00024	f7 65 10	 mul	 DWORD PTR _nCharSize$[ebp]

; 171  : 	if(i64Result>ULONG_MAX)

  00027	85 d2		 test	 edx, edx
  00029	77 2a		 ja	 SHORT $LN12@Reallocate
  0002b	72 05		 jb	 SHORT $LN44@Reallocate
  0002d	83 f8 ff	 cmp	 eax, -1
  00030	77 23		 ja	 SHORT $LN12@Reallocate
$LN44@Reallocate:

; 89   : 	if(::ATL::AtlLimits<T>::_Max-tLeft < tRight)

  00032	83 f8 ef	 cmp	 eax, -17		; ffffffefH
  00035	77 1e		 ja	 SHORT $LN12@Reallocate
; File C:\Program Files\Microsoft Visual Studio\2022\Professional\VC\Tools\MSVC\14.44.35207\atlmfc\include\atlstr.h

; 136  : 		pNewData = static_cast< CStringData* >( m_pMemMgr->Reallocate( pData, nTotalSize ) );

  00037	8b 49 04	 mov	 ecx, DWORD PTR [ecx+4]
; File C:\Program Files\Microsoft Visual Studio\2022\Professional\VC\Tools\MSVC\14.44.35207\atlmfc\include\atlalloc.h

; 93   : 	*ptResult= tLeft + tRight;

  0003a	83 c0 10	 add	 eax, 16			; 00000010H
; File C:\Program Files\Microsoft Visual Studio\2022\Professional\VC\Tools\MSVC\14.44.35207\atlmfc\include\atlstr.h

; 136  : 		pNewData = static_cast< CStringData* >( m_pMemMgr->Reallocate( pData, nTotalSize ) );

  0003d	50		 push	 eax
  0003e	ff 75 08	 push	 DWORD PTR _pData$[ebp]
  00041	8b 11		 mov	 edx, DWORD PTR [ecx]
  00043	ff 52 08	 call	 DWORD PTR [edx+8]

; 137  : 		if( pNewData == NULL )

  00046	85 c0		 test	 eax, eax
  00048	74 0b		 je	 SHORT $LN12@Reallocate

; 138  : 		{
; 139  : 			return NULL;
; 140  : 		}
; 141  : 		pNewData->nAllocLength = nAlignedChars - 1;

  0004a	8d 4e ff	 lea	 ecx, DWORD PTR [esi-1]
  0004d	89 48 08	 mov	 DWORD PTR [eax+8], ecx
  00050	5e		 pop	 esi

; 142  : 
; 143  : 		return pNewData;
; 144  : 	}

  00051	5d		 pop	 ebp
  00052	c2 0c 00	 ret	 12			; 0000000cH
$LN12@Reallocate:

; 130  : 
; 131  : 		if(	FAILED(::ATL::AtlMultiply(&nDataBytes, static_cast<ULONG>(nAlignedChars), static_cast<ULONG>(nCharSize))) ||
; 132  : 			FAILED(::ATL::AtlAdd(&nTotalSize, static_cast<ULONG>(sizeof( CStringData )), nDataBytes)))
; 133  : 		{
; 134  : 			return NULL;

  00055	33 c0		 xor	 eax, eax
  00057	5e		 pop	 esi

; 142  : 
; 143  : 		return pNewData;
; 144  : 	}

  00058	5d		 pop	 ebp
  00059	c2 0c 00	 ret	 12			; 0000000cH
?Reallocate@CAtlStringMgr@ATL@@UAEPAUCStringData@2@PAU32@HH@Z ENDP ; ATL::CAtlStringMgr::Reallocate
_TEXT	ENDS
; Function compile flags: /Ogtp
; File C:\Program Files\Microsoft Visual Studio\2022\Professional\VC\Tools\MSVC\14.44.35207\atlmfc\include\atlstr.h
;	COMDAT ?Free@CAtlStringMgr@ATL@@UAEXPAUCStringData@2@@Z
_TEXT	SEGMENT
_pData$ = 8						; size = 4
?Free@CAtlStringMgr@ATL@@UAEXPAUCStringData@2@@Z PROC	; ATL::CAtlStringMgr::Free, COMDAT
; _this$ = ecx

; 105  : 	{

  00000	55		 push	 ebp
  00001	8b ec		 mov	 ebp, esp

; 106  : 		ATLASSUME(pData != NULL);
; 107  : 		ATLASSERT(pData->pStringMgr == this);
; 108  : 
; 109  : 		m_pMemMgr->Free( pData );

  00003	8b 49 04	 mov	 ecx, DWORD PTR [ecx+4]
  00006	8b 01		 mov	 eax, DWORD PTR [ecx]

; 110  : 	}

  00008	5d		 pop	 ebp

; 106  : 		ATLASSUME(pData != NULL);
; 107  : 		ATLASSERT(pData->pStringMgr == this);
; 108  : 
; 109  : 		m_pMemMgr->Free( pData );

  00009	ff 60 04	 jmp	 DWORD PTR [eax+4]
?Free@CAtlStringMgr@ATL@@UAEXPAUCStringData@2@@Z ENDP	; ATL::CAtlStringMgr::Free
_TEXT	ENDS
; Function compile flags: /Ogtp
; File C:\Program Files\Microsoft Visual Studio\2022\Professional\VC\Tools\MSVC\14.44.35207\atlmfc\include\atlstr.h
; File C:\Program Files\Microsoft Visual Studio\2022\Professional\VC\Tools\MSVC\14.44.35207\atlmfc\include\atlalloc.h
; File C:\Program Files\Microsoft Visual Studio\2022\Professional\VC\Tools\MSVC\14.44.35207\atlmfc\include\atlmem.h
; File C:\Program Files\Microsoft Visual Studio\2022\Professional\VC\Tools\MSVC\14.44.35207\atlmfc\include\atlstr.h
; File C:\Program Files\Microsoft Visual Studio\2022\Professional\VC\Tools\MSVC\14.44.35207\atlmfc\include\atlalloc.h
; File C:\Program Files\Microsoft Visual Studio\2022\Professional\VC\Tools\MSVC\14.44.35207\atlmfc\include\atlstr.h
; File C:\Program Files\Microsoft Visual Studio\2022\Professional\VC\Tools\MSVC\14.44.35207\atlmfc\include\atlalloc.h
; File C:\Program Files\Microsoft Visual Studio\2022\Professional\VC\Tools\MSVC\14.44.35207\atlmfc\include\atlstr.h
;	COMDAT ?Allocate@CAtlStringMgr@ATL@@UAEPAUCStringData@2@HH@Z
_TEXT	SEGMENT
_nChars$ = 8						; size = 4
_nCharSize$ = 12					; size = 4
?Allocate@CAtlStringMgr@ATL@@UAEPAUCStringData@2@HH@Z PROC ; ATL::CAtlStringMgr::Allocate, COMDAT
; _this$ = ecx

; 72   : 	{

  00000	55		 push	 ebp
  00001	8b ec		 mov	 ebp, esp

; 73   : 		ATLENSURE_RETURN_VAL( nChars>=0, NULL );

  00003	8b 55 08	 mov	 edx, DWORD PTR _nChars$[ebp]
  00006	56		 push	 esi
  00007	57		 push	 edi
  00008	8b f9		 mov	 edi, ecx
  0000a	85 d2		 test	 edx, edx
  0000c	78 57		 js	 SHORT $LN12@Allocate
; File C:\Program Files\Microsoft Visual Studio\2022\Professional\VC\Tools\MSVC\14.44.35207\atlmfc\include\atlalloc.h

; 89   : 	if(::ATL::AtlLimits<T>::_Max-tLeft < tRight)

  0000e	b8 ff ff ff 7f	 mov	 eax, 2147483647		; 7fffffffH
  00013	2b c2		 sub	 eax, edx
  00015	83 f8 01	 cmp	 eax, 1
  00018	7c 4b		 jl	 SHORT $LN12@Allocate

; 93   : 	*ptResult= tLeft + tRight;

  0001a	42		 inc	 edx
; File C:\Program Files\Microsoft Visual Studio\2022\Professional\VC\Tools\MSVC\14.44.35207\atlmfc\include\atlmem.h

; 33   : 	return( N( (n+(nAlign-1))&~(N( nAlign )-1) ) );

  0001b	8d 72 07	 lea	 esi, DWORD PTR [edx+7]
  0001e	83 e6 f8	 and	 esi, -8			; fffffff8H
; File C:\Program Files\Microsoft Visual Studio\2022\Professional\VC\Tools\MSVC\14.44.35207\atlmfc\include\atlstr.h

; 85   : 		ATLENSURE_RETURN_VAL( nChars<=nAlignedChars, NULL );

  00021	3b d6		 cmp	 edx, esi
  00023	7f 40		 jg	 SHORT $LN12@Allocate
; File C:\Program Files\Microsoft Visual Studio\2022\Professional\VC\Tools\MSVC\14.44.35207\atlmfc\include\atlalloc.h

; 140  : 	unsigned __int64 i64Result=static_cast<unsigned __int64>(iLeft) * static_cast<unsigned __int64>(iRight);

  00025	8b c6		 mov	 eax, esi
  00027	f7 65 0c	 mul	 DWORD PTR _nCharSize$[ebp]

; 141  : 	if(i64Result>UINT_MAX)

  0002a	85 d2		 test	 edx, edx
  0002c	77 37		 ja	 SHORT $LN12@Allocate
  0002e	72 05		 jb	 SHORT $LN44@Allocate
  00030	83 f8 ff	 cmp	 eax, -1
  00033	77 30		 ja	 SHORT $LN12@Allocate
$LN44@Allocate:

; 89   : 	if(::ATL::AtlLimits<T>::_Max-tLeft < tRight)

  00035	83 f8 ef	 cmp	 eax, -17		; ffffffefH
  00038	77 2b		 ja	 SHORT $LN12@Allocate
; File C:\Program Files\Microsoft Visual Studio\2022\Professional\VC\Tools\MSVC\14.44.35207\atlmfc\include\atlstr.h

; 92   : 		pData = static_cast< CStringData* >( m_pMemMgr->Allocate( nTotalSize ) );

  0003a	8b 4f 04	 mov	 ecx, DWORD PTR [edi+4]
; File C:\Program Files\Microsoft Visual Studio\2022\Professional\VC\Tools\MSVC\14.44.35207\atlmfc\include\atlalloc.h

; 93   : 	*ptResult= tLeft + tRight;

  0003d	8d 50 10	 lea	 edx, DWORD PTR [eax+16]
; File C:\Program Files\Microsoft Visual Studio\2022\Professional\VC\Tools\MSVC\14.44.35207\atlmfc\include\atlstr.h

; 92   : 		pData = static_cast< CStringData* >( m_pMemMgr->Allocate( nTotalSize ) );

  00040	52		 push	 edx
  00041	8b 01		 mov	 eax, DWORD PTR [ecx]
  00043	ff 10		 call	 DWORD PTR [eax]

; 93   : 		if( pData == NULL )

  00045	85 c0		 test	 eax, eax
  00047	74 1c		 je	 SHORT $LN12@Allocate

; 94   : 		{
; 95   : 			return( NULL );
; 96   : 		}
; 97   : 		pData->pStringMgr = this;

  00049	89 38		 mov	 DWORD PTR [eax], edi

; 98   : 		pData->nRefs = 1;
; 99   : 		pData->nAllocLength = nAlignedChars - 1;

  0004b	8d 4e ff	 lea	 ecx, DWORD PTR [esi-1]
  0004e	5f		 pop	 edi
  0004f	c7 40 0c 01 00
	00 00		 mov	 DWORD PTR [eax+12], 1
  00056	89 48 08	 mov	 DWORD PTR [eax+8], ecx

; 100  : 		pData->nDataLength = 0;

  00059	c7 40 04 00 00
	00 00		 mov	 DWORD PTR [eax+4], 0

; 101  : 
; 102  : 		return( pData );
; 103  : 	}

  00060	5e		 pop	 esi
  00061	5d		 pop	 ebp
  00062	c2 08 00	 ret	 8
$LN12@Allocate:
  00065	5f		 pop	 edi

; 86   : 
; 87   : 		if(	FAILED(::ATL::AtlMultiply(&nDataBytes, static_cast<size_t>(nAlignedChars), static_cast<size_t>(nCharSize))) ||
; 88   : 			FAILED(::ATL::AtlAdd(&nTotalSize, static_cast<size_t>(sizeof( CStringData )), nDataBytes)))
; 89   : 		{
; 90   : 			return NULL;

  00066	33 c0		 xor	 eax, eax

; 101  : 
; 102  : 		return( pData );
; 103  : 	}

  00068	5e		 pop	 esi
  00069	5d		 pop	 ebp
  0006a	c2 08 00	 ret	 8
?Allocate@CAtlStringMgr@ATL@@UAEPAUCStringData@2@HH@Z ENDP ; ATL::CAtlStringMgr::Allocate
_TEXT	ENDS
; Function compile flags: /Ogtp
; File C:\Program Files\Microsoft Visual Studio\2022\Professional\VC\Tools\MSVC\14.44.35207\atlmfc\include\atlstr.h
;	COMDAT ??1CAtlStringMgr@ATL@@UAE@XZ
_TEXT	SEGMENT
??1CAtlStringMgr@ATL@@UAE@XZ PROC			; ATL::CAtlStringMgr::~CAtlStringMgr, COMDAT
; _this$ = ecx

; 48   : 	{

  00000	c7 01 00 00 00
	00		 mov	 DWORD PTR [ecx], OFFSET ??_7CAtlStringMgr@ATL@@6B@

; 49   : 		isInitialized = false;

  00006	c6 05 00 00 00
	00 00		 mov	 BYTE PTR ?isInitialized@CAtlStringMgr@ATL@@0_NA, 0 ; ATL::CAtlStringMgr::isInitialized

; 50   : 	}

  0000d	c3		 ret	 0
??1CAtlStringMgr@ATL@@UAE@XZ ENDP			; ATL::CAtlStringMgr::~CAtlStringMgr
_TEXT	ENDS
; Function compile flags: /Ogtp
; File C:\Program Files\Microsoft Visual Studio\2022\Professional\VC\Tools\MSVC\14.44.35207\atlmfc\include\atlbase.h
; File C:\Program Files\Microsoft Visual Studio\2022\Professional\VC\Tools\MSVC\14.44.35207\atlmfc\include\atlsimpcoll.h
; File C:\Program Files\Microsoft Visual Studio\2022\Professional\VC\Tools\MSVC\14.44.35207\atlmfc\include\atlbase.h
; File C:\Program Files\Microsoft Visual Studio\2022\Professional\VC\Tools\MSVC\14.44.35207\atlmfc\include\atlsimpcoll.h
; File C:\Program Files\Microsoft Visual Studio\2022\Professional\VC\Tools\MSVC\14.44.35207\atlmfc\include\atlcore.h
; File C:\Program Files\Microsoft Visual Studio\2022\Professional\VC\Tools\MSVC\14.44.35207\atlmfc\include\atlsimpcoll.h
; File C:\Program Files\Microsoft Visual Studio\2022\Professional\VC\Tools\MSVC\14.44.35207\atlmfc\include\atlcore.h
; File C:\Program Files\Microsoft Visual Studio\2022\Professional\VC\Tools\MSVC\14.44.35207\atlmfc\include\atlbase.h
; File C:\Program Files\Microsoft Visual Studio\2022\Professional\VC\Tools\MSVC\14.44.35207\atlmfc\include\atlsimpcoll.h
;	COMDAT ??__F_AtlWinModule@ATL@@YAXXZ
text$yd	SEGMENT
??__F_AtlWinModule@ATL@@YAXXZ PROC			; ATL::`dynamic atexit destructor for '_AtlWinModule'', COMDAT
; File C:\Program Files\Microsoft Visual Studio\2022\Professional\VC\Tools\MSVC\14.44.35207\atlmfc\include\atlbase.h

; 7655 : 	if (pWinModule->cbSize == 0)

  00000	a1 00 00 00 00	 mov	 eax, DWORD PTR ?_AtlWinModule@ATL@@3VCAtlWinModule@1@A

; 2952 : 		AtlWinModuleTerm(this, _AtlBaseModule.GetModuleInstance());

  00005	57		 push	 edi
  00006	8b 3d 04 00 00
	00		 mov	 edi, DWORD PTR ?_AtlBaseModule@ATL@@3VCAtlBaseModule@1@A+4

; 7655 : 	if (pWinModule->cbSize == 0)

  0000c	85 c0		 test	 eax, eax
  0000e	0f 84 8a 00 00
	00		 je	 $LN10@dynamic

; 7656 : 		return S_OK;
; 7657 : 	if (pWinModule->cbSize != sizeof(_ATL_WIN_MODULE))

  00014	83 f8 2c	 cmp	 eax, 44			; 0000002cH
  00017	0f 85 81 00 00
	00		 jne	 $LN10@dynamic

; 7658 : 		return E_INVALIDARG;
; 7659 : 
; 7660 : 	for (int i = 0; i < pWinModule->m_rgWindowClassAtoms.GetSize(); i++)

  0001d	a1 24 00 00 00	 mov	 eax, DWORD PTR ?_AtlWinModule@ATL@@3VCAtlWinModule@1@A+36
  00022	56		 push	 esi
  00023	33 f6		 xor	 esi, esi
  00025	85 c0		 test	 eax, eax
  00027	7e 2f		 jle	 SHORT $LN12@dynamic
  00029	53		 push	 ebx
  0002a	8b 1d 00 00 00
	00		 mov	 ebx, DWORD PTR __imp__UnregisterClassA@8
$LL13@dynamic:
; File C:\Program Files\Microsoft Visual Studio\2022\Professional\VC\Tools\MSVC\14.44.35207\atlmfc\include\atlsimpcoll.h

; 240  : 		if(nIndex < 0 || nIndex >= m_nSize)

  00030	85 f6		 test	 esi, esi
  00032	0f 88 98 00 00
	00		 js	 $LN51@dynamic
  00038	3b f0		 cmp	 esi, eax
  0003a	0f 8d 90 00 00
	00		 jge	 $LN51@dynamic
; File C:\Program Files\Microsoft Visual Studio\2022\Professional\VC\Tools\MSVC\14.44.35207\atlmfc\include\atlbase.h

; 7661 : 		UnregisterClass((LPCTSTR)pWinModule->m_rgWindowClassAtoms[i], hInst);

  00040	a1 20 00 00 00	 mov	 eax, DWORD PTR ?_AtlWinModule@ATL@@3VCAtlWinModule@1@A+32
  00045	57		 push	 edi
  00046	0f b7 04 70	 movzx	 eax, WORD PTR [eax+esi*2]
  0004a	50		 push	 eax
  0004b	ff d3		 call	 ebx
  0004d	a1 24 00 00 00	 mov	 eax, DWORD PTR ?_AtlWinModule@ATL@@3VCAtlWinModule@1@A+36
  00052	46		 inc	 esi
  00053	3b f0		 cmp	 esi, eax
  00055	7c d9		 jl	 SHORT $LL13@dynamic
; File C:\Program Files\Microsoft Visual Studio\2022\Professional\VC\Tools\MSVC\14.44.35207\atlmfc\include\atlsimpcoll.h

; 240  : 		if(nIndex < 0 || nIndex >= m_nSize)

  00057	5b		 pop	 ebx
$LN12@dynamic:

; 218  : 		if(m_aT != NULL)

  00058	a1 20 00 00 00	 mov	 eax, DWORD PTR ?_AtlWinModule@ATL@@3VCAtlWinModule@1@A+32
  0005d	5e		 pop	 esi
  0005e	85 c0		 test	 eax, eax
  00060	74 13		 je	 SHORT $LN27@dynamic

; 219  : 		{
; 220  : 			for(int i = 0; i < m_nSize; i++)
; 221  : 				m_aT[i].~T();
; 222  : 			free(m_aT);

  00062	50		 push	 eax
  00063	e8 00 00 00 00	 call	 _free
  00068	83 c4 04	 add	 esp, 4

; 223  : 			m_aT = NULL;

  0006b	c7 05 20 00 00
	00 00 00 00 00	 mov	 DWORD PTR ?_AtlWinModule@ATL@@3VCAtlWinModule@1@A+32, 0
$LN27@dynamic:
; File C:\Program Files\Microsoft Visual Studio\2022\Professional\VC\Tools\MSVC\14.44.35207\atlmfc\include\atlcore.h

; 159  : 		DeleteCriticalSection(&m_sec);

  00075	68 04 00 00 00	 push	 OFFSET ?_AtlWinModule@ATL@@3VCAtlWinModule@1@A+4
; File C:\Program Files\Microsoft Visual Studio\2022\Professional\VC\Tools\MSVC\14.44.35207\atlmfc\include\atlsimpcoll.h

; 225  : 		m_nSize = 0;

  0007a	c7 05 24 00 00
	00 00 00 00 00	 mov	 DWORD PTR ?_AtlWinModule@ATL@@3VCAtlWinModule@1@A+36, 0

; 226  : 		m_nAllocSize = 0;

  00084	c7 05 28 00 00
	00 00 00 00 00	 mov	 DWORD PTR ?_AtlWinModule@ATL@@3VCAtlWinModule@1@A+40, 0
; File C:\Program Files\Microsoft Visual Studio\2022\Professional\VC\Tools\MSVC\14.44.35207\atlmfc\include\atlcore.h

; 159  : 		DeleteCriticalSection(&m_sec);

  0008e	ff 15 00 00 00
	00		 call	 DWORD PTR __imp__DeleteCriticalSection@4
; File C:\Program Files\Microsoft Visual Studio\2022\Professional\VC\Tools\MSVC\14.44.35207\atlmfc\include\atlbase.h

; 7664 : 	pWinModule->cbSize = 0;

  00094	c7 05 00 00 00
	00 00 00 00 00	 mov	 DWORD PTR ?_AtlWinModule@ATL@@3VCAtlWinModule@1@A, 0
$LN10@dynamic:
; File C:\Program Files\Microsoft Visual Studio\2022\Professional\VC\Tools\MSVC\14.44.35207\atlmfc\include\atlsimpcoll.h

; 218  : 		if(m_aT != NULL)

  0009e	a1 20 00 00 00	 mov	 eax, DWORD PTR ?_AtlWinModule@ATL@@3VCAtlWinModule@1@A+32
  000a3	5f		 pop	 edi
  000a4	85 c0		 test	 eax, eax
  000a6	74 13		 je	 SHORT $LN45@dynamic

; 219  : 		{
; 220  : 			for(int i = 0; i < m_nSize; i++)
; 221  : 				m_aT[i].~T();
; 222  : 			free(m_aT);

  000a8	50		 push	 eax
  000a9	e8 00 00 00 00	 call	 _free
  000ae	83 c4 04	 add	 esp, 4

; 223  : 			m_aT = NULL;

  000b1	c7 05 20 00 00
	00 00 00 00 00	 mov	 DWORD PTR ?_AtlWinModule@ATL@@3VCAtlWinModule@1@A+32, 0
$LN45@dynamic:

; 225  : 		m_nSize = 0;

  000bb	c7 05 24 00 00
	00 00 00 00 00	 mov	 DWORD PTR ?_AtlWinModule@ATL@@3VCAtlWinModule@1@A+36, 0

; 226  : 		m_nAllocSize = 0;

  000c5	c7 05 28 00 00
	00 00 00 00 00	 mov	 DWORD PTR ?_AtlWinModule@ATL@@3VCAtlWinModule@1@A+40, 0
  000cf	c3		 ret	 0
$LN51@dynamic:

; 242  : 			AtlThrow(E_BOUNDS);

  000d0	68 0b 00 00 80	 push	 -2147483637		; 8000000bH
  000d5	e8 00 00 00 00	 call	 ?AtlThrowImpl@ATL@@YGXJ@Z ; ATL::AtlThrowImpl
$LN68@dynamic:
  000da	cc		 int	 3
??__F_AtlWinModule@ATL@@YAXXZ ENDP			; ATL::`dynamic atexit destructor for '_AtlWinModule''
text$yd	ENDS
; Function compile flags: /Ogtp
; File C:\Program Files\Microsoft Visual Studio\2022\Professional\VC\Tools\MSVC\14.44.35207\atlmfc\include\atlbase.h
; File C:\Program Files\Microsoft Visual Studio\2022\Professional\VC\Tools\MSVC\14.44.35207\atlmfc\include\atlwinverapi.h
; File C:\Program Files\Microsoft Visual Studio\2022\Professional\VC\Tools\MSVC\14.44.35207\atlmfc\include\atlcore.h
; File C:\Program Files (x86)\Windows Kits\10\Include\10.0.26100.0\shared\winerror.h
; File C:\Program Files\Microsoft Visual Studio\2022\Professional\VC\Tools\MSVC\14.44.35207\atlmfc\include\atlbase.h
;	COMDAT ??__E_AtlWinModule@ATL@@YAXXZ
text$di	SEGMENT
??__E_AtlWinModule@ATL@@YAXXZ PROC			; ATL::`dynamic initializer for '_AtlWinModule'', COMDAT
; File C:\Program Files\Microsoft Visual Studio\2022\Professional\VC\Tools\MSVC\14.44.35207\atlmfc\include\atlwinverapi.h

; 739  : 	return ::InitializeCriticalSectionAndSpinCount(lpCriticalSection, dwSpinCount);

  00000	6a 00		 push	 0
  00002	68 04 00 00 00	 push	 OFFSET ?_AtlWinModule@ATL@@3VCAtlWinModule@1@A+4
  00007	ff 15 00 00 00
	00		 call	 DWORD PTR __imp__InitializeCriticalSectionAndSpinCount@8
; File C:\Program Files\Microsoft Visual Studio\2022\Professional\VC\Tools\MSVC\14.44.35207\atlmfc\include\atlcore.h

; 149  : 		if (!_AtlInitializeCriticalSectionEx(&m_sec, 0, 0))

  0000d	85 c0		 test	 eax, eax
  0000f	75 27		 jne	 SHORT $LN4@dynamic

; 150  : 		{
; 151  : 			hRes = HRESULT_FROM_WIN32(GetLastError());

  00011	ff 15 00 00 00
	00		 call	 DWORD PTR __imp__GetLastError@0
; File C:\Program Files (x86)\Windows Kits\10\Include\10.0.26100.0\shared\winerror.h

; 30347: FORCEINLINE _Translates_Win32_to_HRESULT_(x) HRESULT HRESULT_FROM_WIN32(unsigned long x) { return (HRESULT)(x) <= 0 ? (HRESULT)(x) : (HRESULT) (((x) & 0x0000FFFF) | (FACILITY_WIN32 << 16) | 0x80000000);}

  00017	85 c0		 test	 eax, eax
  00019	7e 0a		 jle	 SHORT $LN26@dynamic
  0001b	0f b7 c0	 movzx	 eax, ax
  0001e	0d 00 00 07 80	 or	 eax, -2147024896	; 80070000H
; File C:\Program Files\Microsoft Visual Studio\2022\Professional\VC\Tools\MSVC\14.44.35207\atlmfc\include\atlbase.h

; 2936 : 		if (FAILED(hr))

  00023	85 c0		 test	 eax, eax
$LN26@dynamic:
  00025	79 11		 jns	 SHORT $LN4@dynamic

; 2937 : 		{
; 2938 : 			ATLASSERT(0);
; 2939 : 			CAtlBaseModule::m_bInitFailed = true;

  00027	c6 05 00 00 00
	00 01		 mov	 BYTE PTR ?m_bInitFailed@CAtlBaseModule@ATL@@2_NA, 1 ; ATL::CAtlBaseModule::m_bInitFailed

; 2940 : 			cbSize = 0;

  0002e	c7 05 00 00 00
	00 00 00 00 00	 mov	 DWORD PTR ?_AtlWinModule@ATL@@3VCAtlWinModule@1@A, 0
$LN4@dynamic:

; 2967 : __declspec(selectany) CAtlWinModule _AtlWinModule;

  00038	68 00 00 00 00	 push	 OFFSET ??__F_AtlWinModule@ATL@@YAXXZ ; ATL::`dynamic atexit destructor for '_AtlWinModule''
  0003d	e8 00 00 00 00	 call	 _atexit
  00042	59		 pop	 ecx
  00043	c3		 ret	 0
??__E_AtlWinModule@ATL@@YAXXZ ENDP			; ATL::`dynamic initializer for '_AtlWinModule''
text$di	ENDS
; Function compile flags: /Ogtp
; File C:\Program Files\Microsoft Visual Studio\2022\Professional\VC\Tools\MSVC\14.44.35207\atlmfc\include\atlbase.h
; File C:\Program Files\Microsoft Visual Studio\2022\Professional\VC\Tools\MSVC\14.44.35207\atlmfc\include\atlcore.h
; File C:\Program Files\Microsoft Visual Studio\2022\Professional\VC\Tools\MSVC\14.44.35207\atlmfc\include\atlbase.h
;	COMDAT ??__F_AtlComModule@ATL@@YAXXZ
text$yd	SEGMENT
__$EHRec$ = -12						; size = 12
??__F_AtlComModule@ATL@@YAXXZ PROC			; ATL::`dynamic atexit destructor for '_AtlComModule'', COMDAT
  00000	55		 push	 ebp
  00001	8b ec		 mov	 ebp, esp
  00003	6a ff		 push	 -1
  00005	68 00 00 00 00	 push	 __ehhandler$??__F_AtlComModule@ATL@@YAXXZ
  0000a	64 a1 00 00 00
	00		 mov	 eax, DWORD PTR fs:0
  00010	50		 push	 eax
  00011	53		 push	 ebx
  00012	56		 push	 esi
  00013	57		 push	 edi
  00014	a1 00 00 00 00	 mov	 eax, DWORD PTR ___security_cookie
  00019	33 c5		 xor	 eax, ebp
  0001b	50		 push	 eax
  0001c	8d 45 f4	 lea	 eax, DWORD PTR __$EHRec$[ebp]
  0001f	64 a3 00 00 00
	00		 mov	 DWORD PTR fs:0, eax

; 2609 : 		if (cbSize == 0)

  00025	83 3d 00 00 00
	00 00		 cmp	 DWORD PTR ?_AtlComModule@ATL@@3VCAtlComModule@1@A, 0

; 2602 : 	{

  0002c	c7 45 fc 00 00
	00 00		 mov	 DWORD PTR __$EHRec$[ebp+8], 0

; 2609 : 		if (cbSize == 0)

  00033	74 5b		 je	 SHORT $LN8@dynamic

; 2610 : 			return;
; 2611 : 
; 2612 : 		for (_ATL_OBJMAP_ENTRY_EX** ppEntry = m_ppAutoObjMapFirst; ppEntry < m_ppAutoObjMapLast; ppEntry++)

  00035	8b 35 08 00 00
	00		 mov	 esi, DWORD PTR ?_AtlComModule@ATL@@3VCAtlComModule@1@A+8
  0003b	8b 0d 0c 00 00
	00		 mov	 ecx, DWORD PTR ?_AtlComModule@ATL@@3VCAtlComModule@1@A+12
  00041	3b f1		 cmp	 esi, ecx
  00043	73 36		 jae	 SHORT $LN10@dynamic
  00045	8b 1d 00 00 00
	00		 mov	 ebx, DWORD PTR __imp__DecodePointer@4
  0004b	0f 1f 44 00 00	 npad	 5
$LL11@dynamic:

; 2613 : 		{
; 2614 : 			if (*ppEntry != NULL)

  00050	8b 06		 mov	 eax, DWORD PTR [esi]
  00052	85 c0		 test	 eax, eax
  00054	74 1e		 je	 SHORT $LN9@dynamic

; 2615 : 			{
; 2616 : 				_ATL_OBJMAP_CACHE* pCache = (**ppEntry).pCache;

  00056	8b 78 10	 mov	 edi, DWORD PTR [eax+16]

; 2617 : 
; 2618 : 				if (pCache->pCF != NULL)

  00059	8b 07		 mov	 eax, DWORD PTR [edi]
  0005b	85 c0		 test	 eax, eax
  0005d	74 15		 je	 SHORT $LN9@dynamic

; 2619 : 				{
; 2620 : 					// Decode factory pointer if it's not null
; 2621 : 					IUnknown *factory = reinterpret_cast<IUnknown*>(::DecodePointer(pCache->pCF));

  0005f	50		 push	 eax
  00060	ff d3		 call	 ebx

; 2622 : 					_Analysis_assume_(factory != nullptr);
; 2623 : 					factory->Release();

  00062	50		 push	 eax
  00063	8b 08		 mov	 ecx, DWORD PTR [eax]
  00065	ff 51 08	 call	 DWORD PTR [ecx+8]

; 2624 : 					pCache->pCF = NULL;

  00068	c7 07 00 00 00
	00		 mov	 DWORD PTR [edi], 0
  0006e	8b 0d 0c 00 00
	00		 mov	 ecx, DWORD PTR ?_AtlComModule@ATL@@3VCAtlComModule@1@A+12
$LN9@dynamic:

; 2610 : 			return;
; 2611 : 
; 2612 : 		for (_ATL_OBJMAP_ENTRY_EX** ppEntry = m_ppAutoObjMapFirst; ppEntry < m_ppAutoObjMapLast; ppEntry++)

  00074	83 c6 04	 add	 esi, 4
  00077	3b f1		 cmp	 esi, ecx
  00079	72 d5		 jb	 SHORT $LL11@dynamic
$LN10@dynamic:
; File C:\Program Files\Microsoft Visual Studio\2022\Professional\VC\Tools\MSVC\14.44.35207\atlmfc\include\atlcore.h

; 159  : 		DeleteCriticalSection(&m_sec);

  0007b	68 10 00 00 00	 push	 OFFSET ?_AtlComModule@ATL@@3VCAtlComModule@1@A+16
  00080	ff 15 00 00 00
	00		 call	 DWORD PTR __imp__DeleteCriticalSection@4
; File C:\Program Files\Microsoft Visual Studio\2022\Professional\VC\Tools\MSVC\14.44.35207\atlmfc\include\atlbase.h

; 2632 : 		cbSize = 0;

  00086	c7 05 00 00 00
	00 00 00 00 00	 mov	 DWORD PTR ?_AtlComModule@ATL@@3VCAtlComModule@1@A, 0
$LN8@dynamic:
  00090	8b 4d f4	 mov	 ecx, DWORD PTR __$EHRec$[ebp]
  00093	64 89 0d 00 00
	00 00		 mov	 DWORD PTR fs:0, ecx
  0009a	59		 pop	 ecx
  0009b	5f		 pop	 edi
  0009c	5e		 pop	 esi
  0009d	5b		 pop	 ebx
  0009e	8b e5		 mov	 esp, ebp
  000a0	5d		 pop	 ebp
  000a1	c3		 ret	 0
  000a2	cc		 int	 3
  000a3	cc		 int	 3
  000a4	cc		 int	 3
  000a5	cc		 int	 3
  000a6	cc		 int	 3
text$yd	ENDS
;	COMDAT text$x
text$x	SEGMENT
__ehhandler$??__F_AtlComModule@ATL@@YAXXZ:
  00000	90		 npad	 1
  00001	90		 npad	 1
  00002	8b 54 24 08	 mov	 edx, DWORD PTR [esp+8]
  00006	8d 42 0c	 lea	 eax, DWORD PTR [edx+12]
  00009	8b 4a f0	 mov	 ecx, DWORD PTR [edx-16]
  0000c	33 c8		 xor	 ecx, eax
  0000e	e8 00 00 00 00	 call	 @__security_check_cookie@4
  00013	b8 00 00 00 00	 mov	 eax, OFFSET __ehfuncinfo$??__F_AtlComModule@ATL@@YAXXZ
  00018	e9 00 00 00 00	 jmp	 ___CxxFrameHandler3
text$x	ENDS
??__F_AtlComModule@ATL@@YAXXZ ENDP			; ATL::`dynamic atexit destructor for '_AtlComModule''
; Function compile flags: /Ogtp
; File C:\Program Files\Microsoft Visual Studio\2022\Professional\VC\Tools\MSVC\14.44.35207\atlmfc\include\atlbase.h
; File C:\Program Files\Microsoft Visual Studio\2022\Professional\VC\Tools\MSVC\14.44.35207\atlmfc\include\atlwinverapi.h
; File C:\Program Files\Microsoft Visual Studio\2022\Professional\VC\Tools\MSVC\14.44.35207\atlmfc\include\atlcore.h
; File C:\Program Files (x86)\Windows Kits\10\Include\10.0.26100.0\shared\winerror.h
; File C:\Program Files\Microsoft Visual Studio\2022\Professional\VC\Tools\MSVC\14.44.35207\atlmfc\include\atlbase.h
;	COMDAT ??__E_AtlComModule@ATL@@YAXXZ
text$di	SEGMENT
??__E_AtlComModule@ATL@@YAXXZ PROC			; ATL::`dynamic initializer for '_AtlComModule'', COMDAT
; File C:\Program Files\Microsoft Visual Studio\2022\Professional\VC\Tools\MSVC\14.44.35207\atlmfc\include\atlwinverapi.h

; 739  : 	return ::InitializeCriticalSectionAndSpinCount(lpCriticalSection, dwSpinCount);

  00000	6a 00		 push	 0
  00002	68 10 00 00 00	 push	 OFFSET ?_AtlComModule@ATL@@3VCAtlComModule@1@A+16
  00007	ff 15 00 00 00
	00		 call	 DWORD PTR __imp__InitializeCriticalSectionAndSpinCount@8
; File C:\Program Files\Microsoft Visual Studio\2022\Professional\VC\Tools\MSVC\14.44.35207\atlmfc\include\atlcore.h

; 149  : 		if (!_AtlInitializeCriticalSectionEx(&m_sec, 0, 0))

  0000d	85 c0		 test	 eax, eax
  0000f	75 29		 jne	 SHORT $LN4@dynamic

; 150  : 		{
; 151  : 			hRes = HRESULT_FROM_WIN32(GetLastError());

  00011	ff 15 00 00 00
	00		 call	 DWORD PTR __imp__GetLastError@0
; File C:\Program Files (x86)\Windows Kits\10\Include\10.0.26100.0\shared\winerror.h

; 30347: FORCEINLINE _Translates_Win32_to_HRESULT_(x) HRESULT HRESULT_FROM_WIN32(unsigned long x) { return (HRESULT)(x) <= 0 ? (HRESULT)(x) : (HRESULT) (((x) & 0x0000FFFF) | (FACILITY_WIN32 << 16) | 0x80000000);}

  00017	85 c0		 test	 eax, eax
  00019	7e 0a		 jle	 SHORT $LN22@dynamic
  0001b	0f b7 c0	 movzx	 eax, ax
  0001e	0d 00 00 07 80	 or	 eax, -2147024896	; 80070000H
; File C:\Program Files\Microsoft Visual Studio\2022\Professional\VC\Tools\MSVC\14.44.35207\atlmfc\include\atlbase.h

; 2590 : 		if (FAILED(m_csObjMap.Init()))

  00023	85 c0		 test	 eax, eax
$LN22@dynamic:
  00025	79 13		 jns	 SHORT $LN4@dynamic

; 2711 : __declspec(selectany) CAtlComModule _AtlComModule;

  00027	68 00 00 00 00	 push	 OFFSET ??__F_AtlComModule@ATL@@YAXXZ ; ATL::`dynamic atexit destructor for '_AtlComModule''

; 2594 : 			CAtlBaseModule::m_bInitFailed = true;

  0002c	c6 05 00 00 00
	00 01		 mov	 BYTE PTR ?m_bInitFailed@CAtlBaseModule@ATL@@2_NA, 1 ; ATL::CAtlBaseModule::m_bInitFailed

; 2711 : __declspec(selectany) CAtlComModule _AtlComModule;

  00033	e8 00 00 00 00	 call	 _atexit
  00038	59		 pop	 ecx
  00039	c3		 ret	 0
$LN4@dynamic:
  0003a	68 00 00 00 00	 push	 OFFSET ??__F_AtlComModule@ATL@@YAXXZ ; ATL::`dynamic atexit destructor for '_AtlComModule''

; 2598 : 		cbSize = sizeof(_ATL_COM_MODULE);

  0003f	c7 05 00 00 00
	00 28 00 00 00	 mov	 DWORD PTR ?_AtlComModule@ATL@@3VCAtlComModule@1@A, 40 ; 00000028H

; 2711 : __declspec(selectany) CAtlComModule _AtlComModule;

  00049	e8 00 00 00 00	 call	 _atexit
  0004e	59		 pop	 ecx
  0004f	c3		 ret	 0
??__E_AtlComModule@ATL@@YAXXZ ENDP			; ATL::`dynamic initializer for '_AtlComModule''
text$di	ENDS
; Function compile flags: /Ogtp
; File C:\Program Files\Microsoft Visual Studio\2022\Professional\VC\Tools\MSVC\14.44.35207\atlmfc\include\afx.inl
;	COMDAT ?_AfxInitManaged@@YAHXZ
_TEXT	SEGMENT
?_AfxInitManaged@@YAHXZ PROC				; _AfxInitManaged, COMDAT

; 87   : 	return 0;

  00000	33 c0		 xor	 eax, eax

; 88   : }

  00002	c3		 ret	 0
?_AfxInitManaged@@YAHXZ ENDP				; _AfxInitManaged
_TEXT	ENDS
; Function compile flags: /Ogtp
; File C:\Program Files\Microsoft Visual Studio\2022\Professional\VC\Tools\MSVC\14.44.35207\atlmfc\include\cstringt.h
; File C:\Program Files\Microsoft Visual Studio\2022\Professional\VC\Tools\MSVC\14.44.35207\atlmfc\include\atlsimpstr.h
; File C:\Program Files\Microsoft Visual Studio\2022\Professional\VC\Tools\MSVC\14.44.35207\atlmfc\include\cstringt.h
; File C:\Program Files\Microsoft Visual Studio\2022\Professional\VC\Tools\MSVC\14.44.35207\atlmfc\include\atlsimpstr.h
; File C:\Program Files\Microsoft Visual Studio\2022\Professional\VC\Tools\MSVC\14.44.35207\atlmfc\include\cstringt.h
; File C:\Program Files\Microsoft Visual Studio\2022\Professional\VC\Tools\MSVC\14.44.35207\atlmfc\include\atlchecked.h
; File C:\Program Files\Microsoft Visual Studio\2022\Professional\VC\Tools\MSVC\14.44.35207\atlmfc\include\atlsimpstr.h
; File C:\Program Files\Microsoft Visual Studio\2022\Professional\VC\Tools\MSVC\14.44.35207\atlmfc\include\atlchecked.h
; File C:\Program Files\Microsoft Visual Studio\2022\Professional\VC\Tools\MSVC\14.44.35207\atlmfc\include\atlsimpstr.h
; File C:\Program Files\Microsoft Visual Studio\2022\Professional\VC\Tools\MSVC\14.44.35207\atlmfc\include\cstringt.h
; File C:\Program Files\Microsoft Visual Studio\2022\Professional\VC\Tools\MSVC\14.44.35207\atlmfc\include\atlsimpstr.h
; File C:\Program Files\Microsoft Visual Studio\2022\Professional\VC\Tools\MSVC\14.44.35207\atlmfc\include\cstringt.h
;	COMDAT ?MakeUpper@?$CStringT@DV?$StrTraitMFC@DV?$ChTraitsCRT@D@ATL@@@@@ATL@@QAEAAV12@XZ
_TEXT	SEGMENT
?MakeUpper@?$CStringT@DV?$StrTraitMFC@DV?$ChTraitsCRT@D@ATL@@@@@ATL@@QAEAAV12@XZ PROC ; ATL::CStringT<char,StrTraitMFC<char,ATL::ChTraitsCRT<char> > >::MakeUpper, COMDAT
; _this$ = ecx

; 1829 : 	{

  00000	56		 push	 esi
  00001	57		 push	 edi
  00002	8b f9		 mov	 edi, ecx
; File C:\Program Files\Microsoft Visual Studio\2022\Professional\VC\Tools\MSVC\14.44.35207\atlmfc\include\atlsimpstr.h

; 523  : 		return( GetData()->nDataLength );

  00004	8b 07		 mov	 eax, DWORD PTR [edi]
; File C:\Program Files\Microsoft Visual Studio\2022\Professional\VC\Tools\MSVC\14.44.35207\atlmfc\include\cstringt.h

; 1830 : 		int nLength = this->GetLength();

  00006	8b 70 f4	 mov	 esi, DWORD PTR [eax-12]
; File C:\Program Files\Microsoft Visual Studio\2022\Professional\VC\Tools\MSVC\14.44.35207\atlmfc\include\atlsimpstr.h

; 808  : 		if (nLength < 0)

  00009	85 f6		 test	 esi, esi
  0000b	78 40		 js	 SHORT $LN25@MakeUpper

; 809  : 			AtlThrow(E_INVALIDARG);
; 810  : 
; 811  : 		CStringData* pOldData = GetData();
; 812  : 		int nShared = 1-pOldData->nRefs;  // nShared < 0 means true, >= 0 means false

  0000d	ba 01 00 00 00	 mov	 edx, 1
  00012	2b 50 fc	 sub	 edx, DWORD PTR [eax-4]

; 813  : 		int nTooShort = pOldData->nAllocLength-nLength;  // nTooShort < 0 means true, >= 0 means false

  00015	8b 40 f8	 mov	 eax, DWORD PTR [eax-8]
  00018	2b c6		 sub	 eax, esi

; 814  : 		if( (nShared|nTooShort) < 0 )  // If either sign bit is set (i.e. either is less than zero), we need to copy data

  0001a	0b d0		 or	 edx, eax
  0001c	7d 06		 jge	 SHORT $LN11@MakeUpper

; 815  : 		{
; 816  : 			PrepareWrite2( nLength );

  0001e	56		 push	 esi
  0001f	e8 00 00 00 00	 call	 ?PrepareWrite2@?$CSimpleStringT@D$0A@@ATL@@AAEXH@Z ; ATL::CSimpleStringT<char,0>::PrepareWrite2
$LN11@MakeUpper:
; File C:\Program Files\Microsoft Visual Studio\2022\Professional\VC\Tools\MSVC\14.44.35207\atlmfc\include\cstringt.h

; 1832 : 		StringTraits::StringUppercase( pszBuffer, nLength+1 );

  00024	8d 46 01	 lea	 eax, DWORD PTR [esi+1]
; File C:\Program Files\Microsoft Visual Studio\2022\Professional\VC\Tools\MSVC\14.44.35207\atlmfc\include\atlchecked.h

; 218  : 	ATLMFC_CRT_ERRORCHECK(::_mbsupr_s(_Str, _SizeInChars));

  00027	50		 push	 eax
  00028	ff 37		 push	 DWORD PTR [edi]
  0002a	e8 00 00 00 00	 call	 __mbsupr_s
  0002f	50		 push	 eax
  00030	e8 00 00 00 00	 call	 ?AfxCrtErrorCheck@@YAHH@Z ; AfxCrtErrorCheck
; File C:\Program Files\Microsoft Visual Studio\2022\Professional\VC\Tools\MSVC\14.44.35207\atlmfc\include\atlsimpstr.h

; 875  : 		if( nLength < 0 || nLength > GetData()->nAllocLength)

  00035	8b 07		 mov	 eax, DWORD PTR [edi]
; File C:\Program Files\Microsoft Visual Studio\2022\Professional\VC\Tools\MSVC\14.44.35207\atlmfc\include\atlchecked.h

; 218  : 	ATLMFC_CRT_ERRORCHECK(::_mbsupr_s(_Str, _SizeInChars));

  00037	83 c4 0c	 add	 esp, 12			; 0000000cH
; File C:\Program Files\Microsoft Visual Studio\2022\Professional\VC\Tools\MSVC\14.44.35207\atlmfc\include\atlsimpstr.h

; 875  : 		if( nLength < 0 || nLength > GetData()->nAllocLength)

  0003a	3b 70 f8	 cmp	 esi, DWORD PTR [eax-8]
  0003d	7f 0e		 jg	 SHORT $LN25@MakeUpper

; 877  : 
; 878  : 		GetData()->nDataLength = nLength;

  0003f	89 70 f4	 mov	 DWORD PTR [eax-12], esi

; 879  : 		m_pszData[nLength] = 0;

  00042	8b 07		 mov	 eax, DWORD PTR [edi]
  00044	c6 04 06 00	 mov	 BYTE PTR [esi+eax], 0
; File C:\Program Files\Microsoft Visual Studio\2022\Professional\VC\Tools\MSVC\14.44.35207\atlmfc\include\cstringt.h

; 1835 : 		return( *this );

  00048	8b c7		 mov	 eax, edi
  0004a	5f		 pop	 edi
  0004b	5e		 pop	 esi

; 1836 : 	}

  0004c	c3		 ret	 0
$LN25@MakeUpper:
; File C:\Program Files\Microsoft Visual Studio\2022\Professional\VC\Tools\MSVC\14.44.35207\atlmfc\include\atlsimpstr.h

; 876  : 			AtlThrow(E_INVALIDARG);

  0004d	68 57 00 07 80	 push	 -2147024809		; 80070057H
  00052	e8 00 00 00 00	 call	 ?AtlThrowImpl@ATL@@YGXJ@Z ; ATL::AtlThrowImpl
$LN36@MakeUpper:
  00057	cc		 int	 3
?MakeUpper@?$CStringT@DV?$StrTraitMFC@DV?$ChTraitsCRT@D@ATL@@@@@ATL@@QAEAAV12@XZ ENDP ; ATL::CStringT<char,StrTraitMFC<char,ATL::ChTraitsCRT<char> > >::MakeUpper
_TEXT	ENDS
; Function compile flags: /Ogtp
; File C:\Program Files\Microsoft Visual Studio\2022\Professional\VC\Tools\MSVC\14.44.35207\atlmfc\include\cstringt.h
; File C:\Program Files\Microsoft Visual Studio\2022\Professional\VC\Tools\MSVC\14.44.35207\atlmfc\include\atlsimpstr.h
; File C:\Program Files\Microsoft Visual Studio\2022\Professional\VC\Tools\MSVC\14.44.35207\atlmfc\include\cstringt.h
;	COMDAT ??1?$CStringT@DV?$StrTraitMFC@DV?$ChTraitsCRT@D@ATL@@@@@ATL@@QAE@XZ
_TEXT	SEGMENT
??1?$CStringT@DV?$StrTraitMFC@DV?$ChTraitsCRT@D@ATL@@@@@ATL@@QAE@XZ PROC ; ATL::CStringT<char,StrTraitMFC<char,ATL::ChTraitsCRT<char> > >::~CStringT<char,StrTraitMFC<char,ATL::ChTraitsCRT<char> > >, COMDAT
; _this$ = ecx
; File C:\Program Files\Microsoft Visual Studio\2022\Professional\VC\Tools\MSVC\14.44.35207\atlmfc\include\atlsimpstr.h

; 804  : 		return( reinterpret_cast< CStringData* >( m_pszData )-1 );

  00000	8b 11		 mov	 edx, DWORD PTR [ecx]

; 92   : 		if( _InterlockedDecrement( &nRefs ) <= 0 )

  00002	83 c8 ff	 or	 eax, -1

; 804  : 		return( reinterpret_cast< CStringData* >( m_pszData )-1 );

  00005	83 ea 10	 sub	 edx, 16			; 00000010H

; 92   : 		if( _InterlockedDecrement( &nRefs ) <= 0 )

  00008	f0 0f c1 42 0c	 lock	  xadd	 DWORD PTR [edx+12], eax
  0000d	48		 dec	 eax
  0000e	85 c0		 test	 eax, eax
  00010	7f 08		 jg	 SHORT $LN8@CStringT

; 93   : 		{
; 94   : 			pStringMgr->Free( this );

  00012	8b 0a		 mov	 ecx, DWORD PTR [edx]
  00014	52		 push	 edx
  00015	8b 01		 mov	 eax, DWORD PTR [ecx]
  00017	ff 50 04	 call	 DWORD PTR [eax+4]
$LN8@CStringT:
; File C:\Program Files\Microsoft Visual Studio\2022\Professional\VC\Tools\MSVC\14.44.35207\atlmfc\include\cstringt.h

; 1303 : 	}

  0001a	c3		 ret	 0
??1?$CStringT@DV?$StrTraitMFC@DV?$ChTraitsCRT@D@ATL@@@@@ATL@@QAE@XZ ENDP ; ATL::CStringT<char,StrTraitMFC<char,ATL::ChTraitsCRT<char> > >::~CStringT<char,StrTraitMFC<char,ATL::ChTraitsCRT<char> > >
_TEXT	ENDS
; Function compile flags: /Ogtp
; File C:\Program Files\Microsoft Visual Studio\2022\Professional\VC\Tools\MSVC\14.44.35207\atlmfc\include\atlsimpstr.h
;	COMDAT ?Reallocate@?$CSimpleStringT@D$0A@@ATL@@AAEXH@Z
_TEXT	SEGMENT
_nLength$ = 8						; size = 4
?Reallocate@?$CSimpleStringT@D$0A@@ATL@@AAEXH@Z PROC	; ATL::CSimpleStringT<char,0>::Reallocate, COMDAT
; _this$ = ecx

; 853  : 	{

  00000	55		 push	 ebp
  00001	8b ec		 mov	 ebp, esp
  00003	56		 push	 esi

; 854  : 		CStringData* pOldData = GetData();
; 855  : 		ATLASSERT( pOldData->nAllocLength < nLength );
; 856  : 		IAtlStringMgr* pStringMgr = pOldData->pStringMgr;
; 857  : 		if ( pOldData->nAllocLength >= nLength || nLength <= 0)

  00004	8b 75 08	 mov	 esi, DWORD PTR _nLength$[ebp]
  00007	57		 push	 edi
  00008	8b f9		 mov	 edi, ecx

; 804  : 		return( reinterpret_cast< CStringData* >( m_pszData )-1 );

  0000a	8b 17		 mov	 edx, DWORD PTR [edi]
  0000c	83 ea 10	 sub	 edx, 16			; 00000010H

; 854  : 		CStringData* pOldData = GetData();
; 855  : 		ATLASSERT( pOldData->nAllocLength < nLength );
; 856  : 		IAtlStringMgr* pStringMgr = pOldData->pStringMgr;
; 857  : 		if ( pOldData->nAllocLength >= nLength || nLength <= 0)

  0000f	39 72 08	 cmp	 DWORD PTR [edx+8], esi
  00012	7d 1e		 jge	 SHORT $LN3@Reallocate
  00014	85 f6		 test	 esi, esi
  00016	7e 1a		 jle	 SHORT $LN3@Reallocate

; 860  : 			return;
; 861  : 		}
; 862  : 		CStringData* pNewData = pStringMgr->Reallocate( pOldData, nLength, sizeof( XCHAR ) );

  00018	8b 0a		 mov	 ecx, DWORD PTR [edx]
  0001a	6a 01		 push	 1
  0001c	56		 push	 esi
  0001d	52		 push	 edx
  0001e	8b 01		 mov	 eax, DWORD PTR [ecx]
  00020	ff 50 08	 call	 DWORD PTR [eax+8]

; 863  : 		if( pNewData == NULL )

  00023	85 c0		 test	 eax, eax
  00025	74 0b		 je	 SHORT $LN3@Reallocate

; 864  : 		{
; 865  : 			ThrowMemoryException();
; 866  : 		}
; 867  : 		Attach( pNewData );

  00027	83 c0 10	 add	 eax, 16			; 00000010H
  0002a	89 07		 mov	 DWORD PTR [edi], eax
  0002c	5f		 pop	 edi
  0002d	5e		 pop	 esi

; 868  : 	}

  0002e	5d		 pop	 ebp
  0002f	c2 04 00	 ret	 4
$LN3@Reallocate:

; 858  : 		{
; 859  : 			ThrowMemoryException();

  00032	e8 00 00 00 00	 call	 ?ThrowMemoryException@?$CSimpleStringT@D$0A@@ATL@@KAXXZ ; ATL::CSimpleStringT<char,0>::ThrowMemoryException
$LN12@Reallocate:
  00037	cc		 int	 3
?Reallocate@?$CSimpleStringT@D$0A@@ATL@@AAEXH@Z ENDP	; ATL::CSimpleStringT<char,0>::Reallocate
_TEXT	ENDS
; Function compile flags: /Ogtp
; File C:\Program Files\Microsoft Visual Studio\2022\Professional\VC\Tools\MSVC\14.44.35207\atlmfc\include\atlsimpstr.h
;	COMDAT ?PrepareWrite2@?$CSimpleStringT@D$0A@@ATL@@AAEXH@Z
_TEXT	SEGMENT
_nLength$ = 8						; size = 4
?PrepareWrite2@?$CSimpleStringT@D$0A@@ATL@@AAEXH@Z PROC	; ATL::CSimpleStringT<char,0>::PrepareWrite2, COMDAT
; _this$ = ecx

; 822  : 	{

  00000	55		 push	 ebp
  00001	8b ec		 mov	 ebp, esp
  00003	56		 push	 esi

; 823  : 		CStringData* pOldData = GetData();
; 824  : 		if( pOldData->nDataLength > nLength )

  00004	8b 75 08	 mov	 esi, DWORD PTR _nLength$[ebp]
  00007	57		 push	 edi
  00008	8b f9		 mov	 edi, ecx

; 804  : 		return( reinterpret_cast< CStringData* >( m_pszData )-1 );

  0000a	8b 0f		 mov	 ecx, DWORD PTR [edi]

; 823  : 		CStringData* pOldData = GetData();
; 824  : 		if( pOldData->nDataLength > nLength )

  0000c	39 71 f4	 cmp	 DWORD PTR [ecx-12], esi
  0000f	0f 4f 71 f4	 cmovg	 esi, DWORD PTR [ecx-12]

; 77   : 		return( nRefs > 1 );

  00013	83 79 fc 01	 cmp	 DWORD PTR [ecx-4], 1

; 825  : 		{
; 826  : 			nLength = pOldData->nDataLength;
; 827  : 		}
; 828  : 		if( pOldData->IsShared() )

  00017	7e 0e		 jle	 SHORT $LN3@PrepareWri

; 829  : 		{
; 830  : 			Fork( nLength );

  00019	56		 push	 esi
  0001a	8b cf		 mov	 ecx, edi
  0001c	e8 00 00 00 00	 call	 ?Fork@?$CSimpleStringT@D$0A@@ATL@@AAEXH@Z ; ATL::CSimpleStringT<char,0>::Fork
  00021	5f		 pop	 edi

; 850  : 		}
; 851  : 	}

  00022	5e		 pop	 esi
  00023	5d		 pop	 ebp
  00024	c2 04 00	 ret	 4
$LN3@PrepareWri:

; 831  : 		}
; 832  : 		else if( pOldData->nAllocLength < nLength )

  00027	8b 49 f8	 mov	 ecx, DWORD PTR [ecx-8]
  0002a	3b ce		 cmp	 ecx, esi
  0002c	7d 25		 jge	 SHORT $LN5@PrepareWri

; 833  : 		{
; 834  : 			// Grow exponentially, until we hit 1G, then by 1M thereafter.
; 835  : 			int nNewLength = pOldData->nAllocLength;
; 836  : 			if( nNewLength > 1024 * 1024 * 1024 )

  0002e	81 f9 00 00 00
	40		 cmp	 ecx, 1073741824		; 40000000H
  00034	7e 07		 jle	 SHORT $LN6@PrepareWri

; 837  : 			{
; 838  : 				nNewLength += 1024 * 1024;

  00036	b8 00 00 10 00	 mov	 eax, 1048576		; 00100000H

; 839  : 			}

  0003b	eb 07		 jmp	 SHORT $LN7@PrepareWri
$LN6@PrepareWri:

; 840  : 			else
; 841  : 			{
; 842  : 				// Exponential growth factor is 1.5.
; 843  : 				nNewLength = nNewLength + nNewLength / 2;

  0003d	8b c1		 mov	 eax, ecx
  0003f	99		 cdq
  00040	2b c2		 sub	 eax, edx
  00042	d1 f8		 sar	 eax, 1
$LN7@PrepareWri:

; 844  : 			}
; 845  : 			if( nNewLength < nLength )

  00044	03 c1		 add	 eax, ecx

; 846  : 			{
; 847  : 				nNewLength = nLength;
; 848  : 			}
; 849  : 			Reallocate( nNewLength );

  00046	8b cf		 mov	 ecx, edi
  00048	3b c6		 cmp	 eax, esi
  0004a	0f 4d f0	 cmovge	 esi, eax
  0004d	56		 push	 esi
  0004e	e8 00 00 00 00	 call	 ?Reallocate@?$CSimpleStringT@D$0A@@ATL@@AAEXH@Z ; ATL::CSimpleStringT<char,0>::Reallocate
$LN5@PrepareWri:

; 850  : 		}
; 851  : 	}

  00053	5f		 pop	 edi
  00054	5e		 pop	 esi
  00055	5d		 pop	 ebp
  00056	c2 04 00	 ret	 4
?PrepareWrite2@?$CSimpleStringT@D$0A@@ATL@@AAEXH@Z ENDP	; ATL::CSimpleStringT<char,0>::PrepareWrite2
_TEXT	ENDS
; Function compile flags: /Ogtp
; File C:\Program Files\Microsoft Visual Studio\2022\Professional\VC\Tools\MSVC\14.44.35207\atlmfc\include\atlsimpstr.h
; File C:\Program Files (x86)\Windows Kits\10\Include\10.0.26100.0\ucrt\corecrt_memcpy_s.h
; File C:\Program Files\Microsoft Visual Studio\2022\Professional\VC\Tools\MSVC\14.44.35207\atlmfc\include\atlsimpstr.h
;	COMDAT ?Fork@?$CSimpleStringT@D$0A@@ATL@@AAEXH@Z
_TEXT	SEGMENT
_this$1$ = -12						; size = 4
_nOldLength$1$ = -8					; size = 4
__Source$1$ = -4					; size = 4
_nLength$ = 8						; size = 4
_pNewData$1$ = 8					; size = 4
?Fork@?$CSimpleStringT@D$0A@@ATL@@AAEXH@Z PROC		; ATL::CSimpleStringT<char,0>::Fork, COMDAT
; _this$ = ecx

; 787  : 	{

  00000	55		 push	 ebp
  00001	8b ec		 mov	 ebp, esp
  00003	83 ec 0c	 sub	 esp, 12			; 0000000cH
  00006	8b c1		 mov	 eax, ecx
  00008	89 45 f4	 mov	 DWORD PTR _this$1$[ebp], eax
  0000b	53		 push	 ebx
  0000c	56		 push	 esi

; 804  : 		return( reinterpret_cast< CStringData* >( m_pszData )-1 );

  0000d	8b 00		 mov	 eax, DWORD PTR [eax]

; 790  : 		CStringData* pNewData = pOldData->pStringMgr->Clone()->Allocate( nLength, sizeof( XCHAR ) );

  0000f	8b 48 f0	 mov	 ecx, DWORD PTR [eax-16]

; 804  : 		return( reinterpret_cast< CStringData* >( m_pszData )-1 );

  00012	8d 58 f0	 lea	 ebx, DWORD PTR [eax-16]
  00015	89 45 fc	 mov	 DWORD PTR __Source$1$[ebp], eax

; 787  : 	{

  00018	57		 push	 edi

; 788  : 		CStringData* pOldData = GetData();
; 789  : 		int nOldLength = pOldData->nDataLength;

  00019	8b 7b 04	 mov	 edi, DWORD PTR [ebx+4]

; 790  : 		CStringData* pNewData = pOldData->pStringMgr->Clone()->Allocate( nLength, sizeof( XCHAR ) );

  0001c	8b 01		 mov	 eax, DWORD PTR [ecx]
  0001e	89 7d f8	 mov	 DWORD PTR _nOldLength$1$[ebp], edi
  00021	ff 50 10	 call	 DWORD PTR [eax+16]
  00024	8b 75 08	 mov	 esi, DWORD PTR _nLength$[ebp]
  00027	8b c8		 mov	 ecx, eax
  00029	6a 01		 push	 1
  0002b	56		 push	 esi
  0002c	8b 10		 mov	 edx, DWORD PTR [eax]
  0002e	ff 12		 call	 DWORD PTR [edx]
  00030	89 45 08	 mov	 DWORD PTR _pNewData$1$[ebp], eax

; 791  : 		if( pNewData == NULL )

  00033	85 c0		 test	 eax, eax
  00035	74 6c		 je	 SHORT $LN25@Fork

; 794  : 		}
; 795  : 		int nCharsToCopy = ((nOldLength < nLength) ? nOldLength : nLength)+1;  // Copy '\0'

  00037	3b fe		 cmp	 edi, esi
  00039	0f 4c f7	 cmovl	 esi, edi

; 796  : 		memcpy_s( PXSTR( pNewData->data() ), nCharsToCopy * sizeof( XCHAR ),

  0003c	8d 78 10	 lea	 edi, DWORD PTR [eax+16]
  0003f	83 c6 01	 add	 esi, 1
; File C:\Program Files (x86)\Windows Kits\10\Include\10.0.26100.0\ucrt\corecrt_memcpy_s.h

; 47   :         if (_SourceSize == 0)

  00042	74 33		 je	 SHORT $LN11@Fork

; 48   :         {
; 49   :             return 0;
; 50   :         }
; 51   : 
; 52   :         _CRT_MEMCPY_S_VALIDATE_RETURN_ERRCODE(_Destination != NULL, EINVAL);

  00044	85 ff		 test	 edi, edi
  00046	74 1f		 je	 SHORT $LN23@Fork

; 53   :         if (_Source == NULL || _DestinationSize < _SourceSize)

  00048	8b 45 fc	 mov	 eax, DWORD PTR __Source$1$[ebp]
  0004b	56		 push	 esi
  0004c	85 c0		 test	 eax, eax
  0004e	74 0c		 je	 SHORT $LN10@Fork

; 56   : 
; 57   :             _CRT_MEMCPY_S_VALIDATE_RETURN_ERRCODE(_Source != NULL,                 EINVAL);
; 58   :             _CRT_MEMCPY_S_VALIDATE_RETURN_ERRCODE(_DestinationSize >= _SourceSize, ERANGE);
; 59   : 
; 60   :             // Unreachable, but required to suppress /analyze warnings:
; 61   :             return EINVAL;
; 62   :         }
; 63   :         memcpy(_Destination, _Source, _SourceSize);

  00050	50		 push	 eax
  00051	57		 push	 edi
  00052	e8 00 00 00 00	 call	 _memcpy
  00057	83 c4 0c	 add	 esp, 12			; 0000000cH
  0005a	eb 1b		 jmp	 SHORT $LN11@Fork
$LN10@Fork:

; 54   :         {
; 55   :             memset(_Destination, 0, _DestinationSize);

  0005c	6a 00		 push	 0
  0005e	57		 push	 edi
  0005f	e8 00 00 00 00	 call	 _memset
  00064	83 c4 0c	 add	 esp, 12			; 0000000cH
$LN23@Fork:
; File C:\Program Files\Microsoft Visual Studio\2022\Professional\VC\Tools\MSVC\14.44.35207\atlmfc\include\atlsimpstr.h

; 798  : 		pNewData->nDataLength = nOldLength;

  00067	e8 00 00 00 00	 call	 __errno
  0006c	c7 00 16 00 00
	00		 mov	 DWORD PTR [eax], 22	; 00000016H
  00072	e8 00 00 00 00	 call	 __invalid_parameter_noinfo
$LN11@Fork:
  00077	8b 4d 08	 mov	 ecx, DWORD PTR _pNewData$1$[ebp]
  0007a	8b 45 f8	 mov	 eax, DWORD PTR _nOldLength$1$[ebp]
  0007d	89 41 04	 mov	 DWORD PTR [ecx+4], eax

; 92   : 		if( _InterlockedDecrement( &nRefs ) <= 0 )

  00080	83 c8 ff	 or	 eax, -1
  00083	f0 0f c1 43 0c	 lock	  xadd	 DWORD PTR [ebx+12], eax
  00088	48		 dec	 eax
  00089	85 c0		 test	 eax, eax
  0008b	7f 08		 jg	 SHORT $LN15@Fork

; 93   : 		{
; 94   : 			pStringMgr->Free( this );

  0008d	8b 0b		 mov	 ecx, DWORD PTR [ebx]
  0008f	53		 push	 ebx
  00090	8b 01		 mov	 eax, DWORD PTR [ecx]
  00092	ff 50 04	 call	 DWORD PTR [eax+4]
$LN15@Fork:

; 799  : 		pOldData->Release();
; 800  : 		Attach( pNewData );

  00095	8b 45 f4	 mov	 eax, DWORD PTR _this$1$[ebp]
  00098	89 38		 mov	 DWORD PTR [eax], edi

; 801  : 	}

  0009a	5f		 pop	 edi
  0009b	5e		 pop	 esi
  0009c	5b		 pop	 ebx
  0009d	8b e5		 mov	 esp, ebp
  0009f	5d		 pop	 ebp
  000a0	c2 04 00	 ret	 4
$LN25@Fork:

; 792  : 		{
; 793  : 			ThrowMemoryException();

  000a3	e8 00 00 00 00	 call	 ?ThrowMemoryException@?$CSimpleStringT@D$0A@@ATL@@KAXXZ ; ATL::CSimpleStringT<char,0>::ThrowMemoryException
$LN22@Fork:
  000a8	cc		 int	 3
?Fork@?$CSimpleStringT@D$0A@@ATL@@AAEXH@Z ENDP		; ATL::CSimpleStringT<char,0>::Fork
_TEXT	ENDS
; Function compile flags: /Ogtp
; File C:\Program Files\Microsoft Visual Studio\2022\Professional\VC\Tools\MSVC\14.44.35207\atlmfc\include\atlsimpstr.h
;	COMDAT ?ThrowMemoryException@?$CSimpleStringT@D$0A@@ATL@@KAXXZ
_TEXT	SEGMENT
?ThrowMemoryException@?$CSimpleStringT@D$0A@@ATL@@KAXXZ PROC ; ATL::CSimpleStringT<char,0>::ThrowMemoryException, COMDAT

; 777  : 		AtlThrow( E_OUTOFMEMORY );

  00000	68 0e 00 07 80	 push	 -2147024882		; 8007000eH
  00005	e8 00 00 00 00	 call	 ?AtlThrowImpl@ATL@@YGXJ@Z ; ATL::AtlThrowImpl
$LN3@ThrowMemor:
  0000a	cc		 int	 3
?ThrowMemoryException@?$CSimpleStringT@D$0A@@ATL@@KAXXZ ENDP ; ATL::CSimpleStringT<char,0>::ThrowMemoryException
_TEXT	ENDS
; Function compile flags: /Ogtp
; File C:\Program Files\Microsoft Visual Studio\2022\Professional\VC\Tools\MSVC\14.44.35207\atlmfc\include\atlsimpstr.h
; File C:\Program Files (x86)\Windows Kits\10\Include\10.0.26100.0\ucrt\corecrt_memcpy_s.h
; File C:\Program Files\Microsoft Visual Studio\2022\Professional\VC\Tools\MSVC\14.44.35207\atlmfc\include\atlsimpstr.h
; File C:\Program Files (x86)\Windows Kits\10\Include\10.0.26100.0\ucrt\corecrt_memcpy_s.h
; File C:\Program Files\Microsoft Visual Studio\2022\Professional\VC\Tools\MSVC\14.44.35207\atlmfc\include\atlsimpstr.h
;	COMDAT ?SetString@?$CSimpleStringT@D$0A@@ATL@@QAEXPBDH@Z
_TEXT	SEGMENT
_pszSrc$ = 8						; size = 4
_nOldLength$1$ = 8					; size = 4
_nLength$ = 12						; size = 4
_nOffset$1$ = 12					; size = 4
?SetString@?$CSimpleStringT@D$0A@@ATL@@QAEXPBDH@Z PROC	; ATL::CSimpleStringT<char,0>::SetString, COMDAT
; _this$ = ecx

; 611  : 	{

  00000	55		 push	 ebp
  00001	8b ec		 mov	 ebp, esp
  00003	56		 push	 esi

; 612  : 		if( nLength == 0 )

  00004	8b 75 0c	 mov	 esi, DWORD PTR _nLength$[ebp]
  00007	57		 push	 edi
  00008	8b f9		 mov	 edi, ecx
  0000a	85 f6		 test	 esi, esi
  0000c	75 0b		 jne	 SHORT $LN2@SetString

; 613  : 		{
; 614  : 			Empty();

  0000e	e8 00 00 00 00	 call	 ?Empty@?$CSimpleStringT@D$0A@@ATL@@QAEXXZ ; ATL::CSimpleStringT<char,0>::Empty
  00013	5f		 pop	 edi

; 638  : 			else
; 639  : 			{
; 640  : 				memcpy_s( pszBuffer, GetAllocLength() * sizeof( XCHAR ), pszSrc, nLength * sizeof( XCHAR ));
; 641  : 			}
; 642  : 			ReleaseBufferSetLength( nLength );
; 643  : 		}
; 644  : 	}

  00014	5e		 pop	 esi
  00015	5d		 pop	 ebp
  00016	c2 08 00	 ret	 8
$LN2@SetString:
  00019	53		 push	 ebx

; 615  : 		}
; 616  : 		else
; 617  : 		{
; 618  : 			// It is possible that pszSrc points to a location inside of our
; 619  : 			// buffer.  GetBuffer() might change m_pszData if (1) the buffer
; 620  : 			// is shared or (2) the buffer is too small to hold the new
; 621  : 			// string.  We detect this aliasing, and modify pszSrc to point
; 622  : 			// into the newly allocated buffer instead.
; 623  : 
; 624  : 			if(pszSrc == NULL)

  0001a	8b 5d 08	 mov	 ebx, DWORD PTR _pszSrc$[ebp]
  0001d	85 db		 test	 ebx, ebx
  0001f	0f 84 c7 00 00
	00		 je	 $LN50@SetString

; 523  : 		return( GetData()->nDataLength );

  00025	8b 07		 mov	 eax, DWORD PTR [edi]

; 625  : 				AtlThrow(E_INVALIDARG);
; 626  : 
; 627  : 			UINT nOldLength = GetLength();
; 628  : 			UINT_PTR nOffset = pszSrc-GetString();

  00027	8b d3		 mov	 edx, ebx
  00029	2b d0		 sub	 edx, eax
  0002b	89 55 0c	 mov	 DWORD PTR _nOffset$1$[ebp], edx
  0002e	8b 48 f4	 mov	 ecx, DWORD PTR [eax-12]
  00031	89 4d 08	 mov	 DWORD PTR _nOldLength$1$[ebp], ecx

; 808  : 		if (nLength < 0)

  00034	85 f6		 test	 esi, esi
  00036	0f 88 b0 00 00
	00		 js	 $LN50@SetString

; 809  : 			AtlThrow(E_INVALIDARG);
; 810  : 
; 811  : 		CStringData* pOldData = GetData();
; 812  : 		int nShared = 1-pOldData->nRefs;  // nShared < 0 means true, >= 0 means false

  0003c	b9 01 00 00 00	 mov	 ecx, 1
  00041	2b 48 fc	 sub	 ecx, DWORD PTR [eax-4]

; 813  : 		int nTooShort = pOldData->nAllocLength-nLength;  // nTooShort < 0 means true, >= 0 means false

  00044	8b 40 f8	 mov	 eax, DWORD PTR [eax-8]
  00047	2b c6		 sub	 eax, esi

; 814  : 		if( (nShared|nTooShort) < 0 )  // If either sign bit is set (i.e. either is less than zero), we need to copy data

  00049	0b c8		 or	 ecx, eax
  0004b	7d 0b		 jge	 SHORT $LN16@SetString

; 815  : 		{
; 816  : 			PrepareWrite2( nLength );

  0004d	56		 push	 esi
  0004e	8b cf		 mov	 ecx, edi
  00050	e8 00 00 00 00	 call	 ?PrepareWrite2@?$CSimpleStringT@D$0A@@ATL@@AAEXH@Z ; ATL::CSimpleStringT<char,0>::PrepareWrite2
  00055	8b 55 0c	 mov	 edx, DWORD PTR _nOffset$1$[ebp]
$LN16@SetString:

; 629  : 			// If 0 <= nOffset <= nOldLength, then pszSrc points into our
; 630  : 			// buffer
; 631  : 
; 632  : 			PXSTR pszBuffer = GetBuffer( nLength );

  00058	8b 07		 mov	 eax, DWORD PTR [edi]
  0005a	8b 48 f8	 mov	 ecx, DWORD PTR [eax-8]

; 633  : 			if( nOffset <= nOldLength )

  0005d	3b 55 08	 cmp	 edx, DWORD PTR _nOldLength$1$[ebp]
  00060	77 35		 ja	 SHORT $LN5@SetString

; 634  : 			{
; 635  : 				CopyCharsOverlapped( pszBuffer, GetAllocLength(),

  00062	03 d0		 add	 edx, eax
; File C:\Program Files (x86)\Windows Kits\10\Include\10.0.26100.0\ucrt\corecrt_memcpy_s.h

; 81   :         _CRT_MEMCPY_S_VALIDATE_RETURN_ERRCODE(_Destination != NULL,            EINVAL);

  00064	85 c0		 test	 eax, eax
  00066	75 0d		 jne	 SHORT $LN30@SetString
  00068	e8 00 00 00 00	 call	 __errno
  0006d	c7 00 16 00 00
	00		 mov	 DWORD PTR [eax], 22	; 00000016H
  00073	eb 5b		 jmp	 SHORT $LN71@SetString
$LN30@SetString:

; 82   :         _CRT_MEMCPY_S_VALIDATE_RETURN_ERRCODE(_Source != NULL,                 EINVAL);

  00075	85 d2		 test	 edx, edx
  00077	75 0d		 jne	 SHORT $LN31@SetString
  00079	e8 00 00 00 00	 call	 __errno
  0007e	c7 00 16 00 00
	00		 mov	 DWORD PTR [eax], 22	; 00000016H
  00084	eb 4a		 jmp	 SHORT $LN71@SetString
$LN31@SetString:

; 83   :         _CRT_MEMCPY_S_VALIDATE_RETURN_ERRCODE(_DestinationSize >= _SourceSize, ERANGE);

  00086	3b ce		 cmp	 ecx, esi
  00088	72 3b		 jb	 SHORT $LN72@SetString

; 84   : 
; 85   :         memmove(_Destination, _Source, _SourceSize);

  0008a	56		 push	 esi
  0008b	52		 push	 edx
  0008c	50		 push	 eax
  0008d	e8 00 00 00 00	 call	 _memmove
  00092	83 c4 0c	 add	 esp, 12			; 0000000cH
; File C:\Program Files\Microsoft Visual Studio\2022\Professional\VC\Tools\MSVC\14.44.35207\atlmfc\include\atlsimpstr.h

; 637  : 			}

  00095	eb 3e		 jmp	 SHORT $LN44@SetString
$LN5@SetString:
; File C:\Program Files (x86)\Windows Kits\10\Include\10.0.26100.0\ucrt\corecrt_memcpy_s.h

; 52   :         _CRT_MEMCPY_S_VALIDATE_RETURN_ERRCODE(_Destination != NULL, EINVAL);

  00097	85 c0		 test	 eax, eax
  00099	75 0d		 jne	 SHORT $LN40@SetString
  0009b	e8 00 00 00 00	 call	 __errno
  000a0	c7 00 16 00 00
	00		 mov	 DWORD PTR [eax], 22	; 00000016H
  000a6	eb 28		 jmp	 SHORT $LN71@SetString
$LN40@SetString:

; 53   :         if (_Source == NULL || _DestinationSize < _SourceSize)

  000a8	3b ce		 cmp	 ecx, esi
  000aa	72 0d		 jb	 SHORT $LN42@SetString

; 56   : 
; 57   :             _CRT_MEMCPY_S_VALIDATE_RETURN_ERRCODE(_Source != NULL,                 EINVAL);
; 58   :             _CRT_MEMCPY_S_VALIDATE_RETURN_ERRCODE(_DestinationSize >= _SourceSize, ERANGE);
; 59   : 
; 60   :             // Unreachable, but required to suppress /analyze warnings:
; 61   :             return EINVAL;
; 62   :         }
; 63   :         memcpy(_Destination, _Source, _SourceSize);

  000ac	56		 push	 esi
  000ad	53		 push	 ebx
  000ae	50		 push	 eax
  000af	e8 00 00 00 00	 call	 _memcpy
  000b4	83 c4 0c	 add	 esp, 12			; 0000000cH
  000b7	eb 1c		 jmp	 SHORT $LN44@SetString
$LN42@SetString:

; 54   :         {
; 55   :             memset(_Destination, 0, _DestinationSize);

  000b9	51		 push	 ecx
  000ba	6a 00		 push	 0
  000bc	50		 push	 eax
  000bd	e8 00 00 00 00	 call	 _memset
  000c2	83 c4 0c	 add	 esp, 12			; 0000000cH
$LN72@SetString:
; File C:\Program Files\Microsoft Visual Studio\2022\Professional\VC\Tools\MSVC\14.44.35207\atlmfc\include\atlsimpstr.h

; 875  : 		if( nLength < 0 || nLength > GetData()->nAllocLength)

  000c5	e8 00 00 00 00	 call	 __errno
  000ca	c7 00 22 00 00
	00		 mov	 DWORD PTR [eax], 34	; 00000022H
$LN71@SetString:
  000d0	e8 00 00 00 00	 call	 __invalid_parameter_noinfo
$LN44@SetString:
  000d5	8b 07		 mov	 eax, DWORD PTR [edi]
  000d7	5b		 pop	 ebx
  000d8	3b 70 f8	 cmp	 esi, DWORD PTR [eax-8]
  000db	7f 0f		 jg	 SHORT $LN50@SetString

; 877  : 
; 878  : 		GetData()->nDataLength = nLength;

  000dd	89 70 f4	 mov	 DWORD PTR [eax-12], esi

; 879  : 		m_pszData[nLength] = 0;

  000e0	8b 07		 mov	 eax, DWORD PTR [edi]
  000e2	5f		 pop	 edi
  000e3	c6 04 06 00	 mov	 BYTE PTR [esi+eax], 0

; 638  : 			else
; 639  : 			{
; 640  : 				memcpy_s( pszBuffer, GetAllocLength() * sizeof( XCHAR ), pszSrc, nLength * sizeof( XCHAR ));
; 641  : 			}
; 642  : 			ReleaseBufferSetLength( nLength );
; 643  : 		}
; 644  : 	}

  000e7	5e		 pop	 esi
  000e8	5d		 pop	 ebp
  000e9	c2 08 00	 ret	 8
$LN50@SetString:

; 876  : 			AtlThrow(E_INVALIDARG);

  000ec	68 57 00 07 80	 push	 -2147024809		; 80070057H
  000f1	e8 00 00 00 00	 call	 ?AtlThrowImpl@ATL@@YGXJ@Z ; ATL::AtlThrowImpl
$LN70@SetString:
  000f6	cc		 int	 3
?SetString@?$CSimpleStringT@D$0A@@ATL@@QAEXPBDH@Z ENDP	; ATL::CSimpleStringT<char,0>::SetString
_TEXT	ENDS
; Function compile flags: /Ogtp
; File C:\Program Files\Microsoft Visual Studio\2022\Professional\VC\Tools\MSVC\14.44.35207\atlmfc\include\atlsimpstr.h
;	COMDAT ?Empty@?$CSimpleStringT@D$0A@@ATL@@QAEXXZ
_TEXT	SEGMENT
?Empty@?$CSimpleStringT@D$0A@@ATL@@QAEXXZ PROC		; ATL::CSimpleStringT<char,0>::Empty, COMDAT
; _this$ = ecx

; 440  : 	{

  00000	56		 push	 esi
  00001	8b f1		 mov	 esi, ecx
  00003	57		 push	 edi

; 804  : 		return( reinterpret_cast< CStringData* >( m_pszData )-1 );

  00004	8b 06		 mov	 eax, DWORD PTR [esi]

; 443  : 		if( pOldData->nDataLength == 0 )

  00006	83 78 f4 00	 cmp	 DWORD PTR [eax-12], 0

; 804  : 		return( reinterpret_cast< CStringData* >( m_pszData )-1 );

  0000a	8d 50 f0	 lea	 edx, DWORD PTR [eax-16]

; 441  : 		CStringData* pOldData = GetData();
; 442  : 		IAtlStringMgr* pStringMgr = pOldData->pStringMgr;

  0000d	8b 3a		 mov	 edi, DWORD PTR [edx]

; 443  : 		if( pOldData->nDataLength == 0 )

  0000f	74 3e		 je	 SHORT $LN4@Empty

; 73   : 		return nRefs < 0;

  00011	83 7a 0c 00	 cmp	 DWORD PTR [edx+12], 0
  00015	8d 4a 0c	 lea	 ecx, DWORD PTR [edx+12]

; 444  : 		{
; 445  : 			return;
; 446  : 		}
; 447  : 
; 448  : 		if( pOldData->IsLocked() )

  00018	7d 15		 jge	 SHORT $LN3@Empty

; 875  : 		if( nLength < 0 || nLength > GetData()->nAllocLength)

  0001a	83 78 f8 00	 cmp	 DWORD PTR [eax-8], 0
  0001e	7c 32		 jl	 SHORT $LN28@Empty

; 877  : 
; 878  : 		GetData()->nDataLength = nLength;

  00020	c7 40 f4 00 00
	00 00		 mov	 DWORD PTR [eax-12], 0

; 879  : 		m_pszData[nLength] = 0;

  00027	8b 06		 mov	 eax, DWORD PTR [esi]
  00029	5f		 pop	 edi

; 458  : 		}
; 459  : 	}

  0002a	5e		 pop	 esi

; 879  : 		m_pszData[nLength] = 0;

  0002b	c6 00 00	 mov	 BYTE PTR [eax], 0

; 458  : 		}
; 459  : 	}

  0002e	c3		 ret	 0
$LN3@Empty:

; 92   : 		if( _InterlockedDecrement( &nRefs ) <= 0 )

  0002f	83 c8 ff	 or	 eax, -1
  00032	f0 0f c1 01	 lock	  xadd	 DWORD PTR [ecx], eax
  00036	48		 dec	 eax
  00037	85 c0		 test	 eax, eax
  00039	7f 08		 jg	 SHORT $LN20@Empty

; 93   : 		{
; 94   : 			pStringMgr->Free( this );

  0003b	8b 0a		 mov	 ecx, DWORD PTR [edx]
  0003d	52		 push	 edx
  0003e	8b 01		 mov	 eax, DWORD PTR [ecx]
  00040	ff 50 04	 call	 DWORD PTR [eax+4]
$LN20@Empty:

; 449  : 		{
; 450  : 			// Don't reallocate a locked buffer that's shrinking
; 451  : 			SetLength( 0 );
; 452  : 		}
; 453  : 		else
; 454  : 		{
; 455  : 			pOldData->Release();
; 456  : 			CStringData* pNewData = pStringMgr->GetNilString();

  00043	8b 07		 mov	 eax, DWORD PTR [edi]
  00045	8b cf		 mov	 ecx, edi
  00047	ff 50 0c	 call	 DWORD PTR [eax+12]

; 457  : 			Attach( pNewData );

  0004a	83 c0 10	 add	 eax, 16			; 00000010H
  0004d	89 06		 mov	 DWORD PTR [esi], eax
$LN4@Empty:

; 458  : 		}
; 459  : 	}

  0004f	5f		 pop	 edi
  00050	5e		 pop	 esi
  00051	c3		 ret	 0
$LN28@Empty:

; 876  : 			AtlThrow(E_INVALIDARG);

  00052	68 57 00 07 80	 push	 -2147024809		; 80070057H
  00057	e8 00 00 00 00	 call	 ?AtlThrowImpl@ATL@@YGXJ@Z ; ATL::AtlThrowImpl
$LN26@Empty:
  0005c	cc		 int	 3
?Empty@?$CSimpleStringT@D$0A@@ATL@@QAEXXZ ENDP		; ATL::CSimpleStringT<char,0>::Empty
_TEXT	ENDS
; Function compile flags: /Ogtp
; File C:\Program Files\Microsoft Visual Studio\2022\Professional\VC\Tools\MSVC\14.44.35207\atlmfc\include\atlmem.h
;	COMDAT ??_GCWin32Heap@ATL@@UAEPAXI@Z
_TEXT	SEGMENT
___flags$ = 8						; size = 4
??_GCWin32Heap@ATL@@UAEPAXI@Z PROC			; ATL::CWin32Heap::`scalar deleting destructor', COMDAT
; _this$ = ecx
  00000	55		 push	 ebp
  00001	8b ec		 mov	 ebp, esp

; 113  : 	{

  00003	56		 push	 esi
  00004	8b f1		 mov	 esi, ecx

; 114  : #ifdef _ATL_USE_WINAPI_FAMILY_DESKTOP_APP
; 115  : 		if( m_bOwnHeap && (m_hHeap != NULL) )

  00006	80 7e 08 00	 cmp	 BYTE PTR [esi+8], 0
  0000a	c7 06 00 00 00
	00		 mov	 DWORD PTR [esi], OFFSET ??_7CWin32Heap@ATL@@6B@
  00010	74 0e		 je	 SHORT $LN5@scalar
  00012	8b 46 04	 mov	 eax, DWORD PTR [esi+4]
  00015	85 c0		 test	 eax, eax
  00017	74 07		 je	 SHORT $LN5@scalar

; 116  : 		{
; 117  : 			BOOL bSuccess;
; 118  : 
; 119  : 			bSuccess = ::HeapDestroy( m_hHeap );

  00019	50		 push	 eax
  0001a	ff 15 00 00 00
	00		 call	 DWORD PTR __imp__HeapDestroy@4
$LN5@scalar:
  00020	f6 45 08 01	 test	 BYTE PTR ___flags$[ebp], 1
  00024	74 0b		 je	 SHORT $LN7@scalar
  00026	6a 0c		 push	 12			; 0000000cH
  00028	56		 push	 esi
  00029	e8 00 00 00 00	 call	 ??3@YAXPAXI@Z		; operator delete
  0002e	83 c4 08	 add	 esp, 8
$LN7@scalar:
  00031	8b c6		 mov	 eax, esi
  00033	5e		 pop	 esi
  00034	5d		 pop	 ebp
  00035	c2 04 00	 ret	 4
??_GCWin32Heap@ATL@@UAEPAXI@Z ENDP			; ATL::CWin32Heap::`scalar deleting destructor'
_TEXT	ENDS
; Function compile flags: /Ogtp
; File C:\Program Files\Microsoft Visual Studio\2022\Professional\VC\Tools\MSVC\14.44.35207\atlmfc\include\atlmem.h
;	COMDAT ?GetSize@CWin32Heap@ATL@@UAEIPAX@Z
_TEXT	SEGMENT
_p$ = 8							; size = 4
?GetSize@CWin32Heap@ATL@@UAEIPAX@Z PROC			; ATL::CWin32Heap::GetSize, COMDAT
; _this$ = ecx

; 179  : 	{

  00000	55		 push	 ebp
  00001	8b ec		 mov	 ebp, esp

; 180  : 		return( ::HeapSize( m_hHeap, 0, p ) );

  00003	ff 75 08	 push	 DWORD PTR _p$[ebp]
  00006	6a 00		 push	 0
  00008	ff 71 04	 push	 DWORD PTR [ecx+4]
  0000b	ff 15 00 00 00
	00		 call	 DWORD PTR __imp__HeapSize@12

; 181  : 	}

  00011	5d		 pop	 ebp
  00012	c2 04 00	 ret	 4
?GetSize@CWin32Heap@ATL@@UAEIPAX@Z ENDP			; ATL::CWin32Heap::GetSize
_TEXT	ENDS
; Function compile flags: /Ogtp
; File C:\Program Files\Microsoft Visual Studio\2022\Professional\VC\Tools\MSVC\14.44.35207\atlmfc\include\atlmem.h
;	COMDAT ?Reallocate@CWin32Heap@ATL@@UAEPAXPAXI@Z
_TEXT	SEGMENT
_p$ = 8							; size = 4
_nBytes$ = 12						; size = 4
?Reallocate@CWin32Heap@ATL@@UAEPAXPAXI@Z PROC		; ATL::CWin32Heap::Reallocate, COMDAT
; _this$ = ecx

; 164  : 	{

  00000	55		 push	 ebp
  00001	8b ec		 mov	 ebp, esp

; 165  : 		if( p == NULL )

  00003	8b 55 08	 mov	 edx, DWORD PTR _p$[ebp]
  00006	85 d2		 test	 edx, edx
  00008	75 0b		 jne	 SHORT $LN2@Reallocate

; 166  : 		{
; 167  : 			return( Allocate( nBytes ) );

  0000a	8b 01		 mov	 eax, DWORD PTR [ecx]
  0000c	ff 75 0c	 push	 DWORD PTR _nBytes$[ebp]
  0000f	ff 10		 call	 DWORD PTR [eax]

; 177  : 	}

  00011	5d		 pop	 ebp
  00012	c2 08 00	 ret	 8
$LN2@Reallocate:

; 168  : 		}
; 169  : 
; 170  : 		if (nBytes==0)

  00015	8b 45 0c	 mov	 eax, DWORD PTR _nBytes$[ebp]
  00018	85 c0		 test	 eax, eax
  0001a	75 0c		 jne	 SHORT $LN3@Reallocate

; 171  : 		{
; 172  : 			  Free(p);

  0001c	8b 01		 mov	 eax, DWORD PTR [ecx]
  0001e	52		 push	 edx
  0001f	ff 50 04	 call	 DWORD PTR [eax+4]

; 173  : 			  return NULL;

  00022	33 c0		 xor	 eax, eax

; 177  : 	}

  00024	5d		 pop	 ebp
  00025	c2 08 00	 ret	 8
$LN3@Reallocate:

; 174  : 		}
; 175  : 
; 176  : 		return( ::HeapReAlloc( m_hHeap, 0, p, nBytes ) );

  00028	50		 push	 eax
  00029	52		 push	 edx
  0002a	6a 00		 push	 0
  0002c	ff 71 04	 push	 DWORD PTR [ecx+4]
  0002f	ff 15 00 00 00
	00		 call	 DWORD PTR __imp__HeapReAlloc@16

; 177  : 	}

  00035	5d		 pop	 ebp
  00036	c2 08 00	 ret	 8
?Reallocate@CWin32Heap@ATL@@UAEPAXPAXI@Z ENDP		; ATL::CWin32Heap::Reallocate
_TEXT	ENDS
; Function compile flags: /Ogtp
; File C:\Program Files\Microsoft Visual Studio\2022\Professional\VC\Tools\MSVC\14.44.35207\atlmfc\include\atlmem.h
;	COMDAT ?Free@CWin32Heap@ATL@@UAEXPAX@Z
_TEXT	SEGMENT
_p$ = 8							; size = 4
?Free@CWin32Heap@ATL@@UAEXPAX@Z PROC			; ATL::CWin32Heap::Free, COMDAT
; _this$ = ecx

; 152  : 	{

  00000	55		 push	 ebp
  00001	8b ec		 mov	 ebp, esp

; 153  : 		if( p != NULL )

  00003	8b 45 08	 mov	 eax, DWORD PTR _p$[ebp]
  00006	85 c0		 test	 eax, eax
  00008	74 0c		 je	 SHORT $LN2@Free

; 154  : 		{
; 155  : 			BOOL bSuccess;
; 156  : 
; 157  : 			bSuccess = ::HeapFree( m_hHeap, 0, p );

  0000a	50		 push	 eax
  0000b	6a 00		 push	 0
  0000d	ff 71 04	 push	 DWORD PTR [ecx+4]
  00010	ff 15 00 00 00
	00		 call	 DWORD PTR __imp__HeapFree@12
$LN2@Free:

; 158  : 			ATLASSERT( bSuccess );
; 159  : 		}
; 160  : 	}

  00016	5d		 pop	 ebp
  00017	c2 04 00	 ret	 4
?Free@CWin32Heap@ATL@@UAEXPAX@Z ENDP			; ATL::CWin32Heap::Free
_TEXT	ENDS
; Function compile flags: /Ogtp
; File C:\Program Files\Microsoft Visual Studio\2022\Professional\VC\Tools\MSVC\14.44.35207\atlmfc\include\atlmem.h
;	COMDAT ?Allocate@CWin32Heap@ATL@@UAEPAXI@Z
_TEXT	SEGMENT
_nBytes$ = 8						; size = 4
?Allocate@CWin32Heap@ATL@@UAEPAXI@Z PROC		; ATL::CWin32Heap::Allocate, COMDAT
; _this$ = ecx

; 148  : 	{

  00000	55		 push	 ebp
  00001	8b ec		 mov	 ebp, esp

; 149  : 		return( ::HeapAlloc( m_hHeap, 0, nBytes ) );

  00003	ff 75 08	 push	 DWORD PTR _nBytes$[ebp]
  00006	6a 00		 push	 0
  00008	ff 71 04	 push	 DWORD PTR [ecx+4]
  0000b	ff 15 00 00 00
	00		 call	 DWORD PTR __imp__HeapAlloc@12

; 150  : 	}

  00011	5d		 pop	 ebp
  00012	c2 04 00	 ret	 4
?Allocate@CWin32Heap@ATL@@UAEPAXI@Z ENDP		; ATL::CWin32Heap::Allocate
_TEXT	ENDS
; Function compile flags: /Ogtp
; File C:\Program Files\Microsoft Visual Studio\2022\Professional\VC\Tools\MSVC\14.44.35207\atlmfc\include\atlmem.h
;	COMDAT ??1CWin32Heap@ATL@@UAE@XZ
_TEXT	SEGMENT
??1CWin32Heap@ATL@@UAE@XZ PROC				; ATL::CWin32Heap::~CWin32Heap, COMDAT
; _this$ = ecx

; 114  : #ifdef _ATL_USE_WINAPI_FAMILY_DESKTOP_APP
; 115  : 		if( m_bOwnHeap && (m_hHeap != NULL) )

  00000	80 79 08 00	 cmp	 BYTE PTR [ecx+8], 0
  00004	c7 01 00 00 00
	00		 mov	 DWORD PTR [ecx], OFFSET ??_7CWin32Heap@ATL@@6B@
  0000a	74 0e		 je	 SHORT $LN2@CWin32Heap
  0000c	8b 41 04	 mov	 eax, DWORD PTR [ecx+4]
  0000f	85 c0		 test	 eax, eax
  00011	74 07		 je	 SHORT $LN2@CWin32Heap

; 116  : 		{
; 117  : 			BOOL bSuccess;
; 118  : 
; 119  : 			bSuccess = ::HeapDestroy( m_hHeap );

  00013	50		 push	 eax
  00014	ff 15 00 00 00
	00		 call	 DWORD PTR __imp__HeapDestroy@4
$LN2@CWin32Heap:

; 120  : 			ATLASSERT( bSuccess );
; 121  : 		}
; 122  : #endif
; 123  : 	}

  0001a	c3		 ret	 0
??1CWin32Heap@ATL@@UAE@XZ ENDP				; ATL::CWin32Heap::~CWin32Heap
_TEXT	ENDS
; Function compile flags: /Ogtp
; File C:\Program Files\Microsoft Visual Studio\2022\Professional\VC\Tools\MSVC\14.44.35207\atlmfc\include\atlwinverapi.h
;	COMDAT ?_AtlInitializeCriticalSectionEx@ATL@@YAHPAU_RTL_CRITICAL_SECTION@@KK@Z
_TEXT	SEGMENT
_lpCriticalSection$ = 8					; size = 4
_dwSpinCount$ = 12					; size = 4
_Flags$ = 16						; size = 4
?_AtlInitializeCriticalSectionEx@ATL@@YAHPAU_RTL_CRITICAL_SECTION@@KK@Z PROC ; ATL::_AtlInitializeCriticalSectionEx, COMDAT

; 731  : {

  00000	55		 push	 ebp
  00001	8b ec		 mov	 ebp, esp

; 732  : #if (NTDDI_VERSION >= NTDDI_VISTA) && !defined(_USING_V110_SDK71_) && !defined(_ATL_XP_TARGETING)
; 733  : 	// InitializeCriticalSectionEx is available in Vista or later, desktop or store apps
; 734  : 	return ::InitializeCriticalSectionEx(lpCriticalSection, dwSpinCount, Flags);
; 735  : #else
; 736  : 	UNREFERENCED_PARAMETER(Flags);
; 737  : 
; 738  : 	// ...otherwise fall back to using InitializeCriticalSectionAndSpinCount.
; 739  : 	return ::InitializeCriticalSectionAndSpinCount(lpCriticalSection, dwSpinCount);

  00003	ff 75 0c	 push	 DWORD PTR _dwSpinCount$[ebp]
  00006	ff 75 08	 push	 DWORD PTR _lpCriticalSection$[ebp]
  00009	ff 15 00 00 00
	00		 call	 DWORD PTR __imp__InitializeCriticalSectionAndSpinCount@8

; 740  : #endif
; 741  : }

  0000f	5d		 pop	 ebp
  00010	c3		 ret	 0
?_AtlInitializeCriticalSectionEx@ATL@@YAHPAU_RTL_CRITICAL_SECTION@@KK@Z ENDP ; ATL::_AtlInitializeCriticalSectionEx
_TEXT	ENDS
; Function compile flags: /Ogtp
; File C:\Program Files\Microsoft Visual Studio\2022\Professional\VC\Tools\MSVC\14.44.35207\atlmfc\include\atlexcept.h
;	COMDAT ?AtlThrowImpl@ATL@@YGXJ@Z
_TEXT	SEGMENT
_hr$ = 8						; size = 4
?AtlThrowImpl@ATL@@YGXJ@Z PROC				; ATL::AtlThrowImpl, COMDAT

; 69   : {

  00000	55		 push	 ebp
  00001	8b ec		 mov	 ebp, esp

; 70   : 	ATLTRACE(atlTraceException, 0, _T("AtlThrow: hr = 0x%x\n"), hr );
; 71   : #ifdef _AFX
; 72   : 	if( hr == E_OUTOFMEMORY )

  00003	8b 45 08	 mov	 eax, DWORD PTR _hr$[ebp]
  00006	3d 0e 00 07 80	 cmp	 eax, -2147024882	; 8007000eH
  0000b	75 05		 jne	 SHORT $LN2@AtlThrowIm

; 73   : 	{
; 74   : 		AfxThrowMemoryException();

  0000d	e8 00 00 00 00	 call	 ?AfxThrowMemoryException@@YGXXZ ; AfxThrowMemoryException
$LN2@AtlThrowIm:

; 75   : 	}
; 76   : 	else
; 77   : 	{
; 78   : 		AfxThrowOleException( hr );

  00012	50		 push	 eax
  00013	e8 00 00 00 00	 call	 ?AfxThrowOleException@@YGXJ@Z ; AfxThrowOleException
$LN5@AtlThrowIm:
  00018	cc		 int	 3
?AtlThrowImpl@ATL@@YGXJ@Z ENDP				; ATL::AtlThrowImpl
_TEXT	ENDS
; Function compile flags: /Ogtp
; File C:\Program Files\Microsoft Visual Studio\2022\Professional\VC\Tools\MSVC\14.44.35207\atlmfc\include\afx.h
;	COMDAT ?AfxCrtErrorCheck@@YAHH@Z
_TEXT	SEGMENT
_error$ = 8						; size = 4
?AfxCrtErrorCheck@@YAHH@Z PROC				; AfxCrtErrorCheck, COMDAT

; 510  : {

  00000	55		 push	 ebp
  00001	8b ec		 mov	 ebp, esp

; 511  : 	switch(error)

  00003	8b 4d 08	 mov	 ecx, DWORD PTR _error$[ebp]
  00006	83 f9 50	 cmp	 ecx, 80			; 00000050H
  00009	77 17		 ja	 SHORT $LN9@AfxCrtErro
  0000b	0f b6 81 00 00
	00 00		 movzx	 eax, BYTE PTR $LN11@AfxCrtErro[ecx]
  00012	ff 24 85 00 00
	00 00		 jmp	 DWORD PTR $LN12@AfxCrtErro[eax*4]
$LN4@AfxCrtErro:

; 512  : 	{
; 513  : 	case ENOMEM:
; 514  : 		AfxThrowMemoryException();

  00019	e9 00 00 00 00	 jmp	 ?AfxThrowMemoryException@@YGXXZ ; AfxThrowMemoryException
$LN7@AfxCrtErro:

; 525  : 		break;
; 526  : 	}
; 527  : 	return error;

  0001e	8b c1		 mov	 eax, ecx

; 528  : }

  00020	5d		 pop	 ebp
  00021	c3		 ret	 0
$LN9@AfxCrtErro:

; 515  : 		break;
; 516  : 	case EINVAL:
; 517  : 	case ERANGE:
; 518  : 		AfxThrowInvalidArgException();
; 519  : 		break;
; 520  : 	case STRUNCATE:
; 521  : 	case 0:
; 522  : 		break;
; 523  : 	default:
; 524  : 		AfxThrowInvalidArgException();

  00022	e9 00 00 00 00	 jmp	 ?AfxThrowInvalidArgException@@YGXXZ ; AfxThrowInvalidArgException
  00027	90		 npad	 1
$LN12@AfxCrtErro:

; 528  : }

  00028	00 00 00 00	 DD	 $LN7@AfxCrtErro
  0002c	00 00 00 00	 DD	 $LN4@AfxCrtErro
  00030	00 00 00 00	 DD	 $LN9@AfxCrtErro
  00034	00 00 00 00	 DD	 $LN9@AfxCrtErro
$LN11@AfxCrtErro:
  00038	00		 DB	 0
  00039	03		 DB	 3
  0003a	03		 DB	 3
  0003b	03		 DB	 3
  0003c	03		 DB	 3
  0003d	03		 DB	 3
  0003e	03		 DB	 3
  0003f	03		 DB	 3
  00040	03		 DB	 3
  00041	03		 DB	 3
  00042	03		 DB	 3
  00043	03		 DB	 3
  00044	01		 DB	 1
  00045	03		 DB	 3
  00046	03		 DB	 3
  00047	03		 DB	 3
  00048	03		 DB	 3
  00049	03		 DB	 3
  0004a	03		 DB	 3
  0004b	03		 DB	 3
  0004c	03		 DB	 3
  0004d	03		 DB	 3
  0004e	02		 DB	 2
  0004f	03		 DB	 3
  00050	03		 DB	 3
  00051	03		 DB	 3
  00052	03		 DB	 3
  00053	03		 DB	 3
  00054	03		 DB	 3
  00055	03		 DB	 3
  00056	03		 DB	 3
  00057	03		 DB	 3
  00058	03		 DB	 3
  00059	03		 DB	 3
  0005a	02		 DB	 2
  0005b	03		 DB	 3
  0005c	03		 DB	 3
  0005d	03		 DB	 3
  0005e	03		 DB	 3
  0005f	03		 DB	 3
  00060	03		 DB	 3
  00061	03		 DB	 3
  00062	03		 DB	 3
  00063	03		 DB	 3
  00064	03		 DB	 3
  00065	03		 DB	 3
  00066	03		 DB	 3
  00067	03		 DB	 3
  00068	03		 DB	 3
  00069	03		 DB	 3
  0006a	03		 DB	 3
  0006b	03		 DB	 3
  0006c	03		 DB	 3
  0006d	03		 DB	 3
  0006e	03		 DB	 3
  0006f	03		 DB	 3
  00070	03		 DB	 3
  00071	03		 DB	 3
  00072	03		 DB	 3
  00073	03		 DB	 3
  00074	03		 DB	 3
  00075	03		 DB	 3
  00076	03		 DB	 3
  00077	03		 DB	 3
  00078	03		 DB	 3
  00079	03		 DB	 3
  0007a	03		 DB	 3
  0007b	03		 DB	 3
  0007c	03		 DB	 3
  0007d	03		 DB	 3
  0007e	03		 DB	 3
  0007f	03		 DB	 3
  00080	03		 DB	 3
  00081	03		 DB	 3
  00082	03		 DB	 3
  00083	03		 DB	 3
  00084	03		 DB	 3
  00085	03		 DB	 3
  00086	03		 DB	 3
  00087	03		 DB	 3
  00088	00		 DB	 0
?AfxCrtErrorCheck@@YAHH@Z ENDP				; AfxCrtErrorCheck
_TEXT	ENDS
; Function compile flags: /Ogtp
; File C:\Program Files (x86)\Windows Kits\10\Include\10.0.26100.0\ucrt\stdio.h
;	COMDAT __vsnprintf
_TEXT	SEGMENT
__Buffer$ = 8						; size = 4
__BufferCount$ = 12					; size = 4
__Format$ = 16						; size = 4
__ArgList$ = 20						; size = 4
__vsnprintf PROC					; COMDAT

; 1411 :     {

  00000	55		 push	 ebp
  00001	8b ec		 mov	 ebp, esp

; 1392 :         int const _Result = __stdio_common_vsprintf(

  00003	ff 75 14	 push	 DWORD PTR __ArgList$[ebp]
  00006	6a 00		 push	 0
  00008	ff 75 10	 push	 DWORD PTR __Format$[ebp]
  0000b	ff 75 0c	 push	 DWORD PTR __BufferCount$[ebp]
  0000e	ff 75 08	 push	 DWORD PTR __Buffer$[ebp]
  00011	e8 00 00 00 00	 call	 ___local_stdio_printf_options
  00016	8b 08		 mov	 ecx, DWORD PTR [eax]
  00018	ff 70 04	 push	 DWORD PTR [eax+4]
  0001b	83 c9 01	 or	 ecx, 1
  0001e	51		 push	 ecx
  0001f	e8 00 00 00 00	 call	 ___stdio_common_vsprintf

; 1393 :             _CRT_INTERNAL_LOCAL_PRINTF_OPTIONS | _CRT_INTERNAL_PRINTF_LEGACY_VSPRINTF_NULL_TERMINATION,
; 1394 :             _Buffer, _BufferCount, _Format, _Locale, _ArgList);
; 1395 : 
; 1396 :         return _Result < 0 ? -1 : _Result;

  00024	83 c9 ff	 or	 ecx, -1
  00027	83 c4 1c	 add	 esp, 28			; 0000001cH
  0002a	85 c0		 test	 eax, eax
  0002c	0f 48 c1	 cmovs	 eax, ecx

; 1412 :         return _vsnprintf_l(_Buffer, _BufferCount, _Format, NULL, _ArgList);
; 1413 :     }

  0002f	5d		 pop	 ebp
  00030	c3		 ret	 0
__vsnprintf ENDP
_TEXT	ENDS
; Function compile flags: /Ogtp
; File C:\Program Files (x86)\Windows Kits\10\Include\10.0.26100.0\ucrt\corecrt_wstdio.h
;	COMDAT __vsnwprintf
_TEXT	SEGMENT
__Buffer$ = 8						; size = 4
__BufferCount$ = 12					; size = 4
__Format$ = 16						; size = 4
__ArgList$ = 20						; size = 4
__vsnwprintf PROC					; COMDAT

; 1129 :     {

  00000	55		 push	 ebp
  00001	8b ec		 mov	 ebp, esp

; 1062 :         int const _Result = __stdio_common_vswprintf(

  00003	ff 75 14	 push	 DWORD PTR __ArgList$[ebp]
  00006	6a 00		 push	 0
  00008	ff 75 10	 push	 DWORD PTR __Format$[ebp]
  0000b	ff 75 0c	 push	 DWORD PTR __BufferCount$[ebp]
  0000e	ff 75 08	 push	 DWORD PTR __Buffer$[ebp]
  00011	e8 00 00 00 00	 call	 ___local_stdio_printf_options
  00016	8b 08		 mov	 ecx, DWORD PTR [eax]
  00018	ff 70 04	 push	 DWORD PTR [eax+4]
  0001b	83 c9 01	 or	 ecx, 1
  0001e	51		 push	 ecx
  0001f	e8 00 00 00 00	 call	 ___stdio_common_vswprintf

; 1063 :             _CRT_INTERNAL_LOCAL_PRINTF_OPTIONS | _CRT_INTERNAL_PRINTF_LEGACY_VSPRINTF_NULL_TERMINATION,
; 1064 :             _Buffer, _BufferCount, _Format, _Locale, _ArgList);
; 1065 : 
; 1066 :         return _Result < 0 ? -1 : _Result;

  00024	83 c9 ff	 or	 ecx, -1
  00027	83 c4 1c	 add	 esp, 28			; 0000001cH
  0002a	85 c0		 test	 eax, eax
  0002c	0f 48 c1	 cmovs	 eax, ecx

; 1130 :         return _vsnwprintf_l(_Buffer, _BufferCount, _Format, NULL, _ArgList);
; 1131 :     }

  0002f	5d		 pop	 ebp
  00030	c3		 ret	 0
__vsnwprintf ENDP
_TEXT	ENDS
; Function compile flags: /Ogtp
; File C:\Program Files (x86)\Windows Kits\10\Include\10.0.26100.0\ucrt\corecrt_stdio_config.h
;	COMDAT ___local_stdio_printf_options
_TEXT	SEGMENT
___local_stdio_printf_options PROC			; COMDAT

; 91   :         static unsigned __int64 _OptionsStorage;
; 92   :         return &_OptionsStorage;

  00000	b8 00 00 00 00	 mov	 eax, OFFSET ?_OptionsStorage@?1??__local_stdio_printf_options@@9@4_KA ; `__local_stdio_printf_options'::`2'::_OptionsStorage

; 93   :     }

  00005	c3		 ret	 0
___local_stdio_printf_options ENDP
_TEXT	ENDS
; Function compile flags: /Ogtp
; File C:\IAGOS\server\v18\Source\Source\WorldServer\StdAfx.cpp
;	COMDAT ?__empty_global_delete@@YAXPAXI@Z
_TEXT	SEGMENT
___formal$ = 8						; size = 4
___formal$ = 12						; size = 4
?__empty_global_delete@@YAXPAXI@Z PROC			; __empty_global_delete, COMDAT

  00000	c2 00 00	 ret	 0
?__empty_global_delete@@YAXPAXI@Z ENDP			; __empty_global_delete
_TEXT	ENDS
; Function compile flags: /Ogtp
; File C:\IAGOS\server\v18\Source\Source\WorldServer\StdAfx.cpp
;	COMDAT ?__empty_global_delete@@YAXPAX@Z
_TEXT	SEGMENT
___formal$ = 8						; size = 4
?__empty_global_delete@@YAXPAX@Z PROC			; __empty_global_delete, COMDAT

  00000	c2 00 00	 ret	 0
?__empty_global_delete@@YAXPAX@Z ENDP			; __empty_global_delete
_TEXT	ENDS
; Function compile flags: /Ogtp
;	COMDAT ??_H@YGXPAXIIP6EPAX0@Z@Z
_TEXT	SEGMENT
___t$ = 8						; size = 4
___s$ = 12						; size = 4
___n$ = 16						; size = 4
___f$ = 20						; size = 4
??_H@YGXPAXIIP6EPAX0@Z@Z PROC				; `vector constructor iterator', COMDAT
  00000	55		 push	 ebp
  00001	8b ec		 mov	 ebp, esp
  00003	56		 push	 esi
  00004	8b 75 10	 mov	 esi, DWORD PTR ___n$[ebp]
  00007	85 f6		 test	 esi, esi
  00009	74 16		 je	 SHORT $LN6@vector
  0000b	53		 push	 ebx
  0000c	8b 5d 14	 mov	 ebx, DWORD PTR ___f$[ebp]
  0000f	57		 push	 edi
  00010	8b 7d 08	 mov	 edi, DWORD PTR ___t$[ebp]
$LL2@vector:
  00013	8b cf		 mov	 ecx, edi
  00015	ff d3		 call	 ebx
  00017	03 7d 0c	 add	 edi, DWORD PTR ___s$[ebp]
  0001a	83 ee 01	 sub	 esi, 1
  0001d	75 f4		 jne	 SHORT $LL2@vector
  0001f	5f		 pop	 edi
  00020	5b		 pop	 ebx
$LN6@vector:
  00021	5e		 pop	 esi
  00022	5d		 pop	 ebp
  00023	c2 10 00	 ret	 16			; 00000010H
??_H@YGXPAXIIP6EPAX0@Z@Z ENDP				; `vector constructor iterator'
_TEXT	ENDS
END
